   1              		.file	"wifi_eloop.c"
   2              		.option nopic
   3              		.attribute arch, "rv32i2p0_m2p0_a2p0_f2p0_c2p0_b_p0p94"
   4              		.attribute unaligned_access, 0
   5              		.attribute stack_align, 16
   6              		.text
   7              	.Ltext0:
   8              		.cfi_sections	.debug_frame
   9              		.section	.text.eloop_timeout_remove,"ax",@progbits
  10              		.align	1
  12              	eloop_timeout_remove:
  13              	.LFB22:
  14              		.file 1 "C:/Users/stapi/OneDrive/Desktop/GD32VW553/V1_MQTT_OK/GD32VW55X_Wifi_BLE_SDK/GD32VW55x_REL
   1:C:/Users/stapi/OneDrive/Desktop/GD32VW553/V1_MQTT_OK/GD32VW55X_Wifi_BLE_SDK/GD32VW55x_RELEASE_V1.0.2/MSDK/wifi_manager\wifi_eloop.c **** /*
   2:C:/Users/stapi/OneDrive/Desktop/GD32VW553/V1_MQTT_OK/GD32VW55X_Wifi_BLE_SDK/GD32VW55x_RELEASE_V1.0.2/MSDK/wifi_manager\wifi_eloop.c ****  * Event loop based on select() loop
   3:C:/Users/stapi/OneDrive/Desktop/GD32VW553/V1_MQTT_OK/GD32VW55X_Wifi_BLE_SDK/GD32VW55x_RELEASE_V1.0.2/MSDK/wifi_manager\wifi_eloop.c ****  * Copyright (c) 2002-2009, Jouni Malinen <j@w1.fi>
   4:C:/Users/stapi/OneDrive/Desktop/GD32VW553/V1_MQTT_OK/GD32VW55X_Wifi_BLE_SDK/GD32VW55x_RELEASE_V1.0.2/MSDK/wifi_manager\wifi_eloop.c ****  *
   5:C:/Users/stapi/OneDrive/Desktop/GD32VW553/V1_MQTT_OK/GD32VW55X_Wifi_BLE_SDK/GD32VW55x_RELEASE_V1.0.2/MSDK/wifi_manager\wifi_eloop.c ****  * This program is free software; you can redistribute it and/or modify
   6:C:/Users/stapi/OneDrive/Desktop/GD32VW553/V1_MQTT_OK/GD32VW55X_Wifi_BLE_SDK/GD32VW55x_RELEASE_V1.0.2/MSDK/wifi_manager\wifi_eloop.c ****  * it under the terms of the GNU General Public License version 2 as
   7:C:/Users/stapi/OneDrive/Desktop/GD32VW553/V1_MQTT_OK/GD32VW55X_Wifi_BLE_SDK/GD32VW55x_RELEASE_V1.0.2/MSDK/wifi_manager\wifi_eloop.c ****  * published by the Free Software Foundation.
   8:C:/Users/stapi/OneDrive/Desktop/GD32VW553/V1_MQTT_OK/GD32VW55X_Wifi_BLE_SDK/GD32VW55x_RELEASE_V1.0.2/MSDK/wifi_manager\wifi_eloop.c ****  *
   9:C:/Users/stapi/OneDrive/Desktop/GD32VW553/V1_MQTT_OK/GD32VW55X_Wifi_BLE_SDK/GD32VW55x_RELEASE_V1.0.2/MSDK/wifi_manager\wifi_eloop.c ****  * Alternatively, this software may be distributed under the terms of BSD
  10:C:/Users/stapi/OneDrive/Desktop/GD32VW553/V1_MQTT_OK/GD32VW55X_Wifi_BLE_SDK/GD32VW55x_RELEASE_V1.0.2/MSDK/wifi_manager\wifi_eloop.c ****  * license.
  11:C:/Users/stapi/OneDrive/Desktop/GD32VW553/V1_MQTT_OK/GD32VW55X_Wifi_BLE_SDK/GD32VW55x_RELEASE_V1.0.2/MSDK/wifi_manager\wifi_eloop.c ****  *
  12:C:/Users/stapi/OneDrive/Desktop/GD32VW553/V1_MQTT_OK/GD32VW55X_Wifi_BLE_SDK/GD32VW55x_RELEASE_V1.0.2/MSDK/wifi_manager\wifi_eloop.c ****  * See README and COPYING for more details.
  13:C:/Users/stapi/OneDrive/Desktop/GD32VW553/V1_MQTT_OK/GD32VW55X_Wifi_BLE_SDK/GD32VW55x_RELEASE_V1.0.2/MSDK/wifi_manager\wifi_eloop.c ****  */
  14:C:/Users/stapi/OneDrive/Desktop/GD32VW553/V1_MQTT_OK/GD32VW55X_Wifi_BLE_SDK/GD32VW55x_RELEASE_V1.0.2/MSDK/wifi_manager\wifi_eloop.c **** 
  15:C:/Users/stapi/OneDrive/Desktop/GD32VW553/V1_MQTT_OK/GD32VW55X_Wifi_BLE_SDK/GD32VW55x_RELEASE_V1.0.2/MSDK/wifi_manager\wifi_eloop.c **** /*!
  16:C:/Users/stapi/OneDrive/Desktop/GD32VW553/V1_MQTT_OK/GD32VW55X_Wifi_BLE_SDK/GD32VW55x_RELEASE_V1.0.2/MSDK/wifi_manager\wifi_eloop.c ****     \file    wifi_eloop.c
  17:C:/Users/stapi/OneDrive/Desktop/GD32VW553/V1_MQTT_OK/GD32VW55X_Wifi_BLE_SDK/GD32VW55x_RELEASE_V1.0.2/MSDK/wifi_manager\wifi_eloop.c ****     \brief   Wifi eloop for GD32VW55x SDK.
  18:C:/Users/stapi/OneDrive/Desktop/GD32VW553/V1_MQTT_OK/GD32VW55X_Wifi_BLE_SDK/GD32VW55x_RELEASE_V1.0.2/MSDK/wifi_manager\wifi_eloop.c **** 
  19:C:/Users/stapi/OneDrive/Desktop/GD32VW553/V1_MQTT_OK/GD32VW55X_Wifi_BLE_SDK/GD32VW55x_RELEASE_V1.0.2/MSDK/wifi_manager\wifi_eloop.c ****     \version 2023-07-20, V1.0.0, firmware for GD32VW55x
  20:C:/Users/stapi/OneDrive/Desktop/GD32VW553/V1_MQTT_OK/GD32VW55X_Wifi_BLE_SDK/GD32VW55x_RELEASE_V1.0.2/MSDK/wifi_manager\wifi_eloop.c **** */
  21:C:/Users/stapi/OneDrive/Desktop/GD32VW553/V1_MQTT_OK/GD32VW55X_Wifi_BLE_SDK/GD32VW55x_RELEASE_V1.0.2/MSDK/wifi_manager\wifi_eloop.c **** 
  22:C:/Users/stapi/OneDrive/Desktop/GD32VW553/V1_MQTT_OK/GD32VW55X_Wifi_BLE_SDK/GD32VW55x_RELEASE_V1.0.2/MSDK/wifi_manager\wifi_eloop.c **** /*
  23:C:/Users/stapi/OneDrive/Desktop/GD32VW553/V1_MQTT_OK/GD32VW55X_Wifi_BLE_SDK/GD32VW55x_RELEASE_V1.0.2/MSDK/wifi_manager\wifi_eloop.c ****     Copyright (c) 2023, GigaDevice Semiconductor Inc.
  24:C:/Users/stapi/OneDrive/Desktop/GD32VW553/V1_MQTT_OK/GD32VW55X_Wifi_BLE_SDK/GD32VW55x_RELEASE_V1.0.2/MSDK/wifi_manager\wifi_eloop.c **** 
  25:C:/Users/stapi/OneDrive/Desktop/GD32VW553/V1_MQTT_OK/GD32VW55X_Wifi_BLE_SDK/GD32VW55x_RELEASE_V1.0.2/MSDK/wifi_manager\wifi_eloop.c ****     Redistribution and use in source and binary forms, with or without modification,
  26:C:/Users/stapi/OneDrive/Desktop/GD32VW553/V1_MQTT_OK/GD32VW55X_Wifi_BLE_SDK/GD32VW55x_RELEASE_V1.0.2/MSDK/wifi_manager\wifi_eloop.c **** are permitted provided that the following conditions are met:
  27:C:/Users/stapi/OneDrive/Desktop/GD32VW553/V1_MQTT_OK/GD32VW55X_Wifi_BLE_SDK/GD32VW55x_RELEASE_V1.0.2/MSDK/wifi_manager\wifi_eloop.c **** 
  28:C:/Users/stapi/OneDrive/Desktop/GD32VW553/V1_MQTT_OK/GD32VW55X_Wifi_BLE_SDK/GD32VW55x_RELEASE_V1.0.2/MSDK/wifi_manager\wifi_eloop.c ****     1. Redistributions of source code must retain the above copyright notice, this
  29:C:/Users/stapi/OneDrive/Desktop/GD32VW553/V1_MQTT_OK/GD32VW55X_Wifi_BLE_SDK/GD32VW55x_RELEASE_V1.0.2/MSDK/wifi_manager\wifi_eloop.c ****        list of conditions and the following disclaimer.
  30:C:/Users/stapi/OneDrive/Desktop/GD32VW553/V1_MQTT_OK/GD32VW55X_Wifi_BLE_SDK/GD32VW55x_RELEASE_V1.0.2/MSDK/wifi_manager\wifi_eloop.c ****     2. Redistributions in binary form must reproduce the above copyright notice,
  31:C:/Users/stapi/OneDrive/Desktop/GD32VW553/V1_MQTT_OK/GD32VW55X_Wifi_BLE_SDK/GD32VW55x_RELEASE_V1.0.2/MSDK/wifi_manager\wifi_eloop.c ****        this list of conditions and the following disclaimer in the documentation
  32:C:/Users/stapi/OneDrive/Desktop/GD32VW553/V1_MQTT_OK/GD32VW55X_Wifi_BLE_SDK/GD32VW55x_RELEASE_V1.0.2/MSDK/wifi_manager\wifi_eloop.c ****        and/or other materials provided with the distribution.
  33:C:/Users/stapi/OneDrive/Desktop/GD32VW553/V1_MQTT_OK/GD32VW55X_Wifi_BLE_SDK/GD32VW55x_RELEASE_V1.0.2/MSDK/wifi_manager\wifi_eloop.c ****     3. Neither the name of the copyright holder nor the names of its contributors
  34:C:/Users/stapi/OneDrive/Desktop/GD32VW553/V1_MQTT_OK/GD32VW55X_Wifi_BLE_SDK/GD32VW55x_RELEASE_V1.0.2/MSDK/wifi_manager\wifi_eloop.c ****        may be used to endorse or promote products derived from this software without
  35:C:/Users/stapi/OneDrive/Desktop/GD32VW553/V1_MQTT_OK/GD32VW55X_Wifi_BLE_SDK/GD32VW55x_RELEASE_V1.0.2/MSDK/wifi_manager\wifi_eloop.c ****        specific prior written permission.
  36:C:/Users/stapi/OneDrive/Desktop/GD32VW553/V1_MQTT_OK/GD32VW55X_Wifi_BLE_SDK/GD32VW55x_RELEASE_V1.0.2/MSDK/wifi_manager\wifi_eloop.c **** 
  37:C:/Users/stapi/OneDrive/Desktop/GD32VW553/V1_MQTT_OK/GD32VW55X_Wifi_BLE_SDK/GD32VW55x_RELEASE_V1.0.2/MSDK/wifi_manager\wifi_eloop.c ****     THIS SOFTWARE IS PROVIDED BY THE COPYRIGHT HOLDERS AND CONTRIBUTORS "AS IS"
  38:C:/Users/stapi/OneDrive/Desktop/GD32VW553/V1_MQTT_OK/GD32VW55X_Wifi_BLE_SDK/GD32VW55x_RELEASE_V1.0.2/MSDK/wifi_manager\wifi_eloop.c **** AND ANY EXPRESS OR IMPLIED WARRANTIES, INCLUDING, BUT NOT LIMITED TO, THE IMPLIED
  39:C:/Users/stapi/OneDrive/Desktop/GD32VW553/V1_MQTT_OK/GD32VW55X_Wifi_BLE_SDK/GD32VW55x_RELEASE_V1.0.2/MSDK/wifi_manager\wifi_eloop.c **** WARRANTIES OF MERCHANTABILITY AND FITNESS FOR A PARTICULAR PURPOSE ARE DISCLAIMED.
  40:C:/Users/stapi/OneDrive/Desktop/GD32VW553/V1_MQTT_OK/GD32VW55X_Wifi_BLE_SDK/GD32VW55x_RELEASE_V1.0.2/MSDK/wifi_manager\wifi_eloop.c **** IN NO EVENT SHALL THE COPYRIGHT HOLDER OR CONTRIBUTORS BE LIABLE FOR ANY DIRECT,
  41:C:/Users/stapi/OneDrive/Desktop/GD32VW553/V1_MQTT_OK/GD32VW55X_Wifi_BLE_SDK/GD32VW55x_RELEASE_V1.0.2/MSDK/wifi_manager\wifi_eloop.c **** INDIRECT, INCIDENTAL, SPECIAL, EXEMPLARY, OR CONSEQUENTIAL DAMAGES (INCLUDING, BUT
  42:C:/Users/stapi/OneDrive/Desktop/GD32VW553/V1_MQTT_OK/GD32VW55X_Wifi_BLE_SDK/GD32VW55x_RELEASE_V1.0.2/MSDK/wifi_manager\wifi_eloop.c **** NOT LIMITED TO, PROCUREMENT OF SUBSTITUTE GOODS OR SERVICES; LOSS OF USE, DATA, OR
  43:C:/Users/stapi/OneDrive/Desktop/GD32VW553/V1_MQTT_OK/GD32VW55X_Wifi_BLE_SDK/GD32VW55x_RELEASE_V1.0.2/MSDK/wifi_manager\wifi_eloop.c **** PROFITS; OR BUSINESS INTERRUPTION) HOWEVER CAUSED AND ON ANY THEORY OF LIABILITY,
  44:C:/Users/stapi/OneDrive/Desktop/GD32VW553/V1_MQTT_OK/GD32VW55X_Wifi_BLE_SDK/GD32VW55x_RELEASE_V1.0.2/MSDK/wifi_manager\wifi_eloop.c **** WHETHER IN CONTRACT, STRICT LIABILITY, OR TORT (INCLUDING NEGLIGENCE OR OTHERWISE)
  45:C:/Users/stapi/OneDrive/Desktop/GD32VW553/V1_MQTT_OK/GD32VW55X_Wifi_BLE_SDK/GD32VW55x_RELEASE_V1.0.2/MSDK/wifi_manager\wifi_eloop.c **** ARISING IN ANY WAY OUT OF THE USE OF THIS SOFTWARE, EVEN IF ADVISED OF THE POSSIBILITY
  46:C:/Users/stapi/OneDrive/Desktop/GD32VW553/V1_MQTT_OK/GD32VW55X_Wifi_BLE_SDK/GD32VW55x_RELEASE_V1.0.2/MSDK/wifi_manager\wifi_eloop.c **** OF SUCH DAMAGE.
  47:C:/Users/stapi/OneDrive/Desktop/GD32VW553/V1_MQTT_OK/GD32VW55X_Wifi_BLE_SDK/GD32VW55x_RELEASE_V1.0.2/MSDK/wifi_manager\wifi_eloop.c **** */
  48:C:/Users/stapi/OneDrive/Desktop/GD32VW553/V1_MQTT_OK/GD32VW55X_Wifi_BLE_SDK/GD32VW55x_RELEASE_V1.0.2/MSDK/wifi_manager\wifi_eloop.c **** 
  49:C:/Users/stapi/OneDrive/Desktop/GD32VW553/V1_MQTT_OK/GD32VW55X_Wifi_BLE_SDK/GD32VW55x_RELEASE_V1.0.2/MSDK/wifi_manager\wifi_eloop.c **** /*============================ INCLUDES ======================================*/
  50:C:/Users/stapi/OneDrive/Desktop/GD32VW553/V1_MQTT_OK/GD32VW55X_Wifi_BLE_SDK/GD32VW55x_RELEASE_V1.0.2/MSDK/wifi_manager\wifi_eloop.c **** #include "wrapper_os.h"
  51:C:/Users/stapi/OneDrive/Desktop/GD32VW553/V1_MQTT_OK/GD32VW55X_Wifi_BLE_SDK/GD32VW55x_RELEASE_V1.0.2/MSDK/wifi_manager\wifi_eloop.c **** #include "dlist.h"
  52:C:/Users/stapi/OneDrive/Desktop/GD32VW553/V1_MQTT_OK/GD32VW55X_Wifi_BLE_SDK/GD32VW55x_RELEASE_V1.0.2/MSDK/wifi_manager\wifi_eloop.c **** #include "wifi_eloop.h"
  53:C:/Users/stapi/OneDrive/Desktop/GD32VW553/V1_MQTT_OK/GD32VW55X_Wifi_BLE_SDK/GD32VW55x_RELEASE_V1.0.2/MSDK/wifi_manager\wifi_eloop.c **** #include "wifi_management.h"
  54:C:/Users/stapi/OneDrive/Desktop/GD32VW553/V1_MQTT_OK/GD32VW55X_Wifi_BLE_SDK/GD32VW55x_RELEASE_V1.0.2/MSDK/wifi_manager\wifi_eloop.c **** 
  55:C:/Users/stapi/OneDrive/Desktop/GD32VW553/V1_MQTT_OK/GD32VW55X_Wifi_BLE_SDK/GD32VW55x_RELEASE_V1.0.2/MSDK/wifi_manager\wifi_eloop.c **** /*============================ MACROS ========================================*/
  56:C:/Users/stapi/OneDrive/Desktop/GD32VW553/V1_MQTT_OK/GD32VW55X_Wifi_BLE_SDK/GD32VW55x_RELEASE_V1.0.2/MSDK/wifi_manager\wifi_eloop.c **** 
  57:C:/Users/stapi/OneDrive/Desktop/GD32VW553/V1_MQTT_OK/GD32VW55X_Wifi_BLE_SDK/GD32VW55x_RELEASE_V1.0.2/MSDK/wifi_manager\wifi_eloop.c **** /*============================ MACRO FUNCTIONS ===============================*/
  58:C:/Users/stapi/OneDrive/Desktop/GD32VW553/V1_MQTT_OK/GD32VW55X_Wifi_BLE_SDK/GD32VW55x_RELEASE_V1.0.2/MSDK/wifi_manager\wifi_eloop.c **** /*============================ TYPES =========================================*/
  59:C:/Users/stapi/OneDrive/Desktop/GD32VW553/V1_MQTT_OK/GD32VW55X_Wifi_BLE_SDK/GD32VW55x_RELEASE_V1.0.2/MSDK/wifi_manager\wifi_eloop.c **** struct eloop_event {
  60:C:/Users/stapi/OneDrive/Desktop/GD32VW553/V1_MQTT_OK/GD32VW55X_Wifi_BLE_SDK/GD32VW55x_RELEASE_V1.0.2/MSDK/wifi_manager\wifi_eloop.c ****     void *eloop_data;
  61:C:/Users/stapi/OneDrive/Desktop/GD32VW553/V1_MQTT_OK/GD32VW55X_Wifi_BLE_SDK/GD32VW55x_RELEASE_V1.0.2/MSDK/wifi_manager\wifi_eloop.c ****     void *user_data;
  62:C:/Users/stapi/OneDrive/Desktop/GD32VW553/V1_MQTT_OK/GD32VW55X_Wifi_BLE_SDK/GD32VW55x_RELEASE_V1.0.2/MSDK/wifi_manager\wifi_eloop.c ****     eloop_event_handler handler;
  63:C:/Users/stapi/OneDrive/Desktop/GD32VW553/V1_MQTT_OK/GD32VW55X_Wifi_BLE_SDK/GD32VW55x_RELEASE_V1.0.2/MSDK/wifi_manager\wifi_eloop.c ****     eloop_event_id_t event_id;
  64:C:/Users/stapi/OneDrive/Desktop/GD32VW553/V1_MQTT_OK/GD32VW55X_Wifi_BLE_SDK/GD32VW55x_RELEASE_V1.0.2/MSDK/wifi_manager\wifi_eloop.c **** };
  65:C:/Users/stapi/OneDrive/Desktop/GD32VW553/V1_MQTT_OK/GD32VW55X_Wifi_BLE_SDK/GD32VW55x_RELEASE_V1.0.2/MSDK/wifi_manager\wifi_eloop.c **** 
  66:C:/Users/stapi/OneDrive/Desktop/GD32VW553/V1_MQTT_OK/GD32VW55X_Wifi_BLE_SDK/GD32VW55x_RELEASE_V1.0.2/MSDK/wifi_manager\wifi_eloop.c **** struct eloop_timeout {
  67:C:/Users/stapi/OneDrive/Desktop/GD32VW553/V1_MQTT_OK/GD32VW55X_Wifi_BLE_SDK/GD32VW55x_RELEASE_V1.0.2/MSDK/wifi_manager\wifi_eloop.c ****     struct list_head list;
  68:C:/Users/stapi/OneDrive/Desktop/GD32VW553/V1_MQTT_OK/GD32VW55X_Wifi_BLE_SDK/GD32VW55x_RELEASE_V1.0.2/MSDK/wifi_manager\wifi_eloop.c ****     uint32_t time;
  69:C:/Users/stapi/OneDrive/Desktop/GD32VW553/V1_MQTT_OK/GD32VW55X_Wifi_BLE_SDK/GD32VW55x_RELEASE_V1.0.2/MSDK/wifi_manager\wifi_eloop.c ****     void *eloop_data;
  70:C:/Users/stapi/OneDrive/Desktop/GD32VW553/V1_MQTT_OK/GD32VW55X_Wifi_BLE_SDK/GD32VW55x_RELEASE_V1.0.2/MSDK/wifi_manager\wifi_eloop.c ****     void *user_data;
  71:C:/Users/stapi/OneDrive/Desktop/GD32VW553/V1_MQTT_OK/GD32VW55X_Wifi_BLE_SDK/GD32VW55x_RELEASE_V1.0.2/MSDK/wifi_manager\wifi_eloop.c ****     eloop_timeout_handler handler;
  72:C:/Users/stapi/OneDrive/Desktop/GD32VW553/V1_MQTT_OK/GD32VW55X_Wifi_BLE_SDK/GD32VW55x_RELEASE_V1.0.2/MSDK/wifi_manager\wifi_eloop.c **** };
  73:C:/Users/stapi/OneDrive/Desktop/GD32VW553/V1_MQTT_OK/GD32VW55X_Wifi_BLE_SDK/GD32VW55x_RELEASE_V1.0.2/MSDK/wifi_manager\wifi_eloop.c **** 
  74:C:/Users/stapi/OneDrive/Desktop/GD32VW553/V1_MQTT_OK/GD32VW55X_Wifi_BLE_SDK/GD32VW55x_RELEASE_V1.0.2/MSDK/wifi_manager\wifi_eloop.c **** struct eloop_data {
  75:C:/Users/stapi/OneDrive/Desktop/GD32VW553/V1_MQTT_OK/GD32VW55X_Wifi_BLE_SDK/GD32VW55x_RELEASE_V1.0.2/MSDK/wifi_manager\wifi_eloop.c ****     size_t event_count;
  76:C:/Users/stapi/OneDrive/Desktop/GD32VW553/V1_MQTT_OK/GD32VW55X_Wifi_BLE_SDK/GD32VW55x_RELEASE_V1.0.2/MSDK/wifi_manager\wifi_eloop.c ****     struct eloop_event *events;
  77:C:/Users/stapi/OneDrive/Desktop/GD32VW553/V1_MQTT_OK/GD32VW55X_Wifi_BLE_SDK/GD32VW55x_RELEASE_V1.0.2/MSDK/wifi_manager\wifi_eloop.c ****     struct list_head timeout;
  78:C:/Users/stapi/OneDrive/Desktop/GD32VW553/V1_MQTT_OK/GD32VW55X_Wifi_BLE_SDK/GD32VW55x_RELEASE_V1.0.2/MSDK/wifi_manager\wifi_eloop.c ****     int terminate;
  79:C:/Users/stapi/OneDrive/Desktop/GD32VW553/V1_MQTT_OK/GD32VW55X_Wifi_BLE_SDK/GD32VW55x_RELEASE_V1.0.2/MSDK/wifi_manager\wifi_eloop.c **** };
  80:C:/Users/stapi/OneDrive/Desktop/GD32VW553/V1_MQTT_OK/GD32VW55X_Wifi_BLE_SDK/GD32VW55x_RELEASE_V1.0.2/MSDK/wifi_manager\wifi_eloop.c **** 
  81:C:/Users/stapi/OneDrive/Desktop/GD32VW553/V1_MQTT_OK/GD32VW55X_Wifi_BLE_SDK/GD32VW55x_RELEASE_V1.0.2/MSDK/wifi_manager\wifi_eloop.c **** /*============================ GLOBAL VARIABLES ==============================*/
  82:C:/Users/stapi/OneDrive/Desktop/GD32VW553/V1_MQTT_OK/GD32VW55X_Wifi_BLE_SDK/GD32VW55x_RELEASE_V1.0.2/MSDK/wifi_manager\wifi_eloop.c **** /*============================ LOCAL VARIABLES ===============================*/
  83:C:/Users/stapi/OneDrive/Desktop/GD32VW553/V1_MQTT_OK/GD32VW55X_Wifi_BLE_SDK/GD32VW55x_RELEASE_V1.0.2/MSDK/wifi_manager\wifi_eloop.c **** static struct eloop_data eloop;
  84:C:/Users/stapi/OneDrive/Desktop/GD32VW553/V1_MQTT_OK/GD32VW55X_Wifi_BLE_SDK/GD32VW55x_RELEASE_V1.0.2/MSDK/wifi_manager\wifi_eloop.c **** static struct eloop_event eloop_predefined_events[] = {
  85:C:/Users/stapi/OneDrive/Desktop/GD32VW553/V1_MQTT_OK/GD32VW55X_Wifi_BLE_SDK/GD32VW55x_RELEASE_V1.0.2/MSDK/wifi_manager\wifi_eloop.c ****     {NULL, NULL, wifi_mgmt_cb_run_state_machine, ELOOP_EVENT_ALL},
  86:C:/Users/stapi/OneDrive/Desktop/GD32VW553/V1_MQTT_OK/GD32VW55X_Wifi_BLE_SDK/GD32VW55x_RELEASE_V1.0.2/MSDK/wifi_manager\wifi_eloop.c **** };
  87:C:/Users/stapi/OneDrive/Desktop/GD32VW553/V1_MQTT_OK/GD32VW55X_Wifi_BLE_SDK/GD32VW55x_RELEASE_V1.0.2/MSDK/wifi_manager\wifi_eloop.c **** 
  88:C:/Users/stapi/OneDrive/Desktop/GD32VW553/V1_MQTT_OK/GD32VW55X_Wifi_BLE_SDK/GD32VW55x_RELEASE_V1.0.2/MSDK/wifi_manager\wifi_eloop.c **** /*============================ PROTOTYPES ====================================*/
  89:C:/Users/stapi/OneDrive/Desktop/GD32VW553/V1_MQTT_OK/GD32VW55X_Wifi_BLE_SDK/GD32VW55x_RELEASE_V1.0.2/MSDK/wifi_manager\wifi_eloop.c **** /*============================ IMPLEMENTATION ================================*/
  90:C:/Users/stapi/OneDrive/Desktop/GD32VW553/V1_MQTT_OK/GD32VW55X_Wifi_BLE_SDK/GD32VW55x_RELEASE_V1.0.2/MSDK/wifi_manager\wifi_eloop.c **** /*!
  91:C:/Users/stapi/OneDrive/Desktop/GD32VW553/V1_MQTT_OK/GD32VW55X_Wifi_BLE_SDK/GD32VW55x_RELEASE_V1.0.2/MSDK/wifi_manager\wifi_eloop.c ****     \brief      initialize global event loop data(This function must be called before any other elo
  92:C:/Users/stapi/OneDrive/Desktop/GD32VW553/V1_MQTT_OK/GD32VW55X_Wifi_BLE_SDK/GD32VW55x_RELEASE_V1.0.2/MSDK/wifi_manager\wifi_eloop.c ****     \param[in]  none
  93:C:/Users/stapi/OneDrive/Desktop/GD32VW553/V1_MQTT_OK/GD32VW55X_Wifi_BLE_SDK/GD32VW55x_RELEASE_V1.0.2/MSDK/wifi_manager\wifi_eloop.c ****     \param[out] none
  94:C:/Users/stapi/OneDrive/Desktop/GD32VW553/V1_MQTT_OK/GD32VW55X_Wifi_BLE_SDK/GD32VW55x_RELEASE_V1.0.2/MSDK/wifi_manager\wifi_eloop.c ****     \retval     0 on success
  95:C:/Users/stapi/OneDrive/Desktop/GD32VW553/V1_MQTT_OK/GD32VW55X_Wifi_BLE_SDK/GD32VW55x_RELEASE_V1.0.2/MSDK/wifi_manager\wifi_eloop.c **** */
  96:C:/Users/stapi/OneDrive/Desktop/GD32VW553/V1_MQTT_OK/GD32VW55X_Wifi_BLE_SDK/GD32VW55x_RELEASE_V1.0.2/MSDK/wifi_manager\wifi_eloop.c **** int wifi_eloop_init(void)
  97:C:/Users/stapi/OneDrive/Desktop/GD32VW553/V1_MQTT_OK/GD32VW55X_Wifi_BLE_SDK/GD32VW55x_RELEASE_V1.0.2/MSDK/wifi_manager\wifi_eloop.c **** {
  98:C:/Users/stapi/OneDrive/Desktop/GD32VW553/V1_MQTT_OK/GD32VW55X_Wifi_BLE_SDK/GD32VW55x_RELEASE_V1.0.2/MSDK/wifi_manager\wifi_eloop.c ****     sys_memset(&eloop, 0, sizeof(eloop));
  99:C:/Users/stapi/OneDrive/Desktop/GD32VW553/V1_MQTT_OK/GD32VW55X_Wifi_BLE_SDK/GD32VW55x_RELEASE_V1.0.2/MSDK/wifi_manager\wifi_eloop.c **** 
 100:C:/Users/stapi/OneDrive/Desktop/GD32VW553/V1_MQTT_OK/GD32VW55X_Wifi_BLE_SDK/GD32VW55x_RELEASE_V1.0.2/MSDK/wifi_manager\wifi_eloop.c ****     INIT_DLIST_HEAD(&eloop.timeout);
 101:C:/Users/stapi/OneDrive/Desktop/GD32VW553/V1_MQTT_OK/GD32VW55X_Wifi_BLE_SDK/GD32VW55x_RELEASE_V1.0.2/MSDK/wifi_manager\wifi_eloop.c **** 
 102:C:/Users/stapi/OneDrive/Desktop/GD32VW553/V1_MQTT_OK/GD32VW55X_Wifi_BLE_SDK/GD32VW55x_RELEASE_V1.0.2/MSDK/wifi_manager\wifi_eloop.c ****     return 0;
 103:C:/Users/stapi/OneDrive/Desktop/GD32VW553/V1_MQTT_OK/GD32VW55X_Wifi_BLE_SDK/GD32VW55x_RELEASE_V1.0.2/MSDK/wifi_manager\wifi_eloop.c **** }
 104:C:/Users/stapi/OneDrive/Desktop/GD32VW553/V1_MQTT_OK/GD32VW55X_Wifi_BLE_SDK/GD32VW55x_RELEASE_V1.0.2/MSDK/wifi_manager\wifi_eloop.c **** 
 105:C:/Users/stapi/OneDrive/Desktop/GD32VW553/V1_MQTT_OK/GD32VW55X_Wifi_BLE_SDK/GD32VW55x_RELEASE_V1.0.2/MSDK/wifi_manager\wifi_eloop.c **** /*!
 106:C:/Users/stapi/OneDrive/Desktop/GD32VW553/V1_MQTT_OK/GD32VW55X_Wifi_BLE_SDK/GD32VW55x_RELEASE_V1.0.2/MSDK/wifi_manager\wifi_eloop.c ****     \brief      register handler for generic events
 107:C:/Users/stapi/OneDrive/Desktop/GD32VW553/V1_MQTT_OK/GD32VW55X_Wifi_BLE_SDK/GD32VW55x_RELEASE_V1.0.2/MSDK/wifi_manager\wifi_eloop.c ****     \param[in]  event: event to wait (eloop implementation specific)
 108:C:/Users/stapi/OneDrive/Desktop/GD32VW553/V1_MQTT_OK/GD32VW55X_Wifi_BLE_SDK/GD32VW55x_RELEASE_V1.0.2/MSDK/wifi_manager\wifi_eloop.c ****     \param[in]  handler: callback function to be called when event is triggered
 109:C:/Users/stapi/OneDrive/Desktop/GD32VW553/V1_MQTT_OK/GD32VW55X_Wifi_BLE_SDK/GD32VW55x_RELEASE_V1.0.2/MSDK/wifi_manager\wifi_eloop.c ****     \param[in]  eloop_data: callback context data (eloop_data)
 110:C:/Users/stapi/OneDrive/Desktop/GD32VW553/V1_MQTT_OK/GD32VW55X_Wifi_BLE_SDK/GD32VW55x_RELEASE_V1.0.2/MSDK/wifi_manager\wifi_eloop.c ****     \param[in]  user_data: callback context data (user_data)
 111:C:/Users/stapi/OneDrive/Desktop/GD32VW553/V1_MQTT_OK/GD32VW55X_Wifi_BLE_SDK/GD32VW55x_RELEASE_V1.0.2/MSDK/wifi_manager\wifi_eloop.c ****     \param[out] none
 112:C:/Users/stapi/OneDrive/Desktop/GD32VW553/V1_MQTT_OK/GD32VW55X_Wifi_BLE_SDK/GD32VW55x_RELEASE_V1.0.2/MSDK/wifi_manager\wifi_eloop.c ****     \retval     0 on success, -1 on failure
 113:C:/Users/stapi/OneDrive/Desktop/GD32VW553/V1_MQTT_OK/GD32VW55X_Wifi_BLE_SDK/GD32VW55x_RELEASE_V1.0.2/MSDK/wifi_manager\wifi_eloop.c **** */
 114:C:/Users/stapi/OneDrive/Desktop/GD32VW553/V1_MQTT_OK/GD32VW55X_Wifi_BLE_SDK/GD32VW55x_RELEASE_V1.0.2/MSDK/wifi_manager\wifi_eloop.c **** int eloop_event_register(eloop_event_id_t event_id,
 115:C:/Users/stapi/OneDrive/Desktop/GD32VW553/V1_MQTT_OK/GD32VW55X_Wifi_BLE_SDK/GD32VW55x_RELEASE_V1.0.2/MSDK/wifi_manager\wifi_eloop.c ****              eloop_event_handler handler,
 116:C:/Users/stapi/OneDrive/Desktop/GD32VW553/V1_MQTT_OK/GD32VW55X_Wifi_BLE_SDK/GD32VW55x_RELEASE_V1.0.2/MSDK/wifi_manager\wifi_eloop.c ****              void *eloop_data, void *user_data)
 117:C:/Users/stapi/OneDrive/Desktop/GD32VW553/V1_MQTT_OK/GD32VW55X_Wifi_BLE_SDK/GD32VW55x_RELEASE_V1.0.2/MSDK/wifi_manager\wifi_eloop.c **** {
 118:C:/Users/stapi/OneDrive/Desktop/GD32VW553/V1_MQTT_OK/GD32VW55X_Wifi_BLE_SDK/GD32VW55x_RELEASE_V1.0.2/MSDK/wifi_manager\wifi_eloop.c ****     struct eloop_event *tmp;
 119:C:/Users/stapi/OneDrive/Desktop/GD32VW553/V1_MQTT_OK/GD32VW55X_Wifi_BLE_SDK/GD32VW55x_RELEASE_V1.0.2/MSDK/wifi_manager\wifi_eloop.c **** 
 120:C:/Users/stapi/OneDrive/Desktop/GD32VW553/V1_MQTT_OK/GD32VW55X_Wifi_BLE_SDK/GD32VW55x_RELEASE_V1.0.2/MSDK/wifi_manager\wifi_eloop.c ****     if (eloop.terminate)
 121:C:/Users/stapi/OneDrive/Desktop/GD32VW553/V1_MQTT_OK/GD32VW55X_Wifi_BLE_SDK/GD32VW55x_RELEASE_V1.0.2/MSDK/wifi_manager\wifi_eloop.c ****         return -1;
 122:C:/Users/stapi/OneDrive/Desktop/GD32VW553/V1_MQTT_OK/GD32VW55X_Wifi_BLE_SDK/GD32VW55x_RELEASE_V1.0.2/MSDK/wifi_manager\wifi_eloop.c **** 
 123:C:/Users/stapi/OneDrive/Desktop/GD32VW553/V1_MQTT_OK/GD32VW55X_Wifi_BLE_SDK/GD32VW55x_RELEASE_V1.0.2/MSDK/wifi_manager\wifi_eloop.c ****     tmp = sys_realloc(eloop.events,
 124:C:/Users/stapi/OneDrive/Desktop/GD32VW553/V1_MQTT_OK/GD32VW55X_Wifi_BLE_SDK/GD32VW55x_RELEASE_V1.0.2/MSDK/wifi_manager\wifi_eloop.c ****              (eloop.event_count + 1) * sizeof(struct eloop_event));
 125:C:/Users/stapi/OneDrive/Desktop/GD32VW553/V1_MQTT_OK/GD32VW55X_Wifi_BLE_SDK/GD32VW55x_RELEASE_V1.0.2/MSDK/wifi_manager\wifi_eloop.c ****     if (tmp == NULL)
 126:C:/Users/stapi/OneDrive/Desktop/GD32VW553/V1_MQTT_OK/GD32VW55X_Wifi_BLE_SDK/GD32VW55x_RELEASE_V1.0.2/MSDK/wifi_manager\wifi_eloop.c ****         return -1;
 127:C:/Users/stapi/OneDrive/Desktop/GD32VW553/V1_MQTT_OK/GD32VW55X_Wifi_BLE_SDK/GD32VW55x_RELEASE_V1.0.2/MSDK/wifi_manager\wifi_eloop.c **** 
 128:C:/Users/stapi/OneDrive/Desktop/GD32VW553/V1_MQTT_OK/GD32VW55X_Wifi_BLE_SDK/GD32VW55x_RELEASE_V1.0.2/MSDK/wifi_manager\wifi_eloop.c ****     tmp[eloop.event_count].eloop_data = eloop_data;
 129:C:/Users/stapi/OneDrive/Desktop/GD32VW553/V1_MQTT_OK/GD32VW55X_Wifi_BLE_SDK/GD32VW55x_RELEASE_V1.0.2/MSDK/wifi_manager\wifi_eloop.c ****     tmp[eloop.event_count].user_data = user_data;
 130:C:/Users/stapi/OneDrive/Desktop/GD32VW553/V1_MQTT_OK/GD32VW55X_Wifi_BLE_SDK/GD32VW55x_RELEASE_V1.0.2/MSDK/wifi_manager\wifi_eloop.c ****     tmp[eloop.event_count].handler = handler;
 131:C:/Users/stapi/OneDrive/Desktop/GD32VW553/V1_MQTT_OK/GD32VW55X_Wifi_BLE_SDK/GD32VW55x_RELEASE_V1.0.2/MSDK/wifi_manager\wifi_eloop.c ****     tmp[eloop.event_count].event_id = event_id;
 132:C:/Users/stapi/OneDrive/Desktop/GD32VW553/V1_MQTT_OK/GD32VW55X_Wifi_BLE_SDK/GD32VW55x_RELEASE_V1.0.2/MSDK/wifi_manager\wifi_eloop.c ****     eloop.event_count++;
 133:C:/Users/stapi/OneDrive/Desktop/GD32VW553/V1_MQTT_OK/GD32VW55X_Wifi_BLE_SDK/GD32VW55x_RELEASE_V1.0.2/MSDK/wifi_manager\wifi_eloop.c ****     eloop.events = tmp;
 134:C:/Users/stapi/OneDrive/Desktop/GD32VW553/V1_MQTT_OK/GD32VW55X_Wifi_BLE_SDK/GD32VW55x_RELEASE_V1.0.2/MSDK/wifi_manager\wifi_eloop.c **** 
 135:C:/Users/stapi/OneDrive/Desktop/GD32VW553/V1_MQTT_OK/GD32VW55X_Wifi_BLE_SDK/GD32VW55x_RELEASE_V1.0.2/MSDK/wifi_manager\wifi_eloop.c ****     return 0;
 136:C:/Users/stapi/OneDrive/Desktop/GD32VW553/V1_MQTT_OK/GD32VW55X_Wifi_BLE_SDK/GD32VW55x_RELEASE_V1.0.2/MSDK/wifi_manager\wifi_eloop.c **** }
 137:C:/Users/stapi/OneDrive/Desktop/GD32VW553/V1_MQTT_OK/GD32VW55X_Wifi_BLE_SDK/GD32VW55x_RELEASE_V1.0.2/MSDK/wifi_manager\wifi_eloop.c **** 
 138:C:/Users/stapi/OneDrive/Desktop/GD32VW553/V1_MQTT_OK/GD32VW55X_Wifi_BLE_SDK/GD32VW55x_RELEASE_V1.0.2/MSDK/wifi_manager\wifi_eloop.c **** /*!
 139:C:/Users/stapi/OneDrive/Desktop/GD32VW553/V1_MQTT_OK/GD32VW55X_Wifi_BLE_SDK/GD32VW55x_RELEASE_V1.0.2/MSDK/wifi_manager\wifi_eloop.c ****     \brief      unregister handler for a generic event, Unregister a generic event notifier that wa
 140:C:/Users/stapi/OneDrive/Desktop/GD32VW553/V1_MQTT_OK/GD32VW55X_Wifi_BLE_SDK/GD32VW55x_RELEASE_V1.0.2/MSDK/wifi_manager\wifi_eloop.c ****     \param[in]  event: event to cancel (eloop implementation specific)
 141:C:/Users/stapi/OneDrive/Desktop/GD32VW553/V1_MQTT_OK/GD32VW55X_Wifi_BLE_SDK/GD32VW55x_RELEASE_V1.0.2/MSDK/wifi_manager\wifi_eloop.c ****     \param[out] none
 142:C:/Users/stapi/OneDrive/Desktop/GD32VW553/V1_MQTT_OK/GD32VW55X_Wifi_BLE_SDK/GD32VW55x_RELEASE_V1.0.2/MSDK/wifi_manager\wifi_eloop.c ****     \retval     none
 143:C:/Users/stapi/OneDrive/Desktop/GD32VW553/V1_MQTT_OK/GD32VW55X_Wifi_BLE_SDK/GD32VW55x_RELEASE_V1.0.2/MSDK/wifi_manager\wifi_eloop.c **** */
 144:C:/Users/stapi/OneDrive/Desktop/GD32VW553/V1_MQTT_OK/GD32VW55X_Wifi_BLE_SDK/GD32VW55x_RELEASE_V1.0.2/MSDK/wifi_manager\wifi_eloop.c **** void eloop_event_unregister(eloop_event_id_t event_id)
 145:C:/Users/stapi/OneDrive/Desktop/GD32VW553/V1_MQTT_OK/GD32VW55X_Wifi_BLE_SDK/GD32VW55x_RELEASE_V1.0.2/MSDK/wifi_manager\wifi_eloop.c **** {
 146:C:/Users/stapi/OneDrive/Desktop/GD32VW553/V1_MQTT_OK/GD32VW55X_Wifi_BLE_SDK/GD32VW55x_RELEASE_V1.0.2/MSDK/wifi_manager\wifi_eloop.c ****     size_t i;
 147:C:/Users/stapi/OneDrive/Desktop/GD32VW553/V1_MQTT_OK/GD32VW55X_Wifi_BLE_SDK/GD32VW55x_RELEASE_V1.0.2/MSDK/wifi_manager\wifi_eloop.c **** 
 148:C:/Users/stapi/OneDrive/Desktop/GD32VW553/V1_MQTT_OK/GD32VW55X_Wifi_BLE_SDK/GD32VW55x_RELEASE_V1.0.2/MSDK/wifi_manager\wifi_eloop.c ****     if (eloop.terminate)
 149:C:/Users/stapi/OneDrive/Desktop/GD32VW553/V1_MQTT_OK/GD32VW55X_Wifi_BLE_SDK/GD32VW55x_RELEASE_V1.0.2/MSDK/wifi_manager\wifi_eloop.c ****         return;
 150:C:/Users/stapi/OneDrive/Desktop/GD32VW553/V1_MQTT_OK/GD32VW55X_Wifi_BLE_SDK/GD32VW55x_RELEASE_V1.0.2/MSDK/wifi_manager\wifi_eloop.c **** 
 151:C:/Users/stapi/OneDrive/Desktop/GD32VW553/V1_MQTT_OK/GD32VW55X_Wifi_BLE_SDK/GD32VW55x_RELEASE_V1.0.2/MSDK/wifi_manager\wifi_eloop.c ****     if (eloop.events == NULL || eloop.event_count == 0)
 152:C:/Users/stapi/OneDrive/Desktop/GD32VW553/V1_MQTT_OK/GD32VW55X_Wifi_BLE_SDK/GD32VW55x_RELEASE_V1.0.2/MSDK/wifi_manager\wifi_eloop.c ****         return;
 153:C:/Users/stapi/OneDrive/Desktop/GD32VW553/V1_MQTT_OK/GD32VW55X_Wifi_BLE_SDK/GD32VW55x_RELEASE_V1.0.2/MSDK/wifi_manager\wifi_eloop.c **** 
 154:C:/Users/stapi/OneDrive/Desktop/GD32VW553/V1_MQTT_OK/GD32VW55X_Wifi_BLE_SDK/GD32VW55x_RELEASE_V1.0.2/MSDK/wifi_manager\wifi_eloop.c ****     for (i = 0; i < eloop.event_count; i++) {
 155:C:/Users/stapi/OneDrive/Desktop/GD32VW553/V1_MQTT_OK/GD32VW55X_Wifi_BLE_SDK/GD32VW55x_RELEASE_V1.0.2/MSDK/wifi_manager\wifi_eloop.c ****         if (eloop.events[i].event_id == event_id)
 156:C:/Users/stapi/OneDrive/Desktop/GD32VW553/V1_MQTT_OK/GD32VW55X_Wifi_BLE_SDK/GD32VW55x_RELEASE_V1.0.2/MSDK/wifi_manager\wifi_eloop.c ****             break;
 157:C:/Users/stapi/OneDrive/Desktop/GD32VW553/V1_MQTT_OK/GD32VW55X_Wifi_BLE_SDK/GD32VW55x_RELEASE_V1.0.2/MSDK/wifi_manager\wifi_eloop.c ****     }
 158:C:/Users/stapi/OneDrive/Desktop/GD32VW553/V1_MQTT_OK/GD32VW55X_Wifi_BLE_SDK/GD32VW55x_RELEASE_V1.0.2/MSDK/wifi_manager\wifi_eloop.c ****     if (i == eloop.event_count)
 159:C:/Users/stapi/OneDrive/Desktop/GD32VW553/V1_MQTT_OK/GD32VW55X_Wifi_BLE_SDK/GD32VW55x_RELEASE_V1.0.2/MSDK/wifi_manager\wifi_eloop.c ****         return;
 160:C:/Users/stapi/OneDrive/Desktop/GD32VW553/V1_MQTT_OK/GD32VW55X_Wifi_BLE_SDK/GD32VW55x_RELEASE_V1.0.2/MSDK/wifi_manager\wifi_eloop.c **** 
 161:C:/Users/stapi/OneDrive/Desktop/GD32VW553/V1_MQTT_OK/GD32VW55X_Wifi_BLE_SDK/GD32VW55x_RELEASE_V1.0.2/MSDK/wifi_manager\wifi_eloop.c ****     if (i != eloop.event_count - 1) {
 162:C:/Users/stapi/OneDrive/Desktop/GD32VW553/V1_MQTT_OK/GD32VW55X_Wifi_BLE_SDK/GD32VW55x_RELEASE_V1.0.2/MSDK/wifi_manager\wifi_eloop.c ****         sys_memmove(&eloop.events[i], &eloop.events[i + 1],
 163:C:/Users/stapi/OneDrive/Desktop/GD32VW553/V1_MQTT_OK/GD32VW55X_Wifi_BLE_SDK/GD32VW55x_RELEASE_V1.0.2/MSDK/wifi_manager\wifi_eloop.c ****                (eloop.event_count - i - 1) *
 164:C:/Users/stapi/OneDrive/Desktop/GD32VW553/V1_MQTT_OK/GD32VW55X_Wifi_BLE_SDK/GD32VW55x_RELEASE_V1.0.2/MSDK/wifi_manager\wifi_eloop.c ****                sizeof(struct eloop_event));
 165:C:/Users/stapi/OneDrive/Desktop/GD32VW553/V1_MQTT_OK/GD32VW55X_Wifi_BLE_SDK/GD32VW55x_RELEASE_V1.0.2/MSDK/wifi_manager\wifi_eloop.c ****     }
 166:C:/Users/stapi/OneDrive/Desktop/GD32VW553/V1_MQTT_OK/GD32VW55X_Wifi_BLE_SDK/GD32VW55x_RELEASE_V1.0.2/MSDK/wifi_manager\wifi_eloop.c ****     eloop.event_count--;
 167:C:/Users/stapi/OneDrive/Desktop/GD32VW553/V1_MQTT_OK/GD32VW55X_Wifi_BLE_SDK/GD32VW55x_RELEASE_V1.0.2/MSDK/wifi_manager\wifi_eloop.c **** }
 168:C:/Users/stapi/OneDrive/Desktop/GD32VW553/V1_MQTT_OK/GD32VW55X_Wifi_BLE_SDK/GD32VW55x_RELEASE_V1.0.2/MSDK/wifi_manager\wifi_eloop.c **** 
 169:C:/Users/stapi/OneDrive/Desktop/GD32VW553/V1_MQTT_OK/GD32VW55X_Wifi_BLE_SDK/GD32VW55x_RELEASE_V1.0.2/MSDK/wifi_manager\wifi_eloop.c **** /*!
 170:C:/Users/stapi/OneDrive/Desktop/GD32VW553/V1_MQTT_OK/GD32VW55X_Wifi_BLE_SDK/GD32VW55x_RELEASE_V1.0.2/MSDK/wifi_manager\wifi_eloop.c ****     \brief      send an event to the event loop
 171:C:/Users/stapi/OneDrive/Desktop/GD32VW553/V1_MQTT_OK/GD32VW55X_Wifi_BLE_SDK/GD32VW55x_RELEASE_V1.0.2/MSDK/wifi_manager\wifi_eloop.c ****     \param[in]  event: event to signal
 172:C:/Users/stapi/OneDrive/Desktop/GD32VW553/V1_MQTT_OK/GD32VW55X_Wifi_BLE_SDK/GD32VW55x_RELEASE_V1.0.2/MSDK/wifi_manager\wifi_eloop.c ****     \param[out] none
 173:C:/Users/stapi/OneDrive/Desktop/GD32VW553/V1_MQTT_OK/GD32VW55X_Wifi_BLE_SDK/GD32VW55x_RELEASE_V1.0.2/MSDK/wifi_manager\wifi_eloop.c ****     \retval     0 on success, -1 on failure or event queue full
 174:C:/Users/stapi/OneDrive/Desktop/GD32VW553/V1_MQTT_OK/GD32VW55X_Wifi_BLE_SDK/GD32VW55x_RELEASE_V1.0.2/MSDK/wifi_manager\wifi_eloop.c **** */
 175:C:/Users/stapi/OneDrive/Desktop/GD32VW553/V1_MQTT_OK/GD32VW55X_Wifi_BLE_SDK/GD32VW55x_RELEASE_V1.0.2/MSDK/wifi_manager\wifi_eloop.c **** int eloop_event_send(uint8_t vif_idx, uint16_t event)
 176:C:/Users/stapi/OneDrive/Desktop/GD32VW553/V1_MQTT_OK/GD32VW55X_Wifi_BLE_SDK/GD32VW55x_RELEASE_V1.0.2/MSDK/wifi_manager\wifi_eloop.c **** {
 177:C:/Users/stapi/OneDrive/Desktop/GD32VW553/V1_MQTT_OK/GD32VW55X_Wifi_BLE_SDK/GD32VW55x_RELEASE_V1.0.2/MSDK/wifi_manager\wifi_eloop.c ****     eloop_message_t message = {0};
 178:C:/Users/stapi/OneDrive/Desktop/GD32VW553/V1_MQTT_OK/GD32VW55X_Wifi_BLE_SDK/GD32VW55x_RELEASE_V1.0.2/MSDK/wifi_manager\wifi_eloop.c ****     if (eloop.terminate)
 179:C:/Users/stapi/OneDrive/Desktop/GD32VW553/V1_MQTT_OK/GD32VW55X_Wifi_BLE_SDK/GD32VW55x_RELEASE_V1.0.2/MSDK/wifi_manager\wifi_eloop.c ****         return -1;
 180:C:/Users/stapi/OneDrive/Desktop/GD32VW553/V1_MQTT_OK/GD32VW55X_Wifi_BLE_SDK/GD32VW55x_RELEASE_V1.0.2/MSDK/wifi_manager\wifi_eloop.c **** 
 181:C:/Users/stapi/OneDrive/Desktop/GD32VW553/V1_MQTT_OK/GD32VW55X_Wifi_BLE_SDK/GD32VW55x_RELEASE_V1.0.2/MSDK/wifi_manager\wifi_eloop.c ****     message.event_id = ELOOP_EVENT_ID(vif_idx, event);
 182:C:/Users/stapi/OneDrive/Desktop/GD32VW553/V1_MQTT_OK/GD32VW55X_Wifi_BLE_SDK/GD32VW55x_RELEASE_V1.0.2/MSDK/wifi_manager\wifi_eloop.c ****     message.param = NULL;
 183:C:/Users/stapi/OneDrive/Desktop/GD32VW553/V1_MQTT_OK/GD32VW55X_Wifi_BLE_SDK/GD32VW55x_RELEASE_V1.0.2/MSDK/wifi_manager\wifi_eloop.c ****     message.param_len = 0;
 184:C:/Users/stapi/OneDrive/Desktop/GD32VW553/V1_MQTT_OK/GD32VW55X_Wifi_BLE_SDK/GD32VW55x_RELEASE_V1.0.2/MSDK/wifi_manager\wifi_eloop.c ****     return sys_task_post(wifi_mgmt_task_tcb, &message, 0);
 185:C:/Users/stapi/OneDrive/Desktop/GD32VW553/V1_MQTT_OK/GD32VW55X_Wifi_BLE_SDK/GD32VW55x_RELEASE_V1.0.2/MSDK/wifi_manager\wifi_eloop.c **** }
 186:C:/Users/stapi/OneDrive/Desktop/GD32VW553/V1_MQTT_OK/GD32VW55X_Wifi_BLE_SDK/GD32VW55x_RELEASE_V1.0.2/MSDK/wifi_manager\wifi_eloop.c **** 
 187:C:/Users/stapi/OneDrive/Desktop/GD32VW553/V1_MQTT_OK/GD32VW55X_Wifi_BLE_SDK/GD32VW55x_RELEASE_V1.0.2/MSDK/wifi_manager\wifi_eloop.c **** /*!
 188:C:/Users/stapi/OneDrive/Desktop/GD32VW553/V1_MQTT_OK/GD32VW55X_Wifi_BLE_SDK/GD32VW55x_RELEASE_V1.0.2/MSDK/wifi_manager\wifi_eloop.c ****     \brief      send a message to the event loop
 189:C:/Users/stapi/OneDrive/Desktop/GD32VW553/V1_MQTT_OK/GD32VW55X_Wifi_BLE_SDK/GD32VW55x_RELEASE_V1.0.2/MSDK/wifi_manager\wifi_eloop.c ****     \param[in]  message: message to signal
 190:C:/Users/stapi/OneDrive/Desktop/GD32VW553/V1_MQTT_OK/GD32VW55X_Wifi_BLE_SDK/GD32VW55x_RELEASE_V1.0.2/MSDK/wifi_manager\wifi_eloop.c ****     \param[out] none
 191:C:/Users/stapi/OneDrive/Desktop/GD32VW553/V1_MQTT_OK/GD32VW55X_Wifi_BLE_SDK/GD32VW55x_RELEASE_V1.0.2/MSDK/wifi_manager\wifi_eloop.c ****     \retval     0 on success, -1 on failure or event queue full
 192:C:/Users/stapi/OneDrive/Desktop/GD32VW553/V1_MQTT_OK/GD32VW55X_Wifi_BLE_SDK/GD32VW55x_RELEASE_V1.0.2/MSDK/wifi_manager\wifi_eloop.c **** */
 193:C:/Users/stapi/OneDrive/Desktop/GD32VW553/V1_MQTT_OK/GD32VW55X_Wifi_BLE_SDK/GD32VW55x_RELEASE_V1.0.2/MSDK/wifi_manager\wifi_eloop.c **** int eloop_message_send(uint8_t vif_idx, uint16_t event, int reason, uint8_t *param, uint32_t len)
 194:C:/Users/stapi/OneDrive/Desktop/GD32VW553/V1_MQTT_OK/GD32VW55X_Wifi_BLE_SDK/GD32VW55x_RELEASE_V1.0.2/MSDK/wifi_manager\wifi_eloop.c **** {
 195:C:/Users/stapi/OneDrive/Desktop/GD32VW553/V1_MQTT_OK/GD32VW55X_Wifi_BLE_SDK/GD32VW55x_RELEASE_V1.0.2/MSDK/wifi_manager\wifi_eloop.c ****     eloop_message_t message = {0};
 196:C:/Users/stapi/OneDrive/Desktop/GD32VW553/V1_MQTT_OK/GD32VW55X_Wifi_BLE_SDK/GD32VW55x_RELEASE_V1.0.2/MSDK/wifi_manager\wifi_eloop.c ****     if (eloop.terminate)
 197:C:/Users/stapi/OneDrive/Desktop/GD32VW553/V1_MQTT_OK/GD32VW55X_Wifi_BLE_SDK/GD32VW55x_RELEASE_V1.0.2/MSDK/wifi_manager\wifi_eloop.c ****         return -1;
 198:C:/Users/stapi/OneDrive/Desktop/GD32VW553/V1_MQTT_OK/GD32VW55X_Wifi_BLE_SDK/GD32VW55x_RELEASE_V1.0.2/MSDK/wifi_manager\wifi_eloop.c **** 
 199:C:/Users/stapi/OneDrive/Desktop/GD32VW553/V1_MQTT_OK/GD32VW55X_Wifi_BLE_SDK/GD32VW55x_RELEASE_V1.0.2/MSDK/wifi_manager\wifi_eloop.c ****     message.event_id = ELOOP_EVENT_ID(vif_idx, event);
 200:C:/Users/stapi/OneDrive/Desktop/GD32VW553/V1_MQTT_OK/GD32VW55X_Wifi_BLE_SDK/GD32VW55x_RELEASE_V1.0.2/MSDK/wifi_manager\wifi_eloop.c ****     message.reason = reason;
 201:C:/Users/stapi/OneDrive/Desktop/GD32VW553/V1_MQTT_OK/GD32VW55X_Wifi_BLE_SDK/GD32VW55x_RELEASE_V1.0.2/MSDK/wifi_manager\wifi_eloop.c ****     message.param = param;
 202:C:/Users/stapi/OneDrive/Desktop/GD32VW553/V1_MQTT_OK/GD32VW55X_Wifi_BLE_SDK/GD32VW55x_RELEASE_V1.0.2/MSDK/wifi_manager\wifi_eloop.c ****     message.param_len = len;
 203:C:/Users/stapi/OneDrive/Desktop/GD32VW553/V1_MQTT_OK/GD32VW55X_Wifi_BLE_SDK/GD32VW55x_RELEASE_V1.0.2/MSDK/wifi_manager\wifi_eloop.c ****     return sys_task_post(wifi_mgmt_task_tcb, &message, 0);
 204:C:/Users/stapi/OneDrive/Desktop/GD32VW553/V1_MQTT_OK/GD32VW55X_Wifi_BLE_SDK/GD32VW55x_RELEASE_V1.0.2/MSDK/wifi_manager\wifi_eloop.c **** }
 205:C:/Users/stapi/OneDrive/Desktop/GD32VW553/V1_MQTT_OK/GD32VW55X_Wifi_BLE_SDK/GD32VW55x_RELEASE_V1.0.2/MSDK/wifi_manager\wifi_eloop.c **** 
 206:C:/Users/stapi/OneDrive/Desktop/GD32VW553/V1_MQTT_OK/GD32VW55X_Wifi_BLE_SDK/GD32VW55x_RELEASE_V1.0.2/MSDK/wifi_manager\wifi_eloop.c **** /*!
 207:C:/Users/stapi/OneDrive/Desktop/GD32VW553/V1_MQTT_OK/GD32VW55X_Wifi_BLE_SDK/GD32VW55x_RELEASE_V1.0.2/MSDK/wifi_manager\wifi_eloop.c ****     \brief      dispatch event
 208:C:/Users/stapi/OneDrive/Desktop/GD32VW553/V1_MQTT_OK/GD32VW55X_Wifi_BLE_SDK/GD32VW55x_RELEASE_V1.0.2/MSDK/wifi_manager\wifi_eloop.c ****     \param[in]  message: message to signal
 209:C:/Users/stapi/OneDrive/Desktop/GD32VW553/V1_MQTT_OK/GD32VW55X_Wifi_BLE_SDK/GD32VW55x_RELEASE_V1.0.2/MSDK/wifi_manager\wifi_eloop.c ****     \param[out] none
 210:C:/Users/stapi/OneDrive/Desktop/GD32VW553/V1_MQTT_OK/GD32VW55X_Wifi_BLE_SDK/GD32VW55x_RELEASE_V1.0.2/MSDK/wifi_manager\wifi_eloop.c ****     \retval     none
 211:C:/Users/stapi/OneDrive/Desktop/GD32VW553/V1_MQTT_OK/GD32VW55X_Wifi_BLE_SDK/GD32VW55x_RELEASE_V1.0.2/MSDK/wifi_manager\wifi_eloop.c **** */
 212:C:/Users/stapi/OneDrive/Desktop/GD32VW553/V1_MQTT_OK/GD32VW55X_Wifi_BLE_SDK/GD32VW55x_RELEASE_V1.0.2/MSDK/wifi_manager\wifi_eloop.c **** static void eloop_event_dispatch(eloop_message_t message)
 213:C:/Users/stapi/OneDrive/Desktop/GD32VW553/V1_MQTT_OK/GD32VW55X_Wifi_BLE_SDK/GD32VW55x_RELEASE_V1.0.2/MSDK/wifi_manager\wifi_eloop.c **** {
 214:C:/Users/stapi/OneDrive/Desktop/GD32VW553/V1_MQTT_OK/GD32VW55X_Wifi_BLE_SDK/GD32VW55x_RELEASE_V1.0.2/MSDK/wifi_manager\wifi_eloop.c ****     int i, j;
 215:C:/Users/stapi/OneDrive/Desktop/GD32VW553/V1_MQTT_OK/GD32VW55X_Wifi_BLE_SDK/GD32VW55x_RELEASE_V1.0.2/MSDK/wifi_manager\wifi_eloop.c ****     eloop_event_id_t event_id = message.event_id;
 216:C:/Users/stapi/OneDrive/Desktop/GD32VW553/V1_MQTT_OK/GD32VW55X_Wifi_BLE_SDK/GD32VW55x_RELEASE_V1.0.2/MSDK/wifi_manager\wifi_eloop.c ****     uint16_t event = ELOOP_EVENT_GET_EV(event_id);
 217:C:/Users/stapi/OneDrive/Desktop/GD32VW553/V1_MQTT_OK/GD32VW55X_Wifi_BLE_SDK/GD32VW55x_RELEASE_V1.0.2/MSDK/wifi_manager\wifi_eloop.c **** 
 218:C:/Users/stapi/OneDrive/Desktop/GD32VW553/V1_MQTT_OK/GD32VW55X_Wifi_BLE_SDK/GD32VW55x_RELEASE_V1.0.2/MSDK/wifi_manager\wifi_eloop.c ****     if (event == ELOOP_EVENT_WAKEUP)
 219:C:/Users/stapi/OneDrive/Desktop/GD32VW553/V1_MQTT_OK/GD32VW55X_Wifi_BLE_SDK/GD32VW55x_RELEASE_V1.0.2/MSDK/wifi_manager\wifi_eloop.c ****         return;
 220:C:/Users/stapi/OneDrive/Desktop/GD32VW553/V1_MQTT_OK/GD32VW55X_Wifi_BLE_SDK/GD32VW55x_RELEASE_V1.0.2/MSDK/wifi_manager\wifi_eloop.c **** 
 221:C:/Users/stapi/OneDrive/Desktop/GD32VW553/V1_MQTT_OK/GD32VW55X_Wifi_BLE_SDK/GD32VW55x_RELEASE_V1.0.2/MSDK/wifi_manager\wifi_eloop.c ****     if (event == ELOOP_EVENT_TERMINATE) {
 222:C:/Users/stapi/OneDrive/Desktop/GD32VW553/V1_MQTT_OK/GD32VW55X_Wifi_BLE_SDK/GD32VW55x_RELEASE_V1.0.2/MSDK/wifi_manager\wifi_eloop.c ****         eloop.terminate = 1;
 223:C:/Users/stapi/OneDrive/Desktop/GD32VW553/V1_MQTT_OK/GD32VW55X_Wifi_BLE_SDK/GD32VW55x_RELEASE_V1.0.2/MSDK/wifi_manager\wifi_eloop.c ****         return;
 224:C:/Users/stapi/OneDrive/Desktop/GD32VW553/V1_MQTT_OK/GD32VW55X_Wifi_BLE_SDK/GD32VW55x_RELEASE_V1.0.2/MSDK/wifi_manager\wifi_eloop.c ****     }
 225:C:/Users/stapi/OneDrive/Desktop/GD32VW553/V1_MQTT_OK/GD32VW55X_Wifi_BLE_SDK/GD32VW55x_RELEASE_V1.0.2/MSDK/wifi_manager\wifi_eloop.c **** 
 226:C:/Users/stapi/OneDrive/Desktop/GD32VW553/V1_MQTT_OK/GD32VW55X_Wifi_BLE_SDK/GD32VW55x_RELEASE_V1.0.2/MSDK/wifi_manager\wifi_eloop.c ****     for (j = 0; j < ARRAY_SIZE(eloop_predefined_events); j++) {
 227:C:/Users/stapi/OneDrive/Desktop/GD32VW553/V1_MQTT_OK/GD32VW55X_Wifi_BLE_SDK/GD32VW55x_RELEASE_V1.0.2/MSDK/wifi_manager\wifi_eloop.c ****         if (eloop_predefined_events[j].event_id == ELOOP_EVENT_ALL ||
 228:C:/Users/stapi/OneDrive/Desktop/GD32VW553/V1_MQTT_OK/GD32VW55X_Wifi_BLE_SDK/GD32VW55x_RELEASE_V1.0.2/MSDK/wifi_manager\wifi_eloop.c ****                 eloop_predefined_events[j].event_id == event_id) {
 229:C:/Users/stapi/OneDrive/Desktop/GD32VW553/V1_MQTT_OK/GD32VW55X_Wifi_BLE_SDK/GD32VW55x_RELEASE_V1.0.2/MSDK/wifi_manager\wifi_eloop.c ****             eloop_predefined_events[j].handler(
 230:C:/Users/stapi/OneDrive/Desktop/GD32VW553/V1_MQTT_OK/GD32VW55X_Wifi_BLE_SDK/GD32VW55x_RELEASE_V1.0.2/MSDK/wifi_manager\wifi_eloop.c ****                         eloop_predefined_events[j].eloop_data,
 231:C:/Users/stapi/OneDrive/Desktop/GD32VW553/V1_MQTT_OK/GD32VW55X_Wifi_BLE_SDK/GD32VW55x_RELEASE_V1.0.2/MSDK/wifi_manager\wifi_eloop.c ****                         &message);
 232:C:/Users/stapi/OneDrive/Desktop/GD32VW553/V1_MQTT_OK/GD32VW55X_Wifi_BLE_SDK/GD32VW55x_RELEASE_V1.0.2/MSDK/wifi_manager\wifi_eloop.c ****         }
 233:C:/Users/stapi/OneDrive/Desktop/GD32VW553/V1_MQTT_OK/GD32VW55X_Wifi_BLE_SDK/GD32VW55x_RELEASE_V1.0.2/MSDK/wifi_manager\wifi_eloop.c ****     }
 234:C:/Users/stapi/OneDrive/Desktop/GD32VW553/V1_MQTT_OK/GD32VW55X_Wifi_BLE_SDK/GD32VW55x_RELEASE_V1.0.2/MSDK/wifi_manager\wifi_eloop.c **** 
 235:C:/Users/stapi/OneDrive/Desktop/GD32VW553/V1_MQTT_OK/GD32VW55X_Wifi_BLE_SDK/GD32VW55x_RELEASE_V1.0.2/MSDK/wifi_manager\wifi_eloop.c ****     for (i = 0; i < eloop.event_count; i++) {
 236:C:/Users/stapi/OneDrive/Desktop/GD32VW553/V1_MQTT_OK/GD32VW55X_Wifi_BLE_SDK/GD32VW55x_RELEASE_V1.0.2/MSDK/wifi_manager\wifi_eloop.c ****         if (eloop.events[i].event_id == event_id) {
 237:C:/Users/stapi/OneDrive/Desktop/GD32VW553/V1_MQTT_OK/GD32VW55X_Wifi_BLE_SDK/GD32VW55x_RELEASE_V1.0.2/MSDK/wifi_manager\wifi_eloop.c ****             eloop.events[i].handler(
 238:C:/Users/stapi/OneDrive/Desktop/GD32VW553/V1_MQTT_OK/GD32VW55X_Wifi_BLE_SDK/GD32VW55x_RELEASE_V1.0.2/MSDK/wifi_manager\wifi_eloop.c ****                         eloop.events[i].eloop_data,
 239:C:/Users/stapi/OneDrive/Desktop/GD32VW553/V1_MQTT_OK/GD32VW55X_Wifi_BLE_SDK/GD32VW55x_RELEASE_V1.0.2/MSDK/wifi_manager\wifi_eloop.c ****                         eloop.events[i].user_data);
 240:C:/Users/stapi/OneDrive/Desktop/GD32VW553/V1_MQTT_OK/GD32VW55X_Wifi_BLE_SDK/GD32VW55x_RELEASE_V1.0.2/MSDK/wifi_manager\wifi_eloop.c ****         }
 241:C:/Users/stapi/OneDrive/Desktop/GD32VW553/V1_MQTT_OK/GD32VW55X_Wifi_BLE_SDK/GD32VW55x_RELEASE_V1.0.2/MSDK/wifi_manager\wifi_eloop.c ****     }
 242:C:/Users/stapi/OneDrive/Desktop/GD32VW553/V1_MQTT_OK/GD32VW55X_Wifi_BLE_SDK/GD32VW55x_RELEASE_V1.0.2/MSDK/wifi_manager\wifi_eloop.c **** }
 243:C:/Users/stapi/OneDrive/Desktop/GD32VW553/V1_MQTT_OK/GD32VW55X_Wifi_BLE_SDK/GD32VW55x_RELEASE_V1.0.2/MSDK/wifi_manager\wifi_eloop.c **** 
 244:C:/Users/stapi/OneDrive/Desktop/GD32VW553/V1_MQTT_OK/GD32VW55X_Wifi_BLE_SDK/GD32VW55x_RELEASE_V1.0.2/MSDK/wifi_manager\wifi_eloop.c **** /*!
 245:C:/Users/stapi/OneDrive/Desktop/GD32VW553/V1_MQTT_OK/GD32VW55X_Wifi_BLE_SDK/GD32VW55x_RELEASE_V1.0.2/MSDK/wifi_manager\wifi_eloop.c ****     \brief      register timeout
 246:C:/Users/stapi/OneDrive/Desktop/GD32VW553/V1_MQTT_OK/GD32VW55X_Wifi_BLE_SDK/GD32VW55x_RELEASE_V1.0.2/MSDK/wifi_manager\wifi_eloop.c ****     \param[in]  msecs: number of milliseconds to the timeout
 247:C:/Users/stapi/OneDrive/Desktop/GD32VW553/V1_MQTT_OK/GD32VW55X_Wifi_BLE_SDK/GD32VW55x_RELEASE_V1.0.2/MSDK/wifi_manager\wifi_eloop.c ****     \param[in]  handler: callback function to be called when timeout occurs
 248:C:/Users/stapi/OneDrive/Desktop/GD32VW553/V1_MQTT_OK/GD32VW55X_Wifi_BLE_SDK/GD32VW55x_RELEASE_V1.0.2/MSDK/wifi_manager\wifi_eloop.c ****     \param[in]  eloop_data: callback context data (eloop_ctx)
 249:C:/Users/stapi/OneDrive/Desktop/GD32VW553/V1_MQTT_OK/GD32VW55X_Wifi_BLE_SDK/GD32VW55x_RELEASE_V1.0.2/MSDK/wifi_manager\wifi_eloop.c ****     \param[in]  user_data: callback context data (sock_ctx)
 250:C:/Users/stapi/OneDrive/Desktop/GD32VW553/V1_MQTT_OK/GD32VW55X_Wifi_BLE_SDK/GD32VW55x_RELEASE_V1.0.2/MSDK/wifi_manager\wifi_eloop.c ****     \param[out] none
 251:C:/Users/stapi/OneDrive/Desktop/GD32VW553/V1_MQTT_OK/GD32VW55X_Wifi_BLE_SDK/GD32VW55x_RELEASE_V1.0.2/MSDK/wifi_manager\wifi_eloop.c ****     \retval     0 on success, -1 on failure
 252:C:/Users/stapi/OneDrive/Desktop/GD32VW553/V1_MQTT_OK/GD32VW55X_Wifi_BLE_SDK/GD32VW55x_RELEASE_V1.0.2/MSDK/wifi_manager\wifi_eloop.c **** */
 253:C:/Users/stapi/OneDrive/Desktop/GD32VW553/V1_MQTT_OK/GD32VW55X_Wifi_BLE_SDK/GD32VW55x_RELEASE_V1.0.2/MSDK/wifi_manager\wifi_eloop.c **** int eloop_timeout_register(unsigned int msecs,
 254:C:/Users/stapi/OneDrive/Desktop/GD32VW553/V1_MQTT_OK/GD32VW55X_Wifi_BLE_SDK/GD32VW55x_RELEASE_V1.0.2/MSDK/wifi_manager\wifi_eloop.c ****                eloop_timeout_handler handler,
 255:C:/Users/stapi/OneDrive/Desktop/GD32VW553/V1_MQTT_OK/GD32VW55X_Wifi_BLE_SDK/GD32VW55x_RELEASE_V1.0.2/MSDK/wifi_manager\wifi_eloop.c ****                void *eloop_data, void *user_data)
 256:C:/Users/stapi/OneDrive/Desktop/GD32VW553/V1_MQTT_OK/GD32VW55X_Wifi_BLE_SDK/GD32VW55x_RELEASE_V1.0.2/MSDK/wifi_manager\wifi_eloop.c **** {
 257:C:/Users/stapi/OneDrive/Desktop/GD32VW553/V1_MQTT_OK/GD32VW55X_Wifi_BLE_SDK/GD32VW55x_RELEASE_V1.0.2/MSDK/wifi_manager\wifi_eloop.c ****     struct eloop_timeout *timeout, *tmp;
 258:C:/Users/stapi/OneDrive/Desktop/GD32VW553/V1_MQTT_OK/GD32VW55X_Wifi_BLE_SDK/GD32VW55x_RELEASE_V1.0.2/MSDK/wifi_manager\wifi_eloop.c ****     SYS_SR_ALLOC();
 259:C:/Users/stapi/OneDrive/Desktop/GD32VW553/V1_MQTT_OK/GD32VW55X_Wifi_BLE_SDK/GD32VW55x_RELEASE_V1.0.2/MSDK/wifi_manager\wifi_eloop.c **** 
 260:C:/Users/stapi/OneDrive/Desktop/GD32VW553/V1_MQTT_OK/GD32VW55X_Wifi_BLE_SDK/GD32VW55x_RELEASE_V1.0.2/MSDK/wifi_manager\wifi_eloop.c ****     if (eloop.terminate)
 261:C:/Users/stapi/OneDrive/Desktop/GD32VW553/V1_MQTT_OK/GD32VW55X_Wifi_BLE_SDK/GD32VW55x_RELEASE_V1.0.2/MSDK/wifi_manager\wifi_eloop.c ****         return -1;
 262:C:/Users/stapi/OneDrive/Desktop/GD32VW553/V1_MQTT_OK/GD32VW55X_Wifi_BLE_SDK/GD32VW55x_RELEASE_V1.0.2/MSDK/wifi_manager\wifi_eloop.c **** 
 263:C:/Users/stapi/OneDrive/Desktop/GD32VW553/V1_MQTT_OK/GD32VW55X_Wifi_BLE_SDK/GD32VW55x_RELEASE_V1.0.2/MSDK/wifi_manager\wifi_eloop.c ****     timeout = sys_zalloc(sizeof(*timeout));
 264:C:/Users/stapi/OneDrive/Desktop/GD32VW553/V1_MQTT_OK/GD32VW55X_Wifi_BLE_SDK/GD32VW55x_RELEASE_V1.0.2/MSDK/wifi_manager\wifi_eloop.c ****     if (timeout == NULL)
 265:C:/Users/stapi/OneDrive/Desktop/GD32VW553/V1_MQTT_OK/GD32VW55X_Wifi_BLE_SDK/GD32VW55x_RELEASE_V1.0.2/MSDK/wifi_manager\wifi_eloop.c ****         return -1;
 266:C:/Users/stapi/OneDrive/Desktop/GD32VW553/V1_MQTT_OK/GD32VW55X_Wifi_BLE_SDK/GD32VW55x_RELEASE_V1.0.2/MSDK/wifi_manager\wifi_eloop.c **** 
 267:C:/Users/stapi/OneDrive/Desktop/GD32VW553/V1_MQTT_OK/GD32VW55X_Wifi_BLE_SDK/GD32VW55x_RELEASE_V1.0.2/MSDK/wifi_manager\wifi_eloop.c ****     timeout->time = sys_current_time_get();
 268:C:/Users/stapi/OneDrive/Desktop/GD32VW553/V1_MQTT_OK/GD32VW55X_Wifi_BLE_SDK/GD32VW55x_RELEASE_V1.0.2/MSDK/wifi_manager\wifi_eloop.c ****     timeout->time += msecs;
 269:C:/Users/stapi/OneDrive/Desktop/GD32VW553/V1_MQTT_OK/GD32VW55X_Wifi_BLE_SDK/GD32VW55x_RELEASE_V1.0.2/MSDK/wifi_manager\wifi_eloop.c ****     timeout->eloop_data = eloop_data;
 270:C:/Users/stapi/OneDrive/Desktop/GD32VW553/V1_MQTT_OK/GD32VW55X_Wifi_BLE_SDK/GD32VW55x_RELEASE_V1.0.2/MSDK/wifi_manager\wifi_eloop.c ****     timeout->user_data = user_data;
 271:C:/Users/stapi/OneDrive/Desktop/GD32VW553/V1_MQTT_OK/GD32VW55X_Wifi_BLE_SDK/GD32VW55x_RELEASE_V1.0.2/MSDK/wifi_manager\wifi_eloop.c ****     timeout->handler = handler;
 272:C:/Users/stapi/OneDrive/Desktop/GD32VW553/V1_MQTT_OK/GD32VW55X_Wifi_BLE_SDK/GD32VW55x_RELEASE_V1.0.2/MSDK/wifi_manager\wifi_eloop.c **** 
 273:C:/Users/stapi/OneDrive/Desktop/GD32VW553/V1_MQTT_OK/GD32VW55X_Wifi_BLE_SDK/GD32VW55x_RELEASE_V1.0.2/MSDK/wifi_manager\wifi_eloop.c ****     sys_enter_critical();
 274:C:/Users/stapi/OneDrive/Desktop/GD32VW553/V1_MQTT_OK/GD32VW55X_Wifi_BLE_SDK/GD32VW55x_RELEASE_V1.0.2/MSDK/wifi_manager\wifi_eloop.c ****     /* Maintain timeouts in order of increasing time */
 275:C:/Users/stapi/OneDrive/Desktop/GD32VW553/V1_MQTT_OK/GD32VW55X_Wifi_BLE_SDK/GD32VW55x_RELEASE_V1.0.2/MSDK/wifi_manager\wifi_eloop.c ****     list_for_each_entry(tmp, &eloop.timeout, struct eloop_timeout, list) {
 276:C:/Users/stapi/OneDrive/Desktop/GD32VW553/V1_MQTT_OK/GD32VW55X_Wifi_BLE_SDK/GD32VW55x_RELEASE_V1.0.2/MSDK/wifi_manager\wifi_eloop.c ****         if (timeout->time < tmp->time) {
 277:C:/Users/stapi/OneDrive/Desktop/GD32VW553/V1_MQTT_OK/GD32VW55X_Wifi_BLE_SDK/GD32VW55x_RELEASE_V1.0.2/MSDK/wifi_manager\wifi_eloop.c ****             list_add(&timeout->list, tmp->list.prev);
 278:C:/Users/stapi/OneDrive/Desktop/GD32VW553/V1_MQTT_OK/GD32VW55X_Wifi_BLE_SDK/GD32VW55x_RELEASE_V1.0.2/MSDK/wifi_manager\wifi_eloop.c ****             goto exit;
 279:C:/Users/stapi/OneDrive/Desktop/GD32VW553/V1_MQTT_OK/GD32VW55X_Wifi_BLE_SDK/GD32VW55x_RELEASE_V1.0.2/MSDK/wifi_manager\wifi_eloop.c ****         }
 280:C:/Users/stapi/OneDrive/Desktop/GD32VW553/V1_MQTT_OK/GD32VW55X_Wifi_BLE_SDK/GD32VW55x_RELEASE_V1.0.2/MSDK/wifi_manager\wifi_eloop.c ****     }
 281:C:/Users/stapi/OneDrive/Desktop/GD32VW553/V1_MQTT_OK/GD32VW55X_Wifi_BLE_SDK/GD32VW55x_RELEASE_V1.0.2/MSDK/wifi_manager\wifi_eloop.c ****     list_add_tail(&timeout->list, &eloop.timeout);
 282:C:/Users/stapi/OneDrive/Desktop/GD32VW553/V1_MQTT_OK/GD32VW55X_Wifi_BLE_SDK/GD32VW55x_RELEASE_V1.0.2/MSDK/wifi_manager\wifi_eloop.c **** 
 283:C:/Users/stapi/OneDrive/Desktop/GD32VW553/V1_MQTT_OK/GD32VW55X_Wifi_BLE_SDK/GD32VW55x_RELEASE_V1.0.2/MSDK/wifi_manager\wifi_eloop.c **** exit:
 284:C:/Users/stapi/OneDrive/Desktop/GD32VW553/V1_MQTT_OK/GD32VW55X_Wifi_BLE_SDK/GD32VW55x_RELEASE_V1.0.2/MSDK/wifi_manager\wifi_eloop.c ****     sys_exit_critical();
 285:C:/Users/stapi/OneDrive/Desktop/GD32VW553/V1_MQTT_OK/GD32VW55X_Wifi_BLE_SDK/GD32VW55x_RELEASE_V1.0.2/MSDK/wifi_manager\wifi_eloop.c **** 
 286:C:/Users/stapi/OneDrive/Desktop/GD32VW553/V1_MQTT_OK/GD32VW55X_Wifi_BLE_SDK/GD32VW55x_RELEASE_V1.0.2/MSDK/wifi_manager\wifi_eloop.c ****     return 0;
 287:C:/Users/stapi/OneDrive/Desktop/GD32VW553/V1_MQTT_OK/GD32VW55X_Wifi_BLE_SDK/GD32VW55x_RELEASE_V1.0.2/MSDK/wifi_manager\wifi_eloop.c **** }
 288:C:/Users/stapi/OneDrive/Desktop/GD32VW553/V1_MQTT_OK/GD32VW55X_Wifi_BLE_SDK/GD32VW55x_RELEASE_V1.0.2/MSDK/wifi_manager\wifi_eloop.c **** 
 289:C:/Users/stapi/OneDrive/Desktop/GD32VW553/V1_MQTT_OK/GD32VW55X_Wifi_BLE_SDK/GD32VW55x_RELEASE_V1.0.2/MSDK/wifi_manager\wifi_eloop.c **** /*!
 290:C:/Users/stapi/OneDrive/Desktop/GD32VW553/V1_MQTT_OK/GD32VW55X_Wifi_BLE_SDK/GD32VW55x_RELEASE_V1.0.2/MSDK/wifi_manager\wifi_eloop.c ****     \brief      remove eloop timeout
 291:C:/Users/stapi/OneDrive/Desktop/GD32VW553/V1_MQTT_OK/GD32VW55X_Wifi_BLE_SDK/GD32VW55x_RELEASE_V1.0.2/MSDK/wifi_manager\wifi_eloop.c ****     \param[in]  timeout: pointer to the eloop_timeout struction need to remove
 292:C:/Users/stapi/OneDrive/Desktop/GD32VW553/V1_MQTT_OK/GD32VW55X_Wifi_BLE_SDK/GD32VW55x_RELEASE_V1.0.2/MSDK/wifi_manager\wifi_eloop.c ****     \param[out] none
 293:C:/Users/stapi/OneDrive/Desktop/GD32VW553/V1_MQTT_OK/GD32VW55X_Wifi_BLE_SDK/GD32VW55x_RELEASE_V1.0.2/MSDK/wifi_manager\wifi_eloop.c ****     \retval     none
 294:C:/Users/stapi/OneDrive/Desktop/GD32VW553/V1_MQTT_OK/GD32VW55X_Wifi_BLE_SDK/GD32VW55x_RELEASE_V1.0.2/MSDK/wifi_manager\wifi_eloop.c **** */
 295:C:/Users/stapi/OneDrive/Desktop/GD32VW553/V1_MQTT_OK/GD32VW55X_Wifi_BLE_SDK/GD32VW55x_RELEASE_V1.0.2/MSDK/wifi_manager\wifi_eloop.c **** static void eloop_timeout_remove(struct eloop_timeout *timeout)
 296:C:/Users/stapi/OneDrive/Desktop/GD32VW553/V1_MQTT_OK/GD32VW55X_Wifi_BLE_SDK/GD32VW55x_RELEASE_V1.0.2/MSDK/wifi_manager\wifi_eloop.c **** {
  15              		.loc 1 296 1
  16              		.cfi_startproc
  17              	.LVL0:
  18 0000 17030000 		call	t0,__riscv_save_1
  18      E7020300 
  19              		.cfi_offset 8, -8
  20              		.cfi_offset 1, -4
  21              		.cfi_def_cfa_offset 16
 297:C:/Users/stapi/OneDrive/Desktop/GD32VW553/V1_MQTT_OK/GD32VW55X_Wifi_BLE_SDK/GD32VW55x_RELEASE_V1.0.2/MSDK/wifi_manager\wifi_eloop.c ****     list_del(&timeout->list);
  22              		.loc 1 297 5
 296:C:/Users/stapi/OneDrive/Desktop/GD32VW553/V1_MQTT_OK/GD32VW55X_Wifi_BLE_SDK/GD32VW55x_RELEASE_V1.0.2/MSDK/wifi_manager\wifi_eloop.c ****     list_del(&timeout->list);
  23              		.loc 1 296 1 is_stmt 0
  24 0008 2A84     		mv	s0,a0
  25              		.loc 1 297 5
  26 000a 97000000 		call	list_del
  26      E7800000 
  27              	.LVL1:
 298:C:/Users/stapi/OneDrive/Desktop/GD32VW553/V1_MQTT_OK/GD32VW55X_Wifi_BLE_SDK/GD32VW55x_RELEASE_V1.0.2/MSDK/wifi_manager\wifi_eloop.c ****     sys_mfree(timeout);
  28              		.loc 1 298 5 is_stmt 1
  29 0012 2285     		mv	a0,s0
  30 0014 97000000 		call	sys_mfree
  30      E7800000 
  31              	.LVL2:
 299:C:/Users/stapi/OneDrive/Desktop/GD32VW553/V1_MQTT_OK/GD32VW55X_Wifi_BLE_SDK/GD32VW55x_RELEASE_V1.0.2/MSDK/wifi_manager\wifi_eloop.c **** }
  32              		.loc 1 299 1 is_stmt 0
  33 001c 17030000 		tail	__riscv_restore_1
  33      67000300 
  34              		.cfi_restore 8
  35              		.cfi_restore 1
  36              		.cfi_def_cfa_offset 0
  37              		.cfi_endproc
  38              	.LFE22:
  40              		.section	.text.wifi_eloop_init,"ax",@progbits
  41              		.align	1
  42              		.globl	wifi_eloop_init
  44              	wifi_eloop_init:
  45              	.LFB15:
  97:C:/Users/stapi/OneDrive/Desktop/GD32VW553/V1_MQTT_OK/GD32VW55X_Wifi_BLE_SDK/GD32VW55x_RELEASE_V1.0.2/MSDK/wifi_manager\wifi_eloop.c ****     sys_memset(&eloop, 0, sizeof(eloop));
  46              		.loc 1 97 1 is_stmt 1
  47              		.cfi_startproc
  48 0000 17030000 		call	t0,__riscv_save_1
  48      E7020300 
  49              		.cfi_offset 8, -8
  50              		.cfi_offset 1, -4
  51              		.cfi_def_cfa_offset 16
  98:C:/Users/stapi/OneDrive/Desktop/GD32VW553/V1_MQTT_OK/GD32VW55X_Wifi_BLE_SDK/GD32VW55x_RELEASE_V1.0.2/MSDK/wifi_manager\wifi_eloop.c **** 
  52              		.loc 1 98 5
  53 0008 37050000 		lui	a0,%hi(.LANCHOR0)
  54 000c 13040500 		addi	s0,a0,%lo(.LANCHOR0)
  55 0010 5146     		li	a2,20
  56 0012 8145     		li	a1,0
  57 0014 13050500 		addi	a0,a0,%lo(.LANCHOR0)
  58 0018 97000000 		call	sys_memset
  58      E7800000 
  59              	.LVL3:
 100:C:/Users/stapi/OneDrive/Desktop/GD32VW553/V1_MQTT_OK/GD32VW55X_Wifi_BLE_SDK/GD32VW55x_RELEASE_V1.0.2/MSDK/wifi_manager\wifi_eloop.c **** 
  60              		.loc 1 100 5
 100:C:/Users/stapi/OneDrive/Desktop/GD32VW553/V1_MQTT_OK/GD32VW55X_Wifi_BLE_SDK/GD32VW55x_RELEASE_V1.0.2/MSDK/wifi_manager\wifi_eloop.c **** 
  61              		.loc 1 100 5
  62 0020 93078400 		addi	a5,s0,8
  63 0024 1CC4     		sw	a5,8(s0)
 100:C:/Users/stapi/OneDrive/Desktop/GD32VW553/V1_MQTT_OK/GD32VW55X_Wifi_BLE_SDK/GD32VW55x_RELEASE_V1.0.2/MSDK/wifi_manager\wifi_eloop.c **** 
  64              		.loc 1 100 5
  65 0026 5CC4     		sw	a5,12(s0)
 100:C:/Users/stapi/OneDrive/Desktop/GD32VW553/V1_MQTT_OK/GD32VW55X_Wifi_BLE_SDK/GD32VW55x_RELEASE_V1.0.2/MSDK/wifi_manager\wifi_eloop.c **** 
  66              		.loc 1 100 5
 102:C:/Users/stapi/OneDrive/Desktop/GD32VW553/V1_MQTT_OK/GD32VW55X_Wifi_BLE_SDK/GD32VW55x_RELEASE_V1.0.2/MSDK/wifi_manager\wifi_eloop.c **** }
  67              		.loc 1 102 5
 103:C:/Users/stapi/OneDrive/Desktop/GD32VW553/V1_MQTT_OK/GD32VW55X_Wifi_BLE_SDK/GD32VW55x_RELEASE_V1.0.2/MSDK/wifi_manager\wifi_eloop.c **** 
  68              		.loc 1 103 1 is_stmt 0
  69 0028 0145     		li	a0,0
  70 002a 17030000 		tail	__riscv_restore_1
  70      67000300 
  71              		.cfi_restore 8
  72              		.cfi_restore 1
  73              		.cfi_def_cfa_offset 0
  74              		.cfi_endproc
  75              	.LFE15:
  77              		.section	.text.eloop_event_register,"ax",@progbits
  78              		.align	1
  79              		.globl	eloop_event_register
  81              	eloop_event_register:
  82              	.LFB16:
 117:C:/Users/stapi/OneDrive/Desktop/GD32VW553/V1_MQTT_OK/GD32VW55X_Wifi_BLE_SDK/GD32VW55x_RELEASE_V1.0.2/MSDK/wifi_manager\wifi_eloop.c ****     struct eloop_event *tmp;
  83              		.loc 1 117 1 is_stmt 1
  84              		.cfi_startproc
  85              	.LVL4:
  86 0000 17030000 		call	t0,__riscv_save_6
  86      E7020300 
  87              		.cfi_offset 21, -28
  88              		.cfi_offset 20, -24
  89              		.cfi_offset 19, -20
  90              		.cfi_offset 18, -16
  91              		.cfi_offset 9, -12
  92              		.cfi_offset 8, -8
  93              		.cfi_offset 1, -4
  94              		.cfi_def_cfa_offset 32
 118:C:/Users/stapi/OneDrive/Desktop/GD32VW553/V1_MQTT_OK/GD32VW55X_Wifi_BLE_SDK/GD32VW55x_RELEASE_V1.0.2/MSDK/wifi_manager\wifi_eloop.c **** 
  95              		.loc 1 118 5
 120:C:/Users/stapi/OneDrive/Desktop/GD32VW553/V1_MQTT_OK/GD32VW55X_Wifi_BLE_SDK/GD32VW55x_RELEASE_V1.0.2/MSDK/wifi_manager\wifi_eloop.c ****         return -1;
  96              		.loc 1 120 5
 120:C:/Users/stapi/OneDrive/Desktop/GD32VW553/V1_MQTT_OK/GD32VW55X_Wifi_BLE_SDK/GD32VW55x_RELEASE_V1.0.2/MSDK/wifi_manager\wifi_eloop.c ****         return -1;
  97              		.loc 1 120 14 is_stmt 0
  98 0008 37040000 		lui	s0,%hi(.LANCHOR0)
  99 000c 13040400 		addi	s0,s0,%lo(.LANCHOR0)
 100 0010 0448     		lw	s1,16(s0)
 120:C:/Users/stapi/OneDrive/Desktop/GD32VW553/V1_MQTT_OK/GD32VW55X_Wifi_BLE_SDK/GD32VW55x_RELEASE_V1.0.2/MSDK/wifi_manager\wifi_eloop.c ****         return -1;
 101              		.loc 1 120 8
 102 0012 99C4     		beq	s1,zero,.L6
 103              	.LVL5:
 104              	.L8:
 121:C:/Users/stapi/OneDrive/Desktop/GD32VW553/V1_MQTT_OK/GD32VW55X_Wifi_BLE_SDK/GD32VW55x_RELEASE_V1.0.2/MSDK/wifi_manager\wifi_eloop.c **** 
 105              		.loc 1 121 16
 106 0014 FD54     		li	s1,-1
 107              	.L5:
 136:C:/Users/stapi/OneDrive/Desktop/GD32VW553/V1_MQTT_OK/GD32VW55X_Wifi_BLE_SDK/GD32VW55x_RELEASE_V1.0.2/MSDK/wifi_manager\wifi_eloop.c **** 
 108              		.loc 1 136 1
 109 0016 2685     		mv	a0,s1
 110 0018 17030000 		tail	__riscv_restore_6
 110      67000300 
 111              		.cfi_remember_state
 112              		.cfi_restore 21
 113              		.cfi_restore 20
 114              		.cfi_restore 19
 115              		.cfi_restore 18
 116              		.cfi_restore 9
 117              		.cfi_restore 8
 118              		.cfi_restore 1
 119              		.cfi_def_cfa_offset 0
 120              	.LVL6:
 121              	.L6:
 122              		.cfi_restore_state
 123 0020 AE89     		mv	s3,a1
 124:C:/Users/stapi/OneDrive/Desktop/GD32VW553/V1_MQTT_OK/GD32VW55X_Wifi_BLE_SDK/GD32VW55x_RELEASE_V1.0.2/MSDK/wifi_manager\wifi_eloop.c ****     if (tmp == NULL)
 124              		.loc 1 124 33
 125 0022 0C40     		lw	a1,0(s0)
 126              	.LVL7:
 127 0024 2A89     		mv	s2,a0
 123:C:/Users/stapi/OneDrive/Desktop/GD32VW553/V1_MQTT_OK/GD32VW55X_Wifi_BLE_SDK/GD32VW55x_RELEASE_V1.0.2/MSDK/wifi_manager\wifi_eloop.c ****              (eloop.event_count + 1) * sizeof(struct eloop_event));
 128              		.loc 1 123 11
 129 0026 4840     		lw	a0,4(s0)
 130              	.LVL8:
 124:C:/Users/stapi/OneDrive/Desktop/GD32VW553/V1_MQTT_OK/GD32VW55X_Wifi_BLE_SDK/GD32VW55x_RELEASE_V1.0.2/MSDK/wifi_manager\wifi_eloop.c ****     if (tmp == NULL)
 131              		.loc 1 124 33
 132 0028 8505     		addi	a1,a1,1
 123:C:/Users/stapi/OneDrive/Desktop/GD32VW553/V1_MQTT_OK/GD32VW55X_Wifi_BLE_SDK/GD32VW55x_RELEASE_V1.0.2/MSDK/wifi_manager\wifi_eloop.c ****              (eloop.event_count + 1) * sizeof(struct eloop_event));
 133              		.loc 1 123 11
 134 002a 9205     		slli	a1,a1,4
 135 002c B28A     		mv	s5,a2
 136 002e 368A     		mv	s4,a3
 123:C:/Users/stapi/OneDrive/Desktop/GD32VW553/V1_MQTT_OK/GD32VW55X_Wifi_BLE_SDK/GD32VW55x_RELEASE_V1.0.2/MSDK/wifi_manager\wifi_eloop.c ****              (eloop.event_count + 1) * sizeof(struct eloop_event));
 137              		.loc 1 123 5 is_stmt 1
 123:C:/Users/stapi/OneDrive/Desktop/GD32VW553/V1_MQTT_OK/GD32VW55X_Wifi_BLE_SDK/GD32VW55x_RELEASE_V1.0.2/MSDK/wifi_manager\wifi_eloop.c ****              (eloop.event_count + 1) * sizeof(struct eloop_event));
 138              		.loc 1 123 11 is_stmt 0
 139 0030 97000000 		call	sys_realloc
 139      E7800000 
 140              	.LVL9:
 125:C:/Users/stapi/OneDrive/Desktop/GD32VW553/V1_MQTT_OK/GD32VW55X_Wifi_BLE_SDK/GD32VW55x_RELEASE_V1.0.2/MSDK/wifi_manager\wifi_eloop.c ****         return -1;
 141              		.loc 1 125 5 is_stmt 1
 125:C:/Users/stapi/OneDrive/Desktop/GD32VW553/V1_MQTT_OK/GD32VW55X_Wifi_BLE_SDK/GD32VW55x_RELEASE_V1.0.2/MSDK/wifi_manager\wifi_eloop.c ****         return -1;
 142              		.loc 1 125 8 is_stmt 0
 143 0038 71DD     		beq	a0,zero,.L8
 128:C:/Users/stapi/OneDrive/Desktop/GD32VW553/V1_MQTT_OK/GD32VW55X_Wifi_BLE_SDK/GD32VW55x_RELEASE_V1.0.2/MSDK/wifi_manager\wifi_eloop.c ****     tmp[eloop.event_count].user_data = user_data;
 144              		.loc 1 128 5 is_stmt 1
 128:C:/Users/stapi/OneDrive/Desktop/GD32VW553/V1_MQTT_OK/GD32VW55X_Wifi_BLE_SDK/GD32VW55x_RELEASE_V1.0.2/MSDK/wifi_manager\wifi_eloop.c ****     tmp[eloop.event_count].user_data = user_data;
 145              		.loc 1 128 14 is_stmt 0
 146 003a 1840     		lw	a4,0(s0)
 128:C:/Users/stapi/OneDrive/Desktop/GD32VW553/V1_MQTT_OK/GD32VW55X_Wifi_BLE_SDK/GD32VW55x_RELEASE_V1.0.2/MSDK/wifi_manager\wifi_eloop.c ****     tmp[eloop.event_count].user_data = user_data;
 147              		.loc 1 128 8
 148 003c 93174700 		slli	a5,a4,4
 149 0040 AA97     		add	a5,a0,a5
 128:C:/Users/stapi/OneDrive/Desktop/GD32VW553/V1_MQTT_OK/GD32VW55X_Wifi_BLE_SDK/GD32VW55x_RELEASE_V1.0.2/MSDK/wifi_manager\wifi_eloop.c ****     tmp[eloop.event_count].user_data = user_data;
 150              		.loc 1 128 39
 151 0042 23A05701 		sw	s5,0(a5)
 129:C:/Users/stapi/OneDrive/Desktop/GD32VW553/V1_MQTT_OK/GD32VW55X_Wifi_BLE_SDK/GD32VW55x_RELEASE_V1.0.2/MSDK/wifi_manager\wifi_eloop.c ****     tmp[eloop.event_count].handler = handler;
 152              		.loc 1 129 5 is_stmt 1
 129:C:/Users/stapi/OneDrive/Desktop/GD32VW553/V1_MQTT_OK/GD32VW55X_Wifi_BLE_SDK/GD32VW55x_RELEASE_V1.0.2/MSDK/wifi_manager\wifi_eloop.c ****     tmp[eloop.event_count].handler = handler;
 153              		.loc 1 129 38 is_stmt 0
 154 0046 23A24701 		sw	s4,4(a5)
 130:C:/Users/stapi/OneDrive/Desktop/GD32VW553/V1_MQTT_OK/GD32VW55X_Wifi_BLE_SDK/GD32VW55x_RELEASE_V1.0.2/MSDK/wifi_manager\wifi_eloop.c ****     tmp[eloop.event_count].event_id = event_id;
 155              		.loc 1 130 5 is_stmt 1
 132:C:/Users/stapi/OneDrive/Desktop/GD32VW553/V1_MQTT_OK/GD32VW55X_Wifi_BLE_SDK/GD32VW55x_RELEASE_V1.0.2/MSDK/wifi_manager\wifi_eloop.c ****     eloop.events = tmp;
 156              		.loc 1 132 22 is_stmt 0
 157 004a 0507     		addi	a4,a4,1
 130:C:/Users/stapi/OneDrive/Desktop/GD32VW553/V1_MQTT_OK/GD32VW55X_Wifi_BLE_SDK/GD32VW55x_RELEASE_V1.0.2/MSDK/wifi_manager\wifi_eloop.c ****     tmp[eloop.event_count].event_id = event_id;
 158              		.loc 1 130 36
 159 004c 23A43701 		sw	s3,8(a5)
 131:C:/Users/stapi/OneDrive/Desktop/GD32VW553/V1_MQTT_OK/GD32VW55X_Wifi_BLE_SDK/GD32VW55x_RELEASE_V1.0.2/MSDK/wifi_manager\wifi_eloop.c ****     eloop.event_count++;
 160              		.loc 1 131 5 is_stmt 1
 131:C:/Users/stapi/OneDrive/Desktop/GD32VW553/V1_MQTT_OK/GD32VW55X_Wifi_BLE_SDK/GD32VW55x_RELEASE_V1.0.2/MSDK/wifi_manager\wifi_eloop.c ****     eloop.event_count++;
 161              		.loc 1 131 37 is_stmt 0
 162 0050 23962701 		sh	s2,12(a5)
 132:C:/Users/stapi/OneDrive/Desktop/GD32VW553/V1_MQTT_OK/GD32VW55X_Wifi_BLE_SDK/GD32VW55x_RELEASE_V1.0.2/MSDK/wifi_manager\wifi_eloop.c ****     eloop.events = tmp;
 163              		.loc 1 132 5 is_stmt 1
 132:C:/Users/stapi/OneDrive/Desktop/GD32VW553/V1_MQTT_OK/GD32VW55X_Wifi_BLE_SDK/GD32VW55x_RELEASE_V1.0.2/MSDK/wifi_manager\wifi_eloop.c ****     eloop.events = tmp;
 164              		.loc 1 132 22 is_stmt 0
 165 0054 18C0     		sw	a4,0(s0)
 133:C:/Users/stapi/OneDrive/Desktop/GD32VW553/V1_MQTT_OK/GD32VW55X_Wifi_BLE_SDK/GD32VW55x_RELEASE_V1.0.2/MSDK/wifi_manager\wifi_eloop.c **** 
 166              		.loc 1 133 5 is_stmt 1
 133:C:/Users/stapi/OneDrive/Desktop/GD32VW553/V1_MQTT_OK/GD32VW55X_Wifi_BLE_SDK/GD32VW55x_RELEASE_V1.0.2/MSDK/wifi_manager\wifi_eloop.c **** 
 167              		.loc 1 133 18 is_stmt 0
 168 0056 48C0     		sw	a0,4(s0)
 135:C:/Users/stapi/OneDrive/Desktop/GD32VW553/V1_MQTT_OK/GD32VW55X_Wifi_BLE_SDK/GD32VW55x_RELEASE_V1.0.2/MSDK/wifi_manager\wifi_eloop.c **** }
 169              		.loc 1 135 5 is_stmt 1
 135:C:/Users/stapi/OneDrive/Desktop/GD32VW553/V1_MQTT_OK/GD32VW55X_Wifi_BLE_SDK/GD32VW55x_RELEASE_V1.0.2/MSDK/wifi_manager\wifi_eloop.c **** }
 170              		.loc 1 135 12 is_stmt 0
 171 0058 7DBF     		j	.L5
 172              		.cfi_endproc
 173              	.LFE16:
 175              		.section	.text.eloop_event_unregister,"ax",@progbits
 176              		.align	1
 177              		.globl	eloop_event_unregister
 179              	eloop_event_unregister:
 180              	.LFB17:
 145:C:/Users/stapi/OneDrive/Desktop/GD32VW553/V1_MQTT_OK/GD32VW55X_Wifi_BLE_SDK/GD32VW55x_RELEASE_V1.0.2/MSDK/wifi_manager\wifi_eloop.c ****     size_t i;
 181              		.loc 1 145 1 is_stmt 1
 182              		.cfi_startproc
 183              	.LVL10:
 184 0000 17030000 		call	t0,__riscv_save_1
 184      E7020300 
 185              		.cfi_offset 8, -8
 186              		.cfi_offset 1, -4
 187              		.cfi_def_cfa_offset 16
 146:C:/Users/stapi/OneDrive/Desktop/GD32VW553/V1_MQTT_OK/GD32VW55X_Wifi_BLE_SDK/GD32VW55x_RELEASE_V1.0.2/MSDK/wifi_manager\wifi_eloop.c **** 
 188              		.loc 1 146 5
 148:C:/Users/stapi/OneDrive/Desktop/GD32VW553/V1_MQTT_OK/GD32VW55X_Wifi_BLE_SDK/GD32VW55x_RELEASE_V1.0.2/MSDK/wifi_manager\wifi_eloop.c ****         return;
 189              		.loc 1 148 5
 148:C:/Users/stapi/OneDrive/Desktop/GD32VW553/V1_MQTT_OK/GD32VW55X_Wifi_BLE_SDK/GD32VW55x_RELEASE_V1.0.2/MSDK/wifi_manager\wifi_eloop.c ****         return;
 190              		.loc 1 148 14 is_stmt 0
 191 0008 37040000 		lui	s0,%hi(.LANCHOR0)
 192 000c 93070400 		addi	a5,s0,%lo(.LANCHOR0)
 148:C:/Users/stapi/OneDrive/Desktop/GD32VW553/V1_MQTT_OK/GD32VW55X_Wifi_BLE_SDK/GD32VW55x_RELEASE_V1.0.2/MSDK/wifi_manager\wifi_eloop.c ****         return;
 193              		.loc 1 148 8
 194 0010 9C4B     		lw	a5,16(a5)
 195 0012 8DE3     		bne	a5,zero,.L13
 196 0014 13040400 		addi	s0,s0,%lo(.LANCHOR0)
 151:C:/Users/stapi/OneDrive/Desktop/GD32VW553/V1_MQTT_OK/GD32VW55X_Wifi_BLE_SDK/GD32VW55x_RELEASE_V1.0.2/MSDK/wifi_manager\wifi_eloop.c ****         return;
 197              		.loc 1 151 5 is_stmt 1
 151:C:/Users/stapi/OneDrive/Desktop/GD32VW553/V1_MQTT_OK/GD32VW55X_Wifi_BLE_SDK/GD32VW55x_RELEASE_V1.0.2/MSDK/wifi_manager\wifi_eloop.c ****         return;
 198              		.loc 1 151 14 is_stmt 0
 199 0018 5840     		lw	a4,4(s0)
 151:C:/Users/stapi/OneDrive/Desktop/GD32VW553/V1_MQTT_OK/GD32VW55X_Wifi_BLE_SDK/GD32VW55x_RELEASE_V1.0.2/MSDK/wifi_manager\wifi_eloop.c ****         return;
 200              		.loc 1 151 8
 201 001a 09CF     		beq	a4,zero,.L13
 151:C:/Users/stapi/OneDrive/Desktop/GD32VW553/V1_MQTT_OK/GD32VW55X_Wifi_BLE_SDK/GD32VW55x_RELEASE_V1.0.2/MSDK/wifi_manager\wifi_eloop.c ****         return;
 202              		.loc 1 151 38 discriminator 1
 203 001c 1040     		lw	a2,0(s0)
 151:C:/Users/stapi/OneDrive/Desktop/GD32VW553/V1_MQTT_OK/GD32VW55X_Wifi_BLE_SDK/GD32VW55x_RELEASE_V1.0.2/MSDK/wifi_manager\wifi_eloop.c ****         return;
 204              		.loc 1 151 30 discriminator 1
 205 001e 19CA     		beq	a2,zero,.L13
 206 0020 9306C700 		addi	a3,a4,12
 207              	.L16:
 208              	.LVL11:
 155:C:/Users/stapi/OneDrive/Desktop/GD32VW553/V1_MQTT_OK/GD32VW55X_Wifi_BLE_SDK/GD32VW55x_RELEASE_V1.0.2/MSDK/wifi_manager\wifi_eloop.c ****             break;
 209              		.loc 1 155 9 is_stmt 1
 155:C:/Users/stapi/OneDrive/Desktop/GD32VW553/V1_MQTT_OK/GD32VW55X_Wifi_BLE_SDK/GD32VW55x_RELEASE_V1.0.2/MSDK/wifi_manager\wifi_eloop.c ****             break;
 210              		.loc 1 155 12 is_stmt 0
 211 0024 83D50600 		lhu	a1,0(a3)
 212 0028 638AA500 		beq	a1,a0,.L15
 154:C:/Users/stapi/OneDrive/Desktop/GD32VW553/V1_MQTT_OK/GD32VW55X_Wifi_BLE_SDK/GD32VW55x_RELEASE_V1.0.2/MSDK/wifi_manager\wifi_eloop.c ****         if (eloop.events[i].event_id == event_id)
 213              		.loc 1 154 40 is_stmt 1 discriminator 2
 154:C:/Users/stapi/OneDrive/Desktop/GD32VW553/V1_MQTT_OK/GD32VW55X_Wifi_BLE_SDK/GD32VW55x_RELEASE_V1.0.2/MSDK/wifi_manager\wifi_eloop.c ****         if (eloop.events[i].event_id == event_id)
 214              		.loc 1 154 41 is_stmt 0 discriminator 2
 215 002c 8507     		addi	a5,a5,1
 216              	.LVL12:
 154:C:/Users/stapi/OneDrive/Desktop/GD32VW553/V1_MQTT_OK/GD32VW55X_Wifi_BLE_SDK/GD32VW55x_RELEASE_V1.0.2/MSDK/wifi_manager\wifi_eloop.c ****         if (eloop.events[i].event_id == event_id)
 217              		.loc 1 154 17 is_stmt 1 discriminator 2
 154:C:/Users/stapi/OneDrive/Desktop/GD32VW553/V1_MQTT_OK/GD32VW55X_Wifi_BLE_SDK/GD32VW55x_RELEASE_V1.0.2/MSDK/wifi_manager\wifi_eloop.c ****         if (eloop.events[i].event_id == event_id)
 218              		.loc 1 154 5 is_stmt 0 discriminator 2
 219 002e C106     		addi	a3,a3,16
 220 0030 E31AF6FE 		bne	a2,a5,.L16
 221              	.LVL13:
 222              	.L13:
 167:C:/Users/stapi/OneDrive/Desktop/GD32VW553/V1_MQTT_OK/GD32VW55X_Wifi_BLE_SDK/GD32VW55x_RELEASE_V1.0.2/MSDK/wifi_manager\wifi_eloop.c **** 
 223              		.loc 1 167 1
 224 0034 17030000 		tail	__riscv_restore_1
 224      67000300 
 225              		.cfi_remember_state
 226              		.cfi_restore 8
 227              		.cfi_restore 1
 228              		.cfi_def_cfa_offset 0
 229              	.LVL14:
 230              	.L15:
 231              		.cfi_restore_state
 158:C:/Users/stapi/OneDrive/Desktop/GD32VW553/V1_MQTT_OK/GD32VW55X_Wifi_BLE_SDK/GD32VW55x_RELEASE_V1.0.2/MSDK/wifi_manager\wifi_eloop.c ****         return;
 232              		.loc 1 158 5 is_stmt 1
 158:C:/Users/stapi/OneDrive/Desktop/GD32VW553/V1_MQTT_OK/GD32VW55X_Wifi_BLE_SDK/GD32VW55x_RELEASE_V1.0.2/MSDK/wifi_manager\wifi_eloop.c ****         return;
 233              		.loc 1 158 8 is_stmt 0
 234 003c E30CF6FE 		beq	a2,a5,.L13
 161:C:/Users/stapi/OneDrive/Desktop/GD32VW553/V1_MQTT_OK/GD32VW55X_Wifi_BLE_SDK/GD32VW55x_RELEASE_V1.0.2/MSDK/wifi_manager\wifi_eloop.c ****         sys_memmove(&eloop.events[i], &eloop.events[i + 1],
 235              		.loc 1 161 5 is_stmt 1
 161:C:/Users/stapi/OneDrive/Desktop/GD32VW553/V1_MQTT_OK/GD32VW55X_Wifi_BLE_SDK/GD32VW55x_RELEASE_V1.0.2/MSDK/wifi_manager\wifi_eloop.c ****         sys_memmove(&eloop.events[i], &eloop.events[i + 1],
 236              		.loc 1 161 32 is_stmt 0
 237 0040 7D16     		addi	a2,a2,-1
 161:C:/Users/stapi/OneDrive/Desktop/GD32VW553/V1_MQTT_OK/GD32VW55X_Wifi_BLE_SDK/GD32VW55x_RELEASE_V1.0.2/MSDK/wifi_manager\wifi_eloop.c ****         sys_memmove(&eloop.events[i], &eloop.events[i + 1],
 238              		.loc 1 161 8
 239 0042 630EF600 		beq	a2,a5,.L17
 162:C:/Users/stapi/OneDrive/Desktop/GD32VW553/V1_MQTT_OK/GD32VW55X_Wifi_BLE_SDK/GD32VW55x_RELEASE_V1.0.2/MSDK/wifi_manager\wifi_eloop.c ****                (eloop.event_count - i - 1) *
 240              		.loc 1 162 9 is_stmt 1
 162:C:/Users/stapi/OneDrive/Desktop/GD32VW553/V1_MQTT_OK/GD32VW55X_Wifi_BLE_SDK/GD32VW55x_RELEASE_V1.0.2/MSDK/wifi_manager\wifi_eloop.c ****                (eloop.event_count - i - 1) *
 241              		.loc 1 162 34 is_stmt 0
 242 0046 13954700 		slli	a0,a5,4
 243              	.LVL15:
 162:C:/Users/stapi/OneDrive/Desktop/GD32VW553/V1_MQTT_OK/GD32VW55X_Wifi_BLE_SDK/GD32VW55x_RELEASE_V1.0.2/MSDK/wifi_manager\wifi_eloop.c ****                (eloop.event_count - i - 1) *
 244              		.loc 1 162 52
 245 004a 93050501 		addi	a1,a0,16
 163:C:/Users/stapi/OneDrive/Desktop/GD32VW553/V1_MQTT_OK/GD32VW55X_Wifi_BLE_SDK/GD32VW55x_RELEASE_V1.0.2/MSDK/wifi_manager\wifi_eloop.c ****                sizeof(struct eloop_event));
 246              		.loc 1 163 39
 247 004e 1D8E     		sub	a2,a2,a5
 162:C:/Users/stapi/OneDrive/Desktop/GD32VW553/V1_MQTT_OK/GD32VW55X_Wifi_BLE_SDK/GD32VW55x_RELEASE_V1.0.2/MSDK/wifi_manager\wifi_eloop.c ****                (eloop.event_count - i - 1) *
 248              		.loc 1 162 9
 249 0050 1206     		slli	a2,a2,4
 250 0052 BA95     		add	a1,a4,a1
 251 0054 3A95     		add	a0,a4,a0
 252 0056 97000000 		call	sys_memmove
 252      E7800000 
 253              	.LVL16:
 254              	.L17:
 166:C:/Users/stapi/OneDrive/Desktop/GD32VW553/V1_MQTT_OK/GD32VW55X_Wifi_BLE_SDK/GD32VW55x_RELEASE_V1.0.2/MSDK/wifi_manager\wifi_eloop.c **** }
 255              		.loc 1 166 5 is_stmt 1
 166:C:/Users/stapi/OneDrive/Desktop/GD32VW553/V1_MQTT_OK/GD32VW55X_Wifi_BLE_SDK/GD32VW55x_RELEASE_V1.0.2/MSDK/wifi_manager\wifi_eloop.c **** }
 256              		.loc 1 166 22 is_stmt 0
 257 005e 1C40     		lw	a5,0(s0)
 258 0060 FD17     		addi	a5,a5,-1
 259 0062 1CC0     		sw	a5,0(s0)
 260 0064 C1BF     		j	.L13
 261              		.cfi_endproc
 262              	.LFE17:
 264              		.section	.text.eloop_event_send,"ax",@progbits
 265              		.align	1
 266              		.globl	eloop_event_send
 268              	eloop_event_send:
 269              	.LFB18:
 176:C:/Users/stapi/OneDrive/Desktop/GD32VW553/V1_MQTT_OK/GD32VW55X_Wifi_BLE_SDK/GD32VW55x_RELEASE_V1.0.2/MSDK/wifi_manager\wifi_eloop.c ****     eloop_message_t message = {0};
 270              		.loc 1 176 1 is_stmt 1
 271              		.cfi_startproc
 272              	.LVL17:
 273 0000 17030000 		call	t0,__riscv_save_0
 273      E7020300 
 274              		.cfi_offset 1, -4
 275              		.cfi_def_cfa_offset 16
 177:C:/Users/stapi/OneDrive/Desktop/GD32VW553/V1_MQTT_OK/GD32VW55X_Wifi_BLE_SDK/GD32VW55x_RELEASE_V1.0.2/MSDK/wifi_manager\wifi_eloop.c ****     if (eloop.terminate)
 276              		.loc 1 177 5
 178:C:/Users/stapi/OneDrive/Desktop/GD32VW553/V1_MQTT_OK/GD32VW55X_Wifi_BLE_SDK/GD32VW55x_RELEASE_V1.0.2/MSDK/wifi_manager\wifi_eloop.c ****         return -1;
 277              		.loc 1 178 14 is_stmt 0
 278 0008 B7070000 		lui	a5,%hi(.LANCHOR0+16)
 178:C:/Users/stapi/OneDrive/Desktop/GD32VW553/V1_MQTT_OK/GD32VW55X_Wifi_BLE_SDK/GD32VW55x_RELEASE_V1.0.2/MSDK/wifi_manager\wifi_eloop.c ****         return -1;
 279              		.loc 1 178 8
 280 000c 83A70701 		lw	a5,%lo(.LANCHOR0+16)(a5)
 176:C:/Users/stapi/OneDrive/Desktop/GD32VW553/V1_MQTT_OK/GD32VW55X_Wifi_BLE_SDK/GD32VW55x_RELEASE_V1.0.2/MSDK/wifi_manager\wifi_eloop.c ****     eloop_message_t message = {0};
 281              		.loc 1 176 1
 282 0010 4111     		addi	sp,sp,-16
 283              		.cfi_def_cfa_offset 32
 177:C:/Users/stapi/OneDrive/Desktop/GD32VW553/V1_MQTT_OK/GD32VW55X_Wifi_BLE_SDK/GD32VW55x_RELEASE_V1.0.2/MSDK/wifi_manager\wifi_eloop.c ****     if (eloop.terminate)
 284              		.loc 1 177 21
 285 0012 02C2     		sw	zero,4(sp)
 286 0014 02C4     		sw	zero,8(sp)
 287 0016 02C6     		sw	zero,12(sp)
 178:C:/Users/stapi/OneDrive/Desktop/GD32VW553/V1_MQTT_OK/GD32VW55X_Wifi_BLE_SDK/GD32VW55x_RELEASE_V1.0.2/MSDK/wifi_manager\wifi_eloop.c ****         return -1;
 288              		.loc 1 178 5 is_stmt 1
 178:C:/Users/stapi/OneDrive/Desktop/GD32VW553/V1_MQTT_OK/GD32VW55X_Wifi_BLE_SDK/GD32VW55x_RELEASE_V1.0.2/MSDK/wifi_manager\wifi_eloop.c ****         return -1;
 289              		.loc 1 178 8 is_stmt 0
 290 0018 85E7     		bne	a5,zero,.L28
 181:C:/Users/stapi/OneDrive/Desktop/GD32VW553/V1_MQTT_OK/GD32VW55X_Wifi_BLE_SDK/GD32VW55x_RELEASE_V1.0.2/MSDK/wifi_manager\wifi_eloop.c ****     message.param = NULL;
 291              		.loc 1 181 5 is_stmt 1
 181:C:/Users/stapi/OneDrive/Desktop/GD32VW553/V1_MQTT_OK/GD32VW55X_Wifi_BLE_SDK/GD32VW55x_RELEASE_V1.0.2/MSDK/wifi_manager\wifi_eloop.c ****     message.param = NULL;
 292              		.loc 1 181 24 is_stmt 0
 293 001a 3205     		slli	a0,a0,12
 294              	.LVL18:
 184:C:/Users/stapi/OneDrive/Desktop/GD32VW553/V1_MQTT_OK/GD32VW55X_Wifi_BLE_SDK/GD32VW55x_RELEASE_V1.0.2/MSDK/wifi_manager\wifi_eloop.c **** }
 295              		.loc 1 184 12
 296 001c B7070000 		lui	a5,%hi(wifi_mgmt_task_tcb)
 181:C:/Users/stapi/OneDrive/Desktop/GD32VW553/V1_MQTT_OK/GD32VW55X_Wifi_BLE_SDK/GD32VW55x_RELEASE_V1.0.2/MSDK/wifi_manager\wifi_eloop.c ****     message.param = NULL;
 297              		.loc 1 181 24
 298 0020 AA95     		add	a1,a1,a0
 299              	.LVL19:
 184:C:/Users/stapi/OneDrive/Desktop/GD32VW553/V1_MQTT_OK/GD32VW55X_Wifi_BLE_SDK/GD32VW55x_RELEASE_V1.0.2/MSDK/wifi_manager\wifi_eloop.c **** }
 300              		.loc 1 184 12
 301 0022 03A50700 		lw	a0,%lo(wifi_mgmt_task_tcb)(a5)
 181:C:/Users/stapi/OneDrive/Desktop/GD32VW553/V1_MQTT_OK/GD32VW55X_Wifi_BLE_SDK/GD32VW55x_RELEASE_V1.0.2/MSDK/wifi_manager\wifi_eloop.c ****     message.param = NULL;
 302              		.loc 1 181 22
 303 0026 2312B100 		sh	a1,4(sp)
 182:C:/Users/stapi/OneDrive/Desktop/GD32VW553/V1_MQTT_OK/GD32VW55X_Wifi_BLE_SDK/GD32VW55x_RELEASE_V1.0.2/MSDK/wifi_manager\wifi_eloop.c ****     message.param_len = 0;
 304              		.loc 1 182 5 is_stmt 1
 183:C:/Users/stapi/OneDrive/Desktop/GD32VW553/V1_MQTT_OK/GD32VW55X_Wifi_BLE_SDK/GD32VW55x_RELEASE_V1.0.2/MSDK/wifi_manager\wifi_eloop.c ****     return sys_task_post(wifi_mgmt_task_tcb, &message, 0);
 305              		.loc 1 183 5
 184:C:/Users/stapi/OneDrive/Desktop/GD32VW553/V1_MQTT_OK/GD32VW55X_Wifi_BLE_SDK/GD32VW55x_RELEASE_V1.0.2/MSDK/wifi_manager\wifi_eloop.c **** }
 306              		.loc 1 184 5
 184:C:/Users/stapi/OneDrive/Desktop/GD32VW553/V1_MQTT_OK/GD32VW55X_Wifi_BLE_SDK/GD32VW55x_RELEASE_V1.0.2/MSDK/wifi_manager\wifi_eloop.c **** }
 307              		.loc 1 184 12 is_stmt 0
 308 002a 0146     		li	a2,0
 309 002c 4C00     		addi	a1,sp,4
 310 002e 97000000 		call	sys_task_post
 310      E7800000 
 311              	.LVL20:
 312              	.L26:
 185:C:/Users/stapi/OneDrive/Desktop/GD32VW553/V1_MQTT_OK/GD32VW55X_Wifi_BLE_SDK/GD32VW55x_RELEASE_V1.0.2/MSDK/wifi_manager\wifi_eloop.c **** 
 313              		.loc 1 185 1
 314 0036 4101     		addi	sp,sp,16
 315              		.cfi_remember_state
 316              		.cfi_def_cfa_offset 0
 317 0038 17030000 		tail	__riscv_restore_0
 317      67000300 
 318              		.cfi_restore 1
 319              		.cfi_def_cfa_offset -16
 320              	.LVL21:
 321              	.L28:
 322              		.cfi_restore_state
 179:C:/Users/stapi/OneDrive/Desktop/GD32VW553/V1_MQTT_OK/GD32VW55X_Wifi_BLE_SDK/GD32VW55x_RELEASE_V1.0.2/MSDK/wifi_manager\wifi_eloop.c **** 
 323              		.loc 1 179 16
 324 0040 7D55     		li	a0,-1
 325              	.LVL22:
 326 0042 D5BF     		j	.L26
 327              		.cfi_endproc
 328              	.LFE18:
 330              		.section	.text.eloop_message_send,"ax",@progbits
 331              		.align	1
 332              		.globl	eloop_message_send
 334              	eloop_message_send:
 335              	.LFB19:
 194:C:/Users/stapi/OneDrive/Desktop/GD32VW553/V1_MQTT_OK/GD32VW55X_Wifi_BLE_SDK/GD32VW55x_RELEASE_V1.0.2/MSDK/wifi_manager\wifi_eloop.c ****     eloop_message_t message = {0};
 336              		.loc 1 194 1 is_stmt 1
 337              		.cfi_startproc
 338              	.LVL23:
 195:C:/Users/stapi/OneDrive/Desktop/GD32VW553/V1_MQTT_OK/GD32VW55X_Wifi_BLE_SDK/GD32VW55x_RELEASE_V1.0.2/MSDK/wifi_manager\wifi_eloop.c ****     if (eloop.terminate)
 339              		.loc 1 195 5
 196:C:/Users/stapi/OneDrive/Desktop/GD32VW553/V1_MQTT_OK/GD32VW55X_Wifi_BLE_SDK/GD32VW55x_RELEASE_V1.0.2/MSDK/wifi_manager\wifi_eloop.c ****         return -1;
 340              		.loc 1 196 5
 196:C:/Users/stapi/OneDrive/Desktop/GD32VW553/V1_MQTT_OK/GD32VW55X_Wifi_BLE_SDK/GD32VW55x_RELEASE_V1.0.2/MSDK/wifi_manager\wifi_eloop.c ****         return -1;
 341              		.loc 1 196 14 is_stmt 0
 342 0000 B7070000 		lui	a5,%hi(.LANCHOR0+16)
 196:C:/Users/stapi/OneDrive/Desktop/GD32VW553/V1_MQTT_OK/GD32VW55X_Wifi_BLE_SDK/GD32VW55x_RELEASE_V1.0.2/MSDK/wifi_manager\wifi_eloop.c ****         return -1;
 343              		.loc 1 196 8
 344 0004 83A70701 		lw	a5,%lo(.LANCHOR0+16)(a5)
 345 0008 8DEF     		bne	a5,zero,.L32
 194:C:/Users/stapi/OneDrive/Desktop/GD32VW553/V1_MQTT_OK/GD32VW55X_Wifi_BLE_SDK/GD32VW55x_RELEASE_V1.0.2/MSDK/wifi_manager\wifi_eloop.c ****     eloop_message_t message = {0};
 346              		.loc 1 194 1
 347 000a 17030000 		call	t0,__riscv_save_0
 347      E7020300 
 348              		.cfi_offset 1, -4
 349              		.cfi_def_cfa_offset 16
 199:C:/Users/stapi/OneDrive/Desktop/GD32VW553/V1_MQTT_OK/GD32VW55X_Wifi_BLE_SDK/GD32VW55x_RELEASE_V1.0.2/MSDK/wifi_manager\wifi_eloop.c ****     message.reason = reason;
 350              		.loc 1 199 5 is_stmt 1
 203:C:/Users/stapi/OneDrive/Desktop/GD32VW553/V1_MQTT_OK/GD32VW55X_Wifi_BLE_SDK/GD32VW55x_RELEASE_V1.0.2/MSDK/wifi_manager\wifi_eloop.c **** }
 351              		.loc 1 203 12 is_stmt 0
 352 0012 B7070000 		lui	a5,%hi(wifi_mgmt_task_tcb)
 199:C:/Users/stapi/OneDrive/Desktop/GD32VW553/V1_MQTT_OK/GD32VW55X_Wifi_BLE_SDK/GD32VW55x_RELEASE_V1.0.2/MSDK/wifi_manager\wifi_eloop.c ****     message.reason = reason;
 353              		.loc 1 199 24
 354 0016 3205     		slli	a0,a0,12
 355              	.LVL24:
 356 0018 AA95     		add	a1,a1,a0
 357              	.LVL25:
 203:C:/Users/stapi/OneDrive/Desktop/GD32VW553/V1_MQTT_OK/GD32VW55X_Wifi_BLE_SDK/GD32VW55x_RELEASE_V1.0.2/MSDK/wifi_manager\wifi_eloop.c **** }
 358              		.loc 1 203 12
 359 001a 03A50700 		lw	a0,%lo(wifi_mgmt_task_tcb)(a5)
 194:C:/Users/stapi/OneDrive/Desktop/GD32VW553/V1_MQTT_OK/GD32VW55X_Wifi_BLE_SDK/GD32VW55x_RELEASE_V1.0.2/MSDK/wifi_manager\wifi_eloop.c ****     eloop_message_t message = {0};
 360              		.loc 1 194 1
 361 001e 4111     		addi	sp,sp,-16
 362              		.cfi_def_cfa_offset 32
 199:C:/Users/stapi/OneDrive/Desktop/GD32VW553/V1_MQTT_OK/GD32VW55X_Wifi_BLE_SDK/GD32VW55x_RELEASE_V1.0.2/MSDK/wifi_manager\wifi_eloop.c ****     message.reason = reason;
 363              		.loc 1 199 22
 364 0020 2312B100 		sh	a1,4(sp)
 200:C:/Users/stapi/OneDrive/Desktop/GD32VW553/V1_MQTT_OK/GD32VW55X_Wifi_BLE_SDK/GD32VW55x_RELEASE_V1.0.2/MSDK/wifi_manager\wifi_eloop.c ****     message.param = param;
 365              		.loc 1 200 5 is_stmt 1
 200:C:/Users/stapi/OneDrive/Desktop/GD32VW553/V1_MQTT_OK/GD32VW55X_Wifi_BLE_SDK/GD32VW55x_RELEASE_V1.0.2/MSDK/wifi_manager\wifi_eloop.c ****     message.param = param;
 366              		.loc 1 200 20 is_stmt 0
 367 0024 2313C100 		sh	a2,6(sp)
 201:C:/Users/stapi/OneDrive/Desktop/GD32VW553/V1_MQTT_OK/GD32VW55X_Wifi_BLE_SDK/GD32VW55x_RELEASE_V1.0.2/MSDK/wifi_manager\wifi_eloop.c ****     message.param_len = len;
 368              		.loc 1 201 5 is_stmt 1
 203:C:/Users/stapi/OneDrive/Desktop/GD32VW553/V1_MQTT_OK/GD32VW55X_Wifi_BLE_SDK/GD32VW55x_RELEASE_V1.0.2/MSDK/wifi_manager\wifi_eloop.c **** }
 369              		.loc 1 203 12 is_stmt 0
 370 0028 4C00     		addi	a1,sp,4
 371 002a 0146     		li	a2,0
 372              	.LVL26:
 201:C:/Users/stapi/OneDrive/Desktop/GD32VW553/V1_MQTT_OK/GD32VW55X_Wifi_BLE_SDK/GD32VW55x_RELEASE_V1.0.2/MSDK/wifi_manager\wifi_eloop.c ****     message.param_len = len;
 373              		.loc 1 201 19
 374 002c 36C4     		sw	a3,8(sp)
 202:C:/Users/stapi/OneDrive/Desktop/GD32VW553/V1_MQTT_OK/GD32VW55X_Wifi_BLE_SDK/GD32VW55x_RELEASE_V1.0.2/MSDK/wifi_manager\wifi_eloop.c ****     return sys_task_post(wifi_mgmt_task_tcb, &message, 0);
 375              		.loc 1 202 5 is_stmt 1
 202:C:/Users/stapi/OneDrive/Desktop/GD32VW553/V1_MQTT_OK/GD32VW55X_Wifi_BLE_SDK/GD32VW55x_RELEASE_V1.0.2/MSDK/wifi_manager\wifi_eloop.c ****     return sys_task_post(wifi_mgmt_task_tcb, &message, 0);
 376              		.loc 1 202 23 is_stmt 0
 377 002e 3AC6     		sw	a4,12(sp)
 203:C:/Users/stapi/OneDrive/Desktop/GD32VW553/V1_MQTT_OK/GD32VW55X_Wifi_BLE_SDK/GD32VW55x_RELEASE_V1.0.2/MSDK/wifi_manager\wifi_eloop.c **** }
 378              		.loc 1 203 5 is_stmt 1
 203:C:/Users/stapi/OneDrive/Desktop/GD32VW553/V1_MQTT_OK/GD32VW55X_Wifi_BLE_SDK/GD32VW55x_RELEASE_V1.0.2/MSDK/wifi_manager\wifi_eloop.c **** }
 379              		.loc 1 203 12 is_stmt 0
 380 0030 97000000 		call	sys_task_post
 380      E7800000 
 381              	.LVL27:
 204:C:/Users/stapi/OneDrive/Desktop/GD32VW553/V1_MQTT_OK/GD32VW55X_Wifi_BLE_SDK/GD32VW55x_RELEASE_V1.0.2/MSDK/wifi_manager\wifi_eloop.c **** 
 382              		.loc 1 204 1
 383 0038 4101     		addi	sp,sp,16
 384              		.cfi_def_cfa_offset 0
 385 003a 17030000 		tail	__riscv_restore_0
 385      67000300 
 386              		.cfi_restore 1
 387              		.cfi_def_cfa_offset -16
 388              	.LVL28:
 389              	.L32:
 390              		.cfi_def_cfa_offset 0
 197:C:/Users/stapi/OneDrive/Desktop/GD32VW553/V1_MQTT_OK/GD32VW55X_Wifi_BLE_SDK/GD32VW55x_RELEASE_V1.0.2/MSDK/wifi_manager\wifi_eloop.c **** 
 391              		.loc 1 197 16
 392 0042 7D55     		li	a0,-1
 393              	.LVL29:
 204:C:/Users/stapi/OneDrive/Desktop/GD32VW553/V1_MQTT_OK/GD32VW55X_Wifi_BLE_SDK/GD32VW55x_RELEASE_V1.0.2/MSDK/wifi_manager\wifi_eloop.c **** 
 394              		.loc 1 204 1
 395 0044 8280     		ret
 396              		.cfi_endproc
 397              	.LFE19:
 399              		.section	.text.eloop_timeout_register,"ax",@progbits
 400              		.align	1
 401              		.globl	eloop_timeout_register
 403              	eloop_timeout_register:
 404              	.LFB21:
 256:C:/Users/stapi/OneDrive/Desktop/GD32VW553/V1_MQTT_OK/GD32VW55X_Wifi_BLE_SDK/GD32VW55x_RELEASE_V1.0.2/MSDK/wifi_manager\wifi_eloop.c ****     struct eloop_timeout *timeout, *tmp;
 405              		.loc 1 256 1 is_stmt 1
 406              		.cfi_startproc
 407              	.LVL30:
 408 0000 17030000 		call	t0,__riscv_save_7
 408      E7020300 
 409              		.cfi_offset 22, -32
 410              		.cfi_offset 21, -28
 411              		.cfi_offset 20, -24
 412              		.cfi_offset 19, -20
 413              		.cfi_offset 18, -16
 414              		.cfi_offset 9, -12
 415              		.cfi_offset 8, -8
 416              		.cfi_offset 1, -4
 417              		.cfi_def_cfa_offset 32
 257:C:/Users/stapi/OneDrive/Desktop/GD32VW553/V1_MQTT_OK/GD32VW55X_Wifi_BLE_SDK/GD32VW55x_RELEASE_V1.0.2/MSDK/wifi_manager\wifi_eloop.c ****     SYS_SR_ALLOC();
 418              		.loc 1 257 5
 258:C:/Users/stapi/OneDrive/Desktop/GD32VW553/V1_MQTT_OK/GD32VW55X_Wifi_BLE_SDK/GD32VW55x_RELEASE_V1.0.2/MSDK/wifi_manager\wifi_eloop.c **** 
 419              		.loc 1 258 19
 260:C:/Users/stapi/OneDrive/Desktop/GD32VW553/V1_MQTT_OK/GD32VW55X_Wifi_BLE_SDK/GD32VW55x_RELEASE_V1.0.2/MSDK/wifi_manager\wifi_eloop.c ****         return -1;
 420              		.loc 1 260 5
 260:C:/Users/stapi/OneDrive/Desktop/GD32VW553/V1_MQTT_OK/GD32VW55X_Wifi_BLE_SDK/GD32VW55x_RELEASE_V1.0.2/MSDK/wifi_manager\wifi_eloop.c ****         return -1;
 421              		.loc 1 260 14 is_stmt 0
 422 0008 B7040000 		lui	s1,%hi(.LANCHOR0)
 423 000c 93840400 		addi	s1,s1,%lo(.LANCHOR0)
 424 0010 03A90401 		lw	s2,16(s1)
 260:C:/Users/stapi/OneDrive/Desktop/GD32VW553/V1_MQTT_OK/GD32VW55X_Wifi_BLE_SDK/GD32VW55x_RELEASE_V1.0.2/MSDK/wifi_manager\wifi_eloop.c ****         return -1;
 425              		.loc 1 260 8
 426 0014 63080900 		beq	s2,zero,.L38
 427              	.LVL31:
 428              	.L40:
 261:C:/Users/stapi/OneDrive/Desktop/GD32VW553/V1_MQTT_OK/GD32VW55X_Wifi_BLE_SDK/GD32VW55x_RELEASE_V1.0.2/MSDK/wifi_manager\wifi_eloop.c **** 
 429              		.loc 1 261 16
 430 0018 7D59     		li	s2,-1
 431              	.L37:
 287:C:/Users/stapi/OneDrive/Desktop/GD32VW553/V1_MQTT_OK/GD32VW55X_Wifi_BLE_SDK/GD32VW55x_RELEASE_V1.0.2/MSDK/wifi_manager\wifi_eloop.c **** 
 432              		.loc 1 287 1
 433 001a 4A85     		mv	a0,s2
 434 001c 17030000 		tail	__riscv_restore_7
 434      67000300 
 435              		.cfi_remember_state
 436              		.cfi_restore 22
 437              		.cfi_restore 21
 438              		.cfi_restore 20
 439              		.cfi_restore 19
 440              		.cfi_restore 18
 441              		.cfi_restore 9
 442              		.cfi_restore 8
 443              		.cfi_restore 1
 444              		.cfi_def_cfa_offset 0
 445              	.LVL32:
 446              	.L38:
 447              		.cfi_restore_state
 448 0024 2A8B     		mv	s6,a0
 449 0026 AE89     		mv	s3,a1
 263:C:/Users/stapi/OneDrive/Desktop/GD32VW553/V1_MQTT_OK/GD32VW55X_Wifi_BLE_SDK/GD32VW55x_RELEASE_V1.0.2/MSDK/wifi_manager\wifi_eloop.c ****     if (timeout == NULL)
 450              		.loc 1 263 15
 451 0028 6145     		li	a0,24
 452              	.LVL33:
 453 002a 8545     		li	a1,1
 454              	.LVL34:
 455 002c B28A     		mv	s5,a2
 456 002e 368A     		mv	s4,a3
 263:C:/Users/stapi/OneDrive/Desktop/GD32VW553/V1_MQTT_OK/GD32VW55X_Wifi_BLE_SDK/GD32VW55x_RELEASE_V1.0.2/MSDK/wifi_manager\wifi_eloop.c ****     if (timeout == NULL)
 457              		.loc 1 263 5 is_stmt 1
 263:C:/Users/stapi/OneDrive/Desktop/GD32VW553/V1_MQTT_OK/GD32VW55X_Wifi_BLE_SDK/GD32VW55x_RELEASE_V1.0.2/MSDK/wifi_manager\wifi_eloop.c ****     if (timeout == NULL)
 458              		.loc 1 263 15 is_stmt 0
 459 0030 97000000 		call	sys_calloc
 459      E7800000 
 460              	.LVL35:
 461 0038 2A84     		mv	s0,a0
 462              	.LVL36:
 264:C:/Users/stapi/OneDrive/Desktop/GD32VW553/V1_MQTT_OK/GD32VW55X_Wifi_BLE_SDK/GD32VW55x_RELEASE_V1.0.2/MSDK/wifi_manager\wifi_eloop.c ****         return -1;
 463              		.loc 1 264 5 is_stmt 1
 264:C:/Users/stapi/OneDrive/Desktop/GD32VW553/V1_MQTT_OK/GD32VW55X_Wifi_BLE_SDK/GD32VW55x_RELEASE_V1.0.2/MSDK/wifi_manager\wifi_eloop.c ****         return -1;
 464              		.loc 1 264 8 is_stmt 0
 465 003a 79DD     		beq	a0,zero,.L40
 267:C:/Users/stapi/OneDrive/Desktop/GD32VW553/V1_MQTT_OK/GD32VW55X_Wifi_BLE_SDK/GD32VW55x_RELEASE_V1.0.2/MSDK/wifi_manager\wifi_eloop.c ****     timeout->time += msecs;
 466              		.loc 1 267 5 is_stmt 1
 267:C:/Users/stapi/OneDrive/Desktop/GD32VW553/V1_MQTT_OK/GD32VW55X_Wifi_BLE_SDK/GD32VW55x_RELEASE_V1.0.2/MSDK/wifi_manager\wifi_eloop.c ****     timeout->time += msecs;
 467              		.loc 1 267 21 is_stmt 0
 468 003c 97000000 		call	sys_current_time_get
 468      E7800000 
 469              	.LVL37:
 268:C:/Users/stapi/OneDrive/Desktop/GD32VW553/V1_MQTT_OK/GD32VW55X_Wifi_BLE_SDK/GD32VW55x_RELEASE_V1.0.2/MSDK/wifi_manager\wifi_eloop.c ****     timeout->eloop_data = eloop_data;
 470              		.loc 1 268 5 is_stmt 1
 268:C:/Users/stapi/OneDrive/Desktop/GD32VW553/V1_MQTT_OK/GD32VW55X_Wifi_BLE_SDK/GD32VW55x_RELEASE_V1.0.2/MSDK/wifi_manager\wifi_eloop.c ****     timeout->eloop_data = eloop_data;
 471              		.loc 1 268 19 is_stmt 0
 472 0044 5A95     		add	a0,a0,s6
 473 0046 08C4     		sw	a0,8(s0)
 269:C:/Users/stapi/OneDrive/Desktop/GD32VW553/V1_MQTT_OK/GD32VW55X_Wifi_BLE_SDK/GD32VW55x_RELEASE_V1.0.2/MSDK/wifi_manager\wifi_eloop.c ****     timeout->user_data = user_data;
 474              		.loc 1 269 5 is_stmt 1
 269:C:/Users/stapi/OneDrive/Desktop/GD32VW553/V1_MQTT_OK/GD32VW55X_Wifi_BLE_SDK/GD32VW55x_RELEASE_V1.0.2/MSDK/wifi_manager\wifi_eloop.c ****     timeout->user_data = user_data;
 475              		.loc 1 269 25 is_stmt 0
 476 0048 23265401 		sw	s5,12(s0)
 270:C:/Users/stapi/OneDrive/Desktop/GD32VW553/V1_MQTT_OK/GD32VW55X_Wifi_BLE_SDK/GD32VW55x_RELEASE_V1.0.2/MSDK/wifi_manager\wifi_eloop.c ****     timeout->handler = handler;
 477              		.loc 1 270 5 is_stmt 1
 270:C:/Users/stapi/OneDrive/Desktop/GD32VW553/V1_MQTT_OK/GD32VW55X_Wifi_BLE_SDK/GD32VW55x_RELEASE_V1.0.2/MSDK/wifi_manager\wifi_eloop.c ****     timeout->handler = handler;
 478              		.loc 1 270 24 is_stmt 0
 479 004c 23284401 		sw	s4,16(s0)
 271:C:/Users/stapi/OneDrive/Desktop/GD32VW553/V1_MQTT_OK/GD32VW55X_Wifi_BLE_SDK/GD32VW55x_RELEASE_V1.0.2/MSDK/wifi_manager\wifi_eloop.c **** 
 480              		.loc 1 271 5 is_stmt 1
 271:C:/Users/stapi/OneDrive/Desktop/GD32VW553/V1_MQTT_OK/GD32VW55X_Wifi_BLE_SDK/GD32VW55x_RELEASE_V1.0.2/MSDK/wifi_manager\wifi_eloop.c **** 
 481              		.loc 1 271 22 is_stmt 0
 482 0050 232A3401 		sw	s3,20(s0)
 273:C:/Users/stapi/OneDrive/Desktop/GD32VW553/V1_MQTT_OK/GD32VW55X_Wifi_BLE_SDK/GD32VW55x_RELEASE_V1.0.2/MSDK/wifi_manager\wifi_eloop.c ****     /* Maintain timeouts in order of increasing time */
 483              		.loc 1 273 5 is_stmt 1
 484 0054 97000000 		call	sys_enter_critical
 484      E7800000 
 485              	.LVL38:
 275:C:/Users/stapi/OneDrive/Desktop/GD32VW553/V1_MQTT_OK/GD32VW55X_Wifi_BLE_SDK/GD32VW55x_RELEASE_V1.0.2/MSDK/wifi_manager\wifi_eloop.c ****         if (timeout->time < tmp->time) {
 486              		.loc 1 275 5
 487 005c 8C44     		lw	a1,8(s1)
 488              	.LVL39:
 489 005e A104     		addi	s1,s1,8
 490              	.L41:
 275:C:/Users/stapi/OneDrive/Desktop/GD32VW553/V1_MQTT_OK/GD32VW55X_Wifi_BLE_SDK/GD32VW55x_RELEASE_V1.0.2/MSDK/wifi_manager\wifi_eloop.c ****         if (timeout->time < tmp->time) {
 491              		.loc 1 275 5 discriminator 1
 492 0060 63989500 		bne	a1,s1,.L44
 281:C:/Users/stapi/OneDrive/Desktop/GD32VW553/V1_MQTT_OK/GD32VW55X_Wifi_BLE_SDK/GD32VW55x_RELEASE_V1.0.2/MSDK/wifi_manager\wifi_eloop.c **** 
 493              		.loc 1 281 5
 494 0064 2285     		mv	a0,s0
 495 0066 97000000 		call	list_add_tail
 495      E7800000 
 496              	.LVL40:
 497 006e 19A8     		j	.L43
 498              	.LVL41:
 499              	.L44:
 276:C:/Users/stapi/OneDrive/Desktop/GD32VW553/V1_MQTT_OK/GD32VW55X_Wifi_BLE_SDK/GD32VW55x_RELEASE_V1.0.2/MSDK/wifi_manager\wifi_eloop.c ****             list_add(&timeout->list, tmp->list.prev);
 500              		.loc 1 276 9
 276:C:/Users/stapi/OneDrive/Desktop/GD32VW553/V1_MQTT_OK/GD32VW55X_Wifi_BLE_SDK/GD32VW55x_RELEASE_V1.0.2/MSDK/wifi_manager\wifi_eloop.c ****             list_add(&timeout->list, tmp->list.prev);
 501              		.loc 1 276 12 is_stmt 0
 502 0070 1844     		lw	a4,8(s0)
 503 0072 9C45     		lw	a5,8(a1)
 504 0074 637DF700 		bgeu	a4,a5,.L42
 277:C:/Users/stapi/OneDrive/Desktop/GD32VW553/V1_MQTT_OK/GD32VW55X_Wifi_BLE_SDK/GD32VW55x_RELEASE_V1.0.2/MSDK/wifi_manager\wifi_eloop.c ****             goto exit;
 505              		.loc 1 277 13 is_stmt 1
 506 0078 CC41     		lw	a1,4(a1)
 507              	.LVL42:
 508 007a 2285     		mv	a0,s0
 509 007c 97000000 		call	list_add
 509      E7800000 
 510              	.LVL43:
 278:C:/Users/stapi/OneDrive/Desktop/GD32VW553/V1_MQTT_OK/GD32VW55X_Wifi_BLE_SDK/GD32VW55x_RELEASE_V1.0.2/MSDK/wifi_manager\wifi_eloop.c ****         }
 511              		.loc 1 278 13
 512              	.L43:
 284:C:/Users/stapi/OneDrive/Desktop/GD32VW553/V1_MQTT_OK/GD32VW55X_Wifi_BLE_SDK/GD32VW55x_RELEASE_V1.0.2/MSDK/wifi_manager\wifi_eloop.c **** 
 513              		.loc 1 284 5
 514 0084 97000000 		call	sys_exit_critical
 514      E7800000 
 515              	.LVL44:
 286:C:/Users/stapi/OneDrive/Desktop/GD32VW553/V1_MQTT_OK/GD32VW55X_Wifi_BLE_SDK/GD32VW55x_RELEASE_V1.0.2/MSDK/wifi_manager\wifi_eloop.c **** }
 516              		.loc 1 286 5
 286:C:/Users/stapi/OneDrive/Desktop/GD32VW553/V1_MQTT_OK/GD32VW55X_Wifi_BLE_SDK/GD32VW55x_RELEASE_V1.0.2/MSDK/wifi_manager\wifi_eloop.c **** }
 517              		.loc 1 286 12 is_stmt 0
 518 008c 79B7     		j	.L37
 519              	.LVL45:
 520              	.L42:
 275:C:/Users/stapi/OneDrive/Desktop/GD32VW553/V1_MQTT_OK/GD32VW55X_Wifi_BLE_SDK/GD32VW55x_RELEASE_V1.0.2/MSDK/wifi_manager\wifi_eloop.c ****         if (timeout->time < tmp->time) {
 521              		.loc 1 275 5 is_stmt 1 discriminator 2
 522 008e 8C41     		lw	a1,0(a1)
 523              	.LVL46:
 524 0090 C1BF     		j	.L41
 525              		.cfi_endproc
 526              	.LFE21:
 528              		.section	.text.eloop_timeout_cancel,"ax",@progbits
 529              		.align	1
 530              		.globl	eloop_timeout_cancel
 532              	eloop_timeout_cancel:
 533              	.LFB23:
 300:C:/Users/stapi/OneDrive/Desktop/GD32VW553/V1_MQTT_OK/GD32VW55X_Wifi_BLE_SDK/GD32VW55x_RELEASE_V1.0.2/MSDK/wifi_manager\wifi_eloop.c **** 
 301:C:/Users/stapi/OneDrive/Desktop/GD32VW553/V1_MQTT_OK/GD32VW55X_Wifi_BLE_SDK/GD32VW55x_RELEASE_V1.0.2/MSDK/wifi_manager\wifi_eloop.c **** /*!
 302:C:/Users/stapi/OneDrive/Desktop/GD32VW553/V1_MQTT_OK/GD32VW55X_Wifi_BLE_SDK/GD32VW55x_RELEASE_V1.0.2/MSDK/wifi_manager\wifi_eloop.c ****     \brief      cancel timeouts
 303:C:/Users/stapi/OneDrive/Desktop/GD32VW553/V1_MQTT_OK/GD32VW55X_Wifi_BLE_SDK/GD32VW55x_RELEASE_V1.0.2/MSDK/wifi_manager\wifi_eloop.c ****     \param[in]  handler: matching callback function
 304:C:/Users/stapi/OneDrive/Desktop/GD32VW553/V1_MQTT_OK/GD32VW55X_Wifi_BLE_SDK/GD32VW55x_RELEASE_V1.0.2/MSDK/wifi_manager\wifi_eloop.c ****     \param[in]  eloop_data: matching eloop_data or %ELOOP_ALL_CTX to match all
 305:C:/Users/stapi/OneDrive/Desktop/GD32VW553/V1_MQTT_OK/GD32VW55X_Wifi_BLE_SDK/GD32VW55x_RELEASE_V1.0.2/MSDK/wifi_manager\wifi_eloop.c ****     \param[in]  user_data: matching user_data or %ELOOP_ALL_CTX to match all
 306:C:/Users/stapi/OneDrive/Desktop/GD32VW553/V1_MQTT_OK/GD32VW55X_Wifi_BLE_SDK/GD32VW55x_RELEASE_V1.0.2/MSDK/wifi_manager\wifi_eloop.c ****     \param[out] none
 307:C:/Users/stapi/OneDrive/Desktop/GD32VW553/V1_MQTT_OK/GD32VW55X_Wifi_BLE_SDK/GD32VW55x_RELEASE_V1.0.2/MSDK/wifi_manager\wifi_eloop.c ****     \retval     number of cancelled timeouts(0x00000000-0xffffffff)
 308:C:/Users/stapi/OneDrive/Desktop/GD32VW553/V1_MQTT_OK/GD32VW55X_Wifi_BLE_SDK/GD32VW55x_RELEASE_V1.0.2/MSDK/wifi_manager\wifi_eloop.c **** */
 309:C:/Users/stapi/OneDrive/Desktop/GD32VW553/V1_MQTT_OK/GD32VW55X_Wifi_BLE_SDK/GD32VW55x_RELEASE_V1.0.2/MSDK/wifi_manager\wifi_eloop.c **** int eloop_timeout_cancel(eloop_timeout_handler handler,
 310:C:/Users/stapi/OneDrive/Desktop/GD32VW553/V1_MQTT_OK/GD32VW55X_Wifi_BLE_SDK/GD32VW55x_RELEASE_V1.0.2/MSDK/wifi_manager\wifi_eloop.c ****              void *eloop_data, void *user_data)
 311:C:/Users/stapi/OneDrive/Desktop/GD32VW553/V1_MQTT_OK/GD32VW55X_Wifi_BLE_SDK/GD32VW55x_RELEASE_V1.0.2/MSDK/wifi_manager\wifi_eloop.c **** {
 534              		.loc 1 311 1
 535              		.cfi_startproc
 536              	.LVL47:
 537 0000 17030000 		call	t0,__riscv_save_7
 537      E7020300 
 538              		.cfi_offset 22, -32
 539              		.cfi_offset 21, -28
 540              		.cfi_offset 20, -24
 541              		.cfi_offset 19, -20
 542              		.cfi_offset 18, -16
 543              		.cfi_offset 9, -12
 544              		.cfi_offset 8, -8
 545              		.cfi_offset 1, -4
 546              		.cfi_def_cfa_offset 32
 312:C:/Users/stapi/OneDrive/Desktop/GD32VW553/V1_MQTT_OK/GD32VW55X_Wifi_BLE_SDK/GD32VW55x_RELEASE_V1.0.2/MSDK/wifi_manager\wifi_eloop.c ****     struct eloop_timeout *timeout, *prev;
 547              		.loc 1 312 5
 313:C:/Users/stapi/OneDrive/Desktop/GD32VW553/V1_MQTT_OK/GD32VW55X_Wifi_BLE_SDK/GD32VW55x_RELEASE_V1.0.2/MSDK/wifi_manager\wifi_eloop.c ****     int removed = 0;
 548              		.loc 1 313 5
 549              	.LVL48:
 314:C:/Users/stapi/OneDrive/Desktop/GD32VW553/V1_MQTT_OK/GD32VW55X_Wifi_BLE_SDK/GD32VW55x_RELEASE_V1.0.2/MSDK/wifi_manager\wifi_eloop.c ****     SYS_SR_ALLOC();
 550              		.loc 1 314 19
 315:C:/Users/stapi/OneDrive/Desktop/GD32VW553/V1_MQTT_OK/GD32VW55X_Wifi_BLE_SDK/GD32VW55x_RELEASE_V1.0.2/MSDK/wifi_manager\wifi_eloop.c **** 
 316:C:/Users/stapi/OneDrive/Desktop/GD32VW553/V1_MQTT_OK/GD32VW55X_Wifi_BLE_SDK/GD32VW55x_RELEASE_V1.0.2/MSDK/wifi_manager\wifi_eloop.c ****     if (eloop.terminate)
 551              		.loc 1 316 5
 552              		.loc 1 316 14 is_stmt 0
 553 0008 37040000 		lui	s0,%hi(.LANCHOR0)
 554 000c 13040400 		addi	s0,s0,%lo(.LANCHOR0)
 555 0010 0448     		lw	s1,16(s0)
 556              		.loc 1 316 8
 557 0012 B1EC     		bne	s1,zero,.L56
 558 0014 AA8A     		mv	s5,a0
 559 0016 2E89     		mv	s2,a1
 560 0018 B289     		mv	s3,a2
 317:C:/Users/stapi/OneDrive/Desktop/GD32VW553/V1_MQTT_OK/GD32VW55X_Wifi_BLE_SDK/GD32VW55x_RELEASE_V1.0.2/MSDK/wifi_manager\wifi_eloop.c ****         return -1;
 318:C:/Users/stapi/OneDrive/Desktop/GD32VW553/V1_MQTT_OK/GD32VW55X_Wifi_BLE_SDK/GD32VW55x_RELEASE_V1.0.2/MSDK/wifi_manager\wifi_eloop.c **** 
 319:C:/Users/stapi/OneDrive/Desktop/GD32VW553/V1_MQTT_OK/GD32VW55X_Wifi_BLE_SDK/GD32VW55x_RELEASE_V1.0.2/MSDK/wifi_manager\wifi_eloop.c ****     sys_enter_critical();
 561              		.loc 1 319 5 is_stmt 1
 562 001a 97000000 		call	sys_enter_critical
 562      E7800000 
 563              	.LVL49:
 320:C:/Users/stapi/OneDrive/Desktop/GD32VW553/V1_MQTT_OK/GD32VW55X_Wifi_BLE_SDK/GD32VW55x_RELEASE_V1.0.2/MSDK/wifi_manager\wifi_eloop.c ****     list_for_each_entry_safe(timeout, prev, &eloop.timeout,
 564              		.loc 1 320 5
 565 0022 0844     		lw	a0,8(s0)
 566              	.LVL50:
 321:C:/Users/stapi/OneDrive/Desktop/GD32VW553/V1_MQTT_OK/GD32VW55X_Wifi_BLE_SDK/GD32VW55x_RELEASE_V1.0.2/MSDK/wifi_manager\wifi_eloop.c ****                 struct eloop_timeout, list) {
 322:C:/Users/stapi/OneDrive/Desktop/GD32VW553/V1_MQTT_OK/GD32VW55X_Wifi_BLE_SDK/GD32VW55x_RELEASE_V1.0.2/MSDK/wifi_manager\wifi_eloop.c ****         if (timeout->handler == handler &&
 323:C:/Users/stapi/OneDrive/Desktop/GD32VW553/V1_MQTT_OK/GD32VW55X_Wifi_BLE_SDK/GD32VW55x_RELEASE_V1.0.2/MSDK/wifi_manager\wifi_eloop.c ****                 (timeout->eloop_data == eloop_data ||
 324:C:/Users/stapi/OneDrive/Desktop/GD32VW553/V1_MQTT_OK/GD32VW55X_Wifi_BLE_SDK/GD32VW55x_RELEASE_V1.0.2/MSDK/wifi_manager\wifi_eloop.c ****                     eloop_data == ELOOP_ALL_CTX) &&
 325:C:/Users/stapi/OneDrive/Desktop/GD32VW553/V1_MQTT_OK/GD32VW55X_Wifi_BLE_SDK/GD32VW55x_RELEASE_V1.0.2/MSDK/wifi_manager\wifi_eloop.c ****                 (timeout->user_data == user_data ||
 567              		.loc 1 325 50 is_stmt 0
 568 0024 7D5B     		li	s6,-1
 320:C:/Users/stapi/OneDrive/Desktop/GD32VW553/V1_MQTT_OK/GD32VW55X_Wifi_BLE_SDK/GD32VW55x_RELEASE_V1.0.2/MSDK/wifi_manager\wifi_eloop.c ****     list_for_each_entry_safe(timeout, prev, &eloop.timeout,
 569              		.loc 1 320 5
 570 0026 2104     		addi	s0,s0,8
 571 0028 032A0500 		lw	s4,0(a0)
 572              	.LVL51:
 573              	.L51:
 320:C:/Users/stapi/OneDrive/Desktop/GD32VW553/V1_MQTT_OK/GD32VW55X_Wifi_BLE_SDK/GD32VW55x_RELEASE_V1.0.2/MSDK/wifi_manager\wifi_eloop.c ****     list_for_each_entry_safe(timeout, prev, &eloop.timeout,
 574              		.loc 1 320 5 is_stmt 1 discriminator 1
 575 002c 631B8500 		bne	a0,s0,.L55
 326:C:/Users/stapi/OneDrive/Desktop/GD32VW553/V1_MQTT_OK/GD32VW55X_Wifi_BLE_SDK/GD32VW55x_RELEASE_V1.0.2/MSDK/wifi_manager\wifi_eloop.c ****                     user_data == ELOOP_ALL_CTX)) {
 327:C:/Users/stapi/OneDrive/Desktop/GD32VW553/V1_MQTT_OK/GD32VW55X_Wifi_BLE_SDK/GD32VW55x_RELEASE_V1.0.2/MSDK/wifi_manager\wifi_eloop.c ****             eloop_timeout_remove(timeout);
 328:C:/Users/stapi/OneDrive/Desktop/GD32VW553/V1_MQTT_OK/GD32VW55X_Wifi_BLE_SDK/GD32VW55x_RELEASE_V1.0.2/MSDK/wifi_manager\wifi_eloop.c ****             removed++;
 329:C:/Users/stapi/OneDrive/Desktop/GD32VW553/V1_MQTT_OK/GD32VW55X_Wifi_BLE_SDK/GD32VW55x_RELEASE_V1.0.2/MSDK/wifi_manager\wifi_eloop.c ****         }
 330:C:/Users/stapi/OneDrive/Desktop/GD32VW553/V1_MQTT_OK/GD32VW55X_Wifi_BLE_SDK/GD32VW55x_RELEASE_V1.0.2/MSDK/wifi_manager\wifi_eloop.c ****     }
 331:C:/Users/stapi/OneDrive/Desktop/GD32VW553/V1_MQTT_OK/GD32VW55X_Wifi_BLE_SDK/GD32VW55x_RELEASE_V1.0.2/MSDK/wifi_manager\wifi_eloop.c ****     sys_exit_critical();
 576              		.loc 1 331 5
 577 0030 97000000 		call	sys_exit_critical
 577      E7800000 
 578              	.LVL52:
 332:C:/Users/stapi/OneDrive/Desktop/GD32VW553/V1_MQTT_OK/GD32VW55X_Wifi_BLE_SDK/GD32VW55x_RELEASE_V1.0.2/MSDK/wifi_manager\wifi_eloop.c **** 
 333:C:/Users/stapi/OneDrive/Desktop/GD32VW553/V1_MQTT_OK/GD32VW55X_Wifi_BLE_SDK/GD32VW55x_RELEASE_V1.0.2/MSDK/wifi_manager\wifi_eloop.c ****     return removed;
 579              		.loc 1 333 5
 580              	.L49:
 334:C:/Users/stapi/OneDrive/Desktop/GD32VW553/V1_MQTT_OK/GD32VW55X_Wifi_BLE_SDK/GD32VW55x_RELEASE_V1.0.2/MSDK/wifi_manager\wifi_eloop.c **** }
 581              		.loc 1 334 1 is_stmt 0
 582 0038 2685     		mv	a0,s1
 583 003a 17030000 		tail	__riscv_restore_7
 583      67000300 
 584              		.cfi_remember_state
 585              		.cfi_restore 22
 586              		.cfi_restore 21
 587              		.cfi_restore 20
 588              		.cfi_restore 19
 589              		.cfi_restore 18
 590              		.cfi_restore 9
 591              		.cfi_restore 8
 592              		.cfi_restore 1
 593              		.cfi_def_cfa_offset 0
 594              	.LVL53:
 595              	.L55:
 596              		.cfi_restore_state
 322:C:/Users/stapi/OneDrive/Desktop/GD32VW553/V1_MQTT_OK/GD32VW55X_Wifi_BLE_SDK/GD32VW55x_RELEASE_V1.0.2/MSDK/wifi_manager\wifi_eloop.c ****                 (timeout->eloop_data == eloop_data ||
 597              		.loc 1 322 9 is_stmt 1
 322:C:/Users/stapi/OneDrive/Desktop/GD32VW553/V1_MQTT_OK/GD32VW55X_Wifi_BLE_SDK/GD32VW55x_RELEASE_V1.0.2/MSDK/wifi_manager\wifi_eloop.c ****                 (timeout->eloop_data == eloop_data ||
 598              		.loc 1 322 12 is_stmt 0
 599 0042 5C49     		lw	a5,20(a0)
 600 0044 63915703 		bne	a5,s5,.L52
 322:C:/Users/stapi/OneDrive/Desktop/GD32VW553/V1_MQTT_OK/GD32VW55X_Wifi_BLE_SDK/GD32VW55x_RELEASE_V1.0.2/MSDK/wifi_manager\wifi_eloop.c ****                 (timeout->eloop_data == eloop_data ||
 601              		.loc 1 322 41 discriminator 1
 602 0048 5C45     		lw	a5,12(a0)
 603 004a 63842701 		beq	a5,s2,.L53
 323:C:/Users/stapi/OneDrive/Desktop/GD32VW553/V1_MQTT_OK/GD32VW55X_Wifi_BLE_SDK/GD32VW55x_RELEASE_V1.0.2/MSDK/wifi_manager\wifi_eloop.c ****                     eloop_data == ELOOP_ALL_CTX) &&
 604              		.loc 1 323 52
 605 004e 631C6901 		bne	s2,s6,.L52
 606              	.L53:
 324:C:/Users/stapi/OneDrive/Desktop/GD32VW553/V1_MQTT_OK/GD32VW55X_Wifi_BLE_SDK/GD32VW55x_RELEASE_V1.0.2/MSDK/wifi_manager\wifi_eloop.c ****                 (timeout->user_data == user_data ||
 607              		.loc 1 324 50
 608 0052 1C49     		lw	a5,16(a0)
 609 0054 63843701 		beq	a5,s3,.L54
 325:C:/Users/stapi/OneDrive/Desktop/GD32VW553/V1_MQTT_OK/GD32VW55X_Wifi_BLE_SDK/GD32VW55x_RELEASE_V1.0.2/MSDK/wifi_manager\wifi_eloop.c ****                     user_data == ELOOP_ALL_CTX)) {
 610              		.loc 1 325 50
 611 0058 63976901 		bne	s3,s6,.L52
 612              	.L54:
 327:C:/Users/stapi/OneDrive/Desktop/GD32VW553/V1_MQTT_OK/GD32VW55X_Wifi_BLE_SDK/GD32VW55x_RELEASE_V1.0.2/MSDK/wifi_manager\wifi_eloop.c ****             removed++;
 613              		.loc 1 327 13 is_stmt 1
 614 005c 97000000 		call	eloop_timeout_remove
 614      E7800000 
 615              	.LVL54:
 328:C:/Users/stapi/OneDrive/Desktop/GD32VW553/V1_MQTT_OK/GD32VW55X_Wifi_BLE_SDK/GD32VW55x_RELEASE_V1.0.2/MSDK/wifi_manager\wifi_eloop.c ****         }
 616              		.loc 1 328 13
 328:C:/Users/stapi/OneDrive/Desktop/GD32VW553/V1_MQTT_OK/GD32VW55X_Wifi_BLE_SDK/GD32VW55x_RELEASE_V1.0.2/MSDK/wifi_manager\wifi_eloop.c ****         }
 617              		.loc 1 328 20 is_stmt 0
 618 0064 8504     		addi	s1,s1,1
 619              	.LVL55:
 620              	.L52:
 320:C:/Users/stapi/OneDrive/Desktop/GD32VW553/V1_MQTT_OK/GD32VW55X_Wifi_BLE_SDK/GD32VW55x_RELEASE_V1.0.2/MSDK/wifi_manager\wifi_eloop.c ****                 struct eloop_timeout, list) {
 621              		.loc 1 320 5 is_stmt 1 discriminator 2
 622 0066 5285     		mv	a0,s4
 623 0068 032A0A00 		lw	s4,0(s4)
 624              	.LVL56:
 625 006c C1B7     		j	.L51
 626              	.LVL57:
 627              	.L56:
 317:C:/Users/stapi/OneDrive/Desktop/GD32VW553/V1_MQTT_OK/GD32VW55X_Wifi_BLE_SDK/GD32VW55x_RELEASE_V1.0.2/MSDK/wifi_manager\wifi_eloop.c **** 
 628              		.loc 1 317 16 is_stmt 0
 629 006e FD54     		li	s1,-1
 630 0070 E1B7     		j	.L49
 631              		.cfi_endproc
 632              	.LFE23:
 634              		.section	.rodata.eloop_timeout_all_cancel.str1.4,"aMS",@progbits,1
 635              		.align	2
 636              	.LC0:
 637 0000 3D3D3D3D 		.string	"===============>remove timeout: eloop_data=%p user_data=%p handler=%p\r\n"
 637      3D3D3D3D 
 637      3D3D3D3D 
 637      3D3D3D3E 
 637      72656D6F 
 638              		.section	.text.eloop_timeout_all_cancel,"ax",@progbits
 639              		.align	1
 640              		.globl	eloop_timeout_all_cancel
 642              	eloop_timeout_all_cancel:
 643              	.LFB24:
 335:C:/Users/stapi/OneDrive/Desktop/GD32VW553/V1_MQTT_OK/GD32VW55X_Wifi_BLE_SDK/GD32VW55x_RELEASE_V1.0.2/MSDK/wifi_manager\wifi_eloop.c **** 
 336:C:/Users/stapi/OneDrive/Desktop/GD32VW553/V1_MQTT_OK/GD32VW55X_Wifi_BLE_SDK/GD32VW55x_RELEASE_V1.0.2/MSDK/wifi_manager\wifi_eloop.c **** //FOR test
 337:C:/Users/stapi/OneDrive/Desktop/GD32VW553/V1_MQTT_OK/GD32VW55X_Wifi_BLE_SDK/GD32VW55x_RELEASE_V1.0.2/MSDK/wifi_manager\wifi_eloop.c **** int eloop_timeout_all_cancel(void)
 338:C:/Users/stapi/OneDrive/Desktop/GD32VW553/V1_MQTT_OK/GD32VW55X_Wifi_BLE_SDK/GD32VW55x_RELEASE_V1.0.2/MSDK/wifi_manager\wifi_eloop.c **** {
 644              		.loc 1 338 1 is_stmt 1
 645              		.cfi_startproc
 646 0000 17030000 		call	t0,__riscv_save_4
 646      E7020300 
 647              		.cfi_offset 19, -20
 648              		.cfi_offset 18, -16
 649              		.cfi_offset 9, -12
 650              		.cfi_offset 8, -8
 651              		.cfi_offset 1, -4
 652              		.cfi_def_cfa_offset 32
 339:C:/Users/stapi/OneDrive/Desktop/GD32VW553/V1_MQTT_OK/GD32VW55X_Wifi_BLE_SDK/GD32VW55x_RELEASE_V1.0.2/MSDK/wifi_manager\wifi_eloop.c ****     struct eloop_timeout *timeout, *prev;
 653              		.loc 1 339 5
 340:C:/Users/stapi/OneDrive/Desktop/GD32VW553/V1_MQTT_OK/GD32VW55X_Wifi_BLE_SDK/GD32VW55x_RELEASE_V1.0.2/MSDK/wifi_manager\wifi_eloop.c ****     SYS_SR_ALLOC();
 654              		.loc 1 340 19
 341:C:/Users/stapi/OneDrive/Desktop/GD32VW553/V1_MQTT_OK/GD32VW55X_Wifi_BLE_SDK/GD32VW55x_RELEASE_V1.0.2/MSDK/wifi_manager\wifi_eloop.c ****     sys_enter_critical();
 655              		.loc 1 341 5
 656 0008 97000000 		call	sys_enter_critical
 656      E7800000 
 657              	.LVL58:
 342:C:/Users/stapi/OneDrive/Desktop/GD32VW553/V1_MQTT_OK/GD32VW55X_Wifi_BLE_SDK/GD32VW55x_RELEASE_V1.0.2/MSDK/wifi_manager\wifi_eloop.c ****     list_for_each_entry_safe(timeout, prev, &eloop.timeout,
 658              		.loc 1 342 5
 659 0010 B7070000 		lui	a5,%hi(.LANCHOR0)
 660 0014 93870700 		addi	a5,a5,%lo(.LANCHOR0)
 661 0018 8047     		lw	s0,8(a5)
 662              	.LVL59:
 663 001a 93848700 		addi	s1,a5,8
 343:C:/Users/stapi/OneDrive/Desktop/GD32VW553/V1_MQTT_OK/GD32VW55X_Wifi_BLE_SDK/GD32VW55x_RELEASE_V1.0.2/MSDK/wifi_manager\wifi_eloop.c ****                 struct eloop_timeout, list) {
 344:C:/Users/stapi/OneDrive/Desktop/GD32VW553/V1_MQTT_OK/GD32VW55X_Wifi_BLE_SDK/GD32VW55x_RELEASE_V1.0.2/MSDK/wifi_manager\wifi_eloop.c ****         printf("===============>remove timeout: "
 664              		.loc 1 344 9 is_stmt 0
 665 001e B7090000 		lui	s3,%hi(.LC0)
 342:C:/Users/stapi/OneDrive/Desktop/GD32VW553/V1_MQTT_OK/GD32VW55X_Wifi_BLE_SDK/GD32VW55x_RELEASE_V1.0.2/MSDK/wifi_manager\wifi_eloop.c ****     list_for_each_entry_safe(timeout, prev, &eloop.timeout,
 666              		.loc 1 342 5
 667 0022 03290400 		lw	s2,0(s0)
 668              	.LVL60:
 669              	.L59:
 342:C:/Users/stapi/OneDrive/Desktop/GD32VW553/V1_MQTT_OK/GD32VW55X_Wifi_BLE_SDK/GD32VW55x_RELEASE_V1.0.2/MSDK/wifi_manager\wifi_eloop.c ****     list_for_each_entry_safe(timeout, prev, &eloop.timeout,
 670              		.loc 1 342 5 is_stmt 1 discriminator 1
 671 0026 631B9400 		bne	s0,s1,.L60
 345:C:/Users/stapi/OneDrive/Desktop/GD32VW553/V1_MQTT_OK/GD32VW55X_Wifi_BLE_SDK/GD32VW55x_RELEASE_V1.0.2/MSDK/wifi_manager\wifi_eloop.c ****                "eloop_data=%p user_data=%p handler=%p\r\n",
 346:C:/Users/stapi/OneDrive/Desktop/GD32VW553/V1_MQTT_OK/GD32VW55X_Wifi_BLE_SDK/GD32VW55x_RELEASE_V1.0.2/MSDK/wifi_manager\wifi_eloop.c ****                timeout->eloop_data, timeout->user_data, timeout->handler);
 347:C:/Users/stapi/OneDrive/Desktop/GD32VW553/V1_MQTT_OK/GD32VW55X_Wifi_BLE_SDK/GD32VW55x_RELEASE_V1.0.2/MSDK/wifi_manager\wifi_eloop.c ****         eloop_timeout_remove(timeout);
 348:C:/Users/stapi/OneDrive/Desktop/GD32VW553/V1_MQTT_OK/GD32VW55X_Wifi_BLE_SDK/GD32VW55x_RELEASE_V1.0.2/MSDK/wifi_manager\wifi_eloop.c ****     }
 349:C:/Users/stapi/OneDrive/Desktop/GD32VW553/V1_MQTT_OK/GD32VW55X_Wifi_BLE_SDK/GD32VW55x_RELEASE_V1.0.2/MSDK/wifi_manager\wifi_eloop.c ****     sys_exit_critical();
 672              		.loc 1 349 5
 673 002a 97000000 		call	sys_exit_critical
 673      E7800000 
 674              	.LVL61:
 350:C:/Users/stapi/OneDrive/Desktop/GD32VW553/V1_MQTT_OK/GD32VW55X_Wifi_BLE_SDK/GD32VW55x_RELEASE_V1.0.2/MSDK/wifi_manager\wifi_eloop.c ****     return 0;
 675              		.loc 1 350 5
 351:C:/Users/stapi/OneDrive/Desktop/GD32VW553/V1_MQTT_OK/GD32VW55X_Wifi_BLE_SDK/GD32VW55x_RELEASE_V1.0.2/MSDK/wifi_manager\wifi_eloop.c **** }
 676              		.loc 1 351 1 is_stmt 0
 677 0032 0145     		li	a0,0
 678 0034 17030000 		tail	__riscv_restore_4
 678      67000300 
 679              		.cfi_remember_state
 680              		.cfi_restore 19
 681              		.cfi_restore 18
 682              		.cfi_restore 9
 683              		.cfi_restore 8
 684              		.cfi_restore 1
 685              		.cfi_def_cfa_offset 0
 686              	.L60:
 687              		.cfi_restore_state
 344:C:/Users/stapi/OneDrive/Desktop/GD32VW553/V1_MQTT_OK/GD32VW55X_Wifi_BLE_SDK/GD32VW55x_RELEASE_V1.0.2/MSDK/wifi_manager\wifi_eloop.c ****                "eloop_data=%p user_data=%p handler=%p\r\n",
 688              		.loc 1 344 9 is_stmt 1 discriminator 3
 689 003c 5448     		lw	a3,20(s0)
 690 003e 1048     		lw	a2,16(s0)
 691 0040 4C44     		lw	a1,12(s0)
 692 0042 13850900 		addi	a0,s3,%lo(.LC0)
 693 0046 97000000 		call	printf
 693      E7800000 
 694              	.LVL62:
 347:C:/Users/stapi/OneDrive/Desktop/GD32VW553/V1_MQTT_OK/GD32VW55X_Wifi_BLE_SDK/GD32VW55x_RELEASE_V1.0.2/MSDK/wifi_manager\wifi_eloop.c ****     }
 695              		.loc 1 347 9 discriminator 3
 696 004e 2285     		mv	a0,s0
 697 0050 97000000 		call	eloop_timeout_remove
 697      E7800000 
 698              	.LVL63:
 342:C:/Users/stapi/OneDrive/Desktop/GD32VW553/V1_MQTT_OK/GD32VW55X_Wifi_BLE_SDK/GD32VW55x_RELEASE_V1.0.2/MSDK/wifi_manager\wifi_eloop.c ****                 struct eloop_timeout, list) {
 699              		.loc 1 342 5 discriminator 3
 700 0058 4A84     		mv	s0,s2
 701 005a 03290900 		lw	s2,0(s2)
 702              	.LVL64:
 703 005e E1B7     		j	.L59
 704              		.cfi_endproc
 705              	.LFE24:
 707              		.section	.text.eloop_timeout_is_registered,"ax",@progbits
 708              		.align	1
 709              		.globl	eloop_timeout_is_registered
 711              	eloop_timeout_is_registered:
 712              	.LFB25:
 352:C:/Users/stapi/OneDrive/Desktop/GD32VW553/V1_MQTT_OK/GD32VW55X_Wifi_BLE_SDK/GD32VW55x_RELEASE_V1.0.2/MSDK/wifi_manager\wifi_eloop.c **** 
 353:C:/Users/stapi/OneDrive/Desktop/GD32VW553/V1_MQTT_OK/GD32VW55X_Wifi_BLE_SDK/GD32VW55x_RELEASE_V1.0.2/MSDK/wifi_manager\wifi_eloop.c **** /*!
 354:C:/Users/stapi/OneDrive/Desktop/GD32VW553/V1_MQTT_OK/GD32VW55X_Wifi_BLE_SDK/GD32VW55x_RELEASE_V1.0.2/MSDK/wifi_manager\wifi_eloop.c ****     \brief      check if a timeout is already registered
 355:C:/Users/stapi/OneDrive/Desktop/GD32VW553/V1_MQTT_OK/GD32VW55X_Wifi_BLE_SDK/GD32VW55x_RELEASE_V1.0.2/MSDK/wifi_manager\wifi_eloop.c ****     \param[in]  handler: matching callback function
 356:C:/Users/stapi/OneDrive/Desktop/GD32VW553/V1_MQTT_OK/GD32VW55X_Wifi_BLE_SDK/GD32VW55x_RELEASE_V1.0.2/MSDK/wifi_manager\wifi_eloop.c ****     \param[in]  eloop_data: matching eloop_data
 357:C:/Users/stapi/OneDrive/Desktop/GD32VW553/V1_MQTT_OK/GD32VW55X_Wifi_BLE_SDK/GD32VW55x_RELEASE_V1.0.2/MSDK/wifi_manager\wifi_eloop.c ****     \param[in]  user_data: matching user_data
 358:C:/Users/stapi/OneDrive/Desktop/GD32VW553/V1_MQTT_OK/GD32VW55X_Wifi_BLE_SDK/GD32VW55x_RELEASE_V1.0.2/MSDK/wifi_manager\wifi_eloop.c ****     \param[out] none
 359:C:/Users/stapi/OneDrive/Desktop/GD32VW553/V1_MQTT_OK/GD32VW55X_Wifi_BLE_SDK/GD32VW55x_RELEASE_V1.0.2/MSDK/wifi_manager\wifi_eloop.c ****     \retval     1 if the timeout is registered, 0 if the timeout is not registered(0x00000000-0xfff
 360:C:/Users/stapi/OneDrive/Desktop/GD32VW553/V1_MQTT_OK/GD32VW55X_Wifi_BLE_SDK/GD32VW55x_RELEASE_V1.0.2/MSDK/wifi_manager\wifi_eloop.c **** */
 361:C:/Users/stapi/OneDrive/Desktop/GD32VW553/V1_MQTT_OK/GD32VW55X_Wifi_BLE_SDK/GD32VW55x_RELEASE_V1.0.2/MSDK/wifi_manager\wifi_eloop.c **** int eloop_timeout_is_registered(eloop_timeout_handler handler,
 362:C:/Users/stapi/OneDrive/Desktop/GD32VW553/V1_MQTT_OK/GD32VW55X_Wifi_BLE_SDK/GD32VW55x_RELEASE_V1.0.2/MSDK/wifi_manager\wifi_eloop.c ****                 void *eloop_data, void *user_data)
 363:C:/Users/stapi/OneDrive/Desktop/GD32VW553/V1_MQTT_OK/GD32VW55X_Wifi_BLE_SDK/GD32VW55x_RELEASE_V1.0.2/MSDK/wifi_manager\wifi_eloop.c **** {
 713              		.loc 1 363 1
 714              		.cfi_startproc
 715              	.LVL65:
 716 0000 17030000 		call	t0,__riscv_save_3
 716      E7020300 
 717              		.cfi_offset 18, -16
 718              		.cfi_offset 9, -12
 719              		.cfi_offset 8, -8
 720              		.cfi_offset 1, -4
 721              		.cfi_def_cfa_offset 16
 364:C:/Users/stapi/OneDrive/Desktop/GD32VW553/V1_MQTT_OK/GD32VW55X_Wifi_BLE_SDK/GD32VW55x_RELEASE_V1.0.2/MSDK/wifi_manager\wifi_eloop.c ****     struct eloop_timeout *tmp;
 722              		.loc 1 364 5
 365:C:/Users/stapi/OneDrive/Desktop/GD32VW553/V1_MQTT_OK/GD32VW55X_Wifi_BLE_SDK/GD32VW55x_RELEASE_V1.0.2/MSDK/wifi_manager\wifi_eloop.c ****     SYS_SR_ALLOC();
 723              		.loc 1 365 19
 366:C:/Users/stapi/OneDrive/Desktop/GD32VW553/V1_MQTT_OK/GD32VW55X_Wifi_BLE_SDK/GD32VW55x_RELEASE_V1.0.2/MSDK/wifi_manager\wifi_eloop.c **** 
 367:C:/Users/stapi/OneDrive/Desktop/GD32VW553/V1_MQTT_OK/GD32VW55X_Wifi_BLE_SDK/GD32VW55x_RELEASE_V1.0.2/MSDK/wifi_manager\wifi_eloop.c ****     sys_enter_critical();
 724              		.loc 1 367 5
 363:C:/Users/stapi/OneDrive/Desktop/GD32VW553/V1_MQTT_OK/GD32VW55X_Wifi_BLE_SDK/GD32VW55x_RELEASE_V1.0.2/MSDK/wifi_manager\wifi_eloop.c ****     struct eloop_timeout *tmp;
 725              		.loc 1 363 1 is_stmt 0
 726 0008 2A84     		mv	s0,a0
 727 000a AE84     		mv	s1,a1
 728 000c 3289     		mv	s2,a2
 729              		.loc 1 367 5
 730 000e 97000000 		call	sys_enter_critical
 730      E7800000 
 731              	.LVL66:
 368:C:/Users/stapi/OneDrive/Desktop/GD32VW553/V1_MQTT_OK/GD32VW55X_Wifi_BLE_SDK/GD32VW55x_RELEASE_V1.0.2/MSDK/wifi_manager\wifi_eloop.c ****     list_for_each_entry(tmp, &eloop.timeout, struct eloop_timeout, list) {
 732              		.loc 1 368 5 is_stmt 1
 733 0016 B7070000 		lui	a5,%hi(.LANCHOR0)
 734 001a 93870700 		addi	a5,a5,%lo(.LANCHOR0)
 735 001e 9847     		lw	a4,8(a5)
 736              	.LVL67:
 737 0020 A107     		addi	a5,a5,8
 738              	.L63:
 739              		.loc 1 368 5 discriminator 1
 740 0022 6318F700 		bne	a4,a5,.L66
 369:C:/Users/stapi/OneDrive/Desktop/GD32VW553/V1_MQTT_OK/GD32VW55X_Wifi_BLE_SDK/GD32VW55x_RELEASE_V1.0.2/MSDK/wifi_manager\wifi_eloop.c ****         if (tmp->handler == handler &&
 370:C:/Users/stapi/OneDrive/Desktop/GD32VW553/V1_MQTT_OK/GD32VW55X_Wifi_BLE_SDK/GD32VW55x_RELEASE_V1.0.2/MSDK/wifi_manager\wifi_eloop.c ****                 tmp->eloop_data == eloop_data &&
 371:C:/Users/stapi/OneDrive/Desktop/GD32VW553/V1_MQTT_OK/GD32VW55X_Wifi_BLE_SDK/GD32VW55x_RELEASE_V1.0.2/MSDK/wifi_manager\wifi_eloop.c ****                 tmp->user_data == user_data) {
 372:C:/Users/stapi/OneDrive/Desktop/GD32VW553/V1_MQTT_OK/GD32VW55X_Wifi_BLE_SDK/GD32VW55x_RELEASE_V1.0.2/MSDK/wifi_manager\wifi_eloop.c ****             sys_exit_critical();
 373:C:/Users/stapi/OneDrive/Desktop/GD32VW553/V1_MQTT_OK/GD32VW55X_Wifi_BLE_SDK/GD32VW55x_RELEASE_V1.0.2/MSDK/wifi_manager\wifi_eloop.c ****             return 1;
 374:C:/Users/stapi/OneDrive/Desktop/GD32VW553/V1_MQTT_OK/GD32VW55X_Wifi_BLE_SDK/GD32VW55x_RELEASE_V1.0.2/MSDK/wifi_manager\wifi_eloop.c ****         }
 375:C:/Users/stapi/OneDrive/Desktop/GD32VW553/V1_MQTT_OK/GD32VW55X_Wifi_BLE_SDK/GD32VW55x_RELEASE_V1.0.2/MSDK/wifi_manager\wifi_eloop.c ****     }
 376:C:/Users/stapi/OneDrive/Desktop/GD32VW553/V1_MQTT_OK/GD32VW55X_Wifi_BLE_SDK/GD32VW55x_RELEASE_V1.0.2/MSDK/wifi_manager\wifi_eloop.c ****     sys_exit_critical();
 741              		.loc 1 376 5
 742 0026 97000000 		call	sys_exit_critical
 742      E7800000 
 743              	.LVL68:
 377:C:/Users/stapi/OneDrive/Desktop/GD32VW553/V1_MQTT_OK/GD32VW55X_Wifi_BLE_SDK/GD32VW55x_RELEASE_V1.0.2/MSDK/wifi_manager\wifi_eloop.c **** 
 378:C:/Users/stapi/OneDrive/Desktop/GD32VW553/V1_MQTT_OK/GD32VW55X_Wifi_BLE_SDK/GD32VW55x_RELEASE_V1.0.2/MSDK/wifi_manager\wifi_eloop.c ****     return 0;
 744              		.loc 1 378 5
 745              		.loc 1 378 12 is_stmt 0
 746 002e 0145     		li	a0,0
 747 0030 39A8     		j	.L62
 748              	.LVL69:
 749              	.L66:
 369:C:/Users/stapi/OneDrive/Desktop/GD32VW553/V1_MQTT_OK/GD32VW55X_Wifi_BLE_SDK/GD32VW55x_RELEASE_V1.0.2/MSDK/wifi_manager\wifi_eloop.c ****         if (tmp->handler == handler &&
 750              		.loc 1 369 9 is_stmt 1
 369:C:/Users/stapi/OneDrive/Desktop/GD32VW553/V1_MQTT_OK/GD32VW55X_Wifi_BLE_SDK/GD32VW55x_RELEASE_V1.0.2/MSDK/wifi_manager\wifi_eloop.c ****         if (tmp->handler == handler &&
 751              		.loc 1 369 12 is_stmt 0
 752 0032 544B     		lw	a3,20(a4)
 753 0034 63918602 		bne	a3,s0,.L64
 369:C:/Users/stapi/OneDrive/Desktop/GD32VW553/V1_MQTT_OK/GD32VW55X_Wifi_BLE_SDK/GD32VW55x_RELEASE_V1.0.2/MSDK/wifi_manager\wifi_eloop.c ****         if (tmp->handler == handler &&
 754              		.loc 1 369 37 discriminator 1
 755 0038 5447     		lw	a3,12(a4)
 756 003a 639E9600 		bne	a3,s1,.L64
 370:C:/Users/stapi/OneDrive/Desktop/GD32VW553/V1_MQTT_OK/GD32VW55X_Wifi_BLE_SDK/GD32VW55x_RELEASE_V1.0.2/MSDK/wifi_manager\wifi_eloop.c ****                 tmp->user_data == user_data) {
 757              		.loc 1 370 47
 758 003e 144B     		lw	a3,16(a4)
 759 0040 639B2601 		bne	a3,s2,.L64
 372:C:/Users/stapi/OneDrive/Desktop/GD32VW553/V1_MQTT_OK/GD32VW55X_Wifi_BLE_SDK/GD32VW55x_RELEASE_V1.0.2/MSDK/wifi_manager\wifi_eloop.c ****             return 1;
 760              		.loc 1 372 13 is_stmt 1
 761 0044 97000000 		call	sys_exit_critical
 761      E7800000 
 762              	.LVL70:
 373:C:/Users/stapi/OneDrive/Desktop/GD32VW553/V1_MQTT_OK/GD32VW55X_Wifi_BLE_SDK/GD32VW55x_RELEASE_V1.0.2/MSDK/wifi_manager\wifi_eloop.c ****         }
 763              		.loc 1 373 13
 373:C:/Users/stapi/OneDrive/Desktop/GD32VW553/V1_MQTT_OK/GD32VW55X_Wifi_BLE_SDK/GD32VW55x_RELEASE_V1.0.2/MSDK/wifi_manager\wifi_eloop.c ****         }
 764              		.loc 1 373 20 is_stmt 0
 765 004c 0545     		li	a0,1
 766              	.L62:
 379:C:/Users/stapi/OneDrive/Desktop/GD32VW553/V1_MQTT_OK/GD32VW55X_Wifi_BLE_SDK/GD32VW55x_RELEASE_V1.0.2/MSDK/wifi_manager\wifi_eloop.c **** }
 767              		.loc 1 379 1
 768 004e 17030000 		tail	__riscv_restore_3
 768      67000300 
 769              		.cfi_remember_state
 770              		.cfi_restore 18
 771              		.cfi_restore 9
 772              		.cfi_restore 8
 773              		.cfi_restore 1
 774              		.cfi_def_cfa_offset 0
 775              	.LVL71:
 776              	.L64:
 777              		.cfi_restore_state
 368:C:/Users/stapi/OneDrive/Desktop/GD32VW553/V1_MQTT_OK/GD32VW55X_Wifi_BLE_SDK/GD32VW55x_RELEASE_V1.0.2/MSDK/wifi_manager\wifi_eloop.c ****         if (tmp->handler == handler &&
 778              		.loc 1 368 5 is_stmt 1 discriminator 2
 779 0056 1843     		lw	a4,0(a4)
 780              	.LVL72:
 781 0058 E9B7     		j	.L63
 782              		.cfi_endproc
 783              	.LFE25:
 785              		.section	.text.wifi_eloop_run,"ax",@progbits
 786              		.align	1
 787              		.globl	wifi_eloop_run
 789              	wifi_eloop_run:
 790              	.LFB27:
 380:C:/Users/stapi/OneDrive/Desktop/GD32VW553/V1_MQTT_OK/GD32VW55X_Wifi_BLE_SDK/GD32VW55x_RELEASE_V1.0.2/MSDK/wifi_manager\wifi_eloop.c **** 
 381:C:/Users/stapi/OneDrive/Desktop/GD32VW553/V1_MQTT_OK/GD32VW55X_Wifi_BLE_SDK/GD32VW55x_RELEASE_V1.0.2/MSDK/wifi_manager\wifi_eloop.c **** /*!
 382:C:/Users/stapi/OneDrive/Desktop/GD32VW553/V1_MQTT_OK/GD32VW55X_Wifi_BLE_SDK/GD32VW55x_RELEASE_V1.0.2/MSDK/wifi_manager\wifi_eloop.c ****     \brief      handle eloop timeout
 383:C:/Users/stapi/OneDrive/Desktop/GD32VW553/V1_MQTT_OK/GD32VW55X_Wifi_BLE_SDK/GD32VW55x_RELEASE_V1.0.2/MSDK/wifi_manager\wifi_eloop.c ****     \param[in]  none
 384:C:/Users/stapi/OneDrive/Desktop/GD32VW553/V1_MQTT_OK/GD32VW55X_Wifi_BLE_SDK/GD32VW55x_RELEASE_V1.0.2/MSDK/wifi_manager\wifi_eloop.c ****     \param[out] none
 385:C:/Users/stapi/OneDrive/Desktop/GD32VW553/V1_MQTT_OK/GD32VW55X_Wifi_BLE_SDK/GD32VW55x_RELEASE_V1.0.2/MSDK/wifi_manager\wifi_eloop.c ****     \retval     none
 386:C:/Users/stapi/OneDrive/Desktop/GD32VW553/V1_MQTT_OK/GD32VW55X_Wifi_BLE_SDK/GD32VW55x_RELEASE_V1.0.2/MSDK/wifi_manager\wifi_eloop.c **** */
 387:C:/Users/stapi/OneDrive/Desktop/GD32VW553/V1_MQTT_OK/GD32VW55X_Wifi_BLE_SDK/GD32VW55x_RELEASE_V1.0.2/MSDK/wifi_manager\wifi_eloop.c **** static void eloop_timeout_handle()
 388:C:/Users/stapi/OneDrive/Desktop/GD32VW553/V1_MQTT_OK/GD32VW55X_Wifi_BLE_SDK/GD32VW55x_RELEASE_V1.0.2/MSDK/wifi_manager\wifi_eloop.c **** {
 389:C:/Users/stapi/OneDrive/Desktop/GD32VW553/V1_MQTT_OK/GD32VW55X_Wifi_BLE_SDK/GD32VW55x_RELEASE_V1.0.2/MSDK/wifi_manager\wifi_eloop.c ****     struct eloop_timeout *timeout;
 390:C:/Users/stapi/OneDrive/Desktop/GD32VW553/V1_MQTT_OK/GD32VW55X_Wifi_BLE_SDK/GD32VW55x_RELEASE_V1.0.2/MSDK/wifi_manager\wifi_eloop.c ****     uint32_t now;
 391:C:/Users/stapi/OneDrive/Desktop/GD32VW553/V1_MQTT_OK/GD32VW55X_Wifi_BLE_SDK/GD32VW55x_RELEASE_V1.0.2/MSDK/wifi_manager\wifi_eloop.c ****     SYS_SR_ALLOC();
 392:C:/Users/stapi/OneDrive/Desktop/GD32VW553/V1_MQTT_OK/GD32VW55X_Wifi_BLE_SDK/GD32VW55x_RELEASE_V1.0.2/MSDK/wifi_manager\wifi_eloop.c **** 
 393:C:/Users/stapi/OneDrive/Desktop/GD32VW553/V1_MQTT_OK/GD32VW55X_Wifi_BLE_SDK/GD32VW55x_RELEASE_V1.0.2/MSDK/wifi_manager\wifi_eloop.c ****     sys_enter_critical();
 394:C:/Users/stapi/OneDrive/Desktop/GD32VW553/V1_MQTT_OK/GD32VW55X_Wifi_BLE_SDK/GD32VW55x_RELEASE_V1.0.2/MSDK/wifi_manager\wifi_eloop.c ****     timeout = list_first_entry(&eloop.timeout, struct eloop_timeout, list);
 395:C:/Users/stapi/OneDrive/Desktop/GD32VW553/V1_MQTT_OK/GD32VW55X_Wifi_BLE_SDK/GD32VW55x_RELEASE_V1.0.2/MSDK/wifi_manager\wifi_eloop.c ****     if (timeout) {
 396:C:/Users/stapi/OneDrive/Desktop/GD32VW553/V1_MQTT_OK/GD32VW55X_Wifi_BLE_SDK/GD32VW55x_RELEASE_V1.0.2/MSDK/wifi_manager\wifi_eloop.c ****         now = sys_current_time_get();
 397:C:/Users/stapi/OneDrive/Desktop/GD32VW553/V1_MQTT_OK/GD32VW55X_Wifi_BLE_SDK/GD32VW55x_RELEASE_V1.0.2/MSDK/wifi_manager\wifi_eloop.c ****         if (SYS_TIME_AFTER_EQ(now, timeout->time)) {
 398:C:/Users/stapi/OneDrive/Desktop/GD32VW553/V1_MQTT_OK/GD32VW55X_Wifi_BLE_SDK/GD32VW55x_RELEASE_V1.0.2/MSDK/wifi_manager\wifi_eloop.c ****             void *eloop_data = timeout->eloop_data;
 399:C:/Users/stapi/OneDrive/Desktop/GD32VW553/V1_MQTT_OK/GD32VW55X_Wifi_BLE_SDK/GD32VW55x_RELEASE_V1.0.2/MSDK/wifi_manager\wifi_eloop.c ****             void *user_data = timeout->user_data;
 400:C:/Users/stapi/OneDrive/Desktop/GD32VW553/V1_MQTT_OK/GD32VW55X_Wifi_BLE_SDK/GD32VW55x_RELEASE_V1.0.2/MSDK/wifi_manager\wifi_eloop.c ****             eloop_timeout_handler handler =
 401:C:/Users/stapi/OneDrive/Desktop/GD32VW553/V1_MQTT_OK/GD32VW55X_Wifi_BLE_SDK/GD32VW55x_RELEASE_V1.0.2/MSDK/wifi_manager\wifi_eloop.c ****                 timeout->handler;
 402:C:/Users/stapi/OneDrive/Desktop/GD32VW553/V1_MQTT_OK/GD32VW55X_Wifi_BLE_SDK/GD32VW55x_RELEASE_V1.0.2/MSDK/wifi_manager\wifi_eloop.c ****             eloop_timeout_remove(timeout);
 403:C:/Users/stapi/OneDrive/Desktop/GD32VW553/V1_MQTT_OK/GD32VW55X_Wifi_BLE_SDK/GD32VW55x_RELEASE_V1.0.2/MSDK/wifi_manager\wifi_eloop.c ****             sys_exit_critical();
 404:C:/Users/stapi/OneDrive/Desktop/GD32VW553/V1_MQTT_OK/GD32VW55X_Wifi_BLE_SDK/GD32VW55x_RELEASE_V1.0.2/MSDK/wifi_manager\wifi_eloop.c ****             handler(eloop_data, user_data);
 405:C:/Users/stapi/OneDrive/Desktop/GD32VW553/V1_MQTT_OK/GD32VW55X_Wifi_BLE_SDK/GD32VW55x_RELEASE_V1.0.2/MSDK/wifi_manager\wifi_eloop.c ****             return;
 406:C:/Users/stapi/OneDrive/Desktop/GD32VW553/V1_MQTT_OK/GD32VW55X_Wifi_BLE_SDK/GD32VW55x_RELEASE_V1.0.2/MSDK/wifi_manager\wifi_eloop.c ****         }
 407:C:/Users/stapi/OneDrive/Desktop/GD32VW553/V1_MQTT_OK/GD32VW55X_Wifi_BLE_SDK/GD32VW55x_RELEASE_V1.0.2/MSDK/wifi_manager\wifi_eloop.c ****     }
 408:C:/Users/stapi/OneDrive/Desktop/GD32VW553/V1_MQTT_OK/GD32VW55X_Wifi_BLE_SDK/GD32VW55x_RELEASE_V1.0.2/MSDK/wifi_manager\wifi_eloop.c ****     sys_exit_critical();
 409:C:/Users/stapi/OneDrive/Desktop/GD32VW553/V1_MQTT_OK/GD32VW55X_Wifi_BLE_SDK/GD32VW55x_RELEASE_V1.0.2/MSDK/wifi_manager\wifi_eloop.c **** }
 410:C:/Users/stapi/OneDrive/Desktop/GD32VW553/V1_MQTT_OK/GD32VW55X_Wifi_BLE_SDK/GD32VW55x_RELEASE_V1.0.2/MSDK/wifi_manager\wifi_eloop.c **** 
 411:C:/Users/stapi/OneDrive/Desktop/GD32VW553/V1_MQTT_OK/GD32VW55X_Wifi_BLE_SDK/GD32VW55x_RELEASE_V1.0.2/MSDK/wifi_manager\wifi_eloop.c **** /*!
 412:C:/Users/stapi/OneDrive/Desktop/GD32VW553/V1_MQTT_OK/GD32VW55X_Wifi_BLE_SDK/GD32VW55x_RELEASE_V1.0.2/MSDK/wifi_manager\wifi_eloop.c ****     \brief      start the event loop
 413:C:/Users/stapi/OneDrive/Desktop/GD32VW553/V1_MQTT_OK/GD32VW55X_Wifi_BLE_SDK/GD32VW55x_RELEASE_V1.0.2/MSDK/wifi_manager\wifi_eloop.c ****     \param[in]  none
 414:C:/Users/stapi/OneDrive/Desktop/GD32VW553/V1_MQTT_OK/GD32VW55X_Wifi_BLE_SDK/GD32VW55x_RELEASE_V1.0.2/MSDK/wifi_manager\wifi_eloop.c ****     \param[out] none
 415:C:/Users/stapi/OneDrive/Desktop/GD32VW553/V1_MQTT_OK/GD32VW55X_Wifi_BLE_SDK/GD32VW55x_RELEASE_V1.0.2/MSDK/wifi_manager\wifi_eloop.c ****     \retval     none
 416:C:/Users/stapi/OneDrive/Desktop/GD32VW553/V1_MQTT_OK/GD32VW55X_Wifi_BLE_SDK/GD32VW55x_RELEASE_V1.0.2/MSDK/wifi_manager\wifi_eloop.c **** */
 417:C:/Users/stapi/OneDrive/Desktop/GD32VW553/V1_MQTT_OK/GD32VW55X_Wifi_BLE_SDK/GD32VW55x_RELEASE_V1.0.2/MSDK/wifi_manager\wifi_eloop.c **** void wifi_eloop_run(void)
 418:C:/Users/stapi/OneDrive/Desktop/GD32VW553/V1_MQTT_OK/GD32VW55X_Wifi_BLE_SDK/GD32VW55x_RELEASE_V1.0.2/MSDK/wifi_manager\wifi_eloop.c **** {
 791              		.loc 1 418 1
 792              		.cfi_startproc
 793 0000 17030000 		call	t0,__riscv_save_7
 793      E7020300 
 794              		.cfi_offset 22, -32
 795              		.cfi_offset 21, -28
 796              		.cfi_offset 20, -24
 797              		.cfi_offset 19, -20
 798              		.cfi_offset 18, -16
 799              		.cfi_offset 9, -12
 800              		.cfi_offset 8, -8
 801              		.cfi_offset 1, -4
 802              		.cfi_def_cfa_offset 32
 419:C:/Users/stapi/OneDrive/Desktop/GD32VW553/V1_MQTT_OK/GD32VW55X_Wifi_BLE_SDK/GD32VW55x_RELEASE_V1.0.2/MSDK/wifi_manager\wifi_eloop.c ****     uint32_t now;
 803              		.loc 1 419 5
 420:C:/Users/stapi/OneDrive/Desktop/GD32VW553/V1_MQTT_OK/GD32VW55X_Wifi_BLE_SDK/GD32VW55x_RELEASE_V1.0.2/MSDK/wifi_manager\wifi_eloop.c ****     uint32_t remain;
 804              		.loc 1 420 5
 421:C:/Users/stapi/OneDrive/Desktop/GD32VW553/V1_MQTT_OK/GD32VW55X_Wifi_BLE_SDK/GD32VW55x_RELEASE_V1.0.2/MSDK/wifi_manager\wifi_eloop.c ****     eloop_message_t message;
 805              		.loc 1 421 5
 422:C:/Users/stapi/OneDrive/Desktop/GD32VW553/V1_MQTT_OK/GD32VW55X_Wifi_BLE_SDK/GD32VW55x_RELEASE_V1.0.2/MSDK/wifi_manager\wifi_eloop.c ****     struct eloop_timeout *timeout;
 806              		.loc 1 422 5
 423:C:/Users/stapi/OneDrive/Desktop/GD32VW553/V1_MQTT_OK/GD32VW55X_Wifi_BLE_SDK/GD32VW55x_RELEASE_V1.0.2/MSDK/wifi_manager\wifi_eloop.c ****     SYS_SR_ALLOC();
 807              		.loc 1 423 19
 424:C:/Users/stapi/OneDrive/Desktop/GD32VW553/V1_MQTT_OK/GD32VW55X_Wifi_BLE_SDK/GD32VW55x_RELEASE_V1.0.2/MSDK/wifi_manager\wifi_eloop.c **** 
 425:C:/Users/stapi/OneDrive/Desktop/GD32VW553/V1_MQTT_OK/GD32VW55X_Wifi_BLE_SDK/GD32VW55x_RELEASE_V1.0.2/MSDK/wifi_manager\wifi_eloop.c ****     while (!eloop.terminate) {
 808              		.loc 1 425 5
 809              		.loc 1 425 18 is_stmt 0
 810 0008 B7040000 		lui	s1,%hi(.LANCHOR0)
 811 000c 93840400 		addi	s1,s1,%lo(.LANCHOR0)
 812 0010 37090000 		lui	s2,%hi(.LANCHOR0+8)
 813              	.LBB7:
 814              	.LBB8:
 216:C:/Users/stapi/OneDrive/Desktop/GD32VW553/V1_MQTT_OK/GD32VW55X_Wifi_BLE_SDK/GD32VW55x_RELEASE_V1.0.2/MSDK/wifi_manager\wifi_eloop.c **** 
 815              		.loc 1 216 14
 816 0014 8569     		li	s3,4096
 817              	.LBE8:
 818              	.LBE7:
 418:C:/Users/stapi/OneDrive/Desktop/GD32VW553/V1_MQTT_OK/GD32VW55X_Wifi_BLE_SDK/GD32VW55x_RELEASE_V1.0.2/MSDK/wifi_manager\wifi_eloop.c ****     uint32_t now;
 819              		.loc 1 418 1
 820 0016 7971     		addi	sp,sp,-48
 821              		.cfi_def_cfa_offset 80
 426:C:/Users/stapi/OneDrive/Desktop/GD32VW553/V1_MQTT_OK/GD32VW55X_Wifi_BLE_SDK/GD32VW55x_RELEASE_V1.0.2/MSDK/wifi_manager\wifi_eloop.c ****         remain = 0;
 427:C:/Users/stapi/OneDrive/Desktop/GD32VW553/V1_MQTT_OK/GD32VW55X_Wifi_BLE_SDK/GD32VW55x_RELEASE_V1.0.2/MSDK/wifi_manager\wifi_eloop.c **** 
 428:C:/Users/stapi/OneDrive/Desktop/GD32VW553/V1_MQTT_OK/GD32VW55X_Wifi_BLE_SDK/GD32VW55x_RELEASE_V1.0.2/MSDK/wifi_manager\wifi_eloop.c ****         sys_enter_critical();
 429:C:/Users/stapi/OneDrive/Desktop/GD32VW553/V1_MQTT_OK/GD32VW55X_Wifi_BLE_SDK/GD32VW55x_RELEASE_V1.0.2/MSDK/wifi_manager\wifi_eloop.c ****         timeout = list_first_entry(&eloop.timeout, struct eloop_timeout, list);
 822              		.loc 1 429 19
 823 0018 138A8400 		addi	s4,s1,8
 824 001c 13098900 		addi	s2,s2,%lo(.LANCHOR0+8)
 825              	.LBB11:
 826              	.LBB9:
 216:C:/Users/stapi/OneDrive/Desktop/GD32VW553/V1_MQTT_OK/GD32VW55X_Wifi_BLE_SDK/GD32VW55x_RELEASE_V1.0.2/MSDK/wifi_manager\wifi_eloop.c **** 
 827              		.loc 1 216 14
 828 0020 FD19     		addi	s3,s3,-1
 829              	.L69:
 830              	.LBE9:
 831              	.LBE11:
 425:C:/Users/stapi/OneDrive/Desktop/GD32VW553/V1_MQTT_OK/GD32VW55X_Wifi_BLE_SDK/GD32VW55x_RELEASE_V1.0.2/MSDK/wifi_manager\wifi_eloop.c ****         remain = 0;
 832              		.loc 1 425 11 is_stmt 1
 833 0022 9C48     		lw	a5,16(s1)
 834 0024 91C7     		beq	a5,zero,.L82
 430:C:/Users/stapi/OneDrive/Desktop/GD32VW553/V1_MQTT_OK/GD32VW55X_Wifi_BLE_SDK/GD32VW55x_RELEASE_V1.0.2/MSDK/wifi_manager\wifi_eloop.c ****         if (timeout) {
 431:C:/Users/stapi/OneDrive/Desktop/GD32VW553/V1_MQTT_OK/GD32VW55X_Wifi_BLE_SDK/GD32VW55x_RELEASE_V1.0.2/MSDK/wifi_manager\wifi_eloop.c ****             now = sys_current_time_get();
 432:C:/Users/stapi/OneDrive/Desktop/GD32VW553/V1_MQTT_OK/GD32VW55X_Wifi_BLE_SDK/GD32VW55x_RELEASE_V1.0.2/MSDK/wifi_manager\wifi_eloop.c ****             if (SYS_TIME_BEFORE(now, timeout->time)) {
 433:C:/Users/stapi/OneDrive/Desktop/GD32VW553/V1_MQTT_OK/GD32VW55X_Wifi_BLE_SDK/GD32VW55x_RELEASE_V1.0.2/MSDK/wifi_manager\wifi_eloop.c ****                 remain = timeout->time - now;
 434:C:/Users/stapi/OneDrive/Desktop/GD32VW553/V1_MQTT_OK/GD32VW55X_Wifi_BLE_SDK/GD32VW55x_RELEASE_V1.0.2/MSDK/wifi_manager\wifi_eloop.c ****             }
 435:C:/Users/stapi/OneDrive/Desktop/GD32VW553/V1_MQTT_OK/GD32VW55X_Wifi_BLE_SDK/GD32VW55x_RELEASE_V1.0.2/MSDK/wifi_manager\wifi_eloop.c ****         }
 436:C:/Users/stapi/OneDrive/Desktop/GD32VW553/V1_MQTT_OK/GD32VW55X_Wifi_BLE_SDK/GD32VW55x_RELEASE_V1.0.2/MSDK/wifi_manager\wifi_eloop.c ****         sys_exit_critical();
 437:C:/Users/stapi/OneDrive/Desktop/GD32VW553/V1_MQTT_OK/GD32VW55X_Wifi_BLE_SDK/GD32VW55x_RELEASE_V1.0.2/MSDK/wifi_manager\wifi_eloop.c **** 
 438:C:/Users/stapi/OneDrive/Desktop/GD32VW553/V1_MQTT_OK/GD32VW55X_Wifi_BLE_SDK/GD32VW55x_RELEASE_V1.0.2/MSDK/wifi_manager\wifi_eloop.c ****         if (timeout && remain == 0) {
 439:C:/Users/stapi/OneDrive/Desktop/GD32VW553/V1_MQTT_OK/GD32VW55X_Wifi_BLE_SDK/GD32VW55x_RELEASE_V1.0.2/MSDK/wifi_manager\wifi_eloop.c ****             sys_yield();
 440:C:/Users/stapi/OneDrive/Desktop/GD32VW553/V1_MQTT_OK/GD32VW55X_Wifi_BLE_SDK/GD32VW55x_RELEASE_V1.0.2/MSDK/wifi_manager\wifi_eloop.c ****         } else {
 441:C:/Users/stapi/OneDrive/Desktop/GD32VW553/V1_MQTT_OK/GD32VW55X_Wifi_BLE_SDK/GD32VW55x_RELEASE_V1.0.2/MSDK/wifi_manager\wifi_eloop.c ****             if (sys_task_wait(timeout ? remain : 0, &message) == OS_OK) {
 442:C:/Users/stapi/OneDrive/Desktop/GD32VW553/V1_MQTT_OK/GD32VW55X_Wifi_BLE_SDK/GD32VW55x_RELEASE_V1.0.2/MSDK/wifi_manager\wifi_eloop.c ****                 eloop_event_dispatch(message);
 443:C:/Users/stapi/OneDrive/Desktop/GD32VW553/V1_MQTT_OK/GD32VW55X_Wifi_BLE_SDK/GD32VW55x_RELEASE_V1.0.2/MSDK/wifi_manager\wifi_eloop.c ****             }
 444:C:/Users/stapi/OneDrive/Desktop/GD32VW553/V1_MQTT_OK/GD32VW55X_Wifi_BLE_SDK/GD32VW55x_RELEASE_V1.0.2/MSDK/wifi_manager\wifi_eloop.c ****         }
 445:C:/Users/stapi/OneDrive/Desktop/GD32VW553/V1_MQTT_OK/GD32VW55X_Wifi_BLE_SDK/GD32VW55x_RELEASE_V1.0.2/MSDK/wifi_manager\wifi_eloop.c **** 
 446:C:/Users/stapi/OneDrive/Desktop/GD32VW553/V1_MQTT_OK/GD32VW55X_Wifi_BLE_SDK/GD32VW55x_RELEASE_V1.0.2/MSDK/wifi_manager\wifi_eloop.c ****         eloop_timeout_handle();
 447:C:/Users/stapi/OneDrive/Desktop/GD32VW553/V1_MQTT_OK/GD32VW55X_Wifi_BLE_SDK/GD32VW55x_RELEASE_V1.0.2/MSDK/wifi_manager\wifi_eloop.c ****     }
 448:C:/Users/stapi/OneDrive/Desktop/GD32VW553/V1_MQTT_OK/GD32VW55X_Wifi_BLE_SDK/GD32VW55x_RELEASE_V1.0.2/MSDK/wifi_manager\wifi_eloop.c **** }
 835              		.loc 1 448 1 is_stmt 0
 836 0026 4561     		addi	sp,sp,48
 837              		.cfi_remember_state
 838              		.cfi_def_cfa_offset 0
 839 0028 17030000 		tail	__riscv_restore_7
 839      67000300 
 840              		.cfi_restore 22
 841              		.cfi_restore 21
 842              		.cfi_restore 20
 843              		.cfi_restore 19
 844              		.cfi_restore 18
 845              		.cfi_restore 9
 846              		.cfi_restore 8
 847              		.cfi_restore 1
 848              		.cfi_def_cfa_offset -32
 849              	.L82:
 850              		.cfi_restore_state
 426:C:/Users/stapi/OneDrive/Desktop/GD32VW553/V1_MQTT_OK/GD32VW55X_Wifi_BLE_SDK/GD32VW55x_RELEASE_V1.0.2/MSDK/wifi_manager\wifi_eloop.c **** 
 851              		.loc 1 426 9 is_stmt 1
 852              	.LVL73:
 428:C:/Users/stapi/OneDrive/Desktop/GD32VW553/V1_MQTT_OK/GD32VW55X_Wifi_BLE_SDK/GD32VW55x_RELEASE_V1.0.2/MSDK/wifi_manager\wifi_eloop.c ****         timeout = list_first_entry(&eloop.timeout, struct eloop_timeout, list);
 853              		.loc 1 428 9
 854 0030 97000000 		call	sys_enter_critical
 854      E7800000 
 855              	.LVL74:
 429:C:/Users/stapi/OneDrive/Desktop/GD32VW553/V1_MQTT_OK/GD32VW55X_Wifi_BLE_SDK/GD32VW55x_RELEASE_V1.0.2/MSDK/wifi_manager\wifi_eloop.c ****         if (timeout) {
 856              		.loc 1 429 9
 429:C:/Users/stapi/OneDrive/Desktop/GD32VW553/V1_MQTT_OK/GD32VW55X_Wifi_BLE_SDK/GD32VW55x_RELEASE_V1.0.2/MSDK/wifi_manager\wifi_eloop.c ****         if (timeout) {
 857              		.loc 1 429 19 is_stmt 0
 858 0038 5285     		mv	a0,s4
 859 003a 97000000 		call	list_empty
 859      E7800000 
 860              	.LVL75:
 861 0042 59E1     		bne	a0,zero,.L83
 429:C:/Users/stapi/OneDrive/Desktop/GD32VW553/V1_MQTT_OK/GD32VW55X_Wifi_BLE_SDK/GD32VW55x_RELEASE_V1.0.2/MSDK/wifi_manager\wifi_eloop.c ****         if (timeout) {
 862              		.loc 1 429 19 discriminator 1
 863 0044 83AA8400 		lw	s5,8(s1)
 864              	.LVL76:
 430:C:/Users/stapi/OneDrive/Desktop/GD32VW553/V1_MQTT_OK/GD32VW55X_Wifi_BLE_SDK/GD32VW55x_RELEASE_V1.0.2/MSDK/wifi_manager\wifi_eloop.c ****             now = sys_current_time_get();
 865              		.loc 1 430 9 is_stmt 1 discriminator 1
 426:C:/Users/stapi/OneDrive/Desktop/GD32VW553/V1_MQTT_OK/GD32VW55X_Wifi_BLE_SDK/GD32VW55x_RELEASE_V1.0.2/MSDK/wifi_manager\wifi_eloop.c **** 
 866              		.loc 1 426 16 is_stmt 0 discriminator 1
 867 0048 0144     		li	s0,0
 430:C:/Users/stapi/OneDrive/Desktop/GD32VW553/V1_MQTT_OK/GD32VW55X_Wifi_BLE_SDK/GD32VW55x_RELEASE_V1.0.2/MSDK/wifi_manager\wifi_eloop.c ****             now = sys_current_time_get();
 868              		.loc 1 430 12 discriminator 1
 869 004a 638D0A00 		beq	s5,zero,.L70
 431:C:/Users/stapi/OneDrive/Desktop/GD32VW553/V1_MQTT_OK/GD32VW55X_Wifi_BLE_SDK/GD32VW55x_RELEASE_V1.0.2/MSDK/wifi_manager\wifi_eloop.c ****             if (SYS_TIME_BEFORE(now, timeout->time)) {
 870              		.loc 1 431 13 is_stmt 1
 431:C:/Users/stapi/OneDrive/Desktop/GD32VW553/V1_MQTT_OK/GD32VW55X_Wifi_BLE_SDK/GD32VW55x_RELEASE_V1.0.2/MSDK/wifi_manager\wifi_eloop.c ****             if (SYS_TIME_BEFORE(now, timeout->time)) {
 871              		.loc 1 431 19 is_stmt 0
 872 004e 97000000 		call	sys_current_time_get
 872      E7800000 
 873              	.LVL77:
 432:C:/Users/stapi/OneDrive/Desktop/GD32VW553/V1_MQTT_OK/GD32VW55X_Wifi_BLE_SDK/GD32VW55x_RELEASE_V1.0.2/MSDK/wifi_manager\wifi_eloop.c ****                 remain = timeout->time - now;
 874              		.loc 1 432 13 is_stmt 1
 432:C:/Users/stapi/OneDrive/Desktop/GD32VW553/V1_MQTT_OK/GD32VW55X_Wifi_BLE_SDK/GD32VW55x_RELEASE_V1.0.2/MSDK/wifi_manager\wifi_eloop.c ****                 remain = timeout->time - now;
 875              		.loc 1 432 17 is_stmt 0
 876 0056 83A78A00 		lw	a5,8(s5)
 877 005a 3304F540 		sub	s0,a0,a5
 433:C:/Users/stapi/OneDrive/Desktop/GD32VW553/V1_MQTT_OK/GD32VW55X_Wifi_BLE_SDK/GD32VW55x_RELEASE_V1.0.2/MSDK/wifi_manager\wifi_eloop.c ****             }
 878              		.loc 1 433 24
 879 005e 7D84     		srai	s0,s0,31
 880 0060 898F     		sub	a5,a5,a0
 881 0062 7D8C     		and	s0,a5,s0
 882              	.LVL78:
 883              	.L70:
 436:C:/Users/stapi/OneDrive/Desktop/GD32VW553/V1_MQTT_OK/GD32VW55X_Wifi_BLE_SDK/GD32VW55x_RELEASE_V1.0.2/MSDK/wifi_manager\wifi_eloop.c **** 
 884              		.loc 1 436 9 is_stmt 1
 885 0064 97000000 		call	sys_exit_critical
 885      E7800000 
 886              	.LVL79:
 438:C:/Users/stapi/OneDrive/Desktop/GD32VW553/V1_MQTT_OK/GD32VW55X_Wifi_BLE_SDK/GD32VW55x_RELEASE_V1.0.2/MSDK/wifi_manager\wifi_eloop.c ****             sys_yield();
 887              		.loc 1 438 9
 438:C:/Users/stapi/OneDrive/Desktop/GD32VW553/V1_MQTT_OK/GD32VW55X_Wifi_BLE_SDK/GD32VW55x_RELEASE_V1.0.2/MSDK/wifi_manager\wifi_eloop.c ****             sys_yield();
 888              		.loc 1 438 12 is_stmt 0
 889 006c 63810A06 		beq	s5,zero,.L86
 438:C:/Users/stapi/OneDrive/Desktop/GD32VW553/V1_MQTT_OK/GD32VW55X_Wifi_BLE_SDK/GD32VW55x_RELEASE_V1.0.2/MSDK/wifi_manager\wifi_eloop.c ****             sys_yield();
 890              		.loc 1 438 21 discriminator 1
 891 0070 25E0     		bne	s0,zero,.L71
 892              	.LVL80:
 439:C:/Users/stapi/OneDrive/Desktop/GD32VW553/V1_MQTT_OK/GD32VW55X_Wifi_BLE_SDK/GD32VW55x_RELEASE_V1.0.2/MSDK/wifi_manager\wifi_eloop.c ****         } else {
 893              		.loc 1 439 13 is_stmt 1
 894 0072 97000000 		call	sys_yield
 894      E7800000 
 895              	.LVL81:
 896              	.L72:
 446:C:/Users/stapi/OneDrive/Desktop/GD32VW553/V1_MQTT_OK/GD32VW55X_Wifi_BLE_SDK/GD32VW55x_RELEASE_V1.0.2/MSDK/wifi_manager\wifi_eloop.c ****     }
 897              		.loc 1 446 9
 898              	.LBB12:
 899              	.LBB13:
 389:C:/Users/stapi/OneDrive/Desktop/GD32VW553/V1_MQTT_OK/GD32VW55X_Wifi_BLE_SDK/GD32VW55x_RELEASE_V1.0.2/MSDK/wifi_manager\wifi_eloop.c ****     uint32_t now;
 900              		.loc 1 389 5
 390:C:/Users/stapi/OneDrive/Desktop/GD32VW553/V1_MQTT_OK/GD32VW55X_Wifi_BLE_SDK/GD32VW55x_RELEASE_V1.0.2/MSDK/wifi_manager\wifi_eloop.c ****     SYS_SR_ALLOC();
 901              		.loc 1 390 5
 391:C:/Users/stapi/OneDrive/Desktop/GD32VW553/V1_MQTT_OK/GD32VW55X_Wifi_BLE_SDK/GD32VW55x_RELEASE_V1.0.2/MSDK/wifi_manager\wifi_eloop.c **** 
 902              		.loc 1 391 19
 393:C:/Users/stapi/OneDrive/Desktop/GD32VW553/V1_MQTT_OK/GD32VW55X_Wifi_BLE_SDK/GD32VW55x_RELEASE_V1.0.2/MSDK/wifi_manager\wifi_eloop.c ****     timeout = list_first_entry(&eloop.timeout, struct eloop_timeout, list);
 903              		.loc 1 393 5
 904 007a 97000000 		call	sys_enter_critical
 904      E7800000 
 905              	.LVL82:
 394:C:/Users/stapi/OneDrive/Desktop/GD32VW553/V1_MQTT_OK/GD32VW55X_Wifi_BLE_SDK/GD32VW55x_RELEASE_V1.0.2/MSDK/wifi_manager\wifi_eloop.c ****     if (timeout) {
 906              		.loc 1 394 5
 394:C:/Users/stapi/OneDrive/Desktop/GD32VW553/V1_MQTT_OK/GD32VW55X_Wifi_BLE_SDK/GD32VW55x_RELEASE_V1.0.2/MSDK/wifi_manager\wifi_eloop.c ****     if (timeout) {
 907              		.loc 1 394 15 is_stmt 0
 908 0082 4A85     		mv	a0,s2
 909 0084 97000000 		call	list_empty
 909      E7800000 
 910              	.LVL83:
 911 008c 45E5     		bne	a0,zero,.L80
 912 008e 8044     		lw	s0,8(s1)
 913              	.LVL84:
 395:C:/Users/stapi/OneDrive/Desktop/GD32VW553/V1_MQTT_OK/GD32VW55X_Wifi_BLE_SDK/GD32VW55x_RELEASE_V1.0.2/MSDK/wifi_manager\wifi_eloop.c ****         now = sys_current_time_get();
 914              		.loc 1 395 5 is_stmt 1
 395:C:/Users/stapi/OneDrive/Desktop/GD32VW553/V1_MQTT_OK/GD32VW55X_Wifi_BLE_SDK/GD32VW55x_RELEASE_V1.0.2/MSDK/wifi_manager\wifi_eloop.c ****         now = sys_current_time_get();
 915              		.loc 1 395 8 is_stmt 0
 916 0090 55C0     		beq	s0,zero,.L80
 396:C:/Users/stapi/OneDrive/Desktop/GD32VW553/V1_MQTT_OK/GD32VW55X_Wifi_BLE_SDK/GD32VW55x_RELEASE_V1.0.2/MSDK/wifi_manager\wifi_eloop.c ****         if (SYS_TIME_AFTER_EQ(now, timeout->time)) {
 917              		.loc 1 396 9 is_stmt 1
 396:C:/Users/stapi/OneDrive/Desktop/GD32VW553/V1_MQTT_OK/GD32VW55X_Wifi_BLE_SDK/GD32VW55x_RELEASE_V1.0.2/MSDK/wifi_manager\wifi_eloop.c ****         if (SYS_TIME_AFTER_EQ(now, timeout->time)) {
 918              		.loc 1 396 15 is_stmt 0
 919 0092 97000000 		call	sys_current_time_get
 919      E7800000 
 920              	.LVL85:
 397:C:/Users/stapi/OneDrive/Desktop/GD32VW553/V1_MQTT_OK/GD32VW55X_Wifi_BLE_SDK/GD32VW55x_RELEASE_V1.0.2/MSDK/wifi_manager\wifi_eloop.c ****             void *eloop_data = timeout->eloop_data;
 921              		.loc 1 397 9 is_stmt 1
 397:C:/Users/stapi/OneDrive/Desktop/GD32VW553/V1_MQTT_OK/GD32VW55X_Wifi_BLE_SDK/GD32VW55x_RELEASE_V1.0.2/MSDK/wifi_manager\wifi_eloop.c ****             void *eloop_data = timeout->eloop_data;
 922              		.loc 1 397 13 is_stmt 0
 923 009a 1C44     		lw	a5,8(s0)
 924 009c 1D8D     		sub	a0,a0,a5
 925              	.LVL86:
 397:C:/Users/stapi/OneDrive/Desktop/GD32VW553/V1_MQTT_OK/GD32VW55X_Wifi_BLE_SDK/GD32VW55x_RELEASE_V1.0.2/MSDK/wifi_manager\wifi_eloop.c ****             void *eloop_data = timeout->eloop_data;
 926              		.loc 1 397 12
 927 009e 634B0508 		blt	a0,zero,.L80
 928              	.LBB14:
 398:C:/Users/stapi/OneDrive/Desktop/GD32VW553/V1_MQTT_OK/GD32VW55X_Wifi_BLE_SDK/GD32VW55x_RELEASE_V1.0.2/MSDK/wifi_manager\wifi_eloop.c ****             void *user_data = timeout->user_data;
 929              		.loc 1 398 13 is_stmt 1
 399:C:/Users/stapi/OneDrive/Desktop/GD32VW553/V1_MQTT_OK/GD32VW55X_Wifi_BLE_SDK/GD32VW55x_RELEASE_V1.0.2/MSDK/wifi_manager\wifi_eloop.c ****             eloop_timeout_handler handler =
 930              		.loc 1 399 19 is_stmt 0
 931 00a2 0C48     		lw	a1,16(s0)
 402:C:/Users/stapi/OneDrive/Desktop/GD32VW553/V1_MQTT_OK/GD32VW55X_Wifi_BLE_SDK/GD32VW55x_RELEASE_V1.0.2/MSDK/wifi_manager\wifi_eloop.c ****             sys_exit_critical();
 932              		.loc 1 402 13
 933 00a4 2285     		mv	a0,s0
 398:C:/Users/stapi/OneDrive/Desktop/GD32VW553/V1_MQTT_OK/GD32VW55X_Wifi_BLE_SDK/GD32VW55x_RELEASE_V1.0.2/MSDK/wifi_manager\wifi_eloop.c ****             void *user_data = timeout->user_data;
 934              		.loc 1 398 19
 935 00a6 032BC400 		lw	s6,12(s0)
 936              	.LVL87:
 399:C:/Users/stapi/OneDrive/Desktop/GD32VW553/V1_MQTT_OK/GD32VW55X_Wifi_BLE_SDK/GD32VW55x_RELEASE_V1.0.2/MSDK/wifi_manager\wifi_eloop.c ****             eloop_timeout_handler handler =
 937              		.loc 1 399 13 is_stmt 1
 399:C:/Users/stapi/OneDrive/Desktop/GD32VW553/V1_MQTT_OK/GD32VW55X_Wifi_BLE_SDK/GD32VW55x_RELEASE_V1.0.2/MSDK/wifi_manager\wifi_eloop.c ****             eloop_timeout_handler handler =
 938              		.loc 1 399 19 is_stmt 0
 939 00aa 2EC6     		sw	a1,12(sp)
 940              	.LVL88:
 400:C:/Users/stapi/OneDrive/Desktop/GD32VW553/V1_MQTT_OK/GD32VW55X_Wifi_BLE_SDK/GD32VW55x_RELEASE_V1.0.2/MSDK/wifi_manager\wifi_eloop.c ****                 timeout->handler;
 941              		.loc 1 400 13 is_stmt 1
 400:C:/Users/stapi/OneDrive/Desktop/GD32VW553/V1_MQTT_OK/GD32VW55X_Wifi_BLE_SDK/GD32VW55x_RELEASE_V1.0.2/MSDK/wifi_manager\wifi_eloop.c ****                 timeout->handler;
 942              		.loc 1 400 35 is_stmt 0
 943 00ac 832A4401 		lw	s5,20(s0)
 944              	.LVL89:
 402:C:/Users/stapi/OneDrive/Desktop/GD32VW553/V1_MQTT_OK/GD32VW55X_Wifi_BLE_SDK/GD32VW55x_RELEASE_V1.0.2/MSDK/wifi_manager\wifi_eloop.c ****             sys_exit_critical();
 945              		.loc 1 402 13 is_stmt 1
 946 00b0 97000000 		call	eloop_timeout_remove
 946      E7800000 
 947              	.LVL90:
 403:C:/Users/stapi/OneDrive/Desktop/GD32VW553/V1_MQTT_OK/GD32VW55X_Wifi_BLE_SDK/GD32VW55x_RELEASE_V1.0.2/MSDK/wifi_manager\wifi_eloop.c ****             handler(eloop_data, user_data);
 948              		.loc 1 403 13
 949 00b8 97000000 		call	sys_exit_critical
 949      E7800000 
 950              	.LVL91:
 404:C:/Users/stapi/OneDrive/Desktop/GD32VW553/V1_MQTT_OK/GD32VW55X_Wifi_BLE_SDK/GD32VW55x_RELEASE_V1.0.2/MSDK/wifi_manager\wifi_eloop.c ****             return;
 951              		.loc 1 404 13
 952 00c0 B245     		lw	a1,12(sp)
 953 00c2 5A85     		mv	a0,s6
 954 00c4 829A     		jalr	s5
 955              	.LVL92:
 405:C:/Users/stapi/OneDrive/Desktop/GD32VW553/V1_MQTT_OK/GD32VW55X_Wifi_BLE_SDK/GD32VW55x_RELEASE_V1.0.2/MSDK/wifi_manager\wifi_eloop.c ****         }
 956              		.loc 1 405 13
 957 00c6 B1BF     		j	.L69
 958              	.LVL93:
 959              	.L83:
 960              	.LBE14:
 961              	.LBE13:
 962              	.LBE12:
 429:C:/Users/stapi/OneDrive/Desktop/GD32VW553/V1_MQTT_OK/GD32VW55X_Wifi_BLE_SDK/GD32VW55x_RELEASE_V1.0.2/MSDK/wifi_manager\wifi_eloop.c ****         if (timeout) {
 963              		.loc 1 429 19 is_stmt 0
 964 00c8 814A     		li	s5,0
 426:C:/Users/stapi/OneDrive/Desktop/GD32VW553/V1_MQTT_OK/GD32VW55X_Wifi_BLE_SDK/GD32VW55x_RELEASE_V1.0.2/MSDK/wifi_manager\wifi_eloop.c **** 
 965              		.loc 1 426 16
 966 00ca 0144     		li	s0,0
 967 00cc 61BF     		j	.L70
 968              	.LVL94:
 969              	.L86:
 441:C:/Users/stapi/OneDrive/Desktop/GD32VW553/V1_MQTT_OK/GD32VW55X_Wifi_BLE_SDK/GD32VW55x_RELEASE_V1.0.2/MSDK/wifi_manager\wifi_eloop.c ****                 eloop_event_dispatch(message);
 970              		.loc 1 441 17
 971 00ce 0144     		li	s0,0
 972              	.LVL95:
 973              	.L71:
 441:C:/Users/stapi/OneDrive/Desktop/GD32VW553/V1_MQTT_OK/GD32VW55X_Wifi_BLE_SDK/GD32VW55x_RELEASE_V1.0.2/MSDK/wifi_manager\wifi_eloop.c ****                 eloop_event_dispatch(message);
 974              		.loc 1 441 17 discriminator 4
 975 00d0 2285     		mv	a0,s0
 976 00d2 2C08     		addi	a1,sp,24
 977 00d4 97000000 		call	sys_task_wait
 977      E7800000 
 978              	.LVL96:
 979 00dc 2A84     		mv	s0,a0
 441:C:/Users/stapi/OneDrive/Desktop/GD32VW553/V1_MQTT_OK/GD32VW55X_Wifi_BLE_SDK/GD32VW55x_RELEASE_V1.0.2/MSDK/wifi_manager\wifi_eloop.c ****                 eloop_event_dispatch(message);
 980              		.loc 1 441 16 discriminator 4
 981 00de 51FD     		bne	a0,zero,.L72
 442:C:/Users/stapi/OneDrive/Desktop/GD32VW553/V1_MQTT_OK/GD32VW55X_Wifi_BLE_SDK/GD32VW55x_RELEASE_V1.0.2/MSDK/wifi_manager\wifi_eloop.c ****             }
 982              		.loc 1 442 17 is_stmt 1
 983 00e0 3146     		li	a2,12
 984 00e2 2C08     		addi	a1,sp,24
 985 00e4 4810     		addi	a0,sp,36
 986 00e6 97000000 		call	memcpy
 986      E7800000 
 987              	.LVL97:
 988              	.LBB16:
 989              	.LBB10:
 214:C:/Users/stapi/OneDrive/Desktop/GD32VW553/V1_MQTT_OK/GD32VW55X_Wifi_BLE_SDK/GD32VW55x_RELEASE_V1.0.2/MSDK/wifi_manager\wifi_eloop.c ****     eloop_event_id_t event_id = message.event_id;
 990              		.loc 1 214 5
 215:C:/Users/stapi/OneDrive/Desktop/GD32VW553/V1_MQTT_OK/GD32VW55X_Wifi_BLE_SDK/GD32VW55x_RELEASE_V1.0.2/MSDK/wifi_manager\wifi_eloop.c ****     uint16_t event = ELOOP_EVENT_GET_EV(event_id);
 991              		.loc 1 215 5
 215:C:/Users/stapi/OneDrive/Desktop/GD32VW553/V1_MQTT_OK/GD32VW55X_Wifi_BLE_SDK/GD32VW55x_RELEASE_V1.0.2/MSDK/wifi_manager\wifi_eloop.c ****     uint16_t event = ELOOP_EVENT_GET_EV(event_id);
 992              		.loc 1 215 22 is_stmt 0
 993 00ee 835A4102 		lhu	s5,36(sp)
 994              	.LVL98:
 216:C:/Users/stapi/OneDrive/Desktop/GD32VW553/V1_MQTT_OK/GD32VW55X_Wifi_BLE_SDK/GD32VW55x_RELEASE_V1.0.2/MSDK/wifi_manager\wifi_eloop.c **** 
 995              		.loc 1 216 5 is_stmt 1
 218:C:/Users/stapi/OneDrive/Desktop/GD32VW553/V1_MQTT_OK/GD32VW55X_Wifi_BLE_SDK/GD32VW55x_RELEASE_V1.0.2/MSDK/wifi_manager\wifi_eloop.c ****         return;
 996              		.loc 1 218 8 is_stmt 0
 997 00f2 8547     		li	a5,1
 216:C:/Users/stapi/OneDrive/Desktop/GD32VW553/V1_MQTT_OK/GD32VW55X_Wifi_BLE_SDK/GD32VW55x_RELEASE_V1.0.2/MSDK/wifi_manager\wifi_eloop.c **** 
 998              		.loc 1 216 14
 999 00f4 33F73A01 		and	a4,s5,s3
 1000              	.LVL99:
 218:C:/Users/stapi/OneDrive/Desktop/GD32VW553/V1_MQTT_OK/GD32VW55X_Wifi_BLE_SDK/GD32VW55x_RELEASE_V1.0.2/MSDK/wifi_manager\wifi_eloop.c ****         return;
 1001              		.loc 1 218 5 is_stmt 1
 218:C:/Users/stapi/OneDrive/Desktop/GD32VW553/V1_MQTT_OK/GD32VW55X_Wifi_BLE_SDK/GD32VW55x_RELEASE_V1.0.2/MSDK/wifi_manager\wifi_eloop.c ****         return;
 1002              		.loc 1 218 8 is_stmt 0
 1003 00f8 E301F7F8 		beq	a4,a5,.L72
 221:C:/Users/stapi/OneDrive/Desktop/GD32VW553/V1_MQTT_OK/GD32VW55X_Wifi_BLE_SDK/GD32VW55x_RELEASE_V1.0.2/MSDK/wifi_manager\wifi_eloop.c ****         eloop.terminate = 1;
 1004              		.loc 1 221 5 is_stmt 1
 221:C:/Users/stapi/OneDrive/Desktop/GD32VW553/V1_MQTT_OK/GD32VW55X_Wifi_BLE_SDK/GD32VW55x_RELEASE_V1.0.2/MSDK/wifi_manager\wifi_eloop.c ****         eloop.terminate = 1;
 1005              		.loc 1 221 8 is_stmt 0
 1006 00fc 8946     		li	a3,2
 1007 00fe 6314D700 		bne	a4,a3,.L75
 222:C:/Users/stapi/OneDrive/Desktop/GD32VW553/V1_MQTT_OK/GD32VW55X_Wifi_BLE_SDK/GD32VW55x_RELEASE_V1.0.2/MSDK/wifi_manager\wifi_eloop.c ****         return;
 1008              		.loc 1 222 9 is_stmt 1
 222:C:/Users/stapi/OneDrive/Desktop/GD32VW553/V1_MQTT_OK/GD32VW55X_Wifi_BLE_SDK/GD32VW55x_RELEASE_V1.0.2/MSDK/wifi_manager\wifi_eloop.c ****         return;
 1009              		.loc 1 222 25 is_stmt 0
 1010 0102 9CC8     		sw	a5,16(s1)
 223:C:/Users/stapi/OneDrive/Desktop/GD32VW553/V1_MQTT_OK/GD32VW55X_Wifi_BLE_SDK/GD32VW55x_RELEASE_V1.0.2/MSDK/wifi_manager\wifi_eloop.c ****     }
 1011              		.loc 1 223 9 is_stmt 1
 1012 0104 9DBF     		j	.L72
 1013              	.L75:
 1014              	.LVL100:
 226:C:/Users/stapi/OneDrive/Desktop/GD32VW553/V1_MQTT_OK/GD32VW55X_Wifi_BLE_SDK/GD32VW55x_RELEASE_V1.0.2/MSDK/wifi_manager\wifi_eloop.c ****         if (eloop_predefined_events[j].event_id == ELOOP_EVENT_ALL ||
 1015              		.loc 1 226 17
 227:C:/Users/stapi/OneDrive/Desktop/GD32VW553/V1_MQTT_OK/GD32VW55X_Wifi_BLE_SDK/GD32VW55x_RELEASE_V1.0.2/MSDK/wifi_manager\wifi_eloop.c ****                 eloop_predefined_events[j].event_id == event_id) {
 1016              		.loc 1 227 9
 229:C:/Users/stapi/OneDrive/Desktop/GD32VW553/V1_MQTT_OK/GD32VW55X_Wifi_BLE_SDK/GD32VW55x_RELEASE_V1.0.2/MSDK/wifi_manager\wifi_eloop.c ****                         eloop_predefined_events[j].eloop_data,
 1017              		.loc 1 229 13
 1018 0106 4C10     		addi	a1,sp,36
 1019 0108 0145     		li	a0,0
 1020 010a 97000000 		call	wifi_mgmt_cb_run_state_machine
 1020      E7800000 
 1021              	.LVL101:
 226:C:/Users/stapi/OneDrive/Desktop/GD32VW553/V1_MQTT_OK/GD32VW55X_Wifi_BLE_SDK/GD32VW55x_RELEASE_V1.0.2/MSDK/wifi_manager\wifi_eloop.c ****         if (eloop_predefined_events[j].event_id == ELOOP_EVENT_ALL ||
 1022              		.loc 1 226 17
 1023              	.L76:
 235:C:/Users/stapi/OneDrive/Desktop/GD32VW553/V1_MQTT_OK/GD32VW55X_Wifi_BLE_SDK/GD32VW55x_RELEASE_V1.0.2/MSDK/wifi_manager\wifi_eloop.c ****         if (eloop.events[i].event_id == event_id) {
 1024              		.loc 1 235 17
 235:C:/Users/stapi/OneDrive/Desktop/GD32VW553/V1_MQTT_OK/GD32VW55X_Wifi_BLE_SDK/GD32VW55x_RELEASE_V1.0.2/MSDK/wifi_manager\wifi_eloop.c ****         if (eloop.events[i].event_id == event_id) {
 1025              		.loc 1 235 5 is_stmt 0
 1026 0112 9C40     		lw	a5,0(s1)
 1027 0114 E373F4F6 		bleu	a5,s0,.L72
 236:C:/Users/stapi/OneDrive/Desktop/GD32VW553/V1_MQTT_OK/GD32VW55X_Wifi_BLE_SDK/GD32VW55x_RELEASE_V1.0.2/MSDK/wifi_manager\wifi_eloop.c ****             eloop.events[i].handler(
 1028              		.loc 1 236 9 is_stmt 1
 236:C:/Users/stapi/OneDrive/Desktop/GD32VW553/V1_MQTT_OK/GD32VW55X_Wifi_BLE_SDK/GD32VW55x_RELEASE_V1.0.2/MSDK/wifi_manager\wifi_eloop.c ****             eloop.events[i].handler(
 1029              		.loc 1 236 25 is_stmt 0
 1030 0118 D840     		lw	a4,4(s1)
 1031 011a 93174400 		slli	a5,s0,4
 1032 011e BA97     		add	a5,a4,a5
 236:C:/Users/stapi/OneDrive/Desktop/GD32VW553/V1_MQTT_OK/GD32VW55X_Wifi_BLE_SDK/GD32VW55x_RELEASE_V1.0.2/MSDK/wifi_manager\wifi_eloop.c ****             eloop.events[i].handler(
 1033              		.loc 1 236 12
 1034 0120 03D7C700 		lhu	a4,12(a5)
 1035 0124 63165701 		bne	a4,s5,.L77
 237:C:/Users/stapi/OneDrive/Desktop/GD32VW553/V1_MQTT_OK/GD32VW55X_Wifi_BLE_SDK/GD32VW55x_RELEASE_V1.0.2/MSDK/wifi_manager\wifi_eloop.c ****                         eloop.events[i].eloop_data,
 1036              		.loc 1 237 13 is_stmt 1
 1037 0128 9847     		lw	a4,8(a5)
 1038 012a CC43     		lw	a1,4(a5)
 1039 012c 8843     		lw	a0,0(a5)
 1040 012e 0297     		jalr	a4
 1041              	.LVL102:
 1042              	.L77:
 235:C:/Users/stapi/OneDrive/Desktop/GD32VW553/V1_MQTT_OK/GD32VW55X_Wifi_BLE_SDK/GD32VW55x_RELEASE_V1.0.2/MSDK/wifi_manager\wifi_eloop.c ****         if (eloop.events[i].event_id == event_id) {
 1043              		.loc 1 235 40
 235:C:/Users/stapi/OneDrive/Desktop/GD32VW553/V1_MQTT_OK/GD32VW55X_Wifi_BLE_SDK/GD32VW55x_RELEASE_V1.0.2/MSDK/wifi_manager\wifi_eloop.c ****         if (eloop.events[i].event_id == event_id) {
 1044              		.loc 1 235 41 is_stmt 0
 1045 0130 0504     		addi	s0,s0,1
 1046              	.LVL103:
 1047 0132 C5B7     		j	.L76
 1048              	.LVL104:
 1049              	.L80:
 1050              	.LBE10:
 1051              	.LBE16:
 1052              	.LBB17:
 1053              	.LBB15:
 408:C:/Users/stapi/OneDrive/Desktop/GD32VW553/V1_MQTT_OK/GD32VW55X_Wifi_BLE_SDK/GD32VW55x_RELEASE_V1.0.2/MSDK/wifi_manager\wifi_eloop.c **** }
 1054              		.loc 1 408 5 is_stmt 1
 1055 0134 97000000 		call	sys_exit_critical
 1055      E7800000 
 1056              	.LVL105:
 1057 013c DDB5     		j	.L69
 1058              	.LBE15:
 1059              	.LBE17:
 1060              		.cfi_endproc
 1061              	.LFE27:
 1063              		.section	.text.wifi_eloop_terminate,"ax",@progbits
 1064              		.align	1
 1065              		.globl	wifi_eloop_terminate
 1067              	wifi_eloop_terminate:
 1068              	.LFB28:
 449:C:/Users/stapi/OneDrive/Desktop/GD32VW553/V1_MQTT_OK/GD32VW55X_Wifi_BLE_SDK/GD32VW55x_RELEASE_V1.0.2/MSDK/wifi_manager\wifi_eloop.c **** 
 450:C:/Users/stapi/OneDrive/Desktop/GD32VW553/V1_MQTT_OK/GD32VW55X_Wifi_BLE_SDK/GD32VW55x_RELEASE_V1.0.2/MSDK/wifi_manager\wifi_eloop.c **** /*!
 451:C:/Users/stapi/OneDrive/Desktop/GD32VW553/V1_MQTT_OK/GD32VW55X_Wifi_BLE_SDK/GD32VW55x_RELEASE_V1.0.2/MSDK/wifi_manager\wifi_eloop.c ****     \brief      terminate event loop
 452:C:/Users/stapi/OneDrive/Desktop/GD32VW553/V1_MQTT_OK/GD32VW55X_Wifi_BLE_SDK/GD32VW55x_RELEASE_V1.0.2/MSDK/wifi_manager\wifi_eloop.c ****     \param[in]  none
 453:C:/Users/stapi/OneDrive/Desktop/GD32VW553/V1_MQTT_OK/GD32VW55X_Wifi_BLE_SDK/GD32VW55x_RELEASE_V1.0.2/MSDK/wifi_manager\wifi_eloop.c ****     \param[out] none
 454:C:/Users/stapi/OneDrive/Desktop/GD32VW553/V1_MQTT_OK/GD32VW55X_Wifi_BLE_SDK/GD32VW55x_RELEASE_V1.0.2/MSDK/wifi_manager\wifi_eloop.c ****     \retval     none
 455:C:/Users/stapi/OneDrive/Desktop/GD32VW553/V1_MQTT_OK/GD32VW55X_Wifi_BLE_SDK/GD32VW55x_RELEASE_V1.0.2/MSDK/wifi_manager\wifi_eloop.c **** */
 456:C:/Users/stapi/OneDrive/Desktop/GD32VW553/V1_MQTT_OK/GD32VW55X_Wifi_BLE_SDK/GD32VW55x_RELEASE_V1.0.2/MSDK/wifi_manager\wifi_eloop.c **** void wifi_eloop_terminate(void)
 457:C:/Users/stapi/OneDrive/Desktop/GD32VW553/V1_MQTT_OK/GD32VW55X_Wifi_BLE_SDK/GD32VW55x_RELEASE_V1.0.2/MSDK/wifi_manager\wifi_eloop.c **** {
 1069              		.loc 1 457 1
 1070              		.cfi_startproc
 458:C:/Users/stapi/OneDrive/Desktop/GD32VW553/V1_MQTT_OK/GD32VW55X_Wifi_BLE_SDK/GD32VW55x_RELEASE_V1.0.2/MSDK/wifi_manager\wifi_eloop.c ****     eloop_event_send(0, ELOOP_EVENT_TERMINATE);
 1071              		.loc 1 458 5
 1072 0000 8945     		li	a1,2
 1073 0002 0145     		li	a0,0
 1074 0004 17030000 		tail	eloop_event_send
 1074      67000300 
 1075              	.LVL106:
 1076              		.cfi_endproc
 1077              	.LFE28:
 1079              		.section	.text.wifi_eloop_destroy,"ax",@progbits
 1080              		.align	1
 1081              		.globl	wifi_eloop_destroy
 1083              	wifi_eloop_destroy:
 1084              	.LFB29:
 459:C:/Users/stapi/OneDrive/Desktop/GD32VW553/V1_MQTT_OK/GD32VW55X_Wifi_BLE_SDK/GD32VW55x_RELEASE_V1.0.2/MSDK/wifi_manager\wifi_eloop.c **** }
 460:C:/Users/stapi/OneDrive/Desktop/GD32VW553/V1_MQTT_OK/GD32VW55X_Wifi_BLE_SDK/GD32VW55x_RELEASE_V1.0.2/MSDK/wifi_manager\wifi_eloop.c **** 
 461:C:/Users/stapi/OneDrive/Desktop/GD32VW553/V1_MQTT_OK/GD32VW55X_Wifi_BLE_SDK/GD32VW55x_RELEASE_V1.0.2/MSDK/wifi_manager\wifi_eloop.c **** /*!
 462:C:/Users/stapi/OneDrive/Desktop/GD32VW553/V1_MQTT_OK/GD32VW55X_Wifi_BLE_SDK/GD32VW55x_RELEASE_V1.0.2/MSDK/wifi_manager\wifi_eloop.c ****     \brief      free any resources allocated for the event loop
 463:C:/Users/stapi/OneDrive/Desktop/GD32VW553/V1_MQTT_OK/GD32VW55X_Wifi_BLE_SDK/GD32VW55x_RELEASE_V1.0.2/MSDK/wifi_manager\wifi_eloop.c ****     \param[in]  none
 464:C:/Users/stapi/OneDrive/Desktop/GD32VW553/V1_MQTT_OK/GD32VW55X_Wifi_BLE_SDK/GD32VW55x_RELEASE_V1.0.2/MSDK/wifi_manager\wifi_eloop.c ****     \param[out] none
 465:C:/Users/stapi/OneDrive/Desktop/GD32VW553/V1_MQTT_OK/GD32VW55X_Wifi_BLE_SDK/GD32VW55x_RELEASE_V1.0.2/MSDK/wifi_manager\wifi_eloop.c ****     \retval     none
 466:C:/Users/stapi/OneDrive/Desktop/GD32VW553/V1_MQTT_OK/GD32VW55X_Wifi_BLE_SDK/GD32VW55x_RELEASE_V1.0.2/MSDK/wifi_manager\wifi_eloop.c **** */
 467:C:/Users/stapi/OneDrive/Desktop/GD32VW553/V1_MQTT_OK/GD32VW55X_Wifi_BLE_SDK/GD32VW55x_RELEASE_V1.0.2/MSDK/wifi_manager\wifi_eloop.c **** void wifi_eloop_destroy(void)
 468:C:/Users/stapi/OneDrive/Desktop/GD32VW553/V1_MQTT_OK/GD32VW55X_Wifi_BLE_SDK/GD32VW55x_RELEASE_V1.0.2/MSDK/wifi_manager\wifi_eloop.c **** {
 1085              		.loc 1 468 1
 1086              		.cfi_startproc
 1087 0000 17030000 		call	t0,__riscv_save_3
 1087      E7020300 
 1088              		.cfi_offset 18, -16
 1089              		.cfi_offset 9, -12
 1090              		.cfi_offset 8, -8
 1091              		.cfi_offset 1, -4
 1092              		.cfi_def_cfa_offset 16
 469:C:/Users/stapi/OneDrive/Desktop/GD32VW553/V1_MQTT_OK/GD32VW55X_Wifi_BLE_SDK/GD32VW55x_RELEASE_V1.0.2/MSDK/wifi_manager\wifi_eloop.c ****     struct eloop_timeout *timeout, *prev;
 1093              		.loc 1 469 5
 470:C:/Users/stapi/OneDrive/Desktop/GD32VW553/V1_MQTT_OK/GD32VW55X_Wifi_BLE_SDK/GD32VW55x_RELEASE_V1.0.2/MSDK/wifi_manager\wifi_eloop.c ****     eloop_message_t message;
 1094              		.loc 1 470 5
 471:C:/Users/stapi/OneDrive/Desktop/GD32VW553/V1_MQTT_OK/GD32VW55X_Wifi_BLE_SDK/GD32VW55x_RELEASE_V1.0.2/MSDK/wifi_manager\wifi_eloop.c ****     uint32_t now __MAYBE_UNUSED;
 1095              		.loc 1 471 5
 472:C:/Users/stapi/OneDrive/Desktop/GD32VW553/V1_MQTT_OK/GD32VW55X_Wifi_BLE_SDK/GD32VW55x_RELEASE_V1.0.2/MSDK/wifi_manager\wifi_eloop.c **** 
 473:C:/Users/stapi/OneDrive/Desktop/GD32VW553/V1_MQTT_OK/GD32VW55X_Wifi_BLE_SDK/GD32VW55x_RELEASE_V1.0.2/MSDK/wifi_manager\wifi_eloop.c ****     SYS_SR_ALLOC();
 1096              		.loc 1 473 19
 474:C:/Users/stapi/OneDrive/Desktop/GD32VW553/V1_MQTT_OK/GD32VW55X_Wifi_BLE_SDK/GD32VW55x_RELEASE_V1.0.2/MSDK/wifi_manager\wifi_eloop.c **** 
 475:C:/Users/stapi/OneDrive/Desktop/GD32VW553/V1_MQTT_OK/GD32VW55X_Wifi_BLE_SDK/GD32VW55x_RELEASE_V1.0.2/MSDK/wifi_manager\wifi_eloop.c ****     /* terminated by eloop_terminate, all events have been rejected since then */
 476:C:/Users/stapi/OneDrive/Desktop/GD32VW553/V1_MQTT_OK/GD32VW55X_Wifi_BLE_SDK/GD32VW55x_RELEASE_V1.0.2/MSDK/wifi_manager\wifi_eloop.c ****     //sys_task_msg_flush(&wifi_mgmt_task_tcb);
 477:C:/Users/stapi/OneDrive/Desktop/GD32VW553/V1_MQTT_OK/GD32VW55X_Wifi_BLE_SDK/GD32VW55x_RELEASE_V1.0.2/MSDK/wifi_manager\wifi_eloop.c ****     while (sys_task_msg_num(wifi_mgmt_task_tcb, 0)) {
 1097              		.loc 1 477 5
 468:C:/Users/stapi/OneDrive/Desktop/GD32VW553/V1_MQTT_OK/GD32VW55X_Wifi_BLE_SDK/GD32VW55x_RELEASE_V1.0.2/MSDK/wifi_manager\wifi_eloop.c ****     struct eloop_timeout *timeout, *prev;
 1098              		.loc 1 468 1 is_stmt 0
 1099 0008 4111     		addi	sp,sp,-16
 1100              		.cfi_def_cfa_offset 32
 1101              		.loc 1 477 12
 1102 000a 37040000 		lui	s0,%hi(wifi_mgmt_task_tcb)
 1103              	.L96:
 1104              		.loc 1 477 11 is_stmt 1
 1105              		.loc 1 477 12 is_stmt 0
 1106 000e 03250400 		lw	a0,%lo(wifi_mgmt_task_tcb)(s0)
 1107 0012 8145     		li	a1,0
 1108 0014 97000000 		call	sys_task_msg_num
 1108      E7800000 
 1109              	.LVL107:
 1110              		.loc 1 477 11
 1111 001c 21E5     		bne	a0,zero,.L97
 478:C:/Users/stapi/OneDrive/Desktop/GD32VW553/V1_MQTT_OK/GD32VW55X_Wifi_BLE_SDK/GD32VW55x_RELEASE_V1.0.2/MSDK/wifi_manager\wifi_eloop.c ****         sys_task_wait(1, &message);
 479:C:/Users/stapi/OneDrive/Desktop/GD32VW553/V1_MQTT_OK/GD32VW55X_Wifi_BLE_SDK/GD32VW55x_RELEASE_V1.0.2/MSDK/wifi_manager\wifi_eloop.c ****         if (message.param) {
 480:C:/Users/stapi/OneDrive/Desktop/GD32VW553/V1_MQTT_OK/GD32VW55X_Wifi_BLE_SDK/GD32VW55x_RELEASE_V1.0.2/MSDK/wifi_manager\wifi_eloop.c ****             sys_mfree(message.param);
 481:C:/Users/stapi/OneDrive/Desktop/GD32VW553/V1_MQTT_OK/GD32VW55X_Wifi_BLE_SDK/GD32VW55x_RELEASE_V1.0.2/MSDK/wifi_manager\wifi_eloop.c ****         }
 482:C:/Users/stapi/OneDrive/Desktop/GD32VW553/V1_MQTT_OK/GD32VW55X_Wifi_BLE_SDK/GD32VW55x_RELEASE_V1.0.2/MSDK/wifi_manager\wifi_eloop.c ****     }
 483:C:/Users/stapi/OneDrive/Desktop/GD32VW553/V1_MQTT_OK/GD32VW55X_Wifi_BLE_SDK/GD32VW55x_RELEASE_V1.0.2/MSDK/wifi_manager\wifi_eloop.c **** 
 484:C:/Users/stapi/OneDrive/Desktop/GD32VW553/V1_MQTT_OK/GD32VW55X_Wifi_BLE_SDK/GD32VW55x_RELEASE_V1.0.2/MSDK/wifi_manager\wifi_eloop.c ****     now = sys_current_time_get();
 1112              		.loc 1 484 5 is_stmt 1
 1113              		.loc 1 484 11 is_stmt 0
 1114 001e 97000000 		call	sys_current_time_get
 1114      E7800000 
 1115              	.LVL108:
 485:C:/Users/stapi/OneDrive/Desktop/GD32VW553/V1_MQTT_OK/GD32VW55X_Wifi_BLE_SDK/GD32VW55x_RELEASE_V1.0.2/MSDK/wifi_manager\wifi_eloop.c ****     sys_enter_critical();
 1116              		.loc 1 485 5 is_stmt 1
 1117 0026 97000000 		call	sys_enter_critical
 1117      E7800000 
 1118              	.LVL109:
 486:C:/Users/stapi/OneDrive/Desktop/GD32VW553/V1_MQTT_OK/GD32VW55X_Wifi_BLE_SDK/GD32VW55x_RELEASE_V1.0.2/MSDK/wifi_manager\wifi_eloop.c ****     list_for_each_entry_safe(timeout, prev, &eloop.timeout,
 1119              		.loc 1 486 5
 1120 002e 37040000 		lui	s0,%hi(.LANCHOR0)
 1121 0032 93070400 		addi	a5,s0,%lo(.LANCHOR0)
 1122 0036 8847     		lw	a0,8(a5)
 1123              	.LVL110:
 1124 0038 13040400 		addi	s0,s0,%lo(.LANCHOR0)
 1125 003c 13098400 		addi	s2,s0,8
 1126 0040 0441     		lw	s1,0(a0)
 1127              	.LVL111:
 1128              	.L98:
 1129              		.loc 1 486 5 discriminator 2
 1130 0042 631E2503 		bne	a0,s2,.L99
 487:C:/Users/stapi/OneDrive/Desktop/GD32VW553/V1_MQTT_OK/GD32VW55X_Wifi_BLE_SDK/GD32VW55x_RELEASE_V1.0.2/MSDK/wifi_manager\wifi_eloop.c ****                 struct eloop_timeout, list) {
 488:C:/Users/stapi/OneDrive/Desktop/GD32VW553/V1_MQTT_OK/GD32VW55X_Wifi_BLE_SDK/GD32VW55x_RELEASE_V1.0.2/MSDK/wifi_manager\wifi_eloop.c ****         wifi_sm_printf(WIFI_SM_INFO, "ELOOP: remaining timeout: %u "
 489:C:/Users/stapi/OneDrive/Desktop/GD32VW553/V1_MQTT_OK/GD32VW55X_Wifi_BLE_SDK/GD32VW55x_RELEASE_V1.0.2/MSDK/wifi_manager\wifi_eloop.c ****                "eloop_data=%p user_data=%p handler=%p",
 490:C:/Users/stapi/OneDrive/Desktop/GD32VW553/V1_MQTT_OK/GD32VW55X_Wifi_BLE_SDK/GD32VW55x_RELEASE_V1.0.2/MSDK/wifi_manager\wifi_eloop.c ****                timeout->time - now, timeout->eloop_data, timeout->user_data,
 491:C:/Users/stapi/OneDrive/Desktop/GD32VW553/V1_MQTT_OK/GD32VW55X_Wifi_BLE_SDK/GD32VW55x_RELEASE_V1.0.2/MSDK/wifi_manager\wifi_eloop.c ****                timeout->handler);
 492:C:/Users/stapi/OneDrive/Desktop/GD32VW553/V1_MQTT_OK/GD32VW55X_Wifi_BLE_SDK/GD32VW55x_RELEASE_V1.0.2/MSDK/wifi_manager\wifi_eloop.c ****         eloop_timeout_remove(timeout);
 493:C:/Users/stapi/OneDrive/Desktop/GD32VW553/V1_MQTT_OK/GD32VW55X_Wifi_BLE_SDK/GD32VW55x_RELEASE_V1.0.2/MSDK/wifi_manager\wifi_eloop.c ****     }
 494:C:/Users/stapi/OneDrive/Desktop/GD32VW553/V1_MQTT_OK/GD32VW55X_Wifi_BLE_SDK/GD32VW55x_RELEASE_V1.0.2/MSDK/wifi_manager\wifi_eloop.c ****     sys_exit_critical();
 1131              		.loc 1 494 5
 1132 0046 97000000 		call	sys_exit_critical
 1132      E7800000 
 1133              	.LVL112:
 495:C:/Users/stapi/OneDrive/Desktop/GD32VW553/V1_MQTT_OK/GD32VW55X_Wifi_BLE_SDK/GD32VW55x_RELEASE_V1.0.2/MSDK/wifi_manager\wifi_eloop.c **** 
 496:C:/Users/stapi/OneDrive/Desktop/GD32VW553/V1_MQTT_OK/GD32VW55X_Wifi_BLE_SDK/GD32VW55x_RELEASE_V1.0.2/MSDK/wifi_manager\wifi_eloop.c ****     if (eloop.events)
 1134              		.loc 1 496 5
 1135              		.loc 1 496 14 is_stmt 0
 1136 004e 4840     		lw	a0,4(s0)
 1137              		.loc 1 496 8
 1138 0050 09C5     		beq	a0,zero,.L94
 497:C:/Users/stapi/OneDrive/Desktop/GD32VW553/V1_MQTT_OK/GD32VW55X_Wifi_BLE_SDK/GD32VW55x_RELEASE_V1.0.2/MSDK/wifi_manager\wifi_eloop.c ****         sys_mfree(eloop.events);
 1139              		.loc 1 497 9 is_stmt 1
 1140 0052 97000000 		call	sys_mfree
 1140      E7800000 
 1141              	.LVL113:
 1142              	.L94:
 498:C:/Users/stapi/OneDrive/Desktop/GD32VW553/V1_MQTT_OK/GD32VW55X_Wifi_BLE_SDK/GD32VW55x_RELEASE_V1.0.2/MSDK/wifi_manager\wifi_eloop.c **** }
 1143              		.loc 1 498 1 is_stmt 0
 1144 005a 4101     		addi	sp,sp,16
 1145              		.cfi_remember_state
 1146              		.cfi_def_cfa_offset 0
 1147 005c 17030000 		tail	__riscv_restore_3
 1147      67000300 
 1148              		.cfi_restore 18
 1149              		.cfi_restore 9
 1150              		.cfi_restore 8
 1151              		.cfi_restore 1
 1152              		.cfi_def_cfa_offset -16
 1153              	.LVL114:
 1154              	.L97:
 1155              		.cfi_restore_state
 478:C:/Users/stapi/OneDrive/Desktop/GD32VW553/V1_MQTT_OK/GD32VW55X_Wifi_BLE_SDK/GD32VW55x_RELEASE_V1.0.2/MSDK/wifi_manager\wifi_eloop.c ****         if (message.param) {
 1156              		.loc 1 478 9 is_stmt 1
 1157 0064 4C00     		addi	a1,sp,4
 1158 0066 0545     		li	a0,1
 1159 0068 97000000 		call	sys_task_wait
 1159      E7800000 
 1160              	.LVL115:
 479:C:/Users/stapi/OneDrive/Desktop/GD32VW553/V1_MQTT_OK/GD32VW55X_Wifi_BLE_SDK/GD32VW55x_RELEASE_V1.0.2/MSDK/wifi_manager\wifi_eloop.c ****             sys_mfree(message.param);
 1161              		.loc 1 479 9
 479:C:/Users/stapi/OneDrive/Desktop/GD32VW553/V1_MQTT_OK/GD32VW55X_Wifi_BLE_SDK/GD32VW55x_RELEASE_V1.0.2/MSDK/wifi_manager\wifi_eloop.c ****             sys_mfree(message.param);
 1162              		.loc 1 479 20 is_stmt 0
 1163 0070 2245     		lw	a0,8(sp)
 479:C:/Users/stapi/OneDrive/Desktop/GD32VW553/V1_MQTT_OK/GD32VW55X_Wifi_BLE_SDK/GD32VW55x_RELEASE_V1.0.2/MSDK/wifi_manager\wifi_eloop.c ****             sys_mfree(message.param);
 1164              		.loc 1 479 12
 1165 0072 51DD     		beq	a0,zero,.L96
 480:C:/Users/stapi/OneDrive/Desktop/GD32VW553/V1_MQTT_OK/GD32VW55X_Wifi_BLE_SDK/GD32VW55x_RELEASE_V1.0.2/MSDK/wifi_manager\wifi_eloop.c ****         }
 1166              		.loc 1 480 13 is_stmt 1
 1167 0074 97000000 		call	sys_mfree
 1167      E7800000 
 1168              	.LVL116:
 1169 007c 49BF     		j	.L96
 1170              	.LVL117:
 1171              	.L99:
 488:C:/Users/stapi/OneDrive/Desktop/GD32VW553/V1_MQTT_OK/GD32VW55X_Wifi_BLE_SDK/GD32VW55x_RELEASE_V1.0.2/MSDK/wifi_manager\wifi_eloop.c ****                "eloop_data=%p user_data=%p handler=%p",
 1172              		.loc 1 488 9 discriminator 5
 488:C:/Users/stapi/OneDrive/Desktop/GD32VW553/V1_MQTT_OK/GD32VW55X_Wifi_BLE_SDK/GD32VW55x_RELEASE_V1.0.2/MSDK/wifi_manager\wifi_eloop.c ****                "eloop_data=%p user_data=%p handler=%p",
 1173              		.loc 1 488 9 discriminator 5
 488:C:/Users/stapi/OneDrive/Desktop/GD32VW553/V1_MQTT_OK/GD32VW55X_Wifi_BLE_SDK/GD32VW55x_RELEASE_V1.0.2/MSDK/wifi_manager\wifi_eloop.c ****                "eloop_data=%p user_data=%p handler=%p",
 1174              		.loc 1 488 9 discriminator 5
 488:C:/Users/stapi/OneDrive/Desktop/GD32VW553/V1_MQTT_OK/GD32VW55X_Wifi_BLE_SDK/GD32VW55x_RELEASE_V1.0.2/MSDK/wifi_manager\wifi_eloop.c ****                "eloop_data=%p user_data=%p handler=%p",
 1175              		.loc 1 488 9 discriminator 5
 492:C:/Users/stapi/OneDrive/Desktop/GD32VW553/V1_MQTT_OK/GD32VW55X_Wifi_BLE_SDK/GD32VW55x_RELEASE_V1.0.2/MSDK/wifi_manager\wifi_eloop.c ****     }
 1176              		.loc 1 492 9 discriminator 5
 1177 007e 97000000 		call	eloop_timeout_remove
 1177      E7800000 
 1178              	.LVL118:
 486:C:/Users/stapi/OneDrive/Desktop/GD32VW553/V1_MQTT_OK/GD32VW55X_Wifi_BLE_SDK/GD32VW55x_RELEASE_V1.0.2/MSDK/wifi_manager\wifi_eloop.c ****                 struct eloop_timeout, list) {
 1179              		.loc 1 486 5 discriminator 5
 1180 0086 2685     		mv	a0,s1
 1181 0088 8440     		lw	s1,0(s1)
 1182              	.LVL119:
 1183 008a 65BF     		j	.L98
 1184              		.cfi_endproc
 1185              	.LFE29:
 1187              		.section	.text.wifi_eloop_terminated,"ax",@progbits
 1188              		.align	1
 1189              		.globl	wifi_eloop_terminated
 1191              	wifi_eloop_terminated:
 1192              	.LFB30:
 499:C:/Users/stapi/OneDrive/Desktop/GD32VW553/V1_MQTT_OK/GD32VW55X_Wifi_BLE_SDK/GD32VW55x_RELEASE_V1.0.2/MSDK/wifi_manager\wifi_eloop.c **** 
 500:C:/Users/stapi/OneDrive/Desktop/GD32VW553/V1_MQTT_OK/GD32VW55X_Wifi_BLE_SDK/GD32VW55x_RELEASE_V1.0.2/MSDK/wifi_manager\wifi_eloop.c **** /*!
 501:C:/Users/stapi/OneDrive/Desktop/GD32VW553/V1_MQTT_OK/GD32VW55X_Wifi_BLE_SDK/GD32VW55x_RELEASE_V1.0.2/MSDK/wifi_manager\wifi_eloop.c ****     \brief      check whether event loop has been terminated
 502:C:/Users/stapi/OneDrive/Desktop/GD32VW553/V1_MQTT_OK/GD32VW55X_Wifi_BLE_SDK/GD32VW55x_RELEASE_V1.0.2/MSDK/wifi_manager\wifi_eloop.c ****     \param[in]  none
 503:C:/Users/stapi/OneDrive/Desktop/GD32VW553/V1_MQTT_OK/GD32VW55X_Wifi_BLE_SDK/GD32VW55x_RELEASE_V1.0.2/MSDK/wifi_manager\wifi_eloop.c ****     \param[out] none
 504:C:/Users/stapi/OneDrive/Desktop/GD32VW553/V1_MQTT_OK/GD32VW55X_Wifi_BLE_SDK/GD32VW55x_RELEASE_V1.0.2/MSDK/wifi_manager\wifi_eloop.c ****     \retval     1: event loop terminate, 0: event loop still running
 505:C:/Users/stapi/OneDrive/Desktop/GD32VW553/V1_MQTT_OK/GD32VW55X_Wifi_BLE_SDK/GD32VW55x_RELEASE_V1.0.2/MSDK/wifi_manager\wifi_eloop.c **** */
 506:C:/Users/stapi/OneDrive/Desktop/GD32VW553/V1_MQTT_OK/GD32VW55X_Wifi_BLE_SDK/GD32VW55x_RELEASE_V1.0.2/MSDK/wifi_manager\wifi_eloop.c **** int wifi_eloop_terminated(void)
 507:C:/Users/stapi/OneDrive/Desktop/GD32VW553/V1_MQTT_OK/GD32VW55X_Wifi_BLE_SDK/GD32VW55x_RELEASE_V1.0.2/MSDK/wifi_manager\wifi_eloop.c **** {
 1193              		.loc 1 507 1
 1194              		.cfi_startproc
 508:C:/Users/stapi/OneDrive/Desktop/GD32VW553/V1_MQTT_OK/GD32VW55X_Wifi_BLE_SDK/GD32VW55x_RELEASE_V1.0.2/MSDK/wifi_manager\wifi_eloop.c ****     return eloop.terminate;
 1195              		.loc 1 508 5
 509:C:/Users/stapi/OneDrive/Desktop/GD32VW553/V1_MQTT_OK/GD32VW55X_Wifi_BLE_SDK/GD32VW55x_RELEASE_V1.0.2/MSDK/wifi_manager\wifi_eloop.c **** }
 1196              		.loc 1 509 1 is_stmt 0
 1197 0000 B7070000 		lui	a5,%hi(.LANCHOR0+16)
 1198 0004 03A50701 		lw	a0,%lo(.LANCHOR0+16)(a5)
 1199 0008 8280     		ret
 1200              		.cfi_endproc
 1201              	.LFE30:
 1203              		.section	.bss.eloop,"aw",@nobits
 1204              		.align	2
 1205              		.set	.LANCHOR0,. + 0
 1208              	eloop:
 1209 0000 00000000 		.zero	20
 1209      00000000 
 1209      00000000 
 1209      00000000 
 1209      00000000 
 1210              		.text
 1211              	.Letext0:
 1212              		.file 2 "c:\\users\\stapi\\onedrive\\desktop\\gd32vw553\\embeddedbuilder_v1.4.7.26843\\tools\\nucl
 1213              		.file 3 "c:\\users\\stapi\\onedrive\\desktop\\gd32vw553\\embeddedbuilder_v1.4.7.26843\\tools\\nucl
 1214              		.file 4 "c:\\users\\stapi\\onedrive\\desktop\\gd32vw553\\embeddedbuilder_v1.4.7.26843\\tools\\nucl
 1215              		.file 5 "..\\..\\..\\..\\util\\include/dlist.h"
 1216              		.file 6 "C:/Users/stapi/OneDrive/Desktop/GD32VW553/V1_MQTT_OK/GD32VW55X_Wifi_BLE_SDK/GD32VW55x_REL
 1217              		.file 7 "..\\..\\..\\..\\lwip\\lwip-2.1.2\\src\\include/lwip/memp.h"
 1218              		.file 8 "..\\..\\..\\..\\util\\include/dbg_print.h"
 1219              		.file 9 "..\\..\\..\\..\\macsw\\import/rtos_import.h"
 1220              		.file 10 "..\\..\\..\\..\\rtos\\rtos_wrapper/wrapper_os.h"
 1221              		.file 11 "C:/Users/stapi/OneDrive/Desktop/GD32VW553/V1_MQTT_OK/GD32VW55X_Wifi_BLE_SDK/GD32VW55x_RE
 1222              		.file 12 "c:\\users\\stapi\\onedrive\\desktop\\gd32vw553\\embeddedbuilder_v1.4.7.26843\\tools\\nuc
 1223              		.file 13 "..\\..\\..\\..\\lwip\\lwip-2.1.2\\src\\include/lwip/netif.h"
 1224              		.file 14 "<built-in>"