   1              		.file	"ap_config.c"
   2              		.option nopic
   3              		.attribute arch, "rv32i2p0_m2p0_a2p0_f2p0_c2p0_b_p0p94"
   4              		.attribute unaligned_access, 0
   5              		.attribute stack_align, 16
   6              		.text
   7              	.Ltext0:
   8              		.cfi_sections	.debug_frame
   9              		.section	.text.is_zero_ether_addr,"ax",@progbits
  10              		.align	1
  12              	is_zero_ether_addr:
  13              	.LFB42:
  14              		.file 1 "..\\..\\..\\..\\wpa_supplicant\\src/utils/common.h"
   1:..\..\..\..\wpa_supplicant\src/utils/common.h **** /*
   2:..\..\..\..\wpa_supplicant\src/utils/common.h ****  * wpa_supplicant/hostapd / common helper functions, etc.
   3:..\..\..\..\wpa_supplicant\src/utils/common.h ****  * Copyright (c) 2002-2007, Jouni Malinen <j@w1.fi>
   4:..\..\..\..\wpa_supplicant\src/utils/common.h ****  *
   5:..\..\..\..\wpa_supplicant\src/utils/common.h ****  * This software may be distributed under the terms of the BSD license.
   6:..\..\..\..\wpa_supplicant\src/utils/common.h ****  * See README for more details.
   7:..\..\..\..\wpa_supplicant\src/utils/common.h ****  */
   8:..\..\..\..\wpa_supplicant\src/utils/common.h **** 
   9:..\..\..\..\wpa_supplicant\src/utils/common.h **** #ifndef COMMON_H
  10:..\..\..\..\wpa_supplicant\src/utils/common.h **** #define COMMON_H
  11:..\..\..\..\wpa_supplicant\src/utils/common.h **** 
  12:..\..\..\..\wpa_supplicant\src/utils/common.h **** #include "os.h"
  13:..\..\..\..\wpa_supplicant\src/utils/common.h **** 
  14:..\..\..\..\wpa_supplicant\src/utils/common.h **** #if defined(__linux__) || defined(__GLIBC__)
  15:..\..\..\..\wpa_supplicant\src/utils/common.h **** #include <endian.h>
  16:..\..\..\..\wpa_supplicant\src/utils/common.h **** #include <byteswap.h>
  17:..\..\..\..\wpa_supplicant\src/utils/common.h **** #endif /* __linux__ */
  18:..\..\..\..\wpa_supplicant\src/utils/common.h **** 
  19:..\..\..\..\wpa_supplicant\src/utils/common.h **** #if defined(__FreeBSD__) || defined(__NetBSD__) || defined(__DragonFly__) || \
  20:..\..\..\..\wpa_supplicant\src/utils/common.h ****     defined(__OpenBSD__)
  21:..\..\..\..\wpa_supplicant\src/utils/common.h **** #include <sys/types.h>
  22:..\..\..\..\wpa_supplicant\src/utils/common.h **** #include <sys/endian.h>
  23:..\..\..\..\wpa_supplicant\src/utils/common.h **** #define __BYTE_ORDER	_BYTE_ORDER
  24:..\..\..\..\wpa_supplicant\src/utils/common.h **** #define	__LITTLE_ENDIAN	_LITTLE_ENDIAN
  25:..\..\..\..\wpa_supplicant\src/utils/common.h **** #define	__BIG_ENDIAN	_BIG_ENDIAN
  26:..\..\..\..\wpa_supplicant\src/utils/common.h **** #ifdef __OpenBSD__
  27:..\..\..\..\wpa_supplicant\src/utils/common.h **** #define bswap_16 swap16
  28:..\..\..\..\wpa_supplicant\src/utils/common.h **** #define bswap_32 swap32
  29:..\..\..\..\wpa_supplicant\src/utils/common.h **** #define bswap_64 swap64
  30:..\..\..\..\wpa_supplicant\src/utils/common.h **** #else /* __OpenBSD__ */
  31:..\..\..\..\wpa_supplicant\src/utils/common.h **** #define bswap_16 bswap16
  32:..\..\..\..\wpa_supplicant\src/utils/common.h **** #define bswap_32 bswap32
  33:..\..\..\..\wpa_supplicant\src/utils/common.h **** #define bswap_64 bswap64
  34:..\..\..\..\wpa_supplicant\src/utils/common.h **** #endif /* __OpenBSD__ */
  35:..\..\..\..\wpa_supplicant\src/utils/common.h **** #endif /* defined(__FreeBSD__) || defined(__NetBSD__) ||
  36:..\..\..\..\wpa_supplicant\src/utils/common.h **** 	* defined(__DragonFly__) || defined(__OpenBSD__) */
  37:..\..\..\..\wpa_supplicant\src/utils/common.h **** 
  38:..\..\..\..\wpa_supplicant\src/utils/common.h **** #ifdef __APPLE__
  39:..\..\..\..\wpa_supplicant\src/utils/common.h **** #include <sys/types.h>
  40:..\..\..\..\wpa_supplicant\src/utils/common.h **** #include <machine/endian.h>
  41:..\..\..\..\wpa_supplicant\src/utils/common.h **** #define __BYTE_ORDER	_BYTE_ORDER
  42:..\..\..\..\wpa_supplicant\src/utils/common.h **** #define __LITTLE_ENDIAN	_LITTLE_ENDIAN
  43:..\..\..\..\wpa_supplicant\src/utils/common.h **** #define __BIG_ENDIAN	_BIG_ENDIAN
  44:..\..\..\..\wpa_supplicant\src/utils/common.h **** static inline unsigned short bswap_16(unsigned short v)
  45:..\..\..\..\wpa_supplicant\src/utils/common.h **** {
  46:..\..\..\..\wpa_supplicant\src/utils/common.h **** 	return ((v & 0xff) << 8) | (v >> 8);
  47:..\..\..\..\wpa_supplicant\src/utils/common.h **** }
  48:..\..\..\..\wpa_supplicant\src/utils/common.h **** 
  49:..\..\..\..\wpa_supplicant\src/utils/common.h **** static inline unsigned int bswap_32(unsigned int v)
  50:..\..\..\..\wpa_supplicant\src/utils/common.h **** {
  51:..\..\..\..\wpa_supplicant\src/utils/common.h **** 	return ((v & 0xff) << 24) | ((v & 0xff00) << 8) |
  52:..\..\..\..\wpa_supplicant\src/utils/common.h **** 		((v & 0xff0000) >> 8) | (v >> 24);
  53:..\..\..\..\wpa_supplicant\src/utils/common.h **** }
  54:..\..\..\..\wpa_supplicant\src/utils/common.h **** #endif /* __APPLE__ */
  55:..\..\..\..\wpa_supplicant\src/utils/common.h **** 
  56:..\..\..\..\wpa_supplicant\src/utils/common.h **** #ifdef CONFIG_GDWIFI
  57:..\..\..\..\wpa_supplicant\src/utils/common.h **** // #include <sys/types.h>
  58:..\..\..\..\wpa_supplicant\src/utils/common.h **** // #include <machine/endian.h>
  59:..\..\..\..\wpa_supplicant\src/utils/common.h **** #define __BYTE_ORDER	BYTE_ORDER
  60:..\..\..\..\wpa_supplicant\src/utils/common.h **** #define __LITTLE_ENDIAN	LITTLE_ENDIAN
  61:..\..\..\..\wpa_supplicant\src/utils/common.h **** #define __BIG_ENDIAN	BIG_ENDIAN
  62:..\..\..\..\wpa_supplicant\src/utils/common.h **** #define ETHER_ADDR_LEN	6
  63:..\..\..\..\wpa_supplicant\src/utils/common.h **** #define ETH_P_802_3	0x0001		/* Dummy type for 802.3 frames  */
  64:..\..\..\..\wpa_supplicant\src/utils/common.h **** 
  65:..\..\..\..\wpa_supplicant\src/utils/common.h **** static inline unsigned short bswap_16(unsigned short v)
  66:..\..\..\..\wpa_supplicant\src/utils/common.h **** {
  67:..\..\..\..\wpa_supplicant\src/utils/common.h **** 	return ((v & 0xff) << 8) | (v >> 8);
  68:..\..\..\..\wpa_supplicant\src/utils/common.h **** }
  69:..\..\..\..\wpa_supplicant\src/utils/common.h **** 
  70:..\..\..\..\wpa_supplicant\src/utils/common.h **** static inline unsigned int bswap_32(unsigned int v)
  71:..\..\..\..\wpa_supplicant\src/utils/common.h **** {
  72:..\..\..\..\wpa_supplicant\src/utils/common.h **** 	return ((v & 0xff) << 24) | ((v & 0xff00) << 8) |
  73:..\..\..\..\wpa_supplicant\src/utils/common.h **** 		((v & 0xff0000) >> 8) | (v >> 24);
  74:..\..\..\..\wpa_supplicant\src/utils/common.h **** }
  75:..\..\..\..\wpa_supplicant\src/utils/common.h **** 
  76:..\..\..\..\wpa_supplicant\src/utils/common.h **** struct ether_header
  77:..\..\..\..\wpa_supplicant\src/utils/common.h **** {
  78:..\..\..\..\wpa_supplicant\src/utils/common.h **** 	uint8_t  ether_dhost[ETHER_ADDR_LEN];
  79:..\..\..\..\wpa_supplicant\src/utils/common.h **** 	uint8_t  ether_shost[ETHER_ADDR_LEN];
  80:..\..\..\..\wpa_supplicant\src/utils/common.h **** 	uint16_t ether_type;
  81:..\..\..\..\wpa_supplicant\src/utils/common.h **** } __PACKED;
  82:..\..\..\..\wpa_supplicant\src/utils/common.h **** #endif /* CONFIG_GDWIFI */
  83:..\..\..\..\wpa_supplicant\src/utils/common.h **** #ifdef __rtems__
  84:..\..\..\..\wpa_supplicant\src/utils/common.h **** #include <rtems/endian.h>
  85:..\..\..\..\wpa_supplicant\src/utils/common.h **** #define __BYTE_ORDER BYTE_ORDER
  86:..\..\..\..\wpa_supplicant\src/utils/common.h **** #define __LITTLE_ENDIAN LITTLE_ENDIAN
  87:..\..\..\..\wpa_supplicant\src/utils/common.h **** #define __BIG_ENDIAN BIG_ENDIAN
  88:..\..\..\..\wpa_supplicant\src/utils/common.h **** #define bswap_16 CPU_swap_u16
  89:..\..\..\..\wpa_supplicant\src/utils/common.h **** #define bswap_32 CPU_swap_u32
  90:..\..\..\..\wpa_supplicant\src/utils/common.h **** #endif /* __rtems__ */
  91:..\..\..\..\wpa_supplicant\src/utils/common.h **** 
  92:..\..\..\..\wpa_supplicant\src/utils/common.h **** #ifdef CONFIG_NATIVE_WINDOWS
  93:..\..\..\..\wpa_supplicant\src/utils/common.h **** #include <winsock.h>
  94:..\..\..\..\wpa_supplicant\src/utils/common.h **** 
  95:..\..\..\..\wpa_supplicant\src/utils/common.h **** typedef int socklen_t;
  96:..\..\..\..\wpa_supplicant\src/utils/common.h **** 
  97:..\..\..\..\wpa_supplicant\src/utils/common.h **** #ifndef MSG_DONTWAIT
  98:..\..\..\..\wpa_supplicant\src/utils/common.h **** #define MSG_DONTWAIT 0 /* not supported */
  99:..\..\..\..\wpa_supplicant\src/utils/common.h **** #endif
 100:..\..\..\..\wpa_supplicant\src/utils/common.h **** 
 101:..\..\..\..\wpa_supplicant\src/utils/common.h **** #endif /* CONFIG_NATIVE_WINDOWS */
 102:..\..\..\..\wpa_supplicant\src/utils/common.h **** 
 103:..\..\..\..\wpa_supplicant\src/utils/common.h **** #ifdef _MSC_VER
 104:..\..\..\..\wpa_supplicant\src/utils/common.h **** #define inline __inline
 105:..\..\..\..\wpa_supplicant\src/utils/common.h **** 
 106:..\..\..\..\wpa_supplicant\src/utils/common.h **** #undef vsnprintf
 107:..\..\..\..\wpa_supplicant\src/utils/common.h **** #define vsnprintf _vsnprintf
 108:..\..\..\..\wpa_supplicant\src/utils/common.h **** #undef close
 109:..\..\..\..\wpa_supplicant\src/utils/common.h **** #define close closesocket
 110:..\..\..\..\wpa_supplicant\src/utils/common.h **** #endif /* _MSC_VER */
 111:..\..\..\..\wpa_supplicant\src/utils/common.h **** 
 112:..\..\..\..\wpa_supplicant\src/utils/common.h **** 
 113:..\..\..\..\wpa_supplicant\src/utils/common.h **** /* Define platform specific integer types */
 114:..\..\..\..\wpa_supplicant\src/utils/common.h **** 
 115:..\..\..\..\wpa_supplicant\src/utils/common.h **** #ifdef _MSC_VER
 116:..\..\..\..\wpa_supplicant\src/utils/common.h **** typedef UINT64 u64;
 117:..\..\..\..\wpa_supplicant\src/utils/common.h **** typedef UINT32 u32;
 118:..\..\..\..\wpa_supplicant\src/utils/common.h **** typedef UINT16 u16;
 119:..\..\..\..\wpa_supplicant\src/utils/common.h **** typedef UINT8 u8;
 120:..\..\..\..\wpa_supplicant\src/utils/common.h **** typedef INT64 s64;
 121:..\..\..\..\wpa_supplicant\src/utils/common.h **** typedef INT32 s32;
 122:..\..\..\..\wpa_supplicant\src/utils/common.h **** typedef INT16 s16;
 123:..\..\..\..\wpa_supplicant\src/utils/common.h **** typedef INT8 s8;
 124:..\..\..\..\wpa_supplicant\src/utils/common.h **** #define WPA_TYPES_DEFINED
 125:..\..\..\..\wpa_supplicant\src/utils/common.h **** #endif /* _MSC_VER */
 126:..\..\..\..\wpa_supplicant\src/utils/common.h **** 
 127:..\..\..\..\wpa_supplicant\src/utils/common.h **** #ifdef __vxworks
 128:..\..\..\..\wpa_supplicant\src/utils/common.h **** typedef unsigned long long u64;
 129:..\..\..\..\wpa_supplicant\src/utils/common.h **** typedef UINT32 u32;
 130:..\..\..\..\wpa_supplicant\src/utils/common.h **** typedef UINT16 u16;
 131:..\..\..\..\wpa_supplicant\src/utils/common.h **** typedef UINT8 u8;
 132:..\..\..\..\wpa_supplicant\src/utils/common.h **** typedef long long s64;
 133:..\..\..\..\wpa_supplicant\src/utils/common.h **** typedef INT32 s32;
 134:..\..\..\..\wpa_supplicant\src/utils/common.h **** typedef INT16 s16;
 135:..\..\..\..\wpa_supplicant\src/utils/common.h **** typedef INT8 s8;
 136:..\..\..\..\wpa_supplicant\src/utils/common.h **** #define WPA_TYPES_DEFINED
 137:..\..\..\..\wpa_supplicant\src/utils/common.h **** #endif /* __vxworks */
 138:..\..\..\..\wpa_supplicant\src/utils/common.h **** 
 139:..\..\..\..\wpa_supplicant\src/utils/common.h **** #ifndef WPA_TYPES_DEFINED
 140:..\..\..\..\wpa_supplicant\src/utils/common.h **** #ifdef CONFIG_USE_INTTYPES_H
 141:..\..\..\..\wpa_supplicant\src/utils/common.h **** #include <inttypes.h>
 142:..\..\..\..\wpa_supplicant\src/utils/common.h **** #else
 143:..\..\..\..\wpa_supplicant\src/utils/common.h **** #include <stdint.h>
 144:..\..\..\..\wpa_supplicant\src/utils/common.h **** #endif
 145:..\..\..\..\wpa_supplicant\src/utils/common.h **** typedef uint64_t u64;
 146:..\..\..\..\wpa_supplicant\src/utils/common.h **** typedef uint32_t u32;
 147:..\..\..\..\wpa_supplicant\src/utils/common.h **** typedef uint16_t u16;
 148:..\..\..\..\wpa_supplicant\src/utils/common.h **** typedef uint8_t u8;
 149:..\..\..\..\wpa_supplicant\src/utils/common.h **** typedef int64_t s64;
 150:..\..\..\..\wpa_supplicant\src/utils/common.h **** typedef int32_t s32;
 151:..\..\..\..\wpa_supplicant\src/utils/common.h **** typedef int16_t s16;
 152:..\..\..\..\wpa_supplicant\src/utils/common.h **** typedef int8_t s8;
 153:..\..\..\..\wpa_supplicant\src/utils/common.h **** #define WPA_TYPES_DEFINED
 154:..\..\..\..\wpa_supplicant\src/utils/common.h **** #endif /* !WPA_TYPES_DEFINED */
 155:..\..\..\..\wpa_supplicant\src/utils/common.h **** 
 156:..\..\..\..\wpa_supplicant\src/utils/common.h **** 
 157:..\..\..\..\wpa_supplicant\src/utils/common.h **** /* Define platform specific byte swapping macros */
 158:..\..\..\..\wpa_supplicant\src/utils/common.h **** 
 159:..\..\..\..\wpa_supplicant\src/utils/common.h **** #if defined(__CYGWIN__) || defined(CONFIG_NATIVE_WINDOWS)
 160:..\..\..\..\wpa_supplicant\src/utils/common.h **** 
 161:..\..\..\..\wpa_supplicant\src/utils/common.h **** static inline unsigned short wpa_swap_16(unsigned short v)
 162:..\..\..\..\wpa_supplicant\src/utils/common.h **** {
 163:..\..\..\..\wpa_supplicant\src/utils/common.h **** 	return ((v & 0xff) << 8) | (v >> 8);
 164:..\..\..\..\wpa_supplicant\src/utils/common.h **** }
 165:..\..\..\..\wpa_supplicant\src/utils/common.h **** 
 166:..\..\..\..\wpa_supplicant\src/utils/common.h **** static inline unsigned int wpa_swap_32(unsigned int v)
 167:..\..\..\..\wpa_supplicant\src/utils/common.h **** {
 168:..\..\..\..\wpa_supplicant\src/utils/common.h **** 	return ((v & 0xff) << 24) | ((v & 0xff00) << 8) |
 169:..\..\..\..\wpa_supplicant\src/utils/common.h **** 		((v & 0xff0000) >> 8) | (v >> 24);
 170:..\..\..\..\wpa_supplicant\src/utils/common.h **** }
 171:..\..\..\..\wpa_supplicant\src/utils/common.h **** 
 172:..\..\..\..\wpa_supplicant\src/utils/common.h **** #define le_to_host16(n) (n)
 173:..\..\..\..\wpa_supplicant\src/utils/common.h **** #define host_to_le16(n) (n)
 174:..\..\..\..\wpa_supplicant\src/utils/common.h **** #define be_to_host16(n) wpa_swap_16(n)
 175:..\..\..\..\wpa_supplicant\src/utils/common.h **** #define host_to_be16(n) wpa_swap_16(n)
 176:..\..\..\..\wpa_supplicant\src/utils/common.h **** #define le_to_host32(n) (n)
 177:..\..\..\..\wpa_supplicant\src/utils/common.h **** #define host_to_le32(n) (n)
 178:..\..\..\..\wpa_supplicant\src/utils/common.h **** #define be_to_host32(n) wpa_swap_32(n)
 179:..\..\..\..\wpa_supplicant\src/utils/common.h **** #define host_to_be32(n) wpa_swap_32(n)
 180:..\..\..\..\wpa_supplicant\src/utils/common.h **** #define host_to_le64(n) (n)
 181:..\..\..\..\wpa_supplicant\src/utils/common.h **** 
 182:..\..\..\..\wpa_supplicant\src/utils/common.h **** #define WPA_BYTE_SWAP_DEFINED
 183:..\..\..\..\wpa_supplicant\src/utils/common.h **** 
 184:..\..\..\..\wpa_supplicant\src/utils/common.h **** #endif /* __CYGWIN__ || CONFIG_NATIVE_WINDOWS */
 185:..\..\..\..\wpa_supplicant\src/utils/common.h **** 
 186:..\..\..\..\wpa_supplicant\src/utils/common.h **** 
 187:..\..\..\..\wpa_supplicant\src/utils/common.h **** #ifndef WPA_BYTE_SWAP_DEFINED
 188:..\..\..\..\wpa_supplicant\src/utils/common.h **** 
 189:..\..\..\..\wpa_supplicant\src/utils/common.h **** #ifndef __BYTE_ORDER
 190:..\..\..\..\wpa_supplicant\src/utils/common.h **** #ifndef __LITTLE_ENDIAN
 191:..\..\..\..\wpa_supplicant\src/utils/common.h **** #ifndef __BIG_ENDIAN
 192:..\..\..\..\wpa_supplicant\src/utils/common.h **** #define __LITTLE_ENDIAN 1234
 193:..\..\..\..\wpa_supplicant\src/utils/common.h **** #define __BIG_ENDIAN 4321
 194:..\..\..\..\wpa_supplicant\src/utils/common.h **** #if defined(sparc)
 195:..\..\..\..\wpa_supplicant\src/utils/common.h **** #define __BYTE_ORDER __BIG_ENDIAN
 196:..\..\..\..\wpa_supplicant\src/utils/common.h **** #endif
 197:..\..\..\..\wpa_supplicant\src/utils/common.h **** #endif /* __BIG_ENDIAN */
 198:..\..\..\..\wpa_supplicant\src/utils/common.h **** #endif /* __LITTLE_ENDIAN */
 199:..\..\..\..\wpa_supplicant\src/utils/common.h **** #endif /* __BYTE_ORDER */
 200:..\..\..\..\wpa_supplicant\src/utils/common.h **** 
 201:..\..\..\..\wpa_supplicant\src/utils/common.h **** #if __BYTE_ORDER == __LITTLE_ENDIAN
 202:..\..\..\..\wpa_supplicant\src/utils/common.h **** #define le_to_host16(n) ((__force u16) (le16) (n))
 203:..\..\..\..\wpa_supplicant\src/utils/common.h **** #define host_to_le16(n) ((__force le16) (u16) (n))
 204:..\..\..\..\wpa_supplicant\src/utils/common.h **** #define be_to_host16(n) bswap_16((__force u16) (be16) (n))
 205:..\..\..\..\wpa_supplicant\src/utils/common.h **** #define host_to_be16(n) ((__force be16) bswap_16((n)))
 206:..\..\..\..\wpa_supplicant\src/utils/common.h **** #define le_to_host32(n) ((__force u32) (le32) (n))
 207:..\..\..\..\wpa_supplicant\src/utils/common.h **** #define host_to_le32(n) ((__force le32) (u32) (n))
 208:..\..\..\..\wpa_supplicant\src/utils/common.h **** #define be_to_host32(n) bswap_32((__force u32) (be32) (n))
 209:..\..\..\..\wpa_supplicant\src/utils/common.h **** #define host_to_be32(n) ((__force be32) bswap_32((n)))
 210:..\..\..\..\wpa_supplicant\src/utils/common.h **** #define le_to_host64(n) ((__force u64) (le64) (n))
 211:..\..\..\..\wpa_supplicant\src/utils/common.h **** #define host_to_le64(n) ((__force le64) (u64) (n))
 212:..\..\..\..\wpa_supplicant\src/utils/common.h **** #define be_to_host64(n) bswap_64((__force u64) (be64) (n))
 213:..\..\..\..\wpa_supplicant\src/utils/common.h **** #define host_to_be64(n) ((__force be64) bswap_64((n)))
 214:..\..\..\..\wpa_supplicant\src/utils/common.h **** #elif __BYTE_ORDER == __BIG_ENDIAN
 215:..\..\..\..\wpa_supplicant\src/utils/common.h **** #define le_to_host16(n) bswap_16(n)
 216:..\..\..\..\wpa_supplicant\src/utils/common.h **** #define host_to_le16(n) bswap_16(n)
 217:..\..\..\..\wpa_supplicant\src/utils/common.h **** #define be_to_host16(n) (n)
 218:..\..\..\..\wpa_supplicant\src/utils/common.h **** #define host_to_be16(n) (n)
 219:..\..\..\..\wpa_supplicant\src/utils/common.h **** #define le_to_host32(n) bswap_32(n)
 220:..\..\..\..\wpa_supplicant\src/utils/common.h **** #define host_to_le32(n) bswap_32(n)
 221:..\..\..\..\wpa_supplicant\src/utils/common.h **** #define be_to_host32(n) (n)
 222:..\..\..\..\wpa_supplicant\src/utils/common.h **** #define host_to_be32(n) (n)
 223:..\..\..\..\wpa_supplicant\src/utils/common.h **** #define le_to_host64(n) bswap_64(n)
 224:..\..\..\..\wpa_supplicant\src/utils/common.h **** #define host_to_le64(n) bswap_64(n)
 225:..\..\..\..\wpa_supplicant\src/utils/common.h **** #define be_to_host64(n) (n)
 226:..\..\..\..\wpa_supplicant\src/utils/common.h **** #define host_to_be64(n) (n)
 227:..\..\..\..\wpa_supplicant\src/utils/common.h **** #ifndef WORDS_BIGENDIAN
 228:..\..\..\..\wpa_supplicant\src/utils/common.h **** #define WORDS_BIGENDIAN
 229:..\..\..\..\wpa_supplicant\src/utils/common.h **** #endif
 230:..\..\..\..\wpa_supplicant\src/utils/common.h **** #else
 231:..\..\..\..\wpa_supplicant\src/utils/common.h **** #error Could not determine CPU byte order
 232:..\..\..\..\wpa_supplicant\src/utils/common.h **** #endif
 233:..\..\..\..\wpa_supplicant\src/utils/common.h **** 
 234:..\..\..\..\wpa_supplicant\src/utils/common.h **** #define WPA_BYTE_SWAP_DEFINED
 235:..\..\..\..\wpa_supplicant\src/utils/common.h **** #endif /* !WPA_BYTE_SWAP_DEFINED */
 236:..\..\..\..\wpa_supplicant\src/utils/common.h **** 
 237:..\..\..\..\wpa_supplicant\src/utils/common.h **** 
 238:..\..\..\..\wpa_supplicant\src/utils/common.h **** /* Macros for handling unaligned memory accesses */
 239:..\..\..\..\wpa_supplicant\src/utils/common.h **** 
 240:..\..\..\..\wpa_supplicant\src/utils/common.h **** static inline u16 WPA_GET_BE16(const u8 *a)
 241:..\..\..\..\wpa_supplicant\src/utils/common.h **** {
 242:..\..\..\..\wpa_supplicant\src/utils/common.h **** 	return (a[0] << 8) | a[1];
 243:..\..\..\..\wpa_supplicant\src/utils/common.h **** }
 244:..\..\..\..\wpa_supplicant\src/utils/common.h **** 
 245:..\..\..\..\wpa_supplicant\src/utils/common.h **** static inline void WPA_PUT_BE16(u8 *a, u16 val)
 246:..\..\..\..\wpa_supplicant\src/utils/common.h **** {
 247:..\..\..\..\wpa_supplicant\src/utils/common.h **** 	a[0] = val >> 8;
 248:..\..\..\..\wpa_supplicant\src/utils/common.h **** 	a[1] = val & 0xff;
 249:..\..\..\..\wpa_supplicant\src/utils/common.h **** }
 250:..\..\..\..\wpa_supplicant\src/utils/common.h **** 
 251:..\..\..\..\wpa_supplicant\src/utils/common.h **** static inline u16 WPA_GET_LE16(const u8 *a)
 252:..\..\..\..\wpa_supplicant\src/utils/common.h **** {
 253:..\..\..\..\wpa_supplicant\src/utils/common.h **** 	return (a[1] << 8) | a[0];
 254:..\..\..\..\wpa_supplicant\src/utils/common.h **** }
 255:..\..\..\..\wpa_supplicant\src/utils/common.h **** 
 256:..\..\..\..\wpa_supplicant\src/utils/common.h **** static inline void WPA_PUT_LE16(u8 *a, u16 val)
 257:..\..\..\..\wpa_supplicant\src/utils/common.h **** {
 258:..\..\..\..\wpa_supplicant\src/utils/common.h **** 	a[1] = val >> 8;
 259:..\..\..\..\wpa_supplicant\src/utils/common.h **** 	a[0] = val & 0xff;
 260:..\..\..\..\wpa_supplicant\src/utils/common.h **** }
 261:..\..\..\..\wpa_supplicant\src/utils/common.h **** 
 262:..\..\..\..\wpa_supplicant\src/utils/common.h **** static inline u32 WPA_GET_BE24(const u8 *a)
 263:..\..\..\..\wpa_supplicant\src/utils/common.h **** {
 264:..\..\..\..\wpa_supplicant\src/utils/common.h **** 	return (a[0] << 16) | (a[1] << 8) | a[2];
 265:..\..\..\..\wpa_supplicant\src/utils/common.h **** }
 266:..\..\..\..\wpa_supplicant\src/utils/common.h **** 
 267:..\..\..\..\wpa_supplicant\src/utils/common.h **** static inline void WPA_PUT_BE24(u8 *a, u32 val)
 268:..\..\..\..\wpa_supplicant\src/utils/common.h **** {
 269:..\..\..\..\wpa_supplicant\src/utils/common.h **** 	a[0] = (val >> 16) & 0xff;
 270:..\..\..\..\wpa_supplicant\src/utils/common.h **** 	a[1] = (val >> 8) & 0xff;
 271:..\..\..\..\wpa_supplicant\src/utils/common.h **** 	a[2] = val & 0xff;
 272:..\..\..\..\wpa_supplicant\src/utils/common.h **** }
 273:..\..\..\..\wpa_supplicant\src/utils/common.h **** 
 274:..\..\..\..\wpa_supplicant\src/utils/common.h **** static inline u32 WPA_GET_BE32(const u8 *a)
 275:..\..\..\..\wpa_supplicant\src/utils/common.h **** {
 276:..\..\..\..\wpa_supplicant\src/utils/common.h **** 	return ((u32) a[0] << 24) | (a[1] << 16) | (a[2] << 8) | a[3];
 277:..\..\..\..\wpa_supplicant\src/utils/common.h **** }
 278:..\..\..\..\wpa_supplicant\src/utils/common.h **** 
 279:..\..\..\..\wpa_supplicant\src/utils/common.h **** static inline void WPA_PUT_BE32(u8 *a, u32 val)
 280:..\..\..\..\wpa_supplicant\src/utils/common.h **** {
 281:..\..\..\..\wpa_supplicant\src/utils/common.h **** 	a[0] = (val >> 24) & 0xff;
 282:..\..\..\..\wpa_supplicant\src/utils/common.h **** 	a[1] = (val >> 16) & 0xff;
 283:..\..\..\..\wpa_supplicant\src/utils/common.h **** 	a[2] = (val >> 8) & 0xff;
 284:..\..\..\..\wpa_supplicant\src/utils/common.h **** 	a[3] = val & 0xff;
 285:..\..\..\..\wpa_supplicant\src/utils/common.h **** }
 286:..\..\..\..\wpa_supplicant\src/utils/common.h **** 
 287:..\..\..\..\wpa_supplicant\src/utils/common.h **** static inline u32 WPA_GET_LE32(const u8 *a)
 288:..\..\..\..\wpa_supplicant\src/utils/common.h **** {
 289:..\..\..\..\wpa_supplicant\src/utils/common.h **** 	return ((u32) a[3] << 24) | (a[2] << 16) | (a[1] << 8) | a[0];
 290:..\..\..\..\wpa_supplicant\src/utils/common.h **** }
 291:..\..\..\..\wpa_supplicant\src/utils/common.h **** 
 292:..\..\..\..\wpa_supplicant\src/utils/common.h **** static inline void WPA_PUT_LE32(u8 *a, u32 val)
 293:..\..\..\..\wpa_supplicant\src/utils/common.h **** {
 294:..\..\..\..\wpa_supplicant\src/utils/common.h **** 	a[3] = (val >> 24) & 0xff;
 295:..\..\..\..\wpa_supplicant\src/utils/common.h **** 	a[2] = (val >> 16) & 0xff;
 296:..\..\..\..\wpa_supplicant\src/utils/common.h **** 	a[1] = (val >> 8) & 0xff;
 297:..\..\..\..\wpa_supplicant\src/utils/common.h **** 	a[0] = val & 0xff;
 298:..\..\..\..\wpa_supplicant\src/utils/common.h **** }
 299:..\..\..\..\wpa_supplicant\src/utils/common.h **** 
 300:..\..\..\..\wpa_supplicant\src/utils/common.h **** static inline u64 WPA_GET_BE64(const u8 *a)
 301:..\..\..\..\wpa_supplicant\src/utils/common.h **** {
 302:..\..\..\..\wpa_supplicant\src/utils/common.h **** 	return (((u64) a[0]) << 56) | (((u64) a[1]) << 48) |
 303:..\..\..\..\wpa_supplicant\src/utils/common.h **** 		(((u64) a[2]) << 40) | (((u64) a[3]) << 32) |
 304:..\..\..\..\wpa_supplicant\src/utils/common.h **** 		(((u64) a[4]) << 24) | (((u64) a[5]) << 16) |
 305:..\..\..\..\wpa_supplicant\src/utils/common.h **** 		(((u64) a[6]) << 8) | ((u64) a[7]);
 306:..\..\..\..\wpa_supplicant\src/utils/common.h **** }
 307:..\..\..\..\wpa_supplicant\src/utils/common.h **** 
 308:..\..\..\..\wpa_supplicant\src/utils/common.h **** static inline void WPA_PUT_BE64(u8 *a, u64 val)
 309:..\..\..\..\wpa_supplicant\src/utils/common.h **** {
 310:..\..\..\..\wpa_supplicant\src/utils/common.h **** 	a[0] = val >> 56;
 311:..\..\..\..\wpa_supplicant\src/utils/common.h **** 	a[1] = val >> 48;
 312:..\..\..\..\wpa_supplicant\src/utils/common.h **** 	a[2] = val >> 40;
 313:..\..\..\..\wpa_supplicant\src/utils/common.h **** 	a[3] = val >> 32;
 314:..\..\..\..\wpa_supplicant\src/utils/common.h **** 	a[4] = val >> 24;
 315:..\..\..\..\wpa_supplicant\src/utils/common.h **** 	a[5] = val >> 16;
 316:..\..\..\..\wpa_supplicant\src/utils/common.h **** 	a[6] = val >> 8;
 317:..\..\..\..\wpa_supplicant\src/utils/common.h **** 	a[7] = val & 0xff;
 318:..\..\..\..\wpa_supplicant\src/utils/common.h **** }
 319:..\..\..\..\wpa_supplicant\src/utils/common.h **** 
 320:..\..\..\..\wpa_supplicant\src/utils/common.h **** static inline u64 WPA_GET_LE64(const u8 *a)
 321:..\..\..\..\wpa_supplicant\src/utils/common.h **** {
 322:..\..\..\..\wpa_supplicant\src/utils/common.h **** 	return (((u64) a[7]) << 56) | (((u64) a[6]) << 48) |
 323:..\..\..\..\wpa_supplicant\src/utils/common.h **** 		(((u64) a[5]) << 40) | (((u64) a[4]) << 32) |
 324:..\..\..\..\wpa_supplicant\src/utils/common.h **** 		(((u64) a[3]) << 24) | (((u64) a[2]) << 16) |
 325:..\..\..\..\wpa_supplicant\src/utils/common.h **** 		(((u64) a[1]) << 8) | ((u64) a[0]);
 326:..\..\..\..\wpa_supplicant\src/utils/common.h **** }
 327:..\..\..\..\wpa_supplicant\src/utils/common.h **** 
 328:..\..\..\..\wpa_supplicant\src/utils/common.h **** static inline void WPA_PUT_LE64(u8 *a, u64 val)
 329:..\..\..\..\wpa_supplicant\src/utils/common.h **** {
 330:..\..\..\..\wpa_supplicant\src/utils/common.h **** 	a[7] = val >> 56;
 331:..\..\..\..\wpa_supplicant\src/utils/common.h **** 	a[6] = val >> 48;
 332:..\..\..\..\wpa_supplicant\src/utils/common.h **** 	a[5] = val >> 40;
 333:..\..\..\..\wpa_supplicant\src/utils/common.h **** 	a[4] = val >> 32;
 334:..\..\..\..\wpa_supplicant\src/utils/common.h **** 	a[3] = val >> 24;
 335:..\..\..\..\wpa_supplicant\src/utils/common.h **** 	a[2] = val >> 16;
 336:..\..\..\..\wpa_supplicant\src/utils/common.h **** 	a[1] = val >> 8;
 337:..\..\..\..\wpa_supplicant\src/utils/common.h **** 	a[0] = val & 0xff;
 338:..\..\..\..\wpa_supplicant\src/utils/common.h **** }
 339:..\..\..\..\wpa_supplicant\src/utils/common.h **** 
 340:..\..\..\..\wpa_supplicant\src/utils/common.h **** 
 341:..\..\..\..\wpa_supplicant\src/utils/common.h **** #ifndef ETH_ALEN
 342:..\..\..\..\wpa_supplicant\src/utils/common.h **** #define ETH_ALEN 6
 343:..\..\..\..\wpa_supplicant\src/utils/common.h **** #endif
 344:..\..\..\..\wpa_supplicant\src/utils/common.h **** #ifndef ETH_HLEN
 345:..\..\..\..\wpa_supplicant\src/utils/common.h **** #define ETH_HLEN 14
 346:..\..\..\..\wpa_supplicant\src/utils/common.h **** #endif
 347:..\..\..\..\wpa_supplicant\src/utils/common.h **** #ifndef IFNAMSIZ
 348:..\..\..\..\wpa_supplicant\src/utils/common.h **** #define IFNAMSIZ 16
 349:..\..\..\..\wpa_supplicant\src/utils/common.h **** #endif
 350:..\..\..\..\wpa_supplicant\src/utils/common.h **** #ifndef ETH_P_ALL
 351:..\..\..\..\wpa_supplicant\src/utils/common.h **** #define ETH_P_ALL 0x0003
 352:..\..\..\..\wpa_supplicant\src/utils/common.h **** #endif
 353:..\..\..\..\wpa_supplicant\src/utils/common.h **** #ifndef ETH_P_IP
 354:..\..\..\..\wpa_supplicant\src/utils/common.h **** #define ETH_P_IP 0x0800
 355:..\..\..\..\wpa_supplicant\src/utils/common.h **** #endif
 356:..\..\..\..\wpa_supplicant\src/utils/common.h **** #ifndef ETH_P_80211_ENCAP
 357:..\..\..\..\wpa_supplicant\src/utils/common.h **** #define ETH_P_80211_ENCAP 0x890d /* TDLS comes under this category */
 358:..\..\..\..\wpa_supplicant\src/utils/common.h **** #endif
 359:..\..\..\..\wpa_supplicant\src/utils/common.h **** #ifndef ETH_P_PAE
 360:..\..\..\..\wpa_supplicant\src/utils/common.h **** #define ETH_P_PAE 0x888E /* Port Access Entity (IEEE 802.1X) */
 361:..\..\..\..\wpa_supplicant\src/utils/common.h **** #endif /* ETH_P_PAE */
 362:..\..\..\..\wpa_supplicant\src/utils/common.h **** #ifndef ETH_P_EAPOL
 363:..\..\..\..\wpa_supplicant\src/utils/common.h **** #define ETH_P_EAPOL ETH_P_PAE
 364:..\..\..\..\wpa_supplicant\src/utils/common.h **** #endif /* ETH_P_EAPOL */
 365:..\..\..\..\wpa_supplicant\src/utils/common.h **** #ifndef ETH_P_RSN_PREAUTH
 366:..\..\..\..\wpa_supplicant\src/utils/common.h **** #define ETH_P_RSN_PREAUTH 0x88c7
 367:..\..\..\..\wpa_supplicant\src/utils/common.h **** #endif /* ETH_P_RSN_PREAUTH */
 368:..\..\..\..\wpa_supplicant\src/utils/common.h **** #ifndef ETH_P_RRB
 369:..\..\..\..\wpa_supplicant\src/utils/common.h **** #define ETH_P_RRB 0x890D
 370:..\..\..\..\wpa_supplicant\src/utils/common.h **** #endif /* ETH_P_RRB */
 371:..\..\..\..\wpa_supplicant\src/utils/common.h **** #ifndef ETH_P_OUI
 372:..\..\..\..\wpa_supplicant\src/utils/common.h **** #define ETH_P_OUI 0x88B7
 373:..\..\..\..\wpa_supplicant\src/utils/common.h **** #endif /* ETH_P_OUI */
 374:..\..\..\..\wpa_supplicant\src/utils/common.h **** #ifndef ETH_P_8021Q
 375:..\..\..\..\wpa_supplicant\src/utils/common.h **** #define ETH_P_8021Q 0x8100
 376:..\..\..\..\wpa_supplicant\src/utils/common.h **** #endif /* ETH_P_8021Q */
 377:..\..\..\..\wpa_supplicant\src/utils/common.h **** 
 378:..\..\..\..\wpa_supplicant\src/utils/common.h **** #if defined(__CC_ARM)
 379:..\..\..\..\wpa_supplicant\src/utils/common.h **** #define PRINTF_FORMAT(a,b)
 380:..\..\..\..\wpa_supplicant\src/utils/common.h **** #define STRUCT_PACKED           __attribute__ ((packed))
 381:..\..\..\..\wpa_supplicant\src/utils/common.h **** #elif defined(__ICCARM__)
 382:..\..\..\..\wpa_supplicant\src/utils/common.h **** #define PRINTF_FORMAT(a,b)
 383:..\..\..\..\wpa_supplicant\src/utils/common.h **** #define STRUCT_PACKED           __attribute__((packed, aligned(1)))
 384:..\..\..\..\wpa_supplicant\src/utils/common.h **** #elif defined(__ARMCC_VERSION) && (__ARMCC_VERSION >= 6010050)
 385:..\..\..\..\wpa_supplicant\src/utils/common.h **** #define PRINTF_FORMAT(a,b)
 386:..\..\..\..\wpa_supplicant\src/utils/common.h **** #define STRUCT_PACKED           __attribute__((packed, aligned(1)))
 387:..\..\..\..\wpa_supplicant\src/utils/common.h **** #elif defined ( __GNUC__ )
 388:..\..\..\..\wpa_supplicant\src/utils/common.h **** #define PRINTF_FORMAT(a,b)      __attribute__ ((format (printf, (a), (b))))
 389:..\..\..\..\wpa_supplicant\src/utils/common.h **** #define STRUCT_PACKED           __attribute__ ((packed))
 390:..\..\..\..\wpa_supplicant\src/utils/common.h **** #else
 391:..\..\..\..\wpa_supplicant\src/utils/common.h **** #define PRINTF_FORMAT(a,b)
 392:..\..\..\..\wpa_supplicant\src/utils/common.h **** #define STRUCT_PACKED
 393:..\..\..\..\wpa_supplicant\src/utils/common.h **** #endif
 394:..\..\..\..\wpa_supplicant\src/utils/common.h **** 
 395:..\..\..\..\wpa_supplicant\src/utils/common.h **** 
 396:..\..\..\..\wpa_supplicant\src/utils/common.h **** #ifdef CONFIG_ANSI_C_EXTRA
 397:..\..\..\..\wpa_supplicant\src/utils/common.h **** 
 398:..\..\..\..\wpa_supplicant\src/utils/common.h **** #if !defined(_MSC_VER) || _MSC_VER < 1400
 399:..\..\..\..\wpa_supplicant\src/utils/common.h **** /* snprintf - used in number of places; sprintf() is _not_ a good replacement
 400:..\..\..\..\wpa_supplicant\src/utils/common.h ****  * due to possible buffer overflow; see, e.g.,
 401:..\..\..\..\wpa_supplicant\src/utils/common.h ****  * http://www.ijs.si/software/snprintf/ for portable implementation of
 402:..\..\..\..\wpa_supplicant\src/utils/common.h ****  * snprintf. */
 403:..\..\..\..\wpa_supplicant\src/utils/common.h **** int snprintf(char *str, size_t size, const char *format, ...);
 404:..\..\..\..\wpa_supplicant\src/utils/common.h **** 
 405:..\..\..\..\wpa_supplicant\src/utils/common.h **** /* vsnprintf - only used for wpa_msg() in wpa_supplicant.c */
 406:..\..\..\..\wpa_supplicant\src/utils/common.h **** int vsnprintf(char *str, size_t size, const char *format, va_list ap);
 407:..\..\..\..\wpa_supplicant\src/utils/common.h **** #endif /* !defined(_MSC_VER) || _MSC_VER < 1400 */
 408:..\..\..\..\wpa_supplicant\src/utils/common.h **** 
 409:..\..\..\..\wpa_supplicant\src/utils/common.h **** /* getopt - only used in main.c */
 410:..\..\..\..\wpa_supplicant\src/utils/common.h **** int getopt(int argc, char *const argv[], const char *optstring);
 411:..\..\..\..\wpa_supplicant\src/utils/common.h **** extern char *optarg;
 412:..\..\..\..\wpa_supplicant\src/utils/common.h **** extern int optind;
 413:..\..\..\..\wpa_supplicant\src/utils/common.h **** 
 414:..\..\..\..\wpa_supplicant\src/utils/common.h **** #ifndef CONFIG_NO_SOCKLEN_T_TYPEDEF
 415:..\..\..\..\wpa_supplicant\src/utils/common.h **** #ifndef __socklen_t_defined
 416:..\..\..\..\wpa_supplicant\src/utils/common.h **** typedef int socklen_t;
 417:..\..\..\..\wpa_supplicant\src/utils/common.h **** #endif
 418:..\..\..\..\wpa_supplicant\src/utils/common.h **** #endif
 419:..\..\..\..\wpa_supplicant\src/utils/common.h **** 
 420:..\..\..\..\wpa_supplicant\src/utils/common.h **** /* inline - define as __inline or just define it to be empty, if needed */
 421:..\..\..\..\wpa_supplicant\src/utils/common.h **** #ifdef CONFIG_NO_INLINE
 422:..\..\..\..\wpa_supplicant\src/utils/common.h **** #define inline
 423:..\..\..\..\wpa_supplicant\src/utils/common.h **** #else
 424:..\..\..\..\wpa_supplicant\src/utils/common.h **** #define inline __inline
 425:..\..\..\..\wpa_supplicant\src/utils/common.h **** #endif
 426:..\..\..\..\wpa_supplicant\src/utils/common.h **** 
 427:..\..\..\..\wpa_supplicant\src/utils/common.h **** #ifndef __func__
 428:..\..\..\..\wpa_supplicant\src/utils/common.h **** #define __func__ "__func__ not defined"
 429:..\..\..\..\wpa_supplicant\src/utils/common.h **** #endif
 430:..\..\..\..\wpa_supplicant\src/utils/common.h **** 
 431:..\..\..\..\wpa_supplicant\src/utils/common.h **** #ifndef bswap_16
 432:..\..\..\..\wpa_supplicant\src/utils/common.h **** #define bswap_16(a) ((((u16) (a) << 8) & 0xff00) | (((u16) (a) >> 8) & 0xff))
 433:..\..\..\..\wpa_supplicant\src/utils/common.h **** #endif
 434:..\..\..\..\wpa_supplicant\src/utils/common.h **** 
 435:..\..\..\..\wpa_supplicant\src/utils/common.h **** #ifndef bswap_32
 436:..\..\..\..\wpa_supplicant\src/utils/common.h **** #define bswap_32(a) ((((u32) (a) << 24) & 0xff000000) | \
 437:..\..\..\..\wpa_supplicant\src/utils/common.h **** 		     (((u32) (a) << 8) & 0xff0000) | \
 438:..\..\..\..\wpa_supplicant\src/utils/common.h ****      		     (((u32) (a) >> 8) & 0xff00) | \
 439:..\..\..\..\wpa_supplicant\src/utils/common.h ****      		     (((u32) (a) >> 24) & 0xff))
 440:..\..\..\..\wpa_supplicant\src/utils/common.h **** #endif
 441:..\..\..\..\wpa_supplicant\src/utils/common.h **** 
 442:..\..\..\..\wpa_supplicant\src/utils/common.h **** #ifndef MSG_DONTWAIT
 443:..\..\..\..\wpa_supplicant\src/utils/common.h **** #define MSG_DONTWAIT 0
 444:..\..\..\..\wpa_supplicant\src/utils/common.h **** #endif
 445:..\..\..\..\wpa_supplicant\src/utils/common.h **** 
 446:..\..\..\..\wpa_supplicant\src/utils/common.h **** #ifdef _WIN32_WCE
 447:..\..\..\..\wpa_supplicant\src/utils/common.h **** void perror(const char *s);
 448:..\..\..\..\wpa_supplicant\src/utils/common.h **** #endif /* _WIN32_WCE */
 449:..\..\..\..\wpa_supplicant\src/utils/common.h **** 
 450:..\..\..\..\wpa_supplicant\src/utils/common.h **** #endif /* CONFIG_ANSI_C_EXTRA */
 451:..\..\..\..\wpa_supplicant\src/utils/common.h **** 
 452:..\..\..\..\wpa_supplicant\src/utils/common.h **** #ifndef MAC2STR
 453:..\..\..\..\wpa_supplicant\src/utils/common.h **** #define MAC2STR(a) (a)[0], (a)[1], (a)[2], (a)[3], (a)[4], (a)[5]
 454:..\..\..\..\wpa_supplicant\src/utils/common.h **** #define MACSTR "%02x:%02x:%02x:%02x:%02x:%02x"
 455:..\..\..\..\wpa_supplicant\src/utils/common.h **** 
 456:..\..\..\..\wpa_supplicant\src/utils/common.h **** /*
 457:..\..\..\..\wpa_supplicant\src/utils/common.h ****  * Compact form for string representation of MAC address
 458:..\..\..\..\wpa_supplicant\src/utils/common.h ****  * To be used, e.g., for constructing dbus paths for P2P Devices
 459:..\..\..\..\wpa_supplicant\src/utils/common.h ****  */
 460:..\..\..\..\wpa_supplicant\src/utils/common.h **** #define COMPACT_MACSTR "%02x%02x%02x%02x%02x%02x"
 461:..\..\..\..\wpa_supplicant\src/utils/common.h **** #endif
 462:..\..\..\..\wpa_supplicant\src/utils/common.h **** 
 463:..\..\..\..\wpa_supplicant\src/utils/common.h **** #ifndef BIT
 464:..\..\..\..\wpa_supplicant\src/utils/common.h **** #define BIT(x) (1U << (x))
 465:..\..\..\..\wpa_supplicant\src/utils/common.h **** #endif
 466:..\..\..\..\wpa_supplicant\src/utils/common.h **** 
 467:..\..\..\..\wpa_supplicant\src/utils/common.h **** /*
 468:..\..\..\..\wpa_supplicant\src/utils/common.h ****  * Definitions for sparse validation
 469:..\..\..\..\wpa_supplicant\src/utils/common.h ****  * (http://kernel.org/pub/linux/kernel/people/josh/sparse/)
 470:..\..\..\..\wpa_supplicant\src/utils/common.h ****  */
 471:..\..\..\..\wpa_supplicant\src/utils/common.h **** #ifdef __CHECKER__
 472:..\..\..\..\wpa_supplicant\src/utils/common.h **** #define __force __attribute__((force))
 473:..\..\..\..\wpa_supplicant\src/utils/common.h **** #undef __bitwise
 474:..\..\..\..\wpa_supplicant\src/utils/common.h **** #define __bitwise __attribute__((bitwise))
 475:..\..\..\..\wpa_supplicant\src/utils/common.h **** #else
 476:..\..\..\..\wpa_supplicant\src/utils/common.h **** #define __force
 477:..\..\..\..\wpa_supplicant\src/utils/common.h **** #undef __bitwise
 478:..\..\..\..\wpa_supplicant\src/utils/common.h **** #define __bitwise
 479:..\..\..\..\wpa_supplicant\src/utils/common.h **** #endif
 480:..\..\..\..\wpa_supplicant\src/utils/common.h **** 
 481:..\..\..\..\wpa_supplicant\src/utils/common.h **** typedef u16 __bitwise be16;
 482:..\..\..\..\wpa_supplicant\src/utils/common.h **** typedef u16 __bitwise le16;
 483:..\..\..\..\wpa_supplicant\src/utils/common.h **** typedef u32 __bitwise be32;
 484:..\..\..\..\wpa_supplicant\src/utils/common.h **** typedef u32 __bitwise le32;
 485:..\..\..\..\wpa_supplicant\src/utils/common.h **** typedef u64 __bitwise be64;
 486:..\..\..\..\wpa_supplicant\src/utils/common.h **** typedef u64 __bitwise le64;
 487:..\..\..\..\wpa_supplicant\src/utils/common.h **** 
 488:..\..\..\..\wpa_supplicant\src/utils/common.h **** #ifndef __must_check
 489:..\..\..\..\wpa_supplicant\src/utils/common.h **** #if __GNUC__ > 3 || (__GNUC__ == 3 && __GNUC_MINOR__ >= 4)
 490:..\..\..\..\wpa_supplicant\src/utils/common.h **** #define __must_check __attribute__((__warn_unused_result__))
 491:..\..\..\..\wpa_supplicant\src/utils/common.h **** #else
 492:..\..\..\..\wpa_supplicant\src/utils/common.h **** #define __must_check
 493:..\..\..\..\wpa_supplicant\src/utils/common.h **** #endif /* __GNUC__ */
 494:..\..\..\..\wpa_supplicant\src/utils/common.h **** #endif /* __must_check */
 495:..\..\..\..\wpa_supplicant\src/utils/common.h **** 
 496:..\..\..\..\wpa_supplicant\src/utils/common.h **** #ifndef __maybe_unused
 497:..\..\..\..\wpa_supplicant\src/utils/common.h **** #if __GNUC__ > 3 || (__GNUC__ == 3 && __GNUC_MINOR__ >= 4)
 498:..\..\..\..\wpa_supplicant\src/utils/common.h **** #define __maybe_unused __attribute__((unused))
 499:..\..\..\..\wpa_supplicant\src/utils/common.h **** #else
 500:..\..\..\..\wpa_supplicant\src/utils/common.h **** #define __maybe_unused
 501:..\..\..\..\wpa_supplicant\src/utils/common.h **** #endif /* __GNUC__ */
 502:..\..\..\..\wpa_supplicant\src/utils/common.h **** #endif /* __must_check */
 503:..\..\..\..\wpa_supplicant\src/utils/common.h **** 
 504:..\..\..\..\wpa_supplicant\src/utils/common.h **** #define SSID_MAX_LEN 32
 505:..\..\..\..\wpa_supplicant\src/utils/common.h **** 
 506:..\..\..\..\wpa_supplicant\src/utils/common.h **** struct wpa_ssid_value {
 507:..\..\..\..\wpa_supplicant\src/utils/common.h **** 	u8 ssid[SSID_MAX_LEN];
 508:..\..\..\..\wpa_supplicant\src/utils/common.h **** 	size_t ssid_len;
 509:..\..\..\..\wpa_supplicant\src/utils/common.h **** };
 510:..\..\..\..\wpa_supplicant\src/utils/common.h **** 
 511:..\..\..\..\wpa_supplicant\src/utils/common.h **** int hwaddr_aton(const char *txt, u8 *addr);
 512:..\..\..\..\wpa_supplicant\src/utils/common.h **** int hwaddr_masked_aton(const char *txt, u8 *addr, u8 *mask, u8 maskable);
 513:..\..\..\..\wpa_supplicant\src/utils/common.h **** int hwaddr_compact_aton(const char *txt, u8 *addr);
 514:..\..\..\..\wpa_supplicant\src/utils/common.h **** int hwaddr_aton2(const char *txt, u8 *addr);
 515:..\..\..\..\wpa_supplicant\src/utils/common.h **** int hex2byte(const char *hex);
 516:..\..\..\..\wpa_supplicant\src/utils/common.h **** int hexstr2bin(const char *hex, u8 *buf, size_t len);
 517:..\..\..\..\wpa_supplicant\src/utils/common.h **** void inc_byte_array(u8 *counter, size_t len);
 518:..\..\..\..\wpa_supplicant\src/utils/common.h **** void buf_shift_right(u8 *buf, size_t len, size_t bits);
 519:..\..\..\..\wpa_supplicant\src/utils/common.h **** void wpa_get_ntp_timestamp(u8 *buf);
 520:..\..\..\..\wpa_supplicant\src/utils/common.h **** int wpa_scnprintf(char *buf, size_t size, const char *fmt, ...)
 521:..\..\..\..\wpa_supplicant\src/utils/common.h **** 	PRINTF_FORMAT(3, 4);
 522:..\..\..\..\wpa_supplicant\src/utils/common.h **** int wpa_snprintf_hex_sep(char *buf, size_t buf_size, const u8 *data, size_t len,
 523:..\..\..\..\wpa_supplicant\src/utils/common.h **** 			 char sep);
 524:..\..\..\..\wpa_supplicant\src/utils/common.h **** int wpa_snprintf_hex(char *buf, size_t buf_size, const u8 *data, size_t len);
 525:..\..\..\..\wpa_supplicant\src/utils/common.h **** int wpa_snprintf_hex_uppercase(char *buf, size_t buf_size, const u8 *data,
 526:..\..\..\..\wpa_supplicant\src/utils/common.h **** 			       size_t len);
 527:..\..\..\..\wpa_supplicant\src/utils/common.h **** 
 528:..\..\..\..\wpa_supplicant\src/utils/common.h **** int hwaddr_mask_txt(char *buf, size_t len, const u8 *addr, const u8 *mask);
 529:..\..\..\..\wpa_supplicant\src/utils/common.h **** int ssid_parse(const char *buf, struct wpa_ssid_value *ssid);
 530:..\..\..\..\wpa_supplicant\src/utils/common.h **** 
 531:..\..\..\..\wpa_supplicant\src/utils/common.h **** #ifdef CONFIG_NATIVE_WINDOWS
 532:..\..\..\..\wpa_supplicant\src/utils/common.h **** void wpa_unicode2ascii_inplace(TCHAR *str);
 533:..\..\..\..\wpa_supplicant\src/utils/common.h **** TCHAR * wpa_strdup_tchar(const char *str);
 534:..\..\..\..\wpa_supplicant\src/utils/common.h **** #else /* CONFIG_NATIVE_WINDOWS */
 535:..\..\..\..\wpa_supplicant\src/utils/common.h **** #define wpa_unicode2ascii_inplace(s) do { } while (0)
 536:..\..\..\..\wpa_supplicant\src/utils/common.h **** #define wpa_strdup_tchar(s) strdup((s))
 537:..\..\..\..\wpa_supplicant\src/utils/common.h **** #endif /* CONFIG_NATIVE_WINDOWS */
 538:..\..\..\..\wpa_supplicant\src/utils/common.h **** 
 539:..\..\..\..\wpa_supplicant\src/utils/common.h **** void printf_encode(char *txt, size_t maxlen, const u8 *data, size_t len);
 540:..\..\..\..\wpa_supplicant\src/utils/common.h **** size_t printf_decode(u8 *buf, size_t maxlen, const char *str);
 541:..\..\..\..\wpa_supplicant\src/utils/common.h **** 
 542:..\..\..\..\wpa_supplicant\src/utils/common.h **** const char * wpa_ssid_txt(const u8 *ssid, size_t ssid_len);
 543:..\..\..\..\wpa_supplicant\src/utils/common.h **** 
 544:..\..\..\..\wpa_supplicant\src/utils/common.h **** char * wpa_config_parse_string(const char *value, size_t *len);
 545:..\..\..\..\wpa_supplicant\src/utils/common.h **** int is_hex(const u8 *data, size_t len);
 546:..\..\..\..\wpa_supplicant\src/utils/common.h **** int has_ctrl_char(const u8 *data, size_t len);
 547:..\..\..\..\wpa_supplicant\src/utils/common.h **** int has_newline(const char *str);
 548:..\..\..\..\wpa_supplicant\src/utils/common.h **** size_t merge_byte_arrays(u8 *res, size_t res_len,
 549:..\..\..\..\wpa_supplicant\src/utils/common.h **** 			 const u8 *src1, size_t src1_len,
 550:..\..\..\..\wpa_supplicant\src/utils/common.h **** 			 const u8 *src2, size_t src2_len);
 551:..\..\..\..\wpa_supplicant\src/utils/common.h **** char * dup_binstr(const void *src, size_t len);
 552:..\..\..\..\wpa_supplicant\src/utils/common.h **** 
 553:..\..\..\..\wpa_supplicant\src/utils/common.h **** static inline int is_zero_ether_addr(const u8 *a)
 554:..\..\..\..\wpa_supplicant\src/utils/common.h **** {
  15              		.loc 1 554 1
  16              		.cfi_startproc
  17              	.LVL0:
 555:..\..\..\..\wpa_supplicant\src/utils/common.h **** 	return !(a[0] | a[1] | a[2] | a[3] | a[4] | a[5]);
  18              		.loc 1 555 2
  19              		.loc 1 555 9 is_stmt 0
  20 0000 03471500 		lbu	a4,1(a0)
  21 0004 83470500 		lbu	a5,0(a0)
  22 0008 D98F     		or	a5,a5,a4
  23 000a 03472500 		lbu	a4,2(a0)
  24 000e D98F     		or	a5,a5,a4
  25 0010 03473500 		lbu	a4,3(a0)
  26 0014 D98F     		or	a5,a5,a4
  27 0016 03474500 		lbu	a4,4(a0)
  28 001a 03455500 		lbu	a0,5(a0)
  29              	.LVL1:
  30 001e D98F     		or	a5,a5,a4
  31 0020 5D8D     		or	a0,a5,a0
  32 0022 1375F50F 		andi	a0,a0,0xff
 556:..\..\..\..\wpa_supplicant\src/utils/common.h **** }
  33              		.loc 1 556 1
  34 0026 13351500 		seqz	a0,a0
  35 002a 8280     		ret
  36              		.cfi_endproc
  37              	.LFE42:
  39              		.section	.text.hostapd_config_free_radius,"ax",@progbits
  40              		.align	1
  42              	hostapd_config_free_radius:
  43              	.LFB145:
  44              		.file 2 "C:/Users/stapi/OneDrive/Desktop/GD32VW553/V1_MQTT_OK/GD32VW55X_Wifi_BLE_SDK/GD32VW55x_REL
   1:C:/Users/stapi/OneDrive/Desktop/GD32VW553/V1_MQTT_OK/GD32VW55X_Wifi_BLE_SDK/GD32VW55x_RELEASE_V1.0.2/MSDK/wpa_supplicant/src/ap\ap_config.c **** /*
   2:C:/Users/stapi/OneDrive/Desktop/GD32VW553/V1_MQTT_OK/GD32VW55X_Wifi_BLE_SDK/GD32VW55x_RELEASE_V1.0.2/MSDK/wpa_supplicant/src/ap\ap_config.c ****  * hostapd / Configuration helper functions
   3:C:/Users/stapi/OneDrive/Desktop/GD32VW553/V1_MQTT_OK/GD32VW55X_Wifi_BLE_SDK/GD32VW55x_RELEASE_V1.0.2/MSDK/wpa_supplicant/src/ap\ap_config.c ****  * Copyright (c) 2003-2014, Jouni Malinen <j@w1.fi>
   4:C:/Users/stapi/OneDrive/Desktop/GD32VW553/V1_MQTT_OK/GD32VW55X_Wifi_BLE_SDK/GD32VW55x_RELEASE_V1.0.2/MSDK/wpa_supplicant/src/ap\ap_config.c ****  *
   5:C:/Users/stapi/OneDrive/Desktop/GD32VW553/V1_MQTT_OK/GD32VW55X_Wifi_BLE_SDK/GD32VW55x_RELEASE_V1.0.2/MSDK/wpa_supplicant/src/ap\ap_config.c ****  * This software may be distributed under the terms of the BSD license.
   6:C:/Users/stapi/OneDrive/Desktop/GD32VW553/V1_MQTT_OK/GD32VW55X_Wifi_BLE_SDK/GD32VW55x_RELEASE_V1.0.2/MSDK/wpa_supplicant/src/ap\ap_config.c ****  * See README for more details.
   7:C:/Users/stapi/OneDrive/Desktop/GD32VW553/V1_MQTT_OK/GD32VW55X_Wifi_BLE_SDK/GD32VW55x_RELEASE_V1.0.2/MSDK/wpa_supplicant/src/ap\ap_config.c ****  */
   8:C:/Users/stapi/OneDrive/Desktop/GD32VW553/V1_MQTT_OK/GD32VW55X_Wifi_BLE_SDK/GD32VW55x_RELEASE_V1.0.2/MSDK/wpa_supplicant/src/ap\ap_config.c **** 
   9:C:/Users/stapi/OneDrive/Desktop/GD32VW553/V1_MQTT_OK/GD32VW55X_Wifi_BLE_SDK/GD32VW55x_RELEASE_V1.0.2/MSDK/wpa_supplicant/src/ap\ap_config.c **** #include "utils/includes.h"
  10:C:/Users/stapi/OneDrive/Desktop/GD32VW553/V1_MQTT_OK/GD32VW55X_Wifi_BLE_SDK/GD32VW55x_RELEASE_V1.0.2/MSDK/wpa_supplicant/src/ap\ap_config.c **** 
  11:C:/Users/stapi/OneDrive/Desktop/GD32VW553/V1_MQTT_OK/GD32VW55X_Wifi_BLE_SDK/GD32VW55x_RELEASE_V1.0.2/MSDK/wpa_supplicant/src/ap\ap_config.c **** #ifdef CONFIG_AP
  12:C:/Users/stapi/OneDrive/Desktop/GD32VW553/V1_MQTT_OK/GD32VW55X_Wifi_BLE_SDK/GD32VW55x_RELEASE_V1.0.2/MSDK/wpa_supplicant/src/ap\ap_config.c **** #include "utils/common.h"
  13:C:/Users/stapi/OneDrive/Desktop/GD32VW553/V1_MQTT_OK/GD32VW55X_Wifi_BLE_SDK/GD32VW55x_RELEASE_V1.0.2/MSDK/wpa_supplicant/src/ap\ap_config.c **** #include "crypto/sha1.h"
  14:C:/Users/stapi/OneDrive/Desktop/GD32VW553/V1_MQTT_OK/GD32VW55X_Wifi_BLE_SDK/GD32VW55x_RELEASE_V1.0.2/MSDK/wpa_supplicant/src/ap\ap_config.c **** #include "crypto/tls.h"
  15:C:/Users/stapi/OneDrive/Desktop/GD32VW553/V1_MQTT_OK/GD32VW55X_Wifi_BLE_SDK/GD32VW55x_RELEASE_V1.0.2/MSDK/wpa_supplicant/src/ap\ap_config.c **** #include "radius/radius_client.h"
  16:C:/Users/stapi/OneDrive/Desktop/GD32VW553/V1_MQTT_OK/GD32VW55X_Wifi_BLE_SDK/GD32VW55x_RELEASE_V1.0.2/MSDK/wpa_supplicant/src/ap\ap_config.c **** #include "common/ieee802_11_defs.h"
  17:C:/Users/stapi/OneDrive/Desktop/GD32VW553/V1_MQTT_OK/GD32VW55X_Wifi_BLE_SDK/GD32VW55x_RELEASE_V1.0.2/MSDK/wpa_supplicant/src/ap\ap_config.c **** #include "common/ieee802_1x_defs.h"
  18:C:/Users/stapi/OneDrive/Desktop/GD32VW553/V1_MQTT_OK/GD32VW55X_Wifi_BLE_SDK/GD32VW55x_RELEASE_V1.0.2/MSDK/wpa_supplicant/src/ap\ap_config.c **** #include "common/eapol_common.h"
  19:C:/Users/stapi/OneDrive/Desktop/GD32VW553/V1_MQTT_OK/GD32VW55X_Wifi_BLE_SDK/GD32VW55x_RELEASE_V1.0.2/MSDK/wpa_supplicant/src/ap\ap_config.c **** #ifdef CONFIG_FILS
  20:C:/Users/stapi/OneDrive/Desktop/GD32VW553/V1_MQTT_OK/GD32VW55X_Wifi_BLE_SDK/GD32VW55x_RELEASE_V1.0.2/MSDK/wpa_supplicant/src/ap\ap_config.c **** #include "common/dhcp.h"
  21:C:/Users/stapi/OneDrive/Desktop/GD32VW553/V1_MQTT_OK/GD32VW55X_Wifi_BLE_SDK/GD32VW55x_RELEASE_V1.0.2/MSDK/wpa_supplicant/src/ap\ap_config.c **** #endif
  22:C:/Users/stapi/OneDrive/Desktop/GD32VW553/V1_MQTT_OK/GD32VW55X_Wifi_BLE_SDK/GD32VW55x_RELEASE_V1.0.2/MSDK/wpa_supplicant/src/ap\ap_config.c **** #include "common/sae.h"
  23:C:/Users/stapi/OneDrive/Desktop/GD32VW553/V1_MQTT_OK/GD32VW55X_Wifi_BLE_SDK/GD32VW55x_RELEASE_V1.0.2/MSDK/wpa_supplicant/src/ap\ap_config.c **** #include "eap_common/eap_wsc_common.h"
  24:C:/Users/stapi/OneDrive/Desktop/GD32VW553/V1_MQTT_OK/GD32VW55X_Wifi_BLE_SDK/GD32VW55x_RELEASE_V1.0.2/MSDK/wpa_supplicant/src/ap\ap_config.c **** #include "eap_server/eap.h"
  25:C:/Users/stapi/OneDrive/Desktop/GD32VW553/V1_MQTT_OK/GD32VW55X_Wifi_BLE_SDK/GD32VW55x_RELEASE_V1.0.2/MSDK/wpa_supplicant/src/ap\ap_config.c **** #include "wpa_auth.h"
  26:C:/Users/stapi/OneDrive/Desktop/GD32VW553/V1_MQTT_OK/GD32VW55X_Wifi_BLE_SDK/GD32VW55x_RELEASE_V1.0.2/MSDK/wpa_supplicant/src/ap\ap_config.c **** #include "sta_info.h"
  27:C:/Users/stapi/OneDrive/Desktop/GD32VW553/V1_MQTT_OK/GD32VW55X_Wifi_BLE_SDK/GD32VW55x_RELEASE_V1.0.2/MSDK/wpa_supplicant/src/ap\ap_config.c **** #include "airtime_policy.h"
  28:C:/Users/stapi/OneDrive/Desktop/GD32VW553/V1_MQTT_OK/GD32VW55X_Wifi_BLE_SDK/GD32VW55x_RELEASE_V1.0.2/MSDK/wpa_supplicant/src/ap\ap_config.c **** #include "ap_config.h"
  29:C:/Users/stapi/OneDrive/Desktop/GD32VW553/V1_MQTT_OK/GD32VW55X_Wifi_BLE_SDK/GD32VW55x_RELEASE_V1.0.2/MSDK/wpa_supplicant/src/ap\ap_config.c **** 
  30:C:/Users/stapi/OneDrive/Desktop/GD32VW553/V1_MQTT_OK/GD32VW55X_Wifi_BLE_SDK/GD32VW55x_RELEASE_V1.0.2/MSDK/wpa_supplicant/src/ap\ap_config.c **** 
  31:C:/Users/stapi/OneDrive/Desktop/GD32VW553/V1_MQTT_OK/GD32VW55X_Wifi_BLE_SDK/GD32VW55x_RELEASE_V1.0.2/MSDK/wpa_supplicant/src/ap\ap_config.c **** static void hostapd_config_free_vlan(struct hostapd_bss_config *bss)
  32:C:/Users/stapi/OneDrive/Desktop/GD32VW553/V1_MQTT_OK/GD32VW55X_Wifi_BLE_SDK/GD32VW55x_RELEASE_V1.0.2/MSDK/wpa_supplicant/src/ap\ap_config.c **** {
  33:C:/Users/stapi/OneDrive/Desktop/GD32VW553/V1_MQTT_OK/GD32VW55X_Wifi_BLE_SDK/GD32VW55x_RELEASE_V1.0.2/MSDK/wpa_supplicant/src/ap\ap_config.c **** 	struct hostapd_vlan *vlan, *prev;
  34:C:/Users/stapi/OneDrive/Desktop/GD32VW553/V1_MQTT_OK/GD32VW55X_Wifi_BLE_SDK/GD32VW55x_RELEASE_V1.0.2/MSDK/wpa_supplicant/src/ap\ap_config.c **** 
  35:C:/Users/stapi/OneDrive/Desktop/GD32VW553/V1_MQTT_OK/GD32VW55X_Wifi_BLE_SDK/GD32VW55x_RELEASE_V1.0.2/MSDK/wpa_supplicant/src/ap\ap_config.c **** 	vlan = bss->vlan;
  36:C:/Users/stapi/OneDrive/Desktop/GD32VW553/V1_MQTT_OK/GD32VW55X_Wifi_BLE_SDK/GD32VW55x_RELEASE_V1.0.2/MSDK/wpa_supplicant/src/ap\ap_config.c **** 	prev = NULL;
  37:C:/Users/stapi/OneDrive/Desktop/GD32VW553/V1_MQTT_OK/GD32VW55X_Wifi_BLE_SDK/GD32VW55x_RELEASE_V1.0.2/MSDK/wpa_supplicant/src/ap\ap_config.c **** 	while (vlan) {
  38:C:/Users/stapi/OneDrive/Desktop/GD32VW553/V1_MQTT_OK/GD32VW55X_Wifi_BLE_SDK/GD32VW55x_RELEASE_V1.0.2/MSDK/wpa_supplicant/src/ap\ap_config.c **** 		prev = vlan;
  39:C:/Users/stapi/OneDrive/Desktop/GD32VW553/V1_MQTT_OK/GD32VW55X_Wifi_BLE_SDK/GD32VW55x_RELEASE_V1.0.2/MSDK/wpa_supplicant/src/ap\ap_config.c **** 		vlan = vlan->next;
  40:C:/Users/stapi/OneDrive/Desktop/GD32VW553/V1_MQTT_OK/GD32VW55X_Wifi_BLE_SDK/GD32VW55x_RELEASE_V1.0.2/MSDK/wpa_supplicant/src/ap\ap_config.c **** 		os_free(prev);
  41:C:/Users/stapi/OneDrive/Desktop/GD32VW553/V1_MQTT_OK/GD32VW55X_Wifi_BLE_SDK/GD32VW55x_RELEASE_V1.0.2/MSDK/wpa_supplicant/src/ap\ap_config.c **** 	}
  42:C:/Users/stapi/OneDrive/Desktop/GD32VW553/V1_MQTT_OK/GD32VW55X_Wifi_BLE_SDK/GD32VW55x_RELEASE_V1.0.2/MSDK/wpa_supplicant/src/ap\ap_config.c **** 
  43:C:/Users/stapi/OneDrive/Desktop/GD32VW553/V1_MQTT_OK/GD32VW55X_Wifi_BLE_SDK/GD32VW55x_RELEASE_V1.0.2/MSDK/wpa_supplicant/src/ap\ap_config.c **** 	bss->vlan = NULL;
  44:C:/Users/stapi/OneDrive/Desktop/GD32VW553/V1_MQTT_OK/GD32VW55X_Wifi_BLE_SDK/GD32VW55x_RELEASE_V1.0.2/MSDK/wpa_supplicant/src/ap\ap_config.c **** }
  45:C:/Users/stapi/OneDrive/Desktop/GD32VW553/V1_MQTT_OK/GD32VW55X_Wifi_BLE_SDK/GD32VW55x_RELEASE_V1.0.2/MSDK/wpa_supplicant/src/ap\ap_config.c **** 
  46:C:/Users/stapi/OneDrive/Desktop/GD32VW553/V1_MQTT_OK/GD32VW55X_Wifi_BLE_SDK/GD32VW55x_RELEASE_V1.0.2/MSDK/wpa_supplicant/src/ap\ap_config.c **** 
  47:C:/Users/stapi/OneDrive/Desktop/GD32VW553/V1_MQTT_OK/GD32VW55X_Wifi_BLE_SDK/GD32VW55x_RELEASE_V1.0.2/MSDK/wpa_supplicant/src/ap\ap_config.c **** #ifndef DEFAULT_WPA_DISABLE_EAPOL_KEY_RETRIES
  48:C:/Users/stapi/OneDrive/Desktop/GD32VW553/V1_MQTT_OK/GD32VW55X_Wifi_BLE_SDK/GD32VW55x_RELEASE_V1.0.2/MSDK/wpa_supplicant/src/ap\ap_config.c **** #define DEFAULT_WPA_DISABLE_EAPOL_KEY_RETRIES 0
  49:C:/Users/stapi/OneDrive/Desktop/GD32VW553/V1_MQTT_OK/GD32VW55X_Wifi_BLE_SDK/GD32VW55x_RELEASE_V1.0.2/MSDK/wpa_supplicant/src/ap\ap_config.c **** #endif /* DEFAULT_WPA_DISABLE_EAPOL_KEY_RETRIES */
  50:C:/Users/stapi/OneDrive/Desktop/GD32VW553/V1_MQTT_OK/GD32VW55X_Wifi_BLE_SDK/GD32VW55x_RELEASE_V1.0.2/MSDK/wpa_supplicant/src/ap\ap_config.c **** 
  51:C:/Users/stapi/OneDrive/Desktop/GD32VW553/V1_MQTT_OK/GD32VW55X_Wifi_BLE_SDK/GD32VW55x_RELEASE_V1.0.2/MSDK/wpa_supplicant/src/ap\ap_config.c **** void hostapd_config_defaults_bss(struct hostapd_bss_config *bss)
  52:C:/Users/stapi/OneDrive/Desktop/GD32VW553/V1_MQTT_OK/GD32VW55X_Wifi_BLE_SDK/GD32VW55x_RELEASE_V1.0.2/MSDK/wpa_supplicant/src/ap\ap_config.c **** {
  53:C:/Users/stapi/OneDrive/Desktop/GD32VW553/V1_MQTT_OK/GD32VW55X_Wifi_BLE_SDK/GD32VW55x_RELEASE_V1.0.2/MSDK/wpa_supplicant/src/ap\ap_config.c **** 	dl_list_init(&bss->anqp_elem);
  54:C:/Users/stapi/OneDrive/Desktop/GD32VW553/V1_MQTT_OK/GD32VW55X_Wifi_BLE_SDK/GD32VW55x_RELEASE_V1.0.2/MSDK/wpa_supplicant/src/ap\ap_config.c **** 
  55:C:/Users/stapi/OneDrive/Desktop/GD32VW553/V1_MQTT_OK/GD32VW55X_Wifi_BLE_SDK/GD32VW55x_RELEASE_V1.0.2/MSDK/wpa_supplicant/src/ap\ap_config.c **** 	bss->logger_syslog_level = HOSTAPD_LEVEL_INFO;
  56:C:/Users/stapi/OneDrive/Desktop/GD32VW553/V1_MQTT_OK/GD32VW55X_Wifi_BLE_SDK/GD32VW55x_RELEASE_V1.0.2/MSDK/wpa_supplicant/src/ap\ap_config.c **** 	bss->logger_stdout_level = HOSTAPD_LEVEL_INFO;
  57:C:/Users/stapi/OneDrive/Desktop/GD32VW553/V1_MQTT_OK/GD32VW55X_Wifi_BLE_SDK/GD32VW55x_RELEASE_V1.0.2/MSDK/wpa_supplicant/src/ap\ap_config.c **** 	bss->logger_syslog = (unsigned int) -1;
  58:C:/Users/stapi/OneDrive/Desktop/GD32VW553/V1_MQTT_OK/GD32VW55X_Wifi_BLE_SDK/GD32VW55x_RELEASE_V1.0.2/MSDK/wpa_supplicant/src/ap\ap_config.c **** 	bss->logger_stdout = (unsigned int) -1;
  59:C:/Users/stapi/OneDrive/Desktop/GD32VW553/V1_MQTT_OK/GD32VW55X_Wifi_BLE_SDK/GD32VW55x_RELEASE_V1.0.2/MSDK/wpa_supplicant/src/ap\ap_config.c **** 
  60:C:/Users/stapi/OneDrive/Desktop/GD32VW553/V1_MQTT_OK/GD32VW55X_Wifi_BLE_SDK/GD32VW55x_RELEASE_V1.0.2/MSDK/wpa_supplicant/src/ap\ap_config.c **** #ifdef CONFIG_WEP
  61:C:/Users/stapi/OneDrive/Desktop/GD32VW553/V1_MQTT_OK/GD32VW55X_Wifi_BLE_SDK/GD32VW55x_RELEASE_V1.0.2/MSDK/wpa_supplicant/src/ap\ap_config.c **** 	bss->auth_algs = WPA_AUTH_ALG_OPEN | WPA_AUTH_ALG_SHARED;
  62:C:/Users/stapi/OneDrive/Desktop/GD32VW553/V1_MQTT_OK/GD32VW55X_Wifi_BLE_SDK/GD32VW55x_RELEASE_V1.0.2/MSDK/wpa_supplicant/src/ap\ap_config.c **** 
  63:C:/Users/stapi/OneDrive/Desktop/GD32VW553/V1_MQTT_OK/GD32VW55X_Wifi_BLE_SDK/GD32VW55x_RELEASE_V1.0.2/MSDK/wpa_supplicant/src/ap\ap_config.c **** 	bss->wep_rekeying_period = 300;
  64:C:/Users/stapi/OneDrive/Desktop/GD32VW553/V1_MQTT_OK/GD32VW55X_Wifi_BLE_SDK/GD32VW55x_RELEASE_V1.0.2/MSDK/wpa_supplicant/src/ap\ap_config.c **** 	/* use key0 in individual key and key1 in broadcast key */
  65:C:/Users/stapi/OneDrive/Desktop/GD32VW553/V1_MQTT_OK/GD32VW55X_Wifi_BLE_SDK/GD32VW55x_RELEASE_V1.0.2/MSDK/wpa_supplicant/src/ap\ap_config.c **** 	bss->broadcast_key_idx_min = 1;
  66:C:/Users/stapi/OneDrive/Desktop/GD32VW553/V1_MQTT_OK/GD32VW55X_Wifi_BLE_SDK/GD32VW55x_RELEASE_V1.0.2/MSDK/wpa_supplicant/src/ap\ap_config.c **** 	bss->broadcast_key_idx_max = 2;
  67:C:/Users/stapi/OneDrive/Desktop/GD32VW553/V1_MQTT_OK/GD32VW55X_Wifi_BLE_SDK/GD32VW55x_RELEASE_V1.0.2/MSDK/wpa_supplicant/src/ap\ap_config.c **** #else /* CONFIG_WEP */
  68:C:/Users/stapi/OneDrive/Desktop/GD32VW553/V1_MQTT_OK/GD32VW55X_Wifi_BLE_SDK/GD32VW55x_RELEASE_V1.0.2/MSDK/wpa_supplicant/src/ap\ap_config.c **** 	bss->auth_algs = WPA_AUTH_ALG_OPEN;
  69:C:/Users/stapi/OneDrive/Desktop/GD32VW553/V1_MQTT_OK/GD32VW55X_Wifi_BLE_SDK/GD32VW55x_RELEASE_V1.0.2/MSDK/wpa_supplicant/src/ap\ap_config.c **** #endif /* CONFIG_WEP */
  70:C:/Users/stapi/OneDrive/Desktop/GD32VW553/V1_MQTT_OK/GD32VW55X_Wifi_BLE_SDK/GD32VW55x_RELEASE_V1.0.2/MSDK/wpa_supplicant/src/ap\ap_config.c **** 	bss->eap_reauth_period = 3600;
  71:C:/Users/stapi/OneDrive/Desktop/GD32VW553/V1_MQTT_OK/GD32VW55X_Wifi_BLE_SDK/GD32VW55x_RELEASE_V1.0.2/MSDK/wpa_supplicant/src/ap\ap_config.c **** 
  72:C:/Users/stapi/OneDrive/Desktop/GD32VW553/V1_MQTT_OK/GD32VW55X_Wifi_BLE_SDK/GD32VW55x_RELEASE_V1.0.2/MSDK/wpa_supplicant/src/ap\ap_config.c **** 	bss->wpa_group_rekey = 600;
  73:C:/Users/stapi/OneDrive/Desktop/GD32VW553/V1_MQTT_OK/GD32VW55X_Wifi_BLE_SDK/GD32VW55x_RELEASE_V1.0.2/MSDK/wpa_supplicant/src/ap\ap_config.c **** 	bss->wpa_gmk_rekey = 86400;
  74:C:/Users/stapi/OneDrive/Desktop/GD32VW553/V1_MQTT_OK/GD32VW55X_Wifi_BLE_SDK/GD32VW55x_RELEASE_V1.0.2/MSDK/wpa_supplicant/src/ap\ap_config.c **** 	bss->wpa_deny_ptk0_rekey = PTK0_REKEY_ALLOW_ALWAYS;
  75:C:/Users/stapi/OneDrive/Desktop/GD32VW553/V1_MQTT_OK/GD32VW55X_Wifi_BLE_SDK/GD32VW55x_RELEASE_V1.0.2/MSDK/wpa_supplicant/src/ap\ap_config.c **** 	bss->wpa_group_update_count = 4;
  76:C:/Users/stapi/OneDrive/Desktop/GD32VW553/V1_MQTT_OK/GD32VW55X_Wifi_BLE_SDK/GD32VW55x_RELEASE_V1.0.2/MSDK/wpa_supplicant/src/ap\ap_config.c **** 	bss->wpa_pairwise_update_count = 4;
  77:C:/Users/stapi/OneDrive/Desktop/GD32VW553/V1_MQTT_OK/GD32VW55X_Wifi_BLE_SDK/GD32VW55x_RELEASE_V1.0.2/MSDK/wpa_supplicant/src/ap\ap_config.c **** 	bss->wpa_disable_eapol_key_retries =
  78:C:/Users/stapi/OneDrive/Desktop/GD32VW553/V1_MQTT_OK/GD32VW55X_Wifi_BLE_SDK/GD32VW55x_RELEASE_V1.0.2/MSDK/wpa_supplicant/src/ap\ap_config.c **** 		DEFAULT_WPA_DISABLE_EAPOL_KEY_RETRIES;
  79:C:/Users/stapi/OneDrive/Desktop/GD32VW553/V1_MQTT_OK/GD32VW55X_Wifi_BLE_SDK/GD32VW55x_RELEASE_V1.0.2/MSDK/wpa_supplicant/src/ap\ap_config.c **** 	bss->wpa_key_mgmt = WPA_KEY_MGMT_PSK;
  80:C:/Users/stapi/OneDrive/Desktop/GD32VW553/V1_MQTT_OK/GD32VW55X_Wifi_BLE_SDK/GD32VW55x_RELEASE_V1.0.2/MSDK/wpa_supplicant/src/ap\ap_config.c **** #ifdef CONFIG_NO_TKIP
  81:C:/Users/stapi/OneDrive/Desktop/GD32VW553/V1_MQTT_OK/GD32VW55X_Wifi_BLE_SDK/GD32VW55x_RELEASE_V1.0.2/MSDK/wpa_supplicant/src/ap\ap_config.c **** 	bss->wpa_pairwise = WPA_CIPHER_CCMP;
  82:C:/Users/stapi/OneDrive/Desktop/GD32VW553/V1_MQTT_OK/GD32VW55X_Wifi_BLE_SDK/GD32VW55x_RELEASE_V1.0.2/MSDK/wpa_supplicant/src/ap\ap_config.c **** 	bss->wpa_group = WPA_CIPHER_CCMP;
  83:C:/Users/stapi/OneDrive/Desktop/GD32VW553/V1_MQTT_OK/GD32VW55X_Wifi_BLE_SDK/GD32VW55x_RELEASE_V1.0.2/MSDK/wpa_supplicant/src/ap\ap_config.c **** #else /* CONFIG_NO_TKIP */
  84:C:/Users/stapi/OneDrive/Desktop/GD32VW553/V1_MQTT_OK/GD32VW55X_Wifi_BLE_SDK/GD32VW55x_RELEASE_V1.0.2/MSDK/wpa_supplicant/src/ap\ap_config.c **** 	bss->wpa_pairwise = WPA_CIPHER_TKIP;
  85:C:/Users/stapi/OneDrive/Desktop/GD32VW553/V1_MQTT_OK/GD32VW55X_Wifi_BLE_SDK/GD32VW55x_RELEASE_V1.0.2/MSDK/wpa_supplicant/src/ap\ap_config.c **** 	bss->wpa_group = WPA_CIPHER_TKIP;
  86:C:/Users/stapi/OneDrive/Desktop/GD32VW553/V1_MQTT_OK/GD32VW55X_Wifi_BLE_SDK/GD32VW55x_RELEASE_V1.0.2/MSDK/wpa_supplicant/src/ap\ap_config.c **** #endif /* CONFIG_NO_TKIP */
  87:C:/Users/stapi/OneDrive/Desktop/GD32VW553/V1_MQTT_OK/GD32VW55X_Wifi_BLE_SDK/GD32VW55x_RELEASE_V1.0.2/MSDK/wpa_supplicant/src/ap\ap_config.c **** 	bss->rsn_pairwise = 0;
  88:C:/Users/stapi/OneDrive/Desktop/GD32VW553/V1_MQTT_OK/GD32VW55X_Wifi_BLE_SDK/GD32VW55x_RELEASE_V1.0.2/MSDK/wpa_supplicant/src/ap\ap_config.c **** 
  89:C:/Users/stapi/OneDrive/Desktop/GD32VW553/V1_MQTT_OK/GD32VW55X_Wifi_BLE_SDK/GD32VW55x_RELEASE_V1.0.2/MSDK/wpa_supplicant/src/ap\ap_config.c **** 	bss->max_num_sta = MAX_STA_COUNT;
  90:C:/Users/stapi/OneDrive/Desktop/GD32VW553/V1_MQTT_OK/GD32VW55X_Wifi_BLE_SDK/GD32VW55x_RELEASE_V1.0.2/MSDK/wpa_supplicant/src/ap\ap_config.c **** 
  91:C:/Users/stapi/OneDrive/Desktop/GD32VW553/V1_MQTT_OK/GD32VW55X_Wifi_BLE_SDK/GD32VW55x_RELEASE_V1.0.2/MSDK/wpa_supplicant/src/ap\ap_config.c **** 	bss->dtim_period = 2;
  92:C:/Users/stapi/OneDrive/Desktop/GD32VW553/V1_MQTT_OK/GD32VW55X_Wifi_BLE_SDK/GD32VW55x_RELEASE_V1.0.2/MSDK/wpa_supplicant/src/ap\ap_config.c **** 
  93:C:/Users/stapi/OneDrive/Desktop/GD32VW553/V1_MQTT_OK/GD32VW55X_Wifi_BLE_SDK/GD32VW55x_RELEASE_V1.0.2/MSDK/wpa_supplicant/src/ap\ap_config.c **** 	bss->radius_server_auth_port = 1812;
  94:C:/Users/stapi/OneDrive/Desktop/GD32VW553/V1_MQTT_OK/GD32VW55X_Wifi_BLE_SDK/GD32VW55x_RELEASE_V1.0.2/MSDK/wpa_supplicant/src/ap\ap_config.c **** 	bss->eap_sim_db_timeout = 1;
  95:C:/Users/stapi/OneDrive/Desktop/GD32VW553/V1_MQTT_OK/GD32VW55X_Wifi_BLE_SDK/GD32VW55x_RELEASE_V1.0.2/MSDK/wpa_supplicant/src/ap\ap_config.c **** 	bss->eap_sim_id = 3;
  96:C:/Users/stapi/OneDrive/Desktop/GD32VW553/V1_MQTT_OK/GD32VW55X_Wifi_BLE_SDK/GD32VW55x_RELEASE_V1.0.2/MSDK/wpa_supplicant/src/ap\ap_config.c **** 	bss->ap_max_inactivity = AP_MAX_INACTIVITY;
  97:C:/Users/stapi/OneDrive/Desktop/GD32VW553/V1_MQTT_OK/GD32VW55X_Wifi_BLE_SDK/GD32VW55x_RELEASE_V1.0.2/MSDK/wpa_supplicant/src/ap\ap_config.c **** 	bss->eapol_version = EAPOL_VERSION;
  98:C:/Users/stapi/OneDrive/Desktop/GD32VW553/V1_MQTT_OK/GD32VW55X_Wifi_BLE_SDK/GD32VW55x_RELEASE_V1.0.2/MSDK/wpa_supplicant/src/ap\ap_config.c **** 
  99:C:/Users/stapi/OneDrive/Desktop/GD32VW553/V1_MQTT_OK/GD32VW55X_Wifi_BLE_SDK/GD32VW55x_RELEASE_V1.0.2/MSDK/wpa_supplicant/src/ap\ap_config.c **** 	bss->max_listen_interval = 65535;
 100:C:/Users/stapi/OneDrive/Desktop/GD32VW553/V1_MQTT_OK/GD32VW55X_Wifi_BLE_SDK/GD32VW55x_RELEASE_V1.0.2/MSDK/wpa_supplicant/src/ap\ap_config.c **** 
 101:C:/Users/stapi/OneDrive/Desktop/GD32VW553/V1_MQTT_OK/GD32VW55X_Wifi_BLE_SDK/GD32VW55x_RELEASE_V1.0.2/MSDK/wpa_supplicant/src/ap\ap_config.c **** 	bss->pwd_group = 19; /* ECC: GF(p=256) */
 102:C:/Users/stapi/OneDrive/Desktop/GD32VW553/V1_MQTT_OK/GD32VW55X_Wifi_BLE_SDK/GD32VW55x_RELEASE_V1.0.2/MSDK/wpa_supplicant/src/ap\ap_config.c **** 
 103:C:/Users/stapi/OneDrive/Desktop/GD32VW553/V1_MQTT_OK/GD32VW55X_Wifi_BLE_SDK/GD32VW55x_RELEASE_V1.0.2/MSDK/wpa_supplicant/src/ap\ap_config.c **** 	bss->assoc_sa_query_max_timeout = 1000;
 104:C:/Users/stapi/OneDrive/Desktop/GD32VW553/V1_MQTT_OK/GD32VW55X_Wifi_BLE_SDK/GD32VW55x_RELEASE_V1.0.2/MSDK/wpa_supplicant/src/ap\ap_config.c **** 	bss->assoc_sa_query_retry_timeout = 201;
 105:C:/Users/stapi/OneDrive/Desktop/GD32VW553/V1_MQTT_OK/GD32VW55X_Wifi_BLE_SDK/GD32VW55x_RELEASE_V1.0.2/MSDK/wpa_supplicant/src/ap\ap_config.c **** 	bss->group_mgmt_cipher = WPA_CIPHER_AES_128_CMAC;
 106:C:/Users/stapi/OneDrive/Desktop/GD32VW553/V1_MQTT_OK/GD32VW55X_Wifi_BLE_SDK/GD32VW55x_RELEASE_V1.0.2/MSDK/wpa_supplicant/src/ap\ap_config.c **** #ifdef EAP_SERVER_FAST
 107:C:/Users/stapi/OneDrive/Desktop/GD32VW553/V1_MQTT_OK/GD32VW55X_Wifi_BLE_SDK/GD32VW55x_RELEASE_V1.0.2/MSDK/wpa_supplicant/src/ap\ap_config.c **** 	 /* both anonymous and authenticated provisioning */
 108:C:/Users/stapi/OneDrive/Desktop/GD32VW553/V1_MQTT_OK/GD32VW55X_Wifi_BLE_SDK/GD32VW55x_RELEASE_V1.0.2/MSDK/wpa_supplicant/src/ap\ap_config.c **** 	bss->eap_fast_prov = 3;
 109:C:/Users/stapi/OneDrive/Desktop/GD32VW553/V1_MQTT_OK/GD32VW55X_Wifi_BLE_SDK/GD32VW55x_RELEASE_V1.0.2/MSDK/wpa_supplicant/src/ap\ap_config.c **** 	bss->pac_key_lifetime = 7 * 24 * 60 * 60;
 110:C:/Users/stapi/OneDrive/Desktop/GD32VW553/V1_MQTT_OK/GD32VW55X_Wifi_BLE_SDK/GD32VW55x_RELEASE_V1.0.2/MSDK/wpa_supplicant/src/ap\ap_config.c **** 	bss->pac_key_refresh_time = 1 * 24 * 60 * 60;
 111:C:/Users/stapi/OneDrive/Desktop/GD32VW553/V1_MQTT_OK/GD32VW55X_Wifi_BLE_SDK/GD32VW55x_RELEASE_V1.0.2/MSDK/wpa_supplicant/src/ap\ap_config.c **** #endif /* EAP_SERVER_FAST */
 112:C:/Users/stapi/OneDrive/Desktop/GD32VW553/V1_MQTT_OK/GD32VW55X_Wifi_BLE_SDK/GD32VW55x_RELEASE_V1.0.2/MSDK/wpa_supplicant/src/ap\ap_config.c **** 
 113:C:/Users/stapi/OneDrive/Desktop/GD32VW553/V1_MQTT_OK/GD32VW55X_Wifi_BLE_SDK/GD32VW55x_RELEASE_V1.0.2/MSDK/wpa_supplicant/src/ap\ap_config.c **** 	/* Set to -1 as defaults depends on HT in setup */
 114:C:/Users/stapi/OneDrive/Desktop/GD32VW553/V1_MQTT_OK/GD32VW55X_Wifi_BLE_SDK/GD32VW55x_RELEASE_V1.0.2/MSDK/wpa_supplicant/src/ap\ap_config.c **** 	bss->wmm_enabled = -1;
 115:C:/Users/stapi/OneDrive/Desktop/GD32VW553/V1_MQTT_OK/GD32VW55X_Wifi_BLE_SDK/GD32VW55x_RELEASE_V1.0.2/MSDK/wpa_supplicant/src/ap\ap_config.c **** 
 116:C:/Users/stapi/OneDrive/Desktop/GD32VW553/V1_MQTT_OK/GD32VW55X_Wifi_BLE_SDK/GD32VW55x_RELEASE_V1.0.2/MSDK/wpa_supplicant/src/ap\ap_config.c **** #ifdef CONFIG_IEEE80211R_AP
 117:C:/Users/stapi/OneDrive/Desktop/GD32VW553/V1_MQTT_OK/GD32VW55X_Wifi_BLE_SDK/GD32VW55x_RELEASE_V1.0.2/MSDK/wpa_supplicant/src/ap\ap_config.c **** 	bss->ft_over_ds = 1;
 118:C:/Users/stapi/OneDrive/Desktop/GD32VW553/V1_MQTT_OK/GD32VW55X_Wifi_BLE_SDK/GD32VW55x_RELEASE_V1.0.2/MSDK/wpa_supplicant/src/ap\ap_config.c **** 	bss->rkh_pos_timeout = 86400;
 119:C:/Users/stapi/OneDrive/Desktop/GD32VW553/V1_MQTT_OK/GD32VW55X_Wifi_BLE_SDK/GD32VW55x_RELEASE_V1.0.2/MSDK/wpa_supplicant/src/ap\ap_config.c **** 	bss->rkh_neg_timeout = 60;
 120:C:/Users/stapi/OneDrive/Desktop/GD32VW553/V1_MQTT_OK/GD32VW55X_Wifi_BLE_SDK/GD32VW55x_RELEASE_V1.0.2/MSDK/wpa_supplicant/src/ap\ap_config.c **** 	bss->rkh_pull_timeout = 1000;
 121:C:/Users/stapi/OneDrive/Desktop/GD32VW553/V1_MQTT_OK/GD32VW55X_Wifi_BLE_SDK/GD32VW55x_RELEASE_V1.0.2/MSDK/wpa_supplicant/src/ap\ap_config.c **** 	bss->rkh_pull_retries = 4;
 122:C:/Users/stapi/OneDrive/Desktop/GD32VW553/V1_MQTT_OK/GD32VW55X_Wifi_BLE_SDK/GD32VW55x_RELEASE_V1.0.2/MSDK/wpa_supplicant/src/ap\ap_config.c **** 	bss->r0_key_lifetime = 1209600;
 123:C:/Users/stapi/OneDrive/Desktop/GD32VW553/V1_MQTT_OK/GD32VW55X_Wifi_BLE_SDK/GD32VW55x_RELEASE_V1.0.2/MSDK/wpa_supplicant/src/ap\ap_config.c **** #endif /* CONFIG_IEEE80211R_AP */
 124:C:/Users/stapi/OneDrive/Desktop/GD32VW553/V1_MQTT_OK/GD32VW55X_Wifi_BLE_SDK/GD32VW55x_RELEASE_V1.0.2/MSDK/wpa_supplicant/src/ap\ap_config.c **** 
 125:C:/Users/stapi/OneDrive/Desktop/GD32VW553/V1_MQTT_OK/GD32VW55X_Wifi_BLE_SDK/GD32VW55x_RELEASE_V1.0.2/MSDK/wpa_supplicant/src/ap\ap_config.c **** 	bss->radius_das_time_window = 300;
 126:C:/Users/stapi/OneDrive/Desktop/GD32VW553/V1_MQTT_OK/GD32VW55X_Wifi_BLE_SDK/GD32VW55x_RELEASE_V1.0.2/MSDK/wpa_supplicant/src/ap\ap_config.c **** 
 127:C:/Users/stapi/OneDrive/Desktop/GD32VW553/V1_MQTT_OK/GD32VW55X_Wifi_BLE_SDK/GD32VW55x_RELEASE_V1.0.2/MSDK/wpa_supplicant/src/ap\ap_config.c **** 	bss->anti_clogging_threshold = 5;
 128:C:/Users/stapi/OneDrive/Desktop/GD32VW553/V1_MQTT_OK/GD32VW55X_Wifi_BLE_SDK/GD32VW55x_RELEASE_V1.0.2/MSDK/wpa_supplicant/src/ap\ap_config.c **** 	bss->sae_sync = 5;
 129:C:/Users/stapi/OneDrive/Desktop/GD32VW553/V1_MQTT_OK/GD32VW55X_Wifi_BLE_SDK/GD32VW55x_RELEASE_V1.0.2/MSDK/wpa_supplicant/src/ap\ap_config.c **** 
 130:C:/Users/stapi/OneDrive/Desktop/GD32VW553/V1_MQTT_OK/GD32VW55X_Wifi_BLE_SDK/GD32VW55x_RELEASE_V1.0.2/MSDK/wpa_supplicant/src/ap\ap_config.c **** 	bss->gas_frag_limit = 1400;
 131:C:/Users/stapi/OneDrive/Desktop/GD32VW553/V1_MQTT_OK/GD32VW55X_Wifi_BLE_SDK/GD32VW55x_RELEASE_V1.0.2/MSDK/wpa_supplicant/src/ap\ap_config.c **** 
 132:C:/Users/stapi/OneDrive/Desktop/GD32VW553/V1_MQTT_OK/GD32VW55X_Wifi_BLE_SDK/GD32VW55x_RELEASE_V1.0.2/MSDK/wpa_supplicant/src/ap\ap_config.c **** #ifdef CONFIG_FILS
 133:C:/Users/stapi/OneDrive/Desktop/GD32VW553/V1_MQTT_OK/GD32VW55X_Wifi_BLE_SDK/GD32VW55x_RELEASE_V1.0.2/MSDK/wpa_supplicant/src/ap\ap_config.c **** 	dl_list_init(&bss->fils_realms);
 134:C:/Users/stapi/OneDrive/Desktop/GD32VW553/V1_MQTT_OK/GD32VW55X_Wifi_BLE_SDK/GD32VW55x_RELEASE_V1.0.2/MSDK/wpa_supplicant/src/ap\ap_config.c **** 	bss->fils_hlp_wait_time = 30;
 135:C:/Users/stapi/OneDrive/Desktop/GD32VW553/V1_MQTT_OK/GD32VW55X_Wifi_BLE_SDK/GD32VW55x_RELEASE_V1.0.2/MSDK/wpa_supplicant/src/ap\ap_config.c **** 	bss->dhcp_server_port = DHCP_SERVER_PORT;
 136:C:/Users/stapi/OneDrive/Desktop/GD32VW553/V1_MQTT_OK/GD32VW55X_Wifi_BLE_SDK/GD32VW55x_RELEASE_V1.0.2/MSDK/wpa_supplicant/src/ap\ap_config.c **** 	bss->dhcp_relay_port = DHCP_SERVER_PORT;
 137:C:/Users/stapi/OneDrive/Desktop/GD32VW553/V1_MQTT_OK/GD32VW55X_Wifi_BLE_SDK/GD32VW55x_RELEASE_V1.0.2/MSDK/wpa_supplicant/src/ap\ap_config.c **** 	bss->fils_discovery_min_int = 20;
 138:C:/Users/stapi/OneDrive/Desktop/GD32VW553/V1_MQTT_OK/GD32VW55X_Wifi_BLE_SDK/GD32VW55x_RELEASE_V1.0.2/MSDK/wpa_supplicant/src/ap\ap_config.c **** #endif /* CONFIG_FILS */
 139:C:/Users/stapi/OneDrive/Desktop/GD32VW553/V1_MQTT_OK/GD32VW55X_Wifi_BLE_SDK/GD32VW55x_RELEASE_V1.0.2/MSDK/wpa_supplicant/src/ap\ap_config.c **** 
 140:C:/Users/stapi/OneDrive/Desktop/GD32VW553/V1_MQTT_OK/GD32VW55X_Wifi_BLE_SDK/GD32VW55x_RELEASE_V1.0.2/MSDK/wpa_supplicant/src/ap\ap_config.c **** 	bss->broadcast_deauth = 1;
 141:C:/Users/stapi/OneDrive/Desktop/GD32VW553/V1_MQTT_OK/GD32VW55X_Wifi_BLE_SDK/GD32VW55x_RELEASE_V1.0.2/MSDK/wpa_supplicant/src/ap\ap_config.c **** 
 142:C:/Users/stapi/OneDrive/Desktop/GD32VW553/V1_MQTT_OK/GD32VW55X_Wifi_BLE_SDK/GD32VW55x_RELEASE_V1.0.2/MSDK/wpa_supplicant/src/ap\ap_config.c **** #ifdef CONFIG_MBO
 143:C:/Users/stapi/OneDrive/Desktop/GD32VW553/V1_MQTT_OK/GD32VW55X_Wifi_BLE_SDK/GD32VW55x_RELEASE_V1.0.2/MSDK/wpa_supplicant/src/ap\ap_config.c **** 	bss->mbo_cell_data_conn_pref = -1;
 144:C:/Users/stapi/OneDrive/Desktop/GD32VW553/V1_MQTT_OK/GD32VW55X_Wifi_BLE_SDK/GD32VW55x_RELEASE_V1.0.2/MSDK/wpa_supplicant/src/ap\ap_config.c **** #endif /* CONFIG_MBO */
 145:C:/Users/stapi/OneDrive/Desktop/GD32VW553/V1_MQTT_OK/GD32VW55X_Wifi_BLE_SDK/GD32VW55x_RELEASE_V1.0.2/MSDK/wpa_supplicant/src/ap\ap_config.c **** 
 146:C:/Users/stapi/OneDrive/Desktop/GD32VW553/V1_MQTT_OK/GD32VW55X_Wifi_BLE_SDK/GD32VW55x_RELEASE_V1.0.2/MSDK/wpa_supplicant/src/ap\ap_config.c **** 	/* Disable TLS v1.3 by default for now to avoid interoperability issue.
 147:C:/Users/stapi/OneDrive/Desktop/GD32VW553/V1_MQTT_OK/GD32VW55X_Wifi_BLE_SDK/GD32VW55x_RELEASE_V1.0.2/MSDK/wpa_supplicant/src/ap\ap_config.c **** 	 * This can be enabled by default once the implementation has been fully
 148:C:/Users/stapi/OneDrive/Desktop/GD32VW553/V1_MQTT_OK/GD32VW55X_Wifi_BLE_SDK/GD32VW55x_RELEASE_V1.0.2/MSDK/wpa_supplicant/src/ap\ap_config.c **** 	 * completed and tested with other implementations. */
 149:C:/Users/stapi/OneDrive/Desktop/GD32VW553/V1_MQTT_OK/GD32VW55X_Wifi_BLE_SDK/GD32VW55x_RELEASE_V1.0.2/MSDK/wpa_supplicant/src/ap\ap_config.c **** 	bss->tls_flags = TLS_CONN_DISABLE_TLSv1_3;
 150:C:/Users/stapi/OneDrive/Desktop/GD32VW553/V1_MQTT_OK/GD32VW55X_Wifi_BLE_SDK/GD32VW55x_RELEASE_V1.0.2/MSDK/wpa_supplicant/src/ap\ap_config.c **** 
 151:C:/Users/stapi/OneDrive/Desktop/GD32VW553/V1_MQTT_OK/GD32VW55X_Wifi_BLE_SDK/GD32VW55x_RELEASE_V1.0.2/MSDK/wpa_supplicant/src/ap\ap_config.c **** 	bss->max_auth_rounds = 100;
 152:C:/Users/stapi/OneDrive/Desktop/GD32VW553/V1_MQTT_OK/GD32VW55X_Wifi_BLE_SDK/GD32VW55x_RELEASE_V1.0.2/MSDK/wpa_supplicant/src/ap\ap_config.c **** 	bss->max_auth_rounds_short = 50;
 153:C:/Users/stapi/OneDrive/Desktop/GD32VW553/V1_MQTT_OK/GD32VW55X_Wifi_BLE_SDK/GD32VW55x_RELEASE_V1.0.2/MSDK/wpa_supplicant/src/ap\ap_config.c **** 
 154:C:/Users/stapi/OneDrive/Desktop/GD32VW553/V1_MQTT_OK/GD32VW55X_Wifi_BLE_SDK/GD32VW55x_RELEASE_V1.0.2/MSDK/wpa_supplicant/src/ap\ap_config.c **** 	bss->send_probe_response = 1;
 155:C:/Users/stapi/OneDrive/Desktop/GD32VW553/V1_MQTT_OK/GD32VW55X_Wifi_BLE_SDK/GD32VW55x_RELEASE_V1.0.2/MSDK/wpa_supplicant/src/ap\ap_config.c **** 
 156:C:/Users/stapi/OneDrive/Desktop/GD32VW553/V1_MQTT_OK/GD32VW55X_Wifi_BLE_SDK/GD32VW55x_RELEASE_V1.0.2/MSDK/wpa_supplicant/src/ap\ap_config.c **** #ifdef CONFIG_HS20
 157:C:/Users/stapi/OneDrive/Desktop/GD32VW553/V1_MQTT_OK/GD32VW55X_Wifi_BLE_SDK/GD32VW55x_RELEASE_V1.0.2/MSDK/wpa_supplicant/src/ap\ap_config.c **** 	bss->hs20_release = (HS20_VERSION >> 4) + 1;
 158:C:/Users/stapi/OneDrive/Desktop/GD32VW553/V1_MQTT_OK/GD32VW55X_Wifi_BLE_SDK/GD32VW55x_RELEASE_V1.0.2/MSDK/wpa_supplicant/src/ap\ap_config.c **** #endif /* CONFIG_HS20 */
 159:C:/Users/stapi/OneDrive/Desktop/GD32VW553/V1_MQTT_OK/GD32VW55X_Wifi_BLE_SDK/GD32VW55x_RELEASE_V1.0.2/MSDK/wpa_supplicant/src/ap\ap_config.c **** 
 160:C:/Users/stapi/OneDrive/Desktop/GD32VW553/V1_MQTT_OK/GD32VW55X_Wifi_BLE_SDK/GD32VW55x_RELEASE_V1.0.2/MSDK/wpa_supplicant/src/ap\ap_config.c **** #ifdef CONFIG_MACSEC
 161:C:/Users/stapi/OneDrive/Desktop/GD32VW553/V1_MQTT_OK/GD32VW55X_Wifi_BLE_SDK/GD32VW55x_RELEASE_V1.0.2/MSDK/wpa_supplicant/src/ap\ap_config.c **** 	bss->mka_priority = DEFAULT_PRIO_NOT_KEY_SERVER;
 162:C:/Users/stapi/OneDrive/Desktop/GD32VW553/V1_MQTT_OK/GD32VW55X_Wifi_BLE_SDK/GD32VW55x_RELEASE_V1.0.2/MSDK/wpa_supplicant/src/ap\ap_config.c **** 	bss->macsec_port = 1;
 163:C:/Users/stapi/OneDrive/Desktop/GD32VW553/V1_MQTT_OK/GD32VW55X_Wifi_BLE_SDK/GD32VW55x_RELEASE_V1.0.2/MSDK/wpa_supplicant/src/ap\ap_config.c **** #endif /* CONFIG_MACSEC */
 164:C:/Users/stapi/OneDrive/Desktop/GD32VW553/V1_MQTT_OK/GD32VW55X_Wifi_BLE_SDK/GD32VW55x_RELEASE_V1.0.2/MSDK/wpa_supplicant/src/ap\ap_config.c **** 
 165:C:/Users/stapi/OneDrive/Desktop/GD32VW553/V1_MQTT_OK/GD32VW55X_Wifi_BLE_SDK/GD32VW55x_RELEASE_V1.0.2/MSDK/wpa_supplicant/src/ap\ap_config.c **** 	/* Default to strict CRL checking. */
 166:C:/Users/stapi/OneDrive/Desktop/GD32VW553/V1_MQTT_OK/GD32VW55X_Wifi_BLE_SDK/GD32VW55x_RELEASE_V1.0.2/MSDK/wpa_supplicant/src/ap\ap_config.c **** 	bss->check_crl_strict = 1;
 167:C:/Users/stapi/OneDrive/Desktop/GD32VW553/V1_MQTT_OK/GD32VW55X_Wifi_BLE_SDK/GD32VW55x_RELEASE_V1.0.2/MSDK/wpa_supplicant/src/ap\ap_config.c **** 
 168:C:/Users/stapi/OneDrive/Desktop/GD32VW553/V1_MQTT_OK/GD32VW55X_Wifi_BLE_SDK/GD32VW55x_RELEASE_V1.0.2/MSDK/wpa_supplicant/src/ap\ap_config.c **** #ifdef CONFIG_TESTING_OPTIONS
 169:C:/Users/stapi/OneDrive/Desktop/GD32VW553/V1_MQTT_OK/GD32VW55X_Wifi_BLE_SDK/GD32VW55x_RELEASE_V1.0.2/MSDK/wpa_supplicant/src/ap\ap_config.c **** 	bss->sae_commit_status = -1;
 170:C:/Users/stapi/OneDrive/Desktop/GD32VW553/V1_MQTT_OK/GD32VW55X_Wifi_BLE_SDK/GD32VW55x_RELEASE_V1.0.2/MSDK/wpa_supplicant/src/ap\ap_config.c **** #endif /* CONFIG_TESTING_OPTIONS */
 171:C:/Users/stapi/OneDrive/Desktop/GD32VW553/V1_MQTT_OK/GD32VW55X_Wifi_BLE_SDK/GD32VW55x_RELEASE_V1.0.2/MSDK/wpa_supplicant/src/ap\ap_config.c **** 
 172:C:/Users/stapi/OneDrive/Desktop/GD32VW553/V1_MQTT_OK/GD32VW55X_Wifi_BLE_SDK/GD32VW55x_RELEASE_V1.0.2/MSDK/wpa_supplicant/src/ap\ap_config.c **** #ifdef CONFIG_PASN
 173:C:/Users/stapi/OneDrive/Desktop/GD32VW553/V1_MQTT_OK/GD32VW55X_Wifi_BLE_SDK/GD32VW55x_RELEASE_V1.0.2/MSDK/wpa_supplicant/src/ap\ap_config.c **** 	/* comeback after 10 TUs */
 174:C:/Users/stapi/OneDrive/Desktop/GD32VW553/V1_MQTT_OK/GD32VW55X_Wifi_BLE_SDK/GD32VW55x_RELEASE_V1.0.2/MSDK/wpa_supplicant/src/ap\ap_config.c **** 	bss->pasn_comeback_after = 10;
 175:C:/Users/stapi/OneDrive/Desktop/GD32VW553/V1_MQTT_OK/GD32VW55X_Wifi_BLE_SDK/GD32VW55x_RELEASE_V1.0.2/MSDK/wpa_supplicant/src/ap\ap_config.c **** #endif /* CONFIG_PASN */
 176:C:/Users/stapi/OneDrive/Desktop/GD32VW553/V1_MQTT_OK/GD32VW55X_Wifi_BLE_SDK/GD32VW55x_RELEASE_V1.0.2/MSDK/wpa_supplicant/src/ap\ap_config.c **** }
 177:C:/Users/stapi/OneDrive/Desktop/GD32VW553/V1_MQTT_OK/GD32VW55X_Wifi_BLE_SDK/GD32VW55x_RELEASE_V1.0.2/MSDK/wpa_supplicant/src/ap\ap_config.c **** 
 178:C:/Users/stapi/OneDrive/Desktop/GD32VW553/V1_MQTT_OK/GD32VW55X_Wifi_BLE_SDK/GD32VW55x_RELEASE_V1.0.2/MSDK/wpa_supplicant/src/ap\ap_config.c **** 
 179:C:/Users/stapi/OneDrive/Desktop/GD32VW553/V1_MQTT_OK/GD32VW55X_Wifi_BLE_SDK/GD32VW55x_RELEASE_V1.0.2/MSDK/wpa_supplicant/src/ap\ap_config.c **** struct hostapd_config * hostapd_config_defaults(void)
 180:C:/Users/stapi/OneDrive/Desktop/GD32VW553/V1_MQTT_OK/GD32VW55X_Wifi_BLE_SDK/GD32VW55x_RELEASE_V1.0.2/MSDK/wpa_supplicant/src/ap\ap_config.c **** {
 181:C:/Users/stapi/OneDrive/Desktop/GD32VW553/V1_MQTT_OK/GD32VW55X_Wifi_BLE_SDK/GD32VW55x_RELEASE_V1.0.2/MSDK/wpa_supplicant/src/ap\ap_config.c **** #define ecw2cw(ecw) ((1 << (ecw)) - 1)
 182:C:/Users/stapi/OneDrive/Desktop/GD32VW553/V1_MQTT_OK/GD32VW55X_Wifi_BLE_SDK/GD32VW55x_RELEASE_V1.0.2/MSDK/wpa_supplicant/src/ap\ap_config.c **** 
 183:C:/Users/stapi/OneDrive/Desktop/GD32VW553/V1_MQTT_OK/GD32VW55X_Wifi_BLE_SDK/GD32VW55x_RELEASE_V1.0.2/MSDK/wpa_supplicant/src/ap\ap_config.c **** 	struct hostapd_config *conf;
 184:C:/Users/stapi/OneDrive/Desktop/GD32VW553/V1_MQTT_OK/GD32VW55X_Wifi_BLE_SDK/GD32VW55x_RELEASE_V1.0.2/MSDK/wpa_supplicant/src/ap\ap_config.c **** 	struct hostapd_bss_config *bss;
 185:C:/Users/stapi/OneDrive/Desktop/GD32VW553/V1_MQTT_OK/GD32VW55X_Wifi_BLE_SDK/GD32VW55x_RELEASE_V1.0.2/MSDK/wpa_supplicant/src/ap\ap_config.c **** 	const int aCWmin = 4, aCWmax = 10;
 186:C:/Users/stapi/OneDrive/Desktop/GD32VW553/V1_MQTT_OK/GD32VW55X_Wifi_BLE_SDK/GD32VW55x_RELEASE_V1.0.2/MSDK/wpa_supplicant/src/ap\ap_config.c **** 	const struct hostapd_wmm_ac_params ac_bk =
 187:C:/Users/stapi/OneDrive/Desktop/GD32VW553/V1_MQTT_OK/GD32VW55X_Wifi_BLE_SDK/GD32VW55x_RELEASE_V1.0.2/MSDK/wpa_supplicant/src/ap\ap_config.c **** 		{ aCWmin, aCWmax, 7, 0, 0 }; /* background traffic */
 188:C:/Users/stapi/OneDrive/Desktop/GD32VW553/V1_MQTT_OK/GD32VW55X_Wifi_BLE_SDK/GD32VW55x_RELEASE_V1.0.2/MSDK/wpa_supplicant/src/ap\ap_config.c **** 	const struct hostapd_wmm_ac_params ac_be =
 189:C:/Users/stapi/OneDrive/Desktop/GD32VW553/V1_MQTT_OK/GD32VW55X_Wifi_BLE_SDK/GD32VW55x_RELEASE_V1.0.2/MSDK/wpa_supplicant/src/ap\ap_config.c **** 		{ aCWmin, aCWmax, 3, 0, 0 }; /* best effort traffic */
 190:C:/Users/stapi/OneDrive/Desktop/GD32VW553/V1_MQTT_OK/GD32VW55X_Wifi_BLE_SDK/GD32VW55x_RELEASE_V1.0.2/MSDK/wpa_supplicant/src/ap\ap_config.c **** 	const struct hostapd_wmm_ac_params ac_vi = /* video traffic */
 191:C:/Users/stapi/OneDrive/Desktop/GD32VW553/V1_MQTT_OK/GD32VW55X_Wifi_BLE_SDK/GD32VW55x_RELEASE_V1.0.2/MSDK/wpa_supplicant/src/ap\ap_config.c **** 		{ aCWmin - 1, aCWmin, 2, 3008 / 32, 0 };
 192:C:/Users/stapi/OneDrive/Desktop/GD32VW553/V1_MQTT_OK/GD32VW55X_Wifi_BLE_SDK/GD32VW55x_RELEASE_V1.0.2/MSDK/wpa_supplicant/src/ap\ap_config.c **** 	const struct hostapd_wmm_ac_params ac_vo = /* voice traffic */
 193:C:/Users/stapi/OneDrive/Desktop/GD32VW553/V1_MQTT_OK/GD32VW55X_Wifi_BLE_SDK/GD32VW55x_RELEASE_V1.0.2/MSDK/wpa_supplicant/src/ap\ap_config.c **** 		{ aCWmin - 2, aCWmin - 1, 2, 1504 / 32, 0 };
 194:C:/Users/stapi/OneDrive/Desktop/GD32VW553/V1_MQTT_OK/GD32VW55X_Wifi_BLE_SDK/GD32VW55x_RELEASE_V1.0.2/MSDK/wpa_supplicant/src/ap\ap_config.c **** 	const struct hostapd_tx_queue_params txq_bk =
 195:C:/Users/stapi/OneDrive/Desktop/GD32VW553/V1_MQTT_OK/GD32VW55X_Wifi_BLE_SDK/GD32VW55x_RELEASE_V1.0.2/MSDK/wpa_supplicant/src/ap\ap_config.c **** 		{ 7, ecw2cw(aCWmin), ecw2cw(aCWmax), 0 };
 196:C:/Users/stapi/OneDrive/Desktop/GD32VW553/V1_MQTT_OK/GD32VW55X_Wifi_BLE_SDK/GD32VW55x_RELEASE_V1.0.2/MSDK/wpa_supplicant/src/ap\ap_config.c **** 	const struct hostapd_tx_queue_params txq_be =
 197:C:/Users/stapi/OneDrive/Desktop/GD32VW553/V1_MQTT_OK/GD32VW55X_Wifi_BLE_SDK/GD32VW55x_RELEASE_V1.0.2/MSDK/wpa_supplicant/src/ap\ap_config.c **** 		{ 3, ecw2cw(aCWmin), 4 * (ecw2cw(aCWmin) + 1) - 1, 0};
 198:C:/Users/stapi/OneDrive/Desktop/GD32VW553/V1_MQTT_OK/GD32VW55X_Wifi_BLE_SDK/GD32VW55x_RELEASE_V1.0.2/MSDK/wpa_supplicant/src/ap\ap_config.c **** 	const struct hostapd_tx_queue_params txq_vi =
 199:C:/Users/stapi/OneDrive/Desktop/GD32VW553/V1_MQTT_OK/GD32VW55X_Wifi_BLE_SDK/GD32VW55x_RELEASE_V1.0.2/MSDK/wpa_supplicant/src/ap\ap_config.c **** 		{ 1, (ecw2cw(aCWmin) + 1) / 2 - 1, ecw2cw(aCWmin), 30};
 200:C:/Users/stapi/OneDrive/Desktop/GD32VW553/V1_MQTT_OK/GD32VW55X_Wifi_BLE_SDK/GD32VW55x_RELEASE_V1.0.2/MSDK/wpa_supplicant/src/ap\ap_config.c **** 	const struct hostapd_tx_queue_params txq_vo =
 201:C:/Users/stapi/OneDrive/Desktop/GD32VW553/V1_MQTT_OK/GD32VW55X_Wifi_BLE_SDK/GD32VW55x_RELEASE_V1.0.2/MSDK/wpa_supplicant/src/ap\ap_config.c **** 		{ 1, (ecw2cw(aCWmin) + 1) / 4 - 1,
 202:C:/Users/stapi/OneDrive/Desktop/GD32VW553/V1_MQTT_OK/GD32VW55X_Wifi_BLE_SDK/GD32VW55x_RELEASE_V1.0.2/MSDK/wpa_supplicant/src/ap\ap_config.c **** 		  (ecw2cw(aCWmin) + 1) / 2 - 1, 15};
 203:C:/Users/stapi/OneDrive/Desktop/GD32VW553/V1_MQTT_OK/GD32VW55X_Wifi_BLE_SDK/GD32VW55x_RELEASE_V1.0.2/MSDK/wpa_supplicant/src/ap\ap_config.c **** 
 204:C:/Users/stapi/OneDrive/Desktop/GD32VW553/V1_MQTT_OK/GD32VW55X_Wifi_BLE_SDK/GD32VW55x_RELEASE_V1.0.2/MSDK/wpa_supplicant/src/ap\ap_config.c **** #undef ecw2cw
 205:C:/Users/stapi/OneDrive/Desktop/GD32VW553/V1_MQTT_OK/GD32VW55X_Wifi_BLE_SDK/GD32VW55x_RELEASE_V1.0.2/MSDK/wpa_supplicant/src/ap\ap_config.c **** 
 206:C:/Users/stapi/OneDrive/Desktop/GD32VW553/V1_MQTT_OK/GD32VW55X_Wifi_BLE_SDK/GD32VW55x_RELEASE_V1.0.2/MSDK/wpa_supplicant/src/ap\ap_config.c **** 	conf = os_zalloc(sizeof(*conf));
 207:C:/Users/stapi/OneDrive/Desktop/GD32VW553/V1_MQTT_OK/GD32VW55X_Wifi_BLE_SDK/GD32VW55x_RELEASE_V1.0.2/MSDK/wpa_supplicant/src/ap\ap_config.c **** 	bss = os_zalloc(sizeof(*bss));
 208:C:/Users/stapi/OneDrive/Desktop/GD32VW553/V1_MQTT_OK/GD32VW55X_Wifi_BLE_SDK/GD32VW55x_RELEASE_V1.0.2/MSDK/wpa_supplicant/src/ap\ap_config.c **** 	if (conf == NULL || bss == NULL) {
 209:C:/Users/stapi/OneDrive/Desktop/GD32VW553/V1_MQTT_OK/GD32VW55X_Wifi_BLE_SDK/GD32VW55x_RELEASE_V1.0.2/MSDK/wpa_supplicant/src/ap\ap_config.c **** 		wpa_printf(MSG_ERROR, "Failed to allocate memory for "
 210:C:/Users/stapi/OneDrive/Desktop/GD32VW553/V1_MQTT_OK/GD32VW55X_Wifi_BLE_SDK/GD32VW55x_RELEASE_V1.0.2/MSDK/wpa_supplicant/src/ap\ap_config.c **** 			   "configuration data.");
 211:C:/Users/stapi/OneDrive/Desktop/GD32VW553/V1_MQTT_OK/GD32VW55X_Wifi_BLE_SDK/GD32VW55x_RELEASE_V1.0.2/MSDK/wpa_supplicant/src/ap\ap_config.c **** 		os_free(conf);
 212:C:/Users/stapi/OneDrive/Desktop/GD32VW553/V1_MQTT_OK/GD32VW55X_Wifi_BLE_SDK/GD32VW55x_RELEASE_V1.0.2/MSDK/wpa_supplicant/src/ap\ap_config.c **** 		os_free(bss);
 213:C:/Users/stapi/OneDrive/Desktop/GD32VW553/V1_MQTT_OK/GD32VW55X_Wifi_BLE_SDK/GD32VW55x_RELEASE_V1.0.2/MSDK/wpa_supplicant/src/ap\ap_config.c **** 		return NULL;
 214:C:/Users/stapi/OneDrive/Desktop/GD32VW553/V1_MQTT_OK/GD32VW55X_Wifi_BLE_SDK/GD32VW55x_RELEASE_V1.0.2/MSDK/wpa_supplicant/src/ap\ap_config.c **** 	}
 215:C:/Users/stapi/OneDrive/Desktop/GD32VW553/V1_MQTT_OK/GD32VW55X_Wifi_BLE_SDK/GD32VW55x_RELEASE_V1.0.2/MSDK/wpa_supplicant/src/ap\ap_config.c **** 	conf->bss = os_calloc(1, sizeof(struct hostapd_bss_config *));
 216:C:/Users/stapi/OneDrive/Desktop/GD32VW553/V1_MQTT_OK/GD32VW55X_Wifi_BLE_SDK/GD32VW55x_RELEASE_V1.0.2/MSDK/wpa_supplicant/src/ap\ap_config.c **** 	if (conf->bss == NULL) {
 217:C:/Users/stapi/OneDrive/Desktop/GD32VW553/V1_MQTT_OK/GD32VW55X_Wifi_BLE_SDK/GD32VW55x_RELEASE_V1.0.2/MSDK/wpa_supplicant/src/ap\ap_config.c **** 		os_free(conf);
 218:C:/Users/stapi/OneDrive/Desktop/GD32VW553/V1_MQTT_OK/GD32VW55X_Wifi_BLE_SDK/GD32VW55x_RELEASE_V1.0.2/MSDK/wpa_supplicant/src/ap\ap_config.c **** 		os_free(bss);
 219:C:/Users/stapi/OneDrive/Desktop/GD32VW553/V1_MQTT_OK/GD32VW55X_Wifi_BLE_SDK/GD32VW55x_RELEASE_V1.0.2/MSDK/wpa_supplicant/src/ap\ap_config.c **** 		return NULL;
 220:C:/Users/stapi/OneDrive/Desktop/GD32VW553/V1_MQTT_OK/GD32VW55X_Wifi_BLE_SDK/GD32VW55x_RELEASE_V1.0.2/MSDK/wpa_supplicant/src/ap\ap_config.c **** 	}
 221:C:/Users/stapi/OneDrive/Desktop/GD32VW553/V1_MQTT_OK/GD32VW55X_Wifi_BLE_SDK/GD32VW55x_RELEASE_V1.0.2/MSDK/wpa_supplicant/src/ap\ap_config.c **** 	conf->bss[0] = bss;
 222:C:/Users/stapi/OneDrive/Desktop/GD32VW553/V1_MQTT_OK/GD32VW55X_Wifi_BLE_SDK/GD32VW55x_RELEASE_V1.0.2/MSDK/wpa_supplicant/src/ap\ap_config.c **** 
 223:C:/Users/stapi/OneDrive/Desktop/GD32VW553/V1_MQTT_OK/GD32VW55X_Wifi_BLE_SDK/GD32VW55x_RELEASE_V1.0.2/MSDK/wpa_supplicant/src/ap\ap_config.c **** 	bss->radius = os_zalloc(sizeof(*bss->radius));
 224:C:/Users/stapi/OneDrive/Desktop/GD32VW553/V1_MQTT_OK/GD32VW55X_Wifi_BLE_SDK/GD32VW55x_RELEASE_V1.0.2/MSDK/wpa_supplicant/src/ap\ap_config.c **** 	if (bss->radius == NULL) {
 225:C:/Users/stapi/OneDrive/Desktop/GD32VW553/V1_MQTT_OK/GD32VW55X_Wifi_BLE_SDK/GD32VW55x_RELEASE_V1.0.2/MSDK/wpa_supplicant/src/ap\ap_config.c **** 		os_free(conf->bss);
 226:C:/Users/stapi/OneDrive/Desktop/GD32VW553/V1_MQTT_OK/GD32VW55X_Wifi_BLE_SDK/GD32VW55x_RELEASE_V1.0.2/MSDK/wpa_supplicant/src/ap\ap_config.c **** 		os_free(conf);
 227:C:/Users/stapi/OneDrive/Desktop/GD32VW553/V1_MQTT_OK/GD32VW55X_Wifi_BLE_SDK/GD32VW55x_RELEASE_V1.0.2/MSDK/wpa_supplicant/src/ap\ap_config.c **** 		os_free(bss);
 228:C:/Users/stapi/OneDrive/Desktop/GD32VW553/V1_MQTT_OK/GD32VW55X_Wifi_BLE_SDK/GD32VW55x_RELEASE_V1.0.2/MSDK/wpa_supplicant/src/ap\ap_config.c **** 		return NULL;
 229:C:/Users/stapi/OneDrive/Desktop/GD32VW553/V1_MQTT_OK/GD32VW55X_Wifi_BLE_SDK/GD32VW55x_RELEASE_V1.0.2/MSDK/wpa_supplicant/src/ap\ap_config.c **** 	}
 230:C:/Users/stapi/OneDrive/Desktop/GD32VW553/V1_MQTT_OK/GD32VW55X_Wifi_BLE_SDK/GD32VW55x_RELEASE_V1.0.2/MSDK/wpa_supplicant/src/ap\ap_config.c **** 
 231:C:/Users/stapi/OneDrive/Desktop/GD32VW553/V1_MQTT_OK/GD32VW55X_Wifi_BLE_SDK/GD32VW55x_RELEASE_V1.0.2/MSDK/wpa_supplicant/src/ap\ap_config.c **** 	hostapd_config_defaults_bss(bss);
 232:C:/Users/stapi/OneDrive/Desktop/GD32VW553/V1_MQTT_OK/GD32VW55X_Wifi_BLE_SDK/GD32VW55x_RELEASE_V1.0.2/MSDK/wpa_supplicant/src/ap\ap_config.c **** 
 233:C:/Users/stapi/OneDrive/Desktop/GD32VW553/V1_MQTT_OK/GD32VW55X_Wifi_BLE_SDK/GD32VW55x_RELEASE_V1.0.2/MSDK/wpa_supplicant/src/ap\ap_config.c **** 	conf->num_bss = 1;
 234:C:/Users/stapi/OneDrive/Desktop/GD32VW553/V1_MQTT_OK/GD32VW55X_Wifi_BLE_SDK/GD32VW55x_RELEASE_V1.0.2/MSDK/wpa_supplicant/src/ap\ap_config.c **** 
 235:C:/Users/stapi/OneDrive/Desktop/GD32VW553/V1_MQTT_OK/GD32VW55X_Wifi_BLE_SDK/GD32VW55x_RELEASE_V1.0.2/MSDK/wpa_supplicant/src/ap\ap_config.c **** 	conf->beacon_int = 100;
 236:C:/Users/stapi/OneDrive/Desktop/GD32VW553/V1_MQTT_OK/GD32VW55X_Wifi_BLE_SDK/GD32VW55x_RELEASE_V1.0.2/MSDK/wpa_supplicant/src/ap\ap_config.c **** 	conf->rts_threshold = -2; /* use driver default: 2347 */
 237:C:/Users/stapi/OneDrive/Desktop/GD32VW553/V1_MQTT_OK/GD32VW55X_Wifi_BLE_SDK/GD32VW55x_RELEASE_V1.0.2/MSDK/wpa_supplicant/src/ap\ap_config.c **** 	conf->fragm_threshold = -2; /* user driver default: 2346 */
 238:C:/Users/stapi/OneDrive/Desktop/GD32VW553/V1_MQTT_OK/GD32VW55X_Wifi_BLE_SDK/GD32VW55x_RELEASE_V1.0.2/MSDK/wpa_supplicant/src/ap\ap_config.c **** 	/* Set to invalid value means do not add Power Constraint IE */
 239:C:/Users/stapi/OneDrive/Desktop/GD32VW553/V1_MQTT_OK/GD32VW55X_Wifi_BLE_SDK/GD32VW55x_RELEASE_V1.0.2/MSDK/wpa_supplicant/src/ap\ap_config.c **** 	conf->local_pwr_constraint = -1;
 240:C:/Users/stapi/OneDrive/Desktop/GD32VW553/V1_MQTT_OK/GD32VW55X_Wifi_BLE_SDK/GD32VW55x_RELEASE_V1.0.2/MSDK/wpa_supplicant/src/ap\ap_config.c **** 
 241:C:/Users/stapi/OneDrive/Desktop/GD32VW553/V1_MQTT_OK/GD32VW55X_Wifi_BLE_SDK/GD32VW55x_RELEASE_V1.0.2/MSDK/wpa_supplicant/src/ap\ap_config.c **** 	conf->wmm_ac_params[0] = ac_be;
 242:C:/Users/stapi/OneDrive/Desktop/GD32VW553/V1_MQTT_OK/GD32VW55X_Wifi_BLE_SDK/GD32VW55x_RELEASE_V1.0.2/MSDK/wpa_supplicant/src/ap\ap_config.c **** 	conf->wmm_ac_params[1] = ac_bk;
 243:C:/Users/stapi/OneDrive/Desktop/GD32VW553/V1_MQTT_OK/GD32VW55X_Wifi_BLE_SDK/GD32VW55x_RELEASE_V1.0.2/MSDK/wpa_supplicant/src/ap\ap_config.c **** 	conf->wmm_ac_params[2] = ac_vi;
 244:C:/Users/stapi/OneDrive/Desktop/GD32VW553/V1_MQTT_OK/GD32VW55X_Wifi_BLE_SDK/GD32VW55x_RELEASE_V1.0.2/MSDK/wpa_supplicant/src/ap\ap_config.c **** 	conf->wmm_ac_params[3] = ac_vo;
 245:C:/Users/stapi/OneDrive/Desktop/GD32VW553/V1_MQTT_OK/GD32VW55X_Wifi_BLE_SDK/GD32VW55x_RELEASE_V1.0.2/MSDK/wpa_supplicant/src/ap\ap_config.c **** 
 246:C:/Users/stapi/OneDrive/Desktop/GD32VW553/V1_MQTT_OK/GD32VW55X_Wifi_BLE_SDK/GD32VW55x_RELEASE_V1.0.2/MSDK/wpa_supplicant/src/ap\ap_config.c **** 	conf->tx_queue[0] = txq_vo;
 247:C:/Users/stapi/OneDrive/Desktop/GD32VW553/V1_MQTT_OK/GD32VW55X_Wifi_BLE_SDK/GD32VW55x_RELEASE_V1.0.2/MSDK/wpa_supplicant/src/ap\ap_config.c **** 	conf->tx_queue[1] = txq_vi;
 248:C:/Users/stapi/OneDrive/Desktop/GD32VW553/V1_MQTT_OK/GD32VW55X_Wifi_BLE_SDK/GD32VW55x_RELEASE_V1.0.2/MSDK/wpa_supplicant/src/ap\ap_config.c **** 	conf->tx_queue[2] = txq_be;
 249:C:/Users/stapi/OneDrive/Desktop/GD32VW553/V1_MQTT_OK/GD32VW55X_Wifi_BLE_SDK/GD32VW55x_RELEASE_V1.0.2/MSDK/wpa_supplicant/src/ap\ap_config.c **** 	conf->tx_queue[3] = txq_bk;
 250:C:/Users/stapi/OneDrive/Desktop/GD32VW553/V1_MQTT_OK/GD32VW55X_Wifi_BLE_SDK/GD32VW55x_RELEASE_V1.0.2/MSDK/wpa_supplicant/src/ap\ap_config.c **** 
 251:C:/Users/stapi/OneDrive/Desktop/GD32VW553/V1_MQTT_OK/GD32VW55X_Wifi_BLE_SDK/GD32VW55x_RELEASE_V1.0.2/MSDK/wpa_supplicant/src/ap\ap_config.c **** 	conf->ht_capab = HT_CAP_INFO_SMPS_DISABLED;
 252:C:/Users/stapi/OneDrive/Desktop/GD32VW553/V1_MQTT_OK/GD32VW55X_Wifi_BLE_SDK/GD32VW55x_RELEASE_V1.0.2/MSDK/wpa_supplicant/src/ap\ap_config.c **** 
 253:C:/Users/stapi/OneDrive/Desktop/GD32VW553/V1_MQTT_OK/GD32VW55X_Wifi_BLE_SDK/GD32VW55x_RELEASE_V1.0.2/MSDK/wpa_supplicant/src/ap\ap_config.c **** 	conf->ap_table_max_size = 255;
 254:C:/Users/stapi/OneDrive/Desktop/GD32VW553/V1_MQTT_OK/GD32VW55X_Wifi_BLE_SDK/GD32VW55x_RELEASE_V1.0.2/MSDK/wpa_supplicant/src/ap\ap_config.c **** 	conf->ap_table_expiration_time = 60;
 255:C:/Users/stapi/OneDrive/Desktop/GD32VW553/V1_MQTT_OK/GD32VW55X_Wifi_BLE_SDK/GD32VW55x_RELEASE_V1.0.2/MSDK/wpa_supplicant/src/ap\ap_config.c **** 	conf->track_sta_max_age = 180;
 256:C:/Users/stapi/OneDrive/Desktop/GD32VW553/V1_MQTT_OK/GD32VW55X_Wifi_BLE_SDK/GD32VW55x_RELEASE_V1.0.2/MSDK/wpa_supplicant/src/ap\ap_config.c **** 
 257:C:/Users/stapi/OneDrive/Desktop/GD32VW553/V1_MQTT_OK/GD32VW55X_Wifi_BLE_SDK/GD32VW55x_RELEASE_V1.0.2/MSDK/wpa_supplicant/src/ap\ap_config.c **** #ifdef CONFIG_TESTING_OPTIONS
 258:C:/Users/stapi/OneDrive/Desktop/GD32VW553/V1_MQTT_OK/GD32VW55X_Wifi_BLE_SDK/GD32VW55x_RELEASE_V1.0.2/MSDK/wpa_supplicant/src/ap\ap_config.c **** 	conf->ignore_probe_probability = 0.0;
 259:C:/Users/stapi/OneDrive/Desktop/GD32VW553/V1_MQTT_OK/GD32VW55X_Wifi_BLE_SDK/GD32VW55x_RELEASE_V1.0.2/MSDK/wpa_supplicant/src/ap\ap_config.c **** 	conf->ignore_auth_probability = 0.0;
 260:C:/Users/stapi/OneDrive/Desktop/GD32VW553/V1_MQTT_OK/GD32VW55X_Wifi_BLE_SDK/GD32VW55x_RELEASE_V1.0.2/MSDK/wpa_supplicant/src/ap\ap_config.c **** 	conf->ignore_assoc_probability = 0.0;
 261:C:/Users/stapi/OneDrive/Desktop/GD32VW553/V1_MQTT_OK/GD32VW55X_Wifi_BLE_SDK/GD32VW55x_RELEASE_V1.0.2/MSDK/wpa_supplicant/src/ap\ap_config.c **** 	conf->ignore_reassoc_probability = 0.0;
 262:C:/Users/stapi/OneDrive/Desktop/GD32VW553/V1_MQTT_OK/GD32VW55X_Wifi_BLE_SDK/GD32VW55x_RELEASE_V1.0.2/MSDK/wpa_supplicant/src/ap\ap_config.c **** 	conf->corrupt_gtk_rekey_mic_probability = 0.0;
 263:C:/Users/stapi/OneDrive/Desktop/GD32VW553/V1_MQTT_OK/GD32VW55X_Wifi_BLE_SDK/GD32VW55x_RELEASE_V1.0.2/MSDK/wpa_supplicant/src/ap\ap_config.c **** 	conf->ecsa_ie_only = 0;
 264:C:/Users/stapi/OneDrive/Desktop/GD32VW553/V1_MQTT_OK/GD32VW55X_Wifi_BLE_SDK/GD32VW55x_RELEASE_V1.0.2/MSDK/wpa_supplicant/src/ap\ap_config.c **** #endif /* CONFIG_TESTING_OPTIONS */
 265:C:/Users/stapi/OneDrive/Desktop/GD32VW553/V1_MQTT_OK/GD32VW55X_Wifi_BLE_SDK/GD32VW55x_RELEASE_V1.0.2/MSDK/wpa_supplicant/src/ap\ap_config.c **** 
 266:C:/Users/stapi/OneDrive/Desktop/GD32VW553/V1_MQTT_OK/GD32VW55X_Wifi_BLE_SDK/GD32VW55x_RELEASE_V1.0.2/MSDK/wpa_supplicant/src/ap\ap_config.c **** 	conf->acs = 0;
 267:C:/Users/stapi/OneDrive/Desktop/GD32VW553/V1_MQTT_OK/GD32VW55X_Wifi_BLE_SDK/GD32VW55x_RELEASE_V1.0.2/MSDK/wpa_supplicant/src/ap\ap_config.c **** 	conf->acs_ch_list.num = 0;
 268:C:/Users/stapi/OneDrive/Desktop/GD32VW553/V1_MQTT_OK/GD32VW55X_Wifi_BLE_SDK/GD32VW55x_RELEASE_V1.0.2/MSDK/wpa_supplicant/src/ap\ap_config.c **** #ifdef CONFIG_ACS
 269:C:/Users/stapi/OneDrive/Desktop/GD32VW553/V1_MQTT_OK/GD32VW55X_Wifi_BLE_SDK/GD32VW55x_RELEASE_V1.0.2/MSDK/wpa_supplicant/src/ap\ap_config.c **** 	conf->acs_num_scans = 5;
 270:C:/Users/stapi/OneDrive/Desktop/GD32VW553/V1_MQTT_OK/GD32VW55X_Wifi_BLE_SDK/GD32VW55x_RELEASE_V1.0.2/MSDK/wpa_supplicant/src/ap\ap_config.c **** #endif /* CONFIG_ACS */
 271:C:/Users/stapi/OneDrive/Desktop/GD32VW553/V1_MQTT_OK/GD32VW55X_Wifi_BLE_SDK/GD32VW55x_RELEASE_V1.0.2/MSDK/wpa_supplicant/src/ap\ap_config.c **** 
 272:C:/Users/stapi/OneDrive/Desktop/GD32VW553/V1_MQTT_OK/GD32VW55X_Wifi_BLE_SDK/GD32VW55x_RELEASE_V1.0.2/MSDK/wpa_supplicant/src/ap\ap_config.c **** #ifdef CONFIG_IEEE80211AX
 273:C:/Users/stapi/OneDrive/Desktop/GD32VW553/V1_MQTT_OK/GD32VW55X_Wifi_BLE_SDK/GD32VW55x_RELEASE_V1.0.2/MSDK/wpa_supplicant/src/ap\ap_config.c **** 	conf->he_op.he_rts_threshold = HE_OPERATION_RTS_THRESHOLD_MASK >>
 274:C:/Users/stapi/OneDrive/Desktop/GD32VW553/V1_MQTT_OK/GD32VW55X_Wifi_BLE_SDK/GD32VW55x_RELEASE_V1.0.2/MSDK/wpa_supplicant/src/ap\ap_config.c **** 		HE_OPERATION_RTS_THRESHOLD_OFFSET;
 275:C:/Users/stapi/OneDrive/Desktop/GD32VW553/V1_MQTT_OK/GD32VW55X_Wifi_BLE_SDK/GD32VW55x_RELEASE_V1.0.2/MSDK/wpa_supplicant/src/ap\ap_config.c **** 	/* Set default basic MCS/NSS set to single stream MCS 0-7 */
 276:C:/Users/stapi/OneDrive/Desktop/GD32VW553/V1_MQTT_OK/GD32VW55X_Wifi_BLE_SDK/GD32VW55x_RELEASE_V1.0.2/MSDK/wpa_supplicant/src/ap\ap_config.c **** 	conf->he_op.he_basic_mcs_nss_set = 0xfffc;
 277:C:/Users/stapi/OneDrive/Desktop/GD32VW553/V1_MQTT_OK/GD32VW55X_Wifi_BLE_SDK/GD32VW55x_RELEASE_V1.0.2/MSDK/wpa_supplicant/src/ap\ap_config.c **** 	conf->he_op.he_bss_color_disabled = 1;
 278:C:/Users/stapi/OneDrive/Desktop/GD32VW553/V1_MQTT_OK/GD32VW55X_Wifi_BLE_SDK/GD32VW55x_RELEASE_V1.0.2/MSDK/wpa_supplicant/src/ap\ap_config.c **** 	conf->he_op.he_bss_color_partial = 0;
 279:C:/Users/stapi/OneDrive/Desktop/GD32VW553/V1_MQTT_OK/GD32VW55X_Wifi_BLE_SDK/GD32VW55x_RELEASE_V1.0.2/MSDK/wpa_supplicant/src/ap\ap_config.c **** 	conf->he_op.he_bss_color = os_random() % 63 + 1;
 280:C:/Users/stapi/OneDrive/Desktop/GD32VW553/V1_MQTT_OK/GD32VW55X_Wifi_BLE_SDK/GD32VW55x_RELEASE_V1.0.2/MSDK/wpa_supplicant/src/ap\ap_config.c **** 	conf->he_op.he_twt_responder = 1;
 281:C:/Users/stapi/OneDrive/Desktop/GD32VW553/V1_MQTT_OK/GD32VW55X_Wifi_BLE_SDK/GD32VW55x_RELEASE_V1.0.2/MSDK/wpa_supplicant/src/ap\ap_config.c **** 	conf->he_6ghz_max_mpdu = 2;
 282:C:/Users/stapi/OneDrive/Desktop/GD32VW553/V1_MQTT_OK/GD32VW55X_Wifi_BLE_SDK/GD32VW55x_RELEASE_V1.0.2/MSDK/wpa_supplicant/src/ap\ap_config.c **** 	conf->he_6ghz_max_ampdu_len_exp = 7;
 283:C:/Users/stapi/OneDrive/Desktop/GD32VW553/V1_MQTT_OK/GD32VW55X_Wifi_BLE_SDK/GD32VW55x_RELEASE_V1.0.2/MSDK/wpa_supplicant/src/ap\ap_config.c **** 	conf->he_6ghz_rx_ant_pat = 1;
 284:C:/Users/stapi/OneDrive/Desktop/GD32VW553/V1_MQTT_OK/GD32VW55X_Wifi_BLE_SDK/GD32VW55x_RELEASE_V1.0.2/MSDK/wpa_supplicant/src/ap\ap_config.c **** 	conf->he_6ghz_tx_ant_pat = 1;
 285:C:/Users/stapi/OneDrive/Desktop/GD32VW553/V1_MQTT_OK/GD32VW55X_Wifi_BLE_SDK/GD32VW55x_RELEASE_V1.0.2/MSDK/wpa_supplicant/src/ap\ap_config.c **** #endif /* CONFIG_IEEE80211AX */
 286:C:/Users/stapi/OneDrive/Desktop/GD32VW553/V1_MQTT_OK/GD32VW55X_Wifi_BLE_SDK/GD32VW55x_RELEASE_V1.0.2/MSDK/wpa_supplicant/src/ap\ap_config.c **** 
 287:C:/Users/stapi/OneDrive/Desktop/GD32VW553/V1_MQTT_OK/GD32VW55X_Wifi_BLE_SDK/GD32VW55x_RELEASE_V1.0.2/MSDK/wpa_supplicant/src/ap\ap_config.c **** 	/* The third octet of the country string uses an ASCII space character
 288:C:/Users/stapi/OneDrive/Desktop/GD32VW553/V1_MQTT_OK/GD32VW55X_Wifi_BLE_SDK/GD32VW55x_RELEASE_V1.0.2/MSDK/wpa_supplicant/src/ap\ap_config.c **** 	 * by default to indicate that the regulations encompass all
 289:C:/Users/stapi/OneDrive/Desktop/GD32VW553/V1_MQTT_OK/GD32VW55X_Wifi_BLE_SDK/GD32VW55x_RELEASE_V1.0.2/MSDK/wpa_supplicant/src/ap\ap_config.c **** 	 * environments for the current frequency band in the country. */
 290:C:/Users/stapi/OneDrive/Desktop/GD32VW553/V1_MQTT_OK/GD32VW55X_Wifi_BLE_SDK/GD32VW55x_RELEASE_V1.0.2/MSDK/wpa_supplicant/src/ap\ap_config.c **** 	conf->country[2] = ' ';
 291:C:/Users/stapi/OneDrive/Desktop/GD32VW553/V1_MQTT_OK/GD32VW55X_Wifi_BLE_SDK/GD32VW55x_RELEASE_V1.0.2/MSDK/wpa_supplicant/src/ap\ap_config.c **** 
 292:C:/Users/stapi/OneDrive/Desktop/GD32VW553/V1_MQTT_OK/GD32VW55X_Wifi_BLE_SDK/GD32VW55x_RELEASE_V1.0.2/MSDK/wpa_supplicant/src/ap\ap_config.c **** 	conf->rssi_reject_assoc_rssi = 0;
 293:C:/Users/stapi/OneDrive/Desktop/GD32VW553/V1_MQTT_OK/GD32VW55X_Wifi_BLE_SDK/GD32VW55x_RELEASE_V1.0.2/MSDK/wpa_supplicant/src/ap\ap_config.c **** 	conf->rssi_reject_assoc_timeout = 30;
 294:C:/Users/stapi/OneDrive/Desktop/GD32VW553/V1_MQTT_OK/GD32VW55X_Wifi_BLE_SDK/GD32VW55x_RELEASE_V1.0.2/MSDK/wpa_supplicant/src/ap\ap_config.c **** 
 295:C:/Users/stapi/OneDrive/Desktop/GD32VW553/V1_MQTT_OK/GD32VW55X_Wifi_BLE_SDK/GD32VW55x_RELEASE_V1.0.2/MSDK/wpa_supplicant/src/ap\ap_config.c **** #ifdef CONFIG_AIRTIME_POLICY
 296:C:/Users/stapi/OneDrive/Desktop/GD32VW553/V1_MQTT_OK/GD32VW55X_Wifi_BLE_SDK/GD32VW55x_RELEASE_V1.0.2/MSDK/wpa_supplicant/src/ap\ap_config.c **** 	conf->airtime_update_interval = AIRTIME_DEFAULT_UPDATE_INTERVAL;
 297:C:/Users/stapi/OneDrive/Desktop/GD32VW553/V1_MQTT_OK/GD32VW55X_Wifi_BLE_SDK/GD32VW55x_RELEASE_V1.0.2/MSDK/wpa_supplicant/src/ap\ap_config.c **** #endif /* CONFIG_AIRTIME_POLICY */
 298:C:/Users/stapi/OneDrive/Desktop/GD32VW553/V1_MQTT_OK/GD32VW55X_Wifi_BLE_SDK/GD32VW55x_RELEASE_V1.0.2/MSDK/wpa_supplicant/src/ap\ap_config.c **** 
 299:C:/Users/stapi/OneDrive/Desktop/GD32VW553/V1_MQTT_OK/GD32VW55X_Wifi_BLE_SDK/GD32VW55x_RELEASE_V1.0.2/MSDK/wpa_supplicant/src/ap\ap_config.c **** 	return conf;
 300:C:/Users/stapi/OneDrive/Desktop/GD32VW553/V1_MQTT_OK/GD32VW55X_Wifi_BLE_SDK/GD32VW55x_RELEASE_V1.0.2/MSDK/wpa_supplicant/src/ap\ap_config.c **** }
 301:C:/Users/stapi/OneDrive/Desktop/GD32VW553/V1_MQTT_OK/GD32VW55X_Wifi_BLE_SDK/GD32VW55x_RELEASE_V1.0.2/MSDK/wpa_supplicant/src/ap\ap_config.c **** 
 302:C:/Users/stapi/OneDrive/Desktop/GD32VW553/V1_MQTT_OK/GD32VW55X_Wifi_BLE_SDK/GD32VW55x_RELEASE_V1.0.2/MSDK/wpa_supplicant/src/ap\ap_config.c **** 
 303:C:/Users/stapi/OneDrive/Desktop/GD32VW553/V1_MQTT_OK/GD32VW55X_Wifi_BLE_SDK/GD32VW55x_RELEASE_V1.0.2/MSDK/wpa_supplicant/src/ap\ap_config.c **** int hostapd_mac_comp(const void *a, const void *b)
 304:C:/Users/stapi/OneDrive/Desktop/GD32VW553/V1_MQTT_OK/GD32VW55X_Wifi_BLE_SDK/GD32VW55x_RELEASE_V1.0.2/MSDK/wpa_supplicant/src/ap\ap_config.c **** {
 305:C:/Users/stapi/OneDrive/Desktop/GD32VW553/V1_MQTT_OK/GD32VW55X_Wifi_BLE_SDK/GD32VW55x_RELEASE_V1.0.2/MSDK/wpa_supplicant/src/ap\ap_config.c **** 	return os_memcmp(a, b, sizeof(macaddr));
 306:C:/Users/stapi/OneDrive/Desktop/GD32VW553/V1_MQTT_OK/GD32VW55X_Wifi_BLE_SDK/GD32VW55x_RELEASE_V1.0.2/MSDK/wpa_supplicant/src/ap\ap_config.c **** }
 307:C:/Users/stapi/OneDrive/Desktop/GD32VW553/V1_MQTT_OK/GD32VW55X_Wifi_BLE_SDK/GD32VW55x_RELEASE_V1.0.2/MSDK/wpa_supplicant/src/ap\ap_config.c **** 
 308:C:/Users/stapi/OneDrive/Desktop/GD32VW553/V1_MQTT_OK/GD32VW55X_Wifi_BLE_SDK/GD32VW55x_RELEASE_V1.0.2/MSDK/wpa_supplicant/src/ap\ap_config.c **** 
 309:C:/Users/stapi/OneDrive/Desktop/GD32VW553/V1_MQTT_OK/GD32VW55X_Wifi_BLE_SDK/GD32VW55x_RELEASE_V1.0.2/MSDK/wpa_supplicant/src/ap\ap_config.c **** static int hostapd_config_read_wpa_psk(const char *fname,
 310:C:/Users/stapi/OneDrive/Desktop/GD32VW553/V1_MQTT_OK/GD32VW55X_Wifi_BLE_SDK/GD32VW55x_RELEASE_V1.0.2/MSDK/wpa_supplicant/src/ap\ap_config.c **** 				       struct hostapd_ssid *ssid)
 311:C:/Users/stapi/OneDrive/Desktop/GD32VW553/V1_MQTT_OK/GD32VW55X_Wifi_BLE_SDK/GD32VW55x_RELEASE_V1.0.2/MSDK/wpa_supplicant/src/ap\ap_config.c **** {
 312:C:/Users/stapi/OneDrive/Desktop/GD32VW553/V1_MQTT_OK/GD32VW55X_Wifi_BLE_SDK/GD32VW55x_RELEASE_V1.0.2/MSDK/wpa_supplicant/src/ap\ap_config.c **** 	FILE *f;
 313:C:/Users/stapi/OneDrive/Desktop/GD32VW553/V1_MQTT_OK/GD32VW55X_Wifi_BLE_SDK/GD32VW55x_RELEASE_V1.0.2/MSDK/wpa_supplicant/src/ap\ap_config.c **** 	char buf[128], *pos;
 314:C:/Users/stapi/OneDrive/Desktop/GD32VW553/V1_MQTT_OK/GD32VW55X_Wifi_BLE_SDK/GD32VW55x_RELEASE_V1.0.2/MSDK/wpa_supplicant/src/ap\ap_config.c **** 	const char *keyid;
 315:C:/Users/stapi/OneDrive/Desktop/GD32VW553/V1_MQTT_OK/GD32VW55X_Wifi_BLE_SDK/GD32VW55x_RELEASE_V1.0.2/MSDK/wpa_supplicant/src/ap\ap_config.c **** 	char *context;
 316:C:/Users/stapi/OneDrive/Desktop/GD32VW553/V1_MQTT_OK/GD32VW55X_Wifi_BLE_SDK/GD32VW55x_RELEASE_V1.0.2/MSDK/wpa_supplicant/src/ap\ap_config.c **** 	char *context2;
 317:C:/Users/stapi/OneDrive/Desktop/GD32VW553/V1_MQTT_OK/GD32VW55X_Wifi_BLE_SDK/GD32VW55x_RELEASE_V1.0.2/MSDK/wpa_supplicant/src/ap\ap_config.c **** 	char *token;
 318:C:/Users/stapi/OneDrive/Desktop/GD32VW553/V1_MQTT_OK/GD32VW55X_Wifi_BLE_SDK/GD32VW55x_RELEASE_V1.0.2/MSDK/wpa_supplicant/src/ap\ap_config.c **** 	char *name;
 319:C:/Users/stapi/OneDrive/Desktop/GD32VW553/V1_MQTT_OK/GD32VW55X_Wifi_BLE_SDK/GD32VW55x_RELEASE_V1.0.2/MSDK/wpa_supplicant/src/ap\ap_config.c **** 	char *value;
 320:C:/Users/stapi/OneDrive/Desktop/GD32VW553/V1_MQTT_OK/GD32VW55X_Wifi_BLE_SDK/GD32VW55x_RELEASE_V1.0.2/MSDK/wpa_supplicant/src/ap\ap_config.c **** 	int line = 0, ret = 0, len, ok;
 321:C:/Users/stapi/OneDrive/Desktop/GD32VW553/V1_MQTT_OK/GD32VW55X_Wifi_BLE_SDK/GD32VW55x_RELEASE_V1.0.2/MSDK/wpa_supplicant/src/ap\ap_config.c **** 	u8 addr[ETH_ALEN];
 322:C:/Users/stapi/OneDrive/Desktop/GD32VW553/V1_MQTT_OK/GD32VW55X_Wifi_BLE_SDK/GD32VW55x_RELEASE_V1.0.2/MSDK/wpa_supplicant/src/ap\ap_config.c **** 	struct hostapd_wpa_psk *psk;
 323:C:/Users/stapi/OneDrive/Desktop/GD32VW553/V1_MQTT_OK/GD32VW55X_Wifi_BLE_SDK/GD32VW55x_RELEASE_V1.0.2/MSDK/wpa_supplicant/src/ap\ap_config.c **** 
 324:C:/Users/stapi/OneDrive/Desktop/GD32VW553/V1_MQTT_OK/GD32VW55X_Wifi_BLE_SDK/GD32VW55x_RELEASE_V1.0.2/MSDK/wpa_supplicant/src/ap\ap_config.c **** 	if (!fname)
 325:C:/Users/stapi/OneDrive/Desktop/GD32VW553/V1_MQTT_OK/GD32VW55X_Wifi_BLE_SDK/GD32VW55x_RELEASE_V1.0.2/MSDK/wpa_supplicant/src/ap\ap_config.c **** 		return 0;
 326:C:/Users/stapi/OneDrive/Desktop/GD32VW553/V1_MQTT_OK/GD32VW55X_Wifi_BLE_SDK/GD32VW55x_RELEASE_V1.0.2/MSDK/wpa_supplicant/src/ap\ap_config.c **** 
 327:C:/Users/stapi/OneDrive/Desktop/GD32VW553/V1_MQTT_OK/GD32VW55X_Wifi_BLE_SDK/GD32VW55x_RELEASE_V1.0.2/MSDK/wpa_supplicant/src/ap\ap_config.c **** 	f = fopen(fname, "r");
 328:C:/Users/stapi/OneDrive/Desktop/GD32VW553/V1_MQTT_OK/GD32VW55X_Wifi_BLE_SDK/GD32VW55x_RELEASE_V1.0.2/MSDK/wpa_supplicant/src/ap\ap_config.c **** 	if (!f) {
 329:C:/Users/stapi/OneDrive/Desktop/GD32VW553/V1_MQTT_OK/GD32VW55X_Wifi_BLE_SDK/GD32VW55x_RELEASE_V1.0.2/MSDK/wpa_supplicant/src/ap\ap_config.c **** 		wpa_printf(MSG_ERROR, "WPA PSK file '%s' not found.", fname);
 330:C:/Users/stapi/OneDrive/Desktop/GD32VW553/V1_MQTT_OK/GD32VW55X_Wifi_BLE_SDK/GD32VW55x_RELEASE_V1.0.2/MSDK/wpa_supplicant/src/ap\ap_config.c **** 		return -1;
 331:C:/Users/stapi/OneDrive/Desktop/GD32VW553/V1_MQTT_OK/GD32VW55X_Wifi_BLE_SDK/GD32VW55x_RELEASE_V1.0.2/MSDK/wpa_supplicant/src/ap\ap_config.c **** 	}
 332:C:/Users/stapi/OneDrive/Desktop/GD32VW553/V1_MQTT_OK/GD32VW55X_Wifi_BLE_SDK/GD32VW55x_RELEASE_V1.0.2/MSDK/wpa_supplicant/src/ap\ap_config.c **** 
 333:C:/Users/stapi/OneDrive/Desktop/GD32VW553/V1_MQTT_OK/GD32VW55X_Wifi_BLE_SDK/GD32VW55x_RELEASE_V1.0.2/MSDK/wpa_supplicant/src/ap\ap_config.c **** 	while (fgets(buf, sizeof(buf), f)) {
 334:C:/Users/stapi/OneDrive/Desktop/GD32VW553/V1_MQTT_OK/GD32VW55X_Wifi_BLE_SDK/GD32VW55x_RELEASE_V1.0.2/MSDK/wpa_supplicant/src/ap\ap_config.c **** 		int vlan_id = 0;
 335:C:/Users/stapi/OneDrive/Desktop/GD32VW553/V1_MQTT_OK/GD32VW55X_Wifi_BLE_SDK/GD32VW55x_RELEASE_V1.0.2/MSDK/wpa_supplicant/src/ap\ap_config.c **** 		int wps = 0;
 336:C:/Users/stapi/OneDrive/Desktop/GD32VW553/V1_MQTT_OK/GD32VW55X_Wifi_BLE_SDK/GD32VW55x_RELEASE_V1.0.2/MSDK/wpa_supplicant/src/ap\ap_config.c **** 
 337:C:/Users/stapi/OneDrive/Desktop/GD32VW553/V1_MQTT_OK/GD32VW55X_Wifi_BLE_SDK/GD32VW55x_RELEASE_V1.0.2/MSDK/wpa_supplicant/src/ap\ap_config.c **** 		line++;
 338:C:/Users/stapi/OneDrive/Desktop/GD32VW553/V1_MQTT_OK/GD32VW55X_Wifi_BLE_SDK/GD32VW55x_RELEASE_V1.0.2/MSDK/wpa_supplicant/src/ap\ap_config.c **** 
 339:C:/Users/stapi/OneDrive/Desktop/GD32VW553/V1_MQTT_OK/GD32VW55X_Wifi_BLE_SDK/GD32VW55x_RELEASE_V1.0.2/MSDK/wpa_supplicant/src/ap\ap_config.c **** 		if (buf[0] == '#')
 340:C:/Users/stapi/OneDrive/Desktop/GD32VW553/V1_MQTT_OK/GD32VW55X_Wifi_BLE_SDK/GD32VW55x_RELEASE_V1.0.2/MSDK/wpa_supplicant/src/ap\ap_config.c **** 			continue;
 341:C:/Users/stapi/OneDrive/Desktop/GD32VW553/V1_MQTT_OK/GD32VW55X_Wifi_BLE_SDK/GD32VW55x_RELEASE_V1.0.2/MSDK/wpa_supplicant/src/ap\ap_config.c **** 		pos = buf;
 342:C:/Users/stapi/OneDrive/Desktop/GD32VW553/V1_MQTT_OK/GD32VW55X_Wifi_BLE_SDK/GD32VW55x_RELEASE_V1.0.2/MSDK/wpa_supplicant/src/ap\ap_config.c **** 		while (*pos != '\0') {
 343:C:/Users/stapi/OneDrive/Desktop/GD32VW553/V1_MQTT_OK/GD32VW55X_Wifi_BLE_SDK/GD32VW55x_RELEASE_V1.0.2/MSDK/wpa_supplicant/src/ap\ap_config.c **** 			if (*pos == '\n') {
 344:C:/Users/stapi/OneDrive/Desktop/GD32VW553/V1_MQTT_OK/GD32VW55X_Wifi_BLE_SDK/GD32VW55x_RELEASE_V1.0.2/MSDK/wpa_supplicant/src/ap\ap_config.c **** 				*pos = '\0';
 345:C:/Users/stapi/OneDrive/Desktop/GD32VW553/V1_MQTT_OK/GD32VW55X_Wifi_BLE_SDK/GD32VW55x_RELEASE_V1.0.2/MSDK/wpa_supplicant/src/ap\ap_config.c **** 				break;
 346:C:/Users/stapi/OneDrive/Desktop/GD32VW553/V1_MQTT_OK/GD32VW55X_Wifi_BLE_SDK/GD32VW55x_RELEASE_V1.0.2/MSDK/wpa_supplicant/src/ap\ap_config.c **** 			}
 347:C:/Users/stapi/OneDrive/Desktop/GD32VW553/V1_MQTT_OK/GD32VW55X_Wifi_BLE_SDK/GD32VW55x_RELEASE_V1.0.2/MSDK/wpa_supplicant/src/ap\ap_config.c **** 			pos++;
 348:C:/Users/stapi/OneDrive/Desktop/GD32VW553/V1_MQTT_OK/GD32VW55X_Wifi_BLE_SDK/GD32VW55x_RELEASE_V1.0.2/MSDK/wpa_supplicant/src/ap\ap_config.c **** 		}
 349:C:/Users/stapi/OneDrive/Desktop/GD32VW553/V1_MQTT_OK/GD32VW55X_Wifi_BLE_SDK/GD32VW55x_RELEASE_V1.0.2/MSDK/wpa_supplicant/src/ap\ap_config.c **** 		if (buf[0] == '\0')
 350:C:/Users/stapi/OneDrive/Desktop/GD32VW553/V1_MQTT_OK/GD32VW55X_Wifi_BLE_SDK/GD32VW55x_RELEASE_V1.0.2/MSDK/wpa_supplicant/src/ap\ap_config.c **** 			continue;
 351:C:/Users/stapi/OneDrive/Desktop/GD32VW553/V1_MQTT_OK/GD32VW55X_Wifi_BLE_SDK/GD32VW55x_RELEASE_V1.0.2/MSDK/wpa_supplicant/src/ap\ap_config.c **** 
 352:C:/Users/stapi/OneDrive/Desktop/GD32VW553/V1_MQTT_OK/GD32VW55X_Wifi_BLE_SDK/GD32VW55x_RELEASE_V1.0.2/MSDK/wpa_supplicant/src/ap\ap_config.c **** 		context = NULL;
 353:C:/Users/stapi/OneDrive/Desktop/GD32VW553/V1_MQTT_OK/GD32VW55X_Wifi_BLE_SDK/GD32VW55x_RELEASE_V1.0.2/MSDK/wpa_supplicant/src/ap\ap_config.c **** 		keyid = NULL;
 354:C:/Users/stapi/OneDrive/Desktop/GD32VW553/V1_MQTT_OK/GD32VW55X_Wifi_BLE_SDK/GD32VW55x_RELEASE_V1.0.2/MSDK/wpa_supplicant/src/ap\ap_config.c **** 		while ((token = str_token(buf, " ", &context))) {
 355:C:/Users/stapi/OneDrive/Desktop/GD32VW553/V1_MQTT_OK/GD32VW55X_Wifi_BLE_SDK/GD32VW55x_RELEASE_V1.0.2/MSDK/wpa_supplicant/src/ap\ap_config.c **** 			if (!os_strchr(token, '='))
 356:C:/Users/stapi/OneDrive/Desktop/GD32VW553/V1_MQTT_OK/GD32VW55X_Wifi_BLE_SDK/GD32VW55x_RELEASE_V1.0.2/MSDK/wpa_supplicant/src/ap\ap_config.c **** 				break;
 357:C:/Users/stapi/OneDrive/Desktop/GD32VW553/V1_MQTT_OK/GD32VW55X_Wifi_BLE_SDK/GD32VW55x_RELEASE_V1.0.2/MSDK/wpa_supplicant/src/ap\ap_config.c **** 			context2 = NULL;
 358:C:/Users/stapi/OneDrive/Desktop/GD32VW553/V1_MQTT_OK/GD32VW55X_Wifi_BLE_SDK/GD32VW55x_RELEASE_V1.0.2/MSDK/wpa_supplicant/src/ap\ap_config.c **** 			name = str_token(token, "=", &context2);
 359:C:/Users/stapi/OneDrive/Desktop/GD32VW553/V1_MQTT_OK/GD32VW55X_Wifi_BLE_SDK/GD32VW55x_RELEASE_V1.0.2/MSDK/wpa_supplicant/src/ap\ap_config.c **** 			if (!name)
 360:C:/Users/stapi/OneDrive/Desktop/GD32VW553/V1_MQTT_OK/GD32VW55X_Wifi_BLE_SDK/GD32VW55x_RELEASE_V1.0.2/MSDK/wpa_supplicant/src/ap\ap_config.c **** 				break;
 361:C:/Users/stapi/OneDrive/Desktop/GD32VW553/V1_MQTT_OK/GD32VW55X_Wifi_BLE_SDK/GD32VW55x_RELEASE_V1.0.2/MSDK/wpa_supplicant/src/ap\ap_config.c **** 			value = str_token(token, "", &context2);
 362:C:/Users/stapi/OneDrive/Desktop/GD32VW553/V1_MQTT_OK/GD32VW55X_Wifi_BLE_SDK/GD32VW55x_RELEASE_V1.0.2/MSDK/wpa_supplicant/src/ap\ap_config.c **** 			if (!value)
 363:C:/Users/stapi/OneDrive/Desktop/GD32VW553/V1_MQTT_OK/GD32VW55X_Wifi_BLE_SDK/GD32VW55x_RELEASE_V1.0.2/MSDK/wpa_supplicant/src/ap\ap_config.c **** 				value = "";
 364:C:/Users/stapi/OneDrive/Desktop/GD32VW553/V1_MQTT_OK/GD32VW55X_Wifi_BLE_SDK/GD32VW55x_RELEASE_V1.0.2/MSDK/wpa_supplicant/src/ap\ap_config.c **** 			if (!os_strcmp(name, "keyid")) {
 365:C:/Users/stapi/OneDrive/Desktop/GD32VW553/V1_MQTT_OK/GD32VW55X_Wifi_BLE_SDK/GD32VW55x_RELEASE_V1.0.2/MSDK/wpa_supplicant/src/ap\ap_config.c **** 				keyid = value;
 366:C:/Users/stapi/OneDrive/Desktop/GD32VW553/V1_MQTT_OK/GD32VW55X_Wifi_BLE_SDK/GD32VW55x_RELEASE_V1.0.2/MSDK/wpa_supplicant/src/ap\ap_config.c **** 			} else if (!os_strcmp(name, "wps")) {
 367:C:/Users/stapi/OneDrive/Desktop/GD32VW553/V1_MQTT_OK/GD32VW55X_Wifi_BLE_SDK/GD32VW55x_RELEASE_V1.0.2/MSDK/wpa_supplicant/src/ap\ap_config.c **** 				wps = atoi(value);
 368:C:/Users/stapi/OneDrive/Desktop/GD32VW553/V1_MQTT_OK/GD32VW55X_Wifi_BLE_SDK/GD32VW55x_RELEASE_V1.0.2/MSDK/wpa_supplicant/src/ap\ap_config.c **** 			} else if (!os_strcmp(name, "vlanid")) {
 369:C:/Users/stapi/OneDrive/Desktop/GD32VW553/V1_MQTT_OK/GD32VW55X_Wifi_BLE_SDK/GD32VW55x_RELEASE_V1.0.2/MSDK/wpa_supplicant/src/ap\ap_config.c **** 				vlan_id = atoi(value);
 370:C:/Users/stapi/OneDrive/Desktop/GD32VW553/V1_MQTT_OK/GD32VW55X_Wifi_BLE_SDK/GD32VW55x_RELEASE_V1.0.2/MSDK/wpa_supplicant/src/ap\ap_config.c **** 			} else {
 371:C:/Users/stapi/OneDrive/Desktop/GD32VW553/V1_MQTT_OK/GD32VW55X_Wifi_BLE_SDK/GD32VW55x_RELEASE_V1.0.2/MSDK/wpa_supplicant/src/ap\ap_config.c **** 				wpa_printf(MSG_ERROR,
 372:C:/Users/stapi/OneDrive/Desktop/GD32VW553/V1_MQTT_OK/GD32VW55X_Wifi_BLE_SDK/GD32VW55x_RELEASE_V1.0.2/MSDK/wpa_supplicant/src/ap\ap_config.c **** 					   "Unrecognized '%s=%s' on line %d in '%s'",
 373:C:/Users/stapi/OneDrive/Desktop/GD32VW553/V1_MQTT_OK/GD32VW55X_Wifi_BLE_SDK/GD32VW55x_RELEASE_V1.0.2/MSDK/wpa_supplicant/src/ap\ap_config.c **** 					   name, value, line, fname);
 374:C:/Users/stapi/OneDrive/Desktop/GD32VW553/V1_MQTT_OK/GD32VW55X_Wifi_BLE_SDK/GD32VW55x_RELEASE_V1.0.2/MSDK/wpa_supplicant/src/ap\ap_config.c **** 				ret = -1;
 375:C:/Users/stapi/OneDrive/Desktop/GD32VW553/V1_MQTT_OK/GD32VW55X_Wifi_BLE_SDK/GD32VW55x_RELEASE_V1.0.2/MSDK/wpa_supplicant/src/ap\ap_config.c **** 				break;
 376:C:/Users/stapi/OneDrive/Desktop/GD32VW553/V1_MQTT_OK/GD32VW55X_Wifi_BLE_SDK/GD32VW55x_RELEASE_V1.0.2/MSDK/wpa_supplicant/src/ap\ap_config.c **** 			}
 377:C:/Users/stapi/OneDrive/Desktop/GD32VW553/V1_MQTT_OK/GD32VW55X_Wifi_BLE_SDK/GD32VW55x_RELEASE_V1.0.2/MSDK/wpa_supplicant/src/ap\ap_config.c **** 		}
 378:C:/Users/stapi/OneDrive/Desktop/GD32VW553/V1_MQTT_OK/GD32VW55X_Wifi_BLE_SDK/GD32VW55x_RELEASE_V1.0.2/MSDK/wpa_supplicant/src/ap\ap_config.c **** 
 379:C:/Users/stapi/OneDrive/Desktop/GD32VW553/V1_MQTT_OK/GD32VW55X_Wifi_BLE_SDK/GD32VW55x_RELEASE_V1.0.2/MSDK/wpa_supplicant/src/ap\ap_config.c **** 		if (ret == -1)
 380:C:/Users/stapi/OneDrive/Desktop/GD32VW553/V1_MQTT_OK/GD32VW55X_Wifi_BLE_SDK/GD32VW55x_RELEASE_V1.0.2/MSDK/wpa_supplicant/src/ap\ap_config.c **** 			break;
 381:C:/Users/stapi/OneDrive/Desktop/GD32VW553/V1_MQTT_OK/GD32VW55X_Wifi_BLE_SDK/GD32VW55x_RELEASE_V1.0.2/MSDK/wpa_supplicant/src/ap\ap_config.c **** 
 382:C:/Users/stapi/OneDrive/Desktop/GD32VW553/V1_MQTT_OK/GD32VW55X_Wifi_BLE_SDK/GD32VW55x_RELEASE_V1.0.2/MSDK/wpa_supplicant/src/ap\ap_config.c **** 		if (!token)
 383:C:/Users/stapi/OneDrive/Desktop/GD32VW553/V1_MQTT_OK/GD32VW55X_Wifi_BLE_SDK/GD32VW55x_RELEASE_V1.0.2/MSDK/wpa_supplicant/src/ap\ap_config.c **** 			token = "";
 384:C:/Users/stapi/OneDrive/Desktop/GD32VW553/V1_MQTT_OK/GD32VW55X_Wifi_BLE_SDK/GD32VW55x_RELEASE_V1.0.2/MSDK/wpa_supplicant/src/ap\ap_config.c **** 		if (hwaddr_aton(token, addr)) {
 385:C:/Users/stapi/OneDrive/Desktop/GD32VW553/V1_MQTT_OK/GD32VW55X_Wifi_BLE_SDK/GD32VW55x_RELEASE_V1.0.2/MSDK/wpa_supplicant/src/ap\ap_config.c **** 			wpa_printf(MSG_ERROR,
 386:C:/Users/stapi/OneDrive/Desktop/GD32VW553/V1_MQTT_OK/GD32VW55X_Wifi_BLE_SDK/GD32VW55x_RELEASE_V1.0.2/MSDK/wpa_supplicant/src/ap\ap_config.c **** 				   "Invalid MAC address '%s' on line %d in '%s'",
 387:C:/Users/stapi/OneDrive/Desktop/GD32VW553/V1_MQTT_OK/GD32VW55X_Wifi_BLE_SDK/GD32VW55x_RELEASE_V1.0.2/MSDK/wpa_supplicant/src/ap\ap_config.c **** 				   token, line, fname);
 388:C:/Users/stapi/OneDrive/Desktop/GD32VW553/V1_MQTT_OK/GD32VW55X_Wifi_BLE_SDK/GD32VW55x_RELEASE_V1.0.2/MSDK/wpa_supplicant/src/ap\ap_config.c **** 			ret = -1;
 389:C:/Users/stapi/OneDrive/Desktop/GD32VW553/V1_MQTT_OK/GD32VW55X_Wifi_BLE_SDK/GD32VW55x_RELEASE_V1.0.2/MSDK/wpa_supplicant/src/ap\ap_config.c **** 			break;
 390:C:/Users/stapi/OneDrive/Desktop/GD32VW553/V1_MQTT_OK/GD32VW55X_Wifi_BLE_SDK/GD32VW55x_RELEASE_V1.0.2/MSDK/wpa_supplicant/src/ap\ap_config.c **** 		}
 391:C:/Users/stapi/OneDrive/Desktop/GD32VW553/V1_MQTT_OK/GD32VW55X_Wifi_BLE_SDK/GD32VW55x_RELEASE_V1.0.2/MSDK/wpa_supplicant/src/ap\ap_config.c **** 
 392:C:/Users/stapi/OneDrive/Desktop/GD32VW553/V1_MQTT_OK/GD32VW55X_Wifi_BLE_SDK/GD32VW55x_RELEASE_V1.0.2/MSDK/wpa_supplicant/src/ap\ap_config.c **** 		psk = os_zalloc(sizeof(*psk));
 393:C:/Users/stapi/OneDrive/Desktop/GD32VW553/V1_MQTT_OK/GD32VW55X_Wifi_BLE_SDK/GD32VW55x_RELEASE_V1.0.2/MSDK/wpa_supplicant/src/ap\ap_config.c **** 		if (psk == NULL) {
 394:C:/Users/stapi/OneDrive/Desktop/GD32VW553/V1_MQTT_OK/GD32VW55X_Wifi_BLE_SDK/GD32VW55x_RELEASE_V1.0.2/MSDK/wpa_supplicant/src/ap\ap_config.c **** 			wpa_printf(MSG_ERROR, "WPA PSK allocation failed");
 395:C:/Users/stapi/OneDrive/Desktop/GD32VW553/V1_MQTT_OK/GD32VW55X_Wifi_BLE_SDK/GD32VW55x_RELEASE_V1.0.2/MSDK/wpa_supplicant/src/ap\ap_config.c **** 			ret = -1;
 396:C:/Users/stapi/OneDrive/Desktop/GD32VW553/V1_MQTT_OK/GD32VW55X_Wifi_BLE_SDK/GD32VW55x_RELEASE_V1.0.2/MSDK/wpa_supplicant/src/ap\ap_config.c **** 			break;
 397:C:/Users/stapi/OneDrive/Desktop/GD32VW553/V1_MQTT_OK/GD32VW55X_Wifi_BLE_SDK/GD32VW55x_RELEASE_V1.0.2/MSDK/wpa_supplicant/src/ap\ap_config.c **** 		}
 398:C:/Users/stapi/OneDrive/Desktop/GD32VW553/V1_MQTT_OK/GD32VW55X_Wifi_BLE_SDK/GD32VW55x_RELEASE_V1.0.2/MSDK/wpa_supplicant/src/ap\ap_config.c **** 		psk->vlan_id = vlan_id;
 399:C:/Users/stapi/OneDrive/Desktop/GD32VW553/V1_MQTT_OK/GD32VW55X_Wifi_BLE_SDK/GD32VW55x_RELEASE_V1.0.2/MSDK/wpa_supplicant/src/ap\ap_config.c **** 		if (is_zero_ether_addr(addr))
 400:C:/Users/stapi/OneDrive/Desktop/GD32VW553/V1_MQTT_OK/GD32VW55X_Wifi_BLE_SDK/GD32VW55x_RELEASE_V1.0.2/MSDK/wpa_supplicant/src/ap\ap_config.c **** 			psk->group = 1;
 401:C:/Users/stapi/OneDrive/Desktop/GD32VW553/V1_MQTT_OK/GD32VW55X_Wifi_BLE_SDK/GD32VW55x_RELEASE_V1.0.2/MSDK/wpa_supplicant/src/ap\ap_config.c **** 		else
 402:C:/Users/stapi/OneDrive/Desktop/GD32VW553/V1_MQTT_OK/GD32VW55X_Wifi_BLE_SDK/GD32VW55x_RELEASE_V1.0.2/MSDK/wpa_supplicant/src/ap\ap_config.c **** 			os_memcpy(psk->addr, addr, ETH_ALEN);
 403:C:/Users/stapi/OneDrive/Desktop/GD32VW553/V1_MQTT_OK/GD32VW55X_Wifi_BLE_SDK/GD32VW55x_RELEASE_V1.0.2/MSDK/wpa_supplicant/src/ap\ap_config.c **** 
 404:C:/Users/stapi/OneDrive/Desktop/GD32VW553/V1_MQTT_OK/GD32VW55X_Wifi_BLE_SDK/GD32VW55x_RELEASE_V1.0.2/MSDK/wpa_supplicant/src/ap\ap_config.c **** 		pos = str_token(buf, "", &context);
 405:C:/Users/stapi/OneDrive/Desktop/GD32VW553/V1_MQTT_OK/GD32VW55X_Wifi_BLE_SDK/GD32VW55x_RELEASE_V1.0.2/MSDK/wpa_supplicant/src/ap\ap_config.c **** 		if (!pos) {
 406:C:/Users/stapi/OneDrive/Desktop/GD32VW553/V1_MQTT_OK/GD32VW55X_Wifi_BLE_SDK/GD32VW55x_RELEASE_V1.0.2/MSDK/wpa_supplicant/src/ap\ap_config.c **** 			wpa_printf(MSG_ERROR, "No PSK on line %d in '%s'",
 407:C:/Users/stapi/OneDrive/Desktop/GD32VW553/V1_MQTT_OK/GD32VW55X_Wifi_BLE_SDK/GD32VW55x_RELEASE_V1.0.2/MSDK/wpa_supplicant/src/ap\ap_config.c **** 				   line, fname);
 408:C:/Users/stapi/OneDrive/Desktop/GD32VW553/V1_MQTT_OK/GD32VW55X_Wifi_BLE_SDK/GD32VW55x_RELEASE_V1.0.2/MSDK/wpa_supplicant/src/ap\ap_config.c **** 			os_free(psk);
 409:C:/Users/stapi/OneDrive/Desktop/GD32VW553/V1_MQTT_OK/GD32VW55X_Wifi_BLE_SDK/GD32VW55x_RELEASE_V1.0.2/MSDK/wpa_supplicant/src/ap\ap_config.c **** 			ret = -1;
 410:C:/Users/stapi/OneDrive/Desktop/GD32VW553/V1_MQTT_OK/GD32VW55X_Wifi_BLE_SDK/GD32VW55x_RELEASE_V1.0.2/MSDK/wpa_supplicant/src/ap\ap_config.c **** 			break;
 411:C:/Users/stapi/OneDrive/Desktop/GD32VW553/V1_MQTT_OK/GD32VW55X_Wifi_BLE_SDK/GD32VW55x_RELEASE_V1.0.2/MSDK/wpa_supplicant/src/ap\ap_config.c **** 		}
 412:C:/Users/stapi/OneDrive/Desktop/GD32VW553/V1_MQTT_OK/GD32VW55X_Wifi_BLE_SDK/GD32VW55x_RELEASE_V1.0.2/MSDK/wpa_supplicant/src/ap\ap_config.c **** 
 413:C:/Users/stapi/OneDrive/Desktop/GD32VW553/V1_MQTT_OK/GD32VW55X_Wifi_BLE_SDK/GD32VW55x_RELEASE_V1.0.2/MSDK/wpa_supplicant/src/ap\ap_config.c **** 		ok = 0;
 414:C:/Users/stapi/OneDrive/Desktop/GD32VW553/V1_MQTT_OK/GD32VW55X_Wifi_BLE_SDK/GD32VW55x_RELEASE_V1.0.2/MSDK/wpa_supplicant/src/ap\ap_config.c **** 		len = os_strlen(pos);
 415:C:/Users/stapi/OneDrive/Desktop/GD32VW553/V1_MQTT_OK/GD32VW55X_Wifi_BLE_SDK/GD32VW55x_RELEASE_V1.0.2/MSDK/wpa_supplicant/src/ap\ap_config.c **** 		if (len == 2 * PMK_LEN &&
 416:C:/Users/stapi/OneDrive/Desktop/GD32VW553/V1_MQTT_OK/GD32VW55X_Wifi_BLE_SDK/GD32VW55x_RELEASE_V1.0.2/MSDK/wpa_supplicant/src/ap\ap_config.c **** 		    hexstr2bin(pos, psk->psk, PMK_LEN) == 0)
 417:C:/Users/stapi/OneDrive/Desktop/GD32VW553/V1_MQTT_OK/GD32VW55X_Wifi_BLE_SDK/GD32VW55x_RELEASE_V1.0.2/MSDK/wpa_supplicant/src/ap\ap_config.c **** 			ok = 1;
 418:C:/Users/stapi/OneDrive/Desktop/GD32VW553/V1_MQTT_OK/GD32VW55X_Wifi_BLE_SDK/GD32VW55x_RELEASE_V1.0.2/MSDK/wpa_supplicant/src/ap\ap_config.c **** 		else if (len >= 8 && len < 64 &&
 419:C:/Users/stapi/OneDrive/Desktop/GD32VW553/V1_MQTT_OK/GD32VW55X_Wifi_BLE_SDK/GD32VW55x_RELEASE_V1.0.2/MSDK/wpa_supplicant/src/ap\ap_config.c **** 			 pbkdf2_sha1(pos, ssid->ssid, ssid->ssid_len,
 420:C:/Users/stapi/OneDrive/Desktop/GD32VW553/V1_MQTT_OK/GD32VW55X_Wifi_BLE_SDK/GD32VW55x_RELEASE_V1.0.2/MSDK/wpa_supplicant/src/ap\ap_config.c **** 				     4096, psk->psk, PMK_LEN) == 0)
 421:C:/Users/stapi/OneDrive/Desktop/GD32VW553/V1_MQTT_OK/GD32VW55X_Wifi_BLE_SDK/GD32VW55x_RELEASE_V1.0.2/MSDK/wpa_supplicant/src/ap\ap_config.c **** 			ok = 1;
 422:C:/Users/stapi/OneDrive/Desktop/GD32VW553/V1_MQTT_OK/GD32VW55X_Wifi_BLE_SDK/GD32VW55x_RELEASE_V1.0.2/MSDK/wpa_supplicant/src/ap\ap_config.c **** 		if (!ok) {
 423:C:/Users/stapi/OneDrive/Desktop/GD32VW553/V1_MQTT_OK/GD32VW55X_Wifi_BLE_SDK/GD32VW55x_RELEASE_V1.0.2/MSDK/wpa_supplicant/src/ap\ap_config.c **** 			wpa_printf(MSG_ERROR,
 424:C:/Users/stapi/OneDrive/Desktop/GD32VW553/V1_MQTT_OK/GD32VW55X_Wifi_BLE_SDK/GD32VW55x_RELEASE_V1.0.2/MSDK/wpa_supplicant/src/ap\ap_config.c **** 				   "Invalid PSK '%s' on line %d in '%s'",
 425:C:/Users/stapi/OneDrive/Desktop/GD32VW553/V1_MQTT_OK/GD32VW55X_Wifi_BLE_SDK/GD32VW55x_RELEASE_V1.0.2/MSDK/wpa_supplicant/src/ap\ap_config.c **** 				   pos, line, fname);
 426:C:/Users/stapi/OneDrive/Desktop/GD32VW553/V1_MQTT_OK/GD32VW55X_Wifi_BLE_SDK/GD32VW55x_RELEASE_V1.0.2/MSDK/wpa_supplicant/src/ap\ap_config.c **** 			os_free(psk);
 427:C:/Users/stapi/OneDrive/Desktop/GD32VW553/V1_MQTT_OK/GD32VW55X_Wifi_BLE_SDK/GD32VW55x_RELEASE_V1.0.2/MSDK/wpa_supplicant/src/ap\ap_config.c **** 			ret = -1;
 428:C:/Users/stapi/OneDrive/Desktop/GD32VW553/V1_MQTT_OK/GD32VW55X_Wifi_BLE_SDK/GD32VW55x_RELEASE_V1.0.2/MSDK/wpa_supplicant/src/ap\ap_config.c **** 			break;
 429:C:/Users/stapi/OneDrive/Desktop/GD32VW553/V1_MQTT_OK/GD32VW55X_Wifi_BLE_SDK/GD32VW55x_RELEASE_V1.0.2/MSDK/wpa_supplicant/src/ap\ap_config.c **** 		}
 430:C:/Users/stapi/OneDrive/Desktop/GD32VW553/V1_MQTT_OK/GD32VW55X_Wifi_BLE_SDK/GD32VW55x_RELEASE_V1.0.2/MSDK/wpa_supplicant/src/ap\ap_config.c **** 
 431:C:/Users/stapi/OneDrive/Desktop/GD32VW553/V1_MQTT_OK/GD32VW55X_Wifi_BLE_SDK/GD32VW55x_RELEASE_V1.0.2/MSDK/wpa_supplicant/src/ap\ap_config.c **** 		if (keyid) {
 432:C:/Users/stapi/OneDrive/Desktop/GD32VW553/V1_MQTT_OK/GD32VW55X_Wifi_BLE_SDK/GD32VW55x_RELEASE_V1.0.2/MSDK/wpa_supplicant/src/ap\ap_config.c **** 			len = os_strlcpy(psk->keyid, keyid, sizeof(psk->keyid));
 433:C:/Users/stapi/OneDrive/Desktop/GD32VW553/V1_MQTT_OK/GD32VW55X_Wifi_BLE_SDK/GD32VW55x_RELEASE_V1.0.2/MSDK/wpa_supplicant/src/ap\ap_config.c **** 			if ((size_t) len >= sizeof(psk->keyid)) {
 434:C:/Users/stapi/OneDrive/Desktop/GD32VW553/V1_MQTT_OK/GD32VW55X_Wifi_BLE_SDK/GD32VW55x_RELEASE_V1.0.2/MSDK/wpa_supplicant/src/ap\ap_config.c **** 				wpa_printf(MSG_ERROR,
 435:C:/Users/stapi/OneDrive/Desktop/GD32VW553/V1_MQTT_OK/GD32VW55X_Wifi_BLE_SDK/GD32VW55x_RELEASE_V1.0.2/MSDK/wpa_supplicant/src/ap\ap_config.c **** 					   "PSK keyid too long on line %d in '%s'",
 436:C:/Users/stapi/OneDrive/Desktop/GD32VW553/V1_MQTT_OK/GD32VW55X_Wifi_BLE_SDK/GD32VW55x_RELEASE_V1.0.2/MSDK/wpa_supplicant/src/ap\ap_config.c **** 					   line, fname);
 437:C:/Users/stapi/OneDrive/Desktop/GD32VW553/V1_MQTT_OK/GD32VW55X_Wifi_BLE_SDK/GD32VW55x_RELEASE_V1.0.2/MSDK/wpa_supplicant/src/ap\ap_config.c **** 				os_free(psk);
 438:C:/Users/stapi/OneDrive/Desktop/GD32VW553/V1_MQTT_OK/GD32VW55X_Wifi_BLE_SDK/GD32VW55x_RELEASE_V1.0.2/MSDK/wpa_supplicant/src/ap\ap_config.c **** 				ret = -1;
 439:C:/Users/stapi/OneDrive/Desktop/GD32VW553/V1_MQTT_OK/GD32VW55X_Wifi_BLE_SDK/GD32VW55x_RELEASE_V1.0.2/MSDK/wpa_supplicant/src/ap\ap_config.c **** 				break;
 440:C:/Users/stapi/OneDrive/Desktop/GD32VW553/V1_MQTT_OK/GD32VW55X_Wifi_BLE_SDK/GD32VW55x_RELEASE_V1.0.2/MSDK/wpa_supplicant/src/ap\ap_config.c **** 			}
 441:C:/Users/stapi/OneDrive/Desktop/GD32VW553/V1_MQTT_OK/GD32VW55X_Wifi_BLE_SDK/GD32VW55x_RELEASE_V1.0.2/MSDK/wpa_supplicant/src/ap\ap_config.c **** 		}
 442:C:/Users/stapi/OneDrive/Desktop/GD32VW553/V1_MQTT_OK/GD32VW55X_Wifi_BLE_SDK/GD32VW55x_RELEASE_V1.0.2/MSDK/wpa_supplicant/src/ap\ap_config.c **** 
 443:C:/Users/stapi/OneDrive/Desktop/GD32VW553/V1_MQTT_OK/GD32VW55X_Wifi_BLE_SDK/GD32VW55x_RELEASE_V1.0.2/MSDK/wpa_supplicant/src/ap\ap_config.c **** 		psk->wps = wps;
 444:C:/Users/stapi/OneDrive/Desktop/GD32VW553/V1_MQTT_OK/GD32VW55X_Wifi_BLE_SDK/GD32VW55x_RELEASE_V1.0.2/MSDK/wpa_supplicant/src/ap\ap_config.c **** 
 445:C:/Users/stapi/OneDrive/Desktop/GD32VW553/V1_MQTT_OK/GD32VW55X_Wifi_BLE_SDK/GD32VW55x_RELEASE_V1.0.2/MSDK/wpa_supplicant/src/ap\ap_config.c **** 		psk->next = ssid->wpa_psk;
 446:C:/Users/stapi/OneDrive/Desktop/GD32VW553/V1_MQTT_OK/GD32VW55X_Wifi_BLE_SDK/GD32VW55x_RELEASE_V1.0.2/MSDK/wpa_supplicant/src/ap\ap_config.c **** 		ssid->wpa_psk = psk;
 447:C:/Users/stapi/OneDrive/Desktop/GD32VW553/V1_MQTT_OK/GD32VW55X_Wifi_BLE_SDK/GD32VW55x_RELEASE_V1.0.2/MSDK/wpa_supplicant/src/ap\ap_config.c **** 	}
 448:C:/Users/stapi/OneDrive/Desktop/GD32VW553/V1_MQTT_OK/GD32VW55X_Wifi_BLE_SDK/GD32VW55x_RELEASE_V1.0.2/MSDK/wpa_supplicant/src/ap\ap_config.c **** 
 449:C:/Users/stapi/OneDrive/Desktop/GD32VW553/V1_MQTT_OK/GD32VW55X_Wifi_BLE_SDK/GD32VW55x_RELEASE_V1.0.2/MSDK/wpa_supplicant/src/ap\ap_config.c **** 	fclose(f);
 450:C:/Users/stapi/OneDrive/Desktop/GD32VW553/V1_MQTT_OK/GD32VW55X_Wifi_BLE_SDK/GD32VW55x_RELEASE_V1.0.2/MSDK/wpa_supplicant/src/ap\ap_config.c **** 
 451:C:/Users/stapi/OneDrive/Desktop/GD32VW553/V1_MQTT_OK/GD32VW55X_Wifi_BLE_SDK/GD32VW55x_RELEASE_V1.0.2/MSDK/wpa_supplicant/src/ap\ap_config.c **** 	return ret;
 452:C:/Users/stapi/OneDrive/Desktop/GD32VW553/V1_MQTT_OK/GD32VW55X_Wifi_BLE_SDK/GD32VW55x_RELEASE_V1.0.2/MSDK/wpa_supplicant/src/ap\ap_config.c **** }
 453:C:/Users/stapi/OneDrive/Desktop/GD32VW553/V1_MQTT_OK/GD32VW55X_Wifi_BLE_SDK/GD32VW55x_RELEASE_V1.0.2/MSDK/wpa_supplicant/src/ap\ap_config.c **** 
 454:C:/Users/stapi/OneDrive/Desktop/GD32VW553/V1_MQTT_OK/GD32VW55X_Wifi_BLE_SDK/GD32VW55x_RELEASE_V1.0.2/MSDK/wpa_supplicant/src/ap\ap_config.c **** 
 455:C:/Users/stapi/OneDrive/Desktop/GD32VW553/V1_MQTT_OK/GD32VW55X_Wifi_BLE_SDK/GD32VW55x_RELEASE_V1.0.2/MSDK/wpa_supplicant/src/ap\ap_config.c **** static int hostapd_derive_psk(struct hostapd_ssid *ssid)
 456:C:/Users/stapi/OneDrive/Desktop/GD32VW553/V1_MQTT_OK/GD32VW55X_Wifi_BLE_SDK/GD32VW55x_RELEASE_V1.0.2/MSDK/wpa_supplicant/src/ap\ap_config.c **** {
 457:C:/Users/stapi/OneDrive/Desktop/GD32VW553/V1_MQTT_OK/GD32VW55X_Wifi_BLE_SDK/GD32VW55x_RELEASE_V1.0.2/MSDK/wpa_supplicant/src/ap\ap_config.c **** 	ssid->wpa_psk = os_zalloc(sizeof(struct hostapd_wpa_psk));
 458:C:/Users/stapi/OneDrive/Desktop/GD32VW553/V1_MQTT_OK/GD32VW55X_Wifi_BLE_SDK/GD32VW55x_RELEASE_V1.0.2/MSDK/wpa_supplicant/src/ap\ap_config.c **** 	if (ssid->wpa_psk == NULL) {
 459:C:/Users/stapi/OneDrive/Desktop/GD32VW553/V1_MQTT_OK/GD32VW55X_Wifi_BLE_SDK/GD32VW55x_RELEASE_V1.0.2/MSDK/wpa_supplicant/src/ap\ap_config.c **** 		wpa_printf(MSG_ERROR, "Unable to alloc space for PSK");
 460:C:/Users/stapi/OneDrive/Desktop/GD32VW553/V1_MQTT_OK/GD32VW55X_Wifi_BLE_SDK/GD32VW55x_RELEASE_V1.0.2/MSDK/wpa_supplicant/src/ap\ap_config.c **** 		return -1;
 461:C:/Users/stapi/OneDrive/Desktop/GD32VW553/V1_MQTT_OK/GD32VW55X_Wifi_BLE_SDK/GD32VW55x_RELEASE_V1.0.2/MSDK/wpa_supplicant/src/ap\ap_config.c **** 	}
 462:C:/Users/stapi/OneDrive/Desktop/GD32VW553/V1_MQTT_OK/GD32VW55X_Wifi_BLE_SDK/GD32VW55x_RELEASE_V1.0.2/MSDK/wpa_supplicant/src/ap\ap_config.c **** 	wpa_hexdump_ascii(MSG_DEBUG, "SSID",
 463:C:/Users/stapi/OneDrive/Desktop/GD32VW553/V1_MQTT_OK/GD32VW55X_Wifi_BLE_SDK/GD32VW55x_RELEASE_V1.0.2/MSDK/wpa_supplicant/src/ap\ap_config.c **** 			  (u8 *) ssid->ssid, ssid->ssid_len);
 464:C:/Users/stapi/OneDrive/Desktop/GD32VW553/V1_MQTT_OK/GD32VW55X_Wifi_BLE_SDK/GD32VW55x_RELEASE_V1.0.2/MSDK/wpa_supplicant/src/ap\ap_config.c **** 	wpa_hexdump_ascii_key(MSG_DEBUG, "PSK (ASCII passphrase)",
 465:C:/Users/stapi/OneDrive/Desktop/GD32VW553/V1_MQTT_OK/GD32VW55X_Wifi_BLE_SDK/GD32VW55x_RELEASE_V1.0.2/MSDK/wpa_supplicant/src/ap\ap_config.c **** 			      (u8 *) ssid->wpa_passphrase,
 466:C:/Users/stapi/OneDrive/Desktop/GD32VW553/V1_MQTT_OK/GD32VW55X_Wifi_BLE_SDK/GD32VW55x_RELEASE_V1.0.2/MSDK/wpa_supplicant/src/ap\ap_config.c **** 			      os_strlen(ssid->wpa_passphrase));
 467:C:/Users/stapi/OneDrive/Desktop/GD32VW553/V1_MQTT_OK/GD32VW55X_Wifi_BLE_SDK/GD32VW55x_RELEASE_V1.0.2/MSDK/wpa_supplicant/src/ap\ap_config.c **** 	pbkdf2_sha1(ssid->wpa_passphrase,
 468:C:/Users/stapi/OneDrive/Desktop/GD32VW553/V1_MQTT_OK/GD32VW55X_Wifi_BLE_SDK/GD32VW55x_RELEASE_V1.0.2/MSDK/wpa_supplicant/src/ap\ap_config.c **** 		    ssid->ssid, ssid->ssid_len,
 469:C:/Users/stapi/OneDrive/Desktop/GD32VW553/V1_MQTT_OK/GD32VW55X_Wifi_BLE_SDK/GD32VW55x_RELEASE_V1.0.2/MSDK/wpa_supplicant/src/ap\ap_config.c **** 		    4096, ssid->wpa_psk->psk, PMK_LEN);
 470:C:/Users/stapi/OneDrive/Desktop/GD32VW553/V1_MQTT_OK/GD32VW55X_Wifi_BLE_SDK/GD32VW55x_RELEASE_V1.0.2/MSDK/wpa_supplicant/src/ap\ap_config.c **** 	wpa_hexdump_key(MSG_DEBUG, "PSK (from passphrase)",
 471:C:/Users/stapi/OneDrive/Desktop/GD32VW553/V1_MQTT_OK/GD32VW55X_Wifi_BLE_SDK/GD32VW55x_RELEASE_V1.0.2/MSDK/wpa_supplicant/src/ap\ap_config.c **** 			ssid->wpa_psk->psk, PMK_LEN);
 472:C:/Users/stapi/OneDrive/Desktop/GD32VW553/V1_MQTT_OK/GD32VW55X_Wifi_BLE_SDK/GD32VW55x_RELEASE_V1.0.2/MSDK/wpa_supplicant/src/ap\ap_config.c **** 	return 0;
 473:C:/Users/stapi/OneDrive/Desktop/GD32VW553/V1_MQTT_OK/GD32VW55X_Wifi_BLE_SDK/GD32VW55x_RELEASE_V1.0.2/MSDK/wpa_supplicant/src/ap\ap_config.c **** }
 474:C:/Users/stapi/OneDrive/Desktop/GD32VW553/V1_MQTT_OK/GD32VW55X_Wifi_BLE_SDK/GD32VW55x_RELEASE_V1.0.2/MSDK/wpa_supplicant/src/ap\ap_config.c **** 
 475:C:/Users/stapi/OneDrive/Desktop/GD32VW553/V1_MQTT_OK/GD32VW55X_Wifi_BLE_SDK/GD32VW55x_RELEASE_V1.0.2/MSDK/wpa_supplicant/src/ap\ap_config.c **** 
 476:C:/Users/stapi/OneDrive/Desktop/GD32VW553/V1_MQTT_OK/GD32VW55X_Wifi_BLE_SDK/GD32VW55x_RELEASE_V1.0.2/MSDK/wpa_supplicant/src/ap\ap_config.c **** int hostapd_setup_sae_pt(struct hostapd_bss_config *conf)
 477:C:/Users/stapi/OneDrive/Desktop/GD32VW553/V1_MQTT_OK/GD32VW55X_Wifi_BLE_SDK/GD32VW55x_RELEASE_V1.0.2/MSDK/wpa_supplicant/src/ap\ap_config.c **** {
 478:C:/Users/stapi/OneDrive/Desktop/GD32VW553/V1_MQTT_OK/GD32VW55X_Wifi_BLE_SDK/GD32VW55x_RELEASE_V1.0.2/MSDK/wpa_supplicant/src/ap\ap_config.c **** #ifdef CONFIG_SAE
 479:C:/Users/stapi/OneDrive/Desktop/GD32VW553/V1_MQTT_OK/GD32VW55X_Wifi_BLE_SDK/GD32VW55x_RELEASE_V1.0.2/MSDK/wpa_supplicant/src/ap\ap_config.c **** 	struct hostapd_ssid *ssid = &conf->ssid;
 480:C:/Users/stapi/OneDrive/Desktop/GD32VW553/V1_MQTT_OK/GD32VW55X_Wifi_BLE_SDK/GD32VW55x_RELEASE_V1.0.2/MSDK/wpa_supplicant/src/ap\ap_config.c **** 	struct sae_password_entry *pw;
 481:C:/Users/stapi/OneDrive/Desktop/GD32VW553/V1_MQTT_OK/GD32VW55X_Wifi_BLE_SDK/GD32VW55x_RELEASE_V1.0.2/MSDK/wpa_supplicant/src/ap\ap_config.c **** 
 482:C:/Users/stapi/OneDrive/Desktop/GD32VW553/V1_MQTT_OK/GD32VW55X_Wifi_BLE_SDK/GD32VW55x_RELEASE_V1.0.2/MSDK/wpa_supplicant/src/ap\ap_config.c **** 	if ((conf->sae_pwe == 0 && !hostapd_sae_pw_id_in_use(conf) &&
 483:C:/Users/stapi/OneDrive/Desktop/GD32VW553/V1_MQTT_OK/GD32VW55X_Wifi_BLE_SDK/GD32VW55x_RELEASE_V1.0.2/MSDK/wpa_supplicant/src/ap\ap_config.c **** 	     !hostapd_sae_pk_in_use(conf)) ||
 484:C:/Users/stapi/OneDrive/Desktop/GD32VW553/V1_MQTT_OK/GD32VW55X_Wifi_BLE_SDK/GD32VW55x_RELEASE_V1.0.2/MSDK/wpa_supplicant/src/ap\ap_config.c **** 	    conf->sae_pwe == 3 ||
 485:C:/Users/stapi/OneDrive/Desktop/GD32VW553/V1_MQTT_OK/GD32VW55X_Wifi_BLE_SDK/GD32VW55x_RELEASE_V1.0.2/MSDK/wpa_supplicant/src/ap\ap_config.c **** 	    !wpa_key_mgmt_sae(conf->wpa_key_mgmt))
 486:C:/Users/stapi/OneDrive/Desktop/GD32VW553/V1_MQTT_OK/GD32VW55X_Wifi_BLE_SDK/GD32VW55x_RELEASE_V1.0.2/MSDK/wpa_supplicant/src/ap\ap_config.c **** 		return 0; /* PT not needed */
 487:C:/Users/stapi/OneDrive/Desktop/GD32VW553/V1_MQTT_OK/GD32VW55X_Wifi_BLE_SDK/GD32VW55x_RELEASE_V1.0.2/MSDK/wpa_supplicant/src/ap\ap_config.c **** 
 488:C:/Users/stapi/OneDrive/Desktop/GD32VW553/V1_MQTT_OK/GD32VW55X_Wifi_BLE_SDK/GD32VW55x_RELEASE_V1.0.2/MSDK/wpa_supplicant/src/ap\ap_config.c **** 	sae_deinit_pt(ssid->pt);
 489:C:/Users/stapi/OneDrive/Desktop/GD32VW553/V1_MQTT_OK/GD32VW55X_Wifi_BLE_SDK/GD32VW55x_RELEASE_V1.0.2/MSDK/wpa_supplicant/src/ap\ap_config.c **** 	ssid->pt = NULL;
 490:C:/Users/stapi/OneDrive/Desktop/GD32VW553/V1_MQTT_OK/GD32VW55X_Wifi_BLE_SDK/GD32VW55x_RELEASE_V1.0.2/MSDK/wpa_supplicant/src/ap\ap_config.c **** 	if (ssid->wpa_passphrase) {
 491:C:/Users/stapi/OneDrive/Desktop/GD32VW553/V1_MQTT_OK/GD32VW55X_Wifi_BLE_SDK/GD32VW55x_RELEASE_V1.0.2/MSDK/wpa_supplicant/src/ap\ap_config.c **** 		ssid->pt = sae_derive_pt(conf->sae_groups, ssid->ssid,
 492:C:/Users/stapi/OneDrive/Desktop/GD32VW553/V1_MQTT_OK/GD32VW55X_Wifi_BLE_SDK/GD32VW55x_RELEASE_V1.0.2/MSDK/wpa_supplicant/src/ap\ap_config.c **** 					 ssid->ssid_len,
 493:C:/Users/stapi/OneDrive/Desktop/GD32VW553/V1_MQTT_OK/GD32VW55X_Wifi_BLE_SDK/GD32VW55x_RELEASE_V1.0.2/MSDK/wpa_supplicant/src/ap\ap_config.c **** 					 (const u8 *) ssid->wpa_passphrase,
 494:C:/Users/stapi/OneDrive/Desktop/GD32VW553/V1_MQTT_OK/GD32VW55X_Wifi_BLE_SDK/GD32VW55x_RELEASE_V1.0.2/MSDK/wpa_supplicant/src/ap\ap_config.c **** 					 os_strlen(ssid->wpa_passphrase),
 495:C:/Users/stapi/OneDrive/Desktop/GD32VW553/V1_MQTT_OK/GD32VW55X_Wifi_BLE_SDK/GD32VW55x_RELEASE_V1.0.2/MSDK/wpa_supplicant/src/ap\ap_config.c **** 					 NULL);
 496:C:/Users/stapi/OneDrive/Desktop/GD32VW553/V1_MQTT_OK/GD32VW55X_Wifi_BLE_SDK/GD32VW55x_RELEASE_V1.0.2/MSDK/wpa_supplicant/src/ap\ap_config.c **** 		if (!ssid->pt)
 497:C:/Users/stapi/OneDrive/Desktop/GD32VW553/V1_MQTT_OK/GD32VW55X_Wifi_BLE_SDK/GD32VW55x_RELEASE_V1.0.2/MSDK/wpa_supplicant/src/ap\ap_config.c **** 			return -1;
 498:C:/Users/stapi/OneDrive/Desktop/GD32VW553/V1_MQTT_OK/GD32VW55X_Wifi_BLE_SDK/GD32VW55x_RELEASE_V1.0.2/MSDK/wpa_supplicant/src/ap\ap_config.c **** 	}
 499:C:/Users/stapi/OneDrive/Desktop/GD32VW553/V1_MQTT_OK/GD32VW55X_Wifi_BLE_SDK/GD32VW55x_RELEASE_V1.0.2/MSDK/wpa_supplicant/src/ap\ap_config.c **** 
 500:C:/Users/stapi/OneDrive/Desktop/GD32VW553/V1_MQTT_OK/GD32VW55X_Wifi_BLE_SDK/GD32VW55x_RELEASE_V1.0.2/MSDK/wpa_supplicant/src/ap\ap_config.c **** 	for (pw = conf->sae_passwords; pw; pw = pw->next) {
 501:C:/Users/stapi/OneDrive/Desktop/GD32VW553/V1_MQTT_OK/GD32VW55X_Wifi_BLE_SDK/GD32VW55x_RELEASE_V1.0.2/MSDK/wpa_supplicant/src/ap\ap_config.c **** 		sae_deinit_pt(pw->pt);
 502:C:/Users/stapi/OneDrive/Desktop/GD32VW553/V1_MQTT_OK/GD32VW55X_Wifi_BLE_SDK/GD32VW55x_RELEASE_V1.0.2/MSDK/wpa_supplicant/src/ap\ap_config.c **** 		pw->pt = sae_derive_pt(conf->sae_groups, ssid->ssid,
 503:C:/Users/stapi/OneDrive/Desktop/GD32VW553/V1_MQTT_OK/GD32VW55X_Wifi_BLE_SDK/GD32VW55x_RELEASE_V1.0.2/MSDK/wpa_supplicant/src/ap\ap_config.c **** 				       ssid->ssid_len,
 504:C:/Users/stapi/OneDrive/Desktop/GD32VW553/V1_MQTT_OK/GD32VW55X_Wifi_BLE_SDK/GD32VW55x_RELEASE_V1.0.2/MSDK/wpa_supplicant/src/ap\ap_config.c **** 				       (const u8 *) pw->password,
 505:C:/Users/stapi/OneDrive/Desktop/GD32VW553/V1_MQTT_OK/GD32VW55X_Wifi_BLE_SDK/GD32VW55x_RELEASE_V1.0.2/MSDK/wpa_supplicant/src/ap\ap_config.c **** 				       os_strlen(pw->password),
 506:C:/Users/stapi/OneDrive/Desktop/GD32VW553/V1_MQTT_OK/GD32VW55X_Wifi_BLE_SDK/GD32VW55x_RELEASE_V1.0.2/MSDK/wpa_supplicant/src/ap\ap_config.c **** 				       pw->identifier);
 507:C:/Users/stapi/OneDrive/Desktop/GD32VW553/V1_MQTT_OK/GD32VW55X_Wifi_BLE_SDK/GD32VW55x_RELEASE_V1.0.2/MSDK/wpa_supplicant/src/ap\ap_config.c **** 		if (!pw->pt)
 508:C:/Users/stapi/OneDrive/Desktop/GD32VW553/V1_MQTT_OK/GD32VW55X_Wifi_BLE_SDK/GD32VW55x_RELEASE_V1.0.2/MSDK/wpa_supplicant/src/ap\ap_config.c **** 			return -1;
 509:C:/Users/stapi/OneDrive/Desktop/GD32VW553/V1_MQTT_OK/GD32VW55X_Wifi_BLE_SDK/GD32VW55x_RELEASE_V1.0.2/MSDK/wpa_supplicant/src/ap\ap_config.c **** 	}
 510:C:/Users/stapi/OneDrive/Desktop/GD32VW553/V1_MQTT_OK/GD32VW55X_Wifi_BLE_SDK/GD32VW55x_RELEASE_V1.0.2/MSDK/wpa_supplicant/src/ap\ap_config.c **** #endif /* CONFIG_SAE */
 511:C:/Users/stapi/OneDrive/Desktop/GD32VW553/V1_MQTT_OK/GD32VW55X_Wifi_BLE_SDK/GD32VW55x_RELEASE_V1.0.2/MSDK/wpa_supplicant/src/ap\ap_config.c **** 
 512:C:/Users/stapi/OneDrive/Desktop/GD32VW553/V1_MQTT_OK/GD32VW55X_Wifi_BLE_SDK/GD32VW55x_RELEASE_V1.0.2/MSDK/wpa_supplicant/src/ap\ap_config.c **** 	return 0;
 513:C:/Users/stapi/OneDrive/Desktop/GD32VW553/V1_MQTT_OK/GD32VW55X_Wifi_BLE_SDK/GD32VW55x_RELEASE_V1.0.2/MSDK/wpa_supplicant/src/ap\ap_config.c **** }
 514:C:/Users/stapi/OneDrive/Desktop/GD32VW553/V1_MQTT_OK/GD32VW55X_Wifi_BLE_SDK/GD32VW55x_RELEASE_V1.0.2/MSDK/wpa_supplicant/src/ap\ap_config.c **** 
 515:C:/Users/stapi/OneDrive/Desktop/GD32VW553/V1_MQTT_OK/GD32VW55X_Wifi_BLE_SDK/GD32VW55x_RELEASE_V1.0.2/MSDK/wpa_supplicant/src/ap\ap_config.c **** 
 516:C:/Users/stapi/OneDrive/Desktop/GD32VW553/V1_MQTT_OK/GD32VW55X_Wifi_BLE_SDK/GD32VW55x_RELEASE_V1.0.2/MSDK/wpa_supplicant/src/ap\ap_config.c **** int hostapd_setup_wpa_psk(struct hostapd_bss_config *conf)
 517:C:/Users/stapi/OneDrive/Desktop/GD32VW553/V1_MQTT_OK/GD32VW55X_Wifi_BLE_SDK/GD32VW55x_RELEASE_V1.0.2/MSDK/wpa_supplicant/src/ap\ap_config.c **** {
 518:C:/Users/stapi/OneDrive/Desktop/GD32VW553/V1_MQTT_OK/GD32VW55X_Wifi_BLE_SDK/GD32VW55x_RELEASE_V1.0.2/MSDK/wpa_supplicant/src/ap\ap_config.c **** 	struct hostapd_ssid *ssid = &conf->ssid;
 519:C:/Users/stapi/OneDrive/Desktop/GD32VW553/V1_MQTT_OK/GD32VW55X_Wifi_BLE_SDK/GD32VW55x_RELEASE_V1.0.2/MSDK/wpa_supplicant/src/ap\ap_config.c **** 
 520:C:/Users/stapi/OneDrive/Desktop/GD32VW553/V1_MQTT_OK/GD32VW55X_Wifi_BLE_SDK/GD32VW55x_RELEASE_V1.0.2/MSDK/wpa_supplicant/src/ap\ap_config.c **** 	if (hostapd_setup_sae_pt(conf) < 0)
 521:C:/Users/stapi/OneDrive/Desktop/GD32VW553/V1_MQTT_OK/GD32VW55X_Wifi_BLE_SDK/GD32VW55x_RELEASE_V1.0.2/MSDK/wpa_supplicant/src/ap\ap_config.c **** 		return -1;
 522:C:/Users/stapi/OneDrive/Desktop/GD32VW553/V1_MQTT_OK/GD32VW55X_Wifi_BLE_SDK/GD32VW55x_RELEASE_V1.0.2/MSDK/wpa_supplicant/src/ap\ap_config.c **** 
 523:C:/Users/stapi/OneDrive/Desktop/GD32VW553/V1_MQTT_OK/GD32VW55X_Wifi_BLE_SDK/GD32VW55x_RELEASE_V1.0.2/MSDK/wpa_supplicant/src/ap\ap_config.c **** 	if (ssid->wpa_passphrase != NULL) {
 524:C:/Users/stapi/OneDrive/Desktop/GD32VW553/V1_MQTT_OK/GD32VW55X_Wifi_BLE_SDK/GD32VW55x_RELEASE_V1.0.2/MSDK/wpa_supplicant/src/ap\ap_config.c **** 		if (ssid->wpa_psk != NULL) {
 525:C:/Users/stapi/OneDrive/Desktop/GD32VW553/V1_MQTT_OK/GD32VW55X_Wifi_BLE_SDK/GD32VW55x_RELEASE_V1.0.2/MSDK/wpa_supplicant/src/ap\ap_config.c **** 			wpa_printf(MSG_DEBUG, "Using pre-configured WPA PSK "
 526:C:/Users/stapi/OneDrive/Desktop/GD32VW553/V1_MQTT_OK/GD32VW55X_Wifi_BLE_SDK/GD32VW55x_RELEASE_V1.0.2/MSDK/wpa_supplicant/src/ap\ap_config.c **** 				   "instead of passphrase");
 527:C:/Users/stapi/OneDrive/Desktop/GD32VW553/V1_MQTT_OK/GD32VW55X_Wifi_BLE_SDK/GD32VW55x_RELEASE_V1.0.2/MSDK/wpa_supplicant/src/ap\ap_config.c **** 		} else {
 528:C:/Users/stapi/OneDrive/Desktop/GD32VW553/V1_MQTT_OK/GD32VW55X_Wifi_BLE_SDK/GD32VW55x_RELEASE_V1.0.2/MSDK/wpa_supplicant/src/ap\ap_config.c **** 			wpa_printf(MSG_DEBUG, "Deriving WPA PSK based on "
 529:C:/Users/stapi/OneDrive/Desktop/GD32VW553/V1_MQTT_OK/GD32VW55X_Wifi_BLE_SDK/GD32VW55x_RELEASE_V1.0.2/MSDK/wpa_supplicant/src/ap\ap_config.c **** 				   "passphrase");
 530:C:/Users/stapi/OneDrive/Desktop/GD32VW553/V1_MQTT_OK/GD32VW55X_Wifi_BLE_SDK/GD32VW55x_RELEASE_V1.0.2/MSDK/wpa_supplicant/src/ap\ap_config.c **** 			if (hostapd_derive_psk(ssid) < 0)
 531:C:/Users/stapi/OneDrive/Desktop/GD32VW553/V1_MQTT_OK/GD32VW55X_Wifi_BLE_SDK/GD32VW55x_RELEASE_V1.0.2/MSDK/wpa_supplicant/src/ap\ap_config.c **** 				return -1;
 532:C:/Users/stapi/OneDrive/Desktop/GD32VW553/V1_MQTT_OK/GD32VW55X_Wifi_BLE_SDK/GD32VW55x_RELEASE_V1.0.2/MSDK/wpa_supplicant/src/ap\ap_config.c **** 		}
 533:C:/Users/stapi/OneDrive/Desktop/GD32VW553/V1_MQTT_OK/GD32VW55X_Wifi_BLE_SDK/GD32VW55x_RELEASE_V1.0.2/MSDK/wpa_supplicant/src/ap\ap_config.c **** 		ssid->wpa_psk->group = 1;
 534:C:/Users/stapi/OneDrive/Desktop/GD32VW553/V1_MQTT_OK/GD32VW55X_Wifi_BLE_SDK/GD32VW55x_RELEASE_V1.0.2/MSDK/wpa_supplicant/src/ap\ap_config.c **** 	}
 535:C:/Users/stapi/OneDrive/Desktop/GD32VW553/V1_MQTT_OK/GD32VW55X_Wifi_BLE_SDK/GD32VW55x_RELEASE_V1.0.2/MSDK/wpa_supplicant/src/ap\ap_config.c **** 
 536:C:/Users/stapi/OneDrive/Desktop/GD32VW553/V1_MQTT_OK/GD32VW55X_Wifi_BLE_SDK/GD32VW55x_RELEASE_V1.0.2/MSDK/wpa_supplicant/src/ap\ap_config.c **** 	return hostapd_config_read_wpa_psk(ssid->wpa_psk_file, &conf->ssid);
 537:C:/Users/stapi/OneDrive/Desktop/GD32VW553/V1_MQTT_OK/GD32VW55X_Wifi_BLE_SDK/GD32VW55x_RELEASE_V1.0.2/MSDK/wpa_supplicant/src/ap\ap_config.c **** }
 538:C:/Users/stapi/OneDrive/Desktop/GD32VW553/V1_MQTT_OK/GD32VW55X_Wifi_BLE_SDK/GD32VW55x_RELEASE_V1.0.2/MSDK/wpa_supplicant/src/ap\ap_config.c **** 
 539:C:/Users/stapi/OneDrive/Desktop/GD32VW553/V1_MQTT_OK/GD32VW55X_Wifi_BLE_SDK/GD32VW55x_RELEASE_V1.0.2/MSDK/wpa_supplicant/src/ap\ap_config.c **** 
 540:C:/Users/stapi/OneDrive/Desktop/GD32VW553/V1_MQTT_OK/GD32VW55X_Wifi_BLE_SDK/GD32VW55x_RELEASE_V1.0.2/MSDK/wpa_supplicant/src/ap\ap_config.c **** static void hostapd_config_free_radius(struct hostapd_radius_server *servers,
 541:C:/Users/stapi/OneDrive/Desktop/GD32VW553/V1_MQTT_OK/GD32VW55X_Wifi_BLE_SDK/GD32VW55x_RELEASE_V1.0.2/MSDK/wpa_supplicant/src/ap\ap_config.c **** 				       int num_servers)
 542:C:/Users/stapi/OneDrive/Desktop/GD32VW553/V1_MQTT_OK/GD32VW55X_Wifi_BLE_SDK/GD32VW55x_RELEASE_V1.0.2/MSDK/wpa_supplicant/src/ap\ap_config.c **** {
  45              		.loc 2 542 1 is_stmt 1
  46              		.cfi_startproc
  47              	.LVL2:
  48 0000 17030000 		call	t0,__riscv_save_4
  48      E7020300 
  49              		.cfi_offset 19, -20
  50              		.cfi_offset 18, -16
  51              		.cfi_offset 9, -12
  52              		.cfi_offset 8, -8
  53              		.cfi_offset 1, -4
  54              		.cfi_def_cfa_offset 32
 543:C:/Users/stapi/OneDrive/Desktop/GD32VW553/V1_MQTT_OK/GD32VW55X_Wifi_BLE_SDK/GD32VW55x_RELEASE_V1.0.2/MSDK/wpa_supplicant/src/ap\ap_config.c **** 	int i;
  55              		.loc 2 543 2
 544:C:/Users/stapi/OneDrive/Desktop/GD32VW553/V1_MQTT_OK/GD32VW55X_Wifi_BLE_SDK/GD32VW55x_RELEASE_V1.0.2/MSDK/wpa_supplicant/src/ap\ap_config.c **** 
 545:C:/Users/stapi/OneDrive/Desktop/GD32VW553/V1_MQTT_OK/GD32VW55X_Wifi_BLE_SDK/GD32VW55x_RELEASE_V1.0.2/MSDK/wpa_supplicant/src/ap\ap_config.c **** 	for (i = 0; i < num_servers; i++) {
  56              		.loc 2 545 2
  57              	.LVL3:
 542:C:/Users/stapi/OneDrive/Desktop/GD32VW553/V1_MQTT_OK/GD32VW55X_Wifi_BLE_SDK/GD32VW55x_RELEASE_V1.0.2/MSDK/wpa_supplicant/src/ap\ap_config.c **** 	int i;
  58              		.loc 2 542 1 is_stmt 0
  59 0008 2A84     		mv	s0,a0
  60 000a AE84     		mv	s1,a1
  61 000c 93098501 		addi	s3,a0,24
  62              		.loc 2 545 9
  63 0010 0149     		li	s2,0
  64              	.LVL4:
  65              	.L3:
  66              		.loc 2 545 14 is_stmt 1 discriminator 1
  67              		.loc 2 545 2 is_stmt 0 discriminator 1
  68 0012 634B9900 		blt	s2,s1,.L4
 546:C:/Users/stapi/OneDrive/Desktop/GD32VW553/V1_MQTT_OK/GD32VW55X_Wifi_BLE_SDK/GD32VW55x_RELEASE_V1.0.2/MSDK/wpa_supplicant/src/ap\ap_config.c **** 		os_free(servers[i].shared_secret);
 547:C:/Users/stapi/OneDrive/Desktop/GD32VW553/V1_MQTT_OK/GD32VW55X_Wifi_BLE_SDK/GD32VW55x_RELEASE_V1.0.2/MSDK/wpa_supplicant/src/ap\ap_config.c **** 	}
 548:C:/Users/stapi/OneDrive/Desktop/GD32VW553/V1_MQTT_OK/GD32VW55X_Wifi_BLE_SDK/GD32VW55x_RELEASE_V1.0.2/MSDK/wpa_supplicant/src/ap\ap_config.c **** 	os_free(servers);
  69              		.loc 2 548 2 is_stmt 1
  70 0016 2285     		mv	a0,s0
  71 0018 97000000 		call	os_free
  71      E7800000 
  72              	.LVL5:
 549:C:/Users/stapi/OneDrive/Desktop/GD32VW553/V1_MQTT_OK/GD32VW55X_Wifi_BLE_SDK/GD32VW55x_RELEASE_V1.0.2/MSDK/wpa_supplicant/src/ap\ap_config.c **** }
  73              		.loc 2 549 1 is_stmt 0
  74 0020 17030000 		tail	__riscv_restore_4
  74      67000300 
  75              		.cfi_remember_state
  76              		.cfi_restore 19
  77              		.cfi_restore 18
  78              		.cfi_restore 9
  79              		.cfi_restore 8
  80              		.cfi_restore 1
  81              		.cfi_def_cfa_offset 0
  82              	.L4:
  83              		.cfi_restore_state
 546:C:/Users/stapi/OneDrive/Desktop/GD32VW553/V1_MQTT_OK/GD32VW55X_Wifi_BLE_SDK/GD32VW55x_RELEASE_V1.0.2/MSDK/wpa_supplicant/src/ap\ap_config.c **** 		os_free(servers[i].shared_secret);
  84              		.loc 2 546 3 is_stmt 1 discriminator 3
  85 0028 03A50900 		lw	a0,0(s3)
 545:C:/Users/stapi/OneDrive/Desktop/GD32VW553/V1_MQTT_OK/GD32VW55X_Wifi_BLE_SDK/GD32VW55x_RELEASE_V1.0.2/MSDK/wpa_supplicant/src/ap\ap_config.c **** 		os_free(servers[i].shared_secret);
  86              		.loc 2 545 32 is_stmt 0 discriminator 3
  87 002c 0509     		addi	s2,s2,1
  88              	.LVL6:
  89 002e 93894905 		addi	s3,s3,84
 546:C:/Users/stapi/OneDrive/Desktop/GD32VW553/V1_MQTT_OK/GD32VW55X_Wifi_BLE_SDK/GD32VW55x_RELEASE_V1.0.2/MSDK/wpa_supplicant/src/ap\ap_config.c **** 		os_free(servers[i].shared_secret);
  90              		.loc 2 546 3 discriminator 3
  91 0032 97000000 		call	os_free
  91      E7800000 
  92              	.LVL7:
 545:C:/Users/stapi/OneDrive/Desktop/GD32VW553/V1_MQTT_OK/GD32VW55X_Wifi_BLE_SDK/GD32VW55x_RELEASE_V1.0.2/MSDK/wpa_supplicant/src/ap\ap_config.c **** 		os_free(servers[i].shared_secret);
  93              		.loc 2 545 31 is_stmt 1 discriminator 3
  94 003a E1BF     		j	.L3
  95              		.cfi_endproc
  96              	.LFE145:
  98              		.section	.text.hostapd_config_defaults_bss,"ax",@progbits
  99              		.align	1
 100              		.globl	hostapd_config_defaults_bss
 102              	hostapd_config_defaults_bss:
 103              	.LFB138:
  52:C:/Users/stapi/OneDrive/Desktop/GD32VW553/V1_MQTT_OK/GD32VW55X_Wifi_BLE_SDK/GD32VW55x_RELEASE_V1.0.2/MSDK/wpa_supplicant/src/ap\ap_config.c **** 	dl_list_init(&bss->anqp_elem);
 104              		.loc 2 52 1
 105              		.cfi_startproc
 106              	.LVL8:
  53:C:/Users/stapi/OneDrive/Desktop/GD32VW553/V1_MQTT_OK/GD32VW55X_Wifi_BLE_SDK/GD32VW55x_RELEASE_V1.0.2/MSDK/wpa_supplicant/src/ap\ap_config.c **** 
 107              		.loc 2 53 2
 108              	.LBB18:
 109              	.LBB19:
 110              		.file 3 "..\\..\\..\\..\\wpa_supplicant\\src/utils/list.h"
   1:..\..\..\..\wpa_supplicant\src/utils/list.h **** /*
   2:..\..\..\..\wpa_supplicant\src/utils/list.h ****  * Doubly-linked list
   3:..\..\..\..\wpa_supplicant\src/utils/list.h ****  * Copyright (c) 2009-2019, Jouni Malinen <j@w1.fi>
   4:..\..\..\..\wpa_supplicant\src/utils/list.h ****  *
   5:..\..\..\..\wpa_supplicant\src/utils/list.h ****  * This software may be distributed under the terms of the BSD license.
   6:..\..\..\..\wpa_supplicant\src/utils/list.h ****  * See README for more details.
   7:..\..\..\..\wpa_supplicant\src/utils/list.h ****  */
   8:..\..\..\..\wpa_supplicant\src/utils/list.h **** 
   9:..\..\..\..\wpa_supplicant\src/utils/list.h **** #ifndef DL_LIST_H
  10:..\..\..\..\wpa_supplicant\src/utils/list.h **** #define DL_LIST_H
  11:..\..\..\..\wpa_supplicant\src/utils/list.h **** 
  12:..\..\..\..\wpa_supplicant\src/utils/list.h **** /**
  13:..\..\..\..\wpa_supplicant\src/utils/list.h ****  * struct dl_list - Doubly-linked list
  14:..\..\..\..\wpa_supplicant\src/utils/list.h ****  */
  15:..\..\..\..\wpa_supplicant\src/utils/list.h **** struct dl_list {
  16:..\..\..\..\wpa_supplicant\src/utils/list.h **** 	struct dl_list *next;
  17:..\..\..\..\wpa_supplicant\src/utils/list.h **** 	struct dl_list *prev;
  18:..\..\..\..\wpa_supplicant\src/utils/list.h **** };
  19:..\..\..\..\wpa_supplicant\src/utils/list.h **** 
  20:..\..\..\..\wpa_supplicant\src/utils/list.h **** #define DL_LIST_HEAD_INIT(l) { &(l), &(l) }
  21:..\..\..\..\wpa_supplicant\src/utils/list.h **** 
  22:..\..\..\..\wpa_supplicant\src/utils/list.h **** static inline void dl_list_init(struct dl_list *list)
  23:..\..\..\..\wpa_supplicant\src/utils/list.h **** {
  24:..\..\..\..\wpa_supplicant\src/utils/list.h **** 	list->next = list;
 111              		.loc 3 24 13 is_stmt 0
 112 0000 93050530 		addi	a1,a0,768
 113              	.LBE19:
 114              	.LBE18:
  53:C:/Users/stapi/OneDrive/Desktop/GD32VW553/V1_MQTT_OK/GD32VW55X_Wifi_BLE_SDK/GD32VW55x_RELEASE_V1.0.2/MSDK/wpa_supplicant/src/ap\ap_config.c **** 
 115              		.loc 2 53 2
 116 0004 93070531 		addi	a5,a0,784
 117              	.LVL9:
 118              	.LBB21:
 119              	.LBB20:
 120              		.loc 3 24 2 is_stmt 1
 121              		.loc 3 24 13 is_stmt 0
 122 0008 9CC9     		sw	a5,16(a1)
  25:..\..\..\..\wpa_supplicant\src/utils/list.h **** 	list->prev = list;
 123              		.loc 3 25 2 is_stmt 1
 124              		.loc 3 25 13 is_stmt 0
 125 000a DCC9     		sw	a5,20(a1)
 126              	.LVL10:
 127              	.LBE20:
 128              	.LBE21:
  55:C:/Users/stapi/OneDrive/Desktop/GD32VW553/V1_MQTT_OK/GD32VW55X_Wifi_BLE_SDK/GD32VW55x_RELEASE_V1.0.2/MSDK/wpa_supplicant/src/ap\ap_config.c **** 	bss->logger_stdout_level = HOSTAPD_LEVEL_INFO;
 129              		.loc 2 55 2 is_stmt 1
  55:C:/Users/stapi/OneDrive/Desktop/GD32VW553/V1_MQTT_OK/GD32VW55X_Wifi_BLE_SDK/GD32VW55x_RELEASE_V1.0.2/MSDK/wpa_supplicant/src/ap\ap_config.c **** 	bss->logger_stdout_level = HOSTAPD_LEVEL_INFO;
 130              		.loc 2 55 27 is_stmt 0
 131 000c 0946     		li	a2,2
  57:C:/Users/stapi/OneDrive/Desktop/GD32VW553/V1_MQTT_OK/GD32VW55X_Wifi_BLE_SDK/GD32VW55x_RELEASE_V1.0.2/MSDK/wpa_supplicant/src/ap\ap_config.c **** 	bss->logger_stdout = (unsigned int) -1;
 132              		.loc 2 57 21
 133 000e FD58     		li	a7,-1
  70:C:/Users/stapi/OneDrive/Desktop/GD32VW553/V1_MQTT_OK/GD32VW55X_Wifi_BLE_SDK/GD32VW55x_RELEASE_V1.0.2/MSDK/wpa_supplicant/src/ap\ap_config.c **** 
 134              		.loc 2 70 25
 135 0010 0567     		li	a4,4096
  55:C:/Users/stapi/OneDrive/Desktop/GD32VW553/V1_MQTT_OK/GD32VW55X_Wifi_BLE_SDK/GD32VW55x_RELEASE_V1.0.2/MSDK/wpa_supplicant/src/ap\ap_config.c **** 	bss->logger_stdout_level = HOSTAPD_LEVEL_INFO;
 136              		.loc 2 55 27
 137 0012 50CD     		sw	a2,28(a0)
  56:C:/Users/stapi/OneDrive/Desktop/GD32VW553/V1_MQTT_OK/GD32VW55X_Wifi_BLE_SDK/GD32VW55x_RELEASE_V1.0.2/MSDK/wpa_supplicant/src/ap\ap_config.c **** 	bss->logger_syslog = (unsigned int) -1;
 138              		.loc 2 56 2 is_stmt 1
  56:C:/Users/stapi/OneDrive/Desktop/GD32VW553/V1_MQTT_OK/GD32VW55X_Wifi_BLE_SDK/GD32VW55x_RELEASE_V1.0.2/MSDK/wpa_supplicant/src/ap\ap_config.c **** 	bss->logger_syslog = (unsigned int) -1;
 139              		.loc 2 56 27 is_stmt 0
 140 0014 10D1     		sw	a2,32(a0)
  57:C:/Users/stapi/OneDrive/Desktop/GD32VW553/V1_MQTT_OK/GD32VW55X_Wifi_BLE_SDK/GD32VW55x_RELEASE_V1.0.2/MSDK/wpa_supplicant/src/ap\ap_config.c **** 	bss->logger_stdout = (unsigned int) -1;
 141              		.loc 2 57 2 is_stmt 1
  57:C:/Users/stapi/OneDrive/Desktop/GD32VW553/V1_MQTT_OK/GD32VW55X_Wifi_BLE_SDK/GD32VW55x_RELEASE_V1.0.2/MSDK/wpa_supplicant/src/ap\ap_config.c **** 	bss->logger_stdout = (unsigned int) -1;
 142              		.loc 2 57 21 is_stmt 0
 143 0016 23221503 		sw	a7,36(a0)
  58:C:/Users/stapi/OneDrive/Desktop/GD32VW553/V1_MQTT_OK/GD32VW55X_Wifi_BLE_SDK/GD32VW55x_RELEASE_V1.0.2/MSDK/wpa_supplicant/src/ap\ap_config.c **** 
 144              		.loc 2 58 2 is_stmt 1
  58:C:/Users/stapi/OneDrive/Desktop/GD32VW553/V1_MQTT_OK/GD32VW55X_Wifi_BLE_SDK/GD32VW55x_RELEASE_V1.0.2/MSDK/wpa_supplicant/src/ap\ap_config.c **** 
 145              		.loc 2 58 21 is_stmt 0
 146 001a 23241503 		sw	a7,40(a0)
  68:C:/Users/stapi/OneDrive/Desktop/GD32VW553/V1_MQTT_OK/GD32VW55X_Wifi_BLE_SDK/GD32VW55x_RELEASE_V1.0.2/MSDK/wpa_supplicant/src/ap\ap_config.c **** #endif /* CONFIG_WEP */
 147              		.loc 2 68 2 is_stmt 1
  68:C:/Users/stapi/OneDrive/Desktop/GD32VW553/V1_MQTT_OK/GD32VW55X_Wifi_BLE_SDK/GD32VW55x_RELEASE_V1.0.2/MSDK/wpa_supplicant/src/ap\ap_config.c **** #endif /* CONFIG_WEP */
 148              		.loc 2 68 17 is_stmt 0
 149 001e 93070510 		addi	a5,a0,256
  70:C:/Users/stapi/OneDrive/Desktop/GD32VW553/V1_MQTT_OK/GD32VW55X_Wifi_BLE_SDK/GD32VW55x_RELEASE_V1.0.2/MSDK/wpa_supplicant/src/ap\ap_config.c **** 
 150              		.loc 2 70 25
 151 0022 130707E1 		addi	a4,a4,-496
 152 0026 D8CB     		sw	a4,20(a5)
  68:C:/Users/stapi/OneDrive/Desktop/GD32VW553/V1_MQTT_OK/GD32VW55X_Wifi_BLE_SDK/GD32VW55x_RELEASE_V1.0.2/MSDK/wpa_supplicant/src/ap\ap_config.c **** #endif /* CONFIG_WEP */
 153              		.loc 2 68 17
 154 0028 8546     		li	a3,1
  72:C:/Users/stapi/OneDrive/Desktop/GD32VW553/V1_MQTT_OK/GD32VW55X_Wifi_BLE_SDK/GD32VW55x_RELEASE_V1.0.2/MSDK/wpa_supplicant/src/ap\ap_config.c **** 	bss->wpa_gmk_rekey = 86400;
 155              		.loc 2 72 23
 156 002a 13078025 		li	a4,600
  73:C:/Users/stapi/OneDrive/Desktop/GD32VW553/V1_MQTT_OK/GD32VW55X_Wifi_BLE_SDK/GD32VW55x_RELEASE_V1.0.2/MSDK/wpa_supplicant/src/ap\ap_config.c **** 	bss->wpa_deny_ptk0_rekey = PTK0_REKEY_ALLOW_ALWAYS;
 157              		.loc 2 73 21
 158 002e 5568     		li	a6,86016
  72:C:/Users/stapi/OneDrive/Desktop/GD32VW553/V1_MQTT_OK/GD32VW55X_Wifi_BLE_SDK/GD32VW55x_RELEASE_V1.0.2/MSDK/wpa_supplicant/src/ap\ap_config.c **** 	bss->wpa_gmk_rekey = 86400;
 159              		.loc 2 72 23
 160 0030 F8DB     		sw	a4,116(a5)
  68:C:/Users/stapi/OneDrive/Desktop/GD32VW553/V1_MQTT_OK/GD32VW55X_Wifi_BLE_SDK/GD32VW55x_RELEASE_V1.0.2/MSDK/wpa_supplicant/src/ap\ap_config.c **** #endif /* CONFIG_WEP */
 161              		.loc 2 68 17
 162 0032 B4C3     		sw	a3,64(a5)
  70:C:/Users/stapi/OneDrive/Desktop/GD32VW553/V1_MQTT_OK/GD32VW55X_Wifi_BLE_SDK/GD32VW55x_RELEASE_V1.0.2/MSDK/wpa_supplicant/src/ap\ap_config.c **** 
 163              		.loc 2 70 2 is_stmt 1
  72:C:/Users/stapi/OneDrive/Desktop/GD32VW553/V1_MQTT_OK/GD32VW55X_Wifi_BLE_SDK/GD32VW55x_RELEASE_V1.0.2/MSDK/wpa_supplicant/src/ap\ap_config.c **** 	bss->wpa_gmk_rekey = 86400;
 164              		.loc 2 72 2
  73:C:/Users/stapi/OneDrive/Desktop/GD32VW553/V1_MQTT_OK/GD32VW55X_Wifi_BLE_SDK/GD32VW55x_RELEASE_V1.0.2/MSDK/wpa_supplicant/src/ap\ap_config.c **** 	bss->wpa_deny_ptk0_rekey = PTK0_REKEY_ALLOW_ALWAYS;
 165              		.loc 2 73 2
  73:C:/Users/stapi/OneDrive/Desktop/GD32VW553/V1_MQTT_OK/GD32VW55X_Wifi_BLE_SDK/GD32VW55x_RELEASE_V1.0.2/MSDK/wpa_supplicant/src/ap\ap_config.c **** 	bss->wpa_deny_ptk0_rekey = PTK0_REKEY_ALLOW_ALWAYS;
 166              		.loc 2 73 21 is_stmt 0
 167 0034 13070518 		addi	a4,a0,384
 168 0038 13080818 		addi	a6,a6,384
 169 003c 23200701 		sw	a6,0(a4)
  74:C:/Users/stapi/OneDrive/Desktop/GD32VW553/V1_MQTT_OK/GD32VW55X_Wifi_BLE_SDK/GD32VW55x_RELEASE_V1.0.2/MSDK/wpa_supplicant/src/ap\ap_config.c **** 	bss->wpa_group_update_count = 4;
 170              		.loc 2 74 2 is_stmt 1
  74:C:/Users/stapi/OneDrive/Desktop/GD32VW553/V1_MQTT_OK/GD32VW55X_Wifi_BLE_SDK/GD32VW55x_RELEASE_V1.0.2/MSDK/wpa_supplicant/src/ap\ap_config.c **** 	bss->wpa_group_update_count = 4;
 171              		.loc 2 74 27 is_stmt 0
 172 0040 23240518 		sw	zero,392(a0)
  75:C:/Users/stapi/OneDrive/Desktop/GD32VW553/V1_MQTT_OK/GD32VW55X_Wifi_BLE_SDK/GD32VW55x_RELEASE_V1.0.2/MSDK/wpa_supplicant/src/ap\ap_config.c **** 	bss->wpa_pairwise_update_count = 4;
 173              		.loc 2 75 2 is_stmt 1
  75:C:/Users/stapi/OneDrive/Desktop/GD32VW553/V1_MQTT_OK/GD32VW55X_Wifi_BLE_SDK/GD32VW55x_RELEASE_V1.0.2/MSDK/wpa_supplicant/src/ap\ap_config.c **** 	bss->wpa_pairwise_update_count = 4;
 174              		.loc 2 75 30 is_stmt 0
 175 0044 1148     		li	a6,4
 176 0046 23260701 		sw	a6,12(a4)
  76:C:/Users/stapi/OneDrive/Desktop/GD32VW553/V1_MQTT_OK/GD32VW55X_Wifi_BLE_SDK/GD32VW55x_RELEASE_V1.0.2/MSDK/wpa_supplicant/src/ap\ap_config.c **** 	bss->wpa_disable_eapol_key_retries =
 177              		.loc 2 76 2 is_stmt 1
  76:C:/Users/stapi/OneDrive/Desktop/GD32VW553/V1_MQTT_OK/GD32VW55X_Wifi_BLE_SDK/GD32VW55x_RELEASE_V1.0.2/MSDK/wpa_supplicant/src/ap\ap_config.c **** 	bss->wpa_disable_eapol_key_retries =
 178              		.loc 2 76 33 is_stmt 0
 179 004a 23280701 		sw	a6,16(a4)
  77:C:/Users/stapi/OneDrive/Desktop/GD32VW553/V1_MQTT_OK/GD32VW55X_Wifi_BLE_SDK/GD32VW55x_RELEASE_V1.0.2/MSDK/wpa_supplicant/src/ap\ap_config.c **** 		DEFAULT_WPA_DISABLE_EAPOL_KEY_RETRIES;
 180              		.loc 2 77 2 is_stmt 1
  77:C:/Users/stapi/OneDrive/Desktop/GD32VW553/V1_MQTT_OK/GD32VW55X_Wifi_BLE_SDK/GD32VW55x_RELEASE_V1.0.2/MSDK/wpa_supplicant/src/ap\ap_config.c **** 		DEFAULT_WPA_DISABLE_EAPOL_KEY_RETRIES;
 181              		.loc 2 77 37 is_stmt 0
 182 004e 232A0518 		sw	zero,404(a0)
  79:C:/Users/stapi/OneDrive/Desktop/GD32VW553/V1_MQTT_OK/GD32VW55X_Wifi_BLE_SDK/GD32VW55x_RELEASE_V1.0.2/MSDK/wpa_supplicant/src/ap\ap_config.c **** #ifdef CONFIG_NO_TKIP
 183              		.loc 2 79 2 is_stmt 1
  84:C:/Users/stapi/OneDrive/Desktop/GD32VW553/V1_MQTT_OK/GD32VW55X_Wifi_BLE_SDK/GD32VW55x_RELEASE_V1.0.2/MSDK/wpa_supplicant/src/ap\ap_config.c **** 	bss->wpa_group = WPA_CIPHER_TKIP;
 184              		.loc 2 84 20 is_stmt 0
 185 0052 2148     		li	a6,8
  79:C:/Users/stapi/OneDrive/Desktop/GD32VW553/V1_MQTT_OK/GD32VW55X_Wifi_BLE_SDK/GD32VW55x_RELEASE_V1.0.2/MSDK/wpa_supplicant/src/ap\ap_config.c **** #ifdef CONFIG_NO_TKIP
 186              		.loc 2 79 20
 187 0054 F0C7     		sw	a2,76(a5)
  84:C:/Users/stapi/OneDrive/Desktop/GD32VW553/V1_MQTT_OK/GD32VW55X_Wifi_BLE_SDK/GD32VW55x_RELEASE_V1.0.2/MSDK/wpa_supplicant/src/ap\ap_config.c **** 	bss->wpa_group = WPA_CIPHER_TKIP;
 188              		.loc 2 84 2 is_stmt 1
  84:C:/Users/stapi/OneDrive/Desktop/GD32VW553/V1_MQTT_OK/GD32VW55X_Wifi_BLE_SDK/GD32VW55x_RELEASE_V1.0.2/MSDK/wpa_supplicant/src/ap\ap_config.c **** 	bss->wpa_group = WPA_CIPHER_TKIP;
 189              		.loc 2 84 20 is_stmt 0
 190 0056 23A40707 		sw	a6,104(a5)
  85:C:/Users/stapi/OneDrive/Desktop/GD32VW553/V1_MQTT_OK/GD32VW55X_Wifi_BLE_SDK/GD32VW55x_RELEASE_V1.0.2/MSDK/wpa_supplicant/src/ap\ap_config.c **** #endif /* CONFIG_NO_TKIP */
 191              		.loc 2 85 2 is_stmt 1
  85:C:/Users/stapi/OneDrive/Desktop/GD32VW553/V1_MQTT_OK/GD32VW55X_Wifi_BLE_SDK/GD32VW55x_RELEASE_V1.0.2/MSDK/wpa_supplicant/src/ap\ap_config.c **** #endif /* CONFIG_NO_TKIP */
 192              		.loc 2 85 17 is_stmt 0
 193 005a 23A80707 		sw	a6,112(a5)
  87:C:/Users/stapi/OneDrive/Desktop/GD32VW553/V1_MQTT_OK/GD32VW55X_Wifi_BLE_SDK/GD32VW55x_RELEASE_V1.0.2/MSDK/wpa_supplicant/src/ap\ap_config.c **** 
 194              		.loc 2 87 2 is_stmt 1
  93:C:/Users/stapi/OneDrive/Desktop/GD32VW553/V1_MQTT_OK/GD32VW55X_Wifi_BLE_SDK/GD32VW55x_RELEASE_V1.0.2/MSDK/wpa_supplicant/src/ap\ap_config.c **** 	bss->eap_sim_db_timeout = 1;
 195              		.loc 2 93 31 is_stmt 0
 196 005e 13034071 		li	t1,1812
 197 0062 23226524 		sw	t1,580(a0)
  95:C:/Users/stapi/OneDrive/Desktop/GD32VW553/V1_MQTT_OK/GD32VW55X_Wifi_BLE_SDK/GD32VW55x_RELEASE_V1.0.2/MSDK/wpa_supplicant/src/ap\ap_config.c **** 	bss->ap_max_inactivity = AP_MAX_INACTIVITY;
 198              		.loc 2 95 18
 199 0066 0D43     		li	t1,3
  91:C:/Users/stapi/OneDrive/Desktop/GD32VW553/V1_MQTT_OK/GD32VW55X_Wifi_BLE_SDK/GD32VW55x_RELEASE_V1.0.2/MSDK/wpa_supplicant/src/ap\ap_config.c **** 
 200              		.loc 2 91 19
 201 0068 10D9     		sw	a2,48(a0)
  95:C:/Users/stapi/OneDrive/Desktop/GD32VW553/V1_MQTT_OK/GD32VW55X_Wifi_BLE_SDK/GD32VW55x_RELEASE_V1.0.2/MSDK/wpa_supplicant/src/ap\ap_config.c **** 	bss->ap_max_inactivity = AP_MAX_INACTIVITY;
 202              		.loc 2 95 18
 203 006a 23286522 		sw	t1,560(a0)
  97:C:/Users/stapi/OneDrive/Desktop/GD32VW553/V1_MQTT_OK/GD32VW55X_Wifi_BLE_SDK/GD32VW55x_RELEASE_V1.0.2/MSDK/wpa_supplicant/src/ap\ap_config.c **** 
 204              		.loc 2 97 21
 205 006e 30C1     		sw	a2,64(a0)
  89:C:/Users/stapi/OneDrive/Desktop/GD32VW553/V1_MQTT_OK/GD32VW55X_Wifi_BLE_SDK/GD32VW55x_RELEASE_V1.0.2/MSDK/wpa_supplicant/src/ap\ap_config.c **** 
 206              		.loc 2 89 19
 207 0070 1308707D 		li	a6,2007
 101:C:/Users/stapi/OneDrive/Desktop/GD32VW553/V1_MQTT_OK/GD32VW55X_Wifi_BLE_SDK/GD32VW55x_RELEASE_V1.0.2/MSDK/wpa_supplicant/src/ap\ap_config.c **** 
 208              		.loc 2 101 17
 209 0074 4D46     		li	a2,19
  96:C:/Users/stapi/OneDrive/Desktop/GD32VW553/V1_MQTT_OK/GD32VW55X_Wifi_BLE_SDK/GD32VW55x_RELEASE_V1.0.2/MSDK/wpa_supplicant/src/ap\ap_config.c **** 	bss->eapol_version = EAPOL_VERSION;
 210              		.loc 2 96 25
 211 0076 13038007 		li	t1,120
 101:C:/Users/stapi/OneDrive/Desktop/GD32VW553/V1_MQTT_OK/GD32VW55X_Wifi_BLE_SDK/GD32VW55x_RELEASE_V1.0.2/MSDK/wpa_supplicant/src/ap\ap_config.c **** 
 212              		.loc 2 101 17
 213 007a 231EC522 		sh	a2,572(a0)
  87:C:/Users/stapi/OneDrive/Desktop/GD32VW553/V1_MQTT_OK/GD32VW55X_Wifi_BLE_SDK/GD32VW55x_RELEASE_V1.0.2/MSDK/wpa_supplicant/src/ap\ap_config.c **** 
 214              		.loc 2 87 20
 215 007e 232C0518 		sw	zero,408(a0)
  89:C:/Users/stapi/OneDrive/Desktop/GD32VW553/V1_MQTT_OK/GD32VW55X_Wifi_BLE_SDK/GD32VW55x_RELEASE_V1.0.2/MSDK/wpa_supplicant/src/ap\ap_config.c **** 
 216              		.loc 2 89 2 is_stmt 1
  89:C:/Users/stapi/OneDrive/Desktop/GD32VW553/V1_MQTT_OK/GD32VW55X_Wifi_BLE_SDK/GD32VW55x_RELEASE_V1.0.2/MSDK/wpa_supplicant/src/ap\ap_config.c **** 
 217              		.loc 2 89 19 is_stmt 0
 218 0082 23260503 		sw	a6,44(a0)
  91:C:/Users/stapi/OneDrive/Desktop/GD32VW553/V1_MQTT_OK/GD32VW55X_Wifi_BLE_SDK/GD32VW55x_RELEASE_V1.0.2/MSDK/wpa_supplicant/src/ap\ap_config.c **** 
 219              		.loc 2 91 2 is_stmt 1
  93:C:/Users/stapi/OneDrive/Desktop/GD32VW553/V1_MQTT_OK/GD32VW55X_Wifi_BLE_SDK/GD32VW55x_RELEASE_V1.0.2/MSDK/wpa_supplicant/src/ap\ap_config.c **** 	bss->eap_sim_db_timeout = 1;
 220              		.loc 2 93 2
  94:C:/Users/stapi/OneDrive/Desktop/GD32VW553/V1_MQTT_OK/GD32VW55X_Wifi_BLE_SDK/GD32VW55x_RELEASE_V1.0.2/MSDK/wpa_supplicant/src/ap\ap_config.c **** 	bss->eap_sim_id = 3;
 221              		.loc 2 94 2
  94:C:/Users/stapi/OneDrive/Desktop/GD32VW553/V1_MQTT_OK/GD32VW55X_Wifi_BLE_SDK/GD32VW55x_RELEASE_V1.0.2/MSDK/wpa_supplicant/src/ap\ap_config.c **** 	bss->eap_sim_id = 3;
 222              		.loc 2 94 26 is_stmt 0
 223 0086 74C9     		sw	a3,84(a0)
  95:C:/Users/stapi/OneDrive/Desktop/GD32VW553/V1_MQTT_OK/GD32VW55X_Wifi_BLE_SDK/GD32VW55x_RELEASE_V1.0.2/MSDK/wpa_supplicant/src/ap\ap_config.c **** 	bss->ap_max_inactivity = AP_MAX_INACTIVITY;
 224              		.loc 2 95 2 is_stmt 1
  96:C:/Users/stapi/OneDrive/Desktop/GD32VW553/V1_MQTT_OK/GD32VW55X_Wifi_BLE_SDK/GD32VW55x_RELEASE_V1.0.2/MSDK/wpa_supplicant/src/ap\ap_config.c **** 	bss->eapol_version = EAPOL_VERSION;
 225              		.loc 2 96 2
  96:C:/Users/stapi/OneDrive/Desktop/GD32VW553/V1_MQTT_OK/GD32VW55X_Wifi_BLE_SDK/GD32VW55x_RELEASE_V1.0.2/MSDK/wpa_supplicant/src/ap\ap_config.c **** 	bss->eapol_version = EAPOL_VERSION;
 226              		.loc 2 96 25 is_stmt 0
 227 0088 232A6524 		sw	t1,596(a0)
  97:C:/Users/stapi/OneDrive/Desktop/GD32VW553/V1_MQTT_OK/GD32VW55X_Wifi_BLE_SDK/GD32VW55x_RELEASE_V1.0.2/MSDK/wpa_supplicant/src/ap\ap_config.c **** 
 228              		.loc 2 97 2 is_stmt 1
  99:C:/Users/stapi/OneDrive/Desktop/GD32VW553/V1_MQTT_OK/GD32VW55X_Wifi_BLE_SDK/GD32VW55x_RELEASE_V1.0.2/MSDK/wpa_supplicant/src/ap\ap_config.c **** 
 229              		.loc 2 99 2
  99:C:/Users/stapi/OneDrive/Desktop/GD32VW553/V1_MQTT_OK/GD32VW55X_Wifi_BLE_SDK/GD32VW55x_RELEASE_V1.0.2/MSDK/wpa_supplicant/src/ap\ap_config.c **** 
 230              		.loc 2 99 27 is_stmt 0
 231 008c 23191527 		sh	a7,626(a0)
 101:C:/Users/stapi/OneDrive/Desktop/GD32VW553/V1_MQTT_OK/GD32VW55X_Wifi_BLE_SDK/GD32VW55x_RELEASE_V1.0.2/MSDK/wpa_supplicant/src/ap\ap_config.c **** 
 232              		.loc 2 101 2 is_stmt 1
 103:C:/Users/stapi/OneDrive/Desktop/GD32VW553/V1_MQTT_OK/GD32VW55X_Wifi_BLE_SDK/GD32VW55x_RELEASE_V1.0.2/MSDK/wpa_supplicant/src/ap\ap_config.c **** 	bss->assoc_sa_query_retry_timeout = 201;
 233              		.loc 2 103 2
 103:C:/Users/stapi/OneDrive/Desktop/GD32VW553/V1_MQTT_OK/GD32VW55X_Wifi_BLE_SDK/GD32VW55x_RELEASE_V1.0.2/MSDK/wpa_supplicant/src/ap\ap_config.c **** 	bss->assoc_sa_query_retry_timeout = 201;
 234              		.loc 2 103 34 is_stmt 0
 235 0090 1306803E 		li	a2,1000
 236 0094 F0CF     		sw	a2,92(a5)
 104:C:/Users/stapi/OneDrive/Desktop/GD32VW553/V1_MQTT_OK/GD32VW55X_Wifi_BLE_SDK/GD32VW55x_RELEASE_V1.0.2/MSDK/wpa_supplicant/src/ap\ap_config.c **** 	bss->group_mgmt_cipher = WPA_CIPHER_AES_128_CMAC;
 237              		.loc 2 104 2 is_stmt 1
 104:C:/Users/stapi/OneDrive/Desktop/GD32VW553/V1_MQTT_OK/GD32VW55X_Wifi_BLE_SDK/GD32VW55x_RELEASE_V1.0.2/MSDK/wpa_supplicant/src/ap\ap_config.c **** 	bss->group_mgmt_cipher = WPA_CIPHER_AES_128_CMAC;
 238              		.loc 2 104 36 is_stmt 0
 239 0096 1306900C 		li	a2,201
 240 009a B0D3     		sw	a2,96(a5)
 105:C:/Users/stapi/OneDrive/Desktop/GD32VW553/V1_MQTT_OK/GD32VW55X_Wifi_BLE_SDK/GD32VW55x_RELEASE_V1.0.2/MSDK/wpa_supplicant/src/ap\ap_config.c **** #ifdef EAP_SERVER_FAST
 241              		.loc 2 105 2 is_stmt 1
 105:C:/Users/stapi/OneDrive/Desktop/GD32VW553/V1_MQTT_OK/GD32VW55X_Wifi_BLE_SDK/GD32VW55x_RELEASE_V1.0.2/MSDK/wpa_supplicant/src/ap\ap_config.c **** #ifdef EAP_SERVER_FAST
 242              		.loc 2 105 25 is_stmt 0
 243 009c 13060002 		li	a2,32
 244 00a0 F0CB     		sw	a2,84(a5)
 114:C:/Users/stapi/OneDrive/Desktop/GD32VW553/V1_MQTT_OK/GD32VW55X_Wifi_BLE_SDK/GD32VW55x_RELEASE_V1.0.2/MSDK/wpa_supplicant/src/ap\ap_config.c **** 
 245              		.loc 2 114 2 is_stmt 1
 125:C:/Users/stapi/OneDrive/Desktop/GD32VW553/V1_MQTT_OK/GD32VW55X_Wifi_BLE_SDK/GD32VW55x_RELEASE_V1.0.2/MSDK/wpa_supplicant/src/ap\ap_config.c **** 
 246              		.loc 2 125 30 is_stmt 0
 247 00a2 9307C012 		li	a5,300
 127:C:/Users/stapi/OneDrive/Desktop/GD32VW553/V1_MQTT_OK/GD32VW55X_Wifi_BLE_SDK/GD32VW55x_RELEASE_V1.0.2/MSDK/wpa_supplicant/src/ap\ap_config.c **** 	bss->sae_sync = 5;
 248              		.loc 2 127 31
 249 00a6 1546     		li	a2,5
 125:C:/Users/stapi/OneDrive/Desktop/GD32VW553/V1_MQTT_OK/GD32VW55X_Wifi_BLE_SDK/GD32VW55x_RELEASE_V1.0.2/MSDK/wpa_supplicant/src/ap\ap_config.c **** 
 250              		.loc 2 125 30
 251 00a8 2328F508 		sw	a5,144(a0)
 114:C:/Users/stapi/OneDrive/Desktop/GD32VW553/V1_MQTT_OK/GD32VW55X_Wifi_BLE_SDK/GD32VW55x_RELEASE_V1.0.2/MSDK/wpa_supplicant/src/ap\ap_config.c **** 
 252              		.loc 2 114 19
 253 00ac 23201527 		sw	a7,608(a0)
 125:C:/Users/stapi/OneDrive/Desktop/GD32VW553/V1_MQTT_OK/GD32VW55X_Wifi_BLE_SDK/GD32VW55x_RELEASE_V1.0.2/MSDK/wpa_supplicant/src/ap\ap_config.c **** 
 254              		.loc 2 125 2 is_stmt 1
 127:C:/Users/stapi/OneDrive/Desktop/GD32VW553/V1_MQTT_OK/GD32VW55X_Wifi_BLE_SDK/GD32VW55x_RELEASE_V1.0.2/MSDK/wpa_supplicant/src/ap\ap_config.c **** 	bss->sae_sync = 5;
 255              		.loc 2 127 2
 128:C:/Users/stapi/OneDrive/Desktop/GD32VW553/V1_MQTT_OK/GD32VW55X_Wifi_BLE_SDK/GD32VW55x_RELEASE_V1.0.2/MSDK/wpa_supplicant/src/ap\ap_config.c **** 
 256              		.loc 2 128 16 is_stmt 0
 257 00b0 93070538 		addi	a5,a0,896
 127:C:/Users/stapi/OneDrive/Desktop/GD32VW553/V1_MQTT_OK/GD32VW55X_Wifi_BLE_SDK/GD32VW55x_RELEASE_V1.0.2/MSDK/wpa_supplicant/src/ap\ap_config.c **** 	bss->sae_sync = 5;
 258              		.loc 2 127 31
 259 00b4 F0DD     		sw	a2,124(a1)
 128:C:/Users/stapi/OneDrive/Desktop/GD32VW553/V1_MQTT_OK/GD32VW55X_Wifi_BLE_SDK/GD32VW55x_RELEASE_V1.0.2/MSDK/wpa_supplicant/src/ap\ap_config.c **** 
 260              		.loc 2 128 2 is_stmt 1
 128:C:/Users/stapi/OneDrive/Desktop/GD32VW553/V1_MQTT_OK/GD32VW55X_Wifi_BLE_SDK/GD32VW55x_RELEASE_V1.0.2/MSDK/wpa_supplicant/src/ap\ap_config.c **** 
 261              		.loc 2 128 16 is_stmt 0
 262 00b6 90C3     		sw	a2,0(a5)
 130:C:/Users/stapi/OneDrive/Desktop/GD32VW553/V1_MQTT_OK/GD32VW55X_Wifi_BLE_SDK/GD32VW55x_RELEASE_V1.0.2/MSDK/wpa_supplicant/src/ap\ap_config.c **** 
 263              		.loc 2 130 2 is_stmt 1
 130:C:/Users/stapi/OneDrive/Desktop/GD32VW553/V1_MQTT_OK/GD32VW55X_Wifi_BLE_SDK/GD32VW55x_RELEASE_V1.0.2/MSDK/wpa_supplicant/src/ap\ap_config.c **** 
 264              		.loc 2 130 22 is_stmt 0
 265 00b8 13068057 		li	a2,1400
 266 00bc D0CD     		sw	a2,28(a1)
 140:C:/Users/stapi/OneDrive/Desktop/GD32VW553/V1_MQTT_OK/GD32VW55X_Wifi_BLE_SDK/GD32VW55x_RELEASE_V1.0.2/MSDK/wpa_supplicant/src/ap\ap_config.c **** 
 267              		.loc 2 140 2 is_stmt 1
 140:C:/Users/stapi/OneDrive/Desktop/GD32VW553/V1_MQTT_OK/GD32VW55X_Wifi_BLE_SDK/GD32VW55x_RELEASE_V1.0.2/MSDK/wpa_supplicant/src/ap\ap_config.c **** 
 268              		.loc 2 140 24 is_stmt 0
 269 00be F4C7     		sw	a3,76(a5)
 149:C:/Users/stapi/OneDrive/Desktop/GD32VW553/V1_MQTT_OK/GD32VW55X_Wifi_BLE_SDK/GD32VW55x_RELEASE_V1.0.2/MSDK/wpa_supplicant/src/ap\ap_config.c **** 
 270              		.loc 2 149 2 is_stmt 1
 149:C:/Users/stapi/OneDrive/Desktop/GD32VW553/V1_MQTT_OK/GD32VW55X_Wifi_BLE_SDK/GD32VW55x_RELEASE_V1.0.2/MSDK/wpa_supplicant/src/ap\ap_config.c **** 
 271              		.loc 2 149 17 is_stmt 0
 272 00c0 8967     		li	a5,8192
 273 00c2 3CD3     		sw	a5,96(a4)
 151:C:/Users/stapi/OneDrive/Desktop/GD32VW553/V1_MQTT_OK/GD32VW55X_Wifi_BLE_SDK/GD32VW55x_RELEASE_V1.0.2/MSDK/wpa_supplicant/src/ap\ap_config.c **** 	bss->max_auth_rounds_short = 50;
 274              		.loc 2 151 2 is_stmt 1
 151:C:/Users/stapi/OneDrive/Desktop/GD32VW553/V1_MQTT_OK/GD32VW55X_Wifi_BLE_SDK/GD32VW55x_RELEASE_V1.0.2/MSDK/wpa_supplicant/src/ap\ap_config.c **** 	bss->max_auth_rounds_short = 50;
 275              		.loc 2 151 23 is_stmt 0
 276 00c4 93074006 		li	a5,100
 277 00c8 7CD3     		sw	a5,100(a4)
 152:C:/Users/stapi/OneDrive/Desktop/GD32VW553/V1_MQTT_OK/GD32VW55X_Wifi_BLE_SDK/GD32VW55x_RELEASE_V1.0.2/MSDK/wpa_supplicant/src/ap\ap_config.c **** 
 278              		.loc 2 152 2 is_stmt 1
 152:C:/Users/stapi/OneDrive/Desktop/GD32VW553/V1_MQTT_OK/GD32VW55X_Wifi_BLE_SDK/GD32VW55x_RELEASE_V1.0.2/MSDK/wpa_supplicant/src/ap\ap_config.c **** 
 279              		.loc 2 152 29 is_stmt 0
 280 00ca 93072003 		li	a5,50
 281 00ce 3CD7     		sw	a5,104(a4)
 154:C:/Users/stapi/OneDrive/Desktop/GD32VW553/V1_MQTT_OK/GD32VW55X_Wifi_BLE_SDK/GD32VW55x_RELEASE_V1.0.2/MSDK/wpa_supplicant/src/ap\ap_config.c **** 
 282              		.loc 2 154 2 is_stmt 1
 154:C:/Users/stapi/OneDrive/Desktop/GD32VW553/V1_MQTT_OK/GD32VW55X_Wifi_BLE_SDK/GD32VW55x_RELEASE_V1.0.2/MSDK/wpa_supplicant/src/ap\ap_config.c **** 
 283              		.loc 2 154 27 is_stmt 0
 284 00d0 230CD53C 		sb	a3,984(a0)
 166:C:/Users/stapi/OneDrive/Desktop/GD32VW553/V1_MQTT_OK/GD32VW55X_Wifi_BLE_SDK/GD32VW55x_RELEASE_V1.0.2/MSDK/wpa_supplicant/src/ap\ap_config.c **** 
 285              		.loc 2 166 2 is_stmt 1
 166:C:/Users/stapi/OneDrive/Desktop/GD32VW553/V1_MQTT_OK/GD32VW55X_Wifi_BLE_SDK/GD32VW55x_RELEASE_V1.0.2/MSDK/wpa_supplicant/src/ap\ap_config.c **** 
 286              		.loc 2 166 24 is_stmt 0
 287 00d4 74CB     		sw	a3,84(a4)
 176:C:/Users/stapi/OneDrive/Desktop/GD32VW553/V1_MQTT_OK/GD32VW55X_Wifi_BLE_SDK/GD32VW55x_RELEASE_V1.0.2/MSDK/wpa_supplicant/src/ap\ap_config.c **** 
 288              		.loc 2 176 1
 289 00d6 8280     		ret
 290              		.cfi_endproc
 291              	.LFE138:
 293              		.section	.rodata.hostapd_config_defaults.str1.4,"aMS",@progbits,1
 294              		.align	2
 295              	.LC0:
 296 0000 4661696C 		.string	"Failed to allocate memory for configuration data."
 296      65642074 
 296      6F20616C 
 296      6C6F6361 
 296      7465206D 
 297              		.section	.text.hostapd_config_defaults,"ax",@progbits
 298              		.align	1
 299              		.globl	hostapd_config_defaults
 301              	hostapd_config_defaults:
 302              	.LFB139:
 180:C:/Users/stapi/OneDrive/Desktop/GD32VW553/V1_MQTT_OK/GD32VW55X_Wifi_BLE_SDK/GD32VW55x_RELEASE_V1.0.2/MSDK/wpa_supplicant/src/ap\ap_config.c **** #define ecw2cw(ecw) ((1 << (ecw)) - 1)
 303              		.loc 2 180 1 is_stmt 1
 304              		.cfi_startproc
 305 0000 17030000 		call	t0,__riscv_save_3
 305      E7020300 
 306              		.cfi_offset 18, -16
 307              		.cfi_offset 9, -12
 308              		.cfi_offset 8, -8
 309              		.cfi_offset 1, -4
 310              		.cfi_def_cfa_offset 16
 183:C:/Users/stapi/OneDrive/Desktop/GD32VW553/V1_MQTT_OK/GD32VW55X_Wifi_BLE_SDK/GD32VW55x_RELEASE_V1.0.2/MSDK/wpa_supplicant/src/ap\ap_config.c **** 	struct hostapd_bss_config *bss;
 311              		.loc 2 183 2
 184:C:/Users/stapi/OneDrive/Desktop/GD32VW553/V1_MQTT_OK/GD32VW55X_Wifi_BLE_SDK/GD32VW55x_RELEASE_V1.0.2/MSDK/wpa_supplicant/src/ap\ap_config.c **** 	const int aCWmin = 4, aCWmax = 10;
 312              		.loc 2 184 2
 185:C:/Users/stapi/OneDrive/Desktop/GD32VW553/V1_MQTT_OK/GD32VW55X_Wifi_BLE_SDK/GD32VW55x_RELEASE_V1.0.2/MSDK/wpa_supplicant/src/ap\ap_config.c **** 	const struct hostapd_wmm_ac_params ac_bk =
 313              		.loc 2 185 2
 314              	.LVL11:
 186:C:/Users/stapi/OneDrive/Desktop/GD32VW553/V1_MQTT_OK/GD32VW55X_Wifi_BLE_SDK/GD32VW55x_RELEASE_V1.0.2/MSDK/wpa_supplicant/src/ap\ap_config.c **** 		{ aCWmin, aCWmax, 7, 0, 0 }; /* background traffic */
 315              		.loc 2 186 2
 188:C:/Users/stapi/OneDrive/Desktop/GD32VW553/V1_MQTT_OK/GD32VW55X_Wifi_BLE_SDK/GD32VW55x_RELEASE_V1.0.2/MSDK/wpa_supplicant/src/ap\ap_config.c **** 		{ aCWmin, aCWmax, 3, 0, 0 }; /* best effort traffic */
 316              		.loc 2 188 2
 190:C:/Users/stapi/OneDrive/Desktop/GD32VW553/V1_MQTT_OK/GD32VW55X_Wifi_BLE_SDK/GD32VW55x_RELEASE_V1.0.2/MSDK/wpa_supplicant/src/ap\ap_config.c **** 		{ aCWmin - 1, aCWmin, 2, 3008 / 32, 0 };
 317              		.loc 2 190 2
 192:C:/Users/stapi/OneDrive/Desktop/GD32VW553/V1_MQTT_OK/GD32VW55X_Wifi_BLE_SDK/GD32VW55x_RELEASE_V1.0.2/MSDK/wpa_supplicant/src/ap\ap_config.c **** 		{ aCWmin - 2, aCWmin - 1, 2, 1504 / 32, 0 };
 318              		.loc 2 192 2
 194:C:/Users/stapi/OneDrive/Desktop/GD32VW553/V1_MQTT_OK/GD32VW55X_Wifi_BLE_SDK/GD32VW55x_RELEASE_V1.0.2/MSDK/wpa_supplicant/src/ap\ap_config.c **** 		{ 7, ecw2cw(aCWmin), ecw2cw(aCWmax), 0 };
 319              		.loc 2 194 2
 196:C:/Users/stapi/OneDrive/Desktop/GD32VW553/V1_MQTT_OK/GD32VW55X_Wifi_BLE_SDK/GD32VW55x_RELEASE_V1.0.2/MSDK/wpa_supplicant/src/ap\ap_config.c **** 		{ 3, ecw2cw(aCWmin), 4 * (ecw2cw(aCWmin) + 1) - 1, 0};
 320              		.loc 2 196 2
 198:C:/Users/stapi/OneDrive/Desktop/GD32VW553/V1_MQTT_OK/GD32VW55X_Wifi_BLE_SDK/GD32VW55x_RELEASE_V1.0.2/MSDK/wpa_supplicant/src/ap\ap_config.c **** 		{ 1, (ecw2cw(aCWmin) + 1) / 2 - 1, ecw2cw(aCWmin), 30};
 321              		.loc 2 198 2
 200:C:/Users/stapi/OneDrive/Desktop/GD32VW553/V1_MQTT_OK/GD32VW55X_Wifi_BLE_SDK/GD32VW55x_RELEASE_V1.0.2/MSDK/wpa_supplicant/src/ap\ap_config.c **** 		{ 1, (ecw2cw(aCWmin) + 1) / 4 - 1,
 322              		.loc 2 200 2
 206:C:/Users/stapi/OneDrive/Desktop/GD32VW553/V1_MQTT_OK/GD32VW55X_Wifi_BLE_SDK/GD32VW55x_RELEASE_V1.0.2/MSDK/wpa_supplicant/src/ap\ap_config.c **** 	bss = os_zalloc(sizeof(*bss));
 323              		.loc 2 206 2
 206:C:/Users/stapi/OneDrive/Desktop/GD32VW553/V1_MQTT_OK/GD32VW55X_Wifi_BLE_SDK/GD32VW55x_RELEASE_V1.0.2/MSDK/wpa_supplicant/src/ap\ap_config.c **** 	bss = os_zalloc(sizeof(*bss));
 324              		.loc 2 206 9 is_stmt 0
 325 0008 1305401A 		li	a0,420
 326 000c 97000000 		call	os_zalloc
 326      E7800000 
 327              	.LVL12:
 328 0014 2A84     		mv	s0,a0
 329              	.LVL13:
 207:C:/Users/stapi/OneDrive/Desktop/GD32VW553/V1_MQTT_OK/GD32VW55X_Wifi_BLE_SDK/GD32VW55x_RELEASE_V1.0.2/MSDK/wpa_supplicant/src/ap\ap_config.c **** 	if (conf == NULL || bss == NULL) {
 330              		.loc 2 207 2 is_stmt 1
 207:C:/Users/stapi/OneDrive/Desktop/GD32VW553/V1_MQTT_OK/GD32VW55X_Wifi_BLE_SDK/GD32VW55x_RELEASE_V1.0.2/MSDK/wpa_supplicant/src/ap\ap_config.c **** 	if (conf == NULL || bss == NULL) {
 331              		.loc 2 207 8 is_stmt 0
 332 0016 13054040 		li	a0,1028
 333 001a 97000000 		call	os_zalloc
 333      E7800000 
 334              	.LVL14:
 335 0022 2A89     		mv	s2,a0
 336              	.LVL15:
 208:C:/Users/stapi/OneDrive/Desktop/GD32VW553/V1_MQTT_OK/GD32VW55X_Wifi_BLE_SDK/GD32VW55x_RELEASE_V1.0.2/MSDK/wpa_supplicant/src/ap\ap_config.c **** 		wpa_printf(MSG_ERROR, "Failed to allocate memory for "
 337              		.loc 2 208 2 is_stmt 1
 208:C:/Users/stapi/OneDrive/Desktop/GD32VW553/V1_MQTT_OK/GD32VW55X_Wifi_BLE_SDK/GD32VW55x_RELEASE_V1.0.2/MSDK/wpa_supplicant/src/ap\ap_config.c **** 		wpa_printf(MSG_ERROR, "Failed to allocate memory for "
 338              		.loc 2 208 5 is_stmt 0
 339 0024 11C0     		beq	s0,zero,.L8
 208:C:/Users/stapi/OneDrive/Desktop/GD32VW553/V1_MQTT_OK/GD32VW55X_Wifi_BLE_SDK/GD32VW55x_RELEASE_V1.0.2/MSDK/wpa_supplicant/src/ap\ap_config.c **** 		wpa_printf(MSG_ERROR, "Failed to allocate memory for "
 340              		.loc 2 208 19 discriminator 1
 341 0026 15E9     		bne	a0,zero,.L9
 342              	.L8:
 209:C:/Users/stapi/OneDrive/Desktop/GD32VW553/V1_MQTT_OK/GD32VW55X_Wifi_BLE_SDK/GD32VW55x_RELEASE_V1.0.2/MSDK/wpa_supplicant/src/ap\ap_config.c **** 			   "configuration data.");
 343              		.loc 2 209 3 is_stmt 1
 344 0028 B7050000 		lui	a1,%hi(.LC0)
 345 002c 93850500 		addi	a1,a1,%lo(.LC0)
 346 0030 1545     		li	a0,5
 347              	.LVL16:
 348 0032 97000000 		call	wpa_printf
 348      E7800000 
 349              	.LVL17:
 211:C:/Users/stapi/OneDrive/Desktop/GD32VW553/V1_MQTT_OK/GD32VW55X_Wifi_BLE_SDK/GD32VW55x_RELEASE_V1.0.2/MSDK/wpa_supplicant/src/ap\ap_config.c **** 		os_free(bss);
 350              		.loc 2 211 3
 351 003a 2285     		mv	a0,s0
 352 003c 97000000 		call	os_free
 352      E7800000 
 353              	.LVL18:
 212:C:/Users/stapi/OneDrive/Desktop/GD32VW553/V1_MQTT_OK/GD32VW55X_Wifi_BLE_SDK/GD32VW55x_RELEASE_V1.0.2/MSDK/wpa_supplicant/src/ap\ap_config.c **** 		return NULL;
 354              		.loc 2 212 3
 355 0044 4A85     		mv	a0,s2
 356 0046 97000000 		call	os_free
 356      E7800000 
 357              	.LVL19:
 213:C:/Users/stapi/OneDrive/Desktop/GD32VW553/V1_MQTT_OK/GD32VW55X_Wifi_BLE_SDK/GD32VW55x_RELEASE_V1.0.2/MSDK/wpa_supplicant/src/ap\ap_config.c **** 	}
 358              		.loc 2 213 3
 213:C:/Users/stapi/OneDrive/Desktop/GD32VW553/V1_MQTT_OK/GD32VW55X_Wifi_BLE_SDK/GD32VW55x_RELEASE_V1.0.2/MSDK/wpa_supplicant/src/ap\ap_config.c **** 	}
 359              		.loc 2 213 10 is_stmt 0
 360 004e 8144     		li	s1,0
 361              	.L7:
 300:C:/Users/stapi/OneDrive/Desktop/GD32VW553/V1_MQTT_OK/GD32VW55X_Wifi_BLE_SDK/GD32VW55x_RELEASE_V1.0.2/MSDK/wpa_supplicant/src/ap\ap_config.c **** 
 362              		.loc 2 300 1
 363 0050 2685     		mv	a0,s1
 364 0052 17030000 		tail	__riscv_restore_3
 364      67000300 
 365              		.cfi_remember_state
 366              		.cfi_restore 18
 367              		.cfi_restore 9
 368              		.cfi_restore 8
 369              		.cfi_restore 1
 370              		.cfi_def_cfa_offset 0
 371              	.LVL20:
 372              	.L9:
 373              		.cfi_restore_state
 215:C:/Users/stapi/OneDrive/Desktop/GD32VW553/V1_MQTT_OK/GD32VW55X_Wifi_BLE_SDK/GD32VW55x_RELEASE_V1.0.2/MSDK/wpa_supplicant/src/ap\ap_config.c **** 	if (conf->bss == NULL) {
 374              		.loc 2 215 2 is_stmt 1
 375              	.LBB22:
 376              	.LBB23:
 377              		.file 4 "..\\..\\..\\..\\wpa_supplicant\\src/utils/os.h"
   1:..\..\..\..\wpa_supplicant\src/utils/os.h **** /*
   2:..\..\..\..\wpa_supplicant\src/utils/os.h ****  * OS specific functions
   3:..\..\..\..\wpa_supplicant\src/utils/os.h ****  * Copyright (c) 2005-2009, Jouni Malinen <j@w1.fi>
   4:..\..\..\..\wpa_supplicant\src/utils/os.h ****  *
   5:..\..\..\..\wpa_supplicant\src/utils/os.h ****  * This software may be distributed under the terms of the BSD license.
   6:..\..\..\..\wpa_supplicant\src/utils/os.h ****  * See README for more details.
   7:..\..\..\..\wpa_supplicant\src/utils/os.h ****  */
   8:..\..\..\..\wpa_supplicant\src/utils/os.h **** 
   9:..\..\..\..\wpa_supplicant\src/utils/os.h **** #ifndef OS_H
  10:..\..\..\..\wpa_supplicant\src/utils/os.h **** #define OS_H
  11:..\..\..\..\wpa_supplicant\src/utils/os.h **** 
  12:..\..\..\..\wpa_supplicant\src/utils/os.h **** typedef long os_time_t;
  13:..\..\..\..\wpa_supplicant\src/utils/os.h **** 
  14:..\..\..\..\wpa_supplicant\src/utils/os.h **** /**
  15:..\..\..\..\wpa_supplicant\src/utils/os.h ****  * os_sleep - Sleep (sec, usec)
  16:..\..\..\..\wpa_supplicant\src/utils/os.h ****  * @sec: Number of seconds to sleep
  17:..\..\..\..\wpa_supplicant\src/utils/os.h ****  * @usec: Number of microseconds to sleep
  18:..\..\..\..\wpa_supplicant\src/utils/os.h ****  */
  19:..\..\..\..\wpa_supplicant\src/utils/os.h **** void os_sleep(os_time_t sec, os_time_t usec);
  20:..\..\..\..\wpa_supplicant\src/utils/os.h **** 
  21:..\..\..\..\wpa_supplicant\src/utils/os.h **** struct os_time {
  22:..\..\..\..\wpa_supplicant\src/utils/os.h **** 	os_time_t sec;
  23:..\..\..\..\wpa_supplicant\src/utils/os.h **** 	os_time_t usec;
  24:..\..\..\..\wpa_supplicant\src/utils/os.h **** };
  25:..\..\..\..\wpa_supplicant\src/utils/os.h **** 
  26:..\..\..\..\wpa_supplicant\src/utils/os.h **** struct os_reltime {
  27:..\..\..\..\wpa_supplicant\src/utils/os.h **** 	os_time_t sec;
  28:..\..\..\..\wpa_supplicant\src/utils/os.h **** 	os_time_t usec;
  29:..\..\..\..\wpa_supplicant\src/utils/os.h **** };
  30:..\..\..\..\wpa_supplicant\src/utils/os.h **** 
  31:..\..\..\..\wpa_supplicant\src/utils/os.h **** /**
  32:..\..\..\..\wpa_supplicant\src/utils/os.h ****  * os_get_time - Get current time (sec, usec)
  33:..\..\..\..\wpa_supplicant\src/utils/os.h ****  * @t: Pointer to buffer for the time
  34:..\..\..\..\wpa_supplicant\src/utils/os.h ****  * Returns: 0 on success, -1 on failure
  35:..\..\..\..\wpa_supplicant\src/utils/os.h ****  */
  36:..\..\..\..\wpa_supplicant\src/utils/os.h **** int os_get_time(struct os_time *t);
  37:..\..\..\..\wpa_supplicant\src/utils/os.h **** 
  38:..\..\..\..\wpa_supplicant\src/utils/os.h **** /**
  39:..\..\..\..\wpa_supplicant\src/utils/os.h ****  * os_get_reltime - Get relative time (sec, usec)
  40:..\..\..\..\wpa_supplicant\src/utils/os.h ****  * @t: Pointer to buffer for the time
  41:..\..\..\..\wpa_supplicant\src/utils/os.h ****  * Returns: 0 on success, -1 on failure
  42:..\..\..\..\wpa_supplicant\src/utils/os.h ****  */
  43:..\..\..\..\wpa_supplicant\src/utils/os.h **** int os_get_reltime(struct os_reltime *t);
  44:..\..\..\..\wpa_supplicant\src/utils/os.h **** 
  45:..\..\..\..\wpa_supplicant\src/utils/os.h **** 
  46:..\..\..\..\wpa_supplicant\src/utils/os.h **** /* Helpers for handling struct os_time */
  47:..\..\..\..\wpa_supplicant\src/utils/os.h **** 
  48:..\..\..\..\wpa_supplicant\src/utils/os.h **** static inline int os_time_before(struct os_time *a, struct os_time *b)
  49:..\..\..\..\wpa_supplicant\src/utils/os.h **** {
  50:..\..\..\..\wpa_supplicant\src/utils/os.h **** 	return (a->sec < b->sec) ||
  51:..\..\..\..\wpa_supplicant\src/utils/os.h **** 	       (a->sec == b->sec && a->usec < b->usec);
  52:..\..\..\..\wpa_supplicant\src/utils/os.h **** }
  53:..\..\..\..\wpa_supplicant\src/utils/os.h **** 
  54:..\..\..\..\wpa_supplicant\src/utils/os.h **** 
  55:..\..\..\..\wpa_supplicant\src/utils/os.h **** static inline void os_time_sub(struct os_time *a, struct os_time *b,
  56:..\..\..\..\wpa_supplicant\src/utils/os.h **** 			       struct os_time *res)
  57:..\..\..\..\wpa_supplicant\src/utils/os.h **** {
  58:..\..\..\..\wpa_supplicant\src/utils/os.h **** 	res->sec = a->sec - b->sec;
  59:..\..\..\..\wpa_supplicant\src/utils/os.h **** 	res->usec = a->usec - b->usec;
  60:..\..\..\..\wpa_supplicant\src/utils/os.h **** 	if (res->usec < 0) {
  61:..\..\..\..\wpa_supplicant\src/utils/os.h **** 		res->sec--;
  62:..\..\..\..\wpa_supplicant\src/utils/os.h **** 		res->usec += 1000000;
  63:..\..\..\..\wpa_supplicant\src/utils/os.h **** 	}
  64:..\..\..\..\wpa_supplicant\src/utils/os.h **** }
  65:..\..\..\..\wpa_supplicant\src/utils/os.h **** 
  66:..\..\..\..\wpa_supplicant\src/utils/os.h **** 
  67:..\..\..\..\wpa_supplicant\src/utils/os.h **** /* Helpers for handling struct os_reltime */
  68:..\..\..\..\wpa_supplicant\src/utils/os.h **** 
  69:..\..\..\..\wpa_supplicant\src/utils/os.h **** static inline int os_reltime_before(struct os_reltime *a,
  70:..\..\..\..\wpa_supplicant\src/utils/os.h **** 				    struct os_reltime *b)
  71:..\..\..\..\wpa_supplicant\src/utils/os.h **** {
  72:..\..\..\..\wpa_supplicant\src/utils/os.h **** 	return (a->sec < b->sec) ||
  73:..\..\..\..\wpa_supplicant\src/utils/os.h **** 	       (a->sec == b->sec && a->usec < b->usec);
  74:..\..\..\..\wpa_supplicant\src/utils/os.h **** }
  75:..\..\..\..\wpa_supplicant\src/utils/os.h **** 
  76:..\..\..\..\wpa_supplicant\src/utils/os.h **** 
  77:..\..\..\..\wpa_supplicant\src/utils/os.h **** static inline void os_reltime_sub(struct os_reltime *a, struct os_reltime *b,
  78:..\..\..\..\wpa_supplicant\src/utils/os.h **** 				  struct os_reltime *res)
  79:..\..\..\..\wpa_supplicant\src/utils/os.h **** {
  80:..\..\..\..\wpa_supplicant\src/utils/os.h **** 	res->sec = a->sec - b->sec;
  81:..\..\..\..\wpa_supplicant\src/utils/os.h **** 	res->usec = a->usec - b->usec;
  82:..\..\..\..\wpa_supplicant\src/utils/os.h **** 	if (res->usec < 0) {
  83:..\..\..\..\wpa_supplicant\src/utils/os.h **** 		res->sec--;
  84:..\..\..\..\wpa_supplicant\src/utils/os.h **** 		res->usec += 1000000;
  85:..\..\..\..\wpa_supplicant\src/utils/os.h **** 	}
  86:..\..\..\..\wpa_supplicant\src/utils/os.h **** }
  87:..\..\..\..\wpa_supplicant\src/utils/os.h **** 
  88:..\..\..\..\wpa_supplicant\src/utils/os.h **** 
  89:..\..\..\..\wpa_supplicant\src/utils/os.h **** static inline void os_reltime_age(struct os_reltime *start,
  90:..\..\..\..\wpa_supplicant\src/utils/os.h **** 				  struct os_reltime *age)
  91:..\..\..\..\wpa_supplicant\src/utils/os.h **** {
  92:..\..\..\..\wpa_supplicant\src/utils/os.h **** 	struct os_reltime now;
  93:..\..\..\..\wpa_supplicant\src/utils/os.h **** 
  94:..\..\..\..\wpa_supplicant\src/utils/os.h **** 	os_get_reltime(&now);
  95:..\..\..\..\wpa_supplicant\src/utils/os.h **** 	os_reltime_sub(&now, start, age);
  96:..\..\..\..\wpa_supplicant\src/utils/os.h **** }
  97:..\..\..\..\wpa_supplicant\src/utils/os.h **** 
  98:..\..\..\..\wpa_supplicant\src/utils/os.h **** 
  99:..\..\..\..\wpa_supplicant\src/utils/os.h **** static inline int os_reltime_expired(struct os_reltime *now,
 100:..\..\..\..\wpa_supplicant\src/utils/os.h **** 				     struct os_reltime *ts,
 101:..\..\..\..\wpa_supplicant\src/utils/os.h **** 				     os_time_t timeout_secs)
 102:..\..\..\..\wpa_supplicant\src/utils/os.h **** {
 103:..\..\..\..\wpa_supplicant\src/utils/os.h **** 	struct os_reltime age;
 104:..\..\..\..\wpa_supplicant\src/utils/os.h **** 
 105:..\..\..\..\wpa_supplicant\src/utils/os.h **** 	os_reltime_sub(now, ts, &age);
 106:..\..\..\..\wpa_supplicant\src/utils/os.h **** 	return (age.sec > timeout_secs) ||
 107:..\..\..\..\wpa_supplicant\src/utils/os.h **** 	       (age.sec == timeout_secs && age.usec > 0);
 108:..\..\..\..\wpa_supplicant\src/utils/os.h **** }
 109:..\..\..\..\wpa_supplicant\src/utils/os.h **** 
 110:..\..\..\..\wpa_supplicant\src/utils/os.h **** 
 111:..\..\..\..\wpa_supplicant\src/utils/os.h **** static inline int os_reltime_initialized(struct os_reltime *t)
 112:..\..\..\..\wpa_supplicant\src/utils/os.h **** {
 113:..\..\..\..\wpa_supplicant\src/utils/os.h **** 	return t->sec != 0 || t->usec != 0;
 114:..\..\..\..\wpa_supplicant\src/utils/os.h **** }
 115:..\..\..\..\wpa_supplicant\src/utils/os.h **** 
 116:..\..\..\..\wpa_supplicant\src/utils/os.h **** 
 117:..\..\..\..\wpa_supplicant\src/utils/os.h **** /**
 118:..\..\..\..\wpa_supplicant\src/utils/os.h ****  * os_mktime - Convert broken-down time into seconds since 1970-01-01
 119:..\..\..\..\wpa_supplicant\src/utils/os.h ****  * @year: Four digit year
 120:..\..\..\..\wpa_supplicant\src/utils/os.h ****  * @month: Month (1 .. 12)
 121:..\..\..\..\wpa_supplicant\src/utils/os.h ****  * @day: Day of month (1 .. 31)
 122:..\..\..\..\wpa_supplicant\src/utils/os.h ****  * @hour: Hour (0 .. 23)
 123:..\..\..\..\wpa_supplicant\src/utils/os.h ****  * @min: Minute (0 .. 59)
 124:..\..\..\..\wpa_supplicant\src/utils/os.h ****  * @sec: Second (0 .. 60)
 125:..\..\..\..\wpa_supplicant\src/utils/os.h ****  * @t: Buffer for returning calendar time representation (seconds since
 126:..\..\..\..\wpa_supplicant\src/utils/os.h ****  * 1970-01-01 00:00:00)
 127:..\..\..\..\wpa_supplicant\src/utils/os.h ****  * Returns: 0 on success, -1 on failure
 128:..\..\..\..\wpa_supplicant\src/utils/os.h ****  *
 129:..\..\..\..\wpa_supplicant\src/utils/os.h ****  * Note: The result is in seconds from Epoch, i.e., in UTC, not in local time
 130:..\..\..\..\wpa_supplicant\src/utils/os.h ****  * which is used by POSIX mktime().
 131:..\..\..\..\wpa_supplicant\src/utils/os.h ****  */
 132:..\..\..\..\wpa_supplicant\src/utils/os.h **** int os_mktime(int year, int month, int day, int hour, int min, int sec,
 133:..\..\..\..\wpa_supplicant\src/utils/os.h **** 	      os_time_t *t);
 134:..\..\..\..\wpa_supplicant\src/utils/os.h **** 
 135:..\..\..\..\wpa_supplicant\src/utils/os.h **** struct os_tm {
 136:..\..\..\..\wpa_supplicant\src/utils/os.h **** 	int sec; /* 0..59 or 60 for leap seconds */
 137:..\..\..\..\wpa_supplicant\src/utils/os.h **** 	int min; /* 0..59 */
 138:..\..\..\..\wpa_supplicant\src/utils/os.h **** 	int hour; /* 0..23 */
 139:..\..\..\..\wpa_supplicant\src/utils/os.h **** 	int day; /* 1..31 */
 140:..\..\..\..\wpa_supplicant\src/utils/os.h **** 	int month; /* 1..12 */
 141:..\..\..\..\wpa_supplicant\src/utils/os.h **** 	int year; /* Four digit year */
 142:..\..\..\..\wpa_supplicant\src/utils/os.h **** };
 143:..\..\..\..\wpa_supplicant\src/utils/os.h **** 
 144:..\..\..\..\wpa_supplicant\src/utils/os.h **** int os_gmtime(os_time_t t, struct os_tm *tm);
 145:..\..\..\..\wpa_supplicant\src/utils/os.h **** 
 146:..\..\..\..\wpa_supplicant\src/utils/os.h **** /**
 147:..\..\..\..\wpa_supplicant\src/utils/os.h ****  * os_daemonize - Run in the background (detach from the controlling terminal)
 148:..\..\..\..\wpa_supplicant\src/utils/os.h ****  * @pid_file: File name to write the process ID to or %NULL to skip this
 149:..\..\..\..\wpa_supplicant\src/utils/os.h ****  * Returns: 0 on success, -1 on failure
 150:..\..\..\..\wpa_supplicant\src/utils/os.h ****  */
 151:..\..\..\..\wpa_supplicant\src/utils/os.h **** int os_daemonize(const char *pid_file);
 152:..\..\..\..\wpa_supplicant\src/utils/os.h **** 
 153:..\..\..\..\wpa_supplicant\src/utils/os.h **** /**
 154:..\..\..\..\wpa_supplicant\src/utils/os.h ****  * os_daemonize_terminate - Stop running in the background (remove pid file)
 155:..\..\..\..\wpa_supplicant\src/utils/os.h ****  * @pid_file: File name to write the process ID to or %NULL to skip this
 156:..\..\..\..\wpa_supplicant\src/utils/os.h ****  */
 157:..\..\..\..\wpa_supplicant\src/utils/os.h **** void os_daemonize_terminate(const char *pid_file);
 158:..\..\..\..\wpa_supplicant\src/utils/os.h **** 
 159:..\..\..\..\wpa_supplicant\src/utils/os.h **** /**
 160:..\..\..\..\wpa_supplicant\src/utils/os.h ****  * os_get_random - Get cryptographically strong pseudo random data
 161:..\..\..\..\wpa_supplicant\src/utils/os.h ****  * @buf: Buffer for pseudo random data
 162:..\..\..\..\wpa_supplicant\src/utils/os.h ****  * @len: Length of the buffer
 163:..\..\..\..\wpa_supplicant\src/utils/os.h ****  * Returns: 0 on success, -1 on failure
 164:..\..\..\..\wpa_supplicant\src/utils/os.h ****  */
 165:..\..\..\..\wpa_supplicant\src/utils/os.h **** int os_get_random(unsigned char *buf, size_t len);
 166:..\..\..\..\wpa_supplicant\src/utils/os.h **** 
 167:..\..\..\..\wpa_supplicant\src/utils/os.h **** /**
 168:..\..\..\..\wpa_supplicant\src/utils/os.h ****  * os_random - Get pseudo random value (not necessarily very strong)
 169:..\..\..\..\wpa_supplicant\src/utils/os.h ****  * Returns: Pseudo random value
 170:..\..\..\..\wpa_supplicant\src/utils/os.h ****  */
 171:..\..\..\..\wpa_supplicant\src/utils/os.h **** unsigned long os_random(void);
 172:..\..\..\..\wpa_supplicant\src/utils/os.h **** 
 173:..\..\..\..\wpa_supplicant\src/utils/os.h **** /**
 174:..\..\..\..\wpa_supplicant\src/utils/os.h ****  * os_rel2abs_path - Get an absolute path for a file
 175:..\..\..\..\wpa_supplicant\src/utils/os.h ****  * @rel_path: Relative path to a file
 176:..\..\..\..\wpa_supplicant\src/utils/os.h ****  * Returns: Absolute path for the file or %NULL on failure
 177:..\..\..\..\wpa_supplicant\src/utils/os.h ****  *
 178:..\..\..\..\wpa_supplicant\src/utils/os.h ****  * This function tries to convert a relative path of a file to an absolute path
 179:..\..\..\..\wpa_supplicant\src/utils/os.h ****  * in order for the file to be found even if current working directory has
 180:..\..\..\..\wpa_supplicant\src/utils/os.h ****  * changed. The returned value is allocated and caller is responsible for
 181:..\..\..\..\wpa_supplicant\src/utils/os.h ****  * freeing it. It is acceptable to just return the same path in an allocated
 182:..\..\..\..\wpa_supplicant\src/utils/os.h ****  * buffer, e.g., return strdup(rel_path). This function is only used to find
 183:..\..\..\..\wpa_supplicant\src/utils/os.h ****  * configuration files when os_daemonize() may have changed the current working
 184:..\..\..\..\wpa_supplicant\src/utils/os.h ****  * directory and relative path would be pointing to a different location.
 185:..\..\..\..\wpa_supplicant\src/utils/os.h ****  */
 186:..\..\..\..\wpa_supplicant\src/utils/os.h **** char * os_rel2abs_path(const char *rel_path);
 187:..\..\..\..\wpa_supplicant\src/utils/os.h **** 
 188:..\..\..\..\wpa_supplicant\src/utils/os.h **** /**
 189:..\..\..\..\wpa_supplicant\src/utils/os.h ****  * os_program_init - Program initialization (called at start)
 190:..\..\..\..\wpa_supplicant\src/utils/os.h ****  * Returns: 0 on success, -1 on failure
 191:..\..\..\..\wpa_supplicant\src/utils/os.h ****  *
 192:..\..\..\..\wpa_supplicant\src/utils/os.h ****  * This function is called when a programs starts. If there are any OS specific
 193:..\..\..\..\wpa_supplicant\src/utils/os.h ****  * processing that is needed, it can be placed here. It is also acceptable to
 194:..\..\..\..\wpa_supplicant\src/utils/os.h ****  * just return 0 if not special processing is needed.
 195:..\..\..\..\wpa_supplicant\src/utils/os.h ****  */
 196:..\..\..\..\wpa_supplicant\src/utils/os.h **** int os_program_init(void);
 197:..\..\..\..\wpa_supplicant\src/utils/os.h **** 
 198:..\..\..\..\wpa_supplicant\src/utils/os.h **** /**
 199:..\..\..\..\wpa_supplicant\src/utils/os.h ****  * os_program_deinit - Program deinitialization (called just before exit)
 200:..\..\..\..\wpa_supplicant\src/utils/os.h ****  *
 201:..\..\..\..\wpa_supplicant\src/utils/os.h ****  * This function is called just before a program exists. If there are any OS
 202:..\..\..\..\wpa_supplicant\src/utils/os.h ****  * specific processing, e.g., freeing resourced allocated in os_program_init(),
 203:..\..\..\..\wpa_supplicant\src/utils/os.h ****  * it should be done here. It is also acceptable for this function to do
 204:..\..\..\..\wpa_supplicant\src/utils/os.h ****  * nothing.
 205:..\..\..\..\wpa_supplicant\src/utils/os.h ****  */
 206:..\..\..\..\wpa_supplicant\src/utils/os.h **** void os_program_deinit(void);
 207:..\..\..\..\wpa_supplicant\src/utils/os.h **** 
 208:..\..\..\..\wpa_supplicant\src/utils/os.h **** /**
 209:..\..\..\..\wpa_supplicant\src/utils/os.h ****  * os_setenv - Set environment variable
 210:..\..\..\..\wpa_supplicant\src/utils/os.h ****  * @name: Name of the variable
 211:..\..\..\..\wpa_supplicant\src/utils/os.h ****  * @value: Value to set to the variable
 212:..\..\..\..\wpa_supplicant\src/utils/os.h ****  * @overwrite: Whether existing variable should be overwritten
 213:..\..\..\..\wpa_supplicant\src/utils/os.h ****  * Returns: 0 on success, -1 on error
 214:..\..\..\..\wpa_supplicant\src/utils/os.h ****  *
 215:..\..\..\..\wpa_supplicant\src/utils/os.h ****  * This function is only used for wpa_cli action scripts. OS wrapper does not
 216:..\..\..\..\wpa_supplicant\src/utils/os.h ****  * need to implement this if such functionality is not needed.
 217:..\..\..\..\wpa_supplicant\src/utils/os.h ****  */
 218:..\..\..\..\wpa_supplicant\src/utils/os.h **** int os_setenv(const char *name, const char *value, int overwrite);
 219:..\..\..\..\wpa_supplicant\src/utils/os.h **** 
 220:..\..\..\..\wpa_supplicant\src/utils/os.h **** /**
 221:..\..\..\..\wpa_supplicant\src/utils/os.h ****  * os_unsetenv - Delete environent variable
 222:..\..\..\..\wpa_supplicant\src/utils/os.h ****  * @name: Name of the variable
 223:..\..\..\..\wpa_supplicant\src/utils/os.h ****  * Returns: 0 on success, -1 on error
 224:..\..\..\..\wpa_supplicant\src/utils/os.h ****  *
 225:..\..\..\..\wpa_supplicant\src/utils/os.h ****  * This function is only used for wpa_cli action scripts. OS wrapper does not
 226:..\..\..\..\wpa_supplicant\src/utils/os.h ****  * need to implement this if such functionality is not needed.
 227:..\..\..\..\wpa_supplicant\src/utils/os.h ****  */
 228:..\..\..\..\wpa_supplicant\src/utils/os.h **** int os_unsetenv(const char *name);
 229:..\..\..\..\wpa_supplicant\src/utils/os.h **** 
 230:..\..\..\..\wpa_supplicant\src/utils/os.h **** /**
 231:..\..\..\..\wpa_supplicant\src/utils/os.h ****  * os_readfile - Read a file to an allocated memory buffer
 232:..\..\..\..\wpa_supplicant\src/utils/os.h ****  * @name: Name of the file to read
 233:..\..\..\..\wpa_supplicant\src/utils/os.h ****  * @len: For returning the length of the allocated buffer
 234:..\..\..\..\wpa_supplicant\src/utils/os.h ****  * Returns: Pointer to the allocated buffer or %NULL on failure
 235:..\..\..\..\wpa_supplicant\src/utils/os.h ****  *
 236:..\..\..\..\wpa_supplicant\src/utils/os.h ****  * This function allocates memory and reads the given file to this buffer. Both
 237:..\..\..\..\wpa_supplicant\src/utils/os.h ****  * binary and text files can be read with this function. The caller is
 238:..\..\..\..\wpa_supplicant\src/utils/os.h ****  * responsible for freeing the returned buffer with os_free().
 239:..\..\..\..\wpa_supplicant\src/utils/os.h ****  */
 240:..\..\..\..\wpa_supplicant\src/utils/os.h **** char * os_readfile(const char *name, size_t *len);
 241:..\..\..\..\wpa_supplicant\src/utils/os.h **** 
 242:..\..\..\..\wpa_supplicant\src/utils/os.h **** /**
 243:..\..\..\..\wpa_supplicant\src/utils/os.h ****  * os_file_exists - Check whether the specified file exists
 244:..\..\..\..\wpa_supplicant\src/utils/os.h ****  * @fname: Path and name of the file
 245:..\..\..\..\wpa_supplicant\src/utils/os.h ****  * Returns: 1 if the file exists or 0 if not
 246:..\..\..\..\wpa_supplicant\src/utils/os.h ****  */
 247:..\..\..\..\wpa_supplicant\src/utils/os.h **** int os_file_exists(const char *fname);
 248:..\..\..\..\wpa_supplicant\src/utils/os.h **** 
 249:..\..\..\..\wpa_supplicant\src/utils/os.h **** /**
 250:..\..\..\..\wpa_supplicant\src/utils/os.h ****  * os_fdatasync - Sync a file's (for a given stream) state with storage device
 251:..\..\..\..\wpa_supplicant\src/utils/os.h ****  * @stream: the stream to be flushed
 252:..\..\..\..\wpa_supplicant\src/utils/os.h ****  * Returns: 0 if the operation succeeded or -1 on failure
 253:..\..\..\..\wpa_supplicant\src/utils/os.h ****  */
 254:..\..\..\..\wpa_supplicant\src/utils/os.h **** int os_fdatasync(FILE *stream);
 255:..\..\..\..\wpa_supplicant\src/utils/os.h **** 
 256:..\..\..\..\wpa_supplicant\src/utils/os.h **** /**
 257:..\..\..\..\wpa_supplicant\src/utils/os.h ****  * os_zalloc - Allocate and zero memory
 258:..\..\..\..\wpa_supplicant\src/utils/os.h ****  * @size: Number of bytes to allocate
 259:..\..\..\..\wpa_supplicant\src/utils/os.h ****  * Returns: Pointer to allocated and zeroed memory or %NULL on failure
 260:..\..\..\..\wpa_supplicant\src/utils/os.h ****  *
 261:..\..\..\..\wpa_supplicant\src/utils/os.h ****  * Caller is responsible for freeing the returned buffer with os_free().
 262:..\..\..\..\wpa_supplicant\src/utils/os.h ****  */
 263:..\..\..\..\wpa_supplicant\src/utils/os.h **** void * os_zalloc(size_t size);
 264:..\..\..\..\wpa_supplicant\src/utils/os.h **** 
 265:..\..\..\..\wpa_supplicant\src/utils/os.h **** /**
 266:..\..\..\..\wpa_supplicant\src/utils/os.h ****  * os_calloc - Allocate and zero memory for an array
 267:..\..\..\..\wpa_supplicant\src/utils/os.h ****  * @nmemb: Number of members in the array
 268:..\..\..\..\wpa_supplicant\src/utils/os.h ****  * @size: Number of bytes in each member
 269:..\..\..\..\wpa_supplicant\src/utils/os.h ****  * Returns: Pointer to allocated and zeroed memory or %NULL on failure
 270:..\..\..\..\wpa_supplicant\src/utils/os.h ****  *
 271:..\..\..\..\wpa_supplicant\src/utils/os.h ****  * This function can be used as a wrapper for os_zalloc(nmemb * size) when an
 272:..\..\..\..\wpa_supplicant\src/utils/os.h ****  * allocation is used for an array. The main benefit over os_zalloc() is in
 273:..\..\..\..\wpa_supplicant\src/utils/os.h ****  * having an extra check to catch integer overflows in multiplication.
 274:..\..\..\..\wpa_supplicant\src/utils/os.h ****  *
 275:..\..\..\..\wpa_supplicant\src/utils/os.h ****  * Caller is responsible for freeing the returned buffer with os_free().
 276:..\..\..\..\wpa_supplicant\src/utils/os.h ****  */
 277:..\..\..\..\wpa_supplicant\src/utils/os.h **** static inline void * os_calloc(size_t nmemb, size_t size)
 278:..\..\..\..\wpa_supplicant\src/utils/os.h **** {
 279:..\..\..\..\wpa_supplicant\src/utils/os.h **** 	if (size && nmemb > (~(size_t) 0) / size)
 378              		.loc 4 279 2
 280:..\..\..\..\wpa_supplicant\src/utils/os.h **** 		return NULL;
 281:..\..\..\..\wpa_supplicant\src/utils/os.h **** 	return os_zalloc(nmemb * size);
 379              		.loc 4 281 2
 380              		.loc 4 281 9 is_stmt 0
 381 005a 1145     		li	a0,4
 382              	.LVL21:
 383 005c 97000000 		call	os_zalloc
 383      E7800000 
 384              	.LVL22:
 385              	.LBE23:
 386              	.LBE22:
 215:C:/Users/stapi/OneDrive/Desktop/GD32VW553/V1_MQTT_OK/GD32VW55X_Wifi_BLE_SDK/GD32VW55x_RELEASE_V1.0.2/MSDK/wpa_supplicant/src/ap\ap_config.c **** 	if (conf->bss == NULL) {
 387              		.loc 2 215 12
 388 0064 08C0     		sw	a0,0(s0)
 389              	.LBB25:
 390              	.LBB24:
 391              		.loc 4 281 9
 392 0066 AA84     		mv	s1,a0
 393              	.LVL23:
 394              	.LBE24:
 395              	.LBE25:
 216:C:/Users/stapi/OneDrive/Desktop/GD32VW553/V1_MQTT_OK/GD32VW55X_Wifi_BLE_SDK/GD32VW55x_RELEASE_V1.0.2/MSDK/wpa_supplicant/src/ap\ap_config.c **** 		os_free(conf);
 396              		.loc 2 216 2 is_stmt 1
 216:C:/Users/stapi/OneDrive/Desktop/GD32VW553/V1_MQTT_OK/GD32VW55X_Wifi_BLE_SDK/GD32VW55x_RELEASE_V1.0.2/MSDK/wpa_supplicant/src/ap\ap_config.c **** 		os_free(conf);
 397              		.loc 2 216 5 is_stmt 0
 398 0068 01ED     		bne	a0,zero,.L11
 399              	.L17:
 226:C:/Users/stapi/OneDrive/Desktop/GD32VW553/V1_MQTT_OK/GD32VW55X_Wifi_BLE_SDK/GD32VW55x_RELEASE_V1.0.2/MSDK/wpa_supplicant/src/ap\ap_config.c **** 		os_free(bss);
 400              		.loc 2 226 3 is_stmt 1
 401 006a 2285     		mv	a0,s0
 402 006c 97000000 		call	os_free
 402      E7800000 
 403              	.LVL24:
 227:C:/Users/stapi/OneDrive/Desktop/GD32VW553/V1_MQTT_OK/GD32VW55X_Wifi_BLE_SDK/GD32VW55x_RELEASE_V1.0.2/MSDK/wpa_supplicant/src/ap\ap_config.c **** 		return NULL;
 404              		.loc 2 227 3
 405 0074 4A85     		mv	a0,s2
 406 0076 97000000 		call	os_free
 406      E7800000 
 407              	.LVL25:
 228:C:/Users/stapi/OneDrive/Desktop/GD32VW553/V1_MQTT_OK/GD32VW55X_Wifi_BLE_SDK/GD32VW55x_RELEASE_V1.0.2/MSDK/wpa_supplicant/src/ap\ap_config.c **** 	}
 408              		.loc 2 228 3
 228:C:/Users/stapi/OneDrive/Desktop/GD32VW553/V1_MQTT_OK/GD32VW55X_Wifi_BLE_SDK/GD32VW55x_RELEASE_V1.0.2/MSDK/wpa_supplicant/src/ap\ap_config.c **** 	}
 409              		.loc 2 228 10 is_stmt 0
 410 007e C9BF     		j	.L7
 411              	.L11:
 221:C:/Users/stapi/OneDrive/Desktop/GD32VW553/V1_MQTT_OK/GD32VW55X_Wifi_BLE_SDK/GD32VW55x_RELEASE_V1.0.2/MSDK/wpa_supplicant/src/ap\ap_config.c **** 
 412              		.loc 2 221 2 is_stmt 1
 221:C:/Users/stapi/OneDrive/Desktop/GD32VW553/V1_MQTT_OK/GD32VW55X_Wifi_BLE_SDK/GD32VW55x_RELEASE_V1.0.2/MSDK/wpa_supplicant/src/ap\ap_config.c **** 
 413              		.loc 2 221 15 is_stmt 0
 414 0080 23202501 		sw	s2,0(a0)
 223:C:/Users/stapi/OneDrive/Desktop/GD32VW553/V1_MQTT_OK/GD32VW55X_Wifi_BLE_SDK/GD32VW55x_RELEASE_V1.0.2/MSDK/wpa_supplicant/src/ap\ap_config.c **** 	if (bss->radius == NULL) {
 415              		.loc 2 223 2 is_stmt 1
 223:C:/Users/stapi/OneDrive/Desktop/GD32VW553/V1_MQTT_OK/GD32VW55X_Wifi_BLE_SDK/GD32VW55x_RELEASE_V1.0.2/MSDK/wpa_supplicant/src/ap\ap_config.c **** 	if (bss->radius == NULL) {
 416              		.loc 2 223 16 is_stmt 0
 417 0084 1305C003 		li	a0,60
 418 0088 97000000 		call	os_zalloc
 418      E7800000 
 419              	.LVL26:
 223:C:/Users/stapi/OneDrive/Desktop/GD32VW553/V1_MQTT_OK/GD32VW55X_Wifi_BLE_SDK/GD32VW55x_RELEASE_V1.0.2/MSDK/wpa_supplicant/src/ap\ap_config.c **** 	if (bss->radius == NULL) {
 420              		.loc 2 223 14
 421 0090 232AA906 		sw	a0,116(s2)
 224:C:/Users/stapi/OneDrive/Desktop/GD32VW553/V1_MQTT_OK/GD32VW55X_Wifi_BLE_SDK/GD32VW55x_RELEASE_V1.0.2/MSDK/wpa_supplicant/src/ap\ap_config.c **** 		os_free(conf->bss);
 422              		.loc 2 224 2 is_stmt 1
 223:C:/Users/stapi/OneDrive/Desktop/GD32VW553/V1_MQTT_OK/GD32VW55X_Wifi_BLE_SDK/GD32VW55x_RELEASE_V1.0.2/MSDK/wpa_supplicant/src/ap\ap_config.c **** 	if (bss->radius == NULL) {
 423              		.loc 2 223 16 is_stmt 0
 424 0094 AA84     		mv	s1,a0
 224:C:/Users/stapi/OneDrive/Desktop/GD32VW553/V1_MQTT_OK/GD32VW55X_Wifi_BLE_SDK/GD32VW55x_RELEASE_V1.0.2/MSDK/wpa_supplicant/src/ap\ap_config.c **** 		os_free(conf->bss);
 425              		.loc 2 224 5
 426 0096 19E5     		bne	a0,zero,.L12
 225:C:/Users/stapi/OneDrive/Desktop/GD32VW553/V1_MQTT_OK/GD32VW55X_Wifi_BLE_SDK/GD32VW55x_RELEASE_V1.0.2/MSDK/wpa_supplicant/src/ap\ap_config.c **** 		os_free(conf);
 427              		.loc 2 225 3 is_stmt 1
 428 0098 0840     		lw	a0,0(s0)
 429 009a 97000000 		call	os_free
 429      E7800000 
 430              	.LVL27:
 431 00a2 E1B7     		j	.L17
 432              	.L12:
 231:C:/Users/stapi/OneDrive/Desktop/GD32VW553/V1_MQTT_OK/GD32VW55X_Wifi_BLE_SDK/GD32VW55x_RELEASE_V1.0.2/MSDK/wpa_supplicant/src/ap\ap_config.c **** 
 433              		.loc 2 231 2
 434 00a4 4A85     		mv	a0,s2
 435 00a6 97000000 		call	hostapd_config_defaults_bss
 435      E7800000 
 436              	.LVL28:
 233:C:/Users/stapi/OneDrive/Desktop/GD32VW553/V1_MQTT_OK/GD32VW55X_Wifi_BLE_SDK/GD32VW55x_RELEASE_V1.0.2/MSDK/wpa_supplicant/src/ap\ap_config.c **** 
 437              		.loc 2 233 2
 235:C:/Users/stapi/OneDrive/Desktop/GD32VW553/V1_MQTT_OK/GD32VW55X_Wifi_BLE_SDK/GD32VW55x_RELEASE_V1.0.2/MSDK/wpa_supplicant/src/ap\ap_config.c **** 	conf->rts_threshold = -2; /* use driver default: 2347 */
 438              		.loc 2 235 19 is_stmt 0
 439 00ae 93074006 		li	a5,100
 440 00b2 2316F400 		sh	a5,12(s0)
 236:C:/Users/stapi/OneDrive/Desktop/GD32VW553/V1_MQTT_OK/GD32VW55X_Wifi_BLE_SDK/GD32VW55x_RELEASE_V1.0.2/MSDK/wpa_supplicant/src/ap\ap_config.c **** 	conf->fragm_threshold = -2; /* user driver default: 2346 */
 441              		.loc 2 236 22
 442 00b6 F957     		li	a5,-2
 233:C:/Users/stapi/OneDrive/Desktop/GD32VW553/V1_MQTT_OK/GD32VW55X_Wifi_BLE_SDK/GD32VW55x_RELEASE_V1.0.2/MSDK/wpa_supplicant/src/ap\ap_config.c **** 
 443              		.loc 2 233 16
 444 00b8 8544     		li	s1,1
 236:C:/Users/stapi/OneDrive/Desktop/GD32VW553/V1_MQTT_OK/GD32VW55X_Wifi_BLE_SDK/GD32VW55x_RELEASE_V1.0.2/MSDK/wpa_supplicant/src/ap\ap_config.c **** 	conf->fragm_threshold = -2; /* user driver default: 2346 */
 445              		.loc 2 236 22
 446 00ba 1CC8     		sw	a5,16(s0)
 237:C:/Users/stapi/OneDrive/Desktop/GD32VW553/V1_MQTT_OK/GD32VW55X_Wifi_BLE_SDK/GD32VW55x_RELEASE_V1.0.2/MSDK/wpa_supplicant/src/ap\ap_config.c **** 	/* Set to invalid value means do not add Power Constraint IE */
 447              		.loc 2 237 24
 448 00bc 5CC8     		sw	a5,20(s0)
 241:C:/Users/stapi/OneDrive/Desktop/GD32VW553/V1_MQTT_OK/GD32VW55X_Wifi_BLE_SDK/GD32VW55x_RELEASE_V1.0.2/MSDK/wpa_supplicant/src/ap\ap_config.c **** 	conf->wmm_ac_params[1] = ac_bk;
 449              		.loc 2 241 25
 450 00be B7050000 		lui	a1,%hi(.LANCHOR0)
 239:C:/Users/stapi/OneDrive/Desktop/GD32VW553/V1_MQTT_OK/GD32VW55X_Wifi_BLE_SDK/GD32VW55x_RELEASE_V1.0.2/MSDK/wpa_supplicant/src/ap\ap_config.c **** 
 451              		.loc 2 239 29
 452 00c2 FD57     		li	a5,-1
 453 00c4 2320F408 		sw	a5,128(s0)
 233:C:/Users/stapi/OneDrive/Desktop/GD32VW553/V1_MQTT_OK/GD32VW55X_Wifi_BLE_SDK/GD32VW55x_RELEASE_V1.0.2/MSDK/wpa_supplicant/src/ap\ap_config.c **** 
 454              		.loc 2 233 16
 455 00c8 04C4     		sw	s1,8(s0)
 235:C:/Users/stapi/OneDrive/Desktop/GD32VW553/V1_MQTT_OK/GD32VW55X_Wifi_BLE_SDK/GD32VW55x_RELEASE_V1.0.2/MSDK/wpa_supplicant/src/ap\ap_config.c **** 	conf->rts_threshold = -2; /* use driver default: 2347 */
 456              		.loc 2 235 2 is_stmt 1
 236:C:/Users/stapi/OneDrive/Desktop/GD32VW553/V1_MQTT_OK/GD32VW55X_Wifi_BLE_SDK/GD32VW55x_RELEASE_V1.0.2/MSDK/wpa_supplicant/src/ap\ap_config.c **** 	conf->fragm_threshold = -2; /* user driver default: 2346 */
 457              		.loc 2 236 2
 237:C:/Users/stapi/OneDrive/Desktop/GD32VW553/V1_MQTT_OK/GD32VW55X_Wifi_BLE_SDK/GD32VW55x_RELEASE_V1.0.2/MSDK/wpa_supplicant/src/ap\ap_config.c **** 	/* Set to invalid value means do not add Power Constraint IE */
 458              		.loc 2 237 2
 239:C:/Users/stapi/OneDrive/Desktop/GD32VW553/V1_MQTT_OK/GD32VW55X_Wifi_BLE_SDK/GD32VW55x_RELEASE_V1.0.2/MSDK/wpa_supplicant/src/ap\ap_config.c **** 
 459              		.loc 2 239 2
 241:C:/Users/stapi/OneDrive/Desktop/GD32VW553/V1_MQTT_OK/GD32VW55X_Wifi_BLE_SDK/GD32VW55x_RELEASE_V1.0.2/MSDK/wpa_supplicant/src/ap\ap_config.c **** 	conf->wmm_ac_params[1] = ac_bk;
 460              		.loc 2 241 2
 241:C:/Users/stapi/OneDrive/Desktop/GD32VW553/V1_MQTT_OK/GD32VW55X_Wifi_BLE_SDK/GD32VW55x_RELEASE_V1.0.2/MSDK/wpa_supplicant/src/ap\ap_config.c **** 	conf->wmm_ac_params[1] = ac_bk;
 461              		.loc 2 241 25 is_stmt 0
 462 00ca 5146     		li	a2,20
 463 00cc 93850500 		addi	a1,a1,%lo(.LANCHOR0)
 464 00d0 1305840C 		addi	a0,s0,200
 465 00d4 97000000 		call	memcpy
 465      E7800000 
 466              	.LVL29:
 242:C:/Users/stapi/OneDrive/Desktop/GD32VW553/V1_MQTT_OK/GD32VW55X_Wifi_BLE_SDK/GD32VW55x_RELEASE_V1.0.2/MSDK/wpa_supplicant/src/ap\ap_config.c **** 	conf->wmm_ac_params[2] = ac_vi;
 467              		.loc 2 242 2 is_stmt 1
 242:C:/Users/stapi/OneDrive/Desktop/GD32VW553/V1_MQTT_OK/GD32VW55X_Wifi_BLE_SDK/GD32VW55x_RELEASE_V1.0.2/MSDK/wpa_supplicant/src/ap\ap_config.c **** 	conf->wmm_ac_params[2] = ac_vi;
 468              		.loc 2 242 25 is_stmt 0
 469 00dc B7050000 		lui	a1,%hi(.LANCHOR1)
 470 00e0 5146     		li	a2,20
 471 00e2 93850500 		addi	a1,a1,%lo(.LANCHOR1)
 472 00e6 1305C40D 		addi	a0,s0,220
 473 00ea 97000000 		call	memcpy
 473      E7800000 
 474              	.LVL30:
 243:C:/Users/stapi/OneDrive/Desktop/GD32VW553/V1_MQTT_OK/GD32VW55X_Wifi_BLE_SDK/GD32VW55x_RELEASE_V1.0.2/MSDK/wpa_supplicant/src/ap\ap_config.c **** 	conf->wmm_ac_params[3] = ac_vo;
 475              		.loc 2 243 2 is_stmt 1
 243:C:/Users/stapi/OneDrive/Desktop/GD32VW553/V1_MQTT_OK/GD32VW55X_Wifi_BLE_SDK/GD32VW55x_RELEASE_V1.0.2/MSDK/wpa_supplicant/src/ap\ap_config.c **** 	conf->wmm_ac_params[3] = ac_vo;
 476              		.loc 2 243 25 is_stmt 0
 477 00f2 B7050000 		lui	a1,%hi(.LANCHOR2)
 478 00f6 5146     		li	a2,20
 479 00f8 93850500 		addi	a1,a1,%lo(.LANCHOR2)
 480 00fc 1305040F 		addi	a0,s0,240
 481 0100 97000000 		call	memcpy
 481      E7800000 
 482              	.LVL31:
 244:C:/Users/stapi/OneDrive/Desktop/GD32VW553/V1_MQTT_OK/GD32VW55X_Wifi_BLE_SDK/GD32VW55x_RELEASE_V1.0.2/MSDK/wpa_supplicant/src/ap\ap_config.c **** 
 483              		.loc 2 244 2 is_stmt 1
 244:C:/Users/stapi/OneDrive/Desktop/GD32VW553/V1_MQTT_OK/GD32VW55X_Wifi_BLE_SDK/GD32VW55x_RELEASE_V1.0.2/MSDK/wpa_supplicant/src/ap\ap_config.c **** 
 484              		.loc 2 244 25 is_stmt 0
 485 0108 B7050000 		lui	a1,%hi(.LANCHOR3)
 486 010c 5146     		li	a2,20
 487 010e 93850500 		addi	a1,a1,%lo(.LANCHOR3)
 488 0112 13054410 		addi	a0,s0,260
 489 0116 97000000 		call	memcpy
 489      E7800000 
 490              	.LVL32:
 246:C:/Users/stapi/OneDrive/Desktop/GD32VW553/V1_MQTT_OK/GD32VW55X_Wifi_BLE_SDK/GD32VW55x_RELEASE_V1.0.2/MSDK/wpa_supplicant/src/ap\ap_config.c **** 	conf->tx_queue[1] = txq_vi;
 491              		.loc 2 246 2 is_stmt 1
 246:C:/Users/stapi/OneDrive/Desktop/GD32VW553/V1_MQTT_OK/GD32VW55X_Wifi_BLE_SDK/GD32VW55x_RELEASE_V1.0.2/MSDK/wpa_supplicant/src/ap\ap_config.c **** 	conf->tx_queue[1] = txq_vi;
 492              		.loc 2 246 20 is_stmt 0
 493 011e B7050000 		lui	a1,%hi(.LANCHOR4)
 494 0122 4146     		li	a2,16
 495 0124 93850500 		addi	a1,a1,%lo(.LANCHOR4)
 496 0128 13058408 		addi	a0,s0,136
 497 012c 97000000 		call	memcpy
 497      E7800000 
 498              	.LVL33:
 247:C:/Users/stapi/OneDrive/Desktop/GD32VW553/V1_MQTT_OK/GD32VW55X_Wifi_BLE_SDK/GD32VW55x_RELEASE_V1.0.2/MSDK/wpa_supplicant/src/ap\ap_config.c **** 	conf->tx_queue[2] = txq_be;
 499              		.loc 2 247 2 is_stmt 1
 247:C:/Users/stapi/OneDrive/Desktop/GD32VW553/V1_MQTT_OK/GD32VW55X_Wifi_BLE_SDK/GD32VW55x_RELEASE_V1.0.2/MSDK/wpa_supplicant/src/ap\ap_config.c **** 	conf->tx_queue[2] = txq_be;
 500              		.loc 2 247 20 is_stmt 0
 501 0134 B7050000 		lui	a1,%hi(.LANCHOR5)
 502 0138 4146     		li	a2,16
 503 013a 93850500 		addi	a1,a1,%lo(.LANCHOR5)
 504 013e 13058409 		addi	a0,s0,152
 505 0142 97000000 		call	memcpy
 505      E7800000 
 506              	.LVL34:
 248:C:/Users/stapi/OneDrive/Desktop/GD32VW553/V1_MQTT_OK/GD32VW55X_Wifi_BLE_SDK/GD32VW55x_RELEASE_V1.0.2/MSDK/wpa_supplicant/src/ap\ap_config.c **** 	conf->tx_queue[3] = txq_bk;
 507              		.loc 2 248 2 is_stmt 1
 248:C:/Users/stapi/OneDrive/Desktop/GD32VW553/V1_MQTT_OK/GD32VW55X_Wifi_BLE_SDK/GD32VW55x_RELEASE_V1.0.2/MSDK/wpa_supplicant/src/ap\ap_config.c **** 	conf->tx_queue[3] = txq_bk;
 508              		.loc 2 248 20 is_stmt 0
 509 014a B7050000 		lui	a1,%hi(.LANCHOR6)
 510 014e 4146     		li	a2,16
 511 0150 93850500 		addi	a1,a1,%lo(.LANCHOR6)
 512 0154 1305840A 		addi	a0,s0,168
 513 0158 97000000 		call	memcpy
 513      E7800000 
 514              	.LVL35:
 249:C:/Users/stapi/OneDrive/Desktop/GD32VW553/V1_MQTT_OK/GD32VW55X_Wifi_BLE_SDK/GD32VW55x_RELEASE_V1.0.2/MSDK/wpa_supplicant/src/ap\ap_config.c **** 
 515              		.loc 2 249 2 is_stmt 1
 249:C:/Users/stapi/OneDrive/Desktop/GD32VW553/V1_MQTT_OK/GD32VW55X_Wifi_BLE_SDK/GD32VW55x_RELEASE_V1.0.2/MSDK/wpa_supplicant/src/ap\ap_config.c **** 
 516              		.loc 2 249 20 is_stmt 0
 517 0160 B7050000 		lui	a1,%hi(.LANCHOR7)
 518 0164 4146     		li	a2,16
 519 0166 93850500 		addi	a1,a1,%lo(.LANCHOR7)
 520 016a 1305840B 		addi	a0,s0,184
 521 016e 97000000 		call	memcpy
 521      E7800000 
 522              	.LVL36:
 251:C:/Users/stapi/OneDrive/Desktop/GD32VW553/V1_MQTT_OK/GD32VW55X_Wifi_BLE_SDK/GD32VW55x_RELEASE_V1.0.2/MSDK/wpa_supplicant/src/ap\ap_config.c **** 
 523              		.loc 2 251 2 is_stmt 1
 251:C:/Users/stapi/OneDrive/Desktop/GD32VW553/V1_MQTT_OK/GD32VW55X_Wifi_BLE_SDK/GD32VW55x_RELEASE_V1.0.2/MSDK/wpa_supplicant/src/ap\ap_config.c **** 
 524              		.loc 2 251 17 is_stmt 0
 525 0176 B147     		li	a5,12
 526 0178 231EF410 		sh	a5,284(s0)
 253:C:/Users/stapi/OneDrive/Desktop/GD32VW553/V1_MQTT_OK/GD32VW55X_Wifi_BLE_SDK/GD32VW55x_RELEASE_V1.0.2/MSDK/wpa_supplicant/src/ap\ap_config.c **** 	conf->ap_table_expiration_time = 60;
 527              		.loc 2 253 2 is_stmt 1
 253:C:/Users/stapi/OneDrive/Desktop/GD32VW553/V1_MQTT_OK/GD32VW55X_Wifi_BLE_SDK/GD32VW55x_RELEASE_V1.0.2/MSDK/wpa_supplicant/src/ap\ap_config.c **** 	conf->ap_table_expiration_time = 60;
 528              		.loc 2 253 26 is_stmt 0
 529 017c 9307F00F 		li	a5,255
 530 0180 7CD0     		sw	a5,100(s0)
 254:C:/Users/stapi/OneDrive/Desktop/GD32VW553/V1_MQTT_OK/GD32VW55X_Wifi_BLE_SDK/GD32VW55x_RELEASE_V1.0.2/MSDK/wpa_supplicant/src/ap\ap_config.c **** 	conf->track_sta_max_age = 180;
 531              		.loc 2 254 2 is_stmt 1
 254:C:/Users/stapi/OneDrive/Desktop/GD32VW553/V1_MQTT_OK/GD32VW55X_Wifi_BLE_SDK/GD32VW55x_RELEASE_V1.0.2/MSDK/wpa_supplicant/src/ap\ap_config.c **** 	conf->track_sta_max_age = 180;
 532              		.loc 2 254 33 is_stmt 0
 533 0182 9307C003 		li	a5,60
 534 0186 3CD4     		sw	a5,104(s0)
 255:C:/Users/stapi/OneDrive/Desktop/GD32VW553/V1_MQTT_OK/GD32VW55X_Wifi_BLE_SDK/GD32VW55x_RELEASE_V1.0.2/MSDK/wpa_supplicant/src/ap\ap_config.c **** 
 535              		.loc 2 255 2 is_stmt 1
 255:C:/Users/stapi/OneDrive/Desktop/GD32VW553/V1_MQTT_OK/GD32VW55X_Wifi_BLE_SDK/GD32VW55x_RELEASE_V1.0.2/MSDK/wpa_supplicant/src/ap\ap_config.c **** 
 536              		.loc 2 255 26 is_stmt 0
 537 0188 9307400B 		li	a5,180
 538 018c 3CD8     		sw	a5,112(s0)
 266:C:/Users/stapi/OneDrive/Desktop/GD32VW553/V1_MQTT_OK/GD32VW55X_Wifi_BLE_SDK/GD32VW55x_RELEASE_V1.0.2/MSDK/wpa_supplicant/src/ap\ap_config.c **** 	conf->acs_ch_list.num = 0;
 539              		.loc 2 266 2 is_stmt 1
 273:C:/Users/stapi/OneDrive/Desktop/GD32VW553/V1_MQTT_OK/GD32VW55X_Wifi_BLE_SDK/GD32VW55x_RELEASE_V1.0.2/MSDK/wpa_supplicant/src/ap\ap_config.c **** 		HE_OPERATION_RTS_THRESHOLD_OFFSET;
 540              		.loc 2 273 31 is_stmt 0
 541 018e 9307F03F 		li	a5,1023
 542 0192 2311F416 		sh	a5,354(s0)
 276:C:/Users/stapi/OneDrive/Desktop/GD32VW553/V1_MQTT_OK/GD32VW55X_Wifi_BLE_SDK/GD32VW55x_RELEASE_V1.0.2/MSDK/wpa_supplicant/src/ap\ap_config.c **** 	conf->he_op.he_bss_color_disabled = 1;
 543              		.loc 2 276 35
 544 0196 F157     		li	a5,-4
 545 0198 2313F416 		sh	a5,358(s0)
 277:C:/Users/stapi/OneDrive/Desktop/GD32VW553/V1_MQTT_OK/GD32VW55X_Wifi_BLE_SDK/GD32VW55x_RELEASE_V1.0.2/MSDK/wpa_supplicant/src/ap\ap_config.c **** 	conf->he_op.he_bss_color_partial = 0;
 546              		.loc 2 277 36
 547 019c A30E9414 		sb	s1,349(s0)
 266:C:/Users/stapi/OneDrive/Desktop/GD32VW553/V1_MQTT_OK/GD32VW55X_Wifi_BLE_SDK/GD32VW55x_RELEASE_V1.0.2/MSDK/wpa_supplicant/src/ap\ap_config.c **** 	conf->acs_ch_list.num = 0;
 548              		.loc 2 266 12
 549 01a0 A3000402 		sb	zero,33(s0)
 267:C:/Users/stapi/OneDrive/Desktop/GD32VW553/V1_MQTT_OK/GD32VW55X_Wifi_BLE_SDK/GD32VW55x_RELEASE_V1.0.2/MSDK/wpa_supplicant/src/ap\ap_config.c **** #ifdef CONFIG_ACS
 550              		.loc 2 267 2 is_stmt 1
 267:C:/Users/stapi/OneDrive/Desktop/GD32VW553/V1_MQTT_OK/GD32VW55X_Wifi_BLE_SDK/GD32VW55x_RELEASE_V1.0.2/MSDK/wpa_supplicant/src/ap\ap_config.c **** #ifdef CONFIG_ACS
 551              		.loc 2 267 24 is_stmt 0
 552 01a4 23240402 		sw	zero,40(s0)
 273:C:/Users/stapi/OneDrive/Desktop/GD32VW553/V1_MQTT_OK/GD32VW55X_Wifi_BLE_SDK/GD32VW55x_RELEASE_V1.0.2/MSDK/wpa_supplicant/src/ap\ap_config.c **** 		HE_OPERATION_RTS_THRESHOLD_OFFSET;
 553              		.loc 2 273 2 is_stmt 1
 276:C:/Users/stapi/OneDrive/Desktop/GD32VW553/V1_MQTT_OK/GD32VW55X_Wifi_BLE_SDK/GD32VW55x_RELEASE_V1.0.2/MSDK/wpa_supplicant/src/ap\ap_config.c **** 	conf->he_op.he_bss_color_disabled = 1;
 554              		.loc 2 276 2
 277:C:/Users/stapi/OneDrive/Desktop/GD32VW553/V1_MQTT_OK/GD32VW55X_Wifi_BLE_SDK/GD32VW55x_RELEASE_V1.0.2/MSDK/wpa_supplicant/src/ap\ap_config.c **** 	conf->he_op.he_bss_color_partial = 0;
 555              		.loc 2 277 2
 278:C:/Users/stapi/OneDrive/Desktop/GD32VW553/V1_MQTT_OK/GD32VW55X_Wifi_BLE_SDK/GD32VW55x_RELEASE_V1.0.2/MSDK/wpa_supplicant/src/ap\ap_config.c **** 	conf->he_op.he_bss_color = os_random() % 63 + 1;
 556              		.loc 2 278 2
 278:C:/Users/stapi/OneDrive/Desktop/GD32VW553/V1_MQTT_OK/GD32VW55X_Wifi_BLE_SDK/GD32VW55x_RELEASE_V1.0.2/MSDK/wpa_supplicant/src/ap\ap_config.c **** 	conf->he_op.he_bss_color = os_random() % 63 + 1;
 557              		.loc 2 278 35 is_stmt 0
 558 01a8 230F0414 		sb	zero,350(s0)
 279:C:/Users/stapi/OneDrive/Desktop/GD32VW553/V1_MQTT_OK/GD32VW55X_Wifi_BLE_SDK/GD32VW55x_RELEASE_V1.0.2/MSDK/wpa_supplicant/src/ap\ap_config.c **** 	conf->he_op.he_twt_responder = 1;
 559              		.loc 2 279 2 is_stmt 1
 279:C:/Users/stapi/OneDrive/Desktop/GD32VW553/V1_MQTT_OK/GD32VW55X_Wifi_BLE_SDK/GD32VW55x_RELEASE_V1.0.2/MSDK/wpa_supplicant/src/ap\ap_config.c **** 	conf->he_op.he_twt_responder = 1;
 560              		.loc 2 279 29 is_stmt 0
 561 01ac 97000000 		call	os_random
 561      E7800000 
 562              	.LVL37:
 279:C:/Users/stapi/OneDrive/Desktop/GD32VW553/V1_MQTT_OK/GD32VW55X_Wifi_BLE_SDK/GD32VW55x_RELEASE_V1.0.2/MSDK/wpa_supplicant/src/ap\ap_config.c **** 	conf->he_op.he_twt_responder = 1;
 563              		.loc 2 279 41
 564 01b4 9307F003 		li	a5,63
 565 01b8 3375F502 		remu	a0,a0,a5
 281:C:/Users/stapi/OneDrive/Desktop/GD32VW553/V1_MQTT_OK/GD32VW55X_Wifi_BLE_SDK/GD32VW55x_RELEASE_V1.0.2/MSDK/wpa_supplicant/src/ap\ap_config.c **** 	conf->he_6ghz_max_ampdu_len_exp = 7;
 566              		.loc 2 281 25
 567 01bc B7070101 		li	a5,16842752
 280:C:/Users/stapi/OneDrive/Desktop/GD32VW553/V1_MQTT_OK/GD32VW55X_Wifi_BLE_SDK/GD32VW55x_RELEASE_V1.0.2/MSDK/wpa_supplicant/src/ap\ap_config.c **** 	conf->he_6ghz_max_mpdu = 2;
 568              		.loc 2 280 31
 569 01c0 A3009416 		sb	s1,353(s0)
 281:C:/Users/stapi/OneDrive/Desktop/GD32VW553/V1_MQTT_OK/GD32VW55X_Wifi_BLE_SDK/GD32VW55x_RELEASE_V1.0.2/MSDK/wpa_supplicant/src/ap\ap_config.c **** 	conf->he_6ghz_max_ampdu_len_exp = 7;
 570              		.loc 2 281 25
 571 01c4 13070418 		addi	a4,s0,384
 572 01c8 93872770 		addi	a5,a5,1794
 299:C:/Users/stapi/OneDrive/Desktop/GD32VW553/V1_MQTT_OK/GD32VW55X_Wifi_BLE_SDK/GD32VW55x_RELEASE_V1.0.2/MSDK/wpa_supplicant/src/ap\ap_config.c **** }
 573              		.loc 2 299 9
 574 01cc A284     		mv	s1,s0
 279:C:/Users/stapi/OneDrive/Desktop/GD32VW553/V1_MQTT_OK/GD32VW55X_Wifi_BLE_SDK/GD32VW55x_RELEASE_V1.0.2/MSDK/wpa_supplicant/src/ap\ap_config.c **** 	conf->he_op.he_twt_responder = 1;
 575              		.loc 2 279 46
 576 01ce 0505     		addi	a0,a0,1
 279:C:/Users/stapi/OneDrive/Desktop/GD32VW553/V1_MQTT_OK/GD32VW55X_Wifi_BLE_SDK/GD32VW55x_RELEASE_V1.0.2/MSDK/wpa_supplicant/src/ap\ap_config.c **** 	conf->he_op.he_twt_responder = 1;
 577              		.loc 2 279 27
 578 01d0 230EA414 		sb	a0,348(s0)
 280:C:/Users/stapi/OneDrive/Desktop/GD32VW553/V1_MQTT_OK/GD32VW55X_Wifi_BLE_SDK/GD32VW55x_RELEASE_V1.0.2/MSDK/wpa_supplicant/src/ap\ap_config.c **** 	conf->he_6ghz_max_mpdu = 2;
 579              		.loc 2 280 2 is_stmt 1
 281:C:/Users/stapi/OneDrive/Desktop/GD32VW553/V1_MQTT_OK/GD32VW55X_Wifi_BLE_SDK/GD32VW55x_RELEASE_V1.0.2/MSDK/wpa_supplicant/src/ap\ap_config.c **** 	conf->he_6ghz_max_ampdu_len_exp = 7;
 580              		.loc 2 281 2
 282:C:/Users/stapi/OneDrive/Desktop/GD32VW553/V1_MQTT_OK/GD32VW55X_Wifi_BLE_SDK/GD32VW55x_RELEASE_V1.0.2/MSDK/wpa_supplicant/src/ap\ap_config.c **** 	conf->he_6ghz_rx_ant_pat = 1;
 581              		.loc 2 282 2
 283:C:/Users/stapi/OneDrive/Desktop/GD32VW553/V1_MQTT_OK/GD32VW55X_Wifi_BLE_SDK/GD32VW55x_RELEASE_V1.0.2/MSDK/wpa_supplicant/src/ap\ap_config.c **** 	conf->he_6ghz_tx_ant_pat = 1;
 582              		.loc 2 283 2
 284:C:/Users/stapi/OneDrive/Desktop/GD32VW553/V1_MQTT_OK/GD32VW55X_Wifi_BLE_SDK/GD32VW55x_RELEASE_V1.0.2/MSDK/wpa_supplicant/src/ap\ap_config.c **** #endif /* CONFIG_IEEE80211AX */
 583              		.loc 2 284 2
 281:C:/Users/stapi/OneDrive/Desktop/GD32VW553/V1_MQTT_OK/GD32VW55X_Wifi_BLE_SDK/GD32VW55x_RELEASE_V1.0.2/MSDK/wpa_supplicant/src/ap\ap_config.c **** 	conf->he_6ghz_max_ampdu_len_exp = 7;
 584              		.loc 2 281 25 is_stmt 0
 585 01d4 5CC7     		sw	a5,12(a4)
 290:C:/Users/stapi/OneDrive/Desktop/GD32VW553/V1_MQTT_OK/GD32VW55X_Wifi_BLE_SDK/GD32VW55x_RELEASE_V1.0.2/MSDK/wpa_supplicant/src/ap\ap_config.c **** 
 586              		.loc 2 290 2 is_stmt 1
 290:C:/Users/stapi/OneDrive/Desktop/GD32VW553/V1_MQTT_OK/GD32VW55X_Wifi_BLE_SDK/GD32VW55x_RELEASE_V1.0.2/MSDK/wpa_supplicant/src/ap\ap_config.c **** 
 587              		.loc 2 290 19 is_stmt 0
 588 01d6 93070002 		li	a5,32
 589 01da 230BF406 		sb	a5,118(s0)
 292:C:/Users/stapi/OneDrive/Desktop/GD32VW553/V1_MQTT_OK/GD32VW55X_Wifi_BLE_SDK/GD32VW55x_RELEASE_V1.0.2/MSDK/wpa_supplicant/src/ap\ap_config.c **** 	conf->rssi_reject_assoc_timeout = 30;
 590              		.loc 2 292 2 is_stmt 1
 292:C:/Users/stapi/OneDrive/Desktop/GD32VW553/V1_MQTT_OK/GD32VW55X_Wifi_BLE_SDK/GD32VW55x_RELEASE_V1.0.2/MSDK/wpa_supplicant/src/ap\ap_config.c **** 	conf->rssi_reject_assoc_timeout = 30;
 591              		.loc 2 292 31 is_stmt 0
 592 01de 232C0418 		sw	zero,408(s0)
 293:C:/Users/stapi/OneDrive/Desktop/GD32VW553/V1_MQTT_OK/GD32VW55X_Wifi_BLE_SDK/GD32VW55x_RELEASE_V1.0.2/MSDK/wpa_supplicant/src/ap\ap_config.c **** 
 593              		.loc 2 293 2 is_stmt 1
 293:C:/Users/stapi/OneDrive/Desktop/GD32VW553/V1_MQTT_OK/GD32VW55X_Wifi_BLE_SDK/GD32VW55x_RELEASE_V1.0.2/MSDK/wpa_supplicant/src/ap\ap_config.c **** 
 594              		.loc 2 293 34 is_stmt 0
 595 01e2 F947     		li	a5,30
 596 01e4 5CCF     		sw	a5,28(a4)
 299:C:/Users/stapi/OneDrive/Desktop/GD32VW553/V1_MQTT_OK/GD32VW55X_Wifi_BLE_SDK/GD32VW55x_RELEASE_V1.0.2/MSDK/wpa_supplicant/src/ap\ap_config.c **** }
 597              		.loc 2 299 2 is_stmt 1
 299:C:/Users/stapi/OneDrive/Desktop/GD32VW553/V1_MQTT_OK/GD32VW55X_Wifi_BLE_SDK/GD32VW55x_RELEASE_V1.0.2/MSDK/wpa_supplicant/src/ap\ap_config.c **** }
 598              		.loc 2 299 9 is_stmt 0
 599 01e6 ADB5     		j	.L7
 600              		.cfi_endproc
 601              	.LFE139:
 603              		.section	.text.hostapd_mac_comp,"ax",@progbits
 604              		.align	1
 605              		.globl	hostapd_mac_comp
 607              	hostapd_mac_comp:
 608              	.LFB140:
 304:C:/Users/stapi/OneDrive/Desktop/GD32VW553/V1_MQTT_OK/GD32VW55X_Wifi_BLE_SDK/GD32VW55x_RELEASE_V1.0.2/MSDK/wpa_supplicant/src/ap\ap_config.c **** 	return os_memcmp(a, b, sizeof(macaddr));
 609              		.loc 2 304 1 is_stmt 1
 610              		.cfi_startproc
 611              	.LVL38:
 305:C:/Users/stapi/OneDrive/Desktop/GD32VW553/V1_MQTT_OK/GD32VW55X_Wifi_BLE_SDK/GD32VW55x_RELEASE_V1.0.2/MSDK/wpa_supplicant/src/ap\ap_config.c **** }
 612              		.loc 2 305 2
 305:C:/Users/stapi/OneDrive/Desktop/GD32VW553/V1_MQTT_OK/GD32VW55X_Wifi_BLE_SDK/GD32VW55x_RELEASE_V1.0.2/MSDK/wpa_supplicant/src/ap\ap_config.c **** }
 613              		.loc 2 305 9 is_stmt 0
 614 0000 1946     		li	a2,6
 615 0002 17030000 		tail	os_memcmp
 615      67000300 
 616              	.LVL39:
 617              		.cfi_endproc
 618              	.LFE140:
 620              		.section	.text.hostapd_config_get_radius_attr,"ax",@progbits
 621              		.align	1
 622              		.globl	hostapd_config_get_radius_attr
 624              	hostapd_config_get_radius_attr:
 625              	.LFB146:
 550:C:/Users/stapi/OneDrive/Desktop/GD32VW553/V1_MQTT_OK/GD32VW55X_Wifi_BLE_SDK/GD32VW55x_RELEASE_V1.0.2/MSDK/wpa_supplicant/src/ap\ap_config.c **** 
 551:C:/Users/stapi/OneDrive/Desktop/GD32VW553/V1_MQTT_OK/GD32VW55X_Wifi_BLE_SDK/GD32VW55x_RELEASE_V1.0.2/MSDK/wpa_supplicant/src/ap\ap_config.c **** 
 552:C:/Users/stapi/OneDrive/Desktop/GD32VW553/V1_MQTT_OK/GD32VW55X_Wifi_BLE_SDK/GD32VW55x_RELEASE_V1.0.2/MSDK/wpa_supplicant/src/ap\ap_config.c **** struct hostapd_radius_attr *
 553:C:/Users/stapi/OneDrive/Desktop/GD32VW553/V1_MQTT_OK/GD32VW55X_Wifi_BLE_SDK/GD32VW55x_RELEASE_V1.0.2/MSDK/wpa_supplicant/src/ap\ap_config.c **** hostapd_config_get_radius_attr(struct hostapd_radius_attr *attr, u8 type)
 554:C:/Users/stapi/OneDrive/Desktop/GD32VW553/V1_MQTT_OK/GD32VW55X_Wifi_BLE_SDK/GD32VW55x_RELEASE_V1.0.2/MSDK/wpa_supplicant/src/ap\ap_config.c **** {
 626              		.loc 2 554 1 is_stmt 1
 627              		.cfi_startproc
 628              	.LVL40:
 555:C:/Users/stapi/OneDrive/Desktop/GD32VW553/V1_MQTT_OK/GD32VW55X_Wifi_BLE_SDK/GD32VW55x_RELEASE_V1.0.2/MSDK/wpa_supplicant/src/ap\ap_config.c **** 	for (; attr; attr = attr->next) {
 629              		.loc 2 555 2
 630              	.L21:
 631              		.loc 2 555 9 discriminator 1
 632              		.loc 2 555 2 is_stmt 0 discriminator 1
 633 0000 11E1     		bne	a0,zero,.L23
 634              	.L20:
 556:C:/Users/stapi/OneDrive/Desktop/GD32VW553/V1_MQTT_OK/GD32VW55X_Wifi_BLE_SDK/GD32VW55x_RELEASE_V1.0.2/MSDK/wpa_supplicant/src/ap\ap_config.c **** 		if (attr->type == type)
 557:C:/Users/stapi/OneDrive/Desktop/GD32VW553/V1_MQTT_OK/GD32VW55X_Wifi_BLE_SDK/GD32VW55x_RELEASE_V1.0.2/MSDK/wpa_supplicant/src/ap\ap_config.c **** 			return attr;
 558:C:/Users/stapi/OneDrive/Desktop/GD32VW553/V1_MQTT_OK/GD32VW55X_Wifi_BLE_SDK/GD32VW55x_RELEASE_V1.0.2/MSDK/wpa_supplicant/src/ap\ap_config.c **** 	}
 559:C:/Users/stapi/OneDrive/Desktop/GD32VW553/V1_MQTT_OK/GD32VW55X_Wifi_BLE_SDK/GD32VW55x_RELEASE_V1.0.2/MSDK/wpa_supplicant/src/ap\ap_config.c **** 	return NULL;
 560:C:/Users/stapi/OneDrive/Desktop/GD32VW553/V1_MQTT_OK/GD32VW55X_Wifi_BLE_SDK/GD32VW55x_RELEASE_V1.0.2/MSDK/wpa_supplicant/src/ap\ap_config.c **** }
 635              		.loc 2 560 1
 636 0002 8280     		ret
 637              	.L23:
 556:C:/Users/stapi/OneDrive/Desktop/GD32VW553/V1_MQTT_OK/GD32VW55X_Wifi_BLE_SDK/GD32VW55x_RELEASE_V1.0.2/MSDK/wpa_supplicant/src/ap\ap_config.c **** 		if (attr->type == type)
 638              		.loc 2 556 3 is_stmt 1
 556:C:/Users/stapi/OneDrive/Desktop/GD32VW553/V1_MQTT_OK/GD32VW55X_Wifi_BLE_SDK/GD32VW55x_RELEASE_V1.0.2/MSDK/wpa_supplicant/src/ap\ap_config.c **** 		if (attr->type == type)
 639              		.loc 2 556 6 is_stmt 0
 640 0004 83470500 		lbu	a5,0(a0)
 641 0008 E38DB7FE 		beq	a5,a1,.L20
 555:C:/Users/stapi/OneDrive/Desktop/GD32VW553/V1_MQTT_OK/GD32VW55X_Wifi_BLE_SDK/GD32VW55x_RELEASE_V1.0.2/MSDK/wpa_supplicant/src/ap\ap_config.c **** 	for (; attr; attr = attr->next) {
 642              		.loc 2 555 15 is_stmt 1
 555:C:/Users/stapi/OneDrive/Desktop/GD32VW553/V1_MQTT_OK/GD32VW55X_Wifi_BLE_SDK/GD32VW55x_RELEASE_V1.0.2/MSDK/wpa_supplicant/src/ap\ap_config.c **** 	for (; attr; attr = attr->next) {
 643              		.loc 2 555 20 is_stmt 0
 644 000c 0845     		lw	a0,8(a0)
 645              	.LVL41:
 646 000e CDBF     		j	.L21
 647              		.cfi_endproc
 648              	.LFE146:
 650              		.section	.text.hostapd_parse_radius_attr,"ax",@progbits
 651              		.align	1
 652              		.globl	hostapd_parse_radius_attr
 654              	hostapd_parse_radius_attr:
 655              	.LFB147:
 561:C:/Users/stapi/OneDrive/Desktop/GD32VW553/V1_MQTT_OK/GD32VW55X_Wifi_BLE_SDK/GD32VW55x_RELEASE_V1.0.2/MSDK/wpa_supplicant/src/ap\ap_config.c **** 
 562:C:/Users/stapi/OneDrive/Desktop/GD32VW553/V1_MQTT_OK/GD32VW55X_Wifi_BLE_SDK/GD32VW55x_RELEASE_V1.0.2/MSDK/wpa_supplicant/src/ap\ap_config.c **** 
 563:C:/Users/stapi/OneDrive/Desktop/GD32VW553/V1_MQTT_OK/GD32VW55X_Wifi_BLE_SDK/GD32VW55x_RELEASE_V1.0.2/MSDK/wpa_supplicant/src/ap\ap_config.c **** struct hostapd_radius_attr * hostapd_parse_radius_attr(const char *value)
 564:C:/Users/stapi/OneDrive/Desktop/GD32VW553/V1_MQTT_OK/GD32VW55X_Wifi_BLE_SDK/GD32VW55x_RELEASE_V1.0.2/MSDK/wpa_supplicant/src/ap\ap_config.c **** {
 656              		.loc 2 564 1 is_stmt 1
 657              		.cfi_startproc
 658              	.LVL42:
 659 0000 17030000 		call	t0,__riscv_save_3
 659      E7020300 
 660              		.cfi_offset 18, -16
 661              		.cfi_offset 9, -12
 662              		.cfi_offset 8, -8
 663              		.cfi_offset 1, -4
 664              		.cfi_def_cfa_offset 16
 565:C:/Users/stapi/OneDrive/Desktop/GD32VW553/V1_MQTT_OK/GD32VW55X_Wifi_BLE_SDK/GD32VW55x_RELEASE_V1.0.2/MSDK/wpa_supplicant/src/ap\ap_config.c **** 	const char *pos;
 665              		.loc 2 565 2
 566:C:/Users/stapi/OneDrive/Desktop/GD32VW553/V1_MQTT_OK/GD32VW55X_Wifi_BLE_SDK/GD32VW55x_RELEASE_V1.0.2/MSDK/wpa_supplicant/src/ap\ap_config.c **** 	char syntax;
 666              		.loc 2 566 2
 567:C:/Users/stapi/OneDrive/Desktop/GD32VW553/V1_MQTT_OK/GD32VW55X_Wifi_BLE_SDK/GD32VW55x_RELEASE_V1.0.2/MSDK/wpa_supplicant/src/ap\ap_config.c **** 	struct hostapd_radius_attr *attr;
 667              		.loc 2 567 2
 568:C:/Users/stapi/OneDrive/Desktop/GD32VW553/V1_MQTT_OK/GD32VW55X_Wifi_BLE_SDK/GD32VW55x_RELEASE_V1.0.2/MSDK/wpa_supplicant/src/ap\ap_config.c **** 	size_t len;
 668              		.loc 2 568 2
 569:C:/Users/stapi/OneDrive/Desktop/GD32VW553/V1_MQTT_OK/GD32VW55X_Wifi_BLE_SDK/GD32VW55x_RELEASE_V1.0.2/MSDK/wpa_supplicant/src/ap\ap_config.c **** 
 570:C:/Users/stapi/OneDrive/Desktop/GD32VW553/V1_MQTT_OK/GD32VW55X_Wifi_BLE_SDK/GD32VW55x_RELEASE_V1.0.2/MSDK/wpa_supplicant/src/ap\ap_config.c **** 	attr = os_zalloc(sizeof(*attr));
 669              		.loc 2 570 2
 564:C:/Users/stapi/OneDrive/Desktop/GD32VW553/V1_MQTT_OK/GD32VW55X_Wifi_BLE_SDK/GD32VW55x_RELEASE_V1.0.2/MSDK/wpa_supplicant/src/ap\ap_config.c **** 	const char *pos;
 670              		.loc 2 564 1 is_stmt 0
 671 0008 AA84     		mv	s1,a0
 672              		.loc 2 570 9
 673 000a 3145     		li	a0,12
 674              	.LVL43:
 675 000c 97000000 		call	os_zalloc
 675      E7800000 
 676              	.LVL44:
 677 0014 2A84     		mv	s0,a0
 678              	.LVL45:
 571:C:/Users/stapi/OneDrive/Desktop/GD32VW553/V1_MQTT_OK/GD32VW55X_Wifi_BLE_SDK/GD32VW55x_RELEASE_V1.0.2/MSDK/wpa_supplicant/src/ap\ap_config.c **** 	if (!attr)
 679              		.loc 2 571 2 is_stmt 1
 680              		.loc 2 571 5 is_stmt 0
 681 0016 29C5     		beq	a0,zero,.L24
 572:C:/Users/stapi/OneDrive/Desktop/GD32VW553/V1_MQTT_OK/GD32VW55X_Wifi_BLE_SDK/GD32VW55x_RELEASE_V1.0.2/MSDK/wpa_supplicant/src/ap\ap_config.c **** 		return NULL;
 573:C:/Users/stapi/OneDrive/Desktop/GD32VW553/V1_MQTT_OK/GD32VW55X_Wifi_BLE_SDK/GD32VW55x_RELEASE_V1.0.2/MSDK/wpa_supplicant/src/ap\ap_config.c **** 
 574:C:/Users/stapi/OneDrive/Desktop/GD32VW553/V1_MQTT_OK/GD32VW55X_Wifi_BLE_SDK/GD32VW55x_RELEASE_V1.0.2/MSDK/wpa_supplicant/src/ap\ap_config.c **** 	attr->type = atoi(value);
 682              		.loc 2 574 2 is_stmt 1
 683              		.loc 2 574 15 is_stmt 0
 684 0018 2685     		mv	a0,s1
 685 001a 97000000 		call	atoi
 685      E7800000 
 686              	.LVL46:
 687              		.loc 2 574 13
 688 0022 2300A400 		sb	a0,0(s0)
 575:C:/Users/stapi/OneDrive/Desktop/GD32VW553/V1_MQTT_OK/GD32VW55X_Wifi_BLE_SDK/GD32VW55x_RELEASE_V1.0.2/MSDK/wpa_supplicant/src/ap\ap_config.c **** 
 576:C:/Users/stapi/OneDrive/Desktop/GD32VW553/V1_MQTT_OK/GD32VW55X_Wifi_BLE_SDK/GD32VW55x_RELEASE_V1.0.2/MSDK/wpa_supplicant/src/ap\ap_config.c **** 	pos = os_strchr(value, ':');
 689              		.loc 2 576 2 is_stmt 1
 690              		.loc 2 576 8 is_stmt 0
 691 0026 9305A003 		li	a1,58
 692 002a 2685     		mv	a0,s1
 693 002c 97000000 		call	os_strchr
 693      E7800000 
 694              	.LVL47:
 577:C:/Users/stapi/OneDrive/Desktop/GD32VW553/V1_MQTT_OK/GD32VW55X_Wifi_BLE_SDK/GD32VW55x_RELEASE_V1.0.2/MSDK/wpa_supplicant/src/ap\ap_config.c **** 	if (!pos) {
 695              		.loc 2 577 2 is_stmt 1
 696              		.loc 2 577 5 is_stmt 0
 697 0034 1DE9     		bne	a0,zero,.L26
 578:C:/Users/stapi/OneDrive/Desktop/GD32VW553/V1_MQTT_OK/GD32VW55X_Wifi_BLE_SDK/GD32VW55x_RELEASE_V1.0.2/MSDK/wpa_supplicant/src/ap\ap_config.c **** 		attr->val = wpabuf_alloc(1);
 698              		.loc 2 578 3 is_stmt 1
 699              		.loc 2 578 15 is_stmt 0
 700 0036 0545     		li	a0,1
 701              	.LVL48:
 702 0038 97000000 		call	wpabuf_alloc
 702      E7800000 
 703              	.LVL49:
 704              		.loc 2 578 13
 705 0040 48C0     		sw	a0,4(s0)
 579:C:/Users/stapi/OneDrive/Desktop/GD32VW553/V1_MQTT_OK/GD32VW55X_Wifi_BLE_SDK/GD32VW55x_RELEASE_V1.0.2/MSDK/wpa_supplicant/src/ap\ap_config.c **** 		if (!attr->val) {
 706              		.loc 2 579 3 is_stmt 1
 707              		.loc 2 579 6 is_stmt 0
 708 0042 01E9     		bne	a0,zero,.L27
 709              	.LVL50:
 710              	.L37:
 580:C:/Users/stapi/OneDrive/Desktop/GD32VW553/V1_MQTT_OK/GD32VW55X_Wifi_BLE_SDK/GD32VW55x_RELEASE_V1.0.2/MSDK/wpa_supplicant/src/ap\ap_config.c **** 			os_free(attr);
 581:C:/Users/stapi/OneDrive/Desktop/GD32VW553/V1_MQTT_OK/GD32VW55X_Wifi_BLE_SDK/GD32VW55x_RELEASE_V1.0.2/MSDK/wpa_supplicant/src/ap\ap_config.c **** 			return NULL;
 582:C:/Users/stapi/OneDrive/Desktop/GD32VW553/V1_MQTT_OK/GD32VW55X_Wifi_BLE_SDK/GD32VW55x_RELEASE_V1.0.2/MSDK/wpa_supplicant/src/ap\ap_config.c **** 		}
 583:C:/Users/stapi/OneDrive/Desktop/GD32VW553/V1_MQTT_OK/GD32VW55X_Wifi_BLE_SDK/GD32VW55x_RELEASE_V1.0.2/MSDK/wpa_supplicant/src/ap\ap_config.c **** 		wpabuf_put_u8(attr->val, 0);
 584:C:/Users/stapi/OneDrive/Desktop/GD32VW553/V1_MQTT_OK/GD32VW55X_Wifi_BLE_SDK/GD32VW55x_RELEASE_V1.0.2/MSDK/wpa_supplicant/src/ap\ap_config.c **** 		return attr;
 585:C:/Users/stapi/OneDrive/Desktop/GD32VW553/V1_MQTT_OK/GD32VW55X_Wifi_BLE_SDK/GD32VW55x_RELEASE_V1.0.2/MSDK/wpa_supplicant/src/ap\ap_config.c **** 	}
 586:C:/Users/stapi/OneDrive/Desktop/GD32VW553/V1_MQTT_OK/GD32VW55X_Wifi_BLE_SDK/GD32VW55x_RELEASE_V1.0.2/MSDK/wpa_supplicant/src/ap\ap_config.c **** 
 587:C:/Users/stapi/OneDrive/Desktop/GD32VW553/V1_MQTT_OK/GD32VW55X_Wifi_BLE_SDK/GD32VW55x_RELEASE_V1.0.2/MSDK/wpa_supplicant/src/ap\ap_config.c **** 	pos++;
 588:C:/Users/stapi/OneDrive/Desktop/GD32VW553/V1_MQTT_OK/GD32VW55X_Wifi_BLE_SDK/GD32VW55x_RELEASE_V1.0.2/MSDK/wpa_supplicant/src/ap\ap_config.c **** 	if (pos[0] == '\0' || pos[1] != ':') {
 589:C:/Users/stapi/OneDrive/Desktop/GD32VW553/V1_MQTT_OK/GD32VW55X_Wifi_BLE_SDK/GD32VW55x_RELEASE_V1.0.2/MSDK/wpa_supplicant/src/ap\ap_config.c **** 		os_free(attr);
 590:C:/Users/stapi/OneDrive/Desktop/GD32VW553/V1_MQTT_OK/GD32VW55X_Wifi_BLE_SDK/GD32VW55x_RELEASE_V1.0.2/MSDK/wpa_supplicant/src/ap\ap_config.c **** 		return NULL;
 591:C:/Users/stapi/OneDrive/Desktop/GD32VW553/V1_MQTT_OK/GD32VW55X_Wifi_BLE_SDK/GD32VW55x_RELEASE_V1.0.2/MSDK/wpa_supplicant/src/ap\ap_config.c **** 	}
 592:C:/Users/stapi/OneDrive/Desktop/GD32VW553/V1_MQTT_OK/GD32VW55X_Wifi_BLE_SDK/GD32VW55x_RELEASE_V1.0.2/MSDK/wpa_supplicant/src/ap\ap_config.c **** 	syntax = *pos++;
 593:C:/Users/stapi/OneDrive/Desktop/GD32VW553/V1_MQTT_OK/GD32VW55X_Wifi_BLE_SDK/GD32VW55x_RELEASE_V1.0.2/MSDK/wpa_supplicant/src/ap\ap_config.c **** 	pos++;
 594:C:/Users/stapi/OneDrive/Desktop/GD32VW553/V1_MQTT_OK/GD32VW55X_Wifi_BLE_SDK/GD32VW55x_RELEASE_V1.0.2/MSDK/wpa_supplicant/src/ap\ap_config.c **** 
 595:C:/Users/stapi/OneDrive/Desktop/GD32VW553/V1_MQTT_OK/GD32VW55X_Wifi_BLE_SDK/GD32VW55x_RELEASE_V1.0.2/MSDK/wpa_supplicant/src/ap\ap_config.c **** 	switch (syntax) {
 596:C:/Users/stapi/OneDrive/Desktop/GD32VW553/V1_MQTT_OK/GD32VW55X_Wifi_BLE_SDK/GD32VW55x_RELEASE_V1.0.2/MSDK/wpa_supplicant/src/ap\ap_config.c **** 	case 's':
 597:C:/Users/stapi/OneDrive/Desktop/GD32VW553/V1_MQTT_OK/GD32VW55X_Wifi_BLE_SDK/GD32VW55x_RELEASE_V1.0.2/MSDK/wpa_supplicant/src/ap\ap_config.c **** 		attr->val = wpabuf_alloc_copy(pos, os_strlen(pos));
 598:C:/Users/stapi/OneDrive/Desktop/GD32VW553/V1_MQTT_OK/GD32VW55X_Wifi_BLE_SDK/GD32VW55x_RELEASE_V1.0.2/MSDK/wpa_supplicant/src/ap\ap_config.c **** 		break;
 599:C:/Users/stapi/OneDrive/Desktop/GD32VW553/V1_MQTT_OK/GD32VW55X_Wifi_BLE_SDK/GD32VW55x_RELEASE_V1.0.2/MSDK/wpa_supplicant/src/ap\ap_config.c **** 	case 'x':
 600:C:/Users/stapi/OneDrive/Desktop/GD32VW553/V1_MQTT_OK/GD32VW55X_Wifi_BLE_SDK/GD32VW55x_RELEASE_V1.0.2/MSDK/wpa_supplicant/src/ap\ap_config.c **** 		len = os_strlen(pos);
 601:C:/Users/stapi/OneDrive/Desktop/GD32VW553/V1_MQTT_OK/GD32VW55X_Wifi_BLE_SDK/GD32VW55x_RELEASE_V1.0.2/MSDK/wpa_supplicant/src/ap\ap_config.c **** 		if (len & 1)
 602:C:/Users/stapi/OneDrive/Desktop/GD32VW553/V1_MQTT_OK/GD32VW55X_Wifi_BLE_SDK/GD32VW55x_RELEASE_V1.0.2/MSDK/wpa_supplicant/src/ap\ap_config.c **** 			break;
 603:C:/Users/stapi/OneDrive/Desktop/GD32VW553/V1_MQTT_OK/GD32VW55X_Wifi_BLE_SDK/GD32VW55x_RELEASE_V1.0.2/MSDK/wpa_supplicant/src/ap\ap_config.c **** 		len /= 2;
 604:C:/Users/stapi/OneDrive/Desktop/GD32VW553/V1_MQTT_OK/GD32VW55X_Wifi_BLE_SDK/GD32VW55x_RELEASE_V1.0.2/MSDK/wpa_supplicant/src/ap\ap_config.c **** 		attr->val = wpabuf_alloc(len);
 605:C:/Users/stapi/OneDrive/Desktop/GD32VW553/V1_MQTT_OK/GD32VW55X_Wifi_BLE_SDK/GD32VW55x_RELEASE_V1.0.2/MSDK/wpa_supplicant/src/ap\ap_config.c **** 		if (!attr->val)
 606:C:/Users/stapi/OneDrive/Desktop/GD32VW553/V1_MQTT_OK/GD32VW55X_Wifi_BLE_SDK/GD32VW55x_RELEASE_V1.0.2/MSDK/wpa_supplicant/src/ap\ap_config.c **** 			break;
 607:C:/Users/stapi/OneDrive/Desktop/GD32VW553/V1_MQTT_OK/GD32VW55X_Wifi_BLE_SDK/GD32VW55x_RELEASE_V1.0.2/MSDK/wpa_supplicant/src/ap\ap_config.c **** 		if (hexstr2bin(pos, wpabuf_put(attr->val, len), len) < 0) {
 608:C:/Users/stapi/OneDrive/Desktop/GD32VW553/V1_MQTT_OK/GD32VW55X_Wifi_BLE_SDK/GD32VW55x_RELEASE_V1.0.2/MSDK/wpa_supplicant/src/ap\ap_config.c **** 			wpabuf_free(attr->val);
 609:C:/Users/stapi/OneDrive/Desktop/GD32VW553/V1_MQTT_OK/GD32VW55X_Wifi_BLE_SDK/GD32VW55x_RELEASE_V1.0.2/MSDK/wpa_supplicant/src/ap\ap_config.c **** 			os_free(attr);
 610:C:/Users/stapi/OneDrive/Desktop/GD32VW553/V1_MQTT_OK/GD32VW55X_Wifi_BLE_SDK/GD32VW55x_RELEASE_V1.0.2/MSDK/wpa_supplicant/src/ap\ap_config.c **** 			return NULL;
 611:C:/Users/stapi/OneDrive/Desktop/GD32VW553/V1_MQTT_OK/GD32VW55X_Wifi_BLE_SDK/GD32VW55x_RELEASE_V1.0.2/MSDK/wpa_supplicant/src/ap\ap_config.c **** 		}
 612:C:/Users/stapi/OneDrive/Desktop/GD32VW553/V1_MQTT_OK/GD32VW55X_Wifi_BLE_SDK/GD32VW55x_RELEASE_V1.0.2/MSDK/wpa_supplicant/src/ap\ap_config.c **** 		break;
 613:C:/Users/stapi/OneDrive/Desktop/GD32VW553/V1_MQTT_OK/GD32VW55X_Wifi_BLE_SDK/GD32VW55x_RELEASE_V1.0.2/MSDK/wpa_supplicant/src/ap\ap_config.c **** 	case 'd':
 614:C:/Users/stapi/OneDrive/Desktop/GD32VW553/V1_MQTT_OK/GD32VW55X_Wifi_BLE_SDK/GD32VW55x_RELEASE_V1.0.2/MSDK/wpa_supplicant/src/ap\ap_config.c **** 		attr->val = wpabuf_alloc(4);
 615:C:/Users/stapi/OneDrive/Desktop/GD32VW553/V1_MQTT_OK/GD32VW55X_Wifi_BLE_SDK/GD32VW55x_RELEASE_V1.0.2/MSDK/wpa_supplicant/src/ap\ap_config.c **** 		if (attr->val)
 616:C:/Users/stapi/OneDrive/Desktop/GD32VW553/V1_MQTT_OK/GD32VW55X_Wifi_BLE_SDK/GD32VW55x_RELEASE_V1.0.2/MSDK/wpa_supplicant/src/ap\ap_config.c **** 			wpabuf_put_be32(attr->val, atoi(pos));
 617:C:/Users/stapi/OneDrive/Desktop/GD32VW553/V1_MQTT_OK/GD32VW55X_Wifi_BLE_SDK/GD32VW55x_RELEASE_V1.0.2/MSDK/wpa_supplicant/src/ap\ap_config.c **** 		break;
 618:C:/Users/stapi/OneDrive/Desktop/GD32VW553/V1_MQTT_OK/GD32VW55X_Wifi_BLE_SDK/GD32VW55x_RELEASE_V1.0.2/MSDK/wpa_supplicant/src/ap\ap_config.c **** 	default:
 619:C:/Users/stapi/OneDrive/Desktop/GD32VW553/V1_MQTT_OK/GD32VW55X_Wifi_BLE_SDK/GD32VW55x_RELEASE_V1.0.2/MSDK/wpa_supplicant/src/ap\ap_config.c **** 		os_free(attr);
 620:C:/Users/stapi/OneDrive/Desktop/GD32VW553/V1_MQTT_OK/GD32VW55X_Wifi_BLE_SDK/GD32VW55x_RELEASE_V1.0.2/MSDK/wpa_supplicant/src/ap\ap_config.c **** 		return NULL;
 621:C:/Users/stapi/OneDrive/Desktop/GD32VW553/V1_MQTT_OK/GD32VW55X_Wifi_BLE_SDK/GD32VW55x_RELEASE_V1.0.2/MSDK/wpa_supplicant/src/ap\ap_config.c **** 	}
 622:C:/Users/stapi/OneDrive/Desktop/GD32VW553/V1_MQTT_OK/GD32VW55X_Wifi_BLE_SDK/GD32VW55x_RELEASE_V1.0.2/MSDK/wpa_supplicant/src/ap\ap_config.c **** 
 623:C:/Users/stapi/OneDrive/Desktop/GD32VW553/V1_MQTT_OK/GD32VW55X_Wifi_BLE_SDK/GD32VW55x_RELEASE_V1.0.2/MSDK/wpa_supplicant/src/ap\ap_config.c **** 	if (!attr->val) {
 711              		.loc 2 623 2 is_stmt 1
 624:C:/Users/stapi/OneDrive/Desktop/GD32VW553/V1_MQTT_OK/GD32VW55X_Wifi_BLE_SDK/GD32VW55x_RELEASE_V1.0.2/MSDK/wpa_supplicant/src/ap\ap_config.c **** 		os_free(attr);
 712              		.loc 2 624 3
 713 0044 2285     		mv	a0,s0
 714 0046 97000000 		call	os_free
 714      E7800000 
 715              	.LVL51:
 625:C:/Users/stapi/OneDrive/Desktop/GD32VW553/V1_MQTT_OK/GD32VW55X_Wifi_BLE_SDK/GD32VW55x_RELEASE_V1.0.2/MSDK/wpa_supplicant/src/ap\ap_config.c **** 		return NULL;
 716              		.loc 2 625 3
 717              		.loc 2 625 10 is_stmt 0
 718 004e 0144     		li	s0,0
 719              	.LVL52:
 720 0050 01A8     		j	.L24
 721              	.LVL53:
 722              	.L27:
 583:C:/Users/stapi/OneDrive/Desktop/GD32VW553/V1_MQTT_OK/GD32VW55X_Wifi_BLE_SDK/GD32VW55x_RELEASE_V1.0.2/MSDK/wpa_supplicant/src/ap\ap_config.c **** 		return attr;
 723              		.loc 2 583 3 is_stmt 1
 724              	.LBB32:
 725              	.LBB33:
 726              		.file 5 "..\\..\\..\\..\\wpa_supplicant\\src/utils/wpabuf.h"
   1:..\..\..\..\wpa_supplicant\src/utils/wpabuf.h **** /*
   2:..\..\..\..\wpa_supplicant\src/utils/wpabuf.h ****  * Dynamic data buffer
   3:..\..\..\..\wpa_supplicant\src/utils/wpabuf.h ****  * Copyright (c) 2007-2012, Jouni Malinen <j@w1.fi>
   4:..\..\..\..\wpa_supplicant\src/utils/wpabuf.h ****  *
   5:..\..\..\..\wpa_supplicant\src/utils/wpabuf.h ****  * This software may be distributed under the terms of the BSD license.
   6:..\..\..\..\wpa_supplicant\src/utils/wpabuf.h ****  * See README for more details.
   7:..\..\..\..\wpa_supplicant\src/utils/wpabuf.h ****  */
   8:..\..\..\..\wpa_supplicant\src/utils/wpabuf.h **** 
   9:..\..\..\..\wpa_supplicant\src/utils/wpabuf.h **** #ifndef WPABUF_H
  10:..\..\..\..\wpa_supplicant\src/utils/wpabuf.h **** #define WPABUF_H
  11:..\..\..\..\wpa_supplicant\src/utils/wpabuf.h **** 
  12:..\..\..\..\wpa_supplicant\src/utils/wpabuf.h **** /* wpabuf::buf is a pointer to external data */
  13:..\..\..\..\wpa_supplicant\src/utils/wpabuf.h **** #define WPABUF_FLAG_EXT_DATA BIT(0)
  14:..\..\..\..\wpa_supplicant\src/utils/wpabuf.h **** 
  15:..\..\..\..\wpa_supplicant\src/utils/wpabuf.h **** /*
  16:..\..\..\..\wpa_supplicant\src/utils/wpabuf.h ****  * Internal data structure for wpabuf. Please do not touch this directly from
  17:..\..\..\..\wpa_supplicant\src/utils/wpabuf.h ****  * elsewhere. This is only defined in header file to allow inline functions
  18:..\..\..\..\wpa_supplicant\src/utils/wpabuf.h ****  * from this file to access data.
  19:..\..\..\..\wpa_supplicant\src/utils/wpabuf.h ****  */
  20:..\..\..\..\wpa_supplicant\src/utils/wpabuf.h **** struct wpabuf {
  21:..\..\..\..\wpa_supplicant\src/utils/wpabuf.h **** 	size_t size; /* total size of the allocated buffer */
  22:..\..\..\..\wpa_supplicant\src/utils/wpabuf.h **** 	size_t used; /* length of data in the buffer */
  23:..\..\..\..\wpa_supplicant\src/utils/wpabuf.h **** 	u8 *buf; /* pointer to the head of the buffer */
  24:..\..\..\..\wpa_supplicant\src/utils/wpabuf.h **** 	unsigned int flags;
  25:..\..\..\..\wpa_supplicant\src/utils/wpabuf.h **** 	/* optionally followed by the allocated buffer */
  26:..\..\..\..\wpa_supplicant\src/utils/wpabuf.h **** };
  27:..\..\..\..\wpa_supplicant\src/utils/wpabuf.h **** 
  28:..\..\..\..\wpa_supplicant\src/utils/wpabuf.h **** 
  29:..\..\..\..\wpa_supplicant\src/utils/wpabuf.h **** int wpabuf_resize(struct wpabuf **buf, size_t add_len);
  30:..\..\..\..\wpa_supplicant\src/utils/wpabuf.h **** struct wpabuf * wpabuf_alloc(size_t len);
  31:..\..\..\..\wpa_supplicant\src/utils/wpabuf.h **** struct wpabuf * wpabuf_alloc_ext_data(u8 *data, size_t len);
  32:..\..\..\..\wpa_supplicant\src/utils/wpabuf.h **** struct wpabuf * wpabuf_alloc_copy(const void *data, size_t len);
  33:..\..\..\..\wpa_supplicant\src/utils/wpabuf.h **** struct wpabuf * wpabuf_dup(const struct wpabuf *src);
  34:..\..\..\..\wpa_supplicant\src/utils/wpabuf.h **** void wpabuf_free(struct wpabuf *buf);
  35:..\..\..\..\wpa_supplicant\src/utils/wpabuf.h **** void wpabuf_clear_free(struct wpabuf *buf);
  36:..\..\..\..\wpa_supplicant\src/utils/wpabuf.h **** void * wpabuf_put(struct wpabuf *buf, size_t len);
  37:..\..\..\..\wpa_supplicant\src/utils/wpabuf.h **** struct wpabuf * wpabuf_concat(struct wpabuf *a, struct wpabuf *b);
  38:..\..\..\..\wpa_supplicant\src/utils/wpabuf.h **** struct wpabuf * wpabuf_zeropad(struct wpabuf *buf, size_t len);
  39:..\..\..\..\wpa_supplicant\src/utils/wpabuf.h **** void wpabuf_printf(struct wpabuf *buf, char *fmt, ...) PRINTF_FORMAT(2, 3);
  40:..\..\..\..\wpa_supplicant\src/utils/wpabuf.h **** struct wpabuf * wpabuf_parse_bin(const char *buf);
  41:..\..\..\..\wpa_supplicant\src/utils/wpabuf.h **** 
  42:..\..\..\..\wpa_supplicant\src/utils/wpabuf.h **** 
  43:..\..\..\..\wpa_supplicant\src/utils/wpabuf.h **** /**
  44:..\..\..\..\wpa_supplicant\src/utils/wpabuf.h ****  * wpabuf_size - Get the currently allocated size of a wpabuf buffer
  45:..\..\..\..\wpa_supplicant\src/utils/wpabuf.h ****  * @buf: wpabuf buffer
  46:..\..\..\..\wpa_supplicant\src/utils/wpabuf.h ****  * Returns: Currently allocated size of the buffer
  47:..\..\..\..\wpa_supplicant\src/utils/wpabuf.h ****  */
  48:..\..\..\..\wpa_supplicant\src/utils/wpabuf.h **** static inline size_t wpabuf_size(const struct wpabuf *buf)
  49:..\..\..\..\wpa_supplicant\src/utils/wpabuf.h **** {
  50:..\..\..\..\wpa_supplicant\src/utils/wpabuf.h **** 	return buf->size;
  51:..\..\..\..\wpa_supplicant\src/utils/wpabuf.h **** }
  52:..\..\..\..\wpa_supplicant\src/utils/wpabuf.h **** 
  53:..\..\..\..\wpa_supplicant\src/utils/wpabuf.h **** /**
  54:..\..\..\..\wpa_supplicant\src/utils/wpabuf.h ****  * wpabuf_len - Get the current length of a wpabuf buffer data
  55:..\..\..\..\wpa_supplicant\src/utils/wpabuf.h ****  * @buf: wpabuf buffer
  56:..\..\..\..\wpa_supplicant\src/utils/wpabuf.h ****  * Returns: Currently used length of the buffer
  57:..\..\..\..\wpa_supplicant\src/utils/wpabuf.h ****  */
  58:..\..\..\..\wpa_supplicant\src/utils/wpabuf.h **** static inline size_t wpabuf_len(const struct wpabuf *buf)
  59:..\..\..\..\wpa_supplicant\src/utils/wpabuf.h **** {
  60:..\..\..\..\wpa_supplicant\src/utils/wpabuf.h **** 	return buf->used;
  61:..\..\..\..\wpa_supplicant\src/utils/wpabuf.h **** }
  62:..\..\..\..\wpa_supplicant\src/utils/wpabuf.h **** 
  63:..\..\..\..\wpa_supplicant\src/utils/wpabuf.h **** /**
  64:..\..\..\..\wpa_supplicant\src/utils/wpabuf.h ****  * wpabuf_tailroom - Get size of available tail room in the end of the buffer
  65:..\..\..\..\wpa_supplicant\src/utils/wpabuf.h ****  * @buf: wpabuf buffer
  66:..\..\..\..\wpa_supplicant\src/utils/wpabuf.h ****  * Returns: Tail room (in bytes) of available space in the end of the buffer
  67:..\..\..\..\wpa_supplicant\src/utils/wpabuf.h ****  */
  68:..\..\..\..\wpa_supplicant\src/utils/wpabuf.h **** static inline size_t wpabuf_tailroom(const struct wpabuf *buf)
  69:..\..\..\..\wpa_supplicant\src/utils/wpabuf.h **** {
  70:..\..\..\..\wpa_supplicant\src/utils/wpabuf.h **** 	return buf->size - buf->used;
  71:..\..\..\..\wpa_supplicant\src/utils/wpabuf.h **** }
  72:..\..\..\..\wpa_supplicant\src/utils/wpabuf.h **** 
  73:..\..\..\..\wpa_supplicant\src/utils/wpabuf.h **** /**
  74:..\..\..\..\wpa_supplicant\src/utils/wpabuf.h ****  * wpabuf_cmp - Check if two buffers contain the same data
  75:..\..\..\..\wpa_supplicant\src/utils/wpabuf.h ****  * @a: wpabuf buffer
  76:..\..\..\..\wpa_supplicant\src/utils/wpabuf.h ****  * @b: wpabuf buffer
  77:..\..\..\..\wpa_supplicant\src/utils/wpabuf.h ****  * Returns: 0 if the two buffers contain the same data and non-zero otherwise
  78:..\..\..\..\wpa_supplicant\src/utils/wpabuf.h ****  */
  79:..\..\..\..\wpa_supplicant\src/utils/wpabuf.h **** static inline int wpabuf_cmp(const struct wpabuf *a, const struct wpabuf *b)
  80:..\..\..\..\wpa_supplicant\src/utils/wpabuf.h **** {
  81:..\..\..\..\wpa_supplicant\src/utils/wpabuf.h **** 	if (!a && !b)
  82:..\..\..\..\wpa_supplicant\src/utils/wpabuf.h **** 		return 0;
  83:..\..\..\..\wpa_supplicant\src/utils/wpabuf.h **** 	if (a && b && wpabuf_size(a) == wpabuf_size(b))
  84:..\..\..\..\wpa_supplicant\src/utils/wpabuf.h **** 		return os_memcmp(a->buf, b->buf, wpabuf_size(a));
  85:..\..\..\..\wpa_supplicant\src/utils/wpabuf.h **** 	return -1;
  86:..\..\..\..\wpa_supplicant\src/utils/wpabuf.h **** }
  87:..\..\..\..\wpa_supplicant\src/utils/wpabuf.h **** 
  88:..\..\..\..\wpa_supplicant\src/utils/wpabuf.h **** /**
  89:..\..\..\..\wpa_supplicant\src/utils/wpabuf.h ****  * wpabuf_head - Get pointer to the head of the buffer data
  90:..\..\..\..\wpa_supplicant\src/utils/wpabuf.h ****  * @buf: wpabuf buffer
  91:..\..\..\..\wpa_supplicant\src/utils/wpabuf.h ****  * Returns: Pointer to the head of the buffer data
  92:..\..\..\..\wpa_supplicant\src/utils/wpabuf.h ****  */
  93:..\..\..\..\wpa_supplicant\src/utils/wpabuf.h **** static inline const void * wpabuf_head(const struct wpabuf *buf)
  94:..\..\..\..\wpa_supplicant\src/utils/wpabuf.h **** {
  95:..\..\..\..\wpa_supplicant\src/utils/wpabuf.h **** 	return buf->buf;
  96:..\..\..\..\wpa_supplicant\src/utils/wpabuf.h **** }
  97:..\..\..\..\wpa_supplicant\src/utils/wpabuf.h **** 
  98:..\..\..\..\wpa_supplicant\src/utils/wpabuf.h **** static inline const u8 * wpabuf_head_u8(const struct wpabuf *buf)
  99:..\..\..\..\wpa_supplicant\src/utils/wpabuf.h **** {
 100:..\..\..\..\wpa_supplicant\src/utils/wpabuf.h **** 	return (const u8 *) wpabuf_head(buf);
 101:..\..\..\..\wpa_supplicant\src/utils/wpabuf.h **** }
 102:..\..\..\..\wpa_supplicant\src/utils/wpabuf.h **** 
 103:..\..\..\..\wpa_supplicant\src/utils/wpabuf.h **** /**
 104:..\..\..\..\wpa_supplicant\src/utils/wpabuf.h ****  * wpabuf_mhead - Get modifiable pointer to the head of the buffer data
 105:..\..\..\..\wpa_supplicant\src/utils/wpabuf.h ****  * @buf: wpabuf buffer
 106:..\..\..\..\wpa_supplicant\src/utils/wpabuf.h ****  * Returns: Pointer to the head of the buffer data
 107:..\..\..\..\wpa_supplicant\src/utils/wpabuf.h ****  */
 108:..\..\..\..\wpa_supplicant\src/utils/wpabuf.h **** static inline void * wpabuf_mhead(struct wpabuf *buf)
 109:..\..\..\..\wpa_supplicant\src/utils/wpabuf.h **** {
 110:..\..\..\..\wpa_supplicant\src/utils/wpabuf.h **** 	return buf->buf;
 111:..\..\..\..\wpa_supplicant\src/utils/wpabuf.h **** }
 112:..\..\..\..\wpa_supplicant\src/utils/wpabuf.h **** 
 113:..\..\..\..\wpa_supplicant\src/utils/wpabuf.h **** static inline u8 * wpabuf_mhead_u8(struct wpabuf *buf)
 114:..\..\..\..\wpa_supplicant\src/utils/wpabuf.h **** {
 115:..\..\..\..\wpa_supplicant\src/utils/wpabuf.h **** 	return (u8 *) wpabuf_mhead(buf);
 116:..\..\..\..\wpa_supplicant\src/utils/wpabuf.h **** }
 117:..\..\..\..\wpa_supplicant\src/utils/wpabuf.h **** 
 118:..\..\..\..\wpa_supplicant\src/utils/wpabuf.h **** static inline void wpabuf_put_u8(struct wpabuf *buf, u8 data)
 119:..\..\..\..\wpa_supplicant\src/utils/wpabuf.h **** {
 120:..\..\..\..\wpa_supplicant\src/utils/wpabuf.h **** 	u8 *pos = (u8 *) wpabuf_put(buf, 1);
 727              		.loc 5 120 2
 728              		.loc 5 120 19 is_stmt 0
 729 0052 8545     		li	a1,1
 730 0054 97000000 		call	wpabuf_put
 730      E7800000 
 731              	.LVL54:
 121:..\..\..\..\wpa_supplicant\src/utils/wpabuf.h **** 	*pos = data;
 732              		.loc 5 121 2 is_stmt 1
 733              		.loc 5 121 7 is_stmt 0
 734 005c 23000500 		sb	zero,0(a0)
 735              	.LVL55:
 736              	.L24:
 737              	.LBE33:
 738              	.LBE32:
 626:C:/Users/stapi/OneDrive/Desktop/GD32VW553/V1_MQTT_OK/GD32VW55X_Wifi_BLE_SDK/GD32VW55x_RELEASE_V1.0.2/MSDK/wpa_supplicant/src/ap\ap_config.c **** 	}
 627:C:/Users/stapi/OneDrive/Desktop/GD32VW553/V1_MQTT_OK/GD32VW55X_Wifi_BLE_SDK/GD32VW55x_RELEASE_V1.0.2/MSDK/wpa_supplicant/src/ap\ap_config.c **** 
 628:C:/Users/stapi/OneDrive/Desktop/GD32VW553/V1_MQTT_OK/GD32VW55X_Wifi_BLE_SDK/GD32VW55x_RELEASE_V1.0.2/MSDK/wpa_supplicant/src/ap\ap_config.c **** 	return attr;
 629:C:/Users/stapi/OneDrive/Desktop/GD32VW553/V1_MQTT_OK/GD32VW55X_Wifi_BLE_SDK/GD32VW55x_RELEASE_V1.0.2/MSDK/wpa_supplicant/src/ap\ap_config.c **** }
 739              		.loc 2 629 1
 740 0060 2285     		mv	a0,s0
 741 0062 17030000 		tail	__riscv_restore_3
 741      67000300 
 742              		.cfi_remember_state
 743              		.cfi_restore 18
 744              		.cfi_restore 9
 745              		.cfi_restore 8
 746              		.cfi_restore 1
 747              		.cfi_def_cfa_offset 0
 748              	.LVL56:
 749              	.L26:
 750              		.cfi_restore_state
 587:C:/Users/stapi/OneDrive/Desktop/GD32VW553/V1_MQTT_OK/GD32VW55X_Wifi_BLE_SDK/GD32VW55x_RELEASE_V1.0.2/MSDK/wpa_supplicant/src/ap\ap_config.c **** 	if (pos[0] == '\0' || pos[1] != ':') {
 751              		.loc 2 587 2 is_stmt 1
 588:C:/Users/stapi/OneDrive/Desktop/GD32VW553/V1_MQTT_OK/GD32VW55X_Wifi_BLE_SDK/GD32VW55x_RELEASE_V1.0.2/MSDK/wpa_supplicant/src/ap\ap_config.c **** 		os_free(attr);
 752              		.loc 2 588 2
 588:C:/Users/stapi/OneDrive/Desktop/GD32VW553/V1_MQTT_OK/GD32VW55X_Wifi_BLE_SDK/GD32VW55x_RELEASE_V1.0.2/MSDK/wpa_supplicant/src/ap\ap_config.c **** 		os_free(attr);
 753              		.loc 2 588 9 is_stmt 0
 754 006a 83071500 		lb	a5,1(a0)
 588:C:/Users/stapi/OneDrive/Desktop/GD32VW553/V1_MQTT_OK/GD32VW55X_Wifi_BLE_SDK/GD32VW55x_RELEASE_V1.0.2/MSDK/wpa_supplicant/src/ap\ap_config.c **** 		os_free(attr);
 755              		.loc 2 588 5
 756 006e F9DB     		beq	a5,zero,.L37
 588:C:/Users/stapi/OneDrive/Desktop/GD32VW553/V1_MQTT_OK/GD32VW55X_Wifi_BLE_SDK/GD32VW55x_RELEASE_V1.0.2/MSDK/wpa_supplicant/src/ap\ap_config.c **** 		os_free(attr);
 757              		.loc 2 588 21 discriminator 1
 758 0070 1307A003 		li	a4,58
 759 0074 83062500 		lb	a3,2(a0)
 760 0078 E396E6FC 		bne	a3,a4,.L37
 592:C:/Users/stapi/OneDrive/Desktop/GD32VW553/V1_MQTT_OK/GD32VW55X_Wifi_BLE_SDK/GD32VW55x_RELEASE_V1.0.2/MSDK/wpa_supplicant/src/ap\ap_config.c **** 	pos++;
 761              		.loc 2 592 2 is_stmt 1
 762              	.LVL57:
 593:C:/Users/stapi/OneDrive/Desktop/GD32VW553/V1_MQTT_OK/GD32VW55X_Wifi_BLE_SDK/GD32VW55x_RELEASE_V1.0.2/MSDK/wpa_supplicant/src/ap\ap_config.c **** 
 763              		.loc 2 593 2
 595:C:/Users/stapi/OneDrive/Desktop/GD32VW553/V1_MQTT_OK/GD32VW55X_Wifi_BLE_SDK/GD32VW55x_RELEASE_V1.0.2/MSDK/wpa_supplicant/src/ap\ap_config.c **** 	case 's':
 764              		.loc 2 595 2 is_stmt 0
 765 007c 13073007 		li	a4,115
 593:C:/Users/stapi/OneDrive/Desktop/GD32VW553/V1_MQTT_OK/GD32VW55X_Wifi_BLE_SDK/GD32VW55x_RELEASE_V1.0.2/MSDK/wpa_supplicant/src/ap\ap_config.c **** 
 766              		.loc 2 593 5
 767 0080 93043500 		addi	s1,a0,3
 768              	.LVL58:
 595:C:/Users/stapi/OneDrive/Desktop/GD32VW553/V1_MQTT_OK/GD32VW55X_Wifi_BLE_SDK/GD32VW55x_RELEASE_V1.0.2/MSDK/wpa_supplicant/src/ap\ap_config.c **** 	case 's':
 769              		.loc 2 595 2 is_stmt 1
 770 0084 638DE704 		beq	a5,a4,.L30
 771 0088 13078007 		li	a4,120
 772 008c 6388E706 		beq	a5,a4,.L31
 773 0090 13074006 		li	a4,100
 774 0094 E398E7FA 		bne	a5,a4,.L37
 614:C:/Users/stapi/OneDrive/Desktop/GD32VW553/V1_MQTT_OK/GD32VW55X_Wifi_BLE_SDK/GD32VW55x_RELEASE_V1.0.2/MSDK/wpa_supplicant/src/ap\ap_config.c **** 		if (attr->val)
 775              		.loc 2 614 3
 614:C:/Users/stapi/OneDrive/Desktop/GD32VW553/V1_MQTT_OK/GD32VW55X_Wifi_BLE_SDK/GD32VW55x_RELEASE_V1.0.2/MSDK/wpa_supplicant/src/ap\ap_config.c **** 		if (attr->val)
 776              		.loc 2 614 15 is_stmt 0
 777 0098 1145     		li	a0,4
 778 009a 97000000 		call	wpabuf_alloc
 778      E7800000 
 779              	.LVL59:
 614:C:/Users/stapi/OneDrive/Desktop/GD32VW553/V1_MQTT_OK/GD32VW55X_Wifi_BLE_SDK/GD32VW55x_RELEASE_V1.0.2/MSDK/wpa_supplicant/src/ap\ap_config.c **** 		if (attr->val)
 780              		.loc 2 614 13
 781 00a2 48C0     		sw	a0,4(s0)
 615:C:/Users/stapi/OneDrive/Desktop/GD32VW553/V1_MQTT_OK/GD32VW55X_Wifi_BLE_SDK/GD32VW55x_RELEASE_V1.0.2/MSDK/wpa_supplicant/src/ap\ap_config.c **** 			wpabuf_put_be32(attr->val, atoi(pos));
 782              		.loc 2 615 3 is_stmt 1
 614:C:/Users/stapi/OneDrive/Desktop/GD32VW553/V1_MQTT_OK/GD32VW55X_Wifi_BLE_SDK/GD32VW55x_RELEASE_V1.0.2/MSDK/wpa_supplicant/src/ap\ap_config.c **** 		if (attr->val)
 783              		.loc 2 614 15 is_stmt 0
 784 00a4 2A89     		mv	s2,a0
 615:C:/Users/stapi/OneDrive/Desktop/GD32VW553/V1_MQTT_OK/GD32VW55X_Wifi_BLE_SDK/GD32VW55x_RELEASE_V1.0.2/MSDK/wpa_supplicant/src/ap\ap_config.c **** 			wpabuf_put_be32(attr->val, atoi(pos));
 785              		.loc 2 615 6
 786 00a6 59DD     		beq	a0,zero,.L37
 616:C:/Users/stapi/OneDrive/Desktop/GD32VW553/V1_MQTT_OK/GD32VW55X_Wifi_BLE_SDK/GD32VW55x_RELEASE_V1.0.2/MSDK/wpa_supplicant/src/ap\ap_config.c **** 		break;
 787              		.loc 2 616 4 is_stmt 1
 616:C:/Users/stapi/OneDrive/Desktop/GD32VW553/V1_MQTT_OK/GD32VW55X_Wifi_BLE_SDK/GD32VW55x_RELEASE_V1.0.2/MSDK/wpa_supplicant/src/ap\ap_config.c **** 		break;
 788              		.loc 2 616 31 is_stmt 0
 789 00a8 2685     		mv	a0,s1
 790 00aa 97000000 		call	atoi
 790      E7800000 
 791              	.LVL60:
 792 00b2 AA84     		mv	s1,a0
 793              	.LVL61:
 794              	.LBB34:
 795              	.LBB35:
 122:..\..\..\..\wpa_supplicant\src/utils/wpabuf.h **** }
 123:..\..\..\..\wpa_supplicant\src/utils/wpabuf.h **** 
 124:..\..\..\..\wpa_supplicant\src/utils/wpabuf.h **** static inline void wpabuf_put_le16(struct wpabuf *buf, u16 data)
 125:..\..\..\..\wpa_supplicant\src/utils/wpabuf.h **** {
 126:..\..\..\..\wpa_supplicant\src/utils/wpabuf.h **** 	u8 *pos = (u8 *) wpabuf_put(buf, 2);
 127:..\..\..\..\wpa_supplicant\src/utils/wpabuf.h **** 	WPA_PUT_LE16(pos, data);
 128:..\..\..\..\wpa_supplicant\src/utils/wpabuf.h **** }
 129:..\..\..\..\wpa_supplicant\src/utils/wpabuf.h **** 
 130:..\..\..\..\wpa_supplicant\src/utils/wpabuf.h **** static inline void wpabuf_put_le32(struct wpabuf *buf, u32 data)
 131:..\..\..\..\wpa_supplicant\src/utils/wpabuf.h **** {
 132:..\..\..\..\wpa_supplicant\src/utils/wpabuf.h **** 	u8 *pos = (u8 *) wpabuf_put(buf, 4);
 133:..\..\..\..\wpa_supplicant\src/utils/wpabuf.h **** 	WPA_PUT_LE32(pos, data);
 134:..\..\..\..\wpa_supplicant\src/utils/wpabuf.h **** }
 135:..\..\..\..\wpa_supplicant\src/utils/wpabuf.h **** 
 136:..\..\..\..\wpa_supplicant\src/utils/wpabuf.h **** static inline void wpabuf_put_le64(struct wpabuf *buf, u64 data)
 137:..\..\..\..\wpa_supplicant\src/utils/wpabuf.h **** {
 138:..\..\..\..\wpa_supplicant\src/utils/wpabuf.h **** 	u8 *pos = (u8 *) wpabuf_put(buf, 8);
 139:..\..\..\..\wpa_supplicant\src/utils/wpabuf.h **** 	WPA_PUT_LE64(pos, data);
 140:..\..\..\..\wpa_supplicant\src/utils/wpabuf.h **** }
 141:..\..\..\..\wpa_supplicant\src/utils/wpabuf.h **** 
 142:..\..\..\..\wpa_supplicant\src/utils/wpabuf.h **** static inline void wpabuf_put_be16(struct wpabuf *buf, u16 data)
 143:..\..\..\..\wpa_supplicant\src/utils/wpabuf.h **** {
 144:..\..\..\..\wpa_supplicant\src/utils/wpabuf.h **** 	u8 *pos = (u8 *) wpabuf_put(buf, 2);
 145:..\..\..\..\wpa_supplicant\src/utils/wpabuf.h **** 	WPA_PUT_BE16(pos, data);
 146:..\..\..\..\wpa_supplicant\src/utils/wpabuf.h **** }
 147:..\..\..\..\wpa_supplicant\src/utils/wpabuf.h **** 
 148:..\..\..\..\wpa_supplicant\src/utils/wpabuf.h **** static inline void wpabuf_put_be24(struct wpabuf *buf, u32 data)
 149:..\..\..\..\wpa_supplicant\src/utils/wpabuf.h **** {
 150:..\..\..\..\wpa_supplicant\src/utils/wpabuf.h **** 	u8 *pos = (u8 *) wpabuf_put(buf, 3);
 151:..\..\..\..\wpa_supplicant\src/utils/wpabuf.h **** 	WPA_PUT_BE24(pos, data);
 152:..\..\..\..\wpa_supplicant\src/utils/wpabuf.h **** }
 153:..\..\..\..\wpa_supplicant\src/utils/wpabuf.h **** 
 154:..\..\..\..\wpa_supplicant\src/utils/wpabuf.h **** static inline void wpabuf_put_be32(struct wpabuf *buf, u32 data)
 155:..\..\..\..\wpa_supplicant\src/utils/wpabuf.h **** {
 156:..\..\..\..\wpa_supplicant\src/utils/wpabuf.h **** 	u8 *pos = (u8 *) wpabuf_put(buf, 4);
 796              		.loc 5 156 2 is_stmt 1
 797              		.loc 5 156 19 is_stmt 0
 798 00b4 9145     		li	a1,4
 799 00b6 4A85     		mv	a0,s2
 800 00b8 97000000 		call	wpabuf_put
 800      E7800000 
 801              	.LVL62:
 157:..\..\..\..\wpa_supplicant\src/utils/wpabuf.h **** 	WPA_PUT_BE32(pos, data);
 802              		.loc 5 157 2 is_stmt 1
 803              	.LBB36:
 804              	.LBB37:
 281:..\..\..\..\wpa_supplicant\src/utils/common.h **** 	a[1] = (val >> 16) & 0xff;
 805              		.loc 1 281 2
 281:..\..\..\..\wpa_supplicant\src/utils/common.h **** 	a[1] = (val >> 16) & 0xff;
 806              		.loc 1 281 14 is_stmt 0
 807 00c0 93D78401 		srli	a5,s1,24
 281:..\..\..\..\wpa_supplicant\src/utils/common.h **** 	a[1] = (val >> 16) & 0xff;
 808              		.loc 1 281 7
 809 00c4 2300F500 		sb	a5,0(a0)
 282:..\..\..\..\wpa_supplicant\src/utils/common.h **** 	a[2] = (val >> 8) & 0xff;
 810              		.loc 1 282 2 is_stmt 1
 282:..\..\..\..\wpa_supplicant\src/utils/common.h **** 	a[2] = (val >> 8) & 0xff;
 811              		.loc 1 282 14 is_stmt 0
 812 00c8 93D70401 		srli	a5,s1,16
 282:..\..\..\..\wpa_supplicant\src/utils/common.h **** 	a[2] = (val >> 8) & 0xff;
 813              		.loc 1 282 7
 814 00cc A300F500 		sb	a5,1(a0)
 283:..\..\..\..\wpa_supplicant\src/utils/common.h **** 	a[3] = val & 0xff;
 815              		.loc 1 283 2 is_stmt 1
 283:..\..\..\..\wpa_supplicant\src/utils/common.h **** 	a[3] = val & 0xff;
 816              		.loc 1 283 14 is_stmt 0
 817 00d0 93D78400 		srli	a5,s1,8
 283:..\..\..\..\wpa_supplicant\src/utils/common.h **** 	a[3] = val & 0xff;
 818              		.loc 1 283 7
 819 00d4 2301F500 		sb	a5,2(a0)
 284:..\..\..\..\wpa_supplicant\src/utils/common.h **** }
 820              		.loc 1 284 2 is_stmt 1
 284:..\..\..\..\wpa_supplicant\src/utils/common.h **** }
 821              		.loc 1 284 7 is_stmt 0
 822 00d8 A3019500 		sb	s1,3(a0)
 285:..\..\..\..\wpa_supplicant\src/utils/common.h **** 
 823              		.loc 1 285 1
 824 00dc 29A8     		j	.L34
 825              	.LVL63:
 826              	.L30:
 827              	.LBE37:
 828              	.LBE36:
 829              	.LBE35:
 830              	.LBE34:
 597:C:/Users/stapi/OneDrive/Desktop/GD32VW553/V1_MQTT_OK/GD32VW55X_Wifi_BLE_SDK/GD32VW55x_RELEASE_V1.0.2/MSDK/wpa_supplicant/src/ap\ap_config.c **** 		break;
 831              		.loc 2 597 3 is_stmt 1
 597:C:/Users/stapi/OneDrive/Desktop/GD32VW553/V1_MQTT_OK/GD32VW55X_Wifi_BLE_SDK/GD32VW55x_RELEASE_V1.0.2/MSDK/wpa_supplicant/src/ap\ap_config.c **** 		break;
 832              		.loc 2 597 15 is_stmt 0
 833 00de 2685     		mv	a0,s1
 834 00e0 97000000 		call	os_strlen
 834      E7800000 
 835              	.LVL64:
 836 00e8 AA85     		mv	a1,a0
 837 00ea 2685     		mv	a0,s1
 838 00ec 97000000 		call	wpabuf_alloc_copy
 838      E7800000 
 839              	.LVL65:
 597:C:/Users/stapi/OneDrive/Desktop/GD32VW553/V1_MQTT_OK/GD32VW55X_Wifi_BLE_SDK/GD32VW55x_RELEASE_V1.0.2/MSDK/wpa_supplicant/src/ap\ap_config.c **** 		break;
 840              		.loc 2 597 13
 841 00f4 48C0     		sw	a0,4(s0)
 598:C:/Users/stapi/OneDrive/Desktop/GD32VW553/V1_MQTT_OK/GD32VW55X_Wifi_BLE_SDK/GD32VW55x_RELEASE_V1.0.2/MSDK/wpa_supplicant/src/ap\ap_config.c **** 	case 'x':
 842              		.loc 2 598 3 is_stmt 1
 843              	.LVL66:
 844              	.L34:
 623:C:/Users/stapi/OneDrive/Desktop/GD32VW553/V1_MQTT_OK/GD32VW55X_Wifi_BLE_SDK/GD32VW55x_RELEASE_V1.0.2/MSDK/wpa_supplicant/src/ap\ap_config.c **** 		os_free(attr);
 845              		.loc 2 623 2
 623:C:/Users/stapi/OneDrive/Desktop/GD32VW553/V1_MQTT_OK/GD32VW55X_Wifi_BLE_SDK/GD32VW55x_RELEASE_V1.0.2/MSDK/wpa_supplicant/src/ap\ap_config.c **** 		os_free(attr);
 846              		.loc 2 623 5 is_stmt 0
 847 00f6 5C40     		lw	a5,4(s0)
 848 00f8 A5F7     		bne	a5,zero,.L24
 849 00fa A9B7     		j	.L37
 850              	.LVL67:
 851              	.L31:
 600:C:/Users/stapi/OneDrive/Desktop/GD32VW553/V1_MQTT_OK/GD32VW55X_Wifi_BLE_SDK/GD32VW55x_RELEASE_V1.0.2/MSDK/wpa_supplicant/src/ap\ap_config.c **** 		if (len & 1)
 852              		.loc 2 600 3 is_stmt 1
 600:C:/Users/stapi/OneDrive/Desktop/GD32VW553/V1_MQTT_OK/GD32VW55X_Wifi_BLE_SDK/GD32VW55x_RELEASE_V1.0.2/MSDK/wpa_supplicant/src/ap\ap_config.c **** 		if (len & 1)
 853              		.loc 2 600 9 is_stmt 0
 854 00fc 2685     		mv	a0,s1
 855 00fe 97000000 		call	os_strlen
 855      E7800000 
 856              	.LVL68:
 601:C:/Users/stapi/OneDrive/Desktop/GD32VW553/V1_MQTT_OK/GD32VW55X_Wifi_BLE_SDK/GD32VW55x_RELEASE_V1.0.2/MSDK/wpa_supplicant/src/ap\ap_config.c **** 			break;
 857              		.loc 2 601 3 is_stmt 1
 601:C:/Users/stapi/OneDrive/Desktop/GD32VW553/V1_MQTT_OK/GD32VW55X_Wifi_BLE_SDK/GD32VW55x_RELEASE_V1.0.2/MSDK/wpa_supplicant/src/ap\ap_config.c **** 			break;
 858              		.loc 2 601 11 is_stmt 0
 859 0106 93771500 		andi	a5,a0,1
 601:C:/Users/stapi/OneDrive/Desktop/GD32VW553/V1_MQTT_OK/GD32VW55X_Wifi_BLE_SDK/GD32VW55x_RELEASE_V1.0.2/MSDK/wpa_supplicant/src/ap\ap_config.c **** 			break;
 860              		.loc 2 601 6
 861 010a F5F7     		bne	a5,zero,.L34
 603:C:/Users/stapi/OneDrive/Desktop/GD32VW553/V1_MQTT_OK/GD32VW55X_Wifi_BLE_SDK/GD32VW55x_RELEASE_V1.0.2/MSDK/wpa_supplicant/src/ap\ap_config.c **** 		attr->val = wpabuf_alloc(len);
 862              		.loc 2 603 3 is_stmt 1
 603:C:/Users/stapi/OneDrive/Desktop/GD32VW553/V1_MQTT_OK/GD32VW55X_Wifi_BLE_SDK/GD32VW55x_RELEASE_V1.0.2/MSDK/wpa_supplicant/src/ap\ap_config.c **** 		attr->val = wpabuf_alloc(len);
 863              		.loc 2 603 7 is_stmt 0
 864 010c 13591500 		srli	s2,a0,1
 865              	.LVL69:
 604:C:/Users/stapi/OneDrive/Desktop/GD32VW553/V1_MQTT_OK/GD32VW55X_Wifi_BLE_SDK/GD32VW55x_RELEASE_V1.0.2/MSDK/wpa_supplicant/src/ap\ap_config.c **** 		if (!attr->val)
 866              		.loc 2 604 3 is_stmt 1
 604:C:/Users/stapi/OneDrive/Desktop/GD32VW553/V1_MQTT_OK/GD32VW55X_Wifi_BLE_SDK/GD32VW55x_RELEASE_V1.0.2/MSDK/wpa_supplicant/src/ap\ap_config.c **** 		if (!attr->val)
 867              		.loc 2 604 15 is_stmt 0
 868 0110 4A85     		mv	a0,s2
 869 0112 97000000 		call	wpabuf_alloc
 869      E7800000 
 870              	.LVL70:
 604:C:/Users/stapi/OneDrive/Desktop/GD32VW553/V1_MQTT_OK/GD32VW55X_Wifi_BLE_SDK/GD32VW55x_RELEASE_V1.0.2/MSDK/wpa_supplicant/src/ap\ap_config.c **** 		if (!attr->val)
 871              		.loc 2 604 13
 872 011a 48C0     		sw	a0,4(s0)
 605:C:/Users/stapi/OneDrive/Desktop/GD32VW553/V1_MQTT_OK/GD32VW55X_Wifi_BLE_SDK/GD32VW55x_RELEASE_V1.0.2/MSDK/wpa_supplicant/src/ap\ap_config.c **** 			break;
 873              		.loc 2 605 3 is_stmt 1
 605:C:/Users/stapi/OneDrive/Desktop/GD32VW553/V1_MQTT_OK/GD32VW55X_Wifi_BLE_SDK/GD32VW55x_RELEASE_V1.0.2/MSDK/wpa_supplicant/src/ap\ap_config.c **** 			break;
 874              		.loc 2 605 6 is_stmt 0
 875 011c 05D5     		beq	a0,zero,.L37
 607:C:/Users/stapi/OneDrive/Desktop/GD32VW553/V1_MQTT_OK/GD32VW55X_Wifi_BLE_SDK/GD32VW55x_RELEASE_V1.0.2/MSDK/wpa_supplicant/src/ap\ap_config.c **** 			wpabuf_free(attr->val);
 876              		.loc 2 607 3 is_stmt 1
 607:C:/Users/stapi/OneDrive/Desktop/GD32VW553/V1_MQTT_OK/GD32VW55X_Wifi_BLE_SDK/GD32VW55x_RELEASE_V1.0.2/MSDK/wpa_supplicant/src/ap\ap_config.c **** 			wpabuf_free(attr->val);
 877              		.loc 2 607 23 is_stmt 0
 878 011e CA85     		mv	a1,s2
 879 0120 97000000 		call	wpabuf_put
 879      E7800000 
 880              	.LVL71:
 881 0128 AA85     		mv	a1,a0
 607:C:/Users/stapi/OneDrive/Desktop/GD32VW553/V1_MQTT_OK/GD32VW55X_Wifi_BLE_SDK/GD32VW55x_RELEASE_V1.0.2/MSDK/wpa_supplicant/src/ap\ap_config.c **** 			wpabuf_free(attr->val);
 882              		.loc 2 607 7
 883 012a 4A86     		mv	a2,s2
 884 012c 2685     		mv	a0,s1
 885 012e 97000000 		call	hexstr2bin
 885      E7800000 
 886              	.LVL72:
 607:C:/Users/stapi/OneDrive/Desktop/GD32VW553/V1_MQTT_OK/GD32VW55X_Wifi_BLE_SDK/GD32VW55x_RELEASE_V1.0.2/MSDK/wpa_supplicant/src/ap\ap_config.c **** 			wpabuf_free(attr->val);
 887              		.loc 2 607 6
 888 0136 E35005FC 		bge	a0,zero,.L34
 608:C:/Users/stapi/OneDrive/Desktop/GD32VW553/V1_MQTT_OK/GD32VW55X_Wifi_BLE_SDK/GD32VW55x_RELEASE_V1.0.2/MSDK/wpa_supplicant/src/ap\ap_config.c **** 			os_free(attr);
 889              		.loc 2 608 4 is_stmt 1
 890 013a 4840     		lw	a0,4(s0)
 891 013c 97000000 		call	wpabuf_free
 891      E7800000 
 892              	.LVL73:
 609:C:/Users/stapi/OneDrive/Desktop/GD32VW553/V1_MQTT_OK/GD32VW55X_Wifi_BLE_SDK/GD32VW55x_RELEASE_V1.0.2/MSDK/wpa_supplicant/src/ap\ap_config.c **** 			return NULL;
 893              		.loc 2 609 4
 894 0144 01B7     		j	.L37
 895              		.cfi_endproc
 896              	.LFE147:
 898              		.section	.text.hostapd_config_free_radius_attr,"ax",@progbits
 899              		.align	1
 900              		.globl	hostapd_config_free_radius_attr
 902              	hostapd_config_free_radius_attr:
 903              	.LFB148:
 630:C:/Users/stapi/OneDrive/Desktop/GD32VW553/V1_MQTT_OK/GD32VW55X_Wifi_BLE_SDK/GD32VW55x_RELEASE_V1.0.2/MSDK/wpa_supplicant/src/ap\ap_config.c **** 
 631:C:/Users/stapi/OneDrive/Desktop/GD32VW553/V1_MQTT_OK/GD32VW55X_Wifi_BLE_SDK/GD32VW55x_RELEASE_V1.0.2/MSDK/wpa_supplicant/src/ap\ap_config.c **** 
 632:C:/Users/stapi/OneDrive/Desktop/GD32VW553/V1_MQTT_OK/GD32VW55X_Wifi_BLE_SDK/GD32VW55x_RELEASE_V1.0.2/MSDK/wpa_supplicant/src/ap\ap_config.c **** void hostapd_config_free_radius_attr(struct hostapd_radius_attr *attr)
 633:C:/Users/stapi/OneDrive/Desktop/GD32VW553/V1_MQTT_OK/GD32VW55X_Wifi_BLE_SDK/GD32VW55x_RELEASE_V1.0.2/MSDK/wpa_supplicant/src/ap\ap_config.c **** {
 904              		.loc 2 633 1
 905              		.cfi_startproc
 906              	.LVL74:
 907 0000 17030000 		call	t0,__riscv_save_2
 907      E7020300 
 908              		.cfi_offset 9, -12
 909              		.cfi_offset 8, -8
 910              		.cfi_offset 1, -4
 911              		.cfi_def_cfa_offset 16
 912 0008 2A84     		mv	s0,a0
 634:C:/Users/stapi/OneDrive/Desktop/GD32VW553/V1_MQTT_OK/GD32VW55X_Wifi_BLE_SDK/GD32VW55x_RELEASE_V1.0.2/MSDK/wpa_supplicant/src/ap\ap_config.c **** 	struct hostapd_radius_attr *prev;
 913              		.loc 2 634 2
 635:C:/Users/stapi/OneDrive/Desktop/GD32VW553/V1_MQTT_OK/GD32VW55X_Wifi_BLE_SDK/GD32VW55x_RELEASE_V1.0.2/MSDK/wpa_supplicant/src/ap\ap_config.c **** 
 636:C:/Users/stapi/OneDrive/Desktop/GD32VW553/V1_MQTT_OK/GD32VW55X_Wifi_BLE_SDK/GD32VW55x_RELEASE_V1.0.2/MSDK/wpa_supplicant/src/ap\ap_config.c **** 	while (attr) {
 914              		.loc 2 636 2
 915              	.LVL75:
 916              	.L56:
 917              		.loc 2 636 8
 918 000a 09E4     		bne	s0,zero,.L57
 637:C:/Users/stapi/OneDrive/Desktop/GD32VW553/V1_MQTT_OK/GD32VW55X_Wifi_BLE_SDK/GD32VW55x_RELEASE_V1.0.2/MSDK/wpa_supplicant/src/ap\ap_config.c **** 		prev = attr;
 638:C:/Users/stapi/OneDrive/Desktop/GD32VW553/V1_MQTT_OK/GD32VW55X_Wifi_BLE_SDK/GD32VW55x_RELEASE_V1.0.2/MSDK/wpa_supplicant/src/ap\ap_config.c **** 		attr = attr->next;
 639:C:/Users/stapi/OneDrive/Desktop/GD32VW553/V1_MQTT_OK/GD32VW55X_Wifi_BLE_SDK/GD32VW55x_RELEASE_V1.0.2/MSDK/wpa_supplicant/src/ap\ap_config.c **** 		wpabuf_free(prev->val);
 640:C:/Users/stapi/OneDrive/Desktop/GD32VW553/V1_MQTT_OK/GD32VW55X_Wifi_BLE_SDK/GD32VW55x_RELEASE_V1.0.2/MSDK/wpa_supplicant/src/ap\ap_config.c **** 		os_free(prev);
 641:C:/Users/stapi/OneDrive/Desktop/GD32VW553/V1_MQTT_OK/GD32VW55X_Wifi_BLE_SDK/GD32VW55x_RELEASE_V1.0.2/MSDK/wpa_supplicant/src/ap\ap_config.c **** 	}
 642:C:/Users/stapi/OneDrive/Desktop/GD32VW553/V1_MQTT_OK/GD32VW55X_Wifi_BLE_SDK/GD32VW55x_RELEASE_V1.0.2/MSDK/wpa_supplicant/src/ap\ap_config.c **** }
 919              		.loc 2 642 1 is_stmt 0
 920 000c 17030000 		tail	__riscv_restore_2
 920      67000300 
 921              		.cfi_remember_state
 922              		.cfi_restore 9
 923              		.cfi_restore 8
 924              		.cfi_restore 1
 925              		.cfi_def_cfa_offset 0
 926              	.L57:
 927              		.cfi_restore_state
 637:C:/Users/stapi/OneDrive/Desktop/GD32VW553/V1_MQTT_OK/GD32VW55X_Wifi_BLE_SDK/GD32VW55x_RELEASE_V1.0.2/MSDK/wpa_supplicant/src/ap\ap_config.c **** 		prev = attr;
 928              		.loc 2 637 3 is_stmt 1
 929              	.LVL76:
 638:C:/Users/stapi/OneDrive/Desktop/GD32VW553/V1_MQTT_OK/GD32VW55X_Wifi_BLE_SDK/GD32VW55x_RELEASE_V1.0.2/MSDK/wpa_supplicant/src/ap\ap_config.c **** 		wpabuf_free(prev->val);
 930              		.loc 2 638 3
 639:C:/Users/stapi/OneDrive/Desktop/GD32VW553/V1_MQTT_OK/GD32VW55X_Wifi_BLE_SDK/GD32VW55x_RELEASE_V1.0.2/MSDK/wpa_supplicant/src/ap\ap_config.c **** 		os_free(prev);
 931              		.loc 2 639 3 is_stmt 0
 932 0014 4840     		lw	a0,4(s0)
 638:C:/Users/stapi/OneDrive/Desktop/GD32VW553/V1_MQTT_OK/GD32VW55X_Wifi_BLE_SDK/GD32VW55x_RELEASE_V1.0.2/MSDK/wpa_supplicant/src/ap\ap_config.c **** 		wpabuf_free(prev->val);
 933              		.loc 2 638 8
 934 0016 0444     		lw	s1,8(s0)
 935              	.LVL77:
 639:C:/Users/stapi/OneDrive/Desktop/GD32VW553/V1_MQTT_OK/GD32VW55X_Wifi_BLE_SDK/GD32VW55x_RELEASE_V1.0.2/MSDK/wpa_supplicant/src/ap\ap_config.c **** 		os_free(prev);
 936              		.loc 2 639 3 is_stmt 1
 937 0018 97000000 		call	wpabuf_free
 937      E7800000 
 938              	.LVL78:
 640:C:/Users/stapi/OneDrive/Desktop/GD32VW553/V1_MQTT_OK/GD32VW55X_Wifi_BLE_SDK/GD32VW55x_RELEASE_V1.0.2/MSDK/wpa_supplicant/src/ap\ap_config.c **** 	}
 939              		.loc 2 640 3
 940 0020 2285     		mv	a0,s0
 941 0022 97000000 		call	os_free
 941      E7800000 
 942              	.LVL79:
 638:C:/Users/stapi/OneDrive/Desktop/GD32VW553/V1_MQTT_OK/GD32VW55X_Wifi_BLE_SDK/GD32VW55x_RELEASE_V1.0.2/MSDK/wpa_supplicant/src/ap\ap_config.c **** 		wpabuf_free(prev->val);
 943              		.loc 2 638 8 is_stmt 0
 944 002a 2684     		mv	s0,s1
 945              	.LVL80:
 946 002c F9BF     		j	.L56
 947              		.cfi_endproc
 948              	.LFE148:
 950              		.section	.text.hostapd_config_free_eap_user,"ax",@progbits
 951              		.align	1
 952              		.globl	hostapd_config_free_eap_user
 954              	hostapd_config_free_eap_user:
 955              	.LFB149:
 643:C:/Users/stapi/OneDrive/Desktop/GD32VW553/V1_MQTT_OK/GD32VW55X_Wifi_BLE_SDK/GD32VW55x_RELEASE_V1.0.2/MSDK/wpa_supplicant/src/ap\ap_config.c **** 
 644:C:/Users/stapi/OneDrive/Desktop/GD32VW553/V1_MQTT_OK/GD32VW55X_Wifi_BLE_SDK/GD32VW55x_RELEASE_V1.0.2/MSDK/wpa_supplicant/src/ap\ap_config.c **** 
 645:C:/Users/stapi/OneDrive/Desktop/GD32VW553/V1_MQTT_OK/GD32VW55X_Wifi_BLE_SDK/GD32VW55x_RELEASE_V1.0.2/MSDK/wpa_supplicant/src/ap\ap_config.c **** void hostapd_config_free_eap_user(struct hostapd_eap_user *user)
 646:C:/Users/stapi/OneDrive/Desktop/GD32VW553/V1_MQTT_OK/GD32VW55X_Wifi_BLE_SDK/GD32VW55x_RELEASE_V1.0.2/MSDK/wpa_supplicant/src/ap\ap_config.c **** {
 956              		.loc 2 646 1 is_stmt 1
 957              		.cfi_startproc
 958              	.LVL81:
 959 0000 17030000 		call	t0,__riscv_save_1
 959      E7020300 
 960              		.cfi_offset 8, -8
 961              		.cfi_offset 1, -4
 962              		.cfi_def_cfa_offset 16
 647:C:/Users/stapi/OneDrive/Desktop/GD32VW553/V1_MQTT_OK/GD32VW55X_Wifi_BLE_SDK/GD32VW55x_RELEASE_V1.0.2/MSDK/wpa_supplicant/src/ap\ap_config.c **** 	hostapd_config_free_radius_attr(user->accept_attr);
 963              		.loc 2 647 2
 646:C:/Users/stapi/OneDrive/Desktop/GD32VW553/V1_MQTT_OK/GD32VW55X_Wifi_BLE_SDK/GD32VW55x_RELEASE_V1.0.2/MSDK/wpa_supplicant/src/ap\ap_config.c **** 	hostapd_config_free_radius_attr(user->accept_attr);
 964              		.loc 2 646 1 is_stmt 0
 965 0008 2A84     		mv	s0,a0
 966              		.loc 2 647 2
 967 000a 6855     		lw	a0,108(a0)
 968              	.LVL82:
 969 000c 97000000 		call	hostapd_config_free_radius_attr
 969      E7800000 
 970              	.LVL83:
 648:C:/Users/stapi/OneDrive/Desktop/GD32VW553/V1_MQTT_OK/GD32VW55X_Wifi_BLE_SDK/GD32VW55x_RELEASE_V1.0.2/MSDK/wpa_supplicant/src/ap\ap_config.c **** 	os_free(user->identity);
 971              		.loc 2 648 2 is_stmt 1
 972 0014 4840     		lw	a0,4(s0)
 973 0016 97000000 		call	os_free
 973      E7800000 
 974              	.LVL84:
 649:C:/Users/stapi/OneDrive/Desktop/GD32VW553/V1_MQTT_OK/GD32VW55X_Wifi_BLE_SDK/GD32VW55x_RELEASE_V1.0.2/MSDK/wpa_supplicant/src/ap\ap_config.c **** 	bin_clear_free(user->password, user->password_len);
 975              		.loc 2 649 2
 976 001e 2C48     		lw	a1,80(s0)
 977 0020 6844     		lw	a0,76(s0)
 978 0022 97000000 		call	bin_clear_free
 978      E7800000 
 979              	.LVL85:
 650:C:/Users/stapi/OneDrive/Desktop/GD32VW553/V1_MQTT_OK/GD32VW55X_Wifi_BLE_SDK/GD32VW55x_RELEASE_V1.0.2/MSDK/wpa_supplicant/src/ap\ap_config.c **** 	bin_clear_free(user->salt, user->salt_len);
 980              		.loc 2 650 2
 981 002a 2C4C     		lw	a1,88(s0)
 982 002c 6848     		lw	a0,84(s0)
 983 002e 97000000 		call	bin_clear_free
 983      E7800000 
 984              	.LVL86:
 651:C:/Users/stapi/OneDrive/Desktop/GD32VW553/V1_MQTT_OK/GD32VW55X_Wifi_BLE_SDK/GD32VW55x_RELEASE_V1.0.2/MSDK/wpa_supplicant/src/ap\ap_config.c **** 	os_free(user);
 985              		.loc 2 651 2
 986 0036 2285     		mv	a0,s0
 987 0038 97000000 		call	os_free
 987      E7800000 
 988              	.LVL87:
 652:C:/Users/stapi/OneDrive/Desktop/GD32VW553/V1_MQTT_OK/GD32VW55X_Wifi_BLE_SDK/GD32VW55x_RELEASE_V1.0.2/MSDK/wpa_supplicant/src/ap\ap_config.c **** }
 989              		.loc 2 652 1 is_stmt 0
 990 0040 17030000 		tail	__riscv_restore_1
 990      67000300 
 991              		.cfi_restore 8
 992              		.cfi_restore 1
 993              		.cfi_def_cfa_offset 0
 994              		.cfi_endproc
 995              	.LFE149:
 997              		.section	.text.hostapd_config_free_eap_users,"ax",@progbits
 998              		.align	1
 999              		.globl	hostapd_config_free_eap_users
 1001              	hostapd_config_free_eap_users:
 1002              	.LFB150:
 653:C:/Users/stapi/OneDrive/Desktop/GD32VW553/V1_MQTT_OK/GD32VW55X_Wifi_BLE_SDK/GD32VW55x_RELEASE_V1.0.2/MSDK/wpa_supplicant/src/ap\ap_config.c **** 
 654:C:/Users/stapi/OneDrive/Desktop/GD32VW553/V1_MQTT_OK/GD32VW55X_Wifi_BLE_SDK/GD32VW55x_RELEASE_V1.0.2/MSDK/wpa_supplicant/src/ap\ap_config.c **** 
 655:C:/Users/stapi/OneDrive/Desktop/GD32VW553/V1_MQTT_OK/GD32VW55X_Wifi_BLE_SDK/GD32VW55x_RELEASE_V1.0.2/MSDK/wpa_supplicant/src/ap\ap_config.c **** void hostapd_config_free_eap_users(struct hostapd_eap_user *user)
 656:C:/Users/stapi/OneDrive/Desktop/GD32VW553/V1_MQTT_OK/GD32VW55X_Wifi_BLE_SDK/GD32VW55x_RELEASE_V1.0.2/MSDK/wpa_supplicant/src/ap\ap_config.c **** {
 1003              		.loc 2 656 1 is_stmt 1
 1004              		.cfi_startproc
 1005              	.LVL88:
 657:C:/Users/stapi/OneDrive/Desktop/GD32VW553/V1_MQTT_OK/GD32VW55X_Wifi_BLE_SDK/GD32VW55x_RELEASE_V1.0.2/MSDK/wpa_supplicant/src/ap\ap_config.c **** 	struct hostapd_eap_user *prev_user;
 1006              		.loc 2 657 2
 658:C:/Users/stapi/OneDrive/Desktop/GD32VW553/V1_MQTT_OK/GD32VW55X_Wifi_BLE_SDK/GD32VW55x_RELEASE_V1.0.2/MSDK/wpa_supplicant/src/ap\ap_config.c **** 
 659:C:/Users/stapi/OneDrive/Desktop/GD32VW553/V1_MQTT_OK/GD32VW55X_Wifi_BLE_SDK/GD32VW55x_RELEASE_V1.0.2/MSDK/wpa_supplicant/src/ap\ap_config.c **** 	while (user) {
 1007              		.loc 2 659 2
 1008              		.loc 2 659 8
 1009 0000 11E1     		bne	a0,zero,.L66
 1010 0002 8280     		ret
 1011              	.L66:
 656:C:/Users/stapi/OneDrive/Desktop/GD32VW553/V1_MQTT_OK/GD32VW55X_Wifi_BLE_SDK/GD32VW55x_RELEASE_V1.0.2/MSDK/wpa_supplicant/src/ap\ap_config.c **** 	struct hostapd_eap_user *prev_user;
 1012              		.loc 2 656 1 is_stmt 0
 1013 0004 17030000 		call	t0,__riscv_save_1
 1013      E7020300 
 1014              		.cfi_offset 8, -8
 1015              		.cfi_offset 1, -4
 1016              		.cfi_def_cfa_offset 16
 1017              	.L63:
 660:C:/Users/stapi/OneDrive/Desktop/GD32VW553/V1_MQTT_OK/GD32VW55X_Wifi_BLE_SDK/GD32VW55x_RELEASE_V1.0.2/MSDK/wpa_supplicant/src/ap\ap_config.c **** 		prev_user = user;
 1018              		.loc 2 660 3 is_stmt 1
 1019              	.LVL89:
 661:C:/Users/stapi/OneDrive/Desktop/GD32VW553/V1_MQTT_OK/GD32VW55X_Wifi_BLE_SDK/GD32VW55x_RELEASE_V1.0.2/MSDK/wpa_supplicant/src/ap\ap_config.c **** 		user = user->next;
 1020              		.loc 2 661 3
 1021              		.loc 2 661 8 is_stmt 0
 1022 000c 0041     		lw	s0,0(a0)
 1023              	.LVL90:
 662:C:/Users/stapi/OneDrive/Desktop/GD32VW553/V1_MQTT_OK/GD32VW55X_Wifi_BLE_SDK/GD32VW55x_RELEASE_V1.0.2/MSDK/wpa_supplicant/src/ap\ap_config.c **** 		hostapd_config_free_eap_user(prev_user);
 1024              		.loc 2 662 3 is_stmt 1
 1025 000e 97000000 		call	hostapd_config_free_eap_user
 1025      E7800000 
 1026              	.LVL91:
 661:C:/Users/stapi/OneDrive/Desktop/GD32VW553/V1_MQTT_OK/GD32VW55X_Wifi_BLE_SDK/GD32VW55x_RELEASE_V1.0.2/MSDK/wpa_supplicant/src/ap\ap_config.c **** 		user = user->next;
 1027              		.loc 2 661 8 is_stmt 0
 1028 0016 2285     		mv	a0,s0
 659:C:/Users/stapi/OneDrive/Desktop/GD32VW553/V1_MQTT_OK/GD32VW55X_Wifi_BLE_SDK/GD32VW55x_RELEASE_V1.0.2/MSDK/wpa_supplicant/src/ap\ap_config.c **** 		prev_user = user;
 1029              		.loc 2 659 8 is_stmt 1
 1030 0018 75F8     		bne	s0,zero,.L63
 663:C:/Users/stapi/OneDrive/Desktop/GD32VW553/V1_MQTT_OK/GD32VW55X_Wifi_BLE_SDK/GD32VW55x_RELEASE_V1.0.2/MSDK/wpa_supplicant/src/ap\ap_config.c **** 	}
 664:C:/Users/stapi/OneDrive/Desktop/GD32VW553/V1_MQTT_OK/GD32VW55X_Wifi_BLE_SDK/GD32VW55x_RELEASE_V1.0.2/MSDK/wpa_supplicant/src/ap\ap_config.c **** }
 1031              		.loc 2 664 1 is_stmt 0
 1032 001a 17030000 		tail	__riscv_restore_1
 1032      67000300 
 1033              		.cfi_restore 8
 1034              		.cfi_restore 1
 1035              		.cfi_def_cfa_offset 0
 1036              		.cfi_endproc
 1037              	.LFE150:
 1039              		.section	.text.hostapd_config_clear_wpa_psk,"ax",@progbits
 1040              		.align	1
 1041              		.globl	hostapd_config_clear_wpa_psk
 1043              	hostapd_config_clear_wpa_psk:
 1044              	.LFB151:
 665:C:/Users/stapi/OneDrive/Desktop/GD32VW553/V1_MQTT_OK/GD32VW55X_Wifi_BLE_SDK/GD32VW55x_RELEASE_V1.0.2/MSDK/wpa_supplicant/src/ap\ap_config.c **** 
 666:C:/Users/stapi/OneDrive/Desktop/GD32VW553/V1_MQTT_OK/GD32VW55X_Wifi_BLE_SDK/GD32VW55x_RELEASE_V1.0.2/MSDK/wpa_supplicant/src/ap\ap_config.c **** 
 667:C:/Users/stapi/OneDrive/Desktop/GD32VW553/V1_MQTT_OK/GD32VW55X_Wifi_BLE_SDK/GD32VW55x_RELEASE_V1.0.2/MSDK/wpa_supplicant/src/ap\ap_config.c **** #ifdef CONFIG_WEP
 668:C:/Users/stapi/OneDrive/Desktop/GD32VW553/V1_MQTT_OK/GD32VW55X_Wifi_BLE_SDK/GD32VW55x_RELEASE_V1.0.2/MSDK/wpa_supplicant/src/ap\ap_config.c **** static void hostapd_config_free_wep(struct hostapd_wep_keys *keys)
 669:C:/Users/stapi/OneDrive/Desktop/GD32VW553/V1_MQTT_OK/GD32VW55X_Wifi_BLE_SDK/GD32VW55x_RELEASE_V1.0.2/MSDK/wpa_supplicant/src/ap\ap_config.c **** {
 670:C:/Users/stapi/OneDrive/Desktop/GD32VW553/V1_MQTT_OK/GD32VW55X_Wifi_BLE_SDK/GD32VW55x_RELEASE_V1.0.2/MSDK/wpa_supplicant/src/ap\ap_config.c **** 	int i;
 671:C:/Users/stapi/OneDrive/Desktop/GD32VW553/V1_MQTT_OK/GD32VW55X_Wifi_BLE_SDK/GD32VW55x_RELEASE_V1.0.2/MSDK/wpa_supplicant/src/ap\ap_config.c **** 	for (i = 0; i < NUM_WEP_KEYS; i++) {
 672:C:/Users/stapi/OneDrive/Desktop/GD32VW553/V1_MQTT_OK/GD32VW55X_Wifi_BLE_SDK/GD32VW55x_RELEASE_V1.0.2/MSDK/wpa_supplicant/src/ap\ap_config.c **** 		bin_clear_free(keys->key[i], keys->len[i]);
 673:C:/Users/stapi/OneDrive/Desktop/GD32VW553/V1_MQTT_OK/GD32VW55X_Wifi_BLE_SDK/GD32VW55x_RELEASE_V1.0.2/MSDK/wpa_supplicant/src/ap\ap_config.c **** 		keys->key[i] = NULL;
 674:C:/Users/stapi/OneDrive/Desktop/GD32VW553/V1_MQTT_OK/GD32VW55X_Wifi_BLE_SDK/GD32VW55x_RELEASE_V1.0.2/MSDK/wpa_supplicant/src/ap\ap_config.c **** 	}
 675:C:/Users/stapi/OneDrive/Desktop/GD32VW553/V1_MQTT_OK/GD32VW55X_Wifi_BLE_SDK/GD32VW55x_RELEASE_V1.0.2/MSDK/wpa_supplicant/src/ap\ap_config.c **** }
 676:C:/Users/stapi/OneDrive/Desktop/GD32VW553/V1_MQTT_OK/GD32VW55X_Wifi_BLE_SDK/GD32VW55x_RELEASE_V1.0.2/MSDK/wpa_supplicant/src/ap\ap_config.c **** #endif /* CONFIG_WEP */
 677:C:/Users/stapi/OneDrive/Desktop/GD32VW553/V1_MQTT_OK/GD32VW55X_Wifi_BLE_SDK/GD32VW55x_RELEASE_V1.0.2/MSDK/wpa_supplicant/src/ap\ap_config.c **** 
 678:C:/Users/stapi/OneDrive/Desktop/GD32VW553/V1_MQTT_OK/GD32VW55X_Wifi_BLE_SDK/GD32VW55x_RELEASE_V1.0.2/MSDK/wpa_supplicant/src/ap\ap_config.c **** 
 679:C:/Users/stapi/OneDrive/Desktop/GD32VW553/V1_MQTT_OK/GD32VW55X_Wifi_BLE_SDK/GD32VW55x_RELEASE_V1.0.2/MSDK/wpa_supplicant/src/ap\ap_config.c **** void hostapd_config_clear_wpa_psk(struct hostapd_wpa_psk **l)
 680:C:/Users/stapi/OneDrive/Desktop/GD32VW553/V1_MQTT_OK/GD32VW55X_Wifi_BLE_SDK/GD32VW55x_RELEASE_V1.0.2/MSDK/wpa_supplicant/src/ap\ap_config.c **** {
 1045              		.loc 2 680 1 is_stmt 1
 1046              		.cfi_startproc
 1047              	.LVL92:
 1048 0000 17030000 		call	t0,__riscv_save_2
 1048      E7020300 
 1049              		.cfi_offset 9, -12
 1050              		.cfi_offset 8, -8
 1051              		.cfi_offset 1, -4
 1052              		.cfi_def_cfa_offset 16
 681:C:/Users/stapi/OneDrive/Desktop/GD32VW553/V1_MQTT_OK/GD32VW55X_Wifi_BLE_SDK/GD32VW55x_RELEASE_V1.0.2/MSDK/wpa_supplicant/src/ap\ap_config.c **** 	struct hostapd_wpa_psk *psk, *tmp;
 1053              		.loc 2 681 2
 682:C:/Users/stapi/OneDrive/Desktop/GD32VW553/V1_MQTT_OK/GD32VW55X_Wifi_BLE_SDK/GD32VW55x_RELEASE_V1.0.2/MSDK/wpa_supplicant/src/ap\ap_config.c **** 
 683:C:/Users/stapi/OneDrive/Desktop/GD32VW553/V1_MQTT_OK/GD32VW55X_Wifi_BLE_SDK/GD32VW55x_RELEASE_V1.0.2/MSDK/wpa_supplicant/src/ap\ap_config.c **** 	for (psk = *l; psk;) {
 1054              		.loc 2 683 2
 680:C:/Users/stapi/OneDrive/Desktop/GD32VW553/V1_MQTT_OK/GD32VW55X_Wifi_BLE_SDK/GD32VW55x_RELEASE_V1.0.2/MSDK/wpa_supplicant/src/ap\ap_config.c **** 	struct hostapd_wpa_psk *psk, *tmp;
 1055              		.loc 2 680 1 is_stmt 0
 1056 0008 2A84     		mv	s0,a0
 1057              		.loc 2 683 11
 1058 000a 0841     		lw	a0,0(a0)
 1059              	.LVL93:
 1060              	.L68:
 1061              		.loc 2 683 17 is_stmt 1 discriminator 1
 1062              		.loc 2 683 2 is_stmt 0 discriminator 1
 1063 000c 19E5     		bne	a0,zero,.L69
 684:C:/Users/stapi/OneDrive/Desktop/GD32VW553/V1_MQTT_OK/GD32VW55X_Wifi_BLE_SDK/GD32VW55x_RELEASE_V1.0.2/MSDK/wpa_supplicant/src/ap\ap_config.c **** 		tmp = psk;
 685:C:/Users/stapi/OneDrive/Desktop/GD32VW553/V1_MQTT_OK/GD32VW55X_Wifi_BLE_SDK/GD32VW55x_RELEASE_V1.0.2/MSDK/wpa_supplicant/src/ap\ap_config.c **** 		psk = psk->next;
 686:C:/Users/stapi/OneDrive/Desktop/GD32VW553/V1_MQTT_OK/GD32VW55X_Wifi_BLE_SDK/GD32VW55x_RELEASE_V1.0.2/MSDK/wpa_supplicant/src/ap\ap_config.c **** 		bin_clear_free(tmp, sizeof(*tmp));
 687:C:/Users/stapi/OneDrive/Desktop/GD32VW553/V1_MQTT_OK/GD32VW55X_Wifi_BLE_SDK/GD32VW55x_RELEASE_V1.0.2/MSDK/wpa_supplicant/src/ap\ap_config.c **** 	}
 688:C:/Users/stapi/OneDrive/Desktop/GD32VW553/V1_MQTT_OK/GD32VW55X_Wifi_BLE_SDK/GD32VW55x_RELEASE_V1.0.2/MSDK/wpa_supplicant/src/ap\ap_config.c **** 	*l = NULL;
 1064              		.loc 2 688 2 is_stmt 1
 1065              		.loc 2 688 5 is_stmt 0
 1066 000e 23200400 		sw	zero,0(s0)
 689:C:/Users/stapi/OneDrive/Desktop/GD32VW553/V1_MQTT_OK/GD32VW55X_Wifi_BLE_SDK/GD32VW55x_RELEASE_V1.0.2/MSDK/wpa_supplicant/src/ap\ap_config.c **** }
 1067              		.loc 2 689 1
 1068 0012 17030000 		tail	__riscv_restore_2
 1068      67000300 
 1069              		.cfi_remember_state
 1070              		.cfi_restore 9
 1071              		.cfi_restore 8
 1072              		.cfi_restore 1
 1073              		.cfi_def_cfa_offset 0
 1074              	.L69:
 1075              		.cfi_restore_state
 684:C:/Users/stapi/OneDrive/Desktop/GD32VW553/V1_MQTT_OK/GD32VW55X_Wifi_BLE_SDK/GD32VW55x_RELEASE_V1.0.2/MSDK/wpa_supplicant/src/ap\ap_config.c **** 		tmp = psk;
 1076              		.loc 2 684 3 is_stmt 1
 1077              	.LVL94:
 685:C:/Users/stapi/OneDrive/Desktop/GD32VW553/V1_MQTT_OK/GD32VW55X_Wifi_BLE_SDK/GD32VW55x_RELEASE_V1.0.2/MSDK/wpa_supplicant/src/ap\ap_config.c **** 		bin_clear_free(tmp, sizeof(*tmp));
 1078              		.loc 2 685 3
 685:C:/Users/stapi/OneDrive/Desktop/GD32VW553/V1_MQTT_OK/GD32VW55X_Wifi_BLE_SDK/GD32VW55x_RELEASE_V1.0.2/MSDK/wpa_supplicant/src/ap\ap_config.c **** 		bin_clear_free(tmp, sizeof(*tmp));
 1079              		.loc 2 685 7 is_stmt 0
 1080 001a 0441     		lw	s1,0(a0)
 1081              	.LVL95:
 686:C:/Users/stapi/OneDrive/Desktop/GD32VW553/V1_MQTT_OK/GD32VW55X_Wifi_BLE_SDK/GD32VW55x_RELEASE_V1.0.2/MSDK/wpa_supplicant/src/ap\ap_config.c **** 	}
 1082              		.loc 2 686 3 is_stmt 1
 1083 001c 9305C005 		li	a1,92
 1084 0020 97000000 		call	bin_clear_free
 1084      E7800000 
 1085              	.LVL96:
 685:C:/Users/stapi/OneDrive/Desktop/GD32VW553/V1_MQTT_OK/GD32VW55X_Wifi_BLE_SDK/GD32VW55x_RELEASE_V1.0.2/MSDK/wpa_supplicant/src/ap\ap_config.c **** 		bin_clear_free(tmp, sizeof(*tmp));
 1086              		.loc 2 685 7 is_stmt 0
 1087 0028 2685     		mv	a0,s1
 1088 002a CDB7     		j	.L68
 1089              		.cfi_endproc
 1090              	.LFE151:
 1092              		.section	.text.hostapd_config_free_bss,"ax",@progbits
 1093              		.align	1
 1094              		.globl	hostapd_config_free_bss
 1096              	hostapd_config_free_bss:
 1097              	.LFB155:
 690:C:/Users/stapi/OneDrive/Desktop/GD32VW553/V1_MQTT_OK/GD32VW55X_Wifi_BLE_SDK/GD32VW55x_RELEASE_V1.0.2/MSDK/wpa_supplicant/src/ap\ap_config.c **** 
 691:C:/Users/stapi/OneDrive/Desktop/GD32VW553/V1_MQTT_OK/GD32VW55X_Wifi_BLE_SDK/GD32VW55x_RELEASE_V1.0.2/MSDK/wpa_supplicant/src/ap\ap_config.c **** 
 692:C:/Users/stapi/OneDrive/Desktop/GD32VW553/V1_MQTT_OK/GD32VW55X_Wifi_BLE_SDK/GD32VW55x_RELEASE_V1.0.2/MSDK/wpa_supplicant/src/ap\ap_config.c **** static void hostapd_config_free_anqp_elem(struct hostapd_bss_config *conf)
 693:C:/Users/stapi/OneDrive/Desktop/GD32VW553/V1_MQTT_OK/GD32VW55X_Wifi_BLE_SDK/GD32VW55x_RELEASE_V1.0.2/MSDK/wpa_supplicant/src/ap\ap_config.c **** {
 694:C:/Users/stapi/OneDrive/Desktop/GD32VW553/V1_MQTT_OK/GD32VW55X_Wifi_BLE_SDK/GD32VW55x_RELEASE_V1.0.2/MSDK/wpa_supplicant/src/ap\ap_config.c **** 	struct anqp_element *elem;
 695:C:/Users/stapi/OneDrive/Desktop/GD32VW553/V1_MQTT_OK/GD32VW55X_Wifi_BLE_SDK/GD32VW55x_RELEASE_V1.0.2/MSDK/wpa_supplicant/src/ap\ap_config.c **** 
 696:C:/Users/stapi/OneDrive/Desktop/GD32VW553/V1_MQTT_OK/GD32VW55X_Wifi_BLE_SDK/GD32VW55x_RELEASE_V1.0.2/MSDK/wpa_supplicant/src/ap\ap_config.c **** 	while ((elem = dl_list_first(&conf->anqp_elem, struct anqp_element,
 697:C:/Users/stapi/OneDrive/Desktop/GD32VW553/V1_MQTT_OK/GD32VW55X_Wifi_BLE_SDK/GD32VW55x_RELEASE_V1.0.2/MSDK/wpa_supplicant/src/ap\ap_config.c **** 				     list))) {
 698:C:/Users/stapi/OneDrive/Desktop/GD32VW553/V1_MQTT_OK/GD32VW55X_Wifi_BLE_SDK/GD32VW55x_RELEASE_V1.0.2/MSDK/wpa_supplicant/src/ap\ap_config.c **** 		dl_list_del(&elem->list);
 699:C:/Users/stapi/OneDrive/Desktop/GD32VW553/V1_MQTT_OK/GD32VW55X_Wifi_BLE_SDK/GD32VW55x_RELEASE_V1.0.2/MSDK/wpa_supplicant/src/ap\ap_config.c **** 		wpabuf_free(elem->payload);
 700:C:/Users/stapi/OneDrive/Desktop/GD32VW553/V1_MQTT_OK/GD32VW55X_Wifi_BLE_SDK/GD32VW55x_RELEASE_V1.0.2/MSDK/wpa_supplicant/src/ap\ap_config.c **** 		os_free(elem);
 701:C:/Users/stapi/OneDrive/Desktop/GD32VW553/V1_MQTT_OK/GD32VW55X_Wifi_BLE_SDK/GD32VW55x_RELEASE_V1.0.2/MSDK/wpa_supplicant/src/ap\ap_config.c **** 	}
 702:C:/Users/stapi/OneDrive/Desktop/GD32VW553/V1_MQTT_OK/GD32VW55X_Wifi_BLE_SDK/GD32VW55x_RELEASE_V1.0.2/MSDK/wpa_supplicant/src/ap\ap_config.c **** }
 703:C:/Users/stapi/OneDrive/Desktop/GD32VW553/V1_MQTT_OK/GD32VW55X_Wifi_BLE_SDK/GD32VW55x_RELEASE_V1.0.2/MSDK/wpa_supplicant/src/ap\ap_config.c **** 
 704:C:/Users/stapi/OneDrive/Desktop/GD32VW553/V1_MQTT_OK/GD32VW55X_Wifi_BLE_SDK/GD32VW55x_RELEASE_V1.0.2/MSDK/wpa_supplicant/src/ap\ap_config.c **** 
 705:C:/Users/stapi/OneDrive/Desktop/GD32VW553/V1_MQTT_OK/GD32VW55X_Wifi_BLE_SDK/GD32VW55x_RELEASE_V1.0.2/MSDK/wpa_supplicant/src/ap\ap_config.c **** static void hostapd_config_free_fils_realms(struct hostapd_bss_config *conf)
 706:C:/Users/stapi/OneDrive/Desktop/GD32VW553/V1_MQTT_OK/GD32VW55X_Wifi_BLE_SDK/GD32VW55x_RELEASE_V1.0.2/MSDK/wpa_supplicant/src/ap\ap_config.c **** {
 707:C:/Users/stapi/OneDrive/Desktop/GD32VW553/V1_MQTT_OK/GD32VW55X_Wifi_BLE_SDK/GD32VW55x_RELEASE_V1.0.2/MSDK/wpa_supplicant/src/ap\ap_config.c **** #ifdef CONFIG_FILS
 708:C:/Users/stapi/OneDrive/Desktop/GD32VW553/V1_MQTT_OK/GD32VW55X_Wifi_BLE_SDK/GD32VW55x_RELEASE_V1.0.2/MSDK/wpa_supplicant/src/ap\ap_config.c **** 	struct fils_realm *realm;
 709:C:/Users/stapi/OneDrive/Desktop/GD32VW553/V1_MQTT_OK/GD32VW55X_Wifi_BLE_SDK/GD32VW55x_RELEASE_V1.0.2/MSDK/wpa_supplicant/src/ap\ap_config.c **** 
 710:C:/Users/stapi/OneDrive/Desktop/GD32VW553/V1_MQTT_OK/GD32VW55X_Wifi_BLE_SDK/GD32VW55x_RELEASE_V1.0.2/MSDK/wpa_supplicant/src/ap\ap_config.c **** 	while ((realm = dl_list_first(&conf->fils_realms, struct fils_realm,
 711:C:/Users/stapi/OneDrive/Desktop/GD32VW553/V1_MQTT_OK/GD32VW55X_Wifi_BLE_SDK/GD32VW55x_RELEASE_V1.0.2/MSDK/wpa_supplicant/src/ap\ap_config.c **** 				      list))) {
 712:C:/Users/stapi/OneDrive/Desktop/GD32VW553/V1_MQTT_OK/GD32VW55X_Wifi_BLE_SDK/GD32VW55x_RELEASE_V1.0.2/MSDK/wpa_supplicant/src/ap\ap_config.c **** 		dl_list_del(&realm->list);
 713:C:/Users/stapi/OneDrive/Desktop/GD32VW553/V1_MQTT_OK/GD32VW55X_Wifi_BLE_SDK/GD32VW55x_RELEASE_V1.0.2/MSDK/wpa_supplicant/src/ap\ap_config.c **** 		os_free(realm);
 714:C:/Users/stapi/OneDrive/Desktop/GD32VW553/V1_MQTT_OK/GD32VW55X_Wifi_BLE_SDK/GD32VW55x_RELEASE_V1.0.2/MSDK/wpa_supplicant/src/ap\ap_config.c **** 	}
 715:C:/Users/stapi/OneDrive/Desktop/GD32VW553/V1_MQTT_OK/GD32VW55X_Wifi_BLE_SDK/GD32VW55x_RELEASE_V1.0.2/MSDK/wpa_supplicant/src/ap\ap_config.c **** #endif /* CONFIG_FILS */
 716:C:/Users/stapi/OneDrive/Desktop/GD32VW553/V1_MQTT_OK/GD32VW55X_Wifi_BLE_SDK/GD32VW55x_RELEASE_V1.0.2/MSDK/wpa_supplicant/src/ap\ap_config.c **** }
 717:C:/Users/stapi/OneDrive/Desktop/GD32VW553/V1_MQTT_OK/GD32VW55X_Wifi_BLE_SDK/GD32VW55x_RELEASE_V1.0.2/MSDK/wpa_supplicant/src/ap\ap_config.c **** 
 718:C:/Users/stapi/OneDrive/Desktop/GD32VW553/V1_MQTT_OK/GD32VW55X_Wifi_BLE_SDK/GD32VW55x_RELEASE_V1.0.2/MSDK/wpa_supplicant/src/ap\ap_config.c **** 
 719:C:/Users/stapi/OneDrive/Desktop/GD32VW553/V1_MQTT_OK/GD32VW55X_Wifi_BLE_SDK/GD32VW55x_RELEASE_V1.0.2/MSDK/wpa_supplicant/src/ap\ap_config.c **** static void hostapd_config_free_sae_passwords(struct hostapd_bss_config *conf)
 720:C:/Users/stapi/OneDrive/Desktop/GD32VW553/V1_MQTT_OK/GD32VW55X_Wifi_BLE_SDK/GD32VW55x_RELEASE_V1.0.2/MSDK/wpa_supplicant/src/ap\ap_config.c **** {
 721:C:/Users/stapi/OneDrive/Desktop/GD32VW553/V1_MQTT_OK/GD32VW55X_Wifi_BLE_SDK/GD32VW55x_RELEASE_V1.0.2/MSDK/wpa_supplicant/src/ap\ap_config.c **** 	struct sae_password_entry *pw, *tmp;
 722:C:/Users/stapi/OneDrive/Desktop/GD32VW553/V1_MQTT_OK/GD32VW55X_Wifi_BLE_SDK/GD32VW55x_RELEASE_V1.0.2/MSDK/wpa_supplicant/src/ap\ap_config.c **** 
 723:C:/Users/stapi/OneDrive/Desktop/GD32VW553/V1_MQTT_OK/GD32VW55X_Wifi_BLE_SDK/GD32VW55x_RELEASE_V1.0.2/MSDK/wpa_supplicant/src/ap\ap_config.c **** 	pw = conf->sae_passwords;
 724:C:/Users/stapi/OneDrive/Desktop/GD32VW553/V1_MQTT_OK/GD32VW55X_Wifi_BLE_SDK/GD32VW55x_RELEASE_V1.0.2/MSDK/wpa_supplicant/src/ap\ap_config.c **** 	conf->sae_passwords = NULL;
 725:C:/Users/stapi/OneDrive/Desktop/GD32VW553/V1_MQTT_OK/GD32VW55X_Wifi_BLE_SDK/GD32VW55x_RELEASE_V1.0.2/MSDK/wpa_supplicant/src/ap\ap_config.c **** 	while (pw) {
 726:C:/Users/stapi/OneDrive/Desktop/GD32VW553/V1_MQTT_OK/GD32VW55X_Wifi_BLE_SDK/GD32VW55x_RELEASE_V1.0.2/MSDK/wpa_supplicant/src/ap\ap_config.c **** 		tmp = pw;
 727:C:/Users/stapi/OneDrive/Desktop/GD32VW553/V1_MQTT_OK/GD32VW55X_Wifi_BLE_SDK/GD32VW55x_RELEASE_V1.0.2/MSDK/wpa_supplicant/src/ap\ap_config.c **** 		pw = pw->next;
 728:C:/Users/stapi/OneDrive/Desktop/GD32VW553/V1_MQTT_OK/GD32VW55X_Wifi_BLE_SDK/GD32VW55x_RELEASE_V1.0.2/MSDK/wpa_supplicant/src/ap\ap_config.c **** 		str_clear_free(tmp->password);
 729:C:/Users/stapi/OneDrive/Desktop/GD32VW553/V1_MQTT_OK/GD32VW55X_Wifi_BLE_SDK/GD32VW55x_RELEASE_V1.0.2/MSDK/wpa_supplicant/src/ap\ap_config.c **** 		os_free(tmp->identifier);
 730:C:/Users/stapi/OneDrive/Desktop/GD32VW553/V1_MQTT_OK/GD32VW55X_Wifi_BLE_SDK/GD32VW55x_RELEASE_V1.0.2/MSDK/wpa_supplicant/src/ap\ap_config.c **** #ifdef CONFIG_SAE
 731:C:/Users/stapi/OneDrive/Desktop/GD32VW553/V1_MQTT_OK/GD32VW55X_Wifi_BLE_SDK/GD32VW55x_RELEASE_V1.0.2/MSDK/wpa_supplicant/src/ap\ap_config.c **** 		sae_deinit_pt(tmp->pt);
 732:C:/Users/stapi/OneDrive/Desktop/GD32VW553/V1_MQTT_OK/GD32VW55X_Wifi_BLE_SDK/GD32VW55x_RELEASE_V1.0.2/MSDK/wpa_supplicant/src/ap\ap_config.c **** #endif /* CONFIG_SAE */
 733:C:/Users/stapi/OneDrive/Desktop/GD32VW553/V1_MQTT_OK/GD32VW55X_Wifi_BLE_SDK/GD32VW55x_RELEASE_V1.0.2/MSDK/wpa_supplicant/src/ap\ap_config.c **** #ifdef CONFIG_SAE_PK
 734:C:/Users/stapi/OneDrive/Desktop/GD32VW553/V1_MQTT_OK/GD32VW55X_Wifi_BLE_SDK/GD32VW55x_RELEASE_V1.0.2/MSDK/wpa_supplicant/src/ap\ap_config.c **** 		sae_deinit_pk(tmp->pk);
 735:C:/Users/stapi/OneDrive/Desktop/GD32VW553/V1_MQTT_OK/GD32VW55X_Wifi_BLE_SDK/GD32VW55x_RELEASE_V1.0.2/MSDK/wpa_supplicant/src/ap\ap_config.c **** #endif /* CONFIG_SAE_PK */
 736:C:/Users/stapi/OneDrive/Desktop/GD32VW553/V1_MQTT_OK/GD32VW55X_Wifi_BLE_SDK/GD32VW55x_RELEASE_V1.0.2/MSDK/wpa_supplicant/src/ap\ap_config.c **** 		os_free(tmp);
 737:C:/Users/stapi/OneDrive/Desktop/GD32VW553/V1_MQTT_OK/GD32VW55X_Wifi_BLE_SDK/GD32VW55x_RELEASE_V1.0.2/MSDK/wpa_supplicant/src/ap\ap_config.c **** 	}
 738:C:/Users/stapi/OneDrive/Desktop/GD32VW553/V1_MQTT_OK/GD32VW55X_Wifi_BLE_SDK/GD32VW55x_RELEASE_V1.0.2/MSDK/wpa_supplicant/src/ap\ap_config.c **** }
 739:C:/Users/stapi/OneDrive/Desktop/GD32VW553/V1_MQTT_OK/GD32VW55X_Wifi_BLE_SDK/GD32VW55x_RELEASE_V1.0.2/MSDK/wpa_supplicant/src/ap\ap_config.c **** 
 740:C:/Users/stapi/OneDrive/Desktop/GD32VW553/V1_MQTT_OK/GD32VW55X_Wifi_BLE_SDK/GD32VW55x_RELEASE_V1.0.2/MSDK/wpa_supplicant/src/ap\ap_config.c **** 
 741:C:/Users/stapi/OneDrive/Desktop/GD32VW553/V1_MQTT_OK/GD32VW55X_Wifi_BLE_SDK/GD32VW55x_RELEASE_V1.0.2/MSDK/wpa_supplicant/src/ap\ap_config.c **** #ifdef CONFIG_DPP2
 742:C:/Users/stapi/OneDrive/Desktop/GD32VW553/V1_MQTT_OK/GD32VW55X_Wifi_BLE_SDK/GD32VW55x_RELEASE_V1.0.2/MSDK/wpa_supplicant/src/ap\ap_config.c **** static void hostapd_dpp_controller_conf_free(struct dpp_controller_conf *conf)
 743:C:/Users/stapi/OneDrive/Desktop/GD32VW553/V1_MQTT_OK/GD32VW55X_Wifi_BLE_SDK/GD32VW55x_RELEASE_V1.0.2/MSDK/wpa_supplicant/src/ap\ap_config.c **** {
 744:C:/Users/stapi/OneDrive/Desktop/GD32VW553/V1_MQTT_OK/GD32VW55X_Wifi_BLE_SDK/GD32VW55x_RELEASE_V1.0.2/MSDK/wpa_supplicant/src/ap\ap_config.c **** 	struct dpp_controller_conf *prev;
 745:C:/Users/stapi/OneDrive/Desktop/GD32VW553/V1_MQTT_OK/GD32VW55X_Wifi_BLE_SDK/GD32VW55x_RELEASE_V1.0.2/MSDK/wpa_supplicant/src/ap\ap_config.c **** 
 746:C:/Users/stapi/OneDrive/Desktop/GD32VW553/V1_MQTT_OK/GD32VW55X_Wifi_BLE_SDK/GD32VW55x_RELEASE_V1.0.2/MSDK/wpa_supplicant/src/ap\ap_config.c **** 	while (conf) {
 747:C:/Users/stapi/OneDrive/Desktop/GD32VW553/V1_MQTT_OK/GD32VW55X_Wifi_BLE_SDK/GD32VW55x_RELEASE_V1.0.2/MSDK/wpa_supplicant/src/ap\ap_config.c **** 		prev = conf;
 748:C:/Users/stapi/OneDrive/Desktop/GD32VW553/V1_MQTT_OK/GD32VW55X_Wifi_BLE_SDK/GD32VW55x_RELEASE_V1.0.2/MSDK/wpa_supplicant/src/ap\ap_config.c **** 		conf = conf->next;
 749:C:/Users/stapi/OneDrive/Desktop/GD32VW553/V1_MQTT_OK/GD32VW55X_Wifi_BLE_SDK/GD32VW55x_RELEASE_V1.0.2/MSDK/wpa_supplicant/src/ap\ap_config.c **** 		os_free(prev);
 750:C:/Users/stapi/OneDrive/Desktop/GD32VW553/V1_MQTT_OK/GD32VW55X_Wifi_BLE_SDK/GD32VW55x_RELEASE_V1.0.2/MSDK/wpa_supplicant/src/ap\ap_config.c **** 	}
 751:C:/Users/stapi/OneDrive/Desktop/GD32VW553/V1_MQTT_OK/GD32VW55X_Wifi_BLE_SDK/GD32VW55x_RELEASE_V1.0.2/MSDK/wpa_supplicant/src/ap\ap_config.c **** }
 752:C:/Users/stapi/OneDrive/Desktop/GD32VW553/V1_MQTT_OK/GD32VW55X_Wifi_BLE_SDK/GD32VW55x_RELEASE_V1.0.2/MSDK/wpa_supplicant/src/ap\ap_config.c **** #endif /* CONFIG_DPP2 */
 753:C:/Users/stapi/OneDrive/Desktop/GD32VW553/V1_MQTT_OK/GD32VW55X_Wifi_BLE_SDK/GD32VW55x_RELEASE_V1.0.2/MSDK/wpa_supplicant/src/ap\ap_config.c **** 
 754:C:/Users/stapi/OneDrive/Desktop/GD32VW553/V1_MQTT_OK/GD32VW55X_Wifi_BLE_SDK/GD32VW55x_RELEASE_V1.0.2/MSDK/wpa_supplicant/src/ap\ap_config.c **** 
 755:C:/Users/stapi/OneDrive/Desktop/GD32VW553/V1_MQTT_OK/GD32VW55X_Wifi_BLE_SDK/GD32VW55x_RELEASE_V1.0.2/MSDK/wpa_supplicant/src/ap\ap_config.c **** void hostapd_config_free_bss(struct hostapd_bss_config *conf)
 756:C:/Users/stapi/OneDrive/Desktop/GD32VW553/V1_MQTT_OK/GD32VW55X_Wifi_BLE_SDK/GD32VW55x_RELEASE_V1.0.2/MSDK/wpa_supplicant/src/ap\ap_config.c **** {
 1098              		.loc 2 756 1 is_stmt 1
 1099              		.cfi_startproc
 1100              	.LVL97:
 757:C:/Users/stapi/OneDrive/Desktop/GD32VW553/V1_MQTT_OK/GD32VW55X_Wifi_BLE_SDK/GD32VW55x_RELEASE_V1.0.2/MSDK/wpa_supplicant/src/ap\ap_config.c **** #if defined(CONFIG_WPS) || defined(CONFIG_HS20)
 758:C:/Users/stapi/OneDrive/Desktop/GD32VW553/V1_MQTT_OK/GD32VW55X_Wifi_BLE_SDK/GD32VW55x_RELEASE_V1.0.2/MSDK/wpa_supplicant/src/ap\ap_config.c **** 	size_t i;
 759:C:/Users/stapi/OneDrive/Desktop/GD32VW553/V1_MQTT_OK/GD32VW55X_Wifi_BLE_SDK/GD32VW55x_RELEASE_V1.0.2/MSDK/wpa_supplicant/src/ap\ap_config.c **** #endif
 760:C:/Users/stapi/OneDrive/Desktop/GD32VW553/V1_MQTT_OK/GD32VW55X_Wifi_BLE_SDK/GD32VW55x_RELEASE_V1.0.2/MSDK/wpa_supplicant/src/ap\ap_config.c **** 
 761:C:/Users/stapi/OneDrive/Desktop/GD32VW553/V1_MQTT_OK/GD32VW55X_Wifi_BLE_SDK/GD32VW55x_RELEASE_V1.0.2/MSDK/wpa_supplicant/src/ap\ap_config.c **** 	if (conf == NULL)
 1101              		.loc 2 761 2
 1102              		.loc 2 761 5 is_stmt 0
 1103 0000 630B052E 		beq	a0,zero,.L88
 756:C:/Users/stapi/OneDrive/Desktop/GD32VW553/V1_MQTT_OK/GD32VW55X_Wifi_BLE_SDK/GD32VW55x_RELEASE_V1.0.2/MSDK/wpa_supplicant/src/ap\ap_config.c **** #if defined(CONFIG_WPS) || defined(CONFIG_HS20)
 1104              		.loc 2 756 1
 1105 0004 17030000 		call	t0,__riscv_save_3
 1105      E7020300 
 1106              		.cfi_offset 18, -16
 1107              		.cfi_offset 9, -12
 1108              		.cfi_offset 8, -8
 1109              		.cfi_offset 1, -4
 1110              		.cfi_def_cfa_offset 16
 1111 000c 2A84     		mv	s0,a0
 1112              	.LVL98:
 1113              	.LBB50:
 1114              	.LBB51:
 762:C:/Users/stapi/OneDrive/Desktop/GD32VW553/V1_MQTT_OK/GD32VW55X_Wifi_BLE_SDK/GD32VW55x_RELEASE_V1.0.2/MSDK/wpa_supplicant/src/ap\ap_config.c **** 		return;
 763:C:/Users/stapi/OneDrive/Desktop/GD32VW553/V1_MQTT_OK/GD32VW55X_Wifi_BLE_SDK/GD32VW55x_RELEASE_V1.0.2/MSDK/wpa_supplicant/src/ap\ap_config.c **** 
 764:C:/Users/stapi/OneDrive/Desktop/GD32VW553/V1_MQTT_OK/GD32VW55X_Wifi_BLE_SDK/GD32VW55x_RELEASE_V1.0.2/MSDK/wpa_supplicant/src/ap\ap_config.c **** 	hostapd_config_clear_wpa_psk(&conf->ssid.wpa_psk);
 1115              		.loc 2 764 2 is_stmt 1
 1116 000e 1305C50E 		addi	a0,a0,236
 1117              	.LVL99:
 765:C:/Users/stapi/OneDrive/Desktop/GD32VW553/V1_MQTT_OK/GD32VW55X_Wifi_BLE_SDK/GD32VW55x_RELEASE_V1.0.2/MSDK/wpa_supplicant/src/ap\ap_config.c **** 
 766:C:/Users/stapi/OneDrive/Desktop/GD32VW553/V1_MQTT_OK/GD32VW55X_Wifi_BLE_SDK/GD32VW55x_RELEASE_V1.0.2/MSDK/wpa_supplicant/src/ap\ap_config.c **** 	str_clear_free(conf->ssid.wpa_passphrase);
 1118              		.loc 2 766 2 is_stmt 0
 1119 0012 93040408 		addi	s1,s0,128
 764:C:/Users/stapi/OneDrive/Desktop/GD32VW553/V1_MQTT_OK/GD32VW55X_Wifi_BLE_SDK/GD32VW55x_RELEASE_V1.0.2/MSDK/wpa_supplicant/src/ap\ap_config.c **** 
 1120              		.loc 2 764 2
 1121 0016 97000000 		call	hostapd_config_clear_wpa_psk
 1121      E7800000 
 1122              	.LVL100:
 1123              		.loc 2 766 2 is_stmt 1
 1124 001e A858     		lw	a0,112(s1)
 1125 0020 97000000 		call	str_clear_free
 1125      E7800000 
 1126              	.LVL101:
 767:C:/Users/stapi/OneDrive/Desktop/GD32VW553/V1_MQTT_OK/GD32VW55X_Wifi_BLE_SDK/GD32VW55x_RELEASE_V1.0.2/MSDK/wpa_supplicant/src/ap\ap_config.c **** 	os_free(conf->ssid.wpa_psk_file);
 1127              		.loc 2 767 2
 1128 0028 E858     		lw	a0,116(s1)
 1129 002a 97000000 		call	os_free
 1129      E7800000 
 1130              	.LVL102:
 768:C:/Users/stapi/OneDrive/Desktop/GD32VW553/V1_MQTT_OK/GD32VW55X_Wifi_BLE_SDK/GD32VW55x_RELEASE_V1.0.2/MSDK/wpa_supplicant/src/ap\ap_config.c **** #ifdef CONFIG_WEP
 769:C:/Users/stapi/OneDrive/Desktop/GD32VW553/V1_MQTT_OK/GD32VW55X_Wifi_BLE_SDK/GD32VW55x_RELEASE_V1.0.2/MSDK/wpa_supplicant/src/ap\ap_config.c **** 	hostapd_config_free_wep(&conf->ssid.wep);
 770:C:/Users/stapi/OneDrive/Desktop/GD32VW553/V1_MQTT_OK/GD32VW55X_Wifi_BLE_SDK/GD32VW55x_RELEASE_V1.0.2/MSDK/wpa_supplicant/src/ap\ap_config.c **** #endif /* CONFIG_WEP */
 771:C:/Users/stapi/OneDrive/Desktop/GD32VW553/V1_MQTT_OK/GD32VW55X_Wifi_BLE_SDK/GD32VW55x_RELEASE_V1.0.2/MSDK/wpa_supplicant/src/ap\ap_config.c **** #ifdef CONFIG_FULL_DYNAMIC_VLAN
 772:C:/Users/stapi/OneDrive/Desktop/GD32VW553/V1_MQTT_OK/GD32VW55X_Wifi_BLE_SDK/GD32VW55x_RELEASE_V1.0.2/MSDK/wpa_supplicant/src/ap\ap_config.c **** 	os_free(conf->ssid.vlan_tagged_interface);
 773:C:/Users/stapi/OneDrive/Desktop/GD32VW553/V1_MQTT_OK/GD32VW55X_Wifi_BLE_SDK/GD32VW55x_RELEASE_V1.0.2/MSDK/wpa_supplicant/src/ap\ap_config.c **** #endif /* CONFIG_FULL_DYNAMIC_VLAN */
 774:C:/Users/stapi/OneDrive/Desktop/GD32VW553/V1_MQTT_OK/GD32VW55X_Wifi_BLE_SDK/GD32VW55x_RELEASE_V1.0.2/MSDK/wpa_supplicant/src/ap\ap_config.c **** #ifdef CONFIG_SAE
 775:C:/Users/stapi/OneDrive/Desktop/GD32VW553/V1_MQTT_OK/GD32VW55X_Wifi_BLE_SDK/GD32VW55x_RELEASE_V1.0.2/MSDK/wpa_supplicant/src/ap\ap_config.c **** 	sae_deinit_pt(conf->ssid.pt);
 1131              		.loc 2 775 2
 1132 0032 A85C     		lw	a0,120(s1)
 776:C:/Users/stapi/OneDrive/Desktop/GD32VW553/V1_MQTT_OK/GD32VW55X_Wifi_BLE_SDK/GD32VW55x_RELEASE_V1.0.2/MSDK/wpa_supplicant/src/ap\ap_config.c **** #endif /* CONFIG_SAE */
 777:C:/Users/stapi/OneDrive/Desktop/GD32VW553/V1_MQTT_OK/GD32VW55X_Wifi_BLE_SDK/GD32VW55x_RELEASE_V1.0.2/MSDK/wpa_supplicant/src/ap\ap_config.c **** 
 778:C:/Users/stapi/OneDrive/Desktop/GD32VW553/V1_MQTT_OK/GD32VW55X_Wifi_BLE_SDK/GD32VW55x_RELEASE_V1.0.2/MSDK/wpa_supplicant/src/ap\ap_config.c **** 	hostapd_config_free_eap_users(conf->eap_user);
 779:C:/Users/stapi/OneDrive/Desktop/GD32VW553/V1_MQTT_OK/GD32VW55X_Wifi_BLE_SDK/GD32VW55x_RELEASE_V1.0.2/MSDK/wpa_supplicant/src/ap\ap_config.c **** 	os_free(conf->eap_user_sqlite);
 780:C:/Users/stapi/OneDrive/Desktop/GD32VW553/V1_MQTT_OK/GD32VW55X_Wifi_BLE_SDK/GD32VW55x_RELEASE_V1.0.2/MSDK/wpa_supplicant/src/ap\ap_config.c **** 
 781:C:/Users/stapi/OneDrive/Desktop/GD32VW553/V1_MQTT_OK/GD32VW55X_Wifi_BLE_SDK/GD32VW55x_RELEASE_V1.0.2/MSDK/wpa_supplicant/src/ap\ap_config.c **** 	os_free(conf->eap_req_id_text);
 1133              		.loc 2 781 2 is_stmt 0
 1134 0034 93040410 		addi	s1,s0,256
 775:C:/Users/stapi/OneDrive/Desktop/GD32VW553/V1_MQTT_OK/GD32VW55X_Wifi_BLE_SDK/GD32VW55x_RELEASE_V1.0.2/MSDK/wpa_supplicant/src/ap\ap_config.c **** #endif /* CONFIG_SAE */
 1135              		.loc 2 775 2
 1136 0038 97000000 		call	sae_deinit_pt
 1136      E7800000 
 1137              	.LVL103:
 778:C:/Users/stapi/OneDrive/Desktop/GD32VW553/V1_MQTT_OK/GD32VW55X_Wifi_BLE_SDK/GD32VW55x_RELEASE_V1.0.2/MSDK/wpa_supplicant/src/ap\ap_config.c **** 	os_free(conf->eap_user_sqlite);
 1138              		.loc 2 778 2 is_stmt 1
 1139 0040 2844     		lw	a0,72(s0)
 1140 0042 97000000 		call	hostapd_config_free_eap_users
 1140      E7800000 
 1141              	.LVL104:
 779:C:/Users/stapi/OneDrive/Desktop/GD32VW553/V1_MQTT_OK/GD32VW55X_Wifi_BLE_SDK/GD32VW55x_RELEASE_V1.0.2/MSDK/wpa_supplicant/src/ap\ap_config.c **** 
 1142              		.loc 2 779 2
 1143 004a 6844     		lw	a0,76(s0)
 1144 004c 97000000 		call	os_free
 1144      E7800000 
 1145              	.LVL105:
 1146              		.loc 2 781 2
 1147 0054 8844     		lw	a0,8(s1)
 1148 0056 97000000 		call	os_free
 1148      E7800000 
 1149              	.LVL106:
 782:C:/Users/stapi/OneDrive/Desktop/GD32VW553/V1_MQTT_OK/GD32VW55X_Wifi_BLE_SDK/GD32VW55x_RELEASE_V1.0.2/MSDK/wpa_supplicant/src/ap\ap_config.c **** 	os_free(conf->erp_domain);
 1150              		.loc 2 782 2
 1151 005e C84C     		lw	a0,28(s1)
 1152 0060 97000000 		call	os_free
 1152      E7800000 
 1153              	.LVL107:
 783:C:/Users/stapi/OneDrive/Desktop/GD32VW553/V1_MQTT_OK/GD32VW55X_Wifi_BLE_SDK/GD32VW55x_RELEASE_V1.0.2/MSDK/wpa_supplicant/src/ap\ap_config.c **** 	os_free(conf->accept_mac);
 1154              		.loc 2 783 2
 1155 0068 C850     		lw	a0,36(s1)
 1156 006a 97000000 		call	os_free
 1156      E7800000 
 1157              	.LVL108:
 784:C:/Users/stapi/OneDrive/Desktop/GD32VW553/V1_MQTT_OK/GD32VW55X_Wifi_BLE_SDK/GD32VW55x_RELEASE_V1.0.2/MSDK/wpa_supplicant/src/ap\ap_config.c **** 	os_free(conf->deny_mac);
 1158              		.loc 2 784 2
 1159 0072 C854     		lw	a0,44(s1)
 1160 0074 97000000 		call	os_free
 1160      E7800000 
 1161              	.LVL109:
 785:C:/Users/stapi/OneDrive/Desktop/GD32VW553/V1_MQTT_OK/GD32VW55X_Wifi_BLE_SDK/GD32VW55x_RELEASE_V1.0.2/MSDK/wpa_supplicant/src/ap\ap_config.c **** 	os_free(conf->nas_identifier);
 1162              		.loc 2 785 2
 1163 007c 2858     		lw	a0,112(s0)
 1164 007e 97000000 		call	os_free
 1164      E7800000 
 1165              	.LVL110:
 786:C:/Users/stapi/OneDrive/Desktop/GD32VW553/V1_MQTT_OK/GD32VW55X_Wifi_BLE_SDK/GD32VW55x_RELEASE_V1.0.2/MSDK/wpa_supplicant/src/ap\ap_config.c **** 	if (conf->radius) {
 1166              		.loc 2 786 2
 1167              		.loc 2 786 10 is_stmt 0
 1168 0086 7C58     		lw	a5,116(s0)
 1169              		.loc 2 786 5
 1170 0088 85C7     		beq	a5,zero,.L73
 787:C:/Users/stapi/OneDrive/Desktop/GD32VW553/V1_MQTT_OK/GD32VW55X_Wifi_BLE_SDK/GD32VW55x_RELEASE_V1.0.2/MSDK/wpa_supplicant/src/ap\ap_config.c **** 		hostapd_config_free_radius(conf->radius->auth_servers,
 1171              		.loc 2 787 3 is_stmt 1
 1172 008a CC43     		lw	a1,4(a5)
 1173 008c 8843     		lw	a0,0(a5)
 1174 008e 97000000 		call	hostapd_config_free_radius
 1174      E7800000 
 1175              	.LVL111:
 788:C:/Users/stapi/OneDrive/Desktop/GD32VW553/V1_MQTT_OK/GD32VW55X_Wifi_BLE_SDK/GD32VW55x_RELEASE_V1.0.2/MSDK/wpa_supplicant/src/ap\ap_config.c **** 					   conf->radius->num_auth_servers);
 789:C:/Users/stapi/OneDrive/Desktop/GD32VW553/V1_MQTT_OK/GD32VW55X_Wifi_BLE_SDK/GD32VW55x_RELEASE_V1.0.2/MSDK/wpa_supplicant/src/ap\ap_config.c **** 		hostapd_config_free_radius(conf->radius->acct_servers,
 1176              		.loc 2 789 3
 1177              		.loc 2 789 34 is_stmt 0
 1178 0096 7C58     		lw	a5,116(s0)
 1179              		.loc 2 789 3
 1180 0098 C847     		lw	a0,12(a5)
 1181 009a 8C4B     		lw	a1,16(a5)
 1182 009c 97000000 		call	hostapd_config_free_radius
 1182      E7800000 
 1183              	.LVL112:
 790:C:/Users/stapi/OneDrive/Desktop/GD32VW553/V1_MQTT_OK/GD32VW55X_Wifi_BLE_SDK/GD32VW55x_RELEASE_V1.0.2/MSDK/wpa_supplicant/src/ap\ap_config.c **** 					   conf->radius->num_acct_servers);
 791:C:/Users/stapi/OneDrive/Desktop/GD32VW553/V1_MQTT_OK/GD32VW55X_Wifi_BLE_SDK/GD32VW55x_RELEASE_V1.0.2/MSDK/wpa_supplicant/src/ap\ap_config.c **** 		os_free(conf->radius->force_client_dev);
 1184              		.loc 2 791 3 is_stmt 1
 1185              		.loc 2 791 23 is_stmt 0
 1186 00a4 7C58     		lw	a5,116(s0)
 1187              		.loc 2 791 3
 1188 00a6 885F     		lw	a0,56(a5)
 1189 00a8 97000000 		call	os_free
 1189      E7800000 
 1190              	.LVL113:
 1191              	.L73:
 792:C:/Users/stapi/OneDrive/Desktop/GD32VW553/V1_MQTT_OK/GD32VW55X_Wifi_BLE_SDK/GD32VW55x_RELEASE_V1.0.2/MSDK/wpa_supplicant/src/ap\ap_config.c **** 	}
 793:C:/Users/stapi/OneDrive/Desktop/GD32VW553/V1_MQTT_OK/GD32VW55X_Wifi_BLE_SDK/GD32VW55x_RELEASE_V1.0.2/MSDK/wpa_supplicant/src/ap\ap_config.c **** 	hostapd_config_free_radius_attr(conf->radius_auth_req_attr);
 1192              		.loc 2 793 2 is_stmt 1
 1193 00b0 03250408 		lw	a0,128(s0)
 794:C:/Users/stapi/OneDrive/Desktop/GD32VW553/V1_MQTT_OK/GD32VW55X_Wifi_BLE_SDK/GD32VW55x_RELEASE_V1.0.2/MSDK/wpa_supplicant/src/ap\ap_config.c **** 	hostapd_config_free_radius_attr(conf->radius_acct_req_attr);
 795:C:/Users/stapi/OneDrive/Desktop/GD32VW553/V1_MQTT_OK/GD32VW55X_Wifi_BLE_SDK/GD32VW55x_RELEASE_V1.0.2/MSDK/wpa_supplicant/src/ap\ap_config.c **** 	os_free(conf->radius_req_attr_sqlite);
 796:C:/Users/stapi/OneDrive/Desktop/GD32VW553/V1_MQTT_OK/GD32VW55X_Wifi_BLE_SDK/GD32VW55x_RELEASE_V1.0.2/MSDK/wpa_supplicant/src/ap\ap_config.c **** 	os_free(conf->rsn_preauth_interfaces);
 1194              		.loc 2 796 2 is_stmt 0
 1195 00b4 93040418 		addi	s1,s0,384
 793:C:/Users/stapi/OneDrive/Desktop/GD32VW553/V1_MQTT_OK/GD32VW55X_Wifi_BLE_SDK/GD32VW55x_RELEASE_V1.0.2/MSDK/wpa_supplicant/src/ap\ap_config.c **** 	hostapd_config_free_radius_attr(conf->radius_acct_req_attr);
 1196              		.loc 2 793 2
 1197 00b8 97000000 		call	hostapd_config_free_radius_attr
 1197      E7800000 
 1198              	.LVL114:
 794:C:/Users/stapi/OneDrive/Desktop/GD32VW553/V1_MQTT_OK/GD32VW55X_Wifi_BLE_SDK/GD32VW55x_RELEASE_V1.0.2/MSDK/wpa_supplicant/src/ap\ap_config.c **** 	hostapd_config_free_radius_attr(conf->radius_acct_req_attr);
 1199              		.loc 2 794 2 is_stmt 1
 1200 00c0 03254408 		lw	a0,132(s0)
 1201 00c4 97000000 		call	hostapd_config_free_radius_attr
 1201      E7800000 
 1202              	.LVL115:
 795:C:/Users/stapi/OneDrive/Desktop/GD32VW553/V1_MQTT_OK/GD32VW55X_Wifi_BLE_SDK/GD32VW55x_RELEASE_V1.0.2/MSDK/wpa_supplicant/src/ap\ap_config.c **** 	os_free(conf->rsn_preauth_interfaces);
 1203              		.loc 2 795 2
 1204 00cc 03258408 		lw	a0,136(s0)
 1205 00d0 97000000 		call	os_free
 1205      E7800000 
 1206              	.LVL116:
 1207              		.loc 2 796 2
 1208 00d8 8850     		lw	a0,32(s1)
 1209 00da 97000000 		call	os_free
 1209      E7800000 
 1210              	.LVL117:
 797:C:/Users/stapi/OneDrive/Desktop/GD32VW553/V1_MQTT_OK/GD32VW55X_Wifi_BLE_SDK/GD32VW55x_RELEASE_V1.0.2/MSDK/wpa_supplicant/src/ap\ap_config.c **** 	os_free(conf->ctrl_interface);
 1211              		.loc 2 797 2
 1212 00e2 C850     		lw	a0,36(s1)
 1213 00e4 97000000 		call	os_free
 1213      E7800000 
 1214              	.LVL118:
 798:C:/Users/stapi/OneDrive/Desktop/GD32VW553/V1_MQTT_OK/GD32VW55X_Wifi_BLE_SDK/GD32VW55x_RELEASE_V1.0.2/MSDK/wpa_supplicant/src/ap\ap_config.c **** 	os_free(conf->ca_cert);
 1215              		.loc 2 798 2
 1216 00ec 8858     		lw	a0,48(s1)
 1217 00ee 97000000 		call	os_free
 1217      E7800000 
 1218              	.LVL119:
 799:C:/Users/stapi/OneDrive/Desktop/GD32VW553/V1_MQTT_OK/GD32VW55X_Wifi_BLE_SDK/GD32VW55x_RELEASE_V1.0.2/MSDK/wpa_supplicant/src/ap\ap_config.c **** 	os_free(conf->server_cert);
 1219              		.loc 2 799 2
 1220 00f6 C858     		lw	a0,52(s1)
 1221 00f8 97000000 		call	os_free
 1221      E7800000 
 1222              	.LVL120:
 800:C:/Users/stapi/OneDrive/Desktop/GD32VW553/V1_MQTT_OK/GD32VW55X_Wifi_BLE_SDK/GD32VW55x_RELEASE_V1.0.2/MSDK/wpa_supplicant/src/ap\ap_config.c **** 	os_free(conf->server_cert2);
 1223              		.loc 2 800 2
 1224 0100 885C     		lw	a0,56(s1)
 1225 0102 97000000 		call	os_free
 1225      E7800000 
 1226              	.LVL121:
 801:C:/Users/stapi/OneDrive/Desktop/GD32VW553/V1_MQTT_OK/GD32VW55X_Wifi_BLE_SDK/GD32VW55x_RELEASE_V1.0.2/MSDK/wpa_supplicant/src/ap\ap_config.c **** 	os_free(conf->private_key);
 1227              		.loc 2 801 2
 1228 010a C85C     		lw	a0,60(s1)
 1229 010c 97000000 		call	os_free
 1229      E7800000 
 1230              	.LVL122:
 802:C:/Users/stapi/OneDrive/Desktop/GD32VW553/V1_MQTT_OK/GD32VW55X_Wifi_BLE_SDK/GD32VW55x_RELEASE_V1.0.2/MSDK/wpa_supplicant/src/ap\ap_config.c **** 	os_free(conf->private_key2);
 1231              		.loc 2 802 2
 1232 0114 A840     		lw	a0,64(s1)
 1233 0116 97000000 		call	os_free
 1233      E7800000 
 1234              	.LVL123:
 803:C:/Users/stapi/OneDrive/Desktop/GD32VW553/V1_MQTT_OK/GD32VW55X_Wifi_BLE_SDK/GD32VW55x_RELEASE_V1.0.2/MSDK/wpa_supplicant/src/ap\ap_config.c **** 	os_free(conf->private_key_passwd);
 1235              		.loc 2 803 2
 1236 011e E840     		lw	a0,68(s1)
 1237 0120 97000000 		call	os_free
 1237      E7800000 
 1238              	.LVL124:
 804:C:/Users/stapi/OneDrive/Desktop/GD32VW553/V1_MQTT_OK/GD32VW55X_Wifi_BLE_SDK/GD32VW55x_RELEASE_V1.0.2/MSDK/wpa_supplicant/src/ap\ap_config.c **** 	os_free(conf->private_key_passwd2);
 1239              		.loc 2 804 2
 1240 0128 A844     		lw	a0,72(s1)
 1241 012a 97000000 		call	os_free
 1241      E7800000 
 1242              	.LVL125:
 805:C:/Users/stapi/OneDrive/Desktop/GD32VW553/V1_MQTT_OK/GD32VW55X_Wifi_BLE_SDK/GD32VW55x_RELEASE_V1.0.2/MSDK/wpa_supplicant/src/ap\ap_config.c **** 	os_free(conf->check_cert_subject);
 1243              		.loc 2 805 2
 1244 0132 E844     		lw	a0,76(s1)
 1245 0134 97000000 		call	os_free
 1245      E7800000 
 1246              	.LVL126:
 806:C:/Users/stapi/OneDrive/Desktop/GD32VW553/V1_MQTT_OK/GD32VW55X_Wifi_BLE_SDK/GD32VW55x_RELEASE_V1.0.2/MSDK/wpa_supplicant/src/ap\ap_config.c **** 	os_free(conf->ocsp_stapling_response);
 1247              		.loc 2 806 2
 1248 013c E854     		lw	a0,108(s1)
 1249 013e 97000000 		call	os_free
 1249      E7800000 
 1250              	.LVL127:
 807:C:/Users/stapi/OneDrive/Desktop/GD32VW553/V1_MQTT_OK/GD32VW55X_Wifi_BLE_SDK/GD32VW55x_RELEASE_V1.0.2/MSDK/wpa_supplicant/src/ap\ap_config.c **** 	os_free(conf->ocsp_stapling_response_multi);
 1251              		.loc 2 807 2
 1252 0146 A858     		lw	a0,112(s1)
 1253 0148 97000000 		call	os_free
 1253      E7800000 
 1254              	.LVL128:
 808:C:/Users/stapi/OneDrive/Desktop/GD32VW553/V1_MQTT_OK/GD32VW55X_Wifi_BLE_SDK/GD32VW55x_RELEASE_V1.0.2/MSDK/wpa_supplicant/src/ap\ap_config.c **** 	os_free(conf->dh_file);
 1255              		.loc 2 808 2
 1256 0150 E858     		lw	a0,116(s1)
 1257 0152 97000000 		call	os_free
 1257      E7800000 
 1258              	.LVL129:
 809:C:/Users/stapi/OneDrive/Desktop/GD32VW553/V1_MQTT_OK/GD32VW55X_Wifi_BLE_SDK/GD32VW55x_RELEASE_V1.0.2/MSDK/wpa_supplicant/src/ap\ap_config.c **** 	os_free(conf->openssl_ciphers);
 1259              		.loc 2 809 2
 1260 015a A85C     		lw	a0,120(s1)
 1261 015c 97000000 		call	os_free
 1261      E7800000 
 1262              	.LVL130:
 810:C:/Users/stapi/OneDrive/Desktop/GD32VW553/V1_MQTT_OK/GD32VW55X_Wifi_BLE_SDK/GD32VW55x_RELEASE_V1.0.2/MSDK/wpa_supplicant/src/ap\ap_config.c **** 	os_free(conf->openssl_ecdh_curves);
 1263              		.loc 2 810 2
 1264 0164 E85C     		lw	a0,124(s1)
 811:C:/Users/stapi/OneDrive/Desktop/GD32VW553/V1_MQTT_OK/GD32VW55X_Wifi_BLE_SDK/GD32VW55x_RELEASE_V1.0.2/MSDK/wpa_supplicant/src/ap\ap_config.c **** 	os_free(conf->pac_opaque_encr_key);
 1265              		.loc 2 811 2 is_stmt 0
 1266 0166 93040420 		addi	s1,s0,512
 810:C:/Users/stapi/OneDrive/Desktop/GD32VW553/V1_MQTT_OK/GD32VW55X_Wifi_BLE_SDK/GD32VW55x_RELEASE_V1.0.2/MSDK/wpa_supplicant/src/ap\ap_config.c **** 	os_free(conf->openssl_ecdh_curves);
 1267              		.loc 2 810 2
 1268 016a 97000000 		call	os_free
 1268      E7800000 
 1269              	.LVL131:
 1270              		.loc 2 811 2 is_stmt 1
 1271 0172 8840     		lw	a0,0(s1)
 1272 0174 97000000 		call	os_free
 1272      E7800000 
 1273              	.LVL132:
 812:C:/Users/stapi/OneDrive/Desktop/GD32VW553/V1_MQTT_OK/GD32VW55X_Wifi_BLE_SDK/GD32VW55x_RELEASE_V1.0.2/MSDK/wpa_supplicant/src/ap\ap_config.c **** 	os_free(conf->eap_fast_a_id);
 1274              		.loc 2 812 2
 1275 017c C840     		lw	a0,4(s1)
 1276 017e 97000000 		call	os_free
 1276      E7800000 
 1277              	.LVL133:
 813:C:/Users/stapi/OneDrive/Desktop/GD32VW553/V1_MQTT_OK/GD32VW55X_Wifi_BLE_SDK/GD32VW55x_RELEASE_V1.0.2/MSDK/wpa_supplicant/src/ap\ap_config.c **** 	os_free(conf->eap_fast_a_id_info);
 1278              		.loc 2 813 2
 1279 0186 C844     		lw	a0,12(s1)
 1280 0188 97000000 		call	os_free
 1280      E7800000 
 1281              	.LVL134:
 814:C:/Users/stapi/OneDrive/Desktop/GD32VW553/V1_MQTT_OK/GD32VW55X_Wifi_BLE_SDK/GD32VW55x_RELEASE_V1.0.2/MSDK/wpa_supplicant/src/ap\ap_config.c **** 	os_free(conf->eap_sim_db);
 1282              		.loc 2 814 2
 1283 0190 2848     		lw	a0,80(s0)
 1284 0192 97000000 		call	os_free
 1284      E7800000 
 1285              	.LVL135:
 815:C:/Users/stapi/OneDrive/Desktop/GD32VW553/V1_MQTT_OK/GD32VW55X_Wifi_BLE_SDK/GD32VW55x_RELEASE_V1.0.2/MSDK/wpa_supplicant/src/ap\ap_config.c **** 	os_free(conf->radius_server_clients);
 1286              		.loc 2 815 2
 1287 019a A840     		lw	a0,64(s1)
 1288 019c 97000000 		call	os_free
 1288      E7800000 
 1289              	.LVL136:
 816:C:/Users/stapi/OneDrive/Desktop/GD32VW553/V1_MQTT_OK/GD32VW55X_Wifi_BLE_SDK/GD32VW55x_RELEASE_V1.0.2/MSDK/wpa_supplicant/src/ap\ap_config.c **** 	os_free(conf->radius);
 1290              		.loc 2 816 2
 1291 01a4 6858     		lw	a0,116(s0)
 1292 01a6 97000000 		call	os_free
 1292      E7800000 
 1293              	.LVL137:
 817:C:/Users/stapi/OneDrive/Desktop/GD32VW553/V1_MQTT_OK/GD32VW55X_Wifi_BLE_SDK/GD32VW55x_RELEASE_V1.0.2/MSDK/wpa_supplicant/src/ap\ap_config.c **** 	os_free(conf->radius_das_shared_secret);
 1294              		.loc 2 817 2
 1295 01ae 0325040B 		lw	a0,176(s0)
 1296 01b2 97000000 		call	os_free
 1296      E7800000 
 1297              	.LVL138:
 818:C:/Users/stapi/OneDrive/Desktop/GD32VW553/V1_MQTT_OK/GD32VW55X_Wifi_BLE_SDK/GD32VW55x_RELEASE_V1.0.2/MSDK/wpa_supplicant/src/ap\ap_config.c **** 	hostapd_config_free_vlan(conf);
 1298              		.loc 2 818 2
 1299              	.LBB52:
 1300              	.LBB53:
  33:C:/Users/stapi/OneDrive/Desktop/GD32VW553/V1_MQTT_OK/GD32VW55X_Wifi_BLE_SDK/GD32VW55x_RELEASE_V1.0.2/MSDK/wpa_supplicant/src/ap\ap_config.c **** 
 1301              		.loc 2 33 2
  35:C:/Users/stapi/OneDrive/Desktop/GD32VW553/V1_MQTT_OK/GD32VW55X_Wifi_BLE_SDK/GD32VW55x_RELEASE_V1.0.2/MSDK/wpa_supplicant/src/ap\ap_config.c **** 	prev = NULL;
 1302              		.loc 2 35 2
  35:C:/Users/stapi/OneDrive/Desktop/GD32VW553/V1_MQTT_OK/GD32VW55X_Wifi_BLE_SDK/GD32VW55x_RELEASE_V1.0.2/MSDK/wpa_supplicant/src/ap\ap_config.c **** 	prev = NULL;
 1303              		.loc 2 35 7 is_stmt 0
 1304 01ba A854     		lw	a0,104(s1)
 1305              	.LVL139:
  36:C:/Users/stapi/OneDrive/Desktop/GD32VW553/V1_MQTT_OK/GD32VW55X_Wifi_BLE_SDK/GD32VW55x_RELEASE_V1.0.2/MSDK/wpa_supplicant/src/ap\ap_config.c **** 	while (vlan) {
 1306              		.loc 2 36 2 is_stmt 1
  37:C:/Users/stapi/OneDrive/Desktop/GD32VW553/V1_MQTT_OK/GD32VW55X_Wifi_BLE_SDK/GD32VW55x_RELEASE_V1.0.2/MSDK/wpa_supplicant/src/ap\ap_config.c **** 		prev = vlan;
 1307              		.loc 2 37 2
 1308              	.L74:
  37:C:/Users/stapi/OneDrive/Desktop/GD32VW553/V1_MQTT_OK/GD32VW55X_Wifi_BLE_SDK/GD32VW55x_RELEASE_V1.0.2/MSDK/wpa_supplicant/src/ap\ap_config.c **** 		prev = vlan;
 1309              		.loc 2 37 8
 1310 01bc 79E9     		bne	a0,zero,.L75
  43:C:/Users/stapi/OneDrive/Desktop/GD32VW553/V1_MQTT_OK/GD32VW55X_Wifi_BLE_SDK/GD32VW55x_RELEASE_V1.0.2/MSDK/wpa_supplicant/src/ap\ap_config.c **** }
 1311              		.loc 2 43 2
 1312              	.LBE53:
 1313              	.LBE52:
 819:C:/Users/stapi/OneDrive/Desktop/GD32VW553/V1_MQTT_OK/GD32VW55X_Wifi_BLE_SDK/GD32VW55x_RELEASE_V1.0.2/MSDK/wpa_supplicant/src/ap\ap_config.c **** 	os_free(conf->time_zone);
 1314              		.loc 2 819 2 is_stmt 0
 1315 01be 93040428 		addi	s1,s0,640
 1316 01c2 8850     		lw	a0,32(s1)
 1317              	.LVL140:
 1318              	.LBB56:
 1319              	.LBB54:
  43:C:/Users/stapi/OneDrive/Desktop/GD32VW553/V1_MQTT_OK/GD32VW55X_Wifi_BLE_SDK/GD32VW55x_RELEASE_V1.0.2/MSDK/wpa_supplicant/src/ap\ap_config.c **** }
 1320              		.loc 2 43 12
 1321 01c4 23240426 		sw	zero,616(s0)
 1322              	.LVL141:
 1323              	.LBE54:
 1324              	.LBE56:
 1325              		.loc 2 819 2 is_stmt 1
 1326              	.LBB57:
 1327              	.LBB58:
 696:C:/Users/stapi/OneDrive/Desktop/GD32VW553/V1_MQTT_OK/GD32VW55X_Wifi_BLE_SDK/GD32VW55x_RELEASE_V1.0.2/MSDK/wpa_supplicant/src/ap\ap_config.c **** 				     list))) {
 1328              		.loc 2 696 17 is_stmt 0
 1329 01c8 13090431 		addi	s2,s0,784
 1330              	.LBE58:
 1331              	.LBE57:
 1332              		.loc 2 819 2
 1333 01cc 97000000 		call	os_free
 1333      E7800000 
 1334              	.LVL142:
 820:C:/Users/stapi/OneDrive/Desktop/GD32VW553/V1_MQTT_OK/GD32VW55X_Wifi_BLE_SDK/GD32VW55x_RELEASE_V1.0.2/MSDK/wpa_supplicant/src/ap\ap_config.c **** 
 821:C:/Users/stapi/OneDrive/Desktop/GD32VW553/V1_MQTT_OK/GD32VW55X_Wifi_BLE_SDK/GD32VW55x_RELEASE_V1.0.2/MSDK/wpa_supplicant/src/ap\ap_config.c **** #ifdef CONFIG_IEEE80211R_AP
 822:C:/Users/stapi/OneDrive/Desktop/GD32VW553/V1_MQTT_OK/GD32VW55X_Wifi_BLE_SDK/GD32VW55x_RELEASE_V1.0.2/MSDK/wpa_supplicant/src/ap\ap_config.c **** 	{
 823:C:/Users/stapi/OneDrive/Desktop/GD32VW553/V1_MQTT_OK/GD32VW55X_Wifi_BLE_SDK/GD32VW55x_RELEASE_V1.0.2/MSDK/wpa_supplicant/src/ap\ap_config.c **** 		struct ft_remote_r0kh *r0kh, *r0kh_prev;
 824:C:/Users/stapi/OneDrive/Desktop/GD32VW553/V1_MQTT_OK/GD32VW55X_Wifi_BLE_SDK/GD32VW55x_RELEASE_V1.0.2/MSDK/wpa_supplicant/src/ap\ap_config.c **** 		struct ft_remote_r1kh *r1kh, *r1kh_prev;
 825:C:/Users/stapi/OneDrive/Desktop/GD32VW553/V1_MQTT_OK/GD32VW55X_Wifi_BLE_SDK/GD32VW55x_RELEASE_V1.0.2/MSDK/wpa_supplicant/src/ap\ap_config.c **** 
 826:C:/Users/stapi/OneDrive/Desktop/GD32VW553/V1_MQTT_OK/GD32VW55X_Wifi_BLE_SDK/GD32VW55x_RELEASE_V1.0.2/MSDK/wpa_supplicant/src/ap\ap_config.c **** 		r0kh = conf->r0kh_list;
 827:C:/Users/stapi/OneDrive/Desktop/GD32VW553/V1_MQTT_OK/GD32VW55X_Wifi_BLE_SDK/GD32VW55x_RELEASE_V1.0.2/MSDK/wpa_supplicant/src/ap\ap_config.c **** 		conf->r0kh_list = NULL;
 828:C:/Users/stapi/OneDrive/Desktop/GD32VW553/V1_MQTT_OK/GD32VW55X_Wifi_BLE_SDK/GD32VW55x_RELEASE_V1.0.2/MSDK/wpa_supplicant/src/ap\ap_config.c **** 		while (r0kh) {
 829:C:/Users/stapi/OneDrive/Desktop/GD32VW553/V1_MQTT_OK/GD32VW55X_Wifi_BLE_SDK/GD32VW55x_RELEASE_V1.0.2/MSDK/wpa_supplicant/src/ap\ap_config.c **** 			r0kh_prev = r0kh;
 830:C:/Users/stapi/OneDrive/Desktop/GD32VW553/V1_MQTT_OK/GD32VW55X_Wifi_BLE_SDK/GD32VW55x_RELEASE_V1.0.2/MSDK/wpa_supplicant/src/ap\ap_config.c **** 			r0kh = r0kh->next;
 831:C:/Users/stapi/OneDrive/Desktop/GD32VW553/V1_MQTT_OK/GD32VW55X_Wifi_BLE_SDK/GD32VW55x_RELEASE_V1.0.2/MSDK/wpa_supplicant/src/ap\ap_config.c **** 			os_free(r0kh_prev);
 832:C:/Users/stapi/OneDrive/Desktop/GD32VW553/V1_MQTT_OK/GD32VW55X_Wifi_BLE_SDK/GD32VW55x_RELEASE_V1.0.2/MSDK/wpa_supplicant/src/ap\ap_config.c **** 		}
 833:C:/Users/stapi/OneDrive/Desktop/GD32VW553/V1_MQTT_OK/GD32VW55X_Wifi_BLE_SDK/GD32VW55x_RELEASE_V1.0.2/MSDK/wpa_supplicant/src/ap\ap_config.c **** 
 834:C:/Users/stapi/OneDrive/Desktop/GD32VW553/V1_MQTT_OK/GD32VW55X_Wifi_BLE_SDK/GD32VW55x_RELEASE_V1.0.2/MSDK/wpa_supplicant/src/ap\ap_config.c **** 		r1kh = conf->r1kh_list;
 835:C:/Users/stapi/OneDrive/Desktop/GD32VW553/V1_MQTT_OK/GD32VW55X_Wifi_BLE_SDK/GD32VW55x_RELEASE_V1.0.2/MSDK/wpa_supplicant/src/ap\ap_config.c **** 		conf->r1kh_list = NULL;
 836:C:/Users/stapi/OneDrive/Desktop/GD32VW553/V1_MQTT_OK/GD32VW55X_Wifi_BLE_SDK/GD32VW55x_RELEASE_V1.0.2/MSDK/wpa_supplicant/src/ap\ap_config.c **** 		while (r1kh) {
 837:C:/Users/stapi/OneDrive/Desktop/GD32VW553/V1_MQTT_OK/GD32VW55X_Wifi_BLE_SDK/GD32VW55x_RELEASE_V1.0.2/MSDK/wpa_supplicant/src/ap\ap_config.c **** 			r1kh_prev = r1kh;
 838:C:/Users/stapi/OneDrive/Desktop/GD32VW553/V1_MQTT_OK/GD32VW55X_Wifi_BLE_SDK/GD32VW55x_RELEASE_V1.0.2/MSDK/wpa_supplicant/src/ap\ap_config.c **** 			r1kh = r1kh->next;
 839:C:/Users/stapi/OneDrive/Desktop/GD32VW553/V1_MQTT_OK/GD32VW55X_Wifi_BLE_SDK/GD32VW55x_RELEASE_V1.0.2/MSDK/wpa_supplicant/src/ap\ap_config.c **** 			os_free(r1kh_prev);
 840:C:/Users/stapi/OneDrive/Desktop/GD32VW553/V1_MQTT_OK/GD32VW55X_Wifi_BLE_SDK/GD32VW55x_RELEASE_V1.0.2/MSDK/wpa_supplicant/src/ap\ap_config.c **** 		}
 841:C:/Users/stapi/OneDrive/Desktop/GD32VW553/V1_MQTT_OK/GD32VW55X_Wifi_BLE_SDK/GD32VW55x_RELEASE_V1.0.2/MSDK/wpa_supplicant/src/ap\ap_config.c **** 	}
 842:C:/Users/stapi/OneDrive/Desktop/GD32VW553/V1_MQTT_OK/GD32VW55X_Wifi_BLE_SDK/GD32VW55x_RELEASE_V1.0.2/MSDK/wpa_supplicant/src/ap\ap_config.c **** #endif /* CONFIG_IEEE80211R_AP */
 843:C:/Users/stapi/OneDrive/Desktop/GD32VW553/V1_MQTT_OK/GD32VW55X_Wifi_BLE_SDK/GD32VW55x_RELEASE_V1.0.2/MSDK/wpa_supplicant/src/ap\ap_config.c **** 
 844:C:/Users/stapi/OneDrive/Desktop/GD32VW553/V1_MQTT_OK/GD32VW55X_Wifi_BLE_SDK/GD32VW55x_RELEASE_V1.0.2/MSDK/wpa_supplicant/src/ap\ap_config.c **** #ifdef CONFIG_WPS
 845:C:/Users/stapi/OneDrive/Desktop/GD32VW553/V1_MQTT_OK/GD32VW55X_Wifi_BLE_SDK/GD32VW55x_RELEASE_V1.0.2/MSDK/wpa_supplicant/src/ap\ap_config.c **** 	os_free(conf->wps_pin_requests);
 846:C:/Users/stapi/OneDrive/Desktop/GD32VW553/V1_MQTT_OK/GD32VW55X_Wifi_BLE_SDK/GD32VW55x_RELEASE_V1.0.2/MSDK/wpa_supplicant/src/ap\ap_config.c **** 	os_free(conf->device_name);
 847:C:/Users/stapi/OneDrive/Desktop/GD32VW553/V1_MQTT_OK/GD32VW55X_Wifi_BLE_SDK/GD32VW55x_RELEASE_V1.0.2/MSDK/wpa_supplicant/src/ap\ap_config.c **** 	os_free(conf->manufacturer);
 848:C:/Users/stapi/OneDrive/Desktop/GD32VW553/V1_MQTT_OK/GD32VW55X_Wifi_BLE_SDK/GD32VW55x_RELEASE_V1.0.2/MSDK/wpa_supplicant/src/ap\ap_config.c **** 	os_free(conf->model_name);
 849:C:/Users/stapi/OneDrive/Desktop/GD32VW553/V1_MQTT_OK/GD32VW55X_Wifi_BLE_SDK/GD32VW55x_RELEASE_V1.0.2/MSDK/wpa_supplicant/src/ap\ap_config.c **** 	os_free(conf->model_number);
 850:C:/Users/stapi/OneDrive/Desktop/GD32VW553/V1_MQTT_OK/GD32VW55X_Wifi_BLE_SDK/GD32VW55x_RELEASE_V1.0.2/MSDK/wpa_supplicant/src/ap\ap_config.c **** 	os_free(conf->serial_number);
 851:C:/Users/stapi/OneDrive/Desktop/GD32VW553/V1_MQTT_OK/GD32VW55X_Wifi_BLE_SDK/GD32VW55x_RELEASE_V1.0.2/MSDK/wpa_supplicant/src/ap\ap_config.c **** 	os_free(conf->config_methods);
 852:C:/Users/stapi/OneDrive/Desktop/GD32VW553/V1_MQTT_OK/GD32VW55X_Wifi_BLE_SDK/GD32VW55x_RELEASE_V1.0.2/MSDK/wpa_supplicant/src/ap\ap_config.c **** 	os_free(conf->ap_pin);
 853:C:/Users/stapi/OneDrive/Desktop/GD32VW553/V1_MQTT_OK/GD32VW55X_Wifi_BLE_SDK/GD32VW55x_RELEASE_V1.0.2/MSDK/wpa_supplicant/src/ap\ap_config.c **** 	os_free(conf->extra_cred);
 854:C:/Users/stapi/OneDrive/Desktop/GD32VW553/V1_MQTT_OK/GD32VW55X_Wifi_BLE_SDK/GD32VW55x_RELEASE_V1.0.2/MSDK/wpa_supplicant/src/ap\ap_config.c **** 	os_free(conf->ap_settings);
 855:C:/Users/stapi/OneDrive/Desktop/GD32VW553/V1_MQTT_OK/GD32VW55X_Wifi_BLE_SDK/GD32VW55x_RELEASE_V1.0.2/MSDK/wpa_supplicant/src/ap\ap_config.c **** 	hostapd_config_clear_wpa_psk(&conf->multi_ap_backhaul_ssid.wpa_psk);
 856:C:/Users/stapi/OneDrive/Desktop/GD32VW553/V1_MQTT_OK/GD32VW55X_Wifi_BLE_SDK/GD32VW55x_RELEASE_V1.0.2/MSDK/wpa_supplicant/src/ap\ap_config.c **** 	str_clear_free(conf->multi_ap_backhaul_ssid.wpa_passphrase);
 857:C:/Users/stapi/OneDrive/Desktop/GD32VW553/V1_MQTT_OK/GD32VW55X_Wifi_BLE_SDK/GD32VW55x_RELEASE_V1.0.2/MSDK/wpa_supplicant/src/ap\ap_config.c **** 	os_free(conf->upnp_iface);
 858:C:/Users/stapi/OneDrive/Desktop/GD32VW553/V1_MQTT_OK/GD32VW55X_Wifi_BLE_SDK/GD32VW55x_RELEASE_V1.0.2/MSDK/wpa_supplicant/src/ap\ap_config.c **** 	os_free(conf->friendly_name);
 859:C:/Users/stapi/OneDrive/Desktop/GD32VW553/V1_MQTT_OK/GD32VW55X_Wifi_BLE_SDK/GD32VW55x_RELEASE_V1.0.2/MSDK/wpa_supplicant/src/ap\ap_config.c **** 	os_free(conf->manufacturer_url);
 860:C:/Users/stapi/OneDrive/Desktop/GD32VW553/V1_MQTT_OK/GD32VW55X_Wifi_BLE_SDK/GD32VW55x_RELEASE_V1.0.2/MSDK/wpa_supplicant/src/ap\ap_config.c **** 	os_free(conf->model_description);
 861:C:/Users/stapi/OneDrive/Desktop/GD32VW553/V1_MQTT_OK/GD32VW55X_Wifi_BLE_SDK/GD32VW55x_RELEASE_V1.0.2/MSDK/wpa_supplicant/src/ap\ap_config.c **** 	os_free(conf->model_url);
 862:C:/Users/stapi/OneDrive/Desktop/GD32VW553/V1_MQTT_OK/GD32VW55X_Wifi_BLE_SDK/GD32VW55x_RELEASE_V1.0.2/MSDK/wpa_supplicant/src/ap\ap_config.c **** 	os_free(conf->upc);
 863:C:/Users/stapi/OneDrive/Desktop/GD32VW553/V1_MQTT_OK/GD32VW55X_Wifi_BLE_SDK/GD32VW55x_RELEASE_V1.0.2/MSDK/wpa_supplicant/src/ap\ap_config.c **** 	for (i = 0; i < MAX_WPS_VENDOR_EXTENSIONS; i++)
 864:C:/Users/stapi/OneDrive/Desktop/GD32VW553/V1_MQTT_OK/GD32VW55X_Wifi_BLE_SDK/GD32VW55x_RELEASE_V1.0.2/MSDK/wpa_supplicant/src/ap\ap_config.c **** 		wpabuf_free(conf->wps_vendor_ext[i]);
 865:C:/Users/stapi/OneDrive/Desktop/GD32VW553/V1_MQTT_OK/GD32VW55X_Wifi_BLE_SDK/GD32VW55x_RELEASE_V1.0.2/MSDK/wpa_supplicant/src/ap\ap_config.c **** 	wpabuf_free(conf->wps_application_ext);
 866:C:/Users/stapi/OneDrive/Desktop/GD32VW553/V1_MQTT_OK/GD32VW55X_Wifi_BLE_SDK/GD32VW55x_RELEASE_V1.0.2/MSDK/wpa_supplicant/src/ap\ap_config.c **** 	wpabuf_free(conf->wps_nfc_dh_pubkey);
 867:C:/Users/stapi/OneDrive/Desktop/GD32VW553/V1_MQTT_OK/GD32VW55X_Wifi_BLE_SDK/GD32VW55x_RELEASE_V1.0.2/MSDK/wpa_supplicant/src/ap\ap_config.c **** 	wpabuf_free(conf->wps_nfc_dh_privkey);
 868:C:/Users/stapi/OneDrive/Desktop/GD32VW553/V1_MQTT_OK/GD32VW55X_Wifi_BLE_SDK/GD32VW55x_RELEASE_V1.0.2/MSDK/wpa_supplicant/src/ap\ap_config.c **** 	wpabuf_free(conf->wps_nfc_dev_pw);
 869:C:/Users/stapi/OneDrive/Desktop/GD32VW553/V1_MQTT_OK/GD32VW55X_Wifi_BLE_SDK/GD32VW55x_RELEASE_V1.0.2/MSDK/wpa_supplicant/src/ap\ap_config.c **** #endif /* CONFIG_WPS */
 870:C:/Users/stapi/OneDrive/Desktop/GD32VW553/V1_MQTT_OK/GD32VW55X_Wifi_BLE_SDK/GD32VW55x_RELEASE_V1.0.2/MSDK/wpa_supplicant/src/ap\ap_config.c **** 
 871:C:/Users/stapi/OneDrive/Desktop/GD32VW553/V1_MQTT_OK/GD32VW55X_Wifi_BLE_SDK/GD32VW55x_RELEASE_V1.0.2/MSDK/wpa_supplicant/src/ap\ap_config.c **** 	os_free(conf->roaming_consortium);
 1335              		.loc 2 871 2 is_stmt 1
 1336 01d4 A84C     		lw	a0,88(s1)
 1337 01d6 97000000 		call	os_free
 1337      E7800000 
 1338              	.LVL143:
 872:C:/Users/stapi/OneDrive/Desktop/GD32VW553/V1_MQTT_OK/GD32VW55X_Wifi_BLE_SDK/GD32VW55x_RELEASE_V1.0.2/MSDK/wpa_supplicant/src/ap\ap_config.c **** 	os_free(conf->venue_name);
 1339              		.loc 2 872 2
 1340 01de A850     		lw	a0,96(s1)
 1341 01e0 97000000 		call	os_free
 1341      E7800000 
 1342              	.LVL144:
 873:C:/Users/stapi/OneDrive/Desktop/GD32VW553/V1_MQTT_OK/GD32VW55X_Wifi_BLE_SDK/GD32VW55x_RELEASE_V1.0.2/MSDK/wpa_supplicant/src/ap\ap_config.c **** 	os_free(conf->venue_url);
 1343              		.loc 2 873 2
 1344 01e8 A854     		lw	a0,104(s1)
 1345 01ea 97000000 		call	os_free
 1345      E7800000 
 1346              	.LVL145:
 874:C:/Users/stapi/OneDrive/Desktop/GD32VW553/V1_MQTT_OK/GD32VW55X_Wifi_BLE_SDK/GD32VW55x_RELEASE_V1.0.2/MSDK/wpa_supplicant/src/ap\ap_config.c **** 	os_free(conf->nai_realm_data);
 1347              		.loc 2 874 2
 1348 01f2 0325C430 		lw	a0,780(s0)
 1349 01f6 97000000 		call	os_free
 1349      E7800000 
 1350              	.LVL146:
 875:C:/Users/stapi/OneDrive/Desktop/GD32VW553/V1_MQTT_OK/GD32VW55X_Wifi_BLE_SDK/GD32VW55x_RELEASE_V1.0.2/MSDK/wpa_supplicant/src/ap\ap_config.c **** 	os_free(conf->network_auth_type);
 1351              		.loc 2 875 2
 1352 01fe E854     		lw	a0,108(s1)
 1353 0200 97000000 		call	os_free
 1353      E7800000 
 1354              	.LVL147:
 876:C:/Users/stapi/OneDrive/Desktop/GD32VW553/V1_MQTT_OK/GD32VW55X_Wifi_BLE_SDK/GD32VW55x_RELEASE_V1.0.2/MSDK/wpa_supplicant/src/ap\ap_config.c **** 	os_free(conf->anqp_3gpp_cell_net);
 1355              		.loc 2 876 2
 1356 0208 A85C     		lw	a0,120(s1)
 1357 020a 97000000 		call	os_free
 1357      E7800000 
 1358              	.LVL148:
 877:C:/Users/stapi/OneDrive/Desktop/GD32VW553/V1_MQTT_OK/GD32VW55X_Wifi_BLE_SDK/GD32VW55x_RELEASE_V1.0.2/MSDK/wpa_supplicant/src/ap\ap_config.c **** 	os_free(conf->domain_name);
 1359              		.loc 2 877 2
 1360 0212 03250430 		lw	a0,768(s0)
 1361 0216 97000000 		call	os_free
 1361      E7800000 
 1362              	.LVL149:
 878:C:/Users/stapi/OneDrive/Desktop/GD32VW553/V1_MQTT_OK/GD32VW55X_Wifi_BLE_SDK/GD32VW55x_RELEASE_V1.0.2/MSDK/wpa_supplicant/src/ap\ap_config.c **** 	hostapd_config_free_anqp_elem(conf);
 1363              		.loc 2 878 2
 1364              	.L76:
 1365              	.LBB67:
 1366              	.LBB65:
 696:C:/Users/stapi/OneDrive/Desktop/GD32VW553/V1_MQTT_OK/GD32VW55X_Wifi_BLE_SDK/GD32VW55x_RELEASE_V1.0.2/MSDK/wpa_supplicant/src/ap\ap_config.c **** 				     list))) {
 1367              		.loc 2 696 8
 1368              	.LBB59:
 1369              	.LBB60:
  26:..\..\..\..\wpa_supplicant\src/utils/list.h **** }
  27:..\..\..\..\wpa_supplicant\src/utils/list.h **** 
  28:..\..\..\..\wpa_supplicant\src/utils/list.h **** static inline void dl_list_add(struct dl_list *list, struct dl_list *item)
  29:..\..\..\..\wpa_supplicant\src/utils/list.h **** {
  30:..\..\..\..\wpa_supplicant\src/utils/list.h **** 	item->next = list->next;
  31:..\..\..\..\wpa_supplicant\src/utils/list.h **** 	item->prev = list;
  32:..\..\..\..\wpa_supplicant\src/utils/list.h **** 	list->next->prev = item;
  33:..\..\..\..\wpa_supplicant\src/utils/list.h **** 	list->next = item;
  34:..\..\..\..\wpa_supplicant\src/utils/list.h **** }
  35:..\..\..\..\wpa_supplicant\src/utils/list.h **** 
  36:..\..\..\..\wpa_supplicant\src/utils/list.h **** static inline void dl_list_add_tail(struct dl_list *list, struct dl_list *item)
  37:..\..\..\..\wpa_supplicant\src/utils/list.h **** {
  38:..\..\..\..\wpa_supplicant\src/utils/list.h **** 	dl_list_add(list->prev, item);
  39:..\..\..\..\wpa_supplicant\src/utils/list.h **** }
  40:..\..\..\..\wpa_supplicant\src/utils/list.h **** 
  41:..\..\..\..\wpa_supplicant\src/utils/list.h **** static inline void dl_list_del(struct dl_list *item)
  42:..\..\..\..\wpa_supplicant\src/utils/list.h **** {
  43:..\..\..\..\wpa_supplicant\src/utils/list.h **** 	item->next->prev = item->prev;
  44:..\..\..\..\wpa_supplicant\src/utils/list.h **** 	item->prev->next = item->next;
  45:..\..\..\..\wpa_supplicant\src/utils/list.h **** 	item->next = NULL;
  46:..\..\..\..\wpa_supplicant\src/utils/list.h **** 	item->prev = NULL;
  47:..\..\..\..\wpa_supplicant\src/utils/list.h **** }
  48:..\..\..\..\wpa_supplicant\src/utils/list.h **** 
  49:..\..\..\..\wpa_supplicant\src/utils/list.h **** static inline int dl_list_empty(const struct dl_list *list)
  50:..\..\..\..\wpa_supplicant\src/utils/list.h **** {
  51:..\..\..\..\wpa_supplicant\src/utils/list.h **** 	return list->next == list;
 1370              		.loc 3 51 2
 1371              		.loc 3 51 13 is_stmt 0
 1372 021e 83240431 		lw	s1,784(s0)
 1373              	.LVL150:
 1374              	.LBE60:
 1375              	.LBE59:
 696:C:/Users/stapi/OneDrive/Desktop/GD32VW553/V1_MQTT_OK/GD32VW55X_Wifi_BLE_SDK/GD32VW55x_RELEASE_V1.0.2/MSDK/wpa_supplicant/src/ap\ap_config.c **** 				     list))) {
 1376              		.loc 2 696 17
 1377 0222 63832401 		beq	s1,s2,.L77
 1378              	.LVL151:
 696:C:/Users/stapi/OneDrive/Desktop/GD32VW553/V1_MQTT_OK/GD32VW55X_Wifi_BLE_SDK/GD32VW55x_RELEASE_V1.0.2/MSDK/wpa_supplicant/src/ap\ap_config.c **** 				     list))) {
 1379              		.loc 2 696 8
 1380 0226 ADEC     		bne	s1,zero,.L78
 1381              	.LVL152:
 1382              	.L77:
 1383              	.LBE65:
 1384              	.LBE67:
 879:C:/Users/stapi/OneDrive/Desktop/GD32VW553/V1_MQTT_OK/GD32VW55X_Wifi_BLE_SDK/GD32VW55x_RELEASE_V1.0.2/MSDK/wpa_supplicant/src/ap\ap_config.c **** 
 880:C:/Users/stapi/OneDrive/Desktop/GD32VW553/V1_MQTT_OK/GD32VW55X_Wifi_BLE_SDK/GD32VW55x_RELEASE_V1.0.2/MSDK/wpa_supplicant/src/ap\ap_config.c **** #ifdef CONFIG_RADIUS_TEST
 881:C:/Users/stapi/OneDrive/Desktop/GD32VW553/V1_MQTT_OK/GD32VW55X_Wifi_BLE_SDK/GD32VW55x_RELEASE_V1.0.2/MSDK/wpa_supplicant/src/ap\ap_config.c **** 	os_free(conf->dump_msk_file);
 882:C:/Users/stapi/OneDrive/Desktop/GD32VW553/V1_MQTT_OK/GD32VW55X_Wifi_BLE_SDK/GD32VW55x_RELEASE_V1.0.2/MSDK/wpa_supplicant/src/ap\ap_config.c **** #endif /* CONFIG_RADIUS_TEST */
 883:C:/Users/stapi/OneDrive/Desktop/GD32VW553/V1_MQTT_OK/GD32VW55X_Wifi_BLE_SDK/GD32VW55x_RELEASE_V1.0.2/MSDK/wpa_supplicant/src/ap\ap_config.c **** 
 884:C:/Users/stapi/OneDrive/Desktop/GD32VW553/V1_MQTT_OK/GD32VW55X_Wifi_BLE_SDK/GD32VW55x_RELEASE_V1.0.2/MSDK/wpa_supplicant/src/ap\ap_config.c **** #ifdef CONFIG_HS20
 885:C:/Users/stapi/OneDrive/Desktop/GD32VW553/V1_MQTT_OK/GD32VW55X_Wifi_BLE_SDK/GD32VW55x_RELEASE_V1.0.2/MSDK/wpa_supplicant/src/ap\ap_config.c **** 	os_free(conf->hs20_oper_friendly_name);
 886:C:/Users/stapi/OneDrive/Desktop/GD32VW553/V1_MQTT_OK/GD32VW55X_Wifi_BLE_SDK/GD32VW55x_RELEASE_V1.0.2/MSDK/wpa_supplicant/src/ap\ap_config.c **** 	os_free(conf->hs20_wan_metrics);
 887:C:/Users/stapi/OneDrive/Desktop/GD32VW553/V1_MQTT_OK/GD32VW55X_Wifi_BLE_SDK/GD32VW55x_RELEASE_V1.0.2/MSDK/wpa_supplicant/src/ap\ap_config.c **** 	os_free(conf->hs20_connection_capability);
 888:C:/Users/stapi/OneDrive/Desktop/GD32VW553/V1_MQTT_OK/GD32VW55X_Wifi_BLE_SDK/GD32VW55x_RELEASE_V1.0.2/MSDK/wpa_supplicant/src/ap\ap_config.c **** 	os_free(conf->hs20_operating_class);
 889:C:/Users/stapi/OneDrive/Desktop/GD32VW553/V1_MQTT_OK/GD32VW55X_Wifi_BLE_SDK/GD32VW55x_RELEASE_V1.0.2/MSDK/wpa_supplicant/src/ap\ap_config.c **** 	os_free(conf->hs20_icons);
 890:C:/Users/stapi/OneDrive/Desktop/GD32VW553/V1_MQTT_OK/GD32VW55X_Wifi_BLE_SDK/GD32VW55x_RELEASE_V1.0.2/MSDK/wpa_supplicant/src/ap\ap_config.c **** 	if (conf->hs20_osu_providers) {
 891:C:/Users/stapi/OneDrive/Desktop/GD32VW553/V1_MQTT_OK/GD32VW55X_Wifi_BLE_SDK/GD32VW55x_RELEASE_V1.0.2/MSDK/wpa_supplicant/src/ap\ap_config.c **** 		for (i = 0; i < conf->hs20_osu_providers_count; i++) {
 892:C:/Users/stapi/OneDrive/Desktop/GD32VW553/V1_MQTT_OK/GD32VW55X_Wifi_BLE_SDK/GD32VW55x_RELEASE_V1.0.2/MSDK/wpa_supplicant/src/ap\ap_config.c **** 			struct hs20_osu_provider *p;
 893:C:/Users/stapi/OneDrive/Desktop/GD32VW553/V1_MQTT_OK/GD32VW55X_Wifi_BLE_SDK/GD32VW55x_RELEASE_V1.0.2/MSDK/wpa_supplicant/src/ap\ap_config.c **** 			size_t j;
 894:C:/Users/stapi/OneDrive/Desktop/GD32VW553/V1_MQTT_OK/GD32VW55X_Wifi_BLE_SDK/GD32VW55x_RELEASE_V1.0.2/MSDK/wpa_supplicant/src/ap\ap_config.c **** 			p = &conf->hs20_osu_providers[i];
 895:C:/Users/stapi/OneDrive/Desktop/GD32VW553/V1_MQTT_OK/GD32VW55X_Wifi_BLE_SDK/GD32VW55x_RELEASE_V1.0.2/MSDK/wpa_supplicant/src/ap\ap_config.c **** 			os_free(p->friendly_name);
 896:C:/Users/stapi/OneDrive/Desktop/GD32VW553/V1_MQTT_OK/GD32VW55X_Wifi_BLE_SDK/GD32VW55x_RELEASE_V1.0.2/MSDK/wpa_supplicant/src/ap\ap_config.c **** 			os_free(p->server_uri);
 897:C:/Users/stapi/OneDrive/Desktop/GD32VW553/V1_MQTT_OK/GD32VW55X_Wifi_BLE_SDK/GD32VW55x_RELEASE_V1.0.2/MSDK/wpa_supplicant/src/ap\ap_config.c **** 			os_free(p->method_list);
 898:C:/Users/stapi/OneDrive/Desktop/GD32VW553/V1_MQTT_OK/GD32VW55X_Wifi_BLE_SDK/GD32VW55x_RELEASE_V1.0.2/MSDK/wpa_supplicant/src/ap\ap_config.c **** 			for (j = 0; j < p->icons_count; j++)
 899:C:/Users/stapi/OneDrive/Desktop/GD32VW553/V1_MQTT_OK/GD32VW55X_Wifi_BLE_SDK/GD32VW55x_RELEASE_V1.0.2/MSDK/wpa_supplicant/src/ap\ap_config.c **** 				os_free(p->icons[j]);
 900:C:/Users/stapi/OneDrive/Desktop/GD32VW553/V1_MQTT_OK/GD32VW55X_Wifi_BLE_SDK/GD32VW55x_RELEASE_V1.0.2/MSDK/wpa_supplicant/src/ap\ap_config.c **** 			os_free(p->icons);
 901:C:/Users/stapi/OneDrive/Desktop/GD32VW553/V1_MQTT_OK/GD32VW55X_Wifi_BLE_SDK/GD32VW55x_RELEASE_V1.0.2/MSDK/wpa_supplicant/src/ap\ap_config.c **** 			os_free(p->osu_nai);
 902:C:/Users/stapi/OneDrive/Desktop/GD32VW553/V1_MQTT_OK/GD32VW55X_Wifi_BLE_SDK/GD32VW55x_RELEASE_V1.0.2/MSDK/wpa_supplicant/src/ap\ap_config.c **** 			os_free(p->osu_nai2);
 903:C:/Users/stapi/OneDrive/Desktop/GD32VW553/V1_MQTT_OK/GD32VW55X_Wifi_BLE_SDK/GD32VW55x_RELEASE_V1.0.2/MSDK/wpa_supplicant/src/ap\ap_config.c **** 			os_free(p->service_desc);
 904:C:/Users/stapi/OneDrive/Desktop/GD32VW553/V1_MQTT_OK/GD32VW55X_Wifi_BLE_SDK/GD32VW55x_RELEASE_V1.0.2/MSDK/wpa_supplicant/src/ap\ap_config.c **** 		}
 905:C:/Users/stapi/OneDrive/Desktop/GD32VW553/V1_MQTT_OK/GD32VW55X_Wifi_BLE_SDK/GD32VW55x_RELEASE_V1.0.2/MSDK/wpa_supplicant/src/ap\ap_config.c **** 		os_free(conf->hs20_osu_providers);
 906:C:/Users/stapi/OneDrive/Desktop/GD32VW553/V1_MQTT_OK/GD32VW55X_Wifi_BLE_SDK/GD32VW55x_RELEASE_V1.0.2/MSDK/wpa_supplicant/src/ap\ap_config.c **** 	}
 907:C:/Users/stapi/OneDrive/Desktop/GD32VW553/V1_MQTT_OK/GD32VW55X_Wifi_BLE_SDK/GD32VW55x_RELEASE_V1.0.2/MSDK/wpa_supplicant/src/ap\ap_config.c **** 	if (conf->hs20_operator_icon) {
 908:C:/Users/stapi/OneDrive/Desktop/GD32VW553/V1_MQTT_OK/GD32VW55X_Wifi_BLE_SDK/GD32VW55x_RELEASE_V1.0.2/MSDK/wpa_supplicant/src/ap\ap_config.c **** 		for (i = 0; i < conf->hs20_operator_icon_count; i++)
 909:C:/Users/stapi/OneDrive/Desktop/GD32VW553/V1_MQTT_OK/GD32VW55X_Wifi_BLE_SDK/GD32VW55x_RELEASE_V1.0.2/MSDK/wpa_supplicant/src/ap\ap_config.c **** 			os_free(conf->hs20_operator_icon[i]);
 910:C:/Users/stapi/OneDrive/Desktop/GD32VW553/V1_MQTT_OK/GD32VW55X_Wifi_BLE_SDK/GD32VW55x_RELEASE_V1.0.2/MSDK/wpa_supplicant/src/ap\ap_config.c **** 		os_free(conf->hs20_operator_icon);
 911:C:/Users/stapi/OneDrive/Desktop/GD32VW553/V1_MQTT_OK/GD32VW55X_Wifi_BLE_SDK/GD32VW55x_RELEASE_V1.0.2/MSDK/wpa_supplicant/src/ap\ap_config.c **** 	}
 912:C:/Users/stapi/OneDrive/Desktop/GD32VW553/V1_MQTT_OK/GD32VW55X_Wifi_BLE_SDK/GD32VW55x_RELEASE_V1.0.2/MSDK/wpa_supplicant/src/ap\ap_config.c **** 	os_free(conf->subscr_remediation_url);
 913:C:/Users/stapi/OneDrive/Desktop/GD32VW553/V1_MQTT_OK/GD32VW55X_Wifi_BLE_SDK/GD32VW55x_RELEASE_V1.0.2/MSDK/wpa_supplicant/src/ap\ap_config.c **** 	os_free(conf->hs20_sim_provisioning_url);
 914:C:/Users/stapi/OneDrive/Desktop/GD32VW553/V1_MQTT_OK/GD32VW55X_Wifi_BLE_SDK/GD32VW55x_RELEASE_V1.0.2/MSDK/wpa_supplicant/src/ap\ap_config.c **** 	os_free(conf->t_c_filename);
 915:C:/Users/stapi/OneDrive/Desktop/GD32VW553/V1_MQTT_OK/GD32VW55X_Wifi_BLE_SDK/GD32VW55x_RELEASE_V1.0.2/MSDK/wpa_supplicant/src/ap\ap_config.c **** 	os_free(conf->t_c_server_url);
 916:C:/Users/stapi/OneDrive/Desktop/GD32VW553/V1_MQTT_OK/GD32VW55X_Wifi_BLE_SDK/GD32VW55x_RELEASE_V1.0.2/MSDK/wpa_supplicant/src/ap\ap_config.c **** #endif /* CONFIG_HS20 */
 917:C:/Users/stapi/OneDrive/Desktop/GD32VW553/V1_MQTT_OK/GD32VW55X_Wifi_BLE_SDK/GD32VW55x_RELEASE_V1.0.2/MSDK/wpa_supplicant/src/ap\ap_config.c **** 
 918:C:/Users/stapi/OneDrive/Desktop/GD32VW553/V1_MQTT_OK/GD32VW55X_Wifi_BLE_SDK/GD32VW55x_RELEASE_V1.0.2/MSDK/wpa_supplicant/src/ap\ap_config.c **** 	wpabuf_free(conf->vendor_elements);
 1385              		.loc 2 918 2 is_stmt 1
 1386 0228 93040430 		addi	s1,s0,768
 1387 022c E858     		lw	a0,116(s1)
 1388 022e 97000000 		call	wpabuf_free
 1388      E7800000 
 1389              	.LVL153:
 919:C:/Users/stapi/OneDrive/Desktop/GD32VW553/V1_MQTT_OK/GD32VW55X_Wifi_BLE_SDK/GD32VW55x_RELEASE_V1.0.2/MSDK/wpa_supplicant/src/ap\ap_config.c **** 	wpabuf_free(conf->assocresp_elements);
 1390              		.loc 2 919 2
 1391 0236 A85C     		lw	a0,120(s1)
 920:C:/Users/stapi/OneDrive/Desktop/GD32VW553/V1_MQTT_OK/GD32VW55X_Wifi_BLE_SDK/GD32VW55x_RELEASE_V1.0.2/MSDK/wpa_supplicant/src/ap\ap_config.c **** 
 921:C:/Users/stapi/OneDrive/Desktop/GD32VW553/V1_MQTT_OK/GD32VW55X_Wifi_BLE_SDK/GD32VW55x_RELEASE_V1.0.2/MSDK/wpa_supplicant/src/ap\ap_config.c **** 	os_free(conf->sae_groups);
 1392              		.loc 2 921 2 is_stmt 0
 1393 0238 93040438 		addi	s1,s0,896
 919:C:/Users/stapi/OneDrive/Desktop/GD32VW553/V1_MQTT_OK/GD32VW55X_Wifi_BLE_SDK/GD32VW55x_RELEASE_V1.0.2/MSDK/wpa_supplicant/src/ap\ap_config.c **** 	wpabuf_free(conf->assocresp_elements);
 1394              		.loc 2 919 2
 1395 023c 97000000 		call	wpabuf_free
 1395      E7800000 
 1396              	.LVL154:
 1397              		.loc 2 921 2 is_stmt 1
 1398 0244 8848     		lw	a0,16(s1)
 1399 0246 97000000 		call	os_free
 1399      E7800000 
 1400              	.LVL155:
 922:C:/Users/stapi/OneDrive/Desktop/GD32VW553/V1_MQTT_OK/GD32VW55X_Wifi_BLE_SDK/GD32VW55x_RELEASE_V1.0.2/MSDK/wpa_supplicant/src/ap\ap_config.c **** #ifdef CONFIG_OWE
 923:C:/Users/stapi/OneDrive/Desktop/GD32VW553/V1_MQTT_OK/GD32VW55X_Wifi_BLE_SDK/GD32VW55x_RELEASE_V1.0.2/MSDK/wpa_supplicant/src/ap\ap_config.c **** 	os_free(conf->owe_groups);
 924:C:/Users/stapi/OneDrive/Desktop/GD32VW553/V1_MQTT_OK/GD32VW55X_Wifi_BLE_SDK/GD32VW55x_RELEASE_V1.0.2/MSDK/wpa_supplicant/src/ap\ap_config.c **** #endif /* CONFIG_OWE */
 925:C:/Users/stapi/OneDrive/Desktop/GD32VW553/V1_MQTT_OK/GD32VW55X_Wifi_BLE_SDK/GD32VW55x_RELEASE_V1.0.2/MSDK/wpa_supplicant/src/ap\ap_config.c **** 
 926:C:/Users/stapi/OneDrive/Desktop/GD32VW553/V1_MQTT_OK/GD32VW55X_Wifi_BLE_SDK/GD32VW55x_RELEASE_V1.0.2/MSDK/wpa_supplicant/src/ap\ap_config.c **** 	os_free(conf->wowlan_triggers);
 1401              		.loc 2 926 2
 1402 024e 884C     		lw	a0,24(s1)
 1403 0250 97000000 		call	os_free
 1403      E7800000 
 1404              	.LVL156:
 927:C:/Users/stapi/OneDrive/Desktop/GD32VW553/V1_MQTT_OK/GD32VW55X_Wifi_BLE_SDK/GD32VW55x_RELEASE_V1.0.2/MSDK/wpa_supplicant/src/ap\ap_config.c **** 
 928:C:/Users/stapi/OneDrive/Desktop/GD32VW553/V1_MQTT_OK/GD32VW55X_Wifi_BLE_SDK/GD32VW55x_RELEASE_V1.0.2/MSDK/wpa_supplicant/src/ap\ap_config.c **** 	os_free(conf->server_id);
 1405              		.loc 2 928 2
 1406 0258 03254428 		lw	a0,644(s0)
 1407 025c 97000000 		call	os_free
 1407      E7800000 
 1408              	.LVL157:
 929:C:/Users/stapi/OneDrive/Desktop/GD32VW553/V1_MQTT_OK/GD32VW55X_Wifi_BLE_SDK/GD32VW55x_RELEASE_V1.0.2/MSDK/wpa_supplicant/src/ap\ap_config.c **** 
 930:C:/Users/stapi/OneDrive/Desktop/GD32VW553/V1_MQTT_OK/GD32VW55X_Wifi_BLE_SDK/GD32VW55x_RELEASE_V1.0.2/MSDK/wpa_supplicant/src/ap\ap_config.c **** #ifdef CONFIG_TESTING_OPTIONS
 931:C:/Users/stapi/OneDrive/Desktop/GD32VW553/V1_MQTT_OK/GD32VW55X_Wifi_BLE_SDK/GD32VW55x_RELEASE_V1.0.2/MSDK/wpa_supplicant/src/ap\ap_config.c **** 	wpabuf_free(conf->own_ie_override);
 932:C:/Users/stapi/OneDrive/Desktop/GD32VW553/V1_MQTT_OK/GD32VW55X_Wifi_BLE_SDK/GD32VW55x_RELEASE_V1.0.2/MSDK/wpa_supplicant/src/ap\ap_config.c **** 	wpabuf_free(conf->sae_commit_override);
 933:C:/Users/stapi/OneDrive/Desktop/GD32VW553/V1_MQTT_OK/GD32VW55X_Wifi_BLE_SDK/GD32VW55x_RELEASE_V1.0.2/MSDK/wpa_supplicant/src/ap\ap_config.c **** 	wpabuf_free(conf->rsne_override_eapol);
 934:C:/Users/stapi/OneDrive/Desktop/GD32VW553/V1_MQTT_OK/GD32VW55X_Wifi_BLE_SDK/GD32VW55x_RELEASE_V1.0.2/MSDK/wpa_supplicant/src/ap\ap_config.c **** 	wpabuf_free(conf->rsnxe_override_eapol);
 935:C:/Users/stapi/OneDrive/Desktop/GD32VW553/V1_MQTT_OK/GD32VW55X_Wifi_BLE_SDK/GD32VW55x_RELEASE_V1.0.2/MSDK/wpa_supplicant/src/ap\ap_config.c **** 	wpabuf_free(conf->rsne_override_ft);
 936:C:/Users/stapi/OneDrive/Desktop/GD32VW553/V1_MQTT_OK/GD32VW55X_Wifi_BLE_SDK/GD32VW55x_RELEASE_V1.0.2/MSDK/wpa_supplicant/src/ap\ap_config.c **** 	wpabuf_free(conf->rsnxe_override_ft);
 937:C:/Users/stapi/OneDrive/Desktop/GD32VW553/V1_MQTT_OK/GD32VW55X_Wifi_BLE_SDK/GD32VW55x_RELEASE_V1.0.2/MSDK/wpa_supplicant/src/ap\ap_config.c **** 	wpabuf_free(conf->gtk_rsc_override);
 938:C:/Users/stapi/OneDrive/Desktop/GD32VW553/V1_MQTT_OK/GD32VW55X_Wifi_BLE_SDK/GD32VW55x_RELEASE_V1.0.2/MSDK/wpa_supplicant/src/ap\ap_config.c **** 	wpabuf_free(conf->igtk_rsc_override);
 939:C:/Users/stapi/OneDrive/Desktop/GD32VW553/V1_MQTT_OK/GD32VW55X_Wifi_BLE_SDK/GD32VW55x_RELEASE_V1.0.2/MSDK/wpa_supplicant/src/ap\ap_config.c **** #endif /* CONFIG_TESTING_OPTIONS */
 940:C:/Users/stapi/OneDrive/Desktop/GD32VW553/V1_MQTT_OK/GD32VW55X_Wifi_BLE_SDK/GD32VW55x_RELEASE_V1.0.2/MSDK/wpa_supplicant/src/ap\ap_config.c **** 
 941:C:/Users/stapi/OneDrive/Desktop/GD32VW553/V1_MQTT_OK/GD32VW55X_Wifi_BLE_SDK/GD32VW55x_RELEASE_V1.0.2/MSDK/wpa_supplicant/src/ap\ap_config.c **** 	os_free(conf->no_probe_resp_if_seen_on);
 1409              		.loc 2 941 2
 1410 0264 C858     		lw	a0,52(s1)
 1411 0266 97000000 		call	os_free
 1411      E7800000 
 1412              	.LVL158:
 942:C:/Users/stapi/OneDrive/Desktop/GD32VW553/V1_MQTT_OK/GD32VW55X_Wifi_BLE_SDK/GD32VW55x_RELEASE_V1.0.2/MSDK/wpa_supplicant/src/ap\ap_config.c **** 	os_free(conf->no_auth_if_seen_on);
 1413              		.loc 2 942 2
 1414 026e 885C     		lw	a0,56(s1)
 1415 0270 97000000 		call	os_free
 1415      E7800000 
 1416              	.LVL159:
 943:C:/Users/stapi/OneDrive/Desktop/GD32VW553/V1_MQTT_OK/GD32VW55X_Wifi_BLE_SDK/GD32VW55x_RELEASE_V1.0.2/MSDK/wpa_supplicant/src/ap\ap_config.c **** 
 944:C:/Users/stapi/OneDrive/Desktop/GD32VW553/V1_MQTT_OK/GD32VW55X_Wifi_BLE_SDK/GD32VW55x_RELEASE_V1.0.2/MSDK/wpa_supplicant/src/ap\ap_config.c **** 	hostapd_config_free_fils_realms(conf);
 1417              		.loc 2 944 2
 1418              	.LBE51:
 1419              	.LBE50:
 716:C:/Users/stapi/OneDrive/Desktop/GD32VW553/V1_MQTT_OK/GD32VW55X_Wifi_BLE_SDK/GD32VW55x_RELEASE_V1.0.2/MSDK/wpa_supplicant/src/ap\ap_config.c **** 
 1420              		.loc 2 716 1
 1421              	.LBB76:
 1422              	.LBB74:
 945:C:/Users/stapi/OneDrive/Desktop/GD32VW553/V1_MQTT_OK/GD32VW55X_Wifi_BLE_SDK/GD32VW55x_RELEASE_V1.0.2/MSDK/wpa_supplicant/src/ap\ap_config.c **** 
 946:C:/Users/stapi/OneDrive/Desktop/GD32VW553/V1_MQTT_OK/GD32VW55X_Wifi_BLE_SDK/GD32VW55x_RELEASE_V1.0.2/MSDK/wpa_supplicant/src/ap\ap_config.c **** #ifdef CONFIG_DPP
 947:C:/Users/stapi/OneDrive/Desktop/GD32VW553/V1_MQTT_OK/GD32VW55X_Wifi_BLE_SDK/GD32VW55x_RELEASE_V1.0.2/MSDK/wpa_supplicant/src/ap\ap_config.c **** 	os_free(conf->dpp_name);
 948:C:/Users/stapi/OneDrive/Desktop/GD32VW553/V1_MQTT_OK/GD32VW55X_Wifi_BLE_SDK/GD32VW55x_RELEASE_V1.0.2/MSDK/wpa_supplicant/src/ap\ap_config.c **** 	os_free(conf->dpp_mud_url);
 949:C:/Users/stapi/OneDrive/Desktop/GD32VW553/V1_MQTT_OK/GD32VW55X_Wifi_BLE_SDK/GD32VW55x_RELEASE_V1.0.2/MSDK/wpa_supplicant/src/ap\ap_config.c **** 	os_free(conf->dpp_connector);
 950:C:/Users/stapi/OneDrive/Desktop/GD32VW553/V1_MQTT_OK/GD32VW55X_Wifi_BLE_SDK/GD32VW55x_RELEASE_V1.0.2/MSDK/wpa_supplicant/src/ap\ap_config.c **** 	wpabuf_free(conf->dpp_netaccesskey);
 951:C:/Users/stapi/OneDrive/Desktop/GD32VW553/V1_MQTT_OK/GD32VW55X_Wifi_BLE_SDK/GD32VW55x_RELEASE_V1.0.2/MSDK/wpa_supplicant/src/ap\ap_config.c **** 	wpabuf_free(conf->dpp_csign);
 952:C:/Users/stapi/OneDrive/Desktop/GD32VW553/V1_MQTT_OK/GD32VW55X_Wifi_BLE_SDK/GD32VW55x_RELEASE_V1.0.2/MSDK/wpa_supplicant/src/ap\ap_config.c **** #ifdef CONFIG_DPP2
 953:C:/Users/stapi/OneDrive/Desktop/GD32VW553/V1_MQTT_OK/GD32VW55X_Wifi_BLE_SDK/GD32VW55x_RELEASE_V1.0.2/MSDK/wpa_supplicant/src/ap\ap_config.c **** 	hostapd_dpp_controller_conf_free(conf->dpp_controller);
 954:C:/Users/stapi/OneDrive/Desktop/GD32VW553/V1_MQTT_OK/GD32VW55X_Wifi_BLE_SDK/GD32VW55x_RELEASE_V1.0.2/MSDK/wpa_supplicant/src/ap\ap_config.c **** #endif /* CONFIG_DPP2 */
 955:C:/Users/stapi/OneDrive/Desktop/GD32VW553/V1_MQTT_OK/GD32VW55X_Wifi_BLE_SDK/GD32VW55x_RELEASE_V1.0.2/MSDK/wpa_supplicant/src/ap\ap_config.c **** #endif /* CONFIG_DPP */
 956:C:/Users/stapi/OneDrive/Desktop/GD32VW553/V1_MQTT_OK/GD32VW55X_Wifi_BLE_SDK/GD32VW55x_RELEASE_V1.0.2/MSDK/wpa_supplicant/src/ap\ap_config.c **** 
 957:C:/Users/stapi/OneDrive/Desktop/GD32VW553/V1_MQTT_OK/GD32VW55X_Wifi_BLE_SDK/GD32VW55x_RELEASE_V1.0.2/MSDK/wpa_supplicant/src/ap\ap_config.c **** 	hostapd_config_free_sae_passwords(conf);
 1423              		.loc 2 957 2
 1424              	.LBB68:
 1425              	.LBB69:
 721:C:/Users/stapi/OneDrive/Desktop/GD32VW553/V1_MQTT_OK/GD32VW55X_Wifi_BLE_SDK/GD32VW55x_RELEASE_V1.0.2/MSDK/wpa_supplicant/src/ap\ap_config.c **** 
 1426              		.loc 2 721 2
 723:C:/Users/stapi/OneDrive/Desktop/GD32VW553/V1_MQTT_OK/GD32VW55X_Wifi_BLE_SDK/GD32VW55x_RELEASE_V1.0.2/MSDK/wpa_supplicant/src/ap\ap_config.c **** 	conf->sae_passwords = NULL;
 1427              		.loc 2 723 2
 723:C:/Users/stapi/OneDrive/Desktop/GD32VW553/V1_MQTT_OK/GD32VW55X_Wifi_BLE_SDK/GD32VW55x_RELEASE_V1.0.2/MSDK/wpa_supplicant/src/ap\ap_config.c **** 	conf->sae_passwords = NULL;
 1428              		.loc 2 723 5 is_stmt 0
 1429 0278 C448     		lw	s1,20(s1)
 1430              	.LVL160:
 724:C:/Users/stapi/OneDrive/Desktop/GD32VW553/V1_MQTT_OK/GD32VW55X_Wifi_BLE_SDK/GD32VW55x_RELEASE_V1.0.2/MSDK/wpa_supplicant/src/ap\ap_config.c **** 	while (pw) {
 1431              		.loc 2 724 2 is_stmt 1
 724:C:/Users/stapi/OneDrive/Desktop/GD32VW553/V1_MQTT_OK/GD32VW55X_Wifi_BLE_SDK/GD32VW55x_RELEASE_V1.0.2/MSDK/wpa_supplicant/src/ap\ap_config.c **** 	while (pw) {
 1432              		.loc 2 724 22 is_stmt 0
 1433 027a 232A0438 		sw	zero,916(s0)
 725:C:/Users/stapi/OneDrive/Desktop/GD32VW553/V1_MQTT_OK/GD32VW55X_Wifi_BLE_SDK/GD32VW55x_RELEASE_V1.0.2/MSDK/wpa_supplicant/src/ap\ap_config.c **** 		tmp = pw;
 1434              		.loc 2 725 2 is_stmt 1
 1435              	.L79:
 725:C:/Users/stapi/OneDrive/Desktop/GD32VW553/V1_MQTT_OK/GD32VW55X_Wifi_BLE_SDK/GD32VW55x_RELEASE_V1.0.2/MSDK/wpa_supplicant/src/ap\ap_config.c **** 		tmp = pw;
 1436              		.loc 2 725 8
 1437 027e A1E4     		bne	s1,zero,.L80
 1438              	.LVL161:
 1439              	.LBE69:
 1440              	.LBE68:
 958:C:/Users/stapi/OneDrive/Desktop/GD32VW553/V1_MQTT_OK/GD32VW55X_Wifi_BLE_SDK/GD32VW55x_RELEASE_V1.0.2/MSDK/wpa_supplicant/src/ap\ap_config.c **** 
 959:C:/Users/stapi/OneDrive/Desktop/GD32VW553/V1_MQTT_OK/GD32VW55X_Wifi_BLE_SDK/GD32VW55x_RELEASE_V1.0.2/MSDK/wpa_supplicant/src/ap\ap_config.c **** #ifdef CONFIG_AIRTIME_POLICY
 960:C:/Users/stapi/OneDrive/Desktop/GD32VW553/V1_MQTT_OK/GD32VW55X_Wifi_BLE_SDK/GD32VW55x_RELEASE_V1.0.2/MSDK/wpa_supplicant/src/ap\ap_config.c **** 	{
 961:C:/Users/stapi/OneDrive/Desktop/GD32VW553/V1_MQTT_OK/GD32VW55X_Wifi_BLE_SDK/GD32VW55x_RELEASE_V1.0.2/MSDK/wpa_supplicant/src/ap\ap_config.c **** 		struct airtime_sta_weight *wt, *wt_prev;
 962:C:/Users/stapi/OneDrive/Desktop/GD32VW553/V1_MQTT_OK/GD32VW55X_Wifi_BLE_SDK/GD32VW55x_RELEASE_V1.0.2/MSDK/wpa_supplicant/src/ap\ap_config.c **** 
 963:C:/Users/stapi/OneDrive/Desktop/GD32VW553/V1_MQTT_OK/GD32VW55X_Wifi_BLE_SDK/GD32VW55x_RELEASE_V1.0.2/MSDK/wpa_supplicant/src/ap\ap_config.c **** 		wt = conf->airtime_weight_list;
 964:C:/Users/stapi/OneDrive/Desktop/GD32VW553/V1_MQTT_OK/GD32VW55X_Wifi_BLE_SDK/GD32VW55x_RELEASE_V1.0.2/MSDK/wpa_supplicant/src/ap\ap_config.c **** 		conf->airtime_weight_list = NULL;
 965:C:/Users/stapi/OneDrive/Desktop/GD32VW553/V1_MQTT_OK/GD32VW55X_Wifi_BLE_SDK/GD32VW55x_RELEASE_V1.0.2/MSDK/wpa_supplicant/src/ap\ap_config.c **** 		while (wt) {
 966:C:/Users/stapi/OneDrive/Desktop/GD32VW553/V1_MQTT_OK/GD32VW55X_Wifi_BLE_SDK/GD32VW55x_RELEASE_V1.0.2/MSDK/wpa_supplicant/src/ap\ap_config.c **** 			wt_prev = wt;
 967:C:/Users/stapi/OneDrive/Desktop/GD32VW553/V1_MQTT_OK/GD32VW55X_Wifi_BLE_SDK/GD32VW55x_RELEASE_V1.0.2/MSDK/wpa_supplicant/src/ap\ap_config.c **** 			wt = wt->next;
 968:C:/Users/stapi/OneDrive/Desktop/GD32VW553/V1_MQTT_OK/GD32VW55X_Wifi_BLE_SDK/GD32VW55x_RELEASE_V1.0.2/MSDK/wpa_supplicant/src/ap\ap_config.c **** 			os_free(wt_prev);
 969:C:/Users/stapi/OneDrive/Desktop/GD32VW553/V1_MQTT_OK/GD32VW55X_Wifi_BLE_SDK/GD32VW55x_RELEASE_V1.0.2/MSDK/wpa_supplicant/src/ap\ap_config.c **** 		}
 970:C:/Users/stapi/OneDrive/Desktop/GD32VW553/V1_MQTT_OK/GD32VW55X_Wifi_BLE_SDK/GD32VW55x_RELEASE_V1.0.2/MSDK/wpa_supplicant/src/ap\ap_config.c **** 	}
 971:C:/Users/stapi/OneDrive/Desktop/GD32VW553/V1_MQTT_OK/GD32VW55X_Wifi_BLE_SDK/GD32VW55x_RELEASE_V1.0.2/MSDK/wpa_supplicant/src/ap\ap_config.c **** #endif /* CONFIG_AIRTIME_POLICY */
 972:C:/Users/stapi/OneDrive/Desktop/GD32VW553/V1_MQTT_OK/GD32VW55X_Wifi_BLE_SDK/GD32VW55x_RELEASE_V1.0.2/MSDK/wpa_supplicant/src/ap\ap_config.c **** 
 973:C:/Users/stapi/OneDrive/Desktop/GD32VW553/V1_MQTT_OK/GD32VW55X_Wifi_BLE_SDK/GD32VW55x_RELEASE_V1.0.2/MSDK/wpa_supplicant/src/ap\ap_config.c **** #ifdef CONFIG_PASN
 974:C:/Users/stapi/OneDrive/Desktop/GD32VW553/V1_MQTT_OK/GD32VW55X_Wifi_BLE_SDK/GD32VW55x_RELEASE_V1.0.2/MSDK/wpa_supplicant/src/ap\ap_config.c **** 	os_free(conf->pasn_groups);
 975:C:/Users/stapi/OneDrive/Desktop/GD32VW553/V1_MQTT_OK/GD32VW55X_Wifi_BLE_SDK/GD32VW55x_RELEASE_V1.0.2/MSDK/wpa_supplicant/src/ap\ap_config.c **** #endif /* CONFIG_PASN */
 976:C:/Users/stapi/OneDrive/Desktop/GD32VW553/V1_MQTT_OK/GD32VW55X_Wifi_BLE_SDK/GD32VW55x_RELEASE_V1.0.2/MSDK/wpa_supplicant/src/ap\ap_config.c **** 
 977:C:/Users/stapi/OneDrive/Desktop/GD32VW553/V1_MQTT_OK/GD32VW55X_Wifi_BLE_SDK/GD32VW55x_RELEASE_V1.0.2/MSDK/wpa_supplicant/src/ap\ap_config.c **** 	os_free(conf);
 1441              		.loc 2 977 2
 1442 0280 2285     		mv	a0,s0
 1443 0282 97000000 		call	os_free
 1443      E7800000 
 1444              	.LVL162:
 1445              	.LBE74:
 1446              	.LBE76:
 978:C:/Users/stapi/OneDrive/Desktop/GD32VW553/V1_MQTT_OK/GD32VW55X_Wifi_BLE_SDK/GD32VW55x_RELEASE_V1.0.2/MSDK/wpa_supplicant/src/ap\ap_config.c **** }
 1447              		.loc 2 978 1 is_stmt 0
 1448 028a 17030000 		tail	__riscv_restore_3
 1448      67000300 
 1449              		.cfi_remember_state
 1450              		.cfi_restore 18
 1451              		.cfi_restore 9
 1452              		.cfi_restore 8
 1453              		.cfi_restore 1
 1454              		.cfi_def_cfa_offset 0
 1455              	.LVL163:
 1456              	.L75:
 1457              		.cfi_restore_state
 1458              	.LBB77:
 1459              	.LBB75:
 1460              	.LBB71:
 1461              	.LBB55:
  38:C:/Users/stapi/OneDrive/Desktop/GD32VW553/V1_MQTT_OK/GD32VW55X_Wifi_BLE_SDK/GD32VW55x_RELEASE_V1.0.2/MSDK/wpa_supplicant/src/ap\ap_config.c **** 		vlan = vlan->next;
 1462              		.loc 2 38 3 is_stmt 1
  39:C:/Users/stapi/OneDrive/Desktop/GD32VW553/V1_MQTT_OK/GD32VW55X_Wifi_BLE_SDK/GD32VW55x_RELEASE_V1.0.2/MSDK/wpa_supplicant/src/ap\ap_config.c **** 		os_free(prev);
 1463              		.loc 2 39 3
  39:C:/Users/stapi/OneDrive/Desktop/GD32VW553/V1_MQTT_OK/GD32VW55X_Wifi_BLE_SDK/GD32VW55x_RELEASE_V1.0.2/MSDK/wpa_supplicant/src/ap\ap_config.c **** 		os_free(prev);
 1464              		.loc 2 39 8 is_stmt 0
 1465 0292 0441     		lw	s1,0(a0)
 1466              	.LVL164:
  40:C:/Users/stapi/OneDrive/Desktop/GD32VW553/V1_MQTT_OK/GD32VW55X_Wifi_BLE_SDK/GD32VW55x_RELEASE_V1.0.2/MSDK/wpa_supplicant/src/ap\ap_config.c **** 	}
 1467              		.loc 2 40 3 is_stmt 1
 1468 0294 97000000 		call	os_free
 1468      E7800000 
 1469              	.LVL165:
  39:C:/Users/stapi/OneDrive/Desktop/GD32VW553/V1_MQTT_OK/GD32VW55X_Wifi_BLE_SDK/GD32VW55x_RELEASE_V1.0.2/MSDK/wpa_supplicant/src/ap\ap_config.c **** 		os_free(prev);
 1470              		.loc 2 39 8 is_stmt 0
 1471 029c 2685     		mv	a0,s1
 1472 029e 39BF     		j	.L74
 1473              	.LVL166:
 1474              	.L78:
 1475              	.LBE55:
 1476              	.LBE71:
 1477              	.LBB72:
 1478              	.LBB66:
 698:C:/Users/stapi/OneDrive/Desktop/GD32VW553/V1_MQTT_OK/GD32VW55X_Wifi_BLE_SDK/GD32VW55x_RELEASE_V1.0.2/MSDK/wpa_supplicant/src/ap\ap_config.c **** 		wpabuf_free(elem->payload);
 1479              		.loc 2 698 3 is_stmt 1
 1480              	.LBB61:
 1481              	.LBB62:
  43:..\..\..\..\wpa_supplicant\src/utils/list.h **** 	item->prev->next = item->next;
 1482              		.loc 3 43 2
  43:..\..\..\..\wpa_supplicant\src/utils/list.h **** 	item->prev->next = item->next;
 1483              		.loc 3 43 6 is_stmt 0
 1484 02a0 9840     		lw	a4,0(s1)
  43:..\..\..\..\wpa_supplicant\src/utils/list.h **** 	item->prev->next = item->next;
 1485              		.loc 3 43 25
 1486 02a2 DC40     		lw	a5,4(s1)
 1487              	.LBE62:
 1488              	.LBE61:
 699:C:/Users/stapi/OneDrive/Desktop/GD32VW553/V1_MQTT_OK/GD32VW55X_Wifi_BLE_SDK/GD32VW55x_RELEASE_V1.0.2/MSDK/wpa_supplicant/src/ap\ap_config.c **** 		os_free(elem);
 1489              		.loc 2 699 3
 1490 02a4 C844     		lw	a0,12(s1)
 1491              	.LBB64:
 1492              	.LBB63:
  43:..\..\..\..\wpa_supplicant\src/utils/list.h **** 	item->prev->next = item->next;
 1493              		.loc 3 43 19
 1494 02a6 5CC3     		sw	a5,4(a4)
  44:..\..\..\..\wpa_supplicant\src/utils/list.h **** 	item->next = NULL;
 1495              		.loc 3 44 2 is_stmt 1
  44:..\..\..\..\wpa_supplicant\src/utils/list.h **** 	item->next = NULL;
 1496              		.loc 3 44 19 is_stmt 0
 1497 02a8 98C3     		sw	a4,0(a5)
  45:..\..\..\..\wpa_supplicant\src/utils/list.h **** 	item->prev = NULL;
 1498              		.loc 3 45 2 is_stmt 1
  45:..\..\..\..\wpa_supplicant\src/utils/list.h **** 	item->prev = NULL;
 1499              		.loc 3 45 13 is_stmt 0
 1500 02aa 23A00400 		sw	zero,0(s1)
  46:..\..\..\..\wpa_supplicant\src/utils/list.h **** }
 1501              		.loc 3 46 2 is_stmt 1
  46:..\..\..\..\wpa_supplicant\src/utils/list.h **** }
 1502              		.loc 3 46 13 is_stmt 0
 1503 02ae 23A20400 		sw	zero,4(s1)
 1504              	.LVL167:
 1505              	.LBE63:
 1506              	.LBE64:
 699:C:/Users/stapi/OneDrive/Desktop/GD32VW553/V1_MQTT_OK/GD32VW55X_Wifi_BLE_SDK/GD32VW55x_RELEASE_V1.0.2/MSDK/wpa_supplicant/src/ap\ap_config.c **** 		os_free(elem);
 1507              		.loc 2 699 3 is_stmt 1
 1508 02b2 97000000 		call	wpabuf_free
 1508      E7800000 
 1509              	.LVL168:
 700:C:/Users/stapi/OneDrive/Desktop/GD32VW553/V1_MQTT_OK/GD32VW55X_Wifi_BLE_SDK/GD32VW55x_RELEASE_V1.0.2/MSDK/wpa_supplicant/src/ap\ap_config.c **** 	}
 1510              		.loc 2 700 3
 1511 02ba 2685     		mv	a0,s1
 1512 02bc 97000000 		call	os_free
 1512      E7800000 
 1513              	.LVL169:
 1514 02c4 A9BF     		j	.L76
 1515              	.LVL170:
 1516              	.L80:
 1517              	.LBE66:
 1518              	.LBE72:
 1519              	.LBB73:
 1520              	.LBB70:
 726:C:/Users/stapi/OneDrive/Desktop/GD32VW553/V1_MQTT_OK/GD32VW55X_Wifi_BLE_SDK/GD32VW55x_RELEASE_V1.0.2/MSDK/wpa_supplicant/src/ap\ap_config.c **** 		pw = pw->next;
 1521              		.loc 2 726 3
 727:C:/Users/stapi/OneDrive/Desktop/GD32VW553/V1_MQTT_OK/GD32VW55X_Wifi_BLE_SDK/GD32VW55x_RELEASE_V1.0.2/MSDK/wpa_supplicant/src/ap\ap_config.c **** 		str_clear_free(tmp->password);
 1522              		.loc 2 727 3
 728:C:/Users/stapi/OneDrive/Desktop/GD32VW553/V1_MQTT_OK/GD32VW55X_Wifi_BLE_SDK/GD32VW55x_RELEASE_V1.0.2/MSDK/wpa_supplicant/src/ap\ap_config.c **** 		os_free(tmp->identifier);
 1523              		.loc 2 728 3 is_stmt 0
 1524 02c6 C840     		lw	a0,4(s1)
 727:C:/Users/stapi/OneDrive/Desktop/GD32VW553/V1_MQTT_OK/GD32VW55X_Wifi_BLE_SDK/GD32VW55x_RELEASE_V1.0.2/MSDK/wpa_supplicant/src/ap\ap_config.c **** 		str_clear_free(tmp->password);
 1525              		.loc 2 727 6
 1526 02c8 03A90400 		lw	s2,0(s1)
 1527              	.LVL171:
 728:C:/Users/stapi/OneDrive/Desktop/GD32VW553/V1_MQTT_OK/GD32VW55X_Wifi_BLE_SDK/GD32VW55x_RELEASE_V1.0.2/MSDK/wpa_supplicant/src/ap\ap_config.c **** 		os_free(tmp->identifier);
 1528              		.loc 2 728 3 is_stmt 1
 1529 02cc 97000000 		call	str_clear_free
 1529      E7800000 
 1530              	.LVL172:
 729:C:/Users/stapi/OneDrive/Desktop/GD32VW553/V1_MQTT_OK/GD32VW55X_Wifi_BLE_SDK/GD32VW55x_RELEASE_V1.0.2/MSDK/wpa_supplicant/src/ap\ap_config.c **** #ifdef CONFIG_SAE
 1531              		.loc 2 729 3
 1532 02d4 8844     		lw	a0,8(s1)
 1533 02d6 97000000 		call	os_free
 1533      E7800000 
 1534              	.LVL173:
 731:C:/Users/stapi/OneDrive/Desktop/GD32VW553/V1_MQTT_OK/GD32VW55X_Wifi_BLE_SDK/GD32VW55x_RELEASE_V1.0.2/MSDK/wpa_supplicant/src/ap\ap_config.c **** #endif /* CONFIG_SAE */
 1535              		.loc 2 731 3
 1536 02de 884C     		lw	a0,24(s1)
 1537 02e0 97000000 		call	sae_deinit_pt
 1537      E7800000 
 1538              	.LVL174:
 736:C:/Users/stapi/OneDrive/Desktop/GD32VW553/V1_MQTT_OK/GD32VW55X_Wifi_BLE_SDK/GD32VW55x_RELEASE_V1.0.2/MSDK/wpa_supplicant/src/ap\ap_config.c **** 	}
 1539              		.loc 2 736 3
 1540 02e8 2685     		mv	a0,s1
 1541 02ea 97000000 		call	os_free
 1541      E7800000 
 1542              	.LVL175:
 727:C:/Users/stapi/OneDrive/Desktop/GD32VW553/V1_MQTT_OK/GD32VW55X_Wifi_BLE_SDK/GD32VW55x_RELEASE_V1.0.2/MSDK/wpa_supplicant/src/ap\ap_config.c **** 		str_clear_free(tmp->password);
 1543              		.loc 2 727 6 is_stmt 0
 1544 02f2 CA84     		mv	s1,s2
 1545              	.LVL176:
 1546 02f4 69B7     		j	.L79
 1547              	.LVL177:
 1548              	.L88:
 1549              		.cfi_def_cfa_offset 0
 1550              		.cfi_restore 1
 1551              		.cfi_restore 8
 1552              		.cfi_restore 9
 1553              		.cfi_restore 18
 1554 02f6 8280     		ret
 1555              	.LBE70:
 1556              	.LBE73:
 1557              	.LBE75:
 1558              	.LBE77:
 1559              		.cfi_endproc
 1560              	.LFE155:
 1562              		.section	.text.hostapd_config_free,"ax",@progbits
 1563              		.align	1
 1564              		.globl	hostapd_config_free
 1566              	hostapd_config_free:
 1567              	.LFB156:
 979:C:/Users/stapi/OneDrive/Desktop/GD32VW553/V1_MQTT_OK/GD32VW55X_Wifi_BLE_SDK/GD32VW55x_RELEASE_V1.0.2/MSDK/wpa_supplicant/src/ap\ap_config.c **** 
 980:C:/Users/stapi/OneDrive/Desktop/GD32VW553/V1_MQTT_OK/GD32VW55X_Wifi_BLE_SDK/GD32VW55x_RELEASE_V1.0.2/MSDK/wpa_supplicant/src/ap\ap_config.c **** 
 981:C:/Users/stapi/OneDrive/Desktop/GD32VW553/V1_MQTT_OK/GD32VW55X_Wifi_BLE_SDK/GD32VW55x_RELEASE_V1.0.2/MSDK/wpa_supplicant/src/ap\ap_config.c **** /**
 982:C:/Users/stapi/OneDrive/Desktop/GD32VW553/V1_MQTT_OK/GD32VW55X_Wifi_BLE_SDK/GD32VW55x_RELEASE_V1.0.2/MSDK/wpa_supplicant/src/ap\ap_config.c ****  * hostapd_config_free - Free hostapd configuration
 983:C:/Users/stapi/OneDrive/Desktop/GD32VW553/V1_MQTT_OK/GD32VW55X_Wifi_BLE_SDK/GD32VW55x_RELEASE_V1.0.2/MSDK/wpa_supplicant/src/ap\ap_config.c ****  * @conf: Configuration data from hostapd_config_read().
 984:C:/Users/stapi/OneDrive/Desktop/GD32VW553/V1_MQTT_OK/GD32VW55X_Wifi_BLE_SDK/GD32VW55x_RELEASE_V1.0.2/MSDK/wpa_supplicant/src/ap\ap_config.c ****  */
 985:C:/Users/stapi/OneDrive/Desktop/GD32VW553/V1_MQTT_OK/GD32VW55X_Wifi_BLE_SDK/GD32VW55x_RELEASE_V1.0.2/MSDK/wpa_supplicant/src/ap\ap_config.c **** void hostapd_config_free(struct hostapd_config *conf)
 986:C:/Users/stapi/OneDrive/Desktop/GD32VW553/V1_MQTT_OK/GD32VW55X_Wifi_BLE_SDK/GD32VW55x_RELEASE_V1.0.2/MSDK/wpa_supplicant/src/ap\ap_config.c **** {
 1568              		.loc 2 986 1 is_stmt 1
 1569              		.cfi_startproc
 1570              	.LVL178:
 987:C:/Users/stapi/OneDrive/Desktop/GD32VW553/V1_MQTT_OK/GD32VW55X_Wifi_BLE_SDK/GD32VW55x_RELEASE_V1.0.2/MSDK/wpa_supplicant/src/ap\ap_config.c **** 	size_t i;
 1571              		.loc 2 987 2
 988:C:/Users/stapi/OneDrive/Desktop/GD32VW553/V1_MQTT_OK/GD32VW55X_Wifi_BLE_SDK/GD32VW55x_RELEASE_V1.0.2/MSDK/wpa_supplicant/src/ap\ap_config.c **** 
 989:C:/Users/stapi/OneDrive/Desktop/GD32VW553/V1_MQTT_OK/GD32VW55X_Wifi_BLE_SDK/GD32VW55x_RELEASE_V1.0.2/MSDK/wpa_supplicant/src/ap\ap_config.c **** 	if (conf == NULL)
 1572              		.loc 2 989 2
 1573              		.loc 2 989 5 is_stmt 0
 1574 0000 51C5     		beq	a0,zero,.L99
 986:C:/Users/stapi/OneDrive/Desktop/GD32VW553/V1_MQTT_OK/GD32VW55X_Wifi_BLE_SDK/GD32VW55x_RELEASE_V1.0.2/MSDK/wpa_supplicant/src/ap\ap_config.c **** 	size_t i;
 1575              		.loc 2 986 1
 1576 0002 17030000 		call	t0,__riscv_save_2
 1576      E7020300 
 1577              		.cfi_offset 9, -12
 1578              		.cfi_offset 8, -8
 1579              		.cfi_offset 1, -4
 1580              		.cfi_def_cfa_offset 16
 1581 000a 2A84     		mv	s0,a0
 990:C:/Users/stapi/OneDrive/Desktop/GD32VW553/V1_MQTT_OK/GD32VW55X_Wifi_BLE_SDK/GD32VW55x_RELEASE_V1.0.2/MSDK/wpa_supplicant/src/ap\ap_config.c **** 		return;
 991:C:/Users/stapi/OneDrive/Desktop/GD32VW553/V1_MQTT_OK/GD32VW55X_Wifi_BLE_SDK/GD32VW55x_RELEASE_V1.0.2/MSDK/wpa_supplicant/src/ap\ap_config.c **** 
 992:C:/Users/stapi/OneDrive/Desktop/GD32VW553/V1_MQTT_OK/GD32VW55X_Wifi_BLE_SDK/GD32VW55x_RELEASE_V1.0.2/MSDK/wpa_supplicant/src/ap\ap_config.c **** 	for (i = 0; i < conf->num_bss; i++)
 1582              		.loc 2 992 9
 1583 000c 8144     		li	s1,0
 1584              	.LVL179:
 1585              	.L93:
 1586              		.loc 2 992 14 is_stmt 1 discriminator 1
 1587              		.loc 2 992 2 is_stmt 0 discriminator 1
 1588 000e 1C44     		lw	a5,8(s0)
 993:C:/Users/stapi/OneDrive/Desktop/GD32VW553/V1_MQTT_OK/GD32VW55X_Wifi_BLE_SDK/GD32VW55x_RELEASE_V1.0.2/MSDK/wpa_supplicant/src/ap\ap_config.c **** 		hostapd_config_free_bss(conf->bss[i]);
 1589              		.loc 2 993 31 discriminator 1
 1590 0010 0840     		lw	a0,0(s0)
 992:C:/Users/stapi/OneDrive/Desktop/GD32VW553/V1_MQTT_OK/GD32VW55X_Wifi_BLE_SDK/GD32VW55x_RELEASE_V1.0.2/MSDK/wpa_supplicant/src/ap\ap_config.c **** 		hostapd_config_free_bss(conf->bss[i]);
 1591              		.loc 2 992 2 discriminator 1
 1592 0012 63E4F406 		bgtu	a5,s1,.L94
 994:C:/Users/stapi/OneDrive/Desktop/GD32VW553/V1_MQTT_OK/GD32VW55X_Wifi_BLE_SDK/GD32VW55x_RELEASE_V1.0.2/MSDK/wpa_supplicant/src/ap\ap_config.c **** 	os_free(conf->bss);
 1593              		.loc 2 994 2 is_stmt 1
 1594 0016 97000000 		call	os_free
 1594      E7800000 
 1595              	.LVL180:
 995:C:/Users/stapi/OneDrive/Desktop/GD32VW553/V1_MQTT_OK/GD32VW55X_Wifi_BLE_SDK/GD32VW55x_RELEASE_V1.0.2/MSDK/wpa_supplicant/src/ap\ap_config.c **** 	os_free(conf->supported_rates);
 1596              		.loc 2 995 2
 1597 001e 6844     		lw	a0,76(s0)
 996:C:/Users/stapi/OneDrive/Desktop/GD32VW553/V1_MQTT_OK/GD32VW55X_Wifi_BLE_SDK/GD32VW55x_RELEASE_V1.0.2/MSDK/wpa_supplicant/src/ap\ap_config.c **** 	os_free(conf->basic_rates);
 997:C:/Users/stapi/OneDrive/Desktop/GD32VW553/V1_MQTT_OK/GD32VW55X_Wifi_BLE_SDK/GD32VW55x_RELEASE_V1.0.2/MSDK/wpa_supplicant/src/ap\ap_config.c **** 	os_free(conf->acs_ch_list.range);
 998:C:/Users/stapi/OneDrive/Desktop/GD32VW553/V1_MQTT_OK/GD32VW55X_Wifi_BLE_SDK/GD32VW55x_RELEASE_V1.0.2/MSDK/wpa_supplicant/src/ap\ap_config.c **** 	os_free(conf->acs_freq_list.range);
 999:C:/Users/stapi/OneDrive/Desktop/GD32VW553/V1_MQTT_OK/GD32VW55X_Wifi_BLE_SDK/GD32VW55x_RELEASE_V1.0.2/MSDK/wpa_supplicant/src/ap\ap_config.c **** 	os_free(conf->driver_params);
1000:C:/Users/stapi/OneDrive/Desktop/GD32VW553/V1_MQTT_OK/GD32VW55X_Wifi_BLE_SDK/GD32VW55x_RELEASE_V1.0.2/MSDK/wpa_supplicant/src/ap\ap_config.c **** #ifdef CONFIG_ACS
1001:C:/Users/stapi/OneDrive/Desktop/GD32VW553/V1_MQTT_OK/GD32VW55X_Wifi_BLE_SDK/GD32VW55x_RELEASE_V1.0.2/MSDK/wpa_supplicant/src/ap\ap_config.c **** 	os_free(conf->acs_chan_bias);
1002:C:/Users/stapi/OneDrive/Desktop/GD32VW553/V1_MQTT_OK/GD32VW55X_Wifi_BLE_SDK/GD32VW55x_RELEASE_V1.0.2/MSDK/wpa_supplicant/src/ap\ap_config.c **** #endif /* CONFIG_ACS */
1003:C:/Users/stapi/OneDrive/Desktop/GD32VW553/V1_MQTT_OK/GD32VW55X_Wifi_BLE_SDK/GD32VW55x_RELEASE_V1.0.2/MSDK/wpa_supplicant/src/ap\ap_config.c **** 	wpabuf_free(conf->lci);
 1598              		.loc 2 1003 2 is_stmt 0
 1599 0020 93040410 		addi	s1,s0,256
 1600              	.LVL181:
 995:C:/Users/stapi/OneDrive/Desktop/GD32VW553/V1_MQTT_OK/GD32VW55X_Wifi_BLE_SDK/GD32VW55x_RELEASE_V1.0.2/MSDK/wpa_supplicant/src/ap\ap_config.c **** 	os_free(conf->supported_rates);
 1601              		.loc 2 995 2
 1602 0024 97000000 		call	os_free
 1602      E7800000 
 1603              	.LVL182:
 996:C:/Users/stapi/OneDrive/Desktop/GD32VW553/V1_MQTT_OK/GD32VW55X_Wifi_BLE_SDK/GD32VW55x_RELEASE_V1.0.2/MSDK/wpa_supplicant/src/ap\ap_config.c **** 	os_free(conf->basic_rates);
 1604              		.loc 2 996 2 is_stmt 1
 1605 002c 2848     		lw	a0,80(s0)
 1606 002e 97000000 		call	os_free
 1606      E7800000 
 1607              	.LVL183:
 997:C:/Users/stapi/OneDrive/Desktop/GD32VW553/V1_MQTT_OK/GD32VW55X_Wifi_BLE_SDK/GD32VW55x_RELEASE_V1.0.2/MSDK/wpa_supplicant/src/ap\ap_config.c **** 	os_free(conf->acs_freq_list.range);
 1608              		.loc 2 997 2
 1609 0036 4850     		lw	a0,36(s0)
 1610 0038 97000000 		call	os_free
 1610      E7800000 
 1611              	.LVL184:
 998:C:/Users/stapi/OneDrive/Desktop/GD32VW553/V1_MQTT_OK/GD32VW55X_Wifi_BLE_SDK/GD32VW55x_RELEASE_V1.0.2/MSDK/wpa_supplicant/src/ap\ap_config.c **** 	os_free(conf->driver_params);
 1612              		.loc 2 998 2
 1613 0040 4854     		lw	a0,44(s0)
 1614 0042 97000000 		call	os_free
 1614      E7800000 
 1615              	.LVL185:
 999:C:/Users/stapi/OneDrive/Desktop/GD32VW553/V1_MQTT_OK/GD32VW55X_Wifi_BLE_SDK/GD32VW55x_RELEASE_V1.0.2/MSDK/wpa_supplicant/src/ap\ap_config.c **** #ifdef CONFIG_ACS
 1616              		.loc 2 999 2
 1617 004a 2850     		lw	a0,96(s0)
 1618 004c 97000000 		call	os_free
 1618      E7800000 
 1619              	.LVL186:
 1620              		.loc 2 1003 2
 1621 0054 A844     		lw	a0,72(s1)
 1622 0056 97000000 		call	wpabuf_free
 1622      E7800000 
 1623              	.LVL187:
1004:C:/Users/stapi/OneDrive/Desktop/GD32VW553/V1_MQTT_OK/GD32VW55X_Wifi_BLE_SDK/GD32VW55x_RELEASE_V1.0.2/MSDK/wpa_supplicant/src/ap\ap_config.c **** 	wpabuf_free(conf->civic);
 1624              		.loc 2 1004 2
 1625 005e E844     		lw	a0,76(s1)
 1626 0060 97000000 		call	wpabuf_free
 1626      E7800000 
 1627              	.LVL188:
1005:C:/Users/stapi/OneDrive/Desktop/GD32VW553/V1_MQTT_OK/GD32VW55X_Wifi_BLE_SDK/GD32VW55x_RELEASE_V1.0.2/MSDK/wpa_supplicant/src/ap\ap_config.c **** 
1006:C:/Users/stapi/OneDrive/Desktop/GD32VW553/V1_MQTT_OK/GD32VW55X_Wifi_BLE_SDK/GD32VW55x_RELEASE_V1.0.2/MSDK/wpa_supplicant/src/ap\ap_config.c **** 	os_free(conf);
 1628              		.loc 2 1006 2
 1629 0068 2285     		mv	a0,s0
 1630 006a 97000000 		call	os_free
 1630      E7800000 
 1631              	.LVL189:
1007:C:/Users/stapi/OneDrive/Desktop/GD32VW553/V1_MQTT_OK/GD32VW55X_Wifi_BLE_SDK/GD32VW55x_RELEASE_V1.0.2/MSDK/wpa_supplicant/src/ap\ap_config.c **** }
 1632              		.loc 2 1007 1 is_stmt 0
 1633 0072 17030000 		tail	__riscv_restore_2
 1633      67000300 
 1634              		.cfi_remember_state
 1635              		.cfi_restore 9
 1636              		.cfi_restore 8
 1637              		.cfi_restore 1
 1638              		.cfi_def_cfa_offset 0
 1639              	.LVL190:
 1640              	.L94:
 1641              		.cfi_restore_state
 993:C:/Users/stapi/OneDrive/Desktop/GD32VW553/V1_MQTT_OK/GD32VW55X_Wifi_BLE_SDK/GD32VW55x_RELEASE_V1.0.2/MSDK/wpa_supplicant/src/ap\ap_config.c **** 	os_free(conf->bss);
 1642              		.loc 2 993 3 is_stmt 1 discriminator 3
 1643 007a 33C5A420 		sh2add	a0,s1,a0
 1644 007e 0841     		lw	a0,0(a0)
 992:C:/Users/stapi/OneDrive/Desktop/GD32VW553/V1_MQTT_OK/GD32VW55X_Wifi_BLE_SDK/GD32VW55x_RELEASE_V1.0.2/MSDK/wpa_supplicant/src/ap\ap_config.c **** 		hostapd_config_free_bss(conf->bss[i]);
 1645              		.loc 2 992 34 is_stmt 0 discriminator 3
 1646 0080 8504     		addi	s1,s1,1
 1647              	.LVL191:
 993:C:/Users/stapi/OneDrive/Desktop/GD32VW553/V1_MQTT_OK/GD32VW55X_Wifi_BLE_SDK/GD32VW55x_RELEASE_V1.0.2/MSDK/wpa_supplicant/src/ap\ap_config.c **** 	os_free(conf->bss);
 1648              		.loc 2 993 3 discriminator 3
 1649 0082 97000000 		call	hostapd_config_free_bss
 1649      E7800000 
 1650              	.LVL192:
 992:C:/Users/stapi/OneDrive/Desktop/GD32VW553/V1_MQTT_OK/GD32VW55X_Wifi_BLE_SDK/GD32VW55x_RELEASE_V1.0.2/MSDK/wpa_supplicant/src/ap\ap_config.c **** 		hostapd_config_free_bss(conf->bss[i]);
 1651              		.loc 2 992 33 is_stmt 1 discriminator 3
 1652 008a 51B7     		j	.L93
 1653              	.LVL193:
 1654              	.L99:
 1655              		.cfi_def_cfa_offset 0
 1656              		.cfi_restore 1
 1657              		.cfi_restore 8
 1658              		.cfi_restore 9
 1659 008c 8280     		ret
 1660              		.cfi_endproc
 1661              	.LFE156:
 1663              		.section	.text.hostapd_maclist_found,"ax",@progbits
 1664              		.align	1
 1665              		.globl	hostapd_maclist_found
 1667              	hostapd_maclist_found:
 1668              	.LFB157:
1008:C:/Users/stapi/OneDrive/Desktop/GD32VW553/V1_MQTT_OK/GD32VW55X_Wifi_BLE_SDK/GD32VW55x_RELEASE_V1.0.2/MSDK/wpa_supplicant/src/ap\ap_config.c **** 
1009:C:/Users/stapi/OneDrive/Desktop/GD32VW553/V1_MQTT_OK/GD32VW55X_Wifi_BLE_SDK/GD32VW55x_RELEASE_V1.0.2/MSDK/wpa_supplicant/src/ap\ap_config.c **** 
1010:C:/Users/stapi/OneDrive/Desktop/GD32VW553/V1_MQTT_OK/GD32VW55X_Wifi_BLE_SDK/GD32VW55x_RELEASE_V1.0.2/MSDK/wpa_supplicant/src/ap\ap_config.c **** /**
1011:C:/Users/stapi/OneDrive/Desktop/GD32VW553/V1_MQTT_OK/GD32VW55X_Wifi_BLE_SDK/GD32VW55x_RELEASE_V1.0.2/MSDK/wpa_supplicant/src/ap\ap_config.c ****  * hostapd_maclist_found - Find a MAC address from a list
1012:C:/Users/stapi/OneDrive/Desktop/GD32VW553/V1_MQTT_OK/GD32VW55X_Wifi_BLE_SDK/GD32VW55x_RELEASE_V1.0.2/MSDK/wpa_supplicant/src/ap\ap_config.c ****  * @list: MAC address list
1013:C:/Users/stapi/OneDrive/Desktop/GD32VW553/V1_MQTT_OK/GD32VW55X_Wifi_BLE_SDK/GD32VW55x_RELEASE_V1.0.2/MSDK/wpa_supplicant/src/ap\ap_config.c ****  * @num_entries: Number of addresses in the list
1014:C:/Users/stapi/OneDrive/Desktop/GD32VW553/V1_MQTT_OK/GD32VW55X_Wifi_BLE_SDK/GD32VW55x_RELEASE_V1.0.2/MSDK/wpa_supplicant/src/ap\ap_config.c ****  * @addr: Address to search for
1015:C:/Users/stapi/OneDrive/Desktop/GD32VW553/V1_MQTT_OK/GD32VW55X_Wifi_BLE_SDK/GD32VW55x_RELEASE_V1.0.2/MSDK/wpa_supplicant/src/ap\ap_config.c ****  * @vlan_id: Buffer for returning VLAN ID or %NULL if not needed
1016:C:/Users/stapi/OneDrive/Desktop/GD32VW553/V1_MQTT_OK/GD32VW55X_Wifi_BLE_SDK/GD32VW55x_RELEASE_V1.0.2/MSDK/wpa_supplicant/src/ap\ap_config.c ****  * Returns: 1 if address is in the list or 0 if not.
1017:C:/Users/stapi/OneDrive/Desktop/GD32VW553/V1_MQTT_OK/GD32VW55X_Wifi_BLE_SDK/GD32VW55x_RELEASE_V1.0.2/MSDK/wpa_supplicant/src/ap\ap_config.c ****  *
1018:C:/Users/stapi/OneDrive/Desktop/GD32VW553/V1_MQTT_OK/GD32VW55X_Wifi_BLE_SDK/GD32VW55x_RELEASE_V1.0.2/MSDK/wpa_supplicant/src/ap\ap_config.c ****  * Perform a binary search for given MAC address from a pre-sorted list.
1019:C:/Users/stapi/OneDrive/Desktop/GD32VW553/V1_MQTT_OK/GD32VW55X_Wifi_BLE_SDK/GD32VW55x_RELEASE_V1.0.2/MSDK/wpa_supplicant/src/ap\ap_config.c ****  */
1020:C:/Users/stapi/OneDrive/Desktop/GD32VW553/V1_MQTT_OK/GD32VW55X_Wifi_BLE_SDK/GD32VW55x_RELEASE_V1.0.2/MSDK/wpa_supplicant/src/ap\ap_config.c **** int hostapd_maclist_found(struct mac_acl_entry *list, int num_entries,
1021:C:/Users/stapi/OneDrive/Desktop/GD32VW553/V1_MQTT_OK/GD32VW55X_Wifi_BLE_SDK/GD32VW55x_RELEASE_V1.0.2/MSDK/wpa_supplicant/src/ap\ap_config.c **** 			  const u8 *addr, struct vlan_description *vlan_id)
1022:C:/Users/stapi/OneDrive/Desktop/GD32VW553/V1_MQTT_OK/GD32VW55X_Wifi_BLE_SDK/GD32VW55x_RELEASE_V1.0.2/MSDK/wpa_supplicant/src/ap\ap_config.c **** {
 1669              		.loc 2 1022 1
 1670              		.cfi_startproc
 1671              	.LVL194:
 1672 0000 17030000 		call	t0,__riscv_save_8
 1672      E7020300 
 1673              		.cfi_offset 23, -36
 1674              		.cfi_offset 22, -32
 1675              		.cfi_offset 21, -28
 1676              		.cfi_offset 20, -24
 1677              		.cfi_offset 19, -20
 1678              		.cfi_offset 18, -16
 1679              		.cfi_offset 9, -12
 1680              		.cfi_offset 8, -8
 1681              		.cfi_offset 1, -4
 1682              		.cfi_def_cfa_offset 48
1023:C:/Users/stapi/OneDrive/Desktop/GD32VW553/V1_MQTT_OK/GD32VW55X_Wifi_BLE_SDK/GD32VW55x_RELEASE_V1.0.2/MSDK/wpa_supplicant/src/ap\ap_config.c **** 	int start, end, middle, res;
 1683              		.loc 2 1023 2
1024:C:/Users/stapi/OneDrive/Desktop/GD32VW553/V1_MQTT_OK/GD32VW55X_Wifi_BLE_SDK/GD32VW55x_RELEASE_V1.0.2/MSDK/wpa_supplicant/src/ap\ap_config.c **** 
1025:C:/Users/stapi/OneDrive/Desktop/GD32VW553/V1_MQTT_OK/GD32VW55X_Wifi_BLE_SDK/GD32VW55x_RELEASE_V1.0.2/MSDK/wpa_supplicant/src/ap\ap_config.c **** 	start = 0;
 1684              		.loc 2 1025 2
 1685              	.LVL195:
1026:C:/Users/stapi/OneDrive/Desktop/GD32VW553/V1_MQTT_OK/GD32VW55X_Wifi_BLE_SDK/GD32VW55x_RELEASE_V1.0.2/MSDK/wpa_supplicant/src/ap\ap_config.c **** 	end = num_entries - 1;
 1686              		.loc 2 1026 2
1022:C:/Users/stapi/OneDrive/Desktop/GD32VW553/V1_MQTT_OK/GD32VW55X_Wifi_BLE_SDK/GD32VW55x_RELEASE_V1.0.2/MSDK/wpa_supplicant/src/ap\ap_config.c **** 	int start, end, middle, res;
 1687              		.loc 2 1022 1 is_stmt 0
 1688 0008 2A8A     		mv	s4,a0
 1689 000a B28A     		mv	s5,a2
 1690 000c 3689     		mv	s2,a3
 1691              		.loc 2 1026 6
 1692 000e 1384F5FF 		addi	s0,a1,-1
 1693              	.LVL196:
1027:C:/Users/stapi/OneDrive/Desktop/GD32VW553/V1_MQTT_OK/GD32VW55X_Wifi_BLE_SDK/GD32VW55x_RELEASE_V1.0.2/MSDK/wpa_supplicant/src/ap\ap_config.c **** 
1028:C:/Users/stapi/OneDrive/Desktop/GD32VW553/V1_MQTT_OK/GD32VW55X_Wifi_BLE_SDK/GD32VW55x_RELEASE_V1.0.2/MSDK/wpa_supplicant/src/ap\ap_config.c **** 	while (start <= end) {
 1694              		.loc 2 1028 2 is_stmt 1
1025:C:/Users/stapi/OneDrive/Desktop/GD32VW553/V1_MQTT_OK/GD32VW55X_Wifi_BLE_SDK/GD32VW55x_RELEASE_V1.0.2/MSDK/wpa_supplicant/src/ap\ap_config.c **** 	end = num_entries - 1;
 1695              		.loc 2 1025 8 is_stmt 0
 1696 0012 8149     		li	s3,0
1029:C:/Users/stapi/OneDrive/Desktop/GD32VW553/V1_MQTT_OK/GD32VW55X_Wifi_BLE_SDK/GD32VW55x_RELEASE_V1.0.2/MSDK/wpa_supplicant/src/ap\ap_config.c **** 		middle = (start + end) / 2;
1030:C:/Users/stapi/OneDrive/Desktop/GD32VW553/V1_MQTT_OK/GD32VW55X_Wifi_BLE_SDK/GD32VW55x_RELEASE_V1.0.2/MSDK/wpa_supplicant/src/ap\ap_config.c **** 		res = os_memcmp(list[middle].addr, addr, ETH_ALEN);
 1697              		.loc 2 1030 23
 1698 0014 930B0009 		li	s7,144
 1699              	.LVL197:
 1700              	.L103:
1028:C:/Users/stapi/OneDrive/Desktop/GD32VW553/V1_MQTT_OK/GD32VW55X_Wifi_BLE_SDK/GD32VW55x_RELEASE_V1.0.2/MSDK/wpa_supplicant/src/ap\ap_config.c **** 		middle = (start + end) / 2;
 1701              		.loc 2 1028 8 is_stmt 1
 1702 0018 63543401 		ble	s3,s0,.L108
1031:C:/Users/stapi/OneDrive/Desktop/GD32VW553/V1_MQTT_OK/GD32VW55X_Wifi_BLE_SDK/GD32VW55x_RELEASE_V1.0.2/MSDK/wpa_supplicant/src/ap\ap_config.c **** 		if (res == 0) {
1032:C:/Users/stapi/OneDrive/Desktop/GD32VW553/V1_MQTT_OK/GD32VW55X_Wifi_BLE_SDK/GD32VW55x_RELEASE_V1.0.2/MSDK/wpa_supplicant/src/ap\ap_config.c **** 			if (vlan_id)
1033:C:/Users/stapi/OneDrive/Desktop/GD32VW553/V1_MQTT_OK/GD32VW55X_Wifi_BLE_SDK/GD32VW55x_RELEASE_V1.0.2/MSDK/wpa_supplicant/src/ap\ap_config.c **** 				*vlan_id = list[middle].vlan_id;
1034:C:/Users/stapi/OneDrive/Desktop/GD32VW553/V1_MQTT_OK/GD32VW55X_Wifi_BLE_SDK/GD32VW55x_RELEASE_V1.0.2/MSDK/wpa_supplicant/src/ap\ap_config.c **** 			return 1;
1035:C:/Users/stapi/OneDrive/Desktop/GD32VW553/V1_MQTT_OK/GD32VW55X_Wifi_BLE_SDK/GD32VW55x_RELEASE_V1.0.2/MSDK/wpa_supplicant/src/ap\ap_config.c **** 		}
1036:C:/Users/stapi/OneDrive/Desktop/GD32VW553/V1_MQTT_OK/GD32VW55X_Wifi_BLE_SDK/GD32VW55x_RELEASE_V1.0.2/MSDK/wpa_supplicant/src/ap\ap_config.c **** 		if (res < 0)
1037:C:/Users/stapi/OneDrive/Desktop/GD32VW553/V1_MQTT_OK/GD32VW55X_Wifi_BLE_SDK/GD32VW55x_RELEASE_V1.0.2/MSDK/wpa_supplicant/src/ap\ap_config.c **** 			start = middle + 1;
1038:C:/Users/stapi/OneDrive/Desktop/GD32VW553/V1_MQTT_OK/GD32VW55X_Wifi_BLE_SDK/GD32VW55x_RELEASE_V1.0.2/MSDK/wpa_supplicant/src/ap\ap_config.c **** 		else
1039:C:/Users/stapi/OneDrive/Desktop/GD32VW553/V1_MQTT_OK/GD32VW55X_Wifi_BLE_SDK/GD32VW55x_RELEASE_V1.0.2/MSDK/wpa_supplicant/src/ap\ap_config.c **** 			end = middle - 1;
1040:C:/Users/stapi/OneDrive/Desktop/GD32VW553/V1_MQTT_OK/GD32VW55X_Wifi_BLE_SDK/GD32VW55x_RELEASE_V1.0.2/MSDK/wpa_supplicant/src/ap\ap_config.c **** 	}
1041:C:/Users/stapi/OneDrive/Desktop/GD32VW553/V1_MQTT_OK/GD32VW55X_Wifi_BLE_SDK/GD32VW55x_RELEASE_V1.0.2/MSDK/wpa_supplicant/src/ap\ap_config.c **** 
1042:C:/Users/stapi/OneDrive/Desktop/GD32VW553/V1_MQTT_OK/GD32VW55X_Wifi_BLE_SDK/GD32VW55x_RELEASE_V1.0.2/MSDK/wpa_supplicant/src/ap\ap_config.c **** 	return 0;
 1703              		.loc 2 1042 9 is_stmt 0
 1704 001c 0145     		li	a0,0
 1705 001e 25A8     		j	.L102
 1706              	.L108:
1029:C:/Users/stapi/OneDrive/Desktop/GD32VW553/V1_MQTT_OK/GD32VW55X_Wifi_BLE_SDK/GD32VW55x_RELEASE_V1.0.2/MSDK/wpa_supplicant/src/ap\ap_config.c **** 		res = os_memcmp(list[middle].addr, addr, ETH_ALEN);
 1707              		.loc 2 1029 3 is_stmt 1
1029:C:/Users/stapi/OneDrive/Desktop/GD32VW553/V1_MQTT_OK/GD32VW55X_Wifi_BLE_SDK/GD32VW55x_RELEASE_V1.0.2/MSDK/wpa_supplicant/src/ap\ap_config.c **** 		res = os_memcmp(list[middle].addr, addr, ETH_ALEN);
 1708              		.loc 2 1029 19 is_stmt 0
 1709 0020 B3848900 		add	s1,s3,s0
1029:C:/Users/stapi/OneDrive/Desktop/GD32VW553/V1_MQTT_OK/GD32VW55X_Wifi_BLE_SDK/GD32VW55x_RELEASE_V1.0.2/MSDK/wpa_supplicant/src/ap\ap_config.c **** 		res = os_memcmp(list[middle].addr, addr, ETH_ALEN);
 1710              		.loc 2 1029 10
 1711 0024 8584     		srai	s1,s1,1
 1712              	.LVL198:
1030:C:/Users/stapi/OneDrive/Desktop/GD32VW553/V1_MQTT_OK/GD32VW55X_Wifi_BLE_SDK/GD32VW55x_RELEASE_V1.0.2/MSDK/wpa_supplicant/src/ap\ap_config.c **** 		if (res == 0) {
 1713              		.loc 2 1030 3 is_stmt 1
1030:C:/Users/stapi/OneDrive/Desktop/GD32VW553/V1_MQTT_OK/GD32VW55X_Wifi_BLE_SDK/GD32VW55x_RELEASE_V1.0.2/MSDK/wpa_supplicant/src/ap\ap_config.c **** 		if (res == 0) {
 1714              		.loc 2 1030 23 is_stmt 0
 1715 0026 528B     		mv	s6,s4
 1716 0028 7F9B74C5 		maddr32	s6, s1, s7
1030:C:/Users/stapi/OneDrive/Desktop/GD32VW553/V1_MQTT_OK/GD32VW55X_Wifi_BLE_SDK/GD32VW55x_RELEASE_V1.0.2/MSDK/wpa_supplicant/src/ap\ap_config.c **** 		if (res == 0) {
 1717              		.loc 2 1030 9
 1718 002c 1946     		li	a2,6
 1719 002e D685     		mv	a1,s5
 1720 0030 5A85     		mv	a0,s6
 1721 0032 97000000 		call	os_memcmp
 1721      E7800000 
 1722              	.LVL199:
1031:C:/Users/stapi/OneDrive/Desktop/GD32VW553/V1_MQTT_OK/GD32VW55X_Wifi_BLE_SDK/GD32VW55x_RELEASE_V1.0.2/MSDK/wpa_supplicant/src/ap\ap_config.c **** 		if (res == 0) {
 1723              		.loc 2 1031 3 is_stmt 1
1031:C:/Users/stapi/OneDrive/Desktop/GD32VW553/V1_MQTT_OK/GD32VW55X_Wifi_BLE_SDK/GD32VW55x_RELEASE_V1.0.2/MSDK/wpa_supplicant/src/ap\ap_config.c **** 		if (res == 0) {
 1724              		.loc 2 1031 6 is_stmt 0
 1725 003a 15E1     		bne	a0,zero,.L104
1032:C:/Users/stapi/OneDrive/Desktop/GD32VW553/V1_MQTT_OK/GD32VW55X_Wifi_BLE_SDK/GD32VW55x_RELEASE_V1.0.2/MSDK/wpa_supplicant/src/ap\ap_config.c **** 				*vlan_id = list[middle].vlan_id;
 1726              		.loc 2 1032 4 is_stmt 1
1034:C:/Users/stapi/OneDrive/Desktop/GD32VW553/V1_MQTT_OK/GD32VW55X_Wifi_BLE_SDK/GD32VW55x_RELEASE_V1.0.2/MSDK/wpa_supplicant/src/ap\ap_config.c **** 		}
 1727              		.loc 2 1034 11 is_stmt 0
 1728 003c 0545     		li	a0,1
 1729              	.LVL200:
1032:C:/Users/stapi/OneDrive/Desktop/GD32VW553/V1_MQTT_OK/GD32VW55X_Wifi_BLE_SDK/GD32VW55x_RELEASE_V1.0.2/MSDK/wpa_supplicant/src/ap\ap_config.c **** 				*vlan_id = list[middle].vlan_id;
 1730              		.loc 2 1032 7
 1731 003e 630C0900 		beq	s2,zero,.L102
1033:C:/Users/stapi/OneDrive/Desktop/GD32VW553/V1_MQTT_OK/GD32VW55X_Wifi_BLE_SDK/GD32VW55x_RELEASE_V1.0.2/MSDK/wpa_supplicant/src/ap\ap_config.c **** 			return 1;
 1732              		.loc 2 1033 5 is_stmt 1
1033:C:/Users/stapi/OneDrive/Desktop/GD32VW553/V1_MQTT_OK/GD32VW55X_Wifi_BLE_SDK/GD32VW55x_RELEASE_V1.0.2/MSDK/wpa_supplicant/src/ap\ap_config.c **** 			return 1;
 1733              		.loc 2 1033 14 is_stmt 0
 1734 0042 13068008 		li	a2,136
 1735 0046 93058B00 		addi	a1,s6,8
 1736 004a 4A85     		mv	a0,s2
 1737 004c 97000000 		call	memcpy
 1737      E7800000 
 1738              	.LVL201:
1034:C:/Users/stapi/OneDrive/Desktop/GD32VW553/V1_MQTT_OK/GD32VW55X_Wifi_BLE_SDK/GD32VW55x_RELEASE_V1.0.2/MSDK/wpa_supplicant/src/ap\ap_config.c **** 		}
 1739              		.loc 2 1034 11
 1740 0054 0545     		li	a0,1
 1741              	.LVL202:
 1742              	.L102:
1043:C:/Users/stapi/OneDrive/Desktop/GD32VW553/V1_MQTT_OK/GD32VW55X_Wifi_BLE_SDK/GD32VW55x_RELEASE_V1.0.2/MSDK/wpa_supplicant/src/ap\ap_config.c **** }
 1743              		.loc 2 1043 1
 1744 0056 17030000 		tail	__riscv_restore_8
 1744      67000300 
 1745              		.cfi_remember_state
 1746              		.cfi_restore 23
 1747              		.cfi_restore 22
 1748              		.cfi_restore 21
 1749              		.cfi_restore 20
 1750              		.cfi_restore 19
 1751              		.cfi_restore 18
 1752              		.cfi_restore 9
 1753              		.cfi_restore 8
 1754              		.cfi_restore 1
 1755              		.cfi_def_cfa_offset 0
 1756              	.LVL203:
 1757              	.L104:
 1758              		.cfi_restore_state
1036:C:/Users/stapi/OneDrive/Desktop/GD32VW553/V1_MQTT_OK/GD32VW55X_Wifi_BLE_SDK/GD32VW55x_RELEASE_V1.0.2/MSDK/wpa_supplicant/src/ap\ap_config.c **** 			start = middle + 1;
 1759              		.loc 2 1036 3 is_stmt 1
1036:C:/Users/stapi/OneDrive/Desktop/GD32VW553/V1_MQTT_OK/GD32VW55X_Wifi_BLE_SDK/GD32VW55x_RELEASE_V1.0.2/MSDK/wpa_supplicant/src/ap\ap_config.c **** 			start = middle + 1;
 1760              		.loc 2 1036 6 is_stmt 0
 1761 005e 63550500 		bge	a0,zero,.L106
1037:C:/Users/stapi/OneDrive/Desktop/GD32VW553/V1_MQTT_OK/GD32VW55X_Wifi_BLE_SDK/GD32VW55x_RELEASE_V1.0.2/MSDK/wpa_supplicant/src/ap\ap_config.c **** 		else
 1762              		.loc 2 1037 4 is_stmt 1
1037:C:/Users/stapi/OneDrive/Desktop/GD32VW553/V1_MQTT_OK/GD32VW55X_Wifi_BLE_SDK/GD32VW55x_RELEASE_V1.0.2/MSDK/wpa_supplicant/src/ap\ap_config.c **** 		else
 1763              		.loc 2 1037 10 is_stmt 0
 1764 0062 93891400 		addi	s3,s1,1
 1765              	.LVL204:
 1766 0066 4DBF     		j	.L103
 1767              	.L106:
1039:C:/Users/stapi/OneDrive/Desktop/GD32VW553/V1_MQTT_OK/GD32VW55X_Wifi_BLE_SDK/GD32VW55x_RELEASE_V1.0.2/MSDK/wpa_supplicant/src/ap\ap_config.c **** 	}
 1768              		.loc 2 1039 4 is_stmt 1
1039:C:/Users/stapi/OneDrive/Desktop/GD32VW553/V1_MQTT_OK/GD32VW55X_Wifi_BLE_SDK/GD32VW55x_RELEASE_V1.0.2/MSDK/wpa_supplicant/src/ap\ap_config.c **** 	}
 1769              		.loc 2 1039 8 is_stmt 0
 1770 0068 1384F4FF 		addi	s0,s1,-1
 1771              	.LVL205:
 1772 006c 75B7     		j	.L103
 1773              		.cfi_endproc
 1774              	.LFE157:
 1776              		.section	.text.hostapd_rate_found,"ax",@progbits
 1777              		.align	1
 1778              		.globl	hostapd_rate_found
 1780              	hostapd_rate_found:
 1781              	.LFB158:
1044:C:/Users/stapi/OneDrive/Desktop/GD32VW553/V1_MQTT_OK/GD32VW55X_Wifi_BLE_SDK/GD32VW55x_RELEASE_V1.0.2/MSDK/wpa_supplicant/src/ap\ap_config.c **** 
1045:C:/Users/stapi/OneDrive/Desktop/GD32VW553/V1_MQTT_OK/GD32VW55X_Wifi_BLE_SDK/GD32VW55x_RELEASE_V1.0.2/MSDK/wpa_supplicant/src/ap\ap_config.c **** 
1046:C:/Users/stapi/OneDrive/Desktop/GD32VW553/V1_MQTT_OK/GD32VW55X_Wifi_BLE_SDK/GD32VW55x_RELEASE_V1.0.2/MSDK/wpa_supplicant/src/ap\ap_config.c **** int hostapd_rate_found(int *list, int rate)
1047:C:/Users/stapi/OneDrive/Desktop/GD32VW553/V1_MQTT_OK/GD32VW55X_Wifi_BLE_SDK/GD32VW55x_RELEASE_V1.0.2/MSDK/wpa_supplicant/src/ap\ap_config.c **** {
 1782              		.loc 2 1047 1 is_stmt 1
 1783              		.cfi_startproc
 1784              	.LVL206:
1048:C:/Users/stapi/OneDrive/Desktop/GD32VW553/V1_MQTT_OK/GD32VW55X_Wifi_BLE_SDK/GD32VW55x_RELEASE_V1.0.2/MSDK/wpa_supplicant/src/ap\ap_config.c **** 	int i;
 1785              		.loc 2 1048 2
1049:C:/Users/stapi/OneDrive/Desktop/GD32VW553/V1_MQTT_OK/GD32VW55X_Wifi_BLE_SDK/GD32VW55x_RELEASE_V1.0.2/MSDK/wpa_supplicant/src/ap\ap_config.c **** 
1050:C:/Users/stapi/OneDrive/Desktop/GD32VW553/V1_MQTT_OK/GD32VW55X_Wifi_BLE_SDK/GD32VW55x_RELEASE_V1.0.2/MSDK/wpa_supplicant/src/ap\ap_config.c **** 	if (list == NULL)
 1786              		.loc 2 1050 2
 1787              		.loc 2 1050 5 is_stmt 0
 1788 0000 01C5     		beq	a0,zero,.L115
 1789              	.LVL207:
 1790              	.L113:
1051:C:/Users/stapi/OneDrive/Desktop/GD32VW553/V1_MQTT_OK/GD32VW55X_Wifi_BLE_SDK/GD32VW55x_RELEASE_V1.0.2/MSDK/wpa_supplicant/src/ap\ap_config.c **** 		return 0;
1052:C:/Users/stapi/OneDrive/Desktop/GD32VW553/V1_MQTT_OK/GD32VW55X_Wifi_BLE_SDK/GD32VW55x_RELEASE_V1.0.2/MSDK/wpa_supplicant/src/ap\ap_config.c **** 
1053:C:/Users/stapi/OneDrive/Desktop/GD32VW553/V1_MQTT_OK/GD32VW55X_Wifi_BLE_SDK/GD32VW55x_RELEASE_V1.0.2/MSDK/wpa_supplicant/src/ap\ap_config.c **** 	for (i = 0; list[i] >= 0; i++)
 1791              		.loc 2 1053 14 is_stmt 1 discriminator 1
 1792              		.loc 2 1053 18 is_stmt 0 discriminator 1
 1793 0002 1C41     		lw	a5,0(a0)
 1794              		.loc 2 1053 2 discriminator 1
 1795 0004 63D40700 		bge	a5,zero,.L114
 1796              	.L115:
1051:C:/Users/stapi/OneDrive/Desktop/GD32VW553/V1_MQTT_OK/GD32VW55X_Wifi_BLE_SDK/GD32VW55x_RELEASE_V1.0.2/MSDK/wpa_supplicant/src/ap\ap_config.c **** 		return 0;
 1797              		.loc 2 1051 10
 1798 0008 0145     		li	a0,0
 1799 000a 8280     		ret
 1800              	.L114:
1054:C:/Users/stapi/OneDrive/Desktop/GD32VW553/V1_MQTT_OK/GD32VW55X_Wifi_BLE_SDK/GD32VW55x_RELEASE_V1.0.2/MSDK/wpa_supplicant/src/ap\ap_config.c **** 		if (list[i] == rate)
 1801              		.loc 2 1054 3 is_stmt 1
 1802              		.loc 2 1054 6 is_stmt 0
 1803 000c 1105     		addi	a0,a0,4
 1804 000e E39AB7FE 		bne	a5,a1,.L113
1055:C:/Users/stapi/OneDrive/Desktop/GD32VW553/V1_MQTT_OK/GD32VW55X_Wifi_BLE_SDK/GD32VW55x_RELEASE_V1.0.2/MSDK/wpa_supplicant/src/ap\ap_config.c **** 			return 1;
 1805              		.loc 2 1055 11
 1806 0012 0545     		li	a0,1
1056:C:/Users/stapi/OneDrive/Desktop/GD32VW553/V1_MQTT_OK/GD32VW55X_Wifi_BLE_SDK/GD32VW55x_RELEASE_V1.0.2/MSDK/wpa_supplicant/src/ap\ap_config.c **** 
1057:C:/Users/stapi/OneDrive/Desktop/GD32VW553/V1_MQTT_OK/GD32VW55X_Wifi_BLE_SDK/GD32VW55x_RELEASE_V1.0.2/MSDK/wpa_supplicant/src/ap\ap_config.c **** 	return 0;
1058:C:/Users/stapi/OneDrive/Desktop/GD32VW553/V1_MQTT_OK/GD32VW55X_Wifi_BLE_SDK/GD32VW55x_RELEASE_V1.0.2/MSDK/wpa_supplicant/src/ap\ap_config.c **** }
 1807              		.loc 2 1058 1
 1808 0014 8280     		ret
 1809              		.cfi_endproc
 1810              	.LFE158:
 1812              		.section	.text.hostapd_vlan_valid,"ax",@progbits
 1813              		.align	1
 1814              		.globl	hostapd_vlan_valid
 1816              	hostapd_vlan_valid:
 1817              	.LFB159:
1059:C:/Users/stapi/OneDrive/Desktop/GD32VW553/V1_MQTT_OK/GD32VW55X_Wifi_BLE_SDK/GD32VW55x_RELEASE_V1.0.2/MSDK/wpa_supplicant/src/ap\ap_config.c **** 
1060:C:/Users/stapi/OneDrive/Desktop/GD32VW553/V1_MQTT_OK/GD32VW55X_Wifi_BLE_SDK/GD32VW55x_RELEASE_V1.0.2/MSDK/wpa_supplicant/src/ap\ap_config.c **** 
1061:C:/Users/stapi/OneDrive/Desktop/GD32VW553/V1_MQTT_OK/GD32VW55X_Wifi_BLE_SDK/GD32VW55x_RELEASE_V1.0.2/MSDK/wpa_supplicant/src/ap\ap_config.c **** int hostapd_vlan_valid(struct hostapd_vlan *vlan,
1062:C:/Users/stapi/OneDrive/Desktop/GD32VW553/V1_MQTT_OK/GD32VW55X_Wifi_BLE_SDK/GD32VW55x_RELEASE_V1.0.2/MSDK/wpa_supplicant/src/ap\ap_config.c **** 		       struct vlan_description *vlan_desc)
1063:C:/Users/stapi/OneDrive/Desktop/GD32VW553/V1_MQTT_OK/GD32VW55X_Wifi_BLE_SDK/GD32VW55x_RELEASE_V1.0.2/MSDK/wpa_supplicant/src/ap\ap_config.c **** {
 1818              		.loc 2 1063 1 is_stmt 1
 1819              		.cfi_startproc
 1820              	.LVL208:
1064:C:/Users/stapi/OneDrive/Desktop/GD32VW553/V1_MQTT_OK/GD32VW55X_Wifi_BLE_SDK/GD32VW55x_RELEASE_V1.0.2/MSDK/wpa_supplicant/src/ap\ap_config.c **** 	struct hostapd_vlan *v = vlan;
 1821              		.loc 2 1064 2
1063:C:/Users/stapi/OneDrive/Desktop/GD32VW553/V1_MQTT_OK/GD32VW55X_Wifi_BLE_SDK/GD32VW55x_RELEASE_V1.0.2/MSDK/wpa_supplicant/src/ap\ap_config.c **** 	struct hostapd_vlan *v = vlan;
 1822              		.loc 2 1063 1 is_stmt 0
 1823 0000 AA86     		mv	a3,a0
 1824              	.LVL209:
1065:C:/Users/stapi/OneDrive/Desktop/GD32VW553/V1_MQTT_OK/GD32VW55X_Wifi_BLE_SDK/GD32VW55x_RELEASE_V1.0.2/MSDK/wpa_supplicant/src/ap\ap_config.c **** 	int i;
 1825              		.loc 2 1065 2 is_stmt 1
1066:C:/Users/stapi/OneDrive/Desktop/GD32VW553/V1_MQTT_OK/GD32VW55X_Wifi_BLE_SDK/GD32VW55x_RELEASE_V1.0.2/MSDK/wpa_supplicant/src/ap\ap_config.c **** 
1067:C:/Users/stapi/OneDrive/Desktop/GD32VW553/V1_MQTT_OK/GD32VW55X_Wifi_BLE_SDK/GD32VW55x_RELEASE_V1.0.2/MSDK/wpa_supplicant/src/ap\ap_config.c **** 	if (!vlan_desc->notempty || vlan_desc->untagged < 0 ||
 1826              		.loc 2 1067 2
 1827              		.loc 2 1067 16 is_stmt 0
 1828 0002 8841     		lw	a0,0(a1)
 1829              	.LVL210:
 1830              		.loc 2 1067 5
 1831 0004 0DC9     		beq	a0,zero,.L117
 1832              		.loc 2 1067 39 discriminator 1
 1833 0006 D041     		lw	a2,4(a1)
 1834              		.loc 2 1067 54 discriminator 1
 1835 0008 8567     		li	a5,4096
 1836 000a F917     		addi	a5,a5,-2
1068:C:/Users/stapi/OneDrive/Desktop/GD32VW553/V1_MQTT_OK/GD32VW55X_Wifi_BLE_SDK/GD32VW55x_RELEASE_V1.0.2/MSDK/wpa_supplicant/src/ap\ap_config.c **** 	    vlan_desc->untagged > MAX_VLAN_ID)
1069:C:/Users/stapi/OneDrive/Desktop/GD32VW553/V1_MQTT_OK/GD32VW55X_Wifi_BLE_SDK/GD32VW55x_RELEASE_V1.0.2/MSDK/wpa_supplicant/src/ap\ap_config.c **** 		return 0;
 1837              		.loc 2 1069 10 discriminator 1
 1838 000c 0145     		li	a0,0
1067:C:/Users/stapi/OneDrive/Desktop/GD32VW553/V1_MQTT_OK/GD32VW55X_Wifi_BLE_SDK/GD32VW55x_RELEASE_V1.0.2/MSDK/wpa_supplicant/src/ap\ap_config.c **** 	    vlan_desc->untagged > MAX_VLAN_ID)
 1839              		.loc 2 1067 54 discriminator 1
 1840 000e 63E4C702 		bgtu	a2,a5,.L117
 1841 0012 13878500 		addi	a4,a1,8
 1842 0016 13858508 		addi	a0,a1,136
 1843              	.L119:
1070:C:/Users/stapi/OneDrive/Desktop/GD32VW553/V1_MQTT_OK/GD32VW55X_Wifi_BLE_SDK/GD32VW55x_RELEASE_V1.0.2/MSDK/wpa_supplicant/src/ap\ap_config.c **** 	for (i = 0; i < MAX_NUM_TAGGED_VLAN; i++) {
1071:C:/Users/stapi/OneDrive/Desktop/GD32VW553/V1_MQTT_OK/GD32VW55X_Wifi_BLE_SDK/GD32VW55x_RELEASE_V1.0.2/MSDK/wpa_supplicant/src/ap\ap_config.c **** 		if (vlan_desc->tagged[i] < 0 ||
 1844              		.loc 2 1071 3 is_stmt 1
 1845              		.loc 2 1071 6 is_stmt 0
 1846 001a 03280700 		lw	a6,0(a4)
 1847 001e 63EB0701 		bgtu	a6,a5,.L122
1070:C:/Users/stapi/OneDrive/Desktop/GD32VW553/V1_MQTT_OK/GD32VW55X_Wifi_BLE_SDK/GD32VW55x_RELEASE_V1.0.2/MSDK/wpa_supplicant/src/ap\ap_config.c **** 	for (i = 0; i < MAX_NUM_TAGGED_VLAN; i++) {
 1848              		.loc 2 1070 39 is_stmt 1 discriminator 2
1070:C:/Users/stapi/OneDrive/Desktop/GD32VW553/V1_MQTT_OK/GD32VW55X_Wifi_BLE_SDK/GD32VW55x_RELEASE_V1.0.2/MSDK/wpa_supplicant/src/ap\ap_config.c **** 	for (i = 0; i < MAX_NUM_TAGGED_VLAN; i++) {
 1849              		.loc 2 1070 14 discriminator 2
1070:C:/Users/stapi/OneDrive/Desktop/GD32VW553/V1_MQTT_OK/GD32VW55X_Wifi_BLE_SDK/GD32VW55x_RELEASE_V1.0.2/MSDK/wpa_supplicant/src/ap\ap_config.c **** 	for (i = 0; i < MAX_NUM_TAGGED_VLAN; i++) {
 1850              		.loc 2 1070 2 is_stmt 0 discriminator 2
 1851 0022 1107     		addi	a4,a4,4
 1852 0024 E31BA7FE 		bne	a4,a0,.L119
1072:C:/Users/stapi/OneDrive/Desktop/GD32VW553/V1_MQTT_OK/GD32VW55X_Wifi_BLE_SDK/GD32VW55x_RELEASE_V1.0.2/MSDK/wpa_supplicant/src/ap\ap_config.c **** 		    vlan_desc->tagged[i] > MAX_VLAN_ID)
1073:C:/Users/stapi/OneDrive/Desktop/GD32VW553/V1_MQTT_OK/GD32VW55X_Wifi_BLE_SDK/GD32VW55x_RELEASE_V1.0.2/MSDK/wpa_supplicant/src/ap\ap_config.c **** 			return 0;
1074:C:/Users/stapi/OneDrive/Desktop/GD32VW553/V1_MQTT_OK/GD32VW55X_Wifi_BLE_SDK/GD32VW55x_RELEASE_V1.0.2/MSDK/wpa_supplicant/src/ap\ap_config.c **** 	}
1075:C:/Users/stapi/OneDrive/Desktop/GD32VW553/V1_MQTT_OK/GD32VW55X_Wifi_BLE_SDK/GD32VW55x_RELEASE_V1.0.2/MSDK/wpa_supplicant/src/ap\ap_config.c **** 	if (!vlan_desc->untagged && !vlan_desc->tagged[0])
 1853              		.loc 2 1075 2 is_stmt 1
 1854              		.loc 2 1075 5 is_stmt 0
 1855 0028 19E2     		bne	a2,zero,.L120
 1856              		.loc 2 1075 48 discriminator 1
 1857 002a 8845     		lw	a0,8(a1)
 1858              		.loc 2 1075 27 discriminator 1
 1859 002c 09C5     		beq	a0,zero,.L117
 1860              	.L120:
1076:C:/Users/stapi/OneDrive/Desktop/GD32VW553/V1_MQTT_OK/GD32VW55X_Wifi_BLE_SDK/GD32VW55x_RELEASE_V1.0.2/MSDK/wpa_supplicant/src/ap\ap_config.c **** 		return 0;
1077:C:/Users/stapi/OneDrive/Desktop/GD32VW553/V1_MQTT_OK/GD32VW55X_Wifi_BLE_SDK/GD32VW55x_RELEASE_V1.0.2/MSDK/wpa_supplicant/src/ap\ap_config.c **** 
1078:C:/Users/stapi/OneDrive/Desktop/GD32VW553/V1_MQTT_OK/GD32VW55X_Wifi_BLE_SDK/GD32VW55x_RELEASE_V1.0.2/MSDK/wpa_supplicant/src/ap\ap_config.c **** 	while (v) {
 1861              		.loc 2 1078 8 is_stmt 1
 1862 002e 3335D000 		snez	a0,a3
 1863 0032 8280     		ret
 1864              	.L122:
1069:C:/Users/stapi/OneDrive/Desktop/GD32VW553/V1_MQTT_OK/GD32VW55X_Wifi_BLE_SDK/GD32VW55x_RELEASE_V1.0.2/MSDK/wpa_supplicant/src/ap\ap_config.c **** 	for (i = 0; i < MAX_NUM_TAGGED_VLAN; i++) {
 1865              		.loc 2 1069 10 is_stmt 0
 1866 0034 0145     		li	a0,0
 1867              	.L117:
1079:C:/Users/stapi/OneDrive/Desktop/GD32VW553/V1_MQTT_OK/GD32VW55X_Wifi_BLE_SDK/GD32VW55x_RELEASE_V1.0.2/MSDK/wpa_supplicant/src/ap\ap_config.c **** 		if (!vlan_compare(&v->vlan_desc, vlan_desc) ||
1080:C:/Users/stapi/OneDrive/Desktop/GD32VW553/V1_MQTT_OK/GD32VW55X_Wifi_BLE_SDK/GD32VW55x_RELEASE_V1.0.2/MSDK/wpa_supplicant/src/ap\ap_config.c **** 		    v->vlan_id == VLAN_ID_WILDCARD)
1081:C:/Users/stapi/OneDrive/Desktop/GD32VW553/V1_MQTT_OK/GD32VW55X_Wifi_BLE_SDK/GD32VW55x_RELEASE_V1.0.2/MSDK/wpa_supplicant/src/ap\ap_config.c **** 			return 1;
1082:C:/Users/stapi/OneDrive/Desktop/GD32VW553/V1_MQTT_OK/GD32VW55X_Wifi_BLE_SDK/GD32VW55x_RELEASE_V1.0.2/MSDK/wpa_supplicant/src/ap\ap_config.c **** 		v = v->next;
1083:C:/Users/stapi/OneDrive/Desktop/GD32VW553/V1_MQTT_OK/GD32VW55X_Wifi_BLE_SDK/GD32VW55x_RELEASE_V1.0.2/MSDK/wpa_supplicant/src/ap\ap_config.c **** 	}
1084:C:/Users/stapi/OneDrive/Desktop/GD32VW553/V1_MQTT_OK/GD32VW55X_Wifi_BLE_SDK/GD32VW55x_RELEASE_V1.0.2/MSDK/wpa_supplicant/src/ap\ap_config.c **** 	return 0;
1085:C:/Users/stapi/OneDrive/Desktop/GD32VW553/V1_MQTT_OK/GD32VW55X_Wifi_BLE_SDK/GD32VW55x_RELEASE_V1.0.2/MSDK/wpa_supplicant/src/ap\ap_config.c **** }
 1868              		.loc 2 1085 1
 1869 0036 8280     		ret
 1870              		.cfi_endproc
 1871              	.LFE159:
 1873              		.section	.text.hostapd_get_vlan_id_ifname,"ax",@progbits
 1874              		.align	1
 1875              		.globl	hostapd_get_vlan_id_ifname
 1877              	hostapd_get_vlan_id_ifname:
 1878              	.LFB160:
1086:C:/Users/stapi/OneDrive/Desktop/GD32VW553/V1_MQTT_OK/GD32VW55X_Wifi_BLE_SDK/GD32VW55x_RELEASE_V1.0.2/MSDK/wpa_supplicant/src/ap\ap_config.c **** 
1087:C:/Users/stapi/OneDrive/Desktop/GD32VW553/V1_MQTT_OK/GD32VW55X_Wifi_BLE_SDK/GD32VW55x_RELEASE_V1.0.2/MSDK/wpa_supplicant/src/ap\ap_config.c **** 
1088:C:/Users/stapi/OneDrive/Desktop/GD32VW553/V1_MQTT_OK/GD32VW55X_Wifi_BLE_SDK/GD32VW55x_RELEASE_V1.0.2/MSDK/wpa_supplicant/src/ap\ap_config.c **** const char * hostapd_get_vlan_id_ifname(struct hostapd_vlan *vlan, int vlan_id)
1089:C:/Users/stapi/OneDrive/Desktop/GD32VW553/V1_MQTT_OK/GD32VW55X_Wifi_BLE_SDK/GD32VW55x_RELEASE_V1.0.2/MSDK/wpa_supplicant/src/ap\ap_config.c **** {
 1879              		.loc 2 1089 1 is_stmt 1
 1880              		.cfi_startproc
 1881              	.LVL211:
1090:C:/Users/stapi/OneDrive/Desktop/GD32VW553/V1_MQTT_OK/GD32VW55X_Wifi_BLE_SDK/GD32VW55x_RELEASE_V1.0.2/MSDK/wpa_supplicant/src/ap\ap_config.c **** 	struct hostapd_vlan *v = vlan;
 1882              		.loc 2 1090 2
1091:C:/Users/stapi/OneDrive/Desktop/GD32VW553/V1_MQTT_OK/GD32VW55X_Wifi_BLE_SDK/GD32VW55x_RELEASE_V1.0.2/MSDK/wpa_supplicant/src/ap\ap_config.c **** 	while (v) {
 1883              		.loc 2 1091 2
 1884              	.L131:
 1885              		.loc 2 1091 8
 1886 0000 11E1     		bne	a0,zero,.L134
1092:C:/Users/stapi/OneDrive/Desktop/GD32VW553/V1_MQTT_OK/GD32VW55X_Wifi_BLE_SDK/GD32VW55x_RELEASE_V1.0.2/MSDK/wpa_supplicant/src/ap\ap_config.c **** 		if (v->vlan_id == vlan_id)
1093:C:/Users/stapi/OneDrive/Desktop/GD32VW553/V1_MQTT_OK/GD32VW55X_Wifi_BLE_SDK/GD32VW55x_RELEASE_V1.0.2/MSDK/wpa_supplicant/src/ap\ap_config.c **** 			return v->ifname;
1094:C:/Users/stapi/OneDrive/Desktop/GD32VW553/V1_MQTT_OK/GD32VW55X_Wifi_BLE_SDK/GD32VW55x_RELEASE_V1.0.2/MSDK/wpa_supplicant/src/ap\ap_config.c **** 		v = v->next;
1095:C:/Users/stapi/OneDrive/Desktop/GD32VW553/V1_MQTT_OK/GD32VW55X_Wifi_BLE_SDK/GD32VW55x_RELEASE_V1.0.2/MSDK/wpa_supplicant/src/ap\ap_config.c **** 	}
1096:C:/Users/stapi/OneDrive/Desktop/GD32VW553/V1_MQTT_OK/GD32VW55X_Wifi_BLE_SDK/GD32VW55x_RELEASE_V1.0.2/MSDK/wpa_supplicant/src/ap\ap_config.c **** 	return NULL;
1097:C:/Users/stapi/OneDrive/Desktop/GD32VW553/V1_MQTT_OK/GD32VW55X_Wifi_BLE_SDK/GD32VW55x_RELEASE_V1.0.2/MSDK/wpa_supplicant/src/ap\ap_config.c **** }
 1887              		.loc 2 1097 1 is_stmt 0
 1888 0002 8280     		ret
 1889              	.L134:
1092:C:/Users/stapi/OneDrive/Desktop/GD32VW553/V1_MQTT_OK/GD32VW55X_Wifi_BLE_SDK/GD32VW55x_RELEASE_V1.0.2/MSDK/wpa_supplicant/src/ap\ap_config.c **** 		if (v->vlan_id == vlan_id)
 1890              		.loc 2 1092 3 is_stmt 1
1092:C:/Users/stapi/OneDrive/Desktop/GD32VW553/V1_MQTT_OK/GD32VW55X_Wifi_BLE_SDK/GD32VW55x_RELEASE_V1.0.2/MSDK/wpa_supplicant/src/ap\ap_config.c **** 		if (v->vlan_id == vlan_id)
 1891              		.loc 2 1092 6 is_stmt 0
 1892 0004 5C41     		lw	a5,4(a0)
 1893 0006 6395B700 		bne	a5,a1,.L132
1093:C:/Users/stapi/OneDrive/Desktop/GD32VW553/V1_MQTT_OK/GD32VW55X_Wifi_BLE_SDK/GD32VW55x_RELEASE_V1.0.2/MSDK/wpa_supplicant/src/ap\ap_config.c **** 		v = v->next;
 1894              		.loc 2 1093 4 is_stmt 1
1093:C:/Users/stapi/OneDrive/Desktop/GD32VW553/V1_MQTT_OK/GD32VW55X_Wifi_BLE_SDK/GD32VW55x_RELEASE_V1.0.2/MSDK/wpa_supplicant/src/ap\ap_config.c **** 		v = v->next;
 1895              		.loc 2 1093 11 is_stmt 0
 1896 000a 13050509 		addi	a0,a0,144
 1897              	.LVL212:
 1898 000e 8280     		ret
 1899              	.LVL213:
 1900              	.L132:
1094:C:/Users/stapi/OneDrive/Desktop/GD32VW553/V1_MQTT_OK/GD32VW55X_Wifi_BLE_SDK/GD32VW55x_RELEASE_V1.0.2/MSDK/wpa_supplicant/src/ap\ap_config.c **** 	}
 1901              		.loc 2 1094 3 is_stmt 1
1094:C:/Users/stapi/OneDrive/Desktop/GD32VW553/V1_MQTT_OK/GD32VW55X_Wifi_BLE_SDK/GD32VW55x_RELEASE_V1.0.2/MSDK/wpa_supplicant/src/ap\ap_config.c **** 	}
 1902              		.loc 2 1094 5 is_stmt 0
 1903 0010 0841     		lw	a0,0(a0)
 1904              	.LVL214:
 1905 0012 FDB7     		j	.L131
 1906              		.cfi_endproc
 1907              	.LFE160:
 1909              		.section	.rodata.hostapd_get_psk.str1.4,"aMS",@progbits,1
 1910              		.align	2
 1911              	.LC1:
 1912 0000 53656172 		.string	"Searching a PSK for %02x:%02x:%02x:%02x:%02x:%02x p2p_dev_addr=%02x:%02x:%02x:%02x:%02x:%
 1912      6368696E 
 1912      67206120 
 1912      50534B20 
 1912      666F7220 
 1913 0069 000000   		.align	2
 1914              	.LC2:
 1915 006c 53656172 		.string	"Searching a PSK for %02x:%02x:%02x:%02x:%02x:%02x prev_psk=%p"
 1915      6368696E 
 1915      67206120 
 1915      50534B20 
 1915      666F7220 
 1916              		.section	.text.hostapd_get_psk,"ax",@progbits
 1917              		.align	1
 1918              		.globl	hostapd_get_psk
 1920              	hostapd_get_psk:
 1921              	.LFB161:
1098:C:/Users/stapi/OneDrive/Desktop/GD32VW553/V1_MQTT_OK/GD32VW55X_Wifi_BLE_SDK/GD32VW55x_RELEASE_V1.0.2/MSDK/wpa_supplicant/src/ap\ap_config.c **** 
1099:C:/Users/stapi/OneDrive/Desktop/GD32VW553/V1_MQTT_OK/GD32VW55X_Wifi_BLE_SDK/GD32VW55x_RELEASE_V1.0.2/MSDK/wpa_supplicant/src/ap\ap_config.c **** 
1100:C:/Users/stapi/OneDrive/Desktop/GD32VW553/V1_MQTT_OK/GD32VW55X_Wifi_BLE_SDK/GD32VW55x_RELEASE_V1.0.2/MSDK/wpa_supplicant/src/ap\ap_config.c **** const u8 * hostapd_get_psk(const struct hostapd_bss_config *conf,
1101:C:/Users/stapi/OneDrive/Desktop/GD32VW553/V1_MQTT_OK/GD32VW55X_Wifi_BLE_SDK/GD32VW55x_RELEASE_V1.0.2/MSDK/wpa_supplicant/src/ap\ap_config.c **** 			   const u8 *addr, const u8 *p2p_dev_addr,
1102:C:/Users/stapi/OneDrive/Desktop/GD32VW553/V1_MQTT_OK/GD32VW55X_Wifi_BLE_SDK/GD32VW55x_RELEASE_V1.0.2/MSDK/wpa_supplicant/src/ap\ap_config.c **** 			   const u8 *prev_psk, int *vlan_id)
1103:C:/Users/stapi/OneDrive/Desktop/GD32VW553/V1_MQTT_OK/GD32VW55X_Wifi_BLE_SDK/GD32VW55x_RELEASE_V1.0.2/MSDK/wpa_supplicant/src/ap\ap_config.c **** {
 1922              		.loc 2 1103 1 is_stmt 1
 1923              		.cfi_startproc
 1924              	.LVL215:
 1925 0000 17030000 		call	t0,__riscv_save_7
 1925      E7020300 
 1926              		.cfi_offset 22, -32
 1927              		.cfi_offset 21, -28
 1928              		.cfi_offset 20, -24
 1929              		.cfi_offset 19, -20
 1930              		.cfi_offset 18, -16
 1931              		.cfi_offset 9, -12
 1932              		.cfi_offset 8, -8
 1933              		.cfi_offset 1, -4
 1934              		.cfi_def_cfa_offset 32
1104:C:/Users/stapi/OneDrive/Desktop/GD32VW553/V1_MQTT_OK/GD32VW55X_Wifi_BLE_SDK/GD32VW55x_RELEASE_V1.0.2/MSDK/wpa_supplicant/src/ap\ap_config.c **** 	struct hostapd_wpa_psk *psk;
 1935              		.loc 2 1104 2
1105:C:/Users/stapi/OneDrive/Desktop/GD32VW553/V1_MQTT_OK/GD32VW55X_Wifi_BLE_SDK/GD32VW55x_RELEASE_V1.0.2/MSDK/wpa_supplicant/src/ap\ap_config.c **** 	int next_ok = prev_psk == NULL;
 1936              		.loc 2 1105 2
1103:C:/Users/stapi/OneDrive/Desktop/GD32VW553/V1_MQTT_OK/GD32VW55X_Wifi_BLE_SDK/GD32VW55x_RELEASE_V1.0.2/MSDK/wpa_supplicant/src/ap\ap_config.c **** 	struct hostapd_wpa_psk *psk;
 1937              		.loc 2 1103 1 is_stmt 0
 1938 0008 3971     		addi	sp,sp,-64
 1939              		.cfi_def_cfa_offset 96
1103:C:/Users/stapi/OneDrive/Desktop/GD32VW553/V1_MQTT_OK/GD32VW55X_Wifi_BLE_SDK/GD32VW55x_RELEASE_V1.0.2/MSDK/wpa_supplicant/src/ap\ap_config.c **** 	struct hostapd_wpa_psk *psk;
 1940              		.loc 2 1103 1
 1941 000a 2A89     		mv	s2,a0
 1942 000c AE84     		mv	s1,a1
 1943 000e 3284     		mv	s0,a2
 1944 0010 B689     		mv	s3,a3
 1945 0012 3A8A     		mv	s4,a4
 1946              		.loc 2 1105 25
 1947 0014 93BA1600 		seqz	s5,a3
 1948              	.LVL216:
1106:C:/Users/stapi/OneDrive/Desktop/GD32VW553/V1_MQTT_OK/GD32VW55X_Wifi_BLE_SDK/GD32VW55x_RELEASE_V1.0.2/MSDK/wpa_supplicant/src/ap\ap_config.c **** 
1107:C:/Users/stapi/OneDrive/Desktop/GD32VW553/V1_MQTT_OK/GD32VW55X_Wifi_BLE_SDK/GD32VW55x_RELEASE_V1.0.2/MSDK/wpa_supplicant/src/ap\ap_config.c **** 	if (vlan_id)
 1949              		.loc 2 1107 2 is_stmt 1
 1950              		.loc 2 1107 5 is_stmt 0
 1951 0018 19C3     		beq	a4,zero,.L136
1108:C:/Users/stapi/OneDrive/Desktop/GD32VW553/V1_MQTT_OK/GD32VW55X_Wifi_BLE_SDK/GD32VW55x_RELEASE_V1.0.2/MSDK/wpa_supplicant/src/ap\ap_config.c **** 		*vlan_id = 0;
 1952              		.loc 2 1108 3 is_stmt 1
 1953              		.loc 2 1108 12 is_stmt 0
 1954 001a 23200700 		sw	zero,0(a4)
 1955              	.L136:
1109:C:/Users/stapi/OneDrive/Desktop/GD32VW553/V1_MQTT_OK/GD32VW55X_Wifi_BLE_SDK/GD32VW55x_RELEASE_V1.0.2/MSDK/wpa_supplicant/src/ap\ap_config.c **** 
1110:C:/Users/stapi/OneDrive/Desktop/GD32VW553/V1_MQTT_OK/GD32VW55X_Wifi_BLE_SDK/GD32VW55x_RELEASE_V1.0.2/MSDK/wpa_supplicant/src/ap\ap_config.c **** 	if (p2p_dev_addr && !is_zero_ether_addr(p2p_dev_addr)) {
 1956              		.loc 2 1110 2 is_stmt 1
1111:C:/Users/stapi/OneDrive/Desktop/GD32VW553/V1_MQTT_OK/GD32VW55X_Wifi_BLE_SDK/GD32VW55x_RELEASE_V1.0.2/MSDK/wpa_supplicant/src/ap\ap_config.c **** 		wpa_printf(MSG_DEBUG, "Searching a PSK for " MACSTR
 1957              		.loc 2 1111 3 is_stmt 0
 1958 001e 03C60400 		lbu	a2,0(s1)
 1959              	.LVL217:
 1960 0022 83C61400 		lbu	a3,1(s1)
 1961              	.LVL218:
 1962 0026 03C72400 		lbu	a4,2(s1)
 1963              	.LVL219:
 1964 002a 83C73400 		lbu	a5,3(s1)
 1965 002e 03C84400 		lbu	a6,4(s1)
 1966 0032 83C85400 		lbu	a7,5(s1)
1110:C:/Users/stapi/OneDrive/Desktop/GD32VW553/V1_MQTT_OK/GD32VW55X_Wifi_BLE_SDK/GD32VW55x_RELEASE_V1.0.2/MSDK/wpa_supplicant/src/ap\ap_config.c **** 		wpa_printf(MSG_DEBUG, "Searching a PSK for " MACSTR
 1967              		.loc 2 1110 5
 1968 0036 41C4     		beq	s0,zero,.L137
1110:C:/Users/stapi/OneDrive/Desktop/GD32VW553/V1_MQTT_OK/GD32VW55X_Wifi_BLE_SDK/GD32VW55x_RELEASE_V1.0.2/MSDK/wpa_supplicant/src/ap\ap_config.c **** 		wpa_printf(MSG_DEBUG, "Searching a PSK for " MACSTR
 1969              		.loc 2 1110 23 discriminator 1
 1970 0038 2285     		mv	a0,s0
 1971              	.LVL220:
 1972 003a 46DE     		sw	a7,60(sp)
 1973 003c 42DC     		sw	a6,56(sp)
 1974 003e 3EDA     		sw	a5,52(sp)
 1975 0040 3AD8     		sw	a4,48(sp)
 1976 0042 36D6     		sw	a3,44(sp)
 1977 0044 32D4     		sw	a2,40(sp)
 1978 0046 97000000 		call	is_zero_ether_addr
 1978      E7800000 
 1979              	.LVL221:
1110:C:/Users/stapi/OneDrive/Desktop/GD32VW553/V1_MQTT_OK/GD32VW55X_Wifi_BLE_SDK/GD32VW55x_RELEASE_V1.0.2/MSDK/wpa_supplicant/src/ap\ap_config.c **** 		wpa_printf(MSG_DEBUG, "Searching a PSK for " MACSTR
 1980              		.loc 2 1110 19 discriminator 1
 1981 004e 2256     		lw	a2,40(sp)
 1982 0050 B256     		lw	a3,44(sp)
 1983 0052 4257     		lw	a4,48(sp)
 1984 0054 D257     		lw	a5,52(sp)
 1985 0056 6258     		lw	a6,56(sp)
 1986 0058 F258     		lw	a7,60(sp)
 1987 005a 35E1     		bne	a0,zero,.L137
 1988              		.loc 2 1111 3 is_stmt 1
 1989 005c 83455400 		lbu	a1,5(s0)
 1990 0060 4ECC     		sw	s3,24(sp)
 1991 0062 0945     		li	a0,2
 1992 0064 2ECA     		sw	a1,20(sp)
 1993 0066 83454400 		lbu	a1,4(s0)
1112:C:/Users/stapi/OneDrive/Desktop/GD32VW553/V1_MQTT_OK/GD32VW55X_Wifi_BLE_SDK/GD32VW55x_RELEASE_V1.0.2/MSDK/wpa_supplicant/src/ap\ap_config.c **** 			   " p2p_dev_addr=" MACSTR " prev_psk=%p",
1113:C:/Users/stapi/OneDrive/Desktop/GD32VW553/V1_MQTT_OK/GD32VW55X_Wifi_BLE_SDK/GD32VW55x_RELEASE_V1.0.2/MSDK/wpa_supplicant/src/ap\ap_config.c **** 			   MAC2STR(addr), MAC2STR(p2p_dev_addr), prev_psk);
1114:C:/Users/stapi/OneDrive/Desktop/GD32VW553/V1_MQTT_OK/GD32VW55X_Wifi_BLE_SDK/GD32VW55x_RELEASE_V1.0.2/MSDK/wpa_supplicant/src/ap\ap_config.c **** 		addr = NULL; /* Use P2P Device Address for matching */
 1994              		.loc 2 1114 8 is_stmt 0
 1995 006a 8144     		li	s1,0
 1996              	.LVL222:
1111:C:/Users/stapi/OneDrive/Desktop/GD32VW553/V1_MQTT_OK/GD32VW55X_Wifi_BLE_SDK/GD32VW55x_RELEASE_V1.0.2/MSDK/wpa_supplicant/src/ap\ap_config.c **** 			   " p2p_dev_addr=" MACSTR " prev_psk=%p",
 1997              		.loc 2 1111 3
 1998 006c 2EC8     		sw	a1,16(sp)
 1999 006e 83453400 		lbu	a1,3(s0)
 2000 0072 2EC6     		sw	a1,12(sp)
 2001 0074 83452400 		lbu	a1,2(s0)
 2002 0078 2EC4     		sw	a1,8(sp)
 2003 007a 83451400 		lbu	a1,1(s0)
 2004 007e 2EC2     		sw	a1,4(sp)
 2005 0080 83450400 		lbu	a1,0(s0)
 2006 0084 2EC0     		sw	a1,0(sp)
 2007 0086 B7050000 		lui	a1,%hi(.LC1)
 2008 008a 93850500 		addi	a1,a1,%lo(.LC1)
 2009 008e 97000000 		call	wpa_printf
 2009      E7800000 
 2010              	.LVL223:
 2011              		.loc 2 1114 3 is_stmt 1
 2012              	.L138:
1115:C:/Users/stapi/OneDrive/Desktop/GD32VW553/V1_MQTT_OK/GD32VW55X_Wifi_BLE_SDK/GD32VW55x_RELEASE_V1.0.2/MSDK/wpa_supplicant/src/ap\ap_config.c **** 	} else {
1116:C:/Users/stapi/OneDrive/Desktop/GD32VW553/V1_MQTT_OK/GD32VW55X_Wifi_BLE_SDK/GD32VW55x_RELEASE_V1.0.2/MSDK/wpa_supplicant/src/ap\ap_config.c **** 		wpa_printf(MSG_DEBUG, "Searching a PSK for " MACSTR
1117:C:/Users/stapi/OneDrive/Desktop/GD32VW553/V1_MQTT_OK/GD32VW55X_Wifi_BLE_SDK/GD32VW55x_RELEASE_V1.0.2/MSDK/wpa_supplicant/src/ap\ap_config.c **** 			   " prev_psk=%p",
1118:C:/Users/stapi/OneDrive/Desktop/GD32VW553/V1_MQTT_OK/GD32VW55X_Wifi_BLE_SDK/GD32VW55x_RELEASE_V1.0.2/MSDK/wpa_supplicant/src/ap\ap_config.c **** 			   MAC2STR(addr), prev_psk);
1119:C:/Users/stapi/OneDrive/Desktop/GD32VW553/V1_MQTT_OK/GD32VW55X_Wifi_BLE_SDK/GD32VW55x_RELEASE_V1.0.2/MSDK/wpa_supplicant/src/ap\ap_config.c **** 	}
1120:C:/Users/stapi/OneDrive/Desktop/GD32VW553/V1_MQTT_OK/GD32VW55X_Wifi_BLE_SDK/GD32VW55x_RELEASE_V1.0.2/MSDK/wpa_supplicant/src/ap\ap_config.c **** 
1121:C:/Users/stapi/OneDrive/Desktop/GD32VW553/V1_MQTT_OK/GD32VW55X_Wifi_BLE_SDK/GD32VW55x_RELEASE_V1.0.2/MSDK/wpa_supplicant/src/ap\ap_config.c **** 	for (psk = conf->ssid.wpa_psk; psk != NULL; psk = psk->next) {
 2013              		.loc 2 1121 2
 2014              		.loc 2 1121 11 is_stmt 0
 2015 0096 0329C90E 		lw	s2,236(s2)
 2016              	.LVL224:
 2017              	.L139:
 2018              		.loc 2 1121 33 is_stmt 1 discriminator 1
 2019              		.loc 2 1121 2 is_stmt 0 discriminator 1
 2020 009a 630C0900 		beq	s2,zero,.L135
1122:C:/Users/stapi/OneDrive/Desktop/GD32VW553/V1_MQTT_OK/GD32VW55X_Wifi_BLE_SDK/GD32VW55x_RELEASE_V1.0.2/MSDK/wpa_supplicant/src/ap\ap_config.c **** 		if (next_ok &&
 2021              		.loc 2 1122 3 is_stmt 1
 2022 009e 130BC902 		addi	s6,s2,44
 2023              		.loc 2 1122 6 is_stmt 0
 2024 00a2 63830A04 		beq	s5,zero,.L140
 2025              		.loc 2 1122 15 discriminator 1
 2026 00a6 83274900 		lw	a5,4(s2)
 2027 00aa 8DC7     		beq	a5,zero,.L141
 2028              	.L145:
1123:C:/Users/stapi/OneDrive/Desktop/GD32VW553/V1_MQTT_OK/GD32VW55X_Wifi_BLE_SDK/GD32VW55x_RELEASE_V1.0.2/MSDK/wpa_supplicant/src/ap\ap_config.c **** 		    (psk->group ||
1124:C:/Users/stapi/OneDrive/Desktop/GD32VW553/V1_MQTT_OK/GD32VW55X_Wifi_BLE_SDK/GD32VW55x_RELEASE_V1.0.2/MSDK/wpa_supplicant/src/ap\ap_config.c **** 		     (addr && os_memcmp(psk->addr, addr, ETH_ALEN) == 0) ||
1125:C:/Users/stapi/OneDrive/Desktop/GD32VW553/V1_MQTT_OK/GD32VW55X_Wifi_BLE_SDK/GD32VW55x_RELEASE_V1.0.2/MSDK/wpa_supplicant/src/ap\ap_config.c **** 		     (!addr && p2p_dev_addr &&
1126:C:/Users/stapi/OneDrive/Desktop/GD32VW553/V1_MQTT_OK/GD32VW55X_Wifi_BLE_SDK/GD32VW55x_RELEASE_V1.0.2/MSDK/wpa_supplicant/src/ap\ap_config.c **** 		      os_memcmp(psk->p2p_dev_addr, p2p_dev_addr, ETH_ALEN) ==
1127:C:/Users/stapi/OneDrive/Desktop/GD32VW553/V1_MQTT_OK/GD32VW55X_Wifi_BLE_SDK/GD32VW55x_RELEASE_V1.0.2/MSDK/wpa_supplicant/src/ap\ap_config.c **** 		      0))) {
1128:C:/Users/stapi/OneDrive/Desktop/GD32VW553/V1_MQTT_OK/GD32VW55X_Wifi_BLE_SDK/GD32VW55x_RELEASE_V1.0.2/MSDK/wpa_supplicant/src/ap\ap_config.c **** 			if (vlan_id)
 2029              		.loc 2 1128 4 is_stmt 1
 2030              		.loc 2 1128 7 is_stmt 0
 2031 00ac 63140A04 		bne	s4,zero,.L142
 2032              	.L143:
1129:C:/Users/stapi/OneDrive/Desktop/GD32VW553/V1_MQTT_OK/GD32VW55X_Wifi_BLE_SDK/GD32VW55x_RELEASE_V1.0.2/MSDK/wpa_supplicant/src/ap\ap_config.c **** 				*vlan_id = psk->vlan_id;
1130:C:/Users/stapi/OneDrive/Desktop/GD32VW553/V1_MQTT_OK/GD32VW55X_Wifi_BLE_SDK/GD32VW55x_RELEASE_V1.0.2/MSDK/wpa_supplicant/src/ap\ap_config.c **** 			return psk->psk;
 2033              		.loc 2 1130 4 is_stmt 1
 2034              		.loc 2 1130 11 is_stmt 0
 2035 00b0 5A89     		mv	s2,s6
 2036              	.LVL225:
 2037              	.L135:
1131:C:/Users/stapi/OneDrive/Desktop/GD32VW553/V1_MQTT_OK/GD32VW55X_Wifi_BLE_SDK/GD32VW55x_RELEASE_V1.0.2/MSDK/wpa_supplicant/src/ap\ap_config.c **** 		}
1132:C:/Users/stapi/OneDrive/Desktop/GD32VW553/V1_MQTT_OK/GD32VW55X_Wifi_BLE_SDK/GD32VW55x_RELEASE_V1.0.2/MSDK/wpa_supplicant/src/ap\ap_config.c **** 
1133:C:/Users/stapi/OneDrive/Desktop/GD32VW553/V1_MQTT_OK/GD32VW55X_Wifi_BLE_SDK/GD32VW55x_RELEASE_V1.0.2/MSDK/wpa_supplicant/src/ap\ap_config.c **** 		if (psk->psk == prev_psk)
1134:C:/Users/stapi/OneDrive/Desktop/GD32VW553/V1_MQTT_OK/GD32VW55X_Wifi_BLE_SDK/GD32VW55x_RELEASE_V1.0.2/MSDK/wpa_supplicant/src/ap\ap_config.c **** 			next_ok = 1;
1135:C:/Users/stapi/OneDrive/Desktop/GD32VW553/V1_MQTT_OK/GD32VW55X_Wifi_BLE_SDK/GD32VW55x_RELEASE_V1.0.2/MSDK/wpa_supplicant/src/ap\ap_config.c **** 	}
1136:C:/Users/stapi/OneDrive/Desktop/GD32VW553/V1_MQTT_OK/GD32VW55X_Wifi_BLE_SDK/GD32VW55x_RELEASE_V1.0.2/MSDK/wpa_supplicant/src/ap\ap_config.c **** 
1137:C:/Users/stapi/OneDrive/Desktop/GD32VW553/V1_MQTT_OK/GD32VW55X_Wifi_BLE_SDK/GD32VW55x_RELEASE_V1.0.2/MSDK/wpa_supplicant/src/ap\ap_config.c **** 	return NULL;
1138:C:/Users/stapi/OneDrive/Desktop/GD32VW553/V1_MQTT_OK/GD32VW55X_Wifi_BLE_SDK/GD32VW55x_RELEASE_V1.0.2/MSDK/wpa_supplicant/src/ap\ap_config.c **** }
 2038              		.loc 2 1138 1
 2039 00b2 4A85     		mv	a0,s2
 2040 00b4 2161     		addi	sp,sp,64
 2041              		.cfi_remember_state
 2042              		.cfi_def_cfa_offset 0
 2043 00b6 17030000 		tail	__riscv_restore_7
 2043      67000300 
 2044              		.cfi_restore 22
 2045              		.cfi_restore 21
 2046              		.cfi_restore 20
 2047              		.cfi_restore 19
 2048              		.cfi_restore 18
 2049              		.cfi_restore 9
 2050              		.cfi_restore 8
 2051              		.cfi_restore 1
 2052              		.cfi_def_cfa_offset -32
 2053              	.LVL226:
 2054              	.L137:
 2055              		.cfi_restore_state
1116:C:/Users/stapi/OneDrive/Desktop/GD32VW553/V1_MQTT_OK/GD32VW55X_Wifi_BLE_SDK/GD32VW55x_RELEASE_V1.0.2/MSDK/wpa_supplicant/src/ap\ap_config.c **** 			   " prev_psk=%p",
 2056              		.loc 2 1116 3 is_stmt 1
 2057 00be B7050000 		lui	a1,%hi(.LC2)
 2058 00c2 4EC0     		sw	s3,0(sp)
 2059 00c4 93850500 		addi	a1,a1,%lo(.LC2)
 2060 00c8 0945     		li	a0,2
 2061 00ca 97000000 		call	wpa_printf
 2061      E7800000 
 2062              	.LVL227:
 2063 00d2 D1B7     		j	.L138
 2064              	.LVL228:
 2065              	.L141:
1123:C:/Users/stapi/OneDrive/Desktop/GD32VW553/V1_MQTT_OK/GD32VW55X_Wifi_BLE_SDK/GD32VW55x_RELEASE_V1.0.2/MSDK/wpa_supplicant/src/ap\ap_config.c **** 		     (addr && os_memcmp(psk->addr, addr, ETH_ALEN) == 0) ||
 2066              		.loc 2 1123 19 is_stmt 0
 2067 00d4 8DC4     		beq	s1,zero,.L144
1124:C:/Users/stapi/OneDrive/Desktop/GD32VW553/V1_MQTT_OK/GD32VW55X_Wifi_BLE_SDK/GD32VW55x_RELEASE_V1.0.2/MSDK/wpa_supplicant/src/ap\ap_config.c **** 		     (!addr && p2p_dev_addr &&
 2068              		.loc 2 1124 17
 2069 00d6 1946     		li	a2,6
 2070 00d8 A685     		mv	a1,s1
 2071 00da 1305C904 		addi	a0,s2,76
 2072              	.L167:
1126:C:/Users/stapi/OneDrive/Desktop/GD32VW553/V1_MQTT_OK/GD32VW55X_Wifi_BLE_SDK/GD32VW55x_RELEASE_V1.0.2/MSDK/wpa_supplicant/src/ap\ap_config.c **** 		      0))) {
 2073              		.loc 2 1126 9 discriminator 1
 2074 00de 97000000 		call	os_memcmp
 2074      E7800000 
 2075              	.LVL229:
1125:C:/Users/stapi/OneDrive/Desktop/GD32VW553/V1_MQTT_OK/GD32VW55X_Wifi_BLE_SDK/GD32VW55x_RELEASE_V1.0.2/MSDK/wpa_supplicant/src/ap\ap_config.c **** 		      os_memcmp(psk->p2p_dev_addr, p2p_dev_addr, ETH_ALEN) ==
 2076              		.loc 2 1125 31 discriminator 1
 2077 00e6 79D1     		beq	a0,zero,.L145
 2078              	.L140:
1133:C:/Users/stapi/OneDrive/Desktop/GD32VW553/V1_MQTT_OK/GD32VW55X_Wifi_BLE_SDK/GD32VW55x_RELEASE_V1.0.2/MSDK/wpa_supplicant/src/ap\ap_config.c **** 			next_ok = 1;
 2079              		.loc 2 1133 3 is_stmt 1
1133:C:/Users/stapi/OneDrive/Desktop/GD32VW553/V1_MQTT_OK/GD32VW55X_Wifi_BLE_SDK/GD32VW55x_RELEASE_V1.0.2/MSDK/wpa_supplicant/src/ap\ap_config.c **** 			next_ok = 1;
 2080              		.loc 2 1133 6 is_stmt 0
 2081 00e8 63936901 		bne	s3,s6,.L147
1134:C:/Users/stapi/OneDrive/Desktop/GD32VW553/V1_MQTT_OK/GD32VW55X_Wifi_BLE_SDK/GD32VW55x_RELEASE_V1.0.2/MSDK/wpa_supplicant/src/ap\ap_config.c **** 	}
 2082              		.loc 2 1134 12
 2083 00ec 854A     		li	s5,1
 2084              	.LVL230:
 2085              	.L147:
1121:C:/Users/stapi/OneDrive/Desktop/GD32VW553/V1_MQTT_OK/GD32VW55X_Wifi_BLE_SDK/GD32VW55x_RELEASE_V1.0.2/MSDK/wpa_supplicant/src/ap\ap_config.c **** 		if (next_ok &&
 2086              		.loc 2 1121 46 is_stmt 1 discriminator 2
1121:C:/Users/stapi/OneDrive/Desktop/GD32VW553/V1_MQTT_OK/GD32VW55X_Wifi_BLE_SDK/GD32VW55x_RELEASE_V1.0.2/MSDK/wpa_supplicant/src/ap\ap_config.c **** 		if (next_ok &&
 2087              		.loc 2 1121 50 is_stmt 0 discriminator 2
 2088 00ee 03290900 		lw	s2,0(s2)
 2089              	.LVL231:
 2090 00f2 65B7     		j	.L139
 2091              	.L142:
1129:C:/Users/stapi/OneDrive/Desktop/GD32VW553/V1_MQTT_OK/GD32VW55X_Wifi_BLE_SDK/GD32VW55x_RELEASE_V1.0.2/MSDK/wpa_supplicant/src/ap\ap_config.c **** 			return psk->psk;
 2092              		.loc 2 1129 5 is_stmt 1
1129:C:/Users/stapi/OneDrive/Desktop/GD32VW553/V1_MQTT_OK/GD32VW55X_Wifi_BLE_SDK/GD32VW55x_RELEASE_V1.0.2/MSDK/wpa_supplicant/src/ap\ap_config.c **** 			return psk->psk;
 2093              		.loc 2 1129 19 is_stmt 0
 2094 00f4 83278905 		lw	a5,88(s2)
1129:C:/Users/stapi/OneDrive/Desktop/GD32VW553/V1_MQTT_OK/GD32VW55X_Wifi_BLE_SDK/GD32VW55x_RELEASE_V1.0.2/MSDK/wpa_supplicant/src/ap\ap_config.c **** 			return psk->psk;
 2095              		.loc 2 1129 14
 2096 00f8 2320FA00 		sw	a5,0(s4)
 2097 00fc 55BF     		j	.L143
 2098              	.L144:
1125:C:/Users/stapi/OneDrive/Desktop/GD32VW553/V1_MQTT_OK/GD32VW55X_Wifi_BLE_SDK/GD32VW55x_RELEASE_V1.0.2/MSDK/wpa_supplicant/src/ap\ap_config.c **** 		      os_memcmp(psk->p2p_dev_addr, p2p_dev_addr, ETH_ALEN) ==
 2099              		.loc 2 1125 15
 2100 00fe 6DD4     		beq	s0,zero,.L140
1126:C:/Users/stapi/OneDrive/Desktop/GD32VW553/V1_MQTT_OK/GD32VW55X_Wifi_BLE_SDK/GD32VW55x_RELEASE_V1.0.2/MSDK/wpa_supplicant/src/ap\ap_config.c **** 		      0))) {
 2101              		.loc 2 1126 9 discriminator 1
 2102 0100 1946     		li	a2,6
 2103 0102 A285     		mv	a1,s0
 2104 0104 13052905 		addi	a0,s2,82
 2105 0108 D9BF     		j	.L167
 2106              		.cfi_endproc
 2107              	.LFE161:
 2109              		.section	.rodata.hostapd_config_check.str1.4,"aMS",@progbits,1
 2110              		.align	2
 2111              	.LC3:
 2112 0000 43616E6E 		.string	"Cannot enable IEEE 802.11d without setting the country_code"
 2112      6F742065 
 2112      6E61626C 
 2112      65204945 
 2112      45452038 
 2113              		.align	2
 2114              	.LC4:
 2115 003c 43616E6E 		.string	"Cannot enable IEEE 802.11h without IEEE 802.11d enabled"
 2115      6F742065 
 2115      6E61626C 
 2115      65204945 
 2115      45452038 
 2116              		.align	2
 2117              	.LC5:
 2118 0074 43616E6E 		.string	"Cannot add Power Constraint element without Country element"
 2118      6F742061 
 2118      64642050 
 2118      6F776572 
 2118      20436F6E 
 2119              		.align	2
 2120              	.LC6:
 2121 00b0 43616E6E 		.string	"Cannot set Spectrum Management bit without Country and Power Constraint elements"
 2121      6F742073 
 2121      65742053 
 2121      70656374 
 2121      72756D20 
 2122 0101 000000   		.align	2
 2123              	.LC7:
 2124 0104 496E7661 		.string	"Invalid TX queue cwMin/cwMax values. cwMin(%d) greater than cwMax(%d)"
 2124      6C696420 
 2124      54582071 
 2124      75657565 
 2124      2063774D 
 2125 014a 0000     		.align	2
 2126              	.LC8:
 2127 014c 496E7661 		.string	"Invalid WMM AC cwMin/cwMax values. cwMin(%d) greater than cwMax(%d)"
 2127      6C696420 
 2127      574D4D20 
 2127      41432063 
 2127      774D696E 
 2128              		.align	2
 2129              	.LC9:
 2130 0190 5072652D 		.string	"Pre-RSNA security methods are not allowed in 6 GHz"
 2130      52534E41 
 2130      20736563 
 2130      75726974 
 2130      79206D65 
 2131 01c3 00       		.align	2
 2132              	.LC10:
 2133 01c4 4D616E61 		.string	"Management frame protection is required in 6 GHz"
 2133      67656D65 
 2133      6E742066 
 2133      72616D65 
 2133      2070726F 
 2134 01f5 000000   		.align	2
 2135              	.LC11:
 2136 01f8 496E7661 		.string	"Invalid AKM suite for 6 GHz"
 2136      6C696420 
 2136      414B4D20 
 2136      73756974 
 2136      6520666F 
 2137              		.align	2
 2138              	.LC12:
 2139 0214 496E7661 		.string	"Invalid pairwise cipher suite for 6 GHz"
 2139      6C696420 
 2139      70616972 
 2139      77697365 
 2139      20636970 
 2140              		.align	2
 2141              	.LC13:
 2142 023c 496E7661 		.string	"Invalid group cipher suite for 6 GHz"
 2142      6C696420 
 2142      67726F75 
 2142      70206369 
 2142      70686572 
 2143 0261 000000   		.align	2
 2144              	.LC14:
 2145 0264 496E7661 		.string	"Invalid IEEE 802.1X configuration (no EAP authenticator configured)."
 2145      6C696420 
 2145      49454545 
 2145      20383032 
 2145      2E315820 
 2146 02a9 000000   		.align	2
 2147              	.LC15:
 2148 02ac 5750412D 		.string	"WPA-PSK using RADIUS enabled, but no RADIUS checking (macaddr_acl=2) enabled."
 2148      50534B20 
 2148      7573696E 
 2148      67205241 
 2148      44495553 
 2149 02fa 0000     		.align	2
 2150              	.LC16:
 2151 02fc 5750412D 		.string	"WPA-PSK enabled, but PSK or passphrase is not configured."
 2151      50534B20 
 2151      656E6162 
 2151      6C65642C 
 2151      20627574 
 2152 0336 0000     		.align	2
 2153              	.LC17:
 2154 0338 4475706C 		.string	"Duplicate BSSID %02x:%02x:%02x:%02x:%02x:%02x on interface '%s' and '%s'."
 2154      69636174 
 2154      65204253 
 2154      53494420 
 2154      25303278 
 2155 0382 0000     		.align	2
 2156              	.LC18:
 2157 0384 48542028 		.string	"HT (IEEE 802.11n) in 11b mode is not allowed, disabling HT capabilities"
 2157      49454545 
 2157      20383032 
 2157      2E31316E 
 2157      2920696E 
 2158              		.align	2
 2159              	.LC19:
 2160 03cc 48542028 		.string	"HT (IEEE 802.11n) with WPA/WPA2 requires CCMP/GCMP to be enabled, disabling HT capabiliti
 2160      49454545 
 2160      20383032 
 2160      2E31316E 
 2160      29207769 
 2161              		.align	2
 2162              	.LC20:
 2163 0428 48452028 		.string	"HE (IEEE 802.11ax) with WPA/WPA2 requires CCMP/GCMP to be enabled, disabling HE capabilit
 2163      49454545 
 2163      20383032 
 2163      2E313161 
 2163      78292077 
 2164              		.section	.text.hostapd_config_check,"ax",@progbits
 2165              		.align	1
 2166              		.globl	hostapd_config_check
 2168              	hostapd_config_check:
 2169              	.LFB165:
1139:C:/Users/stapi/OneDrive/Desktop/GD32VW553/V1_MQTT_OK/GD32VW55X_Wifi_BLE_SDK/GD32VW55x_RELEASE_V1.0.2/MSDK/wpa_supplicant/src/ap\ap_config.c **** 
1140:C:/Users/stapi/OneDrive/Desktop/GD32VW553/V1_MQTT_OK/GD32VW55X_Wifi_BLE_SDK/GD32VW55x_RELEASE_V1.0.2/MSDK/wpa_supplicant/src/ap\ap_config.c **** 
1141:C:/Users/stapi/OneDrive/Desktop/GD32VW553/V1_MQTT_OK/GD32VW55X_Wifi_BLE_SDK/GD32VW55x_RELEASE_V1.0.2/MSDK/wpa_supplicant/src/ap\ap_config.c **** #ifdef CONFIG_SAE_PK
1142:C:/Users/stapi/OneDrive/Desktop/GD32VW553/V1_MQTT_OK/GD32VW55X_Wifi_BLE_SDK/GD32VW55x_RELEASE_V1.0.2/MSDK/wpa_supplicant/src/ap\ap_config.c **** static bool hostapd_sae_pk_password_without_pk(struct hostapd_bss_config *bss)
1143:C:/Users/stapi/OneDrive/Desktop/GD32VW553/V1_MQTT_OK/GD32VW55X_Wifi_BLE_SDK/GD32VW55x_RELEASE_V1.0.2/MSDK/wpa_supplicant/src/ap\ap_config.c **** {
1144:C:/Users/stapi/OneDrive/Desktop/GD32VW553/V1_MQTT_OK/GD32VW55X_Wifi_BLE_SDK/GD32VW55x_RELEASE_V1.0.2/MSDK/wpa_supplicant/src/ap\ap_config.c **** 	struct sae_password_entry *pw;
1145:C:/Users/stapi/OneDrive/Desktop/GD32VW553/V1_MQTT_OK/GD32VW55X_Wifi_BLE_SDK/GD32VW55x_RELEASE_V1.0.2/MSDK/wpa_supplicant/src/ap\ap_config.c **** 	bool res = false;
1146:C:/Users/stapi/OneDrive/Desktop/GD32VW553/V1_MQTT_OK/GD32VW55X_Wifi_BLE_SDK/GD32VW55x_RELEASE_V1.0.2/MSDK/wpa_supplicant/src/ap\ap_config.c **** 
1147:C:/Users/stapi/OneDrive/Desktop/GD32VW553/V1_MQTT_OK/GD32VW55X_Wifi_BLE_SDK/GD32VW55x_RELEASE_V1.0.2/MSDK/wpa_supplicant/src/ap\ap_config.c **** 	if (bss->ssid.wpa_passphrase &&
1148:C:/Users/stapi/OneDrive/Desktop/GD32VW553/V1_MQTT_OK/GD32VW55X_Wifi_BLE_SDK/GD32VW55x_RELEASE_V1.0.2/MSDK/wpa_supplicant/src/ap\ap_config.c **** #ifdef CONFIG_TESTING_OPTIONS
1149:C:/Users/stapi/OneDrive/Desktop/GD32VW553/V1_MQTT_OK/GD32VW55X_Wifi_BLE_SDK/GD32VW55x_RELEASE_V1.0.2/MSDK/wpa_supplicant/src/ap\ap_config.c **** 	    !bss->sae_pk_password_check_skip &&
1150:C:/Users/stapi/OneDrive/Desktop/GD32VW553/V1_MQTT_OK/GD32VW55X_Wifi_BLE_SDK/GD32VW55x_RELEASE_V1.0.2/MSDK/wpa_supplicant/src/ap\ap_config.c **** #endif /* CONFIG_TESTING_OPTIONS */
1151:C:/Users/stapi/OneDrive/Desktop/GD32VW553/V1_MQTT_OK/GD32VW55X_Wifi_BLE_SDK/GD32VW55x_RELEASE_V1.0.2/MSDK/wpa_supplicant/src/ap\ap_config.c **** 	    sae_pk_valid_password(bss->ssid.wpa_passphrase))
1152:C:/Users/stapi/OneDrive/Desktop/GD32VW553/V1_MQTT_OK/GD32VW55X_Wifi_BLE_SDK/GD32VW55x_RELEASE_V1.0.2/MSDK/wpa_supplicant/src/ap\ap_config.c **** 		res = true;
1153:C:/Users/stapi/OneDrive/Desktop/GD32VW553/V1_MQTT_OK/GD32VW55X_Wifi_BLE_SDK/GD32VW55x_RELEASE_V1.0.2/MSDK/wpa_supplicant/src/ap\ap_config.c **** 
1154:C:/Users/stapi/OneDrive/Desktop/GD32VW553/V1_MQTT_OK/GD32VW55X_Wifi_BLE_SDK/GD32VW55x_RELEASE_V1.0.2/MSDK/wpa_supplicant/src/ap\ap_config.c **** 	for (pw = bss->sae_passwords; pw; pw = pw->next) {
1155:C:/Users/stapi/OneDrive/Desktop/GD32VW553/V1_MQTT_OK/GD32VW55X_Wifi_BLE_SDK/GD32VW55x_RELEASE_V1.0.2/MSDK/wpa_supplicant/src/ap\ap_config.c **** 		if (!pw->pk &&
1156:C:/Users/stapi/OneDrive/Desktop/GD32VW553/V1_MQTT_OK/GD32VW55X_Wifi_BLE_SDK/GD32VW55x_RELEASE_V1.0.2/MSDK/wpa_supplicant/src/ap\ap_config.c **** #ifdef CONFIG_TESTING_OPTIONS
1157:C:/Users/stapi/OneDrive/Desktop/GD32VW553/V1_MQTT_OK/GD32VW55X_Wifi_BLE_SDK/GD32VW55x_RELEASE_V1.0.2/MSDK/wpa_supplicant/src/ap\ap_config.c **** 		    !bss->sae_pk_password_check_skip &&
1158:C:/Users/stapi/OneDrive/Desktop/GD32VW553/V1_MQTT_OK/GD32VW55X_Wifi_BLE_SDK/GD32VW55x_RELEASE_V1.0.2/MSDK/wpa_supplicant/src/ap\ap_config.c **** #endif /* CONFIG_TESTING_OPTIONS */
1159:C:/Users/stapi/OneDrive/Desktop/GD32VW553/V1_MQTT_OK/GD32VW55X_Wifi_BLE_SDK/GD32VW55x_RELEASE_V1.0.2/MSDK/wpa_supplicant/src/ap\ap_config.c **** 		    sae_pk_valid_password(pw->password))
1160:C:/Users/stapi/OneDrive/Desktop/GD32VW553/V1_MQTT_OK/GD32VW55X_Wifi_BLE_SDK/GD32VW55x_RELEASE_V1.0.2/MSDK/wpa_supplicant/src/ap\ap_config.c **** 			return true;
1161:C:/Users/stapi/OneDrive/Desktop/GD32VW553/V1_MQTT_OK/GD32VW55X_Wifi_BLE_SDK/GD32VW55x_RELEASE_V1.0.2/MSDK/wpa_supplicant/src/ap\ap_config.c **** 
1162:C:/Users/stapi/OneDrive/Desktop/GD32VW553/V1_MQTT_OK/GD32VW55X_Wifi_BLE_SDK/GD32VW55x_RELEASE_V1.0.2/MSDK/wpa_supplicant/src/ap\ap_config.c **** 		if (bss->ssid.wpa_passphrase && res && pw->pk &&
1163:C:/Users/stapi/OneDrive/Desktop/GD32VW553/V1_MQTT_OK/GD32VW55X_Wifi_BLE_SDK/GD32VW55x_RELEASE_V1.0.2/MSDK/wpa_supplicant/src/ap\ap_config.c **** 		    os_strcmp(bss->ssid.wpa_passphrase, pw->password) == 0)
1164:C:/Users/stapi/OneDrive/Desktop/GD32VW553/V1_MQTT_OK/GD32VW55X_Wifi_BLE_SDK/GD32VW55x_RELEASE_V1.0.2/MSDK/wpa_supplicant/src/ap\ap_config.c **** 			res = false;
1165:C:/Users/stapi/OneDrive/Desktop/GD32VW553/V1_MQTT_OK/GD32VW55X_Wifi_BLE_SDK/GD32VW55x_RELEASE_V1.0.2/MSDK/wpa_supplicant/src/ap\ap_config.c **** 	}
1166:C:/Users/stapi/OneDrive/Desktop/GD32VW553/V1_MQTT_OK/GD32VW55X_Wifi_BLE_SDK/GD32VW55x_RELEASE_V1.0.2/MSDK/wpa_supplicant/src/ap\ap_config.c **** 
1167:C:/Users/stapi/OneDrive/Desktop/GD32VW553/V1_MQTT_OK/GD32VW55X_Wifi_BLE_SDK/GD32VW55x_RELEASE_V1.0.2/MSDK/wpa_supplicant/src/ap\ap_config.c **** 	return res;
1168:C:/Users/stapi/OneDrive/Desktop/GD32VW553/V1_MQTT_OK/GD32VW55X_Wifi_BLE_SDK/GD32VW55x_RELEASE_V1.0.2/MSDK/wpa_supplicant/src/ap\ap_config.c **** }
1169:C:/Users/stapi/OneDrive/Desktop/GD32VW553/V1_MQTT_OK/GD32VW55X_Wifi_BLE_SDK/GD32VW55x_RELEASE_V1.0.2/MSDK/wpa_supplicant/src/ap\ap_config.c **** #endif /* CONFIG_SAE_PK */
1170:C:/Users/stapi/OneDrive/Desktop/GD32VW553/V1_MQTT_OK/GD32VW55X_Wifi_BLE_SDK/GD32VW55x_RELEASE_V1.0.2/MSDK/wpa_supplicant/src/ap\ap_config.c **** 
1171:C:/Users/stapi/OneDrive/Desktop/GD32VW553/V1_MQTT_OK/GD32VW55X_Wifi_BLE_SDK/GD32VW55x_RELEASE_V1.0.2/MSDK/wpa_supplicant/src/ap\ap_config.c **** 
1172:C:/Users/stapi/OneDrive/Desktop/GD32VW553/V1_MQTT_OK/GD32VW55X_Wifi_BLE_SDK/GD32VW55x_RELEASE_V1.0.2/MSDK/wpa_supplicant/src/ap\ap_config.c **** static bool hostapd_config_check_bss_6g(struct hostapd_bss_config *bss)
1173:C:/Users/stapi/OneDrive/Desktop/GD32VW553/V1_MQTT_OK/GD32VW55X_Wifi_BLE_SDK/GD32VW55x_RELEASE_V1.0.2/MSDK/wpa_supplicant/src/ap\ap_config.c **** {
1174:C:/Users/stapi/OneDrive/Desktop/GD32VW553/V1_MQTT_OK/GD32VW55X_Wifi_BLE_SDK/GD32VW55x_RELEASE_V1.0.2/MSDK/wpa_supplicant/src/ap\ap_config.c **** 	if (bss->wpa != WPA_PROTO_RSN) {
1175:C:/Users/stapi/OneDrive/Desktop/GD32VW553/V1_MQTT_OK/GD32VW55X_Wifi_BLE_SDK/GD32VW55x_RELEASE_V1.0.2/MSDK/wpa_supplicant/src/ap\ap_config.c **** 		wpa_printf(MSG_ERROR,
1176:C:/Users/stapi/OneDrive/Desktop/GD32VW553/V1_MQTT_OK/GD32VW55X_Wifi_BLE_SDK/GD32VW55x_RELEASE_V1.0.2/MSDK/wpa_supplicant/src/ap\ap_config.c **** 			   "Pre-RSNA security methods are not allowed in 6 GHz");
1177:C:/Users/stapi/OneDrive/Desktop/GD32VW553/V1_MQTT_OK/GD32VW55X_Wifi_BLE_SDK/GD32VW55x_RELEASE_V1.0.2/MSDK/wpa_supplicant/src/ap\ap_config.c **** 		return false;
1178:C:/Users/stapi/OneDrive/Desktop/GD32VW553/V1_MQTT_OK/GD32VW55X_Wifi_BLE_SDK/GD32VW55x_RELEASE_V1.0.2/MSDK/wpa_supplicant/src/ap\ap_config.c **** 	}
1179:C:/Users/stapi/OneDrive/Desktop/GD32VW553/V1_MQTT_OK/GD32VW55X_Wifi_BLE_SDK/GD32VW55x_RELEASE_V1.0.2/MSDK/wpa_supplicant/src/ap\ap_config.c **** 
1180:C:/Users/stapi/OneDrive/Desktop/GD32VW553/V1_MQTT_OK/GD32VW55X_Wifi_BLE_SDK/GD32VW55x_RELEASE_V1.0.2/MSDK/wpa_supplicant/src/ap\ap_config.c **** 	if (bss->ieee80211w != MGMT_FRAME_PROTECTION_REQUIRED) {
1181:C:/Users/stapi/OneDrive/Desktop/GD32VW553/V1_MQTT_OK/GD32VW55X_Wifi_BLE_SDK/GD32VW55x_RELEASE_V1.0.2/MSDK/wpa_supplicant/src/ap\ap_config.c **** 		wpa_printf(MSG_ERROR,
1182:C:/Users/stapi/OneDrive/Desktop/GD32VW553/V1_MQTT_OK/GD32VW55X_Wifi_BLE_SDK/GD32VW55x_RELEASE_V1.0.2/MSDK/wpa_supplicant/src/ap\ap_config.c **** 			   "Management frame protection is required in 6 GHz");
1183:C:/Users/stapi/OneDrive/Desktop/GD32VW553/V1_MQTT_OK/GD32VW55X_Wifi_BLE_SDK/GD32VW55x_RELEASE_V1.0.2/MSDK/wpa_supplicant/src/ap\ap_config.c **** 		return false;
1184:C:/Users/stapi/OneDrive/Desktop/GD32VW553/V1_MQTT_OK/GD32VW55X_Wifi_BLE_SDK/GD32VW55x_RELEASE_V1.0.2/MSDK/wpa_supplicant/src/ap\ap_config.c **** 	}
1185:C:/Users/stapi/OneDrive/Desktop/GD32VW553/V1_MQTT_OK/GD32VW55X_Wifi_BLE_SDK/GD32VW55x_RELEASE_V1.0.2/MSDK/wpa_supplicant/src/ap\ap_config.c **** 
1186:C:/Users/stapi/OneDrive/Desktop/GD32VW553/V1_MQTT_OK/GD32VW55X_Wifi_BLE_SDK/GD32VW55x_RELEASE_V1.0.2/MSDK/wpa_supplicant/src/ap\ap_config.c **** 	if (bss->wpa_key_mgmt & (WPA_KEY_MGMT_PSK |
1187:C:/Users/stapi/OneDrive/Desktop/GD32VW553/V1_MQTT_OK/GD32VW55X_Wifi_BLE_SDK/GD32VW55x_RELEASE_V1.0.2/MSDK/wpa_supplicant/src/ap\ap_config.c **** 				 WPA_KEY_MGMT_FT_PSK |
1188:C:/Users/stapi/OneDrive/Desktop/GD32VW553/V1_MQTT_OK/GD32VW55X_Wifi_BLE_SDK/GD32VW55x_RELEASE_V1.0.2/MSDK/wpa_supplicant/src/ap\ap_config.c **** 				 WPA_KEY_MGMT_PSK_SHA256)) {
1189:C:/Users/stapi/OneDrive/Desktop/GD32VW553/V1_MQTT_OK/GD32VW55X_Wifi_BLE_SDK/GD32VW55x_RELEASE_V1.0.2/MSDK/wpa_supplicant/src/ap\ap_config.c **** 		wpa_printf(MSG_ERROR, "Invalid AKM suite for 6 GHz");
1190:C:/Users/stapi/OneDrive/Desktop/GD32VW553/V1_MQTT_OK/GD32VW55X_Wifi_BLE_SDK/GD32VW55x_RELEASE_V1.0.2/MSDK/wpa_supplicant/src/ap\ap_config.c **** 		return false;
1191:C:/Users/stapi/OneDrive/Desktop/GD32VW553/V1_MQTT_OK/GD32VW55X_Wifi_BLE_SDK/GD32VW55x_RELEASE_V1.0.2/MSDK/wpa_supplicant/src/ap\ap_config.c **** 	}
1192:C:/Users/stapi/OneDrive/Desktop/GD32VW553/V1_MQTT_OK/GD32VW55X_Wifi_BLE_SDK/GD32VW55x_RELEASE_V1.0.2/MSDK/wpa_supplicant/src/ap\ap_config.c **** 
1193:C:/Users/stapi/OneDrive/Desktop/GD32VW553/V1_MQTT_OK/GD32VW55X_Wifi_BLE_SDK/GD32VW55x_RELEASE_V1.0.2/MSDK/wpa_supplicant/src/ap\ap_config.c **** 	if (bss->rsn_pairwise & (WPA_CIPHER_WEP40 |
1194:C:/Users/stapi/OneDrive/Desktop/GD32VW553/V1_MQTT_OK/GD32VW55X_Wifi_BLE_SDK/GD32VW55x_RELEASE_V1.0.2/MSDK/wpa_supplicant/src/ap\ap_config.c **** 				 WPA_CIPHER_WEP104 |
1195:C:/Users/stapi/OneDrive/Desktop/GD32VW553/V1_MQTT_OK/GD32VW55X_Wifi_BLE_SDK/GD32VW55x_RELEASE_V1.0.2/MSDK/wpa_supplicant/src/ap\ap_config.c **** 				 WPA_CIPHER_TKIP)) {
1196:C:/Users/stapi/OneDrive/Desktop/GD32VW553/V1_MQTT_OK/GD32VW55X_Wifi_BLE_SDK/GD32VW55x_RELEASE_V1.0.2/MSDK/wpa_supplicant/src/ap\ap_config.c **** 		wpa_printf(MSG_ERROR,
1197:C:/Users/stapi/OneDrive/Desktop/GD32VW553/V1_MQTT_OK/GD32VW55X_Wifi_BLE_SDK/GD32VW55x_RELEASE_V1.0.2/MSDK/wpa_supplicant/src/ap\ap_config.c **** 			   "Invalid pairwise cipher suite for 6 GHz");
1198:C:/Users/stapi/OneDrive/Desktop/GD32VW553/V1_MQTT_OK/GD32VW55X_Wifi_BLE_SDK/GD32VW55x_RELEASE_V1.0.2/MSDK/wpa_supplicant/src/ap\ap_config.c **** 		return false;
1199:C:/Users/stapi/OneDrive/Desktop/GD32VW553/V1_MQTT_OK/GD32VW55X_Wifi_BLE_SDK/GD32VW55x_RELEASE_V1.0.2/MSDK/wpa_supplicant/src/ap\ap_config.c **** 	}
1200:C:/Users/stapi/OneDrive/Desktop/GD32VW553/V1_MQTT_OK/GD32VW55X_Wifi_BLE_SDK/GD32VW55x_RELEASE_V1.0.2/MSDK/wpa_supplicant/src/ap\ap_config.c **** 
1201:C:/Users/stapi/OneDrive/Desktop/GD32VW553/V1_MQTT_OK/GD32VW55X_Wifi_BLE_SDK/GD32VW55x_RELEASE_V1.0.2/MSDK/wpa_supplicant/src/ap\ap_config.c **** 	if (bss->wpa_group & (WPA_CIPHER_WEP40 |
1202:C:/Users/stapi/OneDrive/Desktop/GD32VW553/V1_MQTT_OK/GD32VW55X_Wifi_BLE_SDK/GD32VW55x_RELEASE_V1.0.2/MSDK/wpa_supplicant/src/ap\ap_config.c **** 			      WPA_CIPHER_WEP104 |
1203:C:/Users/stapi/OneDrive/Desktop/GD32VW553/V1_MQTT_OK/GD32VW55X_Wifi_BLE_SDK/GD32VW55x_RELEASE_V1.0.2/MSDK/wpa_supplicant/src/ap\ap_config.c **** 			      WPA_CIPHER_TKIP)) {
1204:C:/Users/stapi/OneDrive/Desktop/GD32VW553/V1_MQTT_OK/GD32VW55X_Wifi_BLE_SDK/GD32VW55x_RELEASE_V1.0.2/MSDK/wpa_supplicant/src/ap\ap_config.c **** 		wpa_printf(MSG_ERROR, "Invalid group cipher suite for 6 GHz");
1205:C:/Users/stapi/OneDrive/Desktop/GD32VW553/V1_MQTT_OK/GD32VW55X_Wifi_BLE_SDK/GD32VW55x_RELEASE_V1.0.2/MSDK/wpa_supplicant/src/ap\ap_config.c **** 		return false;
1206:C:/Users/stapi/OneDrive/Desktop/GD32VW553/V1_MQTT_OK/GD32VW55X_Wifi_BLE_SDK/GD32VW55x_RELEASE_V1.0.2/MSDK/wpa_supplicant/src/ap\ap_config.c **** 	}
1207:C:/Users/stapi/OneDrive/Desktop/GD32VW553/V1_MQTT_OK/GD32VW55X_Wifi_BLE_SDK/GD32VW55x_RELEASE_V1.0.2/MSDK/wpa_supplicant/src/ap\ap_config.c **** 
1208:C:/Users/stapi/OneDrive/Desktop/GD32VW553/V1_MQTT_OK/GD32VW55X_Wifi_BLE_SDK/GD32VW55x_RELEASE_V1.0.2/MSDK/wpa_supplicant/src/ap\ap_config.c **** 	return true;
1209:C:/Users/stapi/OneDrive/Desktop/GD32VW553/V1_MQTT_OK/GD32VW55X_Wifi_BLE_SDK/GD32VW55x_RELEASE_V1.0.2/MSDK/wpa_supplicant/src/ap\ap_config.c **** }
1210:C:/Users/stapi/OneDrive/Desktop/GD32VW553/V1_MQTT_OK/GD32VW55X_Wifi_BLE_SDK/GD32VW55x_RELEASE_V1.0.2/MSDK/wpa_supplicant/src/ap\ap_config.c **** 
1211:C:/Users/stapi/OneDrive/Desktop/GD32VW553/V1_MQTT_OK/GD32VW55X_Wifi_BLE_SDK/GD32VW55x_RELEASE_V1.0.2/MSDK/wpa_supplicant/src/ap\ap_config.c **** 
1212:C:/Users/stapi/OneDrive/Desktop/GD32VW553/V1_MQTT_OK/GD32VW55X_Wifi_BLE_SDK/GD32VW55x_RELEASE_V1.0.2/MSDK/wpa_supplicant/src/ap\ap_config.c **** static int hostapd_config_check_bss(struct hostapd_bss_config *bss,
1213:C:/Users/stapi/OneDrive/Desktop/GD32VW553/V1_MQTT_OK/GD32VW55X_Wifi_BLE_SDK/GD32VW55x_RELEASE_V1.0.2/MSDK/wpa_supplicant/src/ap\ap_config.c **** 				    struct hostapd_config *conf,
1214:C:/Users/stapi/OneDrive/Desktop/GD32VW553/V1_MQTT_OK/GD32VW55X_Wifi_BLE_SDK/GD32VW55x_RELEASE_V1.0.2/MSDK/wpa_supplicant/src/ap\ap_config.c **** 				    int full_config)
1215:C:/Users/stapi/OneDrive/Desktop/GD32VW553/V1_MQTT_OK/GD32VW55X_Wifi_BLE_SDK/GD32VW55x_RELEASE_V1.0.2/MSDK/wpa_supplicant/src/ap\ap_config.c **** {
1216:C:/Users/stapi/OneDrive/Desktop/GD32VW553/V1_MQTT_OK/GD32VW55X_Wifi_BLE_SDK/GD32VW55x_RELEASE_V1.0.2/MSDK/wpa_supplicant/src/ap\ap_config.c **** 	if (full_config && is_6ghz_op_class(conf->op_class) &&
1217:C:/Users/stapi/OneDrive/Desktop/GD32VW553/V1_MQTT_OK/GD32VW55X_Wifi_BLE_SDK/GD32VW55x_RELEASE_V1.0.2/MSDK/wpa_supplicant/src/ap\ap_config.c **** 	    !hostapd_config_check_bss_6g(bss))
1218:C:/Users/stapi/OneDrive/Desktop/GD32VW553/V1_MQTT_OK/GD32VW55X_Wifi_BLE_SDK/GD32VW55x_RELEASE_V1.0.2/MSDK/wpa_supplicant/src/ap\ap_config.c **** 		return -1;
1219:C:/Users/stapi/OneDrive/Desktop/GD32VW553/V1_MQTT_OK/GD32VW55X_Wifi_BLE_SDK/GD32VW55x_RELEASE_V1.0.2/MSDK/wpa_supplicant/src/ap\ap_config.c **** 
1220:C:/Users/stapi/OneDrive/Desktop/GD32VW553/V1_MQTT_OK/GD32VW55X_Wifi_BLE_SDK/GD32VW55x_RELEASE_V1.0.2/MSDK/wpa_supplicant/src/ap\ap_config.c **** 	if (full_config && bss->ieee802_1x && !bss->eap_server &&
1221:C:/Users/stapi/OneDrive/Desktop/GD32VW553/V1_MQTT_OK/GD32VW55X_Wifi_BLE_SDK/GD32VW55x_RELEASE_V1.0.2/MSDK/wpa_supplicant/src/ap\ap_config.c **** 	    !bss->radius->auth_servers) {
1222:C:/Users/stapi/OneDrive/Desktop/GD32VW553/V1_MQTT_OK/GD32VW55X_Wifi_BLE_SDK/GD32VW55x_RELEASE_V1.0.2/MSDK/wpa_supplicant/src/ap\ap_config.c **** 		wpa_printf(MSG_ERROR, "Invalid IEEE 802.1X configuration (no "
1223:C:/Users/stapi/OneDrive/Desktop/GD32VW553/V1_MQTT_OK/GD32VW55X_Wifi_BLE_SDK/GD32VW55x_RELEASE_V1.0.2/MSDK/wpa_supplicant/src/ap\ap_config.c **** 			   "EAP authenticator configured).");
1224:C:/Users/stapi/OneDrive/Desktop/GD32VW553/V1_MQTT_OK/GD32VW55X_Wifi_BLE_SDK/GD32VW55x_RELEASE_V1.0.2/MSDK/wpa_supplicant/src/ap\ap_config.c **** 		return -1;
1225:C:/Users/stapi/OneDrive/Desktop/GD32VW553/V1_MQTT_OK/GD32VW55X_Wifi_BLE_SDK/GD32VW55x_RELEASE_V1.0.2/MSDK/wpa_supplicant/src/ap\ap_config.c **** 	}
1226:C:/Users/stapi/OneDrive/Desktop/GD32VW553/V1_MQTT_OK/GD32VW55X_Wifi_BLE_SDK/GD32VW55x_RELEASE_V1.0.2/MSDK/wpa_supplicant/src/ap\ap_config.c **** 
1227:C:/Users/stapi/OneDrive/Desktop/GD32VW553/V1_MQTT_OK/GD32VW55X_Wifi_BLE_SDK/GD32VW55x_RELEASE_V1.0.2/MSDK/wpa_supplicant/src/ap\ap_config.c **** #ifdef CONFIG_WEP
1228:C:/Users/stapi/OneDrive/Desktop/GD32VW553/V1_MQTT_OK/GD32VW55X_Wifi_BLE_SDK/GD32VW55x_RELEASE_V1.0.2/MSDK/wpa_supplicant/src/ap\ap_config.c **** 	if (bss->wpa) {
1229:C:/Users/stapi/OneDrive/Desktop/GD32VW553/V1_MQTT_OK/GD32VW55X_Wifi_BLE_SDK/GD32VW55x_RELEASE_V1.0.2/MSDK/wpa_supplicant/src/ap\ap_config.c **** 		int wep, i;
1230:C:/Users/stapi/OneDrive/Desktop/GD32VW553/V1_MQTT_OK/GD32VW55X_Wifi_BLE_SDK/GD32VW55x_RELEASE_V1.0.2/MSDK/wpa_supplicant/src/ap\ap_config.c **** 
1231:C:/Users/stapi/OneDrive/Desktop/GD32VW553/V1_MQTT_OK/GD32VW55X_Wifi_BLE_SDK/GD32VW55x_RELEASE_V1.0.2/MSDK/wpa_supplicant/src/ap\ap_config.c **** 		wep = bss->default_wep_key_len > 0 ||
1232:C:/Users/stapi/OneDrive/Desktop/GD32VW553/V1_MQTT_OK/GD32VW55X_Wifi_BLE_SDK/GD32VW55x_RELEASE_V1.0.2/MSDK/wpa_supplicant/src/ap\ap_config.c **** 		       bss->individual_wep_key_len > 0;
1233:C:/Users/stapi/OneDrive/Desktop/GD32VW553/V1_MQTT_OK/GD32VW55X_Wifi_BLE_SDK/GD32VW55x_RELEASE_V1.0.2/MSDK/wpa_supplicant/src/ap\ap_config.c **** 		for (i = 0; i < NUM_WEP_KEYS; i++) {
1234:C:/Users/stapi/OneDrive/Desktop/GD32VW553/V1_MQTT_OK/GD32VW55X_Wifi_BLE_SDK/GD32VW55x_RELEASE_V1.0.2/MSDK/wpa_supplicant/src/ap\ap_config.c **** 			if (bss->ssid.wep.keys_set) {
1235:C:/Users/stapi/OneDrive/Desktop/GD32VW553/V1_MQTT_OK/GD32VW55X_Wifi_BLE_SDK/GD32VW55x_RELEASE_V1.0.2/MSDK/wpa_supplicant/src/ap\ap_config.c **** 				wep = 1;
1236:C:/Users/stapi/OneDrive/Desktop/GD32VW553/V1_MQTT_OK/GD32VW55X_Wifi_BLE_SDK/GD32VW55x_RELEASE_V1.0.2/MSDK/wpa_supplicant/src/ap\ap_config.c **** 				break;
1237:C:/Users/stapi/OneDrive/Desktop/GD32VW553/V1_MQTT_OK/GD32VW55X_Wifi_BLE_SDK/GD32VW55x_RELEASE_V1.0.2/MSDK/wpa_supplicant/src/ap\ap_config.c **** 			}
1238:C:/Users/stapi/OneDrive/Desktop/GD32VW553/V1_MQTT_OK/GD32VW55X_Wifi_BLE_SDK/GD32VW55x_RELEASE_V1.0.2/MSDK/wpa_supplicant/src/ap\ap_config.c **** 		}
1239:C:/Users/stapi/OneDrive/Desktop/GD32VW553/V1_MQTT_OK/GD32VW55X_Wifi_BLE_SDK/GD32VW55x_RELEASE_V1.0.2/MSDK/wpa_supplicant/src/ap\ap_config.c **** 
1240:C:/Users/stapi/OneDrive/Desktop/GD32VW553/V1_MQTT_OK/GD32VW55X_Wifi_BLE_SDK/GD32VW55x_RELEASE_V1.0.2/MSDK/wpa_supplicant/src/ap\ap_config.c **** 		if (wep) {
1241:C:/Users/stapi/OneDrive/Desktop/GD32VW553/V1_MQTT_OK/GD32VW55X_Wifi_BLE_SDK/GD32VW55x_RELEASE_V1.0.2/MSDK/wpa_supplicant/src/ap\ap_config.c **** 			wpa_printf(MSG_ERROR, "WEP configuration in a WPA network is not supported");
1242:C:/Users/stapi/OneDrive/Desktop/GD32VW553/V1_MQTT_OK/GD32VW55X_Wifi_BLE_SDK/GD32VW55x_RELEASE_V1.0.2/MSDK/wpa_supplicant/src/ap\ap_config.c **** 			return -1;
1243:C:/Users/stapi/OneDrive/Desktop/GD32VW553/V1_MQTT_OK/GD32VW55X_Wifi_BLE_SDK/GD32VW55x_RELEASE_V1.0.2/MSDK/wpa_supplicant/src/ap\ap_config.c **** 		}
1244:C:/Users/stapi/OneDrive/Desktop/GD32VW553/V1_MQTT_OK/GD32VW55X_Wifi_BLE_SDK/GD32VW55x_RELEASE_V1.0.2/MSDK/wpa_supplicant/src/ap\ap_config.c **** 	}
1245:C:/Users/stapi/OneDrive/Desktop/GD32VW553/V1_MQTT_OK/GD32VW55X_Wifi_BLE_SDK/GD32VW55x_RELEASE_V1.0.2/MSDK/wpa_supplicant/src/ap\ap_config.c **** #endif /* CONFIG_WEP */
1246:C:/Users/stapi/OneDrive/Desktop/GD32VW553/V1_MQTT_OK/GD32VW55X_Wifi_BLE_SDK/GD32VW55x_RELEASE_V1.0.2/MSDK/wpa_supplicant/src/ap\ap_config.c **** 
1247:C:/Users/stapi/OneDrive/Desktop/GD32VW553/V1_MQTT_OK/GD32VW55X_Wifi_BLE_SDK/GD32VW55x_RELEASE_V1.0.2/MSDK/wpa_supplicant/src/ap\ap_config.c **** 	if (full_config && bss->wpa &&
1248:C:/Users/stapi/OneDrive/Desktop/GD32VW553/V1_MQTT_OK/GD32VW55X_Wifi_BLE_SDK/GD32VW55x_RELEASE_V1.0.2/MSDK/wpa_supplicant/src/ap\ap_config.c **** 	    bss->wpa_psk_radius != PSK_RADIUS_IGNORED &&
1249:C:/Users/stapi/OneDrive/Desktop/GD32VW553/V1_MQTT_OK/GD32VW55X_Wifi_BLE_SDK/GD32VW55x_RELEASE_V1.0.2/MSDK/wpa_supplicant/src/ap\ap_config.c **** 	    bss->macaddr_acl != USE_EXTERNAL_RADIUS_AUTH) {
1250:C:/Users/stapi/OneDrive/Desktop/GD32VW553/V1_MQTT_OK/GD32VW55X_Wifi_BLE_SDK/GD32VW55x_RELEASE_V1.0.2/MSDK/wpa_supplicant/src/ap\ap_config.c **** 		wpa_printf(MSG_ERROR, "WPA-PSK using RADIUS enabled, but no "
1251:C:/Users/stapi/OneDrive/Desktop/GD32VW553/V1_MQTT_OK/GD32VW55X_Wifi_BLE_SDK/GD32VW55x_RELEASE_V1.0.2/MSDK/wpa_supplicant/src/ap\ap_config.c **** 			   "RADIUS checking (macaddr_acl=2) enabled.");
1252:C:/Users/stapi/OneDrive/Desktop/GD32VW553/V1_MQTT_OK/GD32VW55X_Wifi_BLE_SDK/GD32VW55x_RELEASE_V1.0.2/MSDK/wpa_supplicant/src/ap\ap_config.c **** 		return -1;
1253:C:/Users/stapi/OneDrive/Desktop/GD32VW553/V1_MQTT_OK/GD32VW55X_Wifi_BLE_SDK/GD32VW55x_RELEASE_V1.0.2/MSDK/wpa_supplicant/src/ap\ap_config.c **** 	}
1254:C:/Users/stapi/OneDrive/Desktop/GD32VW553/V1_MQTT_OK/GD32VW55X_Wifi_BLE_SDK/GD32VW55x_RELEASE_V1.0.2/MSDK/wpa_supplicant/src/ap\ap_config.c **** 
1255:C:/Users/stapi/OneDrive/Desktop/GD32VW553/V1_MQTT_OK/GD32VW55X_Wifi_BLE_SDK/GD32VW55x_RELEASE_V1.0.2/MSDK/wpa_supplicant/src/ap\ap_config.c **** 	if (full_config && bss->wpa && (bss->wpa_key_mgmt & WPA_KEY_MGMT_PSK) &&
1256:C:/Users/stapi/OneDrive/Desktop/GD32VW553/V1_MQTT_OK/GD32VW55X_Wifi_BLE_SDK/GD32VW55x_RELEASE_V1.0.2/MSDK/wpa_supplicant/src/ap\ap_config.c **** 	    bss->ssid.wpa_psk == NULL && bss->ssid.wpa_passphrase == NULL &&
1257:C:/Users/stapi/OneDrive/Desktop/GD32VW553/V1_MQTT_OK/GD32VW55X_Wifi_BLE_SDK/GD32VW55x_RELEASE_V1.0.2/MSDK/wpa_supplicant/src/ap\ap_config.c **** 	    bss->ssid.wpa_psk_file == NULL &&
1258:C:/Users/stapi/OneDrive/Desktop/GD32VW553/V1_MQTT_OK/GD32VW55X_Wifi_BLE_SDK/GD32VW55x_RELEASE_V1.0.2/MSDK/wpa_supplicant/src/ap\ap_config.c **** 	    (bss->wpa_psk_radius != PSK_RADIUS_REQUIRED ||
1259:C:/Users/stapi/OneDrive/Desktop/GD32VW553/V1_MQTT_OK/GD32VW55X_Wifi_BLE_SDK/GD32VW55x_RELEASE_V1.0.2/MSDK/wpa_supplicant/src/ap\ap_config.c **** 	     bss->macaddr_acl != USE_EXTERNAL_RADIUS_AUTH)) {
1260:C:/Users/stapi/OneDrive/Desktop/GD32VW553/V1_MQTT_OK/GD32VW55X_Wifi_BLE_SDK/GD32VW55x_RELEASE_V1.0.2/MSDK/wpa_supplicant/src/ap\ap_config.c **** 		wpa_printf(MSG_ERROR, "WPA-PSK enabled, but PSK or passphrase "
1261:C:/Users/stapi/OneDrive/Desktop/GD32VW553/V1_MQTT_OK/GD32VW55X_Wifi_BLE_SDK/GD32VW55x_RELEASE_V1.0.2/MSDK/wpa_supplicant/src/ap\ap_config.c **** 			   "is not configured.");
1262:C:/Users/stapi/OneDrive/Desktop/GD32VW553/V1_MQTT_OK/GD32VW55X_Wifi_BLE_SDK/GD32VW55x_RELEASE_V1.0.2/MSDK/wpa_supplicant/src/ap\ap_config.c **** 		return -1;
1263:C:/Users/stapi/OneDrive/Desktop/GD32VW553/V1_MQTT_OK/GD32VW55X_Wifi_BLE_SDK/GD32VW55x_RELEASE_V1.0.2/MSDK/wpa_supplicant/src/ap\ap_config.c **** 	}
1264:C:/Users/stapi/OneDrive/Desktop/GD32VW553/V1_MQTT_OK/GD32VW55X_Wifi_BLE_SDK/GD32VW55x_RELEASE_V1.0.2/MSDK/wpa_supplicant/src/ap\ap_config.c **** 
1265:C:/Users/stapi/OneDrive/Desktop/GD32VW553/V1_MQTT_OK/GD32VW55X_Wifi_BLE_SDK/GD32VW55x_RELEASE_V1.0.2/MSDK/wpa_supplicant/src/ap\ap_config.c **** 	if (full_config && !is_zero_ether_addr(bss->bssid)) {
1266:C:/Users/stapi/OneDrive/Desktop/GD32VW553/V1_MQTT_OK/GD32VW55X_Wifi_BLE_SDK/GD32VW55x_RELEASE_V1.0.2/MSDK/wpa_supplicant/src/ap\ap_config.c **** 		size_t i;
1267:C:/Users/stapi/OneDrive/Desktop/GD32VW553/V1_MQTT_OK/GD32VW55X_Wifi_BLE_SDK/GD32VW55x_RELEASE_V1.0.2/MSDK/wpa_supplicant/src/ap\ap_config.c **** 
1268:C:/Users/stapi/OneDrive/Desktop/GD32VW553/V1_MQTT_OK/GD32VW55X_Wifi_BLE_SDK/GD32VW55x_RELEASE_V1.0.2/MSDK/wpa_supplicant/src/ap\ap_config.c **** 		for (i = 0; i < conf->num_bss; i++) {
1269:C:/Users/stapi/OneDrive/Desktop/GD32VW553/V1_MQTT_OK/GD32VW55X_Wifi_BLE_SDK/GD32VW55x_RELEASE_V1.0.2/MSDK/wpa_supplicant/src/ap\ap_config.c **** 			if (conf->bss[i] != bss &&
1270:C:/Users/stapi/OneDrive/Desktop/GD32VW553/V1_MQTT_OK/GD32VW55X_Wifi_BLE_SDK/GD32VW55x_RELEASE_V1.0.2/MSDK/wpa_supplicant/src/ap\ap_config.c **** 			    (hostapd_mac_comp(conf->bss[i]->bssid,
1271:C:/Users/stapi/OneDrive/Desktop/GD32VW553/V1_MQTT_OK/GD32VW55X_Wifi_BLE_SDK/GD32VW55x_RELEASE_V1.0.2/MSDK/wpa_supplicant/src/ap\ap_config.c **** 					      bss->bssid) == 0)) {
1272:C:/Users/stapi/OneDrive/Desktop/GD32VW553/V1_MQTT_OK/GD32VW55X_Wifi_BLE_SDK/GD32VW55x_RELEASE_V1.0.2/MSDK/wpa_supplicant/src/ap\ap_config.c **** 				wpa_printf(MSG_ERROR, "Duplicate BSSID " MACSTR
1273:C:/Users/stapi/OneDrive/Desktop/GD32VW553/V1_MQTT_OK/GD32VW55X_Wifi_BLE_SDK/GD32VW55x_RELEASE_V1.0.2/MSDK/wpa_supplicant/src/ap\ap_config.c **** 					   " on interface '%s' and '%s'.",
1274:C:/Users/stapi/OneDrive/Desktop/GD32VW553/V1_MQTT_OK/GD32VW55X_Wifi_BLE_SDK/GD32VW55x_RELEASE_V1.0.2/MSDK/wpa_supplicant/src/ap\ap_config.c **** 					   MAC2STR(bss->bssid),
1275:C:/Users/stapi/OneDrive/Desktop/GD32VW553/V1_MQTT_OK/GD32VW55X_Wifi_BLE_SDK/GD32VW55x_RELEASE_V1.0.2/MSDK/wpa_supplicant/src/ap\ap_config.c **** 					   conf->bss[i]->iface, bss->iface);
1276:C:/Users/stapi/OneDrive/Desktop/GD32VW553/V1_MQTT_OK/GD32VW55X_Wifi_BLE_SDK/GD32VW55x_RELEASE_V1.0.2/MSDK/wpa_supplicant/src/ap\ap_config.c **** 				return -1;
1277:C:/Users/stapi/OneDrive/Desktop/GD32VW553/V1_MQTT_OK/GD32VW55X_Wifi_BLE_SDK/GD32VW55x_RELEASE_V1.0.2/MSDK/wpa_supplicant/src/ap\ap_config.c **** 			}
1278:C:/Users/stapi/OneDrive/Desktop/GD32VW553/V1_MQTT_OK/GD32VW55X_Wifi_BLE_SDK/GD32VW55x_RELEASE_V1.0.2/MSDK/wpa_supplicant/src/ap\ap_config.c **** 		}
1279:C:/Users/stapi/OneDrive/Desktop/GD32VW553/V1_MQTT_OK/GD32VW55X_Wifi_BLE_SDK/GD32VW55x_RELEASE_V1.0.2/MSDK/wpa_supplicant/src/ap\ap_config.c **** 	}
1280:C:/Users/stapi/OneDrive/Desktop/GD32VW553/V1_MQTT_OK/GD32VW55X_Wifi_BLE_SDK/GD32VW55x_RELEASE_V1.0.2/MSDK/wpa_supplicant/src/ap\ap_config.c **** 
1281:C:/Users/stapi/OneDrive/Desktop/GD32VW553/V1_MQTT_OK/GD32VW55X_Wifi_BLE_SDK/GD32VW55x_RELEASE_V1.0.2/MSDK/wpa_supplicant/src/ap\ap_config.c **** #ifdef CONFIG_IEEE80211R_AP
1282:C:/Users/stapi/OneDrive/Desktop/GD32VW553/V1_MQTT_OK/GD32VW55X_Wifi_BLE_SDK/GD32VW55x_RELEASE_V1.0.2/MSDK/wpa_supplicant/src/ap\ap_config.c **** 	if (full_config && wpa_key_mgmt_ft(bss->wpa_key_mgmt) &&
1283:C:/Users/stapi/OneDrive/Desktop/GD32VW553/V1_MQTT_OK/GD32VW55X_Wifi_BLE_SDK/GD32VW55x_RELEASE_V1.0.2/MSDK/wpa_supplicant/src/ap\ap_config.c **** 	    (bss->nas_identifier == NULL ||
1284:C:/Users/stapi/OneDrive/Desktop/GD32VW553/V1_MQTT_OK/GD32VW55X_Wifi_BLE_SDK/GD32VW55x_RELEASE_V1.0.2/MSDK/wpa_supplicant/src/ap\ap_config.c **** 	     os_strlen(bss->nas_identifier) < 1 ||
1285:C:/Users/stapi/OneDrive/Desktop/GD32VW553/V1_MQTT_OK/GD32VW55X_Wifi_BLE_SDK/GD32VW55x_RELEASE_V1.0.2/MSDK/wpa_supplicant/src/ap\ap_config.c **** 	     os_strlen(bss->nas_identifier) > FT_R0KH_ID_MAX_LEN)) {
1286:C:/Users/stapi/OneDrive/Desktop/GD32VW553/V1_MQTT_OK/GD32VW55X_Wifi_BLE_SDK/GD32VW55x_RELEASE_V1.0.2/MSDK/wpa_supplicant/src/ap\ap_config.c **** 		wpa_printf(MSG_ERROR, "FT (IEEE 802.11r) requires "
1287:C:/Users/stapi/OneDrive/Desktop/GD32VW553/V1_MQTT_OK/GD32VW55X_Wifi_BLE_SDK/GD32VW55x_RELEASE_V1.0.2/MSDK/wpa_supplicant/src/ap\ap_config.c **** 			   "nas_identifier to be configured as a 1..48 octet "
1288:C:/Users/stapi/OneDrive/Desktop/GD32VW553/V1_MQTT_OK/GD32VW55X_Wifi_BLE_SDK/GD32VW55x_RELEASE_V1.0.2/MSDK/wpa_supplicant/src/ap\ap_config.c **** 			   "string");
1289:C:/Users/stapi/OneDrive/Desktop/GD32VW553/V1_MQTT_OK/GD32VW55X_Wifi_BLE_SDK/GD32VW55x_RELEASE_V1.0.2/MSDK/wpa_supplicant/src/ap\ap_config.c **** 		return -1;
1290:C:/Users/stapi/OneDrive/Desktop/GD32VW553/V1_MQTT_OK/GD32VW55X_Wifi_BLE_SDK/GD32VW55x_RELEASE_V1.0.2/MSDK/wpa_supplicant/src/ap\ap_config.c **** 	}
1291:C:/Users/stapi/OneDrive/Desktop/GD32VW553/V1_MQTT_OK/GD32VW55X_Wifi_BLE_SDK/GD32VW55x_RELEASE_V1.0.2/MSDK/wpa_supplicant/src/ap\ap_config.c **** #endif /* CONFIG_IEEE80211R_AP */
1292:C:/Users/stapi/OneDrive/Desktop/GD32VW553/V1_MQTT_OK/GD32VW55X_Wifi_BLE_SDK/GD32VW55x_RELEASE_V1.0.2/MSDK/wpa_supplicant/src/ap\ap_config.c **** 
1293:C:/Users/stapi/OneDrive/Desktop/GD32VW553/V1_MQTT_OK/GD32VW55X_Wifi_BLE_SDK/GD32VW55x_RELEASE_V1.0.2/MSDK/wpa_supplicant/src/ap\ap_config.c **** 	if (full_config && conf->ieee80211n &&
1294:C:/Users/stapi/OneDrive/Desktop/GD32VW553/V1_MQTT_OK/GD32VW55X_Wifi_BLE_SDK/GD32VW55x_RELEASE_V1.0.2/MSDK/wpa_supplicant/src/ap\ap_config.c **** 	    conf->hw_mode == HOSTAPD_MODE_IEEE80211B) {
1295:C:/Users/stapi/OneDrive/Desktop/GD32VW553/V1_MQTT_OK/GD32VW55X_Wifi_BLE_SDK/GD32VW55x_RELEASE_V1.0.2/MSDK/wpa_supplicant/src/ap\ap_config.c **** 		bss->disable_11n = true;
1296:C:/Users/stapi/OneDrive/Desktop/GD32VW553/V1_MQTT_OK/GD32VW55X_Wifi_BLE_SDK/GD32VW55x_RELEASE_V1.0.2/MSDK/wpa_supplicant/src/ap\ap_config.c **** 		wpa_printf(MSG_ERROR, "HT (IEEE 802.11n) in 11b mode is not "
1297:C:/Users/stapi/OneDrive/Desktop/GD32VW553/V1_MQTT_OK/GD32VW55X_Wifi_BLE_SDK/GD32VW55x_RELEASE_V1.0.2/MSDK/wpa_supplicant/src/ap\ap_config.c **** 			   "allowed, disabling HT capabilities");
1298:C:/Users/stapi/OneDrive/Desktop/GD32VW553/V1_MQTT_OK/GD32VW55X_Wifi_BLE_SDK/GD32VW55x_RELEASE_V1.0.2/MSDK/wpa_supplicant/src/ap\ap_config.c **** 	}
1299:C:/Users/stapi/OneDrive/Desktop/GD32VW553/V1_MQTT_OK/GD32VW55X_Wifi_BLE_SDK/GD32VW55x_RELEASE_V1.0.2/MSDK/wpa_supplicant/src/ap\ap_config.c **** 
1300:C:/Users/stapi/OneDrive/Desktop/GD32VW553/V1_MQTT_OK/GD32VW55X_Wifi_BLE_SDK/GD32VW55x_RELEASE_V1.0.2/MSDK/wpa_supplicant/src/ap\ap_config.c **** #ifdef CONFIG_WEP
1301:C:/Users/stapi/OneDrive/Desktop/GD32VW553/V1_MQTT_OK/GD32VW55X_Wifi_BLE_SDK/GD32VW55x_RELEASE_V1.0.2/MSDK/wpa_supplicant/src/ap\ap_config.c **** 	if (full_config && conf->ieee80211n &&
1302:C:/Users/stapi/OneDrive/Desktop/GD32VW553/V1_MQTT_OK/GD32VW55X_Wifi_BLE_SDK/GD32VW55x_RELEASE_V1.0.2/MSDK/wpa_supplicant/src/ap\ap_config.c **** 	    bss->ssid.security_policy == SECURITY_STATIC_WEP) {
1303:C:/Users/stapi/OneDrive/Desktop/GD32VW553/V1_MQTT_OK/GD32VW55X_Wifi_BLE_SDK/GD32VW55x_RELEASE_V1.0.2/MSDK/wpa_supplicant/src/ap\ap_config.c **** 		bss->disable_11n = true;
1304:C:/Users/stapi/OneDrive/Desktop/GD32VW553/V1_MQTT_OK/GD32VW55X_Wifi_BLE_SDK/GD32VW55x_RELEASE_V1.0.2/MSDK/wpa_supplicant/src/ap\ap_config.c **** 		wpa_printf(MSG_ERROR, "HT (IEEE 802.11n) with WEP is not "
1305:C:/Users/stapi/OneDrive/Desktop/GD32VW553/V1_MQTT_OK/GD32VW55X_Wifi_BLE_SDK/GD32VW55x_RELEASE_V1.0.2/MSDK/wpa_supplicant/src/ap\ap_config.c **** 			   "allowed, disabling HT capabilities");
1306:C:/Users/stapi/OneDrive/Desktop/GD32VW553/V1_MQTT_OK/GD32VW55X_Wifi_BLE_SDK/GD32VW55x_RELEASE_V1.0.2/MSDK/wpa_supplicant/src/ap\ap_config.c **** 	}
1307:C:/Users/stapi/OneDrive/Desktop/GD32VW553/V1_MQTT_OK/GD32VW55X_Wifi_BLE_SDK/GD32VW55x_RELEASE_V1.0.2/MSDK/wpa_supplicant/src/ap\ap_config.c **** #endif /* CONFIG_WEP */
1308:C:/Users/stapi/OneDrive/Desktop/GD32VW553/V1_MQTT_OK/GD32VW55X_Wifi_BLE_SDK/GD32VW55x_RELEASE_V1.0.2/MSDK/wpa_supplicant/src/ap\ap_config.c **** 
1309:C:/Users/stapi/OneDrive/Desktop/GD32VW553/V1_MQTT_OK/GD32VW55X_Wifi_BLE_SDK/GD32VW55x_RELEASE_V1.0.2/MSDK/wpa_supplicant/src/ap\ap_config.c **** 	if (full_config && conf->ieee80211n && bss->wpa &&
1310:C:/Users/stapi/OneDrive/Desktop/GD32VW553/V1_MQTT_OK/GD32VW55X_Wifi_BLE_SDK/GD32VW55x_RELEASE_V1.0.2/MSDK/wpa_supplicant/src/ap\ap_config.c **** 	    !(bss->wpa_pairwise & WPA_CIPHER_CCMP) &&
1311:C:/Users/stapi/OneDrive/Desktop/GD32VW553/V1_MQTT_OK/GD32VW55X_Wifi_BLE_SDK/GD32VW55x_RELEASE_V1.0.2/MSDK/wpa_supplicant/src/ap\ap_config.c **** 	    !(bss->rsn_pairwise & (WPA_CIPHER_CCMP | WPA_CIPHER_GCMP |
1312:C:/Users/stapi/OneDrive/Desktop/GD32VW553/V1_MQTT_OK/GD32VW55X_Wifi_BLE_SDK/GD32VW55x_RELEASE_V1.0.2/MSDK/wpa_supplicant/src/ap\ap_config.c **** 				   WPA_CIPHER_CCMP_256 | WPA_CIPHER_GCMP_256)))
1313:C:/Users/stapi/OneDrive/Desktop/GD32VW553/V1_MQTT_OK/GD32VW55X_Wifi_BLE_SDK/GD32VW55x_RELEASE_V1.0.2/MSDK/wpa_supplicant/src/ap\ap_config.c **** 	{
1314:C:/Users/stapi/OneDrive/Desktop/GD32VW553/V1_MQTT_OK/GD32VW55X_Wifi_BLE_SDK/GD32VW55x_RELEASE_V1.0.2/MSDK/wpa_supplicant/src/ap\ap_config.c **** 		bss->disable_11n = true;
1315:C:/Users/stapi/OneDrive/Desktop/GD32VW553/V1_MQTT_OK/GD32VW55X_Wifi_BLE_SDK/GD32VW55x_RELEASE_V1.0.2/MSDK/wpa_supplicant/src/ap\ap_config.c **** 		wpa_printf(MSG_ERROR, "HT (IEEE 802.11n) with WPA/WPA2 "
1316:C:/Users/stapi/OneDrive/Desktop/GD32VW553/V1_MQTT_OK/GD32VW55X_Wifi_BLE_SDK/GD32VW55x_RELEASE_V1.0.2/MSDK/wpa_supplicant/src/ap\ap_config.c **** 			   "requires CCMP/GCMP to be enabled, disabling HT "
1317:C:/Users/stapi/OneDrive/Desktop/GD32VW553/V1_MQTT_OK/GD32VW55X_Wifi_BLE_SDK/GD32VW55x_RELEASE_V1.0.2/MSDK/wpa_supplicant/src/ap\ap_config.c **** 			   "capabilities");
1318:C:/Users/stapi/OneDrive/Desktop/GD32VW553/V1_MQTT_OK/GD32VW55X_Wifi_BLE_SDK/GD32VW55x_RELEASE_V1.0.2/MSDK/wpa_supplicant/src/ap\ap_config.c **** 	}
1319:C:/Users/stapi/OneDrive/Desktop/GD32VW553/V1_MQTT_OK/GD32VW55X_Wifi_BLE_SDK/GD32VW55x_RELEASE_V1.0.2/MSDK/wpa_supplicant/src/ap\ap_config.c **** 
1320:C:/Users/stapi/OneDrive/Desktop/GD32VW553/V1_MQTT_OK/GD32VW55X_Wifi_BLE_SDK/GD32VW55x_RELEASE_V1.0.2/MSDK/wpa_supplicant/src/ap\ap_config.c **** #ifdef CONFIG_IEEE80211AC
1321:C:/Users/stapi/OneDrive/Desktop/GD32VW553/V1_MQTT_OK/GD32VW55X_Wifi_BLE_SDK/GD32VW55x_RELEASE_V1.0.2/MSDK/wpa_supplicant/src/ap\ap_config.c **** #ifdef CONFIG_WEP
1322:C:/Users/stapi/OneDrive/Desktop/GD32VW553/V1_MQTT_OK/GD32VW55X_Wifi_BLE_SDK/GD32VW55x_RELEASE_V1.0.2/MSDK/wpa_supplicant/src/ap\ap_config.c **** 	if (full_config && conf->ieee80211ac &&
1323:C:/Users/stapi/OneDrive/Desktop/GD32VW553/V1_MQTT_OK/GD32VW55X_Wifi_BLE_SDK/GD32VW55x_RELEASE_V1.0.2/MSDK/wpa_supplicant/src/ap\ap_config.c **** 	    bss->ssid.security_policy == SECURITY_STATIC_WEP) {
1324:C:/Users/stapi/OneDrive/Desktop/GD32VW553/V1_MQTT_OK/GD32VW55X_Wifi_BLE_SDK/GD32VW55x_RELEASE_V1.0.2/MSDK/wpa_supplicant/src/ap\ap_config.c **** 		bss->disable_11ac = true;
1325:C:/Users/stapi/OneDrive/Desktop/GD32VW553/V1_MQTT_OK/GD32VW55X_Wifi_BLE_SDK/GD32VW55x_RELEASE_V1.0.2/MSDK/wpa_supplicant/src/ap\ap_config.c **** 		wpa_printf(MSG_ERROR,
1326:C:/Users/stapi/OneDrive/Desktop/GD32VW553/V1_MQTT_OK/GD32VW55X_Wifi_BLE_SDK/GD32VW55x_RELEASE_V1.0.2/MSDK/wpa_supplicant/src/ap\ap_config.c **** 			   "VHT (IEEE 802.11ac) with WEP is not allowed, disabling VHT capabilities");
1327:C:/Users/stapi/OneDrive/Desktop/GD32VW553/V1_MQTT_OK/GD32VW55X_Wifi_BLE_SDK/GD32VW55x_RELEASE_V1.0.2/MSDK/wpa_supplicant/src/ap\ap_config.c **** 	}
1328:C:/Users/stapi/OneDrive/Desktop/GD32VW553/V1_MQTT_OK/GD32VW55X_Wifi_BLE_SDK/GD32VW55x_RELEASE_V1.0.2/MSDK/wpa_supplicant/src/ap\ap_config.c **** #endif /* CONFIG_WEP */
1329:C:/Users/stapi/OneDrive/Desktop/GD32VW553/V1_MQTT_OK/GD32VW55X_Wifi_BLE_SDK/GD32VW55x_RELEASE_V1.0.2/MSDK/wpa_supplicant/src/ap\ap_config.c **** 
1330:C:/Users/stapi/OneDrive/Desktop/GD32VW553/V1_MQTT_OK/GD32VW55X_Wifi_BLE_SDK/GD32VW55x_RELEASE_V1.0.2/MSDK/wpa_supplicant/src/ap\ap_config.c **** 	if (full_config && conf->ieee80211ac && bss->wpa &&
1331:C:/Users/stapi/OneDrive/Desktop/GD32VW553/V1_MQTT_OK/GD32VW55X_Wifi_BLE_SDK/GD32VW55x_RELEASE_V1.0.2/MSDK/wpa_supplicant/src/ap\ap_config.c **** 	    !(bss->wpa_pairwise & WPA_CIPHER_CCMP) &&
1332:C:/Users/stapi/OneDrive/Desktop/GD32VW553/V1_MQTT_OK/GD32VW55X_Wifi_BLE_SDK/GD32VW55x_RELEASE_V1.0.2/MSDK/wpa_supplicant/src/ap\ap_config.c **** 	    !(bss->rsn_pairwise & (WPA_CIPHER_CCMP | WPA_CIPHER_GCMP |
1333:C:/Users/stapi/OneDrive/Desktop/GD32VW553/V1_MQTT_OK/GD32VW55X_Wifi_BLE_SDK/GD32VW55x_RELEASE_V1.0.2/MSDK/wpa_supplicant/src/ap\ap_config.c **** 				   WPA_CIPHER_CCMP_256 | WPA_CIPHER_GCMP_256)))
1334:C:/Users/stapi/OneDrive/Desktop/GD32VW553/V1_MQTT_OK/GD32VW55X_Wifi_BLE_SDK/GD32VW55x_RELEASE_V1.0.2/MSDK/wpa_supplicant/src/ap\ap_config.c **** 	{
1335:C:/Users/stapi/OneDrive/Desktop/GD32VW553/V1_MQTT_OK/GD32VW55X_Wifi_BLE_SDK/GD32VW55x_RELEASE_V1.0.2/MSDK/wpa_supplicant/src/ap\ap_config.c **** 		bss->disable_11ac = true;
1336:C:/Users/stapi/OneDrive/Desktop/GD32VW553/V1_MQTT_OK/GD32VW55X_Wifi_BLE_SDK/GD32VW55x_RELEASE_V1.0.2/MSDK/wpa_supplicant/src/ap\ap_config.c **** 		wpa_printf(MSG_ERROR,
1337:C:/Users/stapi/OneDrive/Desktop/GD32VW553/V1_MQTT_OK/GD32VW55X_Wifi_BLE_SDK/GD32VW55x_RELEASE_V1.0.2/MSDK/wpa_supplicant/src/ap\ap_config.c **** 			   "VHT (IEEE 802.11ac) with WPA/WPA2 requires CCMP/GCMP to be enabled, disabling VHT capabiliti
1338:C:/Users/stapi/OneDrive/Desktop/GD32VW553/V1_MQTT_OK/GD32VW55X_Wifi_BLE_SDK/GD32VW55x_RELEASE_V1.0.2/MSDK/wpa_supplicant/src/ap\ap_config.c **** 	}
1339:C:/Users/stapi/OneDrive/Desktop/GD32VW553/V1_MQTT_OK/GD32VW55X_Wifi_BLE_SDK/GD32VW55x_RELEASE_V1.0.2/MSDK/wpa_supplicant/src/ap\ap_config.c **** #endif /* CONFIG_IEEE80211AC */
1340:C:/Users/stapi/OneDrive/Desktop/GD32VW553/V1_MQTT_OK/GD32VW55X_Wifi_BLE_SDK/GD32VW55x_RELEASE_V1.0.2/MSDK/wpa_supplicant/src/ap\ap_config.c **** 
1341:C:/Users/stapi/OneDrive/Desktop/GD32VW553/V1_MQTT_OK/GD32VW55X_Wifi_BLE_SDK/GD32VW55x_RELEASE_V1.0.2/MSDK/wpa_supplicant/src/ap\ap_config.c **** #ifdef CONFIG_IEEE80211AX
1342:C:/Users/stapi/OneDrive/Desktop/GD32VW553/V1_MQTT_OK/GD32VW55X_Wifi_BLE_SDK/GD32VW55x_RELEASE_V1.0.2/MSDK/wpa_supplicant/src/ap\ap_config.c **** #ifdef CONFIG_WEP
1343:C:/Users/stapi/OneDrive/Desktop/GD32VW553/V1_MQTT_OK/GD32VW55X_Wifi_BLE_SDK/GD32VW55x_RELEASE_V1.0.2/MSDK/wpa_supplicant/src/ap\ap_config.c **** 	if (full_config && conf->ieee80211ax &&
1344:C:/Users/stapi/OneDrive/Desktop/GD32VW553/V1_MQTT_OK/GD32VW55X_Wifi_BLE_SDK/GD32VW55x_RELEASE_V1.0.2/MSDK/wpa_supplicant/src/ap\ap_config.c **** 	    bss->ssid.security_policy == SECURITY_STATIC_WEP) {
1345:C:/Users/stapi/OneDrive/Desktop/GD32VW553/V1_MQTT_OK/GD32VW55X_Wifi_BLE_SDK/GD32VW55x_RELEASE_V1.0.2/MSDK/wpa_supplicant/src/ap\ap_config.c **** 		bss->disable_11ax = true;
1346:C:/Users/stapi/OneDrive/Desktop/GD32VW553/V1_MQTT_OK/GD32VW55X_Wifi_BLE_SDK/GD32VW55x_RELEASE_V1.0.2/MSDK/wpa_supplicant/src/ap\ap_config.c **** 		wpa_printf(MSG_ERROR,
1347:C:/Users/stapi/OneDrive/Desktop/GD32VW553/V1_MQTT_OK/GD32VW55X_Wifi_BLE_SDK/GD32VW55x_RELEASE_V1.0.2/MSDK/wpa_supplicant/src/ap\ap_config.c **** 			   "HE (IEEE 802.11ax) with WEP is not allowed, disabling HE capabilities");
1348:C:/Users/stapi/OneDrive/Desktop/GD32VW553/V1_MQTT_OK/GD32VW55X_Wifi_BLE_SDK/GD32VW55x_RELEASE_V1.0.2/MSDK/wpa_supplicant/src/ap\ap_config.c **** 	}
1349:C:/Users/stapi/OneDrive/Desktop/GD32VW553/V1_MQTT_OK/GD32VW55X_Wifi_BLE_SDK/GD32VW55x_RELEASE_V1.0.2/MSDK/wpa_supplicant/src/ap\ap_config.c **** #endif /* CONFIG_WEP */
1350:C:/Users/stapi/OneDrive/Desktop/GD32VW553/V1_MQTT_OK/GD32VW55X_Wifi_BLE_SDK/GD32VW55x_RELEASE_V1.0.2/MSDK/wpa_supplicant/src/ap\ap_config.c **** 
1351:C:/Users/stapi/OneDrive/Desktop/GD32VW553/V1_MQTT_OK/GD32VW55X_Wifi_BLE_SDK/GD32VW55x_RELEASE_V1.0.2/MSDK/wpa_supplicant/src/ap\ap_config.c **** 	if (full_config && conf->ieee80211ax && bss->wpa &&
1352:C:/Users/stapi/OneDrive/Desktop/GD32VW553/V1_MQTT_OK/GD32VW55X_Wifi_BLE_SDK/GD32VW55x_RELEASE_V1.0.2/MSDK/wpa_supplicant/src/ap\ap_config.c **** 	    !(bss->wpa_pairwise & WPA_CIPHER_CCMP) &&
1353:C:/Users/stapi/OneDrive/Desktop/GD32VW553/V1_MQTT_OK/GD32VW55X_Wifi_BLE_SDK/GD32VW55x_RELEASE_V1.0.2/MSDK/wpa_supplicant/src/ap\ap_config.c **** 	    !(bss->rsn_pairwise & (WPA_CIPHER_CCMP | WPA_CIPHER_GCMP |
1354:C:/Users/stapi/OneDrive/Desktop/GD32VW553/V1_MQTT_OK/GD32VW55X_Wifi_BLE_SDK/GD32VW55x_RELEASE_V1.0.2/MSDK/wpa_supplicant/src/ap\ap_config.c **** 				   WPA_CIPHER_CCMP_256 | WPA_CIPHER_GCMP_256)))
1355:C:/Users/stapi/OneDrive/Desktop/GD32VW553/V1_MQTT_OK/GD32VW55X_Wifi_BLE_SDK/GD32VW55x_RELEASE_V1.0.2/MSDK/wpa_supplicant/src/ap\ap_config.c **** 	{
1356:C:/Users/stapi/OneDrive/Desktop/GD32VW553/V1_MQTT_OK/GD32VW55X_Wifi_BLE_SDK/GD32VW55x_RELEASE_V1.0.2/MSDK/wpa_supplicant/src/ap\ap_config.c **** 		bss->disable_11ax = true;
1357:C:/Users/stapi/OneDrive/Desktop/GD32VW553/V1_MQTT_OK/GD32VW55X_Wifi_BLE_SDK/GD32VW55x_RELEASE_V1.0.2/MSDK/wpa_supplicant/src/ap\ap_config.c **** 		wpa_printf(MSG_ERROR,
1358:C:/Users/stapi/OneDrive/Desktop/GD32VW553/V1_MQTT_OK/GD32VW55X_Wifi_BLE_SDK/GD32VW55x_RELEASE_V1.0.2/MSDK/wpa_supplicant/src/ap\ap_config.c **** 			   "HE (IEEE 802.11ax) with WPA/WPA2 requires CCMP/GCMP to be enabled, disabling HE capabilities
1359:C:/Users/stapi/OneDrive/Desktop/GD32VW553/V1_MQTT_OK/GD32VW55X_Wifi_BLE_SDK/GD32VW55x_RELEASE_V1.0.2/MSDK/wpa_supplicant/src/ap\ap_config.c **** 	}
1360:C:/Users/stapi/OneDrive/Desktop/GD32VW553/V1_MQTT_OK/GD32VW55X_Wifi_BLE_SDK/GD32VW55x_RELEASE_V1.0.2/MSDK/wpa_supplicant/src/ap\ap_config.c **** #endif /* CONFIG_IEEE80211AX */
1361:C:/Users/stapi/OneDrive/Desktop/GD32VW553/V1_MQTT_OK/GD32VW55X_Wifi_BLE_SDK/GD32VW55x_RELEASE_V1.0.2/MSDK/wpa_supplicant/src/ap\ap_config.c **** 
1362:C:/Users/stapi/OneDrive/Desktop/GD32VW553/V1_MQTT_OK/GD32VW55X_Wifi_BLE_SDK/GD32VW55x_RELEASE_V1.0.2/MSDK/wpa_supplicant/src/ap\ap_config.c **** #ifdef CONFIG_WPS
1363:C:/Users/stapi/OneDrive/Desktop/GD32VW553/V1_MQTT_OK/GD32VW55X_Wifi_BLE_SDK/GD32VW55x_RELEASE_V1.0.2/MSDK/wpa_supplicant/src/ap\ap_config.c **** 	if (full_config && bss->wps_state && bss->ignore_broadcast_ssid) {
1364:C:/Users/stapi/OneDrive/Desktop/GD32VW553/V1_MQTT_OK/GD32VW55X_Wifi_BLE_SDK/GD32VW55x_RELEASE_V1.0.2/MSDK/wpa_supplicant/src/ap\ap_config.c **** 		wpa_printf(MSG_INFO, "WPS: ignore_broadcast_ssid "
1365:C:/Users/stapi/OneDrive/Desktop/GD32VW553/V1_MQTT_OK/GD32VW55X_Wifi_BLE_SDK/GD32VW55x_RELEASE_V1.0.2/MSDK/wpa_supplicant/src/ap\ap_config.c **** 			   "configuration forced WPS to be disabled");
1366:C:/Users/stapi/OneDrive/Desktop/GD32VW553/V1_MQTT_OK/GD32VW55X_Wifi_BLE_SDK/GD32VW55x_RELEASE_V1.0.2/MSDK/wpa_supplicant/src/ap\ap_config.c **** 		bss->wps_state = 0;
1367:C:/Users/stapi/OneDrive/Desktop/GD32VW553/V1_MQTT_OK/GD32VW55X_Wifi_BLE_SDK/GD32VW55x_RELEASE_V1.0.2/MSDK/wpa_supplicant/src/ap\ap_config.c **** 	}
1368:C:/Users/stapi/OneDrive/Desktop/GD32VW553/V1_MQTT_OK/GD32VW55X_Wifi_BLE_SDK/GD32VW55x_RELEASE_V1.0.2/MSDK/wpa_supplicant/src/ap\ap_config.c **** 
1369:C:/Users/stapi/OneDrive/Desktop/GD32VW553/V1_MQTT_OK/GD32VW55X_Wifi_BLE_SDK/GD32VW55x_RELEASE_V1.0.2/MSDK/wpa_supplicant/src/ap\ap_config.c **** #ifdef CONFIG_WEP
1370:C:/Users/stapi/OneDrive/Desktop/GD32VW553/V1_MQTT_OK/GD32VW55X_Wifi_BLE_SDK/GD32VW55x_RELEASE_V1.0.2/MSDK/wpa_supplicant/src/ap\ap_config.c **** 	if (full_config && bss->wps_state &&
1371:C:/Users/stapi/OneDrive/Desktop/GD32VW553/V1_MQTT_OK/GD32VW55X_Wifi_BLE_SDK/GD32VW55x_RELEASE_V1.0.2/MSDK/wpa_supplicant/src/ap\ap_config.c **** 	    bss->ssid.wep.keys_set && bss->wpa == 0) {
1372:C:/Users/stapi/OneDrive/Desktop/GD32VW553/V1_MQTT_OK/GD32VW55X_Wifi_BLE_SDK/GD32VW55x_RELEASE_V1.0.2/MSDK/wpa_supplicant/src/ap\ap_config.c **** 		wpa_printf(MSG_INFO, "WPS: WEP configuration forced WPS to be "
1373:C:/Users/stapi/OneDrive/Desktop/GD32VW553/V1_MQTT_OK/GD32VW55X_Wifi_BLE_SDK/GD32VW55x_RELEASE_V1.0.2/MSDK/wpa_supplicant/src/ap\ap_config.c **** 			   "disabled");
1374:C:/Users/stapi/OneDrive/Desktop/GD32VW553/V1_MQTT_OK/GD32VW55X_Wifi_BLE_SDK/GD32VW55x_RELEASE_V1.0.2/MSDK/wpa_supplicant/src/ap\ap_config.c **** 		bss->wps_state = 0;
1375:C:/Users/stapi/OneDrive/Desktop/GD32VW553/V1_MQTT_OK/GD32VW55X_Wifi_BLE_SDK/GD32VW55x_RELEASE_V1.0.2/MSDK/wpa_supplicant/src/ap\ap_config.c **** 	}
1376:C:/Users/stapi/OneDrive/Desktop/GD32VW553/V1_MQTT_OK/GD32VW55X_Wifi_BLE_SDK/GD32VW55x_RELEASE_V1.0.2/MSDK/wpa_supplicant/src/ap\ap_config.c **** #endif /* CONFIG_WEP */
1377:C:/Users/stapi/OneDrive/Desktop/GD32VW553/V1_MQTT_OK/GD32VW55X_Wifi_BLE_SDK/GD32VW55x_RELEASE_V1.0.2/MSDK/wpa_supplicant/src/ap\ap_config.c **** 
1378:C:/Users/stapi/OneDrive/Desktop/GD32VW553/V1_MQTT_OK/GD32VW55X_Wifi_BLE_SDK/GD32VW55x_RELEASE_V1.0.2/MSDK/wpa_supplicant/src/ap\ap_config.c **** 	if (full_config && bss->wps_state && bss->wpa &&
1379:C:/Users/stapi/OneDrive/Desktop/GD32VW553/V1_MQTT_OK/GD32VW55X_Wifi_BLE_SDK/GD32VW55x_RELEASE_V1.0.2/MSDK/wpa_supplicant/src/ap\ap_config.c **** 	    (!(bss->wpa & 2) ||
1380:C:/Users/stapi/OneDrive/Desktop/GD32VW553/V1_MQTT_OK/GD32VW55X_Wifi_BLE_SDK/GD32VW55x_RELEASE_V1.0.2/MSDK/wpa_supplicant/src/ap\ap_config.c **** 	     !(bss->rsn_pairwise & (WPA_CIPHER_CCMP | WPA_CIPHER_GCMP |
1381:C:/Users/stapi/OneDrive/Desktop/GD32VW553/V1_MQTT_OK/GD32VW55X_Wifi_BLE_SDK/GD32VW55x_RELEASE_V1.0.2/MSDK/wpa_supplicant/src/ap\ap_config.c **** 				    WPA_CIPHER_CCMP_256 |
1382:C:/Users/stapi/OneDrive/Desktop/GD32VW553/V1_MQTT_OK/GD32VW55X_Wifi_BLE_SDK/GD32VW55x_RELEASE_V1.0.2/MSDK/wpa_supplicant/src/ap\ap_config.c **** 				    WPA_CIPHER_GCMP_256)))) {
1383:C:/Users/stapi/OneDrive/Desktop/GD32VW553/V1_MQTT_OK/GD32VW55X_Wifi_BLE_SDK/GD32VW55x_RELEASE_V1.0.2/MSDK/wpa_supplicant/src/ap\ap_config.c **** 		wpa_printf(MSG_INFO, "WPS: WPA/TKIP configuration without "
1384:C:/Users/stapi/OneDrive/Desktop/GD32VW553/V1_MQTT_OK/GD32VW55X_Wifi_BLE_SDK/GD32VW55x_RELEASE_V1.0.2/MSDK/wpa_supplicant/src/ap\ap_config.c **** 			   "WPA2/CCMP/GCMP forced WPS to be disabled");
1385:C:/Users/stapi/OneDrive/Desktop/GD32VW553/V1_MQTT_OK/GD32VW55X_Wifi_BLE_SDK/GD32VW55x_RELEASE_V1.0.2/MSDK/wpa_supplicant/src/ap\ap_config.c **** 		bss->wps_state = 0;
1386:C:/Users/stapi/OneDrive/Desktop/GD32VW553/V1_MQTT_OK/GD32VW55X_Wifi_BLE_SDK/GD32VW55x_RELEASE_V1.0.2/MSDK/wpa_supplicant/src/ap\ap_config.c **** 	}
1387:C:/Users/stapi/OneDrive/Desktop/GD32VW553/V1_MQTT_OK/GD32VW55X_Wifi_BLE_SDK/GD32VW55x_RELEASE_V1.0.2/MSDK/wpa_supplicant/src/ap\ap_config.c **** #endif /* CONFIG_WPS */
1388:C:/Users/stapi/OneDrive/Desktop/GD32VW553/V1_MQTT_OK/GD32VW55X_Wifi_BLE_SDK/GD32VW55x_RELEASE_V1.0.2/MSDK/wpa_supplicant/src/ap\ap_config.c **** 
1389:C:/Users/stapi/OneDrive/Desktop/GD32VW553/V1_MQTT_OK/GD32VW55X_Wifi_BLE_SDK/GD32VW55x_RELEASE_V1.0.2/MSDK/wpa_supplicant/src/ap\ap_config.c **** #ifdef CONFIG_HS20
1390:C:/Users/stapi/OneDrive/Desktop/GD32VW553/V1_MQTT_OK/GD32VW55X_Wifi_BLE_SDK/GD32VW55x_RELEASE_V1.0.2/MSDK/wpa_supplicant/src/ap\ap_config.c **** 	if (full_config && bss->hs20 &&
1391:C:/Users/stapi/OneDrive/Desktop/GD32VW553/V1_MQTT_OK/GD32VW55X_Wifi_BLE_SDK/GD32VW55x_RELEASE_V1.0.2/MSDK/wpa_supplicant/src/ap\ap_config.c **** 	    (!(bss->wpa & 2) ||
1392:C:/Users/stapi/OneDrive/Desktop/GD32VW553/V1_MQTT_OK/GD32VW55X_Wifi_BLE_SDK/GD32VW55x_RELEASE_V1.0.2/MSDK/wpa_supplicant/src/ap\ap_config.c **** 	     !(bss->rsn_pairwise & (WPA_CIPHER_CCMP | WPA_CIPHER_GCMP |
1393:C:/Users/stapi/OneDrive/Desktop/GD32VW553/V1_MQTT_OK/GD32VW55X_Wifi_BLE_SDK/GD32VW55x_RELEASE_V1.0.2/MSDK/wpa_supplicant/src/ap\ap_config.c **** 				    WPA_CIPHER_CCMP_256 |
1394:C:/Users/stapi/OneDrive/Desktop/GD32VW553/V1_MQTT_OK/GD32VW55X_Wifi_BLE_SDK/GD32VW55x_RELEASE_V1.0.2/MSDK/wpa_supplicant/src/ap\ap_config.c **** 				    WPA_CIPHER_GCMP_256)))) {
1395:C:/Users/stapi/OneDrive/Desktop/GD32VW553/V1_MQTT_OK/GD32VW55X_Wifi_BLE_SDK/GD32VW55x_RELEASE_V1.0.2/MSDK/wpa_supplicant/src/ap\ap_config.c **** 		wpa_printf(MSG_ERROR, "HS 2.0: WPA2-Enterprise/CCMP "
1396:C:/Users/stapi/OneDrive/Desktop/GD32VW553/V1_MQTT_OK/GD32VW55X_Wifi_BLE_SDK/GD32VW55x_RELEASE_V1.0.2/MSDK/wpa_supplicant/src/ap\ap_config.c **** 			   "configuration is required for Hotspot 2.0 "
1397:C:/Users/stapi/OneDrive/Desktop/GD32VW553/V1_MQTT_OK/GD32VW55X_Wifi_BLE_SDK/GD32VW55x_RELEASE_V1.0.2/MSDK/wpa_supplicant/src/ap\ap_config.c **** 			   "functionality");
1398:C:/Users/stapi/OneDrive/Desktop/GD32VW553/V1_MQTT_OK/GD32VW55X_Wifi_BLE_SDK/GD32VW55x_RELEASE_V1.0.2/MSDK/wpa_supplicant/src/ap\ap_config.c **** 		return -1;
1399:C:/Users/stapi/OneDrive/Desktop/GD32VW553/V1_MQTT_OK/GD32VW55X_Wifi_BLE_SDK/GD32VW55x_RELEASE_V1.0.2/MSDK/wpa_supplicant/src/ap\ap_config.c **** 	}
1400:C:/Users/stapi/OneDrive/Desktop/GD32VW553/V1_MQTT_OK/GD32VW55X_Wifi_BLE_SDK/GD32VW55x_RELEASE_V1.0.2/MSDK/wpa_supplicant/src/ap\ap_config.c **** #endif /* CONFIG_HS20 */
1401:C:/Users/stapi/OneDrive/Desktop/GD32VW553/V1_MQTT_OK/GD32VW55X_Wifi_BLE_SDK/GD32VW55x_RELEASE_V1.0.2/MSDK/wpa_supplicant/src/ap\ap_config.c **** 
1402:C:/Users/stapi/OneDrive/Desktop/GD32VW553/V1_MQTT_OK/GD32VW55X_Wifi_BLE_SDK/GD32VW55x_RELEASE_V1.0.2/MSDK/wpa_supplicant/src/ap\ap_config.c **** #ifdef CONFIG_MBO
1403:C:/Users/stapi/OneDrive/Desktop/GD32VW553/V1_MQTT_OK/GD32VW55X_Wifi_BLE_SDK/GD32VW55x_RELEASE_V1.0.2/MSDK/wpa_supplicant/src/ap\ap_config.c **** 	if (full_config && bss->mbo_enabled && (bss->wpa & 2) &&
1404:C:/Users/stapi/OneDrive/Desktop/GD32VW553/V1_MQTT_OK/GD32VW55X_Wifi_BLE_SDK/GD32VW55x_RELEASE_V1.0.2/MSDK/wpa_supplicant/src/ap\ap_config.c **** 	    bss->ieee80211w == NO_MGMT_FRAME_PROTECTION) {
1405:C:/Users/stapi/OneDrive/Desktop/GD32VW553/V1_MQTT_OK/GD32VW55X_Wifi_BLE_SDK/GD32VW55x_RELEASE_V1.0.2/MSDK/wpa_supplicant/src/ap\ap_config.c **** 		wpa_printf(MSG_ERROR,
1406:C:/Users/stapi/OneDrive/Desktop/GD32VW553/V1_MQTT_OK/GD32VW55X_Wifi_BLE_SDK/GD32VW55x_RELEASE_V1.0.2/MSDK/wpa_supplicant/src/ap\ap_config.c **** 			   "MBO: PMF needs to be enabled whenever using WPA2 with MBO");
1407:C:/Users/stapi/OneDrive/Desktop/GD32VW553/V1_MQTT_OK/GD32VW55X_Wifi_BLE_SDK/GD32VW55x_RELEASE_V1.0.2/MSDK/wpa_supplicant/src/ap\ap_config.c **** 		return -1;
1408:C:/Users/stapi/OneDrive/Desktop/GD32VW553/V1_MQTT_OK/GD32VW55X_Wifi_BLE_SDK/GD32VW55x_RELEASE_V1.0.2/MSDK/wpa_supplicant/src/ap\ap_config.c **** 	}
1409:C:/Users/stapi/OneDrive/Desktop/GD32VW553/V1_MQTT_OK/GD32VW55X_Wifi_BLE_SDK/GD32VW55x_RELEASE_V1.0.2/MSDK/wpa_supplicant/src/ap\ap_config.c **** #endif /* CONFIG_MBO */
1410:C:/Users/stapi/OneDrive/Desktop/GD32VW553/V1_MQTT_OK/GD32VW55X_Wifi_BLE_SDK/GD32VW55x_RELEASE_V1.0.2/MSDK/wpa_supplicant/src/ap\ap_config.c **** 
1411:C:/Users/stapi/OneDrive/Desktop/GD32VW553/V1_MQTT_OK/GD32VW55X_Wifi_BLE_SDK/GD32VW55x_RELEASE_V1.0.2/MSDK/wpa_supplicant/src/ap\ap_config.c **** #ifdef CONFIG_OCV
1412:C:/Users/stapi/OneDrive/Desktop/GD32VW553/V1_MQTT_OK/GD32VW55X_Wifi_BLE_SDK/GD32VW55x_RELEASE_V1.0.2/MSDK/wpa_supplicant/src/ap\ap_config.c **** 	if (full_config && bss->ieee80211w == NO_MGMT_FRAME_PROTECTION &&
1413:C:/Users/stapi/OneDrive/Desktop/GD32VW553/V1_MQTT_OK/GD32VW55X_Wifi_BLE_SDK/GD32VW55x_RELEASE_V1.0.2/MSDK/wpa_supplicant/src/ap\ap_config.c **** 	    bss->ocv) {
1414:C:/Users/stapi/OneDrive/Desktop/GD32VW553/V1_MQTT_OK/GD32VW55X_Wifi_BLE_SDK/GD32VW55x_RELEASE_V1.0.2/MSDK/wpa_supplicant/src/ap\ap_config.c **** 		wpa_printf(MSG_ERROR,
1415:C:/Users/stapi/OneDrive/Desktop/GD32VW553/V1_MQTT_OK/GD32VW55X_Wifi_BLE_SDK/GD32VW55x_RELEASE_V1.0.2/MSDK/wpa_supplicant/src/ap\ap_config.c **** 			   "OCV: PMF needs to be enabled whenever using OCV");
1416:C:/Users/stapi/OneDrive/Desktop/GD32VW553/V1_MQTT_OK/GD32VW55X_Wifi_BLE_SDK/GD32VW55x_RELEASE_V1.0.2/MSDK/wpa_supplicant/src/ap\ap_config.c **** 		return -1;
1417:C:/Users/stapi/OneDrive/Desktop/GD32VW553/V1_MQTT_OK/GD32VW55X_Wifi_BLE_SDK/GD32VW55x_RELEASE_V1.0.2/MSDK/wpa_supplicant/src/ap\ap_config.c **** 	}
1418:C:/Users/stapi/OneDrive/Desktop/GD32VW553/V1_MQTT_OK/GD32VW55X_Wifi_BLE_SDK/GD32VW55x_RELEASE_V1.0.2/MSDK/wpa_supplicant/src/ap\ap_config.c **** #endif /* CONFIG_OCV */
1419:C:/Users/stapi/OneDrive/Desktop/GD32VW553/V1_MQTT_OK/GD32VW55X_Wifi_BLE_SDK/GD32VW55x_RELEASE_V1.0.2/MSDK/wpa_supplicant/src/ap\ap_config.c **** 
1420:C:/Users/stapi/OneDrive/Desktop/GD32VW553/V1_MQTT_OK/GD32VW55X_Wifi_BLE_SDK/GD32VW55x_RELEASE_V1.0.2/MSDK/wpa_supplicant/src/ap\ap_config.c **** #ifdef CONFIG_SAE_PK
1421:C:/Users/stapi/OneDrive/Desktop/GD32VW553/V1_MQTT_OK/GD32VW55X_Wifi_BLE_SDK/GD32VW55x_RELEASE_V1.0.2/MSDK/wpa_supplicant/src/ap\ap_config.c **** 	if (full_config && hostapd_sae_pk_in_use(bss) &&
1422:C:/Users/stapi/OneDrive/Desktop/GD32VW553/V1_MQTT_OK/GD32VW55X_Wifi_BLE_SDK/GD32VW55x_RELEASE_V1.0.2/MSDK/wpa_supplicant/src/ap\ap_config.c **** 	    hostapd_sae_pk_password_without_pk(bss)) {
1423:C:/Users/stapi/OneDrive/Desktop/GD32VW553/V1_MQTT_OK/GD32VW55X_Wifi_BLE_SDK/GD32VW55x_RELEASE_V1.0.2/MSDK/wpa_supplicant/src/ap\ap_config.c **** 		wpa_printf(MSG_ERROR,
1424:C:/Users/stapi/OneDrive/Desktop/GD32VW553/V1_MQTT_OK/GD32VW55X_Wifi_BLE_SDK/GD32VW55x_RELEASE_V1.0.2/MSDK/wpa_supplicant/src/ap\ap_config.c **** 			   "SAE-PK: SAE password uses SAE-PK style, but does not have PK configured");
1425:C:/Users/stapi/OneDrive/Desktop/GD32VW553/V1_MQTT_OK/GD32VW55X_Wifi_BLE_SDK/GD32VW55x_RELEASE_V1.0.2/MSDK/wpa_supplicant/src/ap\ap_config.c **** 		return -1;
1426:C:/Users/stapi/OneDrive/Desktop/GD32VW553/V1_MQTT_OK/GD32VW55X_Wifi_BLE_SDK/GD32VW55x_RELEASE_V1.0.2/MSDK/wpa_supplicant/src/ap\ap_config.c **** 	}
1427:C:/Users/stapi/OneDrive/Desktop/GD32VW553/V1_MQTT_OK/GD32VW55X_Wifi_BLE_SDK/GD32VW55x_RELEASE_V1.0.2/MSDK/wpa_supplicant/src/ap\ap_config.c **** #endif /* CONFIG_SAE_PK */
1428:C:/Users/stapi/OneDrive/Desktop/GD32VW553/V1_MQTT_OK/GD32VW55X_Wifi_BLE_SDK/GD32VW55x_RELEASE_V1.0.2/MSDK/wpa_supplicant/src/ap\ap_config.c **** 
1429:C:/Users/stapi/OneDrive/Desktop/GD32VW553/V1_MQTT_OK/GD32VW55X_Wifi_BLE_SDK/GD32VW55x_RELEASE_V1.0.2/MSDK/wpa_supplicant/src/ap\ap_config.c **** #ifdef CONFIG_FILS
1430:C:/Users/stapi/OneDrive/Desktop/GD32VW553/V1_MQTT_OK/GD32VW55X_Wifi_BLE_SDK/GD32VW55x_RELEASE_V1.0.2/MSDK/wpa_supplicant/src/ap\ap_config.c **** 	if (full_config && bss->fils_discovery_min_int &&
1431:C:/Users/stapi/OneDrive/Desktop/GD32VW553/V1_MQTT_OK/GD32VW55X_Wifi_BLE_SDK/GD32VW55x_RELEASE_V1.0.2/MSDK/wpa_supplicant/src/ap\ap_config.c **** 	    bss->unsol_bcast_probe_resp_interval) {
1432:C:/Users/stapi/OneDrive/Desktop/GD32VW553/V1_MQTT_OK/GD32VW55X_Wifi_BLE_SDK/GD32VW55x_RELEASE_V1.0.2/MSDK/wpa_supplicant/src/ap\ap_config.c **** 		wpa_printf(MSG_ERROR,
1433:C:/Users/stapi/OneDrive/Desktop/GD32VW553/V1_MQTT_OK/GD32VW55X_Wifi_BLE_SDK/GD32VW55x_RELEASE_V1.0.2/MSDK/wpa_supplicant/src/ap\ap_config.c **** 			   "Cannot enable both FILS discovery and unsolicited broadcast Probe Response at the same time"
1434:C:/Users/stapi/OneDrive/Desktop/GD32VW553/V1_MQTT_OK/GD32VW55X_Wifi_BLE_SDK/GD32VW55x_RELEASE_V1.0.2/MSDK/wpa_supplicant/src/ap\ap_config.c **** 		return -1;
1435:C:/Users/stapi/OneDrive/Desktop/GD32VW553/V1_MQTT_OK/GD32VW55X_Wifi_BLE_SDK/GD32VW55x_RELEASE_V1.0.2/MSDK/wpa_supplicant/src/ap\ap_config.c **** 	}
1436:C:/Users/stapi/OneDrive/Desktop/GD32VW553/V1_MQTT_OK/GD32VW55X_Wifi_BLE_SDK/GD32VW55x_RELEASE_V1.0.2/MSDK/wpa_supplicant/src/ap\ap_config.c **** #endif /* CONFIG_FILS */
1437:C:/Users/stapi/OneDrive/Desktop/GD32VW553/V1_MQTT_OK/GD32VW55X_Wifi_BLE_SDK/GD32VW55x_RELEASE_V1.0.2/MSDK/wpa_supplicant/src/ap\ap_config.c **** 
1438:C:/Users/stapi/OneDrive/Desktop/GD32VW553/V1_MQTT_OK/GD32VW55X_Wifi_BLE_SDK/GD32VW55x_RELEASE_V1.0.2/MSDK/wpa_supplicant/src/ap\ap_config.c **** 	return 0;
1439:C:/Users/stapi/OneDrive/Desktop/GD32VW553/V1_MQTT_OK/GD32VW55X_Wifi_BLE_SDK/GD32VW55x_RELEASE_V1.0.2/MSDK/wpa_supplicant/src/ap\ap_config.c **** }
1440:C:/Users/stapi/OneDrive/Desktop/GD32VW553/V1_MQTT_OK/GD32VW55X_Wifi_BLE_SDK/GD32VW55x_RELEASE_V1.0.2/MSDK/wpa_supplicant/src/ap\ap_config.c **** 
1441:C:/Users/stapi/OneDrive/Desktop/GD32VW553/V1_MQTT_OK/GD32VW55X_Wifi_BLE_SDK/GD32VW55x_RELEASE_V1.0.2/MSDK/wpa_supplicant/src/ap\ap_config.c **** 
1442:C:/Users/stapi/OneDrive/Desktop/GD32VW553/V1_MQTT_OK/GD32VW55X_Wifi_BLE_SDK/GD32VW55x_RELEASE_V1.0.2/MSDK/wpa_supplicant/src/ap\ap_config.c **** static int hostapd_config_check_cw(struct hostapd_config *conf, int queue)
1443:C:/Users/stapi/OneDrive/Desktop/GD32VW553/V1_MQTT_OK/GD32VW55X_Wifi_BLE_SDK/GD32VW55x_RELEASE_V1.0.2/MSDK/wpa_supplicant/src/ap\ap_config.c **** {
1444:C:/Users/stapi/OneDrive/Desktop/GD32VW553/V1_MQTT_OK/GD32VW55X_Wifi_BLE_SDK/GD32VW55x_RELEASE_V1.0.2/MSDK/wpa_supplicant/src/ap\ap_config.c **** 	int tx_cwmin = conf->tx_queue[queue].cwmin;
1445:C:/Users/stapi/OneDrive/Desktop/GD32VW553/V1_MQTT_OK/GD32VW55X_Wifi_BLE_SDK/GD32VW55x_RELEASE_V1.0.2/MSDK/wpa_supplicant/src/ap\ap_config.c **** 	int tx_cwmax = conf->tx_queue[queue].cwmax;
1446:C:/Users/stapi/OneDrive/Desktop/GD32VW553/V1_MQTT_OK/GD32VW55X_Wifi_BLE_SDK/GD32VW55x_RELEASE_V1.0.2/MSDK/wpa_supplicant/src/ap\ap_config.c **** 	int ac_cwmin = conf->wmm_ac_params[queue].cwmin;
1447:C:/Users/stapi/OneDrive/Desktop/GD32VW553/V1_MQTT_OK/GD32VW55X_Wifi_BLE_SDK/GD32VW55x_RELEASE_V1.0.2/MSDK/wpa_supplicant/src/ap\ap_config.c **** 	int ac_cwmax = conf->wmm_ac_params[queue].cwmax;
1448:C:/Users/stapi/OneDrive/Desktop/GD32VW553/V1_MQTT_OK/GD32VW55X_Wifi_BLE_SDK/GD32VW55x_RELEASE_V1.0.2/MSDK/wpa_supplicant/src/ap\ap_config.c **** 
1449:C:/Users/stapi/OneDrive/Desktop/GD32VW553/V1_MQTT_OK/GD32VW55X_Wifi_BLE_SDK/GD32VW55x_RELEASE_V1.0.2/MSDK/wpa_supplicant/src/ap\ap_config.c **** 	if (tx_cwmin > tx_cwmax) {
1450:C:/Users/stapi/OneDrive/Desktop/GD32VW553/V1_MQTT_OK/GD32VW55X_Wifi_BLE_SDK/GD32VW55x_RELEASE_V1.0.2/MSDK/wpa_supplicant/src/ap\ap_config.c **** 		wpa_printf(MSG_ERROR,
1451:C:/Users/stapi/OneDrive/Desktop/GD32VW553/V1_MQTT_OK/GD32VW55X_Wifi_BLE_SDK/GD32VW55x_RELEASE_V1.0.2/MSDK/wpa_supplicant/src/ap\ap_config.c **** 			   "Invalid TX queue cwMin/cwMax values. cwMin(%d) greater than cwMax(%d)",
1452:C:/Users/stapi/OneDrive/Desktop/GD32VW553/V1_MQTT_OK/GD32VW55X_Wifi_BLE_SDK/GD32VW55x_RELEASE_V1.0.2/MSDK/wpa_supplicant/src/ap\ap_config.c **** 			   tx_cwmin, tx_cwmax);
1453:C:/Users/stapi/OneDrive/Desktop/GD32VW553/V1_MQTT_OK/GD32VW55X_Wifi_BLE_SDK/GD32VW55x_RELEASE_V1.0.2/MSDK/wpa_supplicant/src/ap\ap_config.c **** 		return -1;
1454:C:/Users/stapi/OneDrive/Desktop/GD32VW553/V1_MQTT_OK/GD32VW55X_Wifi_BLE_SDK/GD32VW55x_RELEASE_V1.0.2/MSDK/wpa_supplicant/src/ap\ap_config.c **** 	}
1455:C:/Users/stapi/OneDrive/Desktop/GD32VW553/V1_MQTT_OK/GD32VW55X_Wifi_BLE_SDK/GD32VW55x_RELEASE_V1.0.2/MSDK/wpa_supplicant/src/ap\ap_config.c **** 	if (ac_cwmin > ac_cwmax) {
1456:C:/Users/stapi/OneDrive/Desktop/GD32VW553/V1_MQTT_OK/GD32VW55X_Wifi_BLE_SDK/GD32VW55x_RELEASE_V1.0.2/MSDK/wpa_supplicant/src/ap\ap_config.c **** 		wpa_printf(MSG_ERROR,
1457:C:/Users/stapi/OneDrive/Desktop/GD32VW553/V1_MQTT_OK/GD32VW55X_Wifi_BLE_SDK/GD32VW55x_RELEASE_V1.0.2/MSDK/wpa_supplicant/src/ap\ap_config.c **** 			   "Invalid WMM AC cwMin/cwMax values. cwMin(%d) greater than cwMax(%d)",
1458:C:/Users/stapi/OneDrive/Desktop/GD32VW553/V1_MQTT_OK/GD32VW55X_Wifi_BLE_SDK/GD32VW55x_RELEASE_V1.0.2/MSDK/wpa_supplicant/src/ap\ap_config.c **** 			   ac_cwmin, ac_cwmax);
1459:C:/Users/stapi/OneDrive/Desktop/GD32VW553/V1_MQTT_OK/GD32VW55X_Wifi_BLE_SDK/GD32VW55x_RELEASE_V1.0.2/MSDK/wpa_supplicant/src/ap\ap_config.c **** 		return -1;
1460:C:/Users/stapi/OneDrive/Desktop/GD32VW553/V1_MQTT_OK/GD32VW55X_Wifi_BLE_SDK/GD32VW55x_RELEASE_V1.0.2/MSDK/wpa_supplicant/src/ap\ap_config.c **** 	}
1461:C:/Users/stapi/OneDrive/Desktop/GD32VW553/V1_MQTT_OK/GD32VW55X_Wifi_BLE_SDK/GD32VW55x_RELEASE_V1.0.2/MSDK/wpa_supplicant/src/ap\ap_config.c **** 	return 0;
1462:C:/Users/stapi/OneDrive/Desktop/GD32VW553/V1_MQTT_OK/GD32VW55X_Wifi_BLE_SDK/GD32VW55x_RELEASE_V1.0.2/MSDK/wpa_supplicant/src/ap\ap_config.c **** }
1463:C:/Users/stapi/OneDrive/Desktop/GD32VW553/V1_MQTT_OK/GD32VW55X_Wifi_BLE_SDK/GD32VW55x_RELEASE_V1.0.2/MSDK/wpa_supplicant/src/ap\ap_config.c **** 
1464:C:/Users/stapi/OneDrive/Desktop/GD32VW553/V1_MQTT_OK/GD32VW55X_Wifi_BLE_SDK/GD32VW55x_RELEASE_V1.0.2/MSDK/wpa_supplicant/src/ap\ap_config.c **** 
1465:C:/Users/stapi/OneDrive/Desktop/GD32VW553/V1_MQTT_OK/GD32VW55X_Wifi_BLE_SDK/GD32VW55x_RELEASE_V1.0.2/MSDK/wpa_supplicant/src/ap\ap_config.c **** int hostapd_config_check(struct hostapd_config *conf, int full_config)
1466:C:/Users/stapi/OneDrive/Desktop/GD32VW553/V1_MQTT_OK/GD32VW55X_Wifi_BLE_SDK/GD32VW55x_RELEASE_V1.0.2/MSDK/wpa_supplicant/src/ap\ap_config.c **** {
 2170              		.loc 2 1466 1 is_stmt 1
 2171              		.cfi_startproc
 2172              	.LVL232:
 2173 0000 17030000 		call	t0,__riscv_save_12
 2173      E7020300 
 2174              		.cfi_offset 27, -52
 2175              		.cfi_offset 26, -48
 2176              		.cfi_offset 25, -44
 2177              		.cfi_offset 24, -40
 2178              		.cfi_offset 23, -36
 2179              		.cfi_offset 22, -32
 2180              		.cfi_offset 21, -28
 2181              		.cfi_offset 20, -24
 2182              		.cfi_offset 19, -20
 2183              		.cfi_offset 18, -16
 2184              		.cfi_offset 9, -12
 2185              		.cfi_offset 8, -8
 2186              		.cfi_offset 1, -4
 2187              		.cfi_def_cfa_offset 64
1467:C:/Users/stapi/OneDrive/Desktop/GD32VW553/V1_MQTT_OK/GD32VW55X_Wifi_BLE_SDK/GD32VW55x_RELEASE_V1.0.2/MSDK/wpa_supplicant/src/ap\ap_config.c **** 	size_t i;
 2188              		.loc 2 1467 2
1468:C:/Users/stapi/OneDrive/Desktop/GD32VW553/V1_MQTT_OK/GD32VW55X_Wifi_BLE_SDK/GD32VW55x_RELEASE_V1.0.2/MSDK/wpa_supplicant/src/ap\ap_config.c **** 
1469:C:/Users/stapi/OneDrive/Desktop/GD32VW553/V1_MQTT_OK/GD32VW55X_Wifi_BLE_SDK/GD32VW55x_RELEASE_V1.0.2/MSDK/wpa_supplicant/src/ap\ap_config.c **** 	if (full_config && conf->ieee80211d &&
 2189              		.loc 2 1469 2
1466:C:/Users/stapi/OneDrive/Desktop/GD32VW553/V1_MQTT_OK/GD32VW55X_Wifi_BLE_SDK/GD32VW55x_RELEASE_V1.0.2/MSDK/wpa_supplicant/src/ap\ap_config.c **** 	size_t i;
 2190              		.loc 2 1466 1 is_stmt 0
 2191 0008 4111     		addi	sp,sp,-16
 2192              		.cfi_def_cfa_offset 80
1466:C:/Users/stapi/OneDrive/Desktop/GD32VW553/V1_MQTT_OK/GD32VW55X_Wifi_BLE_SDK/GD32VW55x_RELEASE_V1.0.2/MSDK/wpa_supplicant/src/ap\ap_config.c **** 	size_t i;
 2193              		.loc 2 1466 1
 2194 000a AA84     		mv	s1,a0
 2195 000c 2E8A     		mv	s4,a1
 2196              		.loc 2 1469 5
 2197 000e BDC9     		beq	a1,zero,.L169
 2198              		.loc 2 1469 25 discriminator 1
 2199 0010 3C5D     		lw	a5,120(a0)
 2200              		.loc 2 1469 18 discriminator 1
 2201 0012 8DC3     		beq	a5,zero,.L170
 2202              		.loc 2 1469 38 discriminator 2
 2203 0014 03074507 		lb	a4,116(a0)
 2204 0018 01C7     		beq	a4,zero,.L171
1470:C:/Users/stapi/OneDrive/Desktop/GD32VW553/V1_MQTT_OK/GD32VW55X_Wifi_BLE_SDK/GD32VW55x_RELEASE_V1.0.2/MSDK/wpa_supplicant/src/ap\ap_config.c **** 	    (!conf->country[0] || !conf->country[1])) {
 2205              		.loc 2 1470 25
 2206 001a 03075507 		lb	a4,117(a0)
 2207 001e 19EB     		bne	a4,zero,.L170
 2208              	.L171:
1471:C:/Users/stapi/OneDrive/Desktop/GD32VW553/V1_MQTT_OK/GD32VW55X_Wifi_BLE_SDK/GD32VW55x_RELEASE_V1.0.2/MSDK/wpa_supplicant/src/ap\ap_config.c **** 		wpa_printf(MSG_ERROR, "Cannot enable IEEE 802.11d without "
 2209              		.loc 2 1471 3 is_stmt 1
 2210 0020 B7050000 		lui	a1,%hi(.LC3)
 2211              	.LVL233:
 2212 0024 93850500 		addi	a1,a1,%lo(.LC3)
 2213              	.LVL234:
 2214              	.L241:
 2215              	.LBB85:
 2216              	.LBB86:
1260:C:/Users/stapi/OneDrive/Desktop/GD32VW553/V1_MQTT_OK/GD32VW55X_Wifi_BLE_SDK/GD32VW55x_RELEASE_V1.0.2/MSDK/wpa_supplicant/src/ap\ap_config.c **** 			   "is not configured.");
 2217              		.loc 2 1260 3 is_stmt 0
 2218 0028 1545     		li	a0,5
 2219 002a 97000000 		call	wpa_printf
 2219      E7800000 
 2220              	.LVL235:
1262:C:/Users/stapi/OneDrive/Desktop/GD32VW553/V1_MQTT_OK/GD32VW55X_Wifi_BLE_SDK/GD32VW55x_RELEASE_V1.0.2/MSDK/wpa_supplicant/src/ap\ap_config.c **** 	}
 2221              		.loc 2 1262 3 is_stmt 1
 2222 0032 41A0     		j	.L240
 2223              	.LVL236:
 2224              	.L170:
 2225              	.LBE86:
 2226              	.LBE85:
1472:C:/Users/stapi/OneDrive/Desktop/GD32VW553/V1_MQTT_OK/GD32VW55X_Wifi_BLE_SDK/GD32VW55x_RELEASE_V1.0.2/MSDK/wpa_supplicant/src/ap\ap_config.c **** 			   "setting the country_code");
1473:C:/Users/stapi/OneDrive/Desktop/GD32VW553/V1_MQTT_OK/GD32VW55X_Wifi_BLE_SDK/GD32VW55x_RELEASE_V1.0.2/MSDK/wpa_supplicant/src/ap\ap_config.c **** 		return -1;
1474:C:/Users/stapi/OneDrive/Desktop/GD32VW553/V1_MQTT_OK/GD32VW55X_Wifi_BLE_SDK/GD32VW55x_RELEASE_V1.0.2/MSDK/wpa_supplicant/src/ap\ap_config.c **** 	}
1475:C:/Users/stapi/OneDrive/Desktop/GD32VW553/V1_MQTT_OK/GD32VW55X_Wifi_BLE_SDK/GD32VW55x_RELEASE_V1.0.2/MSDK/wpa_supplicant/src/ap\ap_config.c **** 
1476:C:/Users/stapi/OneDrive/Desktop/GD32VW553/V1_MQTT_OK/GD32VW55X_Wifi_BLE_SDK/GD32VW55x_RELEASE_V1.0.2/MSDK/wpa_supplicant/src/ap\ap_config.c **** 	if (full_config && conf->ieee80211h && !conf->ieee80211d) {
 2227              		.loc 2 1476 2 discriminator 1
 2228              		.loc 2 1476 18 is_stmt 0 discriminator 1
 2229 0034 F85C     		lw	a4,124(s1)
 2230 0036 19C7     		beq	a4,zero,.L173
 2231              		.loc 2 1476 38 discriminator 2
 2232 0038 91E7     		bne	a5,zero,.L173
1477:C:/Users/stapi/OneDrive/Desktop/GD32VW553/V1_MQTT_OK/GD32VW55X_Wifi_BLE_SDK/GD32VW55x_RELEASE_V1.0.2/MSDK/wpa_supplicant/src/ap\ap_config.c **** 		wpa_printf(MSG_ERROR, "Cannot enable IEEE 802.11h without "
 2233              		.loc 2 1477 3 is_stmt 1
 2234 003a B7050000 		lui	a1,%hi(.LC4)
 2235              	.LVL237:
 2236 003e 93850500 		addi	a1,a1,%lo(.LC4)
 2237 0042 DDB7     		j	.L241
 2238              	.LVL238:
 2239              	.L173:
1478:C:/Users/stapi/OneDrive/Desktop/GD32VW553/V1_MQTT_OK/GD32VW55X_Wifi_BLE_SDK/GD32VW55x_RELEASE_V1.0.2/MSDK/wpa_supplicant/src/ap\ap_config.c **** 			   "IEEE 802.11d enabled");
1479:C:/Users/stapi/OneDrive/Desktop/GD32VW553/V1_MQTT_OK/GD32VW55X_Wifi_BLE_SDK/GD32VW55x_RELEASE_V1.0.2/MSDK/wpa_supplicant/src/ap\ap_config.c **** 		return -1;
1480:C:/Users/stapi/OneDrive/Desktop/GD32VW553/V1_MQTT_OK/GD32VW55X_Wifi_BLE_SDK/GD32VW55x_RELEASE_V1.0.2/MSDK/wpa_supplicant/src/ap\ap_config.c **** 	}
1481:C:/Users/stapi/OneDrive/Desktop/GD32VW553/V1_MQTT_OK/GD32VW55X_Wifi_BLE_SDK/GD32VW55x_RELEASE_V1.0.2/MSDK/wpa_supplicant/src/ap\ap_config.c **** 
1482:C:/Users/stapi/OneDrive/Desktop/GD32VW553/V1_MQTT_OK/GD32VW55X_Wifi_BLE_SDK/GD32VW55x_RELEASE_V1.0.2/MSDK/wpa_supplicant/src/ap\ap_config.c **** 	if (full_config && conf->local_pwr_constraint != -1 &&
 2240              		.loc 2 1482 2 discriminator 1
 2241              		.loc 2 1482 25 is_stmt 0 discriminator 1
 2242 0044 03A40408 		lw	s0,128(s1)
 2243              		.loc 2 1482 18 discriminator 1
 2244 0048 7D57     		li	a4,-1
 2245 004a 6308E400 		beq	s0,a4,.L174
 2246              		.loc 2 1482 54 discriminator 2
 2247 004e 91E7     		bne	a5,zero,.L174
1483:C:/Users/stapi/OneDrive/Desktop/GD32VW553/V1_MQTT_OK/GD32VW55X_Wifi_BLE_SDK/GD32VW55x_RELEASE_V1.0.2/MSDK/wpa_supplicant/src/ap\ap_config.c **** 	    !conf->ieee80211d) {
1484:C:/Users/stapi/OneDrive/Desktop/GD32VW553/V1_MQTT_OK/GD32VW55X_Wifi_BLE_SDK/GD32VW55x_RELEASE_V1.0.2/MSDK/wpa_supplicant/src/ap\ap_config.c **** 		wpa_printf(MSG_ERROR, "Cannot add Power Constraint element without Country element");
 2248              		.loc 2 1484 3 is_stmt 1
 2249 0050 B7050000 		lui	a1,%hi(.LC5)
 2250              	.LVL239:
 2251 0054 93850500 		addi	a1,a1,%lo(.LC5)
 2252 0058 C1BF     		j	.L241
 2253              	.LVL240:
 2254              	.L174:
1485:C:/Users/stapi/OneDrive/Desktop/GD32VW553/V1_MQTT_OK/GD32VW55X_Wifi_BLE_SDK/GD32VW55x_RELEASE_V1.0.2/MSDK/wpa_supplicant/src/ap\ap_config.c **** 		return -1;
1486:C:/Users/stapi/OneDrive/Desktop/GD32VW553/V1_MQTT_OK/GD32VW55X_Wifi_BLE_SDK/GD32VW55x_RELEASE_V1.0.2/MSDK/wpa_supplicant/src/ap\ap_config.c **** 	}
1487:C:/Users/stapi/OneDrive/Desktop/GD32VW553/V1_MQTT_OK/GD32VW55X_Wifi_BLE_SDK/GD32VW55x_RELEASE_V1.0.2/MSDK/wpa_supplicant/src/ap\ap_config.c **** 
1488:C:/Users/stapi/OneDrive/Desktop/GD32VW553/V1_MQTT_OK/GD32VW55X_Wifi_BLE_SDK/GD32VW55x_RELEASE_V1.0.2/MSDK/wpa_supplicant/src/ap\ap_config.c **** 	if (full_config && conf->spectrum_mgmt_required &&
 2255              		.loc 2 1488 2 discriminator 1
 2256              		.loc 2 1488 18 is_stmt 0 discriminator 1
 2257 005a 83A74408 		lw	a5,132(s1)
 2258 005e 9DC3     		beq	a5,zero,.L169
 2259              		.loc 2 1488 50 discriminator 2
 2260 0060 FD57     		li	a5,-1
 2261 0062 6311F402 		bne	s0,a5,.L169
1489:C:/Users/stapi/OneDrive/Desktop/GD32VW553/V1_MQTT_OK/GD32VW55X_Wifi_BLE_SDK/GD32VW55x_RELEASE_V1.0.2/MSDK/wpa_supplicant/src/ap\ap_config.c **** 	    conf->local_pwr_constraint == -1) {
1490:C:/Users/stapi/OneDrive/Desktop/GD32VW553/V1_MQTT_OK/GD32VW55X_Wifi_BLE_SDK/GD32VW55x_RELEASE_V1.0.2/MSDK/wpa_supplicant/src/ap\ap_config.c **** 		wpa_printf(MSG_ERROR, "Cannot set Spectrum Management bit without Country and Power Constraint el
 2262              		.loc 2 1490 3 is_stmt 1
 2263 0066 B7050000 		lui	a1,%hi(.LC6)
 2264              	.LVL241:
 2265 006a 93850500 		addi	a1,a1,%lo(.LC6)
 2266 006e 1545     		li	a0,5
 2267 0070 97000000 		call	wpa_printf
 2267      E7800000 
 2268              	.LVL242:
1491:C:/Users/stapi/OneDrive/Desktop/GD32VW553/V1_MQTT_OK/GD32VW55X_Wifi_BLE_SDK/GD32VW55x_RELEASE_V1.0.2/MSDK/wpa_supplicant/src/ap\ap_config.c **** 		return -1;
 2269              		.loc 2 1491 3
 2270              	.L168:
1492:C:/Users/stapi/OneDrive/Desktop/GD32VW553/V1_MQTT_OK/GD32VW55X_Wifi_BLE_SDK/GD32VW55x_RELEASE_V1.0.2/MSDK/wpa_supplicant/src/ap\ap_config.c **** 	}
1493:C:/Users/stapi/OneDrive/Desktop/GD32VW553/V1_MQTT_OK/GD32VW55X_Wifi_BLE_SDK/GD32VW55x_RELEASE_V1.0.2/MSDK/wpa_supplicant/src/ap\ap_config.c **** 
1494:C:/Users/stapi/OneDrive/Desktop/GD32VW553/V1_MQTT_OK/GD32VW55X_Wifi_BLE_SDK/GD32VW55x_RELEASE_V1.0.2/MSDK/wpa_supplicant/src/ap\ap_config.c **** #ifdef CONFIG_AIRTIME_POLICY
1495:C:/Users/stapi/OneDrive/Desktop/GD32VW553/V1_MQTT_OK/GD32VW55X_Wifi_BLE_SDK/GD32VW55x_RELEASE_V1.0.2/MSDK/wpa_supplicant/src/ap\ap_config.c **** 	if (full_config && conf->airtime_mode > AIRTIME_MODE_STATIC &&
1496:C:/Users/stapi/OneDrive/Desktop/GD32VW553/V1_MQTT_OK/GD32VW55X_Wifi_BLE_SDK/GD32VW55x_RELEASE_V1.0.2/MSDK/wpa_supplicant/src/ap\ap_config.c **** 	    !conf->airtime_update_interval) {
1497:C:/Users/stapi/OneDrive/Desktop/GD32VW553/V1_MQTT_OK/GD32VW55X_Wifi_BLE_SDK/GD32VW55x_RELEASE_V1.0.2/MSDK/wpa_supplicant/src/ap\ap_config.c **** 		wpa_printf(MSG_ERROR, "Airtime update interval cannot be zero");
1498:C:/Users/stapi/OneDrive/Desktop/GD32VW553/V1_MQTT_OK/GD32VW55X_Wifi_BLE_SDK/GD32VW55x_RELEASE_V1.0.2/MSDK/wpa_supplicant/src/ap\ap_config.c **** 		return -1;
1499:C:/Users/stapi/OneDrive/Desktop/GD32VW553/V1_MQTT_OK/GD32VW55X_Wifi_BLE_SDK/GD32VW55x_RELEASE_V1.0.2/MSDK/wpa_supplicant/src/ap\ap_config.c **** 	}
1500:C:/Users/stapi/OneDrive/Desktop/GD32VW553/V1_MQTT_OK/GD32VW55X_Wifi_BLE_SDK/GD32VW55x_RELEASE_V1.0.2/MSDK/wpa_supplicant/src/ap\ap_config.c **** #endif /* CONFIG_AIRTIME_POLICY */
1501:C:/Users/stapi/OneDrive/Desktop/GD32VW553/V1_MQTT_OK/GD32VW55X_Wifi_BLE_SDK/GD32VW55x_RELEASE_V1.0.2/MSDK/wpa_supplicant/src/ap\ap_config.c **** 	for (i = 0; i < NUM_TX_QUEUES; i++) {
1502:C:/Users/stapi/OneDrive/Desktop/GD32VW553/V1_MQTT_OK/GD32VW55X_Wifi_BLE_SDK/GD32VW55x_RELEASE_V1.0.2/MSDK/wpa_supplicant/src/ap\ap_config.c **** 		if (hostapd_config_check_cw(conf, i))
1503:C:/Users/stapi/OneDrive/Desktop/GD32VW553/V1_MQTT_OK/GD32VW55X_Wifi_BLE_SDK/GD32VW55x_RELEASE_V1.0.2/MSDK/wpa_supplicant/src/ap\ap_config.c **** 			return -1;
1504:C:/Users/stapi/OneDrive/Desktop/GD32VW553/V1_MQTT_OK/GD32VW55X_Wifi_BLE_SDK/GD32VW55x_RELEASE_V1.0.2/MSDK/wpa_supplicant/src/ap\ap_config.c **** 	}
1505:C:/Users/stapi/OneDrive/Desktop/GD32VW553/V1_MQTT_OK/GD32VW55X_Wifi_BLE_SDK/GD32VW55x_RELEASE_V1.0.2/MSDK/wpa_supplicant/src/ap\ap_config.c **** 
1506:C:/Users/stapi/OneDrive/Desktop/GD32VW553/V1_MQTT_OK/GD32VW55X_Wifi_BLE_SDK/GD32VW55x_RELEASE_V1.0.2/MSDK/wpa_supplicant/src/ap\ap_config.c **** 	for (i = 0; i < conf->num_bss; i++) {
1507:C:/Users/stapi/OneDrive/Desktop/GD32VW553/V1_MQTT_OK/GD32VW55X_Wifi_BLE_SDK/GD32VW55x_RELEASE_V1.0.2/MSDK/wpa_supplicant/src/ap\ap_config.c **** 		if (hostapd_config_check_bss(conf->bss[i], conf, full_config))
1508:C:/Users/stapi/OneDrive/Desktop/GD32VW553/V1_MQTT_OK/GD32VW55X_Wifi_BLE_SDK/GD32VW55x_RELEASE_V1.0.2/MSDK/wpa_supplicant/src/ap\ap_config.c **** 			return -1;
1509:C:/Users/stapi/OneDrive/Desktop/GD32VW553/V1_MQTT_OK/GD32VW55X_Wifi_BLE_SDK/GD32VW55x_RELEASE_V1.0.2/MSDK/wpa_supplicant/src/ap\ap_config.c **** 	}
1510:C:/Users/stapi/OneDrive/Desktop/GD32VW553/V1_MQTT_OK/GD32VW55X_Wifi_BLE_SDK/GD32VW55x_RELEASE_V1.0.2/MSDK/wpa_supplicant/src/ap\ap_config.c **** 
1511:C:/Users/stapi/OneDrive/Desktop/GD32VW553/V1_MQTT_OK/GD32VW55X_Wifi_BLE_SDK/GD32VW55x_RELEASE_V1.0.2/MSDK/wpa_supplicant/src/ap\ap_config.c **** 	return 0;
1512:C:/Users/stapi/OneDrive/Desktop/GD32VW553/V1_MQTT_OK/GD32VW55X_Wifi_BLE_SDK/GD32VW55x_RELEASE_V1.0.2/MSDK/wpa_supplicant/src/ap\ap_config.c **** }
 2271              		.loc 2 1512 1 is_stmt 0
 2272 0078 2285     		mv	a0,s0
 2273 007a 4101     		addi	sp,sp,16
 2274              		.cfi_remember_state
 2275              		.cfi_def_cfa_offset 0
 2276 007c 17030000 		tail	__riscv_restore_12
 2276      67000300 
 2277              		.cfi_restore 27
 2278              		.cfi_restore 26
 2279              		.cfi_restore 25
 2280              		.cfi_restore 24
 2281              		.cfi_restore 23
 2282              		.cfi_restore 22
 2283              		.cfi_restore 21
 2284              		.cfi_restore 20
 2285              		.cfi_restore 19
 2286              		.cfi_restore 18
 2287              		.cfi_restore 9
 2288              		.cfi_restore 8
 2289              		.cfi_restore 1
 2290              		.cfi_def_cfa_offset -64
 2291              	.LVL243:
 2292              	.L169:
 2293              		.cfi_restore_state
 2294 0084 9387C408 		addi	a5,s1,140
 2295 0088 1387840C 		addi	a4,s1,200
 2296 008c 1388C40C 		addi	a6,s1,204
 2297              	.LVL244:
 2298              	.L177:
1502:C:/Users/stapi/OneDrive/Desktop/GD32VW553/V1_MQTT_OK/GD32VW55X_Wifi_BLE_SDK/GD32VW55x_RELEASE_V1.0.2/MSDK/wpa_supplicant/src/ap\ap_config.c **** 			return -1;
 2299              		.loc 2 1502 3 is_stmt 1
 2300              	.LBB97:
 2301              	.LBB98:
1444:C:/Users/stapi/OneDrive/Desktop/GD32VW553/V1_MQTT_OK/GD32VW55X_Wifi_BLE_SDK/GD32VW55x_RELEASE_V1.0.2/MSDK/wpa_supplicant/src/ap\ap_config.c **** 	int tx_cwmax = conf->tx_queue[queue].cwmax;
 2302              		.loc 2 1444 2
1444:C:/Users/stapi/OneDrive/Desktop/GD32VW553/V1_MQTT_OK/GD32VW55X_Wifi_BLE_SDK/GD32VW55x_RELEASE_V1.0.2/MSDK/wpa_supplicant/src/ap\ap_config.c **** 	int tx_cwmax = conf->tx_queue[queue].cwmax;
 2303              		.loc 2 1444 6 is_stmt 0
 2304 0090 8C43     		lw	a1,0(a5)
 2305              	.LVL245:
1445:C:/Users/stapi/OneDrive/Desktop/GD32VW553/V1_MQTT_OK/GD32VW55X_Wifi_BLE_SDK/GD32VW55x_RELEASE_V1.0.2/MSDK/wpa_supplicant/src/ap\ap_config.c **** 	int ac_cwmin = conf->wmm_ac_params[queue].cwmin;
 2306              		.loc 2 1445 2 is_stmt 1
1445:C:/Users/stapi/OneDrive/Desktop/GD32VW553/V1_MQTT_OK/GD32VW55X_Wifi_BLE_SDK/GD32VW55x_RELEASE_V1.0.2/MSDK/wpa_supplicant/src/ap\ap_config.c **** 	int ac_cwmin = conf->wmm_ac_params[queue].cwmin;
 2307              		.loc 2 1445 6 is_stmt 0
 2308 0092 C843     		lw	a0,4(a5)
 2309              	.LVL246:
1446:C:/Users/stapi/OneDrive/Desktop/GD32VW553/V1_MQTT_OK/GD32VW55X_Wifi_BLE_SDK/GD32VW55x_RELEASE_V1.0.2/MSDK/wpa_supplicant/src/ap\ap_config.c **** 	int ac_cwmax = conf->wmm_ac_params[queue].cwmax;
 2310              		.loc 2 1446 2 is_stmt 1
1446:C:/Users/stapi/OneDrive/Desktop/GD32VW553/V1_MQTT_OK/GD32VW55X_Wifi_BLE_SDK/GD32VW55x_RELEASE_V1.0.2/MSDK/wpa_supplicant/src/ap\ap_config.c **** 	int ac_cwmax = conf->wmm_ac_params[queue].cwmax;
 2311              		.loc 2 1446 6 is_stmt 0
 2312 0094 1043     		lw	a2,0(a4)
 2313              	.LVL247:
1447:C:/Users/stapi/OneDrive/Desktop/GD32VW553/V1_MQTT_OK/GD32VW55X_Wifi_BLE_SDK/GD32VW55x_RELEASE_V1.0.2/MSDK/wpa_supplicant/src/ap\ap_config.c **** 
 2314              		.loc 2 1447 2 is_stmt 1
1447:C:/Users/stapi/OneDrive/Desktop/GD32VW553/V1_MQTT_OK/GD32VW55X_Wifi_BLE_SDK/GD32VW55x_RELEASE_V1.0.2/MSDK/wpa_supplicant/src/ap\ap_config.c **** 
 2315              		.loc 2 1447 6 is_stmt 0
 2316 0096 5443     		lw	a3,4(a4)
 2317              	.LVL248:
1449:C:/Users/stapi/OneDrive/Desktop/GD32VW553/V1_MQTT_OK/GD32VW55X_Wifi_BLE_SDK/GD32VW55x_RELEASE_V1.0.2/MSDK/wpa_supplicant/src/ap\ap_config.c **** 		wpa_printf(MSG_ERROR,
 2318              		.loc 2 1449 2 is_stmt 1
1449:C:/Users/stapi/OneDrive/Desktop/GD32VW553/V1_MQTT_OK/GD32VW55X_Wifi_BLE_SDK/GD32VW55x_RELEASE_V1.0.2/MSDK/wpa_supplicant/src/ap\ap_config.c **** 		wpa_printf(MSG_ERROR,
 2319              		.loc 2 1449 5 is_stmt 0
 2320 0098 635FB500 		ble	a1,a0,.L175
1450:C:/Users/stapi/OneDrive/Desktop/GD32VW553/V1_MQTT_OK/GD32VW55X_Wifi_BLE_SDK/GD32VW55x_RELEASE_V1.0.2/MSDK/wpa_supplicant/src/ap\ap_config.c **** 			   "Invalid TX queue cwMin/cwMax values. cwMin(%d) greater than cwMax(%d)",
 2321              		.loc 2 1450 3 is_stmt 1
 2322 009c 2E86     		mv	a2,a1
 2323              	.LVL249:
 2324 009e B7050000 		lui	a1,%hi(.LC7)
 2325              	.LVL250:
 2326 00a2 AA86     		mv	a3,a0
 2327              	.LVL251:
 2328 00a4 93850500 		addi	a1,a1,%lo(.LC7)
 2329              	.LVL252:
 2330              	.L242:
1456:C:/Users/stapi/OneDrive/Desktop/GD32VW553/V1_MQTT_OK/GD32VW55X_Wifi_BLE_SDK/GD32VW55x_RELEASE_V1.0.2/MSDK/wpa_supplicant/src/ap\ap_config.c **** 			   "Invalid WMM AC cwMin/cwMax values. cwMin(%d) greater than cwMax(%d)",
 2331              		.loc 2 1456 3 is_stmt 0
 2332 00a8 1545     		li	a0,5
 2333              	.LVL253:
 2334 00aa 97000000 		call	wpa_printf
 2334      E7800000 
 2335              	.LVL254:
1459:C:/Users/stapi/OneDrive/Desktop/GD32VW553/V1_MQTT_OK/GD32VW55X_Wifi_BLE_SDK/GD32VW55x_RELEASE_V1.0.2/MSDK/wpa_supplicant/src/ap\ap_config.c **** 	}
 2336              		.loc 2 1459 3 is_stmt 1
 2337              	.L240:
 2338              	.LBE98:
 2339              	.LBE97:
 2340              	.LBB100:
 2341              	.LBB91:
 2342              	.LBB87:
1276:C:/Users/stapi/OneDrive/Desktop/GD32VW553/V1_MQTT_OK/GD32VW55X_Wifi_BLE_SDK/GD32VW55x_RELEASE_V1.0.2/MSDK/wpa_supplicant/src/ap\ap_config.c **** 			}
 2343              		.loc 2 1276 5
 2344              	.LBE87:
 2345              	.LBE91:
 2346              	.LBE100:
1508:C:/Users/stapi/OneDrive/Desktop/GD32VW553/V1_MQTT_OK/GD32VW55X_Wifi_BLE_SDK/GD32VW55x_RELEASE_V1.0.2/MSDK/wpa_supplicant/src/ap\ap_config.c **** 	}
 2347              		.loc 2 1508 11 is_stmt 0
 2348 00b2 7D54     		li	s0,-1
 2349 00b4 D1B7     		j	.L168
 2350              	.LVL255:
 2351              	.L175:
 2352              	.LBB101:
 2353              	.LBB99:
1455:C:/Users/stapi/OneDrive/Desktop/GD32VW553/V1_MQTT_OK/GD32VW55X_Wifi_BLE_SDK/GD32VW55x_RELEASE_V1.0.2/MSDK/wpa_supplicant/src/ap\ap_config.c **** 		wpa_printf(MSG_ERROR,
 2354              		.loc 2 1455 2 is_stmt 1
1455:C:/Users/stapi/OneDrive/Desktop/GD32VW553/V1_MQTT_OK/GD32VW55X_Wifi_BLE_SDK/GD32VW55x_RELEASE_V1.0.2/MSDK/wpa_supplicant/src/ap\ap_config.c **** 		wpa_printf(MSG_ERROR,
 2355              		.loc 2 1455 5 is_stmt 0
 2356 00b6 63D7C600 		ble	a2,a3,.L176
1456:C:/Users/stapi/OneDrive/Desktop/GD32VW553/V1_MQTT_OK/GD32VW55X_Wifi_BLE_SDK/GD32VW55x_RELEASE_V1.0.2/MSDK/wpa_supplicant/src/ap\ap_config.c **** 			   "Invalid WMM AC cwMin/cwMax values. cwMin(%d) greater than cwMax(%d)",
 2357              		.loc 2 1456 3 is_stmt 1
 2358 00ba B7050000 		lui	a1,%hi(.LC8)
 2359              	.LVL256:
 2360 00be 93850500 		addi	a1,a1,%lo(.LC8)
 2361 00c2 DDB7     		j	.L242
 2362              	.LVL257:
 2363              	.L176:
 2364              	.LBE99:
 2365              	.LBE101:
1501:C:/Users/stapi/OneDrive/Desktop/GD32VW553/V1_MQTT_OK/GD32VW55X_Wifi_BLE_SDK/GD32VW55x_RELEASE_V1.0.2/MSDK/wpa_supplicant/src/ap\ap_config.c **** 		if (hostapd_config_check_cw(conf, i))
 2366              		.loc 2 1501 33
1501:C:/Users/stapi/OneDrive/Desktop/GD32VW553/V1_MQTT_OK/GD32VW55X_Wifi_BLE_SDK/GD32VW55x_RELEASE_V1.0.2/MSDK/wpa_supplicant/src/ap\ap_config.c **** 		if (hostapd_config_check_cw(conf, i))
 2367              		.loc 2 1501 14
1501:C:/Users/stapi/OneDrive/Desktop/GD32VW553/V1_MQTT_OK/GD32VW55X_Wifi_BLE_SDK/GD32VW55x_RELEASE_V1.0.2/MSDK/wpa_supplicant/src/ap\ap_config.c **** 		if (hostapd_config_check_cw(conf, i))
 2368              		.loc 2 1501 2 is_stmt 0
 2369 00c4 C107     		addi	a5,a5,16
 2370 00c6 5107     		addi	a4,a4,20
 2371 00c8 E39407FD 		bne	a5,a6,.L177
1506:C:/Users/stapi/OneDrive/Desktop/GD32VW553/V1_MQTT_OK/GD32VW55X_Wifi_BLE_SDK/GD32VW55x_RELEASE_V1.0.2/MSDK/wpa_supplicant/src/ap\ap_config.c **** 		if (hostapd_config_check_bss(conf->bss[i], conf, full_config))
 2372              		.loc 2 1506 9
 2373 00cc 8149     		li	s3,0
 2374              	.LBB102:
 2375              	.LBB92:
1356:C:/Users/stapi/OneDrive/Desktop/GD32VW553/V1_MQTT_OK/GD32VW55X_Wifi_BLE_SDK/GD32VW55x_RELEASE_V1.0.2/MSDK/wpa_supplicant/src/ap\ap_config.c **** 		wpa_printf(MSG_ERROR,
 2376              		.loc 2 1356 21
 2377 00ce 054B     		li	s6,1
1357:C:/Users/stapi/OneDrive/Desktop/GD32VW553/V1_MQTT_OK/GD32VW55X_Wifi_BLE_SDK/GD32VW55x_RELEASE_V1.0.2/MSDK/wpa_supplicant/src/ap\ap_config.c **** 			   "HE (IEEE 802.11ax) with WPA/WPA2 requires CCMP/GCMP to be enabled, disabling HE capabilities
 2378              		.loc 2 1357 3
 2379 00d0 B70B0000 		lui	s7,%hi(.LC20)
1296:C:/Users/stapi/OneDrive/Desktop/GD32VW553/V1_MQTT_OK/GD32VW55X_Wifi_BLE_SDK/GD32VW55x_RELEASE_V1.0.2/MSDK/wpa_supplicant/src/ap\ap_config.c **** 			   "allowed, disabling HT capabilities");
 2380              		.loc 2 1296 3
 2381 00d4 370C0000 		lui	s8,%hi(.LC18)
1315:C:/Users/stapi/OneDrive/Desktop/GD32VW553/V1_MQTT_OK/GD32VW55X_Wifi_BLE_SDK/GD32VW55x_RELEASE_V1.0.2/MSDK/wpa_supplicant/src/ap\ap_config.c **** 			   "requires CCMP/GCMP to be enabled, disabling HT "
 2382              		.loc 2 1315 3
 2383 00d8 B70C0000 		lui	s9,%hi(.LC19)
1257:C:/Users/stapi/OneDrive/Desktop/GD32VW553/V1_MQTT_OK/GD32VW55X_Wifi_BLE_SDK/GD32VW55x_RELEASE_V1.0.2/MSDK/wpa_supplicant/src/ap\ap_config.c **** 	    (bss->wpa_psk_radius != PSK_RADIUS_REQUIRED ||
 2384              		.loc 2 1257 37
 2385 00dc 0949     		li	s2,2
 2386              	.L178:
 2387              	.LVL258:
 2388              	.LBE92:
 2389              	.LBE102:
1506:C:/Users/stapi/OneDrive/Desktop/GD32VW553/V1_MQTT_OK/GD32VW55X_Wifi_BLE_SDK/GD32VW55x_RELEASE_V1.0.2/MSDK/wpa_supplicant/src/ap\ap_config.c **** 		if (hostapd_config_check_bss(conf->bss[i], conf, full_config))
 2390              		.loc 2 1506 14 is_stmt 1 discriminator 1
1506:C:/Users/stapi/OneDrive/Desktop/GD32VW553/V1_MQTT_OK/GD32VW55X_Wifi_BLE_SDK/GD32VW55x_RELEASE_V1.0.2/MSDK/wpa_supplicant/src/ap\ap_config.c **** 		if (hostapd_config_check_bss(conf->bss[i], conf, full_config))
 2391              		.loc 2 1506 2 is_stmt 0 discriminator 1
 2392 00de 9C44     		lw	a5,8(s1)
 2393 00e0 63E4F900 		bgtu	a5,s3,.L200
1511:C:/Users/stapi/OneDrive/Desktop/GD32VW553/V1_MQTT_OK/GD32VW55X_Wifi_BLE_SDK/GD32VW55x_RELEASE_V1.0.2/MSDK/wpa_supplicant/src/ap\ap_config.c **** }
 2394              		.loc 2 1511 9
 2395 00e4 0144     		li	s0,0
 2396 00e6 49BF     		j	.L168
 2397              	.L200:
1507:C:/Users/stapi/OneDrive/Desktop/GD32VW553/V1_MQTT_OK/GD32VW55X_Wifi_BLE_SDK/GD32VW55x_RELEASE_V1.0.2/MSDK/wpa_supplicant/src/ap\ap_config.c **** 			return -1;
 2398              		.loc 2 1507 3 is_stmt 1
 2399              	.LVL259:
 2400              	.LBB103:
 2401              	.LBB93:
1216:C:/Users/stapi/OneDrive/Desktop/GD32VW553/V1_MQTT_OK/GD32VW55X_Wifi_BLE_SDK/GD32VW55x_RELEASE_V1.0.2/MSDK/wpa_supplicant/src/ap\ap_config.c **** 	    !hostapd_config_check_bss_6g(bss))
 2402              		.loc 2 1216 2
1216:C:/Users/stapi/OneDrive/Desktop/GD32VW553/V1_MQTT_OK/GD32VW55X_Wifi_BLE_SDK/GD32VW55x_RELEASE_V1.0.2/MSDK/wpa_supplicant/src/ap\ap_config.c **** 	    !hostapd_config_check_bss_6g(bss))
 2403              		.loc 2 1216 5 is_stmt 0
 2404 00e8 63090A10 		beq	s4,zero,.L180
 2405              	.LBE93:
 2406              	.LBE103:
1507:C:/Users/stapi/OneDrive/Desktop/GD32VW553/V1_MQTT_OK/GD32VW55X_Wifi_BLE_SDK/GD32VW55x_RELEASE_V1.0.2/MSDK/wpa_supplicant/src/ap\ap_config.c **** 			return -1;
 2407              		.loc 2 1507 7
 2408 00ec 9C40     		lw	a5,0(s1)
 2409              	.LBB104:
 2410              	.LBB94:
1216:C:/Users/stapi/OneDrive/Desktop/GD32VW553/V1_MQTT_OK/GD32VW55X_Wifi_BLE_SDK/GD32VW55x_RELEASE_V1.0.2/MSDK/wpa_supplicant/src/ap\ap_config.c **** 	    !hostapd_config_check_bss_6g(bss))
 2411              		.loc 2 1216 21
 2412 00ee 03C58401 		lbu	a0,24(s1)
 2413              	.LBE94:
 2414              	.LBE104:
1507:C:/Users/stapi/OneDrive/Desktop/GD32VW553/V1_MQTT_OK/GD32VW55X_Wifi_BLE_SDK/GD32VW55x_RELEASE_V1.0.2/MSDK/wpa_supplicant/src/ap\ap_config.c **** 			return -1;
 2415              		.loc 2 1507 7
 2416 00f2 B3C7F920 		sh2add	a5,s3,a5
 2417 00f6 8043     		lw	s0,0(a5)
 2418              	.LBB105:
 2419              	.LBB95:
1216:C:/Users/stapi/OneDrive/Desktop/GD32VW553/V1_MQTT_OK/GD32VW55X_Wifi_BLE_SDK/GD32VW55x_RELEASE_V1.0.2/MSDK/wpa_supplicant/src/ap\ap_config.c **** 	    !hostapd_config_check_bss_6g(bss))
 2420              		.loc 2 1216 21
 2421 00f8 97000000 		call	is_6ghz_op_class
 2421      E7800000 
 2422              	.LVL260:
1216:C:/Users/stapi/OneDrive/Desktop/GD32VW553/V1_MQTT_OK/GD32VW55X_Wifi_BLE_SDK/GD32VW55x_RELEASE_V1.0.2/MSDK/wpa_supplicant/src/ap\ap_config.c **** 	    !hostapd_config_check_bss_6g(bss))
 2423              		.loc 2 1216 18
 2424 0100 630F0518 		beq	a0,zero,.L181
 2425              	.LVL261:
 2426              	.LBB88:
 2427              	.LBB89:
1174:C:/Users/stapi/OneDrive/Desktop/GD32VW553/V1_MQTT_OK/GD32VW55X_Wifi_BLE_SDK/GD32VW55x_RELEASE_V1.0.2/MSDK/wpa_supplicant/src/ap\ap_config.c **** 		wpa_printf(MSG_ERROR,
 2428              		.loc 2 1174 2 is_stmt 1
1174:C:/Users/stapi/OneDrive/Desktop/GD32VW553/V1_MQTT_OK/GD32VW55X_Wifi_BLE_SDK/GD32VW55x_RELEASE_V1.0.2/MSDK/wpa_supplicant/src/ap\ap_config.c **** 		wpa_printf(MSG_ERROR,
 2429              		.loc 2 1174 5 is_stmt 0
 2430 0104 83274414 		lw	a5,324(s0)
 2431 0108 63872701 		beq	a5,s2,.L182
1175:C:/Users/stapi/OneDrive/Desktop/GD32VW553/V1_MQTT_OK/GD32VW55X_Wifi_BLE_SDK/GD32VW55x_RELEASE_V1.0.2/MSDK/wpa_supplicant/src/ap\ap_config.c **** 			   "Pre-RSNA security methods are not allowed in 6 GHz");
 2432              		.loc 2 1175 3 is_stmt 1
 2433 010c B7050000 		lui	a1,%hi(.LC9)
 2434 0110 93850500 		addi	a1,a1,%lo(.LC9)
 2435 0114 11BF     		j	.L241
 2436              	.L182:
1180:C:/Users/stapi/OneDrive/Desktop/GD32VW553/V1_MQTT_OK/GD32VW55X_Wifi_BLE_SDK/GD32VW55x_RELEASE_V1.0.2/MSDK/wpa_supplicant/src/ap\ap_config.c **** 		wpa_printf(MSG_ERROR,
 2437              		.loc 2 1180 2
1180:C:/Users/stapi/OneDrive/Desktop/GD32VW553/V1_MQTT_OK/GD32VW55X_Wifi_BLE_SDK/GD32VW55x_RELEASE_V1.0.2/MSDK/wpa_supplicant/src/ap\ap_config.c **** 		wpa_printf(MSG_ERROR,
 2438              		.loc 2 1180 5 is_stmt 0
 2439 0116 83270415 		lw	a5,336(s0)
 2440 011a 63872701 		beq	a5,s2,.L183
1181:C:/Users/stapi/OneDrive/Desktop/GD32VW553/V1_MQTT_OK/GD32VW55X_Wifi_BLE_SDK/GD32VW55x_RELEASE_V1.0.2/MSDK/wpa_supplicant/src/ap\ap_config.c **** 			   "Management frame protection is required in 6 GHz");
 2441              		.loc 2 1181 3 is_stmt 1
 2442 011e B7050000 		lui	a1,%hi(.LC10)
 2443 0122 93850500 		addi	a1,a1,%lo(.LC10)
 2444 0126 09B7     		j	.L241
 2445              	.L183:
1186:C:/Users/stapi/OneDrive/Desktop/GD32VW553/V1_MQTT_OK/GD32VW55X_Wifi_BLE_SDK/GD32VW55x_RELEASE_V1.0.2/MSDK/wpa_supplicant/src/ap\ap_config.c **** 				 WPA_KEY_MGMT_FT_PSK |
 2446              		.loc 2 1186 2
1186:C:/Users/stapi/OneDrive/Desktop/GD32VW553/V1_MQTT_OK/GD32VW55X_Wifi_BLE_SDK/GD32VW55x_RELEASE_V1.0.2/MSDK/wpa_supplicant/src/ap\ap_config.c **** 				 WPA_KEY_MGMT_FT_PSK |
 2447              		.loc 2 1186 24 is_stmt 0
 2448 0128 8327C414 		lw	a5,332(s0)
 2449 012c 93F72714 		andi	a5,a5,322
1186:C:/Users/stapi/OneDrive/Desktop/GD32VW553/V1_MQTT_OK/GD32VW55X_Wifi_BLE_SDK/GD32VW55x_RELEASE_V1.0.2/MSDK/wpa_supplicant/src/ap\ap_config.c **** 				 WPA_KEY_MGMT_FT_PSK |
 2450              		.loc 2 1186 5
 2451 0130 91C7     		beq	a5,zero,.L184
1189:C:/Users/stapi/OneDrive/Desktop/GD32VW553/V1_MQTT_OK/GD32VW55X_Wifi_BLE_SDK/GD32VW55x_RELEASE_V1.0.2/MSDK/wpa_supplicant/src/ap\ap_config.c **** 		return false;
 2452              		.loc 2 1189 3 is_stmt 1
 2453 0132 B7050000 		lui	a1,%hi(.LC11)
 2454 0136 93850500 		addi	a1,a1,%lo(.LC11)
 2455 013a FDB5     		j	.L241
 2456              	.L184:
1193:C:/Users/stapi/OneDrive/Desktop/GD32VW553/V1_MQTT_OK/GD32VW55X_Wifi_BLE_SDK/GD32VW55x_RELEASE_V1.0.2/MSDK/wpa_supplicant/src/ap\ap_config.c **** 				 WPA_CIPHER_WEP104 |
 2457              		.loc 2 1193 2
1193:C:/Users/stapi/OneDrive/Desktop/GD32VW553/V1_MQTT_OK/GD32VW55X_Wifi_BLE_SDK/GD32VW55x_RELEASE_V1.0.2/MSDK/wpa_supplicant/src/ap\ap_config.c **** 				 WPA_CIPHER_WEP104 |
 2458              		.loc 2 1193 24 is_stmt 0
 2459 013c 83278419 		lw	a5,408(s0)
 2460 0140 B98B     		andi	a5,a5,14
1193:C:/Users/stapi/OneDrive/Desktop/GD32VW553/V1_MQTT_OK/GD32VW55X_Wifi_BLE_SDK/GD32VW55x_RELEASE_V1.0.2/MSDK/wpa_supplicant/src/ap\ap_config.c **** 				 WPA_CIPHER_WEP104 |
 2461              		.loc 2 1193 5
 2462 0142 91C7     		beq	a5,zero,.L185
1196:C:/Users/stapi/OneDrive/Desktop/GD32VW553/V1_MQTT_OK/GD32VW55X_Wifi_BLE_SDK/GD32VW55x_RELEASE_V1.0.2/MSDK/wpa_supplicant/src/ap\ap_config.c **** 			   "Invalid pairwise cipher suite for 6 GHz");
 2463              		.loc 2 1196 3 is_stmt 1
 2464 0144 B7050000 		lui	a1,%hi(.LC12)
 2465 0148 93850500 		addi	a1,a1,%lo(.LC12)
 2466 014c F1BD     		j	.L241
 2467              	.L185:
1201:C:/Users/stapi/OneDrive/Desktop/GD32VW553/V1_MQTT_OK/GD32VW55X_Wifi_BLE_SDK/GD32VW55x_RELEASE_V1.0.2/MSDK/wpa_supplicant/src/ap\ap_config.c **** 			      WPA_CIPHER_WEP104 |
 2468              		.loc 2 1201 2
1201:C:/Users/stapi/OneDrive/Desktop/GD32VW553/V1_MQTT_OK/GD32VW55X_Wifi_BLE_SDK/GD32VW55x_RELEASE_V1.0.2/MSDK/wpa_supplicant/src/ap\ap_config.c **** 			      WPA_CIPHER_WEP104 |
 2469              		.loc 2 1201 21 is_stmt 0
 2470 014e 83270417 		lw	a5,368(s0)
 2471 0152 B98B     		andi	a5,a5,14
1201:C:/Users/stapi/OneDrive/Desktop/GD32VW553/V1_MQTT_OK/GD32VW55X_Wifi_BLE_SDK/GD32VW55x_RELEASE_V1.0.2/MSDK/wpa_supplicant/src/ap\ap_config.c **** 			      WPA_CIPHER_WEP104 |
 2472              		.loc 2 1201 5
 2473 0154 63850714 		beq	a5,zero,.L181
1204:C:/Users/stapi/OneDrive/Desktop/GD32VW553/V1_MQTT_OK/GD32VW55X_Wifi_BLE_SDK/GD32VW55x_RELEASE_V1.0.2/MSDK/wpa_supplicant/src/ap\ap_config.c **** 		return false;
 2474              		.loc 2 1204 3 is_stmt 1
 2475 0158 B7050000 		lui	a1,%hi(.LC13)
 2476 015c 93850500 		addi	a1,a1,%lo(.LC13)
 2477 0160 E1B5     		j	.L241
 2478              	.L203:
 2479              	.LBE89:
 2480              	.LBE88:
1220:C:/Users/stapi/OneDrive/Desktop/GD32VW553/V1_MQTT_OK/GD32VW55X_Wifi_BLE_SDK/GD32VW55x_RELEASE_V1.0.2/MSDK/wpa_supplicant/src/ap\ap_config.c **** 	    !bss->radius->auth_servers) {
 2481              		.loc 2 1220 37 is_stmt 0
 2482 0162 7C40     		lw	a5,68(s0)
 2483 0164 63900714 		bne	a5,zero,.L186
1221:C:/Users/stapi/OneDrive/Desktop/GD32VW553/V1_MQTT_OK/GD32VW55X_Wifi_BLE_SDK/GD32VW55x_RELEASE_V1.0.2/MSDK/wpa_supplicant/src/ap\ap_config.c **** 		wpa_printf(MSG_ERROR, "Invalid IEEE 802.1X configuration (no "
 2484              		.loc 2 1221 18
 2485 0168 7C58     		lw	a5,116(s0)
1220:C:/Users/stapi/OneDrive/Desktop/GD32VW553/V1_MQTT_OK/GD32VW55X_Wifi_BLE_SDK/GD32VW55x_RELEASE_V1.0.2/MSDK/wpa_supplicant/src/ap\ap_config.c **** 	    !bss->radius->auth_servers) {
 2486              		.loc 2 1220 57
 2487 016a 9C43     		lw	a5,0(a5)
 2488 016c 639C0712 		bne	a5,zero,.L186
1222:C:/Users/stapi/OneDrive/Desktop/GD32VW553/V1_MQTT_OK/GD32VW55X_Wifi_BLE_SDK/GD32VW55x_RELEASE_V1.0.2/MSDK/wpa_supplicant/src/ap\ap_config.c **** 			   "EAP authenticator configured).");
 2489              		.loc 2 1222 3 is_stmt 1
 2490 0170 B7050000 		lui	a1,%hi(.LC14)
 2491 0174 93850500 		addi	a1,a1,%lo(.LC14)
 2492 0178 45BD     		j	.L241
 2493              	.L188:
1255:C:/Users/stapi/OneDrive/Desktop/GD32VW553/V1_MQTT_OK/GD32VW55X_Wifi_BLE_SDK/GD32VW55x_RELEASE_V1.0.2/MSDK/wpa_supplicant/src/ap\ap_config.c **** 	    bss->ssid.wpa_psk == NULL && bss->ssid.wpa_passphrase == NULL &&
 2494              		.loc 2 1255 2
1255:C:/Users/stapi/OneDrive/Desktop/GD32VW553/V1_MQTT_OK/GD32VW55X_Wifi_BLE_SDK/GD32VW55x_RELEASE_V1.0.2/MSDK/wpa_supplicant/src/ap\ap_config.c **** 	    bss->ssid.wpa_psk == NULL && bss->ssid.wpa_passphrase == NULL &&
 2495              		.loc 2 1255 52 is_stmt 0
 2496 017a 8327C414 		lw	a5,332(s0)
 2497 017e 898B     		andi	a5,a5,2
1255:C:/Users/stapi/OneDrive/Desktop/GD32VW553/V1_MQTT_OK/GD32VW55X_Wifi_BLE_SDK/GD32VW55x_RELEASE_V1.0.2/MSDK/wpa_supplicant/src/ap\ap_config.c **** 	    bss->ssid.wpa_psk == NULL && bss->ssid.wpa_passphrase == NULL &&
 2498              		.loc 2 1255 30
 2499 0180 8DC7     		beq	a5,zero,.L187
1255:C:/Users/stapi/OneDrive/Desktop/GD32VW553/V1_MQTT_OK/GD32VW55X_Wifi_BLE_SDK/GD32VW55x_RELEASE_V1.0.2/MSDK/wpa_supplicant/src/ap\ap_config.c **** 	    bss->ssid.wpa_psk == NULL && bss->ssid.wpa_passphrase == NULL &&
 2500              		.loc 2 1255 72
 2501 0182 8327C40E 		lw	a5,236(s0)
 2502 0186 95E3     		bne	a5,zero,.L187
1256:C:/Users/stapi/OneDrive/Desktop/GD32VW553/V1_MQTT_OK/GD32VW55X_Wifi_BLE_SDK/GD32VW55x_RELEASE_V1.0.2/MSDK/wpa_supplicant/src/ap\ap_config.c **** 	    bss->ssid.wpa_psk_file == NULL &&
 2503              		.loc 2 1256 32
 2504 0188 8327040F 		lw	a5,240(s0)
 2505 018c 99EF     		bne	a5,zero,.L187
1256:C:/Users/stapi/OneDrive/Desktop/GD32VW553/V1_MQTT_OK/GD32VW55X_Wifi_BLE_SDK/GD32VW55x_RELEASE_V1.0.2/MSDK/wpa_supplicant/src/ap\ap_config.c **** 	    bss->ssid.wpa_psk_file == NULL &&
 2506              		.loc 2 1256 68
 2507 018e 8327440F 		lw	a5,244(s0)
 2508 0192 81EF     		bne	a5,zero,.L187
1257:C:/Users/stapi/OneDrive/Desktop/GD32VW553/V1_MQTT_OK/GD32VW55X_Wifi_BLE_SDK/GD32VW55x_RELEASE_V1.0.2/MSDK/wpa_supplicant/src/ap\ap_config.c **** 	    (bss->wpa_psk_radius != PSK_RADIUS_REQUIRED ||
 2509              		.loc 2 1257 37
 2510 0194 63162701 		bne	a4,s2,.L189
1258:C:/Users/stapi/OneDrive/Desktop/GD32VW553/V1_MQTT_OK/GD32VW55X_Wifi_BLE_SDK/GD32VW55x_RELEASE_V1.0.2/MSDK/wpa_supplicant/src/ap\ap_config.c **** 	     bss->macaddr_acl != USE_EXTERNAL_RADIUS_AUTH)) {
 2511              		.loc 2 1258 50
 2512 0198 83270412 		lw	a5,288(s0)
 2513 019c 63872701 		beq	a5,s2,.L187
 2514              	.L189:
1260:C:/Users/stapi/OneDrive/Desktop/GD32VW553/V1_MQTT_OK/GD32VW55X_Wifi_BLE_SDK/GD32VW55x_RELEASE_V1.0.2/MSDK/wpa_supplicant/src/ap\ap_config.c **** 			   "is not configured.");
 2515              		.loc 2 1260 3 is_stmt 1
 2516 01a0 B7050000 		lui	a1,%hi(.LC16)
 2517 01a4 93850500 		addi	a1,a1,%lo(.LC16)
 2518 01a8 41B5     		j	.L241
 2519              	.L187:
1265:C:/Users/stapi/OneDrive/Desktop/GD32VW553/V1_MQTT_OK/GD32VW55X_Wifi_BLE_SDK/GD32VW55x_RELEASE_V1.0.2/MSDK/wpa_supplicant/src/ap\ap_config.c **** 		size_t i;
 2520              		.loc 2 1265 2
1265:C:/Users/stapi/OneDrive/Desktop/GD32VW553/V1_MQTT_OK/GD32VW55X_Wifi_BLE_SDK/GD32VW55x_RELEASE_V1.0.2/MSDK/wpa_supplicant/src/ap\ap_config.c **** 		size_t i;
 2521              		.loc 2 1265 44 is_stmt 0
 2522 01aa 130DC426 		addi	s10,s0,620
1265:C:/Users/stapi/OneDrive/Desktop/GD32VW553/V1_MQTT_OK/GD32VW55X_Wifi_BLE_SDK/GD32VW55x_RELEASE_V1.0.2/MSDK/wpa_supplicant/src/ap\ap_config.c **** 		size_t i;
 2523              		.loc 2 1265 22
 2524 01ae 6A85     		mv	a0,s10
 2525 01b0 97000000 		call	is_zero_ether_addr
 2525      E7800000 
 2526              	.LVL262:
1265:C:/Users/stapi/OneDrive/Desktop/GD32VW553/V1_MQTT_OK/GD32VW55X_Wifi_BLE_SDK/GD32VW55x_RELEASE_V1.0.2/MSDK/wpa_supplicant/src/ap\ap_config.c **** 		size_t i;
 2527              		.loc 2 1265 18
 2528 01b8 4DC1     		beq	a0,zero,.L204
 2529              	.L191:
1293:C:/Users/stapi/OneDrive/Desktop/GD32VW553/V1_MQTT_OK/GD32VW55X_Wifi_BLE_SDK/GD32VW55x_RELEASE_V1.0.2/MSDK/wpa_supplicant/src/ap\ap_config.c **** 	    conf->hw_mode == HOSTAPD_MODE_IEEE80211B) {
 2530              		.loc 2 1293 2 is_stmt 1
1293:C:/Users/stapi/OneDrive/Desktop/GD32VW553/V1_MQTT_OK/GD32VW55X_Wifi_BLE_SDK/GD32VW55x_RELEASE_V1.0.2/MSDK/wpa_supplicant/src/ap\ap_config.c **** 	    conf->hw_mode == HOSTAPD_MODE_IEEE80211B) {
 2531              		.loc 2 1293 18 is_stmt 0
 2532 01ba 83A70412 		lw	a5,288(s1)
 2533 01be 91C7     		beq	a5,zero,.L198
1293:C:/Users/stapi/OneDrive/Desktop/GD32VW553/V1_MQTT_OK/GD32VW55X_Wifi_BLE_SDK/GD32VW55x_RELEASE_V1.0.2/MSDK/wpa_supplicant/src/ap\ap_config.c **** 	    conf->hw_mode == HOSTAPD_MODE_IEEE80211B) {
 2534              		.loc 2 1293 38
 2535 01c0 BC40     		lw	a5,64(s1)
 2536 01c2 D1CF     		beq	a5,zero,.L194
 2537              	.L197:
1309:C:/Users/stapi/OneDrive/Desktop/GD32VW553/V1_MQTT_OK/GD32VW55X_Wifi_BLE_SDK/GD32VW55x_RELEASE_V1.0.2/MSDK/wpa_supplicant/src/ap\ap_config.c **** 	    !(bss->wpa_pairwise & WPA_CIPHER_CCMP) &&
 2538              		.loc 2 1309 38
 2539 01c4 83274414 		lw	a5,324(s0)
 2540 01c8 C5EB     		bne	a5,zero,.L195
 2541              	.L198:
1351:C:/Users/stapi/OneDrive/Desktop/GD32VW553/V1_MQTT_OK/GD32VW55X_Wifi_BLE_SDK/GD32VW55x_RELEASE_V1.0.2/MSDK/wpa_supplicant/src/ap\ap_config.c **** 	    !(bss->wpa_pairwise & WPA_CIPHER_CCMP) &&
 2542              		.loc 2 1351 2 is_stmt 1
1351:C:/Users/stapi/OneDrive/Desktop/GD32VW553/V1_MQTT_OK/GD32VW55X_Wifi_BLE_SDK/GD32VW55x_RELEASE_V1.0.2/MSDK/wpa_supplicant/src/ap\ap_config.c **** 	    !(bss->wpa_pairwise & WPA_CIPHER_CCMP) &&
 2543              		.loc 2 1351 18 is_stmt 0
 2544 01ca 83A74415 		lw	a5,340(s1)
 2545 01ce 95C7     		beq	a5,zero,.L180
1351:C:/Users/stapi/OneDrive/Desktop/GD32VW553/V1_MQTT_OK/GD32VW55X_Wifi_BLE_SDK/GD32VW55x_RELEASE_V1.0.2/MSDK/wpa_supplicant/src/ap\ap_config.c **** 	    !(bss->wpa_pairwise & WPA_CIPHER_CCMP) &&
 2546              		.loc 2 1351 39
 2547 01d0 83274414 		lw	a5,324(s0)
 2548 01d4 9DC3     		beq	a5,zero,.L180
1352:C:/Users/stapi/OneDrive/Desktop/GD32VW553/V1_MQTT_OK/GD32VW55X_Wifi_BLE_SDK/GD32VW55x_RELEASE_V1.0.2/MSDK/wpa_supplicant/src/ap\ap_config.c **** 	    !(bss->rsn_pairwise & (WPA_CIPHER_CCMP | WPA_CIPHER_GCMP |
 2549              		.loc 2 1352 26
 2550 01d6 83278416 		lw	a5,360(s0)
 2551 01da C18B     		andi	a5,a5,16
1351:C:/Users/stapi/OneDrive/Desktop/GD32VW553/V1_MQTT_OK/GD32VW55X_Wifi_BLE_SDK/GD32VW55x_RELEASE_V1.0.2/MSDK/wpa_supplicant/src/ap\ap_config.c **** 	    !(bss->wpa_pairwise & WPA_CIPHER_CCMP) &&
 2552              		.loc 2 1351 51
 2553 01dc 99EF     		bne	a5,zero,.L180
1353:C:/Users/stapi/OneDrive/Desktop/GD32VW553/V1_MQTT_OK/GD32VW55X_Wifi_BLE_SDK/GD32VW55x_RELEASE_V1.0.2/MSDK/wpa_supplicant/src/ap\ap_config.c **** 				   WPA_CIPHER_CCMP_256 | WPA_CIPHER_GCMP_256)))
 2554              		.loc 2 1353 26
 2555 01de 83278419 		lw	a5,408(s0)
 2556 01e2 93F70735 		andi	a5,a5,848
1352:C:/Users/stapi/OneDrive/Desktop/GD32VW553/V1_MQTT_OK/GD32VW55X_Wifi_BLE_SDK/GD32VW55x_RELEASE_V1.0.2/MSDK/wpa_supplicant/src/ap\ap_config.c **** 	    !(bss->rsn_pairwise & (WPA_CIPHER_CCMP | WPA_CIPHER_GCMP |
 2557              		.loc 2 1352 45
 2558 01e6 91EB     		bne	a5,zero,.L180
1356:C:/Users/stapi/OneDrive/Desktop/GD32VW553/V1_MQTT_OK/GD32VW55X_Wifi_BLE_SDK/GD32VW55x_RELEASE_V1.0.2/MSDK/wpa_supplicant/src/ap\ap_config.c **** 		wpa_printf(MSG_ERROR,
 2559              		.loc 2 1356 3 is_stmt 1
1356:C:/Users/stapi/OneDrive/Desktop/GD32VW553/V1_MQTT_OK/GD32VW55X_Wifi_BLE_SDK/GD32VW55x_RELEASE_V1.0.2/MSDK/wpa_supplicant/src/ap\ap_config.c **** 		wpa_printf(MSG_ERROR,
 2560              		.loc 2 1356 21 is_stmt 0
 2561 01e8 230D6429 		sb	s6,666(s0)
1357:C:/Users/stapi/OneDrive/Desktop/GD32VW553/V1_MQTT_OK/GD32VW55X_Wifi_BLE_SDK/GD32VW55x_RELEASE_V1.0.2/MSDK/wpa_supplicant/src/ap\ap_config.c **** 			   "HE (IEEE 802.11ax) with WPA/WPA2 requires CCMP/GCMP to be enabled, disabling HE capabilities
 2562              		.loc 2 1357 3 is_stmt 1
 2563 01ec 93850B00 		addi	a1,s7,%lo(.LC20)
 2564 01f0 1545     		li	a0,5
 2565 01f2 97000000 		call	wpa_printf
 2565      E7800000 
 2566              	.LVL263:
 2567              	.L180:
 2568              	.LBE95:
 2569              	.LBE105:
1506:C:/Users/stapi/OneDrive/Desktop/GD32VW553/V1_MQTT_OK/GD32VW55X_Wifi_BLE_SDK/GD32VW55x_RELEASE_V1.0.2/MSDK/wpa_supplicant/src/ap\ap_config.c **** 		if (hostapd_config_check_bss(conf->bss[i], conf, full_config))
 2570              		.loc 2 1506 33 discriminator 2
1506:C:/Users/stapi/OneDrive/Desktop/GD32VW553/V1_MQTT_OK/GD32VW55X_Wifi_BLE_SDK/GD32VW55x_RELEASE_V1.0.2/MSDK/wpa_supplicant/src/ap\ap_config.c **** 		if (hostapd_config_check_bss(conf->bss[i], conf, full_config))
 2571              		.loc 2 1506 34 is_stmt 0 discriminator 2
 2572 01fa 8509     		addi	s3,s3,1
 2573              	.LVL264:
 2574 01fc CDB5     		j	.L178
 2575              	.LVL265:
 2576              	.L192:
 2577              	.LBB106:
 2578              	.LBB96:
 2579              	.LBB90:
1268:C:/Users/stapi/OneDrive/Desktop/GD32VW553/V1_MQTT_OK/GD32VW55X_Wifi_BLE_SDK/GD32VW55x_RELEASE_V1.0.2/MSDK/wpa_supplicant/src/ap\ap_config.c **** 			if (conf->bss[i] != bss &&
 2580              		.loc 2 1268 34 is_stmt 1
1268:C:/Users/stapi/OneDrive/Desktop/GD32VW553/V1_MQTT_OK/GD32VW55X_Wifi_BLE_SDK/GD32VW55x_RELEASE_V1.0.2/MSDK/wpa_supplicant/src/ap\ap_config.c **** 			if (conf->bss[i] != bss &&
 2581              		.loc 2 1268 35 is_stmt 0
 2582 01fe 850A     		addi	s5,s5,1
 2583              	.LVL266:
 2584              	.L190:
1268:C:/Users/stapi/OneDrive/Desktop/GD32VW553/V1_MQTT_OK/GD32VW55X_Wifi_BLE_SDK/GD32VW55x_RELEASE_V1.0.2/MSDK/wpa_supplicant/src/ap\ap_config.c **** 			if (conf->bss[i] != bss &&
 2585              		.loc 2 1268 15 is_stmt 1
1268:C:/Users/stapi/OneDrive/Desktop/GD32VW553/V1_MQTT_OK/GD32VW55X_Wifi_BLE_SDK/GD32VW55x_RELEASE_V1.0.2/MSDK/wpa_supplicant/src/ap\ap_config.c **** 			if (conf->bss[i] != bss &&
 2586              		.loc 2 1268 3 is_stmt 0
 2587 0200 9C44     		lw	a5,8(s1)
 2588 0202 E3FCFAFA 		bgeu	s5,a5,.L191
1269:C:/Users/stapi/OneDrive/Desktop/GD32VW553/V1_MQTT_OK/GD32VW55X_Wifi_BLE_SDK/GD32VW55x_RELEASE_V1.0.2/MSDK/wpa_supplicant/src/ap\ap_config.c **** 			    (hostapd_mac_comp(conf->bss[i]->bssid,
 2589              		.loc 2 1269 4 is_stmt 1
1269:C:/Users/stapi/OneDrive/Desktop/GD32VW553/V1_MQTT_OK/GD32VW55X_Wifi_BLE_SDK/GD32VW55x_RELEASE_V1.0.2/MSDK/wpa_supplicant/src/ap\ap_config.c **** 			    (hostapd_mac_comp(conf->bss[i]->bssid,
 2590              		.loc 2 1269 17 is_stmt 0
 2591 0206 9C40     		lw	a5,0(s1)
 2592 0208 939D2A00 		slli	s11,s5,2
 2593 020c EE97     		add	a5,a5,s11
 2594 020e 8843     		lw	a0,0(a5)
1269:C:/Users/stapi/OneDrive/Desktop/GD32VW553/V1_MQTT_OK/GD32VW55X_Wifi_BLE_SDK/GD32VW55x_RELEASE_V1.0.2/MSDK/wpa_supplicant/src/ap\ap_config.c **** 			    (hostapd_mac_comp(conf->bss[i]->bssid,
 2595              		.loc 2 1269 7
 2596 0210 E307A4FE 		beq	s0,a0,.L192
1270:C:/Users/stapi/OneDrive/Desktop/GD32VW553/V1_MQTT_OK/GD32VW55X_Wifi_BLE_SDK/GD32VW55x_RELEASE_V1.0.2/MSDK/wpa_supplicant/src/ap\ap_config.c **** 					      bss->bssid) == 0)) {
 2597              		.loc 2 1270 9
 2598 0214 EA85     		mv	a1,s10
 2599 0216 1305C526 		addi	a0,a0,620
 2600 021a 97000000 		call	hostapd_mac_comp
 2600      E7800000 
 2601              	.LVL267:
1269:C:/Users/stapi/OneDrive/Desktop/GD32VW553/V1_MQTT_OK/GD32VW55X_Wifi_BLE_SDK/GD32VW55x_RELEASE_V1.0.2/MSDK/wpa_supplicant/src/ap\ap_config.c **** 			    (hostapd_mac_comp(conf->bss[i]->bssid,
 2602              		.loc 2 1269 28
 2603 0222 71FD     		bne	a0,zero,.L192
1272:C:/Users/stapi/OneDrive/Desktop/GD32VW553/V1_MQTT_OK/GD32VW55X_Wifi_BLE_SDK/GD32VW55x_RELEASE_V1.0.2/MSDK/wpa_supplicant/src/ap\ap_config.c **** 					   " on interface '%s' and '%s'.",
 2604              		.loc 2 1272 5 is_stmt 1
1275:C:/Users/stapi/OneDrive/Desktop/GD32VW553/V1_MQTT_OK/GD32VW55X_Wifi_BLE_SDK/GD32VW55x_RELEASE_V1.0.2/MSDK/wpa_supplicant/src/ap\ap_config.c **** 				return -1;
 2605              		.loc 2 1275 18 is_stmt 0
 2606 0224 8C40     		lw	a1,0(s1)
1272:C:/Users/stapi/OneDrive/Desktop/GD32VW553/V1_MQTT_OK/GD32VW55X_Wifi_BLE_SDK/GD32VW55x_RELEASE_V1.0.2/MSDK/wpa_supplicant/src/ap\ap_config.c **** 					   " on interface '%s' and '%s'.",
 2607              		.loc 2 1272 5
 2608 0226 83481427 		lbu	a7,625(s0)
 2609 022a 03480427 		lbu	a6,624(s0)
 2610 022e 8347F426 		lbu	a5,623(s0)
 2611 0232 0347E426 		lbu	a4,622(s0)
 2612 0236 8346D426 		lbu	a3,621(s0)
 2613 023a 0346C426 		lbu	a2,620(s0)
1275:C:/Users/stapi/OneDrive/Desktop/GD32VW553/V1_MQTT_OK/GD32VW55X_Wifi_BLE_SDK/GD32VW55x_RELEASE_V1.0.2/MSDK/wpa_supplicant/src/ap\ap_config.c **** 				return -1;
 2614              		.loc 2 1275 18
 2615 023e EE95     		add	a1,a1,s11
1272:C:/Users/stapi/OneDrive/Desktop/GD32VW553/V1_MQTT_OK/GD32VW55X_Wifi_BLE_SDK/GD32VW55x_RELEASE_V1.0.2/MSDK/wpa_supplicant/src/ap\ap_config.c **** 					   " on interface '%s' and '%s'.",
 2616              		.loc 2 1272 5
 2617 0240 22C2     		sw	s0,4(sp)
 2618 0242 8C41     		lw	a1,0(a1)
 2619 0244 1545     		li	a0,5
 2620 0246 2EC0     		sw	a1,0(sp)
 2621 0248 B7050000 		lui	a1,%hi(.LC17)
 2622 024c 93850500 		addi	a1,a1,%lo(.LC17)
 2623 0250 97000000 		call	wpa_printf
 2623      E7800000 
 2624              	.LVL268:
 2625 0258 A9BD     		j	.L240
 2626              	.LVL269:
 2627              	.L204:
1268:C:/Users/stapi/OneDrive/Desktop/GD32VW553/V1_MQTT_OK/GD32VW55X_Wifi_BLE_SDK/GD32VW55x_RELEASE_V1.0.2/MSDK/wpa_supplicant/src/ap\ap_config.c **** 			if (conf->bss[i] != bss &&
 2628              		.loc 2 1268 10
 2629 025a 814A     		li	s5,0
 2630 025c 55B7     		j	.L190
 2631              	.L194:
 2632              	.LBE90:
1295:C:/Users/stapi/OneDrive/Desktop/GD32VW553/V1_MQTT_OK/GD32VW55X_Wifi_BLE_SDK/GD32VW55x_RELEASE_V1.0.2/MSDK/wpa_supplicant/src/ap\ap_config.c **** 		wpa_printf(MSG_ERROR, "HT (IEEE 802.11n) in 11b mode is not "
 2633              		.loc 2 1295 3 is_stmt 1
1295:C:/Users/stapi/OneDrive/Desktop/GD32VW553/V1_MQTT_OK/GD32VW55X_Wifi_BLE_SDK/GD32VW55x_RELEASE_V1.0.2/MSDK/wpa_supplicant/src/ap\ap_config.c **** 		wpa_printf(MSG_ERROR, "HT (IEEE 802.11n) in 11b mode is not "
 2634              		.loc 2 1295 20 is_stmt 0
 2635 025e 230C6429 		sb	s6,664(s0)
1296:C:/Users/stapi/OneDrive/Desktop/GD32VW553/V1_MQTT_OK/GD32VW55X_Wifi_BLE_SDK/GD32VW55x_RELEASE_V1.0.2/MSDK/wpa_supplicant/src/ap\ap_config.c **** 			   "allowed, disabling HT capabilities");
 2636              		.loc 2 1296 3 is_stmt 1
 2637 0262 93050C00 		addi	a1,s8,%lo(.LC18)
 2638 0266 1545     		li	a0,5
 2639 0268 97000000 		call	wpa_printf
 2639      E7800000 
 2640              	.LVL270:
1309:C:/Users/stapi/OneDrive/Desktop/GD32VW553/V1_MQTT_OK/GD32VW55X_Wifi_BLE_SDK/GD32VW55x_RELEASE_V1.0.2/MSDK/wpa_supplicant/src/ap\ap_config.c **** 	    !(bss->wpa_pairwise & WPA_CIPHER_CCMP) &&
 2641              		.loc 2 1309 2
1309:C:/Users/stapi/OneDrive/Desktop/GD32VW553/V1_MQTT_OK/GD32VW55X_Wifi_BLE_SDK/GD32VW55x_RELEASE_V1.0.2/MSDK/wpa_supplicant/src/ap\ap_config.c **** 	    !(bss->wpa_pairwise & WPA_CIPHER_CCMP) &&
 2642              		.loc 2 1309 18 is_stmt 0
 2643 0270 83A70412 		lw	a5,288(s1)
 2644 0274 A1FB     		bne	a5,zero,.L197
 2645 0276 91BF     		j	.L198
 2646              	.L195:
1310:C:/Users/stapi/OneDrive/Desktop/GD32VW553/V1_MQTT_OK/GD32VW55X_Wifi_BLE_SDK/GD32VW55x_RELEASE_V1.0.2/MSDK/wpa_supplicant/src/ap\ap_config.c **** 	    !(bss->rsn_pairwise & (WPA_CIPHER_CCMP | WPA_CIPHER_GCMP |
 2647              		.loc 2 1310 26
 2648 0278 83278416 		lw	a5,360(s0)
 2649 027c C18B     		andi	a5,a5,16
1309:C:/Users/stapi/OneDrive/Desktop/GD32VW553/V1_MQTT_OK/GD32VW55X_Wifi_BLE_SDK/GD32VW55x_RELEASE_V1.0.2/MSDK/wpa_supplicant/src/ap\ap_config.c **** 	    !(bss->wpa_pairwise & WPA_CIPHER_CCMP) &&
 2650              		.loc 2 1309 50
 2651 027e B1F7     		bne	a5,zero,.L198
1311:C:/Users/stapi/OneDrive/Desktop/GD32VW553/V1_MQTT_OK/GD32VW55X_Wifi_BLE_SDK/GD32VW55x_RELEASE_V1.0.2/MSDK/wpa_supplicant/src/ap\ap_config.c **** 				   WPA_CIPHER_CCMP_256 | WPA_CIPHER_GCMP_256)))
 2652              		.loc 2 1311 26
 2653 0280 83278419 		lw	a5,408(s0)
 2654 0284 93F70735 		andi	a5,a5,848
1310:C:/Users/stapi/OneDrive/Desktop/GD32VW553/V1_MQTT_OK/GD32VW55X_Wifi_BLE_SDK/GD32VW55x_RELEASE_V1.0.2/MSDK/wpa_supplicant/src/ap\ap_config.c **** 	    !(bss->rsn_pairwise & (WPA_CIPHER_CCMP | WPA_CIPHER_GCMP |
 2655              		.loc 2 1310 45
 2656 0288 A9F3     		bne	a5,zero,.L198
1314:C:/Users/stapi/OneDrive/Desktop/GD32VW553/V1_MQTT_OK/GD32VW55X_Wifi_BLE_SDK/GD32VW55x_RELEASE_V1.0.2/MSDK/wpa_supplicant/src/ap\ap_config.c **** 		wpa_printf(MSG_ERROR, "HT (IEEE 802.11n) with WPA/WPA2 "
 2657              		.loc 2 1314 3 is_stmt 1
1314:C:/Users/stapi/OneDrive/Desktop/GD32VW553/V1_MQTT_OK/GD32VW55X_Wifi_BLE_SDK/GD32VW55x_RELEASE_V1.0.2/MSDK/wpa_supplicant/src/ap\ap_config.c **** 		wpa_printf(MSG_ERROR, "HT (IEEE 802.11n) with WPA/WPA2 "
 2658              		.loc 2 1314 20 is_stmt 0
 2659 028a 230C6429 		sb	s6,664(s0)
1315:C:/Users/stapi/OneDrive/Desktop/GD32VW553/V1_MQTT_OK/GD32VW55X_Wifi_BLE_SDK/GD32VW55x_RELEASE_V1.0.2/MSDK/wpa_supplicant/src/ap\ap_config.c **** 			   "requires CCMP/GCMP to be enabled, disabling HT "
 2660              		.loc 2 1315 3 is_stmt 1
 2661 028e 93850C00 		addi	a1,s9,%lo(.LC19)
 2662 0292 1545     		li	a0,5
 2663 0294 97000000 		call	wpa_printf
 2663      E7800000 
 2664              	.LVL271:
 2665 029c 3DB7     		j	.L198
 2666              	.L181:
1220:C:/Users/stapi/OneDrive/Desktop/GD32VW553/V1_MQTT_OK/GD32VW55X_Wifi_BLE_SDK/GD32VW55x_RELEASE_V1.0.2/MSDK/wpa_supplicant/src/ap\ap_config.c **** 	    !bss->radius->auth_servers) {
 2667              		.loc 2 1220 2
1220:C:/Users/stapi/OneDrive/Desktop/GD32VW553/V1_MQTT_OK/GD32VW55X_Wifi_BLE_SDK/GD32VW55x_RELEASE_V1.0.2/MSDK/wpa_supplicant/src/ap\ap_config.c **** 	    !bss->radius->auth_servers) {
 2668              		.loc 2 1220 18 is_stmt 0
 2669 029e 5C5C     		lw	a5,60(s0)
 2670 02a0 E39107EC 		bne	a5,zero,.L203
 2671              	.L186:
1247:C:/Users/stapi/OneDrive/Desktop/GD32VW553/V1_MQTT_OK/GD32VW55X_Wifi_BLE_SDK/GD32VW55x_RELEASE_V1.0.2/MSDK/wpa_supplicant/src/ap\ap_config.c **** 	    bss->wpa_psk_radius != PSK_RADIUS_IGNORED &&
 2672              		.loc 2 1247 2 is_stmt 1
1247:C:/Users/stapi/OneDrive/Desktop/GD32VW553/V1_MQTT_OK/GD32VW55X_Wifi_BLE_SDK/GD32VW55x_RELEASE_V1.0.2/MSDK/wpa_supplicant/src/ap\ap_config.c **** 	    bss->wpa_psk_radius != PSK_RADIUS_IGNORED &&
 2673              		.loc 2 1247 18 is_stmt 0
 2674 02a4 83274414 		lw	a5,324(s0)
 2675 02a8 89D3     		beq	a5,zero,.L187
1247:C:/Users/stapi/OneDrive/Desktop/GD32VW553/V1_MQTT_OK/GD32VW55X_Wifi_BLE_SDK/GD32VW55x_RELEASE_V1.0.2/MSDK/wpa_supplicant/src/ap\ap_config.c **** 	    bss->wpa_psk_radius != PSK_RADIUS_IGNORED &&
 2676              		.loc 2 1247 30
 2677 02aa 03274416 		lw	a4,356(s0)
 2678 02ae E30607EC 		beq	a4,zero,.L188
1248:C:/Users/stapi/OneDrive/Desktop/GD32VW553/V1_MQTT_OK/GD32VW55X_Wifi_BLE_SDK/GD32VW55x_RELEASE_V1.0.2/MSDK/wpa_supplicant/src/ap\ap_config.c **** 	    bss->macaddr_acl != USE_EXTERNAL_RADIUS_AUTH) {
 2679              		.loc 2 1248 48
 2680 02b2 83270412 		lw	a5,288(s0)
 2681 02b6 E38227ED 		beq	a5,s2,.L188
1250:C:/Users/stapi/OneDrive/Desktop/GD32VW553/V1_MQTT_OK/GD32VW55X_Wifi_BLE_SDK/GD32VW55x_RELEASE_V1.0.2/MSDK/wpa_supplicant/src/ap\ap_config.c **** 			   "RADIUS checking (macaddr_acl=2) enabled.");
 2682              		.loc 2 1250 3 is_stmt 1
 2683 02ba B7050000 		lui	a1,%hi(.LC15)
 2684 02be 93850500 		addi	a1,a1,%lo(.LC15)
 2685 02c2 9DB3     		j	.L241
 2686              	.LBE96:
 2687              	.LBE106:
 2688              		.cfi_endproc
 2689              	.LFE165:
 2691              		.section	.text.hostapd_set_security_params,"ax",@progbits
 2692              		.align	1
 2693              		.globl	hostapd_set_security_params
 2695              	hostapd_set_security_params:
 2696              	.LFB166:
1513:C:/Users/stapi/OneDrive/Desktop/GD32VW553/V1_MQTT_OK/GD32VW55X_Wifi_BLE_SDK/GD32VW55x_RELEASE_V1.0.2/MSDK/wpa_supplicant/src/ap\ap_config.c **** 
1514:C:/Users/stapi/OneDrive/Desktop/GD32VW553/V1_MQTT_OK/GD32VW55X_Wifi_BLE_SDK/GD32VW55x_RELEASE_V1.0.2/MSDK/wpa_supplicant/src/ap\ap_config.c **** 
1515:C:/Users/stapi/OneDrive/Desktop/GD32VW553/V1_MQTT_OK/GD32VW55X_Wifi_BLE_SDK/GD32VW55x_RELEASE_V1.0.2/MSDK/wpa_supplicant/src/ap\ap_config.c **** void hostapd_set_security_params(struct hostapd_bss_config *bss,
1516:C:/Users/stapi/OneDrive/Desktop/GD32VW553/V1_MQTT_OK/GD32VW55X_Wifi_BLE_SDK/GD32VW55x_RELEASE_V1.0.2/MSDK/wpa_supplicant/src/ap\ap_config.c **** 				 int full_config)
1517:C:/Users/stapi/OneDrive/Desktop/GD32VW553/V1_MQTT_OK/GD32VW55X_Wifi_BLE_SDK/GD32VW55x_RELEASE_V1.0.2/MSDK/wpa_supplicant/src/ap\ap_config.c **** {
 2697              		.loc 2 1517 1
 2698              		.cfi_startproc
 2699              	.LVL272:
 2700 0000 17030000 		call	t0,__riscv_save_2
 2700      E7020300 
 2701              		.cfi_offset 9, -12
 2702              		.cfi_offset 8, -8
 2703              		.cfi_offset 1, -4
 2704              		.cfi_def_cfa_offset 16
1518:C:/Users/stapi/OneDrive/Desktop/GD32VW553/V1_MQTT_OK/GD32VW55X_Wifi_BLE_SDK/GD32VW55x_RELEASE_V1.0.2/MSDK/wpa_supplicant/src/ap\ap_config.c **** #ifdef CONFIG_WEP
1519:C:/Users/stapi/OneDrive/Desktop/GD32VW553/V1_MQTT_OK/GD32VW55X_Wifi_BLE_SDK/GD32VW55x_RELEASE_V1.0.2/MSDK/wpa_supplicant/src/ap\ap_config.c **** 	if (bss->individual_wep_key_len == 0) {
1520:C:/Users/stapi/OneDrive/Desktop/GD32VW553/V1_MQTT_OK/GD32VW55X_Wifi_BLE_SDK/GD32VW55x_RELEASE_V1.0.2/MSDK/wpa_supplicant/src/ap\ap_config.c **** 		/* individual keys are not use; can use key idx0 for
1521:C:/Users/stapi/OneDrive/Desktop/GD32VW553/V1_MQTT_OK/GD32VW55X_Wifi_BLE_SDK/GD32VW55x_RELEASE_V1.0.2/MSDK/wpa_supplicant/src/ap\ap_config.c **** 		 * broadcast keys */
1522:C:/Users/stapi/OneDrive/Desktop/GD32VW553/V1_MQTT_OK/GD32VW55X_Wifi_BLE_SDK/GD32VW55x_RELEASE_V1.0.2/MSDK/wpa_supplicant/src/ap\ap_config.c **** 		bss->broadcast_key_idx_min = 0;
1523:C:/Users/stapi/OneDrive/Desktop/GD32VW553/V1_MQTT_OK/GD32VW55X_Wifi_BLE_SDK/GD32VW55x_RELEASE_V1.0.2/MSDK/wpa_supplicant/src/ap\ap_config.c **** 	}
1524:C:/Users/stapi/OneDrive/Desktop/GD32VW553/V1_MQTT_OK/GD32VW55X_Wifi_BLE_SDK/GD32VW55x_RELEASE_V1.0.2/MSDK/wpa_supplicant/src/ap\ap_config.c **** #endif /* CONFIG_WEP */
1525:C:/Users/stapi/OneDrive/Desktop/GD32VW553/V1_MQTT_OK/GD32VW55X_Wifi_BLE_SDK/GD32VW55x_RELEASE_V1.0.2/MSDK/wpa_supplicant/src/ap\ap_config.c **** 
1526:C:/Users/stapi/OneDrive/Desktop/GD32VW553/V1_MQTT_OK/GD32VW55X_Wifi_BLE_SDK/GD32VW55x_RELEASE_V1.0.2/MSDK/wpa_supplicant/src/ap\ap_config.c **** 	if ((bss->wpa & 2) && bss->rsn_pairwise == 0)
 2705              		.loc 2 1526 2
1517:C:/Users/stapi/OneDrive/Desktop/GD32VW553/V1_MQTT_OK/GD32VW55X_Wifi_BLE_SDK/GD32VW55x_RELEASE_V1.0.2/MSDK/wpa_supplicant/src/ap\ap_config.c **** #ifdef CONFIG_WEP
 2706              		.loc 2 1517 1 is_stmt 0
 2707 0008 2A84     		mv	s0,a0
 2708              		.loc 2 1526 10
 2709 000a 03254514 		lw	a0,324(a0)
 2710              	.LVL273:
1517:C:/Users/stapi/OneDrive/Desktop/GD32VW553/V1_MQTT_OK/GD32VW55X_Wifi_BLE_SDK/GD32VW55x_RELEASE_V1.0.2/MSDK/wpa_supplicant/src/ap\ap_config.c **** #ifdef CONFIG_WEP
 2711              		.loc 2 1517 1
 2712 000e AE84     		mv	s1,a1
 2713              		.loc 2 1526 16
 2714 0010 93772500 		andi	a5,a0,2
 2715              		.loc 2 1526 5
 2716 0014 81CB     		beq	a5,zero,.L244
 2717              		.loc 2 1526 21 discriminator 1
 2718 0016 83278419 		lw	a5,408(s0)
 2719 001a 89E7     		bne	a5,zero,.L244
1527:C:/Users/stapi/OneDrive/Desktop/GD32VW553/V1_MQTT_OK/GD32VW55X_Wifi_BLE_SDK/GD32VW55x_RELEASE_V1.0.2/MSDK/wpa_supplicant/src/ap\ap_config.c **** 		bss->rsn_pairwise = bss->wpa_pairwise;
 2720              		.loc 2 1527 3 is_stmt 1
 2721              		.loc 2 1527 21 is_stmt 0
 2722 001c 83278416 		lw	a5,360(s0)
 2723 0020 232CF418 		sw	a5,408(s0)
 2724              	.L244:
1528:C:/Users/stapi/OneDrive/Desktop/GD32VW553/V1_MQTT_OK/GD32VW55X_Wifi_BLE_SDK/GD32VW55x_RELEASE_V1.0.2/MSDK/wpa_supplicant/src/ap\ap_config.c **** 	if (bss->group_cipher)
 2725              		.loc 2 1528 2 is_stmt 1
 2726              		.loc 2 1528 9 is_stmt 0
 2727 0024 8327C416 		lw	a5,364(s0)
 2728              		.loc 2 1528 5
 2729 0028 A1C7     		beq	a5,zero,.L245
1529:C:/Users/stapi/OneDrive/Desktop/GD32VW553/V1_MQTT_OK/GD32VW55X_Wifi_BLE_SDK/GD32VW55x_RELEASE_V1.0.2/MSDK/wpa_supplicant/src/ap\ap_config.c **** 		bss->wpa_group = bss->group_cipher;
 2730              		.loc 2 1529 3 is_stmt 1
 2731              		.loc 2 1529 18 is_stmt 0
 2732 002a 2328F416 		sw	a5,368(s0)
 2733              	.LVL274:
 2734              	.L246:
1530:C:/Users/stapi/OneDrive/Desktop/GD32VW553/V1_MQTT_OK/GD32VW55X_Wifi_BLE_SDK/GD32VW55x_RELEASE_V1.0.2/MSDK/wpa_supplicant/src/ap\ap_config.c **** 	else
1531:C:/Users/stapi/OneDrive/Desktop/GD32VW553/V1_MQTT_OK/GD32VW55X_Wifi_BLE_SDK/GD32VW55x_RELEASE_V1.0.2/MSDK/wpa_supplicant/src/ap\ap_config.c **** 		bss->wpa_group = wpa_select_ap_group_cipher(bss->wpa,
1532:C:/Users/stapi/OneDrive/Desktop/GD32VW553/V1_MQTT_OK/GD32VW55X_Wifi_BLE_SDK/GD32VW55x_RELEASE_V1.0.2/MSDK/wpa_supplicant/src/ap\ap_config.c **** 							    bss->wpa_pairwise,
1533:C:/Users/stapi/OneDrive/Desktop/GD32VW553/V1_MQTT_OK/GD32VW55X_Wifi_BLE_SDK/GD32VW55x_RELEASE_V1.0.2/MSDK/wpa_supplicant/src/ap\ap_config.c **** 							    bss->rsn_pairwise);
1534:C:/Users/stapi/OneDrive/Desktop/GD32VW553/V1_MQTT_OK/GD32VW55X_Wifi_BLE_SDK/GD32VW55x_RELEASE_V1.0.2/MSDK/wpa_supplicant/src/ap\ap_config.c **** 	if (!bss->wpa_group_rekey_set)
 2735              		.loc 2 1534 2 is_stmt 1
 2736              		.loc 2 1534 5 is_stmt 0
 2737 002e 83278417 		lw	a5,376(s0)
 2738 0032 89EF     		bne	a5,zero,.L247
1535:C:/Users/stapi/OneDrive/Desktop/GD32VW553/V1_MQTT_OK/GD32VW55X_Wifi_BLE_SDK/GD32VW55x_RELEASE_V1.0.2/MSDK/wpa_supplicant/src/ap\ap_config.c **** 		bss->wpa_group_rekey = bss->wpa_group == WPA_CIPHER_TKIP ?
 2739              		.loc 2 1535 3 is_stmt 1
1536:C:/Users/stapi/OneDrive/Desktop/GD32VW553/V1_MQTT_OK/GD32VW55X_Wifi_BLE_SDK/GD32VW55x_RELEASE_V1.0.2/MSDK/wpa_supplicant/src/ap\ap_config.c **** 			600 : 86400;
 2740              		.loc 2 1536 8 is_stmt 0
 2741 0034 83260417 		lw	a3,368(s0)
 2742 0038 2147     		li	a4,8
 2743 003a 93078025 		li	a5,600
 2744 003e 6385E600 		beq	a3,a4,.L248
 2745 0042 D567     		li	a5,86016
 2746 0044 93870718 		addi	a5,a5,384
 2747              	.L248:
1535:C:/Users/stapi/OneDrive/Desktop/GD32VW553/V1_MQTT_OK/GD32VW55X_Wifi_BLE_SDK/GD32VW55x_RELEASE_V1.0.2/MSDK/wpa_supplicant/src/ap\ap_config.c **** 		bss->wpa_group_rekey = bss->wpa_group == WPA_CIPHER_TKIP ?
 2748              		.loc 2 1535 24
 2749 0048 232AF416 		sw	a5,372(s0)
 2750              	.L247:
1537:C:/Users/stapi/OneDrive/Desktop/GD32VW553/V1_MQTT_OK/GD32VW55X_Wifi_BLE_SDK/GD32VW55x_RELEASE_V1.0.2/MSDK/wpa_supplicant/src/ap\ap_config.c **** 
1538:C:/Users/stapi/OneDrive/Desktop/GD32VW553/V1_MQTT_OK/GD32VW55X_Wifi_BLE_SDK/GD32VW55x_RELEASE_V1.0.2/MSDK/wpa_supplicant/src/ap\ap_config.c **** 	if (full_config) {
 2751              		.loc 2 1538 2 is_stmt 1
 2752              		.loc 2 1538 5 is_stmt 0
 2753 004c 91C4     		beq	s1,zero,.L249
1539:C:/Users/stapi/OneDrive/Desktop/GD32VW553/V1_MQTT_OK/GD32VW55X_Wifi_BLE_SDK/GD32VW55x_RELEASE_V1.0.2/MSDK/wpa_supplicant/src/ap\ap_config.c **** 		bss->radius->auth_server = bss->radius->auth_servers;
 2754              		.loc 2 1539 3 is_stmt 1
 2755              		.loc 2 1539 33 is_stmt 0
 2756 004e 7C58     		lw	a5,116(s0)
 2757              		.loc 2 1539 28
 2758 0050 9843     		lw	a4,0(a5)
 2759 0052 98C7     		sw	a4,8(a5)
1540:C:/Users/stapi/OneDrive/Desktop/GD32VW553/V1_MQTT_OK/GD32VW55X_Wifi_BLE_SDK/GD32VW55x_RELEASE_V1.0.2/MSDK/wpa_supplicant/src/ap\ap_config.c **** 		bss->radius->acct_server = bss->radius->acct_servers;
 2760              		.loc 2 1540 3 is_stmt 1
 2761              		.loc 2 1540 28 is_stmt 0
 2762 0054 D847     		lw	a4,12(a5)
 2763 0056 D8CB     		sw	a4,20(a5)
 2764              	.L249:
1541:C:/Users/stapi/OneDrive/Desktop/GD32VW553/V1_MQTT_OK/GD32VW55X_Wifi_BLE_SDK/GD32VW55x_RELEASE_V1.0.2/MSDK/wpa_supplicant/src/ap\ap_config.c **** 	}
1542:C:/Users/stapi/OneDrive/Desktop/GD32VW553/V1_MQTT_OK/GD32VW55X_Wifi_BLE_SDK/GD32VW55x_RELEASE_V1.0.2/MSDK/wpa_supplicant/src/ap\ap_config.c **** 
1543:C:/Users/stapi/OneDrive/Desktop/GD32VW553/V1_MQTT_OK/GD32VW55X_Wifi_BLE_SDK/GD32VW55x_RELEASE_V1.0.2/MSDK/wpa_supplicant/src/ap\ap_config.c **** 	if (bss->wpa && bss->ieee802_1x) {
 2765              		.loc 2 1543 2 is_stmt 1
 2766              		.loc 2 1543 5 is_stmt 0
 2767 0058 03274414 		lw	a4,324(s0)
 2768              		.loc 2 1543 21
 2769 005c 5C5C     		lw	a5,60(s0)
 2770              		.loc 2 1543 5
 2771 005e 15C7     		beq	a4,zero,.L250
 2772              		.loc 2 1543 15 discriminator 1
 2773 0060 9DC3     		beq	a5,zero,.L251
1544:C:/Users/stapi/OneDrive/Desktop/GD32VW553/V1_MQTT_OK/GD32VW55X_Wifi_BLE_SDK/GD32VW55x_RELEASE_V1.0.2/MSDK/wpa_supplicant/src/ap\ap_config.c **** 		bss->ssid.security_policy = SECURITY_WPA;
 2774              		.loc 2 1544 3 is_stmt 1
 2775              		.loc 2 1544 29 is_stmt 0
 2776 0062 9147     		li	a5,4
 2777              	.L268:
1545:C:/Users/stapi/OneDrive/Desktop/GD32VW553/V1_MQTT_OK/GD32VW55X_Wifi_BLE_SDK/GD32VW55x_RELEASE_V1.0.2/MSDK/wpa_supplicant/src/ap\ap_config.c **** 	} else if (bss->wpa) {
1546:C:/Users/stapi/OneDrive/Desktop/GD32VW553/V1_MQTT_OK/GD32VW55X_Wifi_BLE_SDK/GD32VW55x_RELEASE_V1.0.2/MSDK/wpa_supplicant/src/ap\ap_config.c **** 		bss->ssid.security_policy = SECURITY_WPA_PSK;
 2778              		.loc 2 1546 29
 2779 0064 2324F40E 		sw	a5,232(s0)
 2780              	.L243:
1547:C:/Users/stapi/OneDrive/Desktop/GD32VW553/V1_MQTT_OK/GD32VW55X_Wifi_BLE_SDK/GD32VW55x_RELEASE_V1.0.2/MSDK/wpa_supplicant/src/ap\ap_config.c **** 	} else if (bss->ieee802_1x) {
1548:C:/Users/stapi/OneDrive/Desktop/GD32VW553/V1_MQTT_OK/GD32VW55X_Wifi_BLE_SDK/GD32VW55x_RELEASE_V1.0.2/MSDK/wpa_supplicant/src/ap\ap_config.c **** 		int cipher = WPA_CIPHER_NONE;
1549:C:/Users/stapi/OneDrive/Desktop/GD32VW553/V1_MQTT_OK/GD32VW55X_Wifi_BLE_SDK/GD32VW55x_RELEASE_V1.0.2/MSDK/wpa_supplicant/src/ap\ap_config.c **** 		bss->ssid.security_policy = SECURITY_IEEE_802_1X;
1550:C:/Users/stapi/OneDrive/Desktop/GD32VW553/V1_MQTT_OK/GD32VW55X_Wifi_BLE_SDK/GD32VW55x_RELEASE_V1.0.2/MSDK/wpa_supplicant/src/ap\ap_config.c **** #ifdef CONFIG_WEP
1551:C:/Users/stapi/OneDrive/Desktop/GD32VW553/V1_MQTT_OK/GD32VW55X_Wifi_BLE_SDK/GD32VW55x_RELEASE_V1.0.2/MSDK/wpa_supplicant/src/ap\ap_config.c **** 		bss->ssid.wep.default_len = bss->default_wep_key_len;
1552:C:/Users/stapi/OneDrive/Desktop/GD32VW553/V1_MQTT_OK/GD32VW55X_Wifi_BLE_SDK/GD32VW55x_RELEASE_V1.0.2/MSDK/wpa_supplicant/src/ap\ap_config.c **** 		if (full_config && bss->default_wep_key_len) {
1553:C:/Users/stapi/OneDrive/Desktop/GD32VW553/V1_MQTT_OK/GD32VW55X_Wifi_BLE_SDK/GD32VW55x_RELEASE_V1.0.2/MSDK/wpa_supplicant/src/ap\ap_config.c **** 			cipher = bss->default_wep_key_len >= 13 ?
1554:C:/Users/stapi/OneDrive/Desktop/GD32VW553/V1_MQTT_OK/GD32VW55X_Wifi_BLE_SDK/GD32VW55x_RELEASE_V1.0.2/MSDK/wpa_supplicant/src/ap\ap_config.c **** 				WPA_CIPHER_WEP104 : WPA_CIPHER_WEP40;
1555:C:/Users/stapi/OneDrive/Desktop/GD32VW553/V1_MQTT_OK/GD32VW55X_Wifi_BLE_SDK/GD32VW55x_RELEASE_V1.0.2/MSDK/wpa_supplicant/src/ap\ap_config.c **** 		} else if (full_config && bss->ssid.wep.keys_set) {
1556:C:/Users/stapi/OneDrive/Desktop/GD32VW553/V1_MQTT_OK/GD32VW55X_Wifi_BLE_SDK/GD32VW55x_RELEASE_V1.0.2/MSDK/wpa_supplicant/src/ap\ap_config.c **** 			if (bss->ssid.wep.len[0] >= 13)
1557:C:/Users/stapi/OneDrive/Desktop/GD32VW553/V1_MQTT_OK/GD32VW55X_Wifi_BLE_SDK/GD32VW55x_RELEASE_V1.0.2/MSDK/wpa_supplicant/src/ap\ap_config.c **** 				cipher = WPA_CIPHER_WEP104;
1558:C:/Users/stapi/OneDrive/Desktop/GD32VW553/V1_MQTT_OK/GD32VW55X_Wifi_BLE_SDK/GD32VW55x_RELEASE_V1.0.2/MSDK/wpa_supplicant/src/ap\ap_config.c **** 			else
1559:C:/Users/stapi/OneDrive/Desktop/GD32VW553/V1_MQTT_OK/GD32VW55X_Wifi_BLE_SDK/GD32VW55x_RELEASE_V1.0.2/MSDK/wpa_supplicant/src/ap\ap_config.c **** 				cipher = WPA_CIPHER_WEP40;
1560:C:/Users/stapi/OneDrive/Desktop/GD32VW553/V1_MQTT_OK/GD32VW55X_Wifi_BLE_SDK/GD32VW55x_RELEASE_V1.0.2/MSDK/wpa_supplicant/src/ap\ap_config.c **** 		}
1561:C:/Users/stapi/OneDrive/Desktop/GD32VW553/V1_MQTT_OK/GD32VW55X_Wifi_BLE_SDK/GD32VW55x_RELEASE_V1.0.2/MSDK/wpa_supplicant/src/ap\ap_config.c **** #endif /* CONFIG_WEP */
1562:C:/Users/stapi/OneDrive/Desktop/GD32VW553/V1_MQTT_OK/GD32VW55X_Wifi_BLE_SDK/GD32VW55x_RELEASE_V1.0.2/MSDK/wpa_supplicant/src/ap\ap_config.c **** 		bss->wpa_group = cipher;
1563:C:/Users/stapi/OneDrive/Desktop/GD32VW553/V1_MQTT_OK/GD32VW55X_Wifi_BLE_SDK/GD32VW55x_RELEASE_V1.0.2/MSDK/wpa_supplicant/src/ap\ap_config.c **** 		bss->wpa_pairwise = cipher;
1564:C:/Users/stapi/OneDrive/Desktop/GD32VW553/V1_MQTT_OK/GD32VW55X_Wifi_BLE_SDK/GD32VW55x_RELEASE_V1.0.2/MSDK/wpa_supplicant/src/ap\ap_config.c **** 		bss->rsn_pairwise = cipher;
1565:C:/Users/stapi/OneDrive/Desktop/GD32VW553/V1_MQTT_OK/GD32VW55X_Wifi_BLE_SDK/GD32VW55x_RELEASE_V1.0.2/MSDK/wpa_supplicant/src/ap\ap_config.c **** 		if (full_config)
1566:C:/Users/stapi/OneDrive/Desktop/GD32VW553/V1_MQTT_OK/GD32VW55X_Wifi_BLE_SDK/GD32VW55x_RELEASE_V1.0.2/MSDK/wpa_supplicant/src/ap\ap_config.c **** 			bss->wpa_key_mgmt = WPA_KEY_MGMT_IEEE8021X_NO_WPA;
1567:C:/Users/stapi/OneDrive/Desktop/GD32VW553/V1_MQTT_OK/GD32VW55X_Wifi_BLE_SDK/GD32VW55x_RELEASE_V1.0.2/MSDK/wpa_supplicant/src/ap\ap_config.c **** #ifdef CONFIG_WEP
1568:C:/Users/stapi/OneDrive/Desktop/GD32VW553/V1_MQTT_OK/GD32VW55X_Wifi_BLE_SDK/GD32VW55x_RELEASE_V1.0.2/MSDK/wpa_supplicant/src/ap\ap_config.c **** 	} else if (bss->ssid.wep.keys_set) {
1569:C:/Users/stapi/OneDrive/Desktop/GD32VW553/V1_MQTT_OK/GD32VW55X_Wifi_BLE_SDK/GD32VW55x_RELEASE_V1.0.2/MSDK/wpa_supplicant/src/ap\ap_config.c **** 		int cipher = WPA_CIPHER_WEP40;
1570:C:/Users/stapi/OneDrive/Desktop/GD32VW553/V1_MQTT_OK/GD32VW55X_Wifi_BLE_SDK/GD32VW55x_RELEASE_V1.0.2/MSDK/wpa_supplicant/src/ap\ap_config.c **** 		if (bss->ssid.wep.len[0] >= 13)
1571:C:/Users/stapi/OneDrive/Desktop/GD32VW553/V1_MQTT_OK/GD32VW55X_Wifi_BLE_SDK/GD32VW55x_RELEASE_V1.0.2/MSDK/wpa_supplicant/src/ap\ap_config.c **** 			cipher = WPA_CIPHER_WEP104;
1572:C:/Users/stapi/OneDrive/Desktop/GD32VW553/V1_MQTT_OK/GD32VW55X_Wifi_BLE_SDK/GD32VW55x_RELEASE_V1.0.2/MSDK/wpa_supplicant/src/ap\ap_config.c **** 		bss->ssid.security_policy = SECURITY_STATIC_WEP;
1573:C:/Users/stapi/OneDrive/Desktop/GD32VW553/V1_MQTT_OK/GD32VW55X_Wifi_BLE_SDK/GD32VW55x_RELEASE_V1.0.2/MSDK/wpa_supplicant/src/ap\ap_config.c **** 		bss->wpa_group = cipher;
1574:C:/Users/stapi/OneDrive/Desktop/GD32VW553/V1_MQTT_OK/GD32VW55X_Wifi_BLE_SDK/GD32VW55x_RELEASE_V1.0.2/MSDK/wpa_supplicant/src/ap\ap_config.c **** 		bss->wpa_pairwise = cipher;
1575:C:/Users/stapi/OneDrive/Desktop/GD32VW553/V1_MQTT_OK/GD32VW55X_Wifi_BLE_SDK/GD32VW55x_RELEASE_V1.0.2/MSDK/wpa_supplicant/src/ap\ap_config.c **** 		bss->rsn_pairwise = cipher;
1576:C:/Users/stapi/OneDrive/Desktop/GD32VW553/V1_MQTT_OK/GD32VW55X_Wifi_BLE_SDK/GD32VW55x_RELEASE_V1.0.2/MSDK/wpa_supplicant/src/ap\ap_config.c **** 		if (full_config)
1577:C:/Users/stapi/OneDrive/Desktop/GD32VW553/V1_MQTT_OK/GD32VW55X_Wifi_BLE_SDK/GD32VW55x_RELEASE_V1.0.2/MSDK/wpa_supplicant/src/ap\ap_config.c **** 			bss->wpa_key_mgmt = WPA_KEY_MGMT_NONE;
1578:C:/Users/stapi/OneDrive/Desktop/GD32VW553/V1_MQTT_OK/GD32VW55X_Wifi_BLE_SDK/GD32VW55x_RELEASE_V1.0.2/MSDK/wpa_supplicant/src/ap\ap_config.c **** #endif /* CONFIG_WEP */
1579:C:/Users/stapi/OneDrive/Desktop/GD32VW553/V1_MQTT_OK/GD32VW55X_Wifi_BLE_SDK/GD32VW55x_RELEASE_V1.0.2/MSDK/wpa_supplicant/src/ap\ap_config.c **** 	} else if (bss->osen) {
1580:C:/Users/stapi/OneDrive/Desktop/GD32VW553/V1_MQTT_OK/GD32VW55X_Wifi_BLE_SDK/GD32VW55x_RELEASE_V1.0.2/MSDK/wpa_supplicant/src/ap\ap_config.c **** 		bss->ssid.security_policy = SECURITY_OSEN;
1581:C:/Users/stapi/OneDrive/Desktop/GD32VW553/V1_MQTT_OK/GD32VW55X_Wifi_BLE_SDK/GD32VW55x_RELEASE_V1.0.2/MSDK/wpa_supplicant/src/ap\ap_config.c **** 		bss->wpa_group = WPA_CIPHER_CCMP;
1582:C:/Users/stapi/OneDrive/Desktop/GD32VW553/V1_MQTT_OK/GD32VW55X_Wifi_BLE_SDK/GD32VW55x_RELEASE_V1.0.2/MSDK/wpa_supplicant/src/ap\ap_config.c **** 		bss->wpa_pairwise = 0;
1583:C:/Users/stapi/OneDrive/Desktop/GD32VW553/V1_MQTT_OK/GD32VW55X_Wifi_BLE_SDK/GD32VW55x_RELEASE_V1.0.2/MSDK/wpa_supplicant/src/ap\ap_config.c **** 		bss->rsn_pairwise = WPA_CIPHER_CCMP;
1584:C:/Users/stapi/OneDrive/Desktop/GD32VW553/V1_MQTT_OK/GD32VW55X_Wifi_BLE_SDK/GD32VW55x_RELEASE_V1.0.2/MSDK/wpa_supplicant/src/ap\ap_config.c **** 	} else {
1585:C:/Users/stapi/OneDrive/Desktop/GD32VW553/V1_MQTT_OK/GD32VW55X_Wifi_BLE_SDK/GD32VW55x_RELEASE_V1.0.2/MSDK/wpa_supplicant/src/ap\ap_config.c **** 		bss->ssid.security_policy = SECURITY_PLAINTEXT;
1586:C:/Users/stapi/OneDrive/Desktop/GD32VW553/V1_MQTT_OK/GD32VW55X_Wifi_BLE_SDK/GD32VW55x_RELEASE_V1.0.2/MSDK/wpa_supplicant/src/ap\ap_config.c **** 		if (full_config) {
1587:C:/Users/stapi/OneDrive/Desktop/GD32VW553/V1_MQTT_OK/GD32VW55X_Wifi_BLE_SDK/GD32VW55x_RELEASE_V1.0.2/MSDK/wpa_supplicant/src/ap\ap_config.c **** 			bss->wpa_group = WPA_CIPHER_NONE;
1588:C:/Users/stapi/OneDrive/Desktop/GD32VW553/V1_MQTT_OK/GD32VW55X_Wifi_BLE_SDK/GD32VW55x_RELEASE_V1.0.2/MSDK/wpa_supplicant/src/ap\ap_config.c **** 			bss->wpa_pairwise = WPA_CIPHER_NONE;
1589:C:/Users/stapi/OneDrive/Desktop/GD32VW553/V1_MQTT_OK/GD32VW55X_Wifi_BLE_SDK/GD32VW55x_RELEASE_V1.0.2/MSDK/wpa_supplicant/src/ap\ap_config.c **** 			bss->rsn_pairwise = WPA_CIPHER_NONE;
1590:C:/Users/stapi/OneDrive/Desktop/GD32VW553/V1_MQTT_OK/GD32VW55X_Wifi_BLE_SDK/GD32VW55x_RELEASE_V1.0.2/MSDK/wpa_supplicant/src/ap\ap_config.c **** 			bss->wpa_key_mgmt = WPA_KEY_MGMT_NONE;
1591:C:/Users/stapi/OneDrive/Desktop/GD32VW553/V1_MQTT_OK/GD32VW55X_Wifi_BLE_SDK/GD32VW55x_RELEASE_V1.0.2/MSDK/wpa_supplicant/src/ap\ap_config.c **** 		}
1592:C:/Users/stapi/OneDrive/Desktop/GD32VW553/V1_MQTT_OK/GD32VW55X_Wifi_BLE_SDK/GD32VW55x_RELEASE_V1.0.2/MSDK/wpa_supplicant/src/ap\ap_config.c **** 	}
1593:C:/Users/stapi/OneDrive/Desktop/GD32VW553/V1_MQTT_OK/GD32VW55X_Wifi_BLE_SDK/GD32VW55x_RELEASE_V1.0.2/MSDK/wpa_supplicant/src/ap\ap_config.c **** }
 2781              		.loc 2 1593 1
 2782 0068 17030000 		tail	__riscv_restore_2
 2782      67000300 
 2783              		.cfi_remember_state
 2784              		.cfi_restore 9
 2785              		.cfi_restore 8
 2786              		.cfi_restore 1
 2787              		.cfi_def_cfa_offset 0
 2788              	.L245:
 2789              		.cfi_restore_state
1531:C:/Users/stapi/OneDrive/Desktop/GD32VW553/V1_MQTT_OK/GD32VW55X_Wifi_BLE_SDK/GD32VW55x_RELEASE_V1.0.2/MSDK/wpa_supplicant/src/ap\ap_config.c **** 							    bss->wpa_pairwise,
 2790              		.loc 2 1531 3 is_stmt 1
1531:C:/Users/stapi/OneDrive/Desktop/GD32VW553/V1_MQTT_OK/GD32VW55X_Wifi_BLE_SDK/GD32VW55x_RELEASE_V1.0.2/MSDK/wpa_supplicant/src/ap\ap_config.c **** 							    bss->wpa_pairwise,
 2791              		.loc 2 1531 20 is_stmt 0
 2792 0070 03268419 		lw	a2,408(s0)
 2793 0074 83258416 		lw	a1,360(s0)
 2794 0078 97000000 		call	wpa_select_ap_group_cipher
 2794      E7800000 
 2795              	.LVL275:
1531:C:/Users/stapi/OneDrive/Desktop/GD32VW553/V1_MQTT_OK/GD32VW55X_Wifi_BLE_SDK/GD32VW55x_RELEASE_V1.0.2/MSDK/wpa_supplicant/src/ap\ap_config.c **** 							    bss->wpa_pairwise,
 2796              		.loc 2 1531 18
 2797 0080 2328A416 		sw	a0,368(s0)
 2798 0084 6DB7     		j	.L246
 2799              	.L251:
1545:C:/Users/stapi/OneDrive/Desktop/GD32VW553/V1_MQTT_OK/GD32VW55X_Wifi_BLE_SDK/GD32VW55x_RELEASE_V1.0.2/MSDK/wpa_supplicant/src/ap\ap_config.c **** 	} else if (bss->wpa) {
 2800              		.loc 2 1545 9 is_stmt 1
1546:C:/Users/stapi/OneDrive/Desktop/GD32VW553/V1_MQTT_OK/GD32VW55X_Wifi_BLE_SDK/GD32VW55x_RELEASE_V1.0.2/MSDK/wpa_supplicant/src/ap\ap_config.c **** 	} else if (bss->ieee802_1x) {
 2801              		.loc 2 1546 3
1546:C:/Users/stapi/OneDrive/Desktop/GD32VW553/V1_MQTT_OK/GD32VW55X_Wifi_BLE_SDK/GD32VW55x_RELEASE_V1.0.2/MSDK/wpa_supplicant/src/ap\ap_config.c **** 	} else if (bss->ieee802_1x) {
 2802              		.loc 2 1546 29 is_stmt 0
 2803 0086 8D47     		li	a5,3
 2804 0088 F1BF     		j	.L268
 2805              	.L250:
1545:C:/Users/stapi/OneDrive/Desktop/GD32VW553/V1_MQTT_OK/GD32VW55X_Wifi_BLE_SDK/GD32VW55x_RELEASE_V1.0.2/MSDK/wpa_supplicant/src/ap\ap_config.c **** 		bss->ssid.security_policy = SECURITY_WPA_PSK;
 2806              		.loc 2 1545 9 is_stmt 1
1547:C:/Users/stapi/OneDrive/Desktop/GD32VW553/V1_MQTT_OK/GD32VW55X_Wifi_BLE_SDK/GD32VW55x_RELEASE_V1.0.2/MSDK/wpa_supplicant/src/ap\ap_config.c **** 		int cipher = WPA_CIPHER_NONE;
 2807              		.loc 2 1547 9
1547:C:/Users/stapi/OneDrive/Desktop/GD32VW553/V1_MQTT_OK/GD32VW55X_Wifi_BLE_SDK/GD32VW55x_RELEASE_V1.0.2/MSDK/wpa_supplicant/src/ap\ap_config.c **** 		int cipher = WPA_CIPHER_NONE;
 2808              		.loc 2 1547 12 is_stmt 0
 2809 008a 85C3     		beq	a5,zero,.L253
 2810              	.LBB107:
1548:C:/Users/stapi/OneDrive/Desktop/GD32VW553/V1_MQTT_OK/GD32VW55X_Wifi_BLE_SDK/GD32VW55x_RELEASE_V1.0.2/MSDK/wpa_supplicant/src/ap\ap_config.c **** 		bss->ssid.security_policy = SECURITY_IEEE_802_1X;
 2811              		.loc 2 1548 3 is_stmt 1
 2812              	.LVL276:
1549:C:/Users/stapi/OneDrive/Desktop/GD32VW553/V1_MQTT_OK/GD32VW55X_Wifi_BLE_SDK/GD32VW55x_RELEASE_V1.0.2/MSDK/wpa_supplicant/src/ap\ap_config.c **** #ifdef CONFIG_WEP
 2813              		.loc 2 1549 3
1549:C:/Users/stapi/OneDrive/Desktop/GD32VW553/V1_MQTT_OK/GD32VW55X_Wifi_BLE_SDK/GD32VW55x_RELEASE_V1.0.2/MSDK/wpa_supplicant/src/ap\ap_config.c **** #ifdef CONFIG_WEP
 2814              		.loc 2 1549 29 is_stmt 0
 2815 008c 8947     		li	a5,2
 2816 008e 2324F40E 		sw	a5,232(s0)
1562:C:/Users/stapi/OneDrive/Desktop/GD32VW553/V1_MQTT_OK/GD32VW55X_Wifi_BLE_SDK/GD32VW55x_RELEASE_V1.0.2/MSDK/wpa_supplicant/src/ap\ap_config.c **** 		bss->wpa_pairwise = cipher;
 2817              		.loc 2 1562 3 is_stmt 1
1562:C:/Users/stapi/OneDrive/Desktop/GD32VW553/V1_MQTT_OK/GD32VW55X_Wifi_BLE_SDK/GD32VW55x_RELEASE_V1.0.2/MSDK/wpa_supplicant/src/ap\ap_config.c **** 		bss->wpa_pairwise = cipher;
 2818              		.loc 2 1562 18 is_stmt 0
 2819 0092 13070410 		addi	a4,s0,256
 2820 0096 8547     		li	a5,1
 2821 0098 3CDB     		sw	a5,112(a4)
1563:C:/Users/stapi/OneDrive/Desktop/GD32VW553/V1_MQTT_OK/GD32VW55X_Wifi_BLE_SDK/GD32VW55x_RELEASE_V1.0.2/MSDK/wpa_supplicant/src/ap\ap_config.c **** 		bss->rsn_pairwise = cipher;
 2822              		.loc 2 1563 3 is_stmt 1
1563:C:/Users/stapi/OneDrive/Desktop/GD32VW553/V1_MQTT_OK/GD32VW55X_Wifi_BLE_SDK/GD32VW55x_RELEASE_V1.0.2/MSDK/wpa_supplicant/src/ap\ap_config.c **** 		bss->rsn_pairwise = cipher;
 2823              		.loc 2 1563 21 is_stmt 0
 2824 009a 3CD7     		sw	a5,104(a4)
1564:C:/Users/stapi/OneDrive/Desktop/GD32VW553/V1_MQTT_OK/GD32VW55X_Wifi_BLE_SDK/GD32VW55x_RELEASE_V1.0.2/MSDK/wpa_supplicant/src/ap\ap_config.c **** 		if (full_config)
 2825              		.loc 2 1564 3 is_stmt 1
1564:C:/Users/stapi/OneDrive/Desktop/GD32VW553/V1_MQTT_OK/GD32VW55X_Wifi_BLE_SDK/GD32VW55x_RELEASE_V1.0.2/MSDK/wpa_supplicant/src/ap\ap_config.c **** 		if (full_config)
 2826              		.loc 2 1564 21 is_stmt 0
 2827 009c 232CF418 		sw	a5,408(s0)
1565:C:/Users/stapi/OneDrive/Desktop/GD32VW553/V1_MQTT_OK/GD32VW55X_Wifi_BLE_SDK/GD32VW55x_RELEASE_V1.0.2/MSDK/wpa_supplicant/src/ap\ap_config.c **** 			bss->wpa_key_mgmt = WPA_KEY_MGMT_IEEE8021X_NO_WPA;
 2828              		.loc 2 1565 3 is_stmt 1
1565:C:/Users/stapi/OneDrive/Desktop/GD32VW553/V1_MQTT_OK/GD32VW55X_Wifi_BLE_SDK/GD32VW55x_RELEASE_V1.0.2/MSDK/wpa_supplicant/src/ap\ap_config.c **** 			bss->wpa_key_mgmt = WPA_KEY_MGMT_IEEE8021X_NO_WPA;
 2829              		.loc 2 1565 6 is_stmt 0
 2830 00a0 E1D4     		beq	s1,zero,.L243
1566:C:/Users/stapi/OneDrive/Desktop/GD32VW553/V1_MQTT_OK/GD32VW55X_Wifi_BLE_SDK/GD32VW55x_RELEASE_V1.0.2/MSDK/wpa_supplicant/src/ap\ap_config.c **** #ifdef CONFIG_WEP
 2831              		.loc 2 1566 4 is_stmt 1
1566:C:/Users/stapi/OneDrive/Desktop/GD32VW553/V1_MQTT_OK/GD32VW55X_Wifi_BLE_SDK/GD32VW55x_RELEASE_V1.0.2/MSDK/wpa_supplicant/src/ap\ap_config.c **** #ifdef CONFIG_WEP
 2832              		.loc 2 1566 22 is_stmt 0
 2833 00a2 A147     		li	a5,8
 2834 00a4 2326F414 		sw	a5,332(s0)
 2835 00a8 C1B7     		j	.L243
 2836              	.LVL277:
 2837              	.L253:
 2838              	.LBE107:
1579:C:/Users/stapi/OneDrive/Desktop/GD32VW553/V1_MQTT_OK/GD32VW55X_Wifi_BLE_SDK/GD32VW55x_RELEASE_V1.0.2/MSDK/wpa_supplicant/src/ap\ap_config.c **** 		bss->ssid.security_policy = SECURITY_OSEN;
 2839              		.loc 2 1579 9 is_stmt 1
1579:C:/Users/stapi/OneDrive/Desktop/GD32VW553/V1_MQTT_OK/GD32VW55X_Wifi_BLE_SDK/GD32VW55x_RELEASE_V1.0.2/MSDK/wpa_supplicant/src/ap\ap_config.c **** 		bss->ssid.security_policy = SECURITY_OSEN;
 2840              		.loc 2 1579 12 is_stmt 0
 2841 00aa 83274436 		lw	a5,868(s0)
 2842 00ae 81CF     		beq	a5,zero,.L255
1580:C:/Users/stapi/OneDrive/Desktop/GD32VW553/V1_MQTT_OK/GD32VW55X_Wifi_BLE_SDK/GD32VW55x_RELEASE_V1.0.2/MSDK/wpa_supplicant/src/ap\ap_config.c **** 		bss->wpa_group = WPA_CIPHER_CCMP;
 2843              		.loc 2 1580 3 is_stmt 1
1580:C:/Users/stapi/OneDrive/Desktop/GD32VW553/V1_MQTT_OK/GD32VW55X_Wifi_BLE_SDK/GD32VW55x_RELEASE_V1.0.2/MSDK/wpa_supplicant/src/ap\ap_config.c **** 		bss->wpa_group = WPA_CIPHER_CCMP;
 2844              		.loc 2 1580 29 is_stmt 0
 2845 00b0 9547     		li	a5,5
 2846 00b2 2324F40E 		sw	a5,232(s0)
1581:C:/Users/stapi/OneDrive/Desktop/GD32VW553/V1_MQTT_OK/GD32VW55X_Wifi_BLE_SDK/GD32VW55x_RELEASE_V1.0.2/MSDK/wpa_supplicant/src/ap\ap_config.c **** 		bss->wpa_pairwise = 0;
 2847              		.loc 2 1581 3 is_stmt 1
1581:C:/Users/stapi/OneDrive/Desktop/GD32VW553/V1_MQTT_OK/GD32VW55X_Wifi_BLE_SDK/GD32VW55x_RELEASE_V1.0.2/MSDK/wpa_supplicant/src/ap\ap_config.c **** 		bss->wpa_pairwise = 0;
 2848              		.loc 2 1581 18 is_stmt 0
 2849 00b6 C147     		li	a5,16
 2850 00b8 2328F416 		sw	a5,368(s0)
1582:C:/Users/stapi/OneDrive/Desktop/GD32VW553/V1_MQTT_OK/GD32VW55X_Wifi_BLE_SDK/GD32VW55x_RELEASE_V1.0.2/MSDK/wpa_supplicant/src/ap\ap_config.c **** 		bss->rsn_pairwise = WPA_CIPHER_CCMP;
 2851              		.loc 2 1582 3 is_stmt 1
1582:C:/Users/stapi/OneDrive/Desktop/GD32VW553/V1_MQTT_OK/GD32VW55X_Wifi_BLE_SDK/GD32VW55x_RELEASE_V1.0.2/MSDK/wpa_supplicant/src/ap\ap_config.c **** 		bss->rsn_pairwise = WPA_CIPHER_CCMP;
 2852              		.loc 2 1582 21 is_stmt 0
 2853 00bc 23240416 		sw	zero,360(s0)
1583:C:/Users/stapi/OneDrive/Desktop/GD32VW553/V1_MQTT_OK/GD32VW55X_Wifi_BLE_SDK/GD32VW55x_RELEASE_V1.0.2/MSDK/wpa_supplicant/src/ap\ap_config.c **** 	} else {
 2854              		.loc 2 1583 3 is_stmt 1
1583:C:/Users/stapi/OneDrive/Desktop/GD32VW553/V1_MQTT_OK/GD32VW55X_Wifi_BLE_SDK/GD32VW55x_RELEASE_V1.0.2/MSDK/wpa_supplicant/src/ap\ap_config.c **** 	} else {
 2855              		.loc 2 1583 21 is_stmt 0
 2856 00c0 232CF418 		sw	a5,408(s0)
 2857 00c4 55B7     		j	.L243
 2858              	.L255:
1585:C:/Users/stapi/OneDrive/Desktop/GD32VW553/V1_MQTT_OK/GD32VW55X_Wifi_BLE_SDK/GD32VW55x_RELEASE_V1.0.2/MSDK/wpa_supplicant/src/ap\ap_config.c **** 		if (full_config) {
 2859              		.loc 2 1585 3 is_stmt 1
1585:C:/Users/stapi/OneDrive/Desktop/GD32VW553/V1_MQTT_OK/GD32VW55X_Wifi_BLE_SDK/GD32VW55x_RELEASE_V1.0.2/MSDK/wpa_supplicant/src/ap\ap_config.c **** 		if (full_config) {
 2860              		.loc 2 1585 29 is_stmt 0
 2861 00c6 2324040E 		sw	zero,232(s0)
1586:C:/Users/stapi/OneDrive/Desktop/GD32VW553/V1_MQTT_OK/GD32VW55X_Wifi_BLE_SDK/GD32VW55x_RELEASE_V1.0.2/MSDK/wpa_supplicant/src/ap\ap_config.c **** 			bss->wpa_group = WPA_CIPHER_NONE;
 2862              		.loc 2 1586 3 is_stmt 1
1586:C:/Users/stapi/OneDrive/Desktop/GD32VW553/V1_MQTT_OK/GD32VW55X_Wifi_BLE_SDK/GD32VW55x_RELEASE_V1.0.2/MSDK/wpa_supplicant/src/ap\ap_config.c **** 			bss->wpa_group = WPA_CIPHER_NONE;
 2863              		.loc 2 1586 6 is_stmt 0
 2864 00ca D9DC     		beq	s1,zero,.L243
1587:C:/Users/stapi/OneDrive/Desktop/GD32VW553/V1_MQTT_OK/GD32VW55X_Wifi_BLE_SDK/GD32VW55x_RELEASE_V1.0.2/MSDK/wpa_supplicant/src/ap\ap_config.c **** 			bss->wpa_pairwise = WPA_CIPHER_NONE;
 2865              		.loc 2 1587 4 is_stmt 1
1587:C:/Users/stapi/OneDrive/Desktop/GD32VW553/V1_MQTT_OK/GD32VW55X_Wifi_BLE_SDK/GD32VW55x_RELEASE_V1.0.2/MSDK/wpa_supplicant/src/ap\ap_config.c **** 			bss->wpa_pairwise = WPA_CIPHER_NONE;
 2866              		.loc 2 1587 19 is_stmt 0
 2867 00cc 0547     		li	a4,1
 2868 00ce 93070410 		addi	a5,s0,256
 2869 00d2 B8DB     		sw	a4,112(a5)
1588:C:/Users/stapi/OneDrive/Desktop/GD32VW553/V1_MQTT_OK/GD32VW55X_Wifi_BLE_SDK/GD32VW55x_RELEASE_V1.0.2/MSDK/wpa_supplicant/src/ap\ap_config.c **** 			bss->rsn_pairwise = WPA_CIPHER_NONE;
 2870              		.loc 2 1588 4 is_stmt 1
1588:C:/Users/stapi/OneDrive/Desktop/GD32VW553/V1_MQTT_OK/GD32VW55X_Wifi_BLE_SDK/GD32VW55x_RELEASE_V1.0.2/MSDK/wpa_supplicant/src/ap\ap_config.c **** 			bss->rsn_pairwise = WPA_CIPHER_NONE;
 2871              		.loc 2 1588 22 is_stmt 0
 2872 00d4 B8D7     		sw	a4,104(a5)
1589:C:/Users/stapi/OneDrive/Desktop/GD32VW553/V1_MQTT_OK/GD32VW55X_Wifi_BLE_SDK/GD32VW55x_RELEASE_V1.0.2/MSDK/wpa_supplicant/src/ap\ap_config.c **** 			bss->wpa_key_mgmt = WPA_KEY_MGMT_NONE;
 2873              		.loc 2 1589 4 is_stmt 1
1589:C:/Users/stapi/OneDrive/Desktop/GD32VW553/V1_MQTT_OK/GD32VW55X_Wifi_BLE_SDK/GD32VW55x_RELEASE_V1.0.2/MSDK/wpa_supplicant/src/ap\ap_config.c **** 			bss->wpa_key_mgmt = WPA_KEY_MGMT_NONE;
 2874              		.loc 2 1589 22 is_stmt 0
 2875 00d6 232CE418 		sw	a4,408(s0)
1590:C:/Users/stapi/OneDrive/Desktop/GD32VW553/V1_MQTT_OK/GD32VW55X_Wifi_BLE_SDK/GD32VW55x_RELEASE_V1.0.2/MSDK/wpa_supplicant/src/ap\ap_config.c **** 		}
 2876              		.loc 2 1590 4 is_stmt 1
1590:C:/Users/stapi/OneDrive/Desktop/GD32VW553/V1_MQTT_OK/GD32VW55X_Wifi_BLE_SDK/GD32VW55x_RELEASE_V1.0.2/MSDK/wpa_supplicant/src/ap\ap_config.c **** 		}
 2877              		.loc 2 1590 22 is_stmt 0
 2878 00da 1147     		li	a4,4
 2879 00dc F8C7     		sw	a4,76(a5)
 2880              		.loc 2 1593 1
 2881 00de 69B7     		j	.L243
 2882              		.cfi_endproc
 2883              	.LFE166:
 2885              		.section	.text.hostapd_sae_pw_id_in_use,"ax",@progbits
 2886              		.align	1
 2887              		.globl	hostapd_sae_pw_id_in_use
 2889              	hostapd_sae_pw_id_in_use:
 2890              	.LFB167:
1594:C:/Users/stapi/OneDrive/Desktop/GD32VW553/V1_MQTT_OK/GD32VW55X_Wifi_BLE_SDK/GD32VW55x_RELEASE_V1.0.2/MSDK/wpa_supplicant/src/ap\ap_config.c **** 
1595:C:/Users/stapi/OneDrive/Desktop/GD32VW553/V1_MQTT_OK/GD32VW55X_Wifi_BLE_SDK/GD32VW55x_RELEASE_V1.0.2/MSDK/wpa_supplicant/src/ap\ap_config.c **** 
1596:C:/Users/stapi/OneDrive/Desktop/GD32VW553/V1_MQTT_OK/GD32VW55X_Wifi_BLE_SDK/GD32VW55x_RELEASE_V1.0.2/MSDK/wpa_supplicant/src/ap\ap_config.c **** int hostapd_sae_pw_id_in_use(struct hostapd_bss_config *conf)
1597:C:/Users/stapi/OneDrive/Desktop/GD32VW553/V1_MQTT_OK/GD32VW55X_Wifi_BLE_SDK/GD32VW55x_RELEASE_V1.0.2/MSDK/wpa_supplicant/src/ap\ap_config.c **** {
 2891              		.loc 2 1597 1 is_stmt 1
 2892              		.cfi_startproc
 2893              	.LVL278:
1598:C:/Users/stapi/OneDrive/Desktop/GD32VW553/V1_MQTT_OK/GD32VW55X_Wifi_BLE_SDK/GD32VW55x_RELEASE_V1.0.2/MSDK/wpa_supplicant/src/ap\ap_config.c **** 	int with_id = 0, without_id = 0;
 2894              		.loc 2 1598 2
1599:C:/Users/stapi/OneDrive/Desktop/GD32VW553/V1_MQTT_OK/GD32VW55X_Wifi_BLE_SDK/GD32VW55x_RELEASE_V1.0.2/MSDK/wpa_supplicant/src/ap\ap_config.c **** 	struct sae_password_entry *pw;
 2895              		.loc 2 1599 2
1600:C:/Users/stapi/OneDrive/Desktop/GD32VW553/V1_MQTT_OK/GD32VW55X_Wifi_BLE_SDK/GD32VW55x_RELEASE_V1.0.2/MSDK/wpa_supplicant/src/ap\ap_config.c **** 
1601:C:/Users/stapi/OneDrive/Desktop/GD32VW553/V1_MQTT_OK/GD32VW55X_Wifi_BLE_SDK/GD32VW55x_RELEASE_V1.0.2/MSDK/wpa_supplicant/src/ap\ap_config.c **** 	if (conf->ssid.wpa_passphrase)
 2896              		.loc 2 1601 2
 2897              		.loc 2 1601 5 is_stmt 0
 2898 0000 8327050F 		lw	a5,240(a0)
1602:C:/Users/stapi/OneDrive/Desktop/GD32VW553/V1_MQTT_OK/GD32VW55X_Wifi_BLE_SDK/GD32VW55x_RELEASE_V1.0.2/MSDK/wpa_supplicant/src/ap\ap_config.c **** 		without_id = 1;
1603:C:/Users/stapi/OneDrive/Desktop/GD32VW553/V1_MQTT_OK/GD32VW55X_Wifi_BLE_SDK/GD32VW55x_RELEASE_V1.0.2/MSDK/wpa_supplicant/src/ap\ap_config.c **** 
1604:C:/Users/stapi/OneDrive/Desktop/GD32VW553/V1_MQTT_OK/GD32VW55X_Wifi_BLE_SDK/GD32VW55x_RELEASE_V1.0.2/MSDK/wpa_supplicant/src/ap\ap_config.c **** 	for (pw = conf->sae_passwords; pw; pw = pw->next) {
 2899              		.loc 2 1604 10
 2900 0004 03274539 		lw	a4,916(a0)
1598:C:/Users/stapi/OneDrive/Desktop/GD32VW553/V1_MQTT_OK/GD32VW55X_Wifi_BLE_SDK/GD32VW55x_RELEASE_V1.0.2/MSDK/wpa_supplicant/src/ap\ap_config.c **** 	struct sae_password_entry *pw;
 2901              		.loc 2 1598 6
 2902 0008 0145     		li	a0,0
 2903              	.LVL279:
1601:C:/Users/stapi/OneDrive/Desktop/GD32VW553/V1_MQTT_OK/GD32VW55X_Wifi_BLE_SDK/GD32VW55x_RELEASE_V1.0.2/MSDK/wpa_supplicant/src/ap\ap_config.c **** 		without_id = 1;
 2904              		.loc 2 1601 5
 2905 000a B337F000 		snez	a5,a5
 2906              	.LVL280:
 2907              		.loc 2 1604 2 is_stmt 1
 2908              	.L270:
 2909              		.loc 2 1604 33 discriminator 1
 2910              		.loc 2 1604 2 is_stmt 0 discriminator 1
 2911 000e 09E7     		bne	a4,zero,.L274
1605:C:/Users/stapi/OneDrive/Desktop/GD32VW553/V1_MQTT_OK/GD32VW55X_Wifi_BLE_SDK/GD32VW55x_RELEASE_V1.0.2/MSDK/wpa_supplicant/src/ap\ap_config.c **** 		if (pw->identifier)
1606:C:/Users/stapi/OneDrive/Desktop/GD32VW553/V1_MQTT_OK/GD32VW55X_Wifi_BLE_SDK/GD32VW55x_RELEASE_V1.0.2/MSDK/wpa_supplicant/src/ap\ap_config.c **** 			with_id = 1;
1607:C:/Users/stapi/OneDrive/Desktop/GD32VW553/V1_MQTT_OK/GD32VW55X_Wifi_BLE_SDK/GD32VW55x_RELEASE_V1.0.2/MSDK/wpa_supplicant/src/ap\ap_config.c **** 		else
1608:C:/Users/stapi/OneDrive/Desktop/GD32VW553/V1_MQTT_OK/GD32VW55X_Wifi_BLE_SDK/GD32VW55x_RELEASE_V1.0.2/MSDK/wpa_supplicant/src/ap\ap_config.c **** 			without_id = 1;
1609:C:/Users/stapi/OneDrive/Desktop/GD32VW553/V1_MQTT_OK/GD32VW55X_Wifi_BLE_SDK/GD32VW55x_RELEASE_V1.0.2/MSDK/wpa_supplicant/src/ap\ap_config.c **** 		if (with_id && without_id)
1610:C:/Users/stapi/OneDrive/Desktop/GD32VW553/V1_MQTT_OK/GD32VW55X_Wifi_BLE_SDK/GD32VW55x_RELEASE_V1.0.2/MSDK/wpa_supplicant/src/ap\ap_config.c **** 			break;
1611:C:/Users/stapi/OneDrive/Desktop/GD32VW553/V1_MQTT_OK/GD32VW55X_Wifi_BLE_SDK/GD32VW55x_RELEASE_V1.0.2/MSDK/wpa_supplicant/src/ap\ap_config.c **** 	}
1612:C:/Users/stapi/OneDrive/Desktop/GD32VW553/V1_MQTT_OK/GD32VW55X_Wifi_BLE_SDK/GD32VW55x_RELEASE_V1.0.2/MSDK/wpa_supplicant/src/ap\ap_config.c **** 
1613:C:/Users/stapi/OneDrive/Desktop/GD32VW553/V1_MQTT_OK/GD32VW55X_Wifi_BLE_SDK/GD32VW55x_RELEASE_V1.0.2/MSDK/wpa_supplicant/src/ap\ap_config.c **** 	if (with_id && !without_id)
 2912              		.loc 2 1613 2 is_stmt 1
 2913              		.loc 2 1613 5 is_stmt 0
 2914 0010 19C1     		beq	a0,zero,.L269
 2915              	.LVL281:
 2916              	.L272:
 2917              		.loc 2 1613 14 discriminator 1
 2918 0012 0945     		li	a0,2
 2919 0014 1D8D     		sub	a0,a0,a5
 2920              	.LVL282:
 2921              	.L269:
1614:C:/Users/stapi/OneDrive/Desktop/GD32VW553/V1_MQTT_OK/GD32VW55X_Wifi_BLE_SDK/GD32VW55x_RELEASE_V1.0.2/MSDK/wpa_supplicant/src/ap\ap_config.c **** 		return 2;
1615:C:/Users/stapi/OneDrive/Desktop/GD32VW553/V1_MQTT_OK/GD32VW55X_Wifi_BLE_SDK/GD32VW55x_RELEASE_V1.0.2/MSDK/wpa_supplicant/src/ap\ap_config.c **** 	return with_id;
1616:C:/Users/stapi/OneDrive/Desktop/GD32VW553/V1_MQTT_OK/GD32VW55X_Wifi_BLE_SDK/GD32VW55x_RELEASE_V1.0.2/MSDK/wpa_supplicant/src/ap\ap_config.c **** }
 2922              		.loc 2 1616 1
 2923 0016 8280     		ret
 2924              	.LVL283:
 2925              	.L274:
1605:C:/Users/stapi/OneDrive/Desktop/GD32VW553/V1_MQTT_OK/GD32VW55X_Wifi_BLE_SDK/GD32VW55x_RELEASE_V1.0.2/MSDK/wpa_supplicant/src/ap\ap_config.c **** 		if (pw->identifier)
 2926              		.loc 2 1605 3 is_stmt 1
1605:C:/Users/stapi/OneDrive/Desktop/GD32VW553/V1_MQTT_OK/GD32VW55X_Wifi_BLE_SDK/GD32VW55x_RELEASE_V1.0.2/MSDK/wpa_supplicant/src/ap\ap_config.c **** 		if (pw->identifier)
 2927              		.loc 2 1605 6 is_stmt 0
 2928 0018 1447     		lw	a3,8(a4)
 2929 001a 89E6     		bne	a3,zero,.L271
1608:C:/Users/stapi/OneDrive/Desktop/GD32VW553/V1_MQTT_OK/GD32VW55X_Wifi_BLE_SDK/GD32VW55x_RELEASE_V1.0.2/MSDK/wpa_supplicant/src/ap\ap_config.c **** 		if (with_id && without_id)
 2930              		.loc 2 1608 4 is_stmt 1
 2931              	.LVL284:
1609:C:/Users/stapi/OneDrive/Desktop/GD32VW553/V1_MQTT_OK/GD32VW55X_Wifi_BLE_SDK/GD32VW55x_RELEASE_V1.0.2/MSDK/wpa_supplicant/src/ap\ap_config.c **** 			break;
 2932              		.loc 2 1609 3
1609:C:/Users/stapi/OneDrive/Desktop/GD32VW553/V1_MQTT_OK/GD32VW55X_Wifi_BLE_SDK/GD32VW55x_RELEASE_V1.0.2/MSDK/wpa_supplicant/src/ap\ap_config.c **** 			break;
 2933              		.loc 2 1609 6 is_stmt 0
 2934 001c 19E5     		bne	a0,zero,.L276
1608:C:/Users/stapi/OneDrive/Desktop/GD32VW553/V1_MQTT_OK/GD32VW55X_Wifi_BLE_SDK/GD32VW55x_RELEASE_V1.0.2/MSDK/wpa_supplicant/src/ap\ap_config.c **** 		if (with_id && without_id)
 2935              		.loc 2 1608 15
 2936 001e 8547     		li	a5,1
 2937              	.LVL285:
 2938              	.L273:
1604:C:/Users/stapi/OneDrive/Desktop/GD32VW553/V1_MQTT_OK/GD32VW55X_Wifi_BLE_SDK/GD32VW55x_RELEASE_V1.0.2/MSDK/wpa_supplicant/src/ap\ap_config.c **** 		if (pw->identifier)
 2939              		.loc 2 1604 37 is_stmt 1 discriminator 2
1604:C:/Users/stapi/OneDrive/Desktop/GD32VW553/V1_MQTT_OK/GD32VW55X_Wifi_BLE_SDK/GD32VW55x_RELEASE_V1.0.2/MSDK/wpa_supplicant/src/ap\ap_config.c **** 		if (pw->identifier)
 2940              		.loc 2 1604 40 is_stmt 0 discriminator 2
 2941 0020 1843     		lw	a4,0(a4)
 2942              	.LVL286:
 2943 0022 F5B7     		j	.L270
 2944              	.LVL287:
 2945              	.L271:
1609:C:/Users/stapi/OneDrive/Desktop/GD32VW553/V1_MQTT_OK/GD32VW55X_Wifi_BLE_SDK/GD32VW55x_RELEASE_V1.0.2/MSDK/wpa_supplicant/src/ap\ap_config.c **** 			break;
 2946              		.loc 2 1609 15 discriminator 1
 2947 0024 FDF7     		bne	a5,zero,.L272
1606:C:/Users/stapi/OneDrive/Desktop/GD32VW553/V1_MQTT_OK/GD32VW55X_Wifi_BLE_SDK/GD32VW55x_RELEASE_V1.0.2/MSDK/wpa_supplicant/src/ap\ap_config.c **** 		else
 2948              		.loc 2 1606 12
 2949 0026 0545     		li	a0,1
 2950 0028 E5BF     		j	.L273
 2951              	.LVL288:
 2952              	.L276:
 2953 002a AA87     		mv	a5,a0
 2954 002c DDB7     		j	.L272
 2955              		.cfi_endproc
 2956              	.LFE167:
 2958              		.section	.text.hostapd_setup_sae_pt,"ax",@progbits
 2959              		.align	1
 2960              		.globl	hostapd_setup_sae_pt
 2962              	hostapd_setup_sae_pt:
 2963              	.LFB143:
 477:C:/Users/stapi/OneDrive/Desktop/GD32VW553/V1_MQTT_OK/GD32VW55X_Wifi_BLE_SDK/GD32VW55x_RELEASE_V1.0.2/MSDK/wpa_supplicant/src/ap\ap_config.c **** #ifdef CONFIG_SAE
 2964              		.loc 2 477 1 is_stmt 1
 2965              		.cfi_startproc
 2966              	.LVL289:
 2967 0000 17030000 		call	t0,__riscv_save_4
 2967      E7020300 
 2968              		.cfi_offset 19, -20
 2969              		.cfi_offset 18, -16
 2970              		.cfi_offset 9, -12
 2971              		.cfi_offset 8, -8
 2972              		.cfi_offset 1, -4
 2973              		.cfi_def_cfa_offset 32
 479:C:/Users/stapi/OneDrive/Desktop/GD32VW553/V1_MQTT_OK/GD32VW55X_Wifi_BLE_SDK/GD32VW55x_RELEASE_V1.0.2/MSDK/wpa_supplicant/src/ap\ap_config.c **** 	struct sae_password_entry *pw;
 2974              		.loc 2 479 2
 2975              	.LVL290:
 480:C:/Users/stapi/OneDrive/Desktop/GD32VW553/V1_MQTT_OK/GD32VW55X_Wifi_BLE_SDK/GD32VW55x_RELEASE_V1.0.2/MSDK/wpa_supplicant/src/ap\ap_config.c **** 
 2976              		.loc 2 480 2
 482:C:/Users/stapi/OneDrive/Desktop/GD32VW553/V1_MQTT_OK/GD32VW55X_Wifi_BLE_SDK/GD32VW55x_RELEASE_V1.0.2/MSDK/wpa_supplicant/src/ap\ap_config.c **** 	     !hostapd_sae_pk_in_use(conf)) ||
 2977              		.loc 2 482 2
 482:C:/Users/stapi/OneDrive/Desktop/GD32VW553/V1_MQTT_OK/GD32VW55X_Wifi_BLE_SDK/GD32VW55x_RELEASE_V1.0.2/MSDK/wpa_supplicant/src/ap\ap_config.c **** 	     !hostapd_sae_pk_in_use(conf)) ||
 2978              		.loc 2 482 11 is_stmt 0
 2979 0008 8327C538 		lw	a5,908(a0)
 477:C:/Users/stapi/OneDrive/Desktop/GD32VW553/V1_MQTT_OK/GD32VW55X_Wifi_BLE_SDK/GD32VW55x_RELEASE_V1.0.2/MSDK/wpa_supplicant/src/ap\ap_config.c **** #ifdef CONFIG_SAE
 2980              		.loc 2 477 1
 2981 000c 4111     		addi	sp,sp,-16
 2982              		.cfi_def_cfa_offset 48
 477:C:/Users/stapi/OneDrive/Desktop/GD32VW553/V1_MQTT_OK/GD32VW55X_Wifi_BLE_SDK/GD32VW55x_RELEASE_V1.0.2/MSDK/wpa_supplicant/src/ap\ap_config.c **** #ifdef CONFIG_SAE
 2983              		.loc 2 477 1
 2984 000e 2A84     		mv	s0,a0
 482:C:/Users/stapi/OneDrive/Desktop/GD32VW553/V1_MQTT_OK/GD32VW55X_Wifi_BLE_SDK/GD32VW55x_RELEASE_V1.0.2/MSDK/wpa_supplicant/src/ap\ap_config.c **** 	     !hostapd_sae_pk_in_use(conf)) ||
 2985              		.loc 2 482 5
 2986 0010 81EF     		bne	a5,zero,.L281
 482:C:/Users/stapi/OneDrive/Desktop/GD32VW553/V1_MQTT_OK/GD32VW55X_Wifi_BLE_SDK/GD32VW55x_RELEASE_V1.0.2/MSDK/wpa_supplicant/src/ap\ap_config.c **** 	     !hostapd_sae_pk_in_use(conf)) ||
 2987              		.loc 2 482 30 discriminator 1
 2988 0012 97000000 		call	hostapd_sae_pw_id_in_use
 2988      E7800000 
 2989              	.LVL291:
 482:C:/Users/stapi/OneDrive/Desktop/GD32VW553/V1_MQTT_OK/GD32VW55X_Wifi_BLE_SDK/GD32VW55x_RELEASE_V1.0.2/MSDK/wpa_supplicant/src/ap\ap_config.c **** 	     !hostapd_sae_pk_in_use(conf)) ||
 2990              		.loc 2 482 26 discriminator 1
 2991 001a 11E9     		bne	a0,zero,.L282
 2992              	.L284:
 486:C:/Users/stapi/OneDrive/Desktop/GD32VW553/V1_MQTT_OK/GD32VW55X_Wifi_BLE_SDK/GD32VW55x_RELEASE_V1.0.2/MSDK/wpa_supplicant/src/ap\ap_config.c **** 
 2993              		.loc 2 486 10
 2994 001c 0145     		li	a0,0
 2995              	.L280:
 513:C:/Users/stapi/OneDrive/Desktop/GD32VW553/V1_MQTT_OK/GD32VW55X_Wifi_BLE_SDK/GD32VW55x_RELEASE_V1.0.2/MSDK/wpa_supplicant/src/ap\ap_config.c **** 
 2996              		.loc 2 513 1
 2997 001e 4101     		addi	sp,sp,16
 2998              		.cfi_remember_state
 2999              		.cfi_def_cfa_offset 0
 3000 0020 17030000 		tail	__riscv_restore_4
 3000      67000300 
 3001              		.cfi_restore 19
 3002              		.cfi_restore 18
 3003              		.cfi_restore 9
 3004              		.cfi_restore 8
 3005              		.cfi_restore 1
 3006              		.cfi_def_cfa_offset -32
 3007              	.L281:
 3008              		.cfi_restore_state
 483:C:/Users/stapi/OneDrive/Desktop/GD32VW553/V1_MQTT_OK/GD32VW55X_Wifi_BLE_SDK/GD32VW55x_RELEASE_V1.0.2/MSDK/wpa_supplicant/src/ap\ap_config.c **** 	    conf->sae_pwe == 3 ||
 3009              		.loc 2 483 37
 3010 0028 0D47     		li	a4,3
 3011 002a E389E7FE 		beq	a5,a4,.L284
 3012              	.L282:
 3013              	.LVL292:
 3014              	.LBB114:
 3015              	.LBB115:
 3016              		.file 6 "..\\..\\..\\..\\wpa_supplicant\\src/common/defs.h"
   1:..\..\..\..\wpa_supplicant\src/common/defs.h **** /*
   2:..\..\..\..\wpa_supplicant\src/common/defs.h ****  * WPA Supplicant - Common definitions
   3:..\..\..\..\wpa_supplicant\src/common/defs.h ****  * Copyright (c) 2004-2018, Jouni Malinen <j@w1.fi>
   4:..\..\..\..\wpa_supplicant\src/common/defs.h ****  *
   5:..\..\..\..\wpa_supplicant\src/common/defs.h ****  * This software may be distributed under the terms of the BSD license.
   6:..\..\..\..\wpa_supplicant\src/common/defs.h ****  * See README for more details.
   7:..\..\..\..\wpa_supplicant\src/common/defs.h ****  */
   8:..\..\..\..\wpa_supplicant\src/common/defs.h **** 
   9:..\..\..\..\wpa_supplicant\src/common/defs.h **** #ifndef DEFS_H
  10:..\..\..\..\wpa_supplicant\src/common/defs.h **** #define DEFS_H
  11:..\..\..\..\wpa_supplicant\src/common/defs.h **** 
  12:..\..\..\..\wpa_supplicant\src/common/defs.h **** #define WPA_CIPHER_NONE BIT(0)
  13:..\..\..\..\wpa_supplicant\src/common/defs.h **** #define WPA_CIPHER_WEP40 BIT(1)
  14:..\..\..\..\wpa_supplicant\src/common/defs.h **** #define WPA_CIPHER_WEP104 BIT(2)
  15:..\..\..\..\wpa_supplicant\src/common/defs.h **** #define WPA_CIPHER_TKIP BIT(3)
  16:..\..\..\..\wpa_supplicant\src/common/defs.h **** #define WPA_CIPHER_CCMP BIT(4)
  17:..\..\..\..\wpa_supplicant\src/common/defs.h **** #define WPA_CIPHER_AES_128_CMAC BIT(5)
  18:..\..\..\..\wpa_supplicant\src/common/defs.h **** #define WPA_CIPHER_GCMP BIT(6)
  19:..\..\..\..\wpa_supplicant\src/common/defs.h **** #define WPA_CIPHER_SMS4 BIT(7)
  20:..\..\..\..\wpa_supplicant\src/common/defs.h **** #define WPA_CIPHER_GCMP_256 BIT(8)
  21:..\..\..\..\wpa_supplicant\src/common/defs.h **** #define WPA_CIPHER_CCMP_256 BIT(9)
  22:..\..\..\..\wpa_supplicant\src/common/defs.h **** #define WPA_CIPHER_BIP_GMAC_128 BIT(11)
  23:..\..\..\..\wpa_supplicant\src/common/defs.h **** #define WPA_CIPHER_BIP_GMAC_256 BIT(12)
  24:..\..\..\..\wpa_supplicant\src/common/defs.h **** #define WPA_CIPHER_BIP_CMAC_256 BIT(13)
  25:..\..\..\..\wpa_supplicant\src/common/defs.h **** #define WPA_CIPHER_GTK_NOT_USED BIT(14)
  26:..\..\..\..\wpa_supplicant\src/common/defs.h **** 
  27:..\..\..\..\wpa_supplicant\src/common/defs.h **** #define WPA_KEY_MGMT_IEEE8021X BIT(0)
  28:..\..\..\..\wpa_supplicant\src/common/defs.h **** #define WPA_KEY_MGMT_PSK BIT(1)
  29:..\..\..\..\wpa_supplicant\src/common/defs.h **** #define WPA_KEY_MGMT_NONE BIT(2)
  30:..\..\..\..\wpa_supplicant\src/common/defs.h **** #define WPA_KEY_MGMT_IEEE8021X_NO_WPA BIT(3)
  31:..\..\..\..\wpa_supplicant\src/common/defs.h **** #define WPA_KEY_MGMT_WPA_NONE BIT(4)
  32:..\..\..\..\wpa_supplicant\src/common/defs.h **** #define WPA_KEY_MGMT_FT_IEEE8021X BIT(5)
  33:..\..\..\..\wpa_supplicant\src/common/defs.h **** #define WPA_KEY_MGMT_FT_PSK BIT(6)
  34:..\..\..\..\wpa_supplicant\src/common/defs.h **** #define WPA_KEY_MGMT_IEEE8021X_SHA256 BIT(7)
  35:..\..\..\..\wpa_supplicant\src/common/defs.h **** #define WPA_KEY_MGMT_PSK_SHA256 BIT(8)
  36:..\..\..\..\wpa_supplicant\src/common/defs.h **** #define WPA_KEY_MGMT_WPS BIT(9)
  37:..\..\..\..\wpa_supplicant\src/common/defs.h **** #define WPA_KEY_MGMT_SAE BIT(10)
  38:..\..\..\..\wpa_supplicant\src/common/defs.h **** #define WPA_KEY_MGMT_FT_SAE BIT(11)
  39:..\..\..\..\wpa_supplicant\src/common/defs.h **** #define WPA_KEY_MGMT_WAPI_PSK BIT(12)
  40:..\..\..\..\wpa_supplicant\src/common/defs.h **** #define WPA_KEY_MGMT_WAPI_CERT BIT(13)
  41:..\..\..\..\wpa_supplicant\src/common/defs.h **** #define WPA_KEY_MGMT_CCKM BIT(14)
  42:..\..\..\..\wpa_supplicant\src/common/defs.h **** #define WPA_KEY_MGMT_OSEN BIT(15)
  43:..\..\..\..\wpa_supplicant\src/common/defs.h **** #define WPA_KEY_MGMT_IEEE8021X_SUITE_B BIT(16)
  44:..\..\..\..\wpa_supplicant\src/common/defs.h **** #define WPA_KEY_MGMT_IEEE8021X_SUITE_B_192 BIT(17)
  45:..\..\..\..\wpa_supplicant\src/common/defs.h **** #define WPA_KEY_MGMT_FILS_SHA256 BIT(18)
  46:..\..\..\..\wpa_supplicant\src/common/defs.h **** #define WPA_KEY_MGMT_FILS_SHA384 BIT(19)
  47:..\..\..\..\wpa_supplicant\src/common/defs.h **** #define WPA_KEY_MGMT_FT_FILS_SHA256 BIT(20)
  48:..\..\..\..\wpa_supplicant\src/common/defs.h **** #define WPA_KEY_MGMT_FT_FILS_SHA384 BIT(21)
  49:..\..\..\..\wpa_supplicant\src/common/defs.h **** #define WPA_KEY_MGMT_OWE BIT(22)
  50:..\..\..\..\wpa_supplicant\src/common/defs.h **** #define WPA_KEY_MGMT_DPP BIT(23)
  51:..\..\..\..\wpa_supplicant\src/common/defs.h **** #define WPA_KEY_MGMT_FT_IEEE8021X_SHA384 BIT(24)
  52:..\..\..\..\wpa_supplicant\src/common/defs.h **** #define WPA_KEY_MGMT_PASN BIT(25)
  53:..\..\..\..\wpa_supplicant\src/common/defs.h **** 
  54:..\..\..\..\wpa_supplicant\src/common/defs.h **** 
  55:..\..\..\..\wpa_supplicant\src/common/defs.h **** #define WPA_KEY_MGMT_FT (WPA_KEY_MGMT_FT_PSK | \
  56:..\..\..\..\wpa_supplicant\src/common/defs.h **** 			 WPA_KEY_MGMT_FT_IEEE8021X | \
  57:..\..\..\..\wpa_supplicant\src/common/defs.h **** 			 WPA_KEY_MGMT_FT_IEEE8021X_SHA384 | \
  58:..\..\..\..\wpa_supplicant\src/common/defs.h **** 			 WPA_KEY_MGMT_FT_SAE | \
  59:..\..\..\..\wpa_supplicant\src/common/defs.h **** 			 WPA_KEY_MGMT_FT_FILS_SHA256 | \
  60:..\..\..\..\wpa_supplicant\src/common/defs.h **** 			 WPA_KEY_MGMT_FT_FILS_SHA384)
  61:..\..\..\..\wpa_supplicant\src/common/defs.h **** 
  62:..\..\..\..\wpa_supplicant\src/common/defs.h **** static inline int wpa_key_mgmt_wpa_ieee8021x(int akm)
  63:..\..\..\..\wpa_supplicant\src/common/defs.h **** {
  64:..\..\..\..\wpa_supplicant\src/common/defs.h **** 	return !!(akm & (WPA_KEY_MGMT_IEEE8021X |
  65:..\..\..\..\wpa_supplicant\src/common/defs.h **** 			 WPA_KEY_MGMT_FT_IEEE8021X |
  66:..\..\..\..\wpa_supplicant\src/common/defs.h **** 			 WPA_KEY_MGMT_FT_IEEE8021X_SHA384 |
  67:..\..\..\..\wpa_supplicant\src/common/defs.h **** 			 WPA_KEY_MGMT_CCKM |
  68:..\..\..\..\wpa_supplicant\src/common/defs.h **** 			 WPA_KEY_MGMT_OSEN |
  69:..\..\..\..\wpa_supplicant\src/common/defs.h **** 			 WPA_KEY_MGMT_IEEE8021X_SHA256 |
  70:..\..\..\..\wpa_supplicant\src/common/defs.h **** 			 WPA_KEY_MGMT_IEEE8021X_SUITE_B |
  71:..\..\..\..\wpa_supplicant\src/common/defs.h **** 			 WPA_KEY_MGMT_IEEE8021X_SUITE_B_192 |
  72:..\..\..\..\wpa_supplicant\src/common/defs.h **** 			 WPA_KEY_MGMT_FILS_SHA256 |
  73:..\..\..\..\wpa_supplicant\src/common/defs.h **** 			 WPA_KEY_MGMT_FILS_SHA384 |
  74:..\..\..\..\wpa_supplicant\src/common/defs.h **** 			 WPA_KEY_MGMT_FT_FILS_SHA256 |
  75:..\..\..\..\wpa_supplicant\src/common/defs.h **** 			 WPA_KEY_MGMT_FT_FILS_SHA384));
  76:..\..\..\..\wpa_supplicant\src/common/defs.h **** }
  77:..\..\..\..\wpa_supplicant\src/common/defs.h **** 
  78:..\..\..\..\wpa_supplicant\src/common/defs.h **** static inline int wpa_key_mgmt_wpa_psk_no_sae(int akm)
  79:..\..\..\..\wpa_supplicant\src/common/defs.h **** {
  80:..\..\..\..\wpa_supplicant\src/common/defs.h **** 	return !!(akm & (WPA_KEY_MGMT_PSK |
  81:..\..\..\..\wpa_supplicant\src/common/defs.h **** 			 WPA_KEY_MGMT_FT_PSK |
  82:..\..\..\..\wpa_supplicant\src/common/defs.h **** 			 WPA_KEY_MGMT_PSK_SHA256));
  83:..\..\..\..\wpa_supplicant\src/common/defs.h **** }
  84:..\..\..\..\wpa_supplicant\src/common/defs.h **** 
  85:..\..\..\..\wpa_supplicant\src/common/defs.h **** static inline int wpa_key_mgmt_wpa_psk(int akm)
  86:..\..\..\..\wpa_supplicant\src/common/defs.h **** {
  87:..\..\..\..\wpa_supplicant\src/common/defs.h **** 	return !!(akm & (WPA_KEY_MGMT_PSK |
  88:..\..\..\..\wpa_supplicant\src/common/defs.h **** 			 WPA_KEY_MGMT_FT_PSK |
  89:..\..\..\..\wpa_supplicant\src/common/defs.h **** 			 WPA_KEY_MGMT_PSK_SHA256 |
  90:..\..\..\..\wpa_supplicant\src/common/defs.h **** 			 WPA_KEY_MGMT_SAE |
  91:..\..\..\..\wpa_supplicant\src/common/defs.h **** 			 WPA_KEY_MGMT_FT_SAE));
  92:..\..\..\..\wpa_supplicant\src/common/defs.h **** }
  93:..\..\..\..\wpa_supplicant\src/common/defs.h **** 
  94:..\..\..\..\wpa_supplicant\src/common/defs.h **** static inline int wpa_key_mgmt_ft(int akm)
  95:..\..\..\..\wpa_supplicant\src/common/defs.h **** {
  96:..\..\..\..\wpa_supplicant\src/common/defs.h **** 	return !!(akm & WPA_KEY_MGMT_FT);
  97:..\..\..\..\wpa_supplicant\src/common/defs.h **** }
  98:..\..\..\..\wpa_supplicant\src/common/defs.h **** 
  99:..\..\..\..\wpa_supplicant\src/common/defs.h **** static inline int wpa_key_mgmt_only_ft(int akm)
 100:..\..\..\..\wpa_supplicant\src/common/defs.h **** {
 101:..\..\..\..\wpa_supplicant\src/common/defs.h **** 	int ft = wpa_key_mgmt_ft(akm);
 102:..\..\..\..\wpa_supplicant\src/common/defs.h **** 	akm &= ~WPA_KEY_MGMT_FT;
 103:..\..\..\..\wpa_supplicant\src/common/defs.h **** 	return ft && !akm;
 104:..\..\..\..\wpa_supplicant\src/common/defs.h **** }
 105:..\..\..\..\wpa_supplicant\src/common/defs.h **** 
 106:..\..\..\..\wpa_supplicant\src/common/defs.h **** static inline int wpa_key_mgmt_ft_psk(int akm)
 107:..\..\..\..\wpa_supplicant\src/common/defs.h **** {
 108:..\..\..\..\wpa_supplicant\src/common/defs.h **** 	return !!(akm & WPA_KEY_MGMT_FT_PSK);
 109:..\..\..\..\wpa_supplicant\src/common/defs.h **** }
 110:..\..\..\..\wpa_supplicant\src/common/defs.h **** 
 111:..\..\..\..\wpa_supplicant\src/common/defs.h **** static inline int wpa_key_mgmt_sae(int akm)
 112:..\..\..\..\wpa_supplicant\src/common/defs.h **** {
 113:..\..\..\..\wpa_supplicant\src/common/defs.h **** 	return !!(akm & (WPA_KEY_MGMT_SAE |
 3017              		.loc 6 113 2 is_stmt 1
 3018              		.loc 6 113 16 is_stmt 0
 3019 002e 8327C414 		lw	a5,332(s0)
 3020 0032 0567     		li	a4,4096
 3021 0034 130707C0 		addi	a4,a4,-1024
 3022 0038 F98F     		and	a5,a5,a4
 3023              	.LBE115:
 3024              	.LBE114:
 484:C:/Users/stapi/OneDrive/Desktop/GD32VW553/V1_MQTT_OK/GD32VW55X_Wifi_BLE_SDK/GD32VW55x_RELEASE_V1.0.2/MSDK/wpa_supplicant/src/ap\ap_config.c **** 	    !wpa_key_mgmt_sae(conf->wpa_key_mgmt))
 3025              		.loc 2 484 25
 3026 003a EDD3     		beq	a5,zero,.L284
 3027              	.LVL293:
 3028              	.LBB116:
 3029              	.LBB117:
 488:C:/Users/stapi/OneDrive/Desktop/GD32VW553/V1_MQTT_OK/GD32VW55X_Wifi_BLE_SDK/GD32VW55x_RELEASE_V1.0.2/MSDK/wpa_supplicant/src/ap\ap_config.c **** 	ssid->pt = NULL;
 3030              		.loc 2 488 2 is_stmt 1
 3031 003c 0325840F 		lw	a0,248(s0)
 3032 0040 97000000 		call	sae_deinit_pt
 3032      E7800000 
 3033              	.LVL294:
 489:C:/Users/stapi/OneDrive/Desktop/GD32VW553/V1_MQTT_OK/GD32VW55X_Wifi_BLE_SDK/GD32VW55x_RELEASE_V1.0.2/MSDK/wpa_supplicant/src/ap\ap_config.c **** 	if (ssid->wpa_passphrase) {
 3034              		.loc 2 489 2
 490:C:/Users/stapi/OneDrive/Desktop/GD32VW553/V1_MQTT_OK/GD32VW55X_Wifi_BLE_SDK/GD32VW55x_RELEASE_V1.0.2/MSDK/wpa_supplicant/src/ap\ap_config.c **** 		ssid->pt = sae_derive_pt(conf->sae_groups, ssid->ssid,
 3035              		.loc 2 490 10 is_stmt 0
 3036 0048 8326040F 		lw	a3,240(s0)
 489:C:/Users/stapi/OneDrive/Desktop/GD32VW553/V1_MQTT_OK/GD32VW55X_Wifi_BLE_SDK/GD32VW55x_RELEASE_V1.0.2/MSDK/wpa_supplicant/src/ap\ap_config.c **** 	if (ssid->wpa_passphrase) {
 3037              		.loc 2 489 11
 3038 004c 232C040E 		sw	zero,248(s0)
 490:C:/Users/stapi/OneDrive/Desktop/GD32VW553/V1_MQTT_OK/GD32VW55X_Wifi_BLE_SDK/GD32VW55x_RELEASE_V1.0.2/MSDK/wpa_supplicant/src/ap\ap_config.c **** 		ssid->pt = sae_derive_pt(conf->sae_groups, ssid->ssid,
 3039              		.loc 2 490 2 is_stmt 1
 490:C:/Users/stapi/OneDrive/Desktop/GD32VW553/V1_MQTT_OK/GD32VW55X_Wifi_BLE_SDK/GD32VW55x_RELEASE_V1.0.2/MSDK/wpa_supplicant/src/ap\ap_config.c **** 		ssid->pt = sae_derive_pt(conf->sae_groups, ssid->ssid,
 3040              		.loc 2 490 5 is_stmt 0
 3041 0050 A9E6     		bne	a3,zero,.L285
 3042              	.L287:
 500:C:/Users/stapi/OneDrive/Desktop/GD32VW553/V1_MQTT_OK/GD32VW55X_Wifi_BLE_SDK/GD32VW55x_RELEASE_V1.0.2/MSDK/wpa_supplicant/src/ap\ap_config.c **** 		sae_deinit_pt(pw->pt);
 3043              		.loc 2 500 2 is_stmt 1
 500:C:/Users/stapi/OneDrive/Desktop/GD32VW553/V1_MQTT_OK/GD32VW55X_Wifi_BLE_SDK/GD32VW55x_RELEASE_V1.0.2/MSDK/wpa_supplicant/src/ap\ap_config.c **** 		sae_deinit_pt(pw->pt);
 3044              		.loc 2 500 10 is_stmt 0
 3045 0052 83244439 		lw	s1,916(s0)
 3046              	.LVL295:
 502:C:/Users/stapi/OneDrive/Desktop/GD32VW553/V1_MQTT_OK/GD32VW55X_Wifi_BLE_SDK/GD32VW55x_RELEASE_V1.0.2/MSDK/wpa_supplicant/src/ap\ap_config.c **** 				       ssid->ssid_len,
 3047              		.loc 2 502 48
 3048 0056 1309840B 		addi	s2,s0,184
 3049              	.L286:
 500:C:/Users/stapi/OneDrive/Desktop/GD32VW553/V1_MQTT_OK/GD32VW55X_Wifi_BLE_SDK/GD32VW55x_RELEASE_V1.0.2/MSDK/wpa_supplicant/src/ap\ap_config.c **** 		sae_deinit_pt(pw->pt);
 3050              		.loc 2 500 33 is_stmt 1
 500:C:/Users/stapi/OneDrive/Desktop/GD32VW553/V1_MQTT_OK/GD32VW55X_Wifi_BLE_SDK/GD32VW55x_RELEASE_V1.0.2/MSDK/wpa_supplicant/src/ap\ap_config.c **** 		sae_deinit_pt(pw->pt);
 3051              		.loc 2 500 2 is_stmt 0
 3052 005a E9D0     		beq	s1,zero,.L284
 501:C:/Users/stapi/OneDrive/Desktop/GD32VW553/V1_MQTT_OK/GD32VW55X_Wifi_BLE_SDK/GD32VW55x_RELEASE_V1.0.2/MSDK/wpa_supplicant/src/ap\ap_config.c **** 		pw->pt = sae_derive_pt(conf->sae_groups, ssid->ssid,
 3053              		.loc 2 501 3 is_stmt 1
 3054 005c 884C     		lw	a0,24(s1)
 3055 005e 97000000 		call	sae_deinit_pt
 3055      E7800000 
 3056              	.LVL296:
 502:C:/Users/stapi/OneDrive/Desktop/GD32VW553/V1_MQTT_OK/GD32VW55X_Wifi_BLE_SDK/GD32VW55x_RELEASE_V1.0.2/MSDK/wpa_supplicant/src/ap\ap_config.c **** 				       ssid->ssid_len,
 3057              		.loc 2 502 3
 504:C:/Users/stapi/OneDrive/Desktop/GD32VW553/V1_MQTT_OK/GD32VW55X_Wifi_BLE_SDK/GD32VW55x_RELEASE_V1.0.2/MSDK/wpa_supplicant/src/ap\ap_config.c **** 				       os_strlen(pw->password),
 3058              		.loc 2 504 27 is_stmt 0
 3059 0066 D440     		lw	a3,4(s1)
 502:C:/Users/stapi/OneDrive/Desktop/GD32VW553/V1_MQTT_OK/GD32VW55X_Wifi_BLE_SDK/GD32VW55x_RELEASE_V1.0.2/MSDK/wpa_supplicant/src/ap\ap_config.c **** 				       ssid->ssid_len,
 3060              		.loc 2 502 12
 3061 0068 0326840D 		lw	a2,216(s0)
 3062 006c 83290439 		lw	s3,912(s0)
 3063 0070 3685     		mv	a0,a3
 3064 0072 32C6     		sw	a2,12(sp)
 3065 0074 36C4     		sw	a3,8(sp)
 3066 0076 97000000 		call	os_strlen
 3066      E7800000 
 3067              	.LVL297:
 3068 007e 9C44     		lw	a5,8(s1)
 3069 0080 A246     		lw	a3,8(sp)
 3070 0082 3246     		lw	a2,12(sp)
 3071 0084 2A87     		mv	a4,a0
 3072 0086 CA85     		mv	a1,s2
 3073 0088 4E85     		mv	a0,s3
 3074 008a 97000000 		call	sae_derive_pt
 3074      E7800000 
 3075              	.LVL298:
 502:C:/Users/stapi/OneDrive/Desktop/GD32VW553/V1_MQTT_OK/GD32VW55X_Wifi_BLE_SDK/GD32VW55x_RELEASE_V1.0.2/MSDK/wpa_supplicant/src/ap\ap_config.c **** 				       ssid->ssid_len,
 3076              		.loc 2 502 10
 3077 0092 88CC     		sw	a0,24(s1)
 507:C:/Users/stapi/OneDrive/Desktop/GD32VW553/V1_MQTT_OK/GD32VW55X_Wifi_BLE_SDK/GD32VW55x_RELEASE_V1.0.2/MSDK/wpa_supplicant/src/ap\ap_config.c **** 			return -1;
 3078              		.loc 2 507 3 is_stmt 1
 507:C:/Users/stapi/OneDrive/Desktop/GD32VW553/V1_MQTT_OK/GD32VW55X_Wifi_BLE_SDK/GD32VW55x_RELEASE_V1.0.2/MSDK/wpa_supplicant/src/ap\ap_config.c **** 			return -1;
 3079              		.loc 2 507 6 is_stmt 0
 3080 0094 05CD     		beq	a0,zero,.L288
 500:C:/Users/stapi/OneDrive/Desktop/GD32VW553/V1_MQTT_OK/GD32VW55X_Wifi_BLE_SDK/GD32VW55x_RELEASE_V1.0.2/MSDK/wpa_supplicant/src/ap\ap_config.c **** 		sae_deinit_pt(pw->pt);
 3081              		.loc 2 500 37 is_stmt 1
 500:C:/Users/stapi/OneDrive/Desktop/GD32VW553/V1_MQTT_OK/GD32VW55X_Wifi_BLE_SDK/GD32VW55x_RELEASE_V1.0.2/MSDK/wpa_supplicant/src/ap\ap_config.c **** 		sae_deinit_pt(pw->pt);
 3082              		.loc 2 500 40 is_stmt 0
 3083 0096 8440     		lw	s1,0(s1)
 3084              	.LVL299:
 3085 0098 C9B7     		j	.L286
 3086              	.LVL300:
 3087              	.L285:
 491:C:/Users/stapi/OneDrive/Desktop/GD32VW553/V1_MQTT_OK/GD32VW55X_Wifi_BLE_SDK/GD32VW55x_RELEASE_V1.0.2/MSDK/wpa_supplicant/src/ap\ap_config.c **** 					 ssid->ssid_len,
 3088              		.loc 2 491 3 is_stmt 1
 491:C:/Users/stapi/OneDrive/Desktop/GD32VW553/V1_MQTT_OK/GD32VW55X_Wifi_BLE_SDK/GD32VW55x_RELEASE_V1.0.2/MSDK/wpa_supplicant/src/ap\ap_config.c **** 					 ssid->ssid_len,
 3089              		.loc 2 491 14 is_stmt 0
 3090 009a 0326840D 		lw	a2,216(s0)
 3091 009e 3685     		mv	a0,a3
 3092 00a0 83240439 		lw	s1,912(s0)
 3093 00a4 32C6     		sw	a2,12(sp)
 3094 00a6 36C4     		sw	a3,8(sp)
 3095 00a8 97000000 		call	os_strlen
 3095      E7800000 
 3096              	.LVL301:
 3097 00b0 A246     		lw	a3,8(sp)
 3098 00b2 3246     		lw	a2,12(sp)
 3099 00b4 2A87     		mv	a4,a0
 3100 00b6 8147     		li	a5,0
 3101 00b8 9305840B 		addi	a1,s0,184
 3102 00bc 2685     		mv	a0,s1
 3103 00be 97000000 		call	sae_derive_pt
 3103      E7800000 
 3104              	.LVL302:
 491:C:/Users/stapi/OneDrive/Desktop/GD32VW553/V1_MQTT_OK/GD32VW55X_Wifi_BLE_SDK/GD32VW55x_RELEASE_V1.0.2/MSDK/wpa_supplicant/src/ap\ap_config.c **** 					 ssid->ssid_len,
 3105              		.loc 2 491 12
 3106 00c6 232CA40E 		sw	a0,248(s0)
 496:C:/Users/stapi/OneDrive/Desktop/GD32VW553/V1_MQTT_OK/GD32VW55X_Wifi_BLE_SDK/GD32VW55x_RELEASE_V1.0.2/MSDK/wpa_supplicant/src/ap\ap_config.c **** 			return -1;
 3107              		.loc 2 496 3 is_stmt 1
 496:C:/Users/stapi/OneDrive/Desktop/GD32VW553/V1_MQTT_OK/GD32VW55X_Wifi_BLE_SDK/GD32VW55x_RELEASE_V1.0.2/MSDK/wpa_supplicant/src/ap\ap_config.c **** 			return -1;
 3108              		.loc 2 496 6 is_stmt 0
 3109 00ca 41F5     		bne	a0,zero,.L287
 3110              	.L288:
 497:C:/Users/stapi/OneDrive/Desktop/GD32VW553/V1_MQTT_OK/GD32VW55X_Wifi_BLE_SDK/GD32VW55x_RELEASE_V1.0.2/MSDK/wpa_supplicant/src/ap\ap_config.c **** 	}
 3111              		.loc 2 497 11
 3112 00cc 7D55     		li	a0,-1
 3113 00ce 81BF     		j	.L280
 3114              	.LBE117:
 3115              	.LBE116:
 3116              		.cfi_endproc
 3117              	.LFE143:
 3119              		.section	.rodata.hostapd_setup_wpa_psk.str1.4,"aMS",@progbits,1
 3120              		.align	2
 3121              	.LC21:
 3122 0000 00       		.string	""
 3123 0001 000000   		.align	2
 3124              	.LC22:
 3125 0004 5573696E 		.string	"Using pre-configured WPA PSK instead of passphrase"
 3125      67207072 
 3125      652D636F 
 3125      6E666967 
 3125      75726564 
 3126 0037 00       		.align	2
 3127              	.LC23:
 3128 0038 44657269 		.string	"Deriving WPA PSK based on passphrase"
 3128      76696E67 
 3128      20575041 
 3128      2050534B 
 3128      20626173 
 3129 005d 000000   		.align	2
 3130              	.LC24:
 3131 0060 556E6162 		.string	"Unable to alloc space for PSK"
 3131      6C652074 
 3131      6F20616C 
 3131      6C6F6320 
 3131      73706163 
 3132 007e 0000     		.align	2
 3133              	.LC25:
 3134 0080 53534944 		.string	"SSID"
 3134      00
 3135 0085 000000   		.align	2
 3136              	.LC26:
 3137 0088 50534B20 		.string	"PSK (ASCII passphrase)"
 3137      28415343 
 3137      49492070 
 3137      61737370 
 3137      68726173 
 3138 009f 00       		.align	2
 3139              	.LC27:
 3140 00a0 50534B20 		.string	"PSK (from passphrase)"
 3140      2866726F 
 3140      6D207061 
 3140      73737068 
 3140      72617365 
 3141 00b6 0000     		.align	2
 3142              	.LC28:
 3143 00b8 7200     		.string	"r"
 3144 00ba 0000     		.align	2
 3145              	.LC29:
 3146 00bc 57504120 		.string	"WPA PSK file '%s' not found."
 3146      50534B20 
 3146      66696C65 
 3146      20272573 
 3146      27206E6F 
 3147 00d9 000000   		.align	2
 3148              	.LC30:
 3149 00dc 3D00     		.string	"="
 3150 00de 0000     		.align	2
 3151              	.LC31:
 3152 00e0 6B657969 		.string	"keyid"
 3152      6400
 3153 00e6 0000     		.align	2
 3154              	.LC32:
 3155 00e8 77707300 		.string	"wps"
 3156              		.align	2
 3157              	.LC33:
 3158 00ec 766C616E 		.string	"vlanid"
 3158      696400
 3159 00f3 00       		.align	2
 3160              	.LC34:
 3161 00f4 556E7265 		.string	"Unrecognized '%s=%s' on line %d in '%s'"
 3161      636F676E 
 3161      697A6564 
 3161      20272573 
 3161      3D257327 
 3162              		.align	2
 3163              	.LC35:
 3164 011c 2000     		.string	" "
 3165 011e 0000     		.align	2
 3166              	.LC36:
 3167 0120 496E7661 		.string	"Invalid MAC address '%s' on line %d in '%s'"
 3167      6C696420 
 3167      4D414320 
 3167      61646472 
 3167      65737320 
 3168              		.align	2
 3169              	.LC37:
 3170 014c 57504120 		.string	"WPA PSK allocation failed"
 3170      50534B20 
 3170      616C6C6F 
 3170      63617469 
 3170      6F6E2066 
 3171 0166 0000     		.align	2
 3172              	.LC38:
 3173 0168 4E6F2050 		.string	"No PSK on line %d in '%s'"
 3173      534B206F 
 3173      6E206C69 
 3173      6E652025 
 3173      6420696E 
 3174 0182 0000     		.align	2
 3175              	.LC39:
 3176 0184 496E7661 		.string	"Invalid PSK '%s' on line %d in '%s'"
 3176      6C696420 
 3176      50534B20 
 3176      27257327 
 3176      206F6E20 
 3177              		.align	2
 3178              	.LC40:
 3179 01a8 50534B20 		.string	"PSK keyid too long on line %d in '%s'"
 3179      6B657969 
 3179      6420746F 
 3179      6F206C6F 
 3179      6E67206F 
 3180              		.section	.text.hostapd_setup_wpa_psk,"ax",@progbits
 3181              		.align	1
 3182              		.globl	hostapd_setup_wpa_psk
 3184              	hostapd_setup_wpa_psk:
 3185              	.LFB144:
 517:C:/Users/stapi/OneDrive/Desktop/GD32VW553/V1_MQTT_OK/GD32VW55X_Wifi_BLE_SDK/GD32VW55x_RELEASE_V1.0.2/MSDK/wpa_supplicant/src/ap\ap_config.c **** 	struct hostapd_ssid *ssid = &conf->ssid;
 3186              		.loc 2 517 1 is_stmt 1
 3187              		.cfi_startproc
 3188              	.LVL303:
 3189 0000 17030000 		call	t0,__riscv_save_12
 3189      E7020300 
 3190              		.cfi_offset 27, -52
 3191              		.cfi_offset 26, -48
 3192              		.cfi_offset 25, -44
 3193              		.cfi_offset 24, -40
 3194              		.cfi_offset 23, -36
 3195              		.cfi_offset 22, -32
 3196              		.cfi_offset 21, -28
 3197              		.cfi_offset 20, -24
 3198              		.cfi_offset 19, -20
 3199              		.cfi_offset 18, -16
 3200              		.cfi_offset 9, -12
 3201              		.cfi_offset 8, -8
 3202              		.cfi_offset 1, -4
 3203              		.cfi_def_cfa_offset 64
 518:C:/Users/stapi/OneDrive/Desktop/GD32VW553/V1_MQTT_OK/GD32VW55X_Wifi_BLE_SDK/GD32VW55x_RELEASE_V1.0.2/MSDK/wpa_supplicant/src/ap\ap_config.c **** 
 3204              		.loc 2 518 2
 517:C:/Users/stapi/OneDrive/Desktop/GD32VW553/V1_MQTT_OK/GD32VW55X_Wifi_BLE_SDK/GD32VW55x_RELEASE_V1.0.2/MSDK/wpa_supplicant/src/ap\ap_config.c **** 	struct hostapd_ssid *ssid = &conf->ssid;
 3205              		.loc 2 517 1 is_stmt 0
 3206 0008 3571     		addi	sp,sp,-160
 3207              		.cfi_def_cfa_offset 224
 517:C:/Users/stapi/OneDrive/Desktop/GD32VW553/V1_MQTT_OK/GD32VW55X_Wifi_BLE_SDK/GD32VW55x_RELEASE_V1.0.2/MSDK/wpa_supplicant/src/ap\ap_config.c **** 	struct hostapd_ssid *ssid = &conf->ssid;
 3208              		.loc 2 517 1
 3209 000a 2A84     		mv	s0,a0
 518:C:/Users/stapi/OneDrive/Desktop/GD32VW553/V1_MQTT_OK/GD32VW55X_Wifi_BLE_SDK/GD32VW55x_RELEASE_V1.0.2/MSDK/wpa_supplicant/src/ap\ap_config.c **** 
 3210              		.loc 2 518 23
 3211 000c 130C850B 		addi	s8,a0,184
 3212              	.LVL304:
 520:C:/Users/stapi/OneDrive/Desktop/GD32VW553/V1_MQTT_OK/GD32VW55X_Wifi_BLE_SDK/GD32VW55x_RELEASE_V1.0.2/MSDK/wpa_supplicant/src/ap\ap_config.c **** 		return -1;
 3213              		.loc 2 520 2 is_stmt 1
 520:C:/Users/stapi/OneDrive/Desktop/GD32VW553/V1_MQTT_OK/GD32VW55X_Wifi_BLE_SDK/GD32VW55x_RELEASE_V1.0.2/MSDK/wpa_supplicant/src/ap\ap_config.c **** 		return -1;
 3214              		.loc 2 520 6 is_stmt 0
 3215 0010 97000000 		call	hostapd_setup_sae_pt
 3215      E7800000 
 3216              	.LVL305:
 520:C:/Users/stapi/OneDrive/Desktop/GD32VW553/V1_MQTT_OK/GD32VW55X_Wifi_BLE_SDK/GD32VW55x_RELEASE_V1.0.2/MSDK/wpa_supplicant/src/ap\ap_config.c **** 		return -1;
 3217              		.loc 2 520 5
 3218 0018 634D0508 		blt	a0,zero,.L330
 523:C:/Users/stapi/OneDrive/Desktop/GD32VW553/V1_MQTT_OK/GD32VW55X_Wifi_BLE_SDK/GD32VW55x_RELEASE_V1.0.2/MSDK/wpa_supplicant/src/ap\ap_config.c **** 		if (ssid->wpa_psk != NULL) {
 3219              		.loc 2 523 2 is_stmt 1
 523:C:/Users/stapi/OneDrive/Desktop/GD32VW553/V1_MQTT_OK/GD32VW55X_Wifi_BLE_SDK/GD32VW55x_RELEASE_V1.0.2/MSDK/wpa_supplicant/src/ap\ap_config.c **** 		if (ssid->wpa_psk != NULL) {
 3220              		.loc 2 523 5 is_stmt 0
 3221 001c 8327040F 		lw	a5,240(s0)
 3222 0020 8DC3     		beq	a5,zero,.L299
 524:C:/Users/stapi/OneDrive/Desktop/GD32VW553/V1_MQTT_OK/GD32VW55X_Wifi_BLE_SDK/GD32VW55x_RELEASE_V1.0.2/MSDK/wpa_supplicant/src/ap\ap_config.c **** 			wpa_printf(MSG_DEBUG, "Using pre-configured WPA PSK "
 3223              		.loc 2 524 3 is_stmt 1
 524:C:/Users/stapi/OneDrive/Desktop/GD32VW553/V1_MQTT_OK/GD32VW55X_Wifi_BLE_SDK/GD32VW55x_RELEASE_V1.0.2/MSDK/wpa_supplicant/src/ap\ap_config.c **** 			wpa_printf(MSG_DEBUG, "Using pre-configured WPA PSK "
 3224              		.loc 2 524 6 is_stmt 0
 3225 0022 8327C40E 		lw	a5,236(s0)
 3226 0026 B9CB     		beq	a5,zero,.L300
 525:C:/Users/stapi/OneDrive/Desktop/GD32VW553/V1_MQTT_OK/GD32VW55X_Wifi_BLE_SDK/GD32VW55x_RELEASE_V1.0.2/MSDK/wpa_supplicant/src/ap\ap_config.c **** 				   "instead of passphrase");
 3227              		.loc 2 525 4 is_stmt 1
 3228 0028 B7050000 		lui	a1,%hi(.LC22)
 3229 002c 93850500 		addi	a1,a1,%lo(.LC22)
 3230 0030 0945     		li	a0,2
 3231 0032 97000000 		call	wpa_printf
 3231      E7800000 
 3232              	.LVL306:
 3233              	.L301:
 533:C:/Users/stapi/OneDrive/Desktop/GD32VW553/V1_MQTT_OK/GD32VW55X_Wifi_BLE_SDK/GD32VW55x_RELEASE_V1.0.2/MSDK/wpa_supplicant/src/ap\ap_config.c **** 	}
 3234              		.loc 2 533 3
 533:C:/Users/stapi/OneDrive/Desktop/GD32VW553/V1_MQTT_OK/GD32VW55X_Wifi_BLE_SDK/GD32VW55x_RELEASE_V1.0.2/MSDK/wpa_supplicant/src/ap\ap_config.c **** 	}
 3235              		.loc 2 533 24 is_stmt 0
 3236 003a 8327C40E 		lw	a5,236(s0)
 3237 003e 0547     		li	a4,1
 3238 0040 D8C3     		sw	a4,4(a5)
 3239              	.L299:
 536:C:/Users/stapi/OneDrive/Desktop/GD32VW553/V1_MQTT_OK/GD32VW55X_Wifi_BLE_SDK/GD32VW55x_RELEASE_V1.0.2/MSDK/wpa_supplicant/src/ap\ap_config.c **** }
 3240              		.loc 2 536 2 is_stmt 1
 536:C:/Users/stapi/OneDrive/Desktop/GD32VW553/V1_MQTT_OK/GD32VW55X_Wifi_BLE_SDK/GD32VW55x_RELEASE_V1.0.2/MSDK/wpa_supplicant/src/ap\ap_config.c **** }
 3241              		.loc 2 536 41 is_stmt 0
 3242 0042 8324440F 		lw	s1,244(s0)
 3243              	.LVL307:
 3244              	.LBB123:
 3245              	.LBB124:
 312:C:/Users/stapi/OneDrive/Desktop/GD32VW553/V1_MQTT_OK/GD32VW55X_Wifi_BLE_SDK/GD32VW55x_RELEASE_V1.0.2/MSDK/wpa_supplicant/src/ap\ap_config.c **** 	char buf[128], *pos;
 3246              		.loc 2 312 2 is_stmt 1
 313:C:/Users/stapi/OneDrive/Desktop/GD32VW553/V1_MQTT_OK/GD32VW55X_Wifi_BLE_SDK/GD32VW55x_RELEASE_V1.0.2/MSDK/wpa_supplicant/src/ap\ap_config.c **** 	const char *keyid;
 3247              		.loc 2 313 2
 314:C:/Users/stapi/OneDrive/Desktop/GD32VW553/V1_MQTT_OK/GD32VW55X_Wifi_BLE_SDK/GD32VW55x_RELEASE_V1.0.2/MSDK/wpa_supplicant/src/ap\ap_config.c **** 	char *context;
 3248              		.loc 2 314 2
 315:C:/Users/stapi/OneDrive/Desktop/GD32VW553/V1_MQTT_OK/GD32VW55X_Wifi_BLE_SDK/GD32VW55x_RELEASE_V1.0.2/MSDK/wpa_supplicant/src/ap\ap_config.c **** 	char *context2;
 3249              		.loc 2 315 2
 316:C:/Users/stapi/OneDrive/Desktop/GD32VW553/V1_MQTT_OK/GD32VW55X_Wifi_BLE_SDK/GD32VW55x_RELEASE_V1.0.2/MSDK/wpa_supplicant/src/ap\ap_config.c **** 	char *token;
 3250              		.loc 2 316 2
 317:C:/Users/stapi/OneDrive/Desktop/GD32VW553/V1_MQTT_OK/GD32VW55X_Wifi_BLE_SDK/GD32VW55x_RELEASE_V1.0.2/MSDK/wpa_supplicant/src/ap\ap_config.c **** 	char *name;
 3251              		.loc 2 317 2
 318:C:/Users/stapi/OneDrive/Desktop/GD32VW553/V1_MQTT_OK/GD32VW55X_Wifi_BLE_SDK/GD32VW55x_RELEASE_V1.0.2/MSDK/wpa_supplicant/src/ap\ap_config.c **** 	char *value;
 3252              		.loc 2 318 2
 319:C:/Users/stapi/OneDrive/Desktop/GD32VW553/V1_MQTT_OK/GD32VW55X_Wifi_BLE_SDK/GD32VW55x_RELEASE_V1.0.2/MSDK/wpa_supplicant/src/ap\ap_config.c **** 	int line = 0, ret = 0, len, ok;
 3253              		.loc 2 319 2
 320:C:/Users/stapi/OneDrive/Desktop/GD32VW553/V1_MQTT_OK/GD32VW55X_Wifi_BLE_SDK/GD32VW55x_RELEASE_V1.0.2/MSDK/wpa_supplicant/src/ap\ap_config.c **** 	u8 addr[ETH_ALEN];
 3254              		.loc 2 320 2
 321:C:/Users/stapi/OneDrive/Desktop/GD32VW553/V1_MQTT_OK/GD32VW55X_Wifi_BLE_SDK/GD32VW55x_RELEASE_V1.0.2/MSDK/wpa_supplicant/src/ap\ap_config.c **** 	struct hostapd_wpa_psk *psk;
 3255              		.loc 2 321 2
 322:C:/Users/stapi/OneDrive/Desktop/GD32VW553/V1_MQTT_OK/GD32VW55X_Wifi_BLE_SDK/GD32VW55x_RELEASE_V1.0.2/MSDK/wpa_supplicant/src/ap\ap_config.c **** 
 3256              		.loc 2 322 2
 324:C:/Users/stapi/OneDrive/Desktop/GD32VW553/V1_MQTT_OK/GD32VW55X_Wifi_BLE_SDK/GD32VW55x_RELEASE_V1.0.2/MSDK/wpa_supplicant/src/ap\ap_config.c **** 		return 0;
 3257              		.loc 2 324 2
 325:C:/Users/stapi/OneDrive/Desktop/GD32VW553/V1_MQTT_OK/GD32VW55X_Wifi_BLE_SDK/GD32VW55x_RELEASE_V1.0.2/MSDK/wpa_supplicant/src/ap\ap_config.c **** 
 3258              		.loc 2 325 10 is_stmt 0
 3259 0046 0149     		li	s2,0
 324:C:/Users/stapi/OneDrive/Desktop/GD32VW553/V1_MQTT_OK/GD32VW55X_Wifi_BLE_SDK/GD32VW55x_RELEASE_V1.0.2/MSDK/wpa_supplicant/src/ap\ap_config.c **** 		return 0;
 3260              		.loc 2 324 5
 3261 0048 63870422 		beq	s1,zero,.L297
 327:C:/Users/stapi/OneDrive/Desktop/GD32VW553/V1_MQTT_OK/GD32VW55X_Wifi_BLE_SDK/GD32VW55x_RELEASE_V1.0.2/MSDK/wpa_supplicant/src/ap\ap_config.c **** 	if (!f) {
 3262              		.loc 2 327 2 is_stmt 1
 327:C:/Users/stapi/OneDrive/Desktop/GD32VW553/V1_MQTT_OK/GD32VW55X_Wifi_BLE_SDK/GD32VW55x_RELEASE_V1.0.2/MSDK/wpa_supplicant/src/ap\ap_config.c **** 	if (!f) {
 3263              		.loc 2 327 6 is_stmt 0
 3264 004c B7050000 		lui	a1,%hi(.LC28)
 3265 0050 93850500 		addi	a1,a1,%lo(.LC28)
 3266 0054 2685     		mv	a0,s1
 3267 0056 97000000 		call	fopen
 3267      E7800000 
 3268              	.LVL308:
 3269 005e 2A8A     		mv	s4,a0
 3270              	.LVL309:
 328:C:/Users/stapi/OneDrive/Desktop/GD32VW553/V1_MQTT_OK/GD32VW55X_Wifi_BLE_SDK/GD32VW55x_RELEASE_V1.0.2/MSDK/wpa_supplicant/src/ap\ap_config.c **** 		wpa_printf(MSG_ERROR, "WPA PSK file '%s' not found.", fname);
 3271              		.loc 2 328 2 is_stmt 1
 328:C:/Users/stapi/OneDrive/Desktop/GD32VW553/V1_MQTT_OK/GD32VW55X_Wifi_BLE_SDK/GD32VW55x_RELEASE_V1.0.2/MSDK/wpa_supplicant/src/ap\ap_config.c **** 		wpa_printf(MSG_ERROR, "WPA PSK file '%s' not found.", fname);
 3272              		.loc 2 328 5 is_stmt 0
 3273 0060 71C5     		beq	a0,zero,.L355
 3274              	.LBB125:
 361:C:/Users/stapi/OneDrive/Desktop/GD32VW553/V1_MQTT_OK/GD32VW55X_Wifi_BLE_SDK/GD32VW55x_RELEASE_V1.0.2/MSDK/wpa_supplicant/src/ap\ap_config.c **** 			if (!value)
 3275              		.loc 2 361 12
 3276 0062 B70A0000 		lui	s5,%hi(.LC21)
 3277              	.LVL310:
 3278              	.L304:
 3279              	.LBE125:
 333:C:/Users/stapi/OneDrive/Desktop/GD32VW553/V1_MQTT_OK/GD32VW55X_Wifi_BLE_SDK/GD32VW55x_RELEASE_V1.0.2/MSDK/wpa_supplicant/src/ap\ap_config.c **** 		int vlan_id = 0;
 3280              		.loc 2 333 8 is_stmt 1
 333:C:/Users/stapi/OneDrive/Desktop/GD32VW553/V1_MQTT_OK/GD32VW55X_Wifi_BLE_SDK/GD32VW55x_RELEASE_V1.0.2/MSDK/wpa_supplicant/src/ap\ap_config.c **** 		int vlan_id = 0;
 3281              		.loc 2 333 9 is_stmt 0
 3282 0066 5286     		mv	a2,s4
 3283 0068 93050008 		li	a1,128
 3284 006c 0810     		addi	a0,sp,32
 3285 006e 97000000 		call	fgets
 3285      E7800000 
 3286              	.LVL311:
 333:C:/Users/stapi/OneDrive/Desktop/GD32VW553/V1_MQTT_OK/GD32VW55X_Wifi_BLE_SDK/GD32VW55x_RELEASE_V1.0.2/MSDK/wpa_supplicant/src/ap\ap_config.c **** 		int vlan_id = 0;
 3287              		.loc 2 333 8
 3288 0076 71E5     		bne	a0,zero,.L329
 3289 0078 0149     		li	s2,0
 3290              	.LVL312:
 3291 007a CDAA     		j	.L318
 3292              	.LVL313:
 3293              	.L300:
 3294              	.LBE124:
 3295              	.LBE123:
 528:C:/Users/stapi/OneDrive/Desktop/GD32VW553/V1_MQTT_OK/GD32VW55X_Wifi_BLE_SDK/GD32VW55x_RELEASE_V1.0.2/MSDK/wpa_supplicant/src/ap\ap_config.c **** 				   "passphrase");
 3296              		.loc 2 528 4 is_stmt 1
 3297 007c B7050000 		lui	a1,%hi(.LC23)
 3298 0080 93850500 		addi	a1,a1,%lo(.LC23)
 3299 0084 0945     		li	a0,2
 3300 0086 97000000 		call	wpa_printf
 3300      E7800000 
 3301              	.LVL314:
 530:C:/Users/stapi/OneDrive/Desktop/GD32VW553/V1_MQTT_OK/GD32VW55X_Wifi_BLE_SDK/GD32VW55x_RELEASE_V1.0.2/MSDK/wpa_supplicant/src/ap\ap_config.c **** 				return -1;
 3302              		.loc 2 530 4
 3303              	.LBB130:
 3304              	.LBB131:
 457:C:/Users/stapi/OneDrive/Desktop/GD32VW553/V1_MQTT_OK/GD32VW55X_Wifi_BLE_SDK/GD32VW55x_RELEASE_V1.0.2/MSDK/wpa_supplicant/src/ap\ap_config.c **** 	if (ssid->wpa_psk == NULL) {
 3305              		.loc 2 457 2
 457:C:/Users/stapi/OneDrive/Desktop/GD32VW553/V1_MQTT_OK/GD32VW55X_Wifi_BLE_SDK/GD32VW55x_RELEASE_V1.0.2/MSDK/wpa_supplicant/src/ap\ap_config.c **** 	if (ssid->wpa_psk == NULL) {
 3306              		.loc 2 457 18 is_stmt 0
 3307 008e 1305C005 		li	a0,92
 3308 0092 97000000 		call	os_zalloc
 3308      E7800000 
 3309              	.LVL315:
 457:C:/Users/stapi/OneDrive/Desktop/GD32VW553/V1_MQTT_OK/GD32VW55X_Wifi_BLE_SDK/GD32VW55x_RELEASE_V1.0.2/MSDK/wpa_supplicant/src/ap\ap_config.c **** 	if (ssid->wpa_psk == NULL) {
 3310              		.loc 2 457 16
 3311 009a 2326A40E 		sw	a0,236(s0)
 458:C:/Users/stapi/OneDrive/Desktop/GD32VW553/V1_MQTT_OK/GD32VW55X_Wifi_BLE_SDK/GD32VW55x_RELEASE_V1.0.2/MSDK/wpa_supplicant/src/ap\ap_config.c **** 		wpa_printf(MSG_ERROR, "Unable to alloc space for PSK");
 3312              		.loc 2 458 2 is_stmt 1
 458:C:/Users/stapi/OneDrive/Desktop/GD32VW553/V1_MQTT_OK/GD32VW55X_Wifi_BLE_SDK/GD32VW55x_RELEASE_V1.0.2/MSDK/wpa_supplicant/src/ap\ap_config.c **** 		wpa_printf(MSG_ERROR, "Unable to alloc space for PSK");
 3313              		.loc 2 458 5 is_stmt 0
 3314 009e 01ED     		bne	a0,zero,.L302
 459:C:/Users/stapi/OneDrive/Desktop/GD32VW553/V1_MQTT_OK/GD32VW55X_Wifi_BLE_SDK/GD32VW55x_RELEASE_V1.0.2/MSDK/wpa_supplicant/src/ap\ap_config.c **** 		return -1;
 3315              		.loc 2 459 3 is_stmt 1
 3316 00a0 B7050000 		lui	a1,%hi(.LC24)
 3317 00a4 93850500 		addi	a1,a1,%lo(.LC24)
 3318 00a8 1545     		li	a0,5
 3319 00aa 97000000 		call	wpa_printf
 3319      E7800000 
 3320              	.LVL316:
 460:C:/Users/stapi/OneDrive/Desktop/GD32VW553/V1_MQTT_OK/GD32VW55X_Wifi_BLE_SDK/GD32VW55x_RELEASE_V1.0.2/MSDK/wpa_supplicant/src/ap\ap_config.c **** 	}
 3321              		.loc 2 460 3
 3322              	.L330:
 3323              	.LBE131:
 3324              	.LBE130:
 521:C:/Users/stapi/OneDrive/Desktop/GD32VW553/V1_MQTT_OK/GD32VW55X_Wifi_BLE_SDK/GD32VW55x_RELEASE_V1.0.2/MSDK/wpa_supplicant/src/ap\ap_config.c **** 
 3325              		.loc 2 521 10 is_stmt 0
 3326 00b2 7D59     		li	s2,-1
 3327 00b4 C9A2     		j	.L297
 3328              	.LVL317:
 3329              	.L302:
 3330              	.LBB133:
 3331              	.LBB132:
 462:C:/Users/stapi/OneDrive/Desktop/GD32VW553/V1_MQTT_OK/GD32VW55X_Wifi_BLE_SDK/GD32VW55x_RELEASE_V1.0.2/MSDK/wpa_supplicant/src/ap\ap_config.c **** 			  (u8 *) ssid->ssid, ssid->ssid_len);
 3332              		.loc 2 462 2 is_stmt 1
 3333 00b6 93040408 		addi	s1,s0,128
 3334 00ba B44C     		lw	a3,88(s1)
 3335 00bc B7050000 		lui	a1,%hi(.LC25)
 3336 00c0 6286     		mv	a2,s8
 3337 00c2 93850500 		addi	a1,a1,%lo(.LC25)
 3338 00c6 0945     		li	a0,2
 3339 00c8 97000000 		call	wpa_hexdump_ascii
 3339      E7800000 
 3340              	.LVL318:
 464:C:/Users/stapi/OneDrive/Desktop/GD32VW553/V1_MQTT_OK/GD32VW55X_Wifi_BLE_SDK/GD32VW55x_RELEASE_V1.0.2/MSDK/wpa_supplicant/src/ap\ap_config.c **** 			      (u8 *) ssid->wpa_passphrase,
 3341              		.loc 2 464 2
 465:C:/Users/stapi/OneDrive/Desktop/GD32VW553/V1_MQTT_OK/GD32VW55X_Wifi_BLE_SDK/GD32VW55x_RELEASE_V1.0.2/MSDK/wpa_supplicant/src/ap\ap_config.c **** 			      os_strlen(ssid->wpa_passphrase));
 3342              		.loc 2 465 21 is_stmt 0
 3343 00d0 B058     		lw	a2,112(s1)
 464:C:/Users/stapi/OneDrive/Desktop/GD32VW553/V1_MQTT_OK/GD32VW55X_Wifi_BLE_SDK/GD32VW55x_RELEASE_V1.0.2/MSDK/wpa_supplicant/src/ap\ap_config.c **** 			      (u8 *) ssid->wpa_passphrase,
 3344              		.loc 2 464 2
 3345 00d2 3285     		mv	a0,a2
 3346 00d4 32C6     		sw	a2,12(sp)
 3347 00d6 97000000 		call	os_strlen
 3347      E7800000 
 3348              	.LVL319:
 3349 00de 3246     		lw	a2,12(sp)
 3350 00e0 B7050000 		lui	a1,%hi(.LC26)
 3351 00e4 AA86     		mv	a3,a0
 3352 00e6 93850500 		addi	a1,a1,%lo(.LC26)
 3353 00ea 0945     		li	a0,2
 3354 00ec 97000000 		call	wpa_hexdump_ascii_key
 3354      E7800000 
 3355              	.LVL320:
 467:C:/Users/stapi/OneDrive/Desktop/GD32VW553/V1_MQTT_OK/GD32VW55X_Wifi_BLE_SDK/GD32VW55x_RELEASE_V1.0.2/MSDK/wpa_supplicant/src/ap\ap_config.c **** 		    ssid->ssid, ssid->ssid_len,
 3356              		.loc 2 467 2 is_stmt 1
 469:C:/Users/stapi/OneDrive/Desktop/GD32VW553/V1_MQTT_OK/GD32VW55X_Wifi_BLE_SDK/GD32VW55x_RELEASE_V1.0.2/MSDK/wpa_supplicant/src/ap\ap_config.c **** 	wpa_hexdump_key(MSG_DEBUG, "PSK (from passphrase)",
 3357              		.loc 2 469 26 is_stmt 0
 3358 00f4 F854     		lw	a4,108(s1)
 467:C:/Users/stapi/OneDrive/Desktop/GD32VW553/V1_MQTT_OK/GD32VW55X_Wifi_BLE_SDK/GD32VW55x_RELEASE_V1.0.2/MSDK/wpa_supplicant/src/ap\ap_config.c **** 		    ssid->ssid, ssid->ssid_len,
 3359              		.loc 2 467 2
 3360 00f6 B04C     		lw	a2,88(s1)
 3361 00f8 A858     		lw	a0,112(s1)
 3362 00fa E285     		mv	a1,s8
 3363 00fc 93070002 		li	a5,32
 3364 0100 1307C702 		addi	a4,a4,44
 3365 0104 8566     		li	a3,4096
 3366 0106 97000000 		call	pbkdf2_sha1
 3366      E7800000 
 3367              	.LVL321:
 470:C:/Users/stapi/OneDrive/Desktop/GD32VW553/V1_MQTT_OK/GD32VW55X_Wifi_BLE_SDK/GD32VW55x_RELEASE_V1.0.2/MSDK/wpa_supplicant/src/ap\ap_config.c **** 			ssid->wpa_psk->psk, PMK_LEN);
 3368              		.loc 2 470 2 is_stmt 1
 471:C:/Users/stapi/OneDrive/Desktop/GD32VW553/V1_MQTT_OK/GD32VW55X_Wifi_BLE_SDK/GD32VW55x_RELEASE_V1.0.2/MSDK/wpa_supplicant/src/ap\ap_config.c **** 	return 0;
 3369              		.loc 2 471 17 is_stmt 0
 3370 010e F054     		lw	a2,108(s1)
 470:C:/Users/stapi/OneDrive/Desktop/GD32VW553/V1_MQTT_OK/GD32VW55X_Wifi_BLE_SDK/GD32VW55x_RELEASE_V1.0.2/MSDK/wpa_supplicant/src/ap\ap_config.c **** 			ssid->wpa_psk->psk, PMK_LEN);
 3371              		.loc 2 470 2
 3372 0110 B7050000 		lui	a1,%hi(.LC27)
 3373 0114 93060002 		li	a3,32
 3374 0118 1306C602 		addi	a2,a2,44
 3375 011c 93850500 		addi	a1,a1,%lo(.LC27)
 3376 0120 0945     		li	a0,2
 3377 0122 97000000 		call	wpa_hexdump_key
 3377      E7800000 
 3378              	.LVL322:
 472:C:/Users/stapi/OneDrive/Desktop/GD32VW553/V1_MQTT_OK/GD32VW55X_Wifi_BLE_SDK/GD32VW55x_RELEASE_V1.0.2/MSDK/wpa_supplicant/src/ap\ap_config.c **** }
 3379              		.loc 2 472 2 is_stmt 1
 3380 012a 01BF     		j	.L301
 3381              	.LVL323:
 3382              	.L355:
 3383              	.LBE132:
 3384              	.LBE133:
 3385              	.LBB134:
 3386              	.LBB128:
 329:C:/Users/stapi/OneDrive/Desktop/GD32VW553/V1_MQTT_OK/GD32VW55X_Wifi_BLE_SDK/GD32VW55x_RELEASE_V1.0.2/MSDK/wpa_supplicant/src/ap\ap_config.c **** 		return -1;
 3387              		.loc 2 329 3
 3388 012c B7050000 		lui	a1,%hi(.LC29)
 3389 0130 2686     		mv	a2,s1
 3390 0132 93850500 		addi	a1,a1,%lo(.LC29)
 3391 0136 1545     		li	a0,5
 3392              	.LVL324:
 3393 0138 97000000 		call	wpa_printf
 3393      E7800000 
 3394              	.LVL325:
 330:C:/Users/stapi/OneDrive/Desktop/GD32VW553/V1_MQTT_OK/GD32VW55X_Wifi_BLE_SDK/GD32VW55x_RELEASE_V1.0.2/MSDK/wpa_supplicant/src/ap\ap_config.c **** 	}
 3395              		.loc 2 330 3
 3396 0140 8DBF     		j	.L330
 3397              	.LVL326:
 3398              	.L329:
 3399              	.LBB126:
 334:C:/Users/stapi/OneDrive/Desktop/GD32VW553/V1_MQTT_OK/GD32VW55X_Wifi_BLE_SDK/GD32VW55x_RELEASE_V1.0.2/MSDK/wpa_supplicant/src/ap\ap_config.c **** 		int wps = 0;
 3400              		.loc 2 334 3
 335:C:/Users/stapi/OneDrive/Desktop/GD32VW553/V1_MQTT_OK/GD32VW55X_Wifi_BLE_SDK/GD32VW55x_RELEASE_V1.0.2/MSDK/wpa_supplicant/src/ap\ap_config.c **** 
 3401              		.loc 2 335 3
 337:C:/Users/stapi/OneDrive/Desktop/GD32VW553/V1_MQTT_OK/GD32VW55X_Wifi_BLE_SDK/GD32VW55x_RELEASE_V1.0.2/MSDK/wpa_supplicant/src/ap\ap_config.c **** 
 3402              		.loc 2 337 3
 339:C:/Users/stapi/OneDrive/Desktop/GD32VW553/V1_MQTT_OK/GD32VW55X_Wifi_BLE_SDK/GD32VW55x_RELEASE_V1.0.2/MSDK/wpa_supplicant/src/ap\ap_config.c **** 			continue;
 3403              		.loc 2 339 6 is_stmt 0
 3404 0142 13073002 		li	a4,35
 337:C:/Users/stapi/OneDrive/Desktop/GD32VW553/V1_MQTT_OK/GD32VW55X_Wifi_BLE_SDK/GD32VW55x_RELEASE_V1.0.2/MSDK/wpa_supplicant/src/ap\ap_config.c **** 
 3405              		.loc 2 337 7
 3406 0146 0509     		addi	s2,s2,1
 3407              	.LVL327:
 339:C:/Users/stapi/OneDrive/Desktop/GD32VW553/V1_MQTT_OK/GD32VW55X_Wifi_BLE_SDK/GD32VW55x_RELEASE_V1.0.2/MSDK/wpa_supplicant/src/ap\ap_config.c **** 			continue;
 3408              		.loc 2 339 3 is_stmt 1
 341:C:/Users/stapi/OneDrive/Desktop/GD32VW553/V1_MQTT_OK/GD32VW55X_Wifi_BLE_SDK/GD32VW55x_RELEASE_V1.0.2/MSDK/wpa_supplicant/src/ap\ap_config.c **** 		while (*pos != '\0') {
 3409              		.loc 2 341 7 is_stmt 0
 3410 0148 1C10     		addi	a5,sp,32
 343:C:/Users/stapi/OneDrive/Desktop/GD32VW553/V1_MQTT_OK/GD32VW55X_Wifi_BLE_SDK/GD32VW55x_RELEASE_V1.0.2/MSDK/wpa_supplicant/src/ap\ap_config.c **** 				*pos = '\0';
 3411              		.loc 2 343 7
 3412 014a A946     		li	a3,10
 339:C:/Users/stapi/OneDrive/Desktop/GD32VW553/V1_MQTT_OK/GD32VW55X_Wifi_BLE_SDK/GD32VW55x_RELEASE_V1.0.2/MSDK/wpa_supplicant/src/ap\ap_config.c **** 			continue;
 3413              		.loc 2 339 6
 3414 014c 03060102 		lb	a2,32(sp)
 3415 0150 E30BE6F0 		beq	a2,a4,.L304
 3416              	.L305:
 3417              	.LVL328:
 342:C:/Users/stapi/OneDrive/Desktop/GD32VW553/V1_MQTT_OK/GD32VW55X_Wifi_BLE_SDK/GD32VW55x_RELEASE_V1.0.2/MSDK/wpa_supplicant/src/ap\ap_config.c **** 			if (*pos == '\n') {
 3418              		.loc 2 342 9 is_stmt 1
 342:C:/Users/stapi/OneDrive/Desktop/GD32VW553/V1_MQTT_OK/GD32VW55X_Wifi_BLE_SDK/GD32VW55x_RELEASE_V1.0.2/MSDK/wpa_supplicant/src/ap\ap_config.c **** 			if (*pos == '\n') {
 3419              		.loc 2 342 10 is_stmt 0
 3420 0154 03870700 		lb	a4,0(a5)
 342:C:/Users/stapi/OneDrive/Desktop/GD32VW553/V1_MQTT_OK/GD32VW55X_Wifi_BLE_SDK/GD32VW55x_RELEASE_V1.0.2/MSDK/wpa_supplicant/src/ap\ap_config.c **** 			if (*pos == '\n') {
 3421              		.loc 2 342 9
 3422 0158 09C7     		beq	a4,zero,.L308
 343:C:/Users/stapi/OneDrive/Desktop/GD32VW553/V1_MQTT_OK/GD32VW55X_Wifi_BLE_SDK/GD32VW55x_RELEASE_V1.0.2/MSDK/wpa_supplicant/src/ap\ap_config.c **** 				*pos = '\0';
 3423              		.loc 2 343 4 is_stmt 1
 343:C:/Users/stapi/OneDrive/Desktop/GD32VW553/V1_MQTT_OK/GD32VW55X_Wifi_BLE_SDK/GD32VW55x_RELEASE_V1.0.2/MSDK/wpa_supplicant/src/ap\ap_config.c **** 				*pos = '\0';
 3424              		.loc 2 343 7 is_stmt 0
 3425 015a 631FD704 		bne	a4,a3,.L307
 344:C:/Users/stapi/OneDrive/Desktop/GD32VW553/V1_MQTT_OK/GD32VW55X_Wifi_BLE_SDK/GD32VW55x_RELEASE_V1.0.2/MSDK/wpa_supplicant/src/ap\ap_config.c **** 				break;
 3426              		.loc 2 344 5 is_stmt 1
 344:C:/Users/stapi/OneDrive/Desktop/GD32VW553/V1_MQTT_OK/GD32VW55X_Wifi_BLE_SDK/GD32VW55x_RELEASE_V1.0.2/MSDK/wpa_supplicant/src/ap\ap_config.c **** 				break;
 3427              		.loc 2 344 10 is_stmt 0
 3428 015e 23800700 		sb	zero,0(a5)
 345:C:/Users/stapi/OneDrive/Desktop/GD32VW553/V1_MQTT_OK/GD32VW55X_Wifi_BLE_SDK/GD32VW55x_RELEASE_V1.0.2/MSDK/wpa_supplicant/src/ap\ap_config.c **** 			}
 3429              		.loc 2 345 5 is_stmt 1
 3430              	.L308:
 349:C:/Users/stapi/OneDrive/Desktop/GD32VW553/V1_MQTT_OK/GD32VW55X_Wifi_BLE_SDK/GD32VW55x_RELEASE_V1.0.2/MSDK/wpa_supplicant/src/ap\ap_config.c **** 			continue;
 3431              		.loc 2 349 3
 349:C:/Users/stapi/OneDrive/Desktop/GD32VW553/V1_MQTT_OK/GD32VW55X_Wifi_BLE_SDK/GD32VW55x_RELEASE_V1.0.2/MSDK/wpa_supplicant/src/ap\ap_config.c **** 			continue;
 3432              		.loc 2 349 6 is_stmt 0
 3433 0162 83070102 		lb	a5,32(sp)
 3434              	.LVL329:
 3435 0166 81D3     		beq	a5,zero,.L304
 352:C:/Users/stapi/OneDrive/Desktop/GD32VW553/V1_MQTT_OK/GD32VW55X_Wifi_BLE_SDK/GD32VW55x_RELEASE_V1.0.2/MSDK/wpa_supplicant/src/ap\ap_config.c **** 		keyid = NULL;
 3436              		.loc 2 352 3 is_stmt 1
 352:C:/Users/stapi/OneDrive/Desktop/GD32VW553/V1_MQTT_OK/GD32VW55X_Wifi_BLE_SDK/GD32VW55x_RELEASE_V1.0.2/MSDK/wpa_supplicant/src/ap\ap_config.c **** 		keyid = NULL;
 3437              		.loc 2 352 11 is_stmt 0
 3438 0168 02C8     		sw	zero,16(sp)
 353:C:/Users/stapi/OneDrive/Desktop/GD32VW553/V1_MQTT_OK/GD32VW55X_Wifi_BLE_SDK/GD32VW55x_RELEASE_V1.0.2/MSDK/wpa_supplicant/src/ap\ap_config.c **** 		while ((token = str_token(buf, " ", &context))) {
 3439              		.loc 2 353 3 is_stmt 1
 3440              	.LVL330:
 354:C:/Users/stapi/OneDrive/Desktop/GD32VW553/V1_MQTT_OK/GD32VW55X_Wifi_BLE_SDK/GD32VW55x_RELEASE_V1.0.2/MSDK/wpa_supplicant/src/ap\ap_config.c **** 			if (!os_strchr(token, '='))
 3441              		.loc 2 354 3
 335:C:/Users/stapi/OneDrive/Desktop/GD32VW553/V1_MQTT_OK/GD32VW55X_Wifi_BLE_SDK/GD32VW55x_RELEASE_V1.0.2/MSDK/wpa_supplicant/src/ap\ap_config.c **** 
 3442              		.loc 2 335 7 is_stmt 0
 3443 016a 014B     		li	s6,0
 334:C:/Users/stapi/OneDrive/Desktop/GD32VW553/V1_MQTT_OK/GD32VW55X_Wifi_BLE_SDK/GD32VW55x_RELEASE_V1.0.2/MSDK/wpa_supplicant/src/ap\ap_config.c **** 		int wps = 0;
 3444              		.loc 2 334 7
 3445 016c 814B     		li	s7,0
 353:C:/Users/stapi/OneDrive/Desktop/GD32VW553/V1_MQTT_OK/GD32VW55X_Wifi_BLE_SDK/GD32VW55x_RELEASE_V1.0.2/MSDK/wpa_supplicant/src/ap\ap_config.c **** 		while ((token = str_token(buf, " ", &context))) {
 3446              		.loc 2 353 9
 3447 016e 814C     		li	s9,0
 366:C:/Users/stapi/OneDrive/Desktop/GD32VW553/V1_MQTT_OK/GD32VW55X_Wifi_BLE_SDK/GD32VW55x_RELEASE_V1.0.2/MSDK/wpa_supplicant/src/ap\ap_config.c **** 				wps = atoi(value);
 3448              		.loc 2 366 16
 3449 0170 B70D0000 		lui	s11,%hi(.LC32)
 3450              	.LVL331:
 3451              	.L314:
 354:C:/Users/stapi/OneDrive/Desktop/GD32VW553/V1_MQTT_OK/GD32VW55X_Wifi_BLE_SDK/GD32VW55x_RELEASE_V1.0.2/MSDK/wpa_supplicant/src/ap\ap_config.c **** 			if (!os_strchr(token, '='))
 3452              		.loc 2 354 9 is_stmt 1
 354:C:/Users/stapi/OneDrive/Desktop/GD32VW553/V1_MQTT_OK/GD32VW55X_Wifi_BLE_SDK/GD32VW55x_RELEASE_V1.0.2/MSDK/wpa_supplicant/src/ap\ap_config.c **** 			if (!os_strchr(token, '='))
 3453              		.loc 2 354 19 is_stmt 0
 3454 0174 B7070000 		lui	a5,%hi(.LC35)
 3455 0178 1008     		addi	a2,sp,16
 3456 017a 93850700 		addi	a1,a5,%lo(.LC35)
 3457 017e 0810     		addi	a0,sp,32
 3458 0180 97000000 		call	str_token
 3458      E7800000 
 3459              	.LVL332:
 3460 0188 2A8D     		mv	s10,a0
 3461              	.LVL333:
 354:C:/Users/stapi/OneDrive/Desktop/GD32VW553/V1_MQTT_OK/GD32VW55X_Wifi_BLE_SDK/GD32VW55x_RELEASE_V1.0.2/MSDK/wpa_supplicant/src/ap\ap_config.c **** 			if (!os_strchr(token, '='))
 3462              		.loc 2 354 9
 3463 018a 0DE9     		bne	a0,zero,.L319
 383:C:/Users/stapi/OneDrive/Desktop/GD32VW553/V1_MQTT_OK/GD32VW55X_Wifi_BLE_SDK/GD32VW55x_RELEASE_V1.0.2/MSDK/wpa_supplicant/src/ap\ap_config.c **** 		if (hwaddr_aton(token, addr)) {
 3464              		.loc 2 383 10
 3465 018c 138D0A00 		addi	s10,s5,%lo(.LC21)
 3466              	.LVL334:
 3467              	.L312:
 384:C:/Users/stapi/OneDrive/Desktop/GD32VW553/V1_MQTT_OK/GD32VW55X_Wifi_BLE_SDK/GD32VW55x_RELEASE_V1.0.2/MSDK/wpa_supplicant/src/ap\ap_config.c **** 			wpa_printf(MSG_ERROR,
 3468              		.loc 2 384 3 is_stmt 1
 384:C:/Users/stapi/OneDrive/Desktop/GD32VW553/V1_MQTT_OK/GD32VW55X_Wifi_BLE_SDK/GD32VW55x_RELEASE_V1.0.2/MSDK/wpa_supplicant/src/ap\ap_config.c **** 			wpa_printf(MSG_ERROR,
 3469              		.loc 2 384 7 is_stmt 0
 3470 0190 2C08     		addi	a1,sp,24
 3471 0192 6A85     		mv	a0,s10
 3472 0194 97000000 		call	hwaddr_aton
 3472      E7800000 
 3473              	.LVL335:
 384:C:/Users/stapi/OneDrive/Desktop/GD32VW553/V1_MQTT_OK/GD32VW55X_Wifi_BLE_SDK/GD32VW55x_RELEASE_V1.0.2/MSDK/wpa_supplicant/src/ap\ap_config.c **** 			wpa_printf(MSG_ERROR,
 3474              		.loc 2 384 6
 3475 019c 6DC5     		beq	a0,zero,.L320
 385:C:/Users/stapi/OneDrive/Desktop/GD32VW553/V1_MQTT_OK/GD32VW55X_Wifi_BLE_SDK/GD32VW55x_RELEASE_V1.0.2/MSDK/wpa_supplicant/src/ap\ap_config.c **** 				   "Invalid MAC address '%s' on line %d in '%s'",
 3476              		.loc 2 385 4 is_stmt 1
 3477 019e B7050000 		lui	a1,%hi(.LC36)
 3478 01a2 2687     		mv	a4,s1
 3479 01a4 CA86     		mv	a3,s2
 3480 01a6 6A86     		mv	a2,s10
 3481 01a8 93850500 		addi	a1,a1,%lo(.LC36)
 3482 01ac 1545     		li	a0,5
 3483 01ae 97000000 		call	wpa_printf
 3483      E7800000 
 3484              	.LVL336:
 3485 01b6 55A8     		j	.L358
 3486              	.LVL337:
 3487              	.L307:
 347:C:/Users/stapi/OneDrive/Desktop/GD32VW553/V1_MQTT_OK/GD32VW55X_Wifi_BLE_SDK/GD32VW55x_RELEASE_V1.0.2/MSDK/wpa_supplicant/src/ap\ap_config.c **** 		}
 3488              		.loc 2 347 4
 347:C:/Users/stapi/OneDrive/Desktop/GD32VW553/V1_MQTT_OK/GD32VW55X_Wifi_BLE_SDK/GD32VW55x_RELEASE_V1.0.2/MSDK/wpa_supplicant/src/ap\ap_config.c **** 		}
 3489              		.loc 2 347 7 is_stmt 0
 3490 01b8 8507     		addi	a5,a5,1
 3491              	.LVL338:
 3492 01ba 69BF     		j	.L305
 3493              	.LVL339:
 3494              	.L319:
 355:C:/Users/stapi/OneDrive/Desktop/GD32VW553/V1_MQTT_OK/GD32VW55X_Wifi_BLE_SDK/GD32VW55x_RELEASE_V1.0.2/MSDK/wpa_supplicant/src/ap\ap_config.c **** 				break;
 3495              		.loc 2 355 4 is_stmt 1
 355:C:/Users/stapi/OneDrive/Desktop/GD32VW553/V1_MQTT_OK/GD32VW55X_Wifi_BLE_SDK/GD32VW55x_RELEASE_V1.0.2/MSDK/wpa_supplicant/src/ap\ap_config.c **** 				break;
 3496              		.loc 2 355 9 is_stmt 0
 3497 01bc 9305D003 		li	a1,61
 3498 01c0 97000000 		call	os_strchr
 3498      E7800000 
 3499              	.LVL340:
 355:C:/Users/stapi/OneDrive/Desktop/GD32VW553/V1_MQTT_OK/GD32VW55X_Wifi_BLE_SDK/GD32VW55x_RELEASE_V1.0.2/MSDK/wpa_supplicant/src/ap\ap_config.c **** 				break;
 3500              		.loc 2 355 7
 3501 01c8 61D5     		beq	a0,zero,.L312
 357:C:/Users/stapi/OneDrive/Desktop/GD32VW553/V1_MQTT_OK/GD32VW55X_Wifi_BLE_SDK/GD32VW55x_RELEASE_V1.0.2/MSDK/wpa_supplicant/src/ap\ap_config.c **** 			name = str_token(token, "=", &context2);
 3502              		.loc 2 357 4 is_stmt 1
 358:C:/Users/stapi/OneDrive/Desktop/GD32VW553/V1_MQTT_OK/GD32VW55X_Wifi_BLE_SDK/GD32VW55x_RELEASE_V1.0.2/MSDK/wpa_supplicant/src/ap\ap_config.c **** 			if (!name)
 3503              		.loc 2 358 11 is_stmt 0
 3504 01ca B7070000 		lui	a5,%hi(.LC30)
 3505 01ce 5008     		addi	a2,sp,20
 3506 01d0 93850700 		addi	a1,a5,%lo(.LC30)
 3507 01d4 6A85     		mv	a0,s10
 357:C:/Users/stapi/OneDrive/Desktop/GD32VW553/V1_MQTT_OK/GD32VW55X_Wifi_BLE_SDK/GD32VW55x_RELEASE_V1.0.2/MSDK/wpa_supplicant/src/ap\ap_config.c **** 			name = str_token(token, "=", &context2);
 3508              		.loc 2 357 13
 3509 01d6 02CA     		sw	zero,20(sp)
 358:C:/Users/stapi/OneDrive/Desktop/GD32VW553/V1_MQTT_OK/GD32VW55X_Wifi_BLE_SDK/GD32VW55x_RELEASE_V1.0.2/MSDK/wpa_supplicant/src/ap\ap_config.c **** 			if (!name)
 3510              		.loc 2 358 4 is_stmt 1
 358:C:/Users/stapi/OneDrive/Desktop/GD32VW553/V1_MQTT_OK/GD32VW55X_Wifi_BLE_SDK/GD32VW55x_RELEASE_V1.0.2/MSDK/wpa_supplicant/src/ap\ap_config.c **** 			if (!name)
 3511              		.loc 2 358 11 is_stmt 0
 3512 01d8 97000000 		call	str_token
 3512      E7800000 
 3513              	.LVL341:
 3514 01e0 AA89     		mv	s3,a0
 3515              	.LVL342:
 359:C:/Users/stapi/OneDrive/Desktop/GD32VW553/V1_MQTT_OK/GD32VW55X_Wifi_BLE_SDK/GD32VW55x_RELEASE_V1.0.2/MSDK/wpa_supplicant/src/ap\ap_config.c **** 				break;
 3516              		.loc 2 359 4 is_stmt 1
 359:C:/Users/stapi/OneDrive/Desktop/GD32VW553/V1_MQTT_OK/GD32VW55X_Wifi_BLE_SDK/GD32VW55x_RELEASE_V1.0.2/MSDK/wpa_supplicant/src/ap\ap_config.c **** 				break;
 3517              		.loc 2 359 7 is_stmt 0
 3518 01e2 5DD5     		beq	a0,zero,.L312
 361:C:/Users/stapi/OneDrive/Desktop/GD32VW553/V1_MQTT_OK/GD32VW55X_Wifi_BLE_SDK/GD32VW55x_RELEASE_V1.0.2/MSDK/wpa_supplicant/src/ap\ap_config.c **** 			if (!value)
 3519              		.loc 2 361 4 is_stmt 1
 361:C:/Users/stapi/OneDrive/Desktop/GD32VW553/V1_MQTT_OK/GD32VW55X_Wifi_BLE_SDK/GD32VW55x_RELEASE_V1.0.2/MSDK/wpa_supplicant/src/ap\ap_config.c **** 			if (!value)
 3520              		.loc 2 361 12 is_stmt 0
 3521 01e4 6A85     		mv	a0,s10
 3522              	.LVL343:
 3523 01e6 5008     		addi	a2,sp,20
 3524 01e8 93850A00 		addi	a1,s5,%lo(.LC21)
 3525 01ec 97000000 		call	str_token
 3525      E7800000 
 3526              	.LVL344:
 3527 01f4 2A8D     		mv	s10,a0
 3528              	.LVL345:
 362:C:/Users/stapi/OneDrive/Desktop/GD32VW553/V1_MQTT_OK/GD32VW55X_Wifi_BLE_SDK/GD32VW55x_RELEASE_V1.0.2/MSDK/wpa_supplicant/src/ap\ap_config.c **** 				value = "";
 3529              		.loc 2 362 4 is_stmt 1
 362:C:/Users/stapi/OneDrive/Desktop/GD32VW553/V1_MQTT_OK/GD32VW55X_Wifi_BLE_SDK/GD32VW55x_RELEASE_V1.0.2/MSDK/wpa_supplicant/src/ap\ap_config.c **** 				value = "";
 3530              		.loc 2 362 7 is_stmt 0
 3531 01f6 19E1     		bne	a0,zero,.L313
 363:C:/Users/stapi/OneDrive/Desktop/GD32VW553/V1_MQTT_OK/GD32VW55X_Wifi_BLE_SDK/GD32VW55x_RELEASE_V1.0.2/MSDK/wpa_supplicant/src/ap\ap_config.c **** 			if (!os_strcmp(name, "keyid")) {
 3532              		.loc 2 363 11
 3533 01f8 138D0A00 		addi	s10,s5,%lo(.LC21)
 3534              	.L313:
 3535              	.LVL346:
 364:C:/Users/stapi/OneDrive/Desktop/GD32VW553/V1_MQTT_OK/GD32VW55X_Wifi_BLE_SDK/GD32VW55x_RELEASE_V1.0.2/MSDK/wpa_supplicant/src/ap\ap_config.c **** 				keyid = value;
 3536              		.loc 2 364 4 is_stmt 1
 364:C:/Users/stapi/OneDrive/Desktop/GD32VW553/V1_MQTT_OK/GD32VW55X_Wifi_BLE_SDK/GD32VW55x_RELEASE_V1.0.2/MSDK/wpa_supplicant/src/ap\ap_config.c **** 				keyid = value;
 3537              		.loc 2 364 9 is_stmt 0
 3538 01fc B7070000 		lui	a5,%hi(.LC31)
 3539 0200 93850700 		addi	a1,a5,%lo(.LC31)
 3540 0204 4E85     		mv	a0,s3
 3541 0206 97000000 		call	os_strcmp
 3541      E7800000 
 3542              	.LVL347:
 364:C:/Users/stapi/OneDrive/Desktop/GD32VW553/V1_MQTT_OK/GD32VW55X_Wifi_BLE_SDK/GD32VW55x_RELEASE_V1.0.2/MSDK/wpa_supplicant/src/ap\ap_config.c **** 				keyid = value;
 3543              		.loc 2 364 7
 3544 020e 35C9     		beq	a0,zero,.L334
 366:C:/Users/stapi/OneDrive/Desktop/GD32VW553/V1_MQTT_OK/GD32VW55X_Wifi_BLE_SDK/GD32VW55x_RELEASE_V1.0.2/MSDK/wpa_supplicant/src/ap\ap_config.c **** 				wps = atoi(value);
 3545              		.loc 2 366 11 is_stmt 1
 366:C:/Users/stapi/OneDrive/Desktop/GD32VW553/V1_MQTT_OK/GD32VW55X_Wifi_BLE_SDK/GD32VW55x_RELEASE_V1.0.2/MSDK/wpa_supplicant/src/ap\ap_config.c **** 				wps = atoi(value);
 3546              		.loc 2 366 16 is_stmt 0
 3547 0210 93850D00 		addi	a1,s11,%lo(.LC32)
 3548 0214 4E85     		mv	a0,s3
 3549 0216 97000000 		call	os_strcmp
 3549      E7800000 
 3550              	.LVL348:
 366:C:/Users/stapi/OneDrive/Desktop/GD32VW553/V1_MQTT_OK/GD32VW55X_Wifi_BLE_SDK/GD32VW55x_RELEASE_V1.0.2/MSDK/wpa_supplicant/src/ap\ap_config.c **** 				wps = atoi(value);
 3551              		.loc 2 366 14
 3552 021e 01E9     		bne	a0,zero,.L315
 367:C:/Users/stapi/OneDrive/Desktop/GD32VW553/V1_MQTT_OK/GD32VW55X_Wifi_BLE_SDK/GD32VW55x_RELEASE_V1.0.2/MSDK/wpa_supplicant/src/ap\ap_config.c **** 			} else if (!os_strcmp(name, "vlanid")) {
 3553              		.loc 2 367 5 is_stmt 1
 367:C:/Users/stapi/OneDrive/Desktop/GD32VW553/V1_MQTT_OK/GD32VW55X_Wifi_BLE_SDK/GD32VW55x_RELEASE_V1.0.2/MSDK/wpa_supplicant/src/ap\ap_config.c **** 			} else if (!os_strcmp(name, "vlanid")) {
 3554              		.loc 2 367 11 is_stmt 0
 3555 0220 6A85     		mv	a0,s10
 3556 0222 97000000 		call	atoi
 3556      E7800000 
 3557              	.LVL349:
 3558 022a 2A8B     		mv	s6,a0
 3559              	.LVL350:
 3560 022c A1B7     		j	.L314
 3561              	.LVL351:
 3562              	.L315:
 368:C:/Users/stapi/OneDrive/Desktop/GD32VW553/V1_MQTT_OK/GD32VW55X_Wifi_BLE_SDK/GD32VW55x_RELEASE_V1.0.2/MSDK/wpa_supplicant/src/ap\ap_config.c **** 				vlan_id = atoi(value);
 3563              		.loc 2 368 11 is_stmt 1
 368:C:/Users/stapi/OneDrive/Desktop/GD32VW553/V1_MQTT_OK/GD32VW55X_Wifi_BLE_SDK/GD32VW55x_RELEASE_V1.0.2/MSDK/wpa_supplicant/src/ap\ap_config.c **** 				vlan_id = atoi(value);
 3564              		.loc 2 368 16 is_stmt 0
 3565 022e B7050000 		lui	a1,%hi(.LC33)
 3566 0232 93850500 		addi	a1,a1,%lo(.LC33)
 3567 0236 4E85     		mv	a0,s3
 3568 0238 97000000 		call	os_strcmp
 3568      E7800000 
 3569              	.LVL352:
 368:C:/Users/stapi/OneDrive/Desktop/GD32VW553/V1_MQTT_OK/GD32VW55X_Wifi_BLE_SDK/GD32VW55x_RELEASE_V1.0.2/MSDK/wpa_supplicant/src/ap\ap_config.c **** 				vlan_id = atoi(value);
 3570              		.loc 2 368 14
 3571 0240 01E9     		bne	a0,zero,.L317
 369:C:/Users/stapi/OneDrive/Desktop/GD32VW553/V1_MQTT_OK/GD32VW55X_Wifi_BLE_SDK/GD32VW55x_RELEASE_V1.0.2/MSDK/wpa_supplicant/src/ap\ap_config.c **** 			} else {
 3572              		.loc 2 369 5 is_stmt 1
 369:C:/Users/stapi/OneDrive/Desktop/GD32VW553/V1_MQTT_OK/GD32VW55X_Wifi_BLE_SDK/GD32VW55x_RELEASE_V1.0.2/MSDK/wpa_supplicant/src/ap\ap_config.c **** 			} else {
 3573              		.loc 2 369 15 is_stmt 0
 3574 0242 6A85     		mv	a0,s10
 3575 0244 97000000 		call	atoi
 3575      E7800000 
 3576              	.LVL353:
 3577 024c AA8B     		mv	s7,a0
 3578              	.LVL354:
 3579 024e 1DB7     		j	.L314
 3580              	.LVL355:
 3581              	.L317:
 371:C:/Users/stapi/OneDrive/Desktop/GD32VW553/V1_MQTT_OK/GD32VW55X_Wifi_BLE_SDK/GD32VW55x_RELEASE_V1.0.2/MSDK/wpa_supplicant/src/ap\ap_config.c **** 					   "Unrecognized '%s=%s' on line %d in '%s'",
 3582              		.loc 2 371 5 is_stmt 1
 3583 0250 B7050000 		lui	a1,%hi(.LC34)
 3584 0254 A687     		mv	a5,s1
 3585 0256 4A87     		mv	a4,s2
 3586 0258 EA86     		mv	a3,s10
 3587 025a 4E86     		mv	a2,s3
 3588 025c 93850500 		addi	a1,a1,%lo(.LC34)
 3589 0260 1545     		li	a0,5
 3590 0262 97000000 		call	wpa_printf
 3590      E7800000 
 3591              	.LVL356:
 374:C:/Users/stapi/OneDrive/Desktop/GD32VW553/V1_MQTT_OK/GD32VW55X_Wifi_BLE_SDK/GD32VW55x_RELEASE_V1.0.2/MSDK/wpa_supplicant/src/ap\ap_config.c **** 				break;
 3592              		.loc 2 374 5
 375:C:/Users/stapi/OneDrive/Desktop/GD32VW553/V1_MQTT_OK/GD32VW55X_Wifi_BLE_SDK/GD32VW55x_RELEASE_V1.0.2/MSDK/wpa_supplicant/src/ap\ap_config.c **** 			}
 3593              		.loc 2 375 5
 379:C:/Users/stapi/OneDrive/Desktop/GD32VW553/V1_MQTT_OK/GD32VW55X_Wifi_BLE_SDK/GD32VW55x_RELEASE_V1.0.2/MSDK/wpa_supplicant/src/ap\ap_config.c **** 			break;
 3594              		.loc 2 379 3
 3595              	.L358:
 388:C:/Users/stapi/OneDrive/Desktop/GD32VW553/V1_MQTT_OK/GD32VW55X_Wifi_BLE_SDK/GD32VW55x_RELEASE_V1.0.2/MSDK/wpa_supplicant/src/ap\ap_config.c **** 			break;
 3596              		.loc 2 388 4
 389:C:/Users/stapi/OneDrive/Desktop/GD32VW553/V1_MQTT_OK/GD32VW55X_Wifi_BLE_SDK/GD32VW55x_RELEASE_V1.0.2/MSDK/wpa_supplicant/src/ap\ap_config.c **** 		}
 3597              		.loc 2 389 4
 388:C:/Users/stapi/OneDrive/Desktop/GD32VW553/V1_MQTT_OK/GD32VW55X_Wifi_BLE_SDK/GD32VW55x_RELEASE_V1.0.2/MSDK/wpa_supplicant/src/ap\ap_config.c **** 			break;
 3598              		.loc 2 388 8 is_stmt 0
 3599 026a 7D59     		li	s2,-1
 3600              	.LVL357:
 3601              	.L318:
 3602              	.LBE126:
 449:C:/Users/stapi/OneDrive/Desktop/GD32VW553/V1_MQTT_OK/GD32VW55X_Wifi_BLE_SDK/GD32VW55x_RELEASE_V1.0.2/MSDK/wpa_supplicant/src/ap\ap_config.c **** 
 3603              		.loc 2 449 2 is_stmt 1
 3604 026c 5285     		mv	a0,s4
 3605 026e 97000000 		call	fclose
 3605      E7800000 
 3606              	.LVL358:
 451:C:/Users/stapi/OneDrive/Desktop/GD32VW553/V1_MQTT_OK/GD32VW55X_Wifi_BLE_SDK/GD32VW55x_RELEASE_V1.0.2/MSDK/wpa_supplicant/src/ap\ap_config.c **** }
 3607              		.loc 2 451 2
 3608              	.L297:
 3609              	.LBE128:
 3610              	.LBE134:
 537:C:/Users/stapi/OneDrive/Desktop/GD32VW553/V1_MQTT_OK/GD32VW55X_Wifi_BLE_SDK/GD32VW55x_RELEASE_V1.0.2/MSDK/wpa_supplicant/src/ap\ap_config.c **** 
 3611              		.loc 2 537 1 is_stmt 0
 3612 0276 4A85     		mv	a0,s2
 3613 0278 0D61     		addi	sp,sp,160
 3614              		.cfi_remember_state
 3615              		.cfi_def_cfa_offset 0
 3616 027a 17030000 		tail	__riscv_restore_12
 3616      67000300 
 3617              		.cfi_restore 27
 3618              		.cfi_restore 26
 3619              		.cfi_restore 25
 3620              		.cfi_restore 24
 3621              		.cfi_restore 23
 3622              		.cfi_restore 22
 3623              		.cfi_restore 21
 3624              		.cfi_restore 20
 3625              		.cfi_restore 19
 3626              		.cfi_restore 18
 3627              		.cfi_restore 9
 3628              		.cfi_restore 8
 3629              		.cfi_restore 1
 3630              		.cfi_def_cfa_offset -64
 3631              	.LVL359:
 3632              	.L334:
 3633              		.cfi_restore_state
 3634              	.LBB135:
 3635              	.LBB129:
 3636              	.LBB127:
 3637 0282 EA8C     		mv	s9,s10
 3638              	.LVL360:
 3639 0284 C5BD     		j	.L314
 3640              	.LVL361:
 3641              	.L320:
 392:C:/Users/stapi/OneDrive/Desktop/GD32VW553/V1_MQTT_OK/GD32VW55X_Wifi_BLE_SDK/GD32VW55x_RELEASE_V1.0.2/MSDK/wpa_supplicant/src/ap\ap_config.c **** 		if (psk == NULL) {
 3642              		.loc 2 392 3 is_stmt 1
 392:C:/Users/stapi/OneDrive/Desktop/GD32VW553/V1_MQTT_OK/GD32VW55X_Wifi_BLE_SDK/GD32VW55x_RELEASE_V1.0.2/MSDK/wpa_supplicant/src/ap\ap_config.c **** 		if (psk == NULL) {
 3643              		.loc 2 392 9 is_stmt 0
 3644 0286 1305C005 		li	a0,92
 3645 028a 97000000 		call	os_zalloc
 3645      E7800000 
 3646              	.LVL362:
 3647 0292 AA89     		mv	s3,a0
 3648              	.LVL363:
 393:C:/Users/stapi/OneDrive/Desktop/GD32VW553/V1_MQTT_OK/GD32VW55X_Wifi_BLE_SDK/GD32VW55x_RELEASE_V1.0.2/MSDK/wpa_supplicant/src/ap\ap_config.c **** 			wpa_printf(MSG_ERROR, "WPA PSK allocation failed");
 3649              		.loc 2 393 3 is_stmt 1
 393:C:/Users/stapi/OneDrive/Desktop/GD32VW553/V1_MQTT_OK/GD32VW55X_Wifi_BLE_SDK/GD32VW55x_RELEASE_V1.0.2/MSDK/wpa_supplicant/src/ap\ap_config.c **** 			wpa_printf(MSG_ERROR, "WPA PSK allocation failed");
 3650              		.loc 2 393 6 is_stmt 0
 3651 0294 19E9     		bne	a0,zero,.L321
 394:C:/Users/stapi/OneDrive/Desktop/GD32VW553/V1_MQTT_OK/GD32VW55X_Wifi_BLE_SDK/GD32VW55x_RELEASE_V1.0.2/MSDK/wpa_supplicant/src/ap\ap_config.c **** 			ret = -1;
 3652              		.loc 2 394 4 is_stmt 1
 3653 0296 B7050000 		lui	a1,%hi(.LC37)
 3654 029a 93850500 		addi	a1,a1,%lo(.LC37)
 3655 029e 1545     		li	a0,5
 3656              	.LVL364:
 3657 02a0 97000000 		call	wpa_printf
 3657      E7800000 
 3658              	.LVL365:
 395:C:/Users/stapi/OneDrive/Desktop/GD32VW553/V1_MQTT_OK/GD32VW55X_Wifi_BLE_SDK/GD32VW55x_RELEASE_V1.0.2/MSDK/wpa_supplicant/src/ap\ap_config.c **** 			break;
 3659              		.loc 2 395 4
 396:C:/Users/stapi/OneDrive/Desktop/GD32VW553/V1_MQTT_OK/GD32VW55X_Wifi_BLE_SDK/GD32VW55x_RELEASE_V1.0.2/MSDK/wpa_supplicant/src/ap\ap_config.c **** 		}
 3660              		.loc 2 396 4
 3661 02a8 C9B7     		j	.L358
 3662              	.LVL366:
 3663              	.L321:
 398:C:/Users/stapi/OneDrive/Desktop/GD32VW553/V1_MQTT_OK/GD32VW55X_Wifi_BLE_SDK/GD32VW55x_RELEASE_V1.0.2/MSDK/wpa_supplicant/src/ap\ap_config.c **** 		if (is_zero_ether_addr(addr))
 3664              		.loc 2 398 3
 398:C:/Users/stapi/OneDrive/Desktop/GD32VW553/V1_MQTT_OK/GD32VW55X_Wifi_BLE_SDK/GD32VW55x_RELEASE_V1.0.2/MSDK/wpa_supplicant/src/ap\ap_config.c **** 		if (is_zero_ether_addr(addr))
 3665              		.loc 2 398 16 is_stmt 0
 3666 02aa 232C7505 		sw	s7,88(a0)
 399:C:/Users/stapi/OneDrive/Desktop/GD32VW553/V1_MQTT_OK/GD32VW55X_Wifi_BLE_SDK/GD32VW55x_RELEASE_V1.0.2/MSDK/wpa_supplicant/src/ap\ap_config.c **** 			psk->group = 1;
 3667              		.loc 2 399 3 is_stmt 1
 399:C:/Users/stapi/OneDrive/Desktop/GD32VW553/V1_MQTT_OK/GD32VW55X_Wifi_BLE_SDK/GD32VW55x_RELEASE_V1.0.2/MSDK/wpa_supplicant/src/ap\ap_config.c **** 			psk->group = 1;
 3668              		.loc 2 399 7 is_stmt 0
 3669 02ae 2808     		addi	a0,sp,24
 3670              	.LVL367:
 3671 02b0 97000000 		call	is_zero_ether_addr
 3671      E7800000 
 3672              	.LVL368:
 399:C:/Users/stapi/OneDrive/Desktop/GD32VW553/V1_MQTT_OK/GD32VW55X_Wifi_BLE_SDK/GD32VW55x_RELEASE_V1.0.2/MSDK/wpa_supplicant/src/ap\ap_config.c **** 			psk->group = 1;
 3673              		.loc 2 399 6
 3674 02b8 15C9     		beq	a0,zero,.L322
 400:C:/Users/stapi/OneDrive/Desktop/GD32VW553/V1_MQTT_OK/GD32VW55X_Wifi_BLE_SDK/GD32VW55x_RELEASE_V1.0.2/MSDK/wpa_supplicant/src/ap\ap_config.c **** 		else
 3675              		.loc 2 400 4 is_stmt 1
 400:C:/Users/stapi/OneDrive/Desktop/GD32VW553/V1_MQTT_OK/GD32VW55X_Wifi_BLE_SDK/GD32VW55x_RELEASE_V1.0.2/MSDK/wpa_supplicant/src/ap\ap_config.c **** 		else
 3676              		.loc 2 400 15 is_stmt 0
 3677 02ba 8547     		li	a5,1
 3678 02bc 23A2F900 		sw	a5,4(s3)
 3679              	.L323:
 404:C:/Users/stapi/OneDrive/Desktop/GD32VW553/V1_MQTT_OK/GD32VW55X_Wifi_BLE_SDK/GD32VW55x_RELEASE_V1.0.2/MSDK/wpa_supplicant/src/ap\ap_config.c **** 		if (!pos) {
 3680              		.loc 2 404 3 is_stmt 1
 404:C:/Users/stapi/OneDrive/Desktop/GD32VW553/V1_MQTT_OK/GD32VW55X_Wifi_BLE_SDK/GD32VW55x_RELEASE_V1.0.2/MSDK/wpa_supplicant/src/ap\ap_config.c **** 		if (!pos) {
 3681              		.loc 2 404 9 is_stmt 0
 3682 02c0 1008     		addi	a2,sp,16
 3683 02c2 93850A00 		addi	a1,s5,%lo(.LC21)
 3684 02c6 0810     		addi	a0,sp,32
 3685 02c8 97000000 		call	str_token
 3685      E7800000 
 3686              	.LVL369:
 3687 02d0 AA8B     		mv	s7,a0
 3688              	.LVL370:
 405:C:/Users/stapi/OneDrive/Desktop/GD32VW553/V1_MQTT_OK/GD32VW55X_Wifi_BLE_SDK/GD32VW55x_RELEASE_V1.0.2/MSDK/wpa_supplicant/src/ap\ap_config.c **** 			wpa_printf(MSG_ERROR, "No PSK on line %d in '%s'",
 3689              		.loc 2 405 3 is_stmt 1
 405:C:/Users/stapi/OneDrive/Desktop/GD32VW553/V1_MQTT_OK/GD32VW55X_Wifi_BLE_SDK/GD32VW55x_RELEASE_V1.0.2/MSDK/wpa_supplicant/src/ap\ap_config.c **** 			wpa_printf(MSG_ERROR, "No PSK on line %d in '%s'",
 3690              		.loc 2 405 6 is_stmt 0
 3691 02d2 15E5     		bne	a0,zero,.L324
 406:C:/Users/stapi/OneDrive/Desktop/GD32VW553/V1_MQTT_OK/GD32VW55X_Wifi_BLE_SDK/GD32VW55x_RELEASE_V1.0.2/MSDK/wpa_supplicant/src/ap\ap_config.c **** 				   line, fname);
 3692              		.loc 2 406 4 is_stmt 1
 3693 02d4 B7050000 		lui	a1,%hi(.LC38)
 3694 02d8 A686     		mv	a3,s1
 3695 02da 4A86     		mv	a2,s2
 3696 02dc 93850500 		addi	a1,a1,%lo(.LC38)
 3697              	.LVL371:
 3698              	.L360:
 434:C:/Users/stapi/OneDrive/Desktop/GD32VW553/V1_MQTT_OK/GD32VW55X_Wifi_BLE_SDK/GD32VW55x_RELEASE_V1.0.2/MSDK/wpa_supplicant/src/ap\ap_config.c **** 					   "PSK keyid too long on line %d in '%s'",
 3699              		.loc 2 434 5 is_stmt 0
 3700 02e0 1545     		li	a0,5
 3701 02e2 97000000 		call	wpa_printf
 3701      E7800000 
 3702              	.LVL372:
 3703 02ea 81A8     		j	.L359
 3704              	.LVL373:
 3705              	.L322:
 402:C:/Users/stapi/OneDrive/Desktop/GD32VW553/V1_MQTT_OK/GD32VW55X_Wifi_BLE_SDK/GD32VW55x_RELEASE_V1.0.2/MSDK/wpa_supplicant/src/ap\ap_config.c **** 
 3706              		.loc 2 402 4 is_stmt 1
 3707 02ec 1946     		li	a2,6
 3708 02ee 2C08     		addi	a1,sp,24
 3709 02f0 1385C904 		addi	a0,s3,76
 3710 02f4 97000000 		call	os_memcpy
 3710      E7800000 
 3711              	.LVL374:
 3712 02fc D1B7     		j	.L323
 3713              	.LVL375:
 3714              	.L324:
 413:C:/Users/stapi/OneDrive/Desktop/GD32VW553/V1_MQTT_OK/GD32VW55X_Wifi_BLE_SDK/GD32VW55x_RELEASE_V1.0.2/MSDK/wpa_supplicant/src/ap\ap_config.c **** 		len = os_strlen(pos);
 3715              		.loc 2 413 3
 414:C:/Users/stapi/OneDrive/Desktop/GD32VW553/V1_MQTT_OK/GD32VW55X_Wifi_BLE_SDK/GD32VW55x_RELEASE_V1.0.2/MSDK/wpa_supplicant/src/ap\ap_config.c **** 		if (len == 2 * PMK_LEN &&
 3716              		.loc 2 414 3
 414:C:/Users/stapi/OneDrive/Desktop/GD32VW553/V1_MQTT_OK/GD32VW55X_Wifi_BLE_SDK/GD32VW55x_RELEASE_V1.0.2/MSDK/wpa_supplicant/src/ap\ap_config.c **** 		if (len == 2 * PMK_LEN &&
 3717              		.loc 2 414 9 is_stmt 0
 3718 02fe 97000000 		call	os_strlen
 3718      E7800000 
 3719              	.LVL376:
 415:C:/Users/stapi/OneDrive/Desktop/GD32VW553/V1_MQTT_OK/GD32VW55X_Wifi_BLE_SDK/GD32VW55x_RELEASE_V1.0.2/MSDK/wpa_supplicant/src/ap\ap_config.c **** 		    hexstr2bin(pos, psk->psk, PMK_LEN) == 0)
 3720              		.loc 2 415 3 is_stmt 1
 415:C:/Users/stapi/OneDrive/Desktop/GD32VW553/V1_MQTT_OK/GD32VW55X_Wifi_BLE_SDK/GD32VW55x_RELEASE_V1.0.2/MSDK/wpa_supplicant/src/ap\ap_config.c **** 		    hexstr2bin(pos, psk->psk, PMK_LEN) == 0)
 3721              		.loc 2 415 6 is_stmt 0
 3722 0306 93070004 		li	a5,64
 3723 030a 631EF502 		bne	a0,a5,.L325
 416:C:/Users/stapi/OneDrive/Desktop/GD32VW553/V1_MQTT_OK/GD32VW55X_Wifi_BLE_SDK/GD32VW55x_RELEASE_V1.0.2/MSDK/wpa_supplicant/src/ap\ap_config.c **** 			ok = 1;
 3724              		.loc 2 416 7
 3725 030e 13060002 		li	a2,32
 3726 0312 9385C902 		addi	a1,s3,44
 3727 0316 5E85     		mv	a0,s7
 3728              	.LVL377:
 3729 0318 97000000 		call	hexstr2bin
 3729      E7800000 
 3730              	.LVL378:
 3731              	.L357:
 415:C:/Users/stapi/OneDrive/Desktop/GD32VW553/V1_MQTT_OK/GD32VW55X_Wifi_BLE_SDK/GD32VW55x_RELEASE_V1.0.2/MSDK/wpa_supplicant/src/ap\ap_config.c **** 		    hexstr2bin(pos, psk->psk, PMK_LEN) == 0)
 3732              		.loc 2 415 26
 3733 0320 31C5     		beq	a0,zero,.L326
 3734              	.L327:
 3735              	.LVL379:
 423:C:/Users/stapi/OneDrive/Desktop/GD32VW553/V1_MQTT_OK/GD32VW55X_Wifi_BLE_SDK/GD32VW55x_RELEASE_V1.0.2/MSDK/wpa_supplicant/src/ap\ap_config.c **** 				   "Invalid PSK '%s' on line %d in '%s'",
 3736              		.loc 2 423 4 is_stmt 1
 3737 0322 B7050000 		lui	a1,%hi(.LC39)
 3738 0326 2687     		mv	a4,s1
 3739 0328 CA86     		mv	a3,s2
 3740 032a 5E86     		mv	a2,s7
 3741 032c 93850500 		addi	a1,a1,%lo(.LC39)
 3742 0330 1545     		li	a0,5
 3743 0332 97000000 		call	wpa_printf
 3743      E7800000 
 3744              	.LVL380:
 426:C:/Users/stapi/OneDrive/Desktop/GD32VW553/V1_MQTT_OK/GD32VW55X_Wifi_BLE_SDK/GD32VW55x_RELEASE_V1.0.2/MSDK/wpa_supplicant/src/ap\ap_config.c **** 			ret = -1;
 3745              		.loc 2 426 4
 3746              	.L359:
 437:C:/Users/stapi/OneDrive/Desktop/GD32VW553/V1_MQTT_OK/GD32VW55X_Wifi_BLE_SDK/GD32VW55x_RELEASE_V1.0.2/MSDK/wpa_supplicant/src/ap\ap_config.c **** 				ret = -1;
 3747              		.loc 2 437 5
 3748 033a 4E85     		mv	a0,s3
 3749 033c 97000000 		call	os_free
 3749      E7800000 
 3750              	.LVL381:
 438:C:/Users/stapi/OneDrive/Desktop/GD32VW553/V1_MQTT_OK/GD32VW55X_Wifi_BLE_SDK/GD32VW55x_RELEASE_V1.0.2/MSDK/wpa_supplicant/src/ap\ap_config.c **** 				break;
 3751              		.loc 2 438 5
 439:C:/Users/stapi/OneDrive/Desktop/GD32VW553/V1_MQTT_OK/GD32VW55X_Wifi_BLE_SDK/GD32VW55x_RELEASE_V1.0.2/MSDK/wpa_supplicant/src/ap\ap_config.c **** 			}
 3752              		.loc 2 439 5
 3753 0344 1DB7     		j	.L358
 3754              	.LVL382:
 3755              	.L325:
 418:C:/Users/stapi/OneDrive/Desktop/GD32VW553/V1_MQTT_OK/GD32VW55X_Wifi_BLE_SDK/GD32VW55x_RELEASE_V1.0.2/MSDK/wpa_supplicant/src/ap\ap_config.c **** 			 pbkdf2_sha1(pos, ssid->ssid, ssid->ssid_len,
 3756              		.loc 2 418 8
 418:C:/Users/stapi/OneDrive/Desktop/GD32VW553/V1_MQTT_OK/GD32VW55X_Wifi_BLE_SDK/GD32VW55x_RELEASE_V1.0.2/MSDK/wpa_supplicant/src/ap\ap_config.c **** 			 pbkdf2_sha1(pos, ssid->ssid, ssid->ssid_len,
 3757              		.loc 2 418 21 is_stmt 0
 3758 0346 6115     		addi	a0,a0,-8
 3759              	.LVL383:
 418:C:/Users/stapi/OneDrive/Desktop/GD32VW553/V1_MQTT_OK/GD32VW55X_Wifi_BLE_SDK/GD32VW55x_RELEASE_V1.0.2/MSDK/wpa_supplicant/src/ap\ap_config.c **** 			 pbkdf2_sha1(pos, ssid->ssid, ssid->ssid_len,
 3760              		.loc 2 418 11
 3761 0348 93077003 		li	a5,55
 3762 034c E3EBA7FC 		bgtu	a0,a5,.L327
 419:C:/Users/stapi/OneDrive/Desktop/GD32VW553/V1_MQTT_OK/GD32VW55X_Wifi_BLE_SDK/GD32VW55x_RELEASE_V1.0.2/MSDK/wpa_supplicant/src/ap\ap_config.c **** 				     4096, psk->psk, PMK_LEN) == 0)
 3763              		.loc 2 419 5
 3764 0350 0326840D 		lw	a2,216(s0)
 3765 0354 93070002 		li	a5,32
 3766 0358 1387C902 		addi	a4,s3,44
 3767 035c 8566     		li	a3,4096
 3768 035e E285     		mv	a1,s8
 3769 0360 5E85     		mv	a0,s7
 3770              	.LVL384:
 3771 0362 97000000 		call	pbkdf2_sha1
 3771      E7800000 
 3772              	.LVL385:
 3773 036a 5DBF     		j	.L357
 3774              	.L326:
 3775              	.LVL386:
 431:C:/Users/stapi/OneDrive/Desktop/GD32VW553/V1_MQTT_OK/GD32VW55X_Wifi_BLE_SDK/GD32VW55x_RELEASE_V1.0.2/MSDK/wpa_supplicant/src/ap\ap_config.c **** 			len = os_strlcpy(psk->keyid, keyid, sizeof(psk->keyid));
 3776              		.loc 2 431 3 is_stmt 1
 431:C:/Users/stapi/OneDrive/Desktop/GD32VW553/V1_MQTT_OK/GD32VW55X_Wifi_BLE_SDK/GD32VW55x_RELEASE_V1.0.2/MSDK/wpa_supplicant/src/ap\ap_config.c **** 			len = os_strlcpy(psk->keyid, keyid, sizeof(psk->keyid));
 3777              		.loc 2 431 6 is_stmt 0
 3778 036c 63850C02 		beq	s9,zero,.L328
 432:C:/Users/stapi/OneDrive/Desktop/GD32VW553/V1_MQTT_OK/GD32VW55X_Wifi_BLE_SDK/GD32VW55x_RELEASE_V1.0.2/MSDK/wpa_supplicant/src/ap\ap_config.c **** 			if ((size_t) len >= sizeof(psk->keyid)) {
 3779              		.loc 2 432 4 is_stmt 1
 432:C:/Users/stapi/OneDrive/Desktop/GD32VW553/V1_MQTT_OK/GD32VW55X_Wifi_BLE_SDK/GD32VW55x_RELEASE_V1.0.2/MSDK/wpa_supplicant/src/ap\ap_config.c **** 			if ((size_t) len >= sizeof(psk->keyid)) {
 3780              		.loc 2 432 10 is_stmt 0
 3781 0370 13060002 		li	a2,32
 3782 0374 E685     		mv	a1,s9
 3783 0376 13858900 		addi	a0,s3,8
 3784 037a 97000000 		call	os_strlcpy
 3784      E7800000 
 3785              	.LVL387:
 433:C:/Users/stapi/OneDrive/Desktop/GD32VW553/V1_MQTT_OK/GD32VW55X_Wifi_BLE_SDK/GD32VW55x_RELEASE_V1.0.2/MSDK/wpa_supplicant/src/ap\ap_config.c **** 				wpa_printf(MSG_ERROR,
 3786              		.loc 2 433 4 is_stmt 1
 433:C:/Users/stapi/OneDrive/Desktop/GD32VW553/V1_MQTT_OK/GD32VW55X_Wifi_BLE_SDK/GD32VW55x_RELEASE_V1.0.2/MSDK/wpa_supplicant/src/ap\ap_config.c **** 				wpa_printf(MSG_ERROR,
 3787              		.loc 2 433 7 is_stmt 0
 3788 0382 FD47     		li	a5,31
 3789 0384 63F9A700 		bleu	a0,a5,.L328
 434:C:/Users/stapi/OneDrive/Desktop/GD32VW553/V1_MQTT_OK/GD32VW55X_Wifi_BLE_SDK/GD32VW55x_RELEASE_V1.0.2/MSDK/wpa_supplicant/src/ap\ap_config.c **** 					   "PSK keyid too long on line %d in '%s'",
 3790              		.loc 2 434 5 is_stmt 1
 3791 0388 B7050000 		lui	a1,%hi(.LC40)
 3792 038c A686     		mv	a3,s1
 3793 038e 4A86     		mv	a2,s2
 3794 0390 93850500 		addi	a1,a1,%lo(.LC40)
 3795 0394 B1B7     		j	.L360
 3796              	.LVL388:
 3797              	.L328:
 443:C:/Users/stapi/OneDrive/Desktop/GD32VW553/V1_MQTT_OK/GD32VW55X_Wifi_BLE_SDK/GD32VW55x_RELEASE_V1.0.2/MSDK/wpa_supplicant/src/ap\ap_config.c **** 
 3798              		.loc 2 443 3
 445:C:/Users/stapi/OneDrive/Desktop/GD32VW553/V1_MQTT_OK/GD32VW55X_Wifi_BLE_SDK/GD32VW55x_RELEASE_V1.0.2/MSDK/wpa_supplicant/src/ap\ap_config.c **** 		ssid->wpa_psk = psk;
 3799              		.loc 2 445 13 is_stmt 0
 3800 0396 8327C40E 		lw	a5,236(s0)
 443:C:/Users/stapi/OneDrive/Desktop/GD32VW553/V1_MQTT_OK/GD32VW55X_Wifi_BLE_SDK/GD32VW55x_RELEASE_V1.0.2/MSDK/wpa_supplicant/src/ap\ap_config.c **** 
 3801              		.loc 2 443 12
 3802 039a 23A46903 		sw	s6,40(s3)
 445:C:/Users/stapi/OneDrive/Desktop/GD32VW553/V1_MQTT_OK/GD32VW55X_Wifi_BLE_SDK/GD32VW55x_RELEASE_V1.0.2/MSDK/wpa_supplicant/src/ap\ap_config.c **** 		ssid->wpa_psk = psk;
 3803              		.loc 2 445 3 is_stmt 1
 445:C:/Users/stapi/OneDrive/Desktop/GD32VW553/V1_MQTT_OK/GD32VW55X_Wifi_BLE_SDK/GD32VW55x_RELEASE_V1.0.2/MSDK/wpa_supplicant/src/ap\ap_config.c **** 		ssid->wpa_psk = psk;
 3804              		.loc 2 445 13 is_stmt 0
 3805 039e 23A0F900 		sw	a5,0(s3)
 446:C:/Users/stapi/OneDrive/Desktop/GD32VW553/V1_MQTT_OK/GD32VW55X_Wifi_BLE_SDK/GD32VW55x_RELEASE_V1.0.2/MSDK/wpa_supplicant/src/ap\ap_config.c **** 	}
 3806              		.loc 2 446 3 is_stmt 1
 446:C:/Users/stapi/OneDrive/Desktop/GD32VW553/V1_MQTT_OK/GD32VW55X_Wifi_BLE_SDK/GD32VW55x_RELEASE_V1.0.2/MSDK/wpa_supplicant/src/ap\ap_config.c **** 	}
 3807              		.loc 2 446 17 is_stmt 0
 3808 03a2 2326340F 		sw	s3,236(s0)
 3809 03a6 C1B1     		j	.L304
 3810              	.LBE127:
 3811              	.LBE129:
 3812              	.LBE135:
 3813              		.cfi_endproc
 3814              	.LFE144:
 3816              		.section	.text.hostapd_sae_pk_in_use,"ax",@progbits
 3817              		.align	1
 3818              		.globl	hostapd_sae_pk_in_use
 3820              	hostapd_sae_pk_in_use:
 3821              	.LFB168:
1617:C:/Users/stapi/OneDrive/Desktop/GD32VW553/V1_MQTT_OK/GD32VW55X_Wifi_BLE_SDK/GD32VW55x_RELEASE_V1.0.2/MSDK/wpa_supplicant/src/ap\ap_config.c **** 
1618:C:/Users/stapi/OneDrive/Desktop/GD32VW553/V1_MQTT_OK/GD32VW55X_Wifi_BLE_SDK/GD32VW55x_RELEASE_V1.0.2/MSDK/wpa_supplicant/src/ap\ap_config.c **** 
1619:C:/Users/stapi/OneDrive/Desktop/GD32VW553/V1_MQTT_OK/GD32VW55X_Wifi_BLE_SDK/GD32VW55x_RELEASE_V1.0.2/MSDK/wpa_supplicant/src/ap\ap_config.c **** bool hostapd_sae_pk_in_use(struct hostapd_bss_config *conf)
1620:C:/Users/stapi/OneDrive/Desktop/GD32VW553/V1_MQTT_OK/GD32VW55X_Wifi_BLE_SDK/GD32VW55x_RELEASE_V1.0.2/MSDK/wpa_supplicant/src/ap\ap_config.c **** {
 3822              		.loc 2 1620 1 is_stmt 1
 3823              		.cfi_startproc
 3824              	.LVL389:
1621:C:/Users/stapi/OneDrive/Desktop/GD32VW553/V1_MQTT_OK/GD32VW55X_Wifi_BLE_SDK/GD32VW55x_RELEASE_V1.0.2/MSDK/wpa_supplicant/src/ap\ap_config.c **** #ifdef CONFIG_SAE_PK
1622:C:/Users/stapi/OneDrive/Desktop/GD32VW553/V1_MQTT_OK/GD32VW55X_Wifi_BLE_SDK/GD32VW55x_RELEASE_V1.0.2/MSDK/wpa_supplicant/src/ap\ap_config.c **** 	struct sae_password_entry *pw;
1623:C:/Users/stapi/OneDrive/Desktop/GD32VW553/V1_MQTT_OK/GD32VW55X_Wifi_BLE_SDK/GD32VW55x_RELEASE_V1.0.2/MSDK/wpa_supplicant/src/ap\ap_config.c **** 
1624:C:/Users/stapi/OneDrive/Desktop/GD32VW553/V1_MQTT_OK/GD32VW55X_Wifi_BLE_SDK/GD32VW55x_RELEASE_V1.0.2/MSDK/wpa_supplicant/src/ap\ap_config.c **** 	for (pw = conf->sae_passwords; pw; pw = pw->next) {
1625:C:/Users/stapi/OneDrive/Desktop/GD32VW553/V1_MQTT_OK/GD32VW55X_Wifi_BLE_SDK/GD32VW55x_RELEASE_V1.0.2/MSDK/wpa_supplicant/src/ap\ap_config.c **** 		if (pw->pk)
1626:C:/Users/stapi/OneDrive/Desktop/GD32VW553/V1_MQTT_OK/GD32VW55X_Wifi_BLE_SDK/GD32VW55x_RELEASE_V1.0.2/MSDK/wpa_supplicant/src/ap\ap_config.c **** 			return true;
1627:C:/Users/stapi/OneDrive/Desktop/GD32VW553/V1_MQTT_OK/GD32VW55X_Wifi_BLE_SDK/GD32VW55x_RELEASE_V1.0.2/MSDK/wpa_supplicant/src/ap\ap_config.c **** 	}
1628:C:/Users/stapi/OneDrive/Desktop/GD32VW553/V1_MQTT_OK/GD32VW55X_Wifi_BLE_SDK/GD32VW55x_RELEASE_V1.0.2/MSDK/wpa_supplicant/src/ap\ap_config.c **** #endif /* CONFIG_SAE_PK */
1629:C:/Users/stapi/OneDrive/Desktop/GD32VW553/V1_MQTT_OK/GD32VW55X_Wifi_BLE_SDK/GD32VW55x_RELEASE_V1.0.2/MSDK/wpa_supplicant/src/ap\ap_config.c **** 
1630:C:/Users/stapi/OneDrive/Desktop/GD32VW553/V1_MQTT_OK/GD32VW55X_Wifi_BLE_SDK/GD32VW55x_RELEASE_V1.0.2/MSDK/wpa_supplicant/src/ap\ap_config.c **** 	return false;
 3825              		.loc 2 1630 2
1631:C:/Users/stapi/OneDrive/Desktop/GD32VW553/V1_MQTT_OK/GD32VW55X_Wifi_BLE_SDK/GD32VW55x_RELEASE_V1.0.2/MSDK/wpa_supplicant/src/ap\ap_config.c **** }
 3826              		.loc 2 1631 1 is_stmt 0
 3827 0000 0145     		li	a0,0
 3828              	.LVL390:
 3829 0002 8280     		ret
 3830              		.cfi_endproc
 3831              	.LFE168:
 3833              		.section	.rodata.ac_be.1,"a"
 3834              		.align	2
 3835              		.set	.LANCHOR0,. + 0
 3838              	ac_be.1:
 3839 0000 04000000 		.word	4
 3840 0004 0A000000 		.word	10
 3841 0008 03000000 		.word	3
 3842 000c 00000000 		.word	0
 3843 0010 00000000 		.word	0
 3844              		.section	.rodata.ac_bk.0,"a"
 3845              		.align	2
 3846              		.set	.LANCHOR1,. + 0
 3849              	ac_bk.0:
 3850 0000 04000000 		.word	4
 3851 0004 0A000000 		.word	10
 3852 0008 07000000 		.word	7
 3853 000c 00000000 		.word	0
 3854 0010 00000000 		.word	0
 3855              		.section	.rodata.ac_vi.2,"a"
 3856              		.align	2
 3857              		.set	.LANCHOR2,. + 0
 3860              	ac_vi.2:
 3861 0000 03000000 		.word	3
 3862 0004 04000000 		.word	4
 3863 0008 02000000 		.word	2
 3864 000c 5E000000 		.word	94
 3865 0010 00000000 		.word	0
 3866              		.section	.rodata.ac_vo.3,"a"
 3867              		.align	2
 3868              		.set	.LANCHOR3,. + 0
 3871              	ac_vo.3:
 3872 0000 02000000 		.word	2
 3873 0004 03000000 		.word	3
 3874 0008 02000000 		.word	2
 3875 000c 2F000000 		.word	47
 3876 0010 00000000 		.word	0
 3877              		.section	.rodata.txq_be.5,"a"
 3878              		.align	2
 3879              		.set	.LANCHOR6,. + 0
 3882              	txq_be.5:
 3883 0000 03000000 		.word	3
 3884 0004 0F000000 		.word	15
 3885 0008 3F000000 		.word	63
 3886 000c 00000000 		.word	0
 3887              		.section	.rodata.txq_bk.4,"a"
 3888              		.align	2
 3889              		.set	.LANCHOR7,. + 0
 3892              	txq_bk.4:
 3893 0000 07000000 		.word	7
 3894 0004 0F000000 		.word	15
 3895 0008 FF030000 		.word	1023
 3896 000c 00000000 		.word	0
 3897              		.section	.rodata.txq_vi.6,"a"
 3898              		.align	2
 3899              		.set	.LANCHOR5,. + 0
 3902              	txq_vi.6:
 3903 0000 01000000 		.word	1
 3904 0004 07000000 		.word	7
 3905 0008 0F000000 		.word	15
 3906 000c 1E000000 		.word	30
 3907              		.section	.rodata.txq_vo.7,"a"
 3908              		.align	2
 3909              		.set	.LANCHOR4,. + 0
 3912              	txq_vo.7:
 3913 0000 01000000 		.word	1
 3914 0004 03000000 		.word	3
 3915 0008 07000000 		.word	7
 3916 000c 0F000000 		.word	15
 3917              		.text
 3918              	.Letext0:
 3919              		.file 7 "c:\\users\\stapi\\onedrive\\desktop\\gd32vw553\\embeddedbuilder_v1.4.7.26843\\tools\\nucl
 3920              		.file 8 "c:\\users\\stapi\\onedrive\\desktop\\gd32vw553\\embeddedbuilder_v1.4.7.26843\\tools\\nucl
 3921              		.file 9 "c:\\users\\stapi\\onedrive\\desktop\\gd32vw553\\embeddedbuilder_v1.4.7.26843\\tools\\nucl
 3922              		.file 10 "c:\\users\\stapi\\onedrive\\desktop\\gd32vw553\\embeddedbuilder_v1.4.7.26843\\tools\\nuc
 3923              		.file 11 "c:\\users\\stapi\\onedrive\\desktop\\gd32vw553\\embeddedbuilder_v1.4.7.26843\\tools\\nuc
 3924              		.file 12 "c:\\users\\stapi\\onedrive\\desktop\\gd32vw553\\embeddedbuilder_v1.4.7.26843\\tools\\nuc
 3925              		.file 13 "c:\\users\\stapi\\onedrive\\desktop\\gd32vw553\\embeddedbuilder_v1.4.7.26843\\tools\\nuc
 3926              		.file 14 "..\\..\\..\\..\\lwip\\lwip-2.1.2\\src\\include/lwip/arch.h"
 3927              		.file 15 "..\\..\\..\\..\\lwip\\lwip-2.1.2\\src\\include/lwip/inet.h"
 3928              		.file 16 "..\\..\\..\\..\\wpa_supplicant\\src/utils/ip_addr.h"
 3929              		.file 17 "..\\..\\..\\..\\wpa_supplicant\\src/radius/radius_client.h"
 3930              		.file 18 "..\\..\\..\\..\\wpa_supplicant\\src/common/ieee802_11_defs.h"
 3931              		.file 19 "..\\..\\..\\..\\wpa_supplicant\\src/common/sae.h"
 3932              		.file 20 "..\\..\\..\\..\\wpa_supplicant\\src/utils/wpa_debug.h"
 3933              		.file 21 "C:/Users/stapi/OneDrive/Desktop/GD32VW553/V1_MQTT_OK/GD32VW55X_Wifi_BLE_SDK/GD32VW55x_RE
 3934              		.file 22 "C:/Users/stapi/OneDrive/Desktop/GD32VW553/V1_MQTT_OK/GD32VW55X_Wifi_BLE_SDK/GD32VW55x_RE
 3935              		.file 23 "..\\..\\..\\..\\wpa_supplicant\\src/common/ieee802_11_common.h"
 3936              		.file 24 "..\\..\\..\\..\\wpa_supplicant\\src/common/wpa_common.h"
 3937              		.file 25 "c:\\users\\stapi\\onedrive\\desktop\\gd32vw553\\embeddedbuilder_v1.4.7.26843\\tools\\nuc
 3938              		.file 26 "..\\..\\..\\..\\wpa_supplicant\\src/crypto/sha1.h"
 3939              		.file 27 "<built-in>"
DEFINED SYMBOLS
                            *ABS*:0000000000000000 ap_config.c
C:\Users\stapi\AppData\Local\Temp\cchP1ZsS.s:12     .text.is_zero_ether_addr:0000000000000000 is_zero_ether_addr
C:\Users\stapi\AppData\Local\Temp\cchP1ZsS.s:16     .text.is_zero_ether_addr:0000000000000000 .L0 
C:\Users\stapi\AppData\Local\Temp\cchP1ZsS.s:18     .text.is_zero_ether_addr:0000000000000000 .L0 
C:\Users\stapi\AppData\Local\Temp\cchP1ZsS.s:19     .text.is_zero_ether_addr:0000000000000000 .L0 
C:\Users\stapi\AppData\Local\Temp\cchP1ZsS.s:20     .text.is_zero_ether_addr:0000000000000000 .L0 
C:\Users\stapi\AppData\Local\Temp\cchP1ZsS.s:34     .text.is_zero_ether_addr:0000000000000026 .L0 
C:\Users\stapi\AppData\Local\Temp\cchP1ZsS.s:36     .text.is_zero_ether_addr:000000000000002c .L0 
C:\Users\stapi\AppData\Local\Temp\cchP1ZsS.s:42     .text.hostapd_config_free_radius:0000000000000000 hostapd_config_free_radius
C:\Users\stapi\AppData\Local\Temp\cchP1ZsS.s:46     .text.hostapd_config_free_radius:0000000000000000 .L0 
C:\Users\stapi\AppData\Local\Temp\cchP1ZsS.s:48     .text.hostapd_config_free_radius:0000000000000000 .L0 
C:\Users\stapi\AppData\Local\Temp\cchP1ZsS.s:49     .text.hostapd_config_free_radius:0000000000000008 .L0 
C:\Users\stapi\AppData\Local\Temp\cchP1ZsS.s:50     .text.hostapd_config_free_radius:0000000000000008 .L0 
C:\Users\stapi\AppData\Local\Temp\cchP1ZsS.s:51     .text.hostapd_config_free_radius:0000000000000008 .L0 
C:\Users\stapi\AppData\Local\Temp\cchP1ZsS.s:52     .text.hostapd_config_free_radius:0000000000000008 .L0 
C:\Users\stapi\AppData\Local\Temp\cchP1ZsS.s:53     .text.hostapd_config_free_radius:0000000000000008 .L0 
C:\Users\stapi\AppData\Local\Temp\cchP1ZsS.s:54     .text.hostapd_config_free_radius:0000000000000008 .L0 
C:\Users\stapi\AppData\Local\Temp\cchP1ZsS.s:56     .text.hostapd_config_free_radius:0000000000000008 .L0 
C:\Users\stapi\AppData\Local\Temp\cchP1ZsS.s:58     .text.hostapd_config_free_radius:0000000000000008 .L0 
C:\Users\stapi\AppData\Local\Temp\cchP1ZsS.s:59     .text.hostapd_config_free_radius:0000000000000008 .L0 
C:\Users\stapi\AppData\Local\Temp\cchP1ZsS.s:63     .text.hostapd_config_free_radius:0000000000000010 .L0 
C:\Users\stapi\AppData\Local\Temp\cchP1ZsS.s:67     .text.hostapd_config_free_radius:0000000000000012 .L0 
C:\Users\stapi\AppData\Local\Temp\cchP1ZsS.s:68     .text.hostapd_config_free_radius:0000000000000012 .L0 
C:\Users\stapi\AppData\Local\Temp\cchP1ZsS.s:70     .text.hostapd_config_free_radius:0000000000000016 .L0 
C:\Users\stapi\AppData\Local\Temp\cchP1ZsS.s:74     .text.hostapd_config_free_radius:0000000000000020 .L0 
C:\Users\stapi\AppData\Local\Temp\cchP1ZsS.s:75     .text.hostapd_config_free_radius:0000000000000028 .L0 
C:\Users\stapi\AppData\Local\Temp\cchP1ZsS.s:76     .text.hostapd_config_free_radius:0000000000000028 .L0 
C:\Users\stapi\AppData\Local\Temp\cchP1ZsS.s:77     .text.hostapd_config_free_radius:0000000000000028 .L0 
C:\Users\stapi\AppData\Local\Temp\cchP1ZsS.s:78     .text.hostapd_config_free_radius:0000000000000028 .L0 
C:\Users\stapi\AppData\Local\Temp\cchP1ZsS.s:79     .text.hostapd_config_free_radius:0000000000000028 .L0 
C:\Users\stapi\AppData\Local\Temp\cchP1ZsS.s:80     .text.hostapd_config_free_radius:0000000000000028 .L0 
C:\Users\stapi\AppData\Local\Temp\cchP1ZsS.s:81     .text.hostapd_config_free_radius:0000000000000028 .L0 
C:\Users\stapi\AppData\Local\Temp\cchP1ZsS.s:83     .text.hostapd_config_free_radius:0000000000000028 .L0 
C:\Users\stapi\AppData\Local\Temp\cchP1ZsS.s:85     .text.hostapd_config_free_radius:0000000000000028 .L0 
C:\Users\stapi\AppData\Local\Temp\cchP1ZsS.s:87     .text.hostapd_config_free_radius:000000000000002c .L0 
C:\Users\stapi\AppData\Local\Temp\cchP1ZsS.s:91     .text.hostapd_config_free_radius:0000000000000032 .L0 
C:\Users\stapi\AppData\Local\Temp\cchP1ZsS.s:94     .text.hostapd_config_free_radius:000000000000003a .L0 
C:\Users\stapi\AppData\Local\Temp\cchP1ZsS.s:95     .text.hostapd_config_free_radius:000000000000003c .L0 
C:\Users\stapi\AppData\Local\Temp\cchP1ZsS.s:102    .text.hostapd_config_defaults_bss:0000000000000000 hostapd_config_defaults_bss
C:\Users\stapi\AppData\Local\Temp\cchP1ZsS.s:105    .text.hostapd_config_defaults_bss:0000000000000000 .L0 
C:\Users\stapi\AppData\Local\Temp\cchP1ZsS.s:107    .text.hostapd_config_defaults_bss:0000000000000000 .L0 
C:\Users\stapi\AppData\Local\Temp\cchP1ZsS.s:111    .text.hostapd_config_defaults_bss:0000000000000000 .L0 
C:\Users\stapi\AppData\Local\Temp\cchP1ZsS.s:112    .text.hostapd_config_defaults_bss:0000000000000000 .L0 
C:\Users\stapi\AppData\Local\Temp\cchP1ZsS.s:116    .text.hostapd_config_defaults_bss:0000000000000004 .L0 
C:\Users\stapi\AppData\Local\Temp\cchP1ZsS.s:121    .text.hostapd_config_defaults_bss:0000000000000008 .L0 
C:\Users\stapi\AppData\Local\Temp\cchP1ZsS.s:122    .text.hostapd_config_defaults_bss:0000000000000008 .L0 
C:\Users\stapi\AppData\Local\Temp\cchP1ZsS.s:124    .text.hostapd_config_defaults_bss:000000000000000a .L0 
C:\Users\stapi\AppData\Local\Temp\cchP1ZsS.s:125    .text.hostapd_config_defaults_bss:000000000000000a .L0 
C:\Users\stapi\AppData\Local\Temp\cchP1ZsS.s:130    .text.hostapd_config_defaults_bss:000000000000000c .L0 
C:\Users\stapi\AppData\Local\Temp\cchP1ZsS.s:131    .text.hostapd_config_defaults_bss:000000000000000c .L0 
C:\Users\stapi\AppData\Local\Temp\cchP1ZsS.s:133    .text.hostapd_config_defaults_bss:000000000000000e .L0 
C:\Users\stapi\AppData\Local\Temp\cchP1ZsS.s:135    .text.hostapd_config_defaults_bss:0000000000000010 .L0 
C:\Users\stapi\AppData\Local\Temp\cchP1ZsS.s:137    .text.hostapd_config_defaults_bss:0000000000000012 .L0 
C:\Users\stapi\AppData\Local\Temp\cchP1ZsS.s:139    .text.hostapd_config_defaults_bss:0000000000000014 .L0 
C:\Users\stapi\AppData\Local\Temp\cchP1ZsS.s:140    .text.hostapd_config_defaults_bss:0000000000000014 .L0 
C:\Users\stapi\AppData\Local\Temp\cchP1ZsS.s:142    .text.hostapd_config_defaults_bss:0000000000000016 .L0 
C:\Users\stapi\AppData\Local\Temp\cchP1ZsS.s:143    .text.hostapd_config_defaults_bss:0000000000000016 .L0 
C:\Users\stapi\AppData\Local\Temp\cchP1ZsS.s:145    .text.hostapd_config_defaults_bss:000000000000001a .L0 
C:\Users\stapi\AppData\Local\Temp\cchP1ZsS.s:146    .text.hostapd_config_defaults_bss:000000000000001a .L0 
C:\Users\stapi\AppData\Local\Temp\cchP1ZsS.s:148    .text.hostapd_config_defaults_bss:000000000000001e .L0 
C:\Users\stapi\AppData\Local\Temp\cchP1ZsS.s:149    .text.hostapd_config_defaults_bss:000000000000001e .L0 
C:\Users\stapi\AppData\Local\Temp\cchP1ZsS.s:151    .text.hostapd_config_defaults_bss:0000000000000022 .L0 
C:\Users\stapi\AppData\Local\Temp\cchP1ZsS.s:154    .text.hostapd_config_defaults_bss:0000000000000028 .L0 
C:\Users\stapi\AppData\Local\Temp\cchP1ZsS.s:156    .text.hostapd_config_defaults_bss:000000000000002a .L0 
C:\Users\stapi\AppData\Local\Temp\cchP1ZsS.s:158    .text.hostapd_config_defaults_bss:000000000000002e .L0 
C:\Users\stapi\AppData\Local\Temp\cchP1ZsS.s:160    .text.hostapd_config_defaults_bss:0000000000000030 .L0 
C:\Users\stapi\AppData\Local\Temp\cchP1ZsS.s:162    .text.hostapd_config_defaults_bss:0000000000000032 .L0 
C:\Users\stapi\AppData\Local\Temp\cchP1ZsS.s:164    .text.hostapd_config_defaults_bss:0000000000000034 .L0 
C:\Users\stapi\AppData\Local\Temp\cchP1ZsS.s:165    .text.hostapd_config_defaults_bss:0000000000000034 .L0 
C:\Users\stapi\AppData\Local\Temp\cchP1ZsS.s:166    .text.hostapd_config_defaults_bss:0000000000000034 .L0 
C:\Users\stapi\AppData\Local\Temp\cchP1ZsS.s:167    .text.hostapd_config_defaults_bss:0000000000000034 .L0 
C:\Users\stapi\AppData\Local\Temp\cchP1ZsS.s:171    .text.hostapd_config_defaults_bss:0000000000000040 .L0 
C:\Users\stapi\AppData\Local\Temp\cchP1ZsS.s:172    .text.hostapd_config_defaults_bss:0000000000000040 .L0 
C:\Users\stapi\AppData\Local\Temp\cchP1ZsS.s:174    .text.hostapd_config_defaults_bss:0000000000000044 .L0 
C:\Users\stapi\AppData\Local\Temp\cchP1ZsS.s:175    .text.hostapd_config_defaults_bss:0000000000000044 .L0 
C:\Users\stapi\AppData\Local\Temp\cchP1ZsS.s:178    .text.hostapd_config_defaults_bss:000000000000004a .L0 
C:\Users\stapi\AppData\Local\Temp\cchP1ZsS.s:179    .text.hostapd_config_defaults_bss:000000000000004a .L0 
C:\Users\stapi\AppData\Local\Temp\cchP1ZsS.s:181    .text.hostapd_config_defaults_bss:000000000000004e .L0 
C:\Users\stapi\AppData\Local\Temp\cchP1ZsS.s:182    .text.hostapd_config_defaults_bss:000000000000004e .L0 
C:\Users\stapi\AppData\Local\Temp\cchP1ZsS.s:184    .text.hostapd_config_defaults_bss:0000000000000052 .L0 
C:\Users\stapi\AppData\Local\Temp\cchP1ZsS.s:185    .text.hostapd_config_defaults_bss:0000000000000052 .L0 
C:\Users\stapi\AppData\Local\Temp\cchP1ZsS.s:187    .text.hostapd_config_defaults_bss:0000000000000054 .L0 
C:\Users\stapi\AppData\Local\Temp\cchP1ZsS.s:189    .text.hostapd_config_defaults_bss:0000000000000056 .L0 
C:\Users\stapi\AppData\Local\Temp\cchP1ZsS.s:190    .text.hostapd_config_defaults_bss:0000000000000056 .L0 
C:\Users\stapi\AppData\Local\Temp\cchP1ZsS.s:192    .text.hostapd_config_defaults_bss:000000000000005a .L0 
C:\Users\stapi\AppData\Local\Temp\cchP1ZsS.s:193    .text.hostapd_config_defaults_bss:000000000000005a .L0 
C:\Users\stapi\AppData\Local\Temp\cchP1ZsS.s:195    .text.hostapd_config_defaults_bss:000000000000005e .L0 
C:\Users\stapi\AppData\Local\Temp\cchP1ZsS.s:196    .text.hostapd_config_defaults_bss:000000000000005e .L0 
C:\Users\stapi\AppData\Local\Temp\cchP1ZsS.s:199    .text.hostapd_config_defaults_bss:0000000000000066 .L0 
C:\Users\stapi\AppData\Local\Temp\cchP1ZsS.s:201    .text.hostapd_config_defaults_bss:0000000000000068 .L0 
C:\Users\stapi\AppData\Local\Temp\cchP1ZsS.s:203    .text.hostapd_config_defaults_bss:000000000000006a .L0 
C:\Users\stapi\AppData\Local\Temp\cchP1ZsS.s:205    .text.hostapd_config_defaults_bss:000000000000006e .L0 
C:\Users\stapi\AppData\Local\Temp\cchP1ZsS.s:207    .text.hostapd_config_defaults_bss:0000000000000070 .L0 
C:\Users\stapi\AppData\Local\Temp\cchP1ZsS.s:209    .text.hostapd_config_defaults_bss:0000000000000074 .L0 
C:\Users\stapi\AppData\Local\Temp\cchP1ZsS.s:211    .text.hostapd_config_defaults_bss:0000000000000076 .L0 
C:\Users\stapi\AppData\Local\Temp\cchP1ZsS.s:213    .text.hostapd_config_defaults_bss:000000000000007a .L0 
C:\Users\stapi\AppData\Local\Temp\cchP1ZsS.s:215    .text.hostapd_config_defaults_bss:000000000000007e .L0 
C:\Users\stapi\AppData\Local\Temp\cchP1ZsS.s:217    .text.hostapd_config_defaults_bss:0000000000000082 .L0 
C:\Users\stapi\AppData\Local\Temp\cchP1ZsS.s:218    .text.hostapd_config_defaults_bss:0000000000000082 .L0 
C:\Users\stapi\AppData\Local\Temp\cchP1ZsS.s:220    .text.hostapd_config_defaults_bss:0000000000000086 .L0 
C:\Users\stapi\AppData\Local\Temp\cchP1ZsS.s:221    .text.hostapd_config_defaults_bss:0000000000000086 .L0 
C:\Users\stapi\AppData\Local\Temp\cchP1ZsS.s:222    .text.hostapd_config_defaults_bss:0000000000000086 .L0 
C:\Users\stapi\AppData\Local\Temp\cchP1ZsS.s:223    .text.hostapd_config_defaults_bss:0000000000000086 .L0 
C:\Users\stapi\AppData\Local\Temp\cchP1ZsS.s:225    .text.hostapd_config_defaults_bss:0000000000000088 .L0 
C:\Users\stapi\AppData\Local\Temp\cchP1ZsS.s:226    .text.hostapd_config_defaults_bss:0000000000000088 .L0 
C:\Users\stapi\AppData\Local\Temp\cchP1ZsS.s:227    .text.hostapd_config_defaults_bss:0000000000000088 .L0 
C:\Users\stapi\AppData\Local\Temp\cchP1ZsS.s:229    .text.hostapd_config_defaults_bss:000000000000008c .L0 
C:\Users\stapi\AppData\Local\Temp\cchP1ZsS.s:230    .text.hostapd_config_defaults_bss:000000000000008c .L0 
C:\Users\stapi\AppData\Local\Temp\cchP1ZsS.s:231    .text.hostapd_config_defaults_bss:000000000000008c .L0 
C:\Users\stapi\AppData\Local\Temp\cchP1ZsS.s:233    .text.hostapd_config_defaults_bss:0000000000000090 .L0 
C:\Users\stapi\AppData\Local\Temp\cchP1ZsS.s:234    .text.hostapd_config_defaults_bss:0000000000000090 .L0 
C:\Users\stapi\AppData\Local\Temp\cchP1ZsS.s:235    .text.hostapd_config_defaults_bss:0000000000000090 .L0 
C:\Users\stapi\AppData\Local\Temp\cchP1ZsS.s:238    .text.hostapd_config_defaults_bss:0000000000000096 .L0 
C:\Users\stapi\AppData\Local\Temp\cchP1ZsS.s:239    .text.hostapd_config_defaults_bss:0000000000000096 .L0 
C:\Users\stapi\AppData\Local\Temp\cchP1ZsS.s:242    .text.hostapd_config_defaults_bss:000000000000009c .L0 
C:\Users\stapi\AppData\Local\Temp\cchP1ZsS.s:243    .text.hostapd_config_defaults_bss:000000000000009c .L0 
C:\Users\stapi\AppData\Local\Temp\cchP1ZsS.s:246    .text.hostapd_config_defaults_bss:00000000000000a2 .L0 
C:\Users\stapi\AppData\Local\Temp\cchP1ZsS.s:247    .text.hostapd_config_defaults_bss:00000000000000a2 .L0 
C:\Users\stapi\AppData\Local\Temp\cchP1ZsS.s:249    .text.hostapd_config_defaults_bss:00000000000000a6 .L0 
C:\Users\stapi\AppData\Local\Temp\cchP1ZsS.s:251    .text.hostapd_config_defaults_bss:00000000000000a8 .L0 
C:\Users\stapi\AppData\Local\Temp\cchP1ZsS.s:253    .text.hostapd_config_defaults_bss:00000000000000ac .L0 
C:\Users\stapi\AppData\Local\Temp\cchP1ZsS.s:255    .text.hostapd_config_defaults_bss:00000000000000b0 .L0 
C:\Users\stapi\AppData\Local\Temp\cchP1ZsS.s:256    .text.hostapd_config_defaults_bss:00000000000000b0 .L0 
C:\Users\stapi\AppData\Local\Temp\cchP1ZsS.s:257    .text.hostapd_config_defaults_bss:00000000000000b0 .L0 
C:\Users\stapi\AppData\Local\Temp\cchP1ZsS.s:259    .text.hostapd_config_defaults_bss:00000000000000b4 .L0 
C:\Users\stapi\AppData\Local\Temp\cchP1ZsS.s:261    .text.hostapd_config_defaults_bss:00000000000000b6 .L0 
C:\Users\stapi\AppData\Local\Temp\cchP1ZsS.s:262    .text.hostapd_config_defaults_bss:00000000000000b6 .L0 
C:\Users\stapi\AppData\Local\Temp\cchP1ZsS.s:264    .text.hostapd_config_defaults_bss:00000000000000b8 .L0 
C:\Users\stapi\AppData\Local\Temp\cchP1ZsS.s:265    .text.hostapd_config_defaults_bss:00000000000000b8 .L0 
C:\Users\stapi\AppData\Local\Temp\cchP1ZsS.s:268    .text.hostapd_config_defaults_bss:00000000000000be .L0 
C:\Users\stapi\AppData\Local\Temp\cchP1ZsS.s:269    .text.hostapd_config_defaults_bss:00000000000000be .L0 
C:\Users\stapi\AppData\Local\Temp\cchP1ZsS.s:271    .text.hostapd_config_defaults_bss:00000000000000c0 .L0 
C:\Users\stapi\AppData\Local\Temp\cchP1ZsS.s:272    .text.hostapd_config_defaults_bss:00000000000000c0 .L0 
C:\Users\stapi\AppData\Local\Temp\cchP1ZsS.s:275    .text.hostapd_config_defaults_bss:00000000000000c4 .L0 
C:\Users\stapi\AppData\Local\Temp\cchP1ZsS.s:276    .text.hostapd_config_defaults_bss:00000000000000c4 .L0 
C:\Users\stapi\AppData\Local\Temp\cchP1ZsS.s:279    .text.hostapd_config_defaults_bss:00000000000000ca .L0 
C:\Users\stapi\AppData\Local\Temp\cchP1ZsS.s:280    .text.hostapd_config_defaults_bss:00000000000000ca .L0 
C:\Users\stapi\AppData\Local\Temp\cchP1ZsS.s:283    .text.hostapd_config_defaults_bss:00000000000000d0 .L0 
C:\Users\stapi\AppData\Local\Temp\cchP1ZsS.s:284    .text.hostapd_config_defaults_bss:00000000000000d0 .L0 
C:\Users\stapi\AppData\Local\Temp\cchP1ZsS.s:286    .text.hostapd_config_defaults_bss:00000000000000d4 .L0 
C:\Users\stapi\AppData\Local\Temp\cchP1ZsS.s:287    .text.hostapd_config_defaults_bss:00000000000000d4 .L0 
C:\Users\stapi\AppData\Local\Temp\cchP1ZsS.s:289    .text.hostapd_config_defaults_bss:00000000000000d6 .L0 
C:\Users\stapi\AppData\Local\Temp\cchP1ZsS.s:290    .text.hostapd_config_defaults_bss:00000000000000d8 .L0 
C:\Users\stapi\AppData\Local\Temp\cchP1ZsS.s:301    .text.hostapd_config_defaults:0000000000000000 hostapd_config_defaults
C:\Users\stapi\AppData\Local\Temp\cchP1ZsS.s:304    .text.hostapd_config_defaults:0000000000000000 .L0 
C:\Users\stapi\AppData\Local\Temp\cchP1ZsS.s:305    .text.hostapd_config_defaults:0000000000000000 .L0 
C:\Users\stapi\AppData\Local\Temp\cchP1ZsS.s:306    .text.hostapd_config_defaults:0000000000000008 .L0 
C:\Users\stapi\AppData\Local\Temp\cchP1ZsS.s:307    .text.hostapd_config_defaults:0000000000000008 .L0 
C:\Users\stapi\AppData\Local\Temp\cchP1ZsS.s:308    .text.hostapd_config_defaults:0000000000000008 .L0 
C:\Users\stapi\AppData\Local\Temp\cchP1ZsS.s:309    .text.hostapd_config_defaults:0000000000000008 .L0 
C:\Users\stapi\AppData\Local\Temp\cchP1ZsS.s:310    .text.hostapd_config_defaults:0000000000000008 .L0 
C:\Users\stapi\AppData\Local\Temp\cchP1ZsS.s:312    .text.hostapd_config_defaults:0000000000000008 .L0 
C:\Users\stapi\AppData\Local\Temp\cchP1ZsS.s:313    .text.hostapd_config_defaults:0000000000000008 .L0 
C:\Users\stapi\AppData\Local\Temp\cchP1ZsS.s:315    .text.hostapd_config_defaults:0000000000000008 .L0 
C:\Users\stapi\AppData\Local\Temp\cchP1ZsS.s:316    .text.hostapd_config_defaults:0000000000000008 .L0 
C:\Users\stapi\AppData\Local\Temp\cchP1ZsS.s:317    .text.hostapd_config_defaults:0000000000000008 .L0 
C:\Users\stapi\AppData\Local\Temp\cchP1ZsS.s:318    .text.hostapd_config_defaults:0000000000000008 .L0 
C:\Users\stapi\AppData\Local\Temp\cchP1ZsS.s:319    .text.hostapd_config_defaults:0000000000000008 .L0 
C:\Users\stapi\AppData\Local\Temp\cchP1ZsS.s:320    .text.hostapd_config_defaults:0000000000000008 .L0 
C:\Users\stapi\AppData\Local\Temp\cchP1ZsS.s:321    .text.hostapd_config_defaults:0000000000000008 .L0 
C:\Users\stapi\AppData\Local\Temp\cchP1ZsS.s:322    .text.hostapd_config_defaults:0000000000000008 .L0 
C:\Users\stapi\AppData\Local\Temp\cchP1ZsS.s:323    .text.hostapd_config_defaults:0000000000000008 .L0 
C:\Users\stapi\AppData\Local\Temp\cchP1ZsS.s:324    .text.hostapd_config_defaults:0000000000000008 .L0 
C:\Users\stapi\AppData\Local\Temp\cchP1ZsS.s:325    .text.hostapd_config_defaults:0000000000000008 .L0 
C:\Users\stapi\AppData\Local\Temp\cchP1ZsS.s:331    .text.hostapd_config_defaults:0000000000000016 .L0 
C:\Users\stapi\AppData\Local\Temp\cchP1ZsS.s:332    .text.hostapd_config_defaults:0000000000000016 .L0 
C:\Users\stapi\AppData\Local\Temp\cchP1ZsS.s:338    .text.hostapd_config_defaults:0000000000000024 .L0 
C:\Users\stapi\AppData\Local\Temp\cchP1ZsS.s:339    .text.hostapd_config_defaults:0000000000000024 .L0 
C:\Users\stapi\AppData\Local\Temp\cchP1ZsS.s:341    .text.hostapd_config_defaults:0000000000000026 .L0 
C:\Users\stapi\AppData\Local\Temp\cchP1ZsS.s:344    .text.hostapd_config_defaults:0000000000000028 .L0 
C:\Users\stapi\AppData\Local\Temp\cchP1ZsS.s:351    .text.hostapd_config_defaults:000000000000003a .L0 
C:\Users\stapi\AppData\Local\Temp\cchP1ZsS.s:355    .text.hostapd_config_defaults:0000000000000044 .L0 
C:\Users\stapi\AppData\Local\Temp\cchP1ZsS.s:359    .text.hostapd_config_defaults:000000000000004e .L0 
C:\Users\stapi\AppData\Local\Temp\cchP1ZsS.s:360    .text.hostapd_config_defaults:000000000000004e .L0 
C:\Users\stapi\AppData\Local\Temp\cchP1ZsS.s:363    .text.hostapd_config_defaults:0000000000000050 .L0 
C:\Users\stapi\AppData\Local\Temp\cchP1ZsS.s:365    .text.hostapd_config_defaults:000000000000005a .L0 
C:\Users\stapi\AppData\Local\Temp\cchP1ZsS.s:366    .text.hostapd_config_defaults:000000000000005a .L0 
C:\Users\stapi\AppData\Local\Temp\cchP1ZsS.s:367    .text.hostapd_config_defaults:000000000000005a .L0 
C:\Users\stapi\AppData\Local\Temp\cchP1ZsS.s:368    .text.hostapd_config_defaults:000000000000005a .L0 
C:\Users\stapi\AppData\Local\Temp\cchP1ZsS.s:369    .text.hostapd_config_defaults:000000000000005a .L0 
C:\Users\stapi\AppData\Local\Temp\cchP1ZsS.s:370    .text.hostapd_config_defaults:000000000000005a .L0 
C:\Users\stapi\AppData\Local\Temp\cchP1ZsS.s:373    .text.hostapd_config_defaults:000000000000005a .L0 
C:\Users\stapi\AppData\Local\Temp\cchP1ZsS.s:378    .text.hostapd_config_defaults:000000000000005a .L0 
C:\Users\stapi\AppData\Local\Temp\cchP1ZsS.s:379    .text.hostapd_config_defaults:000000000000005a .L0 
C:\Users\stapi\AppData\Local\Temp\cchP1ZsS.s:380    .text.hostapd_config_defaults:000000000000005a .L0 
C:\Users\stapi\AppData\Local\Temp\cchP1ZsS.s:381    .text.hostapd_config_defaults:000000000000005a .L0 
C:\Users\stapi\AppData\Local\Temp\cchP1ZsS.s:388    .text.hostapd_config_defaults:0000000000000064 .L0 
C:\Users\stapi\AppData\Local\Temp\cchP1ZsS.s:392    .text.hostapd_config_defaults:0000000000000066 .L0 
C:\Users\stapi\AppData\Local\Temp\cchP1ZsS.s:397    .text.hostapd_config_defaults:0000000000000068 .L0 
C:\Users\stapi\AppData\Local\Temp\cchP1ZsS.s:398    .text.hostapd_config_defaults:0000000000000068 .L0 
C:\Users\stapi\AppData\Local\Temp\cchP1ZsS.s:401    .text.hostapd_config_defaults:000000000000006a .L0 
C:\Users\stapi\AppData\Local\Temp\cchP1ZsS.s:405    .text.hostapd_config_defaults:0000000000000074 .L0 
C:\Users\stapi\AppData\Local\Temp\cchP1ZsS.s:409    .text.hostapd_config_defaults:000000000000007e .L0 
C:\Users\stapi\AppData\Local\Temp\cchP1ZsS.s:410    .text.hostapd_config_defaults:000000000000007e .L0 
C:\Users\stapi\AppData\Local\Temp\cchP1ZsS.s:413    .text.hostapd_config_defaults:0000000000000080 .L0 
C:\Users\stapi\AppData\Local\Temp\cchP1ZsS.s:414    .text.hostapd_config_defaults:0000000000000080 .L0 
C:\Users\stapi\AppData\Local\Temp\cchP1ZsS.s:416    .text.hostapd_config_defaults:0000000000000084 .L0 
C:\Users\stapi\AppData\Local\Temp\cchP1ZsS.s:417    .text.hostapd_config_defaults:0000000000000084 .L0 
C:\Users\stapi\AppData\Local\Temp\cchP1ZsS.s:421    .text.hostapd_config_defaults:0000000000000090 .L0 
C:\Users\stapi\AppData\Local\Temp\cchP1ZsS.s:423    .text.hostapd_config_defaults:0000000000000094 .L0 
C:\Users\stapi\AppData\Local\Temp\cchP1ZsS.s:424    .text.hostapd_config_defaults:0000000000000094 .L0 
C:\Users\stapi\AppData\Local\Temp\cchP1ZsS.s:426    .text.hostapd_config_defaults:0000000000000096 .L0 
C:\Users\stapi\AppData\Local\Temp\cchP1ZsS.s:428    .text.hostapd_config_defaults:0000000000000098 .L0 
C:\Users\stapi\AppData\Local\Temp\cchP1ZsS.s:434    .text.hostapd_config_defaults:00000000000000a4 .L0 
C:\Users\stapi\AppData\Local\Temp\cchP1ZsS.s:438    .text.hostapd_config_defaults:00000000000000ae .L0 
C:\Users\stapi\AppData\Local\Temp\cchP1ZsS.s:439    .text.hostapd_config_defaults:00000000000000ae .L0 
C:\Users\stapi\AppData\Local\Temp\cchP1ZsS.s:442    .text.hostapd_config_defaults:00000000000000b6 .L0 
C:\Users\stapi\AppData\Local\Temp\cchP1ZsS.s:444    .text.hostapd_config_defaults:00000000000000b8 .L0 
C:\Users\stapi\AppData\Local\Temp\cchP1ZsS.s:446    .text.hostapd_config_defaults:00000000000000ba .L0 
C:\Users\stapi\AppData\Local\Temp\cchP1ZsS.s:448    .text.hostapd_config_defaults:00000000000000bc .L0 
C:\Users\stapi\AppData\Local\Temp\cchP1ZsS.s:450    .text.hostapd_config_defaults:00000000000000be .L0 
C:\Users\stapi\AppData\Local\Temp\cchP1ZsS.s:452    .text.hostapd_config_defaults:00000000000000c2 .L0 
C:\Users\stapi\AppData\Local\Temp\cchP1ZsS.s:455    .text.hostapd_config_defaults:00000000000000c8 .L0 
C:\Users\stapi\AppData\Local\Temp\cchP1ZsS.s:457    .text.hostapd_config_defaults:00000000000000ca .L0 
C:\Users\stapi\AppData\Local\Temp\cchP1ZsS.s:458    .text.hostapd_config_defaults:00000000000000ca .L0 
C:\Users\stapi\AppData\Local\Temp\cchP1ZsS.s:459    .text.hostapd_config_defaults:00000000000000ca .L0 
C:\Users\stapi\AppData\Local\Temp\cchP1ZsS.s:460    .text.hostapd_config_defaults:00000000000000ca .L0 
C:\Users\stapi\AppData\Local\Temp\cchP1ZsS.s:461    .text.hostapd_config_defaults:00000000000000ca .L0 
C:\Users\stapi\AppData\Local\Temp\cchP1ZsS.s:462    .text.hostapd_config_defaults:00000000000000ca .L0 
C:\Users\stapi\AppData\Local\Temp\cchP1ZsS.s:468    .text.hostapd_config_defaults:00000000000000dc .L0 
C:\Users\stapi\AppData\Local\Temp\cchP1ZsS.s:469    .text.hostapd_config_defaults:00000000000000dc .L0 
C:\Users\stapi\AppData\Local\Temp\cchP1ZsS.s:476    .text.hostapd_config_defaults:00000000000000f2 .L0 
C:\Users\stapi\AppData\Local\Temp\cchP1ZsS.s:477    .text.hostapd_config_defaults:00000000000000f2 .L0 
C:\Users\stapi\AppData\Local\Temp\cchP1ZsS.s:484    .text.hostapd_config_defaults:0000000000000108 .L0 
C:\Users\stapi\AppData\Local\Temp\cchP1ZsS.s:485    .text.hostapd_config_defaults:0000000000000108 .L0 
C:\Users\stapi\AppData\Local\Temp\cchP1ZsS.s:492    .text.hostapd_config_defaults:000000000000011e .L0 
C:\Users\stapi\AppData\Local\Temp\cchP1ZsS.s:493    .text.hostapd_config_defaults:000000000000011e .L0 
C:\Users\stapi\AppData\Local\Temp\cchP1ZsS.s:500    .text.hostapd_config_defaults:0000000000000134 .L0 
C:\Users\stapi\AppData\Local\Temp\cchP1ZsS.s:501    .text.hostapd_config_defaults:0000000000000134 .L0 
C:\Users\stapi\AppData\Local\Temp\cchP1ZsS.s:508    .text.hostapd_config_defaults:000000000000014a .L0 
C:\Users\stapi\AppData\Local\Temp\cchP1ZsS.s:509    .text.hostapd_config_defaults:000000000000014a .L0 
C:\Users\stapi\AppData\Local\Temp\cchP1ZsS.s:516    .text.hostapd_config_defaults:0000000000000160 .L0 
C:\Users\stapi\AppData\Local\Temp\cchP1ZsS.s:517    .text.hostapd_config_defaults:0000000000000160 .L0 
C:\Users\stapi\AppData\Local\Temp\cchP1ZsS.s:524    .text.hostapd_config_defaults:0000000000000176 .L0 
C:\Users\stapi\AppData\Local\Temp\cchP1ZsS.s:525    .text.hostapd_config_defaults:0000000000000176 .L0 
C:\Users\stapi\AppData\Local\Temp\cchP1ZsS.s:528    .text.hostapd_config_defaults:000000000000017c .L0 
C:\Users\stapi\AppData\Local\Temp\cchP1ZsS.s:529    .text.hostapd_config_defaults:000000000000017c .L0 
C:\Users\stapi\AppData\Local\Temp\cchP1ZsS.s:532    .text.hostapd_config_defaults:0000000000000182 .L0 
C:\Users\stapi\AppData\Local\Temp\cchP1ZsS.s:533    .text.hostapd_config_defaults:0000000000000182 .L0 
C:\Users\stapi\AppData\Local\Temp\cchP1ZsS.s:536    .text.hostapd_config_defaults:0000000000000188 .L0 
C:\Users\stapi\AppData\Local\Temp\cchP1ZsS.s:537    .text.hostapd_config_defaults:0000000000000188 .L0 
C:\Users\stapi\AppData\Local\Temp\cchP1ZsS.s:540    .text.hostapd_config_defaults:000000000000018e .L0 
C:\Users\stapi\AppData\Local\Temp\cchP1ZsS.s:541    .text.hostapd_config_defaults:000000000000018e .L0 
C:\Users\stapi\AppData\Local\Temp\cchP1ZsS.s:544    .text.hostapd_config_defaults:0000000000000196 .L0 
C:\Users\stapi\AppData\Local\Temp\cchP1ZsS.s:547    .text.hostapd_config_defaults:000000000000019c .L0 
C:\Users\stapi\AppData\Local\Temp\cchP1ZsS.s:549    .text.hostapd_config_defaults:00000000000001a0 .L0 
C:\Users\stapi\AppData\Local\Temp\cchP1ZsS.s:551    .text.hostapd_config_defaults:00000000000001a4 .L0 
C:\Users\stapi\AppData\Local\Temp\cchP1ZsS.s:552    .text.hostapd_config_defaults:00000000000001a4 .L0 
C:\Users\stapi\AppData\Local\Temp\cchP1ZsS.s:554    .text.hostapd_config_defaults:00000000000001a8 .L0 
C:\Users\stapi\AppData\Local\Temp\cchP1ZsS.s:555    .text.hostapd_config_defaults:00000000000001a8 .L0 
C:\Users\stapi\AppData\Local\Temp\cchP1ZsS.s:556    .text.hostapd_config_defaults:00000000000001a8 .L0 
C:\Users\stapi\AppData\Local\Temp\cchP1ZsS.s:557    .text.hostapd_config_defaults:00000000000001a8 .L0 
C:\Users\stapi\AppData\Local\Temp\cchP1ZsS.s:558    .text.hostapd_config_defaults:00000000000001a8 .L0 
C:\Users\stapi\AppData\Local\Temp\cchP1ZsS.s:560    .text.hostapd_config_defaults:00000000000001ac .L0 
C:\Users\stapi\AppData\Local\Temp\cchP1ZsS.s:561    .text.hostapd_config_defaults:00000000000001ac .L0 
C:\Users\stapi\AppData\Local\Temp\cchP1ZsS.s:564    .text.hostapd_config_defaults:00000000000001b4 .L0 
C:\Users\stapi\AppData\Local\Temp\cchP1ZsS.s:567    .text.hostapd_config_defaults:00000000000001bc .L0 
C:\Users\stapi\AppData\Local\Temp\cchP1ZsS.s:569    .text.hostapd_config_defaults:00000000000001c0 .L0 
C:\Users\stapi\AppData\Local\Temp\cchP1ZsS.s:571    .text.hostapd_config_defaults:00000000000001c4 .L0 
C:\Users\stapi\AppData\Local\Temp\cchP1ZsS.s:574    .text.hostapd_config_defaults:00000000000001cc .L0 
C:\Users\stapi\AppData\Local\Temp\cchP1ZsS.s:576    .text.hostapd_config_defaults:00000000000001ce .L0 
C:\Users\stapi\AppData\Local\Temp\cchP1ZsS.s:578    .text.hostapd_config_defaults:00000000000001d0 .L0 
C:\Users\stapi\AppData\Local\Temp\cchP1ZsS.s:580    .text.hostapd_config_defaults:00000000000001d4 .L0 
C:\Users\stapi\AppData\Local\Temp\cchP1ZsS.s:581    .text.hostapd_config_defaults:00000000000001d4 .L0 
C:\Users\stapi\AppData\Local\Temp\cchP1ZsS.s:582    .text.hostapd_config_defaults:00000000000001d4 .L0 
C:\Users\stapi\AppData\Local\Temp\cchP1ZsS.s:583    .text.hostapd_config_defaults:00000000000001d4 .L0 
C:\Users\stapi\AppData\Local\Temp\cchP1ZsS.s:584    .text.hostapd_config_defaults:00000000000001d4 .L0 
C:\Users\stapi\AppData\Local\Temp\cchP1ZsS.s:585    .text.hostapd_config_defaults:00000000000001d4 .L0 
C:\Users\stapi\AppData\Local\Temp\cchP1ZsS.s:587    .text.hostapd_config_defaults:00000000000001d6 .L0 
C:\Users\stapi\AppData\Local\Temp\cchP1ZsS.s:588    .text.hostapd_config_defaults:00000000000001d6 .L0 
C:\Users\stapi\AppData\Local\Temp\cchP1ZsS.s:591    .text.hostapd_config_defaults:00000000000001de .L0 
C:\Users\stapi\AppData\Local\Temp\cchP1ZsS.s:592    .text.hostapd_config_defaults:00000000000001de .L0 
C:\Users\stapi\AppData\Local\Temp\cchP1ZsS.s:594    .text.hostapd_config_defaults:00000000000001e2 .L0 
C:\Users\stapi\AppData\Local\Temp\cchP1ZsS.s:595    .text.hostapd_config_defaults:00000000000001e2 .L0 
C:\Users\stapi\AppData\Local\Temp\cchP1ZsS.s:598    .text.hostapd_config_defaults:00000000000001e6 .L0 
C:\Users\stapi\AppData\Local\Temp\cchP1ZsS.s:599    .text.hostapd_config_defaults:00000000000001e6 .L0 
C:\Users\stapi\AppData\Local\Temp\cchP1ZsS.s:600    .text.hostapd_config_defaults:00000000000001e8 .L0 
C:\Users\stapi\AppData\Local\Temp\cchP1ZsS.s:607    .text.hostapd_mac_comp:0000000000000000 hostapd_mac_comp
C:\Users\stapi\AppData\Local\Temp\cchP1ZsS.s:610    .text.hostapd_mac_comp:0000000000000000 .L0 
C:\Users\stapi\AppData\Local\Temp\cchP1ZsS.s:612    .text.hostapd_mac_comp:0000000000000000 .L0 
C:\Users\stapi\AppData\Local\Temp\cchP1ZsS.s:613    .text.hostapd_mac_comp:0000000000000000 .L0 
C:\Users\stapi\AppData\Local\Temp\cchP1ZsS.s:614    .text.hostapd_mac_comp:0000000000000000 .L0 
C:\Users\stapi\AppData\Local\Temp\cchP1ZsS.s:617    .text.hostapd_mac_comp:000000000000000a .L0 
C:\Users\stapi\AppData\Local\Temp\cchP1ZsS.s:624    .text.hostapd_config_get_radius_attr:0000000000000000 hostapd_config_get_radius_attr
C:\Users\stapi\AppData\Local\Temp\cchP1ZsS.s:627    .text.hostapd_config_get_radius_attr:0000000000000000 .L0 
C:\Users\stapi\AppData\Local\Temp\cchP1ZsS.s:629    .text.hostapd_config_get_radius_attr:0000000000000000 .L0 
C:\Users\stapi\AppData\Local\Temp\cchP1ZsS.s:631    .text.hostapd_config_get_radius_attr:0000000000000000 .L0 
C:\Users\stapi\AppData\Local\Temp\cchP1ZsS.s:632    .text.hostapd_config_get_radius_attr:0000000000000000 .L0 
C:\Users\stapi\AppData\Local\Temp\cchP1ZsS.s:633    .text.hostapd_config_get_radius_attr:0000000000000000 .L0 
C:\Users\stapi\AppData\Local\Temp\cchP1ZsS.s:636    .text.hostapd_config_get_radius_attr:0000000000000002 .L0 
C:\Users\stapi\AppData\Local\Temp\cchP1ZsS.s:639    .text.hostapd_config_get_radius_attr:0000000000000004 .L0 
C:\Users\stapi\AppData\Local\Temp\cchP1ZsS.s:640    .text.hostapd_config_get_radius_attr:0000000000000004 .L0 
C:\Users\stapi\AppData\Local\Temp\cchP1ZsS.s:643    .text.hostapd_config_get_radius_attr:000000000000000c .L0 
C:\Users\stapi\AppData\Local\Temp\cchP1ZsS.s:644    .text.hostapd_config_get_radius_attr:000000000000000c .L0 
C:\Users\stapi\AppData\Local\Temp\cchP1ZsS.s:647    .text.hostapd_config_get_radius_attr:0000000000000010 .L0 
C:\Users\stapi\AppData\Local\Temp\cchP1ZsS.s:654    .text.hostapd_parse_radius_attr:0000000000000000 hostapd_parse_radius_attr
C:\Users\stapi\AppData\Local\Temp\cchP1ZsS.s:657    .text.hostapd_parse_radius_attr:0000000000000000 .L0 
C:\Users\stapi\AppData\Local\Temp\cchP1ZsS.s:659    .text.hostapd_parse_radius_attr:0000000000000000 .L0 
C:\Users\stapi\AppData\Local\Temp\cchP1ZsS.s:660    .text.hostapd_parse_radius_attr:0000000000000008 .L0 
C:\Users\stapi\AppData\Local\Temp\cchP1ZsS.s:661    .text.hostapd_parse_radius_attr:0000000000000008 .L0 
C:\Users\stapi\AppData\Local\Temp\cchP1ZsS.s:662    .text.hostapd_parse_radius_attr:0000000000000008 .L0 
C:\Users\stapi\AppData\Local\Temp\cchP1ZsS.s:663    .text.hostapd_parse_radius_attr:0000000000000008 .L0 
C:\Users\stapi\AppData\Local\Temp\cchP1ZsS.s:664    .text.hostapd_parse_radius_attr:0000000000000008 .L0 
C:\Users\stapi\AppData\Local\Temp\cchP1ZsS.s:666    .text.hostapd_parse_radius_attr:0000000000000008 .L0 
C:\Users\stapi\AppData\Local\Temp\cchP1ZsS.s:667    .text.hostapd_parse_radius_attr:0000000000000008 .L0 
C:\Users\stapi\AppData\Local\Temp\cchP1ZsS.s:668    .text.hostapd_parse_radius_attr:0000000000000008 .L0 
C:\Users\stapi\AppData\Local\Temp\cchP1ZsS.s:669    .text.hostapd_parse_radius_attr:0000000000000008 .L0 
C:\Users\stapi\AppData\Local\Temp\cchP1ZsS.s:670    .text.hostapd_parse_radius_attr:0000000000000008 .L0 
C:\Users\stapi\AppData\Local\Temp\cchP1ZsS.s:671    .text.hostapd_parse_radius_attr:0000000000000008 .L0 
C:\Users\stapi\AppData\Local\Temp\cchP1ZsS.s:673    .text.hostapd_parse_radius_attr:000000000000000a .L0 
C:\Users\stapi\AppData\Local\Temp\cchP1ZsS.s:680    .text.hostapd_parse_radius_attr:0000000000000016 .L0 
C:\Users\stapi\AppData\Local\Temp\cchP1ZsS.s:681    .text.hostapd_parse_radius_attr:0000000000000016 .L0 
C:\Users\stapi\AppData\Local\Temp\cchP1ZsS.s:683    .text.hostapd_parse_radius_attr:0000000000000018 .L0 
C:\Users\stapi\AppData\Local\Temp\cchP1ZsS.s:684    .text.hostapd_parse_radius_attr:0000000000000018 .L0 
C:\Users\stapi\AppData\Local\Temp\cchP1ZsS.s:688    .text.hostapd_parse_radius_attr:0000000000000022 .L0 
C:\Users\stapi\AppData\Local\Temp\cchP1ZsS.s:690    .text.hostapd_parse_radius_attr:0000000000000026 .L0 
C:\Users\stapi\AppData\Local\Temp\cchP1ZsS.s:691    .text.hostapd_parse_radius_attr:0000000000000026 .L0 
C:\Users\stapi\AppData\Local\Temp\cchP1ZsS.s:696    .text.hostapd_parse_radius_attr:0000000000000034 .L0 
C:\Users\stapi\AppData\Local\Temp\cchP1ZsS.s:697    .text.hostapd_parse_radius_attr:0000000000000034 .L0 
C:\Users\stapi\AppData\Local\Temp\cchP1ZsS.s:699    .text.hostapd_parse_radius_attr:0000000000000036 .L0 
C:\Users\stapi\AppData\Local\Temp\cchP1ZsS.s:700    .text.hostapd_parse_radius_attr:0000000000000036 .L0 
C:\Users\stapi\AppData\Local\Temp\cchP1ZsS.s:705    .text.hostapd_parse_radius_attr:0000000000000040 .L0 
C:\Users\stapi\AppData\Local\Temp\cchP1ZsS.s:707    .text.hostapd_parse_radius_attr:0000000000000042 .L0 
C:\Users\stapi\AppData\Local\Temp\cchP1ZsS.s:708    .text.hostapd_parse_radius_attr:0000000000000042 .L0 
C:\Users\stapi\AppData\Local\Temp\cchP1ZsS.s:712    .text.hostapd_parse_radius_attr:0000000000000044 .L0 
C:\Users\stapi\AppData\Local\Temp\cchP1ZsS.s:713    .text.hostapd_parse_radius_attr:0000000000000044 .L0 
C:\Users\stapi\AppData\Local\Temp\cchP1ZsS.s:717    .text.hostapd_parse_radius_attr:000000000000004e .L0 
C:\Users\stapi\AppData\Local\Temp\cchP1ZsS.s:718    .text.hostapd_parse_radius_attr:000000000000004e .L0 
C:\Users\stapi\AppData\Local\Temp\cchP1ZsS.s:727    .text.hostapd_parse_radius_attr:0000000000000052 .L0 
C:\Users\stapi\AppData\Local\Temp\cchP1ZsS.s:728    .text.hostapd_parse_radius_attr:0000000000000052 .L0 
C:\Users\stapi\AppData\Local\Temp\cchP1ZsS.s:729    .text.hostapd_parse_radius_attr:0000000000000052 .L0 
C:\Users\stapi\AppData\Local\Temp\cchP1ZsS.s:733    .text.hostapd_parse_radius_attr:000000000000005c .L0 
C:\Users\stapi\AppData\Local\Temp\cchP1ZsS.s:734    .text.hostapd_parse_radius_attr:000000000000005c .L0 
C:\Users\stapi\AppData\Local\Temp\cchP1ZsS.s:740    .text.hostapd_parse_radius_attr:0000000000000060 .L0 
C:\Users\stapi\AppData\Local\Temp\cchP1ZsS.s:742    .text.hostapd_parse_radius_attr:000000000000006a .L0 
C:\Users\stapi\AppData\Local\Temp\cchP1ZsS.s:743    .text.hostapd_parse_radius_attr:000000000000006a .L0 
C:\Users\stapi\AppData\Local\Temp\cchP1ZsS.s:744    .text.hostapd_parse_radius_attr:000000000000006a .L0 
C:\Users\stapi\AppData\Local\Temp\cchP1ZsS.s:745    .text.hostapd_parse_radius_attr:000000000000006a .L0 
C:\Users\stapi\AppData\Local\Temp\cchP1ZsS.s:746    .text.hostapd_parse_radius_attr:000000000000006a .L0 
C:\Users\stapi\AppData\Local\Temp\cchP1ZsS.s:747    .text.hostapd_parse_radius_attr:000000000000006a .L0 
C:\Users\stapi\AppData\Local\Temp\cchP1ZsS.s:750    .text.hostapd_parse_radius_attr:000000000000006a .L0 
C:\Users\stapi\AppData\Local\Temp\cchP1ZsS.s:752    .text.hostapd_parse_radius_attr:000000000000006a .L0 
C:\Users\stapi\AppData\Local\Temp\cchP1ZsS.s:753    .text.hostapd_parse_radius_attr:000000000000006a .L0 
C:\Users\stapi\AppData\Local\Temp\cchP1ZsS.s:754    .text.hostapd_parse_radius_attr:000000000000006a .L0 
C:\Users\stapi\AppData\Local\Temp\cchP1ZsS.s:756    .text.hostapd_parse_radius_attr:000000000000006e .L0 
C:\Users\stapi\AppData\Local\Temp\cchP1ZsS.s:758    .text.hostapd_parse_radius_attr:0000000000000070 .L0 
C:\Users\stapi\AppData\Local\Temp\cchP1ZsS.s:763    .text.hostapd_parse_radius_attr:000000000000007c .L0 
C:\Users\stapi\AppData\Local\Temp\cchP1ZsS.s:764    .text.hostapd_parse_radius_attr:000000000000007c .L0 
C:\Users\stapi\AppData\Local\Temp\cchP1ZsS.s:765    .text.hostapd_parse_radius_attr:000000000000007c .L0 
C:\Users\stapi\AppData\Local\Temp\cchP1ZsS.s:767    .text.hostapd_parse_radius_attr:0000000000000080 .L0 
C:\Users\stapi\AppData\Local\Temp\cchP1ZsS.s:770    .text.hostapd_parse_radius_attr:0000000000000084 .L0 
C:\Users\stapi\AppData\Local\Temp\cchP1ZsS.s:776    .text.hostapd_parse_radius_attr:0000000000000098 .L0 
C:\Users\stapi\AppData\Local\Temp\cchP1ZsS.s:777    .text.hostapd_parse_radius_attr:0000000000000098 .L0 
C:\Users\stapi\AppData\Local\Temp\cchP1ZsS.s:781    .text.hostapd_parse_radius_attr:00000000000000a2 .L0 
C:\Users\stapi\AppData\Local\Temp\cchP1ZsS.s:783    .text.hostapd_parse_radius_attr:00000000000000a4 .L0 
C:\Users\stapi\AppData\Local\Temp\cchP1ZsS.s:784    .text.hostapd_parse_radius_attr:00000000000000a4 .L0 
C:\Users\stapi\AppData\Local\Temp\cchP1ZsS.s:786    .text.hostapd_parse_radius_attr:00000000000000a6 .L0 
C:\Users\stapi\AppData\Local\Temp\cchP1ZsS.s:788    .text.hostapd_parse_radius_attr:00000000000000a8 .L0 
C:\Users\stapi\AppData\Local\Temp\cchP1ZsS.s:789    .text.hostapd_parse_radius_attr:00000000000000a8 .L0 
C:\Users\stapi\AppData\Local\Temp\cchP1ZsS.s:797    .text.hostapd_parse_radius_attr:00000000000000b4 .L0 
C:\Users\stapi\AppData\Local\Temp\cchP1ZsS.s:798    .text.hostapd_parse_radius_attr:00000000000000b4 .L0 
C:\Users\stapi\AppData\Local\Temp\cchP1ZsS.s:805    .text.hostapd_parse_radius_attr:00000000000000c0 .L0 
C:\Users\stapi\AppData\Local\Temp\cchP1ZsS.s:806    .text.hostapd_parse_radius_attr:00000000000000c0 .L0 
C:\Users\stapi\AppData\Local\Temp\cchP1ZsS.s:807    .text.hostapd_parse_radius_attr:00000000000000c0 .L0 
C:\Users\stapi\AppData\Local\Temp\cchP1ZsS.s:809    .text.hostapd_parse_radius_attr:00000000000000c4 .L0 
C:\Users\stapi\AppData\Local\Temp\cchP1ZsS.s:811    .text.hostapd_parse_radius_attr:00000000000000c8 .L0 
C:\Users\stapi\AppData\Local\Temp\cchP1ZsS.s:812    .text.hostapd_parse_radius_attr:00000000000000c8 .L0 
C:\Users\stapi\AppData\Local\Temp\cchP1ZsS.s:814    .text.hostapd_parse_radius_attr:00000000000000cc .L0 
C:\Users\stapi\AppData\Local\Temp\cchP1ZsS.s:816    .text.hostapd_parse_radius_attr:00000000000000d0 .L0 
C:\Users\stapi\AppData\Local\Temp\cchP1ZsS.s:817    .text.hostapd_parse_radius_attr:00000000000000d0 .L0 
C:\Users\stapi\AppData\Local\Temp\cchP1ZsS.s:819    .text.hostapd_parse_radius_attr:00000000000000d4 .L0 
C:\Users\stapi\AppData\Local\Temp\cchP1ZsS.s:821    .text.hostapd_parse_radius_attr:00000000000000d8 .L0 
C:\Users\stapi\AppData\Local\Temp\cchP1ZsS.s:822    .text.hostapd_parse_radius_attr:00000000000000d8 .L0 
C:\Users\stapi\AppData\Local\Temp\cchP1ZsS.s:824    .text.hostapd_parse_radius_attr:00000000000000dc .L0 
C:\Users\stapi\AppData\Local\Temp\cchP1ZsS.s:832    .text.hostapd_parse_radius_attr:00000000000000de .L0 
C:\Users\stapi\AppData\Local\Temp\cchP1ZsS.s:833    .text.hostapd_parse_radius_attr:00000000000000de .L0 
C:\Users\stapi\AppData\Local\Temp\cchP1ZsS.s:841    .text.hostapd_parse_radius_attr:00000000000000f4 .L0 
C:\Users\stapi\AppData\Local\Temp\cchP1ZsS.s:845    .text.hostapd_parse_radius_attr:00000000000000f6 .L0 
C:\Users\stapi\AppData\Local\Temp\cchP1ZsS.s:846    .text.hostapd_parse_radius_attr:00000000000000f6 .L0 
C:\Users\stapi\AppData\Local\Temp\cchP1ZsS.s:847    .text.hostapd_parse_radius_attr:00000000000000f6 .L0 
C:\Users\stapi\AppData\Local\Temp\cchP1ZsS.s:853    .text.hostapd_parse_radius_attr:00000000000000fc .L0 
C:\Users\stapi\AppData\Local\Temp\cchP1ZsS.s:854    .text.hostapd_parse_radius_attr:00000000000000fc .L0 
C:\Users\stapi\AppData\Local\Temp\cchP1ZsS.s:858    .text.hostapd_parse_radius_attr:0000000000000106 .L0 
C:\Users\stapi\AppData\Local\Temp\cchP1ZsS.s:859    .text.hostapd_parse_radius_attr:0000000000000106 .L0 
C:\Users\stapi\AppData\Local\Temp\cchP1ZsS.s:861    .text.hostapd_parse_radius_attr:000000000000010a .L0 
C:\Users\stapi\AppData\Local\Temp\cchP1ZsS.s:863    .text.hostapd_parse_radius_attr:000000000000010c .L0 
C:\Users\stapi\AppData\Local\Temp\cchP1ZsS.s:864    .text.hostapd_parse_radius_attr:000000000000010c .L0 
C:\Users\stapi\AppData\Local\Temp\cchP1ZsS.s:867    .text.hostapd_parse_radius_attr:0000000000000110 .L0 
C:\Users\stapi\AppData\Local\Temp\cchP1ZsS.s:868    .text.hostapd_parse_radius_attr:0000000000000110 .L0 
C:\Users\stapi\AppData\Local\Temp\cchP1ZsS.s:872    .text.hostapd_parse_radius_attr:000000000000011a .L0 
C:\Users\stapi\AppData\Local\Temp\cchP1ZsS.s:874    .text.hostapd_parse_radius_attr:000000000000011c .L0 
C:\Users\stapi\AppData\Local\Temp\cchP1ZsS.s:875    .text.hostapd_parse_radius_attr:000000000000011c .L0 
C:\Users\stapi\AppData\Local\Temp\cchP1ZsS.s:877    .text.hostapd_parse_radius_attr:000000000000011e .L0 
C:\Users\stapi\AppData\Local\Temp\cchP1ZsS.s:878    .text.hostapd_parse_radius_attr:000000000000011e .L0 
C:\Users\stapi\AppData\Local\Temp\cchP1ZsS.s:883    .text.hostapd_parse_radius_attr:000000000000012a .L0 
C:\Users\stapi\AppData\Local\Temp\cchP1ZsS.s:888    .text.hostapd_parse_radius_attr:0000000000000136 .L0 
C:\Users\stapi\AppData\Local\Temp\cchP1ZsS.s:890    .text.hostapd_parse_radius_attr:000000000000013a .L0 
C:\Users\stapi\AppData\Local\Temp\cchP1ZsS.s:894    .text.hostapd_parse_radius_attr:0000000000000144 .L0 
C:\Users\stapi\AppData\Local\Temp\cchP1ZsS.s:895    .text.hostapd_parse_radius_attr:0000000000000146 .L0 
C:\Users\stapi\AppData\Local\Temp\cchP1ZsS.s:902    .text.hostapd_config_free_radius_attr:0000000000000000 hostapd_config_free_radius_attr
C:\Users\stapi\AppData\Local\Temp\cchP1ZsS.s:905    .text.hostapd_config_free_radius_attr:0000000000000000 .L0 
C:\Users\stapi\AppData\Local\Temp\cchP1ZsS.s:907    .text.hostapd_config_free_radius_attr:0000000000000000 .L0 
C:\Users\stapi\AppData\Local\Temp\cchP1ZsS.s:908    .text.hostapd_config_free_radius_attr:0000000000000008 .L0 
C:\Users\stapi\AppData\Local\Temp\cchP1ZsS.s:909    .text.hostapd_config_free_radius_attr:0000000000000008 .L0 
C:\Users\stapi\AppData\Local\Temp\cchP1ZsS.s:910    .text.hostapd_config_free_radius_attr:0000000000000008 .L0 
C:\Users\stapi\AppData\Local\Temp\cchP1ZsS.s:911    .text.hostapd_config_free_radius_attr:0000000000000008 .L0 
C:\Users\stapi\AppData\Local\Temp\cchP1ZsS.s:914    .text.hostapd_config_free_radius_attr:000000000000000a .L0 
C:\Users\stapi\AppData\Local\Temp\cchP1ZsS.s:917    .text.hostapd_config_free_radius_attr:000000000000000a .L0 
C:\Users\stapi\AppData\Local\Temp\cchP1ZsS.s:918    .text.hostapd_config_free_radius_attr:000000000000000a .L0 
C:\Users\stapi\AppData\Local\Temp\cchP1ZsS.s:920    .text.hostapd_config_free_radius_attr:000000000000000c .L0 
C:\Users\stapi\AppData\Local\Temp\cchP1ZsS.s:921    .text.hostapd_config_free_radius_attr:0000000000000014 .L0 
C:\Users\stapi\AppData\Local\Temp\cchP1ZsS.s:922    .text.hostapd_config_free_radius_attr:0000000000000014 .L0 
C:\Users\stapi\AppData\Local\Temp\cchP1ZsS.s:923    .text.hostapd_config_free_radius_attr:0000000000000014 .L0 
C:\Users\stapi\AppData\Local\Temp\cchP1ZsS.s:924    .text.hostapd_config_free_radius_attr:0000000000000014 .L0 
C:\Users\stapi\AppData\Local\Temp\cchP1ZsS.s:925    .text.hostapd_config_free_radius_attr:0000000000000014 .L0 
C:\Users\stapi\AppData\Local\Temp\cchP1ZsS.s:927    .text.hostapd_config_free_radius_attr:0000000000000014 .L0 
C:\Users\stapi\AppData\Local\Temp\cchP1ZsS.s:930    .text.hostapd_config_free_radius_attr:0000000000000014 .L0 
C:\Users\stapi\AppData\Local\Temp\cchP1ZsS.s:931    .text.hostapd_config_free_radius_attr:0000000000000014 .L0 
C:\Users\stapi\AppData\Local\Temp\cchP1ZsS.s:932    .text.hostapd_config_free_radius_attr:0000000000000014 .L0 
C:\Users\stapi\AppData\Local\Temp\cchP1ZsS.s:934    .text.hostapd_config_free_radius_attr:0000000000000016 .L0 
C:\Users\stapi\AppData\Local\Temp\cchP1ZsS.s:937    .text.hostapd_config_free_radius_attr:0000000000000018 .L0 
C:\Users\stapi\AppData\Local\Temp\cchP1ZsS.s:940    .text.hostapd_config_free_radius_attr:0000000000000020 .L0 
C:\Users\stapi\AppData\Local\Temp\cchP1ZsS.s:944    .text.hostapd_config_free_radius_attr:000000000000002a .L0 
C:\Users\stapi\AppData\Local\Temp\cchP1ZsS.s:947    .text.hostapd_config_free_radius_attr:000000000000002e .L0 
C:\Users\stapi\AppData\Local\Temp\cchP1ZsS.s:954    .text.hostapd_config_free_eap_user:0000000000000000 hostapd_config_free_eap_user
C:\Users\stapi\AppData\Local\Temp\cchP1ZsS.s:957    .text.hostapd_config_free_eap_user:0000000000000000 .L0 
C:\Users\stapi\AppData\Local\Temp\cchP1ZsS.s:959    .text.hostapd_config_free_eap_user:0000000000000000 .L0 
C:\Users\stapi\AppData\Local\Temp\cchP1ZsS.s:960    .text.hostapd_config_free_eap_user:0000000000000008 .L0 
C:\Users\stapi\AppData\Local\Temp\cchP1ZsS.s:961    .text.hostapd_config_free_eap_user:0000000000000008 .L0 
C:\Users\stapi\AppData\Local\Temp\cchP1ZsS.s:962    .text.hostapd_config_free_eap_user:0000000000000008 .L0 
C:\Users\stapi\AppData\Local\Temp\cchP1ZsS.s:964    .text.hostapd_config_free_eap_user:0000000000000008 .L0 
C:\Users\stapi\AppData\Local\Temp\cchP1ZsS.s:965    .text.hostapd_config_free_eap_user:0000000000000008 .L0 
C:\Users\stapi\AppData\Local\Temp\cchP1ZsS.s:967    .text.hostapd_config_free_eap_user:000000000000000a .L0 
C:\Users\stapi\AppData\Local\Temp\cchP1ZsS.s:972    .text.hostapd_config_free_eap_user:0000000000000014 .L0 
C:\Users\stapi\AppData\Local\Temp\cchP1ZsS.s:976    .text.hostapd_config_free_eap_user:000000000000001e .L0 
C:\Users\stapi\AppData\Local\Temp\cchP1ZsS.s:981    .text.hostapd_config_free_eap_user:000000000000002a .L0 
C:\Users\stapi\AppData\Local\Temp\cchP1ZsS.s:986    .text.hostapd_config_free_eap_user:0000000000000036 .L0 
C:\Users\stapi\AppData\Local\Temp\cchP1ZsS.s:990    .text.hostapd_config_free_eap_user:0000000000000040 .L0 
C:\Users\stapi\AppData\Local\Temp\cchP1ZsS.s:991    .text.hostapd_config_free_eap_user:0000000000000048 .L0 
C:\Users\stapi\AppData\Local\Temp\cchP1ZsS.s:992    .text.hostapd_config_free_eap_user:0000000000000048 .L0 
C:\Users\stapi\AppData\Local\Temp\cchP1ZsS.s:993    .text.hostapd_config_free_eap_user:0000000000000048 .L0 
C:\Users\stapi\AppData\Local\Temp\cchP1ZsS.s:994    .text.hostapd_config_free_eap_user:0000000000000048 .L0 
C:\Users\stapi\AppData\Local\Temp\cchP1ZsS.s:1001   .text.hostapd_config_free_eap_users:0000000000000000 hostapd_config_free_eap_users
C:\Users\stapi\AppData\Local\Temp\cchP1ZsS.s:1004   .text.hostapd_config_free_eap_users:0000000000000000 .L0 
C:\Users\stapi\AppData\Local\Temp\cchP1ZsS.s:1006   .text.hostapd_config_free_eap_users:0000000000000000 .L0 
C:\Users\stapi\AppData\Local\Temp\cchP1ZsS.s:1007   .text.hostapd_config_free_eap_users:0000000000000000 .L0 
C:\Users\stapi\AppData\Local\Temp\cchP1ZsS.s:1008   .text.hostapd_config_free_eap_users:0000000000000000 .L0 
C:\Users\stapi\AppData\Local\Temp\cchP1ZsS.s:1009   .text.hostapd_config_free_eap_users:0000000000000000 .L0 
C:\Users\stapi\AppData\Local\Temp\cchP1ZsS.s:1013   .text.hostapd_config_free_eap_users:0000000000000004 .L0 
C:\Users\stapi\AppData\Local\Temp\cchP1ZsS.s:1014   .text.hostapd_config_free_eap_users:000000000000000c .L0 
C:\Users\stapi\AppData\Local\Temp\cchP1ZsS.s:1015   .text.hostapd_config_free_eap_users:000000000000000c .L0 
C:\Users\stapi\AppData\Local\Temp\cchP1ZsS.s:1016   .text.hostapd_config_free_eap_users:000000000000000c .L0 
C:\Users\stapi\AppData\Local\Temp\cchP1ZsS.s:1020   .text.hostapd_config_free_eap_users:000000000000000c .L0 
C:\Users\stapi\AppData\Local\Temp\cchP1ZsS.s:1021   .text.hostapd_config_free_eap_users:000000000000000c .L0 
C:\Users\stapi\AppData\Local\Temp\cchP1ZsS.s:1022   .text.hostapd_config_free_eap_users:000000000000000c .L0 
C:\Users\stapi\AppData\Local\Temp\cchP1ZsS.s:1025   .text.hostapd_config_free_eap_users:000000000000000e .L0 
C:\Users\stapi\AppData\Local\Temp\cchP1ZsS.s:1028   .text.hostapd_config_free_eap_users:0000000000000016 .L0 
C:\Users\stapi\AppData\Local\Temp\cchP1ZsS.s:1030   .text.hostapd_config_free_eap_users:0000000000000018 .L0 
C:\Users\stapi\AppData\Local\Temp\cchP1ZsS.s:1032   .text.hostapd_config_free_eap_users:000000000000001a .L0 
C:\Users\stapi\AppData\Local\Temp\cchP1ZsS.s:1033   .text.hostapd_config_free_eap_users:0000000000000022 .L0 
C:\Users\stapi\AppData\Local\Temp\cchP1ZsS.s:1034   .text.hostapd_config_free_eap_users:0000000000000022 .L0 
C:\Users\stapi\AppData\Local\Temp\cchP1ZsS.s:1035   .text.hostapd_config_free_eap_users:0000000000000022 .L0 
C:\Users\stapi\AppData\Local\Temp\cchP1ZsS.s:1036   .text.hostapd_config_free_eap_users:0000000000000022 .L0 
C:\Users\stapi\AppData\Local\Temp\cchP1ZsS.s:1043   .text.hostapd_config_clear_wpa_psk:0000000000000000 hostapd_config_clear_wpa_psk
C:\Users\stapi\AppData\Local\Temp\cchP1ZsS.s:1046   .text.hostapd_config_clear_wpa_psk:0000000000000000 .L0 
C:\Users\stapi\AppData\Local\Temp\cchP1ZsS.s:1048   .text.hostapd_config_clear_wpa_psk:0000000000000000 .L0 
C:\Users\stapi\AppData\Local\Temp\cchP1ZsS.s:1049   .text.hostapd_config_clear_wpa_psk:0000000000000008 .L0 
C:\Users\stapi\AppData\Local\Temp\cchP1ZsS.s:1050   .text.hostapd_config_clear_wpa_psk:0000000000000008 .L0 
C:\Users\stapi\AppData\Local\Temp\cchP1ZsS.s:1051   .text.hostapd_config_clear_wpa_psk:0000000000000008 .L0 
C:\Users\stapi\AppData\Local\Temp\cchP1ZsS.s:1052   .text.hostapd_config_clear_wpa_psk:0000000000000008 .L0 
C:\Users\stapi\AppData\Local\Temp\cchP1ZsS.s:1054   .text.hostapd_config_clear_wpa_psk:0000000000000008 .L0 
C:\Users\stapi\AppData\Local\Temp\cchP1ZsS.s:1055   .text.hostapd_config_clear_wpa_psk:0000000000000008 .L0 
C:\Users\stapi\AppData\Local\Temp\cchP1ZsS.s:1056   .text.hostapd_config_clear_wpa_psk:0000000000000008 .L0 
C:\Users\stapi\AppData\Local\Temp\cchP1ZsS.s:1058   .text.hostapd_config_clear_wpa_psk:000000000000000a .L0 
C:\Users\stapi\AppData\Local\Temp\cchP1ZsS.s:1062   .text.hostapd_config_clear_wpa_psk:000000000000000c .L0 
C:\Users\stapi\AppData\Local\Temp\cchP1ZsS.s:1063   .text.hostapd_config_clear_wpa_psk:000000000000000c .L0 
C:\Users\stapi\AppData\Local\Temp\cchP1ZsS.s:1065   .text.hostapd_config_clear_wpa_psk:000000000000000e .L0 
C:\Users\stapi\AppData\Local\Temp\cchP1ZsS.s:1066   .text.hostapd_config_clear_wpa_psk:000000000000000e .L0 
C:\Users\stapi\AppData\Local\Temp\cchP1ZsS.s:1068   .text.hostapd_config_clear_wpa_psk:0000000000000012 .L0 
C:\Users\stapi\AppData\Local\Temp\cchP1ZsS.s:1069   .text.hostapd_config_clear_wpa_psk:000000000000001a .L0 
C:\Users\stapi\AppData\Local\Temp\cchP1ZsS.s:1070   .text.hostapd_config_clear_wpa_psk:000000000000001a .L0 
C:\Users\stapi\AppData\Local\Temp\cchP1ZsS.s:1071   .text.hostapd_config_clear_wpa_psk:000000000000001a .L0 
C:\Users\stapi\AppData\Local\Temp\cchP1ZsS.s:1072   .text.hostapd_config_clear_wpa_psk:000000000000001a .L0 
C:\Users\stapi\AppData\Local\Temp\cchP1ZsS.s:1073   .text.hostapd_config_clear_wpa_psk:000000000000001a .L0 
C:\Users\stapi\AppData\Local\Temp\cchP1ZsS.s:1075   .text.hostapd_config_clear_wpa_psk:000000000000001a .L0 
C:\Users\stapi\AppData\Local\Temp\cchP1ZsS.s:1078   .text.hostapd_config_clear_wpa_psk:000000000000001a .L0 
C:\Users\stapi\AppData\Local\Temp\cchP1ZsS.s:1079   .text.hostapd_config_clear_wpa_psk:000000000000001a .L0 
C:\Users\stapi\AppData\Local\Temp\cchP1ZsS.s:1080   .text.hostapd_config_clear_wpa_psk:000000000000001a .L0 
C:\Users\stapi\AppData\Local\Temp\cchP1ZsS.s:1083   .text.hostapd_config_clear_wpa_psk:000000000000001c .L0 
C:\Users\stapi\AppData\Local\Temp\cchP1ZsS.s:1087   .text.hostapd_config_clear_wpa_psk:0000000000000028 .L0 
C:\Users\stapi\AppData\Local\Temp\cchP1ZsS.s:1089   .text.hostapd_config_clear_wpa_psk:000000000000002c .L0 
C:\Users\stapi\AppData\Local\Temp\cchP1ZsS.s:1096   .text.hostapd_config_free_bss:0000000000000000 hostapd_config_free_bss
C:\Users\stapi\AppData\Local\Temp\cchP1ZsS.s:1099   .text.hostapd_config_free_bss:0000000000000000 .L0 
C:\Users\stapi\AppData\Local\Temp\cchP1ZsS.s:1101   .text.hostapd_config_free_bss:0000000000000000 .L0 
C:\Users\stapi\AppData\Local\Temp\cchP1ZsS.s:1102   .text.hostapd_config_free_bss:0000000000000000 .L0 
C:\Users\stapi\AppData\Local\Temp\cchP1ZsS.s:1103   .text.hostapd_config_free_bss:0000000000000000 .L0 
C:\Users\stapi\AppData\Local\Temp\cchP1ZsS.s:1105   .text.hostapd_config_free_bss:0000000000000004 .L0 
C:\Users\stapi\AppData\Local\Temp\cchP1ZsS.s:1106   .text.hostapd_config_free_bss:000000000000000c .L0 
C:\Users\stapi\AppData\Local\Temp\cchP1ZsS.s:1107   .text.hostapd_config_free_bss:000000000000000c .L0 
C:\Users\stapi\AppData\Local\Temp\cchP1ZsS.s:1108   .text.hostapd_config_free_bss:000000000000000c .L0 
C:\Users\stapi\AppData\Local\Temp\cchP1ZsS.s:1109   .text.hostapd_config_free_bss:000000000000000c .L0 
C:\Users\stapi\AppData\Local\Temp\cchP1ZsS.s:1110   .text.hostapd_config_free_bss:000000000000000c .L0 
C:\Users\stapi\AppData\Local\Temp\cchP1ZsS.s:1116   .text.hostapd_config_free_bss:000000000000000e .L0 
C:\Users\stapi\AppData\Local\Temp\cchP1ZsS.s:1119   .text.hostapd_config_free_bss:0000000000000012 .L0 
C:\Users\stapi\AppData\Local\Temp\cchP1ZsS.s:1121   .text.hostapd_config_free_bss:0000000000000016 .L0 
C:\Users\stapi\AppData\Local\Temp\cchP1ZsS.s:1124   .text.hostapd_config_free_bss:000000000000001e .L0 
C:\Users\stapi\AppData\Local\Temp\cchP1ZsS.s:1128   .text.hostapd_config_free_bss:0000000000000028 .L0 
C:\Users\stapi\AppData\Local\Temp\cchP1ZsS.s:1132   .text.hostapd_config_free_bss:0000000000000032 .L0 
C:\Users\stapi\AppData\Local\Temp\cchP1ZsS.s:1134   .text.hostapd_config_free_bss:0000000000000034 .L0 
C:\Users\stapi\AppData\Local\Temp\cchP1ZsS.s:1136   .text.hostapd_config_free_bss:0000000000000038 .L0 
C:\Users\stapi\AppData\Local\Temp\cchP1ZsS.s:1139   .text.hostapd_config_free_bss:0000000000000040 .L0 
C:\Users\stapi\AppData\Local\Temp\cchP1ZsS.s:1143   .text.hostapd_config_free_bss:000000000000004a .L0 
C:\Users\stapi\AppData\Local\Temp\cchP1ZsS.s:1147   .text.hostapd_config_free_bss:0000000000000054 .L0 
C:\Users\stapi\AppData\Local\Temp\cchP1ZsS.s:1151   .text.hostapd_config_free_bss:000000000000005e .L0 
C:\Users\stapi\AppData\Local\Temp\cchP1ZsS.s:1155   .text.hostapd_config_free_bss:0000000000000068 .L0 
C:\Users\stapi\AppData\Local\Temp\cchP1ZsS.s:1159   .text.hostapd_config_free_bss:0000000000000072 .L0 
C:\Users\stapi\AppData\Local\Temp\cchP1ZsS.s:1163   .text.hostapd_config_free_bss:000000000000007c .L0 
C:\Users\stapi\AppData\Local\Temp\cchP1ZsS.s:1167   .text.hostapd_config_free_bss:0000000000000086 .L0 
C:\Users\stapi\AppData\Local\Temp\cchP1ZsS.s:1168   .text.hostapd_config_free_bss:0000000000000086 .L0 
C:\Users\stapi\AppData\Local\Temp\cchP1ZsS.s:1170   .text.hostapd_config_free_bss:0000000000000088 .L0 
C:\Users\stapi\AppData\Local\Temp\cchP1ZsS.s:1172   .text.hostapd_config_free_bss:000000000000008a .L0 
C:\Users\stapi\AppData\Local\Temp\cchP1ZsS.s:1177   .text.hostapd_config_free_bss:0000000000000096 .L0 
C:\Users\stapi\AppData\Local\Temp\cchP1ZsS.s:1178   .text.hostapd_config_free_bss:0000000000000096 .L0 
C:\Users\stapi\AppData\Local\Temp\cchP1ZsS.s:1180   .text.hostapd_config_free_bss:0000000000000098 .L0 
C:\Users\stapi\AppData\Local\Temp\cchP1ZsS.s:1185   .text.hostapd_config_free_bss:00000000000000a4 .L0 
C:\Users\stapi\AppData\Local\Temp\cchP1ZsS.s:1186   .text.hostapd_config_free_bss:00000000000000a4 .L0 
C:\Users\stapi\AppData\Local\Temp\cchP1ZsS.s:1188   .text.hostapd_config_free_bss:00000000000000a6 .L0 
C:\Users\stapi\AppData\Local\Temp\cchP1ZsS.s:1193   .text.hostapd_config_free_bss:00000000000000b0 .L0 
C:\Users\stapi\AppData\Local\Temp\cchP1ZsS.s:1195   .text.hostapd_config_free_bss:00000000000000b4 .L0 
C:\Users\stapi\AppData\Local\Temp\cchP1ZsS.s:1197   .text.hostapd_config_free_bss:00000000000000b8 .L0 
C:\Users\stapi\AppData\Local\Temp\cchP1ZsS.s:1200   .text.hostapd_config_free_bss:00000000000000c0 .L0 
C:\Users\stapi\AppData\Local\Temp\cchP1ZsS.s:1204   .text.hostapd_config_free_bss:00000000000000cc .L0 
C:\Users\stapi\AppData\Local\Temp\cchP1ZsS.s:1208   .text.hostapd_config_free_bss:00000000000000d8 .L0 
C:\Users\stapi\AppData\Local\Temp\cchP1ZsS.s:1212   .text.hostapd_config_free_bss:00000000000000e2 .L0 
C:\Users\stapi\AppData\Local\Temp\cchP1ZsS.s:1216   .text.hostapd_config_free_bss:00000000000000ec .L0 
C:\Users\stapi\AppData\Local\Temp\cchP1ZsS.s:1220   .text.hostapd_config_free_bss:00000000000000f6 .L0 
C:\Users\stapi\AppData\Local\Temp\cchP1ZsS.s:1224   .text.hostapd_config_free_bss:0000000000000100 .L0 
C:\Users\stapi\AppData\Local\Temp\cchP1ZsS.s:1228   .text.hostapd_config_free_bss:000000000000010a .L0 
C:\Users\stapi\AppData\Local\Temp\cchP1ZsS.s:1232   .text.hostapd_config_free_bss:0000000000000114 .L0 
C:\Users\stapi\AppData\Local\Temp\cchP1ZsS.s:1236   .text.hostapd_config_free_bss:000000000000011e .L0 
C:\Users\stapi\AppData\Local\Temp\cchP1ZsS.s:1240   .text.hostapd_config_free_bss:0000000000000128 .L0 
C:\Users\stapi\AppData\Local\Temp\cchP1ZsS.s:1244   .text.hostapd_config_free_bss:0000000000000132 .L0 
C:\Users\stapi\AppData\Local\Temp\cchP1ZsS.s:1248   .text.hostapd_config_free_bss:000000000000013c .L0 
C:\Users\stapi\AppData\Local\Temp\cchP1ZsS.s:1252   .text.hostapd_config_free_bss:0000000000000146 .L0 
C:\Users\stapi\AppData\Local\Temp\cchP1ZsS.s:1256   .text.hostapd_config_free_bss:0000000000000150 .L0 
C:\Users\stapi\AppData\Local\Temp\cchP1ZsS.s:1260   .text.hostapd_config_free_bss:000000000000015a .L0 
C:\Users\stapi\AppData\Local\Temp\cchP1ZsS.s:1264   .text.hostapd_config_free_bss:0000000000000164 .L0 
C:\Users\stapi\AppData\Local\Temp\cchP1ZsS.s:1266   .text.hostapd_config_free_bss:0000000000000166 .L0 
C:\Users\stapi\AppData\Local\Temp\cchP1ZsS.s:1268   .text.hostapd_config_free_bss:000000000000016a .L0 
C:\Users\stapi\AppData\Local\Temp\cchP1ZsS.s:1271   .text.hostapd_config_free_bss:0000000000000172 .L0 
C:\Users\stapi\AppData\Local\Temp\cchP1ZsS.s:1275   .text.hostapd_config_free_bss:000000000000017c .L0 
C:\Users\stapi\AppData\Local\Temp\cchP1ZsS.s:1279   .text.hostapd_config_free_bss:0000000000000186 .L0 
C:\Users\stapi\AppData\Local\Temp\cchP1ZsS.s:1283   .text.hostapd_config_free_bss:0000000000000190 .L0 
C:\Users\stapi\AppData\Local\Temp\cchP1ZsS.s:1287   .text.hostapd_config_free_bss:000000000000019a .L0 
C:\Users\stapi\AppData\Local\Temp\cchP1ZsS.s:1291   .text.hostapd_config_free_bss:00000000000001a4 .L0 
C:\Users\stapi\AppData\Local\Temp\cchP1ZsS.s:1295   .text.hostapd_config_free_bss:00000000000001ae .L0 
C:\Users\stapi\AppData\Local\Temp\cchP1ZsS.s:1301   .text.hostapd_config_free_bss:00000000000001ba .L0 
C:\Users\stapi\AppData\Local\Temp\cchP1ZsS.s:1302   .text.hostapd_config_free_bss:00000000000001ba .L0 
C:\Users\stapi\AppData\Local\Temp\cchP1ZsS.s:1303   .text.hostapd_config_free_bss:00000000000001ba .L0 
C:\Users\stapi\AppData\Local\Temp\cchP1ZsS.s:1304   .text.hostapd_config_free_bss:00000000000001ba .L0 
C:\Users\stapi\AppData\Local\Temp\cchP1ZsS.s:1307   .text.hostapd_config_free_bss:00000000000001bc .L0 
C:\Users\stapi\AppData\Local\Temp\cchP1ZsS.s:1309   .text.hostapd_config_free_bss:00000000000001bc .L0 
C:\Users\stapi\AppData\Local\Temp\cchP1ZsS.s:1310   .text.hostapd_config_free_bss:00000000000001bc .L0 
C:\Users\stapi\AppData\Local\Temp\cchP1ZsS.s:1314   .text.hostapd_config_free_bss:00000000000001be .L0 
C:\Users\stapi\AppData\Local\Temp\cchP1ZsS.s:1315   .text.hostapd_config_free_bss:00000000000001be .L0 
C:\Users\stapi\AppData\Local\Temp\cchP1ZsS.s:1321   .text.hostapd_config_free_bss:00000000000001c4 .L0 
C:\Users\stapi\AppData\Local\Temp\cchP1ZsS.s:1328   .text.hostapd_config_free_bss:00000000000001c8 .L0 
C:\Users\stapi\AppData\Local\Temp\cchP1ZsS.s:1329   .text.hostapd_config_free_bss:00000000000001c8 .L0 
C:\Users\stapi\AppData\Local\Temp\cchP1ZsS.s:1333   .text.hostapd_config_free_bss:00000000000001cc .L0 
C:\Users\stapi\AppData\Local\Temp\cchP1ZsS.s:1336   .text.hostapd_config_free_bss:00000000000001d4 .L0 
C:\Users\stapi\AppData\Local\Temp\cchP1ZsS.s:1340   .text.hostapd_config_free_bss:00000000000001de .L0 
C:\Users\stapi\AppData\Local\Temp\cchP1ZsS.s:1344   .text.hostapd_config_free_bss:00000000000001e8 .L0 
C:\Users\stapi\AppData\Local\Temp\cchP1ZsS.s:1348   .text.hostapd_config_free_bss:00000000000001f2 .L0 
C:\Users\stapi\AppData\Local\Temp\cchP1ZsS.s:1352   .text.hostapd_config_free_bss:00000000000001fe .L0 
C:\Users\stapi\AppData\Local\Temp\cchP1ZsS.s:1356   .text.hostapd_config_free_bss:0000000000000208 .L0 
C:\Users\stapi\AppData\Local\Temp\cchP1ZsS.s:1360   .text.hostapd_config_free_bss:0000000000000212 .L0 
C:\Users\stapi\AppData\Local\Temp\cchP1ZsS.s:1367   .text.hostapd_config_free_bss:000000000000021e .L0 
C:\Users\stapi\AppData\Local\Temp\cchP1ZsS.s:1370   .text.hostapd_config_free_bss:000000000000021e .L0 
C:\Users\stapi\AppData\Local\Temp\cchP1ZsS.s:1371   .text.hostapd_config_free_bss:000000000000021e .L0 
C:\Users\stapi\AppData\Local\Temp\cchP1ZsS.s:1372   .text.hostapd_config_free_bss:000000000000021e .L0 
C:\Users\stapi\AppData\Local\Temp\cchP1ZsS.s:1377   .text.hostapd_config_free_bss:0000000000000222 .L0 
C:\Users\stapi\AppData\Local\Temp\cchP1ZsS.s:1380   .text.hostapd_config_free_bss:0000000000000226 .L0 
C:\Users\stapi\AppData\Local\Temp\cchP1ZsS.s:1386   .text.hostapd_config_free_bss:0000000000000228 .L0 
C:\Users\stapi\AppData\Local\Temp\cchP1ZsS.s:1391   .text.hostapd_config_free_bss:0000000000000236 .L0 
C:\Users\stapi\AppData\Local\Temp\cchP1ZsS.s:1393   .text.hostapd_config_free_bss:0000000000000238 .L0 
C:\Users\stapi\AppData\Local\Temp\cchP1ZsS.s:1395   .text.hostapd_config_free_bss:000000000000023c .L0 
C:\Users\stapi\AppData\Local\Temp\cchP1ZsS.s:1398   .text.hostapd_config_free_bss:0000000000000244 .L0 
C:\Users\stapi\AppData\Local\Temp\cchP1ZsS.s:1402   .text.hostapd_config_free_bss:000000000000024e .L0 
C:\Users\stapi\AppData\Local\Temp\cchP1ZsS.s:1406   .text.hostapd_config_free_bss:0000000000000258 .L0 
C:\Users\stapi\AppData\Local\Temp\cchP1ZsS.s:1410   .text.hostapd_config_free_bss:0000000000000264 .L0 
C:\Users\stapi\AppData\Local\Temp\cchP1ZsS.s:1414   .text.hostapd_config_free_bss:000000000000026e .L0 
C:\Users\stapi\AppData\Local\Temp\cchP1ZsS.s:1420   .text.hostapd_config_free_bss:0000000000000278 .L0 
C:\Users\stapi\AppData\Local\Temp\cchP1ZsS.s:1423   .text.hostapd_config_free_bss:0000000000000278 .L0 
C:\Users\stapi\AppData\Local\Temp\cchP1ZsS.s:1426   .text.hostapd_config_free_bss:0000000000000278 .L0 
C:\Users\stapi\AppData\Local\Temp\cchP1ZsS.s:1427   .text.hostapd_config_free_bss:0000000000000278 .L0 
C:\Users\stapi\AppData\Local\Temp\cchP1ZsS.s:1428   .text.hostapd_config_free_bss:0000000000000278 .L0 
C:\Users\stapi\AppData\Local\Temp\cchP1ZsS.s:1429   .text.hostapd_config_free_bss:0000000000000278 .L0 
C:\Users\stapi\AppData\Local\Temp\cchP1ZsS.s:1432   .text.hostapd_config_free_bss:000000000000027a .L0 
C:\Users\stapi\AppData\Local\Temp\cchP1ZsS.s:1433   .text.hostapd_config_free_bss:000000000000027a .L0 
C:\Users\stapi\AppData\Local\Temp\cchP1ZsS.s:1436   .text.hostapd_config_free_bss:000000000000027e .L0 
C:\Users\stapi\AppData\Local\Temp\cchP1ZsS.s:1437   .text.hostapd_config_free_bss:000000000000027e .L0 
C:\Users\stapi\AppData\Local\Temp\cchP1ZsS.s:1442   .text.hostapd_config_free_bss:0000000000000280 .L0 
C:\Users\stapi\AppData\Local\Temp\cchP1ZsS.s:1448   .text.hostapd_config_free_bss:000000000000028a .L0 
C:\Users\stapi\AppData\Local\Temp\cchP1ZsS.s:1449   .text.hostapd_config_free_bss:0000000000000292 .L0 
C:\Users\stapi\AppData\Local\Temp\cchP1ZsS.s:1450   .text.hostapd_config_free_bss:0000000000000292 .L0 
C:\Users\stapi\AppData\Local\Temp\cchP1ZsS.s:1451   .text.hostapd_config_free_bss:0000000000000292 .L0 
C:\Users\stapi\AppData\Local\Temp\cchP1ZsS.s:1452   .text.hostapd_config_free_bss:0000000000000292 .L0 
C:\Users\stapi\AppData\Local\Temp\cchP1ZsS.s:1453   .text.hostapd_config_free_bss:0000000000000292 .L0 
C:\Users\stapi\AppData\Local\Temp\cchP1ZsS.s:1454   .text.hostapd_config_free_bss:0000000000000292 .L0 
C:\Users\stapi\AppData\Local\Temp\cchP1ZsS.s:1457   .text.hostapd_config_free_bss:0000000000000292 .L0 
C:\Users\stapi\AppData\Local\Temp\cchP1ZsS.s:1463   .text.hostapd_config_free_bss:0000000000000292 .L0 
C:\Users\stapi\AppData\Local\Temp\cchP1ZsS.s:1464   .text.hostapd_config_free_bss:0000000000000292 .L0 
C:\Users\stapi\AppData\Local\Temp\cchP1ZsS.s:1465   .text.hostapd_config_free_bss:0000000000000292 .L0 
C:\Users\stapi\AppData\Local\Temp\cchP1ZsS.s:1468   .text.hostapd_config_free_bss:0000000000000294 .L0 
C:\Users\stapi\AppData\Local\Temp\cchP1ZsS.s:1471   .text.hostapd_config_free_bss:000000000000029c .L0 
C:\Users\stapi\AppData\Local\Temp\cchP1ZsS.s:1482   .text.hostapd_config_free_bss:00000000000002a0 .L0 
C:\Users\stapi\AppData\Local\Temp\cchP1ZsS.s:1483   .text.hostapd_config_free_bss:00000000000002a0 .L0 
C:\Users\stapi\AppData\Local\Temp\cchP1ZsS.s:1484   .text.hostapd_config_free_bss:00000000000002a0 .L0 
C:\Users\stapi\AppData\Local\Temp\cchP1ZsS.s:1486   .text.hostapd_config_free_bss:00000000000002a2 .L0 
C:\Users\stapi\AppData\Local\Temp\cchP1ZsS.s:1490   .text.hostapd_config_free_bss:00000000000002a4 .L0 
C:\Users\stapi\AppData\Local\Temp\cchP1ZsS.s:1494   .text.hostapd_config_free_bss:00000000000002a6 .L0 
C:\Users\stapi\AppData\Local\Temp\cchP1ZsS.s:1496   .text.hostapd_config_free_bss:00000000000002a8 .L0 
C:\Users\stapi\AppData\Local\Temp\cchP1ZsS.s:1497   .text.hostapd_config_free_bss:00000000000002a8 .L0 
C:\Users\stapi\AppData\Local\Temp\cchP1ZsS.s:1499   .text.hostapd_config_free_bss:00000000000002aa .L0 
C:\Users\stapi\AppData\Local\Temp\cchP1ZsS.s:1500   .text.hostapd_config_free_bss:00000000000002aa .L0 
C:\Users\stapi\AppData\Local\Temp\cchP1ZsS.s:1502   .text.hostapd_config_free_bss:00000000000002ae .L0 
C:\Users\stapi\AppData\Local\Temp\cchP1ZsS.s:1503   .text.hostapd_config_free_bss:00000000000002ae .L0 
C:\Users\stapi\AppData\Local\Temp\cchP1ZsS.s:1508   .text.hostapd_config_free_bss:00000000000002b2 .L0 
C:\Users\stapi\AppData\Local\Temp\cchP1ZsS.s:1511   .text.hostapd_config_free_bss:00000000000002ba .L0 
C:\Users\stapi\AppData\Local\Temp\cchP1ZsS.s:1522   .text.hostapd_config_free_bss:00000000000002c6 .L0 
C:\Users\stapi\AppData\Local\Temp\cchP1ZsS.s:1523   .text.hostapd_config_free_bss:00000000000002c6 .L0 
C:\Users\stapi\AppData\Local\Temp\cchP1ZsS.s:1524   .text.hostapd_config_free_bss:00000000000002c6 .L0 
C:\Users\stapi\AppData\Local\Temp\cchP1ZsS.s:1526   .text.hostapd_config_free_bss:00000000000002c8 .L0 
C:\Users\stapi\AppData\Local\Temp\cchP1ZsS.s:1529   .text.hostapd_config_free_bss:00000000000002cc .L0 
C:\Users\stapi\AppData\Local\Temp\cchP1ZsS.s:1532   .text.hostapd_config_free_bss:00000000000002d4 .L0 
C:\Users\stapi\AppData\Local\Temp\cchP1ZsS.s:1536   .text.hostapd_config_free_bss:00000000000002de .L0 
C:\Users\stapi\AppData\Local\Temp\cchP1ZsS.s:1540   .text.hostapd_config_free_bss:00000000000002e8 .L0 
C:\Users\stapi\AppData\Local\Temp\cchP1ZsS.s:1544   .text.hostapd_config_free_bss:00000000000002f2 .L0 
C:\Users\stapi\AppData\Local\Temp\cchP1ZsS.s:1549   .text.hostapd_config_free_bss:00000000000002f6 .L0 
C:\Users\stapi\AppData\Local\Temp\cchP1ZsS.s:1550   .text.hostapd_config_free_bss:00000000000002f6 .L0 
C:\Users\stapi\AppData\Local\Temp\cchP1ZsS.s:1551   .text.hostapd_config_free_bss:00000000000002f6 .L0 
C:\Users\stapi\AppData\Local\Temp\cchP1ZsS.s:1552   .text.hostapd_config_free_bss:00000000000002f6 .L0 
C:\Users\stapi\AppData\Local\Temp\cchP1ZsS.s:1553   .text.hostapd_config_free_bss:00000000000002f6 .L0 
C:\Users\stapi\AppData\Local\Temp\cchP1ZsS.s:1559   .text.hostapd_config_free_bss:00000000000002f8 .L0 
C:\Users\stapi\AppData\Local\Temp\cchP1ZsS.s:1566   .text.hostapd_config_free:0000000000000000 hostapd_config_free
C:\Users\stapi\AppData\Local\Temp\cchP1ZsS.s:1569   .text.hostapd_config_free:0000000000000000 .L0 
C:\Users\stapi\AppData\Local\Temp\cchP1ZsS.s:1571   .text.hostapd_config_free:0000000000000000 .L0 
C:\Users\stapi\AppData\Local\Temp\cchP1ZsS.s:1572   .text.hostapd_config_free:0000000000000000 .L0 
C:\Users\stapi\AppData\Local\Temp\cchP1ZsS.s:1573   .text.hostapd_config_free:0000000000000000 .L0 
C:\Users\stapi\AppData\Local\Temp\cchP1ZsS.s:1574   .text.hostapd_config_free:0000000000000000 .L0 
C:\Users\stapi\AppData\Local\Temp\cchP1ZsS.s:1576   .text.hostapd_config_free:0000000000000002 .L0 
C:\Users\stapi\AppData\Local\Temp\cchP1ZsS.s:1577   .text.hostapd_config_free:000000000000000a .L0 
C:\Users\stapi\AppData\Local\Temp\cchP1ZsS.s:1578   .text.hostapd_config_free:000000000000000a .L0 
C:\Users\stapi\AppData\Local\Temp\cchP1ZsS.s:1579   .text.hostapd_config_free:000000000000000a .L0 
C:\Users\stapi\AppData\Local\Temp\cchP1ZsS.s:1580   .text.hostapd_config_free:000000000000000a .L0 
C:\Users\stapi\AppData\Local\Temp\cchP1ZsS.s:1583   .text.hostapd_config_free:000000000000000c .L0 
C:\Users\stapi\AppData\Local\Temp\cchP1ZsS.s:1587   .text.hostapd_config_free:000000000000000e .L0 
C:\Users\stapi\AppData\Local\Temp\cchP1ZsS.s:1588   .text.hostapd_config_free:000000000000000e .L0 
C:\Users\stapi\AppData\Local\Temp\cchP1ZsS.s:1590   .text.hostapd_config_free:0000000000000010 .L0 
C:\Users\stapi\AppData\Local\Temp\cchP1ZsS.s:1592   .text.hostapd_config_free:0000000000000012 .L0 
C:\Users\stapi\AppData\Local\Temp\cchP1ZsS.s:1594   .text.hostapd_config_free:0000000000000016 .L0 
C:\Users\stapi\AppData\Local\Temp\cchP1ZsS.s:1597   .text.hostapd_config_free:000000000000001e .L0 
C:\Users\stapi\AppData\Local\Temp\cchP1ZsS.s:1599   .text.hostapd_config_free:0000000000000020 .L0 
C:\Users\stapi\AppData\Local\Temp\cchP1ZsS.s:1602   .text.hostapd_config_free:0000000000000024 .L0 
C:\Users\stapi\AppData\Local\Temp\cchP1ZsS.s:1605   .text.hostapd_config_free:000000000000002c .L0 
C:\Users\stapi\AppData\Local\Temp\cchP1ZsS.s:1609   .text.hostapd_config_free:0000000000000036 .L0 
C:\Users\stapi\AppData\Local\Temp\cchP1ZsS.s:1613   .text.hostapd_config_free:0000000000000040 .L0 
C:\Users\stapi\AppData\Local\Temp\cchP1ZsS.s:1617   .text.hostapd_config_free:000000000000004a .L0 
C:\Users\stapi\AppData\Local\Temp\cchP1ZsS.s:1621   .text.hostapd_config_free:0000000000000054 .L0 
C:\Users\stapi\AppData\Local\Temp\cchP1ZsS.s:1625   .text.hostapd_config_free:000000000000005e .L0 
C:\Users\stapi\AppData\Local\Temp\cchP1ZsS.s:1629   .text.hostapd_config_free:0000000000000068 .L0 
C:\Users\stapi\AppData\Local\Temp\cchP1ZsS.s:1633   .text.hostapd_config_free:0000000000000072 .L0 
C:\Users\stapi\AppData\Local\Temp\cchP1ZsS.s:1634   .text.hostapd_config_free:000000000000007a .L0 
C:\Users\stapi\AppData\Local\Temp\cchP1ZsS.s:1635   .text.hostapd_config_free:000000000000007a .L0 
C:\Users\stapi\AppData\Local\Temp\cchP1ZsS.s:1636   .text.hostapd_config_free:000000000000007a .L0 
C:\Users\stapi\AppData\Local\Temp\cchP1ZsS.s:1637   .text.hostapd_config_free:000000000000007a .L0 
C:\Users\stapi\AppData\Local\Temp\cchP1ZsS.s:1638   .text.hostapd_config_free:000000000000007a .L0 
C:\Users\stapi\AppData\Local\Temp\cchP1ZsS.s:1641   .text.hostapd_config_free:000000000000007a .L0 
C:\Users\stapi\AppData\Local\Temp\cchP1ZsS.s:1643   .text.hostapd_config_free:000000000000007a .L0 
C:\Users\stapi\AppData\Local\Temp\cchP1ZsS.s:1646   .text.hostapd_config_free:0000000000000080 .L0 
C:\Users\stapi\AppData\Local\Temp\cchP1ZsS.s:1649   .text.hostapd_config_free:0000000000000082 .L0 
C:\Users\stapi\AppData\Local\Temp\cchP1ZsS.s:1652   .text.hostapd_config_free:000000000000008a .L0 
C:\Users\stapi\AppData\Local\Temp\cchP1ZsS.s:1655   .text.hostapd_config_free:000000000000008c .L0 
C:\Users\stapi\AppData\Local\Temp\cchP1ZsS.s:1656   .text.hostapd_config_free:000000000000008c .L0 
C:\Users\stapi\AppData\Local\Temp\cchP1ZsS.s:1657   .text.hostapd_config_free:000000000000008c .L0 
C:\Users\stapi\AppData\Local\Temp\cchP1ZsS.s:1658   .text.hostapd_config_free:000000000000008c .L0 
C:\Users\stapi\AppData\Local\Temp\cchP1ZsS.s:1660   .text.hostapd_config_free:000000000000008e .L0 
C:\Users\stapi\AppData\Local\Temp\cchP1ZsS.s:1667   .text.hostapd_maclist_found:0000000000000000 hostapd_maclist_found
C:\Users\stapi\AppData\Local\Temp\cchP1ZsS.s:1670   .text.hostapd_maclist_found:0000000000000000 .L0 
C:\Users\stapi\AppData\Local\Temp\cchP1ZsS.s:1672   .text.hostapd_maclist_found:0000000000000000 .L0 
C:\Users\stapi\AppData\Local\Temp\cchP1ZsS.s:1673   .text.hostapd_maclist_found:0000000000000008 .L0 
C:\Users\stapi\AppData\Local\Temp\cchP1ZsS.s:1674   .text.hostapd_maclist_found:0000000000000008 .L0 
C:\Users\stapi\AppData\Local\Temp\cchP1ZsS.s:1675   .text.hostapd_maclist_found:0000000000000008 .L0 
C:\Users\stapi\AppData\Local\Temp\cchP1ZsS.s:1676   .text.hostapd_maclist_found:0000000000000008 .L0 
C:\Users\stapi\AppData\Local\Temp\cchP1ZsS.s:1677   .text.hostapd_maclist_found:0000000000000008 .L0 
C:\Users\stapi\AppData\Local\Temp\cchP1ZsS.s:1678   .text.hostapd_maclist_found:0000000000000008 .L0 
C:\Users\stapi\AppData\Local\Temp\cchP1ZsS.s:1679   .text.hostapd_maclist_found:0000000000000008 .L0 
C:\Users\stapi\AppData\Local\Temp\cchP1ZsS.s:1680   .text.hostapd_maclist_found:0000000000000008 .L0 
C:\Users\stapi\AppData\Local\Temp\cchP1ZsS.s:1681   .text.hostapd_maclist_found:0000000000000008 .L0 
C:\Users\stapi\AppData\Local\Temp\cchP1ZsS.s:1682   .text.hostapd_maclist_found:0000000000000008 .L0 
C:\Users\stapi\AppData\Local\Temp\cchP1ZsS.s:1684   .text.hostapd_maclist_found:0000000000000008 .L0 
C:\Users\stapi\AppData\Local\Temp\cchP1ZsS.s:1686   .text.hostapd_maclist_found:0000000000000008 .L0 
C:\Users\stapi\AppData\Local\Temp\cchP1ZsS.s:1687   .text.hostapd_maclist_found:0000000000000008 .L0 
C:\Users\stapi\AppData\Local\Temp\cchP1ZsS.s:1688   .text.hostapd_maclist_found:0000000000000008 .L0 
C:\Users\stapi\AppData\Local\Temp\cchP1ZsS.s:1692   .text.hostapd_maclist_found:000000000000000e .L0 
C:\Users\stapi\AppData\Local\Temp\cchP1ZsS.s:1695   .text.hostapd_maclist_found:0000000000000012 .L0 
C:\Users\stapi\AppData\Local\Temp\cchP1ZsS.s:1696   .text.hostapd_maclist_found:0000000000000012 .L0 
C:\Users\stapi\AppData\Local\Temp\cchP1ZsS.s:1698   .text.hostapd_maclist_found:0000000000000014 .L0 
C:\Users\stapi\AppData\Local\Temp\cchP1ZsS.s:1702   .text.hostapd_maclist_found:0000000000000018 .L0 
C:\Users\stapi\AppData\Local\Temp\cchP1ZsS.s:1704   .text.hostapd_maclist_found:000000000000001c .L0 
C:\Users\stapi\AppData\Local\Temp\cchP1ZsS.s:1708   .text.hostapd_maclist_found:0000000000000020 .L0 
C:\Users\stapi\AppData\Local\Temp\cchP1ZsS.s:1709   .text.hostapd_maclist_found:0000000000000020 .L0 
C:\Users\stapi\AppData\Local\Temp\cchP1ZsS.s:1711   .text.hostapd_maclist_found:0000000000000024 .L0 
C:\Users\stapi\AppData\Local\Temp\cchP1ZsS.s:1714   .text.hostapd_maclist_found:0000000000000026 .L0 
C:\Users\stapi\AppData\Local\Temp\cchP1ZsS.s:1715   .text.hostapd_maclist_found:0000000000000026 .L0 
C:\Users\stapi\AppData\Local\Temp\cchP1ZsS.s:1718   .text.hostapd_maclist_found:000000000000002c .L0 
C:\Users\stapi\AppData\Local\Temp\cchP1ZsS.s:1724   .text.hostapd_maclist_found:000000000000003a .L0 
C:\Users\stapi\AppData\Local\Temp\cchP1ZsS.s:1725   .text.hostapd_maclist_found:000000000000003a .L0 
C:\Users\stapi\AppData\Local\Temp\cchP1ZsS.s:1727   .text.hostapd_maclist_found:000000000000003c .L0 
C:\Users\stapi\AppData\Local\Temp\cchP1ZsS.s:1728   .text.hostapd_maclist_found:000000000000003c .L0 
C:\Users\stapi\AppData\Local\Temp\cchP1ZsS.s:1731   .text.hostapd_maclist_found:000000000000003e .L0 
C:\Users\stapi\AppData\Local\Temp\cchP1ZsS.s:1733   .text.hostapd_maclist_found:0000000000000042 .L0 
C:\Users\stapi\AppData\Local\Temp\cchP1ZsS.s:1734   .text.hostapd_maclist_found:0000000000000042 .L0 
C:\Users\stapi\AppData\Local\Temp\cchP1ZsS.s:1740   .text.hostapd_maclist_found:0000000000000054 .L0 
C:\Users\stapi\AppData\Local\Temp\cchP1ZsS.s:1744   .text.hostapd_maclist_found:0000000000000056 .L0 
C:\Users\stapi\AppData\Local\Temp\cchP1ZsS.s:1745   .text.hostapd_maclist_found:000000000000005e .L0 
C:\Users\stapi\AppData\Local\Temp\cchP1ZsS.s:1746   .text.hostapd_maclist_found:000000000000005e .L0 
C:\Users\stapi\AppData\Local\Temp\cchP1ZsS.s:1747   .text.hostapd_maclist_found:000000000000005e .L0 
C:\Users\stapi\AppData\Local\Temp\cchP1ZsS.s:1748   .text.hostapd_maclist_found:000000000000005e .L0 
C:\Users\stapi\AppData\Local\Temp\cchP1ZsS.s:1749   .text.hostapd_maclist_found:000000000000005e .L0 
C:\Users\stapi\AppData\Local\Temp\cchP1ZsS.s:1750   .text.hostapd_maclist_found:000000000000005e .L0 
C:\Users\stapi\AppData\Local\Temp\cchP1ZsS.s:1751   .text.hostapd_maclist_found:000000000000005e .L0 
C:\Users\stapi\AppData\Local\Temp\cchP1ZsS.s:1752   .text.hostapd_maclist_found:000000000000005e .L0 
C:\Users\stapi\AppData\Local\Temp\cchP1ZsS.s:1753   .text.hostapd_maclist_found:000000000000005e .L0 
C:\Users\stapi\AppData\Local\Temp\cchP1ZsS.s:1754   .text.hostapd_maclist_found:000000000000005e .L0 
C:\Users\stapi\AppData\Local\Temp\cchP1ZsS.s:1755   .text.hostapd_maclist_found:000000000000005e .L0 
C:\Users\stapi\AppData\Local\Temp\cchP1ZsS.s:1758   .text.hostapd_maclist_found:000000000000005e .L0 
C:\Users\stapi\AppData\Local\Temp\cchP1ZsS.s:1760   .text.hostapd_maclist_found:000000000000005e .L0 
C:\Users\stapi\AppData\Local\Temp\cchP1ZsS.s:1761   .text.hostapd_maclist_found:000000000000005e .L0 
C:\Users\stapi\AppData\Local\Temp\cchP1ZsS.s:1763   .text.hostapd_maclist_found:0000000000000062 .L0 
C:\Users\stapi\AppData\Local\Temp\cchP1ZsS.s:1764   .text.hostapd_maclist_found:0000000000000062 .L0 
C:\Users\stapi\AppData\Local\Temp\cchP1ZsS.s:1769   .text.hostapd_maclist_found:0000000000000068 .L0 
C:\Users\stapi\AppData\Local\Temp\cchP1ZsS.s:1770   .text.hostapd_maclist_found:0000000000000068 .L0 
C:\Users\stapi\AppData\Local\Temp\cchP1ZsS.s:1773   .text.hostapd_maclist_found:000000000000006e .L0 
C:\Users\stapi\AppData\Local\Temp\cchP1ZsS.s:1780   .text.hostapd_rate_found:0000000000000000 hostapd_rate_found
C:\Users\stapi\AppData\Local\Temp\cchP1ZsS.s:1783   .text.hostapd_rate_found:0000000000000000 .L0 
C:\Users\stapi\AppData\Local\Temp\cchP1ZsS.s:1785   .text.hostapd_rate_found:0000000000000000 .L0 
C:\Users\stapi\AppData\Local\Temp\cchP1ZsS.s:1786   .text.hostapd_rate_found:0000000000000000 .L0 
C:\Users\stapi\AppData\Local\Temp\cchP1ZsS.s:1787   .text.hostapd_rate_found:0000000000000000 .L0 
C:\Users\stapi\AppData\Local\Temp\cchP1ZsS.s:1788   .text.hostapd_rate_found:0000000000000000 .L0 
C:\Users\stapi\AppData\Local\Temp\cchP1ZsS.s:1792   .text.hostapd_rate_found:0000000000000002 .L0 
C:\Users\stapi\AppData\Local\Temp\cchP1ZsS.s:1793   .text.hostapd_rate_found:0000000000000002 .L0 
C:\Users\stapi\AppData\Local\Temp\cchP1ZsS.s:1795   .text.hostapd_rate_found:0000000000000004 .L0 
C:\Users\stapi\AppData\Local\Temp\cchP1ZsS.s:1798   .text.hostapd_rate_found:0000000000000008 .L0 
C:\Users\stapi\AppData\Local\Temp\cchP1ZsS.s:1802   .text.hostapd_rate_found:000000000000000c .L0 
C:\Users\stapi\AppData\Local\Temp\cchP1ZsS.s:1803   .text.hostapd_rate_found:000000000000000c .L0 
C:\Users\stapi\AppData\Local\Temp\cchP1ZsS.s:1806   .text.hostapd_rate_found:0000000000000012 .L0 
C:\Users\stapi\AppData\Local\Temp\cchP1ZsS.s:1808   .text.hostapd_rate_found:0000000000000014 .L0 
C:\Users\stapi\AppData\Local\Temp\cchP1ZsS.s:1809   .text.hostapd_rate_found:0000000000000016 .L0 
C:\Users\stapi\AppData\Local\Temp\cchP1ZsS.s:1816   .text.hostapd_vlan_valid:0000000000000000 hostapd_vlan_valid
C:\Users\stapi\AppData\Local\Temp\cchP1ZsS.s:1819   .text.hostapd_vlan_valid:0000000000000000 .L0 
C:\Users\stapi\AppData\Local\Temp\cchP1ZsS.s:1821   .text.hostapd_vlan_valid:0000000000000000 .L0 
C:\Users\stapi\AppData\Local\Temp\cchP1ZsS.s:1822   .text.hostapd_vlan_valid:0000000000000000 .L0 
C:\Users\stapi\AppData\Local\Temp\cchP1ZsS.s:1823   .text.hostapd_vlan_valid:0000000000000000 .L0 
C:\Users\stapi\AppData\Local\Temp\cchP1ZsS.s:1826   .text.hostapd_vlan_valid:0000000000000002 .L0 
C:\Users\stapi\AppData\Local\Temp\cchP1ZsS.s:1827   .text.hostapd_vlan_valid:0000000000000002 .L0 
C:\Users\stapi\AppData\Local\Temp\cchP1ZsS.s:1828   .text.hostapd_vlan_valid:0000000000000002 .L0 
C:\Users\stapi\AppData\Local\Temp\cchP1ZsS.s:1831   .text.hostapd_vlan_valid:0000000000000004 .L0 
C:\Users\stapi\AppData\Local\Temp\cchP1ZsS.s:1833   .text.hostapd_vlan_valid:0000000000000006 .L0 
C:\Users\stapi\AppData\Local\Temp\cchP1ZsS.s:1835   .text.hostapd_vlan_valid:0000000000000008 .L0 
C:\Users\stapi\AppData\Local\Temp\cchP1ZsS.s:1838   .text.hostapd_vlan_valid:000000000000000c .L0 
C:\Users\stapi\AppData\Local\Temp\cchP1ZsS.s:1840   .text.hostapd_vlan_valid:000000000000000e .L0 
C:\Users\stapi\AppData\Local\Temp\cchP1ZsS.s:1845   .text.hostapd_vlan_valid:000000000000001a .L0 
C:\Users\stapi\AppData\Local\Temp\cchP1ZsS.s:1846   .text.hostapd_vlan_valid:000000000000001a .L0 
C:\Users\stapi\AppData\Local\Temp\cchP1ZsS.s:1849   .text.hostapd_vlan_valid:0000000000000022 .L0 
C:\Users\stapi\AppData\Local\Temp\cchP1ZsS.s:1850   .text.hostapd_vlan_valid:0000000000000022 .L0 
C:\Users\stapi\AppData\Local\Temp\cchP1ZsS.s:1851   .text.hostapd_vlan_valid:0000000000000022 .L0 
C:\Users\stapi\AppData\Local\Temp\cchP1ZsS.s:1854   .text.hostapd_vlan_valid:0000000000000028 .L0 
C:\Users\stapi\AppData\Local\Temp\cchP1ZsS.s:1855   .text.hostapd_vlan_valid:0000000000000028 .L0 
C:\Users\stapi\AppData\Local\Temp\cchP1ZsS.s:1857   .text.hostapd_vlan_valid:000000000000002a .L0 
C:\Users\stapi\AppData\Local\Temp\cchP1ZsS.s:1859   .text.hostapd_vlan_valid:000000000000002c .L0 
C:\Users\stapi\AppData\Local\Temp\cchP1ZsS.s:1862   .text.hostapd_vlan_valid:000000000000002e .L0 
C:\Users\stapi\AppData\Local\Temp\cchP1ZsS.s:1866   .text.hostapd_vlan_valid:0000000000000034 .L0 
C:\Users\stapi\AppData\Local\Temp\cchP1ZsS.s:1869   .text.hostapd_vlan_valid:0000000000000036 .L0 
C:\Users\stapi\AppData\Local\Temp\cchP1ZsS.s:1870   .text.hostapd_vlan_valid:0000000000000038 .L0 
C:\Users\stapi\AppData\Local\Temp\cchP1ZsS.s:1877   .text.hostapd_get_vlan_id_ifname:0000000000000000 hostapd_get_vlan_id_ifname
C:\Users\stapi\AppData\Local\Temp\cchP1ZsS.s:1880   .text.hostapd_get_vlan_id_ifname:0000000000000000 .L0 
C:\Users\stapi\AppData\Local\Temp\cchP1ZsS.s:1882   .text.hostapd_get_vlan_id_ifname:0000000000000000 .L0 
C:\Users\stapi\AppData\Local\Temp\cchP1ZsS.s:1883   .text.hostapd_get_vlan_id_ifname:0000000000000000 .L0 
C:\Users\stapi\AppData\Local\Temp\cchP1ZsS.s:1885   .text.hostapd_get_vlan_id_ifname:0000000000000000 .L0 
C:\Users\stapi\AppData\Local\Temp\cchP1ZsS.s:1886   .text.hostapd_get_vlan_id_ifname:0000000000000000 .L0 
C:\Users\stapi\AppData\Local\Temp\cchP1ZsS.s:1888   .text.hostapd_get_vlan_id_ifname:0000000000000002 .L0 
C:\Users\stapi\AppData\Local\Temp\cchP1ZsS.s:1891   .text.hostapd_get_vlan_id_ifname:0000000000000004 .L0 
C:\Users\stapi\AppData\Local\Temp\cchP1ZsS.s:1892   .text.hostapd_get_vlan_id_ifname:0000000000000004 .L0 
C:\Users\stapi\AppData\Local\Temp\cchP1ZsS.s:1895   .text.hostapd_get_vlan_id_ifname:000000000000000a .L0 
C:\Users\stapi\AppData\Local\Temp\cchP1ZsS.s:1896   .text.hostapd_get_vlan_id_ifname:000000000000000a .L0 
C:\Users\stapi\AppData\Local\Temp\cchP1ZsS.s:1902   .text.hostapd_get_vlan_id_ifname:0000000000000010 .L0 
C:\Users\stapi\AppData\Local\Temp\cchP1ZsS.s:1903   .text.hostapd_get_vlan_id_ifname:0000000000000010 .L0 
C:\Users\stapi\AppData\Local\Temp\cchP1ZsS.s:1906   .text.hostapd_get_vlan_id_ifname:0000000000000014 .L0 
C:\Users\stapi\AppData\Local\Temp\cchP1ZsS.s:1920   .text.hostapd_get_psk:0000000000000000 hostapd_get_psk
C:\Users\stapi\AppData\Local\Temp\cchP1ZsS.s:1923   .text.hostapd_get_psk:0000000000000000 .L0 
C:\Users\stapi\AppData\Local\Temp\cchP1ZsS.s:1925   .text.hostapd_get_psk:0000000000000000 .L0 
C:\Users\stapi\AppData\Local\Temp\cchP1ZsS.s:1926   .text.hostapd_get_psk:0000000000000008 .L0 
C:\Users\stapi\AppData\Local\Temp\cchP1ZsS.s:1927   .text.hostapd_get_psk:0000000000000008 .L0 
C:\Users\stapi\AppData\Local\Temp\cchP1ZsS.s:1928   .text.hostapd_get_psk:0000000000000008 .L0 
C:\Users\stapi\AppData\Local\Temp\cchP1ZsS.s:1929   .text.hostapd_get_psk:0000000000000008 .L0 
C:\Users\stapi\AppData\Local\Temp\cchP1ZsS.s:1930   .text.hostapd_get_psk:0000000000000008 .L0 
C:\Users\stapi\AppData\Local\Temp\cchP1ZsS.s:1931   .text.hostapd_get_psk:0000000000000008 .L0 
C:\Users\stapi\AppData\Local\Temp\cchP1ZsS.s:1932   .text.hostapd_get_psk:0000000000000008 .L0 
C:\Users\stapi\AppData\Local\Temp\cchP1ZsS.s:1933   .text.hostapd_get_psk:0000000000000008 .L0 
C:\Users\stapi\AppData\Local\Temp\cchP1ZsS.s:1934   .text.hostapd_get_psk:0000000000000008 .L0 
C:\Users\stapi\AppData\Local\Temp\cchP1ZsS.s:1936   .text.hostapd_get_psk:0000000000000008 .L0 
C:\Users\stapi\AppData\Local\Temp\cchP1ZsS.s:1937   .text.hostapd_get_psk:0000000000000008 .L0 
C:\Users\stapi\AppData\Local\Temp\cchP1ZsS.s:1938   .text.hostapd_get_psk:0000000000000008 .L0 
C:\Users\stapi\AppData\Local\Temp\cchP1ZsS.s:1939   .text.hostapd_get_psk:000000000000000a .L0 
C:\Users\stapi\AppData\Local\Temp\cchP1ZsS.s:1941   .text.hostapd_get_psk:000000000000000a .L0 
C:\Users\stapi\AppData\Local\Temp\cchP1ZsS.s:1947   .text.hostapd_get_psk:0000000000000014 .L0 
C:\Users\stapi\AppData\Local\Temp\cchP1ZsS.s:1950   .text.hostapd_get_psk:0000000000000018 .L0 
C:\Users\stapi\AppData\Local\Temp\cchP1ZsS.s:1951   .text.hostapd_get_psk:0000000000000018 .L0 
C:\Users\stapi\AppData\Local\Temp\cchP1ZsS.s:1953   .text.hostapd_get_psk:000000000000001a .L0 
C:\Users\stapi\AppData\Local\Temp\cchP1ZsS.s:1954   .text.hostapd_get_psk:000000000000001a .L0 
C:\Users\stapi\AppData\Local\Temp\cchP1ZsS.s:1957   .text.hostapd_get_psk:000000000000001e .L0 
C:\Users\stapi\AppData\Local\Temp\cchP1ZsS.s:1958   .text.hostapd_get_psk:000000000000001e .L0 
C:\Users\stapi\AppData\Local\Temp\cchP1ZsS.s:1968   .text.hostapd_get_psk:0000000000000036 .L0 
C:\Users\stapi\AppData\Local\Temp\cchP1ZsS.s:1970   .text.hostapd_get_psk:0000000000000038 .L0 
C:\Users\stapi\AppData\Local\Temp\cchP1ZsS.s:1981   .text.hostapd_get_psk:000000000000004e .L0 
C:\Users\stapi\AppData\Local\Temp\cchP1ZsS.s:1989   .text.hostapd_get_psk:000000000000005c .L0 
C:\Users\stapi\AppData\Local\Temp\cchP1ZsS.s:1995   .text.hostapd_get_psk:000000000000006a .L0 
C:\Users\stapi\AppData\Local\Temp\cchP1ZsS.s:1998   .text.hostapd_get_psk:000000000000006c .L0 
C:\Users\stapi\AppData\Local\Temp\cchP1ZsS.s:2013   .text.hostapd_get_psk:0000000000000096 .L0 
C:\Users\stapi\AppData\Local\Temp\cchP1ZsS.s:2014   .text.hostapd_get_psk:0000000000000096 .L0 
C:\Users\stapi\AppData\Local\Temp\cchP1ZsS.s:2015   .text.hostapd_get_psk:0000000000000096 .L0 
C:\Users\stapi\AppData\Local\Temp\cchP1ZsS.s:2019   .text.hostapd_get_psk:000000000000009a .L0 
C:\Users\stapi\AppData\Local\Temp\cchP1ZsS.s:2020   .text.hostapd_get_psk:000000000000009a .L0 
C:\Users\stapi\AppData\Local\Temp\cchP1ZsS.s:2022   .text.hostapd_get_psk:000000000000009e .L0 
C:\Users\stapi\AppData\Local\Temp\cchP1ZsS.s:2024   .text.hostapd_get_psk:00000000000000a2 .L0 
C:\Users\stapi\AppData\Local\Temp\cchP1ZsS.s:2026   .text.hostapd_get_psk:00000000000000a6 .L0 
C:\Users\stapi\AppData\Local\Temp\cchP1ZsS.s:2030   .text.hostapd_get_psk:00000000000000ac .L0 
C:\Users\stapi\AppData\Local\Temp\cchP1ZsS.s:2031   .text.hostapd_get_psk:00000000000000ac .L0 
C:\Users\stapi\AppData\Local\Temp\cchP1ZsS.s:2034   .text.hostapd_get_psk:00000000000000b0 .L0 
C:\Users\stapi\AppData\Local\Temp\cchP1ZsS.s:2035   .text.hostapd_get_psk:00000000000000b0 .L0 
C:\Users\stapi\AppData\Local\Temp\cchP1ZsS.s:2039   .text.hostapd_get_psk:00000000000000b2 .L0 
C:\Users\stapi\AppData\Local\Temp\cchP1ZsS.s:2041   .text.hostapd_get_psk:00000000000000b6 .L0 
C:\Users\stapi\AppData\Local\Temp\cchP1ZsS.s:2042   .text.hostapd_get_psk:00000000000000b6 .L0 
C:\Users\stapi\AppData\Local\Temp\cchP1ZsS.s:2044   .text.hostapd_get_psk:00000000000000be .L0 
C:\Users\stapi\AppData\Local\Temp\cchP1ZsS.s:2045   .text.hostapd_get_psk:00000000000000be .L0 
C:\Users\stapi\AppData\Local\Temp\cchP1ZsS.s:2046   .text.hostapd_get_psk:00000000000000be .L0 
C:\Users\stapi\AppData\Local\Temp\cchP1ZsS.s:2047   .text.hostapd_get_psk:00000000000000be .L0 
C:\Users\stapi\AppData\Local\Temp\cchP1ZsS.s:2048   .text.hostapd_get_psk:00000000000000be .L0 
C:\Users\stapi\AppData\Local\Temp\cchP1ZsS.s:2049   .text.hostapd_get_psk:00000000000000be .L0 
C:\Users\stapi\AppData\Local\Temp\cchP1ZsS.s:2050   .text.hostapd_get_psk:00000000000000be .L0 
C:\Users\stapi\AppData\Local\Temp\cchP1ZsS.s:2051   .text.hostapd_get_psk:00000000000000be .L0 
C:\Users\stapi\AppData\Local\Temp\cchP1ZsS.s:2052   .text.hostapd_get_psk:00000000000000be .L0 
C:\Users\stapi\AppData\Local\Temp\cchP1ZsS.s:2055   .text.hostapd_get_psk:00000000000000be .L0 
C:\Users\stapi\AppData\Local\Temp\cchP1ZsS.s:2057   .text.hostapd_get_psk:00000000000000be .L0 
C:\Users\stapi\AppData\Local\Temp\cchP1ZsS.s:2067   .text.hostapd_get_psk:00000000000000d4 .L0 
C:\Users\stapi\AppData\Local\Temp\cchP1ZsS.s:2069   .text.hostapd_get_psk:00000000000000d6 .L0 
C:\Users\stapi\AppData\Local\Temp\cchP1ZsS.s:2074   .text.hostapd_get_psk:00000000000000de .L0 
C:\Users\stapi\AppData\Local\Temp\cchP1ZsS.s:2077   .text.hostapd_get_psk:00000000000000e6 .L0 
C:\Users\stapi\AppData\Local\Temp\cchP1ZsS.s:2080   .text.hostapd_get_psk:00000000000000e8 .L0 
C:\Users\stapi\AppData\Local\Temp\cchP1ZsS.s:2081   .text.hostapd_get_psk:00000000000000e8 .L0 
C:\Users\stapi\AppData\Local\Temp\cchP1ZsS.s:2083   .text.hostapd_get_psk:00000000000000ec .L0 
C:\Users\stapi\AppData\Local\Temp\cchP1ZsS.s:2087   .text.hostapd_get_psk:00000000000000ee .L0 
C:\Users\stapi\AppData\Local\Temp\cchP1ZsS.s:2088   .text.hostapd_get_psk:00000000000000ee .L0 
C:\Users\stapi\AppData\Local\Temp\cchP1ZsS.s:2093   .text.hostapd_get_psk:00000000000000f4 .L0 
C:\Users\stapi\AppData\Local\Temp\cchP1ZsS.s:2094   .text.hostapd_get_psk:00000000000000f4 .L0 
C:\Users\stapi\AppData\Local\Temp\cchP1ZsS.s:2096   .text.hostapd_get_psk:00000000000000f8 .L0 
C:\Users\stapi\AppData\Local\Temp\cchP1ZsS.s:2100   .text.hostapd_get_psk:00000000000000fe .L0 
C:\Users\stapi\AppData\Local\Temp\cchP1ZsS.s:2102   .text.hostapd_get_psk:0000000000000100 .L0 
C:\Users\stapi\AppData\Local\Temp\cchP1ZsS.s:2106   .text.hostapd_get_psk:000000000000010a .L0 
C:\Users\stapi\AppData\Local\Temp\cchP1ZsS.s:2168   .text.hostapd_config_check:0000000000000000 hostapd_config_check
C:\Users\stapi\AppData\Local\Temp\cchP1ZsS.s:2171   .text.hostapd_config_check:0000000000000000 .L0 
C:\Users\stapi\AppData\Local\Temp\cchP1ZsS.s:2173   .text.hostapd_config_check:0000000000000000 .L0 
C:\Users\stapi\AppData\Local\Temp\cchP1ZsS.s:2174   .text.hostapd_config_check:0000000000000008 .L0 
C:\Users\stapi\AppData\Local\Temp\cchP1ZsS.s:2175   .text.hostapd_config_check:0000000000000008 .L0 
C:\Users\stapi\AppData\Local\Temp\cchP1ZsS.s:2176   .text.hostapd_config_check:0000000000000008 .L0 
C:\Users\stapi\AppData\Local\Temp\cchP1ZsS.s:2177   .text.hostapd_config_check:0000000000000008 .L0 
C:\Users\stapi\AppData\Local\Temp\cchP1ZsS.s:2178   .text.hostapd_config_check:0000000000000008 .L0 
C:\Users\stapi\AppData\Local\Temp\cchP1ZsS.s:2179   .text.hostapd_config_check:0000000000000008 .L0 
C:\Users\stapi\AppData\Local\Temp\cchP1ZsS.s:2180   .text.hostapd_config_check:0000000000000008 .L0 
C:\Users\stapi\AppData\Local\Temp\cchP1ZsS.s:2181   .text.hostapd_config_check:0000000000000008 .L0 
C:\Users\stapi\AppData\Local\Temp\cchP1ZsS.s:2182   .text.hostapd_config_check:0000000000000008 .L0 
C:\Users\stapi\AppData\Local\Temp\cchP1ZsS.s:2183   .text.hostapd_config_check:0000000000000008 .L0 
C:\Users\stapi\AppData\Local\Temp\cchP1ZsS.s:2184   .text.hostapd_config_check:0000000000000008 .L0 
C:\Users\stapi\AppData\Local\Temp\cchP1ZsS.s:2185   .text.hostapd_config_check:0000000000000008 .L0 
C:\Users\stapi\AppData\Local\Temp\cchP1ZsS.s:2186   .text.hostapd_config_check:0000000000000008 .L0 
C:\Users\stapi\AppData\Local\Temp\cchP1ZsS.s:2187   .text.hostapd_config_check:0000000000000008 .L0 
C:\Users\stapi\AppData\Local\Temp\cchP1ZsS.s:2189   .text.hostapd_config_check:0000000000000008 .L0 
C:\Users\stapi\AppData\Local\Temp\cchP1ZsS.s:2190   .text.hostapd_config_check:0000000000000008 .L0 
C:\Users\stapi\AppData\Local\Temp\cchP1ZsS.s:2191   .text.hostapd_config_check:0000000000000008 .L0 
C:\Users\stapi\AppData\Local\Temp\cchP1ZsS.s:2192   .text.hostapd_config_check:000000000000000a .L0 
C:\Users\stapi\AppData\Local\Temp\cchP1ZsS.s:2194   .text.hostapd_config_check:000000000000000a .L0 
C:\Users\stapi\AppData\Local\Temp\cchP1ZsS.s:2197   .text.hostapd_config_check:000000000000000e .L0 
C:\Users\stapi\AppData\Local\Temp\cchP1ZsS.s:2199   .text.hostapd_config_check:0000000000000010 .L0 
C:\Users\stapi\AppData\Local\Temp\cchP1ZsS.s:2201   .text.hostapd_config_check:0000000000000012 .L0 
C:\Users\stapi\AppData\Local\Temp\cchP1ZsS.s:2203   .text.hostapd_config_check:0000000000000014 .L0 
C:\Users\stapi\AppData\Local\Temp\cchP1ZsS.s:2206   .text.hostapd_config_check:000000000000001a .L0 
C:\Users\stapi\AppData\Local\Temp\cchP1ZsS.s:2210   .text.hostapd_config_check:0000000000000020 .L0 
C:\Users\stapi\AppData\Local\Temp\cchP1ZsS.s:2218   .text.hostapd_config_check:0000000000000028 .L0 
C:\Users\stapi\AppData\Local\Temp\cchP1ZsS.s:2222   .text.hostapd_config_check:0000000000000032 .L0 
C:\Users\stapi\AppData\Local\Temp\cchP1ZsS.s:2228   .text.hostapd_config_check:0000000000000034 .L0 
C:\Users\stapi\AppData\Local\Temp\cchP1ZsS.s:2229   .text.hostapd_config_check:0000000000000034 .L0 
C:\Users\stapi\AppData\Local\Temp\cchP1ZsS.s:2232   .text.hostapd_config_check:0000000000000038 .L0 
C:\Users\stapi\AppData\Local\Temp\cchP1ZsS.s:2234   .text.hostapd_config_check:000000000000003a .L0 
C:\Users\stapi\AppData\Local\Temp\cchP1ZsS.s:2241   .text.hostapd_config_check:0000000000000044 .L0 
C:\Users\stapi\AppData\Local\Temp\cchP1ZsS.s:2242   .text.hostapd_config_check:0000000000000044 .L0 
C:\Users\stapi\AppData\Local\Temp\cchP1ZsS.s:2244   .text.hostapd_config_check:0000000000000048 .L0 
C:\Users\stapi\AppData\Local\Temp\cchP1ZsS.s:2247   .text.hostapd_config_check:000000000000004e .L0 
C:\Users\stapi\AppData\Local\Temp\cchP1ZsS.s:2249   .text.hostapd_config_check:0000000000000050 .L0 
C:\Users\stapi\AppData\Local\Temp\cchP1ZsS.s:2256   .text.hostapd_config_check:000000000000005a .L0 
C:\Users\stapi\AppData\Local\Temp\cchP1ZsS.s:2257   .text.hostapd_config_check:000000000000005a .L0 
C:\Users\stapi\AppData\Local\Temp\cchP1ZsS.s:2260   .text.hostapd_config_check:0000000000000060 .L0 
C:\Users\stapi\AppData\Local\Temp\cchP1ZsS.s:2263   .text.hostapd_config_check:0000000000000066 .L0 
C:\Users\stapi\AppData\Local\Temp\cchP1ZsS.s:2271   .text.hostapd_config_check:0000000000000078 .L0 
C:\Users\stapi\AppData\Local\Temp\cchP1ZsS.s:2272   .text.hostapd_config_check:0000000000000078 .L0 
C:\Users\stapi\AppData\Local\Temp\cchP1ZsS.s:2274   .text.hostapd_config_check:000000000000007c .L0 
C:\Users\stapi\AppData\Local\Temp\cchP1ZsS.s:2275   .text.hostapd_config_check:000000000000007c .L0 
C:\Users\stapi\AppData\Local\Temp\cchP1ZsS.s:2277   .text.hostapd_config_check:0000000000000084 .L0 
C:\Users\stapi\AppData\Local\Temp\cchP1ZsS.s:2278   .text.hostapd_config_check:0000000000000084 .L0 
C:\Users\stapi\AppData\Local\Temp\cchP1ZsS.s:2279   .text.hostapd_config_check:0000000000000084 .L0 
C:\Users\stapi\AppData\Local\Temp\cchP1ZsS.s:2280   .text.hostapd_config_check:0000000000000084 .L0 
C:\Users\stapi\AppData\Local\Temp\cchP1ZsS.s:2281   .text.hostapd_config_check:0000000000000084 .L0 
C:\Users\stapi\AppData\Local\Temp\cchP1ZsS.s:2282   .text.hostapd_config_check:0000000000000084 .L0 
C:\Users\stapi\AppData\Local\Temp\cchP1ZsS.s:2283   .text.hostapd_config_check:0000000000000084 .L0 
C:\Users\stapi\AppData\Local\Temp\cchP1ZsS.s:2284   .text.hostapd_config_check:0000000000000084 .L0 
C:\Users\stapi\AppData\Local\Temp\cchP1ZsS.s:2285   .text.hostapd_config_check:0000000000000084 .L0 
C:\Users\stapi\AppData\Local\Temp\cchP1ZsS.s:2286   .text.hostapd_config_check:0000000000000084 .L0 
C:\Users\stapi\AppData\Local\Temp\cchP1ZsS.s:2287   .text.hostapd_config_check:0000000000000084 .L0 
C:\Users\stapi\AppData\Local\Temp\cchP1ZsS.s:2288   .text.hostapd_config_check:0000000000000084 .L0 
C:\Users\stapi\AppData\Local\Temp\cchP1ZsS.s:2289   .text.hostapd_config_check:0000000000000084 .L0 
C:\Users\stapi\AppData\Local\Temp\cchP1ZsS.s:2290   .text.hostapd_config_check:0000000000000084 .L0 
C:\Users\stapi\AppData\Local\Temp\cchP1ZsS.s:2293   .text.hostapd_config_check:0000000000000084 .L0 
C:\Users\stapi\AppData\Local\Temp\cchP1ZsS.s:2302   .text.hostapd_config_check:0000000000000090 .L0 
C:\Users\stapi\AppData\Local\Temp\cchP1ZsS.s:2303   .text.hostapd_config_check:0000000000000090 .L0 
C:\Users\stapi\AppData\Local\Temp\cchP1ZsS.s:2304   .text.hostapd_config_check:0000000000000090 .L0 
C:\Users\stapi\AppData\Local\Temp\cchP1ZsS.s:2307   .text.hostapd_config_check:0000000000000092 .L0 
C:\Users\stapi\AppData\Local\Temp\cchP1ZsS.s:2308   .text.hostapd_config_check:0000000000000092 .L0 
C:\Users\stapi\AppData\Local\Temp\cchP1ZsS.s:2311   .text.hostapd_config_check:0000000000000094 .L0 
C:\Users\stapi\AppData\Local\Temp\cchP1ZsS.s:2312   .text.hostapd_config_check:0000000000000094 .L0 
C:\Users\stapi\AppData\Local\Temp\cchP1ZsS.s:2315   .text.hostapd_config_check:0000000000000096 .L0 
C:\Users\stapi\AppData\Local\Temp\cchP1ZsS.s:2316   .text.hostapd_config_check:0000000000000096 .L0 
C:\Users\stapi\AppData\Local\Temp\cchP1ZsS.s:2319   .text.hostapd_config_check:0000000000000098 .L0 
C:\Users\stapi\AppData\Local\Temp\cchP1ZsS.s:2320   .text.hostapd_config_check:0000000000000098 .L0 
C:\Users\stapi\AppData\Local\Temp\cchP1ZsS.s:2322   .text.hostapd_config_check:000000000000009c .L0 
C:\Users\stapi\AppData\Local\Temp\cchP1ZsS.s:2332   .text.hostapd_config_check:00000000000000a8 .L0 
C:\Users\stapi\AppData\Local\Temp\cchP1ZsS.s:2343   .text.hostapd_config_check:00000000000000b2 .L0 
C:\Users\stapi\AppData\Local\Temp\cchP1ZsS.s:2347   .text.hostapd_config_check:00000000000000b2 .L0 
C:\Users\stapi\AppData\Local\Temp\cchP1ZsS.s:2348   .text.hostapd_config_check:00000000000000b2 .L0 
C:\Users\stapi\AppData\Local\Temp\cchP1ZsS.s:2355   .text.hostapd_config_check:00000000000000b6 .L0 
C:\Users\stapi\AppData\Local\Temp\cchP1ZsS.s:2356   .text.hostapd_config_check:00000000000000b6 .L0 
C:\Users\stapi\AppData\Local\Temp\cchP1ZsS.s:2358   .text.hostapd_config_check:00000000000000ba .L0 
C:\Users\stapi\AppData\Local\Temp\cchP1ZsS.s:2367   .text.hostapd_config_check:00000000000000c4 .L0 
C:\Users\stapi\AppData\Local\Temp\cchP1ZsS.s:2368   .text.hostapd_config_check:00000000000000c4 .L0 
C:\Users\stapi\AppData\Local\Temp\cchP1ZsS.s:2369   .text.hostapd_config_check:00000000000000c4 .L0 
C:\Users\stapi\AppData\Local\Temp\cchP1ZsS.s:2373   .text.hostapd_config_check:00000000000000cc .L0 
C:\Users\stapi\AppData\Local\Temp\cchP1ZsS.s:2377   .text.hostapd_config_check:00000000000000ce .L0 
C:\Users\stapi\AppData\Local\Temp\cchP1ZsS.s:2379   .text.hostapd_config_check:00000000000000d0 .L0 
C:\Users\stapi\AppData\Local\Temp\cchP1ZsS.s:2381   .text.hostapd_config_check:00000000000000d4 .L0 
C:\Users\stapi\AppData\Local\Temp\cchP1ZsS.s:2383   .text.hostapd_config_check:00000000000000d8 .L0 
C:\Users\stapi\AppData\Local\Temp\cchP1ZsS.s:2385   .text.hostapd_config_check:00000000000000dc .L0 
C:\Users\stapi\AppData\Local\Temp\cchP1ZsS.s:2391   .text.hostapd_config_check:00000000000000de .L0 
C:\Users\stapi\AppData\Local\Temp\cchP1ZsS.s:2392   .text.hostapd_config_check:00000000000000de .L0 
C:\Users\stapi\AppData\Local\Temp\cchP1ZsS.s:2395   .text.hostapd_config_check:00000000000000e4 .L0 
C:\Users\stapi\AppData\Local\Temp\cchP1ZsS.s:2402   .text.hostapd_config_check:00000000000000e8 .L0 
C:\Users\stapi\AppData\Local\Temp\cchP1ZsS.s:2403   .text.hostapd_config_check:00000000000000e8 .L0 
C:\Users\stapi\AppData\Local\Temp\cchP1ZsS.s:2404   .text.hostapd_config_check:00000000000000e8 .L0 
C:\Users\stapi\AppData\Local\Temp\cchP1ZsS.s:2408   .text.hostapd_config_check:00000000000000ec .L0 
C:\Users\stapi\AppData\Local\Temp\cchP1ZsS.s:2412   .text.hostapd_config_check:00000000000000ee .L0 
C:\Users\stapi\AppData\Local\Temp\cchP1ZsS.s:2416   .text.hostapd_config_check:00000000000000f2 .L0 
C:\Users\stapi\AppData\Local\Temp\cchP1ZsS.s:2421   .text.hostapd_config_check:00000000000000f8 .L0 
C:\Users\stapi\AppData\Local\Temp\cchP1ZsS.s:2424   .text.hostapd_config_check:0000000000000100 .L0 
C:\Users\stapi\AppData\Local\Temp\cchP1ZsS.s:2429   .text.hostapd_config_check:0000000000000104 .L0 
C:\Users\stapi\AppData\Local\Temp\cchP1ZsS.s:2430   .text.hostapd_config_check:0000000000000104 .L0 
C:\Users\stapi\AppData\Local\Temp\cchP1ZsS.s:2433   .text.hostapd_config_check:000000000000010c .L0 
C:\Users\stapi\AppData\Local\Temp\cchP1ZsS.s:2438   .text.hostapd_config_check:0000000000000116 .L0 
C:\Users\stapi\AppData\Local\Temp\cchP1ZsS.s:2439   .text.hostapd_config_check:0000000000000116 .L0 
C:\Users\stapi\AppData\Local\Temp\cchP1ZsS.s:2442   .text.hostapd_config_check:000000000000011e .L0 
C:\Users\stapi\AppData\Local\Temp\cchP1ZsS.s:2447   .text.hostapd_config_check:0000000000000128 .L0 
C:\Users\stapi\AppData\Local\Temp\cchP1ZsS.s:2448   .text.hostapd_config_check:0000000000000128 .L0 
C:\Users\stapi\AppData\Local\Temp\cchP1ZsS.s:2451   .text.hostapd_config_check:0000000000000130 .L0 
C:\Users\stapi\AppData\Local\Temp\cchP1ZsS.s:2453   .text.hostapd_config_check:0000000000000132 .L0 
C:\Users\stapi\AppData\Local\Temp\cchP1ZsS.s:2458   .text.hostapd_config_check:000000000000013c .L0 
C:\Users\stapi\AppData\Local\Temp\cchP1ZsS.s:2459   .text.hostapd_config_check:000000000000013c .L0 
C:\Users\stapi\AppData\Local\Temp\cchP1ZsS.s:2462   .text.hostapd_config_check:0000000000000142 .L0 
C:\Users\stapi\AppData\Local\Temp\cchP1ZsS.s:2464   .text.hostapd_config_check:0000000000000144 .L0 
C:\Users\stapi\AppData\Local\Temp\cchP1ZsS.s:2469   .text.hostapd_config_check:000000000000014e .L0 
C:\Users\stapi\AppData\Local\Temp\cchP1ZsS.s:2470   .text.hostapd_config_check:000000000000014e .L0 
C:\Users\stapi\AppData\Local\Temp\cchP1ZsS.s:2473   .text.hostapd_config_check:0000000000000154 .L0 
C:\Users\stapi\AppData\Local\Temp\cchP1ZsS.s:2475   .text.hostapd_config_check:0000000000000158 .L0 
C:\Users\stapi\AppData\Local\Temp\cchP1ZsS.s:2482   .text.hostapd_config_check:0000000000000162 .L0 
C:\Users\stapi\AppData\Local\Temp\cchP1ZsS.s:2485   .text.hostapd_config_check:0000000000000168 .L0 
C:\Users\stapi\AppData\Local\Temp\cchP1ZsS.s:2487   .text.hostapd_config_check:000000000000016a .L0 
C:\Users\stapi\AppData\Local\Temp\cchP1ZsS.s:2490   .text.hostapd_config_check:0000000000000170 .L0 
C:\Users\stapi\AppData\Local\Temp\cchP1ZsS.s:2495   .text.hostapd_config_check:000000000000017a .L0 
C:\Users\stapi\AppData\Local\Temp\cchP1ZsS.s:2496   .text.hostapd_config_check:000000000000017a .L0 
C:\Users\stapi\AppData\Local\Temp\cchP1ZsS.s:2499   .text.hostapd_config_check:0000000000000180 .L0 
C:\Users\stapi\AppData\Local\Temp\cchP1ZsS.s:2501   .text.hostapd_config_check:0000000000000182 .L0 
C:\Users\stapi\AppData\Local\Temp\cchP1ZsS.s:2504   .text.hostapd_config_check:0000000000000188 .L0 
C:\Users\stapi\AppData\Local\Temp\cchP1ZsS.s:2507   .text.hostapd_config_check:000000000000018e .L0 
C:\Users\stapi\AppData\Local\Temp\cchP1ZsS.s:2510   .text.hostapd_config_check:0000000000000194 .L0 
C:\Users\stapi\AppData\Local\Temp\cchP1ZsS.s:2512   .text.hostapd_config_check:0000000000000198 .L0 
C:\Users\stapi\AppData\Local\Temp\cchP1ZsS.s:2516   .text.hostapd_config_check:00000000000001a0 .L0 
C:\Users\stapi\AppData\Local\Temp\cchP1ZsS.s:2521   .text.hostapd_config_check:00000000000001aa .L0 
C:\Users\stapi\AppData\Local\Temp\cchP1ZsS.s:2522   .text.hostapd_config_check:00000000000001aa .L0 
C:\Users\stapi\AppData\Local\Temp\cchP1ZsS.s:2524   .text.hostapd_config_check:00000000000001ae .L0 
C:\Users\stapi\AppData\Local\Temp\cchP1ZsS.s:2528   .text.hostapd_config_check:00000000000001b8 .L0 
C:\Users\stapi\AppData\Local\Temp\cchP1ZsS.s:2531   .text.hostapd_config_check:00000000000001ba .L0 
C:\Users\stapi\AppData\Local\Temp\cchP1ZsS.s:2532   .text.hostapd_config_check:00000000000001ba .L0 
C:\Users\stapi\AppData\Local\Temp\cchP1ZsS.s:2535   .text.hostapd_config_check:00000000000001c0 .L0 
C:\Users\stapi\AppData\Local\Temp\cchP1ZsS.s:2539   .text.hostapd_config_check:00000000000001c4 .L0 
C:\Users\stapi\AppData\Local\Temp\cchP1ZsS.s:2543   .text.hostapd_config_check:00000000000001ca .L0 
C:\Users\stapi\AppData\Local\Temp\cchP1ZsS.s:2544   .text.hostapd_config_check:00000000000001ca .L0 
C:\Users\stapi\AppData\Local\Temp\cchP1ZsS.s:2547   .text.hostapd_config_check:00000000000001d0 .L0 
C:\Users\stapi\AppData\Local\Temp\cchP1ZsS.s:2550   .text.hostapd_config_check:00000000000001d6 .L0 
C:\Users\stapi\AppData\Local\Temp\cchP1ZsS.s:2553   .text.hostapd_config_check:00000000000001dc .L0 
C:\Users\stapi\AppData\Local\Temp\cchP1ZsS.s:2555   .text.hostapd_config_check:00000000000001de .L0 
C:\Users\stapi\AppData\Local\Temp\cchP1ZsS.s:2558   .text.hostapd_config_check:00000000000001e6 .L0 
C:\Users\stapi\AppData\Local\Temp\cchP1ZsS.s:2560   .text.hostapd_config_check:00000000000001e8 .L0 
C:\Users\stapi\AppData\Local\Temp\cchP1ZsS.s:2561   .text.hostapd_config_check:00000000000001e8 .L0 
C:\Users\stapi\AppData\Local\Temp\cchP1ZsS.s:2563   .text.hostapd_config_check:00000000000001ec .L0 
C:\Users\stapi\AppData\Local\Temp\cchP1ZsS.s:2571   .text.hostapd_config_check:00000000000001fa .L0 
C:\Users\stapi\AppData\Local\Temp\cchP1ZsS.s:2572   .text.hostapd_config_check:00000000000001fa .L0 
C:\Users\stapi\AppData\Local\Temp\cchP1ZsS.s:2581   .text.hostapd_config_check:00000000000001fe .L0 
C:\Users\stapi\AppData\Local\Temp\cchP1ZsS.s:2582   .text.hostapd_config_check:00000000000001fe .L0 
C:\Users\stapi\AppData\Local\Temp\cchP1ZsS.s:2586   .text.hostapd_config_check:0000000000000200 .L0 
C:\Users\stapi\AppData\Local\Temp\cchP1ZsS.s:2587   .text.hostapd_config_check:0000000000000200 .L0 
C:\Users\stapi\AppData\Local\Temp\cchP1ZsS.s:2590   .text.hostapd_config_check:0000000000000206 .L0 
C:\Users\stapi\AppData\Local\Temp\cchP1ZsS.s:2591   .text.hostapd_config_check:0000000000000206 .L0 
C:\Users\stapi\AppData\Local\Temp\cchP1ZsS.s:2596   .text.hostapd_config_check:0000000000000210 .L0 
C:\Users\stapi\AppData\Local\Temp\cchP1ZsS.s:2598   .text.hostapd_config_check:0000000000000214 .L0 
C:\Users\stapi\AppData\Local\Temp\cchP1ZsS.s:2603   .text.hostapd_config_check:0000000000000222 .L0 
C:\Users\stapi\AppData\Local\Temp\cchP1ZsS.s:2605   .text.hostapd_config_check:0000000000000224 .L0 
C:\Users\stapi\AppData\Local\Temp\cchP1ZsS.s:2606   .text.hostapd_config_check:0000000000000224 .L0 
C:\Users\stapi\AppData\Local\Temp\cchP1ZsS.s:2608   .text.hostapd_config_check:0000000000000226 .L0 
C:\Users\stapi\AppData\Local\Temp\cchP1ZsS.s:2615   .text.hostapd_config_check:000000000000023e .L0 
C:\Users\stapi\AppData\Local\Temp\cchP1ZsS.s:2617   .text.hostapd_config_check:0000000000000240 .L0 
C:\Users\stapi\AppData\Local\Temp\cchP1ZsS.s:2629   .text.hostapd_config_check:000000000000025a .L0 
C:\Users\stapi\AppData\Local\Temp\cchP1ZsS.s:2634   .text.hostapd_config_check:000000000000025e .L0 
C:\Users\stapi\AppData\Local\Temp\cchP1ZsS.s:2635   .text.hostapd_config_check:000000000000025e .L0 
C:\Users\stapi\AppData\Local\Temp\cchP1ZsS.s:2637   .text.hostapd_config_check:0000000000000262 .L0 
C:\Users\stapi\AppData\Local\Temp\cchP1ZsS.s:2642   .text.hostapd_config_check:0000000000000270 .L0 
C:\Users\stapi\AppData\Local\Temp\cchP1ZsS.s:2643   .text.hostapd_config_check:0000000000000270 .L0 
C:\Users\stapi\AppData\Local\Temp\cchP1ZsS.s:2648   .text.hostapd_config_check:0000000000000278 .L0 
C:\Users\stapi\AppData\Local\Temp\cchP1ZsS.s:2651   .text.hostapd_config_check:000000000000027e .L0 
C:\Users\stapi\AppData\Local\Temp\cchP1ZsS.s:2653   .text.hostapd_config_check:0000000000000280 .L0 
C:\Users\stapi\AppData\Local\Temp\cchP1ZsS.s:2656   .text.hostapd_config_check:0000000000000288 .L0 
C:\Users\stapi\AppData\Local\Temp\cchP1ZsS.s:2658   .text.hostapd_config_check:000000000000028a .L0 
C:\Users\stapi\AppData\Local\Temp\cchP1ZsS.s:2659   .text.hostapd_config_check:000000000000028a .L0 
C:\Users\stapi\AppData\Local\Temp\cchP1ZsS.s:2661   .text.hostapd_config_check:000000000000028e .L0 
C:\Users\stapi\AppData\Local\Temp\cchP1ZsS.s:2668   .text.hostapd_config_check:000000000000029e .L0 
C:\Users\stapi\AppData\Local\Temp\cchP1ZsS.s:2669   .text.hostapd_config_check:000000000000029e .L0 
C:\Users\stapi\AppData\Local\Temp\cchP1ZsS.s:2673   .text.hostapd_config_check:00000000000002a4 .L0 
C:\Users\stapi\AppData\Local\Temp\cchP1ZsS.s:2674   .text.hostapd_config_check:00000000000002a4 .L0 
C:\Users\stapi\AppData\Local\Temp\cchP1ZsS.s:2677   .text.hostapd_config_check:00000000000002aa .L0 
C:\Users\stapi\AppData\Local\Temp\cchP1ZsS.s:2680   .text.hostapd_config_check:00000000000002b2 .L0 
C:\Users\stapi\AppData\Local\Temp\cchP1ZsS.s:2683   .text.hostapd_config_check:00000000000002ba .L0 
C:\Users\stapi\AppData\Local\Temp\cchP1ZsS.s:2688   .text.hostapd_config_check:00000000000002c4 .L0 
C:\Users\stapi\AppData\Local\Temp\cchP1ZsS.s:2695   .text.hostapd_set_security_params:0000000000000000 hostapd_set_security_params
C:\Users\stapi\AppData\Local\Temp\cchP1ZsS.s:2698   .text.hostapd_set_security_params:0000000000000000 .L0 
C:\Users\stapi\AppData\Local\Temp\cchP1ZsS.s:2700   .text.hostapd_set_security_params:0000000000000000 .L0 
C:\Users\stapi\AppData\Local\Temp\cchP1ZsS.s:2701   .text.hostapd_set_security_params:0000000000000008 .L0 
C:\Users\stapi\AppData\Local\Temp\cchP1ZsS.s:2702   .text.hostapd_set_security_params:0000000000000008 .L0 
C:\Users\stapi\AppData\Local\Temp\cchP1ZsS.s:2703   .text.hostapd_set_security_params:0000000000000008 .L0 
C:\Users\stapi\AppData\Local\Temp\cchP1ZsS.s:2704   .text.hostapd_set_security_params:0000000000000008 .L0 
C:\Users\stapi\AppData\Local\Temp\cchP1ZsS.s:2706   .text.hostapd_set_security_params:0000000000000008 .L0 
C:\Users\stapi\AppData\Local\Temp\cchP1ZsS.s:2707   .text.hostapd_set_security_params:0000000000000008 .L0 
C:\Users\stapi\AppData\Local\Temp\cchP1ZsS.s:2709   .text.hostapd_set_security_params:000000000000000a .L0 
C:\Users\stapi\AppData\Local\Temp\cchP1ZsS.s:2712   .text.hostapd_set_security_params:000000000000000e .L0 
C:\Users\stapi\AppData\Local\Temp\cchP1ZsS.s:2714   .text.hostapd_set_security_params:0000000000000010 .L0 
C:\Users\stapi\AppData\Local\Temp\cchP1ZsS.s:2716   .text.hostapd_set_security_params:0000000000000014 .L0 
C:\Users\stapi\AppData\Local\Temp\cchP1ZsS.s:2718   .text.hostapd_set_security_params:0000000000000016 .L0 
C:\Users\stapi\AppData\Local\Temp\cchP1ZsS.s:2721   .text.hostapd_set_security_params:000000000000001c .L0 
C:\Users\stapi\AppData\Local\Temp\cchP1ZsS.s:2722   .text.hostapd_set_security_params:000000000000001c .L0 
C:\Users\stapi\AppData\Local\Temp\cchP1ZsS.s:2726   .text.hostapd_set_security_params:0000000000000024 .L0 
C:\Users\stapi\AppData\Local\Temp\cchP1ZsS.s:2727   .text.hostapd_set_security_params:0000000000000024 .L0 
C:\Users\stapi\AppData\Local\Temp\cchP1ZsS.s:2729   .text.hostapd_set_security_params:0000000000000028 .L0 
C:\Users\stapi\AppData\Local\Temp\cchP1ZsS.s:2731   .text.hostapd_set_security_params:000000000000002a .L0 
C:\Users\stapi\AppData\Local\Temp\cchP1ZsS.s:2732   .text.hostapd_set_security_params:000000000000002a .L0 
C:\Users\stapi\AppData\Local\Temp\cchP1ZsS.s:2736   .text.hostapd_set_security_params:000000000000002e .L0 
C:\Users\stapi\AppData\Local\Temp\cchP1ZsS.s:2737   .text.hostapd_set_security_params:000000000000002e .L0 
C:\Users\stapi\AppData\Local\Temp\cchP1ZsS.s:2740   .text.hostapd_set_security_params:0000000000000034 .L0 
C:\Users\stapi\AppData\Local\Temp\cchP1ZsS.s:2741   .text.hostapd_set_security_params:0000000000000034 .L0 
C:\Users\stapi\AppData\Local\Temp\cchP1ZsS.s:2749   .text.hostapd_set_security_params:0000000000000048 .L0 
C:\Users\stapi\AppData\Local\Temp\cchP1ZsS.s:2752   .text.hostapd_set_security_params:000000000000004c .L0 
C:\Users\stapi\AppData\Local\Temp\cchP1ZsS.s:2753   .text.hostapd_set_security_params:000000000000004c .L0 
C:\Users\stapi\AppData\Local\Temp\cchP1ZsS.s:2755   .text.hostapd_set_security_params:000000000000004e .L0 
C:\Users\stapi\AppData\Local\Temp\cchP1ZsS.s:2756   .text.hostapd_set_security_params:000000000000004e .L0 
C:\Users\stapi\AppData\Local\Temp\cchP1ZsS.s:2758   .text.hostapd_set_security_params:0000000000000050 .L0 
C:\Users\stapi\AppData\Local\Temp\cchP1ZsS.s:2761   .text.hostapd_set_security_params:0000000000000054 .L0 
C:\Users\stapi\AppData\Local\Temp\cchP1ZsS.s:2762   .text.hostapd_set_security_params:0000000000000054 .L0 
C:\Users\stapi\AppData\Local\Temp\cchP1ZsS.s:2766   .text.hostapd_set_security_params:0000000000000058 .L0 
C:\Users\stapi\AppData\Local\Temp\cchP1ZsS.s:2767   .text.hostapd_set_security_params:0000000000000058 .L0 
C:\Users\stapi\AppData\Local\Temp\cchP1ZsS.s:2769   .text.hostapd_set_security_params:000000000000005c .L0 
C:\Users\stapi\AppData\Local\Temp\cchP1ZsS.s:2771   .text.hostapd_set_security_params:000000000000005e .L0 
C:\Users\stapi\AppData\Local\Temp\cchP1ZsS.s:2773   .text.hostapd_set_security_params:0000000000000060 .L0 
C:\Users\stapi\AppData\Local\Temp\cchP1ZsS.s:2775   .text.hostapd_set_security_params:0000000000000062 .L0 
C:\Users\stapi\AppData\Local\Temp\cchP1ZsS.s:2776   .text.hostapd_set_security_params:0000000000000062 .L0 
C:\Users\stapi\AppData\Local\Temp\cchP1ZsS.s:2779   .text.hostapd_set_security_params:0000000000000064 .L0 
C:\Users\stapi\AppData\Local\Temp\cchP1ZsS.s:2782   .text.hostapd_set_security_params:0000000000000068 .L0 
C:\Users\stapi\AppData\Local\Temp\cchP1ZsS.s:2783   .text.hostapd_set_security_params:0000000000000070 .L0 
C:\Users\stapi\AppData\Local\Temp\cchP1ZsS.s:2784   .text.hostapd_set_security_params:0000000000000070 .L0 
C:\Users\stapi\AppData\Local\Temp\cchP1ZsS.s:2785   .text.hostapd_set_security_params:0000000000000070 .L0 
C:\Users\stapi\AppData\Local\Temp\cchP1ZsS.s:2786   .text.hostapd_set_security_params:0000000000000070 .L0 
C:\Users\stapi\AppData\Local\Temp\cchP1ZsS.s:2787   .text.hostapd_set_security_params:0000000000000070 .L0 
C:\Users\stapi\AppData\Local\Temp\cchP1ZsS.s:2789   .text.hostapd_set_security_params:0000000000000070 .L0 
C:\Users\stapi\AppData\Local\Temp\cchP1ZsS.s:2791   .text.hostapd_set_security_params:0000000000000070 .L0 
C:\Users\stapi\AppData\Local\Temp\cchP1ZsS.s:2792   .text.hostapd_set_security_params:0000000000000070 .L0 
C:\Users\stapi\AppData\Local\Temp\cchP1ZsS.s:2797   .text.hostapd_set_security_params:0000000000000080 .L0 
C:\Users\stapi\AppData\Local\Temp\cchP1ZsS.s:2801   .text.hostapd_set_security_params:0000000000000086 .L0 
C:\Users\stapi\AppData\Local\Temp\cchP1ZsS.s:2802   .text.hostapd_set_security_params:0000000000000086 .L0 
C:\Users\stapi\AppData\Local\Temp\cchP1ZsS.s:2803   .text.hostapd_set_security_params:0000000000000086 .L0 
C:\Users\stapi\AppData\Local\Temp\cchP1ZsS.s:2807   .text.hostapd_set_security_params:000000000000008a .L0 
C:\Users\stapi\AppData\Local\Temp\cchP1ZsS.s:2808   .text.hostapd_set_security_params:000000000000008a .L0 
C:\Users\stapi\AppData\Local\Temp\cchP1ZsS.s:2809   .text.hostapd_set_security_params:000000000000008a .L0 
C:\Users\stapi\AppData\Local\Temp\cchP1ZsS.s:2813   .text.hostapd_set_security_params:000000000000008c .L0 
C:\Users\stapi\AppData\Local\Temp\cchP1ZsS.s:2814   .text.hostapd_set_security_params:000000000000008c .L0 
C:\Users\stapi\AppData\Local\Temp\cchP1ZsS.s:2815   .text.hostapd_set_security_params:000000000000008c .L0 
C:\Users\stapi\AppData\Local\Temp\cchP1ZsS.s:2818   .text.hostapd_set_security_params:0000000000000092 .L0 
C:\Users\stapi\AppData\Local\Temp\cchP1ZsS.s:2819   .text.hostapd_set_security_params:0000000000000092 .L0 
C:\Users\stapi\AppData\Local\Temp\cchP1ZsS.s:2823   .text.hostapd_set_security_params:000000000000009a .L0 
C:\Users\stapi\AppData\Local\Temp\cchP1ZsS.s:2824   .text.hostapd_set_security_params:000000000000009a .L0 
C:\Users\stapi\AppData\Local\Temp\cchP1ZsS.s:2826   .text.hostapd_set_security_params:000000000000009c .L0 
C:\Users\stapi\AppData\Local\Temp\cchP1ZsS.s:2827   .text.hostapd_set_security_params:000000000000009c .L0 
C:\Users\stapi\AppData\Local\Temp\cchP1ZsS.s:2829   .text.hostapd_set_security_params:00000000000000a0 .L0 
C:\Users\stapi\AppData\Local\Temp\cchP1ZsS.s:2830   .text.hostapd_set_security_params:00000000000000a0 .L0 
C:\Users\stapi\AppData\Local\Temp\cchP1ZsS.s:2832   .text.hostapd_set_security_params:00000000000000a2 .L0 
C:\Users\stapi\AppData\Local\Temp\cchP1ZsS.s:2833   .text.hostapd_set_security_params:00000000000000a2 .L0 
C:\Users\stapi\AppData\Local\Temp\cchP1ZsS.s:2840   .text.hostapd_set_security_params:00000000000000aa .L0 
C:\Users\stapi\AppData\Local\Temp\cchP1ZsS.s:2841   .text.hostapd_set_security_params:00000000000000aa .L0 
C:\Users\stapi\AppData\Local\Temp\cchP1ZsS.s:2844   .text.hostapd_set_security_params:00000000000000b0 .L0 
C:\Users\stapi\AppData\Local\Temp\cchP1ZsS.s:2845   .text.hostapd_set_security_params:00000000000000b0 .L0 
C:\Users\stapi\AppData\Local\Temp\cchP1ZsS.s:2848   .text.hostapd_set_security_params:00000000000000b6 .L0 
C:\Users\stapi\AppData\Local\Temp\cchP1ZsS.s:2849   .text.hostapd_set_security_params:00000000000000b6 .L0 
C:\Users\stapi\AppData\Local\Temp\cchP1ZsS.s:2852   .text.hostapd_set_security_params:00000000000000bc .L0 
C:\Users\stapi\AppData\Local\Temp\cchP1ZsS.s:2853   .text.hostapd_set_security_params:00000000000000bc .L0 
C:\Users\stapi\AppData\Local\Temp\cchP1ZsS.s:2855   .text.hostapd_set_security_params:00000000000000c0 .L0 
C:\Users\stapi\AppData\Local\Temp\cchP1ZsS.s:2856   .text.hostapd_set_security_params:00000000000000c0 .L0 
C:\Users\stapi\AppData\Local\Temp\cchP1ZsS.s:2860   .text.hostapd_set_security_params:00000000000000c6 .L0 
C:\Users\stapi\AppData\Local\Temp\cchP1ZsS.s:2861   .text.hostapd_set_security_params:00000000000000c6 .L0 
C:\Users\stapi\AppData\Local\Temp\cchP1ZsS.s:2863   .text.hostapd_set_security_params:00000000000000ca .L0 
C:\Users\stapi\AppData\Local\Temp\cchP1ZsS.s:2864   .text.hostapd_set_security_params:00000000000000ca .L0 
C:\Users\stapi\AppData\Local\Temp\cchP1ZsS.s:2866   .text.hostapd_set_security_params:00000000000000cc .L0 
C:\Users\stapi\AppData\Local\Temp\cchP1ZsS.s:2867   .text.hostapd_set_security_params:00000000000000cc .L0 
C:\Users\stapi\AppData\Local\Temp\cchP1ZsS.s:2871   .text.hostapd_set_security_params:00000000000000d4 .L0 
C:\Users\stapi\AppData\Local\Temp\cchP1ZsS.s:2872   .text.hostapd_set_security_params:00000000000000d4 .L0 
C:\Users\stapi\AppData\Local\Temp\cchP1ZsS.s:2874   .text.hostapd_set_security_params:00000000000000d6 .L0 
C:\Users\stapi\AppData\Local\Temp\cchP1ZsS.s:2875   .text.hostapd_set_security_params:00000000000000d6 .L0 
C:\Users\stapi\AppData\Local\Temp\cchP1ZsS.s:2877   .text.hostapd_set_security_params:00000000000000da .L0 
C:\Users\stapi\AppData\Local\Temp\cchP1ZsS.s:2878   .text.hostapd_set_security_params:00000000000000da .L0 
C:\Users\stapi\AppData\Local\Temp\cchP1ZsS.s:2881   .text.hostapd_set_security_params:00000000000000de .L0 
C:\Users\stapi\AppData\Local\Temp\cchP1ZsS.s:2882   .text.hostapd_set_security_params:00000000000000e0 .L0 
C:\Users\stapi\AppData\Local\Temp\cchP1ZsS.s:2889   .text.hostapd_sae_pw_id_in_use:0000000000000000 hostapd_sae_pw_id_in_use
C:\Users\stapi\AppData\Local\Temp\cchP1ZsS.s:2892   .text.hostapd_sae_pw_id_in_use:0000000000000000 .L0 
C:\Users\stapi\AppData\Local\Temp\cchP1ZsS.s:2894   .text.hostapd_sae_pw_id_in_use:0000000000000000 .L0 
C:\Users\stapi\AppData\Local\Temp\cchP1ZsS.s:2895   .text.hostapd_sae_pw_id_in_use:0000000000000000 .L0 
C:\Users\stapi\AppData\Local\Temp\cchP1ZsS.s:2896   .text.hostapd_sae_pw_id_in_use:0000000000000000 .L0 
C:\Users\stapi\AppData\Local\Temp\cchP1ZsS.s:2897   .text.hostapd_sae_pw_id_in_use:0000000000000000 .L0 
C:\Users\stapi\AppData\Local\Temp\cchP1ZsS.s:2898   .text.hostapd_sae_pw_id_in_use:0000000000000000 .L0 
C:\Users\stapi\AppData\Local\Temp\cchP1ZsS.s:2900   .text.hostapd_sae_pw_id_in_use:0000000000000004 .L0 
C:\Users\stapi\AppData\Local\Temp\cchP1ZsS.s:2902   .text.hostapd_sae_pw_id_in_use:0000000000000008 .L0 
C:\Users\stapi\AppData\Local\Temp\cchP1ZsS.s:2905   .text.hostapd_sae_pw_id_in_use:000000000000000a .L0 
C:\Users\stapi\AppData\Local\Temp\cchP1ZsS.s:2909   .text.hostapd_sae_pw_id_in_use:000000000000000e .L0 
C:\Users\stapi\AppData\Local\Temp\cchP1ZsS.s:2910   .text.hostapd_sae_pw_id_in_use:000000000000000e .L0 
C:\Users\stapi\AppData\Local\Temp\cchP1ZsS.s:2911   .text.hostapd_sae_pw_id_in_use:000000000000000e .L0 
C:\Users\stapi\AppData\Local\Temp\cchP1ZsS.s:2913   .text.hostapd_sae_pw_id_in_use:0000000000000010 .L0 
C:\Users\stapi\AppData\Local\Temp\cchP1ZsS.s:2914   .text.hostapd_sae_pw_id_in_use:0000000000000010 .L0 
C:\Users\stapi\AppData\Local\Temp\cchP1ZsS.s:2918   .text.hostapd_sae_pw_id_in_use:0000000000000012 .L0 
C:\Users\stapi\AppData\Local\Temp\cchP1ZsS.s:2923   .text.hostapd_sae_pw_id_in_use:0000000000000016 .L0 
C:\Users\stapi\AppData\Local\Temp\cchP1ZsS.s:2927   .text.hostapd_sae_pw_id_in_use:0000000000000018 .L0 
C:\Users\stapi\AppData\Local\Temp\cchP1ZsS.s:2928   .text.hostapd_sae_pw_id_in_use:0000000000000018 .L0 
C:\Users\stapi\AppData\Local\Temp\cchP1ZsS.s:2932   .text.hostapd_sae_pw_id_in_use:000000000000001c .L0 
C:\Users\stapi\AppData\Local\Temp\cchP1ZsS.s:2933   .text.hostapd_sae_pw_id_in_use:000000000000001c .L0 
C:\Users\stapi\AppData\Local\Temp\cchP1ZsS.s:2934   .text.hostapd_sae_pw_id_in_use:000000000000001c .L0 
C:\Users\stapi\AppData\Local\Temp\cchP1ZsS.s:2936   .text.hostapd_sae_pw_id_in_use:000000000000001e .L0 
C:\Users\stapi\AppData\Local\Temp\cchP1ZsS.s:2940   .text.hostapd_sae_pw_id_in_use:0000000000000020 .L0 
C:\Users\stapi\AppData\Local\Temp\cchP1ZsS.s:2941   .text.hostapd_sae_pw_id_in_use:0000000000000020 .L0 
C:\Users\stapi\AppData\Local\Temp\cchP1ZsS.s:2947   .text.hostapd_sae_pw_id_in_use:0000000000000024 .L0 
C:\Users\stapi\AppData\Local\Temp\cchP1ZsS.s:2949   .text.hostapd_sae_pw_id_in_use:0000000000000026 .L0 
C:\Users\stapi\AppData\Local\Temp\cchP1ZsS.s:2955   .text.hostapd_sae_pw_id_in_use:000000000000002e .L0 
C:\Users\stapi\AppData\Local\Temp\cchP1ZsS.s:2962   .text.hostapd_setup_sae_pt:0000000000000000 hostapd_setup_sae_pt
C:\Users\stapi\AppData\Local\Temp\cchP1ZsS.s:2965   .text.hostapd_setup_sae_pt:0000000000000000 .L0 
C:\Users\stapi\AppData\Local\Temp\cchP1ZsS.s:2967   .text.hostapd_setup_sae_pt:0000000000000000 .L0 
C:\Users\stapi\AppData\Local\Temp\cchP1ZsS.s:2968   .text.hostapd_setup_sae_pt:0000000000000008 .L0 
C:\Users\stapi\AppData\Local\Temp\cchP1ZsS.s:2969   .text.hostapd_setup_sae_pt:0000000000000008 .L0 
C:\Users\stapi\AppData\Local\Temp\cchP1ZsS.s:2970   .text.hostapd_setup_sae_pt:0000000000000008 .L0 
C:\Users\stapi\AppData\Local\Temp\cchP1ZsS.s:2971   .text.hostapd_setup_sae_pt:0000000000000008 .L0 
C:\Users\stapi\AppData\Local\Temp\cchP1ZsS.s:2972   .text.hostapd_setup_sae_pt:0000000000000008 .L0 
C:\Users\stapi\AppData\Local\Temp\cchP1ZsS.s:2973   .text.hostapd_setup_sae_pt:0000000000000008 .L0 
C:\Users\stapi\AppData\Local\Temp\cchP1ZsS.s:2976   .text.hostapd_setup_sae_pt:0000000000000008 .L0 
C:\Users\stapi\AppData\Local\Temp\cchP1ZsS.s:2977   .text.hostapd_setup_sae_pt:0000000000000008 .L0 
C:\Users\stapi\AppData\Local\Temp\cchP1ZsS.s:2978   .text.hostapd_setup_sae_pt:0000000000000008 .L0 
C:\Users\stapi\AppData\Local\Temp\cchP1ZsS.s:2979   .text.hostapd_setup_sae_pt:0000000000000008 .L0 
C:\Users\stapi\AppData\Local\Temp\cchP1ZsS.s:2981   .text.hostapd_setup_sae_pt:000000000000000c .L0 
C:\Users\stapi\AppData\Local\Temp\cchP1ZsS.s:2982   .text.hostapd_setup_sae_pt:000000000000000e .L0 
C:\Users\stapi\AppData\Local\Temp\cchP1ZsS.s:2984   .text.hostapd_setup_sae_pt:000000000000000e .L0 
C:\Users\stapi\AppData\Local\Temp\cchP1ZsS.s:2986   .text.hostapd_setup_sae_pt:0000000000000010 .L0 
C:\Users\stapi\AppData\Local\Temp\cchP1ZsS.s:2988   .text.hostapd_setup_sae_pt:0000000000000012 .L0 
C:\Users\stapi\AppData\Local\Temp\cchP1ZsS.s:2991   .text.hostapd_setup_sae_pt:000000000000001a .L0 
C:\Users\stapi\AppData\Local\Temp\cchP1ZsS.s:2994   .text.hostapd_setup_sae_pt:000000000000001c .L0 
C:\Users\stapi\AppData\Local\Temp\cchP1ZsS.s:2997   .text.hostapd_setup_sae_pt:000000000000001e .L0 
C:\Users\stapi\AppData\Local\Temp\cchP1ZsS.s:2998   .text.hostapd_setup_sae_pt:0000000000000020 .L0 
C:\Users\stapi\AppData\Local\Temp\cchP1ZsS.s:2999   .text.hostapd_setup_sae_pt:0000000000000020 .L0 
C:\Users\stapi\AppData\Local\Temp\cchP1ZsS.s:3001   .text.hostapd_setup_sae_pt:0000000000000028 .L0 
C:\Users\stapi\AppData\Local\Temp\cchP1ZsS.s:3002   .text.hostapd_setup_sae_pt:0000000000000028 .L0 
C:\Users\stapi\AppData\Local\Temp\cchP1ZsS.s:3003   .text.hostapd_setup_sae_pt:0000000000000028 .L0 
C:\Users\stapi\AppData\Local\Temp\cchP1ZsS.s:3004   .text.hostapd_setup_sae_pt:0000000000000028 .L0 
C:\Users\stapi\AppData\Local\Temp\cchP1ZsS.s:3005   .text.hostapd_setup_sae_pt:0000000000000028 .L0 
C:\Users\stapi\AppData\Local\Temp\cchP1ZsS.s:3006   .text.hostapd_setup_sae_pt:0000000000000028 .L0 
C:\Users\stapi\AppData\Local\Temp\cchP1ZsS.s:3008   .text.hostapd_setup_sae_pt:0000000000000028 .L0 
C:\Users\stapi\AppData\Local\Temp\cchP1ZsS.s:3010   .text.hostapd_setup_sae_pt:0000000000000028 .L0 
C:\Users\stapi\AppData\Local\Temp\cchP1ZsS.s:3018   .text.hostapd_setup_sae_pt:000000000000002e .L0 
C:\Users\stapi\AppData\Local\Temp\cchP1ZsS.s:3019   .text.hostapd_setup_sae_pt:000000000000002e .L0 
C:\Users\stapi\AppData\Local\Temp\cchP1ZsS.s:3026   .text.hostapd_setup_sae_pt:000000000000003a .L0 
C:\Users\stapi\AppData\Local\Temp\cchP1ZsS.s:3031   .text.hostapd_setup_sae_pt:000000000000003c .L0 
C:\Users\stapi\AppData\Local\Temp\cchP1ZsS.s:3035   .text.hostapd_setup_sae_pt:0000000000000048 .L0 
C:\Users\stapi\AppData\Local\Temp\cchP1ZsS.s:3036   .text.hostapd_setup_sae_pt:0000000000000048 .L0 
C:\Users\stapi\AppData\Local\Temp\cchP1ZsS.s:3038   .text.hostapd_setup_sae_pt:000000000000004c .L0 
C:\Users\stapi\AppData\Local\Temp\cchP1ZsS.s:3040   .text.hostapd_setup_sae_pt:0000000000000050 .L0 
C:\Users\stapi\AppData\Local\Temp\cchP1ZsS.s:3041   .text.hostapd_setup_sae_pt:0000000000000050 .L0 
C:\Users\stapi\AppData\Local\Temp\cchP1ZsS.s:3044   .text.hostapd_setup_sae_pt:0000000000000052 .L0 
C:\Users\stapi\AppData\Local\Temp\cchP1ZsS.s:3045   .text.hostapd_setup_sae_pt:0000000000000052 .L0 
C:\Users\stapi\AppData\Local\Temp\cchP1ZsS.s:3048   .text.hostapd_setup_sae_pt:0000000000000056 .L0 
C:\Users\stapi\AppData\Local\Temp\cchP1ZsS.s:3051   .text.hostapd_setup_sae_pt:000000000000005a .L0 
C:\Users\stapi\AppData\Local\Temp\cchP1ZsS.s:3052   .text.hostapd_setup_sae_pt:000000000000005a .L0 
C:\Users\stapi\AppData\Local\Temp\cchP1ZsS.s:3054   .text.hostapd_setup_sae_pt:000000000000005c .L0 
C:\Users\stapi\AppData\Local\Temp\cchP1ZsS.s:3058   .text.hostapd_setup_sae_pt:0000000000000066 .L0 
C:\Users\stapi\AppData\Local\Temp\cchP1ZsS.s:3059   .text.hostapd_setup_sae_pt:0000000000000066 .L0 
C:\Users\stapi\AppData\Local\Temp\cchP1ZsS.s:3061   .text.hostapd_setup_sae_pt:0000000000000068 .L0 
C:\Users\stapi\AppData\Local\Temp\cchP1ZsS.s:3077   .text.hostapd_setup_sae_pt:0000000000000092 .L0 
C:\Users\stapi\AppData\Local\Temp\cchP1ZsS.s:3079   .text.hostapd_setup_sae_pt:0000000000000094 .L0 
C:\Users\stapi\AppData\Local\Temp\cchP1ZsS.s:3080   .text.hostapd_setup_sae_pt:0000000000000094 .L0 
C:\Users\stapi\AppData\Local\Temp\cchP1ZsS.s:3082   .text.hostapd_setup_sae_pt:0000000000000096 .L0 
C:\Users\stapi\AppData\Local\Temp\cchP1ZsS.s:3083   .text.hostapd_setup_sae_pt:0000000000000096 .L0 
C:\Users\stapi\AppData\Local\Temp\cchP1ZsS.s:3089   .text.hostapd_setup_sae_pt:000000000000009a .L0 
C:\Users\stapi\AppData\Local\Temp\cchP1ZsS.s:3090   .text.hostapd_setup_sae_pt:000000000000009a .L0 
C:\Users\stapi\AppData\Local\Temp\cchP1ZsS.s:3106   .text.hostapd_setup_sae_pt:00000000000000c6 .L0 
C:\Users\stapi\AppData\Local\Temp\cchP1ZsS.s:3108   .text.hostapd_setup_sae_pt:00000000000000ca .L0 
C:\Users\stapi\AppData\Local\Temp\cchP1ZsS.s:3109   .text.hostapd_setup_sae_pt:00000000000000ca .L0 
C:\Users\stapi\AppData\Local\Temp\cchP1ZsS.s:3112   .text.hostapd_setup_sae_pt:00000000000000cc .L0 
C:\Users\stapi\AppData\Local\Temp\cchP1ZsS.s:3116   .text.hostapd_setup_sae_pt:00000000000000d0 .L0 
C:\Users\stapi\AppData\Local\Temp\cchP1ZsS.s:3184   .text.hostapd_setup_wpa_psk:0000000000000000 hostapd_setup_wpa_psk
C:\Users\stapi\AppData\Local\Temp\cchP1ZsS.s:3187   .text.hostapd_setup_wpa_psk:0000000000000000 .L0 
C:\Users\stapi\AppData\Local\Temp\cchP1ZsS.s:3189   .text.hostapd_setup_wpa_psk:0000000000000000 .L0 
C:\Users\stapi\AppData\Local\Temp\cchP1ZsS.s:3190   .text.hostapd_setup_wpa_psk:0000000000000008 .L0 
C:\Users\stapi\AppData\Local\Temp\cchP1ZsS.s:3191   .text.hostapd_setup_wpa_psk:0000000000000008 .L0 
C:\Users\stapi\AppData\Local\Temp\cchP1ZsS.s:3192   .text.hostapd_setup_wpa_psk:0000000000000008 .L0 
C:\Users\stapi\AppData\Local\Temp\cchP1ZsS.s:3193   .text.hostapd_setup_wpa_psk:0000000000000008 .L0 
C:\Users\stapi\AppData\Local\Temp\cchP1ZsS.s:3194   .text.hostapd_setup_wpa_psk:0000000000000008 .L0 
C:\Users\stapi\AppData\Local\Temp\cchP1ZsS.s:3195   .text.hostapd_setup_wpa_psk:0000000000000008 .L0 
C:\Users\stapi\AppData\Local\Temp\cchP1ZsS.s:3196   .text.hostapd_setup_wpa_psk:0000000000000008 .L0 
C:\Users\stapi\AppData\Local\Temp\cchP1ZsS.s:3197   .text.hostapd_setup_wpa_psk:0000000000000008 .L0 
C:\Users\stapi\AppData\Local\Temp\cchP1ZsS.s:3198   .text.hostapd_setup_wpa_psk:0000000000000008 .L0 
C:\Users\stapi\AppData\Local\Temp\cchP1ZsS.s:3199   .text.hostapd_setup_wpa_psk:0000000000000008 .L0 
C:\Users\stapi\AppData\Local\Temp\cchP1ZsS.s:3200   .text.hostapd_setup_wpa_psk:0000000000000008 .L0 
C:\Users\stapi\AppData\Local\Temp\cchP1ZsS.s:3201   .text.hostapd_setup_wpa_psk:0000000000000008 .L0 
C:\Users\stapi\AppData\Local\Temp\cchP1ZsS.s:3202   .text.hostapd_setup_wpa_psk:0000000000000008 .L0 
C:\Users\stapi\AppData\Local\Temp\cchP1ZsS.s:3203   .text.hostapd_setup_wpa_psk:0000000000000008 .L0 
C:\Users\stapi\AppData\Local\Temp\cchP1ZsS.s:3205   .text.hostapd_setup_wpa_psk:0000000000000008 .L0 
C:\Users\stapi\AppData\Local\Temp\cchP1ZsS.s:3206   .text.hostapd_setup_wpa_psk:0000000000000008 .L0 
C:\Users\stapi\AppData\Local\Temp\cchP1ZsS.s:3207   .text.hostapd_setup_wpa_psk:000000000000000a .L0 
C:\Users\stapi\AppData\Local\Temp\cchP1ZsS.s:3209   .text.hostapd_setup_wpa_psk:000000000000000a .L0 
C:\Users\stapi\AppData\Local\Temp\cchP1ZsS.s:3211   .text.hostapd_setup_wpa_psk:000000000000000c .L0 
C:\Users\stapi\AppData\Local\Temp\cchP1ZsS.s:3214   .text.hostapd_setup_wpa_psk:0000000000000010 .L0 
C:\Users\stapi\AppData\Local\Temp\cchP1ZsS.s:3215   .text.hostapd_setup_wpa_psk:0000000000000010 .L0 
C:\Users\stapi\AppData\Local\Temp\cchP1ZsS.s:3218   .text.hostapd_setup_wpa_psk:0000000000000018 .L0 
C:\Users\stapi\AppData\Local\Temp\cchP1ZsS.s:3220   .text.hostapd_setup_wpa_psk:000000000000001c .L0 
C:\Users\stapi\AppData\Local\Temp\cchP1ZsS.s:3221   .text.hostapd_setup_wpa_psk:000000000000001c .L0 
C:\Users\stapi\AppData\Local\Temp\cchP1ZsS.s:3224   .text.hostapd_setup_wpa_psk:0000000000000022 .L0 
C:\Users\stapi\AppData\Local\Temp\cchP1ZsS.s:3225   .text.hostapd_setup_wpa_psk:0000000000000022 .L0 
C:\Users\stapi\AppData\Local\Temp\cchP1ZsS.s:3228   .text.hostapd_setup_wpa_psk:0000000000000028 .L0 
C:\Users\stapi\AppData\Local\Temp\cchP1ZsS.s:3235   .text.hostapd_setup_wpa_psk:000000000000003a .L0 
C:\Users\stapi\AppData\Local\Temp\cchP1ZsS.s:3236   .text.hostapd_setup_wpa_psk:000000000000003a .L0 
C:\Users\stapi\AppData\Local\Temp\cchP1ZsS.s:3241   .text.hostapd_setup_wpa_psk:0000000000000042 .L0 
C:\Users\stapi\AppData\Local\Temp\cchP1ZsS.s:3242   .text.hostapd_setup_wpa_psk:0000000000000042 .L0 
C:\Users\stapi\AppData\Local\Temp\cchP1ZsS.s:3247   .text.hostapd_setup_wpa_psk:0000000000000046 .L0 
C:\Users\stapi\AppData\Local\Temp\cchP1ZsS.s:3248   .text.hostapd_setup_wpa_psk:0000000000000046 .L0 
C:\Users\stapi\AppData\Local\Temp\cchP1ZsS.s:3249   .text.hostapd_setup_wpa_psk:0000000000000046 .L0 
C:\Users\stapi\AppData\Local\Temp\cchP1ZsS.s:3250   .text.hostapd_setup_wpa_psk:0000000000000046 .L0 
C:\Users\stapi\AppData\Local\Temp\cchP1ZsS.s:3251   .text.hostapd_setup_wpa_psk:0000000000000046 .L0 
C:\Users\stapi\AppData\Local\Temp\cchP1ZsS.s:3252   .text.hostapd_setup_wpa_psk:0000000000000046 .L0 
C:\Users\stapi\AppData\Local\Temp\cchP1ZsS.s:3253   .text.hostapd_setup_wpa_psk:0000000000000046 .L0 
C:\Users\stapi\AppData\Local\Temp\cchP1ZsS.s:3254   .text.hostapd_setup_wpa_psk:0000000000000046 .L0 
C:\Users\stapi\AppData\Local\Temp\cchP1ZsS.s:3255   .text.hostapd_setup_wpa_psk:0000000000000046 .L0 
C:\Users\stapi\AppData\Local\Temp\cchP1ZsS.s:3256   .text.hostapd_setup_wpa_psk:0000000000000046 .L0 
C:\Users\stapi\AppData\Local\Temp\cchP1ZsS.s:3257   .text.hostapd_setup_wpa_psk:0000000000000046 .L0 
C:\Users\stapi\AppData\Local\Temp\cchP1ZsS.s:3258   .text.hostapd_setup_wpa_psk:0000000000000046 .L0 
C:\Users\stapi\AppData\Local\Temp\cchP1ZsS.s:3259   .text.hostapd_setup_wpa_psk:0000000000000046 .L0 
C:\Users\stapi\AppData\Local\Temp\cchP1ZsS.s:3261   .text.hostapd_setup_wpa_psk:0000000000000048 .L0 
C:\Users\stapi\AppData\Local\Temp\cchP1ZsS.s:3263   .text.hostapd_setup_wpa_psk:000000000000004c .L0 
C:\Users\stapi\AppData\Local\Temp\cchP1ZsS.s:3264   .text.hostapd_setup_wpa_psk:000000000000004c .L0 
C:\Users\stapi\AppData\Local\Temp\cchP1ZsS.s:3272   .text.hostapd_setup_wpa_psk:0000000000000060 .L0 
C:\Users\stapi\AppData\Local\Temp\cchP1ZsS.s:3273   .text.hostapd_setup_wpa_psk:0000000000000060 .L0 
C:\Users\stapi\AppData\Local\Temp\cchP1ZsS.s:3276   .text.hostapd_setup_wpa_psk:0000000000000062 .L0 
C:\Users\stapi\AppData\Local\Temp\cchP1ZsS.s:3281   .text.hostapd_setup_wpa_psk:0000000000000066 .L0 
C:\Users\stapi\AppData\Local\Temp\cchP1ZsS.s:3282   .text.hostapd_setup_wpa_psk:0000000000000066 .L0 
C:\Users\stapi\AppData\Local\Temp\cchP1ZsS.s:3288   .text.hostapd_setup_wpa_psk:0000000000000076 .L0 
C:\Users\stapi\AppData\Local\Temp\cchP1ZsS.s:3297   .text.hostapd_setup_wpa_psk:000000000000007c .L0 
C:\Users\stapi\AppData\Local\Temp\cchP1ZsS.s:3305   .text.hostapd_setup_wpa_psk:000000000000008e .L0 
C:\Users\stapi\AppData\Local\Temp\cchP1ZsS.s:3306   .text.hostapd_setup_wpa_psk:000000000000008e .L0 
C:\Users\stapi\AppData\Local\Temp\cchP1ZsS.s:3307   .text.hostapd_setup_wpa_psk:000000000000008e .L0 
C:\Users\stapi\AppData\Local\Temp\cchP1ZsS.s:3311   .text.hostapd_setup_wpa_psk:000000000000009a .L0 
C:\Users\stapi\AppData\Local\Temp\cchP1ZsS.s:3313   .text.hostapd_setup_wpa_psk:000000000000009e .L0 
C:\Users\stapi\AppData\Local\Temp\cchP1ZsS.s:3314   .text.hostapd_setup_wpa_psk:000000000000009e .L0 
C:\Users\stapi\AppData\Local\Temp\cchP1ZsS.s:3316   .text.hostapd_setup_wpa_psk:00000000000000a0 .L0 
C:\Users\stapi\AppData\Local\Temp\cchP1ZsS.s:3325   .text.hostapd_setup_wpa_psk:00000000000000b2 .L0 
C:\Users\stapi\AppData\Local\Temp\cchP1ZsS.s:3326   .text.hostapd_setup_wpa_psk:00000000000000b2 .L0 
C:\Users\stapi\AppData\Local\Temp\cchP1ZsS.s:3333   .text.hostapd_setup_wpa_psk:00000000000000b6 .L0 
C:\Users\stapi\AppData\Local\Temp\cchP1ZsS.s:3342   .text.hostapd_setup_wpa_psk:00000000000000d0 .L0 
C:\Users\stapi\AppData\Local\Temp\cchP1ZsS.s:3343   .text.hostapd_setup_wpa_psk:00000000000000d0 .L0 
C:\Users\stapi\AppData\Local\Temp\cchP1ZsS.s:3345   .text.hostapd_setup_wpa_psk:00000000000000d2 .L0 
C:\Users\stapi\AppData\Local\Temp\cchP1ZsS.s:3357   .text.hostapd_setup_wpa_psk:00000000000000f4 .L0 
C:\Users\stapi\AppData\Local\Temp\cchP1ZsS.s:3358   .text.hostapd_setup_wpa_psk:00000000000000f4 .L0 
C:\Users\stapi\AppData\Local\Temp\cchP1ZsS.s:3360   .text.hostapd_setup_wpa_psk:00000000000000f6 .L0 
C:\Users\stapi\AppData\Local\Temp\cchP1ZsS.s:3369   .text.hostapd_setup_wpa_psk:000000000000010e .L0 
C:\Users\stapi\AppData\Local\Temp\cchP1ZsS.s:3370   .text.hostapd_setup_wpa_psk:000000000000010e .L0 
C:\Users\stapi\AppData\Local\Temp\cchP1ZsS.s:3372   .text.hostapd_setup_wpa_psk:0000000000000110 .L0 
C:\Users\stapi\AppData\Local\Temp\cchP1ZsS.s:3380   .text.hostapd_setup_wpa_psk:000000000000012a .L0 
C:\Users\stapi\AppData\Local\Temp\cchP1ZsS.s:3388   .text.hostapd_setup_wpa_psk:000000000000012c .L0 
C:\Users\stapi\AppData\Local\Temp\cchP1ZsS.s:3396   .text.hostapd_setup_wpa_psk:0000000000000140 .L0 
C:\Users\stapi\AppData\Local\Temp\cchP1ZsS.s:3401   .text.hostapd_setup_wpa_psk:0000000000000142 .L0 
C:\Users\stapi\AppData\Local\Temp\cchP1ZsS.s:3402   .text.hostapd_setup_wpa_psk:0000000000000142 .L0 
C:\Users\stapi\AppData\Local\Temp\cchP1ZsS.s:3403   .text.hostapd_setup_wpa_psk:0000000000000142 .L0 
C:\Users\stapi\AppData\Local\Temp\cchP1ZsS.s:3404   .text.hostapd_setup_wpa_psk:0000000000000142 .L0 
C:\Users\stapi\AppData\Local\Temp\cchP1ZsS.s:3406   .text.hostapd_setup_wpa_psk:0000000000000146 .L0 
C:\Users\stapi\AppData\Local\Temp\cchP1ZsS.s:3409   .text.hostapd_setup_wpa_psk:0000000000000148 .L0 
C:\Users\stapi\AppData\Local\Temp\cchP1ZsS.s:3410   .text.hostapd_setup_wpa_psk:0000000000000148 .L0 
C:\Users\stapi\AppData\Local\Temp\cchP1ZsS.s:3412   .text.hostapd_setup_wpa_psk:000000000000014a .L0 
C:\Users\stapi\AppData\Local\Temp\cchP1ZsS.s:3414   .text.hostapd_setup_wpa_psk:000000000000014c .L0 
C:\Users\stapi\AppData\Local\Temp\cchP1ZsS.s:3419   .text.hostapd_setup_wpa_psk:0000000000000154 .L0 
C:\Users\stapi\AppData\Local\Temp\cchP1ZsS.s:3420   .text.hostapd_setup_wpa_psk:0000000000000154 .L0 
C:\Users\stapi\AppData\Local\Temp\cchP1ZsS.s:3422   .text.hostapd_setup_wpa_psk:0000000000000158 .L0 
C:\Users\stapi\AppData\Local\Temp\cchP1ZsS.s:3424   .text.hostapd_setup_wpa_psk:000000000000015a .L0 
C:\Users\stapi\AppData\Local\Temp\cchP1ZsS.s:3425   .text.hostapd_setup_wpa_psk:000000000000015a .L0 
C:\Users\stapi\AppData\Local\Temp\cchP1ZsS.s:3427   .text.hostapd_setup_wpa_psk:000000000000015e .L0 
C:\Users\stapi\AppData\Local\Temp\cchP1ZsS.s:3428   .text.hostapd_setup_wpa_psk:000000000000015e .L0 
C:\Users\stapi\AppData\Local\Temp\cchP1ZsS.s:3431   .text.hostapd_setup_wpa_psk:0000000000000162 .L0 
C:\Users\stapi\AppData\Local\Temp\cchP1ZsS.s:3432   .text.hostapd_setup_wpa_psk:0000000000000162 .L0 
C:\Users\stapi\AppData\Local\Temp\cchP1ZsS.s:3433   .text.hostapd_setup_wpa_psk:0000000000000162 .L0 
C:\Users\stapi\AppData\Local\Temp\cchP1ZsS.s:3437   .text.hostapd_setup_wpa_psk:0000000000000168 .L0 
C:\Users\stapi\AppData\Local\Temp\cchP1ZsS.s:3438   .text.hostapd_setup_wpa_psk:0000000000000168 .L0 
C:\Users\stapi\AppData\Local\Temp\cchP1ZsS.s:3441   .text.hostapd_setup_wpa_psk:000000000000016a .L0 
C:\Users\stapi\AppData\Local\Temp\cchP1ZsS.s:3442   .text.hostapd_setup_wpa_psk:000000000000016a .L0 
C:\Users\stapi\AppData\Local\Temp\cchP1ZsS.s:3443   .text.hostapd_setup_wpa_psk:000000000000016a .L0 
C:\Users\stapi\AppData\Local\Temp\cchP1ZsS.s:3445   .text.hostapd_setup_wpa_psk:000000000000016c .L0 
C:\Users\stapi\AppData\Local\Temp\cchP1ZsS.s:3447   .text.hostapd_setup_wpa_psk:000000000000016e .L0 
C:\Users\stapi\AppData\Local\Temp\cchP1ZsS.s:3449   .text.hostapd_setup_wpa_psk:0000000000000170 .L0 
C:\Users\stapi\AppData\Local\Temp\cchP1ZsS.s:3453   .text.hostapd_setup_wpa_psk:0000000000000174 .L0 
C:\Users\stapi\AppData\Local\Temp\cchP1ZsS.s:3454   .text.hostapd_setup_wpa_psk:0000000000000174 .L0 
C:\Users\stapi\AppData\Local\Temp\cchP1ZsS.s:3463   .text.hostapd_setup_wpa_psk:000000000000018a .L0 
C:\Users\stapi\AppData\Local\Temp\cchP1ZsS.s:3465   .text.hostapd_setup_wpa_psk:000000000000018c .L0 
C:\Users\stapi\AppData\Local\Temp\cchP1ZsS.s:3469   .text.hostapd_setup_wpa_psk:0000000000000190 .L0 
C:\Users\stapi\AppData\Local\Temp\cchP1ZsS.s:3470   .text.hostapd_setup_wpa_psk:0000000000000190 .L0 
C:\Users\stapi\AppData\Local\Temp\cchP1ZsS.s:3475   .text.hostapd_setup_wpa_psk:000000000000019c .L0 
C:\Users\stapi\AppData\Local\Temp\cchP1ZsS.s:3477   .text.hostapd_setup_wpa_psk:000000000000019e .L0 
C:\Users\stapi\AppData\Local\Temp\cchP1ZsS.s:3489   .text.hostapd_setup_wpa_psk:00000000000001b8 .L0 
C:\Users\stapi\AppData\Local\Temp\cchP1ZsS.s:3490   .text.hostapd_setup_wpa_psk:00000000000001b8 .L0 
C:\Users\stapi\AppData\Local\Temp\cchP1ZsS.s:3496   .text.hostapd_setup_wpa_psk:00000000000001bc .L0 
C:\Users\stapi\AppData\Local\Temp\cchP1ZsS.s:3497   .text.hostapd_setup_wpa_psk:00000000000001bc .L0 
C:\Users\stapi\AppData\Local\Temp\cchP1ZsS.s:3501   .text.hostapd_setup_wpa_psk:00000000000001c8 .L0 
C:\Users\stapi\AppData\Local\Temp\cchP1ZsS.s:3503   .text.hostapd_setup_wpa_psk:00000000000001ca .L0 
C:\Users\stapi\AppData\Local\Temp\cchP1ZsS.s:3504   .text.hostapd_setup_wpa_psk:00000000000001ca .L0 
C:\Users\stapi\AppData\Local\Temp\cchP1ZsS.s:3509   .text.hostapd_setup_wpa_psk:00000000000001d6 .L0 
C:\Users\stapi\AppData\Local\Temp\cchP1ZsS.s:3511   .text.hostapd_setup_wpa_psk:00000000000001d8 .L0 
C:\Users\stapi\AppData\Local\Temp\cchP1ZsS.s:3512   .text.hostapd_setup_wpa_psk:00000000000001d8 .L0 
C:\Users\stapi\AppData\Local\Temp\cchP1ZsS.s:3517   .text.hostapd_setup_wpa_psk:00000000000001e2 .L0 
C:\Users\stapi\AppData\Local\Temp\cchP1ZsS.s:3518   .text.hostapd_setup_wpa_psk:00000000000001e2 .L0 
C:\Users\stapi\AppData\Local\Temp\cchP1ZsS.s:3520   .text.hostapd_setup_wpa_psk:00000000000001e4 .L0 
C:\Users\stapi\AppData\Local\Temp\cchP1ZsS.s:3521   .text.hostapd_setup_wpa_psk:00000000000001e4 .L0 
C:\Users\stapi\AppData\Local\Temp\cchP1ZsS.s:3530   .text.hostapd_setup_wpa_psk:00000000000001f6 .L0 
C:\Users\stapi\AppData\Local\Temp\cchP1ZsS.s:3531   .text.hostapd_setup_wpa_psk:00000000000001f6 .L0 
C:\Users\stapi\AppData\Local\Temp\cchP1ZsS.s:3533   .text.hostapd_setup_wpa_psk:00000000000001f8 .L0 
C:\Users\stapi\AppData\Local\Temp\cchP1ZsS.s:3537   .text.hostapd_setup_wpa_psk:00000000000001fc .L0 
C:\Users\stapi\AppData\Local\Temp\cchP1ZsS.s:3538   .text.hostapd_setup_wpa_psk:00000000000001fc .L0 
C:\Users\stapi\AppData\Local\Temp\cchP1ZsS.s:3544   .text.hostapd_setup_wpa_psk:000000000000020e .L0 
C:\Users\stapi\AppData\Local\Temp\cchP1ZsS.s:3546   .text.hostapd_setup_wpa_psk:0000000000000210 .L0 
C:\Users\stapi\AppData\Local\Temp\cchP1ZsS.s:3547   .text.hostapd_setup_wpa_psk:0000000000000210 .L0 
C:\Users\stapi\AppData\Local\Temp\cchP1ZsS.s:3552   .text.hostapd_setup_wpa_psk:000000000000021e .L0 
C:\Users\stapi\AppData\Local\Temp\cchP1ZsS.s:3554   .text.hostapd_setup_wpa_psk:0000000000000220 .L0 
C:\Users\stapi\AppData\Local\Temp\cchP1ZsS.s:3555   .text.hostapd_setup_wpa_psk:0000000000000220 .L0 
C:\Users\stapi\AppData\Local\Temp\cchP1ZsS.s:3564   .text.hostapd_setup_wpa_psk:000000000000022e .L0 
C:\Users\stapi\AppData\Local\Temp\cchP1ZsS.s:3565   .text.hostapd_setup_wpa_psk:000000000000022e .L0 
C:\Users\stapi\AppData\Local\Temp\cchP1ZsS.s:3571   .text.hostapd_setup_wpa_psk:0000000000000240 .L0 
C:\Users\stapi\AppData\Local\Temp\cchP1ZsS.s:3573   .text.hostapd_setup_wpa_psk:0000000000000242 .L0 
C:\Users\stapi\AppData\Local\Temp\cchP1ZsS.s:3574   .text.hostapd_setup_wpa_psk:0000000000000242 .L0 
C:\Users\stapi\AppData\Local\Temp\cchP1ZsS.s:3583   .text.hostapd_setup_wpa_psk:0000000000000250 .L0 
C:\Users\stapi\AppData\Local\Temp\cchP1ZsS.s:3593   .text.hostapd_setup_wpa_psk:000000000000026a .L0 
C:\Users\stapi\AppData\Local\Temp\cchP1ZsS.s:3594   .text.hostapd_setup_wpa_psk:000000000000026a .L0 
C:\Users\stapi\AppData\Local\Temp\cchP1ZsS.s:3596   .text.hostapd_setup_wpa_psk:000000000000026a .L0 
C:\Users\stapi\AppData\Local\Temp\cchP1ZsS.s:3597   .text.hostapd_setup_wpa_psk:000000000000026a .L0 
C:\Users\stapi\AppData\Local\Temp\cchP1ZsS.s:3598   .text.hostapd_setup_wpa_psk:000000000000026a .L0 
C:\Users\stapi\AppData\Local\Temp\cchP1ZsS.s:3599   .text.hostapd_setup_wpa_psk:000000000000026a .L0 
C:\Users\stapi\AppData\Local\Temp\cchP1ZsS.s:3604   .text.hostapd_setup_wpa_psk:000000000000026c .L0 
C:\Users\stapi\AppData\Local\Temp\cchP1ZsS.s:3611   .text.hostapd_setup_wpa_psk:0000000000000276 .L0 
C:\Users\stapi\AppData\Local\Temp\cchP1ZsS.s:3612   .text.hostapd_setup_wpa_psk:0000000000000276 .L0 
C:\Users\stapi\AppData\Local\Temp\cchP1ZsS.s:3614   .text.hostapd_setup_wpa_psk:000000000000027a .L0 
C:\Users\stapi\AppData\Local\Temp\cchP1ZsS.s:3615   .text.hostapd_setup_wpa_psk:000000000000027a .L0 
C:\Users\stapi\AppData\Local\Temp\cchP1ZsS.s:3617   .text.hostapd_setup_wpa_psk:0000000000000282 .L0 
C:\Users\stapi\AppData\Local\Temp\cchP1ZsS.s:3618   .text.hostapd_setup_wpa_psk:0000000000000282 .L0 
C:\Users\stapi\AppData\Local\Temp\cchP1ZsS.s:3619   .text.hostapd_setup_wpa_psk:0000000000000282 .L0 
C:\Users\stapi\AppData\Local\Temp\cchP1ZsS.s:3620   .text.hostapd_setup_wpa_psk:0000000000000282 .L0 
C:\Users\stapi\AppData\Local\Temp\cchP1ZsS.s:3621   .text.hostapd_setup_wpa_psk:0000000000000282 .L0 
C:\Users\stapi\AppData\Local\Temp\cchP1ZsS.s:3622   .text.hostapd_setup_wpa_psk:0000000000000282 .L0 
C:\Users\stapi\AppData\Local\Temp\cchP1ZsS.s:3623   .text.hostapd_setup_wpa_psk:0000000000000282 .L0 
C:\Users\stapi\AppData\Local\Temp\cchP1ZsS.s:3624   .text.hostapd_setup_wpa_psk:0000000000000282 .L0 
C:\Users\stapi\AppData\Local\Temp\cchP1ZsS.s:3625   .text.hostapd_setup_wpa_psk:0000000000000282 .L0 
C:\Users\stapi\AppData\Local\Temp\cchP1ZsS.s:3626   .text.hostapd_setup_wpa_psk:0000000000000282 .L0 
C:\Users\stapi\AppData\Local\Temp\cchP1ZsS.s:3627   .text.hostapd_setup_wpa_psk:0000000000000282 .L0 
C:\Users\stapi\AppData\Local\Temp\cchP1ZsS.s:3628   .text.hostapd_setup_wpa_psk:0000000000000282 .L0 
C:\Users\stapi\AppData\Local\Temp\cchP1ZsS.s:3629   .text.hostapd_setup_wpa_psk:0000000000000282 .L0 
C:\Users\stapi\AppData\Local\Temp\cchP1ZsS.s:3630   .text.hostapd_setup_wpa_psk:0000000000000282 .L0 
C:\Users\stapi\AppData\Local\Temp\cchP1ZsS.s:3633   .text.hostapd_setup_wpa_psk:0000000000000282 .L0 
C:\Users\stapi\AppData\Local\Temp\cchP1ZsS.s:3643   .text.hostapd_setup_wpa_psk:0000000000000286 .L0 
C:\Users\stapi\AppData\Local\Temp\cchP1ZsS.s:3644   .text.hostapd_setup_wpa_psk:0000000000000286 .L0 
C:\Users\stapi\AppData\Local\Temp\cchP1ZsS.s:3650   .text.hostapd_setup_wpa_psk:0000000000000294 .L0 
C:\Users\stapi\AppData\Local\Temp\cchP1ZsS.s:3651   .text.hostapd_setup_wpa_psk:0000000000000294 .L0 
C:\Users\stapi\AppData\Local\Temp\cchP1ZsS.s:3653   .text.hostapd_setup_wpa_psk:0000000000000296 .L0 
C:\Users\stapi\AppData\Local\Temp\cchP1ZsS.s:3660   .text.hostapd_setup_wpa_psk:00000000000002a8 .L0 
C:\Users\stapi\AppData\Local\Temp\cchP1ZsS.s:3661   .text.hostapd_setup_wpa_psk:00000000000002a8 .L0 
C:\Users\stapi\AppData\Local\Temp\cchP1ZsS.s:3665   .text.hostapd_setup_wpa_psk:00000000000002aa .L0 
C:\Users\stapi\AppData\Local\Temp\cchP1ZsS.s:3666   .text.hostapd_setup_wpa_psk:00000000000002aa .L0 
C:\Users\stapi\AppData\Local\Temp\cchP1ZsS.s:3668   .text.hostapd_setup_wpa_psk:00000000000002ae .L0 
C:\Users\stapi\AppData\Local\Temp\cchP1ZsS.s:3669   .text.hostapd_setup_wpa_psk:00000000000002ae .L0 
C:\Users\stapi\AppData\Local\Temp\cchP1ZsS.s:3674   .text.hostapd_setup_wpa_psk:00000000000002b8 .L0 
C:\Users\stapi\AppData\Local\Temp\cchP1ZsS.s:3676   .text.hostapd_setup_wpa_psk:00000000000002ba .L0 
C:\Users\stapi\AppData\Local\Temp\cchP1ZsS.s:3677   .text.hostapd_setup_wpa_psk:00000000000002ba .L0 
C:\Users\stapi\AppData\Local\Temp\cchP1ZsS.s:3681   .text.hostapd_setup_wpa_psk:00000000000002c0 .L0 
C:\Users\stapi\AppData\Local\Temp\cchP1ZsS.s:3682   .text.hostapd_setup_wpa_psk:00000000000002c0 .L0 
C:\Users\stapi\AppData\Local\Temp\cchP1ZsS.s:3690   .text.hostapd_setup_wpa_psk:00000000000002d2 .L0 
C:\Users\stapi\AppData\Local\Temp\cchP1ZsS.s:3691   .text.hostapd_setup_wpa_psk:00000000000002d2 .L0 
C:\Users\stapi\AppData\Local\Temp\cchP1ZsS.s:3693   .text.hostapd_setup_wpa_psk:00000000000002d4 .L0 
C:\Users\stapi\AppData\Local\Temp\cchP1ZsS.s:3700   .text.hostapd_setup_wpa_psk:00000000000002e0 .L0 
C:\Users\stapi\AppData\Local\Temp\cchP1ZsS.s:3707   .text.hostapd_setup_wpa_psk:00000000000002ec .L0 
C:\Users\stapi\AppData\Local\Temp\cchP1ZsS.s:3716   .text.hostapd_setup_wpa_psk:00000000000002fe .L0 
C:\Users\stapi\AppData\Local\Temp\cchP1ZsS.s:3717   .text.hostapd_setup_wpa_psk:00000000000002fe .L0 
C:\Users\stapi\AppData\Local\Temp\cchP1ZsS.s:3718   .text.hostapd_setup_wpa_psk:00000000000002fe .L0 
C:\Users\stapi\AppData\Local\Temp\cchP1ZsS.s:3721   .text.hostapd_setup_wpa_psk:0000000000000306 .L0 
C:\Users\stapi\AppData\Local\Temp\cchP1ZsS.s:3722   .text.hostapd_setup_wpa_psk:0000000000000306 .L0 
C:\Users\stapi\AppData\Local\Temp\cchP1ZsS.s:3725   .text.hostapd_setup_wpa_psk:000000000000030e .L0 
C:\Users\stapi\AppData\Local\Temp\cchP1ZsS.s:3733   .text.hostapd_setup_wpa_psk:0000000000000320 .L0 
C:\Users\stapi\AppData\Local\Temp\cchP1ZsS.s:3737   .text.hostapd_setup_wpa_psk:0000000000000322 .L0 
C:\Users\stapi\AppData\Local\Temp\cchP1ZsS.s:3747   .text.hostapd_setup_wpa_psk:000000000000033a .L0 
C:\Users\stapi\AppData\Local\Temp\cchP1ZsS.s:3748   .text.hostapd_setup_wpa_psk:000000000000033a .L0 
C:\Users\stapi\AppData\Local\Temp\cchP1ZsS.s:3752   .text.hostapd_setup_wpa_psk:0000000000000344 .L0 
C:\Users\stapi\AppData\Local\Temp\cchP1ZsS.s:3753   .text.hostapd_setup_wpa_psk:0000000000000344 .L0 
C:\Users\stapi\AppData\Local\Temp\cchP1ZsS.s:3757   .text.hostapd_setup_wpa_psk:0000000000000346 .L0 
C:\Users\stapi\AppData\Local\Temp\cchP1ZsS.s:3758   .text.hostapd_setup_wpa_psk:0000000000000346 .L0 
C:\Users\stapi\AppData\Local\Temp\cchP1ZsS.s:3761   .text.hostapd_setup_wpa_psk:0000000000000348 .L0 
C:\Users\stapi\AppData\Local\Temp\cchP1ZsS.s:3764   .text.hostapd_setup_wpa_psk:0000000000000350 .L0 
C:\Users\stapi\AppData\Local\Temp\cchP1ZsS.s:3777   .text.hostapd_setup_wpa_psk:000000000000036c .L0 
C:\Users\stapi\AppData\Local\Temp\cchP1ZsS.s:3778   .text.hostapd_setup_wpa_psk:000000000000036c .L0 
C:\Users\stapi\AppData\Local\Temp\cchP1ZsS.s:3780   .text.hostapd_setup_wpa_psk:0000000000000370 .L0 
C:\Users\stapi\AppData\Local\Temp\cchP1ZsS.s:3781   .text.hostapd_setup_wpa_psk:0000000000000370 .L0 
C:\Users\stapi\AppData\Local\Temp\cchP1ZsS.s:3787   .text.hostapd_setup_wpa_psk:0000000000000382 .L0 
C:\Users\stapi\AppData\Local\Temp\cchP1ZsS.s:3788   .text.hostapd_setup_wpa_psk:0000000000000382 .L0 
C:\Users\stapi\AppData\Local\Temp\cchP1ZsS.s:3791   .text.hostapd_setup_wpa_psk:0000000000000388 .L0 
C:\Users\stapi\AppData\Local\Temp\cchP1ZsS.s:3799   .text.hostapd_setup_wpa_psk:0000000000000396 .L0 
C:\Users\stapi\AppData\Local\Temp\cchP1ZsS.s:3800   .text.hostapd_setup_wpa_psk:0000000000000396 .L0 
C:\Users\stapi\AppData\Local\Temp\cchP1ZsS.s:3802   .text.hostapd_setup_wpa_psk:000000000000039a .L0 
C:\Users\stapi\AppData\Local\Temp\cchP1ZsS.s:3804   .text.hostapd_setup_wpa_psk:000000000000039e .L0 
C:\Users\stapi\AppData\Local\Temp\cchP1ZsS.s:3805   .text.hostapd_setup_wpa_psk:000000000000039e .L0 
C:\Users\stapi\AppData\Local\Temp\cchP1ZsS.s:3807   .text.hostapd_setup_wpa_psk:00000000000003a2 .L0 
C:\Users\stapi\AppData\Local\Temp\cchP1ZsS.s:3808   .text.hostapd_setup_wpa_psk:00000000000003a2 .L0 
C:\Users\stapi\AppData\Local\Temp\cchP1ZsS.s:3813   .text.hostapd_setup_wpa_psk:00000000000003a8 .L0 
C:\Users\stapi\AppData\Local\Temp\cchP1ZsS.s:3820   .text.hostapd_sae_pk_in_use:0000000000000000 hostapd_sae_pk_in_use
C:\Users\stapi\AppData\Local\Temp\cchP1ZsS.s:3823   .text.hostapd_sae_pk_in_use:0000000000000000 .L0 
C:\Users\stapi\AppData\Local\Temp\cchP1ZsS.s:3825   .text.hostapd_sae_pk_in_use:0000000000000000 .L0 
C:\Users\stapi\AppData\Local\Temp\cchP1ZsS.s:3826   .text.hostapd_sae_pk_in_use:0000000000000000 .L0 
C:\Users\stapi\AppData\Local\Temp\cchP1ZsS.s:3827   .text.hostapd_sae_pk_in_use:0000000000000000 .L0 
C:\Users\stapi\AppData\Local\Temp\cchP1ZsS.s:3830   .text.hostapd_sae_pk_in_use:0000000000000004 .L0 
C:\Users\stapi\AppData\Local\Temp\cchP1ZsS.s:3835   .rodata.ac_be.1:0000000000000000 .LANCHOR0
C:\Users\stapi\AppData\Local\Temp\cchP1ZsS.s:3838   .rodata.ac_be.1:0000000000000000 ac_be.1
C:\Users\stapi\AppData\Local\Temp\cchP1ZsS.s:3846   .rodata.ac_bk.0:0000000000000000 .LANCHOR1
C:\Users\stapi\AppData\Local\Temp\cchP1ZsS.s:3849   .rodata.ac_bk.0:0000000000000000 ac_bk.0
C:\Users\stapi\AppData\Local\Temp\cchP1ZsS.s:3857   .rodata.ac_vi.2:0000000000000000 .LANCHOR2
C:\Users\stapi\AppData\Local\Temp\cchP1ZsS.s:3860   .rodata.ac_vi.2:0000000000000000 ac_vi.2
C:\Users\stapi\AppData\Local\Temp\cchP1ZsS.s:3868   .rodata.ac_vo.3:0000000000000000 .LANCHOR3
C:\Users\stapi\AppData\Local\Temp\cchP1ZsS.s:3871   .rodata.ac_vo.3:0000000000000000 ac_vo.3
C:\Users\stapi\AppData\Local\Temp\cchP1ZsS.s:3879   .rodata.txq_be.5:0000000000000000 .LANCHOR6
C:\Users\stapi\AppData\Local\Temp\cchP1ZsS.s:3882   .rodata.txq_be.5:0000000000000000 txq_be.5
C:\Users\stapi\AppData\Local\Temp\cchP1ZsS.s:3889   .rodata.txq_bk.4:0000000000000000 .LANCHOR7
C:\Users\stapi\AppData\Local\Temp\cchP1ZsS.s:3892   .rodata.txq_bk.4:0000000000000000 txq_bk.4
C:\Users\stapi\AppData\Local\Temp\cchP1ZsS.s:3899   .rodata.txq_vi.6:0000000000000000 .LANCHOR5
C:\Users\stapi\AppData\Local\Temp\cchP1ZsS.s:3902   .rodata.txq_vi.6:0000000000000000 txq_vi.6
C:\Users\stapi\AppData\Local\Temp\cchP1ZsS.s:3909   .rodata.txq_vo.7:0000000000000000 .LANCHOR4
C:\Users\stapi\AppData\Local\Temp\cchP1ZsS.s:3912   .rodata.txq_vo.7:0000000000000000 txq_vo.7
C:\Users\stapi\AppData\Local\Temp\cchP1ZsS.s:39     .text.is_zero_ether_addr:000000000000002c .L0 
C:\Users\stapi\AppData\Local\Temp\cchP1ZsS.s:98     .text.hostapd_config_free_radius:000000000000003c .L0 
C:\Users\stapi\AppData\Local\Temp\cchP1ZsS.s:293    .text.hostapd_config_defaults_bss:00000000000000d8 .L0 
C:\Users\stapi\AppData\Local\Temp\cchP1ZsS.s:603    .text.hostapd_config_defaults:00000000000001e8 .L0 
C:\Users\stapi\AppData\Local\Temp\cchP1ZsS.s:620    .text.hostapd_mac_comp:000000000000000a .L0 
C:\Users\stapi\AppData\Local\Temp\cchP1ZsS.s:650    .text.hostapd_config_get_radius_attr:0000000000000010 .L0 
C:\Users\stapi\AppData\Local\Temp\cchP1ZsS.s:898    .text.hostapd_parse_radius_attr:0000000000000146 .L0 
C:\Users\stapi\AppData\Local\Temp\cchP1ZsS.s:950    .text.hostapd_config_free_radius_attr:000000000000002e .L0 
C:\Users\stapi\AppData\Local\Temp\cchP1ZsS.s:997    .text.hostapd_config_free_eap_user:0000000000000048 .L0 
C:\Users\stapi\AppData\Local\Temp\cchP1ZsS.s:1039   .text.hostapd_config_free_eap_users:0000000000000022 .L0 
C:\Users\stapi\AppData\Local\Temp\cchP1ZsS.s:1092   .text.hostapd_config_clear_wpa_psk:000000000000002c .L0 
C:\Users\stapi\AppData\Local\Temp\cchP1ZsS.s:1562   .text.hostapd_config_free_bss:00000000000002f8 .L0 
C:\Users\stapi\AppData\Local\Temp\cchP1ZsS.s:1663   .text.hostapd_config_free:000000000000008e .L0 
C:\Users\stapi\AppData\Local\Temp\cchP1ZsS.s:1776   .text.hostapd_maclist_found:000000000000006e .L0 
C:\Users\stapi\AppData\Local\Temp\cchP1ZsS.s:1812   .text.hostapd_rate_found:0000000000000016 .L0 
C:\Users\stapi\AppData\Local\Temp\cchP1ZsS.s:1873   .text.hostapd_vlan_valid:0000000000000038 .L0 
C:\Users\stapi\AppData\Local\Temp\cchP1ZsS.s:1909   .text.hostapd_get_vlan_id_ifname:0000000000000014 .L0 
C:\Users\stapi\AppData\Local\Temp\cchP1ZsS.s:2109   .text.hostapd_get_psk:000000000000010a .L0 
C:\Users\stapi\AppData\Local\Temp\cchP1ZsS.s:2691   .text.hostapd_config_check:00000000000002c4 .L0 
C:\Users\stapi\AppData\Local\Temp\cchP1ZsS.s:2885   .text.hostapd_set_security_params:00000000000000e0 .L0 
C:\Users\stapi\AppData\Local\Temp\cchP1ZsS.s:2958   .text.hostapd_sae_pw_id_in_use:000000000000002e .L0 
C:\Users\stapi\AppData\Local\Temp\cchP1ZsS.s:3119   .text.hostapd_setup_sae_pt:00000000000000d0 .L0 
C:\Users\stapi\AppData\Local\Temp\cchP1ZsS.s:3816   .text.hostapd_setup_wpa_psk:00000000000003a8 .L0 
C:\Users\stapi\AppData\Local\Temp\cchP1ZsS.s:3833   .text.hostapd_sae_pk_in_use:0000000000000004 .L0 
                     .debug_frame:0000000000000000 .L0 
C:\Users\stapi\AppData\Local\Temp\cchP1ZsS.s:82     .text.hostapd_config_free_radius:0000000000000028 .L4
C:\Users\stapi\AppData\Local\Temp\cchP1ZsS.s:65     .text.hostapd_config_free_radius:0000000000000012 .L3
C:\Users\stapi\AppData\Local\Temp\cchP1ZsS.s:295    .rodata.hostapd_config_defaults.str1.4:0000000000000000 .LC0
C:\Users\stapi\AppData\Local\Temp\cchP1ZsS.s:342    .text.hostapd_config_defaults:0000000000000028 .L8
C:\Users\stapi\AppData\Local\Temp\cchP1ZsS.s:372    .text.hostapd_config_defaults:000000000000005a .L9
C:\Users\stapi\AppData\Local\Temp\cchP1ZsS.s:411    .text.hostapd_config_defaults:0000000000000080 .L11
C:\Users\stapi\AppData\Local\Temp\cchP1ZsS.s:361    .text.hostapd_config_defaults:0000000000000050 .L7
C:\Users\stapi\AppData\Local\Temp\cchP1ZsS.s:432    .text.hostapd_config_defaults:00000000000000a4 .L12
C:\Users\stapi\AppData\Local\Temp\cchP1ZsS.s:399    .text.hostapd_config_defaults:000000000000006a .L17
C:\Users\stapi\AppData\Local\Temp\cchP1ZsS.s:637    .text.hostapd_config_get_radius_attr:0000000000000004 .L23
C:\Users\stapi\AppData\Local\Temp\cchP1ZsS.s:634    .text.hostapd_config_get_radius_attr:0000000000000002 .L20
C:\Users\stapi\AppData\Local\Temp\cchP1ZsS.s:630    .text.hostapd_config_get_radius_attr:0000000000000000 .L21
C:\Users\stapi\AppData\Local\Temp\cchP1ZsS.s:736    .text.hostapd_parse_radius_attr:0000000000000060 .L24
C:\Users\stapi\AppData\Local\Temp\cchP1ZsS.s:749    .text.hostapd_parse_radius_attr:000000000000006a .L26
C:\Users\stapi\AppData\Local\Temp\cchP1ZsS.s:722    .text.hostapd_parse_radius_attr:0000000000000052 .L27
C:\Users\stapi\AppData\Local\Temp\cchP1ZsS.s:710    .text.hostapd_parse_radius_attr:0000000000000044 .L37
C:\Users\stapi\AppData\Local\Temp\cchP1ZsS.s:826    .text.hostapd_parse_radius_attr:00000000000000de .L30
C:\Users\stapi\AppData\Local\Temp\cchP1ZsS.s:851    .text.hostapd_parse_radius_attr:00000000000000fc .L31
C:\Users\stapi\AppData\Local\Temp\cchP1ZsS.s:844    .text.hostapd_parse_radius_attr:00000000000000f6 .L34
C:\Users\stapi\AppData\Local\Temp\cchP1ZsS.s:926    .text.hostapd_config_free_radius_attr:0000000000000014 .L57
C:\Users\stapi\AppData\Local\Temp\cchP1ZsS.s:916    .text.hostapd_config_free_radius_attr:000000000000000a .L56
C:\Users\stapi\AppData\Local\Temp\cchP1ZsS.s:1011   .text.hostapd_config_free_eap_users:0000000000000004 .L66
C:\Users\stapi\AppData\Local\Temp\cchP1ZsS.s:1017   .text.hostapd_config_free_eap_users:000000000000000c .L63
C:\Users\stapi\AppData\Local\Temp\cchP1ZsS.s:1074   .text.hostapd_config_clear_wpa_psk:000000000000001a .L69
C:\Users\stapi\AppData\Local\Temp\cchP1ZsS.s:1060   .text.hostapd_config_clear_wpa_psk:000000000000000c .L68
C:\Users\stapi\AppData\Local\Temp\cchP1ZsS.s:1548   .text.hostapd_config_free_bss:00000000000002f6 .L88
C:\Users\stapi\AppData\Local\Temp\cchP1ZsS.s:1191   .text.hostapd_config_free_bss:00000000000000b0 .L73
C:\Users\stapi\AppData\Local\Temp\cchP1ZsS.s:1456   .text.hostapd_config_free_bss:0000000000000292 .L75
C:\Users\stapi\AppData\Local\Temp\cchP1ZsS.s:1382   .text.hostapd_config_free_bss:0000000000000228 .L77
C:\Users\stapi\AppData\Local\Temp\cchP1ZsS.s:1474   .text.hostapd_config_free_bss:00000000000002a0 .L78
C:\Users\stapi\AppData\Local\Temp\cchP1ZsS.s:1516   .text.hostapd_config_free_bss:00000000000002c6 .L80
C:\Users\stapi\AppData\Local\Temp\cchP1ZsS.s:1308   .text.hostapd_config_free_bss:00000000000001bc .L74
C:\Users\stapi\AppData\Local\Temp\cchP1ZsS.s:1364   .text.hostapd_config_free_bss:000000000000021e .L76
C:\Users\stapi\AppData\Local\Temp\cchP1ZsS.s:1435   .text.hostapd_config_free_bss:000000000000027e .L79
C:\Users\stapi\AppData\Local\Temp\cchP1ZsS.s:1654   .text.hostapd_config_free:000000000000008c .L99
C:\Users\stapi\AppData\Local\Temp\cchP1ZsS.s:1640   .text.hostapd_config_free:000000000000007a .L94
C:\Users\stapi\AppData\Local\Temp\cchP1ZsS.s:1585   .text.hostapd_config_free:000000000000000e .L93
C:\Users\stapi\AppData\Local\Temp\cchP1ZsS.s:1706   .text.hostapd_maclist_found:0000000000000020 .L108
C:\Users\stapi\AppData\Local\Temp\cchP1ZsS.s:1742   .text.hostapd_maclist_found:0000000000000056 .L102
C:\Users\stapi\AppData\Local\Temp\cchP1ZsS.s:1757   .text.hostapd_maclist_found:000000000000005e .L104
C:\Users\stapi\AppData\Local\Temp\cchP1ZsS.s:1767   .text.hostapd_maclist_found:0000000000000068 .L106
C:\Users\stapi\AppData\Local\Temp\cchP1ZsS.s:1700   .text.hostapd_maclist_found:0000000000000018 .L103
C:\Users\stapi\AppData\Local\Temp\cchP1ZsS.s:1796   .text.hostapd_rate_found:0000000000000008 .L115
C:\Users\stapi\AppData\Local\Temp\cchP1ZsS.s:1800   .text.hostapd_rate_found:000000000000000c .L114
C:\Users\stapi\AppData\Local\Temp\cchP1ZsS.s:1790   .text.hostapd_rate_found:0000000000000002 .L113
C:\Users\stapi\AppData\Local\Temp\cchP1ZsS.s:1867   .text.hostapd_vlan_valid:0000000000000036 .L117
C:\Users\stapi\AppData\Local\Temp\cchP1ZsS.s:1864   .text.hostapd_vlan_valid:0000000000000034 .L122
C:\Users\stapi\AppData\Local\Temp\cchP1ZsS.s:1843   .text.hostapd_vlan_valid:000000000000001a .L119
C:\Users\stapi\AppData\Local\Temp\cchP1ZsS.s:1860   .text.hostapd_vlan_valid:000000000000002e .L120
C:\Users\stapi\AppData\Local\Temp\cchP1ZsS.s:1889   .text.hostapd_get_vlan_id_ifname:0000000000000004 .L134
C:\Users\stapi\AppData\Local\Temp\cchP1ZsS.s:1900   .text.hostapd_get_vlan_id_ifname:0000000000000010 .L132
C:\Users\stapi\AppData\Local\Temp\cchP1ZsS.s:1884   .text.hostapd_get_vlan_id_ifname:0000000000000000 .L131
C:\Users\stapi\AppData\Local\Temp\cchP1ZsS.s:1911   .rodata.hostapd_get_psk.str1.4:0000000000000000 .LC1
C:\Users\stapi\AppData\Local\Temp\cchP1ZsS.s:1914   .rodata.hostapd_get_psk.str1.4:000000000000006c .LC2
C:\Users\stapi\AppData\Local\Temp\cchP1ZsS.s:1955   .text.hostapd_get_psk:000000000000001e .L136
C:\Users\stapi\AppData\Local\Temp\cchP1ZsS.s:2054   .text.hostapd_get_psk:00000000000000be .L137
C:\Users\stapi\AppData\Local\Temp\cchP1ZsS.s:2037   .text.hostapd_get_psk:00000000000000b2 .L135
C:\Users\stapi\AppData\Local\Temp\cchP1ZsS.s:2078   .text.hostapd_get_psk:00000000000000e8 .L140
C:\Users\stapi\AppData\Local\Temp\cchP1ZsS.s:2065   .text.hostapd_get_psk:00000000000000d4 .L141
C:\Users\stapi\AppData\Local\Temp\cchP1ZsS.s:2091   .text.hostapd_get_psk:00000000000000f4 .L142
C:\Users\stapi\AppData\Local\Temp\cchP1ZsS.s:2012   .text.hostapd_get_psk:0000000000000096 .L138
C:\Users\stapi\AppData\Local\Temp\cchP1ZsS.s:2098   .text.hostapd_get_psk:00000000000000fe .L144
C:\Users\stapi\AppData\Local\Temp\cchP1ZsS.s:2028   .text.hostapd_get_psk:00000000000000ac .L145
C:\Users\stapi\AppData\Local\Temp\cchP1ZsS.s:2085   .text.hostapd_get_psk:00000000000000ee .L147
C:\Users\stapi\AppData\Local\Temp\cchP1ZsS.s:2017   .text.hostapd_get_psk:000000000000009a .L139
C:\Users\stapi\AppData\Local\Temp\cchP1ZsS.s:2032   .text.hostapd_get_psk:00000000000000b0 .L143
C:\Users\stapi\AppData\Local\Temp\cchP1ZsS.s:2072   .text.hostapd_get_psk:00000000000000de .L167
C:\Users\stapi\AppData\Local\Temp\cchP1ZsS.s:2111   .rodata.hostapd_config_check.str1.4:0000000000000000 .LC3
C:\Users\stapi\AppData\Local\Temp\cchP1ZsS.s:2114   .rodata.hostapd_config_check.str1.4:000000000000003c .LC4
C:\Users\stapi\AppData\Local\Temp\cchP1ZsS.s:2117   .rodata.hostapd_config_check.str1.4:0000000000000074 .LC5
C:\Users\stapi\AppData\Local\Temp\cchP1ZsS.s:2120   .rodata.hostapd_config_check.str1.4:00000000000000b0 .LC6
C:\Users\stapi\AppData\Local\Temp\cchP1ZsS.s:2123   .rodata.hostapd_config_check.str1.4:0000000000000104 .LC7
C:\Users\stapi\AppData\Local\Temp\cchP1ZsS.s:2126   .rodata.hostapd_config_check.str1.4:000000000000014c .LC8
C:\Users\stapi\AppData\Local\Temp\cchP1ZsS.s:2162   .rodata.hostapd_config_check.str1.4:0000000000000428 .LC20
C:\Users\stapi\AppData\Local\Temp\cchP1ZsS.s:2156   .rodata.hostapd_config_check.str1.4:0000000000000384 .LC18
C:\Users\stapi\AppData\Local\Temp\cchP1ZsS.s:2159   .rodata.hostapd_config_check.str1.4:00000000000003cc .LC19
C:\Users\stapi\AppData\Local\Temp\cchP1ZsS.s:2129   .rodata.hostapd_config_check.str1.4:0000000000000190 .LC9
C:\Users\stapi\AppData\Local\Temp\cchP1ZsS.s:2132   .rodata.hostapd_config_check.str1.4:00000000000001c4 .LC10
C:\Users\stapi\AppData\Local\Temp\cchP1ZsS.s:2135   .rodata.hostapd_config_check.str1.4:00000000000001f8 .LC11
C:\Users\stapi\AppData\Local\Temp\cchP1ZsS.s:2138   .rodata.hostapd_config_check.str1.4:0000000000000214 .LC12
C:\Users\stapi\AppData\Local\Temp\cchP1ZsS.s:2141   .rodata.hostapd_config_check.str1.4:000000000000023c .LC13
C:\Users\stapi\AppData\Local\Temp\cchP1ZsS.s:2144   .rodata.hostapd_config_check.str1.4:0000000000000264 .LC14
C:\Users\stapi\AppData\Local\Temp\cchP1ZsS.s:2150   .rodata.hostapd_config_check.str1.4:00000000000002fc .LC16
C:\Users\stapi\AppData\Local\Temp\cchP1ZsS.s:2153   .rodata.hostapd_config_check.str1.4:0000000000000338 .LC17
C:\Users\stapi\AppData\Local\Temp\cchP1ZsS.s:2147   .rodata.hostapd_config_check.str1.4:00000000000002ac .LC15
C:\Users\stapi\AppData\Local\Temp\cchP1ZsS.s:2292   .text.hostapd_config_check:0000000000000084 .L169
C:\Users\stapi\AppData\Local\Temp\cchP1ZsS.s:2224   .text.hostapd_config_check:0000000000000034 .L170
C:\Users\stapi\AppData\Local\Temp\cchP1ZsS.s:2208   .text.hostapd_config_check:0000000000000020 .L171
C:\Users\stapi\AppData\Local\Temp\cchP1ZsS.s:2337   .text.hostapd_config_check:00000000000000b2 .L240
C:\Users\stapi\AppData\Local\Temp\cchP1ZsS.s:2239   .text.hostapd_config_check:0000000000000044 .L173
C:\Users\stapi\AppData\Local\Temp\cchP1ZsS.s:2214   .text.hostapd_config_check:0000000000000028 .L241
C:\Users\stapi\AppData\Local\Temp\cchP1ZsS.s:2254   .text.hostapd_config_check:000000000000005a .L174
C:\Users\stapi\AppData\Local\Temp\cchP1ZsS.s:2351   .text.hostapd_config_check:00000000000000b6 .L175
C:\Users\stapi\AppData\Local\Temp\cchP1ZsS.s:2270   .text.hostapd_config_check:0000000000000078 .L168
C:\Users\stapi\AppData\Local\Temp\cchP1ZsS.s:2363   .text.hostapd_config_check:00000000000000c4 .L176
C:\Users\stapi\AppData\Local\Temp\cchP1ZsS.s:2330   .text.hostapd_config_check:00000000000000a8 .L242
C:\Users\stapi\AppData\Local\Temp\cchP1ZsS.s:2298   .text.hostapd_config_check:0000000000000090 .L177
C:\Users\stapi\AppData\Local\Temp\cchP1ZsS.s:2397   .text.hostapd_config_check:00000000000000e8 .L200
C:\Users\stapi\AppData\Local\Temp\cchP1ZsS.s:2567   .text.hostapd_config_check:00000000000001fa .L180
C:\Users\stapi\AppData\Local\Temp\cchP1ZsS.s:2666   .text.hostapd_config_check:000000000000029e .L181
C:\Users\stapi\AppData\Local\Temp\cchP1ZsS.s:2436   .text.hostapd_config_check:0000000000000116 .L182
C:\Users\stapi\AppData\Local\Temp\cchP1ZsS.s:2445   .text.hostapd_config_check:0000000000000128 .L183
C:\Users\stapi\AppData\Local\Temp\cchP1ZsS.s:2456   .text.hostapd_config_check:000000000000013c .L184
C:\Users\stapi\AppData\Local\Temp\cchP1ZsS.s:2467   .text.hostapd_config_check:000000000000014e .L185
C:\Users\stapi\AppData\Local\Temp\cchP1ZsS.s:2671   .text.hostapd_config_check:00000000000002a4 .L186
C:\Users\stapi\AppData\Local\Temp\cchP1ZsS.s:2519   .text.hostapd_config_check:00000000000001aa .L187
C:\Users\stapi\AppData\Local\Temp\cchP1ZsS.s:2514   .text.hostapd_config_check:00000000000001a0 .L189
C:\Users\stapi\AppData\Local\Temp\cchP1ZsS.s:2627   .text.hostapd_config_check:000000000000025a .L204
C:\Users\stapi\AppData\Local\Temp\cchP1ZsS.s:2541   .text.hostapd_config_check:00000000000001ca .L198
C:\Users\stapi\AppData\Local\Temp\cchP1ZsS.s:2631   .text.hostapd_config_check:000000000000025e .L194
C:\Users\stapi\AppData\Local\Temp\cchP1ZsS.s:2646   .text.hostapd_config_check:0000000000000278 .L195
C:\Users\stapi\AppData\Local\Temp\cchP1ZsS.s:2386   .text.hostapd_config_check:00000000000000de .L178
C:\Users\stapi\AppData\Local\Temp\cchP1ZsS.s:2529   .text.hostapd_config_check:00000000000001ba .L191
C:\Users\stapi\AppData\Local\Temp\cchP1ZsS.s:2576   .text.hostapd_config_check:00000000000001fe .L192
C:\Users\stapi\AppData\Local\Temp\cchP1ZsS.s:2584   .text.hostapd_config_check:0000000000000200 .L190
C:\Users\stapi\AppData\Local\Temp\cchP1ZsS.s:2537   .text.hostapd_config_check:00000000000001c4 .L197
C:\Users\stapi\AppData\Local\Temp\cchP1ZsS.s:2478   .text.hostapd_config_check:0000000000000162 .L203
C:\Users\stapi\AppData\Local\Temp\cchP1ZsS.s:2493   .text.hostapd_config_check:000000000000017a .L188
C:\Users\stapi\AppData\Local\Temp\cchP1ZsS.s:2724   .text.hostapd_set_security_params:0000000000000024 .L244
C:\Users\stapi\AppData\Local\Temp\cchP1ZsS.s:2788   .text.hostapd_set_security_params:0000000000000070 .L245
C:\Users\stapi\AppData\Local\Temp\cchP1ZsS.s:2750   .text.hostapd_set_security_params:000000000000004c .L247
C:\Users\stapi\AppData\Local\Temp\cchP1ZsS.s:2747   .text.hostapd_set_security_params:0000000000000048 .L248
C:\Users\stapi\AppData\Local\Temp\cchP1ZsS.s:2764   .text.hostapd_set_security_params:0000000000000058 .L249
C:\Users\stapi\AppData\Local\Temp\cchP1ZsS.s:2805   .text.hostapd_set_security_params:000000000000008a .L250
C:\Users\stapi\AppData\Local\Temp\cchP1ZsS.s:2799   .text.hostapd_set_security_params:0000000000000086 .L251
C:\Users\stapi\AppData\Local\Temp\cchP1ZsS.s:2734   .text.hostapd_set_security_params:000000000000002e .L246
C:\Users\stapi\AppData\Local\Temp\cchP1ZsS.s:2777   .text.hostapd_set_security_params:0000000000000064 .L268
C:\Users\stapi\AppData\Local\Temp\cchP1ZsS.s:2837   .text.hostapd_set_security_params:00000000000000aa .L253
C:\Users\stapi\AppData\Local\Temp\cchP1ZsS.s:2780   .text.hostapd_set_security_params:0000000000000068 .L243
C:\Users\stapi\AppData\Local\Temp\cchP1ZsS.s:2858   .text.hostapd_set_security_params:00000000000000c6 .L255
C:\Users\stapi\AppData\Local\Temp\cchP1ZsS.s:2925   .text.hostapd_sae_pw_id_in_use:0000000000000018 .L274
C:\Users\stapi\AppData\Local\Temp\cchP1ZsS.s:2921   .text.hostapd_sae_pw_id_in_use:0000000000000016 .L269
C:\Users\stapi\AppData\Local\Temp\cchP1ZsS.s:2945   .text.hostapd_sae_pw_id_in_use:0000000000000024 .L271
C:\Users\stapi\AppData\Local\Temp\cchP1ZsS.s:2952   .text.hostapd_sae_pw_id_in_use:000000000000002a .L276
C:\Users\stapi\AppData\Local\Temp\cchP1ZsS.s:2908   .text.hostapd_sae_pw_id_in_use:000000000000000e .L270
C:\Users\stapi\AppData\Local\Temp\cchP1ZsS.s:2916   .text.hostapd_sae_pw_id_in_use:0000000000000012 .L272
C:\Users\stapi\AppData\Local\Temp\cchP1ZsS.s:2938   .text.hostapd_sae_pw_id_in_use:0000000000000020 .L273
C:\Users\stapi\AppData\Local\Temp\cchP1ZsS.s:3007   .text.hostapd_setup_sae_pt:0000000000000028 .L281
C:\Users\stapi\AppData\Local\Temp\cchP1ZsS.s:3012   .text.hostapd_setup_sae_pt:000000000000002e .L282
C:\Users\stapi\AppData\Local\Temp\cchP1ZsS.s:2992   .text.hostapd_setup_sae_pt:000000000000001c .L284
C:\Users\stapi\AppData\Local\Temp\cchP1ZsS.s:3087   .text.hostapd_setup_sae_pt:000000000000009a .L285
C:\Users\stapi\AppData\Local\Temp\cchP1ZsS.s:3110   .text.hostapd_setup_sae_pt:00000000000000cc .L288
C:\Users\stapi\AppData\Local\Temp\cchP1ZsS.s:3049   .text.hostapd_setup_sae_pt:000000000000005a .L286
C:\Users\stapi\AppData\Local\Temp\cchP1ZsS.s:3042   .text.hostapd_setup_sae_pt:0000000000000052 .L287
C:\Users\stapi\AppData\Local\Temp\cchP1ZsS.s:2995   .text.hostapd_setup_sae_pt:000000000000001e .L280
C:\Users\stapi\AppData\Local\Temp\cchP1ZsS.s:3124   .rodata.hostapd_setup_wpa_psk.str1.4:0000000000000004 .LC22
C:\Users\stapi\AppData\Local\Temp\cchP1ZsS.s:3142   .rodata.hostapd_setup_wpa_psk.str1.4:00000000000000b8 .LC28
C:\Users\stapi\AppData\Local\Temp\cchP1ZsS.s:3121   .rodata.hostapd_setup_wpa_psk.str1.4:0000000000000000 .LC21
C:\Users\stapi\AppData\Local\Temp\cchP1ZsS.s:3127   .rodata.hostapd_setup_wpa_psk.str1.4:0000000000000038 .LC23
C:\Users\stapi\AppData\Local\Temp\cchP1ZsS.s:3130   .rodata.hostapd_setup_wpa_psk.str1.4:0000000000000060 .LC24
C:\Users\stapi\AppData\Local\Temp\cchP1ZsS.s:3133   .rodata.hostapd_setup_wpa_psk.str1.4:0000000000000080 .LC25
C:\Users\stapi\AppData\Local\Temp\cchP1ZsS.s:3136   .rodata.hostapd_setup_wpa_psk.str1.4:0000000000000088 .LC26
C:\Users\stapi\AppData\Local\Temp\cchP1ZsS.s:3139   .rodata.hostapd_setup_wpa_psk.str1.4:00000000000000a0 .LC27
C:\Users\stapi\AppData\Local\Temp\cchP1ZsS.s:3145   .rodata.hostapd_setup_wpa_psk.str1.4:00000000000000bc .LC29
C:\Users\stapi\AppData\Local\Temp\cchP1ZsS.s:3154   .rodata.hostapd_setup_wpa_psk.str1.4:00000000000000e8 .LC32
C:\Users\stapi\AppData\Local\Temp\cchP1ZsS.s:3163   .rodata.hostapd_setup_wpa_psk.str1.4:000000000000011c .LC35
C:\Users\stapi\AppData\Local\Temp\cchP1ZsS.s:3166   .rodata.hostapd_setup_wpa_psk.str1.4:0000000000000120 .LC36
C:\Users\stapi\AppData\Local\Temp\cchP1ZsS.s:3148   .rodata.hostapd_setup_wpa_psk.str1.4:00000000000000dc .LC30
C:\Users\stapi\AppData\Local\Temp\cchP1ZsS.s:3151   .rodata.hostapd_setup_wpa_psk.str1.4:00000000000000e0 .LC31
C:\Users\stapi\AppData\Local\Temp\cchP1ZsS.s:3157   .rodata.hostapd_setup_wpa_psk.str1.4:00000000000000ec .LC33
C:\Users\stapi\AppData\Local\Temp\cchP1ZsS.s:3160   .rodata.hostapd_setup_wpa_psk.str1.4:00000000000000f4 .LC34
C:\Users\stapi\AppData\Local\Temp\cchP1ZsS.s:3169   .rodata.hostapd_setup_wpa_psk.str1.4:000000000000014c .LC37
C:\Users\stapi\AppData\Local\Temp\cchP1ZsS.s:3172   .rodata.hostapd_setup_wpa_psk.str1.4:0000000000000168 .LC38
C:\Users\stapi\AppData\Local\Temp\cchP1ZsS.s:3175   .rodata.hostapd_setup_wpa_psk.str1.4:0000000000000184 .LC39
C:\Users\stapi\AppData\Local\Temp\cchP1ZsS.s:3178   .rodata.hostapd_setup_wpa_psk.str1.4:00000000000001a8 .LC40
C:\Users\stapi\AppData\Local\Temp\cchP1ZsS.s:3322   .text.hostapd_setup_wpa_psk:00000000000000b2 .L330
C:\Users\stapi\AppData\Local\Temp\cchP1ZsS.s:3239   .text.hostapd_setup_wpa_psk:0000000000000042 .L299
C:\Users\stapi\AppData\Local\Temp\cchP1ZsS.s:3293   .text.hostapd_setup_wpa_psk:000000000000007c .L300
C:\Users\stapi\AppData\Local\Temp\cchP1ZsS.s:3608   .text.hostapd_setup_wpa_psk:0000000000000276 .L297
C:\Users\stapi\AppData\Local\Temp\cchP1ZsS.s:3382   .text.hostapd_setup_wpa_psk:000000000000012c .L355
C:\Users\stapi\AppData\Local\Temp\cchP1ZsS.s:3398   .text.hostapd_setup_wpa_psk:0000000000000142 .L329
C:\Users\stapi\AppData\Local\Temp\cchP1ZsS.s:3601   .text.hostapd_setup_wpa_psk:000000000000026c .L318
C:\Users\stapi\AppData\Local\Temp\cchP1ZsS.s:3329   .text.hostapd_setup_wpa_psk:00000000000000b6 .L302
C:\Users\stapi\AppData\Local\Temp\cchP1ZsS.s:3233   .text.hostapd_setup_wpa_psk:000000000000003a .L301
C:\Users\stapi\AppData\Local\Temp\cchP1ZsS.s:3278   .text.hostapd_setup_wpa_psk:0000000000000066 .L304
C:\Users\stapi\AppData\Local\Temp\cchP1ZsS.s:3430   .text.hostapd_setup_wpa_psk:0000000000000162 .L308
C:\Users\stapi\AppData\Local\Temp\cchP1ZsS.s:3487   .text.hostapd_setup_wpa_psk:00000000000001b8 .L307
C:\Users\stapi\AppData\Local\Temp\cchP1ZsS.s:3494   .text.hostapd_setup_wpa_psk:00000000000001bc .L319
C:\Users\stapi\AppData\Local\Temp\cchP1ZsS.s:3641   .text.hostapd_setup_wpa_psk:0000000000000286 .L320
C:\Users\stapi\AppData\Local\Temp\cchP1ZsS.s:3595   .text.hostapd_setup_wpa_psk:000000000000026a .L358
C:\Users\stapi\AppData\Local\Temp\cchP1ZsS.s:3416   .text.hostapd_setup_wpa_psk:0000000000000154 .L305
C:\Users\stapi\AppData\Local\Temp\cchP1ZsS.s:3467   .text.hostapd_setup_wpa_psk:0000000000000190 .L312
C:\Users\stapi\AppData\Local\Temp\cchP1ZsS.s:3534   .text.hostapd_setup_wpa_psk:00000000000001fc .L313
C:\Users\stapi\AppData\Local\Temp\cchP1ZsS.s:3632   .text.hostapd_setup_wpa_psk:0000000000000282 .L334
C:\Users\stapi\AppData\Local\Temp\cchP1ZsS.s:3562   .text.hostapd_setup_wpa_psk:000000000000022e .L315
C:\Users\stapi\AppData\Local\Temp\cchP1ZsS.s:3451   .text.hostapd_setup_wpa_psk:0000000000000174 .L314
C:\Users\stapi\AppData\Local\Temp\cchP1ZsS.s:3581   .text.hostapd_setup_wpa_psk:0000000000000250 .L317
C:\Users\stapi\AppData\Local\Temp\cchP1ZsS.s:3663   .text.hostapd_setup_wpa_psk:00000000000002aa .L321
C:\Users\stapi\AppData\Local\Temp\cchP1ZsS.s:3705   .text.hostapd_setup_wpa_psk:00000000000002ec .L322
C:\Users\stapi\AppData\Local\Temp\cchP1ZsS.s:3714   .text.hostapd_setup_wpa_psk:00000000000002fe .L324
C:\Users\stapi\AppData\Local\Temp\cchP1ZsS.s:3746   .text.hostapd_setup_wpa_psk:000000000000033a .L359
C:\Users\stapi\AppData\Local\Temp\cchP1ZsS.s:3679   .text.hostapd_setup_wpa_psk:00000000000002c0 .L323
C:\Users\stapi\AppData\Local\Temp\cchP1ZsS.s:3755   .text.hostapd_setup_wpa_psk:0000000000000346 .L325
C:\Users\stapi\AppData\Local\Temp\cchP1ZsS.s:3774   .text.hostapd_setup_wpa_psk:000000000000036c .L326
C:\Users\stapi\AppData\Local\Temp\cchP1ZsS.s:3734   .text.hostapd_setup_wpa_psk:0000000000000322 .L327
C:\Users\stapi\AppData\Local\Temp\cchP1ZsS.s:3731   .text.hostapd_setup_wpa_psk:0000000000000320 .L357
C:\Users\stapi\AppData\Local\Temp\cchP1ZsS.s:3797   .text.hostapd_setup_wpa_psk:0000000000000396 .L328
C:\Users\stapi\AppData\Local\Temp\cchP1ZsS.s:3698   .text.hostapd_setup_wpa_psk:00000000000002e0 .L360
C:\Users\stapi\AppData\Local\Temp\cchP1ZsS.s:12964  .debug_abbrev:0000000000000000 .Ldebug_abbrev0
C:\Users\stapi\AppData\Local\Temp\cchP1ZsS.s:16785  .debug_str:00000000000011c1 .LASF725
C:\Users\stapi\AppData\Local\Temp\cchP1ZsS.s:17453  .debug_str:0000000000002528 .LASF726
C:\Users\stapi\AppData\Local\Temp\cchP1ZsS.s:16753  .debug_str:000000000000104f .LASF727
C:\Users\stapi\AppData\Local\Temp\cchP1ZsS.s:16001  .debug_ranges:0000000000000000 .Ldebug_ranges0
C:\Users\stapi\AppData\Local\Temp\cchP1ZsS.s:16151  .debug_line:0000000000000000 .Ldebug_line0
C:\Users\stapi\AppData\Local\Temp\cchP1ZsS.s:16165  .debug_str:000000000000006f .LASF1
C:\Users\stapi\AppData\Local\Temp\cchP1ZsS.s:16943  .debug_str:00000000000016fd .LASF0
C:\Users\stapi\AppData\Local\Temp\cchP1ZsS.s:17255  .debug_str:0000000000001f6e .LASF2
C:\Users\stapi\AppData\Local\Temp\cchP1ZsS.s:16479  .debug_str:00000000000008de .LASF3
C:\Users\stapi\AppData\Local\Temp\cchP1ZsS.s:16351  .debug_str:000000000000057d .LASF4
C:\Users\stapi\AppData\Local\Temp\cchP1ZsS.s:16519  .debug_str:00000000000009df .LASF5
C:\Users\stapi\AppData\Local\Temp\cchP1ZsS.s:17349  .debug_str:0000000000002221 .LASF6
C:\Users\stapi\AppData\Local\Temp\cchP1ZsS.s:16593  .debug_str:0000000000000bc2 .LASF7
C:\Users\stapi\AppData\Local\Temp\cchP1ZsS.s:17513  .debug_str:0000000000002757 .LASF8
C:\Users\stapi\AppData\Local\Temp\cchP1ZsS.s:16397  .debug_str:00000000000006a8 .LASF9
C:\Users\stapi\AppData\Local\Temp\cchP1ZsS.s:16863  .debug_str:00000000000014fb .LASF10
C:\Users\stapi\AppData\Local\Temp\cchP1ZsS.s:16761  .debug_str:000000000000110b .LASF11
C:\Users\stapi\AppData\Local\Temp\cchP1ZsS.s:16871  .debug_str:0000000000001528 .LASF12
C:\Users\stapi\AppData\Local\Temp\cchP1ZsS.s:17153  .debug_str:0000000000001cf0 .LASF13
C:\Users\stapi\AppData\Local\Temp\cchP1ZsS.s:17501  .debug_str:0000000000002712 .LASF14
C:\Users\stapi\AppData\Local\Temp\cchP1ZsS.s:17125  .debug_str:0000000000001c2d .LASF15
C:\Users\stapi\AppData\Local\Temp\cchP1ZsS.s:16163  .debug_str:0000000000000066 .LASF16
C:\Users\stapi\AppData\Local\Temp\cchP1ZsS.s:16349  .debug_str:0000000000000577 .LASF17
C:\Users\stapi\AppData\Local\Temp\cchP1ZsS.s:16457  .debug_str:0000000000000857 .LASF18
C:\Users\stapi\AppData\Local\Temp\cchP1ZsS.s:16339  .debug_str:0000000000000526 .LASF19
C:\Users\stapi\AppData\Local\Temp\cchP1ZsS.s:16499  .debug_str:000000000000095c .LASF20
C:\Users\stapi\AppData\Local\Temp\cchP1ZsS.s:16919  .debug_str:0000000000001660 .LASF21
C:\Users\stapi\AppData\Local\Temp\cchP1ZsS.s:17463  .debug_str:00000000000025e4 .LASF22
C:\Users\stapi\AppData\Local\Temp\cchP1ZsS.s:16801  .debug_str:000000000000133a .LASF23
C:\Users\stapi\AppData\Local\Temp\cchP1ZsS.s:17239  .debug_str:0000000000001f27 .LASF24
C:\Users\stapi\AppData\Local\Temp\cchP1ZsS.s:16827  .debug_str:00000000000013f3 .LASF29
C:\Users\stapi\AppData\Local\Temp\cchP1ZsS.s:17263  .debug_str:0000000000001f97 .LASF25
C:\Users\stapi\AppData\Local\Temp\cchP1ZsS.s:16833  .debug_str:0000000000001417 .LASF26
C:\Users\stapi\AppData\Local\Temp\cchP1ZsS.s:16921  .debug_str:000000000000166b .LASF27
C:\Users\stapi\AppData\Local\Temp\cchP1ZsS.s:16689  .debug_str:0000000000000e82 .LASF28
C:\Users\stapi\AppData\Local\Temp\cchP1ZsS.s:16235  .debug_str:0000000000000248 .LASF30
C:\Users\stapi\AppData\Local\Temp\cchP1ZsS.s:16241  .debug_str:0000000000000269 .LASF31
C:\Users\stapi\AppData\Local\Temp\cchP1ZsS.s:17589  .debug_str:0000000000002990 .LASF32
C:\Users\stapi\AppData\Local\Temp\cchP1ZsS.s:17355  .debug_str:000000000000223d .LASF33
C:\Users\stapi\AppData\Local\Temp\cchP1ZsS.s:16721  .debug_str:0000000000000f79 .LASF34
C:\Users\stapi\AppData\Local\Temp\cchP1ZsS.s:16445  .debug_str:00000000000007e9 .LASF35
C:\Users\stapi\AppData\Local\Temp\cchP1ZsS.s:17395  .debug_str:000000000000238b .LASF36
C:\Users\stapi\AppData\Local\Temp\cchP1ZsS.s:17529  .debug_str:00000000000027d5 .LASF37
C:\Users\stapi\AppData\Local\Temp\cchP1ZsS.s:16547  .debug_str:0000000000000a85 .LASF38
C:\Users\stapi\AppData\Local\Temp\cchP1ZsS.s:17573  .debug_str:0000000000002934 .LASF39
C:\Users\stapi\AppData\Local\Temp\cchP1ZsS.s:16363  .debug_str:00000000000005c9 .LASF40
C:\Users\stapi\AppData\Local\Temp\cchP1ZsS.s:17571  .debug_str:000000000000292c .LASF41
C:\Users\stapi\AppData\Local\Temp\cchP1ZsS.s:17169  .debug_str:0000000000001d5d .LASF42
C:\Users\stapi\AppData\Local\Temp\cchP1ZsS.s:16431  .debug_str:000000000000078a .LASF43
C:\Users\stapi\AppData\Local\Temp\cchP1ZsS.s:17439  .debug_str:00000000000024af .LASF44
C:\Users\stapi\AppData\Local\Temp\cchP1ZsS.s:17029  .debug_str:00000000000019a1 .LASF45
C:\Users\stapi\AppData\Local\Temp\cchP1ZsS.s:17425  .debug_str:0000000000002469 .LASF46
C:\Users\stapi\AppData\Local\Temp\cchP1ZsS.s:16577  .debug_str:0000000000000b5a .LASF47
C:\Users\stapi\AppData\Local\Temp\cchP1ZsS.s:16425  .debug_str:0000000000000765 .LASF48
C:\Users\stapi\AppData\Local\Temp\cchP1ZsS.s:17207  .debug_str:0000000000001e55 .LASF49
C:\Users\stapi\AppData\Local\Temp\cchP1ZsS.s:16267  .debug_str:0000000000000334 .LASF50
C:\Users\stapi\AppData\Local\Temp\cchP1ZsS.s:16773  .debug_str:0000000000001185 .LASF51
C:\Users\stapi\AppData\Local\Temp\cchP1ZsS.s:17013  .debug_str:0000000000001910 .LASF52
C:\Users\stapi\AppData\Local\Temp\cchP1ZsS.s:16373  .debug_str:000000000000060c .LASF53
C:\Users\stapi\AppData\Local\Temp\cchP1ZsS.s:17421  .debug_str:000000000000245b .LASF54
C:\Users\stapi\AppData\Local\Temp\cchP1ZsS.s:16677  .debug_str:0000000000000e1c .LASF55
C:\Users\stapi\AppData\Local\Temp\cchP1ZsS.s:16187  .debug_str:00000000000000f9 .LASF56
C:\Users\stapi\AppData\Local\Temp\cchP1ZsS.s:16207  .debug_str:0000000000000169 .LASF57
C:\Users\stapi\AppData\Local\Temp\cchP1ZsS.s:17479  .debug_str:000000000000265c .LASF58
C:\Users\stapi\AppData\Local\Temp\cchP1ZsS.s:16581  .debug_str:0000000000000b6c .LASF59
C:\Users\stapi\AppData\Local\Temp\cchP1ZsS.s:16999  .debug_str:00000000000018ab .LASF60
C:\Users\stapi\AppData\Local\Temp\cchP1ZsS.s:16239  .debug_str:0000000000000263 .LASF61
C:\Users\stapi\AppData\Local\Temp\cchP1ZsS.s:17199  .debug_str:0000000000001e22 .LASF62
C:\Users\stapi\AppData\Local\Temp\cchP1ZsS.s:16717  .debug_str:0000000000000f69 .LASF63
C:\Users\stapi\AppData\Local\Temp\cchP1ZsS.s:17267  .debug_str:0000000000001faa .LASF64
C:\Users\stapi\AppData\Local\Temp\cchP1ZsS.s:16273  .debug_str:0000000000000352 .LASF65
C:\Users\stapi\AppData\Local\Temp\cchP1ZsS.s:16803  .debug_str:000000000000134c .LASF66
C:\Users\stapi\AppData\Local\Temp\cchP1ZsS.s:16777  .debug_str:0000000000001198 .LASF67
C:\Users\stapi\AppData\Local\Temp\cchP1ZsS.s:16541  .debug_str:0000000000000a6e .LASF68
C:\Users\stapi\AppData\Local\Temp\cchP1ZsS.s:16807  .debug_str:0000000000001360 .LASF69
C:\Users\stapi\AppData\Local\Temp\cchP1ZsS.s:16271  .debug_str:000000000000034b .LASF70
C:\Users\stapi\AppData\Local\Temp\cchP1ZsS.s:17183  .debug_str:0000000000001da9 .LASF71
C:\Users\stapi\AppData\Local\Temp\cchP1ZsS.s:17003  .debug_str:00000000000018b9 .LASF72
C:\Users\stapi\AppData\Local\Temp\cchP1ZsS.s:17423  .debug_str:0000000000002464 .LASF73
C:\Users\stapi\AppData\Local\Temp\cchP1ZsS.s:16865  .debug_str:0000000000001506 .LASF74
C:\Users\stapi\AppData\Local\Temp\cchP1ZsS.s:17575  .debug_str:000000000000293f .LASF75
C:\Users\stapi\AppData\Local\Temp\cchP1ZsS.s:17461  .debug_str:00000000000025dc .LASF76
C:\Users\stapi\AppData\Local\Temp\cchP1ZsS.s:16775  .debug_str:000000000000118d .LASF77
C:\Users\stapi\AppData\Local\Temp\cchP1ZsS.s:16201  .debug_str:000000000000014f .LASF78
C:\Users\stapi\AppData\Local\Temp\cchP1ZsS.s:17483  .debug_str:000000000000267c .LASF79
C:\Users\stapi\AppData\Local\Temp\cchP1ZsS.s:17401  .debug_str:00000000000023b4 .LASF80
C:\Users\stapi\AppData\Local\Temp\cchP1ZsS.s:16759  .debug_str:0000000000001106 .LASF81
C:\Users\stapi\AppData\Local\Temp\cchP1ZsS.s:16909  .debug_str:0000000000001633 .LASF82
C:\Users\stapi\AppData\Local\Temp\cchP1ZsS.s:17435  .debug_str:00000000000024a0 .LASF83
C:\Users\stapi\AppData\Local\Temp\cchP1ZsS.s:16719  .debug_str:0000000000000f71 .LASF84
C:\Users\stapi\AppData\Local\Temp\cchP1ZsS.s:16995  .debug_str:0000000000001898 .LASF85
C:\Users\stapi\AppData\Local\Temp\cchP1ZsS.s:16843  .debug_str:000000000000146f .LASF86
C:\Users\stapi\AppData\Local\Temp\cchP1ZsS.s:16699  .debug_str:0000000000000ecc .LASF87
C:\Users\stapi\AppData\Local\Temp\cchP1ZsS.s:16891  .debug_str:00000000000015b7 .LASF88
C:\Users\stapi\AppData\Local\Temp\cchP1ZsS.s:16183  .debug_str:00000000000000ec .LASF89
C:\Users\stapi\AppData\Local\Temp\cchP1ZsS.s:16573  .debug_str:0000000000000b4c .LASF90
C:\Users\stapi\AppData\Local\Temp\cchP1ZsS.s:17241  .debug_str:0000000000001f30 .LASF91
C:\Users\stapi\AppData\Local\Temp\cchP1ZsS.s:16917  .debug_str:000000000000165a .LASF92
C:\Users\stapi\AppData\Local\Temp\cchP1ZsS.s:16883  .debug_str:0000000000001580 .LASF93
C:\Users\stapi\AppData\Local\Temp\cchP1ZsS.s:16913  .debug_str:000000000000164a .LASF94
C:\Users\stapi\AppData\Local\Temp\cchP1ZsS.s:17177  .debug_str:0000000000001d90 .LASF95
C:\Users\stapi\AppData\Local\Temp\cchP1ZsS.s:17107  .debug_str:0000000000001bbe .LASF96
C:\Users\stapi\AppData\Local\Temp\cchP1ZsS.s:16297  .debug_str:0000000000000401 .LASF97
C:\Users\stapi\AppData\Local\Temp\cchP1ZsS.s:17507  .debug_str:000000000000272c .LASF98
C:\Users\stapi\AppData\Local\Temp\cchP1ZsS.s:17149  .debug_str:0000000000001cc5 .LASF99
C:\Users\stapi\AppData\Local\Temp\cchP1ZsS.s:17215  .debug_str:0000000000001e78 .LASF100
C:\Users\stapi\AppData\Local\Temp\cchP1ZsS.s:16211  .debug_str:0000000000000185 .LASF101
C:\Users\stapi\AppData\Local\Temp\cchP1ZsS.s:16419  .debug_str:0000000000000736 .LASF102
C:\Users\stapi\AppData\Local\Temp\cchP1ZsS.s:16897  .debug_str:00000000000015db .LASF103
C:\Users\stapi\AppData\Local\Temp\cchP1ZsS.s:17525  .debug_str:00000000000027c0 .LASF104
C:\Users\stapi\AppData\Local\Temp\cchP1ZsS.s:17251  .debug_str:0000000000001f61 .LASF105
C:\Users\stapi\AppData\Local\Temp\cchP1ZsS.s:17343  .debug_str:00000000000021f1 .LASF106
C:\Users\stapi\AppData\Local\Temp\cchP1ZsS.s:17133  .debug_str:0000000000001c4b .LASF107
C:\Users\stapi\AppData\Local\Temp\cchP1ZsS.s:17005  .debug_str:00000000000018c1 .LASF108
C:\Users\stapi\AppData\Local\Temp\cchP1ZsS.s:16245  .debug_str:000000000000027f .LASF109
C:\Users\stapi\AppData\Local\Temp\cchP1ZsS.s:16815  .debug_str:000000000000139e .LASF110
C:\Users\stapi\AppData\Local\Temp\cchP1ZsS.s:16295  .debug_str:00000000000003f4 .LASF111
C:\Users\stapi\AppData\Local\Temp\cchP1ZsS.s:16381  .debug_str:0000000000000643 .LASF112
C:\Users\stapi\AppData\Local\Temp\cchP1ZsS.s:17223  .debug_str:0000000000001eac .LASF113
C:\Users\stapi\AppData\Local\Temp\cchP1ZsS.s:17537  .debug_str:000000000000280e .LASF114
C:\Users\stapi\AppData\Local\Temp\cchP1ZsS.s:16981  .debug_str:0000000000001823 .LASF115
C:\Users\stapi\AppData\Local\Temp\cchP1ZsS.s:16929  .debug_str:0000000000001692 .LASF116
C:\Users\stapi\AppData\Local\Temp\cchP1ZsS.s:16959  .debug_str:000000000000176e .LASF117
C:\Users\stapi\AppData\Local\Temp\cchP1ZsS.s:17443  .debug_str:00000000000024cd .LASF118
C:\Users\stapi\AppData\Local\Temp\cchP1ZsS.s:16895  .debug_str:00000000000015d2 .LASF119
C:\Users\stapi\AppData\Local\Temp\cchP1ZsS.s:16233  .debug_str:0000000000000240 .LASF120
C:\Users\stapi\AppData\Local\Temp\cchP1ZsS.s:16173  .debug_str:0000000000000099 .LASF189
C:\Users\stapi\AppData\Local\Temp\cchP1ZsS.s:16483  .debug_str:0000000000000900 .LASF121
C:\Users\stapi\AppData\Local\Temp\cchP1ZsS.s:17167  .debug_str:0000000000001d54 .LASF122
C:\Users\stapi\AppData\Local\Temp\cchP1ZsS.s:17475  .debug_str:000000000000263d .LASF123
C:\Users\stapi\AppData\Local\Temp\cchP1ZsS.s:16393  .debug_str:000000000000069d .LASF124
C:\Users\stapi\AppData\Local\Temp\cchP1ZsS.s:17281  .debug_str:0000000000001ffc .LASF125
C:\Users\stapi\AppData\Local\Temp\cchP1ZsS.s:16557  .debug_str:0000000000000ae1 .LASF126
C:\Users\stapi\AppData\Local\Temp\cchP1ZsS.s:16685  .debug_str:0000000000000e63 .LASF127
C:\Users\stapi\AppData\Local\Temp\cchP1ZsS.s:17271  .debug_str:0000000000001fbb .LASF128
C:\Users\stapi\AppData\Local\Temp\cchP1ZsS.s:17459  .debug_str:00000000000025d5 .LASF129
C:\Users\stapi\AppData\Local\Temp\cchP1ZsS.s:16467  .debug_str:0000000000000891 .LASF130
C:\Users\stapi\AppData\Local\Temp\cchP1ZsS.s:17147  .debug_str:0000000000001cc0 .LASF131
C:\Users\stapi\AppData\Local\Temp\cchP1ZsS.s:16189  .debug_str:00000000000000ff .LASF132
C:\Users\stapi\AppData\Local\Temp\cchP1ZsS.s:16633  .debug_str:0000000000000ce3 .LASF133
C:\Users\stapi\AppData\Local\Temp\cchP1ZsS.s:16599  .debug_str:0000000000000be2 .LASF134
C:\Users\stapi\AppData\Local\Temp\cchP1ZsS.s:17599  .debug_str:00000000000029c7 .LASF135
C:\Users\stapi\AppData\Local\Temp\cchP1ZsS.s:16511  .debug_str:00000000000009b1 .LASF136
C:\Users\stapi\AppData\Local\Temp\cchP1ZsS.s:16679  .debug_str:0000000000000e24 .LASF137
C:\Users\stapi\AppData\Local\Temp\cchP1ZsS.s:16703  .debug_str:0000000000000ef1 .LASF138
C:\Users\stapi\AppData\Local\Temp\cchP1ZsS.s:17117  .debug_str:0000000000001bfa .LASF139
C:\Users\stapi\AppData\Local\Temp\cchP1ZsS.s:16209  .debug_str:0000000000000170 .LASF196
C:\Users\stapi\AppData\Local\Temp\cchP1ZsS.s:17551  .debug_str:000000000000288f .LASF140
C:\Users\stapi\AppData\Local\Temp\cchP1ZsS.s:16195  .debug_str:000000000000011a .LASF141
C:\Users\stapi\AppData\Local\Temp\cchP1ZsS.s:16301  .debug_str:0000000000000415 .LASF142
C:\Users\stapi\AppData\Local\Temp\cchP1ZsS.s:17233  .debug_str:0000000000001efe .LASF143
C:\Users\stapi\AppData\Local\Temp\cchP1ZsS.s:17521  .debug_str:000000000000279c .LASF144
C:\Users\stapi\AppData\Local\Temp\cchP1ZsS.s:16765  .debug_str:000000000000112e .LASF145
C:\Users\stapi\AppData\Local\Temp\cchP1ZsS.s:17315  .debug_str:000000000000210a .LASF146
C:\Users\stapi\AppData\Local\Temp\cchP1ZsS.s:17359  .debug_str:0000000000002267 .LASF147
C:\Users\stapi\AppData\Local\Temp\cchP1ZsS.s:16781  .debug_str:00000000000011b0 .LASF148
C:\Users\stapi\AppData\Local\Temp\cchP1ZsS.s:17363  .debug_str:0000000000002272 .LASF149
C:\Users\stapi\AppData\Local\Temp\cchP1ZsS.s:16429  .debug_str:0000000000000774 .LASF150
C:\Users\stapi\AppData\Local\Temp\cchP1ZsS.s:17473  .debug_str:0000000000002638 .LASF151
C:\Users\stapi\AppData\Local\Temp\cchP1ZsS.s:17331  .debug_str:0000000000002191 .LASF152
C:\Users\stapi\AppData\Local\Temp\cchP1ZsS.s:16851  .debug_str:000000000000149e .LASF153
C:\Users\stapi\AppData\Local\Temp\cchP1ZsS.s:17531  .debug_str:00000000000027df .LASF154
C:\Users\stapi\AppData\Local\Temp\cchP1ZsS.s:16733  .debug_str:0000000000000fbf .LASF155
C:\Users\stapi\AppData\Local\Temp\cchP1ZsS.s:16321  .debug_str:00000000000004a3 .LASF156
C:\Users\stapi\AppData\Local\Temp\cchP1ZsS.s:16651  .debug_str:0000000000000d71 .LASF157
C:\Users\stapi\AppData\Local\Temp\cchP1ZsS.s:16167  .debug_str:0000000000000076 .LASF158
C:\Users\stapi\AppData\Local\Temp\cchP1ZsS.s:17089  .debug_str:0000000000001b33 .LASF159
C:\Users\stapi\AppData\Local\Temp\cchP1ZsS.s:16607  .debug_str:0000000000000c1b .LASF160
C:\Users\stapi\AppData\Local\Temp\cchP1ZsS.s:17299  .debug_str:0000000000002074 .LASF161
C:\Users\stapi\AppData\Local\Temp\cchP1ZsS.s:16521  .debug_str:00000000000009ed .LASF162
C:\Users\stapi\AppData\Local\Temp\cchP1ZsS.s:16415  .debug_str:000000000000070f .LASF163
C:\Users\stapi\AppData\Local\Temp\cchP1ZsS.s:16829  .debug_str:00000000000013fb .LASF164
C:\Users\stapi\AppData\Local\Temp\cchP1ZsS.s:16413  .debug_str:0000000000000706 .LASF165
C:\Users\stapi\AppData\Local\Temp\cchP1ZsS.s:16927  .debug_str:0000000000001684 .LASF166
C:\Users\stapi\AppData\Local\Temp\cchP1ZsS.s:16555  .debug_str:0000000000000ad1 .LASF167
C:\Users\stapi\AppData\Local\Temp\cchP1ZsS.s:16181  .debug_str:00000000000000d5 .LASF168
C:\Users\stapi\AppData\Local\Temp\cchP1ZsS.s:16263  .debug_str:000000000000030d .LASF169
C:\Users\stapi\AppData\Local\Temp\cchP1ZsS.s:16659  .debug_str:0000000000000d98 .LASF170
C:\Users\stapi\AppData\Local\Temp\cchP1ZsS.s:16993  .debug_str:000000000000188c .LASF171
C:\Users\stapi\AppData\Local\Temp\cchP1ZsS.s:17415  .debug_str:0000000000002434 .LASF172
C:\Users\stapi\AppData\Local\Temp\cchP1ZsS.s:17325  .debug_str:0000000000002159 .LASF173
C:\Users\stapi\AppData\Local\Temp\cchP1ZsS.s:17135  .debug_str:0000000000001c59 .LASF174
C:\Users\stapi\AppData\Local\Temp\cchP1ZsS.s:16809  .debug_str:0000000000001367 .LASF175
C:\Users\stapi\AppData\Local\Temp\cchP1ZsS.s:17237  .debug_str:0000000000001f1d .LASF176
C:\Users\stapi\AppData\Local\Temp\cchP1ZsS.s:16901  .debug_str:00000000000015fa .LASF177
C:\Users\stapi\AppData\Local\Temp\cchP1ZsS.s:16287  .debug_str:00000000000003b8 .LASF178
C:\Users\stapi\AppData\Local\Temp\cchP1ZsS.s:16509  .debug_str:00000000000009a0 .LASF179
C:\Users\stapi\AppData\Local\Temp\cchP1ZsS.s:17407  .debug_str:00000000000023e8 .LASF180
C:\Users\stapi\AppData\Local\Temp\cchP1ZsS.s:17061  .debug_str:0000000000001a65 .LASF181
C:\Users\stapi\AppData\Local\Temp\cchP1ZsS.s:17313  .debug_str:00000000000020f8 .LASF182
C:\Users\stapi\AppData\Local\Temp\cchP1ZsS.s:16611  .debug_str:0000000000000c3d .LASF183
C:\Users\stapi\AppData\Local\Temp\cchP1ZsS.s:17457  .debug_str:00000000000025c3 .LASF184
C:\Users\stapi\AppData\Local\Temp\cchP1ZsS.s:16461  .debug_str:0000000000000865 .LASF185
C:\Users\stapi\AppData\Local\Temp\cchP1ZsS.s:16459  .debug_str:000000000000085e .LASF186
C:\Users\stapi\AppData\Local\Temp\cchP1ZsS.s:16825  .debug_str:00000000000013ed .LASF187
C:\Users\stapi\AppData\Local\Temp\cchP1ZsS.s:16569  .debug_str:0000000000000b37 .LASF188
C:\Users\stapi\AppData\Local\Temp\cchP1ZsS.s:16997  .debug_str:000000000000189d .LASF190
C:\Users\stapi\AppData\Local\Temp\cchP1ZsS.s:16369  .debug_str:00000000000005f0 .LASF191
C:\Users\stapi\AppData\Local\Temp\cchP1ZsS.s:16405  .debug_str:00000000000006df .LASF192
C:\Users\stapi\AppData\Local\Temp\cchP1ZsS.s:17603  .debug_str:00000000000029d8 .LASF193
C:\Users\stapi\AppData\Local\Temp\cchP1ZsS.s:17585  .debug_str:0000000000002986 .LASF194
C:\Users\stapi\AppData\Local\Temp\cchP1ZsS.s:17181  .debug_str:0000000000001da2 .LASF195
C:\Users\stapi\AppData\Local\Temp\cchP1ZsS.s:17165  .debug_str:0000000000001d48 .LASF197
C:\Users\stapi\AppData\Local\Temp\cchP1ZsS.s:17187  .debug_str:0000000000001dc8 .LASF198
C:\Users\stapi\AppData\Local\Temp\cchP1ZsS.s:16817  .debug_str:00000000000013aa .LASF199
C:\Users\stapi\AppData\Local\Temp\cchP1ZsS.s:17143  .debug_str:0000000000001c98 .LASF200
C:\Users\stapi\AppData\Local\Temp\cchP1ZsS.s:16469  .debug_str:0000000000000898 .LASF201
C:\Users\stapi\AppData\Local\Temp\cchP1ZsS.s:16989  .debug_str:0000000000001866 .LASF202
C:\Users\stapi\AppData\Local\Temp\cchP1ZsS.s:17379  .debug_str:0000000000002309 .LASF203
C:\Users\stapi\AppData\Local\Temp\cchP1ZsS.s:16985  .debug_str:0000000000001841 .LASF204
C:\Users\stapi\AppData\Local\Temp\cchP1ZsS.s:16453  .debug_str:0000000000000823 .LASF205
C:\Users\stapi\AppData\Local\Temp\cchP1ZsS.s:16217  .debug_str:00000000000001c3 .LASF206
C:\Users\stapi\AppData\Local\Temp\cchP1ZsS.s:16463  .debug_str:0000000000000877 .LASF207
C:\Users\stapi\AppData\Local\Temp\cchP1ZsS.s:16439  .debug_str:00000000000007b3 .LASF208
C:\Users\stapi\AppData\Local\Temp\cchP1ZsS.s:17221  .debug_str:0000000000001e99 .LASF209
C:\Users\stapi\AppData\Local\Temp\cchP1ZsS.s:17469  .debug_str:000000000000260d .LASF210
C:\Users\stapi\AppData\Local\Temp\cchP1ZsS.s:16971  .debug_str:00000000000017dc .LASF211
C:\Users\stapi\AppData\Local\Temp\cchP1ZsS.s:17455  .debug_str:00000000000025b4 .LASF212
C:\Users\stapi\AppData\Local\Temp\cchP1ZsS.s:16861  .debug_str:00000000000014e7 .LASF213
C:\Users\stapi\AppData\Local\Temp\cchP1ZsS.s:16639  .debug_str:0000000000000d0d .LASF214
C:\Users\stapi\AppData\Local\Temp\cchP1ZsS.s:17197  .debug_str:0000000000001e08 .LASF215
C:\Users\stapi\AppData\Local\Temp\cchP1ZsS.s:16159  .debug_str:000000000000003b .LASF216
C:\Users\stapi\AppData\Local\Temp\cchP1ZsS.s:16185  .debug_str:00000000000000f1 .LASF217
C:\Users\stapi\AppData\Local\Temp\cchP1ZsS.s:17555  .debug_str:00000000000028cd .LASF218
C:\Users\stapi\AppData\Local\Temp\cchP1ZsS.s:17329  .debug_str:000000000000217d .LASF219
C:\Users\stapi\AppData\Local\Temp\cchP1ZsS.s:16293  .debug_str:00000000000003ef .LASF220
C:\Users\stapi\AppData\Local\Temp\cchP1ZsS.s:16489  .debug_str:000000000000091b .LASF221
C:\Users\stapi\AppData\Local\Temp\cchP1ZsS.s:16977  .debug_str:0000000000001803 .LASF222
C:\Users\stapi\AppData\Local\Temp\cchP1ZsS.s:16975  .debug_str:00000000000017fa .LASF223
C:\Users\stapi\AppData\Local\Temp\cchP1ZsS.s:17413  .debug_str:000000000000242d .LASF224
C:\Users\stapi\AppData\Local\Temp\cchP1ZsS.s:16705  .debug_str:0000000000000efd .LASF225
C:\Users\stapi\AppData\Local\Temp\cchP1ZsS.s:17293  .debug_str:000000000000204f .LASF226
C:\Users\stapi\AppData\Local\Temp\cchP1ZsS.s:17583  .debug_str:0000000000002980 .LASF227
C:\Users\stapi\AppData\Local\Temp\cchP1ZsS.s:17053  .debug_str:0000000000001a30 .LASF228
C:\Users\stapi\AppData\Local\Temp\cchP1ZsS.s:16157  .debug_str:0000000000000030 .LASF229
C:\Users\stapi\AppData\Local\Temp\cchP1ZsS.s:17287  .debug_str:0000000000002017 .LASF230
C:\Users\stapi\AppData\Local\Temp\cchP1ZsS.s:16635  .debug_str:0000000000000ce9 .LASF231
C:\Users\stapi\AppData\Local\Temp\cchP1ZsS.s:16605  .debug_str:0000000000000c15 .LASF232
C:\Users\stapi\AppData\Local\Temp\cchP1ZsS.s:17389  .debug_str:000000000000235b .LASF233
C:\Users\stapi\AppData\Local\Temp\cchP1ZsS.s:16465  .debug_str:0000000000000889 .LASF234
C:\Users\stapi\AppData\Local\Temp\cchP1ZsS.s:16537  .debug_str:0000000000000a52 .LASF235
C:\Users\stapi\AppData\Local\Temp\cchP1ZsS.s:17001  .debug_str:00000000000018b1 .LASF236
C:\Users\stapi\AppData\Local\Temp\cchP1ZsS.s:17541  .debug_str:000000000000282d .LASF237
C:\Users\stapi\AppData\Local\Temp\cchP1ZsS.s:17043  .debug_str:00000000000019f8 .LASF238
C:\Users\stapi\AppData\Local\Temp\cchP1ZsS.s:16769  .debug_str:000000000000115a .LASF239
C:\Users\stapi\AppData\Local\Temp\cchP1ZsS.s:17485  .debug_str:0000000000002684 .LASF240
C:\Users\stapi\AppData\Local\Temp\cchP1ZsS.s:16987  .debug_str:0000000000001859 .LASF241
C:\Users\stapi\AppData\Local\Temp\cchP1ZsS.s:17539  .debug_str:000000000000281f .LASF242
C:\Users\stapi\AppData\Local\Temp\cchP1ZsS.s:16535  .debug_str:0000000000000a48 .LASF243
C:\Users\stapi\AppData\Local\Temp\cchP1ZsS.s:17337  .debug_str:00000000000021ba .LASF244
C:\Users\stapi\AppData\Local\Temp\cchP1ZsS.s:16385  .debug_str:000000000000065d .LASF245
C:\Users\stapi\AppData\Local\Temp\cchP1ZsS.s:17611  .debug_str:0000000000002a07 .LASF246
C:\Users\stapi\AppData\Local\Temp\cchP1ZsS.s:16487  .debug_str:0000000000000910 .LASF247
C:\Users\stapi\AppData\Local\Temp\cchP1ZsS.s:16755  .debug_str:00000000000010e1 .LASF248
C:\Users\stapi\AppData\Local\Temp\cchP1ZsS.s:17527  .debug_str:00000000000027cb .LASF249
C:\Users\stapi\AppData\Local\Temp\cchP1ZsS.s:16319  .debug_str:0000000000000490 .LASF250
C:\Users\stapi\AppData\Local\Temp\cchP1ZsS.s:16727  .debug_str:0000000000000f95 .LASF251
C:\Users\stapi\AppData\Local\Temp\cchP1ZsS.s:17601  .debug_str:00000000000029d3 .LASF252
C:\Users\stapi\AppData\Local\Temp\cchP1ZsS.s:16747  .debug_str:000000000000102e .LASF253
C:\Users\stapi\AppData\Local\Temp\cchP1ZsS.s:17031  .debug_str:00000000000019a9 .LASF254
C:\Users\stapi\AppData\Local\Temp\cchP1ZsS.s:16885  .debug_str:0000000000001587 .LASF255
C:\Users\stapi\AppData\Local\Temp\cchP1ZsS.s:17265  .debug_str:0000000000001f9d .LASF256
C:\Users\stapi\AppData\Local\Temp\cchP1ZsS.s:16347  .debug_str:000000000000056a .LASF257
C:\Users\stapi\AppData\Local\Temp\cchP1ZsS.s:16199  .debug_str:0000000000000143 .LASF258
C:\Users\stapi\AppData\Local\Temp\cchP1ZsS.s:17171  .debug_str:0000000000001d69 .LASF259
C:\Users\stapi\AppData\Local\Temp\cchP1ZsS.s:16797  .debug_str:0000000000001325 .LASF260
C:\Users\stapi\AppData\Local\Temp\cchP1ZsS.s:17597  .debug_str:00000000000029c1 .LASF261
C:\Users\stapi\AppData\Local\Temp\cchP1ZsS.s:16355  .debug_str:0000000000000593 .LASF262
C:\Users\stapi\AppData\Local\Temp\cchP1ZsS.s:16249  .debug_str:000000000000029c .LASF263
C:\Users\stapi\AppData\Local\Temp\cchP1ZsS.s:16433  .debug_str:0000000000000793 .LASF264
C:\Users\stapi\AppData\Local\Temp\cchP1ZsS.s:17517  .debug_str:0000000000002782 .LASF265
C:\Users\stapi\AppData\Local\Temp\cchP1ZsS.s:17609  .debug_str:0000000000002a00 .LASF266
C:\Users\stapi\AppData\Local\Temp\cchP1ZsS.s:16819  .debug_str:00000000000013c9 .LASF267
C:\Users\stapi\AppData\Local\Temp\cchP1ZsS.s:17155  .debug_str:0000000000001d07 .LASF268
C:\Users\stapi\AppData\Local\Temp\cchP1ZsS.s:16711  .debug_str:0000000000000f43 .LASF269
C:\Users\stapi\AppData\Local\Temp\cchP1ZsS.s:16963  .debug_str:0000000000001788 .LASF270
C:\Users\stapi\AppData\Local\Temp\cchP1ZsS.s:16749  .debug_str:000000000000103e .LASF271
C:\Users\stapi\AppData\Local\Temp\cchP1ZsS.s:17021  .debug_str:000000000000196b .LASF272
C:\Users\stapi\AppData\Local\Temp\cchP1ZsS.s:17225  .debug_str:0000000000001ebb .LASF273
C:\Users\stapi\AppData\Local\Temp\cchP1ZsS.s:17353  .debug_str:0000000000002234 .LASF274
C:\Users\stapi\AppData\Local\Temp\cchP1ZsS.s:16491  .debug_str:000000000000092c .LASF275
C:\Users\stapi\AppData\Local\Temp\cchP1ZsS.s:17049  .debug_str:0000000000001a17 .LASF276
C:\Users\stapi\AppData\Local\Temp\cchP1ZsS.s:16831  .debug_str:000000000000140e .LASF277
C:\Users\stapi\AppData\Local\Temp\cchP1ZsS.s:16671  .debug_str:0000000000000dfc .LASF278
C:\Users\stapi\AppData\Local\Temp\cchP1ZsS.s:16539  .debug_str:0000000000000a60 .LASF279
C:\Users\stapi\AppData\Local\Temp\cchP1ZsS.s:16899  .debug_str:00000000000015ea .LASF280
C:\Users\stapi\AppData\Local\Temp\cchP1ZsS.s:16359  .debug_str:00000000000005a9 .LASF281
C:\Users\stapi\AppData\Local\Temp\cchP1ZsS.s:16261  .debug_str:0000000000000301 .LASF282
C:\Users\stapi\AppData\Local\Temp\cchP1ZsS.s:17033  .debug_str:00000000000019b1 .LASF283
C:\Users\stapi\AppData\Local\Temp\cchP1ZsS.s:16421  .debug_str:0000000000000745 .LASF284
C:\Users\stapi\AppData\Local\Temp\cchP1ZsS.s:17605  .debug_str:00000000000029df .LASF285
C:\Users\stapi\AppData\Local\Temp\cchP1ZsS.s:16933  .debug_str:00000000000016b1 .LASF286
C:\Users\stapi\AppData\Local\Temp\cchP1ZsS.s:17489  .debug_str:00000000000026ae .LASF287
C:\Users\stapi\AppData\Local\Temp\cchP1ZsS.s:17545  .debug_str:000000000000285e .LASF288
C:\Users\stapi\AppData\Local\Temp\cchP1ZsS.s:17361  .debug_str:000000000000226d .LASF289
C:\Users\stapi\AppData\Local\Temp\cchP1ZsS.s:16515  .debug_str:00000000000009cb .LASF290
C:\Users\stapi\AppData\Local\Temp\cchP1ZsS.s:17321  .debug_str:000000000000213c .LASF291
C:\Users\stapi\AppData\Local\Temp\cchP1ZsS.s:16365  .debug_str:00000000000005d7 .LASF292
C:\Users\stapi\AppData\Local\Temp\cchP1ZsS.s:16387  .debug_str:0000000000000662 .LASF293
C:\Users\stapi\AppData\Local\Temp\cchP1ZsS.s:16305  .debug_str:0000000000000433 .LASF294
C:\Users\stapi\AppData\Local\Temp\cchP1ZsS.s:16423  .debug_str:000000000000074f .LASF295
C:\Users\stapi\AppData\Local\Temp\cchP1ZsS.s:16835  .debug_str:000000000000141f .LASF296
C:\Users\stapi\AppData\Local\Temp\cchP1ZsS.s:16335  .debug_str:0000000000000510 .LASF297
C:\Users\stapi\AppData\Local\Temp\cchP1ZsS.s:17253  .debug_str:0000000000001f66 .LASF298
C:\Users\stapi\AppData\Local\Temp\cchP1ZsS.s:16653  .debug_str:0000000000000d7a .LASF299
C:\Users\stapi\AppData\Local\Temp\cchP1ZsS.s:16683  .debug_str:0000000000000e4c .LASF300
C:\Users\stapi\AppData\Local\Temp\cchP1ZsS.s:16675  .debug_str:0000000000000e13 .LASF301
C:\Users\stapi\AppData\Local\Temp\cchP1ZsS.s:17201  .debug_str:0000000000001e2b .LASF302
C:\Users\stapi\AppData\Local\Temp\cchP1ZsS.s:17189  .debug_str:0000000000001de1 .LASF303
C:\Users\stapi\AppData\Local\Temp\cchP1ZsS.s:16279  .debug_str:0000000000000377 .LASF304
C:\Users\stapi\AppData\Local\Temp\cchP1ZsS.s:16403  .debug_str:00000000000006d2 .LASF305
C:\Users\stapi\AppData\Local\Temp\cchP1ZsS.s:17023  .debug_str:0000000000001978 .LASF306
C:\Users\stapi\AppData\Local\Temp\cchP1ZsS.s:16661  .debug_str:0000000000000da9 .LASF307
C:\Users\stapi\AppData\Local\Temp\cchP1ZsS.s:16821  .debug_str:00000000000013d4 .LASF308
C:\Users\stapi\AppData\Local\Temp\cchP1ZsS.s:16331  .debug_str:00000000000004f1 .LASF309
C:\Users\stapi\AppData\Local\Temp\cchP1ZsS.s:16285  .debug_str:00000000000003ad .LASF310
C:\Users\stapi\AppData\Local\Temp\cchP1ZsS.s:16435  .debug_str:000000000000079d .LASF311
C:\Users\stapi\AppData\Local\Temp\cchP1ZsS.s:17375  .debug_str:00000000000022e6 .LASF312
C:\Users\stapi\AppData\Local\Temp\cchP1ZsS.s:16793  .debug_str:00000000000012f5 .LASF313
C:\Users\stapi\AppData\Local\Temp\cchP1ZsS.s:17305  .debug_str:00000000000020b7 .LASF314
C:\Users\stapi\AppData\Local\Temp\cchP1ZsS.s:16853  .debug_str:00000000000014ac .LASF315
C:\Users\stapi\AppData\Local\Temp\cchP1ZsS.s:16643  .debug_str:0000000000000d31 .LASF316
C:\Users\stapi\AppData\Local\Temp\cchP1ZsS.s:16161  .debug_str:0000000000000052 .LASF317
C:\Users\stapi\AppData\Local\Temp\cchP1ZsS.s:16729  .debug_str:0000000000000fa1 .LASF318
C:\Users\stapi\AppData\Local\Temp\cchP1ZsS.s:17065  .debug_str:0000000000001a7c .LASF319
C:\Users\stapi\AppData\Local\Temp\cchP1ZsS.s:17505  .debug_str:0000000000002726 .LASF320
C:\Users\stapi\AppData\Local\Temp\cchP1ZsS.s:16813  .debug_str:0000000000001392 .LASF321
C:\Users\stapi\AppData\Local\Temp\cchP1ZsS.s:17269  .debug_str:0000000000001fb0 .LASF322
C:\Users\stapi\AppData\Local\Temp\cchP1ZsS.s:16527  .debug_str:0000000000000a11 .LASF323
C:\Users\stapi\AppData\Local\Temp\cchP1ZsS.s:16259  .debug_str:00000000000002ed .LASF324
C:\Users\stapi\AppData\Local\Temp\cchP1ZsS.s:16973  .debug_str:00000000000017ec .LASF325
C:\Users\stapi\AppData\Local\Temp\cchP1ZsS.s:16931  .debug_str:00000000000016a3 .LASF326
C:\Users\stapi\AppData\Local\Temp\cchP1ZsS.s:16925  .debug_str:0000000000001678 .LASF327
C:\Users\stapi\AppData\Local\Temp\cchP1ZsS.s:16637  .debug_str:0000000000000d01 .LASF328
C:\Users\stapi\AppData\Local\Temp\cchP1ZsS.s:16341  .debug_str:000000000000052e .LASF329
C:\Users\stapi\AppData\Local\Temp\cchP1ZsS.s:16329  .debug_str:00000000000004dc .LASF330
C:\Users\stapi\AppData\Local\Temp\cchP1ZsS.s:16887  .debug_str:0000000000001596 .LASF331
C:\Users\stapi\AppData\Local\Temp\cchP1ZsS.s:17115  .debug_str:0000000000001bec .LASF332
C:\Users\stapi\AppData\Local\Temp\cchP1ZsS.s:16627  .debug_str:0000000000000c9e .LASF333
C:\Users\stapi\AppData\Local\Temp\cchP1ZsS.s:17319  .debug_str:0000000000002133 .LASF334
C:\Users\stapi\AppData\Local\Temp\cchP1ZsS.s:17105  .debug_str:0000000000001bae .LASF335
C:\Users\stapi\AppData\Local\Temp\cchP1ZsS.s:16849  .debug_str:0000000000001493 .LASF336
C:\Users\stapi\AppData\Local\Temp\cchP1ZsS.s:17327  .debug_str:000000000000216a .LASF337
C:\Users\stapi\AppData\Local\Temp\cchP1ZsS.s:17057  .debug_str:0000000000001a49 .LASF338
C:\Users\stapi\AppData\Local\Temp\cchP1ZsS.s:17429  .debug_str:000000000000247c .LASF339
C:\Users\stapi\AppData\Local\Temp\cchP1ZsS.s:17093  .debug_str:0000000000001b4e .LASF340
C:\Users\stapi\AppData\Local\Temp\cchP1ZsS.s:16227  .debug_str:000000000000021a .LASF341
C:\Users\stapi\AppData\Local\Temp\cchP1ZsS.s:16695  .debug_str:0000000000000ea0 .LASF342
C:\Users\stapi\AppData\Local\Temp\cchP1ZsS.s:17519  .debug_str:0000000000002789 .LASF343
C:\Users\stapi\AppData\Local\Temp\cchP1ZsS.s:16687  .debug_str:0000000000000e6d .LASF344
C:\Users\stapi\AppData\Local\Temp\cchP1ZsS.s:16175  .debug_str:00000000000000a4 .LASF345
C:\Users\stapi\AppData\Local\Temp\cchP1ZsS.s:16215  .debug_str:00000000000001ac .LASF346
C:\Users\stapi\AppData\Local\Temp\cchP1ZsS.s:16585  .debug_str:0000000000000b89 .LASF347
C:\Users\stapi\AppData\Local\Temp\cchP1ZsS.s:16343  .debug_str:0000000000000545 .LASF348
C:\Users\stapi\AppData\Local\Temp\cchP1ZsS.s:17301  .debug_str:0000000000002086 .LASF349
C:\Users\stapi\AppData\Local\Temp\cchP1ZsS.s:16629  .debug_str:0000000000000ca9 .LASF350
C:\Users\stapi\AppData\Local\Temp\cchP1ZsS.s:17039  .debug_str:00000000000019d3 .LASF351
C:\Users\stapi\AppData\Local\Temp\cchP1ZsS.s:17487  .debug_str:0000000000002695 .LASF352
C:\Users\stapi\AppData\Local\Temp\cchP1ZsS.s:17103  .debug_str:0000000000001b91 .LASF353
C:\Users\stapi\AppData\Local\Temp\cchP1ZsS.s:16603  .debug_str:0000000000000c05 .LASF354
C:\Users\stapi\AppData\Local\Temp\cchP1ZsS.s:16693  .debug_str:0000000000000e8c .LASF355
C:\Users\stapi\AppData\Local\Temp\cchP1ZsS.s:17007  .debug_str:00000000000018cf .LASF356
C:\Users\stapi\AppData\Local\Temp\cchP1ZsS.s:16289  .debug_str:00000000000003ca .LASF357
C:\Users\stapi\AppData\Local\Temp\cchP1ZsS.s:16505  .debug_str:0000000000000971 .LASF358
C:\Users\stapi\AppData\Local\Temp\cchP1ZsS.s:16203  .debug_str:0000000000000159 .LASF359
C:\Users\stapi\AppData\Local\Temp\cchP1ZsS.s:16303  .debug_str:0000000000000428 .LASF360
C:\Users\stapi\AppData\Local\Temp\cchP1ZsS.s:16559  .debug_str:0000000000000ae7 .LASF361
C:\Users\stapi\AppData\Local\Temp\cchP1ZsS.s:16647  .debug_str:0000000000000d4a .LASF362
C:\Users\stapi\AppData\Local\Temp\cchP1ZsS.s:17087  .debug_str:0000000000001b26 .LASF363
C:\Users\stapi\AppData\Local\Temp\cchP1ZsS.s:17493  .debug_str:00000000000026dd .LASF364
C:\Users\stapi\AppData\Local\Temp\cchP1ZsS.s:16855  .debug_str:00000000000014c5 .LASF365
C:\Users\stapi\AppData\Local\Temp\cchP1ZsS.s:16219  .debug_str:00000000000001dd .LASF366
C:\Users\stapi\AppData\Local\Temp\cchP1ZsS.s:16179  .debug_str:00000000000000cb .LASF367
C:\Users\stapi\AppData\Local\Temp\cchP1ZsS.s:16881  .debug_str:0000000000001570 .LASF368
C:\Users\stapi\AppData\Local\Temp\cchP1ZsS.s:17419  .debug_str:000000000000244e .LASF369
C:\Users\stapi\AppData\Local\Temp\cchP1ZsS.s:16531  .debug_str:0000000000000a2c .LASF370
C:\Users\stapi\AppData\Local\Temp\cchP1ZsS.s:16177  .debug_str:00000000000000b9 .LASF371
C:\Users\stapi\AppData\Local\Temp\cchP1ZsS.s:17209  .debug_str:0000000000001e5b .LASF372
C:\Users\stapi\AppData\Local\Temp\cchP1ZsS.s:17019  .debug_str:0000000000001950 .LASF373
C:\Users\stapi\AppData\Local\Temp\cchP1ZsS.s:17015  .debug_str:0000000000001917 .LASF374
C:\Users\stapi\AppData\Local\Temp\cchP1ZsS.s:17139  .debug_str:0000000000001c78 .LASF375
C:\Users\stapi\AppData\Local\Temp\cchP1ZsS.s:16451  .debug_str:0000000000000816 .LASF376
C:\Users\stapi\AppData\Local\Temp\cchP1ZsS.s:17591  .debug_str:0000000000002999 .LASF377
C:\Users\stapi\AppData\Local\Temp\cchP1ZsS.s:16655  .debug_str:0000000000000d83 .LASF378
C:\Users\stapi\AppData\Local\Temp\cchP1ZsS.s:16857  .debug_str:00000000000014cd .LASF379
C:\Users\stapi\AppData\Local\Temp\cchP1ZsS.s:16277  .debug_str:0000000000000363 .LASF380
C:\Users\stapi\AppData\Local\Temp\cchP1ZsS.s:16269  .debug_str:000000000000033a .LASF381
C:\Users\stapi\AppData\Local\Temp\cchP1ZsS.s:17041  .debug_str:00000000000019ea .LASF382
C:\Users\stapi\AppData\Local\Temp\cchP1ZsS.s:17427  .debug_str:000000000000246e .LASF383
C:\Users\stapi\AppData\Local\Temp\cchP1ZsS.s:17067  .debug_str:0000000000001a8f .LASF384
C:\Users\stapi\AppData\Local\Temp\cchP1ZsS.s:17185  .debug_str:0000000000001db1 .LASF385
C:\Users\stapi\AppData\Local\Temp\cchP1ZsS.s:17481  .debug_str:0000000000002662 .LASF386
C:\Users\stapi\AppData\Local\Temp\cchP1ZsS.s:16649  .debug_str:0000000000000d53 .LASF387
C:\Users\stapi\AppData\Local\Temp\cchP1ZsS.s:17535  .debug_str:0000000000002801 .LASF388
C:\Users\stapi\AppData\Local\Temp\cchP1ZsS.s:16315  .debug_str:000000000000047f .LASF389
C:\Users\stapi\AppData\Local\Temp\cchP1ZsS.s:17377  .debug_str:00000000000022f2 .LASF390
C:\Users\stapi\AppData\Local\Temp\cchP1ZsS.s:16983  .debug_str:0000000000001832 .LASF391
C:\Users\stapi\AppData\Local\Temp\cchP1ZsS.s:16417  .debug_str:0000000000000723 .LASF392
C:\Users\stapi\AppData\Local\Temp\cchP1ZsS.s:16313  .debug_str:0000000000000468 .LASF393
C:\Users\stapi\AppData\Local\Temp\cchP1ZsS.s:17387  .debug_str:0000000000002353 .LASF394
C:\Users\stapi\AppData\Local\Temp\cchP1ZsS.s:16473  .debug_str:00000000000008b1 .LASF395
C:\Users\stapi\AppData\Local\Temp\cchP1ZsS.s:17411  .debug_str:0000000000002420 .LASF396
C:\Users\stapi\AppData\Local\Temp\cchP1ZsS.s:17119  .debug_str:0000000000001c04 .LASF397
C:\Users\stapi\AppData\Local\Temp\cchP1ZsS.s:17059  .debug_str:0000000000001a58 .LASF398
C:\Users\stapi\AppData\Local\Temp\cchP1ZsS.s:17291  .debug_str:000000000000203c .LASF399
C:\Users\stapi\AppData\Local\Temp\cchP1ZsS.s:17465  .debug_str:00000000000025ec .LASF400
C:\Users\stapi\AppData\Local\Temp\cchP1ZsS.s:16667  .debug_str:0000000000000ddb .LASF401
C:\Users\stapi\AppData\Local\Temp\cchP1ZsS.s:17037  .debug_str:00000000000019c9 .LASF402
C:\Users\stapi\AppData\Local\Temp\cchP1ZsS.s:16763  .debug_str:000000000000111d .LASF403
C:\Users\stapi\AppData\Local\Temp\cchP1ZsS.s:17227  .debug_str:0000000000001ec3 .LASF404
C:\Users\stapi\AppData\Local\Temp\cchP1ZsS.s:17607  .debug_str:00000000000029eb .LASF405
C:\Users\stapi\AppData\Local\Temp\cchP1ZsS.s:17581  .debug_str:0000000000002976 .LASF406
C:\Users\stapi\AppData\Local\Temp\cchP1ZsS.s:17011  .debug_str:0000000000001900 .LASF407
C:\Users\stapi\AppData\Local\Temp\cchP1ZsS.s:16583  .debug_str:0000000000000b73 .LASF408
C:\Users\stapi\AppData\Local\Temp\cchP1ZsS.s:17559  .debug_str:00000000000028d8 .LASF409
C:\Users\stapi\AppData\Local\Temp\cchP1ZsS.s:16841  .debug_str:0000000000001452 .LASF410
C:\Users\stapi\AppData\Local\Temp\cchP1ZsS.s:17567  .debug_str:0000000000002915 .LASF411
C:\Users\stapi\AppData\Local\Temp\cchP1ZsS.s:17533  .debug_str:00000000000027f1 .LASF412
C:\Users\stapi\AppData\Local\Temp\cchP1ZsS.s:17055  .debug_str:0000000000001a35 .LASF413
C:\Users\stapi\AppData\Local\Temp\cchP1ZsS.s:17123  .debug_str:0000000000001c19 .LASF414
C:\Users\stapi\AppData\Local\Temp\cchP1ZsS.s:17393  .debug_str:000000000000237d .LASF415
C:\Users\stapi\AppData\Local\Temp\cchP1ZsS.s:16567  .debug_str:0000000000000b25 .LASF416
C:\Users\stapi\AppData\Local\Temp\cchP1ZsS.s:16327  .debug_str:00000000000004c9 .LASF417
C:\Users\stapi\AppData\Local\Temp\cchP1ZsS.s:17275  .debug_str:0000000000001fd4 .LASF418
C:\Users\stapi\AppData\Local\Temp\cchP1ZsS.s:16961  .debug_str:0000000000001777 .LASF419
C:\Users\stapi\AppData\Local\Temp\cchP1ZsS.s:17497  .debug_str:00000000000026f7 .LASF420
C:\Users\stapi\AppData\Local\Temp\cchP1ZsS.s:16991  .debug_str:000000000000187e .LASF421
C:\Users\stapi\AppData\Local\Temp\cchP1ZsS.s:17441  .debug_str:00000000000024b7 .LASF422
C:\Users\stapi\AppData\Local\Temp\cchP1ZsS.s:16283  .debug_str:0000000000000394 .LASF423
C:\Users\stapi\AppData\Local\Temp\cchP1ZsS.s:16713  .debug_str:0000000000000f4a .LASF424
C:\Users\stapi\AppData\Local\Temp\cchP1ZsS.s:17445  .debug_str:00000000000024d4 .LASF425
C:\Users\stapi\AppData\Local\Temp\cchP1ZsS.s:17081  .debug_str:0000000000001aff .LASF426
C:\Users\stapi\AppData\Local\Temp\cchP1ZsS.s:17175  .debug_str:0000000000001d82 .LASF427
C:\Users\stapi\AppData\Local\Temp\cchP1ZsS.s:17179  .debug_str:0000000000001d98 .LASF428
C:\Users\stapi\AppData\Local\Temp\cchP1ZsS.s:16237  .debug_str:000000000000024d .LASF429
C:\Users\stapi\AppData\Local\Temp\cchP1ZsS.s:17391  .debug_str:0000000000002365 .LASF430
C:\Users\stapi\AppData\Local\Temp\cchP1ZsS.s:17515  .debug_str:000000000000276a .LASF431
C:\Users\stapi\AppData\Local\Temp\cchP1ZsS.s:16291  .debug_str:00000000000003dc .LASF432
C:\Users\stapi\AppData\Local\Temp\cchP1ZsS.s:16609  .debug_str:0000000000000c2a .LASF433
C:\Users\stapi\AppData\Local\Temp\cchP1ZsS.s:16735  .debug_str:0000000000000fc5 .LASF434
C:\Users\stapi\AppData\Local\Temp\cchP1ZsS.s:16309  .debug_str:0000000000000446 .LASF435
C:\Users\stapi\AppData\Local\Temp\cchP1ZsS.s:16709  .debug_str:0000000000000f2a .LASF436
C:\Users\stapi\AppData\Local\Temp\cchP1ZsS.s:17111  .debug_str:0000000000001bc9 .LASF437
C:\Users\stapi\AppData\Local\Temp\cchP1ZsS.s:16731  .debug_str:0000000000000fb5 .LASF438
C:\Users\stapi\AppData\Local\Temp\cchP1ZsS.s:16395  .debug_str:00000000000006a2 .LASF439
C:\Users\stapi\AppData\Local\Temp\cchP1ZsS.s:17159  .debug_str:0000000000001d17 .LASF440
C:\Users\stapi\AppData\Local\Temp\cchP1ZsS.s:17009  .debug_str:00000000000018ea .LASF441
C:\Users\stapi\AppData\Local\Temp\cchP1ZsS.s:17381  .debug_str:0000000000002321 .LASF442
C:\Users\stapi\AppData\Local\Temp\cchP1ZsS.s:16839  .debug_str:0000000000001448 .LASF443
C:\Users\stapi\AppData\Local\Temp\cchP1ZsS.s:16409  .debug_str:00000000000006f4 .LASF444
C:\Users\stapi\AppData\Local\Temp\cchP1ZsS.s:16845  .debug_str:0000000000001478 .LASF445
C:\Users\stapi\AppData\Local\Temp\cchP1ZsS.s:16875  .debug_str:0000000000001549 .LASF446
C:\Users\stapi\AppData\Local\Temp\cchP1ZsS.s:17217  .debug_str:0000000000001e85 .LASF447
C:\Users\stapi\AppData\Local\Temp\cchP1ZsS.s:16641  .debug_str:0000000000000d25 .LASF448
C:\Users\stapi\AppData\Local\Temp\cchP1ZsS.s:16935  .debug_str:00000000000016bf .LASF449
C:\Users\stapi\AppData\Local\Temp\cchP1ZsS.s:16945  .debug_str:000000000000170a .LASF450
C:\Users\stapi\AppData\Local\Temp\cchP1ZsS.s:16873  .debug_str:0000000000001536 .LASF451
C:\Users\stapi\AppData\Local\Temp\cchP1ZsS.s:17431  .debug_str:0000000000002488 .LASF452
C:\Users\stapi\AppData\Local\Temp\cchP1ZsS.s:16737  .debug_str:0000000000000fd7 .LASF453
C:\Users\stapi\AppData\Local\Temp\cchP1ZsS.s:17547  .debug_str:0000000000002872 .LASF454
C:\Users\stapi\AppData\Local\Temp\cchP1ZsS.s:16907  .debug_str:0000000000001624 .LASF455
C:\Users\stapi\AppData\Local\Temp\cchP1ZsS.s:16493  .debug_str:0000000000000939 .LASF456
C:\Users\stapi\AppData\Local\Temp\cchP1ZsS.s:16811  .debug_str:000000000000137e .LASF457
C:\Users\stapi\AppData\Local\Temp\cchP1ZsS.s:17095  .debug_str:0000000000001b5d .LASF458
C:\Users\stapi\AppData\Local\Temp\cchP1ZsS.s:16193  .debug_str:0000000000000115 .LASF459
C:\Users\stapi\AppData\Local\Temp\cchP1ZsS.s:17109  .debug_str:0000000000001bc4 .LASF460
C:\Users\stapi\AppData\Local\Temp\cchP1ZsS.s:17405  .debug_str:00000000000023d9 .LASF461
C:\Users\stapi\AppData\Local\Temp\cchP1ZsS.s:17307  .debug_str:00000000000020cc .LASF462
C:\Users\stapi\AppData\Local\Temp\cchP1ZsS.s:17025  .debug_str:000000000000197d .LASF463
C:\Users\stapi\AppData\Local\Temp\cchP1ZsS.s:16867  .debug_str:0000000000001511 .LASF464
C:\Users\stapi\AppData\Local\Temp\cchP1ZsS.s:17335  .debug_str:00000000000021a1 .LASF465
C:\Users\stapi\AppData\Local\Temp\cchP1ZsS.s:16893  .debug_str:00000000000015bf .LASF466
C:\Users\stapi\AppData\Local\Temp\cchP1ZsS.s:16823  .debug_str:00000000000013dc .LASF467
C:\Users\stapi\AppData\Local\Temp\cchP1ZsS.s:17131  .debug_str:0000000000001c40 .LASF468
C:\Users\stapi\AppData\Local\Temp\cchP1ZsS.s:17259  .debug_str:0000000000001f7d .LASF469
C:\Users\stapi\AppData\Local\Temp\cchP1ZsS.s:16257  .debug_str:00000000000002e3 .LASF470
C:\Users\stapi\AppData\Local\Temp\cchP1ZsS.s:17577  .debug_str:0000000000002958 .LASF471
C:\Users\stapi\AppData\Local\Temp\cchP1ZsS.s:16389  .debug_str:000000000000066f .LASF472
C:\Users\stapi\AppData\Local\Temp\cchP1ZsS.s:17027  .debug_str:0000000000001988 .LASF473
C:\Users\stapi\AppData\Local\Temp\cchP1ZsS.s:16707  .debug_str:0000000000000f13 .LASF474
C:\Users\stapi\AppData\Local\Temp\cchP1ZsS.s:16251  .debug_str:00000000000002a9 .LASF475
C:\Users\stapi\AppData\Local\Temp\cchP1ZsS.s:17203  .debug_str:0000000000001e35 .LASF476
C:\Users\stapi\AppData\Local\Temp\cchP1ZsS.s:17071  .debug_str:0000000000001aaa .LASF477
C:\Users\stapi\AppData\Local\Temp\cchP1ZsS.s:17229  .debug_str:0000000000001ed7 .LASF478
C:\Users\stapi\AppData\Local\Temp\cchP1ZsS.s:17617  .debug_str:0000000000002a29 .LASF479
C:\Users\stapi\AppData\Local\Temp\cchP1ZsS.s:16949  .debug_str:000000000000171e .LASF480
C:\Users\stapi\AppData\Local\Temp\cchP1ZsS.s:17195  .debug_str:0000000000001dfe .LASF481
C:\Users\stapi\AppData\Local\Temp\cchP1ZsS.s:17311  .debug_str:00000000000020e5 .LASF482
C:\Users\stapi\AppData\Local\Temp\cchP1ZsS.s:16665  .debug_str:0000000000000dcc .LASF483
C:\Users\stapi\AppData\Local\Temp\cchP1ZsS.s:17347  .debug_str:0000000000002214 .LASF484
C:\Users\stapi\AppData\Local\Temp\cchP1ZsS.s:17297  .debug_str:0000000000002068 .LASF485
C:\Users\stapi\AppData\Local\Temp\cchP1ZsS.s:16221  .debug_str:00000000000001ec .LASF486
C:\Users\stapi\AppData\Local\Temp\cchP1ZsS.s:17129  .debug_str:0000000000001c3b .LASF487
C:\Users\stapi\AppData\Local\Temp\cchP1ZsS.s:17245  .debug_str:0000000000001f3c .LASF488
C:\Users\stapi\AppData\Local\Temp\cchP1ZsS.s:16361  .debug_str:00000000000005b7 .LASF489
C:\Users\stapi\AppData\Local\Temp\cchP1ZsS.s:17467  .debug_str:0000000000002600 .LASF490
C:\Users\stapi\AppData\Local\Temp\cchP1ZsS.s:16401  .debug_str:00000000000006c2 .LASF491
C:\Users\stapi\AppData\Local\Temp\cchP1ZsS.s:17295  .debug_str:0000000000002055 .LASF492
C:\Users\stapi\AppData\Local\Temp\cchP1ZsS.s:16391  .debug_str:0000000000000685 .LASF493
C:\Users\stapi\AppData\Local\Temp\cchP1ZsS.s:17289  .debug_str:0000000000002033 .LASF494
C:\Users\stapi\AppData\Local\Temp\cchP1ZsS.s:16673  .debug_str:0000000000000e03 .LASF495
C:\Users\stapi\AppData\Local\Temp\cchP1ZsS.s:17077  .debug_str:0000000000001ac9 .LASF496
C:\Users\stapi\AppData\Local\Temp\cchP1ZsS.s:16725  .debug_str:0000000000000f8d .LASF497
C:\Users\stapi\AppData\Local\Temp\cchP1ZsS.s:16275  .debug_str:0000000000000358 .LASF498
C:\Users\stapi\AppData\Local\Temp\cchP1ZsS.s:16441  .debug_str:00000000000007c4 .LASF499
C:\Users\stapi\AppData\Local\Temp\cchP1ZsS.s:17085  .debug_str:0000000000001b16 .LASF500
C:\Users\stapi\AppData\Local\Temp\cchP1ZsS.s:16623  .debug_str:0000000000000c88 .LASF501
C:\Users\stapi\AppData\Local\Temp\cchP1ZsS.s:16371  .debug_str:0000000000000600 .LASF502
C:\Users\stapi\AppData\Local\Temp\cchP1ZsS.s:16965  .debug_str:0000000000001799 .LASF503
C:\Users\stapi\AppData\Local\Temp\cchP1ZsS.s:16407  .debug_str:00000000000006e9 .LASF504
C:\Users\stapi\AppData\Local\Temp\cchP1ZsS.s:17503  .debug_str:0000000000002719 .LASF505
C:\Users\stapi\AppData\Local\Temp\cchP1ZsS.s:16903  .debug_str:0000000000001606 .LASF506
C:\Users\stapi\AppData\Local\Temp\cchP1ZsS.s:16155  .debug_str:000000000000001d .LASF507
C:\Users\stapi\AppData\Local\Temp\cchP1ZsS.s:16501  .debug_str:0000000000000964 .LASF508
C:\Users\stapi\AppData\Local\Temp\cchP1ZsS.s:17523  .debug_str:00000000000027b2 .LASF509
C:\Users\stapi\AppData\Local\Temp\cchP1ZsS.s:17433  .debug_str:0000000000002492 .LASF510
C:\Users\stapi\AppData\Local\Temp\cchP1ZsS.s:17317  .debug_str:000000000000211e .LASF511
C:\Users\stapi\AppData\Local\Temp\cchP1ZsS.s:17339  .debug_str:00000000000021c7 .LASF512
C:\Users\stapi\AppData\Local\Temp\cchP1ZsS.s:16953  .debug_str:0000000000001739 .LASF513
C:\Users\stapi\AppData\Local\Temp\cchP1ZsS.s:16941  .debug_str:00000000000016e8 .LASF514
C:\Users\stapi\AppData\Local\Temp\cchP1ZsS.s:17491  .debug_str:00000000000026c9 .LASF515
C:\Users\stapi\AppData\Local\Temp\cchP1ZsS.s:16715  .debug_str:0000000000000f56 .LASF516
C:\Users\stapi\AppData\Local\Temp\cchP1ZsS.s:16575  .debug_str:0000000000000b51 .LASF517
C:\Users\stapi\AppData\Local\Temp\cchP1ZsS.s:16563  .debug_str:0000000000000aff .LASF518
C:\Users\stapi\AppData\Local\Temp\cchP1ZsS.s:16253  .debug_str:00000000000002bc .LASF519
C:\Users\stapi\AppData\Local\Temp\cchP1ZsS.s:17157  .debug_str:0000000000001d0e .LASF520
C:\Users\stapi\AppData\Local\Temp\cchP1ZsS.s:16449  .debug_str:00000000000007fd .LASF521
C:\Users\stapi\AppData\Local\Temp\cchP1ZsS.s:16631  .debug_str:0000000000000cd2 .LASF522
C:\Users\stapi\AppData\Local\Temp\cchP1ZsS.s:16617  .debug_str:0000000000000c6b .LASF523
C:\Users\stapi\AppData\Local\Temp\cchP1ZsS.s:16399  .debug_str:00000000000006b1 .LASF524
C:\Users\stapi\AppData\Local\Temp\cchP1ZsS.s:16911  .debug_str:000000000000163d .LASF525
C:\Users\stapi\AppData\Local\Temp\cchP1ZsS.s:17193  .debug_str:0000000000001df1 .LASF526
C:\Users\stapi\AppData\Local\Temp\cchP1ZsS.s:16889  .debug_str:00000000000015a1 .LASF527
C:\Users\stapi\AppData\Local\Temp\cchP1ZsS.s:16197  .debug_str:000000000000012e .LASF528
C:\Users\stapi\AppData\Local\Temp\cchP1ZsS.s:17371  .debug_str:00000000000022bf .LASF529
C:\Users\stapi\AppData\Local\Temp\cchP1ZsS.s:17249  .debug_str:0000000000001f51 .LASF530
C:\Users\stapi\AppData\Local\Temp\cchP1ZsS.s:16625  .debug_str:0000000000000c8d .LASF531
C:\Users\stapi\AppData\Local\Temp\cchP1ZsS.s:16497  .debug_str:000000000000094b .LASF532
C:\Users\stapi\AppData\Local\Temp\cchP1ZsS.s:17035  .debug_str:00000000000019b8 .LASF533
C:\Users\stapi\AppData\Local\Temp\cchP1ZsS.s:17099  .debug_str:0000000000001b76 .LASF534
C:\Users\stapi\AppData\Local\Temp\cchP1ZsS.s:16669  .debug_str:0000000000000dee .LASF535
C:\Users\stapi\AppData\Local\Temp\cchP1ZsS.s:16615  .debug_str:0000000000000c60 .LASF536
C:\Users\stapi\AppData\Local\Temp\cchP1ZsS.s:17403  .debug_str:00000000000023be .LASF537
C:\Users\stapi\AppData\Local\Temp\cchP1ZsS.s:17113  .debug_str:0000000000001bd5 .LASF538
C:\Users\stapi\AppData\Local\Temp\cchP1ZsS.s:16979  .debug_str:000000000000180c .LASF539
C:\Users\stapi\AppData\Local\Temp\cchP1ZsS.s:16553  .debug_str:0000000000000abc .LASF540
C:\Users\stapi\AppData\Local\Temp\cchP1ZsS.s:17367  .debug_str:0000000000002294 .LASF541
C:\Users\stapi\AppData\Local\Temp\cchP1ZsS.s:16231  .debug_str:0000000000000232 .LASF542
C:\Users\stapi\AppData\Local\Temp\cchP1ZsS.s:16525  .debug_str:0000000000000a02 .LASF543
C:\Users\stapi\AppData\Local\Temp\cchP1ZsS.s:16475  .debug_str:00000000000008bd .LASF544
C:\Users\stapi\AppData\Local\Temp\cchP1ZsS.s:17121  .debug_str:0000000000001c10 .LASF545
C:\Users\stapi\AppData\Local\Temp\cchP1ZsS.s:16485  .debug_str:0000000000000908 .LASF546
C:\Users\stapi\AppData\Local\Temp\cchP1ZsS.s:17063  .debug_str:0000000000001a71 .LASF547
C:\Users\stapi\AppData\Local\Temp\cchP1ZsS.s:16345  .debug_str:000000000000055c .LASF548
C:\Users\stapi\AppData\Local\Temp\cchP1ZsS.s:16869  .debug_str:0000000000001518 .LASF549
C:\Users\stapi\AppData\Local\Temp\cchP1ZsS.s:17351  .debug_str:000000000000222b .LASF550
C:\Users\stapi\AppData\Local\Temp\cchP1ZsS.s:16787  .debug_str:00000000000012ba .LASF551
C:\Users\stapi\AppData\Local\Temp\cchP1ZsS.s:17561  .debug_str:00000000000028ef .LASF552
C:\Users\stapi\AppData\Local\Temp\cchP1ZsS.s:16579  .debug_str:0000000000000b5f .LASF553
C:\Users\stapi\AppData\Local\Temp\cchP1ZsS.s:16281  .debug_str:0000000000000388 .LASF554
C:\Users\stapi\AppData\Local\Temp\cchP1ZsS.s:16595  .debug_str:0000000000000bcd .LASF555
C:\Users\stapi\AppData\Local\Temp\cchP1ZsS.s:16789  .debug_str:00000000000012c2 .LASF556
C:\Users\stapi\AppData\Local\Temp\cchP1ZsS.s:17613  .debug_str:0000000000002a10 .LASF557
C:\Users\stapi\AppData\Local\Temp\cchP1ZsS.s:17417  .debug_str:0000000000002441 .LASF558
C:\Users\stapi\AppData\Local\Temp\cchP1ZsS.s:16879  .debug_str:0000000000001568 .LASF559
C:\Users\stapi\AppData\Local\Temp\cchP1ZsS.s:16587  .debug_str:0000000000000b99 .LASF560
C:\Users\stapi\AppData\Local\Temp\cchP1ZsS.s:17595  .debug_str:00000000000029b8 .LASF561
C:\Users\stapi\AppData\Local\Temp\cchP1ZsS.s:17373  .debug_str:00000000000022d6 .LASF562
C:\Users\stapi\AppData\Local\Temp\cchP1ZsS.s:16437  .debug_str:00000000000007a7 .LASF563
C:\Users\stapi\AppData\Local\Temp\cchP1ZsS.s:17579  .debug_str:000000000000296a .LASF564
C:\Users\stapi\AppData\Local\Temp\cchP1ZsS.s:17235  .debug_str:0000000000001f13 .LASF565
C:\Users\stapi\AppData\Local\Temp\cchP1ZsS.s:16591  .debug_str:0000000000000bbb .LASF566
C:\Users\stapi\AppData\Local\Temp\cchP1ZsS.s:17303  .debug_str:00000000000020a9 .LASF567
C:\Users\stapi\AppData\Local\Temp\cchP1ZsS.s:17447  .debug_str:00000000000024eb .LASF568
C:\Users\stapi\AppData\Local\Temp\cchP1ZsS.s:16255  .debug_str:00000000000002ca .LASF569
C:\Users\stapi\AppData\Local\Temp\cchP1ZsS.s:16477  .debug_str:00000000000008cc .LASF570
C:\Users\stapi\AppData\Local\Temp\cchP1ZsS.s:16939  .debug_str:00000000000016d6 .LASF571
C:\Users\stapi\AppData\Local\Temp\cchP1ZsS.s:16323  .debug_str:00000000000004b3 .LASF572
C:\Users\stapi\AppData\Local\Temp\cchP1ZsS.s:16517  .debug_str:00000000000009d4 .LASF573
C:\Users\stapi\AppData\Local\Temp\cchP1ZsS.s:16377  .debug_str:0000000000000627 .LASF574
C:\Users\stapi\AppData\Local\Temp\cchP1ZsS.s:17409  .debug_str:000000000000240b .LASF575
C:\Users\stapi\AppData\Local\Temp\cchP1ZsS.s:17231  .debug_str:0000000000001ee7 .LASF576
C:\Users\stapi\AppData\Local\Temp\cchP1ZsS.s:16589  .debug_str:0000000000000bb2 .LASF577
C:\Users\stapi\AppData\Local\Temp\cchP1ZsS.s:17285  .debug_str:0000000000002009 .LASF578
C:\Users\stapi\AppData\Local\Temp\cchP1ZsS.s:17273  .debug_str:0000000000001fc3 .LASF579
C:\Users\stapi\AppData\Local\Temp\cchP1ZsS.s:16783  .debug_str:00000000000011b8 .LASF580
C:\Users\stapi\AppData\Local\Temp\cchP1ZsS.s:16523  .debug_str:00000000000009f7 .LASF581
C:\Users\stapi\AppData\Local\Temp\cchP1ZsS.s:17369  .debug_str:00000000000022ad .LASF582
C:\Users\stapi\AppData\Local\Temp\cchP1ZsS.s:17365  .debug_str:0000000000002282 .LASF583
C:\Users\stapi\AppData\Local\Temp\cchP1ZsS.s:16657  .debug_str:0000000000000d8d .LASF584
C:\Users\stapi\AppData\Local\Temp\cchP1ZsS.s:16745  .debug_str:0000000000001020 .LASF585
C:\Users\stapi\AppData\Local\Temp\cchP1ZsS.s:16915  .debug_str:0000000000001650 .LASF586
C:\Users\stapi\AppData\Local\Temp\cchP1ZsS.s:16337  .debug_str:000000000000051a .LASF587
C:\Users\stapi\AppData\Local\Temp\cchP1ZsS.s:17073  .debug_str:0000000000001ab6 .LASF588
C:\Users\stapi\AppData\Local\Temp\cchP1ZsS.s:16379  .debug_str:0000000000000632 .LASF589
C:\Users\stapi\AppData\Local\Temp\cchP1ZsS.s:16967  .debug_str:00000000000017ac .LASF590
C:\Users\stapi\AppData\Local\Temp\cchP1ZsS.s:16767  .debug_str:000000000000113d .LASF591
C:\Users\stapi\AppData\Local\Temp\cchP1ZsS.s:17323  .debug_str:0000000000002141 .LASF592
C:\Users\stapi\AppData\Local\Temp\cchP1ZsS.s:17345  .debug_str:00000000000021fe .LASF593
C:\Users\stapi\AppData\Local\Temp\cchP1ZsS.s:16543  .debug_str:0000000000000a75 .LASF594
C:\Users\stapi\AppData\Local\Temp\cchP1ZsS.s:16223  .debug_str:00000000000001fc .LASF595
C:\Users\stapi\AppData\Local\Temp\cchP1ZsS.s:16353  .debug_str:0000000000000587 .LASF596
C:\Users\stapi\AppData\Local\Temp\cchP1ZsS.s:16243  .debug_str:0000000000000272 .LASF597
C:\Users\stapi\AppData\Local\Temp\cchP1ZsS.s:16645  .debug_str:0000000000000d44 .LASF598
C:\Users\stapi\AppData\Local\Temp\cchP1ZsS.s:16307  .debug_str:000000000000043b .LASF599
C:\Users\stapi\AppData\Local\Temp\cchP1ZsS.s:17097  .debug_str:0000000000001b66 .LASF600
C:\Users\stapi\AppData\Local\Temp\cchP1ZsS.s:16957  .debug_str:0000000000001752 .LASF601
C:\Users\stapi\AppData\Local\Temp\cchP1ZsS.s:16757  .debug_str:00000000000010ea .LASF602
C:\Users\stapi\AppData\Local\Temp\cchP1ZsS.s:17141  .debug_str:0000000000001c87 .LASF603
C:\Users\stapi\AppData\Local\Temp\cchP1ZsS.s:16549  .debug_str:0000000000000a8f .LASF604
C:\Users\stapi\AppData\Local\Temp\cchP1ZsS.s:16551  .debug_str:0000000000000aa9 .LASF605
C:\Users\stapi\AppData\Local\Temp\cchP1ZsS.s:17451  .debug_str:0000000000002515 .LASF606
C:\Users\stapi\AppData\Local\Temp\cchP1ZsS.s:16601  .debug_str:0000000000000bf0 .LASF607
C:\Users\stapi\AppData\Local\Temp\cchP1ZsS.s:17051  .debug_str:0000000000001a1c .LASF608
C:\Users\stapi\AppData\Local\Temp\cchP1ZsS.s:16443  .debug_str:00000000000007d2 .LASF609
C:\Users\stapi\AppData\Local\Temp\cchP1ZsS.s:16213  .debug_str:0000000000000192 .LASF610
C:\Users\stapi\AppData\Local\Temp\cchP1ZsS.s:17543  .debug_str:0000000000002844 .LASF611
C:\Users\stapi\AppData\Local\Temp\cchP1ZsS.s:17219  .debug_str:0000000000001e8a .LASF612
C:\Users\stapi\AppData\Local\Temp\cchP1ZsS.s:16771  .debug_str:000000000000116f .LASF659
C:\Users\stapi\AppData\Local\Temp\cchP1ZsS.s:17243  .debug_str:0000000000001f37 .LASF615
C:\Users\stapi\AppData\Local\Temp\cchP1ZsS.s:17341  .debug_str:00000000000021d8 .LASF618
C:\Users\stapi\AppData\Local\Temp\cchP1ZsS.s:2890   .text.hostapd_sae_pw_id_in_use:0000000000000000 .LFB167
C:\Users\stapi\AppData\Local\Temp\cchP1ZsS.s:2956   .text.hostapd_sae_pw_id_in_use:000000000000002e .LFE167
C:\Users\stapi\AppData\Local\Temp\cchP1ZsS.s:14457  .debug_loc:0000000000000000 .LLST77
C:\Users\stapi\AppData\Local\Temp\cchP1ZsS.s:16411  .debug_str:00000000000006fe .LASF613
C:\Users\stapi\AppData\Local\Temp\cchP1ZsS.s:14471  .debug_loc:0000000000000021 .LLST78
C:\Users\stapi\AppData\Local\Temp\cchP1ZsS.s:17213  .debug_str:0000000000001e6d .LASF614
C:\Users\stapi\AppData\Local\Temp\cchP1ZsS.s:14491  .debug_loc:0000000000000056 .LLST79
C:\Users\stapi\AppData\Local\Temp\cchP1ZsS.s:17511  .debug_str:000000000000273b .LASF639
C:\Users\stapi\AppData\Local\Temp\cchP1ZsS.s:2696   .text.hostapd_set_security_params:0000000000000000 .LFB166
C:\Users\stapi\AppData\Local\Temp\cchP1ZsS.s:2883   .text.hostapd_set_security_params:00000000000000e0 .LFE166
C:\Users\stapi\AppData\Local\Temp\cchP1ZsS.s:14517  .debug_loc:0000000000000098 .LLST74
C:\Users\stapi\AppData\Local\Temp\cchP1ZsS.s:17277  .debug_str:0000000000001fe2 .LASF616
C:\Users\stapi\AppData\Local\Temp\cchP1ZsS.s:14528  .debug_loc:00000000000000b6 .LLST75
C:\Users\stapi\AppData\Local\Temp\cchP1ZsS.s:2810   .text.hostapd_set_security_params:000000000000008c .LBB107
C:\Users\stapi\AppData\Local\Temp\cchP1ZsS.s:2838   .text.hostapd_set_security_params:00000000000000aa .LBE107
C:\Users\stapi\AppData\Local\Temp\cchP1ZsS.s:16597  .debug_str:0000000000000bdb .LASF617
C:\Users\stapi\AppData\Local\Temp\cchP1ZsS.s:14539  .debug_loc:00000000000000d4 .LLST76
C:\Users\stapi\AppData\Local\Temp\cchP1ZsS.s:2795   .text.hostapd_set_security_params:0000000000000080 .LVL275
C:\Users\stapi\AppData\Local\Temp\cchP1ZsS.s:16739  .debug_str:0000000000000fe6 .LASF619
C:\Users\stapi\AppData\Local\Temp\cchP1ZsS.s:2169   .text.hostapd_config_check:0000000000000000 .LFB165
C:\Users\stapi\AppData\Local\Temp\cchP1ZsS.s:2689   .text.hostapd_config_check:00000000000002c4 .LFE165
C:\Users\stapi\AppData\Local\Temp\cchP1ZsS.s:14547  .debug_loc:00000000000000e8 .LLST63
C:\Users\stapi\AppData\Local\Temp\cchP1ZsS.s:14558  .debug_loc:0000000000000106 .LLST64
C:\Users\stapi\AppData\Local\Temp\cchP1ZsS.s:2215   .text.hostapd_config_check:0000000000000028 .LBB85
C:\Users\stapi\AppData\Local\Temp\cchP1ZsS.s:14601  .debug_loc:000000000000017c .LLST65
C:\Users\stapi\AppData\Local\Temp\cchP1ZsS.s:14612  .debug_loc:000000000000019a .LLST66
C:\Users\stapi\AppData\Local\Temp\cchP1ZsS.s:14623  .debug_loc:00000000000001b8 .LLST67
C:\Users\stapi\AppData\Local\Temp\cchP1ZsS.s:14637  .debug_loc:00000000000001d2 .LLST68
C:\Users\stapi\AppData\Local\Temp\cchP1ZsS.s:2601   .text.hostapd_config_check:0000000000000222 .LVL267
C:\Users\stapi\AppData\Local\Temp\cchP1ZsS.s:2624   .text.hostapd_config_check:0000000000000258 .LVL268
C:\Users\stapi\AppData\Local\Temp\cchP1ZsS.s:2426   .text.hostapd_config_check:0000000000000104 .LBB88
C:\Users\stapi\AppData\Local\Temp\cchP1ZsS.s:2480   .text.hostapd_config_check:0000000000000162 .LBE88
C:\Users\stapi\AppData\Local\Temp\cchP1ZsS.s:2220   .text.hostapd_config_check:0000000000000032 .LVL235
C:\Users\stapi\AppData\Local\Temp\cchP1ZsS.s:2422   .text.hostapd_config_check:0000000000000100 .LVL260
C:\Users\stapi\AppData\Local\Temp\cchP1ZsS.s:2526   .text.hostapd_config_check:00000000000001b8 .LVL262
C:\Users\stapi\AppData\Local\Temp\cchP1ZsS.s:2566   .text.hostapd_config_check:00000000000001fa .LVL263
C:\Users\stapi\AppData\Local\Temp\cchP1ZsS.s:2640   .text.hostapd_config_check:0000000000000270 .LVL270
C:\Users\stapi\AppData\Local\Temp\cchP1ZsS.s:2664   .text.hostapd_config_check:000000000000029c .LVL271
C:\Users\stapi\AppData\Local\Temp\cchP1ZsS.s:2300   .text.hostapd_config_check:0000000000000090 .LBB97
C:\Users\stapi\AppData\Local\Temp\cchP1ZsS.s:14644  .debug_loc:00000000000001e5 .LLST69
C:\Users\stapi\AppData\Local\Temp\cchP1ZsS.s:14655  .debug_loc:0000000000000203 .LLST70
C:\Users\stapi\AppData\Local\Temp\cchP1ZsS.s:14680  .debug_loc:0000000000000244 .LLST71
C:\Users\stapi\AppData\Local\Temp\cchP1ZsS.s:14696  .debug_loc:000000000000026e .LLST72
C:\Users\stapi\AppData\Local\Temp\cchP1ZsS.s:14712  .debug_loc:0000000000000298 .LLST73
C:\Users\stapi\AppData\Local\Temp\cchP1ZsS.s:2335   .text.hostapd_config_check:00000000000000b2 .LVL254
C:\Users\stapi\AppData\Local\Temp\cchP1ZsS.s:2268   .text.hostapd_config_check:0000000000000078 .LVL242
C:\Users\stapi\AppData\Local\Temp\cchP1ZsS.s:17449  .debug_str:00000000000024fd .LASF625
C:\Users\stapi\AppData\Local\Temp\cchP1ZsS.s:17211  .debug_str:0000000000001e67 .LASF620
C:\Users\stapi\AppData\Local\Temp\cchP1ZsS.s:17145  .debug_str:0000000000001cb7 .LASF621
C:\Users\stapi\AppData\Local\Temp\cchP1ZsS.s:16471  .debug_str:00000000000008a8 .LASF622
C:\Users\stapi\AppData\Local\Temp\cchP1ZsS.s:16561  .debug_str:0000000000000af6 .LASF623
C:\Users\stapi\AppData\Local\Temp\cchP1ZsS.s:17615  .debug_str:0000000000002a20 .LASF624
C:\Users\stapi\AppData\Local\Temp\cchP1ZsS.s:17385  .debug_str:000000000000233a .LASF626
C:\Users\stapi\AppData\Local\Temp\cchP1ZsS.s:17017  .debug_str:0000000000001934 .LASF627
C:\Users\stapi\AppData\Local\Temp\cchP1ZsS.s:16225  .debug_str:000000000000020a .LASF628
C:\Users\stapi\AppData\Local\Temp\cchP1ZsS.s:1921   .text.hostapd_get_psk:0000000000000000 .LFB161
C:\Users\stapi\AppData\Local\Temp\cchP1ZsS.s:2107   .text.hostapd_get_psk:000000000000010a .LFE161
C:\Users\stapi\AppData\Local\Temp\cchP1ZsS.s:14728  .debug_loc:00000000000002c2 .LLST57
C:\Users\stapi\AppData\Local\Temp\cchP1ZsS.s:14757  .debug_loc:0000000000000307 .LLST58
C:\Users\stapi\AppData\Local\Temp\cchP1ZsS.s:14779  .debug_loc:000000000000033e .LLST59
C:\Users\stapi\AppData\Local\Temp\cchP1ZsS.s:17205  .debug_str:0000000000001e4c .LASF629
C:\Users\stapi\AppData\Local\Temp\cchP1ZsS.s:14790  .debug_loc:000000000000035c .LLST60
C:\Users\stapi\AppData\Local\Temp\cchP1ZsS.s:14801  .debug_loc:000000000000037a .LLST61
C:\Users\stapi\AppData\Local\Temp\cchP1ZsS.s:14812  .debug_loc:0000000000000398 .LLST62
C:\Users\stapi\AppData\Local\Temp\cchP1ZsS.s:17257  .debug_str:0000000000001f75 .LASF630
C:\Users\stapi\AppData\Local\Temp\cchP1ZsS.s:1979   .text.hostapd_get_psk:000000000000004e .LVL221
C:\Users\stapi\AppData\Local\Temp\cchP1ZsS.s:2010   .text.hostapd_get_psk:0000000000000096 .LVL223
C:\Users\stapi\AppData\Local\Temp\cchP1ZsS.s:2062   .text.hostapd_get_psk:00000000000000d2 .LVL227
C:\Users\stapi\AppData\Local\Temp\cchP1ZsS.s:2075   .text.hostapd_get_psk:00000000000000e6 .LVL229
C:\Users\stapi\AppData\Local\Temp\cchP1ZsS.s:16795  .debug_str:000000000000130a .LASF631
C:\Users\stapi\AppData\Local\Temp\cchP1ZsS.s:1878   .text.hostapd_get_vlan_id_ifname:0000000000000000 .LFB160
C:\Users\stapi\AppData\Local\Temp\cchP1ZsS.s:1907   .text.hostapd_get_vlan_id_ifname:0000000000000014 .LFE160
C:\Users\stapi\AppData\Local\Temp\cchP1ZsS.s:14823  .debug_loc:00000000000003b6 .LLST55
C:\Users\stapi\AppData\Local\Temp\cchP1ZsS.s:14837  .debug_loc:00000000000003d7 .LLST56
C:\Users\stapi\AppData\Local\Temp\cchP1ZsS.s:16969  .debug_str:00000000000017c9 .LASF632
C:\Users\stapi\AppData\Local\Temp\cchP1ZsS.s:1817   .text.hostapd_vlan_valid:0000000000000000 .LFB159
C:\Users\stapi\AppData\Local\Temp\cchP1ZsS.s:1871   .text.hostapd_vlan_valid:0000000000000038 .LFE159
C:\Users\stapi\AppData\Local\Temp\cchP1ZsS.s:14854  .debug_loc:0000000000000403 .LLST53
C:\Users\stapi\AppData\Local\Temp\cchP1ZsS.s:14865  .debug_loc:0000000000000421 .LLST54
C:\Users\stapi\AppData\Local\Temp\cchP1ZsS.s:17137  .debug_str:0000000000001c65 .LASF633
C:\Users\stapi\AppData\Local\Temp\cchP1ZsS.s:1781   .text.hostapd_rate_found:0000000000000000 .LFB158
C:\Users\stapi\AppData\Local\Temp\cchP1ZsS.s:1810   .text.hostapd_rate_found:0000000000000016 .LFE158
C:\Users\stapi\AppData\Local\Temp\cchP1ZsS.s:14876  .debug_loc:000000000000043f .LLST52
C:\Users\stapi\AppData\Local\Temp\cchP1ZsS.s:16691  .debug_str:0000000000000e87 .LASF634
C:\Users\stapi\AppData\Local\Temp\cchP1ZsS.s:17477  .debug_str:0000000000002646 .LASF635
C:\Users\stapi\AppData\Local\Temp\cchP1ZsS.s:1668   .text.hostapd_maclist_found:0000000000000000 .LFB157
C:\Users\stapi\AppData\Local\Temp\cchP1ZsS.s:1774   .text.hostapd_maclist_found:000000000000006e .LFE157
C:\Users\stapi\AppData\Local\Temp\cchP1ZsS.s:14890  .debug_loc:0000000000000460 .LLST45
C:\Users\stapi\AppData\Local\Temp\cchP1ZsS.s:17091  .debug_str:0000000000001b42 .LASF636
C:\Users\stapi\AppData\Local\Temp\cchP1ZsS.s:14901  .debug_loc:000000000000047e .LLST46
C:\Users\stapi\AppData\Local\Temp\cchP1ZsS.s:14915  .debug_loc:000000000000049f .LLST47
C:\Users\stapi\AppData\Local\Temp\cchP1ZsS.s:14926  .debug_loc:00000000000004bd .LLST48
C:\Users\stapi\AppData\Local\Temp\cchP1ZsS.s:17101  .debug_str:0000000000001b8b .LASF637
C:\Users\stapi\AppData\Local\Temp\cchP1ZsS.s:14937  .debug_loc:00000000000004db .LLST49
C:\Users\stapi\AppData\Local\Temp\cchP1ZsS.s:17283  .debug_str:0000000000002002 .LASF638
C:\Users\stapi\AppData\Local\Temp\cchP1ZsS.s:14949  .debug_loc:00000000000004fa .LLST50
C:\Users\stapi\AppData\Local\Temp\cchP1ZsS.s:14960  .debug_loc:0000000000000518 .LLST51
C:\Users\stapi\AppData\Local\Temp\cchP1ZsS.s:1722   .text.hostapd_maclist_found:000000000000003a .LVL199
C:\Users\stapi\AppData\Local\Temp\cchP1ZsS.s:1738   .text.hostapd_maclist_found:0000000000000054 .LVL201
C:\Users\stapi\AppData\Local\Temp\cchP1ZsS.s:17565  .debug_str:0000000000002901 .LASF640
C:\Users\stapi\AppData\Local\Temp\cchP1ZsS.s:1567   .text.hostapd_config_free:0000000000000000 .LFB156
C:\Users\stapi\AppData\Local\Temp\cchP1ZsS.s:1661   .text.hostapd_config_free:000000000000008e .LFE156
C:\Users\stapi\AppData\Local\Temp\cchP1ZsS.s:14971  .debug_loc:0000000000000536 .LLST43
C:\Users\stapi\AppData\Local\Temp\cchP1ZsS.s:14986  .debug_loc:000000000000055f .LLST44
C:\Users\stapi\AppData\Local\Temp\cchP1ZsS.s:1595   .text.hostapd_config_free:000000000000001e .LVL180
C:\Users\stapi\AppData\Local\Temp\cchP1ZsS.s:1603   .text.hostapd_config_free:000000000000002c .LVL182
C:\Users\stapi\AppData\Local\Temp\cchP1ZsS.s:1607   .text.hostapd_config_free:0000000000000036 .LVL183
C:\Users\stapi\AppData\Local\Temp\cchP1ZsS.s:1611   .text.hostapd_config_free:0000000000000040 .LVL184
C:\Users\stapi\AppData\Local\Temp\cchP1ZsS.s:1615   .text.hostapd_config_free:000000000000004a .LVL185
C:\Users\stapi\AppData\Local\Temp\cchP1ZsS.s:1619   .text.hostapd_config_free:0000000000000054 .LVL186
C:\Users\stapi\AppData\Local\Temp\cchP1ZsS.s:1623   .text.hostapd_config_free:000000000000005e .LVL187
C:\Users\stapi\AppData\Local\Temp\cchP1ZsS.s:1627   .text.hostapd_config_free:0000000000000068 .LVL188
C:\Users\stapi\AppData\Local\Temp\cchP1ZsS.s:1631   .text.hostapd_config_free:0000000000000072 .LVL189
C:\Users\stapi\AppData\Local\Temp\cchP1ZsS.s:1650   .text.hostapd_config_free:000000000000008a .LVL192
C:\Users\stapi\AppData\Local\Temp\cchP1ZsS.s:16743  .debug_str:0000000000001008 .LASF728
C:\Users\stapi\AppData\Local\Temp\cchP1ZsS.s:17553  .debug_str:00000000000028ab .LASF641
C:\Users\stapi\AppData\Local\Temp\cchP1ZsS.s:17357  .debug_str:0000000000002247 .LASF642
C:\Users\stapi\AppData\Local\Temp\cchP1ZsS.s:16837  .debug_str:000000000000142a .LASF643
C:\Users\stapi\AppData\Local\Temp\cchP1ZsS.s:16495  .debug_str:0000000000000946 .LASF644
C:\Users\stapi\AppData\Local\Temp\cchP1ZsS.s:16791  .debug_str:00000000000012d8 .LASF645
C:\Users\stapi\AppData\Local\Temp\cchP1ZsS.s:1044   .text.hostapd_config_clear_wpa_psk:0000000000000000 .LFB151
C:\Users\stapi\AppData\Local\Temp\cchP1ZsS.s:1090   .text.hostapd_config_clear_wpa_psk:000000000000002c .LFE151
C:\Users\stapi\AppData\Local\Temp\cchP1ZsS.s:15007  .debug_loc:0000000000000595 .LLST28
C:\Users\stapi\AppData\Local\Temp\cchP1ZsS.s:15018  .debug_loc:00000000000005b3 .LLST29
C:\Users\stapi\AppData\Local\Temp\cchP1ZsS.s:15029  .debug_loc:00000000000005d1 .LLST30
C:\Users\stapi\AppData\Local\Temp\cchP1ZsS.s:1085   .text.hostapd_config_clear_wpa_psk:0000000000000028 .LVL96
C:\Users\stapi\AppData\Local\Temp\cchP1ZsS.s:17151  .debug_str:0000000000001cd2 .LASF646
C:\Users\stapi\AppData\Local\Temp\cchP1ZsS.s:1002   .text.hostapd_config_free_eap_users:0000000000000000 .LFB150
C:\Users\stapi\AppData\Local\Temp\cchP1ZsS.s:1037   .text.hostapd_config_free_eap_users:0000000000000022 .LFE150
C:\Users\stapi\AppData\Local\Temp\cchP1ZsS.s:16205  .debug_str:0000000000000164 .LASF647
C:\Users\stapi\AppData\Local\Temp\cchP1ZsS.s:15036  .debug_loc:00000000000005e4 .LLST26
C:\Users\stapi\AppData\Local\Temp\cchP1ZsS.s:17191  .debug_str:0000000000001de7 .LASF648
C:\Users\stapi\AppData\Local\Temp\cchP1ZsS.s:15047  .debug_loc:0000000000000602 .LLST27
C:\Users\stapi\AppData\Local\Temp\cchP1ZsS.s:1026   .text.hostapd_config_free_eap_users:0000000000000016 .LVL91
C:\Users\stapi\AppData\Local\Temp\cchP1ZsS.s:16153  .debug_str:0000000000000000 .LASF649
C:\Users\stapi\AppData\Local\Temp\cchP1ZsS.s:955    .text.hostapd_config_free_eap_user:0000000000000000 .LFB149
C:\Users\stapi\AppData\Local\Temp\cchP1ZsS.s:995    .text.hostapd_config_free_eap_user:0000000000000048 .LFE149
C:\Users\stapi\AppData\Local\Temp\cchP1ZsS.s:15054  .debug_loc:0000000000000615 .LLST25
C:\Users\stapi\AppData\Local\Temp\cchP1ZsS.s:970    .text.hostapd_config_free_eap_user:0000000000000014 .LVL83
C:\Users\stapi\AppData\Local\Temp\cchP1ZsS.s:974    .text.hostapd_config_free_eap_user:000000000000001e .LVL84
C:\Users\stapi\AppData\Local\Temp\cchP1ZsS.s:979    .text.hostapd_config_free_eap_user:000000000000002a .LVL85
C:\Users\stapi\AppData\Local\Temp\cchP1ZsS.s:984    .text.hostapd_config_free_eap_user:0000000000000036 .LVL86
C:\Users\stapi\AppData\Local\Temp\cchP1ZsS.s:988    .text.hostapd_config_free_eap_user:0000000000000040 .LVL87
C:\Users\stapi\AppData\Local\Temp\cchP1ZsS.s:17079  .debug_str:0000000000001adf .LASF650
C:\Users\stapi\AppData\Local\Temp\cchP1ZsS.s:903    .text.hostapd_config_free_radius_attr:0000000000000000 .LFB148
C:\Users\stapi\AppData\Local\Temp\cchP1ZsS.s:948    .text.hostapd_config_free_radius_attr:000000000000002e .LFE148
C:\Users\stapi\AppData\Local\Temp\cchP1ZsS.s:16621  .debug_str:0000000000000c83 .LASF651
C:\Users\stapi\AppData\Local\Temp\cchP1ZsS.s:15065  .debug_loc:0000000000000633 .LLST23
C:\Users\stapi\AppData\Local\Temp\cchP1ZsS.s:15080  .debug_loc:000000000000065c .LLST24
C:\Users\stapi\AppData\Local\Temp\cchP1ZsS.s:938    .text.hostapd_config_free_radius_attr:0000000000000020 .LVL78
C:\Users\stapi\AppData\Local\Temp\cchP1ZsS.s:942    .text.hostapd_config_free_radius_attr:000000000000002a .LVL79
C:\Users\stapi\AppData\Local\Temp\cchP1ZsS.s:16265  .debug_str:000000000000031a .LASF652
C:\Users\stapi\AppData\Local\Temp\cchP1ZsS.s:655    .text.hostapd_parse_radius_attr:0000000000000000 .LFB147
C:\Users\stapi\AppData\Local\Temp\cchP1ZsS.s:896    .text.hostapd_parse_radius_attr:0000000000000146 .LFE147
C:\Users\stapi\AppData\Local\Temp\cchP1ZsS.s:16565  .debug_str:0000000000000b1f .LASF653
C:\Users\stapi\AppData\Local\Temp\cchP1ZsS.s:15087  .debug_loc:000000000000066f .LLST11
C:\Users\stapi\AppData\Local\Temp\cchP1ZsS.s:15127  .debug_loc:00000000000006cd .LLST12
C:\Users\stapi\AppData\Local\Temp\cchP1ZsS.s:16947  .debug_str:0000000000001717 .LASF654
C:\Users\stapi\AppData\Local\Temp\cchP1ZsS.s:15158  .debug_loc:000000000000071b .LLST13
C:\Users\stapi\AppData\Local\Temp\cchP1ZsS.s:15173  .debug_loc:0000000000000744 .LLST14
C:\Users\stapi\AppData\Local\Temp\cchP1ZsS.s:15188  .debug_loc:000000000000076d .LLST15
C:\Users\stapi\AppData\Local\Temp\cchP1ZsS.s:724    .text.hostapd_parse_radius_attr:0000000000000052 .LBB32
C:\Users\stapi\AppData\Local\Temp\cchP1ZsS.s:738    .text.hostapd_parse_radius_attr:0000000000000060 .LBE32
C:\Users\stapi\AppData\Local\Temp\cchP1ZsS.s:15199  .debug_loc:000000000000078b .LLST16
C:\Users\stapi\AppData\Local\Temp\cchP1ZsS.s:15207  .debug_loc:000000000000079f .LLST17
C:\Users\stapi\AppData\Local\Temp\cchP1ZsS.s:731    .text.hostapd_parse_radius_attr:000000000000005c .LVL54
C:\Users\stapi\AppData\Local\Temp\cchP1ZsS.s:794    .text.hostapd_parse_radius_attr:00000000000000b4 .LBB34
C:\Users\stapi\AppData\Local\Temp\cchP1ZsS.s:830    .text.hostapd_parse_radius_attr:00000000000000de .LBE34
C:\Users\stapi\AppData\Local\Temp\cchP1ZsS.s:15214  .debug_loc:00000000000007b2 .LLST18
C:\Users\stapi\AppData\Local\Temp\cchP1ZsS.s:15221  .debug_loc:00000000000007c5 .LLST19
C:\Users\stapi\AppData\Local\Temp\cchP1ZsS.s:15228  .debug_loc:00000000000007d8 .LLST20
C:\Users\stapi\AppData\Local\Temp\cchP1ZsS.s:803    .text.hostapd_parse_radius_attr:00000000000000c0 .LBB36
C:\Users\stapi\AppData\Local\Temp\cchP1ZsS.s:828    .text.hostapd_parse_radius_attr:00000000000000de .LBE36
C:\Users\stapi\AppData\Local\Temp\cchP1ZsS.s:15235  .debug_loc:00000000000007eb .LLST21
C:\Users\stapi\AppData\Local\Temp\cchP1ZsS.s:801    .text.hostapd_parse_radius_attr:00000000000000c0 .LVL62
C:\Users\stapi\AppData\Local\Temp\cchP1ZsS.s:676    .text.hostapd_parse_radius_attr:0000000000000014 .LVL44
C:\Users\stapi\AppData\Local\Temp\cchP1ZsS.s:686    .text.hostapd_parse_radius_attr:0000000000000022 .LVL46
C:\Users\stapi\AppData\Local\Temp\cchP1ZsS.s:694    .text.hostapd_parse_radius_attr:0000000000000034 .LVL47
C:\Users\stapi\AppData\Local\Temp\cchP1ZsS.s:703    .text.hostapd_parse_radius_attr:0000000000000040 .LVL49
C:\Users\stapi\AppData\Local\Temp\cchP1ZsS.s:715    .text.hostapd_parse_radius_attr:000000000000004e .LVL51
C:\Users\stapi\AppData\Local\Temp\cchP1ZsS.s:779    .text.hostapd_parse_radius_attr:00000000000000a2 .LVL59
C:\Users\stapi\AppData\Local\Temp\cchP1ZsS.s:791    .text.hostapd_parse_radius_attr:00000000000000b2 .LVL60
C:\Users\stapi\AppData\Local\Temp\cchP1ZsS.s:835    .text.hostapd_parse_radius_attr:00000000000000e8 .LVL64
C:\Users\stapi\AppData\Local\Temp\cchP1ZsS.s:839    .text.hostapd_parse_radius_attr:00000000000000f4 .LVL65
C:\Users\stapi\AppData\Local\Temp\cchP1ZsS.s:856    .text.hostapd_parse_radius_attr:0000000000000106 .LVL68
C:\Users\stapi\AppData\Local\Temp\cchP1ZsS.s:870    .text.hostapd_parse_radius_attr:000000000000011a .LVL70
C:\Users\stapi\AppData\Local\Temp\cchP1ZsS.s:880    .text.hostapd_parse_radius_attr:0000000000000128 .LVL71
C:\Users\stapi\AppData\Local\Temp\cchP1ZsS.s:886    .text.hostapd_parse_radius_attr:0000000000000136 .LVL72
C:\Users\stapi\AppData\Local\Temp\cchP1ZsS.s:892    .text.hostapd_parse_radius_attr:0000000000000144 .LVL73
C:\Users\stapi\AppData\Local\Temp\cchP1ZsS.s:16681  .debug_str:0000000000000e2d .LASF655
C:\Users\stapi\AppData\Local\Temp\cchP1ZsS.s:625    .text.hostapd_config_get_radius_attr:0000000000000000 .LFB146
C:\Users\stapi\AppData\Local\Temp\cchP1ZsS.s:648    .text.hostapd_config_get_radius_attr:0000000000000010 .LFE146
C:\Users\stapi\AppData\Local\Temp\cchP1ZsS.s:15242  .debug_loc:00000000000007fe .LLST10
C:\Users\stapi\AppData\Local\Temp\cchP1ZsS.s:16455  .debug_str:000000000000083c .LASF729
C:\Users\stapi\AppData\Local\Temp\cchP1ZsS.s:43     .text.hostapd_config_free_radius:0000000000000000 .LFB145
C:\Users\stapi\AppData\Local\Temp\cchP1ZsS.s:96     .text.hostapd_config_free_radius:000000000000003c .LFE145
C:\Users\stapi\AppData\Local\Temp\cchP1ZsS.s:16751  .debug_str:0000000000001047 .LASF656
C:\Users\stapi\AppData\Local\Temp\cchP1ZsS.s:15253  .debug_loc:000000000000081c .LLST1
C:\Users\stapi\AppData\Local\Temp\cchP1ZsS.s:16333  .debug_str:0000000000000504 .LASF657
C:\Users\stapi\AppData\Local\Temp\cchP1ZsS.s:15264  .debug_loc:000000000000083a .LLST2
C:\Users\stapi\AppData\Local\Temp\cchP1ZsS.s:15275  .debug_loc:0000000000000858 .LLST3
C:\Users\stapi\AppData\Local\Temp\cchP1ZsS.s:72     .text.hostapd_config_free_radius:0000000000000020 .LVL5
C:\Users\stapi\AppData\Local\Temp\cchP1ZsS.s:92     .text.hostapd_config_free_radius:000000000000003a .LVL7
C:\Users\stapi\AppData\Local\Temp\cchP1ZsS.s:16697  .debug_str:0000000000000eb6 .LASF658
C:\Users\stapi\AppData\Local\Temp\cchP1ZsS.s:3185   .text.hostapd_setup_wpa_psk:0000000000000000 .LFB144
C:\Users\stapi\AppData\Local\Temp\cchP1ZsS.s:3814   .text.hostapd_setup_wpa_psk:00000000000003a8 .LFE144
C:\Users\stapi\AppData\Local\Temp\cchP1ZsS.s:15297  .debug_loc:000000000000088f .LLST83
C:\Users\stapi\AppData\Local\Temp\cchP1ZsS.s:3244   .text.hostapd_setup_wpa_psk:0000000000000046 .LBB123
C:\Users\stapi\AppData\Local\Temp\cchP1ZsS.s:15308  .debug_loc:00000000000008ad .LLST84
C:\Users\stapi\AppData\Local\Temp\cchP1ZsS.s:15323  .debug_loc:00000000000008d6 .LLST85
C:\Users\stapi\AppData\Local\Temp\cchP1ZsS.s:15338  .debug_loc:00000000000008ff .LLST86
C:\Users\stapi\AppData\Local\Temp\cchP1ZsS.s:15361  .debug_loc:000000000000093e .LLST87
C:\Users\stapi\AppData\Local\Temp\cchP1ZsS.s:15388  .debug_loc:0000000000000988 .LLST88
C:\Users\stapi\AppData\Local\Temp\cchP1ZsS.s:15412  .debug_loc:00000000000009c8 .LLST89
C:\Users\stapi\AppData\Local\Temp\cchP1ZsS.s:15435  .debug_loc:0000000000000a07 .LLST90
C:\Users\stapi\AppData\Local\Temp\cchP1ZsS.s:15450  .debug_loc:0000000000000a30 .LLST91
C:\Users\stapi\AppData\Local\Temp\cchP1ZsS.s:15465  .debug_loc:0000000000000a59 .LLST92
C:\Users\stapi\AppData\Local\Temp\cchP1ZsS.s:15498  .debug_loc:0000000000000ab0 .LLST93
C:\Users\stapi\AppData\Local\Temp\cchP1ZsS.s:15543  .debug_loc:0000000000000b1a .LLST94
C:\Users\stapi\AppData\Local\Temp\cchP1ZsS.s:15564  .debug_loc:0000000000000b50 .LLST95
C:\Users\stapi\AppData\Local\Temp\cchP1ZsS.s:15577  .debug_loc:0000000000000b70 .LLST96
C:\Users\stapi\AppData\Local\Temp\cchP1ZsS.s:15596  .debug_loc:0000000000000ba4 .LLST97
C:\Users\stapi\AppData\Local\Temp\cchP1ZsS.s:15633  .debug_loc:0000000000000c06 .LLST98
C:\Users\stapi\AppData\Local\Temp\cchP1ZsS.s:3459   .text.hostapd_setup_wpa_psk:0000000000000188 .LVL332
C:\Users\stapi\AppData\Local\Temp\cchP1ZsS.s:3473   .text.hostapd_setup_wpa_psk:000000000000019c .LVL335
C:\Users\stapi\AppData\Local\Temp\cchP1ZsS.s:3484   .text.hostapd_setup_wpa_psk:00000000000001b6 .LVL336
C:\Users\stapi\AppData\Local\Temp\cchP1ZsS.s:3499   .text.hostapd_setup_wpa_psk:00000000000001c8 .LVL340
C:\Users\stapi\AppData\Local\Temp\cchP1ZsS.s:3513   .text.hostapd_setup_wpa_psk:00000000000001e0 .LVL341
C:\Users\stapi\AppData\Local\Temp\cchP1ZsS.s:3526   .text.hostapd_setup_wpa_psk:00000000000001f4 .LVL344
C:\Users\stapi\AppData\Local\Temp\cchP1ZsS.s:3542   .text.hostapd_setup_wpa_psk:000000000000020e .LVL347
C:\Users\stapi\AppData\Local\Temp\cchP1ZsS.s:3550   .text.hostapd_setup_wpa_psk:000000000000021e .LVL348
C:\Users\stapi\AppData\Local\Temp\cchP1ZsS.s:3557   .text.hostapd_setup_wpa_psk:000000000000022a .LVL349
C:\Users\stapi\AppData\Local\Temp\cchP1ZsS.s:3569   .text.hostapd_setup_wpa_psk:0000000000000240 .LVL352
C:\Users\stapi\AppData\Local\Temp\cchP1ZsS.s:3576   .text.hostapd_setup_wpa_psk:000000000000024c .LVL353
C:\Users\stapi\AppData\Local\Temp\cchP1ZsS.s:3591   .text.hostapd_setup_wpa_psk:000000000000026a .LVL356
C:\Users\stapi\AppData\Local\Temp\cchP1ZsS.s:3646   .text.hostapd_setup_wpa_psk:0000000000000292 .LVL362
C:\Users\stapi\AppData\Local\Temp\cchP1ZsS.s:3658   .text.hostapd_setup_wpa_psk:00000000000002a8 .LVL365
C:\Users\stapi\AppData\Local\Temp\cchP1ZsS.s:3672   .text.hostapd_setup_wpa_psk:00000000000002b8 .LVL368
C:\Users\stapi\AppData\Local\Temp\cchP1ZsS.s:3686   .text.hostapd_setup_wpa_psk:00000000000002d0 .LVL369
C:\Users\stapi\AppData\Local\Temp\cchP1ZsS.s:3702   .text.hostapd_setup_wpa_psk:00000000000002ea .LVL372
C:\Users\stapi\AppData\Local\Temp\cchP1ZsS.s:3711   .text.hostapd_setup_wpa_psk:00000000000002fc .LVL374
C:\Users\stapi\AppData\Local\Temp\cchP1ZsS.s:3719   .text.hostapd_setup_wpa_psk:0000000000000306 .LVL376
C:\Users\stapi\AppData\Local\Temp\cchP1ZsS.s:3730   .text.hostapd_setup_wpa_psk:0000000000000320 .LVL378
C:\Users\stapi\AppData\Local\Temp\cchP1ZsS.s:3744   .text.hostapd_setup_wpa_psk:000000000000033a .LVL380
C:\Users\stapi\AppData\Local\Temp\cchP1ZsS.s:3750   .text.hostapd_setup_wpa_psk:0000000000000344 .LVL381
C:\Users\stapi\AppData\Local\Temp\cchP1ZsS.s:3772   .text.hostapd_setup_wpa_psk:000000000000036a .LVL385
C:\Users\stapi\AppData\Local\Temp\cchP1ZsS.s:3785   .text.hostapd_setup_wpa_psk:0000000000000382 .LVL387
C:\Users\stapi\AppData\Local\Temp\cchP1ZsS.s:3268   .text.hostapd_setup_wpa_psk:000000000000005e .LVL308
C:\Users\stapi\AppData\Local\Temp\cchP1ZsS.s:3286   .text.hostapd_setup_wpa_psk:0000000000000076 .LVL311
C:\Users\stapi\AppData\Local\Temp\cchP1ZsS.s:3394   .text.hostapd_setup_wpa_psk:0000000000000140 .LVL325
C:\Users\stapi\AppData\Local\Temp\cchP1ZsS.s:3606   .text.hostapd_setup_wpa_psk:0000000000000276 .LVL358
C:\Users\stapi\AppData\Local\Temp\cchP1ZsS.s:3303   .text.hostapd_setup_wpa_psk:000000000000008e .LBB130
C:\Users\stapi\AppData\Local\Temp\cchP1ZsS.s:15666  .debug_loc:0000000000000c5d .LLST99
C:\Users\stapi\AppData\Local\Temp\cchP1ZsS.s:3309   .text.hostapd_setup_wpa_psk:000000000000009a .LVL315
C:\Users\stapi\AppData\Local\Temp\cchP1ZsS.s:3320   .text.hostapd_setup_wpa_psk:00000000000000b2 .LVL316
C:\Users\stapi\AppData\Local\Temp\cchP1ZsS.s:3340   .text.hostapd_setup_wpa_psk:00000000000000d0 .LVL318
C:\Users\stapi\AppData\Local\Temp\cchP1ZsS.s:3348   .text.hostapd_setup_wpa_psk:00000000000000de .LVL319
C:\Users\stapi\AppData\Local\Temp\cchP1ZsS.s:3355   .text.hostapd_setup_wpa_psk:00000000000000f4 .LVL320
C:\Users\stapi\AppData\Local\Temp\cchP1ZsS.s:3367   .text.hostapd_setup_wpa_psk:000000000000010e .LVL321
C:\Users\stapi\AppData\Local\Temp\cchP1ZsS.s:3378   .text.hostapd_setup_wpa_psk:000000000000012a .LVL322
C:\Users\stapi\AppData\Local\Temp\cchP1ZsS.s:3216   .text.hostapd_setup_wpa_psk:0000000000000018 .LVL305
C:\Users\stapi\AppData\Local\Temp\cchP1ZsS.s:3232   .text.hostapd_setup_wpa_psk:000000000000003a .LVL306
C:\Users\stapi\AppData\Local\Temp\cchP1ZsS.s:3301   .text.hostapd_setup_wpa_psk:000000000000008e .LVL314
C:\Users\stapi\AppData\Local\Temp\cchP1ZsS.s:16375  .debug_str:0000000000000612 .LASF660
C:\Users\stapi\AppData\Local\Temp\cchP1ZsS.s:17161  .debug_str:0000000000001d2b .LASF661
C:\Users\stapi\AppData\Local\Temp\cchP1ZsS.s:17471  .debug_str:000000000000261c .LASF662
C:\Users\stapi\AppData\Local\Temp\cchP1ZsS.s:17549  .debug_str:0000000000002889 .LASF663
C:\Users\stapi\AppData\Local\Temp\cchP1ZsS.s:16503  .debug_str:0000000000000969 .LASF664
C:\Users\stapi\AppData\Local\Temp\cchP1ZsS.s:16357  .debug_str:00000000000005a0 .LASF665
C:\Users\stapi\AppData\Local\Temp\cchP1ZsS.s:17499  .debug_str:000000000000270c .LASF666
C:\Users\stapi\AppData\Local\Temp\cchP1ZsS.s:16799  .debug_str:0000000000001335 .LASF667
C:\Users\stapi\AppData\Local\Temp\cchP1ZsS.s:16229  .debug_str:0000000000000221 .LASF668
C:\Users\stapi\AppData\Local\Temp\cchP1ZsS.s:608    .text.hostapd_mac_comp:0000000000000000 .LFB140
C:\Users\stapi\AppData\Local\Temp\cchP1ZsS.s:618    .text.hostapd_mac_comp:000000000000000a .LFE140
C:\Users\stapi\AppData\Local\Temp\cchP1ZsS.s:15677  .debug_loc:0000000000000c7b .LLST8
C:\Users\stapi\AppData\Local\Temp\cchP1ZsS.s:15691  .debug_loc:0000000000000c9c .LLST9
C:\Users\stapi\AppData\Local\Temp\cchP1ZsS.s:616    .text.hostapd_mac_comp:000000000000000a .LVL39
C:\Users\stapi\AppData\Local\Temp\cchP1ZsS.s:17399  .debug_str:000000000000239c .LASF669
C:\Users\stapi\AppData\Local\Temp\cchP1ZsS.s:302    .text.hostapd_config_defaults:0000000000000000 .LFB139
C:\Users\stapi\AppData\Local\Temp\cchP1ZsS.s:601    .text.hostapd_config_defaults:00000000000001e8 .LFE139
C:\Users\stapi\AppData\Local\Temp\cchP1ZsS.s:15705  .debug_loc:0000000000000cbd .LLST5
C:\Users\stapi\AppData\Local\Temp\cchP1ZsS.s:16367  .debug_str:00000000000005e9 .LASF670
C:\Users\stapi\AppData\Local\Temp\cchP1ZsS.s:16923  .debug_str:0000000000001671 .LASF671
C:\Users\stapi\AppData\Local\Temp\cchP1ZsS.s:17563  .debug_str:00000000000028fb .LASF672
C:\Users\stapi\AppData\Local\Temp\cchP1ZsS.s:17557  .debug_str:00000000000028d2 .LASF673
C:\Users\stapi\AppData\Local\Temp\cchP1ZsS.s:17045  .debug_str:0000000000001a0b .LASF674
C:\Users\stapi\AppData\Local\Temp\cchP1ZsS.s:17047  .debug_str:0000000000001a11 .LASF675
C:\Users\stapi\AppData\Local\Temp\cchP1ZsS.s:17075  .debug_str:0000000000001ac2 .LASF676
C:\Users\stapi\AppData\Local\Temp\cchP1ZsS.s:17069  .debug_str:0000000000001aa3 .LASF677
C:\Users\stapi\AppData\Local\Temp\cchP1ZsS.s:17397  .debug_str:0000000000002395 .LASF678
C:\Users\stapi\AppData\Local\Temp\cchP1ZsS.s:16619  .debug_str:0000000000000c7c .LASF679
C:\Users\stapi\AppData\Local\Temp\cchP1ZsS.s:375    .text.hostapd_config_defaults:000000000000005a .LBB22
C:\Users\stapi\AppData\Local\Temp\cchP1ZsS.s:15724  .debug_loc:0000000000000cf1 .LLST6
C:\Users\stapi\AppData\Local\Temp\cchP1ZsS.s:15732  .debug_loc:0000000000000d05 .LLST7
C:\Users\stapi\AppData\Local\Temp\cchP1ZsS.s:384    .text.hostapd_config_defaults:0000000000000064 .LVL22
C:\Users\stapi\AppData\Local\Temp\cchP1ZsS.s:327    .text.hostapd_config_defaults:0000000000000014 .LVL12
C:\Users\stapi\AppData\Local\Temp\cchP1ZsS.s:334    .text.hostapd_config_defaults:0000000000000022 .LVL14
C:\Users\stapi\AppData\Local\Temp\cchP1ZsS.s:349    .text.hostapd_config_defaults:000000000000003a .LVL17
C:\Users\stapi\AppData\Local\Temp\cchP1ZsS.s:353    .text.hostapd_config_defaults:0000000000000044 .LVL18
C:\Users\stapi\AppData\Local\Temp\cchP1ZsS.s:357    .text.hostapd_config_defaults:000000000000004e .LVL19
C:\Users\stapi\AppData\Local\Temp\cchP1ZsS.s:403    .text.hostapd_config_defaults:0000000000000074 .LVL24
C:\Users\stapi\AppData\Local\Temp\cchP1ZsS.s:407    .text.hostapd_config_defaults:000000000000007e .LVL25
C:\Users\stapi\AppData\Local\Temp\cchP1ZsS.s:419    .text.hostapd_config_defaults:0000000000000090 .LVL26
C:\Users\stapi\AppData\Local\Temp\cchP1ZsS.s:430    .text.hostapd_config_defaults:00000000000000a2 .LVL27
C:\Users\stapi\AppData\Local\Temp\cchP1ZsS.s:436    .text.hostapd_config_defaults:00000000000000ae .LVL28
C:\Users\stapi\AppData\Local\Temp\cchP1ZsS.s:466    .text.hostapd_config_defaults:00000000000000dc .LVL29
C:\Users\stapi\AppData\Local\Temp\cchP1ZsS.s:474    .text.hostapd_config_defaults:00000000000000f2 .LVL30
C:\Users\stapi\AppData\Local\Temp\cchP1ZsS.s:482    .text.hostapd_config_defaults:0000000000000108 .LVL31
C:\Users\stapi\AppData\Local\Temp\cchP1ZsS.s:490    .text.hostapd_config_defaults:000000000000011e .LVL32
C:\Users\stapi\AppData\Local\Temp\cchP1ZsS.s:498    .text.hostapd_config_defaults:0000000000000134 .LVL33
C:\Users\stapi\AppData\Local\Temp\cchP1ZsS.s:506    .text.hostapd_config_defaults:000000000000014a .LVL34
C:\Users\stapi\AppData\Local\Temp\cchP1ZsS.s:514    .text.hostapd_config_defaults:0000000000000160 .LVL35
C:\Users\stapi\AppData\Local\Temp\cchP1ZsS.s:522    .text.hostapd_config_defaults:0000000000000176 .LVL36
C:\Users\stapi\AppData\Local\Temp\cchP1ZsS.s:562    .text.hostapd_config_defaults:00000000000001b4 .LVL37
C:\Users\stapi\AppData\Local\Temp\cchP1ZsS.s:16663  .debug_str:0000000000000db0 .LASF680
C:\Users\stapi\AppData\Local\Temp\cchP1ZsS.s:103    .text.hostapd_config_defaults_bss:0000000000000000 .LFB138
C:\Users\stapi\AppData\Local\Temp\cchP1ZsS.s:291    .text.hostapd_config_defaults_bss:00000000000000d8 .LFE138
C:\Users\stapi\AppData\Local\Temp\cchP1ZsS.s:108    .text.hostapd_config_defaults_bss:0000000000000000 .LBB18
C:\Users\stapi\AppData\Local\Temp\cchP1ZsS.s:15740  .debug_loc:0000000000000d19 .LLST4
C:\Users\stapi\AppData\Local\Temp\cchP1ZsS.s:16507  .debug_str:0000000000000987 .LASF681
C:\Users\stapi\AppData\Local\Temp\cchP1ZsS.s:16741  .debug_str:0000000000000ffb .LASF682
C:\Users\stapi\AppData\Local\Temp\cchP1ZsS.s:16571  .debug_str:0000000000000b3e .LASF683
C:\Users\stapi\AppData\Local\Temp\cchP1ZsS.s:17083  .debug_str:0000000000001b0a .LASF684
C:\Users\stapi\AppData\Local\Temp\cchP1ZsS.s:16905  .debug_str:000000000000161f .LASF685
C:\Users\stapi\AppData\Local\Temp\cchP1ZsS.s:16169  .debug_str:0000000000000086 .LASF686
C:\Users\stapi\AppData\Local\Temp\cchP1ZsS.s:16533  .debug_str:0000000000000a37 .LASF687
C:\Users\stapi\AppData\Local\Temp\cchP1ZsS.s:16513  .debug_str:00000000000009bb .LASF688
C:\Users\stapi\AppData\Local\Temp\cchP1ZsS.s:17587  .debug_str:000000000000298b .LASF689
C:\Users\stapi\AppData\Local\Temp\cchP1ZsS.s:17279  .debug_str:0000000000001fee .LASF690
C:\Users\stapi\AppData\Local\Temp\cchP1ZsS.s:16247  .debug_str:0000000000000289 .LASF730
C:\Users\stapi\AppData\Local\Temp\cchP1ZsS.s:13     .text.is_zero_ether_addr:0000000000000000 .LFB42
C:\Users\stapi\AppData\Local\Temp\cchP1ZsS.s:37     .text.is_zero_ether_addr:000000000000002c .LFE42
C:\Users\stapi\AppData\Local\Temp\cchP1ZsS.s:15747  .debug_loc:0000000000000d2c .LLST0
C:\Users\stapi\AppData\Local\Temp\cchP1ZsS.s:17309  .debug_str:00000000000020d8 .LASF691
C:\Users\stapi\AppData\Local\Temp\cchP1ZsS.s:16545  .debug_str:0000000000000a7b .LASF692
C:\Users\stapi\AppData\Local\Temp\cchP1ZsS.s:16955  .debug_str:000000000000174c .LASF693
C:\Users\stapi\AppData\Local\Temp\cchP1ZsS.s:1097   .text.hostapd_config_free_bss:0000000000000000 .LFB155
C:\Users\stapi\AppData\Local\Temp\cchP1ZsS.s:1560   .text.hostapd_config_free_bss:00000000000002f8 .LFE155
C:\Users\stapi\AppData\Local\Temp\cchP1ZsS.s:15761  .debug_loc:0000000000000d4d .LLST31
C:\Users\stapi\AppData\Local\Temp\cchP1ZsS.s:1113   .text.hostapd_config_free_bss:000000000000000e .LBB50
C:\Users\stapi\AppData\Local\Temp\cchP1ZsS.s:15776  .debug_loc:0000000000000d76 .LLST32
C:\Users\stapi\AppData\Local\Temp\cchP1ZsS.s:1299   .text.hostapd_config_free_bss:00000000000001ba .LBB52
C:\Users\stapi\AppData\Local\Temp\cchP1ZsS.s:15791  .debug_loc:0000000000000d9f .LLST33
C:\Users\stapi\AppData\Local\Temp\cchP1ZsS.s:15802  .debug_loc:0000000000000dbd .LLST34
C:\Users\stapi\AppData\Local\Temp\cchP1ZsS.s:15817  .debug_loc:0000000000000de6 .LLST35
C:\Users\stapi\AppData\Local\Temp\cchP1ZsS.s:1469   .text.hostapd_config_free_bss:000000000000029c .LVL165
C:\Users\stapi\AppData\Local\Temp\cchP1ZsS.s:1326   .text.hostapd_config_free_bss:00000000000001c8 .LBB57
C:\Users\stapi\AppData\Local\Temp\cchP1ZsS.s:15824  .debug_loc:0000000000000df9 .LLST36
C:\Users\stapi\AppData\Local\Temp\cchP1ZsS.s:15835  .debug_loc:0000000000000e17 .LLST37
C:\Users\stapi\AppData\Local\Temp\cchP1ZsS.s:1368   .text.hostapd_config_free_bss:000000000000021e .LBB59
C:\Users\stapi\AppData\Local\Temp\cchP1ZsS.s:1375   .text.hostapd_config_free_bss:0000000000000222 .LBE59
C:\Users\stapi\AppData\Local\Temp\cchP1ZsS.s:15846  .debug_loc:0000000000000e35 .LLST38
C:\Users\stapi\AppData\Local\Temp\cchP1ZsS.s:1480   .text.hostapd_config_free_bss:00000000000002a0 .LBB61
C:\Users\stapi\AppData\Local\Temp\cchP1ZsS.s:15855  .debug_loc:0000000000000e4b .LLST39
C:\Users\stapi\AppData\Local\Temp\cchP1ZsS.s:1509   .text.hostapd_config_free_bss:00000000000002ba .LVL168
C:\Users\stapi\AppData\Local\Temp\cchP1ZsS.s:1513   .text.hostapd_config_free_bss:00000000000002c4 .LVL169
C:\Users\stapi\AppData\Local\Temp\cchP1ZsS.s:1424   .text.hostapd_config_free_bss:0000000000000278 .LBB68
C:\Users\stapi\AppData\Local\Temp\cchP1ZsS.s:15862  .debug_loc:0000000000000e5e .LLST40
C:\Users\stapi\AppData\Local\Temp\cchP1ZsS.s:15873  .debug_loc:0000000000000e7c .LLST41
C:\Users\stapi\AppData\Local\Temp\cchP1ZsS.s:15888  .debug_loc:0000000000000ea5 .LLST42
C:\Users\stapi\AppData\Local\Temp\cchP1ZsS.s:1530   .text.hostapd_config_free_bss:00000000000002d4 .LVL172
C:\Users\stapi\AppData\Local\Temp\cchP1ZsS.s:1534   .text.hostapd_config_free_bss:00000000000002de .LVL173
C:\Users\stapi\AppData\Local\Temp\cchP1ZsS.s:1538   .text.hostapd_config_free_bss:00000000000002e8 .LVL174
C:\Users\stapi\AppData\Local\Temp\cchP1ZsS.s:1542   .text.hostapd_config_free_bss:00000000000002f2 .LVL175
C:\Users\stapi\AppData\Local\Temp\cchP1ZsS.s:1122   .text.hostapd_config_free_bss:000000000000001e .LVL100
C:\Users\stapi\AppData\Local\Temp\cchP1ZsS.s:1126   .text.hostapd_config_free_bss:0000000000000028 .LVL101
C:\Users\stapi\AppData\Local\Temp\cchP1ZsS.s:1130   .text.hostapd_config_free_bss:0000000000000032 .LVL102
C:\Users\stapi\AppData\Local\Temp\cchP1ZsS.s:1137   .text.hostapd_config_free_bss:0000000000000040 .LVL103
C:\Users\stapi\AppData\Local\Temp\cchP1ZsS.s:1141   .text.hostapd_config_free_bss:000000000000004a .LVL104
C:\Users\stapi\AppData\Local\Temp\cchP1ZsS.s:1145   .text.hostapd_config_free_bss:0000000000000054 .LVL105
C:\Users\stapi\AppData\Local\Temp\cchP1ZsS.s:1149   .text.hostapd_config_free_bss:000000000000005e .LVL106
C:\Users\stapi\AppData\Local\Temp\cchP1ZsS.s:1153   .text.hostapd_config_free_bss:0000000000000068 .LVL107
C:\Users\stapi\AppData\Local\Temp\cchP1ZsS.s:1157   .text.hostapd_config_free_bss:0000000000000072 .LVL108
C:\Users\stapi\AppData\Local\Temp\cchP1ZsS.s:1161   .text.hostapd_config_free_bss:000000000000007c .LVL109
C:\Users\stapi\AppData\Local\Temp\cchP1ZsS.s:1165   .text.hostapd_config_free_bss:0000000000000086 .LVL110
C:\Users\stapi\AppData\Local\Temp\cchP1ZsS.s:1175   .text.hostapd_config_free_bss:0000000000000096 .LVL111
C:\Users\stapi\AppData\Local\Temp\cchP1ZsS.s:1183   .text.hostapd_config_free_bss:00000000000000a4 .LVL112
C:\Users\stapi\AppData\Local\Temp\cchP1ZsS.s:1190   .text.hostapd_config_free_bss:00000000000000b0 .LVL113
C:\Users\stapi\AppData\Local\Temp\cchP1ZsS.s:1198   .text.hostapd_config_free_bss:00000000000000c0 .LVL114
C:\Users\stapi\AppData\Local\Temp\cchP1ZsS.s:1202   .text.hostapd_config_free_bss:00000000000000cc .LVL115
C:\Users\stapi\AppData\Local\Temp\cchP1ZsS.s:1206   .text.hostapd_config_free_bss:00000000000000d8 .LVL116
C:\Users\stapi\AppData\Local\Temp\cchP1ZsS.s:1210   .text.hostapd_config_free_bss:00000000000000e2 .LVL117
C:\Users\stapi\AppData\Local\Temp\cchP1ZsS.s:1214   .text.hostapd_config_free_bss:00000000000000ec .LVL118
C:\Users\stapi\AppData\Local\Temp\cchP1ZsS.s:1218   .text.hostapd_config_free_bss:00000000000000f6 .LVL119
C:\Users\stapi\AppData\Local\Temp\cchP1ZsS.s:1222   .text.hostapd_config_free_bss:0000000000000100 .LVL120
C:\Users\stapi\AppData\Local\Temp\cchP1ZsS.s:1226   .text.hostapd_config_free_bss:000000000000010a .LVL121
C:\Users\stapi\AppData\Local\Temp\cchP1ZsS.s:1230   .text.hostapd_config_free_bss:0000000000000114 .LVL122
C:\Users\stapi\AppData\Local\Temp\cchP1ZsS.s:1234   .text.hostapd_config_free_bss:000000000000011e .LVL123
C:\Users\stapi\AppData\Local\Temp\cchP1ZsS.s:1238   .text.hostapd_config_free_bss:0000000000000128 .LVL124
C:\Users\stapi\AppData\Local\Temp\cchP1ZsS.s:1242   .text.hostapd_config_free_bss:0000000000000132 .LVL125
C:\Users\stapi\AppData\Local\Temp\cchP1ZsS.s:1246   .text.hostapd_config_free_bss:000000000000013c .LVL126
C:\Users\stapi\AppData\Local\Temp\cchP1ZsS.s:1250   .text.hostapd_config_free_bss:0000000000000146 .LVL127
C:\Users\stapi\AppData\Local\Temp\cchP1ZsS.s:1254   .text.hostapd_config_free_bss:0000000000000150 .LVL128
C:\Users\stapi\AppData\Local\Temp\cchP1ZsS.s:1258   .text.hostapd_config_free_bss:000000000000015a .LVL129
C:\Users\stapi\AppData\Local\Temp\cchP1ZsS.s:1262   .text.hostapd_config_free_bss:0000000000000164 .LVL130
C:\Users\stapi\AppData\Local\Temp\cchP1ZsS.s:1269   .text.hostapd_config_free_bss:0000000000000172 .LVL131
C:\Users\stapi\AppData\Local\Temp\cchP1ZsS.s:1273   .text.hostapd_config_free_bss:000000000000017c .LVL132
C:\Users\stapi\AppData\Local\Temp\cchP1ZsS.s:1277   .text.hostapd_config_free_bss:0000000000000186 .LVL133
C:\Users\stapi\AppData\Local\Temp\cchP1ZsS.s:1281   .text.hostapd_config_free_bss:0000000000000190 .LVL134
C:\Users\stapi\AppData\Local\Temp\cchP1ZsS.s:1285   .text.hostapd_config_free_bss:000000000000019a .LVL135
C:\Users\stapi\AppData\Local\Temp\cchP1ZsS.s:1289   .text.hostapd_config_free_bss:00000000000001a4 .LVL136
C:\Users\stapi\AppData\Local\Temp\cchP1ZsS.s:1293   .text.hostapd_config_free_bss:00000000000001ae .LVL137
C:\Users\stapi\AppData\Local\Temp\cchP1ZsS.s:1297   .text.hostapd_config_free_bss:00000000000001ba .LVL138
C:\Users\stapi\AppData\Local\Temp\cchP1ZsS.s:1334   .text.hostapd_config_free_bss:00000000000001d4 .LVL142
C:\Users\stapi\AppData\Local\Temp\cchP1ZsS.s:1338   .text.hostapd_config_free_bss:00000000000001de .LVL143
C:\Users\stapi\AppData\Local\Temp\cchP1ZsS.s:1342   .text.hostapd_config_free_bss:00000000000001e8 .LVL144
C:\Users\stapi\AppData\Local\Temp\cchP1ZsS.s:1346   .text.hostapd_config_free_bss:00000000000001f2 .LVL145
C:\Users\stapi\AppData\Local\Temp\cchP1ZsS.s:1350   .text.hostapd_config_free_bss:00000000000001fe .LVL146
C:\Users\stapi\AppData\Local\Temp\cchP1ZsS.s:1354   .text.hostapd_config_free_bss:0000000000000208 .LVL147
C:\Users\stapi\AppData\Local\Temp\cchP1ZsS.s:1358   .text.hostapd_config_free_bss:0000000000000212 .LVL148
C:\Users\stapi\AppData\Local\Temp\cchP1ZsS.s:1362   .text.hostapd_config_free_bss:000000000000021e .LVL149
C:\Users\stapi\AppData\Local\Temp\cchP1ZsS.s:1389   .text.hostapd_config_free_bss:0000000000000236 .LVL153
C:\Users\stapi\AppData\Local\Temp\cchP1ZsS.s:1396   .text.hostapd_config_free_bss:0000000000000244 .LVL154
C:\Users\stapi\AppData\Local\Temp\cchP1ZsS.s:1400   .text.hostapd_config_free_bss:000000000000024e .LVL155
C:\Users\stapi\AppData\Local\Temp\cchP1ZsS.s:1404   .text.hostapd_config_free_bss:0000000000000258 .LVL156
C:\Users\stapi\AppData\Local\Temp\cchP1ZsS.s:1408   .text.hostapd_config_free_bss:0000000000000264 .LVL157
C:\Users\stapi\AppData\Local\Temp\cchP1ZsS.s:1412   .text.hostapd_config_free_bss:000000000000026e .LVL158
C:\Users\stapi\AppData\Local\Temp\cchP1ZsS.s:1416   .text.hostapd_config_free_bss:0000000000000278 .LVL159
C:\Users\stapi\AppData\Local\Temp\cchP1ZsS.s:1444   .text.hostapd_config_free_bss:000000000000028a .LVL162
C:\Users\stapi\AppData\Local\Temp\cchP1ZsS.s:2963   .text.hostapd_setup_sae_pt:0000000000000000 .LFB143
C:\Users\stapi\AppData\Local\Temp\cchP1ZsS.s:3117   .text.hostapd_setup_sae_pt:00000000000000d0 .LFE143
C:\Users\stapi\AppData\Local\Temp\cchP1ZsS.s:15895  .debug_loc:0000000000000eb8 .LLST80
C:\Users\stapi\AppData\Local\Temp\cchP1ZsS.s:15906  .debug_loc:0000000000000ed6 .LLST81
C:\Users\stapi\AppData\Local\Temp\cchP1ZsS.s:3014   .text.hostapd_setup_sae_pt:000000000000002e .LBB114
C:\Users\stapi\AppData\Local\Temp\cchP1ZsS.s:3024   .text.hostapd_setup_sae_pt:000000000000003a .LBE114
C:\Users\stapi\AppData\Local\Temp\cchP1ZsS.s:3028   .text.hostapd_setup_sae_pt:000000000000003c .LBB116
C:\Users\stapi\AppData\Local\Temp\cchP1ZsS.s:3115   .text.hostapd_setup_sae_pt:00000000000000d0 .LBE116
C:\Users\stapi\AppData\Local\Temp\cchP1ZsS.s:15921  .debug_loc:0000000000000efa .LLST82
C:\Users\stapi\AppData\Local\Temp\cchP1ZsS.s:3033   .text.hostapd_setup_sae_pt:0000000000000048 .LVL294
C:\Users\stapi\AppData\Local\Temp\cchP1ZsS.s:3056   .text.hostapd_setup_sae_pt:0000000000000066 .LVL296
C:\Users\stapi\AppData\Local\Temp\cchP1ZsS.s:3067   .text.hostapd_setup_sae_pt:000000000000007e .LVL297
C:\Users\stapi\AppData\Local\Temp\cchP1ZsS.s:3075   .text.hostapd_setup_sae_pt:0000000000000092 .LVL298
C:\Users\stapi\AppData\Local\Temp\cchP1ZsS.s:3096   .text.hostapd_setup_sae_pt:00000000000000b0 .LVL301
C:\Users\stapi\AppData\Local\Temp\cchP1ZsS.s:3104   .text.hostapd_setup_sae_pt:00000000000000c6 .LVL302
C:\Users\stapi\AppData\Local\Temp\cchP1ZsS.s:2989   .text.hostapd_setup_sae_pt:000000000000001a .LVL291
C:\Users\stapi\AppData\Local\Temp\cchP1ZsS.s:3821   .text.hostapd_sae_pk_in_use:0000000000000000 .LFB168
C:\Users\stapi\AppData\Local\Temp\cchP1ZsS.s:3831   .text.hostapd_sae_pk_in_use:0000000000000004 .LFE168
C:\Users\stapi\AppData\Local\Temp\cchP1ZsS.s:15928  .debug_loc:0000000000000f0d .LLST100
C:\Users\stapi\AppData\Local\Temp\cchP1ZsS.s:16701  .debug_str:0000000000000ed6 .LASF694
C:\Users\stapi\AppData\Local\Temp\cchP1ZsS.s:16447  .debug_str:00000000000007f2 .LASF695
C:\Users\stapi\AppData\Local\Temp\cchP1ZsS.s:16191  .debug_str:0000000000000104 .LASF696
C:\Users\stapi\AppData\Local\Temp\cchP1ZsS.s:16723  .debug_str:0000000000000f83 .LASF697
C:\Users\stapi\AppData\Local\Temp\cchP1ZsS.s:17437  .debug_str:00000000000024a8 .LASF731
C:\Users\stapi\AppData\Local\Temp\cchP1ZsS.s:16613  .debug_str:0000000000000c4f .LASF732
C:\Users\stapi\AppData\Local\Temp\cchP1ZsS.s:16427  .debug_str:000000000000076c .LASF698
C:\Users\stapi\AppData\Local\Temp\cchP1ZsS.s:16383  .debug_str:0000000000000651 .LASF699
C:\Users\stapi\AppData\Local\Temp\cchP1ZsS.s:17383  .debug_str:000000000000232b .LASF700
C:\Users\stapi\AppData\Local\Temp\cchP1ZsS.s:17333  .debug_str:0000000000002196 .LASF701
C:\Users\stapi\AppData\Local\Temp\cchP1ZsS.s:16937  .debug_str:00000000000016cc .LASF702
C:\Users\stapi\AppData\Local\Temp\cchP1ZsS.s:16317  .debug_str:000000000000048b .LASF703
C:\Users\stapi\AppData\Local\Temp\cchP1ZsS.s:17261  .debug_str:0000000000001f8d .LASF704
C:\Users\stapi\AppData\Local\Temp\cchP1ZsS.s:17173  .debug_str:0000000000001d75 .LASF705
C:\Users\stapi\AppData\Local\Temp\cchP1ZsS.s:16847  .debug_str:0000000000001489 .LASF706
C:\Users\stapi\AppData\Local\Temp\cchP1ZsS.s:17495  .debug_str:00000000000026e5 .LASF707
C:\Users\stapi\AppData\Local\Temp\cchP1ZsS.s:17247  .debug_str:0000000000001f46 .LASF708
C:\Users\stapi\AppData\Local\Temp\cchP1ZsS.s:17163  .debug_str:0000000000001d3e .LASF709
C:\Users\stapi\AppData\Local\Temp\cchP1ZsS.s:16951  .debug_str:000000000000172d .LASF710
C:\Users\stapi\AppData\Local\Temp\cchP1ZsS.s:17509  .debug_str:0000000000002731 .LASF711
C:\Users\stapi\AppData\Local\Temp\cchP1ZsS.s:16859  .debug_str:00000000000014dd .LASF712
C:\Users\stapi\AppData\Local\Temp\cchP1ZsS.s:16311  .debug_str:000000000000045c .LASF713
C:\Users\stapi\AppData\Local\Temp\cchP1ZsS.s:16805  .debug_str:0000000000001355 .LASF714
C:\Users\stapi\AppData\Local\Temp\cchP1ZsS.s:17127  .debug_str:0000000000001c35 .LASF715
C:\Users\stapi\AppData\Local\Temp\cchP1ZsS.s:16171  .debug_str:0000000000000093 .LASF716
C:\Users\stapi\AppData\Local\Temp\cchP1ZsS.s:16529  .debug_str:0000000000000a25 .LASF717
C:\Users\stapi\AppData\Local\Temp\cchP1ZsS.s:17593  .debug_str:00000000000029a6 .LASF718
C:\Users\stapi\AppData\Local\Temp\cchP1ZsS.s:16481  .debug_str:00000000000008ea .LASF719
C:\Users\stapi\AppData\Local\Temp\cchP1ZsS.s:16779  .debug_str:00000000000011a0 .LASF720
C:\Users\stapi\AppData\Local\Temp\cchP1ZsS.s:16877  .debug_str:000000000000155e .LASF721
C:\Users\stapi\AppData\Local\Temp\cchP1ZsS.s:17569  .debug_str:000000000000291d .LASF722
C:\Users\stapi\AppData\Local\Temp\cchP1ZsS.s:16325  .debug_str:00000000000004bb .LASF723
C:\Users\stapi\AppData\Local\Temp\cchP1ZsS.s:16299  .debug_str:0000000000000407 .LASF724
C:\Users\stapi\AppData\Local\Temp\cchP1ZsS.s:2893   .text.hostapd_sae_pw_id_in_use:0000000000000000 .LVL278
C:\Users\stapi\AppData\Local\Temp\cchP1ZsS.s:2903   .text.hostapd_sae_pw_id_in_use:000000000000000a .LVL279
C:\Users\stapi\AppData\Local\Temp\cchP1ZsS.s:2906   .text.hostapd_sae_pw_id_in_use:000000000000000e .LVL280
C:\Users\stapi\AppData\Local\Temp\cchP1ZsS.s:2915   .text.hostapd_sae_pw_id_in_use:0000000000000012 .LVL281
C:\Users\stapi\AppData\Local\Temp\cchP1ZsS.s:2924   .text.hostapd_sae_pw_id_in_use:0000000000000018 .LVL283
C:\Users\stapi\AppData\Local\Temp\cchP1ZsS.s:2937   .text.hostapd_sae_pw_id_in_use:0000000000000020 .LVL285
C:\Users\stapi\AppData\Local\Temp\cchP1ZsS.s:2951   .text.hostapd_sae_pw_id_in_use:000000000000002a .LVL288
C:\Users\stapi\AppData\Local\Temp\cchP1ZsS.s:2920   .text.hostapd_sae_pw_id_in_use:0000000000000016 .LVL282
C:\Users\stapi\AppData\Local\Temp\cchP1ZsS.s:2931   .text.hostapd_sae_pw_id_in_use:000000000000001c .LVL284
C:\Users\stapi\AppData\Local\Temp\cchP1ZsS.s:2699   .text.hostapd_set_security_params:0000000000000000 .LVL272
C:\Users\stapi\AppData\Local\Temp\cchP1ZsS.s:2710   .text.hostapd_set_security_params:000000000000000e .LVL273
C:\Users\stapi\AppData\Local\Temp\cchP1ZsS.s:2733   .text.hostapd_set_security_params:000000000000002e .LVL274
C:\Users\stapi\AppData\Local\Temp\cchP1ZsS.s:2812   .text.hostapd_set_security_params:000000000000008c .LVL276
C:\Users\stapi\AppData\Local\Temp\cchP1ZsS.s:2836   .text.hostapd_set_security_params:00000000000000aa .LVL277
C:\Users\stapi\AppData\Local\Temp\cchP1ZsS.s:2172   .text.hostapd_config_check:0000000000000000 .LVL232
C:\Users\stapi\AppData\Local\Temp\cchP1ZsS.s:2213   .text.hostapd_config_check:0000000000000028 .LVL234
C:\Users\stapi\AppData\Local\Temp\cchP1ZsS.s:2211   .text.hostapd_config_check:0000000000000024 .LVL233
C:\Users\stapi\AppData\Local\Temp\cchP1ZsS.s:2223   .text.hostapd_config_check:0000000000000034 .LVL236
C:\Users\stapi\AppData\Local\Temp\cchP1ZsS.s:2235   .text.hostapd_config_check:000000000000003e .LVL237
C:\Users\stapi\AppData\Local\Temp\cchP1ZsS.s:2238   .text.hostapd_config_check:0000000000000044 .LVL238
C:\Users\stapi\AppData\Local\Temp\cchP1ZsS.s:2250   .text.hostapd_config_check:0000000000000054 .LVL239
C:\Users\stapi\AppData\Local\Temp\cchP1ZsS.s:2253   .text.hostapd_config_check:000000000000005a .LVL240
C:\Users\stapi\AppData\Local\Temp\cchP1ZsS.s:2264   .text.hostapd_config_check:000000000000006a .LVL241
C:\Users\stapi\AppData\Local\Temp\cchP1ZsS.s:2291   .text.hostapd_config_check:0000000000000084 .LVL243
C:\Users\stapi\AppData\Local\Temp\cchP1ZsS.s:2297   .text.hostapd_config_check:0000000000000090 .LVL244
C:\Users\stapi\AppData\Local\Temp\cchP1ZsS.s:2399   .text.hostapd_config_check:00000000000000e8 .LVL259
C:\Users\stapi\AppData\Local\Temp\cchP1ZsS.s:2575   .text.hostapd_config_check:00000000000001fe .LVL265
C:\Users\stapi\AppData\Local\Temp\cchP1ZsS.s:2626   .text.hostapd_config_check:000000000000025a .LVL269
C:\Users\stapi\AppData\Local\Temp\cchP1ZsS.s:2350   .text.hostapd_config_check:00000000000000b6 .LVL255
C:\Users\stapi\AppData\Local\Temp\cchP1ZsS.s:2362   .text.hostapd_config_check:00000000000000c4 .LVL257
C:\Users\stapi\AppData\Local\Temp\cchP1ZsS.s:2305   .text.hostapd_config_check:0000000000000092 .LVL245
C:\Users\stapi\AppData\Local\Temp\cchP1ZsS.s:2325   .text.hostapd_config_check:00000000000000a2 .LVL250
C:\Users\stapi\AppData\Local\Temp\cchP1ZsS.s:2329   .text.hostapd_config_check:00000000000000a8 .LVL252
C:\Users\stapi\AppData\Local\Temp\cchP1ZsS.s:2359   .text.hostapd_config_check:00000000000000be .LVL256
C:\Users\stapi\AppData\Local\Temp\cchP1ZsS.s:2309   .text.hostapd_config_check:0000000000000094 .LVL246
C:\Users\stapi\AppData\Local\Temp\cchP1ZsS.s:2333   .text.hostapd_config_check:00000000000000aa .LVL253
C:\Users\stapi\AppData\Local\Temp\cchP1ZsS.s:2313   .text.hostapd_config_check:0000000000000096 .LVL247
C:\Users\stapi\AppData\Local\Temp\cchP1ZsS.s:2323   .text.hostapd_config_check:000000000000009e .LVL249
C:\Users\stapi\AppData\Local\Temp\cchP1ZsS.s:2317   .text.hostapd_config_check:0000000000000098 .LVL248
C:\Users\stapi\AppData\Local\Temp\cchP1ZsS.s:2327   .text.hostapd_config_check:00000000000000a4 .LVL251
C:\Users\stapi\AppData\Local\Temp\cchP1ZsS.s:1924   .text.hostapd_get_psk:0000000000000000 .LVL215
C:\Users\stapi\AppData\Local\Temp\cchP1ZsS.s:1971   .text.hostapd_get_psk:000000000000003a .LVL220
C:\Users\stapi\AppData\Local\Temp\cchP1ZsS.s:2016   .text.hostapd_get_psk:000000000000009a .LVL224
C:\Users\stapi\AppData\Local\Temp\cchP1ZsS.s:2053   .text.hostapd_get_psk:00000000000000be .LVL226
C:\Users\stapi\AppData\Local\Temp\cchP1ZsS.s:2064   .text.hostapd_get_psk:00000000000000d4 .LVL228
C:\Users\stapi\AppData\Local\Temp\cchP1ZsS.s:1996   .text.hostapd_get_psk:000000000000006c .LVL222
C:\Users\stapi\AppData\Local\Temp\cchP1ZsS.s:1959   .text.hostapd_get_psk:0000000000000022 .LVL217
C:\Users\stapi\AppData\Local\Temp\cchP1ZsS.s:1961   .text.hostapd_get_psk:0000000000000026 .LVL218
C:\Users\stapi\AppData\Local\Temp\cchP1ZsS.s:1963   .text.hostapd_get_psk:000000000000002a .LVL219
C:\Users\stapi\AppData\Local\Temp\cchP1ZsS.s:2036   .text.hostapd_get_psk:00000000000000b2 .LVL225
C:\Users\stapi\AppData\Local\Temp\cchP1ZsS.s:1881   .text.hostapd_get_vlan_id_ifname:0000000000000000 .LVL211
C:\Users\stapi\AppData\Local\Temp\cchP1ZsS.s:1897   .text.hostapd_get_vlan_id_ifname:000000000000000e .LVL212
C:\Users\stapi\AppData\Local\Temp\cchP1ZsS.s:1899   .text.hostapd_get_vlan_id_ifname:0000000000000010 .LVL213
C:\Users\stapi\AppData\Local\Temp\cchP1ZsS.s:1820   .text.hostapd_vlan_valid:0000000000000000 .LVL208
C:\Users\stapi\AppData\Local\Temp\cchP1ZsS.s:1829   .text.hostapd_vlan_valid:0000000000000004 .LVL210
C:\Users\stapi\AppData\Local\Temp\cchP1ZsS.s:1824   .text.hostapd_vlan_valid:0000000000000002 .LVL209
C:\Users\stapi\AppData\Local\Temp\cchP1ZsS.s:1784   .text.hostapd_rate_found:0000000000000000 .LVL206
C:\Users\stapi\AppData\Local\Temp\cchP1ZsS.s:1789   .text.hostapd_rate_found:0000000000000002 .LVL207
C:\Users\stapi\AppData\Local\Temp\cchP1ZsS.s:1671   .text.hostapd_maclist_found:0000000000000000 .LVL194
C:\Users\stapi\AppData\Local\Temp\cchP1ZsS.s:1699   .text.hostapd_maclist_found:0000000000000018 .LVL197
C:\Users\stapi\AppData\Local\Temp\cchP1ZsS.s:1685   .text.hostapd_maclist_found:0000000000000008 .LVL195
C:\Users\stapi\AppData\Local\Temp\cchP1ZsS.s:1712   .text.hostapd_maclist_found:0000000000000026 .LVL198
C:\Users\stapi\AppData\Local\Temp\cchP1ZsS.s:1741   .text.hostapd_maclist_found:0000000000000056 .LVL202
C:\Users\stapi\AppData\Local\Temp\cchP1ZsS.s:1756   .text.hostapd_maclist_found:000000000000005e .LVL203
C:\Users\stapi\AppData\Local\Temp\cchP1ZsS.s:1729   .text.hostapd_maclist_found:000000000000003e .LVL200
C:\Users\stapi\AppData\Local\Temp\cchP1ZsS.s:1570   .text.hostapd_config_free:0000000000000000 .LVL178
C:\Users\stapi\AppData\Local\Temp\cchP1ZsS.s:1584   .text.hostapd_config_free:000000000000000e .LVL179
C:\Users\stapi\AppData\Local\Temp\cchP1ZsS.s:1653   .text.hostapd_config_free:000000000000008c .LVL193
C:\Users\stapi\AppData\Local\Temp\cchP1ZsS.s:1600   .text.hostapd_config_free:0000000000000024 .LVL181
C:\Users\stapi\AppData\Local\Temp\cchP1ZsS.s:1639   .text.hostapd_config_free:000000000000007a .LVL190
C:\Users\stapi\AppData\Local\Temp\cchP1ZsS.s:1647   .text.hostapd_config_free:0000000000000082 .LVL191
C:\Users\stapi\AppData\Local\Temp\cchP1ZsS.s:1047   .text.hostapd_config_clear_wpa_psk:0000000000000000 .LVL92
C:\Users\stapi\AppData\Local\Temp\cchP1ZsS.s:1059   .text.hostapd_config_clear_wpa_psk:000000000000000c .LVL93
C:\Users\stapi\AppData\Local\Temp\cchP1ZsS.s:1081   .text.hostapd_config_clear_wpa_psk:000000000000001c .LVL95
C:\Users\stapi\AppData\Local\Temp\cchP1ZsS.s:1077   .text.hostapd_config_clear_wpa_psk:000000000000001a .LVL94
C:\Users\stapi\AppData\Local\Temp\cchP1ZsS.s:1005   .text.hostapd_config_free_eap_users:0000000000000000 .LVL88
C:\Users\stapi\AppData\Local\Temp\cchP1ZsS.s:1023   .text.hostapd_config_free_eap_users:000000000000000e .LVL90
C:\Users\stapi\AppData\Local\Temp\cchP1ZsS.s:1019   .text.hostapd_config_free_eap_users:000000000000000c .LVL89
C:\Users\stapi\AppData\Local\Temp\cchP1ZsS.s:958    .text.hostapd_config_free_eap_user:0000000000000000 .LVL81
C:\Users\stapi\AppData\Local\Temp\cchP1ZsS.s:968    .text.hostapd_config_free_eap_user:000000000000000c .LVL82
C:\Users\stapi\AppData\Local\Temp\cchP1ZsS.s:906    .text.hostapd_config_free_radius_attr:0000000000000000 .LVL74
C:\Users\stapi\AppData\Local\Temp\cchP1ZsS.s:915    .text.hostapd_config_free_radius_attr:000000000000000a .LVL75
C:\Users\stapi\AppData\Local\Temp\cchP1ZsS.s:935    .text.hostapd_config_free_radius_attr:0000000000000018 .LVL77
C:\Users\stapi\AppData\Local\Temp\cchP1ZsS.s:929    .text.hostapd_config_free_radius_attr:0000000000000014 .LVL76
C:\Users\stapi\AppData\Local\Temp\cchP1ZsS.s:945    .text.hostapd_config_free_radius_attr:000000000000002c .LVL80
C:\Users\stapi\AppData\Local\Temp\cchP1ZsS.s:658    .text.hostapd_parse_radius_attr:0000000000000000 .LVL42
C:\Users\stapi\AppData\Local\Temp\cchP1ZsS.s:674    .text.hostapd_parse_radius_attr:000000000000000c .LVL43
C:\Users\stapi\AppData\Local\Temp\cchP1ZsS.s:709    .text.hostapd_parse_radius_attr:0000000000000044 .LVL50
C:\Users\stapi\AppData\Local\Temp\cchP1ZsS.s:721    .text.hostapd_parse_radius_attr:0000000000000052 .LVL53
C:\Users\stapi\AppData\Local\Temp\cchP1ZsS.s:735    .text.hostapd_parse_radius_attr:0000000000000060 .LVL55
C:\Users\stapi\AppData\Local\Temp\cchP1ZsS.s:748    .text.hostapd_parse_radius_attr:000000000000006a .LVL56
C:\Users\stapi\AppData\Local\Temp\cchP1ZsS.s:768    .text.hostapd_parse_radius_attr:0000000000000084 .LVL58
C:\Users\stapi\AppData\Local\Temp\cchP1ZsS.s:701    .text.hostapd_parse_radius_attr:0000000000000038 .LVL48
C:\Users\stapi\AppData\Local\Temp\cchP1ZsS.s:762    .text.hostapd_parse_radius_attr:000000000000007c .LVL57
C:\Users\stapi\AppData\Local\Temp\cchP1ZsS.s:793    .text.hostapd_parse_radius_attr:00000000000000b4 .LVL61
C:\Users\stapi\AppData\Local\Temp\cchP1ZsS.s:825    .text.hostapd_parse_radius_attr:00000000000000de .LVL63
C:\Users\stapi\AppData\Local\Temp\cchP1ZsS.s:843    .text.hostapd_parse_radius_attr:00000000000000f6 .LVL66
C:\Users\stapi\AppData\Local\Temp\cchP1ZsS.s:850    .text.hostapd_parse_radius_attr:00000000000000fc .LVL67
C:\Users\stapi\AppData\Local\Temp\cchP1ZsS.s:678    .text.hostapd_parse_radius_attr:0000000000000016 .LVL45
C:\Users\stapi\AppData\Local\Temp\cchP1ZsS.s:719    .text.hostapd_parse_radius_attr:0000000000000050 .LVL52
C:\Users\stapi\AppData\Local\Temp\cchP1ZsS.s:865    .text.hostapd_parse_radius_attr:0000000000000110 .LVL69
C:\Users\stapi\AppData\Local\Temp\cchP1ZsS.s:628    .text.hostapd_config_get_radius_attr:0000000000000000 .LVL40
C:\Users\stapi\AppData\Local\Temp\cchP1ZsS.s:645    .text.hostapd_config_get_radius_attr:000000000000000e .LVL41
C:\Users\stapi\AppData\Local\Temp\cchP1ZsS.s:47     .text.hostapd_config_free_radius:0000000000000000 .LVL2
C:\Users\stapi\AppData\Local\Temp\cchP1ZsS.s:64     .text.hostapd_config_free_radius:0000000000000012 .LVL4
C:\Users\stapi\AppData\Local\Temp\cchP1ZsS.s:57     .text.hostapd_config_free_radius:0000000000000008 .LVL3
C:\Users\stapi\AppData\Local\Temp\cchP1ZsS.s:88     .text.hostapd_config_free_radius:000000000000002e .LVL6
C:\Users\stapi\AppData\Local\Temp\cchP1ZsS.s:3188   .text.hostapd_setup_wpa_psk:0000000000000000 .LVL303
C:\Users\stapi\AppData\Local\Temp\cchP1ZsS.s:3243   .text.hostapd_setup_wpa_psk:0000000000000046 .LVL307
C:\Users\stapi\AppData\Local\Temp\cchP1ZsS.s:3292   .text.hostapd_setup_wpa_psk:000000000000007c .LVL313
C:\Users\stapi\AppData\Local\Temp\cchP1ZsS.s:3381   .text.hostapd_setup_wpa_psk:000000000000012c .LVL323
C:\Users\stapi\AppData\Local\Temp\cchP1ZsS.s:3631   .text.hostapd_setup_wpa_psk:0000000000000282 .LVL359
C:\Users\stapi\AppData\Local\Temp\cchP1ZsS.s:3270   .text.hostapd_setup_wpa_psk:0000000000000060 .LVL309
C:\Users\stapi\AppData\Local\Temp\cchP1ZsS.s:3277   .text.hostapd_setup_wpa_psk:0000000000000066 .LVL310
C:\Users\stapi\AppData\Local\Temp\cchP1ZsS.s:3392   .text.hostapd_setup_wpa_psk:0000000000000138 .LVL324
C:\Users\stapi\AppData\Local\Temp\cchP1ZsS.s:3417   .text.hostapd_setup_wpa_psk:0000000000000154 .LVL328
C:\Users\stapi\AppData\Local\Temp\cchP1ZsS.s:3434   .text.hostapd_setup_wpa_psk:0000000000000166 .LVL329
C:\Users\stapi\AppData\Local\Temp\cchP1ZsS.s:3486   .text.hostapd_setup_wpa_psk:00000000000001b8 .LVL337
C:\Users\stapi\AppData\Local\Temp\cchP1ZsS.s:3493   .text.hostapd_setup_wpa_psk:00000000000001bc .LVL339
C:\Users\stapi\AppData\Local\Temp\cchP1ZsS.s:3688   .text.hostapd_setup_wpa_psk:00000000000002d2 .LVL370
C:\Users\stapi\AppData\Local\Temp\cchP1ZsS.s:3697   .text.hostapd_setup_wpa_psk:00000000000002e0 .LVL371
C:\Users\stapi\AppData\Local\Temp\cchP1ZsS.s:3704   .text.hostapd_setup_wpa_psk:00000000000002ec .LVL373
C:\Users\stapi\AppData\Local\Temp\cchP1ZsS.s:3713   .text.hostapd_setup_wpa_psk:00000000000002fe .LVL375
C:\Users\stapi\AppData\Local\Temp\cchP1ZsS.s:3440   .text.hostapd_setup_wpa_psk:000000000000016a .LVL330
C:\Users\stapi\AppData\Local\Temp\cchP1ZsS.s:3450   .text.hostapd_setup_wpa_psk:0000000000000174 .LVL331
C:\Users\stapi\AppData\Local\Temp\cchP1ZsS.s:3600   .text.hostapd_setup_wpa_psk:000000000000026c .LVL357
C:\Users\stapi\AppData\Local\Temp\cchP1ZsS.s:3638   .text.hostapd_setup_wpa_psk:0000000000000284 .LVL360
C:\Users\stapi\AppData\Local\Temp\cchP1ZsS.s:3640   .text.hostapd_setup_wpa_psk:0000000000000286 .LVL361
C:\Users\stapi\AppData\Local\Temp\cchP1ZsS.s:3461   .text.hostapd_setup_wpa_psk:000000000000018a .LVL333
C:\Users\stapi\AppData\Local\Temp\cchP1ZsS.s:3466   .text.hostapd_setup_wpa_psk:0000000000000190 .LVL334
C:\Users\stapi\AppData\Local\Temp\cchP1ZsS.s:3528   .text.hostapd_setup_wpa_psk:00000000000001f6 .LVL345
C:\Users\stapi\AppData\Local\Temp\cchP1ZsS.s:3515   .text.hostapd_setup_wpa_psk:00000000000001e2 .LVL342
C:\Users\stapi\AppData\Local\Temp\cchP1ZsS.s:3522   .text.hostapd_setup_wpa_psk:00000000000001e6 .LVL343
C:\Users\stapi\AppData\Local\Temp\cchP1ZsS.s:3535   .text.hostapd_setup_wpa_psk:00000000000001fc .LVL346
C:\Users\stapi\AppData\Local\Temp\cchP1ZsS.s:3290   .text.hostapd_setup_wpa_psk:000000000000007a .LVL312
C:\Users\stapi\AppData\Local\Temp\cchP1ZsS.s:3397   .text.hostapd_setup_wpa_psk:0000000000000142 .LVL326
C:\Users\stapi\AppData\Local\Temp\cchP1ZsS.s:3662   .text.hostapd_setup_wpa_psk:00000000000002aa .LVL366
C:\Users\stapi\AppData\Local\Temp\cchP1ZsS.s:3754   .text.hostapd_setup_wpa_psk:0000000000000346 .LVL382
C:\Users\stapi\AppData\Local\Temp\cchP1ZsS.s:3728   .text.hostapd_setup_wpa_psk:0000000000000318 .LVL377
C:\Users\stapi\AppData\Local\Temp\cchP1ZsS.s:3759   .text.hostapd_setup_wpa_psk:0000000000000348 .LVL383
C:\Users\stapi\AppData\Local\Temp\cchP1ZsS.s:3770   .text.hostapd_setup_wpa_psk:0000000000000362 .LVL384
C:\Users\stapi\AppData\Local\Temp\cchP1ZsS.s:3796   .text.hostapd_setup_wpa_psk:0000000000000396 .LVL388
C:\Users\stapi\AppData\Local\Temp\cchP1ZsS.s:3735   .text.hostapd_setup_wpa_psk:0000000000000322 .LVL379
C:\Users\stapi\AppData\Local\Temp\cchP1ZsS.s:3775   .text.hostapd_setup_wpa_psk:000000000000036c .LVL386
C:\Users\stapi\AppData\Local\Temp\cchP1ZsS.s:3648   .text.hostapd_setup_wpa_psk:0000000000000294 .LVL363
C:\Users\stapi\AppData\Local\Temp\cchP1ZsS.s:3656   .text.hostapd_setup_wpa_psk:00000000000002a0 .LVL364
C:\Users\stapi\AppData\Local\Temp\cchP1ZsS.s:3670   .text.hostapd_setup_wpa_psk:00000000000002b0 .LVL367
C:\Users\stapi\AppData\Local\Temp\cchP1ZsS.s:3578   .text.hostapd_setup_wpa_psk:000000000000024e .LVL354
C:\Users\stapi\AppData\Local\Temp\cchP1ZsS.s:3580   .text.hostapd_setup_wpa_psk:0000000000000250 .LVL355
C:\Users\stapi\AppData\Local\Temp\cchP1ZsS.s:3559   .text.hostapd_setup_wpa_psk:000000000000022c .LVL350
C:\Users\stapi\AppData\Local\Temp\cchP1ZsS.s:3561   .text.hostapd_setup_wpa_psk:000000000000022e .LVL351
C:\Users\stapi\AppData\Local\Temp\cchP1ZsS.s:3328   .text.hostapd_setup_wpa_psk:00000000000000b6 .LVL317
C:\Users\stapi\AppData\Local\Temp\cchP1ZsS.s:611    .text.hostapd_mac_comp:0000000000000000 .LVL38
C:\Users\stapi\AppData\Local\Temp\cchP1ZsS.s:336    .text.hostapd_config_defaults:0000000000000024 .LVL15
C:\Users\stapi\AppData\Local\Temp\cchP1ZsS.s:347    .text.hostapd_config_defaults:0000000000000032 .LVL16
C:\Users\stapi\AppData\Local\Temp\cchP1ZsS.s:371    .text.hostapd_config_defaults:000000000000005a .LVL20
C:\Users\stapi\AppData\Local\Temp\cchP1ZsS.s:382    .text.hostapd_config_defaults:000000000000005c .LVL21
C:\Users\stapi\AppData\Local\Temp\cchP1ZsS.s:393    .text.hostapd_config_defaults:0000000000000068 .LVL23
C:\Users\stapi\AppData\Local\Temp\cchP1ZsS.s:117    .text.hostapd_config_defaults_bss:0000000000000008 .LVL9
C:\Users\stapi\AppData\Local\Temp\cchP1ZsS.s:126    .text.hostapd_config_defaults_bss:000000000000000c .LVL10
C:\Users\stapi\AppData\Local\Temp\cchP1ZsS.s:17     .text.is_zero_ether_addr:0000000000000000 .LVL0
C:\Users\stapi\AppData\Local\Temp\cchP1ZsS.s:29     .text.is_zero_ether_addr:000000000000001e .LVL1
C:\Users\stapi\AppData\Local\Temp\cchP1ZsS.s:1100   .text.hostapd_config_free_bss:0000000000000000 .LVL97
C:\Users\stapi\AppData\Local\Temp\cchP1ZsS.s:1117   .text.hostapd_config_free_bss:0000000000000012 .LVL99
C:\Users\stapi\AppData\Local\Temp\cchP1ZsS.s:1547   .text.hostapd_config_free_bss:00000000000002f6 .LVL177
C:\Users\stapi\AppData\Local\Temp\cchP1ZsS.s:1112   .text.hostapd_config_free_bss:000000000000000e .LVL98
C:\Users\stapi\AppData\Local\Temp\cchP1ZsS.s:1455   .text.hostapd_config_free_bss:0000000000000292 .LVL163
C:\Users\stapi\AppData\Local\Temp\cchP1ZsS.s:1322   .text.hostapd_config_free_bss:00000000000001c8 .LVL141
C:\Users\stapi\AppData\Local\Temp\cchP1ZsS.s:1473   .text.hostapd_config_free_bss:00000000000002a0 .LVL166
C:\Users\stapi\AppData\Local\Temp\cchP1ZsS.s:1305   .text.hostapd_config_free_bss:00000000000001bc .LVL139
C:\Users\stapi\AppData\Local\Temp\cchP1ZsS.s:1317   .text.hostapd_config_free_bss:00000000000001c4 .LVL140
C:\Users\stapi\AppData\Local\Temp\cchP1ZsS.s:1466   .text.hostapd_config_free_bss:0000000000000294 .LVL164
C:\Users\stapi\AppData\Local\Temp\cchP1ZsS.s:1381   .text.hostapd_config_free_bss:0000000000000228 .LVL152
C:\Users\stapi\AppData\Local\Temp\cchP1ZsS.s:1515   .text.hostapd_config_free_bss:00000000000002c6 .LVL170
C:\Users\stapi\AppData\Local\Temp\cchP1ZsS.s:1378   .text.hostapd_config_free_bss:0000000000000226 .LVL151
C:\Users\stapi\AppData\Local\Temp\cchP1ZsS.s:1373   .text.hostapd_config_free_bss:0000000000000222 .LVL150
C:\Users\stapi\AppData\Local\Temp\cchP1ZsS.s:1504   .text.hostapd_config_free_bss:00000000000002b2 .LVL167
C:\Users\stapi\AppData\Local\Temp\cchP1ZsS.s:1438   .text.hostapd_config_free_bss:0000000000000280 .LVL161
C:\Users\stapi\AppData\Local\Temp\cchP1ZsS.s:1430   .text.hostapd_config_free_bss:000000000000027a .LVL160
C:\Users\stapi\AppData\Local\Temp\cchP1ZsS.s:1527   .text.hostapd_config_free_bss:00000000000002cc .LVL171
C:\Users\stapi\AppData\Local\Temp\cchP1ZsS.s:1545   .text.hostapd_config_free_bss:00000000000002f4 .LVL176
C:\Users\stapi\AppData\Local\Temp\cchP1ZsS.s:2966   .text.hostapd_setup_sae_pt:0000000000000000 .LVL289
C:\Users\stapi\AppData\Local\Temp\cchP1ZsS.s:2975   .text.hostapd_setup_sae_pt:0000000000000008 .LVL290
C:\Users\stapi\AppData\Local\Temp\cchP1ZsS.s:3046   .text.hostapd_setup_sae_pt:0000000000000056 .LVL295
C:\Users\stapi\AppData\Local\Temp\cchP1ZsS.s:3086   .text.hostapd_setup_sae_pt:000000000000009a .LVL300
C:\Users\stapi\AppData\Local\Temp\cchP1ZsS.s:3824   .text.hostapd_sae_pk_in_use:0000000000000000 .LVL389
C:\Users\stapi\AppData\Local\Temp\cchP1ZsS.s:3828   .text.hostapd_sae_pk_in_use:0000000000000002 .LVL390
C:\Users\stapi\AppData\Local\Temp\cchP1ZsS.s:3941   .debug_info:0000000000000000 .Ldebug_info0
C:\Users\stapi\AppData\Local\Temp\cchP1ZsS.s:114    .text.hostapd_config_defaults_bss:0000000000000004 .LBE18
C:\Users\stapi\AppData\Local\Temp\cchP1ZsS.s:118    .text.hostapd_config_defaults_bss:0000000000000008 .LBB21
C:\Users\stapi\AppData\Local\Temp\cchP1ZsS.s:128    .text.hostapd_config_defaults_bss:000000000000000c .LBE21
C:\Users\stapi\AppData\Local\Temp\cchP1ZsS.s:386    .text.hostapd_config_defaults:0000000000000064 .LBE22
C:\Users\stapi\AppData\Local\Temp\cchP1ZsS.s:389    .text.hostapd_config_defaults:0000000000000066 .LBB25
C:\Users\stapi\AppData\Local\Temp\cchP1ZsS.s:395    .text.hostapd_config_defaults:0000000000000068 .LBE25
C:\Users\stapi\AppData\Local\Temp\cchP1ZsS.s:1419   .text.hostapd_config_free_bss:0000000000000278 .LBE50
C:\Users\stapi\AppData\Local\Temp\cchP1ZsS.s:1421   .text.hostapd_config_free_bss:0000000000000278 .LBB76
C:\Users\stapi\AppData\Local\Temp\cchP1ZsS.s:1446   .text.hostapd_config_free_bss:000000000000028a .LBE76
C:\Users\stapi\AppData\Local\Temp\cchP1ZsS.s:1458   .text.hostapd_config_free_bss:0000000000000292 .LBB77
C:\Users\stapi\AppData\Local\Temp\cchP1ZsS.s:1558   .text.hostapd_config_free_bss:00000000000002f8 .LBE77
C:\Users\stapi\AppData\Local\Temp\cchP1ZsS.s:1313   .text.hostapd_config_free_bss:00000000000001be .LBE52
C:\Users\stapi\AppData\Local\Temp\cchP1ZsS.s:1318   .text.hostapd_config_free_bss:00000000000001c4 .LBB56
C:\Users\stapi\AppData\Local\Temp\cchP1ZsS.s:1324   .text.hostapd_config_free_bss:00000000000001c8 .LBE56
C:\Users\stapi\AppData\Local\Temp\cchP1ZsS.s:1460   .text.hostapd_config_free_bss:0000000000000292 .LBB71
C:\Users\stapi\AppData\Local\Temp\cchP1ZsS.s:1476   .text.hostapd_config_free_bss:00000000000002a0 .LBE71
C:\Users\stapi\AppData\Local\Temp\cchP1ZsS.s:1331   .text.hostapd_config_free_bss:00000000000001cc .LBE57
C:\Users\stapi\AppData\Local\Temp\cchP1ZsS.s:1365   .text.hostapd_config_free_bss:000000000000021e .LBB67
C:\Users\stapi\AppData\Local\Temp\cchP1ZsS.s:1384   .text.hostapd_config_free_bss:0000000000000228 .LBE67
C:\Users\stapi\AppData\Local\Temp\cchP1ZsS.s:1477   .text.hostapd_config_free_bss:00000000000002a0 .LBB72
C:\Users\stapi\AppData\Local\Temp\cchP1ZsS.s:1518   .text.hostapd_config_free_bss:00000000000002c6 .LBE72
C:\Users\stapi\AppData\Local\Temp\cchP1ZsS.s:1488   .text.hostapd_config_free_bss:00000000000002a4 .LBE61
C:\Users\stapi\AppData\Local\Temp\cchP1ZsS.s:1491   .text.hostapd_config_free_bss:00000000000002a6 .LBB64
C:\Users\stapi\AppData\Local\Temp\cchP1ZsS.s:1506   .text.hostapd_config_free_bss:00000000000002b2 .LBE64
C:\Users\stapi\AppData\Local\Temp\cchP1ZsS.s:1440   .text.hostapd_config_free_bss:0000000000000280 .LBE68
C:\Users\stapi\AppData\Local\Temp\cchP1ZsS.s:1519   .text.hostapd_config_free_bss:00000000000002c6 .LBB73
C:\Users\stapi\AppData\Local\Temp\cchP1ZsS.s:1556   .text.hostapd_config_free_bss:00000000000002f8 .LBE73
C:\Users\stapi\AppData\Local\Temp\cchP1ZsS.s:2226   .text.hostapd_config_check:0000000000000034 .LBE85
C:\Users\stapi\AppData\Local\Temp\cchP1ZsS.s:2340   .text.hostapd_config_check:00000000000000b2 .LBB100
C:\Users\stapi\AppData\Local\Temp\cchP1ZsS.s:2346   .text.hostapd_config_check:00000000000000b2 .LBE100
C:\Users\stapi\AppData\Local\Temp\cchP1ZsS.s:2374   .text.hostapd_config_check:00000000000000ce .LBB102
C:\Users\stapi\AppData\Local\Temp\cchP1ZsS.s:2389   .text.hostapd_config_check:00000000000000de .LBE102
C:\Users\stapi\AppData\Local\Temp\cchP1ZsS.s:2400   .text.hostapd_config_check:00000000000000e8 .LBB103
C:\Users\stapi\AppData\Local\Temp\cchP1ZsS.s:2406   .text.hostapd_config_check:00000000000000ec .LBE103
C:\Users\stapi\AppData\Local\Temp\cchP1ZsS.s:2409   .text.hostapd_config_check:00000000000000ee .LBB104
C:\Users\stapi\AppData\Local\Temp\cchP1ZsS.s:2414   .text.hostapd_config_check:00000000000000f2 .LBE104
C:\Users\stapi\AppData\Local\Temp\cchP1ZsS.s:2418   .text.hostapd_config_check:00000000000000f8 .LBB105
C:\Users\stapi\AppData\Local\Temp\cchP1ZsS.s:2569   .text.hostapd_config_check:00000000000001fa .LBE105
C:\Users\stapi\AppData\Local\Temp\cchP1ZsS.s:2577   .text.hostapd_config_check:00000000000001fe .LBB106
C:\Users\stapi\AppData\Local\Temp\cchP1ZsS.s:2687   .text.hostapd_config_check:00000000000002c4 .LBE106
C:\Users\stapi\AppData\Local\Temp\cchP1ZsS.s:2342   .text.hostapd_config_check:00000000000000b2 .LBB87
C:\Users\stapi\AppData\Local\Temp\cchP1ZsS.s:2344   .text.hostapd_config_check:00000000000000b2 .LBE87
C:\Users\stapi\AppData\Local\Temp\cchP1ZsS.s:2579   .text.hostapd_config_check:00000000000001fe .LBB90
C:\Users\stapi\AppData\Local\Temp\cchP1ZsS.s:2632   .text.hostapd_config_check:000000000000025e .LBE90
C:\Users\stapi\AppData\Local\Temp\cchP1ZsS.s:2339   .text.hostapd_config_check:00000000000000b2 .LBE97
C:\Users\stapi\AppData\Local\Temp\cchP1ZsS.s:2352   .text.hostapd_config_check:00000000000000b6 .LBB101
C:\Users\stapi\AppData\Local\Temp\cchP1ZsS.s:2365   .text.hostapd_config_check:00000000000000c4 .LBE101
C:\Users\stapi\AppData\Local\Temp\cchP1ZsS.s:3295   .text.hostapd_setup_wpa_psk:000000000000007c .LBE123
C:\Users\stapi\AppData\Local\Temp\cchP1ZsS.s:3385   .text.hostapd_setup_wpa_psk:000000000000012c .LBB134
C:\Users\stapi\AppData\Local\Temp\cchP1ZsS.s:3610   .text.hostapd_setup_wpa_psk:0000000000000276 .LBE134
C:\Users\stapi\AppData\Local\Temp\cchP1ZsS.s:3634   .text.hostapd_setup_wpa_psk:0000000000000282 .LBB135
C:\Users\stapi\AppData\Local\Temp\cchP1ZsS.s:3812   .text.hostapd_setup_wpa_psk:00000000000003a8 .LBE135
C:\Users\stapi\AppData\Local\Temp\cchP1ZsS.s:3274   .text.hostapd_setup_wpa_psk:0000000000000062 .LBB125
C:\Users\stapi\AppData\Local\Temp\cchP1ZsS.s:3279   .text.hostapd_setup_wpa_psk:0000000000000066 .LBE125
C:\Users\stapi\AppData\Local\Temp\cchP1ZsS.s:3399   .text.hostapd_setup_wpa_psk:0000000000000142 .LBB126
C:\Users\stapi\AppData\Local\Temp\cchP1ZsS.s:3602   .text.hostapd_setup_wpa_psk:000000000000026c .LBE126
C:\Users\stapi\AppData\Local\Temp\cchP1ZsS.s:3636   .text.hostapd_setup_wpa_psk:0000000000000282 .LBB127
C:\Users\stapi\AppData\Local\Temp\cchP1ZsS.s:3810   .text.hostapd_setup_wpa_psk:00000000000003a8 .LBE127
C:\Users\stapi\AppData\Local\Temp\cchP1ZsS.s:3324   .text.hostapd_setup_wpa_psk:00000000000000b2 .LBE130
C:\Users\stapi\AppData\Local\Temp\cchP1ZsS.s:3330   .text.hostapd_setup_wpa_psk:00000000000000b6 .LBB133
C:\Users\stapi\AppData\Local\Temp\cchP1ZsS.s:3384   .text.hostapd_setup_wpa_psk:000000000000012c .LBE133

UNDEFINED SYMBOLS
__riscv_save_4
os_free
__riscv_restore_4
__riscv_save_3
os_zalloc
wpa_printf
__riscv_restore_3
memcpy
os_random
os_memcmp
atoi
os_strchr
wpabuf_alloc
wpabuf_put
os_strlen
wpabuf_alloc_copy
hexstr2bin
wpabuf_free
__riscv_save_2
__riscv_restore_2
__riscv_save_1
bin_clear_free
__riscv_restore_1
str_clear_free
sae_deinit_pt
__riscv_save_8
__riscv_restore_8
__riscv_save_7
__riscv_restore_7
__riscv_save_12
__riscv_restore_12
is_6ghz_op_class
wpa_select_ap_group_cipher
sae_derive_pt
fopen
fgets
wpa_hexdump_ascii
wpa_hexdump_ascii_key
pbkdf2_sha1
wpa_hexdump_key
str_token
hwaddr_aton
os_strcmp
fclose
os_memcpy
os_strlcpy
