   1              		.file	"ap_list.c"
   2              		.option nopic
   3              		.attribute arch, "rv32i2p0_m2p0_a2p0_f2p0_c2p0_b_p0p94"
   4              		.attribute unaligned_access, 0
   5              		.attribute stack_align, 16
   6              		.text
   7              	.Ltext0:
   8              		.cfi_sections	.debug_frame
   9              		.section	.text.ap_list_beacon_olbc,"ax",@progbits
  10              		.align	1
  12              	ap_list_beacon_olbc:
  13              	.LFB139:
  14              		.file 1 "C:/Users/stapi/OneDrive/Desktop/GD32VW553/V1_MQTT_OK/GD32VW55X_Wifi_BLE_SDK/GD32VW55x_REL
   1:C:/Users/stapi/OneDrive/Desktop/GD32VW553/V1_MQTT_OK/GD32VW55X_Wifi_BLE_SDK/GD32VW55x_RELEASE_V1.0.2/MSDK/wpa_supplicant/src/ap\ap_list.c **** /*
   2:C:/Users/stapi/OneDrive/Desktop/GD32VW553/V1_MQTT_OK/GD32VW55X_Wifi_BLE_SDK/GD32VW55x_RELEASE_V1.0.2/MSDK/wpa_supplicant/src/ap\ap_list.c ****  * hostapd / AP table
   3:C:/Users/stapi/OneDrive/Desktop/GD32VW553/V1_MQTT_OK/GD32VW55X_Wifi_BLE_SDK/GD32VW55x_RELEASE_V1.0.2/MSDK/wpa_supplicant/src/ap\ap_list.c ****  * Copyright (c) 2002-2009, Jouni Malinen <j@w1.fi>
   4:C:/Users/stapi/OneDrive/Desktop/GD32VW553/V1_MQTT_OK/GD32VW55X_Wifi_BLE_SDK/GD32VW55x_RELEASE_V1.0.2/MSDK/wpa_supplicant/src/ap\ap_list.c ****  * Copyright (c) 2003-2004, Instant802 Networks, Inc.
   5:C:/Users/stapi/OneDrive/Desktop/GD32VW553/V1_MQTT_OK/GD32VW55X_Wifi_BLE_SDK/GD32VW55x_RELEASE_V1.0.2/MSDK/wpa_supplicant/src/ap\ap_list.c ****  * Copyright (c) 2006, Devicescape Software, Inc.
   6:C:/Users/stapi/OneDrive/Desktop/GD32VW553/V1_MQTT_OK/GD32VW55X_Wifi_BLE_SDK/GD32VW55x_RELEASE_V1.0.2/MSDK/wpa_supplicant/src/ap\ap_list.c ****  *
   7:C:/Users/stapi/OneDrive/Desktop/GD32VW553/V1_MQTT_OK/GD32VW55X_Wifi_BLE_SDK/GD32VW55x_RELEASE_V1.0.2/MSDK/wpa_supplicant/src/ap\ap_list.c ****  * This software may be distributed under the terms of the BSD license.
   8:C:/Users/stapi/OneDrive/Desktop/GD32VW553/V1_MQTT_OK/GD32VW55X_Wifi_BLE_SDK/GD32VW55x_RELEASE_V1.0.2/MSDK/wpa_supplicant/src/ap\ap_list.c ****  * See README for more details.
   9:C:/Users/stapi/OneDrive/Desktop/GD32VW553/V1_MQTT_OK/GD32VW55X_Wifi_BLE_SDK/GD32VW55x_RELEASE_V1.0.2/MSDK/wpa_supplicant/src/ap\ap_list.c ****  */
  10:C:/Users/stapi/OneDrive/Desktop/GD32VW553/V1_MQTT_OK/GD32VW55X_Wifi_BLE_SDK/GD32VW55x_RELEASE_V1.0.2/MSDK/wpa_supplicant/src/ap\ap_list.c **** 
  11:C:/Users/stapi/OneDrive/Desktop/GD32VW553/V1_MQTT_OK/GD32VW55X_Wifi_BLE_SDK/GD32VW55x_RELEASE_V1.0.2/MSDK/wpa_supplicant/src/ap\ap_list.c **** #include "utils/includes.h"
  12:C:/Users/stapi/OneDrive/Desktop/GD32VW553/V1_MQTT_OK/GD32VW55X_Wifi_BLE_SDK/GD32VW55x_RELEASE_V1.0.2/MSDK/wpa_supplicant/src/ap\ap_list.c **** 
  13:C:/Users/stapi/OneDrive/Desktop/GD32VW553/V1_MQTT_OK/GD32VW55X_Wifi_BLE_SDK/GD32VW55x_RELEASE_V1.0.2/MSDK/wpa_supplicant/src/ap\ap_list.c **** #ifdef CONFIG_AP
  14:C:/Users/stapi/OneDrive/Desktop/GD32VW553/V1_MQTT_OK/GD32VW55X_Wifi_BLE_SDK/GD32VW55x_RELEASE_V1.0.2/MSDK/wpa_supplicant/src/ap\ap_list.c **** #include "utils/common.h"
  15:C:/Users/stapi/OneDrive/Desktop/GD32VW553/V1_MQTT_OK/GD32VW55X_Wifi_BLE_SDK/GD32VW55x_RELEASE_V1.0.2/MSDK/wpa_supplicant/src/ap\ap_list.c **** #include "utils/eloop.h"
  16:C:/Users/stapi/OneDrive/Desktop/GD32VW553/V1_MQTT_OK/GD32VW55X_Wifi_BLE_SDK/GD32VW55x_RELEASE_V1.0.2/MSDK/wpa_supplicant/src/ap\ap_list.c **** #include "common/ieee802_11_defs.h"
  17:C:/Users/stapi/OneDrive/Desktop/GD32VW553/V1_MQTT_OK/GD32VW55X_Wifi_BLE_SDK/GD32VW55x_RELEASE_V1.0.2/MSDK/wpa_supplicant/src/ap\ap_list.c **** #include "common/ieee802_11_common.h"
  18:C:/Users/stapi/OneDrive/Desktop/GD32VW553/V1_MQTT_OK/GD32VW55X_Wifi_BLE_SDK/GD32VW55x_RELEASE_V1.0.2/MSDK/wpa_supplicant/src/ap\ap_list.c **** #include "hostapd.h"
  19:C:/Users/stapi/OneDrive/Desktop/GD32VW553/V1_MQTT_OK/GD32VW55X_Wifi_BLE_SDK/GD32VW55x_RELEASE_V1.0.2/MSDK/wpa_supplicant/src/ap\ap_list.c **** #include "ap_config.h"
  20:C:/Users/stapi/OneDrive/Desktop/GD32VW553/V1_MQTT_OK/GD32VW55X_Wifi_BLE_SDK/GD32VW55x_RELEASE_V1.0.2/MSDK/wpa_supplicant/src/ap\ap_list.c **** #include "ieee802_11.h"
  21:C:/Users/stapi/OneDrive/Desktop/GD32VW553/V1_MQTT_OK/GD32VW55X_Wifi_BLE_SDK/GD32VW55x_RELEASE_V1.0.2/MSDK/wpa_supplicant/src/ap\ap_list.c **** #include "sta_info.h"
  22:C:/Users/stapi/OneDrive/Desktop/GD32VW553/V1_MQTT_OK/GD32VW55X_Wifi_BLE_SDK/GD32VW55x_RELEASE_V1.0.2/MSDK/wpa_supplicant/src/ap\ap_list.c **** #include "beacon.h"
  23:C:/Users/stapi/OneDrive/Desktop/GD32VW553/V1_MQTT_OK/GD32VW55X_Wifi_BLE_SDK/GD32VW55x_RELEASE_V1.0.2/MSDK/wpa_supplicant/src/ap\ap_list.c **** #include "ap_list.h"
  24:C:/Users/stapi/OneDrive/Desktop/GD32VW553/V1_MQTT_OK/GD32VW55X_Wifi_BLE_SDK/GD32VW55x_RELEASE_V1.0.2/MSDK/wpa_supplicant/src/ap\ap_list.c **** 
  25:C:/Users/stapi/OneDrive/Desktop/GD32VW553/V1_MQTT_OK/GD32VW55X_Wifi_BLE_SDK/GD32VW55x_RELEASE_V1.0.2/MSDK/wpa_supplicant/src/ap\ap_list.c **** 
  26:C:/Users/stapi/OneDrive/Desktop/GD32VW553/V1_MQTT_OK/GD32VW55X_Wifi_BLE_SDK/GD32VW55x_RELEASE_V1.0.2/MSDK/wpa_supplicant/src/ap\ap_list.c **** /* AP list is a double linked list with head->prev pointing to the end of the
  27:C:/Users/stapi/OneDrive/Desktop/GD32VW553/V1_MQTT_OK/GD32VW55X_Wifi_BLE_SDK/GD32VW55x_RELEASE_V1.0.2/MSDK/wpa_supplicant/src/ap\ap_list.c ****  * list and tail->next = NULL. Entries are moved to the head of the list
  28:C:/Users/stapi/OneDrive/Desktop/GD32VW553/V1_MQTT_OK/GD32VW55X_Wifi_BLE_SDK/GD32VW55x_RELEASE_V1.0.2/MSDK/wpa_supplicant/src/ap\ap_list.c ****  * whenever a beacon has been received from the AP in question. The tail entry
  29:C:/Users/stapi/OneDrive/Desktop/GD32VW553/V1_MQTT_OK/GD32VW55X_Wifi_BLE_SDK/GD32VW55x_RELEASE_V1.0.2/MSDK/wpa_supplicant/src/ap\ap_list.c ****  * in this link will thus be the least recently used entry. */
  30:C:/Users/stapi/OneDrive/Desktop/GD32VW553/V1_MQTT_OK/GD32VW55X_Wifi_BLE_SDK/GD32VW55x_RELEASE_V1.0.2/MSDK/wpa_supplicant/src/ap\ap_list.c **** 
  31:C:/Users/stapi/OneDrive/Desktop/GD32VW553/V1_MQTT_OK/GD32VW55X_Wifi_BLE_SDK/GD32VW55x_RELEASE_V1.0.2/MSDK/wpa_supplicant/src/ap\ap_list.c **** 
  32:C:/Users/stapi/OneDrive/Desktop/GD32VW553/V1_MQTT_OK/GD32VW55X_Wifi_BLE_SDK/GD32VW55x_RELEASE_V1.0.2/MSDK/wpa_supplicant/src/ap\ap_list.c **** static int ap_list_beacon_olbc(struct hostapd_iface *iface, struct ap_info *ap)
  33:C:/Users/stapi/OneDrive/Desktop/GD32VW553/V1_MQTT_OK/GD32VW55X_Wifi_BLE_SDK/GD32VW55x_RELEASE_V1.0.2/MSDK/wpa_supplicant/src/ap\ap_list.c **** {
  15              		.loc 1 33 1
  16              		.cfi_startproc
  17              	.LVL0:
  34:C:/Users/stapi/OneDrive/Desktop/GD32VW553/V1_MQTT_OK/GD32VW55X_Wifi_BLE_SDK/GD32VW55x_RELEASE_V1.0.2/MSDK/wpa_supplicant/src/ap\ap_list.c **** 	int i;
  35:C:/Users/stapi/OneDrive/Desktop/GD32VW553/V1_MQTT_OK/GD32VW55X_Wifi_BLE_SDK/GD32VW55x_RELEASE_V1.0.2/MSDK/wpa_supplicant/src/ap\ap_list.c **** 
  36:C:/Users/stapi/OneDrive/Desktop/GD32VW553/V1_MQTT_OK/GD32VW55X_Wifi_BLE_SDK/GD32VW55x_RELEASE_V1.0.2/MSDK/wpa_supplicant/src/ap\ap_list.c **** 	if (iface->current_mode == NULL ||
  18              		.loc 1 36 11 is_stmt 0
  19 0000 03274546 		lw	a4,1124(a0)
  33:C:/Users/stapi/OneDrive/Desktop/GD32VW553/V1_MQTT_OK/GD32VW55X_Wifi_BLE_SDK/GD32VW55x_RELEASE_V1.0.2/MSDK/wpa_supplicant/src/ap\ap_list.c **** 	int i;
  20              		.loc 1 33 1
  21 0004 AA87     		mv	a5,a0
  34:C:/Users/stapi/OneDrive/Desktop/GD32VW553/V1_MQTT_OK/GD32VW55X_Wifi_BLE_SDK/GD32VW55x_RELEASE_V1.0.2/MSDK/wpa_supplicant/src/ap\ap_list.c **** 	int i;
  22              		.loc 1 34 2 is_stmt 1
  23              		.loc 1 36 2
  24              		.loc 1 36 5 is_stmt 0
  25 0006 39CF     		beq	a4,zero,.L11
  26              		.loc 1 36 34 discriminator 1
  27 0008 1443     		lw	a3,0(a4)
  28 000a 0547     		li	a4,1
  37:C:/Users/stapi/OneDrive/Desktop/GD32VW553/V1_MQTT_OK/GD32VW55X_Wifi_BLE_SDK/GD32VW55x_RELEASE_V1.0.2/MSDK/wpa_supplicant/src/ap\ap_list.c **** 	    iface->current_mode->mode != HOSTAPD_MODE_IEEE80211G ||
  38:C:/Users/stapi/OneDrive/Desktop/GD32VW553/V1_MQTT_OK/GD32VW55X_Wifi_BLE_SDK/GD32VW55x_RELEASE_V1.0.2/MSDK/wpa_supplicant/src/ap\ap_list.c **** 	    iface->conf->channel != ap->channel)
  39:C:/Users/stapi/OneDrive/Desktop/GD32VW553/V1_MQTT_OK/GD32VW55X_Wifi_BLE_SDK/GD32VW55x_RELEASE_V1.0.2/MSDK/wpa_supplicant/src/ap\ap_list.c **** 		return 0;
  29              		.loc 1 39 10 discriminator 1
  30 000c 0145     		li	a0,0
  31              	.LVL1:
  36:C:/Users/stapi/OneDrive/Desktop/GD32VW553/V1_MQTT_OK/GD32VW55X_Wifi_BLE_SDK/GD32VW55x_RELEASE_V1.0.2/MSDK/wpa_supplicant/src/ap\ap_list.c **** 	    iface->current_mode->mode != HOSTAPD_MODE_IEEE80211G ||
  32              		.loc 1 36 34 discriminator 1
  33 000e 639CE604 		bne	a3,a4,.L1
  38:C:/Users/stapi/OneDrive/Desktop/GD32VW553/V1_MQTT_OK/GD32VW55X_Wifi_BLE_SDK/GD32VW55x_RELEASE_V1.0.2/MSDK/wpa_supplicant/src/ap\ap_list.c **** 		return 0;
  34              		.loc 1 38 17
  35 0012 DC47     		lw	a5,12(a5)
  36              	.LVL2:
  37 0014 03C79701 		lbu	a4,25(a5)
  37:C:/Users/stapi/OneDrive/Desktop/GD32VW553/V1_MQTT_OK/GD32VW55X_Wifi_BLE_SDK/GD32VW55x_RELEASE_V1.0.2/MSDK/wpa_supplicant/src/ap\ap_list.c **** 	    iface->current_mode->mode != HOSTAPD_MODE_IEEE80211G ||
  38              		.loc 1 37 59
  39 0018 9C5D     		lw	a5,56(a1)
  40 001a 6316F704 		bne	a4,a5,.L1
  40:C:/Users/stapi/OneDrive/Desktop/GD32VW553/V1_MQTT_OK/GD32VW55X_Wifi_BLE_SDK/GD32VW55x_RELEASE_V1.0.2/MSDK/wpa_supplicant/src/ap\ap_list.c **** 
  41:C:/Users/stapi/OneDrive/Desktop/GD32VW553/V1_MQTT_OK/GD32VW55X_Wifi_BLE_SDK/GD32VW55x_RELEASE_V1.0.2/MSDK/wpa_supplicant/src/ap\ap_list.c **** 	if (ap->erp != -1 && (ap->erp & ERP_INFO_NON_ERP_PRESENT))
  41              		.loc 1 41 2 is_stmt 1
  42              		.loc 1 41 8 is_stmt 0
  43 001e DC59     		lw	a5,52(a1)
  44              		.loc 1 41 5
  45 0020 7D57     		li	a4,-1
  46 0022 6385E700 		beq	a5,a4,.L3
  47              		.loc 1 41 32 discriminator 1
  48 0026 858B     		andi	a5,a5,1
  42:C:/Users/stapi/OneDrive/Desktop/GD32VW553/V1_MQTT_OK/GD32VW55X_Wifi_BLE_SDK/GD32VW55x_RELEASE_V1.0.2/MSDK/wpa_supplicant/src/ap\ap_list.c **** 		return 1;
  49              		.loc 1 42 10 discriminator 1
  50 0028 0545     		li	a0,1
  41:C:/Users/stapi/OneDrive/Desktop/GD32VW553/V1_MQTT_OK/GD32VW55X_Wifi_BLE_SDK/GD32VW55x_RELEASE_V1.0.2/MSDK/wpa_supplicant/src/ap\ap_list.c **** 		return 1;
  51              		.loc 1 41 20 discriminator 1
  52 002a 95EF     		bne	a5,zero,.L1
  53              	.L3:
  54 002c 13872501 		addi	a4,a1,18
  55              	.LBB6:
  56              	.LBB7:
  57              	.LBB8:
  43:C:/Users/stapi/OneDrive/Desktop/GD32VW553/V1_MQTT_OK/GD32VW55X_Wifi_BLE_SDK/GD32VW55x_RELEASE_V1.0.2/MSDK/wpa_supplicant/src/ap\ap_list.c **** 
  44:C:/Users/stapi/OneDrive/Desktop/GD32VW553/V1_MQTT_OK/GD32VW55X_Wifi_BLE_SDK/GD32VW55x_RELEASE_V1.0.2/MSDK/wpa_supplicant/src/ap\ap_list.c **** 	for (i = 0; i < WLAN_SUPP_RATES_MAX; i++) {
  45:C:/Users/stapi/OneDrive/Desktop/GD32VW553/V1_MQTT_OK/GD32VW55X_Wifi_BLE_SDK/GD32VW55x_RELEASE_V1.0.2/MSDK/wpa_supplicant/src/ap\ap_list.c **** 		int rate = (ap->supported_rates[i] & 0x7f) * 5;
  58              		.loc 1 45 7
  59 0030 9546     		li	a3,5
  60 0032 93852503 		addi	a1,a1,50
  61              	.LVL3:
  46:C:/Users/stapi/OneDrive/Desktop/GD32VW553/V1_MQTT_OK/GD32VW55X_Wifi_BLE_SDK/GD32VW55x_RELEASE_V1.0.2/MSDK/wpa_supplicant/src/ap\ap_list.c **** 		if (rate == 60 || rate == 90 || rate > 110)
  62              		.loc 1 46 6
  63 0036 1306C003 		li	a2,60
  64              		.loc 1 46 18
  65 003a 1305A005 		li	a0,90
  66              		.loc 1 46 32
  67 003e 1308E006 		li	a6,110
  68              	.L4:
  69              	.LVL4:
  45:C:/Users/stapi/OneDrive/Desktop/GD32VW553/V1_MQTT_OK/GD32VW55X_Wifi_BLE_SDK/GD32VW55x_RELEASE_V1.0.2/MSDK/wpa_supplicant/src/ap\ap_list.c **** 		if (rate == 60 || rate == 90 || rate > 110)
  70              		.loc 1 45 3 is_stmt 1
  45:C:/Users/stapi/OneDrive/Desktop/GD32VW553/V1_MQTT_OK/GD32VW55X_Wifi_BLE_SDK/GD32VW55x_RELEASE_V1.0.2/MSDK/wpa_supplicant/src/ap\ap_list.c **** 		if (rate == 60 || rate == 90 || rate > 110)
  71              		.loc 1 45 38 is_stmt 0
  72 0042 83470700 		lbu	a5,0(a4)
  73 0046 93F7F707 		andi	a5,a5,127
  45:C:/Users/stapi/OneDrive/Desktop/GD32VW553/V1_MQTT_OK/GD32VW55X_Wifi_BLE_SDK/GD32VW55x_RELEASE_V1.0.2/MSDK/wpa_supplicant/src/ap\ap_list.c **** 		if (rate == 60 || rate == 90 || rate > 110)
  74              		.loc 1 45 7
  75 004a B387D702 		mul	a5,a5,a3
  76              	.LVL5:
  77              		.loc 1 46 3 is_stmt 1
  78              		.loc 1 46 6 is_stmt 0
  79 004e 638BC700 		beq	a5,a2,.L11
  80              		.loc 1 46 18
  81 0052 6389A700 		beq	a5,a0,.L11
  82              		.loc 1 46 32
  83 0056 6347F800 		bgt	a5,a6,.L11
  84              	.LBE8:
  44:C:/Users/stapi/OneDrive/Desktop/GD32VW553/V1_MQTT_OK/GD32VW55X_Wifi_BLE_SDK/GD32VW55x_RELEASE_V1.0.2/MSDK/wpa_supplicant/src/ap\ap_list.c **** 		int rate = (ap->supported_rates[i] & 0x7f) * 5;
  85              		.loc 1 44 39 is_stmt 1
  86              	.LVL6:
  44:C:/Users/stapi/OneDrive/Desktop/GD32VW553/V1_MQTT_OK/GD32VW55X_Wifi_BLE_SDK/GD32VW55x_RELEASE_V1.0.2/MSDK/wpa_supplicant/src/ap\ap_list.c **** 		int rate = (ap->supported_rates[i] & 0x7f) * 5;
  87              		.loc 1 44 14
  44:C:/Users/stapi/OneDrive/Desktop/GD32VW553/V1_MQTT_OK/GD32VW55X_Wifi_BLE_SDK/GD32VW55x_RELEASE_V1.0.2/MSDK/wpa_supplicant/src/ap\ap_list.c **** 		int rate = (ap->supported_rates[i] & 0x7f) * 5;
  88              		.loc 1 44 2 is_stmt 0
  89 005a 0507     		addi	a4,a4,1
  90              	.LVL7:
  91 005c E393E5FE 		bne	a1,a4,.L4
  92              	.LBE7:
  93              	.LBE6:
  42:C:/Users/stapi/OneDrive/Desktop/GD32VW553/V1_MQTT_OK/GD32VW55X_Wifi_BLE_SDK/GD32VW55x_RELEASE_V1.0.2/MSDK/wpa_supplicant/src/ap\ap_list.c **** 
  94              		.loc 1 42 10
  95 0060 0545     		li	a0,1
  96              	.LBB10:
  97              	.LBB9:
  98 0062 8280     		ret
  99              	.LVL8:
 100              	.L11:
 101              	.LBE9:
 102              	.LBE10:
  39:C:/Users/stapi/OneDrive/Desktop/GD32VW553/V1_MQTT_OK/GD32VW55X_Wifi_BLE_SDK/GD32VW55x_RELEASE_V1.0.2/MSDK/wpa_supplicant/src/ap\ap_list.c **** 
 103              		.loc 1 39 10
 104 0064 0145     		li	a0,0
 105              	.L1:
  47:C:/Users/stapi/OneDrive/Desktop/GD32VW553/V1_MQTT_OK/GD32VW55X_Wifi_BLE_SDK/GD32VW55x_RELEASE_V1.0.2/MSDK/wpa_supplicant/src/ap\ap_list.c **** 			return 0;
  48:C:/Users/stapi/OneDrive/Desktop/GD32VW553/V1_MQTT_OK/GD32VW55X_Wifi_BLE_SDK/GD32VW55x_RELEASE_V1.0.2/MSDK/wpa_supplicant/src/ap\ap_list.c **** 	}
  49:C:/Users/stapi/OneDrive/Desktop/GD32VW553/V1_MQTT_OK/GD32VW55X_Wifi_BLE_SDK/GD32VW55x_RELEASE_V1.0.2/MSDK/wpa_supplicant/src/ap\ap_list.c **** 
  50:C:/Users/stapi/OneDrive/Desktop/GD32VW553/V1_MQTT_OK/GD32VW55X_Wifi_BLE_SDK/GD32VW55x_RELEASE_V1.0.2/MSDK/wpa_supplicant/src/ap\ap_list.c **** 	return 1;
  51:C:/Users/stapi/OneDrive/Desktop/GD32VW553/V1_MQTT_OK/GD32VW55X_Wifi_BLE_SDK/GD32VW55x_RELEASE_V1.0.2/MSDK/wpa_supplicant/src/ap\ap_list.c **** }
 106              		.loc 1 51 1
 107 0066 8280     		ret
 108              		.cfi_endproc
 109              	.LFE139:
 111              		.section	.text.ap_ap_list_del,"ax",@progbits
 112              		.align	1
 114              	ap_ap_list_del:
 115              	.LFB142:
  52:C:/Users/stapi/OneDrive/Desktop/GD32VW553/V1_MQTT_OK/GD32VW55X_Wifi_BLE_SDK/GD32VW55x_RELEASE_V1.0.2/MSDK/wpa_supplicant/src/ap\ap_list.c **** 
  53:C:/Users/stapi/OneDrive/Desktop/GD32VW553/V1_MQTT_OK/GD32VW55X_Wifi_BLE_SDK/GD32VW55x_RELEASE_V1.0.2/MSDK/wpa_supplicant/src/ap\ap_list.c **** 
  54:C:/Users/stapi/OneDrive/Desktop/GD32VW553/V1_MQTT_OK/GD32VW55X_Wifi_BLE_SDK/GD32VW55x_RELEASE_V1.0.2/MSDK/wpa_supplicant/src/ap\ap_list.c **** static struct ap_info * ap_get_ap(struct hostapd_iface *iface, const u8 *ap)
  55:C:/Users/stapi/OneDrive/Desktop/GD32VW553/V1_MQTT_OK/GD32VW55X_Wifi_BLE_SDK/GD32VW55x_RELEASE_V1.0.2/MSDK/wpa_supplicant/src/ap\ap_list.c **** {
  56:C:/Users/stapi/OneDrive/Desktop/GD32VW553/V1_MQTT_OK/GD32VW55X_Wifi_BLE_SDK/GD32VW55x_RELEASE_V1.0.2/MSDK/wpa_supplicant/src/ap\ap_list.c **** 	struct ap_info *s;
  57:C:/Users/stapi/OneDrive/Desktop/GD32VW553/V1_MQTT_OK/GD32VW55X_Wifi_BLE_SDK/GD32VW55x_RELEASE_V1.0.2/MSDK/wpa_supplicant/src/ap\ap_list.c **** 
  58:C:/Users/stapi/OneDrive/Desktop/GD32VW553/V1_MQTT_OK/GD32VW55X_Wifi_BLE_SDK/GD32VW55x_RELEASE_V1.0.2/MSDK/wpa_supplicant/src/ap\ap_list.c **** 	s = iface->ap_hash[STA_HASH(ap)];
  59:C:/Users/stapi/OneDrive/Desktop/GD32VW553/V1_MQTT_OK/GD32VW55X_Wifi_BLE_SDK/GD32VW55x_RELEASE_V1.0.2/MSDK/wpa_supplicant/src/ap\ap_list.c **** 	while (s != NULL && os_memcmp(s->addr, ap, ETH_ALEN) != 0)
  60:C:/Users/stapi/OneDrive/Desktop/GD32VW553/V1_MQTT_OK/GD32VW55X_Wifi_BLE_SDK/GD32VW55x_RELEASE_V1.0.2/MSDK/wpa_supplicant/src/ap\ap_list.c **** 		s = s->hnext;
  61:C:/Users/stapi/OneDrive/Desktop/GD32VW553/V1_MQTT_OK/GD32VW55X_Wifi_BLE_SDK/GD32VW55x_RELEASE_V1.0.2/MSDK/wpa_supplicant/src/ap\ap_list.c **** 	return s;
  62:C:/Users/stapi/OneDrive/Desktop/GD32VW553/V1_MQTT_OK/GD32VW55X_Wifi_BLE_SDK/GD32VW55x_RELEASE_V1.0.2/MSDK/wpa_supplicant/src/ap\ap_list.c **** }
  63:C:/Users/stapi/OneDrive/Desktop/GD32VW553/V1_MQTT_OK/GD32VW55X_Wifi_BLE_SDK/GD32VW55x_RELEASE_V1.0.2/MSDK/wpa_supplicant/src/ap\ap_list.c **** 
  64:C:/Users/stapi/OneDrive/Desktop/GD32VW553/V1_MQTT_OK/GD32VW55X_Wifi_BLE_SDK/GD32VW55x_RELEASE_V1.0.2/MSDK/wpa_supplicant/src/ap\ap_list.c **** 
  65:C:/Users/stapi/OneDrive/Desktop/GD32VW553/V1_MQTT_OK/GD32VW55X_Wifi_BLE_SDK/GD32VW55x_RELEASE_V1.0.2/MSDK/wpa_supplicant/src/ap\ap_list.c **** static void ap_ap_list_add(struct hostapd_iface *iface, struct ap_info *ap)
  66:C:/Users/stapi/OneDrive/Desktop/GD32VW553/V1_MQTT_OK/GD32VW55X_Wifi_BLE_SDK/GD32VW55x_RELEASE_V1.0.2/MSDK/wpa_supplicant/src/ap\ap_list.c **** {
  67:C:/Users/stapi/OneDrive/Desktop/GD32VW553/V1_MQTT_OK/GD32VW55X_Wifi_BLE_SDK/GD32VW55x_RELEASE_V1.0.2/MSDK/wpa_supplicant/src/ap\ap_list.c **** 	if (iface->ap_list) {
  68:C:/Users/stapi/OneDrive/Desktop/GD32VW553/V1_MQTT_OK/GD32VW55X_Wifi_BLE_SDK/GD32VW55x_RELEASE_V1.0.2/MSDK/wpa_supplicant/src/ap\ap_list.c **** 		ap->prev = iface->ap_list->prev;
  69:C:/Users/stapi/OneDrive/Desktop/GD32VW553/V1_MQTT_OK/GD32VW55X_Wifi_BLE_SDK/GD32VW55x_RELEASE_V1.0.2/MSDK/wpa_supplicant/src/ap\ap_list.c **** 		iface->ap_list->prev = ap;
  70:C:/Users/stapi/OneDrive/Desktop/GD32VW553/V1_MQTT_OK/GD32VW55X_Wifi_BLE_SDK/GD32VW55x_RELEASE_V1.0.2/MSDK/wpa_supplicant/src/ap\ap_list.c **** 	} else
  71:C:/Users/stapi/OneDrive/Desktop/GD32VW553/V1_MQTT_OK/GD32VW55X_Wifi_BLE_SDK/GD32VW55x_RELEASE_V1.0.2/MSDK/wpa_supplicant/src/ap\ap_list.c **** 		ap->prev = ap;
  72:C:/Users/stapi/OneDrive/Desktop/GD32VW553/V1_MQTT_OK/GD32VW55X_Wifi_BLE_SDK/GD32VW55x_RELEASE_V1.0.2/MSDK/wpa_supplicant/src/ap\ap_list.c **** 	ap->next = iface->ap_list;
  73:C:/Users/stapi/OneDrive/Desktop/GD32VW553/V1_MQTT_OK/GD32VW55X_Wifi_BLE_SDK/GD32VW55x_RELEASE_V1.0.2/MSDK/wpa_supplicant/src/ap\ap_list.c **** 	iface->ap_list = ap;
  74:C:/Users/stapi/OneDrive/Desktop/GD32VW553/V1_MQTT_OK/GD32VW55X_Wifi_BLE_SDK/GD32VW55x_RELEASE_V1.0.2/MSDK/wpa_supplicant/src/ap\ap_list.c **** }
  75:C:/Users/stapi/OneDrive/Desktop/GD32VW553/V1_MQTT_OK/GD32VW55X_Wifi_BLE_SDK/GD32VW55x_RELEASE_V1.0.2/MSDK/wpa_supplicant/src/ap\ap_list.c **** 
  76:C:/Users/stapi/OneDrive/Desktop/GD32VW553/V1_MQTT_OK/GD32VW55X_Wifi_BLE_SDK/GD32VW55x_RELEASE_V1.0.2/MSDK/wpa_supplicant/src/ap\ap_list.c **** 
  77:C:/Users/stapi/OneDrive/Desktop/GD32VW553/V1_MQTT_OK/GD32VW55X_Wifi_BLE_SDK/GD32VW55x_RELEASE_V1.0.2/MSDK/wpa_supplicant/src/ap\ap_list.c **** static void ap_ap_list_del(struct hostapd_iface *iface, struct ap_info *ap)
  78:C:/Users/stapi/OneDrive/Desktop/GD32VW553/V1_MQTT_OK/GD32VW55X_Wifi_BLE_SDK/GD32VW55x_RELEASE_V1.0.2/MSDK/wpa_supplicant/src/ap\ap_list.c **** {
 116              		.loc 1 78 1 is_stmt 1
 117              		.cfi_startproc
 118              	.LVL9:
  79:C:/Users/stapi/OneDrive/Desktop/GD32VW553/V1_MQTT_OK/GD32VW55X_Wifi_BLE_SDK/GD32VW55x_RELEASE_V1.0.2/MSDK/wpa_supplicant/src/ap\ap_list.c **** 	if (iface->ap_list == ap)
 119              		.loc 1 79 2
 120              		.loc 1 79 5 is_stmt 0
 121 0000 5859     		lw	a4,52(a0)
  80:C:/Users/stapi/OneDrive/Desktop/GD32VW553/V1_MQTT_OK/GD32VW55X_Wifi_BLE_SDK/GD32VW55x_RELEASE_V1.0.2/MSDK/wpa_supplicant/src/ap\ap_list.c **** 		iface->ap_list = ap->next;
 122              		.loc 1 80 22
 123 0002 9C41     		lw	a5,0(a1)
  79:C:/Users/stapi/OneDrive/Desktop/GD32VW553/V1_MQTT_OK/GD32VW55X_Wifi_BLE_SDK/GD32VW55x_RELEASE_V1.0.2/MSDK/wpa_supplicant/src/ap\ap_list.c **** 	if (iface->ap_list == ap)
 124              		.loc 1 79 5
 125 0004 6318B700 		bne	a4,a1,.L14
 126              		.loc 1 80 3 is_stmt 1
 127              		.loc 1 80 18 is_stmt 0
 128 0008 5CD9     		sw	a5,52(a0)
 129              	.L15:
  81:C:/Users/stapi/OneDrive/Desktop/GD32VW553/V1_MQTT_OK/GD32VW55X_Wifi_BLE_SDK/GD32VW55x_RELEASE_V1.0.2/MSDK/wpa_supplicant/src/ap\ap_list.c **** 	else
  82:C:/Users/stapi/OneDrive/Desktop/GD32VW553/V1_MQTT_OK/GD32VW55X_Wifi_BLE_SDK/GD32VW55x_RELEASE_V1.0.2/MSDK/wpa_supplicant/src/ap\ap_list.c **** 		ap->prev->next = ap->next;
  83:C:/Users/stapi/OneDrive/Desktop/GD32VW553/V1_MQTT_OK/GD32VW55X_Wifi_BLE_SDK/GD32VW55x_RELEASE_V1.0.2/MSDK/wpa_supplicant/src/ap\ap_list.c **** 
  84:C:/Users/stapi/OneDrive/Desktop/GD32VW553/V1_MQTT_OK/GD32VW55X_Wifi_BLE_SDK/GD32VW55x_RELEASE_V1.0.2/MSDK/wpa_supplicant/src/ap\ap_list.c **** 	if (ap->next)
 130              		.loc 1 84 2 is_stmt 1
 131              		.loc 1 84 8 is_stmt 0
 132 000a 9C41     		lw	a5,0(a1)
 133              		.loc 1 84 5
 134 000c 99C7     		beq	a5,zero,.L16
 135              	.L21:
 136              	.LBB13:
 137              	.LBB14:
  85:C:/Users/stapi/OneDrive/Desktop/GD32VW553/V1_MQTT_OK/GD32VW55X_Wifi_BLE_SDK/GD32VW55x_RELEASE_V1.0.2/MSDK/wpa_supplicant/src/ap\ap_list.c **** 		ap->next->prev = ap->prev;
  86:C:/Users/stapi/OneDrive/Desktop/GD32VW553/V1_MQTT_OK/GD32VW55X_Wifi_BLE_SDK/GD32VW55x_RELEASE_V1.0.2/MSDK/wpa_supplicant/src/ap\ap_list.c **** 	else if (iface->ap_list)
  87:C:/Users/stapi/OneDrive/Desktop/GD32VW553/V1_MQTT_OK/GD32VW55X_Wifi_BLE_SDK/GD32VW55x_RELEASE_V1.0.2/MSDK/wpa_supplicant/src/ap\ap_list.c **** 		iface->ap_list->prev = ap->prev;
 138              		.loc 1 87 3 is_stmt 1
 139              		.loc 1 87 28 is_stmt 0
 140 000e D841     		lw	a4,4(a1)
 141              		.loc 1 87 24
 142 0010 D8C3     		sw	a4,4(a5)
 143              	.LBE14:
 144              	.LBE13:
  88:C:/Users/stapi/OneDrive/Desktop/GD32VW553/V1_MQTT_OK/GD32VW55X_Wifi_BLE_SDK/GD32VW55x_RELEASE_V1.0.2/MSDK/wpa_supplicant/src/ap\ap_list.c **** }
 145              		.loc 1 88 1
 146 0012 31A0     		j	.L13
 147              	.L14:
  82:C:/Users/stapi/OneDrive/Desktop/GD32VW553/V1_MQTT_OK/GD32VW55X_Wifi_BLE_SDK/GD32VW55x_RELEASE_V1.0.2/MSDK/wpa_supplicant/src/ap\ap_list.c **** 
 148              		.loc 1 82 3 is_stmt 1
  82:C:/Users/stapi/OneDrive/Desktop/GD32VW553/V1_MQTT_OK/GD32VW55X_Wifi_BLE_SDK/GD32VW55x_RELEASE_V1.0.2/MSDK/wpa_supplicant/src/ap\ap_list.c **** 
 149              		.loc 1 82 18 is_stmt 0
 150 0014 D841     		lw	a4,4(a1)
 151 0016 1CC3     		sw	a5,0(a4)
 152 0018 CDBF     		j	.L15
 153              	.L16:
 154 001a 5C59     		lw	a5,52(a0)
 155              	.LVL10:
 156              	.LBB16:
 157              	.LBB15:
  86:C:/Users/stapi/OneDrive/Desktop/GD32VW553/V1_MQTT_OK/GD32VW55X_Wifi_BLE_SDK/GD32VW55x_RELEASE_V1.0.2/MSDK/wpa_supplicant/src/ap\ap_list.c **** 		iface->ap_list->prev = ap->prev;
 158              		.loc 1 86 7 is_stmt 1
  86:C:/Users/stapi/OneDrive/Desktop/GD32VW553/V1_MQTT_OK/GD32VW55X_Wifi_BLE_SDK/GD32VW55x_RELEASE_V1.0.2/MSDK/wpa_supplicant/src/ap\ap_list.c **** 		iface->ap_list->prev = ap->prev;
 159              		.loc 1 86 10 is_stmt 0
 160 001c EDFB     		bne	a5,zero,.L21
 161              	.LVL11:
 162              	.L13:
 163              	.LBE15:
 164              	.LBE16:
 165              		.loc 1 88 1
 166 001e 8280     		ret
 167              		.cfi_endproc
 168              	.LFE142:
 170              		.section	.rodata.ap_free_ap.str1.4,"aMS",@progbits,1
 171              		.align	2
 172              	.LC0:
 173 0000 41503A20 		.string	"AP: could not remove AP %02x:%02x:%02x:%02x:%02x:%02x from hash table"
 173      636F756C 
 173      64206E6F 
 173      74207265 
 173      6D6F7665 
 174              		.section	.text.ap_free_ap,"ax",@progbits
 175              		.align	1
 177              	ap_free_ap:
 178              	.LFB145:
  89:C:/Users/stapi/OneDrive/Desktop/GD32VW553/V1_MQTT_OK/GD32VW55X_Wifi_BLE_SDK/GD32VW55x_RELEASE_V1.0.2/MSDK/wpa_supplicant/src/ap\ap_list.c **** 
  90:C:/Users/stapi/OneDrive/Desktop/GD32VW553/V1_MQTT_OK/GD32VW55X_Wifi_BLE_SDK/GD32VW55x_RELEASE_V1.0.2/MSDK/wpa_supplicant/src/ap\ap_list.c **** 
  91:C:/Users/stapi/OneDrive/Desktop/GD32VW553/V1_MQTT_OK/GD32VW55X_Wifi_BLE_SDK/GD32VW55x_RELEASE_V1.0.2/MSDK/wpa_supplicant/src/ap\ap_list.c **** static void ap_ap_hash_add(struct hostapd_iface *iface, struct ap_info *ap)
  92:C:/Users/stapi/OneDrive/Desktop/GD32VW553/V1_MQTT_OK/GD32VW55X_Wifi_BLE_SDK/GD32VW55x_RELEASE_V1.0.2/MSDK/wpa_supplicant/src/ap\ap_list.c **** {
  93:C:/Users/stapi/OneDrive/Desktop/GD32VW553/V1_MQTT_OK/GD32VW55X_Wifi_BLE_SDK/GD32VW55x_RELEASE_V1.0.2/MSDK/wpa_supplicant/src/ap\ap_list.c **** 	ap->hnext = iface->ap_hash[STA_HASH(ap->addr)];
  94:C:/Users/stapi/OneDrive/Desktop/GD32VW553/V1_MQTT_OK/GD32VW55X_Wifi_BLE_SDK/GD32VW55x_RELEASE_V1.0.2/MSDK/wpa_supplicant/src/ap\ap_list.c **** 	iface->ap_hash[STA_HASH(ap->addr)] = ap;
  95:C:/Users/stapi/OneDrive/Desktop/GD32VW553/V1_MQTT_OK/GD32VW55X_Wifi_BLE_SDK/GD32VW55x_RELEASE_V1.0.2/MSDK/wpa_supplicant/src/ap\ap_list.c **** }
  96:C:/Users/stapi/OneDrive/Desktop/GD32VW553/V1_MQTT_OK/GD32VW55X_Wifi_BLE_SDK/GD32VW55x_RELEASE_V1.0.2/MSDK/wpa_supplicant/src/ap\ap_list.c **** 
  97:C:/Users/stapi/OneDrive/Desktop/GD32VW553/V1_MQTT_OK/GD32VW55X_Wifi_BLE_SDK/GD32VW55x_RELEASE_V1.0.2/MSDK/wpa_supplicant/src/ap\ap_list.c **** 
  98:C:/Users/stapi/OneDrive/Desktop/GD32VW553/V1_MQTT_OK/GD32VW55X_Wifi_BLE_SDK/GD32VW55x_RELEASE_V1.0.2/MSDK/wpa_supplicant/src/ap\ap_list.c **** static void ap_ap_hash_del(struct hostapd_iface *iface, struct ap_info *ap)
  99:C:/Users/stapi/OneDrive/Desktop/GD32VW553/V1_MQTT_OK/GD32VW55X_Wifi_BLE_SDK/GD32VW55x_RELEASE_V1.0.2/MSDK/wpa_supplicant/src/ap\ap_list.c **** {
 100:C:/Users/stapi/OneDrive/Desktop/GD32VW553/V1_MQTT_OK/GD32VW55X_Wifi_BLE_SDK/GD32VW55x_RELEASE_V1.0.2/MSDK/wpa_supplicant/src/ap\ap_list.c **** 	struct ap_info *s;
 101:C:/Users/stapi/OneDrive/Desktop/GD32VW553/V1_MQTT_OK/GD32VW55X_Wifi_BLE_SDK/GD32VW55x_RELEASE_V1.0.2/MSDK/wpa_supplicant/src/ap\ap_list.c **** 
 102:C:/Users/stapi/OneDrive/Desktop/GD32VW553/V1_MQTT_OK/GD32VW55X_Wifi_BLE_SDK/GD32VW55x_RELEASE_V1.0.2/MSDK/wpa_supplicant/src/ap\ap_list.c **** 	s = iface->ap_hash[STA_HASH(ap->addr)];
 103:C:/Users/stapi/OneDrive/Desktop/GD32VW553/V1_MQTT_OK/GD32VW55X_Wifi_BLE_SDK/GD32VW55x_RELEASE_V1.0.2/MSDK/wpa_supplicant/src/ap\ap_list.c **** 	if (s == NULL) return;
 104:C:/Users/stapi/OneDrive/Desktop/GD32VW553/V1_MQTT_OK/GD32VW55X_Wifi_BLE_SDK/GD32VW55x_RELEASE_V1.0.2/MSDK/wpa_supplicant/src/ap\ap_list.c **** 	if (os_memcmp(s->addr, ap->addr, ETH_ALEN) == 0) {
 105:C:/Users/stapi/OneDrive/Desktop/GD32VW553/V1_MQTT_OK/GD32VW55X_Wifi_BLE_SDK/GD32VW55x_RELEASE_V1.0.2/MSDK/wpa_supplicant/src/ap\ap_list.c **** 		iface->ap_hash[STA_HASH(ap->addr)] = s->hnext;
 106:C:/Users/stapi/OneDrive/Desktop/GD32VW553/V1_MQTT_OK/GD32VW55X_Wifi_BLE_SDK/GD32VW55x_RELEASE_V1.0.2/MSDK/wpa_supplicant/src/ap\ap_list.c **** 		return;
 107:C:/Users/stapi/OneDrive/Desktop/GD32VW553/V1_MQTT_OK/GD32VW55X_Wifi_BLE_SDK/GD32VW55x_RELEASE_V1.0.2/MSDK/wpa_supplicant/src/ap\ap_list.c **** 	}
 108:C:/Users/stapi/OneDrive/Desktop/GD32VW553/V1_MQTT_OK/GD32VW55X_Wifi_BLE_SDK/GD32VW55x_RELEASE_V1.0.2/MSDK/wpa_supplicant/src/ap\ap_list.c **** 
 109:C:/Users/stapi/OneDrive/Desktop/GD32VW553/V1_MQTT_OK/GD32VW55X_Wifi_BLE_SDK/GD32VW55x_RELEASE_V1.0.2/MSDK/wpa_supplicant/src/ap\ap_list.c **** 	while (s->hnext != NULL &&
 110:C:/Users/stapi/OneDrive/Desktop/GD32VW553/V1_MQTT_OK/GD32VW55X_Wifi_BLE_SDK/GD32VW55x_RELEASE_V1.0.2/MSDK/wpa_supplicant/src/ap\ap_list.c **** 	       os_memcmp(s->hnext->addr, ap->addr, ETH_ALEN) != 0)
 111:C:/Users/stapi/OneDrive/Desktop/GD32VW553/V1_MQTT_OK/GD32VW55X_Wifi_BLE_SDK/GD32VW55x_RELEASE_V1.0.2/MSDK/wpa_supplicant/src/ap\ap_list.c **** 		s = s->hnext;
 112:C:/Users/stapi/OneDrive/Desktop/GD32VW553/V1_MQTT_OK/GD32VW55X_Wifi_BLE_SDK/GD32VW55x_RELEASE_V1.0.2/MSDK/wpa_supplicant/src/ap\ap_list.c **** 	if (s->hnext != NULL)
 113:C:/Users/stapi/OneDrive/Desktop/GD32VW553/V1_MQTT_OK/GD32VW55X_Wifi_BLE_SDK/GD32VW55x_RELEASE_V1.0.2/MSDK/wpa_supplicant/src/ap\ap_list.c **** 		s->hnext = s->hnext->hnext;
 114:C:/Users/stapi/OneDrive/Desktop/GD32VW553/V1_MQTT_OK/GD32VW55X_Wifi_BLE_SDK/GD32VW55x_RELEASE_V1.0.2/MSDK/wpa_supplicant/src/ap\ap_list.c **** 	else
 115:C:/Users/stapi/OneDrive/Desktop/GD32VW553/V1_MQTT_OK/GD32VW55X_Wifi_BLE_SDK/GD32VW55x_RELEASE_V1.0.2/MSDK/wpa_supplicant/src/ap\ap_list.c **** 		wpa_printf(MSG_INFO, "AP: could not remove AP " MACSTR
 116:C:/Users/stapi/OneDrive/Desktop/GD32VW553/V1_MQTT_OK/GD32VW55X_Wifi_BLE_SDK/GD32VW55x_RELEASE_V1.0.2/MSDK/wpa_supplicant/src/ap\ap_list.c **** 			   " from hash table",  MAC2STR(ap->addr));
 117:C:/Users/stapi/OneDrive/Desktop/GD32VW553/V1_MQTT_OK/GD32VW55X_Wifi_BLE_SDK/GD32VW55x_RELEASE_V1.0.2/MSDK/wpa_supplicant/src/ap\ap_list.c **** }
 118:C:/Users/stapi/OneDrive/Desktop/GD32VW553/V1_MQTT_OK/GD32VW55X_Wifi_BLE_SDK/GD32VW55x_RELEASE_V1.0.2/MSDK/wpa_supplicant/src/ap\ap_list.c **** 
 119:C:/Users/stapi/OneDrive/Desktop/GD32VW553/V1_MQTT_OK/GD32VW55X_Wifi_BLE_SDK/GD32VW55x_RELEASE_V1.0.2/MSDK/wpa_supplicant/src/ap\ap_list.c **** 
 120:C:/Users/stapi/OneDrive/Desktop/GD32VW553/V1_MQTT_OK/GD32VW55X_Wifi_BLE_SDK/GD32VW55x_RELEASE_V1.0.2/MSDK/wpa_supplicant/src/ap\ap_list.c **** static void ap_free_ap(struct hostapd_iface *iface, struct ap_info *ap)
 121:C:/Users/stapi/OneDrive/Desktop/GD32VW553/V1_MQTT_OK/GD32VW55X_Wifi_BLE_SDK/GD32VW55x_RELEASE_V1.0.2/MSDK/wpa_supplicant/src/ap\ap_list.c **** {
 179              		.loc 1 121 1 is_stmt 1
 180              		.cfi_startproc
 181              	.LVL12:
 182 0000 17030000 		call	t0,__riscv_save_4
 182      E7020300 
 183              		.cfi_offset 19, -20
 184              		.cfi_offset 18, -16
 185              		.cfi_offset 9, -12
 186              		.cfi_offset 8, -8
 187              		.cfi_offset 1, -4
 188              		.cfi_def_cfa_offset 32
 122:C:/Users/stapi/OneDrive/Desktop/GD32VW553/V1_MQTT_OK/GD32VW55X_Wifi_BLE_SDK/GD32VW55x_RELEASE_V1.0.2/MSDK/wpa_supplicant/src/ap\ap_list.c **** 	ap_ap_hash_del(iface, ap);
 189              		.loc 1 122 2
 190              	.LVL13:
 191              	.LBB19:
 192              	.LBB20:
 100:C:/Users/stapi/OneDrive/Desktop/GD32VW553/V1_MQTT_OK/GD32VW55X_Wifi_BLE_SDK/GD32VW55x_RELEASE_V1.0.2/MSDK/wpa_supplicant/src/ap\ap_list.c **** 
 193              		.loc 1 100 2
 102:C:/Users/stapi/OneDrive/Desktop/GD32VW553/V1_MQTT_OK/GD32VW55X_Wifi_BLE_SDK/GD32VW55x_RELEASE_V1.0.2/MSDK/wpa_supplicant/src/ap\ap_list.c **** 	if (s == NULL) return;
 194              		.loc 1 102 2
 102:C:/Users/stapi/OneDrive/Desktop/GD32VW553/V1_MQTT_OK/GD32VW55X_Wifi_BLE_SDK/GD32VW55x_RELEASE_V1.0.2/MSDK/wpa_supplicant/src/ap\ap_list.c **** 	if (s == NULL) return;
 195              		.loc 1 102 21 is_stmt 0
 196 0008 83C71501 		lbu	a5,17(a1)
 197              	.LBE20:
 198              	.LBE19:
 121:C:/Users/stapi/OneDrive/Desktop/GD32VW553/V1_MQTT_OK/GD32VW55X_Wifi_BLE_SDK/GD32VW55x_RELEASE_V1.0.2/MSDK/wpa_supplicant/src/ap\ap_list.c **** 	ap_ap_hash_del(iface, ap);
 199              		.loc 1 121 1
 200 000c 2A89     		mv	s2,a0
 201 000e 2E84     		mv	s0,a1
 202              	.LBB23:
 203              	.LBB21:
 102:C:/Users/stapi/OneDrive/Desktop/GD32VW553/V1_MQTT_OK/GD32VW55X_Wifi_BLE_SDK/GD32VW55x_RELEASE_V1.0.2/MSDK/wpa_supplicant/src/ap\ap_list.c **** 	if (s == NULL) return;
 204              		.loc 1 102 4
 205 0010 B3C7A720 		sh2add	a5,a5,a0
 206 0014 845F     		lw	s1,56(a5)
 207              	.LVL14:
 103:C:/Users/stapi/OneDrive/Desktop/GD32VW553/V1_MQTT_OK/GD32VW55X_Wifi_BLE_SDK/GD32VW55x_RELEASE_V1.0.2/MSDK/wpa_supplicant/src/ap\ap_list.c **** 	if (os_memcmp(s->addr, ap->addr, ETH_ALEN) == 0) {
 208              		.loc 1 103 2 is_stmt 1
 103:C:/Users/stapi/OneDrive/Desktop/GD32VW553/V1_MQTT_OK/GD32VW55X_Wifi_BLE_SDK/GD32VW55x_RELEASE_V1.0.2/MSDK/wpa_supplicant/src/ap\ap_list.c **** 	if (os_memcmp(s->addr, ap->addr, ETH_ALEN) == 0) {
 209              		.loc 1 103 5 is_stmt 0
 210 0016 95C0     		beq	s1,zero,.L23
 104:C:/Users/stapi/OneDrive/Desktop/GD32VW553/V1_MQTT_OK/GD32VW55X_Wifi_BLE_SDK/GD32VW55x_RELEASE_V1.0.2/MSDK/wpa_supplicant/src/ap\ap_list.c **** 		iface->ap_hash[STA_HASH(ap->addr)] = s->hnext;
 211              		.loc 1 104 2 is_stmt 1
 104:C:/Users/stapi/OneDrive/Desktop/GD32VW553/V1_MQTT_OK/GD32VW55X_Wifi_BLE_SDK/GD32VW55x_RELEASE_V1.0.2/MSDK/wpa_supplicant/src/ap\ap_list.c **** 		iface->ap_hash[STA_HASH(ap->addr)] = s->hnext;
 212              		.loc 1 104 27 is_stmt 0
 213 0018 9389C500 		addi	s3,a1,12
 104:C:/Users/stapi/OneDrive/Desktop/GD32VW553/V1_MQTT_OK/GD32VW55X_Wifi_BLE_SDK/GD32VW55x_RELEASE_V1.0.2/MSDK/wpa_supplicant/src/ap\ap_list.c **** 		iface->ap_hash[STA_HASH(ap->addr)] = s->hnext;
 214              		.loc 1 104 6
 215 001c 1946     		li	a2,6
 216 001e CE85     		mv	a1,s3
 217              	.LVL15:
 218 0020 1385C400 		addi	a0,s1,12
 219              	.LVL16:
 220 0024 97000000 		call	os_memcmp
 220      E7800000 
 221              	.LVL17:
 104:C:/Users/stapi/OneDrive/Desktop/GD32VW553/V1_MQTT_OK/GD32VW55X_Wifi_BLE_SDK/GD32VW55x_RELEASE_V1.0.2/MSDK/wpa_supplicant/src/ap\ap_list.c **** 		iface->ap_hash[STA_HASH(ap->addr)] = s->hnext;
 222              		.loc 1 104 5
 223 002c 21E5     		bne	a0,zero,.L24
 105:C:/Users/stapi/OneDrive/Desktop/GD32VW553/V1_MQTT_OK/GD32VW55X_Wifi_BLE_SDK/GD32VW55x_RELEASE_V1.0.2/MSDK/wpa_supplicant/src/ap\ap_list.c **** 		return;
 224              		.loc 1 105 3 is_stmt 1
 105:C:/Users/stapi/OneDrive/Desktop/GD32VW553/V1_MQTT_OK/GD32VW55X_Wifi_BLE_SDK/GD32VW55x_RELEASE_V1.0.2/MSDK/wpa_supplicant/src/ap\ap_list.c **** 		return;
 225              		.loc 1 105 18 is_stmt 0
 226 002e 83471401 		lbu	a5,17(s0)
 105:C:/Users/stapi/OneDrive/Desktop/GD32VW553/V1_MQTT_OK/GD32VW55X_Wifi_BLE_SDK/GD32VW55x_RELEASE_V1.0.2/MSDK/wpa_supplicant/src/ap\ap_list.c **** 		return;
 227              		.loc 1 105 38
 228 0032 9844     		lw	a4,8(s1)
 229 0034 B3C72721 		sh2add	a5,a5,s2
 230 0038 98DF     		sw	a4,56(a5)
 106:C:/Users/stapi/OneDrive/Desktop/GD32VW553/V1_MQTT_OK/GD32VW55X_Wifi_BLE_SDK/GD32VW55x_RELEASE_V1.0.2/MSDK/wpa_supplicant/src/ap\ap_list.c **** 	}
 231              		.loc 1 106 3 is_stmt 1
 232              	.L23:
 233              	.LVL18:
 234              	.LBE21:
 235              	.LBE23:
 123:C:/Users/stapi/OneDrive/Desktop/GD32VW553/V1_MQTT_OK/GD32VW55X_Wifi_BLE_SDK/GD32VW55x_RELEASE_V1.0.2/MSDK/wpa_supplicant/src/ap\ap_list.c **** 	ap_ap_list_del(iface, ap);
 236              		.loc 1 123 2
 237 003a A285     		mv	a1,s0
 238 003c 4A85     		mv	a0,s2
 239 003e 97000000 		call	ap_ap_list_del
 239      E7800000 
 240              	.LVL19:
 124:C:/Users/stapi/OneDrive/Desktop/GD32VW553/V1_MQTT_OK/GD32VW55X_Wifi_BLE_SDK/GD32VW55x_RELEASE_V1.0.2/MSDK/wpa_supplicant/src/ap\ap_list.c **** 
 125:C:/Users/stapi/OneDrive/Desktop/GD32VW553/V1_MQTT_OK/GD32VW55X_Wifi_BLE_SDK/GD32VW55x_RELEASE_V1.0.2/MSDK/wpa_supplicant/src/ap\ap_list.c **** 	iface->num_ap--;
 241              		.loc 1 125 2
 242              		.loc 1 125 15 is_stmt 0
 243 0046 83270903 		lw	a5,48(s2)
 126:C:/Users/stapi/OneDrive/Desktop/GD32VW553/V1_MQTT_OK/GD32VW55X_Wifi_BLE_SDK/GD32VW55x_RELEASE_V1.0.2/MSDK/wpa_supplicant/src/ap\ap_list.c **** 	os_free(ap);
 244              		.loc 1 126 2
 245 004a 2285     		mv	a0,s0
 125:C:/Users/stapi/OneDrive/Desktop/GD32VW553/V1_MQTT_OK/GD32VW55X_Wifi_BLE_SDK/GD32VW55x_RELEASE_V1.0.2/MSDK/wpa_supplicant/src/ap\ap_list.c **** 	os_free(ap);
 246              		.loc 1 125 15
 247 004c FD17     		addi	a5,a5,-1
 248 004e 2328F902 		sw	a5,48(s2)
 249              		.loc 1 126 2 is_stmt 1
 250 0052 97000000 		call	os_free
 250      E7800000 
 251              	.LVL20:
 127:C:/Users/stapi/OneDrive/Desktop/GD32VW553/V1_MQTT_OK/GD32VW55X_Wifi_BLE_SDK/GD32VW55x_RELEASE_V1.0.2/MSDK/wpa_supplicant/src/ap\ap_list.c **** }
 252              		.loc 1 127 1 is_stmt 0
 253 005a 17030000 		tail	__riscv_restore_4
 253      67000300 
 254              		.cfi_remember_state
 255              		.cfi_restore 19
 256              		.cfi_restore 18
 257              		.cfi_restore 9
 258              		.cfi_restore 8
 259              		.cfi_restore 1
 260              		.cfi_def_cfa_offset 0
 261              	.LVL21:
 262              	.L25:
 263              		.cfi_restore_state
 264              	.LBB24:
 265              	.LBB22:
 110:C:/Users/stapi/OneDrive/Desktop/GD32VW553/V1_MQTT_OK/GD32VW55X_Wifi_BLE_SDK/GD32VW55x_RELEASE_V1.0.2/MSDK/wpa_supplicant/src/ap\ap_list.c **** 		s = s->hnext;
 266              		.loc 1 110 9
 267 0062 1946     		li	a2,6
 268 0064 CE85     		mv	a1,s3
 269 0066 3105     		addi	a0,a0,12
 270 0068 97000000 		call	os_memcmp
 270      E7800000 
 271              	.LVL22:
 109:C:/Users/stapi/OneDrive/Desktop/GD32VW553/V1_MQTT_OK/GD32VW55X_Wifi_BLE_SDK/GD32VW55x_RELEASE_V1.0.2/MSDK/wpa_supplicant/src/ap\ap_list.c **** 	       os_memcmp(s->hnext->addr, ap->addr, ETH_ALEN) != 0)
 272              		.loc 1 109 26
 273 0070 01C5     		beq	a0,zero,.L29
 111:C:/Users/stapi/OneDrive/Desktop/GD32VW553/V1_MQTT_OK/GD32VW55X_Wifi_BLE_SDK/GD32VW55x_RELEASE_V1.0.2/MSDK/wpa_supplicant/src/ap\ap_list.c **** 	if (s->hnext != NULL)
 274              		.loc 1 111 3 is_stmt 1
 111:C:/Users/stapi/OneDrive/Desktop/GD32VW553/V1_MQTT_OK/GD32VW55X_Wifi_BLE_SDK/GD32VW55x_RELEASE_V1.0.2/MSDK/wpa_supplicant/src/ap\ap_list.c **** 	if (s->hnext != NULL)
 275              		.loc 1 111 5 is_stmt 0
 276 0072 8444     		lw	s1,8(s1)
 277              	.LVL23:
 278              	.L24:
 109:C:/Users/stapi/OneDrive/Desktop/GD32VW553/V1_MQTT_OK/GD32VW55X_Wifi_BLE_SDK/GD32VW55x_RELEASE_V1.0.2/MSDK/wpa_supplicant/src/ap\ap_list.c **** 	       os_memcmp(s->hnext->addr, ap->addr, ETH_ALEN) != 0)
 279              		.loc 1 109 8 is_stmt 1
 109:C:/Users/stapi/OneDrive/Desktop/GD32VW553/V1_MQTT_OK/GD32VW55X_Wifi_BLE_SDK/GD32VW55x_RELEASE_V1.0.2/MSDK/wpa_supplicant/src/ap\ap_list.c **** 	       os_memcmp(s->hnext->addr, ap->addr, ETH_ALEN) != 0)
 280              		.loc 1 109 10 is_stmt 0
 281 0074 8844     		lw	a0,8(s1)
 109:C:/Users/stapi/OneDrive/Desktop/GD32VW553/V1_MQTT_OK/GD32VW55X_Wifi_BLE_SDK/GD32VW55x_RELEASE_V1.0.2/MSDK/wpa_supplicant/src/ap\ap_list.c **** 	       os_memcmp(s->hnext->addr, ap->addr, ETH_ALEN) != 0)
 282              		.loc 1 109 8
 283 0076 75F5     		bne	a0,zero,.L25
 284              	.L29:
 112:C:/Users/stapi/OneDrive/Desktop/GD32VW553/V1_MQTT_OK/GD32VW55X_Wifi_BLE_SDK/GD32VW55x_RELEASE_V1.0.2/MSDK/wpa_supplicant/src/ap\ap_list.c **** 		s->hnext = s->hnext->hnext;
 285              		.loc 1 112 2 is_stmt 1
 112:C:/Users/stapi/OneDrive/Desktop/GD32VW553/V1_MQTT_OK/GD32VW55X_Wifi_BLE_SDK/GD32VW55x_RELEASE_V1.0.2/MSDK/wpa_supplicant/src/ap\ap_list.c **** 		s->hnext = s->hnext->hnext;
 286              		.loc 1 112 7 is_stmt 0
 287 0078 9C44     		lw	a5,8(s1)
 112:C:/Users/stapi/OneDrive/Desktop/GD32VW553/V1_MQTT_OK/GD32VW55X_Wifi_BLE_SDK/GD32VW55x_RELEASE_V1.0.2/MSDK/wpa_supplicant/src/ap\ap_list.c **** 		s->hnext = s->hnext->hnext;
 288              		.loc 1 112 5
 289 007a 9DE7     		bne	a5,zero,.L26
 115:C:/Users/stapi/OneDrive/Desktop/GD32VW553/V1_MQTT_OK/GD32VW55X_Wifi_BLE_SDK/GD32VW55x_RELEASE_V1.0.2/MSDK/wpa_supplicant/src/ap\ap_list.c **** 			   " from hash table",  MAC2STR(ap->addr));
 290              		.loc 1 115 3 is_stmt 1
 291 007c 83481401 		lbu	a7,17(s0)
 292 0080 03480401 		lbu	a6,16(s0)
 293 0084 8347F400 		lbu	a5,15(s0)
 294 0088 0347E400 		lbu	a4,14(s0)
 295 008c 8346D400 		lbu	a3,13(s0)
 296 0090 0346C400 		lbu	a2,12(s0)
 297 0094 B7050000 		lui	a1,%hi(.LC0)
 298 0098 93850500 		addi	a1,a1,%lo(.LC0)
 299 009c 0D45     		li	a0,3
 300 009e 97000000 		call	wpa_printf
 300      E7800000 
 301              	.LVL24:
 302 00a6 51BF     		j	.L23
 303              	.L26:
 113:C:/Users/stapi/OneDrive/Desktop/GD32VW553/V1_MQTT_OK/GD32VW55X_Wifi_BLE_SDK/GD32VW55x_RELEASE_V1.0.2/MSDK/wpa_supplicant/src/ap\ap_list.c **** 	else
 304              		.loc 1 113 3
 113:C:/Users/stapi/OneDrive/Desktop/GD32VW553/V1_MQTT_OK/GD32VW55X_Wifi_BLE_SDK/GD32VW55x_RELEASE_V1.0.2/MSDK/wpa_supplicant/src/ap\ap_list.c **** 	else
 305              		.loc 1 113 22 is_stmt 0
 306 00a8 9C47     		lw	a5,8(a5)
 113:C:/Users/stapi/OneDrive/Desktop/GD32VW553/V1_MQTT_OK/GD32VW55X_Wifi_BLE_SDK/GD32VW55x_RELEASE_V1.0.2/MSDK/wpa_supplicant/src/ap\ap_list.c **** 	else
 307              		.loc 1 113 12
 308 00aa 9CC4     		sw	a5,8(s1)
 309 00ac 79B7     		j	.L23
 310              	.LBE22:
 311              	.LBE24:
 312              		.cfi_endproc
 313              	.LFE145:
 315              		.section	.rodata.ap_list_process_beacon.str1.4,"aMS",@progbits,1
 316              		.align	2
 317              	.LC1:
 318 0000 4661696C 		.string	"Failed to allocate AP information entry"
 318      65642074 
 318      6F20616C 
 318      6C6F6361 
 318      74652041 
 319              		.align	2
 320              	.LC2:
 321 0028 52656D6F 		.string	"Removing the least recently used AP %02x:%02x:%02x:%02x:%02x:%02x from AP table"
 321      76696E67 
 321      20746865 
 321      206C6561 
 321      73742072 
 322              		.align	2
 323              	.LC3:
 324 0078 4F4C4243 		.string	"OLBC AP detected: %02x:%02x:%02x:%02x:%02x:%02x (channel %d) - enable protection"
 324      20415020 
 324      64657465 
 324      63746564 
 324      3A202530 
 325 00c9 000000   		.align	2
 326              	.LC4:
 327 00cc 4F4C4243 		.string	"OLBC HT AP detected: %02x:%02x:%02x:%02x:%02x:%02x (channel %d) - enable protection"
 327      20485420 
 327      41502064 
 327      65746563 
 327      7465643A 
 328              		.section	.text.ap_list_process_beacon,"ax",@progbits
 329              		.align	1
 330              		.globl	ap_list_process_beacon
 332              	ap_list_process_beacon:
 333              	.LFB148:
 128:C:/Users/stapi/OneDrive/Desktop/GD32VW553/V1_MQTT_OK/GD32VW55X_Wifi_BLE_SDK/GD32VW55x_RELEASE_V1.0.2/MSDK/wpa_supplicant/src/ap\ap_list.c **** 
 129:C:/Users/stapi/OneDrive/Desktop/GD32VW553/V1_MQTT_OK/GD32VW55X_Wifi_BLE_SDK/GD32VW55x_RELEASE_V1.0.2/MSDK/wpa_supplicant/src/ap\ap_list.c **** 
 130:C:/Users/stapi/OneDrive/Desktop/GD32VW553/V1_MQTT_OK/GD32VW55X_Wifi_BLE_SDK/GD32VW55x_RELEASE_V1.0.2/MSDK/wpa_supplicant/src/ap\ap_list.c **** static void hostapd_free_aps(struct hostapd_iface *iface)
 131:C:/Users/stapi/OneDrive/Desktop/GD32VW553/V1_MQTT_OK/GD32VW55X_Wifi_BLE_SDK/GD32VW55x_RELEASE_V1.0.2/MSDK/wpa_supplicant/src/ap\ap_list.c **** {
 132:C:/Users/stapi/OneDrive/Desktop/GD32VW553/V1_MQTT_OK/GD32VW55X_Wifi_BLE_SDK/GD32VW55x_RELEASE_V1.0.2/MSDK/wpa_supplicant/src/ap\ap_list.c **** 	struct ap_info *ap, *prev;
 133:C:/Users/stapi/OneDrive/Desktop/GD32VW553/V1_MQTT_OK/GD32VW55X_Wifi_BLE_SDK/GD32VW55x_RELEASE_V1.0.2/MSDK/wpa_supplicant/src/ap\ap_list.c **** 
 134:C:/Users/stapi/OneDrive/Desktop/GD32VW553/V1_MQTT_OK/GD32VW55X_Wifi_BLE_SDK/GD32VW55x_RELEASE_V1.0.2/MSDK/wpa_supplicant/src/ap\ap_list.c **** 	ap = iface->ap_list;
 135:C:/Users/stapi/OneDrive/Desktop/GD32VW553/V1_MQTT_OK/GD32VW55X_Wifi_BLE_SDK/GD32VW55x_RELEASE_V1.0.2/MSDK/wpa_supplicant/src/ap\ap_list.c **** 
 136:C:/Users/stapi/OneDrive/Desktop/GD32VW553/V1_MQTT_OK/GD32VW55X_Wifi_BLE_SDK/GD32VW55x_RELEASE_V1.0.2/MSDK/wpa_supplicant/src/ap\ap_list.c **** 	while (ap) {
 137:C:/Users/stapi/OneDrive/Desktop/GD32VW553/V1_MQTT_OK/GD32VW55X_Wifi_BLE_SDK/GD32VW55x_RELEASE_V1.0.2/MSDK/wpa_supplicant/src/ap\ap_list.c **** 		prev = ap;
 138:C:/Users/stapi/OneDrive/Desktop/GD32VW553/V1_MQTT_OK/GD32VW55X_Wifi_BLE_SDK/GD32VW55x_RELEASE_V1.0.2/MSDK/wpa_supplicant/src/ap\ap_list.c **** 		ap = ap->next;
 139:C:/Users/stapi/OneDrive/Desktop/GD32VW553/V1_MQTT_OK/GD32VW55X_Wifi_BLE_SDK/GD32VW55x_RELEASE_V1.0.2/MSDK/wpa_supplicant/src/ap\ap_list.c **** 		ap_free_ap(iface, prev);
 140:C:/Users/stapi/OneDrive/Desktop/GD32VW553/V1_MQTT_OK/GD32VW55X_Wifi_BLE_SDK/GD32VW55x_RELEASE_V1.0.2/MSDK/wpa_supplicant/src/ap\ap_list.c **** 	}
 141:C:/Users/stapi/OneDrive/Desktop/GD32VW553/V1_MQTT_OK/GD32VW55X_Wifi_BLE_SDK/GD32VW55x_RELEASE_V1.0.2/MSDK/wpa_supplicant/src/ap\ap_list.c **** 
 142:C:/Users/stapi/OneDrive/Desktop/GD32VW553/V1_MQTT_OK/GD32VW55X_Wifi_BLE_SDK/GD32VW55x_RELEASE_V1.0.2/MSDK/wpa_supplicant/src/ap\ap_list.c **** 	iface->ap_list = NULL;
 143:C:/Users/stapi/OneDrive/Desktop/GD32VW553/V1_MQTT_OK/GD32VW55X_Wifi_BLE_SDK/GD32VW55x_RELEASE_V1.0.2/MSDK/wpa_supplicant/src/ap\ap_list.c **** }
 144:C:/Users/stapi/OneDrive/Desktop/GD32VW553/V1_MQTT_OK/GD32VW55X_Wifi_BLE_SDK/GD32VW55x_RELEASE_V1.0.2/MSDK/wpa_supplicant/src/ap\ap_list.c **** 
 145:C:/Users/stapi/OneDrive/Desktop/GD32VW553/V1_MQTT_OK/GD32VW55X_Wifi_BLE_SDK/GD32VW55x_RELEASE_V1.0.2/MSDK/wpa_supplicant/src/ap\ap_list.c **** 
 146:C:/Users/stapi/OneDrive/Desktop/GD32VW553/V1_MQTT_OK/GD32VW55X_Wifi_BLE_SDK/GD32VW55x_RELEASE_V1.0.2/MSDK/wpa_supplicant/src/ap\ap_list.c **** static struct ap_info * ap_ap_add(struct hostapd_iface *iface, const u8 *addr)
 147:C:/Users/stapi/OneDrive/Desktop/GD32VW553/V1_MQTT_OK/GD32VW55X_Wifi_BLE_SDK/GD32VW55x_RELEASE_V1.0.2/MSDK/wpa_supplicant/src/ap\ap_list.c **** {
 148:C:/Users/stapi/OneDrive/Desktop/GD32VW553/V1_MQTT_OK/GD32VW55X_Wifi_BLE_SDK/GD32VW55x_RELEASE_V1.0.2/MSDK/wpa_supplicant/src/ap\ap_list.c **** 	struct ap_info *ap;
 149:C:/Users/stapi/OneDrive/Desktop/GD32VW553/V1_MQTT_OK/GD32VW55X_Wifi_BLE_SDK/GD32VW55x_RELEASE_V1.0.2/MSDK/wpa_supplicant/src/ap\ap_list.c **** 
 150:C:/Users/stapi/OneDrive/Desktop/GD32VW553/V1_MQTT_OK/GD32VW55X_Wifi_BLE_SDK/GD32VW55x_RELEASE_V1.0.2/MSDK/wpa_supplicant/src/ap\ap_list.c **** 	ap = os_zalloc(sizeof(struct ap_info));
 151:C:/Users/stapi/OneDrive/Desktop/GD32VW553/V1_MQTT_OK/GD32VW55X_Wifi_BLE_SDK/GD32VW55x_RELEASE_V1.0.2/MSDK/wpa_supplicant/src/ap\ap_list.c **** 	if (ap == NULL)
 152:C:/Users/stapi/OneDrive/Desktop/GD32VW553/V1_MQTT_OK/GD32VW55X_Wifi_BLE_SDK/GD32VW55x_RELEASE_V1.0.2/MSDK/wpa_supplicant/src/ap\ap_list.c **** 		return NULL;
 153:C:/Users/stapi/OneDrive/Desktop/GD32VW553/V1_MQTT_OK/GD32VW55X_Wifi_BLE_SDK/GD32VW55x_RELEASE_V1.0.2/MSDK/wpa_supplicant/src/ap\ap_list.c **** 
 154:C:/Users/stapi/OneDrive/Desktop/GD32VW553/V1_MQTT_OK/GD32VW55X_Wifi_BLE_SDK/GD32VW55x_RELEASE_V1.0.2/MSDK/wpa_supplicant/src/ap\ap_list.c **** 	/* initialize AP info data */
 155:C:/Users/stapi/OneDrive/Desktop/GD32VW553/V1_MQTT_OK/GD32VW55X_Wifi_BLE_SDK/GD32VW55x_RELEASE_V1.0.2/MSDK/wpa_supplicant/src/ap\ap_list.c **** 	os_memcpy(ap->addr, addr, ETH_ALEN);
 156:C:/Users/stapi/OneDrive/Desktop/GD32VW553/V1_MQTT_OK/GD32VW55X_Wifi_BLE_SDK/GD32VW55x_RELEASE_V1.0.2/MSDK/wpa_supplicant/src/ap\ap_list.c **** 	ap_ap_list_add(iface, ap);
 157:C:/Users/stapi/OneDrive/Desktop/GD32VW553/V1_MQTT_OK/GD32VW55X_Wifi_BLE_SDK/GD32VW55x_RELEASE_V1.0.2/MSDK/wpa_supplicant/src/ap\ap_list.c **** 	iface->num_ap++;
 158:C:/Users/stapi/OneDrive/Desktop/GD32VW553/V1_MQTT_OK/GD32VW55X_Wifi_BLE_SDK/GD32VW55x_RELEASE_V1.0.2/MSDK/wpa_supplicant/src/ap\ap_list.c **** 	ap_ap_hash_add(iface, ap);
 159:C:/Users/stapi/OneDrive/Desktop/GD32VW553/V1_MQTT_OK/GD32VW55X_Wifi_BLE_SDK/GD32VW55x_RELEASE_V1.0.2/MSDK/wpa_supplicant/src/ap\ap_list.c **** 
 160:C:/Users/stapi/OneDrive/Desktop/GD32VW553/V1_MQTT_OK/GD32VW55X_Wifi_BLE_SDK/GD32VW55x_RELEASE_V1.0.2/MSDK/wpa_supplicant/src/ap\ap_list.c **** 	if (iface->num_ap > iface->conf->ap_table_max_size && ap != ap->prev) {
 161:C:/Users/stapi/OneDrive/Desktop/GD32VW553/V1_MQTT_OK/GD32VW55X_Wifi_BLE_SDK/GD32VW55x_RELEASE_V1.0.2/MSDK/wpa_supplicant/src/ap\ap_list.c **** 		wpa_printf(MSG_DEBUG, "Removing the least recently used AP "
 162:C:/Users/stapi/OneDrive/Desktop/GD32VW553/V1_MQTT_OK/GD32VW55X_Wifi_BLE_SDK/GD32VW55x_RELEASE_V1.0.2/MSDK/wpa_supplicant/src/ap\ap_list.c **** 			   MACSTR " from AP table", MAC2STR(ap->prev->addr));
 163:C:/Users/stapi/OneDrive/Desktop/GD32VW553/V1_MQTT_OK/GD32VW55X_Wifi_BLE_SDK/GD32VW55x_RELEASE_V1.0.2/MSDK/wpa_supplicant/src/ap\ap_list.c **** 		ap_free_ap(iface, ap->prev);
 164:C:/Users/stapi/OneDrive/Desktop/GD32VW553/V1_MQTT_OK/GD32VW55X_Wifi_BLE_SDK/GD32VW55x_RELEASE_V1.0.2/MSDK/wpa_supplicant/src/ap\ap_list.c **** 	}
 165:C:/Users/stapi/OneDrive/Desktop/GD32VW553/V1_MQTT_OK/GD32VW55X_Wifi_BLE_SDK/GD32VW55x_RELEASE_V1.0.2/MSDK/wpa_supplicant/src/ap\ap_list.c **** 
 166:C:/Users/stapi/OneDrive/Desktop/GD32VW553/V1_MQTT_OK/GD32VW55X_Wifi_BLE_SDK/GD32VW55x_RELEASE_V1.0.2/MSDK/wpa_supplicant/src/ap\ap_list.c **** 	return ap;
 167:C:/Users/stapi/OneDrive/Desktop/GD32VW553/V1_MQTT_OK/GD32VW55X_Wifi_BLE_SDK/GD32VW55x_RELEASE_V1.0.2/MSDK/wpa_supplicant/src/ap\ap_list.c **** }
 168:C:/Users/stapi/OneDrive/Desktop/GD32VW553/V1_MQTT_OK/GD32VW55X_Wifi_BLE_SDK/GD32VW55x_RELEASE_V1.0.2/MSDK/wpa_supplicant/src/ap\ap_list.c **** 
 169:C:/Users/stapi/OneDrive/Desktop/GD32VW553/V1_MQTT_OK/GD32VW55X_Wifi_BLE_SDK/GD32VW55x_RELEASE_V1.0.2/MSDK/wpa_supplicant/src/ap\ap_list.c **** 
 170:C:/Users/stapi/OneDrive/Desktop/GD32VW553/V1_MQTT_OK/GD32VW55X_Wifi_BLE_SDK/GD32VW55x_RELEASE_V1.0.2/MSDK/wpa_supplicant/src/ap\ap_list.c **** void ap_list_process_beacon(struct hostapd_iface *iface,
 171:C:/Users/stapi/OneDrive/Desktop/GD32VW553/V1_MQTT_OK/GD32VW55X_Wifi_BLE_SDK/GD32VW55x_RELEASE_V1.0.2/MSDK/wpa_supplicant/src/ap\ap_list.c **** 			    const struct ieee80211_mgmt *mgmt,
 172:C:/Users/stapi/OneDrive/Desktop/GD32VW553/V1_MQTT_OK/GD32VW55X_Wifi_BLE_SDK/GD32VW55x_RELEASE_V1.0.2/MSDK/wpa_supplicant/src/ap\ap_list.c **** 			    struct ieee802_11_elems *elems,
 173:C:/Users/stapi/OneDrive/Desktop/GD32VW553/V1_MQTT_OK/GD32VW55X_Wifi_BLE_SDK/GD32VW55x_RELEASE_V1.0.2/MSDK/wpa_supplicant/src/ap\ap_list.c **** 			    struct hostapd_frame_info *fi)
 174:C:/Users/stapi/OneDrive/Desktop/GD32VW553/V1_MQTT_OK/GD32VW55X_Wifi_BLE_SDK/GD32VW55x_RELEASE_V1.0.2/MSDK/wpa_supplicant/src/ap\ap_list.c **** {
 334              		.loc 1 174 1 is_stmt 1
 335              		.cfi_startproc
 336              	.LVL25:
 175:C:/Users/stapi/OneDrive/Desktop/GD32VW553/V1_MQTT_OK/GD32VW55X_Wifi_BLE_SDK/GD32VW55x_RELEASE_V1.0.2/MSDK/wpa_supplicant/src/ap\ap_list.c **** 	struct ap_info *ap;
 337              		.loc 1 175 2
 176:C:/Users/stapi/OneDrive/Desktop/GD32VW553/V1_MQTT_OK/GD32VW55X_Wifi_BLE_SDK/GD32VW55x_RELEASE_V1.0.2/MSDK/wpa_supplicant/src/ap\ap_list.c **** 	int new_ap = 0;
 338              		.loc 1 176 2
 177:C:/Users/stapi/OneDrive/Desktop/GD32VW553/V1_MQTT_OK/GD32VW55X_Wifi_BLE_SDK/GD32VW55x_RELEASE_V1.0.2/MSDK/wpa_supplicant/src/ap\ap_list.c **** 	int set_beacon = 0;
 339              		.loc 1 177 2
 178:C:/Users/stapi/OneDrive/Desktop/GD32VW553/V1_MQTT_OK/GD32VW55X_Wifi_BLE_SDK/GD32VW55x_RELEASE_V1.0.2/MSDK/wpa_supplicant/src/ap\ap_list.c **** 
 179:C:/Users/stapi/OneDrive/Desktop/GD32VW553/V1_MQTT_OK/GD32VW55X_Wifi_BLE_SDK/GD32VW55x_RELEASE_V1.0.2/MSDK/wpa_supplicant/src/ap\ap_list.c **** 	if (iface->conf->ap_table_max_size < 1)
 340              		.loc 1 179 2
 341              		.loc 1 179 17 is_stmt 0
 342 0000 5845     		lw	a4,12(a0)
 343              		.loc 1 179 5
 344 0002 7853     		lw	a4,100(a4)
 345 0004 635CE022 		ble	a4,zero,.L77
 174:C:/Users/stapi/OneDrive/Desktop/GD32VW553/V1_MQTT_OK/GD32VW55X_Wifi_BLE_SDK/GD32VW55x_RELEASE_V1.0.2/MSDK/wpa_supplicant/src/ap\ap_list.c **** 	struct ap_info *ap;
 346              		.loc 1 174 1
 347 0008 17030000 		call	t0,__riscv_save_6
 347      E7020300 
 348              		.cfi_offset 21, -28
 349              		.cfi_offset 20, -24
 350              		.cfi_offset 19, -20
 351              		.cfi_offset 18, -16
 352              		.cfi_offset 9, -12
 353              		.cfi_offset 8, -8
 354              		.cfi_offset 1, -4
 355              		.cfi_def_cfa_offset 32
 356              	.LBB35:
 357              	.LBB36:
  58:C:/Users/stapi/OneDrive/Desktop/GD32VW553/V1_MQTT_OK/GD32VW55X_Wifi_BLE_SDK/GD32VW55x_RELEASE_V1.0.2/MSDK/wpa_supplicant/src/ap\ap_list.c **** 	while (s != NULL && os_memcmp(s->addr, ap, ETH_ALEN) != 0)
 358              		.loc 1 58 21
 359 0010 83C75501 		lbu	a5,21(a1)
 360              	.LBE36:
 361              	.LBE35:
 174:C:/Users/stapi/OneDrive/Desktop/GD32VW553/V1_MQTT_OK/GD32VW55X_Wifi_BLE_SDK/GD32VW55x_RELEASE_V1.0.2/MSDK/wpa_supplicant/src/ap\ap_list.c **** 	struct ap_info *ap;
 362              		.loc 1 174 1
 363 0014 4111     		addi	sp,sp,-16
 364              		.cfi_def_cfa_offset 48
 365 0016 AA84     		mv	s1,a0
 366              	.LBB41:
 367              	.LBB37:
  58:C:/Users/stapi/OneDrive/Desktop/GD32VW553/V1_MQTT_OK/GD32VW55X_Wifi_BLE_SDK/GD32VW55x_RELEASE_V1.0.2/MSDK/wpa_supplicant/src/ap\ap_list.c **** 	while (s != NULL && os_memcmp(s->addr, ap, ETH_ALEN) != 0)
 368              		.loc 1 58 4
 369 0018 B3C7A720 		sh2add	a5,a5,a0
 370 001c 805F     		lw	s0,56(a5)
 371 001e 3289     		mv	s2,a2
 372 0020 368A     		mv	s4,a3
 373              	.LBE37:
 374              	.LBE41:
 180:C:/Users/stapi/OneDrive/Desktop/GD32VW553/V1_MQTT_OK/GD32VW55X_Wifi_BLE_SDK/GD32VW55x_RELEASE_V1.0.2/MSDK/wpa_supplicant/src/ap\ap_list.c **** 		return;
 181:C:/Users/stapi/OneDrive/Desktop/GD32VW553/V1_MQTT_OK/GD32VW55X_Wifi_BLE_SDK/GD32VW55x_RELEASE_V1.0.2/MSDK/wpa_supplicant/src/ap\ap_list.c **** 
 182:C:/Users/stapi/OneDrive/Desktop/GD32VW553/V1_MQTT_OK/GD32VW55X_Wifi_BLE_SDK/GD32VW55x_RELEASE_V1.0.2/MSDK/wpa_supplicant/src/ap\ap_list.c **** 	ap = ap_get_ap(iface, mgmt->bssid);
 375              		.loc 1 182 2 is_stmt 1
 376              		.loc 1 182 28 is_stmt 0
 377 0022 938A0501 		addi	s5,a1,16
 378              	.LVL26:
 379              	.LBB42:
 380              	.LBB38:
  56:C:/Users/stapi/OneDrive/Desktop/GD32VW553/V1_MQTT_OK/GD32VW55X_Wifi_BLE_SDK/GD32VW55x_RELEASE_V1.0.2/MSDK/wpa_supplicant/src/ap\ap_list.c **** 
 381              		.loc 1 56 2 is_stmt 1
  58:C:/Users/stapi/OneDrive/Desktop/GD32VW553/V1_MQTT_OK/GD32VW55X_Wifi_BLE_SDK/GD32VW55x_RELEASE_V1.0.2/MSDK/wpa_supplicant/src/ap\ap_list.c **** 	while (s != NULL && os_memcmp(s->addr, ap, ETH_ALEN) != 0)
 382              		.loc 1 58 2
  59:C:/Users/stapi/OneDrive/Desktop/GD32VW553/V1_MQTT_OK/GD32VW55X_Wifi_BLE_SDK/GD32VW55x_RELEASE_V1.0.2/MSDK/wpa_supplicant/src/ap\ap_list.c **** 		s = s->hnext;
 383              		.loc 1 59 2
 384              	.L39:
  59:C:/Users/stapi/OneDrive/Desktop/GD32VW553/V1_MQTT_OK/GD32VW55X_Wifi_BLE_SDK/GD32VW55x_RELEASE_V1.0.2/MSDK/wpa_supplicant/src/ap\ap_list.c **** 		s = s->hnext;
 385              		.loc 1 59 8
 386 0026 6305041E 		beq	s0,zero,.L40
  59:C:/Users/stapi/OneDrive/Desktop/GD32VW553/V1_MQTT_OK/GD32VW55X_Wifi_BLE_SDK/GD32VW55x_RELEASE_V1.0.2/MSDK/wpa_supplicant/src/ap\ap_list.c **** 		s = s->hnext;
 387              		.loc 1 59 22 is_stmt 0
 388 002a 1946     		li	a2,6
 389 002c D685     		mv	a1,s5
 390 002e 1305C400 		addi	a0,s0,12
 391 0032 97000000 		call	os_memcmp
 391      E7800000 
 392              	.LVL27:
 393 003a AA89     		mv	s3,a0
  59:C:/Users/stapi/OneDrive/Desktop/GD32VW553/V1_MQTT_OK/GD32VW55X_Wifi_BLE_SDK/GD32VW55x_RELEASE_V1.0.2/MSDK/wpa_supplicant/src/ap\ap_list.c **** 		s = s->hnext;
 394              		.loc 1 59 19
 395 003c 631C0512 		bne	a0,zero,.L41
 396              	.LVL28:
 397              	.L42:
 398              	.LBE38:
 399              	.LBE42:
 183:C:/Users/stapi/OneDrive/Desktop/GD32VW553/V1_MQTT_OK/GD32VW55X_Wifi_BLE_SDK/GD32VW55x_RELEASE_V1.0.2/MSDK/wpa_supplicant/src/ap\ap_list.c **** 	if (!ap) {
 184:C:/Users/stapi/OneDrive/Desktop/GD32VW553/V1_MQTT_OK/GD32VW55X_Wifi_BLE_SDK/GD32VW55x_RELEASE_V1.0.2/MSDK/wpa_supplicant/src/ap\ap_list.c **** 		ap = ap_ap_add(iface, mgmt->bssid);
 185:C:/Users/stapi/OneDrive/Desktop/GD32VW553/V1_MQTT_OK/GD32VW55X_Wifi_BLE_SDK/GD32VW55x_RELEASE_V1.0.2/MSDK/wpa_supplicant/src/ap\ap_list.c **** 		if (!ap) {
 186:C:/Users/stapi/OneDrive/Desktop/GD32VW553/V1_MQTT_OK/GD32VW55X_Wifi_BLE_SDK/GD32VW55x_RELEASE_V1.0.2/MSDK/wpa_supplicant/src/ap\ap_list.c **** 			wpa_printf(MSG_INFO,
 187:C:/Users/stapi/OneDrive/Desktop/GD32VW553/V1_MQTT_OK/GD32VW55X_Wifi_BLE_SDK/GD32VW55x_RELEASE_V1.0.2/MSDK/wpa_supplicant/src/ap\ap_list.c **** 				   "Failed to allocate AP information entry");
 188:C:/Users/stapi/OneDrive/Desktop/GD32VW553/V1_MQTT_OK/GD32VW55X_Wifi_BLE_SDK/GD32VW55x_RELEASE_V1.0.2/MSDK/wpa_supplicant/src/ap\ap_list.c **** 			return;
 189:C:/Users/stapi/OneDrive/Desktop/GD32VW553/V1_MQTT_OK/GD32VW55X_Wifi_BLE_SDK/GD32VW55x_RELEASE_V1.0.2/MSDK/wpa_supplicant/src/ap\ap_list.c **** 		}
 190:C:/Users/stapi/OneDrive/Desktop/GD32VW553/V1_MQTT_OK/GD32VW55X_Wifi_BLE_SDK/GD32VW55x_RELEASE_V1.0.2/MSDK/wpa_supplicant/src/ap\ap_list.c **** 		new_ap = 1;
 191:C:/Users/stapi/OneDrive/Desktop/GD32VW553/V1_MQTT_OK/GD32VW55X_Wifi_BLE_SDK/GD32VW55x_RELEASE_V1.0.2/MSDK/wpa_supplicant/src/ap\ap_list.c **** 	}
 192:C:/Users/stapi/OneDrive/Desktop/GD32VW553/V1_MQTT_OK/GD32VW55X_Wifi_BLE_SDK/GD32VW55x_RELEASE_V1.0.2/MSDK/wpa_supplicant/src/ap\ap_list.c **** 
 193:C:/Users/stapi/OneDrive/Desktop/GD32VW553/V1_MQTT_OK/GD32VW55X_Wifi_BLE_SDK/GD32VW55x_RELEASE_V1.0.2/MSDK/wpa_supplicant/src/ap\ap_list.c **** 	merge_byte_arrays(ap->supported_rates, WLAN_SUPP_RATES_MAX,
 400              		.loc 1 193 2 is_stmt 1
 401 0040 83477911 		lbu	a5,279(s2)
 402 0044 03274901 		lw	a4,20(s2)
 403 0048 83465911 		lbu	a3,277(s2)
 404 004c 03264900 		lw	a2,4(s2)
 405 0050 93050002 		li	a1,32
 406 0054 13052401 		addi	a0,s0,18
 407 0058 97000000 		call	merge_byte_arrays
 407      E7800000 
 408              	.LVL29:
 194:C:/Users/stapi/OneDrive/Desktop/GD32VW553/V1_MQTT_OK/GD32VW55X_Wifi_BLE_SDK/GD32VW55x_RELEASE_V1.0.2/MSDK/wpa_supplicant/src/ap\ap_list.c **** 			  elems->supp_rates, elems->supp_rates_len,
 195:C:/Users/stapi/OneDrive/Desktop/GD32VW553/V1_MQTT_OK/GD32VW55X_Wifi_BLE_SDK/GD32VW55x_RELEASE_V1.0.2/MSDK/wpa_supplicant/src/ap\ap_list.c **** 			  elems->ext_supp_rates, elems->ext_supp_rates_len);
 196:C:/Users/stapi/OneDrive/Desktop/GD32VW553/V1_MQTT_OK/GD32VW55X_Wifi_BLE_SDK/GD32VW55x_RELEASE_V1.0.2/MSDK/wpa_supplicant/src/ap\ap_list.c **** 
 197:C:/Users/stapi/OneDrive/Desktop/GD32VW553/V1_MQTT_OK/GD32VW55X_Wifi_BLE_SDK/GD32VW55x_RELEASE_V1.0.2/MSDK/wpa_supplicant/src/ap\ap_list.c **** 	if (elems->erp_info)
 409              		.loc 1 197 2
 410              		.loc 1 197 11 is_stmt 0
 411 0060 03270901 		lw	a4,16(s2)
 198:C:/Users/stapi/OneDrive/Desktop/GD32VW553/V1_MQTT_OK/GD32VW55X_Wifi_BLE_SDK/GD32VW55x_RELEASE_V1.0.2/MSDK/wpa_supplicant/src/ap\ap_list.c **** 		ap->erp = elems->erp_info[0];
 199:C:/Users/stapi/OneDrive/Desktop/GD32VW553/V1_MQTT_OK/GD32VW55X_Wifi_BLE_SDK/GD32VW55x_RELEASE_V1.0.2/MSDK/wpa_supplicant/src/ap\ap_list.c **** 	else
 200:C:/Users/stapi/OneDrive/Desktop/GD32VW553/V1_MQTT_OK/GD32VW55X_Wifi_BLE_SDK/GD32VW55x_RELEASE_V1.0.2/MSDK/wpa_supplicant/src/ap\ap_list.c **** 		ap->erp = -1;
 412              		.loc 1 200 11
 413 0064 FD57     		li	a5,-1
 197:C:/Users/stapi/OneDrive/Desktop/GD32VW553/V1_MQTT_OK/GD32VW55X_Wifi_BLE_SDK/GD32VW55x_RELEASE_V1.0.2/MSDK/wpa_supplicant/src/ap\ap_list.c **** 		ap->erp = elems->erp_info[0];
 414              		.loc 1 197 5
 415 0066 19C3     		beq	a4,zero,.L45
 198:C:/Users/stapi/OneDrive/Desktop/GD32VW553/V1_MQTT_OK/GD32VW55X_Wifi_BLE_SDK/GD32VW55x_RELEASE_V1.0.2/MSDK/wpa_supplicant/src/ap\ap_list.c **** 		ap->erp = elems->erp_info[0];
 416              		.loc 1 198 3 is_stmt 1
 198:C:/Users/stapi/OneDrive/Desktop/GD32VW553/V1_MQTT_OK/GD32VW55X_Wifi_BLE_SDK/GD32VW55x_RELEASE_V1.0.2/MSDK/wpa_supplicant/src/ap\ap_list.c **** 		ap->erp = elems->erp_info[0];
 417              		.loc 1 198 28 is_stmt 0
 418 0068 83470700 		lbu	a5,0(a4)
 419              	.L45:
 420 006c 5CD8     		sw	a5,52(s0)
 201:C:/Users/stapi/OneDrive/Desktop/GD32VW553/V1_MQTT_OK/GD32VW55X_Wifi_BLE_SDK/GD32VW55x_RELEASE_V1.0.2/MSDK/wpa_supplicant/src/ap\ap_list.c **** 
 202:C:/Users/stapi/OneDrive/Desktop/GD32VW553/V1_MQTT_OK/GD32VW55X_Wifi_BLE_SDK/GD32VW55x_RELEASE_V1.0.2/MSDK/wpa_supplicant/src/ap\ap_list.c **** 	if (elems->ds_params)
 421              		.loc 1 202 2 is_stmt 1
 422              		.loc 1 202 11 is_stmt 0
 423 006e 83278900 		lw	a5,8(s2)
 424              		.loc 1 202 5
 425 0072 63820718 		beq	a5,zero,.L46
 426              	.L81:
 203:C:/Users/stapi/OneDrive/Desktop/GD32VW553/V1_MQTT_OK/GD32VW55X_Wifi_BLE_SDK/GD32VW55x_RELEASE_V1.0.2/MSDK/wpa_supplicant/src/ap\ap_list.c **** 		ap->channel = elems->ds_params[0];
 204:C:/Users/stapi/OneDrive/Desktop/GD32VW553/V1_MQTT_OK/GD32VW55X_Wifi_BLE_SDK/GD32VW55x_RELEASE_V1.0.2/MSDK/wpa_supplicant/src/ap\ap_list.c **** 	else if (elems->ht_operation)
 205:C:/Users/stapi/OneDrive/Desktop/GD32VW553/V1_MQTT_OK/GD32VW55X_Wifi_BLE_SDK/GD32VW55x_RELEASE_V1.0.2/MSDK/wpa_supplicant/src/ap\ap_list.c **** 		ap->channel = elems->ht_operation[0];
 427              		.loc 1 205 3 is_stmt 1
 428              		.loc 1 205 36 is_stmt 0
 429 0076 83C70700 		lbu	a5,0(a5)
 430              	.L80:
 206:C:/Users/stapi/OneDrive/Desktop/GD32VW553/V1_MQTT_OK/GD32VW55X_Wifi_BLE_SDK/GD32VW55x_RELEASE_V1.0.2/MSDK/wpa_supplicant/src/ap\ap_list.c **** 	else if (fi)
 207:C:/Users/stapi/OneDrive/Desktop/GD32VW553/V1_MQTT_OK/GD32VW55X_Wifi_BLE_SDK/GD32VW55x_RELEASE_V1.0.2/MSDK/wpa_supplicant/src/ap\ap_list.c **** 		ap->channel = fi->channel;
 431              		.loc 1 207 15
 432 007a 1CDC     		sw	a5,56(s0)
 433              	.L47:
 208:C:/Users/stapi/OneDrive/Desktop/GD32VW553/V1_MQTT_OK/GD32VW55X_Wifi_BLE_SDK/GD32VW55x_RELEASE_V1.0.2/MSDK/wpa_supplicant/src/ap\ap_list.c **** 
 209:C:/Users/stapi/OneDrive/Desktop/GD32VW553/V1_MQTT_OK/GD32VW55X_Wifi_BLE_SDK/GD32VW55x_RELEASE_V1.0.2/MSDK/wpa_supplicant/src/ap\ap_list.c **** 	if (elems->ht_capabilities)
 434              		.loc 1 209 2 is_stmt 1
 435              		.loc 1 209 5 is_stmt 0
 436 007c 83270904 		lw	a5,64(s2)
 210:C:/Users/stapi/OneDrive/Desktop/GD32VW553/V1_MQTT_OK/GD32VW55X_Wifi_BLE_SDK/GD32VW55x_RELEASE_V1.0.2/MSDK/wpa_supplicant/src/ap\ap_list.c **** 		ap->ht_support = 1;
 211:C:/Users/stapi/OneDrive/Desktop/GD32VW553/V1_MQTT_OK/GD32VW55X_Wifi_BLE_SDK/GD32VW55x_RELEASE_V1.0.2/MSDK/wpa_supplicant/src/ap\ap_list.c **** 	else
 212:C:/Users/stapi/OneDrive/Desktop/GD32VW553/V1_MQTT_OK/GD32VW55X_Wifi_BLE_SDK/GD32VW55x_RELEASE_V1.0.2/MSDK/wpa_supplicant/src/ap\ap_list.c **** 		ap->ht_support = 0;
 213:C:/Users/stapi/OneDrive/Desktop/GD32VW553/V1_MQTT_OK/GD32VW55X_Wifi_BLE_SDK/GD32VW55x_RELEASE_V1.0.2/MSDK/wpa_supplicant/src/ap\ap_list.c **** 
 214:C:/Users/stapi/OneDrive/Desktop/GD32VW553/V1_MQTT_OK/GD32VW55X_Wifi_BLE_SDK/GD32VW55x_RELEASE_V1.0.2/MSDK/wpa_supplicant/src/ap\ap_list.c **** 	os_get_reltime(&ap->last_beacon);
 437              		.loc 1 214 2
 438 0080 13050404 		addi	a0,s0,64
 209:C:/Users/stapi/OneDrive/Desktop/GD32VW553/V1_MQTT_OK/GD32VW55X_Wifi_BLE_SDK/GD32VW55x_RELEASE_V1.0.2/MSDK/wpa_supplicant/src/ap\ap_list.c **** 		ap->ht_support = 1;
 439              		.loc 1 209 5
 440 0084 B337F000 		snez	a5,a5
 441 0088 5CDC     		sw	a5,60(s0)
 442              		.loc 1 214 2 is_stmt 1
 443 008a 97000000 		call	os_get_reltime
 443      E7800000 
 444              	.LVL30:
 215:C:/Users/stapi/OneDrive/Desktop/GD32VW553/V1_MQTT_OK/GD32VW55X_Wifi_BLE_SDK/GD32VW55x_RELEASE_V1.0.2/MSDK/wpa_supplicant/src/ap\ap_list.c **** 
 216:C:/Users/stapi/OneDrive/Desktop/GD32VW553/V1_MQTT_OK/GD32VW55X_Wifi_BLE_SDK/GD32VW55x_RELEASE_V1.0.2/MSDK/wpa_supplicant/src/ap\ap_list.c **** 	if (!new_ap && ap != iface->ap_list) {
 445              		.loc 1 216 2
 446              		.loc 1 216 5 is_stmt 0
 447 0092 63930902 		bne	s3,zero,.L49
 448              		.loc 1 216 14 discriminator 1
 449 0096 DC58     		lw	a5,52(s1)
 450 0098 63808702 		beq	a5,s0,.L49
 217:C:/Users/stapi/OneDrive/Desktop/GD32VW553/V1_MQTT_OK/GD32VW55X_Wifi_BLE_SDK/GD32VW55x_RELEASE_V1.0.2/MSDK/wpa_supplicant/src/ap\ap_list.c **** 		/* move AP entry into the beginning of the list so that the
 218:C:/Users/stapi/OneDrive/Desktop/GD32VW553/V1_MQTT_OK/GD32VW55X_Wifi_BLE_SDK/GD32VW55x_RELEASE_V1.0.2/MSDK/wpa_supplicant/src/ap\ap_list.c **** 		 * oldest entry is always in the end of the list */
 219:C:/Users/stapi/OneDrive/Desktop/GD32VW553/V1_MQTT_OK/GD32VW55X_Wifi_BLE_SDK/GD32VW55x_RELEASE_V1.0.2/MSDK/wpa_supplicant/src/ap\ap_list.c **** 		ap_ap_list_del(iface, ap);
 451              		.loc 1 219 3 is_stmt 1
 452 009c A285     		mv	a1,s0
 453 009e 2685     		mv	a0,s1
 454 00a0 97000000 		call	ap_ap_list_del
 454      E7800000 
 455              	.LVL31:
 220:C:/Users/stapi/OneDrive/Desktop/GD32VW553/V1_MQTT_OK/GD32VW55X_Wifi_BLE_SDK/GD32VW55x_RELEASE_V1.0.2/MSDK/wpa_supplicant/src/ap\ap_list.c **** 		ap_ap_list_add(iface, ap);
 456              		.loc 1 220 3
 457              	.LBB43:
 458              	.LBB44:
  67:C:/Users/stapi/OneDrive/Desktop/GD32VW553/V1_MQTT_OK/GD32VW55X_Wifi_BLE_SDK/GD32VW55x_RELEASE_V1.0.2/MSDK/wpa_supplicant/src/ap\ap_list.c **** 		ap->prev = iface->ap_list->prev;
 459              		.loc 1 67 2
  67:C:/Users/stapi/OneDrive/Desktop/GD32VW553/V1_MQTT_OK/GD32VW55X_Wifi_BLE_SDK/GD32VW55x_RELEASE_V1.0.2/MSDK/wpa_supplicant/src/ap\ap_list.c **** 		ap->prev = iface->ap_list->prev;
 460              		.loc 1 67 11 is_stmt 0
 461 00a8 DC58     		lw	a5,52(s1)
  67:C:/Users/stapi/OneDrive/Desktop/GD32VW553/V1_MQTT_OK/GD32VW55X_Wifi_BLE_SDK/GD32VW55x_RELEASE_V1.0.2/MSDK/wpa_supplicant/src/ap\ap_list.c **** 		ap->prev = iface->ap_list->prev;
 462              		.loc 1 67 5
 463 00aa 638F0714 		beq	a5,zero,.L50
  68:C:/Users/stapi/OneDrive/Desktop/GD32VW553/V1_MQTT_OK/GD32VW55X_Wifi_BLE_SDK/GD32VW55x_RELEASE_V1.0.2/MSDK/wpa_supplicant/src/ap\ap_list.c **** 		iface->ap_list->prev = ap;
 464              		.loc 1 68 3 is_stmt 1
  68:C:/Users/stapi/OneDrive/Desktop/GD32VW553/V1_MQTT_OK/GD32VW55X_Wifi_BLE_SDK/GD32VW55x_RELEASE_V1.0.2/MSDK/wpa_supplicant/src/ap\ap_list.c **** 		iface->ap_list->prev = ap;
 465              		.loc 1 68 28 is_stmt 0
 466 00ae D843     		lw	a4,4(a5)
  68:C:/Users/stapi/OneDrive/Desktop/GD32VW553/V1_MQTT_OK/GD32VW55X_Wifi_BLE_SDK/GD32VW55x_RELEASE_V1.0.2/MSDK/wpa_supplicant/src/ap\ap_list.c **** 		iface->ap_list->prev = ap;
 467              		.loc 1 68 12
 468 00b0 58C0     		sw	a4,4(s0)
  69:C:/Users/stapi/OneDrive/Desktop/GD32VW553/V1_MQTT_OK/GD32VW55X_Wifi_BLE_SDK/GD32VW55x_RELEASE_V1.0.2/MSDK/wpa_supplicant/src/ap\ap_list.c **** 	} else
 469              		.loc 1 69 3 is_stmt 1
  69:C:/Users/stapi/OneDrive/Desktop/GD32VW553/V1_MQTT_OK/GD32VW55X_Wifi_BLE_SDK/GD32VW55x_RELEASE_V1.0.2/MSDK/wpa_supplicant/src/ap\ap_list.c **** 	} else
 470              		.loc 1 69 24 is_stmt 0
 471 00b2 C0C3     		sw	s0,4(a5)
 472              	.L51:
  72:C:/Users/stapi/OneDrive/Desktop/GD32VW553/V1_MQTT_OK/GD32VW55X_Wifi_BLE_SDK/GD32VW55x_RELEASE_V1.0.2/MSDK/wpa_supplicant/src/ap\ap_list.c **** 	iface->ap_list = ap;
 473              		.loc 1 72 2 is_stmt 1
  72:C:/Users/stapi/OneDrive/Desktop/GD32VW553/V1_MQTT_OK/GD32VW55X_Wifi_BLE_SDK/GD32VW55x_RELEASE_V1.0.2/MSDK/wpa_supplicant/src/ap\ap_list.c **** 	iface->ap_list = ap;
 474              		.loc 1 72 11 is_stmt 0
 475 00b4 1CC0     		sw	a5,0(s0)
  73:C:/Users/stapi/OneDrive/Desktop/GD32VW553/V1_MQTT_OK/GD32VW55X_Wifi_BLE_SDK/GD32VW55x_RELEASE_V1.0.2/MSDK/wpa_supplicant/src/ap\ap_list.c **** }
 476              		.loc 1 73 2 is_stmt 1
  73:C:/Users/stapi/OneDrive/Desktop/GD32VW553/V1_MQTT_OK/GD32VW55X_Wifi_BLE_SDK/GD32VW55x_RELEASE_V1.0.2/MSDK/wpa_supplicant/src/ap\ap_list.c **** }
 477              		.loc 1 73 17 is_stmt 0
 478 00b6 C0D8     		sw	s0,52(s1)
 479              	.LVL32:
 480              	.L49:
 481              	.LBE44:
 482              	.LBE43:
 221:C:/Users/stapi/OneDrive/Desktop/GD32VW553/V1_MQTT_OK/GD32VW55X_Wifi_BLE_SDK/GD32VW55x_RELEASE_V1.0.2/MSDK/wpa_supplicant/src/ap\ap_list.c **** 	}
 222:C:/Users/stapi/OneDrive/Desktop/GD32VW553/V1_MQTT_OK/GD32VW55X_Wifi_BLE_SDK/GD32VW55x_RELEASE_V1.0.2/MSDK/wpa_supplicant/src/ap\ap_list.c **** 
 223:C:/Users/stapi/OneDrive/Desktop/GD32VW553/V1_MQTT_OK/GD32VW55X_Wifi_BLE_SDK/GD32VW55x_RELEASE_V1.0.2/MSDK/wpa_supplicant/src/ap\ap_list.c **** 	if (!iface->olbc &&
 483              		.loc 1 223 2 is_stmt 1
 484              		.loc 1 223 5 is_stmt 0
 485 00b8 83A78448 		lw	a5,1160(s1)
 177:C:/Users/stapi/OneDrive/Desktop/GD32VW553/V1_MQTT_OK/GD32VW55X_Wifi_BLE_SDK/GD32VW55x_RELEASE_V1.0.2/MSDK/wpa_supplicant/src/ap\ap_list.c **** 
 486              		.loc 1 177 6
 487 00bc 0145     		li	a0,0
 488              		.loc 1 223 5
 489 00be B9E3     		bne	a5,zero,.L52
 224:C:/Users/stapi/OneDrive/Desktop/GD32VW553/V1_MQTT_OK/GD32VW55X_Wifi_BLE_SDK/GD32VW55x_RELEASE_V1.0.2/MSDK/wpa_supplicant/src/ap\ap_list.c **** 	    ap_list_beacon_olbc(iface, ap)) {
 490              		.loc 1 224 6 discriminator 1
 491 00c0 A285     		mv	a1,s0
 492 00c2 2685     		mv	a0,s1
 493 00c4 97000000 		call	ap_list_beacon_olbc
 493      E7800000 
 494              	.LVL33:
 223:C:/Users/stapi/OneDrive/Desktop/GD32VW553/V1_MQTT_OK/GD32VW55X_Wifi_BLE_SDK/GD32VW55x_RELEASE_V1.0.2/MSDK/wpa_supplicant/src/ap\ap_list.c **** 	    ap_list_beacon_olbc(iface, ap)) {
 495              		.loc 1 223 19 discriminator 1
 496 00cc 05CD     		beq	a0,zero,.L52
 225:C:/Users/stapi/OneDrive/Desktop/GD32VW553/V1_MQTT_OK/GD32VW55X_Wifi_BLE_SDK/GD32VW55x_RELEASE_V1.0.2/MSDK/wpa_supplicant/src/ap\ap_list.c **** 		iface->olbc = 1;
 497              		.loc 1 225 3 is_stmt 1
 226:C:/Users/stapi/OneDrive/Desktop/GD32VW553/V1_MQTT_OK/GD32VW55X_Wifi_BLE_SDK/GD32VW55x_RELEASE_V1.0.2/MSDK/wpa_supplicant/src/ap\ap_list.c **** 		wpa_printf(MSG_DEBUG, "OLBC AP detected: " MACSTR
 498              		.loc 1 226 3 is_stmt 0
 499 00ce 0C5C     		lw	a1,56(s0)
 225:C:/Users/stapi/OneDrive/Desktop/GD32VW553/V1_MQTT_OK/GD32VW55X_Wifi_BLE_SDK/GD32VW55x_RELEASE_V1.0.2/MSDK/wpa_supplicant/src/ap\ap_list.c **** 		iface->olbc = 1;
 500              		.loc 1 225 15
 501 00d0 8547     		li	a5,1
 502 00d2 23A4F448 		sw	a5,1160(s1)
 503              		.loc 1 226 3 is_stmt 1
 504 00d6 83481401 		lbu	a7,17(s0)
 505 00da 03480401 		lbu	a6,16(s0)
 506 00de 8347F400 		lbu	a5,15(s0)
 507 00e2 0347E400 		lbu	a4,14(s0)
 508 00e6 8346D400 		lbu	a3,13(s0)
 509 00ea 0346C400 		lbu	a2,12(s0)
 510 00ee 2EC0     		sw	a1,0(sp)
 511 00f0 B7050000 		lui	a1,%hi(.LC3)
 512 00f4 0945     		li	a0,2
 513 00f6 93850500 		addi	a1,a1,%lo(.LC3)
 514 00fa 97000000 		call	wpa_printf
 514      E7800000 
 515              	.LVL34:
 227:C:/Users/stapi/OneDrive/Desktop/GD32VW553/V1_MQTT_OK/GD32VW55X_Wifi_BLE_SDK/GD32VW55x_RELEASE_V1.0.2/MSDK/wpa_supplicant/src/ap\ap_list.c **** 			   " (channel %d) - enable protection",
 228:C:/Users/stapi/OneDrive/Desktop/GD32VW553/V1_MQTT_OK/GD32VW55X_Wifi_BLE_SDK/GD32VW55x_RELEASE_V1.0.2/MSDK/wpa_supplicant/src/ap\ap_list.c **** 			   MAC2STR(ap->addr), ap->channel);
 229:C:/Users/stapi/OneDrive/Desktop/GD32VW553/V1_MQTT_OK/GD32VW55X_Wifi_BLE_SDK/GD32VW55x_RELEASE_V1.0.2/MSDK/wpa_supplicant/src/ap\ap_list.c **** 		set_beacon++;
 516              		.loc 1 229 3
 517              		.loc 1 229 13 is_stmt 0
 518 0102 0545     		li	a0,1
 519              	.LVL35:
 520              	.L52:
 230:C:/Users/stapi/OneDrive/Desktop/GD32VW553/V1_MQTT_OK/GD32VW55X_Wifi_BLE_SDK/GD32VW55x_RELEASE_V1.0.2/MSDK/wpa_supplicant/src/ap\ap_list.c **** 	}
 231:C:/Users/stapi/OneDrive/Desktop/GD32VW553/V1_MQTT_OK/GD32VW55X_Wifi_BLE_SDK/GD32VW55x_RELEASE_V1.0.2/MSDK/wpa_supplicant/src/ap\ap_list.c **** 
 232:C:/Users/stapi/OneDrive/Desktop/GD32VW553/V1_MQTT_OK/GD32VW55X_Wifi_BLE_SDK/GD32VW55x_RELEASE_V1.0.2/MSDK/wpa_supplicant/src/ap\ap_list.c **** 	if (!iface->olbc_ht && !ap->ht_support &&
 521              		.loc 1 232 2 is_stmt 1
 522              		.loc 1 232 5 is_stmt 0
 523 0104 83A7C449 		lw	a5,1180(s1)
 524 0108 63920710 		bne	a5,zero,.L53
 525              		.loc 1 232 22 discriminator 1
 526 010c 5C5C     		lw	a5,60(s0)
 527 010e FDEF     		bne	a5,zero,.L53
 233:C:/Users/stapi/OneDrive/Desktop/GD32VW553/V1_MQTT_OK/GD32VW55X_Wifi_BLE_SDK/GD32VW55x_RELEASE_V1.0.2/MSDK/wpa_supplicant/src/ap\ap_list.c **** 	    (ap->channel == 0 ||
 528              		.loc 1 233 9 discriminator 2
 529 0110 185C     		lw	a4,56(s0)
 232:C:/Users/stapi/OneDrive/Desktop/GD32VW553/V1_MQTT_OK/GD32VW55X_Wifi_BLE_SDK/GD32VW55x_RELEASE_V1.0.2/MSDK/wpa_supplicant/src/ap\ap_list.c **** 	    (ap->channel == 0 ||
 530              		.loc 1 232 41 discriminator 2
 531 0112 01CF     		beq	a4,zero,.L54
 234:C:/Users/stapi/OneDrive/Desktop/GD32VW553/V1_MQTT_OK/GD32VW55X_Wifi_BLE_SDK/GD32VW55x_RELEASE_V1.0.2/MSDK/wpa_supplicant/src/ap\ap_list.c **** 	     ap->channel == iface->conf->channel ||
 532              		.loc 1 234 27
 533 0114 DC44     		lw	a5,12(s1)
 534              		.loc 1 234 33
 535 0116 83C69701 		lbu	a3,25(a5)
 233:C:/Users/stapi/OneDrive/Desktop/GD32VW553/V1_MQTT_OK/GD32VW55X_Wifi_BLE_SDK/GD32VW55x_RELEASE_V1.0.2/MSDK/wpa_supplicant/src/ap\ap_list.c **** 	    (ap->channel == 0 ||
 536              		.loc 1 233 24
 537 011a 6308D700 		beq	a4,a3,.L54
 235:C:/Users/stapi/OneDrive/Desktop/GD32VW553/V1_MQTT_OK/GD32VW55X_Wifi_BLE_SDK/GD32VW55x_RELEASE_V1.0.2/MSDK/wpa_supplicant/src/ap\ap_list.c **** 	     ap->channel == iface->conf->channel +
 236:C:/Users/stapi/OneDrive/Desktop/GD32VW553/V1_MQTT_OK/GD32VW55X_Wifi_BLE_SDK/GD32VW55x_RELEASE_V1.0.2/MSDK/wpa_supplicant/src/ap\ap_list.c **** 	     iface->conf->secondary_channel * 4)) {
 538              		.loc 1 236 38
 539 011e 83A74712 		lw	a5,292(a5)
 235:C:/Users/stapi/OneDrive/Desktop/GD32VW553/V1_MQTT_OK/GD32VW55X_Wifi_BLE_SDK/GD32VW55x_RELEASE_V1.0.2/MSDK/wpa_supplicant/src/ap\ap_list.c **** 	     ap->channel == iface->conf->channel +
 540              		.loc 1 235 43
 541 0122 B3C7D720 		sh2add	a5,a5,a3
 234:C:/Users/stapi/OneDrive/Desktop/GD32VW553/V1_MQTT_OK/GD32VW55X_Wifi_BLE_SDK/GD32VW55x_RELEASE_V1.0.2/MSDK/wpa_supplicant/src/ap\ap_list.c **** 	     ap->channel == iface->conf->channel ||
 542              		.loc 1 234 43
 543 0126 6313F70E 		bne	a4,a5,.L53
 544              	.L54:
 237:C:/Users/stapi/OneDrive/Desktop/GD32VW553/V1_MQTT_OK/GD32VW55X_Wifi_BLE_SDK/GD32VW55x_RELEASE_V1.0.2/MSDK/wpa_supplicant/src/ap\ap_list.c **** 		iface->olbc_ht = 1;
 545              		.loc 1 237 3 is_stmt 1
 546              		.loc 1 237 18 is_stmt 0
 547 012a 8547     		li	a5,1
 548 012c 23AEF448 		sw	a5,1180(s1)
 238:C:/Users/stapi/OneDrive/Desktop/GD32VW553/V1_MQTT_OK/GD32VW55X_Wifi_BLE_SDK/GD32VW55x_RELEASE_V1.0.2/MSDK/wpa_supplicant/src/ap\ap_list.c **** 		hostapd_ht_operation_update(iface);
 549              		.loc 1 238 3 is_stmt 1
 550 0130 2685     		mv	a0,s1
 551 0132 97000000 		call	hostapd_ht_operation_update
 551      E7800000 
 552              	.LVL36:
 239:C:/Users/stapi/OneDrive/Desktop/GD32VW553/V1_MQTT_OK/GD32VW55X_Wifi_BLE_SDK/GD32VW55x_RELEASE_V1.0.2/MSDK/wpa_supplicant/src/ap\ap_list.c **** 		wpa_printf(MSG_DEBUG, "OLBC HT AP detected: " MACSTR
 553              		.loc 1 239 3
 554 013a 0C5C     		lw	a1,56(s0)
 555 013c 83481401 		lbu	a7,17(s0)
 556 0140 03480401 		lbu	a6,16(s0)
 557 0144 8347F400 		lbu	a5,15(s0)
 558 0148 0347E400 		lbu	a4,14(s0)
 559 014c 8346D400 		lbu	a3,13(s0)
 560 0150 0346C400 		lbu	a2,12(s0)
 561 0154 2EC0     		sw	a1,0(sp)
 562 0156 B7050000 		lui	a1,%hi(.LC4)
 563 015a 93850500 		addi	a1,a1,%lo(.LC4)
 564 015e 0945     		li	a0,2
 565 0160 97000000 		call	wpa_printf
 565      E7800000 
 566              	.LVL37:
 240:C:/Users/stapi/OneDrive/Desktop/GD32VW553/V1_MQTT_OK/GD32VW55X_Wifi_BLE_SDK/GD32VW55x_RELEASE_V1.0.2/MSDK/wpa_supplicant/src/ap\ap_list.c **** 			   " (channel %d) - enable protection",
 241:C:/Users/stapi/OneDrive/Desktop/GD32VW553/V1_MQTT_OK/GD32VW55X_Wifi_BLE_SDK/GD32VW55x_RELEASE_V1.0.2/MSDK/wpa_supplicant/src/ap\ap_list.c **** 			   MAC2STR(ap->addr), ap->channel);
 242:C:/Users/stapi/OneDrive/Desktop/GD32VW553/V1_MQTT_OK/GD32VW55X_Wifi_BLE_SDK/GD32VW55x_RELEASE_V1.0.2/MSDK/wpa_supplicant/src/ap\ap_list.c **** 		set_beacon++;
 567              		.loc 1 242 3
 243:C:/Users/stapi/OneDrive/Desktop/GD32VW553/V1_MQTT_OK/GD32VW55X_Wifi_BLE_SDK/GD32VW55x_RELEASE_V1.0.2/MSDK/wpa_supplicant/src/ap\ap_list.c **** 	}
 244:C:/Users/stapi/OneDrive/Desktop/GD32VW553/V1_MQTT_OK/GD32VW55X_Wifi_BLE_SDK/GD32VW55x_RELEASE_V1.0.2/MSDK/wpa_supplicant/src/ap\ap_list.c **** 
 245:C:/Users/stapi/OneDrive/Desktop/GD32VW553/V1_MQTT_OK/GD32VW55X_Wifi_BLE_SDK/GD32VW55x_RELEASE_V1.0.2/MSDK/wpa_supplicant/src/ap\ap_list.c **** 	if (set_beacon)
 568              		.loc 1 245 2
 569              	.L55:
 246:C:/Users/stapi/OneDrive/Desktop/GD32VW553/V1_MQTT_OK/GD32VW55X_Wifi_BLE_SDK/GD32VW55x_RELEASE_V1.0.2/MSDK/wpa_supplicant/src/ap\ap_list.c **** 		ieee802_11_update_beacons(iface);
 570              		.loc 1 246 3
 571 0168 2685     		mv	a0,s1
 572 016a 97000000 		call	ieee802_11_update_beacons
 572      E7800000 
 573              	.LVL38:
 574 0172 C1A0     		j	.L36
 575              	.LVL39:
 576              	.L41:
 577              	.LBB46:
 578              	.LBB39:
  60:C:/Users/stapi/OneDrive/Desktop/GD32VW553/V1_MQTT_OK/GD32VW55X_Wifi_BLE_SDK/GD32VW55x_RELEASE_V1.0.2/MSDK/wpa_supplicant/src/ap\ap_list.c **** 	return s;
 579              		.loc 1 60 3
  60:C:/Users/stapi/OneDrive/Desktop/GD32VW553/V1_MQTT_OK/GD32VW55X_Wifi_BLE_SDK/GD32VW55x_RELEASE_V1.0.2/MSDK/wpa_supplicant/src/ap\ap_list.c **** 	return s;
 580              		.loc 1 60 5 is_stmt 0
 581 0174 0044     		lw	s0,8(s0)
 582              	.LVL40:
 583 0176 45BD     		j	.L39
 584              	.LVL41:
 585              	.L75:
 586              	.LBE39:
 587              	.LBE46:
 588              	.LBB47:
 589              	.LBB48:
 155:C:/Users/stapi/OneDrive/Desktop/GD32VW553/V1_MQTT_OK/GD32VW55X_Wifi_BLE_SDK/GD32VW55x_RELEASE_V1.0.2/MSDK/wpa_supplicant/src/ap\ap_list.c **** 	ap_ap_list_add(iface, ap);
 590              		.loc 1 155 2 is_stmt 1
 591 0178 1946     		li	a2,6
 592 017a D685     		mv	a1,s5
 593 017c 1305C400 		addi	a0,s0,12
 594 0180 97000000 		call	os_memcpy
 594      E7800000 
 595              	.LVL42:
 156:C:/Users/stapi/OneDrive/Desktop/GD32VW553/V1_MQTT_OK/GD32VW55X_Wifi_BLE_SDK/GD32VW55x_RELEASE_V1.0.2/MSDK/wpa_supplicant/src/ap\ap_list.c **** 	iface->num_ap++;
 596              		.loc 1 156 2
 597              	.LBB49:
 598              	.LBB50:
  67:C:/Users/stapi/OneDrive/Desktop/GD32VW553/V1_MQTT_OK/GD32VW55X_Wifi_BLE_SDK/GD32VW55x_RELEASE_V1.0.2/MSDK/wpa_supplicant/src/ap\ap_list.c **** 		ap->prev = iface->ap_list->prev;
 599              		.loc 1 67 2
  67:C:/Users/stapi/OneDrive/Desktop/GD32VW553/V1_MQTT_OK/GD32VW55X_Wifi_BLE_SDK/GD32VW55x_RELEASE_V1.0.2/MSDK/wpa_supplicant/src/ap\ap_list.c **** 		ap->prev = iface->ap_list->prev;
 600              		.loc 1 67 11 is_stmt 0
 601 0188 DC58     		lw	a5,52(s1)
  67:C:/Users/stapi/OneDrive/Desktop/GD32VW553/V1_MQTT_OK/GD32VW55X_Wifi_BLE_SDK/GD32VW55x_RELEASE_V1.0.2/MSDK/wpa_supplicant/src/ap\ap_list.c **** 		ap->prev = iface->ap_list->prev;
 602              		.loc 1 67 5
 603 018a A5C7     		beq	a5,zero,.L43
  68:C:/Users/stapi/OneDrive/Desktop/GD32VW553/V1_MQTT_OK/GD32VW55X_Wifi_BLE_SDK/GD32VW55x_RELEASE_V1.0.2/MSDK/wpa_supplicant/src/ap\ap_list.c **** 		iface->ap_list->prev = ap;
 604              		.loc 1 68 3 is_stmt 1
  68:C:/Users/stapi/OneDrive/Desktop/GD32VW553/V1_MQTT_OK/GD32VW55X_Wifi_BLE_SDK/GD32VW55x_RELEASE_V1.0.2/MSDK/wpa_supplicant/src/ap\ap_list.c **** 		iface->ap_list->prev = ap;
 605              		.loc 1 68 28 is_stmt 0
 606 018c D843     		lw	a4,4(a5)
  68:C:/Users/stapi/OneDrive/Desktop/GD32VW553/V1_MQTT_OK/GD32VW55X_Wifi_BLE_SDK/GD32VW55x_RELEASE_V1.0.2/MSDK/wpa_supplicant/src/ap\ap_list.c **** 		iface->ap_list->prev = ap;
 607              		.loc 1 68 12
 608 018e 58C0     		sw	a4,4(s0)
  69:C:/Users/stapi/OneDrive/Desktop/GD32VW553/V1_MQTT_OK/GD32VW55X_Wifi_BLE_SDK/GD32VW55x_RELEASE_V1.0.2/MSDK/wpa_supplicant/src/ap\ap_list.c **** 	} else
 609              		.loc 1 69 3 is_stmt 1
  69:C:/Users/stapi/OneDrive/Desktop/GD32VW553/V1_MQTT_OK/GD32VW55X_Wifi_BLE_SDK/GD32VW55x_RELEASE_V1.0.2/MSDK/wpa_supplicant/src/ap\ap_list.c **** 	} else
 610              		.loc 1 69 24 is_stmt 0
 611 0190 C0C3     		sw	s0,4(a5)
 612              	.L44:
  72:C:/Users/stapi/OneDrive/Desktop/GD32VW553/V1_MQTT_OK/GD32VW55X_Wifi_BLE_SDK/GD32VW55x_RELEASE_V1.0.2/MSDK/wpa_supplicant/src/ap\ap_list.c **** 	iface->ap_list = ap;
 613              		.loc 1 72 2 is_stmt 1
  72:C:/Users/stapi/OneDrive/Desktop/GD32VW553/V1_MQTT_OK/GD32VW55X_Wifi_BLE_SDK/GD32VW55x_RELEASE_V1.0.2/MSDK/wpa_supplicant/src/ap\ap_list.c **** 	iface->ap_list = ap;
 614              		.loc 1 72 11 is_stmt 0
 615 0192 1CC0     		sw	a5,0(s0)
  73:C:/Users/stapi/OneDrive/Desktop/GD32VW553/V1_MQTT_OK/GD32VW55X_Wifi_BLE_SDK/GD32VW55x_RELEASE_V1.0.2/MSDK/wpa_supplicant/src/ap\ap_list.c **** }
 616              		.loc 1 73 2 is_stmt 1
 617              	.LBE50:
 618              	.LBE49:
 157:C:/Users/stapi/OneDrive/Desktop/GD32VW553/V1_MQTT_OK/GD32VW55X_Wifi_BLE_SDK/GD32VW55x_RELEASE_V1.0.2/MSDK/wpa_supplicant/src/ap\ap_list.c **** 	ap_ap_hash_add(iface, ap);
 619              		.loc 1 157 15 is_stmt 0
 620 0194 9C58     		lw	a5,48(s1)
 621              	.LBB53:
 622              	.LBB51:
  73:C:/Users/stapi/OneDrive/Desktop/GD32VW553/V1_MQTT_OK/GD32VW55X_Wifi_BLE_SDK/GD32VW55x_RELEASE_V1.0.2/MSDK/wpa_supplicant/src/ap\ap_list.c **** }
 623              		.loc 1 73 17
 624 0196 C0D8     		sw	s0,52(s1)
 625              	.LVL43:
 626              	.LBE51:
 627              	.LBE53:
 157:C:/Users/stapi/OneDrive/Desktop/GD32VW553/V1_MQTT_OK/GD32VW55X_Wifi_BLE_SDK/GD32VW55x_RELEASE_V1.0.2/MSDK/wpa_supplicant/src/ap\ap_list.c **** 	ap_ap_hash_add(iface, ap);
 628              		.loc 1 157 2 is_stmt 1
 629              	.LBE48:
 630              	.LBE47:
 190:C:/Users/stapi/OneDrive/Desktop/GD32VW553/V1_MQTT_OK/GD32VW55X_Wifi_BLE_SDK/GD32VW55x_RELEASE_V1.0.2/MSDK/wpa_supplicant/src/ap\ap_list.c **** 	}
 631              		.loc 1 190 10 is_stmt 0
 632 0198 8549     		li	s3,1
 633              	.LBB59:
 634              	.LBB57:
 157:C:/Users/stapi/OneDrive/Desktop/GD32VW553/V1_MQTT_OK/GD32VW55X_Wifi_BLE_SDK/GD32VW55x_RELEASE_V1.0.2/MSDK/wpa_supplicant/src/ap\ap_list.c **** 	ap_ap_hash_add(iface, ap);
 635              		.loc 1 157 15
 636 019a 8507     		addi	a5,a5,1
 637 019c 9CD8     		sw	a5,48(s1)
 158:C:/Users/stapi/OneDrive/Desktop/GD32VW553/V1_MQTT_OK/GD32VW55X_Wifi_BLE_SDK/GD32VW55x_RELEASE_V1.0.2/MSDK/wpa_supplicant/src/ap\ap_list.c **** 
 638              		.loc 1 158 2 is_stmt 1
 639              	.LVL44:
 640              	.LBB54:
 641              	.LBB55:
  93:C:/Users/stapi/OneDrive/Desktop/GD32VW553/V1_MQTT_OK/GD32VW55X_Wifi_BLE_SDK/GD32VW55x_RELEASE_V1.0.2/MSDK/wpa_supplicant/src/ap\ap_list.c **** 	iface->ap_hash[STA_HASH(ap->addr)] = ap;
 642              		.loc 1 93 2
 643 019e 03471401 		lbu	a4,17(s0)
 644 01a2 33479720 		sh2add	a4,a4,s1
  93:C:/Users/stapi/OneDrive/Desktop/GD32VW553/V1_MQTT_OK/GD32VW55X_Wifi_BLE_SDK/GD32VW55x_RELEASE_V1.0.2/MSDK/wpa_supplicant/src/ap\ap_list.c **** 	iface->ap_hash[STA_HASH(ap->addr)] = ap;
 645              		.loc 1 93 12 is_stmt 0
 646 01a6 145F     		lw	a3,56(a4)
 647 01a8 14C4     		sw	a3,8(s0)
  94:C:/Users/stapi/OneDrive/Desktop/GD32VW553/V1_MQTT_OK/GD32VW55X_Wifi_BLE_SDK/GD32VW55x_RELEASE_V1.0.2/MSDK/wpa_supplicant/src/ap\ap_list.c **** }
 648              		.loc 1 94 2 is_stmt 1
  94:C:/Users/stapi/OneDrive/Desktop/GD32VW553/V1_MQTT_OK/GD32VW55X_Wifi_BLE_SDK/GD32VW55x_RELEASE_V1.0.2/MSDK/wpa_supplicant/src/ap\ap_list.c **** }
 649              		.loc 1 94 37 is_stmt 0
 650 01aa 00DF     		sw	s0,56(a4)
 651              	.LVL45:
 652              	.LBE55:
 653              	.LBE54:
 160:C:/Users/stapi/OneDrive/Desktop/GD32VW553/V1_MQTT_OK/GD32VW55X_Wifi_BLE_SDK/GD32VW55x_RELEASE_V1.0.2/MSDK/wpa_supplicant/src/ap\ap_list.c **** 		wpa_printf(MSG_DEBUG, "Removing the least recently used AP "
 654              		.loc 1 160 2 is_stmt 1
 160:C:/Users/stapi/OneDrive/Desktop/GD32VW553/V1_MQTT_OK/GD32VW55X_Wifi_BLE_SDK/GD32VW55x_RELEASE_V1.0.2/MSDK/wpa_supplicant/src/ap\ap_list.c **** 		wpa_printf(MSG_DEBUG, "Removing the least recently used AP "
 655              		.loc 1 160 33 is_stmt 0
 656 01ac D844     		lw	a4,12(s1)
 160:C:/Users/stapi/OneDrive/Desktop/GD32VW553/V1_MQTT_OK/GD32VW55X_Wifi_BLE_SDK/GD32VW55x_RELEASE_V1.0.2/MSDK/wpa_supplicant/src/ap\ap_list.c **** 		wpa_printf(MSG_DEBUG, "Removing the least recently used AP "
 657              		.loc 1 160 5
 658 01ae 7853     		lw	a4,100(a4)
 659 01b0 E358F7E8 		ble	a5,a4,.L42
 160:C:/Users/stapi/OneDrive/Desktop/GD32VW553/V1_MQTT_OK/GD32VW55X_Wifi_BLE_SDK/GD32VW55x_RELEASE_V1.0.2/MSDK/wpa_supplicant/src/ap\ap_list.c **** 		wpa_printf(MSG_DEBUG, "Removing the least recently used AP "
 660              		.loc 1 160 64
 661 01b4 5040     		lw	a2,4(s0)
 160:C:/Users/stapi/OneDrive/Desktop/GD32VW553/V1_MQTT_OK/GD32VW55X_Wifi_BLE_SDK/GD32VW55x_RELEASE_V1.0.2/MSDK/wpa_supplicant/src/ap\ap_list.c **** 		wpa_printf(MSG_DEBUG, "Removing the least recently used AP "
 662              		.loc 1 160 53
 663 01b6 E305C4E8 		beq	s0,a2,.L42
 161:C:/Users/stapi/OneDrive/Desktop/GD32VW553/V1_MQTT_OK/GD32VW55X_Wifi_BLE_SDK/GD32VW55x_RELEASE_V1.0.2/MSDK/wpa_supplicant/src/ap\ap_list.c **** 			   MACSTR " from AP table", MAC2STR(ap->prev->addr));
 664              		.loc 1 161 3 is_stmt 1
 665 01ba 83481601 		lbu	a7,17(a2)
 666 01be 03480601 		lbu	a6,16(a2)
 667 01c2 8347F600 		lbu	a5,15(a2)
 668 01c6 0347E600 		lbu	a4,14(a2)
 669 01ca 8346D600 		lbu	a3,13(a2)
 670 01ce 0346C600 		lbu	a2,12(a2)
 671 01d2 B7050000 		lui	a1,%hi(.LC2)
 672 01d6 93850500 		addi	a1,a1,%lo(.LC2)
 673 01da 0945     		li	a0,2
 674 01dc 97000000 		call	wpa_printf
 674      E7800000 
 675              	.LVL46:
 163:C:/Users/stapi/OneDrive/Desktop/GD32VW553/V1_MQTT_OK/GD32VW55X_Wifi_BLE_SDK/GD32VW55x_RELEASE_V1.0.2/MSDK/wpa_supplicant/src/ap\ap_list.c **** 	}
 676              		.loc 1 163 3
 677 01e4 4C40     		lw	a1,4(s0)
 678 01e6 2685     		mv	a0,s1
 679 01e8 97000000 		call	ap_free_ap
 679      E7800000 
 680              	.LVL47:
 681 01f0 81BD     		j	.L42
 682              	.LVL48:
 683              	.L43:
 684              	.LBB56:
 685              	.LBB52:
  71:C:/Users/stapi/OneDrive/Desktop/GD32VW553/V1_MQTT_OK/GD32VW55X_Wifi_BLE_SDK/GD32VW55x_RELEASE_V1.0.2/MSDK/wpa_supplicant/src/ap\ap_list.c **** 	ap->next = iface->ap_list;
 686              		.loc 1 71 3
  71:C:/Users/stapi/OneDrive/Desktop/GD32VW553/V1_MQTT_OK/GD32VW55X_Wifi_BLE_SDK/GD32VW55x_RELEASE_V1.0.2/MSDK/wpa_supplicant/src/ap\ap_list.c **** 	ap->next = iface->ap_list;
 687              		.loc 1 71 12 is_stmt 0
 688 01f2 40C0     		sw	s0,4(s0)
 689 01f4 79BF     		j	.L44
 690              	.LVL49:
 691              	.L46:
 692              	.LBE52:
 693              	.LBE56:
 694              	.LBE57:
 695              	.LBE59:
 204:C:/Users/stapi/OneDrive/Desktop/GD32VW553/V1_MQTT_OK/GD32VW55X_Wifi_BLE_SDK/GD32VW55x_RELEASE_V1.0.2/MSDK/wpa_supplicant/src/ap\ap_list.c **** 		ap->channel = elems->ht_operation[0];
 696              		.loc 1 204 7 is_stmt 1
 204:C:/Users/stapi/OneDrive/Desktop/GD32VW553/V1_MQTT_OK/GD32VW55X_Wifi_BLE_SDK/GD32VW55x_RELEASE_V1.0.2/MSDK/wpa_supplicant/src/ap\ap_list.c **** 		ap->channel = elems->ht_operation[0];
 697              		.loc 1 204 16 is_stmt 0
 698 01f6 83274904 		lw	a5,68(s2)
 204:C:/Users/stapi/OneDrive/Desktop/GD32VW553/V1_MQTT_OK/GD32VW55X_Wifi_BLE_SDK/GD32VW55x_RELEASE_V1.0.2/MSDK/wpa_supplicant/src/ap\ap_list.c **** 		ap->channel = elems->ht_operation[0];
 699              		.loc 1 204 10
 700 01fa E39E07E6 		bne	a5,zero,.L81
 206:C:/Users/stapi/OneDrive/Desktop/GD32VW553/V1_MQTT_OK/GD32VW55X_Wifi_BLE_SDK/GD32VW55x_RELEASE_V1.0.2/MSDK/wpa_supplicant/src/ap\ap_list.c **** 		ap->channel = fi->channel;
 701              		.loc 1 206 7 is_stmt 1
 206:C:/Users/stapi/OneDrive/Desktop/GD32VW553/V1_MQTT_OK/GD32VW55X_Wifi_BLE_SDK/GD32VW55x_RELEASE_V1.0.2/MSDK/wpa_supplicant/src/ap\ap_list.c **** 		ap->channel = fi->channel;
 702              		.loc 1 206 10 is_stmt 0
 703 01fe E30F0AE6 		beq	s4,zero,.L47
 207:C:/Users/stapi/OneDrive/Desktop/GD32VW553/V1_MQTT_OK/GD32VW55X_Wifi_BLE_SDK/GD32VW55x_RELEASE_V1.0.2/MSDK/wpa_supplicant/src/ap\ap_list.c **** 
 704              		.loc 1 207 3 is_stmt 1
 207:C:/Users/stapi/OneDrive/Desktop/GD32VW553/V1_MQTT_OK/GD32VW55X_Wifi_BLE_SDK/GD32VW55x_RELEASE_V1.0.2/MSDK/wpa_supplicant/src/ap\ap_list.c **** 
 705              		.loc 1 207 15 is_stmt 0
 706 0202 83274A00 		lw	a5,4(s4)
 707 0206 95BD     		j	.L80
 708              	.LVL50:
 709              	.L50:
 710              	.LBB60:
 711              	.LBB45:
  71:C:/Users/stapi/OneDrive/Desktop/GD32VW553/V1_MQTT_OK/GD32VW55X_Wifi_BLE_SDK/GD32VW55x_RELEASE_V1.0.2/MSDK/wpa_supplicant/src/ap\ap_list.c **** 	ap->next = iface->ap_list;
 712              		.loc 1 71 3 is_stmt 1
  71:C:/Users/stapi/OneDrive/Desktop/GD32VW553/V1_MQTT_OK/GD32VW55X_Wifi_BLE_SDK/GD32VW55x_RELEASE_V1.0.2/MSDK/wpa_supplicant/src/ap\ap_list.c **** 	ap->next = iface->ap_list;
 713              		.loc 1 71 12 is_stmt 0
 714 0208 40C0     		sw	s0,4(s0)
 715 020a 6DB5     		j	.L51
 716              	.LVL51:
 717              	.L53:
 718              	.LBE45:
 719              	.LBE60:
 245:C:/Users/stapi/OneDrive/Desktop/GD32VW553/V1_MQTT_OK/GD32VW55X_Wifi_BLE_SDK/GD32VW55x_RELEASE_V1.0.2/MSDK/wpa_supplicant/src/ap\ap_list.c **** 		ieee802_11_update_beacons(iface);
 720              		.loc 1 245 2 is_stmt 1
 245:C:/Users/stapi/OneDrive/Desktop/GD32VW553/V1_MQTT_OK/GD32VW55X_Wifi_BLE_SDK/GD32VW55x_RELEASE_V1.0.2/MSDK/wpa_supplicant/src/ap\ap_list.c **** 		ieee802_11_update_beacons(iface);
 721              		.loc 1 245 5 is_stmt 0
 722 020c 1DC1     		beq	a0,zero,.L36
 723 020e A9BF     		j	.L55
 724              	.LVL52:
 725              	.L40:
 726              	.LBB61:
 727              	.LBB40:
  61:C:/Users/stapi/OneDrive/Desktop/GD32VW553/V1_MQTT_OK/GD32VW55X_Wifi_BLE_SDK/GD32VW55x_RELEASE_V1.0.2/MSDK/wpa_supplicant/src/ap\ap_list.c **** }
 728              		.loc 1 61 2 is_stmt 1
 729              	.LBE40:
 730              	.LBE61:
 183:C:/Users/stapi/OneDrive/Desktop/GD32VW553/V1_MQTT_OK/GD32VW55X_Wifi_BLE_SDK/GD32VW55x_RELEASE_V1.0.2/MSDK/wpa_supplicant/src/ap\ap_list.c **** 		ap = ap_ap_add(iface, mgmt->bssid);
 731              		.loc 1 183 2
 184:C:/Users/stapi/OneDrive/Desktop/GD32VW553/V1_MQTT_OK/GD32VW55X_Wifi_BLE_SDK/GD32VW55x_RELEASE_V1.0.2/MSDK/wpa_supplicant/src/ap\ap_list.c **** 		if (!ap) {
 732              		.loc 1 184 3
 733              	.LBB62:
 734              	.LBB58:
 148:C:/Users/stapi/OneDrive/Desktop/GD32VW553/V1_MQTT_OK/GD32VW55X_Wifi_BLE_SDK/GD32VW55x_RELEASE_V1.0.2/MSDK/wpa_supplicant/src/ap\ap_list.c **** 
 735              		.loc 1 148 2
 150:C:/Users/stapi/OneDrive/Desktop/GD32VW553/V1_MQTT_OK/GD32VW55X_Wifi_BLE_SDK/GD32VW55x_RELEASE_V1.0.2/MSDK/wpa_supplicant/src/ap\ap_list.c **** 	if (ap == NULL)
 736              		.loc 1 150 2
 150:C:/Users/stapi/OneDrive/Desktop/GD32VW553/V1_MQTT_OK/GD32VW55X_Wifi_BLE_SDK/GD32VW55x_RELEASE_V1.0.2/MSDK/wpa_supplicant/src/ap\ap_list.c **** 	if (ap == NULL)
 737              		.loc 1 150 7 is_stmt 0
 738 0210 13058004 		li	a0,72
 739 0214 97000000 		call	os_zalloc
 739      E7800000 
 740              	.LVL53:
 741 021c 2A84     		mv	s0,a0
 742              	.LVL54:
 151:C:/Users/stapi/OneDrive/Desktop/GD32VW553/V1_MQTT_OK/GD32VW55X_Wifi_BLE_SDK/GD32VW55x_RELEASE_V1.0.2/MSDK/wpa_supplicant/src/ap\ap_list.c **** 		return NULL;
 743              		.loc 1 151 2 is_stmt 1
 151:C:/Users/stapi/OneDrive/Desktop/GD32VW553/V1_MQTT_OK/GD32VW55X_Wifi_BLE_SDK/GD32VW55x_RELEASE_V1.0.2/MSDK/wpa_supplicant/src/ap\ap_list.c **** 		return NULL;
 744              		.loc 1 151 5 is_stmt 0
 745 021e 29FD     		bne	a0,zero,.L75
 746              	.LVL55:
 747              	.LBE58:
 748              	.LBE62:
 185:C:/Users/stapi/OneDrive/Desktop/GD32VW553/V1_MQTT_OK/GD32VW55X_Wifi_BLE_SDK/GD32VW55x_RELEASE_V1.0.2/MSDK/wpa_supplicant/src/ap\ap_list.c **** 			wpa_printf(MSG_INFO,
 749              		.loc 1 185 3 is_stmt 1
 186:C:/Users/stapi/OneDrive/Desktop/GD32VW553/V1_MQTT_OK/GD32VW55X_Wifi_BLE_SDK/GD32VW55x_RELEASE_V1.0.2/MSDK/wpa_supplicant/src/ap\ap_list.c **** 				   "Failed to allocate AP information entry");
 750              		.loc 1 186 4
 751 0220 B7050000 		lui	a1,%hi(.LC1)
 752 0224 93850500 		addi	a1,a1,%lo(.LC1)
 753 0228 0D45     		li	a0,3
 754 022a 97000000 		call	wpa_printf
 754      E7800000 
 755              	.LVL56:
 188:C:/Users/stapi/OneDrive/Desktop/GD32VW553/V1_MQTT_OK/GD32VW55X_Wifi_BLE_SDK/GD32VW55x_RELEASE_V1.0.2/MSDK/wpa_supplicant/src/ap\ap_list.c **** 		}
 756              		.loc 1 188 4
 757              	.L36:
 247:C:/Users/stapi/OneDrive/Desktop/GD32VW553/V1_MQTT_OK/GD32VW55X_Wifi_BLE_SDK/GD32VW55x_RELEASE_V1.0.2/MSDK/wpa_supplicant/src/ap\ap_list.c **** }
 758              		.loc 1 247 1 is_stmt 0
 759 0232 4101     		addi	sp,sp,16
 760              		.cfi_def_cfa_offset 0
 761 0234 17030000 		tail	__riscv_restore_6
 761      67000300 
 762              		.cfi_restore 21
 763              		.cfi_restore 20
 764              		.cfi_restore 19
 765              		.cfi_restore 18
 766              		.cfi_restore 9
 767              		.cfi_restore 8
 768              		.cfi_restore 1
 769              		.cfi_def_cfa_offset -32
 770              	.LVL57:
 771              	.L77:
 772              		.cfi_def_cfa_offset 0
 773 023c 8280     		ret
 774              		.cfi_endproc
 775              	.LFE148:
 777              		.section	.rodata.ap_list_timer.str1.4,"aMS",@progbits,1
 778              		.align	2
 779              	.LC5:
 780 0000 4F4C4243 		.string	"OLBC not detected anymore"
 780      206E6F74 
 780      20646574 
 780      65637465 
 780      6420616E 
 781 001a 0000     		.align	2
 782              	.LC6:
 783 001c 4F4C4243 		.string	"OLBC HT not detected anymore"
 783      20485420 
 783      6E6F7420 
 783      64657465 
 783      63746564 
 784              		.section	.text.ap_list_timer,"ax",@progbits
 785              		.align	1
 786              		.globl	ap_list_timer
 788              	ap_list_timer:
 789              	.LFB149:
 248:C:/Users/stapi/OneDrive/Desktop/GD32VW553/V1_MQTT_OK/GD32VW55X_Wifi_BLE_SDK/GD32VW55x_RELEASE_V1.0.2/MSDK/wpa_supplicant/src/ap\ap_list.c **** 
 249:C:/Users/stapi/OneDrive/Desktop/GD32VW553/V1_MQTT_OK/GD32VW55X_Wifi_BLE_SDK/GD32VW55x_RELEASE_V1.0.2/MSDK/wpa_supplicant/src/ap\ap_list.c **** 
 250:C:/Users/stapi/OneDrive/Desktop/GD32VW553/V1_MQTT_OK/GD32VW55X_Wifi_BLE_SDK/GD32VW55x_RELEASE_V1.0.2/MSDK/wpa_supplicant/src/ap\ap_list.c **** void ap_list_timer(struct hostapd_iface *iface)
 251:C:/Users/stapi/OneDrive/Desktop/GD32VW553/V1_MQTT_OK/GD32VW55X_Wifi_BLE_SDK/GD32VW55x_RELEASE_V1.0.2/MSDK/wpa_supplicant/src/ap\ap_list.c **** {
 790              		.loc 1 251 1 is_stmt 1
 791              		.cfi_startproc
 792              	.LVL58:
 252:C:/Users/stapi/OneDrive/Desktop/GD32VW553/V1_MQTT_OK/GD32VW55X_Wifi_BLE_SDK/GD32VW55x_RELEASE_V1.0.2/MSDK/wpa_supplicant/src/ap\ap_list.c **** 	struct os_reltime now;
 793              		.loc 1 252 2
 253:C:/Users/stapi/OneDrive/Desktop/GD32VW553/V1_MQTT_OK/GD32VW55X_Wifi_BLE_SDK/GD32VW55x_RELEASE_V1.0.2/MSDK/wpa_supplicant/src/ap\ap_list.c **** 	struct ap_info *ap;
 794              		.loc 1 253 2
 254:C:/Users/stapi/OneDrive/Desktop/GD32VW553/V1_MQTT_OK/GD32VW55X_Wifi_BLE_SDK/GD32VW55x_RELEASE_V1.0.2/MSDK/wpa_supplicant/src/ap\ap_list.c **** 	int set_beacon = 0;
 795              		.loc 1 254 2
 255:C:/Users/stapi/OneDrive/Desktop/GD32VW553/V1_MQTT_OK/GD32VW55X_Wifi_BLE_SDK/GD32VW55x_RELEASE_V1.0.2/MSDK/wpa_supplicant/src/ap\ap_list.c **** 
 256:C:/Users/stapi/OneDrive/Desktop/GD32VW553/V1_MQTT_OK/GD32VW55X_Wifi_BLE_SDK/GD32VW55x_RELEASE_V1.0.2/MSDK/wpa_supplicant/src/ap\ap_list.c **** 	if (!iface->ap_list)
 796              		.loc 1 256 2
 797              		.loc 1 256 5 is_stmt 0
 798 0000 5C59     		lw	a5,52(a0)
 799 0002 FDCF     		beq	a5,zero,.L123
 251:C:/Users/stapi/OneDrive/Desktop/GD32VW553/V1_MQTT_OK/GD32VW55X_Wifi_BLE_SDK/GD32VW55x_RELEASE_V1.0.2/MSDK/wpa_supplicant/src/ap\ap_list.c **** 	struct os_reltime now;
 800              		.loc 1 251 1
 801 0004 17030000 		call	t0,__riscv_save_5
 801      E7020300 
 802              		.cfi_offset 20, -24
 803              		.cfi_offset 19, -20
 804              		.cfi_offset 18, -16
 805              		.cfi_offset 9, -12
 806              		.cfi_offset 8, -8
 807              		.cfi_offset 1, -4
 808              		.cfi_def_cfa_offset 32
 809 000c 4111     		addi	sp,sp,-16
 810              		.cfi_def_cfa_offset 48
 811 000e 2A84     		mv	s0,a0
 257:C:/Users/stapi/OneDrive/Desktop/GD32VW553/V1_MQTT_OK/GD32VW55X_Wifi_BLE_SDK/GD32VW55x_RELEASE_V1.0.2/MSDK/wpa_supplicant/src/ap\ap_list.c **** 		return;
 258:C:/Users/stapi/OneDrive/Desktop/GD32VW553/V1_MQTT_OK/GD32VW55X_Wifi_BLE_SDK/GD32VW55x_RELEASE_V1.0.2/MSDK/wpa_supplicant/src/ap\ap_list.c **** 
 259:C:/Users/stapi/OneDrive/Desktop/GD32VW553/V1_MQTT_OK/GD32VW55X_Wifi_BLE_SDK/GD32VW55x_RELEASE_V1.0.2/MSDK/wpa_supplicant/src/ap\ap_list.c **** 	os_get_reltime(&now);
 812              		.loc 1 259 2 is_stmt 1
 813              	.LBB68:
 814              	.LBB69:
 815              	.LBB70:
 816              	.LBB71:
 817              		.file 2 "..\\..\\..\\..\\wpa_supplicant\\src/utils/os.h"
   1:..\..\..\..\wpa_supplicant\src/utils/os.h **** /*
   2:..\..\..\..\wpa_supplicant\src/utils/os.h ****  * OS specific functions
   3:..\..\..\..\wpa_supplicant\src/utils/os.h ****  * Copyright (c) 2005-2009, Jouni Malinen <j@w1.fi>
   4:..\..\..\..\wpa_supplicant\src/utils/os.h ****  *
   5:..\..\..\..\wpa_supplicant\src/utils/os.h ****  * This software may be distributed under the terms of the BSD license.
   6:..\..\..\..\wpa_supplicant\src/utils/os.h ****  * See README for more details.
   7:..\..\..\..\wpa_supplicant\src/utils/os.h ****  */
   8:..\..\..\..\wpa_supplicant\src/utils/os.h **** 
   9:..\..\..\..\wpa_supplicant\src/utils/os.h **** #ifndef OS_H
  10:..\..\..\..\wpa_supplicant\src/utils/os.h **** #define OS_H
  11:..\..\..\..\wpa_supplicant\src/utils/os.h **** 
  12:..\..\..\..\wpa_supplicant\src/utils/os.h **** typedef long os_time_t;
  13:..\..\..\..\wpa_supplicant\src/utils/os.h **** 
  14:..\..\..\..\wpa_supplicant\src/utils/os.h **** /**
  15:..\..\..\..\wpa_supplicant\src/utils/os.h ****  * os_sleep - Sleep (sec, usec)
  16:..\..\..\..\wpa_supplicant\src/utils/os.h ****  * @sec: Number of seconds to sleep
  17:..\..\..\..\wpa_supplicant\src/utils/os.h ****  * @usec: Number of microseconds to sleep
  18:..\..\..\..\wpa_supplicant\src/utils/os.h ****  */
  19:..\..\..\..\wpa_supplicant\src/utils/os.h **** void os_sleep(os_time_t sec, os_time_t usec);
  20:..\..\..\..\wpa_supplicant\src/utils/os.h **** 
  21:..\..\..\..\wpa_supplicant\src/utils/os.h **** struct os_time {
  22:..\..\..\..\wpa_supplicant\src/utils/os.h **** 	os_time_t sec;
  23:..\..\..\..\wpa_supplicant\src/utils/os.h **** 	os_time_t usec;
  24:..\..\..\..\wpa_supplicant\src/utils/os.h **** };
  25:..\..\..\..\wpa_supplicant\src/utils/os.h **** 
  26:..\..\..\..\wpa_supplicant\src/utils/os.h **** struct os_reltime {
  27:..\..\..\..\wpa_supplicant\src/utils/os.h **** 	os_time_t sec;
  28:..\..\..\..\wpa_supplicant\src/utils/os.h **** 	os_time_t usec;
  29:..\..\..\..\wpa_supplicant\src/utils/os.h **** };
  30:..\..\..\..\wpa_supplicant\src/utils/os.h **** 
  31:..\..\..\..\wpa_supplicant\src/utils/os.h **** /**
  32:..\..\..\..\wpa_supplicant\src/utils/os.h ****  * os_get_time - Get current time (sec, usec)
  33:..\..\..\..\wpa_supplicant\src/utils/os.h ****  * @t: Pointer to buffer for the time
  34:..\..\..\..\wpa_supplicant\src/utils/os.h ****  * Returns: 0 on success, -1 on failure
  35:..\..\..\..\wpa_supplicant\src/utils/os.h ****  */
  36:..\..\..\..\wpa_supplicant\src/utils/os.h **** int os_get_time(struct os_time *t);
  37:..\..\..\..\wpa_supplicant\src/utils/os.h **** 
  38:..\..\..\..\wpa_supplicant\src/utils/os.h **** /**
  39:..\..\..\..\wpa_supplicant\src/utils/os.h ****  * os_get_reltime - Get relative time (sec, usec)
  40:..\..\..\..\wpa_supplicant\src/utils/os.h ****  * @t: Pointer to buffer for the time
  41:..\..\..\..\wpa_supplicant\src/utils/os.h ****  * Returns: 0 on success, -1 on failure
  42:..\..\..\..\wpa_supplicant\src/utils/os.h ****  */
  43:..\..\..\..\wpa_supplicant\src/utils/os.h **** int os_get_reltime(struct os_reltime *t);
  44:..\..\..\..\wpa_supplicant\src/utils/os.h **** 
  45:..\..\..\..\wpa_supplicant\src/utils/os.h **** 
  46:..\..\..\..\wpa_supplicant\src/utils/os.h **** /* Helpers for handling struct os_time */
  47:..\..\..\..\wpa_supplicant\src/utils/os.h **** 
  48:..\..\..\..\wpa_supplicant\src/utils/os.h **** static inline int os_time_before(struct os_time *a, struct os_time *b)
  49:..\..\..\..\wpa_supplicant\src/utils/os.h **** {
  50:..\..\..\..\wpa_supplicant\src/utils/os.h **** 	return (a->sec < b->sec) ||
  51:..\..\..\..\wpa_supplicant\src/utils/os.h **** 	       (a->sec == b->sec && a->usec < b->usec);
  52:..\..\..\..\wpa_supplicant\src/utils/os.h **** }
  53:..\..\..\..\wpa_supplicant\src/utils/os.h **** 
  54:..\..\..\..\wpa_supplicant\src/utils/os.h **** 
  55:..\..\..\..\wpa_supplicant\src/utils/os.h **** static inline void os_time_sub(struct os_time *a, struct os_time *b,
  56:..\..\..\..\wpa_supplicant\src/utils/os.h **** 			       struct os_time *res)
  57:..\..\..\..\wpa_supplicant\src/utils/os.h **** {
  58:..\..\..\..\wpa_supplicant\src/utils/os.h **** 	res->sec = a->sec - b->sec;
  59:..\..\..\..\wpa_supplicant\src/utils/os.h **** 	res->usec = a->usec - b->usec;
  60:..\..\..\..\wpa_supplicant\src/utils/os.h **** 	if (res->usec < 0) {
  61:..\..\..\..\wpa_supplicant\src/utils/os.h **** 		res->sec--;
  62:..\..\..\..\wpa_supplicant\src/utils/os.h **** 		res->usec += 1000000;
  63:..\..\..\..\wpa_supplicant\src/utils/os.h **** 	}
  64:..\..\..\..\wpa_supplicant\src/utils/os.h **** }
  65:..\..\..\..\wpa_supplicant\src/utils/os.h **** 
  66:..\..\..\..\wpa_supplicant\src/utils/os.h **** 
  67:..\..\..\..\wpa_supplicant\src/utils/os.h **** /* Helpers for handling struct os_reltime */
  68:..\..\..\..\wpa_supplicant\src/utils/os.h **** 
  69:..\..\..\..\wpa_supplicant\src/utils/os.h **** static inline int os_reltime_before(struct os_reltime *a,
  70:..\..\..\..\wpa_supplicant\src/utils/os.h **** 				    struct os_reltime *b)
  71:..\..\..\..\wpa_supplicant\src/utils/os.h **** {
  72:..\..\..\..\wpa_supplicant\src/utils/os.h **** 	return (a->sec < b->sec) ||
  73:..\..\..\..\wpa_supplicant\src/utils/os.h **** 	       (a->sec == b->sec && a->usec < b->usec);
  74:..\..\..\..\wpa_supplicant\src/utils/os.h **** }
  75:..\..\..\..\wpa_supplicant\src/utils/os.h **** 
  76:..\..\..\..\wpa_supplicant\src/utils/os.h **** 
  77:..\..\..\..\wpa_supplicant\src/utils/os.h **** static inline void os_reltime_sub(struct os_reltime *a, struct os_reltime *b,
  78:..\..\..\..\wpa_supplicant\src/utils/os.h **** 				  struct os_reltime *res)
  79:..\..\..\..\wpa_supplicant\src/utils/os.h **** {
  80:..\..\..\..\wpa_supplicant\src/utils/os.h **** 	res->sec = a->sec - b->sec;
  81:..\..\..\..\wpa_supplicant\src/utils/os.h **** 	res->usec = a->usec - b->usec;
  82:..\..\..\..\wpa_supplicant\src/utils/os.h **** 	if (res->usec < 0) {
  83:..\..\..\..\wpa_supplicant\src/utils/os.h **** 		res->sec--;
  84:..\..\..\..\wpa_supplicant\src/utils/os.h **** 		res->usec += 1000000;
 818              		.loc 2 84 13 is_stmt 0
 819 0010 B7440F00 		li	s1,999424
 820              	.LBE71:
 821              	.LBE70:
 822              	.LBE69:
 823              	.LBE68:
 824              		.loc 1 259 2
 825 0014 2800     		addi	a0,sp,8
 826              	.LVL59:
 827 0016 97000000 		call	os_get_reltime
 827      E7800000 
 828              	.LVL60:
 260:C:/Users/stapi/OneDrive/Desktop/GD32VW553/V1_MQTT_OK/GD32VW55X_Wifi_BLE_SDK/GD32VW55x_RELEASE_V1.0.2/MSDK/wpa_supplicant/src/ap\ap_list.c **** 
 261:C:/Users/stapi/OneDrive/Desktop/GD32VW553/V1_MQTT_OK/GD32VW55X_Wifi_BLE_SDK/GD32VW55x_RELEASE_V1.0.2/MSDK/wpa_supplicant/src/ap\ap_list.c **** 	while (iface->ap_list) {
 829              		.loc 1 261 2 is_stmt 1
 830              	.LBB82:
 831              	.LBB78:
 832              	.LBB75:
 833              	.LBB72:
 834              		.loc 2 84 13 is_stmt 0
 835 001e 93840424 		addi	s1,s1,576
 836              	.L84:
 837              	.LBE72:
 838              	.LBE75:
 839              	.LBE78:
 840              	.LBE82:
 841              		.loc 1 261 8 is_stmt 1
 842              		.loc 1 261 14 is_stmt 0
 843 0022 03294403 		lw	s2,52(s0)
 844              		.loc 1 261 8
 845 0026 630C0902 		beq	s2,zero,.L89
 262:C:/Users/stapi/OneDrive/Desktop/GD32VW553/V1_MQTT_OK/GD32VW55X_Wifi_BLE_SDK/GD32VW55x_RELEASE_V1.0.2/MSDK/wpa_supplicant/src/ap\ap_list.c **** 		ap = iface->ap_list->prev;
 846              		.loc 1 262 3 is_stmt 1
 847              		.loc 1 262 6 is_stmt 0
 848 002a 83254900 		lw	a1,4(s2)
 849              	.LVL61:
 263:C:/Users/stapi/OneDrive/Desktop/GD32VW553/V1_MQTT_OK/GD32VW55X_Wifi_BLE_SDK/GD32VW55x_RELEASE_V1.0.2/MSDK/wpa_supplicant/src/ap\ap_list.c **** 		if (!os_reltime_expired(&now, &ap->last_beacon,
 850              		.loc 1 263 3 is_stmt 1
 264:C:/Users/stapi/OneDrive/Desktop/GD32VW553/V1_MQTT_OK/GD32VW55X_Wifi_BLE_SDK/GD32VW55x_RELEASE_V1.0.2/MSDK/wpa_supplicant/src/ap\ap_list.c **** 					iface->conf->ap_table_expiration_time))
 851              		.loc 1 264 17 is_stmt 0
 852 002e 5C44     		lw	a5,12(s0)
 853              	.LBB83:
 854              	.LBB79:
 855              	.LBB76:
 856              	.LBB73:
  80:..\..\..\..\wpa_supplicant\src/utils/os.h **** 	res->usec = a->usec - b->usec;
 857              		.loc 2 80 20
 858 0030 2247     		lw	a4,8(sp)
  81:..\..\..\..\wpa_supplicant\src/utils/os.h **** 	if (res->usec < 0) {
 859              		.loc 2 81 22
 860 0032 F041     		lw	a2,68(a1)
 861              	.LBE73:
 862              	.LBE76:
 863              	.LBE79:
 864              	.LBE83:
 865              		.loc 1 264 17
 866 0034 B457     		lw	a3,104(a5)
 867              	.LVL62:
 868              	.LBB84:
 869              	.LBB80:
  85:..\..\..\..\wpa_supplicant\src/utils/os.h **** 	}
  86:..\..\..\..\wpa_supplicant\src/utils/os.h **** }
  87:..\..\..\..\wpa_supplicant\src/utils/os.h **** 
  88:..\..\..\..\wpa_supplicant\src/utils/os.h **** 
  89:..\..\..\..\wpa_supplicant\src/utils/os.h **** static inline void os_reltime_age(struct os_reltime *start,
  90:..\..\..\..\wpa_supplicant\src/utils/os.h **** 				  struct os_reltime *age)
  91:..\..\..\..\wpa_supplicant\src/utils/os.h **** {
  92:..\..\..\..\wpa_supplicant\src/utils/os.h **** 	struct os_reltime now;
  93:..\..\..\..\wpa_supplicant\src/utils/os.h **** 
  94:..\..\..\..\wpa_supplicant\src/utils/os.h **** 	os_get_reltime(&now);
  95:..\..\..\..\wpa_supplicant\src/utils/os.h **** 	os_reltime_sub(&now, start, age);
  96:..\..\..\..\wpa_supplicant\src/utils/os.h **** }
  97:..\..\..\..\wpa_supplicant\src/utils/os.h **** 
  98:..\..\..\..\wpa_supplicant\src/utils/os.h **** 
  99:..\..\..\..\wpa_supplicant\src/utils/os.h **** static inline int os_reltime_expired(struct os_reltime *now,
 100:..\..\..\..\wpa_supplicant\src/utils/os.h **** 				     struct os_reltime *ts,
 101:..\..\..\..\wpa_supplicant\src/utils/os.h **** 				     os_time_t timeout_secs)
 102:..\..\..\..\wpa_supplicant\src/utils/os.h **** {
 103:..\..\..\..\wpa_supplicant\src/utils/os.h **** 	struct os_reltime age;
 870              		.loc 2 103 2 is_stmt 1
 104:..\..\..\..\wpa_supplicant\src/utils/os.h **** 
 105:..\..\..\..\wpa_supplicant\src/utils/os.h **** 	os_reltime_sub(now, ts, &age);
 871              		.loc 2 105 2
 872              	.LBB77:
 873              	.LBB74:
  80:..\..\..\..\wpa_supplicant\src/utils/os.h **** 	res->usec = a->usec - b->usec;
 874              		.loc 2 80 2
  80:..\..\..\..\wpa_supplicant\src/utils/os.h **** 	res->usec = a->usec - b->usec;
 875              		.loc 2 80 20 is_stmt 0
 876 0036 BC41     		lw	a5,64(a1)
 877 0038 1D8F     		sub	a4,a4,a5
 878              	.LVL63:
  81:..\..\..\..\wpa_supplicant\src/utils/os.h **** 	if (res->usec < 0) {
 879              		.loc 2 81 2 is_stmt 1
  81:..\..\..\..\wpa_supplicant\src/utils/os.h **** 	if (res->usec < 0) {
 880              		.loc 2 81 22 is_stmt 0
 881 003a B247     		lw	a5,12(sp)
 882 003c 918F     		sub	a5,a5,a2
 883              	.LVL64:
  82:..\..\..\..\wpa_supplicant\src/utils/os.h **** 		res->sec--;
 884              		.loc 2 82 2 is_stmt 1
  82:..\..\..\..\wpa_supplicant\src/utils/os.h **** 		res->sec--;
 885              		.loc 2 82 5 is_stmt 0
 886 003e 63D40700 		bge	a5,zero,.L85
  83:..\..\..\..\wpa_supplicant\src/utils/os.h **** 		res->usec += 1000000;
 887              		.loc 2 83 3 is_stmt 1
  83:..\..\..\..\wpa_supplicant\src/utils/os.h **** 		res->usec += 1000000;
 888              		.loc 2 83 11 is_stmt 0
 889 0042 7D17     		addi	a4,a4,-1
 890              	.LVL65:
  84:..\..\..\..\wpa_supplicant\src/utils/os.h **** 	}
 891              		.loc 2 84 3 is_stmt 1
  84:..\..\..\..\wpa_supplicant\src/utils/os.h **** 	}
 892              		.loc 2 84 13 is_stmt 0
 893 0044 A697     		add	a5,a5,s1
 894              	.LVL66:
 895              	.L85:
 896              	.LBE74:
 897              	.LBE77:
 106:..\..\..\..\wpa_supplicant\src/utils/os.h **** 	return (age.sec > timeout_secs) ||
 898              		.loc 2 106 2 is_stmt 1
 899              		.loc 2 106 34 is_stmt 0
 900 0046 63D8E600 		bge	a3,a4,.L86
 901              	.L88:
 902              	.LVL67:
 903              	.LBE80:
 904              	.LBE84:
 265:C:/Users/stapi/OneDrive/Desktop/GD32VW553/V1_MQTT_OK/GD32VW55X_Wifi_BLE_SDK/GD32VW55x_RELEASE_V1.0.2/MSDK/wpa_supplicant/src/ap\ap_list.c **** 			break;
 266:C:/Users/stapi/OneDrive/Desktop/GD32VW553/V1_MQTT_OK/GD32VW55X_Wifi_BLE_SDK/GD32VW55x_RELEASE_V1.0.2/MSDK/wpa_supplicant/src/ap\ap_list.c **** 
 267:C:/Users/stapi/OneDrive/Desktop/GD32VW553/V1_MQTT_OK/GD32VW55X_Wifi_BLE_SDK/GD32VW55x_RELEASE_V1.0.2/MSDK/wpa_supplicant/src/ap\ap_list.c **** 		ap_free_ap(iface, ap);
 905              		.loc 1 267 3 is_stmt 1
 906 004a 2285     		mv	a0,s0
 907 004c 97000000 		call	ap_free_ap
 907      E7800000 
 908              	.LVL68:
 909 0054 F9B7     		j	.L84
 910              	.LVL69:
 911              	.L86:
 912              	.LBB85:
 913              	.LBB81:
 914              		.loc 2 106 34 is_stmt 0
 915 0056 6394E600 		bne	a3,a4,.L89
 107:..\..\..\..\wpa_supplicant\src/utils/os.h **** 	       (age.sec == timeout_secs && age.usec > 0);
 916              		.loc 2 107 34
 917 005a E348F0FE 		bgt	a5,zero,.L88
 918              	.LVL70:
 919              	.L89:
 920              	.LBE81:
 921              	.LBE85:
 268:C:/Users/stapi/OneDrive/Desktop/GD32VW553/V1_MQTT_OK/GD32VW55X_Wifi_BLE_SDK/GD32VW55x_RELEASE_V1.0.2/MSDK/wpa_supplicant/src/ap\ap_list.c **** 	}
 269:C:/Users/stapi/OneDrive/Desktop/GD32VW553/V1_MQTT_OK/GD32VW55X_Wifi_BLE_SDK/GD32VW55x_RELEASE_V1.0.2/MSDK/wpa_supplicant/src/ap\ap_list.c **** 
 270:C:/Users/stapi/OneDrive/Desktop/GD32VW553/V1_MQTT_OK/GD32VW55X_Wifi_BLE_SDK/GD32VW55x_RELEASE_V1.0.2/MSDK/wpa_supplicant/src/ap\ap_list.c **** 	if (iface->olbc || iface->olbc_ht) {
 922              		.loc 1 270 2 is_stmt 1
 923              		.loc 1 270 11 is_stmt 0
 924 005e 032A8448 		lw	s4,1160(s0)
 925              		.loc 1 270 5
 926 0062 631E0A02 		bne	s4,zero,.L104
 927              		.loc 1 270 18 discriminator 1
 928 0066 8327C449 		lw	a5,1180(s0)
 929 006a 95EB     		bne	a5,zero,.L104
 930              	.LVL71:
 931              	.L82:
 271:C:/Users/stapi/OneDrive/Desktop/GD32VW553/V1_MQTT_OK/GD32VW55X_Wifi_BLE_SDK/GD32VW55x_RELEASE_V1.0.2/MSDK/wpa_supplicant/src/ap\ap_list.c **** 		int olbc = 0;
 272:C:/Users/stapi/OneDrive/Desktop/GD32VW553/V1_MQTT_OK/GD32VW55X_Wifi_BLE_SDK/GD32VW55x_RELEASE_V1.0.2/MSDK/wpa_supplicant/src/ap\ap_list.c **** 		int olbc_ht = 0;
 273:C:/Users/stapi/OneDrive/Desktop/GD32VW553/V1_MQTT_OK/GD32VW55X_Wifi_BLE_SDK/GD32VW55x_RELEASE_V1.0.2/MSDK/wpa_supplicant/src/ap\ap_list.c **** 
 274:C:/Users/stapi/OneDrive/Desktop/GD32VW553/V1_MQTT_OK/GD32VW55X_Wifi_BLE_SDK/GD32VW55x_RELEASE_V1.0.2/MSDK/wpa_supplicant/src/ap\ap_list.c **** 		ap = iface->ap_list;
 275:C:/Users/stapi/OneDrive/Desktop/GD32VW553/V1_MQTT_OK/GD32VW55X_Wifi_BLE_SDK/GD32VW55x_RELEASE_V1.0.2/MSDK/wpa_supplicant/src/ap\ap_list.c **** 		while (ap && (olbc == 0 || olbc_ht == 0)) {
 276:C:/Users/stapi/OneDrive/Desktop/GD32VW553/V1_MQTT_OK/GD32VW55X_Wifi_BLE_SDK/GD32VW55x_RELEASE_V1.0.2/MSDK/wpa_supplicant/src/ap\ap_list.c **** 			if (ap_list_beacon_olbc(iface, ap))
 277:C:/Users/stapi/OneDrive/Desktop/GD32VW553/V1_MQTT_OK/GD32VW55X_Wifi_BLE_SDK/GD32VW55x_RELEASE_V1.0.2/MSDK/wpa_supplicant/src/ap\ap_list.c **** 				olbc = 1;
 278:C:/Users/stapi/OneDrive/Desktop/GD32VW553/V1_MQTT_OK/GD32VW55X_Wifi_BLE_SDK/GD32VW55x_RELEASE_V1.0.2/MSDK/wpa_supplicant/src/ap\ap_list.c **** 			if (!ap->ht_support)
 279:C:/Users/stapi/OneDrive/Desktop/GD32VW553/V1_MQTT_OK/GD32VW55X_Wifi_BLE_SDK/GD32VW55x_RELEASE_V1.0.2/MSDK/wpa_supplicant/src/ap\ap_list.c **** 				olbc_ht = 1;
 280:C:/Users/stapi/OneDrive/Desktop/GD32VW553/V1_MQTT_OK/GD32VW55X_Wifi_BLE_SDK/GD32VW55x_RELEASE_V1.0.2/MSDK/wpa_supplicant/src/ap\ap_list.c **** 			ap = ap->next;
 281:C:/Users/stapi/OneDrive/Desktop/GD32VW553/V1_MQTT_OK/GD32VW55X_Wifi_BLE_SDK/GD32VW55x_RELEASE_V1.0.2/MSDK/wpa_supplicant/src/ap\ap_list.c **** 		}
 282:C:/Users/stapi/OneDrive/Desktop/GD32VW553/V1_MQTT_OK/GD32VW55X_Wifi_BLE_SDK/GD32VW55x_RELEASE_V1.0.2/MSDK/wpa_supplicant/src/ap\ap_list.c **** 		if (!olbc && iface->olbc) {
 283:C:/Users/stapi/OneDrive/Desktop/GD32VW553/V1_MQTT_OK/GD32VW55X_Wifi_BLE_SDK/GD32VW55x_RELEASE_V1.0.2/MSDK/wpa_supplicant/src/ap\ap_list.c **** 			wpa_printf(MSG_DEBUG, "OLBC not detected anymore");
 284:C:/Users/stapi/OneDrive/Desktop/GD32VW553/V1_MQTT_OK/GD32VW55X_Wifi_BLE_SDK/GD32VW55x_RELEASE_V1.0.2/MSDK/wpa_supplicant/src/ap\ap_list.c **** 			iface->olbc = 0;
 285:C:/Users/stapi/OneDrive/Desktop/GD32VW553/V1_MQTT_OK/GD32VW55X_Wifi_BLE_SDK/GD32VW55x_RELEASE_V1.0.2/MSDK/wpa_supplicant/src/ap\ap_list.c **** 			set_beacon++;
 286:C:/Users/stapi/OneDrive/Desktop/GD32VW553/V1_MQTT_OK/GD32VW55X_Wifi_BLE_SDK/GD32VW55x_RELEASE_V1.0.2/MSDK/wpa_supplicant/src/ap\ap_list.c **** 		}
 287:C:/Users/stapi/OneDrive/Desktop/GD32VW553/V1_MQTT_OK/GD32VW55X_Wifi_BLE_SDK/GD32VW55x_RELEASE_V1.0.2/MSDK/wpa_supplicant/src/ap\ap_list.c **** 		if (!olbc_ht && iface->olbc_ht) {
 288:C:/Users/stapi/OneDrive/Desktop/GD32VW553/V1_MQTT_OK/GD32VW55X_Wifi_BLE_SDK/GD32VW55x_RELEASE_V1.0.2/MSDK/wpa_supplicant/src/ap\ap_list.c **** 			wpa_printf(MSG_DEBUG, "OLBC HT not detected anymore");
 289:C:/Users/stapi/OneDrive/Desktop/GD32VW553/V1_MQTT_OK/GD32VW55X_Wifi_BLE_SDK/GD32VW55x_RELEASE_V1.0.2/MSDK/wpa_supplicant/src/ap\ap_list.c **** 			iface->olbc_ht = 0;
 290:C:/Users/stapi/OneDrive/Desktop/GD32VW553/V1_MQTT_OK/GD32VW55X_Wifi_BLE_SDK/GD32VW55x_RELEASE_V1.0.2/MSDK/wpa_supplicant/src/ap\ap_list.c **** 			hostapd_ht_operation_update(iface);
 291:C:/Users/stapi/OneDrive/Desktop/GD32VW553/V1_MQTT_OK/GD32VW55X_Wifi_BLE_SDK/GD32VW55x_RELEASE_V1.0.2/MSDK/wpa_supplicant/src/ap\ap_list.c **** 			set_beacon++;
 292:C:/Users/stapi/OneDrive/Desktop/GD32VW553/V1_MQTT_OK/GD32VW55X_Wifi_BLE_SDK/GD32VW55x_RELEASE_V1.0.2/MSDK/wpa_supplicant/src/ap\ap_list.c **** 		}
 293:C:/Users/stapi/OneDrive/Desktop/GD32VW553/V1_MQTT_OK/GD32VW55X_Wifi_BLE_SDK/GD32VW55x_RELEASE_V1.0.2/MSDK/wpa_supplicant/src/ap\ap_list.c **** 	}
 294:C:/Users/stapi/OneDrive/Desktop/GD32VW553/V1_MQTT_OK/GD32VW55X_Wifi_BLE_SDK/GD32VW55x_RELEASE_V1.0.2/MSDK/wpa_supplicant/src/ap\ap_list.c **** 
 295:C:/Users/stapi/OneDrive/Desktop/GD32VW553/V1_MQTT_OK/GD32VW55X_Wifi_BLE_SDK/GD32VW55x_RELEASE_V1.0.2/MSDK/wpa_supplicant/src/ap\ap_list.c **** 	if (set_beacon)
 296:C:/Users/stapi/OneDrive/Desktop/GD32VW553/V1_MQTT_OK/GD32VW55X_Wifi_BLE_SDK/GD32VW55x_RELEASE_V1.0.2/MSDK/wpa_supplicant/src/ap\ap_list.c **** 		ieee802_11_update_beacons(iface);
 297:C:/Users/stapi/OneDrive/Desktop/GD32VW553/V1_MQTT_OK/GD32VW55X_Wifi_BLE_SDK/GD32VW55x_RELEASE_V1.0.2/MSDK/wpa_supplicant/src/ap\ap_list.c **** }
 932              		.loc 1 297 1
 933 006c 4101     		addi	sp,sp,16
 934              		.cfi_remember_state
 935              		.cfi_def_cfa_offset 0
 936 006e 17030000 		tail	__riscv_restore_5
 936      67000300 
 937              		.cfi_restore 20
 938              		.cfi_restore 19
 939              		.cfi_restore 18
 940              		.cfi_restore 9
 941              		.cfi_restore 8
 942              		.cfi_restore 1
 943              		.cfi_def_cfa_offset -32
 944              	.LVL72:
 945              	.L96:
 946              		.cfi_restore_state
 947              	.LBB86:
 276:C:/Users/stapi/OneDrive/Desktop/GD32VW553/V1_MQTT_OK/GD32VW55X_Wifi_BLE_SDK/GD32VW55x_RELEASE_V1.0.2/MSDK/wpa_supplicant/src/ap\ap_list.c **** 				olbc = 1;
 948              		.loc 1 276 4 is_stmt 1
 276:C:/Users/stapi/OneDrive/Desktop/GD32VW553/V1_MQTT_OK/GD32VW55X_Wifi_BLE_SDK/GD32VW55x_RELEASE_V1.0.2/MSDK/wpa_supplicant/src/ap\ap_list.c **** 				olbc = 1;
 949              		.loc 1 276 8 is_stmt 0
 950 0076 CA85     		mv	a1,s2
 951 0078 2285     		mv	a0,s0
 952 007a 97000000 		call	ap_list_beacon_olbc
 952      E7800000 
 953              	.LVL73:
 276:C:/Users/stapi/OneDrive/Desktop/GD32VW553/V1_MQTT_OK/GD32VW55X_Wifi_BLE_SDK/GD32VW55x_RELEASE_V1.0.2/MSDK/wpa_supplicant/src/ap\ap_list.c **** 				olbc = 1;
 954              		.loc 1 276 7
 955 0082 11C1     		beq	a0,zero,.L93
 277:C:/Users/stapi/OneDrive/Desktop/GD32VW553/V1_MQTT_OK/GD32VW55X_Wifi_BLE_SDK/GD32VW55x_RELEASE_V1.0.2/MSDK/wpa_supplicant/src/ap\ap_list.c **** 			if (!ap->ht_support)
 956              		.loc 1 277 10
 957 0084 8549     		li	s3,1
 958              	.LVL74:
 959              	.L93:
 278:C:/Users/stapi/OneDrive/Desktop/GD32VW553/V1_MQTT_OK/GD32VW55X_Wifi_BLE_SDK/GD32VW55x_RELEASE_V1.0.2/MSDK/wpa_supplicant/src/ap\ap_list.c **** 				olbc_ht = 1;
 960              		.loc 1 278 4 is_stmt 1
 278:C:/Users/stapi/OneDrive/Desktop/GD32VW553/V1_MQTT_OK/GD32VW55X_Wifi_BLE_SDK/GD32VW55x_RELEASE_V1.0.2/MSDK/wpa_supplicant/src/ap\ap_list.c **** 				olbc_ht = 1;
 961              		.loc 1 278 7 is_stmt 0
 962 0086 8327C903 		lw	a5,60(s2)
 963 008a 91E3     		bne	a5,zero,.L94
 964              	.LVL75:
 279:C:/Users/stapi/OneDrive/Desktop/GD32VW553/V1_MQTT_OK/GD32VW55X_Wifi_BLE_SDK/GD32VW55x_RELEASE_V1.0.2/MSDK/wpa_supplicant/src/ap\ap_list.c **** 			ap = ap->next;
 965              		.loc 1 279 13
 966 008c 8544     		li	s1,1
 967              	.LVL76:
 968              	.L94:
 280:C:/Users/stapi/OneDrive/Desktop/GD32VW553/V1_MQTT_OK/GD32VW55X_Wifi_BLE_SDK/GD32VW55x_RELEASE_V1.0.2/MSDK/wpa_supplicant/src/ap\ap_list.c **** 		}
 969              		.loc 1 280 4 is_stmt 1
 280:C:/Users/stapi/OneDrive/Desktop/GD32VW553/V1_MQTT_OK/GD32VW55X_Wifi_BLE_SDK/GD32VW55x_RELEASE_V1.0.2/MSDK/wpa_supplicant/src/ap\ap_list.c **** 		}
 970              		.loc 1 280 7 is_stmt 0
 971 008e 03290900 		lw	s2,0(s2)
 972              	.LVL77:
 973              	.L121:
 275:C:/Users/stapi/OneDrive/Desktop/GD32VW553/V1_MQTT_OK/GD32VW55X_Wifi_BLE_SDK/GD32VW55x_RELEASE_V1.0.2/MSDK/wpa_supplicant/src/ap\ap_list.c **** 			if (ap_list_beacon_olbc(iface, ap))
 974              		.loc 1 275 9 is_stmt 1
 975 0092 63090900 		beq	s2,zero,.L95
 275:C:/Users/stapi/OneDrive/Desktop/GD32VW553/V1_MQTT_OK/GD32VW55X_Wifi_BLE_SDK/GD32VW55x_RELEASE_V1.0.2/MSDK/wpa_supplicant/src/ap\ap_list.c **** 			if (ap_list_beacon_olbc(iface, ap))
 976              		.loc 1 275 13 is_stmt 0 discriminator 1
 977 0096 E38009FE 		beq	s3,zero,.L96
 275:C:/Users/stapi/OneDrive/Desktop/GD32VW553/V1_MQTT_OK/GD32VW55X_Wifi_BLE_SDK/GD32VW55x_RELEASE_V1.0.2/MSDK/wpa_supplicant/src/ap\ap_list.c **** 			if (ap_list_beacon_olbc(iface, ap))
 978              		.loc 1 275 27 discriminator 2
 979 009a F1DC     		beq	s1,zero,.L96
 980 009c C1BF     		j	.L82
 981              	.LVL78:
 982              	.L104:
 983              	.LBE86:
 984 009e 8144     		li	s1,0
 985 00a0 8149     		li	s3,0
 986 00a2 C5BF     		j	.L121
 987              	.LVL79:
 988              	.L95:
 989              	.LBB87:
 282:C:/Users/stapi/OneDrive/Desktop/GD32VW553/V1_MQTT_OK/GD32VW55X_Wifi_BLE_SDK/GD32VW55x_RELEASE_V1.0.2/MSDK/wpa_supplicant/src/ap\ap_list.c **** 			wpa_printf(MSG_DEBUG, "OLBC not detected anymore");
 990              		.loc 1 282 3 is_stmt 1
 282:C:/Users/stapi/OneDrive/Desktop/GD32VW553/V1_MQTT_OK/GD32VW55X_Wifi_BLE_SDK/GD32VW55x_RELEASE_V1.0.2/MSDK/wpa_supplicant/src/ap\ap_list.c **** 			wpa_printf(MSG_DEBUG, "OLBC not detected anymore");
 991              		.loc 1 282 6 is_stmt 0
 992 00a4 639C0904 		bne	s3,zero,.L98
 282:C:/Users/stapi/OneDrive/Desktop/GD32VW553/V1_MQTT_OK/GD32VW55X_Wifi_BLE_SDK/GD32VW55x_RELEASE_V1.0.2/MSDK/wpa_supplicant/src/ap\ap_list.c **** 			wpa_printf(MSG_DEBUG, "OLBC not detected anymore");
 993              		.loc 1 282 13 discriminator 1
 994 00a8 630A0A04 		beq	s4,zero,.L98
 283:C:/Users/stapi/OneDrive/Desktop/GD32VW553/V1_MQTT_OK/GD32VW55X_Wifi_BLE_SDK/GD32VW55x_RELEASE_V1.0.2/MSDK/wpa_supplicant/src/ap\ap_list.c **** 			iface->olbc = 0;
 995              		.loc 1 283 4 is_stmt 1
 996 00ac B7050000 		lui	a1,%hi(.LC5)
 997 00b0 93850500 		addi	a1,a1,%lo(.LC5)
 998 00b4 0945     		li	a0,2
 999 00b6 97000000 		call	wpa_printf
 999      E7800000 
 1000              	.LVL80:
 284:C:/Users/stapi/OneDrive/Desktop/GD32VW553/V1_MQTT_OK/GD32VW55X_Wifi_BLE_SDK/GD32VW55x_RELEASE_V1.0.2/MSDK/wpa_supplicant/src/ap\ap_list.c **** 			set_beacon++;
 1001              		.loc 1 284 4
 284:C:/Users/stapi/OneDrive/Desktop/GD32VW553/V1_MQTT_OK/GD32VW55X_Wifi_BLE_SDK/GD32VW55x_RELEASE_V1.0.2/MSDK/wpa_supplicant/src/ap\ap_list.c **** 			set_beacon++;
 1002              		.loc 1 284 16 is_stmt 0
 1003 00be 23240448 		sw	zero,1160(s0)
 285:C:/Users/stapi/OneDrive/Desktop/GD32VW553/V1_MQTT_OK/GD32VW55X_Wifi_BLE_SDK/GD32VW55x_RELEASE_V1.0.2/MSDK/wpa_supplicant/src/ap\ap_list.c **** 		}
 1004              		.loc 1 285 4 is_stmt 1
 1005              	.LVL81:
 287:C:/Users/stapi/OneDrive/Desktop/GD32VW553/V1_MQTT_OK/GD32VW55X_Wifi_BLE_SDK/GD32VW55x_RELEASE_V1.0.2/MSDK/wpa_supplicant/src/ap\ap_list.c **** 			wpa_printf(MSG_DEBUG, "OLBC HT not detected anymore");
 1006              		.loc 1 287 3
 287:C:/Users/stapi/OneDrive/Desktop/GD32VW553/V1_MQTT_OK/GD32VW55X_Wifi_BLE_SDK/GD32VW55x_RELEASE_V1.0.2/MSDK/wpa_supplicant/src/ap\ap_list.c **** 			wpa_printf(MSG_DEBUG, "OLBC HT not detected anymore");
 1007              		.loc 1 287 6 is_stmt 0
 1008 00c2 8DE4     		bne	s1,zero,.L100
 1009              	.LVL82:
 285:C:/Users/stapi/OneDrive/Desktop/GD32VW553/V1_MQTT_OK/GD32VW55X_Wifi_BLE_SDK/GD32VW55x_RELEASE_V1.0.2/MSDK/wpa_supplicant/src/ap\ap_list.c **** 		}
 1010              		.loc 1 285 14
 1011 00c4 8544     		li	s1,1
 1012              	.LVL83:
 1013              	.L99:
 287:C:/Users/stapi/OneDrive/Desktop/GD32VW553/V1_MQTT_OK/GD32VW55X_Wifi_BLE_SDK/GD32VW55x_RELEASE_V1.0.2/MSDK/wpa_supplicant/src/ap\ap_list.c **** 			wpa_printf(MSG_DEBUG, "OLBC HT not detected anymore");
 1014              		.loc 1 287 16 discriminator 1
 1015 00c6 8327C449 		lw	a5,1180(s0)
 1016 00ca 9DC7     		beq	a5,zero,.L101
 288:C:/Users/stapi/OneDrive/Desktop/GD32VW553/V1_MQTT_OK/GD32VW55X_Wifi_BLE_SDK/GD32VW55x_RELEASE_V1.0.2/MSDK/wpa_supplicant/src/ap\ap_list.c **** 			iface->olbc_ht = 0;
 1017              		.loc 1 288 4 is_stmt 1
 1018 00cc B7050000 		lui	a1,%hi(.LC6)
 1019 00d0 0945     		li	a0,2
 1020 00d2 93850500 		addi	a1,a1,%lo(.LC6)
 1021 00d6 97000000 		call	wpa_printf
 1021      E7800000 
 1022              	.LVL84:
 289:C:/Users/stapi/OneDrive/Desktop/GD32VW553/V1_MQTT_OK/GD32VW55X_Wifi_BLE_SDK/GD32VW55x_RELEASE_V1.0.2/MSDK/wpa_supplicant/src/ap\ap_list.c **** 			hostapd_ht_operation_update(iface);
 1023              		.loc 1 289 4
 290:C:/Users/stapi/OneDrive/Desktop/GD32VW553/V1_MQTT_OK/GD32VW55X_Wifi_BLE_SDK/GD32VW55x_RELEASE_V1.0.2/MSDK/wpa_supplicant/src/ap\ap_list.c **** 			set_beacon++;
 1024              		.loc 1 290 4 is_stmt 0
 1025 00de 2285     		mv	a0,s0
 289:C:/Users/stapi/OneDrive/Desktop/GD32VW553/V1_MQTT_OK/GD32VW55X_Wifi_BLE_SDK/GD32VW55x_RELEASE_V1.0.2/MSDK/wpa_supplicant/src/ap\ap_list.c **** 			hostapd_ht_operation_update(iface);
 1026              		.loc 1 289 19
 1027 00e0 232E0448 		sw	zero,1180(s0)
 290:C:/Users/stapi/OneDrive/Desktop/GD32VW553/V1_MQTT_OK/GD32VW55X_Wifi_BLE_SDK/GD32VW55x_RELEASE_V1.0.2/MSDK/wpa_supplicant/src/ap\ap_list.c **** 			set_beacon++;
 1028              		.loc 1 290 4 is_stmt 1
 1029 00e4 97000000 		call	hostapd_ht_operation_update
 1029      E7800000 
 1030              	.LVL85:
 291:C:/Users/stapi/OneDrive/Desktop/GD32VW553/V1_MQTT_OK/GD32VW55X_Wifi_BLE_SDK/GD32VW55x_RELEASE_V1.0.2/MSDK/wpa_supplicant/src/ap\ap_list.c **** 		}
 1031              		.loc 1 291 4
 1032              	.LBE87:
 295:C:/Users/stapi/OneDrive/Desktop/GD32VW553/V1_MQTT_OK/GD32VW55X_Wifi_BLE_SDK/GD32VW55x_RELEASE_V1.0.2/MSDK/wpa_supplicant/src/ap\ap_list.c **** 		ieee802_11_update_beacons(iface);
 1033              		.loc 1 295 2
 1034              	.L100:
 296:C:/Users/stapi/OneDrive/Desktop/GD32VW553/V1_MQTT_OK/GD32VW55X_Wifi_BLE_SDK/GD32VW55x_RELEASE_V1.0.2/MSDK/wpa_supplicant/src/ap\ap_list.c **** }
 1035              		.loc 1 296 3
 1036 00ec 2285     		mv	a0,s0
 1037 00ee 97000000 		call	ieee802_11_update_beacons
 1037      E7800000 
 1038              	.LVL86:
 1039 00f6 9DBF     		j	.L82
 1040              	.L101:
 295:C:/Users/stapi/OneDrive/Desktop/GD32VW553/V1_MQTT_OK/GD32VW55X_Wifi_BLE_SDK/GD32VW55x_RELEASE_V1.0.2/MSDK/wpa_supplicant/src/ap\ap_list.c **** 		ieee802_11_update_beacons(iface);
 1041              		.loc 1 295 2
 295:C:/Users/stapi/OneDrive/Desktop/GD32VW553/V1_MQTT_OK/GD32VW55X_Wifi_BLE_SDK/GD32VW55x_RELEASE_V1.0.2/MSDK/wpa_supplicant/src/ap\ap_list.c **** 		ieee802_11_update_beacons(iface);
 1042              		.loc 1 295 5 is_stmt 0
 1043 00f8 B5D8     		beq	s1,zero,.L82
 1044 00fa CDBF     		j	.L100
 1045              	.LVL87:
 1046              	.L98:
 1047              	.LBB88:
 287:C:/Users/stapi/OneDrive/Desktop/GD32VW553/V1_MQTT_OK/GD32VW55X_Wifi_BLE_SDK/GD32VW55x_RELEASE_V1.0.2/MSDK/wpa_supplicant/src/ap\ap_list.c **** 			wpa_printf(MSG_DEBUG, "OLBC HT not detected anymore");
 1048              		.loc 1 287 3 is_stmt 1
 287:C:/Users/stapi/OneDrive/Desktop/GD32VW553/V1_MQTT_OK/GD32VW55X_Wifi_BLE_SDK/GD32VW55x_RELEASE_V1.0.2/MSDK/wpa_supplicant/src/ap\ap_list.c **** 			wpa_printf(MSG_DEBUG, "OLBC HT not detected anymore");
 1049              		.loc 1 287 6 is_stmt 0
 1050 00fc E9D4     		beq	s1,zero,.L99
 1051 00fe BDB7     		j	.L82
 1052              	.LVL88:
 1053              	.L123:
 1054              		.cfi_def_cfa_offset 0
 1055              		.cfi_restore 1
 1056              		.cfi_restore 8
 1057              		.cfi_restore 9
 1058              		.cfi_restore 18
 1059              		.cfi_restore 19
 1060              		.cfi_restore 20
 1061 0100 8280     		ret
 1062              	.LBE88:
 1063              		.cfi_endproc
 1064              	.LFE149:
 1066              		.section	.text.ap_list_init,"ax",@progbits
 1067              		.align	1
 1068              		.globl	ap_list_init
 1070              	ap_list_init:
 1071              	.LFB150:
 298:C:/Users/stapi/OneDrive/Desktop/GD32VW553/V1_MQTT_OK/GD32VW55X_Wifi_BLE_SDK/GD32VW55x_RELEASE_V1.0.2/MSDK/wpa_supplicant/src/ap\ap_list.c **** 
 299:C:/Users/stapi/OneDrive/Desktop/GD32VW553/V1_MQTT_OK/GD32VW55X_Wifi_BLE_SDK/GD32VW55x_RELEASE_V1.0.2/MSDK/wpa_supplicant/src/ap\ap_list.c **** 
 300:C:/Users/stapi/OneDrive/Desktop/GD32VW553/V1_MQTT_OK/GD32VW55X_Wifi_BLE_SDK/GD32VW55x_RELEASE_V1.0.2/MSDK/wpa_supplicant/src/ap\ap_list.c **** int ap_list_init(struct hostapd_iface *iface)
 301:C:/Users/stapi/OneDrive/Desktop/GD32VW553/V1_MQTT_OK/GD32VW55X_Wifi_BLE_SDK/GD32VW55x_RELEASE_V1.0.2/MSDK/wpa_supplicant/src/ap\ap_list.c **** {
 1072              		.loc 1 301 1 is_stmt 1
 1073              		.cfi_startproc
 1074              	.LVL89:
 302:C:/Users/stapi/OneDrive/Desktop/GD32VW553/V1_MQTT_OK/GD32VW55X_Wifi_BLE_SDK/GD32VW55x_RELEASE_V1.0.2/MSDK/wpa_supplicant/src/ap\ap_list.c **** 	return 0;
 1075              		.loc 1 302 2
 303:C:/Users/stapi/OneDrive/Desktop/GD32VW553/V1_MQTT_OK/GD32VW55X_Wifi_BLE_SDK/GD32VW55x_RELEASE_V1.0.2/MSDK/wpa_supplicant/src/ap\ap_list.c **** }
 1076              		.loc 1 303 1 is_stmt 0
 1077 0000 0145     		li	a0,0
 1078              	.LVL90:
 1079 0002 8280     		ret
 1080              		.cfi_endproc
 1081              	.LFE150:
 1083              		.section	.text.ap_list_deinit,"ax",@progbits
 1084              		.align	1
 1085              		.globl	ap_list_deinit
 1087              	ap_list_deinit:
 1088              	.LFB151:
 304:C:/Users/stapi/OneDrive/Desktop/GD32VW553/V1_MQTT_OK/GD32VW55X_Wifi_BLE_SDK/GD32VW55x_RELEASE_V1.0.2/MSDK/wpa_supplicant/src/ap\ap_list.c **** 
 305:C:/Users/stapi/OneDrive/Desktop/GD32VW553/V1_MQTT_OK/GD32VW55X_Wifi_BLE_SDK/GD32VW55x_RELEASE_V1.0.2/MSDK/wpa_supplicant/src/ap\ap_list.c **** 
 306:C:/Users/stapi/OneDrive/Desktop/GD32VW553/V1_MQTT_OK/GD32VW55X_Wifi_BLE_SDK/GD32VW55x_RELEASE_V1.0.2/MSDK/wpa_supplicant/src/ap\ap_list.c **** void ap_list_deinit(struct hostapd_iface *iface)
 307:C:/Users/stapi/OneDrive/Desktop/GD32VW553/V1_MQTT_OK/GD32VW55X_Wifi_BLE_SDK/GD32VW55x_RELEASE_V1.0.2/MSDK/wpa_supplicant/src/ap\ap_list.c **** {
 1089              		.loc 1 307 1 is_stmt 1
 1090              		.cfi_startproc
 1091              	.LVL91:
 1092 0000 17030000 		call	t0,__riscv_save_2
 1092      E7020300 
 1093              		.cfi_offset 9, -12
 1094              		.cfi_offset 8, -8
 1095              		.cfi_offset 1, -4
 1096              		.cfi_def_cfa_offset 16
 308:C:/Users/stapi/OneDrive/Desktop/GD32VW553/V1_MQTT_OK/GD32VW55X_Wifi_BLE_SDK/GD32VW55x_RELEASE_V1.0.2/MSDK/wpa_supplicant/src/ap\ap_list.c **** 	hostapd_free_aps(iface);
 1097              		.loc 1 308 2
 1098              	.LVL92:
 1099              	.LBB91:
 1100              	.LBB92:
 132:C:/Users/stapi/OneDrive/Desktop/GD32VW553/V1_MQTT_OK/GD32VW55X_Wifi_BLE_SDK/GD32VW55x_RELEASE_V1.0.2/MSDK/wpa_supplicant/src/ap\ap_list.c **** 
 1101              		.loc 1 132 2
 134:C:/Users/stapi/OneDrive/Desktop/GD32VW553/V1_MQTT_OK/GD32VW55X_Wifi_BLE_SDK/GD32VW55x_RELEASE_V1.0.2/MSDK/wpa_supplicant/src/ap\ap_list.c **** 
 1102              		.loc 1 134 2
 134:C:/Users/stapi/OneDrive/Desktop/GD32VW553/V1_MQTT_OK/GD32VW55X_Wifi_BLE_SDK/GD32VW55x_RELEASE_V1.0.2/MSDK/wpa_supplicant/src/ap\ap_list.c **** 
 1103              		.loc 1 134 5 is_stmt 0
 1104 0008 4C59     		lw	a1,52(a0)
 1105              	.LVL93:
 136:C:/Users/stapi/OneDrive/Desktop/GD32VW553/V1_MQTT_OK/GD32VW55X_Wifi_BLE_SDK/GD32VW55x_RELEASE_V1.0.2/MSDK/wpa_supplicant/src/ap\ap_list.c **** 		prev = ap;
 1106              		.loc 1 136 2 is_stmt 1
 1107              	.LBE92:
 1108              	.LBE91:
 307:C:/Users/stapi/OneDrive/Desktop/GD32VW553/V1_MQTT_OK/GD32VW55X_Wifi_BLE_SDK/GD32VW55x_RELEASE_V1.0.2/MSDK/wpa_supplicant/src/ap\ap_list.c **** 	hostapd_free_aps(iface);
 1109              		.loc 1 307 1 is_stmt 0
 1110 000a 2A84     		mv	s0,a0
 1111              	.LVL94:
 1112              	.L128:
 1113              	.LBB95:
 1114              	.LBB93:
 136:C:/Users/stapi/OneDrive/Desktop/GD32VW553/V1_MQTT_OK/GD32VW55X_Wifi_BLE_SDK/GD32VW55x_RELEASE_V1.0.2/MSDK/wpa_supplicant/src/ap\ap_list.c **** 		prev = ap;
 1115              		.loc 1 136 8 is_stmt 1
 1116 000c 99E5     		bne	a1,zero,.L129
 142:C:/Users/stapi/OneDrive/Desktop/GD32VW553/V1_MQTT_OK/GD32VW55X_Wifi_BLE_SDK/GD32VW55x_RELEASE_V1.0.2/MSDK/wpa_supplicant/src/ap\ap_list.c **** }
 1117              		.loc 1 142 2
 142:C:/Users/stapi/OneDrive/Desktop/GD32VW553/V1_MQTT_OK/GD32VW55X_Wifi_BLE_SDK/GD32VW55x_RELEASE_V1.0.2/MSDK/wpa_supplicant/src/ap\ap_list.c **** }
 1118              		.loc 1 142 17 is_stmt 0
 1119 000e 232A0402 		sw	zero,52(s0)
 1120              	.LVL95:
 1121              	.LBE93:
 1122              	.LBE95:
 309:C:/Users/stapi/OneDrive/Desktop/GD32VW553/V1_MQTT_OK/GD32VW55X_Wifi_BLE_SDK/GD32VW55x_RELEASE_V1.0.2/MSDK/wpa_supplicant/src/ap\ap_list.c **** }
 1123              		.loc 1 309 1
 1124 0012 17030000 		tail	__riscv_restore_2
 1124      67000300 
 1125              		.cfi_remember_state
 1126              		.cfi_restore 9
 1127              		.cfi_restore 8
 1128              		.cfi_restore 1
 1129              		.cfi_def_cfa_offset 0
 1130              	.LVL96:
 1131              	.L129:
 1132              		.cfi_restore_state
 1133              	.LBB96:
 1134              	.LBB94:
 137:C:/Users/stapi/OneDrive/Desktop/GD32VW553/V1_MQTT_OK/GD32VW55X_Wifi_BLE_SDK/GD32VW55x_RELEASE_V1.0.2/MSDK/wpa_supplicant/src/ap\ap_list.c **** 		ap = ap->next;
 1135              		.loc 1 137 3 is_stmt 1
 138:C:/Users/stapi/OneDrive/Desktop/GD32VW553/V1_MQTT_OK/GD32VW55X_Wifi_BLE_SDK/GD32VW55x_RELEASE_V1.0.2/MSDK/wpa_supplicant/src/ap\ap_list.c **** 		ap_free_ap(iface, prev);
 1136              		.loc 1 138 3
 138:C:/Users/stapi/OneDrive/Desktop/GD32VW553/V1_MQTT_OK/GD32VW55X_Wifi_BLE_SDK/GD32VW55x_RELEASE_V1.0.2/MSDK/wpa_supplicant/src/ap\ap_list.c **** 		ap_free_ap(iface, prev);
 1137              		.loc 1 138 6 is_stmt 0
 1138 001a 8441     		lw	s1,0(a1)
 1139              	.LVL97:
 139:C:/Users/stapi/OneDrive/Desktop/GD32VW553/V1_MQTT_OK/GD32VW55X_Wifi_BLE_SDK/GD32VW55x_RELEASE_V1.0.2/MSDK/wpa_supplicant/src/ap\ap_list.c **** 	}
 1140              		.loc 1 139 3 is_stmt 1
 1141 001c 2285     		mv	a0,s0
 1142 001e 97000000 		call	ap_free_ap
 1142      E7800000 
 1143              	.LVL98:
 138:C:/Users/stapi/OneDrive/Desktop/GD32VW553/V1_MQTT_OK/GD32VW55X_Wifi_BLE_SDK/GD32VW55x_RELEASE_V1.0.2/MSDK/wpa_supplicant/src/ap\ap_list.c **** 		ap_free_ap(iface, prev);
 1144              		.loc 1 138 6 is_stmt 0
 1145 0026 A685     		mv	a1,s1
 1146 0028 D5B7     		j	.L128
 1147              	.LBE94:
 1148              	.LBE96:
 1149              		.cfi_endproc
 1150              	.LFE151:
 1152              		.text
 1153              	.Letext0:
 1154              		.file 3 "c:\\users\\stapi\\onedrive\\desktop\\gd32vw553\\embeddedbuilder_v1.4.7.26843\\tools\\nucl
 1155              		.file 4 "c:\\users\\stapi\\onedrive\\desktop\\gd32vw553\\embeddedbuilder_v1.4.7.26843\\tools\\nucl
 1156              		.file 5 "c:\\users\\stapi\\onedrive\\desktop\\gd32vw553\\embeddedbuilder_v1.4.7.26843\\tools\\nucl
 1157              		.file 6 "..\\..\\..\\..\\lwip\\lwip-2.1.2\\src\\include/lwip/arch.h"
 1158              		.file 7 "..\\..\\..\\..\\lwip\\lwip-2.1.2\\src\\include/lwip/inet.h"
 1159              		.file 8 "..\\..\\..\\..\\wpa_supplicant\\src/utils/common.h"
 1160              		.file 9 "..\\..\\..\\..\\wpa_supplicant\\src/utils/wpabuf.h"
 1161              		.file 10 "..\\..\\..\\..\\wpa_supplicant\\src/common/ieee802_11_defs.h"
 1162              		.file 11 "..\\..\\..\\..\\wpa_supplicant\\src/utils/wpa_debug.h"
 1163              		.file 12 "..\\..\\..\\..\\wpa_supplicant\\src/common/defs.h"
 1164              		.file 13 "..\\..\\..\\..\\wpa_supplicant\\src/common/ieee802_11_common.h"
 1165              		.file 14 "..\\..\\..\\..\\wpa_supplicant\\src/utils/list.h"
 1166              		.file 15 "..\\..\\..\\..\\wpa_supplicant\\src/utils/ip_addr.h"
 1167              		.file 16 "..\\..\\..\\..\\wpa_supplicant\\src/wps/wps_defs.h"
 1168              		.file 17 "..\\..\\..\\..\\wpa_supplicant\\src/wps/wps.h"
 1169              		.file 18 "C:/Users/stapi/OneDrive/Desktop/GD32VW553/V1_MQTT_OK/GD32VW55X_Wifi_BLE_SDK/GD32VW55x_RE
 1170              		.file 19 "C:/Users/stapi/OneDrive/Desktop/GD32VW553/V1_MQTT_OK/GD32VW55X_Wifi_BLE_SDK/GD32VW55x_RE
 1171              		.file 20 "..\\..\\..\\..\\wpa_supplicant\\src/common/sae.h"
 1172              		.file 21 "..\\..\\..\\..\\wpa_supplicant\\src/drivers/driver.h"
 1173              		.file 22 "C:/Users/stapi/OneDrive/Desktop/GD32VW553/V1_MQTT_OK/GD32VW55X_Wifi_BLE_SDK/GD32VW55x_RE
 1174              		.file 23 "C:/Users/stapi/OneDrive/Desktop/GD32VW553/V1_MQTT_OK/GD32VW55X_Wifi_BLE_SDK/GD32VW55x_RE
 1175              		.file 24 "C:/Users/stapi/OneDrive/Desktop/GD32VW553/V1_MQTT_OK/GD32VW55X_Wifi_BLE_SDK/GD32VW55x_RE
 1176              		.file 25 "C:/Users/stapi/OneDrive/Desktop/GD32VW553/V1_MQTT_OK/GD32VW55X_Wifi_BLE_SDK/GD32VW55x_RE
 1177              		.file 26 "C:/Users/stapi/OneDrive/Desktop/GD32VW553/V1_MQTT_OK/GD32VW55X_Wifi_BLE_SDK/GD32VW55x_RE
DEFINED SYMBOLS
                            *ABS*:0000000000000000 ap_list.c
C:\Users\stapi\AppData\Local\Temp\ccjssdjY.s:12     .text.ap_list_beacon_olbc:0000000000000000 ap_list_beacon_olbc
C:\Users\stapi\AppData\Local\Temp\ccjssdjY.s:16     .text.ap_list_beacon_olbc:0000000000000000 .L0 
C:\Users\stapi\AppData\Local\Temp\ccjssdjY.s:18     .text.ap_list_beacon_olbc:0000000000000000 .L0 
C:\Users\stapi\AppData\Local\Temp\ccjssdjY.s:19     .text.ap_list_beacon_olbc:0000000000000000 .L0 
C:\Users\stapi\AppData\Local\Temp\ccjssdjY.s:21     .text.ap_list_beacon_olbc:0000000000000004 .L0 
C:\Users\stapi\AppData\Local\Temp\ccjssdjY.s:23     .text.ap_list_beacon_olbc:0000000000000006 .L0 
C:\Users\stapi\AppData\Local\Temp\ccjssdjY.s:24     .text.ap_list_beacon_olbc:0000000000000006 .L0 
C:\Users\stapi\AppData\Local\Temp\ccjssdjY.s:25     .text.ap_list_beacon_olbc:0000000000000006 .L0 
C:\Users\stapi\AppData\Local\Temp\ccjssdjY.s:27     .text.ap_list_beacon_olbc:0000000000000008 .L0 
C:\Users\stapi\AppData\Local\Temp\ccjssdjY.s:30     .text.ap_list_beacon_olbc:000000000000000c .L0 
C:\Users\stapi\AppData\Local\Temp\ccjssdjY.s:33     .text.ap_list_beacon_olbc:000000000000000e .L0 
C:\Users\stapi\AppData\Local\Temp\ccjssdjY.s:35     .text.ap_list_beacon_olbc:0000000000000012 .L0 
C:\Users\stapi\AppData\Local\Temp\ccjssdjY.s:39     .text.ap_list_beacon_olbc:0000000000000018 .L0 
C:\Users\stapi\AppData\Local\Temp\ccjssdjY.s:42     .text.ap_list_beacon_olbc:000000000000001e .L0 
C:\Users\stapi\AppData\Local\Temp\ccjssdjY.s:43     .text.ap_list_beacon_olbc:000000000000001e .L0 
C:\Users\stapi\AppData\Local\Temp\ccjssdjY.s:45     .text.ap_list_beacon_olbc:0000000000000020 .L0 
C:\Users\stapi\AppData\Local\Temp\ccjssdjY.s:48     .text.ap_list_beacon_olbc:0000000000000026 .L0 
C:\Users\stapi\AppData\Local\Temp\ccjssdjY.s:50     .text.ap_list_beacon_olbc:0000000000000028 .L0 
C:\Users\stapi\AppData\Local\Temp\ccjssdjY.s:52     .text.ap_list_beacon_olbc:000000000000002a .L0 
C:\Users\stapi\AppData\Local\Temp\ccjssdjY.s:59     .text.ap_list_beacon_olbc:0000000000000030 .L0 
C:\Users\stapi\AppData\Local\Temp\ccjssdjY.s:63     .text.ap_list_beacon_olbc:0000000000000036 .L0 
C:\Users\stapi\AppData\Local\Temp\ccjssdjY.s:65     .text.ap_list_beacon_olbc:000000000000003a .L0 
C:\Users\stapi\AppData\Local\Temp\ccjssdjY.s:67     .text.ap_list_beacon_olbc:000000000000003e .L0 
C:\Users\stapi\AppData\Local\Temp\ccjssdjY.s:71     .text.ap_list_beacon_olbc:0000000000000042 .L0 
C:\Users\stapi\AppData\Local\Temp\ccjssdjY.s:72     .text.ap_list_beacon_olbc:0000000000000042 .L0 
C:\Users\stapi\AppData\Local\Temp\ccjssdjY.s:75     .text.ap_list_beacon_olbc:000000000000004a .L0 
C:\Users\stapi\AppData\Local\Temp\ccjssdjY.s:78     .text.ap_list_beacon_olbc:000000000000004e .L0 
C:\Users\stapi\AppData\Local\Temp\ccjssdjY.s:79     .text.ap_list_beacon_olbc:000000000000004e .L0 
C:\Users\stapi\AppData\Local\Temp\ccjssdjY.s:81     .text.ap_list_beacon_olbc:0000000000000052 .L0 
C:\Users\stapi\AppData\Local\Temp\ccjssdjY.s:83     .text.ap_list_beacon_olbc:0000000000000056 .L0 
C:\Users\stapi\AppData\Local\Temp\ccjssdjY.s:87     .text.ap_list_beacon_olbc:000000000000005a .L0 
C:\Users\stapi\AppData\Local\Temp\ccjssdjY.s:88     .text.ap_list_beacon_olbc:000000000000005a .L0 
C:\Users\stapi\AppData\Local\Temp\ccjssdjY.s:89     .text.ap_list_beacon_olbc:000000000000005a .L0 
C:\Users\stapi\AppData\Local\Temp\ccjssdjY.s:95     .text.ap_list_beacon_olbc:0000000000000060 .L0 
C:\Users\stapi\AppData\Local\Temp\ccjssdjY.s:104    .text.ap_list_beacon_olbc:0000000000000064 .L0 
C:\Users\stapi\AppData\Local\Temp\ccjssdjY.s:107    .text.ap_list_beacon_olbc:0000000000000066 .L0 
C:\Users\stapi\AppData\Local\Temp\ccjssdjY.s:108    .text.ap_list_beacon_olbc:0000000000000068 .L0 
C:\Users\stapi\AppData\Local\Temp\ccjssdjY.s:114    .text.ap_ap_list_del:0000000000000000 ap_ap_list_del
C:\Users\stapi\AppData\Local\Temp\ccjssdjY.s:117    .text.ap_ap_list_del:0000000000000000 .L0 
C:\Users\stapi\AppData\Local\Temp\ccjssdjY.s:119    .text.ap_ap_list_del:0000000000000000 .L0 
C:\Users\stapi\AppData\Local\Temp\ccjssdjY.s:120    .text.ap_ap_list_del:0000000000000000 .L0 
C:\Users\stapi\AppData\Local\Temp\ccjssdjY.s:121    .text.ap_ap_list_del:0000000000000000 .L0 
C:\Users\stapi\AppData\Local\Temp\ccjssdjY.s:123    .text.ap_ap_list_del:0000000000000002 .L0 
C:\Users\stapi\AppData\Local\Temp\ccjssdjY.s:125    .text.ap_ap_list_del:0000000000000004 .L0 
C:\Users\stapi\AppData\Local\Temp\ccjssdjY.s:127    .text.ap_ap_list_del:0000000000000008 .L0 
C:\Users\stapi\AppData\Local\Temp\ccjssdjY.s:128    .text.ap_ap_list_del:0000000000000008 .L0 
C:\Users\stapi\AppData\Local\Temp\ccjssdjY.s:131    .text.ap_ap_list_del:000000000000000a .L0 
C:\Users\stapi\AppData\Local\Temp\ccjssdjY.s:132    .text.ap_ap_list_del:000000000000000a .L0 
C:\Users\stapi\AppData\Local\Temp\ccjssdjY.s:134    .text.ap_ap_list_del:000000000000000c .L0 
C:\Users\stapi\AppData\Local\Temp\ccjssdjY.s:139    .text.ap_ap_list_del:000000000000000e .L0 
C:\Users\stapi\AppData\Local\Temp\ccjssdjY.s:140    .text.ap_ap_list_del:000000000000000e .L0 
C:\Users\stapi\AppData\Local\Temp\ccjssdjY.s:142    .text.ap_ap_list_del:0000000000000010 .L0 
C:\Users\stapi\AppData\Local\Temp\ccjssdjY.s:146    .text.ap_ap_list_del:0000000000000012 .L0 
C:\Users\stapi\AppData\Local\Temp\ccjssdjY.s:149    .text.ap_ap_list_del:0000000000000014 .L0 
C:\Users\stapi\AppData\Local\Temp\ccjssdjY.s:150    .text.ap_ap_list_del:0000000000000014 .L0 
C:\Users\stapi\AppData\Local\Temp\ccjssdjY.s:159    .text.ap_ap_list_del:000000000000001c .L0 
C:\Users\stapi\AppData\Local\Temp\ccjssdjY.s:160    .text.ap_ap_list_del:000000000000001c .L0 
C:\Users\stapi\AppData\Local\Temp\ccjssdjY.s:166    .text.ap_ap_list_del:000000000000001e .L0 
C:\Users\stapi\AppData\Local\Temp\ccjssdjY.s:167    .text.ap_ap_list_del:0000000000000020 .L0 
C:\Users\stapi\AppData\Local\Temp\ccjssdjY.s:177    .text.ap_free_ap:0000000000000000 ap_free_ap
C:\Users\stapi\AppData\Local\Temp\ccjssdjY.s:180    .text.ap_free_ap:0000000000000000 .L0 
C:\Users\stapi\AppData\Local\Temp\ccjssdjY.s:182    .text.ap_free_ap:0000000000000000 .L0 
C:\Users\stapi\AppData\Local\Temp\ccjssdjY.s:183    .text.ap_free_ap:0000000000000008 .L0 
C:\Users\stapi\AppData\Local\Temp\ccjssdjY.s:184    .text.ap_free_ap:0000000000000008 .L0 
C:\Users\stapi\AppData\Local\Temp\ccjssdjY.s:185    .text.ap_free_ap:0000000000000008 .L0 
C:\Users\stapi\AppData\Local\Temp\ccjssdjY.s:186    .text.ap_free_ap:0000000000000008 .L0 
C:\Users\stapi\AppData\Local\Temp\ccjssdjY.s:187    .text.ap_free_ap:0000000000000008 .L0 
C:\Users\stapi\AppData\Local\Temp\ccjssdjY.s:188    .text.ap_free_ap:0000000000000008 .L0 
C:\Users\stapi\AppData\Local\Temp\ccjssdjY.s:193    .text.ap_free_ap:0000000000000008 .L0 
C:\Users\stapi\AppData\Local\Temp\ccjssdjY.s:194    .text.ap_free_ap:0000000000000008 .L0 
C:\Users\stapi\AppData\Local\Temp\ccjssdjY.s:195    .text.ap_free_ap:0000000000000008 .L0 
C:\Users\stapi\AppData\Local\Temp\ccjssdjY.s:196    .text.ap_free_ap:0000000000000008 .L0 
C:\Users\stapi\AppData\Local\Temp\ccjssdjY.s:200    .text.ap_free_ap:000000000000000c .L0 
C:\Users\stapi\AppData\Local\Temp\ccjssdjY.s:205    .text.ap_free_ap:0000000000000010 .L0 
C:\Users\stapi\AppData\Local\Temp\ccjssdjY.s:209    .text.ap_free_ap:0000000000000016 .L0 
C:\Users\stapi\AppData\Local\Temp\ccjssdjY.s:210    .text.ap_free_ap:0000000000000016 .L0 
C:\Users\stapi\AppData\Local\Temp\ccjssdjY.s:212    .text.ap_free_ap:0000000000000018 .L0 
C:\Users\stapi\AppData\Local\Temp\ccjssdjY.s:213    .text.ap_free_ap:0000000000000018 .L0 
C:\Users\stapi\AppData\Local\Temp\ccjssdjY.s:215    .text.ap_free_ap:000000000000001c .L0 
C:\Users\stapi\AppData\Local\Temp\ccjssdjY.s:223    .text.ap_free_ap:000000000000002c .L0 
C:\Users\stapi\AppData\Local\Temp\ccjssdjY.s:225    .text.ap_free_ap:000000000000002e .L0 
C:\Users\stapi\AppData\Local\Temp\ccjssdjY.s:226    .text.ap_free_ap:000000000000002e .L0 
C:\Users\stapi\AppData\Local\Temp\ccjssdjY.s:228    .text.ap_free_ap:0000000000000032 .L0 
C:\Users\stapi\AppData\Local\Temp\ccjssdjY.s:236    .text.ap_free_ap:000000000000003a .L0 
C:\Users\stapi\AppData\Local\Temp\ccjssdjY.s:237    .text.ap_free_ap:000000000000003a .L0 
C:\Users\stapi\AppData\Local\Temp\ccjssdjY.s:242    .text.ap_free_ap:0000000000000046 .L0 
C:\Users\stapi\AppData\Local\Temp\ccjssdjY.s:243    .text.ap_free_ap:0000000000000046 .L0 
C:\Users\stapi\AppData\Local\Temp\ccjssdjY.s:245    .text.ap_free_ap:000000000000004a .L0 
C:\Users\stapi\AppData\Local\Temp\ccjssdjY.s:247    .text.ap_free_ap:000000000000004c .L0 
C:\Users\stapi\AppData\Local\Temp\ccjssdjY.s:250    .text.ap_free_ap:0000000000000052 .L0 
C:\Users\stapi\AppData\Local\Temp\ccjssdjY.s:253    .text.ap_free_ap:000000000000005a .L0 
C:\Users\stapi\AppData\Local\Temp\ccjssdjY.s:254    .text.ap_free_ap:0000000000000062 .L0 
C:\Users\stapi\AppData\Local\Temp\ccjssdjY.s:255    .text.ap_free_ap:0000000000000062 .L0 
C:\Users\stapi\AppData\Local\Temp\ccjssdjY.s:256    .text.ap_free_ap:0000000000000062 .L0 
C:\Users\stapi\AppData\Local\Temp\ccjssdjY.s:257    .text.ap_free_ap:0000000000000062 .L0 
C:\Users\stapi\AppData\Local\Temp\ccjssdjY.s:258    .text.ap_free_ap:0000000000000062 .L0 
C:\Users\stapi\AppData\Local\Temp\ccjssdjY.s:259    .text.ap_free_ap:0000000000000062 .L0 
C:\Users\stapi\AppData\Local\Temp\ccjssdjY.s:260    .text.ap_free_ap:0000000000000062 .L0 
C:\Users\stapi\AppData\Local\Temp\ccjssdjY.s:263    .text.ap_free_ap:0000000000000062 .L0 
C:\Users\stapi\AppData\Local\Temp\ccjssdjY.s:267    .text.ap_free_ap:0000000000000062 .L0 
C:\Users\stapi\AppData\Local\Temp\ccjssdjY.s:273    .text.ap_free_ap:0000000000000070 .L0 
C:\Users\stapi\AppData\Local\Temp\ccjssdjY.s:275    .text.ap_free_ap:0000000000000072 .L0 
C:\Users\stapi\AppData\Local\Temp\ccjssdjY.s:276    .text.ap_free_ap:0000000000000072 .L0 
C:\Users\stapi\AppData\Local\Temp\ccjssdjY.s:280    .text.ap_free_ap:0000000000000074 .L0 
C:\Users\stapi\AppData\Local\Temp\ccjssdjY.s:281    .text.ap_free_ap:0000000000000074 .L0 
C:\Users\stapi\AppData\Local\Temp\ccjssdjY.s:283    .text.ap_free_ap:0000000000000076 .L0 
C:\Users\stapi\AppData\Local\Temp\ccjssdjY.s:286    .text.ap_free_ap:0000000000000078 .L0 
C:\Users\stapi\AppData\Local\Temp\ccjssdjY.s:287    .text.ap_free_ap:0000000000000078 .L0 
C:\Users\stapi\AppData\Local\Temp\ccjssdjY.s:289    .text.ap_free_ap:000000000000007a .L0 
C:\Users\stapi\AppData\Local\Temp\ccjssdjY.s:291    .text.ap_free_ap:000000000000007c .L0 
C:\Users\stapi\AppData\Local\Temp\ccjssdjY.s:305    .text.ap_free_ap:00000000000000a8 .L0 
C:\Users\stapi\AppData\Local\Temp\ccjssdjY.s:306    .text.ap_free_ap:00000000000000a8 .L0 
C:\Users\stapi\AppData\Local\Temp\ccjssdjY.s:308    .text.ap_free_ap:00000000000000aa .L0 
C:\Users\stapi\AppData\Local\Temp\ccjssdjY.s:312    .text.ap_free_ap:00000000000000ae .L0 
C:\Users\stapi\AppData\Local\Temp\ccjssdjY.s:332    .text.ap_list_process_beacon:0000000000000000 ap_list_process_beacon
C:\Users\stapi\AppData\Local\Temp\ccjssdjY.s:335    .text.ap_list_process_beacon:0000000000000000 .L0 
C:\Users\stapi\AppData\Local\Temp\ccjssdjY.s:337    .text.ap_list_process_beacon:0000000000000000 .L0 
C:\Users\stapi\AppData\Local\Temp\ccjssdjY.s:338    .text.ap_list_process_beacon:0000000000000000 .L0 
C:\Users\stapi\AppData\Local\Temp\ccjssdjY.s:339    .text.ap_list_process_beacon:0000000000000000 .L0 
C:\Users\stapi\AppData\Local\Temp\ccjssdjY.s:340    .text.ap_list_process_beacon:0000000000000000 .L0 
C:\Users\stapi\AppData\Local\Temp\ccjssdjY.s:341    .text.ap_list_process_beacon:0000000000000000 .L0 
C:\Users\stapi\AppData\Local\Temp\ccjssdjY.s:342    .text.ap_list_process_beacon:0000000000000000 .L0 
C:\Users\stapi\AppData\Local\Temp\ccjssdjY.s:344    .text.ap_list_process_beacon:0000000000000002 .L0 
C:\Users\stapi\AppData\Local\Temp\ccjssdjY.s:347    .text.ap_list_process_beacon:0000000000000008 .L0 
C:\Users\stapi\AppData\Local\Temp\ccjssdjY.s:348    .text.ap_list_process_beacon:0000000000000010 .L0 
C:\Users\stapi\AppData\Local\Temp\ccjssdjY.s:349    .text.ap_list_process_beacon:0000000000000010 .L0 
C:\Users\stapi\AppData\Local\Temp\ccjssdjY.s:350    .text.ap_list_process_beacon:0000000000000010 .L0 
C:\Users\stapi\AppData\Local\Temp\ccjssdjY.s:351    .text.ap_list_process_beacon:0000000000000010 .L0 
C:\Users\stapi\AppData\Local\Temp\ccjssdjY.s:352    .text.ap_list_process_beacon:0000000000000010 .L0 
C:\Users\stapi\AppData\Local\Temp\ccjssdjY.s:353    .text.ap_list_process_beacon:0000000000000010 .L0 
C:\Users\stapi\AppData\Local\Temp\ccjssdjY.s:354    .text.ap_list_process_beacon:0000000000000010 .L0 
C:\Users\stapi\AppData\Local\Temp\ccjssdjY.s:355    .text.ap_list_process_beacon:0000000000000010 .L0 
C:\Users\stapi\AppData\Local\Temp\ccjssdjY.s:359    .text.ap_list_process_beacon:0000000000000010 .L0 
C:\Users\stapi\AppData\Local\Temp\ccjssdjY.s:363    .text.ap_list_process_beacon:0000000000000014 .L0 
C:\Users\stapi\AppData\Local\Temp\ccjssdjY.s:364    .text.ap_list_process_beacon:0000000000000016 .L0 
C:\Users\stapi\AppData\Local\Temp\ccjssdjY.s:369    .text.ap_list_process_beacon:0000000000000018 .L0 
C:\Users\stapi\AppData\Local\Temp\ccjssdjY.s:376    .text.ap_list_process_beacon:0000000000000022 .L0 
C:\Users\stapi\AppData\Local\Temp\ccjssdjY.s:377    .text.ap_list_process_beacon:0000000000000022 .L0 
C:\Users\stapi\AppData\Local\Temp\ccjssdjY.s:382    .text.ap_list_process_beacon:0000000000000026 .L0 
C:\Users\stapi\AppData\Local\Temp\ccjssdjY.s:383    .text.ap_list_process_beacon:0000000000000026 .L0 
C:\Users\stapi\AppData\Local\Temp\ccjssdjY.s:385    .text.ap_list_process_beacon:0000000000000026 .L0 
C:\Users\stapi\AppData\Local\Temp\ccjssdjY.s:386    .text.ap_list_process_beacon:0000000000000026 .L0 
C:\Users\stapi\AppData\Local\Temp\ccjssdjY.s:388    .text.ap_list_process_beacon:000000000000002a .L0 
C:\Users\stapi\AppData\Local\Temp\ccjssdjY.s:395    .text.ap_list_process_beacon:000000000000003c .L0 
C:\Users\stapi\AppData\Local\Temp\ccjssdjY.s:401    .text.ap_list_process_beacon:0000000000000040 .L0 
C:\Users\stapi\AppData\Local\Temp\ccjssdjY.s:410    .text.ap_list_process_beacon:0000000000000060 .L0 
C:\Users\stapi\AppData\Local\Temp\ccjssdjY.s:411    .text.ap_list_process_beacon:0000000000000060 .L0 
C:\Users\stapi\AppData\Local\Temp\ccjssdjY.s:413    .text.ap_list_process_beacon:0000000000000064 .L0 
C:\Users\stapi\AppData\Local\Temp\ccjssdjY.s:415    .text.ap_list_process_beacon:0000000000000066 .L0 
C:\Users\stapi\AppData\Local\Temp\ccjssdjY.s:417    .text.ap_list_process_beacon:0000000000000068 .L0 
C:\Users\stapi\AppData\Local\Temp\ccjssdjY.s:418    .text.ap_list_process_beacon:0000000000000068 .L0 
C:\Users\stapi\AppData\Local\Temp\ccjssdjY.s:422    .text.ap_list_process_beacon:000000000000006e .L0 
C:\Users\stapi\AppData\Local\Temp\ccjssdjY.s:423    .text.ap_list_process_beacon:000000000000006e .L0 
C:\Users\stapi\AppData\Local\Temp\ccjssdjY.s:425    .text.ap_list_process_beacon:0000000000000072 .L0 
C:\Users\stapi\AppData\Local\Temp\ccjssdjY.s:428    .text.ap_list_process_beacon:0000000000000076 .L0 
C:\Users\stapi\AppData\Local\Temp\ccjssdjY.s:429    .text.ap_list_process_beacon:0000000000000076 .L0 
C:\Users\stapi\AppData\Local\Temp\ccjssdjY.s:432    .text.ap_list_process_beacon:000000000000007a .L0 
C:\Users\stapi\AppData\Local\Temp\ccjssdjY.s:435    .text.ap_list_process_beacon:000000000000007c .L0 
C:\Users\stapi\AppData\Local\Temp\ccjssdjY.s:436    .text.ap_list_process_beacon:000000000000007c .L0 
C:\Users\stapi\AppData\Local\Temp\ccjssdjY.s:438    .text.ap_list_process_beacon:0000000000000080 .L0 
C:\Users\stapi\AppData\Local\Temp\ccjssdjY.s:440    .text.ap_list_process_beacon:0000000000000084 .L0 
C:\Users\stapi\AppData\Local\Temp\ccjssdjY.s:443    .text.ap_list_process_beacon:000000000000008a .L0 
C:\Users\stapi\AppData\Local\Temp\ccjssdjY.s:446    .text.ap_list_process_beacon:0000000000000092 .L0 
C:\Users\stapi\AppData\Local\Temp\ccjssdjY.s:447    .text.ap_list_process_beacon:0000000000000092 .L0 
C:\Users\stapi\AppData\Local\Temp\ccjssdjY.s:449    .text.ap_list_process_beacon:0000000000000096 .L0 
C:\Users\stapi\AppData\Local\Temp\ccjssdjY.s:452    .text.ap_list_process_beacon:000000000000009c .L0 
C:\Users\stapi\AppData\Local\Temp\ccjssdjY.s:459    .text.ap_list_process_beacon:00000000000000a8 .L0 
C:\Users\stapi\AppData\Local\Temp\ccjssdjY.s:460    .text.ap_list_process_beacon:00000000000000a8 .L0 
C:\Users\stapi\AppData\Local\Temp\ccjssdjY.s:461    .text.ap_list_process_beacon:00000000000000a8 .L0 
C:\Users\stapi\AppData\Local\Temp\ccjssdjY.s:463    .text.ap_list_process_beacon:00000000000000aa .L0 
C:\Users\stapi\AppData\Local\Temp\ccjssdjY.s:465    .text.ap_list_process_beacon:00000000000000ae .L0 
C:\Users\stapi\AppData\Local\Temp\ccjssdjY.s:466    .text.ap_list_process_beacon:00000000000000ae .L0 
C:\Users\stapi\AppData\Local\Temp\ccjssdjY.s:468    .text.ap_list_process_beacon:00000000000000b0 .L0 
C:\Users\stapi\AppData\Local\Temp\ccjssdjY.s:470    .text.ap_list_process_beacon:00000000000000b2 .L0 
C:\Users\stapi\AppData\Local\Temp\ccjssdjY.s:471    .text.ap_list_process_beacon:00000000000000b2 .L0 
C:\Users\stapi\AppData\Local\Temp\ccjssdjY.s:474    .text.ap_list_process_beacon:00000000000000b4 .L0 
C:\Users\stapi\AppData\Local\Temp\ccjssdjY.s:475    .text.ap_list_process_beacon:00000000000000b4 .L0 
C:\Users\stapi\AppData\Local\Temp\ccjssdjY.s:477    .text.ap_list_process_beacon:00000000000000b6 .L0 
C:\Users\stapi\AppData\Local\Temp\ccjssdjY.s:478    .text.ap_list_process_beacon:00000000000000b6 .L0 
C:\Users\stapi\AppData\Local\Temp\ccjssdjY.s:484    .text.ap_list_process_beacon:00000000000000b8 .L0 
C:\Users\stapi\AppData\Local\Temp\ccjssdjY.s:485    .text.ap_list_process_beacon:00000000000000b8 .L0 
C:\Users\stapi\AppData\Local\Temp\ccjssdjY.s:487    .text.ap_list_process_beacon:00000000000000bc .L0 
C:\Users\stapi\AppData\Local\Temp\ccjssdjY.s:489    .text.ap_list_process_beacon:00000000000000be .L0 
C:\Users\stapi\AppData\Local\Temp\ccjssdjY.s:491    .text.ap_list_process_beacon:00000000000000c0 .L0 
C:\Users\stapi\AppData\Local\Temp\ccjssdjY.s:496    .text.ap_list_process_beacon:00000000000000cc .L0 
C:\Users\stapi\AppData\Local\Temp\ccjssdjY.s:498    .text.ap_list_process_beacon:00000000000000ce .L0 
C:\Users\stapi\AppData\Local\Temp\ccjssdjY.s:499    .text.ap_list_process_beacon:00000000000000ce .L0 
C:\Users\stapi\AppData\Local\Temp\ccjssdjY.s:501    .text.ap_list_process_beacon:00000000000000d0 .L0 
C:\Users\stapi\AppData\Local\Temp\ccjssdjY.s:504    .text.ap_list_process_beacon:00000000000000d6 .L0 
C:\Users\stapi\AppData\Local\Temp\ccjssdjY.s:517    .text.ap_list_process_beacon:0000000000000102 .L0 
C:\Users\stapi\AppData\Local\Temp\ccjssdjY.s:518    .text.ap_list_process_beacon:0000000000000102 .L0 
C:\Users\stapi\AppData\Local\Temp\ccjssdjY.s:522    .text.ap_list_process_beacon:0000000000000104 .L0 
C:\Users\stapi\AppData\Local\Temp\ccjssdjY.s:523    .text.ap_list_process_beacon:0000000000000104 .L0 
C:\Users\stapi\AppData\Local\Temp\ccjssdjY.s:526    .text.ap_list_process_beacon:000000000000010c .L0 
C:\Users\stapi\AppData\Local\Temp\ccjssdjY.s:529    .text.ap_list_process_beacon:0000000000000110 .L0 
C:\Users\stapi\AppData\Local\Temp\ccjssdjY.s:531    .text.ap_list_process_beacon:0000000000000112 .L0 
C:\Users\stapi\AppData\Local\Temp\ccjssdjY.s:533    .text.ap_list_process_beacon:0000000000000114 .L0 
C:\Users\stapi\AppData\Local\Temp\ccjssdjY.s:535    .text.ap_list_process_beacon:0000000000000116 .L0 
C:\Users\stapi\AppData\Local\Temp\ccjssdjY.s:537    .text.ap_list_process_beacon:000000000000011a .L0 
C:\Users\stapi\AppData\Local\Temp\ccjssdjY.s:539    .text.ap_list_process_beacon:000000000000011e .L0 
C:\Users\stapi\AppData\Local\Temp\ccjssdjY.s:541    .text.ap_list_process_beacon:0000000000000122 .L0 
C:\Users\stapi\AppData\Local\Temp\ccjssdjY.s:543    .text.ap_list_process_beacon:0000000000000126 .L0 
C:\Users\stapi\AppData\Local\Temp\ccjssdjY.s:546    .text.ap_list_process_beacon:000000000000012a .L0 
C:\Users\stapi\AppData\Local\Temp\ccjssdjY.s:547    .text.ap_list_process_beacon:000000000000012a .L0 
C:\Users\stapi\AppData\Local\Temp\ccjssdjY.s:550    .text.ap_list_process_beacon:0000000000000130 .L0 
C:\Users\stapi\AppData\Local\Temp\ccjssdjY.s:554    .text.ap_list_process_beacon:000000000000013a .L0 
C:\Users\stapi\AppData\Local\Temp\ccjssdjY.s:568    .text.ap_list_process_beacon:0000000000000168 .L0 
C:\Users\stapi\AppData\Local\Temp\ccjssdjY.s:570    .text.ap_list_process_beacon:0000000000000168 .L0 
C:\Users\stapi\AppData\Local\Temp\ccjssdjY.s:571    .text.ap_list_process_beacon:0000000000000168 .L0 
C:\Users\stapi\AppData\Local\Temp\ccjssdjY.s:580    .text.ap_list_process_beacon:0000000000000174 .L0 
C:\Users\stapi\AppData\Local\Temp\ccjssdjY.s:581    .text.ap_list_process_beacon:0000000000000174 .L0 
C:\Users\stapi\AppData\Local\Temp\ccjssdjY.s:591    .text.ap_list_process_beacon:0000000000000178 .L0 
C:\Users\stapi\AppData\Local\Temp\ccjssdjY.s:599    .text.ap_list_process_beacon:0000000000000188 .L0 
C:\Users\stapi\AppData\Local\Temp\ccjssdjY.s:600    .text.ap_list_process_beacon:0000000000000188 .L0 
C:\Users\stapi\AppData\Local\Temp\ccjssdjY.s:601    .text.ap_list_process_beacon:0000000000000188 .L0 
C:\Users\stapi\AppData\Local\Temp\ccjssdjY.s:603    .text.ap_list_process_beacon:000000000000018a .L0 
C:\Users\stapi\AppData\Local\Temp\ccjssdjY.s:605    .text.ap_list_process_beacon:000000000000018c .L0 
C:\Users\stapi\AppData\Local\Temp\ccjssdjY.s:606    .text.ap_list_process_beacon:000000000000018c .L0 
C:\Users\stapi\AppData\Local\Temp\ccjssdjY.s:608    .text.ap_list_process_beacon:000000000000018e .L0 
C:\Users\stapi\AppData\Local\Temp\ccjssdjY.s:610    .text.ap_list_process_beacon:0000000000000190 .L0 
C:\Users\stapi\AppData\Local\Temp\ccjssdjY.s:611    .text.ap_list_process_beacon:0000000000000190 .L0 
C:\Users\stapi\AppData\Local\Temp\ccjssdjY.s:614    .text.ap_list_process_beacon:0000000000000192 .L0 
C:\Users\stapi\AppData\Local\Temp\ccjssdjY.s:615    .text.ap_list_process_beacon:0000000000000192 .L0 
C:\Users\stapi\AppData\Local\Temp\ccjssdjY.s:619    .text.ap_list_process_beacon:0000000000000194 .L0 
C:\Users\stapi\AppData\Local\Temp\ccjssdjY.s:620    .text.ap_list_process_beacon:0000000000000194 .L0 
C:\Users\stapi\AppData\Local\Temp\ccjssdjY.s:624    .text.ap_list_process_beacon:0000000000000196 .L0 
C:\Users\stapi\AppData\Local\Temp\ccjssdjY.s:631    .text.ap_list_process_beacon:0000000000000198 .L0 
C:\Users\stapi\AppData\Local\Temp\ccjssdjY.s:632    .text.ap_list_process_beacon:0000000000000198 .L0 
C:\Users\stapi\AppData\Local\Temp\ccjssdjY.s:636    .text.ap_list_process_beacon:000000000000019a .L0 
C:\Users\stapi\AppData\Local\Temp\ccjssdjY.s:642    .text.ap_list_process_beacon:000000000000019e .L0 
C:\Users\stapi\AppData\Local\Temp\ccjssdjY.s:643    .text.ap_list_process_beacon:000000000000019e .L0 
C:\Users\stapi\AppData\Local\Temp\ccjssdjY.s:646    .text.ap_list_process_beacon:00000000000001a6 .L0 
C:\Users\stapi\AppData\Local\Temp\ccjssdjY.s:649    .text.ap_list_process_beacon:00000000000001aa .L0 
C:\Users\stapi\AppData\Local\Temp\ccjssdjY.s:650    .text.ap_list_process_beacon:00000000000001aa .L0 
C:\Users\stapi\AppData\Local\Temp\ccjssdjY.s:655    .text.ap_list_process_beacon:00000000000001ac .L0 
C:\Users\stapi\AppData\Local\Temp\ccjssdjY.s:656    .text.ap_list_process_beacon:00000000000001ac .L0 
C:\Users\stapi\AppData\Local\Temp\ccjssdjY.s:658    .text.ap_list_process_beacon:00000000000001ae .L0 
C:\Users\stapi\AppData\Local\Temp\ccjssdjY.s:661    .text.ap_list_process_beacon:00000000000001b4 .L0 
C:\Users\stapi\AppData\Local\Temp\ccjssdjY.s:663    .text.ap_list_process_beacon:00000000000001b6 .L0 
C:\Users\stapi\AppData\Local\Temp\ccjssdjY.s:665    .text.ap_list_process_beacon:00000000000001ba .L0 
C:\Users\stapi\AppData\Local\Temp\ccjssdjY.s:677    .text.ap_list_process_beacon:00000000000001e4 .L0 
C:\Users\stapi\AppData\Local\Temp\ccjssdjY.s:687    .text.ap_list_process_beacon:00000000000001f2 .L0 
C:\Users\stapi\AppData\Local\Temp\ccjssdjY.s:688    .text.ap_list_process_beacon:00000000000001f2 .L0 
C:\Users\stapi\AppData\Local\Temp\ccjssdjY.s:697    .text.ap_list_process_beacon:00000000000001f6 .L0 
C:\Users\stapi\AppData\Local\Temp\ccjssdjY.s:698    .text.ap_list_process_beacon:00000000000001f6 .L0 
C:\Users\stapi\AppData\Local\Temp\ccjssdjY.s:700    .text.ap_list_process_beacon:00000000000001fa .L0 
C:\Users\stapi\AppData\Local\Temp\ccjssdjY.s:702    .text.ap_list_process_beacon:00000000000001fe .L0 
C:\Users\stapi\AppData\Local\Temp\ccjssdjY.s:703    .text.ap_list_process_beacon:00000000000001fe .L0 
C:\Users\stapi\AppData\Local\Temp\ccjssdjY.s:705    .text.ap_list_process_beacon:0000000000000202 .L0 
C:\Users\stapi\AppData\Local\Temp\ccjssdjY.s:706    .text.ap_list_process_beacon:0000000000000202 .L0 
C:\Users\stapi\AppData\Local\Temp\ccjssdjY.s:713    .text.ap_list_process_beacon:0000000000000208 .L0 
C:\Users\stapi\AppData\Local\Temp\ccjssdjY.s:714    .text.ap_list_process_beacon:0000000000000208 .L0 
C:\Users\stapi\AppData\Local\Temp\ccjssdjY.s:721    .text.ap_list_process_beacon:000000000000020c .L0 
C:\Users\stapi\AppData\Local\Temp\ccjssdjY.s:722    .text.ap_list_process_beacon:000000000000020c .L0 
C:\Users\stapi\AppData\Local\Temp\ccjssdjY.s:731    .text.ap_list_process_beacon:0000000000000210 .L0 
C:\Users\stapi\AppData\Local\Temp\ccjssdjY.s:732    .text.ap_list_process_beacon:0000000000000210 .L0 
C:\Users\stapi\AppData\Local\Temp\ccjssdjY.s:735    .text.ap_list_process_beacon:0000000000000210 .L0 
C:\Users\stapi\AppData\Local\Temp\ccjssdjY.s:736    .text.ap_list_process_beacon:0000000000000210 .L0 
C:\Users\stapi\AppData\Local\Temp\ccjssdjY.s:737    .text.ap_list_process_beacon:0000000000000210 .L0 
C:\Users\stapi\AppData\Local\Temp\ccjssdjY.s:738    .text.ap_list_process_beacon:0000000000000210 .L0 
C:\Users\stapi\AppData\Local\Temp\ccjssdjY.s:744    .text.ap_list_process_beacon:000000000000021e .L0 
C:\Users\stapi\AppData\Local\Temp\ccjssdjY.s:745    .text.ap_list_process_beacon:000000000000021e .L0 
C:\Users\stapi\AppData\Local\Temp\ccjssdjY.s:750    .text.ap_list_process_beacon:0000000000000220 .L0 
C:\Users\stapi\AppData\Local\Temp\ccjssdjY.s:751    .text.ap_list_process_beacon:0000000000000220 .L0 
C:\Users\stapi\AppData\Local\Temp\ccjssdjY.s:758    .text.ap_list_process_beacon:0000000000000232 .L0 
C:\Users\stapi\AppData\Local\Temp\ccjssdjY.s:759    .text.ap_list_process_beacon:0000000000000232 .L0 
C:\Users\stapi\AppData\Local\Temp\ccjssdjY.s:760    .text.ap_list_process_beacon:0000000000000234 .L0 
C:\Users\stapi\AppData\Local\Temp\ccjssdjY.s:762    .text.ap_list_process_beacon:000000000000023c .L0 
C:\Users\stapi\AppData\Local\Temp\ccjssdjY.s:763    .text.ap_list_process_beacon:000000000000023c .L0 
C:\Users\stapi\AppData\Local\Temp\ccjssdjY.s:764    .text.ap_list_process_beacon:000000000000023c .L0 
C:\Users\stapi\AppData\Local\Temp\ccjssdjY.s:765    .text.ap_list_process_beacon:000000000000023c .L0 
C:\Users\stapi\AppData\Local\Temp\ccjssdjY.s:766    .text.ap_list_process_beacon:000000000000023c .L0 
C:\Users\stapi\AppData\Local\Temp\ccjssdjY.s:767    .text.ap_list_process_beacon:000000000000023c .L0 
C:\Users\stapi\AppData\Local\Temp\ccjssdjY.s:768    .text.ap_list_process_beacon:000000000000023c .L0 
C:\Users\stapi\AppData\Local\Temp\ccjssdjY.s:769    .text.ap_list_process_beacon:000000000000023c .L0 
C:\Users\stapi\AppData\Local\Temp\ccjssdjY.s:772    .text.ap_list_process_beacon:000000000000023c .L0 
C:\Users\stapi\AppData\Local\Temp\ccjssdjY.s:774    .text.ap_list_process_beacon:000000000000023e .L0 
C:\Users\stapi\AppData\Local\Temp\ccjssdjY.s:788    .text.ap_list_timer:0000000000000000 ap_list_timer
C:\Users\stapi\AppData\Local\Temp\ccjssdjY.s:791    .text.ap_list_timer:0000000000000000 .L0 
C:\Users\stapi\AppData\Local\Temp\ccjssdjY.s:793    .text.ap_list_timer:0000000000000000 .L0 
C:\Users\stapi\AppData\Local\Temp\ccjssdjY.s:794    .text.ap_list_timer:0000000000000000 .L0 
C:\Users\stapi\AppData\Local\Temp\ccjssdjY.s:795    .text.ap_list_timer:0000000000000000 .L0 
C:\Users\stapi\AppData\Local\Temp\ccjssdjY.s:796    .text.ap_list_timer:0000000000000000 .L0 
C:\Users\stapi\AppData\Local\Temp\ccjssdjY.s:797    .text.ap_list_timer:0000000000000000 .L0 
C:\Users\stapi\AppData\Local\Temp\ccjssdjY.s:798    .text.ap_list_timer:0000000000000000 .L0 
C:\Users\stapi\AppData\Local\Temp\ccjssdjY.s:801    .text.ap_list_timer:0000000000000004 .L0 
C:\Users\stapi\AppData\Local\Temp\ccjssdjY.s:802    .text.ap_list_timer:000000000000000c .L0 
C:\Users\stapi\AppData\Local\Temp\ccjssdjY.s:803    .text.ap_list_timer:000000000000000c .L0 
C:\Users\stapi\AppData\Local\Temp\ccjssdjY.s:804    .text.ap_list_timer:000000000000000c .L0 
C:\Users\stapi\AppData\Local\Temp\ccjssdjY.s:805    .text.ap_list_timer:000000000000000c .L0 
C:\Users\stapi\AppData\Local\Temp\ccjssdjY.s:806    .text.ap_list_timer:000000000000000c .L0 
C:\Users\stapi\AppData\Local\Temp\ccjssdjY.s:807    .text.ap_list_timer:000000000000000c .L0 
C:\Users\stapi\AppData\Local\Temp\ccjssdjY.s:808    .text.ap_list_timer:000000000000000c .L0 
C:\Users\stapi\AppData\Local\Temp\ccjssdjY.s:810    .text.ap_list_timer:000000000000000e .L0 
C:\Users\stapi\AppData\Local\Temp\ccjssdjY.s:818    .text.ap_list_timer:0000000000000010 .L0 
C:\Users\stapi\AppData\Local\Temp\ccjssdjY.s:819    .text.ap_list_timer:0000000000000010 .L0 
C:\Users\stapi\AppData\Local\Temp\ccjssdjY.s:825    .text.ap_list_timer:0000000000000014 .L0 
C:\Users\stapi\AppData\Local\Temp\ccjssdjY.s:834    .text.ap_list_timer:000000000000001e .L0 
C:\Users\stapi\AppData\Local\Temp\ccjssdjY.s:835    .text.ap_list_timer:000000000000001e .L0 
C:\Users\stapi\AppData\Local\Temp\ccjssdjY.s:842    .text.ap_list_timer:0000000000000022 .L0 
C:\Users\stapi\AppData\Local\Temp\ccjssdjY.s:843    .text.ap_list_timer:0000000000000022 .L0 
C:\Users\stapi\AppData\Local\Temp\ccjssdjY.s:845    .text.ap_list_timer:0000000000000026 .L0 
C:\Users\stapi\AppData\Local\Temp\ccjssdjY.s:847    .text.ap_list_timer:000000000000002a .L0 
C:\Users\stapi\AppData\Local\Temp\ccjssdjY.s:848    .text.ap_list_timer:000000000000002a .L0 
C:\Users\stapi\AppData\Local\Temp\ccjssdjY.s:851    .text.ap_list_timer:000000000000002e .L0 
C:\Users\stapi\AppData\Local\Temp\ccjssdjY.s:852    .text.ap_list_timer:000000000000002e .L0 
C:\Users\stapi\AppData\Local\Temp\ccjssdjY.s:858    .text.ap_list_timer:0000000000000030 .L0 
C:\Users\stapi\AppData\Local\Temp\ccjssdjY.s:860    .text.ap_list_timer:0000000000000032 .L0 
C:\Users\stapi\AppData\Local\Temp\ccjssdjY.s:866    .text.ap_list_timer:0000000000000034 .L0 
C:\Users\stapi\AppData\Local\Temp\ccjssdjY.s:871    .text.ap_list_timer:0000000000000036 .L0 
C:\Users\stapi\AppData\Local\Temp\ccjssdjY.s:874    .text.ap_list_timer:0000000000000036 .L0 
C:\Users\stapi\AppData\Local\Temp\ccjssdjY.s:875    .text.ap_list_timer:0000000000000036 .L0 
C:\Users\stapi\AppData\Local\Temp\ccjssdjY.s:876    .text.ap_list_timer:0000000000000036 .L0 
C:\Users\stapi\AppData\Local\Temp\ccjssdjY.s:880    .text.ap_list_timer:000000000000003a .L0 
C:\Users\stapi\AppData\Local\Temp\ccjssdjY.s:881    .text.ap_list_timer:000000000000003a .L0 
C:\Users\stapi\AppData\Local\Temp\ccjssdjY.s:885    .text.ap_list_timer:000000000000003e .L0 
C:\Users\stapi\AppData\Local\Temp\ccjssdjY.s:886    .text.ap_list_timer:000000000000003e .L0 
C:\Users\stapi\AppData\Local\Temp\ccjssdjY.s:888    .text.ap_list_timer:0000000000000042 .L0 
C:\Users\stapi\AppData\Local\Temp\ccjssdjY.s:889    .text.ap_list_timer:0000000000000042 .L0 
C:\Users\stapi\AppData\Local\Temp\ccjssdjY.s:892    .text.ap_list_timer:0000000000000044 .L0 
C:\Users\stapi\AppData\Local\Temp\ccjssdjY.s:893    .text.ap_list_timer:0000000000000044 .L0 
C:\Users\stapi\AppData\Local\Temp\ccjssdjY.s:899    .text.ap_list_timer:0000000000000046 .L0 
C:\Users\stapi\AppData\Local\Temp\ccjssdjY.s:900    .text.ap_list_timer:0000000000000046 .L0 
C:\Users\stapi\AppData\Local\Temp\ccjssdjY.s:906    .text.ap_list_timer:000000000000004a .L0 
C:\Users\stapi\AppData\Local\Temp\ccjssdjY.s:915    .text.ap_list_timer:0000000000000056 .L0 
C:\Users\stapi\AppData\Local\Temp\ccjssdjY.s:917    .text.ap_list_timer:000000000000005a .L0 
C:\Users\stapi\AppData\Local\Temp\ccjssdjY.s:923    .text.ap_list_timer:000000000000005e .L0 
C:\Users\stapi\AppData\Local\Temp\ccjssdjY.s:924    .text.ap_list_timer:000000000000005e .L0 
C:\Users\stapi\AppData\Local\Temp\ccjssdjY.s:926    .text.ap_list_timer:0000000000000062 .L0 
C:\Users\stapi\AppData\Local\Temp\ccjssdjY.s:928    .text.ap_list_timer:0000000000000066 .L0 
C:\Users\stapi\AppData\Local\Temp\ccjssdjY.s:933    .text.ap_list_timer:000000000000006c .L0 
C:\Users\stapi\AppData\Local\Temp\ccjssdjY.s:934    .text.ap_list_timer:000000000000006e .L0 
C:\Users\stapi\AppData\Local\Temp\ccjssdjY.s:935    .text.ap_list_timer:000000000000006e .L0 
C:\Users\stapi\AppData\Local\Temp\ccjssdjY.s:937    .text.ap_list_timer:0000000000000076 .L0 
C:\Users\stapi\AppData\Local\Temp\ccjssdjY.s:938    .text.ap_list_timer:0000000000000076 .L0 
C:\Users\stapi\AppData\Local\Temp\ccjssdjY.s:939    .text.ap_list_timer:0000000000000076 .L0 
C:\Users\stapi\AppData\Local\Temp\ccjssdjY.s:940    .text.ap_list_timer:0000000000000076 .L0 
C:\Users\stapi\AppData\Local\Temp\ccjssdjY.s:941    .text.ap_list_timer:0000000000000076 .L0 
C:\Users\stapi\AppData\Local\Temp\ccjssdjY.s:942    .text.ap_list_timer:0000000000000076 .L0 
C:\Users\stapi\AppData\Local\Temp\ccjssdjY.s:943    .text.ap_list_timer:0000000000000076 .L0 
C:\Users\stapi\AppData\Local\Temp\ccjssdjY.s:946    .text.ap_list_timer:0000000000000076 .L0 
C:\Users\stapi\AppData\Local\Temp\ccjssdjY.s:949    .text.ap_list_timer:0000000000000076 .L0 
C:\Users\stapi\AppData\Local\Temp\ccjssdjY.s:950    .text.ap_list_timer:0000000000000076 .L0 
C:\Users\stapi\AppData\Local\Temp\ccjssdjY.s:955    .text.ap_list_timer:0000000000000082 .L0 
C:\Users\stapi\AppData\Local\Temp\ccjssdjY.s:957    .text.ap_list_timer:0000000000000084 .L0 
C:\Users\stapi\AppData\Local\Temp\ccjssdjY.s:961    .text.ap_list_timer:0000000000000086 .L0 
C:\Users\stapi\AppData\Local\Temp\ccjssdjY.s:962    .text.ap_list_timer:0000000000000086 .L0 
C:\Users\stapi\AppData\Local\Temp\ccjssdjY.s:966    .text.ap_list_timer:000000000000008c .L0 
C:\Users\stapi\AppData\Local\Temp\ccjssdjY.s:970    .text.ap_list_timer:000000000000008e .L0 
C:\Users\stapi\AppData\Local\Temp\ccjssdjY.s:971    .text.ap_list_timer:000000000000008e .L0 
C:\Users\stapi\AppData\Local\Temp\ccjssdjY.s:975    .text.ap_list_timer:0000000000000092 .L0 
C:\Users\stapi\AppData\Local\Temp\ccjssdjY.s:977    .text.ap_list_timer:0000000000000096 .L0 
C:\Users\stapi\AppData\Local\Temp\ccjssdjY.s:979    .text.ap_list_timer:000000000000009a .L0 
C:\Users\stapi\AppData\Local\Temp\ccjssdjY.s:991    .text.ap_list_timer:00000000000000a4 .L0 
C:\Users\stapi\AppData\Local\Temp\ccjssdjY.s:992    .text.ap_list_timer:00000000000000a4 .L0 
C:\Users\stapi\AppData\Local\Temp\ccjssdjY.s:994    .text.ap_list_timer:00000000000000a8 .L0 
C:\Users\stapi\AppData\Local\Temp\ccjssdjY.s:996    .text.ap_list_timer:00000000000000ac .L0 
C:\Users\stapi\AppData\Local\Temp\ccjssdjY.s:1002   .text.ap_list_timer:00000000000000be .L0 
C:\Users\stapi\AppData\Local\Temp\ccjssdjY.s:1003   .text.ap_list_timer:00000000000000be .L0 
C:\Users\stapi\AppData\Local\Temp\ccjssdjY.s:1006   .text.ap_list_timer:00000000000000c2 .L0 
C:\Users\stapi\AppData\Local\Temp\ccjssdjY.s:1007   .text.ap_list_timer:00000000000000c2 .L0 
C:\Users\stapi\AppData\Local\Temp\ccjssdjY.s:1008   .text.ap_list_timer:00000000000000c2 .L0 
C:\Users\stapi\AppData\Local\Temp\ccjssdjY.s:1011   .text.ap_list_timer:00000000000000c4 .L0 
C:\Users\stapi\AppData\Local\Temp\ccjssdjY.s:1015   .text.ap_list_timer:00000000000000c6 .L0 
C:\Users\stapi\AppData\Local\Temp\ccjssdjY.s:1018   .text.ap_list_timer:00000000000000cc .L0 
C:\Users\stapi\AppData\Local\Temp\ccjssdjY.s:1024   .text.ap_list_timer:00000000000000de .L0 
C:\Users\stapi\AppData\Local\Temp\ccjssdjY.s:1025   .text.ap_list_timer:00000000000000de .L0 
C:\Users\stapi\AppData\Local\Temp\ccjssdjY.s:1027   .text.ap_list_timer:00000000000000e0 .L0 
C:\Users\stapi\AppData\Local\Temp\ccjssdjY.s:1029   .text.ap_list_timer:00000000000000e4 .L0 
C:\Users\stapi\AppData\Local\Temp\ccjssdjY.s:1033   .text.ap_list_timer:00000000000000ec .L0 
C:\Users\stapi\AppData\Local\Temp\ccjssdjY.s:1035   .text.ap_list_timer:00000000000000ec .L0 
C:\Users\stapi\AppData\Local\Temp\ccjssdjY.s:1036   .text.ap_list_timer:00000000000000ec .L0 
C:\Users\stapi\AppData\Local\Temp\ccjssdjY.s:1042   .text.ap_list_timer:00000000000000f8 .L0 
C:\Users\stapi\AppData\Local\Temp\ccjssdjY.s:1043   .text.ap_list_timer:00000000000000f8 .L0 
C:\Users\stapi\AppData\Local\Temp\ccjssdjY.s:1049   .text.ap_list_timer:00000000000000fc .L0 
C:\Users\stapi\AppData\Local\Temp\ccjssdjY.s:1050   .text.ap_list_timer:00000000000000fc .L0 
C:\Users\stapi\AppData\Local\Temp\ccjssdjY.s:1054   .text.ap_list_timer:0000000000000100 .L0 
C:\Users\stapi\AppData\Local\Temp\ccjssdjY.s:1055   .text.ap_list_timer:0000000000000100 .L0 
C:\Users\stapi\AppData\Local\Temp\ccjssdjY.s:1056   .text.ap_list_timer:0000000000000100 .L0 
C:\Users\stapi\AppData\Local\Temp\ccjssdjY.s:1057   .text.ap_list_timer:0000000000000100 .L0 
C:\Users\stapi\AppData\Local\Temp\ccjssdjY.s:1058   .text.ap_list_timer:0000000000000100 .L0 
C:\Users\stapi\AppData\Local\Temp\ccjssdjY.s:1059   .text.ap_list_timer:0000000000000100 .L0 
C:\Users\stapi\AppData\Local\Temp\ccjssdjY.s:1060   .text.ap_list_timer:0000000000000100 .L0 
C:\Users\stapi\AppData\Local\Temp\ccjssdjY.s:1063   .text.ap_list_timer:0000000000000102 .L0 
C:\Users\stapi\AppData\Local\Temp\ccjssdjY.s:1070   .text.ap_list_init:0000000000000000 ap_list_init
C:\Users\stapi\AppData\Local\Temp\ccjssdjY.s:1073   .text.ap_list_init:0000000000000000 .L0 
C:\Users\stapi\AppData\Local\Temp\ccjssdjY.s:1075   .text.ap_list_init:0000000000000000 .L0 
C:\Users\stapi\AppData\Local\Temp\ccjssdjY.s:1076   .text.ap_list_init:0000000000000000 .L0 
C:\Users\stapi\AppData\Local\Temp\ccjssdjY.s:1077   .text.ap_list_init:0000000000000000 .L0 
C:\Users\stapi\AppData\Local\Temp\ccjssdjY.s:1080   .text.ap_list_init:0000000000000004 .L0 
C:\Users\stapi\AppData\Local\Temp\ccjssdjY.s:1087   .text.ap_list_deinit:0000000000000000 ap_list_deinit
C:\Users\stapi\AppData\Local\Temp\ccjssdjY.s:1090   .text.ap_list_deinit:0000000000000000 .L0 
C:\Users\stapi\AppData\Local\Temp\ccjssdjY.s:1092   .text.ap_list_deinit:0000000000000000 .L0 
C:\Users\stapi\AppData\Local\Temp\ccjssdjY.s:1093   .text.ap_list_deinit:0000000000000008 .L0 
C:\Users\stapi\AppData\Local\Temp\ccjssdjY.s:1094   .text.ap_list_deinit:0000000000000008 .L0 
C:\Users\stapi\AppData\Local\Temp\ccjssdjY.s:1095   .text.ap_list_deinit:0000000000000008 .L0 
C:\Users\stapi\AppData\Local\Temp\ccjssdjY.s:1096   .text.ap_list_deinit:0000000000000008 .L0 
C:\Users\stapi\AppData\Local\Temp\ccjssdjY.s:1101   .text.ap_list_deinit:0000000000000008 .L0 
C:\Users\stapi\AppData\Local\Temp\ccjssdjY.s:1102   .text.ap_list_deinit:0000000000000008 .L0 
C:\Users\stapi\AppData\Local\Temp\ccjssdjY.s:1103   .text.ap_list_deinit:0000000000000008 .L0 
C:\Users\stapi\AppData\Local\Temp\ccjssdjY.s:1104   .text.ap_list_deinit:0000000000000008 .L0 
C:\Users\stapi\AppData\Local\Temp\ccjssdjY.s:1109   .text.ap_list_deinit:000000000000000a .L0 
C:\Users\stapi\AppData\Local\Temp\ccjssdjY.s:1110   .text.ap_list_deinit:000000000000000a .L0 
C:\Users\stapi\AppData\Local\Temp\ccjssdjY.s:1116   .text.ap_list_deinit:000000000000000c .L0 
C:\Users\stapi\AppData\Local\Temp\ccjssdjY.s:1118   .text.ap_list_deinit:000000000000000e .L0 
C:\Users\stapi\AppData\Local\Temp\ccjssdjY.s:1119   .text.ap_list_deinit:000000000000000e .L0 
C:\Users\stapi\AppData\Local\Temp\ccjssdjY.s:1124   .text.ap_list_deinit:0000000000000012 .L0 
C:\Users\stapi\AppData\Local\Temp\ccjssdjY.s:1125   .text.ap_list_deinit:000000000000001a .L0 
C:\Users\stapi\AppData\Local\Temp\ccjssdjY.s:1126   .text.ap_list_deinit:000000000000001a .L0 
C:\Users\stapi\AppData\Local\Temp\ccjssdjY.s:1127   .text.ap_list_deinit:000000000000001a .L0 
C:\Users\stapi\AppData\Local\Temp\ccjssdjY.s:1128   .text.ap_list_deinit:000000000000001a .L0 
C:\Users\stapi\AppData\Local\Temp\ccjssdjY.s:1129   .text.ap_list_deinit:000000000000001a .L0 
C:\Users\stapi\AppData\Local\Temp\ccjssdjY.s:1132   .text.ap_list_deinit:000000000000001a .L0 
C:\Users\stapi\AppData\Local\Temp\ccjssdjY.s:1136   .text.ap_list_deinit:000000000000001a .L0 
C:\Users\stapi\AppData\Local\Temp\ccjssdjY.s:1137   .text.ap_list_deinit:000000000000001a .L0 
C:\Users\stapi\AppData\Local\Temp\ccjssdjY.s:1138   .text.ap_list_deinit:000000000000001a .L0 
C:\Users\stapi\AppData\Local\Temp\ccjssdjY.s:1141   .text.ap_list_deinit:000000000000001c .L0 
C:\Users\stapi\AppData\Local\Temp\ccjssdjY.s:1145   .text.ap_list_deinit:0000000000000026 .L0 
C:\Users\stapi\AppData\Local\Temp\ccjssdjY.s:1149   .text.ap_list_deinit:000000000000002a .L0 
C:\Users\stapi\AppData\Local\Temp\ccjssdjY.s:111    .text.ap_list_beacon_olbc:0000000000000068 .L0 
C:\Users\stapi\AppData\Local\Temp\ccjssdjY.s:170    .text.ap_ap_list_del:0000000000000020 .L0 
C:\Users\stapi\AppData\Local\Temp\ccjssdjY.s:315    .text.ap_free_ap:00000000000000ae .L0 
C:\Users\stapi\AppData\Local\Temp\ccjssdjY.s:777    .text.ap_list_process_beacon:000000000000023e .L0 
C:\Users\stapi\AppData\Local\Temp\ccjssdjY.s:1066   .text.ap_list_timer:0000000000000102 .L0 
C:\Users\stapi\AppData\Local\Temp\ccjssdjY.s:1083   .text.ap_list_init:0000000000000004 .L0 
C:\Users\stapi\AppData\Local\Temp\ccjssdjY.s:1152   .text.ap_list_deinit:000000000000002a .L0 
                     .debug_frame:0000000000000000 .L0 
C:\Users\stapi\AppData\Local\Temp\ccjssdjY.s:100    .text.ap_list_beacon_olbc:0000000000000064 .L11
C:\Users\stapi\AppData\Local\Temp\ccjssdjY.s:105    .text.ap_list_beacon_olbc:0000000000000066 .L1
C:\Users\stapi\AppData\Local\Temp\ccjssdjY.s:53     .text.ap_list_beacon_olbc:000000000000002c .L3
C:\Users\stapi\AppData\Local\Temp\ccjssdjY.s:68     .text.ap_list_beacon_olbc:0000000000000042 .L4
C:\Users\stapi\AppData\Local\Temp\ccjssdjY.s:147    .text.ap_ap_list_del:0000000000000014 .L14
C:\Users\stapi\AppData\Local\Temp\ccjssdjY.s:153    .text.ap_ap_list_del:000000000000001a .L16
C:\Users\stapi\AppData\Local\Temp\ccjssdjY.s:162    .text.ap_ap_list_del:000000000000001e .L13
C:\Users\stapi\AppData\Local\Temp\ccjssdjY.s:129    .text.ap_ap_list_del:000000000000000a .L15
C:\Users\stapi\AppData\Local\Temp\ccjssdjY.s:135    .text.ap_ap_list_del:000000000000000e .L21
C:\Users\stapi\AppData\Local\Temp\ccjssdjY.s:172    .rodata.ap_free_ap.str1.4:0000000000000000 .LC0
C:\Users\stapi\AppData\Local\Temp\ccjssdjY.s:232    .text.ap_free_ap:000000000000003a .L23
C:\Users\stapi\AppData\Local\Temp\ccjssdjY.s:278    .text.ap_free_ap:0000000000000074 .L24
C:\Users\stapi\AppData\Local\Temp\ccjssdjY.s:284    .text.ap_free_ap:0000000000000078 .L29
C:\Users\stapi\AppData\Local\Temp\ccjssdjY.s:262    .text.ap_free_ap:0000000000000062 .L25
C:\Users\stapi\AppData\Local\Temp\ccjssdjY.s:303    .text.ap_free_ap:00000000000000a8 .L26
C:\Users\stapi\AppData\Local\Temp\ccjssdjY.s:323    .rodata.ap_list_process_beacon.str1.4:0000000000000078 .LC3
C:\Users\stapi\AppData\Local\Temp\ccjssdjY.s:326    .rodata.ap_list_process_beacon.str1.4:00000000000000cc .LC4
C:\Users\stapi\AppData\Local\Temp\ccjssdjY.s:320    .rodata.ap_list_process_beacon.str1.4:0000000000000028 .LC2
C:\Users\stapi\AppData\Local\Temp\ccjssdjY.s:317    .rodata.ap_list_process_beacon.str1.4:0000000000000000 .LC1
C:\Users\stapi\AppData\Local\Temp\ccjssdjY.s:771    .text.ap_list_process_beacon:000000000000023c .L77
C:\Users\stapi\AppData\Local\Temp\ccjssdjY.s:725    .text.ap_list_process_beacon:0000000000000210 .L40
C:\Users\stapi\AppData\Local\Temp\ccjssdjY.s:576    .text.ap_list_process_beacon:0000000000000174 .L41
C:\Users\stapi\AppData\Local\Temp\ccjssdjY.s:419    .text.ap_list_process_beacon:000000000000006c .L45
C:\Users\stapi\AppData\Local\Temp\ccjssdjY.s:691    .text.ap_list_process_beacon:00000000000001f6 .L46
C:\Users\stapi\AppData\Local\Temp\ccjssdjY.s:480    .text.ap_list_process_beacon:00000000000000b8 .L49
C:\Users\stapi\AppData\Local\Temp\ccjssdjY.s:709    .text.ap_list_process_beacon:0000000000000208 .L50
C:\Users\stapi\AppData\Local\Temp\ccjssdjY.s:520    .text.ap_list_process_beacon:0000000000000104 .L52
C:\Users\stapi\AppData\Local\Temp\ccjssdjY.s:717    .text.ap_list_process_beacon:000000000000020c .L53
C:\Users\stapi\AppData\Local\Temp\ccjssdjY.s:544    .text.ap_list_process_beacon:000000000000012a .L54
C:\Users\stapi\AppData\Local\Temp\ccjssdjY.s:757    .text.ap_list_process_beacon:0000000000000232 .L36
C:\Users\stapi\AppData\Local\Temp\ccjssdjY.s:384    .text.ap_list_process_beacon:0000000000000026 .L39
C:\Users\stapi\AppData\Local\Temp\ccjssdjY.s:683    .text.ap_list_process_beacon:00000000000001f2 .L43
C:\Users\stapi\AppData\Local\Temp\ccjssdjY.s:397    .text.ap_list_process_beacon:0000000000000040 .L42
C:\Users\stapi\AppData\Local\Temp\ccjssdjY.s:612    .text.ap_list_process_beacon:0000000000000192 .L44
C:\Users\stapi\AppData\Local\Temp\ccjssdjY.s:426    .text.ap_list_process_beacon:0000000000000076 .L81
C:\Users\stapi\AppData\Local\Temp\ccjssdjY.s:433    .text.ap_list_process_beacon:000000000000007c .L47
C:\Users\stapi\AppData\Local\Temp\ccjssdjY.s:430    .text.ap_list_process_beacon:000000000000007a .L80
C:\Users\stapi\AppData\Local\Temp\ccjssdjY.s:472    .text.ap_list_process_beacon:00000000000000b4 .L51
C:\Users\stapi\AppData\Local\Temp\ccjssdjY.s:569    .text.ap_list_process_beacon:0000000000000168 .L55
C:\Users\stapi\AppData\Local\Temp\ccjssdjY.s:585    .text.ap_list_process_beacon:0000000000000178 .L75
C:\Users\stapi\AppData\Local\Temp\ccjssdjY.s:779    .rodata.ap_list_timer.str1.4:0000000000000000 .LC5
C:\Users\stapi\AppData\Local\Temp\ccjssdjY.s:782    .rodata.ap_list_timer.str1.4:000000000000001c .LC6
C:\Users\stapi\AppData\Local\Temp\ccjssdjY.s:1053   .text.ap_list_timer:0000000000000100 .L123
C:\Users\stapi\AppData\Local\Temp\ccjssdjY.s:919    .text.ap_list_timer:000000000000005e .L89
C:\Users\stapi\AppData\Local\Temp\ccjssdjY.s:895    .text.ap_list_timer:0000000000000046 .L85
C:\Users\stapi\AppData\Local\Temp\ccjssdjY.s:911    .text.ap_list_timer:0000000000000056 .L86
C:\Users\stapi\AppData\Local\Temp\ccjssdjY.s:836    .text.ap_list_timer:0000000000000022 .L84
C:\Users\stapi\AppData\Local\Temp\ccjssdjY.s:901    .text.ap_list_timer:000000000000004a .L88
C:\Users\stapi\AppData\Local\Temp\ccjssdjY.s:982    .text.ap_list_timer:000000000000009e .L104
C:\Users\stapi\AppData\Local\Temp\ccjssdjY.s:959    .text.ap_list_timer:0000000000000086 .L93
C:\Users\stapi\AppData\Local\Temp\ccjssdjY.s:968    .text.ap_list_timer:000000000000008e .L94
C:\Users\stapi\AppData\Local\Temp\ccjssdjY.s:988    .text.ap_list_timer:00000000000000a4 .L95
C:\Users\stapi\AppData\Local\Temp\ccjssdjY.s:945    .text.ap_list_timer:0000000000000076 .L96
C:\Users\stapi\AppData\Local\Temp\ccjssdjY.s:931    .text.ap_list_timer:000000000000006c .L82
C:\Users\stapi\AppData\Local\Temp\ccjssdjY.s:973    .text.ap_list_timer:0000000000000092 .L121
C:\Users\stapi\AppData\Local\Temp\ccjssdjY.s:1046   .text.ap_list_timer:00000000000000fc .L98
C:\Users\stapi\AppData\Local\Temp\ccjssdjY.s:1034   .text.ap_list_timer:00000000000000ec .L100
C:\Users\stapi\AppData\Local\Temp\ccjssdjY.s:1040   .text.ap_list_timer:00000000000000f8 .L101
C:\Users\stapi\AppData\Local\Temp\ccjssdjY.s:1013   .text.ap_list_timer:00000000000000c6 .L99
C:\Users\stapi\AppData\Local\Temp\ccjssdjY.s:1131   .text.ap_list_deinit:000000000000001a .L129
C:\Users\stapi\AppData\Local\Temp\ccjssdjY.s:1112   .text.ap_list_deinit:000000000000000c .L128
C:\Users\stapi\AppData\Local\Temp\ccjssdjY.s:18956  .debug_abbrev:0000000000000000 .Ldebug_abbrev0
C:\Users\stapi\AppData\Local\Temp\ccjssdjY.s:22954  .debug_str:0000000000003603 .LASF1664
C:\Users\stapi\AppData\Local\Temp\ccjssdjY.s:24108  .debug_str:00000000000057ea .LASF1665
C:\Users\stapi\AppData\Local\Temp\ccjssdjY.s:24186  .debug_str:0000000000005a88 .LASF1666
C:\Users\stapi\AppData\Local\Temp\ccjssdjY.s:20960  .debug_ranges:0000000000000000 .Ldebug_ranges0
C:\Users\stapi\AppData\Local\Temp\ccjssdjY.s:21070  .debug_line:0000000000000000 .Ldebug_line0
C:\Users\stapi\AppData\Local\Temp\ccjssdjY.s:21556  .debug_str:0000000000000dda .LASF1
C:\Users\stapi\AppData\Local\Temp\ccjssdjY.s:24398  .debug_str:0000000000006126 .LASF0
C:\Users\stapi\AppData\Local\Temp\ccjssdjY.s:22418  .debug_str:0000000000002617 .LASF2
C:\Users\stapi\AppData\Local\Temp\ccjssdjY.s:23690  .debug_str:0000000000004bb5 .LASF3
C:\Users\stapi\AppData\Local\Temp\ccjssdjY.s:21722  .debug_str:000000000000127f .LASF4
C:\Users\stapi\AppData\Local\Temp\ccjssdjY.s:22724  .debug_str:0000000000002f30 .LASF5
C:\Users\stapi\AppData\Local\Temp\ccjssdjY.s:23266  .debug_str:000000000000401a .LASF6
C:\Users\stapi\AppData\Local\Temp\ccjssdjY.s:22114  .debug_str:0000000000001d49 .LASF7
C:\Users\stapi\AppData\Local\Temp\ccjssdjY.s:22572  .debug_str:0000000000002afc .LASF8
C:\Users\stapi\AppData\Local\Temp\ccjssdjY.s:23380  .debug_str:0000000000004312 .LASF9
C:\Users\stapi\AppData\Local\Temp\ccjssdjY.s:23376  .debug_str:00000000000042fd .LASF10
C:\Users\stapi\AppData\Local\Temp\ccjssdjY.s:22910  .debug_str:00000000000034a6 .LASF11
C:\Users\stapi\AppData\Local\Temp\ccjssdjY.s:21118  .debug_str:000000000000014a .LASF12
C:\Users\stapi\AppData\Local\Temp\ccjssdjY.s:21078  .debug_str:0000000000000040 .LASF13
C:\Users\stapi\AppData\Local\Temp\ccjssdjY.s:23760  .debug_str:0000000000004db7 .LASF14
C:\Users\stapi\AppData\Local\Temp\ccjssdjY.s:23838  .debug_str:0000000000004fd9 .LASF15
C:\Users\stapi\AppData\Local\Temp\ccjssdjY.s:24012  .debug_str:00000000000054f1 .LASF16
C:\Users\stapi\AppData\Local\Temp\ccjssdjY.s:23778  .debug_str:0000000000004e41 .LASF17
C:\Users\stapi\AppData\Local\Temp\ccjssdjY.s:22638  .debug_str:0000000000002cd5 .LASF18
C:\Users\stapi\AppData\Local\Temp\ccjssdjY.s:23816  .debug_str:0000000000004f42 .LASF19
C:\Users\stapi\AppData\Local\Temp\ccjssdjY.s:24344  .debug_str:0000000000005f88 .LASF20
C:\Users\stapi\AppData\Local\Temp\ccjssdjY.s:21320  .debug_str:000000000000073d .LASF21
C:\Users\stapi\AppData\Local\Temp\ccjssdjY.s:22158  .debug_str:0000000000001e94 .LASF22
C:\Users\stapi\AppData\Local\Temp\ccjssdjY.s:22348  .debug_str:00000000000023ff .LASF23
C:\Users\stapi\AppData\Local\Temp\ccjssdjY.s:22216  .debug_str:000000000000200c .LASF24
C:\Users\stapi\AppData\Local\Temp\ccjssdjY.s:22810  .debug_str:00000000000031a8 .LASF25
C:\Users\stapi\AppData\Local\Temp\ccjssdjY.s:21888  .debug_str:000000000000171c .LASF27
C:\Users\stapi\AppData\Local\Temp\ccjssdjY.s:21494  .debug_str:0000000000000be6 .LASF29
C:\Users\stapi\AppData\Local\Temp\ccjssdjY.s:22344  .debug_str:00000000000023e2 .LASF26
C:\Users\stapi\AppData\Local\Temp\ccjssdjY.s:22500  .debug_str:0000000000002897 .LASF28
C:\Users\stapi\AppData\Local\Temp\ccjssdjY.s:23966  .debug_str:000000000000539b .LASF30
C:\Users\stapi\AppData\Local\Temp\ccjssdjY.s:22078  .debug_str:0000000000001c5f .LASF31
C:\Users\stapi\AppData\Local\Temp\ccjssdjY.s:21526  .debug_str:0000000000000ce3 .LASF32
C:\Users\stapi\AppData\Local\Temp\ccjssdjY.s:22144  .debug_str:0000000000001e25 .LASF33
C:\Users\stapi\AppData\Local\Temp\ccjssdjY.s:21188  .debug_str:0000000000000370 .LASF34
C:\Users\stapi\AppData\Local\Temp\ccjssdjY.s:21482  .debug_str:0000000000000b83 .LASF35
C:\Users\stapi\AppData\Local\Temp\ccjssdjY.s:23968  .debug_str:00000000000053a0 .LASF36
C:\Users\stapi\AppData\Local\Temp\ccjssdjY.s:23964  .debug_str:0000000000005395 .LASF37
C:\Users\stapi\AppData\Local\Temp\ccjssdjY.s:23242  .debug_str:0000000000003f78 .LASF38
C:\Users\stapi\AppData\Local\Temp\ccjssdjY.s:22702  .debug_str:0000000000002e8f .LASF39
C:\Users\stapi\AppData\Local\Temp\ccjssdjY.s:22818  .debug_str:00000000000031f0 .LASF40
C:\Users\stapi\AppData\Local\Temp\ccjssdjY.s:22768  .debug_str:000000000000308e .LASF41
C:\Users\stapi\AppData\Local\Temp\ccjssdjY.s:22170  .debug_str:0000000000001ed5 .LASF42
C:\Users\stapi\AppData\Local\Temp\ccjssdjY.s:23522  .debug_str:00000000000046c0 .LASF43
C:\Users\stapi\AppData\Local\Temp\ccjssdjY.s:24098  .debug_str:0000000000005783 .LASF144
C:\Users\stapi\AppData\Local\Temp\ccjssdjY.s:21598  .debug_str:0000000000000ef7 .LASF44
C:\Users\stapi\AppData\Local\Temp\ccjssdjY.s:23542  .debug_str:000000000000474b .LASF45
C:\Users\stapi\AppData\Local\Temp\ccjssdjY.s:22654  .debug_str:0000000000002d40 .LASF46
C:\Users\stapi\AppData\Local\Temp\ccjssdjY.s:24248  .debug_str:0000000000005ca2 .LASF47
C:\Users\stapi\AppData\Local\Temp\ccjssdjY.s:22622  .debug_str:0000000000002c53 .LASF48
C:\Users\stapi\AppData\Local\Temp\ccjssdjY.s:22554  .debug_str:0000000000002a7c .LASF49
C:\Users\stapi\AppData\Local\Temp\ccjssdjY.s:23910  .debug_str:0000000000005200 .LASF50
C:\Users\stapi\AppData\Local\Temp\ccjssdjY.s:24170  .debug_str:0000000000005a22 .LASF51
C:\Users\stapi\AppData\Local\Temp\ccjssdjY.s:21294  .debug_str:0000000000000662 .LASF52
C:\Users\stapi\AppData\Local\Temp\ccjssdjY.s:24320  .debug_str:0000000000005ed9 .LASF53
C:\Users\stapi\AppData\Local\Temp\ccjssdjY.s:21190  .debug_str:0000000000000377 .LASF54
C:\Users\stapi\AppData\Local\Temp\ccjssdjY.s:21288  .debug_str:0000000000000649 .LASF55
C:\Users\stapi\AppData\Local\Temp\ccjssdjY.s:21364  .debug_str:0000000000000846 .LASF56
C:\Users\stapi\AppData\Local\Temp\ccjssdjY.s:23088  .debug_str:0000000000003b12 .LASF57
C:\Users\stapi\AppData\Local\Temp\ccjssdjY.s:22628  .debug_str:0000000000002c87 .LASF58
C:\Users\stapi\AppData\Local\Temp\ccjssdjY.s:23520  .debug_str:00000000000046b5 .LASF59
C:\Users\stapi\AppData\Local\Temp\ccjssdjY.s:21990  .debug_str:00000000000019f8 .LASF60
C:\Users\stapi\AppData\Local\Temp\ccjssdjY.s:21620  .debug_str:0000000000000fa8 .LASF61
C:\Users\stapi\AppData\Local\Temp\ccjssdjY.s:21942  .debug_str:00000000000018a2 .LASF62
C:\Users\stapi\AppData\Local\Temp\ccjssdjY.s:21832  .debug_str:000000000000158f .LASF63
C:\Users\stapi\AppData\Local\Temp\ccjssdjY.s:22958  .debug_str:0000000000003707 .LASF64
C:\Users\stapi\AppData\Local\Temp\ccjssdjY.s:24348  .debug_str:0000000000005fa3 .LASF65
C:\Users\stapi\AppData\Local\Temp\ccjssdjY.s:22584  .debug_str:0000000000002b52 .LASF66
C:\Users\stapi\AppData\Local\Temp\ccjssdjY.s:21672  .debug_str:000000000000111a .LASF67
C:\Users\stapi\AppData\Local\Temp\ccjssdjY.s:23970  .debug_str:00000000000053a5 .LASF68
C:\Users\stapi\AppData\Local\Temp\ccjssdjY.s:23110  .debug_str:0000000000003bca .LASF69
C:\Users\stapi\AppData\Local\Temp\ccjssdjY.s:23710  .debug_str:0000000000004c2a .LASF70
C:\Users\stapi\AppData\Local\Temp\ccjssdjY.s:21360  .debug_str:0000000000000820 .LASF71
C:\Users\stapi\AppData\Local\Temp\ccjssdjY.s:23678  .debug_str:0000000000004b54 .LASF72
C:\Users\stapi\AppData\Local\Temp\ccjssdjY.s:22734  .debug_str:0000000000002f71 .LASF73
C:\Users\stapi\AppData\Local\Temp\ccjssdjY.s:22580  .debug_str:0000000000002b3d .LASF74
C:\Users\stapi\AppData\Local\Temp\ccjssdjY.s:22582  .debug_str:0000000000002b49 .LASF75
C:\Users\stapi\AppData\Local\Temp\ccjssdjY.s:22968  .debug_str:0000000000003741 .LASF76
C:\Users\stapi\AppData\Local\Temp\ccjssdjY.s:21780  .debug_str:0000000000001413 .LASF77
C:\Users\stapi\AppData\Local\Temp\ccjssdjY.s:22362  .debug_str:0000000000002463 .LASF78
C:\Users\stapi\AppData\Local\Temp\ccjssdjY.s:24302  .debug_str:0000000000005e45 .LASF79
C:\Users\stapi\AppData\Local\Temp\ccjssdjY.s:21232  .debug_str:00000000000004aa .LASF80
C:\Users\stapi\AppData\Local\Temp\ccjssdjY.s:21578  .debug_str:0000000000000e7e .LASF81
C:\Users\stapi\AppData\Local\Temp\ccjssdjY.s:23162  .debug_str:0000000000003d43 .LASF82
C:\Users\stapi\AppData\Local\Temp\ccjssdjY.s:22510  .debug_str:00000000000028e9 .LASF83
C:\Users\stapi\AppData\Local\Temp\ccjssdjY.s:23670  .debug_str:0000000000004b17 .LASF84
C:\Users\stapi\AppData\Local\Temp\ccjssdjY.s:22054  .debug_str:0000000000001bb9 .LASF85
C:\Users\stapi\AppData\Local\Temp\ccjssdjY.s:21222  .debug_str:000000000000046e .LASF86
C:\Users\stapi\AppData\Local\Temp\ccjssdjY.s:23206  .debug_str:0000000000003e91 .LASF87
C:\Users\stapi\AppData\Local\Temp\ccjssdjY.s:23172  .debug_str:0000000000003d71 .LASF88
C:\Users\stapi\AppData\Local\Temp\ccjssdjY.s:22086  .debug_str:0000000000001c8d .LASF89
C:\Users\stapi\AppData\Local\Temp\ccjssdjY.s:21396  .debug_str:0000000000000919 .LASF90
C:\Users\stapi\AppData\Local\Temp\ccjssdjY.s:22454  .debug_str:0000000000002738 .LASF91
C:\Users\stapi\AppData\Local\Temp\ccjssdjY.s:23438  .debug_str:00000000000044af .LASF92
C:\Users\stapi\AppData\Local\Temp\ccjssdjY.s:22782  .debug_str:00000000000030e7 .LASF93
C:\Users\stapi\AppData\Local\Temp\ccjssdjY.s:24048  .debug_str:0000000000005614 .LASF94
C:\Users\stapi\AppData\Local\Temp\ccjssdjY.s:23936  .debug_str:00000000000052a9 .LASF95
C:\Users\stapi\AppData\Local\Temp\ccjssdjY.s:22226  .debug_str:000000000000204b .LASF96
C:\Users\stapi\AppData\Local\Temp\ccjssdjY.s:23112  .debug_str:0000000000003bd1 .LASF97
C:\Users\stapi\AppData\Local\Temp\ccjssdjY.s:22202  .debug_str:0000000000001fb7 .LASF98
C:\Users\stapi\AppData\Local\Temp\ccjssdjY.s:23452  .debug_str:00000000000044fa .LASF99
C:\Users\stapi\AppData\Local\Temp\ccjssdjY.s:23784  .debug_str:0000000000004e74 .LASF100
C:\Users\stapi\AppData\Local\Temp\ccjssdjY.s:23052  .debug_str:0000000000003a08 .LASF101
C:\Users\stapi\AppData\Local\Temp\ccjssdjY.s:24260  .debug_str:0000000000005cf6 .LASF102
C:\Users\stapi\AppData\Local\Temp\ccjssdjY.s:21714  .debug_str:000000000000124f .LASF103
C:\Users\stapi\AppData\Local\Temp\ccjssdjY.s:22562  .debug_str:0000000000002ab0 .LASF104
C:\Users\stapi\AppData\Local\Temp\ccjssdjY.s:23686  .debug_str:0000000000004b99 .LASF105
C:\Users\stapi\AppData\Local\Temp\ccjssdjY.s:21994  .debug_str:0000000000001a0c .LASF106
C:\Users\stapi\AppData\Local\Temp\ccjssdjY.s:22710  .debug_str:0000000000002ec3 .LASF107
C:\Users\stapi\AppData\Local\Temp\ccjssdjY.s:22806  .debug_str:0000000000003191 .LASF108
C:\Users\stapi\AppData\Local\Temp\ccjssdjY.s:21112  .debug_str:0000000000000123 .LASF109
C:\Users\stapi\AppData\Local\Temp\ccjssdjY.s:23370  .debug_str:00000000000042dd .LASF110
C:\Users\stapi\AppData\Local\Temp\ccjssdjY.s:21618  .debug_str:0000000000000fa2 .LASF111
C:\Users\stapi\AppData\Local\Temp\ccjssdjY.s:22398  .debug_str:000000000000258c .LASF112
C:\Users\stapi\AppData\Local\Temp\ccjssdjY.s:21574  .debug_str:0000000000000e57 .LASF113
C:\Users\stapi\AppData\Local\Temp\ccjssdjY.s:21658  .debug_str:00000000000010b8 .LASF114
C:\Users\stapi\AppData\Local\Temp\ccjssdjY.s:23536  .debug_str:000000000000471d .LASF115
C:\Users\stapi\AppData\Local\Temp\ccjssdjY.s:23292  .debug_str:00000000000040b3 .LASF116
C:\Users\stapi\AppData\Local\Temp\ccjssdjY.s:21172  .debug_str:00000000000002eb .LASF117
C:\Users\stapi\AppData\Local\Temp\ccjssdjY.s:22484  .debug_str:000000000000282c .LASF118
C:\Users\stapi\AppData\Local\Temp\ccjssdjY.s:24164  .debug_str:00000000000059e7 .LASF119
C:\Users\stapi\AppData\Local\Temp\ccjssdjY.s:21508  .debug_str:0000000000000c48 .LASF120
C:\Users\stapi\AppData\Local\Temp\ccjssdjY.s:24072  .debug_str:00000000000056d1 .LASF121
C:\Users\stapi\AppData\Local\Temp\ccjssdjY.s:23594  .debug_str:00000000000048f4 .LASF122
C:\Users\stapi\AppData\Local\Temp\ccjssdjY.s:22646  .debug_str:0000000000002cfe .LASF123
C:\Users\stapi\AppData\Local\Temp\ccjssdjY.s:23682  .debug_str:0000000000004b6e .LASF124
C:\Users\stapi\AppData\Local\Temp\ccjssdjY.s:24008  .debug_str:00000000000054d6 .LASF125
C:\Users\stapi\AppData\Local\Temp\ccjssdjY.s:21666  .debug_str:00000000000010f5 .LASF126
C:\Users\stapi\AppData\Local\Temp\ccjssdjY.s:23700  .debug_str:0000000000004be8 .LASF127
C:\Users\stapi\AppData\Local\Temp\ccjssdjY.s:21370  .debug_str:0000000000000873 .LASF128
C:\Users\stapi\AppData\Local\Temp\ccjssdjY.s:24362  .debug_str:0000000000005ffe .LASF129
C:\Users\stapi\AppData\Local\Temp\ccjssdjY.s:21544  .debug_str:0000000000000d6a .LASF130
C:\Users\stapi\AppData\Local\Temp\ccjssdjY.s:22278  .debug_str:00000000000021c3 .LASF131
C:\Users\stapi\AppData\Local\Temp\ccjssdjY.s:22518  .debug_str:0000000000002930 .LASF132
C:\Users\stapi\AppData\Local\Temp\ccjssdjY.s:24286  .debug_str:0000000000005dcc .LASF133
C:\Users\stapi\AppData\Local\Temp\ccjssdjY.s:23616  .debug_str:0000000000004999 .LASF134
C:\Users\stapi\AppData\Local\Temp\ccjssdjY.s:21176  .debug_str:0000000000000313 .LASF135
C:\Users\stapi\AppData\Local\Temp\ccjssdjY.s:22914  .debug_str:00000000000034c3 .LASF136
C:\Users\stapi\AppData\Local\Temp\ccjssdjY.s:23290  .debug_str:00000000000040ad .LASF137
C:\Users\stapi\AppData\Local\Temp\ccjssdjY.s:22888  .debug_str:00000000000033fc .LASF138
C:\Users\stapi\AppData\Local\Temp\ccjssdjY.s:24374  .debug_str:0000000000006063 .LASF139
C:\Users\stapi\AppData\Local\Temp\ccjssdjY.s:24160  .debug_str:00000000000059c4 .LASF140
C:\Users\stapi\AppData\Local\Temp\ccjssdjY.s:22436  .debug_str:00000000000026a5 .LASF141
C:\Users\stapi\AppData\Local\Temp\ccjssdjY.s:21308  .debug_str:00000000000006d3 .LASF142
C:\Users\stapi\AppData\Local\Temp\ccjssdjY.s:22912  .debug_str:00000000000034b1 .LASF143
C:\Users\stapi\AppData\Local\Temp\ccjssdjY.s:22006  .debug_str:0000000000001a52 .LASF145
C:\Users\stapi\AppData\Local\Temp\ccjssdjY.s:22964  .debug_str:000000000000371f .LASF146
C:\Users\stapi\AppData\Local\Temp\ccjssdjY.s:22966  .debug_str:0000000000003730 .LASF147
C:\Users\stapi\AppData\Local\Temp\ccjssdjY.s:24322  .debug_str:0000000000005eea .LASF148
C:\Users\stapi\AppData\Local\Temp\ccjssdjY.s:23512  .debug_str:0000000000004688 .LASF149
C:\Users\stapi\AppData\Local\Temp\ccjssdjY.s:22866  .debug_str:000000000000334e .LASF150
C:\Users\stapi\AppData\Local\Temp\ccjssdjY.s:23788  .debug_str:0000000000004e8d .LASF151
C:\Users\stapi\AppData\Local\Temp\ccjssdjY.s:21890  .debug_str:0000000000001724 .LASF152
C:\Users\stapi\AppData\Local\Temp\ccjssdjY.s:23384  .debug_str:0000000000004327 .LASF153
C:\Users\stapi\AppData\Local\Temp\ccjssdjY.s:21486  .debug_str:0000000000000bab .LASF154
C:\Users\stapi\AppData\Local\Temp\ccjssdjY.s:21974  .debug_str:0000000000001970 .LASF155
C:\Users\stapi\AppData\Local\Temp\ccjssdjY.s:21300  .debug_str:000000000000068d .LASF156
C:\Users\stapi\AppData\Local\Temp\ccjssdjY.s:23948  .debug_str:0000000000005317 .LASF157
C:\Users\stapi\AppData\Local\Temp\ccjssdjY.s:23608  .debug_str:000000000000495c .LASF158
C:\Users\stapi\AppData\Local\Temp\ccjssdjY.s:23736  .debug_str:0000000000004ceb .LASF159
C:\Users\stapi\AppData\Local\Temp\ccjssdjY.s:22338  .debug_str:00000000000023aa .LASF160
C:\Users\stapi\AppData\Local\Temp\ccjssdjY.s:23850  .debug_str:000000000000502f .LASF161
C:\Users\stapi\AppData\Local\Temp\ccjssdjY.s:23368  .debug_str:00000000000042d1 .LASF162
C:\Users\stapi\AppData\Local\Temp\ccjssdjY.s:21130  .debug_str:00000000000001b1 .LASF163
C:\Users\stapi\AppData\Local\Temp\ccjssdjY.s:22878  .debug_str:00000000000033a9 .LASF164
C:\Users\stapi\AppData\Local\Temp\ccjssdjY.s:21514  .debug_str:0000000000000c68 .LASF165
C:\Users\stapi\AppData\Local\Temp\ccjssdjY.s:21886  .debug_str:000000000000170c .LASF166
C:\Users\stapi\AppData\Local\Temp\ccjssdjY.s:22978  .debug_str:00000000000037a8 .LASF167
C:\Users\stapi\AppData\Local\Temp\ccjssdjY.s:22980  .debug_str:00000000000037c0 .LASF168
C:\Users\stapi\AppData\Local\Temp\ccjssdjY.s:22976  .debug_str:0000000000003790 .LASF169
C:\Users\stapi\AppData\Local\Temp\ccjssdjY.s:23020  .debug_str:00000000000038f7 .LASF170
C:\Users\stapi\AppData\Local\Temp\ccjssdjY.s:21298  .debug_str:0000000000000673 .LASF171
C:\Users\stapi\AppData\Local\Temp\ccjssdjY.s:23576  .debug_str:0000000000004868 .LASF172
C:\Users\stapi\AppData\Local\Temp\ccjssdjY.s:21624  .debug_str:0000000000000fba .LASF173
C:\Users\stapi\AppData\Local\Temp\ccjssdjY.s:22698  .debug_str:0000000000002e76 .LASF174
C:\Users\stapi\AppData\Local\Temp\ccjssdjY.s:21710  .debug_str:0000000000001234 .LASF175
C:\Users\stapi\AppData\Local\Temp\ccjssdjY.s:24148  .debug_str:0000000000005978 .LASF176
C:\Users\stapi\AppData\Local\Temp\ccjssdjY.s:24264  .debug_str:0000000000005d0e .LASF177
C:\Users\stapi\AppData\Local\Temp\ccjssdjY.s:21638  .debug_str:000000000000101e .LASF178
C:\Users\stapi\AppData\Local\Temp\ccjssdjY.s:23716  .debug_str:0000000000004c4b .LASF179
C:\Users\stapi\AppData\Local\Temp\ccjssdjY.s:22376  .debug_str:00000000000024db .LASF180
C:\Users\stapi\AppData\Local\Temp\ccjssdjY.s:23668  .debug_str:0000000000004b07 .LASF181
C:\Users\stapi\AppData\Local\Temp\ccjssdjY.s:22372  .debug_str:00000000000024b5 .LASF182
C:\Users\stapi\AppData\Local\Temp\ccjssdjY.s:23128  .debug_str:0000000000003c4d .LASF183
C:\Users\stapi\AppData\Local\Temp\ccjssdjY.s:22396  .debug_str:0000000000002579 .LASF184
C:\Users\stapi\AppData\Local\Temp\ccjssdjY.s:22032  .debug_str:0000000000001b08 .LASF185
C:\Users\stapi\AppData\Local\Temp\ccjssdjY.s:22094  .debug_str:0000000000001cca .LASF186
C:\Users\stapi\AppData\Local\Temp\ccjssdjY.s:22218  .debug_str:0000000000002012 .LASF187
C:\Users\stapi\AppData\Local\Temp\ccjssdjY.s:22052  .debug_str:0000000000001ba8 .LASF188
C:\Users\stapi\AppData\Local\Temp\ccjssdjY.s:21542  .debug_str:0000000000000d5b .LASF189
C:\Users\stapi\AppData\Local\Temp\ccjssdjY.s:21460  .debug_str:0000000000000ad2 .LASF190
C:\Users\stapi\AppData\Local\Temp\ccjssdjY.s:23126  .debug_str:0000000000003c3d .LASF191
C:\Users\stapi\AppData\Local\Temp\ccjssdjY.s:23234  .debug_str:0000000000003f3f .LASF192
C:\Users\stapi\AppData\Local\Temp\ccjssdjY.s:21588  .debug_str:0000000000000eb4 .LASF193
C:\Users\stapi\AppData\Local\Temp\ccjssdjY.s:23754  .debug_str:0000000000004d8d .LASF194
C:\Users\stapi\AppData\Local\Temp\ccjssdjY.s:22184  .debug_str:0000000000001f2c .LASF195
C:\Users\stapi\AppData\Local\Temp\ccjssdjY.s:24014  .debug_str:00000000000054f6 .LASF196
C:\Users\stapi\AppData\Local\Temp\ccjssdjY.s:21438  .debug_str:0000000000000a54 .LASF197
C:\Users\stapi\AppData\Local\Temp\ccjssdjY.s:22208  .debug_str:0000000000001fd5 .LASF198
C:\Users\stapi\AppData\Local\Temp\ccjssdjY.s:22268  .debug_str:0000000000002185 .LASF199
C:\Users\stapi\AppData\Local\Temp\ccjssdjY.s:21444  .debug_str:0000000000000a7f .LASF200
C:\Users\stapi\AppData\Local\Temp\ccjssdjY.s:24268  .debug_str:0000000000005d34 .LASF201
C:\Users\stapi\AppData\Local\Temp\ccjssdjY.s:22606  .debug_str:0000000000002be8 .LASF202
C:\Users\stapi\AppData\Local\Temp\ccjssdjY.s:24000  .debug_str:00000000000054a0 .LASF203
C:\Users\stapi\AppData\Local\Temp\ccjssdjY.s:21896  .debug_str:0000000000001758 .LASF204
C:\Users\stapi\AppData\Local\Temp\ccjssdjY.s:24102  .debug_str:00000000000057a5 .LASF205
C:\Users\stapi\AppData\Local\Temp\ccjssdjY.s:22358  .debug_str:0000000000002441 .LASF206
C:\Users\stapi\AppData\Local\Temp\ccjssdjY.s:23016  .debug_str:00000000000038c3 .LASF207
C:\Users\stapi\AppData\Local\Temp\ccjssdjY.s:22432  .debug_str:000000000000267d .LASF208
C:\Users\stapi\AppData\Local\Temp\ccjssdjY.s:23982  .debug_str:0000000000005409 .LASF209
C:\Users\stapi\AppData\Local\Temp\ccjssdjY.s:23064  .debug_str:0000000000003a58 .LASF210
C:\Users\stapi\AppData\Local\Temp\ccjssdjY.s:21316  .debug_str:000000000000071b .LASF211
C:\Users\stapi\AppData\Local\Temp\ccjssdjY.s:22594  .debug_str:0000000000002b88 .LASF212
C:\Users\stapi\AppData\Local\Temp\ccjssdjY.s:24370  .debug_str:0000000000006044 .LASF213
C:\Users\stapi\AppData\Local\Temp\ccjssdjY.s:22856  .debug_str:00000000000032e8 .LASF214
C:\Users\stapi\AppData\Local\Temp\ccjssdjY.s:22450  .debug_str:0000000000002711 .LASF215
C:\Users\stapi\AppData\Local\Temp\ccjssdjY.s:23720  .debug_str:0000000000004c75 .LASF216
C:\Users\stapi\AppData\Local\Temp\ccjssdjY.s:22374  .debug_str:00000000000024c4 .LASF217
C:\Users\stapi\AppData\Local\Temp\ccjssdjY.s:24016  .debug_str:0000000000005506 .LASF218
C:\Users\stapi\AppData\Local\Temp\ccjssdjY.s:22134  .debug_str:0000000000001ded .LASF219
C:\Users\stapi\AppData\Local\Temp\ccjssdjY.s:22808  .debug_str:00000000000031a0 .LASF220
C:\Users\stapi\AppData\Local\Temp\ccjssdjY.s:21330  .debug_str:000000000000077c .LASF221
C:\Users\stapi\AppData\Local\Temp\ccjssdjY.s:21676  .debug_str:0000000000001133 .LASF222
C:\Users\stapi\AppData\Local\Temp\ccjssdjY.s:21670  .debug_str:0000000000001114 .LASF223
C:\Users\stapi\AppData\Local\Temp\ccjssdjY.s:23768  .debug_str:0000000000004e04 .LASF224
C:\Users\stapi\AppData\Local\Temp\ccjssdjY.s:22742  .debug_str:0000000000002fb6 .LASF225
C:\Users\stapi\AppData\Local\Temp\ccjssdjY.s:24206  .debug_str:0000000000005bac .LASF226
C:\Users\stapi\AppData\Local\Temp\ccjssdjY.s:23472  .debug_str:000000000000457e .LASF227
C:\Users\stapi\AppData\Local\Temp\ccjssdjY.s:22604  .debug_str:0000000000002be3 .LASF228
C:\Users\stapi\AppData\Local\Temp\ccjssdjY.s:23080  .debug_str:0000000000003ae0 .LASF229
C:\Users\stapi\AppData\Local\Temp\ccjssdjY.s:24226  .debug_str:0000000000005c19 .LASF230
C:\Users\stapi\AppData\Local\Temp\ccjssdjY.s:22780  .debug_str:00000000000030dd .LASF231
C:\Users\stapi\AppData\Local\Temp\ccjssdjY.s:21248  .debug_str:0000000000000526 .LASF232
C:\Users\stapi\AppData\Local\Temp\ccjssdjY.s:22680  .debug_str:0000000000002dfa .LASF233
C:\Users\stapi\AppData\Local\Temp\ccjssdjY.s:22030  .debug_str:0000000000001b01 .LASF234
C:\Users\stapi\AppData\Local\Temp\ccjssdjY.s:22848  .debug_str:00000000000032c7 .LASF235
C:\Users\stapi\AppData\Local\Temp\ccjssdjY.s:21082  .debug_str:000000000000005c .LASF236
C:\Users\stapi\AppData\Local\Temp\ccjssdjY.s:22150  .debug_str:0000000000001e5f .LASF237
C:\Users\stapi\AppData\Local\Temp\ccjssdjY.s:21826  .debug_str:0000000000001568 .LASF238
C:\Users\stapi\AppData\Local\Temp\ccjssdjY.s:22730  .debug_str:0000000000002f54 .LASF239
C:\Users\stapi\AppData\Local\Temp\ccjssdjY.s:24224  .debug_str:0000000000005c14 .LASF240
C:\Users\stapi\AppData\Local\Temp\ccjssdjY.s:23316  .debug_str:0000000000004152 .LASF241
C:\Users\stapi\AppData\Local\Temp\ccjssdjY.s:21816  .debug_str:0000000000001522 .LASF242
C:\Users\stapi\AppData\Local\Temp\ccjssdjY.s:21194  .debug_str:00000000000003a0 .LASF243
C:\Users\stapi\AppData\Local\Temp\ccjssdjY.s:23572  .debug_str:000000000000484a .LASF244
C:\Users\stapi\AppData\Local\Temp\ccjssdjY.s:21934  .debug_str:000000000000186c .LASF245
C:\Users\stapi\AppData\Local\Temp\ccjssdjY.s:22770  .debug_str:0000000000003097 .LASF246
C:\Users\stapi\AppData\Local\Temp\ccjssdjY.s:22640  .debug_str:0000000000002cdd .LASF247
C:\Users\stapi\AppData\Local\Temp\ccjssdjY.s:22920  .debug_str:00000000000034f9 .LASF248
C:\Users\stapi\AppData\Local\Temp\ccjssdjY.s:22514  .debug_str:0000000000002907 .LASF249
C:\Users\stapi\AppData\Local\Temp\ccjssdjY.s:22566  .debug_str:0000000000002ad2 .LASF250
C:\Users\stapi\AppData\Local\Temp\ccjssdjY.s:22904  .debug_str:000000000000347e .LASF251
C:\Users\stapi\AppData\Local\Temp\ccjssdjY.s:21434  .debug_str:0000000000000a35 .LASF252
C:\Users\stapi\AppData\Local\Temp\ccjssdjY.s:21806  .debug_str:00000000000014e2 .LASF253
C:\Users\stapi\AppData\Local\Temp\ccjssdjY.s:23414  .debug_str:0000000000004400 .LASF254
C:\Users\stapi\AppData\Local\Temp\ccjssdjY.s:22892  .debug_str:0000000000003424 .LASF255
C:\Users\stapi\AppData\Local\Temp\ccjssdjY.s:21446  .debug_str:0000000000000a8e .LASF256
C:\Users\stapi\AppData\Local\Temp\ccjssdjY.s:23812  .debug_str:0000000000004f22 .LASF257
C:\Users\stapi\AppData\Local\Temp\ccjssdjY.s:22650  .debug_str:0000000000002d1c .LASF258
C:\Users\stapi\AppData\Local\Temp\ccjssdjY.s:21924  .debug_str:0000000000001830 .LASF259
C:\Users\stapi\AppData\Local\Temp\ccjssdjY.s:22934  .debug_str:0000000000003561 .LASF260
C:\Users\stapi\AppData\Local\Temp\ccjssdjY.s:22076  .debug_str:0000000000001c5a .LASF261
C:\Users\stapi\AppData\Local\Temp\ccjssdjY.s:21640  .debug_str:000000000000102f .LASF262
C:\Users\stapi\AppData\Local\Temp\ccjssdjY.s:21674  .debug_str:0000000000001123 .LASF263
C:\Users\stapi\AppData\Local\Temp\ccjssdjY.s:21170  .debug_str:00000000000002df .LASF264
C:\Users\stapi\AppData\Local\Temp\ccjssdjY.s:23482  .debug_str:00000000000045c1 .LASF265
C:\Users\stapi\AppData\Local\Temp\ccjssdjY.s:21940  .debug_str:000000000000189b .LASF266
C:\Users\stapi\AppData\Local\Temp\ccjssdjY.s:23840  .debug_str:0000000000004ff0 .LASF267
C:\Users\stapi\AppData\Local\Temp\ccjssdjY.s:21852  .debug_str:000000000000160c .LASF268
C:\Users\stapi\AppData\Local\Temp\ccjssdjY.s:23362  .debug_str:00000000000042a3 .LASF269
C:\Users\stapi\AppData\Local\Temp\ccjssdjY.s:23990  .debug_str:0000000000005454 .LASF270
C:\Users\stapi\AppData\Local\Temp\ccjssdjY.s:23178  .debug_str:0000000000003db3 .LASF271
C:\Users\stapi\AppData\Local\Temp\ccjssdjY.s:23210  .debug_str:0000000000003ea4 .LASF272
C:\Users\stapi\AppData\Local\Temp\ccjssdjY.s:22748  .debug_str:0000000000002fd6 .LASF273
C:\Users\stapi\AppData\Local\Temp\ccjssdjY.s:23962  .debug_str:0000000000005381 .LASF274
C:\Users\stapi\AppData\Local\Temp\ccjssdjY.s:22026  .debug_str:0000000000001aeb .LASF275
C:\Users\stapi\AppData\Local\Temp\ccjssdjY.s:23748  .debug_str:0000000000004d50 .LASF276
C:\Users\stapi\AppData\Local\Temp\ccjssdjY.s:21868  .debug_str:00000000000016a8 .LASF277
C:\Users\stapi\AppData\Local\Temp\ccjssdjY.s:23570  .debug_str:000000000000483f .LASF278
C:\Users\stapi\AppData\Local\Temp\ccjssdjY.s:23388  .debug_str:000000000000434f .LASF279
C:\Users\stapi\AppData\Local\Temp\ccjssdjY.s:21812  .debug_str:0000000000001511 .LASF280
C:\Users\stapi\AppData\Local\Temp\ccjssdjY.s:22774  .debug_str:00000000000030b2 .LASF281
C:\Users\stapi\AppData\Local\Temp\ccjssdjY.s:21682  .debug_str:0000000000001166 .LASF282
C:\Users\stapi\AppData\Local\Temp\ccjssdjY.s:23424  .debug_str:0000000000004455 .LASF283
C:\Users\stapi\AppData\Local\Temp\ccjssdjY.s:22152  .debug_str:0000000000001e69 .LASF284
C:\Users\stapi\AppData\Local\Temp\ccjssdjY.s:21528  .debug_str:0000000000000ce8 .LASF285
C:\Users\stapi\AppData\Local\Temp\ccjssdjY.s:23198  .debug_str:0000000000003e5b .LASF286
C:\Users\stapi\AppData\Local\Temp\ccjssdjY.s:22186  .debug_str:0000000000001f35 .LASF287
C:\Users\stapi\AppData\Local\Temp\ccjssdjY.s:23276  .debug_str:000000000000405c .LASF288
C:\Users\stapi\AppData\Local\Temp\ccjssdjY.s:21510  .debug_str:0000000000000c4f .LASF289
C:\Users\stapi\AppData\Local\Temp\ccjssdjY.s:23564  .debug_str:000000000000480d .LASF290
C:\Users\stapi\AppData\Local\Temp\ccjssdjY.s:21442  .debug_str:0000000000000a76 .LASF291
C:\Users\stapi\AppData\Local\Temp\ccjssdjY.s:21772  .debug_str:00000000000013dd .LASF292
C:\Users\stapi\AppData\Local\Temp\ccjssdjY.s:22368  .debug_str:0000000000002494 .LASF293
C:\Users\stapi\AppData\Local\Temp\ccjssdjY.s:21096  .debug_str:00000000000000b0 .LASF294
C:\Users\stapi\AppData\Local\Temp\ccjssdjY.s:22252  .debug_str:0000000000002117 .LASF295
C:\Users\stapi\AppData\Local\Temp\ccjssdjY.s:23382  .debug_str:000000000000431c .LASF296
C:\Users\stapi\AppData\Local\Temp\ccjssdjY.s:23646  .debug_str:0000000000004a67 .LASF297
C:\Users\stapi\AppData\Local\Temp\ccjssdjY.s:23870  .debug_str:00000000000050c0 .LASF298
C:\Users\stapi\AppData\Local\Temp\ccjssdjY.s:21492  .debug_str:0000000000000bd8 .LASF299
C:\Users\stapi\AppData\Local\Temp\ccjssdjY.s:22010  .debug_str:0000000000001a75 .LASF300
C:\Users\stapi\AppData\Local\Temp\ccjssdjY.s:22022  .debug_str:0000000000001ac0 .LASF301
C:\Users\stapi\AppData\Local\Temp\ccjssdjY.s:24038  .debug_str:00000000000055bc .LASF302
C:\Users\stapi\AppData\Local\Temp\ccjssdjY.s:23070  .debug_str:0000000000003a93 .LASF303
C:\Users\stapi\AppData\Local\Temp\ccjssdjY.s:23186  .debug_str:0000000000003dfa .LASF304
C:\Users\stapi\AppData\Local\Temp\ccjssdjY.s:24134  .debug_str:0000000000005915 .LASF305
C:\Users\stapi\AppData\Local\Temp\ccjssdjY.s:24292  .debug_str:0000000000005df6 .LASF306
C:\Users\stapi\AppData\Local\Temp\ccjssdjY.s:21250  .debug_str:000000000000052f .LASF307
C:\Users\stapi\AppData\Local\Temp\ccjssdjY.s:22538  .debug_str:00000000000029e9 .LASF308
C:\Users\stapi\AppData\Local\Temp\ccjssdjY.s:22700  .debug_str:0000000000002e87 .LASF309
C:\Users\stapi\AppData\Local\Temp\ccjssdjY.s:21938  .debug_str:0000000000001893 .LASF310
C:\Users\stapi\AppData\Local\Temp\ccjssdjY.s:23620  .debug_str:00000000000049b3 .LASF311
C:\Users\stapi\AppData\Local\Temp\ccjssdjY.s:22936  .debug_str:0000000000003566 .LASF312
C:\Users\stapi\AppData\Local\Temp\ccjssdjY.s:24138  .debug_str:000000000000592a .LASF313
C:\Users\stapi\AppData\Local\Temp\ccjssdjY.s:22120  .debug_str:0000000000001d79 .LASF314
C:\Users\stapi\AppData\Local\Temp\ccjssdjY.s:23002  .debug_str:000000000000385d .LASF315
C:\Users\stapi\AppData\Local\Temp\ccjssdjY.s:22040  .debug_str:0000000000001b55 .LASF316
C:\Users\stapi\AppData\Local\Temp\ccjssdjY.s:22974  .debug_str:0000000000003788 .LASF317
C:\Users\stapi\AppData\Local\Temp\ccjssdjY.s:21128  .debug_str:00000000000001a8 .LASF318
C:\Users\stapi\AppData\Local\Temp\ccjssdjY.s:24122  .debug_str:00000000000058c3 .LASF319
C:\Users\stapi\AppData\Local\Temp\ccjssdjY.s:24050  .debug_str:0000000000005623 .LASF320
C:\Users\stapi\AppData\Local\Temp\ccjssdjY.s:22460  .debug_str:0000000000002761 .LASF321
C:\Users\stapi\AppData\Local\Temp\ccjssdjY.s:24046  .debug_str:0000000000005604 .LASF322
C:\Users\stapi\AppData\Local\Temp\ccjssdjY.s:21498  .debug_str:0000000000000bfa .LASF323
C:\Users\stapi\AppData\Local\Temp\ccjssdjY.s:23130  .debug_str:0000000000003c58 .LASF324
C:\Users\stapi\AppData\Local\Temp\ccjssdjY.s:21372  .debug_str:0000000000000887 .LASF325
C:\Users\stapi\AppData\Local\Temp\ccjssdjY.s:24070  .debug_str:00000000000056bd .LASF326
C:\Users\stapi\AppData\Local\Temp\ccjssdjY.s:22124  .debug_str:0000000000001d93 .LASF327
C:\Users\stapi\AppData\Local\Temp\ccjssdjY.s:22740  .debug_str:0000000000002fa9 .LASF328
C:\Users\stapi\AppData\Local\Temp\ccjssdjY.s:22942  .debug_str:000000000000359c .LASF329
C:\Users\stapi\AppData\Local\Temp\ccjssdjY.s:21968  .debug_str:0000000000001944 .LASF330
C:\Users\stapi\AppData\Local\Temp\ccjssdjY.s:23852  .debug_str:0000000000005044 .LASF331
C:\Users\stapi\AppData\Local\Temp\ccjssdjY.s:22244  .debug_str:00000000000020db .LASF332
C:\Users\stapi\AppData\Local\Temp\ccjssdjY.s:24040  .debug_str:00000000000055c5 .LASF333
C:\Users\stapi\AppData\Local\Temp\ccjssdjY.s:23012  .debug_str:00000000000038a3 .LASF334
C:\Users\stapi\AppData\Local\Temp\ccjssdjY.s:21426  .debug_str:00000000000009fa .LASF335
C:\Users\stapi\AppData\Local\Temp\ccjssdjY.s:22352  .debug_str:0000000000002412 .LASF336
C:\Users\stapi\AppData\Local\Temp\ccjssdjY.s:23698  .debug_str:0000000000004be0 .LASF337
C:\Users\stapi\AppData\Local\Temp\ccjssdjY.s:24332  .debug_str:0000000000005f38 .LASF338
C:\Users\stapi\AppData\Local\Temp\ccjssdjY.s:21436  .debug_str:0000000000000a40 .LASF339
C:\Users\stapi\AppData\Local\Temp\ccjssdjY.s:21980  .debug_str:000000000000198f .LASF340
C:\Users\stapi\AppData\Local\Temp\ccjssdjY.s:22326  .debug_str:000000000000235b .LASF341
C:\Users\stapi\AppData\Local\Temp\ccjssdjY.s:22042  .debug_str:0000000000001b5e .LASF342
C:\Users\stapi\AppData\Local\Temp\ccjssdjY.s:22812  .debug_str:00000000000031b2 .LASF343
C:\Users\stapi\AppData\Local\Temp\ccjssdjY.s:21166  .debug_str:00000000000002cc .LASF344
C:\Users\stapi\AppData\Local\Temp\ccjssdjY.s:24242  .debug_str:0000000000005c84 .LASF345
C:\Users\stapi\AppData\Local\Temp\ccjssdjY.s:22342  .debug_str:00000000000023cc .LASF346
C:\Users\stapi\AppData\Local\Temp\ccjssdjY.s:24086  .debug_str:000000000000572b .LASF347
C:\Users\stapi\AppData\Local\Temp\ccjssdjY.s:23856  .debug_str:0000000000005060 .LASF348
C:\Users\stapi\AppData\Local\Temp\ccjssdjY.s:21182  .debug_str:000000000000034a .LASF349
C:\Users\stapi\AppData\Local\Temp\ccjssdjY.s:23920  .debug_str:0000000000005246 .LASF350
C:\Users\stapi\AppData\Local\Temp\ccjssdjY.s:22060  .debug_str:0000000000001bde .LASF351
C:\Users\stapi\AppData\Local\Temp\ccjssdjY.s:21982  .debug_str:00000000000019a0 .LASF352
C:\Users\stapi\AppData\Local\Temp\ccjssdjY.s:21538  .debug_str:0000000000000d47 .LASF353
C:\Users\stapi\AppData\Local\Temp\ccjssdjY.s:23796  .debug_str:0000000000004eba .LASF354
C:\Users\stapi\AppData\Local\Temp\ccjssdjY.s:22180  .debug_str:0000000000001f17 .LASF355
C:\Users\stapi\AppData\Local\Temp\ccjssdjY.s:23510  .debug_str:0000000000004683 .LASF356
C:\Users\stapi\AppData\Local\Temp\ccjssdjY.s:23240  .debug_str:0000000000003f70 .LASF357
C:\Users\stapi\AppData\Local\Temp\ccjssdjY.s:22188  .debug_str:0000000000001f46 .LASF358
C:\Users\stapi\AppData\Local\Temp\ccjssdjY.s:24402  .debug_str:0000000000006146 .LASF359
C:\Users\stapi\AppData\Local\Temp\ccjssdjY.s:23258  .debug_str:0000000000003fea .LASF360
C:\Users\stapi\AppData\Local\Temp\ccjssdjY.s:22356  .debug_str:0000000000002430 .LASF361
C:\Users\stapi\AppData\Local\Temp\ccjssdjY.s:23496  .debug_str:000000000000461d .LASF362
C:\Users\stapi\AppData\Local\Temp\ccjssdjY.s:21344  .debug_str:00000000000007e8 .LASF363
C:\Users\stapi\AppData\Local\Temp\ccjssdjY.s:21346  .debug_str:00000000000007ef .LASF364
C:\Users\stapi\AppData\Local\Temp\ccjssdjY.s:21476  .debug_str:0000000000000b6a .LASF365
C:\Users\stapi\AppData\Local\Temp\ccjssdjY.s:21348  .debug_str:00000000000007f6 .LASF366
C:\Users\stapi\AppData\Local\Temp\ccjssdjY.s:21350  .debug_str:00000000000007fd .LASF367
C:\Users\stapi\AppData\Local\Temp\ccjssdjY.s:21352  .debug_str:0000000000000804 .LASF368
C:\Users\stapi\AppData\Local\Temp\ccjssdjY.s:21354  .debug_str:000000000000080b .LASF369
C:\Users\stapi\AppData\Local\Temp\ccjssdjY.s:21356  .debug_str:0000000000000812 .LASF370
C:\Users\stapi\AppData\Local\Temp\ccjssdjY.s:21358  .debug_str:0000000000000819 .LASF371
C:\Users\stapi\AppData\Local\Temp\ccjssdjY.s:22662  .debug_str:0000000000002d76 .LASF372
C:\Users\stapi\AppData\Local\Temp\ccjssdjY.s:22270  .debug_str:0000000000002191 .LASF373
C:\Users\stapi\AppData\Local\Temp\ccjssdjY.s:24192  .debug_str:0000000000005b36 .LASF374
C:\Users\stapi\AppData\Local\Temp\ccjssdjY.s:21416  .debug_str:00000000000009bf .LASF375
C:\Users\stapi\AppData\Local\Temp\ccjssdjY.s:23108  .debug_str:0000000000003bb1 .LASF376
C:\Users\stapi\AppData\Local\Temp\ccjssdjY.s:21702  .debug_str:00000000000011ff .LASF377
C:\Users\stapi\AppData\Local\Temp\ccjssdjY.s:23938  .debug_str:00000000000052bb .LASF378
C:\Users\stapi\AppData\Local\Temp\ccjssdjY.s:21992  .debug_str:0000000000001a02 .LASF379
C:\Users\stapi\AppData\Local\Temp\ccjssdjY.s:22902  .debug_str:0000000000003474 .LASF380
C:\Users\stapi\AppData\Local\Temp\ccjssdjY.s:22988  .debug_str:00000000000037f8 .LASF381
C:\Users\stapi\AppData\Local\Temp\ccjssdjY.s:21394  .debug_str:0000000000000911 .LASF382
C:\Users\stapi\AppData\Local\Temp\ccjssdjY.s:22400  .debug_str:0000000000002595 .LASF383
C:\Users\stapi\AppData\Local\Temp\ccjssdjY.s:24220  .debug_str:0000000000005bfd .LASF384
C:\Users\stapi\AppData\Local\Temp\ccjssdjY.s:23082  .debug_str:0000000000003aeb .LASF385
C:\Users\stapi\AppData\Local\Temp\ccjssdjY.s:21284  .debug_str:0000000000000630 .LASF386
C:\Users\stapi\AppData\Local\Temp\ccjssdjY.s:21428  .debug_str:0000000000000a0f .LASF387
C:\Users\stapi\AppData\Local\Temp\ccjssdjY.s:21576  .debug_str:0000000000000e71 .LASF388
C:\Users\stapi\AppData\Local\Temp\ccjssdjY.s:21726  .debug_str:0000000000001292 .LASF389
C:\Users\stapi\AppData\Local\Temp\ccjssdjY.s:24262  .debug_str:0000000000005d01 .LASF390
C:\Users\stapi\AppData\Local\Temp\ccjssdjY.s:21214  .debug_str:0000000000000423 .LASF391
C:\Users\stapi\AppData\Local\Temp\ccjssdjY.s:23842  .debug_str:0000000000004ffb .LASF392
C:\Users\stapi\AppData\Local\Temp\ccjssdjY.s:24250  .debug_str:0000000000005cb7 .LASF393
C:\Users\stapi\AppData\Local\Temp\ccjssdjY.s:22242  .debug_str:00000000000020c9 .LASF394
C:\Users\stapi\AppData\Local\Temp\ccjssdjY.s:22110  .debug_str:0000000000001d32 .LASF395
C:\Users\stapi\AppData\Local\Temp\ccjssdjY.s:21206  .debug_str:00000000000003ef .LASF396
C:\Users\stapi\AppData\Local\Temp\ccjssdjY.s:24314  .debug_str:0000000000005ea8 .LASF397
C:\Users\stapi\AppData\Local\Temp\ccjssdjY.s:21810  .debug_str:0000000000001503 .LASF398
C:\Users\stapi\AppData\Local\Temp\ccjssdjY.s:24150  .debug_str:0000000000005987 .LASF399
C:\Users\stapi\AppData\Local\Temp\ccjssdjY.s:21094  .debug_str:00000000000000a0 .LASF400
C:\Users\stapi\AppData\Local\Temp\ccjssdjY.s:21756  .debug_str:0000000000001365 .LASF401
C:\Users\stapi\AppData\Local\Temp\ccjssdjY.s:21650  .debug_str:0000000000001082 .LASF402
C:\Users\stapi\AppData\Local\Temp\ccjssdjY.s:22254  .debug_str:0000000000002122 .LASF403
C:\Users\stapi\AppData\Local\Temp\ccjssdjY.s:23658  .debug_str:0000000000004ab0 .LASF404
C:\Users\stapi\AppData\Local\Temp\ccjssdjY.s:21072  .debug_str:0000000000000000 .LASF405
C:\Users\stapi\AppData\Local\Temp\ccjssdjY.s:24342  .debug_str:0000000000005f81 .LASF406
C:\Users\stapi\AppData\Local\Temp\ccjssdjY.s:21138  .debug_str:00000000000001f3 .LASF407
C:\Users\stapi\AppData\Local\Temp\ccjssdjY.s:24114  .debug_str:0000000000005896 .LASF408
C:\Users\stapi\AppData\Local\Temp\ccjssdjY.s:22210  .debug_str:0000000000001fe1 .LASF409
C:\Users\stapi\AppData\Local\Temp\ccjssdjY.s:22540  .debug_str:00000000000029f8 .LASF410
C:\Users\stapi\AppData\Local\Temp\ccjssdjY.s:21592  .debug_str:0000000000000ed9 .LASF411
C:\Users\stapi\AppData\Local\Temp\ccjssdjY.s:22916  .debug_str:00000000000034de .LASF412
C:\Users\stapi\AppData\Local\Temp\ccjssdjY.s:21866  .debug_str:000000000000169b .LASF413
C:\Users\stapi\AppData\Local\Temp\ccjssdjY.s:24284  .debug_str:0000000000005dbf .LASF414
C:\Users\stapi\AppData\Local\Temp\ccjssdjY.s:23484  .debug_str:00000000000045cc .LASF415
C:\Users\stapi\AppData\Local\Temp\ccjssdjY.s:21830  .debug_str:000000000000157f .LASF416
C:\Users\stapi\AppData\Local\Temp\ccjssdjY.s:23890  .debug_str:000000000000516d .LASF417
C:\Users\stapi\AppData\Local\Temp\ccjssdjY.s:24282  .debug_str:0000000000005db3 .LASF418
C:\Users\stapi\AppData\Local\Temp\ccjssdjY.s:24080  .debug_str:00000000000056fd .LASF419
C:\Users\stapi\AppData\Local\Temp\ccjssdjY.s:23090  .debug_str:0000000000003b1d .LASF420
C:\Users\stapi\AppData\Local\Temp\ccjssdjY.s:23592  .debug_str:00000000000048e3 .LASF421
C:\Users\stapi\AppData\Local\Temp\ccjssdjY.s:23474  .debug_str:000000000000458f .LASF422
C:\Users\stapi\AppData\Local\Temp\ccjssdjY.s:23322  .debug_str:000000000000416e .LASF423
C:\Users\stapi\AppData\Local\Temp\ccjssdjY.s:22206  .debug_str:0000000000001fcd .LASF424
C:\Users\stapi\AppData\Local\Temp\ccjssdjY.s:21870  .debug_str:00000000000016b0 .LASF425
C:\Users\stapi\AppData\Local\Temp\ccjssdjY.s:22314  .debug_str:00000000000022fe .LASF426
C:\Users\stapi\AppData\Local\Temp\ccjssdjY.s:23518  .debug_str:00000000000046ae .LASF427
C:\Users\stapi\AppData\Local\Temp\ccjssdjY.s:24032  .debug_str:0000000000005583 .LASF428
C:\Users\stapi\AppData\Local\Temp\ccjssdjY.s:23282  .debug_str:000000000000407d .LASF429
C:\Users\stapi\AppData\Local\Temp\ccjssdjY.s:21572  .debug_str:0000000000000e46 .LASF430
C:\Users\stapi\AppData\Local\Temp\ccjssdjY.s:22624  .debug_str:0000000000002c69 .LASF431
C:\Users\stapi\AppData\Local\Temp\ccjssdjY.s:22304  .debug_str:000000000000229f .LASF432
C:\Users\stapi\AppData\Local\Temp\ccjssdjY.s:23844  .debug_str:0000000000005008 .LASF433
C:\Users\stapi\AppData\Local\Temp\ccjssdjY.s:23286  .debug_str:0000000000004096 .LASF434
C:\Users\stapi\AppData\Local\Temp\ccjssdjY.s:22828  .debug_str:000000000000324c .LASF435
C:\Users\stapi\AppData\Local\Temp\ccjssdjY.s:22012  .debug_str:0000000000001a80 .LASF436
C:\Users\stapi\AppData\Local\Temp\ccjssdjY.s:22234  .debug_str:0000000000002074 .LASF437
C:\Users\stapi\AppData\Local\Temp\ccjssdjY.s:21336  .debug_str:00000000000007a6 .LASF438
C:\Users\stapi\AppData\Local\Temp\ccjssdjY.s:22760  .debug_str:0000000000003042 .LASF439
C:\Users\stapi\AppData\Local\Temp\ccjssdjY.s:23674  .debug_str:0000000000004b37 .LASF440
C:\Users\stapi\AppData\Local\Temp\ccjssdjY.s:24400  .debug_str:0000000000006133 .LASF441
C:\Users\stapi\AppData\Local\Temp\ccjssdjY.s:23138  .debug_str:0000000000003c80 .LASF442
C:\Users\stapi\AppData\Local\Temp\ccjssdjY.s:21770  .debug_str:00000000000013ca .LASF443
C:\Users\stapi\AppData\Local\Temp\ccjssdjY.s:21116  .debug_str:0000000000000139 .LASF444
C:\Users\stapi\AppData\Local\Temp\ccjssdjY.s:23008  .debug_str:0000000000003880 .LASF445
C:\Users\stapi\AppData\Local\Temp\ccjssdjY.s:24334  .debug_str:0000000000005f45 .LASF446
C:\Users\stapi\AppData\Local\Temp\ccjssdjY.s:23018  .debug_str:00000000000038dd .LASF447
C:\Users\stapi\AppData\Local\Temp\ccjssdjY.s:21164  .debug_str:00000000000002b6 .LASF448
C:\Users\stapi\AppData\Local\Temp\ccjssdjY.s:22240  .debug_str:00000000000020a8 .LASF449
C:\Users\stapi\AppData\Local\Temp\ccjssdjY.s:23142  .debug_str:0000000000003ca5 .LASF450
C:\Users\stapi\AppData\Local\Temp\ccjssdjY.s:21152  .debug_str:000000000000025c .LASF451
C:\Users\stapi\AppData\Local\Temp\ccjssdjY.s:23442  .debug_str:00000000000044cb .LASF452
C:\Users\stapi\AppData\Local\Temp\ccjssdjY.s:22746  .debug_str:0000000000002fc7 .LASF453
C:\Users\stapi\AppData\Local\Temp\ccjssdjY.s:22764  .debug_str:0000000000003068 .LASF454
C:\Users\stapi\AppData\Local\Temp\ccjssdjY.s:21430  .debug_str:0000000000000a1b .LASF455
C:\Users\stapi\AppData\Local\Temp\ccjssdjY.s:21996  .debug_str:0000000000001a13 .LASF456
C:\Users\stapi\AppData\Local\Temp\ccjssdjY.s:21450  .debug_str:0000000000000aa2 .LASF457
C:\Users\stapi\AppData\Local\Temp\ccjssdjY.s:24210  .debug_str:0000000000005bc4 .LASF458
C:\Users\stapi\AppData\Local\Temp\ccjssdjY.s:24022  .debug_str:0000000000005532 .LASF459
C:\Users\stapi\AppData\Local\Temp\ccjssdjY.s:23762  .debug_str:0000000000004dc2 .LASF460
C:\Users\stapi\AppData\Local\Temp\ccjssdjY.s:21762  .debug_str:0000000000001393 .LASF461
C:\Users\stapi\AppData\Local\Temp\ccjssdjY.s:21218  .debug_str:0000000000000447 .LASF462
C:\Users\stapi\AppData\Local\Temp\ccjssdjY.s:21606  .debug_str:0000000000000f32 .LASF463
C:\Users\stapi\AppData\Local\Temp\ccjssdjY.s:23738  .debug_str:0000000000004d00 .LASF464
C:\Users\stapi\AppData\Local\Temp\ccjssdjY.s:23352  .debug_str:000000000000424f .LASF465
C:\Users\stapi\AppData\Local\Temp\ccjssdjY.s:22852  .debug_str:00000000000032d7 .LASF466
C:\Users\stapi\AppData\Local\Temp\ccjssdjY.s:22832  .debug_str:0000000000003268 .LASF467
C:\Users\stapi\AppData\Local\Temp\ccjssdjY.s:21500  .debug_str:0000000000000c09 .LASF468
C:\Users\stapi\AppData\Local\Temp\ccjssdjY.s:23882  .debug_str:0000000000005126 .LASF469
C:\Users\stapi\AppData\Local\Temp\ccjssdjY.s:24312  .debug_str:0000000000005e9c .LASF470
C:\Users\stapi\AppData\Local\Temp\ccjssdjY.s:22804  .debug_str:0000000000003183 .LASF471
C:\Users\stapi\AppData\Local\Temp\ccjssdjY.s:22598  .debug_str:0000000000002baf .LASF472
C:\Users\stapi\AppData\Local\Temp\ccjssdjY.s:22388  .debug_str:0000000000002549 .LASF473
C:\Users\stapi\AppData\Local\Temp\ccjssdjY.s:23124  .debug_str:0000000000003c24 .LASF474
C:\Users\stapi\AppData\Local\Temp\ccjssdjY.s:23048  .debug_str:00000000000039e1 .LASF475
C:\Users\stapi\AppData\Local\Temp\ccjssdjY.s:21506  .debug_str:0000000000000c2e .LASF476
C:\Users\stapi\AppData\Local\Temp\ccjssdjY.s:21522  .debug_str:0000000000000cb3 .LASF477
C:\Users\stapi\AppData\Local\Temp\ccjssdjY.s:22426  .debug_str:000000000000264b .LASF478
C:\Users\stapi\AppData\Local\Temp\ccjssdjY.s:24254  .debug_str:0000000000005ccd .LASF479
C:\Users\stapi\AppData\Local\Temp\ccjssdjY.s:23428  .debug_str:0000000000004469 .LASF480
C:\Users\stapi\AppData\Local\Temp\ccjssdjY.s:23916  .debug_str:0000000000005224 .LASF1667
C:\Users\stapi\AppData\Local\Temp\ccjssdjY.s:21948  .debug_str:00000000000018d1 .LASF481
C:\Users\stapi\AppData\Local\Temp\ccjssdjY.s:22066  .debug_str:0000000000001c0d .LASF482
C:\Users\stapi\AppData\Local\Temp\ccjssdjY.s:22322  .debug_str:000000000000233b .LASF483
C:\Users\stapi\AppData\Local\Temp\ccjssdjY.s:23272  .debug_str:000000000000403a .LASF484
C:\Users\stapi\AppData\Local\Temp\ccjssdjY.s:22402  .debug_str:000000000000259e .LASF485
C:\Users\stapi\AppData\Local\Temp\ccjssdjY.s:21976  .debug_str:000000000000197d .LASF486
C:\Users\stapi\AppData\Local\Temp\ccjssdjY.s:22838  .debug_str:000000000000328c .LASF487
C:\Users\stapi\AppData\Local\Temp\ccjssdjY.s:24368  .debug_str:0000000000006036 .LASF488
C:\Users\stapi\AppData\Local\Temp\ccjssdjY.s:21688  .debug_str:0000000000001195 .LASF489
C:\Users\stapi\AppData\Local\Temp\ccjssdjY.s:22664  .debug_str:0000000000002d82 .LASF490
C:\Users\stapi\AppData\Local\Temp\ccjssdjY.s:21198  .debug_str:00000000000003be .LASF491
C:\Users\stapi\AppData\Local\Temp\ccjssdjY.s:21272  .debug_str:00000000000005d5 .LASF492
C:\Users\stapi\AppData\Local\Temp\ccjssdjY.s:23410  .debug_str:00000000000043f0 .LASF493
C:\Users\stapi\AppData\Local\Temp\ccjssdjY.s:22274  .debug_str:00000000000021ad .LASF494
C:\Users\stapi\AppData\Local\Temp\ccjssdjY.s:22610  .debug_str:0000000000002c00 .LASF495
C:\Users\stapi\AppData\Local\Temp\ccjssdjY.s:21842  .debug_str:00000000000015cd .LASF496
C:\Users\stapi\AppData\Local\Temp\ccjssdjY.s:22744  .debug_str:0000000000002fbf .LASF497
C:\Users\stapi\AppData\Local\Temp\ccjssdjY.s:23896  .debug_str:0000000000005196 .LASF498
C:\Users\stapi\AppData\Local\Temp\ccjssdjY.s:22596  .debug_str:0000000000002b9c .LASF499
C:\Users\stapi\AppData\Local\Temp\ccjssdjY.s:21388  .debug_str:00000000000008e3 .LASF500
C:\Users\stapi\AppData\Local\Temp\ccjssdjY.s:22508  .debug_str:00000000000028d8 .LASF501
C:\Users\stapi\AppData\Local\Temp\ccjssdjY.s:21328  .debug_str:000000000000076f .LASF502
C:\Users\stapi\AppData\Local\Temp\ccjssdjY.s:21210  .debug_str:0000000000000403 .LASF503
C:\Users\stapi\AppData\Local\Temp\ccjssdjY.s:21090  .debug_str:000000000000008a .LASF504
C:\Users\stapi\AppData\Local\Temp\ccjssdjY.s:24386  .debug_str:00000000000060c8 .LASF505
C:\Users\stapi\AppData\Local\Temp\ccjssdjY.s:24116  .debug_str:00000000000058a0 .LASF506
C:\Users\stapi\AppData\Local\Temp\ccjssdjY.s:24252  .debug_str:0000000000005cc4 .LASF507
C:\Users\stapi\AppData\Local\Temp\ccjssdjY.s:22058  .debug_str:0000000000001bd4 .LASF508
C:\Users\stapi\AppData\Local\Temp\ccjssdjY.s:22238  .debug_str:0000000000002095 .LASF509
C:\Users\stapi\AppData\Local\Temp\ccjssdjY.s:24246  .debug_str:0000000000005c96 .LASF510
C:\Users\stapi\AppData\Local\Temp\ccjssdjY.s:23446  .debug_str:00000000000044e2 .LASF511
C:\Users\stapi\AppData\Local\Temp\ccjssdjY.s:23602  .debug_str:0000000000004924 .LASF512
C:\Users\stapi\AppData\Local\Temp\ccjssdjY.s:23636  .debug_str:0000000000004a38 .LASF513
C:\Users\stapi\AppData\Local\Temp\ccjssdjY.s:21174  .debug_str:0000000000000304 .LASF514
C:\Users\stapi\AppData\Local\Temp\ccjssdjY.s:21140  .debug_str:00000000000001fe .LASF515
C:\Users\stapi\AppData\Local\Temp\ccjssdjY.s:21964  .debug_str:000000000000192a .LASF516
C:\Users\stapi\AppData\Local\Temp\ccjssdjY.s:23116  .debug_str:0000000000003bea .LASF517
C:\Users\stapi\AppData\Local\Temp\ccjssdjY.s:23310  .debug_str:000000000000412d .LASF518
C:\Users\stapi\AppData\Local\Temp\ccjssdjY.s:22592  .debug_str:0000000000002b78 .LASF519
C:\Users\stapi\AppData\Local\Temp\ccjssdjY.s:21478  .debug_str:0000000000000b72 .LASF520
C:\Users\stapi\AppData\Local\Temp\ccjssdjY.s:23644  .debug_str:0000000000004a61 .LASF521
C:\Users\stapi\AppData\Local\Temp\ccjssdjY.s:24078  .debug_str:00000000000056f0 .LASF522
C:\Users\stapi\AppData\Local\Temp\ccjssdjY.s:23278  .debug_str:0000000000004063 .LASF523
C:\Users\stapi\AppData\Local\Temp\ccjssdjY.s:21622  .debug_str:0000000000000fb3 .LASF524
C:\Users\stapi\AppData\Local\Temp\ccjssdjY.s:21880  .debug_str:00000000000016e4 .LASF525
C:\Users\stapi\AppData\Local\Temp\ccjssdjY.s:22462  .debug_str:0000000000002775 .LASF526
C:\Users\stapi\AppData\Local\Temp\ccjssdjY.s:23900  .debug_str:00000000000051bc .LASF527
C:\Users\stapi\AppData\Local\Temp\ccjssdjY.s:22794  .debug_str:0000000000003146 .LASF528
C:\Users\stapi\AppData\Local\Temp\ccjssdjY.s:22906  .debug_str:000000000000348c .LASF529
C:\Users\stapi\AppData\Local\Temp\ccjssdjY.s:21178  .debug_str:000000000000031c .LASF530
C:\Users\stapi\AppData\Local\Temp\ccjssdjY.s:22558  .debug_str:0000000000002a91 .LASF531
C:\Users\stapi\AppData\Local\Temp\ccjssdjY.s:23854  .debug_str:0000000000005055 .LASF532
C:\Users\stapi\AppData\Local\Temp\ccjssdjY.s:23798  .debug_str:0000000000004ec2 .LASF533
C:\Users\stapi\AppData\Local\Temp\ccjssdjY.s:21454  .debug_str:0000000000000ab9 .LASF534
C:\Users\stapi\AppData\Local\Temp\ccjssdjY.s:22506  .debug_str:00000000000028c7 .LASF535
C:\Users\stapi\AppData\Local\Temp\ccjssdjY.s:22754  .debug_str:0000000000003010 .LASF536
C:\Users\stapi\AppData\Local\Temp\ccjssdjY.s:22100  .debug_str:0000000000001cfa .LASF537
C:\Users\stapi\AppData\Local\Temp\ccjssdjY.s:22390  .debug_str:000000000000254e .LASF538
C:\Users\stapi\AppData\Local\Temp\ccjssdjY.s:21286  .debug_str:0000000000000640 .LASF539
C:\Users\stapi\AppData\Local\Temp\ccjssdjY.s:21782  .debug_str:0000000000001425 .LASF540
C:\Users\stapi\AppData\Local\Temp\ccjssdjY.s:23166  .debug_str:0000000000003d5b .LASF541
C:\Users\stapi\AppData\Local\Temp\ccjssdjY.s:21228  .debug_str:000000000000048f .LASF542
C:\Users\stapi\AppData\Local\Temp\ccjssdjY.s:23704  .debug_str:0000000000004c0a .LASF543
C:\Users\stapi\AppData\Local\Temp\ccjssdjY.s:23492  .debug_str:00000000000045ff .LASF544
C:\Users\stapi\AppData\Local\Temp\ccjssdjY.s:22824  .debug_str:0000000000003228 .LASF545
C:\Users\stapi\AppData\Local\Temp\ccjssdjY.s:24404  .debug_str:0000000000006153 .LASF546
C:\Users\stapi\AppData\Local\Temp\ccjssdjY.s:23832  .debug_str:0000000000004faa .LASF547
C:\Users\stapi\AppData\Local\Temp\ccjssdjY.s:22232  .debug_str:000000000000206d .LASF548
C:\Users\stapi\AppData\Local\Temp\ccjssdjY.s:23254  .debug_str:0000000000003fc4 .LASF549
C:\Users\stapi\AppData\Local\Temp\ccjssdjY.s:22618  .debug_str:0000000000002c3b .LASF550
C:\Users\stapi\AppData\Local\Temp\ccjssdjY.s:21584  .debug_str:0000000000000e98 .LASF551
C:\Users\stapi\AppData\Local\Temp\ccjssdjY.s:22008  .debug_str:0000000000001a61 .LASF552
C:\Users\stapi\AppData\Local\Temp\ccjssdjY.s:23752  .debug_str:0000000000004d72 .LASF553
C:\Users\stapi\AppData\Local\Temp\ccjssdjY.s:22408  .debug_str:00000000000025ce .LASF554
C:\Users\stapi\AppData\Local\Temp\ccjssdjY.s:23132  .debug_str:0000000000003c67 .LASF555
C:\Users\stapi\AppData\Local\Temp\ccjssdjY.s:23296  .debug_str:00000000000040d0 .LASF556
C:\Users\stapi\AppData\Local\Temp\ccjssdjY.s:21234  .debug_str:00000000000004b3 .LASF557
C:\Users\stapi\AppData\Local\Temp\ccjssdjY.s:22636  .debug_str:0000000000002cc3 .LASF558
C:\Users\stapi\AppData\Local\Temp\ccjssdjY.s:23960  .debug_str:0000000000005374 .LASF559
C:\Users\stapi\AppData\Local\Temp\ccjssdjY.s:22488  .debug_str:000000000000284e .LASF560
C:\Users\stapi\AppData\Local\Temp\ccjssdjY.s:24056  .debug_str:0000000000005650 .LASF561
C:\Users\stapi\AppData\Local\Temp\ccjssdjY.s:22410  .debug_str:00000000000025e2 .LASF562
C:\Users\stapi\AppData\Local\Temp\ccjssdjY.s:23006  .debug_str:0000000000003876 .LASF563
C:\Users\stapi\AppData\Local\Temp\ccjssdjY.s:23318  .debug_str:0000000000004157 .LASF564
C:\Users\stapi\AppData\Local\Temp\ccjssdjY.s:22684  .debug_str:0000000000002e13 .LASF565
C:\Users\stapi\AppData\Local\Temp\ccjssdjY.s:21136  .debug_str:00000000000001dc .LASF566
C:\Users\stapi\AppData\Local\Temp\ccjssdjY.s:22850  .debug_str:00000000000032ce .LASF567
C:\Users\stapi\AppData\Local\Temp\ccjssdjY.s:21798  .debug_str:00000000000014b1 .LASF568
C:\Users\stapi\AppData\Local\Temp\ccjssdjY.s:23432  .debug_str:0000000000004482 .LASF569
C:\Users\stapi\AppData\Local\Temp\ccjssdjY.s:22200  .debug_str:0000000000001fa6 .LASF570
C:\Users\stapi\AppData\Local\Temp\ccjssdjY.s:21108  .debug_str:0000000000000108 .LASF571
C:\Users\stapi\AppData\Local\Temp\ccjssdjY.s:23330  .debug_str:00000000000041a3 .LASF572
C:\Users\stapi\AppData\Local\Temp\ccjssdjY.s:21516  .debug_str:0000000000000c87 .LASF573
C:\Users\stapi\AppData\Local\Temp\ccjssdjY.s:21558  .debug_str:0000000000000de1 .LASF574
C:\Users\stapi\AppData\Local\Temp\ccjssdjY.s:22574  .debug_str:0000000000002b0f .LASF575
C:\Users\stapi\AppData\Local\Temp\ccjssdjY.s:21784  .debug_str:0000000000001432 .LASF576
C:\Users\stapi\AppData\Local\Temp\ccjssdjY.s:21590  .debug_str:0000000000000ec4 .LASF577
C:\Users\stapi\AppData\Local\Temp\ccjssdjY.s:22148  .debug_str:0000000000001e46 .LASF578
C:\Users\stapi\AppData\Local\Temp\ccjssdjY.s:21398  .debug_str:000000000000092a .LASF579
C:\Users\stapi\AppData\Local\Temp\ccjssdjY.s:24280  .debug_str:0000000000005d9f .LASF580
C:\Users\stapi\AppData\Local\Temp\ccjssdjY.s:21614  .debug_str:0000000000000f83 .LASF581
C:\Users\stapi\AppData\Local\Temp\ccjssdjY.s:21274  .debug_str:00000000000005de .LASF582
C:\Users\stapi\AppData\Local\Temp\ccjssdjY.s:24366  .debug_str:0000000000006030 .LASF583
C:\Users\stapi\AppData\Local\Temp\ccjssdjY.s:23776  .debug_str:0000000000004e35 .LASF584
C:\Users\stapi\AppData\Local\Temp\ccjssdjY.s:21208  .debug_str:00000000000003f8 .LASF585
C:\Users\stapi\AppData\Local\Temp\ccjssdjY.s:22716  .debug_str:0000000000002ef2 .LASF586
C:\Users\stapi\AppData\Local\Temp\ccjssdjY.s:21412  .debug_str:000000000000099e .LASF587
C:\Users\stapi\AppData\Local\Temp\ccjssdjY.s:23038  .debug_str:0000000000003992 .LASF588
C:\Users\stapi\AppData\Local\Temp\ccjssdjY.s:23506  .debug_str:000000000000466f .LASF589
C:\Users\stapi\AppData\Local\Temp\ccjssdjY.s:21524  .debug_str:0000000000000cd7 .LASF590
C:\Users\stapi\AppData\Local\Temp\ccjssdjY.s:21764  .debug_str:00000000000013a2 .LASF591
C:\Users\stapi\AppData\Local\Temp\ccjssdjY.s:23866  .debug_str:000000000000508f .LASF592
C:\Users\stapi\AppData\Local\Temp\ccjssdjY.s:22046  .debug_str:0000000000001b73 .LASF593
C:\Users\stapi\AppData\Local\Temp\ccjssdjY.s:21318  .debug_str:0000000000000732 .LASF594
C:\Users\stapi\AppData\Local\Temp\ccjssdjY.s:23364  .debug_str:00000000000042b4 .LASF595
C:\Users\stapi\AppData\Local\Temp\ccjssdjY.s:22492  .debug_str:0000000000002862 .LASF596
C:\Users\stapi\AppData\Local\Temp\ccjssdjY.s:23922  .debug_str:0000000000005251 .LASF597
C:\Users\stapi\AppData\Local\Temp\ccjssdjY.s:22456  .debug_str:0000000000002743 .LASF598
C:\Users\stapi\AppData\Local\Temp\ccjssdjY.s:22474  .debug_str:00000000000027e0 .LASF599
C:\Users\stapi\AppData\Local\Temp\ccjssdjY.s:21792  .debug_str:0000000000001473 .LASF600
C:\Users\stapi\AppData\Local\Temp\ccjssdjY.s:23534  .debug_str:000000000000470e .LASF601
C:\Users\stapi\AppData\Local\Temp\ccjssdjY.s:23802  .debug_str:0000000000004ece .LASF602
C:\Users\stapi\AppData\Local\Temp\ccjssdjY.s:23898  .debug_str:00000000000051ad .LASF603
C:\Users\stapi\AppData\Local\Temp\ccjssdjY.s:21600  .debug_str:0000000000000f13 .LASF604
C:\Users\stapi\AppData\Local\Temp\ccjssdjY.s:22096  .debug_str:0000000000001cd8 .LASF605
C:\Users\stapi\AppData\Local\Temp\ccjssdjY.s:21912  .debug_str:00000000000017e2 .LASF606
C:\Users\stapi\AppData\Local\Temp\ccjssdjY.s:24230  .debug_str:0000000000005c31 .LASF607
C:\Users\stapi\AppData\Local\Temp\ccjssdjY.s:21472  .debug_str:0000000000000b44 .LASF608
C:\Users\stapi\AppData\Local\Temp\ccjssdjY.s:23022  .debug_str:0000000000003910 .LASF609
C:\Users\stapi\AppData\Local\Temp\ccjssdjY.s:22652  .debug_str:0000000000002d30 .LASF610
C:\Users\stapi\AppData\Local\Temp\ccjssdjY.s:21186  .debug_str:0000000000000359 .LASF611
C:\Users\stapi\AppData\Local\Temp\ccjssdjY.s:21858  .debug_str:000000000000163d .LASF612
C:\Users\stapi\AppData\Local\Temp\ccjssdjY.s:23878  .debug_str:00000000000050ee .LASF613
C:\Users\stapi\AppData\Local\Temp\ccjssdjY.s:23892  .debug_str:0000000000005175 .LASF614
C:\Users\stapi\AppData\Local\Temp\ccjssdjY.s:21808  .debug_str:00000000000014ea .LASF615
C:\Users\stapi\AppData\Local\Temp\ccjssdjY.s:21074  .debug_str:0000000000000005 .LASF616
C:\Users\stapi\AppData\Local\Temp\ccjssdjY.s:22424  .debug_str:000000000000263b .LASF617
C:\Users\stapi\AppData\Local\Temp\ccjssdjY.s:21306  .debug_str:00000000000006bf .LASF618
C:\Users\stapi\AppData\Local\Temp\ccjssdjY.s:22092  .debug_str:0000000000001caf .LASF619
C:\Users\stapi\AppData\Local\Temp\ccjssdjY.s:22712  .debug_str:0000000000002ece .LASF620
C:\Users\stapi\AppData\Local\Temp\ccjssdjY.s:22520  .debug_str:000000000000294a .LASF621
C:\Users\stapi\AppData\Local\Temp\ccjssdjY.s:22228  .debug_str:000000000000205b .LASF622
C:\Users\stapi\AppData\Local\Temp\ccjssdjY.s:23590  .debug_str:00000000000048d8 .LASF623
C:\Users\stapi\AppData\Local\Temp\ccjssdjY.s:24310  .debug_str:0000000000005e8d .LASF624
C:\Users\stapi\AppData\Local\Temp\ccjssdjY.s:22704  .debug_str:0000000000002e9b .LASF625
C:\Users\stapi\AppData\Local\Temp\ccjssdjY.s:22380  .debug_str:00000000000024fc .LASF626
C:\Users\stapi\AppData\Local\Temp\ccjssdjY.s:24158  .debug_str:00000000000059bc .LASF627
C:\Users\stapi\AppData\Local\Temp\ccjssdjY.s:23260  .debug_str:0000000000003ff5 .LASF628
C:\Users\stapi\AppData\Local\Temp\ccjssdjY.s:22272  .debug_str:000000000000219e .LASF629
C:\Users\stapi\AppData\Local\Temp\ccjssdjY.s:22494  .debug_str:000000000000286d .LASF630
C:\Users\stapi\AppData\Local\Temp\ccjssdjY.s:22360  .debug_str:0000000000002453 .LASF631
C:\Users\stapi\AppData\Local\Temp\ccjssdjY.s:21602  .debug_str:0000000000000f1a .LASF632
C:\Users\stapi\AppData\Local\Temp\ccjssdjY.s:23468  .debug_str:000000000000455f .LASF633
C:\Users\stapi\AppData\Local\Temp\ccjssdjY.s:21342  .debug_str:00000000000007d6 .LASF634
C:\Users\stapi\AppData\Local\Temp\ccjssdjY.s:23862  .debug_str:0000000000005078 .LASF635
C:\Users\stapi\AppData\Local\Temp\ccjssdjY.s:21936  .debug_str:0000000000001878 .LASF636
C:\Users\stapi\AppData\Local\Temp\ccjssdjY.s:21612  .debug_str:0000000000000f66 .LASF637
C:\Users\stapi\AppData\Local\Temp\ccjssdjY.s:24316  .debug_str:0000000000005eb7 .LASF638
C:\Users\stapi\AppData\Local\Temp\ccjssdjY.s:21496  .debug_str:0000000000000bed .LASF639
C:\Users\stapi\AppData\Local\Temp\ccjssdjY.s:21546  .debug_str:0000000000000d90 .LASF640
C:\Users\stapi\AppData\Local\Temp\ccjssdjY.s:21184  .debug_str:000000000000034f .LASF641
C:\Users\stapi\AppData\Local\Temp\ccjssdjY.s:23552  .debug_str:0000000000004792 .LASF642
C:\Users\stapi\AppData\Local\Temp\ccjssdjY.s:21822  .debug_str:0000000000001548 .LASF643
C:\Users\stapi\AppData\Local\Temp\ccjssdjY.s:23336  .debug_str:00000000000041cc .LASF644
C:\Users\stapi\AppData\Local\Temp\ccjssdjY.s:24290  .debug_str:0000000000005de8 .LASF645
C:\Users\stapi\AppData\Local\Temp\ccjssdjY.s:22882  .debug_str:00000000000033dc .LASF646
C:\Users\stapi\AppData\Local\Temp\ccjssdjY.s:21786  .debug_str:0000000000001447 .LASF647
C:\Users\stapi\AppData\Local\Temp\ccjssdjY.s:21332  .debug_str:0000000000000784 .LASF648
C:\Users\stapi\AppData\Local\Temp\ccjssdjY.s:21610  .debug_str:0000000000000f4c .LASF649
C:\Users\stapi\AppData\Local\Temp\ccjssdjY.s:22864  .debug_str:0000000000003330 .LASF650
C:\Users\stapi\AppData\Local\Temp\ccjssdjY.s:23458  .debug_str:0000000000004515 .LASF651
C:\Users\stapi\AppData\Local\Temp\ccjssdjY.s:24360  .debug_str:0000000000005ff2 .LASF652
C:\Users\stapi\AppData\Local\Temp\ccjssdjY.s:23408  .debug_str:00000000000043d9 .LASF653
C:\Users\stapi\AppData\Local\Temp\ccjssdjY.s:22862  .debug_str:0000000000003321 .LASF654
C:\Users\stapi\AppData\Local\Temp\ccjssdjY.s:22898  .debug_str:0000000000003455 .LASF655
C:\Users\stapi\AppData\Local\Temp\ccjssdjY.s:23770  .debug_str:0000000000004e0c .LASF656
C:\Users\stapi\AppData\Local\Temp\ccjssdjY.s:23714  .debug_str:0000000000004c43 .LASF657
C:\Users\stapi\AppData\Local\Temp\ccjssdjY.s:24006  .debug_str:00000000000054ca .LASF658
C:\Users\stapi\AppData\Local\Temp\ccjssdjY.s:23224  .debug_str:0000000000003f07 .LASF659
C:\Users\stapi\AppData\Local\Temp\ccjssdjY.s:21824  .debug_str:000000000000155c .LASF660
C:\Users\stapi\AppData\Local\Temp\ccjssdjY.s:21874  .debug_str:00000000000016c2 .LASF661
C:\Users\stapi\AppData\Local\Temp\ccjssdjY.s:22658  .debug_str:0000000000002d5c .LASF662
C:\Users\stapi\AppData\Local\Temp\ccjssdjY.s:24094  .debug_str:0000000000005762 .LASF663
C:\Users\stapi\AppData\Local\Temp\ccjssdjY.s:22840  .debug_str:0000000000003291 .LASF664
C:\Users\stapi\AppData\Local\Temp\ccjssdjY.s:24288  .debug_str:0000000000005dde .LASF665
C:\Users\stapi\AppData\Local\Temp\ccjssdjY.s:22102  .debug_str:0000000000001d07 .LASF666
C:\Users\stapi\AppData\Local\Temp\ccjssdjY.s:24330  .debug_str:0000000000005f24 .LASF667
C:\Users\stapi\AppData\Local\Temp\ccjssdjY.s:23158  .debug_str:0000000000003d23 .LASF668
C:\Users\stapi\AppData\Local\Temp\ccjssdjY.s:24174  .debug_str:0000000000005a3a .LASF669
C:\Users\stapi\AppData\Local\Temp\ccjssdjY.s:21276  .debug_str:00000000000005f1 .LASF670
C:\Users\stapi\AppData\Local\Temp\ccjssdjY.s:21550  .debug_str:0000000000000daf .LASF671
C:\Users\stapi\AppData\Local\Temp\ccjssdjY.s:22478  .debug_str:00000000000027f4 .LASF672
C:\Users\stapi\AppData\Local\Temp\ccjssdjY.s:23558  .debug_str:00000000000047cd .LASF673
C:\Users\stapi\AppData\Local\Temp\ccjssdjY.s:21734  .debug_str:00000000000012d4 .LASF674
C:\Users\stapi\AppData\Local\Temp\ccjssdjY.s:23734  .debug_str:0000000000004cdb .LASF675
C:\Users\stapi\AppData\Local\Temp\ccjssdjY.s:21630  .debug_str:0000000000000fdb .LASF676
C:\Users\stapi\AppData\Local\Temp\ccjssdjY.s:24276  .debug_str:0000000000005d7c .LASF677
C:\Users\stapi\AppData\Local\Temp\ccjssdjY.s:23460  .debug_str:0000000000004522 .LASF678
C:\Users\stapi\AppData\Local\Temp\ccjssdjY.s:23550  .debug_str:0000000000004780 .LASF679
C:\Users\stapi\AppData\Local\Temp\ccjssdjY.s:23264  .debug_str:0000000000004007 .LASF680
C:\Users\stapi\AppData\Local\Temp\ccjssdjY.s:24356  .debug_str:0000000000005fd8 .LASF681
C:\Users\stapi\AppData\Local\Temp\ccjssdjY.s:21692  .debug_str:00000000000011bb .LASF682
C:\Users\stapi\AppData\Local\Temp\ccjssdjY.s:23746  .debug_str:0000000000004d3b .LASF683
C:\Users\stapi\AppData\Local\Temp\ccjssdjY.s:24338  .debug_str:0000000000005f64 .LASF684
C:\Users\stapi\AppData\Local\Temp\ccjssdjY.s:23462  .debug_str:0000000000004530 .LASF685
C:\Users\stapi\AppData\Local\Temp\ccjssdjY.s:24130  .debug_str:00000000000058ed .LASF686
C:\Users\stapi\AppData\Local\Temp\ccjssdjY.s:21840  .debug_str:00000000000015c1 .LASF687
C:\Users\stapi\AppData\Local\Temp\ccjssdjY.s:23660  .debug_str:0000000000004ac0 .LASF688
C:\Users\stapi\AppData\Local\Temp\ccjssdjY.s:23998  .debug_str:0000000000005495 .LASF689
C:\Users\stapi\AppData\Local\Temp\ccjssdjY.s:24204  .debug_str:0000000000005b9e .LASF690
C:\Users\stapi\AppData\Local\Temp\ccjssdjY.s:23884  .debug_str:000000000000513c .LASF691
C:\Users\stapi\AppData\Local\Temp\ccjssdjY.s:22564  .debug_str:0000000000002abc .LASF692
C:\Users\stapi\AppData\Local\Temp\ccjssdjY.s:23092  .debug_str:0000000000003b2b .LASF693
C:\Users\stapi\AppData\Local\Temp\ccjssdjY.s:23940  .debug_str:00000000000052ca .LASF694
C:\Users\stapi\AppData\Local\Temp\ccjssdjY.s:21120  .debug_str:000000000000015c .LASF695
C:\Users\stapi\AppData\Local\Temp\ccjssdjY.s:23886  .debug_str:0000000000005146 .LASF696
C:\Users\stapi\AppData\Local\Temp\ccjssdjY.s:23252  .debug_str:0000000000003fb2 .LASF697
C:\Users\stapi\AppData\Local\Temp\ccjssdjY.s:22666  .debug_str:0000000000002d93 .LASF698
C:\Users\stapi\AppData\Local\Temp\ccjssdjY.s:24382  .debug_str:0000000000006096 .LASF699
C:\Users\stapi\AppData\Local\Temp\ccjssdjY.s:21490  .debug_str:0000000000000bcc .LASF700
C:\Users\stapi\AppData\Local\Temp\ccjssdjY.s:23246  .debug_str:0000000000003f90 .LASF701
C:\Users\stapi\AppData\Local\Temp\ccjssdjY.s:21180  .debug_str:0000000000000336 .LASF702
C:\Users\stapi\AppData\Local\Temp\ccjssdjY.s:22860  .debug_str:000000000000330b .LASF703
C:\Users\stapi\AppData\Local\Temp\ccjssdjY.s:23596  .debug_str:00000000000048fb .LASF704
C:\Users\stapi\AppData\Local\Temp\ccjssdjY.s:24198  .debug_str:0000000000005b67 .LASF705
C:\Users\stapi\AppData\Local\Temp\ccjssdjY.s:23406  .debug_str:00000000000043c8 .LASF706
C:\Users\stapi\AppData\Local\Temp\ccjssdjY.s:22496  .debug_str:0000000000002877 .LASF707
C:\Users\stapi\AppData\Local\Temp\ccjssdjY.s:24380  .debug_str:0000000000006091 .LASF708
C:\Users\stapi\AppData\Local\Temp\ccjssdjY.s:22586  .debug_str:0000000000002b5e .LASF709
C:\Users\stapi\AppData\Local\Temp\ccjssdjY.s:21740  .debug_str:00000000000012f7 .LASF710
C:\Users\stapi\AppData\Local\Temp\ccjssdjY.s:21748  .debug_str:0000000000001323 .LASF711
C:\Users\stapi\AppData\Local\Temp\ccjssdjY.s:22772  .debug_str:000000000000309f .LASF712
C:\Users\stapi\AppData\Local\Temp\ccjssdjY.s:21746  .debug_str:0000000000001319 .LASF713
C:\Users\stapi\AppData\Local\Temp\ccjssdjY.s:22384  .debug_str:0000000000002526 .LASF714
C:\Users\stapi\AppData\Local\Temp\ccjssdjY.s:21856  .debug_str:0000000000001626 .LASF715
C:\Users\stapi\AppData\Local\Temp\ccjssdjY.s:22846  .debug_str:00000000000032b8 .LASF716
C:\Users\stapi\AppData\Local\Temp\ccjssdjY.s:22130  .debug_str:0000000000001dcd .LASF717
C:\Users\stapi\AppData\Local\Temp\ccjssdjY.s:21502  .debug_str:0000000000000c19 .LASF718
C:\Users\stapi\AppData\Local\Temp\ccjssdjY.s:23102  .debug_str:0000000000003b86 .LASF719
C:\Users\stapi\AppData\Local\Temp\ccjssdjY.s:22104  .debug_str:0000000000001d18 .LASF720
C:\Users\stapi\AppData\Local\Temp\ccjssdjY.s:24132  .debug_str:0000000000005906 .LASF721
C:\Users\stapi\AppData\Local\Temp\ccjssdjY.s:22670  .debug_str:0000000000002db7 .LASF722
C:\Users\stapi\AppData\Local\Temp\ccjssdjY.s:22420  .debug_str:0000000000002620 .LASF723
C:\Users\stapi\AppData\Local\Temp\ccjssdjY.s:23756  .debug_str:0000000000004da0 .LASF724
C:\Users\stapi\AppData\Local\Temp\ccjssdjY.s:22194  .debug_str:0000000000001f79 .LASF725
C:\Users\stapi\AppData\Local\Temp\ccjssdjY.s:22464  .debug_str:000000000000277f .LASF726
C:\Users\stapi\AppData\Local\Temp\ccjssdjY.s:22250  .debug_str:0000000000002106 .LASF727
C:\Users\stapi\AppData\Local\Temp\ccjssdjY.s:24128  .debug_str:00000000000058e2 .LASF728
C:\Users\stapi\AppData\Local\Temp\ccjssdjY.s:22422  .debug_str:000000000000262b .LASF729
C:\Users\stapi\AppData\Local\Temp\ccjssdjY.s:21580  .debug_str:0000000000000e89 .LASF730
C:\Users\stapi\AppData\Local\Temp\ccjssdjY.s:24172  .debug_str:0000000000005a28 .LASF731
C:\Users\stapi\AppData\Local\Temp\ccjssdjY.s:22178  .debug_str:0000000000001f01 .LASF732
C:\Users\stapi\AppData\Local\Temp\ccjssdjY.s:24088  .debug_str:0000000000005731 .LASF733
C:\Users\stapi\AppData\Local\Temp\ccjssdjY.s:23176  .debug_str:0000000000003d9c .LASF734
C:\Users\stapi\AppData\Local\Temp\ccjssdjY.s:23918  .debug_str:0000000000005233 .LASF735
C:\Users\stapi\AppData\Local\Temp\ccjssdjY.s:21904  .debug_str:00000000000017a0 .LASF736
C:\Users\stapi\AppData\Local\Temp\ccjssdjY.s:22470  .debug_str:00000000000027b2 .LASF737
C:\Users\stapi\AppData\Local\Temp\ccjssdjY.s:23656  .debug_str:0000000000004aa0 .LASF738
C:\Users\stapi\AppData\Local\Temp\ccjssdjY.s:22048  .debug_str:0000000000001b88 .LASF739
C:\Users\stapi\AppData\Local\Temp\ccjssdjY.s:22266  .debug_str:0000000000002176 .LASF740
C:\Users\stapi\AppData\Local\Temp\ccjssdjY.s:21452  .debug_str:0000000000000aaf .LASF741
C:\Users\stapi\AppData\Local\Temp\ccjssdjY.s:23632  .debug_str:0000000000004a17 .LASF742
C:\Users\stapi\AppData\Local\Temp\ccjssdjY.s:23284  .debug_str:0000000000004087 .LASF743
C:\Users\stapi\AppData\Local\Temp\ccjssdjY.s:23504  .debug_str:0000000000004662 .LASF744
C:\Users\stapi\AppData\Local\Temp\ccjssdjY.s:23588  .debug_str:00000000000048ce .LASF745
C:\Users\stapi\AppData\Local\Temp\ccjssdjY.s:23834  .debug_str:0000000000004fb6 .LASF746
C:\Users\stapi\AppData\Local\Temp\ccjssdjY.s:23270  .debug_str:000000000000402d .LASF747
C:\Users\stapi\AppData\Local\Temp\ccjssdjY.s:22502  .debug_str:00000000000028a2 .LASF748
C:\Users\stapi\AppData\Local\Temp\ccjssdjY.s:21418  .debug_str:00000000000009c9 .LASF749
C:\Users\stapi\AppData\Local\Temp\ccjssdjY.s:22550  .debug_str:0000000000002a50 .LASF750
C:\Users\stapi\AppData\Local\Temp\ccjssdjY.s:21724  .debug_str:0000000000001289 .LASF751
C:\Users\stapi\AppData\Local\Temp\ccjssdjY.s:23350  .debug_str:000000000000423f .LASF752
C:\Users\stapi\AppData\Local\Temp\ccjssdjY.s:23216  .debug_str:0000000000003ece .LASF753
C:\Users\stapi\AppData\Local\Temp\ccjssdjY.s:22886  .debug_str:00000000000033f4 .LASF754
C:\Users\stapi\AppData\Local\Temp\ccjssdjY.s:21776  .debug_str:00000000000013f8 .LASF755
C:\Users\stapi\AppData\Local\Temp\ccjssdjY.s:21586  .debug_str:0000000000000ea6 .LASF756
C:\Users\stapi\AppData\Local\Temp\ccjssdjY.s:22182  .debug_str:0000000000001f1c .LASF757
C:\Users\stapi\AppData\Local\Temp\ccjssdjY.s:22960  .debug_str:0000000000003712 .LASF758
C:\Users\stapi\AppData\Local\Temp\ccjssdjY.s:24178  .debug_str:0000000000005a4a .LASF759
C:\Users\stapi\AppData\Local\Temp\ccjssdjY.s:24004  .debug_str:00000000000054b7 .LASF760
C:\Users\stapi\AppData\Local\Temp\ccjssdjY.s:23640  .debug_str:0000000000004a46 .LASF761
C:\Users\stapi\AppData\Local\Temp\ccjssdjY.s:22990  .debug_str:0000000000003800 .LASF762
C:\Users\stapi\AppData\Local\Temp\ccjssdjY.s:22346  .debug_str:00000000000023ec .LASF763
C:\Users\stapi\AppData\Local\Temp\ccjssdjY.s:21368  .debug_str:000000000000086e .LASF764
C:\Users\stapi\AppData\Local\Temp\ccjssdjY.s:23958  .debug_str:0000000000005366 .LASF765
C:\Users\stapi\AppData\Local\Temp\ccjssdjY.s:22312  .debug_str:00000000000022f0 .LASF766
C:\Users\stapi\AppData\Local\Temp\ccjssdjY.s:23560  .debug_str:00000000000047ea .LASF767
C:\Users\stapi\AppData\Local\Temp\ccjssdjY.s:23672  .debug_str:0000000000004b26 .LASF768
C:\Users\stapi\AppData\Local\Temp\ccjssdjY.s:22648  .debug_str:0000000000002d09 .LASF769
C:\Users\stapi\AppData\Local\Temp\ccjssdjY.s:23986  .debug_str:0000000000005428 .LASF770
C:\Users\stapi\AppData\Local\Temp\ccjssdjY.s:23238  .debug_str:0000000000003f5c .LASF771
C:\Users\stapi\AppData\Local\Temp\ccjssdjY.s:21628  .debug_str:0000000000000fc8 .LASF772
C:\Users\stapi\AppData\Local\Temp\ccjssdjY.s:23524  .debug_str:00000000000046ca .LASF773
C:\Users\stapi\AppData\Local\Temp\ccjssdjY.s:21080  .debug_str:000000000000004e .LASF774
C:\Users\stapi\AppData\Local\Temp\ccjssdjY.s:22530  .debug_str:00000000000029ac .LASF775
C:\Users\stapi\AppData\Local\Temp\ccjssdjY.s:22546  .debug_str:0000000000002a2c .LASF776
C:\Users\stapi\AppData\Local\Temp\ccjssdjY.s:23046  .debug_str:00000000000039c8 .LASF777
C:\Users\stapi\AppData\Local\Temp\ccjssdjY.s:21244  .debug_str:0000000000000503 .LASF778
C:\Users\stapi\AppData\Local\Temp\ccjssdjY.s:21238  .debug_str:00000000000004ce .LASF779
C:\Users\stapi\AppData\Local\Temp\ccjssdjY.s:21836  .debug_str:00000000000015a2 .LASF780
C:\Users\stapi\AppData\Local\Temp\ccjssdjY.s:24060  .debug_str:0000000000005677 .LASF781
C:\Users\stapi\AppData\Local\Temp\ccjssdjY.s:22948  .debug_str:00000000000035d0 .LASF782
C:\Users\stapi\AppData\Local\Temp\ccjssdjY.s:23804  .debug_str:0000000000004eda .LASF783
C:\Users\stapi\AppData\Local\Temp\ccjssdjY.s:22224  .debug_str:0000000000002034 .LASF784
C:\Users\stapi\AppData\Local\Temp\ccjssdjY.s:21200  .debug_str:00000000000003c7 .LASF785
C:\Users\stapi\AppData\Local\Temp\ccjssdjY.s:21752  .debug_str:000000000000133e .LASF786
C:\Users\stapi\AppData\Local\Temp\ccjssdjY.s:22602  .debug_str:0000000000002bd2 .LASF787
C:\Users\stapi\AppData\Local\Temp\ccjssdjY.s:22072  .debug_str:0000000000001c2c .LASF788
C:\Users\stapi\AppData\Local\Temp\ccjssdjY.s:21536  .debug_str:0000000000000d32 .LASF789
C:\Users\stapi\AppData\Local\Temp\ccjssdjY.s:22726  .debug_str:0000000000002f3e .LASF790
C:\Users\stapi\AppData\Local\Temp\ccjssdjY.s:23846  .debug_str:0000000000005016 .LASF791
C:\Users\stapi\AppData\Local\Temp\ccjssdjY.s:22516  .debug_str:0000000000002915 .LASF792
C:\Users\stapi\AppData\Local\Temp\ccjssdjY.s:23808  .debug_str:0000000000004f00 .LASF793
C:\Users\stapi\AppData\Local\Temp\ccjssdjY.s:22128  .debug_str:0000000000001db6 .LASF794
C:\Users\stapi\AppData\Local\Temp\ccjssdjY.s:22504  .debug_str:00000000000028b2 .LASF795
C:\Users\stapi\AppData\Local\Temp\ccjssdjY.s:21984  .debug_str:00000000000019b8 .LASF796
C:\Users\stapi\AppData\Local\Temp\ccjssdjY.s:22448  .debug_str:0000000000002703 .LASF797
C:\Users\stapi\AppData\Local\Temp\ccjssdjY.s:22444  .debug_str:00000000000026de .LASF798
C:\Users\stapi\AppData\Local\Temp\ccjssdjY.s:23992  .debug_str:0000000000005464 .LASF799
C:\Users\stapi\AppData\Local\Temp\ccjssdjY.s:24218  .debug_str:0000000000005bf4 .LASF800
C:\Users\stapi\AppData\Local\Temp\ccjssdjY.s:23546  .debug_str:000000000000476a .LASF801
C:\Users\stapi\AppData\Local\Temp\ccjssdjY.s:22924  .debug_str:000000000000351d .LASF802
C:\Users\stapi\AppData\Local\Temp\ccjssdjY.s:23354  .debug_str:0000000000004267 .LASF803
C:\Users\stapi\AppData\Local\Temp\ccjssdjY.s:22476  .debug_str:00000000000027eb .LASF804
C:\Users\stapi\AppData\Local\Temp\ccjssdjY.s:21160  .debug_str:0000000000000298 .LASF805
C:\Users\stapi\AppData\Local\Temp\ccjssdjY.s:24216  .debug_str:0000000000005be8 .LASF806
C:\Users\stapi\AppData\Local\Temp\ccjssdjY.s:22706  .debug_str:0000000000002ea4 .LASF807
C:\Users\stapi\AppData\Local\Temp\ccjssdjY.s:21402  .debug_str:0000000000000953 .LASF808
C:\Users\stapi\AppData\Local\Temp\ccjssdjY.s:23548  .debug_str:0000000000004772 .LASF809
C:\Users\stapi\AppData\Local\Temp\ccjssdjY.s:23814  .debug_str:0000000000004f2c .LASF810
C:\Users\stapi\AppData\Local\Temp\ccjssdjY.s:23874  .debug_str:00000000000050d3 .LASF811
C:\Users\stapi\AppData\Local\Temp\ccjssdjY.s:21410  .debug_str:0000000000000991 .LASF812
C:\Users\stapi\AppData\Local\Temp\ccjssdjY.s:23692  .debug_str:0000000000004bc1 .LASF813
C:\Users\stapi\AppData\Local\Temp\ccjssdjY.s:22428  .debug_str:0000000000002653 .LASF814
C:\Users\stapi\AppData\Local\Temp\ccjssdjY.s:22028  .debug_str:0000000000001af8 .LASF815
C:\Users\stapi\AppData\Local\Temp\ccjssdjY.s:22166  .debug_str:0000000000001ebb .LASF816
C:\Users\stapi\AppData\Local\Temp\ccjssdjY.s:21632  .debug_str:0000000000000fef .LASF817
C:\Users\stapi\AppData\Local\Temp\ccjssdjY.s:21088  .debug_str:000000000000007e .LASF818
C:\Users\stapi\AppData\Local\Temp\ccjssdjY.s:23630  .debug_str:0000000000004a0d .LASF819
C:\Users\stapi\AppData\Local\Temp\ccjssdjY.s:24396  .debug_str:000000000000611f .LASF820
C:\Users\stapi\AppData\Local\Temp\ccjssdjY.s:24062  .debug_str:0000000000005684 .LASF821
C:\Users\stapi\AppData\Local\Temp\ccjssdjY.s:23582  .debug_str:000000000000489c .LASF822
C:\Users\stapi\AppData\Local\Temp\ccjssdjY.s:24034  .debug_str:000000000000558c .LASF823
C:\Users\stapi\AppData\Local\Temp\ccjssdjY.s:23036  .debug_str:0000000000003980 .LASF824
C:\Users\stapi\AppData\Local\Temp\ccjssdjY.s:22258  .debug_str:0000000000002141 .LASF825
C:\Users\stapi\AppData\Local\Temp\ccjssdjY.s:23342  .debug_str:0000000000004202 .LASF826
C:\Users\stapi\AppData\Local\Temp\ccjssdjY.s:23454  .debug_str:00000000000044ff .LASF827
C:\Users\stapi\AppData\Local\Temp\ccjssdjY.s:23924  .debug_str:000000000000525a .LASF828
C:\Users\stapi\AppData\Local\Temp\ccjssdjY.s:21268  .debug_str:00000000000005af .LASF829
C:\Users\stapi\AppData\Local\Temp\ccjssdjY.s:23072  .debug_str:0000000000003a9c .LASF830
C:\Users\stapi\AppData\Local\Temp\ccjssdjY.s:24214  .debug_str:0000000000005bdf .LASF831
C:\Users\stapi\AppData\Local\Temp\ccjssdjY.s:21922  .debug_str:0000000000001822 .LASF832
C:\Users\stapi\AppData\Local\Temp\ccjssdjY.s:21946  .debug_str:00000000000018c0 .LASF833
C:\Users\stapi\AppData\Local\Temp\ccjssdjY.s:22136  .debug_str:0000000000001df9 .LASF834
C:\Users\stapi\AppData\Local\Temp\ccjssdjY.s:23926  .debug_str:0000000000005265 .LASF835
C:\Users\stapi\AppData\Local\Temp\ccjssdjY.s:21944  .debug_str:00000000000018ae .LASF836
C:\Users\stapi\AppData\Local\Temp\ccjssdjY.s:21154  .debug_str:000000000000026a .LASF837
C:\Users\stapi\AppData\Local\Temp\ccjssdjY.s:21604  .debug_str:0000000000000f27 .LASF838
C:\Users\stapi\AppData\Local\Temp\ccjssdjY.s:21540  .debug_str:0000000000000d4d .LASF839
C:\Users\stapi\AppData\Local\Temp\ccjssdjY.s:22264  .debug_str:000000000000216c .LASF840
C:\Users\stapi\AppData\Local\Temp\ccjssdjY.s:22996  .debug_str:000000000000383f .LASF841
C:\Users\stapi\AppData\Local\Temp\ccjssdjY.s:23828  .debug_str:0000000000004f8d .LASF842
C:\Users\stapi\AppData\Local\Temp\ccjssdjY.s:22318  .debug_str:000000000000231a .LASF843
C:\Users\stapi\AppData\Local\Temp\ccjssdjY.s:23098  .debug_str:0000000000003b60 .LASF844
C:\Users\stapi\AppData\Local\Temp\ccjssdjY.s:23606  .debug_str:000000000000493f .LASF845
C:\Users\stapi\AppData\Local\Temp\ccjssdjY.s:21860  .debug_str:0000000000001660 .LASF846
C:\Users\stapi\AppData\Local\Temp\ccjssdjY.s:24144  .debug_str:0000000000005951 .LASF847
C:\Users\stapi\AppData\Local\Temp\ccjssdjY.s:23638  .debug_str:0000000000004a40 .LASF848
C:\Users\stapi\AppData\Local\Temp\ccjssdjY.s:21686  .debug_str:0000000000001187 .LASF849
C:\Users\stapi\AppData\Local\Temp\ccjssdjY.s:23000  .debug_str:0000000000003851 .LASF850
C:\Users\stapi\AppData\Local\Temp\ccjssdjY.s:21340  .debug_str:00000000000007c9 .LASF851
C:\Users\stapi\AppData\Local\Temp\ccjssdjY.s:21458  .debug_str:0000000000000acc .LASF852
C:\Users\stapi\AppData\Local\Temp\ccjssdjY.s:22290  .debug_str:000000000000222e .LASF853
C:\Users\stapi\AppData\Local\Temp\ccjssdjY.s:21518  .debug_str:0000000000000c91 .LASF854
C:\Users\stapi\AppData\Local\Temp\ccjssdjY.s:22756  .debug_str:0000000000003019 .LASF855
C:\Users\stapi\AppData\Local\Temp\ccjssdjY.s:23256  .debug_str:0000000000003fce .LASF856
C:\Users\stapi\AppData\Local\Temp\ccjssdjY.s:24162  .debug_str:00000000000059d6 .LASF857
C:\Users\stapi\AppData\Local\Temp\ccjssdjY.s:21732  .debug_str:00000000000012ba .LASF858
C:\Users\stapi\AppData\Local\Temp\ccjssdjY.s:21390  .debug_str:00000000000008f8 .LASF859
C:\Users\stapi\AppData\Local\Temp\ccjssdjY.s:23280  .debug_str:000000000000406a .LASF860
C:\Users\stapi\AppData\Local\Temp\ccjssdjY.s:22576  .debug_str:0000000000002b1b .LASF861
C:\Users\stapi\AppData\Local\Temp\ccjssdjY.s:21380  .debug_str:00000000000008ac .LASF862
C:\Users\stapi\AppData\Local\Temp\ccjssdjY.s:23074  .debug_str:0000000000003ab3 .LASF863
C:\Users\stapi\AppData\Local\Temp\ccjssdjY.s:21898  .debug_str:000000000000176d .LASF864
C:\Users\stapi\AppData\Local\Temp\ccjssdjY.s:21796  .debug_str:0000000000001497 .LASF865
C:\Users\stapi\AppData\Local\Temp\ccjssdjY.s:23050  .debug_str:00000000000039f9 .LASF866
C:\Users\stapi\AppData\Local\Temp\ccjssdjY.s:21424  .debug_str:00000000000009f5 .LASF867
C:\Users\stapi\AppData\Local\Temp\ccjssdjY.s:24118  .debug_str:00000000000058ab .LASF868
C:\Users\stapi\AppData\Local\Temp\ccjssdjY.s:24136  .debug_str:0000000000005921 .LASF869
C:\Users\stapi\AppData\Local\Temp\ccjssdjY.s:21110  .debug_str:000000000000011b .LASF870
C:\Users\stapi\AppData\Local\Temp\ccjssdjY.s:21374  .debug_str:0000000000000890 .LASF871
C:\Users\stapi\AppData\Local\Temp\ccjssdjY.s:23204  .debug_str:0000000000003e8a .LASF872
C:\Users\stapi\AppData\Local\Temp\ccjssdjY.s:23448  .debug_str:00000000000044e7 .LASF873
C:\Users\stapi\AppData\Local\Temp\ccjssdjY.s:21696  .debug_str:00000000000011d9 .LASF874
C:\Users\stapi\AppData\Local\Temp\ccjssdjY.s:22248  .debug_str:00000000000020f7 .LASF875
C:\Users\stapi\AppData\Local\Temp\ccjssdjY.s:23034  .debug_str:0000000000003976 .LASF876
C:\Users\stapi\AppData\Local\Temp\ccjssdjY.s:21142  .debug_str:000000000000020b .LASF877
C:\Users\stapi\AppData\Local\Temp\ccjssdjY.s:22262  .debug_str:000000000000215f .LASF878
C:\Users\stapi\AppData\Local\Temp\ccjssdjY.s:21466  .debug_str:0000000000000b00 .LASF879
C:\Users\stapi\AppData\Local\Temp\ccjssdjY.s:23100  .debug_str:0000000000003b7d .LASF880
C:\Users\stapi\AppData\Local\Temp\ccjssdjY.s:21582  .debug_str:0000000000000e93 .LASF881
C:\Users\stapi\AppData\Local\Temp\ccjssdjY.s:22366  .debug_str:0000000000002488 .LASF882
C:\Users\stapi\AppData\Local\Temp\ccjssdjY.s:22568  .debug_str:0000000000002ae3 .LASF883
C:\Users\stapi\AppData\Local\Temp\ccjssdjY.s:21414  .debug_str:00000000000009b2 .LASF884
C:\Users\stapi\AppData\Local\Temp\ccjssdjY.s:23976  .debug_str:00000000000053d1 .LASF885
C:\Users\stapi\AppData\Local\Temp\ccjssdjY.s:22532  .debug_str:00000000000029b5 .LASF886
C:\Users\stapi\AppData\Local\Temp\ccjssdjY.s:23340  .debug_str:00000000000041ee .LASF887
C:\Users\stapi\AppData\Local\Temp\ccjssdjY.s:22044  .debug_str:0000000000001b69 .LASF888
C:\Users\stapi\AppData\Local\Temp\ccjssdjY.s:23420  .debug_str:0000000000004432 .LASF889
C:\Users\stapi\AppData\Local\Temp\ccjssdjY.s:23394  .debug_str:000000000000436e .LASF890
C:\Users\stapi\AppData\Local\Temp\ccjssdjY.s:21464  .debug_str:0000000000000af4 .LASF891
C:\Users\stapi\AppData\Local\Temp\ccjssdjY.s:22486  .debug_str:0000000000002842 .LASF892
C:\Users\stapi\AppData\Local\Temp\ccjssdjY.s:21504  .debug_str:0000000000000c22 .LASF893
C:\Users\stapi\AppData\Local\Temp\ccjssdjY.s:24140  .debug_str:0000000000005933 .LASF894
C:\Users\stapi\AppData\Local\Temp\ccjssdjY.s:21900  .debug_str:0000000000001787 .LASF895
C:\Users\stapi\AppData\Local\Temp\ccjssdjY.s:22616  .debug_str:0000000000002c2c .LASF896
C:\Users\stapi\AppData\Local\Temp\ccjssdjY.s:22556  .debug_str:0000000000002a8b .LASF897
C:\Users\stapi\AppData\Local\Temp\ccjssdjY.s:23624  .debug_str:00000000000049e1 .LASF898
C:\Users\stapi\AppData\Local\Temp\ccjssdjY.s:22660  .debug_str:0000000000002d6f .LASF899
C:\Users\stapi\AppData\Local\Temp\ccjssdjY.s:21114  .debug_str:0000000000000131 .LASF900
C:\Users\stapi\AppData\Local\Temp\ccjssdjY.s:23528  .debug_str:00000000000046f5 .LASF901
C:\Users\stapi\AppData\Local\Temp\ccjssdjY.s:23794  .debug_str:0000000000004eae .LASF902
C:\Users\stapi\AppData\Local\Temp\ccjssdjY.s:21376  .debug_str:0000000000000895 .LASF903
C:\Users\stapi\AppData\Local\Temp\ccjssdjY.s:22122  .debug_str:0000000000001d87 .LASF904
C:\Users\stapi\AppData\Local\Temp\ccjssdjY.s:23604  .debug_str:0000000000004934 .LASF905
C:\Users\stapi\AppData\Local\Temp\ccjssdjY.s:24176  .debug_str:0000000000005a44 .LASF906
C:\Users\stapi\AppData\Local\Temp\ccjssdjY.s:23396  .debug_str:0000000000004380 .LASF907
C:\Users\stapi\AppData\Local\Temp\ccjssdjY.s:21766  .debug_str:00000000000013ae .LASF908
C:\Users\stapi\AppData\Local\Temp\ccjssdjY.s:23712  .debug_str:0000000000004c33 .LASF909
C:\Users\stapi\AppData\Local\Temp\ccjssdjY.s:24350  .debug_str:0000000000005faa .LASF910
C:\Users\stapi\AppData\Local\Temp\ccjssdjY.s:23578  .debug_str:000000000000487a .LASF911
C:\Users\stapi\AppData\Local\Temp\ccjssdjY.s:21694  .debug_str:00000000000011cc .LASF912
C:\Users\stapi\AppData\Local\Temp\ccjssdjY.s:22634  .debug_str:0000000000002cb8 .LASF913
C:\Users\stapi\AppData\Local\Temp\ccjssdjY.s:22668  .debug_str:0000000000002da9 .LASF914
C:\Users\stapi\AppData\Local\Temp\ccjssdjY.s:23642  .debug_str:0000000000004a53 .LASF915
C:\Users\stapi\AppData\Local\Temp\ccjssdjY.s:24304  .debug_str:0000000000005e52 .LASF916
C:\Users\stapi\AppData\Local\Temp\ccjssdjY.s:22728  .debug_str:0000000000002f4c .LASF917
C:\Users\stapi\AppData\Local\Temp\ccjssdjY.s:22570  .debug_str:0000000000002aee .LASF918
C:\Users\stapi\AppData\Local\Temp\ccjssdjY.s:22512  .debug_str:00000000000028f7 .LASF919
C:\Users\stapi\AppData\Local\Temp\ccjssdjY.s:21998  .debug_str:0000000000001a1c .LASF920
C:\Users\stapi\AppData\Local\Temp\ccjssdjY.s:23288  .debug_str:00000000000040a5 .LASF921
C:\Users\stapi\AppData\Local\Temp\ccjssdjY.s:21908  .debug_str:00000000000017c8 .LASF922
C:\Users\stapi\AppData\Local\Temp\ccjssdjY.s:22790  .debug_str:0000000000003126 .LASF923
C:\Users\stapi\AppData\Local\Temp\ccjssdjY.s:23902  .debug_str:00000000000051c3 .LASF924
C:\Users\stapi\AppData\Local\Temp\ccjssdjY.s:23404  .debug_str:00000000000043b4 .LASF925
C:\Users\stapi\AppData\Local\Temp\ccjssdjY.s:24410  .debug_str:000000000000617b .LASF926
C:\Users\stapi\AppData\Local\Temp\ccjssdjY.s:23702  .debug_str:0000000000004c00 .LASF927
C:\Users\stapi\AppData\Local\Temp\ccjssdjY.s:22160  .debug_str:0000000000001e9d .LASF928
C:\Users\stapi\AppData\Local\Temp\ccjssdjY.s:21708  .debug_str:000000000000122d .LASF929
C:\Users\stapi\AppData\Local\Temp\ccjssdjY.s:22386  .debug_str:0000000000002535 .LASF930
C:\Users\stapi\AppData\Local\Temp\ccjssdjY.s:24020  .debug_str:000000000000551c .LASF931
C:\Users\stapi\AppData\Local\Temp\ccjssdjY.s:23114  .debug_str:0000000000003bdc .LASF932
C:\Users\stapi\AppData\Local\Temp\ccjssdjY.s:21102  .debug_str:00000000000000de .LASF933
C:\Users\stapi\AppData\Local\Temp\ccjssdjY.s:22276  .debug_str:00000000000021b7 .LASF934
C:\Users\stapi\AppData\Local\Temp\ccjssdjY.s:22786  .debug_str:000000000000310c .LASF935
C:\Users\stapi\AppData\Local\Temp\ccjssdjY.s:21314  .debug_str:0000000000000703 .LASF936
C:\Users\stapi\AppData\Local\Temp\ccjssdjY.s:21212  .debug_str:0000000000000411 .LASF937
C:\Users\stapi\AppData\Local\Temp\ccjssdjY.s:23348  .debug_str:0000000000004226 .LASF938
C:\Users\stapi\AppData\Local\Temp\ccjssdjY.s:23024  .debug_str:0000000000003927 .LASF939
C:\Users\stapi\AppData\Local\Temp\ccjssdjY.s:22600  .debug_str:0000000000002bc8 .LASF940
C:\Users\stapi\AppData\Local\Temp\ccjssdjY.s:23188  .debug_str:0000000000003e0a .LASF941
C:\Users\stapi\AppData\Local\Temp\ccjssdjY.s:21290  .debug_str:0000000000000652 .LASF942
C:\Users\stapi\AppData\Local\Temp\ccjssdjY.s:21698  .debug_str:00000000000011ed .LASF943
C:\Users\stapi\AppData\Local\Temp\ccjssdjY.s:23136  .debug_str:0000000000003c71 .LASF944
C:\Users\stapi\AppData\Local\Temp\ccjssdjY.s:24336  .debug_str:0000000000005f5c .LASF945
C:\Users\stapi\AppData\Local\Temp\ccjssdjY.s:24256  .debug_str:0000000000005ce4 .LASF946
C:\Users\stapi\AppData\Local\Temp\ccjssdjY.s:23568  .debug_str:000000000000482d .LASF947
C:\Users\stapi\AppData\Local\Temp\ccjssdjY.s:21132  .debug_str:00000000000001ca .LASF948
C:\Users\stapi\AppData\Local\Temp\ccjssdjY.s:23366  .debug_str:00000000000042c2 .LASF949
C:\Users\stapi\AppData\Local\Temp\ccjssdjY.s:21448  .debug_str:0000000000000a93 .LASF950
C:\Users\stapi\AppData\Local\Temp\ccjssdjY.s:23894  .debug_str:000000000000518c .LASF951
C:\Users\stapi\AppData\Local\Temp\ccjssdjY.s:23728  .debug_str:0000000000004cc0 .LASF952
C:\Users\stapi\AppData\Local\Temp\ccjssdjY.s:23934  .debug_str:000000000000529d .LASF953
C:\Users\stapi\AppData\Local\Temp\ccjssdjY.s:22816  .debug_str:00000000000031e0 .LASF954
C:\Users\stapi\AppData\Local\Temp\ccjssdjY.s:23942  .debug_str:00000000000052e2 .LASF955
C:\Users\stapi\AppData\Local\Temp\ccjssdjY.s:22534  .debug_str:00000000000029c8 .LASF956
C:\Users\stapi\AppData\Local\Temp\ccjssdjY.s:21270  .debug_str:00000000000005c4 .LASF957
C:\Users\stapi\AppData\Local\Temp\ccjssdjY.s:23086  .debug_str:0000000000003b07 .LASF958
C:\Users\stapi\AppData\Local\Temp\ccjssdjY.s:21278  .debug_str:0000000000000601 .LASF959
C:\Users\stapi\AppData\Local\Temp\ccjssdjY.s:23042  .debug_str:00000000000039a9 .LASF960
C:\Users\stapi\AppData\Local\Temp\ccjssdjY.s:21704  .debug_str:0000000000001214 .LASF961
C:\Users\stapi\AppData\Local\Temp\ccjssdjY.s:22204  .debug_str:0000000000001fc0 .LASF962
C:\Users\stapi\AppData\Local\Temp\ccjssdjY.s:23480  .debug_str:00000000000045b6 .LASF963
C:\Users\stapi\AppData\Local\Temp\ccjssdjY.s:24156  .debug_str:00000000000059ad .LASF964
C:\Users\stapi\AppData\Local\Temp\ccjssdjY.s:23304  .debug_str:0000000000004105 .LASF965
C:\Users\stapi\AppData\Local\Temp\ccjssdjY.s:21876  .debug_str:00000000000016cf .LASF966
C:\Users\stapi\AppData\Local\Temp\ccjssdjY.s:23244  .debug_str:0000000000003f86 .LASF967
C:\Users\stapi\AppData\Local\Temp\ccjssdjY.s:21966  .debug_str:0000000000001937 .LASF968
C:\Users\stapi\AppData\Local\Temp\ccjssdjY.s:21850  .debug_str:0000000000001601 .LASF969
C:\Users\stapi\AppData\Local\Temp\ccjssdjY.s:22686  .debug_str:0000000000002e1c .LASF970
C:\Users\stapi\AppData\Local\Temp\ccjssdjY.s:24188  .debug_str:0000000000005b1a .LASF971
C:\Users\stapi\AppData\Local\Temp\ccjssdjY.s:22442  .debug_str:00000000000026d0 .LASF972
C:\Users\stapi\AppData\Local\Temp\ccjssdjY.s:22542  .debug_str:0000000000002a07 .LASF973
C:\Users\stapi\AppData\Local\Temp\ccjssdjY.s:21260  .debug_str:0000000000000576 .LASF974
C:\Users\stapi\AppData\Local\Temp\ccjssdjY.s:23984  .debug_str:000000000000541e .LASF975
C:\Users\stapi\AppData\Local\Temp\ccjssdjY.s:24200  .debug_str:0000000000005b71 .LASF976
C:\Users\stapi\AppData\Local\Temp\ccjssdjY.s:21366  .debug_str:0000000000000852 .LASF977
C:\Users\stapi\AppData\Local\Temp\ccjssdjY.s:21084  .debug_str:0000000000000062 .LASF978
C:\Users\stapi\AppData\Local\Temp\ccjssdjY.s:23532  .debug_str:0000000000004706 .LASF979
C:\Users\stapi\AppData\Local\Temp\ccjssdjY.s:21736  .debug_str:00000000000012dc .LASF980
C:\Users\stapi\AppData\Local\Temp\ccjssdjY.s:21950  .debug_str:00000000000018d6 .LASF981
C:\Users\stapi\AppData\Local\Temp\ccjssdjY.s:22876  .debug_str:00000000000033a1 .LASF982
C:\Users\stapi\AppData\Local\Temp\ccjssdjY.s:21326  .debug_str:0000000000000762 .LASF983
C:\Users\stapi\AppData\Local\Temp\ccjssdjY.s:22626  .debug_str:0000000000002c7a .LASF984
C:\Users\stapi\AppData\Local\Temp\ccjssdjY.s:22174  .debug_str:0000000000001eed .LASF985
C:\Users\stapi\AppData\Local\Temp\ccjssdjY.s:21554  .debug_str:0000000000000dd0 .LASF986
C:\Users\stapi\AppData\Local\Temp\ccjssdjY.s:24074  .debug_str:00000000000056dc .LASF987
C:\Users\stapi\AppData\Local\Temp\ccjssdjY.s:22434  .debug_str:0000000000002695 .LASF988
C:\Users\stapi\AppData\Local\Temp\ccjssdjY.s:23792  .debug_str:0000000000004ea7 .LASF989
C:\Users\stapi\AppData\Local\Temp\ccjssdjY.s:23780  .debug_str:0000000000004e48 .LASF990
C:\Users\stapi\AppData\Local\Temp\ccjssdjY.s:23140  .debug_str:0000000000003c92 .LASF991
C:\Users\stapi\AppData\Local\Temp\ccjssdjY.s:22608  .debug_str:0000000000002bf5 .LASF992
C:\Users\stapi\AppData\Local\Temp\ccjssdjY.s:23622  .debug_str:00000000000049c4 .LASF993
C:\Users\stapi\AppData\Local\Temp\ccjssdjY.s:23848  .debug_str:0000000000005021 .LASF994
C:\Users\stapi\AppData\Local\Temp\ccjssdjY.s:21804  .debug_str:00000000000014d5 .LASF995
C:\Users\stapi\AppData\Local\Temp\ccjssdjY.s:21660  .debug_str:00000000000010cd .LASF996
C:\Users\stapi\AppData\Local\Temp\ccjssdjY.s:23750  .debug_str:0000000000004d5d .LASF997
C:\Users\stapi\AppData\Local\Temp\ccjssdjY.s:22718  .debug_str:0000000000002f06 .LASF998
C:\Users\stapi\AppData\Local\Temp\ccjssdjY.s:21532  .debug_str:0000000000000d10 .LASF999
C:\Users\stapi\AppData\Local\Temp\ccjssdjY.s:21754  .debug_str:000000000000134f .LASF1000
C:\Users\stapi\AppData\Local\Temp\ccjssdjY.s:21362  .debug_str:000000000000082f .LASF1001
C:\Users\stapi\AppData\Local\Temp\ccjssdjY.s:22466  .debug_str:0000000000002792 .LASF1002
C:\Users\stapi\AppData\Local\Temp\ccjssdjY.s:21958  .debug_str:00000000000018f5 .LASF1003
C:\Users\stapi\AppData\Local\Temp\ccjssdjY.s:23742  .debug_str:0000000000004d1d .LASF1004
C:\Users\stapi\AppData\Local\Temp\ccjssdjY.s:23236  .debug_str:0000000000003f4f .LASF1005
C:\Users\stapi\AppData\Local\Temp\ccjssdjY.s:22034  .debug_str:0000000000001b16 .LASF1006
C:\Users\stapi\AppData\Local\Temp\ccjssdjY.s:22062  .debug_str:0000000000001bfa .LASF1007
C:\Users\stapi\AppData\Local\Temp\ccjssdjY.s:22430  .debug_str:000000000000266c .LASF1008
C:\Users\stapi\AppData\Local\Temp\ccjssdjY.s:23400  .debug_str:000000000000439d .LASF1009
C:\Users\stapi\AppData\Local\Temp\ccjssdjY.s:23218  .debug_str:0000000000003ee4 .LASF1010
C:\Users\stapi\AppData\Local\Temp\ccjssdjY.s:24076  .debug_str:00000000000056e7 .LASF1011
C:\Users\stapi\AppData\Local\Temp\ccjssdjY.s:23268  .debug_str:0000000000004024 .LASF1012
C:\Users\stapi\AppData\Local\Temp\ccjssdjY.s:24028  .debug_str:0000000000005560 .LASF1013
C:\Users\stapi\AppData\Local\Temp\ccjssdjY.s:24010  .debug_str:00000000000054ec .LASF1014
C:\Users\stapi\AppData\Local\Temp\ccjssdjY.s:22890  .debug_str:000000000000341f .LASF1015
C:\Users\stapi\AppData\Local\Temp\ccjssdjY.s:21814  .debug_str:000000000000151d .LASF1016
C:\Users\stapi\AppData\Local\Temp\ccjssdjY.s:23876  .debug_str:00000000000050e3 .LASF1017
C:\Users\stapi\AppData\Local\Temp\ccjssdjY.s:22798  .debug_str:0000000000003159 .LASF1018
C:\Users\stapi\AppData\Local\Temp\ccjssdjY.s:22220  .debug_str:0000000000002020 .LASF1019
C:\Users\stapi\AppData\Local\Temp\ccjssdjY.s:21788  .debug_str:000000000000145b .LASF1020
C:\Users\stapi\AppData\Local\Temp\ccjssdjY.s:21322  .debug_str:0000000000000746 .LASF1021
C:\Users\stapi\AppData\Local\Temp\ccjssdjY.s:23494  .debug_str:000000000000460d .LASF1022
C:\Users\stapi\AppData\Local\Temp\ccjssdjY.s:21932  .debug_str:0000000000001862 .LASF1023
C:\Users\stapi\AppData\Local\Temp\ccjssdjY.s:22842  .debug_str:00000000000032a4 .LASF1024
C:\Users\stapi\AppData\Local\Temp\ccjssdjY.s:23618  .debug_str:00000000000049ab .LASF1025
C:\Users\stapi\AppData\Local\Temp\ccjssdjY.s:22590  .debug_str:0000000000002b70 .LASF1026
C:\Users\stapi\AppData\Local\Temp\ccjssdjY.s:23208  .debug_str:0000000000003e9f .LASF1027
C:\Users\stapi\AppData\Local\Temp\ccjssdjY.s:21894  .debug_str:000000000000174b .LASF1028
C:\Users\stapi\AppData\Local\Temp\ccjssdjY.s:22614  .debug_str:0000000000002c16 .LASF1029
C:\Users\stapi\AppData\Local\Temp\ccjssdjY.s:23372  .debug_str:00000000000042e6 .LASF1030
C:\Users\stapi\AppData\Local\Temp\ccjssdjY.s:21570  .debug_str:0000000000000e3c .LASF1031
C:\Users\stapi\AppData\Local\Temp\ccjssdjY.s:23338  .debug_str:00000000000041dd .LASF1032
C:\Users\stapi\AppData\Local\Temp\ccjssdjY.s:24180  .debug_str:0000000000005a56 .LASF1033
C:\Users\stapi\AppData\Local\Temp\ccjssdjY.s:23078  .debug_str:0000000000003ad3 .LASF1034
C:\Users\stapi\AppData\Local\Temp\ccjssdjY.s:23730  .debug_str:0000000000004cc9 .LASF1035
C:\Users\stapi\AppData\Local\Temp\ccjssdjY.s:23912  .debug_str:0000000000005214 .LASF1036
C:\Users\stapi\AppData\Local\Temp\ccjssdjY.s:22214  .debug_str:0000000000002004 .LASF1037
C:\Users\stapi\AppData\Local\Temp\ccjssdjY.s:22930  .debug_str:000000000000354d .LASF1038
C:\Users\stapi\AppData\Local\Temp\ccjssdjY.s:23060  .debug_str:0000000000003a41 .LASF1039
C:\Users\stapi\AppData\Local\Temp\ccjssdjY.s:21802  .debug_str:00000000000014d0 .LASF1040
C:\Users\stapi\AppData\Local\Temp\ccjssdjY.s:21846  .debug_str:00000000000015e3 .LASF1041
C:\Users\stapi\AppData\Local\Temp\ccjssdjY.s:21626  .debug_str:0000000000000fc3 .LASF1042
C:\Users\stapi\AppData\Local\Temp\ccjssdjY.s:21266  .debug_str:00000000000005aa .LASF1043
C:\Users\stapi\AppData\Local\Temp\ccjssdjY.s:23508  .debug_str:000000000000467d .LASF1044
C:\Users\stapi\AppData\Local\Temp\ccjssdjY.s:21914  .debug_str:00000000000017f5 .LASF1045
C:\Users\stapi\AppData\Local\Temp\ccjssdjY.s:22994  .debug_str:0000000000003830 .LASF1046
C:\Users\stapi\AppData\Local\Temp\ccjssdjY.s:23544  .debug_str:000000000000475f .LASF1047
C:\Users\stapi\AppData\Local\Temp\ccjssdjY.s:21918  .debug_str:0000000000001806 .LASF1048
C:\Users\stapi\AppData\Local\Temp\ccjssdjY.s:22458  .debug_str:0000000000002753 .LASF1049
C:\Users\stapi\AppData\Local\Temp\ccjssdjY.s:23944  .debug_str:00000000000052f5 .LASF1050
C:\Users\stapi\AppData\Local\Temp\ccjssdjY.s:21480  .debug_str:0000000000000b78 .LASF1051
C:\Users\stapi\AppData\Local\Temp\ccjssdjY.s:23386  .debug_str:000000000000433c .LASF1052
C:\Users\stapi\AppData\Local\Temp\ccjssdjY.s:21668  .debug_str:000000000000110b .LASF1053
C:\Users\stapi\AppData\Local\Temp\ccjssdjY.s:23192  .debug_str:0000000000003e29 .LASF1054
C:\Users\stapi\AppData\Local\Temp\ccjssdjY.s:24104  .debug_str:00000000000057c2 .LASF1055
C:\Users\stapi\AppData\Local\Temp\ccjssdjY.s:24388  .debug_str:00000000000060d5 .LASF1056
C:\Users\stapi\AppData\Local\Temp\ccjssdjY.s:22656  .debug_str:0000000000002d53 .LASF1057
C:\Users\stapi\AppData\Local\Temp\ccjssdjY.s:21700  .debug_str:00000000000011f4 .LASF1058
C:\Users\stapi\AppData\Local\Temp\ccjssdjY.s:23360  .debug_str:000000000000428c .LASF1059
C:\Users\stapi\AppData\Local\Temp\ccjssdjY.s:23466  .debug_str:0000000000004559 .LASF1060
C:\Users\stapi\AppData\Local\Temp\ccjssdjY.s:23914  .debug_str:000000000000521a .LASF1061
C:\Users\stapi\AppData\Local\Temp\ccjssdjY.s:23226  .debug_str:0000000000003f14 .LASF1062
C:\Users\stapi\AppData\Local\Temp\ccjssdjY.s:24030  .debug_str:0000000000005575 .LASF1063
C:\Users\stapi\AppData\Local\Temp\ccjssdjY.s:22588  .debug_str:0000000000002b6a .LASF1064
C:\Users\stapi\AppData\Local\Temp\ccjssdjY.s:23790  .debug_str:0000000000004e9a .LASF1065
C:\Users\stapi\AppData\Local\Temp\ccjssdjY.s:21282  .debug_str:000000000000061f .LASF1066
C:\Users\stapi\AppData\Local\Temp\ccjssdjY.s:22722  .debug_str:0000000000002f24 .LASF1067
C:\Users\stapi\AppData\Local\Temp\ccjssdjY.s:21420  .debug_str:00000000000009dc .LASF1068
C:\Users\stapi\AppData\Local\Temp\ccjssdjY.s:21794  .debug_str:0000000000001486 .LASF1069
C:\Users\stapi\AppData\Local\Temp\ccjssdjY.s:24100  .debug_str:0000000000005798 .LASF1070
C:\Users\stapi\AppData\Local\Temp\ccjssdjY.s:23180  .debug_str:0000000000003dc4 .LASF1071
C:\Users\stapi\AppData\Local\Temp\ccjssdjY.s:24066  .debug_str:00000000000056a4 .LASF1072
C:\Users\stapi\AppData\Local\Temp\ccjssdjY.s:21440  .debug_str:0000000000000a65 .LASF1073
C:\Users\stapi\AppData\Local\Temp\ccjssdjY.s:23612  .debug_str:0000000000004976 .LASF1074
C:\Users\stapi\AppData\Local\Temp\ccjssdjY.s:21564  .debug_str:0000000000000e07 .LASF1075
C:\Users\stapi\AppData\Local\Temp\ccjssdjY.s:22112  .debug_str:0000000000001d3d .LASF1076
C:\Users\stapi\AppData\Local\Temp\ccjssdjY.s:22284  .debug_str:00000000000021f4 .LASF1077
C:\Users\stapi\AppData\Local\Temp\ccjssdjY.s:22324  .debug_str:0000000000002349 .LASF1078
C:\Users\stapi\AppData\Local\Temp\ccjssdjY.s:22836  .debug_str:000000000000327e .LASF1079
C:\Users\stapi\AppData\Local\Temp\ccjssdjY.s:24300  .debug_str:0000000000005e30 .LASF1080
C:\Users\stapi\AppData\Local\Temp\ccjssdjY.s:22310  .debug_str:00000000000022db .LASF1081
C:\Users\stapi\AppData\Local\Temp\ccjssdjY.s:23610  .debug_str:000000000000496d .LASF1082
C:\Users\stapi\AppData\Local\Temp\ccjssdjY.s:24146  .debug_str:0000000000005967 .LASF1083
C:\Users\stapi\AppData\Local\Temp\ccjssdjY.s:22528  .debug_str:0000000000002995 .LASF1084
C:\Users\stapi\AppData\Local\Temp\ccjssdjY.s:21954  .debug_str:00000000000018e7 .LASF1085
C:\Users\stapi\AppData\Local\Temp\ccjssdjY.s:21928  .debug_str:0000000000001849 .LASF1086
C:\Users\stapi\AppData\Local\Temp\ccjssdjY.s:21664  .debug_str:00000000000010e7 .LASF1087
C:\Users\stapi\AppData\Local\Temp\ccjssdjY.s:24152  .debug_str:0000000000005992 .LASF1088
C:\Users\stapi\AppData\Local\Temp\ccjssdjY.s:23262  .debug_str:0000000000003ffd .LASF1089
C:\Users\stapi\AppData\Local\Temp\ccjssdjY.s:23202  .debug_str:0000000000003e7c .LASF1090
C:\Users\stapi\AppData\Local\Temp\ccjssdjY.s:22644  .debug_str:0000000000002cf5 .LASF1091
C:\Users\stapi\AppData\Local\Temp\ccjssdjY.s:21196  .debug_str:00000000000003b0 .LASF1092
C:\Users\stapi\AppData\Local\Temp\ccjssdjY.s:21838  .debug_str:00000000000015b3 .LASF1093
C:\Users\stapi\AppData\Local\Temp\ccjssdjY.s:23058  .debug_str:0000000000003a30 .LASF1094
C:\Users\stapi\AppData\Local\Temp\ccjssdjY.s:22014  .debug_str:0000000000001a8b .LASF1095
C:\Users\stapi\AppData\Local\Temp\ccjssdjY.s:23358  .debug_str:0000000000004281 .LASF1096
C:\Users\stapi\AppData\Local\Temp\ccjssdjY.s:23688  .debug_str:0000000000004ba2 .LASF1097
C:\Users\stapi\AppData\Local\Temp\ccjssdjY.s:21818  .debug_str:000000000000152e .LASF1098
C:\Users\stapi\AppData\Local\Temp\ccjssdjY.s:23004  .debug_str:000000000000386b .LASF1099
C:\Users\stapi\AppData\Local\Temp\ccjssdjY.s:22776  .debug_str:00000000000030c3 .LASF1100
C:\Users\stapi\AppData\Local\Temp\ccjssdjY.s:22778  .debug_str:00000000000030d0 .LASF1101
C:\Users\stapi\AppData\Local\Temp\ccjssdjY.s:23628  .debug_str:0000000000004a03 .LASF1102
C:\Users\stapi\AppData\Local\Temp\ccjssdjY.s:21530  .debug_str:0000000000000cf5 .LASF1103
C:\Users\stapi\AppData\Local\Temp\ccjssdjY.s:24406  .debug_str:0000000000006161 .LASF1104
C:\Users\stapi\AppData\Local\Temp\ccjssdjY.s:22140  .debug_str:0000000000001e07 .LASF1105
C:\Users\stapi\AppData\Local\Temp\ccjssdjY.s:23398  .debug_str:0000000000004391 .LASF1106
C:\Users\stapi\AppData\Local\Temp\ccjssdjY.s:22156  .debug_str:0000000000001e88 .LASF1107
C:\Users\stapi\AppData\Local\Temp\ccjssdjY.s:21378  .debug_str:00000000000008a3 .LASF1108
C:\Users\stapi\AppData\Local\Temp\ccjssdjY.s:22000  .debug_str:0000000000001a25 .LASF1109
C:\Users\stapi\AppData\Local\Temp\ccjssdjY.s:24270  .debug_str:0000000000005d46 .LASF1110
C:\Users\stapi\AppData\Local\Temp\ccjssdjY.s:21156  .debug_str:000000000000027c .LASF1111
C:\Users\stapi\AppData\Local\Temp\ccjssdjY.s:21642  .debug_str:000000000000103e .LASF1112
C:\Users\stapi\AppData\Local\Temp\ccjssdjY.s:23744  .debug_str:0000000000004d2c .LASF1113
C:\Users\stapi\AppData\Local\Temp\ccjssdjY.s:22438  .debug_str:00000000000026b7 .LASF1114
C:\Users\stapi\AppData\Local\Temp\ccjssdjY.s:22280  .debug_str:00000000000021d5 .LASF1115
C:\Users\stapi\AppData\Local\Temp\ccjssdjY.s:21712  .debug_str:0000000000001243 .LASF1116
C:\Users\stapi\AppData\Local\Temp\ccjssdjY.s:21158  .debug_str:0000000000000287 .LASF1117
C:\Users\stapi\AppData\Local\Temp\ccjssdjY.s:23306  .debug_str:000000000000410f .LASF1118
C:\Users\stapi\AppData\Local\Temp\ccjssdjY.s:23054  .debug_str:0000000000003a12 .LASF1119
C:\Users\stapi\AppData\Local\Temp\ccjssdjY.s:24166  .debug_str:00000000000059f9 .LASF1120
C:\Users\stapi\AppData\Local\Temp\ccjssdjY.s:24208  .debug_str:0000000000005bb9 .LASF1121
C:\Users\stapi\AppData\Local\Temp\ccjssdjY.s:22998  .debug_str:000000000000384b .LASF1122
C:\Users\stapi\AppData\Local\Temp\ccjssdjY.s:22796  .debug_str:000000000000314d .LASF1123
C:\Users\stapi\AppData\Local\Temp\ccjssdjY.s:21864  .debug_str:0000000000001690 .LASF1124
C:\Users\stapi\AppData\Local\Temp\ccjssdjY.s:24068  .debug_str:00000000000056b2 .LASF1125
C:\Users\stapi\AppData\Local\Temp\ccjssdjY.s:23774  .debug_str:0000000000004e2e .LASF1126
C:\Users\stapi\AppData\Local\Temp\ccjssdjY.s:22106  .debug_str:0000000000001d1d .LASF1127
C:\Users\stapi\AppData\Local\Temp\ccjssdjY.s:22766  .debug_str:0000000000003079 .LASF1128
C:\Users\stapi\AppData\Local\Temp\ccjssdjY.s:21252  .debug_str:0000000000000541 .LASF1129
C:\Users\stapi\AppData\Local\Temp\ccjssdjY.s:22986  .debug_str:00000000000037ef .LASF1130
C:\Users\stapi\AppData\Local\Temp\ccjssdjY.s:21706  .debug_str:0000000000001221 .LASF1131
C:\Users\stapi\AppData\Local\Temp\ccjssdjY.s:21962  .debug_str:000000000000191a .LASF1132
C:\Users\stapi\AppData\Local\Temp\ccjssdjY.s:22714  .debug_str:0000000000002ee0 .LASF1133
C:\Users\stapi\AppData\Local\Temp\ccjssdjY.s:22544  .debug_str:0000000000002a16 .LASF1134
C:\Users\stapi\AppData\Local\Temp\ccjssdjY.s:23032  .debug_str:0000000000003967 .LASF1135
C:\Users\stapi\AppData\Local\Temp\ccjssdjY.s:23464  .debug_str:0000000000004546 .LASF1136
C:\Users\stapi\AppData\Local\Temp\ccjssdjY.s:21220  .debug_str:0000000000000458 .LASF1137
C:\Users\stapi\AppData\Local\Temp\ccjssdjY.s:21144  .debug_str:0000000000000215 .LASF1138
C:\Users\stapi\AppData\Local\Temp\ccjssdjY.s:21324  .debug_str:0000000000000751 .LASF1139
C:\Users\stapi\AppData\Local\Temp\ccjssdjY.s:23356  .debug_str:0000000000004277 .LASF1140
C:\Users\stapi\AppData\Local\Temp\ccjssdjY.s:21312  .debug_str:00000000000006f4 .LASF1141
C:\Users\stapi\AppData\Local\Temp\ccjssdjY.s:23106  .debug_str:0000000000003b9c .LASF1142
C:\Users\stapi\AppData\Local\Temp\ccjssdjY.s:24392  .debug_str:00000000000060f0 .LASF1143
C:\Users\stapi\AppData\Local\Temp\ccjssdjY.s:23772  .debug_str:0000000000004e23 .LASF1144
C:\Users\stapi\AppData\Local\Temp\ccjssdjY.s:23228  .debug_str:0000000000003f1e .LASF1145
C:\Users\stapi\AppData\Local\Temp\ccjssdjY.s:24184  .debug_str:0000000000005a76 .LASF1146
C:\Users\stapi\AppData\Local\Temp\ccjssdjY.s:22288  .debug_str:000000000000221d .LASF1147
C:\Users\stapi\AppData\Local\Temp\ccjssdjY.s:23196  .debug_str:0000000000003e48 .LASF1148
C:\Users\stapi\AppData\Local\Temp\ccjssdjY.s:21310  .debug_str:00000000000006e5 .LASF1149
C:\Users\stapi\AppData\Local\Temp\ccjssdjY.s:23422  .debug_str:0000000000004440 .LASF1150
C:\Users\stapi\AppData\Local\Temp\ccjssdjY.s:23822  .debug_str:0000000000004f6b .LASF1151
C:\Users\stapi\AppData\Local\Temp\ccjssdjY.s:23652  .debug_str:0000000000004a88 .LASF1152
C:\Users\stapi\AppData\Local\Temp\ccjssdjY.s:22138  .debug_str:0000000000001e02 .LASF1153
C:\Users\stapi\AppData\Local\Temp\ccjssdjY.s:21596  .debug_str:0000000000000eee .LASF1154
C:\Users\stapi\AppData\Local\Temp\ccjssdjY.s:22070  .debug_str:0000000000001c22 .LASF1155
C:\Users\stapi\AppData\Local\Temp\ccjssdjY.s:23222  .debug_str:0000000000003ef9 .LASF1156
C:\Users\stapi\AppData\Local\Temp\ccjssdjY.s:22938  .debug_str:0000000000003576 .LASF1157
C:\Users\stapi\AppData\Local\Temp\ccjssdjY.s:24142  .debug_str:0000000000005941 .LASF1158
C:\Users\stapi\AppData\Local\Temp\ccjssdjY.s:21456  .debug_str:0000000000000ac0 .LASF1159
C:\Users\stapi\AppData\Local\Temp\ccjssdjY.s:24002  .debug_str:00000000000054af .LASF1160
C:\Users\stapi\AppData\Local\Temp\ccjssdjY.s:21384  .debug_str:00000000000008ca .LASF1161
C:\Users\stapi\AppData\Local\Temp\ccjssdjY.s:21086  .debug_str:0000000000000070 .LASF1162
C:\Users\stapi\AppData\Local\Temp\ccjssdjY.s:23538  .debug_str:000000000000472b .LASF1163
C:\Users\stapi\AppData\Local\Temp\ccjssdjY.s:24364  .debug_str:0000000000006024 .LASF1164
C:\Users\stapi\AppData\Local\Temp\ccjssdjY.s:24052  .debug_str:0000000000005636 .LASF1165
C:\Users\stapi\AppData\Local\Temp\ccjssdjY.s:23858  .debug_str:0000000000005066 .LASF1166
C:\Users\stapi\AppData\Local\Temp\ccjssdjY.s:21738  .debug_str:00000000000012e7 .LASF1167
C:\Users\stapi\AppData\Local\Temp\ccjssdjY.s:22578  .debug_str:0000000000002b30 .LASF1168
C:\Users\stapi\AppData\Local\Temp\ccjssdjY.s:22192  .debug_str:0000000000001f70 .LASF1169
C:\Users\stapi\AppData\Local\Temp\ccjssdjY.s:21774  .debug_str:00000000000013ec .LASF1170
C:\Users\stapi\AppData\Local\Temp\ccjssdjY.s:22472  .debug_str:00000000000027be .LASF1171
C:\Users\stapi\AppData\Local\Temp\ccjssdjY.s:21468  .debug_str:0000000000000b0c .LASF1172
C:\Users\stapi\AppData\Local\Temp\ccjssdjY.s:21076  .debug_str:0000000000000022 .LASF1173
C:\Users\stapi\AppData\Local\Temp\ccjssdjY.s:21146  .debug_str:0000000000000222 .LASF1174
C:\Users\stapi\AppData\Local\Temp\ccjssdjY.s:21986  .debug_str:00000000000019d1 .LASF1175
C:\Users\stapi\AppData\Local\Temp\ccjssdjY.s:23634  .debug_str:0000000000004a2a .LASF1176
C:\Users\stapi\AppData\Local\Temp\ccjssdjY.s:23160  .debug_str:0000000000003d38 .LASF1177
C:\Users\stapi\AppData\Local\Temp\ccjssdjY.s:23294  .debug_str:00000000000040c5 .LASF1178
C:\Users\stapi\AppData\Local\Temp\ccjssdjY.s:23084  .debug_str:0000000000003af9 .LASF1179
C:\Users\stapi\AppData\Local\Temp\ccjssdjY.s:22524  .debug_str:0000000000002976 .LASF1180
C:\Users\stapi\AppData\Local\Temp\ccjssdjY.s:23764  .debug_str:0000000000004dd2 .LASF1181
C:\Users\stapi\AppData\Local\Temp\ccjssdjY.s:22972  .debug_str:0000000000003768 .LASF1182
C:\Users\stapi\AppData\Local\Temp\ccjssdjY.s:24182  .debug_str:0000000000005a5b .LASF1183
C:\Users\stapi\AppData\Local\Temp\ccjssdjY.s:24124  .debug_str:00000000000058cb .LASF1184
C:\Users\stapi\AppData\Local\Temp\ccjssdjY.s:21230  .debug_str:0000000000000498 .LASF1185
C:\Users\stapi\AppData\Local\Temp\ccjssdjY.s:23502  .debug_str:0000000000004653 .LASF1186
C:\Users\stapi\AppData\Local\Temp\ccjssdjY.s:23010  .debug_str:0000000000003894 .LASF1187
C:\Users\stapi\AppData\Local\Temp\ccjssdjY.s:21680  .debug_str:000000000000115b .LASF1188
C:\Users\stapi\AppData\Local\Temp\ccjssdjY.s:23174  .debug_str:0000000000003d80 .LASF1189
C:\Users\stapi\AppData\Local\Temp\ccjssdjY.s:22230  .debug_str:0000000000002066 .LASF1190
C:\Users\stapi\AppData\Local\Temp\ccjssdjY.s:21098  .debug_str:00000000000000c3 .LASF1191
C:\Users\stapi\AppData\Local\Temp\ccjssdjY.s:23800  .debug_str:0000000000004ec9 .LASF1192
C:\Users\stapi\AppData\Local\Temp\ccjssdjY.s:23148  .debug_str:0000000000003cd4 .LASF1193
C:\Users\stapi\AppData\Local\Temp\ccjssdjY.s:22190  .debug_str:0000000000001f56 .LASF1194
C:\Users\stapi\AppData\Local\Temp\ccjssdjY.s:21408  .debug_str:000000000000098a .LASF1195
C:\Users\stapi\AppData\Local\Temp\ccjssdjY.s:22088  .debug_str:0000000000001c9b .LASF1196
C:\Users\stapi\AppData\Local\Temp\ccjssdjY.s:22922  .debug_str:000000000000350a .LASF1197
C:\Users\stapi\AppData\Local\Temp\ccjssdjY.s:23150  .debug_str:0000000000003cdf .LASF1198
C:\Users\stapi\AppData\Local\Temp\ccjssdjY.s:22732  .debug_str:0000000000002f62 .LASF1199
C:\Users\stapi\AppData\Local\Temp\ccjssdjY.s:23314  .debug_str:0000000000004144 .LASF1200
C:\Users\stapi\AppData\Local\Temp\ccjssdjY.s:23562  .debug_str:00000000000047ff .LASF1201
C:\Users\stapi\AppData\Local\Temp\ccjssdjY.s:22018  .debug_str:0000000000001aa5 .LASF1202
C:\Users\stapi\AppData\Local\Temp\ccjssdjY.s:24106  .debug_str:00000000000057d9 .LASF1203
C:\Users\stapi\AppData\Local\Temp\ccjssdjY.s:24306  .debug_str:0000000000005e6b .LASF1204
C:\Users\stapi\AppData\Local\Temp\ccjssdjY.s:22172  .debug_str:0000000000001ee1 .LASF1205
C:\Users\stapi\AppData\Local\Temp\ccjssdjY.s:21878  .debug_str:00000000000016d8 .LASF1206
C:\Users\stapi\AppData\Local\Temp\ccjssdjY.s:22620  .debug_str:0000000000002c47 .LASF1207
C:\Users\stapi\AppData\Local\Temp\ccjssdjY.s:23724  .debug_str:0000000000004c99 .LASF1208
C:\Users\stapi\AppData\Local\Temp\ccjssdjY.s:21916  .debug_str:00000000000017fb .LASF1209
C:\Users\stapi\AppData\Local\Temp\ccjssdjY.s:23648  .debug_str:0000000000004a71 .LASF1210
C:\Users\stapi\AppData\Local\Temp\ccjssdjY.s:23450  .debug_str:00000000000044f1 .LASF1211
C:\Users\stapi\AppData\Local\Temp\ccjssdjY.s:21828  .debug_str:000000000000156f .LASF1212
C:\Users\stapi\AppData\Local\Temp\ccjssdjY.s:23818  .debug_str:0000000000004f4b .LASF1213
C:\Users\stapi\AppData\Local\Temp\ccjssdjY.s:23662  .debug_str:0000000000004ad7 .LASF1214
C:\Users\stapi\AppData\Local\Temp\ccjssdjY.s:22894  .debug_str:0000000000003430 .LASF1215
C:\Users\stapi\AppData\Local\Temp\ccjssdjY.s:22036  .debug_str:0000000000001b21 .LASF1216
C:\Users\stapi\AppData\Local\Temp\ccjssdjY.s:22736  .debug_str:0000000000002f7d .LASF1217
C:\Users\stapi\AppData\Local\Temp\ccjssdjY.s:24354  .debug_str:0000000000005fc3 .LASF1218
C:\Users\stapi\AppData\Local\Temp\ccjssdjY.s:21684  .debug_str:0000000000001172 .LASF1219
C:\Users\stapi\AppData\Local\Temp\ccjssdjY.s:22382  .debug_str:0000000000002509 .LASF1220
C:\Users\stapi\AppData\Local\Temp\ccjssdjY.s:24042  .debug_str:00000000000055d0 .LASF1221
C:\Users\stapi\AppData\Local\Temp\ccjssdjY.s:24394  .debug_str:000000000000610a .LASF1222
C:\Users\stapi\AppData\Local\Temp\ccjssdjY.s:23654  .debug_str:0000000000004a91 .LASF1223
C:\Users\stapi\AppData\Local\Temp\ccjssdjY.s:23146  .debug_str:0000000000003cc1 .LASF1224
C:\Users\stapi\AppData\Local\Temp\ccjssdjY.s:21744  .debug_str:000000000000130c .LASF1225
C:\Users\stapi\AppData\Local\Temp\ccjssdjY.s:24328  .debug_str:0000000000005f10 .LASF1226
C:\Users\stapi\AppData\Local\Temp\ccjssdjY.s:23094  .debug_str:0000000000003b43 .LASF1227
C:\Users\stapi\AppData\Local\Temp\ccjssdjY.s:23820  .debug_str:0000000000004f52 .LASF1228
C:\Users\stapi\AppData\Local\Temp\ccjssdjY.s:23374  .debug_str:00000000000042ef .LASF1229
C:\Users\stapi\AppData\Local\Temp\ccjssdjY.s:23430  .debug_str:000000000000446f .LASF1230
C:\Users\stapi\AppData\Local\Temp\ccjssdjY.s:23696  .debug_str:0000000000004bce .LASF1231
C:\Users\stapi\AppData\Local\Temp\ccjssdjY.s:21952  .debug_str:00000000000018dd .LASF1232
C:\Users\stapi\AppData\Local\Temp\ccjssdjY.s:22956  .debug_str:00000000000036fc .LASF1233
C:\Users\stapi\AppData\Local\Temp\ccjssdjY.s:24064  .debug_str:0000000000005692 .LASF1234
C:\Users\stapi\AppData\Local\Temp\ccjssdjY.s:22872  .debug_str:0000000000003376 .LASF1235
C:\Users\stapi\AppData\Local\Temp\ccjssdjY.s:22678  .debug_str:0000000000002de9 .LASF1236
C:\Users\stapi\AppData\Local\Temp\ccjssdjY.s:24266  .debug_str:0000000000005d1d .LASF1237
C:\Users\stapi\AppData\Local\Temp\ccjssdjY.s:21960  .debug_str:000000000000190f .LASF1238
C:\Users\stapi\AppData\Local\Temp\ccjssdjY.s:23864  .debug_str:0000000000005084 .LASF1239
C:\Users\stapi\AppData\Local\Temp\ccjssdjY.s:21242  .debug_str:00000000000004fa .LASF1240
C:\Users\stapi\AppData\Local\Temp\ccjssdjY.s:23040  .debug_str:00000000000039a0 .LASF1241
C:\Users\stapi\AppData\Local\Temp\ccjssdjY.s:24272  .debug_str:0000000000005d62 .LASF1242
C:\Users\stapi\AppData\Local\Temp\ccjssdjY.s:21334  .debug_str:000000000000079b .LASF1243
C:\Users\stapi\AppData\Local\Temp\ccjssdjY.s:24378  .debug_str:0000000000006085 .LASF1244
C:\Users\stapi\AppData\Local\Temp\ccjssdjY.s:23598  .debug_str:0000000000004905 .LASF1245
C:\Users\stapi\AppData\Local\Temp\ccjssdjY.s:24194  .debug_str:0000000000005b43 .LASF1246
C:\Users\stapi\AppData\Local\Temp\ccjssdjY.s:22126  .debug_str:0000000000001da8 .LASF1247
C:\Users\stapi\AppData\Local\Temp\ccjssdjY.s:22414  .debug_str:00000000000025fc .LASF1248
C:\Users\stapi\AppData\Local\Temp\ccjssdjY.s:22118  .debug_str:0000000000001d67 .LASF1249
C:\Users\stapi\AppData\Local\Temp\ccjssdjY.s:23684  .debug_str:0000000000004b89 .LASF1250
C:\Users\stapi\AppData\Local\Temp\ccjssdjY.s:23954  .debug_str:0000000000005342 .LASF1251
C:\Users\stapi\AppData\Local\Temp\ccjssdjY.s:24120  .debug_str:00000000000058b5 .LASF1252
C:\Users\stapi\AppData\Local\Temp\ccjssdjY.s:22918  .debug_str:00000000000034e9 .LASF1253
C:\Users\stapi\AppData\Local\Temp\ccjssdjY.s:23514  .debug_str:0000000000004695 .LASF1254
C:\Users\stapi\AppData\Local\Temp\ccjssdjY.s:22674  .debug_str:0000000000002dce .LASF1255
C:\Users\stapi\AppData\Local\Temp\ccjssdjY.s:24054  .debug_str:0000000000005646 .LASF1256
C:\Users\stapi\AppData\Local\Temp\ccjssdjY.s:22468  .debug_str:00000000000027a8 .LASF1257
C:\Users\stapi\AppData\Local\Temp\ccjssdjY.s:21568  .debug_str:0000000000000e35 .LASF1258
C:\Users\stapi\AppData\Local\Temp\ccjssdjY.s:23650  .debug_str:0000000000004a81 .LASF1259
C:\Users\stapi\AppData\Local\Temp\ccjssdjY.s:23906  .debug_str:00000000000051eb .LASF1260
C:\Users\stapi\AppData\Local\Temp\ccjssdjY.s:22498  .debug_str:000000000000288c .LASF1261
C:\Users\stapi\AppData\Local\Temp\ccjssdjY.s:21566  .debug_str:0000000000000e1e .LASF1262
C:\Users\stapi\AppData\Local\Temp\ccjssdjY.s:23312  .debug_str:0000000000004139 .LASF1263
C:\Users\stapi\AppData\Local\Temp\ccjssdjY.s:23392  .debug_str:000000000000435b .LASF1264
C:\Users\stapi\AppData\Local\Temp\ccjssdjY.s:21988  .debug_str:00000000000019ed .LASF1265
C:\Users\stapi\AppData\Local\Temp\ccjssdjY.s:22758  .debug_str:0000000000003035 .LASF1266
C:\Users\stapi\AppData\Local\Temp\ccjssdjY.s:23062  .debug_str:0000000000003a4a .LASF1267
C:\Users\stapi\AppData\Local\Temp\ccjssdjY.s:22672  .debug_str:0000000000002dc3 .LASF1268
C:\Users\stapi\AppData\Local\Temp\ccjssdjY.s:21742  .debug_str:0000000000001304 .LASF1269
C:\Users\stapi\AppData\Local\Temp\ccjssdjY.s:22404  .debug_str:00000000000025b3 .LASF1270
C:\Users\stapi\AppData\Local\Temp\ccjssdjY.s:23498  .debug_str:000000000000462f .LASF1271
C:\Users\stapi\AppData\Local\Temp\ccjssdjY.s:24024  .debug_str:000000000000553f .LASF1272
C:\Users\stapi\AppData\Local\Temp\ccjssdjY.s:24358  .debug_str:0000000000005fe6 .LASF1273
C:\Users\stapi\AppData\Local\Temp\ccjssdjY.s:21104  .debug_str:00000000000000ec .LASF1274
C:\Users\stapi\AppData\Local\Temp\ccjssdjY.s:21560  .debug_str:0000000000000de8 .LASF1275
C:\Users\stapi\AppData\Local\Temp\ccjssdjY.s:21168  .debug_str:00000000000002d3 .LASF1276
C:\Users\stapi\AppData\Local\Temp\ccjssdjY.s:22330  .debug_str:0000000000002389 .LASF1277
C:\Users\stapi\AppData\Local\Temp\ccjssdjY.s:22928  .debug_str:000000000000353d .LASF1278
C:\Users\stapi\AppData\Local\Temp\ccjssdjY.s:22260  .debug_str:0000000000002153 .LASF1279
C:\Users\stapi\AppData\Local\Temp\ccjssdjY.s:23456  .debug_str:000000000000450a .LASF1280
C:\Users\stapi\AppData\Local\Temp\ccjssdjY.s:24110  .debug_str:0000000000005874 .LASF1281
C:\Users\stapi\AppData\Local\Temp\ccjssdjY.s:21534  .debug_str:0000000000000d2a .LASF1282
C:\Users\stapi\AppData\Local\Temp\ccjssdjY.s:23028  .debug_str:000000000000394e .LASF1283
C:\Users\stapi\AppData\Local\Temp\ccjssdjY.s:23476  .debug_str:00000000000045a1 .LASF1284
C:\Users\stapi\AppData\Local\Temp\ccjssdjY.s:23212  .debug_str:0000000000003eb1 .LASF1285
C:\Users\stapi\AppData\Local\Temp\ccjssdjY.s:24058  .debug_str:0000000000005666 .LASF1286
C:\Users\stapi\AppData\Local\Temp\ccjssdjY.s:22830  .debug_str:0000000000003256 .LASF1287
C:\Users\stapi\AppData\Local\Temp\ccjssdjY.s:23230  .debug_str:0000000000003f28 .LASF1288
C:\Users\stapi\AppData\Local\Temp\ccjssdjY.s:21720  .debug_str:0000000000001272 .LASF1289
C:\Users\stapi\AppData\Local\Temp\ccjssdjY.s:21862  .debug_str:0000000000001678 .LASF1290
C:\Users\stapi\AppData\Local\Temp\ccjssdjY.s:24044  .debug_str:00000000000055ef .LASF1291
C:\Users\stapi\AppData\Local\Temp\ccjssdjY.s:21648  .debug_str:000000000000106b .LASF1292
C:\Users\stapi\AppData\Local\Temp\ccjssdjY.s:21654  .debug_str:000000000000109c .LASF1293
C:\Users\stapi\AppData\Local\Temp\ccjssdjY.s:24384  .debug_str:00000000000060af .LASF1294
C:\Users\stapi\AppData\Local\Temp\ccjssdjY.s:23868  .debug_str:00000000000050a6 .LASF1295
C:\Users\stapi\AppData\Local\Temp\ccjssdjY.s:22874  .debug_str:0000000000003388 .LASF1296
C:\Users\stapi\AppData\Local\Temp\ccjssdjY.s:22328  .debug_str:000000000000236f .LASF1297
C:\Users\stapi\AppData\Local\Temp\ccjssdjY.s:22692  .debug_str:0000000000002e43 .LASF1298
C:\Users\stapi\AppData\Local\Temp\ccjssdjY.s:21892  .debug_str:0000000000001731 .LASF1299
C:\Users\stapi\AppData\Local\Temp\ccjssdjY.s:21800  .debug_str:00000000000014bb .LASF1300
C:\Users\stapi\AppData\Local\Temp\ccjssdjY.s:23118  .debug_str:0000000000003bf6 .LASF1301
C:\Users\stapi\AppData\Local\Temp\ccjssdjY.s:21258  .debug_str:000000000000056c .LASF1302
C:\Users\stapi\AppData\Local\Temp\ccjssdjY.s:22320  .debug_str:000000000000232b .LASF1303
C:\Users\stapi\AppData\Local\Temp\ccjssdjY.s:24340  .debug_str:0000000000005f72 .LASF1304
C:\Users\stapi\AppData\Local\Temp\ccjssdjY.s:23232  .debug_str:0000000000003f34 .LASF1305
C:\Users\stapi\AppData\Local\Temp\ccjssdjY.s:22926  .debug_str:000000000000352b .LASF1306
C:\Users\stapi\AppData\Local\Temp\ccjssdjY.s:22300  .debug_str:000000000000227c .LASF1307
C:\Users\stapi\AppData\Local\Temp\ccjssdjY.s:22858  .debug_str:00000000000032fc .LASF1308
C:\Users\stapi\AppData\Local\Temp\ccjssdjY.s:22168  .debug_str:0000000000001ecb .LASF1309
C:\Users\stapi\AppData\Local\Temp\ccjssdjY.s:21202  .debug_str:00000000000003d7 .LASF1310
C:\Users\stapi\AppData\Local\Temp\ccjssdjY.s:21204  .debug_str:00000000000003e3 .LASF1311
C:\Users\stapi\AppData\Local\Temp\ccjssdjY.s:21972  .debug_str:000000000000195f .LASF1312
C:\Users\stapi\AppData\Local\Temp\ccjssdjY.s:22868  .debug_str:000000000000335a .LASF1313
C:\Users\stapi\AppData\Local\Temp\ccjssdjY.s:21646  .debug_str:0000000000001062 .LASF1314
C:\Users\stapi\AppData\Local\Temp\ccjssdjY.s:24232  .debug_str:0000000000005c46 .LASF1315
C:\Users\stapi\AppData\Local\Temp\ccjssdjY.s:23328  .debug_str:0000000000004194 .LASF1316
C:\Users\stapi\AppData\Local\Temp\ccjssdjY.s:23324  .debug_str:0000000000004178 .LASF1317
C:\Users\stapi\AppData\Local\Temp\ccjssdjY.s:23068  .debug_str:0000000000003a81 .LASF1318
C:\Users\stapi\AppData\Local\Temp\ccjssdjY.s:22364  .debug_str:0000000000002479 .LASF1319
C:\Users\stapi\AppData\Local\Temp\ccjssdjY.s:22984  .debug_str:00000000000037e2 .LASF1320
C:\Users\stapi\AppData\Local\Temp\ccjssdjY.s:24244  .debug_str:0000000000005c8d .LASF1321
C:\Users\stapi\AppData\Local\Temp\ccjssdjY.s:22332  .debug_str:0000000000002391 .LASF1322
C:\Users\stapi\AppData\Local\Temp\ccjssdjY.s:24236  .debug_str:0000000000005c5f .LASF1323
C:\Users\stapi\AppData\Local\Temp\ccjssdjY.s:24126  .debug_str:00000000000058d7 .LASF1324
C:\Users\stapi\AppData\Local\Temp\ccjssdjY.s:21256  .debug_str:000000000000055f .LASF1325
C:\Users\stapi\AppData\Local\Temp\ccjssdjY.s:21124  .debug_str:000000000000017f .LASF1326
C:\Users\stapi\AppData\Local\Temp\ccjssdjY.s:22236  .debug_str:0000000000002080 .LASF1327
C:\Users\stapi\AppData\Local\Temp\ccjssdjY.s:22560  .debug_str:0000000000002a9f .LASF1328
C:\Users\stapi\AppData\Local\Temp\ccjssdjY.s:21470  .debug_str:0000000000000b2a .LASF1329
C:\Users\stapi\AppData\Local\Temp\ccjssdjY.s:22814  .debug_str:00000000000031c2 .LASF1330
C:\Users\stapi\AppData\Local\Temp\ccjssdjY.s:22800  .debug_str:0000000000003166 .LASF1331
C:\Users\stapi\AppData\Local\Temp\ccjssdjY.s:22738  .debug_str:0000000000002f8c .LASF1332
C:\Users\stapi\AppData\Local\Temp\ccjssdjY.s:21644  .debug_str:0000000000001048 .LASF1333
C:\Users\stapi\AppData\Local\Temp\ccjssdjY.s:21422  .debug_str:00000000000009e6 .LASF1334
C:\Users\stapi\AppData\Local\Temp\ccjssdjY.s:22416  .debug_str:000000000000260a .LASF1335
C:\Users\stapi\AppData\Local\Temp\ccjssdjY.s:22336  .debug_str:00000000000023a1 .LASF1336
C:\Users\stapi\AppData\Local\Temp\ccjssdjY.s:21382  .debug_str:00000000000008c0 .LASF1337
C:\Users\stapi\AppData\Local\Temp\ccjssdjY.s:22632  .debug_str:0000000000002cab .LASF1338
C:\Users\stapi\AppData\Local\Temp\ccjssdjY.s:21148  .debug_str:000000000000023a .LASF1339
C:\Users\stapi\AppData\Local\Temp\ccjssdjY.s:22446  .debug_str:00000000000026ed .LASF1340
C:\Users\stapi\AppData\Local\Temp\ccjssdjY.s:24092  .debug_str:0000000000005755 .LASF1341
C:\Users\stapi\AppData\Local\Temp\ccjssdjY.s:23250  .debug_str:0000000000003fa3 .LASF1342
C:\Users\stapi\AppData\Local\Temp\ccjssdjY.s:24258  .debug_str:0000000000005cec .LASF1343
C:\Users\stapi\AppData\Local\Temp\ccjssdjY.s:23928  .debug_str:0000000000005270 .LASF1344
C:\Users\stapi\AppData\Local\Temp\ccjssdjY.s:22306  .debug_str:00000000000022b1 .LASF1345
C:\Users\stapi\AppData\Local\Temp\ccjssdjY.s:22002  .debug_str:0000000000001a32 .LASF1346
C:\Users\stapi\AppData\Local\Temp\ccjssdjY.s:22294  .debug_str:0000000000002244 .LASF1347
C:\Users\stapi\AppData\Local\Temp\ccjssdjY.s:22788  .debug_str:0000000000003118 .LASF1348
C:\Users\stapi\AppData\Local\Temp\ccjssdjY.s:23144  .debug_str:0000000000003cbb .LASF1349
C:\Users\stapi\AppData\Local\Temp\ccjssdjY.s:22222  .debug_str:000000000000202c .LASF1350
C:\Users\stapi\AppData\Local\Temp\ccjssdjY.s:23952  .debug_str:0000000000005335 .LASF1351
C:\Users\stapi\AppData\Local\Temp\ccjssdjY.s:22004  .debug_str:0000000000001a3d .LASF1352
C:\Users\stapi\AppData\Local\Temp\ccjssdjY.s:21484  .debug_str:0000000000000b88 .LASF1353
C:\Users\stapi\AppData\Local\Temp\ccjssdjY.s:23556  .debug_str:00000000000047b4 .LASF1354
C:\Users\stapi\AppData\Local\Temp\ccjssdjY.s:21192  .debug_str:0000000000000383 .LASF1355
C:\Users\stapi\AppData\Local\Temp\ccjssdjY.s:22024  .debug_str:0000000000001ad2 .LASF1356
C:\Users\stapi\AppData\Local\Temp\ccjssdjY.s:24018  .debug_str:000000000000550d .LASF1357
C:\Users\stapi\AppData\Local\Temp\ccjssdjY.s:23880  .debug_str:0000000000005117 .LASF1358
C:\Users\stapi\AppData\Local\Temp\ccjssdjY.s:22612  .debug_str:0000000000002c08 .LASF1359
C:\Users\stapi\AppData\Local\Temp\ccjssdjY.s:23164  .debug_str:0000000000003d4f .LASF1360
C:\Users\stapi\AppData\Local\Temp\ccjssdjY.s:22082  .debug_str:0000000000001c6f .LASF1361
C:\Users\stapi\AppData\Local\Temp\ccjssdjY.s:22038  .debug_str:0000000000001b44 .LASF1362
C:\Users\stapi\AppData\Local\Temp\ccjssdjY.s:22970  .debug_str:0000000000003750 .LASF1363
C:\Users\stapi\AppData\Local\Temp\ccjssdjY.s:22526  .debug_str:0000000000002988 .LASF1364
C:\Users\stapi\AppData\Local\Temp\ccjssdjY.s:23030  .debug_str:0000000000003961 .LASF1365
C:\Users\stapi\AppData\Local\Temp\ccjssdjY.s:22870  .debug_str:0000000000003366 .LASF1366
C:\Users\stapi\AppData\Local\Temp\ccjssdjY.s:22962  .debug_str:0000000000003717 .LASF1367
C:\Users\stapi\AppData\Local\Temp\ccjssdjY.s:23248  .debug_str:0000000000003f9a .LASF1368
C:\Users\stapi\AppData\Local\Temp\ccjssdjY.s:21264  .debug_str:000000000000059a .LASF1369
C:\Users\stapi\AppData\Local\Temp\ccjssdjY.s:24154  .debug_str:00000000000059a5 .LASF1370
C:\Users\stapi\AppData\Local\Temp\ccjssdjY.s:22944  .debug_str:00000000000035b4 .LASF1371
C:\Users\stapi\AppData\Local\Temp\ccjssdjY.s:22084  .debug_str:0000000000001c84 .LASF1372
C:\Users\stapi\AppData\Local\Temp\ccjssdjY.s:22854  .debug_str:00000000000032e0 .LASF1373
C:\Users\stapi\AppData\Local\Temp\ccjssdjY.s:24082  .debug_str:000000000000570d .LASF1374
C:\Users\stapi\AppData\Local\Temp\ccjssdjY.s:23104  .debug_str:0000000000003b8b .LASF1375
C:\Users\stapi\AppData\Local\Temp\ccjssdjY.s:23860  .debug_str:0000000000005070 .LASF1376
C:\Users\stapi\AppData\Local\Temp\ccjssdjY.s:21512  .debug_str:0000000000000c59 .LASF1377
C:\Users\stapi\AppData\Local\Temp\ccjssdjY.s:22246  .debug_str:00000000000020e7 .LASF1378
C:\Users\stapi\AppData\Local\Temp\ccjssdjY.s:21884  .debug_str:0000000000001701 .LASF1379
C:\Users\stapi\AppData\Local\Temp\ccjssdjY.s:21224  .debug_str:000000000000047c .LASF1380
C:\Users\stapi\AppData\Local\Temp\ccjssdjY.s:23378  .debug_str:0000000000004306 .LASF1381
C:\Users\stapi\AppData\Local\Temp\ccjssdjY.s:23344  .debug_str:000000000000420a .LASF1382
C:\Users\stapi\AppData\Local\Temp\ccjssdjY.s:22080  .debug_str:0000000000001c64 .LASF1383
C:\Users\stapi\AppData\Local\Temp\ccjssdjY.s:21656  .debug_str:00000000000010b0 .LASF1384
C:\Users\stapi\AppData\Local\Temp\ccjssdjY.s:23584  .debug_str:00000000000048ae .LASF1385
C:\Users\stapi\AppData\Local\Temp\ccjssdjY.s:21338  .debug_str:00000000000007b5 .LASF1386
C:\Users\stapi\AppData\Local\Temp\ccjssdjY.s:24084  .debug_str:0000000000005716 .LASF1387
C:\Users\stapi\AppData\Local\Temp\ccjssdjY.s:21406  .debug_str:0000000000000975 .LASF1388
C:\Users\stapi\AppData\Local\Temp\ccjssdjY.s:24212  .debug_str:0000000000005bd5 .LASF1389
C:\Users\stapi\AppData\Local\Temp\ccjssdjY.s:22406  .debug_str:00000000000025c5 .LASF1390
C:\Users\stapi\AppData\Local\Temp\ccjssdjY.s:21432  .debug_str:0000000000000a2d .LASF1391
C:\Users\stapi\AppData\Local\Temp\ccjssdjY.s:21634  .debug_str:0000000000000ffb .LASF1392
C:\Users\stapi\AppData\Local\Temp\ccjssdjY.s:23096  .debug_str:0000000000003b55 .LASF1393
C:\Users\stapi\AppData\Local\Temp\ccjssdjY.s:23412  .debug_str:00000000000043f7 .LASF1394
C:\Users\stapi\AppData\Local\Temp\ccjssdjY.s:22820  .debug_str:00000000000031fa .LASF1395
C:\Users\stapi\AppData\Local\Temp\ccjssdjY.s:23566  .debug_str:0000000000004819 .LASF1396
C:\Users\stapi\AppData\Local\Temp\ccjssdjY.s:23076  .debug_str:0000000000003aca .LASF1397
C:\Users\stapi\AppData\Local\Temp\ccjssdjY.s:22282  .debug_str:00000000000021e4 .LASF1398
C:\Users\stapi\AppData\Local\Temp\ccjssdjY.s:23826  .debug_str:0000000000004f7f .LASF1399
C:\Users\stapi\AppData\Local\Temp\ccjssdjY.s:24026  .debug_str:000000000000554e .LASF1400
C:\Users\stapi\AppData\Local\Temp\ccjssdjY.s:22900  .debug_str:0000000000003468 .LASF1401
C:\Users\stapi\AppData\Local\Temp\ccjssdjY.s:22480  .debug_str:000000000000280b .LASF1402
C:\Users\stapi\AppData\Local\Temp\ccjssdjY.s:23680  .debug_str:0000000000004b5d .LASF1403
C:\Users\stapi\AppData\Local\Temp\ccjssdjY.s:23956  .debug_str:0000000000005351 .LASF1404
C:\Users\stapi\AppData\Local\Temp\ccjssdjY.s:21462  .debug_str:0000000000000ae2 .LASF1405
C:\Users\stapi\AppData\Local\Temp\ccjssdjY.s:23274  .debug_str:0000000000004046 .LASF1406
C:\Users\stapi\AppData\Local\Temp\ccjssdjY.s:22762  .debug_str:0000000000003057 .LASF1407
C:\Users\stapi\AppData\Local\Temp\ccjssdjY.s:22302  .debug_str:000000000000228a .LASF1408
C:\Users\stapi\AppData\Local\Temp\ccjssdjY.s:23436  .debug_str:000000000000449c .LASF1409
C:\Users\stapi\AppData\Local\Temp\ccjssdjY.s:23718  .debug_str:0000000000004c5e .LASF1410
C:\Users\stapi\AppData\Local\Temp\ccjssdjY.s:23950  .debug_str:0000000000005328 .LASF1411
C:\Users\stapi\AppData\Local\Temp\ccjssdjY.s:23836  .debug_str:0000000000004fc8 .LASF1412
C:\Users\stapi\AppData\Local\Temp\ccjssdjY.s:23540  .debug_str:0000000000004739 .LASF1413
C:\Users\stapi\AppData\Local\Temp\ccjssdjY.s:21162  .debug_str:00000000000002a0 .LASF1414
C:\Users\stapi\AppData\Local\Temp\ccjssdjY.s:22708  .debug_str:0000000000002eb1 .LASF1415
C:\Users\stapi\AppData\Local\Temp\ccjssdjY.s:21236  .debug_str:00000000000004b8 .LASF1416
C:\Users\stapi\AppData\Local\Temp\ccjssdjY.s:21552  .debug_str:0000000000000dc5 .LASF1417
C:\Users\stapi\AppData\Local\Temp\ccjssdjY.s:22154  .debug_str:0000000000001e79 .LASF1418
C:\Users\stapi\AppData\Local\Temp\ccjssdjY.s:23824  .debug_str:0000000000004f70 .LASF1419
C:\Users\stapi\AppData\Local\Temp\ccjssdjY.s:22132  .debug_str:0000000000001de1 .LASF1420
C:\Users\stapi\AppData\Local\Temp\ccjssdjY.s:22536  .debug_str:00000000000029d9 .LASF1421
C:\Users\stapi\AppData\Local\Temp\ccjssdjY.s:22370  .debug_str:00000000000024a2 .LASF1422
C:\Users\stapi\AppData\Local\Temp\ccjssdjY.s:23334  .debug_str:00000000000041bc .LASF1423
C:\Users\stapi\AppData\Local\Temp\ccjssdjY.s:21854  .debug_str:0000000000001611 .LASF1424
C:\Users\stapi\AppData\Local\Temp\ccjssdjY.s:22784  .debug_str:00000000000030f4 .LASF1425
C:\Users\stapi\AppData\Local\Temp\ccjssdjY.s:22350  .debug_str:0000000000002405 .LASF1426
C:\Users\stapi\AppData\Local\Temp\ccjssdjY.s:24324  .debug_str:0000000000005ef2 .LASF1427
C:\Users\stapi\AppData\Local\Temp\ccjssdjY.s:21978  .debug_str:0000000000001982 .LASF1428
C:\Users\stapi\AppData\Local\Temp\ccjssdjY.s:22940  .debug_str:0000000000003587 .LASF1429
C:\Users\stapi\AppData\Local\Temp\ccjssdjY.s:22750  .debug_str:0000000000002fdf .LASF1430
C:\Users\stapi\AppData\Local\Temp\ccjssdjY.s:23806  .debug_str:0000000000004eef .LASF1431
C:\Users\stapi\AppData\Local\Temp\ccjssdjY.s:22016  .debug_str:0000000000001a9f .LASF1432
C:\Users\stapi\AppData\Local\Temp\ccjssdjY.s:22834  .debug_str:000000000000326d .LASF1433
C:\Users\stapi\AppData\Local\Temp\ccjssdjY.s:21750  .debug_str:0000000000001330 .LASF1434
C:\Users\stapi\AppData\Local\Temp\ccjssdjY.s:23440  .debug_str:00000000000044bb .LASF1435
C:\Users\stapi\AppData\Local\Temp\ccjssdjY.s:23320  .debug_str:000000000000415f .LASF1436
C:\Users\stapi\AppData\Local\Temp\ccjssdjY.s:23974  .debug_str:00000000000053c0 .LASF1437
C:\Users\stapi\AppData\Local\Temp\ccjssdjY.s:22982  .debug_str:00000000000037d8 .LASF1438
C:\Users\stapi\AppData\Local\Temp\ccjssdjY.s:23490  .debug_str:00000000000045f9 .LASF1439
C:\Users\stapi\AppData\Local\Temp\ccjssdjY.s:23184  .debug_str:0000000000003dd9 .LASF1440
C:\Users\stapi\AppData\Local\Temp\ccjssdjY.s:23154  .debug_str:0000000000003d02 .LASF1441
C:\Users\stapi\AppData\Local\Temp\ccjssdjY.s:21778  .debug_str:0000000000001403 .LASF1442
C:\Users\stapi\AppData\Local\Temp\ccjssdjY.s:21652  .debug_str:000000000000108e .LASF1443
C:\Users\stapi\AppData\Local\Temp\ccjssdjY.s:24278  .debug_str:0000000000005d90 .LASF1444
C:\Users\stapi\AppData\Local\Temp\ccjssdjY.s:23120  .debug_str:0000000000003c06 .LASF1445
C:\Users\stapi\AppData\Local\Temp\ccjssdjY.s:23486  .debug_str:00000000000045d8 .LASF1446
C:\Users\stapi\AppData\Local\Temp\ccjssdjY.s:21636  .debug_str:000000000000100b .LASF1447
C:\Users\stapi\AppData\Local\Temp\ccjssdjY.s:22802  .debug_str:0000000000003177 .LASF1448
C:\Users\stapi\AppData\Local\Temp\ccjssdjY.s:23708  .debug_str:0000000000004c24 .LASF1449
C:\Users\stapi\AppData\Local\Temp\ccjssdjY.s:23574  .debug_str:0000000000004857 .LASF1450
C:\Users\stapi\AppData\Local\Temp\ccjssdjY.s:21100  .debug_str:00000000000000ce .LASF1451
C:\Users\stapi\AppData\Local\Temp\ccjssdjY.s:21246  .debug_str:0000000000000514 .LASF1452
C:\Users\stapi\AppData\Local\Temp\ccjssdjY.s:21920  .debug_str:0000000000001810 .LASF1453
C:\Users\stapi\AppData\Local\Temp\ccjssdjY.s:23904  .debug_str:00000000000051da .LASF1454
C:\Users\stapi\AppData\Local\Temp\ccjssdjY.s:23346  .debug_str:0000000000004213 .LASF1455
C:\Users\stapi\AppData\Local\Temp\ccjssdjY.s:23786  .debug_str:0000000000004e7b .LASF1456
C:\Users\stapi\AppData\Local\Temp\ccjssdjY.s:23416  .debug_str:000000000000440d .LASF1457
C:\Users\stapi\AppData\Local\Temp\ccjssdjY.s:23300  .debug_str:00000000000040ed .LASF1458
C:\Users\stapi\AppData\Local\Temp\ccjssdjY.s:21956  .debug_str:00000000000018ef .LASF1459
C:\Users\stapi\AppData\Local\Temp\ccjssdjY.s:23402  .debug_str:00000000000043a7 .LASF1460
C:\Users\stapi\AppData\Local\Temp\ccjssdjY.s:23888  .debug_str:0000000000005159 .LASF1461
C:\Users\stapi\AppData\Local\Temp\ccjssdjY.s:21092  .debug_str:0000000000000094 .LASF1462
C:\Users\stapi\AppData\Local\Temp\ccjssdjY.s:22946  .debug_str:00000000000035bd .LASF1463
C:\Users\stapi\AppData\Local\Temp\ccjssdjY.s:23026  .debug_str:0000000000003938 .LASF1464
C:\Users\stapi\AppData\Local\Temp\ccjssdjY.s:22752  .debug_str:0000000000002ff9 .LASF1465
C:\Users\stapi\AppData\Local\Temp\ccjssdjY.s:23530  .debug_str:00000000000046ff .LASF1466
C:\Users\stapi\AppData\Local\Temp\ccjssdjY.s:22164  .debug_str:0000000000001eb3 .LASF1467
C:\Users\stapi\AppData\Local\Temp\ccjssdjY.s:21292  .debug_str:000000000000065a .LASF1468
C:\Users\stapi\AppData\Local\Temp\ccjssdjY.s:23722  .debug_str:0000000000004c8f .LASF1469
C:\Users\stapi\AppData\Local\Temp\ccjssdjY.s:22696  .debug_str:0000000000002e6b .LASF1470
C:\Users\stapi\AppData\Local\Temp\ccjssdjY.s:22286  .debug_str:0000000000002207 .LASF1471
C:\Users\stapi\AppData\Local\Temp\ccjssdjY.s:22490  .debug_str:0000000000002856 .LASF1472
C:\Users\stapi\AppData\Local\Temp\ccjssdjY.s:22050  .debug_str:0000000000001b98 .LASF1473
C:\Users\stapi\AppData\Local\Temp\ccjssdjY.s:22340  .debug_str:00000000000023bf .LASF1474
C:\Users\stapi\AppData\Local\Temp\ccjssdjY.s:23614  .debug_str:000000000000498b .LASF1475
C:\Users\stapi\AppData\Local\Temp\ccjssdjY.s:22198  .debug_str:0000000000001f9d .LASF1476
C:\Users\stapi\AppData\Local\Temp\ccjssdjY.s:23190  .debug_str:0000000000003e19 .LASF1477
C:\Users\stapi\AppData\Local\Temp\ccjssdjY.s:21240  .debug_str:00000000000004df .LASF1478
C:\Users\stapi\AppData\Local\Temp\ccjssdjY.s:22822  .debug_str:000000000000320e .LASF1479
C:\Users\stapi\AppData\Local\Temp\ccjssdjY.s:23390  .debug_str:0000000000004356 .LASF1480
C:\Users\stapi\AppData\Local\Temp\ccjssdjY.s:21906  .debug_str:00000000000017b7 .LASF1481
C:\Users\stapi\AppData\Local\Temp\ccjssdjY.s:21662  .debug_str:00000000000010d9 .LASF1482
C:\Users\stapi\AppData\Local\Temp\ccjssdjY.s:22482  .debug_str:000000000000281b .LASF1483
C:\Users\stapi\AppData\Local\Temp\ccjssdjY.s:24168  .debug_str:0000000000005a0a .LASF1484
C:\Users\stapi\AppData\Local\Temp\ccjssdjY.s:22064  .debug_str:0000000000001c05 .LASF1485
C:\Users\stapi\AppData\Local\Temp\ccjssdjY.s:23872  .debug_str:00000000000050c8 .LASF1486
C:\Users\stapi\AppData\Local\Temp\ccjssdjY.s:23156  .debug_str:0000000000003d14 .LASF1487
C:\Users\stapi\AppData\Local\Temp\ccjssdjY.s:23478  .debug_str:00000000000045ac .LASF1488
C:\Users\stapi\AppData\Local\Temp\ccjssdjY.s:23554  .debug_str:00000000000047a2 .LASF1489
C:\Users\stapi\AppData\Local\Temp\ccjssdjY.s:22992  .debug_str:0000000000003819 .LASF1490
C:\Users\stapi\AppData\Local\Temp\ccjssdjY.s:23298  .debug_str:00000000000040d9 .LASF1491
C:\Users\stapi\AppData\Local\Temp\ccjssdjY.s:21400  .debug_str:000000000000093d .LASF1492
C:\Users\stapi\AppData\Local\Temp\ccjssdjY.s:22074  .debug_str:0000000000001c3d .LASF1493
C:\Users\stapi\AppData\Local\Temp\ccjssdjY.s:22378  .debug_str:00000000000024ea .LASF1494
C:\Users\stapi\AppData\Local\Temp\ccjssdjY.s:22056  .debug_str:0000000000001bc6 .LASF1495
C:\Users\stapi\AppData\Local\Temp\ccjssdjY.s:21386  .debug_str:00000000000008d5 .LASF1496
C:\Users\stapi\AppData\Local\Temp\ccjssdjY.s:24096  .debug_str:0000000000005776 .LASF1497
C:\Users\stapi\AppData\Local\Temp\ccjssdjY.s:22896  .debug_str:000000000000344d .LASF1498
C:\Users\stapi\AppData\Local\Temp\ccjssdjY.s:23470  .debug_str:000000000000456a .LASF1499
C:\Users\stapi\AppData\Local\Temp\ccjssdjY.s:22020  .debug_str:0000000000001ab7 .LASF1500
C:\Users\stapi\AppData\Local\Temp\ccjssdjY.s:21728  .debug_str:000000000000129d .LASF1501
C:\Users\stapi\AppData\Local\Temp\ccjssdjY.s:23666  .debug_str:0000000000004afc .LASF1502
C:\Users\stapi\AppData\Local\Temp\ccjssdjY.s:24352  .debug_str:0000000000005fba .LASF1503
C:\Users\stapi\AppData\Local\Temp\ccjssdjY.s:24308  .debug_str:0000000000005e7d .LASF1504
C:\Users\stapi\AppData\Local\Temp\ccjssdjY.s:23200  .debug_str:0000000000003e6b .LASF1505
C:\Users\stapi\AppData\Local\Temp\ccjssdjY.s:21562  .debug_str:0000000000000df3 .LASF1506
C:\Users\stapi\AppData\Local\Temp\ccjssdjY.s:24296  .debug_str:0000000000005e13 .LASF1507
C:\Users\stapi\AppData\Local\Temp\ccjssdjY.s:24326  .debug_str:0000000000005f0b .LASF1508
C:\Users\stapi\AppData\Local\Temp\ccjssdjY.s:23044  .debug_str:00000000000039b5 .LASF1509
C:\Users\stapi\AppData\Local\Temp\ccjssdjY.s:21872  .debug_str:00000000000016b9 .LASF1510
C:\Users\stapi\AppData\Local\Temp\ccjssdjY.s:21616  .debug_str:0000000000000f97 .LASF1511
C:\Users\stapi\AppData\Local\Temp\ccjssdjY.s:21226  .debug_str:0000000000000486 .LASF1512
C:\Users\stapi\AppData\Local\Temp\ccjssdjY.s:21392  .debug_str:000000000000090b .LASF1513
C:\Users\stapi\AppData\Local\Temp\ccjssdjY.s:23182  .debug_str:0000000000003dd2 .LASF1514
C:\Users\stapi\AppData\Local\Temp\ccjssdjY.s:22932  .debug_str:0000000000003559 .LASF1515
C:\Users\stapi\AppData\Local\Temp\ccjssdjY.s:23988  .debug_str:000000000000543d .LASF1516
C:\Users\stapi\AppData\Local\Temp\ccjssdjY.s:21302  .debug_str:0000000000000699 .LASF1517
C:\Users\stapi\AppData\Local\Temp\ccjssdjY.s:23220  .debug_str:0000000000003eee .LASF1518
C:\Users\stapi\AppData\Local\Temp\ccjssdjY.s:23978  .debug_str:00000000000053df .LASF1519
C:\Users\stapi\AppData\Local\Temp\ccjssdjY.s:21404  .debug_str:000000000000095f .LASF1520
C:\Users\stapi\AppData\Local\Temp\ccjssdjY.s:22068  .debug_str:0000000000001c15 .LASF1521
C:\Users\stapi\AppData\Local\Temp\ccjssdjY.s:22682  .debug_str:0000000000002e09 .LASF1522
C:\Users\stapi\AppData\Local\Temp\ccjssdjY.s:22676  .debug_str:0000000000002dd5 .LASF1523
C:\Users\stapi\AppData\Local\Temp\ccjssdjY.s:23302  .debug_str:00000000000040f8 .LASF1524
C:\Users\stapi\AppData\Local\Temp\ccjssdjY.s:23526  .debug_str:00000000000046ea .LASF1525
C:\Users\stapi\AppData\Local\Temp\ccjssdjY.s:23758  .debug_str:0000000000004da7 .LASF1526
C:\Users\stapi\AppData\Local\Temp\ccjssdjY.s:24376  .debug_str:000000000000606f .LASF1527
C:\Users\stapi\AppData\Local\Temp\ccjssdjY.s:22826  .debug_str:0000000000003238 .LASF1528
C:\Users\stapi\AppData\Local\Temp\ccjssdjY.s:21474  .debug_str:0000000000000b59 .LASF1529
C:\Users\stapi\AppData\Local\Temp\ccjssdjY.s:22690  .debug_str:0000000000002e34 .LASF1530
C:\Users\stapi\AppData\Local\Temp\ccjssdjY.s:22642  .debug_str:0000000000002ce7 .LASF1531
C:\Users\stapi\AppData\Local\Temp\ccjssdjY.s:24318  .debug_str:0000000000005ec6 .LASF1532
C:\Users\stapi\AppData\Local\Temp\ccjssdjY.s:22392  .debug_str:0000000000002556 .LASF1533
C:\Users\stapi\AppData\Local\Temp\ccjssdjY.s:24346  .debug_str:0000000000005f90 .LASF1534
C:\Users\stapi\AppData\Local\Temp\ccjssdjY.s:23516  .debug_str:00000000000046a3 .LASF1535
C:\Users\stapi\AppData\Local\Temp\ccjssdjY.s:22142  .debug_str:0000000000001e11 .LASF1536
C:\Users\stapi\AppData\Local\Temp\ccjssdjY.s:21548  .debug_str:0000000000000d9d .LASF1537
C:\Users\stapi\AppData\Local\Temp\ccjssdjY.s:24222  .debug_str:0000000000005c07 .LASF1538
C:\Users\stapi\AppData\Local\Temp\ccjssdjY.s:23500  .debug_str:0000000000004645 .LASF1539
C:\Users\stapi\AppData\Local\Temp\ccjssdjY.s:21122  .debug_str:000000000000016f .LASF1540
C:\Users\stapi\AppData\Local\Temp\ccjssdjY.s:22116  .debug_str:0000000000001d54 .LASF1541
C:\Users\stapi\AppData\Local\Temp\ccjssdjY.s:21106  .debug_str:00000000000000ff .LASF1542
C:\Users\stapi\AppData\Local\Temp\ccjssdjY.s:22316  .debug_str:0000000000002309 .LASF1543
C:\Users\stapi\AppData\Local\Temp\ccjssdjY.s:21126  .debug_str:0000000000000195 .LASF1544
C:\Users\stapi\AppData\Local\Temp\ccjssdjY.s:22256  .debug_str:000000000000212c .LASF1545
C:\Users\stapi\AppData\Local\Temp\ccjssdjY.s:23626  .debug_str:00000000000049ee .LASF1546
C:\Users\stapi\AppData\Local\Temp\ccjssdjY.s:21488  .debug_str:0000000000000bb8 .LASF1547
C:\Users\stapi\AppData\Local\Temp\ccjssdjY.s:21790  .debug_str:0000000000001462 .LASF1548
C:\Users\stapi\AppData\Local\Temp\ccjssdjY.s:21910  .debug_str:00000000000017d1 .LASF1549
C:\Users\stapi\AppData\Local\Temp\ccjssdjY.s:23830  .debug_str:0000000000004f99 .LASF1550
C:\Users\stapi\AppData\Local\Temp\ccjssdjY.s:23946  .debug_str:0000000000005306 .LASF1551
C:\Users\stapi\AppData\Local\Temp\ccjssdjY.s:22334  .debug_str:000000000000239a .LASF1552
C:\Users\stapi\AppData\Local\Temp\ccjssdjY.s:21768  .debug_str:00000000000013bc .LASF1553
C:\Users\stapi\AppData\Local\Temp\ccjssdjY.s:23930  .debug_str:000000000000527e .LASF1554
C:\Users\stapi\AppData\Local\Temp\ccjssdjY.s:21926  .debug_str:000000000000183a .LASF1555
C:\Users\stapi\AppData\Local\Temp\ccjssdjY.s:22394  .debug_str:0000000000002566 .LASF1556
C:\Users\stapi\AppData\Local\Temp\ccjssdjY.s:23586  .debug_str:00000000000048bc .LASF1557
C:\Users\stapi\AppData\Local\Temp\ccjssdjY.s:24240  .debug_str:0000000000005c75 .LASF1558
C:\Users\stapi\AppData\Local\Temp\ccjssdjY.s:23170  .debug_str:0000000000003d6a .LASF1559
C:\Users\stapi\AppData\Local\Temp\ccjssdjY.s:21254  .debug_str:0000000000000557 .LASF1560
C:\Users\stapi\AppData\Local\Temp\ccjssdjY.s:21902  .debug_str:000000000000178d .LASF1561
C:\Users\stapi\AppData\Local\Temp\ccjssdjY.s:21882  .debug_str:00000000000016f1 .LASF1562
C:\Users\stapi\AppData\Local\Temp\ccjssdjY.s:21844  .debug_str:00000000000015db .LASF1563
C:\Users\stapi\AppData\Local\Temp\ccjssdjY.s:24190  .debug_str:0000000000005b26 .LASF1564
C:\Users\stapi\AppData\Local\Temp\ccjssdjY.s:23766  .debug_str:0000000000004dee .LASF1565
C:\Users\stapi\AppData\Local\Temp\ccjssdjY.s:22880  .debug_str:00000000000033c8 .LASF1566
C:\Users\stapi\AppData\Local\Temp\ccjssdjY.s:24294  .debug_str:0000000000005e04 .LASF1567
C:\Users\stapi\AppData\Local\Temp\ccjssdjY.s:23418  .debug_str:000000000000441b .LASF1568
C:\Users\stapi\AppData\Local\Temp\ccjssdjY.s:21730  .debug_str:00000000000012aa .LASF1569
C:\Users\stapi\AppData\Local\Temp\ccjssdjY.s:23122  .debug_str:0000000000003c16 .LASF1570
C:\Users\stapi\AppData\Local\Temp\ccjssdjY.s:21608  .debug_str:0000000000000f3f .LASF1571
C:\Users\stapi\AppData\Local\Temp\ccjssdjY.s:21848  .debug_str:00000000000015f0 .LASF1572
C:\Users\stapi\AppData\Local\Temp\ccjssdjY.s:22908  .debug_str:0000000000003497 .LASF1573
C:\Users\stapi\AppData\Local\Temp\ccjssdjY.s:24090  .debug_str:000000000000574a .LASF1574
C:\Users\stapi\AppData\Local\Temp\ccjssdjY.s:23706  .debug_str:0000000000004c11 .LASF1575
C:\Users\stapi\AppData\Local\Temp\ccjssdjY.s:21716  .debug_str:000000000000125c .LASF1576
C:\Users\stapi\AppData\Local\Temp\ccjssdjY.s:21678  .debug_str:0000000000001141 .LASF1577
C:\Users\stapi\AppData\Local\Temp\ccjssdjY.s:21760  .debug_str:000000000000137c .LASF1578
C:\Users\stapi\AppData\Local\Temp\ccjssdjY.s:22792  .debug_str:0000000000003134 .LASF1579
C:\Users\stapi\AppData\Local\Temp\ccjssdjY.s:22552  .debug_str:0000000000002a68 .LASF1580
C:\Users\stapi\AppData\Local\Temp\ccjssdjY.s:22292  .debug_str:0000000000002239 .LASF1581
C:\Users\stapi\AppData\Local\Temp\ccjssdjY.s:21216  .debug_str:0000000000000431 .LASF1582
C:\Users\stapi\AppData\Local\Temp\ccjssdjY.s:21690  .debug_str:00000000000011a8 .LASF1583
C:\Users\stapi\AppData\Local\Temp\ccjssdjY.s:23214  .debug_str:0000000000003ebf .LASF1584
C:\Users\stapi\AppData\Local\Temp\ccjssdjY.s:21134  .debug_str:00000000000001d0 .LASF1585
C:\Users\stapi\AppData\Local\Temp\ccjssdjY.s:23434  .debug_str:0000000000004488 .LASF1586
C:\Users\stapi\AppData\Local\Temp\ccjssdjY.s:23782  .debug_str:0000000000004e5b .LASF1587
C:\Users\stapi\AppData\Local\Temp\ccjssdjY.s:23664  .debug_str:0000000000004ae8 .LASF1588
C:\Users\stapi\AppData\Local\Temp\ccjssdjY.s:21262  .debug_str:0000000000000580 .LASF1589
C:\Users\stapi\AppData\Local\Temp\ccjssdjY.s:23488  .debug_str:00000000000045ea .LASF1590
C:\Users\stapi\AppData\Local\Temp\ccjssdjY.s:22308  .debug_str:00000000000022c8 .LASF1591
C:\Users\stapi\AppData\Local\Temp\ccjssdjY.s:22412  .debug_str:00000000000025ed .LASF1592
C:\Users\stapi\AppData\Local\Temp\ccjssdjY.s:23996  .debug_str:0000000000005482 .LASF1593
C:\Users\stapi\AppData\Local\Temp\ccjssdjY.s:23732  .debug_str:0000000000004cd3 .LASF1594
C:\Users\stapi\AppData\Local\Temp\ccjssdjY.s:23740  .debug_str:0000000000004d12 .LASF1595
C:\Users\stapi\AppData\Local\Temp\ccjssdjY.s:22098  .debug_str:0000000000001cee .LASF1596
C:\Users\stapi\AppData\Local\Temp\ccjssdjY.s:23972  .debug_str:00000000000053b2 .LASF1597
C:\Users\stapi\AppData\Local\Temp\ccjssdjY.s:21280  .debug_str:000000000000060c .LASF1598
C:\Users\stapi\AppData\Local\Temp\ccjssdjY.s:23056  .debug_str:0000000000003a28 .LASF1599
C:\Users\stapi\AppData\Local\Temp\ccjssdjY.s:21520  .debug_str:0000000000000ca1 .LASF1600
C:\Users\stapi\AppData\Local\Temp\ccjssdjY.s:24036  .debug_str:00000000000055a5 .LASF1601
C:\Users\stapi\AppData\Local\Temp\ccjssdjY.s:22212  .debug_str:0000000000001fec .LASF1602
C:\Users\stapi\AppData\Local\Temp\ccjssdjY.s:22688  .debug_str:0000000000002e2c .LASF1603
C:\Users\stapi\AppData\Local\Temp\ccjssdjY.s:22162  .debug_str:0000000000001eaa .LASF1604
C:\Users\stapi\AppData\Local\Temp\ccjssdjY.s:23326  .debug_str:000000000000418a .LASF1605
C:\Users\stapi\AppData\Local\Temp\ccjssdjY.s:21758  .debug_str:0000000000001372 .LASF1606
C:\Users\stapi\AppData\Local\Temp\ccjssdjY.s:21594  .debug_str:0000000000000ee8 .LASF1607
C:\Users\stapi\AppData\Local\Temp\ccjssdjY.s:21718  .debug_str:000000000000126c .LASF1608
C:\Users\stapi\AppData\Local\Temp\ccjssdjY.s:22176  .debug_str:0000000000001ef7 .LASF1609
C:\Users\stapi\AppData\Local\Temp\ccjssdjY.s:23908  .debug_str:00000000000051f6 .LASF1610
C:\Users\stapi\AppData\Local\Temp\ccjssdjY.s:22630  .debug_str:0000000000002c97 .LASF1611
C:\Users\stapi\AppData\Local\Temp\ccjssdjY.s:21834  .debug_str:000000000000159c .LASF1612
C:\Users\stapi\AppData\Local\Temp\ccjssdjY.s:23152  .debug_str:0000000000003cee .LASF1613
C:\Users\stapi\AppData\Local\Temp\ccjssdjY.s:22950  .debug_str:00000000000035e6 .LASF1614
C:\Users\stapi\AppData\Local\Temp\ccjssdjY.s:22720  .debug_str:0000000000002f14 .LASF1615
C:\Users\stapi\AppData\Local\Temp\ccjssdjY.s:22354  .debug_str:0000000000002422 .LASF1616
C:\Users\stapi\AppData\Local\Temp\ccjssdjY.s:23014  .debug_str:00000000000038b3 .LASF1617
C:\Users\stapi\AppData\Local\Temp\ccjssdjY.s:23194  .debug_str:0000000000003e3e .LASF1618
C:\Users\stapi\AppData\Local\Temp\ccjssdjY.s:22884  .debug_str:00000000000033ea .LASF1619
C:\Users\stapi\AppData\Local\Temp\ccjssdjY.s:22090  .debug_str:0000000000001ca3 .LASF1620
C:\Users\stapi\AppData\Local\Temp\ccjssdjY.s:21820  .debug_str:000000000000153a .LASF1621
C:\Users\stapi\AppData\Local\Temp\ccjssdjY.s:23332  .debug_str:00000000000041ae .LASF1622
C:\Users\stapi\AppData\Local\Temp\ccjssdjY.s:22548  .debug_str:0000000000002a43 .LASF1623
C:\Users\stapi\AppData\Local\Temp\ccjssdjY.s:22108  .debug_str:0000000000001d29 .LASF1624
C:\Users\stapi\AppData\Local\Temp\ccjssdjY.s:21930  .debug_str:0000000000001855 .LASF1625
C:\Users\stapi\AppData\Local\Temp\ccjssdjY.s:24112  .debug_str:0000000000005883 .LASF1626
C:\Users\stapi\AppData\Local\Temp\ccjssdjY.s:23726  .debug_str:0000000000004ca4 .LASF1627
C:\Users\stapi\AppData\Local\Temp\ccjssdjY.s:23694  .debug_str:0000000000004bc9 .LASF1628
C:\Users\stapi\AppData\Local\Temp\ccjssdjY.s:21296  .debug_str:000000000000066b .LASF1629
C:\Users\stapi\AppData\Local\Temp\ccjssdjY.s:22694  .debug_str:0000000000002e5e .LASF1630
C:\Users\stapi\AppData\Local\Temp\ccjssdjY.s:24234  .debug_str:0000000000005c52 .LASF1631
C:\Users\stapi\AppData\Local\Temp\ccjssdjY.s:24390  .debug_str:00000000000060e5 .LASF1632
C:\Users\stapi\AppData\Local\Temp\ccjssdjY.s:23426  .debug_str:000000000000445e .LASF1633
C:\Users\stapi\AppData\Local\Temp\ccjssdjY.s:22522  .debug_str:0000000000002960 .LASF1634
C:\Users\stapi\AppData\Local\Temp\ccjssdjY.s:23932  .debug_str:0000000000005289 .LASF1635
C:\Users\stapi\AppData\Local\Temp\ccjssdjY.s:24202  .debug_str:0000000000005b8c .LASF1636
C:\Users\stapi\AppData\Local\Temp\ccjssdjY.s:24274  .debug_str:0000000000005d6d .LASF1637
C:\Users\stapi\AppData\Local\Temp\ccjssdjY.s:1088   .text.ap_list_deinit:0000000000000000 .LFB151
C:\Users\stapi\AppData\Local\Temp\ccjssdjY.s:1150   .text.ap_list_deinit:000000000000002a .LFE151
C:\Users\stapi\AppData\Local\Temp\ccjssdjY.s:20259  .debug_loc:0000000000000000 .LLST42
C:\Users\stapi\AppData\Local\Temp\ccjssdjY.s:1099   .text.ap_list_deinit:0000000000000008 .LBB91
C:\Users\stapi\AppData\Local\Temp\ccjssdjY.s:20270  .debug_loc:000000000000001e .LLST43
C:\Users\stapi\AppData\Local\Temp\ccjssdjY.s:20285  .debug_loc:0000000000000047 .LLST44
C:\Users\stapi\AppData\Local\Temp\ccjssdjY.s:20300  .debug_loc:0000000000000070 .LLST45
C:\Users\stapi\AppData\Local\Temp\ccjssdjY.s:1143   .text.ap_list_deinit:0000000000000026 .LVL98
C:\Users\stapi\AppData\Local\Temp\ccjssdjY.s:24372  .debug_str:0000000000006056 .LASF1668
C:\Users\stapi\AppData\Local\Temp\ccjssdjY.s:1071   .text.ap_list_init:0000000000000000 .LFB150
C:\Users\stapi\AppData\Local\Temp\ccjssdjY.s:1081   .text.ap_list_init:0000000000000004 .LFE150
C:\Users\stapi\AppData\Local\Temp\ccjssdjY.s:20307  .debug_loc:0000000000000083 .LLST41
C:\Users\stapi\AppData\Local\Temp\ccjssdjY.s:24228  .debug_str:0000000000005c23 .LASF1638
C:\Users\stapi\AppData\Local\Temp\ccjssdjY.s:789    .text.ap_list_timer:0000000000000000 .LFB149
C:\Users\stapi\AppData\Local\Temp\ccjssdjY.s:1064   .text.ap_list_timer:0000000000000102 .LFE149
C:\Users\stapi\AppData\Local\Temp\ccjssdjY.s:20321  .debug_loc:00000000000000a4 .LLST29
C:\Users\stapi\AppData\Local\Temp\ccjssdjY.s:20336  .debug_loc:00000000000000cd .LLST30
C:\Users\stapi\AppData\Local\Temp\ccjssdjY.s:22196  .debug_str:0000000000001f92 .LASF1639
C:\Users\stapi\AppData\Local\Temp\ccjssdjY.s:20355  .debug_loc:0000000000000101 .LLST31
C:\Users\stapi\AppData\Local\Temp\ccjssdjY.s:20378  .debug_loc:0000000000000139 .LLST39
C:\Users\stapi\AppData\Local\Temp\ccjssdjY.s:20389  .debug_loc:0000000000000157 .LLST40
C:\Users\stapi\AppData\Local\Temp\ccjssdjY.s:953    .text.ap_list_timer:0000000000000082 .LVL73
C:\Users\stapi\AppData\Local\Temp\ccjssdjY.s:1000   .text.ap_list_timer:00000000000000be .LVL80
C:\Users\stapi\AppData\Local\Temp\ccjssdjY.s:1022   .text.ap_list_timer:00000000000000de .LVL84
C:\Users\stapi\AppData\Local\Temp\ccjssdjY.s:1030   .text.ap_list_timer:00000000000000ec .LVL85
C:\Users\stapi\AppData\Local\Temp\ccjssdjY.s:813    .text.ap_list_timer:0000000000000010 .LBB68
C:\Users\stapi\AppData\Local\Temp\ccjssdjY.s:20402  .debug_loc:0000000000000177 .LLST32
C:\Users\stapi\AppData\Local\Temp\ccjssdjY.s:20413  .debug_loc:0000000000000195 .LLST33
C:\Users\stapi\AppData\Local\Temp\ccjssdjY.s:20428  .debug_loc:00000000000001b9 .LLST34
C:\Users\stapi\AppData\Local\Temp\ccjssdjY.s:20443  .debug_loc:00000000000001db .LLST35
C:\Users\stapi\AppData\Local\Temp\ccjssdjY.s:815    .text.ap_list_timer:0000000000000010 .LBB70
C:\Users\stapi\AppData\Local\Temp\ccjssdjY.s:20490  .debug_loc:0000000000000232 .LLST36
C:\Users\stapi\AppData\Local\Temp\ccjssdjY.s:20499  .debug_loc:000000000000024a .LLST37
C:\Users\stapi\AppData\Local\Temp\ccjssdjY.s:20508  .debug_loc:0000000000000260 .LLST38
C:\Users\stapi\AppData\Local\Temp\ccjssdjY.s:828    .text.ap_list_timer:000000000000001e .LVL60
C:\Users\stapi\AppData\Local\Temp\ccjssdjY.s:908    .text.ap_list_timer:0000000000000054 .LVL68
C:\Users\stapi\AppData\Local\Temp\ccjssdjY.s:1038   .text.ap_list_timer:00000000000000f6 .LVL86
C:\Users\stapi\AppData\Local\Temp\ccjssdjY.s:23580  .debug_str:0000000000004885 .LASF1640
C:\Users\stapi\AppData\Local\Temp\ccjssdjY.s:333    .text.ap_list_process_beacon:0000000000000000 .LFB148
C:\Users\stapi\AppData\Local\Temp\ccjssdjY.s:775    .text.ap_list_process_beacon:000000000000023e .LFE148
C:\Users\stapi\AppData\Local\Temp\ccjssdjY.s:20517  .debug_loc:0000000000000275 .LLST10
C:\Users\stapi\AppData\Local\Temp\ccjssdjY.s:23134  .debug_str:0000000000003c6c .LASF1641
C:\Users\stapi\AppData\Local\Temp\ccjssdjY.s:20532  .debug_loc:000000000000029e .LLST11
C:\Users\stapi\AppData\Local\Temp\ccjssdjY.s:23444  .debug_str:00000000000044dc .LASF1642
C:\Users\stapi\AppData\Local\Temp\ccjssdjY.s:20549  .debug_loc:00000000000002c9 .LLST12
C:\Users\stapi\AppData\Local\Temp\ccjssdjY.s:20564  .debug_loc:00000000000002f2 .LLST13
C:\Users\stapi\AppData\Local\Temp\ccjssdjY.s:20579  .debug_loc:000000000000031b .LLST14
C:\Users\stapi\AppData\Local\Temp\ccjssdjY.s:22844  .debug_str:00000000000032b1 .LASF1643
C:\Users\stapi\AppData\Local\Temp\ccjssdjY.s:20600  .debug_loc:0000000000000351 .LLST15
C:\Users\stapi\AppData\Local\Temp\ccjssdjY.s:20631  .debug_loc:000000000000039f .LLST16
C:\Users\stapi\AppData\Local\Temp\ccjssdjY.s:356    .text.ap_list_process_beacon:0000000000000010 .LBB35
C:\Users\stapi\AppData\Local\Temp\ccjssdjY.s:20659  .debug_loc:00000000000003e3 .LLST17
C:\Users\stapi\AppData\Local\Temp\ccjssdjY.s:20670  .debug_loc:0000000000000401 .LLST18
C:\Users\stapi\AppData\Local\Temp\ccjssdjY.s:20681  .debug_loc:000000000000041f .LLST19
C:\Users\stapi\AppData\Local\Temp\ccjssdjY.s:392    .text.ap_list_process_beacon:000000000000003a .LVL27
C:\Users\stapi\AppData\Local\Temp\ccjssdjY.s:457    .text.ap_list_process_beacon:00000000000000a8 .LBB43
C:\Users\stapi\AppData\Local\Temp\ccjssdjY.s:20692  .debug_loc:000000000000043d .LLST20
C:\Users\stapi\AppData\Local\Temp\ccjssdjY.s:20703  .debug_loc:000000000000045b .LLST21
C:\Users\stapi\AppData\Local\Temp\ccjssdjY.s:588    .text.ap_list_process_beacon:0000000000000178 .LBB47
C:\Users\stapi\AppData\Local\Temp\ccjssdjY.s:20714  .debug_loc:0000000000000479 .LLST22
C:\Users\stapi\AppData\Local\Temp\ccjssdjY.s:20725  .debug_loc:0000000000000497 .LLST23
C:\Users\stapi\AppData\Local\Temp\ccjssdjY.s:20736  .debug_loc:00000000000004b5 .LLST24
C:\Users\stapi\AppData\Local\Temp\ccjssdjY.s:597    .text.ap_list_process_beacon:0000000000000188 .LBB49
C:\Users\stapi\AppData\Local\Temp\ccjssdjY.s:20747  .debug_loc:00000000000004d3 .LLST25
C:\Users\stapi\AppData\Local\Temp\ccjssdjY.s:20758  .debug_loc:00000000000004f1 .LLST26
C:\Users\stapi\AppData\Local\Temp\ccjssdjY.s:640    .text.ap_list_process_beacon:000000000000019e .LBB54
C:\Users\stapi\AppData\Local\Temp\ccjssdjY.s:653    .text.ap_list_process_beacon:00000000000001ac .LBE54
C:\Users\stapi\AppData\Local\Temp\ccjssdjY.s:20769  .debug_loc:000000000000050f .LLST27
C:\Users\stapi\AppData\Local\Temp\ccjssdjY.s:20777  .debug_loc:0000000000000523 .LLST28
C:\Users\stapi\AppData\Local\Temp\ccjssdjY.s:595    .text.ap_list_process_beacon:0000000000000188 .LVL42
C:\Users\stapi\AppData\Local\Temp\ccjssdjY.s:675    .text.ap_list_process_beacon:00000000000001e4 .LVL46
C:\Users\stapi\AppData\Local\Temp\ccjssdjY.s:680    .text.ap_list_process_beacon:00000000000001f0 .LVL47
C:\Users\stapi\AppData\Local\Temp\ccjssdjY.s:740    .text.ap_list_process_beacon:000000000000021c .LVL53
C:\Users\stapi\AppData\Local\Temp\ccjssdjY.s:408    .text.ap_list_process_beacon:0000000000000060 .LVL29
C:\Users\stapi\AppData\Local\Temp\ccjssdjY.s:444    .text.ap_list_process_beacon:0000000000000092 .LVL30
C:\Users\stapi\AppData\Local\Temp\ccjssdjY.s:455    .text.ap_list_process_beacon:00000000000000a8 .LVL31
C:\Users\stapi\AppData\Local\Temp\ccjssdjY.s:494    .text.ap_list_process_beacon:00000000000000cc .LVL33
C:\Users\stapi\AppData\Local\Temp\ccjssdjY.s:515    .text.ap_list_process_beacon:0000000000000102 .LVL34
C:\Users\stapi\AppData\Local\Temp\ccjssdjY.s:552    .text.ap_list_process_beacon:000000000000013a .LVL36
C:\Users\stapi\AppData\Local\Temp\ccjssdjY.s:566    .text.ap_list_process_beacon:0000000000000168 .LVL37
C:\Users\stapi\AppData\Local\Temp\ccjssdjY.s:573    .text.ap_list_process_beacon:0000000000000172 .LVL38
C:\Users\stapi\AppData\Local\Temp\ccjssdjY.s:755    .text.ap_list_process_beacon:0000000000000232 .LVL56
C:\Users\stapi\AppData\Local\Temp\ccjssdjY.s:23676  .debug_str:0000000000004b4a .LASF1649
C:\Users\stapi\AppData\Local\Temp\ccjssdjY.s:24408  .debug_str:000000000000616a .LASF1644
C:\Users\stapi\AppData\Local\Temp\ccjssdjY.s:23810  .debug_str:0000000000004f17 .LASF1669
C:\Users\stapi\AppData\Local\Temp\ccjssdjY.s:178    .text.ap_free_ap:0000000000000000 .LFB145
C:\Users\stapi\AppData\Local\Temp\ccjssdjY.s:313    .text.ap_free_ap:00000000000000ae .LFE145
C:\Users\stapi\AppData\Local\Temp\ccjssdjY.s:20784  .debug_loc:0000000000000536 .LLST5
C:\Users\stapi\AppData\Local\Temp\ccjssdjY.s:20795  .debug_loc:0000000000000554 .LLST6
C:\Users\stapi\AppData\Local\Temp\ccjssdjY.s:191    .text.ap_free_ap:0000000000000008 .LBB19
C:\Users\stapi\AppData\Local\Temp\ccjssdjY.s:20806  .debug_loc:0000000000000572 .LLST7
C:\Users\stapi\AppData\Local\Temp\ccjssdjY.s:20821  .debug_loc:000000000000059b .LLST8
C:\Users\stapi\AppData\Local\Temp\ccjssdjY.s:20836  .debug_loc:00000000000005c4 .LLST9
C:\Users\stapi\AppData\Local\Temp\ccjssdjY.s:221    .text.ap_free_ap:000000000000002c .LVL17
C:\Users\stapi\AppData\Local\Temp\ccjssdjY.s:271    .text.ap_free_ap:0000000000000070 .LVL22
C:\Users\stapi\AppData\Local\Temp\ccjssdjY.s:301    .text.ap_free_ap:00000000000000a6 .LVL24
C:\Users\stapi\AppData\Local\Temp\ccjssdjY.s:240    .text.ap_free_ap:0000000000000046 .LVL19
C:\Users\stapi\AppData\Local\Temp\ccjssdjY.s:251    .text.ap_free_ap:000000000000005a .LVL20
C:\Users\stapi\AppData\Local\Temp\ccjssdjY.s:22452  .debug_str:0000000000002729 .LASF1645
C:\Users\stapi\AppData\Local\Temp\ccjssdjY.s:23600  .debug_str:0000000000004915 .LASF1646
C:\Users\stapi\AppData\Local\Temp\ccjssdjY.s:23308  .debug_str:000000000000411e .LASF1647
C:\Users\stapi\AppData\Local\Temp\ccjssdjY.s:21150  .debug_str:000000000000024d .LASF1648
C:\Users\stapi\AppData\Local\Temp\ccjssdjY.s:24238  .debug_str:0000000000005c6b .LASF1650
C:\Users\stapi\AppData\Local\Temp\ccjssdjY.s:24196  .debug_str:0000000000005b53 .LASF1651
C:\Users\stapi\AppData\Local\Temp\ccjssdjY.s:23980  .debug_str:00000000000053f6 .LASF1652
C:\Users\stapi\AppData\Local\Temp\ccjssdjY.s:22296  .debug_str:0000000000002255 .LASF1653
C:\Users\stapi\AppData\Local\Temp\ccjssdjY.s:22440  .debug_str:00000000000026c1 .LASF1654
C:\Users\stapi\AppData\Local\Temp\ccjssdjY.s:13     .text.ap_list_beacon_olbc:0000000000000000 .LFB139
C:\Users\stapi\AppData\Local\Temp\ccjssdjY.s:109    .text.ap_list_beacon_olbc:0000000000000068 .LFE139
C:\Users\stapi\AppData\Local\Temp\ccjssdjY.s:20847  .debug_loc:00000000000005e2 .LLST0
C:\Users\stapi\AppData\Local\Temp\ccjssdjY.s:20865  .debug_loc:000000000000060e .LLST1
C:\Users\stapi\AppData\Local\Temp\ccjssdjY.s:55     .text.ap_list_beacon_olbc:0000000000000030 .LBB6
C:\Users\stapi\AppData\Local\Temp\ccjssdjY.s:20885  .debug_loc:000000000000063c .LLST2
C:\Users\stapi\AppData\Local\Temp\ccjssdjY.s:57     .text.ap_list_beacon_olbc:0000000000000030 .LBB8
C:\Users\stapi\AppData\Local\Temp\ccjssdjY.s:84     .text.ap_list_beacon_olbc:000000000000005a .LBE8
C:\Users\stapi\AppData\Local\Temp\ccjssdjY.s:20921  .debug_loc:000000000000067a .LLST3
C:\Users\stapi\AppData\Local\Temp\ccjssdjY.s:115    .text.ap_ap_list_del:0000000000000000 .LFB142
C:\Users\stapi\AppData\Local\Temp\ccjssdjY.s:168    .text.ap_ap_list_del:0000000000000020 .LFE142
C:\Users\stapi\AppData\Local\Temp\ccjssdjY.s:136    .text.ap_ap_list_del:000000000000000e .LBB13
C:\Users\stapi\AppData\Local\Temp\ccjssdjY.s:20928  .debug_loc:000000000000068d .LLST4
C:\Users\stapi\AppData\Local\Temp\ccjssdjY.s:24298  .debug_str:0000000000005e25 .LASF1655
C:\Users\stapi\AppData\Local\Temp\ccjssdjY.s:22146  .debug_str:0000000000001e2a .LASF1656
C:\Users\stapi\AppData\Local\Temp\ccjssdjY.s:23994  .debug_str:0000000000005473 .LASF1657
C:\Users\stapi\AppData\Local\Temp\ccjssdjY.s:22298  .debug_str:0000000000002262 .LASF1658
C:\Users\stapi\AppData\Local\Temp\ccjssdjY.s:23066  .debug_str:0000000000003a77 .LASF1659
C:\Users\stapi\AppData\Local\Temp\ccjssdjY.s:23168  .debug_str:0000000000003d60 .LASF1660
C:\Users\stapi\AppData\Local\Temp\ccjssdjY.s:21970  .debug_str:0000000000001955 .LASF1661
C:\Users\stapi\AppData\Local\Temp\ccjssdjY.s:21304  .debug_str:00000000000006ad .LASF1662
C:\Users\stapi\AppData\Local\Temp\ccjssdjY.s:22952  .debug_str:00000000000035fb .LASF1663
C:\Users\stapi\AppData\Local\Temp\ccjssdjY.s:1091   .text.ap_list_deinit:0000000000000000 .LVL91
C:\Users\stapi\AppData\Local\Temp\ccjssdjY.s:1111   .text.ap_list_deinit:000000000000000c .LVL94
C:\Users\stapi\AppData\Local\Temp\ccjssdjY.s:1098   .text.ap_list_deinit:0000000000000008 .LVL92
C:\Users\stapi\AppData\Local\Temp\ccjssdjY.s:1120   .text.ap_list_deinit:0000000000000012 .LVL95
C:\Users\stapi\AppData\Local\Temp\ccjssdjY.s:1130   .text.ap_list_deinit:000000000000001a .LVL96
C:\Users\stapi\AppData\Local\Temp\ccjssdjY.s:1105   .text.ap_list_deinit:000000000000000a .LVL93
C:\Users\stapi\AppData\Local\Temp\ccjssdjY.s:1139   .text.ap_list_deinit:000000000000001c .LVL97
C:\Users\stapi\AppData\Local\Temp\ccjssdjY.s:1074   .text.ap_list_init:0000000000000000 .LVL89
C:\Users\stapi\AppData\Local\Temp\ccjssdjY.s:1078   .text.ap_list_init:0000000000000002 .LVL90
C:\Users\stapi\AppData\Local\Temp\ccjssdjY.s:792    .text.ap_list_timer:0000000000000000 .LVL58
C:\Users\stapi\AppData\Local\Temp\ccjssdjY.s:826    .text.ap_list_timer:0000000000000016 .LVL59
C:\Users\stapi\AppData\Local\Temp\ccjssdjY.s:1052   .text.ap_list_timer:0000000000000100 .LVL88
C:\Users\stapi\AppData\Local\Temp\ccjssdjY.s:849    .text.ap_list_timer:000000000000002e .LVL61
C:\Users\stapi\AppData\Local\Temp\ccjssdjY.s:910    .text.ap_list_timer:0000000000000056 .LVL69
C:\Users\stapi\AppData\Local\Temp\ccjssdjY.s:918    .text.ap_list_timer:000000000000005e .LVL70
C:\Users\stapi\AppData\Local\Temp\ccjssdjY.s:944    .text.ap_list_timer:0000000000000076 .LVL72
C:\Users\stapi\AppData\Local\Temp\ccjssdjY.s:981    .text.ap_list_timer:000000000000009e .LVL78
C:\Users\stapi\AppData\Local\Temp\ccjssdjY.s:987    .text.ap_list_timer:00000000000000a4 .LVL79
C:\Users\stapi\AppData\Local\Temp\ccjssdjY.s:930    .text.ap_list_timer:000000000000006c .LVL71
C:\Users\stapi\AppData\Local\Temp\ccjssdjY.s:1005   .text.ap_list_timer:00000000000000c2 .LVL81
C:\Users\stapi\AppData\Local\Temp\ccjssdjY.s:1012   .text.ap_list_timer:00000000000000c6 .LVL83
C:\Users\stapi\AppData\Local\Temp\ccjssdjY.s:1045   .text.ap_list_timer:00000000000000fc .LVL87
C:\Users\stapi\AppData\Local\Temp\ccjssdjY.s:964    .text.ap_list_timer:000000000000008c .LVL75
C:\Users\stapi\AppData\Local\Temp\ccjssdjY.s:967    .text.ap_list_timer:000000000000008e .LVL76
C:\Users\stapi\AppData\Local\Temp\ccjssdjY.s:1009   .text.ap_list_timer:00000000000000c4 .LVL82
C:\Users\stapi\AppData\Local\Temp\ccjssdjY.s:867    .text.ap_list_timer:0000000000000036 .LVL62
C:\Users\stapi\AppData\Local\Temp\ccjssdjY.s:902    .text.ap_list_timer:000000000000004a .LVL67
C:\Users\stapi\AppData\Local\Temp\ccjssdjY.s:878    .text.ap_list_timer:000000000000003a .LVL63
C:\Users\stapi\AppData\Local\Temp\ccjssdjY.s:883    .text.ap_list_timer:000000000000003e .LVL64
C:\Users\stapi\AppData\Local\Temp\ccjssdjY.s:890    .text.ap_list_timer:0000000000000044 .LVL65
C:\Users\stapi\AppData\Local\Temp\ccjssdjY.s:894    .text.ap_list_timer:0000000000000046 .LVL66
C:\Users\stapi\AppData\Local\Temp\ccjssdjY.s:1179   .debug_info:0000000000000000 .Ldebug_info0
C:\Users\stapi\AppData\Local\Temp\ccjssdjY.s:336    .text.ap_list_process_beacon:0000000000000000 .LVL25
C:\Users\stapi\AppData\Local\Temp\ccjssdjY.s:378    .text.ap_list_process_beacon:0000000000000026 .LVL26
C:\Users\stapi\AppData\Local\Temp\ccjssdjY.s:770    .text.ap_list_process_beacon:000000000000023c .LVL57
C:\Users\stapi\AppData\Local\Temp\ccjssdjY.s:396    .text.ap_list_process_beacon:0000000000000040 .LVL28
C:\Users\stapi\AppData\Local\Temp\ccjssdjY.s:575    .text.ap_list_process_beacon:0000000000000174 .LVL39
C:\Users\stapi\AppData\Local\Temp\ccjssdjY.s:584    .text.ap_list_process_beacon:0000000000000178 .LVL41
C:\Users\stapi\AppData\Local\Temp\ccjssdjY.s:690    .text.ap_list_process_beacon:00000000000001f6 .LVL49
C:\Users\stapi\AppData\Local\Temp\ccjssdjY.s:724    .text.ap_list_process_beacon:0000000000000210 .LVL52
C:\Users\stapi\AppData\Local\Temp\ccjssdjY.s:519    .text.ap_list_process_beacon:0000000000000104 .LVL35
C:\Users\stapi\AppData\Local\Temp\ccjssdjY.s:716    .text.ap_list_process_beacon:000000000000020c .LVL51
C:\Users\stapi\AppData\Local\Temp\ccjssdjY.s:479    .text.ap_list_process_beacon:00000000000000b8 .LVL32
C:\Users\stapi\AppData\Local\Temp\ccjssdjY.s:708    .text.ap_list_process_beacon:0000000000000208 .LVL50
C:\Users\stapi\AppData\Local\Temp\ccjssdjY.s:746    .text.ap_list_process_beacon:0000000000000220 .LVL55
C:\Users\stapi\AppData\Local\Temp\ccjssdjY.s:742    .text.ap_list_process_beacon:000000000000021e .LVL54
C:\Users\stapi\AppData\Local\Temp\ccjssdjY.s:625    .text.ap_list_process_beacon:0000000000000198 .LVL43
C:\Users\stapi\AppData\Local\Temp\ccjssdjY.s:682    .text.ap_list_process_beacon:00000000000001f2 .LVL48
C:\Users\stapi\AppData\Local\Temp\ccjssdjY.s:639    .text.ap_list_process_beacon:000000000000019e .LVL44
C:\Users\stapi\AppData\Local\Temp\ccjssdjY.s:651    .text.ap_list_process_beacon:00000000000001ac .LVL45
C:\Users\stapi\AppData\Local\Temp\ccjssdjY.s:181    .text.ap_free_ap:0000000000000000 .LVL12
C:\Users\stapi\AppData\Local\Temp\ccjssdjY.s:219    .text.ap_free_ap:0000000000000024 .LVL16
C:\Users\stapi\AppData\Local\Temp\ccjssdjY.s:217    .text.ap_free_ap:0000000000000020 .LVL15
C:\Users\stapi\AppData\Local\Temp\ccjssdjY.s:190    .text.ap_free_ap:0000000000000008 .LVL13
C:\Users\stapi\AppData\Local\Temp\ccjssdjY.s:233    .text.ap_free_ap:000000000000003a .LVL18
C:\Users\stapi\AppData\Local\Temp\ccjssdjY.s:261    .text.ap_free_ap:0000000000000062 .LVL21
C:\Users\stapi\AppData\Local\Temp\ccjssdjY.s:207    .text.ap_free_ap:0000000000000016 .LVL14
C:\Users\stapi\AppData\Local\Temp\ccjssdjY.s:17     .text.ap_list_beacon_olbc:0000000000000000 .LVL0
C:\Users\stapi\AppData\Local\Temp\ccjssdjY.s:31     .text.ap_list_beacon_olbc:000000000000000e .LVL1
C:\Users\stapi\AppData\Local\Temp\ccjssdjY.s:36     .text.ap_list_beacon_olbc:0000000000000014 .LVL2
C:\Users\stapi\AppData\Local\Temp\ccjssdjY.s:61     .text.ap_list_beacon_olbc:0000000000000036 .LVL3
C:\Users\stapi\AppData\Local\Temp\ccjssdjY.s:99     .text.ap_list_beacon_olbc:0000000000000064 .LVL8
C:\Users\stapi\AppData\Local\Temp\ccjssdjY.s:69     .text.ap_list_beacon_olbc:0000000000000042 .LVL4
C:\Users\stapi\AppData\Local\Temp\ccjssdjY.s:86     .text.ap_list_beacon_olbc:000000000000005a .LVL6
C:\Users\stapi\AppData\Local\Temp\ccjssdjY.s:90     .text.ap_list_beacon_olbc:000000000000005c .LVL7
C:\Users\stapi\AppData\Local\Temp\ccjssdjY.s:76     .text.ap_list_beacon_olbc:000000000000004e .LVL5
C:\Users\stapi\AppData\Local\Temp\ccjssdjY.s:155    .text.ap_ap_list_del:000000000000001c .LVL10
C:\Users\stapi\AppData\Local\Temp\ccjssdjY.s:161    .text.ap_ap_list_del:000000000000001e .LVL11
C:\Users\stapi\AppData\Local\Temp\ccjssdjY.s:93     .text.ap_list_beacon_olbc:0000000000000060 .LBE6
C:\Users\stapi\AppData\Local\Temp\ccjssdjY.s:96     .text.ap_list_beacon_olbc:0000000000000062 .LBB10
C:\Users\stapi\AppData\Local\Temp\ccjssdjY.s:102    .text.ap_list_beacon_olbc:0000000000000064 .LBE10
C:\Users\stapi\AppData\Local\Temp\ccjssdjY.s:144    .text.ap_ap_list_del:0000000000000012 .LBE13
C:\Users\stapi\AppData\Local\Temp\ccjssdjY.s:156    .text.ap_ap_list_del:000000000000001c .LBB16
C:\Users\stapi\AppData\Local\Temp\ccjssdjY.s:164    .text.ap_ap_list_del:000000000000001e .LBE16
C:\Users\stapi\AppData\Local\Temp\ccjssdjY.s:198    .text.ap_free_ap:000000000000000c .LBE19
C:\Users\stapi\AppData\Local\Temp\ccjssdjY.s:202    .text.ap_free_ap:0000000000000010 .LBB23
C:\Users\stapi\AppData\Local\Temp\ccjssdjY.s:235    .text.ap_free_ap:000000000000003a .LBE23
C:\Users\stapi\AppData\Local\Temp\ccjssdjY.s:264    .text.ap_free_ap:0000000000000062 .LBB24
C:\Users\stapi\AppData\Local\Temp\ccjssdjY.s:311    .text.ap_free_ap:00000000000000ae .LBE24
C:\Users\stapi\AppData\Local\Temp\ccjssdjY.s:361    .text.ap_list_process_beacon:0000000000000014 .LBE35
C:\Users\stapi\AppData\Local\Temp\ccjssdjY.s:366    .text.ap_list_process_beacon:0000000000000018 .LBB41
C:\Users\stapi\AppData\Local\Temp\ccjssdjY.s:374    .text.ap_list_process_beacon:0000000000000022 .LBE41
C:\Users\stapi\AppData\Local\Temp\ccjssdjY.s:379    .text.ap_list_process_beacon:0000000000000026 .LBB42
C:\Users\stapi\AppData\Local\Temp\ccjssdjY.s:399    .text.ap_list_process_beacon:0000000000000040 .LBE42
C:\Users\stapi\AppData\Local\Temp\ccjssdjY.s:577    .text.ap_list_process_beacon:0000000000000174 .LBB46
C:\Users\stapi\AppData\Local\Temp\ccjssdjY.s:587    .text.ap_list_process_beacon:0000000000000178 .LBE46
C:\Users\stapi\AppData\Local\Temp\ccjssdjY.s:726    .text.ap_list_process_beacon:0000000000000210 .LBB61
C:\Users\stapi\AppData\Local\Temp\ccjssdjY.s:730    .text.ap_list_process_beacon:0000000000000210 .LBE61
C:\Users\stapi\AppData\Local\Temp\ccjssdjY.s:482    .text.ap_list_process_beacon:00000000000000b8 .LBE43
C:\Users\stapi\AppData\Local\Temp\ccjssdjY.s:710    .text.ap_list_process_beacon:0000000000000208 .LBB60
C:\Users\stapi\AppData\Local\Temp\ccjssdjY.s:719    .text.ap_list_process_beacon:000000000000020c .LBE60
C:\Users\stapi\AppData\Local\Temp\ccjssdjY.s:630    .text.ap_list_process_beacon:0000000000000198 .LBE47
C:\Users\stapi\AppData\Local\Temp\ccjssdjY.s:633    .text.ap_list_process_beacon:000000000000019a .LBB59
C:\Users\stapi\AppData\Local\Temp\ccjssdjY.s:695    .text.ap_list_process_beacon:00000000000001f6 .LBE59
C:\Users\stapi\AppData\Local\Temp\ccjssdjY.s:733    .text.ap_list_process_beacon:0000000000000210 .LBB62
C:\Users\stapi\AppData\Local\Temp\ccjssdjY.s:748    .text.ap_list_process_beacon:0000000000000220 .LBE62
C:\Users\stapi\AppData\Local\Temp\ccjssdjY.s:618    .text.ap_list_process_beacon:0000000000000194 .LBE49
C:\Users\stapi\AppData\Local\Temp\ccjssdjY.s:621    .text.ap_list_process_beacon:0000000000000196 .LBB53
C:\Users\stapi\AppData\Local\Temp\ccjssdjY.s:627    .text.ap_list_process_beacon:0000000000000198 .LBE53
C:\Users\stapi\AppData\Local\Temp\ccjssdjY.s:684    .text.ap_list_process_beacon:00000000000001f2 .LBB56
C:\Users\stapi\AppData\Local\Temp\ccjssdjY.s:693    .text.ap_list_process_beacon:00000000000001f6 .LBE56
C:\Users\stapi\AppData\Local\Temp\ccjssdjY.s:823    .text.ap_list_timer:0000000000000014 .LBE68
C:\Users\stapi\AppData\Local\Temp\ccjssdjY.s:830    .text.ap_list_timer:000000000000001e .LBB82
C:\Users\stapi\AppData\Local\Temp\ccjssdjY.s:840    .text.ap_list_timer:0000000000000022 .LBE82
C:\Users\stapi\AppData\Local\Temp\ccjssdjY.s:853    .text.ap_list_timer:0000000000000030 .LBB83
C:\Users\stapi\AppData\Local\Temp\ccjssdjY.s:864    .text.ap_list_timer:0000000000000034 .LBE83
C:\Users\stapi\AppData\Local\Temp\ccjssdjY.s:868    .text.ap_list_timer:0000000000000036 .LBB84
C:\Users\stapi\AppData\Local\Temp\ccjssdjY.s:904    .text.ap_list_timer:000000000000004a .LBE84
C:\Users\stapi\AppData\Local\Temp\ccjssdjY.s:912    .text.ap_list_timer:0000000000000056 .LBB85
C:\Users\stapi\AppData\Local\Temp\ccjssdjY.s:921    .text.ap_list_timer:000000000000005e .LBE85
C:\Users\stapi\AppData\Local\Temp\ccjssdjY.s:821    .text.ap_list_timer:0000000000000014 .LBE70
C:\Users\stapi\AppData\Local\Temp\ccjssdjY.s:832    .text.ap_list_timer:000000000000001e .LBB75
C:\Users\stapi\AppData\Local\Temp\ccjssdjY.s:838    .text.ap_list_timer:0000000000000022 .LBE75
C:\Users\stapi\AppData\Local\Temp\ccjssdjY.s:855    .text.ap_list_timer:0000000000000030 .LBB76
C:\Users\stapi\AppData\Local\Temp\ccjssdjY.s:862    .text.ap_list_timer:0000000000000034 .LBE76
C:\Users\stapi\AppData\Local\Temp\ccjssdjY.s:872    .text.ap_list_timer:0000000000000036 .LBB77
C:\Users\stapi\AppData\Local\Temp\ccjssdjY.s:897    .text.ap_list_timer:0000000000000046 .LBE77
C:\Users\stapi\AppData\Local\Temp\ccjssdjY.s:947    .text.ap_list_timer:0000000000000076 .LBB86
C:\Users\stapi\AppData\Local\Temp\ccjssdjY.s:983    .text.ap_list_timer:000000000000009e .LBE86
C:\Users\stapi\AppData\Local\Temp\ccjssdjY.s:989    .text.ap_list_timer:00000000000000a4 .LBB87
C:\Users\stapi\AppData\Local\Temp\ccjssdjY.s:1032   .text.ap_list_timer:00000000000000ec .LBE87
C:\Users\stapi\AppData\Local\Temp\ccjssdjY.s:1047   .text.ap_list_timer:00000000000000fc .LBB88
C:\Users\stapi\AppData\Local\Temp\ccjssdjY.s:1062   .text.ap_list_timer:0000000000000102 .LBE88
C:\Users\stapi\AppData\Local\Temp\ccjssdjY.s:1108   .text.ap_list_deinit:000000000000000a .LBE91
C:\Users\stapi\AppData\Local\Temp\ccjssdjY.s:1113   .text.ap_list_deinit:000000000000000c .LBB95
C:\Users\stapi\AppData\Local\Temp\ccjssdjY.s:1122   .text.ap_list_deinit:0000000000000012 .LBE95
C:\Users\stapi\AppData\Local\Temp\ccjssdjY.s:1133   .text.ap_list_deinit:000000000000001a .LBB96
C:\Users\stapi\AppData\Local\Temp\ccjssdjY.s:1148   .text.ap_list_deinit:000000000000002a .LBE96

UNDEFINED SYMBOLS
__riscv_save_4
os_memcmp
os_free
__riscv_restore_4
wpa_printf
__riscv_save_6
merge_byte_arrays
os_get_reltime
hostapd_ht_operation_update
ieee802_11_update_beacons
os_memcpy
os_zalloc
__riscv_restore_6
__riscv_save_5
__riscv_restore_5
__riscv_save_2
__riscv_restore_2
