   1              		.file	"bss_load.c"
   2              		.option nopic
   3              		.attribute arch, "rv32i2p0_m2p0_a2p0_f2p0_c2p0_b_p0p94"
   4              		.attribute unaligned_access, 0
   5              		.attribute stack_align, 16
   6              		.text
   7              	.Ltext0:
   8              		.cfi_sections	.debug_frame
   9              		.section	.rodata.get_bss_load_update_timeout.str1.4,"aMS",@progbits,1
  10              		.align	2
  11              	.LC0:
  12 0000 42535320 		.string	"BSS Load: Invalid BSS load update configuration (period=%u beacon_int=%u)"
  12      4C6F6164 
  12      3A20496E 
  12      76616C69 
  12      64204253 
  13              		.section	.text.get_bss_load_update_timeout,"ax",@progbits
  14              		.align	1
  16              	get_bss_load_update_timeout:
  17              	.LFB163:
  18              		.file 1 "C:/Users/stapi/OneDrive/Desktop/GD32VW553/V1_MQTT_OK/GD32VW55X_Wifi_BLE_SDK/GD32VW55x_REL
   1:C:/Users/stapi/OneDrive/Desktop/GD32VW553/V1_MQTT_OK/GD32VW55X_Wifi_BLE_SDK/GD32VW55x_RELEASE_V1.0.2/MSDK/wpa_supplicant/src/ap\bss_load.c **** /*
   2:C:/Users/stapi/OneDrive/Desktop/GD32VW553/V1_MQTT_OK/GD32VW55X_Wifi_BLE_SDK/GD32VW55x_RELEASE_V1.0.2/MSDK/wpa_supplicant/src/ap\bss_load.c ****  * BSS Load Element / Channel Utilization
   3:C:/Users/stapi/OneDrive/Desktop/GD32VW553/V1_MQTT_OK/GD32VW55X_Wifi_BLE_SDK/GD32VW55x_RELEASE_V1.0.2/MSDK/wpa_supplicant/src/ap\bss_load.c ****  * Copyright (c) 2014, Qualcomm Atheros, Inc.
   4:C:/Users/stapi/OneDrive/Desktop/GD32VW553/V1_MQTT_OK/GD32VW55X_Wifi_BLE_SDK/GD32VW55x_RELEASE_V1.0.2/MSDK/wpa_supplicant/src/ap\bss_load.c ****  *
   5:C:/Users/stapi/OneDrive/Desktop/GD32VW553/V1_MQTT_OK/GD32VW55X_Wifi_BLE_SDK/GD32VW55x_RELEASE_V1.0.2/MSDK/wpa_supplicant/src/ap\bss_load.c ****  * This software may be distributed under the terms of the BSD license.
   6:C:/Users/stapi/OneDrive/Desktop/GD32VW553/V1_MQTT_OK/GD32VW55X_Wifi_BLE_SDK/GD32VW55x_RELEASE_V1.0.2/MSDK/wpa_supplicant/src/ap\bss_load.c ****  * See README for more details.
   7:C:/Users/stapi/OneDrive/Desktop/GD32VW553/V1_MQTT_OK/GD32VW55X_Wifi_BLE_SDK/GD32VW55x_RELEASE_V1.0.2/MSDK/wpa_supplicant/src/ap\bss_load.c ****  */
   8:C:/Users/stapi/OneDrive/Desktop/GD32VW553/V1_MQTT_OK/GD32VW55X_Wifi_BLE_SDK/GD32VW55x_RELEASE_V1.0.2/MSDK/wpa_supplicant/src/ap\bss_load.c **** 
   9:C:/Users/stapi/OneDrive/Desktop/GD32VW553/V1_MQTT_OK/GD32VW55X_Wifi_BLE_SDK/GD32VW55x_RELEASE_V1.0.2/MSDK/wpa_supplicant/src/ap\bss_load.c **** #include "utils/includes.h"
  10:C:/Users/stapi/OneDrive/Desktop/GD32VW553/V1_MQTT_OK/GD32VW55X_Wifi_BLE_SDK/GD32VW55x_RELEASE_V1.0.2/MSDK/wpa_supplicant/src/ap\bss_load.c **** 
  11:C:/Users/stapi/OneDrive/Desktop/GD32VW553/V1_MQTT_OK/GD32VW55X_Wifi_BLE_SDK/GD32VW55x_RELEASE_V1.0.2/MSDK/wpa_supplicant/src/ap\bss_load.c **** #ifdef CONFIG_AP
  12:C:/Users/stapi/OneDrive/Desktop/GD32VW553/V1_MQTT_OK/GD32VW55X_Wifi_BLE_SDK/GD32VW55x_RELEASE_V1.0.2/MSDK/wpa_supplicant/src/ap\bss_load.c **** #include "utils/common.h"
  13:C:/Users/stapi/OneDrive/Desktop/GD32VW553/V1_MQTT_OK/GD32VW55X_Wifi_BLE_SDK/GD32VW55x_RELEASE_V1.0.2/MSDK/wpa_supplicant/src/ap\bss_load.c **** #include "utils/eloop.h"
  14:C:/Users/stapi/OneDrive/Desktop/GD32VW553/V1_MQTT_OK/GD32VW55X_Wifi_BLE_SDK/GD32VW55x_RELEASE_V1.0.2/MSDK/wpa_supplicant/src/ap\bss_load.c **** #include "hostapd.h"
  15:C:/Users/stapi/OneDrive/Desktop/GD32VW553/V1_MQTT_OK/GD32VW55X_Wifi_BLE_SDK/GD32VW55x_RELEASE_V1.0.2/MSDK/wpa_supplicant/src/ap\bss_load.c **** #include "bss_load.h"
  16:C:/Users/stapi/OneDrive/Desktop/GD32VW553/V1_MQTT_OK/GD32VW55X_Wifi_BLE_SDK/GD32VW55x_RELEASE_V1.0.2/MSDK/wpa_supplicant/src/ap\bss_load.c **** #include "ap_drv_ops.h"
  17:C:/Users/stapi/OneDrive/Desktop/GD32VW553/V1_MQTT_OK/GD32VW55X_Wifi_BLE_SDK/GD32VW55x_RELEASE_V1.0.2/MSDK/wpa_supplicant/src/ap\bss_load.c **** #include "beacon.h"
  18:C:/Users/stapi/OneDrive/Desktop/GD32VW553/V1_MQTT_OK/GD32VW55X_Wifi_BLE_SDK/GD32VW55x_RELEASE_V1.0.2/MSDK/wpa_supplicant/src/ap\bss_load.c **** 
  19:C:/Users/stapi/OneDrive/Desktop/GD32VW553/V1_MQTT_OK/GD32VW55X_Wifi_BLE_SDK/GD32VW55x_RELEASE_V1.0.2/MSDK/wpa_supplicant/src/ap\bss_load.c **** 
  20:C:/Users/stapi/OneDrive/Desktop/GD32VW553/V1_MQTT_OK/GD32VW55X_Wifi_BLE_SDK/GD32VW55x_RELEASE_V1.0.2/MSDK/wpa_supplicant/src/ap\bss_load.c **** static int get_bss_load_update_timeout(struct hostapd_data *hapd,
  21:C:/Users/stapi/OneDrive/Desktop/GD32VW553/V1_MQTT_OK/GD32VW55X_Wifi_BLE_SDK/GD32VW55x_RELEASE_V1.0.2/MSDK/wpa_supplicant/src/ap\bss_load.c **** 				       unsigned int *sec, unsigned int *usec)
  22:C:/Users/stapi/OneDrive/Desktop/GD32VW553/V1_MQTT_OK/GD32VW55X_Wifi_BLE_SDK/GD32VW55x_RELEASE_V1.0.2/MSDK/wpa_supplicant/src/ap\bss_load.c **** {
  19              		.loc 1 22 1
  20              		.cfi_startproc
  21              	.LVL0:
  23:C:/Users/stapi/OneDrive/Desktop/GD32VW553/V1_MQTT_OK/GD32VW55X_Wifi_BLE_SDK/GD32VW55x_RELEASE_V1.0.2/MSDK/wpa_supplicant/src/ap\bss_load.c **** 	unsigned int update_period = hapd->conf->bss_load_update_period;
  22              		.loc 1 23 2
  23              		.loc 1 23 15 is_stmt 0
  24 0000 1C45     		lw	a5,8(a0)
  22:C:/Users/stapi/OneDrive/Desktop/GD32VW553/V1_MQTT_OK/GD32VW55X_Wifi_BLE_SDK/GD32VW55x_RELEASE_V1.0.2/MSDK/wpa_supplicant/src/ap\bss_load.c **** 	unsigned int update_period = hapd->conf->bss_load_update_period;
  25              		.loc 1 22 1
  26 0002 3287     		mv	a4,a2
  27              		.loc 1 23 15
  28 0004 D05B     		lw	a2,52(a5)
  29              	.LVL1:
  24:C:/Users/stapi/OneDrive/Desktop/GD32VW553/V1_MQTT_OK/GD32VW55X_Wifi_BLE_SDK/GD32VW55x_RELEASE_V1.0.2/MSDK/wpa_supplicant/src/ap\bss_load.c **** 	unsigned int beacon_int = hapd->iconf->beacon_int;
  30              		.loc 1 24 2 is_stmt 1
  31              		.loc 1 24 39 is_stmt 0
  32 0006 5C41     		lw	a5,4(a0)
  33              		.loc 1 24 15
  34 0008 83D6C700 		lhu	a3,12(a5)
  35              	.LVL2:
  25:C:/Users/stapi/OneDrive/Desktop/GD32VW553/V1_MQTT_OK/GD32VW55X_Wifi_BLE_SDK/GD32VW55x_RELEASE_V1.0.2/MSDK/wpa_supplicant/src/ap\bss_load.c **** 	unsigned int update_timeout;
  36              		.loc 1 25 2 is_stmt 1
  26:C:/Users/stapi/OneDrive/Desktop/GD32VW553/V1_MQTT_OK/GD32VW55X_Wifi_BLE_SDK/GD32VW55x_RELEASE_V1.0.2/MSDK/wpa_supplicant/src/ap\bss_load.c **** 
  27:C:/Users/stapi/OneDrive/Desktop/GD32VW553/V1_MQTT_OK/GD32VW55X_Wifi_BLE_SDK/GD32VW55x_RELEASE_V1.0.2/MSDK/wpa_supplicant/src/ap\bss_load.c **** 	if (!update_period || !beacon_int) {
  37              		.loc 1 27 2
  38              		.loc 1 27 5 is_stmt 0
  39 000c 11C2     		beq	a2,zero,.L2
  40              		.loc 1 27 21 discriminator 1
  41 000e 9DE2     		bne	a3,zero,.L3
  42              	.L2:
  22:C:/Users/stapi/OneDrive/Desktop/GD32VW553/V1_MQTT_OK/GD32VW55X_Wifi_BLE_SDK/GD32VW55x_RELEASE_V1.0.2/MSDK/wpa_supplicant/src/ap\bss_load.c **** 	unsigned int update_period = hapd->conf->bss_load_update_period;
  43              		.loc 1 22 1
  44 0010 17030000 		call	t0,__riscv_save_0
  44      E7020300 
  45              		.cfi_offset 1, -4
  46              		.cfi_def_cfa_offset 16
  28:C:/Users/stapi/OneDrive/Desktop/GD32VW553/V1_MQTT_OK/GD32VW55X_Wifi_BLE_SDK/GD32VW55x_RELEASE_V1.0.2/MSDK/wpa_supplicant/src/ap\bss_load.c **** 		wpa_printf(MSG_ERROR,
  47              		.loc 1 28 3 is_stmt 1
  48 0018 B7050000 		lui	a1,%hi(.LC0)
  49              	.LVL3:
  50 001c 93850500 		addi	a1,a1,%lo(.LC0)
  51 0020 1545     		li	a0,5
  52              	.LVL4:
  53 0022 97000000 		call	wpa_printf
  53      E7800000 
  54              	.LVL5:
  29:C:/Users/stapi/OneDrive/Desktop/GD32VW553/V1_MQTT_OK/GD32VW55X_Wifi_BLE_SDK/GD32VW55x_RELEASE_V1.0.2/MSDK/wpa_supplicant/src/ap\bss_load.c **** 			   "BSS Load: Invalid BSS load update configuration (period=%u beacon_int=%u)",
  30:C:/Users/stapi/OneDrive/Desktop/GD32VW553/V1_MQTT_OK/GD32VW55X_Wifi_BLE_SDK/GD32VW55x_RELEASE_V1.0.2/MSDK/wpa_supplicant/src/ap\bss_load.c **** 			   update_period, beacon_int);
  31:C:/Users/stapi/OneDrive/Desktop/GD32VW553/V1_MQTT_OK/GD32VW55X_Wifi_BLE_SDK/GD32VW55x_RELEASE_V1.0.2/MSDK/wpa_supplicant/src/ap\bss_load.c **** 		return -1;
  55              		.loc 1 31 3
  56              		.loc 1 31 10 is_stmt 0
  57 002a 7D55     		li	a0,-1
  32:C:/Users/stapi/OneDrive/Desktop/GD32VW553/V1_MQTT_OK/GD32VW55X_Wifi_BLE_SDK/GD32VW55x_RELEASE_V1.0.2/MSDK/wpa_supplicant/src/ap\bss_load.c **** 	}
  33:C:/Users/stapi/OneDrive/Desktop/GD32VW553/V1_MQTT_OK/GD32VW55X_Wifi_BLE_SDK/GD32VW55x_RELEASE_V1.0.2/MSDK/wpa_supplicant/src/ap\bss_load.c **** 
  34:C:/Users/stapi/OneDrive/Desktop/GD32VW553/V1_MQTT_OK/GD32VW55X_Wifi_BLE_SDK/GD32VW55x_RELEASE_V1.0.2/MSDK/wpa_supplicant/src/ap\bss_load.c **** 	update_timeout = update_period * beacon_int;
  35:C:/Users/stapi/OneDrive/Desktop/GD32VW553/V1_MQTT_OK/GD32VW55X_Wifi_BLE_SDK/GD32VW55x_RELEASE_V1.0.2/MSDK/wpa_supplicant/src/ap\bss_load.c **** 
  36:C:/Users/stapi/OneDrive/Desktop/GD32VW553/V1_MQTT_OK/GD32VW55X_Wifi_BLE_SDK/GD32VW55x_RELEASE_V1.0.2/MSDK/wpa_supplicant/src/ap\bss_load.c **** 	*sec = ((update_timeout / 1000) * 1024) / 1000;
  37:C:/Users/stapi/OneDrive/Desktop/GD32VW553/V1_MQTT_OK/GD32VW55X_Wifi_BLE_SDK/GD32VW55x_RELEASE_V1.0.2/MSDK/wpa_supplicant/src/ap\bss_load.c **** 	*usec = (update_timeout % 1000) * 1024;
  38:C:/Users/stapi/OneDrive/Desktop/GD32VW553/V1_MQTT_OK/GD32VW55X_Wifi_BLE_SDK/GD32VW55x_RELEASE_V1.0.2/MSDK/wpa_supplicant/src/ap\bss_load.c **** 
  39:C:/Users/stapi/OneDrive/Desktop/GD32VW553/V1_MQTT_OK/GD32VW55X_Wifi_BLE_SDK/GD32VW55x_RELEASE_V1.0.2/MSDK/wpa_supplicant/src/ap\bss_load.c **** 	return 0;
  40:C:/Users/stapi/OneDrive/Desktop/GD32VW553/V1_MQTT_OK/GD32VW55X_Wifi_BLE_SDK/GD32VW55x_RELEASE_V1.0.2/MSDK/wpa_supplicant/src/ap\bss_load.c **** }
  58              		.loc 1 40 1
  59 002c 17030000 		tail	__riscv_restore_0
  59      67000300 
  60              		.cfi_restore 1
  61              		.cfi_def_cfa_offset 0
  62              	.LVL6:
  63              	.L3:
  34:C:/Users/stapi/OneDrive/Desktop/GD32VW553/V1_MQTT_OK/GD32VW55X_Wifi_BLE_SDK/GD32VW55x_RELEASE_V1.0.2/MSDK/wpa_supplicant/src/ap\bss_load.c **** 
  64              		.loc 1 34 2 is_stmt 1
  34:C:/Users/stapi/OneDrive/Desktop/GD32VW553/V1_MQTT_OK/GD32VW55X_Wifi_BLE_SDK/GD32VW55x_RELEASE_V1.0.2/MSDK/wpa_supplicant/src/ap\bss_load.c **** 
  65              		.loc 1 34 17 is_stmt 0
  66 0034 B306D602 		mul	a3,a2,a3
  67              	.LVL7:
  36:C:/Users/stapi/OneDrive/Desktop/GD32VW553/V1_MQTT_OK/GD32VW55X_Wifi_BLE_SDK/GD32VW55x_RELEASE_V1.0.2/MSDK/wpa_supplicant/src/ap\bss_load.c **** 	*usec = (update_timeout % 1000) * 1024;
  68              		.loc 1 36 2 is_stmt 1
  36:C:/Users/stapi/OneDrive/Desktop/GD32VW553/V1_MQTT_OK/GD32VW55X_Wifi_BLE_SDK/GD32VW55x_RELEASE_V1.0.2/MSDK/wpa_supplicant/src/ap\bss_load.c **** 	*usec = (update_timeout % 1000) * 1024;
  69              		.loc 1 36 26 is_stmt 0
  70 0038 1306803E 		li	a2,1000
  71              	.LVL8:
  39:C:/Users/stapi/OneDrive/Desktop/GD32VW553/V1_MQTT_OK/GD32VW55X_Wifi_BLE_SDK/GD32VW55x_RELEASE_V1.0.2/MSDK/wpa_supplicant/src/ap\bss_load.c **** }
  72              		.loc 1 39 9
  73 003c 0145     		li	a0,0
  74              	.LVL9:
  36:C:/Users/stapi/OneDrive/Desktop/GD32VW553/V1_MQTT_OK/GD32VW55X_Wifi_BLE_SDK/GD32VW55x_RELEASE_V1.0.2/MSDK/wpa_supplicant/src/ap\bss_load.c **** 	*usec = (update_timeout % 1000) * 1024;
  75              		.loc 1 36 26
  76 003e B3D7C602 		divu	a5,a3,a2
  77              	.LVL10:
  36:C:/Users/stapi/OneDrive/Desktop/GD32VW553/V1_MQTT_OK/GD32VW55X_Wifi_BLE_SDK/GD32VW55x_RELEASE_V1.0.2/MSDK/wpa_supplicant/src/ap\bss_load.c **** 	*usec = (update_timeout % 1000) * 1024;
  78              		.loc 1 36 34
  79 0042 AA07     		slli	a5,a5,10
  36:C:/Users/stapi/OneDrive/Desktop/GD32VW553/V1_MQTT_OK/GD32VW55X_Wifi_BLE_SDK/GD32VW55x_RELEASE_V1.0.2/MSDK/wpa_supplicant/src/ap\bss_load.c **** 	*usec = (update_timeout % 1000) * 1024;
  80              		.loc 1 36 42
  81 0044 B3D7C702 		divu	a5,a5,a2
  37:C:/Users/stapi/OneDrive/Desktop/GD32VW553/V1_MQTT_OK/GD32VW55X_Wifi_BLE_SDK/GD32VW55x_RELEASE_V1.0.2/MSDK/wpa_supplicant/src/ap\bss_load.c **** 
  82              		.loc 1 37 26
  83 0048 B3F6C602 		remu	a3,a3,a2
  84              	.LVL11:
  36:C:/Users/stapi/OneDrive/Desktop/GD32VW553/V1_MQTT_OK/GD32VW55X_Wifi_BLE_SDK/GD32VW55x_RELEASE_V1.0.2/MSDK/wpa_supplicant/src/ap\bss_load.c **** 	*usec = (update_timeout % 1000) * 1024;
  85              		.loc 1 36 7
  86 004c 9CC1     		sw	a5,0(a1)
  87              	.LVL12:
  37:C:/Users/stapi/OneDrive/Desktop/GD32VW553/V1_MQTT_OK/GD32VW55X_Wifi_BLE_SDK/GD32VW55x_RELEASE_V1.0.2/MSDK/wpa_supplicant/src/ap\bss_load.c **** 
  88              		.loc 1 37 2 is_stmt 1
  37:C:/Users/stapi/OneDrive/Desktop/GD32VW553/V1_MQTT_OK/GD32VW55X_Wifi_BLE_SDK/GD32VW55x_RELEASE_V1.0.2/MSDK/wpa_supplicant/src/ap\bss_load.c **** 
  89              		.loc 1 37 34 is_stmt 0
  90 004e AA06     		slli	a3,a3,10
  37:C:/Users/stapi/OneDrive/Desktop/GD32VW553/V1_MQTT_OK/GD32VW55X_Wifi_BLE_SDK/GD32VW55x_RELEASE_V1.0.2/MSDK/wpa_supplicant/src/ap\bss_load.c **** 
  91              		.loc 1 37 8
  92 0050 14C3     		sw	a3,0(a4)
  39:C:/Users/stapi/OneDrive/Desktop/GD32VW553/V1_MQTT_OK/GD32VW55X_Wifi_BLE_SDK/GD32VW55x_RELEASE_V1.0.2/MSDK/wpa_supplicant/src/ap\bss_load.c **** }
  93              		.loc 1 39 2 is_stmt 1
  94              		.loc 1 40 1 is_stmt 0
  95 0052 8280     		ret
  96              		.cfi_endproc
  97              	.LFE163:
  99              		.section	.rodata.update_channel_utilization.str1.4,"aMS",@progbits,1
 100              		.align	2
 101              	.LC1:
 102 0000 42535320 		.string	"BSS Load: Failed to get survey data"
 102      4C6F6164 
 102      3A204661 
 102      696C6564 
 102      20746F20 
 103              		.section	.text.update_channel_utilization,"ax",@progbits
 104              		.align	1
 106              	update_channel_utilization:
 107              	.LFB164:
  41:C:/Users/stapi/OneDrive/Desktop/GD32VW553/V1_MQTT_OK/GD32VW55X_Wifi_BLE_SDK/GD32VW55x_RELEASE_V1.0.2/MSDK/wpa_supplicant/src/ap\bss_load.c **** 
  42:C:/Users/stapi/OneDrive/Desktop/GD32VW553/V1_MQTT_OK/GD32VW55X_Wifi_BLE_SDK/GD32VW55x_RELEASE_V1.0.2/MSDK/wpa_supplicant/src/ap\bss_load.c **** 
  43:C:/Users/stapi/OneDrive/Desktop/GD32VW553/V1_MQTT_OK/GD32VW55X_Wifi_BLE_SDK/GD32VW55x_RELEASE_V1.0.2/MSDK/wpa_supplicant/src/ap\bss_load.c **** static void update_channel_utilization(void *eloop_data, void *user_data)
  44:C:/Users/stapi/OneDrive/Desktop/GD32VW553/V1_MQTT_OK/GD32VW55X_Wifi_BLE_SDK/GD32VW55x_RELEASE_V1.0.2/MSDK/wpa_supplicant/src/ap\bss_load.c **** {
 108              		.loc 1 44 1 is_stmt 1
 109              		.cfi_startproc
 110              	.LVL13:
  45:C:/Users/stapi/OneDrive/Desktop/GD32VW553/V1_MQTT_OK/GD32VW55X_Wifi_BLE_SDK/GD32VW55x_RELEASE_V1.0.2/MSDK/wpa_supplicant/src/ap\bss_load.c **** 	struct hostapd_data *hapd = eloop_data;
 111              		.loc 1 45 2
  46:C:/Users/stapi/OneDrive/Desktop/GD32VW553/V1_MQTT_OK/GD32VW55X_Wifi_BLE_SDK/GD32VW55x_RELEASE_V1.0.2/MSDK/wpa_supplicant/src/ap\bss_load.c **** 	unsigned int sec, usec;
 112              		.loc 1 46 2
  47:C:/Users/stapi/OneDrive/Desktop/GD32VW553/V1_MQTT_OK/GD32VW55X_Wifi_BLE_SDK/GD32VW55x_RELEASE_V1.0.2/MSDK/wpa_supplicant/src/ap\bss_load.c **** 	int err;
 113              		.loc 1 47 2
  48:C:/Users/stapi/OneDrive/Desktop/GD32VW553/V1_MQTT_OK/GD32VW55X_Wifi_BLE_SDK/GD32VW55x_RELEASE_V1.0.2/MSDK/wpa_supplicant/src/ap\bss_load.c **** 	struct hostapd_iface *iface = hapd->iface;
 114              		.loc 1 48 2
  49:C:/Users/stapi/OneDrive/Desktop/GD32VW553/V1_MQTT_OK/GD32VW55X_Wifi_BLE_SDK/GD32VW55x_RELEASE_V1.0.2/MSDK/wpa_supplicant/src/ap\bss_load.c **** 
  50:C:/Users/stapi/OneDrive/Desktop/GD32VW553/V1_MQTT_OK/GD32VW55X_Wifi_BLE_SDK/GD32VW55x_RELEASE_V1.0.2/MSDK/wpa_supplicant/src/ap\bss_load.c **** 	if (!(hapd->beacon_set_done && hapd->started))
 115              		.loc 1 50 2
 116              		.loc 1 50 5 is_stmt 0
 117 0000 8327055A 		lw	a5,1440(a0)
 118 0004 DDCB     		beq	a5,zero,.L30
  44:C:/Users/stapi/OneDrive/Desktop/GD32VW553/V1_MQTT_OK/GD32VW55X_Wifi_BLE_SDK/GD32VW55x_RELEASE_V1.0.2/MSDK/wpa_supplicant/src/ap\bss_load.c **** 	struct hostapd_data *hapd = eloop_data;
 119              		.loc 1 44 1 discriminator 1
 120 0006 17030000 		call	t0,__riscv_save_2
 120      E7020300 
 121              		.cfi_offset 9, -12
 122              		.cfi_offset 8, -8
 123              		.cfi_offset 1, -4
 124              		.cfi_def_cfa_offset 16
 125              		.loc 1 50 30 discriminator 1
 126 000e 83470501 		lbu	a5,16(a0)
  44:C:/Users/stapi/OneDrive/Desktop/GD32VW553/V1_MQTT_OK/GD32VW55X_Wifi_BLE_SDK/GD32VW55x_RELEASE_V1.0.2/MSDK/wpa_supplicant/src/ap\bss_load.c **** 	struct hostapd_data *hapd = eloop_data;
 127              		.loc 1 44 1 discriminator 1
 128 0012 4111     		addi	sp,sp,-16
 129              		.cfi_def_cfa_offset 32
 130 0014 2A84     		mv	s0,a0
 131              		.loc 1 50 6 discriminator 1
 132 0016 858B     		andi	a5,a5,1
 133 0018 85C3     		beq	a5,zero,.L11
  48:C:/Users/stapi/OneDrive/Desktop/GD32VW553/V1_MQTT_OK/GD32VW55X_Wifi_BLE_SDK/GD32VW55x_RELEASE_V1.0.2/MSDK/wpa_supplicant/src/ap\bss_load.c **** 	struct hostapd_iface *iface = hapd->iface;
 134              		.loc 1 48 24
 135 001a 0441     		lw	s1,0(a0)
  51:C:/Users/stapi/OneDrive/Desktop/GD32VW553/V1_MQTT_OK/GD32VW55X_Wifi_BLE_SDK/GD32VW55x_RELEASE_V1.0.2/MSDK/wpa_supplicant/src/ap\bss_load.c **** 		return;
  52:C:/Users/stapi/OneDrive/Desktop/GD32VW553/V1_MQTT_OK/GD32VW55X_Wifi_BLE_SDK/GD32VW55x_RELEASE_V1.0.2/MSDK/wpa_supplicant/src/ap\bss_load.c **** 
  53:C:/Users/stapi/OneDrive/Desktop/GD32VW553/V1_MQTT_OK/GD32VW55X_Wifi_BLE_SDK/GD32VW55x_RELEASE_V1.0.2/MSDK/wpa_supplicant/src/ap\bss_load.c **** 	err = hostapd_drv_get_survey(hapd, hapd->iface->freq);
 136              		.loc 1 53 2 is_stmt 1
 137              	.LBB4:
 138              	.LBB5:
 139              		.file 2 "C:/Users/stapi/OneDrive/Desktop/GD32VW553/V1_MQTT_OK/GD32VW55X_Wifi_BLE_SDK/GD32VW55x_REL
   1:C:/Users/stapi/OneDrive/Desktop/GD32VW553/V1_MQTT_OK/GD32VW55X_Wifi_BLE_SDK/GD32VW55x_RELEASE_V1.0.2/MSDK/wpa_supplicant/src/ap\ap_drv_ops.h **** /*
   2:C:/Users/stapi/OneDrive/Desktop/GD32VW553/V1_MQTT_OK/GD32VW55X_Wifi_BLE_SDK/GD32VW55x_RELEASE_V1.0.2/MSDK/wpa_supplicant/src/ap\ap_drv_ops.h ****  * hostapd - Driver operations
   3:C:/Users/stapi/OneDrive/Desktop/GD32VW553/V1_MQTT_OK/GD32VW55X_Wifi_BLE_SDK/GD32VW55x_RELEASE_V1.0.2/MSDK/wpa_supplicant/src/ap\ap_drv_ops.h ****  * Copyright (c) 2009-2014, Jouni Malinen <j@w1.fi>
   4:C:/Users/stapi/OneDrive/Desktop/GD32VW553/V1_MQTT_OK/GD32VW55X_Wifi_BLE_SDK/GD32VW55x_RELEASE_V1.0.2/MSDK/wpa_supplicant/src/ap\ap_drv_ops.h ****  *
   5:C:/Users/stapi/OneDrive/Desktop/GD32VW553/V1_MQTT_OK/GD32VW55X_Wifi_BLE_SDK/GD32VW55x_RELEASE_V1.0.2/MSDK/wpa_supplicant/src/ap\ap_drv_ops.h ****  * This software may be distributed under the terms of the BSD license.
   6:C:/Users/stapi/OneDrive/Desktop/GD32VW553/V1_MQTT_OK/GD32VW55X_Wifi_BLE_SDK/GD32VW55x_RELEASE_V1.0.2/MSDK/wpa_supplicant/src/ap\ap_drv_ops.h ****  * See README for more details.
   7:C:/Users/stapi/OneDrive/Desktop/GD32VW553/V1_MQTT_OK/GD32VW55X_Wifi_BLE_SDK/GD32VW55x_RELEASE_V1.0.2/MSDK/wpa_supplicant/src/ap\ap_drv_ops.h ****  */
   8:C:/Users/stapi/OneDrive/Desktop/GD32VW553/V1_MQTT_OK/GD32VW55X_Wifi_BLE_SDK/GD32VW55x_RELEASE_V1.0.2/MSDK/wpa_supplicant/src/ap\ap_drv_ops.h **** 
   9:C:/Users/stapi/OneDrive/Desktop/GD32VW553/V1_MQTT_OK/GD32VW55X_Wifi_BLE_SDK/GD32VW55x_RELEASE_V1.0.2/MSDK/wpa_supplicant/src/ap\ap_drv_ops.h **** #ifndef AP_DRV_OPS
  10:C:/Users/stapi/OneDrive/Desktop/GD32VW553/V1_MQTT_OK/GD32VW55X_Wifi_BLE_SDK/GD32VW55x_RELEASE_V1.0.2/MSDK/wpa_supplicant/src/ap\ap_drv_ops.h **** #define AP_DRV_OPS
  11:C:/Users/stapi/OneDrive/Desktop/GD32VW553/V1_MQTT_OK/GD32VW55X_Wifi_BLE_SDK/GD32VW55x_RELEASE_V1.0.2/MSDK/wpa_supplicant/src/ap\ap_drv_ops.h **** 
  12:C:/Users/stapi/OneDrive/Desktop/GD32VW553/V1_MQTT_OK/GD32VW55X_Wifi_BLE_SDK/GD32VW55x_RELEASE_V1.0.2/MSDK/wpa_supplicant/src/ap\ap_drv_ops.h **** enum wpa_driver_if_type;
  13:C:/Users/stapi/OneDrive/Desktop/GD32VW553/V1_MQTT_OK/GD32VW55X_Wifi_BLE_SDK/GD32VW55x_RELEASE_V1.0.2/MSDK/wpa_supplicant/src/ap\ap_drv_ops.h **** struct wpa_bss_params;
  14:C:/Users/stapi/OneDrive/Desktop/GD32VW553/V1_MQTT_OK/GD32VW55X_Wifi_BLE_SDK/GD32VW55x_RELEASE_V1.0.2/MSDK/wpa_supplicant/src/ap\ap_drv_ops.h **** struct wpa_driver_scan_params;
  15:C:/Users/stapi/OneDrive/Desktop/GD32VW553/V1_MQTT_OK/GD32VW55X_Wifi_BLE_SDK/GD32VW55x_RELEASE_V1.0.2/MSDK/wpa_supplicant/src/ap\ap_drv_ops.h **** struct ieee80211_ht_capabilities;
  16:C:/Users/stapi/OneDrive/Desktop/GD32VW553/V1_MQTT_OK/GD32VW55X_Wifi_BLE_SDK/GD32VW55x_RELEASE_V1.0.2/MSDK/wpa_supplicant/src/ap\ap_drv_ops.h **** struct ieee80211_vht_capabilities;
  17:C:/Users/stapi/OneDrive/Desktop/GD32VW553/V1_MQTT_OK/GD32VW55X_Wifi_BLE_SDK/GD32VW55x_RELEASE_V1.0.2/MSDK/wpa_supplicant/src/ap\ap_drv_ops.h **** struct hostapd_freq_params;
  18:C:/Users/stapi/OneDrive/Desktop/GD32VW553/V1_MQTT_OK/GD32VW55X_Wifi_BLE_SDK/GD32VW55x_RELEASE_V1.0.2/MSDK/wpa_supplicant/src/ap\ap_drv_ops.h **** 
  19:C:/Users/stapi/OneDrive/Desktop/GD32VW553/V1_MQTT_OK/GD32VW55X_Wifi_BLE_SDK/GD32VW55x_RELEASE_V1.0.2/MSDK/wpa_supplicant/src/ap\ap_drv_ops.h **** u32 hostapd_sta_flags_to_drv(u32 flags);
  20:C:/Users/stapi/OneDrive/Desktop/GD32VW553/V1_MQTT_OK/GD32VW55X_Wifi_BLE_SDK/GD32VW55x_RELEASE_V1.0.2/MSDK/wpa_supplicant/src/ap\ap_drv_ops.h **** int hostapd_build_ap_extra_ies(struct hostapd_data *hapd,
  21:C:/Users/stapi/OneDrive/Desktop/GD32VW553/V1_MQTT_OK/GD32VW55X_Wifi_BLE_SDK/GD32VW55x_RELEASE_V1.0.2/MSDK/wpa_supplicant/src/ap\ap_drv_ops.h **** 			       struct wpabuf **beacon,
  22:C:/Users/stapi/OneDrive/Desktop/GD32VW553/V1_MQTT_OK/GD32VW55X_Wifi_BLE_SDK/GD32VW55x_RELEASE_V1.0.2/MSDK/wpa_supplicant/src/ap\ap_drv_ops.h **** 			       struct wpabuf **proberesp,
  23:C:/Users/stapi/OneDrive/Desktop/GD32VW553/V1_MQTT_OK/GD32VW55X_Wifi_BLE_SDK/GD32VW55x_RELEASE_V1.0.2/MSDK/wpa_supplicant/src/ap\ap_drv_ops.h **** 			       struct wpabuf **assocresp);
  24:C:/Users/stapi/OneDrive/Desktop/GD32VW553/V1_MQTT_OK/GD32VW55X_Wifi_BLE_SDK/GD32VW55x_RELEASE_V1.0.2/MSDK/wpa_supplicant/src/ap\ap_drv_ops.h **** void hostapd_free_ap_extra_ies(struct hostapd_data *hapd, struct wpabuf *beacon,
  25:C:/Users/stapi/OneDrive/Desktop/GD32VW553/V1_MQTT_OK/GD32VW55X_Wifi_BLE_SDK/GD32VW55x_RELEASE_V1.0.2/MSDK/wpa_supplicant/src/ap\ap_drv_ops.h **** 			       struct wpabuf *proberesp,
  26:C:/Users/stapi/OneDrive/Desktop/GD32VW553/V1_MQTT_OK/GD32VW55X_Wifi_BLE_SDK/GD32VW55x_RELEASE_V1.0.2/MSDK/wpa_supplicant/src/ap\ap_drv_ops.h **** 			       struct wpabuf *assocresp);
  27:C:/Users/stapi/OneDrive/Desktop/GD32VW553/V1_MQTT_OK/GD32VW55X_Wifi_BLE_SDK/GD32VW55x_RELEASE_V1.0.2/MSDK/wpa_supplicant/src/ap\ap_drv_ops.h **** int hostapd_reset_ap_wps_ie(struct hostapd_data *hapd);
  28:C:/Users/stapi/OneDrive/Desktop/GD32VW553/V1_MQTT_OK/GD32VW55X_Wifi_BLE_SDK/GD32VW55x_RELEASE_V1.0.2/MSDK/wpa_supplicant/src/ap\ap_drv_ops.h **** int hostapd_set_ap_wps_ie(struct hostapd_data *hapd);
  29:C:/Users/stapi/OneDrive/Desktop/GD32VW553/V1_MQTT_OK/GD32VW55X_Wifi_BLE_SDK/GD32VW55x_RELEASE_V1.0.2/MSDK/wpa_supplicant/src/ap\ap_drv_ops.h **** int hostapd_set_authorized(struct hostapd_data *hapd,
  30:C:/Users/stapi/OneDrive/Desktop/GD32VW553/V1_MQTT_OK/GD32VW55X_Wifi_BLE_SDK/GD32VW55x_RELEASE_V1.0.2/MSDK/wpa_supplicant/src/ap\ap_drv_ops.h **** 			   struct sta_info *sta, int authorized);
  31:C:/Users/stapi/OneDrive/Desktop/GD32VW553/V1_MQTT_OK/GD32VW55X_Wifi_BLE_SDK/GD32VW55x_RELEASE_V1.0.2/MSDK/wpa_supplicant/src/ap\ap_drv_ops.h **** int hostapd_set_sta_flags(struct hostapd_data *hapd, struct sta_info *sta);
  32:C:/Users/stapi/OneDrive/Desktop/GD32VW553/V1_MQTT_OK/GD32VW55X_Wifi_BLE_SDK/GD32VW55x_RELEASE_V1.0.2/MSDK/wpa_supplicant/src/ap\ap_drv_ops.h **** int hostapd_set_drv_ieee8021x(struct hostapd_data *hapd, const char *ifname,
  33:C:/Users/stapi/OneDrive/Desktop/GD32VW553/V1_MQTT_OK/GD32VW55X_Wifi_BLE_SDK/GD32VW55x_RELEASE_V1.0.2/MSDK/wpa_supplicant/src/ap\ap_drv_ops.h **** 			      int enabled);
  34:C:/Users/stapi/OneDrive/Desktop/GD32VW553/V1_MQTT_OK/GD32VW55X_Wifi_BLE_SDK/GD32VW55x_RELEASE_V1.0.2/MSDK/wpa_supplicant/src/ap\ap_drv_ops.h **** int hostapd_vlan_if_add(struct hostapd_data *hapd, const char *ifname);
  35:C:/Users/stapi/OneDrive/Desktop/GD32VW553/V1_MQTT_OK/GD32VW55X_Wifi_BLE_SDK/GD32VW55x_RELEASE_V1.0.2/MSDK/wpa_supplicant/src/ap\ap_drv_ops.h **** int hostapd_vlan_if_remove(struct hostapd_data *hapd, const char *ifname);
  36:C:/Users/stapi/OneDrive/Desktop/GD32VW553/V1_MQTT_OK/GD32VW55X_Wifi_BLE_SDK/GD32VW55x_RELEASE_V1.0.2/MSDK/wpa_supplicant/src/ap\ap_drv_ops.h **** int hostapd_set_wds_sta(struct hostapd_data *hapd, char *ifname_wds,
  37:C:/Users/stapi/OneDrive/Desktop/GD32VW553/V1_MQTT_OK/GD32VW55X_Wifi_BLE_SDK/GD32VW55x_RELEASE_V1.0.2/MSDK/wpa_supplicant/src/ap\ap_drv_ops.h **** 			const u8 *addr, int aid, int val);
  38:C:/Users/stapi/OneDrive/Desktop/GD32VW553/V1_MQTT_OK/GD32VW55X_Wifi_BLE_SDK/GD32VW55x_RELEASE_V1.0.2/MSDK/wpa_supplicant/src/ap\ap_drv_ops.h **** int hostapd_sta_add(struct hostapd_data *hapd,
  39:C:/Users/stapi/OneDrive/Desktop/GD32VW553/V1_MQTT_OK/GD32VW55X_Wifi_BLE_SDK/GD32VW55x_RELEASE_V1.0.2/MSDK/wpa_supplicant/src/ap\ap_drv_ops.h **** 		    const u8 *addr, u16 aid, u16 capability,
  40:C:/Users/stapi/OneDrive/Desktop/GD32VW553/V1_MQTT_OK/GD32VW55X_Wifi_BLE_SDK/GD32VW55x_RELEASE_V1.0.2/MSDK/wpa_supplicant/src/ap\ap_drv_ops.h **** 		    const u8 *supp_rates, size_t supp_rates_len,
  41:C:/Users/stapi/OneDrive/Desktop/GD32VW553/V1_MQTT_OK/GD32VW55X_Wifi_BLE_SDK/GD32VW55x_RELEASE_V1.0.2/MSDK/wpa_supplicant/src/ap\ap_drv_ops.h **** 		    u16 listen_interval,
  42:C:/Users/stapi/OneDrive/Desktop/GD32VW553/V1_MQTT_OK/GD32VW55X_Wifi_BLE_SDK/GD32VW55x_RELEASE_V1.0.2/MSDK/wpa_supplicant/src/ap\ap_drv_ops.h **** 		    const struct ieee80211_ht_capabilities *ht_capab,
  43:C:/Users/stapi/OneDrive/Desktop/GD32VW553/V1_MQTT_OK/GD32VW55X_Wifi_BLE_SDK/GD32VW55x_RELEASE_V1.0.2/MSDK/wpa_supplicant/src/ap\ap_drv_ops.h **** 		    const struct ieee80211_vht_capabilities *vht_capab,
  44:C:/Users/stapi/OneDrive/Desktop/GD32VW553/V1_MQTT_OK/GD32VW55X_Wifi_BLE_SDK/GD32VW55x_RELEASE_V1.0.2/MSDK/wpa_supplicant/src/ap\ap_drv_ops.h **** 		    const struct ieee80211_he_capabilities *he_capab,
  45:C:/Users/stapi/OneDrive/Desktop/GD32VW553/V1_MQTT_OK/GD32VW55X_Wifi_BLE_SDK/GD32VW55x_RELEASE_V1.0.2/MSDK/wpa_supplicant/src/ap\ap_drv_ops.h **** 		    size_t he_capab_len,
  46:C:/Users/stapi/OneDrive/Desktop/GD32VW553/V1_MQTT_OK/GD32VW55X_Wifi_BLE_SDK/GD32VW55x_RELEASE_V1.0.2/MSDK/wpa_supplicant/src/ap\ap_drv_ops.h **** 		    const struct ieee80211_he_6ghz_band_cap *he_6ghz_capab,
  47:C:/Users/stapi/OneDrive/Desktop/GD32VW553/V1_MQTT_OK/GD32VW55X_Wifi_BLE_SDK/GD32VW55x_RELEASE_V1.0.2/MSDK/wpa_supplicant/src/ap\ap_drv_ops.h **** 		    u32 flags, u8 qosinfo, u8 vht_opmode, int supp_p2p_ps,
  48:C:/Users/stapi/OneDrive/Desktop/GD32VW553/V1_MQTT_OK/GD32VW55X_Wifi_BLE_SDK/GD32VW55x_RELEASE_V1.0.2/MSDK/wpa_supplicant/src/ap\ap_drv_ops.h **** 		    int set);
  49:C:/Users/stapi/OneDrive/Desktop/GD32VW553/V1_MQTT_OK/GD32VW55X_Wifi_BLE_SDK/GD32VW55x_RELEASE_V1.0.2/MSDK/wpa_supplicant/src/ap\ap_drv_ops.h **** int hostapd_set_privacy(struct hostapd_data *hapd, int enabled);
  50:C:/Users/stapi/OneDrive/Desktop/GD32VW553/V1_MQTT_OK/GD32VW55X_Wifi_BLE_SDK/GD32VW55x_RELEASE_V1.0.2/MSDK/wpa_supplicant/src/ap\ap_drv_ops.h **** int hostapd_set_generic_elem(struct hostapd_data *hapd, const u8 *elem,
  51:C:/Users/stapi/OneDrive/Desktop/GD32VW553/V1_MQTT_OK/GD32VW55X_Wifi_BLE_SDK/GD32VW55x_RELEASE_V1.0.2/MSDK/wpa_supplicant/src/ap\ap_drv_ops.h **** 			     size_t elem_len);
  52:C:/Users/stapi/OneDrive/Desktop/GD32VW553/V1_MQTT_OK/GD32VW55X_Wifi_BLE_SDK/GD32VW55x_RELEASE_V1.0.2/MSDK/wpa_supplicant/src/ap\ap_drv_ops.h **** int hostapd_get_ssid(struct hostapd_data *hapd, u8 *buf, size_t len);
  53:C:/Users/stapi/OneDrive/Desktop/GD32VW553/V1_MQTT_OK/GD32VW55X_Wifi_BLE_SDK/GD32VW55x_RELEASE_V1.0.2/MSDK/wpa_supplicant/src/ap\ap_drv_ops.h **** int hostapd_set_ssid(struct hostapd_data *hapd, const u8 *buf, size_t len);
  54:C:/Users/stapi/OneDrive/Desktop/GD32VW553/V1_MQTT_OK/GD32VW55X_Wifi_BLE_SDK/GD32VW55x_RELEASE_V1.0.2/MSDK/wpa_supplicant/src/ap\ap_drv_ops.h **** int hostapd_if_add(struct hostapd_data *hapd, enum wpa_driver_if_type type,
  55:C:/Users/stapi/OneDrive/Desktop/GD32VW553/V1_MQTT_OK/GD32VW55X_Wifi_BLE_SDK/GD32VW55x_RELEASE_V1.0.2/MSDK/wpa_supplicant/src/ap\ap_drv_ops.h **** 		   const char *ifname, const u8 *addr, void *bss_ctx,
  56:C:/Users/stapi/OneDrive/Desktop/GD32VW553/V1_MQTT_OK/GD32VW55X_Wifi_BLE_SDK/GD32VW55x_RELEASE_V1.0.2/MSDK/wpa_supplicant/src/ap\ap_drv_ops.h **** 		   void **drv_priv, char *force_ifname, u8 *if_addr,
  57:C:/Users/stapi/OneDrive/Desktop/GD32VW553/V1_MQTT_OK/GD32VW55X_Wifi_BLE_SDK/GD32VW55x_RELEASE_V1.0.2/MSDK/wpa_supplicant/src/ap\ap_drv_ops.h **** 		   const char *bridge, int use_existing);
  58:C:/Users/stapi/OneDrive/Desktop/GD32VW553/V1_MQTT_OK/GD32VW55X_Wifi_BLE_SDK/GD32VW55x_RELEASE_V1.0.2/MSDK/wpa_supplicant/src/ap\ap_drv_ops.h **** int hostapd_if_remove(struct hostapd_data *hapd, enum wpa_driver_if_type type,
  59:C:/Users/stapi/OneDrive/Desktop/GD32VW553/V1_MQTT_OK/GD32VW55X_Wifi_BLE_SDK/GD32VW55x_RELEASE_V1.0.2/MSDK/wpa_supplicant/src/ap\ap_drv_ops.h **** 		      const char *ifname);
  60:C:/Users/stapi/OneDrive/Desktop/GD32VW553/V1_MQTT_OK/GD32VW55X_Wifi_BLE_SDK/GD32VW55x_RELEASE_V1.0.2/MSDK/wpa_supplicant/src/ap\ap_drv_ops.h **** int hostapd_set_ieee8021x(struct hostapd_data *hapd,
  61:C:/Users/stapi/OneDrive/Desktop/GD32VW553/V1_MQTT_OK/GD32VW55X_Wifi_BLE_SDK/GD32VW55x_RELEASE_V1.0.2/MSDK/wpa_supplicant/src/ap\ap_drv_ops.h **** 			  struct wpa_bss_params *params);
  62:C:/Users/stapi/OneDrive/Desktop/GD32VW553/V1_MQTT_OK/GD32VW55X_Wifi_BLE_SDK/GD32VW55x_RELEASE_V1.0.2/MSDK/wpa_supplicant/src/ap\ap_drv_ops.h **** int hostapd_get_seqnum(const char *ifname, struct hostapd_data *hapd,
  63:C:/Users/stapi/OneDrive/Desktop/GD32VW553/V1_MQTT_OK/GD32VW55X_Wifi_BLE_SDK/GD32VW55x_RELEASE_V1.0.2/MSDK/wpa_supplicant/src/ap\ap_drv_ops.h **** 		       const u8 *addr, int idx, u8 *seq);
  64:C:/Users/stapi/OneDrive/Desktop/GD32VW553/V1_MQTT_OK/GD32VW55X_Wifi_BLE_SDK/GD32VW55x_RELEASE_V1.0.2/MSDK/wpa_supplicant/src/ap\ap_drv_ops.h **** int hostapd_flush(struct hostapd_data *hapd);
  65:C:/Users/stapi/OneDrive/Desktop/GD32VW553/V1_MQTT_OK/GD32VW55X_Wifi_BLE_SDK/GD32VW55x_RELEASE_V1.0.2/MSDK/wpa_supplicant/src/ap\ap_drv_ops.h **** int hostapd_set_freq(struct hostapd_data *hapd, enum hostapd_hw_mode mode,
  66:C:/Users/stapi/OneDrive/Desktop/GD32VW553/V1_MQTT_OK/GD32VW55X_Wifi_BLE_SDK/GD32VW55x_RELEASE_V1.0.2/MSDK/wpa_supplicant/src/ap\ap_drv_ops.h **** 		     int freq, int channel, int edmg, u8 edmg_channel,
  67:C:/Users/stapi/OneDrive/Desktop/GD32VW553/V1_MQTT_OK/GD32VW55X_Wifi_BLE_SDK/GD32VW55x_RELEASE_V1.0.2/MSDK/wpa_supplicant/src/ap\ap_drv_ops.h **** 		     int ht_enabled, int vht_enabled,
  68:C:/Users/stapi/OneDrive/Desktop/GD32VW553/V1_MQTT_OK/GD32VW55X_Wifi_BLE_SDK/GD32VW55x_RELEASE_V1.0.2/MSDK/wpa_supplicant/src/ap\ap_drv_ops.h **** 		     int he_enabled, int sec_channel_offset, int oper_chwidth,
  69:C:/Users/stapi/OneDrive/Desktop/GD32VW553/V1_MQTT_OK/GD32VW55X_Wifi_BLE_SDK/GD32VW55x_RELEASE_V1.0.2/MSDK/wpa_supplicant/src/ap\ap_drv_ops.h **** 		     int center_segment0, int center_segment1);
  70:C:/Users/stapi/OneDrive/Desktop/GD32VW553/V1_MQTT_OK/GD32VW55X_Wifi_BLE_SDK/GD32VW55x_RELEASE_V1.0.2/MSDK/wpa_supplicant/src/ap\ap_drv_ops.h **** int hostapd_set_rts(struct hostapd_data *hapd, int rts);
  71:C:/Users/stapi/OneDrive/Desktop/GD32VW553/V1_MQTT_OK/GD32VW55X_Wifi_BLE_SDK/GD32VW55x_RELEASE_V1.0.2/MSDK/wpa_supplicant/src/ap\ap_drv_ops.h **** int hostapd_set_frag(struct hostapd_data *hapd, int frag);
  72:C:/Users/stapi/OneDrive/Desktop/GD32VW553/V1_MQTT_OK/GD32VW55X_Wifi_BLE_SDK/GD32VW55x_RELEASE_V1.0.2/MSDK/wpa_supplicant/src/ap\ap_drv_ops.h **** int hostapd_sta_set_flags(struct hostapd_data *hapd, u8 *addr,
  73:C:/Users/stapi/OneDrive/Desktop/GD32VW553/V1_MQTT_OK/GD32VW55X_Wifi_BLE_SDK/GD32VW55x_RELEASE_V1.0.2/MSDK/wpa_supplicant/src/ap\ap_drv_ops.h **** 			  int total_flags, int flags_or, int flags_and);
  74:C:/Users/stapi/OneDrive/Desktop/GD32VW553/V1_MQTT_OK/GD32VW55X_Wifi_BLE_SDK/GD32VW55x_RELEASE_V1.0.2/MSDK/wpa_supplicant/src/ap\ap_drv_ops.h **** int hostapd_sta_set_airtime_weight(struct hostapd_data *hapd, const u8 *addr,
  75:C:/Users/stapi/OneDrive/Desktop/GD32VW553/V1_MQTT_OK/GD32VW55X_Wifi_BLE_SDK/GD32VW55x_RELEASE_V1.0.2/MSDK/wpa_supplicant/src/ap\ap_drv_ops.h **** 				   unsigned int weight);
  76:C:/Users/stapi/OneDrive/Desktop/GD32VW553/V1_MQTT_OK/GD32VW55X_Wifi_BLE_SDK/GD32VW55x_RELEASE_V1.0.2/MSDK/wpa_supplicant/src/ap\ap_drv_ops.h **** int hostapd_set_country(struct hostapd_data *hapd, const char *country);
  77:C:/Users/stapi/OneDrive/Desktop/GD32VW553/V1_MQTT_OK/GD32VW55X_Wifi_BLE_SDK/GD32VW55x_RELEASE_V1.0.2/MSDK/wpa_supplicant/src/ap\ap_drv_ops.h **** int hostapd_set_tx_queue_params(struct hostapd_data *hapd, int queue, int aifs,
  78:C:/Users/stapi/OneDrive/Desktop/GD32VW553/V1_MQTT_OK/GD32VW55X_Wifi_BLE_SDK/GD32VW55x_RELEASE_V1.0.2/MSDK/wpa_supplicant/src/ap\ap_drv_ops.h **** 				int cw_min, int cw_max, int burst_time);
  79:C:/Users/stapi/OneDrive/Desktop/GD32VW553/V1_MQTT_OK/GD32VW55X_Wifi_BLE_SDK/GD32VW55x_RELEASE_V1.0.2/MSDK/wpa_supplicant/src/ap\ap_drv_ops.h **** struct hostapd_hw_modes *
  80:C:/Users/stapi/OneDrive/Desktop/GD32VW553/V1_MQTT_OK/GD32VW55X_Wifi_BLE_SDK/GD32VW55x_RELEASE_V1.0.2/MSDK/wpa_supplicant/src/ap\ap_drv_ops.h **** hostapd_get_hw_feature_data(struct hostapd_data *hapd, u16 *num_modes,
  81:C:/Users/stapi/OneDrive/Desktop/GD32VW553/V1_MQTT_OK/GD32VW55X_Wifi_BLE_SDK/GD32VW55x_RELEASE_V1.0.2/MSDK/wpa_supplicant/src/ap\ap_drv_ops.h **** 			    u16 *flags, u8 *dfs_domain);
  82:C:/Users/stapi/OneDrive/Desktop/GD32VW553/V1_MQTT_OK/GD32VW55X_Wifi_BLE_SDK/GD32VW55x_RELEASE_V1.0.2/MSDK/wpa_supplicant/src/ap\ap_drv_ops.h **** int hostapd_driver_commit(struct hostapd_data *hapd);
  83:C:/Users/stapi/OneDrive/Desktop/GD32VW553/V1_MQTT_OK/GD32VW55X_Wifi_BLE_SDK/GD32VW55x_RELEASE_V1.0.2/MSDK/wpa_supplicant/src/ap\ap_drv_ops.h **** int hostapd_drv_none(struct hostapd_data *hapd);
  84:C:/Users/stapi/OneDrive/Desktop/GD32VW553/V1_MQTT_OK/GD32VW55X_Wifi_BLE_SDK/GD32VW55x_RELEASE_V1.0.2/MSDK/wpa_supplicant/src/ap\ap_drv_ops.h **** bool hostapd_drv_nl80211(struct hostapd_data *hapd);
  85:C:/Users/stapi/OneDrive/Desktop/GD32VW553/V1_MQTT_OK/GD32VW55X_Wifi_BLE_SDK/GD32VW55x_RELEASE_V1.0.2/MSDK/wpa_supplicant/src/ap\ap_drv_ops.h **** int hostapd_driver_scan(struct hostapd_data *hapd,
  86:C:/Users/stapi/OneDrive/Desktop/GD32VW553/V1_MQTT_OK/GD32VW55X_Wifi_BLE_SDK/GD32VW55x_RELEASE_V1.0.2/MSDK/wpa_supplicant/src/ap\ap_drv_ops.h **** 			struct wpa_driver_scan_params *params);
  87:C:/Users/stapi/OneDrive/Desktop/GD32VW553/V1_MQTT_OK/GD32VW55X_Wifi_BLE_SDK/GD32VW55x_RELEASE_V1.0.2/MSDK/wpa_supplicant/src/ap\ap_drv_ops.h **** struct wpa_scan_results * hostapd_driver_get_scan_results(
  88:C:/Users/stapi/OneDrive/Desktop/GD32VW553/V1_MQTT_OK/GD32VW55X_Wifi_BLE_SDK/GD32VW55x_RELEASE_V1.0.2/MSDK/wpa_supplicant/src/ap\ap_drv_ops.h **** 	struct hostapd_data *hapd);
  89:C:/Users/stapi/OneDrive/Desktop/GD32VW553/V1_MQTT_OK/GD32VW55X_Wifi_BLE_SDK/GD32VW55x_RELEASE_V1.0.2/MSDK/wpa_supplicant/src/ap\ap_drv_ops.h **** int hostapd_driver_set_noa(struct hostapd_data *hapd, u8 count, int start,
  90:C:/Users/stapi/OneDrive/Desktop/GD32VW553/V1_MQTT_OK/GD32VW55X_Wifi_BLE_SDK/GD32VW55x_RELEASE_V1.0.2/MSDK/wpa_supplicant/src/ap\ap_drv_ops.h **** 			   int duration);
  91:C:/Users/stapi/OneDrive/Desktop/GD32VW553/V1_MQTT_OK/GD32VW55X_Wifi_BLE_SDK/GD32VW55x_RELEASE_V1.0.2/MSDK/wpa_supplicant/src/ap\ap_drv_ops.h **** int hostapd_drv_set_key(const char *ifname,
  92:C:/Users/stapi/OneDrive/Desktop/GD32VW553/V1_MQTT_OK/GD32VW55X_Wifi_BLE_SDK/GD32VW55x_RELEASE_V1.0.2/MSDK/wpa_supplicant/src/ap\ap_drv_ops.h **** 			struct hostapd_data *hapd,
  93:C:/Users/stapi/OneDrive/Desktop/GD32VW553/V1_MQTT_OK/GD32VW55X_Wifi_BLE_SDK/GD32VW55x_RELEASE_V1.0.2/MSDK/wpa_supplicant/src/ap\ap_drv_ops.h **** 			enum wpa_alg alg, const u8 *addr,
  94:C:/Users/stapi/OneDrive/Desktop/GD32VW553/V1_MQTT_OK/GD32VW55X_Wifi_BLE_SDK/GD32VW55x_RELEASE_V1.0.2/MSDK/wpa_supplicant/src/ap\ap_drv_ops.h **** 			int key_idx, int vlan_id, int set_tx,
  95:C:/Users/stapi/OneDrive/Desktop/GD32VW553/V1_MQTT_OK/GD32VW55X_Wifi_BLE_SDK/GD32VW55x_RELEASE_V1.0.2/MSDK/wpa_supplicant/src/ap\ap_drv_ops.h **** 			const u8 *seq, size_t seq_len,
  96:C:/Users/stapi/OneDrive/Desktop/GD32VW553/V1_MQTT_OK/GD32VW55X_Wifi_BLE_SDK/GD32VW55x_RELEASE_V1.0.2/MSDK/wpa_supplicant/src/ap\ap_drv_ops.h **** 			const u8 *key, size_t key_len, enum key_flag key_flag);
  97:C:/Users/stapi/OneDrive/Desktop/GD32VW553/V1_MQTT_OK/GD32VW55X_Wifi_BLE_SDK/GD32VW55x_RELEASE_V1.0.2/MSDK/wpa_supplicant/src/ap\ap_drv_ops.h **** int hostapd_drv_send_mlme(struct hostapd_data *hapd,
  98:C:/Users/stapi/OneDrive/Desktop/GD32VW553/V1_MQTT_OK/GD32VW55X_Wifi_BLE_SDK/GD32VW55x_RELEASE_V1.0.2/MSDK/wpa_supplicant/src/ap\ap_drv_ops.h **** 			  const void *msg, size_t len, int noack,
  99:C:/Users/stapi/OneDrive/Desktop/GD32VW553/V1_MQTT_OK/GD32VW55X_Wifi_BLE_SDK/GD32VW55x_RELEASE_V1.0.2/MSDK/wpa_supplicant/src/ap\ap_drv_ops.h **** 			  const u16 *csa_offs, size_t csa_offs_len,
 100:C:/Users/stapi/OneDrive/Desktop/GD32VW553/V1_MQTT_OK/GD32VW55X_Wifi_BLE_SDK/GD32VW55x_RELEASE_V1.0.2/MSDK/wpa_supplicant/src/ap\ap_drv_ops.h **** 			  int no_encrypt);
 101:C:/Users/stapi/OneDrive/Desktop/GD32VW553/V1_MQTT_OK/GD32VW55X_Wifi_BLE_SDK/GD32VW55x_RELEASE_V1.0.2/MSDK/wpa_supplicant/src/ap\ap_drv_ops.h **** int hostapd_drv_sta_deauth(struct hostapd_data *hapd,
 102:C:/Users/stapi/OneDrive/Desktop/GD32VW553/V1_MQTT_OK/GD32VW55X_Wifi_BLE_SDK/GD32VW55x_RELEASE_V1.0.2/MSDK/wpa_supplicant/src/ap\ap_drv_ops.h **** 			   const u8 *addr, int reason);
 103:C:/Users/stapi/OneDrive/Desktop/GD32VW553/V1_MQTT_OK/GD32VW55X_Wifi_BLE_SDK/GD32VW55x_RELEASE_V1.0.2/MSDK/wpa_supplicant/src/ap\ap_drv_ops.h **** int hostapd_drv_sta_disassoc(struct hostapd_data *hapd,
 104:C:/Users/stapi/OneDrive/Desktop/GD32VW553/V1_MQTT_OK/GD32VW55X_Wifi_BLE_SDK/GD32VW55x_RELEASE_V1.0.2/MSDK/wpa_supplicant/src/ap\ap_drv_ops.h **** 			     const u8 *addr, int reason);
 105:C:/Users/stapi/OneDrive/Desktop/GD32VW553/V1_MQTT_OK/GD32VW55X_Wifi_BLE_SDK/GD32VW55x_RELEASE_V1.0.2/MSDK/wpa_supplicant/src/ap\ap_drv_ops.h **** int hostapd_drv_send_action(struct hostapd_data *hapd, unsigned int freq,
 106:C:/Users/stapi/OneDrive/Desktop/GD32VW553/V1_MQTT_OK/GD32VW55X_Wifi_BLE_SDK/GD32VW55x_RELEASE_V1.0.2/MSDK/wpa_supplicant/src/ap\ap_drv_ops.h **** 			    unsigned int wait, const u8 *dst, const u8 *data,
 107:C:/Users/stapi/OneDrive/Desktop/GD32VW553/V1_MQTT_OK/GD32VW55X_Wifi_BLE_SDK/GD32VW55x_RELEASE_V1.0.2/MSDK/wpa_supplicant/src/ap\ap_drv_ops.h **** 			    size_t len);
 108:C:/Users/stapi/OneDrive/Desktop/GD32VW553/V1_MQTT_OK/GD32VW55X_Wifi_BLE_SDK/GD32VW55x_RELEASE_V1.0.2/MSDK/wpa_supplicant/src/ap\ap_drv_ops.h **** int hostapd_drv_send_action_addr3_ap(struct hostapd_data *hapd,
 109:C:/Users/stapi/OneDrive/Desktop/GD32VW553/V1_MQTT_OK/GD32VW55X_Wifi_BLE_SDK/GD32VW55x_RELEASE_V1.0.2/MSDK/wpa_supplicant/src/ap\ap_drv_ops.h **** 				     unsigned int freq,
 110:C:/Users/stapi/OneDrive/Desktop/GD32VW553/V1_MQTT_OK/GD32VW55X_Wifi_BLE_SDK/GD32VW55x_RELEASE_V1.0.2/MSDK/wpa_supplicant/src/ap\ap_drv_ops.h **** 				     unsigned int wait, const u8 *dst,
 111:C:/Users/stapi/OneDrive/Desktop/GD32VW553/V1_MQTT_OK/GD32VW55X_Wifi_BLE_SDK/GD32VW55x_RELEASE_V1.0.2/MSDK/wpa_supplicant/src/ap\ap_drv_ops.h **** 				     const u8 *data, size_t len);
 112:C:/Users/stapi/OneDrive/Desktop/GD32VW553/V1_MQTT_OK/GD32VW55X_Wifi_BLE_SDK/GD32VW55x_RELEASE_V1.0.2/MSDK/wpa_supplicant/src/ap\ap_drv_ops.h **** static inline void
 113:C:/Users/stapi/OneDrive/Desktop/GD32VW553/V1_MQTT_OK/GD32VW55X_Wifi_BLE_SDK/GD32VW55x_RELEASE_V1.0.2/MSDK/wpa_supplicant/src/ap\ap_drv_ops.h **** hostapd_drv_send_action_cancel_wait(struct hostapd_data *hapd)
 114:C:/Users/stapi/OneDrive/Desktop/GD32VW553/V1_MQTT_OK/GD32VW55X_Wifi_BLE_SDK/GD32VW55x_RELEASE_V1.0.2/MSDK/wpa_supplicant/src/ap\ap_drv_ops.h **** {
 115:C:/Users/stapi/OneDrive/Desktop/GD32VW553/V1_MQTT_OK/GD32VW55X_Wifi_BLE_SDK/GD32VW55x_RELEASE_V1.0.2/MSDK/wpa_supplicant/src/ap\ap_drv_ops.h **** 	if (!hapd->driver || !hapd->driver->send_action_cancel_wait ||
 116:C:/Users/stapi/OneDrive/Desktop/GD32VW553/V1_MQTT_OK/GD32VW55X_Wifi_BLE_SDK/GD32VW55x_RELEASE_V1.0.2/MSDK/wpa_supplicant/src/ap\ap_drv_ops.h **** 	    !hapd->drv_priv)
 117:C:/Users/stapi/OneDrive/Desktop/GD32VW553/V1_MQTT_OK/GD32VW55X_Wifi_BLE_SDK/GD32VW55x_RELEASE_V1.0.2/MSDK/wpa_supplicant/src/ap\ap_drv_ops.h **** 		return;
 118:C:/Users/stapi/OneDrive/Desktop/GD32VW553/V1_MQTT_OK/GD32VW55X_Wifi_BLE_SDK/GD32VW55x_RELEASE_V1.0.2/MSDK/wpa_supplicant/src/ap\ap_drv_ops.h **** 	hapd->driver->send_action_cancel_wait(hapd->drv_priv);
 119:C:/Users/stapi/OneDrive/Desktop/GD32VW553/V1_MQTT_OK/GD32VW55X_Wifi_BLE_SDK/GD32VW55x_RELEASE_V1.0.2/MSDK/wpa_supplicant/src/ap\ap_drv_ops.h **** }
 120:C:/Users/stapi/OneDrive/Desktop/GD32VW553/V1_MQTT_OK/GD32VW55X_Wifi_BLE_SDK/GD32VW55x_RELEASE_V1.0.2/MSDK/wpa_supplicant/src/ap\ap_drv_ops.h **** int hostapd_add_sta_node(struct hostapd_data *hapd, const u8 *addr,
 121:C:/Users/stapi/OneDrive/Desktop/GD32VW553/V1_MQTT_OK/GD32VW55X_Wifi_BLE_SDK/GD32VW55x_RELEASE_V1.0.2/MSDK/wpa_supplicant/src/ap\ap_drv_ops.h **** 			 u16 auth_alg);
 122:C:/Users/stapi/OneDrive/Desktop/GD32VW553/V1_MQTT_OK/GD32VW55X_Wifi_BLE_SDK/GD32VW55x_RELEASE_V1.0.2/MSDK/wpa_supplicant/src/ap\ap_drv_ops.h **** int hostapd_sta_auth(struct hostapd_data *hapd, const u8 *addr,
 123:C:/Users/stapi/OneDrive/Desktop/GD32VW553/V1_MQTT_OK/GD32VW55X_Wifi_BLE_SDK/GD32VW55x_RELEASE_V1.0.2/MSDK/wpa_supplicant/src/ap\ap_drv_ops.h **** 		     u16 seq, u16 status, const u8 *ie, size_t len);
 124:C:/Users/stapi/OneDrive/Desktop/GD32VW553/V1_MQTT_OK/GD32VW55X_Wifi_BLE_SDK/GD32VW55x_RELEASE_V1.0.2/MSDK/wpa_supplicant/src/ap\ap_drv_ops.h **** int hostapd_sta_assoc(struct hostapd_data *hapd, const u8 *addr,
 125:C:/Users/stapi/OneDrive/Desktop/GD32VW553/V1_MQTT_OK/GD32VW55X_Wifi_BLE_SDK/GD32VW55x_RELEASE_V1.0.2/MSDK/wpa_supplicant/src/ap\ap_drv_ops.h **** 		      int reassoc, u16 status, const u8 *ie, size_t len);
 126:C:/Users/stapi/OneDrive/Desktop/GD32VW553/V1_MQTT_OK/GD32VW55X_Wifi_BLE_SDK/GD32VW55x_RELEASE_V1.0.2/MSDK/wpa_supplicant/src/ap\ap_drv_ops.h **** int hostapd_add_tspec(struct hostapd_data *hapd, const u8 *addr,
 127:C:/Users/stapi/OneDrive/Desktop/GD32VW553/V1_MQTT_OK/GD32VW55X_Wifi_BLE_SDK/GD32VW55x_RELEASE_V1.0.2/MSDK/wpa_supplicant/src/ap\ap_drv_ops.h **** 		      u8 *tspec_ie, size_t tspec_ielen);
 128:C:/Users/stapi/OneDrive/Desktop/GD32VW553/V1_MQTT_OK/GD32VW55X_Wifi_BLE_SDK/GD32VW55x_RELEASE_V1.0.2/MSDK/wpa_supplicant/src/ap\ap_drv_ops.h **** int hostapd_start_dfs_cac(struct hostapd_iface *iface,
 129:C:/Users/stapi/OneDrive/Desktop/GD32VW553/V1_MQTT_OK/GD32VW55X_Wifi_BLE_SDK/GD32VW55x_RELEASE_V1.0.2/MSDK/wpa_supplicant/src/ap\ap_drv_ops.h **** 			  enum hostapd_hw_mode mode, int freq,
 130:C:/Users/stapi/OneDrive/Desktop/GD32VW553/V1_MQTT_OK/GD32VW55X_Wifi_BLE_SDK/GD32VW55x_RELEASE_V1.0.2/MSDK/wpa_supplicant/src/ap\ap_drv_ops.h **** 			  int channel, int ht_enabled, int vht_enabled,
 131:C:/Users/stapi/OneDrive/Desktop/GD32VW553/V1_MQTT_OK/GD32VW55X_Wifi_BLE_SDK/GD32VW55x_RELEASE_V1.0.2/MSDK/wpa_supplicant/src/ap\ap_drv_ops.h **** 			  int he_enabled,
 132:C:/Users/stapi/OneDrive/Desktop/GD32VW553/V1_MQTT_OK/GD32VW55X_Wifi_BLE_SDK/GD32VW55x_RELEASE_V1.0.2/MSDK/wpa_supplicant/src/ap\ap_drv_ops.h **** 			  int sec_channel_offset, int oper_chwidth,
 133:C:/Users/stapi/OneDrive/Desktop/GD32VW553/V1_MQTT_OK/GD32VW55X_Wifi_BLE_SDK/GD32VW55x_RELEASE_V1.0.2/MSDK/wpa_supplicant/src/ap\ap_drv_ops.h **** 			  int center_segment0, int center_segment1);
 134:C:/Users/stapi/OneDrive/Desktop/GD32VW553/V1_MQTT_OK/GD32VW55X_Wifi_BLE_SDK/GD32VW55x_RELEASE_V1.0.2/MSDK/wpa_supplicant/src/ap\ap_drv_ops.h **** int hostapd_drv_do_acs(struct hostapd_data *hapd);
 135:C:/Users/stapi/OneDrive/Desktop/GD32VW553/V1_MQTT_OK/GD32VW55X_Wifi_BLE_SDK/GD32VW55x_RELEASE_V1.0.2/MSDK/wpa_supplicant/src/ap\ap_drv_ops.h **** int hostapd_drv_update_dh_ie(struct hostapd_data *hapd, const u8 *peer,
 136:C:/Users/stapi/OneDrive/Desktop/GD32VW553/V1_MQTT_OK/GD32VW55X_Wifi_BLE_SDK/GD32VW55x_RELEASE_V1.0.2/MSDK/wpa_supplicant/src/ap\ap_drv_ops.h **** 			     u16 reason_code, const u8 *ie, size_t ielen);
 137:C:/Users/stapi/OneDrive/Desktop/GD32VW553/V1_MQTT_OK/GD32VW55X_Wifi_BLE_SDK/GD32VW55x_RELEASE_V1.0.2/MSDK/wpa_supplicant/src/ap\ap_drv_ops.h **** int hostapd_drv_dpp_listen(struct hostapd_data *hapd, bool enable);
 138:C:/Users/stapi/OneDrive/Desktop/GD32VW553/V1_MQTT_OK/GD32VW55X_Wifi_BLE_SDK/GD32VW55x_RELEASE_V1.0.2/MSDK/wpa_supplicant/src/ap\ap_drv_ops.h **** 
 139:C:/Users/stapi/OneDrive/Desktop/GD32VW553/V1_MQTT_OK/GD32VW55X_Wifi_BLE_SDK/GD32VW55x_RELEASE_V1.0.2/MSDK/wpa_supplicant/src/ap\ap_drv_ops.h **** 
 140:C:/Users/stapi/OneDrive/Desktop/GD32VW553/V1_MQTT_OK/GD32VW55X_Wifi_BLE_SDK/GD32VW55x_RELEASE_V1.0.2/MSDK/wpa_supplicant/src/ap\ap_drv_ops.h **** #include "drivers/driver.h"
 141:C:/Users/stapi/OneDrive/Desktop/GD32VW553/V1_MQTT_OK/GD32VW55X_Wifi_BLE_SDK/GD32VW55x_RELEASE_V1.0.2/MSDK/wpa_supplicant/src/ap\ap_drv_ops.h **** 
 142:C:/Users/stapi/OneDrive/Desktop/GD32VW553/V1_MQTT_OK/GD32VW55X_Wifi_BLE_SDK/GD32VW55x_RELEASE_V1.0.2/MSDK/wpa_supplicant/src/ap\ap_drv_ops.h **** int hostapd_drv_wnm_oper(struct hostapd_data *hapd,
 143:C:/Users/stapi/OneDrive/Desktop/GD32VW553/V1_MQTT_OK/GD32VW55X_Wifi_BLE_SDK/GD32VW55x_RELEASE_V1.0.2/MSDK/wpa_supplicant/src/ap\ap_drv_ops.h **** 			 enum wnm_oper oper, const u8 *peer,
 144:C:/Users/stapi/OneDrive/Desktop/GD32VW553/V1_MQTT_OK/GD32VW55X_Wifi_BLE_SDK/GD32VW55x_RELEASE_V1.0.2/MSDK/wpa_supplicant/src/ap\ap_drv_ops.h **** 			 u8 *buf, u16 *buf_len);
 145:C:/Users/stapi/OneDrive/Desktop/GD32VW553/V1_MQTT_OK/GD32VW55X_Wifi_BLE_SDK/GD32VW55x_RELEASE_V1.0.2/MSDK/wpa_supplicant/src/ap\ap_drv_ops.h **** 
 146:C:/Users/stapi/OneDrive/Desktop/GD32VW553/V1_MQTT_OK/GD32VW55X_Wifi_BLE_SDK/GD32VW55x_RELEASE_V1.0.2/MSDK/wpa_supplicant/src/ap\ap_drv_ops.h **** int hostapd_drv_set_qos_map(struct hostapd_data *hapd, const u8 *qos_map_set,
 147:C:/Users/stapi/OneDrive/Desktop/GD32VW553/V1_MQTT_OK/GD32VW55X_Wifi_BLE_SDK/GD32VW55x_RELEASE_V1.0.2/MSDK/wpa_supplicant/src/ap\ap_drv_ops.h **** 			    u8 qos_map_set_len);
 148:C:/Users/stapi/OneDrive/Desktop/GD32VW553/V1_MQTT_OK/GD32VW55X_Wifi_BLE_SDK/GD32VW55x_RELEASE_V1.0.2/MSDK/wpa_supplicant/src/ap\ap_drv_ops.h **** 
 149:C:/Users/stapi/OneDrive/Desktop/GD32VW553/V1_MQTT_OK/GD32VW55X_Wifi_BLE_SDK/GD32VW55x_RELEASE_V1.0.2/MSDK/wpa_supplicant/src/ap\ap_drv_ops.h **** void hostapd_get_ext_capa(struct hostapd_iface *iface);
 150:C:/Users/stapi/OneDrive/Desktop/GD32VW553/V1_MQTT_OK/GD32VW55X_Wifi_BLE_SDK/GD32VW55x_RELEASE_V1.0.2/MSDK/wpa_supplicant/src/ap\ap_drv_ops.h **** 
 151:C:/Users/stapi/OneDrive/Desktop/GD32VW553/V1_MQTT_OK/GD32VW55X_Wifi_BLE_SDK/GD32VW55x_RELEASE_V1.0.2/MSDK/wpa_supplicant/src/ap\ap_drv_ops.h **** static inline int hostapd_drv_set_countermeasures(struct hostapd_data *hapd,
 152:C:/Users/stapi/OneDrive/Desktop/GD32VW553/V1_MQTT_OK/GD32VW55X_Wifi_BLE_SDK/GD32VW55x_RELEASE_V1.0.2/MSDK/wpa_supplicant/src/ap\ap_drv_ops.h **** 						  int enabled)
 153:C:/Users/stapi/OneDrive/Desktop/GD32VW553/V1_MQTT_OK/GD32VW55X_Wifi_BLE_SDK/GD32VW55x_RELEASE_V1.0.2/MSDK/wpa_supplicant/src/ap\ap_drv_ops.h **** {
 154:C:/Users/stapi/OneDrive/Desktop/GD32VW553/V1_MQTT_OK/GD32VW55X_Wifi_BLE_SDK/GD32VW55x_RELEASE_V1.0.2/MSDK/wpa_supplicant/src/ap\ap_drv_ops.h **** 	if (hapd->driver == NULL ||
 155:C:/Users/stapi/OneDrive/Desktop/GD32VW553/V1_MQTT_OK/GD32VW55X_Wifi_BLE_SDK/GD32VW55x_RELEASE_V1.0.2/MSDK/wpa_supplicant/src/ap\ap_drv_ops.h **** 	    hapd->driver->hapd_set_countermeasures == NULL)
 156:C:/Users/stapi/OneDrive/Desktop/GD32VW553/V1_MQTT_OK/GD32VW55X_Wifi_BLE_SDK/GD32VW55x_RELEASE_V1.0.2/MSDK/wpa_supplicant/src/ap\ap_drv_ops.h **** 		return 0;
 157:C:/Users/stapi/OneDrive/Desktop/GD32VW553/V1_MQTT_OK/GD32VW55X_Wifi_BLE_SDK/GD32VW55x_RELEASE_V1.0.2/MSDK/wpa_supplicant/src/ap\ap_drv_ops.h **** 	return hapd->driver->hapd_set_countermeasures(hapd->drv_priv, enabled);
 158:C:/Users/stapi/OneDrive/Desktop/GD32VW553/V1_MQTT_OK/GD32VW55X_Wifi_BLE_SDK/GD32VW55x_RELEASE_V1.0.2/MSDK/wpa_supplicant/src/ap\ap_drv_ops.h **** }
 159:C:/Users/stapi/OneDrive/Desktop/GD32VW553/V1_MQTT_OK/GD32VW55X_Wifi_BLE_SDK/GD32VW55x_RELEASE_V1.0.2/MSDK/wpa_supplicant/src/ap\ap_drv_ops.h **** 
 160:C:/Users/stapi/OneDrive/Desktop/GD32VW553/V1_MQTT_OK/GD32VW55X_Wifi_BLE_SDK/GD32VW55x_RELEASE_V1.0.2/MSDK/wpa_supplicant/src/ap\ap_drv_ops.h **** static inline int hostapd_drv_set_sta_vlan(const char *ifname,
 161:C:/Users/stapi/OneDrive/Desktop/GD32VW553/V1_MQTT_OK/GD32VW55X_Wifi_BLE_SDK/GD32VW55x_RELEASE_V1.0.2/MSDK/wpa_supplicant/src/ap\ap_drv_ops.h **** 					   struct hostapd_data *hapd,
 162:C:/Users/stapi/OneDrive/Desktop/GD32VW553/V1_MQTT_OK/GD32VW55X_Wifi_BLE_SDK/GD32VW55x_RELEASE_V1.0.2/MSDK/wpa_supplicant/src/ap\ap_drv_ops.h **** 					   const u8 *addr, int vlan_id)
 163:C:/Users/stapi/OneDrive/Desktop/GD32VW553/V1_MQTT_OK/GD32VW55X_Wifi_BLE_SDK/GD32VW55x_RELEASE_V1.0.2/MSDK/wpa_supplicant/src/ap\ap_drv_ops.h **** {
 164:C:/Users/stapi/OneDrive/Desktop/GD32VW553/V1_MQTT_OK/GD32VW55X_Wifi_BLE_SDK/GD32VW55x_RELEASE_V1.0.2/MSDK/wpa_supplicant/src/ap\ap_drv_ops.h **** 	if (hapd->driver == NULL || hapd->driver->set_sta_vlan == NULL)
 165:C:/Users/stapi/OneDrive/Desktop/GD32VW553/V1_MQTT_OK/GD32VW55X_Wifi_BLE_SDK/GD32VW55x_RELEASE_V1.0.2/MSDK/wpa_supplicant/src/ap\ap_drv_ops.h **** 		return 0;
 166:C:/Users/stapi/OneDrive/Desktop/GD32VW553/V1_MQTT_OK/GD32VW55X_Wifi_BLE_SDK/GD32VW55x_RELEASE_V1.0.2/MSDK/wpa_supplicant/src/ap\ap_drv_ops.h **** 	return hapd->driver->set_sta_vlan(hapd->drv_priv, addr, ifname,
 167:C:/Users/stapi/OneDrive/Desktop/GD32VW553/V1_MQTT_OK/GD32VW55X_Wifi_BLE_SDK/GD32VW55x_RELEASE_V1.0.2/MSDK/wpa_supplicant/src/ap\ap_drv_ops.h **** 					  vlan_id);
 168:C:/Users/stapi/OneDrive/Desktop/GD32VW553/V1_MQTT_OK/GD32VW55X_Wifi_BLE_SDK/GD32VW55x_RELEASE_V1.0.2/MSDK/wpa_supplicant/src/ap\ap_drv_ops.h **** }
 169:C:/Users/stapi/OneDrive/Desktop/GD32VW553/V1_MQTT_OK/GD32VW55X_Wifi_BLE_SDK/GD32VW55x_RELEASE_V1.0.2/MSDK/wpa_supplicant/src/ap\ap_drv_ops.h **** 
 170:C:/Users/stapi/OneDrive/Desktop/GD32VW553/V1_MQTT_OK/GD32VW55X_Wifi_BLE_SDK/GD32VW55x_RELEASE_V1.0.2/MSDK/wpa_supplicant/src/ap\ap_drv_ops.h **** static inline int hostapd_drv_get_inact_sec(struct hostapd_data *hapd,
 171:C:/Users/stapi/OneDrive/Desktop/GD32VW553/V1_MQTT_OK/GD32VW55X_Wifi_BLE_SDK/GD32VW55x_RELEASE_V1.0.2/MSDK/wpa_supplicant/src/ap\ap_drv_ops.h **** 					    const u8 *addr)
 172:C:/Users/stapi/OneDrive/Desktop/GD32VW553/V1_MQTT_OK/GD32VW55X_Wifi_BLE_SDK/GD32VW55x_RELEASE_V1.0.2/MSDK/wpa_supplicant/src/ap\ap_drv_ops.h **** {
 173:C:/Users/stapi/OneDrive/Desktop/GD32VW553/V1_MQTT_OK/GD32VW55X_Wifi_BLE_SDK/GD32VW55x_RELEASE_V1.0.2/MSDK/wpa_supplicant/src/ap\ap_drv_ops.h **** 	if (hapd->driver == NULL || hapd->driver->get_inact_sec == NULL)
 174:C:/Users/stapi/OneDrive/Desktop/GD32VW553/V1_MQTT_OK/GD32VW55X_Wifi_BLE_SDK/GD32VW55x_RELEASE_V1.0.2/MSDK/wpa_supplicant/src/ap\ap_drv_ops.h **** 		return 0;
 175:C:/Users/stapi/OneDrive/Desktop/GD32VW553/V1_MQTT_OK/GD32VW55X_Wifi_BLE_SDK/GD32VW55x_RELEASE_V1.0.2/MSDK/wpa_supplicant/src/ap\ap_drv_ops.h **** 	return hapd->driver->get_inact_sec(hapd->drv_priv, addr);
 176:C:/Users/stapi/OneDrive/Desktop/GD32VW553/V1_MQTT_OK/GD32VW55X_Wifi_BLE_SDK/GD32VW55x_RELEASE_V1.0.2/MSDK/wpa_supplicant/src/ap\ap_drv_ops.h **** }
 177:C:/Users/stapi/OneDrive/Desktop/GD32VW553/V1_MQTT_OK/GD32VW55X_Wifi_BLE_SDK/GD32VW55x_RELEASE_V1.0.2/MSDK/wpa_supplicant/src/ap\ap_drv_ops.h **** 
 178:C:/Users/stapi/OneDrive/Desktop/GD32VW553/V1_MQTT_OK/GD32VW55X_Wifi_BLE_SDK/GD32VW55x_RELEASE_V1.0.2/MSDK/wpa_supplicant/src/ap\ap_drv_ops.h **** static inline int hostapd_drv_sta_remove(struct hostapd_data *hapd,
 179:C:/Users/stapi/OneDrive/Desktop/GD32VW553/V1_MQTT_OK/GD32VW55X_Wifi_BLE_SDK/GD32VW55x_RELEASE_V1.0.2/MSDK/wpa_supplicant/src/ap\ap_drv_ops.h **** 					 const u8 *addr)
 180:C:/Users/stapi/OneDrive/Desktop/GD32VW553/V1_MQTT_OK/GD32VW55X_Wifi_BLE_SDK/GD32VW55x_RELEASE_V1.0.2/MSDK/wpa_supplicant/src/ap\ap_drv_ops.h **** {
 181:C:/Users/stapi/OneDrive/Desktop/GD32VW553/V1_MQTT_OK/GD32VW55X_Wifi_BLE_SDK/GD32VW55x_RELEASE_V1.0.2/MSDK/wpa_supplicant/src/ap\ap_drv_ops.h **** 	if (!hapd->driver || !hapd->driver->sta_remove || !hapd->drv_priv)
 182:C:/Users/stapi/OneDrive/Desktop/GD32VW553/V1_MQTT_OK/GD32VW55X_Wifi_BLE_SDK/GD32VW55x_RELEASE_V1.0.2/MSDK/wpa_supplicant/src/ap\ap_drv_ops.h **** 		return 0;
 183:C:/Users/stapi/OneDrive/Desktop/GD32VW553/V1_MQTT_OK/GD32VW55X_Wifi_BLE_SDK/GD32VW55x_RELEASE_V1.0.2/MSDK/wpa_supplicant/src/ap\ap_drv_ops.h **** 	return hapd->driver->sta_remove(hapd->drv_priv, addr);
 184:C:/Users/stapi/OneDrive/Desktop/GD32VW553/V1_MQTT_OK/GD32VW55X_Wifi_BLE_SDK/GD32VW55x_RELEASE_V1.0.2/MSDK/wpa_supplicant/src/ap\ap_drv_ops.h **** }
 185:C:/Users/stapi/OneDrive/Desktop/GD32VW553/V1_MQTT_OK/GD32VW55X_Wifi_BLE_SDK/GD32VW55x_RELEASE_V1.0.2/MSDK/wpa_supplicant/src/ap\ap_drv_ops.h **** 
 186:C:/Users/stapi/OneDrive/Desktop/GD32VW553/V1_MQTT_OK/GD32VW55X_Wifi_BLE_SDK/GD32VW55x_RELEASE_V1.0.2/MSDK/wpa_supplicant/src/ap\ap_drv_ops.h **** static inline int hostapd_drv_hapd_send_eapol(struct hostapd_data *hapd,
 187:C:/Users/stapi/OneDrive/Desktop/GD32VW553/V1_MQTT_OK/GD32VW55X_Wifi_BLE_SDK/GD32VW55x_RELEASE_V1.0.2/MSDK/wpa_supplicant/src/ap\ap_drv_ops.h **** 					      const u8 *addr, const u8 *data,
 188:C:/Users/stapi/OneDrive/Desktop/GD32VW553/V1_MQTT_OK/GD32VW55X_Wifi_BLE_SDK/GD32VW55x_RELEASE_V1.0.2/MSDK/wpa_supplicant/src/ap\ap_drv_ops.h **** 					      size_t data_len, int encrypt,
 189:C:/Users/stapi/OneDrive/Desktop/GD32VW553/V1_MQTT_OK/GD32VW55X_Wifi_BLE_SDK/GD32VW55x_RELEASE_V1.0.2/MSDK/wpa_supplicant/src/ap\ap_drv_ops.h **** 					      u32 flags)
 190:C:/Users/stapi/OneDrive/Desktop/GD32VW553/V1_MQTT_OK/GD32VW55X_Wifi_BLE_SDK/GD32VW55x_RELEASE_V1.0.2/MSDK/wpa_supplicant/src/ap\ap_drv_ops.h **** {
 191:C:/Users/stapi/OneDrive/Desktop/GD32VW553/V1_MQTT_OK/GD32VW55X_Wifi_BLE_SDK/GD32VW55x_RELEASE_V1.0.2/MSDK/wpa_supplicant/src/ap\ap_drv_ops.h **** 	if (hapd->driver == NULL || hapd->driver->hapd_send_eapol == NULL)
 192:C:/Users/stapi/OneDrive/Desktop/GD32VW553/V1_MQTT_OK/GD32VW55X_Wifi_BLE_SDK/GD32VW55x_RELEASE_V1.0.2/MSDK/wpa_supplicant/src/ap\ap_drv_ops.h **** 		return 0;
 193:C:/Users/stapi/OneDrive/Desktop/GD32VW553/V1_MQTT_OK/GD32VW55X_Wifi_BLE_SDK/GD32VW55x_RELEASE_V1.0.2/MSDK/wpa_supplicant/src/ap\ap_drv_ops.h **** 	return hapd->driver->hapd_send_eapol(hapd->drv_priv, addr, data,
 194:C:/Users/stapi/OneDrive/Desktop/GD32VW553/V1_MQTT_OK/GD32VW55X_Wifi_BLE_SDK/GD32VW55x_RELEASE_V1.0.2/MSDK/wpa_supplicant/src/ap\ap_drv_ops.h **** 					     data_len, encrypt,
 195:C:/Users/stapi/OneDrive/Desktop/GD32VW553/V1_MQTT_OK/GD32VW55X_Wifi_BLE_SDK/GD32VW55x_RELEASE_V1.0.2/MSDK/wpa_supplicant/src/ap\ap_drv_ops.h **** 					     hapd->own_addr, flags);
 196:C:/Users/stapi/OneDrive/Desktop/GD32VW553/V1_MQTT_OK/GD32VW55X_Wifi_BLE_SDK/GD32VW55x_RELEASE_V1.0.2/MSDK/wpa_supplicant/src/ap\ap_drv_ops.h **** }
 197:C:/Users/stapi/OneDrive/Desktop/GD32VW553/V1_MQTT_OK/GD32VW55X_Wifi_BLE_SDK/GD32VW55x_RELEASE_V1.0.2/MSDK/wpa_supplicant/src/ap\ap_drv_ops.h **** 
 198:C:/Users/stapi/OneDrive/Desktop/GD32VW553/V1_MQTT_OK/GD32VW55X_Wifi_BLE_SDK/GD32VW55x_RELEASE_V1.0.2/MSDK/wpa_supplicant/src/ap\ap_drv_ops.h **** static inline int hostapd_drv_read_sta_data(
 199:C:/Users/stapi/OneDrive/Desktop/GD32VW553/V1_MQTT_OK/GD32VW55X_Wifi_BLE_SDK/GD32VW55x_RELEASE_V1.0.2/MSDK/wpa_supplicant/src/ap\ap_drv_ops.h **** 	struct hostapd_data *hapd, struct hostap_sta_driver_data *data,
 200:C:/Users/stapi/OneDrive/Desktop/GD32VW553/V1_MQTT_OK/GD32VW55X_Wifi_BLE_SDK/GD32VW55x_RELEASE_V1.0.2/MSDK/wpa_supplicant/src/ap\ap_drv_ops.h **** 	const u8 *addr)
 201:C:/Users/stapi/OneDrive/Desktop/GD32VW553/V1_MQTT_OK/GD32VW55X_Wifi_BLE_SDK/GD32VW55x_RELEASE_V1.0.2/MSDK/wpa_supplicant/src/ap\ap_drv_ops.h **** {
 202:C:/Users/stapi/OneDrive/Desktop/GD32VW553/V1_MQTT_OK/GD32VW55X_Wifi_BLE_SDK/GD32VW55x_RELEASE_V1.0.2/MSDK/wpa_supplicant/src/ap\ap_drv_ops.h **** 	if (hapd->driver == NULL || hapd->driver->read_sta_data == NULL)
 203:C:/Users/stapi/OneDrive/Desktop/GD32VW553/V1_MQTT_OK/GD32VW55X_Wifi_BLE_SDK/GD32VW55x_RELEASE_V1.0.2/MSDK/wpa_supplicant/src/ap\ap_drv_ops.h **** 		return -1;
 204:C:/Users/stapi/OneDrive/Desktop/GD32VW553/V1_MQTT_OK/GD32VW55X_Wifi_BLE_SDK/GD32VW55x_RELEASE_V1.0.2/MSDK/wpa_supplicant/src/ap\ap_drv_ops.h **** 	return hapd->driver->read_sta_data(hapd->drv_priv, data, addr);
 205:C:/Users/stapi/OneDrive/Desktop/GD32VW553/V1_MQTT_OK/GD32VW55X_Wifi_BLE_SDK/GD32VW55x_RELEASE_V1.0.2/MSDK/wpa_supplicant/src/ap\ap_drv_ops.h **** }
 206:C:/Users/stapi/OneDrive/Desktop/GD32VW553/V1_MQTT_OK/GD32VW55X_Wifi_BLE_SDK/GD32VW55x_RELEASE_V1.0.2/MSDK/wpa_supplicant/src/ap\ap_drv_ops.h **** 
 207:C:/Users/stapi/OneDrive/Desktop/GD32VW553/V1_MQTT_OK/GD32VW55X_Wifi_BLE_SDK/GD32VW55x_RELEASE_V1.0.2/MSDK/wpa_supplicant/src/ap\ap_drv_ops.h **** static inline int hostapd_drv_sta_clear_stats(struct hostapd_data *hapd,
 208:C:/Users/stapi/OneDrive/Desktop/GD32VW553/V1_MQTT_OK/GD32VW55X_Wifi_BLE_SDK/GD32VW55x_RELEASE_V1.0.2/MSDK/wpa_supplicant/src/ap\ap_drv_ops.h **** 					      const u8 *addr)
 209:C:/Users/stapi/OneDrive/Desktop/GD32VW553/V1_MQTT_OK/GD32VW55X_Wifi_BLE_SDK/GD32VW55x_RELEASE_V1.0.2/MSDK/wpa_supplicant/src/ap\ap_drv_ops.h **** {
 210:C:/Users/stapi/OneDrive/Desktop/GD32VW553/V1_MQTT_OK/GD32VW55X_Wifi_BLE_SDK/GD32VW55x_RELEASE_V1.0.2/MSDK/wpa_supplicant/src/ap\ap_drv_ops.h **** 	if (hapd->driver == NULL || hapd->driver->sta_clear_stats == NULL)
 211:C:/Users/stapi/OneDrive/Desktop/GD32VW553/V1_MQTT_OK/GD32VW55X_Wifi_BLE_SDK/GD32VW55x_RELEASE_V1.0.2/MSDK/wpa_supplicant/src/ap\ap_drv_ops.h **** 		return 0;
 212:C:/Users/stapi/OneDrive/Desktop/GD32VW553/V1_MQTT_OK/GD32VW55X_Wifi_BLE_SDK/GD32VW55x_RELEASE_V1.0.2/MSDK/wpa_supplicant/src/ap\ap_drv_ops.h **** 	return hapd->driver->sta_clear_stats(hapd->drv_priv, addr);
 213:C:/Users/stapi/OneDrive/Desktop/GD32VW553/V1_MQTT_OK/GD32VW55X_Wifi_BLE_SDK/GD32VW55x_RELEASE_V1.0.2/MSDK/wpa_supplicant/src/ap\ap_drv_ops.h **** }
 214:C:/Users/stapi/OneDrive/Desktop/GD32VW553/V1_MQTT_OK/GD32VW55X_Wifi_BLE_SDK/GD32VW55x_RELEASE_V1.0.2/MSDK/wpa_supplicant/src/ap\ap_drv_ops.h **** 
 215:C:/Users/stapi/OneDrive/Desktop/GD32VW553/V1_MQTT_OK/GD32VW55X_Wifi_BLE_SDK/GD32VW55x_RELEASE_V1.0.2/MSDK/wpa_supplicant/src/ap\ap_drv_ops.h **** static inline int hostapd_drv_set_acl(struct hostapd_data *hapd,
 216:C:/Users/stapi/OneDrive/Desktop/GD32VW553/V1_MQTT_OK/GD32VW55X_Wifi_BLE_SDK/GD32VW55x_RELEASE_V1.0.2/MSDK/wpa_supplicant/src/ap\ap_drv_ops.h **** 				      struct hostapd_acl_params *params)
 217:C:/Users/stapi/OneDrive/Desktop/GD32VW553/V1_MQTT_OK/GD32VW55X_Wifi_BLE_SDK/GD32VW55x_RELEASE_V1.0.2/MSDK/wpa_supplicant/src/ap\ap_drv_ops.h **** {
 218:C:/Users/stapi/OneDrive/Desktop/GD32VW553/V1_MQTT_OK/GD32VW55X_Wifi_BLE_SDK/GD32VW55x_RELEASE_V1.0.2/MSDK/wpa_supplicant/src/ap\ap_drv_ops.h **** 	if (hapd->driver == NULL || hapd->driver->set_acl == NULL)
 219:C:/Users/stapi/OneDrive/Desktop/GD32VW553/V1_MQTT_OK/GD32VW55X_Wifi_BLE_SDK/GD32VW55x_RELEASE_V1.0.2/MSDK/wpa_supplicant/src/ap\ap_drv_ops.h **** 		return 0;
 220:C:/Users/stapi/OneDrive/Desktop/GD32VW553/V1_MQTT_OK/GD32VW55X_Wifi_BLE_SDK/GD32VW55x_RELEASE_V1.0.2/MSDK/wpa_supplicant/src/ap\ap_drv_ops.h **** 	return hapd->driver->set_acl(hapd->drv_priv, params);
 221:C:/Users/stapi/OneDrive/Desktop/GD32VW553/V1_MQTT_OK/GD32VW55X_Wifi_BLE_SDK/GD32VW55x_RELEASE_V1.0.2/MSDK/wpa_supplicant/src/ap\ap_drv_ops.h **** }
 222:C:/Users/stapi/OneDrive/Desktop/GD32VW553/V1_MQTT_OK/GD32VW55X_Wifi_BLE_SDK/GD32VW55x_RELEASE_V1.0.2/MSDK/wpa_supplicant/src/ap\ap_drv_ops.h **** 
 223:C:/Users/stapi/OneDrive/Desktop/GD32VW553/V1_MQTT_OK/GD32VW55X_Wifi_BLE_SDK/GD32VW55x_RELEASE_V1.0.2/MSDK/wpa_supplicant/src/ap\ap_drv_ops.h **** static inline int hostapd_drv_set_ap(struct hostapd_data *hapd,
 224:C:/Users/stapi/OneDrive/Desktop/GD32VW553/V1_MQTT_OK/GD32VW55X_Wifi_BLE_SDK/GD32VW55x_RELEASE_V1.0.2/MSDK/wpa_supplicant/src/ap\ap_drv_ops.h **** 				     struct wpa_driver_ap_params *params)
 225:C:/Users/stapi/OneDrive/Desktop/GD32VW553/V1_MQTT_OK/GD32VW55X_Wifi_BLE_SDK/GD32VW55x_RELEASE_V1.0.2/MSDK/wpa_supplicant/src/ap\ap_drv_ops.h **** {
 226:C:/Users/stapi/OneDrive/Desktop/GD32VW553/V1_MQTT_OK/GD32VW55X_Wifi_BLE_SDK/GD32VW55x_RELEASE_V1.0.2/MSDK/wpa_supplicant/src/ap\ap_drv_ops.h **** 	if (hapd->driver == NULL || hapd->driver->set_ap == NULL)
 227:C:/Users/stapi/OneDrive/Desktop/GD32VW553/V1_MQTT_OK/GD32VW55X_Wifi_BLE_SDK/GD32VW55x_RELEASE_V1.0.2/MSDK/wpa_supplicant/src/ap\ap_drv_ops.h **** 		return 0;
 228:C:/Users/stapi/OneDrive/Desktop/GD32VW553/V1_MQTT_OK/GD32VW55X_Wifi_BLE_SDK/GD32VW55x_RELEASE_V1.0.2/MSDK/wpa_supplicant/src/ap\ap_drv_ops.h **** 	return hapd->driver->set_ap(hapd->drv_priv, params);
 229:C:/Users/stapi/OneDrive/Desktop/GD32VW553/V1_MQTT_OK/GD32VW55X_Wifi_BLE_SDK/GD32VW55x_RELEASE_V1.0.2/MSDK/wpa_supplicant/src/ap\ap_drv_ops.h **** }
 230:C:/Users/stapi/OneDrive/Desktop/GD32VW553/V1_MQTT_OK/GD32VW55X_Wifi_BLE_SDK/GD32VW55x_RELEASE_V1.0.2/MSDK/wpa_supplicant/src/ap\ap_drv_ops.h **** 
 231:C:/Users/stapi/OneDrive/Desktop/GD32VW553/V1_MQTT_OK/GD32VW55X_Wifi_BLE_SDK/GD32VW55x_RELEASE_V1.0.2/MSDK/wpa_supplicant/src/ap\ap_drv_ops.h **** static inline int hostapd_drv_set_radius_acl_auth(struct hostapd_data *hapd,
 232:C:/Users/stapi/OneDrive/Desktop/GD32VW553/V1_MQTT_OK/GD32VW55X_Wifi_BLE_SDK/GD32VW55x_RELEASE_V1.0.2/MSDK/wpa_supplicant/src/ap\ap_drv_ops.h **** 						  const u8 *mac, int accepted,
 233:C:/Users/stapi/OneDrive/Desktop/GD32VW553/V1_MQTT_OK/GD32VW55X_Wifi_BLE_SDK/GD32VW55x_RELEASE_V1.0.2/MSDK/wpa_supplicant/src/ap\ap_drv_ops.h **** 						  u32 session_timeout)
 234:C:/Users/stapi/OneDrive/Desktop/GD32VW553/V1_MQTT_OK/GD32VW55X_Wifi_BLE_SDK/GD32VW55x_RELEASE_V1.0.2/MSDK/wpa_supplicant/src/ap\ap_drv_ops.h **** {
 235:C:/Users/stapi/OneDrive/Desktop/GD32VW553/V1_MQTT_OK/GD32VW55X_Wifi_BLE_SDK/GD32VW55x_RELEASE_V1.0.2/MSDK/wpa_supplicant/src/ap\ap_drv_ops.h **** 	if (hapd->driver == NULL || hapd->driver->set_radius_acl_auth == NULL)
 236:C:/Users/stapi/OneDrive/Desktop/GD32VW553/V1_MQTT_OK/GD32VW55X_Wifi_BLE_SDK/GD32VW55x_RELEASE_V1.0.2/MSDK/wpa_supplicant/src/ap\ap_drv_ops.h **** 		return 0;
 237:C:/Users/stapi/OneDrive/Desktop/GD32VW553/V1_MQTT_OK/GD32VW55X_Wifi_BLE_SDK/GD32VW55x_RELEASE_V1.0.2/MSDK/wpa_supplicant/src/ap\ap_drv_ops.h **** 	return hapd->driver->set_radius_acl_auth(hapd->drv_priv, mac, accepted,
 238:C:/Users/stapi/OneDrive/Desktop/GD32VW553/V1_MQTT_OK/GD32VW55X_Wifi_BLE_SDK/GD32VW55x_RELEASE_V1.0.2/MSDK/wpa_supplicant/src/ap\ap_drv_ops.h **** 						 session_timeout);
 239:C:/Users/stapi/OneDrive/Desktop/GD32VW553/V1_MQTT_OK/GD32VW55X_Wifi_BLE_SDK/GD32VW55x_RELEASE_V1.0.2/MSDK/wpa_supplicant/src/ap\ap_drv_ops.h **** }
 240:C:/Users/stapi/OneDrive/Desktop/GD32VW553/V1_MQTT_OK/GD32VW55X_Wifi_BLE_SDK/GD32VW55x_RELEASE_V1.0.2/MSDK/wpa_supplicant/src/ap\ap_drv_ops.h **** 
 241:C:/Users/stapi/OneDrive/Desktop/GD32VW553/V1_MQTT_OK/GD32VW55X_Wifi_BLE_SDK/GD32VW55x_RELEASE_V1.0.2/MSDK/wpa_supplicant/src/ap\ap_drv_ops.h **** static inline int hostapd_drv_set_radius_acl_expire(struct hostapd_data *hapd,
 242:C:/Users/stapi/OneDrive/Desktop/GD32VW553/V1_MQTT_OK/GD32VW55X_Wifi_BLE_SDK/GD32VW55x_RELEASE_V1.0.2/MSDK/wpa_supplicant/src/ap\ap_drv_ops.h **** 						    const u8 *mac)
 243:C:/Users/stapi/OneDrive/Desktop/GD32VW553/V1_MQTT_OK/GD32VW55X_Wifi_BLE_SDK/GD32VW55x_RELEASE_V1.0.2/MSDK/wpa_supplicant/src/ap\ap_drv_ops.h **** {
 244:C:/Users/stapi/OneDrive/Desktop/GD32VW553/V1_MQTT_OK/GD32VW55X_Wifi_BLE_SDK/GD32VW55x_RELEASE_V1.0.2/MSDK/wpa_supplicant/src/ap\ap_drv_ops.h **** 	if (hapd->driver == NULL ||
 245:C:/Users/stapi/OneDrive/Desktop/GD32VW553/V1_MQTT_OK/GD32VW55X_Wifi_BLE_SDK/GD32VW55x_RELEASE_V1.0.2/MSDK/wpa_supplicant/src/ap\ap_drv_ops.h **** 	    hapd->driver->set_radius_acl_expire == NULL)
 246:C:/Users/stapi/OneDrive/Desktop/GD32VW553/V1_MQTT_OK/GD32VW55X_Wifi_BLE_SDK/GD32VW55x_RELEASE_V1.0.2/MSDK/wpa_supplicant/src/ap\ap_drv_ops.h **** 		return 0;
 247:C:/Users/stapi/OneDrive/Desktop/GD32VW553/V1_MQTT_OK/GD32VW55X_Wifi_BLE_SDK/GD32VW55x_RELEASE_V1.0.2/MSDK/wpa_supplicant/src/ap\ap_drv_ops.h **** 	return hapd->driver->set_radius_acl_expire(hapd->drv_priv, mac);
 248:C:/Users/stapi/OneDrive/Desktop/GD32VW553/V1_MQTT_OK/GD32VW55X_Wifi_BLE_SDK/GD32VW55x_RELEASE_V1.0.2/MSDK/wpa_supplicant/src/ap\ap_drv_ops.h **** }
 249:C:/Users/stapi/OneDrive/Desktop/GD32VW553/V1_MQTT_OK/GD32VW55X_Wifi_BLE_SDK/GD32VW55x_RELEASE_V1.0.2/MSDK/wpa_supplicant/src/ap\ap_drv_ops.h **** 
 250:C:/Users/stapi/OneDrive/Desktop/GD32VW553/V1_MQTT_OK/GD32VW55X_Wifi_BLE_SDK/GD32VW55x_RELEASE_V1.0.2/MSDK/wpa_supplicant/src/ap\ap_drv_ops.h **** static inline int hostapd_drv_set_authmode(struct hostapd_data *hapd,
 251:C:/Users/stapi/OneDrive/Desktop/GD32VW553/V1_MQTT_OK/GD32VW55X_Wifi_BLE_SDK/GD32VW55x_RELEASE_V1.0.2/MSDK/wpa_supplicant/src/ap\ap_drv_ops.h **** 					   int auth_algs)
 252:C:/Users/stapi/OneDrive/Desktop/GD32VW553/V1_MQTT_OK/GD32VW55X_Wifi_BLE_SDK/GD32VW55x_RELEASE_V1.0.2/MSDK/wpa_supplicant/src/ap\ap_drv_ops.h **** {
 253:C:/Users/stapi/OneDrive/Desktop/GD32VW553/V1_MQTT_OK/GD32VW55X_Wifi_BLE_SDK/GD32VW55x_RELEASE_V1.0.2/MSDK/wpa_supplicant/src/ap\ap_drv_ops.h **** 	if (hapd->driver == NULL || hapd->driver->set_authmode == NULL)
 254:C:/Users/stapi/OneDrive/Desktop/GD32VW553/V1_MQTT_OK/GD32VW55X_Wifi_BLE_SDK/GD32VW55x_RELEASE_V1.0.2/MSDK/wpa_supplicant/src/ap\ap_drv_ops.h **** 		return 0;
 255:C:/Users/stapi/OneDrive/Desktop/GD32VW553/V1_MQTT_OK/GD32VW55X_Wifi_BLE_SDK/GD32VW55x_RELEASE_V1.0.2/MSDK/wpa_supplicant/src/ap\ap_drv_ops.h **** 	return hapd->driver->set_authmode(hapd->drv_priv, auth_algs);
 256:C:/Users/stapi/OneDrive/Desktop/GD32VW553/V1_MQTT_OK/GD32VW55X_Wifi_BLE_SDK/GD32VW55x_RELEASE_V1.0.2/MSDK/wpa_supplicant/src/ap\ap_drv_ops.h **** }
 257:C:/Users/stapi/OneDrive/Desktop/GD32VW553/V1_MQTT_OK/GD32VW55X_Wifi_BLE_SDK/GD32VW55x_RELEASE_V1.0.2/MSDK/wpa_supplicant/src/ap\ap_drv_ops.h **** 
 258:C:/Users/stapi/OneDrive/Desktop/GD32VW553/V1_MQTT_OK/GD32VW55X_Wifi_BLE_SDK/GD32VW55x_RELEASE_V1.0.2/MSDK/wpa_supplicant/src/ap\ap_drv_ops.h **** static inline void hostapd_drv_poll_client(struct hostapd_data *hapd,
 259:C:/Users/stapi/OneDrive/Desktop/GD32VW553/V1_MQTT_OK/GD32VW55X_Wifi_BLE_SDK/GD32VW55x_RELEASE_V1.0.2/MSDK/wpa_supplicant/src/ap\ap_drv_ops.h **** 					   const u8 *own_addr, const u8 *addr,
 260:C:/Users/stapi/OneDrive/Desktop/GD32VW553/V1_MQTT_OK/GD32VW55X_Wifi_BLE_SDK/GD32VW55x_RELEASE_V1.0.2/MSDK/wpa_supplicant/src/ap\ap_drv_ops.h **** 					   int qos)
 261:C:/Users/stapi/OneDrive/Desktop/GD32VW553/V1_MQTT_OK/GD32VW55X_Wifi_BLE_SDK/GD32VW55x_RELEASE_V1.0.2/MSDK/wpa_supplicant/src/ap\ap_drv_ops.h **** {
 262:C:/Users/stapi/OneDrive/Desktop/GD32VW553/V1_MQTT_OK/GD32VW55X_Wifi_BLE_SDK/GD32VW55x_RELEASE_V1.0.2/MSDK/wpa_supplicant/src/ap\ap_drv_ops.h **** 	if (hapd->driver == NULL || hapd->driver->poll_client == NULL)
 263:C:/Users/stapi/OneDrive/Desktop/GD32VW553/V1_MQTT_OK/GD32VW55X_Wifi_BLE_SDK/GD32VW55x_RELEASE_V1.0.2/MSDK/wpa_supplicant/src/ap\ap_drv_ops.h **** 		return;
 264:C:/Users/stapi/OneDrive/Desktop/GD32VW553/V1_MQTT_OK/GD32VW55X_Wifi_BLE_SDK/GD32VW55x_RELEASE_V1.0.2/MSDK/wpa_supplicant/src/ap\ap_drv_ops.h **** 	hapd->driver->poll_client(hapd->drv_priv, own_addr, addr, qos);
 265:C:/Users/stapi/OneDrive/Desktop/GD32VW553/V1_MQTT_OK/GD32VW55X_Wifi_BLE_SDK/GD32VW55x_RELEASE_V1.0.2/MSDK/wpa_supplicant/src/ap\ap_drv_ops.h **** }
 266:C:/Users/stapi/OneDrive/Desktop/GD32VW553/V1_MQTT_OK/GD32VW55X_Wifi_BLE_SDK/GD32VW55x_RELEASE_V1.0.2/MSDK/wpa_supplicant/src/ap\ap_drv_ops.h **** 
 267:C:/Users/stapi/OneDrive/Desktop/GD32VW553/V1_MQTT_OK/GD32VW55X_Wifi_BLE_SDK/GD32VW55x_RELEASE_V1.0.2/MSDK/wpa_supplicant/src/ap\ap_drv_ops.h **** static inline int hostapd_drv_get_survey(struct hostapd_data *hapd,
 268:C:/Users/stapi/OneDrive/Desktop/GD32VW553/V1_MQTT_OK/GD32VW55X_Wifi_BLE_SDK/GD32VW55x_RELEASE_V1.0.2/MSDK/wpa_supplicant/src/ap\ap_drv_ops.h **** 					 unsigned int freq)
 269:C:/Users/stapi/OneDrive/Desktop/GD32VW553/V1_MQTT_OK/GD32VW55X_Wifi_BLE_SDK/GD32VW55x_RELEASE_V1.0.2/MSDK/wpa_supplicant/src/ap\ap_drv_ops.h **** {
 270:C:/Users/stapi/OneDrive/Desktop/GD32VW553/V1_MQTT_OK/GD32VW55X_Wifi_BLE_SDK/GD32VW55x_RELEASE_V1.0.2/MSDK/wpa_supplicant/src/ap\ap_drv_ops.h **** 	if (hapd->driver == NULL)
 140              		.loc 2 270 10 is_stmt 0
 141 001c 8327C551 		lw	a5,1308(a0)
 142              	.LBE5:
 143              	.LBE4:
 144              		.loc 1 53 8
 145 0020 83A54447 		lw	a1,1140(s1)
 146              	.LVL14:
 147              	.LBB8:
 148              	.LBB6:
 149              		.loc 2 270 2 is_stmt 1
 150              		.loc 2 270 5 is_stmt 0
 151 0024 99EF     		bne	a5,zero,.L13
 152              	.LVL15:
 153              	.L15:
 154              	.LBE6:
 155              	.LBE8:
  54:C:/Users/stapi/OneDrive/Desktop/GD32VW553/V1_MQTT_OK/GD32VW55X_Wifi_BLE_SDK/GD32VW55x_RELEASE_V1.0.2/MSDK/wpa_supplicant/src/ap\bss_load.c **** 	if (err) {
  55:C:/Users/stapi/OneDrive/Desktop/GD32VW553/V1_MQTT_OK/GD32VW55X_Wifi_BLE_SDK/GD32VW55x_RELEASE_V1.0.2/MSDK/wpa_supplicant/src/ap\bss_load.c **** 		wpa_printf(MSG_ERROR, "BSS Load: Failed to get survey data");
 156              		.loc 1 55 3 is_stmt 1
 157 0026 B7050000 		lui	a1,%hi(.LC1)
 158 002a 93850500 		addi	a1,a1,%lo(.LC1)
 159 002e 1545     		li	a0,5
 160 0030 97000000 		call	wpa_printf
 160      E7800000 
 161              	.LVL16:
  56:C:/Users/stapi/OneDrive/Desktop/GD32VW553/V1_MQTT_OK/GD32VW55X_Wifi_BLE_SDK/GD32VW55x_RELEASE_V1.0.2/MSDK/wpa_supplicant/src/ap\bss_load.c **** 		return;
 162              		.loc 1 56 3
 163              	.L11:
  57:C:/Users/stapi/OneDrive/Desktop/GD32VW553/V1_MQTT_OK/GD32VW55X_Wifi_BLE_SDK/GD32VW55x_RELEASE_V1.0.2/MSDK/wpa_supplicant/src/ap\bss_load.c **** 	}
  58:C:/Users/stapi/OneDrive/Desktop/GD32VW553/V1_MQTT_OK/GD32VW55X_Wifi_BLE_SDK/GD32VW55x_RELEASE_V1.0.2/MSDK/wpa_supplicant/src/ap\bss_load.c **** 
  59:C:/Users/stapi/OneDrive/Desktop/GD32VW553/V1_MQTT_OK/GD32VW55X_Wifi_BLE_SDK/GD32VW55x_RELEASE_V1.0.2/MSDK/wpa_supplicant/src/ap\bss_load.c **** 	ieee802_11_set_beacon(hapd);
  60:C:/Users/stapi/OneDrive/Desktop/GD32VW553/V1_MQTT_OK/GD32VW55X_Wifi_BLE_SDK/GD32VW55x_RELEASE_V1.0.2/MSDK/wpa_supplicant/src/ap\bss_load.c **** 
  61:C:/Users/stapi/OneDrive/Desktop/GD32VW553/V1_MQTT_OK/GD32VW55X_Wifi_BLE_SDK/GD32VW55x_RELEASE_V1.0.2/MSDK/wpa_supplicant/src/ap\bss_load.c **** 	if (get_bss_load_update_timeout(hapd, &sec, &usec) < 0)
  62:C:/Users/stapi/OneDrive/Desktop/GD32VW553/V1_MQTT_OK/GD32VW55X_Wifi_BLE_SDK/GD32VW55x_RELEASE_V1.0.2/MSDK/wpa_supplicant/src/ap\bss_load.c **** 		return;
  63:C:/Users/stapi/OneDrive/Desktop/GD32VW553/V1_MQTT_OK/GD32VW55X_Wifi_BLE_SDK/GD32VW55x_RELEASE_V1.0.2/MSDK/wpa_supplicant/src/ap\bss_load.c **** 
  64:C:/Users/stapi/OneDrive/Desktop/GD32VW553/V1_MQTT_OK/GD32VW55X_Wifi_BLE_SDK/GD32VW55x_RELEASE_V1.0.2/MSDK/wpa_supplicant/src/ap\bss_load.c **** 	if (hapd->conf->chan_util_avg_period) {
  65:C:/Users/stapi/OneDrive/Desktop/GD32VW553/V1_MQTT_OK/GD32VW55X_Wifi_BLE_SDK/GD32VW55x_RELEASE_V1.0.2/MSDK/wpa_supplicant/src/ap\bss_load.c **** 		iface->chan_util_samples_sum += iface->channel_utilization;
  66:C:/Users/stapi/OneDrive/Desktop/GD32VW553/V1_MQTT_OK/GD32VW55X_Wifi_BLE_SDK/GD32VW55x_RELEASE_V1.0.2/MSDK/wpa_supplicant/src/ap\bss_load.c **** 		iface->chan_util_num_sample_periods +=
  67:C:/Users/stapi/OneDrive/Desktop/GD32VW553/V1_MQTT_OK/GD32VW55X_Wifi_BLE_SDK/GD32VW55x_RELEASE_V1.0.2/MSDK/wpa_supplicant/src/ap\bss_load.c **** 			hapd->conf->bss_load_update_period;
  68:C:/Users/stapi/OneDrive/Desktop/GD32VW553/V1_MQTT_OK/GD32VW55X_Wifi_BLE_SDK/GD32VW55x_RELEASE_V1.0.2/MSDK/wpa_supplicant/src/ap\bss_load.c **** 		if (iface->chan_util_num_sample_periods >=
  69:C:/Users/stapi/OneDrive/Desktop/GD32VW553/V1_MQTT_OK/GD32VW55X_Wifi_BLE_SDK/GD32VW55x_RELEASE_V1.0.2/MSDK/wpa_supplicant/src/ap\bss_load.c **** 		    hapd->conf->chan_util_avg_period) {
  70:C:/Users/stapi/OneDrive/Desktop/GD32VW553/V1_MQTT_OK/GD32VW55X_Wifi_BLE_SDK/GD32VW55x_RELEASE_V1.0.2/MSDK/wpa_supplicant/src/ap\bss_load.c **** 			iface->chan_util_average =
  71:C:/Users/stapi/OneDrive/Desktop/GD32VW553/V1_MQTT_OK/GD32VW55X_Wifi_BLE_SDK/GD32VW55x_RELEASE_V1.0.2/MSDK/wpa_supplicant/src/ap\bss_load.c **** 				iface->chan_util_samples_sum /
  72:C:/Users/stapi/OneDrive/Desktop/GD32VW553/V1_MQTT_OK/GD32VW55X_Wifi_BLE_SDK/GD32VW55x_RELEASE_V1.0.2/MSDK/wpa_supplicant/src/ap\bss_load.c **** 				(iface->chan_util_num_sample_periods /
  73:C:/Users/stapi/OneDrive/Desktop/GD32VW553/V1_MQTT_OK/GD32VW55X_Wifi_BLE_SDK/GD32VW55x_RELEASE_V1.0.2/MSDK/wpa_supplicant/src/ap\bss_load.c **** 				 hapd->conf->bss_load_update_period);
  74:C:/Users/stapi/OneDrive/Desktop/GD32VW553/V1_MQTT_OK/GD32VW55X_Wifi_BLE_SDK/GD32VW55x_RELEASE_V1.0.2/MSDK/wpa_supplicant/src/ap\bss_load.c **** 			iface->chan_util_samples_sum = 0;
  75:C:/Users/stapi/OneDrive/Desktop/GD32VW553/V1_MQTT_OK/GD32VW55X_Wifi_BLE_SDK/GD32VW55x_RELEASE_V1.0.2/MSDK/wpa_supplicant/src/ap\bss_load.c **** 			iface->chan_util_num_sample_periods = 0;
  76:C:/Users/stapi/OneDrive/Desktop/GD32VW553/V1_MQTT_OK/GD32VW55X_Wifi_BLE_SDK/GD32VW55x_RELEASE_V1.0.2/MSDK/wpa_supplicant/src/ap\bss_load.c **** 		}
  77:C:/Users/stapi/OneDrive/Desktop/GD32VW553/V1_MQTT_OK/GD32VW55X_Wifi_BLE_SDK/GD32VW55x_RELEASE_V1.0.2/MSDK/wpa_supplicant/src/ap\bss_load.c **** 	}
  78:C:/Users/stapi/OneDrive/Desktop/GD32VW553/V1_MQTT_OK/GD32VW55X_Wifi_BLE_SDK/GD32VW55x_RELEASE_V1.0.2/MSDK/wpa_supplicant/src/ap\bss_load.c **** 
  79:C:/Users/stapi/OneDrive/Desktop/GD32VW553/V1_MQTT_OK/GD32VW55X_Wifi_BLE_SDK/GD32VW55x_RELEASE_V1.0.2/MSDK/wpa_supplicant/src/ap\bss_load.c **** 	eloop_register_timeout(sec, usec, update_channel_utilization, hapd,
  80:C:/Users/stapi/OneDrive/Desktop/GD32VW553/V1_MQTT_OK/GD32VW55X_Wifi_BLE_SDK/GD32VW55x_RELEASE_V1.0.2/MSDK/wpa_supplicant/src/ap\bss_load.c **** 			       NULL);
  81:C:/Users/stapi/OneDrive/Desktop/GD32VW553/V1_MQTT_OK/GD32VW55X_Wifi_BLE_SDK/GD32VW55x_RELEASE_V1.0.2/MSDK/wpa_supplicant/src/ap\bss_load.c **** }
 164              		.loc 1 81 1 is_stmt 0
 165 0038 4101     		addi	sp,sp,16
 166              		.cfi_remember_state
 167              		.cfi_def_cfa_offset 0
 168 003a 17030000 		tail	__riscv_restore_2
 168      67000300 
 169              		.cfi_restore 9
 170              		.cfi_restore 8
 171              		.cfi_restore 1
 172              		.cfi_def_cfa_offset -16
 173              	.LVL17:
 174              	.L13:
 175              		.cfi_restore_state
 176              	.LBB9:
 177              	.LBB7:
 271:C:/Users/stapi/OneDrive/Desktop/GD32VW553/V1_MQTT_OK/GD32VW55X_Wifi_BLE_SDK/GD32VW55x_RELEASE_V1.0.2/MSDK/wpa_supplicant/src/ap\ap_drv_ops.h **** 		return -1;
 272:C:/Users/stapi/OneDrive/Desktop/GD32VW553/V1_MQTT_OK/GD32VW55X_Wifi_BLE_SDK/GD32VW55x_RELEASE_V1.0.2/MSDK/wpa_supplicant/src/ap\ap_drv_ops.h **** 	if (!hapd->driver->get_survey)
 178              		.loc 2 272 2 is_stmt 1
 179              		.loc 2 272 19 is_stmt 0
 180 0042 83A7871C 		lw	a5,456(a5)
 181              		.loc 2 272 5
 182 0046 E5D3     		beq	a5,zero,.L15
 273:C:/Users/stapi/OneDrive/Desktop/GD32VW553/V1_MQTT_OK/GD32VW55X_Wifi_BLE_SDK/GD32VW55x_RELEASE_V1.0.2/MSDK/wpa_supplicant/src/ap\ap_drv_ops.h **** 		return -1;
 274:C:/Users/stapi/OneDrive/Desktop/GD32VW553/V1_MQTT_OK/GD32VW55X_Wifi_BLE_SDK/GD32VW55x_RELEASE_V1.0.2/MSDK/wpa_supplicant/src/ap\ap_drv_ops.h **** 	return hapd->driver->get_survey(hapd->drv_priv, freq);
 183              		.loc 2 274 2 is_stmt 1
 184              		.loc 2 274 9 is_stmt 0
 185 0048 03250552 		lw	a0,1312(a0)
 186 004c 8297     		jalr	a5
 187              	.LVL18:
 188              	.LBE7:
 189              	.LBE9:
  54:C:/Users/stapi/OneDrive/Desktop/GD32VW553/V1_MQTT_OK/GD32VW55X_Wifi_BLE_SDK/GD32VW55x_RELEASE_V1.0.2/MSDK/wpa_supplicant/src/ap\bss_load.c **** 		wpa_printf(MSG_ERROR, "BSS Load: Failed to get survey data");
 190              		.loc 1 54 2 is_stmt 1
  54:C:/Users/stapi/OneDrive/Desktop/GD32VW553/V1_MQTT_OK/GD32VW55X_Wifi_BLE_SDK/GD32VW55x_RELEASE_V1.0.2/MSDK/wpa_supplicant/src/ap\bss_load.c **** 		wpa_printf(MSG_ERROR, "BSS Load: Failed to get survey data");
 191              		.loc 1 54 5 is_stmt 0
 192 004e 61FD     		bne	a0,zero,.L15
  59:C:/Users/stapi/OneDrive/Desktop/GD32VW553/V1_MQTT_OK/GD32VW55X_Wifi_BLE_SDK/GD32VW55x_RELEASE_V1.0.2/MSDK/wpa_supplicant/src/ap\bss_load.c **** 
 193              		.loc 1 59 2 is_stmt 1
 194 0050 2285     		mv	a0,s0
 195              	.LVL19:
 196 0052 97000000 		call	ieee802_11_set_beacon
 196      E7800000 
 197              	.LVL20:
  61:C:/Users/stapi/OneDrive/Desktop/GD32VW553/V1_MQTT_OK/GD32VW55X_Wifi_BLE_SDK/GD32VW55x_RELEASE_V1.0.2/MSDK/wpa_supplicant/src/ap\bss_load.c **** 		return;
 198              		.loc 1 61 2
  61:C:/Users/stapi/OneDrive/Desktop/GD32VW553/V1_MQTT_OK/GD32VW55X_Wifi_BLE_SDK/GD32VW55x_RELEASE_V1.0.2/MSDK/wpa_supplicant/src/ap\bss_load.c **** 		return;
 199              		.loc 1 61 6 is_stmt 0
 200 005a 7000     		addi	a2,sp,12
 201 005c 2C00     		addi	a1,sp,8
 202 005e 2285     		mv	a0,s0
 203 0060 97000000 		call	get_bss_load_update_timeout
 203      E7800000 
 204              	.LVL21:
  61:C:/Users/stapi/OneDrive/Desktop/GD32VW553/V1_MQTT_OK/GD32VW55X_Wifi_BLE_SDK/GD32VW55x_RELEASE_V1.0.2/MSDK/wpa_supplicant/src/ap\bss_load.c **** 		return;
 205              		.loc 1 61 5
 206 0068 E34805FC 		blt	a0,zero,.L11
  64:C:/Users/stapi/OneDrive/Desktop/GD32VW553/V1_MQTT_OK/GD32VW55X_Wifi_BLE_SDK/GD32VW55x_RELEASE_V1.0.2/MSDK/wpa_supplicant/src/ap\bss_load.c **** 		iface->chan_util_samples_sum += iface->channel_utilization;
 207              		.loc 1 64 2 is_stmt 1
  64:C:/Users/stapi/OneDrive/Desktop/GD32VW553/V1_MQTT_OK/GD32VW55X_Wifi_BLE_SDK/GD32VW55x_RELEASE_V1.0.2/MSDK/wpa_supplicant/src/ap\bss_load.c **** 		iface->chan_util_samples_sum += iface->channel_utilization;
 208              		.loc 1 64 10 is_stmt 0
 209 006c 1C44     		lw	a5,8(s0)
  64:C:/Users/stapi/OneDrive/Desktop/GD32VW553/V1_MQTT_OK/GD32VW55X_Wifi_BLE_SDK/GD32VW55x_RELEASE_V1.0.2/MSDK/wpa_supplicant/src/ap\bss_load.c **** 		iface->chan_util_samples_sum += iface->channel_utilization;
 210              		.loc 1 64 16
 211 006e 8C5F     		lw	a1,56(a5)
  64:C:/Users/stapi/OneDrive/Desktop/GD32VW553/V1_MQTT_OK/GD32VW55X_Wifi_BLE_SDK/GD32VW55x_RELEASE_V1.0.2/MSDK/wpa_supplicant/src/ap\bss_load.c **** 		iface->chan_util_samples_sum += iface->channel_utilization;
 212              		.loc 1 64 5
 213 0070 85C9     		beq	a1,zero,.L17
  65:C:/Users/stapi/OneDrive/Desktop/GD32VW553/V1_MQTT_OK/GD32VW55X_Wifi_BLE_SDK/GD32VW55x_RELEASE_V1.0.2/MSDK/wpa_supplicant/src/ap\bss_load.c **** 		iface->chan_util_num_sample_periods +=
 214              		.loc 1 65 3 is_stmt 1
  65:C:/Users/stapi/OneDrive/Desktop/GD32VW553/V1_MQTT_OK/GD32VW55X_Wifi_BLE_SDK/GD32VW55x_RELEASE_V1.0.2/MSDK/wpa_supplicant/src/ap\bss_load.c **** 		iface->chan_util_num_sample_periods +=
 215              		.loc 1 65 32 is_stmt 0
 216 0072 93860448 		addi	a3,s1,1152
  65:C:/Users/stapi/OneDrive/Desktop/GD32VW553/V1_MQTT_OK/GD32VW55X_Wifi_BLE_SDK/GD32VW55x_RELEASE_V1.0.2/MSDK/wpa_supplicant/src/ap\bss_load.c **** 		iface->chan_util_num_sample_periods +=
 217              		.loc 1 65 40
 218 0076 03C7044C 		lbu	a4,1216(s1)
  65:C:/Users/stapi/OneDrive/Desktop/GD32VW553/V1_MQTT_OK/GD32VW55X_Wifi_BLE_SDK/GD32VW55x_RELEASE_V1.0.2/MSDK/wpa_supplicant/src/ap\bss_load.c **** 		iface->chan_util_num_sample_periods +=
 219              		.loc 1 65 32
 220 007a F042     		lw	a2,68(a3)
 221 007c 3297     		add	a4,a4,a2
  67:C:/Users/stapi/OneDrive/Desktop/GD32VW553/V1_MQTT_OK/GD32VW55X_Wifi_BLE_SDK/GD32VW55x_RELEASE_V1.0.2/MSDK/wpa_supplicant/src/ap\bss_load.c **** 		if (iface->chan_util_num_sample_periods >=
 222              		.loc 1 67 14
 223 007e D05B     		lw	a2,52(a5)
  66:C:/Users/stapi/OneDrive/Desktop/GD32VW553/V1_MQTT_OK/GD32VW55X_Wifi_BLE_SDK/GD32VW55x_RELEASE_V1.0.2/MSDK/wpa_supplicant/src/ap\bss_load.c **** 			hapd->conf->bss_load_update_period;
 224              		.loc 1 66 39
 225 0080 BC46     		lw	a5,72(a3)
  65:C:/Users/stapi/OneDrive/Desktop/GD32VW553/V1_MQTT_OK/GD32VW55X_Wifi_BLE_SDK/GD32VW55x_RELEASE_V1.0.2/MSDK/wpa_supplicant/src/ap\bss_load.c **** 		iface->chan_util_num_sample_periods +=
 226              		.loc 1 65 32
 227 0082 F8C2     		sw	a4,68(a3)
  66:C:/Users/stapi/OneDrive/Desktop/GD32VW553/V1_MQTT_OK/GD32VW55X_Wifi_BLE_SDK/GD32VW55x_RELEASE_V1.0.2/MSDK/wpa_supplicant/src/ap\bss_load.c **** 			hapd->conf->bss_load_update_period;
 228              		.loc 1 66 3 is_stmt 1
  66:C:/Users/stapi/OneDrive/Desktop/GD32VW553/V1_MQTT_OK/GD32VW55X_Wifi_BLE_SDK/GD32VW55x_RELEASE_V1.0.2/MSDK/wpa_supplicant/src/ap\bss_load.c **** 			hapd->conf->bss_load_update_period;
 229              		.loc 1 66 39 is_stmt 0
 230 0084 B297     		add	a5,a2,a5
 231 0086 BCC6     		sw	a5,72(a3)
  68:C:/Users/stapi/OneDrive/Desktop/GD32VW553/V1_MQTT_OK/GD32VW55X_Wifi_BLE_SDK/GD32VW55x_RELEASE_V1.0.2/MSDK/wpa_supplicant/src/ap\bss_load.c **** 		    hapd->conf->chan_util_avg_period) {
 232              		.loc 1 68 3 is_stmt 1
  68:C:/Users/stapi/OneDrive/Desktop/GD32VW553/V1_MQTT_OK/GD32VW55X_Wifi_BLE_SDK/GD32VW55x_RELEASE_V1.0.2/MSDK/wpa_supplicant/src/ap\bss_load.c **** 		    hapd->conf->chan_util_avg_period) {
 233              		.loc 1 68 6 is_stmt 0
 234 0088 63ECB700 		bgtu	a1,a5,.L17
  70:C:/Users/stapi/OneDrive/Desktop/GD32VW553/V1_MQTT_OK/GD32VW55X_Wifi_BLE_SDK/GD32VW55x_RELEASE_V1.0.2/MSDK/wpa_supplicant/src/ap\bss_load.c **** 				iface->chan_util_samples_sum /
 235              		.loc 1 70 4 is_stmt 1
  72:C:/Users/stapi/OneDrive/Desktop/GD32VW553/V1_MQTT_OK/GD32VW55X_Wifi_BLE_SDK/GD32VW55x_RELEASE_V1.0.2/MSDK/wpa_supplicant/src/ap\bss_load.c **** 				 hapd->conf->bss_load_update_period);
 236              		.loc 1 72 42 is_stmt 0
 237 008c B3D7C702 		divu	a5,a5,a2
  74:C:/Users/stapi/OneDrive/Desktop/GD32VW553/V1_MQTT_OK/GD32VW55X_Wifi_BLE_SDK/GD32VW55x_RELEASE_V1.0.2/MSDK/wpa_supplicant/src/ap\bss_load.c **** 			iface->chan_util_num_sample_periods = 0;
 238              		.loc 1 74 33
 239 0090 23A2044C 		sw	zero,1220(s1)
  75:C:/Users/stapi/OneDrive/Desktop/GD32VW553/V1_MQTT_OK/GD32VW55X_Wifi_BLE_SDK/GD32VW55x_RELEASE_V1.0.2/MSDK/wpa_supplicant/src/ap\bss_load.c **** 		}
 240              		.loc 1 75 40
 241 0094 23A4044C 		sw	zero,1224(s1)
  71:C:/Users/stapi/OneDrive/Desktop/GD32VW553/V1_MQTT_OK/GD32VW55X_Wifi_BLE_SDK/GD32VW55x_RELEASE_V1.0.2/MSDK/wpa_supplicant/src/ap\bss_load.c **** 				(iface->chan_util_num_sample_periods /
 242              		.loc 1 71 34
 243 0098 B357F702 		divu	a5,a4,a5
  70:C:/Users/stapi/OneDrive/Desktop/GD32VW553/V1_MQTT_OK/GD32VW55X_Wifi_BLE_SDK/GD32VW55x_RELEASE_V1.0.2/MSDK/wpa_supplicant/src/ap\bss_load.c **** 				iface->chan_util_samples_sum /
 244              		.loc 1 70 29
 245 009c 23A6F44C 		sw	a5,1228(s1)
  74:C:/Users/stapi/OneDrive/Desktop/GD32VW553/V1_MQTT_OK/GD32VW55X_Wifi_BLE_SDK/GD32VW55x_RELEASE_V1.0.2/MSDK/wpa_supplicant/src/ap\bss_load.c **** 			iface->chan_util_num_sample_periods = 0;
 246              		.loc 1 74 4 is_stmt 1
  75:C:/Users/stapi/OneDrive/Desktop/GD32VW553/V1_MQTT_OK/GD32VW55X_Wifi_BLE_SDK/GD32VW55x_RELEASE_V1.0.2/MSDK/wpa_supplicant/src/ap\bss_load.c **** 		}
 247              		.loc 1 75 4
 248              	.L17:
  79:C:/Users/stapi/OneDrive/Desktop/GD32VW553/V1_MQTT_OK/GD32VW55X_Wifi_BLE_SDK/GD32VW55x_RELEASE_V1.0.2/MSDK/wpa_supplicant/src/ap\bss_load.c **** 			       NULL);
 249              		.loc 1 79 2
 250 00a0 B245     		lw	a1,12(sp)
 251 00a2 2245     		lw	a0,8(sp)
 252 00a4 37060000 		lui	a2,%hi(update_channel_utilization)
 253 00a8 0147     		li	a4,0
 254 00aa A286     		mv	a3,s0
 255 00ac 13060600 		addi	a2,a2,%lo(update_channel_utilization)
 256 00b0 97000000 		call	eloop_register_timeout
 256      E7800000 
 257              	.LVL22:
 258 00b8 41B7     		j	.L11
 259              	.LVL23:
 260              	.L30:
 261              		.cfi_def_cfa_offset 0
 262              		.cfi_restore 1
 263              		.cfi_restore 8
 264              		.cfi_restore 9
 265 00ba 8280     		ret
 266              		.cfi_endproc
 267              	.LFE164:
 269              		.section	.text.bss_load_update_init,"ax",@progbits
 270              		.align	1
 271              		.globl	bss_load_update_init
 273              	bss_load_update_init:
 274              	.LFB165:
  82:C:/Users/stapi/OneDrive/Desktop/GD32VW553/V1_MQTT_OK/GD32VW55X_Wifi_BLE_SDK/GD32VW55x_RELEASE_V1.0.2/MSDK/wpa_supplicant/src/ap\bss_load.c **** 
  83:C:/Users/stapi/OneDrive/Desktop/GD32VW553/V1_MQTT_OK/GD32VW55X_Wifi_BLE_SDK/GD32VW55x_RELEASE_V1.0.2/MSDK/wpa_supplicant/src/ap\bss_load.c **** 
  84:C:/Users/stapi/OneDrive/Desktop/GD32VW553/V1_MQTT_OK/GD32VW55X_Wifi_BLE_SDK/GD32VW55x_RELEASE_V1.0.2/MSDK/wpa_supplicant/src/ap\bss_load.c **** int bss_load_update_init(struct hostapd_data *hapd)
  85:C:/Users/stapi/OneDrive/Desktop/GD32VW553/V1_MQTT_OK/GD32VW55X_Wifi_BLE_SDK/GD32VW55x_RELEASE_V1.0.2/MSDK/wpa_supplicant/src/ap\bss_load.c **** {
 275              		.loc 1 85 1
 276              		.cfi_startproc
 277              	.LVL24:
 278 0000 17030000 		call	t0,__riscv_save_0
 278      E7020300 
 279              		.cfi_offset 1, -4
 280              		.cfi_def_cfa_offset 16
  86:C:/Users/stapi/OneDrive/Desktop/GD32VW553/V1_MQTT_OK/GD32VW55X_Wifi_BLE_SDK/GD32VW55x_RELEASE_V1.0.2/MSDK/wpa_supplicant/src/ap\bss_load.c **** 	unsigned int sec, usec;
 281              		.loc 1 86 2
  87:C:/Users/stapi/OneDrive/Desktop/GD32VW553/V1_MQTT_OK/GD32VW55X_Wifi_BLE_SDK/GD32VW55x_RELEASE_V1.0.2/MSDK/wpa_supplicant/src/ap\bss_load.c **** 
  88:C:/Users/stapi/OneDrive/Desktop/GD32VW553/V1_MQTT_OK/GD32VW55X_Wifi_BLE_SDK/GD32VW55x_RELEASE_V1.0.2/MSDK/wpa_supplicant/src/ap\bss_load.c **** 	if (get_bss_load_update_timeout(hapd, &sec, &usec) < 0)
 282              		.loc 1 88 2
  85:C:/Users/stapi/OneDrive/Desktop/GD32VW553/V1_MQTT_OK/GD32VW55X_Wifi_BLE_SDK/GD32VW55x_RELEASE_V1.0.2/MSDK/wpa_supplicant/src/ap\bss_load.c **** 	unsigned int sec, usec;
 283              		.loc 1 85 1 is_stmt 0
 284 0008 0111     		addi	sp,sp,-32
 285              		.cfi_def_cfa_offset 48
 286              		.loc 1 88 6
 287 000a 7008     		addi	a2,sp,28
 288 000c 2C08     		addi	a1,sp,24
  85:C:/Users/stapi/OneDrive/Desktop/GD32VW553/V1_MQTT_OK/GD32VW55X_Wifi_BLE_SDK/GD32VW55x_RELEASE_V1.0.2/MSDK/wpa_supplicant/src/ap\bss_load.c **** 	unsigned int sec, usec;
 289              		.loc 1 85 1
 290 000e 2AC6     		sw	a0,12(sp)
 291              		.loc 1 88 6
 292 0010 97000000 		call	get_bss_load_update_timeout
 292      E7800000 
 293              	.LVL25:
 294              		.loc 1 88 5
 295 0018 63440502 		blt	a0,zero,.L35
  89:C:/Users/stapi/OneDrive/Desktop/GD32VW553/V1_MQTT_OK/GD32VW55X_Wifi_BLE_SDK/GD32VW55x_RELEASE_V1.0.2/MSDK/wpa_supplicant/src/ap\bss_load.c **** 		return -1;
  90:C:/Users/stapi/OneDrive/Desktop/GD32VW553/V1_MQTT_OK/GD32VW55X_Wifi_BLE_SDK/GD32VW55x_RELEASE_V1.0.2/MSDK/wpa_supplicant/src/ap\bss_load.c **** 
  91:C:/Users/stapi/OneDrive/Desktop/GD32VW553/V1_MQTT_OK/GD32VW55X_Wifi_BLE_SDK/GD32VW55x_RELEASE_V1.0.2/MSDK/wpa_supplicant/src/ap\bss_load.c **** 	eloop_register_timeout(sec, usec, update_channel_utilization, hapd,
 296              		.loc 1 91 2 is_stmt 1
 297 001c B246     		lw	a3,12(sp)
 298 001e F245     		lw	a1,28(sp)
 299 0020 6245     		lw	a0,24(sp)
 300 0022 37060000 		lui	a2,%hi(update_channel_utilization)
 301 0026 0147     		li	a4,0
 302 0028 13060600 		addi	a2,a2,%lo(update_channel_utilization)
 303 002c 97000000 		call	eloop_register_timeout
 303      E7800000 
 304              	.LVL26:
  92:C:/Users/stapi/OneDrive/Desktop/GD32VW553/V1_MQTT_OK/GD32VW55X_Wifi_BLE_SDK/GD32VW55x_RELEASE_V1.0.2/MSDK/wpa_supplicant/src/ap\bss_load.c **** 			       NULL);
  93:C:/Users/stapi/OneDrive/Desktop/GD32VW553/V1_MQTT_OK/GD32VW55X_Wifi_BLE_SDK/GD32VW55x_RELEASE_V1.0.2/MSDK/wpa_supplicant/src/ap\bss_load.c **** 	return 0;
 305              		.loc 1 93 2
 306              		.loc 1 93 9 is_stmt 0
 307 0034 0145     		li	a0,0
 308              	.L33:
  94:C:/Users/stapi/OneDrive/Desktop/GD32VW553/V1_MQTT_OK/GD32VW55X_Wifi_BLE_SDK/GD32VW55x_RELEASE_V1.0.2/MSDK/wpa_supplicant/src/ap\bss_load.c **** }
 309              		.loc 1 94 1
 310 0036 0561     		addi	sp,sp,32
 311              		.cfi_remember_state
 312              		.cfi_def_cfa_offset 0
 313              	.LVL27:
 314 0038 17030000 		tail	__riscv_restore_0
 314      67000300 
 315              		.cfi_restore 1
 316              		.cfi_def_cfa_offset -16
 317              	.LVL28:
 318              	.L35:
 319              		.cfi_restore_state
  89:C:/Users/stapi/OneDrive/Desktop/GD32VW553/V1_MQTT_OK/GD32VW55X_Wifi_BLE_SDK/GD32VW55x_RELEASE_V1.0.2/MSDK/wpa_supplicant/src/ap\bss_load.c **** 		return -1;
 320              		.loc 1 89 10
 321 0040 7D55     		li	a0,-1
 322 0042 D5BF     		j	.L33
 323              		.cfi_endproc
 324              	.LFE165:
 326              		.section	.text.bss_load_update_deinit,"ax",@progbits
 327              		.align	1
 328              		.globl	bss_load_update_deinit
 330              	bss_load_update_deinit:
 331              	.LFB166:
  95:C:/Users/stapi/OneDrive/Desktop/GD32VW553/V1_MQTT_OK/GD32VW55X_Wifi_BLE_SDK/GD32VW55x_RELEASE_V1.0.2/MSDK/wpa_supplicant/src/ap\bss_load.c **** 
  96:C:/Users/stapi/OneDrive/Desktop/GD32VW553/V1_MQTT_OK/GD32VW55X_Wifi_BLE_SDK/GD32VW55x_RELEASE_V1.0.2/MSDK/wpa_supplicant/src/ap\bss_load.c **** 
  97:C:/Users/stapi/OneDrive/Desktop/GD32VW553/V1_MQTT_OK/GD32VW55X_Wifi_BLE_SDK/GD32VW55x_RELEASE_V1.0.2/MSDK/wpa_supplicant/src/ap\bss_load.c **** void bss_load_update_deinit(struct hostapd_data *hapd)
  98:C:/Users/stapi/OneDrive/Desktop/GD32VW553/V1_MQTT_OK/GD32VW55X_Wifi_BLE_SDK/GD32VW55x_RELEASE_V1.0.2/MSDK/wpa_supplicant/src/ap\bss_load.c **** {
 332              		.loc 1 98 1 is_stmt 1
 333              		.cfi_startproc
 334              	.LVL29:
  99:C:/Users/stapi/OneDrive/Desktop/GD32VW553/V1_MQTT_OK/GD32VW55X_Wifi_BLE_SDK/GD32VW55x_RELEASE_V1.0.2/MSDK/wpa_supplicant/src/ap\bss_load.c **** 	eloop_cancel_timeout(update_channel_utilization, hapd, NULL);
 335              		.loc 1 99 2
  98:C:/Users/stapi/OneDrive/Desktop/GD32VW553/V1_MQTT_OK/GD32VW55X_Wifi_BLE_SDK/GD32VW55x_RELEASE_V1.0.2/MSDK/wpa_supplicant/src/ap\bss_load.c **** 	eloop_cancel_timeout(update_channel_utilization, hapd, NULL);
 336              		.loc 1 98 1 is_stmt 0
 337 0000 AA85     		mv	a1,a0
 338              		.loc 1 99 2
 339 0002 37050000 		lui	a0,%hi(update_channel_utilization)
 340              	.LVL30:
 341 0006 0146     		li	a2,0
 342 0008 13050500 		addi	a0,a0,%lo(update_channel_utilization)
 343 000c 17030000 		tail	eloop_cancel_timeout
 343      67000300 
 344              	.LVL31:
 345              		.cfi_endproc
 346              	.LFE166:
 348              		.text
 349              	.Letext0:
 350              		.file 3 "c:\\users\\stapi\\onedrive\\desktop\\gd32vw553\\embeddedbuilder_v1.4.7.26843\\tools\\nucl
 351              		.file 4 "c:\\users\\stapi\\onedrive\\desktop\\gd32vw553\\embeddedbuilder_v1.4.7.26843\\tools\\nucl
 352              		.file 5 "c:\\users\\stapi\\onedrive\\desktop\\gd32vw553\\embeddedbuilder_v1.4.7.26843\\tools\\nucl
 353              		.file 6 "..\\..\\..\\..\\lwip\\lwip-2.1.2\\src\\include/lwip/arch.h"
 354              		.file 7 "..\\..\\..\\..\\lwip\\lwip-2.1.2\\src\\include/lwip/inet.h"
 355              		.file 8 "..\\..\\..\\..\\wpa_supplicant\\src/utils/os.h"
 356              		.file 9 "..\\..\\..\\..\\wpa_supplicant\\src/utils/common.h"
 357              		.file 10 "..\\..\\..\\..\\wpa_supplicant\\src/utils/wpabuf.h"
 358              		.file 11 "..\\..\\..\\..\\wpa_supplicant\\src/utils/wpa_debug.h"
 359              		.file 12 "..\\..\\..\\..\\wpa_supplicant\\src/common/defs.h"
 360              		.file 13 "..\\..\\..\\..\\wpa_supplicant\\src/utils/list.h"
 361              		.file 14 "..\\..\\..\\..\\wpa_supplicant\\src/utils/ip_addr.h"
 362              		.file 15 "..\\..\\..\\..\\wpa_supplicant\\src/common/ieee802_11_defs.h"
 363              		.file 16 "..\\..\\..\\..\\wpa_supplicant\\src/common/ieee802_11_common.h"
 364              		.file 17 "..\\..\\..\\..\\wpa_supplicant\\src/wps/wps_defs.h"
 365              		.file 18 "..\\..\\..\\..\\wpa_supplicant\\src/wps/wps.h"
 366              		.file 19 "C:/Users/stapi/OneDrive/Desktop/GD32VW553/V1_MQTT_OK/GD32VW55X_Wifi_BLE_SDK/GD32VW55x_RE
 367              		.file 20 "C:/Users/stapi/OneDrive/Desktop/GD32VW553/V1_MQTT_OK/GD32VW55X_Wifi_BLE_SDK/GD32VW55x_RE
 368              		.file 21 "..\\..\\..\\..\\wpa_supplicant\\src/drivers/driver.h"
 369              		.file 22 "C:/Users/stapi/OneDrive/Desktop/GD32VW553/V1_MQTT_OK/GD32VW55X_Wifi_BLE_SDK/GD32VW55x_RE
 370              		.file 23 "..\\..\\..\\..\\wpa_supplicant\\src/utils/eloop.h"
 371              		.file 24 "C:/Users/stapi/OneDrive/Desktop/GD32VW553/V1_MQTT_OK/GD32VW55X_Wifi_BLE_SDK/GD32VW55x_RE