   1              		.file	"eap_server_methods.c"
   2              		.option nopic
   3              		.attribute arch, "rv32i2p0_m2p0_a2p0_f2p0_c2p0_b_p0p94"
   4              		.attribute unaligned_access, 0
   5              		.attribute stack_align, 16
   6              		.text
   7              	.Ltext0:
   8              		.cfi_sections	.debug_frame
   9              		.section	.text.eap_server_get_eap_method,"ax",@progbits
  10              		.align	1
  11              		.globl	eap_server_get_eap_method
  13              	eap_server_get_eap_method:
  14              	.LFB94:
  15              		.file 1 "C:/Users/stapi/OneDrive/Desktop/GD32VW553/V1_MQTT_OK/GD32VW55X_Wifi_BLE_SDK/GD32VW55x_REL
   1:C:/Users/stapi/OneDrive/Desktop/GD32VW553/V1_MQTT_OK/GD32VW55X_Wifi_BLE_SDK/GD32VW55x_RELEASE_V1.0.2/MSDK/wpa_supplicant/src/eap_server\eap_server_methods.c **** /*
   2:C:/Users/stapi/OneDrive/Desktop/GD32VW553/V1_MQTT_OK/GD32VW55X_Wifi_BLE_SDK/GD32VW55x_RELEASE_V1.0.2/MSDK/wpa_supplicant/src/eap_server\eap_server_methods.c ****  * EAP server method registration
   3:C:/Users/stapi/OneDrive/Desktop/GD32VW553/V1_MQTT_OK/GD32VW55X_Wifi_BLE_SDK/GD32VW55x_RELEASE_V1.0.2/MSDK/wpa_supplicant/src/eap_server\eap_server_methods.c ****  * Copyright (c) 2004-2009, Jouni Malinen <j@w1.fi>
   4:C:/Users/stapi/OneDrive/Desktop/GD32VW553/V1_MQTT_OK/GD32VW55X_Wifi_BLE_SDK/GD32VW55x_RELEASE_V1.0.2/MSDK/wpa_supplicant/src/eap_server\eap_server_methods.c ****  *
   5:C:/Users/stapi/OneDrive/Desktop/GD32VW553/V1_MQTT_OK/GD32VW55X_Wifi_BLE_SDK/GD32VW55x_RELEASE_V1.0.2/MSDK/wpa_supplicant/src/eap_server\eap_server_methods.c ****  * This software may be distributed under the terms of the BSD license.
   6:C:/Users/stapi/OneDrive/Desktop/GD32VW553/V1_MQTT_OK/GD32VW55X_Wifi_BLE_SDK/GD32VW55x_RELEASE_V1.0.2/MSDK/wpa_supplicant/src/eap_server\eap_server_methods.c ****  * See README for more details.
   7:C:/Users/stapi/OneDrive/Desktop/GD32VW553/V1_MQTT_OK/GD32VW55X_Wifi_BLE_SDK/GD32VW55x_RELEASE_V1.0.2/MSDK/wpa_supplicant/src/eap_server\eap_server_methods.c ****  */
   8:C:/Users/stapi/OneDrive/Desktop/GD32VW553/V1_MQTT_OK/GD32VW55X_Wifi_BLE_SDK/GD32VW55x_RELEASE_V1.0.2/MSDK/wpa_supplicant/src/eap_server\eap_server_methods.c **** 
   9:C:/Users/stapi/OneDrive/Desktop/GD32VW553/V1_MQTT_OK/GD32VW55X_Wifi_BLE_SDK/GD32VW55x_RELEASE_V1.0.2/MSDK/wpa_supplicant/src/eap_server\eap_server_methods.c **** #include "includes.h"
  10:C:/Users/stapi/OneDrive/Desktop/GD32VW553/V1_MQTT_OK/GD32VW55X_Wifi_BLE_SDK/GD32VW55x_RELEASE_V1.0.2/MSDK/wpa_supplicant/src/eap_server\eap_server_methods.c **** 
  11:C:/Users/stapi/OneDrive/Desktop/GD32VW553/V1_MQTT_OK/GD32VW55X_Wifi_BLE_SDK/GD32VW55x_RELEASE_V1.0.2/MSDK/wpa_supplicant/src/eap_server\eap_server_methods.c **** #include "common.h"
  12:C:/Users/stapi/OneDrive/Desktop/GD32VW553/V1_MQTT_OK/GD32VW55X_Wifi_BLE_SDK/GD32VW55x_RELEASE_V1.0.2/MSDK/wpa_supplicant/src/eap_server\eap_server_methods.c **** #include "eap_i.h"
  13:C:/Users/stapi/OneDrive/Desktop/GD32VW553/V1_MQTT_OK/GD32VW55X_Wifi_BLE_SDK/GD32VW55x_RELEASE_V1.0.2/MSDK/wpa_supplicant/src/eap_server\eap_server_methods.c **** #include "eap_methods.h"
  14:C:/Users/stapi/OneDrive/Desktop/GD32VW553/V1_MQTT_OK/GD32VW55X_Wifi_BLE_SDK/GD32VW55x_RELEASE_V1.0.2/MSDK/wpa_supplicant/src/eap_server\eap_server_methods.c **** 
  15:C:/Users/stapi/OneDrive/Desktop/GD32VW553/V1_MQTT_OK/GD32VW55X_Wifi_BLE_SDK/GD32VW55x_RELEASE_V1.0.2/MSDK/wpa_supplicant/src/eap_server\eap_server_methods.c **** 
  16:C:/Users/stapi/OneDrive/Desktop/GD32VW553/V1_MQTT_OK/GD32VW55X_Wifi_BLE_SDK/GD32VW55x_RELEASE_V1.0.2/MSDK/wpa_supplicant/src/eap_server\eap_server_methods.c **** static struct eap_method *eap_methods;
  17:C:/Users/stapi/OneDrive/Desktop/GD32VW553/V1_MQTT_OK/GD32VW55X_Wifi_BLE_SDK/GD32VW55x_RELEASE_V1.0.2/MSDK/wpa_supplicant/src/eap_server\eap_server_methods.c **** 
  18:C:/Users/stapi/OneDrive/Desktop/GD32VW553/V1_MQTT_OK/GD32VW55X_Wifi_BLE_SDK/GD32VW55x_RELEASE_V1.0.2/MSDK/wpa_supplicant/src/eap_server\eap_server_methods.c **** 
  19:C:/Users/stapi/OneDrive/Desktop/GD32VW553/V1_MQTT_OK/GD32VW55X_Wifi_BLE_SDK/GD32VW55x_RELEASE_V1.0.2/MSDK/wpa_supplicant/src/eap_server\eap_server_methods.c **** /**
  20:C:/Users/stapi/OneDrive/Desktop/GD32VW553/V1_MQTT_OK/GD32VW55X_Wifi_BLE_SDK/GD32VW55x_RELEASE_V1.0.2/MSDK/wpa_supplicant/src/eap_server\eap_server_methods.c ****  * eap_server_get_eap_method - Get EAP method based on type number
  21:C:/Users/stapi/OneDrive/Desktop/GD32VW553/V1_MQTT_OK/GD32VW55X_Wifi_BLE_SDK/GD32VW55x_RELEASE_V1.0.2/MSDK/wpa_supplicant/src/eap_server\eap_server_methods.c ****  * @vendor: EAP Vendor-Id (0 = IETF)
  22:C:/Users/stapi/OneDrive/Desktop/GD32VW553/V1_MQTT_OK/GD32VW55X_Wifi_BLE_SDK/GD32VW55x_RELEASE_V1.0.2/MSDK/wpa_supplicant/src/eap_server\eap_server_methods.c ****  * @method: EAP type number
  23:C:/Users/stapi/OneDrive/Desktop/GD32VW553/V1_MQTT_OK/GD32VW55X_Wifi_BLE_SDK/GD32VW55x_RELEASE_V1.0.2/MSDK/wpa_supplicant/src/eap_server\eap_server_methods.c ****  * Returns: Pointer to EAP method or %NULL if not found
  24:C:/Users/stapi/OneDrive/Desktop/GD32VW553/V1_MQTT_OK/GD32VW55X_Wifi_BLE_SDK/GD32VW55x_RELEASE_V1.0.2/MSDK/wpa_supplicant/src/eap_server\eap_server_methods.c ****  */
  25:C:/Users/stapi/OneDrive/Desktop/GD32VW553/V1_MQTT_OK/GD32VW55X_Wifi_BLE_SDK/GD32VW55x_RELEASE_V1.0.2/MSDK/wpa_supplicant/src/eap_server\eap_server_methods.c **** const struct eap_method * eap_server_get_eap_method(int vendor,
  26:C:/Users/stapi/OneDrive/Desktop/GD32VW553/V1_MQTT_OK/GD32VW55X_Wifi_BLE_SDK/GD32VW55x_RELEASE_V1.0.2/MSDK/wpa_supplicant/src/eap_server\eap_server_methods.c **** 						    enum eap_type method)
  27:C:/Users/stapi/OneDrive/Desktop/GD32VW553/V1_MQTT_OK/GD32VW55X_Wifi_BLE_SDK/GD32VW55x_RELEASE_V1.0.2/MSDK/wpa_supplicant/src/eap_server\eap_server_methods.c **** {
  16              		.loc 1 27 1
  17              		.cfi_startproc
  18              	.LVL0:
  28:C:/Users/stapi/OneDrive/Desktop/GD32VW553/V1_MQTT_OK/GD32VW55X_Wifi_BLE_SDK/GD32VW55x_RELEASE_V1.0.2/MSDK/wpa_supplicant/src/eap_server\eap_server_methods.c **** 	struct eap_method *m;
  19              		.loc 1 28 2
  29:C:/Users/stapi/OneDrive/Desktop/GD32VW553/V1_MQTT_OK/GD32VW55X_Wifi_BLE_SDK/GD32VW55x_RELEASE_V1.0.2/MSDK/wpa_supplicant/src/eap_server\eap_server_methods.c **** 	for (m = eap_methods; m; m = m->next) {
  20              		.loc 1 29 2
  21              		.loc 1 29 9 is_stmt 0
  22 0000 37070000 		lui	a4,%hi(.LANCHOR0)
  27:C:/Users/stapi/OneDrive/Desktop/GD32VW553/V1_MQTT_OK/GD32VW55X_Wifi_BLE_SDK/GD32VW55x_RELEASE_V1.0.2/MSDK/wpa_supplicant/src/eap_server\eap_server_methods.c **** 	struct eap_method *m;
  23              		.loc 1 27 1
  24 0004 AA87     		mv	a5,a0
  25              		.loc 1 29 9
  26 0006 03250700 		lw	a0,%lo(.LANCHOR0)(a4)
  27              	.LVL1:
  28              	.L2:
  29              		.loc 1 29 24 is_stmt 1 discriminator 1
  30              		.loc 1 29 2 is_stmt 0 discriminator 1
  31 000a 11E1     		bne	a0,zero,.L5
  32              	.L1:
  30:C:/Users/stapi/OneDrive/Desktop/GD32VW553/V1_MQTT_OK/GD32VW55X_Wifi_BLE_SDK/GD32VW55x_RELEASE_V1.0.2/MSDK/wpa_supplicant/src/eap_server\eap_server_methods.c **** 		if (m->vendor == vendor && m->method == method)
  31:C:/Users/stapi/OneDrive/Desktop/GD32VW553/V1_MQTT_OK/GD32VW55X_Wifi_BLE_SDK/GD32VW55x_RELEASE_V1.0.2/MSDK/wpa_supplicant/src/eap_server\eap_server_methods.c **** 			return m;
  32:C:/Users/stapi/OneDrive/Desktop/GD32VW553/V1_MQTT_OK/GD32VW55X_Wifi_BLE_SDK/GD32VW55x_RELEASE_V1.0.2/MSDK/wpa_supplicant/src/eap_server\eap_server_methods.c **** 	}
  33:C:/Users/stapi/OneDrive/Desktop/GD32VW553/V1_MQTT_OK/GD32VW55X_Wifi_BLE_SDK/GD32VW55x_RELEASE_V1.0.2/MSDK/wpa_supplicant/src/eap_server\eap_server_methods.c **** 	return NULL;
  34:C:/Users/stapi/OneDrive/Desktop/GD32VW553/V1_MQTT_OK/GD32VW55X_Wifi_BLE_SDK/GD32VW55x_RELEASE_V1.0.2/MSDK/wpa_supplicant/src/eap_server\eap_server_methods.c **** }
  33              		.loc 1 34 1
  34 000c 8280     		ret
  35              	.L5:
  30:C:/Users/stapi/OneDrive/Desktop/GD32VW553/V1_MQTT_OK/GD32VW55X_Wifi_BLE_SDK/GD32VW55x_RELEASE_V1.0.2/MSDK/wpa_supplicant/src/eap_server\eap_server_methods.c **** 		if (m->vendor == vendor && m->method == method)
  36              		.loc 1 30 3 is_stmt 1
  30:C:/Users/stapi/OneDrive/Desktop/GD32VW553/V1_MQTT_OK/GD32VW55X_Wifi_BLE_SDK/GD32VW55x_RELEASE_V1.0.2/MSDK/wpa_supplicant/src/eap_server\eap_server_methods.c **** 		if (m->vendor == vendor && m->method == method)
  37              		.loc 1 30 6 is_stmt 0
  38 000e 1841     		lw	a4,0(a0)
  39 0010 6315F700 		bne	a4,a5,.L3
  30:C:/Users/stapi/OneDrive/Desktop/GD32VW553/V1_MQTT_OK/GD32VW55X_Wifi_BLE_SDK/GD32VW55x_RELEASE_V1.0.2/MSDK/wpa_supplicant/src/eap_server\eap_server_methods.c **** 		if (m->vendor == vendor && m->method == method)
  40              		.loc 1 30 27 discriminator 1
  41 0014 5841     		lw	a4,4(a0)
  42 0016 E30BB7FE 		beq	a4,a1,.L1
  43              	.L3:
  29:C:/Users/stapi/OneDrive/Desktop/GD32VW553/V1_MQTT_OK/GD32VW55X_Wifi_BLE_SDK/GD32VW55x_RELEASE_V1.0.2/MSDK/wpa_supplicant/src/eap_server\eap_server_methods.c **** 		if (m->vendor == vendor && m->method == method)
  44              		.loc 1 29 27 is_stmt 1 discriminator 2
  29:C:/Users/stapi/OneDrive/Desktop/GD32VW553/V1_MQTT_OK/GD32VW55X_Wifi_BLE_SDK/GD32VW55x_RELEASE_V1.0.2/MSDK/wpa_supplicant/src/eap_server\eap_server_methods.c **** 		if (m->vendor == vendor && m->method == method)
  45              		.loc 1 29 29 is_stmt 0 discriminator 2
  46 001a 485D     		lw	a0,60(a0)
  47              	.LVL2:
  48 001c FDB7     		j	.L2
  49              		.cfi_endproc
  50              	.LFE94:
  52              		.section	.text.eap_server_get_type,"ax",@progbits
  53              		.align	1
  54              		.globl	eap_server_get_type
  56              	eap_server_get_type:
  57              	.LFB95:
  35:C:/Users/stapi/OneDrive/Desktop/GD32VW553/V1_MQTT_OK/GD32VW55X_Wifi_BLE_SDK/GD32VW55x_RELEASE_V1.0.2/MSDK/wpa_supplicant/src/eap_server\eap_server_methods.c **** 
  36:C:/Users/stapi/OneDrive/Desktop/GD32VW553/V1_MQTT_OK/GD32VW55X_Wifi_BLE_SDK/GD32VW55x_RELEASE_V1.0.2/MSDK/wpa_supplicant/src/eap_server\eap_server_methods.c **** 
  37:C:/Users/stapi/OneDrive/Desktop/GD32VW553/V1_MQTT_OK/GD32VW55X_Wifi_BLE_SDK/GD32VW55x_RELEASE_V1.0.2/MSDK/wpa_supplicant/src/eap_server\eap_server_methods.c **** /**
  38:C:/Users/stapi/OneDrive/Desktop/GD32VW553/V1_MQTT_OK/GD32VW55X_Wifi_BLE_SDK/GD32VW55x_RELEASE_V1.0.2/MSDK/wpa_supplicant/src/eap_server\eap_server_methods.c ****  * eap_server_get_type - Get EAP type for the given EAP method name
  39:C:/Users/stapi/OneDrive/Desktop/GD32VW553/V1_MQTT_OK/GD32VW55X_Wifi_BLE_SDK/GD32VW55x_RELEASE_V1.0.2/MSDK/wpa_supplicant/src/eap_server\eap_server_methods.c ****  * @name: EAP method name, e.g., TLS
  40:C:/Users/stapi/OneDrive/Desktop/GD32VW553/V1_MQTT_OK/GD32VW55X_Wifi_BLE_SDK/GD32VW55x_RELEASE_V1.0.2/MSDK/wpa_supplicant/src/eap_server\eap_server_methods.c ****  * @vendor: Buffer for returning EAP Vendor-Id
  41:C:/Users/stapi/OneDrive/Desktop/GD32VW553/V1_MQTT_OK/GD32VW55X_Wifi_BLE_SDK/GD32VW55x_RELEASE_V1.0.2/MSDK/wpa_supplicant/src/eap_server\eap_server_methods.c ****  * Returns: EAP method type or %EAP_TYPE_NONE if not found
  42:C:/Users/stapi/OneDrive/Desktop/GD32VW553/V1_MQTT_OK/GD32VW55X_Wifi_BLE_SDK/GD32VW55x_RELEASE_V1.0.2/MSDK/wpa_supplicant/src/eap_server\eap_server_methods.c ****  *
  43:C:/Users/stapi/OneDrive/Desktop/GD32VW553/V1_MQTT_OK/GD32VW55X_Wifi_BLE_SDK/GD32VW55x_RELEASE_V1.0.2/MSDK/wpa_supplicant/src/eap_server\eap_server_methods.c ****  * This function maps EAP type names into EAP type numbers based on the list of
  44:C:/Users/stapi/OneDrive/Desktop/GD32VW553/V1_MQTT_OK/GD32VW55X_Wifi_BLE_SDK/GD32VW55x_RELEASE_V1.0.2/MSDK/wpa_supplicant/src/eap_server\eap_server_methods.c ****  * EAP methods included in the build.
  45:C:/Users/stapi/OneDrive/Desktop/GD32VW553/V1_MQTT_OK/GD32VW55X_Wifi_BLE_SDK/GD32VW55x_RELEASE_V1.0.2/MSDK/wpa_supplicant/src/eap_server\eap_server_methods.c ****  */
  46:C:/Users/stapi/OneDrive/Desktop/GD32VW553/V1_MQTT_OK/GD32VW55X_Wifi_BLE_SDK/GD32VW55x_RELEASE_V1.0.2/MSDK/wpa_supplicant/src/eap_server\eap_server_methods.c **** enum eap_type eap_server_get_type(const char *name, int *vendor)
  47:C:/Users/stapi/OneDrive/Desktop/GD32VW553/V1_MQTT_OK/GD32VW55X_Wifi_BLE_SDK/GD32VW55x_RELEASE_V1.0.2/MSDK/wpa_supplicant/src/eap_server\eap_server_methods.c **** {
  58              		.loc 1 47 1 is_stmt 1
  59              		.cfi_startproc
  60              	.LVL3:
  61 0000 17030000 		call	t0,__riscv_save_3
  61      E7020300 
  62              		.cfi_offset 18, -16
  63              		.cfi_offset 9, -12
  64              		.cfi_offset 8, -8
  65              		.cfi_offset 1, -4
  66              		.cfi_def_cfa_offset 16
  48:C:/Users/stapi/OneDrive/Desktop/GD32VW553/V1_MQTT_OK/GD32VW55X_Wifi_BLE_SDK/GD32VW55x_RELEASE_V1.0.2/MSDK/wpa_supplicant/src/eap_server\eap_server_methods.c **** 	struct eap_method *m;
  67              		.loc 1 48 2
  49:C:/Users/stapi/OneDrive/Desktop/GD32VW553/V1_MQTT_OK/GD32VW55X_Wifi_BLE_SDK/GD32VW55x_RELEASE_V1.0.2/MSDK/wpa_supplicant/src/eap_server\eap_server_methods.c **** 	for (m = eap_methods; m; m = m->next) {
  68              		.loc 1 49 2
  69              		.loc 1 49 9 is_stmt 0
  70 0008 B7070000 		lui	a5,%hi(.LANCHOR0)
  71 000c 03A40700 		lw	s0,%lo(.LANCHOR0)(a5)
  72              	.LVL4:
  47:C:/Users/stapi/OneDrive/Desktop/GD32VW553/V1_MQTT_OK/GD32VW55X_Wifi_BLE_SDK/GD32VW55x_RELEASE_V1.0.2/MSDK/wpa_supplicant/src/eap_server\eap_server_methods.c **** 	struct eap_method *m;
  73              		.loc 1 47 1
  74 0010 2A89     		mv	s2,a0
  75 0012 AE84     		mv	s1,a1
  76              	.LVL5:
  77              	.L7:
  78              		.loc 1 49 24 is_stmt 1 discriminator 1
  79              		.loc 1 49 2 is_stmt 0 discriminator 1
  80 0014 09E4     		bne	s0,zero,.L10
  50:C:/Users/stapi/OneDrive/Desktop/GD32VW553/V1_MQTT_OK/GD32VW55X_Wifi_BLE_SDK/GD32VW55x_RELEASE_V1.0.2/MSDK/wpa_supplicant/src/eap_server\eap_server_methods.c **** 		if (os_strcmp(m->name, name) == 0) {
  51:C:/Users/stapi/OneDrive/Desktop/GD32VW553/V1_MQTT_OK/GD32VW55X_Wifi_BLE_SDK/GD32VW55x_RELEASE_V1.0.2/MSDK/wpa_supplicant/src/eap_server\eap_server_methods.c **** 			*vendor = m->vendor;
  52:C:/Users/stapi/OneDrive/Desktop/GD32VW553/V1_MQTT_OK/GD32VW55X_Wifi_BLE_SDK/GD32VW55x_RELEASE_V1.0.2/MSDK/wpa_supplicant/src/eap_server\eap_server_methods.c **** 			return m->method;
  53:C:/Users/stapi/OneDrive/Desktop/GD32VW553/V1_MQTT_OK/GD32VW55X_Wifi_BLE_SDK/GD32VW55x_RELEASE_V1.0.2/MSDK/wpa_supplicant/src/eap_server\eap_server_methods.c **** 		}
  54:C:/Users/stapi/OneDrive/Desktop/GD32VW553/V1_MQTT_OK/GD32VW55X_Wifi_BLE_SDK/GD32VW55x_RELEASE_V1.0.2/MSDK/wpa_supplicant/src/eap_server\eap_server_methods.c **** 	}
  55:C:/Users/stapi/OneDrive/Desktop/GD32VW553/V1_MQTT_OK/GD32VW55X_Wifi_BLE_SDK/GD32VW55x_RELEASE_V1.0.2/MSDK/wpa_supplicant/src/eap_server\eap_server_methods.c **** 	*vendor = EAP_VENDOR_IETF;
  81              		.loc 1 55 2 is_stmt 1
  82              		.loc 1 55 10 is_stmt 0
  83 0016 23A00400 		sw	zero,0(s1)
  56:C:/Users/stapi/OneDrive/Desktop/GD32VW553/V1_MQTT_OK/GD32VW55X_Wifi_BLE_SDK/GD32VW55x_RELEASE_V1.0.2/MSDK/wpa_supplicant/src/eap_server\eap_server_methods.c **** 	return EAP_TYPE_NONE;
  84              		.loc 1 56 2 is_stmt 1
  85              		.loc 1 56 9 is_stmt 0
  86 001a 0145     		li	a0,0
  87 001c 19A8     		j	.L6
  88              	.L10:
  50:C:/Users/stapi/OneDrive/Desktop/GD32VW553/V1_MQTT_OK/GD32VW55X_Wifi_BLE_SDK/GD32VW55x_RELEASE_V1.0.2/MSDK/wpa_supplicant/src/eap_server\eap_server_methods.c **** 		if (os_strcmp(m->name, name) == 0) {
  89              		.loc 1 50 3 is_stmt 1
  50:C:/Users/stapi/OneDrive/Desktop/GD32VW553/V1_MQTT_OK/GD32VW55X_Wifi_BLE_SDK/GD32VW55x_RELEASE_V1.0.2/MSDK/wpa_supplicant/src/eap_server\eap_server_methods.c **** 		if (os_strcmp(m->name, name) == 0) {
  90              		.loc 1 50 7 is_stmt 0
  91 001e 0844     		lw	a0,8(s0)
  92 0020 CA85     		mv	a1,s2
  93 0022 97000000 		call	os_strcmp
  93      E7800000 
  94              	.LVL6:
  50:C:/Users/stapi/OneDrive/Desktop/GD32VW553/V1_MQTT_OK/GD32VW55X_Wifi_BLE_SDK/GD32VW55x_RELEASE_V1.0.2/MSDK/wpa_supplicant/src/eap_server\eap_server_methods.c **** 		if (os_strcmp(m->name, name) == 0) {
  95              		.loc 1 50 6
  96 002a 01E9     		bne	a0,zero,.L8
  51:C:/Users/stapi/OneDrive/Desktop/GD32VW553/V1_MQTT_OK/GD32VW55X_Wifi_BLE_SDK/GD32VW55x_RELEASE_V1.0.2/MSDK/wpa_supplicant/src/eap_server\eap_server_methods.c **** 			return m->method;
  97              		.loc 1 51 4 is_stmt 1
  51:C:/Users/stapi/OneDrive/Desktop/GD32VW553/V1_MQTT_OK/GD32VW55X_Wifi_BLE_SDK/GD32VW55x_RELEASE_V1.0.2/MSDK/wpa_supplicant/src/eap_server\eap_server_methods.c **** 			return m->method;
  98              		.loc 1 51 15 is_stmt 0
  99 002c 1C40     		lw	a5,0(s0)
  51:C:/Users/stapi/OneDrive/Desktop/GD32VW553/V1_MQTT_OK/GD32VW55X_Wifi_BLE_SDK/GD32VW55x_RELEASE_V1.0.2/MSDK/wpa_supplicant/src/eap_server\eap_server_methods.c **** 			return m->method;
 100              		.loc 1 51 12
 101 002e 9CC0     		sw	a5,0(s1)
  52:C:/Users/stapi/OneDrive/Desktop/GD32VW553/V1_MQTT_OK/GD32VW55X_Wifi_BLE_SDK/GD32VW55x_RELEASE_V1.0.2/MSDK/wpa_supplicant/src/eap_server\eap_server_methods.c **** 		}
 102              		.loc 1 52 4 is_stmt 1
  52:C:/Users/stapi/OneDrive/Desktop/GD32VW553/V1_MQTT_OK/GD32VW55X_Wifi_BLE_SDK/GD32VW55x_RELEASE_V1.0.2/MSDK/wpa_supplicant/src/eap_server\eap_server_methods.c **** 		}
 103              		.loc 1 52 12 is_stmt 0
 104 0030 4840     		lw	a0,4(s0)
 105              	.L6:
  57:C:/Users/stapi/OneDrive/Desktop/GD32VW553/V1_MQTT_OK/GD32VW55X_Wifi_BLE_SDK/GD32VW55x_RELEASE_V1.0.2/MSDK/wpa_supplicant/src/eap_server\eap_server_methods.c **** }
 106              		.loc 1 57 1
 107 0032 17030000 		tail	__riscv_restore_3
 107      67000300 
 108              		.cfi_remember_state
 109              		.cfi_restore 18
 110              		.cfi_restore 9
 111              		.cfi_restore 8
 112              		.cfi_restore 1
 113              		.cfi_def_cfa_offset 0
 114              	.L8:
 115              		.cfi_restore_state
  49:C:/Users/stapi/OneDrive/Desktop/GD32VW553/V1_MQTT_OK/GD32VW55X_Wifi_BLE_SDK/GD32VW55x_RELEASE_V1.0.2/MSDK/wpa_supplicant/src/eap_server\eap_server_methods.c **** 		if (os_strcmp(m->name, name) == 0) {
 116              		.loc 1 49 27 is_stmt 1 discriminator 2
  49:C:/Users/stapi/OneDrive/Desktop/GD32VW553/V1_MQTT_OK/GD32VW55X_Wifi_BLE_SDK/GD32VW55x_RELEASE_V1.0.2/MSDK/wpa_supplicant/src/eap_server\eap_server_methods.c **** 		if (os_strcmp(m->name, name) == 0) {
 117              		.loc 1 49 29 is_stmt 0 discriminator 2
 118 003a 405C     		lw	s0,60(s0)
 119              	.LVL7:
 120 003c E1BF     		j	.L7
 121              		.cfi_endproc
 122              	.LFE95:
 124              		.section	.text.eap_server_method_alloc,"ax",@progbits
 125              		.align	1
 126              		.globl	eap_server_method_alloc
 128              	eap_server_method_alloc:
 129              	.LFB96:
  58:C:/Users/stapi/OneDrive/Desktop/GD32VW553/V1_MQTT_OK/GD32VW55X_Wifi_BLE_SDK/GD32VW55x_RELEASE_V1.0.2/MSDK/wpa_supplicant/src/eap_server\eap_server_methods.c **** 
  59:C:/Users/stapi/OneDrive/Desktop/GD32VW553/V1_MQTT_OK/GD32VW55X_Wifi_BLE_SDK/GD32VW55x_RELEASE_V1.0.2/MSDK/wpa_supplicant/src/eap_server\eap_server_methods.c **** 
  60:C:/Users/stapi/OneDrive/Desktop/GD32VW553/V1_MQTT_OK/GD32VW55X_Wifi_BLE_SDK/GD32VW55x_RELEASE_V1.0.2/MSDK/wpa_supplicant/src/eap_server\eap_server_methods.c **** /**
  61:C:/Users/stapi/OneDrive/Desktop/GD32VW553/V1_MQTT_OK/GD32VW55X_Wifi_BLE_SDK/GD32VW55x_RELEASE_V1.0.2/MSDK/wpa_supplicant/src/eap_server\eap_server_methods.c ****  * eap_server_method_alloc - Allocate EAP server method structure
  62:C:/Users/stapi/OneDrive/Desktop/GD32VW553/V1_MQTT_OK/GD32VW55X_Wifi_BLE_SDK/GD32VW55x_RELEASE_V1.0.2/MSDK/wpa_supplicant/src/eap_server\eap_server_methods.c ****  * @version: Version of the EAP server method interface (set to
  63:C:/Users/stapi/OneDrive/Desktop/GD32VW553/V1_MQTT_OK/GD32VW55X_Wifi_BLE_SDK/GD32VW55x_RELEASE_V1.0.2/MSDK/wpa_supplicant/src/eap_server\eap_server_methods.c ****  * EAP_SERVER_METHOD_INTERFACE_VERSION)
  64:C:/Users/stapi/OneDrive/Desktop/GD32VW553/V1_MQTT_OK/GD32VW55X_Wifi_BLE_SDK/GD32VW55x_RELEASE_V1.0.2/MSDK/wpa_supplicant/src/eap_server\eap_server_methods.c ****  * @vendor: EAP Vendor-ID (EAP_VENDOR_*) (0 = IETF)
  65:C:/Users/stapi/OneDrive/Desktop/GD32VW553/V1_MQTT_OK/GD32VW55X_Wifi_BLE_SDK/GD32VW55x_RELEASE_V1.0.2/MSDK/wpa_supplicant/src/eap_server\eap_server_methods.c ****  * @method: EAP type number (EAP_TYPE_*)
  66:C:/Users/stapi/OneDrive/Desktop/GD32VW553/V1_MQTT_OK/GD32VW55X_Wifi_BLE_SDK/GD32VW55x_RELEASE_V1.0.2/MSDK/wpa_supplicant/src/eap_server\eap_server_methods.c ****  * @name: Name of the method (e.g., "TLS")
  67:C:/Users/stapi/OneDrive/Desktop/GD32VW553/V1_MQTT_OK/GD32VW55X_Wifi_BLE_SDK/GD32VW55x_RELEASE_V1.0.2/MSDK/wpa_supplicant/src/eap_server\eap_server_methods.c ****  * Returns: Allocated EAP method structure or %NULL on failure
  68:C:/Users/stapi/OneDrive/Desktop/GD32VW553/V1_MQTT_OK/GD32VW55X_Wifi_BLE_SDK/GD32VW55x_RELEASE_V1.0.2/MSDK/wpa_supplicant/src/eap_server\eap_server_methods.c ****  *
  69:C:/Users/stapi/OneDrive/Desktop/GD32VW553/V1_MQTT_OK/GD32VW55X_Wifi_BLE_SDK/GD32VW55x_RELEASE_V1.0.2/MSDK/wpa_supplicant/src/eap_server\eap_server_methods.c ****  * The returned structure should be freed with eap_server_method_free() when it
  70:C:/Users/stapi/OneDrive/Desktop/GD32VW553/V1_MQTT_OK/GD32VW55X_Wifi_BLE_SDK/GD32VW55x_RELEASE_V1.0.2/MSDK/wpa_supplicant/src/eap_server\eap_server_methods.c ****  * is not needed anymore.
  71:C:/Users/stapi/OneDrive/Desktop/GD32VW553/V1_MQTT_OK/GD32VW55X_Wifi_BLE_SDK/GD32VW55x_RELEASE_V1.0.2/MSDK/wpa_supplicant/src/eap_server\eap_server_methods.c ****  */
  72:C:/Users/stapi/OneDrive/Desktop/GD32VW553/V1_MQTT_OK/GD32VW55X_Wifi_BLE_SDK/GD32VW55x_RELEASE_V1.0.2/MSDK/wpa_supplicant/src/eap_server\eap_server_methods.c **** struct eap_method * eap_server_method_alloc(int version, int vendor,
  73:C:/Users/stapi/OneDrive/Desktop/GD32VW553/V1_MQTT_OK/GD32VW55X_Wifi_BLE_SDK/GD32VW55x_RELEASE_V1.0.2/MSDK/wpa_supplicant/src/eap_server\eap_server_methods.c **** 					    enum eap_type method,
  74:C:/Users/stapi/OneDrive/Desktop/GD32VW553/V1_MQTT_OK/GD32VW55X_Wifi_BLE_SDK/GD32VW55x_RELEASE_V1.0.2/MSDK/wpa_supplicant/src/eap_server\eap_server_methods.c **** 					    const char *name)
  75:C:/Users/stapi/OneDrive/Desktop/GD32VW553/V1_MQTT_OK/GD32VW55X_Wifi_BLE_SDK/GD32VW55x_RELEASE_V1.0.2/MSDK/wpa_supplicant/src/eap_server\eap_server_methods.c **** {
 130              		.loc 1 75 1 is_stmt 1
 131              		.cfi_startproc
 132              	.LVL8:
 133 0000 17030000 		call	t0,__riscv_save_4
 133      E7020300 
 134              		.cfi_offset 19, -20
 135              		.cfi_offset 18, -16
 136              		.cfi_offset 9, -12
 137              		.cfi_offset 8, -8
 138              		.cfi_offset 1, -4
 139              		.cfi_def_cfa_offset 32
  76:C:/Users/stapi/OneDrive/Desktop/GD32VW553/V1_MQTT_OK/GD32VW55X_Wifi_BLE_SDK/GD32VW55x_RELEASE_V1.0.2/MSDK/wpa_supplicant/src/eap_server\eap_server_methods.c **** 	struct eap_method *eap;
 140              		.loc 1 76 2
  77:C:/Users/stapi/OneDrive/Desktop/GD32VW553/V1_MQTT_OK/GD32VW55X_Wifi_BLE_SDK/GD32VW55x_RELEASE_V1.0.2/MSDK/wpa_supplicant/src/eap_server\eap_server_methods.c **** 	eap = os_zalloc(sizeof(*eap));
 141              		.loc 1 77 2
  75:C:/Users/stapi/OneDrive/Desktop/GD32VW553/V1_MQTT_OK/GD32VW55X_Wifi_BLE_SDK/GD32VW55x_RELEASE_V1.0.2/MSDK/wpa_supplicant/src/eap_server\eap_server_methods.c **** 	struct eap_method *eap;
 142              		.loc 1 75 1 is_stmt 0
 143 0008 AA89     		mv	s3,a0
 144              		.loc 1 77 8
 145 000a 13058004 		li	a0,72
 146              	.LVL9:
  75:C:/Users/stapi/OneDrive/Desktop/GD32VW553/V1_MQTT_OK/GD32VW55X_Wifi_BLE_SDK/GD32VW55x_RELEASE_V1.0.2/MSDK/wpa_supplicant/src/eap_server\eap_server_methods.c **** 	struct eap_method *eap;
 147              		.loc 1 75 1
 148 000e 2E89     		mv	s2,a1
 149 0010 B284     		mv	s1,a2
 150 0012 3684     		mv	s0,a3
 151              		.loc 1 77 8
 152 0014 97000000 		call	os_zalloc
 152      E7800000 
 153              	.LVL10:
  78:C:/Users/stapi/OneDrive/Desktop/GD32VW553/V1_MQTT_OK/GD32VW55X_Wifi_BLE_SDK/GD32VW55x_RELEASE_V1.0.2/MSDK/wpa_supplicant/src/eap_server\eap_server_methods.c **** 	if (eap == NULL)
 154              		.loc 1 78 2 is_stmt 1
 155              		.loc 1 78 5 is_stmt 0
 156 001c 19C5     		beq	a0,zero,.L12
  79:C:/Users/stapi/OneDrive/Desktop/GD32VW553/V1_MQTT_OK/GD32VW55X_Wifi_BLE_SDK/GD32VW55x_RELEASE_V1.0.2/MSDK/wpa_supplicant/src/eap_server\eap_server_methods.c **** 		return NULL;
  80:C:/Users/stapi/OneDrive/Desktop/GD32VW553/V1_MQTT_OK/GD32VW55X_Wifi_BLE_SDK/GD32VW55x_RELEASE_V1.0.2/MSDK/wpa_supplicant/src/eap_server\eap_server_methods.c **** 	eap->version = version;
 157              		.loc 1 80 2 is_stmt 1
 158              		.loc 1 80 15 is_stmt 0
 159 001e 232C3503 		sw	s3,56(a0)
  81:C:/Users/stapi/OneDrive/Desktop/GD32VW553/V1_MQTT_OK/GD32VW55X_Wifi_BLE_SDK/GD32VW55x_RELEASE_V1.0.2/MSDK/wpa_supplicant/src/eap_server\eap_server_methods.c **** 	eap->vendor = vendor;
 160              		.loc 1 81 2 is_stmt 1
 161              		.loc 1 81 14 is_stmt 0
 162 0022 23202501 		sw	s2,0(a0)
  82:C:/Users/stapi/OneDrive/Desktop/GD32VW553/V1_MQTT_OK/GD32VW55X_Wifi_BLE_SDK/GD32VW55x_RELEASE_V1.0.2/MSDK/wpa_supplicant/src/eap_server\eap_server_methods.c **** 	eap->method = method;
 163              		.loc 1 82 2 is_stmt 1
 164              		.loc 1 82 14 is_stmt 0
 165 0026 44C1     		sw	s1,4(a0)
  83:C:/Users/stapi/OneDrive/Desktop/GD32VW553/V1_MQTT_OK/GD32VW55X_Wifi_BLE_SDK/GD32VW55x_RELEASE_V1.0.2/MSDK/wpa_supplicant/src/eap_server\eap_server_methods.c **** 	eap->name = name;
 166              		.loc 1 83 2 is_stmt 1
 167              		.loc 1 83 12 is_stmt 0
 168 0028 00C5     		sw	s0,8(a0)
  84:C:/Users/stapi/OneDrive/Desktop/GD32VW553/V1_MQTT_OK/GD32VW55X_Wifi_BLE_SDK/GD32VW55x_RELEASE_V1.0.2/MSDK/wpa_supplicant/src/eap_server\eap_server_methods.c **** 	return eap;
 169              		.loc 1 84 2 is_stmt 1
 170              	.L12:
  85:C:/Users/stapi/OneDrive/Desktop/GD32VW553/V1_MQTT_OK/GD32VW55X_Wifi_BLE_SDK/GD32VW55x_RELEASE_V1.0.2/MSDK/wpa_supplicant/src/eap_server\eap_server_methods.c **** }
 171              		.loc 1 85 1 is_stmt 0
 172 002a 17030000 		tail	__riscv_restore_4
 172      67000300 
 173              		.cfi_restore 19
 174              		.cfi_restore 18
 175              		.cfi_restore 9
 176              		.cfi_restore 8
 177              		.cfi_restore 1
 178              		.cfi_def_cfa_offset 0
 179              		.cfi_endproc
 180              	.LFE96:
 182              		.section	.text.eap_server_method_register,"ax",@progbits
 183              		.align	1
 184              		.globl	eap_server_method_register
 186              	eap_server_method_register:
 187              	.LFB98:
  86:C:/Users/stapi/OneDrive/Desktop/GD32VW553/V1_MQTT_OK/GD32VW55X_Wifi_BLE_SDK/GD32VW55x_RELEASE_V1.0.2/MSDK/wpa_supplicant/src/eap_server\eap_server_methods.c **** 
  87:C:/Users/stapi/OneDrive/Desktop/GD32VW553/V1_MQTT_OK/GD32VW55X_Wifi_BLE_SDK/GD32VW55x_RELEASE_V1.0.2/MSDK/wpa_supplicant/src/eap_server\eap_server_methods.c **** 
  88:C:/Users/stapi/OneDrive/Desktop/GD32VW553/V1_MQTT_OK/GD32VW55X_Wifi_BLE_SDK/GD32VW55x_RELEASE_V1.0.2/MSDK/wpa_supplicant/src/eap_server\eap_server_methods.c **** /**
  89:C:/Users/stapi/OneDrive/Desktop/GD32VW553/V1_MQTT_OK/GD32VW55X_Wifi_BLE_SDK/GD32VW55x_RELEASE_V1.0.2/MSDK/wpa_supplicant/src/eap_server\eap_server_methods.c ****  * eap_server_method_free - Free EAP server method structure
  90:C:/Users/stapi/OneDrive/Desktop/GD32VW553/V1_MQTT_OK/GD32VW55X_Wifi_BLE_SDK/GD32VW55x_RELEASE_V1.0.2/MSDK/wpa_supplicant/src/eap_server\eap_server_methods.c ****  * @method: Method structure allocated with eap_server_method_alloc()
  91:C:/Users/stapi/OneDrive/Desktop/GD32VW553/V1_MQTT_OK/GD32VW55X_Wifi_BLE_SDK/GD32VW55x_RELEASE_V1.0.2/MSDK/wpa_supplicant/src/eap_server\eap_server_methods.c ****  */
  92:C:/Users/stapi/OneDrive/Desktop/GD32VW553/V1_MQTT_OK/GD32VW55X_Wifi_BLE_SDK/GD32VW55x_RELEASE_V1.0.2/MSDK/wpa_supplicant/src/eap_server\eap_server_methods.c **** static void eap_server_method_free(struct eap_method *method)
  93:C:/Users/stapi/OneDrive/Desktop/GD32VW553/V1_MQTT_OK/GD32VW55X_Wifi_BLE_SDK/GD32VW55x_RELEASE_V1.0.2/MSDK/wpa_supplicant/src/eap_server\eap_server_methods.c **** {
  94:C:/Users/stapi/OneDrive/Desktop/GD32VW553/V1_MQTT_OK/GD32VW55X_Wifi_BLE_SDK/GD32VW55x_RELEASE_V1.0.2/MSDK/wpa_supplicant/src/eap_server\eap_server_methods.c **** 	os_free(method);
  95:C:/Users/stapi/OneDrive/Desktop/GD32VW553/V1_MQTT_OK/GD32VW55X_Wifi_BLE_SDK/GD32VW55x_RELEASE_V1.0.2/MSDK/wpa_supplicant/src/eap_server\eap_server_methods.c **** }
  96:C:/Users/stapi/OneDrive/Desktop/GD32VW553/V1_MQTT_OK/GD32VW55X_Wifi_BLE_SDK/GD32VW55x_RELEASE_V1.0.2/MSDK/wpa_supplicant/src/eap_server\eap_server_methods.c **** 
  97:C:/Users/stapi/OneDrive/Desktop/GD32VW553/V1_MQTT_OK/GD32VW55X_Wifi_BLE_SDK/GD32VW55x_RELEASE_V1.0.2/MSDK/wpa_supplicant/src/eap_server\eap_server_methods.c **** 
  98:C:/Users/stapi/OneDrive/Desktop/GD32VW553/V1_MQTT_OK/GD32VW55X_Wifi_BLE_SDK/GD32VW55x_RELEASE_V1.0.2/MSDK/wpa_supplicant/src/eap_server\eap_server_methods.c **** /**
  99:C:/Users/stapi/OneDrive/Desktop/GD32VW553/V1_MQTT_OK/GD32VW55X_Wifi_BLE_SDK/GD32VW55x_RELEASE_V1.0.2/MSDK/wpa_supplicant/src/eap_server\eap_server_methods.c ****  * eap_server_method_register - Register an EAP server method
 100:C:/Users/stapi/OneDrive/Desktop/GD32VW553/V1_MQTT_OK/GD32VW55X_Wifi_BLE_SDK/GD32VW55x_RELEASE_V1.0.2/MSDK/wpa_supplicant/src/eap_server\eap_server_methods.c ****  * @method: EAP method to register from eap_server_method_alloc()
 101:C:/Users/stapi/OneDrive/Desktop/GD32VW553/V1_MQTT_OK/GD32VW55X_Wifi_BLE_SDK/GD32VW55x_RELEASE_V1.0.2/MSDK/wpa_supplicant/src/eap_server\eap_server_methods.c ****  * Returns: 0 on success, -1 on invalid method, or -2 if a matching EAP method
 102:C:/Users/stapi/OneDrive/Desktop/GD32VW553/V1_MQTT_OK/GD32VW55X_Wifi_BLE_SDK/GD32VW55x_RELEASE_V1.0.2/MSDK/wpa_supplicant/src/eap_server\eap_server_methods.c ****  * has already been registered
 103:C:/Users/stapi/OneDrive/Desktop/GD32VW553/V1_MQTT_OK/GD32VW55X_Wifi_BLE_SDK/GD32VW55x_RELEASE_V1.0.2/MSDK/wpa_supplicant/src/eap_server\eap_server_methods.c ****  *
 104:C:/Users/stapi/OneDrive/Desktop/GD32VW553/V1_MQTT_OK/GD32VW55X_Wifi_BLE_SDK/GD32VW55x_RELEASE_V1.0.2/MSDK/wpa_supplicant/src/eap_server\eap_server_methods.c ****  * Each EAP server method needs to call this function to register itself as a
 105:C:/Users/stapi/OneDrive/Desktop/GD32VW553/V1_MQTT_OK/GD32VW55X_Wifi_BLE_SDK/GD32VW55x_RELEASE_V1.0.2/MSDK/wpa_supplicant/src/eap_server\eap_server_methods.c ****  * supported EAP method. The caller must not free the allocated method data
 106:C:/Users/stapi/OneDrive/Desktop/GD32VW553/V1_MQTT_OK/GD32VW55X_Wifi_BLE_SDK/GD32VW55x_RELEASE_V1.0.2/MSDK/wpa_supplicant/src/eap_server\eap_server_methods.c ****  * regardless of the return value.
 107:C:/Users/stapi/OneDrive/Desktop/GD32VW553/V1_MQTT_OK/GD32VW55X_Wifi_BLE_SDK/GD32VW55x_RELEASE_V1.0.2/MSDK/wpa_supplicant/src/eap_server\eap_server_methods.c ****  */
 108:C:/Users/stapi/OneDrive/Desktop/GD32VW553/V1_MQTT_OK/GD32VW55X_Wifi_BLE_SDK/GD32VW55x_RELEASE_V1.0.2/MSDK/wpa_supplicant/src/eap_server\eap_server_methods.c **** int eap_server_method_register(struct eap_method *method)
 109:C:/Users/stapi/OneDrive/Desktop/GD32VW553/V1_MQTT_OK/GD32VW55X_Wifi_BLE_SDK/GD32VW55x_RELEASE_V1.0.2/MSDK/wpa_supplicant/src/eap_server\eap_server_methods.c **** {
 188              		.loc 1 109 1 is_stmt 1
 189              		.cfi_startproc
 190              	.LVL11:
 191 0000 17030000 		call	t0,__riscv_save_3
 191      E7020300 
 192              		.cfi_offset 18, -16
 193              		.cfi_offset 9, -12
 194              		.cfi_offset 8, -8
 195              		.cfi_offset 1, -4
 196              		.cfi_def_cfa_offset 16
 110:C:/Users/stapi/OneDrive/Desktop/GD32VW553/V1_MQTT_OK/GD32VW55X_Wifi_BLE_SDK/GD32VW55x_RELEASE_V1.0.2/MSDK/wpa_supplicant/src/eap_server\eap_server_methods.c **** 	struct eap_method *m, *last = NULL;
 197              		.loc 1 110 2
 198              	.LVL12:
 111:C:/Users/stapi/OneDrive/Desktop/GD32VW553/V1_MQTT_OK/GD32VW55X_Wifi_BLE_SDK/GD32VW55x_RELEASE_V1.0.2/MSDK/wpa_supplicant/src/eap_server\eap_server_methods.c **** 
 112:C:/Users/stapi/OneDrive/Desktop/GD32VW553/V1_MQTT_OK/GD32VW55X_Wifi_BLE_SDK/GD32VW55x_RELEASE_V1.0.2/MSDK/wpa_supplicant/src/eap_server\eap_server_methods.c **** 	if (method == NULL || method->name == NULL ||
 199              		.loc 1 112 2
 109:C:/Users/stapi/OneDrive/Desktop/GD32VW553/V1_MQTT_OK/GD32VW55X_Wifi_BLE_SDK/GD32VW55x_RELEASE_V1.0.2/MSDK/wpa_supplicant/src/eap_server\eap_server_methods.c **** 	struct eap_method *m, *last = NULL;
 200              		.loc 1 109 1 is_stmt 0
 201 0008 2A84     		mv	s0,a0
 202              		.loc 1 112 5
 203 000a 19C5     		beq	a0,zero,.L19
 204              		.loc 1 112 21 discriminator 1
 205 000c 1C45     		lw	a5,8(a0)
 206 000e 89C7     		beq	a5,zero,.L19
 207              		.loc 1 112 45 discriminator 2
 208 0010 185D     		lw	a4,56(a0)
 209 0012 8547     		li	a5,1
 210 0014 630CF700 		beq	a4,a5,.L20
 211              	.L19:
 113:C:/Users/stapi/OneDrive/Desktop/GD32VW553/V1_MQTT_OK/GD32VW55X_Wifi_BLE_SDK/GD32VW55x_RELEASE_V1.0.2/MSDK/wpa_supplicant/src/eap_server\eap_server_methods.c **** 	    method->version != EAP_SERVER_METHOD_INTERFACE_VERSION) {
 114:C:/Users/stapi/OneDrive/Desktop/GD32VW553/V1_MQTT_OK/GD32VW55X_Wifi_BLE_SDK/GD32VW55x_RELEASE_V1.0.2/MSDK/wpa_supplicant/src/eap_server\eap_server_methods.c **** 		eap_server_method_free(method);
 212              		.loc 1 114 3 is_stmt 1
 213              	.LVL13:
 214              	.LBB8:
 215              	.LBB9:
  94:C:/Users/stapi/OneDrive/Desktop/GD32VW553/V1_MQTT_OK/GD32VW55X_Wifi_BLE_SDK/GD32VW55x_RELEASE_V1.0.2/MSDK/wpa_supplicant/src/eap_server\eap_server_methods.c **** }
 216              		.loc 1 94 2
 217 0018 2285     		mv	a0,s0
 218              	.LVL14:
 219 001a 97000000 		call	os_free
 219      E7800000 
 220              	.LVL15:
 221              	.LBE9:
 222              	.LBE8:
 115:C:/Users/stapi/OneDrive/Desktop/GD32VW553/V1_MQTT_OK/GD32VW55X_Wifi_BLE_SDK/GD32VW55x_RELEASE_V1.0.2/MSDK/wpa_supplicant/src/eap_server\eap_server_methods.c **** 		return -1;
 223              		.loc 1 115 3
 224              		.loc 1 115 10 is_stmt 0
 225 0022 7D55     		li	a0,-1
 226              	.LVL16:
 227              	.L18:
 116:C:/Users/stapi/OneDrive/Desktop/GD32VW553/V1_MQTT_OK/GD32VW55X_Wifi_BLE_SDK/GD32VW55x_RELEASE_V1.0.2/MSDK/wpa_supplicant/src/eap_server\eap_server_methods.c **** 	}
 117:C:/Users/stapi/OneDrive/Desktop/GD32VW553/V1_MQTT_OK/GD32VW55X_Wifi_BLE_SDK/GD32VW55x_RELEASE_V1.0.2/MSDK/wpa_supplicant/src/eap_server\eap_server_methods.c **** 
 118:C:/Users/stapi/OneDrive/Desktop/GD32VW553/V1_MQTT_OK/GD32VW55X_Wifi_BLE_SDK/GD32VW55x_RELEASE_V1.0.2/MSDK/wpa_supplicant/src/eap_server\eap_server_methods.c **** 	for (m = eap_methods; m; m = m->next) {
 119:C:/Users/stapi/OneDrive/Desktop/GD32VW553/V1_MQTT_OK/GD32VW55X_Wifi_BLE_SDK/GD32VW55x_RELEASE_V1.0.2/MSDK/wpa_supplicant/src/eap_server\eap_server_methods.c **** 		if ((m->vendor == method->vendor &&
 120:C:/Users/stapi/OneDrive/Desktop/GD32VW553/V1_MQTT_OK/GD32VW55X_Wifi_BLE_SDK/GD32VW55x_RELEASE_V1.0.2/MSDK/wpa_supplicant/src/eap_server\eap_server_methods.c **** 		     m->method == method->method) ||
 121:C:/Users/stapi/OneDrive/Desktop/GD32VW553/V1_MQTT_OK/GD32VW55X_Wifi_BLE_SDK/GD32VW55x_RELEASE_V1.0.2/MSDK/wpa_supplicant/src/eap_server\eap_server_methods.c **** 		    os_strcmp(m->name, method->name) == 0) {
 122:C:/Users/stapi/OneDrive/Desktop/GD32VW553/V1_MQTT_OK/GD32VW55X_Wifi_BLE_SDK/GD32VW55x_RELEASE_V1.0.2/MSDK/wpa_supplicant/src/eap_server\eap_server_methods.c **** 			eap_server_method_free(method);
 123:C:/Users/stapi/OneDrive/Desktop/GD32VW553/V1_MQTT_OK/GD32VW55X_Wifi_BLE_SDK/GD32VW55x_RELEASE_V1.0.2/MSDK/wpa_supplicant/src/eap_server\eap_server_methods.c **** 			return -2;
 124:C:/Users/stapi/OneDrive/Desktop/GD32VW553/V1_MQTT_OK/GD32VW55X_Wifi_BLE_SDK/GD32VW55x_RELEASE_V1.0.2/MSDK/wpa_supplicant/src/eap_server\eap_server_methods.c **** 		}
 125:C:/Users/stapi/OneDrive/Desktop/GD32VW553/V1_MQTT_OK/GD32VW55X_Wifi_BLE_SDK/GD32VW55x_RELEASE_V1.0.2/MSDK/wpa_supplicant/src/eap_server\eap_server_methods.c **** 		last = m;
 126:C:/Users/stapi/OneDrive/Desktop/GD32VW553/V1_MQTT_OK/GD32VW55X_Wifi_BLE_SDK/GD32VW55x_RELEASE_V1.0.2/MSDK/wpa_supplicant/src/eap_server\eap_server_methods.c **** 	}
 127:C:/Users/stapi/OneDrive/Desktop/GD32VW553/V1_MQTT_OK/GD32VW55X_Wifi_BLE_SDK/GD32VW55x_RELEASE_V1.0.2/MSDK/wpa_supplicant/src/eap_server\eap_server_methods.c **** 
 128:C:/Users/stapi/OneDrive/Desktop/GD32VW553/V1_MQTT_OK/GD32VW55X_Wifi_BLE_SDK/GD32VW55x_RELEASE_V1.0.2/MSDK/wpa_supplicant/src/eap_server\eap_server_methods.c **** 	if (last)
 129:C:/Users/stapi/OneDrive/Desktop/GD32VW553/V1_MQTT_OK/GD32VW55X_Wifi_BLE_SDK/GD32VW55x_RELEASE_V1.0.2/MSDK/wpa_supplicant/src/eap_server\eap_server_methods.c **** 		last->next = method;
 130:C:/Users/stapi/OneDrive/Desktop/GD32VW553/V1_MQTT_OK/GD32VW55X_Wifi_BLE_SDK/GD32VW55x_RELEASE_V1.0.2/MSDK/wpa_supplicant/src/eap_server\eap_server_methods.c **** 	else
 131:C:/Users/stapi/OneDrive/Desktop/GD32VW553/V1_MQTT_OK/GD32VW55X_Wifi_BLE_SDK/GD32VW55x_RELEASE_V1.0.2/MSDK/wpa_supplicant/src/eap_server\eap_server_methods.c **** 		eap_methods = method;
 132:C:/Users/stapi/OneDrive/Desktop/GD32VW553/V1_MQTT_OK/GD32VW55X_Wifi_BLE_SDK/GD32VW55x_RELEASE_V1.0.2/MSDK/wpa_supplicant/src/eap_server\eap_server_methods.c **** 
 133:C:/Users/stapi/OneDrive/Desktop/GD32VW553/V1_MQTT_OK/GD32VW55X_Wifi_BLE_SDK/GD32VW55x_RELEASE_V1.0.2/MSDK/wpa_supplicant/src/eap_server\eap_server_methods.c **** 	return 0;
 134:C:/Users/stapi/OneDrive/Desktop/GD32VW553/V1_MQTT_OK/GD32VW55X_Wifi_BLE_SDK/GD32VW55x_RELEASE_V1.0.2/MSDK/wpa_supplicant/src/eap_server\eap_server_methods.c **** }
 228              		.loc 1 134 1
 229 0024 17030000 		tail	__riscv_restore_3
 229      67000300 
 230              		.cfi_remember_state
 231              		.cfi_restore 18
 232              		.cfi_restore 9
 233              		.cfi_restore 8
 234              		.cfi_restore 1
 235              		.cfi_def_cfa_offset 0
 236              	.LVL17:
 237              	.L20:
 238              		.cfi_restore_state
 118:C:/Users/stapi/OneDrive/Desktop/GD32VW553/V1_MQTT_OK/GD32VW55X_Wifi_BLE_SDK/GD32VW55x_RELEASE_V1.0.2/MSDK/wpa_supplicant/src/eap_server\eap_server_methods.c **** 		if ((m->vendor == method->vendor &&
 239              		.loc 1 118 2 is_stmt 1
 118:C:/Users/stapi/OneDrive/Desktop/GD32VW553/V1_MQTT_OK/GD32VW55X_Wifi_BLE_SDK/GD32VW55x_RELEASE_V1.0.2/MSDK/wpa_supplicant/src/eap_server\eap_server_methods.c **** 		if ((m->vendor == method->vendor &&
 240              		.loc 1 118 9 is_stmt 0
 241 002c B7070000 		lui	a5,%hi(.LANCHOR0)
 242 0030 83A40700 		lw	s1,%lo(.LANCHOR0)(a5)
 243              	.LVL18:
 110:C:/Users/stapi/OneDrive/Desktop/GD32VW553/V1_MQTT_OK/GD32VW55X_Wifi_BLE_SDK/GD32VW55x_RELEASE_V1.0.2/MSDK/wpa_supplicant/src/eap_server\eap_server_methods.c **** 
 244              		.loc 1 110 25
 245 0034 0147     		li	a4,0
 246 0036 13890700 		addi	s2,a5,%lo(.LANCHOR0)
 247              	.LVL19:
 248              	.L22:
 118:C:/Users/stapi/OneDrive/Desktop/GD32VW553/V1_MQTT_OK/GD32VW55X_Wifi_BLE_SDK/GD32VW55x_RELEASE_V1.0.2/MSDK/wpa_supplicant/src/eap_server\eap_server_methods.c **** 		if ((m->vendor == method->vendor &&
 249              		.loc 1 118 24 is_stmt 1 discriminator 1
 118:C:/Users/stapi/OneDrive/Desktop/GD32VW553/V1_MQTT_OK/GD32VW55X_Wifi_BLE_SDK/GD32VW55x_RELEASE_V1.0.2/MSDK/wpa_supplicant/src/eap_server\eap_server_methods.c **** 		if ((m->vendor == method->vendor &&
 250              		.loc 1 118 2 is_stmt 0 discriminator 1
 251 003a 89E4     		bne	s1,zero,.L25
 128:C:/Users/stapi/OneDrive/Desktop/GD32VW553/V1_MQTT_OK/GD32VW55X_Wifi_BLE_SDK/GD32VW55x_RELEASE_V1.0.2/MSDK/wpa_supplicant/src/eap_server\eap_server_methods.c **** 		last->next = method;
 252              		.loc 1 128 2 is_stmt 1
 128:C:/Users/stapi/OneDrive/Desktop/GD32VW553/V1_MQTT_OK/GD32VW55X_Wifi_BLE_SDK/GD32VW55x_RELEASE_V1.0.2/MSDK/wpa_supplicant/src/eap_server\eap_server_methods.c **** 		last->next = method;
 253              		.loc 1 128 5 is_stmt 0
 254 003c 0DCF     		beq	a4,zero,.L26
 129:C:/Users/stapi/OneDrive/Desktop/GD32VW553/V1_MQTT_OK/GD32VW55X_Wifi_BLE_SDK/GD32VW55x_RELEASE_V1.0.2/MSDK/wpa_supplicant/src/eap_server\eap_server_methods.c **** 	else
 255              		.loc 1 129 3 is_stmt 1
 129:C:/Users/stapi/OneDrive/Desktop/GD32VW553/V1_MQTT_OK/GD32VW55X_Wifi_BLE_SDK/GD32VW55x_RELEASE_V1.0.2/MSDK/wpa_supplicant/src/eap_server\eap_server_methods.c **** 	else
 256              		.loc 1 129 14 is_stmt 0
 257 003e 40DF     		sw	s0,60(a4)
 258              	.L37:
 133:C:/Users/stapi/OneDrive/Desktop/GD32VW553/V1_MQTT_OK/GD32VW55X_Wifi_BLE_SDK/GD32VW55x_RELEASE_V1.0.2/MSDK/wpa_supplicant/src/eap_server\eap_server_methods.c **** }
 259              		.loc 1 133 9
 260 0040 0145     		li	a0,0
 261 0042 CDB7     		j	.L18
 262              	.L25:
 119:C:/Users/stapi/OneDrive/Desktop/GD32VW553/V1_MQTT_OK/GD32VW55X_Wifi_BLE_SDK/GD32VW55x_RELEASE_V1.0.2/MSDK/wpa_supplicant/src/eap_server\eap_server_methods.c **** 		     m->method == method->method) ||
 263              		.loc 1 119 3 is_stmt 1
 119:C:/Users/stapi/OneDrive/Desktop/GD32VW553/V1_MQTT_OK/GD32VW55X_Wifi_BLE_SDK/GD32VW55x_RELEASE_V1.0.2/MSDK/wpa_supplicant/src/eap_server\eap_server_methods.c **** 		     m->method == method->method) ||
 264              		.loc 1 119 6 is_stmt 0
 265 0044 9840     		lw	a4,0(s1)
 266              	.LVL20:
 267 0046 1C40     		lw	a5,0(s0)
 268 0048 631DF700 		bne	a4,a5,.L23
 119:C:/Users/stapi/OneDrive/Desktop/GD32VW553/V1_MQTT_OK/GD32VW55X_Wifi_BLE_SDK/GD32VW55x_RELEASE_V1.0.2/MSDK/wpa_supplicant/src/eap_server\eap_server_methods.c **** 		     m->method == method->method) ||
 269              		.loc 1 119 36 discriminator 1
 270 004c D840     		lw	a4,4(s1)
 271 004e 5C40     		lw	a5,4(s0)
 272 0050 6319F700 		bne	a4,a5,.L23
 273              	.L24:
 122:C:/Users/stapi/OneDrive/Desktop/GD32VW553/V1_MQTT_OK/GD32VW55X_Wifi_BLE_SDK/GD32VW55x_RELEASE_V1.0.2/MSDK/wpa_supplicant/src/eap_server\eap_server_methods.c **** 			return -2;
 274              		.loc 1 122 4 is_stmt 1
 275              	.LVL21:
 276              	.LBB10:
 277              	.LBB11:
  94:C:/Users/stapi/OneDrive/Desktop/GD32VW553/V1_MQTT_OK/GD32VW55X_Wifi_BLE_SDK/GD32VW55x_RELEASE_V1.0.2/MSDK/wpa_supplicant/src/eap_server\eap_server_methods.c **** }
 278              		.loc 1 94 2
 279 0054 2285     		mv	a0,s0
 280 0056 97000000 		call	os_free
 280      E7800000 
 281              	.LVL22:
 282              	.LBE11:
 283              	.LBE10:
 123:C:/Users/stapi/OneDrive/Desktop/GD32VW553/V1_MQTT_OK/GD32VW55X_Wifi_BLE_SDK/GD32VW55x_RELEASE_V1.0.2/MSDK/wpa_supplicant/src/eap_server\eap_server_methods.c **** 		}
 284              		.loc 1 123 4
 123:C:/Users/stapi/OneDrive/Desktop/GD32VW553/V1_MQTT_OK/GD32VW55X_Wifi_BLE_SDK/GD32VW55x_RELEASE_V1.0.2/MSDK/wpa_supplicant/src/eap_server\eap_server_methods.c **** 		}
 285              		.loc 1 123 11 is_stmt 0
 286 005e 7955     		li	a0,-2
 287 0060 D1B7     		j	.L18
 288              	.L23:
 121:C:/Users/stapi/OneDrive/Desktop/GD32VW553/V1_MQTT_OK/GD32VW55X_Wifi_BLE_SDK/GD32VW55x_RELEASE_V1.0.2/MSDK/wpa_supplicant/src/eap_server\eap_server_methods.c **** 			eap_server_method_free(method);
 289              		.loc 1 121 7
 290 0062 0C44     		lw	a1,8(s0)
 291 0064 8844     		lw	a0,8(s1)
 292 0066 97000000 		call	os_strcmp
 292      E7800000 
 293              	.LVL23:
 120:C:/Users/stapi/OneDrive/Desktop/GD32VW553/V1_MQTT_OK/GD32VW55X_Wifi_BLE_SDK/GD32VW55x_RELEASE_V1.0.2/MSDK/wpa_supplicant/src/eap_server\eap_server_methods.c **** 		    os_strcmp(m->name, method->name) == 0) {
 294              		.loc 1 120 37
 295 006e 7DD1     		beq	a0,zero,.L24
 125:C:/Users/stapi/OneDrive/Desktop/GD32VW553/V1_MQTT_OK/GD32VW55X_Wifi_BLE_SDK/GD32VW55x_RELEASE_V1.0.2/MSDK/wpa_supplicant/src/eap_server\eap_server_methods.c **** 	}
 296              		.loc 1 125 3 is_stmt 1 discriminator 2
 297              	.LVL24:
 118:C:/Users/stapi/OneDrive/Desktop/GD32VW553/V1_MQTT_OK/GD32VW55X_Wifi_BLE_SDK/GD32VW55x_RELEASE_V1.0.2/MSDK/wpa_supplicant/src/eap_server\eap_server_methods.c **** 		if ((m->vendor == method->vendor &&
 298              		.loc 1 118 27 discriminator 2
 118:C:/Users/stapi/OneDrive/Desktop/GD32VW553/V1_MQTT_OK/GD32VW55X_Wifi_BLE_SDK/GD32VW55x_RELEASE_V1.0.2/MSDK/wpa_supplicant/src/eap_server\eap_server_methods.c **** 		if ((m->vendor == method->vendor &&
 299              		.loc 1 118 29 is_stmt 0 discriminator 2
 300 0070 2687     		mv	a4,s1
 301 0072 C45C     		lw	s1,60(s1)
 302              	.LVL25:
 303 0074 D9B7     		j	.L22
 304              	.L26:
 131:C:/Users/stapi/OneDrive/Desktop/GD32VW553/V1_MQTT_OK/GD32VW55X_Wifi_BLE_SDK/GD32VW55x_RELEASE_V1.0.2/MSDK/wpa_supplicant/src/eap_server\eap_server_methods.c **** 
 305              		.loc 1 131 3 is_stmt 1
 131:C:/Users/stapi/OneDrive/Desktop/GD32VW553/V1_MQTT_OK/GD32VW55X_Wifi_BLE_SDK/GD32VW55x_RELEASE_V1.0.2/MSDK/wpa_supplicant/src/eap_server\eap_server_methods.c **** 
 306              		.loc 1 131 15 is_stmt 0
 307 0076 23208900 		sw	s0,0(s2)
 308 007a D9B7     		j	.L37
 309              		.cfi_endproc
 310              	.LFE98:
 312              		.section	.text.eap_server_unregister_methods,"ax",@progbits
 313              		.align	1
 314              		.globl	eap_server_unregister_methods
 316              	eap_server_unregister_methods:
 317              	.LFB99:
 135:C:/Users/stapi/OneDrive/Desktop/GD32VW553/V1_MQTT_OK/GD32VW55X_Wifi_BLE_SDK/GD32VW55x_RELEASE_V1.0.2/MSDK/wpa_supplicant/src/eap_server\eap_server_methods.c **** 
 136:C:/Users/stapi/OneDrive/Desktop/GD32VW553/V1_MQTT_OK/GD32VW55X_Wifi_BLE_SDK/GD32VW55x_RELEASE_V1.0.2/MSDK/wpa_supplicant/src/eap_server\eap_server_methods.c **** 
 137:C:/Users/stapi/OneDrive/Desktop/GD32VW553/V1_MQTT_OK/GD32VW55X_Wifi_BLE_SDK/GD32VW55x_RELEASE_V1.0.2/MSDK/wpa_supplicant/src/eap_server\eap_server_methods.c **** /**
 138:C:/Users/stapi/OneDrive/Desktop/GD32VW553/V1_MQTT_OK/GD32VW55X_Wifi_BLE_SDK/GD32VW55x_RELEASE_V1.0.2/MSDK/wpa_supplicant/src/eap_server\eap_server_methods.c ****  * eap_server_unregister_methods - Unregister EAP server methods
 139:C:/Users/stapi/OneDrive/Desktop/GD32VW553/V1_MQTT_OK/GD32VW55X_Wifi_BLE_SDK/GD32VW55x_RELEASE_V1.0.2/MSDK/wpa_supplicant/src/eap_server\eap_server_methods.c ****  *
 140:C:/Users/stapi/OneDrive/Desktop/GD32VW553/V1_MQTT_OK/GD32VW55X_Wifi_BLE_SDK/GD32VW55x_RELEASE_V1.0.2/MSDK/wpa_supplicant/src/eap_server\eap_server_methods.c ****  * This function is called at program termination to unregister all EAP server
 141:C:/Users/stapi/OneDrive/Desktop/GD32VW553/V1_MQTT_OK/GD32VW55X_Wifi_BLE_SDK/GD32VW55x_RELEASE_V1.0.2/MSDK/wpa_supplicant/src/eap_server\eap_server_methods.c ****  * methods.
 142:C:/Users/stapi/OneDrive/Desktop/GD32VW553/V1_MQTT_OK/GD32VW55X_Wifi_BLE_SDK/GD32VW55x_RELEASE_V1.0.2/MSDK/wpa_supplicant/src/eap_server\eap_server_methods.c ****  */
 143:C:/Users/stapi/OneDrive/Desktop/GD32VW553/V1_MQTT_OK/GD32VW55X_Wifi_BLE_SDK/GD32VW55x_RELEASE_V1.0.2/MSDK/wpa_supplicant/src/eap_server\eap_server_methods.c **** void eap_server_unregister_methods(void)
 144:C:/Users/stapi/OneDrive/Desktop/GD32VW553/V1_MQTT_OK/GD32VW55X_Wifi_BLE_SDK/GD32VW55x_RELEASE_V1.0.2/MSDK/wpa_supplicant/src/eap_server\eap_server_methods.c **** {
 318              		.loc 1 144 1 is_stmt 1
 319              		.cfi_startproc
 320 0000 17030000 		call	t0,__riscv_save_1
 320      E7020300 
 321              		.cfi_offset 8, -8
 322              		.cfi_offset 1, -4
 323              		.cfi_def_cfa_offset 16
 145:C:/Users/stapi/OneDrive/Desktop/GD32VW553/V1_MQTT_OK/GD32VW55X_Wifi_BLE_SDK/GD32VW55x_RELEASE_V1.0.2/MSDK/wpa_supplicant/src/eap_server\eap_server_methods.c **** 	struct eap_method *m;
 324              		.loc 1 145 2
 146:C:/Users/stapi/OneDrive/Desktop/GD32VW553/V1_MQTT_OK/GD32VW55X_Wifi_BLE_SDK/GD32VW55x_RELEASE_V1.0.2/MSDK/wpa_supplicant/src/eap_server\eap_server_methods.c **** 
 147:C:/Users/stapi/OneDrive/Desktop/GD32VW553/V1_MQTT_OK/GD32VW55X_Wifi_BLE_SDK/GD32VW55x_RELEASE_V1.0.2/MSDK/wpa_supplicant/src/eap_server\eap_server_methods.c **** 	while (eap_methods) {
 325              		.loc 1 147 2
 326              		.loc 1 147 9 is_stmt 0
 327 0008 37040000 		lui	s0,%hi(.LANCHOR0)
 328              	.L39:
 329              		.loc 1 147 8 is_stmt 1
 330              		.loc 1 147 9 is_stmt 0
 331 000c 93070400 		addi	a5,s0,%lo(.LANCHOR0)
 332 0010 8843     		lw	a0,0(a5)
 333              		.loc 1 147 8
 334 0012 09E5     		bne	a0,zero,.L42
 148:C:/Users/stapi/OneDrive/Desktop/GD32VW553/V1_MQTT_OK/GD32VW55X_Wifi_BLE_SDK/GD32VW55x_RELEASE_V1.0.2/MSDK/wpa_supplicant/src/eap_server\eap_server_methods.c **** 		m = eap_methods;
 149:C:/Users/stapi/OneDrive/Desktop/GD32VW553/V1_MQTT_OK/GD32VW55X_Wifi_BLE_SDK/GD32VW55x_RELEASE_V1.0.2/MSDK/wpa_supplicant/src/eap_server\eap_server_methods.c **** 		eap_methods = eap_methods->next;
 150:C:/Users/stapi/OneDrive/Desktop/GD32VW553/V1_MQTT_OK/GD32VW55X_Wifi_BLE_SDK/GD32VW55x_RELEASE_V1.0.2/MSDK/wpa_supplicant/src/eap_server\eap_server_methods.c **** 
 151:C:/Users/stapi/OneDrive/Desktop/GD32VW553/V1_MQTT_OK/GD32VW55X_Wifi_BLE_SDK/GD32VW55x_RELEASE_V1.0.2/MSDK/wpa_supplicant/src/eap_server\eap_server_methods.c **** 		if (m->free)
 152:C:/Users/stapi/OneDrive/Desktop/GD32VW553/V1_MQTT_OK/GD32VW55X_Wifi_BLE_SDK/GD32VW55x_RELEASE_V1.0.2/MSDK/wpa_supplicant/src/eap_server\eap_server_methods.c **** 			m->free(m);
 153:C:/Users/stapi/OneDrive/Desktop/GD32VW553/V1_MQTT_OK/GD32VW55X_Wifi_BLE_SDK/GD32VW55x_RELEASE_V1.0.2/MSDK/wpa_supplicant/src/eap_server\eap_server_methods.c **** 		else
 154:C:/Users/stapi/OneDrive/Desktop/GD32VW553/V1_MQTT_OK/GD32VW55X_Wifi_BLE_SDK/GD32VW55x_RELEASE_V1.0.2/MSDK/wpa_supplicant/src/eap_server\eap_server_methods.c **** 			eap_server_method_free(m);
 155:C:/Users/stapi/OneDrive/Desktop/GD32VW553/V1_MQTT_OK/GD32VW55X_Wifi_BLE_SDK/GD32VW55x_RELEASE_V1.0.2/MSDK/wpa_supplicant/src/eap_server\eap_server_methods.c **** 	}
 156:C:/Users/stapi/OneDrive/Desktop/GD32VW553/V1_MQTT_OK/GD32VW55X_Wifi_BLE_SDK/GD32VW55x_RELEASE_V1.0.2/MSDK/wpa_supplicant/src/eap_server\eap_server_methods.c **** }
 335              		.loc 1 156 1
 336 0014 17030000 		tail	__riscv_restore_1
 336      67000300 
 337              		.cfi_remember_state
 338              		.cfi_restore 8
 339              		.cfi_restore 1
 340              		.cfi_def_cfa_offset 0
 341              	.L42:
 342              		.cfi_restore_state
 148:C:/Users/stapi/OneDrive/Desktop/GD32VW553/V1_MQTT_OK/GD32VW55X_Wifi_BLE_SDK/GD32VW55x_RELEASE_V1.0.2/MSDK/wpa_supplicant/src/eap_server\eap_server_methods.c **** 		m = eap_methods;
 343              		.loc 1 148 3 is_stmt 1
 344              	.LVL26:
 149:C:/Users/stapi/OneDrive/Desktop/GD32VW553/V1_MQTT_OK/GD32VW55X_Wifi_BLE_SDK/GD32VW55x_RELEASE_V1.0.2/MSDK/wpa_supplicant/src/eap_server\eap_server_methods.c **** 
 345              		.loc 1 149 3
 149:C:/Users/stapi/OneDrive/Desktop/GD32VW553/V1_MQTT_OK/GD32VW55X_Wifi_BLE_SDK/GD32VW55x_RELEASE_V1.0.2/MSDK/wpa_supplicant/src/eap_server\eap_server_methods.c **** 
 346              		.loc 1 149 15 is_stmt 0
 347 001c 585D     		lw	a4,60(a0)
 348 001e 98C3     		sw	a4,0(a5)
 151:C:/Users/stapi/OneDrive/Desktop/GD32VW553/V1_MQTT_OK/GD32VW55X_Wifi_BLE_SDK/GD32VW55x_RELEASE_V1.0.2/MSDK/wpa_supplicant/src/eap_server\eap_server_methods.c **** 			m->free(m);
 349              		.loc 1 151 3 is_stmt 1
 151:C:/Users/stapi/OneDrive/Desktop/GD32VW553/V1_MQTT_OK/GD32VW55X_Wifi_BLE_SDK/GD32VW55x_RELEASE_V1.0.2/MSDK/wpa_supplicant/src/eap_server\eap_server_methods.c **** 			m->free(m);
 350              		.loc 1 151 8 is_stmt 0
 351 0020 5C59     		lw	a5,52(a0)
 151:C:/Users/stapi/OneDrive/Desktop/GD32VW553/V1_MQTT_OK/GD32VW55X_Wifi_BLE_SDK/GD32VW55x_RELEASE_V1.0.2/MSDK/wpa_supplicant/src/eap_server\eap_server_methods.c **** 			m->free(m);
 352              		.loc 1 151 6
 353 0022 99C3     		beq	a5,zero,.L40
 152:C:/Users/stapi/OneDrive/Desktop/GD32VW553/V1_MQTT_OK/GD32VW55X_Wifi_BLE_SDK/GD32VW55x_RELEASE_V1.0.2/MSDK/wpa_supplicant/src/eap_server\eap_server_methods.c **** 		else
 354              		.loc 1 152 4 is_stmt 1
 355 0024 8297     		jalr	a5
 356              	.LVL27:
 357 0026 DDB7     		j	.L39
 358              	.LVL28:
 359              	.L40:
 154:C:/Users/stapi/OneDrive/Desktop/GD32VW553/V1_MQTT_OK/GD32VW55X_Wifi_BLE_SDK/GD32VW55x_RELEASE_V1.0.2/MSDK/wpa_supplicant/src/eap_server\eap_server_methods.c **** 	}
 360              		.loc 1 154 4
 361              	.LBB12:
 362              	.LBB13:
  94:C:/Users/stapi/OneDrive/Desktop/GD32VW553/V1_MQTT_OK/GD32VW55X_Wifi_BLE_SDK/GD32VW55x_RELEASE_V1.0.2/MSDK/wpa_supplicant/src/eap_server\eap_server_methods.c **** }
 363              		.loc 1 94 2
 364 0028 97000000 		call	os_free
 364      E7800000 
 365              	.LVL29:
  95:C:/Users/stapi/OneDrive/Desktop/GD32VW553/V1_MQTT_OK/GD32VW55X_Wifi_BLE_SDK/GD32VW55x_RELEASE_V1.0.2/MSDK/wpa_supplicant/src/eap_server\eap_server_methods.c **** 
 366              		.loc 1 95 1 is_stmt 0
 367 0030 F1BF     		j	.L39
 368              	.LBE13:
 369              	.LBE12:
 370              		.cfi_endproc
 371              	.LFE99:
 373              		.section	.rodata.eap_server_get_name.str1.4,"aMS",@progbits,1
 374              		.align	2
 375              	.LC0:
 376 0000 65787061 		.string	"expanded"
 376      6E646564 
 376      00
 377 0009 000000   		.align	2
 378              	.LC1:
 379 000c 756E6B6E 		.string	"unknown"
 379      6F776E00 
 380              		.section	.text.eap_server_get_name,"ax",@progbits
 381              		.align	1
 382              		.globl	eap_server_get_name
 384              	eap_server_get_name:
 385              	.LFB100:
 157:C:/Users/stapi/OneDrive/Desktop/GD32VW553/V1_MQTT_OK/GD32VW55X_Wifi_BLE_SDK/GD32VW55x_RELEASE_V1.0.2/MSDK/wpa_supplicant/src/eap_server\eap_server_methods.c **** 
 158:C:/Users/stapi/OneDrive/Desktop/GD32VW553/V1_MQTT_OK/GD32VW55X_Wifi_BLE_SDK/GD32VW55x_RELEASE_V1.0.2/MSDK/wpa_supplicant/src/eap_server\eap_server_methods.c **** 
 159:C:/Users/stapi/OneDrive/Desktop/GD32VW553/V1_MQTT_OK/GD32VW55X_Wifi_BLE_SDK/GD32VW55x_RELEASE_V1.0.2/MSDK/wpa_supplicant/src/eap_server\eap_server_methods.c **** /**
 160:C:/Users/stapi/OneDrive/Desktop/GD32VW553/V1_MQTT_OK/GD32VW55X_Wifi_BLE_SDK/GD32VW55x_RELEASE_V1.0.2/MSDK/wpa_supplicant/src/eap_server\eap_server_methods.c ****  * eap_server_get_name - Get EAP method name for the given EAP type
 161:C:/Users/stapi/OneDrive/Desktop/GD32VW553/V1_MQTT_OK/GD32VW55X_Wifi_BLE_SDK/GD32VW55x_RELEASE_V1.0.2/MSDK/wpa_supplicant/src/eap_server\eap_server_methods.c ****  * @vendor: EAP Vendor-Id (0 = IETF)
 162:C:/Users/stapi/OneDrive/Desktop/GD32VW553/V1_MQTT_OK/GD32VW55X_Wifi_BLE_SDK/GD32VW55x_RELEASE_V1.0.2/MSDK/wpa_supplicant/src/eap_server\eap_server_methods.c ****  * @type: EAP method type
 163:C:/Users/stapi/OneDrive/Desktop/GD32VW553/V1_MQTT_OK/GD32VW55X_Wifi_BLE_SDK/GD32VW55x_RELEASE_V1.0.2/MSDK/wpa_supplicant/src/eap_server\eap_server_methods.c ****  * Returns: EAP method name, e.g., TLS, or "unknown" if not found
 164:C:/Users/stapi/OneDrive/Desktop/GD32VW553/V1_MQTT_OK/GD32VW55X_Wifi_BLE_SDK/GD32VW55x_RELEASE_V1.0.2/MSDK/wpa_supplicant/src/eap_server\eap_server_methods.c ****  *
 165:C:/Users/stapi/OneDrive/Desktop/GD32VW553/V1_MQTT_OK/GD32VW55X_Wifi_BLE_SDK/GD32VW55x_RELEASE_V1.0.2/MSDK/wpa_supplicant/src/eap_server\eap_server_methods.c ****  * This function maps EAP type numbers into EAP type names based on the list of
 166:C:/Users/stapi/OneDrive/Desktop/GD32VW553/V1_MQTT_OK/GD32VW55X_Wifi_BLE_SDK/GD32VW55x_RELEASE_V1.0.2/MSDK/wpa_supplicant/src/eap_server\eap_server_methods.c ****  * EAP methods included in the build.
 167:C:/Users/stapi/OneDrive/Desktop/GD32VW553/V1_MQTT_OK/GD32VW55X_Wifi_BLE_SDK/GD32VW55x_RELEASE_V1.0.2/MSDK/wpa_supplicant/src/eap_server\eap_server_methods.c ****  */
 168:C:/Users/stapi/OneDrive/Desktop/GD32VW553/V1_MQTT_OK/GD32VW55X_Wifi_BLE_SDK/GD32VW55x_RELEASE_V1.0.2/MSDK/wpa_supplicant/src/eap_server\eap_server_methods.c **** const char * eap_server_get_name(int vendor, enum eap_type type)
 169:C:/Users/stapi/OneDrive/Desktop/GD32VW553/V1_MQTT_OK/GD32VW55X_Wifi_BLE_SDK/GD32VW55x_RELEASE_V1.0.2/MSDK/wpa_supplicant/src/eap_server\eap_server_methods.c **** {
 386              		.loc 1 169 1 is_stmt 1
 387              		.cfi_startproc
 388              	.LVL30:
 170:C:/Users/stapi/OneDrive/Desktop/GD32VW553/V1_MQTT_OK/GD32VW55X_Wifi_BLE_SDK/GD32VW55x_RELEASE_V1.0.2/MSDK/wpa_supplicant/src/eap_server\eap_server_methods.c **** 	struct eap_method *m;
 389              		.loc 1 170 2
 171:C:/Users/stapi/OneDrive/Desktop/GD32VW553/V1_MQTT_OK/GD32VW55X_Wifi_BLE_SDK/GD32VW55x_RELEASE_V1.0.2/MSDK/wpa_supplicant/src/eap_server\eap_server_methods.c **** 	if (vendor == EAP_VENDOR_IETF && type == EAP_TYPE_EXPANDED)
 390              		.loc 1 171 2
 391              		.loc 1 171 5 is_stmt 0
 392 0000 09E5     		bne	a0,zero,.L45
 393              		.loc 1 171 32 discriminator 1
 394 0002 9307E00F 		li	a5,254
 395 0006 6386F502 		beq	a1,a5,.L50
 396              	.L45:
 172:C:/Users/stapi/OneDrive/Desktop/GD32VW553/V1_MQTT_OK/GD32VW55X_Wifi_BLE_SDK/GD32VW55x_RELEASE_V1.0.2/MSDK/wpa_supplicant/src/eap_server\eap_server_methods.c **** 		return "expanded";
 173:C:/Users/stapi/OneDrive/Desktop/GD32VW553/V1_MQTT_OK/GD32VW55X_Wifi_BLE_SDK/GD32VW55x_RELEASE_V1.0.2/MSDK/wpa_supplicant/src/eap_server\eap_server_methods.c **** 	for (m = eap_methods; m; m = m->next) {
 397              		.loc 1 173 2 is_stmt 1
 398              		.loc 1 173 9 is_stmt 0
 399 000a B7070000 		lui	a5,%hi(.LANCHOR0)
 400 000e 83A70700 		lw	a5,%lo(.LANCHOR0)(a5)
 401              	.LVL31:
 402              	.L47:
 403              		.loc 1 173 24 is_stmt 1 discriminator 1
 404              		.loc 1 173 2 is_stmt 0 discriminator 1
 405 0012 91E7     		bne	a5,zero,.L49
 174:C:/Users/stapi/OneDrive/Desktop/GD32VW553/V1_MQTT_OK/GD32VW55X_Wifi_BLE_SDK/GD32VW55x_RELEASE_V1.0.2/MSDK/wpa_supplicant/src/eap_server\eap_server_methods.c **** 		if (m->vendor == vendor && m->method == type)
 175:C:/Users/stapi/OneDrive/Desktop/GD32VW553/V1_MQTT_OK/GD32VW55X_Wifi_BLE_SDK/GD32VW55x_RELEASE_V1.0.2/MSDK/wpa_supplicant/src/eap_server\eap_server_methods.c **** 			return m->name;
 176:C:/Users/stapi/OneDrive/Desktop/GD32VW553/V1_MQTT_OK/GD32VW55X_Wifi_BLE_SDK/GD32VW55x_RELEASE_V1.0.2/MSDK/wpa_supplicant/src/eap_server\eap_server_methods.c **** 	}
 177:C:/Users/stapi/OneDrive/Desktop/GD32VW553/V1_MQTT_OK/GD32VW55X_Wifi_BLE_SDK/GD32VW55x_RELEASE_V1.0.2/MSDK/wpa_supplicant/src/eap_server\eap_server_methods.c **** 	return "unknown";
 406              		.loc 1 177 9
 407 0014 37050000 		lui	a0,%hi(.LC1)
 408              	.LVL32:
 409 0018 13050500 		addi	a0,a0,%lo(.LC1)
 410 001c 8280     		ret
 411              	.LVL33:
 412              	.L49:
 174:C:/Users/stapi/OneDrive/Desktop/GD32VW553/V1_MQTT_OK/GD32VW55X_Wifi_BLE_SDK/GD32VW55x_RELEASE_V1.0.2/MSDK/wpa_supplicant/src/eap_server\eap_server_methods.c **** 		if (m->vendor == vendor && m->method == type)
 413              		.loc 1 174 3 is_stmt 1
 174:C:/Users/stapi/OneDrive/Desktop/GD32VW553/V1_MQTT_OK/GD32VW55X_Wifi_BLE_SDK/GD32VW55x_RELEASE_V1.0.2/MSDK/wpa_supplicant/src/eap_server\eap_server_methods.c **** 		if (m->vendor == vendor && m->method == type)
 414              		.loc 1 174 6 is_stmt 0
 415 001e 9843     		lw	a4,0(a5)
 416 0020 6317A700 		bne	a4,a0,.L48
 174:C:/Users/stapi/OneDrive/Desktop/GD32VW553/V1_MQTT_OK/GD32VW55X_Wifi_BLE_SDK/GD32VW55x_RELEASE_V1.0.2/MSDK/wpa_supplicant/src/eap_server\eap_server_methods.c **** 		if (m->vendor == vendor && m->method == type)
 417              		.loc 1 174 27 discriminator 1
 418 0024 D843     		lw	a4,4(a5)
 419 0026 6314B700 		bne	a4,a1,.L48
 175:C:/Users/stapi/OneDrive/Desktop/GD32VW553/V1_MQTT_OK/GD32VW55X_Wifi_BLE_SDK/GD32VW55x_RELEASE_V1.0.2/MSDK/wpa_supplicant/src/eap_server\eap_server_methods.c **** 	}
 420              		.loc 1 175 4 is_stmt 1
 175:C:/Users/stapi/OneDrive/Desktop/GD32VW553/V1_MQTT_OK/GD32VW55X_Wifi_BLE_SDK/GD32VW55x_RELEASE_V1.0.2/MSDK/wpa_supplicant/src/eap_server\eap_server_methods.c **** 	}
 421              		.loc 1 175 12 is_stmt 0
 422 002a 8847     		lw	a0,8(a5)
 423              	.LVL34:
 424 002c 8280     		ret
 425              	.LVL35:
 426              	.L48:
 173:C:/Users/stapi/OneDrive/Desktop/GD32VW553/V1_MQTT_OK/GD32VW55X_Wifi_BLE_SDK/GD32VW55x_RELEASE_V1.0.2/MSDK/wpa_supplicant/src/eap_server\eap_server_methods.c **** 		if (m->vendor == vendor && m->method == type)
 427              		.loc 1 173 27 is_stmt 1 discriminator 2
 173:C:/Users/stapi/OneDrive/Desktop/GD32VW553/V1_MQTT_OK/GD32VW55X_Wifi_BLE_SDK/GD32VW55x_RELEASE_V1.0.2/MSDK/wpa_supplicant/src/eap_server\eap_server_methods.c **** 		if (m->vendor == vendor && m->method == type)
 428              		.loc 1 173 29 is_stmt 0 discriminator 2
 429 002e DC5F     		lw	a5,60(a5)
 430              	.LVL36:
 431 0030 CDB7     		j	.L47
 432              	.LVL37:
 433              	.L50:
 172:C:/Users/stapi/OneDrive/Desktop/GD32VW553/V1_MQTT_OK/GD32VW55X_Wifi_BLE_SDK/GD32VW55x_RELEASE_V1.0.2/MSDK/wpa_supplicant/src/eap_server\eap_server_methods.c **** 	for (m = eap_methods; m; m = m->next) {
 434              		.loc 1 172 10
 435 0032 37050000 		lui	a0,%hi(.LC0)
 436              	.LVL38:
 437 0036 13050500 		addi	a0,a0,%lo(.LC0)
 178:C:/Users/stapi/OneDrive/Desktop/GD32VW553/V1_MQTT_OK/GD32VW55X_Wifi_BLE_SDK/GD32VW55x_RELEASE_V1.0.2/MSDK/wpa_supplicant/src/eap_server\eap_server_methods.c **** }
 438              		.loc 1 178 1
 439 003a 8280     		ret
 440              		.cfi_endproc
 441              	.LFE100:
 443              		.section	.sbss.eap_methods,"aw",@nobits
 444              		.align	2
 445              		.set	.LANCHOR0,. + 0
 448              	eap_methods:
 449 0000 00000000 		.zero	4
 450              		.text
 451              	.Letext0:
 452              		.file 2 "c:\\users\\stapi\\onedrive\\desktop\\gd32vw553\\embeddedbuilder_v1.4.7.26843\\tools\\nucl
 453              		.file 3 "c:\\users\\stapi\\onedrive\\desktop\\gd32vw553\\embeddedbuilder_v1.4.7.26843\\tools\\nucl
 454              		.file 4 "c:\\users\\stapi\\onedrive\\desktop\\gd32vw553\\embeddedbuilder_v1.4.7.26843\\tools\\nucl
 455              		.file 5 "..\\..\\..\\..\\wpa_supplicant\\src\\utils/common.h"
 456              		.file 6 "..\\..\\..\\..\\wpa_supplicant\\src\\utils/wpabuf.h"
 457              		.file 7 "..\\..\\..\\..\\wpa_supplicant\\src/utils/list.h"
 458              		.file 8 "..\\..\\..\\..\\lwip\\lwip-2.1.2\\src\\include/lwip/netif.h"
 459              		.file 9 "..\\..\\..\\..\\wpa_supplicant\\src/eap_common/eap_defs.h"
 460              		.file 10 "..\\..\\..\\..\\lwip\\lwip-2.1.2\\src\\include/lwip/memp.h"
 461              		.file 11 "..\\..\\..\\..\\wpa_supplicant\\src/eap_server/eap.h"
 462              		.file 12 "C:/Users/stapi/OneDrive/Desktop/GD32VW553/V1_MQTT_OK/GD32VW55X_Wifi_BLE_SDK/GD32VW55x_RE
 463              		.file 13 "..\\..\\..\\..\\wpa_supplicant\\src\\utils/os.h"
DEFINED SYMBOLS
                            *ABS*:0000000000000000 eap_server_methods.c
C:\Users\stapi\AppData\Local\Temp\cc2iGzJd.s:13     .text.eap_server_get_eap_method:0000000000000000 eap_server_get_eap_method
C:\Users\stapi\AppData\Local\Temp\cc2iGzJd.s:17     .text.eap_server_get_eap_method:0000000000000000 .L0 
C:\Users\stapi\AppData\Local\Temp\cc2iGzJd.s:19     .text.eap_server_get_eap_method:0000000000000000 .L0 
C:\Users\stapi\AppData\Local\Temp\cc2iGzJd.s:20     .text.eap_server_get_eap_method:0000000000000000 .L0 
C:\Users\stapi\AppData\Local\Temp\cc2iGzJd.s:21     .text.eap_server_get_eap_method:0000000000000000 .L0 
C:\Users\stapi\AppData\Local\Temp\cc2iGzJd.s:22     .text.eap_server_get_eap_method:0000000000000000 .L0 
C:\Users\stapi\AppData\Local\Temp\cc2iGzJd.s:24     .text.eap_server_get_eap_method:0000000000000004 .L0 
C:\Users\stapi\AppData\Local\Temp\cc2iGzJd.s:26     .text.eap_server_get_eap_method:0000000000000006 .L0 
C:\Users\stapi\AppData\Local\Temp\cc2iGzJd.s:30     .text.eap_server_get_eap_method:000000000000000a .L0 
C:\Users\stapi\AppData\Local\Temp\cc2iGzJd.s:31     .text.eap_server_get_eap_method:000000000000000a .L0 
C:\Users\stapi\AppData\Local\Temp\cc2iGzJd.s:34     .text.eap_server_get_eap_method:000000000000000c .L0 
C:\Users\stapi\AppData\Local\Temp\cc2iGzJd.s:37     .text.eap_server_get_eap_method:000000000000000e .L0 
C:\Users\stapi\AppData\Local\Temp\cc2iGzJd.s:38     .text.eap_server_get_eap_method:000000000000000e .L0 
C:\Users\stapi\AppData\Local\Temp\cc2iGzJd.s:41     .text.eap_server_get_eap_method:0000000000000014 .L0 
C:\Users\stapi\AppData\Local\Temp\cc2iGzJd.s:45     .text.eap_server_get_eap_method:000000000000001a .L0 
C:\Users\stapi\AppData\Local\Temp\cc2iGzJd.s:46     .text.eap_server_get_eap_method:000000000000001a .L0 
C:\Users\stapi\AppData\Local\Temp\cc2iGzJd.s:49     .text.eap_server_get_eap_method:000000000000001e .L0 
C:\Users\stapi\AppData\Local\Temp\cc2iGzJd.s:56     .text.eap_server_get_type:0000000000000000 eap_server_get_type
C:\Users\stapi\AppData\Local\Temp\cc2iGzJd.s:59     .text.eap_server_get_type:0000000000000000 .L0 
C:\Users\stapi\AppData\Local\Temp\cc2iGzJd.s:61     .text.eap_server_get_type:0000000000000000 .L0 
C:\Users\stapi\AppData\Local\Temp\cc2iGzJd.s:62     .text.eap_server_get_type:0000000000000008 .L0 
C:\Users\stapi\AppData\Local\Temp\cc2iGzJd.s:63     .text.eap_server_get_type:0000000000000008 .L0 
C:\Users\stapi\AppData\Local\Temp\cc2iGzJd.s:64     .text.eap_server_get_type:0000000000000008 .L0 
C:\Users\stapi\AppData\Local\Temp\cc2iGzJd.s:65     .text.eap_server_get_type:0000000000000008 .L0 
C:\Users\stapi\AppData\Local\Temp\cc2iGzJd.s:66     .text.eap_server_get_type:0000000000000008 .L0 
C:\Users\stapi\AppData\Local\Temp\cc2iGzJd.s:68     .text.eap_server_get_type:0000000000000008 .L0 
C:\Users\stapi\AppData\Local\Temp\cc2iGzJd.s:69     .text.eap_server_get_type:0000000000000008 .L0 
C:\Users\stapi\AppData\Local\Temp\cc2iGzJd.s:70     .text.eap_server_get_type:0000000000000008 .L0 
C:\Users\stapi\AppData\Local\Temp\cc2iGzJd.s:74     .text.eap_server_get_type:0000000000000010 .L0 
C:\Users\stapi\AppData\Local\Temp\cc2iGzJd.s:79     .text.eap_server_get_type:0000000000000014 .L0 
C:\Users\stapi\AppData\Local\Temp\cc2iGzJd.s:80     .text.eap_server_get_type:0000000000000014 .L0 
C:\Users\stapi\AppData\Local\Temp\cc2iGzJd.s:82     .text.eap_server_get_type:0000000000000016 .L0 
C:\Users\stapi\AppData\Local\Temp\cc2iGzJd.s:83     .text.eap_server_get_type:0000000000000016 .L0 
C:\Users\stapi\AppData\Local\Temp\cc2iGzJd.s:85     .text.eap_server_get_type:000000000000001a .L0 
C:\Users\stapi\AppData\Local\Temp\cc2iGzJd.s:86     .text.eap_server_get_type:000000000000001a .L0 
C:\Users\stapi\AppData\Local\Temp\cc2iGzJd.s:90     .text.eap_server_get_type:000000000000001e .L0 
C:\Users\stapi\AppData\Local\Temp\cc2iGzJd.s:91     .text.eap_server_get_type:000000000000001e .L0 
C:\Users\stapi\AppData\Local\Temp\cc2iGzJd.s:96     .text.eap_server_get_type:000000000000002a .L0 
C:\Users\stapi\AppData\Local\Temp\cc2iGzJd.s:98     .text.eap_server_get_type:000000000000002c .L0 
C:\Users\stapi\AppData\Local\Temp\cc2iGzJd.s:99     .text.eap_server_get_type:000000000000002c .L0 
C:\Users\stapi\AppData\Local\Temp\cc2iGzJd.s:101    .text.eap_server_get_type:000000000000002e .L0 
C:\Users\stapi\AppData\Local\Temp\cc2iGzJd.s:103    .text.eap_server_get_type:0000000000000030 .L0 
C:\Users\stapi\AppData\Local\Temp\cc2iGzJd.s:104    .text.eap_server_get_type:0000000000000030 .L0 
C:\Users\stapi\AppData\Local\Temp\cc2iGzJd.s:107    .text.eap_server_get_type:0000000000000032 .L0 
C:\Users\stapi\AppData\Local\Temp\cc2iGzJd.s:108    .text.eap_server_get_type:000000000000003a .L0 
C:\Users\stapi\AppData\Local\Temp\cc2iGzJd.s:109    .text.eap_server_get_type:000000000000003a .L0 
C:\Users\stapi\AppData\Local\Temp\cc2iGzJd.s:110    .text.eap_server_get_type:000000000000003a .L0 
C:\Users\stapi\AppData\Local\Temp\cc2iGzJd.s:111    .text.eap_server_get_type:000000000000003a .L0 
C:\Users\stapi\AppData\Local\Temp\cc2iGzJd.s:112    .text.eap_server_get_type:000000000000003a .L0 
C:\Users\stapi\AppData\Local\Temp\cc2iGzJd.s:113    .text.eap_server_get_type:000000000000003a .L0 
C:\Users\stapi\AppData\Local\Temp\cc2iGzJd.s:115    .text.eap_server_get_type:000000000000003a .L0 
C:\Users\stapi\AppData\Local\Temp\cc2iGzJd.s:117    .text.eap_server_get_type:000000000000003a .L0 
C:\Users\stapi\AppData\Local\Temp\cc2iGzJd.s:118    .text.eap_server_get_type:000000000000003a .L0 
C:\Users\stapi\AppData\Local\Temp\cc2iGzJd.s:121    .text.eap_server_get_type:000000000000003e .L0 
C:\Users\stapi\AppData\Local\Temp\cc2iGzJd.s:128    .text.eap_server_method_alloc:0000000000000000 eap_server_method_alloc
C:\Users\stapi\AppData\Local\Temp\cc2iGzJd.s:131    .text.eap_server_method_alloc:0000000000000000 .L0 
C:\Users\stapi\AppData\Local\Temp\cc2iGzJd.s:133    .text.eap_server_method_alloc:0000000000000000 .L0 
C:\Users\stapi\AppData\Local\Temp\cc2iGzJd.s:134    .text.eap_server_method_alloc:0000000000000008 .L0 
C:\Users\stapi\AppData\Local\Temp\cc2iGzJd.s:135    .text.eap_server_method_alloc:0000000000000008 .L0 
C:\Users\stapi\AppData\Local\Temp\cc2iGzJd.s:136    .text.eap_server_method_alloc:0000000000000008 .L0 
C:\Users\stapi\AppData\Local\Temp\cc2iGzJd.s:137    .text.eap_server_method_alloc:0000000000000008 .L0 
C:\Users\stapi\AppData\Local\Temp\cc2iGzJd.s:138    .text.eap_server_method_alloc:0000000000000008 .L0 
C:\Users\stapi\AppData\Local\Temp\cc2iGzJd.s:139    .text.eap_server_method_alloc:0000000000000008 .L0 
C:\Users\stapi\AppData\Local\Temp\cc2iGzJd.s:141    .text.eap_server_method_alloc:0000000000000008 .L0 
C:\Users\stapi\AppData\Local\Temp\cc2iGzJd.s:142    .text.eap_server_method_alloc:0000000000000008 .L0 
C:\Users\stapi\AppData\Local\Temp\cc2iGzJd.s:143    .text.eap_server_method_alloc:0000000000000008 .L0 
C:\Users\stapi\AppData\Local\Temp\cc2iGzJd.s:145    .text.eap_server_method_alloc:000000000000000a .L0 
C:\Users\stapi\AppData\Local\Temp\cc2iGzJd.s:148    .text.eap_server_method_alloc:000000000000000e .L0 
C:\Users\stapi\AppData\Local\Temp\cc2iGzJd.s:152    .text.eap_server_method_alloc:0000000000000014 .L0 
C:\Users\stapi\AppData\Local\Temp\cc2iGzJd.s:155    .text.eap_server_method_alloc:000000000000001c .L0 
C:\Users\stapi\AppData\Local\Temp\cc2iGzJd.s:156    .text.eap_server_method_alloc:000000000000001c .L0 
C:\Users\stapi\AppData\Local\Temp\cc2iGzJd.s:158    .text.eap_server_method_alloc:000000000000001e .L0 
C:\Users\stapi\AppData\Local\Temp\cc2iGzJd.s:159    .text.eap_server_method_alloc:000000000000001e .L0 
C:\Users\stapi\AppData\Local\Temp\cc2iGzJd.s:161    .text.eap_server_method_alloc:0000000000000022 .L0 
C:\Users\stapi\AppData\Local\Temp\cc2iGzJd.s:162    .text.eap_server_method_alloc:0000000000000022 .L0 
C:\Users\stapi\AppData\Local\Temp\cc2iGzJd.s:164    .text.eap_server_method_alloc:0000000000000026 .L0 
C:\Users\stapi\AppData\Local\Temp\cc2iGzJd.s:165    .text.eap_server_method_alloc:0000000000000026 .L0 
C:\Users\stapi\AppData\Local\Temp\cc2iGzJd.s:167    .text.eap_server_method_alloc:0000000000000028 .L0 
C:\Users\stapi\AppData\Local\Temp\cc2iGzJd.s:168    .text.eap_server_method_alloc:0000000000000028 .L0 
C:\Users\stapi\AppData\Local\Temp\cc2iGzJd.s:171    .text.eap_server_method_alloc:000000000000002a .L0 
C:\Users\stapi\AppData\Local\Temp\cc2iGzJd.s:172    .text.eap_server_method_alloc:000000000000002a .L0 
C:\Users\stapi\AppData\Local\Temp\cc2iGzJd.s:173    .text.eap_server_method_alloc:0000000000000032 .L0 
C:\Users\stapi\AppData\Local\Temp\cc2iGzJd.s:174    .text.eap_server_method_alloc:0000000000000032 .L0 
C:\Users\stapi\AppData\Local\Temp\cc2iGzJd.s:175    .text.eap_server_method_alloc:0000000000000032 .L0 
C:\Users\stapi\AppData\Local\Temp\cc2iGzJd.s:176    .text.eap_server_method_alloc:0000000000000032 .L0 
C:\Users\stapi\AppData\Local\Temp\cc2iGzJd.s:177    .text.eap_server_method_alloc:0000000000000032 .L0 
C:\Users\stapi\AppData\Local\Temp\cc2iGzJd.s:178    .text.eap_server_method_alloc:0000000000000032 .L0 
C:\Users\stapi\AppData\Local\Temp\cc2iGzJd.s:179    .text.eap_server_method_alloc:0000000000000032 .L0 
C:\Users\stapi\AppData\Local\Temp\cc2iGzJd.s:186    .text.eap_server_method_register:0000000000000000 eap_server_method_register
C:\Users\stapi\AppData\Local\Temp\cc2iGzJd.s:189    .text.eap_server_method_register:0000000000000000 .L0 
C:\Users\stapi\AppData\Local\Temp\cc2iGzJd.s:191    .text.eap_server_method_register:0000000000000000 .L0 
C:\Users\stapi\AppData\Local\Temp\cc2iGzJd.s:192    .text.eap_server_method_register:0000000000000008 .L0 
C:\Users\stapi\AppData\Local\Temp\cc2iGzJd.s:193    .text.eap_server_method_register:0000000000000008 .L0 
C:\Users\stapi\AppData\Local\Temp\cc2iGzJd.s:194    .text.eap_server_method_register:0000000000000008 .L0 
C:\Users\stapi\AppData\Local\Temp\cc2iGzJd.s:195    .text.eap_server_method_register:0000000000000008 .L0 
C:\Users\stapi\AppData\Local\Temp\cc2iGzJd.s:196    .text.eap_server_method_register:0000000000000008 .L0 
C:\Users\stapi\AppData\Local\Temp\cc2iGzJd.s:199    .text.eap_server_method_register:0000000000000008 .L0 
C:\Users\stapi\AppData\Local\Temp\cc2iGzJd.s:200    .text.eap_server_method_register:0000000000000008 .L0 
C:\Users\stapi\AppData\Local\Temp\cc2iGzJd.s:201    .text.eap_server_method_register:0000000000000008 .L0 
C:\Users\stapi\AppData\Local\Temp\cc2iGzJd.s:203    .text.eap_server_method_register:000000000000000a .L0 
C:\Users\stapi\AppData\Local\Temp\cc2iGzJd.s:205    .text.eap_server_method_register:000000000000000c .L0 
C:\Users\stapi\AppData\Local\Temp\cc2iGzJd.s:208    .text.eap_server_method_register:0000000000000010 .L0 
C:\Users\stapi\AppData\Local\Temp\cc2iGzJd.s:216    .text.eap_server_method_register:0000000000000018 .L0 
C:\Users\stapi\AppData\Local\Temp\cc2iGzJd.s:217    .text.eap_server_method_register:0000000000000018 .L0 
C:\Users\stapi\AppData\Local\Temp\cc2iGzJd.s:224    .text.eap_server_method_register:0000000000000022 .L0 
C:\Users\stapi\AppData\Local\Temp\cc2iGzJd.s:225    .text.eap_server_method_register:0000000000000022 .L0 
C:\Users\stapi\AppData\Local\Temp\cc2iGzJd.s:229    .text.eap_server_method_register:0000000000000024 .L0 
C:\Users\stapi\AppData\Local\Temp\cc2iGzJd.s:230    .text.eap_server_method_register:000000000000002c .L0 
C:\Users\stapi\AppData\Local\Temp\cc2iGzJd.s:231    .text.eap_server_method_register:000000000000002c .L0 
C:\Users\stapi\AppData\Local\Temp\cc2iGzJd.s:232    .text.eap_server_method_register:000000000000002c .L0 
C:\Users\stapi\AppData\Local\Temp\cc2iGzJd.s:233    .text.eap_server_method_register:000000000000002c .L0 
C:\Users\stapi\AppData\Local\Temp\cc2iGzJd.s:234    .text.eap_server_method_register:000000000000002c .L0 
C:\Users\stapi\AppData\Local\Temp\cc2iGzJd.s:235    .text.eap_server_method_register:000000000000002c .L0 
C:\Users\stapi\AppData\Local\Temp\cc2iGzJd.s:238    .text.eap_server_method_register:000000000000002c .L0 
C:\Users\stapi\AppData\Local\Temp\cc2iGzJd.s:240    .text.eap_server_method_register:000000000000002c .L0 
C:\Users\stapi\AppData\Local\Temp\cc2iGzJd.s:241    .text.eap_server_method_register:000000000000002c .L0 
C:\Users\stapi\AppData\Local\Temp\cc2iGzJd.s:245    .text.eap_server_method_register:0000000000000034 .L0 
C:\Users\stapi\AppData\Local\Temp\cc2iGzJd.s:250    .text.eap_server_method_register:000000000000003a .L0 
C:\Users\stapi\AppData\Local\Temp\cc2iGzJd.s:251    .text.eap_server_method_register:000000000000003a .L0 
C:\Users\stapi\AppData\Local\Temp\cc2iGzJd.s:253    .text.eap_server_method_register:000000000000003c .L0 
C:\Users\stapi\AppData\Local\Temp\cc2iGzJd.s:254    .text.eap_server_method_register:000000000000003c .L0 
C:\Users\stapi\AppData\Local\Temp\cc2iGzJd.s:256    .text.eap_server_method_register:000000000000003e .L0 
C:\Users\stapi\AppData\Local\Temp\cc2iGzJd.s:257    .text.eap_server_method_register:000000000000003e .L0 
C:\Users\stapi\AppData\Local\Temp\cc2iGzJd.s:260    .text.eap_server_method_register:0000000000000040 .L0 
C:\Users\stapi\AppData\Local\Temp\cc2iGzJd.s:264    .text.eap_server_method_register:0000000000000044 .L0 
C:\Users\stapi\AppData\Local\Temp\cc2iGzJd.s:265    .text.eap_server_method_register:0000000000000044 .L0 
C:\Users\stapi\AppData\Local\Temp\cc2iGzJd.s:270    .text.eap_server_method_register:000000000000004c .L0 
C:\Users\stapi\AppData\Local\Temp\cc2iGzJd.s:278    .text.eap_server_method_register:0000000000000054 .L0 
C:\Users\stapi\AppData\Local\Temp\cc2iGzJd.s:279    .text.eap_server_method_register:0000000000000054 .L0 
C:\Users\stapi\AppData\Local\Temp\cc2iGzJd.s:285    .text.eap_server_method_register:000000000000005e .L0 
C:\Users\stapi\AppData\Local\Temp\cc2iGzJd.s:286    .text.eap_server_method_register:000000000000005e .L0 
C:\Users\stapi\AppData\Local\Temp\cc2iGzJd.s:290    .text.eap_server_method_register:0000000000000062 .L0 
C:\Users\stapi\AppData\Local\Temp\cc2iGzJd.s:295    .text.eap_server_method_register:000000000000006e .L0 
C:\Users\stapi\AppData\Local\Temp\cc2iGzJd.s:298    .text.eap_server_method_register:0000000000000070 .L0 
C:\Users\stapi\AppData\Local\Temp\cc2iGzJd.s:299    .text.eap_server_method_register:0000000000000070 .L0 
C:\Users\stapi\AppData\Local\Temp\cc2iGzJd.s:300    .text.eap_server_method_register:0000000000000070 .L0 
C:\Users\stapi\AppData\Local\Temp\cc2iGzJd.s:306    .text.eap_server_method_register:0000000000000076 .L0 
C:\Users\stapi\AppData\Local\Temp\cc2iGzJd.s:307    .text.eap_server_method_register:0000000000000076 .L0 
C:\Users\stapi\AppData\Local\Temp\cc2iGzJd.s:309    .text.eap_server_method_register:000000000000007c .L0 
C:\Users\stapi\AppData\Local\Temp\cc2iGzJd.s:316    .text.eap_server_unregister_methods:0000000000000000 eap_server_unregister_methods
C:\Users\stapi\AppData\Local\Temp\cc2iGzJd.s:319    .text.eap_server_unregister_methods:0000000000000000 .L0 
C:\Users\stapi\AppData\Local\Temp\cc2iGzJd.s:320    .text.eap_server_unregister_methods:0000000000000000 .L0 
C:\Users\stapi\AppData\Local\Temp\cc2iGzJd.s:321    .text.eap_server_unregister_methods:0000000000000008 .L0 
C:\Users\stapi\AppData\Local\Temp\cc2iGzJd.s:322    .text.eap_server_unregister_methods:0000000000000008 .L0 
C:\Users\stapi\AppData\Local\Temp\cc2iGzJd.s:323    .text.eap_server_unregister_methods:0000000000000008 .L0 
C:\Users\stapi\AppData\Local\Temp\cc2iGzJd.s:325    .text.eap_server_unregister_methods:0000000000000008 .L0 
C:\Users\stapi\AppData\Local\Temp\cc2iGzJd.s:326    .text.eap_server_unregister_methods:0000000000000008 .L0 
C:\Users\stapi\AppData\Local\Temp\cc2iGzJd.s:327    .text.eap_server_unregister_methods:0000000000000008 .L0 
C:\Users\stapi\AppData\Local\Temp\cc2iGzJd.s:330    .text.eap_server_unregister_methods:000000000000000c .L0 
C:\Users\stapi\AppData\Local\Temp\cc2iGzJd.s:331    .text.eap_server_unregister_methods:000000000000000c .L0 
C:\Users\stapi\AppData\Local\Temp\cc2iGzJd.s:334    .text.eap_server_unregister_methods:0000000000000012 .L0 
C:\Users\stapi\AppData\Local\Temp\cc2iGzJd.s:336    .text.eap_server_unregister_methods:0000000000000014 .L0 
C:\Users\stapi\AppData\Local\Temp\cc2iGzJd.s:337    .text.eap_server_unregister_methods:000000000000001c .L0 
C:\Users\stapi\AppData\Local\Temp\cc2iGzJd.s:338    .text.eap_server_unregister_methods:000000000000001c .L0 
C:\Users\stapi\AppData\Local\Temp\cc2iGzJd.s:339    .text.eap_server_unregister_methods:000000000000001c .L0 
C:\Users\stapi\AppData\Local\Temp\cc2iGzJd.s:340    .text.eap_server_unregister_methods:000000000000001c .L0 
C:\Users\stapi\AppData\Local\Temp\cc2iGzJd.s:342    .text.eap_server_unregister_methods:000000000000001c .L0 
C:\Users\stapi\AppData\Local\Temp\cc2iGzJd.s:345    .text.eap_server_unregister_methods:000000000000001c .L0 
C:\Users\stapi\AppData\Local\Temp\cc2iGzJd.s:346    .text.eap_server_unregister_methods:000000000000001c .L0 
C:\Users\stapi\AppData\Local\Temp\cc2iGzJd.s:347    .text.eap_server_unregister_methods:000000000000001c .L0 
C:\Users\stapi\AppData\Local\Temp\cc2iGzJd.s:350    .text.eap_server_unregister_methods:0000000000000020 .L0 
C:\Users\stapi\AppData\Local\Temp\cc2iGzJd.s:351    .text.eap_server_unregister_methods:0000000000000020 .L0 
C:\Users\stapi\AppData\Local\Temp\cc2iGzJd.s:353    .text.eap_server_unregister_methods:0000000000000022 .L0 
C:\Users\stapi\AppData\Local\Temp\cc2iGzJd.s:355    .text.eap_server_unregister_methods:0000000000000024 .L0 
C:\Users\stapi\AppData\Local\Temp\cc2iGzJd.s:363    .text.eap_server_unregister_methods:0000000000000028 .L0 
C:\Users\stapi\AppData\Local\Temp\cc2iGzJd.s:364    .text.eap_server_unregister_methods:0000000000000028 .L0 
C:\Users\stapi\AppData\Local\Temp\cc2iGzJd.s:367    .text.eap_server_unregister_methods:0000000000000030 .L0 
C:\Users\stapi\AppData\Local\Temp\cc2iGzJd.s:370    .text.eap_server_unregister_methods:0000000000000032 .L0 
C:\Users\stapi\AppData\Local\Temp\cc2iGzJd.s:384    .text.eap_server_get_name:0000000000000000 eap_server_get_name
C:\Users\stapi\AppData\Local\Temp\cc2iGzJd.s:387    .text.eap_server_get_name:0000000000000000 .L0 
C:\Users\stapi\AppData\Local\Temp\cc2iGzJd.s:389    .text.eap_server_get_name:0000000000000000 .L0 
C:\Users\stapi\AppData\Local\Temp\cc2iGzJd.s:390    .text.eap_server_get_name:0000000000000000 .L0 
C:\Users\stapi\AppData\Local\Temp\cc2iGzJd.s:391    .text.eap_server_get_name:0000000000000000 .L0 
C:\Users\stapi\AppData\Local\Temp\cc2iGzJd.s:392    .text.eap_server_get_name:0000000000000000 .L0 
C:\Users\stapi\AppData\Local\Temp\cc2iGzJd.s:394    .text.eap_server_get_name:0000000000000002 .L0 
C:\Users\stapi\AppData\Local\Temp\cc2iGzJd.s:398    .text.eap_server_get_name:000000000000000a .L0 
C:\Users\stapi\AppData\Local\Temp\cc2iGzJd.s:399    .text.eap_server_get_name:000000000000000a .L0 
C:\Users\stapi\AppData\Local\Temp\cc2iGzJd.s:404    .text.eap_server_get_name:0000000000000012 .L0 
C:\Users\stapi\AppData\Local\Temp\cc2iGzJd.s:405    .text.eap_server_get_name:0000000000000012 .L0 
C:\Users\stapi\AppData\Local\Temp\cc2iGzJd.s:407    .text.eap_server_get_name:0000000000000014 .L0 
C:\Users\stapi\AppData\Local\Temp\cc2iGzJd.s:414    .text.eap_server_get_name:000000000000001e .L0 
C:\Users\stapi\AppData\Local\Temp\cc2iGzJd.s:415    .text.eap_server_get_name:000000000000001e .L0 
C:\Users\stapi\AppData\Local\Temp\cc2iGzJd.s:418    .text.eap_server_get_name:0000000000000024 .L0 
C:\Users\stapi\AppData\Local\Temp\cc2iGzJd.s:421    .text.eap_server_get_name:000000000000002a .L0 
C:\Users\stapi\AppData\Local\Temp\cc2iGzJd.s:422    .text.eap_server_get_name:000000000000002a .L0 
C:\Users\stapi\AppData\Local\Temp\cc2iGzJd.s:428    .text.eap_server_get_name:000000000000002e .L0 
C:\Users\stapi\AppData\Local\Temp\cc2iGzJd.s:429    .text.eap_server_get_name:000000000000002e .L0 
C:\Users\stapi\AppData\Local\Temp\cc2iGzJd.s:435    .text.eap_server_get_name:0000000000000032 .L0 
C:\Users\stapi\AppData\Local\Temp\cc2iGzJd.s:439    .text.eap_server_get_name:000000000000003a .L0 
C:\Users\stapi\AppData\Local\Temp\cc2iGzJd.s:440    .text.eap_server_get_name:000000000000003c .L0 
C:\Users\stapi\AppData\Local\Temp\cc2iGzJd.s:445    .sbss.eap_methods:0000000000000000 .LANCHOR0
C:\Users\stapi\AppData\Local\Temp\cc2iGzJd.s:448    .sbss.eap_methods:0000000000000000 eap_methods
C:\Users\stapi\AppData\Local\Temp\cc2iGzJd.s:52     .text.eap_server_get_eap_method:000000000000001e .L0 
C:\Users\stapi\AppData\Local\Temp\cc2iGzJd.s:124    .text.eap_server_get_type:000000000000003e .L0 
C:\Users\stapi\AppData\Local\Temp\cc2iGzJd.s:182    .text.eap_server_method_alloc:0000000000000032 .L0 
C:\Users\stapi\AppData\Local\Temp\cc2iGzJd.s:312    .text.eap_server_method_register:000000000000007c .L0 
C:\Users\stapi\AppData\Local\Temp\cc2iGzJd.s:373    .text.eap_server_unregister_methods:0000000000000032 .L0 
C:\Users\stapi\AppData\Local\Temp\cc2iGzJd.s:443    .text.eap_server_get_name:000000000000003c .L0 
                     .debug_frame:0000000000000000 .L0 
C:\Users\stapi\AppData\Local\Temp\cc2iGzJd.s:35     .text.eap_server_get_eap_method:000000000000000e .L5
C:\Users\stapi\AppData\Local\Temp\cc2iGzJd.s:43     .text.eap_server_get_eap_method:000000000000001a .L3
C:\Users\stapi\AppData\Local\Temp\cc2iGzJd.s:32     .text.eap_server_get_eap_method:000000000000000c .L1
C:\Users\stapi\AppData\Local\Temp\cc2iGzJd.s:28     .text.eap_server_get_eap_method:000000000000000a .L2
C:\Users\stapi\AppData\Local\Temp\cc2iGzJd.s:88     .text.eap_server_get_type:000000000000001e .L10
C:\Users\stapi\AppData\Local\Temp\cc2iGzJd.s:105    .text.eap_server_get_type:0000000000000032 .L6
C:\Users\stapi\AppData\Local\Temp\cc2iGzJd.s:114    .text.eap_server_get_type:000000000000003a .L8
C:\Users\stapi\AppData\Local\Temp\cc2iGzJd.s:77     .text.eap_server_get_type:0000000000000014 .L7
C:\Users\stapi\AppData\Local\Temp\cc2iGzJd.s:170    .text.eap_server_method_alloc:000000000000002a .L12
C:\Users\stapi\AppData\Local\Temp\cc2iGzJd.s:211    .text.eap_server_method_register:0000000000000018 .L19
C:\Users\stapi\AppData\Local\Temp\cc2iGzJd.s:237    .text.eap_server_method_register:000000000000002c .L20
C:\Users\stapi\AppData\Local\Temp\cc2iGzJd.s:262    .text.eap_server_method_register:0000000000000044 .L25
C:\Users\stapi\AppData\Local\Temp\cc2iGzJd.s:304    .text.eap_server_method_register:0000000000000076 .L26
C:\Users\stapi\AppData\Local\Temp\cc2iGzJd.s:227    .text.eap_server_method_register:0000000000000024 .L18
C:\Users\stapi\AppData\Local\Temp\cc2iGzJd.s:288    .text.eap_server_method_register:0000000000000062 .L23
C:\Users\stapi\AppData\Local\Temp\cc2iGzJd.s:273    .text.eap_server_method_register:0000000000000054 .L24
C:\Users\stapi\AppData\Local\Temp\cc2iGzJd.s:248    .text.eap_server_method_register:000000000000003a .L22
C:\Users\stapi\AppData\Local\Temp\cc2iGzJd.s:258    .text.eap_server_method_register:0000000000000040 .L37
C:\Users\stapi\AppData\Local\Temp\cc2iGzJd.s:341    .text.eap_server_unregister_methods:000000000000001c .L42
C:\Users\stapi\AppData\Local\Temp\cc2iGzJd.s:359    .text.eap_server_unregister_methods:0000000000000028 .L40
C:\Users\stapi\AppData\Local\Temp\cc2iGzJd.s:328    .text.eap_server_unregister_methods:000000000000000c .L39
C:\Users\stapi\AppData\Local\Temp\cc2iGzJd.s:378    .rodata.eap_server_get_name.str1.4:000000000000000c .LC1
C:\Users\stapi\AppData\Local\Temp\cc2iGzJd.s:375    .rodata.eap_server_get_name.str1.4:0000000000000000 .LC0
C:\Users\stapi\AppData\Local\Temp\cc2iGzJd.s:396    .text.eap_server_get_name:000000000000000a .L45
C:\Users\stapi\AppData\Local\Temp\cc2iGzJd.s:433    .text.eap_server_get_name:0000000000000032 .L50
C:\Users\stapi\AppData\Local\Temp\cc2iGzJd.s:412    .text.eap_server_get_name:000000000000001e .L49
C:\Users\stapi\AppData\Local\Temp\cc2iGzJd.s:426    .text.eap_server_get_name:000000000000002e .L48
C:\Users\stapi\AppData\Local\Temp\cc2iGzJd.s:402    .text.eap_server_get_name:0000000000000012 .L47
C:\Users\stapi\AppData\Local\Temp\cc2iGzJd.s:2797   .debug_abbrev:0000000000000000 .Ldebug_abbrev0
C:\Users\stapi\AppData\Local\Temp\cc2iGzJd.s:4268   .debug_str:00000000000010e1 .LASF295
C:\Users\stapi\AppData\Local\Temp\cc2iGzJd.s:3862   .debug_str:000000000000054e .LASF296
C:\Users\stapi\AppData\Local\Temp\cc2iGzJd.s:3856   .debug_str:00000000000004a1 .LASF297
C:\Users\stapi\AppData\Local\Temp\cc2iGzJd.s:3668   .debug_ranges:0000000000000000 .Ldebug_ranges0
C:\Users\stapi\AppData\Local\Temp\cc2iGzJd.s:3684   .debug_line:0000000000000000 .Ldebug_line0
C:\Users\stapi\AppData\Local\Temp\cc2iGzJd.s:3888   .debug_str:00000000000006aa .LASF2
C:\Users\stapi\AppData\Local\Temp\cc2iGzJd.s:3734   .debug_str:000000000000015e .LASF0
C:\Users\stapi\AppData\Local\Temp\cc2iGzJd.s:3794   .debug_str:00000000000002cc .LASF1
C:\Users\stapi\AppData\Local\Temp\cc2iGzJd.s:4136   .debug_str:0000000000000d5c .LASF3
C:\Users\stapi\AppData\Local\Temp\cc2iGzJd.s:4190   .debug_str:0000000000000eb4 .LASF4
C:\Users\stapi\AppData\Local\Temp\cc2iGzJd.s:4086   .debug_str:0000000000000c17 .LASF5
C:\Users\stapi\AppData\Local\Temp\cc2iGzJd.s:3848   .debug_str:0000000000000466 .LASF6
C:\Users\stapi\AppData\Local\Temp\cc2iGzJd.s:4248   .debug_str:0000000000001055 .LASF7
C:\Users\stapi\AppData\Local\Temp\cc2iGzJd.s:4098   .debug_str:0000000000000c5c .LASF8
C:\Users\stapi\AppData\Local\Temp\cc2iGzJd.s:4194   .debug_str:0000000000000ed2 .LASF9
C:\Users\stapi\AppData\Local\Temp\cc2iGzJd.s:4164   .debug_str:0000000000000df8 .LASF10
C:\Users\stapi\AppData\Local\Temp\cc2iGzJd.s:3950   .debug_str:0000000000000874 .LASF11
C:\Users\stapi\AppData\Local\Temp\cc2iGzJd.s:3830   .debug_str:00000000000003ea .LASF12
C:\Users\stapi\AppData\Local\Temp\cc2iGzJd.s:4076   .debug_str:0000000000000bc4 .LASF13
C:\Users\stapi\AppData\Local\Temp\cc2iGzJd.s:3958   .debug_str:00000000000008a8 .LASF14
C:\Users\stapi\AppData\Local\Temp\cc2iGzJd.s:4066   .debug_str:0000000000000b83 .LASF15
C:\Users\stapi\AppData\Local\Temp\cc2iGzJd.s:3798   .debug_str:00000000000002e8 .LASF16
C:\Users\stapi\AppData\Local\Temp\cc2iGzJd.s:3896   .debug_str:00000000000006dd .LASF17
C:\Users\stapi\AppData\Local\Temp\cc2iGzJd.s:4080   .debug_str:0000000000000bdd .LASF18
C:\Users\stapi\AppData\Local\Temp\cc2iGzJd.s:3744   .debug_str:000000000000018c .LASF19
C:\Users\stapi\AppData\Local\Temp\cc2iGzJd.s:4004   .debug_str:00000000000009cc .LASF20
C:\Users\stapi\AppData\Local\Temp\cc2iGzJd.s:3702   .debug_str:0000000000000063 .LASF21
C:\Users\stapi\AppData\Local\Temp\cc2iGzJd.s:4198   .debug_str:0000000000000eea .LASF22
C:\Users\stapi\AppData\Local\Temp\cc2iGzJd.s:3996   .debug_str:000000000000098b .LASF23
C:\Users\stapi\AppData\Local\Temp\cc2iGzJd.s:4034   .debug_str:0000000000000a9d .LASF24
C:\Users\stapi\AppData\Local\Temp\cc2iGzJd.s:4150   .debug_str:0000000000000da7 .LASF25
C:\Users\stapi\AppData\Local\Temp\cc2iGzJd.s:3988   .debug_str:000000000000095b .LASF26
C:\Users\stapi\AppData\Local\Temp\cc2iGzJd.s:3800   .debug_str:00000000000002f1 .LASF27
C:\Users\stapi\AppData\Local\Temp\cc2iGzJd.s:3812   .debug_str:000000000000035e .LASF28
C:\Users\stapi\AppData\Local\Temp\cc2iGzJd.s:3864   .debug_str:00000000000005eb .LASF29
C:\Users\stapi\AppData\Local\Temp\cc2iGzJd.s:3802   .debug_str:00000000000002fe .LASF30
C:\Users\stapi\AppData\Local\Temp\cc2iGzJd.s:4110   .debug_str:0000000000000c9d .LASF31
C:\Users\stapi\AppData\Local\Temp\cc2iGzJd.s:4270   .debug_str:00000000000011da .LASF32
C:\Users\stapi\AppData\Local\Temp\cc2iGzJd.s:3928   .debug_str:00000000000007cf .LASF33
C:\Users\stapi\AppData\Local\Temp\cc2iGzJd.s:4036   .debug_str:0000000000000aac .LASF34
C:\Users\stapi\AppData\Local\Temp\cc2iGzJd.s:3902   .debug_str:0000000000000700 .LASF35
C:\Users\stapi\AppData\Local\Temp\cc2iGzJd.s:3880   .debug_str:0000000000000670 .LASF46
C:\Users\stapi\AppData\Local\Temp\cc2iGzJd.s:4236   .debug_str:0000000000000ff6 .LASF36
C:\Users\stapi\AppData\Local\Temp\cc2iGzJd.s:3716   .debug_str:00000000000000cc .LASF37
C:\Users\stapi\AppData\Local\Temp\cc2iGzJd.s:4224   .debug_str:0000000000000f95 .LASF38
C:\Users\stapi\AppData\Local\Temp\cc2iGzJd.s:3780   .debug_str:0000000000000282 .LASF42
C:\Users\stapi\AppData\Local\Temp\cc2iGzJd.s:4028   .debug_str:0000000000000a81 .LASF39
C:\Users\stapi\AppData\Local\Temp\cc2iGzJd.s:3866   .debug_str:0000000000000600 .LASF40
C:\Users\stapi\AppData\Local\Temp\cc2iGzJd.s:3722   .debug_str:0000000000000109 .LASF41
C:\Users\stapi\AppData\Local\Temp\cc2iGzJd.s:3774   .debug_str:0000000000000259 .LASF43
C:\Users\stapi\AppData\Local\Temp\cc2iGzJd.s:3736   .debug_str:000000000000016b .LASF44
C:\Users\stapi\AppData\Local\Temp\cc2iGzJd.s:3720   .debug_str:0000000000000104 .LASF45
C:\Users\stapi\AppData\Local\Temp\cc2iGzJd.s:3834   .debug_str:0000000000000410 .LASF47
C:\Users\stapi\AppData\Local\Temp\cc2iGzJd.s:3850   .debug_str:0000000000000471 .LASF48
C:\Users\stapi\AppData\Local\Temp\cc2iGzJd.s:3966   .debug_str:00000000000008c7 .LASF49
C:\Users\stapi\AppData\Local\Temp\cc2iGzJd.s:4258   .debug_str:0000000000001094 .LASF50
C:\Users\stapi\AppData\Local\Temp\cc2iGzJd.s:3706   .debug_str:000000000000007c .LASF51
C:\Users\stapi\AppData\Local\Temp\cc2iGzJd.s:4178   .debug_str:0000000000000e57 .LASF52
C:\Users\stapi\AppData\Local\Temp\cc2iGzJd.s:4094   .debug_str:0000000000000c41 .LASF53
C:\Users\stapi\AppData\Local\Temp\cc2iGzJd.s:3990   .debug_str:0000000000000967 .LASF54
C:\Users\stapi\AppData\Local\Temp\cc2iGzJd.s:3772   .debug_str:000000000000024c .LASF55
C:\Users\stapi\AppData\Local\Temp\cc2iGzJd.s:3872   .debug_str:0000000000000616 .LASF56
C:\Users\stapi\AppData\Local\Temp\cc2iGzJd.s:4014   .debug_str:0000000000000a15 .LASF57
C:\Users\stapi\AppData\Local\Temp\cc2iGzJd.s:4210   .debug_str:0000000000000f33 .LASF58
C:\Users\stapi\AppData\Local\Temp\cc2iGzJd.s:4008   .debug_str:00000000000009e4 .LASF59
C:\Users\stapi\AppData\Local\Temp\cc2iGzJd.s:4056   .debug_str:0000000000000b42 .LASF60
C:\Users\stapi\AppData\Local\Temp\cc2iGzJd.s:3710   .debug_str:0000000000000093 .LASF61
C:\Users\stapi\AppData\Local\Temp\cc2iGzJd.s:3776   .debug_str:0000000000000261 .LASF62
C:\Users\stapi\AppData\Local\Temp\cc2iGzJd.s:3838   .debug_str:0000000000000427 .LASF63
C:\Users\stapi\AppData\Local\Temp\cc2iGzJd.s:3860   .debug_str:0000000000000540 .LASF64
C:\Users\stapi\AppData\Local\Temp\cc2iGzJd.s:4196   .debug_str:0000000000000edd .LASF65
C:\Users\stapi\AppData\Local\Temp\cc2iGzJd.s:3690   .debug_str:0000000000000016 .LASF66
C:\Users\stapi\AppData\Local\Temp\cc2iGzJd.s:3930   .debug_str:00000000000007d9 .LASF67
C:\Users\stapi\AppData\Local\Temp\cc2iGzJd.s:3832   .debug_str:0000000000000401 .LASF68
C:\Users\stapi\AppData\Local\Temp\cc2iGzJd.s:3854   .debug_str:000000000000048e .LASF69
C:\Users\stapi\AppData\Local\Temp\cc2iGzJd.s:4274   .debug_str:00000000000011ef .LASF70
C:\Users\stapi\AppData\Local\Temp\cc2iGzJd.s:3844   .debug_str:000000000000044f .LASF71
C:\Users\stapi\AppData\Local\Temp\cc2iGzJd.s:3756   .debug_str:00000000000001d4 .LASF72
C:\Users\stapi\AppData\Local\Temp\cc2iGzJd.s:4252   .debug_str:0000000000001070 .LASF73
C:\Users\stapi\AppData\Local\Temp\cc2iGzJd.s:4174   .debug_str:0000000000000e3a .LASF74
C:\Users\stapi\AppData\Local\Temp\cc2iGzJd.s:4152   .debug_str:0000000000000db6 .LASF75
C:\Users\stapi\AppData\Local\Temp\cc2iGzJd.s:4232   .debug_str:0000000000000fda .LASF76
C:\Users\stapi\AppData\Local\Temp\cc2iGzJd.s:4030   .debug_str:0000000000000a86 .LASF77
C:\Users\stapi\AppData\Local\Temp\cc2iGzJd.s:3932   .debug_str:00000000000007e7 .LASF78
C:\Users\stapi\AppData\Local\Temp\cc2iGzJd.s:4016   .debug_str:0000000000000a22 .LASF79
C:\Users\stapi\AppData\Local\Temp\cc2iGzJd.s:3936   .debug_str:0000000000000801 .LASF80
C:\Users\stapi\AppData\Local\Temp\cc2iGzJd.s:4206   .debug_str:0000000000000f24 .LASF81
C:\Users\stapi\AppData\Local\Temp\cc2iGzJd.s:4130   .debug_str:0000000000000d32 .LASF82
C:\Users\stapi\AppData\Local\Temp\cc2iGzJd.s:4126   .debug_str:0000000000000d24 .LASF83
C:\Users\stapi\AppData\Local\Temp\cc2iGzJd.s:3688   .debug_str:000000000000000d .LASF84
C:\Users\stapi\AppData\Local\Temp\cc2iGzJd.s:4058   .debug_str:0000000000000b50 .LASF85
C:\Users\stapi\AppData\Local\Temp\cc2iGzJd.s:4096   .debug_str:0000000000000c4e .LASF86
C:\Users\stapi\AppData\Local\Temp\cc2iGzJd.s:3976   .debug_str:000000000000090d .LASF87
C:\Users\stapi\AppData\Local\Temp\cc2iGzJd.s:4070   .debug_str:0000000000000bab .LASF88
C:\Users\stapi\AppData\Local\Temp\cc2iGzJd.s:3886   .debug_str:00000000000006a3 .LASF89
C:\Users\stapi\AppData\Local\Temp\cc2iGzJd.s:3992   .debug_str:0000000000000974 .LASF90
C:\Users\stapi\AppData\Local\Temp\cc2iGzJd.s:4238   .debug_str:0000000000001018 .LASF91
C:\Users\stapi\AppData\Local\Temp\cc2iGzJd.s:4228   .debug_str:0000000000000fca .LASF92
C:\Users\stapi\AppData\Local\Temp\cc2iGzJd.s:3846   .debug_str:000000000000045c .LASF93
C:\Users\stapi\AppData\Local\Temp\cc2iGzJd.s:4212   .debug_str:0000000000000f41 .LASF94
C:\Users\stapi\AppData\Local\Temp\cc2iGzJd.s:4204   .debug_str:0000000000000f16 .LASF95
C:\Users\stapi\AppData\Local\Temp\cc2iGzJd.s:4044   .debug_str:0000000000000aea .LASF180
C:\Users\stapi\AppData\Local\Temp\cc2iGzJd.s:4082   .debug_str:0000000000000bea .LASF96
C:\Users\stapi\AppData\Local\Temp\cc2iGzJd.s:4032   .debug_str:0000000000000a95 .LASF97
C:\Users\stapi\AppData\Local\Temp\cc2iGzJd.s:4054   .debug_str:0000000000000b36 .LASF98
C:\Users\stapi\AppData\Local\Temp\cc2iGzJd.s:4256   .debug_str:0000000000001088 .LASF99
C:\Users\stapi\AppData\Local\Temp\cc2iGzJd.s:3696   .debug_str:0000000000000033 .LASF100
C:\Users\stapi\AppData\Local\Temp\cc2iGzJd.s:3944   .debug_str:000000000000083a .LASF101
C:\Users\stapi\AppData\Local\Temp\cc2iGzJd.s:3964   .debug_str:00000000000008bf .LASF102
C:\Users\stapi\AppData\Local\Temp\cc2iGzJd.s:4272   .debug_str:00000000000011e5 .LASF103
C:\Users\stapi\AppData\Local\Temp\cc2iGzJd.s:4092   .debug_str:0000000000000c3a .LASF104
C:\Users\stapi\AppData\Local\Temp\cc2iGzJd.s:3760   .debug_str:00000000000001ec .LASF105
C:\Users\stapi\AppData\Local\Temp\cc2iGzJd.s:3758   .debug_str:00000000000001e1 .LASF106
C:\Users\stapi\AppData\Local\Temp\cc2iGzJd.s:3882   .debug_str:0000000000000696 .LASF107
C:\Users\stapi\AppData\Local\Temp\cc2iGzJd.s:3806   .debug_str:0000000000000336 .LASF108
C:\Users\stapi\AppData\Local\Temp\cc2iGzJd.s:4026   .debug_str:0000000000000a76 .LASF109
C:\Users\stapi\AppData\Local\Temp\cc2iGzJd.s:3968   .debug_str:00000000000008d9 .LASF110
C:\Users\stapi\AppData\Local\Temp\cc2iGzJd.s:4220   .debug_str:0000000000000f7d .LASF111
C:\Users\stapi\AppData\Local\Temp\cc2iGzJd.s:4050   .debug_str:0000000000000b1f .LASF112
C:\Users\stapi\AppData\Local\Temp\cc2iGzJd.s:4140   .debug_str:0000000000000d6d .LASF113
C:\Users\stapi\AppData\Local\Temp\cc2iGzJd.s:4062   .debug_str:0000000000000b67 .LASF114
C:\Users\stapi\AppData\Local\Temp\cc2iGzJd.s:4060   .debug_str:0000000000000b5d .LASF115
C:\Users\stapi\AppData\Local\Temp\cc2iGzJd.s:4280   .debug_str:0000000000001229 .LASF116
C:\Users\stapi\AppData\Local\Temp\cc2iGzJd.s:4168   .debug_str:0000000000000e13 .LASF117
C:\Users\stapi\AppData\Local\Temp\cc2iGzJd.s:3924   .debug_str:00000000000007bb .LASF118
C:\Users\stapi\AppData\Local\Temp\cc2iGzJd.s:3726   .debug_str:0000000000000134 .LASF119
C:\Users\stapi\AppData\Local\Temp\cc2iGzJd.s:4038   .debug_str:0000000000000abb .LASF120
C:\Users\stapi\AppData\Local\Temp\cc2iGzJd.s:3770   .debug_str:000000000000023b .LASF121
C:\Users\stapi\AppData\Local\Temp\cc2iGzJd.s:4112   .debug_str:0000000000000cae .LASF122
C:\Users\stapi\AppData\Local\Temp\cc2iGzJd.s:3940   .debug_str:0000000000000817 .LASF123
C:\Users\stapi\AppData\Local\Temp\cc2iGzJd.s:4006   .debug_str:00000000000009d9 .LASF124
C:\Users\stapi\AppData\Local\Temp\cc2iGzJd.s:4260   .debug_str:00000000000010aa .LASF125
C:\Users\stapi\AppData\Local\Temp\cc2iGzJd.s:4156   .debug_str:0000000000000dce .LASF126
C:\Users\stapi\AppData\Local\Temp\cc2iGzJd.s:3876   .debug_str:0000000000000642 .LASF127
C:\Users\stapi\AppData\Local\Temp\cc2iGzJd.s:3792   .debug_str:00000000000002c7 .LASF128
C:\Users\stapi\AppData\Local\Temp\cc2iGzJd.s:4250   .debug_str:0000000000001068 .LASF129
C:\Users\stapi\AppData\Local\Temp\cc2iGzJd.s:3984   .debug_str:000000000000093c .LASF130
C:\Users\stapi\AppData\Local\Temp\cc2iGzJd.s:3732   .debug_str:0000000000000155 .LASF131
C:\Users\stapi\AppData\Local\Temp\cc2iGzJd.s:4104   .debug_str:0000000000000c7c .LASF132
C:\Users\stapi\AppData\Local\Temp\cc2iGzJd.s:4100   .debug_str:0000000000000c65 .LASF133
C:\Users\stapi\AppData\Local\Temp\cc2iGzJd.s:4192   .debug_str:0000000000000ec2 .LASF134
C:\Users\stapi\AppData\Local\Temp\cc2iGzJd.s:4170   .debug_str:0000000000000e1e .LASF135
C:\Users\stapi\AppData\Local\Temp\cc2iGzJd.s:4012   .debug_str:0000000000000a01 .LASF136
C:\Users\stapi\AppData\Local\Temp\cc2iGzJd.s:4072   .debug_str:0000000000000bb4 .LASF137
C:\Users\stapi\AppData\Local\Temp\cc2iGzJd.s:3762   .debug_str:00000000000001f5 .LASF138
C:\Users\stapi\AppData\Local\Temp\cc2iGzJd.s:3788   .debug_str:00000000000002ac .LASF139
C:\Users\stapi\AppData\Local\Temp\cc2iGzJd.s:3784   .debug_str:0000000000000296 .LASF140
C:\Users\stapi\AppData\Local\Temp\cc2iGzJd.s:4180   .debug_str:0000000000000e64 .LASF141
C:\Users\stapi\AppData\Local\Temp\cc2iGzJd.s:4046   .debug_str:0000000000000afe .LASF142
C:\Users\stapi\AppData\Local\Temp\cc2iGzJd.s:3786   .debug_str:00000000000002a2 .LASF143
C:\Users\stapi\AppData\Local\Temp\cc2iGzJd.s:4214   .debug_str:0000000000000f4d .LASF144
C:\Users\stapi\AppData\Local\Temp\cc2iGzJd.s:4240   .debug_str:0000000000001024 .LASF145
C:\Users\stapi\AppData\Local\Temp\cc2iGzJd.s:3890   .debug_str:00000000000006b1 .LASF146
C:\Users\stapi\AppData\Local\Temp\cc2iGzJd.s:4134   .debug_str:0000000000000d46 .LASF147
C:\Users\stapi\AppData\Local\Temp\cc2iGzJd.s:4048   .debug_str:0000000000000b06 .LASF148
C:\Users\stapi\AppData\Local\Temp\cc2iGzJd.s:3826   .debug_str:00000000000003c4 .LASF149
C:\Users\stapi\AppData\Local\Temp\cc2iGzJd.s:3804   .debug_str:000000000000030e .LASF150
C:\Users\stapi\AppData\Local\Temp\cc2iGzJd.s:3912   .debug_str:0000000000000747 .LASF151
C:\Users\stapi\AppData\Local\Temp\cc2iGzJd.s:3724   .debug_str:000000000000010f .LASF152
C:\Users\stapi\AppData\Local\Temp\cc2iGzJd.s:4176   .debug_str:0000000000000e4c .LASF153
C:\Users\stapi\AppData\Local\Temp\cc2iGzJd.s:3934   .debug_str:00000000000007f9 .LASF154
C:\Users\stapi\AppData\Local\Temp\cc2iGzJd.s:4154   .debug_str:0000000000000dc6 .LASF155
C:\Users\stapi\AppData\Local\Temp\cc2iGzJd.s:3982   .debug_str:000000000000092c .LASF156
C:\Users\stapi\AppData\Local\Temp\cc2iGzJd.s:3978   .debug_str:0000000000000912 .LASF157
C:\Users\stapi\AppData\Local\Temp\cc2iGzJd.s:3920   .debug_str:00000000000007a2 .LASF158
C:\Users\stapi\AppData\Local\Temp\cc2iGzJd.s:3868   .debug_str:0000000000000605 .LASF159
C:\Users\stapi\AppData\Local\Temp\cc2iGzJd.s:4078   .debug_str:0000000000000bc9 .LASF160
C:\Users\stapi\AppData\Local\Temp\cc2iGzJd.s:4162   .debug_str:0000000000000dea .LASF161
C:\Users\stapi\AppData\Local\Temp\cc2iGzJd.s:3918   .debug_str:0000000000000790 .LASF162
C:\Users\stapi\AppData\Local\Temp\cc2iGzJd.s:4124   .debug_str:0000000000000d11 .LASF163
C:\Users\stapi\AppData\Local\Temp\cc2iGzJd.s:3922   .debug_str:00000000000007ad .LASF164
C:\Users\stapi\AppData\Local\Temp\cc2iGzJd.s:3892   .debug_str:00000000000006bd .LASF165
C:\Users\stapi\AppData\Local\Temp\cc2iGzJd.s:4002   .debug_str:00000000000009b7 .LASF166
C:\Users\stapi\AppData\Local\Temp\cc2iGzJd.s:3842   .debug_str:0000000000000441 .LASF167
C:\Users\stapi\AppData\Local\Temp\cc2iGzJd.s:3768   .debug_str:0000000000000225 .LASF168
C:\Users\stapi\AppData\Local\Temp\cc2iGzJd.s:4084   .debug_str:0000000000000bfe .LASF169
C:\Users\stapi\AppData\Local\Temp\cc2iGzJd.s:3986   .debug_str:0000000000000944 .LASF170
C:\Users\stapi\AppData\Local\Temp\cc2iGzJd.s:3824   .debug_str:00000000000003b9 .LASF171
C:\Users\stapi\AppData\Local\Temp\cc2iGzJd.s:4200   .debug_str:0000000000000ef7 .LASF172
C:\Users\stapi\AppData\Local\Temp\cc2iGzJd.s:3828   .debug_str:00000000000003e0 .LASF173
C:\Users\stapi\AppData\Local\Temp\cc2iGzJd.s:4264   .debug_str:00000000000010d0 .LASF174
C:\Users\stapi\AppData\Local\Temp\cc2iGzJd.s:3836   .debug_str:0000000000000419 .LASF175
C:\Users\stapi\AppData\Local\Temp\cc2iGzJd.s:3820   .debug_str:000000000000039b .LASF176
C:\Users\stapi\AppData\Local\Temp\cc2iGzJd.s:3962   .debug_str:00000000000008b5 .LASF177
C:\Users\stapi\AppData\Local\Temp\cc2iGzJd.s:4010   .debug_str:00000000000009f1 .LASF178
C:\Users\stapi\AppData\Local\Temp\cc2iGzJd.s:3718   .debug_str:00000000000000ee .LASF179
C:\Users\stapi\AppData\Local\Temp\cc2iGzJd.s:3926   .debug_str:00000000000007c3 .LASF181
C:\Users\stapi\AppData\Local\Temp\cc2iGzJd.s:3694   .debug_str:0000000000000028 .LASF182
C:\Users\stapi\AppData\Local\Temp\cc2iGzJd.s:4142   .debug_str:0000000000000d7d .LASF183
C:\Users\stapi\AppData\Local\Temp\cc2iGzJd.s:4158   .debug_str:0000000000000dd9 .LASF184
C:\Users\stapi\AppData\Local\Temp\cc2iGzJd.s:4042   .debug_str:0000000000000adf .LASF185
C:\Users\stapi\AppData\Local\Temp\cc2iGzJd.s:4128   .debug_str:0000000000000d2c .LASF186
C:\Users\stapi\AppData\Local\Temp\cc2iGzJd.s:3810   .debug_str:0000000000000355 .LASF187
C:\Users\stapi\AppData\Local\Temp\cc2iGzJd.s:4102   .debug_str:0000000000000c71 .LASF188
C:\Users\stapi\AppData\Local\Temp\cc2iGzJd.s:3754   .debug_str:00000000000001ce .LASF189
C:\Users\stapi\AppData\Local\Temp\cc2iGzJd.s:3728   .debug_str:0000000000000142 .LASF190
C:\Users\stapi\AppData\Local\Temp\cc2iGzJd.s:4018   .debug_str:0000000000000a35 .LASF191
C:\Users\stapi\AppData\Local\Temp\cc2iGzJd.s:3748   .debug_str:00000000000001a3 .LASF192
C:\Users\stapi\AppData\Local\Temp\cc2iGzJd.s:3904   .debug_str:0000000000000709 .LASF193
C:\Users\stapi\AppData\Local\Temp\cc2iGzJd.s:3900   .debug_str:00000000000006fb .LASF194
C:\Users\stapi\AppData\Local\Temp\cc2iGzJd.s:3738   .debug_str:0000000000000170 .LASF195
C:\Users\stapi\AppData\Local\Temp\cc2iGzJd.s:3994   .debug_str:0000000000000982 .LASF196
C:\Users\stapi\AppData\Local\Temp\cc2iGzJd.s:3998   .debug_str:000000000000099a .LASF197
C:\Users\stapi\AppData\Local\Temp\cc2iGzJd.s:4138   .debug_str:0000000000000d66 .LASF198
C:\Users\stapi\AppData\Local\Temp\cc2iGzJd.s:4052   .debug_str:0000000000000b2c .LASF199
C:\Users\stapi\AppData\Local\Temp\cc2iGzJd.s:4118   .debug_str:0000000000000cdf .LASF200
C:\Users\stapi\AppData\Local\Temp\cc2iGzJd.s:3742   .debug_str:0000000000000185 .LASF201
C:\Users\stapi\AppData\Local\Temp\cc2iGzJd.s:3814   .debug_str:0000000000000371 .LASF202
C:\Users\stapi\AppData\Local\Temp\cc2iGzJd.s:4108   .debug_str:0000000000000c93 .LASF203
C:\Users\stapi\AppData\Local\Temp\cc2iGzJd.s:4024   .debug_str:0000000000000a6a .LASF204
C:\Users\stapi\AppData\Local\Temp\cc2iGzJd.s:3980   .debug_str:000000000000091f .LASF205
C:\Users\stapi\AppData\Local\Temp\cc2iGzJd.s:3766   .debug_str:0000000000000219 .LASF206
C:\Users\stapi\AppData\Local\Temp\cc2iGzJd.s:4242   .debug_str:000000000000102e .LASF207
C:\Users\stapi\AppData\Local\Temp\cc2iGzJd.s:4234   .debug_str:0000000000000fef .LASF208
C:\Users\stapi\AppData\Local\Temp\cc2iGzJd.s:4132   .debug_str:0000000000000d3b .LASF209
C:\Users\stapi\AppData\Local\Temp\cc2iGzJd.s:4266   .debug_str:00000000000010da .LASF210
C:\Users\stapi\AppData\Local\Temp\cc2iGzJd.s:3956   .debug_str:000000000000089d .LASF211
C:\Users\stapi\AppData\Local\Temp\cc2iGzJd.s:4218   .debug_str:0000000000000f72 .LASF212
C:\Users\stapi\AppData\Local\Temp\cc2iGzJd.s:3714   .debug_str:00000000000000bb .LASF213
C:\Users\stapi\AppData\Local\Temp\cc2iGzJd.s:3816   .debug_str:000000000000037f .LASF214
C:\Users\stapi\AppData\Local\Temp\cc2iGzJd.s:4166   .debug_str:0000000000000e0a .LASF215
C:\Users\stapi\AppData\Local\Temp\cc2iGzJd.s:4208   .debug_str:0000000000000f2b .LASF216
C:\Users\stapi\AppData\Local\Temp\cc2iGzJd.s:3708   .debug_str:0000000000000089 .LASF217
C:\Users\stapi\AppData\Local\Temp\cc2iGzJd.s:4230   .debug_str:0000000000000fd1 .LASF218
C:\Users\stapi\AppData\Local\Temp\cc2iGzJd.s:3796   .debug_str:00000000000002d8 .LASF219
C:\Users\stapi\AppData\Local\Temp\cc2iGzJd.s:3952   .debug_str:0000000000000882 .LASF220
C:\Users\stapi\AppData\Local\Temp\cc2iGzJd.s:3740   .debug_str:0000000000000178 .LASF221
C:\Users\stapi\AppData\Local\Temp\cc2iGzJd.s:4116   .debug_str:0000000000000cd4 .LASF222
C:\Users\stapi\AppData\Local\Temp\cc2iGzJd.s:3704   .debug_str:0000000000000077 .LASF223
C:\Users\stapi\AppData\Local\Temp\cc2iGzJd.s:4120   .debug_str:0000000000000cea .LASF224
C:\Users\stapi\AppData\Local\Temp\cc2iGzJd.s:3870   .debug_str:000000000000060f .LASF225
C:\Users\stapi\AppData\Local\Temp\cc2iGzJd.s:3884   .debug_str:000000000000069e .LASF226
C:\Users\stapi\AppData\Local\Temp\cc2iGzJd.s:4040   .debug_str:0000000000000ac9 .LASF227
C:\Users\stapi\AppData\Local\Temp\cc2iGzJd.s:4160   .debug_str:0000000000000dde .LASF228
C:\Users\stapi\AppData\Local\Temp\cc2iGzJd.s:4074   .debug_str:0000000000000bbc .LASF229
C:\Users\stapi\AppData\Local\Temp\cc2iGzJd.s:4064   .debug_str:0000000000000b77 .LASF230
C:\Users\stapi\AppData\Local\Temp\cc2iGzJd.s:4106   .debug_str:0000000000000c88 .LASF231
C:\Users\stapi\AppData\Local\Temp\cc2iGzJd.s:4278   .debug_str:0000000000001218 .LASF232
C:\Users\stapi\AppData\Local\Temp\cc2iGzJd.s:3938   .debug_str:0000000000000808 .LASF233
C:\Users\stapi\AppData\Local\Temp\cc2iGzJd.s:3894   .debug_str:00000000000006ce .LASF234
C:\Users\stapi\AppData\Local\Temp\cc2iGzJd.s:3852   .debug_str:000000000000047f .LASF235
C:\Users\stapi\AppData\Local\Temp\cc2iGzJd.s:3908   .debug_str:0000000000000727 .LASF236
C:\Users\stapi\AppData\Local\Temp\cc2iGzJd.s:3686   .debug_str:0000000000000000 .LASF237
C:\Users\stapi\AppData\Local\Temp\cc2iGzJd.s:4148   .debug_str:0000000000000d9a .LASF238
C:\Users\stapi\AppData\Local\Temp\cc2iGzJd.s:4254   .debug_str:000000000000107e .LASF239
C:\Users\stapi\AppData\Local\Temp\cc2iGzJd.s:4276   .debug_str:00000000000011fd .LASF240
C:\Users\stapi\AppData\Local\Temp\cc2iGzJd.s:3750   .debug_str:00000000000001aa .LASF241
C:\Users\stapi\AppData\Local\Temp\cc2iGzJd.s:3840   .debug_str:0000000000000434 .LASF242
C:\Users\stapi\AppData\Local\Temp\cc2iGzJd.s:4284   .debug_str:0000000000001247 .LASF243
C:\Users\stapi\AppData\Local\Temp\cc2iGzJd.s:3822   .debug_str:00000000000003b0 .LASF244
C:\Users\stapi\AppData\Local\Temp\cc2iGzJd.s:3914   .debug_str:000000000000076f .LASF245
C:\Users\stapi\AppData\Local\Temp\cc2iGzJd.s:4226   .debug_str:0000000000000fb6 .LASF246
C:\Users\stapi\AppData\Local\Temp\cc2iGzJd.s:3906   .debug_str:0000000000000713 .LASF247
C:\Users\stapi\AppData\Local\Temp\cc2iGzJd.s:4114   .debug_str:0000000000000cc1 .LASF248
C:\Users\stapi\AppData\Local\Temp\cc2iGzJd.s:3910   .debug_str:0000000000000734 .LASF249
C:\Users\stapi\AppData\Local\Temp\cc2iGzJd.s:3942   .debug_str:0000000000000828 .LASF250
C:\Users\stapi\AppData\Local\Temp\cc2iGzJd.s:4202   .debug_str:0000000000000f05 .LASF251
C:\Users\stapi\AppData\Local\Temp\cc2iGzJd.s:4244   .debug_str:000000000000103c .LASF252
C:\Users\stapi\AppData\Local\Temp\cc2iGzJd.s:3974   .debug_str:0000000000000905 .LASF253
C:\Users\stapi\AppData\Local\Temp\cc2iGzJd.s:4172   .debug_str:0000000000000e2b .LASF254
C:\Users\stapi\AppData\Local\Temp\cc2iGzJd.s:4144   .debug_str:0000000000000d82 .LASF255
C:\Users\stapi\AppData\Local\Temp\cc2iGzJd.s:4146   .debug_str:0000000000000d8e .LASF256
C:\Users\stapi\AppData\Local\Temp\cc2iGzJd.s:3778   .debug_str:000000000000026e .LASF257
C:\Users\stapi\AppData\Local\Temp\cc2iGzJd.s:3698   .debug_str:0000000000000040 .LASF258
C:\Users\stapi\AppData\Local\Temp\cc2iGzJd.s:4216   .debug_str:0000000000000f57 .LASF259
C:\Users\stapi\AppData\Local\Temp\cc2iGzJd.s:3746   .debug_str:0000000000000199 .LASF260
C:\Users\stapi\AppData\Local\Temp\cc2iGzJd.s:3700   .debug_str:0000000000000053 .LASF261
C:\Users\stapi\AppData\Local\Temp\cc2iGzJd.s:4184   .debug_str:0000000000000e84 .LASF262
C:\Users\stapi\AppData\Local\Temp\cc2iGzJd.s:3858   .debug_str:0000000000000533 .LASF263
C:\Users\stapi\AppData\Local\Temp\cc2iGzJd.s:4282   .debug_str:0000000000001235 .LASF264
C:\Users\stapi\AppData\Local\Temp\cc2iGzJd.s:3752   .debug_str:00000000000001be .LASF265
C:\Users\stapi\AppData\Local\Temp\cc2iGzJd.s:4088   .debug_str:0000000000000c21 .LASF266
C:\Users\stapi\AppData\Local\Temp\cc2iGzJd.s:3782   .debug_str:0000000000000289 .LASF267
C:\Users\stapi\AppData\Local\Temp\cc2iGzJd.s:3948   .debug_str:000000000000085f .LASF268
C:\Users\stapi\AppData\Local\Temp\cc2iGzJd.s:4246   .debug_str:0000000000001048 .LASF269
C:\Users\stapi\AppData\Local\Temp\cc2iGzJd.s:3970   .debug_str:00000000000008e4 .LASF270
C:\Users\stapi\AppData\Local\Temp\cc2iGzJd.s:3946   .debug_str:0000000000000845 .LASF271
C:\Users\stapi\AppData\Local\Temp\cc2iGzJd.s:3712   .debug_str:00000000000000a5 .LASF272
C:\Users\stapi\AppData\Local\Temp\cc2iGzJd.s:4000   .debug_str:00000000000009a7 .LASF273
C:\Users\stapi\AppData\Local\Temp\cc2iGzJd.s:4122   .debug_str:0000000000000d01 .LASF274
C:\Users\stapi\AppData\Local\Temp\cc2iGzJd.s:3730   .debug_str:000000000000014a .LASF275
C:\Users\stapi\AppData\Local\Temp\cc2iGzJd.s:4186   .debug_str:0000000000000e92 .LASF276
C:\Users\stapi\AppData\Local\Temp\cc2iGzJd.s:4188   .debug_str:0000000000000ea3 .LASF277
C:\Users\stapi\AppData\Local\Temp\cc2iGzJd.s:3954   .debug_str:000000000000088b .LASF278
C:\Users\stapi\AppData\Local\Temp\cc2iGzJd.s:3818   .debug_str:0000000000000386 .LASF279
C:\Users\stapi\AppData\Local\Temp\cc2iGzJd.s:4068   .debug_str:0000000000000b8c .LASF280
C:\Users\stapi\AppData\Local\Temp\cc2iGzJd.s:4020   .debug_str:0000000000000a3c .LASF281
C:\Users\stapi\AppData\Local\Temp\cc2iGzJd.s:3972   .debug_str:00000000000008f1 .LASF282
C:\Users\stapi\AppData\Local\Temp\cc2iGzJd.s:4182   .debug_str:0000000000000e70 .LASF283
C:\Users\stapi\AppData\Local\Temp\cc2iGzJd.s:3790   .debug_str:00000000000002bb .LASF285
C:\Users\stapi\AppData\Local\Temp\cc2iGzJd.s:3808   .debug_str:0000000000000341 .LASF286
C:\Users\stapi\AppData\Local\Temp\cc2iGzJd.s:385    .text.eap_server_get_name:0000000000000000 .LFB100
C:\Users\stapi\AppData\Local\Temp\cc2iGzJd.s:441    .text.eap_server_get_name:000000000000003c .LFE100
C:\Users\stapi\AppData\Local\Temp\cc2iGzJd.s:3437   .debug_loc:0000000000000000 .LLST14
C:\Users\stapi\AppData\Local\Temp\cc2iGzJd.s:3960   .debug_str:00000000000008b0 .LASF284
C:\Users\stapi\AppData\Local\Temp\cc2iGzJd.s:3473   .debug_loc:0000000000000053 .LLST15
C:\Users\stapi\AppData\Local\Temp\cc2iGzJd.s:3874   .debug_str:0000000000000624 .LASF298
C:\Users\stapi\AppData\Local\Temp\cc2iGzJd.s:317    .text.eap_server_unregister_methods:0000000000000000 .LFB99
C:\Users\stapi\AppData\Local\Temp\cc2iGzJd.s:371    .text.eap_server_unregister_methods:0000000000000032 .LFE99
C:\Users\stapi\AppData\Local\Temp\cc2iGzJd.s:3480   .debug_loc:0000000000000066 .LLST12
C:\Users\stapi\AppData\Local\Temp\cc2iGzJd.s:361    .text.eap_server_unregister_methods:0000000000000028 .LBB12
C:\Users\stapi\AppData\Local\Temp\cc2iGzJd.s:369    .text.eap_server_unregister_methods:0000000000000032 .LBE12
C:\Users\stapi\AppData\Local\Temp\cc2iGzJd.s:3491   .debug_loc:0000000000000084 .LLST13
C:\Users\stapi\AppData\Local\Temp\cc2iGzJd.s:365    .text.eap_server_unregister_methods:0000000000000030 .LVL29
C:\Users\stapi\AppData\Local\Temp\cc2iGzJd.s:3878   .debug_str:0000000000000655 .LASF287
C:\Users\stapi\AppData\Local\Temp\cc2iGzJd.s:187    .text.eap_server_method_register:0000000000000000 .LFB98
C:\Users\stapi\AppData\Local\Temp\cc2iGzJd.s:310    .text.eap_server_method_register:000000000000007c .LFE98
C:\Users\stapi\AppData\Local\Temp\cc2iGzJd.s:3498   .debug_loc:0000000000000097 .LLST7
C:\Users\stapi\AppData\Local\Temp\cc2iGzJd.s:3509   .debug_loc:00000000000000b5 .LLST8
C:\Users\stapi\AppData\Local\Temp\cc2iGzJd.s:3692   .debug_str:0000000000000023 .LASF288
C:\Users\stapi\AppData\Local\Temp\cc2iGzJd.s:3525   .debug_loc:00000000000000df .LLST9
C:\Users\stapi\AppData\Local\Temp\cc2iGzJd.s:214    .text.eap_server_method_register:0000000000000018 .LBB8
C:\Users\stapi\AppData\Local\Temp\cc2iGzJd.s:222    .text.eap_server_method_register:0000000000000022 .LBE8
C:\Users\stapi\AppData\Local\Temp\cc2iGzJd.s:3550   .debug_loc:0000000000000120 .LLST10
C:\Users\stapi\AppData\Local\Temp\cc2iGzJd.s:220    .text.eap_server_method_register:0000000000000022 .LVL15
C:\Users\stapi\AppData\Local\Temp\cc2iGzJd.s:276    .text.eap_server_method_register:0000000000000054 .LBB10
C:\Users\stapi\AppData\Local\Temp\cc2iGzJd.s:283    .text.eap_server_method_register:000000000000005e .LBE10
C:\Users\stapi\AppData\Local\Temp\cc2iGzJd.s:3561   .debug_loc:000000000000013e .LLST11
C:\Users\stapi\AppData\Local\Temp\cc2iGzJd.s:281    .text.eap_server_method_register:000000000000005e .LVL22
C:\Users\stapi\AppData\Local\Temp\cc2iGzJd.s:293    .text.eap_server_method_register:000000000000006e .LVL23
C:\Users\stapi\AppData\Local\Temp\cc2iGzJd.s:4262   .debug_str:00000000000010b9 .LASF299
C:\Users\stapi\AppData\Local\Temp\cc2iGzJd.s:3898   .debug_str:00000000000006e3 .LASF289
C:\Users\stapi\AppData\Local\Temp\cc2iGzJd.s:129    .text.eap_server_method_alloc:0000000000000000 .LFB96
C:\Users\stapi\AppData\Local\Temp\cc2iGzJd.s:180    .text.eap_server_method_alloc:0000000000000032 .LFE96
C:\Users\stapi\AppData\Local\Temp\cc2iGzJd.s:3568   .debug_loc:0000000000000151 .LLST3
C:\Users\stapi\AppData\Local\Temp\cc2iGzJd.s:3579   .debug_loc:000000000000016f .LLST4
C:\Users\stapi\AppData\Local\Temp\cc2iGzJd.s:3590   .debug_loc:000000000000018d .LLST5
C:\Users\stapi\AppData\Local\Temp\cc2iGzJd.s:3601   .debug_loc:00000000000001ab .LLST6
C:\Users\stapi\AppData\Local\Temp\cc2iGzJd.s:153    .text.eap_server_method_alloc:000000000000001c .LVL10
C:\Users\stapi\AppData\Local\Temp\cc2iGzJd.s:3916   .debug_str:000000000000077c .LASF290
C:\Users\stapi\AppData\Local\Temp\cc2iGzJd.s:57     .text.eap_server_get_type:0000000000000000 .LFB95
C:\Users\stapi\AppData\Local\Temp\cc2iGzJd.s:122    .text.eap_server_get_type:000000000000003e .LFE95
C:\Users\stapi\AppData\Local\Temp\cc2iGzJd.s:3612   .debug_loc:00000000000001c9 .LLST1
C:\Users\stapi\AppData\Local\Temp\cc2iGzJd.s:3623   .debug_loc:00000000000001e7 .LLST2
C:\Users\stapi\AppData\Local\Temp\cc2iGzJd.s:94     .text.eap_server_get_type:000000000000002a .LVL6
C:\Users\stapi\AppData\Local\Temp\cc2iGzJd.s:4022   .debug_str:0000000000000a50 .LASF291
C:\Users\stapi\AppData\Local\Temp\cc2iGzJd.s:14     .text.eap_server_get_eap_method:0000000000000000 .LFB94
C:\Users\stapi\AppData\Local\Temp\cc2iGzJd.s:50     .text.eap_server_get_eap_method:000000000000001e .LFE94
C:\Users\stapi\AppData\Local\Temp\cc2iGzJd.s:3634   .debug_loc:0000000000000205 .LLST0
C:\Users\stapi\AppData\Local\Temp\cc2iGzJd.s:4090   .debug_str:0000000000000c32 .LASF292
C:\Users\stapi\AppData\Local\Temp\cc2iGzJd.s:3764   .debug_str:000000000000020f .LASF293
C:\Users\stapi\AppData\Local\Temp\cc2iGzJd.s:4222   .debug_str:0000000000000f8b .LASF294
C:\Users\stapi\AppData\Local\Temp\cc2iGzJd.s:388    .text.eap_server_get_name:0000000000000000 .LVL30
C:\Users\stapi\AppData\Local\Temp\cc2iGzJd.s:408    .text.eap_server_get_name:0000000000000018 .LVL32
C:\Users\stapi\AppData\Local\Temp\cc2iGzJd.s:411    .text.eap_server_get_name:000000000000001e .LVL33
C:\Users\stapi\AppData\Local\Temp\cc2iGzJd.s:423    .text.eap_server_get_name:000000000000002c .LVL34
C:\Users\stapi\AppData\Local\Temp\cc2iGzJd.s:425    .text.eap_server_get_name:000000000000002e .LVL35
C:\Users\stapi\AppData\Local\Temp\cc2iGzJd.s:436    .text.eap_server_get_name:0000000000000036 .LVL38
C:\Users\stapi\AppData\Local\Temp\cc2iGzJd.s:401    .text.eap_server_get_name:0000000000000012 .LVL31
C:\Users\stapi\AppData\Local\Temp\cc2iGzJd.s:432    .text.eap_server_get_name:0000000000000032 .LVL37
C:\Users\stapi\AppData\Local\Temp\cc2iGzJd.s:344    .text.eap_server_unregister_methods:000000000000001c .LVL26
C:\Users\stapi\AppData\Local\Temp\cc2iGzJd.s:356    .text.eap_server_unregister_methods:0000000000000026 .LVL27
C:\Users\stapi\AppData\Local\Temp\cc2iGzJd.s:358    .text.eap_server_unregister_methods:0000000000000028 .LVL28
C:\Users\stapi\AppData\Local\Temp\cc2iGzJd.s:190    .text.eap_server_method_register:0000000000000000 .LVL11
C:\Users\stapi\AppData\Local\Temp\cc2iGzJd.s:218    .text.eap_server_method_register:000000000000001a .LVL14
C:\Users\stapi\AppData\Local\Temp\cc2iGzJd.s:243    .text.eap_server_method_register:0000000000000034 .LVL18
C:\Users\stapi\AppData\Local\Temp\cc2iGzJd.s:297    .text.eap_server_method_register:0000000000000070 .LVL24
C:\Users\stapi\AppData\Local\Temp\cc2iGzJd.s:302    .text.eap_server_method_register:0000000000000074 .LVL25
C:\Users\stapi\AppData\Local\Temp\cc2iGzJd.s:198    .text.eap_server_method_register:0000000000000008 .LVL12
C:\Users\stapi\AppData\Local\Temp\cc2iGzJd.s:226    .text.eap_server_method_register:0000000000000024 .LVL16
C:\Users\stapi\AppData\Local\Temp\cc2iGzJd.s:236    .text.eap_server_method_register:000000000000002c .LVL17
C:\Users\stapi\AppData\Local\Temp\cc2iGzJd.s:247    .text.eap_server_method_register:000000000000003a .LVL19
C:\Users\stapi\AppData\Local\Temp\cc2iGzJd.s:266    .text.eap_server_method_register:0000000000000046 .LVL20
C:\Users\stapi\AppData\Local\Temp\cc2iGzJd.s:213    .text.eap_server_method_register:0000000000000018 .LVL13
C:\Users\stapi\AppData\Local\Temp\cc2iGzJd.s:275    .text.eap_server_method_register:0000000000000054 .LVL21
C:\Users\stapi\AppData\Local\Temp\cc2iGzJd.s:132    .text.eap_server_method_alloc:0000000000000000 .LVL8
C:\Users\stapi\AppData\Local\Temp\cc2iGzJd.s:146    .text.eap_server_method_alloc:000000000000000e .LVL9
C:\Users\stapi\AppData\Local\Temp\cc2iGzJd.s:60     .text.eap_server_get_type:0000000000000000 .LVL3
C:\Users\stapi\AppData\Local\Temp\cc2iGzJd.s:76     .text.eap_server_get_type:0000000000000014 .LVL5
C:\Users\stapi\AppData\Local\Temp\cc2iGzJd.s:18     .text.eap_server_get_eap_method:0000000000000000 .LVL0
C:\Users\stapi\AppData\Local\Temp\cc2iGzJd.s:27     .text.eap_server_get_eap_method:000000000000000a .LVL1
C:\Users\stapi\AppData\Local\Temp\cc2iGzJd.s:465    .debug_info:0000000000000000 .Ldebug_info0

UNDEFINED SYMBOLS
__riscv_save_3
os_strcmp
__riscv_restore_3
__riscv_save_4
os_zalloc
__riscv_restore_4
os_free
__riscv_save_1
__riscv_restore_1
