   1              		.file	"eap_server_methods.c"
   2              		.option nopic
   3              		.attribute arch, "rv32i2p0_m2p0_a2p0_f2p0_c2p0_b_p0p94"
   4              		.attribute unaligned_access, 0
   5              		.attribute stack_align, 16
   6              		.text
   7              	.Ltext0:
   8              		.cfi_sections	.debug_frame
   9              		.section	.text.eap_server_get_eap_method,"ax",@progbits
  10              		.align	1
  11              		.globl	eap_server_get_eap_method
  13              	eap_server_get_eap_method:
  14              	.LFB94:
  15              		.file 1 "C:/Users/stapi/OneDrive/Desktop/GD32VW553/V1_MQTT_OK/GD32VW55X_Wifi_BLE_SDK/GD32VW55x_REL
   1:C:/Users/stapi/OneDrive/Desktop/GD32VW553/V1_MQTT_OK/GD32VW55X_Wifi_BLE_SDK/GD32VW55x_RELEASE_V1.0.2/MSDK/wpa_supplicant/src/eap_server\eap_server_methods.c **** /*
   2:C:/Users/stapi/OneDrive/Desktop/GD32VW553/V1_MQTT_OK/GD32VW55X_Wifi_BLE_SDK/GD32VW55x_RELEASE_V1.0.2/MSDK/wpa_supplicant/src/eap_server\eap_server_methods.c ****  * EAP server method registration
   3:C:/Users/stapi/OneDrive/Desktop/GD32VW553/V1_MQTT_OK/GD32VW55X_Wifi_BLE_SDK/GD32VW55x_RELEASE_V1.0.2/MSDK/wpa_supplicant/src/eap_server\eap_server_methods.c ****  * Copyright (c) 2004-2009, Jouni Malinen <j@w1.fi>
   4:C:/Users/stapi/OneDrive/Desktop/GD32VW553/V1_MQTT_OK/GD32VW55X_Wifi_BLE_SDK/GD32VW55x_RELEASE_V1.0.2/MSDK/wpa_supplicant/src/eap_server\eap_server_methods.c ****  *
   5:C:/Users/stapi/OneDrive/Desktop/GD32VW553/V1_MQTT_OK/GD32VW55X_Wifi_BLE_SDK/GD32VW55x_RELEASE_V1.0.2/MSDK/wpa_supplicant/src/eap_server\eap_server_methods.c ****  * This software may be distributed under the terms of the BSD license.
   6:C:/Users/stapi/OneDrive/Desktop/GD32VW553/V1_MQTT_OK/GD32VW55X_Wifi_BLE_SDK/GD32VW55x_RELEASE_V1.0.2/MSDK/wpa_supplicant/src/eap_server\eap_server_methods.c ****  * See README for more details.
   7:C:/Users/stapi/OneDrive/Desktop/GD32VW553/V1_MQTT_OK/GD32VW55X_Wifi_BLE_SDK/GD32VW55x_RELEASE_V1.0.2/MSDK/wpa_supplicant/src/eap_server\eap_server_methods.c ****  */
   8:C:/Users/stapi/OneDrive/Desktop/GD32VW553/V1_MQTT_OK/GD32VW55X_Wifi_BLE_SDK/GD32VW55x_RELEASE_V1.0.2/MSDK/wpa_supplicant/src/eap_server\eap_server_methods.c **** 
   9:C:/Users/stapi/OneDrive/Desktop/GD32VW553/V1_MQTT_OK/GD32VW55X_Wifi_BLE_SDK/GD32VW55x_RELEASE_V1.0.2/MSDK/wpa_supplicant/src/eap_server\eap_server_methods.c **** #include "includes.h"
  10:C:/Users/stapi/OneDrive/Desktop/GD32VW553/V1_MQTT_OK/GD32VW55X_Wifi_BLE_SDK/GD32VW55x_RELEASE_V1.0.2/MSDK/wpa_supplicant/src/eap_server\eap_server_methods.c **** 
  11:C:/Users/stapi/OneDrive/Desktop/GD32VW553/V1_MQTT_OK/GD32VW55X_Wifi_BLE_SDK/GD32VW55x_RELEASE_V1.0.2/MSDK/wpa_supplicant/src/eap_server\eap_server_methods.c **** #include "common.h"
  12:C:/Users/stapi/OneDrive/Desktop/GD32VW553/V1_MQTT_OK/GD32VW55X_Wifi_BLE_SDK/GD32VW55x_RELEASE_V1.0.2/MSDK/wpa_supplicant/src/eap_server\eap_server_methods.c **** #include "eap_i.h"
  13:C:/Users/stapi/OneDrive/Desktop/GD32VW553/V1_MQTT_OK/GD32VW55X_Wifi_BLE_SDK/GD32VW55x_RELEASE_V1.0.2/MSDK/wpa_supplicant/src/eap_server\eap_server_methods.c **** #include "eap_methods.h"
  14:C:/Users/stapi/OneDrive/Desktop/GD32VW553/V1_MQTT_OK/GD32VW55X_Wifi_BLE_SDK/GD32VW55x_RELEASE_V1.0.2/MSDK/wpa_supplicant/src/eap_server\eap_server_methods.c **** 
  15:C:/Users/stapi/OneDrive/Desktop/GD32VW553/V1_MQTT_OK/GD32VW55X_Wifi_BLE_SDK/GD32VW55x_RELEASE_V1.0.2/MSDK/wpa_supplicant/src/eap_server\eap_server_methods.c **** 
  16:C:/Users/stapi/OneDrive/Desktop/GD32VW553/V1_MQTT_OK/GD32VW55X_Wifi_BLE_SDK/GD32VW55x_RELEASE_V1.0.2/MSDK/wpa_supplicant/src/eap_server\eap_server_methods.c **** static struct eap_method *eap_methods;
  17:C:/Users/stapi/OneDrive/Desktop/GD32VW553/V1_MQTT_OK/GD32VW55X_Wifi_BLE_SDK/GD32VW55x_RELEASE_V1.0.2/MSDK/wpa_supplicant/src/eap_server\eap_server_methods.c **** 
  18:C:/Users/stapi/OneDrive/Desktop/GD32VW553/V1_MQTT_OK/GD32VW55X_Wifi_BLE_SDK/GD32VW55x_RELEASE_V1.0.2/MSDK/wpa_supplicant/src/eap_server\eap_server_methods.c **** 
  19:C:/Users/stapi/OneDrive/Desktop/GD32VW553/V1_MQTT_OK/GD32VW55X_Wifi_BLE_SDK/GD32VW55x_RELEASE_V1.0.2/MSDK/wpa_supplicant/src/eap_server\eap_server_methods.c **** /**
  20:C:/Users/stapi/OneDrive/Desktop/GD32VW553/V1_MQTT_OK/GD32VW55X_Wifi_BLE_SDK/GD32VW55x_RELEASE_V1.0.2/MSDK/wpa_supplicant/src/eap_server\eap_server_methods.c ****  * eap_server_get_eap_method - Get EAP method based on type number
  21:C:/Users/stapi/OneDrive/Desktop/GD32VW553/V1_MQTT_OK/GD32VW55X_Wifi_BLE_SDK/GD32VW55x_RELEASE_V1.0.2/MSDK/wpa_supplicant/src/eap_server\eap_server_methods.c ****  * @vendor: EAP Vendor-Id (0 = IETF)
  22:C:/Users/stapi/OneDrive/Desktop/GD32VW553/V1_MQTT_OK/GD32VW55X_Wifi_BLE_SDK/GD32VW55x_RELEASE_V1.0.2/MSDK/wpa_supplicant/src/eap_server\eap_server_methods.c ****  * @method: EAP type number
  23:C:/Users/stapi/OneDrive/Desktop/GD32VW553/V1_MQTT_OK/GD32VW55X_Wifi_BLE_SDK/GD32VW55x_RELEASE_V1.0.2/MSDK/wpa_supplicant/src/eap_server\eap_server_methods.c ****  * Returns: Pointer to EAP method or %NULL if not found
  24:C:/Users/stapi/OneDrive/Desktop/GD32VW553/V1_MQTT_OK/GD32VW55X_Wifi_BLE_SDK/GD32VW55x_RELEASE_V1.0.2/MSDK/wpa_supplicant/src/eap_server\eap_server_methods.c ****  */
  25:C:/Users/stapi/OneDrive/Desktop/GD32VW553/V1_MQTT_OK/GD32VW55X_Wifi_BLE_SDK/GD32VW55x_RELEASE_V1.0.2/MSDK/wpa_supplicant/src/eap_server\eap_server_methods.c **** const struct eap_method * eap_server_get_eap_method(int vendor,
  26:C:/Users/stapi/OneDrive/Desktop/GD32VW553/V1_MQTT_OK/GD32VW55X_Wifi_BLE_SDK/GD32VW55x_RELEASE_V1.0.2/MSDK/wpa_supplicant/src/eap_server\eap_server_methods.c **** 						    enum eap_type method)
  27:C:/Users/stapi/OneDrive/Desktop/GD32VW553/V1_MQTT_OK/GD32VW55X_Wifi_BLE_SDK/GD32VW55x_RELEASE_V1.0.2/MSDK/wpa_supplicant/src/eap_server\eap_server_methods.c **** {
  16              		.loc 1 27 1
  17              		.cfi_startproc
  18              	.LVL0:
  28:C:/Users/stapi/OneDrive/Desktop/GD32VW553/V1_MQTT_OK/GD32VW55X_Wifi_BLE_SDK/GD32VW55x_RELEASE_V1.0.2/MSDK/wpa_supplicant/src/eap_server\eap_server_methods.c **** 	struct eap_method *m;
  19              		.loc 1 28 2
  29:C:/Users/stapi/OneDrive/Desktop/GD32VW553/V1_MQTT_OK/GD32VW55X_Wifi_BLE_SDK/GD32VW55x_RELEASE_V1.0.2/MSDK/wpa_supplicant/src/eap_server\eap_server_methods.c **** 	for (m = eap_methods; m; m = m->next) {
  20              		.loc 1 29 2
  21              		.loc 1 29 9 is_stmt 0
  22 0000 37070000 		lui	a4,%hi(.LANCHOR0)
  27:C:/Users/stapi/OneDrive/Desktop/GD32VW553/V1_MQTT_OK/GD32VW55X_Wifi_BLE_SDK/GD32VW55x_RELEASE_V1.0.2/MSDK/wpa_supplicant/src/eap_server\eap_server_methods.c **** 	struct eap_method *m;
  23              		.loc 1 27 1
  24 0004 AA87     		mv	a5,a0
  25              		.loc 1 29 9
  26 0006 03250700 		lw	a0,%lo(.LANCHOR0)(a4)
  27              	.LVL1:
  28              	.L2:
  29              		.loc 1 29 24 is_stmt 1 discriminator 1
  30              		.loc 1 29 2 is_stmt 0 discriminator 1
  31 000a 11E1     		bne	a0,zero,.L5
  32              	.L1:
  30:C:/Users/stapi/OneDrive/Desktop/GD32VW553/V1_MQTT_OK/GD32VW55X_Wifi_BLE_SDK/GD32VW55x_RELEASE_V1.0.2/MSDK/wpa_supplicant/src/eap_server\eap_server_methods.c **** 		if (m->vendor == vendor && m->method == method)
  31:C:/Users/stapi/OneDrive/Desktop/GD32VW553/V1_MQTT_OK/GD32VW55X_Wifi_BLE_SDK/GD32VW55x_RELEASE_V1.0.2/MSDK/wpa_supplicant/src/eap_server\eap_server_methods.c **** 			return m;
  32:C:/Users/stapi/OneDrive/Desktop/GD32VW553/V1_MQTT_OK/GD32VW55X_Wifi_BLE_SDK/GD32VW55x_RELEASE_V1.0.2/MSDK/wpa_supplicant/src/eap_server\eap_server_methods.c **** 	}
  33:C:/Users/stapi/OneDrive/Desktop/GD32VW553/V1_MQTT_OK/GD32VW55X_Wifi_BLE_SDK/GD32VW55x_RELEASE_V1.0.2/MSDK/wpa_supplicant/src/eap_server\eap_server_methods.c **** 	return NULL;
  34:C:/Users/stapi/OneDrive/Desktop/GD32VW553/V1_MQTT_OK/GD32VW55X_Wifi_BLE_SDK/GD32VW55x_RELEASE_V1.0.2/MSDK/wpa_supplicant/src/eap_server\eap_server_methods.c **** }
  33              		.loc 1 34 1
  34 000c 8280     		ret
  35              	.L5:
  30:C:/Users/stapi/OneDrive/Desktop/GD32VW553/V1_MQTT_OK/GD32VW55X_Wifi_BLE_SDK/GD32VW55x_RELEASE_V1.0.2/MSDK/wpa_supplicant/src/eap_server\eap_server_methods.c **** 		if (m->vendor == vendor && m->method == method)
  36              		.loc 1 30 3 is_stmt 1
  30:C:/Users/stapi/OneDrive/Desktop/GD32VW553/V1_MQTT_OK/GD32VW55X_Wifi_BLE_SDK/GD32VW55x_RELEASE_V1.0.2/MSDK/wpa_supplicant/src/eap_server\eap_server_methods.c **** 		if (m->vendor == vendor && m->method == method)
  37              		.loc 1 30 6 is_stmt 0
  38 000e 1841     		lw	a4,0(a0)
  39 0010 6315F700 		bne	a4,a5,.L3
  30:C:/Users/stapi/OneDrive/Desktop/GD32VW553/V1_MQTT_OK/GD32VW55X_Wifi_BLE_SDK/GD32VW55x_RELEASE_V1.0.2/MSDK/wpa_supplicant/src/eap_server\eap_server_methods.c **** 		if (m->vendor == vendor && m->method == method)
  40              		.loc 1 30 27 discriminator 1
  41 0014 5841     		lw	a4,4(a0)
  42 0016 E30BB7FE 		beq	a4,a1,.L1
  43              	.L3:
  29:C:/Users/stapi/OneDrive/Desktop/GD32VW553/V1_MQTT_OK/GD32VW55X_Wifi_BLE_SDK/GD32VW55x_RELEASE_V1.0.2/MSDK/wpa_supplicant/src/eap_server\eap_server_methods.c **** 		if (m->vendor == vendor && m->method == method)
  44              		.loc 1 29 27 is_stmt 1 discriminator 2
  29:C:/Users/stapi/OneDrive/Desktop/GD32VW553/V1_MQTT_OK/GD32VW55X_Wifi_BLE_SDK/GD32VW55x_RELEASE_V1.0.2/MSDK/wpa_supplicant/src/eap_server\eap_server_methods.c **** 		if (m->vendor == vendor && m->method == method)
  45              		.loc 1 29 29 is_stmt 0 discriminator 2
  46 001a 485D     		lw	a0,60(a0)
  47              	.LVL2:
  48 001c FDB7     		j	.L2
  49              		.cfi_endproc
  50              	.LFE94:
  52              		.section	.text.eap_server_get_type,"ax",@progbits
  53              		.align	1
  54              		.globl	eap_server_get_type
  56              	eap_server_get_type:
  57              	.LFB95:
  35:C:/Users/stapi/OneDrive/Desktop/GD32VW553/V1_MQTT_OK/GD32VW55X_Wifi_BLE_SDK/GD32VW55x_RELEASE_V1.0.2/MSDK/wpa_supplicant/src/eap_server\eap_server_methods.c **** 
  36:C:/Users/stapi/OneDrive/Desktop/GD32VW553/V1_MQTT_OK/GD32VW55X_Wifi_BLE_SDK/GD32VW55x_RELEASE_V1.0.2/MSDK/wpa_supplicant/src/eap_server\eap_server_methods.c **** 
  37:C:/Users/stapi/OneDrive/Desktop/GD32VW553/V1_MQTT_OK/GD32VW55X_Wifi_BLE_SDK/GD32VW55x_RELEASE_V1.0.2/MSDK/wpa_supplicant/src/eap_server\eap_server_methods.c **** /**
  38:C:/Users/stapi/OneDrive/Desktop/GD32VW553/V1_MQTT_OK/GD32VW55X_Wifi_BLE_SDK/GD32VW55x_RELEASE_V1.0.2/MSDK/wpa_supplicant/src/eap_server\eap_server_methods.c ****  * eap_server_get_type - Get EAP type for the given EAP method name
  39:C:/Users/stapi/OneDrive/Desktop/GD32VW553/V1_MQTT_OK/GD32VW55X_Wifi_BLE_SDK/GD32VW55x_RELEASE_V1.0.2/MSDK/wpa_supplicant/src/eap_server\eap_server_methods.c ****  * @name: EAP method name, e.g., TLS
  40:C:/Users/stapi/OneDrive/Desktop/GD32VW553/V1_MQTT_OK/GD32VW55X_Wifi_BLE_SDK/GD32VW55x_RELEASE_V1.0.2/MSDK/wpa_supplicant/src/eap_server\eap_server_methods.c ****  * @vendor: Buffer for returning EAP Vendor-Id
  41:C:/Users/stapi/OneDrive/Desktop/GD32VW553/V1_MQTT_OK/GD32VW55X_Wifi_BLE_SDK/GD32VW55x_RELEASE_V1.0.2/MSDK/wpa_supplicant/src/eap_server\eap_server_methods.c ****  * Returns: EAP method type or %EAP_TYPE_NONE if not found
  42:C:/Users/stapi/OneDrive/Desktop/GD32VW553/V1_MQTT_OK/GD32VW55X_Wifi_BLE_SDK/GD32VW55x_RELEASE_V1.0.2/MSDK/wpa_supplicant/src/eap_server\eap_server_methods.c ****  *
  43:C:/Users/stapi/OneDrive/Desktop/GD32VW553/V1_MQTT_OK/GD32VW55X_Wifi_BLE_SDK/GD32VW55x_RELEASE_V1.0.2/MSDK/wpa_supplicant/src/eap_server\eap_server_methods.c ****  * This function maps EAP type names into EAP type numbers based on the list of
  44:C:/Users/stapi/OneDrive/Desktop/GD32VW553/V1_MQTT_OK/GD32VW55X_Wifi_BLE_SDK/GD32VW55x_RELEASE_V1.0.2/MSDK/wpa_supplicant/src/eap_server\eap_server_methods.c ****  * EAP methods included in the build.
  45:C:/Users/stapi/OneDrive/Desktop/GD32VW553/V1_MQTT_OK/GD32VW55X_Wifi_BLE_SDK/GD32VW55x_RELEASE_V1.0.2/MSDK/wpa_supplicant/src/eap_server\eap_server_methods.c ****  */
  46:C:/Users/stapi/OneDrive/Desktop/GD32VW553/V1_MQTT_OK/GD32VW55X_Wifi_BLE_SDK/GD32VW55x_RELEASE_V1.0.2/MSDK/wpa_supplicant/src/eap_server\eap_server_methods.c **** enum eap_type eap_server_get_type(const char *name, int *vendor)
  47:C:/Users/stapi/OneDrive/Desktop/GD32VW553/V1_MQTT_OK/GD32VW55X_Wifi_BLE_SDK/GD32VW55x_RELEASE_V1.0.2/MSDK/wpa_supplicant/src/eap_server\eap_server_methods.c **** {
  58              		.loc 1 47 1 is_stmt 1
  59              		.cfi_startproc
  60              	.LVL3:
  61 0000 17030000 		call	t0,__riscv_save_3
  61      E7020300 
  62              		.cfi_offset 18, -16
  63              		.cfi_offset 9, -12
  64              		.cfi_offset 8, -8
  65              		.cfi_offset 1, -4
  66              		.cfi_def_cfa_offset 16
  48:C:/Users/stapi/OneDrive/Desktop/GD32VW553/V1_MQTT_OK/GD32VW55X_Wifi_BLE_SDK/GD32VW55x_RELEASE_V1.0.2/MSDK/wpa_supplicant/src/eap_server\eap_server_methods.c **** 	struct eap_method *m;
  67              		.loc 1 48 2
  49:C:/Users/stapi/OneDrive/Desktop/GD32VW553/V1_MQTT_OK/GD32VW55X_Wifi_BLE_SDK/GD32VW55x_RELEASE_V1.0.2/MSDK/wpa_supplicant/src/eap_server\eap_server_methods.c **** 	for (m = eap_methods; m; m = m->next) {
  68              		.loc 1 49 2
  69              		.loc 1 49 9 is_stmt 0
  70 0008 B7070000 		lui	a5,%hi(.LANCHOR0)
  71 000c 03A40700 		lw	s0,%lo(.LANCHOR0)(a5)
  72              	.LVL4:
  47:C:/Users/stapi/OneDrive/Desktop/GD32VW553/V1_MQTT_OK/GD32VW55X_Wifi_BLE_SDK/GD32VW55x_RELEASE_V1.0.2/MSDK/wpa_supplicant/src/eap_server\eap_server_methods.c **** 	struct eap_method *m;
  73              		.loc 1 47 1
  74 0010 2A89     		mv	s2,a0
  75 0012 AE84     		mv	s1,a1
  76              	.LVL5:
  77              	.L7:
  78              		.loc 1 49 24 is_stmt 1 discriminator 1
  79              		.loc 1 49 2 is_stmt 0 discriminator 1
  80 0014 09E4     		bne	s0,zero,.L10
  50:C:/Users/stapi/OneDrive/Desktop/GD32VW553/V1_MQTT_OK/GD32VW55X_Wifi_BLE_SDK/GD32VW55x_RELEASE_V1.0.2/MSDK/wpa_supplicant/src/eap_server\eap_server_methods.c **** 		if (os_strcmp(m->name, name) == 0) {
  51:C:/Users/stapi/OneDrive/Desktop/GD32VW553/V1_MQTT_OK/GD32VW55X_Wifi_BLE_SDK/GD32VW55x_RELEASE_V1.0.2/MSDK/wpa_supplicant/src/eap_server\eap_server_methods.c **** 			*vendor = m->vendor;
  52:C:/Users/stapi/OneDrive/Desktop/GD32VW553/V1_MQTT_OK/GD32VW55X_Wifi_BLE_SDK/GD32VW55x_RELEASE_V1.0.2/MSDK/wpa_supplicant/src/eap_server\eap_server_methods.c **** 			return m->method;
  53:C:/Users/stapi/OneDrive/Desktop/GD32VW553/V1_MQTT_OK/GD32VW55X_Wifi_BLE_SDK/GD32VW55x_RELEASE_V1.0.2/MSDK/wpa_supplicant/src/eap_server\eap_server_methods.c **** 		}
  54:C:/Users/stapi/OneDrive/Desktop/GD32VW553/V1_MQTT_OK/GD32VW55X_Wifi_BLE_SDK/GD32VW55x_RELEASE_V1.0.2/MSDK/wpa_supplicant/src/eap_server\eap_server_methods.c **** 	}
  55:C:/Users/stapi/OneDrive/Desktop/GD32VW553/V1_MQTT_OK/GD32VW55X_Wifi_BLE_SDK/GD32VW55x_RELEASE_V1.0.2/MSDK/wpa_supplicant/src/eap_server\eap_server_methods.c **** 	*vendor = EAP_VENDOR_IETF;
  81              		.loc 1 55 2 is_stmt 1
  82              		.loc 1 55 10 is_stmt 0
  83 0016 23A00400 		sw	zero,0(s1)
  56:C:/Users/stapi/OneDrive/Desktop/GD32VW553/V1_MQTT_OK/GD32VW55X_Wifi_BLE_SDK/GD32VW55x_RELEASE_V1.0.2/MSDK/wpa_supplicant/src/eap_server\eap_server_methods.c **** 	return EAP_TYPE_NONE;
  84              		.loc 1 56 2 is_stmt 1
  85              		.loc 1 56 9 is_stmt 0
  86 001a 0145     		li	a0,0
  87 001c 19A8     		j	.L6
  88              	.L10:
  50:C:/Users/stapi/OneDrive/Desktop/GD32VW553/V1_MQTT_OK/GD32VW55X_Wifi_BLE_SDK/GD32VW55x_RELEASE_V1.0.2/MSDK/wpa_supplicant/src/eap_server\eap_server_methods.c **** 		if (os_strcmp(m->name, name) == 0) {
  89              		.loc 1 50 3 is_stmt 1
  50:C:/Users/stapi/OneDrive/Desktop/GD32VW553/V1_MQTT_OK/GD32VW55X_Wifi_BLE_SDK/GD32VW55x_RELEASE_V1.0.2/MSDK/wpa_supplicant/src/eap_server\eap_server_methods.c **** 		if (os_strcmp(m->name, name) == 0) {
  90              		.loc 1 50 7 is_stmt 0
  91 001e 0844     		lw	a0,8(s0)
  92 0020 CA85     		mv	a1,s2
  93 0022 97000000 		call	os_strcmp
  93      E7800000 
  94              	.LVL6:
  50:C:/Users/stapi/OneDrive/Desktop/GD32VW553/V1_MQTT_OK/GD32VW55X_Wifi_BLE_SDK/GD32VW55x_RELEASE_V1.0.2/MSDK/wpa_supplicant/src/eap_server\eap_server_methods.c **** 		if (os_strcmp(m->name, name) == 0) {
  95              		.loc 1 50 6
  96 002a 01E9     		bne	a0,zero,.L8
  51:C:/Users/stapi/OneDrive/Desktop/GD32VW553/V1_MQTT_OK/GD32VW55X_Wifi_BLE_SDK/GD32VW55x_RELEASE_V1.0.2/MSDK/wpa_supplicant/src/eap_server\eap_server_methods.c **** 			return m->method;
  97              		.loc 1 51 4 is_stmt 1
  51:C:/Users/stapi/OneDrive/Desktop/GD32VW553/V1_MQTT_OK/GD32VW55X_Wifi_BLE_SDK/GD32VW55x_RELEASE_V1.0.2/MSDK/wpa_supplicant/src/eap_server\eap_server_methods.c **** 			return m->method;
  98              		.loc 1 51 15 is_stmt 0
  99 002c 1C40     		lw	a5,0(s0)
  51:C:/Users/stapi/OneDrive/Desktop/GD32VW553/V1_MQTT_OK/GD32VW55X_Wifi_BLE_SDK/GD32VW55x_RELEASE_V1.0.2/MSDK/wpa_supplicant/src/eap_server\eap_server_methods.c **** 			return m->method;
 100              		.loc 1 51 12
 101 002e 9CC0     		sw	a5,0(s1)
  52:C:/Users/stapi/OneDrive/Desktop/GD32VW553/V1_MQTT_OK/GD32VW55X_Wifi_BLE_SDK/GD32VW55x_RELEASE_V1.0.2/MSDK/wpa_supplicant/src/eap_server\eap_server_methods.c **** 		}
 102              		.loc 1 52 4 is_stmt 1
  52:C:/Users/stapi/OneDrive/Desktop/GD32VW553/V1_MQTT_OK/GD32VW55X_Wifi_BLE_SDK/GD32VW55x_RELEASE_V1.0.2/MSDK/wpa_supplicant/src/eap_server\eap_server_methods.c **** 		}
 103              		.loc 1 52 12 is_stmt 0
 104 0030 4840     		lw	a0,4(s0)
 105              	.L6:
  57:C:/Users/stapi/OneDrive/Desktop/GD32VW553/V1_MQTT_OK/GD32VW55X_Wifi_BLE_SDK/GD32VW55x_RELEASE_V1.0.2/MSDK/wpa_supplicant/src/eap_server\eap_server_methods.c **** }
 106              		.loc 1 57 1
 107 0032 17030000 		tail	__riscv_restore_3
 107      67000300 
 108              		.cfi_remember_state
 109              		.cfi_restore 18
 110              		.cfi_restore 9
 111              		.cfi_restore 8
 112              		.cfi_restore 1
 113              		.cfi_def_cfa_offset 0
 114              	.L8:
 115              		.cfi_restore_state
  49:C:/Users/stapi/OneDrive/Desktop/GD32VW553/V1_MQTT_OK/GD32VW55X_Wifi_BLE_SDK/GD32VW55x_RELEASE_V1.0.2/MSDK/wpa_supplicant/src/eap_server\eap_server_methods.c **** 		if (os_strcmp(m->name, name) == 0) {
 116              		.loc 1 49 27 is_stmt 1 discriminator 2
  49:C:/Users/stapi/OneDrive/Desktop/GD32VW553/V1_MQTT_OK/GD32VW55X_Wifi_BLE_SDK/GD32VW55x_RELEASE_V1.0.2/MSDK/wpa_supplicant/src/eap_server\eap_server_methods.c **** 		if (os_strcmp(m->name, name) == 0) {
 117              		.loc 1 49 29 is_stmt 0 discriminator 2
 118 003a 405C     		lw	s0,60(s0)
 119              	.LVL7:
 120 003c E1BF     		j	.L7
 121              		.cfi_endproc
 122              	.LFE95:
 124              		.section	.text.eap_server_method_alloc,"ax",@progbits
 125              		.align	1
 126              		.globl	eap_server_method_alloc
 128              	eap_server_method_alloc:
 129              	.LFB96:
  58:C:/Users/stapi/OneDrive/Desktop/GD32VW553/V1_MQTT_OK/GD32VW55X_Wifi_BLE_SDK/GD32VW55x_RELEASE_V1.0.2/MSDK/wpa_supplicant/src/eap_server\eap_server_methods.c **** 
  59:C:/Users/stapi/OneDrive/Desktop/GD32VW553/V1_MQTT_OK/GD32VW55X_Wifi_BLE_SDK/GD32VW55x_RELEASE_V1.0.2/MSDK/wpa_supplicant/src/eap_server\eap_server_methods.c **** 
  60:C:/Users/stapi/OneDrive/Desktop/GD32VW553/V1_MQTT_OK/GD32VW55X_Wifi_BLE_SDK/GD32VW55x_RELEASE_V1.0.2/MSDK/wpa_supplicant/src/eap_server\eap_server_methods.c **** /**
  61:C:/Users/stapi/OneDrive/Desktop/GD32VW553/V1_MQTT_OK/GD32VW55X_Wifi_BLE_SDK/GD32VW55x_RELEASE_V1.0.2/MSDK/wpa_supplicant/src/eap_server\eap_server_methods.c ****  * eap_server_method_alloc - Allocate EAP server method structure
  62:C:/Users/stapi/OneDrive/Desktop/GD32VW553/V1_MQTT_OK/GD32VW55X_Wifi_BLE_SDK/GD32VW55x_RELEASE_V1.0.2/MSDK/wpa_supplicant/src/eap_server\eap_server_methods.c ****  * @version: Version of the EAP server method interface (set to
  63:C:/Users/stapi/OneDrive/Desktop/GD32VW553/V1_MQTT_OK/GD32VW55X_Wifi_BLE_SDK/GD32VW55x_RELEASE_V1.0.2/MSDK/wpa_supplicant/src/eap_server\eap_server_methods.c ****  * EAP_SERVER_METHOD_INTERFACE_VERSION)
  64:C:/Users/stapi/OneDrive/Desktop/GD32VW553/V1_MQTT_OK/GD32VW55X_Wifi_BLE_SDK/GD32VW55x_RELEASE_V1.0.2/MSDK/wpa_supplicant/src/eap_server\eap_server_methods.c ****  * @vendor: EAP Vendor-ID (EAP_VENDOR_*) (0 = IETF)
  65:C:/Users/stapi/OneDrive/Desktop/GD32VW553/V1_MQTT_OK/GD32VW55X_Wifi_BLE_SDK/GD32VW55x_RELEASE_V1.0.2/MSDK/wpa_supplicant/src/eap_server\eap_server_methods.c ****  * @method: EAP type number (EAP_TYPE_*)
  66:C:/Users/stapi/OneDrive/Desktop/GD32VW553/V1_MQTT_OK/GD32VW55X_Wifi_BLE_SDK/GD32VW55x_RELEASE_V1.0.2/MSDK/wpa_supplicant/src/eap_server\eap_server_methods.c ****  * @name: Name of the method (e.g., "TLS")
  67:C:/Users/stapi/OneDrive/Desktop/GD32VW553/V1_MQTT_OK/GD32VW55X_Wifi_BLE_SDK/GD32VW55x_RELEASE_V1.0.2/MSDK/wpa_supplicant/src/eap_server\eap_server_methods.c ****  * Returns: Allocated EAP method structure or %NULL on failure
  68:C:/Users/stapi/OneDrive/Desktop/GD32VW553/V1_MQTT_OK/GD32VW55X_Wifi_BLE_SDK/GD32VW55x_RELEASE_V1.0.2/MSDK/wpa_supplicant/src/eap_server\eap_server_methods.c ****  *
  69:C:/Users/stapi/OneDrive/Desktop/GD32VW553/V1_MQTT_OK/GD32VW55X_Wifi_BLE_SDK/GD32VW55x_RELEASE_V1.0.2/MSDK/wpa_supplicant/src/eap_server\eap_server_methods.c ****  * The returned structure should be freed with eap_server_method_free() when it
  70:C:/Users/stapi/OneDrive/Desktop/GD32VW553/V1_MQTT_OK/GD32VW55X_Wifi_BLE_SDK/GD32VW55x_RELEASE_V1.0.2/MSDK/wpa_supplicant/src/eap_server\eap_server_methods.c ****  * is not needed anymore.
  71:C:/Users/stapi/OneDrive/Desktop/GD32VW553/V1_MQTT_OK/GD32VW55X_Wifi_BLE_SDK/GD32VW55x_RELEASE_V1.0.2/MSDK/wpa_supplicant/src/eap_server\eap_server_methods.c ****  */
  72:C:/Users/stapi/OneDrive/Desktop/GD32VW553/V1_MQTT_OK/GD32VW55X_Wifi_BLE_SDK/GD32VW55x_RELEASE_V1.0.2/MSDK/wpa_supplicant/src/eap_server\eap_server_methods.c **** struct eap_method * eap_server_method_alloc(int version, int vendor,
  73:C:/Users/stapi/OneDrive/Desktop/GD32VW553/V1_MQTT_OK/GD32VW55X_Wifi_BLE_SDK/GD32VW55x_RELEASE_V1.0.2/MSDK/wpa_supplicant/src/eap_server\eap_server_methods.c **** 					    enum eap_type method,
  74:C:/Users/stapi/OneDrive/Desktop/GD32VW553/V1_MQTT_OK/GD32VW55X_Wifi_BLE_SDK/GD32VW55x_RELEASE_V1.0.2/MSDK/wpa_supplicant/src/eap_server\eap_server_methods.c **** 					    const char *name)
  75:C:/Users/stapi/OneDrive/Desktop/GD32VW553/V1_MQTT_OK/GD32VW55X_Wifi_BLE_SDK/GD32VW55x_RELEASE_V1.0.2/MSDK/wpa_supplicant/src/eap_server\eap_server_methods.c **** {
 130              		.loc 1 75 1 is_stmt 1
 131              		.cfi_startproc
 132              	.LVL8:
 133 0000 17030000 		call	t0,__riscv_save_4
 133      E7020300 
 134              		.cfi_offset 19, -20
 135              		.cfi_offset 18, -16
 136              		.cfi_offset 9, -12
 137              		.cfi_offset 8, -8
 138              		.cfi_offset 1, -4
 139              		.cfi_def_cfa_offset 32
  76:C:/Users/stapi/OneDrive/Desktop/GD32VW553/V1_MQTT_OK/GD32VW55X_Wifi_BLE_SDK/GD32VW55x_RELEASE_V1.0.2/MSDK/wpa_supplicant/src/eap_server\eap_server_methods.c **** 	struct eap_method *eap;
 140              		.loc 1 76 2
  77:C:/Users/stapi/OneDrive/Desktop/GD32VW553/V1_MQTT_OK/GD32VW55X_Wifi_BLE_SDK/GD32VW55x_RELEASE_V1.0.2/MSDK/wpa_supplicant/src/eap_server\eap_server_methods.c **** 	eap = os_zalloc(sizeof(*eap));
 141              		.loc 1 77 2
  75:C:/Users/stapi/OneDrive/Desktop/GD32VW553/V1_MQTT_OK/GD32VW55X_Wifi_BLE_SDK/GD32VW55x_RELEASE_V1.0.2/MSDK/wpa_supplicant/src/eap_server\eap_server_methods.c **** 	struct eap_method *eap;
 142              		.loc 1 75 1 is_stmt 0
 143 0008 AA89     		mv	s3,a0
 144              		.loc 1 77 8
 145 000a 13058004 		li	a0,72
 146              	.LVL9:
  75:C:/Users/stapi/OneDrive/Desktop/GD32VW553/V1_MQTT_OK/GD32VW55X_Wifi_BLE_SDK/GD32VW55x_RELEASE_V1.0.2/MSDK/wpa_supplicant/src/eap_server\eap_server_methods.c **** 	struct eap_method *eap;
 147              		.loc 1 75 1
 148 000e 2E89     		mv	s2,a1
 149 0010 B284     		mv	s1,a2
 150 0012 3684     		mv	s0,a3
 151              		.loc 1 77 8
 152 0014 97000000 		call	os_zalloc
 152      E7800000 
 153              	.LVL10:
  78:C:/Users/stapi/OneDrive/Desktop/GD32VW553/V1_MQTT_OK/GD32VW55X_Wifi_BLE_SDK/GD32VW55x_RELEASE_V1.0.2/MSDK/wpa_supplicant/src/eap_server\eap_server_methods.c **** 	if (eap == NULL)
 154              		.loc 1 78 2 is_stmt 1
 155              		.loc 1 78 5 is_stmt 0
 156 001c 19C5     		beq	a0,zero,.L12
  79:C:/Users/stapi/OneDrive/Desktop/GD32VW553/V1_MQTT_OK/GD32VW55X_Wifi_BLE_SDK/GD32VW55x_RELEASE_V1.0.2/MSDK/wpa_supplicant/src/eap_server\eap_server_methods.c **** 		return NULL;
  80:C:/Users/stapi/OneDrive/Desktop/GD32VW553/V1_MQTT_OK/GD32VW55X_Wifi_BLE_SDK/GD32VW55x_RELEASE_V1.0.2/MSDK/wpa_supplicant/src/eap_server\eap_server_methods.c **** 	eap->version = version;
 157              		.loc 1 80 2 is_stmt 1
 158              		.loc 1 80 15 is_stmt 0
 159 001e 232C3503 		sw	s3,56(a0)
  81:C:/Users/stapi/OneDrive/Desktop/GD32VW553/V1_MQTT_OK/GD32VW55X_Wifi_BLE_SDK/GD32VW55x_RELEASE_V1.0.2/MSDK/wpa_supplicant/src/eap_server\eap_server_methods.c **** 	eap->vendor = vendor;
 160              		.loc 1 81 2 is_stmt 1
 161              		.loc 1 81 14 is_stmt 0
 162 0022 23202501 		sw	s2,0(a0)
  82:C:/Users/stapi/OneDrive/Desktop/GD32VW553/V1_MQTT_OK/GD32VW55X_Wifi_BLE_SDK/GD32VW55x_RELEASE_V1.0.2/MSDK/wpa_supplicant/src/eap_server\eap_server_methods.c **** 	eap->method = method;
 163              		.loc 1 82 2 is_stmt 1
 164              		.loc 1 82 14 is_stmt 0
 165 0026 44C1     		sw	s1,4(a0)
  83:C:/Users/stapi/OneDrive/Desktop/GD32VW553/V1_MQTT_OK/GD32VW55X_Wifi_BLE_SDK/GD32VW55x_RELEASE_V1.0.2/MSDK/wpa_supplicant/src/eap_server\eap_server_methods.c **** 	eap->name = name;
 166              		.loc 1 83 2 is_stmt 1
 167              		.loc 1 83 12 is_stmt 0
 168 0028 00C5     		sw	s0,8(a0)
  84:C:/Users/stapi/OneDrive/Desktop/GD32VW553/V1_MQTT_OK/GD32VW55X_Wifi_BLE_SDK/GD32VW55x_RELEASE_V1.0.2/MSDK/wpa_supplicant/src/eap_server\eap_server_methods.c **** 	return eap;
 169              		.loc 1 84 2 is_stmt 1
 170              	.L12:
  85:C:/Users/stapi/OneDrive/Desktop/GD32VW553/V1_MQTT_OK/GD32VW55X_Wifi_BLE_SDK/GD32VW55x_RELEASE_V1.0.2/MSDK/wpa_supplicant/src/eap_server\eap_server_methods.c **** }
 171              		.loc 1 85 1 is_stmt 0
 172 002a 17030000 		tail	__riscv_restore_4
 172      67000300 
 173              		.cfi_restore 19
 174              		.cfi_restore 18
 175              		.cfi_restore 9
 176              		.cfi_restore 8
 177              		.cfi_restore 1
 178              		.cfi_def_cfa_offset 0
 179              		.cfi_endproc
 180              	.LFE96:
 182              		.section	.text.eap_server_method_register,"ax",@progbits
 183              		.align	1
 184              		.globl	eap_server_method_register
 186              	eap_server_method_register:
 187              	.LFB98:
  86:C:/Users/stapi/OneDrive/Desktop/GD32VW553/V1_MQTT_OK/GD32VW55X_Wifi_BLE_SDK/GD32VW55x_RELEASE_V1.0.2/MSDK/wpa_supplicant/src/eap_server\eap_server_methods.c **** 
  87:C:/Users/stapi/OneDrive/Desktop/GD32VW553/V1_MQTT_OK/GD32VW55X_Wifi_BLE_SDK/GD32VW55x_RELEASE_V1.0.2/MSDK/wpa_supplicant/src/eap_server\eap_server_methods.c **** 
  88:C:/Users/stapi/OneDrive/Desktop/GD32VW553/V1_MQTT_OK/GD32VW55X_Wifi_BLE_SDK/GD32VW55x_RELEASE_V1.0.2/MSDK/wpa_supplicant/src/eap_server\eap_server_methods.c **** /**
  89:C:/Users/stapi/OneDrive/Desktop/GD32VW553/V1_MQTT_OK/GD32VW55X_Wifi_BLE_SDK/GD32VW55x_RELEASE_V1.0.2/MSDK/wpa_supplicant/src/eap_server\eap_server_methods.c ****  * eap_server_method_free - Free EAP server method structure
  90:C:/Users/stapi/OneDrive/Desktop/GD32VW553/V1_MQTT_OK/GD32VW55X_Wifi_BLE_SDK/GD32VW55x_RELEASE_V1.0.2/MSDK/wpa_supplicant/src/eap_server\eap_server_methods.c ****  * @method: Method structure allocated with eap_server_method_alloc()
  91:C:/Users/stapi/OneDrive/Desktop/GD32VW553/V1_MQTT_OK/GD32VW55X_Wifi_BLE_SDK/GD32VW55x_RELEASE_V1.0.2/MSDK/wpa_supplicant/src/eap_server\eap_server_methods.c ****  */
  92:C:/Users/stapi/OneDrive/Desktop/GD32VW553/V1_MQTT_OK/GD32VW55X_Wifi_BLE_SDK/GD32VW55x_RELEASE_V1.0.2/MSDK/wpa_supplicant/src/eap_server\eap_server_methods.c **** static void eap_server_method_free(struct eap_method *method)
  93:C:/Users/stapi/OneDrive/Desktop/GD32VW553/V1_MQTT_OK/GD32VW55X_Wifi_BLE_SDK/GD32VW55x_RELEASE_V1.0.2/MSDK/wpa_supplicant/src/eap_server\eap_server_methods.c **** {
  94:C:/Users/stapi/OneDrive/Desktop/GD32VW553/V1_MQTT_OK/GD32VW55X_Wifi_BLE_SDK/GD32VW55x_RELEASE_V1.0.2/MSDK/wpa_supplicant/src/eap_server\eap_server_methods.c **** 	os_free(method);
  95:C:/Users/stapi/OneDrive/Desktop/GD32VW553/V1_MQTT_OK/GD32VW55X_Wifi_BLE_SDK/GD32VW55x_RELEASE_V1.0.2/MSDK/wpa_supplicant/src/eap_server\eap_server_methods.c **** }
  96:C:/Users/stapi/OneDrive/Desktop/GD32VW553/V1_MQTT_OK/GD32VW55X_Wifi_BLE_SDK/GD32VW55x_RELEASE_V1.0.2/MSDK/wpa_supplicant/src/eap_server\eap_server_methods.c **** 
  97:C:/Users/stapi/OneDrive/Desktop/GD32VW553/V1_MQTT_OK/GD32VW55X_Wifi_BLE_SDK/GD32VW55x_RELEASE_V1.0.2/MSDK/wpa_supplicant/src/eap_server\eap_server_methods.c **** 
  98:C:/Users/stapi/OneDrive/Desktop/GD32VW553/V1_MQTT_OK/GD32VW55X_Wifi_BLE_SDK/GD32VW55x_RELEASE_V1.0.2/MSDK/wpa_supplicant/src/eap_server\eap_server_methods.c **** /**
  99:C:/Users/stapi/OneDrive/Desktop/GD32VW553/V1_MQTT_OK/GD32VW55X_Wifi_BLE_SDK/GD32VW55x_RELEASE_V1.0.2/MSDK/wpa_supplicant/src/eap_server\eap_server_methods.c ****  * eap_server_method_register - Register an EAP server method
 100:C:/Users/stapi/OneDrive/Desktop/GD32VW553/V1_MQTT_OK/GD32VW55X_Wifi_BLE_SDK/GD32VW55x_RELEASE_V1.0.2/MSDK/wpa_supplicant/src/eap_server\eap_server_methods.c ****  * @method: EAP method to register from eap_server_method_alloc()
 101:C:/Users/stapi/OneDrive/Desktop/GD32VW553/V1_MQTT_OK/GD32VW55X_Wifi_BLE_SDK/GD32VW55x_RELEASE_V1.0.2/MSDK/wpa_supplicant/src/eap_server\eap_server_methods.c ****  * Returns: 0 on success, -1 on invalid method, or -2 if a matching EAP method
 102:C:/Users/stapi/OneDrive/Desktop/GD32VW553/V1_MQTT_OK/GD32VW55X_Wifi_BLE_SDK/GD32VW55x_RELEASE_V1.0.2/MSDK/wpa_supplicant/src/eap_server\eap_server_methods.c ****  * has already been registered
 103:C:/Users/stapi/OneDrive/Desktop/GD32VW553/V1_MQTT_OK/GD32VW55X_Wifi_BLE_SDK/GD32VW55x_RELEASE_V1.0.2/MSDK/wpa_supplicant/src/eap_server\eap_server_methods.c ****  *
 104:C:/Users/stapi/OneDrive/Desktop/GD32VW553/V1_MQTT_OK/GD32VW55X_Wifi_BLE_SDK/GD32VW55x_RELEASE_V1.0.2/MSDK/wpa_supplicant/src/eap_server\eap_server_methods.c ****  * Each EAP server method needs to call this function to register itself as a
 105:C:/Users/stapi/OneDrive/Desktop/GD32VW553/V1_MQTT_OK/GD32VW55X_Wifi_BLE_SDK/GD32VW55x_RELEASE_V1.0.2/MSDK/wpa_supplicant/src/eap_server\eap_server_methods.c ****  * supported EAP method. The caller must not free the allocated method data
 106:C:/Users/stapi/OneDrive/Desktop/GD32VW553/V1_MQTT_OK/GD32VW55X_Wifi_BLE_SDK/GD32VW55x_RELEASE_V1.0.2/MSDK/wpa_supplicant/src/eap_server\eap_server_methods.c ****  * regardless of the return value.
 107:C:/Users/stapi/OneDrive/Desktop/GD32VW553/V1_MQTT_OK/GD32VW55X_Wifi_BLE_SDK/GD32VW55x_RELEASE_V1.0.2/MSDK/wpa_supplicant/src/eap_server\eap_server_methods.c ****  */
 108:C:/Users/stapi/OneDrive/Desktop/GD32VW553/V1_MQTT_OK/GD32VW55X_Wifi_BLE_SDK/GD32VW55x_RELEASE_V1.0.2/MSDK/wpa_supplicant/src/eap_server\eap_server_methods.c **** int eap_server_method_register(struct eap_method *method)
 109:C:/Users/stapi/OneDrive/Desktop/GD32VW553/V1_MQTT_OK/GD32VW55X_Wifi_BLE_SDK/GD32VW55x_RELEASE_V1.0.2/MSDK/wpa_supplicant/src/eap_server\eap_server_methods.c **** {
 188              		.loc 1 109 1 is_stmt 1
 189              		.cfi_startproc
 190              	.LVL11:
 191 0000 17030000 		call	t0,__riscv_save_3
 191      E7020300 
 192              		.cfi_offset 18, -16
 193              		.cfi_offset 9, -12
 194              		.cfi_offset 8, -8
 195              		.cfi_offset 1, -4
 196              		.cfi_def_cfa_offset 16
 110:C:/Users/stapi/OneDrive/Desktop/GD32VW553/V1_MQTT_OK/GD32VW55X_Wifi_BLE_SDK/GD32VW55x_RELEASE_V1.0.2/MSDK/wpa_supplicant/src/eap_server\eap_server_methods.c **** 	struct eap_method *m, *last = NULL;
 197              		.loc 1 110 2
 198              	.LVL12:
 111:C:/Users/stapi/OneDrive/Desktop/GD32VW553/V1_MQTT_OK/GD32VW55X_Wifi_BLE_SDK/GD32VW55x_RELEASE_V1.0.2/MSDK/wpa_supplicant/src/eap_server\eap_server_methods.c **** 
 112:C:/Users/stapi/OneDrive/Desktop/GD32VW553/V1_MQTT_OK/GD32VW55X_Wifi_BLE_SDK/GD32VW55x_RELEASE_V1.0.2/MSDK/wpa_supplicant/src/eap_server\eap_server_methods.c **** 	if (method == NULL || method->name == NULL ||
 199              		.loc 1 112 2
 109:C:/Users/stapi/OneDrive/Desktop/GD32VW553/V1_MQTT_OK/GD32VW55X_Wifi_BLE_SDK/GD32VW55x_RELEASE_V1.0.2/MSDK/wpa_supplicant/src/eap_server\eap_server_methods.c **** 	struct eap_method *m, *last = NULL;
 200              		.loc 1 109 1 is_stmt 0
 201 0008 2A84     		mv	s0,a0
 202              		.loc 1 112 5
 203 000a 19C5     		beq	a0,zero,.L19
 204              		.loc 1 112 21 discriminator 1
 205 000c 1C45     		lw	a5,8(a0)
 206 000e 89C7     		beq	a5,zero,.L19
 207              		.loc 1 112 45 discriminator 2
 208 0010 185D     		lw	a4,56(a0)
 209 0012 8547     		li	a5,1
 210 0014 630CF700 		beq	a4,a5,.L20
 211              	.L19:
 113:C:/Users/stapi/OneDrive/Desktop/GD32VW553/V1_MQTT_OK/GD32VW55X_Wifi_BLE_SDK/GD32VW55x_RELEASE_V1.0.2/MSDK/wpa_supplicant/src/eap_server\eap_server_methods.c **** 	    method->version != EAP_SERVER_METHOD_INTERFACE_VERSION) {
 114:C:/Users/stapi/OneDrive/Desktop/GD32VW553/V1_MQTT_OK/GD32VW55X_Wifi_BLE_SDK/GD32VW55x_RELEASE_V1.0.2/MSDK/wpa_supplicant/src/eap_server\eap_server_methods.c **** 		eap_server_method_free(method);
 212              		.loc 1 114 3 is_stmt 1
 213              	.LVL13:
 214              	.LBB8:
 215              	.LBB9:
  94:C:/Users/stapi/OneDrive/Desktop/GD32VW553/V1_MQTT_OK/GD32VW55X_Wifi_BLE_SDK/GD32VW55x_RELEASE_V1.0.2/MSDK/wpa_supplicant/src/eap_server\eap_server_methods.c **** }
 216              		.loc 1 94 2
 217 0018 2285     		mv	a0,s0
 218              	.LVL14:
 219 001a 97000000 		call	os_free
 219      E7800000 
 220              	.LVL15:
 221              	.LBE9:
 222              	.LBE8:
 115:C:/Users/stapi/OneDrive/Desktop/GD32VW553/V1_MQTT_OK/GD32VW55X_Wifi_BLE_SDK/GD32VW55x_RELEASE_V1.0.2/MSDK/wpa_supplicant/src/eap_server\eap_server_methods.c **** 		return -1;
 223              		.loc 1 115 3
 224              		.loc 1 115 10 is_stmt 0
 225 0022 7D55     		li	a0,-1
 226              	.LVL16:
 227              	.L18:
 116:C:/Users/stapi/OneDrive/Desktop/GD32VW553/V1_MQTT_OK/GD32VW55X_Wifi_BLE_SDK/GD32VW55x_RELEASE_V1.0.2/MSDK/wpa_supplicant/src/eap_server\eap_server_methods.c **** 	}
 117:C:/Users/stapi/OneDrive/Desktop/GD32VW553/V1_MQTT_OK/GD32VW55X_Wifi_BLE_SDK/GD32VW55x_RELEASE_V1.0.2/MSDK/wpa_supplicant/src/eap_server\eap_server_methods.c **** 
 118:C:/Users/stapi/OneDrive/Desktop/GD32VW553/V1_MQTT_OK/GD32VW55X_Wifi_BLE_SDK/GD32VW55x_RELEASE_V1.0.2/MSDK/wpa_supplicant/src/eap_server\eap_server_methods.c **** 	for (m = eap_methods; m; m = m->next) {
 119:C:/Users/stapi/OneDrive/Desktop/GD32VW553/V1_MQTT_OK/GD32VW55X_Wifi_BLE_SDK/GD32VW55x_RELEASE_V1.0.2/MSDK/wpa_supplicant/src/eap_server\eap_server_methods.c **** 		if ((m->vendor == method->vendor &&
 120:C:/Users/stapi/OneDrive/Desktop/GD32VW553/V1_MQTT_OK/GD32VW55X_Wifi_BLE_SDK/GD32VW55x_RELEASE_V1.0.2/MSDK/wpa_supplicant/src/eap_server\eap_server_methods.c **** 		     m->method == method->method) ||
 121:C:/Users/stapi/OneDrive/Desktop/GD32VW553/V1_MQTT_OK/GD32VW55X_Wifi_BLE_SDK/GD32VW55x_RELEASE_V1.0.2/MSDK/wpa_supplicant/src/eap_server\eap_server_methods.c **** 		    os_strcmp(m->name, method->name) == 0) {
 122:C:/Users/stapi/OneDrive/Desktop/GD32VW553/V1_MQTT_OK/GD32VW55X_Wifi_BLE_SDK/GD32VW55x_RELEASE_V1.0.2/MSDK/wpa_supplicant/src/eap_server\eap_server_methods.c **** 			eap_server_method_free(method);
 123:C:/Users/stapi/OneDrive/Desktop/GD32VW553/V1_MQTT_OK/GD32VW55X_Wifi_BLE_SDK/GD32VW55x_RELEASE_V1.0.2/MSDK/wpa_supplicant/src/eap_server\eap_server_methods.c **** 			return -2;
 124:C:/Users/stapi/OneDrive/Desktop/GD32VW553/V1_MQTT_OK/GD32VW55X_Wifi_BLE_SDK/GD32VW55x_RELEASE_V1.0.2/MSDK/wpa_supplicant/src/eap_server\eap_server_methods.c **** 		}
 125:C:/Users/stapi/OneDrive/Desktop/GD32VW553/V1_MQTT_OK/GD32VW55X_Wifi_BLE_SDK/GD32VW55x_RELEASE_V1.0.2/MSDK/wpa_supplicant/src/eap_server\eap_server_methods.c **** 		last = m;
 126:C:/Users/stapi/OneDrive/Desktop/GD32VW553/V1_MQTT_OK/GD32VW55X_Wifi_BLE_SDK/GD32VW55x_RELEASE_V1.0.2/MSDK/wpa_supplicant/src/eap_server\eap_server_methods.c **** 	}
 127:C:/Users/stapi/OneDrive/Desktop/GD32VW553/V1_MQTT_OK/GD32VW55X_Wifi_BLE_SDK/GD32VW55x_RELEASE_V1.0.2/MSDK/wpa_supplicant/src/eap_server\eap_server_methods.c **** 
 128:C:/Users/stapi/OneDrive/Desktop/GD32VW553/V1_MQTT_OK/GD32VW55X_Wifi_BLE_SDK/GD32VW55x_RELEASE_V1.0.2/MSDK/wpa_supplicant/src/eap_server\eap_server_methods.c **** 	if (last)
 129:C:/Users/stapi/OneDrive/Desktop/GD32VW553/V1_MQTT_OK/GD32VW55X_Wifi_BLE_SDK/GD32VW55x_RELEASE_V1.0.2/MSDK/wpa_supplicant/src/eap_server\eap_server_methods.c **** 		last->next = method;
 130:C:/Users/stapi/OneDrive/Desktop/GD32VW553/V1_MQTT_OK/GD32VW55X_Wifi_BLE_SDK/GD32VW55x_RELEASE_V1.0.2/MSDK/wpa_supplicant/src/eap_server\eap_server_methods.c **** 	else
 131:C:/Users/stapi/OneDrive/Desktop/GD32VW553/V1_MQTT_OK/GD32VW55X_Wifi_BLE_SDK/GD32VW55x_RELEASE_V1.0.2/MSDK/wpa_supplicant/src/eap_server\eap_server_methods.c **** 		eap_methods = method;
 132:C:/Users/stapi/OneDrive/Desktop/GD32VW553/V1_MQTT_OK/GD32VW55X_Wifi_BLE_SDK/GD32VW55x_RELEASE_V1.0.2/MSDK/wpa_supplicant/src/eap_server\eap_server_methods.c **** 
 133:C:/Users/stapi/OneDrive/Desktop/GD32VW553/V1_MQTT_OK/GD32VW55X_Wifi_BLE_SDK/GD32VW55x_RELEASE_V1.0.2/MSDK/wpa_supplicant/src/eap_server\eap_server_methods.c **** 	return 0;
 134:C:/Users/stapi/OneDrive/Desktop/GD32VW553/V1_MQTT_OK/GD32VW55X_Wifi_BLE_SDK/GD32VW55x_RELEASE_V1.0.2/MSDK/wpa_supplicant/src/eap_server\eap_server_methods.c **** }
 228              		.loc 1 134 1
 229 0024 17030000 		tail	__riscv_restore_3
 229      67000300 
 230              		.cfi_remember_state
 231              		.cfi_restore 18
 232              		.cfi_restore 9
 233              		.cfi_restore 8
 234              		.cfi_restore 1
 235              		.cfi_def_cfa_offset 0
 236              	.LVL17:
 237              	.L20:
 238              		.cfi_restore_state
 118:C:/Users/stapi/OneDrive/Desktop/GD32VW553/V1_MQTT_OK/GD32VW55X_Wifi_BLE_SDK/GD32VW55x_RELEASE_V1.0.2/MSDK/wpa_supplicant/src/eap_server\eap_server_methods.c **** 		if ((m->vendor == method->vendor &&
 239              		.loc 1 118 2 is_stmt 1
 118:C:/Users/stapi/OneDrive/Desktop/GD32VW553/V1_MQTT_OK/GD32VW55X_Wifi_BLE_SDK/GD32VW55x_RELEASE_V1.0.2/MSDK/wpa_supplicant/src/eap_server\eap_server_methods.c **** 		if ((m->vendor == method->vendor &&
 240              		.loc 1 118 9 is_stmt 0
 241 002c B7070000 		lui	a5,%hi(.LANCHOR0)
 242 0030 83A40700 		lw	s1,%lo(.LANCHOR0)(a5)
 243              	.LVL18:
 110:C:/Users/stapi/OneDrive/Desktop/GD32VW553/V1_MQTT_OK/GD32VW55X_Wifi_BLE_SDK/GD32VW55x_RELEASE_V1.0.2/MSDK/wpa_supplicant/src/eap_server\eap_server_methods.c **** 
 244              		.loc 1 110 25
 245 0034 0147     		li	a4,0
 246 0036 13890700 		addi	s2,a5,%lo(.LANCHOR0)
 247              	.LVL19:
 248              	.L22:
 118:C:/Users/stapi/OneDrive/Desktop/GD32VW553/V1_MQTT_OK/GD32VW55X_Wifi_BLE_SDK/GD32VW55x_RELEASE_V1.0.2/MSDK/wpa_supplicant/src/eap_server\eap_server_methods.c **** 		if ((m->vendor == method->vendor &&
 249              		.loc 1 118 24 is_stmt 1 discriminator 1
 118:C:/Users/stapi/OneDrive/Desktop/GD32VW553/V1_MQTT_OK/GD32VW55X_Wifi_BLE_SDK/GD32VW55x_RELEASE_V1.0.2/MSDK/wpa_supplicant/src/eap_server\eap_server_methods.c **** 		if ((m->vendor == method->vendor &&
 250              		.loc 1 118 2 is_stmt 0 discriminator 1
 251 003a 89E4     		bne	s1,zero,.L25
 128:C:/Users/stapi/OneDrive/Desktop/GD32VW553/V1_MQTT_OK/GD32VW55X_Wifi_BLE_SDK/GD32VW55x_RELEASE_V1.0.2/MSDK/wpa_supplicant/src/eap_server\eap_server_methods.c **** 		last->next = method;
 252              		.loc 1 128 2 is_stmt 1
 128:C:/Users/stapi/OneDrive/Desktop/GD32VW553/V1_MQTT_OK/GD32VW55X_Wifi_BLE_SDK/GD32VW55x_RELEASE_V1.0.2/MSDK/wpa_supplicant/src/eap_server\eap_server_methods.c **** 		last->next = method;
 253              		.loc 1 128 5 is_stmt 0
 254 003c 0DCF     		beq	a4,zero,.L26
 129:C:/Users/stapi/OneDrive/Desktop/GD32VW553/V1_MQTT_OK/GD32VW55X_Wifi_BLE_SDK/GD32VW55x_RELEASE_V1.0.2/MSDK/wpa_supplicant/src/eap_server\eap_server_methods.c **** 	else
 255              		.loc 1 129 3 is_stmt 1
 129:C:/Users/stapi/OneDrive/Desktop/GD32VW553/V1_MQTT_OK/GD32VW55X_Wifi_BLE_SDK/GD32VW55x_RELEASE_V1.0.2/MSDK/wpa_supplicant/src/eap_server\eap_server_methods.c **** 	else
 256              		.loc 1 129 14 is_stmt 0
 257 003e 40DF     		sw	s0,60(a4)
 258              	.L37:
 133:C:/Users/stapi/OneDrive/Desktop/GD32VW553/V1_MQTT_OK/GD32VW55X_Wifi_BLE_SDK/GD32VW55x_RELEASE_V1.0.2/MSDK/wpa_supplicant/src/eap_server\eap_server_methods.c **** }
 259              		.loc 1 133 9
 260 0040 0145     		li	a0,0
 261 0042 CDB7     		j	.L18
 262              	.L25:
 119:C:/Users/stapi/OneDrive/Desktop/GD32VW553/V1_MQTT_OK/GD32VW55X_Wifi_BLE_SDK/GD32VW55x_RELEASE_V1.0.2/MSDK/wpa_supplicant/src/eap_server\eap_server_methods.c **** 		     m->method == method->method) ||
 263              		.loc 1 119 3 is_stmt 1
 119:C:/Users/stapi/OneDrive/Desktop/GD32VW553/V1_MQTT_OK/GD32VW55X_Wifi_BLE_SDK/GD32VW55x_RELEASE_V1.0.2/MSDK/wpa_supplicant/src/eap_server\eap_server_methods.c **** 		     m->method == method->method) ||
 264              		.loc 1 119 6 is_stmt 0
 265 0044 9840     		lw	a4,0(s1)
 266              	.LVL20:
 267 0046 1C40     		lw	a5,0(s0)
 268 0048 631DF700 		bne	a4,a5,.L23
 119:C:/Users/stapi/OneDrive/Desktop/GD32VW553/V1_MQTT_OK/GD32VW55X_Wifi_BLE_SDK/GD32VW55x_RELEASE_V1.0.2/MSDK/wpa_supplicant/src/eap_server\eap_server_methods.c **** 		     m->method == method->method) ||
 269              		.loc 1 119 36 discriminator 1
 270 004c D840     		lw	a4,4(s1)
 271 004e 5C40     		lw	a5,4(s0)
 272 0050 6319F700 		bne	a4,a5,.L23
 273              	.L24:
 122:C:/Users/stapi/OneDrive/Desktop/GD32VW553/V1_MQTT_OK/GD32VW55X_Wifi_BLE_SDK/GD32VW55x_RELEASE_V1.0.2/MSDK/wpa_supplicant/src/eap_server\eap_server_methods.c **** 			return -2;
 274              		.loc 1 122 4 is_stmt 1
 275              	.LVL21:
 276              	.LBB10:
 277              	.LBB11:
  94:C:/Users/stapi/OneDrive/Desktop/GD32VW553/V1_MQTT_OK/GD32VW55X_Wifi_BLE_SDK/GD32VW55x_RELEASE_V1.0.2/MSDK/wpa_supplicant/src/eap_server\eap_server_methods.c **** }
 278              		.loc 1 94 2
 279 0054 2285     		mv	a0,s0
 280 0056 97000000 		call	os_free
 280      E7800000 
 281              	.LVL22:
 282              	.LBE11:
 283              	.LBE10:
 123:C:/Users/stapi/OneDrive/Desktop/GD32VW553/V1_MQTT_OK/GD32VW55X_Wifi_BLE_SDK/GD32VW55x_RELEASE_V1.0.2/MSDK/wpa_supplicant/src/eap_server\eap_server_methods.c **** 		}
 284              		.loc 1 123 4
 123:C:/Users/stapi/OneDrive/Desktop/GD32VW553/V1_MQTT_OK/GD32VW55X_Wifi_BLE_SDK/GD32VW55x_RELEASE_V1.0.2/MSDK/wpa_supplicant/src/eap_server\eap_server_methods.c **** 		}
 285              		.loc 1 123 11 is_stmt 0
 286 005e 7955     		li	a0,-2
 287 0060 D1B7     		j	.L18
 288              	.L23:
 121:C:/Users/stapi/OneDrive/Desktop/GD32VW553/V1_MQTT_OK/GD32VW55X_Wifi_BLE_SDK/GD32VW55x_RELEASE_V1.0.2/MSDK/wpa_supplicant/src/eap_server\eap_server_methods.c **** 			eap_server_method_free(method);
 289              		.loc 1 121 7
 290 0062 0C44     		lw	a1,8(s0)
 291 0064 8844     		lw	a0,8(s1)
 292 0066 97000000 		call	os_strcmp
 292      E7800000 
 293              	.LVL23:
 120:C:/Users/stapi/OneDrive/Desktop/GD32VW553/V1_MQTT_OK/GD32VW55X_Wifi_BLE_SDK/GD32VW55x_RELEASE_V1.0.2/MSDK/wpa_supplicant/src/eap_server\eap_server_methods.c **** 		    os_strcmp(m->name, method->name) == 0) {
 294              		.loc 1 120 37
 295 006e 7DD1     		beq	a0,zero,.L24
 125:C:/Users/stapi/OneDrive/Desktop/GD32VW553/V1_MQTT_OK/GD32VW55X_Wifi_BLE_SDK/GD32VW55x_RELEASE_V1.0.2/MSDK/wpa_supplicant/src/eap_server\eap_server_methods.c **** 	}
 296              		.loc 1 125 3 is_stmt 1 discriminator 2
 297              	.LVL24:
 118:C:/Users/stapi/OneDrive/Desktop/GD32VW553/V1_MQTT_OK/GD32VW55X_Wifi_BLE_SDK/GD32VW55x_RELEASE_V1.0.2/MSDK/wpa_supplicant/src/eap_server\eap_server_methods.c **** 		if ((m->vendor == method->vendor &&
 298              		.loc 1 118 27 discriminator 2
 118:C:/Users/stapi/OneDrive/Desktop/GD32VW553/V1_MQTT_OK/GD32VW55X_Wifi_BLE_SDK/GD32VW55x_RELEASE_V1.0.2/MSDK/wpa_supplicant/src/eap_server\eap_server_methods.c **** 		if ((m->vendor == method->vendor &&
 299              		.loc 1 118 29 is_stmt 0 discriminator 2
 300 0070 2687     		mv	a4,s1
 301 0072 C45C     		lw	s1,60(s1)
 302              	.LVL25:
 303 0074 D9B7     		j	.L22
 304              	.L26:
 131:C:/Users/stapi/OneDrive/Desktop/GD32VW553/V1_MQTT_OK/GD32VW55X_Wifi_BLE_SDK/GD32VW55x_RELEASE_V1.0.2/MSDK/wpa_supplicant/src/eap_server\eap_server_methods.c **** 
 305              		.loc 1 131 3 is_stmt 1
 131:C:/Users/stapi/OneDrive/Desktop/GD32VW553/V1_MQTT_OK/GD32VW55X_Wifi_BLE_SDK/GD32VW55x_RELEASE_V1.0.2/MSDK/wpa_supplicant/src/eap_server\eap_server_methods.c **** 
 306              		.loc 1 131 15 is_stmt 0
 307 0076 23208900 		sw	s0,0(s2)
 308 007a D9B7     		j	.L37
 309              		.cfi_endproc
 310              	.LFE98:
 312              		.section	.text.eap_server_unregister_methods,"ax",@progbits
 313              		.align	1
 314              		.globl	eap_server_unregister_methods
 316              	eap_server_unregister_methods:
 317              	.LFB99:
 135:C:/Users/stapi/OneDrive/Desktop/GD32VW553/V1_MQTT_OK/GD32VW55X_Wifi_BLE_SDK/GD32VW55x_RELEASE_V1.0.2/MSDK/wpa_supplicant/src/eap_server\eap_server_methods.c **** 
 136:C:/Users/stapi/OneDrive/Desktop/GD32VW553/V1_MQTT_OK/GD32VW55X_Wifi_BLE_SDK/GD32VW55x_RELEASE_V1.0.2/MSDK/wpa_supplicant/src/eap_server\eap_server_methods.c **** 
 137:C:/Users/stapi/OneDrive/Desktop/GD32VW553/V1_MQTT_OK/GD32VW55X_Wifi_BLE_SDK/GD32VW55x_RELEASE_V1.0.2/MSDK/wpa_supplicant/src/eap_server\eap_server_methods.c **** /**
 138:C:/Users/stapi/OneDrive/Desktop/GD32VW553/V1_MQTT_OK/GD32VW55X_Wifi_BLE_SDK/GD32VW55x_RELEASE_V1.0.2/MSDK/wpa_supplicant/src/eap_server\eap_server_methods.c ****  * eap_server_unregister_methods - Unregister EAP server methods
 139:C:/Users/stapi/OneDrive/Desktop/GD32VW553/V1_MQTT_OK/GD32VW55X_Wifi_BLE_SDK/GD32VW55x_RELEASE_V1.0.2/MSDK/wpa_supplicant/src/eap_server\eap_server_methods.c ****  *
 140:C:/Users/stapi/OneDrive/Desktop/GD32VW553/V1_MQTT_OK/GD32VW55X_Wifi_BLE_SDK/GD32VW55x_RELEASE_V1.0.2/MSDK/wpa_supplicant/src/eap_server\eap_server_methods.c ****  * This function is called at program termination to unregister all EAP server
 141:C:/Users/stapi/OneDrive/Desktop/GD32VW553/V1_MQTT_OK/GD32VW55X_Wifi_BLE_SDK/GD32VW55x_RELEASE_V1.0.2/MSDK/wpa_supplicant/src/eap_server\eap_server_methods.c ****  * methods.
 142:C:/Users/stapi/OneDrive/Desktop/GD32VW553/V1_MQTT_OK/GD32VW55X_Wifi_BLE_SDK/GD32VW55x_RELEASE_V1.0.2/MSDK/wpa_supplicant/src/eap_server\eap_server_methods.c ****  */
 143:C:/Users/stapi/OneDrive/Desktop/GD32VW553/V1_MQTT_OK/GD32VW55X_Wifi_BLE_SDK/GD32VW55x_RELEASE_V1.0.2/MSDK/wpa_supplicant/src/eap_server\eap_server_methods.c **** void eap_server_unregister_methods(void)
 144:C:/Users/stapi/OneDrive/Desktop/GD32VW553/V1_MQTT_OK/GD32VW55X_Wifi_BLE_SDK/GD32VW55x_RELEASE_V1.0.2/MSDK/wpa_supplicant/src/eap_server\eap_server_methods.c **** {
 318              		.loc 1 144 1 is_stmt 1
 319              		.cfi_startproc
 320 0000 17030000 		call	t0,__riscv_save_1
 320      E7020300 
 321              		.cfi_offset 8, -8
 322              		.cfi_offset 1, -4
 323              		.cfi_def_cfa_offset 16
 145:C:/Users/stapi/OneDrive/Desktop/GD32VW553/V1_MQTT_OK/GD32VW55X_Wifi_BLE_SDK/GD32VW55x_RELEASE_V1.0.2/MSDK/wpa_supplicant/src/eap_server\eap_server_methods.c **** 	struct eap_method *m;
 324              		.loc 1 145 2
 146:C:/Users/stapi/OneDrive/Desktop/GD32VW553/V1_MQTT_OK/GD32VW55X_Wifi_BLE_SDK/GD32VW55x_RELEASE_V1.0.2/MSDK/wpa_supplicant/src/eap_server\eap_server_methods.c **** 
 147:C:/Users/stapi/OneDrive/Desktop/GD32VW553/V1_MQTT_OK/GD32VW55X_Wifi_BLE_SDK/GD32VW55x_RELEASE_V1.0.2/MSDK/wpa_supplicant/src/eap_server\eap_server_methods.c **** 	while (eap_methods) {
 325              		.loc 1 147 2
 326              		.loc 1 147 9 is_stmt 0
 327 0008 37040000 		lui	s0,%hi(.LANCHOR0)
 328              	.L39:
 329              		.loc 1 147 8 is_stmt 1
 330              		.loc 1 147 9 is_stmt 0
 331 000c 93070400 		addi	a5,s0,%lo(.LANCHOR0)
 332 0010 8843     		lw	a0,0(a5)
 333              		.loc 1 147 8
 334 0012 09E5     		bne	a0,zero,.L42
 148:C:/Users/stapi/OneDrive/Desktop/GD32VW553/V1_MQTT_OK/GD32VW55X_Wifi_BLE_SDK/GD32VW55x_RELEASE_V1.0.2/MSDK/wpa_supplicant/src/eap_server\eap_server_methods.c **** 		m = eap_methods;
 149:C:/Users/stapi/OneDrive/Desktop/GD32VW553/V1_MQTT_OK/GD32VW55X_Wifi_BLE_SDK/GD32VW55x_RELEASE_V1.0.2/MSDK/wpa_supplicant/src/eap_server\eap_server_methods.c **** 		eap_methods = eap_methods->next;
 150:C:/Users/stapi/OneDrive/Desktop/GD32VW553/V1_MQTT_OK/GD32VW55X_Wifi_BLE_SDK/GD32VW55x_RELEASE_V1.0.2/MSDK/wpa_supplicant/src/eap_server\eap_server_methods.c **** 
 151:C:/Users/stapi/OneDrive/Desktop/GD32VW553/V1_MQTT_OK/GD32VW55X_Wifi_BLE_SDK/GD32VW55x_RELEASE_V1.0.2/MSDK/wpa_supplicant/src/eap_server\eap_server_methods.c **** 		if (m->free)
 152:C:/Users/stapi/OneDrive/Desktop/GD32VW553/V1_MQTT_OK/GD32VW55X_Wifi_BLE_SDK/GD32VW55x_RELEASE_V1.0.2/MSDK/wpa_supplicant/src/eap_server\eap_server_methods.c **** 			m->free(m);
 153:C:/Users/stapi/OneDrive/Desktop/GD32VW553/V1_MQTT_OK/GD32VW55X_Wifi_BLE_SDK/GD32VW55x_RELEASE_V1.0.2/MSDK/wpa_supplicant/src/eap_server\eap_server_methods.c **** 		else
 154:C:/Users/stapi/OneDrive/Desktop/GD32VW553/V1_MQTT_OK/GD32VW55X_Wifi_BLE_SDK/GD32VW55x_RELEASE_V1.0.2/MSDK/wpa_supplicant/src/eap_server\eap_server_methods.c **** 			eap_server_method_free(m);
 155:C:/Users/stapi/OneDrive/Desktop/GD32VW553/V1_MQTT_OK/GD32VW55X_Wifi_BLE_SDK/GD32VW55x_RELEASE_V1.0.2/MSDK/wpa_supplicant/src/eap_server\eap_server_methods.c **** 	}
 156:C:/Users/stapi/OneDrive/Desktop/GD32VW553/V1_MQTT_OK/GD32VW55X_Wifi_BLE_SDK/GD32VW55x_RELEASE_V1.0.2/MSDK/wpa_supplicant/src/eap_server\eap_server_methods.c **** }
 335              		.loc 1 156 1
 336 0014 17030000 		tail	__riscv_restore_1
 336      67000300 
 337              		.cfi_remember_state
 338              		.cfi_restore 8
 339              		.cfi_restore 1
 340              		.cfi_def_cfa_offset 0
 341              	.L42:
 342              		.cfi_restore_state
 148:C:/Users/stapi/OneDrive/Desktop/GD32VW553/V1_MQTT_OK/GD32VW55X_Wifi_BLE_SDK/GD32VW55x_RELEASE_V1.0.2/MSDK/wpa_supplicant/src/eap_server\eap_server_methods.c **** 		m = eap_methods;
 343              		.loc 1 148 3 is_stmt 1
 344              	.LVL26:
 149:C:/Users/stapi/OneDrive/Desktop/GD32VW553/V1_MQTT_OK/GD32VW55X_Wifi_BLE_SDK/GD32VW55x_RELEASE_V1.0.2/MSDK/wpa_supplicant/src/eap_server\eap_server_methods.c **** 
 345              		.loc 1 149 3
 149:C:/Users/stapi/OneDrive/Desktop/GD32VW553/V1_MQTT_OK/GD32VW55X_Wifi_BLE_SDK/GD32VW55x_RELEASE_V1.0.2/MSDK/wpa_supplicant/src/eap_server\eap_server_methods.c **** 
 346              		.loc 1 149 15 is_stmt 0
 347 001c 585D     		lw	a4,60(a0)
 348 001e 98C3     		sw	a4,0(a5)
 151:C:/Users/stapi/OneDrive/Desktop/GD32VW553/V1_MQTT_OK/GD32VW55X_Wifi_BLE_SDK/GD32VW55x_RELEASE_V1.0.2/MSDK/wpa_supplicant/src/eap_server\eap_server_methods.c **** 			m->free(m);
 349              		.loc 1 151 3 is_stmt 1
 151:C:/Users/stapi/OneDrive/Desktop/GD32VW553/V1_MQTT_OK/GD32VW55X_Wifi_BLE_SDK/GD32VW55x_RELEASE_V1.0.2/MSDK/wpa_supplicant/src/eap_server\eap_server_methods.c **** 			m->free(m);
 350              		.loc 1 151 8 is_stmt 0
 351 0020 5C59     		lw	a5,52(a0)
 151:C:/Users/stapi/OneDrive/Desktop/GD32VW553/V1_MQTT_OK/GD32VW55X_Wifi_BLE_SDK/GD32VW55x_RELEASE_V1.0.2/MSDK/wpa_supplicant/src/eap_server\eap_server_methods.c **** 			m->free(m);
 352              		.loc 1 151 6
 353 0022 99C3     		beq	a5,zero,.L40
 152:C:/Users/stapi/OneDrive/Desktop/GD32VW553/V1_MQTT_OK/GD32VW55X_Wifi_BLE_SDK/GD32VW55x_RELEASE_V1.0.2/MSDK/wpa_supplicant/src/eap_server\eap_server_methods.c **** 		else
 354              		.loc 1 152 4 is_stmt 1
 355 0024 8297     		jalr	a5
 356              	.LVL27:
 357 0026 DDB7     		j	.L39
 358              	.LVL28:
 359              	.L40:
 154:C:/Users/stapi/OneDrive/Desktop/GD32VW553/V1_MQTT_OK/GD32VW55X_Wifi_BLE_SDK/GD32VW55x_RELEASE_V1.0.2/MSDK/wpa_supplicant/src/eap_server\eap_server_methods.c **** 	}
 360              		.loc 1 154 4
 361              	.LBB12:
 362              	.LBB13:
  94:C:/Users/stapi/OneDrive/Desktop/GD32VW553/V1_MQTT_OK/GD32VW55X_Wifi_BLE_SDK/GD32VW55x_RELEASE_V1.0.2/MSDK/wpa_supplicant/src/eap_server\eap_server_methods.c **** }
 363              		.loc 1 94 2
 364 0028 97000000 		call	os_free
 364      E7800000 
 365              	.LVL29:
  95:C:/Users/stapi/OneDrive/Desktop/GD32VW553/V1_MQTT_OK/GD32VW55X_Wifi_BLE_SDK/GD32VW55x_RELEASE_V1.0.2/MSDK/wpa_supplicant/src/eap_server\eap_server_methods.c **** 
 366              		.loc 1 95 1 is_stmt 0
 367 0030 F1BF     		j	.L39
 368              	.LBE13:
 369              	.LBE12:
 370              		.cfi_endproc
 371              	.LFE99:
 373              		.section	.rodata.eap_server_get_name.str1.4,"aMS",@progbits,1
 374              		.align	2
 375              	.LC0:
 376 0000 65787061 		.string	"expanded"
 376      6E646564 
 376      00
 377 0009 000000   		.align	2
 378              	.LC1:
 379 000c 756E6B6E 		.string	"unknown"
 379      6F776E00 
 380              		.section	.text.eap_server_get_name,"ax",@progbits
 381              		.align	1
 382              		.globl	eap_server_get_name
 384              	eap_server_get_name:
 385              	.LFB100:
 157:C:/Users/stapi/OneDrive/Desktop/GD32VW553/V1_MQTT_OK/GD32VW55X_Wifi_BLE_SDK/GD32VW55x_RELEASE_V1.0.2/MSDK/wpa_supplicant/src/eap_server\eap_server_methods.c **** 
 158:C:/Users/stapi/OneDrive/Desktop/GD32VW553/V1_MQTT_OK/GD32VW55X_Wifi_BLE_SDK/GD32VW55x_RELEASE_V1.0.2/MSDK/wpa_supplicant/src/eap_server\eap_server_methods.c **** 
 159:C:/Users/stapi/OneDrive/Desktop/GD32VW553/V1_MQTT_OK/GD32VW55X_Wifi_BLE_SDK/GD32VW55x_RELEASE_V1.0.2/MSDK/wpa_supplicant/src/eap_server\eap_server_methods.c **** /**
 160:C:/Users/stapi/OneDrive/Desktop/GD32VW553/V1_MQTT_OK/GD32VW55X_Wifi_BLE_SDK/GD32VW55x_RELEASE_V1.0.2/MSDK/wpa_supplicant/src/eap_server\eap_server_methods.c ****  * eap_server_get_name - Get EAP method name for the given EAP type
 161:C:/Users/stapi/OneDrive/Desktop/GD32VW553/V1_MQTT_OK/GD32VW55X_Wifi_BLE_SDK/GD32VW55x_RELEASE_V1.0.2/MSDK/wpa_supplicant/src/eap_server\eap_server_methods.c ****  * @vendor: EAP Vendor-Id (0 = IETF)
 162:C:/Users/stapi/OneDrive/Desktop/GD32VW553/V1_MQTT_OK/GD32VW55X_Wifi_BLE_SDK/GD32VW55x_RELEASE_V1.0.2/MSDK/wpa_supplicant/src/eap_server\eap_server_methods.c ****  * @type: EAP method type
 163:C:/Users/stapi/OneDrive/Desktop/GD32VW553/V1_MQTT_OK/GD32VW55X_Wifi_BLE_SDK/GD32VW55x_RELEASE_V1.0.2/MSDK/wpa_supplicant/src/eap_server\eap_server_methods.c ****  * Returns: EAP method name, e.g., TLS, or "unknown" if not found
 164:C:/Users/stapi/OneDrive/Desktop/GD32VW553/V1_MQTT_OK/GD32VW55X_Wifi_BLE_SDK/GD32VW55x_RELEASE_V1.0.2/MSDK/wpa_supplicant/src/eap_server\eap_server_methods.c ****  *
 165:C:/Users/stapi/OneDrive/Desktop/GD32VW553/V1_MQTT_OK/GD32VW55X_Wifi_BLE_SDK/GD32VW55x_RELEASE_V1.0.2/MSDK/wpa_supplicant/src/eap_server\eap_server_methods.c ****  * This function maps EAP type numbers into EAP type names based on the list of
 166:C:/Users/stapi/OneDrive/Desktop/GD32VW553/V1_MQTT_OK/GD32VW55X_Wifi_BLE_SDK/GD32VW55x_RELEASE_V1.0.2/MSDK/wpa_supplicant/src/eap_server\eap_server_methods.c ****  * EAP methods included in the build.
 167:C:/Users/stapi/OneDrive/Desktop/GD32VW553/V1_MQTT_OK/GD32VW55X_Wifi_BLE_SDK/GD32VW55x_RELEASE_V1.0.2/MSDK/wpa_supplicant/src/eap_server\eap_server_methods.c ****  */
 168:C:/Users/stapi/OneDrive/Desktop/GD32VW553/V1_MQTT_OK/GD32VW55X_Wifi_BLE_SDK/GD32VW55x_RELEASE_V1.0.2/MSDK/wpa_supplicant/src/eap_server\eap_server_methods.c **** const char * eap_server_get_name(int vendor, enum eap_type type)
 169:C:/Users/stapi/OneDrive/Desktop/GD32VW553/V1_MQTT_OK/GD32VW55X_Wifi_BLE_SDK/GD32VW55x_RELEASE_V1.0.2/MSDK/wpa_supplicant/src/eap_server\eap_server_methods.c **** {
 386              		.loc 1 169 1 is_stmt 1
 387              		.cfi_startproc
 388              	.LVL30:
 170:C:/Users/stapi/OneDrive/Desktop/GD32VW553/V1_MQTT_OK/GD32VW55X_Wifi_BLE_SDK/GD32VW55x_RELEASE_V1.0.2/MSDK/wpa_supplicant/src/eap_server\eap_server_methods.c **** 	struct eap_method *m;
 389              		.loc 1 170 2
 171:C:/Users/stapi/OneDrive/Desktop/GD32VW553/V1_MQTT_OK/GD32VW55X_Wifi_BLE_SDK/GD32VW55x_RELEASE_V1.0.2/MSDK/wpa_supplicant/src/eap_server\eap_server_methods.c **** 	if (vendor == EAP_VENDOR_IETF && type == EAP_TYPE_EXPANDED)
 390              		.loc 1 171 2
 391              		.loc 1 171 5 is_stmt 0
 392 0000 09E5     		bne	a0,zero,.L45
 393              		.loc 1 171 32 discriminator 1
 394 0002 9307E00F 		li	a5,254
 395 0006 6386F502 		beq	a1,a5,.L50
 396              	.L45:
 172:C:/Users/stapi/OneDrive/Desktop/GD32VW553/V1_MQTT_OK/GD32VW55X_Wifi_BLE_SDK/GD32VW55x_RELEASE_V1.0.2/MSDK/wpa_supplicant/src/eap_server\eap_server_methods.c **** 		return "expanded";
 173:C:/Users/stapi/OneDrive/Desktop/GD32VW553/V1_MQTT_OK/GD32VW55X_Wifi_BLE_SDK/GD32VW55x_RELEASE_V1.0.2/MSDK/wpa_supplicant/src/eap_server\eap_server_methods.c **** 	for (m = eap_methods; m; m = m->next) {
 397              		.loc 1 173 2 is_stmt 1
 398              		.loc 1 173 9 is_stmt 0
 399 000a B7070000 		lui	a5,%hi(.LANCHOR0)
 400 000e 83A70700 		lw	a5,%lo(.LANCHOR0)(a5)
 401              	.LVL31:
 402              	.L47:
 403              		.loc 1 173 24 is_stmt 1 discriminator 1
 404              		.loc 1 173 2 is_stmt 0 discriminator 1
 405 0012 91E7     		bne	a5,zero,.L49
 174:C:/Users/stapi/OneDrive/Desktop/GD32VW553/V1_MQTT_OK/GD32VW55X_Wifi_BLE_SDK/GD32VW55x_RELEASE_V1.0.2/MSDK/wpa_supplicant/src/eap_server\eap_server_methods.c **** 		if (m->vendor == vendor && m->method == type)
 175:C:/Users/stapi/OneDrive/Desktop/GD32VW553/V1_MQTT_OK/GD32VW55X_Wifi_BLE_SDK/GD32VW55x_RELEASE_V1.0.2/MSDK/wpa_supplicant/src/eap_server\eap_server_methods.c **** 			return m->name;
 176:C:/Users/stapi/OneDrive/Desktop/GD32VW553/V1_MQTT_OK/GD32VW55X_Wifi_BLE_SDK/GD32VW55x_RELEASE_V1.0.2/MSDK/wpa_supplicant/src/eap_server\eap_server_methods.c **** 	}
 177:C:/Users/stapi/OneDrive/Desktop/GD32VW553/V1_MQTT_OK/GD32VW55X_Wifi_BLE_SDK/GD32VW55x_RELEASE_V1.0.2/MSDK/wpa_supplicant/src/eap_server\eap_server_methods.c **** 	return "unknown";
 406              		.loc 1 177 9
 407 0014 37050000 		lui	a0,%hi(.LC1)
 408              	.LVL32:
 409 0018 13050500 		addi	a0,a0,%lo(.LC1)
 410 001c 8280     		ret
 411              	.LVL33:
 412              	.L49:
 174:C:/Users/stapi/OneDrive/Desktop/GD32VW553/V1_MQTT_OK/GD32VW55X_Wifi_BLE_SDK/GD32VW55x_RELEASE_V1.0.2/MSDK/wpa_supplicant/src/eap_server\eap_server_methods.c **** 		if (m->vendor == vendor && m->method == type)
 413              		.loc 1 174 3 is_stmt 1
 174:C:/Users/stapi/OneDrive/Desktop/GD32VW553/V1_MQTT_OK/GD32VW55X_Wifi_BLE_SDK/GD32VW55x_RELEASE_V1.0.2/MSDK/wpa_supplicant/src/eap_server\eap_server_methods.c **** 		if (m->vendor == vendor && m->method == type)
 414              		.loc 1 174 6 is_stmt 0
 415 001e 9843     		lw	a4,0(a5)
 416 0020 6317A700 		bne	a4,a0,.L48
 174:C:/Users/stapi/OneDrive/Desktop/GD32VW553/V1_MQTT_OK/GD32VW55X_Wifi_BLE_SDK/GD32VW55x_RELEASE_V1.0.2/MSDK/wpa_supplicant/src/eap_server\eap_server_methods.c **** 		if (m->vendor == vendor && m->method == type)
 417              		.loc 1 174 27 discriminator 1
 418 0024 D843     		lw	a4,4(a5)
 419 0026 6314B700 		bne	a4,a1,.L48
 175:C:/Users/stapi/OneDrive/Desktop/GD32VW553/V1_MQTT_OK/GD32VW55X_Wifi_BLE_SDK/GD32VW55x_RELEASE_V1.0.2/MSDK/wpa_supplicant/src/eap_server\eap_server_methods.c **** 	}
 420              		.loc 1 175 4 is_stmt 1
 175:C:/Users/stapi/OneDrive/Desktop/GD32VW553/V1_MQTT_OK/GD32VW55X_Wifi_BLE_SDK/GD32VW55x_RELEASE_V1.0.2/MSDK/wpa_supplicant/src/eap_server\eap_server_methods.c **** 	}
 421              		.loc 1 175 12 is_stmt 0
 422 002a 8847     		lw	a0,8(a5)
 423              	.LVL34:
 424 002c 8280     		ret
 425              	.LVL35:
 426              	.L48:
 173:C:/Users/stapi/OneDrive/Desktop/GD32VW553/V1_MQTT_OK/GD32VW55X_Wifi_BLE_SDK/GD32VW55x_RELEASE_V1.0.2/MSDK/wpa_supplicant/src/eap_server\eap_server_methods.c **** 		if (m->vendor == vendor && m->method == type)
 427              		.loc 1 173 27 is_stmt 1 discriminator 2
 173:C:/Users/stapi/OneDrive/Desktop/GD32VW553/V1_MQTT_OK/GD32VW55X_Wifi_BLE_SDK/GD32VW55x_RELEASE_V1.0.2/MSDK/wpa_supplicant/src/eap_server\eap_server_methods.c **** 		if (m->vendor == vendor && m->method == type)
 428              		.loc 1 173 29 is_stmt 0 discriminator 2
 429 002e DC5F     		lw	a5,60(a5)
 430              	.LVL36:
 431 0030 CDB7     		j	.L47
 432              	.LVL37:
 433              	.L50:
 172:C:/Users/stapi/OneDrive/Desktop/GD32VW553/V1_MQTT_OK/GD32VW55X_Wifi_BLE_SDK/GD32VW55x_RELEASE_V1.0.2/MSDK/wpa_supplicant/src/eap_server\eap_server_methods.c **** 	for (m = eap_methods; m; m = m->next) {
 434              		.loc 1 172 10
 435 0032 37050000 		lui	a0,%hi(.LC0)
 436              	.LVL38:
 437 0036 13050500 		addi	a0,a0,%lo(.LC0)
 178:C:/Users/stapi/OneDrive/Desktop/GD32VW553/V1_MQTT_OK/GD32VW55X_Wifi_BLE_SDK/GD32VW55x_RELEASE_V1.0.2/MSDK/wpa_supplicant/src/eap_server\eap_server_methods.c **** }
 438              		.loc 1 178 1
 439 003a 8280     		ret
 440              		.cfi_endproc
 441              	.LFE100:
 443              		.section	.sbss.eap_methods,"aw",@nobits
 444              		.align	2
 445              		.set	.LANCHOR0,. + 0
 448              	eap_methods:
 449 0000 00000000 		.zero	4
 450              		.text
 451              	.Letext0:
 452              		.file 2 "c:\\users\\stapi\\onedrive\\desktop\\gd32vw553\\embeddedbuilder_v1.4.7.26843\\tools\\nucl
 453              		.file 3 "c:\\users\\stapi\\onedrive\\desktop\\gd32vw553\\embeddedbuilder_v1.4.7.26843\\tools\\nucl
 454              		.file 4 "c:\\users\\stapi\\onedrive\\desktop\\gd32vw553\\embeddedbuilder_v1.4.7.26843\\tools\\nucl
 455              		.file 5 "..\\..\\..\\..\\wpa_supplicant\\src\\utils/common.h"
 456              		.file 6 "..\\..\\..\\..\\wpa_supplicant\\src\\utils/wpabuf.h"
 457              		.file 7 "..\\..\\..\\..\\wpa_supplicant\\src/utils/list.h"
 458              		.file 8 "..\\..\\..\\..\\lwip\\lwip-2.1.2\\src\\include/lwip/netif.h"
 459              		.file 9 "..\\..\\..\\..\\wpa_supplicant\\src/eap_common/eap_defs.h"
 460              		.file 10 "..\\..\\..\\..\\lwip\\lwip-2.1.2\\src\\include/lwip/memp.h"
 461              		.file 11 "..\\..\\..\\..\\wpa_supplicant\\src/eap_server/eap.h"
 462              		.file 12 "C:/Users/stapi/OneDrive/Desktop/GD32VW553/V1_MQTT_OK/GD32VW55X_Wifi_BLE_SDK/GD32VW55x_RE
 463              		.file 13 "..\\..\\..\\..\\wpa_supplicant\\src\\utils/os.h"