   1              		.file	"hw_features.c"
   2              		.option nopic
   3              		.attribute arch, "rv32i2p0_m2p0_a2p0_f2p0_c2p0_b_p0p94"
   4              		.attribute unaligned_access, 0
   5              		.attribute stack_align, 16
   6              		.text
   7              	.Ltext0:
   8              		.cfi_sections	.debug_frame
   9              		.section	.rodata.hostapd_check_chans.str1.4,"aMS",@progbits,1
  10              		.align	2
  11              	.LC3:
  12 0000 204E4F2D 		.string	" NO-IR"
  12      495200
  13 0007 00       		.align	2
  14              	.LC4:
  15 0008 00       		.string	""
  16 0009 000000   		.align	2
  17              	.LC5:
  18 000c 20524144 		.string	" RADAR"
  18      415200
  19 0013 00       		.align	2
  20              	.LC6:
  21 0014 5072696D 		.string	"Primary frequency not present"
  21      61727920 
  21      66726571 
  21      75656E63 
  21      79206E6F 
  22 0032 0000     		.align	2
  23              	.LC7:
  24 0034 7072696D 		.string	"primary"
  24      61727900 
  25              		.align	2
  26              	.LC8:
  27 003c 46726571 		.string	"Frequency %d (%s) not allowed for AP mode, flags: 0x%x%s%s"
  27      75656E63 
  27      79202564 
  27      20282573 
  27      29206E6F 
  28 0077 00       		.align	2
  29              	.LC9:
  30 0078 5072696D 		.string	"Primary frequency not allowed"
  30      61727920 
  30      66726571 
  30      75656E63 
  30      79206E6F 
  31 0096 0000     		.align	2
  32              	.LC10:
  33 0098 41435320 		.string	"ACS was disabled on your build, rebuild hostapd with CONFIG_ACS=y or set channel"
  33      77617320 
  33      64697361 
  33      626C6564 
  33      206F6E20 
  34 00e9 000000   		.align	2
  35              	.LC11:
  36 00ec 4143533A 		.string	"ACS: Cannot decide mode"
  36      2043616E 
  36      6E6F7420 
  36      64656369 
  36      6465206D 
  37              		.section	.text.hostapd_check_chans,"ax",@progbits
  38              		.align	1
  40              	hostapd_check_chans:
  41              	.LFB187:
  42              		.file 1 "C:/Users/stapi/OneDrive/Desktop/GD32VW553/V1_MQTT_OK/GD32VW55X_Wifi_BLE_SDK/GD32VW55x_REL
   1:C:/Users/stapi/OneDrive/Desktop/GD32VW553/V1_MQTT_OK/GD32VW55X_Wifi_BLE_SDK/GD32VW55x_RELEASE_V1.0.2/MSDK/wpa_supplicant/src/ap\hw_features.c **** /*
   2:C:/Users/stapi/OneDrive/Desktop/GD32VW553/V1_MQTT_OK/GD32VW55X_Wifi_BLE_SDK/GD32VW55x_RELEASE_V1.0.2/MSDK/wpa_supplicant/src/ap\hw_features.c ****  * hostapd / Hardware feature query and different modes
   3:C:/Users/stapi/OneDrive/Desktop/GD32VW553/V1_MQTT_OK/GD32VW55X_Wifi_BLE_SDK/GD32VW55x_RELEASE_V1.0.2/MSDK/wpa_supplicant/src/ap\hw_features.c ****  * Copyright 2002-2003, Instant802 Networks, Inc.
   4:C:/Users/stapi/OneDrive/Desktop/GD32VW553/V1_MQTT_OK/GD32VW55X_Wifi_BLE_SDK/GD32VW55x_RELEASE_V1.0.2/MSDK/wpa_supplicant/src/ap\hw_features.c ****  * Copyright 2005-2006, Devicescape Software, Inc.
   5:C:/Users/stapi/OneDrive/Desktop/GD32VW553/V1_MQTT_OK/GD32VW55X_Wifi_BLE_SDK/GD32VW55x_RELEASE_V1.0.2/MSDK/wpa_supplicant/src/ap\hw_features.c ****  * Copyright (c) 2008-2012, Jouni Malinen <j@w1.fi>
   6:C:/Users/stapi/OneDrive/Desktop/GD32VW553/V1_MQTT_OK/GD32VW55X_Wifi_BLE_SDK/GD32VW55x_RELEASE_V1.0.2/MSDK/wpa_supplicant/src/ap\hw_features.c ****  *
   7:C:/Users/stapi/OneDrive/Desktop/GD32VW553/V1_MQTT_OK/GD32VW55X_Wifi_BLE_SDK/GD32VW55x_RELEASE_V1.0.2/MSDK/wpa_supplicant/src/ap\hw_features.c ****  * This software may be distributed under the terms of the BSD license.
   8:C:/Users/stapi/OneDrive/Desktop/GD32VW553/V1_MQTT_OK/GD32VW55X_Wifi_BLE_SDK/GD32VW55x_RELEASE_V1.0.2/MSDK/wpa_supplicant/src/ap\hw_features.c ****  * See README for more details.
   9:C:/Users/stapi/OneDrive/Desktop/GD32VW553/V1_MQTT_OK/GD32VW55X_Wifi_BLE_SDK/GD32VW55x_RELEASE_V1.0.2/MSDK/wpa_supplicant/src/ap\hw_features.c ****  */
  10:C:/Users/stapi/OneDrive/Desktop/GD32VW553/V1_MQTT_OK/GD32VW55X_Wifi_BLE_SDK/GD32VW55x_RELEASE_V1.0.2/MSDK/wpa_supplicant/src/ap\hw_features.c **** 
  11:C:/Users/stapi/OneDrive/Desktop/GD32VW553/V1_MQTT_OK/GD32VW55X_Wifi_BLE_SDK/GD32VW55x_RELEASE_V1.0.2/MSDK/wpa_supplicant/src/ap\hw_features.c **** #include "utils/includes.h"
  12:C:/Users/stapi/OneDrive/Desktop/GD32VW553/V1_MQTT_OK/GD32VW55X_Wifi_BLE_SDK/GD32VW55x_RELEASE_V1.0.2/MSDK/wpa_supplicant/src/ap\hw_features.c **** 
  13:C:/Users/stapi/OneDrive/Desktop/GD32VW553/V1_MQTT_OK/GD32VW55X_Wifi_BLE_SDK/GD32VW55x_RELEASE_V1.0.2/MSDK/wpa_supplicant/src/ap\hw_features.c **** #ifdef CONFIG_AP
  14:C:/Users/stapi/OneDrive/Desktop/GD32VW553/V1_MQTT_OK/GD32VW55X_Wifi_BLE_SDK/GD32VW55x_RELEASE_V1.0.2/MSDK/wpa_supplicant/src/ap\hw_features.c **** #include "utils/common.h"
  15:C:/Users/stapi/OneDrive/Desktop/GD32VW553/V1_MQTT_OK/GD32VW55X_Wifi_BLE_SDK/GD32VW55x_RELEASE_V1.0.2/MSDK/wpa_supplicant/src/ap\hw_features.c **** #include "utils/eloop.h"
  16:C:/Users/stapi/OneDrive/Desktop/GD32VW553/V1_MQTT_OK/GD32VW55X_Wifi_BLE_SDK/GD32VW55x_RELEASE_V1.0.2/MSDK/wpa_supplicant/src/ap\hw_features.c **** #include "common/ieee802_11_defs.h"
  17:C:/Users/stapi/OneDrive/Desktop/GD32VW553/V1_MQTT_OK/GD32VW55X_Wifi_BLE_SDK/GD32VW55x_RELEASE_V1.0.2/MSDK/wpa_supplicant/src/ap\hw_features.c **** #include "common/ieee802_11_common.h"
  18:C:/Users/stapi/OneDrive/Desktop/GD32VW553/V1_MQTT_OK/GD32VW55X_Wifi_BLE_SDK/GD32VW55x_RELEASE_V1.0.2/MSDK/wpa_supplicant/src/ap\hw_features.c **** #include "common/wpa_ctrl.h"
  19:C:/Users/stapi/OneDrive/Desktop/GD32VW553/V1_MQTT_OK/GD32VW55X_Wifi_BLE_SDK/GD32VW55x_RELEASE_V1.0.2/MSDK/wpa_supplicant/src/ap\hw_features.c **** #include "common/hw_features_common.h"
  20:C:/Users/stapi/OneDrive/Desktop/GD32VW553/V1_MQTT_OK/GD32VW55X_Wifi_BLE_SDK/GD32VW55x_RELEASE_V1.0.2/MSDK/wpa_supplicant/src/ap\hw_features.c **** #include "hostapd.h"
  21:C:/Users/stapi/OneDrive/Desktop/GD32VW553/V1_MQTT_OK/GD32VW55X_Wifi_BLE_SDK/GD32VW55x_RELEASE_V1.0.2/MSDK/wpa_supplicant/src/ap\hw_features.c **** #include "ap_config.h"
  22:C:/Users/stapi/OneDrive/Desktop/GD32VW553/V1_MQTT_OK/GD32VW55X_Wifi_BLE_SDK/GD32VW55x_RELEASE_V1.0.2/MSDK/wpa_supplicant/src/ap\hw_features.c **** #include "ap_drv_ops.h"
  23:C:/Users/stapi/OneDrive/Desktop/GD32VW553/V1_MQTT_OK/GD32VW55X_Wifi_BLE_SDK/GD32VW55x_RELEASE_V1.0.2/MSDK/wpa_supplicant/src/ap\hw_features.c **** #include "acs.h"
  24:C:/Users/stapi/OneDrive/Desktop/GD32VW553/V1_MQTT_OK/GD32VW55X_Wifi_BLE_SDK/GD32VW55x_RELEASE_V1.0.2/MSDK/wpa_supplicant/src/ap\hw_features.c **** #include "ieee802_11.h"
  25:C:/Users/stapi/OneDrive/Desktop/GD32VW553/V1_MQTT_OK/GD32VW55X_Wifi_BLE_SDK/GD32VW55x_RELEASE_V1.0.2/MSDK/wpa_supplicant/src/ap\hw_features.c **** #include "beacon.h"
  26:C:/Users/stapi/OneDrive/Desktop/GD32VW553/V1_MQTT_OK/GD32VW55X_Wifi_BLE_SDK/GD32VW55x_RELEASE_V1.0.2/MSDK/wpa_supplicant/src/ap\hw_features.c **** #include "hw_features.h"
  27:C:/Users/stapi/OneDrive/Desktop/GD32VW553/V1_MQTT_OK/GD32VW55X_Wifi_BLE_SDK/GD32VW55x_RELEASE_V1.0.2/MSDK/wpa_supplicant/src/ap\hw_features.c **** 
  28:C:/Users/stapi/OneDrive/Desktop/GD32VW553/V1_MQTT_OK/GD32VW55X_Wifi_BLE_SDK/GD32VW55x_RELEASE_V1.0.2/MSDK/wpa_supplicant/src/ap\hw_features.c **** 
  29:C:/Users/stapi/OneDrive/Desktop/GD32VW553/V1_MQTT_OK/GD32VW55X_Wifi_BLE_SDK/GD32VW55x_RELEASE_V1.0.2/MSDK/wpa_supplicant/src/ap\hw_features.c **** void hostapd_free_hw_features(struct hostapd_hw_modes *hw_features,
  30:C:/Users/stapi/OneDrive/Desktop/GD32VW553/V1_MQTT_OK/GD32VW55X_Wifi_BLE_SDK/GD32VW55x_RELEASE_V1.0.2/MSDK/wpa_supplicant/src/ap\hw_features.c **** 			      size_t num_hw_features)
  31:C:/Users/stapi/OneDrive/Desktop/GD32VW553/V1_MQTT_OK/GD32VW55X_Wifi_BLE_SDK/GD32VW55x_RELEASE_V1.0.2/MSDK/wpa_supplicant/src/ap\hw_features.c **** {
  32:C:/Users/stapi/OneDrive/Desktop/GD32VW553/V1_MQTT_OK/GD32VW55X_Wifi_BLE_SDK/GD32VW55x_RELEASE_V1.0.2/MSDK/wpa_supplicant/src/ap\hw_features.c **** 	size_t i;
  33:C:/Users/stapi/OneDrive/Desktop/GD32VW553/V1_MQTT_OK/GD32VW55X_Wifi_BLE_SDK/GD32VW55x_RELEASE_V1.0.2/MSDK/wpa_supplicant/src/ap\hw_features.c **** 
  34:C:/Users/stapi/OneDrive/Desktop/GD32VW553/V1_MQTT_OK/GD32VW55X_Wifi_BLE_SDK/GD32VW55x_RELEASE_V1.0.2/MSDK/wpa_supplicant/src/ap\hw_features.c **** 	if (hw_features == NULL)
  35:C:/Users/stapi/OneDrive/Desktop/GD32VW553/V1_MQTT_OK/GD32VW55X_Wifi_BLE_SDK/GD32VW55x_RELEASE_V1.0.2/MSDK/wpa_supplicant/src/ap\hw_features.c **** 		return;
  36:C:/Users/stapi/OneDrive/Desktop/GD32VW553/V1_MQTT_OK/GD32VW55X_Wifi_BLE_SDK/GD32VW55x_RELEASE_V1.0.2/MSDK/wpa_supplicant/src/ap\hw_features.c **** 
  37:C:/Users/stapi/OneDrive/Desktop/GD32VW553/V1_MQTT_OK/GD32VW55X_Wifi_BLE_SDK/GD32VW55x_RELEASE_V1.0.2/MSDK/wpa_supplicant/src/ap\hw_features.c **** 	for (i = 0; i < num_hw_features; i++) {
  38:C:/Users/stapi/OneDrive/Desktop/GD32VW553/V1_MQTT_OK/GD32VW55X_Wifi_BLE_SDK/GD32VW55x_RELEASE_V1.0.2/MSDK/wpa_supplicant/src/ap\hw_features.c **** 		os_free(hw_features[i].channels);
  39:C:/Users/stapi/OneDrive/Desktop/GD32VW553/V1_MQTT_OK/GD32VW55X_Wifi_BLE_SDK/GD32VW55x_RELEASE_V1.0.2/MSDK/wpa_supplicant/src/ap\hw_features.c **** 		os_free(hw_features[i].rates);
  40:C:/Users/stapi/OneDrive/Desktop/GD32VW553/V1_MQTT_OK/GD32VW55X_Wifi_BLE_SDK/GD32VW55x_RELEASE_V1.0.2/MSDK/wpa_supplicant/src/ap\hw_features.c **** 	}
  41:C:/Users/stapi/OneDrive/Desktop/GD32VW553/V1_MQTT_OK/GD32VW55X_Wifi_BLE_SDK/GD32VW55x_RELEASE_V1.0.2/MSDK/wpa_supplicant/src/ap\hw_features.c **** 
  42:C:/Users/stapi/OneDrive/Desktop/GD32VW553/V1_MQTT_OK/GD32VW55X_Wifi_BLE_SDK/GD32VW55x_RELEASE_V1.0.2/MSDK/wpa_supplicant/src/ap\hw_features.c **** 	os_free(hw_features);
  43:C:/Users/stapi/OneDrive/Desktop/GD32VW553/V1_MQTT_OK/GD32VW55X_Wifi_BLE_SDK/GD32VW55x_RELEASE_V1.0.2/MSDK/wpa_supplicant/src/ap\hw_features.c **** }
  44:C:/Users/stapi/OneDrive/Desktop/GD32VW553/V1_MQTT_OK/GD32VW55X_Wifi_BLE_SDK/GD32VW55x_RELEASE_V1.0.2/MSDK/wpa_supplicant/src/ap\hw_features.c **** 
  45:C:/Users/stapi/OneDrive/Desktop/GD32VW553/V1_MQTT_OK/GD32VW55X_Wifi_BLE_SDK/GD32VW55x_RELEASE_V1.0.2/MSDK/wpa_supplicant/src/ap\hw_features.c **** 
  46:C:/Users/stapi/OneDrive/Desktop/GD32VW553/V1_MQTT_OK/GD32VW55X_Wifi_BLE_SDK/GD32VW55x_RELEASE_V1.0.2/MSDK/wpa_supplicant/src/ap\hw_features.c **** #ifndef CONFIG_NO_STDOUT_DEBUG
  47:C:/Users/stapi/OneDrive/Desktop/GD32VW553/V1_MQTT_OK/GD32VW55X_Wifi_BLE_SDK/GD32VW55x_RELEASE_V1.0.2/MSDK/wpa_supplicant/src/ap\hw_features.c **** static char * dfs_info(struct hostapd_channel_data *chan)
  48:C:/Users/stapi/OneDrive/Desktop/GD32VW553/V1_MQTT_OK/GD32VW55X_Wifi_BLE_SDK/GD32VW55x_RELEASE_V1.0.2/MSDK/wpa_supplicant/src/ap\hw_features.c **** {
  49:C:/Users/stapi/OneDrive/Desktop/GD32VW553/V1_MQTT_OK/GD32VW55X_Wifi_BLE_SDK/GD32VW55x_RELEASE_V1.0.2/MSDK/wpa_supplicant/src/ap\hw_features.c **** 	static char info[256];
  50:C:/Users/stapi/OneDrive/Desktop/GD32VW553/V1_MQTT_OK/GD32VW55X_Wifi_BLE_SDK/GD32VW55x_RELEASE_V1.0.2/MSDK/wpa_supplicant/src/ap\hw_features.c **** 	char *state;
  51:C:/Users/stapi/OneDrive/Desktop/GD32VW553/V1_MQTT_OK/GD32VW55X_Wifi_BLE_SDK/GD32VW55x_RELEASE_V1.0.2/MSDK/wpa_supplicant/src/ap\hw_features.c **** 
  52:C:/Users/stapi/OneDrive/Desktop/GD32VW553/V1_MQTT_OK/GD32VW55X_Wifi_BLE_SDK/GD32VW55x_RELEASE_V1.0.2/MSDK/wpa_supplicant/src/ap\hw_features.c **** 	switch (chan->flag & HOSTAPD_CHAN_DFS_MASK) {
  53:C:/Users/stapi/OneDrive/Desktop/GD32VW553/V1_MQTT_OK/GD32VW55X_Wifi_BLE_SDK/GD32VW55x_RELEASE_V1.0.2/MSDK/wpa_supplicant/src/ap\hw_features.c **** 	case HOSTAPD_CHAN_DFS_UNKNOWN:
  54:C:/Users/stapi/OneDrive/Desktop/GD32VW553/V1_MQTT_OK/GD32VW55X_Wifi_BLE_SDK/GD32VW55x_RELEASE_V1.0.2/MSDK/wpa_supplicant/src/ap\hw_features.c **** 		state = "unknown";
  55:C:/Users/stapi/OneDrive/Desktop/GD32VW553/V1_MQTT_OK/GD32VW55X_Wifi_BLE_SDK/GD32VW55x_RELEASE_V1.0.2/MSDK/wpa_supplicant/src/ap\hw_features.c **** 		break;
  56:C:/Users/stapi/OneDrive/Desktop/GD32VW553/V1_MQTT_OK/GD32VW55X_Wifi_BLE_SDK/GD32VW55x_RELEASE_V1.0.2/MSDK/wpa_supplicant/src/ap\hw_features.c **** 	case HOSTAPD_CHAN_DFS_USABLE:
  57:C:/Users/stapi/OneDrive/Desktop/GD32VW553/V1_MQTT_OK/GD32VW55X_Wifi_BLE_SDK/GD32VW55x_RELEASE_V1.0.2/MSDK/wpa_supplicant/src/ap\hw_features.c **** 		state = "usable";
  58:C:/Users/stapi/OneDrive/Desktop/GD32VW553/V1_MQTT_OK/GD32VW55X_Wifi_BLE_SDK/GD32VW55x_RELEASE_V1.0.2/MSDK/wpa_supplicant/src/ap\hw_features.c **** 		break;
  59:C:/Users/stapi/OneDrive/Desktop/GD32VW553/V1_MQTT_OK/GD32VW55X_Wifi_BLE_SDK/GD32VW55x_RELEASE_V1.0.2/MSDK/wpa_supplicant/src/ap\hw_features.c **** 	case HOSTAPD_CHAN_DFS_UNAVAILABLE:
  60:C:/Users/stapi/OneDrive/Desktop/GD32VW553/V1_MQTT_OK/GD32VW55X_Wifi_BLE_SDK/GD32VW55x_RELEASE_V1.0.2/MSDK/wpa_supplicant/src/ap\hw_features.c **** 		state = "unavailable";
  61:C:/Users/stapi/OneDrive/Desktop/GD32VW553/V1_MQTT_OK/GD32VW55X_Wifi_BLE_SDK/GD32VW55x_RELEASE_V1.0.2/MSDK/wpa_supplicant/src/ap\hw_features.c **** 		break;
  62:C:/Users/stapi/OneDrive/Desktop/GD32VW553/V1_MQTT_OK/GD32VW55X_Wifi_BLE_SDK/GD32VW55x_RELEASE_V1.0.2/MSDK/wpa_supplicant/src/ap\hw_features.c **** 	case HOSTAPD_CHAN_DFS_AVAILABLE:
  63:C:/Users/stapi/OneDrive/Desktop/GD32VW553/V1_MQTT_OK/GD32VW55X_Wifi_BLE_SDK/GD32VW55x_RELEASE_V1.0.2/MSDK/wpa_supplicant/src/ap\hw_features.c **** 		state = "available";
  64:C:/Users/stapi/OneDrive/Desktop/GD32VW553/V1_MQTT_OK/GD32VW55X_Wifi_BLE_SDK/GD32VW55x_RELEASE_V1.0.2/MSDK/wpa_supplicant/src/ap\hw_features.c **** 		break;
  65:C:/Users/stapi/OneDrive/Desktop/GD32VW553/V1_MQTT_OK/GD32VW55X_Wifi_BLE_SDK/GD32VW55x_RELEASE_V1.0.2/MSDK/wpa_supplicant/src/ap\hw_features.c **** 	default:
  66:C:/Users/stapi/OneDrive/Desktop/GD32VW553/V1_MQTT_OK/GD32VW55X_Wifi_BLE_SDK/GD32VW55x_RELEASE_V1.0.2/MSDK/wpa_supplicant/src/ap\hw_features.c **** 		return "";
  67:C:/Users/stapi/OneDrive/Desktop/GD32VW553/V1_MQTT_OK/GD32VW55X_Wifi_BLE_SDK/GD32VW55x_RELEASE_V1.0.2/MSDK/wpa_supplicant/src/ap\hw_features.c **** 	}
  68:C:/Users/stapi/OneDrive/Desktop/GD32VW553/V1_MQTT_OK/GD32VW55X_Wifi_BLE_SDK/GD32VW55x_RELEASE_V1.0.2/MSDK/wpa_supplicant/src/ap\hw_features.c **** 	os_snprintf(info, sizeof(info), " (DFS state = %s)", state);
  69:C:/Users/stapi/OneDrive/Desktop/GD32VW553/V1_MQTT_OK/GD32VW55X_Wifi_BLE_SDK/GD32VW55x_RELEASE_V1.0.2/MSDK/wpa_supplicant/src/ap\hw_features.c **** 	info[sizeof(info) - 1] = '\0';
  70:C:/Users/stapi/OneDrive/Desktop/GD32VW553/V1_MQTT_OK/GD32VW55X_Wifi_BLE_SDK/GD32VW55x_RELEASE_V1.0.2/MSDK/wpa_supplicant/src/ap\hw_features.c **** 
  71:C:/Users/stapi/OneDrive/Desktop/GD32VW553/V1_MQTT_OK/GD32VW55X_Wifi_BLE_SDK/GD32VW55x_RELEASE_V1.0.2/MSDK/wpa_supplicant/src/ap\hw_features.c **** 	return info;
  72:C:/Users/stapi/OneDrive/Desktop/GD32VW553/V1_MQTT_OK/GD32VW55X_Wifi_BLE_SDK/GD32VW55x_RELEASE_V1.0.2/MSDK/wpa_supplicant/src/ap\hw_features.c **** }
  73:C:/Users/stapi/OneDrive/Desktop/GD32VW553/V1_MQTT_OK/GD32VW55X_Wifi_BLE_SDK/GD32VW55x_RELEASE_V1.0.2/MSDK/wpa_supplicant/src/ap\hw_features.c **** #endif /* CONFIG_NO_STDOUT_DEBUG */
  74:C:/Users/stapi/OneDrive/Desktop/GD32VW553/V1_MQTT_OK/GD32VW55X_Wifi_BLE_SDK/GD32VW55x_RELEASE_V1.0.2/MSDK/wpa_supplicant/src/ap\hw_features.c **** 
  75:C:/Users/stapi/OneDrive/Desktop/GD32VW553/V1_MQTT_OK/GD32VW55X_Wifi_BLE_SDK/GD32VW55x_RELEASE_V1.0.2/MSDK/wpa_supplicant/src/ap\hw_features.c **** 
  76:C:/Users/stapi/OneDrive/Desktop/GD32VW553/V1_MQTT_OK/GD32VW55X_Wifi_BLE_SDK/GD32VW55x_RELEASE_V1.0.2/MSDK/wpa_supplicant/src/ap\hw_features.c **** int hostapd_get_hw_features(struct hostapd_iface *iface)
  77:C:/Users/stapi/OneDrive/Desktop/GD32VW553/V1_MQTT_OK/GD32VW55X_Wifi_BLE_SDK/GD32VW55x_RELEASE_V1.0.2/MSDK/wpa_supplicant/src/ap\hw_features.c **** {
  78:C:/Users/stapi/OneDrive/Desktop/GD32VW553/V1_MQTT_OK/GD32VW55X_Wifi_BLE_SDK/GD32VW55x_RELEASE_V1.0.2/MSDK/wpa_supplicant/src/ap\hw_features.c **** 	struct hostapd_data *hapd = iface->bss[0];
  79:C:/Users/stapi/OneDrive/Desktop/GD32VW553/V1_MQTT_OK/GD32VW55X_Wifi_BLE_SDK/GD32VW55x_RELEASE_V1.0.2/MSDK/wpa_supplicant/src/ap\hw_features.c **** 	int i, j;
  80:C:/Users/stapi/OneDrive/Desktop/GD32VW553/V1_MQTT_OK/GD32VW55X_Wifi_BLE_SDK/GD32VW55x_RELEASE_V1.0.2/MSDK/wpa_supplicant/src/ap\hw_features.c **** 	u16 num_modes, flags;
  81:C:/Users/stapi/OneDrive/Desktop/GD32VW553/V1_MQTT_OK/GD32VW55X_Wifi_BLE_SDK/GD32VW55x_RELEASE_V1.0.2/MSDK/wpa_supplicant/src/ap\hw_features.c **** 	struct hostapd_hw_modes *modes;
  82:C:/Users/stapi/OneDrive/Desktop/GD32VW553/V1_MQTT_OK/GD32VW55X_Wifi_BLE_SDK/GD32VW55x_RELEASE_V1.0.2/MSDK/wpa_supplicant/src/ap\hw_features.c **** 	u8 dfs_domain;
  83:C:/Users/stapi/OneDrive/Desktop/GD32VW553/V1_MQTT_OK/GD32VW55X_Wifi_BLE_SDK/GD32VW55x_RELEASE_V1.0.2/MSDK/wpa_supplicant/src/ap\hw_features.c **** 
  84:C:/Users/stapi/OneDrive/Desktop/GD32VW553/V1_MQTT_OK/GD32VW55X_Wifi_BLE_SDK/GD32VW55x_RELEASE_V1.0.2/MSDK/wpa_supplicant/src/ap\hw_features.c **** 	if (hostapd_drv_none(hapd))
  85:C:/Users/stapi/OneDrive/Desktop/GD32VW553/V1_MQTT_OK/GD32VW55X_Wifi_BLE_SDK/GD32VW55x_RELEASE_V1.0.2/MSDK/wpa_supplicant/src/ap\hw_features.c **** 		return -1;
  86:C:/Users/stapi/OneDrive/Desktop/GD32VW553/V1_MQTT_OK/GD32VW55X_Wifi_BLE_SDK/GD32VW55x_RELEASE_V1.0.2/MSDK/wpa_supplicant/src/ap\hw_features.c **** 	modes = hostapd_get_hw_feature_data(hapd, &num_modes, &flags,
  87:C:/Users/stapi/OneDrive/Desktop/GD32VW553/V1_MQTT_OK/GD32VW55X_Wifi_BLE_SDK/GD32VW55x_RELEASE_V1.0.2/MSDK/wpa_supplicant/src/ap\hw_features.c **** 					    &dfs_domain);
  88:C:/Users/stapi/OneDrive/Desktop/GD32VW553/V1_MQTT_OK/GD32VW55X_Wifi_BLE_SDK/GD32VW55x_RELEASE_V1.0.2/MSDK/wpa_supplicant/src/ap\hw_features.c **** 	if (modes == NULL) {
  89:C:/Users/stapi/OneDrive/Desktop/GD32VW553/V1_MQTT_OK/GD32VW55X_Wifi_BLE_SDK/GD32VW55x_RELEASE_V1.0.2/MSDK/wpa_supplicant/src/ap\hw_features.c **** 		hostapd_logger(hapd, NULL, HOSTAPD_MODULE_IEEE80211,
  90:C:/Users/stapi/OneDrive/Desktop/GD32VW553/V1_MQTT_OK/GD32VW55X_Wifi_BLE_SDK/GD32VW55x_RELEASE_V1.0.2/MSDK/wpa_supplicant/src/ap\hw_features.c **** 			       HOSTAPD_LEVEL_DEBUG,
  91:C:/Users/stapi/OneDrive/Desktop/GD32VW553/V1_MQTT_OK/GD32VW55X_Wifi_BLE_SDK/GD32VW55x_RELEASE_V1.0.2/MSDK/wpa_supplicant/src/ap\hw_features.c **** 			       "Fetching hardware channel/rate support not "
  92:C:/Users/stapi/OneDrive/Desktop/GD32VW553/V1_MQTT_OK/GD32VW55X_Wifi_BLE_SDK/GD32VW55x_RELEASE_V1.0.2/MSDK/wpa_supplicant/src/ap\hw_features.c **** 			       "supported.");
  93:C:/Users/stapi/OneDrive/Desktop/GD32VW553/V1_MQTT_OK/GD32VW55X_Wifi_BLE_SDK/GD32VW55x_RELEASE_V1.0.2/MSDK/wpa_supplicant/src/ap\hw_features.c **** 		return -1;
  94:C:/Users/stapi/OneDrive/Desktop/GD32VW553/V1_MQTT_OK/GD32VW55X_Wifi_BLE_SDK/GD32VW55x_RELEASE_V1.0.2/MSDK/wpa_supplicant/src/ap\hw_features.c **** 	}
  95:C:/Users/stapi/OneDrive/Desktop/GD32VW553/V1_MQTT_OK/GD32VW55X_Wifi_BLE_SDK/GD32VW55x_RELEASE_V1.0.2/MSDK/wpa_supplicant/src/ap\hw_features.c **** 
  96:C:/Users/stapi/OneDrive/Desktop/GD32VW553/V1_MQTT_OK/GD32VW55X_Wifi_BLE_SDK/GD32VW55x_RELEASE_V1.0.2/MSDK/wpa_supplicant/src/ap\hw_features.c **** 	iface->hw_flags = flags;
  97:C:/Users/stapi/OneDrive/Desktop/GD32VW553/V1_MQTT_OK/GD32VW55X_Wifi_BLE_SDK/GD32VW55x_RELEASE_V1.0.2/MSDK/wpa_supplicant/src/ap\hw_features.c **** 	iface->dfs_domain = dfs_domain;
  98:C:/Users/stapi/OneDrive/Desktop/GD32VW553/V1_MQTT_OK/GD32VW55X_Wifi_BLE_SDK/GD32VW55x_RELEASE_V1.0.2/MSDK/wpa_supplicant/src/ap\hw_features.c **** 
  99:C:/Users/stapi/OneDrive/Desktop/GD32VW553/V1_MQTT_OK/GD32VW55X_Wifi_BLE_SDK/GD32VW55x_RELEASE_V1.0.2/MSDK/wpa_supplicant/src/ap\hw_features.c **** 	hostapd_free_hw_features(iface->hw_features, iface->num_hw_features);
 100:C:/Users/stapi/OneDrive/Desktop/GD32VW553/V1_MQTT_OK/GD32VW55X_Wifi_BLE_SDK/GD32VW55x_RELEASE_V1.0.2/MSDK/wpa_supplicant/src/ap\hw_features.c **** 	iface->hw_features = modes;
 101:C:/Users/stapi/OneDrive/Desktop/GD32VW553/V1_MQTT_OK/GD32VW55X_Wifi_BLE_SDK/GD32VW55x_RELEASE_V1.0.2/MSDK/wpa_supplicant/src/ap\hw_features.c **** 	iface->num_hw_features = num_modes;
 102:C:/Users/stapi/OneDrive/Desktop/GD32VW553/V1_MQTT_OK/GD32VW55X_Wifi_BLE_SDK/GD32VW55x_RELEASE_V1.0.2/MSDK/wpa_supplicant/src/ap\hw_features.c **** 
 103:C:/Users/stapi/OneDrive/Desktop/GD32VW553/V1_MQTT_OK/GD32VW55X_Wifi_BLE_SDK/GD32VW55x_RELEASE_V1.0.2/MSDK/wpa_supplicant/src/ap\hw_features.c **** 	for (i = 0; i < num_modes; i++) {
 104:C:/Users/stapi/OneDrive/Desktop/GD32VW553/V1_MQTT_OK/GD32VW55X_Wifi_BLE_SDK/GD32VW55x_RELEASE_V1.0.2/MSDK/wpa_supplicant/src/ap\hw_features.c **** 		struct hostapd_hw_modes *feature = &modes[i];
 105:C:/Users/stapi/OneDrive/Desktop/GD32VW553/V1_MQTT_OK/GD32VW55X_Wifi_BLE_SDK/GD32VW55x_RELEASE_V1.0.2/MSDK/wpa_supplicant/src/ap\hw_features.c **** 		int dfs_enabled = hapd->iconf->ieee80211h &&
 106:C:/Users/stapi/OneDrive/Desktop/GD32VW553/V1_MQTT_OK/GD32VW55X_Wifi_BLE_SDK/GD32VW55x_RELEASE_V1.0.2/MSDK/wpa_supplicant/src/ap\hw_features.c **** 			(iface->drv_flags & WPA_DRIVER_FLAGS_RADAR);
 107:C:/Users/stapi/OneDrive/Desktop/GD32VW553/V1_MQTT_OK/GD32VW55X_Wifi_BLE_SDK/GD32VW55x_RELEASE_V1.0.2/MSDK/wpa_supplicant/src/ap\hw_features.c **** 
 108:C:/Users/stapi/OneDrive/Desktop/GD32VW553/V1_MQTT_OK/GD32VW55X_Wifi_BLE_SDK/GD32VW55x_RELEASE_V1.0.2/MSDK/wpa_supplicant/src/ap\hw_features.c **** 		/* set flag for channels we can use in current regulatory
 109:C:/Users/stapi/OneDrive/Desktop/GD32VW553/V1_MQTT_OK/GD32VW55X_Wifi_BLE_SDK/GD32VW55x_RELEASE_V1.0.2/MSDK/wpa_supplicant/src/ap\hw_features.c **** 		 * domain */
 110:C:/Users/stapi/OneDrive/Desktop/GD32VW553/V1_MQTT_OK/GD32VW55X_Wifi_BLE_SDK/GD32VW55x_RELEASE_V1.0.2/MSDK/wpa_supplicant/src/ap\hw_features.c **** 		for (j = 0; j < feature->num_channels; j++) {
 111:C:/Users/stapi/OneDrive/Desktop/GD32VW553/V1_MQTT_OK/GD32VW55X_Wifi_BLE_SDK/GD32VW55x_RELEASE_V1.0.2/MSDK/wpa_supplicant/src/ap\hw_features.c **** 			int dfs = 0;
 112:C:/Users/stapi/OneDrive/Desktop/GD32VW553/V1_MQTT_OK/GD32VW55X_Wifi_BLE_SDK/GD32VW55x_RELEASE_V1.0.2/MSDK/wpa_supplicant/src/ap\hw_features.c **** 
 113:C:/Users/stapi/OneDrive/Desktop/GD32VW553/V1_MQTT_OK/GD32VW55X_Wifi_BLE_SDK/GD32VW55x_RELEASE_V1.0.2/MSDK/wpa_supplicant/src/ap\hw_features.c **** 			/*
 114:C:/Users/stapi/OneDrive/Desktop/GD32VW553/V1_MQTT_OK/GD32VW55X_Wifi_BLE_SDK/GD32VW55x_RELEASE_V1.0.2/MSDK/wpa_supplicant/src/ap\hw_features.c **** 			 * Disable all channels that are marked not to allow
 115:C:/Users/stapi/OneDrive/Desktop/GD32VW553/V1_MQTT_OK/GD32VW55X_Wifi_BLE_SDK/GD32VW55x_RELEASE_V1.0.2/MSDK/wpa_supplicant/src/ap\hw_features.c **** 			 * to initiate radiation (a.k.a. passive scan and no
 116:C:/Users/stapi/OneDrive/Desktop/GD32VW553/V1_MQTT_OK/GD32VW55X_Wifi_BLE_SDK/GD32VW55x_RELEASE_V1.0.2/MSDK/wpa_supplicant/src/ap\hw_features.c **** 			 * IBSS).
 117:C:/Users/stapi/OneDrive/Desktop/GD32VW553/V1_MQTT_OK/GD32VW55X_Wifi_BLE_SDK/GD32VW55x_RELEASE_V1.0.2/MSDK/wpa_supplicant/src/ap\hw_features.c **** 			 * Use radar channels only if the driver supports DFS.
 118:C:/Users/stapi/OneDrive/Desktop/GD32VW553/V1_MQTT_OK/GD32VW55X_Wifi_BLE_SDK/GD32VW55x_RELEASE_V1.0.2/MSDK/wpa_supplicant/src/ap\hw_features.c **** 			 */
 119:C:/Users/stapi/OneDrive/Desktop/GD32VW553/V1_MQTT_OK/GD32VW55X_Wifi_BLE_SDK/GD32VW55x_RELEASE_V1.0.2/MSDK/wpa_supplicant/src/ap\hw_features.c **** 			if ((feature->channels[j].flag &
 120:C:/Users/stapi/OneDrive/Desktop/GD32VW553/V1_MQTT_OK/GD32VW55X_Wifi_BLE_SDK/GD32VW55x_RELEASE_V1.0.2/MSDK/wpa_supplicant/src/ap\hw_features.c **** 			     HOSTAPD_CHAN_RADAR) && dfs_enabled) {
 121:C:/Users/stapi/OneDrive/Desktop/GD32VW553/V1_MQTT_OK/GD32VW55X_Wifi_BLE_SDK/GD32VW55x_RELEASE_V1.0.2/MSDK/wpa_supplicant/src/ap\hw_features.c **** 				dfs = 1;
 122:C:/Users/stapi/OneDrive/Desktop/GD32VW553/V1_MQTT_OK/GD32VW55X_Wifi_BLE_SDK/GD32VW55x_RELEASE_V1.0.2/MSDK/wpa_supplicant/src/ap\hw_features.c **** 			} else if (((feature->channels[j].flag &
 123:C:/Users/stapi/OneDrive/Desktop/GD32VW553/V1_MQTT_OK/GD32VW55X_Wifi_BLE_SDK/GD32VW55x_RELEASE_V1.0.2/MSDK/wpa_supplicant/src/ap\hw_features.c **** 				     HOSTAPD_CHAN_RADAR) &&
 124:C:/Users/stapi/OneDrive/Desktop/GD32VW553/V1_MQTT_OK/GD32VW55X_Wifi_BLE_SDK/GD32VW55x_RELEASE_V1.0.2/MSDK/wpa_supplicant/src/ap\hw_features.c **** 				    !(iface->drv_flags &
 125:C:/Users/stapi/OneDrive/Desktop/GD32VW553/V1_MQTT_OK/GD32VW55X_Wifi_BLE_SDK/GD32VW55x_RELEASE_V1.0.2/MSDK/wpa_supplicant/src/ap\hw_features.c **** 				      WPA_DRIVER_FLAGS_DFS_OFFLOAD)) ||
 126:C:/Users/stapi/OneDrive/Desktop/GD32VW553/V1_MQTT_OK/GD32VW55X_Wifi_BLE_SDK/GD32VW55x_RELEASE_V1.0.2/MSDK/wpa_supplicant/src/ap\hw_features.c **** 				   (feature->channels[j].flag &
 127:C:/Users/stapi/OneDrive/Desktop/GD32VW553/V1_MQTT_OK/GD32VW55X_Wifi_BLE_SDK/GD32VW55x_RELEASE_V1.0.2/MSDK/wpa_supplicant/src/ap\hw_features.c **** 				    HOSTAPD_CHAN_NO_IR)) {
 128:C:/Users/stapi/OneDrive/Desktop/GD32VW553/V1_MQTT_OK/GD32VW55X_Wifi_BLE_SDK/GD32VW55x_RELEASE_V1.0.2/MSDK/wpa_supplicant/src/ap\hw_features.c **** 				feature->channels[j].flag |=
 129:C:/Users/stapi/OneDrive/Desktop/GD32VW553/V1_MQTT_OK/GD32VW55X_Wifi_BLE_SDK/GD32VW55x_RELEASE_V1.0.2/MSDK/wpa_supplicant/src/ap\hw_features.c **** 					HOSTAPD_CHAN_DISABLED;
 130:C:/Users/stapi/OneDrive/Desktop/GD32VW553/V1_MQTT_OK/GD32VW55X_Wifi_BLE_SDK/GD32VW55x_RELEASE_V1.0.2/MSDK/wpa_supplicant/src/ap\hw_features.c **** 			}
 131:C:/Users/stapi/OneDrive/Desktop/GD32VW553/V1_MQTT_OK/GD32VW55X_Wifi_BLE_SDK/GD32VW55x_RELEASE_V1.0.2/MSDK/wpa_supplicant/src/ap\hw_features.c **** 
 132:C:/Users/stapi/OneDrive/Desktop/GD32VW553/V1_MQTT_OK/GD32VW55X_Wifi_BLE_SDK/GD32VW55x_RELEASE_V1.0.2/MSDK/wpa_supplicant/src/ap\hw_features.c **** 			if (feature->channels[j].flag & HOSTAPD_CHAN_DISABLED)
 133:C:/Users/stapi/OneDrive/Desktop/GD32VW553/V1_MQTT_OK/GD32VW55X_Wifi_BLE_SDK/GD32VW55x_RELEASE_V1.0.2/MSDK/wpa_supplicant/src/ap\hw_features.c **** 				continue;
 134:C:/Users/stapi/OneDrive/Desktop/GD32VW553/V1_MQTT_OK/GD32VW55X_Wifi_BLE_SDK/GD32VW55x_RELEASE_V1.0.2/MSDK/wpa_supplicant/src/ap\hw_features.c **** 
 135:C:/Users/stapi/OneDrive/Desktop/GD32VW553/V1_MQTT_OK/GD32VW55X_Wifi_BLE_SDK/GD32VW55x_RELEASE_V1.0.2/MSDK/wpa_supplicant/src/ap\hw_features.c **** 			wpa_printf(MSG_MSGDUMP, "Allowed channel: mode=%d "
 136:C:/Users/stapi/OneDrive/Desktop/GD32VW553/V1_MQTT_OK/GD32VW55X_Wifi_BLE_SDK/GD32VW55x_RELEASE_V1.0.2/MSDK/wpa_supplicant/src/ap\hw_features.c **** 				   "chan=%d freq=%d MHz max_tx_power=%d dBm%s",
 137:C:/Users/stapi/OneDrive/Desktop/GD32VW553/V1_MQTT_OK/GD32VW55X_Wifi_BLE_SDK/GD32VW55x_RELEASE_V1.0.2/MSDK/wpa_supplicant/src/ap\hw_features.c **** 				   feature->mode,
 138:C:/Users/stapi/OneDrive/Desktop/GD32VW553/V1_MQTT_OK/GD32VW55X_Wifi_BLE_SDK/GD32VW55x_RELEASE_V1.0.2/MSDK/wpa_supplicant/src/ap\hw_features.c **** 				   feature->channels[j].chan,
 139:C:/Users/stapi/OneDrive/Desktop/GD32VW553/V1_MQTT_OK/GD32VW55X_Wifi_BLE_SDK/GD32VW55x_RELEASE_V1.0.2/MSDK/wpa_supplicant/src/ap\hw_features.c **** 				   feature->channels[j].freq,
 140:C:/Users/stapi/OneDrive/Desktop/GD32VW553/V1_MQTT_OK/GD32VW55X_Wifi_BLE_SDK/GD32VW55x_RELEASE_V1.0.2/MSDK/wpa_supplicant/src/ap\hw_features.c **** 				   feature->channels[j].max_tx_power,
 141:C:/Users/stapi/OneDrive/Desktop/GD32VW553/V1_MQTT_OK/GD32VW55X_Wifi_BLE_SDK/GD32VW55x_RELEASE_V1.0.2/MSDK/wpa_supplicant/src/ap\hw_features.c **** 				   dfs ? dfs_info(&feature->channels[j]) : "");
 142:C:/Users/stapi/OneDrive/Desktop/GD32VW553/V1_MQTT_OK/GD32VW55X_Wifi_BLE_SDK/GD32VW55x_RELEASE_V1.0.2/MSDK/wpa_supplicant/src/ap\hw_features.c **** 		}
 143:C:/Users/stapi/OneDrive/Desktop/GD32VW553/V1_MQTT_OK/GD32VW55X_Wifi_BLE_SDK/GD32VW55x_RELEASE_V1.0.2/MSDK/wpa_supplicant/src/ap\hw_features.c **** 	}
 144:C:/Users/stapi/OneDrive/Desktop/GD32VW553/V1_MQTT_OK/GD32VW55X_Wifi_BLE_SDK/GD32VW55x_RELEASE_V1.0.2/MSDK/wpa_supplicant/src/ap\hw_features.c **** 
 145:C:/Users/stapi/OneDrive/Desktop/GD32VW553/V1_MQTT_OK/GD32VW55X_Wifi_BLE_SDK/GD32VW55x_RELEASE_V1.0.2/MSDK/wpa_supplicant/src/ap\hw_features.c **** 	return 0;
 146:C:/Users/stapi/OneDrive/Desktop/GD32VW553/V1_MQTT_OK/GD32VW55X_Wifi_BLE_SDK/GD32VW55x_RELEASE_V1.0.2/MSDK/wpa_supplicant/src/ap\hw_features.c **** }
 147:C:/Users/stapi/OneDrive/Desktop/GD32VW553/V1_MQTT_OK/GD32VW55X_Wifi_BLE_SDK/GD32VW55x_RELEASE_V1.0.2/MSDK/wpa_supplicant/src/ap\hw_features.c **** 
 148:C:/Users/stapi/OneDrive/Desktop/GD32VW553/V1_MQTT_OK/GD32VW55X_Wifi_BLE_SDK/GD32VW55x_RELEASE_V1.0.2/MSDK/wpa_supplicant/src/ap\hw_features.c **** 
 149:C:/Users/stapi/OneDrive/Desktop/GD32VW553/V1_MQTT_OK/GD32VW55X_Wifi_BLE_SDK/GD32VW55x_RELEASE_V1.0.2/MSDK/wpa_supplicant/src/ap\hw_features.c **** int hostapd_prepare_rates(struct hostapd_iface *iface,
 150:C:/Users/stapi/OneDrive/Desktop/GD32VW553/V1_MQTT_OK/GD32VW55X_Wifi_BLE_SDK/GD32VW55x_RELEASE_V1.0.2/MSDK/wpa_supplicant/src/ap\hw_features.c **** 			  struct hostapd_hw_modes *mode)
 151:C:/Users/stapi/OneDrive/Desktop/GD32VW553/V1_MQTT_OK/GD32VW55X_Wifi_BLE_SDK/GD32VW55x_RELEASE_V1.0.2/MSDK/wpa_supplicant/src/ap\hw_features.c **** {
 152:C:/Users/stapi/OneDrive/Desktop/GD32VW553/V1_MQTT_OK/GD32VW55X_Wifi_BLE_SDK/GD32VW55x_RELEASE_V1.0.2/MSDK/wpa_supplicant/src/ap\hw_features.c **** 	int i, num_basic_rates = 0;
 153:C:/Users/stapi/OneDrive/Desktop/GD32VW553/V1_MQTT_OK/GD32VW55X_Wifi_BLE_SDK/GD32VW55x_RELEASE_V1.0.2/MSDK/wpa_supplicant/src/ap\hw_features.c **** 	int basic_rates_a[] = { 60, 120, 240, -1 };
 154:C:/Users/stapi/OneDrive/Desktop/GD32VW553/V1_MQTT_OK/GD32VW55X_Wifi_BLE_SDK/GD32VW55x_RELEASE_V1.0.2/MSDK/wpa_supplicant/src/ap\hw_features.c **** 	int basic_rates_b[] = { 10, 20, -1 };
 155:C:/Users/stapi/OneDrive/Desktop/GD32VW553/V1_MQTT_OK/GD32VW55X_Wifi_BLE_SDK/GD32VW55x_RELEASE_V1.0.2/MSDK/wpa_supplicant/src/ap\hw_features.c **** 	int basic_rates_g[] = { 10, 20, 55, 110, -1 };
 156:C:/Users/stapi/OneDrive/Desktop/GD32VW553/V1_MQTT_OK/GD32VW55X_Wifi_BLE_SDK/GD32VW55x_RELEASE_V1.0.2/MSDK/wpa_supplicant/src/ap\hw_features.c **** 	int *basic_rates;
 157:C:/Users/stapi/OneDrive/Desktop/GD32VW553/V1_MQTT_OK/GD32VW55X_Wifi_BLE_SDK/GD32VW55x_RELEASE_V1.0.2/MSDK/wpa_supplicant/src/ap\hw_features.c **** 
 158:C:/Users/stapi/OneDrive/Desktop/GD32VW553/V1_MQTT_OK/GD32VW55X_Wifi_BLE_SDK/GD32VW55x_RELEASE_V1.0.2/MSDK/wpa_supplicant/src/ap\hw_features.c **** 	if (iface->conf->basic_rates)
 159:C:/Users/stapi/OneDrive/Desktop/GD32VW553/V1_MQTT_OK/GD32VW55X_Wifi_BLE_SDK/GD32VW55x_RELEASE_V1.0.2/MSDK/wpa_supplicant/src/ap\hw_features.c **** 		basic_rates = iface->conf->basic_rates;
 160:C:/Users/stapi/OneDrive/Desktop/GD32VW553/V1_MQTT_OK/GD32VW55X_Wifi_BLE_SDK/GD32VW55x_RELEASE_V1.0.2/MSDK/wpa_supplicant/src/ap\hw_features.c **** 	else switch (mode->mode) {
 161:C:/Users/stapi/OneDrive/Desktop/GD32VW553/V1_MQTT_OK/GD32VW55X_Wifi_BLE_SDK/GD32VW55x_RELEASE_V1.0.2/MSDK/wpa_supplicant/src/ap\hw_features.c **** 	case HOSTAPD_MODE_IEEE80211A:
 162:C:/Users/stapi/OneDrive/Desktop/GD32VW553/V1_MQTT_OK/GD32VW55X_Wifi_BLE_SDK/GD32VW55x_RELEASE_V1.0.2/MSDK/wpa_supplicant/src/ap\hw_features.c **** 		basic_rates = basic_rates_a;
 163:C:/Users/stapi/OneDrive/Desktop/GD32VW553/V1_MQTT_OK/GD32VW55X_Wifi_BLE_SDK/GD32VW55x_RELEASE_V1.0.2/MSDK/wpa_supplicant/src/ap\hw_features.c **** 		break;
 164:C:/Users/stapi/OneDrive/Desktop/GD32VW553/V1_MQTT_OK/GD32VW55X_Wifi_BLE_SDK/GD32VW55x_RELEASE_V1.0.2/MSDK/wpa_supplicant/src/ap\hw_features.c **** 	case HOSTAPD_MODE_IEEE80211B:
 165:C:/Users/stapi/OneDrive/Desktop/GD32VW553/V1_MQTT_OK/GD32VW55X_Wifi_BLE_SDK/GD32VW55x_RELEASE_V1.0.2/MSDK/wpa_supplicant/src/ap\hw_features.c **** 		basic_rates = basic_rates_b;
 166:C:/Users/stapi/OneDrive/Desktop/GD32VW553/V1_MQTT_OK/GD32VW55X_Wifi_BLE_SDK/GD32VW55x_RELEASE_V1.0.2/MSDK/wpa_supplicant/src/ap\hw_features.c **** 		break;
 167:C:/Users/stapi/OneDrive/Desktop/GD32VW553/V1_MQTT_OK/GD32VW55X_Wifi_BLE_SDK/GD32VW55x_RELEASE_V1.0.2/MSDK/wpa_supplicant/src/ap\hw_features.c **** 	case HOSTAPD_MODE_IEEE80211G:
 168:C:/Users/stapi/OneDrive/Desktop/GD32VW553/V1_MQTT_OK/GD32VW55X_Wifi_BLE_SDK/GD32VW55x_RELEASE_V1.0.2/MSDK/wpa_supplicant/src/ap\hw_features.c **** 		basic_rates = basic_rates_g;
 169:C:/Users/stapi/OneDrive/Desktop/GD32VW553/V1_MQTT_OK/GD32VW55X_Wifi_BLE_SDK/GD32VW55x_RELEASE_V1.0.2/MSDK/wpa_supplicant/src/ap\hw_features.c **** 		break;
 170:C:/Users/stapi/OneDrive/Desktop/GD32VW553/V1_MQTT_OK/GD32VW55X_Wifi_BLE_SDK/GD32VW55x_RELEASE_V1.0.2/MSDK/wpa_supplicant/src/ap\hw_features.c **** 	case HOSTAPD_MODE_IEEE80211AD:
 171:C:/Users/stapi/OneDrive/Desktop/GD32VW553/V1_MQTT_OK/GD32VW55X_Wifi_BLE_SDK/GD32VW55x_RELEASE_V1.0.2/MSDK/wpa_supplicant/src/ap\hw_features.c **** 		return 0; /* No basic rates for 11ad */
 172:C:/Users/stapi/OneDrive/Desktop/GD32VW553/V1_MQTT_OK/GD32VW55X_Wifi_BLE_SDK/GD32VW55x_RELEASE_V1.0.2/MSDK/wpa_supplicant/src/ap\hw_features.c **** 	default:
 173:C:/Users/stapi/OneDrive/Desktop/GD32VW553/V1_MQTT_OK/GD32VW55X_Wifi_BLE_SDK/GD32VW55x_RELEASE_V1.0.2/MSDK/wpa_supplicant/src/ap\hw_features.c **** 		return -1;
 174:C:/Users/stapi/OneDrive/Desktop/GD32VW553/V1_MQTT_OK/GD32VW55X_Wifi_BLE_SDK/GD32VW55x_RELEASE_V1.0.2/MSDK/wpa_supplicant/src/ap\hw_features.c **** 	}
 175:C:/Users/stapi/OneDrive/Desktop/GD32VW553/V1_MQTT_OK/GD32VW55X_Wifi_BLE_SDK/GD32VW55x_RELEASE_V1.0.2/MSDK/wpa_supplicant/src/ap\hw_features.c **** 
 176:C:/Users/stapi/OneDrive/Desktop/GD32VW553/V1_MQTT_OK/GD32VW55X_Wifi_BLE_SDK/GD32VW55x_RELEASE_V1.0.2/MSDK/wpa_supplicant/src/ap\hw_features.c **** 	i = 0;
 177:C:/Users/stapi/OneDrive/Desktop/GD32VW553/V1_MQTT_OK/GD32VW55X_Wifi_BLE_SDK/GD32VW55x_RELEASE_V1.0.2/MSDK/wpa_supplicant/src/ap\hw_features.c **** 	while (basic_rates[i] >= 0)
 178:C:/Users/stapi/OneDrive/Desktop/GD32VW553/V1_MQTT_OK/GD32VW55X_Wifi_BLE_SDK/GD32VW55x_RELEASE_V1.0.2/MSDK/wpa_supplicant/src/ap\hw_features.c **** 		i++;
 179:C:/Users/stapi/OneDrive/Desktop/GD32VW553/V1_MQTT_OK/GD32VW55X_Wifi_BLE_SDK/GD32VW55x_RELEASE_V1.0.2/MSDK/wpa_supplicant/src/ap\hw_features.c **** 	if (i)
 180:C:/Users/stapi/OneDrive/Desktop/GD32VW553/V1_MQTT_OK/GD32VW55X_Wifi_BLE_SDK/GD32VW55x_RELEASE_V1.0.2/MSDK/wpa_supplicant/src/ap\hw_features.c **** 		i++; /* -1 termination */
 181:C:/Users/stapi/OneDrive/Desktop/GD32VW553/V1_MQTT_OK/GD32VW55X_Wifi_BLE_SDK/GD32VW55x_RELEASE_V1.0.2/MSDK/wpa_supplicant/src/ap\hw_features.c **** 	os_free(iface->basic_rates);
 182:C:/Users/stapi/OneDrive/Desktop/GD32VW553/V1_MQTT_OK/GD32VW55X_Wifi_BLE_SDK/GD32VW55x_RELEASE_V1.0.2/MSDK/wpa_supplicant/src/ap\hw_features.c **** 	iface->basic_rates = os_malloc(i * sizeof(int));
 183:C:/Users/stapi/OneDrive/Desktop/GD32VW553/V1_MQTT_OK/GD32VW55X_Wifi_BLE_SDK/GD32VW55x_RELEASE_V1.0.2/MSDK/wpa_supplicant/src/ap\hw_features.c **** 	if (iface->basic_rates)
 184:C:/Users/stapi/OneDrive/Desktop/GD32VW553/V1_MQTT_OK/GD32VW55X_Wifi_BLE_SDK/GD32VW55x_RELEASE_V1.0.2/MSDK/wpa_supplicant/src/ap\hw_features.c **** 		os_memcpy(iface->basic_rates, basic_rates, i * sizeof(int));
 185:C:/Users/stapi/OneDrive/Desktop/GD32VW553/V1_MQTT_OK/GD32VW55X_Wifi_BLE_SDK/GD32VW55x_RELEASE_V1.0.2/MSDK/wpa_supplicant/src/ap\hw_features.c **** 
 186:C:/Users/stapi/OneDrive/Desktop/GD32VW553/V1_MQTT_OK/GD32VW55X_Wifi_BLE_SDK/GD32VW55x_RELEASE_V1.0.2/MSDK/wpa_supplicant/src/ap\hw_features.c **** 	os_free(iface->current_rates);
 187:C:/Users/stapi/OneDrive/Desktop/GD32VW553/V1_MQTT_OK/GD32VW55X_Wifi_BLE_SDK/GD32VW55x_RELEASE_V1.0.2/MSDK/wpa_supplicant/src/ap\hw_features.c **** 	iface->num_rates = 0;
 188:C:/Users/stapi/OneDrive/Desktop/GD32VW553/V1_MQTT_OK/GD32VW55X_Wifi_BLE_SDK/GD32VW55x_RELEASE_V1.0.2/MSDK/wpa_supplicant/src/ap\hw_features.c **** 
 189:C:/Users/stapi/OneDrive/Desktop/GD32VW553/V1_MQTT_OK/GD32VW55X_Wifi_BLE_SDK/GD32VW55x_RELEASE_V1.0.2/MSDK/wpa_supplicant/src/ap\hw_features.c **** 	iface->current_rates =
 190:C:/Users/stapi/OneDrive/Desktop/GD32VW553/V1_MQTT_OK/GD32VW55X_Wifi_BLE_SDK/GD32VW55x_RELEASE_V1.0.2/MSDK/wpa_supplicant/src/ap\hw_features.c **** 		os_calloc(mode->num_rates, sizeof(struct hostapd_rate_data));
 191:C:/Users/stapi/OneDrive/Desktop/GD32VW553/V1_MQTT_OK/GD32VW55X_Wifi_BLE_SDK/GD32VW55x_RELEASE_V1.0.2/MSDK/wpa_supplicant/src/ap\hw_features.c **** 	if (!iface->current_rates) {
 192:C:/Users/stapi/OneDrive/Desktop/GD32VW553/V1_MQTT_OK/GD32VW55X_Wifi_BLE_SDK/GD32VW55x_RELEASE_V1.0.2/MSDK/wpa_supplicant/src/ap\hw_features.c **** 		wpa_printf(MSG_ERROR, "Failed to allocate memory for rate "
 193:C:/Users/stapi/OneDrive/Desktop/GD32VW553/V1_MQTT_OK/GD32VW55X_Wifi_BLE_SDK/GD32VW55x_RELEASE_V1.0.2/MSDK/wpa_supplicant/src/ap\hw_features.c **** 			   "table.");
 194:C:/Users/stapi/OneDrive/Desktop/GD32VW553/V1_MQTT_OK/GD32VW55X_Wifi_BLE_SDK/GD32VW55x_RELEASE_V1.0.2/MSDK/wpa_supplicant/src/ap\hw_features.c **** 		return -1;
 195:C:/Users/stapi/OneDrive/Desktop/GD32VW553/V1_MQTT_OK/GD32VW55X_Wifi_BLE_SDK/GD32VW55x_RELEASE_V1.0.2/MSDK/wpa_supplicant/src/ap\hw_features.c **** 	}
 196:C:/Users/stapi/OneDrive/Desktop/GD32VW553/V1_MQTT_OK/GD32VW55X_Wifi_BLE_SDK/GD32VW55x_RELEASE_V1.0.2/MSDK/wpa_supplicant/src/ap\hw_features.c **** 
 197:C:/Users/stapi/OneDrive/Desktop/GD32VW553/V1_MQTT_OK/GD32VW55X_Wifi_BLE_SDK/GD32VW55x_RELEASE_V1.0.2/MSDK/wpa_supplicant/src/ap\hw_features.c **** 	for (i = 0; i < mode->num_rates; i++) {
 198:C:/Users/stapi/OneDrive/Desktop/GD32VW553/V1_MQTT_OK/GD32VW55X_Wifi_BLE_SDK/GD32VW55x_RELEASE_V1.0.2/MSDK/wpa_supplicant/src/ap\hw_features.c **** 		struct hostapd_rate_data *rate;
 199:C:/Users/stapi/OneDrive/Desktop/GD32VW553/V1_MQTT_OK/GD32VW55X_Wifi_BLE_SDK/GD32VW55x_RELEASE_V1.0.2/MSDK/wpa_supplicant/src/ap\hw_features.c **** 
 200:C:/Users/stapi/OneDrive/Desktop/GD32VW553/V1_MQTT_OK/GD32VW55X_Wifi_BLE_SDK/GD32VW55x_RELEASE_V1.0.2/MSDK/wpa_supplicant/src/ap\hw_features.c **** 		if (iface->conf->supported_rates &&
 201:C:/Users/stapi/OneDrive/Desktop/GD32VW553/V1_MQTT_OK/GD32VW55X_Wifi_BLE_SDK/GD32VW55x_RELEASE_V1.0.2/MSDK/wpa_supplicant/src/ap\hw_features.c **** 		    !hostapd_rate_found(iface->conf->supported_rates,
 202:C:/Users/stapi/OneDrive/Desktop/GD32VW553/V1_MQTT_OK/GD32VW55X_Wifi_BLE_SDK/GD32VW55x_RELEASE_V1.0.2/MSDK/wpa_supplicant/src/ap\hw_features.c **** 					mode->rates[i]))
 203:C:/Users/stapi/OneDrive/Desktop/GD32VW553/V1_MQTT_OK/GD32VW55X_Wifi_BLE_SDK/GD32VW55x_RELEASE_V1.0.2/MSDK/wpa_supplicant/src/ap\hw_features.c **** 			continue;
 204:C:/Users/stapi/OneDrive/Desktop/GD32VW553/V1_MQTT_OK/GD32VW55X_Wifi_BLE_SDK/GD32VW55x_RELEASE_V1.0.2/MSDK/wpa_supplicant/src/ap\hw_features.c **** 
 205:C:/Users/stapi/OneDrive/Desktop/GD32VW553/V1_MQTT_OK/GD32VW55X_Wifi_BLE_SDK/GD32VW55x_RELEASE_V1.0.2/MSDK/wpa_supplicant/src/ap\hw_features.c **** 		rate = &iface->current_rates[iface->num_rates];
 206:C:/Users/stapi/OneDrive/Desktop/GD32VW553/V1_MQTT_OK/GD32VW55X_Wifi_BLE_SDK/GD32VW55x_RELEASE_V1.0.2/MSDK/wpa_supplicant/src/ap\hw_features.c **** 		rate->rate = mode->rates[i];
 207:C:/Users/stapi/OneDrive/Desktop/GD32VW553/V1_MQTT_OK/GD32VW55X_Wifi_BLE_SDK/GD32VW55x_RELEASE_V1.0.2/MSDK/wpa_supplicant/src/ap\hw_features.c **** 		if (hostapd_rate_found(basic_rates, rate->rate)) {
 208:C:/Users/stapi/OneDrive/Desktop/GD32VW553/V1_MQTT_OK/GD32VW55X_Wifi_BLE_SDK/GD32VW55x_RELEASE_V1.0.2/MSDK/wpa_supplicant/src/ap\hw_features.c **** 			rate->flags |= HOSTAPD_RATE_BASIC;
 209:C:/Users/stapi/OneDrive/Desktop/GD32VW553/V1_MQTT_OK/GD32VW55X_Wifi_BLE_SDK/GD32VW55x_RELEASE_V1.0.2/MSDK/wpa_supplicant/src/ap\hw_features.c **** 			num_basic_rates++;
 210:C:/Users/stapi/OneDrive/Desktop/GD32VW553/V1_MQTT_OK/GD32VW55X_Wifi_BLE_SDK/GD32VW55x_RELEASE_V1.0.2/MSDK/wpa_supplicant/src/ap\hw_features.c **** 		}
 211:C:/Users/stapi/OneDrive/Desktop/GD32VW553/V1_MQTT_OK/GD32VW55X_Wifi_BLE_SDK/GD32VW55x_RELEASE_V1.0.2/MSDK/wpa_supplicant/src/ap\hw_features.c **** 		wpa_printf(MSG_DEBUG, "RATE[%d] rate=%d flags=0x%x",
 212:C:/Users/stapi/OneDrive/Desktop/GD32VW553/V1_MQTT_OK/GD32VW55X_Wifi_BLE_SDK/GD32VW55x_RELEASE_V1.0.2/MSDK/wpa_supplicant/src/ap\hw_features.c **** 			   iface->num_rates, rate->rate, rate->flags);
 213:C:/Users/stapi/OneDrive/Desktop/GD32VW553/V1_MQTT_OK/GD32VW55X_Wifi_BLE_SDK/GD32VW55x_RELEASE_V1.0.2/MSDK/wpa_supplicant/src/ap\hw_features.c **** 		iface->num_rates++;
 214:C:/Users/stapi/OneDrive/Desktop/GD32VW553/V1_MQTT_OK/GD32VW55X_Wifi_BLE_SDK/GD32VW55x_RELEASE_V1.0.2/MSDK/wpa_supplicant/src/ap\hw_features.c **** 	}
 215:C:/Users/stapi/OneDrive/Desktop/GD32VW553/V1_MQTT_OK/GD32VW55X_Wifi_BLE_SDK/GD32VW55x_RELEASE_V1.0.2/MSDK/wpa_supplicant/src/ap\hw_features.c **** 
 216:C:/Users/stapi/OneDrive/Desktop/GD32VW553/V1_MQTT_OK/GD32VW55X_Wifi_BLE_SDK/GD32VW55x_RELEASE_V1.0.2/MSDK/wpa_supplicant/src/ap\hw_features.c **** 	if ((iface->num_rates == 0 || num_basic_rates == 0) &&
 217:C:/Users/stapi/OneDrive/Desktop/GD32VW553/V1_MQTT_OK/GD32VW55X_Wifi_BLE_SDK/GD32VW55x_RELEASE_V1.0.2/MSDK/wpa_supplicant/src/ap\hw_features.c **** 	    (!iface->conf->ieee80211n || !iface->conf->require_ht)) {
 218:C:/Users/stapi/OneDrive/Desktop/GD32VW553/V1_MQTT_OK/GD32VW55X_Wifi_BLE_SDK/GD32VW55x_RELEASE_V1.0.2/MSDK/wpa_supplicant/src/ap\hw_features.c **** 		wpa_printf(MSG_ERROR, "No rates remaining in supported/basic "
 219:C:/Users/stapi/OneDrive/Desktop/GD32VW553/V1_MQTT_OK/GD32VW55X_Wifi_BLE_SDK/GD32VW55x_RELEASE_V1.0.2/MSDK/wpa_supplicant/src/ap\hw_features.c **** 			   "rate sets (%d,%d).",
 220:C:/Users/stapi/OneDrive/Desktop/GD32VW553/V1_MQTT_OK/GD32VW55X_Wifi_BLE_SDK/GD32VW55x_RELEASE_V1.0.2/MSDK/wpa_supplicant/src/ap\hw_features.c **** 			   iface->num_rates, num_basic_rates);
 221:C:/Users/stapi/OneDrive/Desktop/GD32VW553/V1_MQTT_OK/GD32VW55X_Wifi_BLE_SDK/GD32VW55x_RELEASE_V1.0.2/MSDK/wpa_supplicant/src/ap\hw_features.c **** 		return -1;
 222:C:/Users/stapi/OneDrive/Desktop/GD32VW553/V1_MQTT_OK/GD32VW55X_Wifi_BLE_SDK/GD32VW55x_RELEASE_V1.0.2/MSDK/wpa_supplicant/src/ap\hw_features.c **** 	}
 223:C:/Users/stapi/OneDrive/Desktop/GD32VW553/V1_MQTT_OK/GD32VW55X_Wifi_BLE_SDK/GD32VW55x_RELEASE_V1.0.2/MSDK/wpa_supplicant/src/ap\hw_features.c **** 
 224:C:/Users/stapi/OneDrive/Desktop/GD32VW553/V1_MQTT_OK/GD32VW55X_Wifi_BLE_SDK/GD32VW55x_RELEASE_V1.0.2/MSDK/wpa_supplicant/src/ap\hw_features.c **** 	return 0;
 225:C:/Users/stapi/OneDrive/Desktop/GD32VW553/V1_MQTT_OK/GD32VW55X_Wifi_BLE_SDK/GD32VW55x_RELEASE_V1.0.2/MSDK/wpa_supplicant/src/ap\hw_features.c **** }
 226:C:/Users/stapi/OneDrive/Desktop/GD32VW553/V1_MQTT_OK/GD32VW55X_Wifi_BLE_SDK/GD32VW55x_RELEASE_V1.0.2/MSDK/wpa_supplicant/src/ap\hw_features.c **** 
 227:C:/Users/stapi/OneDrive/Desktop/GD32VW553/V1_MQTT_OK/GD32VW55X_Wifi_BLE_SDK/GD32VW55x_RELEASE_V1.0.2/MSDK/wpa_supplicant/src/ap\hw_features.c **** 
 228:C:/Users/stapi/OneDrive/Desktop/GD32VW553/V1_MQTT_OK/GD32VW55X_Wifi_BLE_SDK/GD32VW55x_RELEASE_V1.0.2/MSDK/wpa_supplicant/src/ap\hw_features.c **** static int ieee80211n_allowed_ht40_channel_pair(struct hostapd_iface *iface)
 229:C:/Users/stapi/OneDrive/Desktop/GD32VW553/V1_MQTT_OK/GD32VW55X_Wifi_BLE_SDK/GD32VW55x_RELEASE_V1.0.2/MSDK/wpa_supplicant/src/ap\hw_features.c **** {
 230:C:/Users/stapi/OneDrive/Desktop/GD32VW553/V1_MQTT_OK/GD32VW55X_Wifi_BLE_SDK/GD32VW55x_RELEASE_V1.0.2/MSDK/wpa_supplicant/src/ap\hw_features.c **** 	int pri_freq, sec_freq;
 231:C:/Users/stapi/OneDrive/Desktop/GD32VW553/V1_MQTT_OK/GD32VW55X_Wifi_BLE_SDK/GD32VW55x_RELEASE_V1.0.2/MSDK/wpa_supplicant/src/ap\hw_features.c **** 	struct hostapd_channel_data *p_chan, *s_chan;
 232:C:/Users/stapi/OneDrive/Desktop/GD32VW553/V1_MQTT_OK/GD32VW55X_Wifi_BLE_SDK/GD32VW55x_RELEASE_V1.0.2/MSDK/wpa_supplicant/src/ap\hw_features.c **** 
 233:C:/Users/stapi/OneDrive/Desktop/GD32VW553/V1_MQTT_OK/GD32VW55X_Wifi_BLE_SDK/GD32VW55x_RELEASE_V1.0.2/MSDK/wpa_supplicant/src/ap\hw_features.c **** 	pri_freq = iface->freq;
 234:C:/Users/stapi/OneDrive/Desktop/GD32VW553/V1_MQTT_OK/GD32VW55X_Wifi_BLE_SDK/GD32VW55x_RELEASE_V1.0.2/MSDK/wpa_supplicant/src/ap\hw_features.c **** 	sec_freq = pri_freq + iface->conf->secondary_channel * 20;
 235:C:/Users/stapi/OneDrive/Desktop/GD32VW553/V1_MQTT_OK/GD32VW55X_Wifi_BLE_SDK/GD32VW55x_RELEASE_V1.0.2/MSDK/wpa_supplicant/src/ap\hw_features.c **** 
 236:C:/Users/stapi/OneDrive/Desktop/GD32VW553/V1_MQTT_OK/GD32VW55X_Wifi_BLE_SDK/GD32VW55x_RELEASE_V1.0.2/MSDK/wpa_supplicant/src/ap\hw_features.c **** 	if (!iface->current_mode)
 237:C:/Users/stapi/OneDrive/Desktop/GD32VW553/V1_MQTT_OK/GD32VW55X_Wifi_BLE_SDK/GD32VW55x_RELEASE_V1.0.2/MSDK/wpa_supplicant/src/ap\hw_features.c **** 		return 0;
 238:C:/Users/stapi/OneDrive/Desktop/GD32VW553/V1_MQTT_OK/GD32VW55X_Wifi_BLE_SDK/GD32VW55x_RELEASE_V1.0.2/MSDK/wpa_supplicant/src/ap\hw_features.c **** 
 239:C:/Users/stapi/OneDrive/Desktop/GD32VW553/V1_MQTT_OK/GD32VW55X_Wifi_BLE_SDK/GD32VW55x_RELEASE_V1.0.2/MSDK/wpa_supplicant/src/ap\hw_features.c **** 	p_chan = hw_get_channel_freq(iface->current_mode->mode, pri_freq, NULL,
 240:C:/Users/stapi/OneDrive/Desktop/GD32VW553/V1_MQTT_OK/GD32VW55X_Wifi_BLE_SDK/GD32VW55x_RELEASE_V1.0.2/MSDK/wpa_supplicant/src/ap\hw_features.c **** 				     iface->hw_features,
 241:C:/Users/stapi/OneDrive/Desktop/GD32VW553/V1_MQTT_OK/GD32VW55X_Wifi_BLE_SDK/GD32VW55x_RELEASE_V1.0.2/MSDK/wpa_supplicant/src/ap\hw_features.c **** 				     iface->num_hw_features);
 242:C:/Users/stapi/OneDrive/Desktop/GD32VW553/V1_MQTT_OK/GD32VW55X_Wifi_BLE_SDK/GD32VW55x_RELEASE_V1.0.2/MSDK/wpa_supplicant/src/ap\hw_features.c **** 
 243:C:/Users/stapi/OneDrive/Desktop/GD32VW553/V1_MQTT_OK/GD32VW55X_Wifi_BLE_SDK/GD32VW55x_RELEASE_V1.0.2/MSDK/wpa_supplicant/src/ap\hw_features.c **** 	s_chan = hw_get_channel_freq(iface->current_mode->mode, sec_freq, NULL,
 244:C:/Users/stapi/OneDrive/Desktop/GD32VW553/V1_MQTT_OK/GD32VW55X_Wifi_BLE_SDK/GD32VW55x_RELEASE_V1.0.2/MSDK/wpa_supplicant/src/ap\hw_features.c **** 				     iface->hw_features,
 245:C:/Users/stapi/OneDrive/Desktop/GD32VW553/V1_MQTT_OK/GD32VW55X_Wifi_BLE_SDK/GD32VW55x_RELEASE_V1.0.2/MSDK/wpa_supplicant/src/ap\hw_features.c **** 				     iface->num_hw_features);
 246:C:/Users/stapi/OneDrive/Desktop/GD32VW553/V1_MQTT_OK/GD32VW55X_Wifi_BLE_SDK/GD32VW55x_RELEASE_V1.0.2/MSDK/wpa_supplicant/src/ap\hw_features.c **** 
 247:C:/Users/stapi/OneDrive/Desktop/GD32VW553/V1_MQTT_OK/GD32VW55X_Wifi_BLE_SDK/GD32VW55x_RELEASE_V1.0.2/MSDK/wpa_supplicant/src/ap\hw_features.c **** 	return allowed_ht40_channel_pair(iface->current_mode->mode,
 248:C:/Users/stapi/OneDrive/Desktop/GD32VW553/V1_MQTT_OK/GD32VW55X_Wifi_BLE_SDK/GD32VW55x_RELEASE_V1.0.2/MSDK/wpa_supplicant/src/ap\hw_features.c **** 					 p_chan, s_chan);
 249:C:/Users/stapi/OneDrive/Desktop/GD32VW553/V1_MQTT_OK/GD32VW55X_Wifi_BLE_SDK/GD32VW55x_RELEASE_V1.0.2/MSDK/wpa_supplicant/src/ap\hw_features.c **** }
 250:C:/Users/stapi/OneDrive/Desktop/GD32VW553/V1_MQTT_OK/GD32VW55X_Wifi_BLE_SDK/GD32VW55x_RELEASE_V1.0.2/MSDK/wpa_supplicant/src/ap\hw_features.c **** 
 251:C:/Users/stapi/OneDrive/Desktop/GD32VW553/V1_MQTT_OK/GD32VW55X_Wifi_BLE_SDK/GD32VW55x_RELEASE_V1.0.2/MSDK/wpa_supplicant/src/ap\hw_features.c **** 
 252:C:/Users/stapi/OneDrive/Desktop/GD32VW553/V1_MQTT_OK/GD32VW55X_Wifi_BLE_SDK/GD32VW55x_RELEASE_V1.0.2/MSDK/wpa_supplicant/src/ap\hw_features.c **** static void ieee80211n_switch_pri_sec(struct hostapd_iface *iface)
 253:C:/Users/stapi/OneDrive/Desktop/GD32VW553/V1_MQTT_OK/GD32VW55X_Wifi_BLE_SDK/GD32VW55x_RELEASE_V1.0.2/MSDK/wpa_supplicant/src/ap\hw_features.c **** {
 254:C:/Users/stapi/OneDrive/Desktop/GD32VW553/V1_MQTT_OK/GD32VW55X_Wifi_BLE_SDK/GD32VW55x_RELEASE_V1.0.2/MSDK/wpa_supplicant/src/ap\hw_features.c **** 	if (iface->conf->secondary_channel > 0) {
 255:C:/Users/stapi/OneDrive/Desktop/GD32VW553/V1_MQTT_OK/GD32VW55X_Wifi_BLE_SDK/GD32VW55x_RELEASE_V1.0.2/MSDK/wpa_supplicant/src/ap\hw_features.c **** 		iface->conf->channel += 4;
 256:C:/Users/stapi/OneDrive/Desktop/GD32VW553/V1_MQTT_OK/GD32VW55X_Wifi_BLE_SDK/GD32VW55x_RELEASE_V1.0.2/MSDK/wpa_supplicant/src/ap\hw_features.c **** 		iface->freq += 20;
 257:C:/Users/stapi/OneDrive/Desktop/GD32VW553/V1_MQTT_OK/GD32VW55X_Wifi_BLE_SDK/GD32VW55x_RELEASE_V1.0.2/MSDK/wpa_supplicant/src/ap\hw_features.c **** 		iface->conf->secondary_channel = -1;
 258:C:/Users/stapi/OneDrive/Desktop/GD32VW553/V1_MQTT_OK/GD32VW55X_Wifi_BLE_SDK/GD32VW55x_RELEASE_V1.0.2/MSDK/wpa_supplicant/src/ap\hw_features.c **** 	} else {
 259:C:/Users/stapi/OneDrive/Desktop/GD32VW553/V1_MQTT_OK/GD32VW55X_Wifi_BLE_SDK/GD32VW55x_RELEASE_V1.0.2/MSDK/wpa_supplicant/src/ap\hw_features.c **** 		iface->conf->channel -= 4;
 260:C:/Users/stapi/OneDrive/Desktop/GD32VW553/V1_MQTT_OK/GD32VW55X_Wifi_BLE_SDK/GD32VW55x_RELEASE_V1.0.2/MSDK/wpa_supplicant/src/ap\hw_features.c **** 		iface->freq -= 20;
 261:C:/Users/stapi/OneDrive/Desktop/GD32VW553/V1_MQTT_OK/GD32VW55X_Wifi_BLE_SDK/GD32VW55x_RELEASE_V1.0.2/MSDK/wpa_supplicant/src/ap\hw_features.c **** 		iface->conf->secondary_channel = 1;
 262:C:/Users/stapi/OneDrive/Desktop/GD32VW553/V1_MQTT_OK/GD32VW55X_Wifi_BLE_SDK/GD32VW55x_RELEASE_V1.0.2/MSDK/wpa_supplicant/src/ap\hw_features.c **** 	}
 263:C:/Users/stapi/OneDrive/Desktop/GD32VW553/V1_MQTT_OK/GD32VW55X_Wifi_BLE_SDK/GD32VW55x_RELEASE_V1.0.2/MSDK/wpa_supplicant/src/ap\hw_features.c **** }
 264:C:/Users/stapi/OneDrive/Desktop/GD32VW553/V1_MQTT_OK/GD32VW55X_Wifi_BLE_SDK/GD32VW55x_RELEASE_V1.0.2/MSDK/wpa_supplicant/src/ap\hw_features.c **** 
 265:C:/Users/stapi/OneDrive/Desktop/GD32VW553/V1_MQTT_OK/GD32VW55X_Wifi_BLE_SDK/GD32VW55x_RELEASE_V1.0.2/MSDK/wpa_supplicant/src/ap\hw_features.c **** 
 266:C:/Users/stapi/OneDrive/Desktop/GD32VW553/V1_MQTT_OK/GD32VW55X_Wifi_BLE_SDK/GD32VW55x_RELEASE_V1.0.2/MSDK/wpa_supplicant/src/ap\hw_features.c **** static int ieee80211n_check_40mhz_5g(struct hostapd_iface *iface,
 267:C:/Users/stapi/OneDrive/Desktop/GD32VW553/V1_MQTT_OK/GD32VW55X_Wifi_BLE_SDK/GD32VW55x_RELEASE_V1.0.2/MSDK/wpa_supplicant/src/ap\hw_features.c **** 				     struct wpa_scan_results *scan_res)
 268:C:/Users/stapi/OneDrive/Desktop/GD32VW553/V1_MQTT_OK/GD32VW55X_Wifi_BLE_SDK/GD32VW55x_RELEASE_V1.0.2/MSDK/wpa_supplicant/src/ap\hw_features.c **** {
 269:C:/Users/stapi/OneDrive/Desktop/GD32VW553/V1_MQTT_OK/GD32VW55X_Wifi_BLE_SDK/GD32VW55x_RELEASE_V1.0.2/MSDK/wpa_supplicant/src/ap\hw_features.c **** 	unsigned int pri_freq, sec_freq;
 270:C:/Users/stapi/OneDrive/Desktop/GD32VW553/V1_MQTT_OK/GD32VW55X_Wifi_BLE_SDK/GD32VW55x_RELEASE_V1.0.2/MSDK/wpa_supplicant/src/ap\hw_features.c **** 	int res;
 271:C:/Users/stapi/OneDrive/Desktop/GD32VW553/V1_MQTT_OK/GD32VW55X_Wifi_BLE_SDK/GD32VW55x_RELEASE_V1.0.2/MSDK/wpa_supplicant/src/ap\hw_features.c **** 	struct hostapd_channel_data *pri_chan, *sec_chan;
 272:C:/Users/stapi/OneDrive/Desktop/GD32VW553/V1_MQTT_OK/GD32VW55X_Wifi_BLE_SDK/GD32VW55x_RELEASE_V1.0.2/MSDK/wpa_supplicant/src/ap\hw_features.c **** 
 273:C:/Users/stapi/OneDrive/Desktop/GD32VW553/V1_MQTT_OK/GD32VW55X_Wifi_BLE_SDK/GD32VW55x_RELEASE_V1.0.2/MSDK/wpa_supplicant/src/ap\hw_features.c **** 	pri_freq = iface->freq;
 274:C:/Users/stapi/OneDrive/Desktop/GD32VW553/V1_MQTT_OK/GD32VW55X_Wifi_BLE_SDK/GD32VW55x_RELEASE_V1.0.2/MSDK/wpa_supplicant/src/ap\hw_features.c **** 	sec_freq = pri_freq + iface->conf->secondary_channel * 20;
 275:C:/Users/stapi/OneDrive/Desktop/GD32VW553/V1_MQTT_OK/GD32VW55X_Wifi_BLE_SDK/GD32VW55x_RELEASE_V1.0.2/MSDK/wpa_supplicant/src/ap\hw_features.c **** 
 276:C:/Users/stapi/OneDrive/Desktop/GD32VW553/V1_MQTT_OK/GD32VW55X_Wifi_BLE_SDK/GD32VW55x_RELEASE_V1.0.2/MSDK/wpa_supplicant/src/ap\hw_features.c **** 	if (!iface->current_mode)
 277:C:/Users/stapi/OneDrive/Desktop/GD32VW553/V1_MQTT_OK/GD32VW55X_Wifi_BLE_SDK/GD32VW55x_RELEASE_V1.0.2/MSDK/wpa_supplicant/src/ap\hw_features.c **** 		return 0;
 278:C:/Users/stapi/OneDrive/Desktop/GD32VW553/V1_MQTT_OK/GD32VW55X_Wifi_BLE_SDK/GD32VW55x_RELEASE_V1.0.2/MSDK/wpa_supplicant/src/ap\hw_features.c **** 	pri_chan = hw_get_channel_freq(iface->current_mode->mode, pri_freq,
 279:C:/Users/stapi/OneDrive/Desktop/GD32VW553/V1_MQTT_OK/GD32VW55X_Wifi_BLE_SDK/GD32VW55x_RELEASE_V1.0.2/MSDK/wpa_supplicant/src/ap\hw_features.c **** 				       NULL, iface->hw_features,
 280:C:/Users/stapi/OneDrive/Desktop/GD32VW553/V1_MQTT_OK/GD32VW55X_Wifi_BLE_SDK/GD32VW55x_RELEASE_V1.0.2/MSDK/wpa_supplicant/src/ap\hw_features.c **** 				       iface->num_hw_features);
 281:C:/Users/stapi/OneDrive/Desktop/GD32VW553/V1_MQTT_OK/GD32VW55X_Wifi_BLE_SDK/GD32VW55x_RELEASE_V1.0.2/MSDK/wpa_supplicant/src/ap\hw_features.c **** 	sec_chan = hw_get_channel_freq(iface->current_mode->mode, sec_freq,
 282:C:/Users/stapi/OneDrive/Desktop/GD32VW553/V1_MQTT_OK/GD32VW55X_Wifi_BLE_SDK/GD32VW55x_RELEASE_V1.0.2/MSDK/wpa_supplicant/src/ap\hw_features.c **** 				       NULL, iface->hw_features,
 283:C:/Users/stapi/OneDrive/Desktop/GD32VW553/V1_MQTT_OK/GD32VW55X_Wifi_BLE_SDK/GD32VW55x_RELEASE_V1.0.2/MSDK/wpa_supplicant/src/ap\hw_features.c **** 				       iface->num_hw_features);
 284:C:/Users/stapi/OneDrive/Desktop/GD32VW553/V1_MQTT_OK/GD32VW55X_Wifi_BLE_SDK/GD32VW55x_RELEASE_V1.0.2/MSDK/wpa_supplicant/src/ap\hw_features.c **** 
 285:C:/Users/stapi/OneDrive/Desktop/GD32VW553/V1_MQTT_OK/GD32VW55X_Wifi_BLE_SDK/GD32VW55x_RELEASE_V1.0.2/MSDK/wpa_supplicant/src/ap\hw_features.c **** 	res = check_40mhz_5g(scan_res, pri_chan, sec_chan);
 286:C:/Users/stapi/OneDrive/Desktop/GD32VW553/V1_MQTT_OK/GD32VW55X_Wifi_BLE_SDK/GD32VW55x_RELEASE_V1.0.2/MSDK/wpa_supplicant/src/ap\hw_features.c **** 
 287:C:/Users/stapi/OneDrive/Desktop/GD32VW553/V1_MQTT_OK/GD32VW55X_Wifi_BLE_SDK/GD32VW55x_RELEASE_V1.0.2/MSDK/wpa_supplicant/src/ap\hw_features.c **** 	if (res == 2) {
 288:C:/Users/stapi/OneDrive/Desktop/GD32VW553/V1_MQTT_OK/GD32VW55X_Wifi_BLE_SDK/GD32VW55x_RELEASE_V1.0.2/MSDK/wpa_supplicant/src/ap\hw_features.c **** 		if (iface->conf->no_pri_sec_switch) {
 289:C:/Users/stapi/OneDrive/Desktop/GD32VW553/V1_MQTT_OK/GD32VW55X_Wifi_BLE_SDK/GD32VW55x_RELEASE_V1.0.2/MSDK/wpa_supplicant/src/ap\hw_features.c **** 			wpa_printf(MSG_DEBUG,
 290:C:/Users/stapi/OneDrive/Desktop/GD32VW553/V1_MQTT_OK/GD32VW55X_Wifi_BLE_SDK/GD32VW55x_RELEASE_V1.0.2/MSDK/wpa_supplicant/src/ap\hw_features.c **** 				   "Cannot switch PRI/SEC channels due to local constraint");
 291:C:/Users/stapi/OneDrive/Desktop/GD32VW553/V1_MQTT_OK/GD32VW55X_Wifi_BLE_SDK/GD32VW55x_RELEASE_V1.0.2/MSDK/wpa_supplicant/src/ap\hw_features.c **** 		} else {
 292:C:/Users/stapi/OneDrive/Desktop/GD32VW553/V1_MQTT_OK/GD32VW55X_Wifi_BLE_SDK/GD32VW55x_RELEASE_V1.0.2/MSDK/wpa_supplicant/src/ap\hw_features.c **** 			ieee80211n_switch_pri_sec(iface);
 293:C:/Users/stapi/OneDrive/Desktop/GD32VW553/V1_MQTT_OK/GD32VW55X_Wifi_BLE_SDK/GD32VW55x_RELEASE_V1.0.2/MSDK/wpa_supplicant/src/ap\hw_features.c **** 		}
 294:C:/Users/stapi/OneDrive/Desktop/GD32VW553/V1_MQTT_OK/GD32VW55X_Wifi_BLE_SDK/GD32VW55x_RELEASE_V1.0.2/MSDK/wpa_supplicant/src/ap\hw_features.c **** 	}
 295:C:/Users/stapi/OneDrive/Desktop/GD32VW553/V1_MQTT_OK/GD32VW55X_Wifi_BLE_SDK/GD32VW55x_RELEASE_V1.0.2/MSDK/wpa_supplicant/src/ap\hw_features.c **** 
 296:C:/Users/stapi/OneDrive/Desktop/GD32VW553/V1_MQTT_OK/GD32VW55X_Wifi_BLE_SDK/GD32VW55x_RELEASE_V1.0.2/MSDK/wpa_supplicant/src/ap\hw_features.c **** 	return !!res;
 297:C:/Users/stapi/OneDrive/Desktop/GD32VW553/V1_MQTT_OK/GD32VW55X_Wifi_BLE_SDK/GD32VW55x_RELEASE_V1.0.2/MSDK/wpa_supplicant/src/ap\hw_features.c **** }
 298:C:/Users/stapi/OneDrive/Desktop/GD32VW553/V1_MQTT_OK/GD32VW55X_Wifi_BLE_SDK/GD32VW55x_RELEASE_V1.0.2/MSDK/wpa_supplicant/src/ap\hw_features.c **** 
 299:C:/Users/stapi/OneDrive/Desktop/GD32VW553/V1_MQTT_OK/GD32VW55X_Wifi_BLE_SDK/GD32VW55x_RELEASE_V1.0.2/MSDK/wpa_supplicant/src/ap\hw_features.c **** 
 300:C:/Users/stapi/OneDrive/Desktop/GD32VW553/V1_MQTT_OK/GD32VW55X_Wifi_BLE_SDK/GD32VW55x_RELEASE_V1.0.2/MSDK/wpa_supplicant/src/ap\hw_features.c **** static int ieee80211n_check_40mhz_2g4(struct hostapd_iface *iface,
 301:C:/Users/stapi/OneDrive/Desktop/GD32VW553/V1_MQTT_OK/GD32VW55X_Wifi_BLE_SDK/GD32VW55x_RELEASE_V1.0.2/MSDK/wpa_supplicant/src/ap\hw_features.c **** 				      struct wpa_scan_results *scan_res)
 302:C:/Users/stapi/OneDrive/Desktop/GD32VW553/V1_MQTT_OK/GD32VW55X_Wifi_BLE_SDK/GD32VW55x_RELEASE_V1.0.2/MSDK/wpa_supplicant/src/ap\hw_features.c **** {
 303:C:/Users/stapi/OneDrive/Desktop/GD32VW553/V1_MQTT_OK/GD32VW55X_Wifi_BLE_SDK/GD32VW55x_RELEASE_V1.0.2/MSDK/wpa_supplicant/src/ap\hw_features.c **** 	int pri_chan, sec_chan;
 304:C:/Users/stapi/OneDrive/Desktop/GD32VW553/V1_MQTT_OK/GD32VW55X_Wifi_BLE_SDK/GD32VW55x_RELEASE_V1.0.2/MSDK/wpa_supplicant/src/ap\hw_features.c **** 
 305:C:/Users/stapi/OneDrive/Desktop/GD32VW553/V1_MQTT_OK/GD32VW55X_Wifi_BLE_SDK/GD32VW55x_RELEASE_V1.0.2/MSDK/wpa_supplicant/src/ap\hw_features.c **** 	pri_chan = iface->conf->channel;
 306:C:/Users/stapi/OneDrive/Desktop/GD32VW553/V1_MQTT_OK/GD32VW55X_Wifi_BLE_SDK/GD32VW55x_RELEASE_V1.0.2/MSDK/wpa_supplicant/src/ap\hw_features.c **** 	sec_chan = pri_chan + iface->conf->secondary_channel * 4;
 307:C:/Users/stapi/OneDrive/Desktop/GD32VW553/V1_MQTT_OK/GD32VW55X_Wifi_BLE_SDK/GD32VW55x_RELEASE_V1.0.2/MSDK/wpa_supplicant/src/ap\hw_features.c **** 
 308:C:/Users/stapi/OneDrive/Desktop/GD32VW553/V1_MQTT_OK/GD32VW55X_Wifi_BLE_SDK/GD32VW55x_RELEASE_V1.0.2/MSDK/wpa_supplicant/src/ap\hw_features.c **** 	return check_40mhz_2g4(iface->current_mode, scan_res, pri_chan,
 309:C:/Users/stapi/OneDrive/Desktop/GD32VW553/V1_MQTT_OK/GD32VW55X_Wifi_BLE_SDK/GD32VW55x_RELEASE_V1.0.2/MSDK/wpa_supplicant/src/ap\hw_features.c **** 			       sec_chan);
 310:C:/Users/stapi/OneDrive/Desktop/GD32VW553/V1_MQTT_OK/GD32VW55X_Wifi_BLE_SDK/GD32VW55x_RELEASE_V1.0.2/MSDK/wpa_supplicant/src/ap\hw_features.c **** }
 311:C:/Users/stapi/OneDrive/Desktop/GD32VW553/V1_MQTT_OK/GD32VW55X_Wifi_BLE_SDK/GD32VW55x_RELEASE_V1.0.2/MSDK/wpa_supplicant/src/ap\hw_features.c **** 
 312:C:/Users/stapi/OneDrive/Desktop/GD32VW553/V1_MQTT_OK/GD32VW55X_Wifi_BLE_SDK/GD32VW55x_RELEASE_V1.0.2/MSDK/wpa_supplicant/src/ap\hw_features.c **** 
 313:C:/Users/stapi/OneDrive/Desktop/GD32VW553/V1_MQTT_OK/GD32VW55X_Wifi_BLE_SDK/GD32VW55x_RELEASE_V1.0.2/MSDK/wpa_supplicant/src/ap\hw_features.c **** static void ieee80211n_check_scan(struct hostapd_iface *iface)
 314:C:/Users/stapi/OneDrive/Desktop/GD32VW553/V1_MQTT_OK/GD32VW55X_Wifi_BLE_SDK/GD32VW55x_RELEASE_V1.0.2/MSDK/wpa_supplicant/src/ap\hw_features.c **** {
 315:C:/Users/stapi/OneDrive/Desktop/GD32VW553/V1_MQTT_OK/GD32VW55X_Wifi_BLE_SDK/GD32VW55x_RELEASE_V1.0.2/MSDK/wpa_supplicant/src/ap\hw_features.c **** 	struct wpa_scan_results *scan_res;
 316:C:/Users/stapi/OneDrive/Desktop/GD32VW553/V1_MQTT_OK/GD32VW55X_Wifi_BLE_SDK/GD32VW55x_RELEASE_V1.0.2/MSDK/wpa_supplicant/src/ap\hw_features.c **** 	int oper40;
 317:C:/Users/stapi/OneDrive/Desktop/GD32VW553/V1_MQTT_OK/GD32VW55X_Wifi_BLE_SDK/GD32VW55x_RELEASE_V1.0.2/MSDK/wpa_supplicant/src/ap\hw_features.c **** 	int res = 0;
 318:C:/Users/stapi/OneDrive/Desktop/GD32VW553/V1_MQTT_OK/GD32VW55X_Wifi_BLE_SDK/GD32VW55x_RELEASE_V1.0.2/MSDK/wpa_supplicant/src/ap\hw_features.c **** 
 319:C:/Users/stapi/OneDrive/Desktop/GD32VW553/V1_MQTT_OK/GD32VW55X_Wifi_BLE_SDK/GD32VW55x_RELEASE_V1.0.2/MSDK/wpa_supplicant/src/ap\hw_features.c **** 	/* Check list of neighboring BSSes (from scan) to see whether 40 MHz is
 320:C:/Users/stapi/OneDrive/Desktop/GD32VW553/V1_MQTT_OK/GD32VW55X_Wifi_BLE_SDK/GD32VW55x_RELEASE_V1.0.2/MSDK/wpa_supplicant/src/ap\hw_features.c **** 	 * allowed per IEEE Std 802.11-2012, 10.15.3.2 */
 321:C:/Users/stapi/OneDrive/Desktop/GD32VW553/V1_MQTT_OK/GD32VW55X_Wifi_BLE_SDK/GD32VW55x_RELEASE_V1.0.2/MSDK/wpa_supplicant/src/ap\hw_features.c **** 
 322:C:/Users/stapi/OneDrive/Desktop/GD32VW553/V1_MQTT_OK/GD32VW55X_Wifi_BLE_SDK/GD32VW55x_RELEASE_V1.0.2/MSDK/wpa_supplicant/src/ap\hw_features.c **** 	iface->scan_cb = NULL;
 323:C:/Users/stapi/OneDrive/Desktop/GD32VW553/V1_MQTT_OK/GD32VW55X_Wifi_BLE_SDK/GD32VW55x_RELEASE_V1.0.2/MSDK/wpa_supplicant/src/ap\hw_features.c **** 
 324:C:/Users/stapi/OneDrive/Desktop/GD32VW553/V1_MQTT_OK/GD32VW55X_Wifi_BLE_SDK/GD32VW55x_RELEASE_V1.0.2/MSDK/wpa_supplicant/src/ap\hw_features.c **** 	scan_res = hostapd_driver_get_scan_results(iface->bss[0]);
 325:C:/Users/stapi/OneDrive/Desktop/GD32VW553/V1_MQTT_OK/GD32VW55X_Wifi_BLE_SDK/GD32VW55x_RELEASE_V1.0.2/MSDK/wpa_supplicant/src/ap\hw_features.c **** 	if (scan_res == NULL) {
 326:C:/Users/stapi/OneDrive/Desktop/GD32VW553/V1_MQTT_OK/GD32VW55X_Wifi_BLE_SDK/GD32VW55x_RELEASE_V1.0.2/MSDK/wpa_supplicant/src/ap\hw_features.c **** 		hostapd_setup_interface_complete(iface, 1);
 327:C:/Users/stapi/OneDrive/Desktop/GD32VW553/V1_MQTT_OK/GD32VW55X_Wifi_BLE_SDK/GD32VW55x_RELEASE_V1.0.2/MSDK/wpa_supplicant/src/ap\hw_features.c **** 		return;
 328:C:/Users/stapi/OneDrive/Desktop/GD32VW553/V1_MQTT_OK/GD32VW55X_Wifi_BLE_SDK/GD32VW55x_RELEASE_V1.0.2/MSDK/wpa_supplicant/src/ap\hw_features.c **** 	}
 329:C:/Users/stapi/OneDrive/Desktop/GD32VW553/V1_MQTT_OK/GD32VW55X_Wifi_BLE_SDK/GD32VW55x_RELEASE_V1.0.2/MSDK/wpa_supplicant/src/ap\hw_features.c **** 
 330:C:/Users/stapi/OneDrive/Desktop/GD32VW553/V1_MQTT_OK/GD32VW55X_Wifi_BLE_SDK/GD32VW55x_RELEASE_V1.0.2/MSDK/wpa_supplicant/src/ap\hw_features.c **** 	if (iface->current_mode->mode == HOSTAPD_MODE_IEEE80211A)
 331:C:/Users/stapi/OneDrive/Desktop/GD32VW553/V1_MQTT_OK/GD32VW55X_Wifi_BLE_SDK/GD32VW55x_RELEASE_V1.0.2/MSDK/wpa_supplicant/src/ap\hw_features.c **** 		oper40 = ieee80211n_check_40mhz_5g(iface, scan_res);
 332:C:/Users/stapi/OneDrive/Desktop/GD32VW553/V1_MQTT_OK/GD32VW55X_Wifi_BLE_SDK/GD32VW55x_RELEASE_V1.0.2/MSDK/wpa_supplicant/src/ap\hw_features.c **** 	else
 333:C:/Users/stapi/OneDrive/Desktop/GD32VW553/V1_MQTT_OK/GD32VW55X_Wifi_BLE_SDK/GD32VW55x_RELEASE_V1.0.2/MSDK/wpa_supplicant/src/ap\hw_features.c **** 		oper40 = ieee80211n_check_40mhz_2g4(iface, scan_res);
 334:C:/Users/stapi/OneDrive/Desktop/GD32VW553/V1_MQTT_OK/GD32VW55X_Wifi_BLE_SDK/GD32VW55x_RELEASE_V1.0.2/MSDK/wpa_supplicant/src/ap\hw_features.c **** 	wpa_scan_results_free(scan_res);
 335:C:/Users/stapi/OneDrive/Desktop/GD32VW553/V1_MQTT_OK/GD32VW55X_Wifi_BLE_SDK/GD32VW55x_RELEASE_V1.0.2/MSDK/wpa_supplicant/src/ap\hw_features.c **** 
 336:C:/Users/stapi/OneDrive/Desktop/GD32VW553/V1_MQTT_OK/GD32VW55X_Wifi_BLE_SDK/GD32VW55x_RELEASE_V1.0.2/MSDK/wpa_supplicant/src/ap\hw_features.c **** 	iface->secondary_ch = iface->conf->secondary_channel;
 337:C:/Users/stapi/OneDrive/Desktop/GD32VW553/V1_MQTT_OK/GD32VW55X_Wifi_BLE_SDK/GD32VW55x_RELEASE_V1.0.2/MSDK/wpa_supplicant/src/ap\hw_features.c **** 	if (!oper40) {
 338:C:/Users/stapi/OneDrive/Desktop/GD32VW553/V1_MQTT_OK/GD32VW55X_Wifi_BLE_SDK/GD32VW55x_RELEASE_V1.0.2/MSDK/wpa_supplicant/src/ap\hw_features.c **** 		wpa_printf(MSG_INFO, "20/40 MHz operation not permitted on "
 339:C:/Users/stapi/OneDrive/Desktop/GD32VW553/V1_MQTT_OK/GD32VW55X_Wifi_BLE_SDK/GD32VW55x_RELEASE_V1.0.2/MSDK/wpa_supplicant/src/ap\hw_features.c **** 			   "channel pri=%d sec=%d based on overlapping BSSes",
 340:C:/Users/stapi/OneDrive/Desktop/GD32VW553/V1_MQTT_OK/GD32VW55X_Wifi_BLE_SDK/GD32VW55x_RELEASE_V1.0.2/MSDK/wpa_supplicant/src/ap\hw_features.c **** 			   iface->conf->channel,
 341:C:/Users/stapi/OneDrive/Desktop/GD32VW553/V1_MQTT_OK/GD32VW55X_Wifi_BLE_SDK/GD32VW55x_RELEASE_V1.0.2/MSDK/wpa_supplicant/src/ap\hw_features.c **** 			   iface->conf->channel +
 342:C:/Users/stapi/OneDrive/Desktop/GD32VW553/V1_MQTT_OK/GD32VW55X_Wifi_BLE_SDK/GD32VW55x_RELEASE_V1.0.2/MSDK/wpa_supplicant/src/ap\hw_features.c **** 			   iface->conf->secondary_channel * 4);
 343:C:/Users/stapi/OneDrive/Desktop/GD32VW553/V1_MQTT_OK/GD32VW55X_Wifi_BLE_SDK/GD32VW55x_RELEASE_V1.0.2/MSDK/wpa_supplicant/src/ap\hw_features.c **** 		iface->conf->secondary_channel = 0;
 344:C:/Users/stapi/OneDrive/Desktop/GD32VW553/V1_MQTT_OK/GD32VW55X_Wifi_BLE_SDK/GD32VW55x_RELEASE_V1.0.2/MSDK/wpa_supplicant/src/ap\hw_features.c **** 		if (iface->drv_flags & WPA_DRIVER_FLAGS_HT_2040_COEX) {
 345:C:/Users/stapi/OneDrive/Desktop/GD32VW553/V1_MQTT_OK/GD32VW55X_Wifi_BLE_SDK/GD32VW55x_RELEASE_V1.0.2/MSDK/wpa_supplicant/src/ap\hw_features.c **** 			/*
 346:C:/Users/stapi/OneDrive/Desktop/GD32VW553/V1_MQTT_OK/GD32VW55X_Wifi_BLE_SDK/GD32VW55x_RELEASE_V1.0.2/MSDK/wpa_supplicant/src/ap\hw_features.c **** 			 * TODO: Could consider scheduling another scan to check
 347:C:/Users/stapi/OneDrive/Desktop/GD32VW553/V1_MQTT_OK/GD32VW55X_Wifi_BLE_SDK/GD32VW55x_RELEASE_V1.0.2/MSDK/wpa_supplicant/src/ap\hw_features.c **** 			 * if channel width can be changed if no coex reports
 348:C:/Users/stapi/OneDrive/Desktop/GD32VW553/V1_MQTT_OK/GD32VW55X_Wifi_BLE_SDK/GD32VW55x_RELEASE_V1.0.2/MSDK/wpa_supplicant/src/ap\hw_features.c **** 			 * are received from associating stations.
 349:C:/Users/stapi/OneDrive/Desktop/GD32VW553/V1_MQTT_OK/GD32VW55X_Wifi_BLE_SDK/GD32VW55x_RELEASE_V1.0.2/MSDK/wpa_supplicant/src/ap\hw_features.c **** 			 */
 350:C:/Users/stapi/OneDrive/Desktop/GD32VW553/V1_MQTT_OK/GD32VW55X_Wifi_BLE_SDK/GD32VW55x_RELEASE_V1.0.2/MSDK/wpa_supplicant/src/ap\hw_features.c **** 		}
 351:C:/Users/stapi/OneDrive/Desktop/GD32VW553/V1_MQTT_OK/GD32VW55X_Wifi_BLE_SDK/GD32VW55x_RELEASE_V1.0.2/MSDK/wpa_supplicant/src/ap\hw_features.c **** 	}
 352:C:/Users/stapi/OneDrive/Desktop/GD32VW553/V1_MQTT_OK/GD32VW55X_Wifi_BLE_SDK/GD32VW55x_RELEASE_V1.0.2/MSDK/wpa_supplicant/src/ap\hw_features.c **** 
 353:C:/Users/stapi/OneDrive/Desktop/GD32VW553/V1_MQTT_OK/GD32VW55X_Wifi_BLE_SDK/GD32VW55x_RELEASE_V1.0.2/MSDK/wpa_supplicant/src/ap\hw_features.c **** #ifdef CONFIG_IEEE80211AX
 354:C:/Users/stapi/OneDrive/Desktop/GD32VW553/V1_MQTT_OK/GD32VW55X_Wifi_BLE_SDK/GD32VW55x_RELEASE_V1.0.2/MSDK/wpa_supplicant/src/ap\hw_features.c **** 	if (iface->conf->secondary_channel &&
 355:C:/Users/stapi/OneDrive/Desktop/GD32VW553/V1_MQTT_OK/GD32VW55X_Wifi_BLE_SDK/GD32VW55x_RELEASE_V1.0.2/MSDK/wpa_supplicant/src/ap\hw_features.c **** 	    iface->current_mode->mode == HOSTAPD_MODE_IEEE80211G &&
 356:C:/Users/stapi/OneDrive/Desktop/GD32VW553/V1_MQTT_OK/GD32VW55X_Wifi_BLE_SDK/GD32VW55x_RELEASE_V1.0.2/MSDK/wpa_supplicant/src/ap\hw_features.c **** 	    iface->conf->ieee80211ax) {
 357:C:/Users/stapi/OneDrive/Desktop/GD32VW553/V1_MQTT_OK/GD32VW55X_Wifi_BLE_SDK/GD32VW55x_RELEASE_V1.0.2/MSDK/wpa_supplicant/src/ap\hw_features.c **** 		struct he_capabilities *he_cap;
 358:C:/Users/stapi/OneDrive/Desktop/GD32VW553/V1_MQTT_OK/GD32VW55X_Wifi_BLE_SDK/GD32VW55x_RELEASE_V1.0.2/MSDK/wpa_supplicant/src/ap\hw_features.c **** 
 359:C:/Users/stapi/OneDrive/Desktop/GD32VW553/V1_MQTT_OK/GD32VW55X_Wifi_BLE_SDK/GD32VW55x_RELEASE_V1.0.2/MSDK/wpa_supplicant/src/ap\hw_features.c **** 		he_cap = &iface->current_mode->he_capab[IEEE80211_MODE_AP];
 360:C:/Users/stapi/OneDrive/Desktop/GD32VW553/V1_MQTT_OK/GD32VW55X_Wifi_BLE_SDK/GD32VW55x_RELEASE_V1.0.2/MSDK/wpa_supplicant/src/ap\hw_features.c **** 		if (!(he_cap->phy_cap[HE_PHYCAP_CHANNEL_WIDTH_SET_IDX] &
 361:C:/Users/stapi/OneDrive/Desktop/GD32VW553/V1_MQTT_OK/GD32VW55X_Wifi_BLE_SDK/GD32VW55x_RELEASE_V1.0.2/MSDK/wpa_supplicant/src/ap\hw_features.c **** 		      HE_PHYCAP_CHANNEL_WIDTH_SET_40MHZ_IN_2G)) {
 362:C:/Users/stapi/OneDrive/Desktop/GD32VW553/V1_MQTT_OK/GD32VW55X_Wifi_BLE_SDK/GD32VW55x_RELEASE_V1.0.2/MSDK/wpa_supplicant/src/ap\hw_features.c **** 			wpa_printf(MSG_DEBUG,
 363:C:/Users/stapi/OneDrive/Desktop/GD32VW553/V1_MQTT_OK/GD32VW55X_Wifi_BLE_SDK/GD32VW55x_RELEASE_V1.0.2/MSDK/wpa_supplicant/src/ap\hw_features.c **** 				   "HE: 40 MHz channel width is not supported in 2.4 GHz; clear secondary channel configuration
 364:C:/Users/stapi/OneDrive/Desktop/GD32VW553/V1_MQTT_OK/GD32VW55X_Wifi_BLE_SDK/GD32VW55x_RELEASE_V1.0.2/MSDK/wpa_supplicant/src/ap\hw_features.c **** 			iface->conf->secondary_channel = 0;
 365:C:/Users/stapi/OneDrive/Desktop/GD32VW553/V1_MQTT_OK/GD32VW55X_Wifi_BLE_SDK/GD32VW55x_RELEASE_V1.0.2/MSDK/wpa_supplicant/src/ap\hw_features.c **** 		}
 366:C:/Users/stapi/OneDrive/Desktop/GD32VW553/V1_MQTT_OK/GD32VW55X_Wifi_BLE_SDK/GD32VW55x_RELEASE_V1.0.2/MSDK/wpa_supplicant/src/ap\hw_features.c **** 	}
 367:C:/Users/stapi/OneDrive/Desktop/GD32VW553/V1_MQTT_OK/GD32VW55X_Wifi_BLE_SDK/GD32VW55x_RELEASE_V1.0.2/MSDK/wpa_supplicant/src/ap\hw_features.c **** #endif /* CONFIG_IEEE80211AX */
 368:C:/Users/stapi/OneDrive/Desktop/GD32VW553/V1_MQTT_OK/GD32VW55X_Wifi_BLE_SDK/GD32VW55x_RELEASE_V1.0.2/MSDK/wpa_supplicant/src/ap\hw_features.c **** 
 369:C:/Users/stapi/OneDrive/Desktop/GD32VW553/V1_MQTT_OK/GD32VW55X_Wifi_BLE_SDK/GD32VW55x_RELEASE_V1.0.2/MSDK/wpa_supplicant/src/ap\hw_features.c **** 	if (iface->conf->secondary_channel)
 370:C:/Users/stapi/OneDrive/Desktop/GD32VW553/V1_MQTT_OK/GD32VW55X_Wifi_BLE_SDK/GD32VW55x_RELEASE_V1.0.2/MSDK/wpa_supplicant/src/ap\hw_features.c **** 		res = ieee80211n_allowed_ht40_channel_pair(iface);
 371:C:/Users/stapi/OneDrive/Desktop/GD32VW553/V1_MQTT_OK/GD32VW55X_Wifi_BLE_SDK/GD32VW55x_RELEASE_V1.0.2/MSDK/wpa_supplicant/src/ap\hw_features.c **** 	if (!res) {
 372:C:/Users/stapi/OneDrive/Desktop/GD32VW553/V1_MQTT_OK/GD32VW55X_Wifi_BLE_SDK/GD32VW55x_RELEASE_V1.0.2/MSDK/wpa_supplicant/src/ap\hw_features.c **** 		iface->conf->secondary_channel = 0;
 373:C:/Users/stapi/OneDrive/Desktop/GD32VW553/V1_MQTT_OK/GD32VW55X_Wifi_BLE_SDK/GD32VW55x_RELEASE_V1.0.2/MSDK/wpa_supplicant/src/ap\hw_features.c **** 		hostapd_set_oper_centr_freq_seg0_idx(iface->conf, 0);
 374:C:/Users/stapi/OneDrive/Desktop/GD32VW553/V1_MQTT_OK/GD32VW55X_Wifi_BLE_SDK/GD32VW55x_RELEASE_V1.0.2/MSDK/wpa_supplicant/src/ap\hw_features.c **** 		hostapd_set_oper_centr_freq_seg1_idx(iface->conf, 0);
 375:C:/Users/stapi/OneDrive/Desktop/GD32VW553/V1_MQTT_OK/GD32VW55X_Wifi_BLE_SDK/GD32VW55x_RELEASE_V1.0.2/MSDK/wpa_supplicant/src/ap\hw_features.c **** 		hostapd_set_oper_chwidth(iface->conf, CHANWIDTH_USE_HT);
 376:C:/Users/stapi/OneDrive/Desktop/GD32VW553/V1_MQTT_OK/GD32VW55X_Wifi_BLE_SDK/GD32VW55x_RELEASE_V1.0.2/MSDK/wpa_supplicant/src/ap\hw_features.c **** 		res = 1;
 377:C:/Users/stapi/OneDrive/Desktop/GD32VW553/V1_MQTT_OK/GD32VW55X_Wifi_BLE_SDK/GD32VW55x_RELEASE_V1.0.2/MSDK/wpa_supplicant/src/ap\hw_features.c **** 		wpa_printf(MSG_INFO, "Fallback to 20 MHz");
 378:C:/Users/stapi/OneDrive/Desktop/GD32VW553/V1_MQTT_OK/GD32VW55X_Wifi_BLE_SDK/GD32VW55x_RELEASE_V1.0.2/MSDK/wpa_supplicant/src/ap\hw_features.c **** 	}
 379:C:/Users/stapi/OneDrive/Desktop/GD32VW553/V1_MQTT_OK/GD32VW55X_Wifi_BLE_SDK/GD32VW55x_RELEASE_V1.0.2/MSDK/wpa_supplicant/src/ap\hw_features.c **** 
 380:C:/Users/stapi/OneDrive/Desktop/GD32VW553/V1_MQTT_OK/GD32VW55X_Wifi_BLE_SDK/GD32VW55x_RELEASE_V1.0.2/MSDK/wpa_supplicant/src/ap\hw_features.c **** 	hostapd_setup_interface_complete(iface, !res);
 381:C:/Users/stapi/OneDrive/Desktop/GD32VW553/V1_MQTT_OK/GD32VW55X_Wifi_BLE_SDK/GD32VW55x_RELEASE_V1.0.2/MSDK/wpa_supplicant/src/ap\hw_features.c **** }
 382:C:/Users/stapi/OneDrive/Desktop/GD32VW553/V1_MQTT_OK/GD32VW55X_Wifi_BLE_SDK/GD32VW55x_RELEASE_V1.0.2/MSDK/wpa_supplicant/src/ap\hw_features.c **** 
 383:C:/Users/stapi/OneDrive/Desktop/GD32VW553/V1_MQTT_OK/GD32VW55X_Wifi_BLE_SDK/GD32VW55x_RELEASE_V1.0.2/MSDK/wpa_supplicant/src/ap\hw_features.c **** 
 384:C:/Users/stapi/OneDrive/Desktop/GD32VW553/V1_MQTT_OK/GD32VW55X_Wifi_BLE_SDK/GD32VW55x_RELEASE_V1.0.2/MSDK/wpa_supplicant/src/ap\hw_features.c **** static void ieee80211n_scan_channels_2g4(struct hostapd_iface *iface,
 385:C:/Users/stapi/OneDrive/Desktop/GD32VW553/V1_MQTT_OK/GD32VW55X_Wifi_BLE_SDK/GD32VW55x_RELEASE_V1.0.2/MSDK/wpa_supplicant/src/ap\hw_features.c **** 					 struct wpa_driver_scan_params *params)
 386:C:/Users/stapi/OneDrive/Desktop/GD32VW553/V1_MQTT_OK/GD32VW55X_Wifi_BLE_SDK/GD32VW55x_RELEASE_V1.0.2/MSDK/wpa_supplicant/src/ap\hw_features.c **** {
 387:C:/Users/stapi/OneDrive/Desktop/GD32VW553/V1_MQTT_OK/GD32VW55X_Wifi_BLE_SDK/GD32VW55x_RELEASE_V1.0.2/MSDK/wpa_supplicant/src/ap\hw_features.c **** 	/* Scan only the affected frequency range */
 388:C:/Users/stapi/OneDrive/Desktop/GD32VW553/V1_MQTT_OK/GD32VW55X_Wifi_BLE_SDK/GD32VW55x_RELEASE_V1.0.2/MSDK/wpa_supplicant/src/ap\hw_features.c **** 	int pri_freq, sec_freq;
 389:C:/Users/stapi/OneDrive/Desktop/GD32VW553/V1_MQTT_OK/GD32VW55X_Wifi_BLE_SDK/GD32VW55x_RELEASE_V1.0.2/MSDK/wpa_supplicant/src/ap\hw_features.c **** 	int affected_start, affected_end;
 390:C:/Users/stapi/OneDrive/Desktop/GD32VW553/V1_MQTT_OK/GD32VW55X_Wifi_BLE_SDK/GD32VW55x_RELEASE_V1.0.2/MSDK/wpa_supplicant/src/ap\hw_features.c **** 	int i, pos;
 391:C:/Users/stapi/OneDrive/Desktop/GD32VW553/V1_MQTT_OK/GD32VW55X_Wifi_BLE_SDK/GD32VW55x_RELEASE_V1.0.2/MSDK/wpa_supplicant/src/ap\hw_features.c **** 	struct hostapd_hw_modes *mode;
 392:C:/Users/stapi/OneDrive/Desktop/GD32VW553/V1_MQTT_OK/GD32VW55X_Wifi_BLE_SDK/GD32VW55x_RELEASE_V1.0.2/MSDK/wpa_supplicant/src/ap\hw_features.c **** 
 393:C:/Users/stapi/OneDrive/Desktop/GD32VW553/V1_MQTT_OK/GD32VW55X_Wifi_BLE_SDK/GD32VW55x_RELEASE_V1.0.2/MSDK/wpa_supplicant/src/ap\hw_features.c **** 	if (iface->current_mode == NULL)
 394:C:/Users/stapi/OneDrive/Desktop/GD32VW553/V1_MQTT_OK/GD32VW55X_Wifi_BLE_SDK/GD32VW55x_RELEASE_V1.0.2/MSDK/wpa_supplicant/src/ap\hw_features.c **** 		return;
 395:C:/Users/stapi/OneDrive/Desktop/GD32VW553/V1_MQTT_OK/GD32VW55X_Wifi_BLE_SDK/GD32VW55x_RELEASE_V1.0.2/MSDK/wpa_supplicant/src/ap\hw_features.c **** 
 396:C:/Users/stapi/OneDrive/Desktop/GD32VW553/V1_MQTT_OK/GD32VW55X_Wifi_BLE_SDK/GD32VW55x_RELEASE_V1.0.2/MSDK/wpa_supplicant/src/ap\hw_features.c **** 	pri_freq = iface->freq;
 397:C:/Users/stapi/OneDrive/Desktop/GD32VW553/V1_MQTT_OK/GD32VW55X_Wifi_BLE_SDK/GD32VW55x_RELEASE_V1.0.2/MSDK/wpa_supplicant/src/ap\hw_features.c **** 	if (iface->conf->secondary_channel > 0)
 398:C:/Users/stapi/OneDrive/Desktop/GD32VW553/V1_MQTT_OK/GD32VW55X_Wifi_BLE_SDK/GD32VW55x_RELEASE_V1.0.2/MSDK/wpa_supplicant/src/ap\hw_features.c **** 		sec_freq = pri_freq + 20;
 399:C:/Users/stapi/OneDrive/Desktop/GD32VW553/V1_MQTT_OK/GD32VW55X_Wifi_BLE_SDK/GD32VW55x_RELEASE_V1.0.2/MSDK/wpa_supplicant/src/ap\hw_features.c **** 	else
 400:C:/Users/stapi/OneDrive/Desktop/GD32VW553/V1_MQTT_OK/GD32VW55X_Wifi_BLE_SDK/GD32VW55x_RELEASE_V1.0.2/MSDK/wpa_supplicant/src/ap\hw_features.c **** 		sec_freq = pri_freq - 20;
 401:C:/Users/stapi/OneDrive/Desktop/GD32VW553/V1_MQTT_OK/GD32VW55X_Wifi_BLE_SDK/GD32VW55x_RELEASE_V1.0.2/MSDK/wpa_supplicant/src/ap\hw_features.c **** 	/*
 402:C:/Users/stapi/OneDrive/Desktop/GD32VW553/V1_MQTT_OK/GD32VW55X_Wifi_BLE_SDK/GD32VW55x_RELEASE_V1.0.2/MSDK/wpa_supplicant/src/ap\hw_features.c **** 	 * Note: Need to find the PRI channel also in cases where the affected
 403:C:/Users/stapi/OneDrive/Desktop/GD32VW553/V1_MQTT_OK/GD32VW55X_Wifi_BLE_SDK/GD32VW55x_RELEASE_V1.0.2/MSDK/wpa_supplicant/src/ap\hw_features.c **** 	 * channel is the SEC channel of a 40 MHz BSS, so need to include the
 404:C:/Users/stapi/OneDrive/Desktop/GD32VW553/V1_MQTT_OK/GD32VW55X_Wifi_BLE_SDK/GD32VW55x_RELEASE_V1.0.2/MSDK/wpa_supplicant/src/ap\hw_features.c **** 	 * scanning coverage here to be 40 MHz from the center frequency.
 405:C:/Users/stapi/OneDrive/Desktop/GD32VW553/V1_MQTT_OK/GD32VW55X_Wifi_BLE_SDK/GD32VW55x_RELEASE_V1.0.2/MSDK/wpa_supplicant/src/ap\hw_features.c **** 	 */
 406:C:/Users/stapi/OneDrive/Desktop/GD32VW553/V1_MQTT_OK/GD32VW55X_Wifi_BLE_SDK/GD32VW55x_RELEASE_V1.0.2/MSDK/wpa_supplicant/src/ap\hw_features.c **** 	affected_start = (pri_freq + sec_freq) / 2 - 40;
 407:C:/Users/stapi/OneDrive/Desktop/GD32VW553/V1_MQTT_OK/GD32VW55X_Wifi_BLE_SDK/GD32VW55x_RELEASE_V1.0.2/MSDK/wpa_supplicant/src/ap\hw_features.c **** 	affected_end = (pri_freq + sec_freq) / 2 + 40;
 408:C:/Users/stapi/OneDrive/Desktop/GD32VW553/V1_MQTT_OK/GD32VW55X_Wifi_BLE_SDK/GD32VW55x_RELEASE_V1.0.2/MSDK/wpa_supplicant/src/ap\hw_features.c **** 	wpa_printf(MSG_DEBUG, "40 MHz affected channel range: [%d,%d] MHz",
 409:C:/Users/stapi/OneDrive/Desktop/GD32VW553/V1_MQTT_OK/GD32VW55X_Wifi_BLE_SDK/GD32VW55x_RELEASE_V1.0.2/MSDK/wpa_supplicant/src/ap\hw_features.c **** 		   affected_start, affected_end);
 410:C:/Users/stapi/OneDrive/Desktop/GD32VW553/V1_MQTT_OK/GD32VW55X_Wifi_BLE_SDK/GD32VW55x_RELEASE_V1.0.2/MSDK/wpa_supplicant/src/ap\hw_features.c **** 
 411:C:/Users/stapi/OneDrive/Desktop/GD32VW553/V1_MQTT_OK/GD32VW55X_Wifi_BLE_SDK/GD32VW55x_RELEASE_V1.0.2/MSDK/wpa_supplicant/src/ap\hw_features.c **** 	mode = iface->current_mode;
 412:C:/Users/stapi/OneDrive/Desktop/GD32VW553/V1_MQTT_OK/GD32VW55X_Wifi_BLE_SDK/GD32VW55x_RELEASE_V1.0.2/MSDK/wpa_supplicant/src/ap\hw_features.c **** 	params->freqs = os_calloc(mode->num_channels + 1, sizeof(int));
 413:C:/Users/stapi/OneDrive/Desktop/GD32VW553/V1_MQTT_OK/GD32VW55X_Wifi_BLE_SDK/GD32VW55x_RELEASE_V1.0.2/MSDK/wpa_supplicant/src/ap\hw_features.c **** 	if (params->freqs == NULL)
 414:C:/Users/stapi/OneDrive/Desktop/GD32VW553/V1_MQTT_OK/GD32VW55X_Wifi_BLE_SDK/GD32VW55x_RELEASE_V1.0.2/MSDK/wpa_supplicant/src/ap\hw_features.c **** 		return;
 415:C:/Users/stapi/OneDrive/Desktop/GD32VW553/V1_MQTT_OK/GD32VW55X_Wifi_BLE_SDK/GD32VW55x_RELEASE_V1.0.2/MSDK/wpa_supplicant/src/ap\hw_features.c **** 	pos = 0;
 416:C:/Users/stapi/OneDrive/Desktop/GD32VW553/V1_MQTT_OK/GD32VW55X_Wifi_BLE_SDK/GD32VW55x_RELEASE_V1.0.2/MSDK/wpa_supplicant/src/ap\hw_features.c **** 
 417:C:/Users/stapi/OneDrive/Desktop/GD32VW553/V1_MQTT_OK/GD32VW55X_Wifi_BLE_SDK/GD32VW55x_RELEASE_V1.0.2/MSDK/wpa_supplicant/src/ap\hw_features.c **** 	for (i = 0; i < mode->num_channels; i++) {
 418:C:/Users/stapi/OneDrive/Desktop/GD32VW553/V1_MQTT_OK/GD32VW55X_Wifi_BLE_SDK/GD32VW55x_RELEASE_V1.0.2/MSDK/wpa_supplicant/src/ap\hw_features.c **** 		struct hostapd_channel_data *chan = &mode->channels[i];
 419:C:/Users/stapi/OneDrive/Desktop/GD32VW553/V1_MQTT_OK/GD32VW55X_Wifi_BLE_SDK/GD32VW55x_RELEASE_V1.0.2/MSDK/wpa_supplicant/src/ap\hw_features.c **** 		if (chan->flag & HOSTAPD_CHAN_DISABLED)
 420:C:/Users/stapi/OneDrive/Desktop/GD32VW553/V1_MQTT_OK/GD32VW55X_Wifi_BLE_SDK/GD32VW55x_RELEASE_V1.0.2/MSDK/wpa_supplicant/src/ap\hw_features.c **** 			continue;
 421:C:/Users/stapi/OneDrive/Desktop/GD32VW553/V1_MQTT_OK/GD32VW55X_Wifi_BLE_SDK/GD32VW55x_RELEASE_V1.0.2/MSDK/wpa_supplicant/src/ap\hw_features.c **** 		if (chan->freq < affected_start ||
 422:C:/Users/stapi/OneDrive/Desktop/GD32VW553/V1_MQTT_OK/GD32VW55X_Wifi_BLE_SDK/GD32VW55x_RELEASE_V1.0.2/MSDK/wpa_supplicant/src/ap\hw_features.c **** 		    chan->freq > affected_end)
 423:C:/Users/stapi/OneDrive/Desktop/GD32VW553/V1_MQTT_OK/GD32VW55X_Wifi_BLE_SDK/GD32VW55x_RELEASE_V1.0.2/MSDK/wpa_supplicant/src/ap\hw_features.c **** 			continue;
 424:C:/Users/stapi/OneDrive/Desktop/GD32VW553/V1_MQTT_OK/GD32VW55X_Wifi_BLE_SDK/GD32VW55x_RELEASE_V1.0.2/MSDK/wpa_supplicant/src/ap\hw_features.c **** 		params->freqs[pos++] = chan->freq;
 425:C:/Users/stapi/OneDrive/Desktop/GD32VW553/V1_MQTT_OK/GD32VW55X_Wifi_BLE_SDK/GD32VW55x_RELEASE_V1.0.2/MSDK/wpa_supplicant/src/ap\hw_features.c **** 	}
 426:C:/Users/stapi/OneDrive/Desktop/GD32VW553/V1_MQTT_OK/GD32VW55X_Wifi_BLE_SDK/GD32VW55x_RELEASE_V1.0.2/MSDK/wpa_supplicant/src/ap\hw_features.c **** }
 427:C:/Users/stapi/OneDrive/Desktop/GD32VW553/V1_MQTT_OK/GD32VW55X_Wifi_BLE_SDK/GD32VW55x_RELEASE_V1.0.2/MSDK/wpa_supplicant/src/ap\hw_features.c **** 
 428:C:/Users/stapi/OneDrive/Desktop/GD32VW553/V1_MQTT_OK/GD32VW55X_Wifi_BLE_SDK/GD32VW55x_RELEASE_V1.0.2/MSDK/wpa_supplicant/src/ap\hw_features.c **** 
 429:C:/Users/stapi/OneDrive/Desktop/GD32VW553/V1_MQTT_OK/GD32VW55X_Wifi_BLE_SDK/GD32VW55x_RELEASE_V1.0.2/MSDK/wpa_supplicant/src/ap\hw_features.c **** static void ieee80211n_scan_channels_5g(struct hostapd_iface *iface,
 430:C:/Users/stapi/OneDrive/Desktop/GD32VW553/V1_MQTT_OK/GD32VW55X_Wifi_BLE_SDK/GD32VW55x_RELEASE_V1.0.2/MSDK/wpa_supplicant/src/ap\hw_features.c **** 					struct wpa_driver_scan_params *params)
 431:C:/Users/stapi/OneDrive/Desktop/GD32VW553/V1_MQTT_OK/GD32VW55X_Wifi_BLE_SDK/GD32VW55x_RELEASE_V1.0.2/MSDK/wpa_supplicant/src/ap\hw_features.c **** {
 432:C:/Users/stapi/OneDrive/Desktop/GD32VW553/V1_MQTT_OK/GD32VW55X_Wifi_BLE_SDK/GD32VW55x_RELEASE_V1.0.2/MSDK/wpa_supplicant/src/ap\hw_features.c **** 	/* Scan only the affected frequency range */
 433:C:/Users/stapi/OneDrive/Desktop/GD32VW553/V1_MQTT_OK/GD32VW55X_Wifi_BLE_SDK/GD32VW55x_RELEASE_V1.0.2/MSDK/wpa_supplicant/src/ap\hw_features.c **** 	int pri_freq;
 434:C:/Users/stapi/OneDrive/Desktop/GD32VW553/V1_MQTT_OK/GD32VW55X_Wifi_BLE_SDK/GD32VW55x_RELEASE_V1.0.2/MSDK/wpa_supplicant/src/ap\hw_features.c **** 	int affected_start, affected_end;
 435:C:/Users/stapi/OneDrive/Desktop/GD32VW553/V1_MQTT_OK/GD32VW55X_Wifi_BLE_SDK/GD32VW55x_RELEASE_V1.0.2/MSDK/wpa_supplicant/src/ap\hw_features.c **** 	int i, pos;
 436:C:/Users/stapi/OneDrive/Desktop/GD32VW553/V1_MQTT_OK/GD32VW55X_Wifi_BLE_SDK/GD32VW55x_RELEASE_V1.0.2/MSDK/wpa_supplicant/src/ap\hw_features.c **** 	struct hostapd_hw_modes *mode;
 437:C:/Users/stapi/OneDrive/Desktop/GD32VW553/V1_MQTT_OK/GD32VW55X_Wifi_BLE_SDK/GD32VW55x_RELEASE_V1.0.2/MSDK/wpa_supplicant/src/ap\hw_features.c **** 
 438:C:/Users/stapi/OneDrive/Desktop/GD32VW553/V1_MQTT_OK/GD32VW55X_Wifi_BLE_SDK/GD32VW55x_RELEASE_V1.0.2/MSDK/wpa_supplicant/src/ap\hw_features.c **** 	if (iface->current_mode == NULL)
 439:C:/Users/stapi/OneDrive/Desktop/GD32VW553/V1_MQTT_OK/GD32VW55X_Wifi_BLE_SDK/GD32VW55x_RELEASE_V1.0.2/MSDK/wpa_supplicant/src/ap\hw_features.c **** 		return;
 440:C:/Users/stapi/OneDrive/Desktop/GD32VW553/V1_MQTT_OK/GD32VW55X_Wifi_BLE_SDK/GD32VW55x_RELEASE_V1.0.2/MSDK/wpa_supplicant/src/ap\hw_features.c **** 
 441:C:/Users/stapi/OneDrive/Desktop/GD32VW553/V1_MQTT_OK/GD32VW55X_Wifi_BLE_SDK/GD32VW55x_RELEASE_V1.0.2/MSDK/wpa_supplicant/src/ap\hw_features.c **** 	pri_freq = iface->freq;
 442:C:/Users/stapi/OneDrive/Desktop/GD32VW553/V1_MQTT_OK/GD32VW55X_Wifi_BLE_SDK/GD32VW55x_RELEASE_V1.0.2/MSDK/wpa_supplicant/src/ap\hw_features.c **** 	if (iface->conf->secondary_channel > 0) {
 443:C:/Users/stapi/OneDrive/Desktop/GD32VW553/V1_MQTT_OK/GD32VW55X_Wifi_BLE_SDK/GD32VW55x_RELEASE_V1.0.2/MSDK/wpa_supplicant/src/ap\hw_features.c **** 		affected_start = pri_freq - 10;
 444:C:/Users/stapi/OneDrive/Desktop/GD32VW553/V1_MQTT_OK/GD32VW55X_Wifi_BLE_SDK/GD32VW55x_RELEASE_V1.0.2/MSDK/wpa_supplicant/src/ap\hw_features.c **** 		affected_end = pri_freq + 30;
 445:C:/Users/stapi/OneDrive/Desktop/GD32VW553/V1_MQTT_OK/GD32VW55X_Wifi_BLE_SDK/GD32VW55x_RELEASE_V1.0.2/MSDK/wpa_supplicant/src/ap\hw_features.c **** 	} else {
 446:C:/Users/stapi/OneDrive/Desktop/GD32VW553/V1_MQTT_OK/GD32VW55X_Wifi_BLE_SDK/GD32VW55x_RELEASE_V1.0.2/MSDK/wpa_supplicant/src/ap\hw_features.c **** 		affected_start = pri_freq - 30;
 447:C:/Users/stapi/OneDrive/Desktop/GD32VW553/V1_MQTT_OK/GD32VW55X_Wifi_BLE_SDK/GD32VW55x_RELEASE_V1.0.2/MSDK/wpa_supplicant/src/ap\hw_features.c **** 		affected_end = pri_freq + 10;
 448:C:/Users/stapi/OneDrive/Desktop/GD32VW553/V1_MQTT_OK/GD32VW55X_Wifi_BLE_SDK/GD32VW55x_RELEASE_V1.0.2/MSDK/wpa_supplicant/src/ap\hw_features.c **** 	}
 449:C:/Users/stapi/OneDrive/Desktop/GD32VW553/V1_MQTT_OK/GD32VW55X_Wifi_BLE_SDK/GD32VW55x_RELEASE_V1.0.2/MSDK/wpa_supplicant/src/ap\hw_features.c **** 	wpa_printf(MSG_DEBUG, "40 MHz affected channel range: [%d,%d] MHz",
 450:C:/Users/stapi/OneDrive/Desktop/GD32VW553/V1_MQTT_OK/GD32VW55X_Wifi_BLE_SDK/GD32VW55x_RELEASE_V1.0.2/MSDK/wpa_supplicant/src/ap\hw_features.c **** 		   affected_start, affected_end);
 451:C:/Users/stapi/OneDrive/Desktop/GD32VW553/V1_MQTT_OK/GD32VW55X_Wifi_BLE_SDK/GD32VW55x_RELEASE_V1.0.2/MSDK/wpa_supplicant/src/ap\hw_features.c **** 
 452:C:/Users/stapi/OneDrive/Desktop/GD32VW553/V1_MQTT_OK/GD32VW55X_Wifi_BLE_SDK/GD32VW55x_RELEASE_V1.0.2/MSDK/wpa_supplicant/src/ap\hw_features.c **** 	mode = iface->current_mode;
 453:C:/Users/stapi/OneDrive/Desktop/GD32VW553/V1_MQTT_OK/GD32VW55X_Wifi_BLE_SDK/GD32VW55x_RELEASE_V1.0.2/MSDK/wpa_supplicant/src/ap\hw_features.c **** 	params->freqs = os_calloc(mode->num_channels + 1, sizeof(int));
 454:C:/Users/stapi/OneDrive/Desktop/GD32VW553/V1_MQTT_OK/GD32VW55X_Wifi_BLE_SDK/GD32VW55x_RELEASE_V1.0.2/MSDK/wpa_supplicant/src/ap\hw_features.c **** 	if (params->freqs == NULL)
 455:C:/Users/stapi/OneDrive/Desktop/GD32VW553/V1_MQTT_OK/GD32VW55X_Wifi_BLE_SDK/GD32VW55x_RELEASE_V1.0.2/MSDK/wpa_supplicant/src/ap\hw_features.c **** 		return;
 456:C:/Users/stapi/OneDrive/Desktop/GD32VW553/V1_MQTT_OK/GD32VW55X_Wifi_BLE_SDK/GD32VW55x_RELEASE_V1.0.2/MSDK/wpa_supplicant/src/ap\hw_features.c **** 	pos = 0;
 457:C:/Users/stapi/OneDrive/Desktop/GD32VW553/V1_MQTT_OK/GD32VW55X_Wifi_BLE_SDK/GD32VW55x_RELEASE_V1.0.2/MSDK/wpa_supplicant/src/ap\hw_features.c **** 
 458:C:/Users/stapi/OneDrive/Desktop/GD32VW553/V1_MQTT_OK/GD32VW55X_Wifi_BLE_SDK/GD32VW55x_RELEASE_V1.0.2/MSDK/wpa_supplicant/src/ap\hw_features.c **** 	for (i = 0; i < mode->num_channels; i++) {
 459:C:/Users/stapi/OneDrive/Desktop/GD32VW553/V1_MQTT_OK/GD32VW55X_Wifi_BLE_SDK/GD32VW55x_RELEASE_V1.0.2/MSDK/wpa_supplicant/src/ap\hw_features.c **** 		struct hostapd_channel_data *chan = &mode->channels[i];
 460:C:/Users/stapi/OneDrive/Desktop/GD32VW553/V1_MQTT_OK/GD32VW55X_Wifi_BLE_SDK/GD32VW55x_RELEASE_V1.0.2/MSDK/wpa_supplicant/src/ap\hw_features.c **** 		if (chan->flag & HOSTAPD_CHAN_DISABLED)
 461:C:/Users/stapi/OneDrive/Desktop/GD32VW553/V1_MQTT_OK/GD32VW55X_Wifi_BLE_SDK/GD32VW55x_RELEASE_V1.0.2/MSDK/wpa_supplicant/src/ap\hw_features.c **** 			continue;
 462:C:/Users/stapi/OneDrive/Desktop/GD32VW553/V1_MQTT_OK/GD32VW55X_Wifi_BLE_SDK/GD32VW55x_RELEASE_V1.0.2/MSDK/wpa_supplicant/src/ap\hw_features.c **** 		if (chan->freq < affected_start ||
 463:C:/Users/stapi/OneDrive/Desktop/GD32VW553/V1_MQTT_OK/GD32VW55X_Wifi_BLE_SDK/GD32VW55x_RELEASE_V1.0.2/MSDK/wpa_supplicant/src/ap\hw_features.c **** 		    chan->freq > affected_end)
 464:C:/Users/stapi/OneDrive/Desktop/GD32VW553/V1_MQTT_OK/GD32VW55X_Wifi_BLE_SDK/GD32VW55x_RELEASE_V1.0.2/MSDK/wpa_supplicant/src/ap\hw_features.c **** 			continue;
 465:C:/Users/stapi/OneDrive/Desktop/GD32VW553/V1_MQTT_OK/GD32VW55X_Wifi_BLE_SDK/GD32VW55x_RELEASE_V1.0.2/MSDK/wpa_supplicant/src/ap\hw_features.c **** 		params->freqs[pos++] = chan->freq;
 466:C:/Users/stapi/OneDrive/Desktop/GD32VW553/V1_MQTT_OK/GD32VW55X_Wifi_BLE_SDK/GD32VW55x_RELEASE_V1.0.2/MSDK/wpa_supplicant/src/ap\hw_features.c **** 	}
 467:C:/Users/stapi/OneDrive/Desktop/GD32VW553/V1_MQTT_OK/GD32VW55X_Wifi_BLE_SDK/GD32VW55x_RELEASE_V1.0.2/MSDK/wpa_supplicant/src/ap\hw_features.c **** }
 468:C:/Users/stapi/OneDrive/Desktop/GD32VW553/V1_MQTT_OK/GD32VW55X_Wifi_BLE_SDK/GD32VW55x_RELEASE_V1.0.2/MSDK/wpa_supplicant/src/ap\hw_features.c **** 
 469:C:/Users/stapi/OneDrive/Desktop/GD32VW553/V1_MQTT_OK/GD32VW55X_Wifi_BLE_SDK/GD32VW55x_RELEASE_V1.0.2/MSDK/wpa_supplicant/src/ap\hw_features.c **** 
 470:C:/Users/stapi/OneDrive/Desktop/GD32VW553/V1_MQTT_OK/GD32VW55X_Wifi_BLE_SDK/GD32VW55x_RELEASE_V1.0.2/MSDK/wpa_supplicant/src/ap\hw_features.c **** #ifndef CONFIG_AP_NO_40MHZ_AND_MORE
 471:C:/Users/stapi/OneDrive/Desktop/GD32VW553/V1_MQTT_OK/GD32VW55X_Wifi_BLE_SDK/GD32VW55x_RELEASE_V1.0.2/MSDK/wpa_supplicant/src/ap\hw_features.c **** static void ap_ht40_scan_retry(void *eloop_data, void *user_data)
 472:C:/Users/stapi/OneDrive/Desktop/GD32VW553/V1_MQTT_OK/GD32VW55X_Wifi_BLE_SDK/GD32VW55x_RELEASE_V1.0.2/MSDK/wpa_supplicant/src/ap\hw_features.c **** {
 473:C:/Users/stapi/OneDrive/Desktop/GD32VW553/V1_MQTT_OK/GD32VW55X_Wifi_BLE_SDK/GD32VW55x_RELEASE_V1.0.2/MSDK/wpa_supplicant/src/ap\hw_features.c **** #define HT2040_COEX_SCAN_RETRY 15
 474:C:/Users/stapi/OneDrive/Desktop/GD32VW553/V1_MQTT_OK/GD32VW55X_Wifi_BLE_SDK/GD32VW55x_RELEASE_V1.0.2/MSDK/wpa_supplicant/src/ap\hw_features.c **** 	struct hostapd_iface *iface = eloop_data;
 475:C:/Users/stapi/OneDrive/Desktop/GD32VW553/V1_MQTT_OK/GD32VW55X_Wifi_BLE_SDK/GD32VW55x_RELEASE_V1.0.2/MSDK/wpa_supplicant/src/ap\hw_features.c **** 	struct wpa_driver_scan_params params;
 476:C:/Users/stapi/OneDrive/Desktop/GD32VW553/V1_MQTT_OK/GD32VW55X_Wifi_BLE_SDK/GD32VW55x_RELEASE_V1.0.2/MSDK/wpa_supplicant/src/ap\hw_features.c **** 	int ret;
 477:C:/Users/stapi/OneDrive/Desktop/GD32VW553/V1_MQTT_OK/GD32VW55X_Wifi_BLE_SDK/GD32VW55x_RELEASE_V1.0.2/MSDK/wpa_supplicant/src/ap\hw_features.c **** 
 478:C:/Users/stapi/OneDrive/Desktop/GD32VW553/V1_MQTT_OK/GD32VW55X_Wifi_BLE_SDK/GD32VW55x_RELEASE_V1.0.2/MSDK/wpa_supplicant/src/ap\hw_features.c **** 	os_memset(&params, 0, sizeof(params));
 479:C:/Users/stapi/OneDrive/Desktop/GD32VW553/V1_MQTT_OK/GD32VW55X_Wifi_BLE_SDK/GD32VW55x_RELEASE_V1.0.2/MSDK/wpa_supplicant/src/ap\hw_features.c **** 	if (iface->current_mode->mode == HOSTAPD_MODE_IEEE80211G)
 480:C:/Users/stapi/OneDrive/Desktop/GD32VW553/V1_MQTT_OK/GD32VW55X_Wifi_BLE_SDK/GD32VW55x_RELEASE_V1.0.2/MSDK/wpa_supplicant/src/ap\hw_features.c **** 		ieee80211n_scan_channels_2g4(iface, &params);
 481:C:/Users/stapi/OneDrive/Desktop/GD32VW553/V1_MQTT_OK/GD32VW55X_Wifi_BLE_SDK/GD32VW55x_RELEASE_V1.0.2/MSDK/wpa_supplicant/src/ap\hw_features.c **** 	else
 482:C:/Users/stapi/OneDrive/Desktop/GD32VW553/V1_MQTT_OK/GD32VW55X_Wifi_BLE_SDK/GD32VW55x_RELEASE_V1.0.2/MSDK/wpa_supplicant/src/ap\hw_features.c **** 		ieee80211n_scan_channels_5g(iface, &params);
 483:C:/Users/stapi/OneDrive/Desktop/GD32VW553/V1_MQTT_OK/GD32VW55X_Wifi_BLE_SDK/GD32VW55x_RELEASE_V1.0.2/MSDK/wpa_supplicant/src/ap\hw_features.c **** 
 484:C:/Users/stapi/OneDrive/Desktop/GD32VW553/V1_MQTT_OK/GD32VW55X_Wifi_BLE_SDK/GD32VW55x_RELEASE_V1.0.2/MSDK/wpa_supplicant/src/ap\hw_features.c **** 	ret = hostapd_driver_scan(iface->bss[0], &params);
 485:C:/Users/stapi/OneDrive/Desktop/GD32VW553/V1_MQTT_OK/GD32VW55X_Wifi_BLE_SDK/GD32VW55x_RELEASE_V1.0.2/MSDK/wpa_supplicant/src/ap\hw_features.c **** 	iface->num_ht40_scan_tries++;
 486:C:/Users/stapi/OneDrive/Desktop/GD32VW553/V1_MQTT_OK/GD32VW55X_Wifi_BLE_SDK/GD32VW55x_RELEASE_V1.0.2/MSDK/wpa_supplicant/src/ap\hw_features.c **** 	os_free(params.freqs);
 487:C:/Users/stapi/OneDrive/Desktop/GD32VW553/V1_MQTT_OK/GD32VW55X_Wifi_BLE_SDK/GD32VW55x_RELEASE_V1.0.2/MSDK/wpa_supplicant/src/ap\hw_features.c **** 
 488:C:/Users/stapi/OneDrive/Desktop/GD32VW553/V1_MQTT_OK/GD32VW55X_Wifi_BLE_SDK/GD32VW55x_RELEASE_V1.0.2/MSDK/wpa_supplicant/src/ap\hw_features.c **** 	if (ret == -EBUSY &&
 489:C:/Users/stapi/OneDrive/Desktop/GD32VW553/V1_MQTT_OK/GD32VW55X_Wifi_BLE_SDK/GD32VW55x_RELEASE_V1.0.2/MSDK/wpa_supplicant/src/ap\hw_features.c **** 	    iface->num_ht40_scan_tries < HT2040_COEX_SCAN_RETRY) {
 490:C:/Users/stapi/OneDrive/Desktop/GD32VW553/V1_MQTT_OK/GD32VW55X_Wifi_BLE_SDK/GD32VW55x_RELEASE_V1.0.2/MSDK/wpa_supplicant/src/ap\hw_features.c **** 		wpa_printf(MSG_ERROR,
 491:C:/Users/stapi/OneDrive/Desktop/GD32VW553/V1_MQTT_OK/GD32VW55X_Wifi_BLE_SDK/GD32VW55x_RELEASE_V1.0.2/MSDK/wpa_supplicant/src/ap\hw_features.c **** 			   "Failed to request a scan of neighboring BSSes ret=%d (%s) - try to scan again (attempt %d)",
 492:C:/Users/stapi/OneDrive/Desktop/GD32VW553/V1_MQTT_OK/GD32VW55X_Wifi_BLE_SDK/GD32VW55x_RELEASE_V1.0.2/MSDK/wpa_supplicant/src/ap\hw_features.c **** 			   ret, strerror(-ret), iface->num_ht40_scan_tries);
 493:C:/Users/stapi/OneDrive/Desktop/GD32VW553/V1_MQTT_OK/GD32VW55X_Wifi_BLE_SDK/GD32VW55x_RELEASE_V1.0.2/MSDK/wpa_supplicant/src/ap\hw_features.c **** 		eloop_register_timeout(1, 0, ap_ht40_scan_retry, iface, NULL);
 494:C:/Users/stapi/OneDrive/Desktop/GD32VW553/V1_MQTT_OK/GD32VW55X_Wifi_BLE_SDK/GD32VW55x_RELEASE_V1.0.2/MSDK/wpa_supplicant/src/ap\hw_features.c **** 		return;
 495:C:/Users/stapi/OneDrive/Desktop/GD32VW553/V1_MQTT_OK/GD32VW55X_Wifi_BLE_SDK/GD32VW55x_RELEASE_V1.0.2/MSDK/wpa_supplicant/src/ap\hw_features.c **** 	}
 496:C:/Users/stapi/OneDrive/Desktop/GD32VW553/V1_MQTT_OK/GD32VW55X_Wifi_BLE_SDK/GD32VW55x_RELEASE_V1.0.2/MSDK/wpa_supplicant/src/ap\hw_features.c **** 
 497:C:/Users/stapi/OneDrive/Desktop/GD32VW553/V1_MQTT_OK/GD32VW55X_Wifi_BLE_SDK/GD32VW55x_RELEASE_V1.0.2/MSDK/wpa_supplicant/src/ap\hw_features.c **** 	if (ret == 0) {
 498:C:/Users/stapi/OneDrive/Desktop/GD32VW553/V1_MQTT_OK/GD32VW55X_Wifi_BLE_SDK/GD32VW55x_RELEASE_V1.0.2/MSDK/wpa_supplicant/src/ap\hw_features.c **** 		iface->scan_cb = ieee80211n_check_scan;
 499:C:/Users/stapi/OneDrive/Desktop/GD32VW553/V1_MQTT_OK/GD32VW55X_Wifi_BLE_SDK/GD32VW55x_RELEASE_V1.0.2/MSDK/wpa_supplicant/src/ap\hw_features.c **** 		return;
 500:C:/Users/stapi/OneDrive/Desktop/GD32VW553/V1_MQTT_OK/GD32VW55X_Wifi_BLE_SDK/GD32VW55x_RELEASE_V1.0.2/MSDK/wpa_supplicant/src/ap\hw_features.c **** 	}
 501:C:/Users/stapi/OneDrive/Desktop/GD32VW553/V1_MQTT_OK/GD32VW55X_Wifi_BLE_SDK/GD32VW55x_RELEASE_V1.0.2/MSDK/wpa_supplicant/src/ap\hw_features.c **** 
 502:C:/Users/stapi/OneDrive/Desktop/GD32VW553/V1_MQTT_OK/GD32VW55X_Wifi_BLE_SDK/GD32VW55x_RELEASE_V1.0.2/MSDK/wpa_supplicant/src/ap\hw_features.c **** 	wpa_printf(MSG_DEBUG,
 503:C:/Users/stapi/OneDrive/Desktop/GD32VW553/V1_MQTT_OK/GD32VW55X_Wifi_BLE_SDK/GD32VW55x_RELEASE_V1.0.2/MSDK/wpa_supplicant/src/ap\hw_features.c **** 		   "Failed to request a scan in device, bringing up in HT20 mode");
 504:C:/Users/stapi/OneDrive/Desktop/GD32VW553/V1_MQTT_OK/GD32VW55X_Wifi_BLE_SDK/GD32VW55x_RELEASE_V1.0.2/MSDK/wpa_supplicant/src/ap\hw_features.c **** 	iface->conf->secondary_channel = 0;
 505:C:/Users/stapi/OneDrive/Desktop/GD32VW553/V1_MQTT_OK/GD32VW55X_Wifi_BLE_SDK/GD32VW55x_RELEASE_V1.0.2/MSDK/wpa_supplicant/src/ap\hw_features.c **** 	iface->conf->ht_capab &= ~HT_CAP_INFO_SUPP_CHANNEL_WIDTH_SET;
 506:C:/Users/stapi/OneDrive/Desktop/GD32VW553/V1_MQTT_OK/GD32VW55X_Wifi_BLE_SDK/GD32VW55x_RELEASE_V1.0.2/MSDK/wpa_supplicant/src/ap\hw_features.c **** 	hostapd_setup_interface_complete(iface, 0);
 507:C:/Users/stapi/OneDrive/Desktop/GD32VW553/V1_MQTT_OK/GD32VW55X_Wifi_BLE_SDK/GD32VW55x_RELEASE_V1.0.2/MSDK/wpa_supplicant/src/ap\hw_features.c **** }
 508:C:/Users/stapi/OneDrive/Desktop/GD32VW553/V1_MQTT_OK/GD32VW55X_Wifi_BLE_SDK/GD32VW55x_RELEASE_V1.0.2/MSDK/wpa_supplicant/src/ap\hw_features.c **** 
 509:C:/Users/stapi/OneDrive/Desktop/GD32VW553/V1_MQTT_OK/GD32VW55X_Wifi_BLE_SDK/GD32VW55x_RELEASE_V1.0.2/MSDK/wpa_supplicant/src/ap\hw_features.c **** 
 510:C:/Users/stapi/OneDrive/Desktop/GD32VW553/V1_MQTT_OK/GD32VW55X_Wifi_BLE_SDK/GD32VW55x_RELEASE_V1.0.2/MSDK/wpa_supplicant/src/ap\hw_features.c **** void hostapd_stop_setup_timers(struct hostapd_iface *iface)
 511:C:/Users/stapi/OneDrive/Desktop/GD32VW553/V1_MQTT_OK/GD32VW55X_Wifi_BLE_SDK/GD32VW55x_RELEASE_V1.0.2/MSDK/wpa_supplicant/src/ap\hw_features.c **** {
 512:C:/Users/stapi/OneDrive/Desktop/GD32VW553/V1_MQTT_OK/GD32VW55X_Wifi_BLE_SDK/GD32VW55x_RELEASE_V1.0.2/MSDK/wpa_supplicant/src/ap\hw_features.c **** 	eloop_cancel_timeout(ap_ht40_scan_retry, iface, NULL);
 513:C:/Users/stapi/OneDrive/Desktop/GD32VW553/V1_MQTT_OK/GD32VW55X_Wifi_BLE_SDK/GD32VW55x_RELEASE_V1.0.2/MSDK/wpa_supplicant/src/ap\hw_features.c **** }
 514:C:/Users/stapi/OneDrive/Desktop/GD32VW553/V1_MQTT_OK/GD32VW55X_Wifi_BLE_SDK/GD32VW55x_RELEASE_V1.0.2/MSDK/wpa_supplicant/src/ap\hw_features.c **** 
 515:C:/Users/stapi/OneDrive/Desktop/GD32VW553/V1_MQTT_OK/GD32VW55X_Wifi_BLE_SDK/GD32VW55x_RELEASE_V1.0.2/MSDK/wpa_supplicant/src/ap\hw_features.c **** 
 516:C:/Users/stapi/OneDrive/Desktop/GD32VW553/V1_MQTT_OK/GD32VW55X_Wifi_BLE_SDK/GD32VW55x_RELEASE_V1.0.2/MSDK/wpa_supplicant/src/ap\hw_features.c **** static int ieee80211n_check_40mhz(struct hostapd_iface *iface)
 517:C:/Users/stapi/OneDrive/Desktop/GD32VW553/V1_MQTT_OK/GD32VW55X_Wifi_BLE_SDK/GD32VW55x_RELEASE_V1.0.2/MSDK/wpa_supplicant/src/ap\hw_features.c **** {
 518:C:/Users/stapi/OneDrive/Desktop/GD32VW553/V1_MQTT_OK/GD32VW55X_Wifi_BLE_SDK/GD32VW55x_RELEASE_V1.0.2/MSDK/wpa_supplicant/src/ap\hw_features.c **** 	struct wpa_driver_scan_params params;
 519:C:/Users/stapi/OneDrive/Desktop/GD32VW553/V1_MQTT_OK/GD32VW55X_Wifi_BLE_SDK/GD32VW55x_RELEASE_V1.0.2/MSDK/wpa_supplicant/src/ap\hw_features.c **** 	int ret;
 520:C:/Users/stapi/OneDrive/Desktop/GD32VW553/V1_MQTT_OK/GD32VW55X_Wifi_BLE_SDK/GD32VW55x_RELEASE_V1.0.2/MSDK/wpa_supplicant/src/ap\hw_features.c **** 
 521:C:/Users/stapi/OneDrive/Desktop/GD32VW553/V1_MQTT_OK/GD32VW55X_Wifi_BLE_SDK/GD32VW55x_RELEASE_V1.0.2/MSDK/wpa_supplicant/src/ap\hw_features.c **** 	/* Check that HT40 is used and PRI / SEC switch is allowed */
 522:C:/Users/stapi/OneDrive/Desktop/GD32VW553/V1_MQTT_OK/GD32VW55X_Wifi_BLE_SDK/GD32VW55x_RELEASE_V1.0.2/MSDK/wpa_supplicant/src/ap\hw_features.c **** 	if (!iface->conf->secondary_channel || iface->conf->no_pri_sec_switch)
 523:C:/Users/stapi/OneDrive/Desktop/GD32VW553/V1_MQTT_OK/GD32VW55X_Wifi_BLE_SDK/GD32VW55x_RELEASE_V1.0.2/MSDK/wpa_supplicant/src/ap\hw_features.c **** 		return 0;
 524:C:/Users/stapi/OneDrive/Desktop/GD32VW553/V1_MQTT_OK/GD32VW55X_Wifi_BLE_SDK/GD32VW55x_RELEASE_V1.0.2/MSDK/wpa_supplicant/src/ap\hw_features.c **** 
 525:C:/Users/stapi/OneDrive/Desktop/GD32VW553/V1_MQTT_OK/GD32VW55X_Wifi_BLE_SDK/GD32VW55x_RELEASE_V1.0.2/MSDK/wpa_supplicant/src/ap\hw_features.c **** 	hostapd_set_state(iface, HAPD_IFACE_HT_SCAN);
 526:C:/Users/stapi/OneDrive/Desktop/GD32VW553/V1_MQTT_OK/GD32VW55X_Wifi_BLE_SDK/GD32VW55x_RELEASE_V1.0.2/MSDK/wpa_supplicant/src/ap\hw_features.c **** 	wpa_printf(MSG_DEBUG, "Scan for neighboring BSSes prior to enabling "
 527:C:/Users/stapi/OneDrive/Desktop/GD32VW553/V1_MQTT_OK/GD32VW55X_Wifi_BLE_SDK/GD32VW55x_RELEASE_V1.0.2/MSDK/wpa_supplicant/src/ap\hw_features.c **** 		   "40 MHz channel");
 528:C:/Users/stapi/OneDrive/Desktop/GD32VW553/V1_MQTT_OK/GD32VW55X_Wifi_BLE_SDK/GD32VW55x_RELEASE_V1.0.2/MSDK/wpa_supplicant/src/ap\hw_features.c **** 	os_memset(&params, 0, sizeof(params));
 529:C:/Users/stapi/OneDrive/Desktop/GD32VW553/V1_MQTT_OK/GD32VW55X_Wifi_BLE_SDK/GD32VW55x_RELEASE_V1.0.2/MSDK/wpa_supplicant/src/ap\hw_features.c **** 	if (iface->current_mode->mode == HOSTAPD_MODE_IEEE80211G)
 530:C:/Users/stapi/OneDrive/Desktop/GD32VW553/V1_MQTT_OK/GD32VW55X_Wifi_BLE_SDK/GD32VW55x_RELEASE_V1.0.2/MSDK/wpa_supplicant/src/ap\hw_features.c **** 		ieee80211n_scan_channels_2g4(iface, &params);
 531:C:/Users/stapi/OneDrive/Desktop/GD32VW553/V1_MQTT_OK/GD32VW55X_Wifi_BLE_SDK/GD32VW55x_RELEASE_V1.0.2/MSDK/wpa_supplicant/src/ap\hw_features.c **** 	else
 532:C:/Users/stapi/OneDrive/Desktop/GD32VW553/V1_MQTT_OK/GD32VW55X_Wifi_BLE_SDK/GD32VW55x_RELEASE_V1.0.2/MSDK/wpa_supplicant/src/ap\hw_features.c **** 		ieee80211n_scan_channels_5g(iface, &params);
 533:C:/Users/stapi/OneDrive/Desktop/GD32VW553/V1_MQTT_OK/GD32VW55X_Wifi_BLE_SDK/GD32VW55x_RELEASE_V1.0.2/MSDK/wpa_supplicant/src/ap\hw_features.c **** 
 534:C:/Users/stapi/OneDrive/Desktop/GD32VW553/V1_MQTT_OK/GD32VW55X_Wifi_BLE_SDK/GD32VW55x_RELEASE_V1.0.2/MSDK/wpa_supplicant/src/ap\hw_features.c **** 	ret = hostapd_driver_scan(iface->bss[0], &params);
 535:C:/Users/stapi/OneDrive/Desktop/GD32VW553/V1_MQTT_OK/GD32VW55X_Wifi_BLE_SDK/GD32VW55x_RELEASE_V1.0.2/MSDK/wpa_supplicant/src/ap\hw_features.c **** 	os_free(params.freqs);
 536:C:/Users/stapi/OneDrive/Desktop/GD32VW553/V1_MQTT_OK/GD32VW55X_Wifi_BLE_SDK/GD32VW55x_RELEASE_V1.0.2/MSDK/wpa_supplicant/src/ap\hw_features.c **** 
 537:C:/Users/stapi/OneDrive/Desktop/GD32VW553/V1_MQTT_OK/GD32VW55X_Wifi_BLE_SDK/GD32VW55x_RELEASE_V1.0.2/MSDK/wpa_supplicant/src/ap\hw_features.c **** 	if (ret == -EBUSY) {
 538:C:/Users/stapi/OneDrive/Desktop/GD32VW553/V1_MQTT_OK/GD32VW55X_Wifi_BLE_SDK/GD32VW55x_RELEASE_V1.0.2/MSDK/wpa_supplicant/src/ap\hw_features.c **** 		wpa_printf(MSG_ERROR,
 539:C:/Users/stapi/OneDrive/Desktop/GD32VW553/V1_MQTT_OK/GD32VW55X_Wifi_BLE_SDK/GD32VW55x_RELEASE_V1.0.2/MSDK/wpa_supplicant/src/ap\hw_features.c **** 			   "Failed to request a scan of neighboring BSSes ret=%d (%s) - try to scan again",
 540:C:/Users/stapi/OneDrive/Desktop/GD32VW553/V1_MQTT_OK/GD32VW55X_Wifi_BLE_SDK/GD32VW55x_RELEASE_V1.0.2/MSDK/wpa_supplicant/src/ap\hw_features.c **** 			   ret, strerror(-ret));
 541:C:/Users/stapi/OneDrive/Desktop/GD32VW553/V1_MQTT_OK/GD32VW55X_Wifi_BLE_SDK/GD32VW55x_RELEASE_V1.0.2/MSDK/wpa_supplicant/src/ap\hw_features.c **** 		iface->num_ht40_scan_tries = 1;
 542:C:/Users/stapi/OneDrive/Desktop/GD32VW553/V1_MQTT_OK/GD32VW55X_Wifi_BLE_SDK/GD32VW55x_RELEASE_V1.0.2/MSDK/wpa_supplicant/src/ap\hw_features.c **** 		eloop_cancel_timeout(ap_ht40_scan_retry, iface, NULL);
 543:C:/Users/stapi/OneDrive/Desktop/GD32VW553/V1_MQTT_OK/GD32VW55X_Wifi_BLE_SDK/GD32VW55x_RELEASE_V1.0.2/MSDK/wpa_supplicant/src/ap\hw_features.c **** 		eloop_register_timeout(1, 0, ap_ht40_scan_retry, iface, NULL);
 544:C:/Users/stapi/OneDrive/Desktop/GD32VW553/V1_MQTT_OK/GD32VW55X_Wifi_BLE_SDK/GD32VW55x_RELEASE_V1.0.2/MSDK/wpa_supplicant/src/ap\hw_features.c **** 		return 1;
 545:C:/Users/stapi/OneDrive/Desktop/GD32VW553/V1_MQTT_OK/GD32VW55X_Wifi_BLE_SDK/GD32VW55x_RELEASE_V1.0.2/MSDK/wpa_supplicant/src/ap\hw_features.c **** 	}
 546:C:/Users/stapi/OneDrive/Desktop/GD32VW553/V1_MQTT_OK/GD32VW55X_Wifi_BLE_SDK/GD32VW55x_RELEASE_V1.0.2/MSDK/wpa_supplicant/src/ap\hw_features.c **** 
 547:C:/Users/stapi/OneDrive/Desktop/GD32VW553/V1_MQTT_OK/GD32VW55X_Wifi_BLE_SDK/GD32VW55x_RELEASE_V1.0.2/MSDK/wpa_supplicant/src/ap\hw_features.c **** 	if (ret < 0) {
 548:C:/Users/stapi/OneDrive/Desktop/GD32VW553/V1_MQTT_OK/GD32VW55X_Wifi_BLE_SDK/GD32VW55x_RELEASE_V1.0.2/MSDK/wpa_supplicant/src/ap\hw_features.c **** 		wpa_printf(MSG_ERROR,
 549:C:/Users/stapi/OneDrive/Desktop/GD32VW553/V1_MQTT_OK/GD32VW55X_Wifi_BLE_SDK/GD32VW55x_RELEASE_V1.0.2/MSDK/wpa_supplicant/src/ap\hw_features.c **** 			   "Failed to request a scan of neighboring BSSes ret=%d (%s)",
 550:C:/Users/stapi/OneDrive/Desktop/GD32VW553/V1_MQTT_OK/GD32VW55X_Wifi_BLE_SDK/GD32VW55x_RELEASE_V1.0.2/MSDK/wpa_supplicant/src/ap\hw_features.c **** 			   ret, strerror(-ret));
 551:C:/Users/stapi/OneDrive/Desktop/GD32VW553/V1_MQTT_OK/GD32VW55X_Wifi_BLE_SDK/GD32VW55x_RELEASE_V1.0.2/MSDK/wpa_supplicant/src/ap\hw_features.c **** 		return -1;
 552:C:/Users/stapi/OneDrive/Desktop/GD32VW553/V1_MQTT_OK/GD32VW55X_Wifi_BLE_SDK/GD32VW55x_RELEASE_V1.0.2/MSDK/wpa_supplicant/src/ap\hw_features.c **** 	}
 553:C:/Users/stapi/OneDrive/Desktop/GD32VW553/V1_MQTT_OK/GD32VW55X_Wifi_BLE_SDK/GD32VW55x_RELEASE_V1.0.2/MSDK/wpa_supplicant/src/ap\hw_features.c **** 
 554:C:/Users/stapi/OneDrive/Desktop/GD32VW553/V1_MQTT_OK/GD32VW55X_Wifi_BLE_SDK/GD32VW55x_RELEASE_V1.0.2/MSDK/wpa_supplicant/src/ap\hw_features.c **** 	iface->scan_cb = ieee80211n_check_scan;
 555:C:/Users/stapi/OneDrive/Desktop/GD32VW553/V1_MQTT_OK/GD32VW55X_Wifi_BLE_SDK/GD32VW55x_RELEASE_V1.0.2/MSDK/wpa_supplicant/src/ap\hw_features.c **** 	return 1;
 556:C:/Users/stapi/OneDrive/Desktop/GD32VW553/V1_MQTT_OK/GD32VW55X_Wifi_BLE_SDK/GD32VW55x_RELEASE_V1.0.2/MSDK/wpa_supplicant/src/ap\hw_features.c **** }
 557:C:/Users/stapi/OneDrive/Desktop/GD32VW553/V1_MQTT_OK/GD32VW55X_Wifi_BLE_SDK/GD32VW55x_RELEASE_V1.0.2/MSDK/wpa_supplicant/src/ap\hw_features.c **** #endif /* CONFIG_AP_NO_40MHZ_AND_MORE */
 558:C:/Users/stapi/OneDrive/Desktop/GD32VW553/V1_MQTT_OK/GD32VW55X_Wifi_BLE_SDK/GD32VW55x_RELEASE_V1.0.2/MSDK/wpa_supplicant/src/ap\hw_features.c **** 
 559:C:/Users/stapi/OneDrive/Desktop/GD32VW553/V1_MQTT_OK/GD32VW55X_Wifi_BLE_SDK/GD32VW55x_RELEASE_V1.0.2/MSDK/wpa_supplicant/src/ap\hw_features.c **** 
 560:C:/Users/stapi/OneDrive/Desktop/GD32VW553/V1_MQTT_OK/GD32VW55X_Wifi_BLE_SDK/GD32VW55x_RELEASE_V1.0.2/MSDK/wpa_supplicant/src/ap\hw_features.c **** static int ieee80211n_supported_ht_capab(struct hostapd_iface *iface)
 561:C:/Users/stapi/OneDrive/Desktop/GD32VW553/V1_MQTT_OK/GD32VW55X_Wifi_BLE_SDK/GD32VW55x_RELEASE_V1.0.2/MSDK/wpa_supplicant/src/ap\hw_features.c **** {
 562:C:/Users/stapi/OneDrive/Desktop/GD32VW553/V1_MQTT_OK/GD32VW55X_Wifi_BLE_SDK/GD32VW55x_RELEASE_V1.0.2/MSDK/wpa_supplicant/src/ap\hw_features.c **** 	u16 hw = iface->current_mode->ht_capab;
 563:C:/Users/stapi/OneDrive/Desktop/GD32VW553/V1_MQTT_OK/GD32VW55X_Wifi_BLE_SDK/GD32VW55x_RELEASE_V1.0.2/MSDK/wpa_supplicant/src/ap\hw_features.c **** 	u16 conf = iface->conf->ht_capab;
 564:C:/Users/stapi/OneDrive/Desktop/GD32VW553/V1_MQTT_OK/GD32VW55X_Wifi_BLE_SDK/GD32VW55x_RELEASE_V1.0.2/MSDK/wpa_supplicant/src/ap\hw_features.c **** 
 565:C:/Users/stapi/OneDrive/Desktop/GD32VW553/V1_MQTT_OK/GD32VW55X_Wifi_BLE_SDK/GD32VW55x_RELEASE_V1.0.2/MSDK/wpa_supplicant/src/ap\hw_features.c **** 	if ((conf & HT_CAP_INFO_LDPC_CODING_CAP) &&
 566:C:/Users/stapi/OneDrive/Desktop/GD32VW553/V1_MQTT_OK/GD32VW55X_Wifi_BLE_SDK/GD32VW55x_RELEASE_V1.0.2/MSDK/wpa_supplicant/src/ap\hw_features.c **** 	    !(hw & HT_CAP_INFO_LDPC_CODING_CAP)) {
 567:C:/Users/stapi/OneDrive/Desktop/GD32VW553/V1_MQTT_OK/GD32VW55X_Wifi_BLE_SDK/GD32VW55x_RELEASE_V1.0.2/MSDK/wpa_supplicant/src/ap\hw_features.c **** 		wpa_printf(MSG_ERROR, "Driver does not support configured "
 568:C:/Users/stapi/OneDrive/Desktop/GD32VW553/V1_MQTT_OK/GD32VW55X_Wifi_BLE_SDK/GD32VW55x_RELEASE_V1.0.2/MSDK/wpa_supplicant/src/ap\hw_features.c **** 			   "HT capability [LDPC]");
 569:C:/Users/stapi/OneDrive/Desktop/GD32VW553/V1_MQTT_OK/GD32VW55X_Wifi_BLE_SDK/GD32VW55x_RELEASE_V1.0.2/MSDK/wpa_supplicant/src/ap\hw_features.c **** 		return 0;
 570:C:/Users/stapi/OneDrive/Desktop/GD32VW553/V1_MQTT_OK/GD32VW55X_Wifi_BLE_SDK/GD32VW55x_RELEASE_V1.0.2/MSDK/wpa_supplicant/src/ap\hw_features.c **** 	}
 571:C:/Users/stapi/OneDrive/Desktop/GD32VW553/V1_MQTT_OK/GD32VW55X_Wifi_BLE_SDK/GD32VW55x_RELEASE_V1.0.2/MSDK/wpa_supplicant/src/ap\hw_features.c **** 
 572:C:/Users/stapi/OneDrive/Desktop/GD32VW553/V1_MQTT_OK/GD32VW55X_Wifi_BLE_SDK/GD32VW55x_RELEASE_V1.0.2/MSDK/wpa_supplicant/src/ap\hw_features.c **** 	/*
 573:C:/Users/stapi/OneDrive/Desktop/GD32VW553/V1_MQTT_OK/GD32VW55X_Wifi_BLE_SDK/GD32VW55x_RELEASE_V1.0.2/MSDK/wpa_supplicant/src/ap\hw_features.c **** 	 * Driver ACS chosen channel may not be HT40 due to internal driver
 574:C:/Users/stapi/OneDrive/Desktop/GD32VW553/V1_MQTT_OK/GD32VW55X_Wifi_BLE_SDK/GD32VW55x_RELEASE_V1.0.2/MSDK/wpa_supplicant/src/ap\hw_features.c **** 	 * restrictions.
 575:C:/Users/stapi/OneDrive/Desktop/GD32VW553/V1_MQTT_OK/GD32VW55X_Wifi_BLE_SDK/GD32VW55x_RELEASE_V1.0.2/MSDK/wpa_supplicant/src/ap\hw_features.c **** 	 */
 576:C:/Users/stapi/OneDrive/Desktop/GD32VW553/V1_MQTT_OK/GD32VW55X_Wifi_BLE_SDK/GD32VW55x_RELEASE_V1.0.2/MSDK/wpa_supplicant/src/ap\hw_features.c **** 	if (!iface->conf->acs && (conf & HT_CAP_INFO_SUPP_CHANNEL_WIDTH_SET) &&
 577:C:/Users/stapi/OneDrive/Desktop/GD32VW553/V1_MQTT_OK/GD32VW55X_Wifi_BLE_SDK/GD32VW55x_RELEASE_V1.0.2/MSDK/wpa_supplicant/src/ap\hw_features.c **** 	    !(hw & HT_CAP_INFO_SUPP_CHANNEL_WIDTH_SET)) {
 578:C:/Users/stapi/OneDrive/Desktop/GD32VW553/V1_MQTT_OK/GD32VW55X_Wifi_BLE_SDK/GD32VW55x_RELEASE_V1.0.2/MSDK/wpa_supplicant/src/ap\hw_features.c **** 		wpa_printf(MSG_ERROR, "Driver does not support configured "
 579:C:/Users/stapi/OneDrive/Desktop/GD32VW553/V1_MQTT_OK/GD32VW55X_Wifi_BLE_SDK/GD32VW55x_RELEASE_V1.0.2/MSDK/wpa_supplicant/src/ap\hw_features.c **** 			   "HT capability [HT40*]");
 580:C:/Users/stapi/OneDrive/Desktop/GD32VW553/V1_MQTT_OK/GD32VW55X_Wifi_BLE_SDK/GD32VW55x_RELEASE_V1.0.2/MSDK/wpa_supplicant/src/ap\hw_features.c **** 		return 0;
 581:C:/Users/stapi/OneDrive/Desktop/GD32VW553/V1_MQTT_OK/GD32VW55X_Wifi_BLE_SDK/GD32VW55x_RELEASE_V1.0.2/MSDK/wpa_supplicant/src/ap\hw_features.c **** 	}
 582:C:/Users/stapi/OneDrive/Desktop/GD32VW553/V1_MQTT_OK/GD32VW55X_Wifi_BLE_SDK/GD32VW55x_RELEASE_V1.0.2/MSDK/wpa_supplicant/src/ap\hw_features.c **** 
 583:C:/Users/stapi/OneDrive/Desktop/GD32VW553/V1_MQTT_OK/GD32VW55X_Wifi_BLE_SDK/GD32VW55x_RELEASE_V1.0.2/MSDK/wpa_supplicant/src/ap\hw_features.c **** 	if ((conf & HT_CAP_INFO_GREEN_FIELD) &&
 584:C:/Users/stapi/OneDrive/Desktop/GD32VW553/V1_MQTT_OK/GD32VW55X_Wifi_BLE_SDK/GD32VW55x_RELEASE_V1.0.2/MSDK/wpa_supplicant/src/ap\hw_features.c **** 	    !(hw & HT_CAP_INFO_GREEN_FIELD)) {
 585:C:/Users/stapi/OneDrive/Desktop/GD32VW553/V1_MQTT_OK/GD32VW55X_Wifi_BLE_SDK/GD32VW55x_RELEASE_V1.0.2/MSDK/wpa_supplicant/src/ap\hw_features.c **** 		wpa_printf(MSG_ERROR, "Driver does not support configured "
 586:C:/Users/stapi/OneDrive/Desktop/GD32VW553/V1_MQTT_OK/GD32VW55X_Wifi_BLE_SDK/GD32VW55x_RELEASE_V1.0.2/MSDK/wpa_supplicant/src/ap\hw_features.c **** 			   "HT capability [GF]");
 587:C:/Users/stapi/OneDrive/Desktop/GD32VW553/V1_MQTT_OK/GD32VW55X_Wifi_BLE_SDK/GD32VW55x_RELEASE_V1.0.2/MSDK/wpa_supplicant/src/ap\hw_features.c **** 		return 0;
 588:C:/Users/stapi/OneDrive/Desktop/GD32VW553/V1_MQTT_OK/GD32VW55X_Wifi_BLE_SDK/GD32VW55x_RELEASE_V1.0.2/MSDK/wpa_supplicant/src/ap\hw_features.c **** 	}
 589:C:/Users/stapi/OneDrive/Desktop/GD32VW553/V1_MQTT_OK/GD32VW55X_Wifi_BLE_SDK/GD32VW55x_RELEASE_V1.0.2/MSDK/wpa_supplicant/src/ap\hw_features.c **** 
 590:C:/Users/stapi/OneDrive/Desktop/GD32VW553/V1_MQTT_OK/GD32VW55X_Wifi_BLE_SDK/GD32VW55x_RELEASE_V1.0.2/MSDK/wpa_supplicant/src/ap\hw_features.c **** 	if ((conf & HT_CAP_INFO_SHORT_GI20MHZ) &&
 591:C:/Users/stapi/OneDrive/Desktop/GD32VW553/V1_MQTT_OK/GD32VW55X_Wifi_BLE_SDK/GD32VW55x_RELEASE_V1.0.2/MSDK/wpa_supplicant/src/ap\hw_features.c **** 	    !(hw & HT_CAP_INFO_SHORT_GI20MHZ)) {
 592:C:/Users/stapi/OneDrive/Desktop/GD32VW553/V1_MQTT_OK/GD32VW55X_Wifi_BLE_SDK/GD32VW55x_RELEASE_V1.0.2/MSDK/wpa_supplicant/src/ap\hw_features.c **** 		wpa_printf(MSG_ERROR, "Driver does not support configured "
 593:C:/Users/stapi/OneDrive/Desktop/GD32VW553/V1_MQTT_OK/GD32VW55X_Wifi_BLE_SDK/GD32VW55x_RELEASE_V1.0.2/MSDK/wpa_supplicant/src/ap\hw_features.c **** 			   "HT capability [SHORT-GI-20]");
 594:C:/Users/stapi/OneDrive/Desktop/GD32VW553/V1_MQTT_OK/GD32VW55X_Wifi_BLE_SDK/GD32VW55x_RELEASE_V1.0.2/MSDK/wpa_supplicant/src/ap\hw_features.c **** 		return 0;
 595:C:/Users/stapi/OneDrive/Desktop/GD32VW553/V1_MQTT_OK/GD32VW55X_Wifi_BLE_SDK/GD32VW55x_RELEASE_V1.0.2/MSDK/wpa_supplicant/src/ap\hw_features.c **** 	}
 596:C:/Users/stapi/OneDrive/Desktop/GD32VW553/V1_MQTT_OK/GD32VW55X_Wifi_BLE_SDK/GD32VW55x_RELEASE_V1.0.2/MSDK/wpa_supplicant/src/ap\hw_features.c **** 
 597:C:/Users/stapi/OneDrive/Desktop/GD32VW553/V1_MQTT_OK/GD32VW55X_Wifi_BLE_SDK/GD32VW55x_RELEASE_V1.0.2/MSDK/wpa_supplicant/src/ap\hw_features.c **** 	if ((conf & HT_CAP_INFO_SHORT_GI40MHZ) &&
 598:C:/Users/stapi/OneDrive/Desktop/GD32VW553/V1_MQTT_OK/GD32VW55X_Wifi_BLE_SDK/GD32VW55x_RELEASE_V1.0.2/MSDK/wpa_supplicant/src/ap\hw_features.c **** 	    !(hw & HT_CAP_INFO_SHORT_GI40MHZ)) {
 599:C:/Users/stapi/OneDrive/Desktop/GD32VW553/V1_MQTT_OK/GD32VW55X_Wifi_BLE_SDK/GD32VW55x_RELEASE_V1.0.2/MSDK/wpa_supplicant/src/ap\hw_features.c **** 		wpa_printf(MSG_ERROR, "Driver does not support configured "
 600:C:/Users/stapi/OneDrive/Desktop/GD32VW553/V1_MQTT_OK/GD32VW55X_Wifi_BLE_SDK/GD32VW55x_RELEASE_V1.0.2/MSDK/wpa_supplicant/src/ap\hw_features.c **** 			   "HT capability [SHORT-GI-40]");
 601:C:/Users/stapi/OneDrive/Desktop/GD32VW553/V1_MQTT_OK/GD32VW55X_Wifi_BLE_SDK/GD32VW55x_RELEASE_V1.0.2/MSDK/wpa_supplicant/src/ap\hw_features.c **** 		return 0;
 602:C:/Users/stapi/OneDrive/Desktop/GD32VW553/V1_MQTT_OK/GD32VW55X_Wifi_BLE_SDK/GD32VW55x_RELEASE_V1.0.2/MSDK/wpa_supplicant/src/ap\hw_features.c **** 	}
 603:C:/Users/stapi/OneDrive/Desktop/GD32VW553/V1_MQTT_OK/GD32VW55X_Wifi_BLE_SDK/GD32VW55x_RELEASE_V1.0.2/MSDK/wpa_supplicant/src/ap\hw_features.c **** 
 604:C:/Users/stapi/OneDrive/Desktop/GD32VW553/V1_MQTT_OK/GD32VW55X_Wifi_BLE_SDK/GD32VW55x_RELEASE_V1.0.2/MSDK/wpa_supplicant/src/ap\hw_features.c **** 	if ((conf & HT_CAP_INFO_TX_STBC) && !(hw & HT_CAP_INFO_TX_STBC)) {
 605:C:/Users/stapi/OneDrive/Desktop/GD32VW553/V1_MQTT_OK/GD32VW55X_Wifi_BLE_SDK/GD32VW55x_RELEASE_V1.0.2/MSDK/wpa_supplicant/src/ap\hw_features.c **** 		wpa_printf(MSG_ERROR, "Driver does not support configured "
 606:C:/Users/stapi/OneDrive/Desktop/GD32VW553/V1_MQTT_OK/GD32VW55X_Wifi_BLE_SDK/GD32VW55x_RELEASE_V1.0.2/MSDK/wpa_supplicant/src/ap\hw_features.c **** 			   "HT capability [TX-STBC]");
 607:C:/Users/stapi/OneDrive/Desktop/GD32VW553/V1_MQTT_OK/GD32VW55X_Wifi_BLE_SDK/GD32VW55x_RELEASE_V1.0.2/MSDK/wpa_supplicant/src/ap\hw_features.c **** 		return 0;
 608:C:/Users/stapi/OneDrive/Desktop/GD32VW553/V1_MQTT_OK/GD32VW55X_Wifi_BLE_SDK/GD32VW55x_RELEASE_V1.0.2/MSDK/wpa_supplicant/src/ap\hw_features.c **** 	}
 609:C:/Users/stapi/OneDrive/Desktop/GD32VW553/V1_MQTT_OK/GD32VW55X_Wifi_BLE_SDK/GD32VW55x_RELEASE_V1.0.2/MSDK/wpa_supplicant/src/ap\hw_features.c **** 
 610:C:/Users/stapi/OneDrive/Desktop/GD32VW553/V1_MQTT_OK/GD32VW55X_Wifi_BLE_SDK/GD32VW55x_RELEASE_V1.0.2/MSDK/wpa_supplicant/src/ap\hw_features.c **** 	if ((conf & HT_CAP_INFO_RX_STBC_MASK) >
 611:C:/Users/stapi/OneDrive/Desktop/GD32VW553/V1_MQTT_OK/GD32VW55X_Wifi_BLE_SDK/GD32VW55x_RELEASE_V1.0.2/MSDK/wpa_supplicant/src/ap\hw_features.c **** 	    (hw & HT_CAP_INFO_RX_STBC_MASK)) {
 612:C:/Users/stapi/OneDrive/Desktop/GD32VW553/V1_MQTT_OK/GD32VW55X_Wifi_BLE_SDK/GD32VW55x_RELEASE_V1.0.2/MSDK/wpa_supplicant/src/ap\hw_features.c **** 		wpa_printf(MSG_ERROR, "Driver does not support configured "
 613:C:/Users/stapi/OneDrive/Desktop/GD32VW553/V1_MQTT_OK/GD32VW55X_Wifi_BLE_SDK/GD32VW55x_RELEASE_V1.0.2/MSDK/wpa_supplicant/src/ap\hw_features.c **** 			   "HT capability [RX-STBC*]");
 614:C:/Users/stapi/OneDrive/Desktop/GD32VW553/V1_MQTT_OK/GD32VW55X_Wifi_BLE_SDK/GD32VW55x_RELEASE_V1.0.2/MSDK/wpa_supplicant/src/ap\hw_features.c **** 		return 0;
 615:C:/Users/stapi/OneDrive/Desktop/GD32VW553/V1_MQTT_OK/GD32VW55X_Wifi_BLE_SDK/GD32VW55x_RELEASE_V1.0.2/MSDK/wpa_supplicant/src/ap\hw_features.c **** 	}
 616:C:/Users/stapi/OneDrive/Desktop/GD32VW553/V1_MQTT_OK/GD32VW55X_Wifi_BLE_SDK/GD32VW55x_RELEASE_V1.0.2/MSDK/wpa_supplicant/src/ap\hw_features.c **** 
 617:C:/Users/stapi/OneDrive/Desktop/GD32VW553/V1_MQTT_OK/GD32VW55X_Wifi_BLE_SDK/GD32VW55x_RELEASE_V1.0.2/MSDK/wpa_supplicant/src/ap\hw_features.c **** 	if ((conf & HT_CAP_INFO_DELAYED_BA) &&
 618:C:/Users/stapi/OneDrive/Desktop/GD32VW553/V1_MQTT_OK/GD32VW55X_Wifi_BLE_SDK/GD32VW55x_RELEASE_V1.0.2/MSDK/wpa_supplicant/src/ap\hw_features.c **** 	    !(hw & HT_CAP_INFO_DELAYED_BA)) {
 619:C:/Users/stapi/OneDrive/Desktop/GD32VW553/V1_MQTT_OK/GD32VW55X_Wifi_BLE_SDK/GD32VW55x_RELEASE_V1.0.2/MSDK/wpa_supplicant/src/ap\hw_features.c **** 		wpa_printf(MSG_ERROR, "Driver does not support configured "
 620:C:/Users/stapi/OneDrive/Desktop/GD32VW553/V1_MQTT_OK/GD32VW55X_Wifi_BLE_SDK/GD32VW55x_RELEASE_V1.0.2/MSDK/wpa_supplicant/src/ap\hw_features.c **** 			   "HT capability [DELAYED-BA]");
 621:C:/Users/stapi/OneDrive/Desktop/GD32VW553/V1_MQTT_OK/GD32VW55X_Wifi_BLE_SDK/GD32VW55x_RELEASE_V1.0.2/MSDK/wpa_supplicant/src/ap\hw_features.c **** 		return 0;
 622:C:/Users/stapi/OneDrive/Desktop/GD32VW553/V1_MQTT_OK/GD32VW55X_Wifi_BLE_SDK/GD32VW55x_RELEASE_V1.0.2/MSDK/wpa_supplicant/src/ap\hw_features.c **** 	}
 623:C:/Users/stapi/OneDrive/Desktop/GD32VW553/V1_MQTT_OK/GD32VW55X_Wifi_BLE_SDK/GD32VW55x_RELEASE_V1.0.2/MSDK/wpa_supplicant/src/ap\hw_features.c **** 
 624:C:/Users/stapi/OneDrive/Desktop/GD32VW553/V1_MQTT_OK/GD32VW55X_Wifi_BLE_SDK/GD32VW55x_RELEASE_V1.0.2/MSDK/wpa_supplicant/src/ap\hw_features.c **** 	if ((conf & HT_CAP_INFO_MAX_AMSDU_SIZE) &&
 625:C:/Users/stapi/OneDrive/Desktop/GD32VW553/V1_MQTT_OK/GD32VW55X_Wifi_BLE_SDK/GD32VW55x_RELEASE_V1.0.2/MSDK/wpa_supplicant/src/ap\hw_features.c **** 	    !(hw & HT_CAP_INFO_MAX_AMSDU_SIZE)) {
 626:C:/Users/stapi/OneDrive/Desktop/GD32VW553/V1_MQTT_OK/GD32VW55X_Wifi_BLE_SDK/GD32VW55x_RELEASE_V1.0.2/MSDK/wpa_supplicant/src/ap\hw_features.c **** 		wpa_printf(MSG_ERROR, "Driver does not support configured "
 627:C:/Users/stapi/OneDrive/Desktop/GD32VW553/V1_MQTT_OK/GD32VW55X_Wifi_BLE_SDK/GD32VW55x_RELEASE_V1.0.2/MSDK/wpa_supplicant/src/ap\hw_features.c **** 			   "HT capability [MAX-AMSDU-7935]");
 628:C:/Users/stapi/OneDrive/Desktop/GD32VW553/V1_MQTT_OK/GD32VW55X_Wifi_BLE_SDK/GD32VW55x_RELEASE_V1.0.2/MSDK/wpa_supplicant/src/ap\hw_features.c **** 		return 0;
 629:C:/Users/stapi/OneDrive/Desktop/GD32VW553/V1_MQTT_OK/GD32VW55X_Wifi_BLE_SDK/GD32VW55x_RELEASE_V1.0.2/MSDK/wpa_supplicant/src/ap\hw_features.c **** 	}
 630:C:/Users/stapi/OneDrive/Desktop/GD32VW553/V1_MQTT_OK/GD32VW55X_Wifi_BLE_SDK/GD32VW55x_RELEASE_V1.0.2/MSDK/wpa_supplicant/src/ap\hw_features.c **** 
 631:C:/Users/stapi/OneDrive/Desktop/GD32VW553/V1_MQTT_OK/GD32VW55X_Wifi_BLE_SDK/GD32VW55x_RELEASE_V1.0.2/MSDK/wpa_supplicant/src/ap\hw_features.c **** 	if ((conf & HT_CAP_INFO_DSSS_CCK40MHZ) &&
 632:C:/Users/stapi/OneDrive/Desktop/GD32VW553/V1_MQTT_OK/GD32VW55X_Wifi_BLE_SDK/GD32VW55x_RELEASE_V1.0.2/MSDK/wpa_supplicant/src/ap\hw_features.c **** 	    !(hw & HT_CAP_INFO_DSSS_CCK40MHZ)) {
 633:C:/Users/stapi/OneDrive/Desktop/GD32VW553/V1_MQTT_OK/GD32VW55X_Wifi_BLE_SDK/GD32VW55x_RELEASE_V1.0.2/MSDK/wpa_supplicant/src/ap\hw_features.c **** 		wpa_printf(MSG_ERROR, "Driver does not support configured "
 634:C:/Users/stapi/OneDrive/Desktop/GD32VW553/V1_MQTT_OK/GD32VW55X_Wifi_BLE_SDK/GD32VW55x_RELEASE_V1.0.2/MSDK/wpa_supplicant/src/ap\hw_features.c **** 			   "HT capability [DSSS_CCK-40]");
 635:C:/Users/stapi/OneDrive/Desktop/GD32VW553/V1_MQTT_OK/GD32VW55X_Wifi_BLE_SDK/GD32VW55x_RELEASE_V1.0.2/MSDK/wpa_supplicant/src/ap\hw_features.c **** 		return 0;
 636:C:/Users/stapi/OneDrive/Desktop/GD32VW553/V1_MQTT_OK/GD32VW55X_Wifi_BLE_SDK/GD32VW55x_RELEASE_V1.0.2/MSDK/wpa_supplicant/src/ap\hw_features.c **** 	}
 637:C:/Users/stapi/OneDrive/Desktop/GD32VW553/V1_MQTT_OK/GD32VW55X_Wifi_BLE_SDK/GD32VW55x_RELEASE_V1.0.2/MSDK/wpa_supplicant/src/ap\hw_features.c **** 
 638:C:/Users/stapi/OneDrive/Desktop/GD32VW553/V1_MQTT_OK/GD32VW55X_Wifi_BLE_SDK/GD32VW55x_RELEASE_V1.0.2/MSDK/wpa_supplicant/src/ap\hw_features.c **** 	if ((conf & HT_CAP_INFO_LSIG_TXOP_PROTECT_SUPPORT) &&
 639:C:/Users/stapi/OneDrive/Desktop/GD32VW553/V1_MQTT_OK/GD32VW55X_Wifi_BLE_SDK/GD32VW55x_RELEASE_V1.0.2/MSDK/wpa_supplicant/src/ap\hw_features.c **** 	    !(hw & HT_CAP_INFO_LSIG_TXOP_PROTECT_SUPPORT)) {
 640:C:/Users/stapi/OneDrive/Desktop/GD32VW553/V1_MQTT_OK/GD32VW55X_Wifi_BLE_SDK/GD32VW55x_RELEASE_V1.0.2/MSDK/wpa_supplicant/src/ap\hw_features.c **** 		wpa_printf(MSG_ERROR, "Driver does not support configured "
 641:C:/Users/stapi/OneDrive/Desktop/GD32VW553/V1_MQTT_OK/GD32VW55X_Wifi_BLE_SDK/GD32VW55x_RELEASE_V1.0.2/MSDK/wpa_supplicant/src/ap\hw_features.c **** 			   "HT capability [LSIG-TXOP-PROT]");
 642:C:/Users/stapi/OneDrive/Desktop/GD32VW553/V1_MQTT_OK/GD32VW55X_Wifi_BLE_SDK/GD32VW55x_RELEASE_V1.0.2/MSDK/wpa_supplicant/src/ap\hw_features.c **** 		return 0;
 643:C:/Users/stapi/OneDrive/Desktop/GD32VW553/V1_MQTT_OK/GD32VW55X_Wifi_BLE_SDK/GD32VW55x_RELEASE_V1.0.2/MSDK/wpa_supplicant/src/ap\hw_features.c **** 	}
 644:C:/Users/stapi/OneDrive/Desktop/GD32VW553/V1_MQTT_OK/GD32VW55X_Wifi_BLE_SDK/GD32VW55x_RELEASE_V1.0.2/MSDK/wpa_supplicant/src/ap\hw_features.c **** 
 645:C:/Users/stapi/OneDrive/Desktop/GD32VW553/V1_MQTT_OK/GD32VW55X_Wifi_BLE_SDK/GD32VW55x_RELEASE_V1.0.2/MSDK/wpa_supplicant/src/ap\hw_features.c **** 	return 1;
 646:C:/Users/stapi/OneDrive/Desktop/GD32VW553/V1_MQTT_OK/GD32VW55X_Wifi_BLE_SDK/GD32VW55x_RELEASE_V1.0.2/MSDK/wpa_supplicant/src/ap\hw_features.c **** }
 647:C:/Users/stapi/OneDrive/Desktop/GD32VW553/V1_MQTT_OK/GD32VW55X_Wifi_BLE_SDK/GD32VW55x_RELEASE_V1.0.2/MSDK/wpa_supplicant/src/ap\hw_features.c **** 
 648:C:/Users/stapi/OneDrive/Desktop/GD32VW553/V1_MQTT_OK/GD32VW55X_Wifi_BLE_SDK/GD32VW55x_RELEASE_V1.0.2/MSDK/wpa_supplicant/src/ap\hw_features.c **** 
 649:C:/Users/stapi/OneDrive/Desktop/GD32VW553/V1_MQTT_OK/GD32VW55X_Wifi_BLE_SDK/GD32VW55x_RELEASE_V1.0.2/MSDK/wpa_supplicant/src/ap\hw_features.c **** #ifdef CONFIG_IEEE80211AC
 650:C:/Users/stapi/OneDrive/Desktop/GD32VW553/V1_MQTT_OK/GD32VW55X_Wifi_BLE_SDK/GD32VW55x_RELEASE_V1.0.2/MSDK/wpa_supplicant/src/ap\hw_features.c **** static int ieee80211ac_supported_vht_capab(struct hostapd_iface *iface)
 651:C:/Users/stapi/OneDrive/Desktop/GD32VW553/V1_MQTT_OK/GD32VW55X_Wifi_BLE_SDK/GD32VW55x_RELEASE_V1.0.2/MSDK/wpa_supplicant/src/ap\hw_features.c **** {
 652:C:/Users/stapi/OneDrive/Desktop/GD32VW553/V1_MQTT_OK/GD32VW55X_Wifi_BLE_SDK/GD32VW55x_RELEASE_V1.0.2/MSDK/wpa_supplicant/src/ap\hw_features.c **** 	struct hostapd_hw_modes *mode = iface->current_mode;
 653:C:/Users/stapi/OneDrive/Desktop/GD32VW553/V1_MQTT_OK/GD32VW55X_Wifi_BLE_SDK/GD32VW55x_RELEASE_V1.0.2/MSDK/wpa_supplicant/src/ap\hw_features.c **** 	u32 hw = mode->vht_capab;
 654:C:/Users/stapi/OneDrive/Desktop/GD32VW553/V1_MQTT_OK/GD32VW55X_Wifi_BLE_SDK/GD32VW55x_RELEASE_V1.0.2/MSDK/wpa_supplicant/src/ap\hw_features.c **** 	u32 conf = iface->conf->vht_capab;
 655:C:/Users/stapi/OneDrive/Desktop/GD32VW553/V1_MQTT_OK/GD32VW55X_Wifi_BLE_SDK/GD32VW55x_RELEASE_V1.0.2/MSDK/wpa_supplicant/src/ap\hw_features.c **** 
 656:C:/Users/stapi/OneDrive/Desktop/GD32VW553/V1_MQTT_OK/GD32VW55X_Wifi_BLE_SDK/GD32VW55x_RELEASE_V1.0.2/MSDK/wpa_supplicant/src/ap\hw_features.c **** 	wpa_printf(MSG_DEBUG, "hw vht capab: 0x%x, conf vht capab: 0x%x",
 657:C:/Users/stapi/OneDrive/Desktop/GD32VW553/V1_MQTT_OK/GD32VW55X_Wifi_BLE_SDK/GD32VW55x_RELEASE_V1.0.2/MSDK/wpa_supplicant/src/ap\hw_features.c **** 		   hw, conf);
 658:C:/Users/stapi/OneDrive/Desktop/GD32VW553/V1_MQTT_OK/GD32VW55X_Wifi_BLE_SDK/GD32VW55x_RELEASE_V1.0.2/MSDK/wpa_supplicant/src/ap\hw_features.c **** 
 659:C:/Users/stapi/OneDrive/Desktop/GD32VW553/V1_MQTT_OK/GD32VW55X_Wifi_BLE_SDK/GD32VW55x_RELEASE_V1.0.2/MSDK/wpa_supplicant/src/ap\hw_features.c **** 	if (mode->mode == HOSTAPD_MODE_IEEE80211G &&
 660:C:/Users/stapi/OneDrive/Desktop/GD32VW553/V1_MQTT_OK/GD32VW55X_Wifi_BLE_SDK/GD32VW55x_RELEASE_V1.0.2/MSDK/wpa_supplicant/src/ap\hw_features.c **** 	    iface->conf->bss[0]->vendor_vht &&
 661:C:/Users/stapi/OneDrive/Desktop/GD32VW553/V1_MQTT_OK/GD32VW55X_Wifi_BLE_SDK/GD32VW55x_RELEASE_V1.0.2/MSDK/wpa_supplicant/src/ap\hw_features.c **** 	    mode->vht_capab == 0 && iface->hw_features) {
 662:C:/Users/stapi/OneDrive/Desktop/GD32VW553/V1_MQTT_OK/GD32VW55X_Wifi_BLE_SDK/GD32VW55x_RELEASE_V1.0.2/MSDK/wpa_supplicant/src/ap\hw_features.c **** 		int i;
 663:C:/Users/stapi/OneDrive/Desktop/GD32VW553/V1_MQTT_OK/GD32VW55X_Wifi_BLE_SDK/GD32VW55x_RELEASE_V1.0.2/MSDK/wpa_supplicant/src/ap\hw_features.c **** 
 664:C:/Users/stapi/OneDrive/Desktop/GD32VW553/V1_MQTT_OK/GD32VW55X_Wifi_BLE_SDK/GD32VW55x_RELEASE_V1.0.2/MSDK/wpa_supplicant/src/ap\hw_features.c **** 		for (i = 0; i < iface->num_hw_features; i++) {
 665:C:/Users/stapi/OneDrive/Desktop/GD32VW553/V1_MQTT_OK/GD32VW55X_Wifi_BLE_SDK/GD32VW55x_RELEASE_V1.0.2/MSDK/wpa_supplicant/src/ap\hw_features.c **** 			if (iface->hw_features[i].mode ==
 666:C:/Users/stapi/OneDrive/Desktop/GD32VW553/V1_MQTT_OK/GD32VW55X_Wifi_BLE_SDK/GD32VW55x_RELEASE_V1.0.2/MSDK/wpa_supplicant/src/ap\hw_features.c **** 			    HOSTAPD_MODE_IEEE80211A) {
 667:C:/Users/stapi/OneDrive/Desktop/GD32VW553/V1_MQTT_OK/GD32VW55X_Wifi_BLE_SDK/GD32VW55x_RELEASE_V1.0.2/MSDK/wpa_supplicant/src/ap\hw_features.c **** 				mode = &iface->hw_features[i];
 668:C:/Users/stapi/OneDrive/Desktop/GD32VW553/V1_MQTT_OK/GD32VW55X_Wifi_BLE_SDK/GD32VW55x_RELEASE_V1.0.2/MSDK/wpa_supplicant/src/ap\hw_features.c **** 				hw = mode->vht_capab;
 669:C:/Users/stapi/OneDrive/Desktop/GD32VW553/V1_MQTT_OK/GD32VW55X_Wifi_BLE_SDK/GD32VW55x_RELEASE_V1.0.2/MSDK/wpa_supplicant/src/ap\hw_features.c **** 				wpa_printf(MSG_DEBUG,
 670:C:/Users/stapi/OneDrive/Desktop/GD32VW553/V1_MQTT_OK/GD32VW55X_Wifi_BLE_SDK/GD32VW55x_RELEASE_V1.0.2/MSDK/wpa_supplicant/src/ap\hw_features.c **** 					   "update hw vht capab based on 5 GHz band: 0x%x",
 671:C:/Users/stapi/OneDrive/Desktop/GD32VW553/V1_MQTT_OK/GD32VW55X_Wifi_BLE_SDK/GD32VW55x_RELEASE_V1.0.2/MSDK/wpa_supplicant/src/ap\hw_features.c **** 					   hw);
 672:C:/Users/stapi/OneDrive/Desktop/GD32VW553/V1_MQTT_OK/GD32VW55X_Wifi_BLE_SDK/GD32VW55x_RELEASE_V1.0.2/MSDK/wpa_supplicant/src/ap\hw_features.c **** 				break;
 673:C:/Users/stapi/OneDrive/Desktop/GD32VW553/V1_MQTT_OK/GD32VW55X_Wifi_BLE_SDK/GD32VW55x_RELEASE_V1.0.2/MSDK/wpa_supplicant/src/ap\hw_features.c **** 			}
 674:C:/Users/stapi/OneDrive/Desktop/GD32VW553/V1_MQTT_OK/GD32VW55X_Wifi_BLE_SDK/GD32VW55x_RELEASE_V1.0.2/MSDK/wpa_supplicant/src/ap\hw_features.c **** 		}
 675:C:/Users/stapi/OneDrive/Desktop/GD32VW553/V1_MQTT_OK/GD32VW55X_Wifi_BLE_SDK/GD32VW55x_RELEASE_V1.0.2/MSDK/wpa_supplicant/src/ap\hw_features.c **** 	}
 676:C:/Users/stapi/OneDrive/Desktop/GD32VW553/V1_MQTT_OK/GD32VW55X_Wifi_BLE_SDK/GD32VW55x_RELEASE_V1.0.2/MSDK/wpa_supplicant/src/ap\hw_features.c **** 
 677:C:/Users/stapi/OneDrive/Desktop/GD32VW553/V1_MQTT_OK/GD32VW55X_Wifi_BLE_SDK/GD32VW55x_RELEASE_V1.0.2/MSDK/wpa_supplicant/src/ap\hw_features.c **** 	return ieee80211ac_cap_check(hw, conf);
 678:C:/Users/stapi/OneDrive/Desktop/GD32VW553/V1_MQTT_OK/GD32VW55X_Wifi_BLE_SDK/GD32VW55x_RELEASE_V1.0.2/MSDK/wpa_supplicant/src/ap\hw_features.c **** }
 679:C:/Users/stapi/OneDrive/Desktop/GD32VW553/V1_MQTT_OK/GD32VW55X_Wifi_BLE_SDK/GD32VW55x_RELEASE_V1.0.2/MSDK/wpa_supplicant/src/ap\hw_features.c **** #endif /* CONFIG_IEEE80211AC */
 680:C:/Users/stapi/OneDrive/Desktop/GD32VW553/V1_MQTT_OK/GD32VW55X_Wifi_BLE_SDK/GD32VW55x_RELEASE_V1.0.2/MSDK/wpa_supplicant/src/ap\hw_features.c **** 
 681:C:/Users/stapi/OneDrive/Desktop/GD32VW553/V1_MQTT_OK/GD32VW55X_Wifi_BLE_SDK/GD32VW55x_RELEASE_V1.0.2/MSDK/wpa_supplicant/src/ap\hw_features.c **** 
 682:C:/Users/stapi/OneDrive/Desktop/GD32VW553/V1_MQTT_OK/GD32VW55X_Wifi_BLE_SDK/GD32VW55x_RELEASE_V1.0.2/MSDK/wpa_supplicant/src/ap\hw_features.c **** #ifdef CONFIG_IEEE80211AX
 683:C:/Users/stapi/OneDrive/Desktop/GD32VW553/V1_MQTT_OK/GD32VW55X_Wifi_BLE_SDK/GD32VW55x_RELEASE_V1.0.2/MSDK/wpa_supplicant/src/ap\hw_features.c **** static int ieee80211ax_supported_he_capab(struct hostapd_iface *iface)
 684:C:/Users/stapi/OneDrive/Desktop/GD32VW553/V1_MQTT_OK/GD32VW55X_Wifi_BLE_SDK/GD32VW55x_RELEASE_V1.0.2/MSDK/wpa_supplicant/src/ap\hw_features.c **** {
 685:C:/Users/stapi/OneDrive/Desktop/GD32VW553/V1_MQTT_OK/GD32VW55X_Wifi_BLE_SDK/GD32VW55x_RELEASE_V1.0.2/MSDK/wpa_supplicant/src/ap\hw_features.c **** 	return 1;
 686:C:/Users/stapi/OneDrive/Desktop/GD32VW553/V1_MQTT_OK/GD32VW55X_Wifi_BLE_SDK/GD32VW55x_RELEASE_V1.0.2/MSDK/wpa_supplicant/src/ap\hw_features.c **** }
 687:C:/Users/stapi/OneDrive/Desktop/GD32VW553/V1_MQTT_OK/GD32VW55X_Wifi_BLE_SDK/GD32VW55x_RELEASE_V1.0.2/MSDK/wpa_supplicant/src/ap\hw_features.c **** #endif /* CONFIG_IEEE80211AX */
 688:C:/Users/stapi/OneDrive/Desktop/GD32VW553/V1_MQTT_OK/GD32VW55X_Wifi_BLE_SDK/GD32VW55x_RELEASE_V1.0.2/MSDK/wpa_supplicant/src/ap\hw_features.c **** 
 689:C:/Users/stapi/OneDrive/Desktop/GD32VW553/V1_MQTT_OK/GD32VW55X_Wifi_BLE_SDK/GD32VW55x_RELEASE_V1.0.2/MSDK/wpa_supplicant/src/ap\hw_features.c **** 
 690:C:/Users/stapi/OneDrive/Desktop/GD32VW553/V1_MQTT_OK/GD32VW55X_Wifi_BLE_SDK/GD32VW55x_RELEASE_V1.0.2/MSDK/wpa_supplicant/src/ap\hw_features.c **** int hostapd_check_ht_capab(struct hostapd_iface *iface)
 691:C:/Users/stapi/OneDrive/Desktop/GD32VW553/V1_MQTT_OK/GD32VW55X_Wifi_BLE_SDK/GD32VW55x_RELEASE_V1.0.2/MSDK/wpa_supplicant/src/ap\hw_features.c **** {
 692:C:/Users/stapi/OneDrive/Desktop/GD32VW553/V1_MQTT_OK/GD32VW55X_Wifi_BLE_SDK/GD32VW55x_RELEASE_V1.0.2/MSDK/wpa_supplicant/src/ap\hw_features.c **** 	int ret;
 693:C:/Users/stapi/OneDrive/Desktop/GD32VW553/V1_MQTT_OK/GD32VW55X_Wifi_BLE_SDK/GD32VW55x_RELEASE_V1.0.2/MSDK/wpa_supplicant/src/ap\hw_features.c **** 
 694:C:/Users/stapi/OneDrive/Desktop/GD32VW553/V1_MQTT_OK/GD32VW55X_Wifi_BLE_SDK/GD32VW55x_RELEASE_V1.0.2/MSDK/wpa_supplicant/src/ap\hw_features.c **** #ifndef CONFIG_AP_NO_5GHZ_AND_MORE
 695:C:/Users/stapi/OneDrive/Desktop/GD32VW553/V1_MQTT_OK/GD32VW55X_Wifi_BLE_SDK/GD32VW55x_RELEASE_V1.0.2/MSDK/wpa_supplicant/src/ap\hw_features.c **** 	if (is_6ghz_freq(iface->freq))
 696:C:/Users/stapi/OneDrive/Desktop/GD32VW553/V1_MQTT_OK/GD32VW55X_Wifi_BLE_SDK/GD32VW55x_RELEASE_V1.0.2/MSDK/wpa_supplicant/src/ap\hw_features.c **** 		return 0;
 697:C:/Users/stapi/OneDrive/Desktop/GD32VW553/V1_MQTT_OK/GD32VW55X_Wifi_BLE_SDK/GD32VW55x_RELEASE_V1.0.2/MSDK/wpa_supplicant/src/ap\hw_features.c **** #endif /* CONFIG_AP_NO_5GHZ_AND_MORE */
 698:C:/Users/stapi/OneDrive/Desktop/GD32VW553/V1_MQTT_OK/GD32VW55X_Wifi_BLE_SDK/GD32VW55x_RELEASE_V1.0.2/MSDK/wpa_supplicant/src/ap\hw_features.c **** 	if (!iface->conf->ieee80211n)
 699:C:/Users/stapi/OneDrive/Desktop/GD32VW553/V1_MQTT_OK/GD32VW55X_Wifi_BLE_SDK/GD32VW55x_RELEASE_V1.0.2/MSDK/wpa_supplicant/src/ap\hw_features.c **** 		return 0;
 700:C:/Users/stapi/OneDrive/Desktop/GD32VW553/V1_MQTT_OK/GD32VW55X_Wifi_BLE_SDK/GD32VW55x_RELEASE_V1.0.2/MSDK/wpa_supplicant/src/ap\hw_features.c **** 
 701:C:/Users/stapi/OneDrive/Desktop/GD32VW553/V1_MQTT_OK/GD32VW55X_Wifi_BLE_SDK/GD32VW55x_RELEASE_V1.0.2/MSDK/wpa_supplicant/src/ap\hw_features.c **** 	if (iface->current_mode->mode != HOSTAPD_MODE_IEEE80211B &&
 702:C:/Users/stapi/OneDrive/Desktop/GD32VW553/V1_MQTT_OK/GD32VW55X_Wifi_BLE_SDK/GD32VW55x_RELEASE_V1.0.2/MSDK/wpa_supplicant/src/ap\hw_features.c **** 	    iface->current_mode->mode != HOSTAPD_MODE_IEEE80211G &&
 703:C:/Users/stapi/OneDrive/Desktop/GD32VW553/V1_MQTT_OK/GD32VW55X_Wifi_BLE_SDK/GD32VW55x_RELEASE_V1.0.2/MSDK/wpa_supplicant/src/ap\hw_features.c **** 	    (iface->conf->ht_capab & HT_CAP_INFO_DSSS_CCK40MHZ)) {
 704:C:/Users/stapi/OneDrive/Desktop/GD32VW553/V1_MQTT_OK/GD32VW55X_Wifi_BLE_SDK/GD32VW55x_RELEASE_V1.0.2/MSDK/wpa_supplicant/src/ap\hw_features.c **** 		wpa_printf(MSG_DEBUG,
 705:C:/Users/stapi/OneDrive/Desktop/GD32VW553/V1_MQTT_OK/GD32VW55X_Wifi_BLE_SDK/GD32VW55x_RELEASE_V1.0.2/MSDK/wpa_supplicant/src/ap\hw_features.c **** 			   "Disable HT capability [DSSS_CCK-40] on 5 GHz band");
 706:C:/Users/stapi/OneDrive/Desktop/GD32VW553/V1_MQTT_OK/GD32VW55X_Wifi_BLE_SDK/GD32VW55x_RELEASE_V1.0.2/MSDK/wpa_supplicant/src/ap\hw_features.c **** 		iface->conf->ht_capab &= ~HT_CAP_INFO_DSSS_CCK40MHZ;
 707:C:/Users/stapi/OneDrive/Desktop/GD32VW553/V1_MQTT_OK/GD32VW55X_Wifi_BLE_SDK/GD32VW55x_RELEASE_V1.0.2/MSDK/wpa_supplicant/src/ap\hw_features.c **** 	}
 708:C:/Users/stapi/OneDrive/Desktop/GD32VW553/V1_MQTT_OK/GD32VW55X_Wifi_BLE_SDK/GD32VW55x_RELEASE_V1.0.2/MSDK/wpa_supplicant/src/ap\hw_features.c **** 
 709:C:/Users/stapi/OneDrive/Desktop/GD32VW553/V1_MQTT_OK/GD32VW55X_Wifi_BLE_SDK/GD32VW55x_RELEASE_V1.0.2/MSDK/wpa_supplicant/src/ap\hw_features.c **** 	if (!ieee80211n_supported_ht_capab(iface))
 710:C:/Users/stapi/OneDrive/Desktop/GD32VW553/V1_MQTT_OK/GD32VW55X_Wifi_BLE_SDK/GD32VW55x_RELEASE_V1.0.2/MSDK/wpa_supplicant/src/ap\hw_features.c **** 		return -1;
 711:C:/Users/stapi/OneDrive/Desktop/GD32VW553/V1_MQTT_OK/GD32VW55X_Wifi_BLE_SDK/GD32VW55x_RELEASE_V1.0.2/MSDK/wpa_supplicant/src/ap\hw_features.c **** #ifdef CONFIG_IEEE80211AX
 712:C:/Users/stapi/OneDrive/Desktop/GD32VW553/V1_MQTT_OK/GD32VW55X_Wifi_BLE_SDK/GD32VW55x_RELEASE_V1.0.2/MSDK/wpa_supplicant/src/ap\hw_features.c **** 	if (iface->conf->ieee80211ax &&
 713:C:/Users/stapi/OneDrive/Desktop/GD32VW553/V1_MQTT_OK/GD32VW55X_Wifi_BLE_SDK/GD32VW55x_RELEASE_V1.0.2/MSDK/wpa_supplicant/src/ap\hw_features.c **** 	    !ieee80211ax_supported_he_capab(iface))
 714:C:/Users/stapi/OneDrive/Desktop/GD32VW553/V1_MQTT_OK/GD32VW55X_Wifi_BLE_SDK/GD32VW55x_RELEASE_V1.0.2/MSDK/wpa_supplicant/src/ap\hw_features.c **** 		return -1;
 715:C:/Users/stapi/OneDrive/Desktop/GD32VW553/V1_MQTT_OK/GD32VW55X_Wifi_BLE_SDK/GD32VW55x_RELEASE_V1.0.2/MSDK/wpa_supplicant/src/ap\hw_features.c **** #endif /* CONFIG_IEEE80211AX */
 716:C:/Users/stapi/OneDrive/Desktop/GD32VW553/V1_MQTT_OK/GD32VW55X_Wifi_BLE_SDK/GD32VW55x_RELEASE_V1.0.2/MSDK/wpa_supplicant/src/ap\hw_features.c **** #ifdef CONFIG_IEEE80211AC
 717:C:/Users/stapi/OneDrive/Desktop/GD32VW553/V1_MQTT_OK/GD32VW55X_Wifi_BLE_SDK/GD32VW55x_RELEASE_V1.0.2/MSDK/wpa_supplicant/src/ap\hw_features.c **** 	if (iface->conf->ieee80211ac &&
 718:C:/Users/stapi/OneDrive/Desktop/GD32VW553/V1_MQTT_OK/GD32VW55X_Wifi_BLE_SDK/GD32VW55x_RELEASE_V1.0.2/MSDK/wpa_supplicant/src/ap\hw_features.c **** 	    !ieee80211ac_supported_vht_capab(iface))
 719:C:/Users/stapi/OneDrive/Desktop/GD32VW553/V1_MQTT_OK/GD32VW55X_Wifi_BLE_SDK/GD32VW55x_RELEASE_V1.0.2/MSDK/wpa_supplicant/src/ap\hw_features.c **** 		return -1;
 720:C:/Users/stapi/OneDrive/Desktop/GD32VW553/V1_MQTT_OK/GD32VW55X_Wifi_BLE_SDK/GD32VW55x_RELEASE_V1.0.2/MSDK/wpa_supplicant/src/ap\hw_features.c **** #endif /* CONFIG_IEEE80211AC */
 721:C:/Users/stapi/OneDrive/Desktop/GD32VW553/V1_MQTT_OK/GD32VW55X_Wifi_BLE_SDK/GD32VW55x_RELEASE_V1.0.2/MSDK/wpa_supplicant/src/ap\hw_features.c **** #ifndef CONFIG_AP_NO_40MHZ_AND_MORE
 722:C:/Users/stapi/OneDrive/Desktop/GD32VW553/V1_MQTT_OK/GD32VW55X_Wifi_BLE_SDK/GD32VW55x_RELEASE_V1.0.2/MSDK/wpa_supplicant/src/ap\hw_features.c **** 	ret = ieee80211n_check_40mhz(iface);
 723:C:/Users/stapi/OneDrive/Desktop/GD32VW553/V1_MQTT_OK/GD32VW55X_Wifi_BLE_SDK/GD32VW55x_RELEASE_V1.0.2/MSDK/wpa_supplicant/src/ap\hw_features.c **** 	if (ret)
 724:C:/Users/stapi/OneDrive/Desktop/GD32VW553/V1_MQTT_OK/GD32VW55X_Wifi_BLE_SDK/GD32VW55x_RELEASE_V1.0.2/MSDK/wpa_supplicant/src/ap\hw_features.c **** 		return ret;
 725:C:/Users/stapi/OneDrive/Desktop/GD32VW553/V1_MQTT_OK/GD32VW55X_Wifi_BLE_SDK/GD32VW55x_RELEASE_V1.0.2/MSDK/wpa_supplicant/src/ap\hw_features.c **** 	if (!ieee80211n_allowed_ht40_channel_pair(iface))
 726:C:/Users/stapi/OneDrive/Desktop/GD32VW553/V1_MQTT_OK/GD32VW55X_Wifi_BLE_SDK/GD32VW55x_RELEASE_V1.0.2/MSDK/wpa_supplicant/src/ap\hw_features.c **** 		return -1;
 727:C:/Users/stapi/OneDrive/Desktop/GD32VW553/V1_MQTT_OK/GD32VW55X_Wifi_BLE_SDK/GD32VW55x_RELEASE_V1.0.2/MSDK/wpa_supplicant/src/ap\hw_features.c **** #endif /* CONFIG_AP_NO_40MHZ_AND_MORE */
 728:C:/Users/stapi/OneDrive/Desktop/GD32VW553/V1_MQTT_OK/GD32VW55X_Wifi_BLE_SDK/GD32VW55x_RELEASE_V1.0.2/MSDK/wpa_supplicant/src/ap\hw_features.c **** 
 729:C:/Users/stapi/OneDrive/Desktop/GD32VW553/V1_MQTT_OK/GD32VW55X_Wifi_BLE_SDK/GD32VW55x_RELEASE_V1.0.2/MSDK/wpa_supplicant/src/ap\hw_features.c **** 	return 0;
 730:C:/Users/stapi/OneDrive/Desktop/GD32VW553/V1_MQTT_OK/GD32VW55X_Wifi_BLE_SDK/GD32VW55x_RELEASE_V1.0.2/MSDK/wpa_supplicant/src/ap\hw_features.c **** }
 731:C:/Users/stapi/OneDrive/Desktop/GD32VW553/V1_MQTT_OK/GD32VW55X_Wifi_BLE_SDK/GD32VW55x_RELEASE_V1.0.2/MSDK/wpa_supplicant/src/ap\hw_features.c **** 
 732:C:/Users/stapi/OneDrive/Desktop/GD32VW553/V1_MQTT_OK/GD32VW55X_Wifi_BLE_SDK/GD32VW55x_RELEASE_V1.0.2/MSDK/wpa_supplicant/src/ap\hw_features.c **** 
 733:C:/Users/stapi/OneDrive/Desktop/GD32VW553/V1_MQTT_OK/GD32VW55X_Wifi_BLE_SDK/GD32VW55x_RELEASE_V1.0.2/MSDK/wpa_supplicant/src/ap\hw_features.c **** int hostapd_check_edmg_capab(struct hostapd_iface *iface)
 734:C:/Users/stapi/OneDrive/Desktop/GD32VW553/V1_MQTT_OK/GD32VW55X_Wifi_BLE_SDK/GD32VW55x_RELEASE_V1.0.2/MSDK/wpa_supplicant/src/ap\hw_features.c **** {
 735:C:/Users/stapi/OneDrive/Desktop/GD32VW553/V1_MQTT_OK/GD32VW55X_Wifi_BLE_SDK/GD32VW55x_RELEASE_V1.0.2/MSDK/wpa_supplicant/src/ap\hw_features.c **** 	struct hostapd_hw_modes *mode = iface->hw_features;
 736:C:/Users/stapi/OneDrive/Desktop/GD32VW553/V1_MQTT_OK/GD32VW55X_Wifi_BLE_SDK/GD32VW55x_RELEASE_V1.0.2/MSDK/wpa_supplicant/src/ap\hw_features.c **** 	struct ieee80211_edmg_config edmg = {0};
 737:C:/Users/stapi/OneDrive/Desktop/GD32VW553/V1_MQTT_OK/GD32VW55X_Wifi_BLE_SDK/GD32VW55x_RELEASE_V1.0.2/MSDK/wpa_supplicant/src/ap\hw_features.c **** 
 738:C:/Users/stapi/OneDrive/Desktop/GD32VW553/V1_MQTT_OK/GD32VW55X_Wifi_BLE_SDK/GD32VW55x_RELEASE_V1.0.2/MSDK/wpa_supplicant/src/ap\hw_features.c **** 	if (!iface->conf->enable_edmg)
 739:C:/Users/stapi/OneDrive/Desktop/GD32VW553/V1_MQTT_OK/GD32VW55X_Wifi_BLE_SDK/GD32VW55x_RELEASE_V1.0.2/MSDK/wpa_supplicant/src/ap\hw_features.c **** 		return 0;
 740:C:/Users/stapi/OneDrive/Desktop/GD32VW553/V1_MQTT_OK/GD32VW55X_Wifi_BLE_SDK/GD32VW55x_RELEASE_V1.0.2/MSDK/wpa_supplicant/src/ap\hw_features.c **** 
 741:C:/Users/stapi/OneDrive/Desktop/GD32VW553/V1_MQTT_OK/GD32VW55X_Wifi_BLE_SDK/GD32VW55x_RELEASE_V1.0.2/MSDK/wpa_supplicant/src/ap\hw_features.c **** #ifndef CONFIG_NO_EDMG_SUPPORT
 742:C:/Users/stapi/OneDrive/Desktop/GD32VW553/V1_MQTT_OK/GD32VW55X_Wifi_BLE_SDK/GD32VW55x_RELEASE_V1.0.2/MSDK/wpa_supplicant/src/ap\hw_features.c **** 	hostapd_encode_edmg_chan(iface->conf->enable_edmg,
 743:C:/Users/stapi/OneDrive/Desktop/GD32VW553/V1_MQTT_OK/GD32VW55X_Wifi_BLE_SDK/GD32VW55x_RELEASE_V1.0.2/MSDK/wpa_supplicant/src/ap\hw_features.c **** 				 iface->conf->edmg_channel,
 744:C:/Users/stapi/OneDrive/Desktop/GD32VW553/V1_MQTT_OK/GD32VW55X_Wifi_BLE_SDK/GD32VW55x_RELEASE_V1.0.2/MSDK/wpa_supplicant/src/ap\hw_features.c **** 				 iface->conf->channel,
 745:C:/Users/stapi/OneDrive/Desktop/GD32VW553/V1_MQTT_OK/GD32VW55X_Wifi_BLE_SDK/GD32VW55x_RELEASE_V1.0.2/MSDK/wpa_supplicant/src/ap\hw_features.c **** 				 &edmg);
 746:C:/Users/stapi/OneDrive/Desktop/GD32VW553/V1_MQTT_OK/GD32VW55X_Wifi_BLE_SDK/GD32VW55x_RELEASE_V1.0.2/MSDK/wpa_supplicant/src/ap\hw_features.c **** 
 747:C:/Users/stapi/OneDrive/Desktop/GD32VW553/V1_MQTT_OK/GD32VW55X_Wifi_BLE_SDK/GD32VW55x_RELEASE_V1.0.2/MSDK/wpa_supplicant/src/ap\hw_features.c **** 	if (mode->edmg.channels && ieee802_edmg_is_allowed(mode->edmg, edmg))
 748:C:/Users/stapi/OneDrive/Desktop/GD32VW553/V1_MQTT_OK/GD32VW55X_Wifi_BLE_SDK/GD32VW55x_RELEASE_V1.0.2/MSDK/wpa_supplicant/src/ap\hw_features.c **** 		return 0;
 749:C:/Users/stapi/OneDrive/Desktop/GD32VW553/V1_MQTT_OK/GD32VW55X_Wifi_BLE_SDK/GD32VW55x_RELEASE_V1.0.2/MSDK/wpa_supplicant/src/ap\hw_features.c **** #endif /* CONFIG_NO_EDMG_SUPPORT */
 750:C:/Users/stapi/OneDrive/Desktop/GD32VW553/V1_MQTT_OK/GD32VW55X_Wifi_BLE_SDK/GD32VW55x_RELEASE_V1.0.2/MSDK/wpa_supplicant/src/ap\hw_features.c **** 
 751:C:/Users/stapi/OneDrive/Desktop/GD32VW553/V1_MQTT_OK/GD32VW55X_Wifi_BLE_SDK/GD32VW55x_RELEASE_V1.0.2/MSDK/wpa_supplicant/src/ap\hw_features.c **** 	wpa_printf(MSG_WARNING, "Requested EDMG configuration is not valid");
 752:C:/Users/stapi/OneDrive/Desktop/GD32VW553/V1_MQTT_OK/GD32VW55X_Wifi_BLE_SDK/GD32VW55x_RELEASE_V1.0.2/MSDK/wpa_supplicant/src/ap\hw_features.c **** 	wpa_printf(MSG_INFO, "EDMG capab: channels 0x%x, bw_config %d",
 753:C:/Users/stapi/OneDrive/Desktop/GD32VW553/V1_MQTT_OK/GD32VW55X_Wifi_BLE_SDK/GD32VW55x_RELEASE_V1.0.2/MSDK/wpa_supplicant/src/ap\hw_features.c **** 		   mode->edmg.channels, mode->edmg.bw_config);
 754:C:/Users/stapi/OneDrive/Desktop/GD32VW553/V1_MQTT_OK/GD32VW55X_Wifi_BLE_SDK/GD32VW55x_RELEASE_V1.0.2/MSDK/wpa_supplicant/src/ap\hw_features.c **** 	wpa_printf(MSG_INFO,
 755:C:/Users/stapi/OneDrive/Desktop/GD32VW553/V1_MQTT_OK/GD32VW55X_Wifi_BLE_SDK/GD32VW55x_RELEASE_V1.0.2/MSDK/wpa_supplicant/src/ap\hw_features.c **** 		   "Requested EDMG configuration: channels 0x%x, bw_config %d",
 756:C:/Users/stapi/OneDrive/Desktop/GD32VW553/V1_MQTT_OK/GD32VW55X_Wifi_BLE_SDK/GD32VW55x_RELEASE_V1.0.2/MSDK/wpa_supplicant/src/ap\hw_features.c **** 		   edmg.channels, edmg.bw_config);
 757:C:/Users/stapi/OneDrive/Desktop/GD32VW553/V1_MQTT_OK/GD32VW55X_Wifi_BLE_SDK/GD32VW55x_RELEASE_V1.0.2/MSDK/wpa_supplicant/src/ap\hw_features.c **** 	return -1;
 758:C:/Users/stapi/OneDrive/Desktop/GD32VW553/V1_MQTT_OK/GD32VW55X_Wifi_BLE_SDK/GD32VW55x_RELEASE_V1.0.2/MSDK/wpa_supplicant/src/ap\hw_features.c **** }
 759:C:/Users/stapi/OneDrive/Desktop/GD32VW553/V1_MQTT_OK/GD32VW55X_Wifi_BLE_SDK/GD32VW55x_RELEASE_V1.0.2/MSDK/wpa_supplicant/src/ap\hw_features.c **** 
 760:C:/Users/stapi/OneDrive/Desktop/GD32VW553/V1_MQTT_OK/GD32VW55X_Wifi_BLE_SDK/GD32VW55x_RELEASE_V1.0.2/MSDK/wpa_supplicant/src/ap\hw_features.c **** 
 761:C:/Users/stapi/OneDrive/Desktop/GD32VW553/V1_MQTT_OK/GD32VW55X_Wifi_BLE_SDK/GD32VW55x_RELEASE_V1.0.2/MSDK/wpa_supplicant/src/ap\hw_features.c **** int hostapd_check_he_6ghz_capab(struct hostapd_iface *iface)
 762:C:/Users/stapi/OneDrive/Desktop/GD32VW553/V1_MQTT_OK/GD32VW55X_Wifi_BLE_SDK/GD32VW55x_RELEASE_V1.0.2/MSDK/wpa_supplicant/src/ap\hw_features.c **** {
 763:C:/Users/stapi/OneDrive/Desktop/GD32VW553/V1_MQTT_OK/GD32VW55X_Wifi_BLE_SDK/GD32VW55x_RELEASE_V1.0.2/MSDK/wpa_supplicant/src/ap\hw_features.c **** #ifdef CONFIG_IEEE80211AX
 764:C:/Users/stapi/OneDrive/Desktop/GD32VW553/V1_MQTT_OK/GD32VW55X_Wifi_BLE_SDK/GD32VW55x_RELEASE_V1.0.2/MSDK/wpa_supplicant/src/ap\hw_features.c **** 	struct he_capabilities *he_cap;
 765:C:/Users/stapi/OneDrive/Desktop/GD32VW553/V1_MQTT_OK/GD32VW55X_Wifi_BLE_SDK/GD32VW55x_RELEASE_V1.0.2/MSDK/wpa_supplicant/src/ap\hw_features.c **** 	u16 hw;
 766:C:/Users/stapi/OneDrive/Desktop/GD32VW553/V1_MQTT_OK/GD32VW55X_Wifi_BLE_SDK/GD32VW55x_RELEASE_V1.0.2/MSDK/wpa_supplicant/src/ap\hw_features.c **** 
 767:C:/Users/stapi/OneDrive/Desktop/GD32VW553/V1_MQTT_OK/GD32VW55X_Wifi_BLE_SDK/GD32VW55x_RELEASE_V1.0.2/MSDK/wpa_supplicant/src/ap\hw_features.c **** 	if (!iface->current_mode || !is_6ghz_freq(iface->freq))
 768:C:/Users/stapi/OneDrive/Desktop/GD32VW553/V1_MQTT_OK/GD32VW55X_Wifi_BLE_SDK/GD32VW55x_RELEASE_V1.0.2/MSDK/wpa_supplicant/src/ap\hw_features.c **** 		return 0;
 769:C:/Users/stapi/OneDrive/Desktop/GD32VW553/V1_MQTT_OK/GD32VW55X_Wifi_BLE_SDK/GD32VW55x_RELEASE_V1.0.2/MSDK/wpa_supplicant/src/ap\hw_features.c **** 
 770:C:/Users/stapi/OneDrive/Desktop/GD32VW553/V1_MQTT_OK/GD32VW55X_Wifi_BLE_SDK/GD32VW55x_RELEASE_V1.0.2/MSDK/wpa_supplicant/src/ap\hw_features.c **** 	he_cap = &iface->current_mode->he_capab[IEEE80211_MODE_AP];
 771:C:/Users/stapi/OneDrive/Desktop/GD32VW553/V1_MQTT_OK/GD32VW55X_Wifi_BLE_SDK/GD32VW55x_RELEASE_V1.0.2/MSDK/wpa_supplicant/src/ap\hw_features.c **** 	hw = he_cap->he_6ghz_capa;
 772:C:/Users/stapi/OneDrive/Desktop/GD32VW553/V1_MQTT_OK/GD32VW55X_Wifi_BLE_SDK/GD32VW55x_RELEASE_V1.0.2/MSDK/wpa_supplicant/src/ap\hw_features.c **** 	if (iface->conf->he_6ghz_max_mpdu >
 773:C:/Users/stapi/OneDrive/Desktop/GD32VW553/V1_MQTT_OK/GD32VW55X_Wifi_BLE_SDK/GD32VW55x_RELEASE_V1.0.2/MSDK/wpa_supplicant/src/ap\hw_features.c **** 	    ((hw & HE_6GHZ_BAND_CAP_MAX_MPDU_LEN_MASK) >>
 774:C:/Users/stapi/OneDrive/Desktop/GD32VW553/V1_MQTT_OK/GD32VW55X_Wifi_BLE_SDK/GD32VW55x_RELEASE_V1.0.2/MSDK/wpa_supplicant/src/ap\hw_features.c **** 	     HE_6GHZ_BAND_CAP_MAX_MPDU_LEN_SHIFT)) {
 775:C:/Users/stapi/OneDrive/Desktop/GD32VW553/V1_MQTT_OK/GD32VW55X_Wifi_BLE_SDK/GD32VW55x_RELEASE_V1.0.2/MSDK/wpa_supplicant/src/ap\hw_features.c **** 		wpa_printf(MSG_ERROR,
 776:C:/Users/stapi/OneDrive/Desktop/GD32VW553/V1_MQTT_OK/GD32VW55X_Wifi_BLE_SDK/GD32VW55x_RELEASE_V1.0.2/MSDK/wpa_supplicant/src/ap\hw_features.c **** 			   "The driver does not support the configured HE 6 GHz Max MPDU length");
 777:C:/Users/stapi/OneDrive/Desktop/GD32VW553/V1_MQTT_OK/GD32VW55X_Wifi_BLE_SDK/GD32VW55x_RELEASE_V1.0.2/MSDK/wpa_supplicant/src/ap\hw_features.c **** 		return -1;
 778:C:/Users/stapi/OneDrive/Desktop/GD32VW553/V1_MQTT_OK/GD32VW55X_Wifi_BLE_SDK/GD32VW55x_RELEASE_V1.0.2/MSDK/wpa_supplicant/src/ap\hw_features.c **** 	}
 779:C:/Users/stapi/OneDrive/Desktop/GD32VW553/V1_MQTT_OK/GD32VW55X_Wifi_BLE_SDK/GD32VW55x_RELEASE_V1.0.2/MSDK/wpa_supplicant/src/ap\hw_features.c **** 
 780:C:/Users/stapi/OneDrive/Desktop/GD32VW553/V1_MQTT_OK/GD32VW55X_Wifi_BLE_SDK/GD32VW55x_RELEASE_V1.0.2/MSDK/wpa_supplicant/src/ap\hw_features.c **** 	if (iface->conf->he_6ghz_max_ampdu_len_exp >
 781:C:/Users/stapi/OneDrive/Desktop/GD32VW553/V1_MQTT_OK/GD32VW55X_Wifi_BLE_SDK/GD32VW55x_RELEASE_V1.0.2/MSDK/wpa_supplicant/src/ap\hw_features.c **** 	    ((hw & HE_6GHZ_BAND_CAP_MAX_AMPDU_LEN_EXP_MASK) >>
 782:C:/Users/stapi/OneDrive/Desktop/GD32VW553/V1_MQTT_OK/GD32VW55X_Wifi_BLE_SDK/GD32VW55x_RELEASE_V1.0.2/MSDK/wpa_supplicant/src/ap\hw_features.c **** 	     HE_6GHZ_BAND_CAP_MAX_AMPDU_LEN_EXP_SHIFT)) {
 783:C:/Users/stapi/OneDrive/Desktop/GD32VW553/V1_MQTT_OK/GD32VW55X_Wifi_BLE_SDK/GD32VW55x_RELEASE_V1.0.2/MSDK/wpa_supplicant/src/ap\hw_features.c **** 		wpa_printf(MSG_ERROR,
 784:C:/Users/stapi/OneDrive/Desktop/GD32VW553/V1_MQTT_OK/GD32VW55X_Wifi_BLE_SDK/GD32VW55x_RELEASE_V1.0.2/MSDK/wpa_supplicant/src/ap\hw_features.c **** 			   "The driver does not support the configured HE 6 GHz Max AMPDU Length Exponent");
 785:C:/Users/stapi/OneDrive/Desktop/GD32VW553/V1_MQTT_OK/GD32VW55X_Wifi_BLE_SDK/GD32VW55x_RELEASE_V1.0.2/MSDK/wpa_supplicant/src/ap\hw_features.c **** 		return -1;
 786:C:/Users/stapi/OneDrive/Desktop/GD32VW553/V1_MQTT_OK/GD32VW55X_Wifi_BLE_SDK/GD32VW55x_RELEASE_V1.0.2/MSDK/wpa_supplicant/src/ap\hw_features.c **** 	}
 787:C:/Users/stapi/OneDrive/Desktop/GD32VW553/V1_MQTT_OK/GD32VW55X_Wifi_BLE_SDK/GD32VW55x_RELEASE_V1.0.2/MSDK/wpa_supplicant/src/ap\hw_features.c **** 
 788:C:/Users/stapi/OneDrive/Desktop/GD32VW553/V1_MQTT_OK/GD32VW55X_Wifi_BLE_SDK/GD32VW55x_RELEASE_V1.0.2/MSDK/wpa_supplicant/src/ap\hw_features.c **** 	if (iface->conf->he_6ghz_rx_ant_pat &&
 789:C:/Users/stapi/OneDrive/Desktop/GD32VW553/V1_MQTT_OK/GD32VW55X_Wifi_BLE_SDK/GD32VW55x_RELEASE_V1.0.2/MSDK/wpa_supplicant/src/ap\hw_features.c **** 	    !(hw & HE_6GHZ_BAND_CAP_RX_ANTPAT_CONS)) {
 790:C:/Users/stapi/OneDrive/Desktop/GD32VW553/V1_MQTT_OK/GD32VW55X_Wifi_BLE_SDK/GD32VW55x_RELEASE_V1.0.2/MSDK/wpa_supplicant/src/ap\hw_features.c **** 		wpa_printf(MSG_ERROR,
 791:C:/Users/stapi/OneDrive/Desktop/GD32VW553/V1_MQTT_OK/GD32VW55X_Wifi_BLE_SDK/GD32VW55x_RELEASE_V1.0.2/MSDK/wpa_supplicant/src/ap\hw_features.c **** 			   "The driver does not support the configured HE 6 GHz Rx Antenna Pattern");
 792:C:/Users/stapi/OneDrive/Desktop/GD32VW553/V1_MQTT_OK/GD32VW55X_Wifi_BLE_SDK/GD32VW55x_RELEASE_V1.0.2/MSDK/wpa_supplicant/src/ap\hw_features.c **** 		return -1;
 793:C:/Users/stapi/OneDrive/Desktop/GD32VW553/V1_MQTT_OK/GD32VW55X_Wifi_BLE_SDK/GD32VW55x_RELEASE_V1.0.2/MSDK/wpa_supplicant/src/ap\hw_features.c **** 	}
 794:C:/Users/stapi/OneDrive/Desktop/GD32VW553/V1_MQTT_OK/GD32VW55X_Wifi_BLE_SDK/GD32VW55x_RELEASE_V1.0.2/MSDK/wpa_supplicant/src/ap\hw_features.c **** 
 795:C:/Users/stapi/OneDrive/Desktop/GD32VW553/V1_MQTT_OK/GD32VW55X_Wifi_BLE_SDK/GD32VW55x_RELEASE_V1.0.2/MSDK/wpa_supplicant/src/ap\hw_features.c **** 	if (iface->conf->he_6ghz_tx_ant_pat &&
 796:C:/Users/stapi/OneDrive/Desktop/GD32VW553/V1_MQTT_OK/GD32VW55X_Wifi_BLE_SDK/GD32VW55x_RELEASE_V1.0.2/MSDK/wpa_supplicant/src/ap\hw_features.c **** 	    !(hw & HE_6GHZ_BAND_CAP_TX_ANTPAT_CONS)) {
 797:C:/Users/stapi/OneDrive/Desktop/GD32VW553/V1_MQTT_OK/GD32VW55X_Wifi_BLE_SDK/GD32VW55x_RELEASE_V1.0.2/MSDK/wpa_supplicant/src/ap\hw_features.c **** 		wpa_printf(MSG_ERROR,
 798:C:/Users/stapi/OneDrive/Desktop/GD32VW553/V1_MQTT_OK/GD32VW55X_Wifi_BLE_SDK/GD32VW55x_RELEASE_V1.0.2/MSDK/wpa_supplicant/src/ap\hw_features.c **** 			   "The driver does not support the configured HE 6 GHz Tx Antenna Pattern");
 799:C:/Users/stapi/OneDrive/Desktop/GD32VW553/V1_MQTT_OK/GD32VW55X_Wifi_BLE_SDK/GD32VW55x_RELEASE_V1.0.2/MSDK/wpa_supplicant/src/ap\hw_features.c **** 		return -1;
 800:C:/Users/stapi/OneDrive/Desktop/GD32VW553/V1_MQTT_OK/GD32VW55X_Wifi_BLE_SDK/GD32VW55x_RELEASE_V1.0.2/MSDK/wpa_supplicant/src/ap\hw_features.c **** 	}
 801:C:/Users/stapi/OneDrive/Desktop/GD32VW553/V1_MQTT_OK/GD32VW55X_Wifi_BLE_SDK/GD32VW55x_RELEASE_V1.0.2/MSDK/wpa_supplicant/src/ap\hw_features.c **** #endif /* CONFIG_IEEE80211AX */
 802:C:/Users/stapi/OneDrive/Desktop/GD32VW553/V1_MQTT_OK/GD32VW55X_Wifi_BLE_SDK/GD32VW55x_RELEASE_V1.0.2/MSDK/wpa_supplicant/src/ap\hw_features.c **** 	return 0;
 803:C:/Users/stapi/OneDrive/Desktop/GD32VW553/V1_MQTT_OK/GD32VW55X_Wifi_BLE_SDK/GD32VW55x_RELEASE_V1.0.2/MSDK/wpa_supplicant/src/ap\hw_features.c **** }
 804:C:/Users/stapi/OneDrive/Desktop/GD32VW553/V1_MQTT_OK/GD32VW55X_Wifi_BLE_SDK/GD32VW55x_RELEASE_V1.0.2/MSDK/wpa_supplicant/src/ap\hw_features.c **** 
 805:C:/Users/stapi/OneDrive/Desktop/GD32VW553/V1_MQTT_OK/GD32VW55X_Wifi_BLE_SDK/GD32VW55x_RELEASE_V1.0.2/MSDK/wpa_supplicant/src/ap\hw_features.c **** 
 806:C:/Users/stapi/OneDrive/Desktop/GD32VW553/V1_MQTT_OK/GD32VW55X_Wifi_BLE_SDK/GD32VW55x_RELEASE_V1.0.2/MSDK/wpa_supplicant/src/ap\hw_features.c **** static int hostapd_is_usable_chan(struct hostapd_iface *iface,
 807:C:/Users/stapi/OneDrive/Desktop/GD32VW553/V1_MQTT_OK/GD32VW55X_Wifi_BLE_SDK/GD32VW55x_RELEASE_V1.0.2/MSDK/wpa_supplicant/src/ap\hw_features.c **** 				  int frequency, int primary)
 808:C:/Users/stapi/OneDrive/Desktop/GD32VW553/V1_MQTT_OK/GD32VW55X_Wifi_BLE_SDK/GD32VW55x_RELEASE_V1.0.2/MSDK/wpa_supplicant/src/ap\hw_features.c **** {
 809:C:/Users/stapi/OneDrive/Desktop/GD32VW553/V1_MQTT_OK/GD32VW55X_Wifi_BLE_SDK/GD32VW55x_RELEASE_V1.0.2/MSDK/wpa_supplicant/src/ap\hw_features.c **** 	struct hostapd_channel_data *chan;
 810:C:/Users/stapi/OneDrive/Desktop/GD32VW553/V1_MQTT_OK/GD32VW55X_Wifi_BLE_SDK/GD32VW55x_RELEASE_V1.0.2/MSDK/wpa_supplicant/src/ap\hw_features.c **** 
 811:C:/Users/stapi/OneDrive/Desktop/GD32VW553/V1_MQTT_OK/GD32VW55X_Wifi_BLE_SDK/GD32VW55x_RELEASE_V1.0.2/MSDK/wpa_supplicant/src/ap\hw_features.c **** 	if (!iface->current_mode)
 812:C:/Users/stapi/OneDrive/Desktop/GD32VW553/V1_MQTT_OK/GD32VW55X_Wifi_BLE_SDK/GD32VW55x_RELEASE_V1.0.2/MSDK/wpa_supplicant/src/ap\hw_features.c **** 		return 0;
 813:C:/Users/stapi/OneDrive/Desktop/GD32VW553/V1_MQTT_OK/GD32VW55X_Wifi_BLE_SDK/GD32VW55x_RELEASE_V1.0.2/MSDK/wpa_supplicant/src/ap\hw_features.c **** 
 814:C:/Users/stapi/OneDrive/Desktop/GD32VW553/V1_MQTT_OK/GD32VW55X_Wifi_BLE_SDK/GD32VW55x_RELEASE_V1.0.2/MSDK/wpa_supplicant/src/ap\hw_features.c **** 	chan = hw_get_channel_freq(iface->current_mode->mode, frequency, NULL,
 815:C:/Users/stapi/OneDrive/Desktop/GD32VW553/V1_MQTT_OK/GD32VW55X_Wifi_BLE_SDK/GD32VW55x_RELEASE_V1.0.2/MSDK/wpa_supplicant/src/ap\hw_features.c **** 				   iface->hw_features, iface->num_hw_features);
 816:C:/Users/stapi/OneDrive/Desktop/GD32VW553/V1_MQTT_OK/GD32VW55X_Wifi_BLE_SDK/GD32VW55x_RELEASE_V1.0.2/MSDK/wpa_supplicant/src/ap\hw_features.c **** 	if (!chan)
 817:C:/Users/stapi/OneDrive/Desktop/GD32VW553/V1_MQTT_OK/GD32VW55X_Wifi_BLE_SDK/GD32VW55x_RELEASE_V1.0.2/MSDK/wpa_supplicant/src/ap\hw_features.c **** 		return 0;
 818:C:/Users/stapi/OneDrive/Desktop/GD32VW553/V1_MQTT_OK/GD32VW55X_Wifi_BLE_SDK/GD32VW55x_RELEASE_V1.0.2/MSDK/wpa_supplicant/src/ap\hw_features.c **** 
 819:C:/Users/stapi/OneDrive/Desktop/GD32VW553/V1_MQTT_OK/GD32VW55X_Wifi_BLE_SDK/GD32VW55x_RELEASE_V1.0.2/MSDK/wpa_supplicant/src/ap\hw_features.c **** 	if ((primary && chan_pri_allowed(chan)) ||
 820:C:/Users/stapi/OneDrive/Desktop/GD32VW553/V1_MQTT_OK/GD32VW55X_Wifi_BLE_SDK/GD32VW55x_RELEASE_V1.0.2/MSDK/wpa_supplicant/src/ap\hw_features.c **** 	    (!primary && !(chan->flag & HOSTAPD_CHAN_DISABLED)))
 821:C:/Users/stapi/OneDrive/Desktop/GD32VW553/V1_MQTT_OK/GD32VW55X_Wifi_BLE_SDK/GD32VW55x_RELEASE_V1.0.2/MSDK/wpa_supplicant/src/ap\hw_features.c **** 		return 1;
 822:C:/Users/stapi/OneDrive/Desktop/GD32VW553/V1_MQTT_OK/GD32VW55X_Wifi_BLE_SDK/GD32VW55x_RELEASE_V1.0.2/MSDK/wpa_supplicant/src/ap\hw_features.c **** 
 823:C:/Users/stapi/OneDrive/Desktop/GD32VW553/V1_MQTT_OK/GD32VW55X_Wifi_BLE_SDK/GD32VW55x_RELEASE_V1.0.2/MSDK/wpa_supplicant/src/ap\hw_features.c **** 	wpa_printf(MSG_INFO,
 824:C:/Users/stapi/OneDrive/Desktop/GD32VW553/V1_MQTT_OK/GD32VW55X_Wifi_BLE_SDK/GD32VW55x_RELEASE_V1.0.2/MSDK/wpa_supplicant/src/ap\hw_features.c **** 		   "Frequency %d (%s) not allowed for AP mode, flags: 0x%x%s%s",
 825:C:/Users/stapi/OneDrive/Desktop/GD32VW553/V1_MQTT_OK/GD32VW55X_Wifi_BLE_SDK/GD32VW55x_RELEASE_V1.0.2/MSDK/wpa_supplicant/src/ap\hw_features.c **** 		   frequency, primary ? "primary" : "secondary",
 826:C:/Users/stapi/OneDrive/Desktop/GD32VW553/V1_MQTT_OK/GD32VW55X_Wifi_BLE_SDK/GD32VW55x_RELEASE_V1.0.2/MSDK/wpa_supplicant/src/ap\hw_features.c **** 		   chan->flag,
 827:C:/Users/stapi/OneDrive/Desktop/GD32VW553/V1_MQTT_OK/GD32VW55X_Wifi_BLE_SDK/GD32VW55x_RELEASE_V1.0.2/MSDK/wpa_supplicant/src/ap\hw_features.c **** 		   chan->flag & HOSTAPD_CHAN_NO_IR ? " NO-IR" : "",
 828:C:/Users/stapi/OneDrive/Desktop/GD32VW553/V1_MQTT_OK/GD32VW55X_Wifi_BLE_SDK/GD32VW55x_RELEASE_V1.0.2/MSDK/wpa_supplicant/src/ap\hw_features.c **** 		   chan->flag & HOSTAPD_CHAN_RADAR ? " RADAR" : "");
 829:C:/Users/stapi/OneDrive/Desktop/GD32VW553/V1_MQTT_OK/GD32VW55X_Wifi_BLE_SDK/GD32VW55x_RELEASE_V1.0.2/MSDK/wpa_supplicant/src/ap\hw_features.c **** 	return 0;
 830:C:/Users/stapi/OneDrive/Desktop/GD32VW553/V1_MQTT_OK/GD32VW55X_Wifi_BLE_SDK/GD32VW55x_RELEASE_V1.0.2/MSDK/wpa_supplicant/src/ap\hw_features.c **** }
 831:C:/Users/stapi/OneDrive/Desktop/GD32VW553/V1_MQTT_OK/GD32VW55X_Wifi_BLE_SDK/GD32VW55x_RELEASE_V1.0.2/MSDK/wpa_supplicant/src/ap\hw_features.c **** 
 832:C:/Users/stapi/OneDrive/Desktop/GD32VW553/V1_MQTT_OK/GD32VW55X_Wifi_BLE_SDK/GD32VW55x_RELEASE_V1.0.2/MSDK/wpa_supplicant/src/ap\hw_features.c **** 
 833:C:/Users/stapi/OneDrive/Desktop/GD32VW553/V1_MQTT_OK/GD32VW55X_Wifi_BLE_SDK/GD32VW55x_RELEASE_V1.0.2/MSDK/wpa_supplicant/src/ap\hw_features.c **** static int hostapd_is_usable_edmg(struct hostapd_iface *iface)
 834:C:/Users/stapi/OneDrive/Desktop/GD32VW553/V1_MQTT_OK/GD32VW55X_Wifi_BLE_SDK/GD32VW55x_RELEASE_V1.0.2/MSDK/wpa_supplicant/src/ap\hw_features.c **** {
 835:C:/Users/stapi/OneDrive/Desktop/GD32VW553/V1_MQTT_OK/GD32VW55X_Wifi_BLE_SDK/GD32VW55x_RELEASE_V1.0.2/MSDK/wpa_supplicant/src/ap\hw_features.c **** 	int i, contiguous = 0;
 836:C:/Users/stapi/OneDrive/Desktop/GD32VW553/V1_MQTT_OK/GD32VW55X_Wifi_BLE_SDK/GD32VW55x_RELEASE_V1.0.2/MSDK/wpa_supplicant/src/ap\hw_features.c **** 	int num_of_enabled = 0;
 837:C:/Users/stapi/OneDrive/Desktop/GD32VW553/V1_MQTT_OK/GD32VW55X_Wifi_BLE_SDK/GD32VW55x_RELEASE_V1.0.2/MSDK/wpa_supplicant/src/ap\hw_features.c **** 	int max_contiguous = 0;
 838:C:/Users/stapi/OneDrive/Desktop/GD32VW553/V1_MQTT_OK/GD32VW55X_Wifi_BLE_SDK/GD32VW55x_RELEASE_V1.0.2/MSDK/wpa_supplicant/src/ap\hw_features.c **** 	struct ieee80211_edmg_config edmg;
 839:C:/Users/stapi/OneDrive/Desktop/GD32VW553/V1_MQTT_OK/GD32VW55X_Wifi_BLE_SDK/GD32VW55x_RELEASE_V1.0.2/MSDK/wpa_supplicant/src/ap\hw_features.c **** 	struct hostapd_channel_data *pri_chan;
 840:C:/Users/stapi/OneDrive/Desktop/GD32VW553/V1_MQTT_OK/GD32VW55X_Wifi_BLE_SDK/GD32VW55x_RELEASE_V1.0.2/MSDK/wpa_supplicant/src/ap\hw_features.c **** 
 841:C:/Users/stapi/OneDrive/Desktop/GD32VW553/V1_MQTT_OK/GD32VW55X_Wifi_BLE_SDK/GD32VW55x_RELEASE_V1.0.2/MSDK/wpa_supplicant/src/ap\hw_features.c **** 	if (!iface->conf->enable_edmg)
 842:C:/Users/stapi/OneDrive/Desktop/GD32VW553/V1_MQTT_OK/GD32VW55X_Wifi_BLE_SDK/GD32VW55x_RELEASE_V1.0.2/MSDK/wpa_supplicant/src/ap\hw_features.c **** 		return 1;
 843:C:/Users/stapi/OneDrive/Desktop/GD32VW553/V1_MQTT_OK/GD32VW55X_Wifi_BLE_SDK/GD32VW55x_RELEASE_V1.0.2/MSDK/wpa_supplicant/src/ap\hw_features.c **** 
 844:C:/Users/stapi/OneDrive/Desktop/GD32VW553/V1_MQTT_OK/GD32VW55X_Wifi_BLE_SDK/GD32VW55x_RELEASE_V1.0.2/MSDK/wpa_supplicant/src/ap\hw_features.c **** 	if (!iface->current_mode)
 845:C:/Users/stapi/OneDrive/Desktop/GD32VW553/V1_MQTT_OK/GD32VW55X_Wifi_BLE_SDK/GD32VW55x_RELEASE_V1.0.2/MSDK/wpa_supplicant/src/ap\hw_features.c **** 		return 0;
 846:C:/Users/stapi/OneDrive/Desktop/GD32VW553/V1_MQTT_OK/GD32VW55X_Wifi_BLE_SDK/GD32VW55x_RELEASE_V1.0.2/MSDK/wpa_supplicant/src/ap\hw_features.c **** 	pri_chan = hw_get_channel_freq(iface->current_mode->mode,
 847:C:/Users/stapi/OneDrive/Desktop/GD32VW553/V1_MQTT_OK/GD32VW55X_Wifi_BLE_SDK/GD32VW55x_RELEASE_V1.0.2/MSDK/wpa_supplicant/src/ap\hw_features.c **** 				       iface->freq, NULL,
 848:C:/Users/stapi/OneDrive/Desktop/GD32VW553/V1_MQTT_OK/GD32VW55X_Wifi_BLE_SDK/GD32VW55x_RELEASE_V1.0.2/MSDK/wpa_supplicant/src/ap\hw_features.c **** 				       iface->hw_features,
 849:C:/Users/stapi/OneDrive/Desktop/GD32VW553/V1_MQTT_OK/GD32VW55X_Wifi_BLE_SDK/GD32VW55x_RELEASE_V1.0.2/MSDK/wpa_supplicant/src/ap\hw_features.c **** 				       iface->num_hw_features);
 850:C:/Users/stapi/OneDrive/Desktop/GD32VW553/V1_MQTT_OK/GD32VW55X_Wifi_BLE_SDK/GD32VW55x_RELEASE_V1.0.2/MSDK/wpa_supplicant/src/ap\hw_features.c **** 	if (!pri_chan)
 851:C:/Users/stapi/OneDrive/Desktop/GD32VW553/V1_MQTT_OK/GD32VW55X_Wifi_BLE_SDK/GD32VW55x_RELEASE_V1.0.2/MSDK/wpa_supplicant/src/ap\hw_features.c **** 		return 0;
 852:C:/Users/stapi/OneDrive/Desktop/GD32VW553/V1_MQTT_OK/GD32VW55X_Wifi_BLE_SDK/GD32VW55x_RELEASE_V1.0.2/MSDK/wpa_supplicant/src/ap\hw_features.c **** #ifndef CONFIG_NO_EDMG_SUPPORT
 853:C:/Users/stapi/OneDrive/Desktop/GD32VW553/V1_MQTT_OK/GD32VW55X_Wifi_BLE_SDK/GD32VW55x_RELEASE_V1.0.2/MSDK/wpa_supplicant/src/ap\hw_features.c **** 	hostapd_encode_edmg_chan(iface->conf->enable_edmg,
 854:C:/Users/stapi/OneDrive/Desktop/GD32VW553/V1_MQTT_OK/GD32VW55X_Wifi_BLE_SDK/GD32VW55x_RELEASE_V1.0.2/MSDK/wpa_supplicant/src/ap\hw_features.c **** 				 iface->conf->edmg_channel,
 855:C:/Users/stapi/OneDrive/Desktop/GD32VW553/V1_MQTT_OK/GD32VW55X_Wifi_BLE_SDK/GD32VW55x_RELEASE_V1.0.2/MSDK/wpa_supplicant/src/ap\hw_features.c **** 				 pri_chan->chan,
 856:C:/Users/stapi/OneDrive/Desktop/GD32VW553/V1_MQTT_OK/GD32VW55X_Wifi_BLE_SDK/GD32VW55x_RELEASE_V1.0.2/MSDK/wpa_supplicant/src/ap\hw_features.c **** 				 &edmg);
 857:C:/Users/stapi/OneDrive/Desktop/GD32VW553/V1_MQTT_OK/GD32VW55X_Wifi_BLE_SDK/GD32VW55x_RELEASE_V1.0.2/MSDK/wpa_supplicant/src/ap\hw_features.c **** #endif /* CONFIG_NO_EDMG_SUPPORT */
 858:C:/Users/stapi/OneDrive/Desktop/GD32VW553/V1_MQTT_OK/GD32VW55X_Wifi_BLE_SDK/GD32VW55x_RELEASE_V1.0.2/MSDK/wpa_supplicant/src/ap\hw_features.c **** 	if (!(edmg.channels & BIT(pri_chan->chan - 1)))
 859:C:/Users/stapi/OneDrive/Desktop/GD32VW553/V1_MQTT_OK/GD32VW55X_Wifi_BLE_SDK/GD32VW55x_RELEASE_V1.0.2/MSDK/wpa_supplicant/src/ap\hw_features.c **** 		return 0;
 860:C:/Users/stapi/OneDrive/Desktop/GD32VW553/V1_MQTT_OK/GD32VW55X_Wifi_BLE_SDK/GD32VW55x_RELEASE_V1.0.2/MSDK/wpa_supplicant/src/ap\hw_features.c **** 
 861:C:/Users/stapi/OneDrive/Desktop/GD32VW553/V1_MQTT_OK/GD32VW55X_Wifi_BLE_SDK/GD32VW55x_RELEASE_V1.0.2/MSDK/wpa_supplicant/src/ap\hw_features.c **** 	/* 60 GHz channels 1..6 */
 862:C:/Users/stapi/OneDrive/Desktop/GD32VW553/V1_MQTT_OK/GD32VW55X_Wifi_BLE_SDK/GD32VW55x_RELEASE_V1.0.2/MSDK/wpa_supplicant/src/ap\hw_features.c **** 	for (i = 0; i < 6; i++) {
 863:C:/Users/stapi/OneDrive/Desktop/GD32VW553/V1_MQTT_OK/GD32VW55X_Wifi_BLE_SDK/GD32VW55x_RELEASE_V1.0.2/MSDK/wpa_supplicant/src/ap\hw_features.c **** 		int freq = 56160 + 2160 * (i + 1);
 864:C:/Users/stapi/OneDrive/Desktop/GD32VW553/V1_MQTT_OK/GD32VW55X_Wifi_BLE_SDK/GD32VW55x_RELEASE_V1.0.2/MSDK/wpa_supplicant/src/ap\hw_features.c **** 
 865:C:/Users/stapi/OneDrive/Desktop/GD32VW553/V1_MQTT_OK/GD32VW55X_Wifi_BLE_SDK/GD32VW55x_RELEASE_V1.0.2/MSDK/wpa_supplicant/src/ap\hw_features.c **** 		if (edmg.channels & BIT(i)) {
 866:C:/Users/stapi/OneDrive/Desktop/GD32VW553/V1_MQTT_OK/GD32VW55X_Wifi_BLE_SDK/GD32VW55x_RELEASE_V1.0.2/MSDK/wpa_supplicant/src/ap\hw_features.c **** 			contiguous++;
 867:C:/Users/stapi/OneDrive/Desktop/GD32VW553/V1_MQTT_OK/GD32VW55X_Wifi_BLE_SDK/GD32VW55x_RELEASE_V1.0.2/MSDK/wpa_supplicant/src/ap\hw_features.c **** 			num_of_enabled++;
 868:C:/Users/stapi/OneDrive/Desktop/GD32VW553/V1_MQTT_OK/GD32VW55X_Wifi_BLE_SDK/GD32VW55x_RELEASE_V1.0.2/MSDK/wpa_supplicant/src/ap\hw_features.c **** 		} else {
 869:C:/Users/stapi/OneDrive/Desktop/GD32VW553/V1_MQTT_OK/GD32VW55X_Wifi_BLE_SDK/GD32VW55x_RELEASE_V1.0.2/MSDK/wpa_supplicant/src/ap\hw_features.c **** 			contiguous = 0;
 870:C:/Users/stapi/OneDrive/Desktop/GD32VW553/V1_MQTT_OK/GD32VW55X_Wifi_BLE_SDK/GD32VW55x_RELEASE_V1.0.2/MSDK/wpa_supplicant/src/ap\hw_features.c **** 			continue;
 871:C:/Users/stapi/OneDrive/Desktop/GD32VW553/V1_MQTT_OK/GD32VW55X_Wifi_BLE_SDK/GD32VW55x_RELEASE_V1.0.2/MSDK/wpa_supplicant/src/ap\hw_features.c **** 		}
 872:C:/Users/stapi/OneDrive/Desktop/GD32VW553/V1_MQTT_OK/GD32VW55X_Wifi_BLE_SDK/GD32VW55x_RELEASE_V1.0.2/MSDK/wpa_supplicant/src/ap\hw_features.c **** 
 873:C:/Users/stapi/OneDrive/Desktop/GD32VW553/V1_MQTT_OK/GD32VW55X_Wifi_BLE_SDK/GD32VW55x_RELEASE_V1.0.2/MSDK/wpa_supplicant/src/ap\hw_features.c **** 		/* P802.11ay defines that the total number of subfields
 874:C:/Users/stapi/OneDrive/Desktop/GD32VW553/V1_MQTT_OK/GD32VW55X_Wifi_BLE_SDK/GD32VW55x_RELEASE_V1.0.2/MSDK/wpa_supplicant/src/ap\hw_features.c **** 		 * set to one does not exceed 4.
 875:C:/Users/stapi/OneDrive/Desktop/GD32VW553/V1_MQTT_OK/GD32VW55X_Wifi_BLE_SDK/GD32VW55x_RELEASE_V1.0.2/MSDK/wpa_supplicant/src/ap\hw_features.c **** 		 */
 876:C:/Users/stapi/OneDrive/Desktop/GD32VW553/V1_MQTT_OK/GD32VW55X_Wifi_BLE_SDK/GD32VW55x_RELEASE_V1.0.2/MSDK/wpa_supplicant/src/ap\hw_features.c **** 		if (num_of_enabled > 4)
 877:C:/Users/stapi/OneDrive/Desktop/GD32VW553/V1_MQTT_OK/GD32VW55X_Wifi_BLE_SDK/GD32VW55x_RELEASE_V1.0.2/MSDK/wpa_supplicant/src/ap\hw_features.c **** 			return 0;
 878:C:/Users/stapi/OneDrive/Desktop/GD32VW553/V1_MQTT_OK/GD32VW55X_Wifi_BLE_SDK/GD32VW55x_RELEASE_V1.0.2/MSDK/wpa_supplicant/src/ap\hw_features.c **** 
 879:C:/Users/stapi/OneDrive/Desktop/GD32VW553/V1_MQTT_OK/GD32VW55X_Wifi_BLE_SDK/GD32VW55x_RELEASE_V1.0.2/MSDK/wpa_supplicant/src/ap\hw_features.c **** 		if (!hostapd_is_usable_chan(iface, freq, 1))
 880:C:/Users/stapi/OneDrive/Desktop/GD32VW553/V1_MQTT_OK/GD32VW55X_Wifi_BLE_SDK/GD32VW55x_RELEASE_V1.0.2/MSDK/wpa_supplicant/src/ap\hw_features.c **** 			return 0;
 881:C:/Users/stapi/OneDrive/Desktop/GD32VW553/V1_MQTT_OK/GD32VW55X_Wifi_BLE_SDK/GD32VW55x_RELEASE_V1.0.2/MSDK/wpa_supplicant/src/ap\hw_features.c **** 
 882:C:/Users/stapi/OneDrive/Desktop/GD32VW553/V1_MQTT_OK/GD32VW55X_Wifi_BLE_SDK/GD32VW55x_RELEASE_V1.0.2/MSDK/wpa_supplicant/src/ap\hw_features.c **** 		if (contiguous > max_contiguous)
 883:C:/Users/stapi/OneDrive/Desktop/GD32VW553/V1_MQTT_OK/GD32VW55X_Wifi_BLE_SDK/GD32VW55x_RELEASE_V1.0.2/MSDK/wpa_supplicant/src/ap\hw_features.c **** 			max_contiguous = contiguous;
 884:C:/Users/stapi/OneDrive/Desktop/GD32VW553/V1_MQTT_OK/GD32VW55X_Wifi_BLE_SDK/GD32VW55x_RELEASE_V1.0.2/MSDK/wpa_supplicant/src/ap\hw_features.c **** 	}
 885:C:/Users/stapi/OneDrive/Desktop/GD32VW553/V1_MQTT_OK/GD32VW55X_Wifi_BLE_SDK/GD32VW55x_RELEASE_V1.0.2/MSDK/wpa_supplicant/src/ap\hw_features.c **** 
 886:C:/Users/stapi/OneDrive/Desktop/GD32VW553/V1_MQTT_OK/GD32VW55X_Wifi_BLE_SDK/GD32VW55x_RELEASE_V1.0.2/MSDK/wpa_supplicant/src/ap\hw_features.c **** 	/* Check if the EDMG configuration is valid under the limitations
 887:C:/Users/stapi/OneDrive/Desktop/GD32VW553/V1_MQTT_OK/GD32VW55X_Wifi_BLE_SDK/GD32VW55x_RELEASE_V1.0.2/MSDK/wpa_supplicant/src/ap\hw_features.c **** 	 * of P802.11ay.
 888:C:/Users/stapi/OneDrive/Desktop/GD32VW553/V1_MQTT_OK/GD32VW55X_Wifi_BLE_SDK/GD32VW55x_RELEASE_V1.0.2/MSDK/wpa_supplicant/src/ap\hw_features.c **** 	 */
 889:C:/Users/stapi/OneDrive/Desktop/GD32VW553/V1_MQTT_OK/GD32VW55X_Wifi_BLE_SDK/GD32VW55x_RELEASE_V1.0.2/MSDK/wpa_supplicant/src/ap\hw_features.c **** 	/* check bw_config against contiguous EDMG channels */
 890:C:/Users/stapi/OneDrive/Desktop/GD32VW553/V1_MQTT_OK/GD32VW55X_Wifi_BLE_SDK/GD32VW55x_RELEASE_V1.0.2/MSDK/wpa_supplicant/src/ap\hw_features.c **** 	switch (edmg.bw_config) {
 891:C:/Users/stapi/OneDrive/Desktop/GD32VW553/V1_MQTT_OK/GD32VW55X_Wifi_BLE_SDK/GD32VW55x_RELEASE_V1.0.2/MSDK/wpa_supplicant/src/ap\hw_features.c **** 	case EDMG_BW_CONFIG_4:
 892:C:/Users/stapi/OneDrive/Desktop/GD32VW553/V1_MQTT_OK/GD32VW55X_Wifi_BLE_SDK/GD32VW55x_RELEASE_V1.0.2/MSDK/wpa_supplicant/src/ap\hw_features.c **** 		if (!max_contiguous)
 893:C:/Users/stapi/OneDrive/Desktop/GD32VW553/V1_MQTT_OK/GD32VW55X_Wifi_BLE_SDK/GD32VW55x_RELEASE_V1.0.2/MSDK/wpa_supplicant/src/ap\hw_features.c **** 			return 0;
 894:C:/Users/stapi/OneDrive/Desktop/GD32VW553/V1_MQTT_OK/GD32VW55X_Wifi_BLE_SDK/GD32VW55x_RELEASE_V1.0.2/MSDK/wpa_supplicant/src/ap\hw_features.c **** 		break;
 895:C:/Users/stapi/OneDrive/Desktop/GD32VW553/V1_MQTT_OK/GD32VW55X_Wifi_BLE_SDK/GD32VW55x_RELEASE_V1.0.2/MSDK/wpa_supplicant/src/ap\hw_features.c **** 	case EDMG_BW_CONFIG_5:
 896:C:/Users/stapi/OneDrive/Desktop/GD32VW553/V1_MQTT_OK/GD32VW55X_Wifi_BLE_SDK/GD32VW55x_RELEASE_V1.0.2/MSDK/wpa_supplicant/src/ap\hw_features.c **** 		if (max_contiguous < 2)
 897:C:/Users/stapi/OneDrive/Desktop/GD32VW553/V1_MQTT_OK/GD32VW55X_Wifi_BLE_SDK/GD32VW55x_RELEASE_V1.0.2/MSDK/wpa_supplicant/src/ap\hw_features.c **** 			return 0;
 898:C:/Users/stapi/OneDrive/Desktop/GD32VW553/V1_MQTT_OK/GD32VW55X_Wifi_BLE_SDK/GD32VW55x_RELEASE_V1.0.2/MSDK/wpa_supplicant/src/ap\hw_features.c **** 		break;
 899:C:/Users/stapi/OneDrive/Desktop/GD32VW553/V1_MQTT_OK/GD32VW55X_Wifi_BLE_SDK/GD32VW55x_RELEASE_V1.0.2/MSDK/wpa_supplicant/src/ap\hw_features.c **** 	default:
 900:C:/Users/stapi/OneDrive/Desktop/GD32VW553/V1_MQTT_OK/GD32VW55X_Wifi_BLE_SDK/GD32VW55x_RELEASE_V1.0.2/MSDK/wpa_supplicant/src/ap\hw_features.c **** 		return 0;
 901:C:/Users/stapi/OneDrive/Desktop/GD32VW553/V1_MQTT_OK/GD32VW55X_Wifi_BLE_SDK/GD32VW55x_RELEASE_V1.0.2/MSDK/wpa_supplicant/src/ap\hw_features.c **** 	}
 902:C:/Users/stapi/OneDrive/Desktop/GD32VW553/V1_MQTT_OK/GD32VW55X_Wifi_BLE_SDK/GD32VW55x_RELEASE_V1.0.2/MSDK/wpa_supplicant/src/ap\hw_features.c **** 
 903:C:/Users/stapi/OneDrive/Desktop/GD32VW553/V1_MQTT_OK/GD32VW55X_Wifi_BLE_SDK/GD32VW55x_RELEASE_V1.0.2/MSDK/wpa_supplicant/src/ap\hw_features.c **** 	return 1;
 904:C:/Users/stapi/OneDrive/Desktop/GD32VW553/V1_MQTT_OK/GD32VW55X_Wifi_BLE_SDK/GD32VW55x_RELEASE_V1.0.2/MSDK/wpa_supplicant/src/ap\hw_features.c **** }
 905:C:/Users/stapi/OneDrive/Desktop/GD32VW553/V1_MQTT_OK/GD32VW55X_Wifi_BLE_SDK/GD32VW55x_RELEASE_V1.0.2/MSDK/wpa_supplicant/src/ap\hw_features.c **** 
 906:C:/Users/stapi/OneDrive/Desktop/GD32VW553/V1_MQTT_OK/GD32VW55X_Wifi_BLE_SDK/GD32VW55x_RELEASE_V1.0.2/MSDK/wpa_supplicant/src/ap\hw_features.c **** 
 907:C:/Users/stapi/OneDrive/Desktop/GD32VW553/V1_MQTT_OK/GD32VW55X_Wifi_BLE_SDK/GD32VW55x_RELEASE_V1.0.2/MSDK/wpa_supplicant/src/ap\hw_features.c **** static int hostapd_is_usable_chans(struct hostapd_iface *iface)
 908:C:/Users/stapi/OneDrive/Desktop/GD32VW553/V1_MQTT_OK/GD32VW55X_Wifi_BLE_SDK/GD32VW55x_RELEASE_V1.0.2/MSDK/wpa_supplicant/src/ap\hw_features.c **** {
 909:C:/Users/stapi/OneDrive/Desktop/GD32VW553/V1_MQTT_OK/GD32VW55X_Wifi_BLE_SDK/GD32VW55x_RELEASE_V1.0.2/MSDK/wpa_supplicant/src/ap\hw_features.c **** 	int secondary_freq;
 910:C:/Users/stapi/OneDrive/Desktop/GD32VW553/V1_MQTT_OK/GD32VW55X_Wifi_BLE_SDK/GD32VW55x_RELEASE_V1.0.2/MSDK/wpa_supplicant/src/ap\hw_features.c **** 	struct hostapd_channel_data *pri_chan;
 911:C:/Users/stapi/OneDrive/Desktop/GD32VW553/V1_MQTT_OK/GD32VW55X_Wifi_BLE_SDK/GD32VW55x_RELEASE_V1.0.2/MSDK/wpa_supplicant/src/ap\hw_features.c **** 
 912:C:/Users/stapi/OneDrive/Desktop/GD32VW553/V1_MQTT_OK/GD32VW55X_Wifi_BLE_SDK/GD32VW55x_RELEASE_V1.0.2/MSDK/wpa_supplicant/src/ap\hw_features.c **** 	if (!iface->current_mode)
 913:C:/Users/stapi/OneDrive/Desktop/GD32VW553/V1_MQTT_OK/GD32VW55X_Wifi_BLE_SDK/GD32VW55x_RELEASE_V1.0.2/MSDK/wpa_supplicant/src/ap\hw_features.c **** 		return 0;
 914:C:/Users/stapi/OneDrive/Desktop/GD32VW553/V1_MQTT_OK/GD32VW55X_Wifi_BLE_SDK/GD32VW55x_RELEASE_V1.0.2/MSDK/wpa_supplicant/src/ap\hw_features.c **** 	pri_chan = hw_get_channel_freq(iface->current_mode->mode,
 915:C:/Users/stapi/OneDrive/Desktop/GD32VW553/V1_MQTT_OK/GD32VW55X_Wifi_BLE_SDK/GD32VW55x_RELEASE_V1.0.2/MSDK/wpa_supplicant/src/ap\hw_features.c **** 				       iface->freq, NULL,
 916:C:/Users/stapi/OneDrive/Desktop/GD32VW553/V1_MQTT_OK/GD32VW55X_Wifi_BLE_SDK/GD32VW55x_RELEASE_V1.0.2/MSDK/wpa_supplicant/src/ap\hw_features.c **** 				       iface->hw_features,
 917:C:/Users/stapi/OneDrive/Desktop/GD32VW553/V1_MQTT_OK/GD32VW55X_Wifi_BLE_SDK/GD32VW55x_RELEASE_V1.0.2/MSDK/wpa_supplicant/src/ap\hw_features.c **** 				       iface->num_hw_features);
 918:C:/Users/stapi/OneDrive/Desktop/GD32VW553/V1_MQTT_OK/GD32VW55X_Wifi_BLE_SDK/GD32VW55x_RELEASE_V1.0.2/MSDK/wpa_supplicant/src/ap\hw_features.c **** 	if (!pri_chan) {
 919:C:/Users/stapi/OneDrive/Desktop/GD32VW553/V1_MQTT_OK/GD32VW55X_Wifi_BLE_SDK/GD32VW55x_RELEASE_V1.0.2/MSDK/wpa_supplicant/src/ap\hw_features.c **** 		wpa_printf(MSG_ERROR, "Primary frequency not present");
 920:C:/Users/stapi/OneDrive/Desktop/GD32VW553/V1_MQTT_OK/GD32VW55X_Wifi_BLE_SDK/GD32VW55x_RELEASE_V1.0.2/MSDK/wpa_supplicant/src/ap\hw_features.c **** 		return 0;
 921:C:/Users/stapi/OneDrive/Desktop/GD32VW553/V1_MQTT_OK/GD32VW55X_Wifi_BLE_SDK/GD32VW55x_RELEASE_V1.0.2/MSDK/wpa_supplicant/src/ap\hw_features.c **** 	}
 922:C:/Users/stapi/OneDrive/Desktop/GD32VW553/V1_MQTT_OK/GD32VW55X_Wifi_BLE_SDK/GD32VW55x_RELEASE_V1.0.2/MSDK/wpa_supplicant/src/ap\hw_features.c **** 	if (!hostapd_is_usable_chan(iface, pri_chan->freq, 1)) {
 923:C:/Users/stapi/OneDrive/Desktop/GD32VW553/V1_MQTT_OK/GD32VW55X_Wifi_BLE_SDK/GD32VW55x_RELEASE_V1.0.2/MSDK/wpa_supplicant/src/ap\hw_features.c **** 		wpa_printf(MSG_ERROR, "Primary frequency not allowed");
 924:C:/Users/stapi/OneDrive/Desktop/GD32VW553/V1_MQTT_OK/GD32VW55X_Wifi_BLE_SDK/GD32VW55x_RELEASE_V1.0.2/MSDK/wpa_supplicant/src/ap\hw_features.c **** 		return 0;
 925:C:/Users/stapi/OneDrive/Desktop/GD32VW553/V1_MQTT_OK/GD32VW55X_Wifi_BLE_SDK/GD32VW55x_RELEASE_V1.0.2/MSDK/wpa_supplicant/src/ap\hw_features.c **** 	}
 926:C:/Users/stapi/OneDrive/Desktop/GD32VW553/V1_MQTT_OK/GD32VW55X_Wifi_BLE_SDK/GD32VW55x_RELEASE_V1.0.2/MSDK/wpa_supplicant/src/ap\hw_features.c **** #ifndef CONFIG_NO_EDMG_SUPPORT
 927:C:/Users/stapi/OneDrive/Desktop/GD32VW553/V1_MQTT_OK/GD32VW55X_Wifi_BLE_SDK/GD32VW55x_RELEASE_V1.0.2/MSDK/wpa_supplicant/src/ap\hw_features.c **** 	if (!hostapd_is_usable_edmg(iface))
 928:C:/Users/stapi/OneDrive/Desktop/GD32VW553/V1_MQTT_OK/GD32VW55X_Wifi_BLE_SDK/GD32VW55x_RELEASE_V1.0.2/MSDK/wpa_supplicant/src/ap\hw_features.c **** 		return 0;
 929:C:/Users/stapi/OneDrive/Desktop/GD32VW553/V1_MQTT_OK/GD32VW55X_Wifi_BLE_SDK/GD32VW55x_RELEASE_V1.0.2/MSDK/wpa_supplicant/src/ap\hw_features.c **** #endif /* CONFIG_NO_EDMG_SUPPORT */
 930:C:/Users/stapi/OneDrive/Desktop/GD32VW553/V1_MQTT_OK/GD32VW55X_Wifi_BLE_SDK/GD32VW55x_RELEASE_V1.0.2/MSDK/wpa_supplicant/src/ap\hw_features.c **** 
 931:C:/Users/stapi/OneDrive/Desktop/GD32VW553/V1_MQTT_OK/GD32VW55X_Wifi_BLE_SDK/GD32VW55x_RELEASE_V1.0.2/MSDK/wpa_supplicant/src/ap\hw_features.c **** #ifdef CONFIG_AP_NO_40MHZ_AND_MORE
 932:C:/Users/stapi/OneDrive/Desktop/GD32VW553/V1_MQTT_OK/GD32VW55X_Wifi_BLE_SDK/GD32VW55x_RELEASE_V1.0.2/MSDK/wpa_supplicant/src/ap\hw_features.c **** 	return 1;
 933:C:/Users/stapi/OneDrive/Desktop/GD32VW553/V1_MQTT_OK/GD32VW55X_Wifi_BLE_SDK/GD32VW55x_RELEASE_V1.0.2/MSDK/wpa_supplicant/src/ap\hw_features.c **** #else /* CONFIG_AP_NO_40MHZ_AND_MORE */
 934:C:/Users/stapi/OneDrive/Desktop/GD32VW553/V1_MQTT_OK/GD32VW55X_Wifi_BLE_SDK/GD32VW55x_RELEASE_V1.0.2/MSDK/wpa_supplicant/src/ap\hw_features.c **** 	if (!iface->conf->secondary_channel)
 935:C:/Users/stapi/OneDrive/Desktop/GD32VW553/V1_MQTT_OK/GD32VW55X_Wifi_BLE_SDK/GD32VW55x_RELEASE_V1.0.2/MSDK/wpa_supplicant/src/ap\hw_features.c **** 		return 1;
 936:C:/Users/stapi/OneDrive/Desktop/GD32VW553/V1_MQTT_OK/GD32VW55X_Wifi_BLE_SDK/GD32VW55x_RELEASE_V1.0.2/MSDK/wpa_supplicant/src/ap\hw_features.c **** 
 937:C:/Users/stapi/OneDrive/Desktop/GD32VW553/V1_MQTT_OK/GD32VW55X_Wifi_BLE_SDK/GD32VW55x_RELEASE_V1.0.2/MSDK/wpa_supplicant/src/ap\hw_features.c **** 	if (hostapd_is_usable_chan(iface, iface->freq +
 938:C:/Users/stapi/OneDrive/Desktop/GD32VW553/V1_MQTT_OK/GD32VW55X_Wifi_BLE_SDK/GD32VW55x_RELEASE_V1.0.2/MSDK/wpa_supplicant/src/ap\hw_features.c **** 				   iface->conf->secondary_channel * 20, 0)) {
 939:C:/Users/stapi/OneDrive/Desktop/GD32VW553/V1_MQTT_OK/GD32VW55X_Wifi_BLE_SDK/GD32VW55x_RELEASE_V1.0.2/MSDK/wpa_supplicant/src/ap\hw_features.c **** 		if (iface->conf->secondary_channel == 1 &&
 940:C:/Users/stapi/OneDrive/Desktop/GD32VW553/V1_MQTT_OK/GD32VW55X_Wifi_BLE_SDK/GD32VW55x_RELEASE_V1.0.2/MSDK/wpa_supplicant/src/ap\hw_features.c **** 		    (pri_chan->allowed_bw & HOSTAPD_CHAN_WIDTH_40P))
 941:C:/Users/stapi/OneDrive/Desktop/GD32VW553/V1_MQTT_OK/GD32VW55X_Wifi_BLE_SDK/GD32VW55x_RELEASE_V1.0.2/MSDK/wpa_supplicant/src/ap\hw_features.c **** 			return 1;
 942:C:/Users/stapi/OneDrive/Desktop/GD32VW553/V1_MQTT_OK/GD32VW55X_Wifi_BLE_SDK/GD32VW55x_RELEASE_V1.0.2/MSDK/wpa_supplicant/src/ap\hw_features.c **** 		if (iface->conf->secondary_channel == -1 &&
 943:C:/Users/stapi/OneDrive/Desktop/GD32VW553/V1_MQTT_OK/GD32VW55X_Wifi_BLE_SDK/GD32VW55x_RELEASE_V1.0.2/MSDK/wpa_supplicant/src/ap\hw_features.c **** 		    (pri_chan->allowed_bw & HOSTAPD_CHAN_WIDTH_40M))
 944:C:/Users/stapi/OneDrive/Desktop/GD32VW553/V1_MQTT_OK/GD32VW55X_Wifi_BLE_SDK/GD32VW55x_RELEASE_V1.0.2/MSDK/wpa_supplicant/src/ap\hw_features.c **** 			return 1;
 945:C:/Users/stapi/OneDrive/Desktop/GD32VW553/V1_MQTT_OK/GD32VW55X_Wifi_BLE_SDK/GD32VW55x_RELEASE_V1.0.2/MSDK/wpa_supplicant/src/ap\hw_features.c **** 	}
 946:C:/Users/stapi/OneDrive/Desktop/GD32VW553/V1_MQTT_OK/GD32VW55X_Wifi_BLE_SDK/GD32VW55x_RELEASE_V1.0.2/MSDK/wpa_supplicant/src/ap\hw_features.c **** 	if (!iface->conf->ht40_plus_minus_allowed)
 947:C:/Users/stapi/OneDrive/Desktop/GD32VW553/V1_MQTT_OK/GD32VW55X_Wifi_BLE_SDK/GD32VW55x_RELEASE_V1.0.2/MSDK/wpa_supplicant/src/ap\hw_features.c **** 		return 0;
 948:C:/Users/stapi/OneDrive/Desktop/GD32VW553/V1_MQTT_OK/GD32VW55X_Wifi_BLE_SDK/GD32VW55x_RELEASE_V1.0.2/MSDK/wpa_supplicant/src/ap\hw_features.c **** 
 949:C:/Users/stapi/OneDrive/Desktop/GD32VW553/V1_MQTT_OK/GD32VW55X_Wifi_BLE_SDK/GD32VW55x_RELEASE_V1.0.2/MSDK/wpa_supplicant/src/ap\hw_features.c **** 	/* Both HT40+ and HT40- are set, pick a valid secondary channel */
 950:C:/Users/stapi/OneDrive/Desktop/GD32VW553/V1_MQTT_OK/GD32VW55X_Wifi_BLE_SDK/GD32VW55x_RELEASE_V1.0.2/MSDK/wpa_supplicant/src/ap\hw_features.c **** 	secondary_freq = iface->freq + 20;
 951:C:/Users/stapi/OneDrive/Desktop/GD32VW553/V1_MQTT_OK/GD32VW55X_Wifi_BLE_SDK/GD32VW55x_RELEASE_V1.0.2/MSDK/wpa_supplicant/src/ap\hw_features.c **** 	if (hostapd_is_usable_chan(iface, secondary_freq, 0) &&
 952:C:/Users/stapi/OneDrive/Desktop/GD32VW553/V1_MQTT_OK/GD32VW55X_Wifi_BLE_SDK/GD32VW55x_RELEASE_V1.0.2/MSDK/wpa_supplicant/src/ap\hw_features.c **** 	    (pri_chan->allowed_bw & HOSTAPD_CHAN_WIDTH_40P)) {
 953:C:/Users/stapi/OneDrive/Desktop/GD32VW553/V1_MQTT_OK/GD32VW55X_Wifi_BLE_SDK/GD32VW55x_RELEASE_V1.0.2/MSDK/wpa_supplicant/src/ap\hw_features.c **** 		iface->conf->secondary_channel = 1;
 954:C:/Users/stapi/OneDrive/Desktop/GD32VW553/V1_MQTT_OK/GD32VW55X_Wifi_BLE_SDK/GD32VW55x_RELEASE_V1.0.2/MSDK/wpa_supplicant/src/ap\hw_features.c **** 		return 1;
 955:C:/Users/stapi/OneDrive/Desktop/GD32VW553/V1_MQTT_OK/GD32VW55X_Wifi_BLE_SDK/GD32VW55x_RELEASE_V1.0.2/MSDK/wpa_supplicant/src/ap\hw_features.c **** 	}
 956:C:/Users/stapi/OneDrive/Desktop/GD32VW553/V1_MQTT_OK/GD32VW55X_Wifi_BLE_SDK/GD32VW55x_RELEASE_V1.0.2/MSDK/wpa_supplicant/src/ap\hw_features.c **** 
 957:C:/Users/stapi/OneDrive/Desktop/GD32VW553/V1_MQTT_OK/GD32VW55X_Wifi_BLE_SDK/GD32VW55x_RELEASE_V1.0.2/MSDK/wpa_supplicant/src/ap\hw_features.c **** 	secondary_freq = iface->freq - 20;
 958:C:/Users/stapi/OneDrive/Desktop/GD32VW553/V1_MQTT_OK/GD32VW55X_Wifi_BLE_SDK/GD32VW55x_RELEASE_V1.0.2/MSDK/wpa_supplicant/src/ap\hw_features.c **** 	if (hostapd_is_usable_chan(iface, secondary_freq, 0) &&
 959:C:/Users/stapi/OneDrive/Desktop/GD32VW553/V1_MQTT_OK/GD32VW55X_Wifi_BLE_SDK/GD32VW55x_RELEASE_V1.0.2/MSDK/wpa_supplicant/src/ap\hw_features.c **** 	    (pri_chan->allowed_bw & HOSTAPD_CHAN_WIDTH_40M)) {
 960:C:/Users/stapi/OneDrive/Desktop/GD32VW553/V1_MQTT_OK/GD32VW55X_Wifi_BLE_SDK/GD32VW55x_RELEASE_V1.0.2/MSDK/wpa_supplicant/src/ap\hw_features.c **** 		iface->conf->secondary_channel = -1;
 961:C:/Users/stapi/OneDrive/Desktop/GD32VW553/V1_MQTT_OK/GD32VW55X_Wifi_BLE_SDK/GD32VW55x_RELEASE_V1.0.2/MSDK/wpa_supplicant/src/ap\hw_features.c **** 		return 1;
 962:C:/Users/stapi/OneDrive/Desktop/GD32VW553/V1_MQTT_OK/GD32VW55X_Wifi_BLE_SDK/GD32VW55x_RELEASE_V1.0.2/MSDK/wpa_supplicant/src/ap\hw_features.c **** 	}
 963:C:/Users/stapi/OneDrive/Desktop/GD32VW553/V1_MQTT_OK/GD32VW55X_Wifi_BLE_SDK/GD32VW55x_RELEASE_V1.0.2/MSDK/wpa_supplicant/src/ap\hw_features.c **** 
 964:C:/Users/stapi/OneDrive/Desktop/GD32VW553/V1_MQTT_OK/GD32VW55X_Wifi_BLE_SDK/GD32VW55x_RELEASE_V1.0.2/MSDK/wpa_supplicant/src/ap\hw_features.c **** 	return 0;
 965:C:/Users/stapi/OneDrive/Desktop/GD32VW553/V1_MQTT_OK/GD32VW55X_Wifi_BLE_SDK/GD32VW55x_RELEASE_V1.0.2/MSDK/wpa_supplicant/src/ap\hw_features.c **** #endif /* CONFIG_AP_NO_40MHZ_AND_MORE */
 966:C:/Users/stapi/OneDrive/Desktop/GD32VW553/V1_MQTT_OK/GD32VW55X_Wifi_BLE_SDK/GD32VW55x_RELEASE_V1.0.2/MSDK/wpa_supplicant/src/ap\hw_features.c **** }
 967:C:/Users/stapi/OneDrive/Desktop/GD32VW553/V1_MQTT_OK/GD32VW55X_Wifi_BLE_SDK/GD32VW55x_RELEASE_V1.0.2/MSDK/wpa_supplicant/src/ap\hw_features.c **** 
 968:C:/Users/stapi/OneDrive/Desktop/GD32VW553/V1_MQTT_OK/GD32VW55X_Wifi_BLE_SDK/GD32VW55x_RELEASE_V1.0.2/MSDK/wpa_supplicant/src/ap\hw_features.c **** 
 969:C:/Users/stapi/OneDrive/Desktop/GD32VW553/V1_MQTT_OK/GD32VW55X_Wifi_BLE_SDK/GD32VW55x_RELEASE_V1.0.2/MSDK/wpa_supplicant/src/ap\hw_features.c **** static void hostapd_determine_mode(struct hostapd_iface *iface)
 970:C:/Users/stapi/OneDrive/Desktop/GD32VW553/V1_MQTT_OK/GD32VW55X_Wifi_BLE_SDK/GD32VW55x_RELEASE_V1.0.2/MSDK/wpa_supplicant/src/ap\hw_features.c **** {
 971:C:/Users/stapi/OneDrive/Desktop/GD32VW553/V1_MQTT_OK/GD32VW55X_Wifi_BLE_SDK/GD32VW55x_RELEASE_V1.0.2/MSDK/wpa_supplicant/src/ap\hw_features.c **** 	int i;
 972:C:/Users/stapi/OneDrive/Desktop/GD32VW553/V1_MQTT_OK/GD32VW55X_Wifi_BLE_SDK/GD32VW55x_RELEASE_V1.0.2/MSDK/wpa_supplicant/src/ap\hw_features.c **** 	enum hostapd_hw_mode target_mode;
 973:C:/Users/stapi/OneDrive/Desktop/GD32VW553/V1_MQTT_OK/GD32VW55X_Wifi_BLE_SDK/GD32VW55x_RELEASE_V1.0.2/MSDK/wpa_supplicant/src/ap\hw_features.c **** 
 974:C:/Users/stapi/OneDrive/Desktop/GD32VW553/V1_MQTT_OK/GD32VW55X_Wifi_BLE_SDK/GD32VW55x_RELEASE_V1.0.2/MSDK/wpa_supplicant/src/ap\hw_features.c **** 	if (iface->current_mode ||
 975:C:/Users/stapi/OneDrive/Desktop/GD32VW553/V1_MQTT_OK/GD32VW55X_Wifi_BLE_SDK/GD32VW55x_RELEASE_V1.0.2/MSDK/wpa_supplicant/src/ap\hw_features.c **** 	    iface->conf->hw_mode != HOSTAPD_MODE_IEEE80211ANY)
 976:C:/Users/stapi/OneDrive/Desktop/GD32VW553/V1_MQTT_OK/GD32VW55X_Wifi_BLE_SDK/GD32VW55x_RELEASE_V1.0.2/MSDK/wpa_supplicant/src/ap\hw_features.c **** 		return;
 977:C:/Users/stapi/OneDrive/Desktop/GD32VW553/V1_MQTT_OK/GD32VW55X_Wifi_BLE_SDK/GD32VW55x_RELEASE_V1.0.2/MSDK/wpa_supplicant/src/ap\hw_features.c **** 
 978:C:/Users/stapi/OneDrive/Desktop/GD32VW553/V1_MQTT_OK/GD32VW55X_Wifi_BLE_SDK/GD32VW55x_RELEASE_V1.0.2/MSDK/wpa_supplicant/src/ap\hw_features.c **** 	if (iface->freq < 4000)
 979:C:/Users/stapi/OneDrive/Desktop/GD32VW553/V1_MQTT_OK/GD32VW55X_Wifi_BLE_SDK/GD32VW55x_RELEASE_V1.0.2/MSDK/wpa_supplicant/src/ap\hw_features.c **** 		target_mode = HOSTAPD_MODE_IEEE80211G;
 980:C:/Users/stapi/OneDrive/Desktop/GD32VW553/V1_MQTT_OK/GD32VW55X_Wifi_BLE_SDK/GD32VW55x_RELEASE_V1.0.2/MSDK/wpa_supplicant/src/ap\hw_features.c **** 	else if (iface->freq > 50000)
 981:C:/Users/stapi/OneDrive/Desktop/GD32VW553/V1_MQTT_OK/GD32VW55X_Wifi_BLE_SDK/GD32VW55x_RELEASE_V1.0.2/MSDK/wpa_supplicant/src/ap\hw_features.c **** 		target_mode = HOSTAPD_MODE_IEEE80211AD;
 982:C:/Users/stapi/OneDrive/Desktop/GD32VW553/V1_MQTT_OK/GD32VW55X_Wifi_BLE_SDK/GD32VW55x_RELEASE_V1.0.2/MSDK/wpa_supplicant/src/ap\hw_features.c **** 	else
 983:C:/Users/stapi/OneDrive/Desktop/GD32VW553/V1_MQTT_OK/GD32VW55X_Wifi_BLE_SDK/GD32VW55x_RELEASE_V1.0.2/MSDK/wpa_supplicant/src/ap\hw_features.c **** 		target_mode = HOSTAPD_MODE_IEEE80211A;
 984:C:/Users/stapi/OneDrive/Desktop/GD32VW553/V1_MQTT_OK/GD32VW55X_Wifi_BLE_SDK/GD32VW55x_RELEASE_V1.0.2/MSDK/wpa_supplicant/src/ap\hw_features.c **** 
 985:C:/Users/stapi/OneDrive/Desktop/GD32VW553/V1_MQTT_OK/GD32VW55X_Wifi_BLE_SDK/GD32VW55x_RELEASE_V1.0.2/MSDK/wpa_supplicant/src/ap\hw_features.c **** 	for (i = 0; i < iface->num_hw_features; i++) {
 986:C:/Users/stapi/OneDrive/Desktop/GD32VW553/V1_MQTT_OK/GD32VW55X_Wifi_BLE_SDK/GD32VW55x_RELEASE_V1.0.2/MSDK/wpa_supplicant/src/ap\hw_features.c **** 		struct hostapd_hw_modes *mode;
 987:C:/Users/stapi/OneDrive/Desktop/GD32VW553/V1_MQTT_OK/GD32VW55X_Wifi_BLE_SDK/GD32VW55x_RELEASE_V1.0.2/MSDK/wpa_supplicant/src/ap\hw_features.c **** 
 988:C:/Users/stapi/OneDrive/Desktop/GD32VW553/V1_MQTT_OK/GD32VW55X_Wifi_BLE_SDK/GD32VW55x_RELEASE_V1.0.2/MSDK/wpa_supplicant/src/ap\hw_features.c **** 		mode = &iface->hw_features[i];
 989:C:/Users/stapi/OneDrive/Desktop/GD32VW553/V1_MQTT_OK/GD32VW55X_Wifi_BLE_SDK/GD32VW55x_RELEASE_V1.0.2/MSDK/wpa_supplicant/src/ap\hw_features.c **** 		if (mode->mode == target_mode) {
 990:C:/Users/stapi/OneDrive/Desktop/GD32VW553/V1_MQTT_OK/GD32VW55X_Wifi_BLE_SDK/GD32VW55x_RELEASE_V1.0.2/MSDK/wpa_supplicant/src/ap\hw_features.c **** 			iface->current_mode = mode;
 991:C:/Users/stapi/OneDrive/Desktop/GD32VW553/V1_MQTT_OK/GD32VW55X_Wifi_BLE_SDK/GD32VW55x_RELEASE_V1.0.2/MSDK/wpa_supplicant/src/ap\hw_features.c **** 			iface->conf->hw_mode = mode->mode;
 992:C:/Users/stapi/OneDrive/Desktop/GD32VW553/V1_MQTT_OK/GD32VW55X_Wifi_BLE_SDK/GD32VW55x_RELEASE_V1.0.2/MSDK/wpa_supplicant/src/ap\hw_features.c **** 			break;
 993:C:/Users/stapi/OneDrive/Desktop/GD32VW553/V1_MQTT_OK/GD32VW55X_Wifi_BLE_SDK/GD32VW55x_RELEASE_V1.0.2/MSDK/wpa_supplicant/src/ap\hw_features.c **** 		}
 994:C:/Users/stapi/OneDrive/Desktop/GD32VW553/V1_MQTT_OK/GD32VW55X_Wifi_BLE_SDK/GD32VW55x_RELEASE_V1.0.2/MSDK/wpa_supplicant/src/ap\hw_features.c **** 	}
 995:C:/Users/stapi/OneDrive/Desktop/GD32VW553/V1_MQTT_OK/GD32VW55X_Wifi_BLE_SDK/GD32VW55x_RELEASE_V1.0.2/MSDK/wpa_supplicant/src/ap\hw_features.c **** 
 996:C:/Users/stapi/OneDrive/Desktop/GD32VW553/V1_MQTT_OK/GD32VW55X_Wifi_BLE_SDK/GD32VW55x_RELEASE_V1.0.2/MSDK/wpa_supplicant/src/ap\hw_features.c **** 	if (!iface->current_mode)
 997:C:/Users/stapi/OneDrive/Desktop/GD32VW553/V1_MQTT_OK/GD32VW55X_Wifi_BLE_SDK/GD32VW55x_RELEASE_V1.0.2/MSDK/wpa_supplicant/src/ap\hw_features.c **** 		wpa_printf(MSG_ERROR, "ACS: Cannot decide mode");
 998:C:/Users/stapi/OneDrive/Desktop/GD32VW553/V1_MQTT_OK/GD32VW55X_Wifi_BLE_SDK/GD32VW55x_RELEASE_V1.0.2/MSDK/wpa_supplicant/src/ap\hw_features.c **** }
 999:C:/Users/stapi/OneDrive/Desktop/GD32VW553/V1_MQTT_OK/GD32VW55X_Wifi_BLE_SDK/GD32VW55x_RELEASE_V1.0.2/MSDK/wpa_supplicant/src/ap\hw_features.c **** 
1000:C:/Users/stapi/OneDrive/Desktop/GD32VW553/V1_MQTT_OK/GD32VW55X_Wifi_BLE_SDK/GD32VW55x_RELEASE_V1.0.2/MSDK/wpa_supplicant/src/ap\hw_features.c **** 
1001:C:/Users/stapi/OneDrive/Desktop/GD32VW553/V1_MQTT_OK/GD32VW55X_Wifi_BLE_SDK/GD32VW55x_RELEASE_V1.0.2/MSDK/wpa_supplicant/src/ap\hw_features.c **** static enum hostapd_chan_status
1002:C:/Users/stapi/OneDrive/Desktop/GD32VW553/V1_MQTT_OK/GD32VW55X_Wifi_BLE_SDK/GD32VW55x_RELEASE_V1.0.2/MSDK/wpa_supplicant/src/ap\hw_features.c **** hostapd_check_chans(struct hostapd_iface *iface)
1003:C:/Users/stapi/OneDrive/Desktop/GD32VW553/V1_MQTT_OK/GD32VW55X_Wifi_BLE_SDK/GD32VW55x_RELEASE_V1.0.2/MSDK/wpa_supplicant/src/ap\hw_features.c **** {
  43              		.loc 1 1003 1
  44              		.cfi_startproc
  45              	.LVL0:
  46 0000 17030000 		call	t0,__riscv_save_2
  46      E7020300 
  47              		.cfi_offset 9, -12
  48              		.cfi_offset 8, -8
  49              		.cfi_offset 1, -4
  50              		.cfi_def_cfa_offset 16
1004:C:/Users/stapi/OneDrive/Desktop/GD32VW553/V1_MQTT_OK/GD32VW55X_Wifi_BLE_SDK/GD32VW55x_RELEASE_V1.0.2/MSDK/wpa_supplicant/src/ap\hw_features.c **** 	if (iface->freq) {
  51              		.loc 1 1004 2
  52              		.loc 1 1004 11 is_stmt 0
  53 0008 03274547 		lw	a4,1140(a0)
  54              		.loc 1 1004 5
  55 000c 63080712 		beq	a4,zero,.L2
  56              	.LBB28:
  57              	.LBB29:
  58              	.LBB30:
  59              	.LBB31:
 974:C:/Users/stapi/OneDrive/Desktop/GD32VW553/V1_MQTT_OK/GD32VW55X_Wifi_BLE_SDK/GD32VW55x_RELEASE_V1.0.2/MSDK/wpa_supplicant/src/ap\hw_features.c **** 	    iface->conf->hw_mode != HOSTAPD_MODE_IEEE80211ANY)
  60              		.loc 1 974 5
  61 0010 83274546 		lw	a5,1124(a0)
  62 0014 2A84     		mv	s0,a0
  63              	.LVL1:
  64              	.LBE31:
  65              	.LBE30:
1005:C:/Users/stapi/OneDrive/Desktop/GD32VW553/V1_MQTT_OK/GD32VW55X_Wifi_BLE_SDK/GD32VW55x_RELEASE_V1.0.2/MSDK/wpa_supplicant/src/ap\hw_features.c **** 		hostapd_determine_mode(iface);
  66              		.loc 1 1005 3 is_stmt 1
  67              	.LBB36:
  68              	.LBB34:
 971:C:/Users/stapi/OneDrive/Desktop/GD32VW553/V1_MQTT_OK/GD32VW55X_Wifi_BLE_SDK/GD32VW55x_RELEASE_V1.0.2/MSDK/wpa_supplicant/src/ap\hw_features.c **** 	enum hostapd_hw_mode target_mode;
  69              		.loc 1 971 2
 972:C:/Users/stapi/OneDrive/Desktop/GD32VW553/V1_MQTT_OK/GD32VW55X_Wifi_BLE_SDK/GD32VW55x_RELEASE_V1.0.2/MSDK/wpa_supplicant/src/ap\hw_features.c **** 
  70              		.loc 1 972 2
 974:C:/Users/stapi/OneDrive/Desktop/GD32VW553/V1_MQTT_OK/GD32VW55X_Wifi_BLE_SDK/GD32VW55x_RELEASE_V1.0.2/MSDK/wpa_supplicant/src/ap\hw_features.c **** 	    iface->conf->hw_mode != HOSTAPD_MODE_IEEE80211ANY)
  71              		.loc 1 974 2
 974:C:/Users/stapi/OneDrive/Desktop/GD32VW553/V1_MQTT_OK/GD32VW55X_Wifi_BLE_SDK/GD32VW55x_RELEASE_V1.0.2/MSDK/wpa_supplicant/src/ap\hw_features.c **** 	    iface->conf->hw_mode != HOSTAPD_MODE_IEEE80211ANY)
  72              		.loc 1 974 5 is_stmt 0
  73 0016 B1EF     		bne	a5,zero,.L3
 975:C:/Users/stapi/OneDrive/Desktop/GD32VW553/V1_MQTT_OK/GD32VW55X_Wifi_BLE_SDK/GD32VW55x_RELEASE_V1.0.2/MSDK/wpa_supplicant/src/ap\hw_features.c **** 		return;
  74              		.loc 1 975 11
  75 0018 5045     		lw	a2,12(a0)
 974:C:/Users/stapi/OneDrive/Desktop/GD32VW553/V1_MQTT_OK/GD32VW55X_Wifi_BLE_SDK/GD32VW55x_RELEASE_V1.0.2/MSDK/wpa_supplicant/src/ap\hw_features.c **** 	    iface->conf->hw_mode != HOSTAPD_MODE_IEEE80211ANY)
  76              		.loc 1 974 26
  77 001a 9147     		li	a5,4
  78 001c 3442     		lw	a3,64(a2)
  79 001e 639AF604 		bne	a3,a5,.L3
 978:C:/Users/stapi/OneDrive/Desktop/GD32VW553/V1_MQTT_OK/GD32VW55X_Wifi_BLE_SDK/GD32VW55x_RELEASE_V1.0.2/MSDK/wpa_supplicant/src/ap\hw_features.c **** 		target_mode = HOSTAPD_MODE_IEEE80211G;
  80              		.loc 1 978 2 is_stmt 1
 978:C:/Users/stapi/OneDrive/Desktop/GD32VW553/V1_MQTT_OK/GD32VW55X_Wifi_BLE_SDK/GD32VW55x_RELEASE_V1.0.2/MSDK/wpa_supplicant/src/ap\hw_features.c **** 		target_mode = HOSTAPD_MODE_IEEE80211G;
  81              		.loc 1 978 5 is_stmt 0
  82 0022 8566     		li	a3,4096
  83 0024 9386F6F9 		addi	a3,a3,-97
 979:C:/Users/stapi/OneDrive/Desktop/GD32VW553/V1_MQTT_OK/GD32VW55X_Wifi_BLE_SDK/GD32VW55x_RELEASE_V1.0.2/MSDK/wpa_supplicant/src/ap\hw_features.c **** 	else if (iface->freq > 50000)
  84              		.loc 1 979 15
  85 0028 8547     		li	a5,1
 978:C:/Users/stapi/OneDrive/Desktop/GD32VW553/V1_MQTT_OK/GD32VW55X_Wifi_BLE_SDK/GD32VW55x_RELEASE_V1.0.2/MSDK/wpa_supplicant/src/ap\hw_features.c **** 		target_mode = HOSTAPD_MODE_IEEE80211G;
  86              		.loc 1 978 5
  87 002a 63D8E600 		ble	a4,a3,.L4
 980:C:/Users/stapi/OneDrive/Desktop/GD32VW553/V1_MQTT_OK/GD32VW55X_Wifi_BLE_SDK/GD32VW55x_RELEASE_V1.0.2/MSDK/wpa_supplicant/src/ap\hw_features.c **** 		target_mode = HOSTAPD_MODE_IEEE80211AD;
  88              		.loc 1 980 7 is_stmt 1
 980:C:/Users/stapi/OneDrive/Desktop/GD32VW553/V1_MQTT_OK/GD32VW55X_Wifi_BLE_SDK/GD32VW55x_RELEASE_V1.0.2/MSDK/wpa_supplicant/src/ap\hw_features.c **** 		target_mode = HOSTAPD_MODE_IEEE80211AD;
  89              		.loc 1 980 10 is_stmt 0
  90 002e B167     		li	a5,49152
  91 0030 93870735 		addi	a5,a5,848
 983:C:/Users/stapi/OneDrive/Desktop/GD32VW553/V1_MQTT_OK/GD32VW55X_Wifi_BLE_SDK/GD32VW55x_RELEASE_V1.0.2/MSDK/wpa_supplicant/src/ap\hw_features.c **** 
  92              		.loc 1 983 15
  93 0034 B3A7E700 		sgt	a5,a4,a5
  94 0038 8907     		addi	a5,a5,2
  95              	.L4:
  96              	.LVL2:
 985:C:/Users/stapi/OneDrive/Desktop/GD32VW553/V1_MQTT_OK/GD32VW55X_Wifi_BLE_SDK/GD32VW55x_RELEASE_V1.0.2/MSDK/wpa_supplicant/src/ap\hw_features.c **** 		struct hostapd_hw_modes *mode;
  97              		.loc 1 985 2 is_stmt 1
 985:C:/Users/stapi/OneDrive/Desktop/GD32VW553/V1_MQTT_OK/GD32VW55X_Wifi_BLE_SDK/GD32VW55x_RELEASE_V1.0.2/MSDK/wpa_supplicant/src/ap\hw_features.c **** 		struct hostapd_hw_modes *mode;
  98              		.loc 1 985 23 is_stmt 0
  99 003a 83250446 		lw	a1,1120(s0)
 985:C:/Users/stapi/OneDrive/Desktop/GD32VW553/V1_MQTT_OK/GD32VW55X_Wifi_BLE_SDK/GD32VW55x_RELEASE_V1.0.2/MSDK/wpa_supplicant/src/ap\hw_features.c **** 		struct hostapd_hw_modes *mode;
 100              		.loc 1 985 9
 101 003e 0147     		li	a4,0
 102              	.LBB32:
 988:C:/Users/stapi/OneDrive/Desktop/GD32VW553/V1_MQTT_OK/GD32VW55X_Wifi_BLE_SDK/GD32VW55x_RELEASE_V1.0.2/MSDK/wpa_supplicant/src/ap\hw_features.c **** 		if (mode->mode == target_mode) {
 103              		.loc 1 988 8
 104 0040 1305C019 		li	a0,412
 105              	.LVL3:
 106              	.L5:
 107              	.LBE32:
 985:C:/Users/stapi/OneDrive/Desktop/GD32VW553/V1_MQTT_OK/GD32VW55X_Wifi_BLE_SDK/GD32VW55x_RELEASE_V1.0.2/MSDK/wpa_supplicant/src/ap\hw_features.c **** 		struct hostapd_hw_modes *mode;
 108              		.loc 1 985 14 is_stmt 1
 985:C:/Users/stapi/OneDrive/Desktop/GD32VW553/V1_MQTT_OK/GD32VW55X_Wifi_BLE_SDK/GD32VW55x_RELEASE_V1.0.2/MSDK/wpa_supplicant/src/ap\hw_features.c **** 		struct hostapd_hw_modes *mode;
 109              		.loc 1 985 2 is_stmt 0
 110 0044 634CB700 		blt	a4,a1,.L7
 996:C:/Users/stapi/OneDrive/Desktop/GD32VW553/V1_MQTT_OK/GD32VW55X_Wifi_BLE_SDK/GD32VW55x_RELEASE_V1.0.2/MSDK/wpa_supplicant/src/ap\hw_features.c **** 		wpa_printf(MSG_ERROR, "ACS: Cannot decide mode");
 111              		.loc 1 996 2 is_stmt 1
 997:C:/Users/stapi/OneDrive/Desktop/GD32VW553/V1_MQTT_OK/GD32VW55X_Wifi_BLE_SDK/GD32VW55x_RELEASE_V1.0.2/MSDK/wpa_supplicant/src/ap\hw_features.c **** }
 112              		.loc 1 997 3
 113 0048 B7050000 		lui	a1,%hi(.LC11)
 114 004c 93850500 		addi	a1,a1,%lo(.LC11)
 115 0050 1545     		li	a0,5
 116 0052 97000000 		call	wpa_printf
 116      E7800000 
 117              	.LVL4:
 118 005a 21A8     		j	.L3
 119              	.LVL5:
 120              	.L7:
 121              	.LBB33:
 986:C:/Users/stapi/OneDrive/Desktop/GD32VW553/V1_MQTT_OK/GD32VW55X_Wifi_BLE_SDK/GD32VW55x_RELEASE_V1.0.2/MSDK/wpa_supplicant/src/ap\hw_features.c **** 
 122              		.loc 1 986 3
 988:C:/Users/stapi/OneDrive/Desktop/GD32VW553/V1_MQTT_OK/GD32VW55X_Wifi_BLE_SDK/GD32VW55x_RELEASE_V1.0.2/MSDK/wpa_supplicant/src/ap\hw_features.c **** 		if (mode->mode == target_mode) {
 123              		.loc 1 988 3
 988:C:/Users/stapi/OneDrive/Desktop/GD32VW553/V1_MQTT_OK/GD32VW55X_Wifi_BLE_SDK/GD32VW55x_RELEASE_V1.0.2/MSDK/wpa_supplicant/src/ap\hw_features.c **** 		if (mode->mode == target_mode) {
 124              		.loc 1 988 8 is_stmt 0
 125 005c 8326C445 		lw	a3,1116(s0)
 126 0060 FF16A7C4 		maddr32	a3, a4, a0
 127              	.LVL6:
 989:C:/Users/stapi/OneDrive/Desktop/GD32VW553/V1_MQTT_OK/GD32VW55X_Wifi_BLE_SDK/GD32VW55x_RELEASE_V1.0.2/MSDK/wpa_supplicant/src/ap\hw_features.c **** 			iface->current_mode = mode;
 128              		.loc 1 989 3 is_stmt 1
 989:C:/Users/stapi/OneDrive/Desktop/GD32VW553/V1_MQTT_OK/GD32VW55X_Wifi_BLE_SDK/GD32VW55x_RELEASE_V1.0.2/MSDK/wpa_supplicant/src/ap\hw_features.c **** 			iface->current_mode = mode;
 129              		.loc 1 989 11 is_stmt 0
 130 0064 03A80600 		lw	a6,0(a3)
 989:C:/Users/stapi/OneDrive/Desktop/GD32VW553/V1_MQTT_OK/GD32VW55X_Wifi_BLE_SDK/GD32VW55x_RELEASE_V1.0.2/MSDK/wpa_supplicant/src/ap\hw_features.c **** 			iface->current_mode = mode;
 131              		.loc 1 989 6
 132 0068 6315F804 		bne	a6,a5,.L6
 990:C:/Users/stapi/OneDrive/Desktop/GD32VW553/V1_MQTT_OK/GD32VW55X_Wifi_BLE_SDK/GD32VW55x_RELEASE_V1.0.2/MSDK/wpa_supplicant/src/ap\hw_features.c **** 			iface->conf->hw_mode = mode->mode;
 133              		.loc 1 990 4 is_stmt 1
 990:C:/Users/stapi/OneDrive/Desktop/GD32VW553/V1_MQTT_OK/GD32VW55X_Wifi_BLE_SDK/GD32VW55x_RELEASE_V1.0.2/MSDK/wpa_supplicant/src/ap\hw_features.c **** 			iface->conf->hw_mode = mode->mode;
 134              		.loc 1 990 24 is_stmt 0
 135 006c 2322D446 		sw	a3,1124(s0)
 991:C:/Users/stapi/OneDrive/Desktop/GD32VW553/V1_MQTT_OK/GD32VW55X_Wifi_BLE_SDK/GD32VW55x_RELEASE_V1.0.2/MSDK/wpa_supplicant/src/ap\hw_features.c **** 			break;
 136              		.loc 1 991 4 is_stmt 1
 991:C:/Users/stapi/OneDrive/Desktop/GD32VW553/V1_MQTT_OK/GD32VW55X_Wifi_BLE_SDK/GD32VW55x_RELEASE_V1.0.2/MSDK/wpa_supplicant/src/ap\hw_features.c **** 			break;
 137              		.loc 1 991 25 is_stmt 0
 138 0070 3CC2     		sw	a5,64(a2)
 992:C:/Users/stapi/OneDrive/Desktop/GD32VW553/V1_MQTT_OK/GD32VW55X_Wifi_BLE_SDK/GD32VW55x_RELEASE_V1.0.2/MSDK/wpa_supplicant/src/ap\hw_features.c **** 		}
 139              		.loc 1 992 4 is_stmt 1
 140              	.LBE33:
 996:C:/Users/stapi/OneDrive/Desktop/GD32VW553/V1_MQTT_OK/GD32VW55X_Wifi_BLE_SDK/GD32VW55x_RELEASE_V1.0.2/MSDK/wpa_supplicant/src/ap\hw_features.c **** 		wpa_printf(MSG_ERROR, "ACS: Cannot decide mode");
 141              		.loc 1 996 2
 142              	.LVL7:
 143              	.L3:
 144              	.LBE34:
 145              	.LBE36:
1006:C:/Users/stapi/OneDrive/Desktop/GD32VW553/V1_MQTT_OK/GD32VW55X_Wifi_BLE_SDK/GD32VW55x_RELEASE_V1.0.2/MSDK/wpa_supplicant/src/ap\hw_features.c **** 		if (hostapd_is_usable_chans(iface))
 146              		.loc 1 1006 3
 147              	.LBB37:
 148              	.LBB38:
 909:C:/Users/stapi/OneDrive/Desktop/GD32VW553/V1_MQTT_OK/GD32VW55X_Wifi_BLE_SDK/GD32VW55x_RELEASE_V1.0.2/MSDK/wpa_supplicant/src/ap\hw_features.c **** 	struct hostapd_channel_data *pri_chan;
 149              		.loc 1 909 2
 910:C:/Users/stapi/OneDrive/Desktop/GD32VW553/V1_MQTT_OK/GD32VW55X_Wifi_BLE_SDK/GD32VW55x_RELEASE_V1.0.2/MSDK/wpa_supplicant/src/ap\hw_features.c **** 
 150              		.loc 1 910 2
 912:C:/Users/stapi/OneDrive/Desktop/GD32VW553/V1_MQTT_OK/GD32VW55X_Wifi_BLE_SDK/GD32VW55x_RELEASE_V1.0.2/MSDK/wpa_supplicant/src/ap\hw_features.c **** 		return 0;
 151              		.loc 1 912 2
 912:C:/Users/stapi/OneDrive/Desktop/GD32VW553/V1_MQTT_OK/GD32VW55X_Wifi_BLE_SDK/GD32VW55x_RELEASE_V1.0.2/MSDK/wpa_supplicant/src/ap\hw_features.c **** 		return 0;
 152              		.loc 1 912 12 is_stmt 0
 153 0072 03254446 		lw	a0,1124(s0)
 154              	.LBE38:
 155              	.LBE37:
1007:C:/Users/stapi/OneDrive/Desktop/GD32VW553/V1_MQTT_OK/GD32VW55X_Wifi_BLE_SDK/GD32VW55x_RELEASE_V1.0.2/MSDK/wpa_supplicant/src/ap\hw_features.c **** 			return HOSTAPD_CHAN_VALID;
1008:C:/Users/stapi/OneDrive/Desktop/GD32VW553/V1_MQTT_OK/GD32VW55X_Wifi_BLE_SDK/GD32VW55x_RELEASE_V1.0.2/MSDK/wpa_supplicant/src/ap\hw_features.c **** 		else
1009:C:/Users/stapi/OneDrive/Desktop/GD32VW553/V1_MQTT_OK/GD32VW55X_Wifi_BLE_SDK/GD32VW55x_RELEASE_V1.0.2/MSDK/wpa_supplicant/src/ap\hw_features.c **** 			return HOSTAPD_CHAN_INVALID;
 156              		.loc 1 1009 11
 157 0076 8547     		li	a5,1
 158              	.LBB50:
 159              	.LBB47:
 912:C:/Users/stapi/OneDrive/Desktop/GD32VW553/V1_MQTT_OK/GD32VW55X_Wifi_BLE_SDK/GD32VW55x_RELEASE_V1.0.2/MSDK/wpa_supplicant/src/ap\hw_features.c **** 		return 0;
 160              		.loc 1 912 5
 161 0078 05C9     		beq	a0,zero,.L1
 914:C:/Users/stapi/OneDrive/Desktop/GD32VW553/V1_MQTT_OK/GD32VW55X_Wifi_BLE_SDK/GD32VW55x_RELEASE_V1.0.2/MSDK/wpa_supplicant/src/ap\hw_features.c **** 				       iface->freq, NULL,
 162              		.loc 1 914 2 is_stmt 1
 914:C:/Users/stapi/OneDrive/Desktop/GD32VW553/V1_MQTT_OK/GD32VW55X_Wifi_BLE_SDK/GD32VW55x_RELEASE_V1.0.2/MSDK/wpa_supplicant/src/ap\hw_features.c **** 				       iface->freq, NULL,
 163              		.loc 1 914 13 is_stmt 0
 164 007a 03270446 		lw	a4,1120(s0)
 165 007e 8326C445 		lw	a3,1116(s0)
 166 0082 83254447 		lw	a1,1140(s0)
 167 0086 0841     		lw	a0,0(a0)
 168 0088 0146     		li	a2,0
 169 008a 97000000 		call	hw_get_channel_freq
 169      E7800000 
 170              	.LVL8:
 918:C:/Users/stapi/OneDrive/Desktop/GD32VW553/V1_MQTT_OK/GD32VW55X_Wifi_BLE_SDK/GD32VW55x_RELEASE_V1.0.2/MSDK/wpa_supplicant/src/ap\hw_features.c **** 		wpa_printf(MSG_ERROR, "Primary frequency not present");
 171              		.loc 1 918 2 is_stmt 1
 918:C:/Users/stapi/OneDrive/Desktop/GD32VW553/V1_MQTT_OK/GD32VW55X_Wifi_BLE_SDK/GD32VW55x_RELEASE_V1.0.2/MSDK/wpa_supplicant/src/ap\hw_features.c **** 		wpa_printf(MSG_ERROR, "Primary frequency not present");
 172              		.loc 1 918 5 is_stmt 0
 173 0092 15E1     		bne	a0,zero,.L10
 919:C:/Users/stapi/OneDrive/Desktop/GD32VW553/V1_MQTT_OK/GD32VW55X_Wifi_BLE_SDK/GD32VW55x_RELEASE_V1.0.2/MSDK/wpa_supplicant/src/ap\hw_features.c **** 		return 0;
 174              		.loc 1 919 3 is_stmt 1
 175 0094 B7050000 		lui	a1,%hi(.LC6)
 176 0098 93850500 		addi	a1,a1,%lo(.LC6)
 177              	.LVL9:
 178              	.L27:
 923:C:/Users/stapi/OneDrive/Desktop/GD32VW553/V1_MQTT_OK/GD32VW55X_Wifi_BLE_SDK/GD32VW55x_RELEASE_V1.0.2/MSDK/wpa_supplicant/src/ap\hw_features.c **** 		return 0;
 179              		.loc 1 923 3 is_stmt 0
 180 009c 1545     		li	a0,5
 181 009e 97000000 		call	wpa_printf
 181      E7800000 
 182              	.LVL10:
 924:C:/Users/stapi/OneDrive/Desktop/GD32VW553/V1_MQTT_OK/GD32VW55X_Wifi_BLE_SDK/GD32VW55x_RELEASE_V1.0.2/MSDK/wpa_supplicant/src/ap\hw_features.c **** 	}
 183              		.loc 1 924 3 is_stmt 1
 184              	.LBE47:
 185              	.LBE50:
 186              		.loc 1 1009 11 is_stmt 0
 187 00a6 8547     		li	a5,1
 188              	.L1:
 189              	.LBE29:
 190              	.LBE28:
1010:C:/Users/stapi/OneDrive/Desktop/GD32VW553/V1_MQTT_OK/GD32VW55X_Wifi_BLE_SDK/GD32VW55x_RELEASE_V1.0.2/MSDK/wpa_supplicant/src/ap\hw_features.c **** 	}
1011:C:/Users/stapi/OneDrive/Desktop/GD32VW553/V1_MQTT_OK/GD32VW55X_Wifi_BLE_SDK/GD32VW55x_RELEASE_V1.0.2/MSDK/wpa_supplicant/src/ap\hw_features.c **** 
1012:C:/Users/stapi/OneDrive/Desktop/GD32VW553/V1_MQTT_OK/GD32VW55X_Wifi_BLE_SDK/GD32VW55x_RELEASE_V1.0.2/MSDK/wpa_supplicant/src/ap\hw_features.c **** 	/*
1013:C:/Users/stapi/OneDrive/Desktop/GD32VW553/V1_MQTT_OK/GD32VW55X_Wifi_BLE_SDK/GD32VW55x_RELEASE_V1.0.2/MSDK/wpa_supplicant/src/ap\hw_features.c **** 	 * The user set channel=0 or channel=acs_survey
1014:C:/Users/stapi/OneDrive/Desktop/GD32VW553/V1_MQTT_OK/GD32VW55X_Wifi_BLE_SDK/GD32VW55x_RELEASE_V1.0.2/MSDK/wpa_supplicant/src/ap\hw_features.c **** 	 * which is used to trigger ACS.
1015:C:/Users/stapi/OneDrive/Desktop/GD32VW553/V1_MQTT_OK/GD32VW55X_Wifi_BLE_SDK/GD32VW55x_RELEASE_V1.0.2/MSDK/wpa_supplicant/src/ap\hw_features.c **** 	 */
1016:C:/Users/stapi/OneDrive/Desktop/GD32VW553/V1_MQTT_OK/GD32VW55X_Wifi_BLE_SDK/GD32VW55x_RELEASE_V1.0.2/MSDK/wpa_supplicant/src/ap\hw_features.c **** 
1017:C:/Users/stapi/OneDrive/Desktop/GD32VW553/V1_MQTT_OK/GD32VW55X_Wifi_BLE_SDK/GD32VW55x_RELEASE_V1.0.2/MSDK/wpa_supplicant/src/ap\hw_features.c **** 	switch (acs_init(iface)) {
1018:C:/Users/stapi/OneDrive/Desktop/GD32VW553/V1_MQTT_OK/GD32VW55X_Wifi_BLE_SDK/GD32VW55x_RELEASE_V1.0.2/MSDK/wpa_supplicant/src/ap\hw_features.c **** 	case HOSTAPD_CHAN_ACS:
1019:C:/Users/stapi/OneDrive/Desktop/GD32VW553/V1_MQTT_OK/GD32VW55X_Wifi_BLE_SDK/GD32VW55x_RELEASE_V1.0.2/MSDK/wpa_supplicant/src/ap\hw_features.c **** 		return HOSTAPD_CHAN_ACS;
1020:C:/Users/stapi/OneDrive/Desktop/GD32VW553/V1_MQTT_OK/GD32VW55X_Wifi_BLE_SDK/GD32VW55x_RELEASE_V1.0.2/MSDK/wpa_supplicant/src/ap\hw_features.c **** 	case HOSTAPD_CHAN_VALID:
1021:C:/Users/stapi/OneDrive/Desktop/GD32VW553/V1_MQTT_OK/GD32VW55X_Wifi_BLE_SDK/GD32VW55x_RELEASE_V1.0.2/MSDK/wpa_supplicant/src/ap\hw_features.c **** 	case HOSTAPD_CHAN_INVALID:
1022:C:/Users/stapi/OneDrive/Desktop/GD32VW553/V1_MQTT_OK/GD32VW55X_Wifi_BLE_SDK/GD32VW55x_RELEASE_V1.0.2/MSDK/wpa_supplicant/src/ap\hw_features.c **** 	default:
1023:C:/Users/stapi/OneDrive/Desktop/GD32VW553/V1_MQTT_OK/GD32VW55X_Wifi_BLE_SDK/GD32VW55x_RELEASE_V1.0.2/MSDK/wpa_supplicant/src/ap\hw_features.c **** 		return HOSTAPD_CHAN_INVALID;
1024:C:/Users/stapi/OneDrive/Desktop/GD32VW553/V1_MQTT_OK/GD32VW55X_Wifi_BLE_SDK/GD32VW55x_RELEASE_V1.0.2/MSDK/wpa_supplicant/src/ap\hw_features.c **** 	}
1025:C:/Users/stapi/OneDrive/Desktop/GD32VW553/V1_MQTT_OK/GD32VW55X_Wifi_BLE_SDK/GD32VW55x_RELEASE_V1.0.2/MSDK/wpa_supplicant/src/ap\hw_features.c **** }
 191              		.loc 1 1025 1
 192 00a8 3E85     		mv	a0,a5
 193 00aa 17030000 		tail	__riscv_restore_2
 193      67000300 
 194              		.cfi_remember_state
 195              		.cfi_restore 9
 196              		.cfi_restore 8
 197              		.cfi_restore 1
 198              		.cfi_def_cfa_offset 0
 199              	.LVL11:
 200              	.L6:
 201              		.cfi_restore_state
 202              	.LBB55:
 203              	.LBB54:
 204              	.LBB51:
 205              	.LBB35:
 985:C:/Users/stapi/OneDrive/Desktop/GD32VW553/V1_MQTT_OK/GD32VW55X_Wifi_BLE_SDK/GD32VW55x_RELEASE_V1.0.2/MSDK/wpa_supplicant/src/ap\hw_features.c **** 		struct hostapd_hw_modes *mode;
 206              		.loc 1 985 42 is_stmt 1
 985:C:/Users/stapi/OneDrive/Desktop/GD32VW553/V1_MQTT_OK/GD32VW55X_Wifi_BLE_SDK/GD32VW55x_RELEASE_V1.0.2/MSDK/wpa_supplicant/src/ap\hw_features.c **** 		struct hostapd_hw_modes *mode;
 207              		.loc 1 985 43 is_stmt 0
 208 00b2 0507     		addi	a4,a4,1
 209              	.LVL12:
 210 00b4 41BF     		j	.L5
 211              	.LVL13:
 212              	.L10:
 213              	.LBE35:
 214              	.LBE51:
 215              	.LBB52:
 216              	.LBB48:
 922:C:/Users/stapi/OneDrive/Desktop/GD32VW553/V1_MQTT_OK/GD32VW55X_Wifi_BLE_SDK/GD32VW55x_RELEASE_V1.0.2/MSDK/wpa_supplicant/src/ap\hw_features.c **** 		wpa_printf(MSG_ERROR, "Primary frequency not allowed");
 217              		.loc 1 922 2 is_stmt 1
 218              	.LBB39:
 219              	.LBB40:
 809:C:/Users/stapi/OneDrive/Desktop/GD32VW553/V1_MQTT_OK/GD32VW55X_Wifi_BLE_SDK/GD32VW55x_RELEASE_V1.0.2/MSDK/wpa_supplicant/src/ap\hw_features.c **** 
 220              		.loc 1 809 2
 811:C:/Users/stapi/OneDrive/Desktop/GD32VW553/V1_MQTT_OK/GD32VW55X_Wifi_BLE_SDK/GD32VW55x_RELEASE_V1.0.2/MSDK/wpa_supplicant/src/ap\hw_features.c **** 		return 0;
 221              		.loc 1 811 2
 811:C:/Users/stapi/OneDrive/Desktop/GD32VW553/V1_MQTT_OK/GD32VW55X_Wifi_BLE_SDK/GD32VW55x_RELEASE_V1.0.2/MSDK/wpa_supplicant/src/ap\hw_features.c **** 		return 0;
 222              		.loc 1 811 12 is_stmt 0
 223 00b6 83274446 		lw	a5,1124(s0)
 811:C:/Users/stapi/OneDrive/Desktop/GD32VW553/V1_MQTT_OK/GD32VW55X_Wifi_BLE_SDK/GD32VW55x_RELEASE_V1.0.2/MSDK/wpa_supplicant/src/ap\hw_features.c **** 		return 0;
 224              		.loc 1 811 5
 225 00ba B5C3     		beq	a5,zero,.L12
 226              	.LBE40:
 227              	.LBE39:
 922:C:/Users/stapi/OneDrive/Desktop/GD32VW553/V1_MQTT_OK/GD32VW55X_Wifi_BLE_SDK/GD32VW55x_RELEASE_V1.0.2/MSDK/wpa_supplicant/src/ap\hw_features.c **** 		wpa_printf(MSG_ERROR, "Primary frequency not allowed");
 228              		.loc 1 922 7
 229 00bc 4441     		lw	s1,4(a0)
 230              	.LBB44:
 231              	.LBB41:
 814:C:/Users/stapi/OneDrive/Desktop/GD32VW553/V1_MQTT_OK/GD32VW55X_Wifi_BLE_SDK/GD32VW55x_RELEASE_V1.0.2/MSDK/wpa_supplicant/src/ap\hw_features.c **** 				   iface->hw_features, iface->num_hw_features);
 232              		.loc 1 814 2 is_stmt 1
 814:C:/Users/stapi/OneDrive/Desktop/GD32VW553/V1_MQTT_OK/GD32VW55X_Wifi_BLE_SDK/GD32VW55x_RELEASE_V1.0.2/MSDK/wpa_supplicant/src/ap\hw_features.c **** 				   iface->hw_features, iface->num_hw_features);
 233              		.loc 1 814 9 is_stmt 0
 234 00be 03270446 		lw	a4,1120(s0)
 235 00c2 8326C445 		lw	a3,1116(s0)
 236 00c6 8843     		lw	a0,0(a5)
 237              	.LVL14:
 238 00c8 0146     		li	a2,0
 239 00ca A685     		mv	a1,s1
 240 00cc 97000000 		call	hw_get_channel_freq
 240      E7800000 
 241              	.LVL15:
 242 00d4 2A84     		mv	s0,a0
 243              	.LVL16:
 816:C:/Users/stapi/OneDrive/Desktop/GD32VW553/V1_MQTT_OK/GD32VW55X_Wifi_BLE_SDK/GD32VW55x_RELEASE_V1.0.2/MSDK/wpa_supplicant/src/ap\hw_features.c **** 		return 0;
 244              		.loc 1 816 2 is_stmt 1
 816:C:/Users/stapi/OneDrive/Desktop/GD32VW553/V1_MQTT_OK/GD32VW55X_Wifi_BLE_SDK/GD32VW55x_RELEASE_V1.0.2/MSDK/wpa_supplicant/src/ap\hw_features.c **** 		return 0;
 245              		.loc 1 816 5 is_stmt 0
 246 00d6 21C5     		beq	a0,zero,.L12
 819:C:/Users/stapi/OneDrive/Desktop/GD32VW553/V1_MQTT_OK/GD32VW55X_Wifi_BLE_SDK/GD32VW55x_RELEASE_V1.0.2/MSDK/wpa_supplicant/src/ap\hw_features.c **** 	    (!primary && !(chan->flag & HOSTAPD_CHAN_DISABLED)))
 247              		.loc 1 819 2 is_stmt 1
 819:C:/Users/stapi/OneDrive/Desktop/GD32VW553/V1_MQTT_OK/GD32VW55X_Wifi_BLE_SDK/GD32VW55x_RELEASE_V1.0.2/MSDK/wpa_supplicant/src/ap\hw_features.c **** 	    (!primary && !(chan->flag & HOSTAPD_CHAN_DISABLED)))
 248              		.loc 1 819 18 is_stmt 0
 249 00d8 97000000 		call	chan_pri_allowed
 249      E7800000 
 250              	.LVL17:
 251              	.LBE41:
 252              	.LBE44:
 253              	.LBE48:
 254              	.LBE52:
1007:C:/Users/stapi/OneDrive/Desktop/GD32VW553/V1_MQTT_OK/GD32VW55X_Wifi_BLE_SDK/GD32VW55x_RELEASE_V1.0.2/MSDK/wpa_supplicant/src/ap\hw_features.c **** 		else
 255              		.loc 1 1007 11
 256 00e0 8147     		li	a5,0
 257              	.LBB53:
 258              	.LBB49:
 259              	.LBB45:
 260              	.LBB42:
 819:C:/Users/stapi/OneDrive/Desktop/GD32VW553/V1_MQTT_OK/GD32VW55X_Wifi_BLE_SDK/GD32VW55x_RELEASE_V1.0.2/MSDK/wpa_supplicant/src/ap\hw_features.c **** 	    (!primary && !(chan->flag & HOSTAPD_CHAN_DISABLED)))
 261              		.loc 1 819 15
 262 00e2 79F1     		bne	a0,zero,.L1
 823:C:/Users/stapi/OneDrive/Desktop/GD32VW553/V1_MQTT_OK/GD32VW55X_Wifi_BLE_SDK/GD32VW55x_RELEASE_V1.0.2/MSDK/wpa_supplicant/src/ap\hw_features.c **** 		   "Frequency %d (%s) not allowed for AP mode, flags: 0x%x%s%s",
 263              		.loc 1 823 2 is_stmt 1
 264 00e4 1844     		lw	a4,8(s0)
 827:C:/Users/stapi/OneDrive/Desktop/GD32VW553/V1_MQTT_OK/GD32VW55X_Wifi_BLE_SDK/GD32VW55x_RELEASE_V1.0.2/MSDK/wpa_supplicant/src/ap\hw_features.c **** 		   chan->flag & HOSTAPD_CHAN_RADAR ? " RADAR" : "");
 265              		.loc 1 827 17 is_stmt 0
 266 00e6 93772700 		andi	a5,a4,2
 823:C:/Users/stapi/OneDrive/Desktop/GD32VW553/V1_MQTT_OK/GD32VW55X_Wifi_BLE_SDK/GD32VW55x_RELEASE_V1.0.2/MSDK/wpa_supplicant/src/ap\hw_features.c **** 		   "Frequency %d (%s) not allowed for AP mode, flags: 0x%x%s%s",
 267              		.loc 1 823 2
 268 00ea 9DEF     		bne	a5,zero,.L20
 269 00ec B7070000 		lui	a5,%hi(.LC4)
 270 00f0 93870700 		addi	a5,a5,%lo(.LC4)
 271              	.L14:
 828:C:/Users/stapi/OneDrive/Desktop/GD32VW553/V1_MQTT_OK/GD32VW55X_Wifi_BLE_SDK/GD32VW55x_RELEASE_V1.0.2/MSDK/wpa_supplicant/src/ap\hw_features.c **** 	return 0;
 272              		.loc 1 828 17
 273 00f4 93768700 		andi	a3,a4,8
 823:C:/Users/stapi/OneDrive/Desktop/GD32VW553/V1_MQTT_OK/GD32VW55X_Wifi_BLE_SDK/GD32VW55x_RELEASE_V1.0.2/MSDK/wpa_supplicant/src/ap\hw_features.c **** 		   "Frequency %d (%s) not allowed for AP mode, flags: 0x%x%s%s",
 274              		.loc 1 823 2
 275 00f8 8DEE     		bne	a3,zero,.L21
 276 00fa 37080000 		lui	a6,%hi(.LC4)
 277 00fe 13080800 		addi	a6,a6,%lo(.LC4)
 278              	.L15:
 279 0102 B7060000 		lui	a3,%hi(.LC7)
 280 0106 B7050000 		lui	a1,%hi(.LC8)
 281 010a 93860600 		addi	a3,a3,%lo(.LC7)
 282 010e 2686     		mv	a2,s1
 283 0110 93850500 		addi	a1,a1,%lo(.LC8)
 284 0114 0D45     		li	a0,3
 285 0116 97000000 		call	wpa_printf
 285      E7800000 
 286              	.LVL18:
 829:C:/Users/stapi/OneDrive/Desktop/GD32VW553/V1_MQTT_OK/GD32VW55X_Wifi_BLE_SDK/GD32VW55x_RELEASE_V1.0.2/MSDK/wpa_supplicant/src/ap\hw_features.c **** }
 287              		.loc 1 829 2 is_stmt 1
 288              	.L12:
 289              	.LBE42:
 290              	.LBE45:
 923:C:/Users/stapi/OneDrive/Desktop/GD32VW553/V1_MQTT_OK/GD32VW55X_Wifi_BLE_SDK/GD32VW55x_RELEASE_V1.0.2/MSDK/wpa_supplicant/src/ap\hw_features.c **** 		return 0;
 291              		.loc 1 923 3
 292 011e B7050000 		lui	a1,%hi(.LC9)
 293 0122 93850500 		addi	a1,a1,%lo(.LC9)
 294 0126 9DBF     		j	.L27
 295              	.LVL19:
 296              	.L20:
 297              	.LBB46:
 298              	.LBB43:
 823:C:/Users/stapi/OneDrive/Desktop/GD32VW553/V1_MQTT_OK/GD32VW55X_Wifi_BLE_SDK/GD32VW55x_RELEASE_V1.0.2/MSDK/wpa_supplicant/src/ap\hw_features.c **** 		   "Frequency %d (%s) not allowed for AP mode, flags: 0x%x%s%s",
 299              		.loc 1 823 2 is_stmt 0
 300 0128 B7070000 		lui	a5,%hi(.LC3)
 301 012c 93870700 		addi	a5,a5,%lo(.LC3)
 302 0130 D1B7     		j	.L14
 303              	.L21:
 304 0132 37080000 		lui	a6,%hi(.LC5)
 305 0136 13080800 		addi	a6,a6,%lo(.LC5)
 306 013a E1B7     		j	.L15
 307              	.LVL20:
 308              	.L2:
 309              	.LBE43:
 310              	.LBE46:
 311              	.LBE49:
 312              	.LBE53:
 313              	.LBE54:
 314              	.LBE55:
1017:C:/Users/stapi/OneDrive/Desktop/GD32VW553/V1_MQTT_OK/GD32VW55X_Wifi_BLE_SDK/GD32VW55x_RELEASE_V1.0.2/MSDK/wpa_supplicant/src/ap\hw_features.c **** 	case HOSTAPD_CHAN_ACS:
 315              		.loc 1 1017 2 is_stmt 1
 316              	.LBB56:
 317              	.LBB57:
 318              		.file 2 "C:/Users/stapi/OneDrive/Desktop/GD32VW553/V1_MQTT_OK/GD32VW55X_Wifi_BLE_SDK/GD32VW55x_REL
   1:C:/Users/stapi/OneDrive/Desktop/GD32VW553/V1_MQTT_OK/GD32VW55X_Wifi_BLE_SDK/GD32VW55x_RELEASE_V1.0.2/MSDK/wpa_supplicant/src/ap\acs.h **** /*
   2:C:/Users/stapi/OneDrive/Desktop/GD32VW553/V1_MQTT_OK/GD32VW55X_Wifi_BLE_SDK/GD32VW55x_RELEASE_V1.0.2/MSDK/wpa_supplicant/src/ap\acs.h ****  * ACS - Automatic Channel Selection module
   3:C:/Users/stapi/OneDrive/Desktop/GD32VW553/V1_MQTT_OK/GD32VW55X_Wifi_BLE_SDK/GD32VW55x_RELEASE_V1.0.2/MSDK/wpa_supplicant/src/ap\acs.h ****  * Copyright (c) 2011, Atheros Communications
   4:C:/Users/stapi/OneDrive/Desktop/GD32VW553/V1_MQTT_OK/GD32VW55X_Wifi_BLE_SDK/GD32VW55x_RELEASE_V1.0.2/MSDK/wpa_supplicant/src/ap\acs.h ****  * Copyright (c) 2013, Qualcomm Atheros, Inc.
   5:C:/Users/stapi/OneDrive/Desktop/GD32VW553/V1_MQTT_OK/GD32VW55X_Wifi_BLE_SDK/GD32VW55x_RELEASE_V1.0.2/MSDK/wpa_supplicant/src/ap\acs.h ****  *
   6:C:/Users/stapi/OneDrive/Desktop/GD32VW553/V1_MQTT_OK/GD32VW55X_Wifi_BLE_SDK/GD32VW55x_RELEASE_V1.0.2/MSDK/wpa_supplicant/src/ap\acs.h ****  * This software may be distributed under the terms of the BSD license.
   7:C:/Users/stapi/OneDrive/Desktop/GD32VW553/V1_MQTT_OK/GD32VW55X_Wifi_BLE_SDK/GD32VW55x_RELEASE_V1.0.2/MSDK/wpa_supplicant/src/ap\acs.h ****  * See README for more details.
   8:C:/Users/stapi/OneDrive/Desktop/GD32VW553/V1_MQTT_OK/GD32VW55X_Wifi_BLE_SDK/GD32VW55x_RELEASE_V1.0.2/MSDK/wpa_supplicant/src/ap\acs.h ****  */
   9:C:/Users/stapi/OneDrive/Desktop/GD32VW553/V1_MQTT_OK/GD32VW55X_Wifi_BLE_SDK/GD32VW55x_RELEASE_V1.0.2/MSDK/wpa_supplicant/src/ap\acs.h **** 
  10:C:/Users/stapi/OneDrive/Desktop/GD32VW553/V1_MQTT_OK/GD32VW55X_Wifi_BLE_SDK/GD32VW55x_RELEASE_V1.0.2/MSDK/wpa_supplicant/src/ap\acs.h **** #ifndef ACS_H
  11:C:/Users/stapi/OneDrive/Desktop/GD32VW553/V1_MQTT_OK/GD32VW55X_Wifi_BLE_SDK/GD32VW55x_RELEASE_V1.0.2/MSDK/wpa_supplicant/src/ap\acs.h **** #define ACS_H
  12:C:/Users/stapi/OneDrive/Desktop/GD32VW553/V1_MQTT_OK/GD32VW55X_Wifi_BLE_SDK/GD32VW55x_RELEASE_V1.0.2/MSDK/wpa_supplicant/src/ap\acs.h **** 
  13:C:/Users/stapi/OneDrive/Desktop/GD32VW553/V1_MQTT_OK/GD32VW55X_Wifi_BLE_SDK/GD32VW55x_RELEASE_V1.0.2/MSDK/wpa_supplicant/src/ap\acs.h **** #ifdef CONFIG_ACS
  14:C:/Users/stapi/OneDrive/Desktop/GD32VW553/V1_MQTT_OK/GD32VW55X_Wifi_BLE_SDK/GD32VW55x_RELEASE_V1.0.2/MSDK/wpa_supplicant/src/ap\acs.h **** 
  15:C:/Users/stapi/OneDrive/Desktop/GD32VW553/V1_MQTT_OK/GD32VW55X_Wifi_BLE_SDK/GD32VW55x_RELEASE_V1.0.2/MSDK/wpa_supplicant/src/ap\acs.h **** enum hostapd_chan_status acs_init(struct hostapd_iface *iface);
  16:C:/Users/stapi/OneDrive/Desktop/GD32VW553/V1_MQTT_OK/GD32VW55X_Wifi_BLE_SDK/GD32VW55x_RELEASE_V1.0.2/MSDK/wpa_supplicant/src/ap\acs.h **** void acs_cleanup(struct hostapd_iface *iface);
  17:C:/Users/stapi/OneDrive/Desktop/GD32VW553/V1_MQTT_OK/GD32VW55X_Wifi_BLE_SDK/GD32VW55x_RELEASE_V1.0.2/MSDK/wpa_supplicant/src/ap\acs.h **** 
  18:C:/Users/stapi/OneDrive/Desktop/GD32VW553/V1_MQTT_OK/GD32VW55X_Wifi_BLE_SDK/GD32VW55x_RELEASE_V1.0.2/MSDK/wpa_supplicant/src/ap\acs.h **** #else /* CONFIG_ACS */
  19:C:/Users/stapi/OneDrive/Desktop/GD32VW553/V1_MQTT_OK/GD32VW55X_Wifi_BLE_SDK/GD32VW55x_RELEASE_V1.0.2/MSDK/wpa_supplicant/src/ap\acs.h **** 
  20:C:/Users/stapi/OneDrive/Desktop/GD32VW553/V1_MQTT_OK/GD32VW55X_Wifi_BLE_SDK/GD32VW55x_RELEASE_V1.0.2/MSDK/wpa_supplicant/src/ap\acs.h **** static inline enum hostapd_chan_status acs_init(struct hostapd_iface *iface)
  21:C:/Users/stapi/OneDrive/Desktop/GD32VW553/V1_MQTT_OK/GD32VW55X_Wifi_BLE_SDK/GD32VW55x_RELEASE_V1.0.2/MSDK/wpa_supplicant/src/ap\acs.h **** {
  22:C:/Users/stapi/OneDrive/Desktop/GD32VW553/V1_MQTT_OK/GD32VW55X_Wifi_BLE_SDK/GD32VW55x_RELEASE_V1.0.2/MSDK/wpa_supplicant/src/ap\acs.h **** 	wpa_printf(MSG_ERROR, "ACS was disabled on your build, rebuild hostapd with CONFIG_ACS=y or set ch
 319              		.loc 2 22 2
 320 013c B7050000 		lui	a1,%hi(.LC10)
 321 0140 93850500 		addi	a1,a1,%lo(.LC10)
 322 0144 A1BF     		j	.L27
 323              	.LBE57:
 324              	.LBE56:
 325              		.cfi_endproc
 326              	.LFE187:
 328              		.section	.text.hostapd_free_hw_features,"ax",@progbits
 329              		.align	1
 330              		.globl	hostapd_free_hw_features
 332              	hostapd_free_hw_features:
 333              	.LFB167:
  31:C:/Users/stapi/OneDrive/Desktop/GD32VW553/V1_MQTT_OK/GD32VW55X_Wifi_BLE_SDK/GD32VW55x_RELEASE_V1.0.2/MSDK/wpa_supplicant/src/ap\hw_features.c **** 	size_t i;
 334              		.loc 1 31 1
 335              		.cfi_startproc
 336              	.LVL21:
  32:C:/Users/stapi/OneDrive/Desktop/GD32VW553/V1_MQTT_OK/GD32VW55X_Wifi_BLE_SDK/GD32VW55x_RELEASE_V1.0.2/MSDK/wpa_supplicant/src/ap\hw_features.c **** 
 337              		.loc 1 32 2
  34:C:/Users/stapi/OneDrive/Desktop/GD32VW553/V1_MQTT_OK/GD32VW55X_Wifi_BLE_SDK/GD32VW55x_RELEASE_V1.0.2/MSDK/wpa_supplicant/src/ap\hw_features.c **** 		return;
 338              		.loc 1 34 2
  34:C:/Users/stapi/OneDrive/Desktop/GD32VW553/V1_MQTT_OK/GD32VW55X_Wifi_BLE_SDK/GD32VW55x_RELEASE_V1.0.2/MSDK/wpa_supplicant/src/ap\hw_features.c **** 		return;
 339              		.loc 1 34 5 is_stmt 0
 340 0000 39C1     		beq	a0,zero,.L36
  31:C:/Users/stapi/OneDrive/Desktop/GD32VW553/V1_MQTT_OK/GD32VW55X_Wifi_BLE_SDK/GD32VW55x_RELEASE_V1.0.2/MSDK/wpa_supplicant/src/ap\hw_features.c **** 	size_t i;
 341              		.loc 1 31 1
 342 0002 17030000 		call	t0,__riscv_save_4
 342      E7020300 
 343              		.cfi_offset 19, -20
 344              		.cfi_offset 18, -16
 345              		.cfi_offset 9, -12
 346              		.cfi_offset 8, -8
 347              		.cfi_offset 1, -4
 348              		.cfi_def_cfa_offset 32
 349 000a 2A84     		mv	s0,a0
 350 000c AE89     		mv	s3,a1
 351 000e 93048500 		addi	s1,a0,8
 352              	.LBB60:
 353              	.LBB61:
  37:C:/Users/stapi/OneDrive/Desktop/GD32VW553/V1_MQTT_OK/GD32VW55X_Wifi_BLE_SDK/GD32VW55x_RELEASE_V1.0.2/MSDK/wpa_supplicant/src/ap\hw_features.c **** 		os_free(hw_features[i].channels);
 354              		.loc 1 37 9
 355 0012 0149     		li	s2,0
 356              	.LVL22:
 357              	.L30:
  37:C:/Users/stapi/OneDrive/Desktop/GD32VW553/V1_MQTT_OK/GD32VW55X_Wifi_BLE_SDK/GD32VW55x_RELEASE_V1.0.2/MSDK/wpa_supplicant/src/ap\hw_features.c **** 		os_free(hw_features[i].channels);
 358              		.loc 1 37 14 is_stmt 1
  37:C:/Users/stapi/OneDrive/Desktop/GD32VW553/V1_MQTT_OK/GD32VW55X_Wifi_BLE_SDK/GD32VW55x_RELEASE_V1.0.2/MSDK/wpa_supplicant/src/ap\hw_features.c **** 		os_free(hw_features[i].channels);
 359              		.loc 1 37 2 is_stmt 0
 360 0014 639B2901 		bne	s3,s2,.L31
  42:C:/Users/stapi/OneDrive/Desktop/GD32VW553/V1_MQTT_OK/GD32VW55X_Wifi_BLE_SDK/GD32VW55x_RELEASE_V1.0.2/MSDK/wpa_supplicant/src/ap\hw_features.c **** }
 361              		.loc 1 42 2 is_stmt 1
 362 0018 2285     		mv	a0,s0
 363 001a 97000000 		call	os_free
 363      E7800000 
 364              	.LVL23:
 365              	.LBE61:
 366              	.LBE60:
  43:C:/Users/stapi/OneDrive/Desktop/GD32VW553/V1_MQTT_OK/GD32VW55X_Wifi_BLE_SDK/GD32VW55x_RELEASE_V1.0.2/MSDK/wpa_supplicant/src/ap\hw_features.c **** 
 367              		.loc 1 43 1 is_stmt 0
 368 0022 17030000 		tail	__riscv_restore_4
 368      67000300 
 369              		.cfi_remember_state
 370              		.cfi_restore 19
 371              		.cfi_restore 18
 372              		.cfi_restore 9
 373              		.cfi_restore 8
 374              		.cfi_restore 1
 375              		.cfi_def_cfa_offset 0
 376              	.LVL24:
 377              	.L31:
 378              		.cfi_restore_state
 379              	.LBB63:
 380              	.LBB62:
  38:C:/Users/stapi/OneDrive/Desktop/GD32VW553/V1_MQTT_OK/GD32VW55X_Wifi_BLE_SDK/GD32VW55x_RELEASE_V1.0.2/MSDK/wpa_supplicant/src/ap\hw_features.c **** 		os_free(hw_features[i].rates);
 381              		.loc 1 38 3 is_stmt 1
 382 002a 8840     		lw	a0,0(s1)
  37:C:/Users/stapi/OneDrive/Desktop/GD32VW553/V1_MQTT_OK/GD32VW55X_Wifi_BLE_SDK/GD32VW55x_RELEASE_V1.0.2/MSDK/wpa_supplicant/src/ap\hw_features.c **** 		os_free(hw_features[i].channels);
 383              		.loc 1 37 36 is_stmt 0
 384 002c 0509     		addi	s2,s2,1
 385              	.LVL25:
  38:C:/Users/stapi/OneDrive/Desktop/GD32VW553/V1_MQTT_OK/GD32VW55X_Wifi_BLE_SDK/GD32VW55x_RELEASE_V1.0.2/MSDK/wpa_supplicant/src/ap\hw_features.c **** 		os_free(hw_features[i].rates);
 386              		.loc 1 38 3
 387 002e 97000000 		call	os_free
 387      E7800000 
 388              	.LVL26:
  39:C:/Users/stapi/OneDrive/Desktop/GD32VW553/V1_MQTT_OK/GD32VW55X_Wifi_BLE_SDK/GD32VW55x_RELEASE_V1.0.2/MSDK/wpa_supplicant/src/ap\hw_features.c **** 	}
 389              		.loc 1 39 3 is_stmt 1
 390 0036 8844     		lw	a0,8(s1)
 391 0038 9384C419 		addi	s1,s1,412
 392 003c 97000000 		call	os_free
 392      E7800000 
 393              	.LVL27:
  37:C:/Users/stapi/OneDrive/Desktop/GD32VW553/V1_MQTT_OK/GD32VW55X_Wifi_BLE_SDK/GD32VW55x_RELEASE_V1.0.2/MSDK/wpa_supplicant/src/ap\hw_features.c **** 		os_free(hw_features[i].channels);
 394              		.loc 1 37 35
 395 0044 C1BF     		j	.L30
 396              	.LVL28:
 397              	.L36:
 398              		.cfi_def_cfa_offset 0
 399              		.cfi_restore 1
 400              		.cfi_restore 8
 401              		.cfi_restore 9
 402              		.cfi_restore 18
 403              		.cfi_restore 19
 404 0046 8280     		ret
 405              	.LBE62:
 406              	.LBE63:
 407              		.cfi_endproc
 408              	.LFE167:
 410              		.section	.rodata.hostapd_get_hw_features.str1.4,"aMS",@progbits,1
 411              		.align	2
 412              	.LC12:
 413 0000 75736162 		.string	"usable"
 413      6C6500
 414 0007 00       		.align	2
 415              	.LC13:
 416 0008 756E6B6E 		.string	"unknown"
 416      6F776E00 
 417              		.align	2
 418              	.LC14:
 419 0010 756E6176 		.string	"unavailable"
 419      61696C61 
 419      626C6500 
 420              		.align	2
 421              	.LC15:
 422 001c 61766169 		.string	"available"
 422      6C61626C 
 422      6500
 423 0026 0000     		.align	2
 424              	.LC16:
 425 0028 20284446 		.string	" (DFS state = %s)"
 425      53207374 
 425      61746520 
 425      3D202573 
 425      2900
 426 003a 0000     		.align	2
 427              	.LC17:
 428 003c 416C6C6F 		.string	"Allowed channel: mode=%d chan=%d freq=%d MHz max_tx_power=%d dBm%s"
 428      77656420 
 428      6368616E 
 428      6E656C3A 
 428      206D6F64 
 429              		.section	.text.hostapd_get_hw_features,"ax",@progbits
 430              		.align	1
 431              		.globl	hostapd_get_hw_features
 433              	hostapd_get_hw_features:
 434              	.LFB169:
  77:C:/Users/stapi/OneDrive/Desktop/GD32VW553/V1_MQTT_OK/GD32VW55X_Wifi_BLE_SDK/GD32VW55x_RELEASE_V1.0.2/MSDK/wpa_supplicant/src/ap\hw_features.c **** 	struct hostapd_data *hapd = iface->bss[0];
 435              		.loc 1 77 1
 436              		.cfi_startproc
 437              	.LVL29:
 438 0000 17030000 		call	t0,__riscv_save_12
 438      E7020300 
 439              		.cfi_offset 27, -52
 440              		.cfi_offset 26, -48
 441              		.cfi_offset 25, -44
 442              		.cfi_offset 24, -40
 443              		.cfi_offset 23, -36
 444              		.cfi_offset 22, -32
 445              		.cfi_offset 21, -28
 446              		.cfi_offset 20, -24
 447              		.cfi_offset 19, -20
 448              		.cfi_offset 18, -16
 449              		.cfi_offset 9, -12
 450              		.cfi_offset 8, -8
 451              		.cfi_offset 1, -4
 452              		.cfi_def_cfa_offset 64
  78:C:/Users/stapi/OneDrive/Desktop/GD32VW553/V1_MQTT_OK/GD32VW55X_Wifi_BLE_SDK/GD32VW55x_RELEASE_V1.0.2/MSDK/wpa_supplicant/src/ap\hw_features.c **** 	int i, j;
 453              		.loc 1 78 2
  78:C:/Users/stapi/OneDrive/Desktop/GD32VW553/V1_MQTT_OK/GD32VW55X_Wifi_BLE_SDK/GD32VW55x_RELEASE_V1.0.2/MSDK/wpa_supplicant/src/ap\hw_features.c **** 	int i, j;
 454              		.loc 1 78 23 is_stmt 0
 455 0008 1C55     		lw	a5,40(a0)
  77:C:/Users/stapi/OneDrive/Desktop/GD32VW553/V1_MQTT_OK/GD32VW55X_Wifi_BLE_SDK/GD32VW55x_RELEASE_V1.0.2/MSDK/wpa_supplicant/src/ap\hw_features.c **** 	struct hostapd_data *hapd = iface->bss[0];
 456              		.loc 1 77 1
 457 000a 0111     		addi	sp,sp,-32
 458              		.cfi_def_cfa_offset 96
  77:C:/Users/stapi/OneDrive/Desktop/GD32VW553/V1_MQTT_OK/GD32VW55X_Wifi_BLE_SDK/GD32VW55x_RELEASE_V1.0.2/MSDK/wpa_supplicant/src/ap\hw_features.c **** 	struct hostapd_data *hapd = iface->bss[0];
 459              		.loc 1 77 1
 460 000c 2A8C     		mv	s8,a0
  78:C:/Users/stapi/OneDrive/Desktop/GD32VW553/V1_MQTT_OK/GD32VW55X_Wifi_BLE_SDK/GD32VW55x_RELEASE_V1.0.2/MSDK/wpa_supplicant/src/ap\hw_features.c **** 	int i, j;
 461              		.loc 1 78 23
 462 000e 03A90700 		lw	s2,0(a5)
 463              	.LVL30:
  79:C:/Users/stapi/OneDrive/Desktop/GD32VW553/V1_MQTT_OK/GD32VW55X_Wifi_BLE_SDK/GD32VW55x_RELEASE_V1.0.2/MSDK/wpa_supplicant/src/ap\hw_features.c **** 	u16 num_modes, flags;
 464              		.loc 1 79 2 is_stmt 1
  80:C:/Users/stapi/OneDrive/Desktop/GD32VW553/V1_MQTT_OK/GD32VW55X_Wifi_BLE_SDK/GD32VW55x_RELEASE_V1.0.2/MSDK/wpa_supplicant/src/ap\hw_features.c **** 	struct hostapd_hw_modes *modes;
 465              		.loc 1 80 2
  81:C:/Users/stapi/OneDrive/Desktop/GD32VW553/V1_MQTT_OK/GD32VW55X_Wifi_BLE_SDK/GD32VW55x_RELEASE_V1.0.2/MSDK/wpa_supplicant/src/ap\hw_features.c **** 	u8 dfs_domain;
 466              		.loc 1 81 2
  82:C:/Users/stapi/OneDrive/Desktop/GD32VW553/V1_MQTT_OK/GD32VW55X_Wifi_BLE_SDK/GD32VW55x_RELEASE_V1.0.2/MSDK/wpa_supplicant/src/ap\hw_features.c **** 
 467              		.loc 1 82 2
  84:C:/Users/stapi/OneDrive/Desktop/GD32VW553/V1_MQTT_OK/GD32VW55X_Wifi_BLE_SDK/GD32VW55x_RELEASE_V1.0.2/MSDK/wpa_supplicant/src/ap\hw_features.c **** 		return -1;
 468              		.loc 1 84 2
  84:C:/Users/stapi/OneDrive/Desktop/GD32VW553/V1_MQTT_OK/GD32VW55X_Wifi_BLE_SDK/GD32VW55x_RELEASE_V1.0.2/MSDK/wpa_supplicant/src/ap\hw_features.c **** 		return -1;
 469              		.loc 1 84 6 is_stmt 0
 470 0012 4A85     		mv	a0,s2
 471              	.LVL31:
 472 0014 97000000 		call	hostapd_drv_none
 472      E7800000 
 473              	.LVL32:
  84:C:/Users/stapi/OneDrive/Desktop/GD32VW553/V1_MQTT_OK/GD32VW55X_Wifi_BLE_SDK/GD32VW55x_RELEASE_V1.0.2/MSDK/wpa_supplicant/src/ap\hw_features.c **** 		return -1;
 474              		.loc 1 84 5
 475 001c 01C9     		beq	a0,zero,.L40
 476              	.L42:
  85:C:/Users/stapi/OneDrive/Desktop/GD32VW553/V1_MQTT_OK/GD32VW55X_Wifi_BLE_SDK/GD32VW55x_RELEASE_V1.0.2/MSDK/wpa_supplicant/src/ap\hw_features.c **** 	modes = hostapd_get_hw_feature_data(hapd, &num_modes, &flags,
 477              		.loc 1 85 10
 478 001e FD54     		li	s1,-1
 479              	.L39:
 146:C:/Users/stapi/OneDrive/Desktop/GD32VW553/V1_MQTT_OK/GD32VW55X_Wifi_BLE_SDK/GD32VW55x_RELEASE_V1.0.2/MSDK/wpa_supplicant/src/ap\hw_features.c **** 
 480              		.loc 1 146 1
 481 0020 2685     		mv	a0,s1
 482 0022 0561     		addi	sp,sp,32
 483              		.cfi_remember_state
 484              		.cfi_def_cfa_offset 0
 485 0024 17030000 		tail	__riscv_restore_12
 485      67000300 
 486              		.cfi_restore 27
 487              		.cfi_restore 26
 488              		.cfi_restore 25
 489              		.cfi_restore 24
 490              		.cfi_restore 23
 491              		.cfi_restore 22
 492              		.cfi_restore 21
 493              		.cfi_restore 20
 494              		.cfi_restore 19
 495              		.cfi_restore 18
 496              		.cfi_restore 9
 497              		.cfi_restore 8
 498              		.cfi_restore 1
 499              		.cfi_def_cfa_offset -64
 500              	.L40:
 501              		.cfi_restore_state
 502 002c AA84     		mv	s1,a0
  86:C:/Users/stapi/OneDrive/Desktop/GD32VW553/V1_MQTT_OK/GD32VW55X_Wifi_BLE_SDK/GD32VW55x_RELEASE_V1.0.2/MSDK/wpa_supplicant/src/ap\hw_features.c **** 					    &dfs_domain);
 503              		.loc 1 86 2 is_stmt 1
  86:C:/Users/stapi/OneDrive/Desktop/GD32VW553/V1_MQTT_OK/GD32VW55X_Wifi_BLE_SDK/GD32VW55x_RELEASE_V1.0.2/MSDK/wpa_supplicant/src/ap\hw_features.c **** 					    &dfs_domain);
 504              		.loc 1 86 10 is_stmt 0
 505 002e 9306B101 		addi	a3,sp,27
 506 0032 1306E101 		addi	a2,sp,30
 507 0036 6C08     		addi	a1,sp,28
 508 0038 4A85     		mv	a0,s2
 509 003a 97000000 		call	hostapd_get_hw_feature_data
 509      E7800000 
 510              	.LVL33:
 511 0042 2A84     		mv	s0,a0
 512              	.LVL34:
  88:C:/Users/stapi/OneDrive/Desktop/GD32VW553/V1_MQTT_OK/GD32VW55X_Wifi_BLE_SDK/GD32VW55x_RELEASE_V1.0.2/MSDK/wpa_supplicant/src/ap\hw_features.c **** 		hostapd_logger(hapd, NULL, HOSTAPD_MODULE_IEEE80211,
 513              		.loc 1 88 2 is_stmt 1
  88:C:/Users/stapi/OneDrive/Desktop/GD32VW553/V1_MQTT_OK/GD32VW55X_Wifi_BLE_SDK/GD32VW55x_RELEASE_V1.0.2/MSDK/wpa_supplicant/src/ap\hw_features.c **** 		hostapd_logger(hapd, NULL, HOSTAPD_MODULE_IEEE80211,
 514              		.loc 1 88 5 is_stmt 0
 515 0044 69DD     		beq	a0,zero,.L42
  96:C:/Users/stapi/OneDrive/Desktop/GD32VW553/V1_MQTT_OK/GD32VW55X_Wifi_BLE_SDK/GD32VW55x_RELEASE_V1.0.2/MSDK/wpa_supplicant/src/ap\hw_features.c **** 	iface->dfs_domain = dfs_domain;
 516              		.loc 1 96 2 is_stmt 1
  96:C:/Users/stapi/OneDrive/Desktop/GD32VW553/V1_MQTT_OK/GD32VW55X_Wifi_BLE_SDK/GD32VW55x_RELEASE_V1.0.2/MSDK/wpa_supplicant/src/ap\hw_features.c **** 	iface->dfs_domain = dfs_domain;
 517              		.loc 1 96 18 is_stmt 0
 518 0046 8357E101 		lhu	a5,30(sp)
  99:C:/Users/stapi/OneDrive/Desktop/GD32VW553/V1_MQTT_OK/GD32VW55X_Wifi_BLE_SDK/GD32VW55x_RELEASE_V1.0.2/MSDK/wpa_supplicant/src/ap\hw_features.c **** 	iface->hw_features = modes;
 519              		.loc 1 99 2
 520 004a 83250C46 		lw	a1,1120(s8)
 521 004e 0325CC45 		lw	a0,1116(s8)
  96:C:/Users/stapi/OneDrive/Desktop/GD32VW553/V1_MQTT_OK/GD32VW55X_Wifi_BLE_SDK/GD32VW55x_RELEASE_V1.0.2/MSDK/wpa_supplicant/src/ap\hw_features.c **** 	iface->dfs_domain = dfs_domain;
 522              		.loc 1 96 18
 523 0052 231CFC46 		sh	a5,1144(s8)
  97:C:/Users/stapi/OneDrive/Desktop/GD32VW553/V1_MQTT_OK/GD32VW55X_Wifi_BLE_SDK/GD32VW55x_RELEASE_V1.0.2/MSDK/wpa_supplicant/src/ap\hw_features.c **** 
 524              		.loc 1 97 2 is_stmt 1
  97:C:/Users/stapi/OneDrive/Desktop/GD32VW553/V1_MQTT_OK/GD32VW55X_Wifi_BLE_SDK/GD32VW55x_RELEASE_V1.0.2/MSDK/wpa_supplicant/src/ap\hw_features.c **** 
 525              		.loc 1 97 20 is_stmt 0
 526 0056 8347B101 		lbu	a5,27(sp)
 527              	.LBB68:
 528              	.LBB69:
 135:C:/Users/stapi/OneDrive/Desktop/GD32VW553/V1_MQTT_OK/GD32VW55X_Wifi_BLE_SDK/GD32VW55x_RELEASE_V1.0.2/MSDK/wpa_supplicant/src/ap\hw_features.c **** 				   "chan=%d freq=%d MHz max_tx_power=%d dBm%s",
 529              		.loc 1 135 4
 530 005a 370B0000 		lui	s6,%hi(.LC4)
 531              	.LBB70:
 532              	.LBB71:
  68:C:/Users/stapi/OneDrive/Desktop/GD32VW553/V1_MQTT_OK/GD32VW55X_Wifi_BLE_SDK/GD32VW55x_RELEASE_V1.0.2/MSDK/wpa_supplicant/src/ap\hw_features.c **** 	info[sizeof(info) - 1] = '\0';
 533              		.loc 1 68 2
 534 005e B70B0000 		lui	s7,%hi(.LANCHOR0)
 535              	.LBE71:
 536              	.LBE70:
 537              	.LBE69:
 538              	.LBE68:
  97:C:/Users/stapi/OneDrive/Desktop/GD32VW553/V1_MQTT_OK/GD32VW55X_Wifi_BLE_SDK/GD32VW55x_RELEASE_V1.0.2/MSDK/wpa_supplicant/src/ap\hw_features.c **** 
 539              		.loc 1 97 20
 540 0062 230CFC4E 		sb	a5,1272(s8)
  99:C:/Users/stapi/OneDrive/Desktop/GD32VW553/V1_MQTT_OK/GD32VW55X_Wifi_BLE_SDK/GD32VW55x_RELEASE_V1.0.2/MSDK/wpa_supplicant/src/ap\hw_features.c **** 	iface->hw_features = modes;
 541              		.loc 1 99 2 is_stmt 1
 542 0066 97000000 		call	hostapd_free_hw_features
 542      E7800000 
 543              	.LVL35:
 100:C:/Users/stapi/OneDrive/Desktop/GD32VW553/V1_MQTT_OK/GD32VW55X_Wifi_BLE_SDK/GD32VW55x_RELEASE_V1.0.2/MSDK/wpa_supplicant/src/ap\hw_features.c **** 	iface->num_hw_features = num_modes;
 544              		.loc 1 100 2
 101:C:/Users/stapi/OneDrive/Desktop/GD32VW553/V1_MQTT_OK/GD32VW55X_Wifi_BLE_SDK/GD32VW55x_RELEASE_V1.0.2/MSDK/wpa_supplicant/src/ap\hw_features.c **** 
 545              		.loc 1 101 25 is_stmt 0
 546 006e 8357C101 		lhu	a5,28(sp)
 547              	.LBB90:
 548              	.LBB84:
 549              	.LBB78:
 550              	.LBB72:
  60:C:/Users/stapi/OneDrive/Desktop/GD32VW553/V1_MQTT_OK/GD32VW55X_Wifi_BLE_SDK/GD32VW55x_RELEASE_V1.0.2/MSDK/wpa_supplicant/src/ap\hw_features.c **** 		break;
 551              		.loc 1 60 9
 552 0072 B7090000 		lui	s3,%hi(.LC14)
 553              	.LBE72:
 554              	.LBE78:
 555              	.LBE84:
 556              	.LBE90:
 100:C:/Users/stapi/OneDrive/Desktop/GD32VW553/V1_MQTT_OK/GD32VW55X_Wifi_BLE_SDK/GD32VW55x_RELEASE_V1.0.2/MSDK/wpa_supplicant/src/ap\hw_features.c **** 	iface->num_hw_features = num_modes;
 557              		.loc 1 100 21
 558 0076 232E8C44 		sw	s0,1116(s8)
 101:C:/Users/stapi/OneDrive/Desktop/GD32VW553/V1_MQTT_OK/GD32VW55X_Wifi_BLE_SDK/GD32VW55x_RELEASE_V1.0.2/MSDK/wpa_supplicant/src/ap\hw_features.c **** 
 559              		.loc 1 101 2 is_stmt 1
 101:C:/Users/stapi/OneDrive/Desktop/GD32VW553/V1_MQTT_OK/GD32VW55X_Wifi_BLE_SDK/GD32VW55x_RELEASE_V1.0.2/MSDK/wpa_supplicant/src/ap\hw_features.c **** 
 560              		.loc 1 101 25 is_stmt 0
 561 007a 2320FC46 		sw	a5,1120(s8)
 103:C:/Users/stapi/OneDrive/Desktop/GD32VW553/V1_MQTT_OK/GD32VW55X_Wifi_BLE_SDK/GD32VW55x_RELEASE_V1.0.2/MSDK/wpa_supplicant/src/ap\hw_features.c **** 		struct hostapd_hw_modes *feature = &modes[i];
 562              		.loc 1 103 2 is_stmt 1
 563              	.LVL36:
 103:C:/Users/stapi/OneDrive/Desktop/GD32VW553/V1_MQTT_OK/GD32VW55X_Wifi_BLE_SDK/GD32VW55x_RELEASE_V1.0.2/MSDK/wpa_supplicant/src/ap\hw_features.c **** 		struct hostapd_hw_modes *feature = &modes[i];
 564              		.loc 1 103 9 is_stmt 0
 565 007e 014D     		li	s10,0
 566              	.LBB91:
 567              	.LBB85:
 135:C:/Users/stapi/OneDrive/Desktop/GD32VW553/V1_MQTT_OK/GD32VW55X_Wifi_BLE_SDK/GD32VW55x_RELEASE_V1.0.2/MSDK/wpa_supplicant/src/ap\hw_features.c **** 				   "chan=%d freq=%d MHz max_tx_power=%d dBm%s",
 568              		.loc 1 135 4
 569 0080 130B0B00 		addi	s6,s6,%lo(.LC4)
 570              	.LBB79:
 571              	.LBB73:
  68:C:/Users/stapi/OneDrive/Desktop/GD32VW553/V1_MQTT_OK/GD32VW55X_Wifi_BLE_SDK/GD32VW55x_RELEASE_V1.0.2/MSDK/wpa_supplicant/src/ap\hw_features.c **** 	info[sizeof(info) - 1] = '\0';
 572              		.loc 1 68 2
 573 0084 938B0B00 		addi	s7,s7,%lo(.LANCHOR0)
  60:C:/Users/stapi/OneDrive/Desktop/GD32VW553/V1_MQTT_OK/GD32VW55X_Wifi_BLE_SDK/GD32VW55x_RELEASE_V1.0.2/MSDK/wpa_supplicant/src/ap\hw_features.c **** 		break;
 574              		.loc 1 60 9
 575 0088 93890900 		addi	s3,s3,%lo(.LC14)
 576              	.LVL37:
 577              	.L43:
 578              	.LBE73:
 579              	.LBE79:
 580              	.LBE85:
 581              	.LBE91:
 103:C:/Users/stapi/OneDrive/Desktop/GD32VW553/V1_MQTT_OK/GD32VW55X_Wifi_BLE_SDK/GD32VW55x_RELEASE_V1.0.2/MSDK/wpa_supplicant/src/ap\hw_features.c **** 		struct hostapd_hw_modes *feature = &modes[i];
 582              		.loc 1 103 14 is_stmt 1 discriminator 1
 103:C:/Users/stapi/OneDrive/Desktop/GD32VW553/V1_MQTT_OK/GD32VW55X_Wifi_BLE_SDK/GD32VW55x_RELEASE_V1.0.2/MSDK/wpa_supplicant/src/ap\hw_features.c **** 		struct hostapd_hw_modes *feature = &modes[i];
 583              		.loc 1 103 16 is_stmt 0 discriminator 1
 584 008c 8357C101 		lhu	a5,28(sp)
 103:C:/Users/stapi/OneDrive/Desktop/GD32VW553/V1_MQTT_OK/GD32VW55X_Wifi_BLE_SDK/GD32VW55x_RELEASE_V1.0.2/MSDK/wpa_supplicant/src/ap\hw_features.c **** 		struct hostapd_hw_modes *feature = &modes[i];
 585              		.loc 1 103 2 discriminator 1
 586 0090 E358FDF8 		ble	a5,s10,.L39
 587              	.LBB92:
 104:C:/Users/stapi/OneDrive/Desktop/GD32VW553/V1_MQTT_OK/GD32VW55X_Wifi_BLE_SDK/GD32VW55x_RELEASE_V1.0.2/MSDK/wpa_supplicant/src/ap\hw_features.c **** 		int dfs_enabled = hapd->iconf->ieee80211h &&
 588              		.loc 1 104 3 is_stmt 1
 589              	.LVL38:
 105:C:/Users/stapi/OneDrive/Desktop/GD32VW553/V1_MQTT_OK/GD32VW55X_Wifi_BLE_SDK/GD32VW55x_RELEASE_V1.0.2/MSDK/wpa_supplicant/src/ap\hw_features.c **** 			(iface->drv_flags & WPA_DRIVER_FLAGS_RADAR);
 590              		.loc 1 105 3
 105:C:/Users/stapi/OneDrive/Desktop/GD32VW553/V1_MQTT_OK/GD32VW55X_Wifi_BLE_SDK/GD32VW55x_RELEASE_V1.0.2/MSDK/wpa_supplicant/src/ap\hw_features.c **** 			(iface->drv_flags & WPA_DRIVER_FLAGS_RADAR);
 591              		.loc 1 105 32 is_stmt 0
 592 0094 83274900 		lw	a5,4(s2)
 593 0098 83AAC707 		lw	s5,124(a5)
 105:C:/Users/stapi/OneDrive/Desktop/GD32VW553/V1_MQTT_OK/GD32VW55X_Wifi_BLE_SDK/GD32VW55x_RELEASE_V1.0.2/MSDK/wpa_supplicant/src/ap\hw_features.c **** 			(iface->drv_flags & WPA_DRIVER_FLAGS_RADAR);
 594              		.loc 1 105 45
 595 009c 63860A00 		beq	s5,zero,.L44
 105:C:/Users/stapi/OneDrive/Desktop/GD32VW553/V1_MQTT_OK/GD32VW55X_Wifi_BLE_SDK/GD32VW55x_RELEASE_V1.0.2/MSDK/wpa_supplicant/src/ap\hw_features.c **** 			(iface->drv_flags & WPA_DRIVER_FLAGS_RADAR);
 596              		.loc 1 105 45 discriminator 1
 597 00a0 832A8C43 		lw	s5,1080(s8)
 598 00a4 93DACA49 		bexti	s5,s5,28
 599              	.L44:
 600              	.LVL39:
 110:C:/Users/stapi/OneDrive/Desktop/GD32VW553/V1_MQTT_OK/GD32VW55X_Wifi_BLE_SDK/GD32VW55x_RELEASE_V1.0.2/MSDK/wpa_supplicant/src/ap\hw_features.c **** 			int dfs = 0;
 601              		.loc 1 110 3 is_stmt 1 discriminator 6
 602              	.LBB86:
 603              	.LBB80:
 604              	.LBB74:
  63:C:/Users/stapi/OneDrive/Desktop/GD32VW553/V1_MQTT_OK/GD32VW55X_Wifi_BLE_SDK/GD32VW55x_RELEASE_V1.0.2/MSDK/wpa_supplicant/src/ap\hw_features.c **** 		break;
 605              		.loc 1 63 9 is_stmt 0 discriminator 6
 606 00a8 370A0000 		lui	s4,%hi(.LC15)
 607              	.LBE74:
 608              	.LBE80:
 609              	.LBE86:
 110:C:/Users/stapi/OneDrive/Desktop/GD32VW553/V1_MQTT_OK/GD32VW55X_Wifi_BLE_SDK/GD32VW55x_RELEASE_V1.0.2/MSDK/wpa_supplicant/src/ap\hw_features.c **** 			int dfs = 0;
 610              		.loc 1 110 10 discriminator 6
 611 00ac 814C     		li	s9,0
 612              	.LBB87:
 613              	.LBB81:
 614              	.LBB75:
  63:C:/Users/stapi/OneDrive/Desktop/GD32VW553/V1_MQTT_OK/GD32VW55X_Wifi_BLE_SDK/GD32VW55x_RELEASE_V1.0.2/MSDK/wpa_supplicant/src/ap\hw_features.c **** 		break;
 615              		.loc 1 63 9 discriminator 6
 616 00ae 130A0A00 		addi	s4,s4,%lo(.LC15)
 617              	.LVL40:
 618              	.L45:
 619              	.LBE75:
 620              	.LBE81:
 621              	.LBE87:
 110:C:/Users/stapi/OneDrive/Desktop/GD32VW553/V1_MQTT_OK/GD32VW55X_Wifi_BLE_SDK/GD32VW55x_RELEASE_V1.0.2/MSDK/wpa_supplicant/src/ap\hw_features.c **** 			int dfs = 0;
 622              		.loc 1 110 15 is_stmt 1 discriminator 1
 110:C:/Users/stapi/OneDrive/Desktop/GD32VW553/V1_MQTT_OK/GD32VW55X_Wifi_BLE_SDK/GD32VW55x_RELEASE_V1.0.2/MSDK/wpa_supplicant/src/ap\hw_features.c **** 			int dfs = 0;
 623              		.loc 1 110 3 is_stmt 0 discriminator 1
 624 00b2 5C40     		lw	a5,4(s0)
 625 00b4 63C6FC00 		bgt	a5,s9,.L54
 626              	.LBE92:
 103:C:/Users/stapi/OneDrive/Desktop/GD32VW553/V1_MQTT_OK/GD32VW55X_Wifi_BLE_SDK/GD32VW55x_RELEASE_V1.0.2/MSDK/wpa_supplicant/src/ap\hw_features.c **** 		struct hostapd_hw_modes *feature = &modes[i];
 627              		.loc 1 103 29 is_stmt 1 discriminator 2
 103:C:/Users/stapi/OneDrive/Desktop/GD32VW553/V1_MQTT_OK/GD32VW55X_Wifi_BLE_SDK/GD32VW55x_RELEASE_V1.0.2/MSDK/wpa_supplicant/src/ap\hw_features.c **** 		struct hostapd_hw_modes *feature = &modes[i];
 628              		.loc 1 103 30 is_stmt 0 discriminator 2
 629 00b8 050D     		addi	s10,s10,1
 630              	.LVL41:
 631 00ba 1304C419 		addi	s0,s0,412
 632              	.LVL42:
 633 00be F9B7     		j	.L43
 634              	.LVL43:
 635              	.L54:
 636              	.LBB93:
 637              	.LBB88:
 111:C:/Users/stapi/OneDrive/Desktop/GD32VW553/V1_MQTT_OK/GD32VW55X_Wifi_BLE_SDK/GD32VW55x_RELEASE_V1.0.2/MSDK/wpa_supplicant/src/ap\hw_features.c **** 
 638              		.loc 1 111 4 is_stmt 1
 119:C:/Users/stapi/OneDrive/Desktop/GD32VW553/V1_MQTT_OK/GD32VW55X_Wifi_BLE_SDK/GD32VW55x_RELEASE_V1.0.2/MSDK/wpa_supplicant/src/ap\hw_features.c **** 			     HOSTAPD_CHAN_RADAR) && dfs_enabled) {
 639              		.loc 1 119 4
 119:C:/Users/stapi/OneDrive/Desktop/GD32VW553/V1_MQTT_OK/GD32VW55X_Wifi_BLE_SDK/GD32VW55x_RELEASE_V1.0.2/MSDK/wpa_supplicant/src/ap\hw_features.c **** 			     HOSTAPD_CHAN_RADAR) && dfs_enabled) {
 640              		.loc 1 119 26 is_stmt 0
 641 00c0 1C44     		lw	a5,8(s0)
 642 00c2 13078006 		li	a4,104
 643 00c6 FF97ECC4 		maddr32	a5, s9, a4
 119:C:/Users/stapi/OneDrive/Desktop/GD32VW553/V1_MQTT_OK/GD32VW55X_Wifi_BLE_SDK/GD32VW55x_RELEASE_V1.0.2/MSDK/wpa_supplicant/src/ap\hw_features.c **** 			     HOSTAPD_CHAN_RADAR) && dfs_enabled) {
 644              		.loc 1 119 29
 645 00ca 9847     		lw	a4,8(a5)
 119:C:/Users/stapi/OneDrive/Desktop/GD32VW553/V1_MQTT_OK/GD32VW55X_Wifi_BLE_SDK/GD32VW55x_RELEASE_V1.0.2/MSDK/wpa_supplicant/src/ap\hw_features.c **** 			     HOSTAPD_CHAN_RADAR) && dfs_enabled) {
 646              		.loc 1 119 35
 647 00cc 93768700 		andi	a3,a4,8
 119:C:/Users/stapi/OneDrive/Desktop/GD32VW553/V1_MQTT_OK/GD32VW55X_Wifi_BLE_SDK/GD32VW55x_RELEASE_V1.0.2/MSDK/wpa_supplicant/src/ap\hw_features.c **** 			     HOSTAPD_CHAN_RADAR) && dfs_enabled) {
 648              		.loc 1 119 7
 649 00d0 81CA     		beq	a3,zero,.L46
 121:C:/Users/stapi/OneDrive/Desktop/GD32VW553/V1_MQTT_OK/GD32VW55X_Wifi_BLE_SDK/GD32VW55x_RELEASE_V1.0.2/MSDK/wpa_supplicant/src/ap\hw_features.c **** 			} else if (((feature->channels[j].flag &
 650              		.loc 1 121 9
 651 00d2 5686     		mv	a2,s5
 120:C:/Users/stapi/OneDrive/Desktop/GD32VW553/V1_MQTT_OK/GD32VW55X_Wifi_BLE_SDK/GD32VW55x_RELEASE_V1.0.2/MSDK/wpa_supplicant/src/ap\hw_features.c **** 				dfs = 1;
 652              		.loc 1 120 29
 653 00d4 639D0A00 		bne	s5,zero,.L47
 654              	.LVL44:
 122:C:/Users/stapi/OneDrive/Desktop/GD32VW553/V1_MQTT_OK/GD32VW55X_Wifi_BLE_SDK/GD32VW55x_RELEASE_V1.0.2/MSDK/wpa_supplicant/src/ap\hw_features.c **** 				     HOSTAPD_CHAN_RADAR) &&
 655              		.loc 1 122 11 is_stmt 1
 124:C:/Users/stapi/OneDrive/Desktop/GD32VW553/V1_MQTT_OK/GD32VW55X_Wifi_BLE_SDK/GD32VW55x_RELEASE_V1.0.2/MSDK/wpa_supplicant/src/ap\hw_features.c **** 				      WPA_DRIVER_FLAGS_DFS_OFFLOAD)) ||
 656              		.loc 1 124 28 is_stmt 0
 657 00d8 83268C43 		lw	a3,1080(s8)
 658 00dc 918A     		andi	a3,a3,4
 123:C:/Users/stapi/OneDrive/Desktop/GD32VW553/V1_MQTT_OK/GD32VW55X_Wifi_BLE_SDK/GD32VW55x_RELEASE_V1.0.2/MSDK/wpa_supplicant/src/ap\hw_features.c **** 				    !(iface->drv_flags &
 659              		.loc 1 123 30
 660 00de 81C6     		beq	a3,zero,.L48
 661              	.LVL45:
 662              	.L46:
 126:C:/Users/stapi/OneDrive/Desktop/GD32VW553/V1_MQTT_OK/GD32VW55X_Wifi_BLE_SDK/GD32VW55x_RELEASE_V1.0.2/MSDK/wpa_supplicant/src/ap\hw_features.c **** 				    HOSTAPD_CHAN_NO_IR)) {
 663              		.loc 1 126 35
 664 00e0 13762700 		andi	a2,a4,2
 125:C:/Users/stapi/OneDrive/Desktop/GD32VW553/V1_MQTT_OK/GD32VW55X_Wifi_BLE_SDK/GD32VW55x_RELEASE_V1.0.2/MSDK/wpa_supplicant/src/ap\hw_features.c **** 				   (feature->channels[j].flag &
 665              		.loc 1 125 42
 666 00e4 09C6     		beq	a2,zero,.L47
 667              	.L48:
 128:C:/Users/stapi/OneDrive/Desktop/GD32VW553/V1_MQTT_OK/GD32VW55X_Wifi_BLE_SDK/GD32VW55x_RELEASE_V1.0.2/MSDK/wpa_supplicant/src/ap\hw_features.c **** 					HOSTAPD_CHAN_DISABLED;
 668              		.loc 1 128 5 is_stmt 1
 128:C:/Users/stapi/OneDrive/Desktop/GD32VW553/V1_MQTT_OK/GD32VW55X_Wifi_BLE_SDK/GD32VW55x_RELEASE_V1.0.2/MSDK/wpa_supplicant/src/ap\hw_features.c **** 					HOSTAPD_CHAN_DISABLED;
 669              		.loc 1 128 31 is_stmt 0
 670 00e6 13671700 		ori	a4,a4,1
 671 00ea 98C7     		sw	a4,8(a5)
 111:C:/Users/stapi/OneDrive/Desktop/GD32VW553/V1_MQTT_OK/GD32VW55X_Wifi_BLE_SDK/GD32VW55x_RELEASE_V1.0.2/MSDK/wpa_supplicant/src/ap\hw_features.c **** 
 672              		.loc 1 111 8
 673 00ec 0146     		li	a2,0
 674              	.L47:
 675              	.LVL46:
 132:C:/Users/stapi/OneDrive/Desktop/GD32VW553/V1_MQTT_OK/GD32VW55X_Wifi_BLE_SDK/GD32VW55x_RELEASE_V1.0.2/MSDK/wpa_supplicant/src/ap\hw_features.c **** 				continue;
 676              		.loc 1 132 4 is_stmt 1
 132:C:/Users/stapi/OneDrive/Desktop/GD32VW553/V1_MQTT_OK/GD32VW55X_Wifi_BLE_SDK/GD32VW55x_RELEASE_V1.0.2/MSDK/wpa_supplicant/src/ap\hw_features.c **** 				continue;
 677              		.loc 1 132 28 is_stmt 0
 678 00ee 9447     		lw	a3,8(a5)
 132:C:/Users/stapi/OneDrive/Desktop/GD32VW553/V1_MQTT_OK/GD32VW55X_Wifi_BLE_SDK/GD32VW55x_RELEASE_V1.0.2/MSDK/wpa_supplicant/src/ap\hw_features.c **** 				continue;
 679              		.loc 1 132 34
 680 00f0 13F71600 		andi	a4,a3,1
 132:C:/Users/stapi/OneDrive/Desktop/GD32VW553/V1_MQTT_OK/GD32VW55X_Wifi_BLE_SDK/GD32VW55x_RELEASE_V1.0.2/MSDK/wpa_supplicant/src/ap\hw_features.c **** 				continue;
 681              		.loc 1 132 7
 682 00f4 31E3     		bne	a4,zero,.L50
 135:C:/Users/stapi/OneDrive/Desktop/GD32VW553/V1_MQTT_OK/GD32VW55X_Wifi_BLE_SDK/GD32VW55x_RELEASE_V1.0.2/MSDK/wpa_supplicant/src/ap\hw_features.c **** 				   "chan=%d freq=%d MHz max_tx_power=%d dBm%s",
 683              		.loc 1 135 4 is_stmt 1
 684 00f6 D843     		lw	a4,4(a5)
 685 00f8 83980700 		lh	a7,0(a5)
 137:C:/Users/stapi/OneDrive/Desktop/GD32VW553/V1_MQTT_OK/GD32VW55X_Wifi_BLE_SDK/GD32VW55x_RELEASE_V1.0.2/MSDK/wpa_supplicant/src/ap\hw_features.c **** 				   feature->channels[j].chan,
 686              		.loc 1 137 15 is_stmt 0
 687 00fc 832D0400 		lw	s11,0(s0)
 135:C:/Users/stapi/OneDrive/Desktop/GD32VW553/V1_MQTT_OK/GD32VW55X_Wifi_BLE_SDK/GD32VW55x_RELEASE_V1.0.2/MSDK/wpa_supplicant/src/ap\hw_features.c **** 				   "chan=%d freq=%d MHz max_tx_power=%d dBm%s",
 688              		.loc 1 135 4
 689 0100 83C70701 		lbu	a5,16(a5)
 690 0104 5A88     		mv	a6,s6
 691 0106 11CE     		beq	a2,zero,.L51
 692              	.LVL47:
 693              	.LBB82:
 694              	.LBB76:
  49:C:/Users/stapi/OneDrive/Desktop/GD32VW553/V1_MQTT_OK/GD32VW55X_Wifi_BLE_SDK/GD32VW55x_RELEASE_V1.0.2/MSDK/wpa_supplicant/src/ap\hw_features.c **** 	char *state;
 695              		.loc 1 49 2 is_stmt 1
  50:C:/Users/stapi/OneDrive/Desktop/GD32VW553/V1_MQTT_OK/GD32VW55X_Wifi_BLE_SDK/GD32VW55x_RELEASE_V1.0.2/MSDK/wpa_supplicant/src/ap\hw_features.c **** 
 696              		.loc 1 50 2
  52:C:/Users/stapi/OneDrive/Desktop/GD32VW553/V1_MQTT_OK/GD32VW55X_Wifi_BLE_SDK/GD32VW55x_RELEASE_V1.0.2/MSDK/wpa_supplicant/src/ap\hw_features.c **** 	case HOSTAPD_CHAN_DFS_UNKNOWN:
 697              		.loc 1 52 2
  52:C:/Users/stapi/OneDrive/Desktop/GD32VW553/V1_MQTT_OK/GD32VW55X_Wifi_BLE_SDK/GD32VW55x_RELEASE_V1.0.2/MSDK/wpa_supplicant/src/ap\hw_features.c **** 	case HOSTAPD_CHAN_DFS_UNKNOWN:
 698              		.loc 1 52 21 is_stmt 0
 699 0108 93F60630 		andi	a3,a3,768
  52:C:/Users/stapi/OneDrive/Desktop/GD32VW553/V1_MQTT_OK/GD32VW55X_Wifi_BLE_SDK/GD32VW55x_RELEASE_V1.0.2/MSDK/wpa_supplicant/src/ap\hw_features.c **** 	case HOSTAPD_CHAN_DFS_UNKNOWN:
 700              		.loc 1 52 2
 701 010c 13060020 		li	a2,512
 702              	.LVL48:
 703 0110 6380C606 		beq	a3,a2,.L58
 704 0114 6344D602 		bgt	a3,a2,.L53
 705 0118 B1CE     		beq	a3,zero,.L59
 706 011a 13060010 		li	a2,256
 707 011e 6380C606 		beq	a3,a2,.L60
 708              	.LVL49:
 709              	.L51:
 710              	.LBE76:
 711              	.LBE82:
 135:C:/Users/stapi/OneDrive/Desktop/GD32VW553/V1_MQTT_OK/GD32VW55X_Wifi_BLE_SDK/GD32VW55x_RELEASE_V1.0.2/MSDK/wpa_supplicant/src/ap\hw_features.c **** 				   "chan=%d freq=%d MHz max_tx_power=%d dBm%s",
 712              		.loc 1 135 4 discriminator 2
 713 0122 B7050000 		lui	a1,%hi(.LC17)
 714 0126 C686     		mv	a3,a7
 715 0128 6E86     		mv	a2,s11
 716 012a 93850500 		addi	a1,a1,%lo(.LC17)
 717 012e 0545     		li	a0,1
 718 0130 97000000 		call	wpa_printf
 718      E7800000 
 719              	.LVL50:
 720              	.L50:
 721              	.LBE88:
 110:C:/Users/stapi/OneDrive/Desktop/GD32VW553/V1_MQTT_OK/GD32VW55X_Wifi_BLE_SDK/GD32VW55x_RELEASE_V1.0.2/MSDK/wpa_supplicant/src/ap\hw_features.c **** 			int dfs = 0;
 722              		.loc 1 110 42 is_stmt 1 discriminator 2
 110:C:/Users/stapi/OneDrive/Desktop/GD32VW553/V1_MQTT_OK/GD32VW55X_Wifi_BLE_SDK/GD32VW55x_RELEASE_V1.0.2/MSDK/wpa_supplicant/src/ap\hw_features.c **** 			int dfs = 0;
 723              		.loc 1 110 43 is_stmt 0 discriminator 2
 724 0138 850C     		addi	s9,s9,1
 725              	.LVL51:
 726 013a A5BF     		j	.L45
 727              	.LVL52:
 728              	.L53:
 729              	.LBB89:
 730              	.LBB83:
 731              	.LBB77:
  52:C:/Users/stapi/OneDrive/Desktop/GD32VW553/V1_MQTT_OK/GD32VW55X_Wifi_BLE_SDK/GD32VW55x_RELEASE_V1.0.2/MSDK/wpa_supplicant/src/ap\hw_features.c **** 	case HOSTAPD_CHAN_DFS_UNKNOWN:
 732              		.loc 1 52 2
 733 013c 13060030 		li	a2,768
 734 0140 E391C6FE 		bne	a3,a2,.L51
  63:C:/Users/stapi/OneDrive/Desktop/GD32VW553/V1_MQTT_OK/GD32VW55X_Wifi_BLE_SDK/GD32VW55x_RELEASE_V1.0.2/MSDK/wpa_supplicant/src/ap\hw_features.c **** 		break;
 735              		.loc 1 63 9
 736 0144 D286     		mv	a3,s4
 737              	.L52:
  68:C:/Users/stapi/OneDrive/Desktop/GD32VW553/V1_MQTT_OK/GD32VW55X_Wifi_BLE_SDK/GD32VW55x_RELEASE_V1.0.2/MSDK/wpa_supplicant/src/ap\hw_features.c **** 	info[sizeof(info) - 1] = '\0';
 738              		.loc 1 68 2
 739 0146 37060000 		lui	a2,%hi(.LC16)
 740 014a 13060600 		addi	a2,a2,%lo(.LC16)
 741 014e 93050010 		li	a1,256
 742 0152 5E85     		mv	a0,s7
 743 0154 3EC6     		sw	a5,12(sp)
 744 0156 3AC4     		sw	a4,8(sp)
 745 0158 46C2     		sw	a7,4(sp)
 746              	.LVL53:
  68:C:/Users/stapi/OneDrive/Desktop/GD32VW553/V1_MQTT_OK/GD32VW55X_Wifi_BLE_SDK/GD32VW55x_RELEASE_V1.0.2/MSDK/wpa_supplicant/src/ap\hw_features.c **** 	info[sizeof(info) - 1] = '\0';
 747              		.loc 1 68 2 is_stmt 1
 748 015a 97000000 		call	os_snprintf
 748      E7800000 
 749              	.LVL54:
  69:C:/Users/stapi/OneDrive/Desktop/GD32VW553/V1_MQTT_OK/GD32VW55X_Wifi_BLE_SDK/GD32VW55x_RELEASE_V1.0.2/MSDK/wpa_supplicant/src/ap\hw_features.c **** 
 750              		.loc 1 69 2
  71:C:/Users/stapi/OneDrive/Desktop/GD32VW553/V1_MQTT_OK/GD32VW55X_Wifi_BLE_SDK/GD32VW55x_RELEASE_V1.0.2/MSDK/wpa_supplicant/src/ap\hw_features.c **** }
 751              		.loc 1 71 9 is_stmt 0
 752 0162 B247     		lw	a5,12(sp)
 753 0164 2247     		lw	a4,8(sp)
 754 0166 9248     		lw	a7,4(sp)
  69:C:/Users/stapi/OneDrive/Desktop/GD32VW553/V1_MQTT_OK/GD32VW55X_Wifi_BLE_SDK/GD32VW55x_RELEASE_V1.0.2/MSDK/wpa_supplicant/src/ap\hw_features.c **** 
 755              		.loc 1 69 25
 756 0168 A38F0B0E 		sb	zero,255(s7)
  71:C:/Users/stapi/OneDrive/Desktop/GD32VW553/V1_MQTT_OK/GD32VW55X_Wifi_BLE_SDK/GD32VW55x_RELEASE_V1.0.2/MSDK/wpa_supplicant/src/ap\hw_features.c **** }
 757              		.loc 1 71 2 is_stmt 1
  71:C:/Users/stapi/OneDrive/Desktop/GD32VW553/V1_MQTT_OK/GD32VW55X_Wifi_BLE_SDK/GD32VW55x_RELEASE_V1.0.2/MSDK/wpa_supplicant/src/ap\hw_features.c **** }
 758              		.loc 1 71 9 is_stmt 0
 759 016c 5E88     		mv	a6,s7
 760 016e 55BF     		j	.L51
 761              	.LVL55:
 762              	.L58:
  60:C:/Users/stapi/OneDrive/Desktop/GD32VW553/V1_MQTT_OK/GD32VW55X_Wifi_BLE_SDK/GD32VW55x_RELEASE_V1.0.2/MSDK/wpa_supplicant/src/ap\hw_features.c **** 		break;
 763              		.loc 1 60 9
 764 0170 CE86     		mv	a3,s3
 765 0172 D1BF     		j	.L52
 766              	.L59:
  54:C:/Users/stapi/OneDrive/Desktop/GD32VW553/V1_MQTT_OK/GD32VW55X_Wifi_BLE_SDK/GD32VW55x_RELEASE_V1.0.2/MSDK/wpa_supplicant/src/ap\hw_features.c **** 		break;
 767              		.loc 1 54 9
 768 0174 B7060000 		lui	a3,%hi(.LC13)
 769 0178 93860600 		addi	a3,a3,%lo(.LC13)
 770 017c E9B7     		j	.L52
 771              	.L60:
  52:C:/Users/stapi/OneDrive/Desktop/GD32VW553/V1_MQTT_OK/GD32VW55X_Wifi_BLE_SDK/GD32VW55x_RELEASE_V1.0.2/MSDK/wpa_supplicant/src/ap\hw_features.c **** 	case HOSTAPD_CHAN_DFS_UNKNOWN:
 772              		.loc 1 52 2
 773 017e B7060000 		lui	a3,%hi(.LC12)
 774 0182 93860600 		addi	a3,a3,%lo(.LC12)
 775 0186 C1B7     		j	.L52
 776              	.LBE77:
 777              	.LBE83:
 778              	.LBE89:
 779              	.LBE93:
 780              		.cfi_endproc
 781              	.LFE169:
 783              		.section	.rodata.hostapd_prepare_rates.str1.4,"aMS",@progbits,1
 784              		.align	2
 785              	.LC18:
 786 0000 4661696C 		.string	"Failed to allocate memory for rate table."
 786      65642074 
 786      6F20616C 
 786      6C6F6361 
 786      7465206D 
 787 002a 0000     		.align	2
 788              	.LC19:
 789 002c 52415445 		.string	"RATE[%d] rate=%d flags=0x%x"
 789      5B25645D 
 789      20726174 
 789      653D2564 
 789      20666C61 
 790              		.align	2
 791              	.LC20:
 792 0048 4E6F2072 		.string	"No rates remaining in supported/basic rate sets (%d,%d)."
 792      61746573 
 792      2072656D 
 792      61696E69 
 792      6E672069 
 793              		.section	.text.hostapd_prepare_rates,"ax",@progbits
 794              		.align	1
 795              		.globl	hostapd_prepare_rates
 797              	hostapd_prepare_rates:
 798              	.LFB170:
 151:C:/Users/stapi/OneDrive/Desktop/GD32VW553/V1_MQTT_OK/GD32VW55X_Wifi_BLE_SDK/GD32VW55x_RELEASE_V1.0.2/MSDK/wpa_supplicant/src/ap\hw_features.c **** 	int i, num_basic_rates = 0;
 799              		.loc 1 151 1 is_stmt 1
 800              		.cfi_startproc
 801              	.LVL56:
 802 0000 17030000 		call	t0,__riscv_save_8
 802      E7020300 
 803              		.cfi_offset 23, -36
 804              		.cfi_offset 22, -32
 805              		.cfi_offset 21, -28
 806              		.cfi_offset 20, -24
 807              		.cfi_offset 19, -20
 808              		.cfi_offset 18, -16
 809              		.cfi_offset 9, -12
 810              		.cfi_offset 8, -8
 811              		.cfi_offset 1, -4
 812              		.cfi_def_cfa_offset 48
 152:C:/Users/stapi/OneDrive/Desktop/GD32VW553/V1_MQTT_OK/GD32VW55X_Wifi_BLE_SDK/GD32VW55x_RELEASE_V1.0.2/MSDK/wpa_supplicant/src/ap\hw_features.c **** 	int basic_rates_a[] = { 60, 120, 240, -1 };
 813              		.loc 1 152 2
 814              	.LVL57:
 153:C:/Users/stapi/OneDrive/Desktop/GD32VW553/V1_MQTT_OK/GD32VW55X_Wifi_BLE_SDK/GD32VW55x_RELEASE_V1.0.2/MSDK/wpa_supplicant/src/ap\hw_features.c **** 	int basic_rates_b[] = { 10, 20, -1 };
 815              		.loc 1 153 2
 151:C:/Users/stapi/OneDrive/Desktop/GD32VW553/V1_MQTT_OK/GD32VW55X_Wifi_BLE_SDK/GD32VW55x_RELEASE_V1.0.2/MSDK/wpa_supplicant/src/ap\hw_features.c **** 	int i, num_basic_rates = 0;
 816              		.loc 1 151 1 is_stmt 0
 817 0008 7971     		addi	sp,sp,-48
 818              		.cfi_def_cfa_offset 96
 151:C:/Users/stapi/OneDrive/Desktop/GD32VW553/V1_MQTT_OK/GD32VW55X_Wifi_BLE_SDK/GD32VW55x_RELEASE_V1.0.2/MSDK/wpa_supplicant/src/ap\hw_features.c **** 	int i, num_basic_rates = 0;
 819              		.loc 1 151 1
 820 000a 2E89     		mv	s2,a1
 153:C:/Users/stapi/OneDrive/Desktop/GD32VW553/V1_MQTT_OK/GD32VW55X_Wifi_BLE_SDK/GD32VW55x_RELEASE_V1.0.2/MSDK/wpa_supplicant/src/ap\hw_features.c **** 	int basic_rates_b[] = { 10, 20, -1 };
 821              		.loc 1 153 6
 822 000c B7050000 		lui	a1,%hi(.LANCHOR1)
 823              	.LVL58:
 824 0010 93840500 		addi	s1,a1,%lo(.LANCHOR1)
 151:C:/Users/stapi/OneDrive/Desktop/GD32VW553/V1_MQTT_OK/GD32VW55X_Wifi_BLE_SDK/GD32VW55x_RELEASE_V1.0.2/MSDK/wpa_supplicant/src/ap\hw_features.c **** 	int i, num_basic_rates = 0;
 825              		.loc 1 151 1
 826 0014 2A84     		mv	s0,a0
 153:C:/Users/stapi/OneDrive/Desktop/GD32VW553/V1_MQTT_OK/GD32VW55X_Wifi_BLE_SDK/GD32VW55x_RELEASE_V1.0.2/MSDK/wpa_supplicant/src/ap\hw_features.c **** 	int basic_rates_b[] = { 10, 20, -1 };
 827              		.loc 1 153 6
 828 0016 4146     		li	a2,16
 829 0018 93850500 		addi	a1,a1,%lo(.LANCHOR1)
 830 001c 6800     		addi	a0,sp,12
 831              	.LVL59:
 832 001e 97000000 		call	memcpy
 832      E7800000 
 833              	.LVL60:
 154:C:/Users/stapi/OneDrive/Desktop/GD32VW553/V1_MQTT_OK/GD32VW55X_Wifi_BLE_SDK/GD32VW55x_RELEASE_V1.0.2/MSDK/wpa_supplicant/src/ap\hw_features.c **** 	int basic_rates_g[] = { 10, 20, 55, 110, -1 };
 834              		.loc 1 154 2 is_stmt 1
 154:C:/Users/stapi/OneDrive/Desktop/GD32VW553/V1_MQTT_OK/GD32VW55X_Wifi_BLE_SDK/GD32VW55x_RELEASE_V1.0.2/MSDK/wpa_supplicant/src/ap\hw_features.c **** 	int basic_rates_g[] = { 10, 20, 55, 110, -1 };
 835              		.loc 1 154 6 is_stmt 0
 836 0026 3146     		li	a2,12
 837 0028 93850401 		addi	a1,s1,16
 838 002c 0A85     		mv	a0,sp
 839 002e 97000000 		call	memcpy
 839      E7800000 
 840              	.LVL61:
 155:C:/Users/stapi/OneDrive/Desktop/GD32VW553/V1_MQTT_OK/GD32VW55X_Wifi_BLE_SDK/GD32VW55x_RELEASE_V1.0.2/MSDK/wpa_supplicant/src/ap\hw_features.c **** 	int *basic_rates;
 841              		.loc 1 155 2 is_stmt 1
 155:C:/Users/stapi/OneDrive/Desktop/GD32VW553/V1_MQTT_OK/GD32VW55X_Wifi_BLE_SDK/GD32VW55x_RELEASE_V1.0.2/MSDK/wpa_supplicant/src/ap\hw_features.c **** 	int *basic_rates;
 842              		.loc 1 155 6 is_stmt 0
 843 0036 5146     		li	a2,20
 844 0038 9385C401 		addi	a1,s1,28
 845 003c 6808     		addi	a0,sp,28
 846 003e 97000000 		call	memcpy
 846      E7800000 
 847              	.LVL62:
 156:C:/Users/stapi/OneDrive/Desktop/GD32VW553/V1_MQTT_OK/GD32VW55X_Wifi_BLE_SDK/GD32VW55x_RELEASE_V1.0.2/MSDK/wpa_supplicant/src/ap\hw_features.c **** 
 848              		.loc 1 156 2 is_stmt 1
 158:C:/Users/stapi/OneDrive/Desktop/GD32VW553/V1_MQTT_OK/GD32VW55X_Wifi_BLE_SDK/GD32VW55x_RELEASE_V1.0.2/MSDK/wpa_supplicant/src/ap\hw_features.c **** 		basic_rates = iface->conf->basic_rates;
 849              		.loc 1 158 2
 158:C:/Users/stapi/OneDrive/Desktop/GD32VW553/V1_MQTT_OK/GD32VW55X_Wifi_BLE_SDK/GD32VW55x_RELEASE_V1.0.2/MSDK/wpa_supplicant/src/ap\hw_features.c **** 		basic_rates = iface->conf->basic_rates;
 850              		.loc 1 158 17 is_stmt 0
 851 0046 5C44     		lw	a5,12(s0)
 852 0048 83A90705 		lw	s3,80(a5)
 158:C:/Users/stapi/OneDrive/Desktop/GD32VW553/V1_MQTT_OK/GD32VW55X_Wifi_BLE_SDK/GD32VW55x_RELEASE_V1.0.2/MSDK/wpa_supplicant/src/ap\hw_features.c **** 		basic_rates = iface->conf->basic_rates;
 853              		.loc 1 158 5
 854 004c 639D0900 		bne	s3,zero,.L79
 160:C:/Users/stapi/OneDrive/Desktop/GD32VW553/V1_MQTT_OK/GD32VW55X_Wifi_BLE_SDK/GD32VW55x_RELEASE_V1.0.2/MSDK/wpa_supplicant/src/ap\hw_features.c **** 	case HOSTAPD_MODE_IEEE80211A:
 855              		.loc 1 160 7 is_stmt 1
 160:C:/Users/stapi/OneDrive/Desktop/GD32VW553/V1_MQTT_OK/GD32VW55X_Wifi_BLE_SDK/GD32VW55x_RELEASE_V1.0.2/MSDK/wpa_supplicant/src/ap\hw_features.c **** 	case HOSTAPD_MODE_IEEE80211A:
 856              		.loc 1 160 19 is_stmt 0
 857 0050 03250900 		lw	a0,0(s2)
 160:C:/Users/stapi/OneDrive/Desktop/GD32VW553/V1_MQTT_OK/GD32VW55X_Wifi_BLE_SDK/GD32VW55x_RELEASE_V1.0.2/MSDK/wpa_supplicant/src/ap\hw_features.c **** 	case HOSTAPD_MODE_IEEE80211A:
 858              		.loc 1 160 7
 859 0054 8947     		li	a5,2
 860 0056 6309F508 		beq	a0,a5,.L99
 861 005a 63EDA706 		bgtu	a0,a5,.L80
 168:C:/Users/stapi/OneDrive/Desktop/GD32VW553/V1_MQTT_OK/GD32VW55X_Wifi_BLE_SDK/GD32VW55x_RELEASE_V1.0.2/MSDK/wpa_supplicant/src/ap\hw_features.c **** 		break;
 862              		.loc 1 168 15
 863 005e 9309C101 		addi	s3,sp,28
 160:C:/Users/stapi/OneDrive/Desktop/GD32VW553/V1_MQTT_OK/GD32VW55X_Wifi_BLE_SDK/GD32VW55x_RELEASE_V1.0.2/MSDK/wpa_supplicant/src/ap\hw_features.c **** 	case HOSTAPD_MODE_IEEE80211A:
 864              		.loc 1 160 7
 865 0062 11E1     		bne	a0,zero,.L79
 866 0064 8A89     		mv	s3,sp
 867              	.L79:
 868              	.LVL63:
 176:C:/Users/stapi/OneDrive/Desktop/GD32VW553/V1_MQTT_OK/GD32VW55X_Wifi_BLE_SDK/GD32VW55x_RELEASE_V1.0.2/MSDK/wpa_supplicant/src/ap\hw_features.c **** 	while (basic_rates[i] >= 0)
 869              		.loc 1 176 2 is_stmt 1
 177:C:/Users/stapi/OneDrive/Desktop/GD32VW553/V1_MQTT_OK/GD32VW55X_Wifi_BLE_SDK/GD32VW55x_RELEASE_V1.0.2/MSDK/wpa_supplicant/src/ap\hw_features.c **** 		i++;
 870              		.loc 1 177 2
 176:C:/Users/stapi/OneDrive/Desktop/GD32VW553/V1_MQTT_OK/GD32VW55X_Wifi_BLE_SDK/GD32VW55x_RELEASE_V1.0.2/MSDK/wpa_supplicant/src/ap\hw_features.c **** 	while (basic_rates[i] >= 0)
 871              		.loc 1 176 4 is_stmt 0
 872 0066 8144     		li	s1,0
 873              	.LVL64:
 874              	.L82:
 177:C:/Users/stapi/OneDrive/Desktop/GD32VW553/V1_MQTT_OK/GD32VW55X_Wifi_BLE_SDK/GD32VW55x_RELEASE_V1.0.2/MSDK/wpa_supplicant/src/ap\hw_features.c **** 		i++;
 875              		.loc 1 177 8 is_stmt 1
 177:C:/Users/stapi/OneDrive/Desktop/GD32VW553/V1_MQTT_OK/GD32VW55X_Wifi_BLE_SDK/GD32VW55x_RELEASE_V1.0.2/MSDK/wpa_supplicant/src/ap\hw_features.c **** 		i++;
 876              		.loc 1 177 20 is_stmt 0
 877 0068 B3C73421 		sh2add	a5,s1,s3
 177:C:/Users/stapi/OneDrive/Desktop/GD32VW553/V1_MQTT_OK/GD32VW55X_Wifi_BLE_SDK/GD32VW55x_RELEASE_V1.0.2/MSDK/wpa_supplicant/src/ap\hw_features.c **** 		i++;
 878              		.loc 1 177 8
 879 006c 9C43     		lw	a5,0(a5)
 880 006e 63D00708 		bge	a5,zero,.L83
 179:C:/Users/stapi/OneDrive/Desktop/GD32VW553/V1_MQTT_OK/GD32VW55X_Wifi_BLE_SDK/GD32VW55x_RELEASE_V1.0.2/MSDK/wpa_supplicant/src/ap\hw_features.c **** 		i++; /* -1 termination */
 881              		.loc 1 179 2 is_stmt 1
 179:C:/Users/stapi/OneDrive/Desktop/GD32VW553/V1_MQTT_OK/GD32VW55X_Wifi_BLE_SDK/GD32VW55x_RELEASE_V1.0.2/MSDK/wpa_supplicant/src/ap\hw_features.c **** 		i++; /* -1 termination */
 882              		.loc 1 179 5 is_stmt 0
 883 0072 91C0     		beq	s1,zero,.L84
 180:C:/Users/stapi/OneDrive/Desktop/GD32VW553/V1_MQTT_OK/GD32VW55X_Wifi_BLE_SDK/GD32VW55x_RELEASE_V1.0.2/MSDK/wpa_supplicant/src/ap\hw_features.c **** 	os_free(iface->basic_rates);
 884              		.loc 1 180 3 is_stmt 1
 180:C:/Users/stapi/OneDrive/Desktop/GD32VW553/V1_MQTT_OK/GD32VW55X_Wifi_BLE_SDK/GD32VW55x_RELEASE_V1.0.2/MSDK/wpa_supplicant/src/ap\hw_features.c **** 	os_free(iface->basic_rates);
 885              		.loc 1 180 4 is_stmt 0
 886 0074 8504     		addi	s1,s1,1
 887              	.LVL65:
 888              	.L84:
 181:C:/Users/stapi/OneDrive/Desktop/GD32VW553/V1_MQTT_OK/GD32VW55X_Wifi_BLE_SDK/GD32VW55x_RELEASE_V1.0.2/MSDK/wpa_supplicant/src/ap\hw_features.c **** 	iface->basic_rates = os_malloc(i * sizeof(int));
 889              		.loc 1 181 2 is_stmt 1
 890 0076 03250447 		lw	a0,1136(s0)
 182:C:/Users/stapi/OneDrive/Desktop/GD32VW553/V1_MQTT_OK/GD32VW55X_Wifi_BLE_SDK/GD32VW55x_RELEASE_V1.0.2/MSDK/wpa_supplicant/src/ap\hw_features.c **** 	if (iface->basic_rates)
 891              		.loc 1 182 23 is_stmt 0
 892 007a 8A04     		slli	s1,s1,2
 893              	.LVL66:
 181:C:/Users/stapi/OneDrive/Desktop/GD32VW553/V1_MQTT_OK/GD32VW55X_Wifi_BLE_SDK/GD32VW55x_RELEASE_V1.0.2/MSDK/wpa_supplicant/src/ap\hw_features.c **** 	iface->basic_rates = os_malloc(i * sizeof(int));
 894              		.loc 1 181 2
 895 007c 97000000 		call	os_free
 895      E7800000 
 896              	.LVL67:
 182:C:/Users/stapi/OneDrive/Desktop/GD32VW553/V1_MQTT_OK/GD32VW55X_Wifi_BLE_SDK/GD32VW55x_RELEASE_V1.0.2/MSDK/wpa_supplicant/src/ap\hw_features.c **** 	if (iface->basic_rates)
 897              		.loc 1 182 2 is_stmt 1
 182:C:/Users/stapi/OneDrive/Desktop/GD32VW553/V1_MQTT_OK/GD32VW55X_Wifi_BLE_SDK/GD32VW55x_RELEASE_V1.0.2/MSDK/wpa_supplicant/src/ap\hw_features.c **** 	if (iface->basic_rates)
 898              		.loc 1 182 23 is_stmt 0
 899 0084 2685     		mv	a0,s1
 900 0086 97000000 		call	os_malloc
 900      E7800000 
 901              	.LVL68:
 182:C:/Users/stapi/OneDrive/Desktop/GD32VW553/V1_MQTT_OK/GD32VW55X_Wifi_BLE_SDK/GD32VW55x_RELEASE_V1.0.2/MSDK/wpa_supplicant/src/ap\hw_features.c **** 	if (iface->basic_rates)
 902              		.loc 1 182 21
 903 008e 2328A446 		sw	a0,1136(s0)
 183:C:/Users/stapi/OneDrive/Desktop/GD32VW553/V1_MQTT_OK/GD32VW55X_Wifi_BLE_SDK/GD32VW55x_RELEASE_V1.0.2/MSDK/wpa_supplicant/src/ap\hw_features.c **** 		os_memcpy(iface->basic_rates, basic_rates, i * sizeof(int));
 904              		.loc 1 183 2 is_stmt 1
 183:C:/Users/stapi/OneDrive/Desktop/GD32VW553/V1_MQTT_OK/GD32VW55X_Wifi_BLE_SDK/GD32VW55x_RELEASE_V1.0.2/MSDK/wpa_supplicant/src/ap\hw_features.c **** 		os_memcpy(iface->basic_rates, basic_rates, i * sizeof(int));
 905              		.loc 1 183 5 is_stmt 0
 906 0092 19C5     		beq	a0,zero,.L85
 184:C:/Users/stapi/OneDrive/Desktop/GD32VW553/V1_MQTT_OK/GD32VW55X_Wifi_BLE_SDK/GD32VW55x_RELEASE_V1.0.2/MSDK/wpa_supplicant/src/ap\hw_features.c **** 
 907              		.loc 1 184 3 is_stmt 1
 908 0094 2686     		mv	a2,s1
 909 0096 CE85     		mv	a1,s3
 910 0098 97000000 		call	os_memcpy
 910      E7800000 
 911              	.LVL69:
 912              	.L85:
 186:C:/Users/stapi/OneDrive/Desktop/GD32VW553/V1_MQTT_OK/GD32VW55X_Wifi_BLE_SDK/GD32VW55x_RELEASE_V1.0.2/MSDK/wpa_supplicant/src/ap\hw_features.c **** 	iface->num_rates = 0;
 913              		.loc 1 186 2
 914 00a0 0325C446 		lw	a0,1132(s0)
 915 00a4 97000000 		call	os_free
 915      E7800000 
 916              	.LVL70:
 187:C:/Users/stapi/OneDrive/Desktop/GD32VW553/V1_MQTT_OK/GD32VW55X_Wifi_BLE_SDK/GD32VW55x_RELEASE_V1.0.2/MSDK/wpa_supplicant/src/ap\hw_features.c **** 
 917              		.loc 1 187 2
 190:C:/Users/stapi/OneDrive/Desktop/GD32VW553/V1_MQTT_OK/GD32VW55X_Wifi_BLE_SDK/GD32VW55x_RELEASE_V1.0.2/MSDK/wpa_supplicant/src/ap\hw_features.c **** 	if (!iface->current_rates) {
 918              		.loc 1 190 3 is_stmt 0
 919 00ac 0325C900 		lw	a0,12(s2)
 187:C:/Users/stapi/OneDrive/Desktop/GD32VW553/V1_MQTT_OK/GD32VW55X_Wifi_BLE_SDK/GD32VW55x_RELEASE_V1.0.2/MSDK/wpa_supplicant/src/ap\hw_features.c **** 
 920              		.loc 1 187 19
 921 00b0 23240446 		sw	zero,1128(s0)
 189:C:/Users/stapi/OneDrive/Desktop/GD32VW553/V1_MQTT_OK/GD32VW55X_Wifi_BLE_SDK/GD32VW55x_RELEASE_V1.0.2/MSDK/wpa_supplicant/src/ap\hw_features.c **** 		os_calloc(mode->num_rates, sizeof(struct hostapd_rate_data));
 922              		.loc 1 189 2 is_stmt 1
 923              	.LVL71:
 924              	.LBB97:
 925              	.LBB98:
 926              		.file 3 "..\\..\\..\\..\\wpa_supplicant\\src/utils/os.h"
   1:..\..\..\..\wpa_supplicant\src/utils/os.h **** /*
   2:..\..\..\..\wpa_supplicant\src/utils/os.h ****  * OS specific functions
   3:..\..\..\..\wpa_supplicant\src/utils/os.h ****  * Copyright (c) 2005-2009, Jouni Malinen <j@w1.fi>
   4:..\..\..\..\wpa_supplicant\src/utils/os.h ****  *
   5:..\..\..\..\wpa_supplicant\src/utils/os.h ****  * This software may be distributed under the terms of the BSD license.
   6:..\..\..\..\wpa_supplicant\src/utils/os.h ****  * See README for more details.
   7:..\..\..\..\wpa_supplicant\src/utils/os.h ****  */
   8:..\..\..\..\wpa_supplicant\src/utils/os.h **** 
   9:..\..\..\..\wpa_supplicant\src/utils/os.h **** #ifndef OS_H
  10:..\..\..\..\wpa_supplicant\src/utils/os.h **** #define OS_H
  11:..\..\..\..\wpa_supplicant\src/utils/os.h **** 
  12:..\..\..\..\wpa_supplicant\src/utils/os.h **** typedef long os_time_t;
  13:..\..\..\..\wpa_supplicant\src/utils/os.h **** 
  14:..\..\..\..\wpa_supplicant\src/utils/os.h **** /**
  15:..\..\..\..\wpa_supplicant\src/utils/os.h ****  * os_sleep - Sleep (sec, usec)
  16:..\..\..\..\wpa_supplicant\src/utils/os.h ****  * @sec: Number of seconds to sleep
  17:..\..\..\..\wpa_supplicant\src/utils/os.h ****  * @usec: Number of microseconds to sleep
  18:..\..\..\..\wpa_supplicant\src/utils/os.h ****  */
  19:..\..\..\..\wpa_supplicant\src/utils/os.h **** void os_sleep(os_time_t sec, os_time_t usec);
  20:..\..\..\..\wpa_supplicant\src/utils/os.h **** 
  21:..\..\..\..\wpa_supplicant\src/utils/os.h **** struct os_time {
  22:..\..\..\..\wpa_supplicant\src/utils/os.h **** 	os_time_t sec;
  23:..\..\..\..\wpa_supplicant\src/utils/os.h **** 	os_time_t usec;
  24:..\..\..\..\wpa_supplicant\src/utils/os.h **** };
  25:..\..\..\..\wpa_supplicant\src/utils/os.h **** 
  26:..\..\..\..\wpa_supplicant\src/utils/os.h **** struct os_reltime {
  27:..\..\..\..\wpa_supplicant\src/utils/os.h **** 	os_time_t sec;
  28:..\..\..\..\wpa_supplicant\src/utils/os.h **** 	os_time_t usec;
  29:..\..\..\..\wpa_supplicant\src/utils/os.h **** };
  30:..\..\..\..\wpa_supplicant\src/utils/os.h **** 
  31:..\..\..\..\wpa_supplicant\src/utils/os.h **** /**
  32:..\..\..\..\wpa_supplicant\src/utils/os.h ****  * os_get_time - Get current time (sec, usec)
  33:..\..\..\..\wpa_supplicant\src/utils/os.h ****  * @t: Pointer to buffer for the time
  34:..\..\..\..\wpa_supplicant\src/utils/os.h ****  * Returns: 0 on success, -1 on failure
  35:..\..\..\..\wpa_supplicant\src/utils/os.h ****  */
  36:..\..\..\..\wpa_supplicant\src/utils/os.h **** int os_get_time(struct os_time *t);
  37:..\..\..\..\wpa_supplicant\src/utils/os.h **** 
  38:..\..\..\..\wpa_supplicant\src/utils/os.h **** /**
  39:..\..\..\..\wpa_supplicant\src/utils/os.h ****  * os_get_reltime - Get relative time (sec, usec)
  40:..\..\..\..\wpa_supplicant\src/utils/os.h ****  * @t: Pointer to buffer for the time
  41:..\..\..\..\wpa_supplicant\src/utils/os.h ****  * Returns: 0 on success, -1 on failure
  42:..\..\..\..\wpa_supplicant\src/utils/os.h ****  */
  43:..\..\..\..\wpa_supplicant\src/utils/os.h **** int os_get_reltime(struct os_reltime *t);
  44:..\..\..\..\wpa_supplicant\src/utils/os.h **** 
  45:..\..\..\..\wpa_supplicant\src/utils/os.h **** 
  46:..\..\..\..\wpa_supplicant\src/utils/os.h **** /* Helpers for handling struct os_time */
  47:..\..\..\..\wpa_supplicant\src/utils/os.h **** 
  48:..\..\..\..\wpa_supplicant\src/utils/os.h **** static inline int os_time_before(struct os_time *a, struct os_time *b)
  49:..\..\..\..\wpa_supplicant\src/utils/os.h **** {
  50:..\..\..\..\wpa_supplicant\src/utils/os.h **** 	return (a->sec < b->sec) ||
  51:..\..\..\..\wpa_supplicant\src/utils/os.h **** 	       (a->sec == b->sec && a->usec < b->usec);
  52:..\..\..\..\wpa_supplicant\src/utils/os.h **** }
  53:..\..\..\..\wpa_supplicant\src/utils/os.h **** 
  54:..\..\..\..\wpa_supplicant\src/utils/os.h **** 
  55:..\..\..\..\wpa_supplicant\src/utils/os.h **** static inline void os_time_sub(struct os_time *a, struct os_time *b,
  56:..\..\..\..\wpa_supplicant\src/utils/os.h **** 			       struct os_time *res)
  57:..\..\..\..\wpa_supplicant\src/utils/os.h **** {
  58:..\..\..\..\wpa_supplicant\src/utils/os.h **** 	res->sec = a->sec - b->sec;
  59:..\..\..\..\wpa_supplicant\src/utils/os.h **** 	res->usec = a->usec - b->usec;
  60:..\..\..\..\wpa_supplicant\src/utils/os.h **** 	if (res->usec < 0) {
  61:..\..\..\..\wpa_supplicant\src/utils/os.h **** 		res->sec--;
  62:..\..\..\..\wpa_supplicant\src/utils/os.h **** 		res->usec += 1000000;
  63:..\..\..\..\wpa_supplicant\src/utils/os.h **** 	}
  64:..\..\..\..\wpa_supplicant\src/utils/os.h **** }
  65:..\..\..\..\wpa_supplicant\src/utils/os.h **** 
  66:..\..\..\..\wpa_supplicant\src/utils/os.h **** 
  67:..\..\..\..\wpa_supplicant\src/utils/os.h **** /* Helpers for handling struct os_reltime */
  68:..\..\..\..\wpa_supplicant\src/utils/os.h **** 
  69:..\..\..\..\wpa_supplicant\src/utils/os.h **** static inline int os_reltime_before(struct os_reltime *a,
  70:..\..\..\..\wpa_supplicant\src/utils/os.h **** 				    struct os_reltime *b)
  71:..\..\..\..\wpa_supplicant\src/utils/os.h **** {
  72:..\..\..\..\wpa_supplicant\src/utils/os.h **** 	return (a->sec < b->sec) ||
  73:..\..\..\..\wpa_supplicant\src/utils/os.h **** 	       (a->sec == b->sec && a->usec < b->usec);
  74:..\..\..\..\wpa_supplicant\src/utils/os.h **** }
  75:..\..\..\..\wpa_supplicant\src/utils/os.h **** 
  76:..\..\..\..\wpa_supplicant\src/utils/os.h **** 
  77:..\..\..\..\wpa_supplicant\src/utils/os.h **** static inline void os_reltime_sub(struct os_reltime *a, struct os_reltime *b,
  78:..\..\..\..\wpa_supplicant\src/utils/os.h **** 				  struct os_reltime *res)
  79:..\..\..\..\wpa_supplicant\src/utils/os.h **** {
  80:..\..\..\..\wpa_supplicant\src/utils/os.h **** 	res->sec = a->sec - b->sec;
  81:..\..\..\..\wpa_supplicant\src/utils/os.h **** 	res->usec = a->usec - b->usec;
  82:..\..\..\..\wpa_supplicant\src/utils/os.h **** 	if (res->usec < 0) {
  83:..\..\..\..\wpa_supplicant\src/utils/os.h **** 		res->sec--;
  84:..\..\..\..\wpa_supplicant\src/utils/os.h **** 		res->usec += 1000000;
  85:..\..\..\..\wpa_supplicant\src/utils/os.h **** 	}
  86:..\..\..\..\wpa_supplicant\src/utils/os.h **** }
  87:..\..\..\..\wpa_supplicant\src/utils/os.h **** 
  88:..\..\..\..\wpa_supplicant\src/utils/os.h **** 
  89:..\..\..\..\wpa_supplicant\src/utils/os.h **** static inline void os_reltime_age(struct os_reltime *start,
  90:..\..\..\..\wpa_supplicant\src/utils/os.h **** 				  struct os_reltime *age)
  91:..\..\..\..\wpa_supplicant\src/utils/os.h **** {
  92:..\..\..\..\wpa_supplicant\src/utils/os.h **** 	struct os_reltime now;
  93:..\..\..\..\wpa_supplicant\src/utils/os.h **** 
  94:..\..\..\..\wpa_supplicant\src/utils/os.h **** 	os_get_reltime(&now);
  95:..\..\..\..\wpa_supplicant\src/utils/os.h **** 	os_reltime_sub(&now, start, age);
  96:..\..\..\..\wpa_supplicant\src/utils/os.h **** }
  97:..\..\..\..\wpa_supplicant\src/utils/os.h **** 
  98:..\..\..\..\wpa_supplicant\src/utils/os.h **** 
  99:..\..\..\..\wpa_supplicant\src/utils/os.h **** static inline int os_reltime_expired(struct os_reltime *now,
 100:..\..\..\..\wpa_supplicant\src/utils/os.h **** 				     struct os_reltime *ts,
 101:..\..\..\..\wpa_supplicant\src/utils/os.h **** 				     os_time_t timeout_secs)
 102:..\..\..\..\wpa_supplicant\src/utils/os.h **** {
 103:..\..\..\..\wpa_supplicant\src/utils/os.h **** 	struct os_reltime age;
 104:..\..\..\..\wpa_supplicant\src/utils/os.h **** 
 105:..\..\..\..\wpa_supplicant\src/utils/os.h **** 	os_reltime_sub(now, ts, &age);
 106:..\..\..\..\wpa_supplicant\src/utils/os.h **** 	return (age.sec > timeout_secs) ||
 107:..\..\..\..\wpa_supplicant\src/utils/os.h **** 	       (age.sec == timeout_secs && age.usec > 0);
 108:..\..\..\..\wpa_supplicant\src/utils/os.h **** }
 109:..\..\..\..\wpa_supplicant\src/utils/os.h **** 
 110:..\..\..\..\wpa_supplicant\src/utils/os.h **** 
 111:..\..\..\..\wpa_supplicant\src/utils/os.h **** static inline int os_reltime_initialized(struct os_reltime *t)
 112:..\..\..\..\wpa_supplicant\src/utils/os.h **** {
 113:..\..\..\..\wpa_supplicant\src/utils/os.h **** 	return t->sec != 0 || t->usec != 0;
 114:..\..\..\..\wpa_supplicant\src/utils/os.h **** }
 115:..\..\..\..\wpa_supplicant\src/utils/os.h **** 
 116:..\..\..\..\wpa_supplicant\src/utils/os.h **** 
 117:..\..\..\..\wpa_supplicant\src/utils/os.h **** /**
 118:..\..\..\..\wpa_supplicant\src/utils/os.h ****  * os_mktime - Convert broken-down time into seconds since 1970-01-01
 119:..\..\..\..\wpa_supplicant\src/utils/os.h ****  * @year: Four digit year
 120:..\..\..\..\wpa_supplicant\src/utils/os.h ****  * @month: Month (1 .. 12)
 121:..\..\..\..\wpa_supplicant\src/utils/os.h ****  * @day: Day of month (1 .. 31)
 122:..\..\..\..\wpa_supplicant\src/utils/os.h ****  * @hour: Hour (0 .. 23)
 123:..\..\..\..\wpa_supplicant\src/utils/os.h ****  * @min: Minute (0 .. 59)
 124:..\..\..\..\wpa_supplicant\src/utils/os.h ****  * @sec: Second (0 .. 60)
 125:..\..\..\..\wpa_supplicant\src/utils/os.h ****  * @t: Buffer for returning calendar time representation (seconds since
 126:..\..\..\..\wpa_supplicant\src/utils/os.h ****  * 1970-01-01 00:00:00)
 127:..\..\..\..\wpa_supplicant\src/utils/os.h ****  * Returns: 0 on success, -1 on failure
 128:..\..\..\..\wpa_supplicant\src/utils/os.h ****  *
 129:..\..\..\..\wpa_supplicant\src/utils/os.h ****  * Note: The result is in seconds from Epoch, i.e., in UTC, not in local time
 130:..\..\..\..\wpa_supplicant\src/utils/os.h ****  * which is used by POSIX mktime().
 131:..\..\..\..\wpa_supplicant\src/utils/os.h ****  */
 132:..\..\..\..\wpa_supplicant\src/utils/os.h **** int os_mktime(int year, int month, int day, int hour, int min, int sec,
 133:..\..\..\..\wpa_supplicant\src/utils/os.h **** 	      os_time_t *t);
 134:..\..\..\..\wpa_supplicant\src/utils/os.h **** 
 135:..\..\..\..\wpa_supplicant\src/utils/os.h **** struct os_tm {
 136:..\..\..\..\wpa_supplicant\src/utils/os.h **** 	int sec; /* 0..59 or 60 for leap seconds */
 137:..\..\..\..\wpa_supplicant\src/utils/os.h **** 	int min; /* 0..59 */
 138:..\..\..\..\wpa_supplicant\src/utils/os.h **** 	int hour; /* 0..23 */
 139:..\..\..\..\wpa_supplicant\src/utils/os.h **** 	int day; /* 1..31 */
 140:..\..\..\..\wpa_supplicant\src/utils/os.h **** 	int month; /* 1..12 */
 141:..\..\..\..\wpa_supplicant\src/utils/os.h **** 	int year; /* Four digit year */
 142:..\..\..\..\wpa_supplicant\src/utils/os.h **** };
 143:..\..\..\..\wpa_supplicant\src/utils/os.h **** 
 144:..\..\..\..\wpa_supplicant\src/utils/os.h **** int os_gmtime(os_time_t t, struct os_tm *tm);
 145:..\..\..\..\wpa_supplicant\src/utils/os.h **** 
 146:..\..\..\..\wpa_supplicant\src/utils/os.h **** /**
 147:..\..\..\..\wpa_supplicant\src/utils/os.h ****  * os_daemonize - Run in the background (detach from the controlling terminal)
 148:..\..\..\..\wpa_supplicant\src/utils/os.h ****  * @pid_file: File name to write the process ID to or %NULL to skip this
 149:..\..\..\..\wpa_supplicant\src/utils/os.h ****  * Returns: 0 on success, -1 on failure
 150:..\..\..\..\wpa_supplicant\src/utils/os.h ****  */
 151:..\..\..\..\wpa_supplicant\src/utils/os.h **** int os_daemonize(const char *pid_file);
 152:..\..\..\..\wpa_supplicant\src/utils/os.h **** 
 153:..\..\..\..\wpa_supplicant\src/utils/os.h **** /**
 154:..\..\..\..\wpa_supplicant\src/utils/os.h ****  * os_daemonize_terminate - Stop running in the background (remove pid file)
 155:..\..\..\..\wpa_supplicant\src/utils/os.h ****  * @pid_file: File name to write the process ID to or %NULL to skip this
 156:..\..\..\..\wpa_supplicant\src/utils/os.h ****  */
 157:..\..\..\..\wpa_supplicant\src/utils/os.h **** void os_daemonize_terminate(const char *pid_file);
 158:..\..\..\..\wpa_supplicant\src/utils/os.h **** 
 159:..\..\..\..\wpa_supplicant\src/utils/os.h **** /**
 160:..\..\..\..\wpa_supplicant\src/utils/os.h ****  * os_get_random - Get cryptographically strong pseudo random data
 161:..\..\..\..\wpa_supplicant\src/utils/os.h ****  * @buf: Buffer for pseudo random data
 162:..\..\..\..\wpa_supplicant\src/utils/os.h ****  * @len: Length of the buffer
 163:..\..\..\..\wpa_supplicant\src/utils/os.h ****  * Returns: 0 on success, -1 on failure
 164:..\..\..\..\wpa_supplicant\src/utils/os.h ****  */
 165:..\..\..\..\wpa_supplicant\src/utils/os.h **** int os_get_random(unsigned char *buf, size_t len);
 166:..\..\..\..\wpa_supplicant\src/utils/os.h **** 
 167:..\..\..\..\wpa_supplicant\src/utils/os.h **** /**
 168:..\..\..\..\wpa_supplicant\src/utils/os.h ****  * os_random - Get pseudo random value (not necessarily very strong)
 169:..\..\..\..\wpa_supplicant\src/utils/os.h ****  * Returns: Pseudo random value
 170:..\..\..\..\wpa_supplicant\src/utils/os.h ****  */
 171:..\..\..\..\wpa_supplicant\src/utils/os.h **** unsigned long os_random(void);
 172:..\..\..\..\wpa_supplicant\src/utils/os.h **** 
 173:..\..\..\..\wpa_supplicant\src/utils/os.h **** /**
 174:..\..\..\..\wpa_supplicant\src/utils/os.h ****  * os_rel2abs_path - Get an absolute path for a file
 175:..\..\..\..\wpa_supplicant\src/utils/os.h ****  * @rel_path: Relative path to a file
 176:..\..\..\..\wpa_supplicant\src/utils/os.h ****  * Returns: Absolute path for the file or %NULL on failure
 177:..\..\..\..\wpa_supplicant\src/utils/os.h ****  *
 178:..\..\..\..\wpa_supplicant\src/utils/os.h ****  * This function tries to convert a relative path of a file to an absolute path
 179:..\..\..\..\wpa_supplicant\src/utils/os.h ****  * in order for the file to be found even if current working directory has
 180:..\..\..\..\wpa_supplicant\src/utils/os.h ****  * changed. The returned value is allocated and caller is responsible for
 181:..\..\..\..\wpa_supplicant\src/utils/os.h ****  * freeing it. It is acceptable to just return the same path in an allocated
 182:..\..\..\..\wpa_supplicant\src/utils/os.h ****  * buffer, e.g., return strdup(rel_path). This function is only used to find
 183:..\..\..\..\wpa_supplicant\src/utils/os.h ****  * configuration files when os_daemonize() may have changed the current working
 184:..\..\..\..\wpa_supplicant\src/utils/os.h ****  * directory and relative path would be pointing to a different location.
 185:..\..\..\..\wpa_supplicant\src/utils/os.h ****  */
 186:..\..\..\..\wpa_supplicant\src/utils/os.h **** char * os_rel2abs_path(const char *rel_path);
 187:..\..\..\..\wpa_supplicant\src/utils/os.h **** 
 188:..\..\..\..\wpa_supplicant\src/utils/os.h **** /**
 189:..\..\..\..\wpa_supplicant\src/utils/os.h ****  * os_program_init - Program initialization (called at start)
 190:..\..\..\..\wpa_supplicant\src/utils/os.h ****  * Returns: 0 on success, -1 on failure
 191:..\..\..\..\wpa_supplicant\src/utils/os.h ****  *
 192:..\..\..\..\wpa_supplicant\src/utils/os.h ****  * This function is called when a programs starts. If there are any OS specific
 193:..\..\..\..\wpa_supplicant\src/utils/os.h ****  * processing that is needed, it can be placed here. It is also acceptable to
 194:..\..\..\..\wpa_supplicant\src/utils/os.h ****  * just return 0 if not special processing is needed.
 195:..\..\..\..\wpa_supplicant\src/utils/os.h ****  */
 196:..\..\..\..\wpa_supplicant\src/utils/os.h **** int os_program_init(void);
 197:..\..\..\..\wpa_supplicant\src/utils/os.h **** 
 198:..\..\..\..\wpa_supplicant\src/utils/os.h **** /**
 199:..\..\..\..\wpa_supplicant\src/utils/os.h ****  * os_program_deinit - Program deinitialization (called just before exit)
 200:..\..\..\..\wpa_supplicant\src/utils/os.h ****  *
 201:..\..\..\..\wpa_supplicant\src/utils/os.h ****  * This function is called just before a program exists. If there are any OS
 202:..\..\..\..\wpa_supplicant\src/utils/os.h ****  * specific processing, e.g., freeing resourced allocated in os_program_init(),
 203:..\..\..\..\wpa_supplicant\src/utils/os.h ****  * it should be done here. It is also acceptable for this function to do
 204:..\..\..\..\wpa_supplicant\src/utils/os.h ****  * nothing.
 205:..\..\..\..\wpa_supplicant\src/utils/os.h ****  */
 206:..\..\..\..\wpa_supplicant\src/utils/os.h **** void os_program_deinit(void);
 207:..\..\..\..\wpa_supplicant\src/utils/os.h **** 
 208:..\..\..\..\wpa_supplicant\src/utils/os.h **** /**
 209:..\..\..\..\wpa_supplicant\src/utils/os.h ****  * os_setenv - Set environment variable
 210:..\..\..\..\wpa_supplicant\src/utils/os.h ****  * @name: Name of the variable
 211:..\..\..\..\wpa_supplicant\src/utils/os.h ****  * @value: Value to set to the variable
 212:..\..\..\..\wpa_supplicant\src/utils/os.h ****  * @overwrite: Whether existing variable should be overwritten
 213:..\..\..\..\wpa_supplicant\src/utils/os.h ****  * Returns: 0 on success, -1 on error
 214:..\..\..\..\wpa_supplicant\src/utils/os.h ****  *
 215:..\..\..\..\wpa_supplicant\src/utils/os.h ****  * This function is only used for wpa_cli action scripts. OS wrapper does not
 216:..\..\..\..\wpa_supplicant\src/utils/os.h ****  * need to implement this if such functionality is not needed.
 217:..\..\..\..\wpa_supplicant\src/utils/os.h ****  */
 218:..\..\..\..\wpa_supplicant\src/utils/os.h **** int os_setenv(const char *name, const char *value, int overwrite);
 219:..\..\..\..\wpa_supplicant\src/utils/os.h **** 
 220:..\..\..\..\wpa_supplicant\src/utils/os.h **** /**
 221:..\..\..\..\wpa_supplicant\src/utils/os.h ****  * os_unsetenv - Delete environent variable
 222:..\..\..\..\wpa_supplicant\src/utils/os.h ****  * @name: Name of the variable
 223:..\..\..\..\wpa_supplicant\src/utils/os.h ****  * Returns: 0 on success, -1 on error
 224:..\..\..\..\wpa_supplicant\src/utils/os.h ****  *
 225:..\..\..\..\wpa_supplicant\src/utils/os.h ****  * This function is only used for wpa_cli action scripts. OS wrapper does not
 226:..\..\..\..\wpa_supplicant\src/utils/os.h ****  * need to implement this if such functionality is not needed.
 227:..\..\..\..\wpa_supplicant\src/utils/os.h ****  */
 228:..\..\..\..\wpa_supplicant\src/utils/os.h **** int os_unsetenv(const char *name);
 229:..\..\..\..\wpa_supplicant\src/utils/os.h **** 
 230:..\..\..\..\wpa_supplicant\src/utils/os.h **** /**
 231:..\..\..\..\wpa_supplicant\src/utils/os.h ****  * os_readfile - Read a file to an allocated memory buffer
 232:..\..\..\..\wpa_supplicant\src/utils/os.h ****  * @name: Name of the file to read
 233:..\..\..\..\wpa_supplicant\src/utils/os.h ****  * @len: For returning the length of the allocated buffer
 234:..\..\..\..\wpa_supplicant\src/utils/os.h ****  * Returns: Pointer to the allocated buffer or %NULL on failure
 235:..\..\..\..\wpa_supplicant\src/utils/os.h ****  *
 236:..\..\..\..\wpa_supplicant\src/utils/os.h ****  * This function allocates memory and reads the given file to this buffer. Both
 237:..\..\..\..\wpa_supplicant\src/utils/os.h ****  * binary and text files can be read with this function. The caller is
 238:..\..\..\..\wpa_supplicant\src/utils/os.h ****  * responsible for freeing the returned buffer with os_free().
 239:..\..\..\..\wpa_supplicant\src/utils/os.h ****  */
 240:..\..\..\..\wpa_supplicant\src/utils/os.h **** char * os_readfile(const char *name, size_t *len);
 241:..\..\..\..\wpa_supplicant\src/utils/os.h **** 
 242:..\..\..\..\wpa_supplicant\src/utils/os.h **** /**
 243:..\..\..\..\wpa_supplicant\src/utils/os.h ****  * os_file_exists - Check whether the specified file exists
 244:..\..\..\..\wpa_supplicant\src/utils/os.h ****  * @fname: Path and name of the file
 245:..\..\..\..\wpa_supplicant\src/utils/os.h ****  * Returns: 1 if the file exists or 0 if not
 246:..\..\..\..\wpa_supplicant\src/utils/os.h ****  */
 247:..\..\..\..\wpa_supplicant\src/utils/os.h **** int os_file_exists(const char *fname);
 248:..\..\..\..\wpa_supplicant\src/utils/os.h **** 
 249:..\..\..\..\wpa_supplicant\src/utils/os.h **** /**
 250:..\..\..\..\wpa_supplicant\src/utils/os.h ****  * os_fdatasync - Sync a file's (for a given stream) state with storage device
 251:..\..\..\..\wpa_supplicant\src/utils/os.h ****  * @stream: the stream to be flushed
 252:..\..\..\..\wpa_supplicant\src/utils/os.h ****  * Returns: 0 if the operation succeeded or -1 on failure
 253:..\..\..\..\wpa_supplicant\src/utils/os.h ****  */
 254:..\..\..\..\wpa_supplicant\src/utils/os.h **** int os_fdatasync(FILE *stream);
 255:..\..\..\..\wpa_supplicant\src/utils/os.h **** 
 256:..\..\..\..\wpa_supplicant\src/utils/os.h **** /**
 257:..\..\..\..\wpa_supplicant\src/utils/os.h ****  * os_zalloc - Allocate and zero memory
 258:..\..\..\..\wpa_supplicant\src/utils/os.h ****  * @size: Number of bytes to allocate
 259:..\..\..\..\wpa_supplicant\src/utils/os.h ****  * Returns: Pointer to allocated and zeroed memory or %NULL on failure
 260:..\..\..\..\wpa_supplicant\src/utils/os.h ****  *
 261:..\..\..\..\wpa_supplicant\src/utils/os.h ****  * Caller is responsible for freeing the returned buffer with os_free().
 262:..\..\..\..\wpa_supplicant\src/utils/os.h ****  */
 263:..\..\..\..\wpa_supplicant\src/utils/os.h **** void * os_zalloc(size_t size);
 264:..\..\..\..\wpa_supplicant\src/utils/os.h **** 
 265:..\..\..\..\wpa_supplicant\src/utils/os.h **** /**
 266:..\..\..\..\wpa_supplicant\src/utils/os.h ****  * os_calloc - Allocate and zero memory for an array
 267:..\..\..\..\wpa_supplicant\src/utils/os.h ****  * @nmemb: Number of members in the array
 268:..\..\..\..\wpa_supplicant\src/utils/os.h ****  * @size: Number of bytes in each member
 269:..\..\..\..\wpa_supplicant\src/utils/os.h ****  * Returns: Pointer to allocated and zeroed memory or %NULL on failure
 270:..\..\..\..\wpa_supplicant\src/utils/os.h ****  *
 271:..\..\..\..\wpa_supplicant\src/utils/os.h ****  * This function can be used as a wrapper for os_zalloc(nmemb * size) when an
 272:..\..\..\..\wpa_supplicant\src/utils/os.h ****  * allocation is used for an array. The main benefit over os_zalloc() is in
 273:..\..\..\..\wpa_supplicant\src/utils/os.h ****  * having an extra check to catch integer overflows in multiplication.
 274:..\..\..\..\wpa_supplicant\src/utils/os.h ****  *
 275:..\..\..\..\wpa_supplicant\src/utils/os.h ****  * Caller is responsible for freeing the returned buffer with os_free().
 276:..\..\..\..\wpa_supplicant\src/utils/os.h ****  */
 277:..\..\..\..\wpa_supplicant\src/utils/os.h **** static inline void * os_calloc(size_t nmemb, size_t size)
 278:..\..\..\..\wpa_supplicant\src/utils/os.h **** {
 279:..\..\..\..\wpa_supplicant\src/utils/os.h **** 	if (size && nmemb > (~(size_t) 0) / size)
 927              		.loc 3 279 2
 928 00b4 9357D501 		srli	a5,a0,29
 929 00b8 8DCF     		beq	a5,zero,.L88
 930              	.LVL72:
 931              	.LBE98:
 932              	.LBE97:
 189:C:/Users/stapi/OneDrive/Desktop/GD32VW553/V1_MQTT_OK/GD32VW55X_Wifi_BLE_SDK/GD32VW55x_RELEASE_V1.0.2/MSDK/wpa_supplicant/src/ap\hw_features.c **** 		os_calloc(mode->num_rates, sizeof(struct hostapd_rate_data));
 933              		.loc 1 189 23 is_stmt 0
 934 00ba 23260446 		sw	zero,1132(s0)
 191:C:/Users/stapi/OneDrive/Desktop/GD32VW553/V1_MQTT_OK/GD32VW55X_Wifi_BLE_SDK/GD32VW55x_RELEASE_V1.0.2/MSDK/wpa_supplicant/src/ap\hw_features.c **** 		wpa_printf(MSG_ERROR, "Failed to allocate memory for rate "
 935              		.loc 1 191 2 is_stmt 1
 936              	.L89:
 192:C:/Users/stapi/OneDrive/Desktop/GD32VW553/V1_MQTT_OK/GD32VW55X_Wifi_BLE_SDK/GD32VW55x_RELEASE_V1.0.2/MSDK/wpa_supplicant/src/ap\hw_features.c **** 			   "table.");
 937              		.loc 1 192 3
 938 00be B7050000 		lui	a1,%hi(.LC18)
 939 00c2 93850500 		addi	a1,a1,%lo(.LC18)
 940 00c6 1545     		li	a0,5
 941 00c8 97000000 		call	wpa_printf
 941      E7800000 
 942              	.LVL73:
 194:C:/Users/stapi/OneDrive/Desktop/GD32VW553/V1_MQTT_OK/GD32VW55X_Wifi_BLE_SDK/GD32VW55x_RELEASE_V1.0.2/MSDK/wpa_supplicant/src/ap\hw_features.c **** 	}
 943              		.loc 1 194 3
 944              	.L122:
 221:C:/Users/stapi/OneDrive/Desktop/GD32VW553/V1_MQTT_OK/GD32VW55X_Wifi_BLE_SDK/GD32VW55x_RELEASE_V1.0.2/MSDK/wpa_supplicant/src/ap\hw_features.c **** 	}
 945              		.loc 1 221 3
 221:C:/Users/stapi/OneDrive/Desktop/GD32VW553/V1_MQTT_OK/GD32VW55X_Wifi_BLE_SDK/GD32VW55x_RELEASE_V1.0.2/MSDK/wpa_supplicant/src/ap\hw_features.c **** 	}
 946              		.loc 1 221 10 is_stmt 0
 947 00d0 7D55     		li	a0,-1
 948 00d2 31A0     		j	.L78
 949              	.LVL74:
 950              	.L80:
 160:C:/Users/stapi/OneDrive/Desktop/GD32VW553/V1_MQTT_OK/GD32VW55X_Wifi_BLE_SDK/GD32VW55x_RELEASE_V1.0.2/MSDK/wpa_supplicant/src/ap\hw_features.c **** 	case HOSTAPD_MODE_IEEE80211A:
 951              		.loc 1 160 7
 952 00d4 7515     		addi	a0,a0,-3
 953 00d6 3335A000 		snez	a0,a0
 954 00da 3305A040 		neg	a0,a0
 955              	.LVL75:
 956              	.L78:
 225:C:/Users/stapi/OneDrive/Desktop/GD32VW553/V1_MQTT_OK/GD32VW55X_Wifi_BLE_SDK/GD32VW55x_RELEASE_V1.0.2/MSDK/wpa_supplicant/src/ap\hw_features.c **** 
 957              		.loc 1 225 1
 958 00de 4561     		addi	sp,sp,48
 959              		.cfi_remember_state
 960              		.cfi_def_cfa_offset 0
 961 00e0 17030000 		tail	__riscv_restore_8
 961      67000300 
 962              		.cfi_restore 23
 963              		.cfi_restore 22
 964              		.cfi_restore 21
 965              		.cfi_restore 20
 966              		.cfi_restore 19
 967              		.cfi_restore 18
 968              		.cfi_restore 9
 969              		.cfi_restore 8
 970              		.cfi_restore 1
 971              		.cfi_def_cfa_offset -48
 972              	.LVL76:
 973              	.L99:
 974              		.cfi_restore_state
 162:C:/Users/stapi/OneDrive/Desktop/GD32VW553/V1_MQTT_OK/GD32VW55X_Wifi_BLE_SDK/GD32VW55x_RELEASE_V1.0.2/MSDK/wpa_supplicant/src/ap\hw_features.c **** 		break;
 975              		.loc 1 162 15
 976 00e8 9309C100 		addi	s3,sp,12
 977 00ec ADBF     		j	.L79
 978              	.LVL77:
 979              	.L83:
 178:C:/Users/stapi/OneDrive/Desktop/GD32VW553/V1_MQTT_OK/GD32VW55X_Wifi_BLE_SDK/GD32VW55x_RELEASE_V1.0.2/MSDK/wpa_supplicant/src/ap\hw_features.c **** 	if (i)
 980              		.loc 1 178 3 is_stmt 1
 178:C:/Users/stapi/OneDrive/Desktop/GD32VW553/V1_MQTT_OK/GD32VW55X_Wifi_BLE_SDK/GD32VW55x_RELEASE_V1.0.2/MSDK/wpa_supplicant/src/ap\hw_features.c **** 	if (i)
 981              		.loc 1 178 4 is_stmt 0
 982 00ee 8504     		addi	s1,s1,1
 983              	.LVL78:
 984 00f0 A5BF     		j	.L82
 985              	.LVL79:
 986              	.L88:
 987              	.LBB100:
 988              	.LBB99:
 280:..\..\..\..\wpa_supplicant\src/utils/os.h **** 		return NULL;
 281:..\..\..\..\wpa_supplicant\src/utils/os.h **** 	return os_zalloc(nmemb * size);
 989              		.loc 3 281 2 is_stmt 1
 990              		.loc 3 281 9 is_stmt 0
 991 00f2 0E05     		slli	a0,a0,3
 992              	.LVL80:
 993 00f4 97000000 		call	os_zalloc
 993      E7800000 
 994              	.LVL81:
 995              	.LBE99:
 996              	.LBE100:
 189:C:/Users/stapi/OneDrive/Desktop/GD32VW553/V1_MQTT_OK/GD32VW55X_Wifi_BLE_SDK/GD32VW55x_RELEASE_V1.0.2/MSDK/wpa_supplicant/src/ap\hw_features.c **** 		os_calloc(mode->num_rates, sizeof(struct hostapd_rate_data));
 997              		.loc 1 189 23
 998 00fc 2326A446 		sw	a0,1132(s0)
 191:C:/Users/stapi/OneDrive/Desktop/GD32VW553/V1_MQTT_OK/GD32VW55X_Wifi_BLE_SDK/GD32VW55x_RELEASE_V1.0.2/MSDK/wpa_supplicant/src/ap\hw_features.c **** 		wpa_printf(MSG_ERROR, "Failed to allocate memory for rate "
 999              		.loc 1 191 2 is_stmt 1
 152:C:/Users/stapi/OneDrive/Desktop/GD32VW553/V1_MQTT_OK/GD32VW55X_Wifi_BLE_SDK/GD32VW55x_RELEASE_V1.0.2/MSDK/wpa_supplicant/src/ap\hw_features.c **** 	int basic_rates_a[] = { 60, 120, 240, -1 };
 1000              		.loc 1 152 9 is_stmt 0
 1001 0100 014A     		li	s4,0
 197:C:/Users/stapi/OneDrive/Desktop/GD32VW553/V1_MQTT_OK/GD32VW55X_Wifi_BLE_SDK/GD32VW55x_RELEASE_V1.0.2/MSDK/wpa_supplicant/src/ap\hw_features.c **** 		struct hostapd_rate_data *rate;
 1002              		.loc 1 197 9
 1003 0102 814A     		li	s5,0
 191:C:/Users/stapi/OneDrive/Desktop/GD32VW553/V1_MQTT_OK/GD32VW55X_Wifi_BLE_SDK/GD32VW55x_RELEASE_V1.0.2/MSDK/wpa_supplicant/src/ap\hw_features.c **** 		wpa_printf(MSG_ERROR, "Failed to allocate memory for rate "
 1004              		.loc 1 191 5
 1005 0104 4DDD     		beq	a0,zero,.L89
 1006              	.LBB101:
 211:C:/Users/stapi/OneDrive/Desktop/GD32VW553/V1_MQTT_OK/GD32VW55X_Wifi_BLE_SDK/GD32VW55x_RELEASE_V1.0.2/MSDK/wpa_supplicant/src/ap\hw_features.c **** 			   iface->num_rates, rate->rate, rate->flags);
 1007              		.loc 1 211 3
 1008 0106 370B0000 		lui	s6,%hi(.LC19)
 1009              	.LVL82:
 1010              	.L90:
 1011              	.LBE101:
 197:C:/Users/stapi/OneDrive/Desktop/GD32VW553/V1_MQTT_OK/GD32VW55X_Wifi_BLE_SDK/GD32VW55x_RELEASE_V1.0.2/MSDK/wpa_supplicant/src/ap\hw_features.c **** 		struct hostapd_rate_data *rate;
 1012              		.loc 1 197 14 is_stmt 1 discriminator 1
 197:C:/Users/stapi/OneDrive/Desktop/GD32VW553/V1_MQTT_OK/GD32VW55X_Wifi_BLE_SDK/GD32VW55x_RELEASE_V1.0.2/MSDK/wpa_supplicant/src/ap\hw_features.c **** 		struct hostapd_rate_data *rate;
 1013              		.loc 1 197 2 is_stmt 0 discriminator 1
 1014 010a 8327C900 		lw	a5,12(s2)
 1015 010e 63CBFA02 		bgt	a5,s5,.L96
 216:C:/Users/stapi/OneDrive/Desktop/GD32VW553/V1_MQTT_OK/GD32VW55X_Wifi_BLE_SDK/GD32VW55x_RELEASE_V1.0.2/MSDK/wpa_supplicant/src/ap\hw_features.c **** 	    (!iface->conf->ieee80211n || !iface->conf->require_ht)) {
 1016              		.loc 1 216 2 is_stmt 1
 216:C:/Users/stapi/OneDrive/Desktop/GD32VW553/V1_MQTT_OK/GD32VW55X_Wifi_BLE_SDK/GD32VW55x_RELEASE_V1.0.2/MSDK/wpa_supplicant/src/ap\hw_features.c **** 	    (!iface->conf->ieee80211n || !iface->conf->require_ht)) {
 1017              		.loc 1 216 12 is_stmt 0
 1018 0112 03268446 		lw	a2,1128(s0)
 216:C:/Users/stapi/OneDrive/Desktop/GD32VW553/V1_MQTT_OK/GD32VW55X_Wifi_BLE_SDK/GD32VW55x_RELEASE_V1.0.2/MSDK/wpa_supplicant/src/ap\hw_features.c **** 	    (!iface->conf->ieee80211n || !iface->conf->require_ht)) {
 1019              		.loc 1 216 5
 1020 0116 01C6     		beq	a2,zero,.L97
 224:C:/Users/stapi/OneDrive/Desktop/GD32VW553/V1_MQTT_OK/GD32VW55X_Wifi_BLE_SDK/GD32VW55x_RELEASE_V1.0.2/MSDK/wpa_supplicant/src/ap\hw_features.c **** }
 1021              		.loc 1 224 9 discriminator 2
 1022 0118 0145     		li	a0,0
 216:C:/Users/stapi/OneDrive/Desktop/GD32VW553/V1_MQTT_OK/GD32VW55X_Wifi_BLE_SDK/GD32VW55x_RELEASE_V1.0.2/MSDK/wpa_supplicant/src/ap\hw_features.c **** 	    (!iface->conf->ieee80211n || !iface->conf->require_ht)) {
 1023              		.loc 1 216 29 discriminator 2
 1024 011a E3120AFC 		bne	s4,zero,.L78
 1025              	.L97:
 217:C:/Users/stapi/OneDrive/Desktop/GD32VW553/V1_MQTT_OK/GD32VW55X_Wifi_BLE_SDK/GD32VW55x_RELEASE_V1.0.2/MSDK/wpa_supplicant/src/ap\hw_features.c **** 		wpa_printf(MSG_ERROR, "No rates remaining in supported/basic "
 1026              		.loc 1 217 13 discriminator 3
 1027 011e 5C44     		lw	a5,12(s0)
 216:C:/Users/stapi/OneDrive/Desktop/GD32VW553/V1_MQTT_OK/GD32VW55X_Wifi_BLE_SDK/GD32VW55x_RELEASE_V1.0.2/MSDK/wpa_supplicant/src/ap\hw_features.c **** 	    (!iface->conf->ieee80211n || !iface->conf->require_ht)) {
 1028              		.loc 1 216 54 discriminator 3
 1029 0120 03A70712 		lw	a4,288(a5)
 1030 0124 09C7     		beq	a4,zero,.L98
 217:C:/Users/stapi/OneDrive/Desktop/GD32VW553/V1_MQTT_OK/GD32VW55X_Wifi_BLE_SDK/GD32VW55x_RELEASE_V1.0.2/MSDK/wpa_supplicant/src/ap\hw_features.c **** 		wpa_printf(MSG_ERROR, "No rates remaining in supported/basic "
 1031              		.loc 1 217 32
 1032 0126 83A7C712 		lw	a5,300(a5)
 224:C:/Users/stapi/OneDrive/Desktop/GD32VW553/V1_MQTT_OK/GD32VW55X_Wifi_BLE_SDK/GD32VW55x_RELEASE_V1.0.2/MSDK/wpa_supplicant/src/ap\hw_features.c **** }
 1033              		.loc 1 224 9
 1034 012a 0145     		li	a0,0
 217:C:/Users/stapi/OneDrive/Desktop/GD32VW553/V1_MQTT_OK/GD32VW55X_Wifi_BLE_SDK/GD32VW55x_RELEASE_V1.0.2/MSDK/wpa_supplicant/src/ap\hw_features.c **** 		wpa_printf(MSG_ERROR, "No rates remaining in supported/basic "
 1035              		.loc 1 217 32
 1036 012c CDFB     		bne	a5,zero,.L78
 1037              	.L98:
 218:C:/Users/stapi/OneDrive/Desktop/GD32VW553/V1_MQTT_OK/GD32VW55X_Wifi_BLE_SDK/GD32VW55x_RELEASE_V1.0.2/MSDK/wpa_supplicant/src/ap\hw_features.c **** 			   "rate sets (%d,%d).",
 1038              		.loc 1 218 3 is_stmt 1
 1039 012e B7050000 		lui	a1,%hi(.LC20)
 1040 0132 D286     		mv	a3,s4
 1041 0134 93850500 		addi	a1,a1,%lo(.LC20)
 1042 0138 1545     		li	a0,5
 1043 013a 97000000 		call	wpa_printf
 1043      E7800000 
 1044              	.LVL83:
 1045 0142 79B7     		j	.L122
 1046              	.L96:
 1047              	.LBB102:
 198:C:/Users/stapi/OneDrive/Desktop/GD32VW553/V1_MQTT_OK/GD32VW55X_Wifi_BLE_SDK/GD32VW55x_RELEASE_V1.0.2/MSDK/wpa_supplicant/src/ap\hw_features.c **** 
 1048              		.loc 1 198 3
 200:C:/Users/stapi/OneDrive/Desktop/GD32VW553/V1_MQTT_OK/GD32VW55X_Wifi_BLE_SDK/GD32VW55x_RELEASE_V1.0.2/MSDK/wpa_supplicant/src/ap\hw_features.c **** 		    !hostapd_rate_found(iface->conf->supported_rates,
 1049              		.loc 1 200 3
 200:C:/Users/stapi/OneDrive/Desktop/GD32VW553/V1_MQTT_OK/GD32VW55X_Wifi_BLE_SDK/GD32VW55x_RELEASE_V1.0.2/MSDK/wpa_supplicant/src/ap\hw_features.c **** 		    !hostapd_rate_found(iface->conf->supported_rates,
 1050              		.loc 1 200 18 is_stmt 0
 1051 0144 5C44     		lw	a5,12(s0)
 1052 0146 939B2A00 		slli	s7,s5,2
 1053 014a E847     		lw	a0,76(a5)
 200:C:/Users/stapi/OneDrive/Desktop/GD32VW553/V1_MQTT_OK/GD32VW55X_Wifi_BLE_SDK/GD32VW55x_RELEASE_V1.0.2/MSDK/wpa_supplicant/src/ap\hw_features.c **** 		    !hostapd_rate_found(iface->conf->supported_rates,
 1054              		.loc 1 200 6
 1055 014c 39E1     		bne	a0,zero,.L91
 1056              	.L95:
 205:C:/Users/stapi/OneDrive/Desktop/GD32VW553/V1_MQTT_OK/GD32VW55X_Wifi_BLE_SDK/GD32VW55x_RELEASE_V1.0.2/MSDK/wpa_supplicant/src/ap\hw_features.c **** 		rate->rate = mode->rates[i];
 1057              		.loc 1 205 3 is_stmt 1
 205:C:/Users/stapi/OneDrive/Desktop/GD32VW553/V1_MQTT_OK/GD32VW55X_Wifi_BLE_SDK/GD32VW55x_RELEASE_V1.0.2/MSDK/wpa_supplicant/src/ap\hw_features.c **** 		rate->rate = mode->rates[i];
 1058              		.loc 1 205 8 is_stmt 0
 1059 014e 8327C446 		lw	a5,1132(s0)
 205:C:/Users/stapi/OneDrive/Desktop/GD32VW553/V1_MQTT_OK/GD32VW55X_Wifi_BLE_SDK/GD32VW55x_RELEASE_V1.0.2/MSDK/wpa_supplicant/src/ap\hw_features.c **** 		rate->rate = mode->rates[i];
 1060              		.loc 1 205 31
 1061 0152 83248446 		lw	s1,1128(s0)
 207:C:/Users/stapi/OneDrive/Desktop/GD32VW553/V1_MQTT_OK/GD32VW55X_Wifi_BLE_SDK/GD32VW55x_RELEASE_V1.0.2/MSDK/wpa_supplicant/src/ap\hw_features.c **** 			rate->flags |= HOSTAPD_RATE_BASIC;
 1062              		.loc 1 207 7
 1063 0156 4E85     		mv	a0,s3
 205:C:/Users/stapi/OneDrive/Desktop/GD32VW553/V1_MQTT_OK/GD32VW55X_Wifi_BLE_SDK/GD32VW55x_RELEASE_V1.0.2/MSDK/wpa_supplicant/src/ap\hw_features.c **** 		rate->rate = mode->rates[i];
 1064              		.loc 1 205 8
 1065 0158 B3E4F420 		sh3add	s1,s1,a5
 1066              	.LVL84:
 206:C:/Users/stapi/OneDrive/Desktop/GD32VW553/V1_MQTT_OK/GD32VW55X_Wifi_BLE_SDK/GD32VW55x_RELEASE_V1.0.2/MSDK/wpa_supplicant/src/ap\hw_features.c **** 		if (hostapd_rate_found(basic_rates, rate->rate)) {
 1067              		.loc 1 206 3 is_stmt 1
 206:C:/Users/stapi/OneDrive/Desktop/GD32VW553/V1_MQTT_OK/GD32VW55X_Wifi_BLE_SDK/GD32VW55x_RELEASE_V1.0.2/MSDK/wpa_supplicant/src/ap\hw_features.c **** 		if (hostapd_rate_found(basic_rates, rate->rate)) {
 1068              		.loc 1 206 27 is_stmt 0
 1069 015c 83270901 		lw	a5,16(s2)
 1070 0160 DE97     		add	a5,a5,s7
 1071 0162 8C43     		lw	a1,0(a5)
 206:C:/Users/stapi/OneDrive/Desktop/GD32VW553/V1_MQTT_OK/GD32VW55X_Wifi_BLE_SDK/GD32VW55x_RELEASE_V1.0.2/MSDK/wpa_supplicant/src/ap\hw_features.c **** 		if (hostapd_rate_found(basic_rates, rate->rate)) {
 1072              		.loc 1 206 14
 1073 0164 8CC0     		sw	a1,0(s1)
 207:C:/Users/stapi/OneDrive/Desktop/GD32VW553/V1_MQTT_OK/GD32VW55X_Wifi_BLE_SDK/GD32VW55x_RELEASE_V1.0.2/MSDK/wpa_supplicant/src/ap\hw_features.c **** 			rate->flags |= HOSTAPD_RATE_BASIC;
 1074              		.loc 1 207 3 is_stmt 1
 207:C:/Users/stapi/OneDrive/Desktop/GD32VW553/V1_MQTT_OK/GD32VW55X_Wifi_BLE_SDK/GD32VW55x_RELEASE_V1.0.2/MSDK/wpa_supplicant/src/ap\hw_features.c **** 			rate->flags |= HOSTAPD_RATE_BASIC;
 1075              		.loc 1 207 7 is_stmt 0
 1076 0166 97000000 		call	hostapd_rate_found
 1076      E7800000 
 1077              	.LVL85:
 207:C:/Users/stapi/OneDrive/Desktop/GD32VW553/V1_MQTT_OK/GD32VW55X_Wifi_BLE_SDK/GD32VW55x_RELEASE_V1.0.2/MSDK/wpa_supplicant/src/ap\hw_features.c **** 			rate->flags |= HOSTAPD_RATE_BASIC;
 1078              		.loc 1 207 6
 1079 016e 0DED     		bne	a0,zero,.L92
 1080              	.L93:
 211:C:/Users/stapi/OneDrive/Desktop/GD32VW553/V1_MQTT_OK/GD32VW55X_Wifi_BLE_SDK/GD32VW55x_RELEASE_V1.0.2/MSDK/wpa_supplicant/src/ap\hw_features.c **** 			   iface->num_rates, rate->rate, rate->flags);
 1081              		.loc 1 211 3 is_stmt 1
 1082 0170 D840     		lw	a4,4(s1)
 1083 0172 9440     		lw	a3,0(s1)
 1084 0174 03268446 		lw	a2,1128(s0)
 1085 0178 93050B00 		addi	a1,s6,%lo(.LC19)
 1086 017c 0945     		li	a0,2
 1087 017e 97000000 		call	wpa_printf
 1087      E7800000 
 1088              	.LVL86:
 213:C:/Users/stapi/OneDrive/Desktop/GD32VW553/V1_MQTT_OK/GD32VW55X_Wifi_BLE_SDK/GD32VW55x_RELEASE_V1.0.2/MSDK/wpa_supplicant/src/ap\hw_features.c **** 	}
 1089              		.loc 1 213 3
 213:C:/Users/stapi/OneDrive/Desktop/GD32VW553/V1_MQTT_OK/GD32VW55X_Wifi_BLE_SDK/GD32VW55x_RELEASE_V1.0.2/MSDK/wpa_supplicant/src/ap\hw_features.c **** 	}
 1090              		.loc 1 213 19 is_stmt 0
 1091 0186 83278446 		lw	a5,1128(s0)
 1092 018a 8507     		addi	a5,a5,1
 1093 018c 2324F446 		sw	a5,1128(s0)
 1094 0190 11A8     		j	.L94
 1095              	.LVL87:
 1096              	.L91:
 201:C:/Users/stapi/OneDrive/Desktop/GD32VW553/V1_MQTT_OK/GD32VW55X_Wifi_BLE_SDK/GD32VW55x_RELEASE_V1.0.2/MSDK/wpa_supplicant/src/ap\hw_features.c **** 					mode->rates[i]))
 1097              		.loc 1 201 8 discriminator 1
 1098 0192 83270901 		lw	a5,16(s2)
 1099 0196 DE97     		add	a5,a5,s7
 1100 0198 8C43     		lw	a1,0(a5)
 1101 019a 97000000 		call	hostapd_rate_found
 1101      E7800000 
 1102              	.LVL88:
 200:C:/Users/stapi/OneDrive/Desktop/GD32VW553/V1_MQTT_OK/GD32VW55X_Wifi_BLE_SDK/GD32VW55x_RELEASE_V1.0.2/MSDK/wpa_supplicant/src/ap\hw_features.c **** 		    !hostapd_rate_found(iface->conf->supported_rates,
 1103              		.loc 1 200 36 discriminator 1
 1104 01a2 55F5     		bne	a0,zero,.L95
 1105              	.L94:
 1106              	.LBE102:
 197:C:/Users/stapi/OneDrive/Desktop/GD32VW553/V1_MQTT_OK/GD32VW55X_Wifi_BLE_SDK/GD32VW55x_RELEASE_V1.0.2/MSDK/wpa_supplicant/src/ap\hw_features.c **** 		struct hostapd_rate_data *rate;
 1107              		.loc 1 197 35 is_stmt 1 discriminator 2
 197:C:/Users/stapi/OneDrive/Desktop/GD32VW553/V1_MQTT_OK/GD32VW55X_Wifi_BLE_SDK/GD32VW55x_RELEASE_V1.0.2/MSDK/wpa_supplicant/src/ap\hw_features.c **** 		struct hostapd_rate_data *rate;
 1108              		.loc 1 197 36 is_stmt 0 discriminator 2
 1109 01a4 850A     		addi	s5,s5,1
 1110              	.LVL89:
 1111 01a6 95B7     		j	.L90
 1112              	.LVL90:
 1113              	.L92:
 1114              	.LBB103:
 208:C:/Users/stapi/OneDrive/Desktop/GD32VW553/V1_MQTT_OK/GD32VW55X_Wifi_BLE_SDK/GD32VW55x_RELEASE_V1.0.2/MSDK/wpa_supplicant/src/ap\hw_features.c **** 			num_basic_rates++;
 1115              		.loc 1 208 4 is_stmt 1
 208:C:/Users/stapi/OneDrive/Desktop/GD32VW553/V1_MQTT_OK/GD32VW55X_Wifi_BLE_SDK/GD32VW55x_RELEASE_V1.0.2/MSDK/wpa_supplicant/src/ap\hw_features.c **** 			num_basic_rates++;
 1116              		.loc 1 208 16 is_stmt 0
 1117 01a8 DC40     		lw	a5,4(s1)
 209:C:/Users/stapi/OneDrive/Desktop/GD32VW553/V1_MQTT_OK/GD32VW55X_Wifi_BLE_SDK/GD32VW55x_RELEASE_V1.0.2/MSDK/wpa_supplicant/src/ap\hw_features.c **** 		}
 1118              		.loc 1 209 19
 1119 01aa 050A     		addi	s4,s4,1
 1120              	.LVL91:
 208:C:/Users/stapi/OneDrive/Desktop/GD32VW553/V1_MQTT_OK/GD32VW55X_Wifi_BLE_SDK/GD32VW55x_RELEASE_V1.0.2/MSDK/wpa_supplicant/src/ap\hw_features.c **** 			num_basic_rates++;
 1121              		.loc 1 208 16
 1122 01ac 93E71700 		ori	a5,a5,1
 1123 01b0 DCC0     		sw	a5,4(s1)
 209:C:/Users/stapi/OneDrive/Desktop/GD32VW553/V1_MQTT_OK/GD32VW55X_Wifi_BLE_SDK/GD32VW55x_RELEASE_V1.0.2/MSDK/wpa_supplicant/src/ap\hw_features.c **** 		}
 1124              		.loc 1 209 4 is_stmt 1
 1125              	.LVL92:
 1126 01b2 7DBF     		j	.L93
 1127              	.LBE103:
 1128              		.cfi_endproc
 1129              	.LFE170:
 1131              		.section	.rodata.hostapd_check_ht_capab.str1.4,"aMS",@progbits,1
 1132              		.align	2
 1133              	.LC21:
 1134 0000 44697361 		.string	"Disable HT capability [DSSS_CCK-40] on 5 GHz band"
 1134      626C6520 
 1134      48542063 
 1134      61706162 
 1134      696C6974 
 1135 0032 0000     		.align	2
 1136              	.LC22:
 1137 0034 44726976 		.string	"Driver does not support configured HT capability [LDPC]"
 1137      65722064 
 1137      6F657320 
 1137      6E6F7420 
 1137      73757070 
 1138              		.align	2
 1139              	.LC23:
 1140 006c 44726976 		.string	"Driver does not support configured HT capability [HT40*]"
 1140      65722064 
 1140      6F657320 
 1140      6E6F7420 
 1140      73757070 
 1141 00a5 000000   		.align	2
 1142              	.LC24:
 1143 00a8 44726976 		.string	"Driver does not support configured HT capability [GF]"
 1143      65722064 
 1143      6F657320 
 1143      6E6F7420 
 1143      73757070 
 1144 00de 0000     		.align	2
 1145              	.LC25:
 1146 00e0 44726976 		.string	"Driver does not support configured HT capability [SHORT-GI-20]"
 1146      65722064 
 1146      6F657320 
 1146      6E6F7420 
 1146      73757070 
 1147 011f 00       		.align	2
 1148              	.LC26:
 1149 0120 44726976 		.string	"Driver does not support configured HT capability [SHORT-GI-40]"
 1149      65722064 
 1149      6F657320 
 1149      6E6F7420 
 1149      73757070 
 1150 015f 00       		.align	2
 1151              	.LC27:
 1152 0160 44726976 		.string	"Driver does not support configured HT capability [TX-STBC]"
 1152      65722064 
 1152      6F657320 
 1152      6E6F7420 
 1152      73757070 
 1153 019b 00       		.align	2
 1154              	.LC28:
 1155 019c 44726976 		.string	"Driver does not support configured HT capability [RX-STBC*]"
 1155      65722064 
 1155      6F657320 
 1155      6E6F7420 
 1155      73757070 
 1156              		.align	2
 1157              	.LC29:
 1158 01d8 44726976 		.string	"Driver does not support configured HT capability [DELAYED-BA]"
 1158      65722064 
 1158      6F657320 
 1158      6E6F7420 
 1158      73757070 
 1159 0216 0000     		.align	2
 1160              	.LC30:
 1161 0218 44726976 		.string	"Driver does not support configured HT capability [MAX-AMSDU-7935]"
 1161      65722064 
 1161      6F657320 
 1161      6E6F7420 
 1161      73757070 
 1162 025a 0000     		.align	2
 1163              	.LC31:
 1164 025c 44726976 		.string	"Driver does not support configured HT capability [DSSS_CCK-40]"
 1164      65722064 
 1164      6F657320 
 1164      6E6F7420 
 1164      73757070 
 1165 029b 00       		.align	2
 1166              	.LC32:
 1167 029c 44726976 		.string	"Driver does not support configured HT capability [LSIG-TXOP-PROT]"
 1167      65722064 
 1167      6F657320 
 1167      6E6F7420 
 1167      73757070 
 1168              		.section	.text.hostapd_check_ht_capab,"ax",@progbits
 1169              		.align	1
 1170              		.globl	hostapd_check_ht_capab
 1172              	hostapd_check_ht_capab:
 1173              	.LFB180:
 691:C:/Users/stapi/OneDrive/Desktop/GD32VW553/V1_MQTT_OK/GD32VW55X_Wifi_BLE_SDK/GD32VW55x_RELEASE_V1.0.2/MSDK/wpa_supplicant/src/ap\hw_features.c **** 	int ret;
 1174              		.loc 1 691 1
 1175              		.cfi_startproc
 1176              	.LVL93:
 692:C:/Users/stapi/OneDrive/Desktop/GD32VW553/V1_MQTT_OK/GD32VW55X_Wifi_BLE_SDK/GD32VW55x_RELEASE_V1.0.2/MSDK/wpa_supplicant/src/ap\hw_features.c **** 
 1177              		.loc 1 692 2
 698:C:/Users/stapi/OneDrive/Desktop/GD32VW553/V1_MQTT_OK/GD32VW55X_Wifi_BLE_SDK/GD32VW55x_RELEASE_V1.0.2/MSDK/wpa_supplicant/src/ap\hw_features.c **** 		return 0;
 1178              		.loc 1 698 2
 698:C:/Users/stapi/OneDrive/Desktop/GD32VW553/V1_MQTT_OK/GD32VW55X_Wifi_BLE_SDK/GD32VW55x_RELEASE_V1.0.2/MSDK/wpa_supplicant/src/ap\hw_features.c **** 		return 0;
 1179              		.loc 1 698 12 is_stmt 0
 1180 0000 5C45     		lw	a5,12(a0)
 698:C:/Users/stapi/OneDrive/Desktop/GD32VW553/V1_MQTT_OK/GD32VW55X_Wifi_BLE_SDK/GD32VW55x_RELEASE_V1.0.2/MSDK/wpa_supplicant/src/ap\hw_features.c **** 		return 0;
 1181              		.loc 1 698 5
 1182 0002 03A70712 		lw	a4,288(a5)
 1183 0006 01EB     		bne	a4,zero,.L124
 699:C:/Users/stapi/OneDrive/Desktop/GD32VW553/V1_MQTT_OK/GD32VW55X_Wifi_BLE_SDK/GD32VW55x_RELEASE_V1.0.2/MSDK/wpa_supplicant/src/ap\hw_features.c **** 
 1184              		.loc 1 699 10
 1185 0008 0145     		li	a0,0
 1186              	.LVL94:
 730:C:/Users/stapi/OneDrive/Desktop/GD32VW553/V1_MQTT_OK/GD32VW55X_Wifi_BLE_SDK/GD32VW55x_RELEASE_V1.0.2/MSDK/wpa_supplicant/src/ap\hw_features.c **** 
 1187              		.loc 1 730 1
 1188 000a 8280     		ret
 1189              	.LVL95:
 1190              	.L137:
 1191              		.cfi_def_cfa_offset 16
 1192              		.cfi_offset 1, -4
 1193              		.cfi_offset 8, -8
 699:C:/Users/stapi/OneDrive/Desktop/GD32VW553/V1_MQTT_OK/GD32VW55X_Wifi_BLE_SDK/GD32VW55x_RELEASE_V1.0.2/MSDK/wpa_supplicant/src/ap\hw_features.c **** 
 1194              		.loc 1 699 10
 1195 000c 0145     		li	a0,0
 1196              	.LVL96:
 1197              	.L123:
 730:C:/Users/stapi/OneDrive/Desktop/GD32VW553/V1_MQTT_OK/GD32VW55X_Wifi_BLE_SDK/GD32VW55x_RELEASE_V1.0.2/MSDK/wpa_supplicant/src/ap\hw_features.c **** 
 1198              		.loc 1 730 1
 1199 000e 17030000 		tail	__riscv_restore_1
 1199      67000300 
 1200              		.cfi_restore 8
 1201              		.cfi_restore 1
 1202              		.cfi_def_cfa_offset 0
 1203              	.LVL97:
 1204              	.L124:
 691:C:/Users/stapi/OneDrive/Desktop/GD32VW553/V1_MQTT_OK/GD32VW55X_Wifi_BLE_SDK/GD32VW55x_RELEASE_V1.0.2/MSDK/wpa_supplicant/src/ap\hw_features.c **** 	int ret;
 1205              		.loc 1 691 1
 1206 0016 17030000 		call	t0,__riscv_save_1
 1206      E7020300 
 1207              		.cfi_offset 8, -8
 1208              		.cfi_offset 1, -4
 1209              		.cfi_def_cfa_offset 16
 701:C:/Users/stapi/OneDrive/Desktop/GD32VW553/V1_MQTT_OK/GD32VW55X_Wifi_BLE_SDK/GD32VW55x_RELEASE_V1.0.2/MSDK/wpa_supplicant/src/ap\hw_features.c **** 	    iface->current_mode->mode != HOSTAPD_MODE_IEEE80211G &&
 1210              		.loc 1 701 25
 1211 001e 03274546 		lw	a4,1124(a0)
 1212 0022 2A84     		mv	s0,a0
 701:C:/Users/stapi/OneDrive/Desktop/GD32VW553/V1_MQTT_OK/GD32VW55X_Wifi_BLE_SDK/GD32VW55x_RELEASE_V1.0.2/MSDK/wpa_supplicant/src/ap\hw_features.c **** 	    iface->current_mode->mode != HOSTAPD_MODE_IEEE80211G &&
 1213              		.loc 1 701 2 is_stmt 1
 701:C:/Users/stapi/OneDrive/Desktop/GD32VW553/V1_MQTT_OK/GD32VW55X_Wifi_BLE_SDK/GD32VW55x_RELEASE_V1.0.2/MSDK/wpa_supplicant/src/ap\hw_features.c **** 	    iface->current_mode->mode != HOSTAPD_MODE_IEEE80211G &&
 1214              		.loc 1 701 5 is_stmt 0
 1215 0024 1443     		lw	a3,0(a4)
 1216 0026 0547     		li	a4,1
 1217 0028 6377D702 		bleu	a3,a4,.L126
 1218              	.LVL98:
 702:C:/Users/stapi/OneDrive/Desktop/GD32VW553/V1_MQTT_OK/GD32VW55X_Wifi_BLE_SDK/GD32VW55x_RELEASE_V1.0.2/MSDK/wpa_supplicant/src/ap\hw_features.c **** 	    (iface->conf->ht_capab & HT_CAP_INFO_DSSS_CCK40MHZ)) {
 1219              		.loc 1 702 59
 1220 002c 83D7C711 		lhu	a5,284(a5)
 1221 0030 0567     		li	a4,4096
 1222 0032 F98F     		and	a5,a5,a4
 1223 0034 8DC3     		beq	a5,zero,.L126
 704:C:/Users/stapi/OneDrive/Desktop/GD32VW553/V1_MQTT_OK/GD32VW55X_Wifi_BLE_SDK/GD32VW55x_RELEASE_V1.0.2/MSDK/wpa_supplicant/src/ap\hw_features.c **** 			   "Disable HT capability [DSSS_CCK-40] on 5 GHz band");
 1224              		.loc 1 704 3 is_stmt 1
 1225 0036 B7050000 		lui	a1,%hi(.LC21)
 1226 003a 93850500 		addi	a1,a1,%lo(.LC21)
 1227 003e 0945     		li	a0,2
 1228 0040 97000000 		call	wpa_printf
 1228      E7800000 
 1229              	.LVL99:
 706:C:/Users/stapi/OneDrive/Desktop/GD32VW553/V1_MQTT_OK/GD32VW55X_Wifi_BLE_SDK/GD32VW55x_RELEASE_V1.0.2/MSDK/wpa_supplicant/src/ap\hw_features.c **** 	}
 1230              		.loc 1 706 3
 706:C:/Users/stapi/OneDrive/Desktop/GD32VW553/V1_MQTT_OK/GD32VW55X_Wifi_BLE_SDK/GD32VW55x_RELEASE_V1.0.2/MSDK/wpa_supplicant/src/ap\hw_features.c **** 	}
 1231              		.loc 1 706 8 is_stmt 0
 1232 0048 5844     		lw	a4,12(s0)
 706:C:/Users/stapi/OneDrive/Desktop/GD32VW553/V1_MQTT_OK/GD32VW55X_Wifi_BLE_SDK/GD32VW55x_RELEASE_V1.0.2/MSDK/wpa_supplicant/src/ap\hw_features.c **** 	}
 1233              		.loc 1 706 25
 1234 004a 8357C711 		lhu	a5,284(a4)
 1235 004e 9397C748 		bclri	a5,a5,12
 1236 0052 231EF710 		sh	a5,284(a4)
 1237              	.L126:
 1238              	.LVL100:
 1239              	.LBB108:
 1240              	.LBB109:
 709:C:/Users/stapi/OneDrive/Desktop/GD32VW553/V1_MQTT_OK/GD32VW55X_Wifi_BLE_SDK/GD32VW55x_RELEASE_V1.0.2/MSDK/wpa_supplicant/src/ap\hw_features.c **** 		return -1;
 1241              		.loc 1 709 2 is_stmt 1
 1242              	.LBB110:
 1243              	.LBB111:
 562:C:/Users/stapi/OneDrive/Desktop/GD32VW553/V1_MQTT_OK/GD32VW55X_Wifi_BLE_SDK/GD32VW55x_RELEASE_V1.0.2/MSDK/wpa_supplicant/src/ap\hw_features.c **** 	u16 conf = iface->conf->ht_capab;
 1244              		.loc 1 562 2
 563:C:/Users/stapi/OneDrive/Desktop/GD32VW553/V1_MQTT_OK/GD32VW55X_Wifi_BLE_SDK/GD32VW55x_RELEASE_V1.0.2/MSDK/wpa_supplicant/src/ap\hw_features.c **** 
 1245              		.loc 1 563 18 is_stmt 0
 1246 0056 5444     		lw	a3,12(s0)
 562:C:/Users/stapi/OneDrive/Desktop/GD32VW553/V1_MQTT_OK/GD32VW55X_Wifi_BLE_SDK/GD32VW55x_RELEASE_V1.0.2/MSDK/wpa_supplicant/src/ap\hw_features.c **** 	u16 conf = iface->conf->ht_capab;
 1247              		.loc 1 562 6
 1248 0058 83274446 		lw	a5,1124(s0)
 563:C:/Users/stapi/OneDrive/Desktop/GD32VW553/V1_MQTT_OK/GD32VW55X_Wifi_BLE_SDK/GD32VW55x_RELEASE_V1.0.2/MSDK/wpa_supplicant/src/ap\hw_features.c **** 
 1249              		.loc 1 563 6
 1250 005c 03D7C611 		lhu	a4,284(a3)
 562:C:/Users/stapi/OneDrive/Desktop/GD32VW553/V1_MQTT_OK/GD32VW55X_Wifi_BLE_SDK/GD32VW55x_RELEASE_V1.0.2/MSDK/wpa_supplicant/src/ap\hw_features.c **** 	u16 conf = iface->conf->ht_capab;
 1251              		.loc 1 562 6
 1252 0060 83D74701 		lhu	a5,20(a5)
 1253              	.LVL101:
 563:C:/Users/stapi/OneDrive/Desktop/GD32VW553/V1_MQTT_OK/GD32VW55X_Wifi_BLE_SDK/GD32VW55x_RELEASE_V1.0.2/MSDK/wpa_supplicant/src/ap\hw_features.c **** 
 1254              		.loc 1 563 2 is_stmt 1
 565:C:/Users/stapi/OneDrive/Desktop/GD32VW553/V1_MQTT_OK/GD32VW55X_Wifi_BLE_SDK/GD32VW55x_RELEASE_V1.0.2/MSDK/wpa_supplicant/src/ap\hw_features.c **** 	    !(hw & HT_CAP_INFO_LDPC_CODING_CAP)) {
 1255              		.loc 1 565 2
 565:C:/Users/stapi/OneDrive/Desktop/GD32VW553/V1_MQTT_OK/GD32VW55X_Wifi_BLE_SDK/GD32VW55x_RELEASE_V1.0.2/MSDK/wpa_supplicant/src/ap\hw_features.c **** 	    !(hw & HT_CAP_INFO_LDPC_CODING_CAP)) {
 1256              		.loc 1 565 5 is_stmt 0
 1257 0064 13761700 		andi	a2,a4,1
 1258 0068 19CE     		beq	a2,zero,.L127
 565:C:/Users/stapi/OneDrive/Desktop/GD32VW553/V1_MQTT_OK/GD32VW55X_Wifi_BLE_SDK/GD32VW55x_RELEASE_V1.0.2/MSDK/wpa_supplicant/src/ap\hw_features.c **** 	    !(hw & HT_CAP_INFO_LDPC_CODING_CAP)) {
 1259              		.loc 1 565 43
 1260 006a 13F61700 		andi	a2,a5,1
 1261 006e 01EE     		bne	a2,zero,.L127
 567:C:/Users/stapi/OneDrive/Desktop/GD32VW553/V1_MQTT_OK/GD32VW55X_Wifi_BLE_SDK/GD32VW55x_RELEASE_V1.0.2/MSDK/wpa_supplicant/src/ap\hw_features.c **** 			   "HT capability [LDPC]");
 1262              		.loc 1 567 3 is_stmt 1
 1263 0070 B7050000 		lui	a1,%hi(.LC22)
 1264 0074 93850500 		addi	a1,a1,%lo(.LC22)
 1265              	.LVL102:
 1266              	.L171:
 640:C:/Users/stapi/OneDrive/Desktop/GD32VW553/V1_MQTT_OK/GD32VW55X_Wifi_BLE_SDK/GD32VW55x_RELEASE_V1.0.2/MSDK/wpa_supplicant/src/ap\hw_features.c **** 			   "HT capability [LSIG-TXOP-PROT]");
 1267              		.loc 1 640 3 is_stmt 0
 1268 0078 1545     		li	a0,5
 1269 007a 97000000 		call	wpa_printf
 1269      E7800000 
 1270              	.LVL103:
 642:C:/Users/stapi/OneDrive/Desktop/GD32VW553/V1_MQTT_OK/GD32VW55X_Wifi_BLE_SDK/GD32VW55x_RELEASE_V1.0.2/MSDK/wpa_supplicant/src/ap\hw_features.c **** 	}
 1271              		.loc 1 642 3 is_stmt 1
 1272              	.LBE111:
 1273              	.LBE110:
 710:C:/Users/stapi/OneDrive/Desktop/GD32VW553/V1_MQTT_OK/GD32VW55X_Wifi_BLE_SDK/GD32VW55x_RELEASE_V1.0.2/MSDK/wpa_supplicant/src/ap\hw_features.c **** #ifdef CONFIG_IEEE80211AX
 1274              		.loc 1 710 10 is_stmt 0
 1275 0082 7D55     		li	a0,-1
 1276              	.LVL104:
 1277 0084 69B7     		j	.L123
 1278              	.LVL105:
 1279              	.L127:
 1280              	.LBB113:
 1281              	.LBB112:
 576:C:/Users/stapi/OneDrive/Desktop/GD32VW553/V1_MQTT_OK/GD32VW55X_Wifi_BLE_SDK/GD32VW55x_RELEASE_V1.0.2/MSDK/wpa_supplicant/src/ap\hw_features.c **** 	    !(hw & HT_CAP_INFO_SUPP_CHANNEL_WIDTH_SET)) {
 1282              		.loc 1 576 2 is_stmt 1
 576:C:/Users/stapi/OneDrive/Desktop/GD32VW553/V1_MQTT_OK/GD32VW55X_Wifi_BLE_SDK/GD32VW55x_RELEASE_V1.0.2/MSDK/wpa_supplicant/src/ap\hw_features.c **** 	    !(hw & HT_CAP_INFO_SUPP_CHANNEL_WIDTH_SET)) {
 1283              		.loc 1 576 5 is_stmt 0
 1284 0086 83C61602 		lbu	a3,33(a3)
 1285 008a 81EE     		bne	a3,zero,.L128
 576:C:/Users/stapi/OneDrive/Desktop/GD32VW553/V1_MQTT_OK/GD32VW55X_Wifi_BLE_SDK/GD32VW55x_RELEASE_V1.0.2/MSDK/wpa_supplicant/src/ap\hw_features.c **** 	    !(hw & HT_CAP_INFO_SUPP_CHANNEL_WIDTH_SET)) {
 1286              		.loc 1 576 24
 1287 008c 93762700 		andi	a3,a4,2
 1288 0090 89CA     		beq	a3,zero,.L128
 576:C:/Users/stapi/OneDrive/Desktop/GD32VW553/V1_MQTT_OK/GD32VW55X_Wifi_BLE_SDK/GD32VW55x_RELEASE_V1.0.2/MSDK/wpa_supplicant/src/ap\hw_features.c **** 	    !(hw & HT_CAP_INFO_SUPP_CHANNEL_WIDTH_SET)) {
 1289              		.loc 1 576 71
 1290 0092 93F62700 		andi	a3,a5,2
 1291 0096 91E6     		bne	a3,zero,.L128
 578:C:/Users/stapi/OneDrive/Desktop/GD32VW553/V1_MQTT_OK/GD32VW55X_Wifi_BLE_SDK/GD32VW55x_RELEASE_V1.0.2/MSDK/wpa_supplicant/src/ap\hw_features.c **** 			   "HT capability [HT40*]");
 1292              		.loc 1 578 3 is_stmt 1
 1293 0098 B7050000 		lui	a1,%hi(.LC23)
 1294 009c 93850500 		addi	a1,a1,%lo(.LC23)
 1295 00a0 E1BF     		j	.L171
 1296              	.L128:
 583:C:/Users/stapi/OneDrive/Desktop/GD32VW553/V1_MQTT_OK/GD32VW55X_Wifi_BLE_SDK/GD32VW55x_RELEASE_V1.0.2/MSDK/wpa_supplicant/src/ap\hw_features.c **** 	    !(hw & HT_CAP_INFO_GREEN_FIELD)) {
 1297              		.loc 1 583 2
 583:C:/Users/stapi/OneDrive/Desktop/GD32VW553/V1_MQTT_OK/GD32VW55X_Wifi_BLE_SDK/GD32VW55x_RELEASE_V1.0.2/MSDK/wpa_supplicant/src/ap\hw_features.c **** 	    !(hw & HT_CAP_INFO_GREEN_FIELD)) {
 1298              		.loc 1 583 5 is_stmt 0
 1299 00a2 93760701 		andi	a3,a4,16
 1300 00a6 89CA     		beq	a3,zero,.L129
 583:C:/Users/stapi/OneDrive/Desktop/GD32VW553/V1_MQTT_OK/GD32VW55X_Wifi_BLE_SDK/GD32VW55x_RELEASE_V1.0.2/MSDK/wpa_supplicant/src/ap\hw_features.c **** 	    !(hw & HT_CAP_INFO_GREEN_FIELD)) {
 1301              		.loc 1 583 39
 1302 00a8 93F60701 		andi	a3,a5,16
 1303 00ac 91E6     		bne	a3,zero,.L129
 585:C:/Users/stapi/OneDrive/Desktop/GD32VW553/V1_MQTT_OK/GD32VW55X_Wifi_BLE_SDK/GD32VW55x_RELEASE_V1.0.2/MSDK/wpa_supplicant/src/ap\hw_features.c **** 			   "HT capability [GF]");
 1304              		.loc 1 585 3 is_stmt 1
 1305 00ae B7050000 		lui	a1,%hi(.LC24)
 1306 00b2 93850500 		addi	a1,a1,%lo(.LC24)
 1307 00b6 C9B7     		j	.L171
 1308              	.L129:
 590:C:/Users/stapi/OneDrive/Desktop/GD32VW553/V1_MQTT_OK/GD32VW55X_Wifi_BLE_SDK/GD32VW55x_RELEASE_V1.0.2/MSDK/wpa_supplicant/src/ap\hw_features.c **** 	    !(hw & HT_CAP_INFO_SHORT_GI20MHZ)) {
 1309              		.loc 1 590 2
 590:C:/Users/stapi/OneDrive/Desktop/GD32VW553/V1_MQTT_OK/GD32VW55X_Wifi_BLE_SDK/GD32VW55x_RELEASE_V1.0.2/MSDK/wpa_supplicant/src/ap\hw_features.c **** 	    !(hw & HT_CAP_INFO_SHORT_GI20MHZ)) {
 1310              		.loc 1 590 5 is_stmt 0
 1311 00b8 93760702 		andi	a3,a4,32
 1312 00bc 89CA     		beq	a3,zero,.L130
 590:C:/Users/stapi/OneDrive/Desktop/GD32VW553/V1_MQTT_OK/GD32VW55X_Wifi_BLE_SDK/GD32VW55x_RELEASE_V1.0.2/MSDK/wpa_supplicant/src/ap\hw_features.c **** 	    !(hw & HT_CAP_INFO_SHORT_GI20MHZ)) {
 1313              		.loc 1 590 41
 1314 00be 93F60702 		andi	a3,a5,32
 1315 00c2 91E6     		bne	a3,zero,.L130
 592:C:/Users/stapi/OneDrive/Desktop/GD32VW553/V1_MQTT_OK/GD32VW55X_Wifi_BLE_SDK/GD32VW55x_RELEASE_V1.0.2/MSDK/wpa_supplicant/src/ap\hw_features.c **** 			   "HT capability [SHORT-GI-20]");
 1316              		.loc 1 592 3 is_stmt 1
 1317 00c4 B7050000 		lui	a1,%hi(.LC25)
 1318 00c8 93850500 		addi	a1,a1,%lo(.LC25)
 1319 00cc 75B7     		j	.L171
 1320              	.L130:
 597:C:/Users/stapi/OneDrive/Desktop/GD32VW553/V1_MQTT_OK/GD32VW55X_Wifi_BLE_SDK/GD32VW55x_RELEASE_V1.0.2/MSDK/wpa_supplicant/src/ap\hw_features.c **** 	    !(hw & HT_CAP_INFO_SHORT_GI40MHZ)) {
 1321              		.loc 1 597 2
 597:C:/Users/stapi/OneDrive/Desktop/GD32VW553/V1_MQTT_OK/GD32VW55X_Wifi_BLE_SDK/GD32VW55x_RELEASE_V1.0.2/MSDK/wpa_supplicant/src/ap\hw_features.c **** 	    !(hw & HT_CAP_INFO_SHORT_GI40MHZ)) {
 1322              		.loc 1 597 5 is_stmt 0
 1323 00ce 93760704 		andi	a3,a4,64
 1324 00d2 89CA     		beq	a3,zero,.L131
 597:C:/Users/stapi/OneDrive/Desktop/GD32VW553/V1_MQTT_OK/GD32VW55X_Wifi_BLE_SDK/GD32VW55x_RELEASE_V1.0.2/MSDK/wpa_supplicant/src/ap\hw_features.c **** 	    !(hw & HT_CAP_INFO_SHORT_GI40MHZ)) {
 1325              		.loc 1 597 41
 1326 00d4 93F60704 		andi	a3,a5,64
 1327 00d8 91E6     		bne	a3,zero,.L131
 599:C:/Users/stapi/OneDrive/Desktop/GD32VW553/V1_MQTT_OK/GD32VW55X_Wifi_BLE_SDK/GD32VW55x_RELEASE_V1.0.2/MSDK/wpa_supplicant/src/ap\hw_features.c **** 			   "HT capability [SHORT-GI-40]");
 1328              		.loc 1 599 3 is_stmt 1
 1329 00da B7050000 		lui	a1,%hi(.LC26)
 1330 00de 93850500 		addi	a1,a1,%lo(.LC26)
 1331 00e2 59BF     		j	.L171
 1332              	.L131:
 604:C:/Users/stapi/OneDrive/Desktop/GD32VW553/V1_MQTT_OK/GD32VW55X_Wifi_BLE_SDK/GD32VW55x_RELEASE_V1.0.2/MSDK/wpa_supplicant/src/ap\hw_features.c **** 		wpa_printf(MSG_ERROR, "Driver does not support configured "
 1333              		.loc 1 604 2
 604:C:/Users/stapi/OneDrive/Desktop/GD32VW553/V1_MQTT_OK/GD32VW55X_Wifi_BLE_SDK/GD32VW55x_RELEASE_V1.0.2/MSDK/wpa_supplicant/src/ap\hw_features.c **** 		wpa_printf(MSG_ERROR, "Driver does not support configured "
 1334              		.loc 1 604 5 is_stmt 0
 1335 00e4 93760708 		andi	a3,a4,128
 1336 00e8 89CA     		beq	a3,zero,.L132
 604:C:/Users/stapi/OneDrive/Desktop/GD32VW553/V1_MQTT_OK/GD32VW55X_Wifi_BLE_SDK/GD32VW55x_RELEASE_V1.0.2/MSDK/wpa_supplicant/src/ap\hw_features.c **** 		wpa_printf(MSG_ERROR, "Driver does not support configured "
 1337              		.loc 1 604 35
 1338 00ea 93F60708 		andi	a3,a5,128
 1339 00ee 91E6     		bne	a3,zero,.L132
 605:C:/Users/stapi/OneDrive/Desktop/GD32VW553/V1_MQTT_OK/GD32VW55X_Wifi_BLE_SDK/GD32VW55x_RELEASE_V1.0.2/MSDK/wpa_supplicant/src/ap\hw_features.c **** 			   "HT capability [TX-STBC]");
 1340              		.loc 1 605 3 is_stmt 1
 1341 00f0 B7050000 		lui	a1,%hi(.LC27)
 1342 00f4 93850500 		addi	a1,a1,%lo(.LC27)
 1343 00f8 41B7     		j	.L171
 1344              	.L132:
 610:C:/Users/stapi/OneDrive/Desktop/GD32VW553/V1_MQTT_OK/GD32VW55X_Wifi_BLE_SDK/GD32VW55x_RELEASE_V1.0.2/MSDK/wpa_supplicant/src/ap\hw_features.c **** 	    (hw & HT_CAP_INFO_RX_STBC_MASK)) {
 1345              		.loc 1 610 2
 610:C:/Users/stapi/OneDrive/Desktop/GD32VW553/V1_MQTT_OK/GD32VW55X_Wifi_BLE_SDK/GD32VW55x_RELEASE_V1.0.2/MSDK/wpa_supplicant/src/ap\hw_features.c **** 	    (hw & HT_CAP_INFO_RX_STBC_MASK)) {
 1346              		.loc 1 610 5 is_stmt 0
 1347 00fa 93760730 		andi	a3,a4,768
 1348 00fe 13F60730 		andi	a2,a5,768
 1349 0102 6377D600 		bleu	a3,a2,.L133
 612:C:/Users/stapi/OneDrive/Desktop/GD32VW553/V1_MQTT_OK/GD32VW55X_Wifi_BLE_SDK/GD32VW55x_RELEASE_V1.0.2/MSDK/wpa_supplicant/src/ap\hw_features.c **** 			   "HT capability [RX-STBC*]");
 1350              		.loc 1 612 3 is_stmt 1
 1351 0106 B7050000 		lui	a1,%hi(.LC28)
 1352 010a 93850500 		addi	a1,a1,%lo(.LC28)
 1353 010e ADB7     		j	.L171
 1354              	.L133:
 617:C:/Users/stapi/OneDrive/Desktop/GD32VW553/V1_MQTT_OK/GD32VW55X_Wifi_BLE_SDK/GD32VW55x_RELEASE_V1.0.2/MSDK/wpa_supplicant/src/ap\hw_features.c **** 	    !(hw & HT_CAP_INFO_DELAYED_BA)) {
 1355              		.loc 1 617 2
 617:C:/Users/stapi/OneDrive/Desktop/GD32VW553/V1_MQTT_OK/GD32VW55X_Wifi_BLE_SDK/GD32VW55x_RELEASE_V1.0.2/MSDK/wpa_supplicant/src/ap\hw_features.c **** 	    !(hw & HT_CAP_INFO_DELAYED_BA)) {
 1356              		.loc 1 617 5 is_stmt 0
 1357 0110 93760740 		andi	a3,a4,1024
 1358 0114 89CA     		beq	a3,zero,.L134
 617:C:/Users/stapi/OneDrive/Desktop/GD32VW553/V1_MQTT_OK/GD32VW55X_Wifi_BLE_SDK/GD32VW55x_RELEASE_V1.0.2/MSDK/wpa_supplicant/src/ap\hw_features.c **** 	    !(hw & HT_CAP_INFO_DELAYED_BA)) {
 1359              		.loc 1 617 38
 1360 0116 93F60740 		andi	a3,a5,1024
 1361 011a 91E6     		bne	a3,zero,.L134
 619:C:/Users/stapi/OneDrive/Desktop/GD32VW553/V1_MQTT_OK/GD32VW55X_Wifi_BLE_SDK/GD32VW55x_RELEASE_V1.0.2/MSDK/wpa_supplicant/src/ap\hw_features.c **** 			   "HT capability [DELAYED-BA]");
 1362              		.loc 1 619 3 is_stmt 1
 1363 011c B7050000 		lui	a1,%hi(.LC29)
 1364 0120 93850500 		addi	a1,a1,%lo(.LC29)
 1365 0124 91BF     		j	.L171
 1366              	.L134:
 624:C:/Users/stapi/OneDrive/Desktop/GD32VW553/V1_MQTT_OK/GD32VW55X_Wifi_BLE_SDK/GD32VW55x_RELEASE_V1.0.2/MSDK/wpa_supplicant/src/ap\hw_features.c **** 	    !(hw & HT_CAP_INFO_MAX_AMSDU_SIZE)) {
 1367              		.loc 1 624 2
 624:C:/Users/stapi/OneDrive/Desktop/GD32VW553/V1_MQTT_OK/GD32VW55X_Wifi_BLE_SDK/GD32VW55x_RELEASE_V1.0.2/MSDK/wpa_supplicant/src/ap\hw_features.c **** 	    !(hw & HT_CAP_INFO_MAX_AMSDU_SIZE)) {
 1368              		.loc 1 624 5 is_stmt 0
 1369 0126 8566     		li	a3,4096
 1370 0128 93860680 		addi	a3,a3,-2048
 1371 012c 3376D700 		and	a2,a4,a3
 1372 0130 01CA     		beq	a2,zero,.L135
 624:C:/Users/stapi/OneDrive/Desktop/GD32VW553/V1_MQTT_OK/GD32VW55X_Wifi_BLE_SDK/GD32VW55x_RELEASE_V1.0.2/MSDK/wpa_supplicant/src/ap\hw_features.c **** 	    !(hw & HT_CAP_INFO_MAX_AMSDU_SIZE)) {
 1373              		.loc 1 624 42
 1374 0132 FD8E     		and	a3,a5,a3
 1375 0134 91E6     		bne	a3,zero,.L135
 626:C:/Users/stapi/OneDrive/Desktop/GD32VW553/V1_MQTT_OK/GD32VW55X_Wifi_BLE_SDK/GD32VW55x_RELEASE_V1.0.2/MSDK/wpa_supplicant/src/ap\hw_features.c **** 			   "HT capability [MAX-AMSDU-7935]");
 1376              		.loc 1 626 3 is_stmt 1
 1377 0136 B7050000 		lui	a1,%hi(.LC30)
 1378 013a 93850500 		addi	a1,a1,%lo(.LC30)
 1379 013e 2DBF     		j	.L171
 1380              	.L135:
 631:C:/Users/stapi/OneDrive/Desktop/GD32VW553/V1_MQTT_OK/GD32VW55X_Wifi_BLE_SDK/GD32VW55x_RELEASE_V1.0.2/MSDK/wpa_supplicant/src/ap\hw_features.c **** 	    !(hw & HT_CAP_INFO_DSSS_CCK40MHZ)) {
 1381              		.loc 1 631 2
 631:C:/Users/stapi/OneDrive/Desktop/GD32VW553/V1_MQTT_OK/GD32VW55X_Wifi_BLE_SDK/GD32VW55x_RELEASE_V1.0.2/MSDK/wpa_supplicant/src/ap\hw_features.c **** 	    !(hw & HT_CAP_INFO_DSSS_CCK40MHZ)) {
 1382              		.loc 1 631 5 is_stmt 0
 1383 0140 8566     		li	a3,4096
 1384 0142 3376D700 		and	a2,a4,a3
 1385 0146 01CA     		beq	a2,zero,.L136
 631:C:/Users/stapi/OneDrive/Desktop/GD32VW553/V1_MQTT_OK/GD32VW55X_Wifi_BLE_SDK/GD32VW55x_RELEASE_V1.0.2/MSDK/wpa_supplicant/src/ap\hw_features.c **** 	    !(hw & HT_CAP_INFO_DSSS_CCK40MHZ)) {
 1386              		.loc 1 631 41
 1387 0148 FD8E     		and	a3,a5,a3
 1388 014a 91E6     		bne	a3,zero,.L136
 633:C:/Users/stapi/OneDrive/Desktop/GD32VW553/V1_MQTT_OK/GD32VW55X_Wifi_BLE_SDK/GD32VW55x_RELEASE_V1.0.2/MSDK/wpa_supplicant/src/ap\hw_features.c **** 			   "HT capability [DSSS_CCK-40]");
 1389              		.loc 1 633 3 is_stmt 1
 1390 014c B7050000 		lui	a1,%hi(.LC31)
 1391 0150 93850500 		addi	a1,a1,%lo(.LC31)
 1392 0154 15B7     		j	.L171
 1393              	.L136:
 638:C:/Users/stapi/OneDrive/Desktop/GD32VW553/V1_MQTT_OK/GD32VW55X_Wifi_BLE_SDK/GD32VW55x_RELEASE_V1.0.2/MSDK/wpa_supplicant/src/ap\hw_features.c **** 	    !(hw & HT_CAP_INFO_LSIG_TXOP_PROTECT_SUPPORT)) {
 1394              		.loc 1 638 2
 638:C:/Users/stapi/OneDrive/Desktop/GD32VW553/V1_MQTT_OK/GD32VW55X_Wifi_BLE_SDK/GD32VW55x_RELEASE_V1.0.2/MSDK/wpa_supplicant/src/ap\hw_features.c **** 	    !(hw & HT_CAP_INFO_LSIG_TXOP_PROTECT_SUPPORT)) {
 1395              		.loc 1 638 5 is_stmt 0
 1396 0156 13175760 		sext.h	a4,a4
 1397 015a E35907EA 		bge	a4,zero,.L137
 638:C:/Users/stapi/OneDrive/Desktop/GD32VW553/V1_MQTT_OK/GD32VW55X_Wifi_BLE_SDK/GD32VW55x_RELEASE_V1.0.2/MSDK/wpa_supplicant/src/ap\hw_features.c **** 	    !(hw & HT_CAP_INFO_LSIG_TXOP_PROTECT_SUPPORT)) {
 1398              		.loc 1 638 53
 1399 015e 93975760 		sext.h	a5,a5
 1400 0162 E3C507EA 		blt	a5,zero,.L137
 640:C:/Users/stapi/OneDrive/Desktop/GD32VW553/V1_MQTT_OK/GD32VW55X_Wifi_BLE_SDK/GD32VW55x_RELEASE_V1.0.2/MSDK/wpa_supplicant/src/ap\hw_features.c **** 			   "HT capability [LSIG-TXOP-PROT]");
 1401              		.loc 1 640 3 is_stmt 1
 1402 0166 B7050000 		lui	a1,%hi(.LC32)
 1403 016a 93850500 		addi	a1,a1,%lo(.LC32)
 1404 016e 29B7     		j	.L171
 1405              	.LBE112:
 1406              	.LBE113:
 1407              	.LBE109:
 1408              	.LBE108:
 1409              		.cfi_endproc
 1410              	.LFE180:
 1412              		.section	.rodata.hostapd_check_edmg_capab.str1.4,"aMS",@progbits,1
 1413              		.align	2
 1414              	.LC33:
 1415 0000 52657175 		.string	"Requested EDMG configuration is not valid"
 1415      65737465 
 1415      64204544 
 1415      4D472063 
 1415      6F6E6669 
 1416 002a 0000     		.align	2
 1417              	.LC34:
 1418 002c 45444D47 		.string	"EDMG capab: channels 0x%x, bw_config %d"
 1418      20636170 
 1418      61623A20 
 1418      6368616E 
 1418      6E656C73 
 1419              		.align	2
 1420              	.LC35:
 1421 0054 52657175 		.string	"Requested EDMG configuration: channels 0x%x, bw_config %d"
 1421      65737465 
 1421      64204544 
 1421      4D472063 
 1421      6F6E6669 
 1422              		.section	.text.hostapd_check_edmg_capab,"ax",@progbits
 1423              		.align	1
 1424              		.globl	hostapd_check_edmg_capab
 1426              	hostapd_check_edmg_capab:
 1427              	.LFB181:
 734:C:/Users/stapi/OneDrive/Desktop/GD32VW553/V1_MQTT_OK/GD32VW55X_Wifi_BLE_SDK/GD32VW55x_RELEASE_V1.0.2/MSDK/wpa_supplicant/src/ap\hw_features.c **** 	struct hostapd_hw_modes *mode = iface->hw_features;
 1428              		.loc 1 734 1
 1429              		.cfi_startproc
 1430              	.LVL106:
 735:C:/Users/stapi/OneDrive/Desktop/GD32VW553/V1_MQTT_OK/GD32VW55X_Wifi_BLE_SDK/GD32VW55x_RELEASE_V1.0.2/MSDK/wpa_supplicant/src/ap\hw_features.c **** 	struct ieee80211_edmg_config edmg = {0};
 1431              		.loc 1 735 2
 736:C:/Users/stapi/OneDrive/Desktop/GD32VW553/V1_MQTT_OK/GD32VW55X_Wifi_BLE_SDK/GD32VW55x_RELEASE_V1.0.2/MSDK/wpa_supplicant/src/ap\hw_features.c **** 
 1432              		.loc 1 736 2
 738:C:/Users/stapi/OneDrive/Desktop/GD32VW553/V1_MQTT_OK/GD32VW55X_Wifi_BLE_SDK/GD32VW55x_RELEASE_V1.0.2/MSDK/wpa_supplicant/src/ap\hw_features.c **** 		return 0;
 1433              		.loc 1 738 2
 738:C:/Users/stapi/OneDrive/Desktop/GD32VW553/V1_MQTT_OK/GD32VW55X_Wifi_BLE_SDK/GD32VW55x_RELEASE_V1.0.2/MSDK/wpa_supplicant/src/ap\hw_features.c **** 		return 0;
 1434              		.loc 1 738 18 is_stmt 0
 1435 0000 5845     		lw	a4,12(a0)
 734:C:/Users/stapi/OneDrive/Desktop/GD32VW553/V1_MQTT_OK/GD32VW55X_Wifi_BLE_SDK/GD32VW55x_RELEASE_V1.0.2/MSDK/wpa_supplicant/src/ap\hw_features.c **** 	struct hostapd_hw_modes *mode = iface->hw_features;
 1436              		.loc 1 734 1
 1437 0002 AA87     		mv	a5,a0
 738:C:/Users/stapi/OneDrive/Desktop/GD32VW553/V1_MQTT_OK/GD32VW55X_Wifi_BLE_SDK/GD32VW55x_RELEASE_V1.0.2/MSDK/wpa_supplicant/src/ap\hw_features.c **** 		return 0;
 1438              		.loc 1 738 18
 1439 0004 484F     		lw	a0,28(a4)
 1440              	.LVL107:
 738:C:/Users/stapi/OneDrive/Desktop/GD32VW553/V1_MQTT_OK/GD32VW55X_Wifi_BLE_SDK/GD32VW55x_RELEASE_V1.0.2/MSDK/wpa_supplicant/src/ap\hw_features.c **** 		return 0;
 1441              		.loc 1 738 5
 1442 0006 29CD     		beq	a0,zero,.L178
 734:C:/Users/stapi/OneDrive/Desktop/GD32VW553/V1_MQTT_OK/GD32VW55X_Wifi_BLE_SDK/GD32VW55x_RELEASE_V1.0.2/MSDK/wpa_supplicant/src/ap\hw_features.c **** 	struct hostapd_hw_modes *mode = iface->hw_features;
 1443              		.loc 1 734 1
 1444 0008 17030000 		call	t0,__riscv_save_1
 1444      E7020300 
 1445              		.cfi_offset 8, -8
 1446              		.cfi_offset 1, -4
 1447              		.cfi_def_cfa_offset 16
 735:C:/Users/stapi/OneDrive/Desktop/GD32VW553/V1_MQTT_OK/GD32VW55X_Wifi_BLE_SDK/GD32VW55x_RELEASE_V1.0.2/MSDK/wpa_supplicant/src/ap\hw_features.c **** 	struct ieee80211_edmg_config edmg = {0};
 1448              		.loc 1 735 27
 1449 0010 03A4C745 		lw	s0,1116(a5)
 751:C:/Users/stapi/OneDrive/Desktop/GD32VW553/V1_MQTT_OK/GD32VW55X_Wifi_BLE_SDK/GD32VW55x_RELEASE_V1.0.2/MSDK/wpa_supplicant/src/ap\hw_features.c **** 	wpa_printf(MSG_INFO, "EDMG capab: channels 0x%x, bw_config %d",
 1450              		.loc 1 751 2 is_stmt 1
 1451 0014 B7050000 		lui	a1,%hi(.LC33)
 1452 0018 93850500 		addi	a1,a1,%lo(.LC33)
 1453 001c 1145     		li	a0,4
 1454 001e 97000000 		call	wpa_printf
 1454      E7800000 
 1455              	.LVL108:
 752:C:/Users/stapi/OneDrive/Desktop/GD32VW553/V1_MQTT_OK/GD32VW55X_Wifi_BLE_SDK/GD32VW55x_RELEASE_V1.0.2/MSDK/wpa_supplicant/src/ap\hw_features.c **** 		   mode->edmg.channels, mode->edmg.bw_config);
 1456              		.loc 1 752 2
 1457 0026 83268419 		lw	a3,408(s0)
 1458 002a 03464419 		lbu	a2,404(s0)
 1459 002e B7050000 		lui	a1,%hi(.LC34)
 1460 0032 93850500 		addi	a1,a1,%lo(.LC34)
 1461 0036 0D45     		li	a0,3
 1462 0038 97000000 		call	wpa_printf
 1462      E7800000 
 1463              	.LVL109:
 754:C:/Users/stapi/OneDrive/Desktop/GD32VW553/V1_MQTT_OK/GD32VW55X_Wifi_BLE_SDK/GD32VW55x_RELEASE_V1.0.2/MSDK/wpa_supplicant/src/ap\hw_features.c **** 		   "Requested EDMG configuration: channels 0x%x, bw_config %d",
 1464              		.loc 1 754 2
 1465 0040 B7050000 		lui	a1,%hi(.LC35)
 1466 0044 8146     		li	a3,0
 1467 0046 0146     		li	a2,0
 1468 0048 93850500 		addi	a1,a1,%lo(.LC35)
 1469 004c 0D45     		li	a0,3
 1470 004e 97000000 		call	wpa_printf
 1470      E7800000 
 1471              	.LVL110:
 757:C:/Users/stapi/OneDrive/Desktop/GD32VW553/V1_MQTT_OK/GD32VW55X_Wifi_BLE_SDK/GD32VW55x_RELEASE_V1.0.2/MSDK/wpa_supplicant/src/ap\hw_features.c **** }
 1472              		.loc 1 757 2
 757:C:/Users/stapi/OneDrive/Desktop/GD32VW553/V1_MQTT_OK/GD32VW55X_Wifi_BLE_SDK/GD32VW55x_RELEASE_V1.0.2/MSDK/wpa_supplicant/src/ap\hw_features.c **** }
 1473              		.loc 1 757 9 is_stmt 0
 1474 0056 7D55     		li	a0,-1
 1475              	.LVL111:
 758:C:/Users/stapi/OneDrive/Desktop/GD32VW553/V1_MQTT_OK/GD32VW55X_Wifi_BLE_SDK/GD32VW55x_RELEASE_V1.0.2/MSDK/wpa_supplicant/src/ap\hw_features.c **** 
 1476              		.loc 1 758 1
 1477 0058 17030000 		tail	__riscv_restore_1
 1477      67000300 
 1478              		.cfi_restore 8
 1479              		.cfi_restore 1
 1480              		.cfi_def_cfa_offset 0
 1481              	.LVL112:
 1482              	.L178:
 1483 0060 8280     		ret
 1484              		.cfi_endproc
 1485              	.LFE181:
 1487              		.section	.rodata.hostapd_check_he_6ghz_capab.str1.4,"aMS",@progbits,1
 1488              		.align	2
 1489              	.LC36:
 1490 0000 54686520 		.string	"The driver does not support the configured HE 6 GHz Max MPDU length"
 1490      64726976 
 1490      65722064 
 1490      6F657320 
 1490      6E6F7420 
 1491              		.align	2
 1492              	.LC37:
 1493 0044 54686520 		.string	"The driver does not support the configured HE 6 GHz Max AMPDU Length Exponent"
 1493      64726976 
 1493      65722064 
 1493      6F657320 
 1493      6E6F7420 
 1494 0092 0000     		.align	2
 1495              	.LC38:
 1496 0094 54686520 		.string	"The driver does not support the configured HE 6 GHz Rx Antenna Pattern"
 1496      64726976 
 1496      65722064 
 1496      6F657320 
 1496      6E6F7420 
 1497 00db 00       		.align	2
 1498              	.LC39:
 1499 00dc 54686520 		.string	"The driver does not support the configured HE 6 GHz Tx Antenna Pattern"
 1499      64726976 
 1499      65722064 
 1499      6F657320 
 1499      6E6F7420 
 1500              		.section	.text.hostapd_check_he_6ghz_capab,"ax",@progbits
 1501              		.align	1
 1502              		.globl	hostapd_check_he_6ghz_capab
 1504              	hostapd_check_he_6ghz_capab:
 1505              	.LFB182:
 762:C:/Users/stapi/OneDrive/Desktop/GD32VW553/V1_MQTT_OK/GD32VW55X_Wifi_BLE_SDK/GD32VW55x_RELEASE_V1.0.2/MSDK/wpa_supplicant/src/ap\hw_features.c **** #ifdef CONFIG_IEEE80211AX
 1506              		.loc 1 762 1 is_stmt 1
 1507              		.cfi_startproc
 1508              	.LVL113:
 764:C:/Users/stapi/OneDrive/Desktop/GD32VW553/V1_MQTT_OK/GD32VW55X_Wifi_BLE_SDK/GD32VW55x_RELEASE_V1.0.2/MSDK/wpa_supplicant/src/ap\hw_features.c **** 	u16 hw;
 1509              		.loc 1 764 2
 765:C:/Users/stapi/OneDrive/Desktop/GD32VW553/V1_MQTT_OK/GD32VW55X_Wifi_BLE_SDK/GD32VW55x_RELEASE_V1.0.2/MSDK/wpa_supplicant/src/ap\hw_features.c **** 
 1510              		.loc 1 765 2
 767:C:/Users/stapi/OneDrive/Desktop/GD32VW553/V1_MQTT_OK/GD32VW55X_Wifi_BLE_SDK/GD32VW55x_RELEASE_V1.0.2/MSDK/wpa_supplicant/src/ap\hw_features.c **** 		return 0;
 1511              		.loc 1 767 2
 767:C:/Users/stapi/OneDrive/Desktop/GD32VW553/V1_MQTT_OK/GD32VW55X_Wifi_BLE_SDK/GD32VW55x_RELEASE_V1.0.2/MSDK/wpa_supplicant/src/ap\hw_features.c **** 		return 0;
 1512              		.loc 1 767 5 is_stmt 0
 1513 0000 83274546 		lw	a5,1124(a0)
 1514 0004 81EB     		bne	a5,zero,.L182
 768:C:/Users/stapi/OneDrive/Desktop/GD32VW553/V1_MQTT_OK/GD32VW55X_Wifi_BLE_SDK/GD32VW55x_RELEASE_V1.0.2/MSDK/wpa_supplicant/src/ap\hw_features.c **** 
 1515              		.loc 1 768 10
 1516 0006 0145     		li	a0,0
 1517              	.LVL114:
 803:C:/Users/stapi/OneDrive/Desktop/GD32VW553/V1_MQTT_OK/GD32VW55X_Wifi_BLE_SDK/GD32VW55x_RELEASE_V1.0.2/MSDK/wpa_supplicant/src/ap\hw_features.c **** 
 1518              		.loc 1 803 1
 1519 0008 8280     		ret
 1520              	.LVL115:
 1521              	.L184:
 1522              		.cfi_def_cfa_offset 16
 1523              		.cfi_offset 1, -4
 1524              		.cfi_offset 8, -8
 768:C:/Users/stapi/OneDrive/Desktop/GD32VW553/V1_MQTT_OK/GD32VW55X_Wifi_BLE_SDK/GD32VW55x_RELEASE_V1.0.2/MSDK/wpa_supplicant/src/ap\hw_features.c **** 
 1525              		.loc 1 768 10
 1526 000a 0145     		li	a0,0
 1527              	.L181:
 803:C:/Users/stapi/OneDrive/Desktop/GD32VW553/V1_MQTT_OK/GD32VW55X_Wifi_BLE_SDK/GD32VW55x_RELEASE_V1.0.2/MSDK/wpa_supplicant/src/ap\hw_features.c **** 
 1528              		.loc 1 803 1
 1529 000c 17030000 		tail	__riscv_restore_1
 1529      67000300 
 1530              		.cfi_restore 8
 1531              		.cfi_restore 1
 1532              		.cfi_def_cfa_offset 0
 1533              	.LVL116:
 1534              	.L182:
 762:C:/Users/stapi/OneDrive/Desktop/GD32VW553/V1_MQTT_OK/GD32VW55X_Wifi_BLE_SDK/GD32VW55x_RELEASE_V1.0.2/MSDK/wpa_supplicant/src/ap\hw_features.c **** #ifdef CONFIG_IEEE80211AX
 1535              		.loc 1 762 1 discriminator 1
 1536 0014 17030000 		call	t0,__riscv_save_1
 1536      E7020300 
 1537              		.cfi_offset 8, -8
 1538              		.cfi_offset 1, -4
 1539              		.cfi_def_cfa_offset 16
 1540 001c 2A84     		mv	s0,a0
 767:C:/Users/stapi/OneDrive/Desktop/GD32VW553/V1_MQTT_OK/GD32VW55X_Wifi_BLE_SDK/GD32VW55x_RELEASE_V1.0.2/MSDK/wpa_supplicant/src/ap\hw_features.c **** 		return 0;
 1541              		.loc 1 767 31 discriminator 1
 1542 001e 03254547 		lw	a0,1140(a0)
 1543              	.LVL117:
 1544 0022 97000000 		call	is_6ghz_freq
 1544      E7800000 
 1545              	.LVL118:
 767:C:/Users/stapi/OneDrive/Desktop/GD32VW553/V1_MQTT_OK/GD32VW55X_Wifi_BLE_SDK/GD32VW55x_RELEASE_V1.0.2/MSDK/wpa_supplicant/src/ap\hw_features.c **** 		return 0;
 1546              		.loc 1 767 27 discriminator 1
 1547 002a 65D1     		beq	a0,zero,.L184
 770:C:/Users/stapi/OneDrive/Desktop/GD32VW553/V1_MQTT_OK/GD32VW55X_Wifi_BLE_SDK/GD32VW55x_RELEASE_V1.0.2/MSDK/wpa_supplicant/src/ap\hw_features.c **** 	hw = he_cap->he_6ghz_capa;
 1548              		.loc 1 770 2 is_stmt 1
 1549              	.LVL119:
 771:C:/Users/stapi/OneDrive/Desktop/GD32VW553/V1_MQTT_OK/GD32VW55X_Wifi_BLE_SDK/GD32VW55x_RELEASE_V1.0.2/MSDK/wpa_supplicant/src/ap\hw_features.c **** 	if (iface->conf->he_6ghz_max_mpdu >
 1550              		.loc 1 771 2
 771:C:/Users/stapi/OneDrive/Desktop/GD32VW553/V1_MQTT_OK/GD32VW55X_Wifi_BLE_SDK/GD32VW55x_RELEASE_V1.0.2/MSDK/wpa_supplicant/src/ap\hw_features.c **** 	if (iface->conf->he_6ghz_max_mpdu >
 1551              		.loc 1 771 5 is_stmt 0
 1552 002c 83274446 		lw	a5,1124(s0)
 772:C:/Users/stapi/OneDrive/Desktop/GD32VW553/V1_MQTT_OK/GD32VW55X_Wifi_BLE_SDK/GD32VW55x_RELEASE_V1.0.2/MSDK/wpa_supplicant/src/ap\hw_features.c **** 	    ((hw & HE_6GHZ_BAND_CAP_MAX_MPDU_LEN_MASK) >>
 1553              		.loc 1 772 11
 1554 0030 5844     		lw	a4,12(s0)
 771:C:/Users/stapi/OneDrive/Desktop/GD32VW553/V1_MQTT_OK/GD32VW55X_Wifi_BLE_SDK/GD32VW55x_RELEASE_V1.0.2/MSDK/wpa_supplicant/src/ap\hw_features.c **** 	if (iface->conf->he_6ghz_max_mpdu >
 1555              		.loc 1 771 5
 1556 0032 83D7470E 		lhu	a5,228(a5)
 1557              	.LVL120:
 772:C:/Users/stapi/OneDrive/Desktop/GD32VW553/V1_MQTT_OK/GD32VW55X_Wifi_BLE_SDK/GD32VW55x_RELEASE_V1.0.2/MSDK/wpa_supplicant/src/ap\hw_features.c **** 	    ((hw & HE_6GHZ_BAND_CAP_MAX_MPDU_LEN_MASK) >>
 1558              		.loc 1 772 2 is_stmt 1
 772:C:/Users/stapi/OneDrive/Desktop/GD32VW553/V1_MQTT_OK/GD32VW55X_Wifi_BLE_SDK/GD32VW55x_RELEASE_V1.0.2/MSDK/wpa_supplicant/src/ap\hw_features.c **** 	    ((hw & HE_6GHZ_BAND_CAP_MAX_MPDU_LEN_MASK) >>
 1559              		.loc 1 772 17 is_stmt 0
 1560 0036 0346C718 		lbu	a2,396(a4)
 773:C:/Users/stapi/OneDrive/Desktop/GD32VW553/V1_MQTT_OK/GD32VW55X_Wifi_BLE_SDK/GD32VW55x_RELEASE_V1.0.2/MSDK/wpa_supplicant/src/ap\hw_features.c **** 	     HE_6GHZ_BAND_CAP_MAX_MPDU_LEN_SHIFT)) {
 1561              		.loc 1 773 49
 1562 003a 93D66700 		srli	a3,a5,6
 1563 003e 8D8A     		andi	a3,a3,3
 772:C:/Users/stapi/OneDrive/Desktop/GD32VW553/V1_MQTT_OK/GD32VW55X_Wifi_BLE_SDK/GD32VW55x_RELEASE_V1.0.2/MSDK/wpa_supplicant/src/ap\hw_features.c **** 	    ((hw & HE_6GHZ_BAND_CAP_MAX_MPDU_LEN_MASK) >>
 1564              		.loc 1 772 5
 1565 0040 63FDC600 		bleu	a2,a3,.L185
 775:C:/Users/stapi/OneDrive/Desktop/GD32VW553/V1_MQTT_OK/GD32VW55X_Wifi_BLE_SDK/GD32VW55x_RELEASE_V1.0.2/MSDK/wpa_supplicant/src/ap\hw_features.c **** 			   "The driver does not support the configured HE 6 GHz Max MPDU length");
 1566              		.loc 1 775 3 is_stmt 1
 1567 0044 B7050000 		lui	a1,%hi(.LC36)
 1568 0048 93850500 		addi	a1,a1,%lo(.LC36)
 1569              	.LVL121:
 1570              	.L200:
 797:C:/Users/stapi/OneDrive/Desktop/GD32VW553/V1_MQTT_OK/GD32VW55X_Wifi_BLE_SDK/GD32VW55x_RELEASE_V1.0.2/MSDK/wpa_supplicant/src/ap\hw_features.c **** 			   "The driver does not support the configured HE 6 GHz Tx Antenna Pattern");
 1571              		.loc 1 797 3 is_stmt 0
 1572 004c 1545     		li	a0,5
 1573 004e 97000000 		call	wpa_printf
 1573      E7800000 
 1574              	.LVL122:
 799:C:/Users/stapi/OneDrive/Desktop/GD32VW553/V1_MQTT_OK/GD32VW55X_Wifi_BLE_SDK/GD32VW55x_RELEASE_V1.0.2/MSDK/wpa_supplicant/src/ap\hw_features.c **** 	}
 1575              		.loc 1 799 3 is_stmt 1
 799:C:/Users/stapi/OneDrive/Desktop/GD32VW553/V1_MQTT_OK/GD32VW55X_Wifi_BLE_SDK/GD32VW55x_RELEASE_V1.0.2/MSDK/wpa_supplicant/src/ap\hw_features.c **** 	}
 1576              		.loc 1 799 10 is_stmt 0
 1577 0056 7D55     		li	a0,-1
 1578 0058 55BF     		j	.L181
 1579              	.LVL123:
 1580              	.L185:
 780:C:/Users/stapi/OneDrive/Desktop/GD32VW553/V1_MQTT_OK/GD32VW55X_Wifi_BLE_SDK/GD32VW55x_RELEASE_V1.0.2/MSDK/wpa_supplicant/src/ap\hw_features.c **** 	    ((hw & HE_6GHZ_BAND_CAP_MAX_AMPDU_LEN_EXP_MASK) >>
 1581              		.loc 1 780 2 is_stmt 1
 780:C:/Users/stapi/OneDrive/Desktop/GD32VW553/V1_MQTT_OK/GD32VW55X_Wifi_BLE_SDK/GD32VW55x_RELEASE_V1.0.2/MSDK/wpa_supplicant/src/ap\hw_features.c **** 	    ((hw & HE_6GHZ_BAND_CAP_MAX_AMPDU_LEN_EXP_MASK) >>
 1582              		.loc 1 780 17 is_stmt 0
 1583 005a 0346D718 		lbu	a2,397(a4)
 781:C:/Users/stapi/OneDrive/Desktop/GD32VW553/V1_MQTT_OK/GD32VW55X_Wifi_BLE_SDK/GD32VW55x_RELEASE_V1.0.2/MSDK/wpa_supplicant/src/ap\hw_features.c **** 	     HE_6GHZ_BAND_CAP_MAX_AMPDU_LEN_EXP_SHIFT)) {
 1584              		.loc 1 781 54
 1585 005e 93D63700 		srli	a3,a5,3
 1586 0062 9D8A     		andi	a3,a3,7
 780:C:/Users/stapi/OneDrive/Desktop/GD32VW553/V1_MQTT_OK/GD32VW55X_Wifi_BLE_SDK/GD32VW55x_RELEASE_V1.0.2/MSDK/wpa_supplicant/src/ap\hw_features.c **** 	    ((hw & HE_6GHZ_BAND_CAP_MAX_AMPDU_LEN_EXP_MASK) >>
 1587              		.loc 1 780 5
 1588 0064 63F7C600 		bleu	a2,a3,.L186
 783:C:/Users/stapi/OneDrive/Desktop/GD32VW553/V1_MQTT_OK/GD32VW55X_Wifi_BLE_SDK/GD32VW55x_RELEASE_V1.0.2/MSDK/wpa_supplicant/src/ap\hw_features.c **** 			   "The driver does not support the configured HE 6 GHz Max AMPDU Length Exponent");
 1589              		.loc 1 783 3 is_stmt 1
 1590 0068 B7050000 		lui	a1,%hi(.LC37)
 1591 006c 93850500 		addi	a1,a1,%lo(.LC37)
 1592 0070 F1BF     		j	.L200
 1593              	.L186:
 788:C:/Users/stapi/OneDrive/Desktop/GD32VW553/V1_MQTT_OK/GD32VW55X_Wifi_BLE_SDK/GD32VW55x_RELEASE_V1.0.2/MSDK/wpa_supplicant/src/ap\hw_features.c **** 	    !(hw & HE_6GHZ_BAND_CAP_RX_ANTPAT_CONS)) {
 1594              		.loc 1 788 2
 788:C:/Users/stapi/OneDrive/Desktop/GD32VW553/V1_MQTT_OK/GD32VW55X_Wifi_BLE_SDK/GD32VW55x_RELEASE_V1.0.2/MSDK/wpa_supplicant/src/ap\hw_features.c **** 	    !(hw & HE_6GHZ_BAND_CAP_RX_ANTPAT_CONS)) {
 1595              		.loc 1 788 5 is_stmt 0
 1596 0072 8346E718 		lbu	a3,398(a4)
 1597 0076 89CA     		beq	a3,zero,.L187
 788:C:/Users/stapi/OneDrive/Desktop/GD32VW553/V1_MQTT_OK/GD32VW55X_Wifi_BLE_SDK/GD32VW55x_RELEASE_V1.0.2/MSDK/wpa_supplicant/src/ap\hw_features.c **** 	    !(hw & HE_6GHZ_BAND_CAP_RX_ANTPAT_CONS)) {
 1598              		.loc 1 788 38 discriminator 1
 1599 0078 8566     		li	a3,4096
 1600 007a FD8E     		and	a3,a5,a3
 1601 007c 91E6     		bne	a3,zero,.L187
 790:C:/Users/stapi/OneDrive/Desktop/GD32VW553/V1_MQTT_OK/GD32VW55X_Wifi_BLE_SDK/GD32VW55x_RELEASE_V1.0.2/MSDK/wpa_supplicant/src/ap\hw_features.c **** 			   "The driver does not support the configured HE 6 GHz Rx Antenna Pattern");
 1602              		.loc 1 790 3 is_stmt 1
 1603 007e B7050000 		lui	a1,%hi(.LC38)
 1604 0082 93850500 		addi	a1,a1,%lo(.LC38)
 1605 0086 D9B7     		j	.L200
 1606              	.L187:
 795:C:/Users/stapi/OneDrive/Desktop/GD32VW553/V1_MQTT_OK/GD32VW55X_Wifi_BLE_SDK/GD32VW55x_RELEASE_V1.0.2/MSDK/wpa_supplicant/src/ap\hw_features.c **** 	    !(hw & HE_6GHZ_BAND_CAP_TX_ANTPAT_CONS)) {
 1607              		.loc 1 795 2
 795:C:/Users/stapi/OneDrive/Desktop/GD32VW553/V1_MQTT_OK/GD32VW55X_Wifi_BLE_SDK/GD32VW55x_RELEASE_V1.0.2/MSDK/wpa_supplicant/src/ap\hw_features.c **** 	    !(hw & HE_6GHZ_BAND_CAP_TX_ANTPAT_CONS)) {
 1608              		.loc 1 795 5 is_stmt 0
 1609 0088 0347F718 		lbu	a4,399(a4)
 1610 008c 3DDF     		beq	a4,zero,.L184
 795:C:/Users/stapi/OneDrive/Desktop/GD32VW553/V1_MQTT_OK/GD32VW55X_Wifi_BLE_SDK/GD32VW55x_RELEASE_V1.0.2/MSDK/wpa_supplicant/src/ap\hw_features.c **** 	    !(hw & HE_6GHZ_BAND_CAP_TX_ANTPAT_CONS)) {
 1611              		.loc 1 795 38 discriminator 1
 1612 008e 0967     		li	a4,8192
 1613 0090 F98F     		and	a5,a5,a4
 1614              	.LVL124:
 1615 0092 A5FF     		bne	a5,zero,.L184
 797:C:/Users/stapi/OneDrive/Desktop/GD32VW553/V1_MQTT_OK/GD32VW55X_Wifi_BLE_SDK/GD32VW55x_RELEASE_V1.0.2/MSDK/wpa_supplicant/src/ap\hw_features.c **** 			   "The driver does not support the configured HE 6 GHz Tx Antenna Pattern");
 1616              		.loc 1 797 3 is_stmt 1
 1617 0094 B7050000 		lui	a1,%hi(.LC39)
 1618 0098 93850500 		addi	a1,a1,%lo(.LC39)
 1619 009c 45BF     		j	.L200
 1620              		.cfi_endproc
 1621              	.LFE182:
 1623              		.section	.rodata.hostapd_acs_completed.str1.4,"aMS",@progbits,1
 1624              		.align	2
 1625              	.LC40:
 1626 0000 4143532D 		.string	"ACS-COMPLETED freq=%d channel=%d"
 1626      434F4D50 
 1626      4C455445 
 1626      44206672 
 1626      65713D25 
 1627 0021 000000   		.align	2
 1628              	.LC41:
 1629 0024 41435320 		.string	"ACS error - reported complete, but no result available"
 1629      6572726F 
 1629      72202D20 
 1629      7265706F 
 1629      72746564 
 1630 005b 00       		.align	2
 1631              	.LC42:
 1632 005c 4143532D 		.string	"ACS-FAILED "
 1632      4641494C 
 1632      45442000 
 1633              		.align	2
 1634              	.LC43:
 1635 0068 41435320 		.string	"ACS picked unusable channels"
 1635      7069636B 
 1635      65642075 
 1635      6E757361 
 1635      626C6520 
 1636 0085 000000   		.align	2
 1637              	.LC44:
 1638 0088 496E7465 		.string	"Interface initialization will be completed in a callback"
 1638      72666163 
 1638      6520696E 
 1638      69746961 
 1638      6C697A61 
 1639              		.section	.text.hostapd_acs_completed,"ax",@progbits
 1640              		.align	1
 1641              		.globl	hostapd_acs_completed
 1643              	hostapd_acs_completed:
 1644              	.LFB189:
1026:C:/Users/stapi/OneDrive/Desktop/GD32VW553/V1_MQTT_OK/GD32VW55X_Wifi_BLE_SDK/GD32VW55x_RELEASE_V1.0.2/MSDK/wpa_supplicant/src/ap\hw_features.c **** 
1027:C:/Users/stapi/OneDrive/Desktop/GD32VW553/V1_MQTT_OK/GD32VW55X_Wifi_BLE_SDK/GD32VW55x_RELEASE_V1.0.2/MSDK/wpa_supplicant/src/ap\hw_features.c **** 
1028:C:/Users/stapi/OneDrive/Desktop/GD32VW553/V1_MQTT_OK/GD32VW55X_Wifi_BLE_SDK/GD32VW55x_RELEASE_V1.0.2/MSDK/wpa_supplicant/src/ap\hw_features.c **** static void hostapd_notify_bad_chans(struct hostapd_iface *iface)
1029:C:/Users/stapi/OneDrive/Desktop/GD32VW553/V1_MQTT_OK/GD32VW55X_Wifi_BLE_SDK/GD32VW55x_RELEASE_V1.0.2/MSDK/wpa_supplicant/src/ap\hw_features.c **** {
1030:C:/Users/stapi/OneDrive/Desktop/GD32VW553/V1_MQTT_OK/GD32VW55X_Wifi_BLE_SDK/GD32VW55x_RELEASE_V1.0.2/MSDK/wpa_supplicant/src/ap\hw_features.c **** 	if (!iface->current_mode) {
1031:C:/Users/stapi/OneDrive/Desktop/GD32VW553/V1_MQTT_OK/GD32VW55X_Wifi_BLE_SDK/GD32VW55x_RELEASE_V1.0.2/MSDK/wpa_supplicant/src/ap\hw_features.c **** 		hostapd_logger(iface->bss[0], NULL, HOSTAPD_MODULE_IEEE80211,
1032:C:/Users/stapi/OneDrive/Desktop/GD32VW553/V1_MQTT_OK/GD32VW55X_Wifi_BLE_SDK/GD32VW55x_RELEASE_V1.0.2/MSDK/wpa_supplicant/src/ap\hw_features.c **** 			       HOSTAPD_LEVEL_WARNING,
1033:C:/Users/stapi/OneDrive/Desktop/GD32VW553/V1_MQTT_OK/GD32VW55X_Wifi_BLE_SDK/GD32VW55x_RELEASE_V1.0.2/MSDK/wpa_supplicant/src/ap\hw_features.c **** 			       "Hardware does not support configured mode");
1034:C:/Users/stapi/OneDrive/Desktop/GD32VW553/V1_MQTT_OK/GD32VW55X_Wifi_BLE_SDK/GD32VW55x_RELEASE_V1.0.2/MSDK/wpa_supplicant/src/ap\hw_features.c **** 		return;
1035:C:/Users/stapi/OneDrive/Desktop/GD32VW553/V1_MQTT_OK/GD32VW55X_Wifi_BLE_SDK/GD32VW55x_RELEASE_V1.0.2/MSDK/wpa_supplicant/src/ap\hw_features.c **** 	}
1036:C:/Users/stapi/OneDrive/Desktop/GD32VW553/V1_MQTT_OK/GD32VW55X_Wifi_BLE_SDK/GD32VW55x_RELEASE_V1.0.2/MSDK/wpa_supplicant/src/ap\hw_features.c **** 	hostapd_logger(iface->bss[0], NULL,
1037:C:/Users/stapi/OneDrive/Desktop/GD32VW553/V1_MQTT_OK/GD32VW55X_Wifi_BLE_SDK/GD32VW55x_RELEASE_V1.0.2/MSDK/wpa_supplicant/src/ap\hw_features.c **** 		       HOSTAPD_MODULE_IEEE80211,
1038:C:/Users/stapi/OneDrive/Desktop/GD32VW553/V1_MQTT_OK/GD32VW55X_Wifi_BLE_SDK/GD32VW55x_RELEASE_V1.0.2/MSDK/wpa_supplicant/src/ap\hw_features.c **** 		       HOSTAPD_LEVEL_WARNING,
1039:C:/Users/stapi/OneDrive/Desktop/GD32VW553/V1_MQTT_OK/GD32VW55X_Wifi_BLE_SDK/GD32VW55x_RELEASE_V1.0.2/MSDK/wpa_supplicant/src/ap\hw_features.c **** 		       "Configured channel (%d) or frequency (%d) (secondary_channel=%d) not found from the chann
1040:C:/Users/stapi/OneDrive/Desktop/GD32VW553/V1_MQTT_OK/GD32VW55X_Wifi_BLE_SDK/GD32VW55x_RELEASE_V1.0.2/MSDK/wpa_supplicant/src/ap\hw_features.c **** 		       iface->conf->channel,
1041:C:/Users/stapi/OneDrive/Desktop/GD32VW553/V1_MQTT_OK/GD32VW55X_Wifi_BLE_SDK/GD32VW55x_RELEASE_V1.0.2/MSDK/wpa_supplicant/src/ap\hw_features.c **** 		       iface->freq, iface->conf->secondary_channel,
1042:C:/Users/stapi/OneDrive/Desktop/GD32VW553/V1_MQTT_OK/GD32VW55X_Wifi_BLE_SDK/GD32VW55x_RELEASE_V1.0.2/MSDK/wpa_supplicant/src/ap\hw_features.c **** 		       iface->current_mode->mode,
1043:C:/Users/stapi/OneDrive/Desktop/GD32VW553/V1_MQTT_OK/GD32VW55X_Wifi_BLE_SDK/GD32VW55x_RELEASE_V1.0.2/MSDK/wpa_supplicant/src/ap\hw_features.c **** 		       hostapd_hw_mode_txt(iface->current_mode->mode));
1044:C:/Users/stapi/OneDrive/Desktop/GD32VW553/V1_MQTT_OK/GD32VW55X_Wifi_BLE_SDK/GD32VW55x_RELEASE_V1.0.2/MSDK/wpa_supplicant/src/ap\hw_features.c **** 	hostapd_logger(iface->bss[0], NULL, HOSTAPD_MODULE_IEEE80211,
1045:C:/Users/stapi/OneDrive/Desktop/GD32VW553/V1_MQTT_OK/GD32VW55X_Wifi_BLE_SDK/GD32VW55x_RELEASE_V1.0.2/MSDK/wpa_supplicant/src/ap\hw_features.c **** 		       HOSTAPD_LEVEL_WARNING,
1046:C:/Users/stapi/OneDrive/Desktop/GD32VW553/V1_MQTT_OK/GD32VW55X_Wifi_BLE_SDK/GD32VW55x_RELEASE_V1.0.2/MSDK/wpa_supplicant/src/ap\hw_features.c **** 		       "Hardware does not support configured channel");
1047:C:/Users/stapi/OneDrive/Desktop/GD32VW553/V1_MQTT_OK/GD32VW55X_Wifi_BLE_SDK/GD32VW55x_RELEASE_V1.0.2/MSDK/wpa_supplicant/src/ap\hw_features.c **** }
1048:C:/Users/stapi/OneDrive/Desktop/GD32VW553/V1_MQTT_OK/GD32VW55X_Wifi_BLE_SDK/GD32VW55x_RELEASE_V1.0.2/MSDK/wpa_supplicant/src/ap\hw_features.c **** 
1049:C:/Users/stapi/OneDrive/Desktop/GD32VW553/V1_MQTT_OK/GD32VW55X_Wifi_BLE_SDK/GD32VW55x_RELEASE_V1.0.2/MSDK/wpa_supplicant/src/ap\hw_features.c **** 
1050:C:/Users/stapi/OneDrive/Desktop/GD32VW553/V1_MQTT_OK/GD32VW55X_Wifi_BLE_SDK/GD32VW55x_RELEASE_V1.0.2/MSDK/wpa_supplicant/src/ap\hw_features.c **** int hostapd_acs_completed(struct hostapd_iface *iface, int err)
1051:C:/Users/stapi/OneDrive/Desktop/GD32VW553/V1_MQTT_OK/GD32VW55X_Wifi_BLE_SDK/GD32VW55x_RELEASE_V1.0.2/MSDK/wpa_supplicant/src/ap\hw_features.c **** {
 1645              		.loc 1 1051 1
 1646              		.cfi_startproc
 1647              	.LVL125:
 1648 0000 17030000 		call	t0,__riscv_save_3
 1648      E7020300 
 1649              		.cfi_offset 18, -16
 1650              		.cfi_offset 9, -12
 1651              		.cfi_offset 8, -8
 1652              		.cfi_offset 1, -4
 1653              		.cfi_def_cfa_offset 16
1052:C:/Users/stapi/OneDrive/Desktop/GD32VW553/V1_MQTT_OK/GD32VW55X_Wifi_BLE_SDK/GD32VW55x_RELEASE_V1.0.2/MSDK/wpa_supplicant/src/ap\hw_features.c **** 	int ret = -1;
 1654              		.loc 1 1052 2
 1655              	.LVL126:
1053:C:/Users/stapi/OneDrive/Desktop/GD32VW553/V1_MQTT_OK/GD32VW55X_Wifi_BLE_SDK/GD32VW55x_RELEASE_V1.0.2/MSDK/wpa_supplicant/src/ap\hw_features.c **** 
1054:C:/Users/stapi/OneDrive/Desktop/GD32VW553/V1_MQTT_OK/GD32VW55X_Wifi_BLE_SDK/GD32VW55x_RELEASE_V1.0.2/MSDK/wpa_supplicant/src/ap\hw_features.c **** 	if (err)
 1656              		.loc 1 1054 2
1051:C:/Users/stapi/OneDrive/Desktop/GD32VW553/V1_MQTT_OK/GD32VW55X_Wifi_BLE_SDK/GD32VW55x_RELEASE_V1.0.2/MSDK/wpa_supplicant/src/ap\hw_features.c **** 	int ret = -1;
 1657              		.loc 1 1051 1 is_stmt 0
 1658 0008 2A84     		mv	s0,a0
1052:C:/Users/stapi/OneDrive/Desktop/GD32VW553/V1_MQTT_OK/GD32VW55X_Wifi_BLE_SDK/GD32VW55x_RELEASE_V1.0.2/MSDK/wpa_supplicant/src/ap\hw_features.c **** 	int ret = -1;
 1659              		.loc 1 1052 6
 1660 000a FD54     		li	s1,-1
 1661              		.loc 1 1054 5
 1662 000c B1E9     		bne	a1,zero,.L202
1055:C:/Users/stapi/OneDrive/Desktop/GD32VW553/V1_MQTT_OK/GD32VW55X_Wifi_BLE_SDK/GD32VW55x_RELEASE_V1.0.2/MSDK/wpa_supplicant/src/ap\hw_features.c **** 		goto out;
1056:C:/Users/stapi/OneDrive/Desktop/GD32VW553/V1_MQTT_OK/GD32VW55X_Wifi_BLE_SDK/GD32VW55x_RELEASE_V1.0.2/MSDK/wpa_supplicant/src/ap\hw_features.c **** 
1057:C:/Users/stapi/OneDrive/Desktop/GD32VW553/V1_MQTT_OK/GD32VW55X_Wifi_BLE_SDK/GD32VW55x_RELEASE_V1.0.2/MSDK/wpa_supplicant/src/ap\hw_features.c **** 	switch (hostapd_check_chans(iface)) {
 1663              		.loc 1 1057 2 is_stmt 1
 1664              		.loc 1 1057 10 is_stmt 0
 1665 000e 97000000 		call	hostapd_check_chans
 1665      E7800000 
 1666              	.LVL127:
 1667              		.loc 1 1057 2
 1668 0016 19C9     		beq	a0,zero,.L203
 1669 0018 8947     		li	a5,2
 1670 001a 37090000 		lui	s2,%hi(.LC42)
 1671 001e 6308F504 		beq	a0,a5,.L204
1058:C:/Users/stapi/OneDrive/Desktop/GD32VW553/V1_MQTT_OK/GD32VW55X_Wifi_BLE_SDK/GD32VW55x_RELEASE_V1.0.2/MSDK/wpa_supplicant/src/ap\hw_features.c **** 	case HOSTAPD_CHAN_VALID:
1059:C:/Users/stapi/OneDrive/Desktop/GD32VW553/V1_MQTT_OK/GD32VW55X_Wifi_BLE_SDK/GD32VW55x_RELEASE_V1.0.2/MSDK/wpa_supplicant/src/ap\hw_features.c **** 		wpa_msg(iface->bss[0]->msg_ctx, MSG_INFO,
1060:C:/Users/stapi/OneDrive/Desktop/GD32VW553/V1_MQTT_OK/GD32VW55X_Wifi_BLE_SDK/GD32VW55x_RELEASE_V1.0.2/MSDK/wpa_supplicant/src/ap\hw_features.c **** 			ACS_EVENT_COMPLETED "freq=%d channel=%d",
1061:C:/Users/stapi/OneDrive/Desktop/GD32VW553/V1_MQTT_OK/GD32VW55X_Wifi_BLE_SDK/GD32VW55x_RELEASE_V1.0.2/MSDK/wpa_supplicant/src/ap\hw_features.c **** 			iface->freq, iface->conf->channel);
1062:C:/Users/stapi/OneDrive/Desktop/GD32VW553/V1_MQTT_OK/GD32VW55X_Wifi_BLE_SDK/GD32VW55x_RELEASE_V1.0.2/MSDK/wpa_supplicant/src/ap\hw_features.c **** 		break;
1063:C:/Users/stapi/OneDrive/Desktop/GD32VW553/V1_MQTT_OK/GD32VW55X_Wifi_BLE_SDK/GD32VW55x_RELEASE_V1.0.2/MSDK/wpa_supplicant/src/ap\hw_features.c **** 	case HOSTAPD_CHAN_ACS:
1064:C:/Users/stapi/OneDrive/Desktop/GD32VW553/V1_MQTT_OK/GD32VW55X_Wifi_BLE_SDK/GD32VW55x_RELEASE_V1.0.2/MSDK/wpa_supplicant/src/ap\hw_features.c **** 		wpa_printf(MSG_ERROR, "ACS error - reported complete, but no result available");
1065:C:/Users/stapi/OneDrive/Desktop/GD32VW553/V1_MQTT_OK/GD32VW55X_Wifi_BLE_SDK/GD32VW55x_RELEASE_V1.0.2/MSDK/wpa_supplicant/src/ap\hw_features.c **** 		wpa_msg(iface->bss[0]->msg_ctx, MSG_INFO, ACS_EVENT_FAILED);
1066:C:/Users/stapi/OneDrive/Desktop/GD32VW553/V1_MQTT_OK/GD32VW55X_Wifi_BLE_SDK/GD32VW55x_RELEASE_V1.0.2/MSDK/wpa_supplicant/src/ap\hw_features.c **** 		hostapd_notify_bad_chans(iface);
1067:C:/Users/stapi/OneDrive/Desktop/GD32VW553/V1_MQTT_OK/GD32VW55X_Wifi_BLE_SDK/GD32VW55x_RELEASE_V1.0.2/MSDK/wpa_supplicant/src/ap\hw_features.c **** 		goto out;
1068:C:/Users/stapi/OneDrive/Desktop/GD32VW553/V1_MQTT_OK/GD32VW55X_Wifi_BLE_SDK/GD32VW55x_RELEASE_V1.0.2/MSDK/wpa_supplicant/src/ap\hw_features.c **** 	case HOSTAPD_CHAN_INVALID:
1069:C:/Users/stapi/OneDrive/Desktop/GD32VW553/V1_MQTT_OK/GD32VW55X_Wifi_BLE_SDK/GD32VW55x_RELEASE_V1.0.2/MSDK/wpa_supplicant/src/ap\hw_features.c **** 	default:
1070:C:/Users/stapi/OneDrive/Desktop/GD32VW553/V1_MQTT_OK/GD32VW55X_Wifi_BLE_SDK/GD32VW55x_RELEASE_V1.0.2/MSDK/wpa_supplicant/src/ap\hw_features.c **** 		wpa_printf(MSG_ERROR, "ACS picked unusable channels");
 1672              		.loc 1 1070 3 is_stmt 1
 1673 0022 B7050000 		lui	a1,%hi(.LC43)
 1674 0026 93850500 		addi	a1,a1,%lo(.LC43)
 1675 002a B1A0     		j	.L213
 1676              	.L203:
1059:C:/Users/stapi/OneDrive/Desktop/GD32VW553/V1_MQTT_OK/GD32VW55X_Wifi_BLE_SDK/GD32VW55x_RELEASE_V1.0.2/MSDK/wpa_supplicant/src/ap\hw_features.c **** 			ACS_EVENT_COMPLETED "freq=%d channel=%d",
 1677              		.loc 1 1059 3
1059:C:/Users/stapi/OneDrive/Desktop/GD32VW553/V1_MQTT_OK/GD32VW55X_Wifi_BLE_SDK/GD32VW55x_RELEASE_V1.0.2/MSDK/wpa_supplicant/src/ap\hw_features.c **** 			ACS_EVENT_COMPLETED "freq=%d channel=%d",
 1678              		.loc 1 1059 21 is_stmt 0
 1679 002c 1C54     		lw	a5,40(s0)
1061:C:/Users/stapi/OneDrive/Desktop/GD32VW553/V1_MQTT_OK/GD32VW55X_Wifi_BLE_SDK/GD32VW55x_RELEASE_V1.0.2/MSDK/wpa_supplicant/src/ap\hw_features.c **** 		break;
 1680              		.loc 1 1061 28
 1681 002e 5844     		lw	a4,12(s0)
1059:C:/Users/stapi/OneDrive/Desktop/GD32VW553/V1_MQTT_OK/GD32VW55X_Wifi_BLE_SDK/GD32VW55x_RELEASE_V1.0.2/MSDK/wpa_supplicant/src/ap\hw_features.c **** 			ACS_EVENT_COMPLETED "freq=%d channel=%d",
 1682              		.loc 1 1059 3
 1683 0030 83264447 		lw	a3,1140(s0)
 1684 0034 9C43     		lw	a5,0(a5)
 1685 0036 03479701 		lbu	a4,25(a4)
 1686 003a 37060000 		lui	a2,%hi(.LC40)
 1687 003e 03A58752 		lw	a0,1320(a5)
 1688 0042 13060600 		addi	a2,a2,%lo(.LC40)
 1689 0046 8D45     		li	a1,3
 1690 0048 97000000 		call	wpa_msg
 1690      E7800000 
 1691              	.LVL128:
1062:C:/Users/stapi/OneDrive/Desktop/GD32VW553/V1_MQTT_OK/GD32VW55X_Wifi_BLE_SDK/GD32VW55x_RELEASE_V1.0.2/MSDK/wpa_supplicant/src/ap\hw_features.c **** 	case HOSTAPD_CHAN_ACS:
 1692              		.loc 1 1062 3 is_stmt 1
1071:C:/Users/stapi/OneDrive/Desktop/GD32VW553/V1_MQTT_OK/GD32VW55X_Wifi_BLE_SDK/GD32VW55x_RELEASE_V1.0.2/MSDK/wpa_supplicant/src/ap\hw_features.c **** 		wpa_msg(iface->bss[0]->msg_ctx, MSG_INFO, ACS_EVENT_FAILED);
1072:C:/Users/stapi/OneDrive/Desktop/GD32VW553/V1_MQTT_OK/GD32VW55X_Wifi_BLE_SDK/GD32VW55x_RELEASE_V1.0.2/MSDK/wpa_supplicant/src/ap\hw_features.c **** 		hostapd_notify_bad_chans(iface);
1073:C:/Users/stapi/OneDrive/Desktop/GD32VW553/V1_MQTT_OK/GD32VW55X_Wifi_BLE_SDK/GD32VW55x_RELEASE_V1.0.2/MSDK/wpa_supplicant/src/ap\hw_features.c **** 		goto out;
1074:C:/Users/stapi/OneDrive/Desktop/GD32VW553/V1_MQTT_OK/GD32VW55X_Wifi_BLE_SDK/GD32VW55x_RELEASE_V1.0.2/MSDK/wpa_supplicant/src/ap\hw_features.c **** 	}
1075:C:/Users/stapi/OneDrive/Desktop/GD32VW553/V1_MQTT_OK/GD32VW55X_Wifi_BLE_SDK/GD32VW55x_RELEASE_V1.0.2/MSDK/wpa_supplicant/src/ap\hw_features.c **** 
1076:C:/Users/stapi/OneDrive/Desktop/GD32VW553/V1_MQTT_OK/GD32VW55X_Wifi_BLE_SDK/GD32VW55x_RELEASE_V1.0.2/MSDK/wpa_supplicant/src/ap\hw_features.c **** 	ret = hostapd_check_ht_capab(iface);
 1693              		.loc 1 1076 2
 1694              		.loc 1 1076 8 is_stmt 0
 1695 0050 2285     		mv	a0,s0
 1696 0052 97000000 		call	hostapd_check_ht_capab
 1696      E7800000 
 1697              	.LVL129:
 1698 005a AA84     		mv	s1,a0
 1699              	.LVL130:
1077:C:/Users/stapi/OneDrive/Desktop/GD32VW553/V1_MQTT_OK/GD32VW55X_Wifi_BLE_SDK/GD32VW55x_RELEASE_V1.0.2/MSDK/wpa_supplicant/src/ap\hw_features.c **** 	if (ret < 0)
 1700              		.loc 1 1077 2 is_stmt 1
 1701              		.loc 1 1077 5 is_stmt 0
 1702 005c 635E0502 		bge	a0,zero,.L211
 1703              	.LVL131:
 1704              	.L202:
1078:C:/Users/stapi/OneDrive/Desktop/GD32VW553/V1_MQTT_OK/GD32VW55X_Wifi_BLE_SDK/GD32VW55x_RELEASE_V1.0.2/MSDK/wpa_supplicant/src/ap\hw_features.c **** 		goto out;
1079:C:/Users/stapi/OneDrive/Desktop/GD32VW553/V1_MQTT_OK/GD32VW55X_Wifi_BLE_SDK/GD32VW55x_RELEASE_V1.0.2/MSDK/wpa_supplicant/src/ap\hw_features.c **** 	if (ret == 1) {
1080:C:/Users/stapi/OneDrive/Desktop/GD32VW553/V1_MQTT_OK/GD32VW55X_Wifi_BLE_SDK/GD32VW55x_RELEASE_V1.0.2/MSDK/wpa_supplicant/src/ap\hw_features.c **** 		wpa_printf(MSG_DEBUG, "Interface initialization will be completed in a callback");
1081:C:/Users/stapi/OneDrive/Desktop/GD32VW553/V1_MQTT_OK/GD32VW55X_Wifi_BLE_SDK/GD32VW55x_RELEASE_V1.0.2/MSDK/wpa_supplicant/src/ap\hw_features.c **** 		return 0;
1082:C:/Users/stapi/OneDrive/Desktop/GD32VW553/V1_MQTT_OK/GD32VW55X_Wifi_BLE_SDK/GD32VW55x_RELEASE_V1.0.2/MSDK/wpa_supplicant/src/ap\hw_features.c **** 	}
1083:C:/Users/stapi/OneDrive/Desktop/GD32VW553/V1_MQTT_OK/GD32VW55X_Wifi_BLE_SDK/GD32VW55x_RELEASE_V1.0.2/MSDK/wpa_supplicant/src/ap\hw_features.c **** 
1084:C:/Users/stapi/OneDrive/Desktop/GD32VW553/V1_MQTT_OK/GD32VW55X_Wifi_BLE_SDK/GD32VW55x_RELEASE_V1.0.2/MSDK/wpa_supplicant/src/ap\hw_features.c **** 	ret = 0;
1085:C:/Users/stapi/OneDrive/Desktop/GD32VW553/V1_MQTT_OK/GD32VW55X_Wifi_BLE_SDK/GD32VW55x_RELEASE_V1.0.2/MSDK/wpa_supplicant/src/ap\hw_features.c **** out:
1086:C:/Users/stapi/OneDrive/Desktop/GD32VW553/V1_MQTT_OK/GD32VW55X_Wifi_BLE_SDK/GD32VW55x_RELEASE_V1.0.2/MSDK/wpa_supplicant/src/ap\hw_features.c **** 	return hostapd_setup_interface_complete(iface, ret);
 1705              		.loc 1 1086 2 is_stmt 1
 1706              		.loc 1 1086 9 is_stmt 0
 1707 0060 A685     		mv	a1,s1
 1708 0062 2285     		mv	a0,s0
 1709 0064 97000000 		call	hostapd_setup_interface_complete
 1709      E7800000 
 1710              	.LVL132:
 1711 006c 99A0     		j	.L201
 1712              	.LVL133:
 1713              	.L204:
1064:C:/Users/stapi/OneDrive/Desktop/GD32VW553/V1_MQTT_OK/GD32VW55X_Wifi_BLE_SDK/GD32VW55x_RELEASE_V1.0.2/MSDK/wpa_supplicant/src/ap\hw_features.c **** 		wpa_msg(iface->bss[0]->msg_ctx, MSG_INFO, ACS_EVENT_FAILED);
 1714              		.loc 1 1064 3 is_stmt 1
 1715 006e B7050000 		lui	a1,%hi(.LC41)
 1716 0072 93850500 		addi	a1,a1,%lo(.LC41)
 1717              	.L213:
1070:C:/Users/stapi/OneDrive/Desktop/GD32VW553/V1_MQTT_OK/GD32VW55X_Wifi_BLE_SDK/GD32VW55x_RELEASE_V1.0.2/MSDK/wpa_supplicant/src/ap\hw_features.c **** 		wpa_msg(iface->bss[0]->msg_ctx, MSG_INFO, ACS_EVENT_FAILED);
 1718              		.loc 1 1070 3 is_stmt 0
 1719 0076 1545     		li	a0,5
 1720 0078 97000000 		call	wpa_printf
 1720      E7800000 
 1721              	.LVL134:
1071:C:/Users/stapi/OneDrive/Desktop/GD32VW553/V1_MQTT_OK/GD32VW55X_Wifi_BLE_SDK/GD32VW55x_RELEASE_V1.0.2/MSDK/wpa_supplicant/src/ap\hw_features.c **** 		hostapd_notify_bad_chans(iface);
 1722              		.loc 1 1071 3 is_stmt 1
1071:C:/Users/stapi/OneDrive/Desktop/GD32VW553/V1_MQTT_OK/GD32VW55X_Wifi_BLE_SDK/GD32VW55x_RELEASE_V1.0.2/MSDK/wpa_supplicant/src/ap\hw_features.c **** 		hostapd_notify_bad_chans(iface);
 1723              		.loc 1 1071 21 is_stmt 0
 1724 0080 1C54     		lw	a5,40(s0)
1071:C:/Users/stapi/OneDrive/Desktop/GD32VW553/V1_MQTT_OK/GD32VW55X_Wifi_BLE_SDK/GD32VW55x_RELEASE_V1.0.2/MSDK/wpa_supplicant/src/ap\hw_features.c **** 		hostapd_notify_bad_chans(iface);
 1725              		.loc 1 1071 3
 1726 0082 13060900 		addi	a2,s2,%lo(.LC42)
 1727 0086 8D45     		li	a1,3
 1728 0088 9C43     		lw	a5,0(a5)
 1729 008a 03A58752 		lw	a0,1320(a5)
 1730 008e 97000000 		call	wpa_msg
 1730      E7800000 
 1731              	.LVL135:
1072:C:/Users/stapi/OneDrive/Desktop/GD32VW553/V1_MQTT_OK/GD32VW55X_Wifi_BLE_SDK/GD32VW55x_RELEASE_V1.0.2/MSDK/wpa_supplicant/src/ap\hw_features.c **** 		goto out;
 1732              		.loc 1 1072 3 is_stmt 1
1030:C:/Users/stapi/OneDrive/Desktop/GD32VW553/V1_MQTT_OK/GD32VW55X_Wifi_BLE_SDK/GD32VW55x_RELEASE_V1.0.2/MSDK/wpa_supplicant/src/ap\hw_features.c **** 		hostapd_logger(iface->bss[0], NULL, HOSTAPD_MODULE_IEEE80211,
 1733              		.loc 1 1030 2
1036:C:/Users/stapi/OneDrive/Desktop/GD32VW553/V1_MQTT_OK/GD32VW55X_Wifi_BLE_SDK/GD32VW55x_RELEASE_V1.0.2/MSDK/wpa_supplicant/src/ap\hw_features.c **** 		       HOSTAPD_MODULE_IEEE80211,
 1734              		.loc 1 1036 2
1036:C:/Users/stapi/OneDrive/Desktop/GD32VW553/V1_MQTT_OK/GD32VW55X_Wifi_BLE_SDK/GD32VW55x_RELEASE_V1.0.2/MSDK/wpa_supplicant/src/ap\hw_features.c **** 		       HOSTAPD_MODULE_IEEE80211,
 1735              		.loc 1 1036 2
1036:C:/Users/stapi/OneDrive/Desktop/GD32VW553/V1_MQTT_OK/GD32VW55X_Wifi_BLE_SDK/GD32VW55x_RELEASE_V1.0.2/MSDK/wpa_supplicant/src/ap\hw_features.c **** 		       HOSTAPD_MODULE_IEEE80211,
 1736              		.loc 1 1036 2
1044:C:/Users/stapi/OneDrive/Desktop/GD32VW553/V1_MQTT_OK/GD32VW55X_Wifi_BLE_SDK/GD32VW55x_RELEASE_V1.0.2/MSDK/wpa_supplicant/src/ap\hw_features.c **** 		       HOSTAPD_LEVEL_WARNING,
 1737              		.loc 1 1044 2
1044:C:/Users/stapi/OneDrive/Desktop/GD32VW553/V1_MQTT_OK/GD32VW55X_Wifi_BLE_SDK/GD32VW55x_RELEASE_V1.0.2/MSDK/wpa_supplicant/src/ap\hw_features.c **** 		       HOSTAPD_LEVEL_WARNING,
 1738              		.loc 1 1044 2
1044:C:/Users/stapi/OneDrive/Desktop/GD32VW553/V1_MQTT_OK/GD32VW55X_Wifi_BLE_SDK/GD32VW55x_RELEASE_V1.0.2/MSDK/wpa_supplicant/src/ap\hw_features.c **** 		       HOSTAPD_LEVEL_WARNING,
 1739              		.loc 1 1044 2
1073:C:/Users/stapi/OneDrive/Desktop/GD32VW553/V1_MQTT_OK/GD32VW55X_Wifi_BLE_SDK/GD32VW55x_RELEASE_V1.0.2/MSDK/wpa_supplicant/src/ap\hw_features.c **** 	}
 1740              		.loc 1 1073 3
 1741 0096 E9B7     		j	.L202
 1742              	.LVL136:
 1743              	.L211:
1079:C:/Users/stapi/OneDrive/Desktop/GD32VW553/V1_MQTT_OK/GD32VW55X_Wifi_BLE_SDK/GD32VW55x_RELEASE_V1.0.2/MSDK/wpa_supplicant/src/ap\hw_features.c **** 		wpa_printf(MSG_DEBUG, "Interface initialization will be completed in a callback");
 1744              		.loc 1 1079 2
1079:C:/Users/stapi/OneDrive/Desktop/GD32VW553/V1_MQTT_OK/GD32VW55X_Wifi_BLE_SDK/GD32VW55x_RELEASE_V1.0.2/MSDK/wpa_supplicant/src/ap\hw_features.c **** 		wpa_printf(MSG_DEBUG, "Interface initialization will be completed in a callback");
 1745              		.loc 1 1079 5 is_stmt 0
 1746 0098 8547     		li	a5,1
 1747 009a 6310F502 		bne	a0,a5,.L209
1080:C:/Users/stapi/OneDrive/Desktop/GD32VW553/V1_MQTT_OK/GD32VW55X_Wifi_BLE_SDK/GD32VW55x_RELEASE_V1.0.2/MSDK/wpa_supplicant/src/ap\hw_features.c **** 		return 0;
 1748              		.loc 1 1080 3 is_stmt 1
 1749 009e B7050000 		lui	a1,%hi(.LC44)
 1750 00a2 0945     		li	a0,2
 1751 00a4 93850500 		addi	a1,a1,%lo(.LC44)
 1752 00a8 97000000 		call	wpa_printf
 1752      E7800000 
 1753              	.LVL137:
1081:C:/Users/stapi/OneDrive/Desktop/GD32VW553/V1_MQTT_OK/GD32VW55X_Wifi_BLE_SDK/GD32VW55x_RELEASE_V1.0.2/MSDK/wpa_supplicant/src/ap\hw_features.c **** 	}
 1754              		.loc 1 1081 3
1081:C:/Users/stapi/OneDrive/Desktop/GD32VW553/V1_MQTT_OK/GD32VW55X_Wifi_BLE_SDK/GD32VW55x_RELEASE_V1.0.2/MSDK/wpa_supplicant/src/ap\hw_features.c **** 	}
 1755              		.loc 1 1081 10 is_stmt 0
 1756 00b0 0145     		li	a0,0
 1757              	.L201:
1087:C:/Users/stapi/OneDrive/Desktop/GD32VW553/V1_MQTT_OK/GD32VW55X_Wifi_BLE_SDK/GD32VW55x_RELEASE_V1.0.2/MSDK/wpa_supplicant/src/ap\hw_features.c **** }
 1758              		.loc 1 1087 1
 1759 00b2 17030000 		tail	__riscv_restore_3
 1759      67000300 
 1760              		.cfi_remember_state
 1761              		.cfi_restore 18
 1762              		.cfi_restore 9
 1763              		.cfi_restore 8
 1764              		.cfi_restore 1
 1765              		.cfi_def_cfa_offset 0
 1766              	.L209:
 1767              		.cfi_restore_state
1084:C:/Users/stapi/OneDrive/Desktop/GD32VW553/V1_MQTT_OK/GD32VW55X_Wifi_BLE_SDK/GD32VW55x_RELEASE_V1.0.2/MSDK/wpa_supplicant/src/ap\hw_features.c **** out:
 1768              		.loc 1 1084 6
 1769 00ba 8144     		li	s1,0
 1770              	.LVL138:
 1771 00bc 55B7     		j	.L202
 1772              		.cfi_endproc
 1773              	.LFE189:
 1775              		.section	.rodata.hostapd_select_hw_mode.str1.4,"aMS",@progbits,1
 1776              		.align	2
 1777              	.LC45:
 1778 0000 44697361 		.string	"Disable OFDM/HT/VHT/HE on channel 14"
 1778      626C6520 
 1778      4F46444D 
 1778      2F48542F 
 1778      5648542F 
 1779 0025 000000   		.align	2
 1780              	.LC46:
 1781 0028 5573696E 		.string	"Using offloaded hw_mode=any ACS"
 1781      67206F66 
 1781      666C6F61 
 1781      64656420 
 1781      68775F6D 
 1782              		.align	2
 1783              	.LC47:
 1784 0048 5573696E 		.string	"Using internal ACS for hw_mode=any"
 1784      6720696E 
 1784      7465726E 
 1784      616C2041 
 1784      43532066 
 1785 006b 00       		.align	2
 1786              	.LC48:
 1787 006c 48617264 		.string	"Hardware does not support configured mode"
 1787      77617265 
 1787      20646F65 
 1787      73206E6F 
 1787      74207375 
 1788              		.section	.text.hostapd_select_hw_mode,"ax",@progbits
 1789              		.align	1
 1790              		.globl	hostapd_select_hw_mode
 1792              	hostapd_select_hw_mode:
 1793              	.LFB190:
1088:C:/Users/stapi/OneDrive/Desktop/GD32VW553/V1_MQTT_OK/GD32VW55X_Wifi_BLE_SDK/GD32VW55x_RELEASE_V1.0.2/MSDK/wpa_supplicant/src/ap\hw_features.c **** 
1089:C:/Users/stapi/OneDrive/Desktop/GD32VW553/V1_MQTT_OK/GD32VW55X_Wifi_BLE_SDK/GD32VW55x_RELEASE_V1.0.2/MSDK/wpa_supplicant/src/ap\hw_features.c **** 
1090:C:/Users/stapi/OneDrive/Desktop/GD32VW553/V1_MQTT_OK/GD32VW55X_Wifi_BLE_SDK/GD32VW55x_RELEASE_V1.0.2/MSDK/wpa_supplicant/src/ap\hw_features.c **** /**
1091:C:/Users/stapi/OneDrive/Desktop/GD32VW553/V1_MQTT_OK/GD32VW55X_Wifi_BLE_SDK/GD32VW55x_RELEASE_V1.0.2/MSDK/wpa_supplicant/src/ap\hw_features.c ****  * hostapd_select_hw_mode - Select the hardware mode
1092:C:/Users/stapi/OneDrive/Desktop/GD32VW553/V1_MQTT_OK/GD32VW55X_Wifi_BLE_SDK/GD32VW55x_RELEASE_V1.0.2/MSDK/wpa_supplicant/src/ap\hw_features.c ****  * @iface: Pointer to interface data.
1093:C:/Users/stapi/OneDrive/Desktop/GD32VW553/V1_MQTT_OK/GD32VW55X_Wifi_BLE_SDK/GD32VW55x_RELEASE_V1.0.2/MSDK/wpa_supplicant/src/ap\hw_features.c ****  * Returns: 0 on success, < 0 on failure
1094:C:/Users/stapi/OneDrive/Desktop/GD32VW553/V1_MQTT_OK/GD32VW55X_Wifi_BLE_SDK/GD32VW55x_RELEASE_V1.0.2/MSDK/wpa_supplicant/src/ap\hw_features.c ****  *
1095:C:/Users/stapi/OneDrive/Desktop/GD32VW553/V1_MQTT_OK/GD32VW55X_Wifi_BLE_SDK/GD32VW55x_RELEASE_V1.0.2/MSDK/wpa_supplicant/src/ap\hw_features.c ****  * Sets up the hardware mode, channel, rates, and passive scanning
1096:C:/Users/stapi/OneDrive/Desktop/GD32VW553/V1_MQTT_OK/GD32VW55X_Wifi_BLE_SDK/GD32VW55x_RELEASE_V1.0.2/MSDK/wpa_supplicant/src/ap\hw_features.c ****  * based on the configuration.
1097:C:/Users/stapi/OneDrive/Desktop/GD32VW553/V1_MQTT_OK/GD32VW55X_Wifi_BLE_SDK/GD32VW55x_RELEASE_V1.0.2/MSDK/wpa_supplicant/src/ap\hw_features.c ****  */
1098:C:/Users/stapi/OneDrive/Desktop/GD32VW553/V1_MQTT_OK/GD32VW55X_Wifi_BLE_SDK/GD32VW55x_RELEASE_V1.0.2/MSDK/wpa_supplicant/src/ap\hw_features.c **** int hostapd_select_hw_mode(struct hostapd_iface *iface)
1099:C:/Users/stapi/OneDrive/Desktop/GD32VW553/V1_MQTT_OK/GD32VW55X_Wifi_BLE_SDK/GD32VW55x_RELEASE_V1.0.2/MSDK/wpa_supplicant/src/ap\hw_features.c **** {
 1794              		.loc 1 1099 1 is_stmt 1
 1795              		.cfi_startproc
 1796              	.LVL139:
1100:C:/Users/stapi/OneDrive/Desktop/GD32VW553/V1_MQTT_OK/GD32VW55X_Wifi_BLE_SDK/GD32VW55x_RELEASE_V1.0.2/MSDK/wpa_supplicant/src/ap\hw_features.c **** 	int i;
 1797              		.loc 1 1100 2
1101:C:/Users/stapi/OneDrive/Desktop/GD32VW553/V1_MQTT_OK/GD32VW55X_Wifi_BLE_SDK/GD32VW55x_RELEASE_V1.0.2/MSDK/wpa_supplicant/src/ap\hw_features.c **** 
1102:C:/Users/stapi/OneDrive/Desktop/GD32VW553/V1_MQTT_OK/GD32VW55X_Wifi_BLE_SDK/GD32VW55x_RELEASE_V1.0.2/MSDK/wpa_supplicant/src/ap\hw_features.c **** 	if (iface->num_hw_features < 1)
 1798              		.loc 1 1102 2
 1799              		.loc 1 1102 5 is_stmt 0
 1800 0000 83270546 		lw	a5,1120(a0)
 1801 0004 635AF010 		ble	a5,zero,.L227
1099:C:/Users/stapi/OneDrive/Desktop/GD32VW553/V1_MQTT_OK/GD32VW55X_Wifi_BLE_SDK/GD32VW55x_RELEASE_V1.0.2/MSDK/wpa_supplicant/src/ap\hw_features.c **** 	int i;
 1802              		.loc 1 1099 1
 1803 0008 17030000 		call	t0,__riscv_save_4
 1803      E7020300 
 1804              		.cfi_offset 19, -20
 1805              		.cfi_offset 18, -16
 1806              		.cfi_offset 9, -12
 1807              		.cfi_offset 8, -8
 1808              		.cfi_offset 1, -4
 1809              		.cfi_def_cfa_offset 32
1103:C:/Users/stapi/OneDrive/Desktop/GD32VW553/V1_MQTT_OK/GD32VW55X_Wifi_BLE_SDK/GD32VW55x_RELEASE_V1.0.2/MSDK/wpa_supplicant/src/ap\hw_features.c **** 		return -1;
1104:C:/Users/stapi/OneDrive/Desktop/GD32VW553/V1_MQTT_OK/GD32VW55X_Wifi_BLE_SDK/GD32VW55x_RELEASE_V1.0.2/MSDK/wpa_supplicant/src/ap\hw_features.c **** 
1105:C:/Users/stapi/OneDrive/Desktop/GD32VW553/V1_MQTT_OK/GD32VW55X_Wifi_BLE_SDK/GD32VW55x_RELEASE_V1.0.2/MSDK/wpa_supplicant/src/ap\hw_features.c **** 	if ((iface->conf->hw_mode == HOSTAPD_MODE_IEEE80211G ||
 1810              		.loc 1 1105 12
 1811 0010 5C45     		lw	a5,12(a0)
 1812              		.loc 1 1105 5
 1813 0012 0547     		li	a4,1
1099:C:/Users/stapi/OneDrive/Desktop/GD32VW553/V1_MQTT_OK/GD32VW55X_Wifi_BLE_SDK/GD32VW55x_RELEASE_V1.0.2/MSDK/wpa_supplicant/src/ap\hw_features.c **** 	int i;
 1814              		.loc 1 1099 1
 1815 0014 4111     		addi	sp,sp,-16
 1816              		.cfi_def_cfa_offset 48
 1817              		.loc 1 1105 5
 1818 0016 B443     		lw	a3,64(a5)
 1819 0018 2A84     		mv	s0,a0
 1820              		.loc 1 1105 2 is_stmt 1
 1821              		.loc 1 1105 5 is_stmt 0
 1822 001a 638BE600 		beq	a3,a4,.L216
 1823              		.loc 1 1105 55 discriminator 1
 1824 001e 03A70712 		lw	a4,288(a5)
 1825 0022 19E7     		bne	a4,zero,.L216
1106:C:/Users/stapi/OneDrive/Desktop/GD32VW553/V1_MQTT_OK/GD32VW55X_Wifi_BLE_SDK/GD32VW55x_RELEASE_V1.0.2/MSDK/wpa_supplicant/src/ap\hw_features.c **** 	     iface->conf->ieee80211n || iface->conf->ieee80211ac ||
 1826              		.loc 1 1106 31
 1827 0024 03A78713 		lw	a4,312(a5)
 1828 0028 01E7     		bne	a4,zero,.L216
 1829              		.loc 1 1106 59 discriminator 1
 1830 002a 03A74715 		lw	a4,340(a5)
 1831 002e 05CB     		beq	a4,zero,.L217
 1832              	.L216:
1107:C:/Users/stapi/OneDrive/Desktop/GD32VW553/V1_MQTT_OK/GD32VW55X_Wifi_BLE_SDK/GD32VW55x_RELEASE_V1.0.2/MSDK/wpa_supplicant/src/ap\hw_features.c **** 	     iface->conf->ieee80211ax) &&
 1833              		.loc 1 1107 33
 1834 0030 03C79701 		lbu	a4,25(a5)
 1835 0034 B947     		li	a5,14
 1836 0036 6314F702 		bne	a4,a5,.L217
1108:C:/Users/stapi/OneDrive/Desktop/GD32VW553/V1_MQTT_OK/GD32VW55X_Wifi_BLE_SDK/GD32VW55x_RELEASE_V1.0.2/MSDK/wpa_supplicant/src/ap\hw_features.c **** 	    iface->conf->channel == 14) {
1109:C:/Users/stapi/OneDrive/Desktop/GD32VW553/V1_MQTT_OK/GD32VW55X_Wifi_BLE_SDK/GD32VW55x_RELEASE_V1.0.2/MSDK/wpa_supplicant/src/ap\hw_features.c **** 		wpa_printf(MSG_INFO, "Disable OFDM/HT/VHT/HE on channel 14");
 1837              		.loc 1 1109 3 is_stmt 1
 1838 003a B7050000 		lui	a1,%hi(.LC45)
 1839 003e 93850500 		addi	a1,a1,%lo(.LC45)
 1840 0042 0D45     		li	a0,3
 1841              	.LVL140:
 1842 0044 97000000 		call	wpa_printf
 1842      E7800000 
 1843              	.LVL141:
1110:C:/Users/stapi/OneDrive/Desktop/GD32VW553/V1_MQTT_OK/GD32VW55X_Wifi_BLE_SDK/GD32VW55x_RELEASE_V1.0.2/MSDK/wpa_supplicant/src/ap\hw_features.c **** 		iface->conf->hw_mode = HOSTAPD_MODE_IEEE80211B;
 1844              		.loc 1 1110 3
 1845              		.loc 1 1110 8 is_stmt 0
 1846 004c 5C44     		lw	a5,12(s0)
 1847              		.loc 1 1110 24
 1848 004e 23A00704 		sw	zero,64(a5)
1111:C:/Users/stapi/OneDrive/Desktop/GD32VW553/V1_MQTT_OK/GD32VW55X_Wifi_BLE_SDK/GD32VW55x_RELEASE_V1.0.2/MSDK/wpa_supplicant/src/ap\hw_features.c **** 		iface->conf->ieee80211n = 0;
 1849              		.loc 1 1111 3 is_stmt 1
 1850              		.loc 1 1111 27 is_stmt 0
 1851 0052 23A00712 		sw	zero,288(a5)
1112:C:/Users/stapi/OneDrive/Desktop/GD32VW553/V1_MQTT_OK/GD32VW55X_Wifi_BLE_SDK/GD32VW55x_RELEASE_V1.0.2/MSDK/wpa_supplicant/src/ap\hw_features.c **** 		iface->conf->ieee80211ac = 0;
 1852              		.loc 1 1112 3 is_stmt 1
 1853              		.loc 1 1112 28 is_stmt 0
 1854 0056 23AC0712 		sw	zero,312(a5)
1113:C:/Users/stapi/OneDrive/Desktop/GD32VW553/V1_MQTT_OK/GD32VW55X_Wifi_BLE_SDK/GD32VW55x_RELEASE_V1.0.2/MSDK/wpa_supplicant/src/ap\hw_features.c **** 		iface->conf->ieee80211ax = 0;
 1855              		.loc 1 1113 3 is_stmt 1
 1856              		.loc 1 1113 28 is_stmt 0
 1857 005a 23AA0714 		sw	zero,340(a5)
 1858              	.L217:
1114:C:/Users/stapi/OneDrive/Desktop/GD32VW553/V1_MQTT_OK/GD32VW55X_Wifi_BLE_SDK/GD32VW55x_RELEASE_V1.0.2/MSDK/wpa_supplicant/src/ap\hw_features.c **** 	}
1115:C:/Users/stapi/OneDrive/Desktop/GD32VW553/V1_MQTT_OK/GD32VW55X_Wifi_BLE_SDK/GD32VW55x_RELEASE_V1.0.2/MSDK/wpa_supplicant/src/ap\hw_features.c **** 
1116:C:/Users/stapi/OneDrive/Desktop/GD32VW553/V1_MQTT_OK/GD32VW55X_Wifi_BLE_SDK/GD32VW55x_RELEASE_V1.0.2/MSDK/wpa_supplicant/src/ap\hw_features.c **** 	iface->current_mode = NULL;
 1859              		.loc 1 1116 2 is_stmt 1
 1860              		.loc 1 1116 22 is_stmt 0
 1861 005e 23220446 		sw	zero,1124(s0)
1117:C:/Users/stapi/OneDrive/Desktop/GD32VW553/V1_MQTT_OK/GD32VW55X_Wifi_BLE_SDK/GD32VW55x_RELEASE_V1.0.2/MSDK/wpa_supplicant/src/ap\hw_features.c **** 	for (i = 0; i < iface->num_hw_features; i++) {
 1862              		.loc 1 1117 2 is_stmt 1
 1863              	.LVL142:
 1864              		.loc 1 1117 9 is_stmt 0
 1865 0062 0149     		li	s2,0
 1866              	.LBB114:
1118:C:/Users/stapi/OneDrive/Desktop/GD32VW553/V1_MQTT_OK/GD32VW55X_Wifi_BLE_SDK/GD32VW55x_RELEASE_V1.0.2/MSDK/wpa_supplicant/src/ap\hw_features.c **** 		struct hostapd_hw_modes *mode = &iface->hw_features[i];
 1867              		.loc 1 1118 28
 1868 0064 9309C019 		li	s3,412
 1869              	.LVL143:
 1870              	.L218:
 1871              	.LBE114:
1117:C:/Users/stapi/OneDrive/Desktop/GD32VW553/V1_MQTT_OK/GD32VW55X_Wifi_BLE_SDK/GD32VW55x_RELEASE_V1.0.2/MSDK/wpa_supplicant/src/ap\hw_features.c **** 	for (i = 0; i < iface->num_hw_features; i++) {
 1872              		.loc 1 1117 14 is_stmt 1 discriminator 1
1117:C:/Users/stapi/OneDrive/Desktop/GD32VW553/V1_MQTT_OK/GD32VW55X_Wifi_BLE_SDK/GD32VW55x_RELEASE_V1.0.2/MSDK/wpa_supplicant/src/ap\hw_features.c **** 	for (i = 0; i < iface->num_hw_features; i++) {
 1873              		.loc 1 1117 2 is_stmt 0 discriminator 1
 1874 0068 83270446 		lw	a5,1120(s0)
 1875 006c 6347F902 		bgt	a5,s2,.L222
1119:C:/Users/stapi/OneDrive/Desktop/GD32VW553/V1_MQTT_OK/GD32VW55X_Wifi_BLE_SDK/GD32VW55x_RELEASE_V1.0.2/MSDK/wpa_supplicant/src/ap\hw_features.c **** 		int chan;
1120:C:/Users/stapi/OneDrive/Desktop/GD32VW553/V1_MQTT_OK/GD32VW55X_Wifi_BLE_SDK/GD32VW55x_RELEASE_V1.0.2/MSDK/wpa_supplicant/src/ap\hw_features.c **** 
1121:C:/Users/stapi/OneDrive/Desktop/GD32VW553/V1_MQTT_OK/GD32VW55X_Wifi_BLE_SDK/GD32VW55x_RELEASE_V1.0.2/MSDK/wpa_supplicant/src/ap\hw_features.c **** 		if (mode->mode == iface->conf->hw_mode) {
1122:C:/Users/stapi/OneDrive/Desktop/GD32VW553/V1_MQTT_OK/GD32VW55X_Wifi_BLE_SDK/GD32VW55x_RELEASE_V1.0.2/MSDK/wpa_supplicant/src/ap\hw_features.c **** 			if (iface->freq > 0 &&
1123:C:/Users/stapi/OneDrive/Desktop/GD32VW553/V1_MQTT_OK/GD32VW55X_Wifi_BLE_SDK/GD32VW55x_RELEASE_V1.0.2/MSDK/wpa_supplicant/src/ap\hw_features.c **** 			    !hw_mode_get_channel(mode, iface->freq, &chan))
1124:C:/Users/stapi/OneDrive/Desktop/GD32VW553/V1_MQTT_OK/GD32VW55X_Wifi_BLE_SDK/GD32VW55x_RELEASE_V1.0.2/MSDK/wpa_supplicant/src/ap\hw_features.c **** 				continue;
1125:C:/Users/stapi/OneDrive/Desktop/GD32VW553/V1_MQTT_OK/GD32VW55X_Wifi_BLE_SDK/GD32VW55x_RELEASE_V1.0.2/MSDK/wpa_supplicant/src/ap\hw_features.c **** 
1126:C:/Users/stapi/OneDrive/Desktop/GD32VW553/V1_MQTT_OK/GD32VW55X_Wifi_BLE_SDK/GD32VW55x_RELEASE_V1.0.2/MSDK/wpa_supplicant/src/ap\hw_features.c **** 			iface->current_mode = mode;
1127:C:/Users/stapi/OneDrive/Desktop/GD32VW553/V1_MQTT_OK/GD32VW55X_Wifi_BLE_SDK/GD32VW55x_RELEASE_V1.0.2/MSDK/wpa_supplicant/src/ap\hw_features.c **** 			break;
1128:C:/Users/stapi/OneDrive/Desktop/GD32VW553/V1_MQTT_OK/GD32VW55X_Wifi_BLE_SDK/GD32VW55x_RELEASE_V1.0.2/MSDK/wpa_supplicant/src/ap\hw_features.c **** 		}
1129:C:/Users/stapi/OneDrive/Desktop/GD32VW553/V1_MQTT_OK/GD32VW55X_Wifi_BLE_SDK/GD32VW55x_RELEASE_V1.0.2/MSDK/wpa_supplicant/src/ap\hw_features.c **** 	}
1130:C:/Users/stapi/OneDrive/Desktop/GD32VW553/V1_MQTT_OK/GD32VW55X_Wifi_BLE_SDK/GD32VW55x_RELEASE_V1.0.2/MSDK/wpa_supplicant/src/ap\hw_features.c **** 
1131:C:/Users/stapi/OneDrive/Desktop/GD32VW553/V1_MQTT_OK/GD32VW55X_Wifi_BLE_SDK/GD32VW55x_RELEASE_V1.0.2/MSDK/wpa_supplicant/src/ap\hw_features.c **** 	if (iface->current_mode == NULL) {
 1876              		.loc 1 1131 2 is_stmt 1
 1877              		.loc 1 1131 5 is_stmt 0
 1878 0070 83274446 		lw	a5,1124(s0)
 1879 0074 B9EB     		bne	a5,zero,.L221
1132:C:/Users/stapi/OneDrive/Desktop/GD32VW553/V1_MQTT_OK/GD32VW55X_Wifi_BLE_SDK/GD32VW55x_RELEASE_V1.0.2/MSDK/wpa_supplicant/src/ap\hw_features.c **** 		if ((iface->drv_flags & WPA_DRIVER_FLAGS_ACS_OFFLOAD) &&
 1880              		.loc 1 1132 3 is_stmt 1
 1881              		.loc 1 1132 13 is_stmt 0
 1882 0076 8327C443 		lw	a5,1084(s0)
 1883              		.loc 1 1132 25
 1884 007a 13F72700 		andi	a4,a5,2
 1885              		.loc 1 1132 6
 1886 007e 25C7     		beq	a4,zero,.L223
1133:C:/Users/stapi/OneDrive/Desktop/GD32VW553/V1_MQTT_OK/GD32VW55X_Wifi_BLE_SDK/GD32VW55x_RELEASE_V1.0.2/MSDK/wpa_supplicant/src/ap\hw_features.c **** 		    (iface->drv_flags & WPA_DRIVER_FLAGS_SUPPORT_HW_MODE_ANY)) {
 1887              		.loc 1 1133 25
 1888 0080 93F70704 		andi	a5,a5,64
1132:C:/Users/stapi/OneDrive/Desktop/GD32VW553/V1_MQTT_OK/GD32VW55X_Wifi_BLE_SDK/GD32VW55x_RELEASE_V1.0.2/MSDK/wpa_supplicant/src/ap\hw_features.c **** 		if ((iface->drv_flags & WPA_DRIVER_FLAGS_ACS_OFFLOAD) &&
 1889              		.loc 1 1132 57
 1890 0084 BDCB     		beq	a5,zero,.L225
1134:C:/Users/stapi/OneDrive/Desktop/GD32VW553/V1_MQTT_OK/GD32VW55X_Wifi_BLE_SDK/GD32VW55x_RELEASE_V1.0.2/MSDK/wpa_supplicant/src/ap\hw_features.c **** 			wpa_printf(MSG_DEBUG,
 1891              		.loc 1 1134 4 is_stmt 1 discriminator 1
 1892 0086 B7050000 		lui	a1,%hi(.LC46)
 1893 008a 93850500 		addi	a1,a1,%lo(.LC46)
 1894              	.L240:
1135:C:/Users/stapi/OneDrive/Desktop/GD32VW553/V1_MQTT_OK/GD32VW55X_Wifi_BLE_SDK/GD32VW55x_RELEASE_V1.0.2/MSDK/wpa_supplicant/src/ap\hw_features.c **** 				   "Using offloaded hw_mode=any ACS");
1136:C:/Users/stapi/OneDrive/Desktop/GD32VW553/V1_MQTT_OK/GD32VW55X_Wifi_BLE_SDK/GD32VW55x_RELEASE_V1.0.2/MSDK/wpa_supplicant/src/ap\hw_features.c **** 		} else if (!(iface->drv_flags & WPA_DRIVER_FLAGS_ACS_OFFLOAD) &&
1137:C:/Users/stapi/OneDrive/Desktop/GD32VW553/V1_MQTT_OK/GD32VW55X_Wifi_BLE_SDK/GD32VW55x_RELEASE_V1.0.2/MSDK/wpa_supplicant/src/ap\hw_features.c **** 			   iface->conf->hw_mode == HOSTAPD_MODE_IEEE80211ANY) {
1138:C:/Users/stapi/OneDrive/Desktop/GD32VW553/V1_MQTT_OK/GD32VW55X_Wifi_BLE_SDK/GD32VW55x_RELEASE_V1.0.2/MSDK/wpa_supplicant/src/ap\hw_features.c **** 			wpa_printf(MSG_DEBUG,
 1895              		.loc 1 1138 4 is_stmt 0
 1896 008e 0945     		li	a0,2
 1897 0090 97000000 		call	wpa_printf
 1897      E7800000 
 1898              	.LVL144:
 1899 0098 0DA8     		j	.L221
 1900              	.L222:
 1901              	.LBB115:
1118:C:/Users/stapi/OneDrive/Desktop/GD32VW553/V1_MQTT_OK/GD32VW55X_Wifi_BLE_SDK/GD32VW55x_RELEASE_V1.0.2/MSDK/wpa_supplicant/src/ap\hw_features.c **** 		int chan;
 1902              		.loc 1 1118 3 is_stmt 1
1118:C:/Users/stapi/OneDrive/Desktop/GD32VW553/V1_MQTT_OK/GD32VW55X_Wifi_BLE_SDK/GD32VW55x_RELEASE_V1.0.2/MSDK/wpa_supplicant/src/ap\hw_features.c **** 		int chan;
 1903              		.loc 1 1118 28 is_stmt 0
 1904 009a 8324C445 		lw	s1,1116(s0)
1121:C:/Users/stapi/OneDrive/Desktop/GD32VW553/V1_MQTT_OK/GD32VW55X_Wifi_BLE_SDK/GD32VW55x_RELEASE_V1.0.2/MSDK/wpa_supplicant/src/ap\hw_features.c **** 			if (iface->freq > 0 &&
 1905              		.loc 1 1121 32
 1906 009e 5C44     		lw	a5,12(s0)
1118:C:/Users/stapi/OneDrive/Desktop/GD32VW553/V1_MQTT_OK/GD32VW55X_Wifi_BLE_SDK/GD32VW55x_RELEASE_V1.0.2/MSDK/wpa_supplicant/src/ap\hw_features.c **** 		int chan;
 1907              		.loc 1 1118 28
 1908 00a0 FF1439C5 		maddr32	s1, s2, s3
 1909              	.LVL145:
1119:C:/Users/stapi/OneDrive/Desktop/GD32VW553/V1_MQTT_OK/GD32VW55X_Wifi_BLE_SDK/GD32VW55x_RELEASE_V1.0.2/MSDK/wpa_supplicant/src/ap\hw_features.c **** 
 1910              		.loc 1 1119 3 is_stmt 1
1121:C:/Users/stapi/OneDrive/Desktop/GD32VW553/V1_MQTT_OK/GD32VW55X_Wifi_BLE_SDK/GD32VW55x_RELEASE_V1.0.2/MSDK/wpa_supplicant/src/ap\hw_features.c **** 			if (iface->freq > 0 &&
 1911              		.loc 1 1121 3
1121:C:/Users/stapi/OneDrive/Desktop/GD32VW553/V1_MQTT_OK/GD32VW55X_Wifi_BLE_SDK/GD32VW55x_RELEASE_V1.0.2/MSDK/wpa_supplicant/src/ap\hw_features.c **** 			if (iface->freq > 0 &&
 1912              		.loc 1 1121 6 is_stmt 0
 1913 00a4 BC43     		lw	a5,64(a5)
 1914 00a6 9840     		lw	a4,0(s1)
 1915 00a8 631DF700 		bne	a4,a5,.L219
1122:C:/Users/stapi/OneDrive/Desktop/GD32VW553/V1_MQTT_OK/GD32VW55X_Wifi_BLE_SDK/GD32VW55x_RELEASE_V1.0.2/MSDK/wpa_supplicant/src/ap\hw_features.c **** 			    !hw_mode_get_channel(mode, iface->freq, &chan))
 1916              		.loc 1 1122 4 is_stmt 1
1122:C:/Users/stapi/OneDrive/Desktop/GD32VW553/V1_MQTT_OK/GD32VW55X_Wifi_BLE_SDK/GD32VW55x_RELEASE_V1.0.2/MSDK/wpa_supplicant/src/ap\hw_features.c **** 			    !hw_mode_get_channel(mode, iface->freq, &chan))
 1917              		.loc 1 1122 13 is_stmt 0
 1918 00ac 83254447 		lw	a1,1140(s0)
1122:C:/Users/stapi/OneDrive/Desktop/GD32VW553/V1_MQTT_OK/GD32VW55X_Wifi_BLE_SDK/GD32VW55x_RELEASE_V1.0.2/MSDK/wpa_supplicant/src/ap\hw_features.c **** 			    !hw_mode_get_channel(mode, iface->freq, &chan))
 1919              		.loc 1 1122 7
 1920 00b0 635BB000 		ble	a1,zero,.L220
1123:C:/Users/stapi/OneDrive/Desktop/GD32VW553/V1_MQTT_OK/GD32VW55X_Wifi_BLE_SDK/GD32VW55x_RELEASE_V1.0.2/MSDK/wpa_supplicant/src/ap\hw_features.c **** 				continue;
 1921              		.loc 1 1123 9 discriminator 1
 1922 00b4 7000     		addi	a2,sp,12
 1923 00b6 2685     		mv	a0,s1
 1924 00b8 97000000 		call	hw_mode_get_channel
 1924      E7800000 
 1925              	.LVL146:
1122:C:/Users/stapi/OneDrive/Desktop/GD32VW553/V1_MQTT_OK/GD32VW55X_Wifi_BLE_SDK/GD32VW55x_RELEASE_V1.0.2/MSDK/wpa_supplicant/src/ap\hw_features.c **** 			    !hw_mode_get_channel(mode, iface->freq, &chan))
 1926              		.loc 1 1122 24 discriminator 1
 1927 00c0 19E1     		bne	a0,zero,.L220
 1928              	.L219:
1124:C:/Users/stapi/OneDrive/Desktop/GD32VW553/V1_MQTT_OK/GD32VW55X_Wifi_BLE_SDK/GD32VW55x_RELEASE_V1.0.2/MSDK/wpa_supplicant/src/ap\hw_features.c **** 
 1929              		.loc 1 1124 5 is_stmt 1
 1930              	.LBE115:
1117:C:/Users/stapi/OneDrive/Desktop/GD32VW553/V1_MQTT_OK/GD32VW55X_Wifi_BLE_SDK/GD32VW55x_RELEASE_V1.0.2/MSDK/wpa_supplicant/src/ap\hw_features.c **** 		struct hostapd_hw_modes *mode = &iface->hw_features[i];
 1931              		.loc 1 1117 42
1117:C:/Users/stapi/OneDrive/Desktop/GD32VW553/V1_MQTT_OK/GD32VW55X_Wifi_BLE_SDK/GD32VW55x_RELEASE_V1.0.2/MSDK/wpa_supplicant/src/ap\hw_features.c **** 		struct hostapd_hw_modes *mode = &iface->hw_features[i];
 1932              		.loc 1 1117 43 is_stmt 0
 1933 00c2 0509     		addi	s2,s2,1
 1934              	.LVL147:
 1935 00c4 55B7     		j	.L218
 1936              	.L220:
 1937              	.LBB116:
1126:C:/Users/stapi/OneDrive/Desktop/GD32VW553/V1_MQTT_OK/GD32VW55X_Wifi_BLE_SDK/GD32VW55x_RELEASE_V1.0.2/MSDK/wpa_supplicant/src/ap\hw_features.c **** 			break;
 1938              		.loc 1 1126 4 is_stmt 1
1126:C:/Users/stapi/OneDrive/Desktop/GD32VW553/V1_MQTT_OK/GD32VW55X_Wifi_BLE_SDK/GD32VW55x_RELEASE_V1.0.2/MSDK/wpa_supplicant/src/ap\hw_features.c **** 			break;
 1939              		.loc 1 1126 24 is_stmt 0
 1940 00c6 23229446 		sw	s1,1124(s0)
1127:C:/Users/stapi/OneDrive/Desktop/GD32VW553/V1_MQTT_OK/GD32VW55X_Wifi_BLE_SDK/GD32VW55x_RELEASE_V1.0.2/MSDK/wpa_supplicant/src/ap\hw_features.c **** 		}
 1941              		.loc 1 1127 4 is_stmt 1
 1942              	.LBE116:
1131:C:/Users/stapi/OneDrive/Desktop/GD32VW553/V1_MQTT_OK/GD32VW55X_Wifi_BLE_SDK/GD32VW55x_RELEASE_V1.0.2/MSDK/wpa_supplicant/src/ap\hw_features.c **** 		if ((iface->drv_flags & WPA_DRIVER_FLAGS_ACS_OFFLOAD) &&
 1943              		.loc 1 1131 2
 1944              	.LVL148:
 1945              	.L221:
1139:C:/Users/stapi/OneDrive/Desktop/GD32VW553/V1_MQTT_OK/GD32VW55X_Wifi_BLE_SDK/GD32VW55x_RELEASE_V1.0.2/MSDK/wpa_supplicant/src/ap\hw_features.c **** 				   "Using internal ACS for hw_mode=any");
1140:C:/Users/stapi/OneDrive/Desktop/GD32VW553/V1_MQTT_OK/GD32VW55X_Wifi_BLE_SDK/GD32VW55x_RELEASE_V1.0.2/MSDK/wpa_supplicant/src/ap\hw_features.c **** 		} else {
1141:C:/Users/stapi/OneDrive/Desktop/GD32VW553/V1_MQTT_OK/GD32VW55X_Wifi_BLE_SDK/GD32VW55x_RELEASE_V1.0.2/MSDK/wpa_supplicant/src/ap\hw_features.c **** 			wpa_printf(MSG_ERROR,
1142:C:/Users/stapi/OneDrive/Desktop/GD32VW553/V1_MQTT_OK/GD32VW55X_Wifi_BLE_SDK/GD32VW55x_RELEASE_V1.0.2/MSDK/wpa_supplicant/src/ap\hw_features.c **** 				   "Hardware does not support configured mode");
1143:C:/Users/stapi/OneDrive/Desktop/GD32VW553/V1_MQTT_OK/GD32VW55X_Wifi_BLE_SDK/GD32VW55x_RELEASE_V1.0.2/MSDK/wpa_supplicant/src/ap\hw_features.c **** 			hostapd_logger(iface->bss[0], NULL,
1144:C:/Users/stapi/OneDrive/Desktop/GD32VW553/V1_MQTT_OK/GD32VW55X_Wifi_BLE_SDK/GD32VW55x_RELEASE_V1.0.2/MSDK/wpa_supplicant/src/ap\hw_features.c **** 				       HOSTAPD_MODULE_IEEE80211,
1145:C:/Users/stapi/OneDrive/Desktop/GD32VW553/V1_MQTT_OK/GD32VW55X_Wifi_BLE_SDK/GD32VW55x_RELEASE_V1.0.2/MSDK/wpa_supplicant/src/ap\hw_features.c **** 				       HOSTAPD_LEVEL_WARNING,
1146:C:/Users/stapi/OneDrive/Desktop/GD32VW553/V1_MQTT_OK/GD32VW55X_Wifi_BLE_SDK/GD32VW55x_RELEASE_V1.0.2/MSDK/wpa_supplicant/src/ap\hw_features.c **** 				       "Hardware does not support configured mode (%d) (hw_mode in hostapd.conf)",
1147:C:/Users/stapi/OneDrive/Desktop/GD32VW553/V1_MQTT_OK/GD32VW55X_Wifi_BLE_SDK/GD32VW55x_RELEASE_V1.0.2/MSDK/wpa_supplicant/src/ap\hw_features.c **** 				       (int) iface->conf->hw_mode);
1148:C:/Users/stapi/OneDrive/Desktop/GD32VW553/V1_MQTT_OK/GD32VW55X_Wifi_BLE_SDK/GD32VW55x_RELEASE_V1.0.2/MSDK/wpa_supplicant/src/ap\hw_features.c **** 			return -2;
1149:C:/Users/stapi/OneDrive/Desktop/GD32VW553/V1_MQTT_OK/GD32VW55X_Wifi_BLE_SDK/GD32VW55x_RELEASE_V1.0.2/MSDK/wpa_supplicant/src/ap\hw_features.c **** 		}
1150:C:/Users/stapi/OneDrive/Desktop/GD32VW553/V1_MQTT_OK/GD32VW55X_Wifi_BLE_SDK/GD32VW55x_RELEASE_V1.0.2/MSDK/wpa_supplicant/src/ap\hw_features.c **** 	}
1151:C:/Users/stapi/OneDrive/Desktop/GD32VW553/V1_MQTT_OK/GD32VW55X_Wifi_BLE_SDK/GD32VW55x_RELEASE_V1.0.2/MSDK/wpa_supplicant/src/ap\hw_features.c **** 
1152:C:/Users/stapi/OneDrive/Desktop/GD32VW553/V1_MQTT_OK/GD32VW55X_Wifi_BLE_SDK/GD32VW55x_RELEASE_V1.0.2/MSDK/wpa_supplicant/src/ap\hw_features.c **** 	switch (hostapd_check_chans(iface)) {
 1946              		.loc 1 1152 2
 1947              		.loc 1 1152 10 is_stmt 0
 1948 00ca 2285     		mv	a0,s0
 1949 00cc 97000000 		call	hostapd_check_chans
 1949      E7800000 
 1950              	.LVL149:
 1951 00d4 AA87     		mv	a5,a0
1153:C:/Users/stapi/OneDrive/Desktop/GD32VW553/V1_MQTT_OK/GD32VW55X_Wifi_BLE_SDK/GD32VW55x_RELEASE_V1.0.2/MSDK/wpa_supplicant/src/ap\hw_features.c **** 	case HOSTAPD_CHAN_VALID:
1154:C:/Users/stapi/OneDrive/Desktop/GD32VW553/V1_MQTT_OK/GD32VW55X_Wifi_BLE_SDK/GD32VW55x_RELEASE_V1.0.2/MSDK/wpa_supplicant/src/ap\hw_features.c **** 		return 0;
 1952              		.loc 1 1154 10
 1953 00d6 0145     		li	a0,0
1152:C:/Users/stapi/OneDrive/Desktop/GD32VW553/V1_MQTT_OK/GD32VW55X_Wifi_BLE_SDK/GD32VW55x_RELEASE_V1.0.2/MSDK/wpa_supplicant/src/ap\hw_features.c **** 	case HOSTAPD_CHAN_VALID:
 1954              		.loc 1 1152 2
 1955 00d8 9DCB     		beq	a5,zero,.L214
 1956 00da 0947     		li	a4,2
1155:C:/Users/stapi/OneDrive/Desktop/GD32VW553/V1_MQTT_OK/GD32VW55X_Wifi_BLE_SDK/GD32VW55x_RELEASE_V1.0.2/MSDK/wpa_supplicant/src/ap\hw_features.c **** 	case HOSTAPD_CHAN_ACS: /* ACS will run and later complete */
1156:C:/Users/stapi/OneDrive/Desktop/GD32VW553/V1_MQTT_OK/GD32VW55X_Wifi_BLE_SDK/GD32VW55x_RELEASE_V1.0.2/MSDK/wpa_supplicant/src/ap\hw_features.c **** 		return 1;
1157:C:/Users/stapi/OneDrive/Desktop/GD32VW553/V1_MQTT_OK/GD32VW55X_Wifi_BLE_SDK/GD32VW55x_RELEASE_V1.0.2/MSDK/wpa_supplicant/src/ap\hw_features.c **** 	case HOSTAPD_CHAN_INVALID:
1158:C:/Users/stapi/OneDrive/Desktop/GD32VW553/V1_MQTT_OK/GD32VW55X_Wifi_BLE_SDK/GD32VW55x_RELEASE_V1.0.2/MSDK/wpa_supplicant/src/ap\hw_features.c **** 	default:
1159:C:/Users/stapi/OneDrive/Desktop/GD32VW553/V1_MQTT_OK/GD32VW55X_Wifi_BLE_SDK/GD32VW55x_RELEASE_V1.0.2/MSDK/wpa_supplicant/src/ap\hw_features.c **** 		hostapd_notify_bad_chans(iface);
1160:C:/Users/stapi/OneDrive/Desktop/GD32VW553/V1_MQTT_OK/GD32VW55X_Wifi_BLE_SDK/GD32VW55x_RELEASE_V1.0.2/MSDK/wpa_supplicant/src/ap\hw_features.c **** 		return -3;
 1957              		.loc 1 1160 10
 1958 00dc 7555     		li	a0,-3
1152:C:/Users/stapi/OneDrive/Desktop/GD32VW553/V1_MQTT_OK/GD32VW55X_Wifi_BLE_SDK/GD32VW55x_RELEASE_V1.0.2/MSDK/wpa_supplicant/src/ap\hw_features.c **** 	case HOSTAPD_CHAN_VALID:
 1959              		.loc 1 1152 2
 1960 00de 6398E702 		bne	a5,a4,.L214
 1961 00e2 0545     		li	a0,1
 1962 00e4 2DA0     		j	.L214
 1963              	.L223:
1136:C:/Users/stapi/OneDrive/Desktop/GD32VW553/V1_MQTT_OK/GD32VW55X_Wifi_BLE_SDK/GD32VW55x_RELEASE_V1.0.2/MSDK/wpa_supplicant/src/ap\hw_features.c **** 			   iface->conf->hw_mode == HOSTAPD_MODE_IEEE80211ANY) {
 1964              		.loc 1 1136 10 is_stmt 1 discriminator 1
1137:C:/Users/stapi/OneDrive/Desktop/GD32VW553/V1_MQTT_OK/GD32VW55X_Wifi_BLE_SDK/GD32VW55x_RELEASE_V1.0.2/MSDK/wpa_supplicant/src/ap\hw_features.c **** 			wpa_printf(MSG_DEBUG,
 1965              		.loc 1 1137 18 is_stmt 0 discriminator 1
 1966 00e6 5C44     		lw	a5,12(s0)
1136:C:/Users/stapi/OneDrive/Desktop/GD32VW553/V1_MQTT_OK/GD32VW55X_Wifi_BLE_SDK/GD32VW55x_RELEASE_V1.0.2/MSDK/wpa_supplicant/src/ap\hw_features.c **** 			   iface->conf->hw_mode == HOSTAPD_MODE_IEEE80211ANY) {
 1967              		.loc 1 1136 65 discriminator 1
 1968 00e8 B843     		lw	a4,64(a5)
 1969 00ea 9147     		li	a5,4
 1970 00ec 6317F700 		bne	a4,a5,.L225
1138:C:/Users/stapi/OneDrive/Desktop/GD32VW553/V1_MQTT_OK/GD32VW55X_Wifi_BLE_SDK/GD32VW55x_RELEASE_V1.0.2/MSDK/wpa_supplicant/src/ap\hw_features.c **** 				   "Using internal ACS for hw_mode=any");
 1971              		.loc 1 1138 4 is_stmt 1
 1972 00f0 B7050000 		lui	a1,%hi(.LC47)
 1973 00f4 93850500 		addi	a1,a1,%lo(.LC47)
 1974 00f8 59BF     		j	.L240
 1975              	.L225:
1141:C:/Users/stapi/OneDrive/Desktop/GD32VW553/V1_MQTT_OK/GD32VW55X_Wifi_BLE_SDK/GD32VW55x_RELEASE_V1.0.2/MSDK/wpa_supplicant/src/ap\hw_features.c **** 				   "Hardware does not support configured mode");
 1976              		.loc 1 1141 4
 1977 00fa B7050000 		lui	a1,%hi(.LC48)
 1978 00fe 1545     		li	a0,5
 1979 0100 93850500 		addi	a1,a1,%lo(.LC48)
 1980 0104 97000000 		call	wpa_printf
 1980      E7800000 
 1981              	.LVL150:
1143:C:/Users/stapi/OneDrive/Desktop/GD32VW553/V1_MQTT_OK/GD32VW55X_Wifi_BLE_SDK/GD32VW55x_RELEASE_V1.0.2/MSDK/wpa_supplicant/src/ap\hw_features.c **** 				       HOSTAPD_MODULE_IEEE80211,
 1982              		.loc 1 1143 4
1143:C:/Users/stapi/OneDrive/Desktop/GD32VW553/V1_MQTT_OK/GD32VW55X_Wifi_BLE_SDK/GD32VW55x_RELEASE_V1.0.2/MSDK/wpa_supplicant/src/ap\hw_features.c **** 				       HOSTAPD_MODULE_IEEE80211,
 1983              		.loc 1 1143 4
1143:C:/Users/stapi/OneDrive/Desktop/GD32VW553/V1_MQTT_OK/GD32VW55X_Wifi_BLE_SDK/GD32VW55x_RELEASE_V1.0.2/MSDK/wpa_supplicant/src/ap\hw_features.c **** 				       HOSTAPD_MODULE_IEEE80211,
 1984              		.loc 1 1143 4
1148:C:/Users/stapi/OneDrive/Desktop/GD32VW553/V1_MQTT_OK/GD32VW55X_Wifi_BLE_SDK/GD32VW55x_RELEASE_V1.0.2/MSDK/wpa_supplicant/src/ap\hw_features.c **** 		}
 1985              		.loc 1 1148 4
1148:C:/Users/stapi/OneDrive/Desktop/GD32VW553/V1_MQTT_OK/GD32VW55X_Wifi_BLE_SDK/GD32VW55x_RELEASE_V1.0.2/MSDK/wpa_supplicant/src/ap\hw_features.c **** 		}
 1986              		.loc 1 1148 11 is_stmt 0
 1987 010c 7955     		li	a0,-2
 1988              	.L214:
1161:C:/Users/stapi/OneDrive/Desktop/GD32VW553/V1_MQTT_OK/GD32VW55X_Wifi_BLE_SDK/GD32VW55x_RELEASE_V1.0.2/MSDK/wpa_supplicant/src/ap\hw_features.c **** 	}
1162:C:/Users/stapi/OneDrive/Desktop/GD32VW553/V1_MQTT_OK/GD32VW55X_Wifi_BLE_SDK/GD32VW55x_RELEASE_V1.0.2/MSDK/wpa_supplicant/src/ap\hw_features.c **** }
 1989              		.loc 1 1162 1
 1990 010e 4101     		addi	sp,sp,16
 1991              		.cfi_def_cfa_offset 0
 1992 0110 17030000 		tail	__riscv_restore_4
 1992      67000300 
 1993              		.cfi_restore 19
 1994              		.cfi_restore 18
 1995              		.cfi_restore 9
 1996              		.cfi_restore 8
 1997              		.cfi_restore 1
 1998              		.cfi_def_cfa_offset -32
 1999              	.LVL151:
 2000              	.L227:
 2001              		.cfi_def_cfa_offset 0
1103:C:/Users/stapi/OneDrive/Desktop/GD32VW553/V1_MQTT_OK/GD32VW55X_Wifi_BLE_SDK/GD32VW55x_RELEASE_V1.0.2/MSDK/wpa_supplicant/src/ap\hw_features.c **** 
 2002              		.loc 1 1103 10
 2003 0118 7D55     		li	a0,-1
 2004              	.LVL152:
 2005              		.loc 1 1162 1
 2006 011a 8280     		ret
 2007              		.cfi_endproc
 2008              	.LFE190:
 2010              		.section	.rodata.hostapd_hw_mode_txt.str1.4,"aMS",@progbits,1
 2011              		.align	2
 2012              	.LC49:
 2013 0000 554E4B4E 		.string	"UNKNOWN"
 2013      4F574E00 
 2014              		.section	.text.hostapd_hw_mode_txt,"ax",@progbits
 2015              		.align	1
 2016              		.globl	hostapd_hw_mode_txt
 2018              	hostapd_hw_mode_txt:
 2019              	.LFB191:
1163:C:/Users/stapi/OneDrive/Desktop/GD32VW553/V1_MQTT_OK/GD32VW55X_Wifi_BLE_SDK/GD32VW55x_RELEASE_V1.0.2/MSDK/wpa_supplicant/src/ap\hw_features.c **** 
1164:C:/Users/stapi/OneDrive/Desktop/GD32VW553/V1_MQTT_OK/GD32VW55X_Wifi_BLE_SDK/GD32VW55x_RELEASE_V1.0.2/MSDK/wpa_supplicant/src/ap\hw_features.c **** 
1165:C:/Users/stapi/OneDrive/Desktop/GD32VW553/V1_MQTT_OK/GD32VW55X_Wifi_BLE_SDK/GD32VW55x_RELEASE_V1.0.2/MSDK/wpa_supplicant/src/ap\hw_features.c **** const char * hostapd_hw_mode_txt(int mode)
1166:C:/Users/stapi/OneDrive/Desktop/GD32VW553/V1_MQTT_OK/GD32VW55X_Wifi_BLE_SDK/GD32VW55x_RELEASE_V1.0.2/MSDK/wpa_supplicant/src/ap\hw_features.c **** {
 2020              		.loc 1 1166 1 is_stmt 1
 2021              		.cfi_startproc
 2022              	.LVL153:
1167:C:/Users/stapi/OneDrive/Desktop/GD32VW553/V1_MQTT_OK/GD32VW55X_Wifi_BLE_SDK/GD32VW55x_RELEASE_V1.0.2/MSDK/wpa_supplicant/src/ap\hw_features.c **** 	switch (mode) {
 2023              		.loc 1 1167 2
 2024 0000 8D47     		li	a5,3
 2025 0002 63EAA700 		bgtu	a0,a5,.L243
 2026 0006 B7070000 		lui	a5,%hi(.LANCHOR2)
 2027 000a 93870700 		addi	a5,a5,%lo(.LANCHOR2)
 2028 000e 3345F520 		sh2add	a0,a0,a5
 2029              	.LVL154:
 2030 0012 0841     		lw	a0,0(a0)
 2031 0014 8280     		ret
 2032              	.LVL155:
 2033              	.L243:
1166:C:/Users/stapi/OneDrive/Desktop/GD32VW553/V1_MQTT_OK/GD32VW55X_Wifi_BLE_SDK/GD32VW55x_RELEASE_V1.0.2/MSDK/wpa_supplicant/src/ap\hw_features.c **** 	switch (mode) {
 2034              		.loc 1 1166 1 is_stmt 0
 2035 0016 37050000 		lui	a0,%hi(.LC49)
 2036              	.LVL156:
 2037 001a 13050500 		addi	a0,a0,%lo(.LC49)
1168:C:/Users/stapi/OneDrive/Desktop/GD32VW553/V1_MQTT_OK/GD32VW55X_Wifi_BLE_SDK/GD32VW55x_RELEASE_V1.0.2/MSDK/wpa_supplicant/src/ap\hw_features.c **** 	case HOSTAPD_MODE_IEEE80211A:
1169:C:/Users/stapi/OneDrive/Desktop/GD32VW553/V1_MQTT_OK/GD32VW55X_Wifi_BLE_SDK/GD32VW55x_RELEASE_V1.0.2/MSDK/wpa_supplicant/src/ap\hw_features.c **** 		return "IEEE 802.11a";
1170:C:/Users/stapi/OneDrive/Desktop/GD32VW553/V1_MQTT_OK/GD32VW55X_Wifi_BLE_SDK/GD32VW55x_RELEASE_V1.0.2/MSDK/wpa_supplicant/src/ap\hw_features.c **** 	case HOSTAPD_MODE_IEEE80211B:
1171:C:/Users/stapi/OneDrive/Desktop/GD32VW553/V1_MQTT_OK/GD32VW55X_Wifi_BLE_SDK/GD32VW55x_RELEASE_V1.0.2/MSDK/wpa_supplicant/src/ap\hw_features.c **** 		return "IEEE 802.11b";
1172:C:/Users/stapi/OneDrive/Desktop/GD32VW553/V1_MQTT_OK/GD32VW55X_Wifi_BLE_SDK/GD32VW55x_RELEASE_V1.0.2/MSDK/wpa_supplicant/src/ap\hw_features.c **** 	case HOSTAPD_MODE_IEEE80211G:
1173:C:/Users/stapi/OneDrive/Desktop/GD32VW553/V1_MQTT_OK/GD32VW55X_Wifi_BLE_SDK/GD32VW55x_RELEASE_V1.0.2/MSDK/wpa_supplicant/src/ap\hw_features.c **** 		return "IEEE 802.11g";
1174:C:/Users/stapi/OneDrive/Desktop/GD32VW553/V1_MQTT_OK/GD32VW55X_Wifi_BLE_SDK/GD32VW55x_RELEASE_V1.0.2/MSDK/wpa_supplicant/src/ap\hw_features.c **** 	case HOSTAPD_MODE_IEEE80211AD:
1175:C:/Users/stapi/OneDrive/Desktop/GD32VW553/V1_MQTT_OK/GD32VW55X_Wifi_BLE_SDK/GD32VW55x_RELEASE_V1.0.2/MSDK/wpa_supplicant/src/ap\hw_features.c **** 		return "IEEE 802.11ad";
1176:C:/Users/stapi/OneDrive/Desktop/GD32VW553/V1_MQTT_OK/GD32VW55X_Wifi_BLE_SDK/GD32VW55x_RELEASE_V1.0.2/MSDK/wpa_supplicant/src/ap\hw_features.c **** 	default:
1177:C:/Users/stapi/OneDrive/Desktop/GD32VW553/V1_MQTT_OK/GD32VW55X_Wifi_BLE_SDK/GD32VW55x_RELEASE_V1.0.2/MSDK/wpa_supplicant/src/ap\hw_features.c **** 		return "UNKNOWN";
1178:C:/Users/stapi/OneDrive/Desktop/GD32VW553/V1_MQTT_OK/GD32VW55X_Wifi_BLE_SDK/GD32VW55x_RELEASE_V1.0.2/MSDK/wpa_supplicant/src/ap\hw_features.c **** 	}
1179:C:/Users/stapi/OneDrive/Desktop/GD32VW553/V1_MQTT_OK/GD32VW55X_Wifi_BLE_SDK/GD32VW55x_RELEASE_V1.0.2/MSDK/wpa_supplicant/src/ap\hw_features.c **** }
 2038              		.loc 1 1179 1
 2039 001e 8280     		ret
 2040              		.cfi_endproc
 2041              	.LFE191:
 2043              		.section	.text.hostapd_hw_get_freq,"ax",@progbits
 2044              		.align	1
 2045              		.globl	hostapd_hw_get_freq
 2047              	hostapd_hw_get_freq:
 2048              	.LFB192:
1180:C:/Users/stapi/OneDrive/Desktop/GD32VW553/V1_MQTT_OK/GD32VW55X_Wifi_BLE_SDK/GD32VW55x_RELEASE_V1.0.2/MSDK/wpa_supplicant/src/ap\hw_features.c **** 
1181:C:/Users/stapi/OneDrive/Desktop/GD32VW553/V1_MQTT_OK/GD32VW55X_Wifi_BLE_SDK/GD32VW55x_RELEASE_V1.0.2/MSDK/wpa_supplicant/src/ap\hw_features.c **** 
1182:C:/Users/stapi/OneDrive/Desktop/GD32VW553/V1_MQTT_OK/GD32VW55X_Wifi_BLE_SDK/GD32VW55x_RELEASE_V1.0.2/MSDK/wpa_supplicant/src/ap\hw_features.c **** int hostapd_hw_get_freq(struct hostapd_data *hapd, int chan)
1183:C:/Users/stapi/OneDrive/Desktop/GD32VW553/V1_MQTT_OK/GD32VW55X_Wifi_BLE_SDK/GD32VW55x_RELEASE_V1.0.2/MSDK/wpa_supplicant/src/ap\hw_features.c **** {
 2049              		.loc 1 1183 1 is_stmt 1
 2050              		.cfi_startproc
 2051              	.LVL157:
1184:C:/Users/stapi/OneDrive/Desktop/GD32VW553/V1_MQTT_OK/GD32VW55X_Wifi_BLE_SDK/GD32VW55x_RELEASE_V1.0.2/MSDK/wpa_supplicant/src/ap\hw_features.c **** 	return hw_get_freq(hapd->iface->current_mode, chan);
 2052              		.loc 1 1184 2
 2053              		.loc 1 1184 9 is_stmt 0
 2054 0000 1C41     		lw	a5,0(a0)
 2055 0002 03A54746 		lw	a0,1124(a5)
 2056              	.LVL158:
 2057 0006 17030000 		tail	hw_get_freq
 2057      67000300 
 2058              	.LVL159:
 2059              		.cfi_endproc
 2060              	.LFE192:
 2062              		.section	.text.hostapd_hw_get_channel,"ax",@progbits
 2063              		.align	1
 2064              		.globl	hostapd_hw_get_channel
 2066              	hostapd_hw_get_channel:
 2067              	.LFB193:
1185:C:/Users/stapi/OneDrive/Desktop/GD32VW553/V1_MQTT_OK/GD32VW55X_Wifi_BLE_SDK/GD32VW55x_RELEASE_V1.0.2/MSDK/wpa_supplicant/src/ap\hw_features.c **** }
1186:C:/Users/stapi/OneDrive/Desktop/GD32VW553/V1_MQTT_OK/GD32VW55X_Wifi_BLE_SDK/GD32VW55x_RELEASE_V1.0.2/MSDK/wpa_supplicant/src/ap\hw_features.c **** 
1187:C:/Users/stapi/OneDrive/Desktop/GD32VW553/V1_MQTT_OK/GD32VW55X_Wifi_BLE_SDK/GD32VW55x_RELEASE_V1.0.2/MSDK/wpa_supplicant/src/ap\hw_features.c **** 
1188:C:/Users/stapi/OneDrive/Desktop/GD32VW553/V1_MQTT_OK/GD32VW55X_Wifi_BLE_SDK/GD32VW55x_RELEASE_V1.0.2/MSDK/wpa_supplicant/src/ap\hw_features.c **** int hostapd_hw_get_channel(struct hostapd_data *hapd, int freq)
1189:C:/Users/stapi/OneDrive/Desktop/GD32VW553/V1_MQTT_OK/GD32VW55X_Wifi_BLE_SDK/GD32VW55x_RELEASE_V1.0.2/MSDK/wpa_supplicant/src/ap\hw_features.c **** {
 2068              		.loc 1 1189 1 is_stmt 1
 2069              		.cfi_startproc
 2070              	.LVL160:
 2071 0000 17030000 		call	t0,__riscv_save_4
 2071      E7020300 
 2072              		.cfi_offset 19, -20
 2073              		.cfi_offset 18, -16
 2074              		.cfi_offset 9, -12
 2075              		.cfi_offset 8, -8
 2076              		.cfi_offset 1, -4
 2077              		.cfi_def_cfa_offset 32
1190:C:/Users/stapi/OneDrive/Desktop/GD32VW553/V1_MQTT_OK/GD32VW55X_Wifi_BLE_SDK/GD32VW55x_RELEASE_V1.0.2/MSDK/wpa_supplicant/src/ap\hw_features.c **** 	int i, channel;
 2078              		.loc 1 1190 2
1191:C:/Users/stapi/OneDrive/Desktop/GD32VW553/V1_MQTT_OK/GD32VW55X_Wifi_BLE_SDK/GD32VW55x_RELEASE_V1.0.2/MSDK/wpa_supplicant/src/ap\hw_features.c **** 	struct hostapd_hw_modes *mode;
 2079              		.loc 1 1191 2
1192:C:/Users/stapi/OneDrive/Desktop/GD32VW553/V1_MQTT_OK/GD32VW55X_Wifi_BLE_SDK/GD32VW55x_RELEASE_V1.0.2/MSDK/wpa_supplicant/src/ap\hw_features.c **** 
1193:C:/Users/stapi/OneDrive/Desktop/GD32VW553/V1_MQTT_OK/GD32VW55X_Wifi_BLE_SDK/GD32VW55x_RELEASE_V1.0.2/MSDK/wpa_supplicant/src/ap\hw_features.c **** 	if (hapd->iface->current_mode) {
 2080              		.loc 1 1193 2
 2081              		.loc 1 1193 10 is_stmt 0
 2082 0008 1C41     		lw	a5,0(a0)
1189:C:/Users/stapi/OneDrive/Desktop/GD32VW553/V1_MQTT_OK/GD32VW55X_Wifi_BLE_SDK/GD32VW55x_RELEASE_V1.0.2/MSDK/wpa_supplicant/src/ap\hw_features.c **** 	int i, channel;
 2083              		.loc 1 1189 1
 2084 000a 2A84     		mv	s0,a0
 2085 000c 2E89     		mv	s2,a1
 2086              		.loc 1 1193 17
 2087 000e 03A74746 		lw	a4,1124(a5)
 2088              		.loc 1 1193 5
 2089 0012 19EF     		bne	a4,zero,.L247
 2090              	.LVL161:
 2091              	.L251:
1194:C:/Users/stapi/OneDrive/Desktop/GD32VW553/V1_MQTT_OK/GD32VW55X_Wifi_BLE_SDK/GD32VW55x_RELEASE_V1.0.2/MSDK/wpa_supplicant/src/ap\hw_features.c **** 		channel = hw_get_chan(hapd->iface->current_mode->mode, freq,
1195:C:/Users/stapi/OneDrive/Desktop/GD32VW553/V1_MQTT_OK/GD32VW55X_Wifi_BLE_SDK/GD32VW55x_RELEASE_V1.0.2/MSDK/wpa_supplicant/src/ap\hw_features.c **** 				      hapd->iface->hw_features,
1196:C:/Users/stapi/OneDrive/Desktop/GD32VW553/V1_MQTT_OK/GD32VW55X_Wifi_BLE_SDK/GD32VW55x_RELEASE_V1.0.2/MSDK/wpa_supplicant/src/ap\hw_features.c **** 				      hapd->iface->num_hw_features);
1197:C:/Users/stapi/OneDrive/Desktop/GD32VW553/V1_MQTT_OK/GD32VW55X_Wifi_BLE_SDK/GD32VW55x_RELEASE_V1.0.2/MSDK/wpa_supplicant/src/ap\hw_features.c **** 		if (channel)
1198:C:/Users/stapi/OneDrive/Desktop/GD32VW553/V1_MQTT_OK/GD32VW55X_Wifi_BLE_SDK/GD32VW55x_RELEASE_V1.0.2/MSDK/wpa_supplicant/src/ap\hw_features.c **** 			return channel;
1199:C:/Users/stapi/OneDrive/Desktop/GD32VW553/V1_MQTT_OK/GD32VW55X_Wifi_BLE_SDK/GD32VW55x_RELEASE_V1.0.2/MSDK/wpa_supplicant/src/ap\hw_features.c **** 	}
1200:C:/Users/stapi/OneDrive/Desktop/GD32VW553/V1_MQTT_OK/GD32VW55X_Wifi_BLE_SDK/GD32VW55x_RELEASE_V1.0.2/MSDK/wpa_supplicant/src/ap\hw_features.c **** 
1201:C:/Users/stapi/OneDrive/Desktop/GD32VW553/V1_MQTT_OK/GD32VW55X_Wifi_BLE_SDK/GD32VW55x_RELEASE_V1.0.2/MSDK/wpa_supplicant/src/ap\hw_features.c **** 	/* Check other available modes since the channel list for the current
1202:C:/Users/stapi/OneDrive/Desktop/GD32VW553/V1_MQTT_OK/GD32VW55X_Wifi_BLE_SDK/GD32VW55x_RELEASE_V1.0.2/MSDK/wpa_supplicant/src/ap\hw_features.c **** 	 * mode did not include the specified frequency. */
1203:C:/Users/stapi/OneDrive/Desktop/GD32VW553/V1_MQTT_OK/GD32VW55X_Wifi_BLE_SDK/GD32VW55x_RELEASE_V1.0.2/MSDK/wpa_supplicant/src/ap\hw_features.c **** 	if (!hapd->iface->hw_features)
 2092              		.loc 1 1203 2 is_stmt 1
 2093              		.loc 1 1203 18 is_stmt 0
 2094 0014 1C40     		lw	a5,0(s0)
 2095              		.loc 1 1203 5
 2096 0016 83A7C745 		lw	a5,1116(a5)
 2097 001a 89CB     		beq	a5,zero,.L248
1204:C:/Users/stapi/OneDrive/Desktop/GD32VW553/V1_MQTT_OK/GD32VW55X_Wifi_BLE_SDK/GD32VW55x_RELEASE_V1.0.2/MSDK/wpa_supplicant/src/ap\hw_features.c **** 		return 0;
1205:C:/Users/stapi/OneDrive/Desktop/GD32VW553/V1_MQTT_OK/GD32VW55X_Wifi_BLE_SDK/GD32VW55x_RELEASE_V1.0.2/MSDK/wpa_supplicant/src/ap\hw_features.c **** 	for (i = 0; i < hapd->iface->num_hw_features; i++) {
 2098              		.loc 1 1205 9
 2099 001c 8144     		li	s1,0
1206:C:/Users/stapi/OneDrive/Desktop/GD32VW553/V1_MQTT_OK/GD32VW55X_Wifi_BLE_SDK/GD32VW55x_RELEASE_V1.0.2/MSDK/wpa_supplicant/src/ap\hw_features.c **** 		mode = &hapd->iface->hw_features[i];
1207:C:/Users/stapi/OneDrive/Desktop/GD32VW553/V1_MQTT_OK/GD32VW55X_Wifi_BLE_SDK/GD32VW55x_RELEASE_V1.0.2/MSDK/wpa_supplicant/src/ap\hw_features.c **** 		channel = hw_get_chan(mode->mode, freq,
 2100              		.loc 1 1207 13
 2101 001e 9309C019 		li	s3,412
 2102              	.L249:
 2103              	.LVL162:
1205:C:/Users/stapi/OneDrive/Desktop/GD32VW553/V1_MQTT_OK/GD32VW55X_Wifi_BLE_SDK/GD32VW55x_RELEASE_V1.0.2/MSDK/wpa_supplicant/src/ap\hw_features.c **** 		mode = &hapd->iface->hw_features[i];
 2104              		.loc 1 1205 14 is_stmt 1 discriminator 1
1205:C:/Users/stapi/OneDrive/Desktop/GD32VW553/V1_MQTT_OK/GD32VW55X_Wifi_BLE_SDK/GD32VW55x_RELEASE_V1.0.2/MSDK/wpa_supplicant/src/ap\hw_features.c **** 		mode = &hapd->iface->hw_features[i];
 2105              		.loc 1 1205 22 is_stmt 0 discriminator 1
 2106 0022 1C40     		lw	a5,0(s0)
1205:C:/Users/stapi/OneDrive/Desktop/GD32VW553/V1_MQTT_OK/GD32VW55X_Wifi_BLE_SDK/GD32VW55x_RELEASE_V1.0.2/MSDK/wpa_supplicant/src/ap\hw_features.c **** 		mode = &hapd->iface->hw_features[i];
 2107              		.loc 1 1205 29 discriminator 1
 2108 0024 83A60746 		lw	a3,1120(a5)
1205:C:/Users/stapi/OneDrive/Desktop/GD32VW553/V1_MQTT_OK/GD32VW55X_Wifi_BLE_SDK/GD32VW55x_RELEASE_V1.0.2/MSDK/wpa_supplicant/src/ap\hw_features.c **** 		mode = &hapd->iface->hw_features[i];
 2109              		.loc 1 1205 2 discriminator 1
 2110 0028 63C2D402 		bgt	a3,s1,.L252
 2111              	.LVL163:
 2112              	.L248:
1204:C:/Users/stapi/OneDrive/Desktop/GD32VW553/V1_MQTT_OK/GD32VW55X_Wifi_BLE_SDK/GD32VW55x_RELEASE_V1.0.2/MSDK/wpa_supplicant/src/ap\hw_features.c **** 		return 0;
 2113              		.loc 1 1204 10
 2114 002c 0145     		li	a0,0
 2115 002e 19A8     		j	.L246
 2116              	.LVL164:
 2117              	.L247:
1194:C:/Users/stapi/OneDrive/Desktop/GD32VW553/V1_MQTT_OK/GD32VW55X_Wifi_BLE_SDK/GD32VW55x_RELEASE_V1.0.2/MSDK/wpa_supplicant/src/ap\hw_features.c **** 				      hapd->iface->hw_features,
 2118              		.loc 1 1194 3 is_stmt 1
1194:C:/Users/stapi/OneDrive/Desktop/GD32VW553/V1_MQTT_OK/GD32VW55X_Wifi_BLE_SDK/GD32VW55x_RELEASE_V1.0.2/MSDK/wpa_supplicant/src/ap\hw_features.c **** 				      hapd->iface->hw_features,
 2119              		.loc 1 1194 13 is_stmt 0
 2120 0030 83A60746 		lw	a3,1120(a5)
 2121 0034 03A6C745 		lw	a2,1116(a5)
 2122 0038 0843     		lw	a0,0(a4)
 2123 003a 97000000 		call	hw_get_chan
 2123      E7800000 
 2124              	.LVL165:
1197:C:/Users/stapi/OneDrive/Desktop/GD32VW553/V1_MQTT_OK/GD32VW55X_Wifi_BLE_SDK/GD32VW55x_RELEASE_V1.0.2/MSDK/wpa_supplicant/src/ap\hw_features.c **** 			return channel;
 2125              		.loc 1 1197 3 is_stmt 1
1197:C:/Users/stapi/OneDrive/Desktop/GD32VW553/V1_MQTT_OK/GD32VW55X_Wifi_BLE_SDK/GD32VW55x_RELEASE_V1.0.2/MSDK/wpa_supplicant/src/ap\hw_features.c **** 			return channel;
 2126              		.loc 1 1197 6 is_stmt 0
 2127 0042 69D9     		beq	a0,zero,.L251
 2128              	.LVL166:
 2129              	.L246:
1208:C:/Users/stapi/OneDrive/Desktop/GD32VW553/V1_MQTT_OK/GD32VW55X_Wifi_BLE_SDK/GD32VW55x_RELEASE_V1.0.2/MSDK/wpa_supplicant/src/ap\hw_features.c **** 				      hapd->iface->hw_features,
1209:C:/Users/stapi/OneDrive/Desktop/GD32VW553/V1_MQTT_OK/GD32VW55X_Wifi_BLE_SDK/GD32VW55x_RELEASE_V1.0.2/MSDK/wpa_supplicant/src/ap\hw_features.c **** 				      hapd->iface->num_hw_features);
1210:C:/Users/stapi/OneDrive/Desktop/GD32VW553/V1_MQTT_OK/GD32VW55X_Wifi_BLE_SDK/GD32VW55x_RELEASE_V1.0.2/MSDK/wpa_supplicant/src/ap\hw_features.c **** 		if (channel)
1211:C:/Users/stapi/OneDrive/Desktop/GD32VW553/V1_MQTT_OK/GD32VW55X_Wifi_BLE_SDK/GD32VW55x_RELEASE_V1.0.2/MSDK/wpa_supplicant/src/ap\hw_features.c **** 			return channel;
1212:C:/Users/stapi/OneDrive/Desktop/GD32VW553/V1_MQTT_OK/GD32VW55X_Wifi_BLE_SDK/GD32VW55x_RELEASE_V1.0.2/MSDK/wpa_supplicant/src/ap\hw_features.c **** 	}
1213:C:/Users/stapi/OneDrive/Desktop/GD32VW553/V1_MQTT_OK/GD32VW55X_Wifi_BLE_SDK/GD32VW55x_RELEASE_V1.0.2/MSDK/wpa_supplicant/src/ap\hw_features.c **** 	return 0;
1214:C:/Users/stapi/OneDrive/Desktop/GD32VW553/V1_MQTT_OK/GD32VW55X_Wifi_BLE_SDK/GD32VW55x_RELEASE_V1.0.2/MSDK/wpa_supplicant/src/ap\hw_features.c **** }
 2130              		.loc 1 1214 1
 2131 0044 17030000 		tail	__riscv_restore_4
 2131      67000300 
 2132              		.cfi_remember_state
 2133              		.cfi_restore 19
 2134              		.cfi_restore 18
 2135              		.cfi_restore 9
 2136              		.cfi_restore 8
 2137              		.cfi_restore 1
 2138              		.cfi_def_cfa_offset 0
 2139              	.LVL167:
 2140              	.L252:
 2141              		.cfi_restore_state
1206:C:/Users/stapi/OneDrive/Desktop/GD32VW553/V1_MQTT_OK/GD32VW55X_Wifi_BLE_SDK/GD32VW55x_RELEASE_V1.0.2/MSDK/wpa_supplicant/src/ap\hw_features.c **** 		channel = hw_get_chan(mode->mode, freq,
 2142              		.loc 1 1206 3 is_stmt 1
1206:C:/Users/stapi/OneDrive/Desktop/GD32VW553/V1_MQTT_OK/GD32VW55X_Wifi_BLE_SDK/GD32VW55x_RELEASE_V1.0.2/MSDK/wpa_supplicant/src/ap\hw_features.c **** 		channel = hw_get_chan(mode->mode, freq,
 2143              		.loc 1 1206 22 is_stmt 0
 2144 004c 03A6C745 		lw	a2,1116(a5)
 2145              	.LVL168:
1207:C:/Users/stapi/OneDrive/Desktop/GD32VW553/V1_MQTT_OK/GD32VW55X_Wifi_BLE_SDK/GD32VW55x_RELEASE_V1.0.2/MSDK/wpa_supplicant/src/ap\hw_features.c **** 				      hapd->iface->hw_features,
 2146              		.loc 1 1207 3 is_stmt 1
1207:C:/Users/stapi/OneDrive/Desktop/GD32VW553/V1_MQTT_OK/GD32VW55X_Wifi_BLE_SDK/GD32VW55x_RELEASE_V1.0.2/MSDK/wpa_supplicant/src/ap\hw_features.c **** 				      hapd->iface->hw_features,
 2147              		.loc 1 1207 13 is_stmt 0
 2148 0050 CA85     		mv	a1,s2
 2149 0052 B287     		mv	a5,a2
 2150 0054 FF9734C5 		maddr32	a5, s1, s3
 2151 0058 8843     		lw	a0,0(a5)
 2152 005a 97000000 		call	hw_get_chan
 2152      E7800000 
 2153              	.LVL169:
1210:C:/Users/stapi/OneDrive/Desktop/GD32VW553/V1_MQTT_OK/GD32VW55X_Wifi_BLE_SDK/GD32VW55x_RELEASE_V1.0.2/MSDK/wpa_supplicant/src/ap\hw_features.c **** 			return channel;
 2154              		.loc 1 1210 3 is_stmt 1
1210:C:/Users/stapi/OneDrive/Desktop/GD32VW553/V1_MQTT_OK/GD32VW55X_Wifi_BLE_SDK/GD32VW55x_RELEASE_V1.0.2/MSDK/wpa_supplicant/src/ap\hw_features.c **** 			return channel;
 2155              		.loc 1 1210 6 is_stmt 0
 2156 0062 6DF1     		bne	a0,zero,.L246
1205:C:/Users/stapi/OneDrive/Desktop/GD32VW553/V1_MQTT_OK/GD32VW55X_Wifi_BLE_SDK/GD32VW55x_RELEASE_V1.0.2/MSDK/wpa_supplicant/src/ap\hw_features.c **** 		mode = &hapd->iface->hw_features[i];
 2157              		.loc 1 1205 48 is_stmt 1 discriminator 2
1205:C:/Users/stapi/OneDrive/Desktop/GD32VW553/V1_MQTT_OK/GD32VW55X_Wifi_BLE_SDK/GD32VW55x_RELEASE_V1.0.2/MSDK/wpa_supplicant/src/ap\hw_features.c **** 		mode = &hapd->iface->hw_features[i];
 2158              		.loc 1 1205 49 is_stmt 0 discriminator 2
 2159 0064 8504     		addi	s1,s1,1
 2160              	.LVL170:
 2161 0066 75BF     		j	.L249
 2162              		.cfi_endproc
 2163              	.LFE193:
 2165              		.section	.text.hostapd_hw_skip_mode,"ax",@progbits
 2166              		.align	1
 2167              		.globl	hostapd_hw_skip_mode
 2169              	hostapd_hw_skip_mode:
 2170              	.LFB194:
1215:C:/Users/stapi/OneDrive/Desktop/GD32VW553/V1_MQTT_OK/GD32VW55X_Wifi_BLE_SDK/GD32VW55x_RELEASE_V1.0.2/MSDK/wpa_supplicant/src/ap\hw_features.c **** 
1216:C:/Users/stapi/OneDrive/Desktop/GD32VW553/V1_MQTT_OK/GD32VW55X_Wifi_BLE_SDK/GD32VW55x_RELEASE_V1.0.2/MSDK/wpa_supplicant/src/ap\hw_features.c **** 
1217:C:/Users/stapi/OneDrive/Desktop/GD32VW553/V1_MQTT_OK/GD32VW55X_Wifi_BLE_SDK/GD32VW55x_RELEASE_V1.0.2/MSDK/wpa_supplicant/src/ap\hw_features.c **** int hostapd_hw_skip_mode(struct hostapd_iface *iface,
1218:C:/Users/stapi/OneDrive/Desktop/GD32VW553/V1_MQTT_OK/GD32VW55X_Wifi_BLE_SDK/GD32VW55x_RELEASE_V1.0.2/MSDK/wpa_supplicant/src/ap\hw_features.c **** 			 struct hostapd_hw_modes *mode)
1219:C:/Users/stapi/OneDrive/Desktop/GD32VW553/V1_MQTT_OK/GD32VW55X_Wifi_BLE_SDK/GD32VW55x_RELEASE_V1.0.2/MSDK/wpa_supplicant/src/ap\hw_features.c **** {
 2171              		.loc 1 1219 1 is_stmt 1
 2172              		.cfi_startproc
 2173              	.LVL171:
1220:C:/Users/stapi/OneDrive/Desktop/GD32VW553/V1_MQTT_OK/GD32VW55X_Wifi_BLE_SDK/GD32VW55x_RELEASE_V1.0.2/MSDK/wpa_supplicant/src/ap\hw_features.c **** 	int i;
 2174              		.loc 1 1220 2
1221:C:/Users/stapi/OneDrive/Desktop/GD32VW553/V1_MQTT_OK/GD32VW55X_Wifi_BLE_SDK/GD32VW55x_RELEASE_V1.0.2/MSDK/wpa_supplicant/src/ap\hw_features.c **** 
1222:C:/Users/stapi/OneDrive/Desktop/GD32VW553/V1_MQTT_OK/GD32VW55X_Wifi_BLE_SDK/GD32VW55x_RELEASE_V1.0.2/MSDK/wpa_supplicant/src/ap\hw_features.c **** 	if (iface->current_mode)
 2175              		.loc 1 1222 2
 2176              		.loc 1 1222 11 is_stmt 0
 2177 0000 83274546 		lw	a5,1124(a0)
1219:C:/Users/stapi/OneDrive/Desktop/GD32VW553/V1_MQTT_OK/GD32VW55X_Wifi_BLE_SDK/GD32VW55x_RELEASE_V1.0.2/MSDK/wpa_supplicant/src/ap\hw_features.c **** 	int i;
 2178              		.loc 1 1219 1
 2179 0004 2A87     		mv	a4,a0
 2180              		.loc 1 1222 5
 2181 0006 91C7     		beq	a5,zero,.L258
1223:C:/Users/stapi/OneDrive/Desktop/GD32VW553/V1_MQTT_OK/GD32VW55X_Wifi_BLE_SDK/GD32VW55x_RELEASE_V1.0.2/MSDK/wpa_supplicant/src/ap\hw_features.c **** 		return mode != iface->current_mode;
 2182              		.loc 1 1223 3 is_stmt 1
 2183              		.loc 1 1223 15 is_stmt 0
 2184 0008 3385B740 		sub	a0,a5,a1
 2185              	.LVL172:
 2186 000c 3335A000 		snez	a0,a0
 2187 0010 8280     		ret
 2188              	.LVL173:
 2189              	.L258:
1224:C:/Users/stapi/OneDrive/Desktop/GD32VW553/V1_MQTT_OK/GD32VW55X_Wifi_BLE_SDK/GD32VW55x_RELEASE_V1.0.2/MSDK/wpa_supplicant/src/ap\hw_features.c **** 	if (mode->mode != HOSTAPD_MODE_IEEE80211B)
 2190              		.loc 1 1224 2 is_stmt 1
 2191              		.loc 1 1224 5 is_stmt 0
 2192 0012 9C41     		lw	a5,0(a1)
1225:C:/Users/stapi/OneDrive/Desktop/GD32VW553/V1_MQTT_OK/GD32VW55X_Wifi_BLE_SDK/GD32VW55x_RELEASE_V1.0.2/MSDK/wpa_supplicant/src/ap\hw_features.c **** 		return 0;
 2193              		.loc 1 1225 10
 2194 0014 0145     		li	a0,0
 2195              	.LVL174:
1224:C:/Users/stapi/OneDrive/Desktop/GD32VW553/V1_MQTT_OK/GD32VW55X_Wifi_BLE_SDK/GD32VW55x_RELEASE_V1.0.2/MSDK/wpa_supplicant/src/ap\hw_features.c **** 	if (mode->mode != HOSTAPD_MODE_IEEE80211B)
 2196              		.loc 1 1224 5
 2197 0016 85E7     		bne	a5,zero,.L257
1226:C:/Users/stapi/OneDrive/Desktop/GD32VW553/V1_MQTT_OK/GD32VW55X_Wifi_BLE_SDK/GD32VW55x_RELEASE_V1.0.2/MSDK/wpa_supplicant/src/ap\hw_features.c **** 	for (i = 0; i < iface->num_hw_features; i++) {
 2198              		.loc 1 1226 23
 2199 0018 03260746 		lw	a2,1120(a4)
1227:C:/Users/stapi/OneDrive/Desktop/GD32VW553/V1_MQTT_OK/GD32VW55X_Wifi_BLE_SDK/GD32VW55x_RELEASE_V1.0.2/MSDK/wpa_supplicant/src/ap\hw_features.c **** 		if (iface->hw_features[i].mode == HOSTAPD_MODE_IEEE80211G)
 2200              		.loc 1 1227 28
 2201 001c 9305C019 		li	a1,412
 2202              	.LVL175:
 2203              		.loc 1 1227 6
 2204 0020 0545     		li	a0,1
 2205              	.L260:
 2206              	.LVL176:
1226:C:/Users/stapi/OneDrive/Desktop/GD32VW553/V1_MQTT_OK/GD32VW55X_Wifi_BLE_SDK/GD32VW55x_RELEASE_V1.0.2/MSDK/wpa_supplicant/src/ap\hw_features.c **** 	for (i = 0; i < iface->num_hw_features; i++) {
 2207              		.loc 1 1226 14 is_stmt 1 discriminator 1
1226:C:/Users/stapi/OneDrive/Desktop/GD32VW553/V1_MQTT_OK/GD32VW55X_Wifi_BLE_SDK/GD32VW55x_RELEASE_V1.0.2/MSDK/wpa_supplicant/src/ap\hw_features.c **** 	for (i = 0; i < iface->num_hw_features; i++) {
 2208              		.loc 1 1226 2 is_stmt 0 discriminator 1
 2209 0022 63C4C700 		bgt	a2,a5,.L261
1225:C:/Users/stapi/OneDrive/Desktop/GD32VW553/V1_MQTT_OK/GD32VW55X_Wifi_BLE_SDK/GD32VW55x_RELEASE_V1.0.2/MSDK/wpa_supplicant/src/ap\hw_features.c **** 		return 0;
 2210              		.loc 1 1225 10
 2211 0026 0145     		li	a0,0
 2212 0028 8280     		ret
 2213              	.L261:
 2214              		.loc 1 1227 3 is_stmt 1
 2215              		.loc 1 1227 28 is_stmt 0
 2216 002a 8326C745 		lw	a3,1116(a4)
 2217 002e FF96B7C4 		maddr32	a3, a5, a1
 2218              		.loc 1 1227 6
 2219 0032 9442     		lw	a3,0(a3)
 2220 0034 6384A600 		beq	a3,a0,.L263
1226:C:/Users/stapi/OneDrive/Desktop/GD32VW553/V1_MQTT_OK/GD32VW55X_Wifi_BLE_SDK/GD32VW55x_RELEASE_V1.0.2/MSDK/wpa_supplicant/src/ap\hw_features.c **** 	for (i = 0; i < iface->num_hw_features; i++) {
 2221              		.loc 1 1226 42 is_stmt 1 discriminator 2
1226:C:/Users/stapi/OneDrive/Desktop/GD32VW553/V1_MQTT_OK/GD32VW55X_Wifi_BLE_SDK/GD32VW55x_RELEASE_V1.0.2/MSDK/wpa_supplicant/src/ap\hw_features.c **** 	for (i = 0; i < iface->num_hw_features; i++) {
 2222              		.loc 1 1226 43 is_stmt 0 discriminator 2
 2223 0038 8507     		addi	a5,a5,1
 2224              	.LVL177:
 2225 003a E5B7     		j	.L260
 2226              	.L263:
1228:C:/Users/stapi/OneDrive/Desktop/GD32VW553/V1_MQTT_OK/GD32VW55X_Wifi_BLE_SDK/GD32VW55x_RELEASE_V1.0.2/MSDK/wpa_supplicant/src/ap\hw_features.c **** 			return 1;
 2227              		.loc 1 1228 11
 2228 003c 0545     		li	a0,1
 2229              	.LVL178:
 2230              	.L257:
1229:C:/Users/stapi/OneDrive/Desktop/GD32VW553/V1_MQTT_OK/GD32VW55X_Wifi_BLE_SDK/GD32VW55x_RELEASE_V1.0.2/MSDK/wpa_supplicant/src/ap\hw_features.c **** 	}
1230:C:/Users/stapi/OneDrive/Desktop/GD32VW553/V1_MQTT_OK/GD32VW55X_Wifi_BLE_SDK/GD32VW55x_RELEASE_V1.0.2/MSDK/wpa_supplicant/src/ap\hw_features.c **** 	return 0;
1231:C:/Users/stapi/OneDrive/Desktop/GD32VW553/V1_MQTT_OK/GD32VW55X_Wifi_BLE_SDK/GD32VW55x_RELEASE_V1.0.2/MSDK/wpa_supplicant/src/ap\hw_features.c **** }
 2231              		.loc 1 1231 1
 2232 003e 8280     		ret
 2233              		.cfi_endproc
 2234              	.LFE194:
 2236              		.section	.rodata.str1.4,"aMS",@progbits,1
 2237              		.align	2
 2238              	.LC50:
 2239 0000 49454545 		.string	"IEEE 802.11b"
 2239      20383032 
 2239      2E313162 
 2239      00
 2240 000d 000000   		.align	2
 2241              	.LC51:
 2242 0010 49454545 		.string	"IEEE 802.11g"
 2242      20383032 
 2242      2E313167 
 2242      00
 2243 001d 000000   		.align	2
 2244              	.LC52:
 2245 0020 49454545 		.string	"IEEE 802.11a"
 2245      20383032 
 2245      2E313161 
 2245      00
 2246 002d 000000   		.align	2
 2247              	.LC53:
 2248 0030 49454545 		.string	"IEEE 802.11ad"
 2248      20383032 
 2248      2E313161 
 2248      6400
 2249              		.section	.rodata
 2250              		.align	2
 2251              		.set	.LANCHOR1,. + 0
 2252              	.LC0:
 2253 0000 3C000000 		.word	60
 2254 0004 78000000 		.word	120
 2255 0008 F0000000 		.word	240
 2256 000c FFFFFFFF 		.word	-1
 2257              	.LC1:
 2258 0010 0A000000 		.word	10
 2259 0014 14000000 		.word	20
 2260 0018 FFFFFFFF 		.word	-1
 2261              	.LC2:
 2262 001c 0A000000 		.word	10
 2263 0020 14000000 		.word	20
 2264 0024 37000000 		.word	55
 2265 0028 6E000000 		.word	110
 2266 002c FFFFFFFF 		.word	-1
 2267              		.section	.bss.info.0,"aw",@nobits
 2268              		.align	2
 2269              		.set	.LANCHOR0,. + 0
 2272              	info.0:
 2273 0000 00000000 		.zero	256
 2273      00000000 
 2273      00000000 
 2273      00000000 
 2273      00000000 
 2274              		.section	.rodata.CSWTCH.52,"a"
 2275              		.align	2
 2276              		.set	.LANCHOR2,. + 0
 2279              	CSWTCH.52:
 2280 0000 00000000 		.word	.LC50
 2281 0004 00000000 		.word	.LC51
 2282 0008 00000000 		.word	.LC52
 2283 000c 00000000 		.word	.LC53
 2284              		.text
 2285              	.Letext0:
 2286              		.file 4 "c:\\users\\stapi\\onedrive\\desktop\\gd32vw553\\embeddedbuilder_v1.4.7.26843\\tools\\nucl
 2287              		.file 5 "c:\\users\\stapi\\onedrive\\desktop\\gd32vw553\\embeddedbuilder_v1.4.7.26843\\tools\\nucl
 2288              		.file 6 "c:\\users\\stapi\\onedrive\\desktop\\gd32vw553\\embeddedbuilder_v1.4.7.26843\\tools\\nucl
 2289              		.file 7 "..\\..\\..\\..\\lwip\\lwip-2.1.2\\src\\include/lwip/arch.h"
 2290              		.file 8 "..\\..\\..\\..\\lwip\\lwip-2.1.2\\src\\include/lwip/inet.h"
 2291              		.file 9 "..\\..\\..\\..\\wpa_supplicant\\src/utils/common.h"
 2292              		.file 10 "..\\..\\..\\..\\wpa_supplicant\\src/utils/wpabuf.h"
 2293              		.file 11 "..\\..\\..\\..\\wpa_supplicant\\src/common/ieee802_11_defs.h"
 2294              		.file 12 "..\\..\\..\\..\\wpa_supplicant\\src/utils/wpa_debug.h"
 2295              		.file 13 "..\\..\\..\\..\\wpa_supplicant\\src/common/defs.h"
 2296              		.file 14 "..\\..\\..\\..\\wpa_supplicant\\src/common/ieee802_11_common.h"
 2297              		.file 15 "..\\..\\..\\..\\wpa_supplicant\\src/utils/list.h"
 2298              		.file 16 "..\\..\\..\\..\\wpa_supplicant\\src/drivers/driver.h"
 2299              		.file 17 "C:/Users/stapi/OneDrive/Desktop/GD32VW553/V1_MQTT_OK/GD32VW55X_Wifi_BLE_SDK/GD32VW55x_RE
 2300              		.file 18 "..\\..\\..\\..\\wpa_supplicant\\src/utils/ip_addr.h"
 2301              		.file 19 "..\\..\\..\\..\\wpa_supplicant\\src/wps/wps_defs.h"
 2302              		.file 20 "..\\..\\..\\..\\wpa_supplicant\\src/wps/wps.h"
 2303              		.file 21 "C:/Users/stapi/OneDrive/Desktop/GD32VW553/V1_MQTT_OK/GD32VW55X_Wifi_BLE_SDK/GD32VW55x_RE
 2304              		.file 22 "C:/Users/stapi/OneDrive/Desktop/GD32VW553/V1_MQTT_OK/GD32VW55X_Wifi_BLE_SDK/GD32VW55x_RE
 2305              		.file 23 "..\\..\\..\\..\\wpa_supplicant\\src/common/hw_features_common.h"
 2306              		.file 24 "C:/Users/stapi/OneDrive/Desktop/GD32VW553/V1_MQTT_OK/GD32VW55X_Wifi_BLE_SDK/GD32VW55x_RE
 2307              		.file 25 "<built-in>"
DEFINED SYMBOLS
                            *ABS*:0000000000000000 hw_features.c
C:\Users\stapi\AppData\Local\Temp\ccYEBfsk.s:40     .text.hostapd_check_chans:0000000000000000 hostapd_check_chans
C:\Users\stapi\AppData\Local\Temp\ccYEBfsk.s:44     .text.hostapd_check_chans:0000000000000000 .L0 
C:\Users\stapi\AppData\Local\Temp\ccYEBfsk.s:46     .text.hostapd_check_chans:0000000000000000 .L0 
C:\Users\stapi\AppData\Local\Temp\ccYEBfsk.s:47     .text.hostapd_check_chans:0000000000000008 .L0 
C:\Users\stapi\AppData\Local\Temp\ccYEBfsk.s:48     .text.hostapd_check_chans:0000000000000008 .L0 
C:\Users\stapi\AppData\Local\Temp\ccYEBfsk.s:49     .text.hostapd_check_chans:0000000000000008 .L0 
C:\Users\stapi\AppData\Local\Temp\ccYEBfsk.s:50     .text.hostapd_check_chans:0000000000000008 .L0 
C:\Users\stapi\AppData\Local\Temp\ccYEBfsk.s:52     .text.hostapd_check_chans:0000000000000008 .L0 
C:\Users\stapi\AppData\Local\Temp\ccYEBfsk.s:53     .text.hostapd_check_chans:0000000000000008 .L0 
C:\Users\stapi\AppData\Local\Temp\ccYEBfsk.s:55     .text.hostapd_check_chans:000000000000000c .L0 
C:\Users\stapi\AppData\Local\Temp\ccYEBfsk.s:61     .text.hostapd_check_chans:0000000000000010 .L0 
C:\Users\stapi\AppData\Local\Temp\ccYEBfsk.s:69     .text.hostapd_check_chans:0000000000000016 .L0 
C:\Users\stapi\AppData\Local\Temp\ccYEBfsk.s:70     .text.hostapd_check_chans:0000000000000016 .L0 
C:\Users\stapi\AppData\Local\Temp\ccYEBfsk.s:71     .text.hostapd_check_chans:0000000000000016 .L0 
C:\Users\stapi\AppData\Local\Temp\ccYEBfsk.s:72     .text.hostapd_check_chans:0000000000000016 .L0 
C:\Users\stapi\AppData\Local\Temp\ccYEBfsk.s:73     .text.hostapd_check_chans:0000000000000016 .L0 
C:\Users\stapi\AppData\Local\Temp\ccYEBfsk.s:75     .text.hostapd_check_chans:0000000000000018 .L0 
C:\Users\stapi\AppData\Local\Temp\ccYEBfsk.s:77     .text.hostapd_check_chans:000000000000001a .L0 
C:\Users\stapi\AppData\Local\Temp\ccYEBfsk.s:81     .text.hostapd_check_chans:0000000000000022 .L0 
C:\Users\stapi\AppData\Local\Temp\ccYEBfsk.s:82     .text.hostapd_check_chans:0000000000000022 .L0 
C:\Users\stapi\AppData\Local\Temp\ccYEBfsk.s:85     .text.hostapd_check_chans:0000000000000028 .L0 
C:\Users\stapi\AppData\Local\Temp\ccYEBfsk.s:87     .text.hostapd_check_chans:000000000000002a .L0 
C:\Users\stapi\AppData\Local\Temp\ccYEBfsk.s:89     .text.hostapd_check_chans:000000000000002e .L0 
C:\Users\stapi\AppData\Local\Temp\ccYEBfsk.s:90     .text.hostapd_check_chans:000000000000002e .L0 
C:\Users\stapi\AppData\Local\Temp\ccYEBfsk.s:93     .text.hostapd_check_chans:0000000000000034 .L0 
C:\Users\stapi\AppData\Local\Temp\ccYEBfsk.s:98     .text.hostapd_check_chans:000000000000003a .L0 
C:\Users\stapi\AppData\Local\Temp\ccYEBfsk.s:99     .text.hostapd_check_chans:000000000000003a .L0 
C:\Users\stapi\AppData\Local\Temp\ccYEBfsk.s:101    .text.hostapd_check_chans:000000000000003e .L0 
C:\Users\stapi\AppData\Local\Temp\ccYEBfsk.s:104    .text.hostapd_check_chans:0000000000000040 .L0 
C:\Users\stapi\AppData\Local\Temp\ccYEBfsk.s:109    .text.hostapd_check_chans:0000000000000044 .L0 
C:\Users\stapi\AppData\Local\Temp\ccYEBfsk.s:110    .text.hostapd_check_chans:0000000000000044 .L0 
C:\Users\stapi\AppData\Local\Temp\ccYEBfsk.s:112    .text.hostapd_check_chans:0000000000000048 .L0 
C:\Users\stapi\AppData\Local\Temp\ccYEBfsk.s:113    .text.hostapd_check_chans:0000000000000048 .L0 
C:\Users\stapi\AppData\Local\Temp\ccYEBfsk.s:123    .text.hostapd_check_chans:000000000000005c .L0 
C:\Users\stapi\AppData\Local\Temp\ccYEBfsk.s:124    .text.hostapd_check_chans:000000000000005c .L0 
C:\Users\stapi\AppData\Local\Temp\ccYEBfsk.s:125    .text.hostapd_check_chans:000000000000005c .L0 
C:\Users\stapi\AppData\Local\Temp\ccYEBfsk.s:129    .text.hostapd_check_chans:0000000000000064 .L0 
C:\Users\stapi\AppData\Local\Temp\ccYEBfsk.s:130    .text.hostapd_check_chans:0000000000000064 .L0 
C:\Users\stapi\AppData\Local\Temp\ccYEBfsk.s:132    .text.hostapd_check_chans:0000000000000068 .L0 
C:\Users\stapi\AppData\Local\Temp\ccYEBfsk.s:134    .text.hostapd_check_chans:000000000000006c .L0 
C:\Users\stapi\AppData\Local\Temp\ccYEBfsk.s:135    .text.hostapd_check_chans:000000000000006c .L0 
C:\Users\stapi\AppData\Local\Temp\ccYEBfsk.s:137    .text.hostapd_check_chans:0000000000000070 .L0 
C:\Users\stapi\AppData\Local\Temp\ccYEBfsk.s:138    .text.hostapd_check_chans:0000000000000070 .L0 
C:\Users\stapi\AppData\Local\Temp\ccYEBfsk.s:141    .text.hostapd_check_chans:0000000000000072 .L0 
C:\Users\stapi\AppData\Local\Temp\ccYEBfsk.s:146    .text.hostapd_check_chans:0000000000000072 .L0 
C:\Users\stapi\AppData\Local\Temp\ccYEBfsk.s:149    .text.hostapd_check_chans:0000000000000072 .L0 
C:\Users\stapi\AppData\Local\Temp\ccYEBfsk.s:150    .text.hostapd_check_chans:0000000000000072 .L0 
C:\Users\stapi\AppData\Local\Temp\ccYEBfsk.s:151    .text.hostapd_check_chans:0000000000000072 .L0 
C:\Users\stapi\AppData\Local\Temp\ccYEBfsk.s:152    .text.hostapd_check_chans:0000000000000072 .L0 
C:\Users\stapi\AppData\Local\Temp\ccYEBfsk.s:153    .text.hostapd_check_chans:0000000000000072 .L0 
C:\Users\stapi\AppData\Local\Temp\ccYEBfsk.s:157    .text.hostapd_check_chans:0000000000000076 .L0 
C:\Users\stapi\AppData\Local\Temp\ccYEBfsk.s:161    .text.hostapd_check_chans:0000000000000078 .L0 
C:\Users\stapi\AppData\Local\Temp\ccYEBfsk.s:163    .text.hostapd_check_chans:000000000000007a .L0 
C:\Users\stapi\AppData\Local\Temp\ccYEBfsk.s:164    .text.hostapd_check_chans:000000000000007a .L0 
C:\Users\stapi\AppData\Local\Temp\ccYEBfsk.s:172    .text.hostapd_check_chans:0000000000000092 .L0 
C:\Users\stapi\AppData\Local\Temp\ccYEBfsk.s:173    .text.hostapd_check_chans:0000000000000092 .L0 
C:\Users\stapi\AppData\Local\Temp\ccYEBfsk.s:175    .text.hostapd_check_chans:0000000000000094 .L0 
C:\Users\stapi\AppData\Local\Temp\ccYEBfsk.s:180    .text.hostapd_check_chans:000000000000009c .L0 
C:\Users\stapi\AppData\Local\Temp\ccYEBfsk.s:186    .text.hostapd_check_chans:00000000000000a6 .L0 
C:\Users\stapi\AppData\Local\Temp\ccYEBfsk.s:187    .text.hostapd_check_chans:00000000000000a6 .L0 
C:\Users\stapi\AppData\Local\Temp\ccYEBfsk.s:192    .text.hostapd_check_chans:00000000000000a8 .L0 
C:\Users\stapi\AppData\Local\Temp\ccYEBfsk.s:194    .text.hostapd_check_chans:00000000000000b2 .L0 
C:\Users\stapi\AppData\Local\Temp\ccYEBfsk.s:195    .text.hostapd_check_chans:00000000000000b2 .L0 
C:\Users\stapi\AppData\Local\Temp\ccYEBfsk.s:196    .text.hostapd_check_chans:00000000000000b2 .L0 
C:\Users\stapi\AppData\Local\Temp\ccYEBfsk.s:197    .text.hostapd_check_chans:00000000000000b2 .L0 
C:\Users\stapi\AppData\Local\Temp\ccYEBfsk.s:198    .text.hostapd_check_chans:00000000000000b2 .L0 
C:\Users\stapi\AppData\Local\Temp\ccYEBfsk.s:201    .text.hostapd_check_chans:00000000000000b2 .L0 
C:\Users\stapi\AppData\Local\Temp\ccYEBfsk.s:207    .text.hostapd_check_chans:00000000000000b2 .L0 
C:\Users\stapi\AppData\Local\Temp\ccYEBfsk.s:208    .text.hostapd_check_chans:00000000000000b2 .L0 
C:\Users\stapi\AppData\Local\Temp\ccYEBfsk.s:220    .text.hostapd_check_chans:00000000000000b6 .L0 
C:\Users\stapi\AppData\Local\Temp\ccYEBfsk.s:221    .text.hostapd_check_chans:00000000000000b6 .L0 
C:\Users\stapi\AppData\Local\Temp\ccYEBfsk.s:222    .text.hostapd_check_chans:00000000000000b6 .L0 
C:\Users\stapi\AppData\Local\Temp\ccYEBfsk.s:223    .text.hostapd_check_chans:00000000000000b6 .L0 
C:\Users\stapi\AppData\Local\Temp\ccYEBfsk.s:225    .text.hostapd_check_chans:00000000000000ba .L0 
C:\Users\stapi\AppData\Local\Temp\ccYEBfsk.s:229    .text.hostapd_check_chans:00000000000000bc .L0 
C:\Users\stapi\AppData\Local\Temp\ccYEBfsk.s:233    .text.hostapd_check_chans:00000000000000be .L0 
C:\Users\stapi\AppData\Local\Temp\ccYEBfsk.s:234    .text.hostapd_check_chans:00000000000000be .L0 
C:\Users\stapi\AppData\Local\Temp\ccYEBfsk.s:245    .text.hostapd_check_chans:00000000000000d6 .L0 
C:\Users\stapi\AppData\Local\Temp\ccYEBfsk.s:246    .text.hostapd_check_chans:00000000000000d6 .L0 
C:\Users\stapi\AppData\Local\Temp\ccYEBfsk.s:248    .text.hostapd_check_chans:00000000000000d8 .L0 
C:\Users\stapi\AppData\Local\Temp\ccYEBfsk.s:249    .text.hostapd_check_chans:00000000000000d8 .L0 
C:\Users\stapi\AppData\Local\Temp\ccYEBfsk.s:256    .text.hostapd_check_chans:00000000000000e0 .L0 
C:\Users\stapi\AppData\Local\Temp\ccYEBfsk.s:262    .text.hostapd_check_chans:00000000000000e2 .L0 
C:\Users\stapi\AppData\Local\Temp\ccYEBfsk.s:264    .text.hostapd_check_chans:00000000000000e4 .L0 
C:\Users\stapi\AppData\Local\Temp\ccYEBfsk.s:266    .text.hostapd_check_chans:00000000000000e6 .L0 
C:\Users\stapi\AppData\Local\Temp\ccYEBfsk.s:268    .text.hostapd_check_chans:00000000000000ea .L0 
C:\Users\stapi\AppData\Local\Temp\ccYEBfsk.s:273    .text.hostapd_check_chans:00000000000000f4 .L0 
C:\Users\stapi\AppData\Local\Temp\ccYEBfsk.s:275    .text.hostapd_check_chans:00000000000000f8 .L0 
C:\Users\stapi\AppData\Local\Temp\ccYEBfsk.s:291    .text.hostapd_check_chans:000000000000011e .L0 
C:\Users\stapi\AppData\Local\Temp\ccYEBfsk.s:292    .text.hostapd_check_chans:000000000000011e .L0 
C:\Users\stapi\AppData\Local\Temp\ccYEBfsk.s:300    .text.hostapd_check_chans:0000000000000128 .L0 
C:\Users\stapi\AppData\Local\Temp\ccYEBfsk.s:319    .text.hostapd_check_chans:000000000000013c .L0 
C:\Users\stapi\AppData\Local\Temp\ccYEBfsk.s:320    .text.hostapd_check_chans:000000000000013c .L0 
C:\Users\stapi\AppData\Local\Temp\ccYEBfsk.s:325    .text.hostapd_check_chans:0000000000000146 .L0 
C:\Users\stapi\AppData\Local\Temp\ccYEBfsk.s:332    .text.hostapd_free_hw_features:0000000000000000 hostapd_free_hw_features
C:\Users\stapi\AppData\Local\Temp\ccYEBfsk.s:335    .text.hostapd_free_hw_features:0000000000000000 .L0 
C:\Users\stapi\AppData\Local\Temp\ccYEBfsk.s:337    .text.hostapd_free_hw_features:0000000000000000 .L0 
C:\Users\stapi\AppData\Local\Temp\ccYEBfsk.s:338    .text.hostapd_free_hw_features:0000000000000000 .L0 
C:\Users\stapi\AppData\Local\Temp\ccYEBfsk.s:339    .text.hostapd_free_hw_features:0000000000000000 .L0 
C:\Users\stapi\AppData\Local\Temp\ccYEBfsk.s:340    .text.hostapd_free_hw_features:0000000000000000 .L0 
C:\Users\stapi\AppData\Local\Temp\ccYEBfsk.s:342    .text.hostapd_free_hw_features:0000000000000002 .L0 
C:\Users\stapi\AppData\Local\Temp\ccYEBfsk.s:343    .text.hostapd_free_hw_features:000000000000000a .L0 
C:\Users\stapi\AppData\Local\Temp\ccYEBfsk.s:344    .text.hostapd_free_hw_features:000000000000000a .L0 
C:\Users\stapi\AppData\Local\Temp\ccYEBfsk.s:345    .text.hostapd_free_hw_features:000000000000000a .L0 
C:\Users\stapi\AppData\Local\Temp\ccYEBfsk.s:346    .text.hostapd_free_hw_features:000000000000000a .L0 
C:\Users\stapi\AppData\Local\Temp\ccYEBfsk.s:347    .text.hostapd_free_hw_features:000000000000000a .L0 
C:\Users\stapi\AppData\Local\Temp\ccYEBfsk.s:348    .text.hostapd_free_hw_features:000000000000000a .L0 
C:\Users\stapi\AppData\Local\Temp\ccYEBfsk.s:355    .text.hostapd_free_hw_features:0000000000000012 .L0 
C:\Users\stapi\AppData\Local\Temp\ccYEBfsk.s:359    .text.hostapd_free_hw_features:0000000000000014 .L0 
C:\Users\stapi\AppData\Local\Temp\ccYEBfsk.s:360    .text.hostapd_free_hw_features:0000000000000014 .L0 
C:\Users\stapi\AppData\Local\Temp\ccYEBfsk.s:362    .text.hostapd_free_hw_features:0000000000000018 .L0 
C:\Users\stapi\AppData\Local\Temp\ccYEBfsk.s:368    .text.hostapd_free_hw_features:0000000000000022 .L0 
C:\Users\stapi\AppData\Local\Temp\ccYEBfsk.s:369    .text.hostapd_free_hw_features:000000000000002a .L0 
C:\Users\stapi\AppData\Local\Temp\ccYEBfsk.s:370    .text.hostapd_free_hw_features:000000000000002a .L0 
C:\Users\stapi\AppData\Local\Temp\ccYEBfsk.s:371    .text.hostapd_free_hw_features:000000000000002a .L0 
C:\Users\stapi\AppData\Local\Temp\ccYEBfsk.s:372    .text.hostapd_free_hw_features:000000000000002a .L0 
C:\Users\stapi\AppData\Local\Temp\ccYEBfsk.s:373    .text.hostapd_free_hw_features:000000000000002a .L0 
C:\Users\stapi\AppData\Local\Temp\ccYEBfsk.s:374    .text.hostapd_free_hw_features:000000000000002a .L0 
C:\Users\stapi\AppData\Local\Temp\ccYEBfsk.s:375    .text.hostapd_free_hw_features:000000000000002a .L0 
C:\Users\stapi\AppData\Local\Temp\ccYEBfsk.s:378    .text.hostapd_free_hw_features:000000000000002a .L0 
C:\Users\stapi\AppData\Local\Temp\ccYEBfsk.s:382    .text.hostapd_free_hw_features:000000000000002a .L0 
C:\Users\stapi\AppData\Local\Temp\ccYEBfsk.s:384    .text.hostapd_free_hw_features:000000000000002c .L0 
C:\Users\stapi\AppData\Local\Temp\ccYEBfsk.s:387    .text.hostapd_free_hw_features:000000000000002e .L0 
C:\Users\stapi\AppData\Local\Temp\ccYEBfsk.s:390    .text.hostapd_free_hw_features:0000000000000036 .L0 
C:\Users\stapi\AppData\Local\Temp\ccYEBfsk.s:395    .text.hostapd_free_hw_features:0000000000000044 .L0 
C:\Users\stapi\AppData\Local\Temp\ccYEBfsk.s:398    .text.hostapd_free_hw_features:0000000000000046 .L0 
C:\Users\stapi\AppData\Local\Temp\ccYEBfsk.s:399    .text.hostapd_free_hw_features:0000000000000046 .L0 
C:\Users\stapi\AppData\Local\Temp\ccYEBfsk.s:400    .text.hostapd_free_hw_features:0000000000000046 .L0 
C:\Users\stapi\AppData\Local\Temp\ccYEBfsk.s:401    .text.hostapd_free_hw_features:0000000000000046 .L0 
C:\Users\stapi\AppData\Local\Temp\ccYEBfsk.s:402    .text.hostapd_free_hw_features:0000000000000046 .L0 
C:\Users\stapi\AppData\Local\Temp\ccYEBfsk.s:403    .text.hostapd_free_hw_features:0000000000000046 .L0 
C:\Users\stapi\AppData\Local\Temp\ccYEBfsk.s:407    .text.hostapd_free_hw_features:0000000000000048 .L0 
C:\Users\stapi\AppData\Local\Temp\ccYEBfsk.s:433    .text.hostapd_get_hw_features:0000000000000000 hostapd_get_hw_features
C:\Users\stapi\AppData\Local\Temp\ccYEBfsk.s:436    .text.hostapd_get_hw_features:0000000000000000 .L0 
C:\Users\stapi\AppData\Local\Temp\ccYEBfsk.s:438    .text.hostapd_get_hw_features:0000000000000000 .L0 
C:\Users\stapi\AppData\Local\Temp\ccYEBfsk.s:439    .text.hostapd_get_hw_features:0000000000000008 .L0 
C:\Users\stapi\AppData\Local\Temp\ccYEBfsk.s:440    .text.hostapd_get_hw_features:0000000000000008 .L0 
C:\Users\stapi\AppData\Local\Temp\ccYEBfsk.s:441    .text.hostapd_get_hw_features:0000000000000008 .L0 
C:\Users\stapi\AppData\Local\Temp\ccYEBfsk.s:442    .text.hostapd_get_hw_features:0000000000000008 .L0 
C:\Users\stapi\AppData\Local\Temp\ccYEBfsk.s:443    .text.hostapd_get_hw_features:0000000000000008 .L0 
C:\Users\stapi\AppData\Local\Temp\ccYEBfsk.s:444    .text.hostapd_get_hw_features:0000000000000008 .L0 
C:\Users\stapi\AppData\Local\Temp\ccYEBfsk.s:445    .text.hostapd_get_hw_features:0000000000000008 .L0 
C:\Users\stapi\AppData\Local\Temp\ccYEBfsk.s:446    .text.hostapd_get_hw_features:0000000000000008 .L0 
C:\Users\stapi\AppData\Local\Temp\ccYEBfsk.s:447    .text.hostapd_get_hw_features:0000000000000008 .L0 
C:\Users\stapi\AppData\Local\Temp\ccYEBfsk.s:448    .text.hostapd_get_hw_features:0000000000000008 .L0 
C:\Users\stapi\AppData\Local\Temp\ccYEBfsk.s:449    .text.hostapd_get_hw_features:0000000000000008 .L0 
C:\Users\stapi\AppData\Local\Temp\ccYEBfsk.s:450    .text.hostapd_get_hw_features:0000000000000008 .L0 
C:\Users\stapi\AppData\Local\Temp\ccYEBfsk.s:451    .text.hostapd_get_hw_features:0000000000000008 .L0 
C:\Users\stapi\AppData\Local\Temp\ccYEBfsk.s:452    .text.hostapd_get_hw_features:0000000000000008 .L0 
C:\Users\stapi\AppData\Local\Temp\ccYEBfsk.s:454    .text.hostapd_get_hw_features:0000000000000008 .L0 
C:\Users\stapi\AppData\Local\Temp\ccYEBfsk.s:455    .text.hostapd_get_hw_features:0000000000000008 .L0 
C:\Users\stapi\AppData\Local\Temp\ccYEBfsk.s:457    .text.hostapd_get_hw_features:000000000000000a .L0 
C:\Users\stapi\AppData\Local\Temp\ccYEBfsk.s:458    .text.hostapd_get_hw_features:000000000000000c .L0 
C:\Users\stapi\AppData\Local\Temp\ccYEBfsk.s:460    .text.hostapd_get_hw_features:000000000000000c .L0 
C:\Users\stapi\AppData\Local\Temp\ccYEBfsk.s:462    .text.hostapd_get_hw_features:000000000000000e .L0 
C:\Users\stapi\AppData\Local\Temp\ccYEBfsk.s:465    .text.hostapd_get_hw_features:0000000000000012 .L0 
C:\Users\stapi\AppData\Local\Temp\ccYEBfsk.s:466    .text.hostapd_get_hw_features:0000000000000012 .L0 
C:\Users\stapi\AppData\Local\Temp\ccYEBfsk.s:467    .text.hostapd_get_hw_features:0000000000000012 .L0 
C:\Users\stapi\AppData\Local\Temp\ccYEBfsk.s:468    .text.hostapd_get_hw_features:0000000000000012 .L0 
C:\Users\stapi\AppData\Local\Temp\ccYEBfsk.s:469    .text.hostapd_get_hw_features:0000000000000012 .L0 
C:\Users\stapi\AppData\Local\Temp\ccYEBfsk.s:470    .text.hostapd_get_hw_features:0000000000000012 .L0 
C:\Users\stapi\AppData\Local\Temp\ccYEBfsk.s:475    .text.hostapd_get_hw_features:000000000000001c .L0 
C:\Users\stapi\AppData\Local\Temp\ccYEBfsk.s:478    .text.hostapd_get_hw_features:000000000000001e .L0 
C:\Users\stapi\AppData\Local\Temp\ccYEBfsk.s:481    .text.hostapd_get_hw_features:0000000000000020 .L0 
C:\Users\stapi\AppData\Local\Temp\ccYEBfsk.s:483    .text.hostapd_get_hw_features:0000000000000024 .L0 
C:\Users\stapi\AppData\Local\Temp\ccYEBfsk.s:484    .text.hostapd_get_hw_features:0000000000000024 .L0 
C:\Users\stapi\AppData\Local\Temp\ccYEBfsk.s:486    .text.hostapd_get_hw_features:000000000000002c .L0 
C:\Users\stapi\AppData\Local\Temp\ccYEBfsk.s:487    .text.hostapd_get_hw_features:000000000000002c .L0 
C:\Users\stapi\AppData\Local\Temp\ccYEBfsk.s:488    .text.hostapd_get_hw_features:000000000000002c .L0 
C:\Users\stapi\AppData\Local\Temp\ccYEBfsk.s:489    .text.hostapd_get_hw_features:000000000000002c .L0 
C:\Users\stapi\AppData\Local\Temp\ccYEBfsk.s:490    .text.hostapd_get_hw_features:000000000000002c .L0 
C:\Users\stapi\AppData\Local\Temp\ccYEBfsk.s:491    .text.hostapd_get_hw_features:000000000000002c .L0 
C:\Users\stapi\AppData\Local\Temp\ccYEBfsk.s:492    .text.hostapd_get_hw_features:000000000000002c .L0 
C:\Users\stapi\AppData\Local\Temp\ccYEBfsk.s:493    .text.hostapd_get_hw_features:000000000000002c .L0 
C:\Users\stapi\AppData\Local\Temp\ccYEBfsk.s:494    .text.hostapd_get_hw_features:000000000000002c .L0 
C:\Users\stapi\AppData\Local\Temp\ccYEBfsk.s:495    .text.hostapd_get_hw_features:000000000000002c .L0 
C:\Users\stapi\AppData\Local\Temp\ccYEBfsk.s:496    .text.hostapd_get_hw_features:000000000000002c .L0 
C:\Users\stapi\AppData\Local\Temp\ccYEBfsk.s:497    .text.hostapd_get_hw_features:000000000000002c .L0 
C:\Users\stapi\AppData\Local\Temp\ccYEBfsk.s:498    .text.hostapd_get_hw_features:000000000000002c .L0 
C:\Users\stapi\AppData\Local\Temp\ccYEBfsk.s:499    .text.hostapd_get_hw_features:000000000000002c .L0 
C:\Users\stapi\AppData\Local\Temp\ccYEBfsk.s:501    .text.hostapd_get_hw_features:000000000000002c .L0 
C:\Users\stapi\AppData\Local\Temp\ccYEBfsk.s:504    .text.hostapd_get_hw_features:000000000000002e .L0 
C:\Users\stapi\AppData\Local\Temp\ccYEBfsk.s:505    .text.hostapd_get_hw_features:000000000000002e .L0 
C:\Users\stapi\AppData\Local\Temp\ccYEBfsk.s:514    .text.hostapd_get_hw_features:0000000000000044 .L0 
C:\Users\stapi\AppData\Local\Temp\ccYEBfsk.s:515    .text.hostapd_get_hw_features:0000000000000044 .L0 
C:\Users\stapi\AppData\Local\Temp\ccYEBfsk.s:517    .text.hostapd_get_hw_features:0000000000000046 .L0 
C:\Users\stapi\AppData\Local\Temp\ccYEBfsk.s:518    .text.hostapd_get_hw_features:0000000000000046 .L0 
C:\Users\stapi\AppData\Local\Temp\ccYEBfsk.s:520    .text.hostapd_get_hw_features:000000000000004a .L0 
C:\Users\stapi\AppData\Local\Temp\ccYEBfsk.s:523    .text.hostapd_get_hw_features:0000000000000052 .L0 
C:\Users\stapi\AppData\Local\Temp\ccYEBfsk.s:525    .text.hostapd_get_hw_features:0000000000000056 .L0 
C:\Users\stapi\AppData\Local\Temp\ccYEBfsk.s:526    .text.hostapd_get_hw_features:0000000000000056 .L0 
C:\Users\stapi\AppData\Local\Temp\ccYEBfsk.s:530    .text.hostapd_get_hw_features:000000000000005a .L0 
C:\Users\stapi\AppData\Local\Temp\ccYEBfsk.s:534    .text.hostapd_get_hw_features:000000000000005e .L0 
C:\Users\stapi\AppData\Local\Temp\ccYEBfsk.s:540    .text.hostapd_get_hw_features:0000000000000062 .L0 
C:\Users\stapi\AppData\Local\Temp\ccYEBfsk.s:542    .text.hostapd_get_hw_features:0000000000000066 .L0 
C:\Users\stapi\AppData\Local\Temp\ccYEBfsk.s:545    .text.hostapd_get_hw_features:000000000000006e .L0 
C:\Users\stapi\AppData\Local\Temp\ccYEBfsk.s:546    .text.hostapd_get_hw_features:000000000000006e .L0 
C:\Users\stapi\AppData\Local\Temp\ccYEBfsk.s:552    .text.hostapd_get_hw_features:0000000000000072 .L0 
C:\Users\stapi\AppData\Local\Temp\ccYEBfsk.s:558    .text.hostapd_get_hw_features:0000000000000076 .L0 
C:\Users\stapi\AppData\Local\Temp\ccYEBfsk.s:560    .text.hostapd_get_hw_features:000000000000007a .L0 
C:\Users\stapi\AppData\Local\Temp\ccYEBfsk.s:561    .text.hostapd_get_hw_features:000000000000007a .L0 
C:\Users\stapi\AppData\Local\Temp\ccYEBfsk.s:564    .text.hostapd_get_hw_features:000000000000007e .L0 
C:\Users\stapi\AppData\Local\Temp\ccYEBfsk.s:565    .text.hostapd_get_hw_features:000000000000007e .L0 
C:\Users\stapi\AppData\Local\Temp\ccYEBfsk.s:569    .text.hostapd_get_hw_features:0000000000000080 .L0 
C:\Users\stapi\AppData\Local\Temp\ccYEBfsk.s:573    .text.hostapd_get_hw_features:0000000000000084 .L0 
C:\Users\stapi\AppData\Local\Temp\ccYEBfsk.s:575    .text.hostapd_get_hw_features:0000000000000088 .L0 
C:\Users\stapi\AppData\Local\Temp\ccYEBfsk.s:583    .text.hostapd_get_hw_features:000000000000008c .L0 
C:\Users\stapi\AppData\Local\Temp\ccYEBfsk.s:584    .text.hostapd_get_hw_features:000000000000008c .L0 
C:\Users\stapi\AppData\Local\Temp\ccYEBfsk.s:586    .text.hostapd_get_hw_features:0000000000000090 .L0 
C:\Users\stapi\AppData\Local\Temp\ccYEBfsk.s:590    .text.hostapd_get_hw_features:0000000000000094 .L0 
C:\Users\stapi\AppData\Local\Temp\ccYEBfsk.s:591    .text.hostapd_get_hw_features:0000000000000094 .L0 
C:\Users\stapi\AppData\Local\Temp\ccYEBfsk.s:592    .text.hostapd_get_hw_features:0000000000000094 .L0 
C:\Users\stapi\AppData\Local\Temp\ccYEBfsk.s:595    .text.hostapd_get_hw_features:000000000000009c .L0 
C:\Users\stapi\AppData\Local\Temp\ccYEBfsk.s:597    .text.hostapd_get_hw_features:00000000000000a0 .L0 
C:\Users\stapi\AppData\Local\Temp\ccYEBfsk.s:605    .text.hostapd_get_hw_features:00000000000000a8 .L0 
C:\Users\stapi\AppData\Local\Temp\ccYEBfsk.s:606    .text.hostapd_get_hw_features:00000000000000a8 .L0 
C:\Users\stapi\AppData\Local\Temp\ccYEBfsk.s:611    .text.hostapd_get_hw_features:00000000000000ac .L0 
C:\Users\stapi\AppData\Local\Temp\ccYEBfsk.s:616    .text.hostapd_get_hw_features:00000000000000ae .L0 
C:\Users\stapi\AppData\Local\Temp\ccYEBfsk.s:623    .text.hostapd_get_hw_features:00000000000000b2 .L0 
C:\Users\stapi\AppData\Local\Temp\ccYEBfsk.s:624    .text.hostapd_get_hw_features:00000000000000b2 .L0 
C:\Users\stapi\AppData\Local\Temp\ccYEBfsk.s:628    .text.hostapd_get_hw_features:00000000000000b8 .L0 
C:\Users\stapi\AppData\Local\Temp\ccYEBfsk.s:629    .text.hostapd_get_hw_features:00000000000000b8 .L0 
C:\Users\stapi\AppData\Local\Temp\ccYEBfsk.s:639    .text.hostapd_get_hw_features:00000000000000c0 .L0 
C:\Users\stapi\AppData\Local\Temp\ccYEBfsk.s:640    .text.hostapd_get_hw_features:00000000000000c0 .L0 
C:\Users\stapi\AppData\Local\Temp\ccYEBfsk.s:641    .text.hostapd_get_hw_features:00000000000000c0 .L0 
C:\Users\stapi\AppData\Local\Temp\ccYEBfsk.s:645    .text.hostapd_get_hw_features:00000000000000ca .L0 
C:\Users\stapi\AppData\Local\Temp\ccYEBfsk.s:647    .text.hostapd_get_hw_features:00000000000000cc .L0 
C:\Users\stapi\AppData\Local\Temp\ccYEBfsk.s:649    .text.hostapd_get_hw_features:00000000000000d0 .L0 
C:\Users\stapi\AppData\Local\Temp\ccYEBfsk.s:651    .text.hostapd_get_hw_features:00000000000000d2 .L0 
C:\Users\stapi\AppData\Local\Temp\ccYEBfsk.s:653    .text.hostapd_get_hw_features:00000000000000d4 .L0 
C:\Users\stapi\AppData\Local\Temp\ccYEBfsk.s:656    .text.hostapd_get_hw_features:00000000000000d8 .L0 
C:\Users\stapi\AppData\Local\Temp\ccYEBfsk.s:657    .text.hostapd_get_hw_features:00000000000000d8 .L0 
C:\Users\stapi\AppData\Local\Temp\ccYEBfsk.s:660    .text.hostapd_get_hw_features:00000000000000de .L0 
C:\Users\stapi\AppData\Local\Temp\ccYEBfsk.s:664    .text.hostapd_get_hw_features:00000000000000e0 .L0 
C:\Users\stapi\AppData\Local\Temp\ccYEBfsk.s:666    .text.hostapd_get_hw_features:00000000000000e4 .L0 
C:\Users\stapi\AppData\Local\Temp\ccYEBfsk.s:669    .text.hostapd_get_hw_features:00000000000000e6 .L0 
C:\Users\stapi\AppData\Local\Temp\ccYEBfsk.s:670    .text.hostapd_get_hw_features:00000000000000e6 .L0 
C:\Users\stapi\AppData\Local\Temp\ccYEBfsk.s:673    .text.hostapd_get_hw_features:00000000000000ec .L0 
C:\Users\stapi\AppData\Local\Temp\ccYEBfsk.s:677    .text.hostapd_get_hw_features:00000000000000ee .L0 
C:\Users\stapi\AppData\Local\Temp\ccYEBfsk.s:678    .text.hostapd_get_hw_features:00000000000000ee .L0 
C:\Users\stapi\AppData\Local\Temp\ccYEBfsk.s:680    .text.hostapd_get_hw_features:00000000000000f0 .L0 
C:\Users\stapi\AppData\Local\Temp\ccYEBfsk.s:682    .text.hostapd_get_hw_features:00000000000000f4 .L0 
C:\Users\stapi\AppData\Local\Temp\ccYEBfsk.s:684    .text.hostapd_get_hw_features:00000000000000f6 .L0 
C:\Users\stapi\AppData\Local\Temp\ccYEBfsk.s:687    .text.hostapd_get_hw_features:00000000000000fc .L0 
C:\Users\stapi\AppData\Local\Temp\ccYEBfsk.s:689    .text.hostapd_get_hw_features:0000000000000100 .L0 
C:\Users\stapi\AppData\Local\Temp\ccYEBfsk.s:696    .text.hostapd_get_hw_features:0000000000000108 .L0 
C:\Users\stapi\AppData\Local\Temp\ccYEBfsk.s:697    .text.hostapd_get_hw_features:0000000000000108 .L0 
C:\Users\stapi\AppData\Local\Temp\ccYEBfsk.s:698    .text.hostapd_get_hw_features:0000000000000108 .L0 
C:\Users\stapi\AppData\Local\Temp\ccYEBfsk.s:699    .text.hostapd_get_hw_features:0000000000000108 .L0 
C:\Users\stapi\AppData\Local\Temp\ccYEBfsk.s:701    .text.hostapd_get_hw_features:000000000000010c .L0 
C:\Users\stapi\AppData\Local\Temp\ccYEBfsk.s:713    .text.hostapd_get_hw_features:0000000000000122 .L0 
C:\Users\stapi\AppData\Local\Temp\ccYEBfsk.s:723    .text.hostapd_get_hw_features:0000000000000138 .L0 
C:\Users\stapi\AppData\Local\Temp\ccYEBfsk.s:724    .text.hostapd_get_hw_features:0000000000000138 .L0 
C:\Users\stapi\AppData\Local\Temp\ccYEBfsk.s:733    .text.hostapd_get_hw_features:000000000000013c .L0 
C:\Users\stapi\AppData\Local\Temp\ccYEBfsk.s:736    .text.hostapd_get_hw_features:0000000000000144 .L0 
C:\Users\stapi\AppData\Local\Temp\ccYEBfsk.s:739    .text.hostapd_get_hw_features:0000000000000146 .L0 
C:\Users\stapi\AppData\Local\Temp\ccYEBfsk.s:748    .text.hostapd_get_hw_features:000000000000015a .L0 
C:\Users\stapi\AppData\Local\Temp\ccYEBfsk.s:751    .text.hostapd_get_hw_features:0000000000000162 .L0 
C:\Users\stapi\AppData\Local\Temp\ccYEBfsk.s:752    .text.hostapd_get_hw_features:0000000000000162 .L0 
C:\Users\stapi\AppData\Local\Temp\ccYEBfsk.s:756    .text.hostapd_get_hw_features:0000000000000168 .L0 
C:\Users\stapi\AppData\Local\Temp\ccYEBfsk.s:758    .text.hostapd_get_hw_features:000000000000016c .L0 
C:\Users\stapi\AppData\Local\Temp\ccYEBfsk.s:759    .text.hostapd_get_hw_features:000000000000016c .L0 
C:\Users\stapi\AppData\Local\Temp\ccYEBfsk.s:764    .text.hostapd_get_hw_features:0000000000000170 .L0 
C:\Users\stapi\AppData\Local\Temp\ccYEBfsk.s:768    .text.hostapd_get_hw_features:0000000000000174 .L0 
C:\Users\stapi\AppData\Local\Temp\ccYEBfsk.s:773    .text.hostapd_get_hw_features:000000000000017e .L0 
C:\Users\stapi\AppData\Local\Temp\ccYEBfsk.s:780    .text.hostapd_get_hw_features:0000000000000188 .L0 
C:\Users\stapi\AppData\Local\Temp\ccYEBfsk.s:797    .text.hostapd_prepare_rates:0000000000000000 hostapd_prepare_rates
C:\Users\stapi\AppData\Local\Temp\ccYEBfsk.s:800    .text.hostapd_prepare_rates:0000000000000000 .L0 
C:\Users\stapi\AppData\Local\Temp\ccYEBfsk.s:802    .text.hostapd_prepare_rates:0000000000000000 .L0 
C:\Users\stapi\AppData\Local\Temp\ccYEBfsk.s:803    .text.hostapd_prepare_rates:0000000000000008 .L0 
C:\Users\stapi\AppData\Local\Temp\ccYEBfsk.s:804    .text.hostapd_prepare_rates:0000000000000008 .L0 
C:\Users\stapi\AppData\Local\Temp\ccYEBfsk.s:805    .text.hostapd_prepare_rates:0000000000000008 .L0 
C:\Users\stapi\AppData\Local\Temp\ccYEBfsk.s:806    .text.hostapd_prepare_rates:0000000000000008 .L0 
C:\Users\stapi\AppData\Local\Temp\ccYEBfsk.s:807    .text.hostapd_prepare_rates:0000000000000008 .L0 
C:\Users\stapi\AppData\Local\Temp\ccYEBfsk.s:808    .text.hostapd_prepare_rates:0000000000000008 .L0 
C:\Users\stapi\AppData\Local\Temp\ccYEBfsk.s:809    .text.hostapd_prepare_rates:0000000000000008 .L0 
C:\Users\stapi\AppData\Local\Temp\ccYEBfsk.s:810    .text.hostapd_prepare_rates:0000000000000008 .L0 
C:\Users\stapi\AppData\Local\Temp\ccYEBfsk.s:811    .text.hostapd_prepare_rates:0000000000000008 .L0 
C:\Users\stapi\AppData\Local\Temp\ccYEBfsk.s:812    .text.hostapd_prepare_rates:0000000000000008 .L0 
C:\Users\stapi\AppData\Local\Temp\ccYEBfsk.s:815    .text.hostapd_prepare_rates:0000000000000008 .L0 
C:\Users\stapi\AppData\Local\Temp\ccYEBfsk.s:816    .text.hostapd_prepare_rates:0000000000000008 .L0 
C:\Users\stapi\AppData\Local\Temp\ccYEBfsk.s:817    .text.hostapd_prepare_rates:0000000000000008 .L0 
C:\Users\stapi\AppData\Local\Temp\ccYEBfsk.s:818    .text.hostapd_prepare_rates:000000000000000a .L0 
C:\Users\stapi\AppData\Local\Temp\ccYEBfsk.s:820    .text.hostapd_prepare_rates:000000000000000a .L0 
C:\Users\stapi\AppData\Local\Temp\ccYEBfsk.s:822    .text.hostapd_prepare_rates:000000000000000c .L0 
C:\Users\stapi\AppData\Local\Temp\ccYEBfsk.s:826    .text.hostapd_prepare_rates:0000000000000014 .L0 
C:\Users\stapi\AppData\Local\Temp\ccYEBfsk.s:828    .text.hostapd_prepare_rates:0000000000000016 .L0 
C:\Users\stapi\AppData\Local\Temp\ccYEBfsk.s:835    .text.hostapd_prepare_rates:0000000000000026 .L0 
C:\Users\stapi\AppData\Local\Temp\ccYEBfsk.s:836    .text.hostapd_prepare_rates:0000000000000026 .L0 
C:\Users\stapi\AppData\Local\Temp\ccYEBfsk.s:842    .text.hostapd_prepare_rates:0000000000000036 .L0 
C:\Users\stapi\AppData\Local\Temp\ccYEBfsk.s:843    .text.hostapd_prepare_rates:0000000000000036 .L0 
C:\Users\stapi\AppData\Local\Temp\ccYEBfsk.s:849    .text.hostapd_prepare_rates:0000000000000046 .L0 
C:\Users\stapi\AppData\Local\Temp\ccYEBfsk.s:850    .text.hostapd_prepare_rates:0000000000000046 .L0 
C:\Users\stapi\AppData\Local\Temp\ccYEBfsk.s:851    .text.hostapd_prepare_rates:0000000000000046 .L0 
C:\Users\stapi\AppData\Local\Temp\ccYEBfsk.s:854    .text.hostapd_prepare_rates:000000000000004c .L0 
C:\Users\stapi\AppData\Local\Temp\ccYEBfsk.s:856    .text.hostapd_prepare_rates:0000000000000050 .L0 
C:\Users\stapi\AppData\Local\Temp\ccYEBfsk.s:857    .text.hostapd_prepare_rates:0000000000000050 .L0 
C:\Users\stapi\AppData\Local\Temp\ccYEBfsk.s:859    .text.hostapd_prepare_rates:0000000000000054 .L0 
C:\Users\stapi\AppData\Local\Temp\ccYEBfsk.s:863    .text.hostapd_prepare_rates:000000000000005e .L0 
C:\Users\stapi\AppData\Local\Temp\ccYEBfsk.s:865    .text.hostapd_prepare_rates:0000000000000062 .L0 
C:\Users\stapi\AppData\Local\Temp\ccYEBfsk.s:870    .text.hostapd_prepare_rates:0000000000000066 .L0 
C:\Users\stapi\AppData\Local\Temp\ccYEBfsk.s:871    .text.hostapd_prepare_rates:0000000000000066 .L0 
C:\Users\stapi\AppData\Local\Temp\ccYEBfsk.s:872    .text.hostapd_prepare_rates:0000000000000066 .L0 
C:\Users\stapi\AppData\Local\Temp\ccYEBfsk.s:876    .text.hostapd_prepare_rates:0000000000000068 .L0 
C:\Users\stapi\AppData\Local\Temp\ccYEBfsk.s:877    .text.hostapd_prepare_rates:0000000000000068 .L0 
C:\Users\stapi\AppData\Local\Temp\ccYEBfsk.s:879    .text.hostapd_prepare_rates:000000000000006c .L0 
C:\Users\stapi\AppData\Local\Temp\ccYEBfsk.s:882    .text.hostapd_prepare_rates:0000000000000072 .L0 
C:\Users\stapi\AppData\Local\Temp\ccYEBfsk.s:883    .text.hostapd_prepare_rates:0000000000000072 .L0 
C:\Users\stapi\AppData\Local\Temp\ccYEBfsk.s:885    .text.hostapd_prepare_rates:0000000000000074 .L0 
C:\Users\stapi\AppData\Local\Temp\ccYEBfsk.s:886    .text.hostapd_prepare_rates:0000000000000074 .L0 
C:\Users\stapi\AppData\Local\Temp\ccYEBfsk.s:890    .text.hostapd_prepare_rates:0000000000000076 .L0 
C:\Users\stapi\AppData\Local\Temp\ccYEBfsk.s:892    .text.hostapd_prepare_rates:000000000000007a .L0 
C:\Users\stapi\AppData\Local\Temp\ccYEBfsk.s:895    .text.hostapd_prepare_rates:000000000000007c .L0 
C:\Users\stapi\AppData\Local\Temp\ccYEBfsk.s:898    .text.hostapd_prepare_rates:0000000000000084 .L0 
C:\Users\stapi\AppData\Local\Temp\ccYEBfsk.s:899    .text.hostapd_prepare_rates:0000000000000084 .L0 
C:\Users\stapi\AppData\Local\Temp\ccYEBfsk.s:903    .text.hostapd_prepare_rates:000000000000008e .L0 
C:\Users\stapi\AppData\Local\Temp\ccYEBfsk.s:905    .text.hostapd_prepare_rates:0000000000000092 .L0 
C:\Users\stapi\AppData\Local\Temp\ccYEBfsk.s:906    .text.hostapd_prepare_rates:0000000000000092 .L0 
C:\Users\stapi\AppData\Local\Temp\ccYEBfsk.s:908    .text.hostapd_prepare_rates:0000000000000094 .L0 
C:\Users\stapi\AppData\Local\Temp\ccYEBfsk.s:914    .text.hostapd_prepare_rates:00000000000000a0 .L0 
C:\Users\stapi\AppData\Local\Temp\ccYEBfsk.s:918    .text.hostapd_prepare_rates:00000000000000ac .L0 
C:\Users\stapi\AppData\Local\Temp\ccYEBfsk.s:919    .text.hostapd_prepare_rates:00000000000000ac .L0 
C:\Users\stapi\AppData\Local\Temp\ccYEBfsk.s:921    .text.hostapd_prepare_rates:00000000000000b0 .L0 
C:\Users\stapi\AppData\Local\Temp\ccYEBfsk.s:927    .text.hostapd_prepare_rates:00000000000000b4 .L0 
C:\Users\stapi\AppData\Local\Temp\ccYEBfsk.s:928    .text.hostapd_prepare_rates:00000000000000b4 .L0 
C:\Users\stapi\AppData\Local\Temp\ccYEBfsk.s:934    .text.hostapd_prepare_rates:00000000000000ba .L0 
C:\Users\stapi\AppData\Local\Temp\ccYEBfsk.s:937    .text.hostapd_prepare_rates:00000000000000be .L0 
C:\Users\stapi\AppData\Local\Temp\ccYEBfsk.s:938    .text.hostapd_prepare_rates:00000000000000be .L0 
C:\Users\stapi\AppData\Local\Temp\ccYEBfsk.s:945    .text.hostapd_prepare_rates:00000000000000d0 .L0 
C:\Users\stapi\AppData\Local\Temp\ccYEBfsk.s:946    .text.hostapd_prepare_rates:00000000000000d0 .L0 
C:\Users\stapi\AppData\Local\Temp\ccYEBfsk.s:947    .text.hostapd_prepare_rates:00000000000000d0 .L0 
C:\Users\stapi\AppData\Local\Temp\ccYEBfsk.s:952    .text.hostapd_prepare_rates:00000000000000d4 .L0 
C:\Users\stapi\AppData\Local\Temp\ccYEBfsk.s:958    .text.hostapd_prepare_rates:00000000000000de .L0 
C:\Users\stapi\AppData\Local\Temp\ccYEBfsk.s:959    .text.hostapd_prepare_rates:00000000000000e0 .L0 
C:\Users\stapi\AppData\Local\Temp\ccYEBfsk.s:960    .text.hostapd_prepare_rates:00000000000000e0 .L0 
C:\Users\stapi\AppData\Local\Temp\ccYEBfsk.s:962    .text.hostapd_prepare_rates:00000000000000e8 .L0 
C:\Users\stapi\AppData\Local\Temp\ccYEBfsk.s:963    .text.hostapd_prepare_rates:00000000000000e8 .L0 
C:\Users\stapi\AppData\Local\Temp\ccYEBfsk.s:964    .text.hostapd_prepare_rates:00000000000000e8 .L0 
C:\Users\stapi\AppData\Local\Temp\ccYEBfsk.s:965    .text.hostapd_prepare_rates:00000000000000e8 .L0 
C:\Users\stapi\AppData\Local\Temp\ccYEBfsk.s:966    .text.hostapd_prepare_rates:00000000000000e8 .L0 
C:\Users\stapi\AppData\Local\Temp\ccYEBfsk.s:967    .text.hostapd_prepare_rates:00000000000000e8 .L0 
C:\Users\stapi\AppData\Local\Temp\ccYEBfsk.s:968    .text.hostapd_prepare_rates:00000000000000e8 .L0 
C:\Users\stapi\AppData\Local\Temp\ccYEBfsk.s:969    .text.hostapd_prepare_rates:00000000000000e8 .L0 
C:\Users\stapi\AppData\Local\Temp\ccYEBfsk.s:970    .text.hostapd_prepare_rates:00000000000000e8 .L0 
C:\Users\stapi\AppData\Local\Temp\ccYEBfsk.s:971    .text.hostapd_prepare_rates:00000000000000e8 .L0 
C:\Users\stapi\AppData\Local\Temp\ccYEBfsk.s:974    .text.hostapd_prepare_rates:00000000000000e8 .L0 
C:\Users\stapi\AppData\Local\Temp\ccYEBfsk.s:976    .text.hostapd_prepare_rates:00000000000000e8 .L0 
C:\Users\stapi\AppData\Local\Temp\ccYEBfsk.s:981    .text.hostapd_prepare_rates:00000000000000ee .L0 
C:\Users\stapi\AppData\Local\Temp\ccYEBfsk.s:982    .text.hostapd_prepare_rates:00000000000000ee .L0 
C:\Users\stapi\AppData\Local\Temp\ccYEBfsk.s:990    .text.hostapd_prepare_rates:00000000000000f2 .L0 
C:\Users\stapi\AppData\Local\Temp\ccYEBfsk.s:991    .text.hostapd_prepare_rates:00000000000000f2 .L0 
C:\Users\stapi\AppData\Local\Temp\ccYEBfsk.s:998    .text.hostapd_prepare_rates:00000000000000fc .L0 
C:\Users\stapi\AppData\Local\Temp\ccYEBfsk.s:1000   .text.hostapd_prepare_rates:0000000000000100 .L0 
C:\Users\stapi\AppData\Local\Temp\ccYEBfsk.s:1001   .text.hostapd_prepare_rates:0000000000000100 .L0 
C:\Users\stapi\AppData\Local\Temp\ccYEBfsk.s:1003   .text.hostapd_prepare_rates:0000000000000102 .L0 
C:\Users\stapi\AppData\Local\Temp\ccYEBfsk.s:1005   .text.hostapd_prepare_rates:0000000000000104 .L0 
C:\Users\stapi\AppData\Local\Temp\ccYEBfsk.s:1008   .text.hostapd_prepare_rates:0000000000000106 .L0 
C:\Users\stapi\AppData\Local\Temp\ccYEBfsk.s:1013   .text.hostapd_prepare_rates:000000000000010a .L0 
C:\Users\stapi\AppData\Local\Temp\ccYEBfsk.s:1014   .text.hostapd_prepare_rates:000000000000010a .L0 
C:\Users\stapi\AppData\Local\Temp\ccYEBfsk.s:1017   .text.hostapd_prepare_rates:0000000000000112 .L0 
C:\Users\stapi\AppData\Local\Temp\ccYEBfsk.s:1018   .text.hostapd_prepare_rates:0000000000000112 .L0 
C:\Users\stapi\AppData\Local\Temp\ccYEBfsk.s:1020   .text.hostapd_prepare_rates:0000000000000116 .L0 
C:\Users\stapi\AppData\Local\Temp\ccYEBfsk.s:1022   .text.hostapd_prepare_rates:0000000000000118 .L0 
C:\Users\stapi\AppData\Local\Temp\ccYEBfsk.s:1024   .text.hostapd_prepare_rates:000000000000011a .L0 
C:\Users\stapi\AppData\Local\Temp\ccYEBfsk.s:1027   .text.hostapd_prepare_rates:000000000000011e .L0 
C:\Users\stapi\AppData\Local\Temp\ccYEBfsk.s:1029   .text.hostapd_prepare_rates:0000000000000120 .L0 
C:\Users\stapi\AppData\Local\Temp\ccYEBfsk.s:1032   .text.hostapd_prepare_rates:0000000000000126 .L0 
C:\Users\stapi\AppData\Local\Temp\ccYEBfsk.s:1034   .text.hostapd_prepare_rates:000000000000012a .L0 
C:\Users\stapi\AppData\Local\Temp\ccYEBfsk.s:1036   .text.hostapd_prepare_rates:000000000000012c .L0 
C:\Users\stapi\AppData\Local\Temp\ccYEBfsk.s:1039   .text.hostapd_prepare_rates:000000000000012e .L0 
C:\Users\stapi\AppData\Local\Temp\ccYEBfsk.s:1049   .text.hostapd_prepare_rates:0000000000000144 .L0 
C:\Users\stapi\AppData\Local\Temp\ccYEBfsk.s:1050   .text.hostapd_prepare_rates:0000000000000144 .L0 
C:\Users\stapi\AppData\Local\Temp\ccYEBfsk.s:1051   .text.hostapd_prepare_rates:0000000000000144 .L0 
C:\Users\stapi\AppData\Local\Temp\ccYEBfsk.s:1055   .text.hostapd_prepare_rates:000000000000014c .L0 
C:\Users\stapi\AppData\Local\Temp\ccYEBfsk.s:1058   .text.hostapd_prepare_rates:000000000000014e .L0 
C:\Users\stapi\AppData\Local\Temp\ccYEBfsk.s:1059   .text.hostapd_prepare_rates:000000000000014e .L0 
C:\Users\stapi\AppData\Local\Temp\ccYEBfsk.s:1061   .text.hostapd_prepare_rates:0000000000000152 .L0 
C:\Users\stapi\AppData\Local\Temp\ccYEBfsk.s:1063   .text.hostapd_prepare_rates:0000000000000156 .L0 
C:\Users\stapi\AppData\Local\Temp\ccYEBfsk.s:1065   .text.hostapd_prepare_rates:0000000000000158 .L0 
C:\Users\stapi\AppData\Local\Temp\ccYEBfsk.s:1068   .text.hostapd_prepare_rates:000000000000015c .L0 
C:\Users\stapi\AppData\Local\Temp\ccYEBfsk.s:1069   .text.hostapd_prepare_rates:000000000000015c .L0 
C:\Users\stapi\AppData\Local\Temp\ccYEBfsk.s:1073   .text.hostapd_prepare_rates:0000000000000164 .L0 
C:\Users\stapi\AppData\Local\Temp\ccYEBfsk.s:1075   .text.hostapd_prepare_rates:0000000000000166 .L0 
C:\Users\stapi\AppData\Local\Temp\ccYEBfsk.s:1076   .text.hostapd_prepare_rates:0000000000000166 .L0 
C:\Users\stapi\AppData\Local\Temp\ccYEBfsk.s:1079   .text.hostapd_prepare_rates:000000000000016e .L0 
C:\Users\stapi\AppData\Local\Temp\ccYEBfsk.s:1082   .text.hostapd_prepare_rates:0000000000000170 .L0 
C:\Users\stapi\AppData\Local\Temp\ccYEBfsk.s:1090   .text.hostapd_prepare_rates:0000000000000186 .L0 
C:\Users\stapi\AppData\Local\Temp\ccYEBfsk.s:1091   .text.hostapd_prepare_rates:0000000000000186 .L0 
C:\Users\stapi\AppData\Local\Temp\ccYEBfsk.s:1098   .text.hostapd_prepare_rates:0000000000000192 .L0 
C:\Users\stapi\AppData\Local\Temp\ccYEBfsk.s:1104   .text.hostapd_prepare_rates:00000000000001a2 .L0 
C:\Users\stapi\AppData\Local\Temp\ccYEBfsk.s:1108   .text.hostapd_prepare_rates:00000000000001a4 .L0 
C:\Users\stapi\AppData\Local\Temp\ccYEBfsk.s:1109   .text.hostapd_prepare_rates:00000000000001a4 .L0 
C:\Users\stapi\AppData\Local\Temp\ccYEBfsk.s:1116   .text.hostapd_prepare_rates:00000000000001a8 .L0 
C:\Users\stapi\AppData\Local\Temp\ccYEBfsk.s:1117   .text.hostapd_prepare_rates:00000000000001a8 .L0 
C:\Users\stapi\AppData\Local\Temp\ccYEBfsk.s:1119   .text.hostapd_prepare_rates:00000000000001aa .L0 
C:\Users\stapi\AppData\Local\Temp\ccYEBfsk.s:1122   .text.hostapd_prepare_rates:00000000000001ac .L0 
C:\Users\stapi\AppData\Local\Temp\ccYEBfsk.s:1126   .text.hostapd_prepare_rates:00000000000001b2 .L0 
C:\Users\stapi\AppData\Local\Temp\ccYEBfsk.s:1128   .text.hostapd_prepare_rates:00000000000001b4 .L0 
C:\Users\stapi\AppData\Local\Temp\ccYEBfsk.s:1172   .text.hostapd_check_ht_capab:0000000000000000 hostapd_check_ht_capab
C:\Users\stapi\AppData\Local\Temp\ccYEBfsk.s:1175   .text.hostapd_check_ht_capab:0000000000000000 .L0 
C:\Users\stapi\AppData\Local\Temp\ccYEBfsk.s:1177   .text.hostapd_check_ht_capab:0000000000000000 .L0 
C:\Users\stapi\AppData\Local\Temp\ccYEBfsk.s:1178   .text.hostapd_check_ht_capab:0000000000000000 .L0 
C:\Users\stapi\AppData\Local\Temp\ccYEBfsk.s:1179   .text.hostapd_check_ht_capab:0000000000000000 .L0 
C:\Users\stapi\AppData\Local\Temp\ccYEBfsk.s:1180   .text.hostapd_check_ht_capab:0000000000000000 .L0 
C:\Users\stapi\AppData\Local\Temp\ccYEBfsk.s:1182   .text.hostapd_check_ht_capab:0000000000000002 .L0 
C:\Users\stapi\AppData\Local\Temp\ccYEBfsk.s:1185   .text.hostapd_check_ht_capab:0000000000000008 .L0 
C:\Users\stapi\AppData\Local\Temp\ccYEBfsk.s:1188   .text.hostapd_check_ht_capab:000000000000000a .L0 
C:\Users\stapi\AppData\Local\Temp\ccYEBfsk.s:1191   .text.hostapd_check_ht_capab:000000000000000c .L0 
C:\Users\stapi\AppData\Local\Temp\ccYEBfsk.s:1192   .text.hostapd_check_ht_capab:000000000000000c .L0 
C:\Users\stapi\AppData\Local\Temp\ccYEBfsk.s:1193   .text.hostapd_check_ht_capab:000000000000000c .L0 
C:\Users\stapi\AppData\Local\Temp\ccYEBfsk.s:1195   .text.hostapd_check_ht_capab:000000000000000c .L0 
C:\Users\stapi\AppData\Local\Temp\ccYEBfsk.s:1199   .text.hostapd_check_ht_capab:000000000000000e .L0 
C:\Users\stapi\AppData\Local\Temp\ccYEBfsk.s:1200   .text.hostapd_check_ht_capab:0000000000000016 .L0 
C:\Users\stapi\AppData\Local\Temp\ccYEBfsk.s:1201   .text.hostapd_check_ht_capab:0000000000000016 .L0 
C:\Users\stapi\AppData\Local\Temp\ccYEBfsk.s:1202   .text.hostapd_check_ht_capab:0000000000000016 .L0 
C:\Users\stapi\AppData\Local\Temp\ccYEBfsk.s:1206   .text.hostapd_check_ht_capab:0000000000000016 .L0 
C:\Users\stapi\AppData\Local\Temp\ccYEBfsk.s:1207   .text.hostapd_check_ht_capab:000000000000001e .L0 
C:\Users\stapi\AppData\Local\Temp\ccYEBfsk.s:1208   .text.hostapd_check_ht_capab:000000000000001e .L0 
C:\Users\stapi\AppData\Local\Temp\ccYEBfsk.s:1209   .text.hostapd_check_ht_capab:000000000000001e .L0 
C:\Users\stapi\AppData\Local\Temp\ccYEBfsk.s:1211   .text.hostapd_check_ht_capab:000000000000001e .L0 
C:\Users\stapi\AppData\Local\Temp\ccYEBfsk.s:1214   .text.hostapd_check_ht_capab:0000000000000024 .L0 
C:\Users\stapi\AppData\Local\Temp\ccYEBfsk.s:1215   .text.hostapd_check_ht_capab:0000000000000024 .L0 
C:\Users\stapi\AppData\Local\Temp\ccYEBfsk.s:1220   .text.hostapd_check_ht_capab:000000000000002c .L0 
C:\Users\stapi\AppData\Local\Temp\ccYEBfsk.s:1225   .text.hostapd_check_ht_capab:0000000000000036 .L0 
C:\Users\stapi\AppData\Local\Temp\ccYEBfsk.s:1231   .text.hostapd_check_ht_capab:0000000000000048 .L0 
C:\Users\stapi\AppData\Local\Temp\ccYEBfsk.s:1232   .text.hostapd_check_ht_capab:0000000000000048 .L0 
C:\Users\stapi\AppData\Local\Temp\ccYEBfsk.s:1234   .text.hostapd_check_ht_capab:000000000000004a .L0 
C:\Users\stapi\AppData\Local\Temp\ccYEBfsk.s:1244   .text.hostapd_check_ht_capab:0000000000000056 .L0 
C:\Users\stapi\AppData\Local\Temp\ccYEBfsk.s:1245   .text.hostapd_check_ht_capab:0000000000000056 .L0 
C:\Users\stapi\AppData\Local\Temp\ccYEBfsk.s:1246   .text.hostapd_check_ht_capab:0000000000000056 .L0 
C:\Users\stapi\AppData\Local\Temp\ccYEBfsk.s:1248   .text.hostapd_check_ht_capab:0000000000000058 .L0 
C:\Users\stapi\AppData\Local\Temp\ccYEBfsk.s:1250   .text.hostapd_check_ht_capab:000000000000005c .L0 
C:\Users\stapi\AppData\Local\Temp\ccYEBfsk.s:1252   .text.hostapd_check_ht_capab:0000000000000060 .L0 
C:\Users\stapi\AppData\Local\Temp\ccYEBfsk.s:1255   .text.hostapd_check_ht_capab:0000000000000064 .L0 
C:\Users\stapi\AppData\Local\Temp\ccYEBfsk.s:1256   .text.hostapd_check_ht_capab:0000000000000064 .L0 
C:\Users\stapi\AppData\Local\Temp\ccYEBfsk.s:1257   .text.hostapd_check_ht_capab:0000000000000064 .L0 
C:\Users\stapi\AppData\Local\Temp\ccYEBfsk.s:1260   .text.hostapd_check_ht_capab:000000000000006a .L0 
C:\Users\stapi\AppData\Local\Temp\ccYEBfsk.s:1263   .text.hostapd_check_ht_capab:0000000000000070 .L0 
C:\Users\stapi\AppData\Local\Temp\ccYEBfsk.s:1268   .text.hostapd_check_ht_capab:0000000000000078 .L0 
C:\Users\stapi\AppData\Local\Temp\ccYEBfsk.s:1274   .text.hostapd_check_ht_capab:0000000000000082 .L0 
C:\Users\stapi\AppData\Local\Temp\ccYEBfsk.s:1275   .text.hostapd_check_ht_capab:0000000000000082 .L0 
C:\Users\stapi\AppData\Local\Temp\ccYEBfsk.s:1283   .text.hostapd_check_ht_capab:0000000000000086 .L0 
C:\Users\stapi\AppData\Local\Temp\ccYEBfsk.s:1284   .text.hostapd_check_ht_capab:0000000000000086 .L0 
C:\Users\stapi\AppData\Local\Temp\ccYEBfsk.s:1287   .text.hostapd_check_ht_capab:000000000000008c .L0 
C:\Users\stapi\AppData\Local\Temp\ccYEBfsk.s:1290   .text.hostapd_check_ht_capab:0000000000000092 .L0 
C:\Users\stapi\AppData\Local\Temp\ccYEBfsk.s:1293   .text.hostapd_check_ht_capab:0000000000000098 .L0 
C:\Users\stapi\AppData\Local\Temp\ccYEBfsk.s:1298   .text.hostapd_check_ht_capab:00000000000000a2 .L0 
C:\Users\stapi\AppData\Local\Temp\ccYEBfsk.s:1299   .text.hostapd_check_ht_capab:00000000000000a2 .L0 
C:\Users\stapi\AppData\Local\Temp\ccYEBfsk.s:1302   .text.hostapd_check_ht_capab:00000000000000a8 .L0 
C:\Users\stapi\AppData\Local\Temp\ccYEBfsk.s:1305   .text.hostapd_check_ht_capab:00000000000000ae .L0 
C:\Users\stapi\AppData\Local\Temp\ccYEBfsk.s:1310   .text.hostapd_check_ht_capab:00000000000000b8 .L0 
C:\Users\stapi\AppData\Local\Temp\ccYEBfsk.s:1311   .text.hostapd_check_ht_capab:00000000000000b8 .L0 
C:\Users\stapi\AppData\Local\Temp\ccYEBfsk.s:1314   .text.hostapd_check_ht_capab:00000000000000be .L0 
C:\Users\stapi\AppData\Local\Temp\ccYEBfsk.s:1317   .text.hostapd_check_ht_capab:00000000000000c4 .L0 
C:\Users\stapi\AppData\Local\Temp\ccYEBfsk.s:1322   .text.hostapd_check_ht_capab:00000000000000ce .L0 
C:\Users\stapi\AppData\Local\Temp\ccYEBfsk.s:1323   .text.hostapd_check_ht_capab:00000000000000ce .L0 
C:\Users\stapi\AppData\Local\Temp\ccYEBfsk.s:1326   .text.hostapd_check_ht_capab:00000000000000d4 .L0 
C:\Users\stapi\AppData\Local\Temp\ccYEBfsk.s:1329   .text.hostapd_check_ht_capab:00000000000000da .L0 
C:\Users\stapi\AppData\Local\Temp\ccYEBfsk.s:1334   .text.hostapd_check_ht_capab:00000000000000e4 .L0 
C:\Users\stapi\AppData\Local\Temp\ccYEBfsk.s:1335   .text.hostapd_check_ht_capab:00000000000000e4 .L0 
C:\Users\stapi\AppData\Local\Temp\ccYEBfsk.s:1338   .text.hostapd_check_ht_capab:00000000000000ea .L0 
C:\Users\stapi\AppData\Local\Temp\ccYEBfsk.s:1341   .text.hostapd_check_ht_capab:00000000000000f0 .L0 
C:\Users\stapi\AppData\Local\Temp\ccYEBfsk.s:1346   .text.hostapd_check_ht_capab:00000000000000fa .L0 
C:\Users\stapi\AppData\Local\Temp\ccYEBfsk.s:1347   .text.hostapd_check_ht_capab:00000000000000fa .L0 
C:\Users\stapi\AppData\Local\Temp\ccYEBfsk.s:1351   .text.hostapd_check_ht_capab:0000000000000106 .L0 
C:\Users\stapi\AppData\Local\Temp\ccYEBfsk.s:1356   .text.hostapd_check_ht_capab:0000000000000110 .L0 
C:\Users\stapi\AppData\Local\Temp\ccYEBfsk.s:1357   .text.hostapd_check_ht_capab:0000000000000110 .L0 
C:\Users\stapi\AppData\Local\Temp\ccYEBfsk.s:1360   .text.hostapd_check_ht_capab:0000000000000116 .L0 
C:\Users\stapi\AppData\Local\Temp\ccYEBfsk.s:1363   .text.hostapd_check_ht_capab:000000000000011c .L0 
C:\Users\stapi\AppData\Local\Temp\ccYEBfsk.s:1368   .text.hostapd_check_ht_capab:0000000000000126 .L0 
C:\Users\stapi\AppData\Local\Temp\ccYEBfsk.s:1369   .text.hostapd_check_ht_capab:0000000000000126 .L0 
C:\Users\stapi\AppData\Local\Temp\ccYEBfsk.s:1374   .text.hostapd_check_ht_capab:0000000000000132 .L0 
C:\Users\stapi\AppData\Local\Temp\ccYEBfsk.s:1377   .text.hostapd_check_ht_capab:0000000000000136 .L0 
C:\Users\stapi\AppData\Local\Temp\ccYEBfsk.s:1382   .text.hostapd_check_ht_capab:0000000000000140 .L0 
C:\Users\stapi\AppData\Local\Temp\ccYEBfsk.s:1383   .text.hostapd_check_ht_capab:0000000000000140 .L0 
C:\Users\stapi\AppData\Local\Temp\ccYEBfsk.s:1387   .text.hostapd_check_ht_capab:0000000000000148 .L0 
C:\Users\stapi\AppData\Local\Temp\ccYEBfsk.s:1390   .text.hostapd_check_ht_capab:000000000000014c .L0 
C:\Users\stapi\AppData\Local\Temp\ccYEBfsk.s:1395   .text.hostapd_check_ht_capab:0000000000000156 .L0 
C:\Users\stapi\AppData\Local\Temp\ccYEBfsk.s:1396   .text.hostapd_check_ht_capab:0000000000000156 .L0 
C:\Users\stapi\AppData\Local\Temp\ccYEBfsk.s:1399   .text.hostapd_check_ht_capab:000000000000015e .L0 
C:\Users\stapi\AppData\Local\Temp\ccYEBfsk.s:1402   .text.hostapd_check_ht_capab:0000000000000166 .L0 
C:\Users\stapi\AppData\Local\Temp\ccYEBfsk.s:1409   .text.hostapd_check_ht_capab:0000000000000170 .L0 
C:\Users\stapi\AppData\Local\Temp\ccYEBfsk.s:1426   .text.hostapd_check_edmg_capab:0000000000000000 hostapd_check_edmg_capab
C:\Users\stapi\AppData\Local\Temp\ccYEBfsk.s:1429   .text.hostapd_check_edmg_capab:0000000000000000 .L0 
C:\Users\stapi\AppData\Local\Temp\ccYEBfsk.s:1431   .text.hostapd_check_edmg_capab:0000000000000000 .L0 
C:\Users\stapi\AppData\Local\Temp\ccYEBfsk.s:1432   .text.hostapd_check_edmg_capab:0000000000000000 .L0 
C:\Users\stapi\AppData\Local\Temp\ccYEBfsk.s:1433   .text.hostapd_check_edmg_capab:0000000000000000 .L0 
C:\Users\stapi\AppData\Local\Temp\ccYEBfsk.s:1434   .text.hostapd_check_edmg_capab:0000000000000000 .L0 
C:\Users\stapi\AppData\Local\Temp\ccYEBfsk.s:1435   .text.hostapd_check_edmg_capab:0000000000000000 .L0 
C:\Users\stapi\AppData\Local\Temp\ccYEBfsk.s:1437   .text.hostapd_check_edmg_capab:0000000000000002 .L0 
C:\Users\stapi\AppData\Local\Temp\ccYEBfsk.s:1439   .text.hostapd_check_edmg_capab:0000000000000004 .L0 
C:\Users\stapi\AppData\Local\Temp\ccYEBfsk.s:1442   .text.hostapd_check_edmg_capab:0000000000000006 .L0 
C:\Users\stapi\AppData\Local\Temp\ccYEBfsk.s:1444   .text.hostapd_check_edmg_capab:0000000000000008 .L0 
C:\Users\stapi\AppData\Local\Temp\ccYEBfsk.s:1445   .text.hostapd_check_edmg_capab:0000000000000010 .L0 
C:\Users\stapi\AppData\Local\Temp\ccYEBfsk.s:1446   .text.hostapd_check_edmg_capab:0000000000000010 .L0 
C:\Users\stapi\AppData\Local\Temp\ccYEBfsk.s:1447   .text.hostapd_check_edmg_capab:0000000000000010 .L0 
C:\Users\stapi\AppData\Local\Temp\ccYEBfsk.s:1449   .text.hostapd_check_edmg_capab:0000000000000010 .L0 
C:\Users\stapi\AppData\Local\Temp\ccYEBfsk.s:1451   .text.hostapd_check_edmg_capab:0000000000000014 .L0 
C:\Users\stapi\AppData\Local\Temp\ccYEBfsk.s:1457   .text.hostapd_check_edmg_capab:0000000000000026 .L0 
C:\Users\stapi\AppData\Local\Temp\ccYEBfsk.s:1465   .text.hostapd_check_edmg_capab:0000000000000040 .L0 
C:\Users\stapi\AppData\Local\Temp\ccYEBfsk.s:1473   .text.hostapd_check_edmg_capab:0000000000000056 .L0 
C:\Users\stapi\AppData\Local\Temp\ccYEBfsk.s:1474   .text.hostapd_check_edmg_capab:0000000000000056 .L0 
C:\Users\stapi\AppData\Local\Temp\ccYEBfsk.s:1477   .text.hostapd_check_edmg_capab:0000000000000058 .L0 
C:\Users\stapi\AppData\Local\Temp\ccYEBfsk.s:1478   .text.hostapd_check_edmg_capab:0000000000000060 .L0 
C:\Users\stapi\AppData\Local\Temp\ccYEBfsk.s:1479   .text.hostapd_check_edmg_capab:0000000000000060 .L0 
C:\Users\stapi\AppData\Local\Temp\ccYEBfsk.s:1480   .text.hostapd_check_edmg_capab:0000000000000060 .L0 
C:\Users\stapi\AppData\Local\Temp\ccYEBfsk.s:1484   .text.hostapd_check_edmg_capab:0000000000000062 .L0 
C:\Users\stapi\AppData\Local\Temp\ccYEBfsk.s:1504   .text.hostapd_check_he_6ghz_capab:0000000000000000 hostapd_check_he_6ghz_capab
C:\Users\stapi\AppData\Local\Temp\ccYEBfsk.s:1507   .text.hostapd_check_he_6ghz_capab:0000000000000000 .L0 
C:\Users\stapi\AppData\Local\Temp\ccYEBfsk.s:1509   .text.hostapd_check_he_6ghz_capab:0000000000000000 .L0 
C:\Users\stapi\AppData\Local\Temp\ccYEBfsk.s:1510   .text.hostapd_check_he_6ghz_capab:0000000000000000 .L0 
C:\Users\stapi\AppData\Local\Temp\ccYEBfsk.s:1511   .text.hostapd_check_he_6ghz_capab:0000000000000000 .L0 
C:\Users\stapi\AppData\Local\Temp\ccYEBfsk.s:1512   .text.hostapd_check_he_6ghz_capab:0000000000000000 .L0 
C:\Users\stapi\AppData\Local\Temp\ccYEBfsk.s:1513   .text.hostapd_check_he_6ghz_capab:0000000000000000 .L0 
C:\Users\stapi\AppData\Local\Temp\ccYEBfsk.s:1516   .text.hostapd_check_he_6ghz_capab:0000000000000006 .L0 
C:\Users\stapi\AppData\Local\Temp\ccYEBfsk.s:1519   .text.hostapd_check_he_6ghz_capab:0000000000000008 .L0 
C:\Users\stapi\AppData\Local\Temp\ccYEBfsk.s:1522   .text.hostapd_check_he_6ghz_capab:000000000000000a .L0 
C:\Users\stapi\AppData\Local\Temp\ccYEBfsk.s:1523   .text.hostapd_check_he_6ghz_capab:000000000000000a .L0 
C:\Users\stapi\AppData\Local\Temp\ccYEBfsk.s:1524   .text.hostapd_check_he_6ghz_capab:000000000000000a .L0 
C:\Users\stapi\AppData\Local\Temp\ccYEBfsk.s:1526   .text.hostapd_check_he_6ghz_capab:000000000000000a .L0 
C:\Users\stapi\AppData\Local\Temp\ccYEBfsk.s:1529   .text.hostapd_check_he_6ghz_capab:000000000000000c .L0 
C:\Users\stapi\AppData\Local\Temp\ccYEBfsk.s:1530   .text.hostapd_check_he_6ghz_capab:0000000000000014 .L0 
C:\Users\stapi\AppData\Local\Temp\ccYEBfsk.s:1531   .text.hostapd_check_he_6ghz_capab:0000000000000014 .L0 
C:\Users\stapi\AppData\Local\Temp\ccYEBfsk.s:1532   .text.hostapd_check_he_6ghz_capab:0000000000000014 .L0 
C:\Users\stapi\AppData\Local\Temp\ccYEBfsk.s:1536   .text.hostapd_check_he_6ghz_capab:0000000000000014 .L0 
C:\Users\stapi\AppData\Local\Temp\ccYEBfsk.s:1537   .text.hostapd_check_he_6ghz_capab:000000000000001c .L0 
C:\Users\stapi\AppData\Local\Temp\ccYEBfsk.s:1538   .text.hostapd_check_he_6ghz_capab:000000000000001c .L0 
C:\Users\stapi\AppData\Local\Temp\ccYEBfsk.s:1539   .text.hostapd_check_he_6ghz_capab:000000000000001c .L0 
C:\Users\stapi\AppData\Local\Temp\ccYEBfsk.s:1542   .text.hostapd_check_he_6ghz_capab:000000000000001e .L0 
C:\Users\stapi\AppData\Local\Temp\ccYEBfsk.s:1547   .text.hostapd_check_he_6ghz_capab:000000000000002a .L0 
C:\Users\stapi\AppData\Local\Temp\ccYEBfsk.s:1550   .text.hostapd_check_he_6ghz_capab:000000000000002c .L0 
C:\Users\stapi\AppData\Local\Temp\ccYEBfsk.s:1551   .text.hostapd_check_he_6ghz_capab:000000000000002c .L0 
C:\Users\stapi\AppData\Local\Temp\ccYEBfsk.s:1552   .text.hostapd_check_he_6ghz_capab:000000000000002c .L0 
C:\Users\stapi\AppData\Local\Temp\ccYEBfsk.s:1554   .text.hostapd_check_he_6ghz_capab:0000000000000030 .L0 
C:\Users\stapi\AppData\Local\Temp\ccYEBfsk.s:1556   .text.hostapd_check_he_6ghz_capab:0000000000000032 .L0 
C:\Users\stapi\AppData\Local\Temp\ccYEBfsk.s:1559   .text.hostapd_check_he_6ghz_capab:0000000000000036 .L0 
C:\Users\stapi\AppData\Local\Temp\ccYEBfsk.s:1560   .text.hostapd_check_he_6ghz_capab:0000000000000036 .L0 
C:\Users\stapi\AppData\Local\Temp\ccYEBfsk.s:1562   .text.hostapd_check_he_6ghz_capab:000000000000003a .L0 
C:\Users\stapi\AppData\Local\Temp\ccYEBfsk.s:1565   .text.hostapd_check_he_6ghz_capab:0000000000000040 .L0 
C:\Users\stapi\AppData\Local\Temp\ccYEBfsk.s:1567   .text.hostapd_check_he_6ghz_capab:0000000000000044 .L0 
C:\Users\stapi\AppData\Local\Temp\ccYEBfsk.s:1572   .text.hostapd_check_he_6ghz_capab:000000000000004c .L0 
C:\Users\stapi\AppData\Local\Temp\ccYEBfsk.s:1576   .text.hostapd_check_he_6ghz_capab:0000000000000056 .L0 
C:\Users\stapi\AppData\Local\Temp\ccYEBfsk.s:1577   .text.hostapd_check_he_6ghz_capab:0000000000000056 .L0 
C:\Users\stapi\AppData\Local\Temp\ccYEBfsk.s:1582   .text.hostapd_check_he_6ghz_capab:000000000000005a .L0 
C:\Users\stapi\AppData\Local\Temp\ccYEBfsk.s:1583   .text.hostapd_check_he_6ghz_capab:000000000000005a .L0 
C:\Users\stapi\AppData\Local\Temp\ccYEBfsk.s:1585   .text.hostapd_check_he_6ghz_capab:000000000000005e .L0 
C:\Users\stapi\AppData\Local\Temp\ccYEBfsk.s:1588   .text.hostapd_check_he_6ghz_capab:0000000000000064 .L0 
C:\Users\stapi\AppData\Local\Temp\ccYEBfsk.s:1590   .text.hostapd_check_he_6ghz_capab:0000000000000068 .L0 
C:\Users\stapi\AppData\Local\Temp\ccYEBfsk.s:1595   .text.hostapd_check_he_6ghz_capab:0000000000000072 .L0 
C:\Users\stapi\AppData\Local\Temp\ccYEBfsk.s:1596   .text.hostapd_check_he_6ghz_capab:0000000000000072 .L0 
C:\Users\stapi\AppData\Local\Temp\ccYEBfsk.s:1599   .text.hostapd_check_he_6ghz_capab:0000000000000078 .L0 
C:\Users\stapi\AppData\Local\Temp\ccYEBfsk.s:1603   .text.hostapd_check_he_6ghz_capab:000000000000007e .L0 
C:\Users\stapi\AppData\Local\Temp\ccYEBfsk.s:1608   .text.hostapd_check_he_6ghz_capab:0000000000000088 .L0 
C:\Users\stapi\AppData\Local\Temp\ccYEBfsk.s:1609   .text.hostapd_check_he_6ghz_capab:0000000000000088 .L0 
C:\Users\stapi\AppData\Local\Temp\ccYEBfsk.s:1612   .text.hostapd_check_he_6ghz_capab:000000000000008e .L0 
C:\Users\stapi\AppData\Local\Temp\ccYEBfsk.s:1617   .text.hostapd_check_he_6ghz_capab:0000000000000094 .L0 
C:\Users\stapi\AppData\Local\Temp\ccYEBfsk.s:1620   .text.hostapd_check_he_6ghz_capab:000000000000009e .L0 
C:\Users\stapi\AppData\Local\Temp\ccYEBfsk.s:1643   .text.hostapd_acs_completed:0000000000000000 hostapd_acs_completed
C:\Users\stapi\AppData\Local\Temp\ccYEBfsk.s:1646   .text.hostapd_acs_completed:0000000000000000 .L0 
C:\Users\stapi\AppData\Local\Temp\ccYEBfsk.s:1648   .text.hostapd_acs_completed:0000000000000000 .L0 
C:\Users\stapi\AppData\Local\Temp\ccYEBfsk.s:1649   .text.hostapd_acs_completed:0000000000000008 .L0 
C:\Users\stapi\AppData\Local\Temp\ccYEBfsk.s:1650   .text.hostapd_acs_completed:0000000000000008 .L0 
C:\Users\stapi\AppData\Local\Temp\ccYEBfsk.s:1651   .text.hostapd_acs_completed:0000000000000008 .L0 
C:\Users\stapi\AppData\Local\Temp\ccYEBfsk.s:1652   .text.hostapd_acs_completed:0000000000000008 .L0 
C:\Users\stapi\AppData\Local\Temp\ccYEBfsk.s:1653   .text.hostapd_acs_completed:0000000000000008 .L0 
C:\Users\stapi\AppData\Local\Temp\ccYEBfsk.s:1656   .text.hostapd_acs_completed:0000000000000008 .L0 
C:\Users\stapi\AppData\Local\Temp\ccYEBfsk.s:1657   .text.hostapd_acs_completed:0000000000000008 .L0 
C:\Users\stapi\AppData\Local\Temp\ccYEBfsk.s:1658   .text.hostapd_acs_completed:0000000000000008 .L0 
C:\Users\stapi\AppData\Local\Temp\ccYEBfsk.s:1660   .text.hostapd_acs_completed:000000000000000a .L0 
C:\Users\stapi\AppData\Local\Temp\ccYEBfsk.s:1662   .text.hostapd_acs_completed:000000000000000c .L0 
C:\Users\stapi\AppData\Local\Temp\ccYEBfsk.s:1664   .text.hostapd_acs_completed:000000000000000e .L0 
C:\Users\stapi\AppData\Local\Temp\ccYEBfsk.s:1665   .text.hostapd_acs_completed:000000000000000e .L0 
C:\Users\stapi\AppData\Local\Temp\ccYEBfsk.s:1668   .text.hostapd_acs_completed:0000000000000016 .L0 
C:\Users\stapi\AppData\Local\Temp\ccYEBfsk.s:1673   .text.hostapd_acs_completed:0000000000000022 .L0 
C:\Users\stapi\AppData\Local\Temp\ccYEBfsk.s:1678   .text.hostapd_acs_completed:000000000000002c .L0 
C:\Users\stapi\AppData\Local\Temp\ccYEBfsk.s:1679   .text.hostapd_acs_completed:000000000000002c .L0 
C:\Users\stapi\AppData\Local\Temp\ccYEBfsk.s:1681   .text.hostapd_acs_completed:000000000000002e .L0 
C:\Users\stapi\AppData\Local\Temp\ccYEBfsk.s:1683   .text.hostapd_acs_completed:0000000000000030 .L0 
C:\Users\stapi\AppData\Local\Temp\ccYEBfsk.s:1693   .text.hostapd_acs_completed:0000000000000050 .L0 
C:\Users\stapi\AppData\Local\Temp\ccYEBfsk.s:1694   .text.hostapd_acs_completed:0000000000000050 .L0 
C:\Users\stapi\AppData\Local\Temp\ccYEBfsk.s:1695   .text.hostapd_acs_completed:0000000000000050 .L0 
C:\Users\stapi\AppData\Local\Temp\ccYEBfsk.s:1701   .text.hostapd_acs_completed:000000000000005c .L0 
C:\Users\stapi\AppData\Local\Temp\ccYEBfsk.s:1702   .text.hostapd_acs_completed:000000000000005c .L0 
C:\Users\stapi\AppData\Local\Temp\ccYEBfsk.s:1706   .text.hostapd_acs_completed:0000000000000060 .L0 
C:\Users\stapi\AppData\Local\Temp\ccYEBfsk.s:1707   .text.hostapd_acs_completed:0000000000000060 .L0 
C:\Users\stapi\AppData\Local\Temp\ccYEBfsk.s:1715   .text.hostapd_acs_completed:000000000000006e .L0 
C:\Users\stapi\AppData\Local\Temp\ccYEBfsk.s:1719   .text.hostapd_acs_completed:0000000000000076 .L0 
C:\Users\stapi\AppData\Local\Temp\ccYEBfsk.s:1723   .text.hostapd_acs_completed:0000000000000080 .L0 
C:\Users\stapi\AppData\Local\Temp\ccYEBfsk.s:1724   .text.hostapd_acs_completed:0000000000000080 .L0 
C:\Users\stapi\AppData\Local\Temp\ccYEBfsk.s:1726   .text.hostapd_acs_completed:0000000000000082 .L0 
C:\Users\stapi\AppData\Local\Temp\ccYEBfsk.s:1733   .text.hostapd_acs_completed:0000000000000096 .L0 
C:\Users\stapi\AppData\Local\Temp\ccYEBfsk.s:1734   .text.hostapd_acs_completed:0000000000000096 .L0 
C:\Users\stapi\AppData\Local\Temp\ccYEBfsk.s:1735   .text.hostapd_acs_completed:0000000000000096 .L0 
C:\Users\stapi\AppData\Local\Temp\ccYEBfsk.s:1736   .text.hostapd_acs_completed:0000000000000096 .L0 
C:\Users\stapi\AppData\Local\Temp\ccYEBfsk.s:1737   .text.hostapd_acs_completed:0000000000000096 .L0 
C:\Users\stapi\AppData\Local\Temp\ccYEBfsk.s:1738   .text.hostapd_acs_completed:0000000000000096 .L0 
C:\Users\stapi\AppData\Local\Temp\ccYEBfsk.s:1739   .text.hostapd_acs_completed:0000000000000096 .L0 
C:\Users\stapi\AppData\Local\Temp\ccYEBfsk.s:1740   .text.hostapd_acs_completed:0000000000000096 .L0 
C:\Users\stapi\AppData\Local\Temp\ccYEBfsk.s:1741   .text.hostapd_acs_completed:0000000000000096 .L0 
C:\Users\stapi\AppData\Local\Temp\ccYEBfsk.s:1745   .text.hostapd_acs_completed:0000000000000098 .L0 
C:\Users\stapi\AppData\Local\Temp\ccYEBfsk.s:1746   .text.hostapd_acs_completed:0000000000000098 .L0 
C:\Users\stapi\AppData\Local\Temp\ccYEBfsk.s:1749   .text.hostapd_acs_completed:000000000000009e .L0 
C:\Users\stapi\AppData\Local\Temp\ccYEBfsk.s:1755   .text.hostapd_acs_completed:00000000000000b0 .L0 
C:\Users\stapi\AppData\Local\Temp\ccYEBfsk.s:1756   .text.hostapd_acs_completed:00000000000000b0 .L0 
C:\Users\stapi\AppData\Local\Temp\ccYEBfsk.s:1759   .text.hostapd_acs_completed:00000000000000b2 .L0 
C:\Users\stapi\AppData\Local\Temp\ccYEBfsk.s:1760   .text.hostapd_acs_completed:00000000000000ba .L0 
C:\Users\stapi\AppData\Local\Temp\ccYEBfsk.s:1761   .text.hostapd_acs_completed:00000000000000ba .L0 
C:\Users\stapi\AppData\Local\Temp\ccYEBfsk.s:1762   .text.hostapd_acs_completed:00000000000000ba .L0 
C:\Users\stapi\AppData\Local\Temp\ccYEBfsk.s:1763   .text.hostapd_acs_completed:00000000000000ba .L0 
C:\Users\stapi\AppData\Local\Temp\ccYEBfsk.s:1764   .text.hostapd_acs_completed:00000000000000ba .L0 
C:\Users\stapi\AppData\Local\Temp\ccYEBfsk.s:1765   .text.hostapd_acs_completed:00000000000000ba .L0 
C:\Users\stapi\AppData\Local\Temp\ccYEBfsk.s:1767   .text.hostapd_acs_completed:00000000000000ba .L0 
C:\Users\stapi\AppData\Local\Temp\ccYEBfsk.s:1769   .text.hostapd_acs_completed:00000000000000ba .L0 
C:\Users\stapi\AppData\Local\Temp\ccYEBfsk.s:1772   .text.hostapd_acs_completed:00000000000000be .L0 
C:\Users\stapi\AppData\Local\Temp\ccYEBfsk.s:1792   .text.hostapd_select_hw_mode:0000000000000000 hostapd_select_hw_mode
C:\Users\stapi\AppData\Local\Temp\ccYEBfsk.s:1795   .text.hostapd_select_hw_mode:0000000000000000 .L0 
C:\Users\stapi\AppData\Local\Temp\ccYEBfsk.s:1797   .text.hostapd_select_hw_mode:0000000000000000 .L0 
C:\Users\stapi\AppData\Local\Temp\ccYEBfsk.s:1798   .text.hostapd_select_hw_mode:0000000000000000 .L0 
C:\Users\stapi\AppData\Local\Temp\ccYEBfsk.s:1799   .text.hostapd_select_hw_mode:0000000000000000 .L0 
C:\Users\stapi\AppData\Local\Temp\ccYEBfsk.s:1800   .text.hostapd_select_hw_mode:0000000000000000 .L0 
C:\Users\stapi\AppData\Local\Temp\ccYEBfsk.s:1803   .text.hostapd_select_hw_mode:0000000000000008 .L0 
C:\Users\stapi\AppData\Local\Temp\ccYEBfsk.s:1804   .text.hostapd_select_hw_mode:0000000000000010 .L0 
C:\Users\stapi\AppData\Local\Temp\ccYEBfsk.s:1805   .text.hostapd_select_hw_mode:0000000000000010 .L0 
C:\Users\stapi\AppData\Local\Temp\ccYEBfsk.s:1806   .text.hostapd_select_hw_mode:0000000000000010 .L0 
C:\Users\stapi\AppData\Local\Temp\ccYEBfsk.s:1807   .text.hostapd_select_hw_mode:0000000000000010 .L0 
C:\Users\stapi\AppData\Local\Temp\ccYEBfsk.s:1808   .text.hostapd_select_hw_mode:0000000000000010 .L0 
C:\Users\stapi\AppData\Local\Temp\ccYEBfsk.s:1809   .text.hostapd_select_hw_mode:0000000000000010 .L0 
C:\Users\stapi\AppData\Local\Temp\ccYEBfsk.s:1811   .text.hostapd_select_hw_mode:0000000000000010 .L0 
C:\Users\stapi\AppData\Local\Temp\ccYEBfsk.s:1813   .text.hostapd_select_hw_mode:0000000000000012 .L0 
C:\Users\stapi\AppData\Local\Temp\ccYEBfsk.s:1815   .text.hostapd_select_hw_mode:0000000000000014 .L0 
C:\Users\stapi\AppData\Local\Temp\ccYEBfsk.s:1816   .text.hostapd_select_hw_mode:0000000000000016 .L0 
C:\Users\stapi\AppData\Local\Temp\ccYEBfsk.s:1818   .text.hostapd_select_hw_mode:0000000000000016 .L0 
C:\Users\stapi\AppData\Local\Temp\ccYEBfsk.s:1821   .text.hostapd_select_hw_mode:000000000000001a .L0 
C:\Users\stapi\AppData\Local\Temp\ccYEBfsk.s:1822   .text.hostapd_select_hw_mode:000000000000001a .L0 
C:\Users\stapi\AppData\Local\Temp\ccYEBfsk.s:1824   .text.hostapd_select_hw_mode:000000000000001e .L0 
C:\Users\stapi\AppData\Local\Temp\ccYEBfsk.s:1827   .text.hostapd_select_hw_mode:0000000000000024 .L0 
C:\Users\stapi\AppData\Local\Temp\ccYEBfsk.s:1830   .text.hostapd_select_hw_mode:000000000000002a .L0 
C:\Users\stapi\AppData\Local\Temp\ccYEBfsk.s:1834   .text.hostapd_select_hw_mode:0000000000000030 .L0 
C:\Users\stapi\AppData\Local\Temp\ccYEBfsk.s:1838   .text.hostapd_select_hw_mode:000000000000003a .L0 
C:\Users\stapi\AppData\Local\Temp\ccYEBfsk.s:1845   .text.hostapd_select_hw_mode:000000000000004c .L0 
C:\Users\stapi\AppData\Local\Temp\ccYEBfsk.s:1846   .text.hostapd_select_hw_mode:000000000000004c .L0 
C:\Users\stapi\AppData\Local\Temp\ccYEBfsk.s:1848   .text.hostapd_select_hw_mode:000000000000004e .L0 
C:\Users\stapi\AppData\Local\Temp\ccYEBfsk.s:1850   .text.hostapd_select_hw_mode:0000000000000052 .L0 
C:\Users\stapi\AppData\Local\Temp\ccYEBfsk.s:1851   .text.hostapd_select_hw_mode:0000000000000052 .L0 
C:\Users\stapi\AppData\Local\Temp\ccYEBfsk.s:1853   .text.hostapd_select_hw_mode:0000000000000056 .L0 
C:\Users\stapi\AppData\Local\Temp\ccYEBfsk.s:1854   .text.hostapd_select_hw_mode:0000000000000056 .L0 
C:\Users\stapi\AppData\Local\Temp\ccYEBfsk.s:1856   .text.hostapd_select_hw_mode:000000000000005a .L0 
C:\Users\stapi\AppData\Local\Temp\ccYEBfsk.s:1857   .text.hostapd_select_hw_mode:000000000000005a .L0 
C:\Users\stapi\AppData\Local\Temp\ccYEBfsk.s:1860   .text.hostapd_select_hw_mode:000000000000005e .L0 
C:\Users\stapi\AppData\Local\Temp\ccYEBfsk.s:1861   .text.hostapd_select_hw_mode:000000000000005e .L0 
C:\Users\stapi\AppData\Local\Temp\ccYEBfsk.s:1864   .text.hostapd_select_hw_mode:0000000000000062 .L0 
C:\Users\stapi\AppData\Local\Temp\ccYEBfsk.s:1865   .text.hostapd_select_hw_mode:0000000000000062 .L0 
C:\Users\stapi\AppData\Local\Temp\ccYEBfsk.s:1868   .text.hostapd_select_hw_mode:0000000000000064 .L0 
C:\Users\stapi\AppData\Local\Temp\ccYEBfsk.s:1873   .text.hostapd_select_hw_mode:0000000000000068 .L0 
C:\Users\stapi\AppData\Local\Temp\ccYEBfsk.s:1874   .text.hostapd_select_hw_mode:0000000000000068 .L0 
C:\Users\stapi\AppData\Local\Temp\ccYEBfsk.s:1877   .text.hostapd_select_hw_mode:0000000000000070 .L0 
C:\Users\stapi\AppData\Local\Temp\ccYEBfsk.s:1878   .text.hostapd_select_hw_mode:0000000000000070 .L0 
C:\Users\stapi\AppData\Local\Temp\ccYEBfsk.s:1881   .text.hostapd_select_hw_mode:0000000000000076 .L0 
C:\Users\stapi\AppData\Local\Temp\ccYEBfsk.s:1882   .text.hostapd_select_hw_mode:0000000000000076 .L0 
C:\Users\stapi\AppData\Local\Temp\ccYEBfsk.s:1884   .text.hostapd_select_hw_mode:000000000000007a .L0 
C:\Users\stapi\AppData\Local\Temp\ccYEBfsk.s:1886   .text.hostapd_select_hw_mode:000000000000007e .L0 
C:\Users\stapi\AppData\Local\Temp\ccYEBfsk.s:1888   .text.hostapd_select_hw_mode:0000000000000080 .L0 
C:\Users\stapi\AppData\Local\Temp\ccYEBfsk.s:1890   .text.hostapd_select_hw_mode:0000000000000084 .L0 
C:\Users\stapi\AppData\Local\Temp\ccYEBfsk.s:1892   .text.hostapd_select_hw_mode:0000000000000086 .L0 
C:\Users\stapi\AppData\Local\Temp\ccYEBfsk.s:1896   .text.hostapd_select_hw_mode:000000000000008e .L0 
C:\Users\stapi\AppData\Local\Temp\ccYEBfsk.s:1903   .text.hostapd_select_hw_mode:000000000000009a .L0 
C:\Users\stapi\AppData\Local\Temp\ccYEBfsk.s:1904   .text.hostapd_select_hw_mode:000000000000009a .L0 
C:\Users\stapi\AppData\Local\Temp\ccYEBfsk.s:1906   .text.hostapd_select_hw_mode:000000000000009e .L0 
C:\Users\stapi\AppData\Local\Temp\ccYEBfsk.s:1908   .text.hostapd_select_hw_mode:00000000000000a0 .L0 
C:\Users\stapi\AppData\Local\Temp\ccYEBfsk.s:1911   .text.hostapd_select_hw_mode:00000000000000a4 .L0 
C:\Users\stapi\AppData\Local\Temp\ccYEBfsk.s:1912   .text.hostapd_select_hw_mode:00000000000000a4 .L0 
C:\Users\stapi\AppData\Local\Temp\ccYEBfsk.s:1913   .text.hostapd_select_hw_mode:00000000000000a4 .L0 
C:\Users\stapi\AppData\Local\Temp\ccYEBfsk.s:1917   .text.hostapd_select_hw_mode:00000000000000ac .L0 
C:\Users\stapi\AppData\Local\Temp\ccYEBfsk.s:1918   .text.hostapd_select_hw_mode:00000000000000ac .L0 
C:\Users\stapi\AppData\Local\Temp\ccYEBfsk.s:1920   .text.hostapd_select_hw_mode:00000000000000b0 .L0 
C:\Users\stapi\AppData\Local\Temp\ccYEBfsk.s:1922   .text.hostapd_select_hw_mode:00000000000000b4 .L0 
C:\Users\stapi\AppData\Local\Temp\ccYEBfsk.s:1927   .text.hostapd_select_hw_mode:00000000000000c0 .L0 
C:\Users\stapi\AppData\Local\Temp\ccYEBfsk.s:1931   .text.hostapd_select_hw_mode:00000000000000c2 .L0 
C:\Users\stapi\AppData\Local\Temp\ccYEBfsk.s:1932   .text.hostapd_select_hw_mode:00000000000000c2 .L0 
C:\Users\stapi\AppData\Local\Temp\ccYEBfsk.s:1933   .text.hostapd_select_hw_mode:00000000000000c2 .L0 
C:\Users\stapi\AppData\Local\Temp\ccYEBfsk.s:1939   .text.hostapd_select_hw_mode:00000000000000c6 .L0 
C:\Users\stapi\AppData\Local\Temp\ccYEBfsk.s:1940   .text.hostapd_select_hw_mode:00000000000000c6 .L0 
C:\Users\stapi\AppData\Local\Temp\ccYEBfsk.s:1943   .text.hostapd_select_hw_mode:00000000000000ca .L0 
C:\Users\stapi\AppData\Local\Temp\ccYEBfsk.s:1946   .text.hostapd_select_hw_mode:00000000000000ca .L0 
C:\Users\stapi\AppData\Local\Temp\ccYEBfsk.s:1947   .text.hostapd_select_hw_mode:00000000000000ca .L0 
C:\Users\stapi\AppData\Local\Temp\ccYEBfsk.s:1948   .text.hostapd_select_hw_mode:00000000000000ca .L0 
C:\Users\stapi\AppData\Local\Temp\ccYEBfsk.s:1953   .text.hostapd_select_hw_mode:00000000000000d6 .L0 
C:\Users\stapi\AppData\Local\Temp\ccYEBfsk.s:1955   .text.hostapd_select_hw_mode:00000000000000d8 .L0 
C:\Users\stapi\AppData\Local\Temp\ccYEBfsk.s:1958   .text.hostapd_select_hw_mode:00000000000000dc .L0 
C:\Users\stapi\AppData\Local\Temp\ccYEBfsk.s:1960   .text.hostapd_select_hw_mode:00000000000000de .L0 
C:\Users\stapi\AppData\Local\Temp\ccYEBfsk.s:1965   .text.hostapd_select_hw_mode:00000000000000e6 .L0 
C:\Users\stapi\AppData\Local\Temp\ccYEBfsk.s:1966   .text.hostapd_select_hw_mode:00000000000000e6 .L0 
C:\Users\stapi\AppData\Local\Temp\ccYEBfsk.s:1968   .text.hostapd_select_hw_mode:00000000000000e8 .L0 
C:\Users\stapi\AppData\Local\Temp\ccYEBfsk.s:1972   .text.hostapd_select_hw_mode:00000000000000f0 .L0 
C:\Users\stapi\AppData\Local\Temp\ccYEBfsk.s:1977   .text.hostapd_select_hw_mode:00000000000000fa .L0 
C:\Users\stapi\AppData\Local\Temp\ccYEBfsk.s:1983   .text.hostapd_select_hw_mode:000000000000010c .L0 
C:\Users\stapi\AppData\Local\Temp\ccYEBfsk.s:1984   .text.hostapd_select_hw_mode:000000000000010c .L0 
C:\Users\stapi\AppData\Local\Temp\ccYEBfsk.s:1985   .text.hostapd_select_hw_mode:000000000000010c .L0 
C:\Users\stapi\AppData\Local\Temp\ccYEBfsk.s:1986   .text.hostapd_select_hw_mode:000000000000010c .L0 
C:\Users\stapi\AppData\Local\Temp\ccYEBfsk.s:1987   .text.hostapd_select_hw_mode:000000000000010c .L0 
C:\Users\stapi\AppData\Local\Temp\ccYEBfsk.s:1990   .text.hostapd_select_hw_mode:000000000000010e .L0 
C:\Users\stapi\AppData\Local\Temp\ccYEBfsk.s:1991   .text.hostapd_select_hw_mode:0000000000000110 .L0 
C:\Users\stapi\AppData\Local\Temp\ccYEBfsk.s:1993   .text.hostapd_select_hw_mode:0000000000000118 .L0 
C:\Users\stapi\AppData\Local\Temp\ccYEBfsk.s:1994   .text.hostapd_select_hw_mode:0000000000000118 .L0 
C:\Users\stapi\AppData\Local\Temp\ccYEBfsk.s:1995   .text.hostapd_select_hw_mode:0000000000000118 .L0 
C:\Users\stapi\AppData\Local\Temp\ccYEBfsk.s:1996   .text.hostapd_select_hw_mode:0000000000000118 .L0 
C:\Users\stapi\AppData\Local\Temp\ccYEBfsk.s:1997   .text.hostapd_select_hw_mode:0000000000000118 .L0 
C:\Users\stapi\AppData\Local\Temp\ccYEBfsk.s:1998   .text.hostapd_select_hw_mode:0000000000000118 .L0 
C:\Users\stapi\AppData\Local\Temp\ccYEBfsk.s:2001   .text.hostapd_select_hw_mode:0000000000000118 .L0 
C:\Users\stapi\AppData\Local\Temp\ccYEBfsk.s:2003   .text.hostapd_select_hw_mode:0000000000000118 .L0 
C:\Users\stapi\AppData\Local\Temp\ccYEBfsk.s:2006   .text.hostapd_select_hw_mode:000000000000011a .L0 
C:\Users\stapi\AppData\Local\Temp\ccYEBfsk.s:2007   .text.hostapd_select_hw_mode:000000000000011c .L0 
C:\Users\stapi\AppData\Local\Temp\ccYEBfsk.s:2018   .text.hostapd_hw_mode_txt:0000000000000000 hostapd_hw_mode_txt
C:\Users\stapi\AppData\Local\Temp\ccYEBfsk.s:2021   .text.hostapd_hw_mode_txt:0000000000000000 .L0 
C:\Users\stapi\AppData\Local\Temp\ccYEBfsk.s:2023   .text.hostapd_hw_mode_txt:0000000000000000 .L0 
C:\Users\stapi\AppData\Local\Temp\ccYEBfsk.s:2024   .text.hostapd_hw_mode_txt:0000000000000000 .L0 
C:\Users\stapi\AppData\Local\Temp\ccYEBfsk.s:2035   .text.hostapd_hw_mode_txt:0000000000000016 .L0 
C:\Users\stapi\AppData\Local\Temp\ccYEBfsk.s:2039   .text.hostapd_hw_mode_txt:000000000000001e .L0 
C:\Users\stapi\AppData\Local\Temp\ccYEBfsk.s:2040   .text.hostapd_hw_mode_txt:0000000000000020 .L0 
C:\Users\stapi\AppData\Local\Temp\ccYEBfsk.s:2047   .text.hostapd_hw_get_freq:0000000000000000 hostapd_hw_get_freq
C:\Users\stapi\AppData\Local\Temp\ccYEBfsk.s:2050   .text.hostapd_hw_get_freq:0000000000000000 .L0 
C:\Users\stapi\AppData\Local\Temp\ccYEBfsk.s:2052   .text.hostapd_hw_get_freq:0000000000000000 .L0 
C:\Users\stapi\AppData\Local\Temp\ccYEBfsk.s:2053   .text.hostapd_hw_get_freq:0000000000000000 .L0 
C:\Users\stapi\AppData\Local\Temp\ccYEBfsk.s:2054   .text.hostapd_hw_get_freq:0000000000000000 .L0 
C:\Users\stapi\AppData\Local\Temp\ccYEBfsk.s:2059   .text.hostapd_hw_get_freq:000000000000000e .L0 
C:\Users\stapi\AppData\Local\Temp\ccYEBfsk.s:2066   .text.hostapd_hw_get_channel:0000000000000000 hostapd_hw_get_channel
C:\Users\stapi\AppData\Local\Temp\ccYEBfsk.s:2069   .text.hostapd_hw_get_channel:0000000000000000 .L0 
C:\Users\stapi\AppData\Local\Temp\ccYEBfsk.s:2071   .text.hostapd_hw_get_channel:0000000000000000 .L0 
C:\Users\stapi\AppData\Local\Temp\ccYEBfsk.s:2072   .text.hostapd_hw_get_channel:0000000000000008 .L0 
C:\Users\stapi\AppData\Local\Temp\ccYEBfsk.s:2073   .text.hostapd_hw_get_channel:0000000000000008 .L0 
C:\Users\stapi\AppData\Local\Temp\ccYEBfsk.s:2074   .text.hostapd_hw_get_channel:0000000000000008 .L0 
C:\Users\stapi\AppData\Local\Temp\ccYEBfsk.s:2075   .text.hostapd_hw_get_channel:0000000000000008 .L0 
C:\Users\stapi\AppData\Local\Temp\ccYEBfsk.s:2076   .text.hostapd_hw_get_channel:0000000000000008 .L0 
C:\Users\stapi\AppData\Local\Temp\ccYEBfsk.s:2077   .text.hostapd_hw_get_channel:0000000000000008 .L0 
C:\Users\stapi\AppData\Local\Temp\ccYEBfsk.s:2079   .text.hostapd_hw_get_channel:0000000000000008 .L0 
C:\Users\stapi\AppData\Local\Temp\ccYEBfsk.s:2080   .text.hostapd_hw_get_channel:0000000000000008 .L0 
C:\Users\stapi\AppData\Local\Temp\ccYEBfsk.s:2081   .text.hostapd_hw_get_channel:0000000000000008 .L0 
C:\Users\stapi\AppData\Local\Temp\ccYEBfsk.s:2082   .text.hostapd_hw_get_channel:0000000000000008 .L0 
C:\Users\stapi\AppData\Local\Temp\ccYEBfsk.s:2084   .text.hostapd_hw_get_channel:000000000000000a .L0 
C:\Users\stapi\AppData\Local\Temp\ccYEBfsk.s:2087   .text.hostapd_hw_get_channel:000000000000000e .L0 
C:\Users\stapi\AppData\Local\Temp\ccYEBfsk.s:2089   .text.hostapd_hw_get_channel:0000000000000012 .L0 
C:\Users\stapi\AppData\Local\Temp\ccYEBfsk.s:2093   .text.hostapd_hw_get_channel:0000000000000014 .L0 
C:\Users\stapi\AppData\Local\Temp\ccYEBfsk.s:2094   .text.hostapd_hw_get_channel:0000000000000014 .L0 
C:\Users\stapi\AppData\Local\Temp\ccYEBfsk.s:2096   .text.hostapd_hw_get_channel:0000000000000016 .L0 
C:\Users\stapi\AppData\Local\Temp\ccYEBfsk.s:2099   .text.hostapd_hw_get_channel:000000000000001c .L0 
C:\Users\stapi\AppData\Local\Temp\ccYEBfsk.s:2101   .text.hostapd_hw_get_channel:000000000000001e .L0 
C:\Users\stapi\AppData\Local\Temp\ccYEBfsk.s:2105   .text.hostapd_hw_get_channel:0000000000000022 .L0 
C:\Users\stapi\AppData\Local\Temp\ccYEBfsk.s:2106   .text.hostapd_hw_get_channel:0000000000000022 .L0 
C:\Users\stapi\AppData\Local\Temp\ccYEBfsk.s:2108   .text.hostapd_hw_get_channel:0000000000000024 .L0 
C:\Users\stapi\AppData\Local\Temp\ccYEBfsk.s:2110   .text.hostapd_hw_get_channel:0000000000000028 .L0 
C:\Users\stapi\AppData\Local\Temp\ccYEBfsk.s:2114   .text.hostapd_hw_get_channel:000000000000002c .L0 
C:\Users\stapi\AppData\Local\Temp\ccYEBfsk.s:2119   .text.hostapd_hw_get_channel:0000000000000030 .L0 
C:\Users\stapi\AppData\Local\Temp\ccYEBfsk.s:2120   .text.hostapd_hw_get_channel:0000000000000030 .L0 
C:\Users\stapi\AppData\Local\Temp\ccYEBfsk.s:2126   .text.hostapd_hw_get_channel:0000000000000042 .L0 
C:\Users\stapi\AppData\Local\Temp\ccYEBfsk.s:2127   .text.hostapd_hw_get_channel:0000000000000042 .L0 
C:\Users\stapi\AppData\Local\Temp\ccYEBfsk.s:2131   .text.hostapd_hw_get_channel:0000000000000044 .L0 
C:\Users\stapi\AppData\Local\Temp\ccYEBfsk.s:2132   .text.hostapd_hw_get_channel:000000000000004c .L0 
C:\Users\stapi\AppData\Local\Temp\ccYEBfsk.s:2133   .text.hostapd_hw_get_channel:000000000000004c .L0 
C:\Users\stapi\AppData\Local\Temp\ccYEBfsk.s:2134   .text.hostapd_hw_get_channel:000000000000004c .L0 
C:\Users\stapi\AppData\Local\Temp\ccYEBfsk.s:2135   .text.hostapd_hw_get_channel:000000000000004c .L0 
C:\Users\stapi\AppData\Local\Temp\ccYEBfsk.s:2136   .text.hostapd_hw_get_channel:000000000000004c .L0 
C:\Users\stapi\AppData\Local\Temp\ccYEBfsk.s:2137   .text.hostapd_hw_get_channel:000000000000004c .L0 
C:\Users\stapi\AppData\Local\Temp\ccYEBfsk.s:2138   .text.hostapd_hw_get_channel:000000000000004c .L0 
C:\Users\stapi\AppData\Local\Temp\ccYEBfsk.s:2141   .text.hostapd_hw_get_channel:000000000000004c .L0 
C:\Users\stapi\AppData\Local\Temp\ccYEBfsk.s:2143   .text.hostapd_hw_get_channel:000000000000004c .L0 
C:\Users\stapi\AppData\Local\Temp\ccYEBfsk.s:2144   .text.hostapd_hw_get_channel:000000000000004c .L0 
C:\Users\stapi\AppData\Local\Temp\ccYEBfsk.s:2147   .text.hostapd_hw_get_channel:0000000000000050 .L0 
C:\Users\stapi\AppData\Local\Temp\ccYEBfsk.s:2148   .text.hostapd_hw_get_channel:0000000000000050 .L0 
C:\Users\stapi\AppData\Local\Temp\ccYEBfsk.s:2155   .text.hostapd_hw_get_channel:0000000000000062 .L0 
C:\Users\stapi\AppData\Local\Temp\ccYEBfsk.s:2156   .text.hostapd_hw_get_channel:0000000000000062 .L0 
C:\Users\stapi\AppData\Local\Temp\ccYEBfsk.s:2158   .text.hostapd_hw_get_channel:0000000000000064 .L0 
C:\Users\stapi\AppData\Local\Temp\ccYEBfsk.s:2159   .text.hostapd_hw_get_channel:0000000000000064 .L0 
C:\Users\stapi\AppData\Local\Temp\ccYEBfsk.s:2162   .text.hostapd_hw_get_channel:0000000000000068 .L0 
C:\Users\stapi\AppData\Local\Temp\ccYEBfsk.s:2169   .text.hostapd_hw_skip_mode:0000000000000000 hostapd_hw_skip_mode
C:\Users\stapi\AppData\Local\Temp\ccYEBfsk.s:2172   .text.hostapd_hw_skip_mode:0000000000000000 .L0 
C:\Users\stapi\AppData\Local\Temp\ccYEBfsk.s:2174   .text.hostapd_hw_skip_mode:0000000000000000 .L0 
C:\Users\stapi\AppData\Local\Temp\ccYEBfsk.s:2175   .text.hostapd_hw_skip_mode:0000000000000000 .L0 
C:\Users\stapi\AppData\Local\Temp\ccYEBfsk.s:2176   .text.hostapd_hw_skip_mode:0000000000000000 .L0 
C:\Users\stapi\AppData\Local\Temp\ccYEBfsk.s:2177   .text.hostapd_hw_skip_mode:0000000000000000 .L0 
C:\Users\stapi\AppData\Local\Temp\ccYEBfsk.s:2179   .text.hostapd_hw_skip_mode:0000000000000004 .L0 
C:\Users\stapi\AppData\Local\Temp\ccYEBfsk.s:2181   .text.hostapd_hw_skip_mode:0000000000000006 .L0 
C:\Users\stapi\AppData\Local\Temp\ccYEBfsk.s:2183   .text.hostapd_hw_skip_mode:0000000000000008 .L0 
C:\Users\stapi\AppData\Local\Temp\ccYEBfsk.s:2184   .text.hostapd_hw_skip_mode:0000000000000008 .L0 
C:\Users\stapi\AppData\Local\Temp\ccYEBfsk.s:2191   .text.hostapd_hw_skip_mode:0000000000000012 .L0 
C:\Users\stapi\AppData\Local\Temp\ccYEBfsk.s:2192   .text.hostapd_hw_skip_mode:0000000000000012 .L0 
C:\Users\stapi\AppData\Local\Temp\ccYEBfsk.s:2194   .text.hostapd_hw_skip_mode:0000000000000014 .L0 
C:\Users\stapi\AppData\Local\Temp\ccYEBfsk.s:2197   .text.hostapd_hw_skip_mode:0000000000000016 .L0 
C:\Users\stapi\AppData\Local\Temp\ccYEBfsk.s:2199   .text.hostapd_hw_skip_mode:0000000000000018 .L0 
C:\Users\stapi\AppData\Local\Temp\ccYEBfsk.s:2201   .text.hostapd_hw_skip_mode:000000000000001c .L0 
C:\Users\stapi\AppData\Local\Temp\ccYEBfsk.s:2204   .text.hostapd_hw_skip_mode:0000000000000020 .L0 
C:\Users\stapi\AppData\Local\Temp\ccYEBfsk.s:2208   .text.hostapd_hw_skip_mode:0000000000000022 .L0 
C:\Users\stapi\AppData\Local\Temp\ccYEBfsk.s:2209   .text.hostapd_hw_skip_mode:0000000000000022 .L0 
C:\Users\stapi\AppData\Local\Temp\ccYEBfsk.s:2211   .text.hostapd_hw_skip_mode:0000000000000026 .L0 
C:\Users\stapi\AppData\Local\Temp\ccYEBfsk.s:2215   .text.hostapd_hw_skip_mode:000000000000002a .L0 
C:\Users\stapi\AppData\Local\Temp\ccYEBfsk.s:2216   .text.hostapd_hw_skip_mode:000000000000002a .L0 
C:\Users\stapi\AppData\Local\Temp\ccYEBfsk.s:2219   .text.hostapd_hw_skip_mode:0000000000000032 .L0 
C:\Users\stapi\AppData\Local\Temp\ccYEBfsk.s:2222   .text.hostapd_hw_skip_mode:0000000000000038 .L0 
C:\Users\stapi\AppData\Local\Temp\ccYEBfsk.s:2223   .text.hostapd_hw_skip_mode:0000000000000038 .L0 
C:\Users\stapi\AppData\Local\Temp\ccYEBfsk.s:2228   .text.hostapd_hw_skip_mode:000000000000003c .L0 
C:\Users\stapi\AppData\Local\Temp\ccYEBfsk.s:2232   .text.hostapd_hw_skip_mode:000000000000003e .L0 
C:\Users\stapi\AppData\Local\Temp\ccYEBfsk.s:2233   .text.hostapd_hw_skip_mode:0000000000000040 .L0 
C:\Users\stapi\AppData\Local\Temp\ccYEBfsk.s:2251   .rodata:0000000000000000 .LANCHOR1
C:\Users\stapi\AppData\Local\Temp\ccYEBfsk.s:2269   .bss.info.0:0000000000000000 .LANCHOR0
C:\Users\stapi\AppData\Local\Temp\ccYEBfsk.s:2272   .bss.info.0:0000000000000000 info.0
C:\Users\stapi\AppData\Local\Temp\ccYEBfsk.s:2276   .rodata.CSWTCH.52:0000000000000000 .LANCHOR2
C:\Users\stapi\AppData\Local\Temp\ccYEBfsk.s:2279   .rodata.CSWTCH.52:0000000000000000 CSWTCH.52
C:\Users\stapi\AppData\Local\Temp\ccYEBfsk.s:328    .text.hostapd_check_chans:0000000000000146 .L0 
C:\Users\stapi\AppData\Local\Temp\ccYEBfsk.s:410    .text.hostapd_free_hw_features:0000000000000048 .L0 
C:\Users\stapi\AppData\Local\Temp\ccYEBfsk.s:783    .text.hostapd_get_hw_features:0000000000000188 .L0 
C:\Users\stapi\AppData\Local\Temp\ccYEBfsk.s:1131   .text.hostapd_prepare_rates:00000000000001b4 .L0 
C:\Users\stapi\AppData\Local\Temp\ccYEBfsk.s:1412   .text.hostapd_check_ht_capab:0000000000000170 .L0 
C:\Users\stapi\AppData\Local\Temp\ccYEBfsk.s:1487   .text.hostapd_check_edmg_capab:0000000000000062 .L0 
C:\Users\stapi\AppData\Local\Temp\ccYEBfsk.s:1623   .text.hostapd_check_he_6ghz_capab:000000000000009e .L0 
C:\Users\stapi\AppData\Local\Temp\ccYEBfsk.s:1775   .text.hostapd_acs_completed:00000000000000be .L0 
C:\Users\stapi\AppData\Local\Temp\ccYEBfsk.s:2010   .text.hostapd_select_hw_mode:000000000000011c .L0 
C:\Users\stapi\AppData\Local\Temp\ccYEBfsk.s:2043   .text.hostapd_hw_mode_txt:0000000000000020 .L0 
C:\Users\stapi\AppData\Local\Temp\ccYEBfsk.s:2062   .text.hostapd_hw_get_freq:000000000000000e .L0 
C:\Users\stapi\AppData\Local\Temp\ccYEBfsk.s:2165   .text.hostapd_hw_get_channel:0000000000000068 .L0 
C:\Users\stapi\AppData\Local\Temp\ccYEBfsk.s:2236   .text.hostapd_hw_skip_mode:0000000000000040 .L0 
                     .debug_frame:0000000000000000 .L0 
C:\Users\stapi\AppData\Local\Temp\ccYEBfsk.s:35     .rodata.hostapd_check_chans.str1.4:00000000000000ec .LC11
C:\Users\stapi\AppData\Local\Temp\ccYEBfsk.s:20     .rodata.hostapd_check_chans.str1.4:0000000000000014 .LC6
C:\Users\stapi\AppData\Local\Temp\ccYEBfsk.s:14     .rodata.hostapd_check_chans.str1.4:0000000000000008 .LC4
C:\Users\stapi\AppData\Local\Temp\ccYEBfsk.s:23     .rodata.hostapd_check_chans.str1.4:0000000000000034 .LC7
C:\Users\stapi\AppData\Local\Temp\ccYEBfsk.s:26     .rodata.hostapd_check_chans.str1.4:000000000000003c .LC8
C:\Users\stapi\AppData\Local\Temp\ccYEBfsk.s:29     .rodata.hostapd_check_chans.str1.4:0000000000000078 .LC9
C:\Users\stapi\AppData\Local\Temp\ccYEBfsk.s:11     .rodata.hostapd_check_chans.str1.4:0000000000000000 .LC3
C:\Users\stapi\AppData\Local\Temp\ccYEBfsk.s:17     .rodata.hostapd_check_chans.str1.4:000000000000000c .LC5
C:\Users\stapi\AppData\Local\Temp\ccYEBfsk.s:32     .rodata.hostapd_check_chans.str1.4:0000000000000098 .LC10
C:\Users\stapi\AppData\Local\Temp\ccYEBfsk.s:308    .text.hostapd_check_chans:000000000000013c .L2
C:\Users\stapi\AppData\Local\Temp\ccYEBfsk.s:143    .text.hostapd_check_chans:0000000000000072 .L3
C:\Users\stapi\AppData\Local\Temp\ccYEBfsk.s:95     .text.hostapd_check_chans:000000000000003a .L4
C:\Users\stapi\AppData\Local\Temp\ccYEBfsk.s:120    .text.hostapd_check_chans:000000000000005c .L7
C:\Users\stapi\AppData\Local\Temp\ccYEBfsk.s:200    .text.hostapd_check_chans:00000000000000b2 .L6
C:\Users\stapi\AppData\Local\Temp\ccYEBfsk.s:188    .text.hostapd_check_chans:00000000000000a8 .L1
C:\Users\stapi\AppData\Local\Temp\ccYEBfsk.s:212    .text.hostapd_check_chans:00000000000000b6 .L10
C:\Users\stapi\AppData\Local\Temp\ccYEBfsk.s:106    .text.hostapd_check_chans:0000000000000044 .L5
C:\Users\stapi\AppData\Local\Temp\ccYEBfsk.s:288    .text.hostapd_check_chans:000000000000011e .L12
C:\Users\stapi\AppData\Local\Temp\ccYEBfsk.s:296    .text.hostapd_check_chans:0000000000000128 .L20
C:\Users\stapi\AppData\Local\Temp\ccYEBfsk.s:303    .text.hostapd_check_chans:0000000000000132 .L21
C:\Users\stapi\AppData\Local\Temp\ccYEBfsk.s:178    .text.hostapd_check_chans:000000000000009c .L27
C:\Users\stapi\AppData\Local\Temp\ccYEBfsk.s:271    .text.hostapd_check_chans:00000000000000f4 .L14
C:\Users\stapi\AppData\Local\Temp\ccYEBfsk.s:278    .text.hostapd_check_chans:0000000000000102 .L15
C:\Users\stapi\AppData\Local\Temp\ccYEBfsk.s:397    .text.hostapd_free_hw_features:0000000000000046 .L36
C:\Users\stapi\AppData\Local\Temp\ccYEBfsk.s:377    .text.hostapd_free_hw_features:000000000000002a .L31
C:\Users\stapi\AppData\Local\Temp\ccYEBfsk.s:357    .text.hostapd_free_hw_features:0000000000000014 .L30
C:\Users\stapi\AppData\Local\Temp\ccYEBfsk.s:418    .rodata.hostapd_get_hw_features.str1.4:0000000000000010 .LC14
C:\Users\stapi\AppData\Local\Temp\ccYEBfsk.s:421    .rodata.hostapd_get_hw_features.str1.4:000000000000001c .LC15
C:\Users\stapi\AppData\Local\Temp\ccYEBfsk.s:427    .rodata.hostapd_get_hw_features.str1.4:000000000000003c .LC17
C:\Users\stapi\AppData\Local\Temp\ccYEBfsk.s:424    .rodata.hostapd_get_hw_features.str1.4:0000000000000028 .LC16
C:\Users\stapi\AppData\Local\Temp\ccYEBfsk.s:415    .rodata.hostapd_get_hw_features.str1.4:0000000000000008 .LC13
C:\Users\stapi\AppData\Local\Temp\ccYEBfsk.s:412    .rodata.hostapd_get_hw_features.str1.4:0000000000000000 .LC12
C:\Users\stapi\AppData\Local\Temp\ccYEBfsk.s:500    .text.hostapd_get_hw_features:000000000000002c .L40
C:\Users\stapi\AppData\Local\Temp\ccYEBfsk.s:476    .text.hostapd_get_hw_features:000000000000001e .L42
C:\Users\stapi\AppData\Local\Temp\ccYEBfsk.s:479    .text.hostapd_get_hw_features:0000000000000020 .L39
C:\Users\stapi\AppData\Local\Temp\ccYEBfsk.s:599    .text.hostapd_get_hw_features:00000000000000a8 .L44
C:\Users\stapi\AppData\Local\Temp\ccYEBfsk.s:635    .text.hostapd_get_hw_features:00000000000000c0 .L54
C:\Users\stapi\AppData\Local\Temp\ccYEBfsk.s:577    .text.hostapd_get_hw_features:000000000000008c .L43
C:\Users\stapi\AppData\Local\Temp\ccYEBfsk.s:662    .text.hostapd_get_hw_features:00000000000000e0 .L46
C:\Users\stapi\AppData\Local\Temp\ccYEBfsk.s:674    .text.hostapd_get_hw_features:00000000000000ee .L47
C:\Users\stapi\AppData\Local\Temp\ccYEBfsk.s:667    .text.hostapd_get_hw_features:00000000000000e6 .L48
C:\Users\stapi\AppData\Local\Temp\ccYEBfsk.s:720    .text.hostapd_get_hw_features:0000000000000138 .L50
C:\Users\stapi\AppData\Local\Temp\ccYEBfsk.s:709    .text.hostapd_get_hw_features:0000000000000122 .L51
C:\Users\stapi\AppData\Local\Temp\ccYEBfsk.s:762    .text.hostapd_get_hw_features:0000000000000170 .L58
C:\Users\stapi\AppData\Local\Temp\ccYEBfsk.s:728    .text.hostapd_get_hw_features:000000000000013c .L53
C:\Users\stapi\AppData\Local\Temp\ccYEBfsk.s:766    .text.hostapd_get_hw_features:0000000000000174 .L59
C:\Users\stapi\AppData\Local\Temp\ccYEBfsk.s:771    .text.hostapd_get_hw_features:000000000000017e .L60
C:\Users\stapi\AppData\Local\Temp\ccYEBfsk.s:618    .text.hostapd_get_hw_features:00000000000000b2 .L45
C:\Users\stapi\AppData\Local\Temp\ccYEBfsk.s:737    .text.hostapd_get_hw_features:0000000000000146 .L52
C:\Users\stapi\AppData\Local\Temp\ccYEBfsk.s:785    .rodata.hostapd_prepare_rates.str1.4:0000000000000000 .LC18
C:\Users\stapi\AppData\Local\Temp\ccYEBfsk.s:788    .rodata.hostapd_prepare_rates.str1.4:000000000000002c .LC19
C:\Users\stapi\AppData\Local\Temp\ccYEBfsk.s:791    .rodata.hostapd_prepare_rates.str1.4:0000000000000048 .LC20
C:\Users\stapi\AppData\Local\Temp\ccYEBfsk.s:867    .text.hostapd_prepare_rates:0000000000000066 .L79
C:\Users\stapi\AppData\Local\Temp\ccYEBfsk.s:973    .text.hostapd_prepare_rates:00000000000000e8 .L99
C:\Users\stapi\AppData\Local\Temp\ccYEBfsk.s:950    .text.hostapd_prepare_rates:00000000000000d4 .L80
C:\Users\stapi\AppData\Local\Temp\ccYEBfsk.s:979    .text.hostapd_prepare_rates:00000000000000ee .L83
C:\Users\stapi\AppData\Local\Temp\ccYEBfsk.s:888    .text.hostapd_prepare_rates:0000000000000076 .L84
C:\Users\stapi\AppData\Local\Temp\ccYEBfsk.s:912    .text.hostapd_prepare_rates:00000000000000a0 .L85
C:\Users\stapi\AppData\Local\Temp\ccYEBfsk.s:986    .text.hostapd_prepare_rates:00000000000000f2 .L88
C:\Users\stapi\AppData\Local\Temp\ccYEBfsk.s:956    .text.hostapd_prepare_rates:00000000000000de .L78
C:\Users\stapi\AppData\Local\Temp\ccYEBfsk.s:874    .text.hostapd_prepare_rates:0000000000000068 .L82
C:\Users\stapi\AppData\Local\Temp\ccYEBfsk.s:936    .text.hostapd_prepare_rates:00000000000000be .L89
C:\Users\stapi\AppData\Local\Temp\ccYEBfsk.s:1046   .text.hostapd_prepare_rates:0000000000000144 .L96
C:\Users\stapi\AppData\Local\Temp\ccYEBfsk.s:1025   .text.hostapd_prepare_rates:000000000000011e .L97
C:\Users\stapi\AppData\Local\Temp\ccYEBfsk.s:1037   .text.hostapd_prepare_rates:000000000000012e .L98
C:\Users\stapi\AppData\Local\Temp\ccYEBfsk.s:944    .text.hostapd_prepare_rates:00000000000000d0 .L122
C:\Users\stapi\AppData\Local\Temp\ccYEBfsk.s:1096   .text.hostapd_prepare_rates:0000000000000192 .L91
C:\Users\stapi\AppData\Local\Temp\ccYEBfsk.s:1113   .text.hostapd_prepare_rates:00000000000001a8 .L92
C:\Users\stapi\AppData\Local\Temp\ccYEBfsk.s:1105   .text.hostapd_prepare_rates:00000000000001a4 .L94
C:\Users\stapi\AppData\Local\Temp\ccYEBfsk.s:1056   .text.hostapd_prepare_rates:000000000000014e .L95
C:\Users\stapi\AppData\Local\Temp\ccYEBfsk.s:1010   .text.hostapd_prepare_rates:000000000000010a .L90
C:\Users\stapi\AppData\Local\Temp\ccYEBfsk.s:1080   .text.hostapd_prepare_rates:0000000000000170 .L93
C:\Users\stapi\AppData\Local\Temp\ccYEBfsk.s:1133   .rodata.hostapd_check_ht_capab.str1.4:0000000000000000 .LC21
C:\Users\stapi\AppData\Local\Temp\ccYEBfsk.s:1136   .rodata.hostapd_check_ht_capab.str1.4:0000000000000034 .LC22
C:\Users\stapi\AppData\Local\Temp\ccYEBfsk.s:1139   .rodata.hostapd_check_ht_capab.str1.4:000000000000006c .LC23
C:\Users\stapi\AppData\Local\Temp\ccYEBfsk.s:1142   .rodata.hostapd_check_ht_capab.str1.4:00000000000000a8 .LC24
C:\Users\stapi\AppData\Local\Temp\ccYEBfsk.s:1145   .rodata.hostapd_check_ht_capab.str1.4:00000000000000e0 .LC25
C:\Users\stapi\AppData\Local\Temp\ccYEBfsk.s:1148   .rodata.hostapd_check_ht_capab.str1.4:0000000000000120 .LC26
C:\Users\stapi\AppData\Local\Temp\ccYEBfsk.s:1151   .rodata.hostapd_check_ht_capab.str1.4:0000000000000160 .LC27
C:\Users\stapi\AppData\Local\Temp\ccYEBfsk.s:1154   .rodata.hostapd_check_ht_capab.str1.4:000000000000019c .LC28
C:\Users\stapi\AppData\Local\Temp\ccYEBfsk.s:1157   .rodata.hostapd_check_ht_capab.str1.4:00000000000001d8 .LC29
C:\Users\stapi\AppData\Local\Temp\ccYEBfsk.s:1160   .rodata.hostapd_check_ht_capab.str1.4:0000000000000218 .LC30
C:\Users\stapi\AppData\Local\Temp\ccYEBfsk.s:1163   .rodata.hostapd_check_ht_capab.str1.4:000000000000025c .LC31
C:\Users\stapi\AppData\Local\Temp\ccYEBfsk.s:1166   .rodata.hostapd_check_ht_capab.str1.4:000000000000029c .LC32
C:\Users\stapi\AppData\Local\Temp\ccYEBfsk.s:1204   .text.hostapd_check_ht_capab:0000000000000016 .L124
C:\Users\stapi\AppData\Local\Temp\ccYEBfsk.s:1237   .text.hostapd_check_ht_capab:0000000000000056 .L126
C:\Users\stapi\AppData\Local\Temp\ccYEBfsk.s:1279   .text.hostapd_check_ht_capab:0000000000000086 .L127
C:\Users\stapi\AppData\Local\Temp\ccYEBfsk.s:1197   .text.hostapd_check_ht_capab:000000000000000e .L123
C:\Users\stapi\AppData\Local\Temp\ccYEBfsk.s:1296   .text.hostapd_check_ht_capab:00000000000000a2 .L128
C:\Users\stapi\AppData\Local\Temp\ccYEBfsk.s:1266   .text.hostapd_check_ht_capab:0000000000000078 .L171
C:\Users\stapi\AppData\Local\Temp\ccYEBfsk.s:1308   .text.hostapd_check_ht_capab:00000000000000b8 .L129
C:\Users\stapi\AppData\Local\Temp\ccYEBfsk.s:1320   .text.hostapd_check_ht_capab:00000000000000ce .L130
C:\Users\stapi\AppData\Local\Temp\ccYEBfsk.s:1332   .text.hostapd_check_ht_capab:00000000000000e4 .L131
C:\Users\stapi\AppData\Local\Temp\ccYEBfsk.s:1344   .text.hostapd_check_ht_capab:00000000000000fa .L132
C:\Users\stapi\AppData\Local\Temp\ccYEBfsk.s:1354   .text.hostapd_check_ht_capab:0000000000000110 .L133
C:\Users\stapi\AppData\Local\Temp\ccYEBfsk.s:1366   .text.hostapd_check_ht_capab:0000000000000126 .L134
C:\Users\stapi\AppData\Local\Temp\ccYEBfsk.s:1380   .text.hostapd_check_ht_capab:0000000000000140 .L135
C:\Users\stapi\AppData\Local\Temp\ccYEBfsk.s:1393   .text.hostapd_check_ht_capab:0000000000000156 .L136
C:\Users\stapi\AppData\Local\Temp\ccYEBfsk.s:1190   .text.hostapd_check_ht_capab:000000000000000c .L137
C:\Users\stapi\AppData\Local\Temp\ccYEBfsk.s:1414   .rodata.hostapd_check_edmg_capab.str1.4:0000000000000000 .LC33
C:\Users\stapi\AppData\Local\Temp\ccYEBfsk.s:1417   .rodata.hostapd_check_edmg_capab.str1.4:000000000000002c .LC34
C:\Users\stapi\AppData\Local\Temp\ccYEBfsk.s:1420   .rodata.hostapd_check_edmg_capab.str1.4:0000000000000054 .LC35
C:\Users\stapi\AppData\Local\Temp\ccYEBfsk.s:1482   .text.hostapd_check_edmg_capab:0000000000000060 .L178
C:\Users\stapi\AppData\Local\Temp\ccYEBfsk.s:1489   .rodata.hostapd_check_he_6ghz_capab.str1.4:0000000000000000 .LC36
C:\Users\stapi\AppData\Local\Temp\ccYEBfsk.s:1492   .rodata.hostapd_check_he_6ghz_capab.str1.4:0000000000000044 .LC37
C:\Users\stapi\AppData\Local\Temp\ccYEBfsk.s:1495   .rodata.hostapd_check_he_6ghz_capab.str1.4:0000000000000094 .LC38
C:\Users\stapi\AppData\Local\Temp\ccYEBfsk.s:1498   .rodata.hostapd_check_he_6ghz_capab.str1.4:00000000000000dc .LC39
C:\Users\stapi\AppData\Local\Temp\ccYEBfsk.s:1534   .text.hostapd_check_he_6ghz_capab:0000000000000014 .L182
C:\Users\stapi\AppData\Local\Temp\ccYEBfsk.s:1521   .text.hostapd_check_he_6ghz_capab:000000000000000a .L184
C:\Users\stapi\AppData\Local\Temp\ccYEBfsk.s:1580   .text.hostapd_check_he_6ghz_capab:000000000000005a .L185
C:\Users\stapi\AppData\Local\Temp\ccYEBfsk.s:1527   .text.hostapd_check_he_6ghz_capab:000000000000000c .L181
C:\Users\stapi\AppData\Local\Temp\ccYEBfsk.s:1593   .text.hostapd_check_he_6ghz_capab:0000000000000072 .L186
C:\Users\stapi\AppData\Local\Temp\ccYEBfsk.s:1570   .text.hostapd_check_he_6ghz_capab:000000000000004c .L200
C:\Users\stapi\AppData\Local\Temp\ccYEBfsk.s:1606   .text.hostapd_check_he_6ghz_capab:0000000000000088 .L187
C:\Users\stapi\AppData\Local\Temp\ccYEBfsk.s:1631   .rodata.hostapd_acs_completed.str1.4:000000000000005c .LC42
C:\Users\stapi\AppData\Local\Temp\ccYEBfsk.s:1634   .rodata.hostapd_acs_completed.str1.4:0000000000000068 .LC43
C:\Users\stapi\AppData\Local\Temp\ccYEBfsk.s:1625   .rodata.hostapd_acs_completed.str1.4:0000000000000000 .LC40
C:\Users\stapi\AppData\Local\Temp\ccYEBfsk.s:1628   .rodata.hostapd_acs_completed.str1.4:0000000000000024 .LC41
C:\Users\stapi\AppData\Local\Temp\ccYEBfsk.s:1637   .rodata.hostapd_acs_completed.str1.4:0000000000000088 .LC44
C:\Users\stapi\AppData\Local\Temp\ccYEBfsk.s:1704   .text.hostapd_acs_completed:0000000000000060 .L202
C:\Users\stapi\AppData\Local\Temp\ccYEBfsk.s:1676   .text.hostapd_acs_completed:000000000000002c .L203
C:\Users\stapi\AppData\Local\Temp\ccYEBfsk.s:1713   .text.hostapd_acs_completed:000000000000006e .L204
C:\Users\stapi\AppData\Local\Temp\ccYEBfsk.s:1717   .text.hostapd_acs_completed:0000000000000076 .L213
C:\Users\stapi\AppData\Local\Temp\ccYEBfsk.s:1743   .text.hostapd_acs_completed:0000000000000098 .L211
C:\Users\stapi\AppData\Local\Temp\ccYEBfsk.s:1757   .text.hostapd_acs_completed:00000000000000b2 .L201
C:\Users\stapi\AppData\Local\Temp\ccYEBfsk.s:1766   .text.hostapd_acs_completed:00000000000000ba .L209
C:\Users\stapi\AppData\Local\Temp\ccYEBfsk.s:1777   .rodata.hostapd_select_hw_mode.str1.4:0000000000000000 .LC45
C:\Users\stapi\AppData\Local\Temp\ccYEBfsk.s:1780   .rodata.hostapd_select_hw_mode.str1.4:0000000000000028 .LC46
C:\Users\stapi\AppData\Local\Temp\ccYEBfsk.s:1783   .rodata.hostapd_select_hw_mode.str1.4:0000000000000048 .LC47
C:\Users\stapi\AppData\Local\Temp\ccYEBfsk.s:1786   .rodata.hostapd_select_hw_mode.str1.4:000000000000006c .LC48
C:\Users\stapi\AppData\Local\Temp\ccYEBfsk.s:2000   .text.hostapd_select_hw_mode:0000000000000118 .L227
C:\Users\stapi\AppData\Local\Temp\ccYEBfsk.s:1832   .text.hostapd_select_hw_mode:0000000000000030 .L216
C:\Users\stapi\AppData\Local\Temp\ccYEBfsk.s:1858   .text.hostapd_select_hw_mode:000000000000005e .L217
C:\Users\stapi\AppData\Local\Temp\ccYEBfsk.s:1900   .text.hostapd_select_hw_mode:000000000000009a .L222
C:\Users\stapi\AppData\Local\Temp\ccYEBfsk.s:1945   .text.hostapd_select_hw_mode:00000000000000ca .L221
C:\Users\stapi\AppData\Local\Temp\ccYEBfsk.s:1963   .text.hostapd_select_hw_mode:00000000000000e6 .L223
C:\Users\stapi\AppData\Local\Temp\ccYEBfsk.s:1975   .text.hostapd_select_hw_mode:00000000000000fa .L225
C:\Users\stapi\AppData\Local\Temp\ccYEBfsk.s:1928   .text.hostapd_select_hw_mode:00000000000000c2 .L219
C:\Users\stapi\AppData\Local\Temp\ccYEBfsk.s:1936   .text.hostapd_select_hw_mode:00000000000000c6 .L220
C:\Users\stapi\AppData\Local\Temp\ccYEBfsk.s:1870   .text.hostapd_select_hw_mode:0000000000000068 .L218
C:\Users\stapi\AppData\Local\Temp\ccYEBfsk.s:1988   .text.hostapd_select_hw_mode:000000000000010e .L214
C:\Users\stapi\AppData\Local\Temp\ccYEBfsk.s:1894   .text.hostapd_select_hw_mode:000000000000008e .L240
C:\Users\stapi\AppData\Local\Temp\ccYEBfsk.s:2012   .rodata.hostapd_hw_mode_txt.str1.4:0000000000000000 .LC49
C:\Users\stapi\AppData\Local\Temp\ccYEBfsk.s:2033   .text.hostapd_hw_mode_txt:0000000000000016 .L243
C:\Users\stapi\AppData\Local\Temp\ccYEBfsk.s:2117   .text.hostapd_hw_get_channel:0000000000000030 .L247
C:\Users\stapi\AppData\Local\Temp\ccYEBfsk.s:2112   .text.hostapd_hw_get_channel:000000000000002c .L248
C:\Users\stapi\AppData\Local\Temp\ccYEBfsk.s:2140   .text.hostapd_hw_get_channel:000000000000004c .L252
C:\Users\stapi\AppData\Local\Temp\ccYEBfsk.s:2129   .text.hostapd_hw_get_channel:0000000000000044 .L246
C:\Users\stapi\AppData\Local\Temp\ccYEBfsk.s:2091   .text.hostapd_hw_get_channel:0000000000000014 .L251
C:\Users\stapi\AppData\Local\Temp\ccYEBfsk.s:2102   .text.hostapd_hw_get_channel:0000000000000022 .L249
C:\Users\stapi\AppData\Local\Temp\ccYEBfsk.s:2189   .text.hostapd_hw_skip_mode:0000000000000012 .L258
C:\Users\stapi\AppData\Local\Temp\ccYEBfsk.s:2230   .text.hostapd_hw_skip_mode:000000000000003e .L257
C:\Users\stapi\AppData\Local\Temp\ccYEBfsk.s:2213   .text.hostapd_hw_skip_mode:000000000000002a .L261
C:\Users\stapi\AppData\Local\Temp\ccYEBfsk.s:2226   .text.hostapd_hw_skip_mode:000000000000003c .L263
C:\Users\stapi\AppData\Local\Temp\ccYEBfsk.s:2205   .text.hostapd_hw_skip_mode:0000000000000022 .L260
C:\Users\stapi\AppData\Local\Temp\ccYEBfsk.s:2238   .rodata.str1.4:0000000000000000 .LC50
C:\Users\stapi\AppData\Local\Temp\ccYEBfsk.s:2241   .rodata.str1.4:0000000000000010 .LC51
C:\Users\stapi\AppData\Local\Temp\ccYEBfsk.s:2244   .rodata.str1.4:0000000000000020 .LC52
C:\Users\stapi\AppData\Local\Temp\ccYEBfsk.s:2247   .rodata.str1.4:0000000000000030 .LC53
C:\Users\stapi\AppData\Local\Temp\ccYEBfsk.s:17232  .debug_abbrev:0000000000000000 .Ldebug_abbrev0
C:\Users\stapi\AppData\Local\Temp\ccYEBfsk.s:21433  .debug_str:0000000000002ef0 .LASF1424
C:\Users\stapi\AppData\Local\Temp\ccYEBfsk.s:22331  .debug_str:0000000000004a2e .LASF1425
C:\Users\stapi\AppData\Local\Temp\ccYEBfsk.s:22501  .debug_str:0000000000004fc8 .LASF1426
C:\Users\stapi\AppData\Local\Temp\ccYEBfsk.s:19675  .debug_ranges:0000000000000000 .Ldebug_ranges0
C:\Users\stapi\AppData\Local\Temp\ccYEBfsk.s:19823  .debug_line:0000000000000000 .Ldebug_line0
C:\Users\stapi\AppData\Local\Temp\ccYEBfsk.s:20245  .debug_str:0000000000000bd9 .LASF1
C:\Users\stapi\AppData\Local\Temp\ccYEBfsk.s:22679  .debug_str:0000000000005567 .LASF0
C:\Users\stapi\AppData\Local\Temp\ccYEBfsk.s:20983  .debug_str:000000000000214b .LASF2
C:\Users\stapi\AppData\Local\Temp\ccYEBfsk.s:22065  .debug_str:0000000000004251 .LASF3
C:\Users\stapi\AppData\Local\Temp\ccYEBfsk.s:20397  .debug_str:0000000000001090 .LASF4
C:\Users\stapi\AppData\Local\Temp\ccYEBfsk.s:21231  .debug_str:00000000000028cc .LASF5
C:\Users\stapi\AppData\Local\Temp\ccYEBfsk.s:21693  .debug_str:00000000000037ff .LASF6
C:\Users\stapi\AppData\Local\Temp\ccYEBfsk.s:20727  .debug_str:0000000000001a04 .LASF7
C:\Users\stapi\AppData\Local\Temp\ccYEBfsk.s:21115  .debug_str:0000000000002596 .LASF8
C:\Users\stapi\AppData\Local\Temp\ccYEBfsk.s:21793  .debug_str:0000000000003aab .LASF9
C:\Users\stapi\AppData\Local\Temp\ccYEBfsk.s:21789  .debug_str:0000000000003a96 .LASF10
C:\Users\stapi\AppData\Local\Temp\ccYEBfsk.s:21393  .debug_str:0000000000002db3 .LASF11
C:\Users\stapi\AppData\Local\Temp\ccYEBfsk.s:19857  .debug_str:00000000000000e9 .LASF12
C:\Users\stapi\AppData\Local\Temp\ccYEBfsk.s:19829  .debug_str:0000000000000022 .LASF13
C:\Users\stapi\AppData\Local\Temp\ccYEBfsk.s:22121  .debug_str:00000000000043ea .LASF14
C:\Users\stapi\AppData\Local\Temp\ccYEBfsk.s:22195  .debug_str:0000000000004614 .LASF15
C:\Users\stapi\AppData\Local\Temp\ccYEBfsk.s:22349  .debug_str:0000000000004b34 .LASF16
C:\Users\stapi\AppData\Local\Temp\ccYEBfsk.s:22139  .debug_str:000000000000448b .LASF17
C:\Users\stapi\AppData\Local\Temp\ccYEBfsk.s:21169  .debug_str:0000000000002728 .LASF18
C:\Users\stapi\AppData\Local\Temp\ccYEBfsk.s:22177  .debug_str:000000000000459d .LASF19
C:\Users\stapi\AppData\Local\Temp\ccYEBfsk.s:22629  .debug_str:00000000000053f3 .LASF20
C:\Users\stapi\AppData\Local\Temp\ccYEBfsk.s:20043  .debug_str:000000000000063c .LASF21
C:\Users\stapi\AppData\Local\Temp\ccYEBfsk.s:20759  .debug_str:0000000000001ad9 .LASF22
C:\Users\stapi\AppData\Local\Temp\ccYEBfsk.s:20925  .debug_str:0000000000001f9b .LASF23
C:\Users\stapi\AppData\Local\Temp\ccYEBfsk.s:20811  .debug_str:0000000000001c34 .LASF24
C:\Users\stapi\AppData\Local\Temp\ccYEBfsk.s:21303  .debug_str:0000000000002b0c .LASF25
C:\Users\stapi\AppData\Local\Temp\ccYEBfsk.s:20537  .debug_str:0000000000001485 .LASF27
C:\Users\stapi\AppData\Local\Temp\ccYEBfsk.s:20193  .debug_str:0000000000000a43 .LASF29
C:\Users\stapi\AppData\Local\Temp\ccYEBfsk.s:20921  .debug_str:0000000000001f7e .LASF26
C:\Users\stapi\AppData\Local\Temp\ccYEBfsk.s:21059  .debug_str:00000000000023c5 .LASF28
C:\Users\stapi\AppData\Local\Temp\ccYEBfsk.s:22315  .debug_str:00000000000049bd .LASF30
C:\Users\stapi\AppData\Local\Temp\ccYEBfsk.s:20697  .debug_str:0000000000001938 .LASF31
C:\Users\stapi\AppData\Local\Temp\ccYEBfsk.s:20749  .debug_str:0000000000001a90 .LASF32
C:\Users\stapi\AppData\Local\Temp\ccYEBfsk.s:19917  .debug_str:00000000000002be .LASF33
C:\Users\stapi\AppData\Local\Temp\ccYEBfsk.s:20185  .debug_str:0000000000000a02 .LASF34
C:\Users\stapi\AppData\Local\Temp\ccYEBfsk.s:22317  .debug_str:00000000000049c2 .LASF35
C:\Users\stapi\AppData\Local\Temp\ccYEBfsk.s:22313  .debug_str:00000000000049b7 .LASF36
C:\Users\stapi\AppData\Local\Temp\ccYEBfsk.s:21671  .debug_str:000000000000376f .LASF37
C:\Users\stapi\AppData\Local\Temp\ccYEBfsk.s:21211  .debug_str:0000000000002840 .LASF38
C:\Users\stapi\AppData\Local\Temp\ccYEBfsk.s:21309  .debug_str:0000000000002b44 .LASF39
C:\Users\stapi\AppData\Local\Temp\ccYEBfsk.s:21271  .debug_str:0000000000002a26 .LASF40
C:\Users\stapi\AppData\Local\Temp\ccYEBfsk.s:20771  .debug_str:0000000000001b1b .LASF41
C:\Users\stapi\AppData\Local\Temp\ccYEBfsk.s:21919  .debug_str:0000000000003e02 .LASF42
C:\Users\stapi\AppData\Local\Temp\ccYEBfsk.s:22421  .debug_str:0000000000004d5f .LASF77
C:\Users\stapi\AppData\Local\Temp\ccYEBfsk.s:20287  .debug_str:0000000000000d16 .LASF43
C:\Users\stapi\AppData\Local\Temp\ccYEBfsk.s:21937  .debug_str:0000000000003e82 .LASF44
C:\Users\stapi\AppData\Local\Temp\ccYEBfsk.s:21181  .debug_str:000000000000276e .LASF45
C:\Users\stapi\AppData\Local\Temp\ccYEBfsk.s:22547  .debug_str:0000000000005183 .LASF46
C:\Users\stapi\AppData\Local\Temp\ccYEBfsk.s:21153  .debug_str:00000000000026a5 .LASF47
C:\Users\stapi\AppData\Local\Temp\ccYEBfsk.s:21101  .debug_str:0000000000002536 .LASF48
C:\Users\stapi\AppData\Local\Temp\ccYEBfsk.s:22265  .debug_str:000000000000484a .LASF49
C:\Users\stapi\AppData\Local\Temp\ccYEBfsk.s:22485  .debug_str:0000000000004f62 .LASF50
C:\Users\stapi\AppData\Local\Temp\ccYEBfsk.s:20265  .debug_str:0000000000000c76 .LASF51
C:\Users\stapi\AppData\Local\Temp\ccYEBfsk.s:20347  .debug_str:0000000000000efc .LASF52
C:\Users\stapi\AppData\Local\Temp\ccYEBfsk.s:21931  .debug_str:0000000000003e54 .LASF53
C:\Users\stapi\AppData\Local\Temp\ccYEBfsk.s:21719  .debug_str:00000000000038a7 .LASF54
C:\Users\stapi\AppData\Local\Temp\ccYEBfsk.s:19903  .debug_str:000000000000025d .LASF55
C:\Users\stapi\AppData\Local\Temp\ccYEBfsk.s:21043  .debug_str:000000000000235a .LASF56
C:\Users\stapi\AppData\Local\Temp\ccYEBfsk.s:22479  .debug_str:0000000000004f27 .LASF57
C:\Users\stapi\AppData\Local\Temp\ccYEBfsk.s:20207  .debug_str:0000000000000a9c .LASF58
C:\Users\stapi\AppData\Local\Temp\ccYEBfsk.s:22393  .debug_str:0000000000004c95 .LASF59
C:\Users\stapi\AppData\Local\Temp\ccYEBfsk.s:21985  .debug_str:0000000000003ff5 .LASF60
C:\Users\stapi\AppData\Local\Temp\ccYEBfsk.s:21173  .debug_str:0000000000002739 .LASF61
C:\Users\stapi\AppData\Local\Temp\ccYEBfsk.s:22059  .debug_str:0000000000004213 .LASF62
C:\Users\stapi\AppData\Local\Temp\ccYEBfsk.s:22345  .debug_str:0000000000004b19 .LASF63
C:\Users\stapi\AppData\Local\Temp\ccYEBfsk.s:20355  .debug_str:0000000000000f39 .LASF64
C:\Users\stapi\AppData\Local\Temp\ccYEBfsk.s:21075  .debug_str:0000000000002442 .LASF65
C:\Users\stapi\AppData\Local\Temp\ccYEBfsk.s:22581  .debug_str:0000000000005285 .LASF66
C:\Users\stapi\AppData\Local\Temp\ccYEBfsk.s:22005  .debug_str:000000000000408b .LASF67
C:\Users\stapi\AppData\Local\Temp\ccYEBfsk.s:19907  .debug_str:0000000000000285 .LASF68
C:\Users\stapi\AppData\Local\Temp\ccYEBfsk.s:21397  .debug_str:0000000000002dd0 .LASF69
C:\Users\stapi\AppData\Local\Temp\ccYEBfsk.s:21717  .debug_str:00000000000038a1 .LASF70
C:\Users\stapi\AppData\Local\Temp\ccYEBfsk.s:21375  .debug_str:0000000000002d26 .LASF71
C:\Users\stapi\AppData\Local\Temp\ccYEBfsk.s:22655  .debug_str:00000000000054b0 .LASF72
C:\Users\stapi\AppData\Local\Temp\ccYEBfsk.s:22475  .debug_str:0000000000004f04 .LASF73
C:\Users\stapi\AppData\Local\Temp\ccYEBfsk.s:21001  .debug_str:00000000000021e4 .LASF74
C:\Users\stapi\AppData\Local\Temp\ccYEBfsk.s:20031  .debug_str:00000000000005d2 .LASF75
C:\Users\stapi\AppData\Local\Temp\ccYEBfsk.s:21395  .debug_str:0000000000002dbe .LASF76
C:\Users\stapi\AppData\Local\Temp\ccYEBfsk.s:20637  .debug_str:000000000000175a .LASF78
C:\Users\stapi\AppData\Local\Temp\ccYEBfsk.s:21441  .debug_str:0000000000003001 .LASF79
C:\Users\stapi\AppData\Local\Temp\ccYEBfsk.s:21443  .debug_str:0000000000003012 .LASF80
C:\Users\stapi\AppData\Local\Temp\ccYEBfsk.s:22609  .debug_str:0000000000005365 .LASF81
C:\Users\stapi\AppData\Local\Temp\ccYEBfsk.s:21911  .debug_str:0000000000003dd7 .LASF82
C:\Users\stapi\AppData\Local\Temp\ccYEBfsk.s:21357  .debug_str:0000000000002c9f .LASF83
C:\Users\stapi\AppData\Local\Temp\ccYEBfsk.s:22149  .debug_str:00000000000044de .LASF84
C:\Users\stapi\AppData\Local\Temp\ccYEBfsk.s:20539  .debug_str:000000000000148d .LASF85
C:\Users\stapi\AppData\Local\Temp\ccYEBfsk.s:21795  .debug_str:0000000000003ab5 .LASF86
C:\Users\stapi\AppData\Local\Temp\ccYEBfsk.s:20189  .debug_str:0000000000000a2a .LASF87
C:\Users\stapi\AppData\Local\Temp\ccYEBfsk.s:20605  .debug_str:0000000000001669 .LASF88
C:\Users\stapi\AppData\Local\Temp\ccYEBfsk.s:20023  .debug_str:00000000000005a3 .LASF89
C:\Users\stapi\AppData\Local\Temp\ccYEBfsk.s:22297  .debug_str:0000000000004939 .LASF90
C:\Users\stapi\AppData\Local\Temp\ccYEBfsk.s:21997  .debug_str:000000000000404e .LASF91
C:\Users\stapi\AppData\Local\Temp\ccYEBfsk.s:22103  .debug_str:0000000000004346 .LASF92
C:\Users\stapi\AppData\Local\Temp\ccYEBfsk.s:20915  .debug_str:0000000000001f46 .LASF93
C:\Users\stapi\AppData\Local\Temp\ccYEBfsk.s:22205  .debug_str:000000000000465f .LASF94
C:\Users\stapi\AppData\Local\Temp\ccYEBfsk.s:21781  .debug_str:0000000000003a6a .LASF95
C:\Users\stapi\AppData\Local\Temp\ccYEBfsk.s:19863  .debug_str:0000000000000124 .LASF96
C:\Users\stapi\AppData\Local\Temp\ccYEBfsk.s:21369  .debug_str:0000000000002cfa .LASF97
C:\Users\stapi\AppData\Local\Temp\ccYEBfsk.s:20211  .debug_str:0000000000000ab2 .LASF98
C:\Users\stapi\AppData\Local\Temp\ccYEBfsk.s:20535  .debug_str:0000000000001475 .LASF99
C:\Users\stapi\AppData\Local\Temp\ccYEBfsk.s:21451  .debug_str:0000000000003073 .LASF100
C:\Users\stapi\AppData\Local\Temp\ccYEBfsk.s:21453  .debug_str:000000000000308b .LASF101
C:\Users\stapi\AppData\Local\Temp\ccYEBfsk.s:21449  .debug_str:000000000000305b .LASF102
C:\Users\stapi\AppData\Local\Temp\ccYEBfsk.s:21489  .debug_str:00000000000031b6 .LASF103
C:\Users\stapi\AppData\Local\Temp\ccYEBfsk.s:20021  .debug_str:0000000000000589 .LASF104
C:\Users\stapi\AppData\Local\Temp\ccYEBfsk.s:21967  .debug_str:0000000000003f89 .LASF105
C:\Users\stapi\AppData\Local\Temp\ccYEBfsk.s:20311  .debug_str:0000000000000de2 .LASF106
C:\Users\stapi\AppData\Local\Temp\ccYEBfsk.s:21209  .debug_str:000000000000282f .LASF107
C:\Users\stapi\AppData\Local\Temp\ccYEBfsk.s:22535  .debug_str:000000000000512c .LASF108
C:\Users\stapi\AppData\Local\Temp\ccYEBfsk.s:22463  .debug_str:0000000000004ea9 .LASF109
C:\Users\stapi\AppData\Local\Temp\ccYEBfsk.s:22559  .debug_str:00000000000051da .LASF110
C:\Users\stapi\AppData\Local\Temp\ccYEBfsk.s:20327  .debug_str:0000000000000e58 .LASF111
C:\Users\stapi\AppData\Local\Temp\ccYEBfsk.s:22085  .debug_str:00000000000042c2 .LASF112
C:\Users\stapi\AppData\Local\Temp\ccYEBfsk.s:20945  .debug_str:0000000000002033 .LASF113
C:\Users\stapi\AppData\Local\Temp\ccYEBfsk.s:22051  .debug_str:00000000000041d9 .LASF114
C:\Users\stapi\AppData\Local\Temp\ccYEBfsk.s:20941  .debug_str:000000000000200d .LASF115
C:\Users\stapi\AppData\Local\Temp\ccYEBfsk.s:21589  .debug_str:0000000000003502 .LASF116
C:\Users\stapi\AppData\Local\Temp\ccYEBfsk.s:20961  .debug_str:00000000000020ae .LASF117
C:\Users\stapi\AppData\Local\Temp\ccYEBfsk.s:20659  .debug_str:00000000000017f8 .LASF118
C:\Users\stapi\AppData\Local\Temp\ccYEBfsk.s:20709  .debug_str:0000000000001989 .LASF119
C:\Users\stapi\AppData\Local\Temp\ccYEBfsk.s:20813  .debug_str:0000000000001c3a .LASF120
C:\Users\stapi\AppData\Local\Temp\ccYEBfsk.s:20677  .debug_str:0000000000001897 .LASF121
C:\Users\stapi\AppData\Local\Temp\ccYEBfsk.s:20235  .debug_str:0000000000000b92 .LASF122
C:\Users\stapi\AppData\Local\Temp\ccYEBfsk.s:20165  .debug_str:0000000000000962 .LASF123
C:\Users\stapi\AppData\Local\Temp\ccYEBfsk.s:21587  .debug_str:00000000000034f2 .LASF124
C:\Users\stapi\AppData\Local\Temp\ccYEBfsk.s:21663  .debug_str:0000000000003736 .LASF125
C:\Users\stapi\AppData\Local\Temp\ccYEBfsk.s:20277  .debug_str:0000000000000cd2 .LASF126
C:\Users\stapi\AppData\Local\Temp\ccYEBfsk.s:22117  .debug_str:00000000000043d0 .LASF127
C:\Users\stapi\AppData\Local\Temp\ccYEBfsk.s:20783  .debug_str:0000000000001b68 .LASF128
C:\Users\stapi\AppData\Local\Temp\ccYEBfsk.s:22351  .debug_str:0000000000004b39 .LASF129
C:\Users\stapi\AppData\Local\Temp\ccYEBfsk.s:20145  .debug_str:00000000000008e9 .LASF130
C:\Users\stapi\AppData\Local\Temp\ccYEBfsk.s:20803  .debug_str:0000000000001bff .LASF131
C:\Users\stapi\AppData\Local\Temp\ccYEBfsk.s:20857  .debug_str:0000000000001d7b .LASF132
C:\Users\stapi\AppData\Local\Temp\ccYEBfsk.s:20151  .debug_str:0000000000000914 .LASF133
C:\Users\stapi\AppData\Local\Temp\ccYEBfsk.s:22563  .debug_str:00000000000051f5 .LASF134
C:\Users\stapi\AppData\Local\Temp\ccYEBfsk.s:21141  .debug_str:0000000000002653 .LASF135
C:\Users\stapi\AppData\Local\Temp\ccYEBfsk.s:22335  .debug_str:0000000000004ac7 .LASF136
C:\Users\stapi\AppData\Local\Temp\ccYEBfsk.s:20543  .debug_str:00000000000014b4 .LASF137
C:\Users\stapi\AppData\Local\Temp\ccYEBfsk.s:22425  .debug_str:0000000000004d81 .LASF138
C:\Users\stapi\AppData\Local\Temp\ccYEBfsk.s:20931  .debug_str:0000000000001fbf .LASF139
C:\Users\stapi\AppData\Local\Temp\ccYEBfsk.s:21485  .debug_str:0000000000003182 .LASF140
C:\Users\stapi\AppData\Local\Temp\ccYEBfsk.s:20997  .debug_str:00000000000021bc .LASF141
C:\Users\stapi\AppData\Local\Temp\ccYEBfsk.s:22321  .debug_str:00000000000049d8 .LASF142
C:\Users\stapi\AppData\Local\Temp\ccYEBfsk.s:21527  .debug_str:00000000000032f3 .LASF143
C:\Users\stapi\AppData\Local\Temp\ccYEBfsk.s:20039  .debug_str:000000000000061a .LASF144
C:\Users\stapi\AppData\Local\Temp\ccYEBfsk.s:21131  .debug_str:00000000000025fd .LASF145
C:\Users\stapi\AppData\Local\Temp\ccYEBfsk.s:22653  .debug_str:000000000000549e .LASF146
C:\Users\stapi\AppData\Local\Temp\ccYEBfsk.s:21345  .debug_str:0000000000002c2c .LASF147
C:\Users\stapi\AppData\Local\Temp\ccYEBfsk.s:21013  .debug_str:0000000000002241 .LASF148
C:\Users\stapi\AppData\Local\Temp\ccYEBfsk.s:22089  .debug_str:00000000000042ec .LASF149
C:\Users\stapi\AppData\Local\Temp\ccYEBfsk.s:20943  .debug_str:000000000000201c .LASF150
C:\Users\stapi\AppData\Local\Temp\ccYEBfsk.s:20919  .debug_str:0000000000001f68 .LASF151
C:\Users\stapi\AppData\Local\Temp\ccYEBfsk.s:22409  .debug_str:0000000000004cfc .LASF152
C:\Users\stapi\AppData\Local\Temp\ccYEBfsk.s:22211  .debug_str:0000000000004696 .LASF153
C:\Users\stapi\AppData\Local\Temp\ccYEBfsk.s:19911  .debug_str:0000000000000298 .LASF154
C:\Users\stapi\AppData\Local\Temp\ccYEBfsk.s:22275  .debug_str:000000000000489f .LASF155
C:\Users\stapi\AppData\Local\Temp\ccYEBfsk.s:20685  .debug_str:00000000000018d3 .LASF156
C:\Users\stapi\AppData\Local\Temp\ccYEBfsk.s:20611  .debug_str:0000000000001688 .LASF157
C:\Users\stapi\AppData\Local\Temp\ccYEBfsk.s:20231  .debug_str:0000000000000b7e .LASF158
C:\Users\stapi\AppData\Local\Temp\ccYEBfsk.s:22157  .debug_str:000000000000450b .LASF159
C:\Users\stapi\AppData\Local\Temp\ccYEBfsk.s:20779  .debug_str:0000000000001b53 .LASF160
C:\Users\stapi\AppData\Local\Temp\ccYEBfsk.s:21909  .debug_str:0000000000003dd2 .LASF161
C:\Users\stapi\AppData\Local\Temp\ccYEBfsk.s:20995  .debug_str:00000000000021ab .LASF162
C:\Users\stapi\AppData\Local\Temp\ccYEBfsk.s:21811  .debug_str:0000000000003b34 .LASF163
C:\Users\stapi\AppData\Local\Temp\ccYEBfsk.s:21647  .debug_str:00000000000036ba .LASF164
C:\Users\stapi\AppData\Local\Temp\ccYEBfsk.s:22397  .debug_str:0000000000004cab .LASF165
C:\Users\stapi\AppData\Local\Temp\ccYEBfsk.s:21695  .debug_str:0000000000003809 .LASF166
C:\Users\stapi\AppData\Local\Temp\ccYEBfsk.s:22365  .debug_str:0000000000004ba3 .LASF167
C:\Users\stapi\AppData\Local\Temp\ccYEBfsk.s:22347  .debug_str:0000000000004b2f .LASF168
C:\Users\stapi\AppData\Local\Temp\ccYEBfsk.s:21377  .debug_str:0000000000002d49 .LASF169
C:\Users\stapi\AppData\Local\Temp\ccYEBfsk.s:20481  .debug_str:00000000000012e1 .LASF170
C:\Users\stapi\AppData\Local\Temp\ccYEBfsk.s:22229  .debug_str:0000000000004711 .LASF171
C:\Users\stapi\AppData\Local\Temp\ccYEBfsk.s:21295  .debug_str:0000000000002ad4 .LASF172
C:\Users\stapi\AppData\Local\Temp\ccYEBfsk.s:20815  .debug_str:0000000000001c48 .LASF173
C:\Users\stapi\AppData\Local\Temp\ccYEBfsk.s:21177  .debug_str:0000000000002757 .LASF174
C:\Users\stapi\AppData\Local\Temp\ccYEBfsk.s:20045  .debug_str:0000000000000645 .LASF175
C:\Users\stapi\AppData\Local\Temp\ccYEBfsk.s:21895  .debug_str:0000000000003d6a .LASF176
C:\Users\stapi\AppData\Local\Temp\ccYEBfsk.s:20571  .debug_str:0000000000001588 .LASF177
C:\Users\stapi\AppData\Local\Temp\ccYEBfsk.s:20753  .debug_str:0000000000001aae .LASF178
C:\Users\stapi\AppData\Local\Temp\ccYEBfsk.s:20517  .debug_str:000000000000140e .LASF179
C:\Users\stapi\AppData\Local\Temp\ccYEBfsk.s:22007  .debug_str:000000000000409d .LASF180
C:\Users\stapi\AppData\Local\Temp\ccYEBfsk.s:21129  .debug_str:00000000000025f5 .LASF181
C:\Users\stapi\AppData\Local\Temp\ccYEBfsk.s:21641  .debug_str:0000000000003696 .LASF182
C:\Users\stapi\AppData\Local\Temp\ccYEBfsk.s:22055  .debug_str:00000000000041f5 .LASF183
C:\Users\stapi\AppData\Local\Temp\ccYEBfsk.s:19851  .debug_str:00000000000000b2 .LASF184
C:\Users\stapi\AppData\Local\Temp\ccYEBfsk.s:22167  .debug_str:0000000000004540 .LASF185
C:\Users\stapi\AppData\Local\Temp\ccYEBfsk.s:22661  .debug_str:00000000000054da .LASF186
C:\Users\stapi\AppData\Local\Temp\ccYEBfsk.s:20323  .debug_str:0000000000000e33 .LASF187
C:\Users\stapi\AppData\Local\Temp\ccYEBfsk.s:21263  .debug_str:00000000000029d7 .LASF188
C:\Users\stapi\AppData\Local\Temp\ccYEBfsk.s:20789  .debug_str:0000000000001b9b .LASF189
C:\Users\stapi\AppData\Local\Temp\ccYEBfsk.s:21533  .debug_str:0000000000003332 .LASF190
C:\Users\stapi\AppData\Local\Temp\ccYEBfsk.s:21785  .debug_str:0000000000003a7f .LASF191
C:\Users\stapi\AppData\Local\Temp\ccYEBfsk.s:20261  .debug_str:0000000000000c5b .LASF192
C:\Users\stapi\AppData\Local\Temp\ccYEBfsk.s:21755  .debug_str:0000000000003998 .LASF193
C:\Users\stapi\AppData\Local\Temp\ccYEBfsk.s:22495  .debug_str:0000000000004f96 .LASF194
C:\Users\stapi\AppData\Local\Temp\ccYEBfsk.s:21541  .debug_str:0000000000003381 .LASF195
C:\Users\stapi\AppData\Local\Temp\ccYEBfsk.s:22097  .debug_str:0000000000004324 .LASF196
C:\Users\stapi\AppData\Local\Temp\ccYEBfsk.s:20409  .debug_str:00000000000010da .LASF197
C:\Users\stapi\AppData\Local\Temp\ccYEBfsk.s:20743  .debug_str:0000000000001a78 .LASF198
C:\Users\stapi\AppData\Local\Temp\ccYEBfsk.s:20809  .debug_str:0000000000001c2c .LASF199
C:\Users\stapi\AppData\Local\Temp\ccYEBfsk.s:20853  .debug_str:0000000000001d62 .LASF200
C:\Users\stapi\AppData\Local\Temp\ccYEBfsk.s:21413  .debug_str:0000000000002e5a .LASF201
C:\Users\stapi\AppData\Local\Temp\ccYEBfsk.s:21523  .debug_str:00000000000032dc .LASF202
C:\Users\stapi\AppData\Local\Temp\ccYEBfsk.s:20469  .debug_str:0000000000001298 .LASF203
C:\Users\stapi\AppData\Local\Temp\ccYEBfsk.s:20501  .debug_str:000000000000136c .LASF204
C:\Users\stapi\AppData\Local\Temp\ccYEBfsk.s:20305  .debug_str:0000000000000dba .LASF205
C:\Users\stapi\AppData\Local\Temp\ccYEBfsk.s:20307  .debug_str:0000000000000dc0 .LASF206
C:\Users\stapi\AppData\Local\Temp\ccYEBfsk.s:20313  .debug_str:0000000000000deb .LASF207
C:\Users\stapi\AppData\Local\Temp\ccYEBfsk.s:19991  .debug_str:00000000000004d7 .LASF208
C:\Users\stapi\AppData\Local\Temp\ccYEBfsk.s:21907  .debug_str:0000000000003dcc .LASF209
C:\Users\stapi\AppData\Local\Temp\ccYEBfsk.s:20557  .debug_str:000000000000152d .LASF210
C:\Users\stapi\AppData\Local\Temp\ccYEBfsk.s:21467  .debug_str:0000000000003105 .LASF211
C:\Users\stapi\AppData\Local\Temp\ccYEBfsk.s:21939  .debug_str:0000000000003e96 .LASF212
C:\Users\stapi\AppData\Local\Temp\ccYEBfsk.s:20563  .debug_str:0000000000001552 .LASF213
C:\Users\stapi\AppData\Local\Temp\ccYEBfsk.s:22353  .debug_str:0000000000004b49 .LASF214
C:\Users\stapi\AppData\Local\Temp\ccYEBfsk.s:21017  .debug_str:0000000000002269 .LASF215
C:\Users\stapi\AppData\Local\Temp\ccYEBfsk.s:22295  .debug_str:0000000000004928 .LASF216
C:\Users\stapi\AppData\Local\Temp\ccYEBfsk.s:20183  .debug_str:00000000000009f7 .LASF217
C:\Users\stapi\AppData\Local\Temp\ccYEBfsk.s:21797  .debug_str:0000000000003aca .LASF218
C:\Users\stapi\AppData\Local\Temp\ccYEBfsk.s:22253  .debug_str:00000000000047ea .LASF219
C:\Users\stapi\AppData\Local\Temp\ccYEBfsk.s:20137  .debug_str:00000000000008c5 .LASF220
C:\Users\stapi\AppData\Local\Temp\ccYEBfsk.s:20357  .debug_str:0000000000000f4f .LASF221
C:\Users\stapi\AppData\Local\Temp\ccYEBfsk.s:21593  .debug_str:0000000000003512 .LASF222
C:\Users\stapi\AppData\Local\Temp\ccYEBfsk.s:21139  .debug_str:000000000000264e .LASF223
C:\Users\stapi\AppData\Local\Temp\ccYEBfsk.s:20149  .debug_str:000000000000090b .LASF224
C:\Users\stapi\AppData\Local\Temp\ccYEBfsk.s:22207  .debug_str:0000000000004674 .LASF225
C:\Users\stapi\AppData\Local\Temp\ccYEBfsk.s:22671  .debug_str:0000000000005521 .LASF226
C:\Users\stapi\AppData\Local\Temp\ccYEBfsk.s:21183  .debug_str:0000000000002781 .LASF227
C:\Users\stapi\AppData\Local\Temp\ccYEBfsk.s:20215  .debug_str:0000000000000adb .LASF228
C:\Users\stapi\AppData\Local\Temp\ccYEBfsk.s:21777  .debug_str:0000000000003a47 .LASF229
C:\Users\stapi\AppData\Local\Temp\ccYEBfsk.s:21871  .debug_str:0000000000003cdb .LASF230
C:\Users\stapi\AppData\Local\Temp\ccYEBfsk.s:22267  .debug_str:000000000000485e .LASF231
C:\Users\stapi\AppData\Local\Temp\ccYEBfsk.s:20445  .debug_str:00000000000011d8 .LASF232
C:\Users\stapi\AppData\Local\Temp\ccYEBfsk.s:22367  .debug_str:0000000000004bb8 .LASF233
C:\Users\stapi\AppData\Local\Temp\ccYEBfsk.s:21127  .debug_str:00000000000025ef .LASF234
C:\Users\stapi\AppData\Local\Temp\ccYEBfsk.s:22151  .debug_str:00000000000044eb .LASF235
C:\Users\stapi\AppData\Local\Temp\ccYEBfsk.s:20007  .debug_str:000000000000053c .LASF236
C:\Users\stapi\AppData\Local\Temp\ccYEBfsk.s:21229  .debug_str:00000000000028c0 .LASF237
C:\Users\stapi\AppData\Local\Temp\ccYEBfsk.s:20133  .debug_str:00000000000008ac .LASF238
C:\Users\stapi\AppData\Local\Temp\ccYEBfsk.s:20463  .debug_str:0000000000001258 .LASF239
C:\Users\stapi\AppData\Local\Temp\ccYEBfsk.s:22423  .debug_str:0000000000004d74 .LASF240
C:\Users\stapi\AppData\Local\Temp\ccYEBfsk.s:21629  .debug_str:0000000000003630 .LASF241
C:\Users\stapi\AppData\Local\Temp\ccYEBfsk.s:20963  .debug_str:00000000000020c1 .LASF242
C:\Users\stapi\AppData\Local\Temp\ccYEBfsk.s:20061  .debug_str:00000000000006c5 .LASF243
C:\Users\stapi\AppData\Local\Temp\ccYEBfsk.s:20147  .debug_str:00000000000008fa .LASF244
C:\Users\stapi\AppData\Local\Temp\ccYEBfsk.s:22001  .debug_str:0000000000004068 .LASF245
C:\Users\stapi\AppData\Local\Temp\ccYEBfsk.s:20253  .debug_str:0000000000000c07 .LASF246
C:\Users\stapi\AppData\Local\Temp\ccYEBfsk.s:20725  .debug_str:00000000000019f8 .LASF247
C:\Users\stapi\AppData\Local\Temp\ccYEBfsk.s:21783  .debug_str:0000000000003a76 .LASF248
C:\Users\stapi\AppData\Local\Temp\ccYEBfsk.s:20871  .debug_str:0000000000001dde .LASF249
C:\Users\stapi\AppData\Local\Temp\ccYEBfsk.s:20903  .debug_str:0000000000001eeb .LASF250
C:\Users\stapi\AppData\Local\Temp\ccYEBfsk.s:21327  .debug_str:0000000000002bd5 .LASF251
C:\Users\stapi\AppData\Local\Temp\ccYEBfsk.s:22593  .debug_str:00000000000052dc .LASF252
C:\Users\stapi\AppData\Local\Temp\ccYEBfsk.s:20893  .debug_str:0000000000001e9e .LASF253
C:\Users\stapi\AppData\Local\Temp\ccYEBfsk.s:21999  .debug_str:000000000000405f .LASF254
C:\Users\stapi\AppData\Local\Temp\ccYEBfsk.s:22461  .debug_str:0000000000004e98 .LASF255
C:\Users\stapi\AppData\Local\Temp\ccYEBfsk.s:21081  .debug_str:000000000000247b .LASF256
C:\Users\stapi\AppData\Local\Temp\ccYEBfsk.s:20019  .debug_str:0000000000000580 .LASF257
C:\Users\stapi\AppData\Local\Temp\ccYEBfsk.s:20585  .debug_str:00000000000015e1 .LASF258
C:\Users\stapi\AppData\Local\Temp\ccYEBfsk.s:20569  .debug_str:000000000000157c .LASF259
C:\Users\stapi\AppData\Local\Temp\ccYEBfsk.s:20353  .debug_str:0000000000000f2b .LASF260
C:\Users\stapi\AppData\Local\Temp\ccYEBfsk.s:22467  .debug_str:0000000000004ec3 .LASF261
C:\Users\stapi\AppData\Local\Temp\ccYEBfsk.s:21689  .debug_str:00000000000037e2 .LASF262
C:\Users\stapi\AppData\Local\Temp\ccYEBfsk.s:22023  .debug_str:0000000000004114 .LASF263
C:\Users\stapi\AppData\Local\Temp\ccYEBfsk.s:21171  .debug_str:0000000000002730 .LASF264
C:\Users\stapi\AppData\Local\Temp\ccYEBfsk.s:19925  .debug_str:00000000000002f7 .LASF265
C:\Users\stapi\AppData\Local\Temp\ccYEBfsk.s:20495  .debug_str:0000000000001344 .LASF266
C:\Users\stapi\AppData\Local\Temp\ccYEBfsk.s:21521  .debug_str:00000000000032cb .LASF267
C:\Users\stapi\AppData\Local\Temp\ccYEBfsk.s:20643  .debug_str:0000000000001788 .LASF268
C:\Users\stapi\AppData\Local\Temp\ccYEBfsk.s:19893  .debug_str:000000000000020b .LASF269
C:\Users\stapi\AppData\Local\Temp\ccYEBfsk.s:21775  .debug_str:0000000000003a3c .LASF270
C:\Users\stapi\AppData\Local\Temp\ccYEBfsk.s:22063  .debug_str:000000000000423e .LASF271
C:\Users\stapi\AppData\Local\Temp\ccYEBfsk.s:20483  .debug_str:00000000000012e6 .LASF272
C:\Users\stapi\AppData\Local\Temp\ccYEBfsk.s:21477  .debug_str:000000000000314a .LASF273
C:\Users\stapi\AppData\Local\Temp\ccYEBfsk.s:21277  .debug_str:0000000000002a55 .LASF274
C:\Users\stapi\AppData\Local\Temp\ccYEBfsk.s:21279  .debug_str:0000000000002a62 .LASF275
C:\Users\stapi\AppData\Local\Temp\ccYEBfsk.s:22013  .debug_str:00000000000040d9 .LASF276
C:\Users\stapi\AppData\Local\Temp\ccYEBfsk.s:20225  .debug_str:0000000000000b34 .LASF277
C:\Users\stapi\AppData\Local\Temp\ccYEBfsk.s:21245  .debug_str:0000000000002939 .LASF278
C:\Users\stapi\AppData\Local\Temp\ccYEBfsk.s:20607  .debug_str:0000000000001676 .LASF279
C:\Users\stapi\AppData\Local\Temp\ccYEBfsk.s:20581  .debug_str:00000000000015d0 .LASF280
C:\Users\stapi\AppData\Local\Temp\ccYEBfsk.s:20747  .debug_str:0000000000001a86 .LASF281
C:\Users\stapi\AppData\Local\Temp\ccYEBfsk.s:21809  .debug_str:0000000000003b28 .LASF282
C:\Users\stapi\AppData\Local\Temp\ccYEBfsk.s:20757  .debug_str:0000000000001acd .LASF283
C:\Users\stapi\AppData\Local\Temp\ccYEBfsk.s:20091  .debug_str:0000000000000776 .LASF284
C:\Users\stapi\AppData\Local\Temp\ccYEBfsk.s:20633  .debug_str:0000000000001742 .LASF285
C:\Users\stapi\AppData\Local\Temp\ccYEBfsk.s:22565  .debug_str:0000000000005207 .LASF286
C:\Users\stapi\AppData\Local\Temp\ccYEBfsk.s:19889  .debug_str:00000000000001ef .LASF287
C:\Users\stapi\AppData\Local\Temp\ccYEBfsk.s:20329  .debug_str:0000000000000e69 .LASF288
C:\Users\stapi\AppData\Local\Temp\ccYEBfsk.s:22109  .debug_str:000000000000437c .LASF289
C:\Users\stapi\AppData\Local\Temp\ccYEBfsk.s:20657  .debug_str:00000000000017f1 .LASF290
C:\Users\stapi\AppData\Local\Temp\ccYEBfsk.s:20841  .debug_str:0000000000001d1b .LASF291
C:\Users\stapi\AppData\Local\Temp\ccYEBfsk.s:21003  .debug_str:00000000000021f6 .LASF292
C:\Users\stapi\AppData\Local\Temp\ccYEBfsk.s:20867  .debug_str:0000000000001dbf .LASF293
C:\Users\stapi\AppData\Local\Temp\ccYEBfsk.s:22053  .debug_str:00000000000041e9 .LASF294
C:\Users\stapi\AppData\Local\Temp\ccYEBfsk.s:19891  .debug_str:00000000000001fa .LASF295
C:\Users\stapi\AppData\Local\Temp\ccYEBfsk.s:21731  .debug_str:00000000000038f6 .LASF296
C:\Users\stapi\AppData\Local\Temp\ccYEBfsk.s:21519  .debug_str:00000000000032b5 .LASF297
C:\Users\stapi\AppData\Local\Temp\ccYEBfsk.s:22209  .debug_str:000000000000468b .LASF298
C:\Users\stapi\AppData\Local\Temp\ccYEBfsk.s:22481  .debug_str:0000000000004f39 .LASF299
C:\Users\stapi\AppData\Local\Temp\ccYEBfsk.s:22513  .debug_str:00000000000050aa .LASF300
C:\Users\stapi\AppData\Local\Temp\ccYEBfsk.s:21471  .debug_str:0000000000003120 .LASF301
C:\Users\stapi\AppData\Local\Temp\ccYEBfsk.s:21293  .debug_str:0000000000002ac8 .LASF302
C:\Users\stapi\AppData\Local\Temp\ccYEBfsk.s:20515  .debug_str:0000000000001403 .LASF303
C:\Users\stapi\AppData\Local\Temp\ccYEBfsk.s:22391  .debug_str:0000000000004c8a .LASF304
C:\Users\stapi\AppData\Local\Temp\ccYEBfsk.s:22135  .debug_str:0000000000004478 .LASF305
C:\Users\stapi\AppData\Local\Temp\ccYEBfsk.s:20719  .debug_str:00000000000019d0 .LASF306
C:\Users\stapi\AppData\Local\Temp\ccYEBfsk.s:21269  .debug_str:0000000000002a11 .LASF307
C:\Users\stapi\AppData\Local\Temp\ccYEBfsk.s:19975  .debug_str:0000000000000459 .LASF308
C:\Users\stapi\AppData\Local\Temp\ccYEBfsk.s:19961  .debug_str:00000000000003f3 .LASF309
C:\Users\stapi\AppData\Local\Temp\ccYEBfsk.s:20083  .debug_str:000000000000074d .LASF310
C:\Users\stapi\AppData\Local\Temp\ccYEBfsk.s:20385  .debug_str:000000000000102c .LASF311
C:\Users\stapi\AppData\Local\Temp\ccYEBfsk.s:20595  .debug_str:0000000000001624 .LASF312
C:\Users\stapi\AppData\Local\Temp\ccYEBfsk.s:21863  .debug_str:0000000000003c98 .LASF313
C:\Users\stapi\AppData\Local\Temp\ccYEBfsk.s:21093  .debug_str:00000000000024dd .LASF314
C:\Users\stapi\AppData\Local\Temp\ccYEBfsk.s:21501  .debug_str:0000000000003226 .LASF315
C:\Users\stapi\AppData\Local\Temp\ccYEBfsk.s:21869  .debug_str:0000000000003cc8 .LASF316
C:\Users\stapi\AppData\Local\Temp\ccYEBfsk.s:19951  .debug_str:00000000000003af .LASF317
C:\Users\stapi\AppData\Local\Temp\ccYEBfsk.s:19879  .debug_str:0000000000000197 .LASF318
C:\Users\stapi\AppData\Local\Temp\ccYEBfsk.s:20047  .debug_str:0000000000000650 .LASF319
C:\Users\stapi\AppData\Local\Temp\ccYEBfsk.s:21373  .debug_str:0000000000002d1e .LASF320
C:\Users\stapi\AppData\Local\Temp\ccYEBfsk.s:21773  .debug_str:0000000000003a32 .LASF321
C:\Users\stapi\AppData\Local\Temp\ccYEBfsk.s:20035  .debug_str:00000000000005f3 .LASF322
C:\Users\stapi\AppData\Local\Temp\ccYEBfsk.s:21571  .debug_str:000000000000346a .LASF323
C:\Users\stapi\AppData\Local\Temp\ccYEBfsk.s:22673  .debug_str:0000000000005531 .LASF324
C:\Users\stapi\AppData\Local\Temp\ccYEBfsk.s:20781  .debug_str:0000000000001b58 .LASF325
C:\Users\stapi\AppData\Local\Temp\ccYEBfsk.s:22133  .debug_str:000000000000446d .LASF326
C:\Users\stapi\AppData\Local\Temp\ccYEBfsk.s:21657  .debug_str:0000000000003715 .LASF327
C:\Users\stapi\AppData\Local\Temp\ccYEBfsk.s:22499  .debug_str:0000000000004fb6 .LASF328
C:\Users\stapi\AppData\Local\Temp\ccYEBfsk.s:20875  .debug_str:0000000000001e07 .LASF329
C:\Users\stapi\AppData\Local\Temp\ccYEBfsk.s:21505  .debug_str:000000000000323f .LASF330
C:\Users\stapi\AppData\Local\Temp\ccYEBfsk.s:20033  .debug_str:00000000000005e4 .LASF331
C:\Users\stapi\AppData\Local\Temp\ccYEBfsk.s:21833  .debug_str:0000000000003bc7 .LASF332
C:\Users\stapi\AppData\Local\Temp\ccYEBfsk.s:22183  .debug_str:00000000000045c6 .LASF333
C:\Users\stapi\AppData\Local\Temp\ccYEBfsk.s:22035  .debug_str:000000000000415a .LASF334
C:\Users\stapi\AppData\Local\Temp\ccYEBfsk.s:20745  .debug_str:0000000000001a81 .LASF335
C:\Users\stapi\AppData\Local\Temp\ccYEBfsk.s:20285  .debug_str:0000000000000d0d .LASF336
C:\Users\stapi\AppData\Local\Temp\ccYEBfsk.s:20441  .debug_str:00000000000011be .LASF337
C:\Users\stapi\AppData\Local\Temp\ccYEBfsk.s:20319  .debug_str:0000000000000e17 .LASF338
C:\Users\stapi\AppData\Local\Temp\ccYEBfsk.s:19837  .debug_str:000000000000005a .LASF339
C:\Users\stapi\AppData\Local\Temp\ccYEBfsk.s:22015  .debug_str:00000000000040e3 .LASF340
C:\Users\stapi\AppData\Local\Temp\ccYEBfsk.s:21707  .debug_str:000000000000384d .LASF341
C:\Users\stapi\AppData\Local\Temp\ccYEBfsk.s:21651  .debug_str:00000000000036d9 .LASF342
C:\Users\stapi\AppData\Local\Temp\ccYEBfsk.s:21419  .debug_str:0000000000002e7b .LASF343
C:\Users\stapi\AppData\Local\Temp\ccYEBfsk.s:20237  .debug_str:0000000000000ba1 .LASF344
C:\Users\stapi\AppData\Local\Temp\ccYEBfsk.s:22457  .debug_str:0000000000004e72 .LASF345
C:\Users\stapi\AppData\Local\Temp\ccYEBfsk.s:21053  .debug_str:000000000000239b .LASF346
C:\Users\stapi\AppData\Local\Temp\ccYEBfsk.s:20161  .debug_str:0000000000000950 .LASF347
C:\Users\stapi\AppData\Local\Temp\ccYEBfsk.s:22337  .debug_str:0000000000004ad6 .LASF348
C:\Users\stapi\AppData\Local\Temp\ccYEBfsk.s:20099  .debug_str:00000000000007a5 .LASF349
C:\Users\stapi\AppData\Local\Temp\ccYEBfsk.s:19835  .debug_str:000000000000004c .LASF350
C:\Users\stapi\AppData\Local\Temp\ccYEBfsk.s:21933  .debug_str:0000000000003e62 .LASF351
C:\Users\stapi\AppData\Local\Temp\ccYEBfsk.s:21687  .debug_str:00000000000037da .LASF352
C:\Users\stapi\AppData\Local\Temp\ccYEBfsk.s:22645  .debug_str:000000000000546b .LASF353
C:\Users\stapi\AppData\Local\Temp\ccYEBfsk.s:20655  .debug_str:00000000000017e8 .LASF354
C:\Users\stapi\AppData\Local\Temp\ccYEBfsk.s:22377  .debug_str:0000000000004c1c .LASF355
C:\Users\stapi\AppData\Local\Temp\ccYEBfsk.s:22213  .debug_str:000000000000469c .LASF356
C:\Users\stapi\AppData\Local\Temp\ccYEBfsk.s:21827  .debug_str:0000000000003b9e .LASF357
C:\Users\stapi\AppData\Local\Temp\ccYEBfsk.s:22119  .debug_str:00000000000043e3 .LASF358
C:\Users\stapi\AppData\Local\Temp\ccYEBfsk.s:20739  .debug_str:0000000000001a58 .LASF359
C:\Users\stapi\AppData\Local\Temp\ccYEBfsk.s:22659  .debug_str:00000000000054c8 .LASF360
C:\Users\stapi\AppData\Local\Temp\ccYEBfsk.s:20413  .debug_str:00000000000010eb .LASF361
C:\Users\stapi\AppData\Local\Temp\ccYEBfsk.s:21121  .debug_str:00000000000025c8 .LASF362
C:\Users\stapi\AppData\Local\Temp\ccYEBfsk.s:21415  .debug_str:0000000000002e66 .LASF363
C:\Users\stapi\AppData\Local\Temp\ccYEBfsk.s:20791  .debug_str:0000000000001bae .LASF364
C:\Users\stapi\AppData\Local\Temp\ccYEBfsk.s:21955  .debug_str:0000000000003f21 .LASF365
C:\Users\stapi\AppData\Local\Temp\ccYEBfsk.s:22309  .debug_str:000000000000499c .LASF366
C:\Users\stapi\AppData\Local\Temp\ccYEBfsk.s:20203  .debug_str:0000000000000a7c .LASF367
C:\Users\stapi\AppData\Local\Temp\ccYEBfsk.s:20449  .debug_str:00000000000011f1 .LASF368
C:\Users\stapi\AppData\Local\Temp\ccYEBfsk.s:21029  .debug_str:00000000000022cd .LASF369
C:\Users\stapi\AppData\Local\Temp\ccYEBfsk.s:20173  .debug_str:000000000000099c .LASF370
C:\Users\stapi\AppData\Local\Temp\ccYEBfsk.s:21565  .debug_str:0000000000003436 .LASF371
C:\Users\stapi\AppData\Local\Temp\ccYEBfsk.s:19881  .debug_str:00000000000001a4 .LASF372
C:\Users\stapi\AppData\Local\Temp\ccYEBfsk.s:20617  .debug_str:00000000000016ce .LASF373
C:\Users\stapi\AppData\Local\Temp\ccYEBfsk.s:21427  .debug_str:0000000000002ebd .LASF374
C:\Users\stapi\AppData\Local\Temp\ccYEBfsk.s:22165  .debug_str:000000000000452b .LASF375
C:\Users\stapi\AppData\Local\Temp\ccYEBfsk.s:22385  .debug_str:0000000000004c5d .LASF376
C:\Users\stapi\AppData\Local\Temp\ccYEBfsk.s:22019  .debug_str:00000000000040fe .LASF377
C:\Users\stapi\AppData\Local\Temp\ccYEBfsk.s:21617  .debug_str:00000000000035d7 .LASF378
C:\Users\stapi\AppData\Local\Temp\ccYEBfsk.s:21721  .debug_str:00000000000038b9 .LASF379
C:\Users\stapi\AppData\Local\Temp\ccYEBfsk.s:21551  .debug_str:00000000000033bd .LASF380
C:\Users\stapi\AppData\Local\Temp\ccYEBfsk.s:21077  .debug_str:000000000000245c .LASF381
C:\Users\stapi\AppData\Local\Temp\ccYEBfsk.s:21921  .debug_str:0000000000003e0c .LASF382
C:\Users\stapi\AppData\Local\Temp\ccYEBfsk.s:22129  .debug_str:000000000000443a .LASF383
C:\Users\stapi\AppData\Local\Temp\ccYEBfsk.s:21447  .debug_str:000000000000303b .LASF384
C:\Users\stapi\AppData\Local\Temp\ccYEBfsk.s:22497  .debug_str:0000000000004f9b .LASF385
C:\Users\stapi\AppData\Local\Temp\ccYEBfsk.s:22443  .debug_str:0000000000004e11 .LASF386
C:\Users\stapi\AppData\Local\Temp\ccYEBfsk.s:19959  .debug_str:00000000000003e1 .LASF387
C:\Users\stapi\AppData\Local\Temp\ccYEBfsk.s:21901  .debug_str:0000000000003da2 .LASF388
C:\Users\stapi\AppData\Local\Temp\ccYEBfsk.s:21483  .debug_str:0000000000003173 .LASF389
C:\Users\stapi\AppData\Local\Temp\ccYEBfsk.s:20365  .debug_str:0000000000000f84 .LASF390
C:\Users\stapi\AppData\Local\Temp\ccYEBfsk.s:21625  .debug_str:00000000000035fd .LASF391
C:\Users\stapi\AppData\Local\Temp\ccYEBfsk.s:20821  .debug_str:0000000000001c76 .LASF392
C:\Users\stapi\AppData\Local\Temp\ccYEBfsk.s:19845  .debug_str:0000000000000084 .LASF393
C:\Users\stapi\AppData\Local\Temp\ccYEBfsk.s:22161  .debug_str:000000000000451a .LASF394
C:\Users\stapi\AppData\Local\Temp\ccYEBfsk.s:21607  .debug_str:0000000000003587 .LASF395
C:\Users\stapi\AppData\Local\Temp\ccYEBfsk.s:20787  .debug_str:0000000000001b81 .LASF396
C:\Users\stapi\AppData\Local\Temp\ccYEBfsk.s:21459  .debug_str:00000000000030ba .LASF397
C:\Users\stapi\AppData\Local\Temp\ccYEBfsk.s:20121  .debug_str:000000000000085a .LASF398
C:\Users\stapi\AppData\Local\Temp\ccYEBfsk.s:20705  .debug_str:0000000000001966 .LASF399
C:\Users\stapi\AppData\Local\Temp\ccYEBfsk.s:20479  .debug_str:00000000000012d9 .LASF400
C:\Users\stapi\AppData\Local\Temp\ccYEBfsk.s:21341  .debug_str:0000000000002c1c .LASF401
C:\Users\stapi\AppData\Local\Temp\ccYEBfsk.s:21405  .debug_str:0000000000002e17 .LASF402
C:\Users\stapi\AppData\Local\Temp\ccYEBfsk.s:21609  .debug_str:0000000000003592 .LASF403
C:\Users\stapi\AppData\Local\Temp\ccYEBfsk.s:21239  .debug_str:00000000000028fe .LASF404
C:\Users\stapi\AppData\Local\Temp\ccYEBfsk.s:21737  .debug_str:000000000000391c .LASF405
C:\Users\stapi\AppData\Local\Temp\ccYEBfsk.s:21957  .debug_str:0000000000003f36 .LASF406
C:\Users\stapi\AppData\Local\Temp\ccYEBfsk.s:20647  .debug_str:00000000000017a2 .LASF407
C:\Users\stapi\AppData\Local\Temp\ccYEBfsk.s:22427  .debug_str:0000000000004d9e .LASF408
C:\Users\stapi\AppData\Local\Temp\ccYEBfsk.s:22597  .debug_str:000000000000530a .LASF409
C:\Users\stapi\AppData\Local\Temp\ccYEBfsk.s:20773  .debug_str:0000000000001b27 .LASF410
C:\Users\stapi\AppData\Local\Temp\ccYEBfsk.s:20527  .debug_str:0000000000001448 .LASF411
C:\Users\stapi\AppData\Local\Temp\ccYEBfsk.s:21151  .debug_str:0000000000002699 .LASF412
C:\Users\stapi\AppData\Local\Temp\ccYEBfsk.s:22093  .debug_str:0000000000004310 .LASF413
C:\Users\stapi\AppData\Local\Temp\ccYEBfsk.s:20561  .debug_str:0000000000001547 .LASF414
C:\Users\stapi\AppData\Local\Temp\ccYEBfsk.s:22031  .debug_str:0000000000004143 .LASF415
C:\Users\stapi\AppData\Local\Temp\ccYEBfsk.s:21855  .debug_str:0000000000003c74 .LASF416
C:\Users\stapi\AppData\Local\Temp\ccYEBfsk.s:21645  .debug_str:00000000000036aa .LASF417
C:\Users\stapi\AppData\Local\Temp\ccYEBfsk.s:21857  .debug_str:0000000000003c7d .LASF418
C:\Users\stapi\AppData\Local\Temp\ccYEBfsk.s:22179  .debug_str:00000000000045a6 .LASF419
C:\Users\stapi\AppData\Local\Temp\ccYEBfsk.s:22045  .debug_str:00000000000041a9 .LASF420
C:\Users\stapi\AppData\Local\Temp\ccYEBfsk.s:21381  .debug_str:0000000000002d5a .LASF421
C:\Users\stapi\AppData\Local\Temp\ccYEBfsk.s:20663  .debug_str:0000000000001811 .LASF422
C:\Users\stapi\AppData\Local\Temp\ccYEBfsk.s:21241  .debug_str:000000000000290d .LASF423
C:\Users\stapi\AppData\Local\Temp\ccYEBfsk.s:22635  .debug_str:0000000000005414 .LASF424
C:\Users\stapi\AppData\Local\Temp\ccYEBfsk.s:20367  .debug_str:0000000000000f8f .LASF425
C:\Users\stapi\AppData\Local\Temp\ccYEBfsk.s:20951  .debug_str:0000000000002061 .LASF426
C:\Users\stapi\AppData\Local\Temp\ccYEBfsk.s:22373  .debug_str:0000000000004be8 .LASF427
C:\Users\stapi\AppData\Local\Temp\ccYEBfsk.s:22675  .debug_str:000000000000554b .LASF428
C:\Users\stapi\AppData\Local\Temp\ccYEBfsk.s:22037  .debug_str:0000000000004163 .LASF429
C:\Users\stapi\AppData\Local\Temp\ccYEBfsk.s:21605  .debug_str:0000000000003574 .LASF430
C:\Users\stapi\AppData\Local\Temp\ccYEBfsk.s:20421  .debug_str:0000000000001119 .LASF431
C:\Users\stapi\AppData\Local\Temp\ccYEBfsk.s:22613  .debug_str:0000000000005372 .LASF432
C:\Users\stapi\AppData\Local\Temp\ccYEBfsk.s:21559  .debug_str:00000000000033fc .LASF433
C:\Users\stapi\AppData\Local\Temp\ccYEBfsk.s:22181  .debug_str:00000000000045ad .LASF434
C:\Users\stapi\AppData\Local\Temp\ccYEBfsk.s:21787  .debug_str:0000000000003a88 .LASF435
C:\Users\stapi\AppData\Local\Temp\ccYEBfsk.s:21839  .debug_str:0000000000003beb .LASF436
C:\Users\stapi\AppData\Local\Temp\ccYEBfsk.s:22069  .debug_str:0000000000004265 .LASF437
C:\Users\stapi\AppData\Local\Temp\ccYEBfsk.s:20583  .debug_str:00000000000015d7 .LASF438
C:\Users\stapi\AppData\Local\Temp\ccYEBfsk.s:21435  .debug_str:0000000000002fe9 .LASF439
C:\Users\stapi\AppData\Local\Temp\ccYEBfsk.s:22389  .debug_str:0000000000004c78 .LASF440
C:\Users\stapi\AppData\Local\Temp\ccYEBfsk.s:21363  .debug_str:0000000000002cc7 .LASF441
C:\Users\stapi\AppData\Local\Temp\ccYEBfsk.s:21199  .debug_str:00000000000027f5 .LASF442
C:\Users\stapi\AppData\Local\Temp\ccYEBfsk.s:21033  .debug_str:00000000000022fa .LASF443
C:\Users\stapi\AppData\Local\Temp\ccYEBfsk.s:20591  .debug_str:0000000000001609 .LASF444
C:\Users\stapi\AppData\Local\Temp\ccYEBfsk.s:22219  .debug_str:00000000000046ba .LASF445
C:\Users\stapi\AppData\Local\Temp\ccYEBfsk.s:19969  .debug_str:000000000000042d .LASF446
C:\Users\stapi\AppData\Local\Temp\ccYEBfsk.s:21509  .debug_str:0000000000003260 .LASF447
C:\Users\stapi\AppData\Local\Temp\ccYEBfsk.s:22569  .debug_str:000000000000522a .LASF448
C:\Users\stapi\AppData\Local\Temp\ccYEBfsk.s:21331  .debug_str:0000000000002be8 .LASF449
C:\Users\stapi\AppData\Local\Temp\ccYEBfsk.s:22657  .debug_str:00000000000054bc .LASF450
C:\Users\stapi\AppData\Local\Temp\ccYEBfsk.s:21989  .debug_str:0000000000004006 .LASF451
C:\Users\stapi\AppData\Local\Temp\ccYEBfsk.s:22505  .debug_str:0000000000005067 .LASF452
C:\Users\stapi\AppData\Local\Temp\ccYEBfsk.s:20735  .debug_str:0000000000001a3b .LASF453
C:\Users\stapi\AppData\Local\Temp\ccYEBfsk.s:20979  .debug_str:0000000000002130 .LASF454
C:\Users\stapi\AppData\Local\Temp\ccYEBfsk.s:20729  .debug_str:0000000000001a0f .LASF455
C:\Users\stapi\AppData\Local\Temp\ccYEBfsk.s:22061  .debug_str:000000000000422e .LASF456
C:\Users\stapi\AppData\Local\Temp\ccYEBfsk.s:22305  .debug_str:0000000000004978 .LASF457
C:\Users\stapi\AppData\Local\Temp\ccYEBfsk.s:22439  .debug_str:0000000000004df5 .LASF458
C:\Users\stapi\AppData\Local\Temp\ccYEBfsk.s:21401  .debug_str:0000000000002df6 .LASF459
C:\Users\stapi\AppData\Local\Temp\ccYEBfsk.s:21913  .debug_str:0000000000003de4 .LASF460
C:\Users\stapi\AppData\Local\Temp\ccYEBfsk.s:21073  .debug_str:000000000000243b .LASF461
C:\Users\stapi\AppData\Local\Temp\ccYEBfsk.s:22379  .debug_str:0000000000004c2c .LASF462
C:\Users\stapi\AppData\Local\Temp\ccYEBfsk.s:20013  .debug_str:0000000000000566 .LASF463
C:\Users\stapi\AppData\Local\Temp\ccYEBfsk.s:20259  .debug_str:0000000000000c54 .LASF464
C:\Users\stapi\AppData\Local\Temp\ccYEBfsk.s:22033  .debug_str:0000000000004153 .LASF465
C:\Users\stapi\AppData\Local\Temp\ccYEBfsk.s:22261  .debug_str:0000000000004825 .LASF466
C:\Users\stapi\AppData\Local\Temp\ccYEBfsk.s:21057  .debug_str:00000000000023ba .LASF467
C:\Users\stapi\AppData\Local\Temp\ccYEBfsk.s:20255  .debug_str:0000000000000c1e .LASF468
C:\Users\stapi\AppData\Local\Temp\ccYEBfsk.s:21735  .debug_str:0000000000003911 .LASF469
C:\Users\stapi\AppData\Local\Temp\ccYEBfsk.s:21543  .debug_str:000000000000338e .LASF470
C:\Users\stapi\AppData\Local\Temp\ccYEBfsk.s:20447  .debug_str:00000000000011e2 .LASF471
C:\Users\stapi\AppData\Local\Temp\ccYEBfsk.s:21161  .debug_str:00000000000026ee .LASF472
C:\Users\stapi\AppData\Local\Temp\ccYEBfsk.s:19923  .debug_str:00000000000002e7 .LASF473
C:\Users\stapi\AppData\Local\Temp\ccYEBfsk.s:21403  .debug_str:0000000000002e06 .LASF474
C:\Users\stapi\AppData\Local\Temp\ccYEBfsk.s:21803  .debug_str:0000000000003af2 .LASF475
C:\Users\stapi\AppData\Local\Temp\ccYEBfsk.s:20623  .debug_str:000000000000170c .LASF476
C:\Users\stapi\AppData\Local\Temp\ccYEBfsk.s:21227  .debug_str:00000000000028b3 .LASF477
C:\Users\stapi\AppData\Local\Temp\ccYEBfsk.s:21525  .debug_str:00000000000032e5 .LASF478
C:\Users\stapi\AppData\Local\Temp\ccYEBfsk.s:21197  .debug_str:00000000000027ea .LASF479
C:\Users\stapi\AppData\Local\Temp\ccYEBfsk.s:20419  .debug_str:0000000000001111 .LASF480
C:\Users\stapi\AppData\Local\Temp\ccYEBfsk.s:22173  .debug_str:000000000000457d .LASF481
C:\Users\stapi\AppData\Local\Temp\ccYEBfsk.s:20731  .debug_str:0000000000001a21 .LASF482
C:\Users\stapi\AppData\Local\Temp\ccYEBfsk.s:21237  .debug_str:00000000000028f0 .LASF483
C:\Users\stapi\AppData\Local\Temp\ccYEBfsk.s:20651  .debug_str:00000000000017bd .LASF484
C:\Users\stapi\AppData\Local\Temp\ccYEBfsk.s:20967  .debug_str:00000000000020d8 .LASF485
C:\Users\stapi\AppData\Local\Temp\ccYEBfsk.s:21899  .debug_str:0000000000003d8c .LASF486
C:\Users\stapi\AppData\Local\Temp\ccYEBfsk.s:22361  .debug_str:0000000000004b82 .LASF487
C:\Users\stapi\AppData\Local\Temp\ccYEBfsk.s:22641  .debug_str:0000000000005453 .LASF488
C:\Users\stapi\AppData\Local\Temp\ccYEBfsk.s:20991  .debug_str:000000000000217f .LASF489
C:\Users\stapi\AppData\Local\Temp\ccYEBfsk.s:20249  .debug_str:0000000000000be8 .LASF490
C:\Users\stapi\AppData\Local\Temp\ccYEBfsk.s:19899  .debug_str:000000000000023f .LASF491
C:\Users\stapi\AppData\Local\Temp\ccYEBfsk.s:20909  .debug_str:0000000000001f2c .LASF492
C:\Users\stapi\AppData\Local\Temp\ccYEBfsk.s:21411  .debug_str:0000000000002e4a .LASF493
C:\Users\stapi\AppData\Local\Temp\ccYEBfsk.s:20847  .debug_str:0000000000001d42 .LASF494
C:\Users\stapi\AppData\Local\Temp\ccYEBfsk.s:22387  .debug_str:0000000000004c6a .LASF495
C:\Users\stapi\AppData\Local\Temp\ccYEBfsk.s:22239  .debug_str:0000000000004774 .LASF496
C:\Users\stapi\AppData\Local\Temp\ccYEBfsk.s:21291  .debug_str:0000000000002ac1 .LASF497
C:\Users\stapi\AppData\Local\Temp\ccYEBfsk.s:21861  .debug_str:0000000000003c8d .LASF498
C:\Users\stapi\AppData\Local\Temp\ccYEBfsk.s:22429  .debug_str:0000000000004daf .LASF499
C:\Users\stapi\AppData\Local\Temp\ccYEBfsk.s:19843  .debug_str:000000000000007c .LASF500
C:\Users\stapi\AppData\Local\Temp\ccYEBfsk.s:20041  .debug_str:0000000000000631 .LASF501
C:\Users\stapi\AppData\Local\Temp\ccYEBfsk.s:19913  .debug_str:000000000000029d .LASF502
C:\Users\stapi\AppData\Local\Temp\ccYEBfsk.s:20195  .debug_str:0000000000000a4a .LASF503
C:\Users\stapi\AppData\Local\Temp\ccYEBfsk.s:20293  .debug_str:0000000000000d4a .LASF504
C:\Users\stapi\AppData\Local\Temp\ccYEBfsk.s:22643  .debug_str:000000000000545f .LASF505
C:\Users\stapi\AppData\Local\Temp\ccYEBfsk.s:22287  .debug_str:00000000000048e3 .LASF506
C:\Users\stapi\AppData\Local\Temp\ccYEBfsk.s:22247  .debug_str:00000000000047ba .LASF507
C:\Users\stapi\AppData\Local\Temp\ccYEBfsk.s:21497  .debug_str:000000000000320d .LASF508
C:\Users\stapi\AppData\Local\Temp\ccYEBfsk.s:21877  .debug_str:0000000000003d07 .LASF509
C:\Users\stapi\AppData\Local\Temp\ccYEBfsk.s:22441  .debug_str:0000000000004e03 .LASF510
C:\Users\stapi\AppData\Local\Temp\ccYEBfsk.s:22383  .debug_str:0000000000004c4c .LASF511
C:\Users\stapi\AppData\Local\Temp\ccYEBfsk.s:21319  .debug_str:0000000000002b96 .LASF512
C:\Users\stapi\AppData\Local\Temp\ccYEBfsk.s:21659  .debug_str:000000000000371f .LASF513
C:\Users\stapi\AppData\Local\Temp\ccYEBfsk.s:20395  .debug_str:0000000000001083 .LASF514
C:\Users\stapi\AppData\Local\Temp\ccYEBfsk.s:22095  .debug_str:000000000000431b .LASF515
C:\Users\stapi\AppData\Local\Temp\ccYEBfsk.s:20513  .debug_str:00000000000013eb .LASF516
C:\Users\stapi\AppData\Local\Temp\ccYEBfsk.s:22375  .debug_str:0000000000004c07 .LASF517
C:\Users\stapi\AppData\Local\Temp\ccYEBfsk.s:20337  .debug_str:0000000000000eaf .LASF518
C:\Users\stapi\AppData\Local\Temp\ccYEBfsk.s:20343  .debug_str:0000000000000ee0 .LASF519
C:\Users\stapi\AppData\Local\Temp\ccYEBfsk.s:21711  .debug_str:000000000000386a .LASF520
C:\Users\stapi\AppData\Local\Temp\ccYEBfsk.s:22223  .debug_str:00000000000046dc .LASF521
C:\Users\stapi\AppData\Local\Temp\ccYEBfsk.s:21365  .debug_str:0000000000002cd9 .LASF522
C:\Users\stapi\AppData\Local\Temp\ccYEBfsk.s:20907  .debug_str:0000000000001f12 .LASF523
C:\Users\stapi\AppData\Local\Temp\ccYEBfsk.s:20393  .debug_str:0000000000001068 .LASF524
C:\Users\stapi\AppData\Local\Temp\ccYEBfsk.s:20541  .debug_str:000000000000149a .LASF525
C:\Users\stapi\AppData\Local\Temp\ccYEBfsk.s:20467  .debug_str:0000000000001283 .LASF526
C:\Users\stapi\AppData\Local\Temp\ccYEBfsk.s:21581  .debug_str:00000000000034b9 .LASF527
C:\Users\stapi\AppData\Local\Temp\ccYEBfsk.s:19979  .debug_str:000000000000047c .LASF528
C:\Users\stapi\AppData\Local\Temp\ccYEBfsk.s:20405  .debug_str:00000000000010bb .LASF529
C:\Users\stapi\AppData\Local\Temp\ccYEBfsk.s:22625  .debug_str:00000000000053dd .LASF530
C:\Users\stapi\AppData\Local\Temp\ccYEBfsk.s:21661  .debug_str:000000000000372b .LASF531
C:\Users\stapi\AppData\Local\Temp\ccYEBfsk.s:21409  .debug_str:0000000000002e38 .LASF532
C:\Users\stapi\AppData\Local\Temp\ccYEBfsk.s:20883  .debug_str:0000000000001e3f .LASF533
C:\Users\stapi\AppData\Local\Temp\ccYEBfsk.s:21347  .debug_str:0000000000002c40 .LASF534
C:\Users\stapi\AppData\Local\Temp\ccYEBfsk.s:20769  .debug_str:0000000000001b11 .LASF535
C:\Users\stapi\AppData\Local\Temp\ccYEBfsk.s:19933  .debug_str:000000000000032e .LASF536
C:\Users\stapi\AppData\Local\Temp\ccYEBfsk.s:19935  .debug_str:000000000000033a .LASF537
C:\Users\stapi\AppData\Local\Temp\ccYEBfsk.s:20603  .debug_str:0000000000001658 .LASF538
C:\Users\stapi\AppData\Local\Temp\ccYEBfsk.s:21359  .debug_str:0000000000002cab .LASF539
C:\Users\stapi\AppData\Local\Temp\ccYEBfsk.s:20335  .debug_str:0000000000000ea6 .LASF540
C:\Users\stapi\AppData\Local\Temp\ccYEBfsk.s:22533  .debug_str:0000000000005120 .LASF541
C:\Users\stapi\AppData\Local\Temp\ccYEBfsk.s:21219  .debug_str:0000000000002874 .LASF542
C:\Users\stapi\AppData\Local\Temp\ccYEBfsk.s:21747  .debug_str:000000000000395d .LASF543
C:\Users\stapi\AppData\Local\Temp\ccYEBfsk.s:21745  .debug_str:000000000000394b .LASF544
C:\Users\stapi\AppData\Local\Temp\ccYEBfsk.s:21531  .debug_str:0000000000003320 .LASF545
C:\Users\stapi\AppData\Local\Temp\ccYEBfsk.s:20937  .debug_str:0000000000001ff2 .LASF546
C:\Users\stapi\AppData\Local\Temp\ccYEBfsk.s:21457  .debug_str:00000000000030ad .LASF547
C:\Users\stapi\AppData\Local\Temp\ccYEBfsk.s:22541  .debug_str:000000000000515f .LASF548
C:\Users\stapi\AppData\Local\Temp\ccYEBfsk.s:20911  .debug_str:0000000000001f34 .LASF549
C:\Users\stapi\AppData\Local\Temp\ccYEBfsk.s:21779  .debug_str:0000000000003a5e .LASF550
C:\Users\stapi\AppData\Local\Temp\ccYEBfsk.s:22445  .debug_str:0000000000004e1d .LASF551
C:\Users\stapi\AppData\Local\Temp\ccYEBfsk.s:19977  .debug_str:000000000000046f .LASF552
C:\Users\stapi\AppData\Local\Temp\ccYEBfsk.s:19861  .debug_str:000000000000010e .LASF553
C:\Users\stapi\AppData\Local\Temp\ccYEBfsk.s:20827  .debug_str:0000000000001c90 .LASF554
C:\Users\stapi\AppData\Local\Temp\ccYEBfsk.s:21107  .debug_str:0000000000002556 .LASF555
C:\Users\stapi\AppData\Local\Temp\ccYEBfsk.s:20175  .debug_str:00000000000009ba .LASF556
C:\Users\stapi\AppData\Local\Temp\ccYEBfsk.s:21305  .debug_str:0000000000002b16 .LASF557
C:\Users\stapi\AppData\Local\Temp\ccYEBfsk.s:21297  .debug_str:0000000000002ae1 .LASF558
C:\Users\stapi\AppData\Local\Temp\ccYEBfsk.s:21243  .debug_str:000000000000291c .LASF559
C:\Users\stapi\AppData\Local\Temp\ccYEBfsk.s:20333  .debug_str:0000000000000e8c .LASF560
C:\Users\stapi\AppData\Local\Temp\ccYEBfsk.s:20135  .debug_str:00000000000008b6 .LASF561
C:\Users\stapi\AppData\Local\Temp\ccYEBfsk.s:22067  .debug_str:000000000000425d .LASF562
C:\Users\stapi\AppData\Local\Temp\ccYEBfsk.s:20981  .debug_str:000000000000213e .LASF563
C:\Users\stapi\AppData\Local\Temp\ccYEBfsk.s:20913  .debug_str:0000000000001f3d .LASF564
C:\Users\stapi\AppData\Local\Temp\ccYEBfsk.s:20097  .debug_str:000000000000079b .LASF565
C:\Users\stapi\AppData\Local\Temp\ccYEBfsk.s:21163  .debug_str:00000000000026fe .LASF566
C:\Users\stapi\AppData\Local\Temp\ccYEBfsk.s:19883  .debug_str:00000000000001bc .LASF567
C:\Users\stapi\AppData\Local\Temp\ccYEBfsk.s:21009  .debug_str:000000000000221d .LASF568
C:\Users\stapi\AppData\Local\Temp\ccYEBfsk.s:22415  .debug_str:0000000000004d31 .LASF569
C:\Users\stapi\AppData\Local\Temp\ccYEBfsk.s:21679  .debug_str:000000000000379a .LASF570
C:\Users\stapi\AppData\Local\Temp\ccYEBfsk.s:19909  .debug_str:000000000000028e .LASF571
C:\Users\stapi\AppData\Local\Temp\ccYEBfsk.s:22283  .debug_str:00000000000048c9 .LASF572
C:\Users\stapi\AppData\Local\Temp\ccYEBfsk.s:20889  .debug_str:0000000000001e74 .LASF573
C:\Users\stapi\AppData\Local\Temp\ccYEBfsk.s:20635  .debug_str:000000000000174f .LASF574
C:\Users\stapi\AppData\Local\Temp\ccYEBfsk.s:20881  .debug_str:0000000000001e2e .LASF575
C:\Users\stapi\AppData\Local\Temp\ccYEBfsk.s:21285  .debug_str:0000000000002a93 .LASF576
C:\Users\stapi\AppData\Local\Temp\ccYEBfsk.s:21603  .debug_str:000000000000356e .LASF577
C:\Users\stapi\AppData\Local\Temp\ccYEBfsk.s:20247  .debug_str:0000000000000be0 .LASF578
C:\Users\stapi\AppData\Local\Temp\ccYEBfsk.s:22303  .debug_str:000000000000496b .LASF579
C:\Users\stapi\AppData\Local\Temp\ccYEBfsk.s:20861  .debug_str:0000000000001d94 .LASF580
C:\Users\stapi\AppData\Local\Temp\ccYEBfsk.s:20187  .debug_str:0000000000000a07 .LASF581
C:\Users\stapi\AppData\Local\Temp\ccYEBfsk.s:21951  .debug_str:0000000000003eeb .LASF582
C:\Users\stapi\AppData\Local\Temp\ccYEBfsk.s:19921  .debug_str:00000000000002ca .LASF583
C:\Users\stapi\AppData\Local\Temp\ccYEBfsk.s:20653  .debug_str:00000000000017cf .LASF584
C:\Users\stapi\AppData\Local\Temp\ccYEBfsk.s:22355  .debug_str:0000000000004b50 .LASF585
C:\Users\stapi\AppData\Local\Temp\ccYEBfsk.s:22233  .debug_str:0000000000004745 .LASF586
C:\Users\stapi\AppData\Local\Temp\ccYEBfsk.s:21147  .debug_str:000000000000267f .LASF587
C:\Users\stapi\AppData\Local\Temp\ccYEBfsk.s:21575  .debug_str:0000000000003498 .LASF588
C:\Users\stapi\AppData\Local\Temp\ccYEBfsk.s:21619  .debug_str:00000000000035e2 .LASF589
C:\Users\stapi\AppData\Local\Temp\ccYEBfsk.s:20701  .debug_str:0000000000001948 .LASF590
C:\Users\stapi\AppData\Local\Temp\ccYEBfsk.s:20665  .debug_str:0000000000001834 .LASF591
C:\Users\stapi\AppData\Local\Temp\ccYEBfsk.s:21445  .debug_str:0000000000003023 .LASF592
C:\Users\stapi\AppData\Local\Temp\ccYEBfsk.s:21517  .debug_str:00000000000032a6 .LASF593
C:\Users\stapi\AppData\Local\Temp\ccYEBfsk.s:19963  .debug_str:00000000000003fc .LASF594
C:\Users\stapi\AppData\Local\Temp\ccYEBfsk.s:22435  .debug_str:0000000000004dd3 .LASF595
C:\Users\stapi\AppData\Local\Temp\ccYEBfsk.s:22453  .debug_str:0000000000004e5b .LASF596
C:\Users\stapi\AppData\Local\Temp\ccYEBfsk.s:20473  .debug_str:00000000000012aa .LASF597
C:\Users\stapi\AppData\Local\Temp\ccYEBfsk.s:21371  .debug_str:0000000000002d19 .LASF598
C:\Users\stapi\AppData\Local\Temp\ccYEBfsk.s:21639  .debug_str:000000000000368f .LASF599
C:\Users\stapi\AppData\Local\Temp\ccYEBfsk.s:21851  .debug_str:0000000000003c4f .LASF600
C:\Users\stapi\AppData\Local\Temp\ccYEBfsk.s:20379  .debug_str:0000000000000ff6 .LASF601
C:\Users\stapi\AppData\Local\Temp\ccYEBfsk.s:20837  .debug_str:0000000000001cfb .LASF602
C:\Users\stapi\AppData\Local\Temp\ccYEBfsk.s:21503  .debug_str:0000000000003235 .LASF603
C:\Users\stapi\AppData\Local\Temp\ccYEBfsk.s:19877  .debug_str:000000000000018d .LASF604
C:\Users\stapi\AppData\Local\Temp\ccYEBfsk.s:20851  .debug_str:0000000000001d55 .LASF605
C:\Users\stapi\AppData\Local\Temp\ccYEBfsk.s:20171  .debug_str:0000000000000990 .LASF606
C:\Users\stapi\AppData\Local\Temp\ccYEBfsk.s:22083  .debug_str:00000000000042b9 .LASF607
C:\Users\stapi\AppData\Local\Temp\ccYEBfsk.s:20271  .debug_str:0000000000000cb1 .LASF608
C:\Users\stapi\AppData\Local\Temp\ccYEBfsk.s:20939  .debug_str:0000000000002001 .LASF609
C:\Users\stapi\AppData\Local\Temp\ccYEBfsk.s:21111  .debug_str:000000000000257d .LASF610
C:\Users\stapi\AppData\Local\Temp\ccYEBfsk.s:20127  .debug_str:0000000000000882 .LASF611
C:\Users\stapi\AppData\Local\Temp\ccYEBfsk.s:21555  .debug_str:00000000000033d6 .LASF612
C:\Users\stapi\AppData\Local\Temp\ccYEBfsk.s:21085  .debug_str:000000000000249b .LASF613
C:\Users\stapi\AppData\Local\Temp\ccYEBfsk.s:21757  .debug_str:00000000000039a9 .LASF614
C:\Users\stapi\AppData\Local\Temp\ccYEBfsk.s:20667  .debug_str:0000000000001845 .LASF615
C:\Users\stapi\AppData\Local\Temp\ccYEBfsk.s:20965  .debug_str:00000000000020ca .LASF616
C:\Users\stapi\AppData\Local\Temp\ccYEBfsk.s:21805  .debug_str:0000000000003b05 .LASF617
C:\Users\stapi\AppData\Local\Temp\ccYEBfsk.s:20169  .debug_str:0000000000000984 .LASF618
C:\Users\stapi\AppData\Local\Temp\ccYEBfsk.s:21045  .debug_str:0000000000002370 .LASF619
C:\Users\stapi\AppData\Local\Temp\ccYEBfsk.s:20201  .debug_str:0000000000000a70 .LASF620
C:\Users\stapi\AppData\Local\Temp\ccYEBfsk.s:22455  .debug_str:0000000000004e64 .LASF621
C:\Users\stapi\AppData\Local\Temp\ccYEBfsk.s:20547  .debug_str:00000000000014e3 .LASF622
C:\Users\stapi\AppData\Local\Temp\ccYEBfsk.s:20407  .debug_str:00000000000010cb .LASF623
C:\Users\stapi\AppData\Local\Temp\ccYEBfsk.s:21103  .debug_str:0000000000002545 .LASF624
C:\Users\stapi\AppData\Local\Temp\ccYEBfsk.s:21145  .debug_str:0000000000002672 .LASF625
C:\Users\stapi\AppData\Local\Temp\ccYEBfsk.s:22531  .debug_str:0000000000005119 .LASF626
C:\Users\stapi\AppData\Local\Temp\ccYEBfsk.s:21865  .debug_str:0000000000003caa .LASF627
C:\Users\stapi\AppData\Local\Temp\ccYEBfsk.s:21923  .debug_str:0000000000003e2c .LASF628
C:\Users\stapi\AppData\Local\Temp\ccYEBfsk.s:22155  .debug_str:00000000000044ff .LASF629
C:\Users\stapi\AppData\Local\Temp\ccYEBfsk.s:20089  .debug_str:0000000000000768 .LASF630
C:\Users\stapi\AppData\Local\Temp\ccYEBfsk.s:20733  .debug_str:0000000000001a2f .LASF631
C:\Users\stapi\AppData\Local\Temp\ccYEBfsk.s:21993  .debug_str:0000000000004026 .LASF632
C:\Users\stapi\AppData\Local\Temp\ccYEBfsk.s:22491  .debug_str:0000000000004f84 .LASF633
C:\Users\stapi\AppData\Local\Temp\ccYEBfsk.s:21807  .debug_str:0000000000003b17 .LASF634
C:\Users\stapi\AppData\Local\Temp\ccYEBfsk.s:20443  .debug_str:00000000000011ca .LASF635
C:\Users\stapi\AppData\Local\Temp\ccYEBfsk.s:22079  .debug_str:00000000000042a1 .LASF636
C:\Users\stapi\AppData\Local\Temp\ccYEBfsk.s:22631  .debug_str:00000000000053fb .LASF637
C:\Users\stapi\AppData\Local\Temp\ccYEBfsk.s:21969  .debug_str:0000000000003f9b .LASF638
C:\Users\stapi\AppData\Local\Temp\ccYEBfsk.s:20377  .debug_str:0000000000000fe9 .LASF639
C:\Users\stapi\AppData\Local\Temp\ccYEBfsk.s:21165  .debug_str:000000000000270b .LASF640
C:\Users\stapi\AppData\Local\Temp\ccYEBfsk.s:21193  .debug_str:00000000000027d0 .LASF641
C:\Users\stapi\AppData\Local\Temp\ccYEBfsk.s:22027  .debug_str:000000000000412f .LASF642
C:\Users\stapi\AppData\Local\Temp\ccYEBfsk.s:22595  .debug_str:00000000000052f1 .LASF643
C:\Users\stapi\AppData\Local\Temp\ccYEBfsk.s:21235  .debug_str:00000000000028e8 .LASF644
C:\Users\stapi\AppData\Local\Temp\ccYEBfsk.s:21113  .debug_str:0000000000002588 .LASF645
C:\Users\stapi\AppData\Local\Temp\ccYEBfsk.s:21069  .debug_str:0000000000002417 .LASF646
C:\Users\stapi\AppData\Local\Temp\ccYEBfsk.s:20631  .debug_str:0000000000001739 .LASF647
C:\Users\stapi\AppData\Local\Temp\ccYEBfsk.s:20361  .debug_str:0000000000000f62 .LASF648
C:\Users\stapi\AppData\Local\Temp\ccYEBfsk.s:20553  .debug_str:0000000000001511 .LASF649
C:\Users\stapi\AppData\Local\Temp\ccYEBfsk.s:21287  .debug_str:0000000000002aa1 .LASF650
C:\Users\stapi\AppData\Local\Temp\ccYEBfsk.s:22257  .debug_str:00000000000047fd .LASF651
C:\Users\stapi\AppData\Local\Temp\ccYEBfsk.s:21815  .debug_str:0000000000003b4b .LASF652
C:\Users\stapi\AppData\Local\Temp\ccYEBfsk.s:22687  .debug_str:00000000000055a2 .LASF653
C:\Users\stapi\AppData\Local\Temp\ccYEBfsk.s:22071  .debug_str:0000000000004277 .LASF654
C:\Users\stapi\AppData\Local\Temp\ccYEBfsk.s:20761  .debug_str:0000000000001ae2 .LASF655
C:\Users\stapi\AppData\Local\Temp\ccYEBfsk.s:20387  .debug_str:0000000000001038 .LASF656
C:\Users\stapi\AppData\Local\Temp\ccYEBfsk.s:20955  .debug_str:000000000000208d .LASF657
C:\Users\stapi\AppData\Local\Temp\ccYEBfsk.s:22357  .debug_str:0000000000004b5f .LASF658
C:\Users\stapi\AppData\Local\Temp\ccYEBfsk.s:21577  .debug_str:000000000000349f .LASF659
C:\Users\stapi\AppData\Local\Temp\ccYEBfsk.s:21963  .debug_str:0000000000003f6a .LASF660
C:\Users\stapi\AppData\Local\Temp\ccYEBfsk.s:20865  .debug_str:0000000000001db3 .LASF661
C:\Users\stapi\AppData\Local\Temp\ccYEBfsk.s:21283  .debug_str:0000000000002a87 .LASF662
C:\Users\stapi\AppData\Local\Temp\ccYEBfsk.s:20037  .debug_str:0000000000000602 .LASF663
C:\Users\stapi\AppData\Local\Temp\ccYEBfsk.s:19943  .debug_str:0000000000000368 .LASF664
C:\Users\stapi\AppData\Local\Temp\ccYEBfsk.s:21765  .debug_str:00000000000039e1 .LASF665
C:\Users\stapi\AppData\Local\Temp\ccYEBfsk.s:21493  .debug_str:00000000000031e6 .LASF666
C:\Users\stapi\AppData\Local\Temp\ccYEBfsk.s:20085  .debug_str:0000000000000752 .LASF667
C:\Users\stapi\AppData\Local\Temp\ccYEBfsk.s:21633  .debug_str:000000000000365f .LASF668
C:\Users\stapi\AppData\Local\Temp\ccYEBfsk.s:20015  .debug_str:0000000000000570 .LASF669
C:\Users\stapi\AppData\Local\Temp\ccYEBfsk.s:19995  .debug_str:00000000000004f1 .LASF670
C:\Users\stapi\AppData\Local\Temp\ccYEBfsk.s:22543  .debug_str:0000000000005168 .LASF671
C:\Users\stapi\AppData\Local\Temp\ccYEBfsk.s:22619  .debug_str:00000000000053b1 .LASF672
C:\Users\stapi\AppData\Local\Temp\ccYEBfsk.s:22555  .debug_str:00000000000051c5 .LASF673
C:\Users\stapi\AppData\Local\Temp\ccYEBfsk.s:21961  .debug_str:0000000000003f58 .LASF674
C:\Users\stapi\AppData\Local\Temp\ccYEBfsk.s:19865  .debug_str:000000000000013d .LASF675
C:\Users\stapi\AppData\Local\Temp\ccYEBfsk.s:20001  .debug_str:0000000000000512 .LASF676
C:\Users\stapi\AppData\Local\Temp\ccYEBfsk.s:20153  .debug_str:0000000000000923 .LASF677
C:\Users\stapi\AppData\Local\Temp\ccYEBfsk.s:22285  .debug_str:00000000000048d7 .LASF678
C:\Users\stapi\AppData\Local\Temp\ccYEBfsk.s:21307  .debug_str:0000000000002b34 .LASF679
C:\Users\stapi\AppData\Local\Temp\ccYEBfsk.s:22293  .debug_str:0000000000004915 .LASF680
C:\Users\stapi\AppData\Local\Temp\ccYEBfsk.s:21087  .debug_str:00000000000024ae .LASF681
C:\Users\stapi\AppData\Local\Temp\ccYEBfsk.s:19997  .debug_str:00000000000004f8 .LASF682
C:\Users\stapi\AppData\Local\Temp\ccYEBfsk.s:21553  .debug_str:00000000000033cb .LASF683
C:\Users\stapi\AppData\Local\Temp\ccYEBfsk.s:20005  .debug_str:0000000000000531 .LASF684
C:\Users\stapi\AppData\Local\Temp\ccYEBfsk.s:21511  .debug_str:0000000000003269 .LASF685
C:\Users\stapi\AppData\Local\Temp\ccYEBfsk.s:20383  .debug_str:000000000000101f .LASF686
C:\Users\stapi\AppData\Local\Temp\ccYEBfsk.s:20799  .debug_str:0000000000001bea .LASF687
C:\Users\stapi\AppData\Local\Temp\ccYEBfsk.s:21883  .debug_str:0000000000003d22 .LASF688
C:\Users\stapi\AppData\Local\Temp\ccYEBfsk.s:22469  .debug_str:0000000000004ed6 .LASF689
C:\Users\stapi\AppData\Local\Temp\ccYEBfsk.s:21729  .debug_str:00000000000038ec .LASF690
C:\Users\stapi\AppData\Local\Temp\ccYEBfsk.s:20525  .debug_str:000000000000143f .LASF691
C:\Users\stapi\AppData\Local\Temp\ccYEBfsk.s:21673  .debug_str:000000000000377d .LASF692
C:\Users\stapi\AppData\Local\Temp\ccYEBfsk.s:20599  .debug_str:0000000000001641 .LASF693
C:\Users\stapi\AppData\Local\Temp\ccYEBfsk.s:20503  .debug_str:0000000000001379 .LASF694
C:\Users\stapi\AppData\Local\Temp\ccYEBfsk.s:21203  .debug_str:000000000000280f .LASF695
C:\Users\stapi\AppData\Local\Temp\ccYEBfsk.s:21981  .debug_str:0000000000003fe4 .LASF696
C:\Users\stapi\AppData\Local\Temp\ccYEBfsk.s:21005  .debug_str:0000000000002200 .LASF697
C:\Users\stapi\AppData\Local\Temp\ccYEBfsk.s:21091  .debug_str:00000000000024ce .LASF698
C:\Users\stapi\AppData\Local\Temp\ccYEBfsk.s:19981  .debug_str:0000000000000486 .LASF699
C:\Users\stapi\AppData\Local\Temp\ccYEBfsk.s:22323  .debug_str:00000000000049ed .LASF700
C:\Users\stapi\AppData\Local\Temp\ccYEBfsk.s:22509  .debug_str:0000000000005081 .LASF701
C:\Users\stapi\AppData\Local\Temp\ccYEBfsk.s:20081  .debug_str:0000000000000731 .LASF702
C:\Users\stapi\AppData\Local\Temp\ccYEBfsk.s:19833  .debug_str:000000000000003e .LASF703
C:\Users\stapi\AppData\Local\Temp\ccYEBfsk.s:21927  .debug_str:0000000000003e3d .LASF704
C:\Users\stapi\AppData\Local\Temp\ccYEBfsk.s:20411  .debug_str:00000000000010e0 .LASF705
C:\Users\stapi\AppData\Local\Temp\ccYEBfsk.s:21367  .debug_str:0000000000002cf2 .LASF706
C:\Users\stapi\AppData\Local\Temp\ccYEBfsk.s:20049  .debug_str:0000000000000661 .LASF707
C:\Users\stapi\AppData\Local\Temp\ccYEBfsk.s:21159  .debug_str:00000000000026e1 .LASF708
C:\Users\stapi\AppData\Local\Temp\ccYEBfsk.s:20775  .debug_str:0000000000001b33 .LASF709
C:\Users\stapi\AppData\Local\Temp\ccYEBfsk.s:20243  .debug_str:0000000000000bcf .LASF710
C:\Users\stapi\AppData\Local\Temp\ccYEBfsk.s:22395  .debug_str:0000000000004ca0 .LASF711
C:\Users\stapi\AppData\Local\Temp\ccYEBfsk.s:20999  .debug_str:00000000000021d4 .LASF712
C:\Users\stapi\AppData\Local\Temp\ccYEBfsk.s:22153  .debug_str:00000000000044f8 .LASF713
C:\Users\stapi\AppData\Local\Temp\ccYEBfsk.s:22141  .debug_str:0000000000004492 .LASF714
C:\Users\stapi\AppData\Local\Temp\ccYEBfsk.s:21597  .debug_str:0000000000003539 .LASF715
C:\Users\stapi\AppData\Local\Temp\ccYEBfsk.s:21105  .debug_str:000000000000254b .LASF716
C:\Users\stapi\AppData\Local\Temp\ccYEBfsk.s:22011  .debug_str:00000000000040bc .LASF717
C:\Users\stapi\AppData\Local\Temp\ccYEBfsk.s:22203  .debug_str:0000000000004651 .LASF718
C:\Users\stapi\AppData\Local\Temp\ccYEBfsk.s:20471  .debug_str:000000000000129d .LASF719
C:\Users\stapi\AppData\Local\Temp\ccYEBfsk.s:20349  .debug_str:0000000000000f11 .LASF720
C:\Users\stapi\AppData\Local\Temp\ccYEBfsk.s:22113  .debug_str:00000000000043a0 .LASF721
C:\Users\stapi\AppData\Local\Temp\ccYEBfsk.s:21225  .debug_str:00000000000028a5 .LASF722
C:\Users\stapi\AppData\Local\Temp\ccYEBfsk.s:20227  .debug_str:0000000000000b4f .LASF723
C:\Users\stapi\AppData\Local\Temp\ccYEBfsk.s:20433  .debug_str:0000000000001175 .LASF724
C:\Users\stapi\AppData\Local\Temp\ccYEBfsk.s:20079  .debug_str:000000000000071a .LASF725
C:\Users\stapi\AppData\Local\Temp\ccYEBfsk.s:21023  .debug_str:0000000000002294 .LASF726
C:\Users\stapi\AppData\Local\Temp\ccYEBfsk.s:20589  .debug_str:00000000000015ef .LASF727
C:\Users\stapi\AppData\Local\Temp\ccYEBfsk.s:22107  .debug_str:000000000000436d .LASF728
C:\Users\stapi\AppData\Local\Temp\ccYEBfsk.s:21665  .debug_str:0000000000003746 .LASF729
C:\Users\stapi\AppData\Local\Temp\ccYEBfsk.s:20661  .debug_str:0000000000001806 .LASF730
C:\Users\stapi\AppData\Local\Temp\ccYEBfsk.s:20687  .debug_str:00000000000018ef .LASF731
C:\Users\stapi\AppData\Local\Temp\ccYEBfsk.s:21079  .debug_str:000000000000246e .LASF732
C:\Users\stapi\AppData\Local\Temp\ccYEBfsk.s:22647  .debug_str:0000000000005477 .LASF733
C:\Users\stapi\AppData\Local\Temp\ccYEBfsk.s:21499  .debug_str:0000000000003220 .LASF734
C:\Users\stapi\AppData\Local\Temp\ccYEBfsk.s:21361  .debug_str:0000000000002cb7 .LASF735
C:\Users\stapi\AppData\Local\Temp\ccYEBfsk.s:21439  .debug_str:0000000000002ff9 .LASF736
C:\Users\stapi\AppData\Local\Temp\ccYEBfsk.s:21677  .debug_str:0000000000003791 .LASF737
C:\Users\stapi\AppData\Local\Temp\ccYEBfsk.s:19989  .debug_str:00000000000004c7 .LASF738
C:\Users\stapi\AppData\Local\Temp\ccYEBfsk.s:20029  .debug_str:00000000000005ca .LASF739
C:\Users\stapi\AppData\Local\Temp\ccYEBfsk.s:21423  .debug_str:0000000000002ea1 .LASF740
C:\Users\stapi\AppData\Local\Temp\ccYEBfsk.s:20703  .debug_str:000000000000195d .LASF741
C:\Users\stapi\AppData\Local\Temp\ccYEBfsk.s:21343  .debug_str:0000000000002c24 .LASF742
C:\Users\stapi\AppData\Local\Temp\ccYEBfsk.s:22677  .debug_str:0000000000005560 .LASF743
C:\Users\stapi\AppData\Local\Temp\ccYEBfsk.s:22405  .debug_str:0000000000004cde .LASF744
C:\Users\stapi\AppData\Local\Temp\ccYEBfsk.s:21569  .debug_str:0000000000003459 .LASF745
C:\Users\stapi\AppData\Local\Temp\ccYEBfsk.s:22215  .debug_str:00000000000046a6 .LASF746
C:\Users\stapi\AppData\Local\Temp\ccYEBfsk.s:20209  .debug_str:0000000000000aa3 .LASF747
C:\Users\stapi\AppData\Local\Temp\ccYEBfsk.s:20291  .debug_str:0000000000000d43 .LASF748
C:\Users\stapi\AppData\Local\Temp\ccYEBfsk.s:20835  .debug_str:0000000000001ceb .LASF749
C:\Users\stapi\AppData\Local\Temp\ccYEBfsk.s:20533  .debug_str:000000000000146a .LASF750
C:\Users\stapi\AppData\Local\Temp\ccYEBfsk.s:19953  .debug_str:00000000000003c5 .LASF751
C:\Users\stapi\AppData\Local\Temp\ccYEBfsk.s:21791  .debug_str:0000000000003a9f .LASF752
C:\Users\stapi\AppData\Local\Temp\ccYEBfsk.s:21761  .debug_str:00000000000039c5 .LASF753
C:\Users\stapi\AppData\Local\Temp\ccYEBfsk.s:20699  .debug_str:000000000000193d .LASF754
C:\Users\stapi\AppData\Local\Temp\ccYEBfsk.s:20345  .debug_str:0000000000000ef4 .LASF755
C:\Users\stapi\AppData\Local\Temp\ccYEBfsk.s:21973  .debug_str:0000000000003fb8 .LASF756
C:\Users\stapi\AppData\Local\Temp\ccYEBfsk.s:20055  .debug_str:0000000000000692 .LASF757
C:\Users\stapi\AppData\Local\Temp\ccYEBfsk.s:22407  .debug_str:0000000000004ce7 .LASF758
C:\Users\stapi\AppData\Local\Temp\ccYEBfsk.s:20119  .debug_str:0000000000000845 .LASF759
C:\Users\stapi\AppData\Local\Temp\ccYEBfsk.s:22519  .debug_str:00000000000050da .LASF760
C:\Users\stapi\AppData\Local\Temp\ccYEBfsk.s:20969  .debug_str:00000000000020ea .LASF761
C:\Users\stapi\AppData\Local\Temp\ccYEBfsk.s:20141  .debug_str:00000000000008d6 .LASF762
C:\Users\stapi\AppData\Local\Temp\ccYEBfsk.s:20321  .debug_str:0000000000000e23 .LASF763
C:\Users\stapi\AppData\Local\Temp\ccYEBfsk.s:21561  .debug_str:000000000000340e .LASF764
C:\Users\stapi\AppData\Local\Temp\ccYEBfsk.s:21825  .debug_str:0000000000003b95 .LASF765
C:\Users\stapi\AppData\Local\Temp\ccYEBfsk.s:21311  .debug_str:0000000000002b4e .LASF766
C:\Users\stapi\AppData\Local\Temp\ccYEBfsk.s:21959  .debug_str:0000000000003f44 .LASF767
C:\Users\stapi\AppData\Local\Temp\ccYEBfsk.s:21539  .debug_str:0000000000003378 .LASF768
C:\Users\stapi\AppData\Local\Temp\ccYEBfsk.s:20869  .debug_str:0000000000001dce .LASF769
C:\Users\stapi\AppData\Local\Temp\ccYEBfsk.s:22185  .debug_str:00000000000045cb .LASF770
C:\Users\stapi\AppData\Local\Temp\ccYEBfsk.s:22363  .debug_str:0000000000004b91 .LASF771
C:\Users\stapi\AppData\Local\Temp\ccYEBfsk.s:21387  .debug_str:0000000000002d92 .LASF772
C:\Users\stapi\AppData\Local\Temp\ccYEBfsk.s:21039  .debug_str:0000000000002339 .LASF773
C:\Users\stapi\AppData\Local\Temp\ccYEBfsk.s:22057  .debug_str:0000000000004202 .LASF774
C:\Users\stapi\AppData\Local\Temp\ccYEBfsk.s:22307  .debug_str:0000000000004987 .LASF775
C:\Users\stapi\AppData\Local\Temp\ccYEBfsk.s:20167  .debug_str:0000000000000972 .LASF776
C:\Users\stapi\AppData\Local\Temp\ccYEBfsk.s:21701  .debug_str:0000000000003829 .LASF777
C:\Users\stapi\AppData\Local\Temp\ccYEBfsk.s:22017  .debug_str:00000000000040ed .LASF778
C:\Users\stapi\AppData\Local\Temp\ccYEBfsk.s:20885  .debug_str:0000000000001e4d .LASF779
C:\Users\stapi\AppData\Local\Temp\ccYEBfsk.s:21845  .debug_str:0000000000003c18 .LASF780
C:\Users\stapi\AppData\Local\Temp\ccYEBfsk.s:22087  .debug_str:00000000000042d5 .LASF781
C:\Users\stapi\AppData\Local\Temp\ccYEBfsk.s:22299  .debug_str:000000000000494a .LASF782
C:\Users\stapi\AppData\Local\Temp\ccYEBfsk.s:22193  .debug_str:0000000000004603 .LASF783
C:\Users\stapi\AppData\Local\Temp\ccYEBfsk.s:21935  .debug_str:0000000000003e70 .LASF784
C:\Users\stapi\AppData\Local\Temp\ccYEBfsk.s:19895  .debug_str:0000000000000213 .LASF785
C:\Users\stapi\AppData\Local\Temp\ccYEBfsk.s:21217  .debug_str:0000000000002862 .LASF786
C:\Users\stapi\AppData\Local\Temp\ccYEBfsk.s:22539  .debug_str:0000000000005149 .LASF787
C:\Users\stapi\AppData\Local\Temp\ccYEBfsk.s:20241  .debug_str:0000000000000bc4 .LASF788
C:\Users\stapi\AppData\Local\Temp\ccYEBfsk.s:20755  .debug_str:0000000000001abe .LASF789
C:\Users\stapi\AppData\Local\Temp\ccYEBfsk.s:20737  .debug_str:0000000000001a49 .LASF790
C:\Users\stapi\AppData\Local\Temp\ccYEBfsk.s:20741  .debug_str:0000000000001a6c .LASF791
C:\Users\stapi\AppData\Local\Temp\ccYEBfsk.s:20109  .debug_str:00000000000007f3 .LASF792
C:\Users\stapi\AppData\Local\Temp\ccYEBfsk.s:21849  .debug_str:0000000000003c3c .LASF793
C:\Users\stapi\AppData\Local\Temp\ccYEBfsk.s:21751  .debug_str:0000000000003977 .LASF794
C:\Users\stapi\AppData\Local\Temp\ccYEBfsk.s:20505  .debug_str:0000000000001384 .LASF795
C:\Users\stapi\AppData\Local\Temp\ccYEBfsk.s:21281  .debug_str:0000000000002a6f .LASF796
C:\Users\stapi\AppData\Local\Temp\ccYEBfsk.s:20927  .debug_str:0000000000001fa1 .LASF797
C:\Users\stapi\AppData\Local\Temp\ccYEBfsk.s:21535  .debug_str:0000000000003348 .LASF798
C:\Users\stapi\AppData\Local\Temp\ccYEBfsk.s:20609  .debug_str:000000000000167b .LASF799
C:\Users\stapi\AppData\Local\Temp\ccYEBfsk.s:21421  .debug_str:0000000000002e8c .LASF800
C:\Users\stapi\AppData\Local\Temp\ccYEBfsk.s:21253  .debug_str:0000000000002973 .LASF801
C:\Users\stapi\AppData\Local\Temp\ccYEBfsk.s:22169  .debug_str:0000000000004555 .LASF802
C:\Users\stapi\AppData\Local\Temp\ccYEBfsk.s:20645  .debug_str:000000000000179c .LASF803
C:\Users\stapi\AppData\Local\Temp\ccYEBfsk.s:21325  .debug_str:0000000000002bc4 .LASF804
C:\Users\stapi\AppData\Local\Temp\ccYEBfsk.s:20427  .debug_str:000000000000113d .LASF805
C:\Users\stapi\AppData\Local\Temp\ccYEBfsk.s:21349  .debug_str:0000000000002c4f .LASF806
C:\Users\stapi\AppData\Local\Temp\ccYEBfsk.s:21741  .debug_str:0000000000003932 .LASF807
C:\Users\stapi\AppData\Local\Temp\ccYEBfsk.s:22319  .debug_str:00000000000049c7 .LASF808
C:\Users\stapi\AppData\Local\Temp\ccYEBfsk.s:21455  .debug_str:00000000000030a3 .LASF809
C:\Users\stapi\AppData\Local\Temp\ccYEBfsk.s:21891  .debug_str:0000000000003d5a .LASF810
C:\Users\stapi\AppData\Local\Temp\ccYEBfsk.s:21631  .debug_str:000000000000363e .LASF811
C:\Users\stapi\AppData\Local\Temp\ccYEBfsk.s:21611  .debug_str:00000000000035a1 .LASF812
C:\Users\stapi\AppData\Local\Temp\ccYEBfsk.s:21669  .debug_str:0000000000003767 .LASF813
C:\Users\stapi\AppData\Local\Temp\ccYEBfsk.s:20785  .debug_str:0000000000001b71 .LASF814
C:\Users\stapi\AppData\Local\Temp\ccYEBfsk.s:22683  .debug_str:0000000000005587 .LASF815
C:\Users\stapi\AppData\Local\Temp\ccYEBfsk.s:21685  .debug_str:00000000000037cf .LASF816
C:\Users\stapi\AppData\Local\Temp\ccYEBfsk.s:20929  .debug_str:0000000000001fae .LASF817
C:\Users\stapi\AppData\Local\Temp\ccYEBfsk.s:21897  .debug_str:0000000000003d7a .LASF818
C:\Users\stapi\AppData\Local\Temp\ccYEBfsk.s:22567  .debug_str:0000000000005223 .LASF819
C:\Users\stapi\AppData\Local\Temp\ccYEBfsk.s:20063  .debug_str:00000000000006d3 .LASF820
C:\Users\stapi\AppData\Local\Temp\ccYEBfsk.s:20179  .debug_str:00000000000009e9 .LASF821
C:\Users\stapi\AppData\Local\Temp\ccYEBfsk.s:20065  .debug_str:00000000000006da .LASF822
C:\Users\stapi\AppData\Local\Temp\ccYEBfsk.s:20067  .debug_str:00000000000006e1 .LASF823
C:\Users\stapi\AppData\Local\Temp\ccYEBfsk.s:20069  .debug_str:00000000000006e8 .LASF824
C:\Users\stapi\AppData\Local\Temp\ccYEBfsk.s:20071  .debug_str:00000000000006ef .LASF825
C:\Users\stapi\AppData\Local\Temp\ccYEBfsk.s:20073  .debug_str:00000000000006f6 .LASF826
C:\Users\stapi\AppData\Local\Temp\ccYEBfsk.s:20075  .debug_str:00000000000006fd .LASF827
C:\Users\stapi\AppData\Local\Temp\ccYEBfsk.s:21187  .debug_str:000000000000279d .LASF828
C:\Users\stapi\AppData\Local\Temp\ccYEBfsk.s:20859  .debug_str:0000000000001d87 .LASF829
C:\Users\stapi\AppData\Local\Temp\ccYEBfsk.s:22503  .debug_str:000000000000505a .LASF830
C:\Users\stapi\AppData\Local\Temp\ccYEBfsk.s:20129  .debug_str:000000000000088f .LASF831
C:\Users\stapi\AppData\Local\Temp\ccYEBfsk.s:21573  .debug_str:000000000000347f .LASF832
C:\Users\stapi\AppData\Local\Temp\ccYEBfsk.s:20381  .debug_str:000000000000100a .LASF833
C:\Users\stapi\AppData\Local\Temp\ccYEBfsk.s:22289  .debug_str:00000000000048ee .LASF834
C:\Users\stapi\AppData\Local\Temp\ccYEBfsk.s:20625  .debug_str:0000000000001717 .LASF835
C:\Users\stapi\AppData\Local\Temp\ccYEBfsk.s:21389  .debug_str:0000000000002d9e .LASF836
C:\Users\stapi\AppData\Local\Temp\ccYEBfsk.s:22529  .debug_str:000000000000510f .LASF837
C:\Users\stapi\AppData\Local\Temp\ccYEBfsk.s:21547  .debug_str:00000000000033a7 .LASF838
C:\Users\stapi\AppData\Local\Temp\ccYEBfsk.s:20009  .debug_str:000000000000054d .LASF839
C:\Users\stapi\AppData\Local\Temp\ccYEBfsk.s:20139  .debug_str:00000000000008ca .LASF840
C:\Users\stapi\AppData\Local\Temp\ccYEBfsk.s:20267  .debug_str:0000000000000c90 .LASF841
C:\Users\stapi\AppData\Local\Temp\ccYEBfsk.s:20401  .debug_str:00000000000010a3 .LASF842
C:\Users\stapi\AppData\Local\Temp\ccYEBfsk.s:22557  .debug_str:00000000000051cd .LASF843
C:\Users\stapi\AppData\Local\Temp\ccYEBfsk.s:19945  .debug_str:000000000000037a .LASF844
C:\Users\stapi\AppData\Local\Temp\ccYEBfsk.s:22197  .debug_str:000000000000462b .LASF845
C:\Users\stapi\AppData\Local\Temp\ccYEBfsk.s:22549  .debug_str:0000000000005198 .LASF846
C:\Users\stapi\AppData\Local\Temp\ccYEBfsk.s:20833  .debug_str:0000000000001cd9 .LASF847
C:\Users\stapi\AppData\Local\Temp\ccYEBfsk.s:20723  .debug_str:00000000000019ed .LASF848
C:\Users\stapi\AppData\Local\Temp\ccYEBfsk.s:19937  .debug_str:0000000000000346 .LASF849
C:\Users\stapi\AppData\Local\Temp\ccYEBfsk.s:22605  .debug_str:0000000000005347 .LASF850
C:\Users\stapi\AppData\Local\Temp\ccYEBfsk.s:20477  .debug_str:00000000000012cb .LASF851
C:\Users\stapi\AppData\Local\Temp\ccYEBfsk.s:22465  .debug_str:0000000000004eb8 .LASF852
C:\Users\stapi\AppData\Local\Temp\ccYEBfsk.s:22587  .debug_str:00000000000052af .LASF853
C:\Users\stapi\AppData\Local\Temp\ccYEBfsk.s:20435  .debug_str:000000000000118b .LASF854
C:\Users\stapi\AppData\Local\Temp\ccYEBfsk.s:20339  .debug_str:0000000000000ec6 .LASF855
C:\Users\stapi\AppData\Local\Temp\ccYEBfsk.s:20843  .debug_str:0000000000001d26 .LASF856
C:\Users\stapi\AppData\Local\Temp\ccYEBfsk.s:22041  .debug_str:0000000000004182 .LASF857
C:\Users\stapi\AppData\Local\Temp\ccYEBfsk.s:19825  .debug_str:0000000000000000 .LASF858
C:\Users\stapi\AppData\Local\Temp\ccYEBfsk.s:22627  .debug_str:00000000000053ec .LASF859
C:\Users\stapi\AppData\Local\Temp\ccYEBfsk.s:19871  .debug_str:0000000000000166 .LASF860
C:\Users\stapi\AppData\Local\Temp\ccYEBfsk.s:22431  .debug_str:0000000000004dbe .LASF861
C:\Users\stapi\AppData\Local\Temp\ccYEBfsk.s:20805  .debug_str:0000000000001c0b .LASF862
C:\Users\stapi\AppData\Local\Temp\ccYEBfsk.s:21089  .debug_str:00000000000024bf .LASF863
C:\Users\stapi\AppData\Local\Temp\ccYEBfsk.s:20281  .debug_str:0000000000000cea .LASF864
C:\Users\stapi\AppData\Local\Temp\ccYEBfsk.s:21399  .debug_str:0000000000002deb .LASF865
C:\Users\stapi\AppData\Local\Temp\ccYEBfsk.s:22399  .debug_str:0000000000004cb4 .LASF866
C:\Users\stapi\AppData\Local\Temp\ccYEBfsk.s:22579  .debug_str:0000000000005278 .LASF867
C:\Users\stapi\AppData\Local\Temp\ccYEBfsk.s:21885  .debug_str:0000000000003d2d .LASF868
C:\Users\stapi\AppData\Local\Temp\ccYEBfsk.s:20491  .debug_str:0000000000001323 .LASF869
C:\Users\stapi\AppData\Local\Temp\ccYEBfsk.s:22243  .debug_str:000000000000479b .LASF870
C:\Users\stapi\AppData\Local\Temp\ccYEBfsk.s:22577  .debug_str:000000000000526c .LASF871
C:\Users\stapi\AppData\Local\Temp\ccYEBfsk.s:22403  .debug_str:0000000000004cce .LASF872
C:\Users\stapi\AppData\Local\Temp\ccYEBfsk.s:20523  .debug_str:0000000000001431 .LASF873
C:\Users\stapi\AppData\Local\Temp\ccYEBfsk.s:20935  .debug_str:0000000000001fe1 .LASF874
C:\Users\stapi\AppData\Local\Temp\ccYEBfsk.s:21875  .debug_str:0000000000003cf5 .LASF875
C:\Users\stapi\AppData\Local\Temp\ccYEBfsk.s:21743  .debug_str:0000000000003941 .LASF876
C:\Users\stapi\AppData\Local\Temp\ccYEBfsk.s:20801  .debug_str:0000000000001bf7 .LASF877
C:\Users\stapi\AppData\Local\Temp\ccYEBfsk.s:20519  .debug_str:000000000000141b .LASF878
C:\Users\stapi\AppData\Local\Temp\ccYEBfsk.s:20897  .debug_str:0000000000001ec1 .LASF879
C:\Users\stapi\AppData\Local\Temp\ccYEBfsk.s:21917  .debug_str:0000000000003dfb .LASF880
C:\Users\stapi\AppData\Local\Temp\ccYEBfsk.s:22369  .debug_str:0000000000004bc6 .LASF881
C:\Users\stapi\AppData\Local\Temp\ccYEBfsk.s:21893  .debug_str:0000000000003d60 .LASF882
C:\Users\stapi\AppData\Local\Temp\ccYEBfsk.s:20263  .debug_str:0000000000000c65 .LASF883
C:\Users\stapi\AppData\Local\Temp\ccYEBfsk.s:21157  .debug_str:00000000000026d0 .LASF884
C:\Users\stapi\AppData\Local\Temp\ccYEBfsk.s:20887  .debug_str:0000000000001e62 .LASF885
C:\Users\stapi\AppData\Local\Temp\ccYEBfsk.s:22199  .debug_str:0000000000004638 .LASF886
C:\Users\stapi\AppData\Local\Temp\ccYEBfsk.s:21715  .debug_str:0000000000003892 .LASF887
C:\Users\stapi\AppData\Local\Temp\ccYEBfsk.s:21317  .debug_str:0000000000002b8c .LASF888
C:\Users\stapi\AppData\Local\Temp\ccYEBfsk.s:20641  .debug_str:000000000000177d .LASF889
C:\Users\stapi\AppData\Local\Temp\ccYEBfsk.s:20825  .debug_str:0000000000001c84 .LASF890
C:\Users\stapi\AppData\Local\Temp\ccYEBfsk.s:20627  .debug_str:0000000000001721 .LASF891
C:\Users\stapi\AppData\Local\Temp\ccYEBfsk.s:21265  .debug_str:00000000000029eb .LASF892
C:\Users\stapi\AppData\Local\Temp\ccYEBfsk.s:21465  .debug_str:00000000000030f2 .LASF893
C:\Users\stapi\AppData\Local\Temp\ccYEBfsk.s:22681  .debug_str:0000000000005574 .LASF894
C:\Users\stapi\AppData\Local\Temp\ccYEBfsk.s:21595  .debug_str:0000000000003527 .LASF895
C:\Users\stapi\AppData\Local\Temp\ccYEBfsk.s:22649  .debug_str:000000000000547d .LASF896
C:\Users\stapi\AppData\Local\Temp\ccYEBfsk.s:19855  .debug_str:00000000000000d8 .LASF897
C:\Users\stapi\AppData\Local\Temp\ccYEBfsk.s:21481  .debug_str:000000000000315f .LASF898
C:\Users\stapi\AppData\Local\Temp\ccYEBfsk.s:22617  .debug_str:000000000000539a .LASF899
C:\Users\stapi\AppData\Local\Temp\ccYEBfsk.s:21487  .debug_str:000000000000319c .LASF900
C:\Users\stapi\AppData\Local\Temp\ccYEBfsk.s:19897  .debug_str:0000000000000229 .LASF901
C:\Users\stapi\AppData\Local\Temp\ccYEBfsk.s:20831  .debug_str:0000000000001cb8 .LASF902
C:\Users\stapi\AppData\Local\Temp\ccYEBfsk.s:21599  .debug_str:000000000000354c .LASF903
C:\Users\stapi\AppData\Local\Temp\ccYEBfsk.s:19885  .debug_str:00000000000001cf .LASF904
C:\Users\stapi\AppData\Local\Temp\ccYEBfsk.s:21847  .debug_str:0000000000003c2b .LASF905
C:\Users\stapi\AppData\Local\Temp\ccYEBfsk.s:21247  .debug_str:0000000000002942 .LASF906
C:\Users\stapi\AppData\Local\Temp\ccYEBfsk.s:21267  .debug_str:0000000000002a00 .LASF907
C:\Users\stapi\AppData\Local\Temp\ccYEBfsk.s:19901  .debug_str:000000000000024b .LASF908
C:\Users\stapi\AppData\Local\Temp\ccYEBfsk.s:20629  .debug_str:0000000000001730 .LASF909
C:\Users\stapi\AppData\Local\Temp\ccYEBfsk.s:20155  .debug_str:0000000000000932 .LASF910
C:\Users\stapi\AppData\Local\Temp\ccYEBfsk.s:22515  .debug_str:00000000000050b5 .LASF911
C:\Users\stapi\AppData\Local\Temp\ccYEBfsk.s:22359  .debug_str:0000000000004b75 .LASF912
C:\Users\stapi\AppData\Local\Temp\ccYEBfsk.s:22123  .debug_str:00000000000043f5 .LASF913
C:\Users\stapi\AppData\Local\Temp\ccYEBfsk.s:20439  .debug_str:00000000000011af .LASF914
C:\Users\stapi\AppData\Local\Temp\ccYEBfsk.s:19949  .debug_str:000000000000039e .LASF915
C:\Users\stapi\AppData\Local\Temp\ccYEBfsk.s:20297  .debug_str:0000000000000d62 .LASF916
C:\Users\stapi\AppData\Local\Temp\ccYEBfsk.s:22105  .debug_str:000000000000435b .LASF917
C:\Users\stapi\AppData\Local\Temp\ccYEBfsk.s:21769  .debug_str:0000000000003a0a .LASF918
C:\Users\stapi\AppData\Local\Temp\ccYEBfsk.s:21339  .debug_str:0000000000002c13 .LASF919
C:\Users\stapi\AppData\Local\Temp\ccYEBfsk.s:21321  .debug_str:0000000000002ba8 .LASF920
C:\Users\stapi\AppData\Local\Temp\ccYEBfsk.s:20197  .debug_str:0000000000000a57 .LASF921
C:\Users\stapi\AppData\Local\Temp\ccYEBfsk.s:22235  .debug_str:0000000000004754 .LASF922
C:\Users\stapi\AppData\Local\Temp\ccYEBfsk.s:22603  .debug_str:000000000000533b .LASF923
C:\Users\stapi\AppData\Local\Temp\ccYEBfsk.s:21301  .debug_str:0000000000002afe .LASF924
C:\Users\stapi\AppData\Local\Temp\ccYEBfsk.s:21135  .debug_str:0000000000002624 .LASF925
C:\Users\stapi\AppData\Local\Temp\ccYEBfsk.s:20957  .debug_str:00000000000020a1 .LASF926
C:\Users\stapi\AppData\Local\Temp\ccYEBfsk.s:21585  .debug_str:00000000000034d9 .LASF927
C:\Users\stapi\AppData\Local\Temp\ccYEBfsk.s:21515  .debug_str:000000000000328e .LASF928
C:\Users\stapi\AppData\Local\Temp\ccYEBfsk.s:20205  .debug_str:0000000000000a82 .LASF929
C:\Users\stapi\AppData\Local\Temp\ccYEBfsk.s:20217  .debug_str:0000000000000ae6 .LASF930
C:\Users\stapi\AppData\Local\Temp\ccYEBfsk.s:22667  .debug_str:000000000000550c .LASF931
C:\Users\stapi\AppData\Local\Temp\ccYEBfsk.s:22553  .debug_str:00000000000051ae .LASF932
C:\Users\stapi\AppData\Local\Temp\ccYEBfsk.s:21837  .debug_str:0000000000003be5 .LASF933
C:\Users\stapi\AppData\Local\Temp\ccYEBfsk.s:22269  .debug_str:0000000000004868 .LASF1427
C:\Users\stapi\AppData\Local\Temp\ccYEBfsk.s:20579  .debug_str:00000000000015cb .LASF934
C:\Users\stapi\AppData\Local\Temp\ccYEBfsk.s:20691  .debug_str:0000000000001902 .LASF935
C:\Users\stapi\AppData\Local\Temp\ccYEBfsk.s:20901  .debug_str:0000000000001edd .LASF936
C:\Users\stapi\AppData\Local\Temp\ccYEBfsk.s:20575  .debug_str:00000000000015ad .LASF937
C:\Users\stapi\AppData\Local\Temp\ccYEBfsk.s:21649  .debug_str:00000000000036c4 .LASF938
C:\Users\stapi\AppData\Local\Temp\ccYEBfsk.s:21329  .debug_str:0000000000002be3 .LASF939
C:\Users\stapi\AppData\Local\Temp\ccYEBfsk.s:22651  .debug_str:0000000000005490 .LASF940
C:\Users\stapi\AppData\Local\Temp\ccYEBfsk.s:20371  .debug_str:0000000000000fb2 .LASF941
C:\Users\stapi\AppData\Local\Temp\ccYEBfsk.s:21189  .debug_str:00000000000027a9 .LASF942
C:\Users\stapi\AppData\Local\Temp\ccYEBfsk.s:19929  .debug_str:0000000000000315 .LASF943
C:\Users\stapi\AppData\Local\Temp\ccYEBfsk.s:19999  .debug_str:0000000000000509 .LASF944
C:\Users\stapi\AppData\Local\Temp\ccYEBfsk.s:21821  .debug_str:0000000000003b87 .LASF945
C:\Users\stapi\AppData\Local\Temp\ccYEBfsk.s:20863  .debug_str:0000000000001da9 .LASF946
C:\Users\stapi\AppData\Local\Temp\ccYEBfsk.s:20279  .debug_str:0000000000000ce2 .LASF947
C:\Users\stapi\AppData\Local\Temp\ccYEBfsk.s:20499  .debug_str:000000000000135e .LASF948
C:\Users\stapi\AppData\Local\Temp\ccYEBfsk.s:22249  .debug_str:00000000000047c4 .LASF949
C:\Users\stapi\AppData\Local\Temp\ccYEBfsk.s:21133  .debug_str:0000000000002611 .LASF950
C:\Users\stapi\AppData\Local\Temp\ccYEBfsk.s:20103  .debug_str:00000000000007c1 .LASF951
C:\Users\stapi\AppData\Local\Temp\ccYEBfsk.s:21067  .debug_str:0000000000002406 .LASF952
C:\Users\stapi\AppData\Local\Temp\ccYEBfsk.s:20051  .debug_str:000000000000066e .LASF953
C:\Users\stapi\AppData\Local\Temp\ccYEBfsk.s:19941  .debug_str:000000000000035a .LASF954
C:\Users\stapi\AppData\Local\Temp\ccYEBfsk.s:19839  .debug_str:0000000000000066 .LASF955
C:\Users\stapi\AppData\Local\Temp\ccYEBfsk.s:22669  .debug_str:0000000000005514 .LASF956
C:\Users\stapi\AppData\Local\Temp\ccYEBfsk.s:22433  .debug_str:0000000000004dc8 .LASF957
C:\Users\stapi\AppData\Local\Temp\ccYEBfsk.s:22551  .debug_str:00000000000051a5 .LASF958
C:\Users\stapi\AppData\Local\Temp\ccYEBfsk.s:20683  .debug_str:00000000000018c9 .LASF959
C:\Users\stapi\AppData\Local\Temp\ccYEBfsk.s:20829  .debug_str:0000000000001ca5 .LASF960
C:\Users\stapi\AppData\Local\Temp\ccYEBfsk.s:22545  .debug_str:0000000000005177 .LASF961
C:\Users\stapi\AppData\Local\Temp\ccYEBfsk.s:21205  .debug_str:000000000000281f .LASF962
C:\Users\stapi\AppData\Local\Temp\ccYEBfsk.s:21991  .debug_str:0000000000004016 .LASF963
C:\Users\stapi\AppData\Local\Temp\ccYEBfsk.s:22021  .debug_str:000000000000410c .LASF964
C:\Users\stapi\AppData\Local\Temp\ccYEBfsk.s:19905  .debug_str:0000000000000276 .LASF965
C:\Users\stapi\AppData\Local\Temp\ccYEBfsk.s:19875  .debug_str:0000000000000180 .LASF966
C:\Users\stapi\AppData\Local\Temp\ccYEBfsk.s:20597  .debug_str:0000000000001634 .LASF967
C:\Users\stapi\AppData\Local\Temp\ccYEBfsk.s:21579  .debug_str:00000000000034ad .LASF968
C:\Users\stapi\AppData\Local\Temp\ccYEBfsk.s:21733  .debug_str:0000000000003905 .LASF969
C:\Users\stapi\AppData\Local\Temp\ccYEBfsk.s:21799  .debug_str:0000000000003add .LASF970
C:\Users\stapi\AppData\Local\Temp\ccYEBfsk.s:20181  .debug_str:00000000000009f1 .LASF971
C:\Users\stapi\AppData\Local\Temp\ccYEBfsk.s:22029  .debug_str:000000000000413d .LASF972
C:\Users\stapi\AppData\Local\Temp\ccYEBfsk.s:22401  .debug_str:0000000000004cc1 .LASF973
C:\Users\stapi\AppData\Local\Temp\ccYEBfsk.s:21705  .debug_str:0000000000003846 .LASF974
C:\Users\stapi\AppData\Local\Temp\ccYEBfsk.s:20529  .debug_str:0000000000001454 .LASF975
C:\Users\stapi\AppData\Local\Temp\ccYEBfsk.s:21019  .debug_str:0000000000002277 .LASF976
C:\Users\stapi\AppData\Local\Temp\ccYEBfsk.s:21391  .debug_str:0000000000002da8 .LASF977
C:\Users\stapi\AppData\Local\Temp\ccYEBfsk.s:22159  .debug_str:0000000000004513 .LASF978
C:\Users\stapi\AppData\Local\Temp\ccYEBfsk.s:20159  .debug_str:0000000000000949 .LASF979
C:\Users\stapi\AppData\Local\Temp\ccYEBfsk.s:21065  .debug_str:00000000000023f5 .LASF980
C:\Users\stapi\AppData\Local\Temp\ccYEBfsk.s:21259  .debug_str:00000000000029b2 .LASF981
C:\Users\stapi\AppData\Local\Temp\ccYEBfsk.s:20713  .debug_str:00000000000019ad .LASF982
C:\Users\stapi\AppData\Local\Temp\ccYEBfsk.s:20959  .debug_str:00000000000020a6 .LASF983
C:\Users\stapi\AppData\Local\Temp\ccYEBfsk.s:20011  .debug_str:000000000000055d .LASF984
C:\Users\stapi\AppData\Local\Temp\ccYEBfsk.s:20457  .debug_str:0000000000001222 .LASF985
C:\Users\stapi\AppData\Local\Temp\ccYEBfsk.s:21621  .debug_str:00000000000035ee .LASF986
C:\Users\stapi\AppData\Local\Temp\ccYEBfsk.s:19957  .debug_str:00000000000003d8 .LASF987
C:\Users\stapi\AppData\Local\Temp\ccYEBfsk.s:22073  .debug_str:0000000000004281 .LASF988
C:\Users\stapi\AppData\Local\Temp\ccYEBfsk.s:21125  .debug_str:00000000000025e1 .LASF989
C:\Users\stapi\AppData\Local\Temp\ccYEBfsk.s:21315  .debug_str:0000000000002b7c .LASF990
C:\Users\stapi\AppData\Local\Temp\ccYEBfsk.s:22685  .debug_str:0000000000005594 .LASF991
C:\Users\stapi\AppData\Local\Temp\ccYEBfsk.s:22189  .debug_str:00000000000045e5 .LASF992
C:\Users\stapi\AppData\Local\Temp\ccYEBfsk.s:20823  .debug_str:0000000000001c7d .LASF993
C:\Users\stapi\AppData\Local\Temp\ccYEBfsk.s:21681  .debug_str:00000000000037a9 .LASF994
C:\Users\stapi\AppData\Local\Temp\ccYEBfsk.s:21149  .debug_str:000000000000268d .LASF995
C:\Users\stapi\AppData\Local\Temp\ccYEBfsk.s:20273  .debug_str:0000000000000cb6 .LASF996
C:\Users\stapi\AppData\Local\Temp\ccYEBfsk.s:20639  .debug_str:0000000000001769 .LASF997
C:\Users\stapi\AppData\Local\Temp\ccYEBfsk.s:22115  .debug_str:00000000000043b5 .LASF998
C:\Users\stapi\AppData\Local\Temp\ccYEBfsk.s:20971  .debug_str:00000000000020f3 .LASF999
C:\Users\stapi\AppData\Local\Temp\ccYEBfsk.s:21591  .debug_str:000000000000350d .LASF1000
C:\Users\stapi\AppData\Local\Temp\ccYEBfsk.s:21723  .debug_str:00000000000038c4 .LASF1001
C:\Users\stapi\AppData\Local\Temp\ccYEBfsk.s:21167  .debug_str:0000000000002716 .LASF1002
C:\Users\stapi\AppData\Local\Temp\ccYEBfsk.s:22311  .debug_str:00000000000049aa .LASF1003
C:\Users\stapi\AppData\Local\Temp\ccYEBfsk.s:21047  .debug_str:000000000000237c .LASF1004
C:\Users\stapi\AppData\Local\Temp\ccYEBfsk.s:22381  .debug_str:0000000000004c36 .LASF1005
C:\Users\stapi\AppData\Local\Temp\ccYEBfsk.s:20973  .debug_str:0000000000002107 .LASF1006
C:\Users\stapi\AppData\Local\Temp\ccYEBfsk.s:21479  .debug_str:0000000000003155 .LASF1007
C:\Users\stapi\AppData\Local\Temp\ccYEBfsk.s:21739  .debug_str:000000000000392a .LASF1008
C:\Users\stapi\AppData\Local\Temp\ccYEBfsk.s:21201  .debug_str:0000000000002806 .LASF1009
C:\Users\stapi\AppData\Local\Temp\ccYEBfsk.s:19869  .debug_str:000000000000014f .LASF1010
C:\Users\stapi\AppData\Local\Temp\ccYEBfsk.s:21337  .debug_str:0000000000002c0a .LASF1011
C:\Users\stapi\AppData\Local\Temp\ccYEBfsk.s:20359  .debug_str:0000000000000f58 .LASF1012
C:\Users\stapi\AppData\Local\Temp\ccYEBfsk.s:21841  .debug_str:0000000000003bfe .LASF1013
C:\Users\stapi\AppData\Local\Temp\ccYEBfsk.s:20797  .debug_str:0000000000001bd9 .LASF1014
C:\Users\stapi\AppData\Local\Temp\ccYEBfsk.s:19849  .debug_str:000000000000009f .LASF1015
C:\Users\stapi\AppData\Local\Temp\ccYEBfsk.s:21749  .debug_str:000000000000396c .LASF1016
C:\Users\stapi\AppData\Local\Temp\ccYEBfsk.s:20213  .debug_str:0000000000000ad1 .LASF1017
C:\Users\stapi\AppData\Local\Temp\ccYEBfsk.s:21703  .debug_str:000000000000383f .LASF1018
C:\Users\stapi\AppData\Local\Temp\ccYEBfsk.s:21117  .debug_str:00000000000025a9 .LASF1019
C:\Users\stapi\AppData\Local\Temp\ccYEBfsk.s:20459  .debug_str:000000000000122f .LASF1020
C:\Users\stapi\AppData\Local\Temp\ccYEBfsk.s:21429  .debug_str:0000000000002ed3 .LASF1021
C:\Users\stapi\AppData\Local\Temp\ccYEBfsk.s:20751  .debug_str:0000000000001a95 .LASF1022
C:\Users\stapi\AppData\Local\Temp\ccYEBfsk.s:20111  .debug_str:0000000000000803 .LASF1023
C:\Users\stapi\AppData\Local\Temp\ccYEBfsk.s:22575  .debug_str:0000000000005258 .LASF1024
C:\Users\stapi\AppData\Local\Temp\ccYEBfsk.s:20303  .debug_str:0000000000000da6 .LASF1025
C:\Users\stapi\AppData\Local\Temp\ccYEBfsk.s:20107  .debug_str:00000000000007e0 .LASF1026
C:\Users\stapi\AppData\Local\Temp\ccYEBfsk.s:22137  .debug_str:000000000000447f .LASF1027
C:\Users\stapi\AppData\Local\Temp\ccYEBfsk.s:19939  .debug_str:000000000000034f .LASF1028
C:\Users\stapi\AppData\Local\Temp\ccYEBfsk.s:21223  .debug_str:0000000000002891 .LASF1029
C:\Users\stapi\AppData\Local\Temp\ccYEBfsk.s:20125  .debug_str:000000000000086e .LASF1030
C:\Users\stapi\AppData\Local\Temp\ccYEBfsk.s:21507  .debug_str:0000000000003252 .LASF1031
C:\Users\stapi\AppData\Local\Temp\ccYEBfsk.s:21905  .debug_str:0000000000003dbe .LASF1032
C:\Users\stapi\AppData\Local\Temp\ccYEBfsk.s:20219  .debug_str:0000000000000b0a .LASF1033
C:\Users\stapi\AppData\Local\Temp\ccYEBfsk.s:22221  .debug_str:00000000000046c5 .LASF1034
C:\Users\stapi\AppData\Local\Temp\ccYEBfsk.s:20669  .debug_str:000000000000184f .LASF1035
C:\Users\stapi\AppData\Local\Temp\ccYEBfsk.s:22147  .debug_str:00000000000044d0 .LASF1036
C:\Users\stapi\AppData\Local\Temp\ccYEBfsk.s:21051  .debug_str:0000000000002390 .LASF1037
C:\Users\stapi\AppData\Local\Temp\ccYEBfsk.s:22277  .debug_str:00000000000048aa .LASF1038
C:\Users\stapi\AppData\Local\Temp\ccYEBfsk.s:21015  .debug_str:0000000000002259 .LASF1039
C:\Users\stapi\AppData\Local\Temp\ccYEBfsk.s:21031  .debug_str:00000000000022ef .LASF1040
C:\Users\stapi\AppData\Local\Temp\ccYEBfsk.s:21275  .debug_str:0000000000002a42 .LASF1041
C:\Users\stapi\AppData\Local\Temp\ccYEBfsk.s:21929  .debug_str:0000000000003e45 .LASF1042
C:\Users\stapi\AppData\Local\Temp\ccYEBfsk.s:22163  .debug_str:000000000000451f .LASF1043
C:\Users\stapi\AppData\Local\Temp\ccYEBfsk.s:22251  .debug_str:00000000000047db .LASF1044
C:\Users\stapi\AppData\Local\Temp\ccYEBfsk.s:20711  .debug_str:0000000000001997 .LASF1045
C:\Users\stapi\AppData\Local\Temp\ccYEBfsk.s:20555  .debug_str:000000000000151a .LASF1046
C:\Users\stapi\AppData\Local\Temp\ccYEBfsk.s:20613  .debug_str:00000000000016a0 .LASF1047
C:\Users\stapi\AppData\Local\Temp\ccYEBfsk.s:20177  .debug_str:00000000000009d4 .LASF1048
C:\Users\stapi\AppData\Local\Temp\ccYEBfsk.s:21491  .debug_str:00000000000031cf .LASF1049
C:\Users\stapi\AppData\Local\Temp\ccYEBfsk.s:21179  .debug_str:000000000000275e .LASF1050
C:\Users\stapi\AppData\Local\Temp\ccYEBfsk.s:19915  .debug_str:00000000000002a7 .LASF1051
C:\Users\stapi\AppData\Local\Temp\ccYEBfsk.s:20509  .debug_str:00000000000013b0 .LASF1052
C:\Users\stapi\AppData\Local\Temp\ccYEBfsk.s:22231  .debug_str:000000000000471c .LASF1053
C:\Users\stapi\AppData\Local\Temp\ccYEBfsk.s:22245  .debug_str:00000000000047a3 .LASF1054
C:\Users\stapi\AppData\Local\Temp\ccYEBfsk.s:20475  .debug_str:00000000000012b2 .LASF1055
C:\Users\stapi\AppData\Local\Temp\ccYEBfsk.s:19827  .debug_str:0000000000000005 .LASF1056
C:\Users\stapi\AppData\Local\Temp\ccYEBfsk.s:20989  .debug_str:000000000000216f .LASF1057
C:\Users\stapi\AppData\Local\Temp\ccYEBfsk.s:21251  .debug_str:000000000000295f .LASF1058
C:\Users\stapi\AppData\Local\Temp\ccYEBfsk.s:20707  .debug_str:000000000000196e .LASF1059
C:\Users\stapi\AppData\Local\Temp\ccYEBfsk.s:21221  .debug_str:000000000000287f .LASF1060
C:\Users\stapi\AppData\Local\Temp\ccYEBfsk.s:22413  .debug_str:0000000000004d1b .LASF1061
C:\Users\stapi\AppData\Local\Temp\ccYEBfsk.s:20819  .debug_str:0000000000001c6b .LASF1062
C:\Users\stapi\AppData\Local\Temp\ccYEBfsk.s:21979  .debug_str:0000000000003fd9 .LASF1063
C:\Users\stapi\AppData\Local\Temp\ccYEBfsk.s:22601  .debug_str:000000000000532c .LASF1064
C:\Users\stapi\AppData\Local\Temp\ccYEBfsk.s:21213  .debug_str:000000000000284c .LASF1065
C:\Users\stapi\AppData\Local\Temp\ccYEBfsk.s:20949  .debug_str:0000000000002054 .LASF1066
C:\Users\stapi\AppData\Local\Temp\ccYEBfsk.s:22471  .debug_str:0000000000004ee5 .LASF1067
C:\Users\stapi\AppData\Local\Temp\ccYEBfsk.s:20977  .debug_str:0000000000002121 .LASF1068
C:\Users\stapi\AppData\Local\Temp\ccYEBfsk.s:20933  .debug_str:0000000000001fd1 .LASF1069
C:\Users\stapi\AppData\Local\Temp\ccYEBfsk.s:20059  .debug_str:00000000000006b3 .LASF1070
C:\Users\stapi\AppData\Local\Temp\ccYEBfsk.s:22217  .debug_str:00000000000046ae .LASF1071
C:\Users\stapi\AppData\Local\Temp\ccYEBfsk.s:20573  .debug_str:0000000000001592 .LASF1072
C:\Users\stapi\AppData\Local\Temp\ccYEBfsk.s:20301  .debug_str:0000000000000d89 .LASF1073
C:\Users\stapi\AppData\Local\Temp\ccYEBfsk.s:22607  .debug_str:0000000000005356 .LASF1074
C:\Users\stapi\AppData\Local\Temp\ccYEBfsk.s:21947  .debug_str:0000000000003ec9 .LASF1075
C:\Users\stapi\AppData\Local\Temp\ccYEBfsk.s:20485  .debug_str:00000000000012f2 .LASF1076
C:\Users\stapi\AppData\Local\Temp\ccYEBfsk.s:21753  .debug_str:0000000000003987 .LASF1077
C:\Users\stapi\AppData\Local\Temp\ccYEBfsk.s:22585  .debug_str:00000000000052a1 .LASF1078
C:\Users\stapi\AppData\Local\Temp\ccYEBfsk.s:22537  .debug_str:000000000000513b .LASF1079
C:\Users\stapi\AppData\Local\Temp\ccYEBfsk.s:20461  .debug_str:0000000000001244 .LASF1080
C:\Users\stapi\AppData\Local\Temp\ccYEBfsk.s:20053  .debug_str:000000000000067b .LASF1081
C:\Users\stapi\AppData\Local\Temp\ccYEBfsk.s:20299  .debug_str:0000000000000d6f .LASF1082
C:\Users\stapi\AppData\Local\Temp\ccYEBfsk.s:21353  .debug_str:0000000000002c6e .LASF1083
C:\Users\stapi\AppData\Local\Temp\ccYEBfsk.s:22527  .debug_str:0000000000005102 .LASF1084
C:\Users\stapi\AppData\Local\Temp\ccYEBfsk.s:21819  .debug_str:0000000000003b70 .LASF1085
C:\Users\stapi\AppData\Local\Temp\ccYEBfsk.s:21351  .debug_str:0000000000002c5f .LASF1086
C:\Users\stapi\AppData\Local\Temp\ccYEBfsk.s:21385  .debug_str:0000000000002d7f .LASF1087
C:\Users\stapi\AppData\Local\Temp\ccYEBfsk.s:22131  .debug_str:0000000000004456 .LASF1088
C:\Users\stapi\AppData\Local\Temp\ccYEBfsk.s:22081  .debug_str:00000000000042b1 .LASF1089
C:\Users\stapi\AppData\Local\Temp\ccYEBfsk.s:22343  .debug_str:0000000000004b0d .LASF1090
C:\Users\stapi\AppData\Local\Temp\ccYEBfsk.s:21655  .debug_str:0000000000003708 .LASF1091
C:\Users\stapi\AppData\Local\Temp\ccYEBfsk.s:20487  .debug_str:0000000000001306 .LASF1092
C:\Users\stapi\AppData\Local\Temp\ccYEBfsk.s:20521  .debug_str:0000000000001424 .LASF1093
C:\Users\stapi\AppData\Local\Temp\ccYEBfsk.s:21185  .debug_str:000000000000278a .LASF1094
C:\Users\stapi\AppData\Local\Temp\ccYEBfsk.s:22417  .debug_str:0000000000004d3e .LASF1095
C:\Users\stapi\AppData\Local\Temp\ccYEBfsk.s:21355  .debug_str:0000000000002c8c .LASF1096
C:\Users\stapi\AppData\Local\Temp\ccYEBfsk.s:22583  .debug_str:0000000000005297 .LASF1097
C:\Users\stapi\AppData\Local\Temp\ccYEBfsk.s:20715  .debug_str:00000000000019ba .LASF1098
C:\Users\stapi\AppData\Local\Temp\ccYEBfsk.s:22615  .debug_str:0000000000005386 .LASF1099
C:\Users\stapi\AppData\Local\Temp\ccYEBfsk.s:21615  .debug_str:00000000000035c2 .LASF1100
C:\Users\stapi\AppData\Local\Temp\ccYEBfsk.s:22489  .debug_str:0000000000004f7a .LASF1101
C:\Users\stapi\AppData\Local\Temp\ccYEBfsk.s:20003  .debug_str:0000000000000521 .LASF1102
C:\Users\stapi\AppData\Local\Temp\ccYEBfsk.s:20239  .debug_str:0000000000000bae .LASF1103
C:\Users\stapi\AppData\Local\Temp\ccYEBfsk.s:21037  .debug_str:0000000000002322 .LASF1104
C:\Users\stapi\AppData\Local\Temp\ccYEBfsk.s:21953  .debug_str:0000000000003f04 .LASF1105
C:\Users\stapi\AppData\Local\Temp\ccYEBfsk.s:20025  .debug_str:00000000000005af .LASF1106
C:\Users\stapi\AppData\Local\Temp\ccYEBfsk.s:22101  .debug_str:0000000000004336 .LASF1107
C:\Users\stapi\AppData\Local\Temp\ccYEBfsk.s:20317  .debug_str:0000000000000e03 .LASF1108
C:\Users\stapi\AppData\Local\Temp\ccYEBfsk.s:22571  .debug_str:0000000000005235 .LASF1109
C:\Users\stapi\AppData\Local\Temp\ccYEBfsk.s:21831  .debug_str:0000000000003bb9 .LASF1110
C:\Users\stapi\AppData\Local\Temp\ccYEBfsk.s:21945  .debug_str:0000000000003eb7 .LASF1111
C:\Users\stapi\AppData\Local\Temp\ccYEBfsk.s:21691  .debug_str:00000000000037ec .LASF1112
C:\Users\stapi\AppData\Local\Temp\ccYEBfsk.s:22639  .debug_str:0000000000005445 .LASF1113
C:\Users\stapi\AppData\Local\Temp\ccYEBfsk.s:20375  .debug_str:0000000000000fd8 .LASF1114
C:\Users\stapi\AppData\Local\Temp\ccYEBfsk.s:22111  .debug_str:000000000000438b .LASF1115
C:\Users\stapi\AppData\Local\Temp\ccYEBfsk.s:22623  .debug_str:00000000000053cf .LASF1116
C:\Users\stapi\AppData\Local\Temp\ccYEBfsk.s:21867  .debug_str:0000000000003cb2 .LASF1117
C:\Users\stapi\AppData\Local\Temp\ccYEBfsk.s:22449  .debug_str:0000000000004e33 .LASF1118
C:\Users\stapi\AppData\Local\Temp\ccYEBfsk.s:20497  .debug_str:0000000000001352 .LASF1119
C:\Users\stapi\AppData\Local\Temp\ccYEBfsk.s:22043  .debug_str:0000000000004192 .LASF1120
C:\Users\stapi\AppData\Local\Temp\ccYEBfsk.s:22333  .debug_str:0000000000004abc .LASF1121
C:\Users\stapi\AppData\Local\Temp\ccYEBfsk.s:22511  .debug_str:000000000000509c .LASF1122
C:\Users\stapi\AppData\Local\Temp\ccYEBfsk.s:22237  .debug_str:000000000000476a .LASF1123
C:\Users\stapi\AppData\Local\Temp\ccYEBfsk.s:21109  .debug_str:0000000000002567 .LASF1124
C:\Users\stapi\AppData\Local\Temp\ccYEBfsk.s:21557  .debug_str:00000000000033e4 .LASF1125
C:\Users\stapi\AppData\Local\Temp\ccYEBfsk.s:22291  .debug_str:00000000000048fd .LASF1126
C:\Users\stapi\AppData\Local\Temp\ccYEBfsk.s:19859  .debug_str:00000000000000fb .LASF1127
C:\Users\stapi\AppData\Local\Temp\ccYEBfsk.s:21191  .debug_str:00000000000027ba .LASF1128
C:\Users\stapi\AppData\Local\Temp\ccYEBfsk.s:22665  .debug_str:00000000000054f3 .LASF1129
C:\Users\stapi\AppData\Local\Temp\ccYEBfsk.s:20191  .debug_str:0000000000000a37 .LASF1130
C:\Users\stapi\AppData\Local\Temp\ccYEBfsk.s:21675  .debug_str:0000000000003787 .LASF1131
C:\Users\stapi\AppData\Local\Temp\ccYEBfsk.s:20559  .debug_str:0000000000001533 .LASF1132
C:\Users\stapi\AppData\Local\Temp\ccYEBfsk.s:20807  .debug_str:0000000000001c16 .LASF1133
C:\Users\stapi\AppData\Local\Temp\ccYEBfsk.s:21987  .debug_str:0000000000003ffc .LASF1134
C:\Users\stapi\AppData\Local\Temp\ccYEBfsk.s:22507  .debug_str:0000000000005077 .LASF1135
C:\Users\stapi\AppData\Local\Temp\ccYEBfsk.s:21817  .debug_str:0000000000003b5f .LASF1136
C:\Users\stapi\AppData\Local\Temp\ccYEBfsk.s:21055  .debug_str:00000000000023a5 .LASF1137
C:\Users\stapi\AppData\Local\Temp\ccYEBfsk.s:22663  .debug_str:00000000000054ee .LASF1138
C:\Users\stapi\AppData\Local\Temp\ccYEBfsk.s:21123  .debug_str:00000000000025d5 .LASF1139
C:\Users\stapi\AppData\Local\Temp\ccYEBfsk.s:20417  .debug_str:0000000000001104 .LASF1140
C:\Users\stapi\AppData\Local\Temp\ccYEBfsk.s:20425  .debug_str:0000000000001130 .LASF1141
C:\Users\stapi\AppData\Local\Temp\ccYEBfsk.s:21273  .debug_str:0000000000002a2f .LASF1142
C:\Users\stapi\AppData\Local\Temp\ccYEBfsk.s:20423  .debug_str:0000000000001126 .LASF1143
C:\Users\stapi\AppData\Local\Temp\ccYEBfsk.s:20953  .debug_str:000000000000207e .LASF1144
C:\Users\stapi\AppData\Local\Temp\ccYEBfsk.s:20507  .debug_str:0000000000001399 .LASF1145
C:\Users\stapi\AppData\Local\Temp\ccYEBfsk.s:21335  .debug_str:0000000000002bfb .LASF1146
C:\Users\stapi\AppData\Local\Temp\ccYEBfsk.s:20199  .debug_str:0000000000000a67 .LASF1147
C:\Users\stapi\AppData\Local\Temp\ccYEBfsk.s:21567  .debug_str:0000000000003454 .LASF1148
C:\Users\stapi\AppData\Local\Temp\ccYEBfsk.s:20717  .debug_str:00000000000019cb .LASF1149
C:\Users\stapi\AppData\Local\Temp\ccYEBfsk.s:22451  .debug_str:0000000000004e4c .LASF1150
C:\Users\stapi\AppData\Local\Temp\ccYEBfsk.s:21195  .debug_str:00000000000027de .LASF1151
C:\Users\stapi\AppData\Local\Temp\ccYEBfsk.s:20985  .debug_str:0000000000002154 .LASF1152
C:\Users\stapi\AppData\Local\Temp\ccYEBfsk.s:20793  .debug_str:0000000000001bb7 .LASF1153
C:\Users\stapi\AppData\Local\Temp\ccYEBfsk.s:21021  .debug_str:0000000000002281 .LASF1154
C:\Users\stapi\AppData\Local\Temp\ccYEBfsk.s:20839  .debug_str:0000000000001d0a .LASF1155
C:\Users\stapi\AppData\Local\Temp\ccYEBfsk.s:22447  .debug_str:0000000000004e28 .LASF1156
C:\Users\stapi\AppData\Local\Temp\ccYEBfsk.s:20987  .debug_str:000000000000215f .LASF1157
C:\Users\stapi\AppData\Local\Temp\ccYEBfsk.s:21699  .debug_str:000000000000381f .LASF1158
C:\Users\stapi\AppData\Local\Temp\ccYEBfsk.s:22487  .debug_str:0000000000004f68 .LASF1159
C:\Users\stapi\AppData\Local\Temp\ccYEBfsk.s:20777  .debug_str:0000000000001b3d .LASF1160
C:\Users\stapi\AppData\Local\Temp\ccYEBfsk.s:22411  .debug_str:0000000000004d02 .LASF1161
C:\Users\stapi\AppData\Local\Temp\ccYEBfsk.s:21627  .debug_str:0000000000003619 .LASF1162
C:\Users\stapi\AppData\Local\Temp\ccYEBfsk.s:22271  .debug_str:0000000000004877 .LASF1163
C:\Users\stapi\AppData\Local\Temp\ccYEBfsk.s:20549  .debug_str:00000000000014e9 .LASF1164
C:\Users\stapi\AppData\Local\Temp\ccYEBfsk.s:21027  .debug_str:00000000000022c1 .LASF1165
C:\Users\stapi\AppData\Local\Temp\ccYEBfsk.s:22039  .debug_str:0000000000004172 .LASF1166
C:\Users\stapi\AppData\Local\Temp\ccYEBfsk.s:20673  .debug_str:0000000000001877 .LASF1167
C:\Users\stapi\AppData\Local\Temp\ccYEBfsk.s:20855  .debug_str:0000000000001d6c .LASF1168
C:\Users\stapi\AppData\Local\Temp\ccYEBfsk.s:20157  .debug_str:000000000000093f .LASF1169
C:\Users\stapi\AppData\Local\Temp\ccYEBfsk.s:20679  .debug_str:00000000000018a8 .LASF1170
C:\Users\stapi\AppData\Local\Temp\ccYEBfsk.s:21713  .debug_str:0000000000003883 .LASF1171
C:\Users\stapi\AppData\Local\Temp\ccYEBfsk.s:21903  .debug_str:0000000000003db1 .LASF1172
C:\Users\stapi\AppData\Local\Temp\ccYEBfsk.s:21379  .debug_str:0000000000002d4e .LASF1173
C:\Users\stapi\AppData\Local\Temp\ccYEBfsk.s:21417  .debug_str:0000000000002e6b .LASF1174
C:\Users\stapi\AppData\Local\Temp\ccYEBfsk.s:21975  .debug_str:0000000000003fc6 .LASF1175
C:\Users\stapi\AppData\Local\Temp\ccYEBfsk.s:22191  .debug_str:00000000000045f1 .LASF1176
C:\Users\stapi\AppData\Local\Temp\ccYEBfsk.s:21697  .debug_str:0000000000003812 .LASF1177
C:\Users\stapi\AppData\Local\Temp\ccYEBfsk.s:21061  .debug_str:00000000000023d0 .LASF1178
C:\Users\stapi\AppData\Local\Temp\ccYEBfsk.s:20131  .debug_str:0000000000000899 .LASF1179
C:\Users\stapi\AppData\Local\Temp\ccYEBfsk.s:21097  .debug_str:000000000000250a .LASF1180
C:\Users\stapi\AppData\Local\Temp\ccYEBfsk.s:20399  .debug_str:000000000000109a .LASF1181
C:\Users\stapi\AppData\Local\Temp\ccYEBfsk.s:21767  .debug_str:00000000000039fa .LASF1182
C:\Users\stapi\AppData\Local\Temp\ccYEBfsk.s:20077  .debug_str:0000000000000704 .LASF1183
C:\Users\stapi\AppData\Local\Temp\ccYEBfsk.s:20451  .debug_str:00000000000011fd .LASF1184
C:\Users\stapi\AppData\Local\Temp\ccYEBfsk.s:20275  .debug_str:0000000000000cc4 .LASF1185
C:\Users\stapi\AppData\Local\Temp\ccYEBfsk.s:21437  .debug_str:0000000000002ff4 .LASF1186
C:\Users\stapi\AppData\Local\Temp\ccYEBfsk.s:22493  .debug_str:0000000000004f8a .LASF1187
C:\Users\stapi\AppData\Local\Temp\ccYEBfsk.s:22339  .debug_str:0000000000004ade .LASF1188
C:\Users\stapi\AppData\Local\Temp\ccYEBfsk.s:20143  .debug_str:00000000000008de .LASF1189
C:\Users\stapi\AppData\Local\Temp\ccYEBfsk.s:22025  .debug_str:0000000000004122 .LASF1190
C:\Users\stapi\AppData\Local\Temp\ccYEBfsk.s:21461  .debug_str:00000000000030c2 .LASF1191
C:\Users\stapi\AppData\Local\Temp\ccYEBfsk.s:20923  .debug_str:0000000000001f88 .LASF1192
C:\Users\stapi\AppData\Local\Temp\ccYEBfsk.s:20895  .debug_str:0000000000001eb3 .LASF1193
C:\Users\stapi\AppData\Local\Temp\ccYEBfsk.s:20101  .debug_str:00000000000007b0 .LASF1194
C:\Users\stapi\AppData\Local\Temp\ccYEBfsk.s:21175  .debug_str:0000000000002744 .LASF1195
C:\Users\stapi\AppData\Local\Temp\ccYEBfsk.s:22325  .debug_str:00000000000049f7 .LASF1196
C:\Users\stapi\AppData\Local\Temp\ccYEBfsk.s:21667  .debug_str:0000000000003753 .LASF1197
C:\Users\stapi\AppData\Local\Temp\ccYEBfsk.s:20315  .debug_str:0000000000000df0 .LASF1198
C:\Users\stapi\AppData\Local\Temp\ccYEBfsk.s:21835  .debug_str:0000000000003bdc .LASF1199
C:\Users\stapi\AppData\Local\Temp\ccYEBfsk.s:19831  .debug_str:0000000000000030 .LASF1200
C:\Users\stapi\AppData\Local\Temp\ccYEBfsk.s:21083  .debug_str:0000000000002492 .LASF1201
C:\Users\stapi\AppData\Local\Temp\ccYEBfsk.s:21095  .debug_str:00000000000024f3 .LASF1202
C:\Users\stapi\AppData\Local\Temp\ccYEBfsk.s:21513  .debug_str:0000000000003275 .LASF1203
C:\Users\stapi\AppData\Local\Temp\ccYEBfsk.s:19971  .debug_str:0000000000000436 .LASF1204
C:\Users\stapi\AppData\Local\Temp\ccYEBfsk.s:19965  .debug_str:0000000000000401 .LASF1205
C:\Users\stapi\AppData\Local\Temp\ccYEBfsk.s:20493  .debug_str:0000000000001333 .LASF1206
C:\Users\stapi\AppData\Local\Temp\ccYEBfsk.s:20223  .debug_str:0000000000000b27 .LASF1207
C:\Users\stapi\AppData\Local\Temp\ccYEBfsk.s:20817  .debug_str:0000000000001c54 .LASF1208
C:\Users\stapi\AppData\Local\Temp\ccYEBfsk.s:19931  .debug_str:000000000000031e .LASF1209
C:\Users\stapi\AppData\Local\Temp\ccYEBfsk.s:20429  .debug_str:000000000000114b .LASF1210
C:\Users\stapi\AppData\Local\Temp\ccYEBfsk.s:21137  .debug_str:000000000000263d .LASF1211
C:\Users\stapi\AppData\Local\Temp\ccYEBfsk.s:20693  .debug_str:000000000000190a .LASF1212
C:\Users\stapi\AppData\Local\Temp\ccYEBfsk.s:20229  .debug_str:0000000000000b69 .LASF1213
C:\Users\stapi\AppData\Local\Temp\ccYEBfsk.s:21233  .debug_str:00000000000028da .LASF1214
C:\Users\stapi\AppData\Local\Temp\ccYEBfsk.s:22201  .debug_str:0000000000004646 .LASF1215
C:\Users\stapi\AppData\Local\Temp\ccYEBfsk.s:21853  .debug_str:0000000000003c59 .LASF1216
C:\Users\stapi\AppData\Local\Temp\ccYEBfsk.s:22171  .debug_str:0000000000004566 .LASF1217
C:\Users\stapi\AppData\Local\Temp\ccYEBfsk.s:19985  .debug_str:00000000000004aa .LASF1218
C:\Users\stapi\AppData\Local\Temp\ccYEBfsk.s:21063  .debug_str:00000000000023e0 .LASF1219
C:\Users\stapi\AppData\Local\Temp\ccYEBfsk.s:20615  .debug_str:00000000000016b5 .LASF1220
C:\Users\stapi\AppData\Local\Temp\ccYEBfsk.s:21011  .debug_str:0000000000002233 .LASF1221
C:\Users\stapi\AppData\Local\Temp\ccYEBfsk.s:21007  .debug_str:000000000000220e .LASF1222
C:\Users\stapi\AppData\Local\Temp\ccYEBfsk.s:22327  .debug_str:0000000000004a0c .LASF1223
C:\Users\stapi\AppData\Local\Temp\ccYEBfsk.s:22525  .debug_str:00000000000050f9 .LASF1224
C:\Users\stapi\AppData\Local\Temp\ccYEBfsk.s:21941  .debug_str:0000000000003ea1 .LASF1225
C:\Users\stapi\AppData\Local\Temp\ccYEBfsk.s:21407  .debug_str:0000000000002e2a .LASF1226
C:\Users\stapi\AppData\Local\Temp\ccYEBfsk.s:21771  .debug_str:0000000000003a22 .LASF1227
C:\Users\stapi\AppData\Local\Temp\ccYEBfsk.s:21977  .debug_str:0000000000003fd0 .LASF1228
C:\Users\stapi\AppData\Local\Temp\ccYEBfsk.s:22523  .debug_str:00000000000050ed .LASF1229
C:\Users\stapi\AppData\Local\Temp\ccYEBfsk.s:21215  .debug_str:0000000000002855 .LASF1230
C:\Users\stapi\AppData\Local\Temp\ccYEBfsk.s:20115  .debug_str:000000000000082c .LASF1231
C:\Users\stapi\AppData\Local\Temp\ccYEBfsk.s:21943  .debug_str:0000000000003ea9 .LASF1232
C:\Users\stapi\AppData\Local\Temp\ccYEBfsk.s:22175  .debug_str:0000000000004587 .LASF1233
C:\Users\stapi\AppData\Local\Temp\ccYEBfsk.s:22227  .debug_str:0000000000004701 .LASF1234
C:\Users\stapi\AppData\Local\Temp\ccYEBfsk.s:20123  .debug_str:0000000000000861 .LASF1235
C:\Users\stapi\AppData\Local\Temp\ccYEBfsk.s:20993  .debug_str:0000000000002192 .LASF1236
C:\Users\stapi\AppData\Local\Temp\ccYEBfsk.s:20765  .debug_str:0000000000001af7 .LASF1237
C:\Users\stapi\AppData\Local\Temp\ccYEBfsk.s:21971  .debug_str:0000000000003fa6 .LASF1238
C:\Users\stapi\AppData\Local\Temp\ccYEBfsk.s:22371  .debug_str:0000000000004bcf .LASF1239
C:\Users\stapi\AppData\Local\Temp\ccYEBfsk.s:21143  .debug_str:0000000000002660 .LASF1240
C:\Users\stapi\AppData\Local\Temp\ccYEBfsk.s:20845  .debug_str:0000000000001d30 .LASF1241
C:\Users\stapi\AppData\Local\Temp\ccYEBfsk.s:21759  .debug_str:00000000000039bd .LASF1242
C:\Users\stapi\AppData\Local\Temp\ccYEBfsk.s:21859  .debug_str:0000000000003c82 .LASF1243
C:\Users\stapi\AppData\Local\Temp\ccYEBfsk.s:22279  .debug_str:00000000000048b3 .LASF1244
C:\Users\stapi\AppData\Local\Temp\ccYEBfsk.s:19993  .debug_str:00000000000004dc .LASF1245
C:\Users\stapi\AppData\Local\Temp\ccYEBfsk.s:22009  .debug_str:00000000000040a5 .LASF1246
C:\Users\stapi\AppData\Local\Temp\ccYEBfsk.s:22521  .debug_str:00000000000050e4 .LASF1247
C:\Users\stapi\AppData\Local\Temp\ccYEBfsk.s:20567  .debug_str:000000000000156e .LASF1248
C:\Users\stapi\AppData\Local\Temp\ccYEBfsk.s:20221  .debug_str:0000000000000b16 .LASF1249
C:\Users\stapi\AppData\Local\Temp\ccYEBfsk.s:22281  .debug_str:00000000000048be .LASF1250
C:\Users\stapi\AppData\Local\Temp\ccYEBfsk.s:20577  .debug_str:00000000000015b9 .LASF1251
C:\Users\stapi\AppData\Local\Temp\ccYEBfsk.s:19887  .debug_str:00000000000001dd .LASF1252
C:\Users\stapi\AppData\Local\Temp\ccYEBfsk.s:20295  .debug_str:0000000000000d57 .LASF1253
C:\Users\stapi\AppData\Local\Temp\ccYEBfsk.s:20233  .debug_str:0000000000000b84 .LASF1254
C:\Users\stapi\AppData\Local\Temp\ccYEBfsk.s:21469  .debug_str:0000000000003114 .LASF1255
C:\Users\stapi\AppData\Local\Temp\ccYEBfsk.s:22187  .debug_str:00000000000045d9 .LASF1256
C:\Users\stapi\AppData\Local\Temp\ccYEBfsk.s:20899  .debug_str:0000000000001ecc .LASF1257
C:\Users\stapi\AppData\Local\Temp\ccYEBfsk.s:21563  .debug_str:0000000000003419 .LASF1258
C:\Users\stapi\AppData\Local\Temp\ccYEBfsk.s:21995  .debug_str:0000000000004031 .LASF1259
C:\Users\stapi\AppData\Local\Temp\ccYEBfsk.s:20511  .debug_str:00000000000013d3 .LASF1260
C:\Users\stapi\AppData\Local\Temp\ccYEBfsk.s:22459  .debug_str:0000000000004e82 .LASF1261
C:\Users\stapi\AppData\Local\Temp\ccYEBfsk.s:20369  .debug_str:0000000000000fa4 .LASF1262
C:\Users\stapi\AppData\Local\Temp\ccYEBfsk.s:21473  .debug_str:0000000000003126 .LASF1263
C:\Users\stapi\AppData\Local\Temp\ccYEBfsk.s:20057  .debug_str:00000000000006a6 .LASF1264
C:\Users\stapi\AppData\Local\Temp\ccYEBfsk.s:20163  .debug_str:000000000000095c .LASF1265
C:\Users\stapi\AppData\Local\Temp\ccYEBfsk.s:20877  .debug_str:0000000000001e18 .LASF1266
C:\Users\stapi\AppData\Local\Temp\ccYEBfsk.s:20593  .debug_str:0000000000001614 .LASF1267
C:\Users\stapi\AppData\Local\Temp\ccYEBfsk.s:21261  .debug_str:00000000000029bb .LASF1268
C:\Users\stapi\AppData\Local\Temp\ccYEBfsk.s:21683  .debug_str:00000000000037b3 .LASF1269
C:\Users\stapi\AppData\Local\Temp\ccYEBfsk.s:22477  .debug_str:0000000000004f16 .LASF1270
C:\Users\stapi\AppData\Local\Temp\ccYEBfsk.s:22263  .debug_str:0000000000004830 .LASF1271
C:\Users\stapi\AppData\Local\Temp\ccYEBfsk.s:21709  .debug_str:0000000000003857 .LASF1272
C:\Users\stapi\AppData\Local\Temp\ccYEBfsk.s:20027  .debug_str:00000000000005b7 .LASF1273
C:\Users\stapi\AppData\Local\Temp\ccYEBfsk.s:20905  .debug_str:0000000000001efd .LASF1274
C:\Users\stapi\AppData\Local\Temp\ccYEBfsk.s:20093  .debug_str:000000000000077f .LASF1275
C:\Users\stapi\AppData\Local\Temp\ccYEBfsk.s:21537  .debug_str:0000000000003361 .LASF1276
C:\Users\stapi\AppData\Local\Temp\ccYEBfsk.s:20545  .debug_str:00000000000014c9 .LASF1277
C:\Users\stapi\AppData\Local\Temp\ccYEBfsk.s:20465  .debug_str:0000000000001269 .LASF1278
C:\Users\stapi\AppData\Local\Temp\ccYEBfsk.s:20453  .debug_str:0000000000001208 .LASF1279
C:\Users\stapi\AppData\Local\Temp\ccYEBfsk.s:20341  .debug_str:0000000000000ed2 .LASF1280
C:\Users\stapi\AppData\Local\Temp\ccYEBfsk.s:22573  .debug_str:0000000000005249 .LASF1281
C:\Users\stapi\AppData\Local\Temp\ccYEBfsk.s:21583  .debug_str:00000000000034c9 .LASF1282
C:\Users\stapi\AppData\Local\Temp\ccYEBfsk.s:21887  .debug_str:0000000000003d39 .LASF1283
C:\Users\stapi\AppData\Local\Temp\ccYEBfsk.s:20325  .debug_str:0000000000000e45 .LASF1284
C:\Users\stapi\AppData\Local\Temp\ccYEBfsk.s:21299  .debug_str:0000000000002af2 .LASF1285
C:\Users\stapi\AppData\Local\Temp\ccYEBfsk.s:22077  .debug_str:000000000000429b .LASF1286
C:\Users\stapi\AppData\Local\Temp\ccYEBfsk.s:21965  .debug_str:0000000000003f78 .LASF1287
C:\Users\stapi\AppData\Local\Temp\ccYEBfsk.s:19847  .debug_str:000000000000008f .LASF1288
C:\Users\stapi\AppData\Local\Temp\ccYEBfsk.s:19973  .debug_str:0000000000000447 .LASF1289
C:\Users\stapi\AppData\Local\Temp\ccYEBfsk.s:20565  .debug_str:000000000000155c .LASF1290
C:\Users\stapi\AppData\Local\Temp\ccYEBfsk.s:22259  .debug_str:0000000000004814 .LASF1291
C:\Users\stapi\AppData\Local\Temp\ccYEBfsk.s:21763  .debug_str:00000000000039ce .LASF1292
C:\Users\stapi\AppData\Local\Temp\ccYEBfsk.s:22145  .debug_str:00000000000044be .LASF1293
C:\Users\stapi\AppData\Local\Temp\ccYEBfsk.s:21829  .debug_str:0000000000003bab .LASF1294
C:\Users\stapi\AppData\Local\Temp\ccYEBfsk.s:21727  .debug_str:00000000000038e1 .LASF1295
C:\Users\stapi\AppData\Local\Temp\ccYEBfsk.s:20587  .debug_str:00000000000015e9 .LASF1296
C:\Users\stapi\AppData\Local\Temp\ccYEBfsk.s:21813  .debug_str:0000000000003b3e .LASF1297
C:\Users\stapi\AppData\Local\Temp\ccYEBfsk.s:22241  .debug_str:0000000000004787 .LASF1298
C:\Users\stapi\AppData\Local\Temp\ccYEBfsk.s:19841  .debug_str:0000000000000070 .LASF1299
C:\Users\stapi\AppData\Local\Temp\ccYEBfsk.s:21425  .debug_str:0000000000002eaa .LASF1300
C:\Users\stapi\AppData\Local\Temp\ccYEBfsk.s:21495  .debug_str:00000000000031f7 .LASF1301
C:\Users\stapi\AppData\Local\Temp\ccYEBfsk.s:21257  .debug_str:000000000000299b .LASF1302
C:\Users\stapi\AppData\Local\Temp\ccYEBfsk.s:21925  .debug_str:0000000000003e36 .LASF1303
C:\Users\stapi\AppData\Local\Temp\ccYEBfsk.s:20763  .debug_str:0000000000001aef .LASF1304
C:\Users\stapi\AppData\Local\Temp\ccYEBfsk.s:20017  .debug_str:0000000000000578 .LASF1305
C:\Users\stapi\AppData\Local\Temp\ccYEBfsk.s:22091  .debug_str:0000000000004306 .LASF1306
C:\Users\stapi\AppData\Local\Temp\ccYEBfsk.s:21207  .debug_str:0000000000002824 .LASF1307
C:\Users\stapi\AppData\Local\Temp\ccYEBfsk.s:20873  .debug_str:0000000000001df1 .LASF1308
C:\Users\stapi\AppData\Local\Temp\ccYEBfsk.s:21049  .debug_str:0000000000002384 .LASF1309
C:\Users\stapi\AppData\Local\Temp\ccYEBfsk.s:20675  .debug_str:0000000000001887 .LASF1310
C:\Users\stapi\AppData\Local\Temp\ccYEBfsk.s:20917  .debug_str:0000000000001f5b .LASF1311
C:\Users\stapi\AppData\Local\Temp\ccYEBfsk.s:22003  .debug_str:000000000000407d .LASF1312
C:\Users\stapi\AppData\Local\Temp\ccYEBfsk.s:20795  .debug_str:0000000000001bd0 .LASF1313
C:\Users\stapi\AppData\Local\Temp\ccYEBfsk.s:21635  .debug_str:000000000000366e .LASF1314
C:\Users\stapi\AppData\Local\Temp\ccYEBfsk.s:19967  .debug_str:0000000000000412 .LASF1315
C:\Users\stapi\AppData\Local\Temp\ccYEBfsk.s:21313  .debug_str:0000000000002b62 .LASF1316
C:\Users\stapi\AppData\Local\Temp\ccYEBfsk.s:21801  .debug_str:0000000000003aed .LASF1317
C:\Users\stapi\AppData\Local\Temp\ccYEBfsk.s:20551  .debug_str:0000000000001500 .LASF1318
C:\Users\stapi\AppData\Local\Temp\ccYEBfsk.s:20351  .debug_str:0000000000000f1d .LASF1319
C:\Users\stapi\AppData\Local\Temp\ccYEBfsk.s:21041  .debug_str:0000000000002349 .LASF1320
C:\Users\stapi\AppData\Local\Temp\ccYEBfsk.s:22483  .debug_str:0000000000004f4a .LASF1321
C:\Users\stapi\AppData\Local\Temp\ccYEBfsk.s:20689  .debug_str:00000000000018fa .LASF1322
C:\Users\stapi\AppData\Local\Temp\ccYEBfsk.s:22225  .debug_str:00000000000046f6 .LASF1323
C:\Users\stapi\AppData\Local\Temp\ccYEBfsk.s:21613  .debug_str:00000000000035b3 .LASF1324
C:\Users\stapi\AppData\Local\Temp\ccYEBfsk.s:21879  .debug_str:0000000000003d12 .LASF1325
C:\Users\stapi\AppData\Local\Temp\ccYEBfsk.s:21949  .debug_str:0000000000003ed9 .LASF1326
C:\Users\stapi\AppData\Local\Temp\ccYEBfsk.s:21463  .debug_str:00000000000030db .LASF1327
C:\Users\stapi\AppData\Local\Temp\ccYEBfsk.s:21725  .debug_str:00000000000038cd .LASF1328
C:\Users\stapi\AppData\Local\Temp\ccYEBfsk.s:20113  .debug_str:0000000000000816 .LASF1329
C:\Users\stapi\AppData\Local\Temp\ccYEBfsk.s:20695  .debug_str:000000000000191b .LASF1330
C:\Users\stapi\AppData\Local\Temp\ccYEBfsk.s:20947  .debug_str:0000000000002042 .LASF1331
C:\Users\stapi\AppData\Local\Temp\ccYEBfsk.s:20681  .debug_str:00000000000018bb .LASF1332
C:\Users\stapi\AppData\Local\Temp\ccYEBfsk.s:21529  .debug_str:0000000000003312 .LASF1333
C:\Users\stapi\AppData\Local\Temp\ccYEBfsk.s:22419  .debug_str:0000000000004d52 .LASF1334
C:\Users\stapi\AppData\Local\Temp\ccYEBfsk.s:21383  .debug_str:0000000000002d77 .LASF1335
C:\Users\stapi\AppData\Local\Temp\ccYEBfsk.s:21873  .debug_str:0000000000003ce1 .LASF1336
C:\Users\stapi\AppData\Local\Temp\ccYEBfsk.s:20649  .debug_str:00000000000017b4 .LASF1337
C:\Users\stapi\AppData\Local\Temp\ccYEBfsk.s:20403  .debug_str:00000000000010ae .LASF1338
C:\Users\stapi\AppData\Local\Temp\ccYEBfsk.s:22049  .debug_str:00000000000041ce .LASF1339
C:\Users\stapi\AppData\Local\Temp\ccYEBfsk.s:22633  .debug_str:000000000000540b .LASF1340
C:\Users\stapi\AppData\Local\Temp\ccYEBfsk.s:22599  .debug_str:000000000000531c .LASF1341
C:\Users\stapi\AppData\Local\Temp\ccYEBfsk.s:21637  .debug_str:000000000000367e .LASF1342
C:\Users\stapi\AppData\Local\Temp\ccYEBfsk.s:20269  .debug_str:0000000000000c9d .LASF1343
C:\Users\stapi\AppData\Local\Temp\ccYEBfsk.s:20671  .debug_str:0000000000001864 .LASF1344
C:\Users\stapi\AppData\Local\Temp\ccYEBfsk.s:22273  .debug_str:000000000000488a .LASF1345
C:\Users\stapi\AppData\Local\Temp\ccYEBfsk.s:20721  .debug_str:00000000000019dc .LASF1346
C:\Users\stapi\AppData\Local\Temp\ccYEBfsk.s:20251  .debug_str:0000000000000bf3 .LASF1347
C:\Users\stapi\AppData\Local\Temp\ccYEBfsk.s:22589  .debug_str:00000000000052bf .LASF1348
C:\Users\stapi\AppData\Local\Temp\ccYEBfsk.s:22611  .debug_str:000000000000536d .LASF1349
C:\Users\stapi\AppData\Local\Temp\ccYEBfsk.s:19955  .debug_str:00000000000003cf .LASF1350
C:\Users\stapi\AppData\Local\Temp\ccYEBfsk.s:22075  .debug_str:0000000000004288 .LASF1351
C:\Users\stapi\AppData\Local\Temp\ccYEBfsk.s:20391  .debug_str:0000000000001058 .LASF1352
C:\Users\stapi\AppData\Local\Temp\ccYEBfsk.s:20363  .debug_str:0000000000000f6a .LASF1353
C:\Users\stapi\AppData\Local\Temp\ccYEBfsk.s:20437  .debug_str:0000000000001198 .LASF1354
C:\Users\stapi\AppData\Local\Temp\ccYEBfsk.s:21289  .debug_str:0000000000002aaf .LASF1355
C:\Users\stapi\AppData\Local\Temp\ccYEBfsk.s:21099  .debug_str:0000000000002522 .LASF1356
C:\Users\stapi\AppData\Local\Temp\ccYEBfsk.s:20879  .debug_str:0000000000001e23 .LASF1357
C:\Users\stapi\AppData\Local\Temp\ccYEBfsk.s:19947  .debug_str:0000000000000388 .LASF1358
C:\Users\stapi\AppData\Local\Temp\ccYEBfsk.s:20373  .debug_str:0000000000000fc5 .LASF1359
C:\Users\stapi\AppData\Local\Temp\ccYEBfsk.s:21643  .debug_str:000000000000369b .LASF1360
C:\Users\stapi\AppData\Local\Temp\ccYEBfsk.s:19867  .debug_str:0000000000000143 .LASF1361
C:\Users\stapi\AppData\Local\Temp\ccYEBfsk.s:21843  .debug_str:0000000000003c04 .LASF1362
C:\Users\stapi\AppData\Local\Temp\ccYEBfsk.s:22143  .debug_str:00000000000044a5 .LASF1363
C:\Users\stapi\AppData\Local\Temp\ccYEBfsk.s:22047  .debug_str:00000000000041ba .LASF1364
C:\Users\stapi\AppData\Local\Temp\ccYEBfsk.s:19983  .debug_str:0000000000000490 .LASF1365
C:\Users\stapi\AppData\Local\Temp\ccYEBfsk.s:21889  .debug_str:0000000000003d4b .LASF1366
C:\Users\stapi\AppData\Local\Temp\ccYEBfsk.s:20891  .debug_str:0000000000001e8b .LASF1367
C:\Users\stapi\AppData\Local\Temp\ccYEBfsk.s:20975  .debug_str:0000000000002112 .LASF1368
C:\Users\stapi\AppData\Local\Temp\ccYEBfsk.s:22329  .debug_str:0000000000004a1b .LASF1369
C:\Users\stapi\AppData\Local\Temp\ccYEBfsk.s:22099  .debug_str:000000000000432e .LASF1370
C:\Users\stapi\AppData\Local\Temp\ccYEBfsk.s:21155  .debug_str:00000000000026bb .LASF1371
C:\Users\stapi\AppData\Local\Temp\ccYEBfsk.s:2170   .text.hostapd_hw_skip_mode:0000000000000000 .LFB194
C:\Users\stapi\AppData\Local\Temp\ccYEBfsk.s:2234   .text.hostapd_hw_skip_mode:0000000000000040 .LFE194
C:\Users\stapi\AppData\Local\Temp\ccYEBfsk.s:18615  .debug_loc:0000000000000000 .LLST57
C:\Users\stapi\AppData\Local\Temp\ccYEBfsk.s:18634  .debug_loc:0000000000000034 .LLST58
C:\Users\stapi\AppData\Local\Temp\ccYEBfsk.s:18648  .debug_loc:0000000000000055 .LLST59
C:\Users\stapi\AppData\Local\Temp\ccYEBfsk.s:20309  .debug_str:0000000000000dcb .LASF1372
C:\Users\stapi\AppData\Local\Temp\ccYEBfsk.s:2067   .text.hostapd_hw_get_channel:0000000000000000 .LFB193
C:\Users\stapi\AppData\Local\Temp\ccYEBfsk.s:2163   .text.hostapd_hw_get_channel:0000000000000068 .LFE193
C:\Users\stapi\AppData\Local\Temp\ccYEBfsk.s:21983  .debug_str:0000000000003ff0 .LASF1373
C:\Users\stapi\AppData\Local\Temp\ccYEBfsk.s:18655  .debug_loc:0000000000000068 .LLST52
C:\Users\stapi\AppData\Local\Temp\ccYEBfsk.s:18666  .debug_loc:0000000000000086 .LLST53
C:\Users\stapi\AppData\Local\Temp\ccYEBfsk.s:18685  .debug_loc:00000000000000ba .LLST54
C:\Users\stapi\AppData\Local\Temp\ccYEBfsk.s:18696  .debug_loc:00000000000000d8 .LLST55
C:\Users\stapi\AppData\Local\Temp\ccYEBfsk.s:18707  .debug_loc:00000000000000f6 .LLST56
C:\Users\stapi\AppData\Local\Temp\ccYEBfsk.s:2124   .text.hostapd_hw_get_channel:0000000000000042 .LVL165
C:\Users\stapi\AppData\Local\Temp\ccYEBfsk.s:2153   .text.hostapd_hw_get_channel:0000000000000062 .LVL169
C:\Users\stapi\AppData\Local\Temp\ccYEBfsk.s:22517  .debug_str:00000000000050c6 .LASF1374
C:\Users\stapi\AppData\Local\Temp\ccYEBfsk.s:2048   .text.hostapd_hw_get_freq:0000000000000000 .LFB192
C:\Users\stapi\AppData\Local\Temp\ccYEBfsk.s:2060   .text.hostapd_hw_get_freq:000000000000000e .LFE192
C:\Users\stapi\AppData\Local\Temp\ccYEBfsk.s:18722  .debug_loc:0000000000000112 .LLST50
C:\Users\stapi\AppData\Local\Temp\ccYEBfsk.s:18736  .debug_loc:0000000000000133 .LLST51
C:\Users\stapi\AppData\Local\Temp\ccYEBfsk.s:2058   .text.hostapd_hw_get_freq:000000000000000e .LVL159
C:\Users\stapi\AppData\Local\Temp\ccYEBfsk.s:20283  .debug_str:0000000000000cf9 .LASF1375
C:\Users\stapi\AppData\Local\Temp\ccYEBfsk.s:2019   .text.hostapd_hw_mode_txt:0000000000000000 .LFB191
C:\Users\stapi\AppData\Local\Temp\ccYEBfsk.s:2041   .text.hostapd_hw_mode_txt:0000000000000020 .LFE191
C:\Users\stapi\AppData\Local\Temp\ccYEBfsk.s:18750  .debug_loc:0000000000000154 .LLST49
C:\Users\stapi\AppData\Local\Temp\ccYEBfsk.s:21323  .debug_str:0000000000002bad .LASF1376
C:\Users\stapi\AppData\Local\Temp\ccYEBfsk.s:1793   .text.hostapd_select_hw_mode:0000000000000000 .LFB190
C:\Users\stapi\AppData\Local\Temp\ccYEBfsk.s:2008   .text.hostapd_select_hw_mode:000000000000011c .LFE190
C:\Users\stapi\AppData\Local\Temp\ccYEBfsk.s:18775  .debug_loc:000000000000018e .LLST46
C:\Users\stapi\AppData\Local\Temp\ccYEBfsk.s:18797  .debug_loc:00000000000001c5 .LLST47
C:\Users\stapi\AppData\Local\Temp\ccYEBfsk.s:18809  .debug_loc:00000000000001e4 .LLST48
C:\Users\stapi\AppData\Local\Temp\ccYEBfsk.s:1925   .text.hostapd_select_hw_mode:00000000000000c0 .LVL146
C:\Users\stapi\AppData\Local\Temp\ccYEBfsk.s:1843   .text.hostapd_select_hw_mode:000000000000004c .LVL141
C:\Users\stapi\AppData\Local\Temp\ccYEBfsk.s:1898   .text.hostapd_select_hw_mode:0000000000000098 .LVL144
C:\Users\stapi\AppData\Local\Temp\ccYEBfsk.s:1950   .text.hostapd_select_hw_mode:00000000000000d4 .LVL149
C:\Users\stapi\AppData\Local\Temp\ccYEBfsk.s:1981   .text.hostapd_select_hw_mode:000000000000010c .LVL150
C:\Users\stapi\AppData\Local\Temp\ccYEBfsk.s:20619  .debug_str:00000000000016ea .LASF1377
C:\Users\stapi\AppData\Local\Temp\ccYEBfsk.s:1644   .text.hostapd_acs_completed:0000000000000000 .LFB189
C:\Users\stapi\AppData\Local\Temp\ccYEBfsk.s:1773   .text.hostapd_acs_completed:00000000000000be .LFE189
C:\Users\stapi\AppData\Local\Temp\ccYEBfsk.s:18816  .debug_loc:00000000000001f7 .LLST43
C:\Users\stapi\AppData\Local\Temp\ccYEBfsk.s:18827  .debug_loc:0000000000000215 .LLST44
C:\Users\stapi\AppData\Local\Temp\ccYEBfsk.s:18841  .debug_loc:0000000000000236 .LLST45
C:\Users\stapi\AppData\Local\Temp\ccYEBfsk.s:1666   .text.hostapd_acs_completed:0000000000000016 .LVL127
C:\Users\stapi\AppData\Local\Temp\ccYEBfsk.s:1691   .text.hostapd_acs_completed:0000000000000050 .LVL128
C:\Users\stapi\AppData\Local\Temp\ccYEBfsk.s:1697   .text.hostapd_acs_completed:000000000000005a .LVL129
C:\Users\stapi\AppData\Local\Temp\ccYEBfsk.s:1710   .text.hostapd_acs_completed:000000000000006c .LVL132
C:\Users\stapi\AppData\Local\Temp\ccYEBfsk.s:1721   .text.hostapd_acs_completed:0000000000000080 .LVL134
C:\Users\stapi\AppData\Local\Temp\ccYEBfsk.s:1731   .text.hostapd_acs_completed:0000000000000096 .LVL135
C:\Users\stapi\AppData\Local\Temp\ccYEBfsk.s:1753   .text.hostapd_acs_completed:00000000000000b0 .LVL137
C:\Users\stapi\AppData\Local\Temp\ccYEBfsk.s:20389  .debug_str:000000000000103f .LASF1378
C:\Users\stapi\AppData\Local\Temp\ccYEBfsk.s:21071  .debug_str:0000000000002427 .LASF1381
C:\Users\stapi\AppData\Local\Temp\ccYEBfsk.s:22125  .debug_str:0000000000004405 .LASF1379
C:\Users\stapi\AppData\Local\Temp\ccYEBfsk.s:20087  .debug_str:000000000000075c .LASF1380
C:\Users\stapi\AppData\Local\Temp\ccYEBfsk.s:21475  .debug_str:0000000000003132 .LASF1382
C:\Users\stapi\AppData\Local\Temp\ccYEBfsk.s:19873  .debug_str:0000000000000171 .LASF1383
C:\Users\stapi\AppData\Local\Temp\ccYEBfsk.s:20531  .debug_str:0000000000001461 .LASF1384
C:\Users\stapi\AppData\Local\Temp\ccYEBfsk.s:22473  .debug_str:0000000000004eed .LASF1385
C:\Users\stapi\AppData\Local\Temp\ccYEBfsk.s:21333  .debug_str:0000000000002bf3 .LASF1386
C:\Users\stapi\AppData\Local\Temp\ccYEBfsk.s:22341  .debug_str:0000000000004af1 .LASF1387
C:\Users\stapi\AppData\Local\Temp\ccYEBfsk.s:1505   .text.hostapd_check_he_6ghz_capab:0000000000000000 .LFB182
C:\Users\stapi\AppData\Local\Temp\ccYEBfsk.s:1621   .text.hostapd_check_he_6ghz_capab:000000000000009e .LFE182
C:\Users\stapi\AppData\Local\Temp\ccYEBfsk.s:18868  .debug_loc:0000000000000279 .LLST40
C:\Users\stapi\AppData\Local\Temp\ccYEBfsk.s:21823  .debug_str:0000000000003b8e .LASF1388
C:\Users\stapi\AppData\Local\Temp\ccYEBfsk.s:18894  .debug_loc:00000000000002bb .LLST41
C:\Users\stapi\AppData\Local\Temp\ccYEBfsk.s:18915  .debug_loc:00000000000002e7 .LLST42
C:\Users\stapi\AppData\Local\Temp\ccYEBfsk.s:1545   .text.hostapd_check_he_6ghz_capab:000000000000002a .LVL118
C:\Users\stapi\AppData\Local\Temp\ccYEBfsk.s:1574   .text.hostapd_check_he_6ghz_capab:0000000000000056 .LVL122
C:\Users\stapi\AppData\Local\Temp\ccYEBfsk.s:20431  .debug_str:000000000000115c .LASF1389
C:\Users\stapi\AppData\Local\Temp\ccYEBfsk.s:1427   .text.hostapd_check_edmg_capab:0000000000000000 .LFB181
C:\Users\stapi\AppData\Local\Temp\ccYEBfsk.s:1485   .text.hostapd_check_edmg_capab:0000000000000062 .LFE181
C:\Users\stapi\AppData\Local\Temp\ccYEBfsk.s:18942  .debug_loc:0000000000000327 .LLST37
C:\Users\stapi\AppData\Local\Temp\ccYEBfsk.s:18964  .debug_loc:000000000000035e .LLST38
C:\Users\stapi\AppData\Local\Temp\ccYEBfsk.s:18986  .debug_loc:0000000000000398 .LLST39
C:\Users\stapi\AppData\Local\Temp\ccYEBfsk.s:1455   .text.hostapd_check_edmg_capab:0000000000000026 .LVL108
C:\Users\stapi\AppData\Local\Temp\ccYEBfsk.s:1463   .text.hostapd_check_edmg_capab:0000000000000040 .LVL109
C:\Users\stapi\AppData\Local\Temp\ccYEBfsk.s:1471   .text.hostapd_check_edmg_capab:0000000000000056 .LVL110
C:\Users\stapi\AppData\Local\Temp\ccYEBfsk.s:21025  .debug_str:00000000000022aa .LASF1428
C:\Users\stapi\AppData\Local\Temp\ccYEBfsk.s:20257  .debug_str:0000000000000c35 .LASF1390
C:\Users\stapi\AppData\Local\Temp\ccYEBfsk.s:22127  .debug_str:000000000000441c .LASF1391
C:\Users\stapi\AppData\Local\Temp\ccYEBfsk.s:22621  .debug_str:00000000000053b9 .LASF1392
C:\Users\stapi\AppData\Local\Temp\ccYEBfsk.s:798    .text.hostapd_prepare_rates:0000000000000000 .LFB170
C:\Users\stapi\AppData\Local\Temp\ccYEBfsk.s:1129   .text.hostapd_prepare_rates:00000000000001b4 .LFE170
C:\Users\stapi\AppData\Local\Temp\ccYEBfsk.s:19015  .debug_loc:00000000000003c8 .LLST24
C:\Users\stapi\AppData\Local\Temp\ccYEBfsk.s:19026  .debug_loc:00000000000003e6 .LLST25
C:\Users\stapi\AppData\Local\Temp\ccYEBfsk.s:19037  .debug_loc:0000000000000404 .LLST26
C:\Users\stapi\AppData\Local\Temp\ccYEBfsk.s:19927  .debug_str:0000000000000305 .LASF1393
C:\Users\stapi\AppData\Local\Temp\ccYEBfsk.s:19057  .debug_loc:0000000000000439 .LLST27
C:\Users\stapi\AppData\Local\Temp\ccYEBfsk.s:21249  .debug_str:0000000000002951 .LASF1394
C:\Users\stapi\AppData\Local\Temp\ccYEBfsk.s:21545  .debug_str:0000000000003399 .LASF1395
C:\Users\stapi\AppData\Local\Temp\ccYEBfsk.s:21255  .debug_str:000000000000298d .LASF1396
C:\Users\stapi\AppData\Local\Temp\ccYEBfsk.s:19089  .debug_loc:0000000000000488 .LLST28
C:\Users\stapi\AppData\Local\Temp\ccYEBfsk.s:19100  .debug_loc:00000000000004a6 .LLST31
C:\Users\stapi\AppData\Local\Temp\ccYEBfsk.s:1077   .text.hostapd_prepare_rates:000000000000016e .LVL85
C:\Users\stapi\AppData\Local\Temp\ccYEBfsk.s:1088   .text.hostapd_prepare_rates:0000000000000186 .LVL86
C:\Users\stapi\AppData\Local\Temp\ccYEBfsk.s:1102   .text.hostapd_prepare_rates:00000000000001a2 .LVL88
C:\Users\stapi\AppData\Local\Temp\ccYEBfsk.s:924    .text.hostapd_prepare_rates:00000000000000b4 .LBB97
C:\Users\stapi\AppData\Local\Temp\ccYEBfsk.s:19111  .debug_loc:00000000000004c4 .LLST29
C:\Users\stapi\AppData\Local\Temp\ccYEBfsk.s:19124  .debug_loc:00000000000004e4 .LLST30
C:\Users\stapi\AppData\Local\Temp\ccYEBfsk.s:994    .text.hostapd_prepare_rates:00000000000000fc .LVL81
C:\Users\stapi\AppData\Local\Temp\ccYEBfsk.s:833    .text.hostapd_prepare_rates:0000000000000026 .LVL60
C:\Users\stapi\AppData\Local\Temp\ccYEBfsk.s:840    .text.hostapd_prepare_rates:0000000000000036 .LVL61
C:\Users\stapi\AppData\Local\Temp\ccYEBfsk.s:847    .text.hostapd_prepare_rates:0000000000000046 .LVL62
C:\Users\stapi\AppData\Local\Temp\ccYEBfsk.s:896    .text.hostapd_prepare_rates:0000000000000084 .LVL67
C:\Users\stapi\AppData\Local\Temp\ccYEBfsk.s:901    .text.hostapd_prepare_rates:000000000000008e .LVL68
C:\Users\stapi\AppData\Local\Temp\ccYEBfsk.s:911    .text.hostapd_prepare_rates:00000000000000a0 .LVL69
C:\Users\stapi\AppData\Local\Temp\ccYEBfsk.s:916    .text.hostapd_prepare_rates:00000000000000ac .LVL70
C:\Users\stapi\AppData\Local\Temp\ccYEBfsk.s:942    .text.hostapd_prepare_rates:00000000000000d0 .LVL73
C:\Users\stapi\AppData\Local\Temp\ccYEBfsk.s:1044   .text.hostapd_prepare_rates:0000000000000142 .LVL83
C:\Users\stapi\AppData\Local\Temp\ccYEBfsk.s:22437  .debug_str:0000000000004ddd .LASF1397
C:\Users\stapi\AppData\Local\Temp\ccYEBfsk.s:434    .text.hostapd_get_hw_features:0000000000000000 .LFB169
C:\Users\stapi\AppData\Local\Temp\ccYEBfsk.s:781    .text.hostapd_get_hw_features:0000000000000188 .LFE169
C:\Users\stapi\AppData\Local\Temp\ccYEBfsk.s:19140  .debug_loc:000000000000050e .LLST15
C:\Users\stapi\AppData\Local\Temp\ccYEBfsk.s:19151  .debug_loc:000000000000052c .LLST16
C:\Users\stapi\AppData\Local\Temp\ccYEBfsk.s:19163  .debug_loc:000000000000054b .LLST17
C:\Users\stapi\AppData\Local\Temp\ccYEBfsk.s:20767  .debug_str:0000000000001b07 .LASF1398
C:\Users\stapi\AppData\Local\Temp\ccYEBfsk.s:21881  .debug_str:0000000000003d1c .LASF1399
C:\Users\stapi\AppData\Local\Temp\ccYEBfsk.s:19175  .debug_loc:000000000000056a .LLST18
C:\Users\stapi\AppData\Local\Temp\ccYEBfsk.s:20095  .debug_str:0000000000000793 .LASF1400
C:\Users\stapi\AppData\Local\Temp\ccYEBfsk.s:19182  .debug_loc:000000000000057d .LLST19
C:\Users\stapi\AppData\Local\Temp\ccYEBfsk.s:20621  .debug_str:0000000000001700 .LASF1401
C:\Users\stapi\AppData\Local\Temp\ccYEBfsk.s:19199  .debug_loc:00000000000005a9 .LLST20
C:\Users\stapi\AppData\Local\Temp\ccYEBfsk.s:19214  .debug_loc:00000000000005d2 .LLST21
C:\Users\stapi\AppData\Local\Temp\ccYEBfsk.s:531    .text.hostapd_get_hw_features:000000000000005e .LBB70
C:\Users\stapi\AppData\Local\Temp\ccYEBfsk.s:19226  .debug_loc:00000000000005f1 .LLST22
C:\Users\stapi\AppData\Local\Temp\ccYEBfsk.s:19268  .debug_loc:0000000000000635 .LLST23
C:\Users\stapi\AppData\Local\Temp\ccYEBfsk.s:749    .text.hostapd_get_hw_features:0000000000000162 .LVL54
C:\Users\stapi\AppData\Local\Temp\ccYEBfsk.s:719    .text.hostapd_get_hw_features:0000000000000138 .LVL50
C:\Users\stapi\AppData\Local\Temp\ccYEBfsk.s:473    .text.hostapd_get_hw_features:000000000000001c .LVL32
C:\Users\stapi\AppData\Local\Temp\ccYEBfsk.s:510    .text.hostapd_get_hw_features:0000000000000042 .LVL33
C:\Users\stapi\AppData\Local\Temp\ccYEBfsk.s:543    .text.hostapd_get_hw_features:000000000000006e .LVL35
C:\Users\stapi\AppData\Local\Temp\ccYEBfsk.s:21915  .debug_str:0000000000003df2 .LASF1402
C:\Users\stapi\AppData\Local\Temp\ccYEBfsk.s:19919  .debug_str:00000000000002c5 .LASF1403
C:\Users\stapi\AppData\Local\Temp\ccYEBfsk.s:20331  .debug_str:0000000000000e73 .LASF1429
C:\Users\stapi\AppData\Local\Temp\ccYEBfsk.s:20415  .debug_str:00000000000010fb .LASF1404
C:\Users\stapi\AppData\Local\Temp\ccYEBfsk.s:20105  .debug_str:00000000000007d6 .LASF1405
C:\Users\stapi\AppData\Local\Temp\ccYEBfsk.s:19987  .debug_str:00000000000004c1 .LASF1406
C:\Users\stapi\AppData\Local\Temp\ccYEBfsk.s:41     .text.hostapd_check_chans:0000000000000000 .LFB187
C:\Users\stapi\AppData\Local\Temp\ccYEBfsk.s:326    .text.hostapd_check_chans:0000000000000146 .LFE187
C:\Users\stapi\AppData\Local\Temp\ccYEBfsk.s:19275  .debug_loc:0000000000000648 .LLST0
C:\Users\stapi\AppData\Local\Temp\ccYEBfsk.s:56     .text.hostapd_check_chans:0000000000000010 .LBB28
C:\Users\stapi\AppData\Local\Temp\ccYEBfsk.s:19308  .debug_loc:0000000000000698 .LLST1
C:\Users\stapi\AppData\Local\Temp\ccYEBfsk.s:58     .text.hostapd_check_chans:0000000000000010 .LBB30
C:\Users\stapi\AppData\Local\Temp\ccYEBfsk.s:19330  .debug_loc:00000000000006cf .LLST2
C:\Users\stapi\AppData\Local\Temp\ccYEBfsk.s:19345  .debug_loc:00000000000006f8 .LLST3
C:\Users\stapi\AppData\Local\Temp\ccYEBfsk.s:19365  .debug_loc:000000000000072d .LLST4
C:\Users\stapi\AppData\Local\Temp\ccYEBfsk.s:19380  .debug_loc:0000000000000756 .LLST5
C:\Users\stapi\AppData\Local\Temp\ccYEBfsk.s:117    .text.hostapd_check_chans:000000000000005a .LVL4
C:\Users\stapi\AppData\Local\Temp\ccYEBfsk.s:147    .text.hostapd_check_chans:0000000000000072 .LBB37
C:\Users\stapi\AppData\Local\Temp\ccYEBfsk.s:19391  .debug_loc:0000000000000774 .LLST6
C:\Users\stapi\AppData\Local\Temp\ccYEBfsk.s:19409  .debug_loc:00000000000007a0 .LLST7
C:\Users\stapi\AppData\Local\Temp\ccYEBfsk.s:218    .text.hostapd_check_chans:00000000000000b6 .LBB39
C:\Users\stapi\AppData\Local\Temp\ccYEBfsk.s:19420  .debug_loc:00000000000007be .LLST8
C:\Users\stapi\AppData\Local\Temp\ccYEBfsk.s:19433  .debug_loc:00000000000007de .LLST9
C:\Users\stapi\AppData\Local\Temp\ccYEBfsk.s:19449  .debug_loc:0000000000000808 .LLST10
C:\Users\stapi\AppData\Local\Temp\ccYEBfsk.s:19470  .debug_loc:0000000000000837 .LLST11
C:\Users\stapi\AppData\Local\Temp\ccYEBfsk.s:241    .text.hostapd_check_chans:00000000000000d4 .LVL15
C:\Users\stapi\AppData\Local\Temp\ccYEBfsk.s:250    .text.hostapd_check_chans:00000000000000e0 .LVL17
C:\Users\stapi\AppData\Local\Temp\ccYEBfsk.s:286    .text.hostapd_check_chans:000000000000011e .LVL18
C:\Users\stapi\AppData\Local\Temp\ccYEBfsk.s:170    .text.hostapd_check_chans:0000000000000092 .LVL8
C:\Users\stapi\AppData\Local\Temp\ccYEBfsk.s:182    .text.hostapd_check_chans:00000000000000a6 .LVL10
C:\Users\stapi\AppData\Local\Temp\ccYEBfsk.s:316    .text.hostapd_check_chans:000000000000013c .LBB56
C:\Users\stapi\AppData\Local\Temp\ccYEBfsk.s:324    .text.hostapd_check_chans:0000000000000146 .LBE56
C:\Users\stapi\AppData\Local\Temp\ccYEBfsk.s:333    .text.hostapd_free_hw_features:0000000000000000 .LFB167
C:\Users\stapi\AppData\Local\Temp\ccYEBfsk.s:408    .text.hostapd_free_hw_features:0000000000000048 .LFE167
C:\Users\stapi\AppData\Local\Temp\ccYEBfsk.s:19481  .debug_loc:0000000000000855 .LLST12
C:\Users\stapi\AppData\Local\Temp\ccYEBfsk.s:19496  .debug_loc:000000000000087e .LLST13
C:\Users\stapi\AppData\Local\Temp\ccYEBfsk.s:352    .text.hostapd_free_hw_features:0000000000000012 .LBB60
C:\Users\stapi\AppData\Local\Temp\ccYEBfsk.s:19511  .debug_loc:00000000000008a7 .LLST14
C:\Users\stapi\AppData\Local\Temp\ccYEBfsk.s:364    .text.hostapd_free_hw_features:0000000000000022 .LVL23
C:\Users\stapi\AppData\Local\Temp\ccYEBfsk.s:388    .text.hostapd_free_hw_features:0000000000000036 .LVL26
C:\Users\stapi\AppData\Local\Temp\ccYEBfsk.s:393    .text.hostapd_free_hw_features:0000000000000044 .LVL27
C:\Users\stapi\AppData\Local\Temp\ccYEBfsk.s:1173   .text.hostapd_check_ht_capab:0000000000000000 .LFB180
C:\Users\stapi\AppData\Local\Temp\ccYEBfsk.s:1410   .text.hostapd_check_ht_capab:0000000000000170 .LFE180
C:\Users\stapi\AppData\Local\Temp\ccYEBfsk.s:19532  .debug_loc:00000000000008dd .LLST32
C:\Users\stapi\AppData\Local\Temp\ccYEBfsk.s:1239   .text.hostapd_check_ht_capab:0000000000000056 .LBB108
C:\Users\stapi\AppData\Local\Temp\ccYEBfsk.s:1408   .text.hostapd_check_ht_capab:0000000000000170 .LBE108
C:\Users\stapi\AppData\Local\Temp\ccYEBfsk.s:19558  .debug_loc:000000000000091f .LLST33
C:\Users\stapi\AppData\Local\Temp\ccYEBfsk.s:1242   .text.hostapd_check_ht_capab:0000000000000056 .LBB110
C:\Users\stapi\AppData\Local\Temp\ccYEBfsk.s:19573  .debug_loc:0000000000000948 .LLST34
C:\Users\stapi\AppData\Local\Temp\ccYEBfsk.s:19588  .debug_loc:0000000000000971 .LLST35
C:\Users\stapi\AppData\Local\Temp\ccYEBfsk.s:19615  .debug_loc:00000000000009af .LLST36
C:\Users\stapi\AppData\Local\Temp\ccYEBfsk.s:1270   .text.hostapd_check_ht_capab:0000000000000082 .LVL103
C:\Users\stapi\AppData\Local\Temp\ccYEBfsk.s:1229   .text.hostapd_check_ht_capab:0000000000000048 .LVL99
C:\Users\stapi\AppData\Local\Temp\ccYEBfsk.s:22561  .debug_str:00000000000051e9 .LASF1407
C:\Users\stapi\AppData\Local\Temp\ccYEBfsk.s:21601  .debug_str:0000000000003562 .LASF1408
C:\Users\stapi\AppData\Local\Temp\ccYEBfsk.s:19853  .debug_str:00000000000000c4 .LASF1409
C:\Users\stapi\AppData\Local\Temp\ccYEBfsk.s:22591  .debug_str:00000000000052d1 .LASF1410
C:\Users\stapi\AppData\Local\Temp\ccYEBfsk.s:21549  .debug_str:00000000000033b5 .LASF1411
C:\Users\stapi\AppData\Local\Temp\ccYEBfsk.s:21653  .debug_str:00000000000036e7 .LASF1412
C:\Users\stapi\AppData\Local\Temp\ccYEBfsk.s:20117  .debug_str:0000000000000838 .LASF1413
C:\Users\stapi\AppData\Local\Temp\ccYEBfsk.s:21119  .debug_str:00000000000025b5 .LASF1414
C:\Users\stapi\AppData\Local\Temp\ccYEBfsk.s:20601  .debug_str:000000000000164e .LASF1415
C:\Users\stapi\AppData\Local\Temp\ccYEBfsk.s:20849  .debug_str:0000000000001d4e .LASF1430
C:\Users\stapi\AppData\Local\Temp\ccYEBfsk.s:20289  .debug_str:0000000000000d32 .LASF1431
C:\Users\stapi\AppData\Local\Temp\ccYEBfsk.s:21431  .debug_str:0000000000002ee8 .LASF1416
C:\Users\stapi\AppData\Local\Temp\ccYEBfsk.s:20455  .debug_str:0000000000001218 .LASF1417
C:\Users\stapi\AppData\Local\Temp\ccYEBfsk.s:21623  .debug_str:00000000000035f3 .LASF1418
C:\Users\stapi\AppData\Local\Temp\ccYEBfsk.s:22255  .debug_str:00000000000047f1 .LASF1419
C:\Users\stapi\AppData\Local\Temp\ccYEBfsk.s:21035  .debug_str:0000000000002311 .LASF1420
C:\Users\stapi\AppData\Local\Temp\ccYEBfsk.s:22637  .debug_str:0000000000005429 .LASF1421
C:\Users\stapi\AppData\Local\Temp\ccYEBfsk.s:22301  .debug_str:0000000000004957 .LASF1422
C:\Users\stapi\AppData\Local\Temp\ccYEBfsk.s:20489  .debug_str:0000000000001312 .LASF1423
C:\Users\stapi\AppData\Local\Temp\ccYEBfsk.s:2173   .text.hostapd_hw_skip_mode:0000000000000000 .LVL171
C:\Users\stapi\AppData\Local\Temp\ccYEBfsk.s:2185   .text.hostapd_hw_skip_mode:000000000000000c .LVL172
C:\Users\stapi\AppData\Local\Temp\ccYEBfsk.s:2188   .text.hostapd_hw_skip_mode:0000000000000012 .LVL173
C:\Users\stapi\AppData\Local\Temp\ccYEBfsk.s:2195   .text.hostapd_hw_skip_mode:0000000000000016 .LVL174
C:\Users\stapi\AppData\Local\Temp\ccYEBfsk.s:2202   .text.hostapd_hw_skip_mode:0000000000000020 .LVL175
C:\Users\stapi\AppData\Local\Temp\ccYEBfsk.s:2206   .text.hostapd_hw_skip_mode:0000000000000022 .LVL176
C:\Users\stapi\AppData\Local\Temp\ccYEBfsk.s:2229   .text.hostapd_hw_skip_mode:000000000000003e .LVL178
C:\Users\stapi\AppData\Local\Temp\ccYEBfsk.s:2070   .text.hostapd_hw_get_channel:0000000000000000 .LVL160
C:\Users\stapi\AppData\Local\Temp\ccYEBfsk.s:2090   .text.hostapd_hw_get_channel:0000000000000014 .LVL161
C:\Users\stapi\AppData\Local\Temp\ccYEBfsk.s:2116   .text.hostapd_hw_get_channel:0000000000000030 .LVL164
C:\Users\stapi\AppData\Local\Temp\ccYEBfsk.s:2103   .text.hostapd_hw_get_channel:0000000000000022 .LVL162
C:\Users\stapi\AppData\Local\Temp\ccYEBfsk.s:2111   .text.hostapd_hw_get_channel:000000000000002c .LVL163
C:\Users\stapi\AppData\Local\Temp\ccYEBfsk.s:2139   .text.hostapd_hw_get_channel:000000000000004c .LVL167
C:\Users\stapi\AppData\Local\Temp\ccYEBfsk.s:2128   .text.hostapd_hw_get_channel:0000000000000044 .LVL166
C:\Users\stapi\AppData\Local\Temp\ccYEBfsk.s:2145   .text.hostapd_hw_get_channel:0000000000000050 .LVL168
C:\Users\stapi\AppData\Local\Temp\ccYEBfsk.s:2051   .text.hostapd_hw_get_freq:0000000000000000 .LVL157
C:\Users\stapi\AppData\Local\Temp\ccYEBfsk.s:2056   .text.hostapd_hw_get_freq:0000000000000006 .LVL158
C:\Users\stapi\AppData\Local\Temp\ccYEBfsk.s:2022   .text.hostapd_hw_mode_txt:0000000000000000 .LVL153
C:\Users\stapi\AppData\Local\Temp\ccYEBfsk.s:2029   .text.hostapd_hw_mode_txt:0000000000000012 .LVL154
C:\Users\stapi\AppData\Local\Temp\ccYEBfsk.s:2032   .text.hostapd_hw_mode_txt:0000000000000016 .LVL155
C:\Users\stapi\AppData\Local\Temp\ccYEBfsk.s:2036   .text.hostapd_hw_mode_txt:000000000000001a .LVL156
C:\Users\stapi\AppData\Local\Temp\ccYEBfsk.s:1796   .text.hostapd_select_hw_mode:0000000000000000 .LVL139
C:\Users\stapi\AppData\Local\Temp\ccYEBfsk.s:1841   .text.hostapd_select_hw_mode:0000000000000044 .LVL140
C:\Users\stapi\AppData\Local\Temp\ccYEBfsk.s:1999   .text.hostapd_select_hw_mode:0000000000000118 .LVL151
C:\Users\stapi\AppData\Local\Temp\ccYEBfsk.s:2004   .text.hostapd_select_hw_mode:000000000000011a .LVL152
C:\Users\stapi\AppData\Local\Temp\ccYEBfsk.s:1863   .text.hostapd_select_hw_mode:0000000000000062 .LVL142
C:\Users\stapi\AppData\Local\Temp\ccYEBfsk.s:1869   .text.hostapd_select_hw_mode:0000000000000068 .LVL143
C:\Users\stapi\AppData\Local\Temp\ccYEBfsk.s:1909   .text.hostapd_select_hw_mode:00000000000000a4 .LVL145
C:\Users\stapi\AppData\Local\Temp\ccYEBfsk.s:1944   .text.hostapd_select_hw_mode:00000000000000ca .LVL148
C:\Users\stapi\AppData\Local\Temp\ccYEBfsk.s:1647   .text.hostapd_acs_completed:0000000000000000 .LVL125
C:\Users\stapi\AppData\Local\Temp\ccYEBfsk.s:1655   .text.hostapd_acs_completed:0000000000000008 .LVL126
C:\Users\stapi\AppData\Local\Temp\ccYEBfsk.s:1699   .text.hostapd_acs_completed:000000000000005c .LVL130
C:\Users\stapi\AppData\Local\Temp\ccYEBfsk.s:1712   .text.hostapd_acs_completed:000000000000006e .LVL133
C:\Users\stapi\AppData\Local\Temp\ccYEBfsk.s:1742   .text.hostapd_acs_completed:0000000000000098 .LVL136
C:\Users\stapi\AppData\Local\Temp\ccYEBfsk.s:1770   .text.hostapd_acs_completed:00000000000000bc .LVL138
C:\Users\stapi\AppData\Local\Temp\ccYEBfsk.s:1508   .text.hostapd_check_he_6ghz_capab:0000000000000000 .LVL113
C:\Users\stapi\AppData\Local\Temp\ccYEBfsk.s:1517   .text.hostapd_check_he_6ghz_capab:0000000000000008 .LVL114
C:\Users\stapi\AppData\Local\Temp\ccYEBfsk.s:1520   .text.hostapd_check_he_6ghz_capab:000000000000000a .LVL115
C:\Users\stapi\AppData\Local\Temp\ccYEBfsk.s:1533   .text.hostapd_check_he_6ghz_capab:0000000000000014 .LVL116
C:\Users\stapi\AppData\Local\Temp\ccYEBfsk.s:1543   .text.hostapd_check_he_6ghz_capab:0000000000000022 .LVL117
C:\Users\stapi\AppData\Local\Temp\ccYEBfsk.s:1549   .text.hostapd_check_he_6ghz_capab:000000000000002c .LVL119
C:\Users\stapi\AppData\Local\Temp\ccYEBfsk.s:1579   .text.hostapd_check_he_6ghz_capab:000000000000005a .LVL123
C:\Users\stapi\AppData\Local\Temp\ccYEBfsk.s:1557   .text.hostapd_check_he_6ghz_capab:0000000000000036 .LVL120
C:\Users\stapi\AppData\Local\Temp\ccYEBfsk.s:1569   .text.hostapd_check_he_6ghz_capab:000000000000004c .LVL121
C:\Users\stapi\AppData\Local\Temp\ccYEBfsk.s:1614   .text.hostapd_check_he_6ghz_capab:0000000000000092 .LVL124
C:\Users\stapi\AppData\Local\Temp\ccYEBfsk.s:1430   .text.hostapd_check_edmg_capab:0000000000000000 .LVL106
C:\Users\stapi\AppData\Local\Temp\ccYEBfsk.s:1440   .text.hostapd_check_edmg_capab:0000000000000006 .LVL107
C:\Users\stapi\AppData\Local\Temp\ccYEBfsk.s:1481   .text.hostapd_check_edmg_capab:0000000000000060 .LVL112
C:\Users\stapi\AppData\Local\Temp\ccYEBfsk.s:1475   .text.hostapd_check_edmg_capab:0000000000000058 .LVL111
C:\Users\stapi\AppData\Local\Temp\ccYEBfsk.s:801    .text.hostapd_prepare_rates:0000000000000000 .LVL56
C:\Users\stapi\AppData\Local\Temp\ccYEBfsk.s:831    .text.hostapd_prepare_rates:000000000000001e .LVL59
C:\Users\stapi\AppData\Local\Temp\ccYEBfsk.s:823    .text.hostapd_prepare_rates:0000000000000010 .LVL58
C:\Users\stapi\AppData\Local\Temp\ccYEBfsk.s:868    .text.hostapd_prepare_rates:0000000000000066 .LVL63
C:\Users\stapi\AppData\Local\Temp\ccYEBfsk.s:873    .text.hostapd_prepare_rates:0000000000000068 .LVL64
C:\Users\stapi\AppData\Local\Temp\ccYEBfsk.s:893    .text.hostapd_prepare_rates:000000000000007c .LVL66
C:\Users\stapi\AppData\Local\Temp\ccYEBfsk.s:978    .text.hostapd_prepare_rates:00000000000000ee .LVL77
C:\Users\stapi\AppData\Local\Temp\ccYEBfsk.s:985    .text.hostapd_prepare_rates:00000000000000f2 .LVL79
C:\Users\stapi\AppData\Local\Temp\ccYEBfsk.s:1009   .text.hostapd_prepare_rates:000000000000010a .LVL82
C:\Users\stapi\AppData\Local\Temp\ccYEBfsk.s:814    .text.hostapd_prepare_rates:0000000000000008 .LVL57
C:\Users\stapi\AppData\Local\Temp\ccYEBfsk.s:949    .text.hostapd_prepare_rates:00000000000000d4 .LVL74
C:\Users\stapi\AppData\Local\Temp\ccYEBfsk.s:955    .text.hostapd_prepare_rates:00000000000000de .LVL75
C:\Users\stapi\AppData\Local\Temp\ccYEBfsk.s:972    .text.hostapd_prepare_rates:00000000000000e8 .LVL76
C:\Users\stapi\AppData\Local\Temp\ccYEBfsk.s:1120   .text.hostapd_prepare_rates:00000000000001ac .LVL91
C:\Users\stapi\AppData\Local\Temp\ccYEBfsk.s:1125   .text.hostapd_prepare_rates:00000000000001b2 .LVL92
C:\Users\stapi\AppData\Local\Temp\ccYEBfsk.s:1066   .text.hostapd_prepare_rates:000000000000015c .LVL84
C:\Users\stapi\AppData\Local\Temp\ccYEBfsk.s:1095   .text.hostapd_prepare_rates:0000000000000192 .LVL87
C:\Users\stapi\AppData\Local\Temp\ccYEBfsk.s:1112   .text.hostapd_prepare_rates:00000000000001a8 .LVL90
C:\Users\stapi\AppData\Local\Temp\ccYEBfsk.s:923    .text.hostapd_prepare_rates:00000000000000b4 .LVL71
C:\Users\stapi\AppData\Local\Temp\ccYEBfsk.s:930    .text.hostapd_prepare_rates:00000000000000ba .LVL72
C:\Users\stapi\AppData\Local\Temp\ccYEBfsk.s:992    .text.hostapd_prepare_rates:00000000000000f4 .LVL80
C:\Users\stapi\AppData\Local\Temp\ccYEBfsk.s:437    .text.hostapd_get_hw_features:0000000000000000 .LVL29
C:\Users\stapi\AppData\Local\Temp\ccYEBfsk.s:471    .text.hostapd_get_hw_features:0000000000000014 .LVL31
C:\Users\stapi\AppData\Local\Temp\ccYEBfsk.s:563    .text.hostapd_get_hw_features:000000000000007e .LVL36
C:\Users\stapi\AppData\Local\Temp\ccYEBfsk.s:576    .text.hostapd_get_hw_features:000000000000008c .LVL37
C:\Users\stapi\AppData\Local\Temp\ccYEBfsk.s:600    .text.hostapd_get_hw_features:00000000000000a8 .LVL39
C:\Users\stapi\AppData\Local\Temp\ccYEBfsk.s:617    .text.hostapd_get_hw_features:00000000000000b2 .LVL40
C:\Users\stapi\AppData\Local\Temp\ccYEBfsk.s:512    .text.hostapd_get_hw_features:0000000000000044 .LVL34
C:\Users\stapi\AppData\Local\Temp\ccYEBfsk.s:589    .text.hostapd_get_hw_features:0000000000000094 .LVL38
C:\Users\stapi\AppData\Local\Temp\ccYEBfsk.s:632    .text.hostapd_get_hw_features:00000000000000be .LVL42
C:\Users\stapi\AppData\Local\Temp\ccYEBfsk.s:634    .text.hostapd_get_hw_features:00000000000000c0 .LVL43
C:\Users\stapi\AppData\Local\Temp\ccYEBfsk.s:654    .text.hostapd_get_hw_features:00000000000000d8 .LVL44
C:\Users\stapi\AppData\Local\Temp\ccYEBfsk.s:661    .text.hostapd_get_hw_features:00000000000000e0 .LVL45
C:\Users\stapi\AppData\Local\Temp\ccYEBfsk.s:675    .text.hostapd_get_hw_features:00000000000000ee .LVL46
C:\Users\stapi\AppData\Local\Temp\ccYEBfsk.s:702    .text.hostapd_get_hw_features:0000000000000110 .LVL48
C:\Users\stapi\AppData\Local\Temp\ccYEBfsk.s:692    .text.hostapd_get_hw_features:0000000000000108 .LVL47
C:\Users\stapi\AppData\Local\Temp\ccYEBfsk.s:708    .text.hostapd_get_hw_features:0000000000000122 .LVL49
C:\Users\stapi\AppData\Local\Temp\ccYEBfsk.s:727    .text.hostapd_get_hw_features:000000000000013c .LVL52
C:\Users\stapi\AppData\Local\Temp\ccYEBfsk.s:761    .text.hostapd_get_hw_features:0000000000000170 .LVL55
C:\Users\stapi\AppData\Local\Temp\ccYEBfsk.s:746    .text.hostapd_get_hw_features:000000000000015a .LVL53
C:\Users\stapi\AppData\Local\Temp\ccYEBfsk.s:45     .text.hostapd_check_chans:0000000000000000 .LVL0
C:\Users\stapi\AppData\Local\Temp\ccYEBfsk.s:105    .text.hostapd_check_chans:0000000000000044 .LVL3
C:\Users\stapi\AppData\Local\Temp\ccYEBfsk.s:177    .text.hostapd_check_chans:000000000000009c .LVL9
C:\Users\stapi\AppData\Local\Temp\ccYEBfsk.s:199    .text.hostapd_check_chans:00000000000000b2 .LVL11
C:\Users\stapi\AppData\Local\Temp\ccYEBfsk.s:243    .text.hostapd_check_chans:00000000000000d6 .LVL16
C:\Users\stapi\AppData\Local\Temp\ccYEBfsk.s:307    .text.hostapd_check_chans:000000000000013c .LVL20
C:\Users\stapi\AppData\Local\Temp\ccYEBfsk.s:63     .text.hostapd_check_chans:0000000000000016 .LVL1
C:\Users\stapi\AppData\Local\Temp\ccYEBfsk.s:142    .text.hostapd_check_chans:0000000000000072 .LVL7
C:\Users\stapi\AppData\Local\Temp\ccYEBfsk.s:211    .text.hostapd_check_chans:00000000000000b6 .LVL13
C:\Users\stapi\AppData\Local\Temp\ccYEBfsk.s:96     .text.hostapd_check_chans:000000000000003a .LVL2
C:\Users\stapi\AppData\Local\Temp\ccYEBfsk.s:119    .text.hostapd_check_chans:000000000000005c .LVL5
C:\Users\stapi\AppData\Local\Temp\ccYEBfsk.s:127    .text.hostapd_check_chans:0000000000000064 .LVL6
C:\Users\stapi\AppData\Local\Temp\ccYEBfsk.s:237    .text.hostapd_check_chans:00000000000000c8 .LVL14
C:\Users\stapi\AppData\Local\Temp\ccYEBfsk.s:295    .text.hostapd_check_chans:0000000000000128 .LVL19
C:\Users\stapi\AppData\Local\Temp\ccYEBfsk.s:336    .text.hostapd_free_hw_features:0000000000000000 .LVL21
C:\Users\stapi\AppData\Local\Temp\ccYEBfsk.s:356    .text.hostapd_free_hw_features:0000000000000014 .LVL22
C:\Users\stapi\AppData\Local\Temp\ccYEBfsk.s:396    .text.hostapd_free_hw_features:0000000000000046 .LVL28
C:\Users\stapi\AppData\Local\Temp\ccYEBfsk.s:376    .text.hostapd_free_hw_features:000000000000002a .LVL24
C:\Users\stapi\AppData\Local\Temp\ccYEBfsk.s:385    .text.hostapd_free_hw_features:000000000000002e .LVL25
C:\Users\stapi\AppData\Local\Temp\ccYEBfsk.s:1176   .text.hostapd_check_ht_capab:0000000000000000 .LVL93
C:\Users\stapi\AppData\Local\Temp\ccYEBfsk.s:1186   .text.hostapd_check_ht_capab:000000000000000a .LVL94
C:\Users\stapi\AppData\Local\Temp\ccYEBfsk.s:1189   .text.hostapd_check_ht_capab:000000000000000c .LVL95
C:\Users\stapi\AppData\Local\Temp\ccYEBfsk.s:1203   .text.hostapd_check_ht_capab:0000000000000016 .LVL97
C:\Users\stapi\AppData\Local\Temp\ccYEBfsk.s:1218   .text.hostapd_check_ht_capab:000000000000002c .LVL98
C:\Users\stapi\AppData\Local\Temp\ccYEBfsk.s:1196   .text.hostapd_check_ht_capab:000000000000000e .LVL96
C:\Users\stapi\AppData\Local\Temp\ccYEBfsk.s:1238   .text.hostapd_check_ht_capab:0000000000000056 .LVL100
C:\Users\stapi\AppData\Local\Temp\ccYEBfsk.s:1276   .text.hostapd_check_ht_capab:0000000000000084 .LVL104
C:\Users\stapi\AppData\Local\Temp\ccYEBfsk.s:1278   .text.hostapd_check_ht_capab:0000000000000086 .LVL105
C:\Users\stapi\AppData\Local\Temp\ccYEBfsk.s:1253   .text.hostapd_check_ht_capab:0000000000000064 .LVL101
C:\Users\stapi\AppData\Local\Temp\ccYEBfsk.s:1265   .text.hostapd_check_ht_capab:0000000000000078 .LVL102
C:\Users\stapi\AppData\Local\Temp\ccYEBfsk.s:2309   .debug_info:0000000000000000 .Ldebug_info0
C:\Users\stapi\AppData\Local\Temp\ccYEBfsk.s:190    .text.hostapd_check_chans:00000000000000a8 .LBE28
C:\Users\stapi\AppData\Local\Temp\ccYEBfsk.s:202    .text.hostapd_check_chans:00000000000000b2 .LBB55
C:\Users\stapi\AppData\Local\Temp\ccYEBfsk.s:314    .text.hostapd_check_chans:000000000000013c .LBE55
C:\Users\stapi\AppData\Local\Temp\ccYEBfsk.s:65     .text.hostapd_check_chans:0000000000000016 .LBE30
C:\Users\stapi\AppData\Local\Temp\ccYEBfsk.s:67     .text.hostapd_check_chans:0000000000000016 .LBB36
C:\Users\stapi\AppData\Local\Temp\ccYEBfsk.s:145    .text.hostapd_check_chans:0000000000000072 .LBE36
C:\Users\stapi\AppData\Local\Temp\ccYEBfsk.s:204    .text.hostapd_check_chans:00000000000000b2 .LBB51
C:\Users\stapi\AppData\Local\Temp\ccYEBfsk.s:214    .text.hostapd_check_chans:00000000000000b6 .LBE51
C:\Users\stapi\AppData\Local\Temp\ccYEBfsk.s:102    .text.hostapd_check_chans:0000000000000040 .LBB32
C:\Users\stapi\AppData\Local\Temp\ccYEBfsk.s:107    .text.hostapd_check_chans:0000000000000044 .LBE32
C:\Users\stapi\AppData\Local\Temp\ccYEBfsk.s:121    .text.hostapd_check_chans:000000000000005c .LBB33
C:\Users\stapi\AppData\Local\Temp\ccYEBfsk.s:140    .text.hostapd_check_chans:0000000000000072 .LBE33
C:\Users\stapi\AppData\Local\Temp\ccYEBfsk.s:155    .text.hostapd_check_chans:0000000000000076 .LBE37
C:\Users\stapi\AppData\Local\Temp\ccYEBfsk.s:158    .text.hostapd_check_chans:0000000000000078 .LBB50
C:\Users\stapi\AppData\Local\Temp\ccYEBfsk.s:185    .text.hostapd_check_chans:00000000000000a6 .LBE50
C:\Users\stapi\AppData\Local\Temp\ccYEBfsk.s:215    .text.hostapd_check_chans:00000000000000b6 .LBB52
C:\Users\stapi\AppData\Local\Temp\ccYEBfsk.s:254    .text.hostapd_check_chans:00000000000000e0 .LBE52
C:\Users\stapi\AppData\Local\Temp\ccYEBfsk.s:257    .text.hostapd_check_chans:00000000000000e2 .LBB53
C:\Users\stapi\AppData\Local\Temp\ccYEBfsk.s:312    .text.hostapd_check_chans:000000000000013c .LBE53
C:\Users\stapi\AppData\Local\Temp\ccYEBfsk.s:227    .text.hostapd_check_chans:00000000000000bc .LBE39
C:\Users\stapi\AppData\Local\Temp\ccYEBfsk.s:230    .text.hostapd_check_chans:00000000000000be .LBB44
C:\Users\stapi\AppData\Local\Temp\ccYEBfsk.s:252    .text.hostapd_check_chans:00000000000000e0 .LBE44
C:\Users\stapi\AppData\Local\Temp\ccYEBfsk.s:259    .text.hostapd_check_chans:00000000000000e2 .LBB45
C:\Users\stapi\AppData\Local\Temp\ccYEBfsk.s:290    .text.hostapd_check_chans:000000000000011e .LBE45
C:\Users\stapi\AppData\Local\Temp\ccYEBfsk.s:297    .text.hostapd_check_chans:0000000000000128 .LBB46
C:\Users\stapi\AppData\Local\Temp\ccYEBfsk.s:310    .text.hostapd_check_chans:000000000000013c .LBE46
C:\Users\stapi\AppData\Local\Temp\ccYEBfsk.s:366    .text.hostapd_free_hw_features:0000000000000022 .LBE60
C:\Users\stapi\AppData\Local\Temp\ccYEBfsk.s:379    .text.hostapd_free_hw_features:000000000000002a .LBB63
C:\Users\stapi\AppData\Local\Temp\ccYEBfsk.s:406    .text.hostapd_free_hw_features:0000000000000048 .LBE63
C:\Users\stapi\AppData\Local\Temp\ccYEBfsk.s:527    .text.hostapd_get_hw_features:000000000000005a .LBB68
C:\Users\stapi\AppData\Local\Temp\ccYEBfsk.s:538    .text.hostapd_get_hw_features:0000000000000062 .LBE68
C:\Users\stapi\AppData\Local\Temp\ccYEBfsk.s:547    .text.hostapd_get_hw_features:0000000000000072 .LBB90
C:\Users\stapi\AppData\Local\Temp\ccYEBfsk.s:556    .text.hostapd_get_hw_features:0000000000000076 .LBE90
C:\Users\stapi\AppData\Local\Temp\ccYEBfsk.s:566    .text.hostapd_get_hw_features:0000000000000080 .LBB91
C:\Users\stapi\AppData\Local\Temp\ccYEBfsk.s:581    .text.hostapd_get_hw_features:000000000000008c .LBE91
C:\Users\stapi\AppData\Local\Temp\ccYEBfsk.s:587    .text.hostapd_get_hw_features:0000000000000094 .LBB92
C:\Users\stapi\AppData\Local\Temp\ccYEBfsk.s:626    .text.hostapd_get_hw_features:00000000000000b8 .LBE92
C:\Users\stapi\AppData\Local\Temp\ccYEBfsk.s:636    .text.hostapd_get_hw_features:00000000000000c0 .LBB93
C:\Users\stapi\AppData\Local\Temp\ccYEBfsk.s:779    .text.hostapd_get_hw_features:0000000000000188 .LBE93
C:\Users\stapi\AppData\Local\Temp\ccYEBfsk.s:528    .text.hostapd_get_hw_features:000000000000005a .LBB69
C:\Users\stapi\AppData\Local\Temp\ccYEBfsk.s:537    .text.hostapd_get_hw_features:0000000000000062 .LBE69
C:\Users\stapi\AppData\Local\Temp\ccYEBfsk.s:548    .text.hostapd_get_hw_features:0000000000000072 .LBB84
C:\Users\stapi\AppData\Local\Temp\ccYEBfsk.s:555    .text.hostapd_get_hw_features:0000000000000076 .LBE84
C:\Users\stapi\AppData\Local\Temp\ccYEBfsk.s:567    .text.hostapd_get_hw_features:0000000000000080 .LBB85
C:\Users\stapi\AppData\Local\Temp\ccYEBfsk.s:580    .text.hostapd_get_hw_features:000000000000008c .LBE85
C:\Users\stapi\AppData\Local\Temp\ccYEBfsk.s:602    .text.hostapd_get_hw_features:00000000000000a8 .LBB86
C:\Users\stapi\AppData\Local\Temp\ccYEBfsk.s:609    .text.hostapd_get_hw_features:00000000000000ac .LBE86
C:\Users\stapi\AppData\Local\Temp\ccYEBfsk.s:612    .text.hostapd_get_hw_features:00000000000000ae .LBB87
C:\Users\stapi\AppData\Local\Temp\ccYEBfsk.s:621    .text.hostapd_get_hw_features:00000000000000b2 .LBE87
C:\Users\stapi\AppData\Local\Temp\ccYEBfsk.s:637    .text.hostapd_get_hw_features:00000000000000c0 .LBB88
C:\Users\stapi\AppData\Local\Temp\ccYEBfsk.s:721    .text.hostapd_get_hw_features:0000000000000138 .LBE88
C:\Users\stapi\AppData\Local\Temp\ccYEBfsk.s:729    .text.hostapd_get_hw_features:000000000000013c .LBB89
C:\Users\stapi\AppData\Local\Temp\ccYEBfsk.s:778    .text.hostapd_get_hw_features:0000000000000188 .LBE89
C:\Users\stapi\AppData\Local\Temp\ccYEBfsk.s:536    .text.hostapd_get_hw_features:0000000000000062 .LBE70
C:\Users\stapi\AppData\Local\Temp\ccYEBfsk.s:549    .text.hostapd_get_hw_features:0000000000000072 .LBB78
C:\Users\stapi\AppData\Local\Temp\ccYEBfsk.s:554    .text.hostapd_get_hw_features:0000000000000076 .LBE78
C:\Users\stapi\AppData\Local\Temp\ccYEBfsk.s:570    .text.hostapd_get_hw_features:0000000000000084 .LBB79
C:\Users\stapi\AppData\Local\Temp\ccYEBfsk.s:579    .text.hostapd_get_hw_features:000000000000008c .LBE79
C:\Users\stapi\AppData\Local\Temp\ccYEBfsk.s:603    .text.hostapd_get_hw_features:00000000000000a8 .LBB80
C:\Users\stapi\AppData\Local\Temp\ccYEBfsk.s:608    .text.hostapd_get_hw_features:00000000000000ac .LBE80
C:\Users\stapi\AppData\Local\Temp\ccYEBfsk.s:613    .text.hostapd_get_hw_features:00000000000000ae .LBB81
C:\Users\stapi\AppData\Local\Temp\ccYEBfsk.s:620    .text.hostapd_get_hw_features:00000000000000b2 .LBE81
C:\Users\stapi\AppData\Local\Temp\ccYEBfsk.s:693    .text.hostapd_get_hw_features:0000000000000108 .LBB82
C:\Users\stapi\AppData\Local\Temp\ccYEBfsk.s:711    .text.hostapd_get_hw_features:0000000000000122 .LBE82
C:\Users\stapi\AppData\Local\Temp\ccYEBfsk.s:730    .text.hostapd_get_hw_features:000000000000013c .LBB83
C:\Users\stapi\AppData\Local\Temp\ccYEBfsk.s:777    .text.hostapd_get_hw_features:0000000000000188 .LBE83
C:\Users\stapi\AppData\Local\Temp\ccYEBfsk.s:932    .text.hostapd_prepare_rates:00000000000000ba .LBE97
C:\Users\stapi\AppData\Local\Temp\ccYEBfsk.s:987    .text.hostapd_prepare_rates:00000000000000f2 .LBB100
C:\Users\stapi\AppData\Local\Temp\ccYEBfsk.s:996    .text.hostapd_prepare_rates:00000000000000fc .LBE100
C:\Users\stapi\AppData\Local\Temp\ccYEBfsk.s:1006   .text.hostapd_prepare_rates:0000000000000106 .LBB101
C:\Users\stapi\AppData\Local\Temp\ccYEBfsk.s:1011   .text.hostapd_prepare_rates:000000000000010a .LBE101
C:\Users\stapi\AppData\Local\Temp\ccYEBfsk.s:1047   .text.hostapd_prepare_rates:0000000000000144 .LBB102
C:\Users\stapi\AppData\Local\Temp\ccYEBfsk.s:1106   .text.hostapd_prepare_rates:00000000000001a4 .LBE102
C:\Users\stapi\AppData\Local\Temp\ccYEBfsk.s:1114   .text.hostapd_prepare_rates:00000000000001a8 .LBB103
C:\Users\stapi\AppData\Local\Temp\ccYEBfsk.s:1127   .text.hostapd_prepare_rates:00000000000001b4 .LBE103
C:\Users\stapi\AppData\Local\Temp\ccYEBfsk.s:1273   .text.hostapd_check_ht_capab:0000000000000082 .LBE110
C:\Users\stapi\AppData\Local\Temp\ccYEBfsk.s:1280   .text.hostapd_check_ht_capab:0000000000000086 .LBB113
C:\Users\stapi\AppData\Local\Temp\ccYEBfsk.s:1406   .text.hostapd_check_ht_capab:0000000000000170 .LBE113
C:\Users\stapi\AppData\Local\Temp\ccYEBfsk.s:1866   .text.hostapd_select_hw_mode:0000000000000064 .LBB114
C:\Users\stapi\AppData\Local\Temp\ccYEBfsk.s:1871   .text.hostapd_select_hw_mode:0000000000000068 .LBE114
C:\Users\stapi\AppData\Local\Temp\ccYEBfsk.s:1901   .text.hostapd_select_hw_mode:000000000000009a .LBB115
C:\Users\stapi\AppData\Local\Temp\ccYEBfsk.s:1930   .text.hostapd_select_hw_mode:00000000000000c2 .LBE115
C:\Users\stapi\AppData\Local\Temp\ccYEBfsk.s:1937   .text.hostapd_select_hw_mode:00000000000000c6 .LBB116
C:\Users\stapi\AppData\Local\Temp\ccYEBfsk.s:1942   .text.hostapd_select_hw_mode:00000000000000ca .LBE116

UNDEFINED SYMBOLS
__riscv_save_2
wpa_printf
hw_get_channel_freq
__riscv_restore_2
chan_pri_allowed
__riscv_save_4
os_free
__riscv_restore_4
__riscv_save_12
hostapd_drv_none
__riscv_restore_12
hostapd_get_hw_feature_data
os_snprintf
__riscv_save_8
memcpy
os_malloc
os_memcpy
__riscv_restore_8
os_zalloc
hostapd_rate_found
__riscv_restore_1
__riscv_save_1
is_6ghz_freq
__riscv_save_3
wpa_msg
hostapd_setup_interface_complete
__riscv_restore_3
hw_mode_get_channel
hw_get_freq
hw_get_chan
