   1              		.file	"ieee802_11_he.c"
   2              		.option nopic
   3              		.attribute arch, "rv32i2p0_m2p0_a2p0_f2p0_c2p0_b_p0p94"
   4              		.attribute unaligned_access, 0
   5              		.attribute stack_align, 16
   6              		.text
   7              	.Ltext0:
   8              		.cfi_sections	.debug_frame
   9              		.section	.text.ieee80211_he_ppet_size.part.0,"ax",@progbits
  10              		.align	1
  12              	ieee80211_he_ppet_size.part.0:
  13              	.LFB152:
  14              		.file 1 "C:/Users/stapi/OneDrive/Desktop/GD32VW553/V1_MQTT_OK/GD32VW55X_Wifi_BLE_SDK/GD32VW55x_REL
   1:C:/Users/stapi/OneDrive/Desktop/GD32VW553/V1_MQTT_OK/GD32VW55X_Wifi_BLE_SDK/GD32VW55x_RELEASE_V1.0.2/MSDK/wpa_supplicant/src/ap\ieee802_11_he.c **** /*
   2:C:/Users/stapi/OneDrive/Desktop/GD32VW553/V1_MQTT_OK/GD32VW55X_Wifi_BLE_SDK/GD32VW55x_RELEASE_V1.0.2/MSDK/wpa_supplicant/src/ap\ieee802_11_he.c ****  * hostapd / IEEE 802.11ax HE
   3:C:/Users/stapi/OneDrive/Desktop/GD32VW553/V1_MQTT_OK/GD32VW55X_Wifi_BLE_SDK/GD32VW55x_RELEASE_V1.0.2/MSDK/wpa_supplicant/src/ap\ieee802_11_he.c ****  * Copyright (c) 2016-2017, Qualcomm Atheros, Inc.
   4:C:/Users/stapi/OneDrive/Desktop/GD32VW553/V1_MQTT_OK/GD32VW55X_Wifi_BLE_SDK/GD32VW55x_RELEASE_V1.0.2/MSDK/wpa_supplicant/src/ap\ieee802_11_he.c ****  * Copyright (c) 2019 John Crispin <john@phrozen.org>
   5:C:/Users/stapi/OneDrive/Desktop/GD32VW553/V1_MQTT_OK/GD32VW55X_Wifi_BLE_SDK/GD32VW55x_RELEASE_V1.0.2/MSDK/wpa_supplicant/src/ap\ieee802_11_he.c ****  *
   6:C:/Users/stapi/OneDrive/Desktop/GD32VW553/V1_MQTT_OK/GD32VW55X_Wifi_BLE_SDK/GD32VW55x_RELEASE_V1.0.2/MSDK/wpa_supplicant/src/ap\ieee802_11_he.c ****  * This software may be distributed under the terms of the BSD license.
   7:C:/Users/stapi/OneDrive/Desktop/GD32VW553/V1_MQTT_OK/GD32VW55X_Wifi_BLE_SDK/GD32VW55x_RELEASE_V1.0.2/MSDK/wpa_supplicant/src/ap\ieee802_11_he.c ****  * See README for more details.
   8:C:/Users/stapi/OneDrive/Desktop/GD32VW553/V1_MQTT_OK/GD32VW55X_Wifi_BLE_SDK/GD32VW55x_RELEASE_V1.0.2/MSDK/wpa_supplicant/src/ap\ieee802_11_he.c ****  */
   9:C:/Users/stapi/OneDrive/Desktop/GD32VW553/V1_MQTT_OK/GD32VW55X_Wifi_BLE_SDK/GD32VW55x_RELEASE_V1.0.2/MSDK/wpa_supplicant/src/ap\ieee802_11_he.c **** 
  10:C:/Users/stapi/OneDrive/Desktop/GD32VW553/V1_MQTT_OK/GD32VW55X_Wifi_BLE_SDK/GD32VW55x_RELEASE_V1.0.2/MSDK/wpa_supplicant/src/ap\ieee802_11_he.c **** #include "utils/includes.h"
  11:C:/Users/stapi/OneDrive/Desktop/GD32VW553/V1_MQTT_OK/GD32VW55X_Wifi_BLE_SDK/GD32VW55x_RELEASE_V1.0.2/MSDK/wpa_supplicant/src/ap\ieee802_11_he.c **** 
  12:C:/Users/stapi/OneDrive/Desktop/GD32VW553/V1_MQTT_OK/GD32VW55X_Wifi_BLE_SDK/GD32VW55x_RELEASE_V1.0.2/MSDK/wpa_supplicant/src/ap\ieee802_11_he.c **** #ifdef CONFIG_IEEE80211AX
  13:C:/Users/stapi/OneDrive/Desktop/GD32VW553/V1_MQTT_OK/GD32VW55X_Wifi_BLE_SDK/GD32VW55x_RELEASE_V1.0.2/MSDK/wpa_supplicant/src/ap\ieee802_11_he.c **** #include "utils/common.h"
  14:C:/Users/stapi/OneDrive/Desktop/GD32VW553/V1_MQTT_OK/GD32VW55X_Wifi_BLE_SDK/GD32VW55x_RELEASE_V1.0.2/MSDK/wpa_supplicant/src/ap\ieee802_11_he.c **** #include "common/ieee802_11_defs.h"
  15:C:/Users/stapi/OneDrive/Desktop/GD32VW553/V1_MQTT_OK/GD32VW55X_Wifi_BLE_SDK/GD32VW55x_RELEASE_V1.0.2/MSDK/wpa_supplicant/src/ap\ieee802_11_he.c **** #include "common/ieee802_11_common.h"
  16:C:/Users/stapi/OneDrive/Desktop/GD32VW553/V1_MQTT_OK/GD32VW55X_Wifi_BLE_SDK/GD32VW55x_RELEASE_V1.0.2/MSDK/wpa_supplicant/src/ap\ieee802_11_he.c **** #include "hostapd.h"
  17:C:/Users/stapi/OneDrive/Desktop/GD32VW553/V1_MQTT_OK/GD32VW55X_Wifi_BLE_SDK/GD32VW55x_RELEASE_V1.0.2/MSDK/wpa_supplicant/src/ap\ieee802_11_he.c **** #include "ap_config.h"
  18:C:/Users/stapi/OneDrive/Desktop/GD32VW553/V1_MQTT_OK/GD32VW55X_Wifi_BLE_SDK/GD32VW55x_RELEASE_V1.0.2/MSDK/wpa_supplicant/src/ap\ieee802_11_he.c **** #include "beacon.h"
  19:C:/Users/stapi/OneDrive/Desktop/GD32VW553/V1_MQTT_OK/GD32VW55X_Wifi_BLE_SDK/GD32VW55x_RELEASE_V1.0.2/MSDK/wpa_supplicant/src/ap\ieee802_11_he.c **** #include "sta_info.h"
  20:C:/Users/stapi/OneDrive/Desktop/GD32VW553/V1_MQTT_OK/GD32VW55X_Wifi_BLE_SDK/GD32VW55x_RELEASE_V1.0.2/MSDK/wpa_supplicant/src/ap\ieee802_11_he.c **** #include "ieee802_11.h"
  21:C:/Users/stapi/OneDrive/Desktop/GD32VW553/V1_MQTT_OK/GD32VW55X_Wifi_BLE_SDK/GD32VW55x_RELEASE_V1.0.2/MSDK/wpa_supplicant/src/ap\ieee802_11_he.c **** #include "dfs.h"
  22:C:/Users/stapi/OneDrive/Desktop/GD32VW553/V1_MQTT_OK/GD32VW55X_Wifi_BLE_SDK/GD32VW55x_RELEASE_V1.0.2/MSDK/wpa_supplicant/src/ap\ieee802_11_he.c **** 
  23:C:/Users/stapi/OneDrive/Desktop/GD32VW553/V1_MQTT_OK/GD32VW55X_Wifi_BLE_SDK/GD32VW55x_RELEASE_V1.0.2/MSDK/wpa_supplicant/src/ap\ieee802_11_he.c **** static u8 ieee80211_he_ppet_size(u8 ppe_thres_hdr, const u8 *phy_cap_info)
  15              		.loc 1 23 11
  16              		.cfi_startproc
  17              	.LVL0:
  24:C:/Users/stapi/OneDrive/Desktop/GD32VW553/V1_MQTT_OK/GD32VW55X_Wifi_BLE_SDK/GD32VW55x_RELEASE_V1.0.2/MSDK/wpa_supplicant/src/ap\ieee802_11_he.c **** {
  25:C:/Users/stapi/OneDrive/Desktop/GD32VW553/V1_MQTT_OK/GD32VW55X_Wifi_BLE_SDK/GD32VW55x_RELEASE_V1.0.2/MSDK/wpa_supplicant/src/ap\ieee802_11_he.c **** 	u8 sz = 0, ru;
  26:C:/Users/stapi/OneDrive/Desktop/GD32VW553/V1_MQTT_OK/GD32VW55X_Wifi_BLE_SDK/GD32VW55x_RELEASE_V1.0.2/MSDK/wpa_supplicant/src/ap\ieee802_11_he.c **** 
  27:C:/Users/stapi/OneDrive/Desktop/GD32VW553/V1_MQTT_OK/GD32VW55X_Wifi_BLE_SDK/GD32VW55x_RELEASE_V1.0.2/MSDK/wpa_supplicant/src/ap\ieee802_11_he.c **** 	if ((phy_cap_info[HE_PHYCAP_PPE_THRESHOLD_PRESENT_IDX] &
  28:C:/Users/stapi/OneDrive/Desktop/GD32VW553/V1_MQTT_OK/GD32VW55X_Wifi_BLE_SDK/GD32VW55x_RELEASE_V1.0.2/MSDK/wpa_supplicant/src/ap\ieee802_11_he.c **** 	     HE_PHYCAP_PPE_THRESHOLD_PRESENT) == 0)
  29:C:/Users/stapi/OneDrive/Desktop/GD32VW553/V1_MQTT_OK/GD32VW55X_Wifi_BLE_SDK/GD32VW55x_RELEASE_V1.0.2/MSDK/wpa_supplicant/src/ap\ieee802_11_he.c **** 		return 0;
  30:C:/Users/stapi/OneDrive/Desktop/GD32VW553/V1_MQTT_OK/GD32VW55X_Wifi_BLE_SDK/GD32VW55x_RELEASE_V1.0.2/MSDK/wpa_supplicant/src/ap\ieee802_11_he.c **** 
  31:C:/Users/stapi/OneDrive/Desktop/GD32VW553/V1_MQTT_OK/GD32VW55X_Wifi_BLE_SDK/GD32VW55x_RELEASE_V1.0.2/MSDK/wpa_supplicant/src/ap\ieee802_11_he.c **** 	ru = (ppe_thres_hdr >> HE_PPE_THRES_RU_INDEX_BITMASK_SHIFT) &
  18              		.loc 1 31 2
  19              		.loc 1 31 62 is_stmt 0
  20 0000 13573500 		srli	a4,a0,3
  21              		.loc 1 31 5
  22 0004 3D8B     		andi	a4,a4,15
  23              	.LVL1:
  32:C:/Users/stapi/OneDrive/Desktop/GD32VW553/V1_MQTT_OK/GD32VW55X_Wifi_BLE_SDK/GD32VW55x_RELEASE_V1.0.2/MSDK/wpa_supplicant/src/ap\ieee802_11_he.c **** 		HE_PPE_THRES_RU_INDEX_BITMASK_MASK;
  33:C:/Users/stapi/OneDrive/Desktop/GD32VW553/V1_MQTT_OK/GD32VW55X_Wifi_BLE_SDK/GD32VW55x_RELEASE_V1.0.2/MSDK/wpa_supplicant/src/ap\ieee802_11_he.c **** 	while (ru) {
  24              		.loc 1 33 2 is_stmt 1
  25:C:/Users/stapi/OneDrive/Desktop/GD32VW553/V1_MQTT_OK/GD32VW55X_Wifi_BLE_SDK/GD32VW55x_RELEASE_V1.0.2/MSDK/wpa_supplicant/src/ap\ieee802_11_he.c **** 
  25              		.loc 1 25 5 is_stmt 0
  26 0006 8147     		li	a5,0
  27              	.L2:
  28              	.LVL2:
  29              		.loc 1 33 8 is_stmt 1
  30 0008 09EF     		bne	a4,zero,.L4
  34:C:/Users/stapi/OneDrive/Desktop/GD32VW553/V1_MQTT_OK/GD32VW55X_Wifi_BLE_SDK/GD32VW55x_RELEASE_V1.0.2/MSDK/wpa_supplicant/src/ap\ieee802_11_he.c **** 		if (ru & 0x1)
  35:C:/Users/stapi/OneDrive/Desktop/GD32VW553/V1_MQTT_OK/GD32VW55X_Wifi_BLE_SDK/GD32VW55x_RELEASE_V1.0.2/MSDK/wpa_supplicant/src/ap\ieee802_11_he.c **** 			sz++;
  36:C:/Users/stapi/OneDrive/Desktop/GD32VW553/V1_MQTT_OK/GD32VW55X_Wifi_BLE_SDK/GD32VW55x_RELEASE_V1.0.2/MSDK/wpa_supplicant/src/ap\ieee802_11_he.c **** 		ru >>= 1;
  37:C:/Users/stapi/OneDrive/Desktop/GD32VW553/V1_MQTT_OK/GD32VW55X_Wifi_BLE_SDK/GD32VW55x_RELEASE_V1.0.2/MSDK/wpa_supplicant/src/ap\ieee802_11_he.c **** 	}
  38:C:/Users/stapi/OneDrive/Desktop/GD32VW553/V1_MQTT_OK/GD32VW55X_Wifi_BLE_SDK/GD32VW55x_RELEASE_V1.0.2/MSDK/wpa_supplicant/src/ap\ieee802_11_he.c **** 
  39:C:/Users/stapi/OneDrive/Desktop/GD32VW553/V1_MQTT_OK/GD32VW55X_Wifi_BLE_SDK/GD32VW55x_RELEASE_V1.0.2/MSDK/wpa_supplicant/src/ap\ieee802_11_he.c **** 	sz *= 1 + (ppe_thres_hdr & HE_PPE_THRES_NSS_MASK);
  31              		.loc 1 39 2
  32              	.LVL3:
  40:C:/Users/stapi/OneDrive/Desktop/GD32VW553/V1_MQTT_OK/GD32VW55X_Wifi_BLE_SDK/GD32VW55x_RELEASE_V1.0.2/MSDK/wpa_supplicant/src/ap\ieee802_11_he.c **** 	sz = (sz * 6) + 7;
  33              		.loc 1 40 2
  39:C:/Users/stapi/OneDrive/Desktop/GD32VW553/V1_MQTT_OK/GD32VW55X_Wifi_BLE_SDK/GD32VW55x_RELEASE_V1.0.2/MSDK/wpa_supplicant/src/ap\ieee802_11_he.c **** 	sz = (sz * 6) + 7;
  34              		.loc 1 39 5 is_stmt 0
  35 000a 1D89     		andi	a0,a0,7
  36              	.LVL4:
  37 000c 0505     		addi	a0,a0,1
  38              		.loc 1 40 16
  39 000e 3385A702 		mul	a0,a5,a0
  40 0012 9947     		li	a5,6
  41              	.LVL5:
  42 0014 3305F502 		mul	a0,a0,a5
  43              	.LVL6:
  41:C:/Users/stapi/OneDrive/Desktop/GD32VW553/V1_MQTT_OK/GD32VW55X_Wifi_BLE_SDK/GD32VW55x_RELEASE_V1.0.2/MSDK/wpa_supplicant/src/ap\ieee802_11_he.c **** 	if (sz % 8)
  44              		.loc 1 41 2 is_stmt 1
  42:C:/Users/stapi/OneDrive/Desktop/GD32VW553/V1_MQTT_OK/GD32VW55X_Wifi_BLE_SDK/GD32VW55x_RELEASE_V1.0.2/MSDK/wpa_supplicant/src/ap\ieee802_11_he.c **** 		sz += 8;
  45              		.loc 1 42 3
  46              		.loc 1 42 6 is_stmt 0
  47 0018 3D05     		addi	a0,a0,15
  48              	.LVL7:
  49 001a 1375F50F 		andi	a0,a0,0xff
  50              	.LVL8:
  43:C:/Users/stapi/OneDrive/Desktop/GD32VW553/V1_MQTT_OK/GD32VW55X_Wifi_BLE_SDK/GD32VW55x_RELEASE_V1.0.2/MSDK/wpa_supplicant/src/ap\ieee802_11_he.c **** 	sz /= 8;
  51              		.loc 1 43 2 is_stmt 1
  44:C:/Users/stapi/OneDrive/Desktop/GD32VW553/V1_MQTT_OK/GD32VW55X_Wifi_BLE_SDK/GD32VW55x_RELEASE_V1.0.2/MSDK/wpa_supplicant/src/ap\ieee802_11_he.c **** 
  45:C:/Users/stapi/OneDrive/Desktop/GD32VW553/V1_MQTT_OK/GD32VW55X_Wifi_BLE_SDK/GD32VW55x_RELEASE_V1.0.2/MSDK/wpa_supplicant/src/ap\ieee802_11_he.c **** 	return sz;
  52              		.loc 1 45 2
  46:C:/Users/stapi/OneDrive/Desktop/GD32VW553/V1_MQTT_OK/GD32VW55X_Wifi_BLE_SDK/GD32VW55x_RELEASE_V1.0.2/MSDK/wpa_supplicant/src/ap\ieee802_11_he.c **** }
  53              		.loc 1 46 1 is_stmt 0
  54 001e 0D81     		srli	a0,a0,3
  55              	.LVL9:
  56 0020 8280     		ret
  57              	.LVL10:
  58              	.L4:
  34:C:/Users/stapi/OneDrive/Desktop/GD32VW553/V1_MQTT_OK/GD32VW55X_Wifi_BLE_SDK/GD32VW55x_RELEASE_V1.0.2/MSDK/wpa_supplicant/src/ap\ieee802_11_he.c **** 			sz++;
  59              		.loc 1 34 3 is_stmt 1
  34:C:/Users/stapi/OneDrive/Desktop/GD32VW553/V1_MQTT_OK/GD32VW55X_Wifi_BLE_SDK/GD32VW55x_RELEASE_V1.0.2/MSDK/wpa_supplicant/src/ap\ieee802_11_he.c **** 			sz++;
  60              		.loc 1 34 6 is_stmt 0
  61 0022 93761700 		andi	a3,a4,1
  62 0026 81C6     		beq	a3,zero,.L3
  35:C:/Users/stapi/OneDrive/Desktop/GD32VW553/V1_MQTT_OK/GD32VW55X_Wifi_BLE_SDK/GD32VW55x_RELEASE_V1.0.2/MSDK/wpa_supplicant/src/ap\ieee802_11_he.c **** 		ru >>= 1;
  63              		.loc 1 35 4 is_stmt 1
  35:C:/Users/stapi/OneDrive/Desktop/GD32VW553/V1_MQTT_OK/GD32VW55X_Wifi_BLE_SDK/GD32VW55x_RELEASE_V1.0.2/MSDK/wpa_supplicant/src/ap\ieee802_11_he.c **** 		ru >>= 1;
  64              		.loc 1 35 6 is_stmt 0
  65 0028 8507     		addi	a5,a5,1
  66              	.LVL11:
  67 002a 93F7F70F 		andi	a5,a5,0xff
  68              	.LVL12:
  69              	.L3:
  36:C:/Users/stapi/OneDrive/Desktop/GD32VW553/V1_MQTT_OK/GD32VW55X_Wifi_BLE_SDK/GD32VW55x_RELEASE_V1.0.2/MSDK/wpa_supplicant/src/ap\ieee802_11_he.c **** 	}
  70              		.loc 1 36 3 is_stmt 1
  36:C:/Users/stapi/OneDrive/Desktop/GD32VW553/V1_MQTT_OK/GD32VW55X_Wifi_BLE_SDK/GD32VW55x_RELEASE_V1.0.2/MSDK/wpa_supplicant/src/ap\ieee802_11_he.c **** 	}
  71              		.loc 1 36 6 is_stmt 0
  72 002e 0583     		srli	a4,a4,1
  73              	.LVL13:
  74 0030 E1BF     		j	.L2
  75              		.cfi_endproc
  76              	.LFE152:
  78              		.section	.text.hostapd_eid_he_capab,"ax",@progbits
  79              		.align	1
  80              		.globl	hostapd_eid_he_capab
  82              	hostapd_eid_he_capab:
  83              	.LFB142:
  47:C:/Users/stapi/OneDrive/Desktop/GD32VW553/V1_MQTT_OK/GD32VW55X_Wifi_BLE_SDK/GD32VW55x_RELEASE_V1.0.2/MSDK/wpa_supplicant/src/ap\ieee802_11_he.c **** 
  48:C:/Users/stapi/OneDrive/Desktop/GD32VW553/V1_MQTT_OK/GD32VW55X_Wifi_BLE_SDK/GD32VW55x_RELEASE_V1.0.2/MSDK/wpa_supplicant/src/ap\ieee802_11_he.c **** 
  49:C:/Users/stapi/OneDrive/Desktop/GD32VW553/V1_MQTT_OK/GD32VW55X_Wifi_BLE_SDK/GD32VW55x_RELEASE_V1.0.2/MSDK/wpa_supplicant/src/ap\ieee802_11_he.c **** static u8 ieee80211_he_mcs_set_size(const u8 *phy_cap_info)
  50:C:/Users/stapi/OneDrive/Desktop/GD32VW553/V1_MQTT_OK/GD32VW55X_Wifi_BLE_SDK/GD32VW55x_RELEASE_V1.0.2/MSDK/wpa_supplicant/src/ap\ieee802_11_he.c **** {
  51:C:/Users/stapi/OneDrive/Desktop/GD32VW553/V1_MQTT_OK/GD32VW55X_Wifi_BLE_SDK/GD32VW55x_RELEASE_V1.0.2/MSDK/wpa_supplicant/src/ap\ieee802_11_he.c **** 	u8 sz = 4;
  52:C:/Users/stapi/OneDrive/Desktop/GD32VW553/V1_MQTT_OK/GD32VW55X_Wifi_BLE_SDK/GD32VW55x_RELEASE_V1.0.2/MSDK/wpa_supplicant/src/ap\ieee802_11_he.c **** 
  53:C:/Users/stapi/OneDrive/Desktop/GD32VW553/V1_MQTT_OK/GD32VW55X_Wifi_BLE_SDK/GD32VW55x_RELEASE_V1.0.2/MSDK/wpa_supplicant/src/ap\ieee802_11_he.c **** 	if (phy_cap_info[HE_PHYCAP_CHANNEL_WIDTH_SET_IDX] &
  54:C:/Users/stapi/OneDrive/Desktop/GD32VW553/V1_MQTT_OK/GD32VW55X_Wifi_BLE_SDK/GD32VW55x_RELEASE_V1.0.2/MSDK/wpa_supplicant/src/ap\ieee802_11_he.c **** 	    HE_PHYCAP_CHANNEL_WIDTH_SET_80PLUS80MHZ_IN_5G)
  55:C:/Users/stapi/OneDrive/Desktop/GD32VW553/V1_MQTT_OK/GD32VW55X_Wifi_BLE_SDK/GD32VW55x_RELEASE_V1.0.2/MSDK/wpa_supplicant/src/ap\ieee802_11_he.c **** 		sz += 4;
  56:C:/Users/stapi/OneDrive/Desktop/GD32VW553/V1_MQTT_OK/GD32VW55X_Wifi_BLE_SDK/GD32VW55x_RELEASE_V1.0.2/MSDK/wpa_supplicant/src/ap\ieee802_11_he.c **** 	if (phy_cap_info[HE_PHYCAP_CHANNEL_WIDTH_SET_IDX] &
  57:C:/Users/stapi/OneDrive/Desktop/GD32VW553/V1_MQTT_OK/GD32VW55X_Wifi_BLE_SDK/GD32VW55x_RELEASE_V1.0.2/MSDK/wpa_supplicant/src/ap\ieee802_11_he.c **** 	    HE_PHYCAP_CHANNEL_WIDTH_SET_160MHZ_IN_5G)
  58:C:/Users/stapi/OneDrive/Desktop/GD32VW553/V1_MQTT_OK/GD32VW55X_Wifi_BLE_SDK/GD32VW55x_RELEASE_V1.0.2/MSDK/wpa_supplicant/src/ap\ieee802_11_he.c **** 		sz += 4;
  59:C:/Users/stapi/OneDrive/Desktop/GD32VW553/V1_MQTT_OK/GD32VW55X_Wifi_BLE_SDK/GD32VW55x_RELEASE_V1.0.2/MSDK/wpa_supplicant/src/ap\ieee802_11_he.c **** 
  60:C:/Users/stapi/OneDrive/Desktop/GD32VW553/V1_MQTT_OK/GD32VW55X_Wifi_BLE_SDK/GD32VW55x_RELEASE_V1.0.2/MSDK/wpa_supplicant/src/ap\ieee802_11_he.c **** 	return sz;
  61:C:/Users/stapi/OneDrive/Desktop/GD32VW553/V1_MQTT_OK/GD32VW55X_Wifi_BLE_SDK/GD32VW55x_RELEASE_V1.0.2/MSDK/wpa_supplicant/src/ap\ieee802_11_he.c **** }
  62:C:/Users/stapi/OneDrive/Desktop/GD32VW553/V1_MQTT_OK/GD32VW55X_Wifi_BLE_SDK/GD32VW55x_RELEASE_V1.0.2/MSDK/wpa_supplicant/src/ap\ieee802_11_he.c **** 
  63:C:/Users/stapi/OneDrive/Desktop/GD32VW553/V1_MQTT_OK/GD32VW55X_Wifi_BLE_SDK/GD32VW55x_RELEASE_V1.0.2/MSDK/wpa_supplicant/src/ap\ieee802_11_he.c **** 
  64:C:/Users/stapi/OneDrive/Desktop/GD32VW553/V1_MQTT_OK/GD32VW55X_Wifi_BLE_SDK/GD32VW55x_RELEASE_V1.0.2/MSDK/wpa_supplicant/src/ap\ieee802_11_he.c **** static int ieee80211_invalid_he_cap_size(const u8 *buf, size_t len)
  65:C:/Users/stapi/OneDrive/Desktop/GD32VW553/V1_MQTT_OK/GD32VW55X_Wifi_BLE_SDK/GD32VW55x_RELEASE_V1.0.2/MSDK/wpa_supplicant/src/ap\ieee802_11_he.c **** {
  66:C:/Users/stapi/OneDrive/Desktop/GD32VW553/V1_MQTT_OK/GD32VW55X_Wifi_BLE_SDK/GD32VW55x_RELEASE_V1.0.2/MSDK/wpa_supplicant/src/ap\ieee802_11_he.c **** 	struct ieee80211_he_capabilities *cap;
  67:C:/Users/stapi/OneDrive/Desktop/GD32VW553/V1_MQTT_OK/GD32VW55X_Wifi_BLE_SDK/GD32VW55x_RELEASE_V1.0.2/MSDK/wpa_supplicant/src/ap\ieee802_11_he.c **** 	size_t cap_len;
  68:C:/Users/stapi/OneDrive/Desktop/GD32VW553/V1_MQTT_OK/GD32VW55X_Wifi_BLE_SDK/GD32VW55x_RELEASE_V1.0.2/MSDK/wpa_supplicant/src/ap\ieee802_11_he.c **** 
  69:C:/Users/stapi/OneDrive/Desktop/GD32VW553/V1_MQTT_OK/GD32VW55X_Wifi_BLE_SDK/GD32VW55x_RELEASE_V1.0.2/MSDK/wpa_supplicant/src/ap\ieee802_11_he.c **** 	cap = (struct ieee80211_he_capabilities *) buf;
  70:C:/Users/stapi/OneDrive/Desktop/GD32VW553/V1_MQTT_OK/GD32VW55X_Wifi_BLE_SDK/GD32VW55x_RELEASE_V1.0.2/MSDK/wpa_supplicant/src/ap\ieee802_11_he.c **** 	cap_len = sizeof(*cap) - sizeof(cap->optional);
  71:C:/Users/stapi/OneDrive/Desktop/GD32VW553/V1_MQTT_OK/GD32VW55X_Wifi_BLE_SDK/GD32VW55x_RELEASE_V1.0.2/MSDK/wpa_supplicant/src/ap\ieee802_11_he.c **** 	if (len < cap_len)
  72:C:/Users/stapi/OneDrive/Desktop/GD32VW553/V1_MQTT_OK/GD32VW55X_Wifi_BLE_SDK/GD32VW55x_RELEASE_V1.0.2/MSDK/wpa_supplicant/src/ap\ieee802_11_he.c **** 		return 1;
  73:C:/Users/stapi/OneDrive/Desktop/GD32VW553/V1_MQTT_OK/GD32VW55X_Wifi_BLE_SDK/GD32VW55x_RELEASE_V1.0.2/MSDK/wpa_supplicant/src/ap\ieee802_11_he.c **** 
  74:C:/Users/stapi/OneDrive/Desktop/GD32VW553/V1_MQTT_OK/GD32VW55X_Wifi_BLE_SDK/GD32VW55x_RELEASE_V1.0.2/MSDK/wpa_supplicant/src/ap\ieee802_11_he.c **** 	cap_len += ieee80211_he_mcs_set_size(cap->he_phy_capab_info);
  75:C:/Users/stapi/OneDrive/Desktop/GD32VW553/V1_MQTT_OK/GD32VW55X_Wifi_BLE_SDK/GD32VW55x_RELEASE_V1.0.2/MSDK/wpa_supplicant/src/ap\ieee802_11_he.c **** 	if (len < cap_len)
  76:C:/Users/stapi/OneDrive/Desktop/GD32VW553/V1_MQTT_OK/GD32VW55X_Wifi_BLE_SDK/GD32VW55x_RELEASE_V1.0.2/MSDK/wpa_supplicant/src/ap\ieee802_11_he.c **** 		return 1;
  77:C:/Users/stapi/OneDrive/Desktop/GD32VW553/V1_MQTT_OK/GD32VW55X_Wifi_BLE_SDK/GD32VW55x_RELEASE_V1.0.2/MSDK/wpa_supplicant/src/ap\ieee802_11_he.c **** 
  78:C:/Users/stapi/OneDrive/Desktop/GD32VW553/V1_MQTT_OK/GD32VW55X_Wifi_BLE_SDK/GD32VW55x_RELEASE_V1.0.2/MSDK/wpa_supplicant/src/ap\ieee802_11_he.c **** 	cap_len += ieee80211_he_ppet_size(buf[cap_len], cap->he_phy_capab_info);
  79:C:/Users/stapi/OneDrive/Desktop/GD32VW553/V1_MQTT_OK/GD32VW55X_Wifi_BLE_SDK/GD32VW55x_RELEASE_V1.0.2/MSDK/wpa_supplicant/src/ap\ieee802_11_he.c **** 
  80:C:/Users/stapi/OneDrive/Desktop/GD32VW553/V1_MQTT_OK/GD32VW55X_Wifi_BLE_SDK/GD32VW55x_RELEASE_V1.0.2/MSDK/wpa_supplicant/src/ap\ieee802_11_he.c **** 	return len != cap_len;
  81:C:/Users/stapi/OneDrive/Desktop/GD32VW553/V1_MQTT_OK/GD32VW55X_Wifi_BLE_SDK/GD32VW55x_RELEASE_V1.0.2/MSDK/wpa_supplicant/src/ap\ieee802_11_he.c **** }
  82:C:/Users/stapi/OneDrive/Desktop/GD32VW553/V1_MQTT_OK/GD32VW55X_Wifi_BLE_SDK/GD32VW55x_RELEASE_V1.0.2/MSDK/wpa_supplicant/src/ap\ieee802_11_he.c **** 
  83:C:/Users/stapi/OneDrive/Desktop/GD32VW553/V1_MQTT_OK/GD32VW55X_Wifi_BLE_SDK/GD32VW55x_RELEASE_V1.0.2/MSDK/wpa_supplicant/src/ap\ieee802_11_he.c **** 
  84:C:/Users/stapi/OneDrive/Desktop/GD32VW553/V1_MQTT_OK/GD32VW55X_Wifi_BLE_SDK/GD32VW55x_RELEASE_V1.0.2/MSDK/wpa_supplicant/src/ap\ieee802_11_he.c **** u8 * hostapd_eid_he_capab(struct hostapd_data *hapd, u8 *eid,
  85:C:/Users/stapi/OneDrive/Desktop/GD32VW553/V1_MQTT_OK/GD32VW55X_Wifi_BLE_SDK/GD32VW55x_RELEASE_V1.0.2/MSDK/wpa_supplicant/src/ap\ieee802_11_he.c **** 			  enum ieee80211_op_mode opmode)
  86:C:/Users/stapi/OneDrive/Desktop/GD32VW553/V1_MQTT_OK/GD32VW55X_Wifi_BLE_SDK/GD32VW55x_RELEASE_V1.0.2/MSDK/wpa_supplicant/src/ap\ieee802_11_he.c **** {
  84              		.loc 1 86 1 is_stmt 1
  85              		.cfi_startproc
  86              	.LVL14:
  87 0000 17030000 		call	t0,__riscv_save_10
  87      E7020300 
  88              		.cfi_offset 25, -44
  89              		.cfi_offset 24, -40
  90              		.cfi_offset 23, -36
  91              		.cfi_offset 22, -32
  92              		.cfi_offset 21, -28
  93              		.cfi_offset 20, -24
  94              		.cfi_offset 19, -20
  95              		.cfi_offset 18, -16
  96              		.cfi_offset 9, -12
  97              		.cfi_offset 8, -8
  98              		.cfi_offset 1, -4
  99              		.cfi_def_cfa_offset 48
  87:C:/Users/stapi/OneDrive/Desktop/GD32VW553/V1_MQTT_OK/GD32VW55X_Wifi_BLE_SDK/GD32VW55x_RELEASE_V1.0.2/MSDK/wpa_supplicant/src/ap\ieee802_11_he.c **** 	struct ieee80211_he_capabilities *cap;
 100              		.loc 1 87 2
  88:C:/Users/stapi/OneDrive/Desktop/GD32VW553/V1_MQTT_OK/GD32VW55X_Wifi_BLE_SDK/GD32VW55x_RELEASE_V1.0.2/MSDK/wpa_supplicant/src/ap\ieee802_11_he.c **** 	struct hostapd_hw_modes *mode = hapd->iface->current_mode;
 101              		.loc 1 88 2
 102              		.loc 1 88 38 is_stmt 0
 103 0008 0441     		lw	s1,0(a0)
  86:C:/Users/stapi/OneDrive/Desktop/GD32VW553/V1_MQTT_OK/GD32VW55X_Wifi_BLE_SDK/GD32VW55x_RELEASE_V1.0.2/MSDK/wpa_supplicant/src/ap\ieee802_11_he.c **** 	struct ieee80211_he_capabilities *cap;
 104              		.loc 1 86 1
 105 000a 2E84     		mv	s0,a1
 106              		.loc 1 88 27
 107 000c 03AA4446 		lw	s4,1124(s1)
 108              	.LVL15:
  89:C:/Users/stapi/OneDrive/Desktop/GD32VW553/V1_MQTT_OK/GD32VW55X_Wifi_BLE_SDK/GD32VW55x_RELEASE_V1.0.2/MSDK/wpa_supplicant/src/ap\ieee802_11_he.c **** 	u8 he_oper_chwidth = ~HE_PHYCAP_CHANNEL_WIDTH_MASK;
 109              		.loc 1 89 2 is_stmt 1
  90:C:/Users/stapi/OneDrive/Desktop/GD32VW553/V1_MQTT_OK/GD32VW55X_Wifi_BLE_SDK/GD32VW55x_RELEASE_V1.0.2/MSDK/wpa_supplicant/src/ap\ieee802_11_he.c **** 	u8 *pos = eid;
 110              		.loc 1 90 2
  91:C:/Users/stapi/OneDrive/Desktop/GD32VW553/V1_MQTT_OK/GD32VW55X_Wifi_BLE_SDK/GD32VW55x_RELEASE_V1.0.2/MSDK/wpa_supplicant/src/ap\ieee802_11_he.c **** 	u8 ie_size = 0, mcs_nss_size = 4, ppet_size = 0;
 111              		.loc 1 91 2
  92:C:/Users/stapi/OneDrive/Desktop/GD32VW553/V1_MQTT_OK/GD32VW55X_Wifi_BLE_SDK/GD32VW55x_RELEASE_V1.0.2/MSDK/wpa_supplicant/src/ap\ieee802_11_he.c **** 
  93:C:/Users/stapi/OneDrive/Desktop/GD32VW553/V1_MQTT_OK/GD32VW55X_Wifi_BLE_SDK/GD32VW55x_RELEASE_V1.0.2/MSDK/wpa_supplicant/src/ap\ieee802_11_he.c **** 	if (!mode)
 112              		.loc 1 93 2
 113              		.loc 1 93 5 is_stmt 0
 114 0010 63090A12 		beq	s4,zero,.L9
  94:C:/Users/stapi/OneDrive/Desktop/GD32VW553/V1_MQTT_OK/GD32VW55X_Wifi_BLE_SDK/GD32VW55x_RELEASE_V1.0.2/MSDK/wpa_supplicant/src/ap\ieee802_11_he.c **** 		return eid;
  95:C:/Users/stapi/OneDrive/Desktop/GD32VW553/V1_MQTT_OK/GD32VW55X_Wifi_BLE_SDK/GD32VW55x_RELEASE_V1.0.2/MSDK/wpa_supplicant/src/ap\ieee802_11_he.c **** 
  96:C:/Users/stapi/OneDrive/Desktop/GD32VW553/V1_MQTT_OK/GD32VW55X_Wifi_BLE_SDK/GD32VW55x_RELEASE_V1.0.2/MSDK/wpa_supplicant/src/ap\ieee802_11_he.c **** 	ie_size = sizeof(*cap) - sizeof(cap->optional);
  97:C:/Users/stapi/OneDrive/Desktop/GD32VW553/V1_MQTT_OK/GD32VW55X_Wifi_BLE_SDK/GD32VW55x_RELEASE_V1.0.2/MSDK/wpa_supplicant/src/ap\ieee802_11_he.c **** 	ppet_size = ieee80211_he_ppet_size(mode->he_capab[opmode].ppet[0],
 115              		.loc 1 97 14
 116 0014 1309A003 		li	s2,58
 117 0018 33092603 		mul	s2,a2,s2
 118 001c 2A8B     		mv	s6,a0
  96:C:/Users/stapi/OneDrive/Desktop/GD32VW553/V1_MQTT_OK/GD32VW55X_Wifi_BLE_SDK/GD32VW55x_RELEASE_V1.0.2/MSDK/wpa_supplicant/src/ap\ieee802_11_he.c **** 	ppet_size = ieee80211_he_ppet_size(mode->he_capab[opmode].ppet[0],
 119              		.loc 1 96 2 is_stmt 1
 120              	.LVL16:
 121              		.loc 1 97 2
 122              	.LBB14:
 123              	.LBB15:
  29:C:/Users/stapi/OneDrive/Desktop/GD32VW553/V1_MQTT_OK/GD32VW55X_Wifi_BLE_SDK/GD32VW55x_RELEASE_V1.0.2/MSDK/wpa_supplicant/src/ap\ieee802_11_he.c **** 
 124              		.loc 1 29 10 is_stmt 0
 125 001e 814A     		li	s5,0
 126              	.LBE15:
 127              	.LBE14:
  98:C:/Users/stapi/OneDrive/Desktop/GD32VW553/V1_MQTT_OK/GD32VW55X_Wifi_BLE_SDK/GD32VW55x_RELEASE_V1.0.2/MSDK/wpa_supplicant/src/ap\ieee802_11_he.c **** 					   mode->he_capab[opmode].phy_cap);
 128              		.loc 1 98 31
 129 0020 930C9903 		addi	s9,s2,57
  97:C:/Users/stapi/OneDrive/Desktop/GD32VW553/V1_MQTT_OK/GD32VW55X_Wifi_BLE_SDK/GD32VW55x_RELEASE_V1.0.2/MSDK/wpa_supplicant/src/ap\ieee802_11_he.c **** 					   mode->he_capab[opmode].phy_cap);
 130              		.loc 1 97 14
 131 0024 B3072A01 		add	a5,s4,s2
 132              		.loc 1 98 31
 133 0028 D29C     		add	s9,s4,s9
  97:C:/Users/stapi/OneDrive/Desktop/GD32VW553/V1_MQTT_OK/GD32VW55X_Wifi_BLE_SDK/GD32VW55x_RELEASE_V1.0.2/MSDK/wpa_supplicant/src/ap\ieee802_11_he.c **** 					   mode->he_capab[opmode].phy_cap);
 134              		.loc 1 97 14
 135 002a 03C56705 		lbu	a0,86(a5)
 136              	.LVL17:
 137              	.LBB17:
 138              	.LBB16:
  25:C:/Users/stapi/OneDrive/Desktop/GD32VW553/V1_MQTT_OK/GD32VW55X_Wifi_BLE_SDK/GD32VW55x_RELEASE_V1.0.2/MSDK/wpa_supplicant/src/ap\ieee802_11_he.c **** 
 139              		.loc 1 25 2 is_stmt 1
  27:C:/Users/stapi/OneDrive/Desktop/GD32VW553/V1_MQTT_OK/GD32VW55X_Wifi_BLE_SDK/GD32VW55x_RELEASE_V1.0.2/MSDK/wpa_supplicant/src/ap\ieee802_11_he.c **** 	     HE_PHYCAP_PPE_THRESHOLD_PRESENT) == 0)
 140              		.loc 1 27 2
  27:C:/Users/stapi/OneDrive/Desktop/GD32VW553/V1_MQTT_OK/GD32VW55X_Wifi_BLE_SDK/GD32VW55x_RELEASE_V1.0.2/MSDK/wpa_supplicant/src/ap\ieee802_11_he.c **** 	     HE_PHYCAP_PPE_THRESHOLD_PRESENT) == 0)
 141              		.loc 1 27 5 is_stmt 0
 142 002e 83876C00 		lb	a5,6(s9)
 143 0032 63D70700 		bge	a5,zero,.L10
 144 0036 97000000 		call	ieee80211_he_ppet_size.part.0
 144      E7800000 
 145              	.LVL18:
 146 003e AA8A     		mv	s5,a0
 147              	.L10:
 148              	.LVL19:
 149              	.LBE16:
 150              	.LBE17:
  99:C:/Users/stapi/OneDrive/Desktop/GD32VW553/V1_MQTT_OK/GD32VW55X_Wifi_BLE_SDK/GD32VW55x_RELEASE_V1.0.2/MSDK/wpa_supplicant/src/ap\ieee802_11_he.c **** 
 100:C:/Users/stapi/OneDrive/Desktop/GD32VW553/V1_MQTT_OK/GD32VW55X_Wifi_BLE_SDK/GD32VW55x_RELEASE_V1.0.2/MSDK/wpa_supplicant/src/ap\ieee802_11_he.c **** 	switch (hapd->iface->conf->he_oper_chwidth) {
 151              		.loc 1 100 2 is_stmt 1
 152              		.loc 1 100 27 is_stmt 0
 153 0040 DC44     		lw	a5,12(s1)
 154              		.loc 1 100 2
 155 0042 0947     		li	a4,2
 156              		.loc 1 100 27
 157 0044 83C79718 		lbu	a5,393(a5)
 158              		.loc 1 100 2
 159 0048 6382E710 		beq	a5,a4,.L22
 160 004c 6374F710 		bleu	a5,a4,.L23
 161 0050 0D47     		li	a4,3
 162 0052 6395E710 		bne	a5,a4,.L24
 163 0056 A144     		li	s1,8
 164 0058 9309100F 		li	s3,241
 165              	.L11:
 166              	.LVL20:
 101:C:/Users/stapi/OneDrive/Desktop/GD32VW553/V1_MQTT_OK/GD32VW55X_Wifi_BLE_SDK/GD32VW55x_RELEASE_V1.0.2/MSDK/wpa_supplicant/src/ap\ieee802_11_he.c **** 	case CHANWIDTH_80P80MHZ:
 102:C:/Users/stapi/OneDrive/Desktop/GD32VW553/V1_MQTT_OK/GD32VW55X_Wifi_BLE_SDK/GD32VW55x_RELEASE_V1.0.2/MSDK/wpa_supplicant/src/ap\ieee802_11_he.c **** 		he_oper_chwidth |=
 103:C:/Users/stapi/OneDrive/Desktop/GD32VW553/V1_MQTT_OK/GD32VW55X_Wifi_BLE_SDK/GD32VW55x_RELEASE_V1.0.2/MSDK/wpa_supplicant/src/ap\ieee802_11_he.c **** 			HE_PHYCAP_CHANNEL_WIDTH_SET_80PLUS80MHZ_IN_5G;
 104:C:/Users/stapi/OneDrive/Desktop/GD32VW553/V1_MQTT_OK/GD32VW55X_Wifi_BLE_SDK/GD32VW55x_RELEASE_V1.0.2/MSDK/wpa_supplicant/src/ap\ieee802_11_he.c **** 		mcs_nss_size += 4;
 105:C:/Users/stapi/OneDrive/Desktop/GD32VW553/V1_MQTT_OK/GD32VW55X_Wifi_BLE_SDK/GD32VW55x_RELEASE_V1.0.2/MSDK/wpa_supplicant/src/ap\ieee802_11_he.c **** 		/* fall through */
 106:C:/Users/stapi/OneDrive/Desktop/GD32VW553/V1_MQTT_OK/GD32VW55X_Wifi_BLE_SDK/GD32VW55x_RELEASE_V1.0.2/MSDK/wpa_supplicant/src/ap\ieee802_11_he.c **** 	case CHANWIDTH_160MHZ:
 107:C:/Users/stapi/OneDrive/Desktop/GD32VW553/V1_MQTT_OK/GD32VW55X_Wifi_BLE_SDK/GD32VW55x_RELEASE_V1.0.2/MSDK/wpa_supplicant/src/ap\ieee802_11_he.c **** 		he_oper_chwidth |= HE_PHYCAP_CHANNEL_WIDTH_SET_160MHZ_IN_5G;
 167              		.loc 1 107 3 is_stmt 1
 168              		.loc 1 107 19 is_stmt 0
 169 005c 93E98900 		ori	s3,s3,8
 170              	.LVL21:
 108:C:/Users/stapi/OneDrive/Desktop/GD32VW553/V1_MQTT_OK/GD32VW55X_Wifi_BLE_SDK/GD32VW55x_RELEASE_V1.0.2/MSDK/wpa_supplicant/src/ap\ieee802_11_he.c **** 		mcs_nss_size += 4;
 171              		.loc 1 108 3 is_stmt 1
 172              		.loc 1 108 16 is_stmt 0
 173 0060 9104     		addi	s1,s1,4
 174              	.LVL22:
 175              	.L12:
 109:C:/Users/stapi/OneDrive/Desktop/GD32VW553/V1_MQTT_OK/GD32VW55X_Wifi_BLE_SDK/GD32VW55x_RELEASE_V1.0.2/MSDK/wpa_supplicant/src/ap\ieee802_11_he.c **** 		/* fall through */
 110:C:/Users/stapi/OneDrive/Desktop/GD32VW553/V1_MQTT_OK/GD32VW55X_Wifi_BLE_SDK/GD32VW55x_RELEASE_V1.0.2/MSDK/wpa_supplicant/src/ap\ieee802_11_he.c **** 	case CHANWIDTH_80MHZ:
 111:C:/Users/stapi/OneDrive/Desktop/GD32VW553/V1_MQTT_OK/GD32VW55X_Wifi_BLE_SDK/GD32VW55x_RELEASE_V1.0.2/MSDK/wpa_supplicant/src/ap\ieee802_11_he.c **** 	case CHANWIDTH_USE_HT:
 112:C:/Users/stapi/OneDrive/Desktop/GD32VW553/V1_MQTT_OK/GD32VW55X_Wifi_BLE_SDK/GD32VW55x_RELEASE_V1.0.2/MSDK/wpa_supplicant/src/ap\ieee802_11_he.c **** 		he_oper_chwidth |= HE_PHYCAP_CHANNEL_WIDTH_SET_40MHZ_IN_2G |
 176              		.loc 1 112 3 is_stmt 1
 177              		.loc 1 112 19 is_stmt 0
 178 0062 93E96900 		ori	s3,s3,6
 179              	.LVL23:
 113:C:/Users/stapi/OneDrive/Desktop/GD32VW553/V1_MQTT_OK/GD32VW55X_Wifi_BLE_SDK/GD32VW55x_RELEASE_V1.0.2/MSDK/wpa_supplicant/src/ap\ieee802_11_he.c **** 			HE_PHYCAP_CHANNEL_WIDTH_SET_40MHZ_80MHZ_IN_5G;
 114:C:/Users/stapi/OneDrive/Desktop/GD32VW553/V1_MQTT_OK/GD32VW55X_Wifi_BLE_SDK/GD32VW55x_RELEASE_V1.0.2/MSDK/wpa_supplicant/src/ap\ieee802_11_he.c **** 		break;
 180              		.loc 1 114 3 is_stmt 1
 181              	.L13:
 115:C:/Users/stapi/OneDrive/Desktop/GD32VW553/V1_MQTT_OK/GD32VW55X_Wifi_BLE_SDK/GD32VW55x_RELEASE_V1.0.2/MSDK/wpa_supplicant/src/ap\ieee802_11_he.c **** 	}
 116:C:/Users/stapi/OneDrive/Desktop/GD32VW553/V1_MQTT_OK/GD32VW55X_Wifi_BLE_SDK/GD32VW55x_RELEASE_V1.0.2/MSDK/wpa_supplicant/src/ap\ieee802_11_he.c **** 
 117:C:/Users/stapi/OneDrive/Desktop/GD32VW553/V1_MQTT_OK/GD32VW55X_Wifi_BLE_SDK/GD32VW55x_RELEASE_V1.0.2/MSDK/wpa_supplicant/src/ap\ieee802_11_he.c **** 	ie_size += mcs_nss_size + ppet_size;
 182              		.loc 1 117 2
 183              		.loc 1 117 26 is_stmt 0
 184 0066 B3875401 		add	a5,s1,s5
 185 006a 93F7F70F 		andi	a5,a5,0xff
 186              		.loc 1 117 10
 187 006e 938B1701 		addi	s7,a5,17
 118:C:/Users/stapi/OneDrive/Desktop/GD32VW553/V1_MQTT_OK/GD32VW55X_Wifi_BLE_SDK/GD32VW55x_RELEASE_V1.0.2/MSDK/wpa_supplicant/src/ap\ieee802_11_he.c **** 
 119:C:/Users/stapi/OneDrive/Desktop/GD32VW553/V1_MQTT_OK/GD32VW55X_Wifi_BLE_SDK/GD32VW55x_RELEASE_V1.0.2/MSDK/wpa_supplicant/src/ap\ieee802_11_he.c **** 	*pos++ = WLAN_EID_EXTENSION;
 120:C:/Users/stapi/OneDrive/Desktop/GD32VW553/V1_MQTT_OK/GD32VW55X_Wifi_BLE_SDK/GD32VW55x_RELEASE_V1.0.2/MSDK/wpa_supplicant/src/ap\ieee802_11_he.c **** 	*pos++ = 1 + ie_size;
 188              		.loc 1 120 13
 189 0072 C907     		addi	a5,a5,18
 119:C:/Users/stapi/OneDrive/Desktop/GD32VW553/V1_MQTT_OK/GD32VW55X_Wifi_BLE_SDK/GD32VW55x_RELEASE_V1.0.2/MSDK/wpa_supplicant/src/ap\ieee802_11_he.c **** 	*pos++ = 1 + ie_size;
 190              		.loc 1 119 9
 191 0074 7D57     		li	a4,-1
 192              		.loc 1 120 9
 193 0076 A300F400 		sb	a5,1(s0)
 121:C:/Users/stapi/OneDrive/Desktop/GD32VW553/V1_MQTT_OK/GD32VW55X_Wifi_BLE_SDK/GD32VW55x_RELEASE_V1.0.2/MSDK/wpa_supplicant/src/ap\ieee802_11_he.c **** 	*pos++ = WLAN_EID_EXT_HE_CAPABILITIES;
 194              		.loc 1 121 6
 195 007a 130C3400 		addi	s8,s0,3
 196              		.loc 1 121 9
 197 007e 93073002 		li	a5,35
 119:C:/Users/stapi/OneDrive/Desktop/GD32VW553/V1_MQTT_OK/GD32VW55X_Wifi_BLE_SDK/GD32VW55x_RELEASE_V1.0.2/MSDK/wpa_supplicant/src/ap\ieee802_11_he.c **** 	*pos++ = 1 + ie_size;
 198              		.loc 1 119 9
 199 0082 2300E400 		sb	a4,0(s0)
 200              		.loc 1 121 9
 201 0086 2301F400 		sb	a5,2(s0)
 122:C:/Users/stapi/OneDrive/Desktop/GD32VW553/V1_MQTT_OK/GD32VW55X_Wifi_BLE_SDK/GD32VW55x_RELEASE_V1.0.2/MSDK/wpa_supplicant/src/ap\ieee802_11_he.c **** 
 123:C:/Users/stapi/OneDrive/Desktop/GD32VW553/V1_MQTT_OK/GD32VW55X_Wifi_BLE_SDK/GD32VW55x_RELEASE_V1.0.2/MSDK/wpa_supplicant/src/ap\ieee802_11_he.c **** 	cap = (struct ieee80211_he_capabilities *) pos;
 124:C:/Users/stapi/OneDrive/Desktop/GD32VW553/V1_MQTT_OK/GD32VW55X_Wifi_BLE_SDK/GD32VW55x_RELEASE_V1.0.2/MSDK/wpa_supplicant/src/ap\ieee802_11_he.c **** 	os_memset(cap, 0, sizeof(*cap));
 202              		.loc 1 124 2
 203 008a 13066003 		li	a2,54
 204 008e 8145     		li	a1,0
 205 0090 6285     		mv	a0,s8
 206 0092 97000000 		call	os_memset
 206      E7800000 
 207              	.LVL24:
 125:C:/Users/stapi/OneDrive/Desktop/GD32VW553/V1_MQTT_OK/GD32VW55X_Wifi_BLE_SDK/GD32VW55x_RELEASE_V1.0.2/MSDK/wpa_supplicant/src/ap\ieee802_11_he.c **** 
 126:C:/Users/stapi/OneDrive/Desktop/GD32VW553/V1_MQTT_OK/GD32VW55X_Wifi_BLE_SDK/GD32VW55x_RELEASE_V1.0.2/MSDK/wpa_supplicant/src/ap\ieee802_11_he.c **** 	os_memcpy(cap->he_mac_capab_info, mode->he_capab[opmode].mac_cap,
 208              		.loc 1 126 58
 209 009a 93054904 		addi	a1,s2,68
 210              		.loc 1 126 2
 211 009e 1946     		li	a2,6
 212 00a0 D295     		add	a1,s4,a1
 213 00a2 6285     		mv	a0,s8
 214 00a4 97000000 		call	os_memcpy
 214      E7800000 
 215              	.LVL25:
 127:C:/Users/stapi/OneDrive/Desktop/GD32VW553/V1_MQTT_OK/GD32VW55X_Wifi_BLE_SDK/GD32VW55x_RELEASE_V1.0.2/MSDK/wpa_supplicant/src/ap\ieee802_11_he.c **** 		  HE_MAX_MAC_CAPAB_SIZE);
 128:C:/Users/stapi/OneDrive/Desktop/GD32VW553/V1_MQTT_OK/GD32VW55X_Wifi_BLE_SDK/GD32VW55x_RELEASE_V1.0.2/MSDK/wpa_supplicant/src/ap\ieee802_11_he.c **** 	os_memcpy(cap->he_phy_capab_info, mode->he_capab[opmode].phy_cap,
 216              		.loc 1 128 2
 217 00ac 2D46     		li	a2,11
 218 00ae E685     		mv	a1,s9
 219 00b0 13059400 		addi	a0,s0,9
 220 00b4 97000000 		call	os_memcpy
 220      E7800000 
 221              	.LVL26:
 129:C:/Users/stapi/OneDrive/Desktop/GD32VW553/V1_MQTT_OK/GD32VW55X_Wifi_BLE_SDK/GD32VW55x_RELEASE_V1.0.2/MSDK/wpa_supplicant/src/ap\ieee802_11_he.c **** 		  HE_MAX_PHY_CAPAB_SIZE);
 130:C:/Users/stapi/OneDrive/Desktop/GD32VW553/V1_MQTT_OK/GD32VW55X_Wifi_BLE_SDK/GD32VW55x_RELEASE_V1.0.2/MSDK/wpa_supplicant/src/ap\ieee802_11_he.c **** 	os_memcpy(cap->optional, mode->he_capab[opmode].mcs, mcs_nss_size);
 222              		.loc 1 130 49
 223 00bc 9305A904 		addi	a1,s2,74
 224              		.loc 1 130 2
 225 00c0 2686     		mv	a2,s1
 226 00c2 D295     		add	a1,s4,a1
 227 00c4 13054401 		addi	a0,s0,20
 117:C:/Users/stapi/OneDrive/Desktop/GD32VW553/V1_MQTT_OK/GD32VW55X_Wifi_BLE_SDK/GD32VW55x_RELEASE_V1.0.2/MSDK/wpa_supplicant/src/ap\ieee802_11_he.c **** 
 228              		.loc 1 117 10
 229 00c8 93FBFB0F 		andi	s7,s7,0xff
 230              	.LVL27:
 119:C:/Users/stapi/OneDrive/Desktop/GD32VW553/V1_MQTT_OK/GD32VW55X_Wifi_BLE_SDK/GD32VW55x_RELEASE_V1.0.2/MSDK/wpa_supplicant/src/ap\ieee802_11_he.c **** 	*pos++ = 1 + ie_size;
 231              		.loc 1 119 2 is_stmt 1
 120:C:/Users/stapi/OneDrive/Desktop/GD32VW553/V1_MQTT_OK/GD32VW55X_Wifi_BLE_SDK/GD32VW55x_RELEASE_V1.0.2/MSDK/wpa_supplicant/src/ap\ieee802_11_he.c **** 	*pos++ = WLAN_EID_EXT_HE_CAPABILITIES;
 232              		.loc 1 120 2
 121:C:/Users/stapi/OneDrive/Desktop/GD32VW553/V1_MQTT_OK/GD32VW55X_Wifi_BLE_SDK/GD32VW55x_RELEASE_V1.0.2/MSDK/wpa_supplicant/src/ap\ieee802_11_he.c **** 
 233              		.loc 1 121 2
 123:C:/Users/stapi/OneDrive/Desktop/GD32VW553/V1_MQTT_OK/GD32VW55X_Wifi_BLE_SDK/GD32VW55x_RELEASE_V1.0.2/MSDK/wpa_supplicant/src/ap\ieee802_11_he.c **** 	os_memset(cap, 0, sizeof(*cap));
 234              		.loc 1 123 2
 124:C:/Users/stapi/OneDrive/Desktop/GD32VW553/V1_MQTT_OK/GD32VW55X_Wifi_BLE_SDK/GD32VW55x_RELEASE_V1.0.2/MSDK/wpa_supplicant/src/ap\ieee802_11_he.c **** 
 235              		.loc 1 124 2
 126:C:/Users/stapi/OneDrive/Desktop/GD32VW553/V1_MQTT_OK/GD32VW55X_Wifi_BLE_SDK/GD32VW55x_RELEASE_V1.0.2/MSDK/wpa_supplicant/src/ap\ieee802_11_he.c **** 		  HE_MAX_MAC_CAPAB_SIZE);
 236              		.loc 1 126 2
 128:C:/Users/stapi/OneDrive/Desktop/GD32VW553/V1_MQTT_OK/GD32VW55X_Wifi_BLE_SDK/GD32VW55x_RELEASE_V1.0.2/MSDK/wpa_supplicant/src/ap\ieee802_11_he.c **** 		  HE_MAX_PHY_CAPAB_SIZE);
 237              		.loc 1 128 2
 238              		.loc 1 130 2
 239 00cc 97000000 		call	os_memcpy
 239      E7800000 
 240              	.LVL28:
 131:C:/Users/stapi/OneDrive/Desktop/GD32VW553/V1_MQTT_OK/GD32VW55X_Wifi_BLE_SDK/GD32VW55x_RELEASE_V1.0.2/MSDK/wpa_supplicant/src/ap\ieee802_11_he.c **** 	if (ppet_size)
 241              		.loc 1 131 2
 242              		.loc 1 131 5 is_stmt 0
 243 00d4 638F0A00 		beq	s5,zero,.L14
 132:C:/Users/stapi/OneDrive/Desktop/GD32VW553/V1_MQTT_OK/GD32VW55X_Wifi_BLE_SDK/GD32VW55x_RELEASE_V1.0.2/MSDK/wpa_supplicant/src/ap\ieee802_11_he.c **** 		os_memcpy(&cap->optional[mcs_nss_size],
 244              		.loc 1 132 3 is_stmt 1
 245              		.loc 1 132 13 is_stmt 0
 246 00d8 C504     		addi	s1,s1,17
 247              	.LVL29:
 133:C:/Users/stapi/OneDrive/Desktop/GD32VW553/V1_MQTT_OK/GD32VW55X_Wifi_BLE_SDK/GD32VW55x_RELEASE_V1.0.2/MSDK/wpa_supplicant/src/ap\ieee802_11_he.c **** 			  mode->he_capab[opmode].ppet,  ppet_size);
 248              		.loc 1 133 28
 249 00da 93056905 		addi	a1,s2,86
 132:C:/Users/stapi/OneDrive/Desktop/GD32VW553/V1_MQTT_OK/GD32VW55X_Wifi_BLE_SDK/GD32VW55x_RELEASE_V1.0.2/MSDK/wpa_supplicant/src/ap\ieee802_11_he.c **** 		os_memcpy(&cap->optional[mcs_nss_size],
 250              		.loc 1 132 13
 251 00de 93F4F40F 		andi	s1,s1,0xff
 132:C:/Users/stapi/OneDrive/Desktop/GD32VW553/V1_MQTT_OK/GD32VW55X_Wifi_BLE_SDK/GD32VW55x_RELEASE_V1.0.2/MSDK/wpa_supplicant/src/ap\ieee802_11_he.c **** 		os_memcpy(&cap->optional[mcs_nss_size],
 252              		.loc 1 132 3
 253 00e2 5686     		mv	a2,s5
 254 00e4 D295     		add	a1,s4,a1
 255 00e6 33059C00 		add	a0,s8,s1
 256 00ea 97000000 		call	os_memcpy
 256      E7800000 
 257              	.LVL30:
 258              	.L14:
 134:C:/Users/stapi/OneDrive/Desktop/GD32VW553/V1_MQTT_OK/GD32VW55X_Wifi_BLE_SDK/GD32VW55x_RELEASE_V1.0.2/MSDK/wpa_supplicant/src/ap\ieee802_11_he.c **** 
 135:C:/Users/stapi/OneDrive/Desktop/GD32VW553/V1_MQTT_OK/GD32VW55X_Wifi_BLE_SDK/GD32VW55x_RELEASE_V1.0.2/MSDK/wpa_supplicant/src/ap\ieee802_11_he.c **** 	if (hapd->iface->conf->he_phy_capab.he_su_beamformer)
 259              		.loc 1 135 2 is_stmt 1
 260              		.loc 1 135 17 is_stmt 0
 261 00f2 83270B00 		lw	a5,0(s6)
 136:C:/Users/stapi/OneDrive/Desktop/GD32VW553/V1_MQTT_OK/GD32VW55X_Wifi_BLE_SDK/GD32VW55x_RELEASE_V1.0.2/MSDK/wpa_supplicant/src/ap\ieee802_11_he.c **** 		cap->he_phy_capab_info[HE_PHYCAP_SU_BEAMFORMER_CAPAB_IDX] |=
 262              		.loc 1 136 61
 263 00f6 8346C400 		lbu	a3,12(s0)
 135:C:/Users/stapi/OneDrive/Desktop/GD32VW553/V1_MQTT_OK/GD32VW55X_Wifi_BLE_SDK/GD32VW55x_RELEASE_V1.0.2/MSDK/wpa_supplicant/src/ap\ieee802_11_he.c **** 		cap->he_phy_capab_info[HE_PHYCAP_SU_BEAMFORMER_CAPAB_IDX] |=
 264              		.loc 1 135 17
 265 00fa D847     		lw	a4,12(a5)
 137:C:/Users/stapi/OneDrive/Desktop/GD32VW553/V1_MQTT_OK/GD32VW55X_Wifi_BLE_SDK/GD32VW55x_RELEASE_V1.0.2/MSDK/wpa_supplicant/src/ap\ieee802_11_he.c **** 			HE_PHYCAP_SU_BEAMFORMER_CAPAB;
 138:C:/Users/stapi/OneDrive/Desktop/GD32VW553/V1_MQTT_OK/GD32VW55X_Wifi_BLE_SDK/GD32VW55x_RELEASE_V1.0.2/MSDK/wpa_supplicant/src/ap\ieee802_11_he.c **** 	else
 139:C:/Users/stapi/OneDrive/Desktop/GD32VW553/V1_MQTT_OK/GD32VW55X_Wifi_BLE_SDK/GD32VW55x_RELEASE_V1.0.2/MSDK/wpa_supplicant/src/ap\ieee802_11_he.c **** 		cap->he_phy_capab_info[HE_PHYCAP_SU_BEAMFORMER_CAPAB_IDX] &=
 266              		.loc 1 139 61
 267 00fc 93F7F607 		andi	a5,a3,127
 135:C:/Users/stapi/OneDrive/Desktop/GD32VW553/V1_MQTT_OK/GD32VW55X_Wifi_BLE_SDK/GD32VW55x_RELEASE_V1.0.2/MSDK/wpa_supplicant/src/ap\ieee802_11_he.c **** 		cap->he_phy_capab_info[HE_PHYCAP_SU_BEAMFORMER_CAPAB_IDX] |=
 268              		.loc 1 135 5
 269 0100 03468715 		lbu	a2,344(a4)
 270 0104 19C2     		beq	a2,zero,.L16
 136:C:/Users/stapi/OneDrive/Desktop/GD32VW553/V1_MQTT_OK/GD32VW55X_Wifi_BLE_SDK/GD32VW55x_RELEASE_V1.0.2/MSDK/wpa_supplicant/src/ap\ieee802_11_he.c **** 			HE_PHYCAP_SU_BEAMFORMER_CAPAB;
 271              		.loc 1 136 3 is_stmt 1
 136:C:/Users/stapi/OneDrive/Desktop/GD32VW553/V1_MQTT_OK/GD32VW55X_Wifi_BLE_SDK/GD32VW55x_RELEASE_V1.0.2/MSDK/wpa_supplicant/src/ap\ieee802_11_he.c **** 			HE_PHYCAP_SU_BEAMFORMER_CAPAB;
 272              		.loc 1 136 61 is_stmt 0
 273 0106 93E70608 		ori	a5,a3,128
 274              	.L16:
 275 010a 2306F400 		sb	a5,12(s0)
 140:C:/Users/stapi/OneDrive/Desktop/GD32VW553/V1_MQTT_OK/GD32VW55X_Wifi_BLE_SDK/GD32VW55x_RELEASE_V1.0.2/MSDK/wpa_supplicant/src/ap\ieee802_11_he.c **** 			~HE_PHYCAP_SU_BEAMFORMER_CAPAB;
 141:C:/Users/stapi/OneDrive/Desktop/GD32VW553/V1_MQTT_OK/GD32VW55X_Wifi_BLE_SDK/GD32VW55x_RELEASE_V1.0.2/MSDK/wpa_supplicant/src/ap\ieee802_11_he.c **** 
 142:C:/Users/stapi/OneDrive/Desktop/GD32VW553/V1_MQTT_OK/GD32VW55X_Wifi_BLE_SDK/GD32VW55x_RELEASE_V1.0.2/MSDK/wpa_supplicant/src/ap\ieee802_11_he.c **** 	if (hapd->iface->conf->he_phy_capab.he_su_beamformee)
 276              		.loc 1 142 2 is_stmt 1
 143:C:/Users/stapi/OneDrive/Desktop/GD32VW553/V1_MQTT_OK/GD32VW55X_Wifi_BLE_SDK/GD32VW55x_RELEASE_V1.0.2/MSDK/wpa_supplicant/src/ap\ieee802_11_he.c **** 		cap->he_phy_capab_info[HE_PHYCAP_SU_BEAMFORMEE_CAPAB_IDX] |=
 277              		.loc 1 143 61 is_stmt 0
 278 010e 8346D400 		lbu	a3,13(s0)
 142:C:/Users/stapi/OneDrive/Desktop/GD32VW553/V1_MQTT_OK/GD32VW55X_Wifi_BLE_SDK/GD32VW55x_RELEASE_V1.0.2/MSDK/wpa_supplicant/src/ap\ieee802_11_he.c **** 		cap->he_phy_capab_info[HE_PHYCAP_SU_BEAMFORMEE_CAPAB_IDX] |=
 279              		.loc 1 142 5
 280 0112 03469715 		lbu	a2,345(a4)
 144:C:/Users/stapi/OneDrive/Desktop/GD32VW553/V1_MQTT_OK/GD32VW55X_Wifi_BLE_SDK/GD32VW55x_RELEASE_V1.0.2/MSDK/wpa_supplicant/src/ap\ieee802_11_he.c **** 			HE_PHYCAP_SU_BEAMFORMEE_CAPAB;
 145:C:/Users/stapi/OneDrive/Desktop/GD32VW553/V1_MQTT_OK/GD32VW55X_Wifi_BLE_SDK/GD32VW55x_RELEASE_V1.0.2/MSDK/wpa_supplicant/src/ap\ieee802_11_he.c **** 	else
 146:C:/Users/stapi/OneDrive/Desktop/GD32VW553/V1_MQTT_OK/GD32VW55X_Wifi_BLE_SDK/GD32VW55x_RELEASE_V1.0.2/MSDK/wpa_supplicant/src/ap\ieee802_11_he.c **** 		cap->he_phy_capab_info[HE_PHYCAP_SU_BEAMFORMEE_CAPAB_IDX] &=
 281              		.loc 1 146 61
 282 0116 93F7E60F 		andi	a5,a3,254
 142:C:/Users/stapi/OneDrive/Desktop/GD32VW553/V1_MQTT_OK/GD32VW55X_Wifi_BLE_SDK/GD32VW55x_RELEASE_V1.0.2/MSDK/wpa_supplicant/src/ap\ieee802_11_he.c **** 		cap->he_phy_capab_info[HE_PHYCAP_SU_BEAMFORMEE_CAPAB_IDX] |=
 283              		.loc 1 142 5
 284 011a 19C2     		beq	a2,zero,.L18
 143:C:/Users/stapi/OneDrive/Desktop/GD32VW553/V1_MQTT_OK/GD32VW55X_Wifi_BLE_SDK/GD32VW55x_RELEASE_V1.0.2/MSDK/wpa_supplicant/src/ap\ieee802_11_he.c **** 			HE_PHYCAP_SU_BEAMFORMEE_CAPAB;
 285              		.loc 1 143 3 is_stmt 1
 143:C:/Users/stapi/OneDrive/Desktop/GD32VW553/V1_MQTT_OK/GD32VW55X_Wifi_BLE_SDK/GD32VW55x_RELEASE_V1.0.2/MSDK/wpa_supplicant/src/ap\ieee802_11_he.c **** 			HE_PHYCAP_SU_BEAMFORMEE_CAPAB;
 286              		.loc 1 143 61 is_stmt 0
 287 011c 93E71600 		ori	a5,a3,1
 288              	.L18:
 147:C:/Users/stapi/OneDrive/Desktop/GD32VW553/V1_MQTT_OK/GD32VW55X_Wifi_BLE_SDK/GD32VW55x_RELEASE_V1.0.2/MSDK/wpa_supplicant/src/ap\ieee802_11_he.c **** 			~HE_PHYCAP_SU_BEAMFORMEE_CAPAB;
 148:C:/Users/stapi/OneDrive/Desktop/GD32VW553/V1_MQTT_OK/GD32VW55X_Wifi_BLE_SDK/GD32VW55x_RELEASE_V1.0.2/MSDK/wpa_supplicant/src/ap\ieee802_11_he.c **** 
 149:C:/Users/stapi/OneDrive/Desktop/GD32VW553/V1_MQTT_OK/GD32VW55X_Wifi_BLE_SDK/GD32VW55x_RELEASE_V1.0.2/MSDK/wpa_supplicant/src/ap\ieee802_11_he.c **** 	if (hapd->iface->conf->he_phy_capab.he_mu_beamformer)
 289              		.loc 1 149 2 is_stmt 1
 290              		.loc 1 149 5 is_stmt 0
 291 0120 8346A715 		lbu	a3,346(a4)
 150:C:/Users/stapi/OneDrive/Desktop/GD32VW553/V1_MQTT_OK/GD32VW55X_Wifi_BLE_SDK/GD32VW55x_RELEASE_V1.0.2/MSDK/wpa_supplicant/src/ap\ieee802_11_he.c **** 		cap->he_phy_capab_info[HE_PHYCAP_MU_BEAMFORMER_CAPAB_IDX] |=
 151:C:/Users/stapi/OneDrive/Desktop/GD32VW553/V1_MQTT_OK/GD32VW55X_Wifi_BLE_SDK/GD32VW55x_RELEASE_V1.0.2/MSDK/wpa_supplicant/src/ap\ieee802_11_he.c **** 			HE_PHYCAP_MU_BEAMFORMER_CAPAB;
 152:C:/Users/stapi/OneDrive/Desktop/GD32VW553/V1_MQTT_OK/GD32VW55X_Wifi_BLE_SDK/GD32VW55x_RELEASE_V1.0.2/MSDK/wpa_supplicant/src/ap\ieee802_11_he.c **** 	else
 153:C:/Users/stapi/OneDrive/Desktop/GD32VW553/V1_MQTT_OK/GD32VW55X_Wifi_BLE_SDK/GD32VW55x_RELEASE_V1.0.2/MSDK/wpa_supplicant/src/ap\ieee802_11_he.c **** 		cap->he_phy_capab_info[HE_PHYCAP_MU_BEAMFORMER_CAPAB_IDX] &=
 292              		.loc 1 153 61
 293 0124 13F7D70F 		andi	a4,a5,253
 149:C:/Users/stapi/OneDrive/Desktop/GD32VW553/V1_MQTT_OK/GD32VW55X_Wifi_BLE_SDK/GD32VW55x_RELEASE_V1.0.2/MSDK/wpa_supplicant/src/ap\ieee802_11_he.c **** 		cap->he_phy_capab_info[HE_PHYCAP_MU_BEAMFORMER_CAPAB_IDX] |=
 294              		.loc 1 149 5
 295 0128 99C2     		beq	a3,zero,.L20
 150:C:/Users/stapi/OneDrive/Desktop/GD32VW553/V1_MQTT_OK/GD32VW55X_Wifi_BLE_SDK/GD32VW55x_RELEASE_V1.0.2/MSDK/wpa_supplicant/src/ap\ieee802_11_he.c **** 		cap->he_phy_capab_info[HE_PHYCAP_MU_BEAMFORMER_CAPAB_IDX] |=
 296              		.loc 1 150 3 is_stmt 1
 150:C:/Users/stapi/OneDrive/Desktop/GD32VW553/V1_MQTT_OK/GD32VW55X_Wifi_BLE_SDK/GD32VW55x_RELEASE_V1.0.2/MSDK/wpa_supplicant/src/ap\ieee802_11_he.c **** 		cap->he_phy_capab_info[HE_PHYCAP_MU_BEAMFORMER_CAPAB_IDX] |=
 297              		.loc 1 150 61 is_stmt 0
 298 012a 13E72700 		ori	a4,a5,2
 299              	.L20:
 154:C:/Users/stapi/OneDrive/Desktop/GD32VW553/V1_MQTT_OK/GD32VW55X_Wifi_BLE_SDK/GD32VW55x_RELEASE_V1.0.2/MSDK/wpa_supplicant/src/ap\ieee802_11_he.c **** 			~HE_PHYCAP_MU_BEAMFORMER_CAPAB;
 155:C:/Users/stapi/OneDrive/Desktop/GD32VW553/V1_MQTT_OK/GD32VW55X_Wifi_BLE_SDK/GD32VW55x_RELEASE_V1.0.2/MSDK/wpa_supplicant/src/ap\ieee802_11_he.c **** 
 156:C:/Users/stapi/OneDrive/Desktop/GD32VW553/V1_MQTT_OK/GD32VW55X_Wifi_BLE_SDK/GD32VW55x_RELEASE_V1.0.2/MSDK/wpa_supplicant/src/ap\ieee802_11_he.c **** 	cap->he_phy_capab_info[HE_PHYCAP_CHANNEL_WIDTH_SET_IDX] &=
 300              		.loc 1 156 58
 301 012e 83479400 		lbu	a5,9(s0)
 302 0132 A306E400 		sb	a4,13(s0)
 303              		.loc 1 156 2 is_stmt 1
 304              		.loc 1 156 58 is_stmt 0
 305 0136 B3F9F900 		and	s3,s3,a5
 306              	.LVL31:
 307 013a A3043401 		sb	s3,9(s0)
 157:C:/Users/stapi/OneDrive/Desktop/GD32VW553/V1_MQTT_OK/GD32VW55X_Wifi_BLE_SDK/GD32VW55x_RELEASE_V1.0.2/MSDK/wpa_supplicant/src/ap\ieee802_11_he.c **** 		he_oper_chwidth;
 158:C:/Users/stapi/OneDrive/Desktop/GD32VW553/V1_MQTT_OK/GD32VW55X_Wifi_BLE_SDK/GD32VW55x_RELEASE_V1.0.2/MSDK/wpa_supplicant/src/ap\ieee802_11_he.c **** 
 159:C:/Users/stapi/OneDrive/Desktop/GD32VW553/V1_MQTT_OK/GD32VW55X_Wifi_BLE_SDK/GD32VW55x_RELEASE_V1.0.2/MSDK/wpa_supplicant/src/ap\ieee802_11_he.c **** 	pos += ie_size;
 308              		.loc 1 159 2 is_stmt 1
 309              		.loc 1 159 6 is_stmt 0
 310 013e 33047C01 		add	s0,s8,s7
 311              	.LVL32:
 160:C:/Users/stapi/OneDrive/Desktop/GD32VW553/V1_MQTT_OK/GD32VW55X_Wifi_BLE_SDK/GD32VW55x_RELEASE_V1.0.2/MSDK/wpa_supplicant/src/ap\ieee802_11_he.c **** 
 161:C:/Users/stapi/OneDrive/Desktop/GD32VW553/V1_MQTT_OK/GD32VW55X_Wifi_BLE_SDK/GD32VW55x_RELEASE_V1.0.2/MSDK/wpa_supplicant/src/ap\ieee802_11_he.c **** 	return pos;
 312              		.loc 1 161 2 is_stmt 1
 313              	.L9:
 162:C:/Users/stapi/OneDrive/Desktop/GD32VW553/V1_MQTT_OK/GD32VW55X_Wifi_BLE_SDK/GD32VW55x_RELEASE_V1.0.2/MSDK/wpa_supplicant/src/ap\ieee802_11_he.c **** }
 314              		.loc 1 162 1 is_stmt 0
 315 0142 2285     		mv	a0,s0
 316 0144 17030000 		tail	__riscv_restore_10
 316      67000300 
 317              		.cfi_remember_state
 318              		.cfi_restore 25
 319              		.cfi_restore 24
 320              		.cfi_restore 23
 321              		.cfi_restore 22
 322              		.cfi_restore 21
 323              		.cfi_restore 20
 324              		.cfi_restore 19
 325              		.cfi_restore 18
 326              		.cfi_restore 9
 327              		.cfi_restore 8
 328              		.cfi_restore 1
 329              		.cfi_def_cfa_offset 0
 330              	.LVL33:
 331              	.L22:
 332              		.cfi_restore_state
  91:C:/Users/stapi/OneDrive/Desktop/GD32VW553/V1_MQTT_OK/GD32VW55X_Wifi_BLE_SDK/GD32VW55x_RELEASE_V1.0.2/MSDK/wpa_supplicant/src/ap\ieee802_11_he.c **** 
 333              		.loc 1 91 18
 334 014c 9144     		li	s1,4
  89:C:/Users/stapi/OneDrive/Desktop/GD32VW553/V1_MQTT_OK/GD32VW55X_Wifi_BLE_SDK/GD32VW55x_RELEASE_V1.0.2/MSDK/wpa_supplicant/src/ap\ieee802_11_he.c **** 	u8 *pos = eid;
 335              		.loc 1 89 5
 336 014e 9309100E 		li	s3,225
 337 0152 29B7     		j	.L11
 338              	.L23:
 100:C:/Users/stapi/OneDrive/Desktop/GD32VW553/V1_MQTT_OK/GD32VW55X_Wifi_BLE_SDK/GD32VW55x_RELEASE_V1.0.2/MSDK/wpa_supplicant/src/ap\ieee802_11_he.c **** 	case CHANWIDTH_80P80MHZ:
 339              		.loc 1 100 2
 340 0154 9144     		li	s1,4
 341 0156 9309100E 		li	s3,225
 342 015a 21B7     		j	.L12
 343              	.L24:
 344 015c 9144     		li	s1,4
 345 015e 9309100E 		li	s3,225
 346 0162 11B7     		j	.L13
 347              		.cfi_endproc
 348              	.LFE142:
 350              		.section	.text.hostapd_eid_he_operation,"ax",@progbits
 351              		.align	1
 352              		.globl	hostapd_eid_he_operation
 354              	hostapd_eid_he_operation:
 355              	.LFB143:
 163:C:/Users/stapi/OneDrive/Desktop/GD32VW553/V1_MQTT_OK/GD32VW55X_Wifi_BLE_SDK/GD32VW55x_RELEASE_V1.0.2/MSDK/wpa_supplicant/src/ap\ieee802_11_he.c **** 
 164:C:/Users/stapi/OneDrive/Desktop/GD32VW553/V1_MQTT_OK/GD32VW55X_Wifi_BLE_SDK/GD32VW55x_RELEASE_V1.0.2/MSDK/wpa_supplicant/src/ap\ieee802_11_he.c **** 
 165:C:/Users/stapi/OneDrive/Desktop/GD32VW553/V1_MQTT_OK/GD32VW55X_Wifi_BLE_SDK/GD32VW55x_RELEASE_V1.0.2/MSDK/wpa_supplicant/src/ap\ieee802_11_he.c **** u8 * hostapd_eid_he_operation(struct hostapd_data *hapd, u8 *eid)
 166:C:/Users/stapi/OneDrive/Desktop/GD32VW553/V1_MQTT_OK/GD32VW55X_Wifi_BLE_SDK/GD32VW55x_RELEASE_V1.0.2/MSDK/wpa_supplicant/src/ap\ieee802_11_he.c **** {
 356              		.loc 1 166 1 is_stmt 1
 357              		.cfi_startproc
 358              	.LVL34:
 359 0000 17030000 		call	t0,__riscv_save_5
 359      E7020300 
 360              		.cfi_offset 20, -24
 361              		.cfi_offset 19, -20
 362              		.cfi_offset 18, -16
 363              		.cfi_offset 9, -12
 364              		.cfi_offset 8, -8
 365              		.cfi_offset 1, -4
 366              		.cfi_def_cfa_offset 32
 167:C:/Users/stapi/OneDrive/Desktop/GD32VW553/V1_MQTT_OK/GD32VW55X_Wifi_BLE_SDK/GD32VW55x_RELEASE_V1.0.2/MSDK/wpa_supplicant/src/ap\ieee802_11_he.c **** 	struct ieee80211_he_operation *oper;
 367              		.loc 1 167 2
 168:C:/Users/stapi/OneDrive/Desktop/GD32VW553/V1_MQTT_OK/GD32VW55X_Wifi_BLE_SDK/GD32VW55x_RELEASE_V1.0.2/MSDK/wpa_supplicant/src/ap\ieee802_11_he.c **** 	u8 *pos = eid;
 368              		.loc 1 168 2
 169:C:/Users/stapi/OneDrive/Desktop/GD32VW553/V1_MQTT_OK/GD32VW55X_Wifi_BLE_SDK/GD32VW55x_RELEASE_V1.0.2/MSDK/wpa_supplicant/src/ap\ieee802_11_he.c **** 	int oper_size = 6;
 170:C:/Users/stapi/OneDrive/Desktop/GD32VW553/V1_MQTT_OK/GD32VW55X_Wifi_BLE_SDK/GD32VW55x_RELEASE_V1.0.2/MSDK/wpa_supplicant/src/ap\ieee802_11_he.c **** 	u32 params = 0;
 171:C:/Users/stapi/OneDrive/Desktop/GD32VW553/V1_MQTT_OK/GD32VW55X_Wifi_BLE_SDK/GD32VW55x_RELEASE_V1.0.2/MSDK/wpa_supplicant/src/ap\ieee802_11_he.c **** 
 172:C:/Users/stapi/OneDrive/Desktop/GD32VW553/V1_MQTT_OK/GD32VW55X_Wifi_BLE_SDK/GD32VW55x_RELEASE_V1.0.2/MSDK/wpa_supplicant/src/ap\ieee802_11_he.c **** 	if (!hapd->iface->current_mode)
 369              		.loc 1 172 18 is_stmt 0
 370 0008 1C41     		lw	a5,0(a0)
 166:C:/Users/stapi/OneDrive/Desktop/GD32VW553/V1_MQTT_OK/GD32VW55X_Wifi_BLE_SDK/GD32VW55x_RELEASE_V1.0.2/MSDK/wpa_supplicant/src/ap\ieee802_11_he.c **** 	struct ieee80211_he_operation *oper;
 371              		.loc 1 166 1
 372 000a 2E84     		mv	s0,a1
 373              	.LVL35:
 169:C:/Users/stapi/OneDrive/Desktop/GD32VW553/V1_MQTT_OK/GD32VW55X_Wifi_BLE_SDK/GD32VW55x_RELEASE_V1.0.2/MSDK/wpa_supplicant/src/ap\ieee802_11_he.c **** 	int oper_size = 6;
 374              		.loc 1 169 2 is_stmt 1
 170:C:/Users/stapi/OneDrive/Desktop/GD32VW553/V1_MQTT_OK/GD32VW55X_Wifi_BLE_SDK/GD32VW55x_RELEASE_V1.0.2/MSDK/wpa_supplicant/src/ap\ieee802_11_he.c **** 
 375              		.loc 1 170 2
 376              		.loc 1 172 2
 377              		.loc 1 172 5 is_stmt 0
 378 000c 83A74746 		lw	a5,1124(a5)
 379 0010 63850712 		beq	a5,zero,.L33
 173:C:/Users/stapi/OneDrive/Desktop/GD32VW553/V1_MQTT_OK/GD32VW55X_Wifi_BLE_SDK/GD32VW55x_RELEASE_V1.0.2/MSDK/wpa_supplicant/src/ap\ieee802_11_he.c **** 		return eid;
 174:C:/Users/stapi/OneDrive/Desktop/GD32VW553/V1_MQTT_OK/GD32VW55X_Wifi_BLE_SDK/GD32VW55x_RELEASE_V1.0.2/MSDK/wpa_supplicant/src/ap\ieee802_11_he.c **** 
 175:C:/Users/stapi/OneDrive/Desktop/GD32VW553/V1_MQTT_OK/GD32VW55X_Wifi_BLE_SDK/GD32VW55x_RELEASE_V1.0.2/MSDK/wpa_supplicant/src/ap\ieee802_11_he.c **** 	if (is_6ghz_op_class(hapd->iconf->op_class))
 380              		.loc 1 175 6
 381 0014 5C41     		lw	a5,4(a0)
 382 0016 AA89     		mv	s3,a0
 383              		.loc 1 175 2 is_stmt 1
 384              		.loc 1 175 6 is_stmt 0
 385 0018 03C58701 		lbu	a0,24(a5)
 386              	.LVL36:
 387 001c 97000000 		call	is_6ghz_op_class
 387      E7800000 
 388              	.LVL37:
 169:C:/Users/stapi/OneDrive/Desktop/GD32VW553/V1_MQTT_OK/GD32VW55X_Wifi_BLE_SDK/GD32VW55x_RELEASE_V1.0.2/MSDK/wpa_supplicant/src/ap\ieee802_11_he.c **** 	u32 params = 0;
 389              		.loc 1 169 6
 390 0024 9947     		li	a5,6
 391              		.loc 1 175 5
 392 0026 11C1     		beq	a0,zero,.L34
 176:C:/Users/stapi/OneDrive/Desktop/GD32VW553/V1_MQTT_OK/GD32VW55X_Wifi_BLE_SDK/GD32VW55x_RELEASE_V1.0.2/MSDK/wpa_supplicant/src/ap\ieee802_11_he.c **** 		oper_size += 5;
 393              		.loc 1 176 13
 394 0028 AD47     		li	a5,11
 395              	.L34:
 396              	.LVL38:
 177:C:/Users/stapi/OneDrive/Desktop/GD32VW553/V1_MQTT_OK/GD32VW55X_Wifi_BLE_SDK/GD32VW55x_RELEASE_V1.0.2/MSDK/wpa_supplicant/src/ap\ieee802_11_he.c **** 
 178:C:/Users/stapi/OneDrive/Desktop/GD32VW553/V1_MQTT_OK/GD32VW55X_Wifi_BLE_SDK/GD32VW55x_RELEASE_V1.0.2/MSDK/wpa_supplicant/src/ap\ieee802_11_he.c **** 	*pos++ = WLAN_EID_EXTENSION;
 397              		.loc 1 178 2 is_stmt 1
 179:C:/Users/stapi/OneDrive/Desktop/GD32VW553/V1_MQTT_OK/GD32VW55X_Wifi_BLE_SDK/GD32VW55x_RELEASE_V1.0.2/MSDK/wpa_supplicant/src/ap\ieee802_11_he.c **** 	*pos++ = 1 + oper_size;
 398              		.loc 1 179 13 is_stmt 0
 399 002a 8507     		addi	a5,a5,1
 400              	.LVL39:
 178:C:/Users/stapi/OneDrive/Desktop/GD32VW553/V1_MQTT_OK/GD32VW55X_Wifi_BLE_SDK/GD32VW55x_RELEASE_V1.0.2/MSDK/wpa_supplicant/src/ap\ieee802_11_he.c **** 	*pos++ = 1 + oper_size;
 401              		.loc 1 178 9
 402 002c 7D57     		li	a4,-1
 403              		.loc 1 179 9
 404 002e A300F400 		sb	a5,1(s0)
 180:C:/Users/stapi/OneDrive/Desktop/GD32VW553/V1_MQTT_OK/GD32VW55X_Wifi_BLE_SDK/GD32VW55x_RELEASE_V1.0.2/MSDK/wpa_supplicant/src/ap\ieee802_11_he.c **** 	*pos++ = WLAN_EID_EXT_HE_OPERATION;
 405              		.loc 1 180 9
 406 0032 93074002 		li	a5,36
 407              	.LVL40:
 178:C:/Users/stapi/OneDrive/Desktop/GD32VW553/V1_MQTT_OK/GD32VW55X_Wifi_BLE_SDK/GD32VW55x_RELEASE_V1.0.2/MSDK/wpa_supplicant/src/ap\ieee802_11_he.c **** 	*pos++ = 1 + oper_size;
 408              		.loc 1 178 9
 409 0036 2300E400 		sb	a4,0(s0)
 179:C:/Users/stapi/OneDrive/Desktop/GD32VW553/V1_MQTT_OK/GD32VW55X_Wifi_BLE_SDK/GD32VW55x_RELEASE_V1.0.2/MSDK/wpa_supplicant/src/ap\ieee802_11_he.c **** 	*pos++ = 1 + oper_size;
 410              		.loc 1 179 2 is_stmt 1
 411              	.LVL41:
 412              		.loc 1 180 2
 413              		.loc 1 180 9 is_stmt 0
 414 003a 2301F400 		sb	a5,2(s0)
 181:C:/Users/stapi/OneDrive/Desktop/GD32VW553/V1_MQTT_OK/GD32VW55X_Wifi_BLE_SDK/GD32VW55x_RELEASE_V1.0.2/MSDK/wpa_supplicant/src/ap\ieee802_11_he.c **** 
 182:C:/Users/stapi/OneDrive/Desktop/GD32VW553/V1_MQTT_OK/GD32VW55X_Wifi_BLE_SDK/GD32VW55x_RELEASE_V1.0.2/MSDK/wpa_supplicant/src/ap\ieee802_11_he.c **** 	oper = (struct ieee80211_he_operation *) pos;
 415              		.loc 1 182 2 is_stmt 1
 416              	.LVL42:
 183:C:/Users/stapi/OneDrive/Desktop/GD32VW553/V1_MQTT_OK/GD32VW55X_Wifi_BLE_SDK/GD32VW55x_RELEASE_V1.0.2/MSDK/wpa_supplicant/src/ap\ieee802_11_he.c **** 	os_memset(oper, 0, sizeof(*oper));
 417              		.loc 1 183 2
 418 003e 1946     		li	a2,6
 419 0040 8145     		li	a1,0
 420 0042 13053400 		addi	a0,s0,3
 421              	.LVL43:
 422 0046 97000000 		call	os_memset
 422      E7800000 
 423              	.LVL44:
 184:C:/Users/stapi/OneDrive/Desktop/GD32VW553/V1_MQTT_OK/GD32VW55X_Wifi_BLE_SDK/GD32VW55x_RELEASE_V1.0.2/MSDK/wpa_supplicant/src/ap\ieee802_11_he.c **** 
 185:C:/Users/stapi/OneDrive/Desktop/GD32VW553/V1_MQTT_OK/GD32VW55X_Wifi_BLE_SDK/GD32VW55x_RELEASE_V1.0.2/MSDK/wpa_supplicant/src/ap\ieee802_11_he.c **** 	if (hapd->iface->conf->he_op.he_default_pe_duration)
 424              		.loc 1 185 2
 425              		.loc 1 185 17 is_stmt 0
 426 004e 83A70900 		lw	a5,0(s3)
 427 0052 D847     		lw	a4,12(a5)
 186:C:/Users/stapi/OneDrive/Desktop/GD32VW553/V1_MQTT_OK/GD32VW55X_Wifi_BLE_SDK/GD32VW55x_RELEASE_V1.0.2/MSDK/wpa_supplicant/src/ap\ieee802_11_he.c **** 		params |= (hapd->iface->conf->he_op.he_default_pe_duration <<
 187:C:/Users/stapi/OneDrive/Desktop/GD32VW553/V1_MQTT_OK/GD32VW55X_Wifi_BLE_SDK/GD32VW55x_RELEASE_V1.0.2/MSDK/wpa_supplicant/src/ap\ieee802_11_he.c **** 			   HE_OPERATION_DFLT_PE_DURATION_OFFSET);
 188:C:/Users/stapi/OneDrive/Desktop/GD32VW553/V1_MQTT_OK/GD32VW55X_Wifi_BLE_SDK/GD32VW55x_RELEASE_V1.0.2/MSDK/wpa_supplicant/src/ap\ieee802_11_he.c **** 
 189:C:/Users/stapi/OneDrive/Desktop/GD32VW553/V1_MQTT_OK/GD32VW55X_Wifi_BLE_SDK/GD32VW55x_RELEASE_V1.0.2/MSDK/wpa_supplicant/src/ap\ieee802_11_he.c **** 	if (hapd->iface->conf->he_op.he_twt_required)
 428              		.loc 1 189 5
 429 0054 83460716 		lbu	a3,352(a4)
 185:C:/Users/stapi/OneDrive/Desktop/GD32VW553/V1_MQTT_OK/GD32VW55X_Wifi_BLE_SDK/GD32VW55x_RELEASE_V1.0.2/MSDK/wpa_supplicant/src/ap\ieee802_11_he.c **** 		params |= (hapd->iface->conf->he_op.he_default_pe_duration <<
 430              		.loc 1 185 30
 431 0058 8347F715 		lbu	a5,351(a4)
 432              	.LVL45:
 433              		.loc 1 189 2 is_stmt 1
 434              		.loc 1 189 5 is_stmt 0
 435 005c 99C2     		beq	a3,zero,.L35
 190:C:/Users/stapi/OneDrive/Desktop/GD32VW553/V1_MQTT_OK/GD32VW55X_Wifi_BLE_SDK/GD32VW55x_RELEASE_V1.0.2/MSDK/wpa_supplicant/src/ap\ieee802_11_he.c **** 		params |= HE_OPERATION_TWT_REQUIRED;
 436              		.loc 1 190 3 is_stmt 1
 437 005e 93E78700 		ori	a5,a5,8
 438              	.LVL46:
 439              	.L35:
 191:C:/Users/stapi/OneDrive/Desktop/GD32VW553/V1_MQTT_OK/GD32VW55X_Wifi_BLE_SDK/GD32VW55x_RELEASE_V1.0.2/MSDK/wpa_supplicant/src/ap\ieee802_11_he.c **** 
 192:C:/Users/stapi/OneDrive/Desktop/GD32VW553/V1_MQTT_OK/GD32VW55X_Wifi_BLE_SDK/GD32VW55x_RELEASE_V1.0.2/MSDK/wpa_supplicant/src/ap\ieee802_11_he.c **** 	if (hapd->iface->conf->he_op.he_rts_threshold)
 440              		.loc 1 192 2
 441              		.loc 1 192 30 is_stmt 0
 442 0062 83562716 		lhu	a3,354(a4)
 443              		.loc 1 192 5
 444 0066 99C2     		beq	a3,zero,.L36
 193:C:/Users/stapi/OneDrive/Desktop/GD32VW553/V1_MQTT_OK/GD32VW55X_Wifi_BLE_SDK/GD32VW55x_RELEASE_V1.0.2/MSDK/wpa_supplicant/src/ap\ieee802_11_he.c **** 		params |= (hapd->iface->conf->he_op.he_rts_threshold <<
 445              		.loc 1 193 3 is_stmt 1
 446              		.loc 1 193 56 is_stmt 0
 447 0068 9206     		slli	a3,a3,4
 448              		.loc 1 193 10
 449 006a D58F     		or	a5,a5,a3
 450              	.LVL47:
 451              	.L36:
 194:C:/Users/stapi/OneDrive/Desktop/GD32VW553/V1_MQTT_OK/GD32VW55X_Wifi_BLE_SDK/GD32VW55x_RELEASE_V1.0.2/MSDK/wpa_supplicant/src/ap\ieee802_11_he.c **** 			   HE_OPERATION_RTS_THRESHOLD_OFFSET);
 195:C:/Users/stapi/OneDrive/Desktop/GD32VW553/V1_MQTT_OK/GD32VW55X_Wifi_BLE_SDK/GD32VW55x_RELEASE_V1.0.2/MSDK/wpa_supplicant/src/ap\ieee802_11_he.c **** 
 196:C:/Users/stapi/OneDrive/Desktop/GD32VW553/V1_MQTT_OK/GD32VW55X_Wifi_BLE_SDK/GD32VW55x_RELEASE_V1.0.2/MSDK/wpa_supplicant/src/ap\ieee802_11_he.c **** 	if (hapd->iface->conf->he_op.he_er_su_disable)
 452              		.loc 1 196 2 is_stmt 1
 453              		.loc 1 196 5 is_stmt 0
 454 006c 83464716 		lbu	a3,356(a4)
 455 0070 99C2     		beq	a3,zero,.L37
 197:C:/Users/stapi/OneDrive/Desktop/GD32VW553/V1_MQTT_OK/GD32VW55X_Wifi_BLE_SDK/GD32VW55x_RELEASE_V1.0.2/MSDK/wpa_supplicant/src/ap\ieee802_11_he.c **** 		params |= HE_OPERATION_ER_SU_DISABLE;
 456              		.loc 1 197 3 is_stmt 1
 457              		.loc 1 197 10 is_stmt 0
 458 0072 93970729 		bseti	a5,a5,16
 459              	.LVL48:
 460              	.L37:
 198:C:/Users/stapi/OneDrive/Desktop/GD32VW553/V1_MQTT_OK/GD32VW55X_Wifi_BLE_SDK/GD32VW55x_RELEASE_V1.0.2/MSDK/wpa_supplicant/src/ap\ieee802_11_he.c **** 
 199:C:/Users/stapi/OneDrive/Desktop/GD32VW553/V1_MQTT_OK/GD32VW55X_Wifi_BLE_SDK/GD32VW55x_RELEASE_V1.0.2/MSDK/wpa_supplicant/src/ap\ieee802_11_he.c **** 	if (hapd->iface->conf->he_op.he_bss_color_disabled)
 461              		.loc 1 199 2 is_stmt 1
 462              		.loc 1 199 5 is_stmt 0
 463 0076 8346D715 		lbu	a3,349(a4)
 464 007a 81C6     		beq	a3,zero,.L38
 200:C:/Users/stapi/OneDrive/Desktop/GD32VW553/V1_MQTT_OK/GD32VW55X_Wifi_BLE_SDK/GD32VW55x_RELEASE_V1.0.2/MSDK/wpa_supplicant/src/ap\ieee802_11_he.c **** 		params |= HE_OPERATION_BSS_COLOR_DISABLED;
 465              		.loc 1 200 3 is_stmt 1
 466              		.loc 1 200 10 is_stmt 0
 467 007c B7060080 		li	a3,-2147483648
 468 0080 D58F     		or	a5,a5,a3
 469              	.LVL49:
 470              	.L38:
 201:C:/Users/stapi/OneDrive/Desktop/GD32VW553/V1_MQTT_OK/GD32VW55X_Wifi_BLE_SDK/GD32VW55x_RELEASE_V1.0.2/MSDK/wpa_supplicant/src/ap\ieee802_11_he.c **** 	if (hapd->iface->conf->he_op.he_bss_color_partial)
 471              		.loc 1 201 2 is_stmt 1
 472              		.loc 1 201 5 is_stmt 0
 473 0082 8346E715 		lbu	a3,350(a4)
 474 0086 99C2     		beq	a3,zero,.L39
 202:C:/Users/stapi/OneDrive/Desktop/GD32VW553/V1_MQTT_OK/GD32VW55X_Wifi_BLE_SDK/GD32VW55x_RELEASE_V1.0.2/MSDK/wpa_supplicant/src/ap\ieee802_11_he.c **** 		params |= HE_OPERATION_BSS_COLOR_PARTIAL;
 475              		.loc 1 202 3 is_stmt 1
 476              		.loc 1 202 10 is_stmt 0
 477 0088 9397E729 		bseti	a5,a5,30
 478              	.LVL50:
 479              	.L39:
 203:C:/Users/stapi/OneDrive/Desktop/GD32VW553/V1_MQTT_OK/GD32VW55X_Wifi_BLE_SDK/GD32VW55x_RELEASE_V1.0.2/MSDK/wpa_supplicant/src/ap\ieee802_11_he.c **** 	params |= hapd->iface->conf->he_op.he_bss_color <<
 480              		.loc 1 203 2 is_stmt 1
 481              		.loc 1 203 36 is_stmt 0
 482 008c 8344C715 		lbu	s1,348(a4)
 483              		.loc 1 203 50
 484 0090 E204     		slli	s1,s1,24
 485              		.loc 1 203 9
 486 0092 DD8C     		or	s1,s1,a5
 487              	.LVL51:
 204:C:/Users/stapi/OneDrive/Desktop/GD32VW553/V1_MQTT_OK/GD32VW55X_Wifi_BLE_SDK/GD32VW55x_RELEASE_V1.0.2/MSDK/wpa_supplicant/src/ap\ieee802_11_he.c **** 		HE_OPERATION_BSS_COLOR_OFFSET;
 205:C:/Users/stapi/OneDrive/Desktop/GD32VW553/V1_MQTT_OK/GD32VW55X_Wifi_BLE_SDK/GD32VW55x_RELEASE_V1.0.2/MSDK/wpa_supplicant/src/ap\ieee802_11_he.c **** 
 206:C:/Users/stapi/OneDrive/Desktop/GD32VW553/V1_MQTT_OK/GD32VW55X_Wifi_BLE_SDK/GD32VW55x_RELEASE_V1.0.2/MSDK/wpa_supplicant/src/ap\ieee802_11_he.c **** 	/* HE minimum required basic MCS and NSS for STAs */
 207:C:/Users/stapi/OneDrive/Desktop/GD32VW553/V1_MQTT_OK/GD32VW55X_Wifi_BLE_SDK/GD32VW55x_RELEASE_V1.0.2/MSDK/wpa_supplicant/src/ap\ieee802_11_he.c **** 	oper->he_mcs_nss_set =
 488              		.loc 1 207 2 is_stmt 1
 489              		.loc 1 207 23 is_stmt 0
 490 0094 83476716 		lbu	a5,358(a4)
 491 0098 A303F400 		sb	a5,7(s0)
 492 009c 83576716 		lhu	a5,358(a4)
 493 00a0 A183     		srli	a5,a5,8
 494 00a2 2304F400 		sb	a5,8(s0)
 208:C:/Users/stapi/OneDrive/Desktop/GD32VW553/V1_MQTT_OK/GD32VW55X_Wifi_BLE_SDK/GD32VW55x_RELEASE_V1.0.2/MSDK/wpa_supplicant/src/ap\ieee802_11_he.c **** 		host_to_le16(hapd->iface->conf->he_op.he_basic_mcs_nss_set);
 209:C:/Users/stapi/OneDrive/Desktop/GD32VW553/V1_MQTT_OK/GD32VW55X_Wifi_BLE_SDK/GD32VW55x_RELEASE_V1.0.2/MSDK/wpa_supplicant/src/ap\ieee802_11_he.c **** 
 210:C:/Users/stapi/OneDrive/Desktop/GD32VW553/V1_MQTT_OK/GD32VW55X_Wifi_BLE_SDK/GD32VW55x_RELEASE_V1.0.2/MSDK/wpa_supplicant/src/ap\ieee802_11_he.c **** 	/* TODO: conditional MaxBSSID Indicator subfield */
 211:C:/Users/stapi/OneDrive/Desktop/GD32VW553/V1_MQTT_OK/GD32VW55X_Wifi_BLE_SDK/GD32VW55x_RELEASE_V1.0.2/MSDK/wpa_supplicant/src/ap\ieee802_11_he.c **** 
 212:C:/Users/stapi/OneDrive/Desktop/GD32VW553/V1_MQTT_OK/GD32VW55X_Wifi_BLE_SDK/GD32VW55x_RELEASE_V1.0.2/MSDK/wpa_supplicant/src/ap\ieee802_11_he.c **** 	pos += 6; /* skip the fixed part */
 495              		.loc 1 212 2 is_stmt 1
 496              	.LVL52:
 213:C:/Users/stapi/OneDrive/Desktop/GD32VW553/V1_MQTT_OK/GD32VW55X_Wifi_BLE_SDK/GD32VW55x_RELEASE_V1.0.2/MSDK/wpa_supplicant/src/ap\ieee802_11_he.c **** 
 214:C:/Users/stapi/OneDrive/Desktop/GD32VW553/V1_MQTT_OK/GD32VW55X_Wifi_BLE_SDK/GD32VW55x_RELEASE_V1.0.2/MSDK/wpa_supplicant/src/ap\ieee802_11_he.c **** 	if (is_6ghz_op_class(hapd->iconf->op_class)) {
 497              		.loc 1 214 2
 498              		.loc 1 214 6 is_stmt 0
 499 00a6 83A74900 		lw	a5,4(s3)
 500 00aa 03C58701 		lbu	a0,24(a5)
 501 00ae 97000000 		call	is_6ghz_op_class
 501      E7800000 
 502              	.LVL53:
 212:C:/Users/stapi/OneDrive/Desktop/GD32VW553/V1_MQTT_OK/GD32VW55X_Wifi_BLE_SDK/GD32VW55x_RELEASE_V1.0.2/MSDK/wpa_supplicant/src/ap\ieee802_11_he.c **** 
 503              		.loc 1 212 6
 504 00b6 13079400 		addi	a4,s0,9
 505              	.LVL54:
 506              		.loc 1 214 5
 507 00ba 2DC1     		beq	a0,zero,.L41
 508              	.LBB23:
 215:C:/Users/stapi/OneDrive/Desktop/GD32VW553/V1_MQTT_OK/GD32VW55X_Wifi_BLE_SDK/GD32VW55x_RELEASE_V1.0.2/MSDK/wpa_supplicant/src/ap\ieee802_11_he.c **** 		u8 seg0 = hostapd_get_oper_centr_freq_seg0_idx(hapd->iconf);
 509              		.loc 1 215 3 is_stmt 1
 510              		.loc 1 215 13 is_stmt 0
 511 00bc 83A74900 		lw	a5,4(s3)
 512              	.LVL55:
 513              	.LBB24:
 514              	.LBB25:
 515              		.file 2 "C:/Users/stapi/OneDrive/Desktop/GD32VW553/V1_MQTT_OK/GD32VW55X_Wifi_BLE_SDK/GD32VW55x_REL
   1:C:/Users/stapi/OneDrive/Desktop/GD32VW553/V1_MQTT_OK/GD32VW55X_Wifi_BLE_SDK/GD32VW55x_RELEASE_V1.0.2/MSDK/wpa_supplicant/src/ap\ap_config.h **** /*
   2:C:/Users/stapi/OneDrive/Desktop/GD32VW553/V1_MQTT_OK/GD32VW55X_Wifi_BLE_SDK/GD32VW55x_RELEASE_V1.0.2/MSDK/wpa_supplicant/src/ap\ap_config.h ****  * hostapd / Configuration definitions and helpers functions
   3:C:/Users/stapi/OneDrive/Desktop/GD32VW553/V1_MQTT_OK/GD32VW55X_Wifi_BLE_SDK/GD32VW55x_RELEASE_V1.0.2/MSDK/wpa_supplicant/src/ap\ap_config.h ****  * Copyright (c) 2003-2015, Jouni Malinen <j@w1.fi>
   4:C:/Users/stapi/OneDrive/Desktop/GD32VW553/V1_MQTT_OK/GD32VW55X_Wifi_BLE_SDK/GD32VW55x_RELEASE_V1.0.2/MSDK/wpa_supplicant/src/ap\ap_config.h ****  *
   5:C:/Users/stapi/OneDrive/Desktop/GD32VW553/V1_MQTT_OK/GD32VW55X_Wifi_BLE_SDK/GD32VW55x_RELEASE_V1.0.2/MSDK/wpa_supplicant/src/ap\ap_config.h ****  * This software may be distributed under the terms of the BSD license.
   6:C:/Users/stapi/OneDrive/Desktop/GD32VW553/V1_MQTT_OK/GD32VW55X_Wifi_BLE_SDK/GD32VW55x_RELEASE_V1.0.2/MSDK/wpa_supplicant/src/ap\ap_config.h ****  * See README for more details.
   7:C:/Users/stapi/OneDrive/Desktop/GD32VW553/V1_MQTT_OK/GD32VW55X_Wifi_BLE_SDK/GD32VW55x_RELEASE_V1.0.2/MSDK/wpa_supplicant/src/ap\ap_config.h ****  */
   8:C:/Users/stapi/OneDrive/Desktop/GD32VW553/V1_MQTT_OK/GD32VW55X_Wifi_BLE_SDK/GD32VW55x_RELEASE_V1.0.2/MSDK/wpa_supplicant/src/ap\ap_config.h **** 
   9:C:/Users/stapi/OneDrive/Desktop/GD32VW553/V1_MQTT_OK/GD32VW55X_Wifi_BLE_SDK/GD32VW55x_RELEASE_V1.0.2/MSDK/wpa_supplicant/src/ap\ap_config.h **** #ifndef HOSTAPD_CONFIG_H
  10:C:/Users/stapi/OneDrive/Desktop/GD32VW553/V1_MQTT_OK/GD32VW55X_Wifi_BLE_SDK/GD32VW55x_RELEASE_V1.0.2/MSDK/wpa_supplicant/src/ap\ap_config.h **** #define HOSTAPD_CONFIG_H
  11:C:/Users/stapi/OneDrive/Desktop/GD32VW553/V1_MQTT_OK/GD32VW55X_Wifi_BLE_SDK/GD32VW55x_RELEASE_V1.0.2/MSDK/wpa_supplicant/src/ap\ap_config.h **** 
  12:C:/Users/stapi/OneDrive/Desktop/GD32VW553/V1_MQTT_OK/GD32VW55X_Wifi_BLE_SDK/GD32VW55x_RELEASE_V1.0.2/MSDK/wpa_supplicant/src/ap\ap_config.h **** #include "common/defs.h"
  13:C:/Users/stapi/OneDrive/Desktop/GD32VW553/V1_MQTT_OK/GD32VW55X_Wifi_BLE_SDK/GD32VW55x_RELEASE_V1.0.2/MSDK/wpa_supplicant/src/ap\ap_config.h **** #include "utils/list.h"
  14:C:/Users/stapi/OneDrive/Desktop/GD32VW553/V1_MQTT_OK/GD32VW55X_Wifi_BLE_SDK/GD32VW55x_RELEASE_V1.0.2/MSDK/wpa_supplicant/src/ap\ap_config.h **** #include "utils/ip_addr.h"
  15:C:/Users/stapi/OneDrive/Desktop/GD32VW553/V1_MQTT_OK/GD32VW55X_Wifi_BLE_SDK/GD32VW55x_RELEASE_V1.0.2/MSDK/wpa_supplicant/src/ap\ap_config.h **** #include "common/wpa_common.h"
  16:C:/Users/stapi/OneDrive/Desktop/GD32VW553/V1_MQTT_OK/GD32VW55X_Wifi_BLE_SDK/GD32VW55x_RELEASE_V1.0.2/MSDK/wpa_supplicant/src/ap\ap_config.h **** #include "common/ieee802_11_defs.h"
  17:C:/Users/stapi/OneDrive/Desktop/GD32VW553/V1_MQTT_OK/GD32VW55X_Wifi_BLE_SDK/GD32VW55x_RELEASE_V1.0.2/MSDK/wpa_supplicant/src/ap\ap_config.h **** #include "common/ieee802_11_common.h"
  18:C:/Users/stapi/OneDrive/Desktop/GD32VW553/V1_MQTT_OK/GD32VW55X_Wifi_BLE_SDK/GD32VW55x_RELEASE_V1.0.2/MSDK/wpa_supplicant/src/ap\ap_config.h **** #include "crypto/sha256.h"
  19:C:/Users/stapi/OneDrive/Desktop/GD32VW553/V1_MQTT_OK/GD32VW55X_Wifi_BLE_SDK/GD32VW55x_RELEASE_V1.0.2/MSDK/wpa_supplicant/src/ap\ap_config.h **** #include "wps/wps.h"
  20:C:/Users/stapi/OneDrive/Desktop/GD32VW553/V1_MQTT_OK/GD32VW55X_Wifi_BLE_SDK/GD32VW55x_RELEASE_V1.0.2/MSDK/wpa_supplicant/src/ap\ap_config.h **** #include "fst/fst.h"
  21:C:/Users/stapi/OneDrive/Desktop/GD32VW553/V1_MQTT_OK/GD32VW55X_Wifi_BLE_SDK/GD32VW55x_RELEASE_V1.0.2/MSDK/wpa_supplicant/src/ap\ap_config.h **** #include "vlan.h"
  22:C:/Users/stapi/OneDrive/Desktop/GD32VW553/V1_MQTT_OK/GD32VW55X_Wifi_BLE_SDK/GD32VW55x_RELEASE_V1.0.2/MSDK/wpa_supplicant/src/ap\ap_config.h **** 
  23:C:/Users/stapi/OneDrive/Desktop/GD32VW553/V1_MQTT_OK/GD32VW55X_Wifi_BLE_SDK/GD32VW55x_RELEASE_V1.0.2/MSDK/wpa_supplicant/src/ap\ap_config.h **** typedef uint32_t wpa_gid_t;
  24:C:/Users/stapi/OneDrive/Desktop/GD32VW553/V1_MQTT_OK/GD32VW55X_Wifi_BLE_SDK/GD32VW55x_RELEASE_V1.0.2/MSDK/wpa_supplicant/src/ap\ap_config.h **** 
  25:C:/Users/stapi/OneDrive/Desktop/GD32VW553/V1_MQTT_OK/GD32VW55X_Wifi_BLE_SDK/GD32VW55x_RELEASE_V1.0.2/MSDK/wpa_supplicant/src/ap\ap_config.h **** /**
  26:C:/Users/stapi/OneDrive/Desktop/GD32VW553/V1_MQTT_OK/GD32VW55X_Wifi_BLE_SDK/GD32VW55x_RELEASE_V1.0.2/MSDK/wpa_supplicant/src/ap\ap_config.h ****  * mesh_conf - local MBSS state and settings
  27:C:/Users/stapi/OneDrive/Desktop/GD32VW553/V1_MQTT_OK/GD32VW55X_Wifi_BLE_SDK/GD32VW55x_RELEASE_V1.0.2/MSDK/wpa_supplicant/src/ap\ap_config.h ****  */
  28:C:/Users/stapi/OneDrive/Desktop/GD32VW553/V1_MQTT_OK/GD32VW55X_Wifi_BLE_SDK/GD32VW55x_RELEASE_V1.0.2/MSDK/wpa_supplicant/src/ap\ap_config.h **** struct mesh_conf {
  29:C:/Users/stapi/OneDrive/Desktop/GD32VW553/V1_MQTT_OK/GD32VW55X_Wifi_BLE_SDK/GD32VW55x_RELEASE_V1.0.2/MSDK/wpa_supplicant/src/ap\ap_config.h **** 	u8 meshid[32];
  30:C:/Users/stapi/OneDrive/Desktop/GD32VW553/V1_MQTT_OK/GD32VW55X_Wifi_BLE_SDK/GD32VW55x_RELEASE_V1.0.2/MSDK/wpa_supplicant/src/ap\ap_config.h **** 	u8 meshid_len;
  31:C:/Users/stapi/OneDrive/Desktop/GD32VW553/V1_MQTT_OK/GD32VW55X_Wifi_BLE_SDK/GD32VW55x_RELEASE_V1.0.2/MSDK/wpa_supplicant/src/ap\ap_config.h **** 	/* Active Path Selection Protocol Identifier */
  32:C:/Users/stapi/OneDrive/Desktop/GD32VW553/V1_MQTT_OK/GD32VW55X_Wifi_BLE_SDK/GD32VW55x_RELEASE_V1.0.2/MSDK/wpa_supplicant/src/ap\ap_config.h **** 	u8 mesh_pp_id;
  33:C:/Users/stapi/OneDrive/Desktop/GD32VW553/V1_MQTT_OK/GD32VW55X_Wifi_BLE_SDK/GD32VW55x_RELEASE_V1.0.2/MSDK/wpa_supplicant/src/ap\ap_config.h **** 	/* Active Path Selection Metric Identifier */
  34:C:/Users/stapi/OneDrive/Desktop/GD32VW553/V1_MQTT_OK/GD32VW55X_Wifi_BLE_SDK/GD32VW55x_RELEASE_V1.0.2/MSDK/wpa_supplicant/src/ap\ap_config.h **** 	u8 mesh_pm_id;
  35:C:/Users/stapi/OneDrive/Desktop/GD32VW553/V1_MQTT_OK/GD32VW55X_Wifi_BLE_SDK/GD32VW55x_RELEASE_V1.0.2/MSDK/wpa_supplicant/src/ap\ap_config.h **** 	/* Congestion Control Mode Identifier */
  36:C:/Users/stapi/OneDrive/Desktop/GD32VW553/V1_MQTT_OK/GD32VW55X_Wifi_BLE_SDK/GD32VW55x_RELEASE_V1.0.2/MSDK/wpa_supplicant/src/ap\ap_config.h **** 	u8 mesh_cc_id;
  37:C:/Users/stapi/OneDrive/Desktop/GD32VW553/V1_MQTT_OK/GD32VW55X_Wifi_BLE_SDK/GD32VW55x_RELEASE_V1.0.2/MSDK/wpa_supplicant/src/ap\ap_config.h **** 	/* Synchronization Protocol Identifier */
  38:C:/Users/stapi/OneDrive/Desktop/GD32VW553/V1_MQTT_OK/GD32VW55X_Wifi_BLE_SDK/GD32VW55x_RELEASE_V1.0.2/MSDK/wpa_supplicant/src/ap\ap_config.h **** 	u8 mesh_sp_id;
  39:C:/Users/stapi/OneDrive/Desktop/GD32VW553/V1_MQTT_OK/GD32VW55X_Wifi_BLE_SDK/GD32VW55x_RELEASE_V1.0.2/MSDK/wpa_supplicant/src/ap\ap_config.h **** 	/* Authentication Protocol Identifier */
  40:C:/Users/stapi/OneDrive/Desktop/GD32VW553/V1_MQTT_OK/GD32VW55X_Wifi_BLE_SDK/GD32VW55x_RELEASE_V1.0.2/MSDK/wpa_supplicant/src/ap\ap_config.h **** 	u8 mesh_auth_id;
  41:C:/Users/stapi/OneDrive/Desktop/GD32VW553/V1_MQTT_OK/GD32VW55X_Wifi_BLE_SDK/GD32VW55x_RELEASE_V1.0.2/MSDK/wpa_supplicant/src/ap\ap_config.h **** 	u8 *rsn_ie;
  42:C:/Users/stapi/OneDrive/Desktop/GD32VW553/V1_MQTT_OK/GD32VW55X_Wifi_BLE_SDK/GD32VW55x_RELEASE_V1.0.2/MSDK/wpa_supplicant/src/ap\ap_config.h **** 	int rsn_ie_len;
  43:C:/Users/stapi/OneDrive/Desktop/GD32VW553/V1_MQTT_OK/GD32VW55X_Wifi_BLE_SDK/GD32VW55x_RELEASE_V1.0.2/MSDK/wpa_supplicant/src/ap\ap_config.h **** #define MESH_CONF_SEC_NONE BIT(0)
  44:C:/Users/stapi/OneDrive/Desktop/GD32VW553/V1_MQTT_OK/GD32VW55X_Wifi_BLE_SDK/GD32VW55x_RELEASE_V1.0.2/MSDK/wpa_supplicant/src/ap\ap_config.h **** #define MESH_CONF_SEC_AUTH BIT(1)
  45:C:/Users/stapi/OneDrive/Desktop/GD32VW553/V1_MQTT_OK/GD32VW55X_Wifi_BLE_SDK/GD32VW55x_RELEASE_V1.0.2/MSDK/wpa_supplicant/src/ap\ap_config.h **** #define MESH_CONF_SEC_AMPE BIT(2)
  46:C:/Users/stapi/OneDrive/Desktop/GD32VW553/V1_MQTT_OK/GD32VW55X_Wifi_BLE_SDK/GD32VW55x_RELEASE_V1.0.2/MSDK/wpa_supplicant/src/ap\ap_config.h **** 	unsigned int security;
  47:C:/Users/stapi/OneDrive/Desktop/GD32VW553/V1_MQTT_OK/GD32VW55X_Wifi_BLE_SDK/GD32VW55x_RELEASE_V1.0.2/MSDK/wpa_supplicant/src/ap\ap_config.h **** 	enum mfp_options ieee80211w;
  48:C:/Users/stapi/OneDrive/Desktop/GD32VW553/V1_MQTT_OK/GD32VW55X_Wifi_BLE_SDK/GD32VW55x_RELEASE_V1.0.2/MSDK/wpa_supplicant/src/ap\ap_config.h **** 	int ocv;
  49:C:/Users/stapi/OneDrive/Desktop/GD32VW553/V1_MQTT_OK/GD32VW55X_Wifi_BLE_SDK/GD32VW55x_RELEASE_V1.0.2/MSDK/wpa_supplicant/src/ap\ap_config.h **** 	unsigned int pairwise_cipher;
  50:C:/Users/stapi/OneDrive/Desktop/GD32VW553/V1_MQTT_OK/GD32VW55X_Wifi_BLE_SDK/GD32VW55x_RELEASE_V1.0.2/MSDK/wpa_supplicant/src/ap\ap_config.h **** 	unsigned int group_cipher;
  51:C:/Users/stapi/OneDrive/Desktop/GD32VW553/V1_MQTT_OK/GD32VW55X_Wifi_BLE_SDK/GD32VW55x_RELEASE_V1.0.2/MSDK/wpa_supplicant/src/ap\ap_config.h **** 	unsigned int mgmt_group_cipher;
  52:C:/Users/stapi/OneDrive/Desktop/GD32VW553/V1_MQTT_OK/GD32VW55X_Wifi_BLE_SDK/GD32VW55x_RELEASE_V1.0.2/MSDK/wpa_supplicant/src/ap\ap_config.h **** 	int dot11MeshMaxRetries;
  53:C:/Users/stapi/OneDrive/Desktop/GD32VW553/V1_MQTT_OK/GD32VW55X_Wifi_BLE_SDK/GD32VW55x_RELEASE_V1.0.2/MSDK/wpa_supplicant/src/ap\ap_config.h **** 	int dot11MeshRetryTimeout; /* msec */
  54:C:/Users/stapi/OneDrive/Desktop/GD32VW553/V1_MQTT_OK/GD32VW55X_Wifi_BLE_SDK/GD32VW55x_RELEASE_V1.0.2/MSDK/wpa_supplicant/src/ap\ap_config.h **** 	int dot11MeshConfirmTimeout; /* msec */
  55:C:/Users/stapi/OneDrive/Desktop/GD32VW553/V1_MQTT_OK/GD32VW55X_Wifi_BLE_SDK/GD32VW55x_RELEASE_V1.0.2/MSDK/wpa_supplicant/src/ap\ap_config.h **** 	int dot11MeshHoldingTimeout; /* msec */
  56:C:/Users/stapi/OneDrive/Desktop/GD32VW553/V1_MQTT_OK/GD32VW55X_Wifi_BLE_SDK/GD32VW55x_RELEASE_V1.0.2/MSDK/wpa_supplicant/src/ap\ap_config.h **** 	int mesh_fwding;
  57:C:/Users/stapi/OneDrive/Desktop/GD32VW553/V1_MQTT_OK/GD32VW55X_Wifi_BLE_SDK/GD32VW55x_RELEASE_V1.0.2/MSDK/wpa_supplicant/src/ap\ap_config.h **** };
  58:C:/Users/stapi/OneDrive/Desktop/GD32VW553/V1_MQTT_OK/GD32VW55X_Wifi_BLE_SDK/GD32VW55x_RELEASE_V1.0.2/MSDK/wpa_supplicant/src/ap\ap_config.h **** 
  59:C:/Users/stapi/OneDrive/Desktop/GD32VW553/V1_MQTT_OK/GD32VW55X_Wifi_BLE_SDK/GD32VW55x_RELEASE_V1.0.2/MSDK/wpa_supplicant/src/ap\ap_config.h **** #define MAX_STA_COUNT 2007
  60:C:/Users/stapi/OneDrive/Desktop/GD32VW553/V1_MQTT_OK/GD32VW55X_Wifi_BLE_SDK/GD32VW55x_RELEASE_V1.0.2/MSDK/wpa_supplicant/src/ap\ap_config.h **** #define MAX_VLAN_ID 4094
  61:C:/Users/stapi/OneDrive/Desktop/GD32VW553/V1_MQTT_OK/GD32VW55X_Wifi_BLE_SDK/GD32VW55x_RELEASE_V1.0.2/MSDK/wpa_supplicant/src/ap\ap_config.h **** 
  62:C:/Users/stapi/OneDrive/Desktop/GD32VW553/V1_MQTT_OK/GD32VW55X_Wifi_BLE_SDK/GD32VW55x_RELEASE_V1.0.2/MSDK/wpa_supplicant/src/ap\ap_config.h **** typedef u8 macaddr[ETH_ALEN];
  63:C:/Users/stapi/OneDrive/Desktop/GD32VW553/V1_MQTT_OK/GD32VW55X_Wifi_BLE_SDK/GD32VW55x_RELEASE_V1.0.2/MSDK/wpa_supplicant/src/ap\ap_config.h **** 
  64:C:/Users/stapi/OneDrive/Desktop/GD32VW553/V1_MQTT_OK/GD32VW55X_Wifi_BLE_SDK/GD32VW55x_RELEASE_V1.0.2/MSDK/wpa_supplicant/src/ap\ap_config.h **** struct mac_acl_entry {
  65:C:/Users/stapi/OneDrive/Desktop/GD32VW553/V1_MQTT_OK/GD32VW55X_Wifi_BLE_SDK/GD32VW55x_RELEASE_V1.0.2/MSDK/wpa_supplicant/src/ap\ap_config.h **** 	macaddr addr;
  66:C:/Users/stapi/OneDrive/Desktop/GD32VW553/V1_MQTT_OK/GD32VW55X_Wifi_BLE_SDK/GD32VW55x_RELEASE_V1.0.2/MSDK/wpa_supplicant/src/ap\ap_config.h **** 	struct vlan_description vlan_id;
  67:C:/Users/stapi/OneDrive/Desktop/GD32VW553/V1_MQTT_OK/GD32VW55X_Wifi_BLE_SDK/GD32VW55x_RELEASE_V1.0.2/MSDK/wpa_supplicant/src/ap\ap_config.h **** };
  68:C:/Users/stapi/OneDrive/Desktop/GD32VW553/V1_MQTT_OK/GD32VW55X_Wifi_BLE_SDK/GD32VW55x_RELEASE_V1.0.2/MSDK/wpa_supplicant/src/ap\ap_config.h **** 
  69:C:/Users/stapi/OneDrive/Desktop/GD32VW553/V1_MQTT_OK/GD32VW55X_Wifi_BLE_SDK/GD32VW55x_RELEASE_V1.0.2/MSDK/wpa_supplicant/src/ap\ap_config.h **** struct hostapd_radius_servers;
  70:C:/Users/stapi/OneDrive/Desktop/GD32VW553/V1_MQTT_OK/GD32VW55X_Wifi_BLE_SDK/GD32VW55x_RELEASE_V1.0.2/MSDK/wpa_supplicant/src/ap\ap_config.h **** struct ft_remote_r0kh;
  71:C:/Users/stapi/OneDrive/Desktop/GD32VW553/V1_MQTT_OK/GD32VW55X_Wifi_BLE_SDK/GD32VW55x_RELEASE_V1.0.2/MSDK/wpa_supplicant/src/ap\ap_config.h **** struct ft_remote_r1kh;
  72:C:/Users/stapi/OneDrive/Desktop/GD32VW553/V1_MQTT_OK/GD32VW55X_Wifi_BLE_SDK/GD32VW55x_RELEASE_V1.0.2/MSDK/wpa_supplicant/src/ap\ap_config.h **** 
  73:C:/Users/stapi/OneDrive/Desktop/GD32VW553/V1_MQTT_OK/GD32VW55X_Wifi_BLE_SDK/GD32VW55x_RELEASE_V1.0.2/MSDK/wpa_supplicant/src/ap\ap_config.h **** #ifdef CONFIG_WEP
  74:C:/Users/stapi/OneDrive/Desktop/GD32VW553/V1_MQTT_OK/GD32VW55X_Wifi_BLE_SDK/GD32VW55x_RELEASE_V1.0.2/MSDK/wpa_supplicant/src/ap\ap_config.h **** #define NUM_WEP_KEYS 4
  75:C:/Users/stapi/OneDrive/Desktop/GD32VW553/V1_MQTT_OK/GD32VW55X_Wifi_BLE_SDK/GD32VW55x_RELEASE_V1.0.2/MSDK/wpa_supplicant/src/ap\ap_config.h **** struct hostapd_wep_keys {
  76:C:/Users/stapi/OneDrive/Desktop/GD32VW553/V1_MQTT_OK/GD32VW55X_Wifi_BLE_SDK/GD32VW55x_RELEASE_V1.0.2/MSDK/wpa_supplicant/src/ap\ap_config.h **** 	u8 idx;
  77:C:/Users/stapi/OneDrive/Desktop/GD32VW553/V1_MQTT_OK/GD32VW55X_Wifi_BLE_SDK/GD32VW55x_RELEASE_V1.0.2/MSDK/wpa_supplicant/src/ap\ap_config.h **** 	u8 *key[NUM_WEP_KEYS];
  78:C:/Users/stapi/OneDrive/Desktop/GD32VW553/V1_MQTT_OK/GD32VW55X_Wifi_BLE_SDK/GD32VW55x_RELEASE_V1.0.2/MSDK/wpa_supplicant/src/ap\ap_config.h **** 	size_t len[NUM_WEP_KEYS];
  79:C:/Users/stapi/OneDrive/Desktop/GD32VW553/V1_MQTT_OK/GD32VW55X_Wifi_BLE_SDK/GD32VW55x_RELEASE_V1.0.2/MSDK/wpa_supplicant/src/ap\ap_config.h **** 	int keys_set;
  80:C:/Users/stapi/OneDrive/Desktop/GD32VW553/V1_MQTT_OK/GD32VW55X_Wifi_BLE_SDK/GD32VW55x_RELEASE_V1.0.2/MSDK/wpa_supplicant/src/ap\ap_config.h **** 	size_t default_len; /* key length used for dynamic key generation */
  81:C:/Users/stapi/OneDrive/Desktop/GD32VW553/V1_MQTT_OK/GD32VW55X_Wifi_BLE_SDK/GD32VW55x_RELEASE_V1.0.2/MSDK/wpa_supplicant/src/ap\ap_config.h **** };
  82:C:/Users/stapi/OneDrive/Desktop/GD32VW553/V1_MQTT_OK/GD32VW55X_Wifi_BLE_SDK/GD32VW55x_RELEASE_V1.0.2/MSDK/wpa_supplicant/src/ap\ap_config.h **** #endif /* CONFIG_WEP */
  83:C:/Users/stapi/OneDrive/Desktop/GD32VW553/V1_MQTT_OK/GD32VW55X_Wifi_BLE_SDK/GD32VW55x_RELEASE_V1.0.2/MSDK/wpa_supplicant/src/ap\ap_config.h **** 
  84:C:/Users/stapi/OneDrive/Desktop/GD32VW553/V1_MQTT_OK/GD32VW55X_Wifi_BLE_SDK/GD32VW55x_RELEASE_V1.0.2/MSDK/wpa_supplicant/src/ap\ap_config.h **** typedef enum hostap_security_policy {
  85:C:/Users/stapi/OneDrive/Desktop/GD32VW553/V1_MQTT_OK/GD32VW55X_Wifi_BLE_SDK/GD32VW55x_RELEASE_V1.0.2/MSDK/wpa_supplicant/src/ap\ap_config.h **** 	SECURITY_PLAINTEXT = 0,
  86:C:/Users/stapi/OneDrive/Desktop/GD32VW553/V1_MQTT_OK/GD32VW55X_Wifi_BLE_SDK/GD32VW55x_RELEASE_V1.0.2/MSDK/wpa_supplicant/src/ap\ap_config.h **** #ifdef CONFIG_WEP
  87:C:/Users/stapi/OneDrive/Desktop/GD32VW553/V1_MQTT_OK/GD32VW55X_Wifi_BLE_SDK/GD32VW55x_RELEASE_V1.0.2/MSDK/wpa_supplicant/src/ap\ap_config.h **** 	SECURITY_STATIC_WEP = 1,
  88:C:/Users/stapi/OneDrive/Desktop/GD32VW553/V1_MQTT_OK/GD32VW55X_Wifi_BLE_SDK/GD32VW55x_RELEASE_V1.0.2/MSDK/wpa_supplicant/src/ap\ap_config.h **** #endif /* CONFIG_WEP */
  89:C:/Users/stapi/OneDrive/Desktop/GD32VW553/V1_MQTT_OK/GD32VW55X_Wifi_BLE_SDK/GD32VW55x_RELEASE_V1.0.2/MSDK/wpa_supplicant/src/ap\ap_config.h **** 	SECURITY_IEEE_802_1X = 2,
  90:C:/Users/stapi/OneDrive/Desktop/GD32VW553/V1_MQTT_OK/GD32VW55X_Wifi_BLE_SDK/GD32VW55x_RELEASE_V1.0.2/MSDK/wpa_supplicant/src/ap\ap_config.h **** 	SECURITY_WPA_PSK = 3,
  91:C:/Users/stapi/OneDrive/Desktop/GD32VW553/V1_MQTT_OK/GD32VW55X_Wifi_BLE_SDK/GD32VW55x_RELEASE_V1.0.2/MSDK/wpa_supplicant/src/ap\ap_config.h **** 	SECURITY_WPA = 4,
  92:C:/Users/stapi/OneDrive/Desktop/GD32VW553/V1_MQTT_OK/GD32VW55X_Wifi_BLE_SDK/GD32VW55x_RELEASE_V1.0.2/MSDK/wpa_supplicant/src/ap\ap_config.h **** 	SECURITY_OSEN = 5
  93:C:/Users/stapi/OneDrive/Desktop/GD32VW553/V1_MQTT_OK/GD32VW55X_Wifi_BLE_SDK/GD32VW55x_RELEASE_V1.0.2/MSDK/wpa_supplicant/src/ap\ap_config.h **** } secpolicy;
  94:C:/Users/stapi/OneDrive/Desktop/GD32VW553/V1_MQTT_OK/GD32VW55X_Wifi_BLE_SDK/GD32VW55x_RELEASE_V1.0.2/MSDK/wpa_supplicant/src/ap\ap_config.h **** 
  95:C:/Users/stapi/OneDrive/Desktop/GD32VW553/V1_MQTT_OK/GD32VW55X_Wifi_BLE_SDK/GD32VW55x_RELEASE_V1.0.2/MSDK/wpa_supplicant/src/ap\ap_config.h **** struct hostapd_ssid {
  96:C:/Users/stapi/OneDrive/Desktop/GD32VW553/V1_MQTT_OK/GD32VW55X_Wifi_BLE_SDK/GD32VW55x_RELEASE_V1.0.2/MSDK/wpa_supplicant/src/ap\ap_config.h **** 	u8 ssid[SSID_MAX_LEN];
  97:C:/Users/stapi/OneDrive/Desktop/GD32VW553/V1_MQTT_OK/GD32VW55X_Wifi_BLE_SDK/GD32VW55x_RELEASE_V1.0.2/MSDK/wpa_supplicant/src/ap\ap_config.h **** 	size_t ssid_len;
  98:C:/Users/stapi/OneDrive/Desktop/GD32VW553/V1_MQTT_OK/GD32VW55X_Wifi_BLE_SDK/GD32VW55x_RELEASE_V1.0.2/MSDK/wpa_supplicant/src/ap\ap_config.h **** 	u32 short_ssid;
  99:C:/Users/stapi/OneDrive/Desktop/GD32VW553/V1_MQTT_OK/GD32VW55X_Wifi_BLE_SDK/GD32VW55x_RELEASE_V1.0.2/MSDK/wpa_supplicant/src/ap\ap_config.h **** 	unsigned int ssid_set:1;
 100:C:/Users/stapi/OneDrive/Desktop/GD32VW553/V1_MQTT_OK/GD32VW55X_Wifi_BLE_SDK/GD32VW55x_RELEASE_V1.0.2/MSDK/wpa_supplicant/src/ap\ap_config.h **** 	unsigned int utf8_ssid:1;
 101:C:/Users/stapi/OneDrive/Desktop/GD32VW553/V1_MQTT_OK/GD32VW55X_Wifi_BLE_SDK/GD32VW55x_RELEASE_V1.0.2/MSDK/wpa_supplicant/src/ap\ap_config.h **** 	unsigned int wpa_passphrase_set:1;
 102:C:/Users/stapi/OneDrive/Desktop/GD32VW553/V1_MQTT_OK/GD32VW55X_Wifi_BLE_SDK/GD32VW55x_RELEASE_V1.0.2/MSDK/wpa_supplicant/src/ap\ap_config.h **** 	unsigned int wpa_psk_set:1;
 103:C:/Users/stapi/OneDrive/Desktop/GD32VW553/V1_MQTT_OK/GD32VW55X_Wifi_BLE_SDK/GD32VW55x_RELEASE_V1.0.2/MSDK/wpa_supplicant/src/ap\ap_config.h **** 
 104:C:/Users/stapi/OneDrive/Desktop/GD32VW553/V1_MQTT_OK/GD32VW55X_Wifi_BLE_SDK/GD32VW55x_RELEASE_V1.0.2/MSDK/wpa_supplicant/src/ap\ap_config.h **** 	char vlan[IFNAMSIZ + 1];
 105:C:/Users/stapi/OneDrive/Desktop/GD32VW553/V1_MQTT_OK/GD32VW55X_Wifi_BLE_SDK/GD32VW55x_RELEASE_V1.0.2/MSDK/wpa_supplicant/src/ap\ap_config.h **** 	secpolicy security_policy;
 106:C:/Users/stapi/OneDrive/Desktop/GD32VW553/V1_MQTT_OK/GD32VW55X_Wifi_BLE_SDK/GD32VW55x_RELEASE_V1.0.2/MSDK/wpa_supplicant/src/ap\ap_config.h **** 
 107:C:/Users/stapi/OneDrive/Desktop/GD32VW553/V1_MQTT_OK/GD32VW55X_Wifi_BLE_SDK/GD32VW55x_RELEASE_V1.0.2/MSDK/wpa_supplicant/src/ap\ap_config.h **** 	struct hostapd_wpa_psk *wpa_psk;
 108:C:/Users/stapi/OneDrive/Desktop/GD32VW553/V1_MQTT_OK/GD32VW55X_Wifi_BLE_SDK/GD32VW55x_RELEASE_V1.0.2/MSDK/wpa_supplicant/src/ap\ap_config.h **** 	char *wpa_passphrase;
 109:C:/Users/stapi/OneDrive/Desktop/GD32VW553/V1_MQTT_OK/GD32VW55X_Wifi_BLE_SDK/GD32VW55x_RELEASE_V1.0.2/MSDK/wpa_supplicant/src/ap\ap_config.h **** 	char *wpa_psk_file;
 110:C:/Users/stapi/OneDrive/Desktop/GD32VW553/V1_MQTT_OK/GD32VW55X_Wifi_BLE_SDK/GD32VW55x_RELEASE_V1.0.2/MSDK/wpa_supplicant/src/ap\ap_config.h **** 	struct sae_pt *pt;
 111:C:/Users/stapi/OneDrive/Desktop/GD32VW553/V1_MQTT_OK/GD32VW55X_Wifi_BLE_SDK/GD32VW55x_RELEASE_V1.0.2/MSDK/wpa_supplicant/src/ap\ap_config.h **** 
 112:C:/Users/stapi/OneDrive/Desktop/GD32VW553/V1_MQTT_OK/GD32VW55X_Wifi_BLE_SDK/GD32VW55x_RELEASE_V1.0.2/MSDK/wpa_supplicant/src/ap\ap_config.h **** #ifdef CONFIG_WEP
 113:C:/Users/stapi/OneDrive/Desktop/GD32VW553/V1_MQTT_OK/GD32VW55X_Wifi_BLE_SDK/GD32VW55x_RELEASE_V1.0.2/MSDK/wpa_supplicant/src/ap\ap_config.h **** 	struct hostapd_wep_keys wep;
 114:C:/Users/stapi/OneDrive/Desktop/GD32VW553/V1_MQTT_OK/GD32VW55X_Wifi_BLE_SDK/GD32VW55x_RELEASE_V1.0.2/MSDK/wpa_supplicant/src/ap\ap_config.h **** #endif /* CONFIG_WEP */
 115:C:/Users/stapi/OneDrive/Desktop/GD32VW553/V1_MQTT_OK/GD32VW55X_Wifi_BLE_SDK/GD32VW55x_RELEASE_V1.0.2/MSDK/wpa_supplicant/src/ap\ap_config.h **** 
 116:C:/Users/stapi/OneDrive/Desktop/GD32VW553/V1_MQTT_OK/GD32VW55X_Wifi_BLE_SDK/GD32VW55x_RELEASE_V1.0.2/MSDK/wpa_supplicant/src/ap\ap_config.h **** #define DYNAMIC_VLAN_DISABLED 0
 117:C:/Users/stapi/OneDrive/Desktop/GD32VW553/V1_MQTT_OK/GD32VW55X_Wifi_BLE_SDK/GD32VW55x_RELEASE_V1.0.2/MSDK/wpa_supplicant/src/ap\ap_config.h **** #define DYNAMIC_VLAN_OPTIONAL 1
 118:C:/Users/stapi/OneDrive/Desktop/GD32VW553/V1_MQTT_OK/GD32VW55X_Wifi_BLE_SDK/GD32VW55x_RELEASE_V1.0.2/MSDK/wpa_supplicant/src/ap\ap_config.h **** #define DYNAMIC_VLAN_REQUIRED 2
 119:C:/Users/stapi/OneDrive/Desktop/GD32VW553/V1_MQTT_OK/GD32VW55X_Wifi_BLE_SDK/GD32VW55x_RELEASE_V1.0.2/MSDK/wpa_supplicant/src/ap\ap_config.h **** 	int dynamic_vlan;
 120:C:/Users/stapi/OneDrive/Desktop/GD32VW553/V1_MQTT_OK/GD32VW55X_Wifi_BLE_SDK/GD32VW55x_RELEASE_V1.0.2/MSDK/wpa_supplicant/src/ap\ap_config.h **** #define DYNAMIC_VLAN_NAMING_WITHOUT_DEVICE 0
 121:C:/Users/stapi/OneDrive/Desktop/GD32VW553/V1_MQTT_OK/GD32VW55X_Wifi_BLE_SDK/GD32VW55x_RELEASE_V1.0.2/MSDK/wpa_supplicant/src/ap\ap_config.h **** #define DYNAMIC_VLAN_NAMING_WITH_DEVICE 1
 122:C:/Users/stapi/OneDrive/Desktop/GD32VW553/V1_MQTT_OK/GD32VW55X_Wifi_BLE_SDK/GD32VW55x_RELEASE_V1.0.2/MSDK/wpa_supplicant/src/ap\ap_config.h **** #define DYNAMIC_VLAN_NAMING_END 2
 123:C:/Users/stapi/OneDrive/Desktop/GD32VW553/V1_MQTT_OK/GD32VW55X_Wifi_BLE_SDK/GD32VW55x_RELEASE_V1.0.2/MSDK/wpa_supplicant/src/ap\ap_config.h **** 	int vlan_naming;
 124:C:/Users/stapi/OneDrive/Desktop/GD32VW553/V1_MQTT_OK/GD32VW55X_Wifi_BLE_SDK/GD32VW55x_RELEASE_V1.0.2/MSDK/wpa_supplicant/src/ap\ap_config.h **** 	int per_sta_vif;
 125:C:/Users/stapi/OneDrive/Desktop/GD32VW553/V1_MQTT_OK/GD32VW55X_Wifi_BLE_SDK/GD32VW55x_RELEASE_V1.0.2/MSDK/wpa_supplicant/src/ap\ap_config.h **** #ifdef CONFIG_FULL_DYNAMIC_VLAN
 126:C:/Users/stapi/OneDrive/Desktop/GD32VW553/V1_MQTT_OK/GD32VW55X_Wifi_BLE_SDK/GD32VW55x_RELEASE_V1.0.2/MSDK/wpa_supplicant/src/ap\ap_config.h **** 	char *vlan_tagged_interface;
 127:C:/Users/stapi/OneDrive/Desktop/GD32VW553/V1_MQTT_OK/GD32VW55X_Wifi_BLE_SDK/GD32VW55x_RELEASE_V1.0.2/MSDK/wpa_supplicant/src/ap\ap_config.h **** #endif /* CONFIG_FULL_DYNAMIC_VLAN */
 128:C:/Users/stapi/OneDrive/Desktop/GD32VW553/V1_MQTT_OK/GD32VW55X_Wifi_BLE_SDK/GD32VW55x_RELEASE_V1.0.2/MSDK/wpa_supplicant/src/ap\ap_config.h **** };
 129:C:/Users/stapi/OneDrive/Desktop/GD32VW553/V1_MQTT_OK/GD32VW55X_Wifi_BLE_SDK/GD32VW55x_RELEASE_V1.0.2/MSDK/wpa_supplicant/src/ap\ap_config.h **** 
 130:C:/Users/stapi/OneDrive/Desktop/GD32VW553/V1_MQTT_OK/GD32VW55X_Wifi_BLE_SDK/GD32VW55x_RELEASE_V1.0.2/MSDK/wpa_supplicant/src/ap\ap_config.h **** 
 131:C:/Users/stapi/OneDrive/Desktop/GD32VW553/V1_MQTT_OK/GD32VW55X_Wifi_BLE_SDK/GD32VW55x_RELEASE_V1.0.2/MSDK/wpa_supplicant/src/ap\ap_config.h **** #define VLAN_ID_WILDCARD -1
 132:C:/Users/stapi/OneDrive/Desktop/GD32VW553/V1_MQTT_OK/GD32VW55X_Wifi_BLE_SDK/GD32VW55x_RELEASE_V1.0.2/MSDK/wpa_supplicant/src/ap\ap_config.h **** 
 133:C:/Users/stapi/OneDrive/Desktop/GD32VW553/V1_MQTT_OK/GD32VW55X_Wifi_BLE_SDK/GD32VW55x_RELEASE_V1.0.2/MSDK/wpa_supplicant/src/ap\ap_config.h **** struct hostapd_vlan {
 134:C:/Users/stapi/OneDrive/Desktop/GD32VW553/V1_MQTT_OK/GD32VW55X_Wifi_BLE_SDK/GD32VW55x_RELEASE_V1.0.2/MSDK/wpa_supplicant/src/ap\ap_config.h **** 	struct hostapd_vlan *next;
 135:C:/Users/stapi/OneDrive/Desktop/GD32VW553/V1_MQTT_OK/GD32VW55X_Wifi_BLE_SDK/GD32VW55x_RELEASE_V1.0.2/MSDK/wpa_supplicant/src/ap\ap_config.h **** 	int vlan_id; /* VLAN ID or -1 (VLAN_ID_WILDCARD) for wildcard entry */
 136:C:/Users/stapi/OneDrive/Desktop/GD32VW553/V1_MQTT_OK/GD32VW55X_Wifi_BLE_SDK/GD32VW55x_RELEASE_V1.0.2/MSDK/wpa_supplicant/src/ap\ap_config.h **** 	struct vlan_description vlan_desc;
 137:C:/Users/stapi/OneDrive/Desktop/GD32VW553/V1_MQTT_OK/GD32VW55X_Wifi_BLE_SDK/GD32VW55x_RELEASE_V1.0.2/MSDK/wpa_supplicant/src/ap\ap_config.h **** 	char ifname[IFNAMSIZ + 1];
 138:C:/Users/stapi/OneDrive/Desktop/GD32VW553/V1_MQTT_OK/GD32VW55X_Wifi_BLE_SDK/GD32VW55x_RELEASE_V1.0.2/MSDK/wpa_supplicant/src/ap\ap_config.h **** 	char bridge[IFNAMSIZ + 1];
 139:C:/Users/stapi/OneDrive/Desktop/GD32VW553/V1_MQTT_OK/GD32VW55X_Wifi_BLE_SDK/GD32VW55x_RELEASE_V1.0.2/MSDK/wpa_supplicant/src/ap\ap_config.h **** 	int configured;
 140:C:/Users/stapi/OneDrive/Desktop/GD32VW553/V1_MQTT_OK/GD32VW55X_Wifi_BLE_SDK/GD32VW55x_RELEASE_V1.0.2/MSDK/wpa_supplicant/src/ap\ap_config.h **** 	int dynamic_vlan;
 141:C:/Users/stapi/OneDrive/Desktop/GD32VW553/V1_MQTT_OK/GD32VW55X_Wifi_BLE_SDK/GD32VW55x_RELEASE_V1.0.2/MSDK/wpa_supplicant/src/ap\ap_config.h **** #ifdef CONFIG_FULL_DYNAMIC_VLAN
 142:C:/Users/stapi/OneDrive/Desktop/GD32VW553/V1_MQTT_OK/GD32VW55X_Wifi_BLE_SDK/GD32VW55x_RELEASE_V1.0.2/MSDK/wpa_supplicant/src/ap\ap_config.h **** 
 143:C:/Users/stapi/OneDrive/Desktop/GD32VW553/V1_MQTT_OK/GD32VW55X_Wifi_BLE_SDK/GD32VW55x_RELEASE_V1.0.2/MSDK/wpa_supplicant/src/ap\ap_config.h **** #define DVLAN_CLEAN_WLAN_PORT	0x8
 144:C:/Users/stapi/OneDrive/Desktop/GD32VW553/V1_MQTT_OK/GD32VW55X_Wifi_BLE_SDK/GD32VW55x_RELEASE_V1.0.2/MSDK/wpa_supplicant/src/ap\ap_config.h **** 	int clean;
 145:C:/Users/stapi/OneDrive/Desktop/GD32VW553/V1_MQTT_OK/GD32VW55X_Wifi_BLE_SDK/GD32VW55x_RELEASE_V1.0.2/MSDK/wpa_supplicant/src/ap\ap_config.h **** #endif /* CONFIG_FULL_DYNAMIC_VLAN */
 146:C:/Users/stapi/OneDrive/Desktop/GD32VW553/V1_MQTT_OK/GD32VW55X_Wifi_BLE_SDK/GD32VW55x_RELEASE_V1.0.2/MSDK/wpa_supplicant/src/ap\ap_config.h **** };
 147:C:/Users/stapi/OneDrive/Desktop/GD32VW553/V1_MQTT_OK/GD32VW55X_Wifi_BLE_SDK/GD32VW55x_RELEASE_V1.0.2/MSDK/wpa_supplicant/src/ap\ap_config.h **** 
 148:C:/Users/stapi/OneDrive/Desktop/GD32VW553/V1_MQTT_OK/GD32VW55X_Wifi_BLE_SDK/GD32VW55x_RELEASE_V1.0.2/MSDK/wpa_supplicant/src/ap\ap_config.h **** #define PMK_LEN 32
 149:C:/Users/stapi/OneDrive/Desktop/GD32VW553/V1_MQTT_OK/GD32VW55X_Wifi_BLE_SDK/GD32VW55x_RELEASE_V1.0.2/MSDK/wpa_supplicant/src/ap\ap_config.h **** #define KEYID_LEN 32
 150:C:/Users/stapi/OneDrive/Desktop/GD32VW553/V1_MQTT_OK/GD32VW55X_Wifi_BLE_SDK/GD32VW55x_RELEASE_V1.0.2/MSDK/wpa_supplicant/src/ap\ap_config.h **** #define MIN_PASSPHRASE_LEN 8
 151:C:/Users/stapi/OneDrive/Desktop/GD32VW553/V1_MQTT_OK/GD32VW55X_Wifi_BLE_SDK/GD32VW55x_RELEASE_V1.0.2/MSDK/wpa_supplicant/src/ap\ap_config.h **** #define MAX_PASSPHRASE_LEN 63
 152:C:/Users/stapi/OneDrive/Desktop/GD32VW553/V1_MQTT_OK/GD32VW55X_Wifi_BLE_SDK/GD32VW55x_RELEASE_V1.0.2/MSDK/wpa_supplicant/src/ap\ap_config.h **** struct hostapd_sta_wpa_psk_short {
 153:C:/Users/stapi/OneDrive/Desktop/GD32VW553/V1_MQTT_OK/GD32VW55X_Wifi_BLE_SDK/GD32VW55x_RELEASE_V1.0.2/MSDK/wpa_supplicant/src/ap\ap_config.h **** 	struct hostapd_sta_wpa_psk_short *next;
 154:C:/Users/stapi/OneDrive/Desktop/GD32VW553/V1_MQTT_OK/GD32VW55X_Wifi_BLE_SDK/GD32VW55x_RELEASE_V1.0.2/MSDK/wpa_supplicant/src/ap\ap_config.h **** 	unsigned int is_passphrase:1;
 155:C:/Users/stapi/OneDrive/Desktop/GD32VW553/V1_MQTT_OK/GD32VW55X_Wifi_BLE_SDK/GD32VW55x_RELEASE_V1.0.2/MSDK/wpa_supplicant/src/ap\ap_config.h **** 	u8 psk[PMK_LEN];
 156:C:/Users/stapi/OneDrive/Desktop/GD32VW553/V1_MQTT_OK/GD32VW55X_Wifi_BLE_SDK/GD32VW55x_RELEASE_V1.0.2/MSDK/wpa_supplicant/src/ap\ap_config.h **** 	char passphrase[MAX_PASSPHRASE_LEN + 1];
 157:C:/Users/stapi/OneDrive/Desktop/GD32VW553/V1_MQTT_OK/GD32VW55X_Wifi_BLE_SDK/GD32VW55x_RELEASE_V1.0.2/MSDK/wpa_supplicant/src/ap\ap_config.h **** 	int ref; /* (number of references held) - 1 */
 158:C:/Users/stapi/OneDrive/Desktop/GD32VW553/V1_MQTT_OK/GD32VW55X_Wifi_BLE_SDK/GD32VW55x_RELEASE_V1.0.2/MSDK/wpa_supplicant/src/ap\ap_config.h **** };
 159:C:/Users/stapi/OneDrive/Desktop/GD32VW553/V1_MQTT_OK/GD32VW55X_Wifi_BLE_SDK/GD32VW55x_RELEASE_V1.0.2/MSDK/wpa_supplicant/src/ap\ap_config.h **** 
 160:C:/Users/stapi/OneDrive/Desktop/GD32VW553/V1_MQTT_OK/GD32VW55X_Wifi_BLE_SDK/GD32VW55x_RELEASE_V1.0.2/MSDK/wpa_supplicant/src/ap\ap_config.h **** struct hostapd_wpa_psk {
 161:C:/Users/stapi/OneDrive/Desktop/GD32VW553/V1_MQTT_OK/GD32VW55X_Wifi_BLE_SDK/GD32VW55x_RELEASE_V1.0.2/MSDK/wpa_supplicant/src/ap\ap_config.h **** 	struct hostapd_wpa_psk *next;
 162:C:/Users/stapi/OneDrive/Desktop/GD32VW553/V1_MQTT_OK/GD32VW55X_Wifi_BLE_SDK/GD32VW55x_RELEASE_V1.0.2/MSDK/wpa_supplicant/src/ap\ap_config.h **** 	int group;
 163:C:/Users/stapi/OneDrive/Desktop/GD32VW553/V1_MQTT_OK/GD32VW55X_Wifi_BLE_SDK/GD32VW55x_RELEASE_V1.0.2/MSDK/wpa_supplicant/src/ap\ap_config.h **** 	char keyid[KEYID_LEN];
 164:C:/Users/stapi/OneDrive/Desktop/GD32VW553/V1_MQTT_OK/GD32VW55X_Wifi_BLE_SDK/GD32VW55x_RELEASE_V1.0.2/MSDK/wpa_supplicant/src/ap\ap_config.h **** 	int wps;
 165:C:/Users/stapi/OneDrive/Desktop/GD32VW553/V1_MQTT_OK/GD32VW55X_Wifi_BLE_SDK/GD32VW55x_RELEASE_V1.0.2/MSDK/wpa_supplicant/src/ap\ap_config.h **** 	u8 psk[PMK_LEN];
 166:C:/Users/stapi/OneDrive/Desktop/GD32VW553/V1_MQTT_OK/GD32VW55X_Wifi_BLE_SDK/GD32VW55x_RELEASE_V1.0.2/MSDK/wpa_supplicant/src/ap\ap_config.h **** 	u8 addr[ETH_ALEN];
 167:C:/Users/stapi/OneDrive/Desktop/GD32VW553/V1_MQTT_OK/GD32VW55X_Wifi_BLE_SDK/GD32VW55x_RELEASE_V1.0.2/MSDK/wpa_supplicant/src/ap\ap_config.h **** 	u8 p2p_dev_addr[ETH_ALEN];
 168:C:/Users/stapi/OneDrive/Desktop/GD32VW553/V1_MQTT_OK/GD32VW55X_Wifi_BLE_SDK/GD32VW55x_RELEASE_V1.0.2/MSDK/wpa_supplicant/src/ap\ap_config.h **** 	int vlan_id;
 169:C:/Users/stapi/OneDrive/Desktop/GD32VW553/V1_MQTT_OK/GD32VW55X_Wifi_BLE_SDK/GD32VW55x_RELEASE_V1.0.2/MSDK/wpa_supplicant/src/ap\ap_config.h **** };
 170:C:/Users/stapi/OneDrive/Desktop/GD32VW553/V1_MQTT_OK/GD32VW55X_Wifi_BLE_SDK/GD32VW55x_RELEASE_V1.0.2/MSDK/wpa_supplicant/src/ap\ap_config.h **** 
 171:C:/Users/stapi/OneDrive/Desktop/GD32VW553/V1_MQTT_OK/GD32VW55X_Wifi_BLE_SDK/GD32VW55x_RELEASE_V1.0.2/MSDK/wpa_supplicant/src/ap\ap_config.h **** struct hostapd_eap_user {
 172:C:/Users/stapi/OneDrive/Desktop/GD32VW553/V1_MQTT_OK/GD32VW55X_Wifi_BLE_SDK/GD32VW55x_RELEASE_V1.0.2/MSDK/wpa_supplicant/src/ap\ap_config.h **** 	struct hostapd_eap_user *next;
 173:C:/Users/stapi/OneDrive/Desktop/GD32VW553/V1_MQTT_OK/GD32VW55X_Wifi_BLE_SDK/GD32VW55x_RELEASE_V1.0.2/MSDK/wpa_supplicant/src/ap\ap_config.h **** 	u8 *identity;
 174:C:/Users/stapi/OneDrive/Desktop/GD32VW553/V1_MQTT_OK/GD32VW55X_Wifi_BLE_SDK/GD32VW55x_RELEASE_V1.0.2/MSDK/wpa_supplicant/src/ap\ap_config.h **** 	size_t identity_len;
 175:C:/Users/stapi/OneDrive/Desktop/GD32VW553/V1_MQTT_OK/GD32VW55X_Wifi_BLE_SDK/GD32VW55x_RELEASE_V1.0.2/MSDK/wpa_supplicant/src/ap\ap_config.h **** 	struct {
 176:C:/Users/stapi/OneDrive/Desktop/GD32VW553/V1_MQTT_OK/GD32VW55X_Wifi_BLE_SDK/GD32VW55x_RELEASE_V1.0.2/MSDK/wpa_supplicant/src/ap\ap_config.h **** 		int vendor;
 177:C:/Users/stapi/OneDrive/Desktop/GD32VW553/V1_MQTT_OK/GD32VW55X_Wifi_BLE_SDK/GD32VW55x_RELEASE_V1.0.2/MSDK/wpa_supplicant/src/ap\ap_config.h **** 		u32 method;
 178:C:/Users/stapi/OneDrive/Desktop/GD32VW553/V1_MQTT_OK/GD32VW55X_Wifi_BLE_SDK/GD32VW55x_RELEASE_V1.0.2/MSDK/wpa_supplicant/src/ap\ap_config.h **** 	} methods[EAP_MAX_METHODS];
 179:C:/Users/stapi/OneDrive/Desktop/GD32VW553/V1_MQTT_OK/GD32VW55X_Wifi_BLE_SDK/GD32VW55x_RELEASE_V1.0.2/MSDK/wpa_supplicant/src/ap\ap_config.h **** 	u8 *password;
 180:C:/Users/stapi/OneDrive/Desktop/GD32VW553/V1_MQTT_OK/GD32VW55X_Wifi_BLE_SDK/GD32VW55x_RELEASE_V1.0.2/MSDK/wpa_supplicant/src/ap\ap_config.h **** 	size_t password_len;
 181:C:/Users/stapi/OneDrive/Desktop/GD32VW553/V1_MQTT_OK/GD32VW55X_Wifi_BLE_SDK/GD32VW55x_RELEASE_V1.0.2/MSDK/wpa_supplicant/src/ap\ap_config.h **** 	u8 *salt;
 182:C:/Users/stapi/OneDrive/Desktop/GD32VW553/V1_MQTT_OK/GD32VW55X_Wifi_BLE_SDK/GD32VW55x_RELEASE_V1.0.2/MSDK/wpa_supplicant/src/ap\ap_config.h **** 	size_t salt_len; /* non-zero when password is salted */
 183:C:/Users/stapi/OneDrive/Desktop/GD32VW553/V1_MQTT_OK/GD32VW55X_Wifi_BLE_SDK/GD32VW55x_RELEASE_V1.0.2/MSDK/wpa_supplicant/src/ap\ap_config.h **** 	int phase2;
 184:C:/Users/stapi/OneDrive/Desktop/GD32VW553/V1_MQTT_OK/GD32VW55X_Wifi_BLE_SDK/GD32VW55x_RELEASE_V1.0.2/MSDK/wpa_supplicant/src/ap\ap_config.h **** 	int force_version;
 185:C:/Users/stapi/OneDrive/Desktop/GD32VW553/V1_MQTT_OK/GD32VW55X_Wifi_BLE_SDK/GD32VW55x_RELEASE_V1.0.2/MSDK/wpa_supplicant/src/ap\ap_config.h **** 	unsigned int wildcard_prefix:1;
 186:C:/Users/stapi/OneDrive/Desktop/GD32VW553/V1_MQTT_OK/GD32VW55X_Wifi_BLE_SDK/GD32VW55x_RELEASE_V1.0.2/MSDK/wpa_supplicant/src/ap\ap_config.h **** 	unsigned int password_hash:1; /* whether password is hashed with
 187:C:/Users/stapi/OneDrive/Desktop/GD32VW553/V1_MQTT_OK/GD32VW55X_Wifi_BLE_SDK/GD32VW55x_RELEASE_V1.0.2/MSDK/wpa_supplicant/src/ap\ap_config.h **** 				       * nt_password_hash() */
 188:C:/Users/stapi/OneDrive/Desktop/GD32VW553/V1_MQTT_OK/GD32VW55X_Wifi_BLE_SDK/GD32VW55x_RELEASE_V1.0.2/MSDK/wpa_supplicant/src/ap\ap_config.h **** 	unsigned int remediation:1;
 189:C:/Users/stapi/OneDrive/Desktop/GD32VW553/V1_MQTT_OK/GD32VW55X_Wifi_BLE_SDK/GD32VW55x_RELEASE_V1.0.2/MSDK/wpa_supplicant/src/ap\ap_config.h **** 	unsigned int macacl:1;
 190:C:/Users/stapi/OneDrive/Desktop/GD32VW553/V1_MQTT_OK/GD32VW55X_Wifi_BLE_SDK/GD32VW55x_RELEASE_V1.0.2/MSDK/wpa_supplicant/src/ap\ap_config.h **** 	int ttls_auth; /* EAP_TTLS_AUTH_* bitfield */
 191:C:/Users/stapi/OneDrive/Desktop/GD32VW553/V1_MQTT_OK/GD32VW55X_Wifi_BLE_SDK/GD32VW55x_RELEASE_V1.0.2/MSDK/wpa_supplicant/src/ap\ap_config.h **** 	struct hostapd_radius_attr *accept_attr;
 192:C:/Users/stapi/OneDrive/Desktop/GD32VW553/V1_MQTT_OK/GD32VW55X_Wifi_BLE_SDK/GD32VW55x_RELEASE_V1.0.2/MSDK/wpa_supplicant/src/ap\ap_config.h **** 	u32 t_c_timestamp;
 193:C:/Users/stapi/OneDrive/Desktop/GD32VW553/V1_MQTT_OK/GD32VW55X_Wifi_BLE_SDK/GD32VW55x_RELEASE_V1.0.2/MSDK/wpa_supplicant/src/ap\ap_config.h **** };
 194:C:/Users/stapi/OneDrive/Desktop/GD32VW553/V1_MQTT_OK/GD32VW55X_Wifi_BLE_SDK/GD32VW55x_RELEASE_V1.0.2/MSDK/wpa_supplicant/src/ap\ap_config.h **** 
 195:C:/Users/stapi/OneDrive/Desktop/GD32VW553/V1_MQTT_OK/GD32VW55X_Wifi_BLE_SDK/GD32VW55x_RELEASE_V1.0.2/MSDK/wpa_supplicant/src/ap\ap_config.h **** struct hostapd_radius_attr {
 196:C:/Users/stapi/OneDrive/Desktop/GD32VW553/V1_MQTT_OK/GD32VW55X_Wifi_BLE_SDK/GD32VW55x_RELEASE_V1.0.2/MSDK/wpa_supplicant/src/ap\ap_config.h **** 	u8 type;
 197:C:/Users/stapi/OneDrive/Desktop/GD32VW553/V1_MQTT_OK/GD32VW55X_Wifi_BLE_SDK/GD32VW55x_RELEASE_V1.0.2/MSDK/wpa_supplicant/src/ap\ap_config.h **** 	struct wpabuf *val;
 198:C:/Users/stapi/OneDrive/Desktop/GD32VW553/V1_MQTT_OK/GD32VW55X_Wifi_BLE_SDK/GD32VW55x_RELEASE_V1.0.2/MSDK/wpa_supplicant/src/ap\ap_config.h **** 	struct hostapd_radius_attr *next;
 199:C:/Users/stapi/OneDrive/Desktop/GD32VW553/V1_MQTT_OK/GD32VW55X_Wifi_BLE_SDK/GD32VW55x_RELEASE_V1.0.2/MSDK/wpa_supplicant/src/ap\ap_config.h **** };
 200:C:/Users/stapi/OneDrive/Desktop/GD32VW553/V1_MQTT_OK/GD32VW55X_Wifi_BLE_SDK/GD32VW55x_RELEASE_V1.0.2/MSDK/wpa_supplicant/src/ap\ap_config.h **** 
 201:C:/Users/stapi/OneDrive/Desktop/GD32VW553/V1_MQTT_OK/GD32VW55X_Wifi_BLE_SDK/GD32VW55x_RELEASE_V1.0.2/MSDK/wpa_supplicant/src/ap\ap_config.h **** 
 202:C:/Users/stapi/OneDrive/Desktop/GD32VW553/V1_MQTT_OK/GD32VW55X_Wifi_BLE_SDK/GD32VW55x_RELEASE_V1.0.2/MSDK/wpa_supplicant/src/ap\ap_config.h **** #define NUM_TX_QUEUES 4
 203:C:/Users/stapi/OneDrive/Desktop/GD32VW553/V1_MQTT_OK/GD32VW55X_Wifi_BLE_SDK/GD32VW55x_RELEASE_V1.0.2/MSDK/wpa_supplicant/src/ap\ap_config.h **** #define MAX_ROAMING_CONSORTIUM_LEN 15
 204:C:/Users/stapi/OneDrive/Desktop/GD32VW553/V1_MQTT_OK/GD32VW55X_Wifi_BLE_SDK/GD32VW55x_RELEASE_V1.0.2/MSDK/wpa_supplicant/src/ap\ap_config.h **** 
 205:C:/Users/stapi/OneDrive/Desktop/GD32VW553/V1_MQTT_OK/GD32VW55X_Wifi_BLE_SDK/GD32VW55x_RELEASE_V1.0.2/MSDK/wpa_supplicant/src/ap\ap_config.h **** struct hostapd_roaming_consortium {
 206:C:/Users/stapi/OneDrive/Desktop/GD32VW553/V1_MQTT_OK/GD32VW55X_Wifi_BLE_SDK/GD32VW55x_RELEASE_V1.0.2/MSDK/wpa_supplicant/src/ap\ap_config.h **** 	u8 len;
 207:C:/Users/stapi/OneDrive/Desktop/GD32VW553/V1_MQTT_OK/GD32VW55X_Wifi_BLE_SDK/GD32VW55x_RELEASE_V1.0.2/MSDK/wpa_supplicant/src/ap\ap_config.h **** 	u8 oi[MAX_ROAMING_CONSORTIUM_LEN];
 208:C:/Users/stapi/OneDrive/Desktop/GD32VW553/V1_MQTT_OK/GD32VW55X_Wifi_BLE_SDK/GD32VW55x_RELEASE_V1.0.2/MSDK/wpa_supplicant/src/ap\ap_config.h **** };
 209:C:/Users/stapi/OneDrive/Desktop/GD32VW553/V1_MQTT_OK/GD32VW55X_Wifi_BLE_SDK/GD32VW55x_RELEASE_V1.0.2/MSDK/wpa_supplicant/src/ap\ap_config.h **** 
 210:C:/Users/stapi/OneDrive/Desktop/GD32VW553/V1_MQTT_OK/GD32VW55X_Wifi_BLE_SDK/GD32VW55x_RELEASE_V1.0.2/MSDK/wpa_supplicant/src/ap\ap_config.h **** struct hostapd_lang_string {
 211:C:/Users/stapi/OneDrive/Desktop/GD32VW553/V1_MQTT_OK/GD32VW55X_Wifi_BLE_SDK/GD32VW55x_RELEASE_V1.0.2/MSDK/wpa_supplicant/src/ap\ap_config.h **** 	u8 lang[3];
 212:C:/Users/stapi/OneDrive/Desktop/GD32VW553/V1_MQTT_OK/GD32VW55X_Wifi_BLE_SDK/GD32VW55x_RELEASE_V1.0.2/MSDK/wpa_supplicant/src/ap\ap_config.h **** 	u8 name_len;
 213:C:/Users/stapi/OneDrive/Desktop/GD32VW553/V1_MQTT_OK/GD32VW55X_Wifi_BLE_SDK/GD32VW55x_RELEASE_V1.0.2/MSDK/wpa_supplicant/src/ap\ap_config.h **** 	u8 name[252];
 214:C:/Users/stapi/OneDrive/Desktop/GD32VW553/V1_MQTT_OK/GD32VW55X_Wifi_BLE_SDK/GD32VW55x_RELEASE_V1.0.2/MSDK/wpa_supplicant/src/ap\ap_config.h **** };
 215:C:/Users/stapi/OneDrive/Desktop/GD32VW553/V1_MQTT_OK/GD32VW55X_Wifi_BLE_SDK/GD32VW55x_RELEASE_V1.0.2/MSDK/wpa_supplicant/src/ap\ap_config.h **** 
 216:C:/Users/stapi/OneDrive/Desktop/GD32VW553/V1_MQTT_OK/GD32VW55X_Wifi_BLE_SDK/GD32VW55x_RELEASE_V1.0.2/MSDK/wpa_supplicant/src/ap\ap_config.h **** struct hostapd_venue_url {
 217:C:/Users/stapi/OneDrive/Desktop/GD32VW553/V1_MQTT_OK/GD32VW55X_Wifi_BLE_SDK/GD32VW55x_RELEASE_V1.0.2/MSDK/wpa_supplicant/src/ap\ap_config.h **** 	u8 venue_number;
 218:C:/Users/stapi/OneDrive/Desktop/GD32VW553/V1_MQTT_OK/GD32VW55X_Wifi_BLE_SDK/GD32VW55x_RELEASE_V1.0.2/MSDK/wpa_supplicant/src/ap\ap_config.h **** 	u8 url_len;
 219:C:/Users/stapi/OneDrive/Desktop/GD32VW553/V1_MQTT_OK/GD32VW55X_Wifi_BLE_SDK/GD32VW55x_RELEASE_V1.0.2/MSDK/wpa_supplicant/src/ap\ap_config.h **** 	u8 url[254];
 220:C:/Users/stapi/OneDrive/Desktop/GD32VW553/V1_MQTT_OK/GD32VW55X_Wifi_BLE_SDK/GD32VW55x_RELEASE_V1.0.2/MSDK/wpa_supplicant/src/ap\ap_config.h **** };
 221:C:/Users/stapi/OneDrive/Desktop/GD32VW553/V1_MQTT_OK/GD32VW55X_Wifi_BLE_SDK/GD32VW55x_RELEASE_V1.0.2/MSDK/wpa_supplicant/src/ap\ap_config.h **** 
 222:C:/Users/stapi/OneDrive/Desktop/GD32VW553/V1_MQTT_OK/GD32VW55X_Wifi_BLE_SDK/GD32VW55x_RELEASE_V1.0.2/MSDK/wpa_supplicant/src/ap\ap_config.h **** #define MAX_NAI_REALMS 10
 223:C:/Users/stapi/OneDrive/Desktop/GD32VW553/V1_MQTT_OK/GD32VW55X_Wifi_BLE_SDK/GD32VW55x_RELEASE_V1.0.2/MSDK/wpa_supplicant/src/ap\ap_config.h **** #define MAX_NAI_REALMLEN 255
 224:C:/Users/stapi/OneDrive/Desktop/GD32VW553/V1_MQTT_OK/GD32VW55X_Wifi_BLE_SDK/GD32VW55x_RELEASE_V1.0.2/MSDK/wpa_supplicant/src/ap\ap_config.h **** #define MAX_NAI_EAP_METHODS 5
 225:C:/Users/stapi/OneDrive/Desktop/GD32VW553/V1_MQTT_OK/GD32VW55X_Wifi_BLE_SDK/GD32VW55x_RELEASE_V1.0.2/MSDK/wpa_supplicant/src/ap\ap_config.h **** #define MAX_NAI_AUTH_TYPES 4
 226:C:/Users/stapi/OneDrive/Desktop/GD32VW553/V1_MQTT_OK/GD32VW55X_Wifi_BLE_SDK/GD32VW55x_RELEASE_V1.0.2/MSDK/wpa_supplicant/src/ap\ap_config.h **** struct hostapd_nai_realm_data {
 227:C:/Users/stapi/OneDrive/Desktop/GD32VW553/V1_MQTT_OK/GD32VW55X_Wifi_BLE_SDK/GD32VW55x_RELEASE_V1.0.2/MSDK/wpa_supplicant/src/ap\ap_config.h **** 	u8 encoding;
 228:C:/Users/stapi/OneDrive/Desktop/GD32VW553/V1_MQTT_OK/GD32VW55X_Wifi_BLE_SDK/GD32VW55x_RELEASE_V1.0.2/MSDK/wpa_supplicant/src/ap\ap_config.h **** 	char realm_buf[MAX_NAI_REALMLEN + 1];
 229:C:/Users/stapi/OneDrive/Desktop/GD32VW553/V1_MQTT_OK/GD32VW55X_Wifi_BLE_SDK/GD32VW55x_RELEASE_V1.0.2/MSDK/wpa_supplicant/src/ap\ap_config.h **** 	char *realm[MAX_NAI_REALMS];
 230:C:/Users/stapi/OneDrive/Desktop/GD32VW553/V1_MQTT_OK/GD32VW55X_Wifi_BLE_SDK/GD32VW55x_RELEASE_V1.0.2/MSDK/wpa_supplicant/src/ap\ap_config.h **** 	u8 eap_method_count;
 231:C:/Users/stapi/OneDrive/Desktop/GD32VW553/V1_MQTT_OK/GD32VW55X_Wifi_BLE_SDK/GD32VW55x_RELEASE_V1.0.2/MSDK/wpa_supplicant/src/ap\ap_config.h **** 	struct hostapd_nai_realm_eap {
 232:C:/Users/stapi/OneDrive/Desktop/GD32VW553/V1_MQTT_OK/GD32VW55X_Wifi_BLE_SDK/GD32VW55x_RELEASE_V1.0.2/MSDK/wpa_supplicant/src/ap\ap_config.h **** 		u8 eap_method;
 233:C:/Users/stapi/OneDrive/Desktop/GD32VW553/V1_MQTT_OK/GD32VW55X_Wifi_BLE_SDK/GD32VW55x_RELEASE_V1.0.2/MSDK/wpa_supplicant/src/ap\ap_config.h **** 		u8 num_auths;
 234:C:/Users/stapi/OneDrive/Desktop/GD32VW553/V1_MQTT_OK/GD32VW55X_Wifi_BLE_SDK/GD32VW55x_RELEASE_V1.0.2/MSDK/wpa_supplicant/src/ap\ap_config.h **** 		u8 auth_id[MAX_NAI_AUTH_TYPES];
 235:C:/Users/stapi/OneDrive/Desktop/GD32VW553/V1_MQTT_OK/GD32VW55X_Wifi_BLE_SDK/GD32VW55x_RELEASE_V1.0.2/MSDK/wpa_supplicant/src/ap\ap_config.h **** 		u8 auth_val[MAX_NAI_AUTH_TYPES];
 236:C:/Users/stapi/OneDrive/Desktop/GD32VW553/V1_MQTT_OK/GD32VW55X_Wifi_BLE_SDK/GD32VW55x_RELEASE_V1.0.2/MSDK/wpa_supplicant/src/ap\ap_config.h **** 	} eap_method[MAX_NAI_EAP_METHODS];
 237:C:/Users/stapi/OneDrive/Desktop/GD32VW553/V1_MQTT_OK/GD32VW55X_Wifi_BLE_SDK/GD32VW55x_RELEASE_V1.0.2/MSDK/wpa_supplicant/src/ap\ap_config.h **** };
 238:C:/Users/stapi/OneDrive/Desktop/GD32VW553/V1_MQTT_OK/GD32VW55X_Wifi_BLE_SDK/GD32VW55x_RELEASE_V1.0.2/MSDK/wpa_supplicant/src/ap\ap_config.h **** 
 239:C:/Users/stapi/OneDrive/Desktop/GD32VW553/V1_MQTT_OK/GD32VW55X_Wifi_BLE_SDK/GD32VW55x_RELEASE_V1.0.2/MSDK/wpa_supplicant/src/ap\ap_config.h **** struct anqp_element {
 240:C:/Users/stapi/OneDrive/Desktop/GD32VW553/V1_MQTT_OK/GD32VW55X_Wifi_BLE_SDK/GD32VW55x_RELEASE_V1.0.2/MSDK/wpa_supplicant/src/ap\ap_config.h **** 	struct dl_list list;
 241:C:/Users/stapi/OneDrive/Desktop/GD32VW553/V1_MQTT_OK/GD32VW55X_Wifi_BLE_SDK/GD32VW55x_RELEASE_V1.0.2/MSDK/wpa_supplicant/src/ap\ap_config.h **** 	u16 infoid;
 242:C:/Users/stapi/OneDrive/Desktop/GD32VW553/V1_MQTT_OK/GD32VW55X_Wifi_BLE_SDK/GD32VW55x_RELEASE_V1.0.2/MSDK/wpa_supplicant/src/ap\ap_config.h **** 	struct wpabuf *payload;
 243:C:/Users/stapi/OneDrive/Desktop/GD32VW553/V1_MQTT_OK/GD32VW55X_Wifi_BLE_SDK/GD32VW55x_RELEASE_V1.0.2/MSDK/wpa_supplicant/src/ap\ap_config.h **** };
 244:C:/Users/stapi/OneDrive/Desktop/GD32VW553/V1_MQTT_OK/GD32VW55X_Wifi_BLE_SDK/GD32VW55x_RELEASE_V1.0.2/MSDK/wpa_supplicant/src/ap\ap_config.h **** 
 245:C:/Users/stapi/OneDrive/Desktop/GD32VW553/V1_MQTT_OK/GD32VW55X_Wifi_BLE_SDK/GD32VW55x_RELEASE_V1.0.2/MSDK/wpa_supplicant/src/ap\ap_config.h **** struct fils_realm {
 246:C:/Users/stapi/OneDrive/Desktop/GD32VW553/V1_MQTT_OK/GD32VW55X_Wifi_BLE_SDK/GD32VW55x_RELEASE_V1.0.2/MSDK/wpa_supplicant/src/ap\ap_config.h **** 	struct dl_list list;
 247:C:/Users/stapi/OneDrive/Desktop/GD32VW553/V1_MQTT_OK/GD32VW55X_Wifi_BLE_SDK/GD32VW55x_RELEASE_V1.0.2/MSDK/wpa_supplicant/src/ap\ap_config.h **** 	u8 hash[2];
 248:C:/Users/stapi/OneDrive/Desktop/GD32VW553/V1_MQTT_OK/GD32VW55X_Wifi_BLE_SDK/GD32VW55x_RELEASE_V1.0.2/MSDK/wpa_supplicant/src/ap\ap_config.h **** 	char realm[];
 249:C:/Users/stapi/OneDrive/Desktop/GD32VW553/V1_MQTT_OK/GD32VW55X_Wifi_BLE_SDK/GD32VW55x_RELEASE_V1.0.2/MSDK/wpa_supplicant/src/ap\ap_config.h **** };
 250:C:/Users/stapi/OneDrive/Desktop/GD32VW553/V1_MQTT_OK/GD32VW55X_Wifi_BLE_SDK/GD32VW55x_RELEASE_V1.0.2/MSDK/wpa_supplicant/src/ap\ap_config.h **** 
 251:C:/Users/stapi/OneDrive/Desktop/GD32VW553/V1_MQTT_OK/GD32VW55X_Wifi_BLE_SDK/GD32VW55x_RELEASE_V1.0.2/MSDK/wpa_supplicant/src/ap\ap_config.h **** struct sae_password_entry {
 252:C:/Users/stapi/OneDrive/Desktop/GD32VW553/V1_MQTT_OK/GD32VW55X_Wifi_BLE_SDK/GD32VW55x_RELEASE_V1.0.2/MSDK/wpa_supplicant/src/ap\ap_config.h **** 	struct sae_password_entry *next;
 253:C:/Users/stapi/OneDrive/Desktop/GD32VW553/V1_MQTT_OK/GD32VW55X_Wifi_BLE_SDK/GD32VW55x_RELEASE_V1.0.2/MSDK/wpa_supplicant/src/ap\ap_config.h **** 	char *password;
 254:C:/Users/stapi/OneDrive/Desktop/GD32VW553/V1_MQTT_OK/GD32VW55X_Wifi_BLE_SDK/GD32VW55x_RELEASE_V1.0.2/MSDK/wpa_supplicant/src/ap\ap_config.h **** 	char *identifier;
 255:C:/Users/stapi/OneDrive/Desktop/GD32VW553/V1_MQTT_OK/GD32VW55X_Wifi_BLE_SDK/GD32VW55x_RELEASE_V1.0.2/MSDK/wpa_supplicant/src/ap\ap_config.h **** 	u8 peer_addr[ETH_ALEN];
 256:C:/Users/stapi/OneDrive/Desktop/GD32VW553/V1_MQTT_OK/GD32VW55X_Wifi_BLE_SDK/GD32VW55x_RELEASE_V1.0.2/MSDK/wpa_supplicant/src/ap\ap_config.h **** 	int vlan_id;
 257:C:/Users/stapi/OneDrive/Desktop/GD32VW553/V1_MQTT_OK/GD32VW55X_Wifi_BLE_SDK/GD32VW55x_RELEASE_V1.0.2/MSDK/wpa_supplicant/src/ap\ap_config.h **** 	struct sae_pt *pt;
 258:C:/Users/stapi/OneDrive/Desktop/GD32VW553/V1_MQTT_OK/GD32VW55X_Wifi_BLE_SDK/GD32VW55x_RELEASE_V1.0.2/MSDK/wpa_supplicant/src/ap\ap_config.h **** 	struct sae_pk *pk;
 259:C:/Users/stapi/OneDrive/Desktop/GD32VW553/V1_MQTT_OK/GD32VW55X_Wifi_BLE_SDK/GD32VW55x_RELEASE_V1.0.2/MSDK/wpa_supplicant/src/ap\ap_config.h **** };
 260:C:/Users/stapi/OneDrive/Desktop/GD32VW553/V1_MQTT_OK/GD32VW55X_Wifi_BLE_SDK/GD32VW55x_RELEASE_V1.0.2/MSDK/wpa_supplicant/src/ap\ap_config.h **** 
 261:C:/Users/stapi/OneDrive/Desktop/GD32VW553/V1_MQTT_OK/GD32VW55X_Wifi_BLE_SDK/GD32VW55x_RELEASE_V1.0.2/MSDK/wpa_supplicant/src/ap\ap_config.h **** struct dpp_controller_conf {
 262:C:/Users/stapi/OneDrive/Desktop/GD32VW553/V1_MQTT_OK/GD32VW55X_Wifi_BLE_SDK/GD32VW55x_RELEASE_V1.0.2/MSDK/wpa_supplicant/src/ap\ap_config.h **** 	struct dpp_controller_conf *next;
 263:C:/Users/stapi/OneDrive/Desktop/GD32VW553/V1_MQTT_OK/GD32VW55X_Wifi_BLE_SDK/GD32VW55x_RELEASE_V1.0.2/MSDK/wpa_supplicant/src/ap\ap_config.h **** 	u8 pkhash[SHA256_MAC_LEN];
 264:C:/Users/stapi/OneDrive/Desktop/GD32VW553/V1_MQTT_OK/GD32VW55X_Wifi_BLE_SDK/GD32VW55x_RELEASE_V1.0.2/MSDK/wpa_supplicant/src/ap\ap_config.h **** 	struct hostapd_ip_addr ipaddr;
 265:C:/Users/stapi/OneDrive/Desktop/GD32VW553/V1_MQTT_OK/GD32VW55X_Wifi_BLE_SDK/GD32VW55x_RELEASE_V1.0.2/MSDK/wpa_supplicant/src/ap\ap_config.h **** };
 266:C:/Users/stapi/OneDrive/Desktop/GD32VW553/V1_MQTT_OK/GD32VW55X_Wifi_BLE_SDK/GD32VW55x_RELEASE_V1.0.2/MSDK/wpa_supplicant/src/ap\ap_config.h **** 
 267:C:/Users/stapi/OneDrive/Desktop/GD32VW553/V1_MQTT_OK/GD32VW55X_Wifi_BLE_SDK/GD32VW55x_RELEASE_V1.0.2/MSDK/wpa_supplicant/src/ap\ap_config.h **** struct airtime_sta_weight {
 268:C:/Users/stapi/OneDrive/Desktop/GD32VW553/V1_MQTT_OK/GD32VW55X_Wifi_BLE_SDK/GD32VW55x_RELEASE_V1.0.2/MSDK/wpa_supplicant/src/ap\ap_config.h **** 	struct airtime_sta_weight *next;
 269:C:/Users/stapi/OneDrive/Desktop/GD32VW553/V1_MQTT_OK/GD32VW55X_Wifi_BLE_SDK/GD32VW55x_RELEASE_V1.0.2/MSDK/wpa_supplicant/src/ap\ap_config.h **** 	unsigned int weight;
 270:C:/Users/stapi/OneDrive/Desktop/GD32VW553/V1_MQTT_OK/GD32VW55X_Wifi_BLE_SDK/GD32VW55x_RELEASE_V1.0.2/MSDK/wpa_supplicant/src/ap\ap_config.h **** 	u8 addr[ETH_ALEN];
 271:C:/Users/stapi/OneDrive/Desktop/GD32VW553/V1_MQTT_OK/GD32VW55X_Wifi_BLE_SDK/GD32VW55x_RELEASE_V1.0.2/MSDK/wpa_supplicant/src/ap\ap_config.h **** };
 272:C:/Users/stapi/OneDrive/Desktop/GD32VW553/V1_MQTT_OK/GD32VW55X_Wifi_BLE_SDK/GD32VW55x_RELEASE_V1.0.2/MSDK/wpa_supplicant/src/ap\ap_config.h **** 
 273:C:/Users/stapi/OneDrive/Desktop/GD32VW553/V1_MQTT_OK/GD32VW55X_Wifi_BLE_SDK/GD32VW55x_RELEASE_V1.0.2/MSDK/wpa_supplicant/src/ap\ap_config.h **** #define EXT_CAPA_MAX_LEN 15
 274:C:/Users/stapi/OneDrive/Desktop/GD32VW553/V1_MQTT_OK/GD32VW55X_Wifi_BLE_SDK/GD32VW55x_RELEASE_V1.0.2/MSDK/wpa_supplicant/src/ap\ap_config.h **** 
 275:C:/Users/stapi/OneDrive/Desktop/GD32VW553/V1_MQTT_OK/GD32VW55X_Wifi_BLE_SDK/GD32VW55x_RELEASE_V1.0.2/MSDK/wpa_supplicant/src/ap\ap_config.h **** /**
 276:C:/Users/stapi/OneDrive/Desktop/GD32VW553/V1_MQTT_OK/GD32VW55X_Wifi_BLE_SDK/GD32VW55x_RELEASE_V1.0.2/MSDK/wpa_supplicant/src/ap\ap_config.h ****  * struct hostapd_bss_config - Per-BSS configuration
 277:C:/Users/stapi/OneDrive/Desktop/GD32VW553/V1_MQTT_OK/GD32VW55X_Wifi_BLE_SDK/GD32VW55x_RELEASE_V1.0.2/MSDK/wpa_supplicant/src/ap\ap_config.h ****  */
 278:C:/Users/stapi/OneDrive/Desktop/GD32VW553/V1_MQTT_OK/GD32VW55X_Wifi_BLE_SDK/GD32VW55x_RELEASE_V1.0.2/MSDK/wpa_supplicant/src/ap\ap_config.h **** struct hostapd_bss_config {
 279:C:/Users/stapi/OneDrive/Desktop/GD32VW553/V1_MQTT_OK/GD32VW55X_Wifi_BLE_SDK/GD32VW55x_RELEASE_V1.0.2/MSDK/wpa_supplicant/src/ap\ap_config.h **** 	char iface[IFNAMSIZ + 1];
 280:C:/Users/stapi/OneDrive/Desktop/GD32VW553/V1_MQTT_OK/GD32VW55X_Wifi_BLE_SDK/GD32VW55x_RELEASE_V1.0.2/MSDK/wpa_supplicant/src/ap\ap_config.h **** 	char bridge[IFNAMSIZ + 1];
 281:C:/Users/stapi/OneDrive/Desktop/GD32VW553/V1_MQTT_OK/GD32VW55X_Wifi_BLE_SDK/GD32VW55x_RELEASE_V1.0.2/MSDK/wpa_supplicant/src/ap\ap_config.h **** 	char vlan_bridge[IFNAMSIZ + 1];
 282:C:/Users/stapi/OneDrive/Desktop/GD32VW553/V1_MQTT_OK/GD32VW55X_Wifi_BLE_SDK/GD32VW55x_RELEASE_V1.0.2/MSDK/wpa_supplicant/src/ap\ap_config.h **** 	char wds_bridge[IFNAMSIZ + 1];
 283:C:/Users/stapi/OneDrive/Desktop/GD32VW553/V1_MQTT_OK/GD32VW55X_Wifi_BLE_SDK/GD32VW55x_RELEASE_V1.0.2/MSDK/wpa_supplicant/src/ap\ap_config.h **** 
 284:C:/Users/stapi/OneDrive/Desktop/GD32VW553/V1_MQTT_OK/GD32VW55X_Wifi_BLE_SDK/GD32VW55x_RELEASE_V1.0.2/MSDK/wpa_supplicant/src/ap\ap_config.h **** 	enum hostapd_logger_level logger_syslog_level, logger_stdout_level;
 285:C:/Users/stapi/OneDrive/Desktop/GD32VW553/V1_MQTT_OK/GD32VW55X_Wifi_BLE_SDK/GD32VW55x_RELEASE_V1.0.2/MSDK/wpa_supplicant/src/ap\ap_config.h **** 
 286:C:/Users/stapi/OneDrive/Desktop/GD32VW553/V1_MQTT_OK/GD32VW55X_Wifi_BLE_SDK/GD32VW55x_RELEASE_V1.0.2/MSDK/wpa_supplicant/src/ap\ap_config.h **** 	unsigned int logger_syslog; /* module bitfield */
 287:C:/Users/stapi/OneDrive/Desktop/GD32VW553/V1_MQTT_OK/GD32VW55X_Wifi_BLE_SDK/GD32VW55x_RELEASE_V1.0.2/MSDK/wpa_supplicant/src/ap\ap_config.h **** 	unsigned int logger_stdout; /* module bitfield */
 288:C:/Users/stapi/OneDrive/Desktop/GD32VW553/V1_MQTT_OK/GD32VW55X_Wifi_BLE_SDK/GD32VW55x_RELEASE_V1.0.2/MSDK/wpa_supplicant/src/ap\ap_config.h **** 
 289:C:/Users/stapi/OneDrive/Desktop/GD32VW553/V1_MQTT_OK/GD32VW55X_Wifi_BLE_SDK/GD32VW55x_RELEASE_V1.0.2/MSDK/wpa_supplicant/src/ap\ap_config.h **** 	int max_num_sta; /* maximum number of STAs in station table */
 290:C:/Users/stapi/OneDrive/Desktop/GD32VW553/V1_MQTT_OK/GD32VW55X_Wifi_BLE_SDK/GD32VW55x_RELEASE_V1.0.2/MSDK/wpa_supplicant/src/ap\ap_config.h **** 
 291:C:/Users/stapi/OneDrive/Desktop/GD32VW553/V1_MQTT_OK/GD32VW55X_Wifi_BLE_SDK/GD32VW55x_RELEASE_V1.0.2/MSDK/wpa_supplicant/src/ap\ap_config.h **** 	int dtim_period;
 292:C:/Users/stapi/OneDrive/Desktop/GD32VW553/V1_MQTT_OK/GD32VW55X_Wifi_BLE_SDK/GD32VW55x_RELEASE_V1.0.2/MSDK/wpa_supplicant/src/ap\ap_config.h **** 	unsigned int bss_load_update_period;
 293:C:/Users/stapi/OneDrive/Desktop/GD32VW553/V1_MQTT_OK/GD32VW55X_Wifi_BLE_SDK/GD32VW55x_RELEASE_V1.0.2/MSDK/wpa_supplicant/src/ap\ap_config.h **** 	unsigned int chan_util_avg_period;
 294:C:/Users/stapi/OneDrive/Desktop/GD32VW553/V1_MQTT_OK/GD32VW55X_Wifi_BLE_SDK/GD32VW55x_RELEASE_V1.0.2/MSDK/wpa_supplicant/src/ap\ap_config.h **** 
 295:C:/Users/stapi/OneDrive/Desktop/GD32VW553/V1_MQTT_OK/GD32VW55X_Wifi_BLE_SDK/GD32VW55x_RELEASE_V1.0.2/MSDK/wpa_supplicant/src/ap\ap_config.h **** 	int ieee802_1x; /* use IEEE 802.1X */
 296:C:/Users/stapi/OneDrive/Desktop/GD32VW553/V1_MQTT_OK/GD32VW55X_Wifi_BLE_SDK/GD32VW55x_RELEASE_V1.0.2/MSDK/wpa_supplicant/src/ap\ap_config.h **** 	int eapol_version;
 297:C:/Users/stapi/OneDrive/Desktop/GD32VW553/V1_MQTT_OK/GD32VW55X_Wifi_BLE_SDK/GD32VW55x_RELEASE_V1.0.2/MSDK/wpa_supplicant/src/ap\ap_config.h **** 	int eap_server; /* Use internal EAP server instead of external
 298:C:/Users/stapi/OneDrive/Desktop/GD32VW553/V1_MQTT_OK/GD32VW55X_Wifi_BLE_SDK/GD32VW55x_RELEASE_V1.0.2/MSDK/wpa_supplicant/src/ap\ap_config.h **** 			 * RADIUS server */
 299:C:/Users/stapi/OneDrive/Desktop/GD32VW553/V1_MQTT_OK/GD32VW55X_Wifi_BLE_SDK/GD32VW55x_RELEASE_V1.0.2/MSDK/wpa_supplicant/src/ap\ap_config.h **** 	struct hostapd_eap_user *eap_user;
 300:C:/Users/stapi/OneDrive/Desktop/GD32VW553/V1_MQTT_OK/GD32VW55X_Wifi_BLE_SDK/GD32VW55x_RELEASE_V1.0.2/MSDK/wpa_supplicant/src/ap\ap_config.h **** 	char *eap_user_sqlite;
 301:C:/Users/stapi/OneDrive/Desktop/GD32VW553/V1_MQTT_OK/GD32VW55X_Wifi_BLE_SDK/GD32VW55x_RELEASE_V1.0.2/MSDK/wpa_supplicant/src/ap\ap_config.h **** 	char *eap_sim_db;
 302:C:/Users/stapi/OneDrive/Desktop/GD32VW553/V1_MQTT_OK/GD32VW55X_Wifi_BLE_SDK/GD32VW55x_RELEASE_V1.0.2/MSDK/wpa_supplicant/src/ap\ap_config.h **** 	unsigned int eap_sim_db_timeout;
 303:C:/Users/stapi/OneDrive/Desktop/GD32VW553/V1_MQTT_OK/GD32VW55X_Wifi_BLE_SDK/GD32VW55x_RELEASE_V1.0.2/MSDK/wpa_supplicant/src/ap\ap_config.h **** 	int eap_server_erp; /* Whether ERP is enabled on internal EAP server */
 304:C:/Users/stapi/OneDrive/Desktop/GD32VW553/V1_MQTT_OK/GD32VW55X_Wifi_BLE_SDK/GD32VW55x_RELEASE_V1.0.2/MSDK/wpa_supplicant/src/ap\ap_config.h **** 	struct hostapd_ip_addr own_ip_addr;
 305:C:/Users/stapi/OneDrive/Desktop/GD32VW553/V1_MQTT_OK/GD32VW55X_Wifi_BLE_SDK/GD32VW55x_RELEASE_V1.0.2/MSDK/wpa_supplicant/src/ap\ap_config.h **** 	char *nas_identifier;
 306:C:/Users/stapi/OneDrive/Desktop/GD32VW553/V1_MQTT_OK/GD32VW55X_Wifi_BLE_SDK/GD32VW55x_RELEASE_V1.0.2/MSDK/wpa_supplicant/src/ap\ap_config.h **** 	struct hostapd_radius_servers *radius;
 307:C:/Users/stapi/OneDrive/Desktop/GD32VW553/V1_MQTT_OK/GD32VW55X_Wifi_BLE_SDK/GD32VW55x_RELEASE_V1.0.2/MSDK/wpa_supplicant/src/ap\ap_config.h **** 	int acct_interim_interval;
 308:C:/Users/stapi/OneDrive/Desktop/GD32VW553/V1_MQTT_OK/GD32VW55X_Wifi_BLE_SDK/GD32VW55x_RELEASE_V1.0.2/MSDK/wpa_supplicant/src/ap\ap_config.h **** 	int radius_request_cui;
 309:C:/Users/stapi/OneDrive/Desktop/GD32VW553/V1_MQTT_OK/GD32VW55X_Wifi_BLE_SDK/GD32VW55x_RELEASE_V1.0.2/MSDK/wpa_supplicant/src/ap\ap_config.h **** 	struct hostapd_radius_attr *radius_auth_req_attr;
 310:C:/Users/stapi/OneDrive/Desktop/GD32VW553/V1_MQTT_OK/GD32VW55X_Wifi_BLE_SDK/GD32VW55x_RELEASE_V1.0.2/MSDK/wpa_supplicant/src/ap\ap_config.h **** 	struct hostapd_radius_attr *radius_acct_req_attr;
 311:C:/Users/stapi/OneDrive/Desktop/GD32VW553/V1_MQTT_OK/GD32VW55X_Wifi_BLE_SDK/GD32VW55x_RELEASE_V1.0.2/MSDK/wpa_supplicant/src/ap\ap_config.h **** 	char *radius_req_attr_sqlite;
 312:C:/Users/stapi/OneDrive/Desktop/GD32VW553/V1_MQTT_OK/GD32VW55X_Wifi_BLE_SDK/GD32VW55x_RELEASE_V1.0.2/MSDK/wpa_supplicant/src/ap\ap_config.h **** 	int radius_das_port;
 313:C:/Users/stapi/OneDrive/Desktop/GD32VW553/V1_MQTT_OK/GD32VW55X_Wifi_BLE_SDK/GD32VW55x_RELEASE_V1.0.2/MSDK/wpa_supplicant/src/ap\ap_config.h **** 	unsigned int radius_das_time_window;
 314:C:/Users/stapi/OneDrive/Desktop/GD32VW553/V1_MQTT_OK/GD32VW55X_Wifi_BLE_SDK/GD32VW55x_RELEASE_V1.0.2/MSDK/wpa_supplicant/src/ap\ap_config.h **** 	int radius_das_require_event_timestamp;
 315:C:/Users/stapi/OneDrive/Desktop/GD32VW553/V1_MQTT_OK/GD32VW55X_Wifi_BLE_SDK/GD32VW55x_RELEASE_V1.0.2/MSDK/wpa_supplicant/src/ap\ap_config.h **** 	int radius_das_require_message_authenticator;
 316:C:/Users/stapi/OneDrive/Desktop/GD32VW553/V1_MQTT_OK/GD32VW55X_Wifi_BLE_SDK/GD32VW55x_RELEASE_V1.0.2/MSDK/wpa_supplicant/src/ap\ap_config.h **** 	struct hostapd_ip_addr radius_das_client_addr;
 317:C:/Users/stapi/OneDrive/Desktop/GD32VW553/V1_MQTT_OK/GD32VW55X_Wifi_BLE_SDK/GD32VW55x_RELEASE_V1.0.2/MSDK/wpa_supplicant/src/ap\ap_config.h **** 	u8 *radius_das_shared_secret;
 318:C:/Users/stapi/OneDrive/Desktop/GD32VW553/V1_MQTT_OK/GD32VW55X_Wifi_BLE_SDK/GD32VW55x_RELEASE_V1.0.2/MSDK/wpa_supplicant/src/ap\ap_config.h **** 	size_t radius_das_shared_secret_len;
 319:C:/Users/stapi/OneDrive/Desktop/GD32VW553/V1_MQTT_OK/GD32VW55X_Wifi_BLE_SDK/GD32VW55x_RELEASE_V1.0.2/MSDK/wpa_supplicant/src/ap\ap_config.h **** 
 320:C:/Users/stapi/OneDrive/Desktop/GD32VW553/V1_MQTT_OK/GD32VW55X_Wifi_BLE_SDK/GD32VW55x_RELEASE_V1.0.2/MSDK/wpa_supplicant/src/ap\ap_config.h **** 	struct hostapd_ssid ssid;
 321:C:/Users/stapi/OneDrive/Desktop/GD32VW553/V1_MQTT_OK/GD32VW55X_Wifi_BLE_SDK/GD32VW55x_RELEASE_V1.0.2/MSDK/wpa_supplicant/src/ap\ap_config.h **** 
 322:C:/Users/stapi/OneDrive/Desktop/GD32VW553/V1_MQTT_OK/GD32VW55X_Wifi_BLE_SDK/GD32VW55x_RELEASE_V1.0.2/MSDK/wpa_supplicant/src/ap\ap_config.h **** 	char *eap_req_id_text; /* optional displayable message sent with
 323:C:/Users/stapi/OneDrive/Desktop/GD32VW553/V1_MQTT_OK/GD32VW55X_Wifi_BLE_SDK/GD32VW55x_RELEASE_V1.0.2/MSDK/wpa_supplicant/src/ap\ap_config.h **** 				* EAP Request-Identity */
 324:C:/Users/stapi/OneDrive/Desktop/GD32VW553/V1_MQTT_OK/GD32VW55X_Wifi_BLE_SDK/GD32VW55x_RELEASE_V1.0.2/MSDK/wpa_supplicant/src/ap\ap_config.h **** 	size_t eap_req_id_text_len;
 325:C:/Users/stapi/OneDrive/Desktop/GD32VW553/V1_MQTT_OK/GD32VW55X_Wifi_BLE_SDK/GD32VW55x_RELEASE_V1.0.2/MSDK/wpa_supplicant/src/ap\ap_config.h **** 	int eapol_key_index_workaround;
 326:C:/Users/stapi/OneDrive/Desktop/GD32VW553/V1_MQTT_OK/GD32VW55X_Wifi_BLE_SDK/GD32VW55x_RELEASE_V1.0.2/MSDK/wpa_supplicant/src/ap\ap_config.h **** 
 327:C:/Users/stapi/OneDrive/Desktop/GD32VW553/V1_MQTT_OK/GD32VW55X_Wifi_BLE_SDK/GD32VW55x_RELEASE_V1.0.2/MSDK/wpa_supplicant/src/ap\ap_config.h **** #ifdef CONFIG_WEP
 328:C:/Users/stapi/OneDrive/Desktop/GD32VW553/V1_MQTT_OK/GD32VW55X_Wifi_BLE_SDK/GD32VW55x_RELEASE_V1.0.2/MSDK/wpa_supplicant/src/ap\ap_config.h **** 	size_t default_wep_key_len;
 329:C:/Users/stapi/OneDrive/Desktop/GD32VW553/V1_MQTT_OK/GD32VW55X_Wifi_BLE_SDK/GD32VW55x_RELEASE_V1.0.2/MSDK/wpa_supplicant/src/ap\ap_config.h **** 	int individual_wep_key_len;
 330:C:/Users/stapi/OneDrive/Desktop/GD32VW553/V1_MQTT_OK/GD32VW55X_Wifi_BLE_SDK/GD32VW55x_RELEASE_V1.0.2/MSDK/wpa_supplicant/src/ap\ap_config.h **** 	int wep_rekeying_period;
 331:C:/Users/stapi/OneDrive/Desktop/GD32VW553/V1_MQTT_OK/GD32VW55X_Wifi_BLE_SDK/GD32VW55x_RELEASE_V1.0.2/MSDK/wpa_supplicant/src/ap\ap_config.h **** 	int broadcast_key_idx_min, broadcast_key_idx_max;
 332:C:/Users/stapi/OneDrive/Desktop/GD32VW553/V1_MQTT_OK/GD32VW55X_Wifi_BLE_SDK/GD32VW55x_RELEASE_V1.0.2/MSDK/wpa_supplicant/src/ap\ap_config.h **** #endif /* CONFIG_WEP */
 333:C:/Users/stapi/OneDrive/Desktop/GD32VW553/V1_MQTT_OK/GD32VW55X_Wifi_BLE_SDK/GD32VW55x_RELEASE_V1.0.2/MSDK/wpa_supplicant/src/ap\ap_config.h **** 	int eap_reauth_period;
 334:C:/Users/stapi/OneDrive/Desktop/GD32VW553/V1_MQTT_OK/GD32VW55X_Wifi_BLE_SDK/GD32VW55x_RELEASE_V1.0.2/MSDK/wpa_supplicant/src/ap\ap_config.h **** 	int erp_send_reauth_start;
 335:C:/Users/stapi/OneDrive/Desktop/GD32VW553/V1_MQTT_OK/GD32VW55X_Wifi_BLE_SDK/GD32VW55x_RELEASE_V1.0.2/MSDK/wpa_supplicant/src/ap\ap_config.h **** 	char *erp_domain;
 336:C:/Users/stapi/OneDrive/Desktop/GD32VW553/V1_MQTT_OK/GD32VW55X_Wifi_BLE_SDK/GD32VW55x_RELEASE_V1.0.2/MSDK/wpa_supplicant/src/ap\ap_config.h **** 
 337:C:/Users/stapi/OneDrive/Desktop/GD32VW553/V1_MQTT_OK/GD32VW55X_Wifi_BLE_SDK/GD32VW55x_RELEASE_V1.0.2/MSDK/wpa_supplicant/src/ap\ap_config.h **** 	enum macaddr_acl {
 338:C:/Users/stapi/OneDrive/Desktop/GD32VW553/V1_MQTT_OK/GD32VW55X_Wifi_BLE_SDK/GD32VW55x_RELEASE_V1.0.2/MSDK/wpa_supplicant/src/ap\ap_config.h **** 		ACCEPT_UNLESS_DENIED = 0,
 339:C:/Users/stapi/OneDrive/Desktop/GD32VW553/V1_MQTT_OK/GD32VW55X_Wifi_BLE_SDK/GD32VW55x_RELEASE_V1.0.2/MSDK/wpa_supplicant/src/ap\ap_config.h **** 		DENY_UNLESS_ACCEPTED = 1,
 340:C:/Users/stapi/OneDrive/Desktop/GD32VW553/V1_MQTT_OK/GD32VW55X_Wifi_BLE_SDK/GD32VW55x_RELEASE_V1.0.2/MSDK/wpa_supplicant/src/ap\ap_config.h **** 		USE_EXTERNAL_RADIUS_AUTH = 2
 341:C:/Users/stapi/OneDrive/Desktop/GD32VW553/V1_MQTT_OK/GD32VW55X_Wifi_BLE_SDK/GD32VW55x_RELEASE_V1.0.2/MSDK/wpa_supplicant/src/ap\ap_config.h **** 	} macaddr_acl;
 342:C:/Users/stapi/OneDrive/Desktop/GD32VW553/V1_MQTT_OK/GD32VW55X_Wifi_BLE_SDK/GD32VW55x_RELEASE_V1.0.2/MSDK/wpa_supplicant/src/ap\ap_config.h **** 	struct mac_acl_entry *accept_mac;
 343:C:/Users/stapi/OneDrive/Desktop/GD32VW553/V1_MQTT_OK/GD32VW55X_Wifi_BLE_SDK/GD32VW55x_RELEASE_V1.0.2/MSDK/wpa_supplicant/src/ap\ap_config.h **** 	int num_accept_mac;
 344:C:/Users/stapi/OneDrive/Desktop/GD32VW553/V1_MQTT_OK/GD32VW55X_Wifi_BLE_SDK/GD32VW55x_RELEASE_V1.0.2/MSDK/wpa_supplicant/src/ap\ap_config.h **** 	struct mac_acl_entry *deny_mac;
 345:C:/Users/stapi/OneDrive/Desktop/GD32VW553/V1_MQTT_OK/GD32VW55X_Wifi_BLE_SDK/GD32VW55x_RELEASE_V1.0.2/MSDK/wpa_supplicant/src/ap\ap_config.h **** 	int num_deny_mac;
 346:C:/Users/stapi/OneDrive/Desktop/GD32VW553/V1_MQTT_OK/GD32VW55X_Wifi_BLE_SDK/GD32VW55x_RELEASE_V1.0.2/MSDK/wpa_supplicant/src/ap\ap_config.h **** 	int wds_sta;
 347:C:/Users/stapi/OneDrive/Desktop/GD32VW553/V1_MQTT_OK/GD32VW55X_Wifi_BLE_SDK/GD32VW55x_RELEASE_V1.0.2/MSDK/wpa_supplicant/src/ap\ap_config.h **** 	int isolate;
 348:C:/Users/stapi/OneDrive/Desktop/GD32VW553/V1_MQTT_OK/GD32VW55X_Wifi_BLE_SDK/GD32VW55x_RELEASE_V1.0.2/MSDK/wpa_supplicant/src/ap\ap_config.h **** 	int start_disabled;
 349:C:/Users/stapi/OneDrive/Desktop/GD32VW553/V1_MQTT_OK/GD32VW55X_Wifi_BLE_SDK/GD32VW55x_RELEASE_V1.0.2/MSDK/wpa_supplicant/src/ap\ap_config.h **** 
 350:C:/Users/stapi/OneDrive/Desktop/GD32VW553/V1_MQTT_OK/GD32VW55X_Wifi_BLE_SDK/GD32VW55x_RELEASE_V1.0.2/MSDK/wpa_supplicant/src/ap\ap_config.h **** 	int auth_algs; /* bitfield of allowed IEEE 802.11 authentication
 351:C:/Users/stapi/OneDrive/Desktop/GD32VW553/V1_MQTT_OK/GD32VW55X_Wifi_BLE_SDK/GD32VW55x_RELEASE_V1.0.2/MSDK/wpa_supplicant/src/ap\ap_config.h **** 			* algorithms, WPA_AUTH_ALG_{OPEN,SHARED,LEAP} */
 352:C:/Users/stapi/OneDrive/Desktop/GD32VW553/V1_MQTT_OK/GD32VW55X_Wifi_BLE_SDK/GD32VW55x_RELEASE_V1.0.2/MSDK/wpa_supplicant/src/ap\ap_config.h **** 
 353:C:/Users/stapi/OneDrive/Desktop/GD32VW553/V1_MQTT_OK/GD32VW55X_Wifi_BLE_SDK/GD32VW55x_RELEASE_V1.0.2/MSDK/wpa_supplicant/src/ap\ap_config.h **** 	int wpa; /* bitfield of WPA_PROTO_WPA, WPA_PROTO_RSN */
 354:C:/Users/stapi/OneDrive/Desktop/GD32VW553/V1_MQTT_OK/GD32VW55X_Wifi_BLE_SDK/GD32VW55x_RELEASE_V1.0.2/MSDK/wpa_supplicant/src/ap\ap_config.h **** 	int extended_key_id;
 355:C:/Users/stapi/OneDrive/Desktop/GD32VW553/V1_MQTT_OK/GD32VW55X_Wifi_BLE_SDK/GD32VW55x_RELEASE_V1.0.2/MSDK/wpa_supplicant/src/ap\ap_config.h **** 	int wpa_key_mgmt;
 356:C:/Users/stapi/OneDrive/Desktop/GD32VW553/V1_MQTT_OK/GD32VW55X_Wifi_BLE_SDK/GD32VW55x_RELEASE_V1.0.2/MSDK/wpa_supplicant/src/ap\ap_config.h **** 	enum mfp_options ieee80211w;
 357:C:/Users/stapi/OneDrive/Desktop/GD32VW553/V1_MQTT_OK/GD32VW55X_Wifi_BLE_SDK/GD32VW55x_RELEASE_V1.0.2/MSDK/wpa_supplicant/src/ap\ap_config.h **** 	int group_mgmt_cipher;
 358:C:/Users/stapi/OneDrive/Desktop/GD32VW553/V1_MQTT_OK/GD32VW55X_Wifi_BLE_SDK/GD32VW55x_RELEASE_V1.0.2/MSDK/wpa_supplicant/src/ap\ap_config.h **** 	int beacon_prot;
 359:C:/Users/stapi/OneDrive/Desktop/GD32VW553/V1_MQTT_OK/GD32VW55X_Wifi_BLE_SDK/GD32VW55x_RELEASE_V1.0.2/MSDK/wpa_supplicant/src/ap\ap_config.h **** 	/* dot11AssociationSAQueryMaximumTimeout (in TUs) */
 360:C:/Users/stapi/OneDrive/Desktop/GD32VW553/V1_MQTT_OK/GD32VW55X_Wifi_BLE_SDK/GD32VW55x_RELEASE_V1.0.2/MSDK/wpa_supplicant/src/ap\ap_config.h **** 	unsigned int assoc_sa_query_max_timeout;
 361:C:/Users/stapi/OneDrive/Desktop/GD32VW553/V1_MQTT_OK/GD32VW55X_Wifi_BLE_SDK/GD32VW55x_RELEASE_V1.0.2/MSDK/wpa_supplicant/src/ap\ap_config.h **** 	/* dot11AssociationSAQueryRetryTimeout (in TUs) */
 362:C:/Users/stapi/OneDrive/Desktop/GD32VW553/V1_MQTT_OK/GD32VW55X_Wifi_BLE_SDK/GD32VW55x_RELEASE_V1.0.2/MSDK/wpa_supplicant/src/ap\ap_config.h **** 	int assoc_sa_query_retry_timeout;
 363:C:/Users/stapi/OneDrive/Desktop/GD32VW553/V1_MQTT_OK/GD32VW55X_Wifi_BLE_SDK/GD32VW55x_RELEASE_V1.0.2/MSDK/wpa_supplicant/src/ap\ap_config.h **** #ifdef CONFIG_OCV
 364:C:/Users/stapi/OneDrive/Desktop/GD32VW553/V1_MQTT_OK/GD32VW55X_Wifi_BLE_SDK/GD32VW55x_RELEASE_V1.0.2/MSDK/wpa_supplicant/src/ap\ap_config.h **** 	int ocv; /* Operating Channel Validation */
 365:C:/Users/stapi/OneDrive/Desktop/GD32VW553/V1_MQTT_OK/GD32VW55X_Wifi_BLE_SDK/GD32VW55x_RELEASE_V1.0.2/MSDK/wpa_supplicant/src/ap\ap_config.h **** #endif /* CONFIG_OCV */
 366:C:/Users/stapi/OneDrive/Desktop/GD32VW553/V1_MQTT_OK/GD32VW55X_Wifi_BLE_SDK/GD32VW55x_RELEASE_V1.0.2/MSDK/wpa_supplicant/src/ap\ap_config.h **** 	enum {
 367:C:/Users/stapi/OneDrive/Desktop/GD32VW553/V1_MQTT_OK/GD32VW55X_Wifi_BLE_SDK/GD32VW55x_RELEASE_V1.0.2/MSDK/wpa_supplicant/src/ap\ap_config.h **** 		PSK_RADIUS_IGNORED = 0,
 368:C:/Users/stapi/OneDrive/Desktop/GD32VW553/V1_MQTT_OK/GD32VW55X_Wifi_BLE_SDK/GD32VW55x_RELEASE_V1.0.2/MSDK/wpa_supplicant/src/ap\ap_config.h **** 		PSK_RADIUS_ACCEPTED = 1,
 369:C:/Users/stapi/OneDrive/Desktop/GD32VW553/V1_MQTT_OK/GD32VW55X_Wifi_BLE_SDK/GD32VW55x_RELEASE_V1.0.2/MSDK/wpa_supplicant/src/ap\ap_config.h **** 		PSK_RADIUS_REQUIRED = 2
 370:C:/Users/stapi/OneDrive/Desktop/GD32VW553/V1_MQTT_OK/GD32VW55X_Wifi_BLE_SDK/GD32VW55x_RELEASE_V1.0.2/MSDK/wpa_supplicant/src/ap\ap_config.h **** 	} wpa_psk_radius;
 371:C:/Users/stapi/OneDrive/Desktop/GD32VW553/V1_MQTT_OK/GD32VW55X_Wifi_BLE_SDK/GD32VW55x_RELEASE_V1.0.2/MSDK/wpa_supplicant/src/ap\ap_config.h **** 	int wpa_pairwise;
 372:C:/Users/stapi/OneDrive/Desktop/GD32VW553/V1_MQTT_OK/GD32VW55X_Wifi_BLE_SDK/GD32VW55x_RELEASE_V1.0.2/MSDK/wpa_supplicant/src/ap\ap_config.h **** 	int group_cipher; /* wpa_group value override from configuation */
 373:C:/Users/stapi/OneDrive/Desktop/GD32VW553/V1_MQTT_OK/GD32VW55X_Wifi_BLE_SDK/GD32VW55x_RELEASE_V1.0.2/MSDK/wpa_supplicant/src/ap\ap_config.h **** 	int wpa_group;
 374:C:/Users/stapi/OneDrive/Desktop/GD32VW553/V1_MQTT_OK/GD32VW55X_Wifi_BLE_SDK/GD32VW55x_RELEASE_V1.0.2/MSDK/wpa_supplicant/src/ap\ap_config.h **** 	int wpa_group_rekey;
 375:C:/Users/stapi/OneDrive/Desktop/GD32VW553/V1_MQTT_OK/GD32VW55X_Wifi_BLE_SDK/GD32VW55x_RELEASE_V1.0.2/MSDK/wpa_supplicant/src/ap\ap_config.h **** 	int wpa_group_rekey_set;
 376:C:/Users/stapi/OneDrive/Desktop/GD32VW553/V1_MQTT_OK/GD32VW55X_Wifi_BLE_SDK/GD32VW55x_RELEASE_V1.0.2/MSDK/wpa_supplicant/src/ap\ap_config.h **** 	int wpa_strict_rekey;
 377:C:/Users/stapi/OneDrive/Desktop/GD32VW553/V1_MQTT_OK/GD32VW55X_Wifi_BLE_SDK/GD32VW55x_RELEASE_V1.0.2/MSDK/wpa_supplicant/src/ap\ap_config.h **** 	int wpa_gmk_rekey;
 378:C:/Users/stapi/OneDrive/Desktop/GD32VW553/V1_MQTT_OK/GD32VW55X_Wifi_BLE_SDK/GD32VW55x_RELEASE_V1.0.2/MSDK/wpa_supplicant/src/ap\ap_config.h **** 	int wpa_ptk_rekey;
 379:C:/Users/stapi/OneDrive/Desktop/GD32VW553/V1_MQTT_OK/GD32VW55X_Wifi_BLE_SDK/GD32VW55x_RELEASE_V1.0.2/MSDK/wpa_supplicant/src/ap\ap_config.h **** 	enum ptk0_rekey_handling wpa_deny_ptk0_rekey;
 380:C:/Users/stapi/OneDrive/Desktop/GD32VW553/V1_MQTT_OK/GD32VW55X_Wifi_BLE_SDK/GD32VW55x_RELEASE_V1.0.2/MSDK/wpa_supplicant/src/ap\ap_config.h **** 	u32 wpa_group_update_count;
 381:C:/Users/stapi/OneDrive/Desktop/GD32VW553/V1_MQTT_OK/GD32VW55X_Wifi_BLE_SDK/GD32VW55x_RELEASE_V1.0.2/MSDK/wpa_supplicant/src/ap\ap_config.h **** 	u32 wpa_pairwise_update_count;
 382:C:/Users/stapi/OneDrive/Desktop/GD32VW553/V1_MQTT_OK/GD32VW55X_Wifi_BLE_SDK/GD32VW55x_RELEASE_V1.0.2/MSDK/wpa_supplicant/src/ap\ap_config.h **** 	int wpa_disable_eapol_key_retries;
 383:C:/Users/stapi/OneDrive/Desktop/GD32VW553/V1_MQTT_OK/GD32VW55X_Wifi_BLE_SDK/GD32VW55x_RELEASE_V1.0.2/MSDK/wpa_supplicant/src/ap\ap_config.h **** 	int rsn_pairwise;
 384:C:/Users/stapi/OneDrive/Desktop/GD32VW553/V1_MQTT_OK/GD32VW55X_Wifi_BLE_SDK/GD32VW55x_RELEASE_V1.0.2/MSDK/wpa_supplicant/src/ap\ap_config.h **** 	int rsn_preauth;
 385:C:/Users/stapi/OneDrive/Desktop/GD32VW553/V1_MQTT_OK/GD32VW55X_Wifi_BLE_SDK/GD32VW55x_RELEASE_V1.0.2/MSDK/wpa_supplicant/src/ap\ap_config.h **** 	char *rsn_preauth_interfaces;
 386:C:/Users/stapi/OneDrive/Desktop/GD32VW553/V1_MQTT_OK/GD32VW55X_Wifi_BLE_SDK/GD32VW55x_RELEASE_V1.0.2/MSDK/wpa_supplicant/src/ap\ap_config.h **** 
 387:C:/Users/stapi/OneDrive/Desktop/GD32VW553/V1_MQTT_OK/GD32VW55X_Wifi_BLE_SDK/GD32VW55x_RELEASE_V1.0.2/MSDK/wpa_supplicant/src/ap\ap_config.h **** #ifdef CONFIG_IEEE80211R_AP
 388:C:/Users/stapi/OneDrive/Desktop/GD32VW553/V1_MQTT_OK/GD32VW55X_Wifi_BLE_SDK/GD32VW55x_RELEASE_V1.0.2/MSDK/wpa_supplicant/src/ap\ap_config.h **** 	/* IEEE 802.11r - Fast BSS Transition */
 389:C:/Users/stapi/OneDrive/Desktop/GD32VW553/V1_MQTT_OK/GD32VW55X_Wifi_BLE_SDK/GD32VW55x_RELEASE_V1.0.2/MSDK/wpa_supplicant/src/ap\ap_config.h **** 	u8 mobility_domain[MOBILITY_DOMAIN_ID_LEN];
 390:C:/Users/stapi/OneDrive/Desktop/GD32VW553/V1_MQTT_OK/GD32VW55X_Wifi_BLE_SDK/GD32VW55x_RELEASE_V1.0.2/MSDK/wpa_supplicant/src/ap\ap_config.h **** 	u8 r1_key_holder[FT_R1KH_ID_LEN];
 391:C:/Users/stapi/OneDrive/Desktop/GD32VW553/V1_MQTT_OK/GD32VW55X_Wifi_BLE_SDK/GD32VW55x_RELEASE_V1.0.2/MSDK/wpa_supplicant/src/ap\ap_config.h **** 	u32 r0_key_lifetime; /* PMK-R0 lifetime seconds */
 392:C:/Users/stapi/OneDrive/Desktop/GD32VW553/V1_MQTT_OK/GD32VW55X_Wifi_BLE_SDK/GD32VW55x_RELEASE_V1.0.2/MSDK/wpa_supplicant/src/ap\ap_config.h **** 	int rkh_pos_timeout;
 393:C:/Users/stapi/OneDrive/Desktop/GD32VW553/V1_MQTT_OK/GD32VW55X_Wifi_BLE_SDK/GD32VW55x_RELEASE_V1.0.2/MSDK/wpa_supplicant/src/ap\ap_config.h **** 	int rkh_neg_timeout;
 394:C:/Users/stapi/OneDrive/Desktop/GD32VW553/V1_MQTT_OK/GD32VW55X_Wifi_BLE_SDK/GD32VW55x_RELEASE_V1.0.2/MSDK/wpa_supplicant/src/ap\ap_config.h **** 	int rkh_pull_timeout; /* ms */
 395:C:/Users/stapi/OneDrive/Desktop/GD32VW553/V1_MQTT_OK/GD32VW55X_Wifi_BLE_SDK/GD32VW55x_RELEASE_V1.0.2/MSDK/wpa_supplicant/src/ap\ap_config.h **** 	int rkh_pull_retries;
 396:C:/Users/stapi/OneDrive/Desktop/GD32VW553/V1_MQTT_OK/GD32VW55X_Wifi_BLE_SDK/GD32VW55x_RELEASE_V1.0.2/MSDK/wpa_supplicant/src/ap\ap_config.h **** 	u32 reassociation_deadline;
 397:C:/Users/stapi/OneDrive/Desktop/GD32VW553/V1_MQTT_OK/GD32VW55X_Wifi_BLE_SDK/GD32VW55x_RELEASE_V1.0.2/MSDK/wpa_supplicant/src/ap\ap_config.h **** 	struct ft_remote_r0kh *r0kh_list;
 398:C:/Users/stapi/OneDrive/Desktop/GD32VW553/V1_MQTT_OK/GD32VW55X_Wifi_BLE_SDK/GD32VW55x_RELEASE_V1.0.2/MSDK/wpa_supplicant/src/ap\ap_config.h **** 	struct ft_remote_r1kh *r1kh_list;
 399:C:/Users/stapi/OneDrive/Desktop/GD32VW553/V1_MQTT_OK/GD32VW55X_Wifi_BLE_SDK/GD32VW55x_RELEASE_V1.0.2/MSDK/wpa_supplicant/src/ap\ap_config.h **** 	int pmk_r1_push;
 400:C:/Users/stapi/OneDrive/Desktop/GD32VW553/V1_MQTT_OK/GD32VW55X_Wifi_BLE_SDK/GD32VW55x_RELEASE_V1.0.2/MSDK/wpa_supplicant/src/ap\ap_config.h **** 	int ft_over_ds;
 401:C:/Users/stapi/OneDrive/Desktop/GD32VW553/V1_MQTT_OK/GD32VW55X_Wifi_BLE_SDK/GD32VW55x_RELEASE_V1.0.2/MSDK/wpa_supplicant/src/ap\ap_config.h **** 	int ft_psk_generate_local;
 402:C:/Users/stapi/OneDrive/Desktop/GD32VW553/V1_MQTT_OK/GD32VW55X_Wifi_BLE_SDK/GD32VW55x_RELEASE_V1.0.2/MSDK/wpa_supplicant/src/ap\ap_config.h **** 	int r1_max_key_lifetime;
 403:C:/Users/stapi/OneDrive/Desktop/GD32VW553/V1_MQTT_OK/GD32VW55X_Wifi_BLE_SDK/GD32VW55x_RELEASE_V1.0.2/MSDK/wpa_supplicant/src/ap\ap_config.h **** #endif /* CONFIG_IEEE80211R_AP */
 404:C:/Users/stapi/OneDrive/Desktop/GD32VW553/V1_MQTT_OK/GD32VW55X_Wifi_BLE_SDK/GD32VW55x_RELEASE_V1.0.2/MSDK/wpa_supplicant/src/ap\ap_config.h **** 
 405:C:/Users/stapi/OneDrive/Desktop/GD32VW553/V1_MQTT_OK/GD32VW55X_Wifi_BLE_SDK/GD32VW55x_RELEASE_V1.0.2/MSDK/wpa_supplicant/src/ap\ap_config.h **** 	char *ctrl_interface; /* directory for UNIX domain sockets */
 406:C:/Users/stapi/OneDrive/Desktop/GD32VW553/V1_MQTT_OK/GD32VW55X_Wifi_BLE_SDK/GD32VW55x_RELEASE_V1.0.2/MSDK/wpa_supplicant/src/ap\ap_config.h **** #ifndef CONFIG_NATIVE_WINDOWS
 407:C:/Users/stapi/OneDrive/Desktop/GD32VW553/V1_MQTT_OK/GD32VW55X_Wifi_BLE_SDK/GD32VW55x_RELEASE_V1.0.2/MSDK/wpa_supplicant/src/ap\ap_config.h **** 	wpa_gid_t ctrl_interface_gid;
 408:C:/Users/stapi/OneDrive/Desktop/GD32VW553/V1_MQTT_OK/GD32VW55X_Wifi_BLE_SDK/GD32VW55x_RELEASE_V1.0.2/MSDK/wpa_supplicant/src/ap\ap_config.h **** #endif /* CONFIG_NATIVE_WINDOWS */
 409:C:/Users/stapi/OneDrive/Desktop/GD32VW553/V1_MQTT_OK/GD32VW55X_Wifi_BLE_SDK/GD32VW55x_RELEASE_V1.0.2/MSDK/wpa_supplicant/src/ap\ap_config.h **** 	int ctrl_interface_gid_set;
 410:C:/Users/stapi/OneDrive/Desktop/GD32VW553/V1_MQTT_OK/GD32VW55X_Wifi_BLE_SDK/GD32VW55x_RELEASE_V1.0.2/MSDK/wpa_supplicant/src/ap\ap_config.h **** 
 411:C:/Users/stapi/OneDrive/Desktop/GD32VW553/V1_MQTT_OK/GD32VW55X_Wifi_BLE_SDK/GD32VW55x_RELEASE_V1.0.2/MSDK/wpa_supplicant/src/ap\ap_config.h **** 	char *ca_cert;
 412:C:/Users/stapi/OneDrive/Desktop/GD32VW553/V1_MQTT_OK/GD32VW55X_Wifi_BLE_SDK/GD32VW55x_RELEASE_V1.0.2/MSDK/wpa_supplicant/src/ap\ap_config.h **** 	char *server_cert;
 413:C:/Users/stapi/OneDrive/Desktop/GD32VW553/V1_MQTT_OK/GD32VW55X_Wifi_BLE_SDK/GD32VW55x_RELEASE_V1.0.2/MSDK/wpa_supplicant/src/ap\ap_config.h **** 	char *server_cert2;
 414:C:/Users/stapi/OneDrive/Desktop/GD32VW553/V1_MQTT_OK/GD32VW55X_Wifi_BLE_SDK/GD32VW55x_RELEASE_V1.0.2/MSDK/wpa_supplicant/src/ap\ap_config.h **** 	char *private_key;
 415:C:/Users/stapi/OneDrive/Desktop/GD32VW553/V1_MQTT_OK/GD32VW55X_Wifi_BLE_SDK/GD32VW55x_RELEASE_V1.0.2/MSDK/wpa_supplicant/src/ap\ap_config.h **** 	char *private_key2;
 416:C:/Users/stapi/OneDrive/Desktop/GD32VW553/V1_MQTT_OK/GD32VW55X_Wifi_BLE_SDK/GD32VW55x_RELEASE_V1.0.2/MSDK/wpa_supplicant/src/ap\ap_config.h **** 	char *private_key_passwd;
 417:C:/Users/stapi/OneDrive/Desktop/GD32VW553/V1_MQTT_OK/GD32VW55X_Wifi_BLE_SDK/GD32VW55x_RELEASE_V1.0.2/MSDK/wpa_supplicant/src/ap\ap_config.h **** 	char *private_key_passwd2;
 418:C:/Users/stapi/OneDrive/Desktop/GD32VW553/V1_MQTT_OK/GD32VW55X_Wifi_BLE_SDK/GD32VW55x_RELEASE_V1.0.2/MSDK/wpa_supplicant/src/ap\ap_config.h **** 	char *check_cert_subject;
 419:C:/Users/stapi/OneDrive/Desktop/GD32VW553/V1_MQTT_OK/GD32VW55X_Wifi_BLE_SDK/GD32VW55x_RELEASE_V1.0.2/MSDK/wpa_supplicant/src/ap\ap_config.h **** 	int check_crl;
 420:C:/Users/stapi/OneDrive/Desktop/GD32VW553/V1_MQTT_OK/GD32VW55X_Wifi_BLE_SDK/GD32VW55x_RELEASE_V1.0.2/MSDK/wpa_supplicant/src/ap\ap_config.h **** 	int check_crl_strict;
 421:C:/Users/stapi/OneDrive/Desktop/GD32VW553/V1_MQTT_OK/GD32VW55X_Wifi_BLE_SDK/GD32VW55x_RELEASE_V1.0.2/MSDK/wpa_supplicant/src/ap\ap_config.h **** 	unsigned int crl_reload_interval;
 422:C:/Users/stapi/OneDrive/Desktop/GD32VW553/V1_MQTT_OK/GD32VW55X_Wifi_BLE_SDK/GD32VW55x_RELEASE_V1.0.2/MSDK/wpa_supplicant/src/ap\ap_config.h **** 	unsigned int tls_session_lifetime;
 423:C:/Users/stapi/OneDrive/Desktop/GD32VW553/V1_MQTT_OK/GD32VW55X_Wifi_BLE_SDK/GD32VW55x_RELEASE_V1.0.2/MSDK/wpa_supplicant/src/ap\ap_config.h **** 	unsigned int tls_flags;
 424:C:/Users/stapi/OneDrive/Desktop/GD32VW553/V1_MQTT_OK/GD32VW55X_Wifi_BLE_SDK/GD32VW55x_RELEASE_V1.0.2/MSDK/wpa_supplicant/src/ap\ap_config.h **** 	unsigned int max_auth_rounds;
 425:C:/Users/stapi/OneDrive/Desktop/GD32VW553/V1_MQTT_OK/GD32VW55X_Wifi_BLE_SDK/GD32VW55x_RELEASE_V1.0.2/MSDK/wpa_supplicant/src/ap\ap_config.h **** 	unsigned int max_auth_rounds_short;
 426:C:/Users/stapi/OneDrive/Desktop/GD32VW553/V1_MQTT_OK/GD32VW55X_Wifi_BLE_SDK/GD32VW55x_RELEASE_V1.0.2/MSDK/wpa_supplicant/src/ap\ap_config.h **** 	char *ocsp_stapling_response;
 427:C:/Users/stapi/OneDrive/Desktop/GD32VW553/V1_MQTT_OK/GD32VW55X_Wifi_BLE_SDK/GD32VW55x_RELEASE_V1.0.2/MSDK/wpa_supplicant/src/ap\ap_config.h **** 	char *ocsp_stapling_response_multi;
 428:C:/Users/stapi/OneDrive/Desktop/GD32VW553/V1_MQTT_OK/GD32VW55X_Wifi_BLE_SDK/GD32VW55x_RELEASE_V1.0.2/MSDK/wpa_supplicant/src/ap\ap_config.h **** 	char *dh_file;
 429:C:/Users/stapi/OneDrive/Desktop/GD32VW553/V1_MQTT_OK/GD32VW55X_Wifi_BLE_SDK/GD32VW55x_RELEASE_V1.0.2/MSDK/wpa_supplicant/src/ap\ap_config.h **** 	char *openssl_ciphers;
 430:C:/Users/stapi/OneDrive/Desktop/GD32VW553/V1_MQTT_OK/GD32VW55X_Wifi_BLE_SDK/GD32VW55x_RELEASE_V1.0.2/MSDK/wpa_supplicant/src/ap\ap_config.h **** 	char *openssl_ecdh_curves;
 431:C:/Users/stapi/OneDrive/Desktop/GD32VW553/V1_MQTT_OK/GD32VW55X_Wifi_BLE_SDK/GD32VW55x_RELEASE_V1.0.2/MSDK/wpa_supplicant/src/ap\ap_config.h **** 	u8 *pac_opaque_encr_key;
 432:C:/Users/stapi/OneDrive/Desktop/GD32VW553/V1_MQTT_OK/GD32VW55X_Wifi_BLE_SDK/GD32VW55x_RELEASE_V1.0.2/MSDK/wpa_supplicant/src/ap\ap_config.h **** 	u8 *eap_fast_a_id;
 433:C:/Users/stapi/OneDrive/Desktop/GD32VW553/V1_MQTT_OK/GD32VW55X_Wifi_BLE_SDK/GD32VW55x_RELEASE_V1.0.2/MSDK/wpa_supplicant/src/ap\ap_config.h **** 	size_t eap_fast_a_id_len;
 434:C:/Users/stapi/OneDrive/Desktop/GD32VW553/V1_MQTT_OK/GD32VW55X_Wifi_BLE_SDK/GD32VW55x_RELEASE_V1.0.2/MSDK/wpa_supplicant/src/ap\ap_config.h **** 	char *eap_fast_a_id_info;
 435:C:/Users/stapi/OneDrive/Desktop/GD32VW553/V1_MQTT_OK/GD32VW55X_Wifi_BLE_SDK/GD32VW55x_RELEASE_V1.0.2/MSDK/wpa_supplicant/src/ap\ap_config.h **** 	int eap_fast_prov;
 436:C:/Users/stapi/OneDrive/Desktop/GD32VW553/V1_MQTT_OK/GD32VW55X_Wifi_BLE_SDK/GD32VW55x_RELEASE_V1.0.2/MSDK/wpa_supplicant/src/ap\ap_config.h **** 	int pac_key_lifetime;
 437:C:/Users/stapi/OneDrive/Desktop/GD32VW553/V1_MQTT_OK/GD32VW55X_Wifi_BLE_SDK/GD32VW55x_RELEASE_V1.0.2/MSDK/wpa_supplicant/src/ap\ap_config.h **** 	int pac_key_refresh_time;
 438:C:/Users/stapi/OneDrive/Desktop/GD32VW553/V1_MQTT_OK/GD32VW55X_Wifi_BLE_SDK/GD32VW55x_RELEASE_V1.0.2/MSDK/wpa_supplicant/src/ap\ap_config.h **** 	int eap_teap_auth;
 439:C:/Users/stapi/OneDrive/Desktop/GD32VW553/V1_MQTT_OK/GD32VW55X_Wifi_BLE_SDK/GD32VW55x_RELEASE_V1.0.2/MSDK/wpa_supplicant/src/ap\ap_config.h **** 	int eap_teap_pac_no_inner;
 440:C:/Users/stapi/OneDrive/Desktop/GD32VW553/V1_MQTT_OK/GD32VW55X_Wifi_BLE_SDK/GD32VW55x_RELEASE_V1.0.2/MSDK/wpa_supplicant/src/ap\ap_config.h **** 	int eap_teap_separate_result;
 441:C:/Users/stapi/OneDrive/Desktop/GD32VW553/V1_MQTT_OK/GD32VW55X_Wifi_BLE_SDK/GD32VW55x_RELEASE_V1.0.2/MSDK/wpa_supplicant/src/ap\ap_config.h **** 	int eap_teap_id;
 442:C:/Users/stapi/OneDrive/Desktop/GD32VW553/V1_MQTT_OK/GD32VW55X_Wifi_BLE_SDK/GD32VW55x_RELEASE_V1.0.2/MSDK/wpa_supplicant/src/ap\ap_config.h **** 	int eap_sim_aka_result_ind;
 443:C:/Users/stapi/OneDrive/Desktop/GD32VW553/V1_MQTT_OK/GD32VW55X_Wifi_BLE_SDK/GD32VW55x_RELEASE_V1.0.2/MSDK/wpa_supplicant/src/ap\ap_config.h **** 	int eap_sim_id;
 444:C:/Users/stapi/OneDrive/Desktop/GD32VW553/V1_MQTT_OK/GD32VW55X_Wifi_BLE_SDK/GD32VW55x_RELEASE_V1.0.2/MSDK/wpa_supplicant/src/ap\ap_config.h **** 	int tnc;
 445:C:/Users/stapi/OneDrive/Desktop/GD32VW553/V1_MQTT_OK/GD32VW55X_Wifi_BLE_SDK/GD32VW55x_RELEASE_V1.0.2/MSDK/wpa_supplicant/src/ap\ap_config.h **** 	int fragment_size;
 446:C:/Users/stapi/OneDrive/Desktop/GD32VW553/V1_MQTT_OK/GD32VW55X_Wifi_BLE_SDK/GD32VW55x_RELEASE_V1.0.2/MSDK/wpa_supplicant/src/ap\ap_config.h **** 	u16 pwd_group;
 447:C:/Users/stapi/OneDrive/Desktop/GD32VW553/V1_MQTT_OK/GD32VW55X_Wifi_BLE_SDK/GD32VW55x_RELEASE_V1.0.2/MSDK/wpa_supplicant/src/ap\ap_config.h **** 
 448:C:/Users/stapi/OneDrive/Desktop/GD32VW553/V1_MQTT_OK/GD32VW55X_Wifi_BLE_SDK/GD32VW55x_RELEASE_V1.0.2/MSDK/wpa_supplicant/src/ap\ap_config.h **** 	char *radius_server_clients;
 449:C:/Users/stapi/OneDrive/Desktop/GD32VW553/V1_MQTT_OK/GD32VW55X_Wifi_BLE_SDK/GD32VW55x_RELEASE_V1.0.2/MSDK/wpa_supplicant/src/ap\ap_config.h **** 	int radius_server_auth_port;
 450:C:/Users/stapi/OneDrive/Desktop/GD32VW553/V1_MQTT_OK/GD32VW55X_Wifi_BLE_SDK/GD32VW55x_RELEASE_V1.0.2/MSDK/wpa_supplicant/src/ap\ap_config.h **** 	int radius_server_acct_port;
 451:C:/Users/stapi/OneDrive/Desktop/GD32VW553/V1_MQTT_OK/GD32VW55X_Wifi_BLE_SDK/GD32VW55x_RELEASE_V1.0.2/MSDK/wpa_supplicant/src/ap\ap_config.h **** 	int radius_server_ipv6;
 452:C:/Users/stapi/OneDrive/Desktop/GD32VW553/V1_MQTT_OK/GD32VW55X_Wifi_BLE_SDK/GD32VW55x_RELEASE_V1.0.2/MSDK/wpa_supplicant/src/ap\ap_config.h **** 
 453:C:/Users/stapi/OneDrive/Desktop/GD32VW553/V1_MQTT_OK/GD32VW55X_Wifi_BLE_SDK/GD32VW55x_RELEASE_V1.0.2/MSDK/wpa_supplicant/src/ap\ap_config.h **** 	int use_pae_group_addr; /* Whether to send EAPOL frames to PAE group
 454:C:/Users/stapi/OneDrive/Desktop/GD32VW553/V1_MQTT_OK/GD32VW55X_Wifi_BLE_SDK/GD32VW55x_RELEASE_V1.0.2/MSDK/wpa_supplicant/src/ap\ap_config.h **** 				 * address instead of individual address
 455:C:/Users/stapi/OneDrive/Desktop/GD32VW553/V1_MQTT_OK/GD32VW55X_Wifi_BLE_SDK/GD32VW55x_RELEASE_V1.0.2/MSDK/wpa_supplicant/src/ap\ap_config.h **** 				 * (for driver_wired.c).
 456:C:/Users/stapi/OneDrive/Desktop/GD32VW553/V1_MQTT_OK/GD32VW55X_Wifi_BLE_SDK/GD32VW55x_RELEASE_V1.0.2/MSDK/wpa_supplicant/src/ap\ap_config.h **** 				 */
 457:C:/Users/stapi/OneDrive/Desktop/GD32VW553/V1_MQTT_OK/GD32VW55X_Wifi_BLE_SDK/GD32VW55x_RELEASE_V1.0.2/MSDK/wpa_supplicant/src/ap\ap_config.h **** 
 458:C:/Users/stapi/OneDrive/Desktop/GD32VW553/V1_MQTT_OK/GD32VW55X_Wifi_BLE_SDK/GD32VW55x_RELEASE_V1.0.2/MSDK/wpa_supplicant/src/ap\ap_config.h **** 	int ap_max_inactivity;
 459:C:/Users/stapi/OneDrive/Desktop/GD32VW553/V1_MQTT_OK/GD32VW55X_Wifi_BLE_SDK/GD32VW55x_RELEASE_V1.0.2/MSDK/wpa_supplicant/src/ap\ap_config.h **** 	int ignore_broadcast_ssid;
 460:C:/Users/stapi/OneDrive/Desktop/GD32VW553/V1_MQTT_OK/GD32VW55X_Wifi_BLE_SDK/GD32VW55x_RELEASE_V1.0.2/MSDK/wpa_supplicant/src/ap\ap_config.h **** 	int no_probe_resp_if_max_sta;
 461:C:/Users/stapi/OneDrive/Desktop/GD32VW553/V1_MQTT_OK/GD32VW55X_Wifi_BLE_SDK/GD32VW55x_RELEASE_V1.0.2/MSDK/wpa_supplicant/src/ap\ap_config.h **** 
 462:C:/Users/stapi/OneDrive/Desktop/GD32VW553/V1_MQTT_OK/GD32VW55X_Wifi_BLE_SDK/GD32VW55x_RELEASE_V1.0.2/MSDK/wpa_supplicant/src/ap\ap_config.h **** 	int wmm_enabled;
 463:C:/Users/stapi/OneDrive/Desktop/GD32VW553/V1_MQTT_OK/GD32VW55X_Wifi_BLE_SDK/GD32VW55x_RELEASE_V1.0.2/MSDK/wpa_supplicant/src/ap\ap_config.h **** 	int wmm_uapsd;
 464:C:/Users/stapi/OneDrive/Desktop/GD32VW553/V1_MQTT_OK/GD32VW55X_Wifi_BLE_SDK/GD32VW55x_RELEASE_V1.0.2/MSDK/wpa_supplicant/src/ap\ap_config.h **** 
 465:C:/Users/stapi/OneDrive/Desktop/GD32VW553/V1_MQTT_OK/GD32VW55X_Wifi_BLE_SDK/GD32VW55x_RELEASE_V1.0.2/MSDK/wpa_supplicant/src/ap\ap_config.h **** 	struct hostapd_vlan *vlan;
 466:C:/Users/stapi/OneDrive/Desktop/GD32VW553/V1_MQTT_OK/GD32VW55X_Wifi_BLE_SDK/GD32VW55x_RELEASE_V1.0.2/MSDK/wpa_supplicant/src/ap\ap_config.h **** 
 467:C:/Users/stapi/OneDrive/Desktop/GD32VW553/V1_MQTT_OK/GD32VW55X_Wifi_BLE_SDK/GD32VW55x_RELEASE_V1.0.2/MSDK/wpa_supplicant/src/ap\ap_config.h **** 	macaddr bssid;
 468:C:/Users/stapi/OneDrive/Desktop/GD32VW553/V1_MQTT_OK/GD32VW55X_Wifi_BLE_SDK/GD32VW55x_RELEASE_V1.0.2/MSDK/wpa_supplicant/src/ap\ap_config.h **** 
 469:C:/Users/stapi/OneDrive/Desktop/GD32VW553/V1_MQTT_OK/GD32VW55X_Wifi_BLE_SDK/GD32VW55x_RELEASE_V1.0.2/MSDK/wpa_supplicant/src/ap\ap_config.h **** 	/*
 470:C:/Users/stapi/OneDrive/Desktop/GD32VW553/V1_MQTT_OK/GD32VW55X_Wifi_BLE_SDK/GD32VW55x_RELEASE_V1.0.2/MSDK/wpa_supplicant/src/ap\ap_config.h **** 	 * Maximum listen interval that STAs can use when associating with this
 471:C:/Users/stapi/OneDrive/Desktop/GD32VW553/V1_MQTT_OK/GD32VW55X_Wifi_BLE_SDK/GD32VW55x_RELEASE_V1.0.2/MSDK/wpa_supplicant/src/ap\ap_config.h **** 	 * BSS. If a STA tries to use larger value, the association will be
 472:C:/Users/stapi/OneDrive/Desktop/GD32VW553/V1_MQTT_OK/GD32VW55X_Wifi_BLE_SDK/GD32VW55x_RELEASE_V1.0.2/MSDK/wpa_supplicant/src/ap\ap_config.h **** 	 * denied with status code 51.
 473:C:/Users/stapi/OneDrive/Desktop/GD32VW553/V1_MQTT_OK/GD32VW55X_Wifi_BLE_SDK/GD32VW55x_RELEASE_V1.0.2/MSDK/wpa_supplicant/src/ap\ap_config.h **** 	 */
 474:C:/Users/stapi/OneDrive/Desktop/GD32VW553/V1_MQTT_OK/GD32VW55X_Wifi_BLE_SDK/GD32VW55x_RELEASE_V1.0.2/MSDK/wpa_supplicant/src/ap\ap_config.h **** 	u16 max_listen_interval;
 475:C:/Users/stapi/OneDrive/Desktop/GD32VW553/V1_MQTT_OK/GD32VW55X_Wifi_BLE_SDK/GD32VW55x_RELEASE_V1.0.2/MSDK/wpa_supplicant/src/ap\ap_config.h **** 
 476:C:/Users/stapi/OneDrive/Desktop/GD32VW553/V1_MQTT_OK/GD32VW55X_Wifi_BLE_SDK/GD32VW55x_RELEASE_V1.0.2/MSDK/wpa_supplicant/src/ap\ap_config.h **** 	int disable_pmksa_caching;
 477:C:/Users/stapi/OneDrive/Desktop/GD32VW553/V1_MQTT_OK/GD32VW55X_Wifi_BLE_SDK/GD32VW55x_RELEASE_V1.0.2/MSDK/wpa_supplicant/src/ap\ap_config.h **** 	int okc; /* Opportunistic Key Caching */
 478:C:/Users/stapi/OneDrive/Desktop/GD32VW553/V1_MQTT_OK/GD32VW55X_Wifi_BLE_SDK/GD32VW55x_RELEASE_V1.0.2/MSDK/wpa_supplicant/src/ap\ap_config.h **** 
 479:C:/Users/stapi/OneDrive/Desktop/GD32VW553/V1_MQTT_OK/GD32VW55X_Wifi_BLE_SDK/GD32VW55x_RELEASE_V1.0.2/MSDK/wpa_supplicant/src/ap\ap_config.h **** 	int wps_state;
 480:C:/Users/stapi/OneDrive/Desktop/GD32VW553/V1_MQTT_OK/GD32VW55X_Wifi_BLE_SDK/GD32VW55x_RELEASE_V1.0.2/MSDK/wpa_supplicant/src/ap\ap_config.h **** #ifdef CONFIG_WPS
 481:C:/Users/stapi/OneDrive/Desktop/GD32VW553/V1_MQTT_OK/GD32VW55X_Wifi_BLE_SDK/GD32VW55x_RELEASE_V1.0.2/MSDK/wpa_supplicant/src/ap\ap_config.h **** 	int wps_independent;
 482:C:/Users/stapi/OneDrive/Desktop/GD32VW553/V1_MQTT_OK/GD32VW55X_Wifi_BLE_SDK/GD32VW55x_RELEASE_V1.0.2/MSDK/wpa_supplicant/src/ap\ap_config.h **** 	int ap_setup_locked;
 483:C:/Users/stapi/OneDrive/Desktop/GD32VW553/V1_MQTT_OK/GD32VW55X_Wifi_BLE_SDK/GD32VW55x_RELEASE_V1.0.2/MSDK/wpa_supplicant/src/ap\ap_config.h **** 	u8 uuid[16];
 484:C:/Users/stapi/OneDrive/Desktop/GD32VW553/V1_MQTT_OK/GD32VW55X_Wifi_BLE_SDK/GD32VW55x_RELEASE_V1.0.2/MSDK/wpa_supplicant/src/ap\ap_config.h **** 	char *wps_pin_requests;
 485:C:/Users/stapi/OneDrive/Desktop/GD32VW553/V1_MQTT_OK/GD32VW55X_Wifi_BLE_SDK/GD32VW55x_RELEASE_V1.0.2/MSDK/wpa_supplicant/src/ap\ap_config.h **** 	char *device_name;
 486:C:/Users/stapi/OneDrive/Desktop/GD32VW553/V1_MQTT_OK/GD32VW55X_Wifi_BLE_SDK/GD32VW55x_RELEASE_V1.0.2/MSDK/wpa_supplicant/src/ap\ap_config.h **** 	char *manufacturer;
 487:C:/Users/stapi/OneDrive/Desktop/GD32VW553/V1_MQTT_OK/GD32VW55X_Wifi_BLE_SDK/GD32VW55x_RELEASE_V1.0.2/MSDK/wpa_supplicant/src/ap\ap_config.h **** 	char *model_name;
 488:C:/Users/stapi/OneDrive/Desktop/GD32VW553/V1_MQTT_OK/GD32VW55X_Wifi_BLE_SDK/GD32VW55x_RELEASE_V1.0.2/MSDK/wpa_supplicant/src/ap\ap_config.h **** 	char *model_number;
 489:C:/Users/stapi/OneDrive/Desktop/GD32VW553/V1_MQTT_OK/GD32VW55X_Wifi_BLE_SDK/GD32VW55x_RELEASE_V1.0.2/MSDK/wpa_supplicant/src/ap\ap_config.h **** 	char *serial_number;
 490:C:/Users/stapi/OneDrive/Desktop/GD32VW553/V1_MQTT_OK/GD32VW55X_Wifi_BLE_SDK/GD32VW55x_RELEASE_V1.0.2/MSDK/wpa_supplicant/src/ap\ap_config.h **** 	u8 device_type[WPS_DEV_TYPE_LEN];
 491:C:/Users/stapi/OneDrive/Desktop/GD32VW553/V1_MQTT_OK/GD32VW55X_Wifi_BLE_SDK/GD32VW55x_RELEASE_V1.0.2/MSDK/wpa_supplicant/src/ap\ap_config.h **** 	char *config_methods;
 492:C:/Users/stapi/OneDrive/Desktop/GD32VW553/V1_MQTT_OK/GD32VW55X_Wifi_BLE_SDK/GD32VW55x_RELEASE_V1.0.2/MSDK/wpa_supplicant/src/ap\ap_config.h **** 	u8 os_version[4];
 493:C:/Users/stapi/OneDrive/Desktop/GD32VW553/V1_MQTT_OK/GD32VW55X_Wifi_BLE_SDK/GD32VW55x_RELEASE_V1.0.2/MSDK/wpa_supplicant/src/ap\ap_config.h **** 	char *ap_pin;
 494:C:/Users/stapi/OneDrive/Desktop/GD32VW553/V1_MQTT_OK/GD32VW55X_Wifi_BLE_SDK/GD32VW55x_RELEASE_V1.0.2/MSDK/wpa_supplicant/src/ap\ap_config.h **** 	int skip_cred_build;
 495:C:/Users/stapi/OneDrive/Desktop/GD32VW553/V1_MQTT_OK/GD32VW55X_Wifi_BLE_SDK/GD32VW55x_RELEASE_V1.0.2/MSDK/wpa_supplicant/src/ap\ap_config.h **** 	u8 *extra_cred;
 496:C:/Users/stapi/OneDrive/Desktop/GD32VW553/V1_MQTT_OK/GD32VW55X_Wifi_BLE_SDK/GD32VW55x_RELEASE_V1.0.2/MSDK/wpa_supplicant/src/ap\ap_config.h **** 	size_t extra_cred_len;
 497:C:/Users/stapi/OneDrive/Desktop/GD32VW553/V1_MQTT_OK/GD32VW55X_Wifi_BLE_SDK/GD32VW55x_RELEASE_V1.0.2/MSDK/wpa_supplicant/src/ap\ap_config.h **** 	int wps_cred_processing;
 498:C:/Users/stapi/OneDrive/Desktop/GD32VW553/V1_MQTT_OK/GD32VW55X_Wifi_BLE_SDK/GD32VW55x_RELEASE_V1.0.2/MSDK/wpa_supplicant/src/ap\ap_config.h **** 	int wps_cred_add_sae;
 499:C:/Users/stapi/OneDrive/Desktop/GD32VW553/V1_MQTT_OK/GD32VW55X_Wifi_BLE_SDK/GD32VW55x_RELEASE_V1.0.2/MSDK/wpa_supplicant/src/ap\ap_config.h **** 	int force_per_enrollee_psk;
 500:C:/Users/stapi/OneDrive/Desktop/GD32VW553/V1_MQTT_OK/GD32VW55X_Wifi_BLE_SDK/GD32VW55x_RELEASE_V1.0.2/MSDK/wpa_supplicant/src/ap\ap_config.h **** 	u8 *ap_settings;
 501:C:/Users/stapi/OneDrive/Desktop/GD32VW553/V1_MQTT_OK/GD32VW55X_Wifi_BLE_SDK/GD32VW55x_RELEASE_V1.0.2/MSDK/wpa_supplicant/src/ap\ap_config.h **** 	size_t ap_settings_len;
 502:C:/Users/stapi/OneDrive/Desktop/GD32VW553/V1_MQTT_OK/GD32VW55X_Wifi_BLE_SDK/GD32VW55x_RELEASE_V1.0.2/MSDK/wpa_supplicant/src/ap\ap_config.h **** 	struct hostapd_ssid multi_ap_backhaul_ssid;
 503:C:/Users/stapi/OneDrive/Desktop/GD32VW553/V1_MQTT_OK/GD32VW55X_Wifi_BLE_SDK/GD32VW55x_RELEASE_V1.0.2/MSDK/wpa_supplicant/src/ap\ap_config.h **** 	char *upnp_iface;
 504:C:/Users/stapi/OneDrive/Desktop/GD32VW553/V1_MQTT_OK/GD32VW55X_Wifi_BLE_SDK/GD32VW55x_RELEASE_V1.0.2/MSDK/wpa_supplicant/src/ap\ap_config.h **** 	char *friendly_name;
 505:C:/Users/stapi/OneDrive/Desktop/GD32VW553/V1_MQTT_OK/GD32VW55X_Wifi_BLE_SDK/GD32VW55x_RELEASE_V1.0.2/MSDK/wpa_supplicant/src/ap\ap_config.h **** 	char *manufacturer_url;
 506:C:/Users/stapi/OneDrive/Desktop/GD32VW553/V1_MQTT_OK/GD32VW55X_Wifi_BLE_SDK/GD32VW55x_RELEASE_V1.0.2/MSDK/wpa_supplicant/src/ap\ap_config.h **** 	char *model_description;
 507:C:/Users/stapi/OneDrive/Desktop/GD32VW553/V1_MQTT_OK/GD32VW55X_Wifi_BLE_SDK/GD32VW55x_RELEASE_V1.0.2/MSDK/wpa_supplicant/src/ap\ap_config.h **** 	char *model_url;
 508:C:/Users/stapi/OneDrive/Desktop/GD32VW553/V1_MQTT_OK/GD32VW55X_Wifi_BLE_SDK/GD32VW55x_RELEASE_V1.0.2/MSDK/wpa_supplicant/src/ap\ap_config.h **** 	char *upc;
 509:C:/Users/stapi/OneDrive/Desktop/GD32VW553/V1_MQTT_OK/GD32VW55X_Wifi_BLE_SDK/GD32VW55x_RELEASE_V1.0.2/MSDK/wpa_supplicant/src/ap\ap_config.h **** 	struct wpabuf *wps_vendor_ext[MAX_WPS_VENDOR_EXTENSIONS];
 510:C:/Users/stapi/OneDrive/Desktop/GD32VW553/V1_MQTT_OK/GD32VW55X_Wifi_BLE_SDK/GD32VW55x_RELEASE_V1.0.2/MSDK/wpa_supplicant/src/ap\ap_config.h **** 	struct wpabuf *wps_application_ext;
 511:C:/Users/stapi/OneDrive/Desktop/GD32VW553/V1_MQTT_OK/GD32VW55X_Wifi_BLE_SDK/GD32VW55x_RELEASE_V1.0.2/MSDK/wpa_supplicant/src/ap\ap_config.h **** 	int wps_nfc_pw_from_config;
 512:C:/Users/stapi/OneDrive/Desktop/GD32VW553/V1_MQTT_OK/GD32VW55X_Wifi_BLE_SDK/GD32VW55x_RELEASE_V1.0.2/MSDK/wpa_supplicant/src/ap\ap_config.h **** 	int wps_nfc_dev_pw_id;
 513:C:/Users/stapi/OneDrive/Desktop/GD32VW553/V1_MQTT_OK/GD32VW55X_Wifi_BLE_SDK/GD32VW55x_RELEASE_V1.0.2/MSDK/wpa_supplicant/src/ap\ap_config.h **** 	struct wpabuf *wps_nfc_dh_pubkey;
 514:C:/Users/stapi/OneDrive/Desktop/GD32VW553/V1_MQTT_OK/GD32VW55X_Wifi_BLE_SDK/GD32VW55x_RELEASE_V1.0.2/MSDK/wpa_supplicant/src/ap\ap_config.h **** 	struct wpabuf *wps_nfc_dh_privkey;
 515:C:/Users/stapi/OneDrive/Desktop/GD32VW553/V1_MQTT_OK/GD32VW55X_Wifi_BLE_SDK/GD32VW55x_RELEASE_V1.0.2/MSDK/wpa_supplicant/src/ap\ap_config.h **** 	struct wpabuf *wps_nfc_dev_pw;
 516:C:/Users/stapi/OneDrive/Desktop/GD32VW553/V1_MQTT_OK/GD32VW55X_Wifi_BLE_SDK/GD32VW55x_RELEASE_V1.0.2/MSDK/wpa_supplicant/src/ap\ap_config.h **** #endif /* CONFIG_WPS */
 517:C:/Users/stapi/OneDrive/Desktop/GD32VW553/V1_MQTT_OK/GD32VW55X_Wifi_BLE_SDK/GD32VW55x_RELEASE_V1.0.2/MSDK/wpa_supplicant/src/ap\ap_config.h **** 	int pbc_in_m1;
 518:C:/Users/stapi/OneDrive/Desktop/GD32VW553/V1_MQTT_OK/GD32VW55X_Wifi_BLE_SDK/GD32VW55x_RELEASE_V1.0.2/MSDK/wpa_supplicant/src/ap\ap_config.h **** 	char *server_id;
 519:C:/Users/stapi/OneDrive/Desktop/GD32VW553/V1_MQTT_OK/GD32VW55X_Wifi_BLE_SDK/GD32VW55x_RELEASE_V1.0.2/MSDK/wpa_supplicant/src/ap\ap_config.h **** 
 520:C:/Users/stapi/OneDrive/Desktop/GD32VW553/V1_MQTT_OK/GD32VW55X_Wifi_BLE_SDK/GD32VW55x_RELEASE_V1.0.2/MSDK/wpa_supplicant/src/ap\ap_config.h **** #define P2P_ENABLED BIT(0)
 521:C:/Users/stapi/OneDrive/Desktop/GD32VW553/V1_MQTT_OK/GD32VW55X_Wifi_BLE_SDK/GD32VW55x_RELEASE_V1.0.2/MSDK/wpa_supplicant/src/ap\ap_config.h **** #define P2P_GROUP_OWNER BIT(1)
 522:C:/Users/stapi/OneDrive/Desktop/GD32VW553/V1_MQTT_OK/GD32VW55X_Wifi_BLE_SDK/GD32VW55x_RELEASE_V1.0.2/MSDK/wpa_supplicant/src/ap\ap_config.h **** #define P2P_GROUP_FORMATION BIT(2)
 523:C:/Users/stapi/OneDrive/Desktop/GD32VW553/V1_MQTT_OK/GD32VW55X_Wifi_BLE_SDK/GD32VW55x_RELEASE_V1.0.2/MSDK/wpa_supplicant/src/ap\ap_config.h **** #define P2P_MANAGE BIT(3)
 524:C:/Users/stapi/OneDrive/Desktop/GD32VW553/V1_MQTT_OK/GD32VW55X_Wifi_BLE_SDK/GD32VW55x_RELEASE_V1.0.2/MSDK/wpa_supplicant/src/ap\ap_config.h **** #define P2P_ALLOW_CROSS_CONNECTION BIT(4)
 525:C:/Users/stapi/OneDrive/Desktop/GD32VW553/V1_MQTT_OK/GD32VW55X_Wifi_BLE_SDK/GD32VW55x_RELEASE_V1.0.2/MSDK/wpa_supplicant/src/ap\ap_config.h **** 	int p2p;
 526:C:/Users/stapi/OneDrive/Desktop/GD32VW553/V1_MQTT_OK/GD32VW55X_Wifi_BLE_SDK/GD32VW55x_RELEASE_V1.0.2/MSDK/wpa_supplicant/src/ap\ap_config.h **** #ifdef CONFIG_P2P
 527:C:/Users/stapi/OneDrive/Desktop/GD32VW553/V1_MQTT_OK/GD32VW55X_Wifi_BLE_SDK/GD32VW55x_RELEASE_V1.0.2/MSDK/wpa_supplicant/src/ap\ap_config.h **** 	u8 ip_addr_go[4];
 528:C:/Users/stapi/OneDrive/Desktop/GD32VW553/V1_MQTT_OK/GD32VW55X_Wifi_BLE_SDK/GD32VW55x_RELEASE_V1.0.2/MSDK/wpa_supplicant/src/ap\ap_config.h **** 	u8 ip_addr_mask[4];
 529:C:/Users/stapi/OneDrive/Desktop/GD32VW553/V1_MQTT_OK/GD32VW55X_Wifi_BLE_SDK/GD32VW55x_RELEASE_V1.0.2/MSDK/wpa_supplicant/src/ap\ap_config.h **** 	u8 ip_addr_start[4];
 530:C:/Users/stapi/OneDrive/Desktop/GD32VW553/V1_MQTT_OK/GD32VW55X_Wifi_BLE_SDK/GD32VW55x_RELEASE_V1.0.2/MSDK/wpa_supplicant/src/ap\ap_config.h **** 	u8 ip_addr_end[4];
 531:C:/Users/stapi/OneDrive/Desktop/GD32VW553/V1_MQTT_OK/GD32VW55X_Wifi_BLE_SDK/GD32VW55x_RELEASE_V1.0.2/MSDK/wpa_supplicant/src/ap\ap_config.h **** #endif /* CONFIG_P2P */
 532:C:/Users/stapi/OneDrive/Desktop/GD32VW553/V1_MQTT_OK/GD32VW55X_Wifi_BLE_SDK/GD32VW55x_RELEASE_V1.0.2/MSDK/wpa_supplicant/src/ap\ap_config.h **** 
 533:C:/Users/stapi/OneDrive/Desktop/GD32VW553/V1_MQTT_OK/GD32VW55X_Wifi_BLE_SDK/GD32VW55x_RELEASE_V1.0.2/MSDK/wpa_supplicant/src/ap\ap_config.h **** 	int disassoc_low_ack;
 534:C:/Users/stapi/OneDrive/Desktop/GD32VW553/V1_MQTT_OK/GD32VW55X_Wifi_BLE_SDK/GD32VW55x_RELEASE_V1.0.2/MSDK/wpa_supplicant/src/ap\ap_config.h **** 	int skip_inactivity_poll;
 535:C:/Users/stapi/OneDrive/Desktop/GD32VW553/V1_MQTT_OK/GD32VW55X_Wifi_BLE_SDK/GD32VW55x_RELEASE_V1.0.2/MSDK/wpa_supplicant/src/ap\ap_config.h **** 
 536:C:/Users/stapi/OneDrive/Desktop/GD32VW553/V1_MQTT_OK/GD32VW55X_Wifi_BLE_SDK/GD32VW55x_RELEASE_V1.0.2/MSDK/wpa_supplicant/src/ap\ap_config.h **** #define TDLS_PROHIBIT BIT(0)
 537:C:/Users/stapi/OneDrive/Desktop/GD32VW553/V1_MQTT_OK/GD32VW55X_Wifi_BLE_SDK/GD32VW55x_RELEASE_V1.0.2/MSDK/wpa_supplicant/src/ap\ap_config.h **** #define TDLS_PROHIBIT_CHAN_SWITCH BIT(1)
 538:C:/Users/stapi/OneDrive/Desktop/GD32VW553/V1_MQTT_OK/GD32VW55X_Wifi_BLE_SDK/GD32VW55x_RELEASE_V1.0.2/MSDK/wpa_supplicant/src/ap\ap_config.h **** 	int tdls;
 539:C:/Users/stapi/OneDrive/Desktop/GD32VW553/V1_MQTT_OK/GD32VW55X_Wifi_BLE_SDK/GD32VW55x_RELEASE_V1.0.2/MSDK/wpa_supplicant/src/ap\ap_config.h **** 	bool disable_11n;
 540:C:/Users/stapi/OneDrive/Desktop/GD32VW553/V1_MQTT_OK/GD32VW55X_Wifi_BLE_SDK/GD32VW55x_RELEASE_V1.0.2/MSDK/wpa_supplicant/src/ap\ap_config.h **** 	bool disable_11ac;
 541:C:/Users/stapi/OneDrive/Desktop/GD32VW553/V1_MQTT_OK/GD32VW55X_Wifi_BLE_SDK/GD32VW55x_RELEASE_V1.0.2/MSDK/wpa_supplicant/src/ap\ap_config.h **** 	bool disable_11ax;
 542:C:/Users/stapi/OneDrive/Desktop/GD32VW553/V1_MQTT_OK/GD32VW55X_Wifi_BLE_SDK/GD32VW55x_RELEASE_V1.0.2/MSDK/wpa_supplicant/src/ap\ap_config.h **** 
 543:C:/Users/stapi/OneDrive/Desktop/GD32VW553/V1_MQTT_OK/GD32VW55X_Wifi_BLE_SDK/GD32VW55x_RELEASE_V1.0.2/MSDK/wpa_supplicant/src/ap\ap_config.h **** 	/* IEEE 802.11v */
 544:C:/Users/stapi/OneDrive/Desktop/GD32VW553/V1_MQTT_OK/GD32VW55X_Wifi_BLE_SDK/GD32VW55x_RELEASE_V1.0.2/MSDK/wpa_supplicant/src/ap\ap_config.h **** 	int time_advertisement;
 545:C:/Users/stapi/OneDrive/Desktop/GD32VW553/V1_MQTT_OK/GD32VW55X_Wifi_BLE_SDK/GD32VW55x_RELEASE_V1.0.2/MSDK/wpa_supplicant/src/ap\ap_config.h **** 	char *time_zone;
 546:C:/Users/stapi/OneDrive/Desktop/GD32VW553/V1_MQTT_OK/GD32VW55X_Wifi_BLE_SDK/GD32VW55x_RELEASE_V1.0.2/MSDK/wpa_supplicant/src/ap\ap_config.h **** 	int wnm_sleep_mode;
 547:C:/Users/stapi/OneDrive/Desktop/GD32VW553/V1_MQTT_OK/GD32VW55X_Wifi_BLE_SDK/GD32VW55x_RELEASE_V1.0.2/MSDK/wpa_supplicant/src/ap\ap_config.h **** 	int wnm_sleep_mode_no_keys;
 548:C:/Users/stapi/OneDrive/Desktop/GD32VW553/V1_MQTT_OK/GD32VW55X_Wifi_BLE_SDK/GD32VW55x_RELEASE_V1.0.2/MSDK/wpa_supplicant/src/ap\ap_config.h **** 	int bss_transition;
 549:C:/Users/stapi/OneDrive/Desktop/GD32VW553/V1_MQTT_OK/GD32VW55X_Wifi_BLE_SDK/GD32VW55x_RELEASE_V1.0.2/MSDK/wpa_supplicant/src/ap\ap_config.h **** 
 550:C:/Users/stapi/OneDrive/Desktop/GD32VW553/V1_MQTT_OK/GD32VW55X_Wifi_BLE_SDK/GD32VW55x_RELEASE_V1.0.2/MSDK/wpa_supplicant/src/ap\ap_config.h **** 	/* IEEE 802.11u - Interworking */
 551:C:/Users/stapi/OneDrive/Desktop/GD32VW553/V1_MQTT_OK/GD32VW55X_Wifi_BLE_SDK/GD32VW55x_RELEASE_V1.0.2/MSDK/wpa_supplicant/src/ap\ap_config.h **** 	int interworking;
 552:C:/Users/stapi/OneDrive/Desktop/GD32VW553/V1_MQTT_OK/GD32VW55X_Wifi_BLE_SDK/GD32VW55x_RELEASE_V1.0.2/MSDK/wpa_supplicant/src/ap\ap_config.h **** 	int access_network_type;
 553:C:/Users/stapi/OneDrive/Desktop/GD32VW553/V1_MQTT_OK/GD32VW55X_Wifi_BLE_SDK/GD32VW55x_RELEASE_V1.0.2/MSDK/wpa_supplicant/src/ap\ap_config.h **** 	int internet;
 554:C:/Users/stapi/OneDrive/Desktop/GD32VW553/V1_MQTT_OK/GD32VW55X_Wifi_BLE_SDK/GD32VW55x_RELEASE_V1.0.2/MSDK/wpa_supplicant/src/ap\ap_config.h **** 	int asra;
 555:C:/Users/stapi/OneDrive/Desktop/GD32VW553/V1_MQTT_OK/GD32VW55X_Wifi_BLE_SDK/GD32VW55x_RELEASE_V1.0.2/MSDK/wpa_supplicant/src/ap\ap_config.h **** 	int esr;
 556:C:/Users/stapi/OneDrive/Desktop/GD32VW553/V1_MQTT_OK/GD32VW55X_Wifi_BLE_SDK/GD32VW55x_RELEASE_V1.0.2/MSDK/wpa_supplicant/src/ap\ap_config.h **** 	int uesa;
 557:C:/Users/stapi/OneDrive/Desktop/GD32VW553/V1_MQTT_OK/GD32VW55X_Wifi_BLE_SDK/GD32VW55x_RELEASE_V1.0.2/MSDK/wpa_supplicant/src/ap\ap_config.h **** 	int venue_info_set;
 558:C:/Users/stapi/OneDrive/Desktop/GD32VW553/V1_MQTT_OK/GD32VW55X_Wifi_BLE_SDK/GD32VW55x_RELEASE_V1.0.2/MSDK/wpa_supplicant/src/ap\ap_config.h **** 	u8 venue_group;
 559:C:/Users/stapi/OneDrive/Desktop/GD32VW553/V1_MQTT_OK/GD32VW55X_Wifi_BLE_SDK/GD32VW55x_RELEASE_V1.0.2/MSDK/wpa_supplicant/src/ap\ap_config.h **** 	u8 venue_type;
 560:C:/Users/stapi/OneDrive/Desktop/GD32VW553/V1_MQTT_OK/GD32VW55X_Wifi_BLE_SDK/GD32VW55x_RELEASE_V1.0.2/MSDK/wpa_supplicant/src/ap\ap_config.h **** 	u8 hessid[ETH_ALEN];
 561:C:/Users/stapi/OneDrive/Desktop/GD32VW553/V1_MQTT_OK/GD32VW55X_Wifi_BLE_SDK/GD32VW55x_RELEASE_V1.0.2/MSDK/wpa_supplicant/src/ap\ap_config.h **** 
 562:C:/Users/stapi/OneDrive/Desktop/GD32VW553/V1_MQTT_OK/GD32VW55X_Wifi_BLE_SDK/GD32VW55x_RELEASE_V1.0.2/MSDK/wpa_supplicant/src/ap\ap_config.h **** 	/* IEEE 802.11u - Roaming Consortium list */
 563:C:/Users/stapi/OneDrive/Desktop/GD32VW553/V1_MQTT_OK/GD32VW55X_Wifi_BLE_SDK/GD32VW55x_RELEASE_V1.0.2/MSDK/wpa_supplicant/src/ap\ap_config.h **** 	unsigned int roaming_consortium_count;
 564:C:/Users/stapi/OneDrive/Desktop/GD32VW553/V1_MQTT_OK/GD32VW55X_Wifi_BLE_SDK/GD32VW55x_RELEASE_V1.0.2/MSDK/wpa_supplicant/src/ap\ap_config.h **** 	struct hostapd_roaming_consortium *roaming_consortium;
 565:C:/Users/stapi/OneDrive/Desktop/GD32VW553/V1_MQTT_OK/GD32VW55X_Wifi_BLE_SDK/GD32VW55x_RELEASE_V1.0.2/MSDK/wpa_supplicant/src/ap\ap_config.h **** 
 566:C:/Users/stapi/OneDrive/Desktop/GD32VW553/V1_MQTT_OK/GD32VW55X_Wifi_BLE_SDK/GD32VW55x_RELEASE_V1.0.2/MSDK/wpa_supplicant/src/ap\ap_config.h **** 	/* IEEE 802.11u - Venue Name duples */
 567:C:/Users/stapi/OneDrive/Desktop/GD32VW553/V1_MQTT_OK/GD32VW55X_Wifi_BLE_SDK/GD32VW55x_RELEASE_V1.0.2/MSDK/wpa_supplicant/src/ap\ap_config.h **** 	unsigned int venue_name_count;
 568:C:/Users/stapi/OneDrive/Desktop/GD32VW553/V1_MQTT_OK/GD32VW55X_Wifi_BLE_SDK/GD32VW55x_RELEASE_V1.0.2/MSDK/wpa_supplicant/src/ap\ap_config.h **** 	struct hostapd_lang_string *venue_name;
 569:C:/Users/stapi/OneDrive/Desktop/GD32VW553/V1_MQTT_OK/GD32VW55X_Wifi_BLE_SDK/GD32VW55x_RELEASE_V1.0.2/MSDK/wpa_supplicant/src/ap\ap_config.h **** 
 570:C:/Users/stapi/OneDrive/Desktop/GD32VW553/V1_MQTT_OK/GD32VW55X_Wifi_BLE_SDK/GD32VW55x_RELEASE_V1.0.2/MSDK/wpa_supplicant/src/ap\ap_config.h **** 	/* Venue URL duples */
 571:C:/Users/stapi/OneDrive/Desktop/GD32VW553/V1_MQTT_OK/GD32VW55X_Wifi_BLE_SDK/GD32VW55x_RELEASE_V1.0.2/MSDK/wpa_supplicant/src/ap\ap_config.h **** 	unsigned int venue_url_count;
 572:C:/Users/stapi/OneDrive/Desktop/GD32VW553/V1_MQTT_OK/GD32VW55X_Wifi_BLE_SDK/GD32VW55x_RELEASE_V1.0.2/MSDK/wpa_supplicant/src/ap\ap_config.h **** 	struct hostapd_venue_url *venue_url;
 573:C:/Users/stapi/OneDrive/Desktop/GD32VW553/V1_MQTT_OK/GD32VW55X_Wifi_BLE_SDK/GD32VW55x_RELEASE_V1.0.2/MSDK/wpa_supplicant/src/ap\ap_config.h **** 
 574:C:/Users/stapi/OneDrive/Desktop/GD32VW553/V1_MQTT_OK/GD32VW55X_Wifi_BLE_SDK/GD32VW55x_RELEASE_V1.0.2/MSDK/wpa_supplicant/src/ap\ap_config.h **** 	/* IEEE 802.11u - Network Authentication Type */
 575:C:/Users/stapi/OneDrive/Desktop/GD32VW553/V1_MQTT_OK/GD32VW55X_Wifi_BLE_SDK/GD32VW55x_RELEASE_V1.0.2/MSDK/wpa_supplicant/src/ap\ap_config.h **** 	u8 *network_auth_type;
 576:C:/Users/stapi/OneDrive/Desktop/GD32VW553/V1_MQTT_OK/GD32VW55X_Wifi_BLE_SDK/GD32VW55x_RELEASE_V1.0.2/MSDK/wpa_supplicant/src/ap\ap_config.h **** 	size_t network_auth_type_len;
 577:C:/Users/stapi/OneDrive/Desktop/GD32VW553/V1_MQTT_OK/GD32VW55X_Wifi_BLE_SDK/GD32VW55x_RELEASE_V1.0.2/MSDK/wpa_supplicant/src/ap\ap_config.h **** 
 578:C:/Users/stapi/OneDrive/Desktop/GD32VW553/V1_MQTT_OK/GD32VW55X_Wifi_BLE_SDK/GD32VW55x_RELEASE_V1.0.2/MSDK/wpa_supplicant/src/ap\ap_config.h **** 	/* IEEE 802.11u - IP Address Type Availability */
 579:C:/Users/stapi/OneDrive/Desktop/GD32VW553/V1_MQTT_OK/GD32VW55X_Wifi_BLE_SDK/GD32VW55x_RELEASE_V1.0.2/MSDK/wpa_supplicant/src/ap\ap_config.h **** 	u8 ipaddr_type_availability;
 580:C:/Users/stapi/OneDrive/Desktop/GD32VW553/V1_MQTT_OK/GD32VW55X_Wifi_BLE_SDK/GD32VW55x_RELEASE_V1.0.2/MSDK/wpa_supplicant/src/ap\ap_config.h **** 	u8 ipaddr_type_configured;
 581:C:/Users/stapi/OneDrive/Desktop/GD32VW553/V1_MQTT_OK/GD32VW55X_Wifi_BLE_SDK/GD32VW55x_RELEASE_V1.0.2/MSDK/wpa_supplicant/src/ap\ap_config.h **** 
 582:C:/Users/stapi/OneDrive/Desktop/GD32VW553/V1_MQTT_OK/GD32VW55X_Wifi_BLE_SDK/GD32VW55x_RELEASE_V1.0.2/MSDK/wpa_supplicant/src/ap\ap_config.h **** 	/* IEEE 802.11u - 3GPP Cellular Network */
 583:C:/Users/stapi/OneDrive/Desktop/GD32VW553/V1_MQTT_OK/GD32VW55X_Wifi_BLE_SDK/GD32VW55x_RELEASE_V1.0.2/MSDK/wpa_supplicant/src/ap\ap_config.h **** 	u8 *anqp_3gpp_cell_net;
 584:C:/Users/stapi/OneDrive/Desktop/GD32VW553/V1_MQTT_OK/GD32VW55X_Wifi_BLE_SDK/GD32VW55x_RELEASE_V1.0.2/MSDK/wpa_supplicant/src/ap\ap_config.h **** 	size_t anqp_3gpp_cell_net_len;
 585:C:/Users/stapi/OneDrive/Desktop/GD32VW553/V1_MQTT_OK/GD32VW55X_Wifi_BLE_SDK/GD32VW55x_RELEASE_V1.0.2/MSDK/wpa_supplicant/src/ap\ap_config.h **** 
 586:C:/Users/stapi/OneDrive/Desktop/GD32VW553/V1_MQTT_OK/GD32VW55X_Wifi_BLE_SDK/GD32VW55x_RELEASE_V1.0.2/MSDK/wpa_supplicant/src/ap\ap_config.h **** 	/* IEEE 802.11u - Domain Name */
 587:C:/Users/stapi/OneDrive/Desktop/GD32VW553/V1_MQTT_OK/GD32VW55X_Wifi_BLE_SDK/GD32VW55x_RELEASE_V1.0.2/MSDK/wpa_supplicant/src/ap\ap_config.h **** 	u8 *domain_name;
 588:C:/Users/stapi/OneDrive/Desktop/GD32VW553/V1_MQTT_OK/GD32VW55X_Wifi_BLE_SDK/GD32VW55x_RELEASE_V1.0.2/MSDK/wpa_supplicant/src/ap\ap_config.h **** 	size_t domain_name_len;
 589:C:/Users/stapi/OneDrive/Desktop/GD32VW553/V1_MQTT_OK/GD32VW55X_Wifi_BLE_SDK/GD32VW55x_RELEASE_V1.0.2/MSDK/wpa_supplicant/src/ap\ap_config.h **** 
 590:C:/Users/stapi/OneDrive/Desktop/GD32VW553/V1_MQTT_OK/GD32VW55X_Wifi_BLE_SDK/GD32VW55x_RELEASE_V1.0.2/MSDK/wpa_supplicant/src/ap\ap_config.h **** 	unsigned int nai_realm_count;
 591:C:/Users/stapi/OneDrive/Desktop/GD32VW553/V1_MQTT_OK/GD32VW55X_Wifi_BLE_SDK/GD32VW55x_RELEASE_V1.0.2/MSDK/wpa_supplicant/src/ap\ap_config.h **** 	struct hostapd_nai_realm_data *nai_realm_data;
 592:C:/Users/stapi/OneDrive/Desktop/GD32VW553/V1_MQTT_OK/GD32VW55X_Wifi_BLE_SDK/GD32VW55x_RELEASE_V1.0.2/MSDK/wpa_supplicant/src/ap\ap_config.h **** 
 593:C:/Users/stapi/OneDrive/Desktop/GD32VW553/V1_MQTT_OK/GD32VW55X_Wifi_BLE_SDK/GD32VW55x_RELEASE_V1.0.2/MSDK/wpa_supplicant/src/ap\ap_config.h **** 	struct dl_list anqp_elem; /* list of struct anqp_element */
 594:C:/Users/stapi/OneDrive/Desktop/GD32VW553/V1_MQTT_OK/GD32VW55X_Wifi_BLE_SDK/GD32VW55x_RELEASE_V1.0.2/MSDK/wpa_supplicant/src/ap\ap_config.h **** 
 595:C:/Users/stapi/OneDrive/Desktop/GD32VW553/V1_MQTT_OK/GD32VW55X_Wifi_BLE_SDK/GD32VW55x_RELEASE_V1.0.2/MSDK/wpa_supplicant/src/ap\ap_config.h **** 	u16 gas_comeback_delay;
 596:C:/Users/stapi/OneDrive/Desktop/GD32VW553/V1_MQTT_OK/GD32VW55X_Wifi_BLE_SDK/GD32VW55x_RELEASE_V1.0.2/MSDK/wpa_supplicant/src/ap\ap_config.h **** 	size_t gas_frag_limit;
 597:C:/Users/stapi/OneDrive/Desktop/GD32VW553/V1_MQTT_OK/GD32VW55X_Wifi_BLE_SDK/GD32VW55x_RELEASE_V1.0.2/MSDK/wpa_supplicant/src/ap\ap_config.h **** 	int gas_address3;
 598:C:/Users/stapi/OneDrive/Desktop/GD32VW553/V1_MQTT_OK/GD32VW55X_Wifi_BLE_SDK/GD32VW55x_RELEASE_V1.0.2/MSDK/wpa_supplicant/src/ap\ap_config.h **** 
 599:C:/Users/stapi/OneDrive/Desktop/GD32VW553/V1_MQTT_OK/GD32VW55X_Wifi_BLE_SDK/GD32VW55x_RELEASE_V1.0.2/MSDK/wpa_supplicant/src/ap\ap_config.h **** 	u8 qos_map_set[16 + 2 * 21];
 600:C:/Users/stapi/OneDrive/Desktop/GD32VW553/V1_MQTT_OK/GD32VW55X_Wifi_BLE_SDK/GD32VW55x_RELEASE_V1.0.2/MSDK/wpa_supplicant/src/ap\ap_config.h **** 	unsigned int qos_map_set_len;
 601:C:/Users/stapi/OneDrive/Desktop/GD32VW553/V1_MQTT_OK/GD32VW55X_Wifi_BLE_SDK/GD32VW55x_RELEASE_V1.0.2/MSDK/wpa_supplicant/src/ap\ap_config.h **** 
 602:C:/Users/stapi/OneDrive/Desktop/GD32VW553/V1_MQTT_OK/GD32VW55X_Wifi_BLE_SDK/GD32VW55x_RELEASE_V1.0.2/MSDK/wpa_supplicant/src/ap\ap_config.h **** 	int osen;
 603:C:/Users/stapi/OneDrive/Desktop/GD32VW553/V1_MQTT_OK/GD32VW55X_Wifi_BLE_SDK/GD32VW55x_RELEASE_V1.0.2/MSDK/wpa_supplicant/src/ap\ap_config.h **** 	int proxy_arp;
 604:C:/Users/stapi/OneDrive/Desktop/GD32VW553/V1_MQTT_OK/GD32VW55X_Wifi_BLE_SDK/GD32VW55x_RELEASE_V1.0.2/MSDK/wpa_supplicant/src/ap\ap_config.h **** 	int na_mcast_to_ucast;
 605:C:/Users/stapi/OneDrive/Desktop/GD32VW553/V1_MQTT_OK/GD32VW55X_Wifi_BLE_SDK/GD32VW55x_RELEASE_V1.0.2/MSDK/wpa_supplicant/src/ap\ap_config.h **** 
 606:C:/Users/stapi/OneDrive/Desktop/GD32VW553/V1_MQTT_OK/GD32VW55X_Wifi_BLE_SDK/GD32VW55x_RELEASE_V1.0.2/MSDK/wpa_supplicant/src/ap\ap_config.h **** #ifdef CONFIG_HS20
 607:C:/Users/stapi/OneDrive/Desktop/GD32VW553/V1_MQTT_OK/GD32VW55X_Wifi_BLE_SDK/GD32VW55x_RELEASE_V1.0.2/MSDK/wpa_supplicant/src/ap\ap_config.h **** 	int hs20;
 608:C:/Users/stapi/OneDrive/Desktop/GD32VW553/V1_MQTT_OK/GD32VW55X_Wifi_BLE_SDK/GD32VW55x_RELEASE_V1.0.2/MSDK/wpa_supplicant/src/ap\ap_config.h **** 	int hs20_release;
 609:C:/Users/stapi/OneDrive/Desktop/GD32VW553/V1_MQTT_OK/GD32VW55X_Wifi_BLE_SDK/GD32VW55x_RELEASE_V1.0.2/MSDK/wpa_supplicant/src/ap\ap_config.h **** 	int disable_dgaf;
 610:C:/Users/stapi/OneDrive/Desktop/GD32VW553/V1_MQTT_OK/GD32VW55X_Wifi_BLE_SDK/GD32VW55x_RELEASE_V1.0.2/MSDK/wpa_supplicant/src/ap\ap_config.h **** 	u16 anqp_domain_id;
 611:C:/Users/stapi/OneDrive/Desktop/GD32VW553/V1_MQTT_OK/GD32VW55X_Wifi_BLE_SDK/GD32VW55x_RELEASE_V1.0.2/MSDK/wpa_supplicant/src/ap\ap_config.h **** 	unsigned int hs20_oper_friendly_name_count;
 612:C:/Users/stapi/OneDrive/Desktop/GD32VW553/V1_MQTT_OK/GD32VW55X_Wifi_BLE_SDK/GD32VW55x_RELEASE_V1.0.2/MSDK/wpa_supplicant/src/ap\ap_config.h **** 	struct hostapd_lang_string *hs20_oper_friendly_name;
 613:C:/Users/stapi/OneDrive/Desktop/GD32VW553/V1_MQTT_OK/GD32VW55X_Wifi_BLE_SDK/GD32VW55x_RELEASE_V1.0.2/MSDK/wpa_supplicant/src/ap\ap_config.h **** 	u8 *hs20_wan_metrics;
 614:C:/Users/stapi/OneDrive/Desktop/GD32VW553/V1_MQTT_OK/GD32VW55X_Wifi_BLE_SDK/GD32VW55x_RELEASE_V1.0.2/MSDK/wpa_supplicant/src/ap\ap_config.h **** 	u8 *hs20_connection_capability;
 615:C:/Users/stapi/OneDrive/Desktop/GD32VW553/V1_MQTT_OK/GD32VW55X_Wifi_BLE_SDK/GD32VW55x_RELEASE_V1.0.2/MSDK/wpa_supplicant/src/ap\ap_config.h **** 	size_t hs20_connection_capability_len;
 616:C:/Users/stapi/OneDrive/Desktop/GD32VW553/V1_MQTT_OK/GD32VW55X_Wifi_BLE_SDK/GD32VW55x_RELEASE_V1.0.2/MSDK/wpa_supplicant/src/ap\ap_config.h **** 	u8 *hs20_operating_class;
 617:C:/Users/stapi/OneDrive/Desktop/GD32VW553/V1_MQTT_OK/GD32VW55X_Wifi_BLE_SDK/GD32VW55x_RELEASE_V1.0.2/MSDK/wpa_supplicant/src/ap\ap_config.h **** 	u8 hs20_operating_class_len;
 618:C:/Users/stapi/OneDrive/Desktop/GD32VW553/V1_MQTT_OK/GD32VW55X_Wifi_BLE_SDK/GD32VW55x_RELEASE_V1.0.2/MSDK/wpa_supplicant/src/ap\ap_config.h **** 	struct hs20_icon {
 619:C:/Users/stapi/OneDrive/Desktop/GD32VW553/V1_MQTT_OK/GD32VW55X_Wifi_BLE_SDK/GD32VW55x_RELEASE_V1.0.2/MSDK/wpa_supplicant/src/ap\ap_config.h **** 		u16 width;
 620:C:/Users/stapi/OneDrive/Desktop/GD32VW553/V1_MQTT_OK/GD32VW55X_Wifi_BLE_SDK/GD32VW55x_RELEASE_V1.0.2/MSDK/wpa_supplicant/src/ap\ap_config.h **** 		u16 height;
 621:C:/Users/stapi/OneDrive/Desktop/GD32VW553/V1_MQTT_OK/GD32VW55X_Wifi_BLE_SDK/GD32VW55x_RELEASE_V1.0.2/MSDK/wpa_supplicant/src/ap\ap_config.h **** 		char language[3];
 622:C:/Users/stapi/OneDrive/Desktop/GD32VW553/V1_MQTT_OK/GD32VW55X_Wifi_BLE_SDK/GD32VW55x_RELEASE_V1.0.2/MSDK/wpa_supplicant/src/ap\ap_config.h **** 		char type[256];
 623:C:/Users/stapi/OneDrive/Desktop/GD32VW553/V1_MQTT_OK/GD32VW55X_Wifi_BLE_SDK/GD32VW55x_RELEASE_V1.0.2/MSDK/wpa_supplicant/src/ap\ap_config.h **** 		char name[256];
 624:C:/Users/stapi/OneDrive/Desktop/GD32VW553/V1_MQTT_OK/GD32VW55X_Wifi_BLE_SDK/GD32VW55x_RELEASE_V1.0.2/MSDK/wpa_supplicant/src/ap\ap_config.h **** 		char file[256];
 625:C:/Users/stapi/OneDrive/Desktop/GD32VW553/V1_MQTT_OK/GD32VW55X_Wifi_BLE_SDK/GD32VW55x_RELEASE_V1.0.2/MSDK/wpa_supplicant/src/ap\ap_config.h **** 	} *hs20_icons;
 626:C:/Users/stapi/OneDrive/Desktop/GD32VW553/V1_MQTT_OK/GD32VW55X_Wifi_BLE_SDK/GD32VW55x_RELEASE_V1.0.2/MSDK/wpa_supplicant/src/ap\ap_config.h **** 	size_t hs20_icons_count;
 627:C:/Users/stapi/OneDrive/Desktop/GD32VW553/V1_MQTT_OK/GD32VW55X_Wifi_BLE_SDK/GD32VW55x_RELEASE_V1.0.2/MSDK/wpa_supplicant/src/ap\ap_config.h **** 	u8 osu_ssid[SSID_MAX_LEN];
 628:C:/Users/stapi/OneDrive/Desktop/GD32VW553/V1_MQTT_OK/GD32VW55X_Wifi_BLE_SDK/GD32VW55x_RELEASE_V1.0.2/MSDK/wpa_supplicant/src/ap\ap_config.h **** 	size_t osu_ssid_len;
 629:C:/Users/stapi/OneDrive/Desktop/GD32VW553/V1_MQTT_OK/GD32VW55X_Wifi_BLE_SDK/GD32VW55x_RELEASE_V1.0.2/MSDK/wpa_supplicant/src/ap\ap_config.h **** 	struct hs20_osu_provider {
 630:C:/Users/stapi/OneDrive/Desktop/GD32VW553/V1_MQTT_OK/GD32VW55X_Wifi_BLE_SDK/GD32VW55x_RELEASE_V1.0.2/MSDK/wpa_supplicant/src/ap\ap_config.h **** 		unsigned int friendly_name_count;
 631:C:/Users/stapi/OneDrive/Desktop/GD32VW553/V1_MQTT_OK/GD32VW55X_Wifi_BLE_SDK/GD32VW55x_RELEASE_V1.0.2/MSDK/wpa_supplicant/src/ap\ap_config.h **** 		struct hostapd_lang_string *friendly_name;
 632:C:/Users/stapi/OneDrive/Desktop/GD32VW553/V1_MQTT_OK/GD32VW55X_Wifi_BLE_SDK/GD32VW55x_RELEASE_V1.0.2/MSDK/wpa_supplicant/src/ap\ap_config.h **** 		char *server_uri;
 633:C:/Users/stapi/OneDrive/Desktop/GD32VW553/V1_MQTT_OK/GD32VW55X_Wifi_BLE_SDK/GD32VW55x_RELEASE_V1.0.2/MSDK/wpa_supplicant/src/ap\ap_config.h **** 		int *method_list;
 634:C:/Users/stapi/OneDrive/Desktop/GD32VW553/V1_MQTT_OK/GD32VW55X_Wifi_BLE_SDK/GD32VW55x_RELEASE_V1.0.2/MSDK/wpa_supplicant/src/ap\ap_config.h **** 		char **icons;
 635:C:/Users/stapi/OneDrive/Desktop/GD32VW553/V1_MQTT_OK/GD32VW55X_Wifi_BLE_SDK/GD32VW55x_RELEASE_V1.0.2/MSDK/wpa_supplicant/src/ap\ap_config.h **** 		size_t icons_count;
 636:C:/Users/stapi/OneDrive/Desktop/GD32VW553/V1_MQTT_OK/GD32VW55X_Wifi_BLE_SDK/GD32VW55x_RELEASE_V1.0.2/MSDK/wpa_supplicant/src/ap\ap_config.h **** 		char *osu_nai;
 637:C:/Users/stapi/OneDrive/Desktop/GD32VW553/V1_MQTT_OK/GD32VW55X_Wifi_BLE_SDK/GD32VW55x_RELEASE_V1.0.2/MSDK/wpa_supplicant/src/ap\ap_config.h **** 		char *osu_nai2;
 638:C:/Users/stapi/OneDrive/Desktop/GD32VW553/V1_MQTT_OK/GD32VW55X_Wifi_BLE_SDK/GD32VW55x_RELEASE_V1.0.2/MSDK/wpa_supplicant/src/ap\ap_config.h **** 		unsigned int service_desc_count;
 639:C:/Users/stapi/OneDrive/Desktop/GD32VW553/V1_MQTT_OK/GD32VW55X_Wifi_BLE_SDK/GD32VW55x_RELEASE_V1.0.2/MSDK/wpa_supplicant/src/ap\ap_config.h **** 		struct hostapd_lang_string *service_desc;
 640:C:/Users/stapi/OneDrive/Desktop/GD32VW553/V1_MQTT_OK/GD32VW55X_Wifi_BLE_SDK/GD32VW55x_RELEASE_V1.0.2/MSDK/wpa_supplicant/src/ap\ap_config.h **** 	} *hs20_osu_providers, *last_osu;
 641:C:/Users/stapi/OneDrive/Desktop/GD32VW553/V1_MQTT_OK/GD32VW55X_Wifi_BLE_SDK/GD32VW55x_RELEASE_V1.0.2/MSDK/wpa_supplicant/src/ap\ap_config.h **** 	size_t hs20_osu_providers_count;
 642:C:/Users/stapi/OneDrive/Desktop/GD32VW553/V1_MQTT_OK/GD32VW55X_Wifi_BLE_SDK/GD32VW55x_RELEASE_V1.0.2/MSDK/wpa_supplicant/src/ap\ap_config.h **** 	size_t hs20_osu_providers_nai_count;
 643:C:/Users/stapi/OneDrive/Desktop/GD32VW553/V1_MQTT_OK/GD32VW55X_Wifi_BLE_SDK/GD32VW55x_RELEASE_V1.0.2/MSDK/wpa_supplicant/src/ap\ap_config.h **** 	char **hs20_operator_icon;
 644:C:/Users/stapi/OneDrive/Desktop/GD32VW553/V1_MQTT_OK/GD32VW55X_Wifi_BLE_SDK/GD32VW55x_RELEASE_V1.0.2/MSDK/wpa_supplicant/src/ap\ap_config.h **** 	size_t hs20_operator_icon_count;
 645:C:/Users/stapi/OneDrive/Desktop/GD32VW553/V1_MQTT_OK/GD32VW55X_Wifi_BLE_SDK/GD32VW55x_RELEASE_V1.0.2/MSDK/wpa_supplicant/src/ap\ap_config.h **** 	unsigned int hs20_deauth_req_timeout;
 646:C:/Users/stapi/OneDrive/Desktop/GD32VW553/V1_MQTT_OK/GD32VW55X_Wifi_BLE_SDK/GD32VW55x_RELEASE_V1.0.2/MSDK/wpa_supplicant/src/ap\ap_config.h **** 	char *subscr_remediation_url;
 647:C:/Users/stapi/OneDrive/Desktop/GD32VW553/V1_MQTT_OK/GD32VW55X_Wifi_BLE_SDK/GD32VW55x_RELEASE_V1.0.2/MSDK/wpa_supplicant/src/ap\ap_config.h **** 	u8 subscr_remediation_method;
 648:C:/Users/stapi/OneDrive/Desktop/GD32VW553/V1_MQTT_OK/GD32VW55X_Wifi_BLE_SDK/GD32VW55x_RELEASE_V1.0.2/MSDK/wpa_supplicant/src/ap\ap_config.h **** 	char *hs20_sim_provisioning_url;
 649:C:/Users/stapi/OneDrive/Desktop/GD32VW553/V1_MQTT_OK/GD32VW55X_Wifi_BLE_SDK/GD32VW55x_RELEASE_V1.0.2/MSDK/wpa_supplicant/src/ap\ap_config.h **** 	char *t_c_filename;
 650:C:/Users/stapi/OneDrive/Desktop/GD32VW553/V1_MQTT_OK/GD32VW55X_Wifi_BLE_SDK/GD32VW55x_RELEASE_V1.0.2/MSDK/wpa_supplicant/src/ap\ap_config.h **** 	u32 t_c_timestamp;
 651:C:/Users/stapi/OneDrive/Desktop/GD32VW553/V1_MQTT_OK/GD32VW55X_Wifi_BLE_SDK/GD32VW55x_RELEASE_V1.0.2/MSDK/wpa_supplicant/src/ap\ap_config.h **** 	char *t_c_server_url;
 652:C:/Users/stapi/OneDrive/Desktop/GD32VW553/V1_MQTT_OK/GD32VW55X_Wifi_BLE_SDK/GD32VW55x_RELEASE_V1.0.2/MSDK/wpa_supplicant/src/ap\ap_config.h **** #endif /* CONFIG_HS20 */
 653:C:/Users/stapi/OneDrive/Desktop/GD32VW553/V1_MQTT_OK/GD32VW55X_Wifi_BLE_SDK/GD32VW55x_RELEASE_V1.0.2/MSDK/wpa_supplicant/src/ap\ap_config.h **** 
 654:C:/Users/stapi/OneDrive/Desktop/GD32VW553/V1_MQTT_OK/GD32VW55X_Wifi_BLE_SDK/GD32VW55x_RELEASE_V1.0.2/MSDK/wpa_supplicant/src/ap\ap_config.h **** 	u8 wps_rf_bands; /* RF bands for WPS (WPS_RF_*) */
 655:C:/Users/stapi/OneDrive/Desktop/GD32VW553/V1_MQTT_OK/GD32VW55X_Wifi_BLE_SDK/GD32VW55x_RELEASE_V1.0.2/MSDK/wpa_supplicant/src/ap\ap_config.h **** 
 656:C:/Users/stapi/OneDrive/Desktop/GD32VW553/V1_MQTT_OK/GD32VW55X_Wifi_BLE_SDK/GD32VW55x_RELEASE_V1.0.2/MSDK/wpa_supplicant/src/ap\ap_config.h **** #ifdef CONFIG_RADIUS_TEST
 657:C:/Users/stapi/OneDrive/Desktop/GD32VW553/V1_MQTT_OK/GD32VW55X_Wifi_BLE_SDK/GD32VW55x_RELEASE_V1.0.2/MSDK/wpa_supplicant/src/ap\ap_config.h **** 	char *dump_msk_file;
 658:C:/Users/stapi/OneDrive/Desktop/GD32VW553/V1_MQTT_OK/GD32VW55X_Wifi_BLE_SDK/GD32VW55x_RELEASE_V1.0.2/MSDK/wpa_supplicant/src/ap\ap_config.h **** #endif /* CONFIG_RADIUS_TEST */
 659:C:/Users/stapi/OneDrive/Desktop/GD32VW553/V1_MQTT_OK/GD32VW55X_Wifi_BLE_SDK/GD32VW55x_RELEASE_V1.0.2/MSDK/wpa_supplicant/src/ap\ap_config.h **** 
 660:C:/Users/stapi/OneDrive/Desktop/GD32VW553/V1_MQTT_OK/GD32VW55X_Wifi_BLE_SDK/GD32VW55x_RELEASE_V1.0.2/MSDK/wpa_supplicant/src/ap\ap_config.h **** 	struct wpabuf *vendor_elements;
 661:C:/Users/stapi/OneDrive/Desktop/GD32VW553/V1_MQTT_OK/GD32VW55X_Wifi_BLE_SDK/GD32VW55x_RELEASE_V1.0.2/MSDK/wpa_supplicant/src/ap\ap_config.h **** 	struct wpabuf *assocresp_elements;
 662:C:/Users/stapi/OneDrive/Desktop/GD32VW553/V1_MQTT_OK/GD32VW55X_Wifi_BLE_SDK/GD32VW55x_RELEASE_V1.0.2/MSDK/wpa_supplicant/src/ap\ap_config.h **** 
 663:C:/Users/stapi/OneDrive/Desktop/GD32VW553/V1_MQTT_OK/GD32VW55X_Wifi_BLE_SDK/GD32VW55x_RELEASE_V1.0.2/MSDK/wpa_supplicant/src/ap\ap_config.h **** 	unsigned int anti_clogging_threshold;
 664:C:/Users/stapi/OneDrive/Desktop/GD32VW553/V1_MQTT_OK/GD32VW55X_Wifi_BLE_SDK/GD32VW55x_RELEASE_V1.0.2/MSDK/wpa_supplicant/src/ap\ap_config.h **** 	unsigned int sae_sync;
 665:C:/Users/stapi/OneDrive/Desktop/GD32VW553/V1_MQTT_OK/GD32VW55X_Wifi_BLE_SDK/GD32VW55x_RELEASE_V1.0.2/MSDK/wpa_supplicant/src/ap\ap_config.h **** 	int sae_require_mfp;
 666:C:/Users/stapi/OneDrive/Desktop/GD32VW553/V1_MQTT_OK/GD32VW55X_Wifi_BLE_SDK/GD32VW55x_RELEASE_V1.0.2/MSDK/wpa_supplicant/src/ap\ap_config.h **** 	int sae_confirm_immediate;
 667:C:/Users/stapi/OneDrive/Desktop/GD32VW553/V1_MQTT_OK/GD32VW55X_Wifi_BLE_SDK/GD32VW55x_RELEASE_V1.0.2/MSDK/wpa_supplicant/src/ap\ap_config.h **** 	int sae_pwe;
 668:C:/Users/stapi/OneDrive/Desktop/GD32VW553/V1_MQTT_OK/GD32VW55X_Wifi_BLE_SDK/GD32VW55x_RELEASE_V1.0.2/MSDK/wpa_supplicant/src/ap\ap_config.h **** 	int *sae_groups;
 669:C:/Users/stapi/OneDrive/Desktop/GD32VW553/V1_MQTT_OK/GD32VW55X_Wifi_BLE_SDK/GD32VW55x_RELEASE_V1.0.2/MSDK/wpa_supplicant/src/ap\ap_config.h **** 	struct sae_password_entry *sae_passwords;
 670:C:/Users/stapi/OneDrive/Desktop/GD32VW553/V1_MQTT_OK/GD32VW55X_Wifi_BLE_SDK/GD32VW55x_RELEASE_V1.0.2/MSDK/wpa_supplicant/src/ap\ap_config.h **** 
 671:C:/Users/stapi/OneDrive/Desktop/GD32VW553/V1_MQTT_OK/GD32VW55X_Wifi_BLE_SDK/GD32VW55x_RELEASE_V1.0.2/MSDK/wpa_supplicant/src/ap\ap_config.h **** 	char *wowlan_triggers; /* Wake-on-WLAN triggers */
 672:C:/Users/stapi/OneDrive/Desktop/GD32VW553/V1_MQTT_OK/GD32VW55X_Wifi_BLE_SDK/GD32VW55x_RELEASE_V1.0.2/MSDK/wpa_supplicant/src/ap\ap_config.h **** 
 673:C:/Users/stapi/OneDrive/Desktop/GD32VW553/V1_MQTT_OK/GD32VW55X_Wifi_BLE_SDK/GD32VW55x_RELEASE_V1.0.2/MSDK/wpa_supplicant/src/ap\ap_config.h **** #ifdef CONFIG_TESTING_OPTIONS
 674:C:/Users/stapi/OneDrive/Desktop/GD32VW553/V1_MQTT_OK/GD32VW55X_Wifi_BLE_SDK/GD32VW55x_RELEASE_V1.0.2/MSDK/wpa_supplicant/src/ap\ap_config.h **** 	u8 bss_load_test[5];
 675:C:/Users/stapi/OneDrive/Desktop/GD32VW553/V1_MQTT_OK/GD32VW55X_Wifi_BLE_SDK/GD32VW55x_RELEASE_V1.0.2/MSDK/wpa_supplicant/src/ap\ap_config.h **** 	u8 bss_load_test_set;
 676:C:/Users/stapi/OneDrive/Desktop/GD32VW553/V1_MQTT_OK/GD32VW55X_Wifi_BLE_SDK/GD32VW55x_RELEASE_V1.0.2/MSDK/wpa_supplicant/src/ap\ap_config.h **** 	struct wpabuf *own_ie_override;
 677:C:/Users/stapi/OneDrive/Desktop/GD32VW553/V1_MQTT_OK/GD32VW55X_Wifi_BLE_SDK/GD32VW55x_RELEASE_V1.0.2/MSDK/wpa_supplicant/src/ap\ap_config.h **** 	int sae_reflection_attack;
 678:C:/Users/stapi/OneDrive/Desktop/GD32VW553/V1_MQTT_OK/GD32VW55X_Wifi_BLE_SDK/GD32VW55x_RELEASE_V1.0.2/MSDK/wpa_supplicant/src/ap\ap_config.h **** 	int sae_commit_status;
 679:C:/Users/stapi/OneDrive/Desktop/GD32VW553/V1_MQTT_OK/GD32VW55X_Wifi_BLE_SDK/GD32VW55x_RELEASE_V1.0.2/MSDK/wpa_supplicant/src/ap\ap_config.h **** 	int sae_pk_omit;
 680:C:/Users/stapi/OneDrive/Desktop/GD32VW553/V1_MQTT_OK/GD32VW55X_Wifi_BLE_SDK/GD32VW55x_RELEASE_V1.0.2/MSDK/wpa_supplicant/src/ap\ap_config.h **** 	int sae_pk_password_check_skip;
 681:C:/Users/stapi/OneDrive/Desktop/GD32VW553/V1_MQTT_OK/GD32VW55X_Wifi_BLE_SDK/GD32VW55x_RELEASE_V1.0.2/MSDK/wpa_supplicant/src/ap\ap_config.h **** 	struct wpabuf *sae_commit_override;
 682:C:/Users/stapi/OneDrive/Desktop/GD32VW553/V1_MQTT_OK/GD32VW55X_Wifi_BLE_SDK/GD32VW55x_RELEASE_V1.0.2/MSDK/wpa_supplicant/src/ap\ap_config.h **** 	struct wpabuf *rsne_override_eapol;
 683:C:/Users/stapi/OneDrive/Desktop/GD32VW553/V1_MQTT_OK/GD32VW55X_Wifi_BLE_SDK/GD32VW55x_RELEASE_V1.0.2/MSDK/wpa_supplicant/src/ap\ap_config.h **** 	struct wpabuf *rsnxe_override_eapol;
 684:C:/Users/stapi/OneDrive/Desktop/GD32VW553/V1_MQTT_OK/GD32VW55X_Wifi_BLE_SDK/GD32VW55x_RELEASE_V1.0.2/MSDK/wpa_supplicant/src/ap\ap_config.h **** 	struct wpabuf *rsne_override_ft;
 685:C:/Users/stapi/OneDrive/Desktop/GD32VW553/V1_MQTT_OK/GD32VW55X_Wifi_BLE_SDK/GD32VW55x_RELEASE_V1.0.2/MSDK/wpa_supplicant/src/ap\ap_config.h **** 	struct wpabuf *rsnxe_override_ft;
 686:C:/Users/stapi/OneDrive/Desktop/GD32VW553/V1_MQTT_OK/GD32VW55X_Wifi_BLE_SDK/GD32VW55x_RELEASE_V1.0.2/MSDK/wpa_supplicant/src/ap\ap_config.h **** 	struct wpabuf *gtk_rsc_override;
 687:C:/Users/stapi/OneDrive/Desktop/GD32VW553/V1_MQTT_OK/GD32VW55X_Wifi_BLE_SDK/GD32VW55x_RELEASE_V1.0.2/MSDK/wpa_supplicant/src/ap\ap_config.h **** 	struct wpabuf *igtk_rsc_override;
 688:C:/Users/stapi/OneDrive/Desktop/GD32VW553/V1_MQTT_OK/GD32VW55X_Wifi_BLE_SDK/GD32VW55x_RELEASE_V1.0.2/MSDK/wpa_supplicant/src/ap\ap_config.h **** 	int no_beacon_rsnxe;
 689:C:/Users/stapi/OneDrive/Desktop/GD32VW553/V1_MQTT_OK/GD32VW55X_Wifi_BLE_SDK/GD32VW55x_RELEASE_V1.0.2/MSDK/wpa_supplicant/src/ap\ap_config.h **** 	int skip_prune_assoc;
 690:C:/Users/stapi/OneDrive/Desktop/GD32VW553/V1_MQTT_OK/GD32VW55X_Wifi_BLE_SDK/GD32VW55x_RELEASE_V1.0.2/MSDK/wpa_supplicant/src/ap\ap_config.h **** 	int ft_rsnxe_used;
 691:C:/Users/stapi/OneDrive/Desktop/GD32VW553/V1_MQTT_OK/GD32VW55X_Wifi_BLE_SDK/GD32VW55x_RELEASE_V1.0.2/MSDK/wpa_supplicant/src/ap\ap_config.h **** 	unsigned int oci_freq_override_eapol_m3;
 692:C:/Users/stapi/OneDrive/Desktop/GD32VW553/V1_MQTT_OK/GD32VW55X_Wifi_BLE_SDK/GD32VW55x_RELEASE_V1.0.2/MSDK/wpa_supplicant/src/ap\ap_config.h **** 	unsigned int oci_freq_override_eapol_g1;
 693:C:/Users/stapi/OneDrive/Desktop/GD32VW553/V1_MQTT_OK/GD32VW55X_Wifi_BLE_SDK/GD32VW55x_RELEASE_V1.0.2/MSDK/wpa_supplicant/src/ap\ap_config.h **** 	unsigned int oci_freq_override_saquery_req;
 694:C:/Users/stapi/OneDrive/Desktop/GD32VW553/V1_MQTT_OK/GD32VW55X_Wifi_BLE_SDK/GD32VW55x_RELEASE_V1.0.2/MSDK/wpa_supplicant/src/ap\ap_config.h **** 	unsigned int oci_freq_override_saquery_resp;
 695:C:/Users/stapi/OneDrive/Desktop/GD32VW553/V1_MQTT_OK/GD32VW55X_Wifi_BLE_SDK/GD32VW55x_RELEASE_V1.0.2/MSDK/wpa_supplicant/src/ap\ap_config.h **** 	unsigned int oci_freq_override_ft_assoc;
 696:C:/Users/stapi/OneDrive/Desktop/GD32VW553/V1_MQTT_OK/GD32VW55X_Wifi_BLE_SDK/GD32VW55x_RELEASE_V1.0.2/MSDK/wpa_supplicant/src/ap\ap_config.h **** 	unsigned int oci_freq_override_fils_assoc;
 697:C:/Users/stapi/OneDrive/Desktop/GD32VW553/V1_MQTT_OK/GD32VW55X_Wifi_BLE_SDK/GD32VW55x_RELEASE_V1.0.2/MSDK/wpa_supplicant/src/ap\ap_config.h **** 	unsigned int oci_freq_override_wnm_sleep;
 698:C:/Users/stapi/OneDrive/Desktop/GD32VW553/V1_MQTT_OK/GD32VW55X_Wifi_BLE_SDK/GD32VW55x_RELEASE_V1.0.2/MSDK/wpa_supplicant/src/ap\ap_config.h **** #endif /* CONFIG_TESTING_OPTIONS */
 699:C:/Users/stapi/OneDrive/Desktop/GD32VW553/V1_MQTT_OK/GD32VW55X_Wifi_BLE_SDK/GD32VW55x_RELEASE_V1.0.2/MSDK/wpa_supplicant/src/ap\ap_config.h **** 
 700:C:/Users/stapi/OneDrive/Desktop/GD32VW553/V1_MQTT_OK/GD32VW55X_Wifi_BLE_SDK/GD32VW55x_RELEASE_V1.0.2/MSDK/wpa_supplicant/src/ap\ap_config.h **** #define MESH_ENABLED BIT(0)
 701:C:/Users/stapi/OneDrive/Desktop/GD32VW553/V1_MQTT_OK/GD32VW55X_Wifi_BLE_SDK/GD32VW55x_RELEASE_V1.0.2/MSDK/wpa_supplicant/src/ap\ap_config.h **** 	int mesh;
 702:C:/Users/stapi/OneDrive/Desktop/GD32VW553/V1_MQTT_OK/GD32VW55X_Wifi_BLE_SDK/GD32VW55x_RELEASE_V1.0.2/MSDK/wpa_supplicant/src/ap\ap_config.h **** 	int mesh_fwding;
 703:C:/Users/stapi/OneDrive/Desktop/GD32VW553/V1_MQTT_OK/GD32VW55X_Wifi_BLE_SDK/GD32VW55x_RELEASE_V1.0.2/MSDK/wpa_supplicant/src/ap\ap_config.h **** 
 704:C:/Users/stapi/OneDrive/Desktop/GD32VW553/V1_MQTT_OK/GD32VW55X_Wifi_BLE_SDK/GD32VW55x_RELEASE_V1.0.2/MSDK/wpa_supplicant/src/ap\ap_config.h **** 	u8 radio_measurements[RRM_CAPABILITIES_IE_LEN];
 705:C:/Users/stapi/OneDrive/Desktop/GD32VW553/V1_MQTT_OK/GD32VW55X_Wifi_BLE_SDK/GD32VW55x_RELEASE_V1.0.2/MSDK/wpa_supplicant/src/ap\ap_config.h **** 
 706:C:/Users/stapi/OneDrive/Desktop/GD32VW553/V1_MQTT_OK/GD32VW55X_Wifi_BLE_SDK/GD32VW55x_RELEASE_V1.0.2/MSDK/wpa_supplicant/src/ap\ap_config.h **** 	int vendor_vht;
 707:C:/Users/stapi/OneDrive/Desktop/GD32VW553/V1_MQTT_OK/GD32VW55X_Wifi_BLE_SDK/GD32VW55x_RELEASE_V1.0.2/MSDK/wpa_supplicant/src/ap\ap_config.h **** 	int use_sta_nsts;
 708:C:/Users/stapi/OneDrive/Desktop/GD32VW553/V1_MQTT_OK/GD32VW55X_Wifi_BLE_SDK/GD32VW55x_RELEASE_V1.0.2/MSDK/wpa_supplicant/src/ap\ap_config.h **** 
 709:C:/Users/stapi/OneDrive/Desktop/GD32VW553/V1_MQTT_OK/GD32VW55X_Wifi_BLE_SDK/GD32VW55x_RELEASE_V1.0.2/MSDK/wpa_supplicant/src/ap\ap_config.h **** 	char *no_probe_resp_if_seen_on;
 710:C:/Users/stapi/OneDrive/Desktop/GD32VW553/V1_MQTT_OK/GD32VW55X_Wifi_BLE_SDK/GD32VW55x_RELEASE_V1.0.2/MSDK/wpa_supplicant/src/ap\ap_config.h **** 	char *no_auth_if_seen_on;
 711:C:/Users/stapi/OneDrive/Desktop/GD32VW553/V1_MQTT_OK/GD32VW55X_Wifi_BLE_SDK/GD32VW55x_RELEASE_V1.0.2/MSDK/wpa_supplicant/src/ap\ap_config.h **** 
 712:C:/Users/stapi/OneDrive/Desktop/GD32VW553/V1_MQTT_OK/GD32VW55X_Wifi_BLE_SDK/GD32VW55x_RELEASE_V1.0.2/MSDK/wpa_supplicant/src/ap\ap_config.h **** 	int pbss;
 713:C:/Users/stapi/OneDrive/Desktop/GD32VW553/V1_MQTT_OK/GD32VW55X_Wifi_BLE_SDK/GD32VW55x_RELEASE_V1.0.2/MSDK/wpa_supplicant/src/ap\ap_config.h **** 
 714:C:/Users/stapi/OneDrive/Desktop/GD32VW553/V1_MQTT_OK/GD32VW55X_Wifi_BLE_SDK/GD32VW55x_RELEASE_V1.0.2/MSDK/wpa_supplicant/src/ap\ap_config.h **** #ifdef CONFIG_MBO
 715:C:/Users/stapi/OneDrive/Desktop/GD32VW553/V1_MQTT_OK/GD32VW55X_Wifi_BLE_SDK/GD32VW55x_RELEASE_V1.0.2/MSDK/wpa_supplicant/src/ap\ap_config.h **** 	int mbo_enabled;
 716:C:/Users/stapi/OneDrive/Desktop/GD32VW553/V1_MQTT_OK/GD32VW55X_Wifi_BLE_SDK/GD32VW55x_RELEASE_V1.0.2/MSDK/wpa_supplicant/src/ap\ap_config.h **** 	/**
 717:C:/Users/stapi/OneDrive/Desktop/GD32VW553/V1_MQTT_OK/GD32VW55X_Wifi_BLE_SDK/GD32VW55x_RELEASE_V1.0.2/MSDK/wpa_supplicant/src/ap\ap_config.h **** 	 * oce - Enable OCE in AP and/or STA-CFON mode
 718:C:/Users/stapi/OneDrive/Desktop/GD32VW553/V1_MQTT_OK/GD32VW55X_Wifi_BLE_SDK/GD32VW55x_RELEASE_V1.0.2/MSDK/wpa_supplicant/src/ap\ap_config.h **** 	 *  - BIT(0) is Reserved
 719:C:/Users/stapi/OneDrive/Desktop/GD32VW553/V1_MQTT_OK/GD32VW55X_Wifi_BLE_SDK/GD32VW55x_RELEASE_V1.0.2/MSDK/wpa_supplicant/src/ap\ap_config.h **** 	 *  - Set BIT(1) to enable OCE in STA-CFON mode
 720:C:/Users/stapi/OneDrive/Desktop/GD32VW553/V1_MQTT_OK/GD32VW55X_Wifi_BLE_SDK/GD32VW55x_RELEASE_V1.0.2/MSDK/wpa_supplicant/src/ap\ap_config.h **** 	 *  - Set BIT(2) to enable OCE in AP mode
 721:C:/Users/stapi/OneDrive/Desktop/GD32VW553/V1_MQTT_OK/GD32VW55X_Wifi_BLE_SDK/GD32VW55x_RELEASE_V1.0.2/MSDK/wpa_supplicant/src/ap\ap_config.h **** 	 */
 722:C:/Users/stapi/OneDrive/Desktop/GD32VW553/V1_MQTT_OK/GD32VW55X_Wifi_BLE_SDK/GD32VW55x_RELEASE_V1.0.2/MSDK/wpa_supplicant/src/ap\ap_config.h **** 	unsigned int oce;
 723:C:/Users/stapi/OneDrive/Desktop/GD32VW553/V1_MQTT_OK/GD32VW55X_Wifi_BLE_SDK/GD32VW55x_RELEASE_V1.0.2/MSDK/wpa_supplicant/src/ap\ap_config.h **** 	int mbo_cell_data_conn_pref;
 724:C:/Users/stapi/OneDrive/Desktop/GD32VW553/V1_MQTT_OK/GD32VW55X_Wifi_BLE_SDK/GD32VW55x_RELEASE_V1.0.2/MSDK/wpa_supplicant/src/ap\ap_config.h **** #endif /* CONFIG_MBO */
 725:C:/Users/stapi/OneDrive/Desktop/GD32VW553/V1_MQTT_OK/GD32VW55X_Wifi_BLE_SDK/GD32VW55x_RELEASE_V1.0.2/MSDK/wpa_supplicant/src/ap\ap_config.h **** 
 726:C:/Users/stapi/OneDrive/Desktop/GD32VW553/V1_MQTT_OK/GD32VW55X_Wifi_BLE_SDK/GD32VW55x_RELEASE_V1.0.2/MSDK/wpa_supplicant/src/ap\ap_config.h **** 	int ftm_responder;
 727:C:/Users/stapi/OneDrive/Desktop/GD32VW553/V1_MQTT_OK/GD32VW55X_Wifi_BLE_SDK/GD32VW55x_RELEASE_V1.0.2/MSDK/wpa_supplicant/src/ap\ap_config.h **** 	int ftm_initiator;
 728:C:/Users/stapi/OneDrive/Desktop/GD32VW553/V1_MQTT_OK/GD32VW55X_Wifi_BLE_SDK/GD32VW55x_RELEASE_V1.0.2/MSDK/wpa_supplicant/src/ap\ap_config.h **** 
 729:C:/Users/stapi/OneDrive/Desktop/GD32VW553/V1_MQTT_OK/GD32VW55X_Wifi_BLE_SDK/GD32VW55x_RELEASE_V1.0.2/MSDK/wpa_supplicant/src/ap\ap_config.h **** #ifdef CONFIG_FILS
 730:C:/Users/stapi/OneDrive/Desktop/GD32VW553/V1_MQTT_OK/GD32VW55X_Wifi_BLE_SDK/GD32VW55x_RELEASE_V1.0.2/MSDK/wpa_supplicant/src/ap\ap_config.h **** 	u8 fils_cache_id[FILS_CACHE_ID_LEN];
 731:C:/Users/stapi/OneDrive/Desktop/GD32VW553/V1_MQTT_OK/GD32VW55X_Wifi_BLE_SDK/GD32VW55x_RELEASE_V1.0.2/MSDK/wpa_supplicant/src/ap\ap_config.h **** 	int fils_cache_id_set;
 732:C:/Users/stapi/OneDrive/Desktop/GD32VW553/V1_MQTT_OK/GD32VW55X_Wifi_BLE_SDK/GD32VW55x_RELEASE_V1.0.2/MSDK/wpa_supplicant/src/ap\ap_config.h **** 	struct dl_list fils_realms; /* list of struct fils_realm */
 733:C:/Users/stapi/OneDrive/Desktop/GD32VW553/V1_MQTT_OK/GD32VW55X_Wifi_BLE_SDK/GD32VW55x_RELEASE_V1.0.2/MSDK/wpa_supplicant/src/ap\ap_config.h **** 	int fils_dh_group;
 734:C:/Users/stapi/OneDrive/Desktop/GD32VW553/V1_MQTT_OK/GD32VW55X_Wifi_BLE_SDK/GD32VW55x_RELEASE_V1.0.2/MSDK/wpa_supplicant/src/ap\ap_config.h **** 	struct hostapd_ip_addr dhcp_server;
 735:C:/Users/stapi/OneDrive/Desktop/GD32VW553/V1_MQTT_OK/GD32VW55X_Wifi_BLE_SDK/GD32VW55x_RELEASE_V1.0.2/MSDK/wpa_supplicant/src/ap\ap_config.h **** 	int dhcp_rapid_commit_proxy;
 736:C:/Users/stapi/OneDrive/Desktop/GD32VW553/V1_MQTT_OK/GD32VW55X_Wifi_BLE_SDK/GD32VW55x_RELEASE_V1.0.2/MSDK/wpa_supplicant/src/ap\ap_config.h **** 	unsigned int fils_hlp_wait_time;
 737:C:/Users/stapi/OneDrive/Desktop/GD32VW553/V1_MQTT_OK/GD32VW55X_Wifi_BLE_SDK/GD32VW55x_RELEASE_V1.0.2/MSDK/wpa_supplicant/src/ap\ap_config.h **** 	u16 dhcp_server_port;
 738:C:/Users/stapi/OneDrive/Desktop/GD32VW553/V1_MQTT_OK/GD32VW55X_Wifi_BLE_SDK/GD32VW55x_RELEASE_V1.0.2/MSDK/wpa_supplicant/src/ap\ap_config.h **** 	u16 dhcp_relay_port;
 739:C:/Users/stapi/OneDrive/Desktop/GD32VW553/V1_MQTT_OK/GD32VW55X_Wifi_BLE_SDK/GD32VW55x_RELEASE_V1.0.2/MSDK/wpa_supplicant/src/ap\ap_config.h **** 	u32 fils_discovery_min_int;
 740:C:/Users/stapi/OneDrive/Desktop/GD32VW553/V1_MQTT_OK/GD32VW55X_Wifi_BLE_SDK/GD32VW55x_RELEASE_V1.0.2/MSDK/wpa_supplicant/src/ap\ap_config.h **** 	u32 fils_discovery_max_int;
 741:C:/Users/stapi/OneDrive/Desktop/GD32VW553/V1_MQTT_OK/GD32VW55X_Wifi_BLE_SDK/GD32VW55x_RELEASE_V1.0.2/MSDK/wpa_supplicant/src/ap\ap_config.h **** #endif /* CONFIG_FILS */
 742:C:/Users/stapi/OneDrive/Desktop/GD32VW553/V1_MQTT_OK/GD32VW55X_Wifi_BLE_SDK/GD32VW55x_RELEASE_V1.0.2/MSDK/wpa_supplicant/src/ap\ap_config.h **** 
 743:C:/Users/stapi/OneDrive/Desktop/GD32VW553/V1_MQTT_OK/GD32VW55X_Wifi_BLE_SDK/GD32VW55x_RELEASE_V1.0.2/MSDK/wpa_supplicant/src/ap\ap_config.h **** 	int multicast_to_unicast;
 744:C:/Users/stapi/OneDrive/Desktop/GD32VW553/V1_MQTT_OK/GD32VW55X_Wifi_BLE_SDK/GD32VW55x_RELEASE_V1.0.2/MSDK/wpa_supplicant/src/ap\ap_config.h **** 
 745:C:/Users/stapi/OneDrive/Desktop/GD32VW553/V1_MQTT_OK/GD32VW55X_Wifi_BLE_SDK/GD32VW55x_RELEASE_V1.0.2/MSDK/wpa_supplicant/src/ap\ap_config.h **** 	int broadcast_deauth;
 746:C:/Users/stapi/OneDrive/Desktop/GD32VW553/V1_MQTT_OK/GD32VW55X_Wifi_BLE_SDK/GD32VW55x_RELEASE_V1.0.2/MSDK/wpa_supplicant/src/ap\ap_config.h **** 
 747:C:/Users/stapi/OneDrive/Desktop/GD32VW553/V1_MQTT_OK/GD32VW55X_Wifi_BLE_SDK/GD32VW55x_RELEASE_V1.0.2/MSDK/wpa_supplicant/src/ap\ap_config.h **** 	int notify_mgmt_frames;
 748:C:/Users/stapi/OneDrive/Desktop/GD32VW553/V1_MQTT_OK/GD32VW55X_Wifi_BLE_SDK/GD32VW55x_RELEASE_V1.0.2/MSDK/wpa_supplicant/src/ap\ap_config.h **** 
 749:C:/Users/stapi/OneDrive/Desktop/GD32VW553/V1_MQTT_OK/GD32VW55X_Wifi_BLE_SDK/GD32VW55x_RELEASE_V1.0.2/MSDK/wpa_supplicant/src/ap\ap_config.h **** #ifdef CONFIG_DPP
 750:C:/Users/stapi/OneDrive/Desktop/GD32VW553/V1_MQTT_OK/GD32VW55X_Wifi_BLE_SDK/GD32VW55x_RELEASE_V1.0.2/MSDK/wpa_supplicant/src/ap\ap_config.h **** 	char *dpp_name;
 751:C:/Users/stapi/OneDrive/Desktop/GD32VW553/V1_MQTT_OK/GD32VW55X_Wifi_BLE_SDK/GD32VW55x_RELEASE_V1.0.2/MSDK/wpa_supplicant/src/ap\ap_config.h **** 	char *dpp_mud_url;
 752:C:/Users/stapi/OneDrive/Desktop/GD32VW553/V1_MQTT_OK/GD32VW55X_Wifi_BLE_SDK/GD32VW55x_RELEASE_V1.0.2/MSDK/wpa_supplicant/src/ap\ap_config.h **** 	char *dpp_connector;
 753:C:/Users/stapi/OneDrive/Desktop/GD32VW553/V1_MQTT_OK/GD32VW55X_Wifi_BLE_SDK/GD32VW55x_RELEASE_V1.0.2/MSDK/wpa_supplicant/src/ap\ap_config.h **** 	struct wpabuf *dpp_netaccesskey;
 754:C:/Users/stapi/OneDrive/Desktop/GD32VW553/V1_MQTT_OK/GD32VW55X_Wifi_BLE_SDK/GD32VW55x_RELEASE_V1.0.2/MSDK/wpa_supplicant/src/ap\ap_config.h **** 	unsigned int dpp_netaccesskey_expiry;
 755:C:/Users/stapi/OneDrive/Desktop/GD32VW553/V1_MQTT_OK/GD32VW55X_Wifi_BLE_SDK/GD32VW55x_RELEASE_V1.0.2/MSDK/wpa_supplicant/src/ap\ap_config.h **** 	struct wpabuf *dpp_csign;
 756:C:/Users/stapi/OneDrive/Desktop/GD32VW553/V1_MQTT_OK/GD32VW55X_Wifi_BLE_SDK/GD32VW55x_RELEASE_V1.0.2/MSDK/wpa_supplicant/src/ap\ap_config.h **** #ifdef CONFIG_DPP2
 757:C:/Users/stapi/OneDrive/Desktop/GD32VW553/V1_MQTT_OK/GD32VW55X_Wifi_BLE_SDK/GD32VW55x_RELEASE_V1.0.2/MSDK/wpa_supplicant/src/ap\ap_config.h **** 	struct dpp_controller_conf *dpp_controller;
 758:C:/Users/stapi/OneDrive/Desktop/GD32VW553/V1_MQTT_OK/GD32VW55X_Wifi_BLE_SDK/GD32VW55x_RELEASE_V1.0.2/MSDK/wpa_supplicant/src/ap\ap_config.h **** 	int dpp_configurator_connectivity;
 759:C:/Users/stapi/OneDrive/Desktop/GD32VW553/V1_MQTT_OK/GD32VW55X_Wifi_BLE_SDK/GD32VW55x_RELEASE_V1.0.2/MSDK/wpa_supplicant/src/ap\ap_config.h **** 	int dpp_pfs;
 760:C:/Users/stapi/OneDrive/Desktop/GD32VW553/V1_MQTT_OK/GD32VW55X_Wifi_BLE_SDK/GD32VW55x_RELEASE_V1.0.2/MSDK/wpa_supplicant/src/ap\ap_config.h **** #endif /* CONFIG_DPP2 */
 761:C:/Users/stapi/OneDrive/Desktop/GD32VW553/V1_MQTT_OK/GD32VW55X_Wifi_BLE_SDK/GD32VW55x_RELEASE_V1.0.2/MSDK/wpa_supplicant/src/ap\ap_config.h **** #endif /* CONFIG_DPP */
 762:C:/Users/stapi/OneDrive/Desktop/GD32VW553/V1_MQTT_OK/GD32VW55X_Wifi_BLE_SDK/GD32VW55x_RELEASE_V1.0.2/MSDK/wpa_supplicant/src/ap\ap_config.h **** 
 763:C:/Users/stapi/OneDrive/Desktop/GD32VW553/V1_MQTT_OK/GD32VW55X_Wifi_BLE_SDK/GD32VW55x_RELEASE_V1.0.2/MSDK/wpa_supplicant/src/ap\ap_config.h **** #ifdef CONFIG_OWE
 764:C:/Users/stapi/OneDrive/Desktop/GD32VW553/V1_MQTT_OK/GD32VW55X_Wifi_BLE_SDK/GD32VW55x_RELEASE_V1.0.2/MSDK/wpa_supplicant/src/ap\ap_config.h **** 	macaddr owe_transition_bssid;
 765:C:/Users/stapi/OneDrive/Desktop/GD32VW553/V1_MQTT_OK/GD32VW55X_Wifi_BLE_SDK/GD32VW55x_RELEASE_V1.0.2/MSDK/wpa_supplicant/src/ap\ap_config.h **** 	u8 owe_transition_ssid[SSID_MAX_LEN];
 766:C:/Users/stapi/OneDrive/Desktop/GD32VW553/V1_MQTT_OK/GD32VW55X_Wifi_BLE_SDK/GD32VW55x_RELEASE_V1.0.2/MSDK/wpa_supplicant/src/ap\ap_config.h **** 	size_t owe_transition_ssid_len;
 767:C:/Users/stapi/OneDrive/Desktop/GD32VW553/V1_MQTT_OK/GD32VW55X_Wifi_BLE_SDK/GD32VW55x_RELEASE_V1.0.2/MSDK/wpa_supplicant/src/ap\ap_config.h **** 	char owe_transition_ifname[IFNAMSIZ + 1];
 768:C:/Users/stapi/OneDrive/Desktop/GD32VW553/V1_MQTT_OK/GD32VW55X_Wifi_BLE_SDK/GD32VW55x_RELEASE_V1.0.2/MSDK/wpa_supplicant/src/ap\ap_config.h **** 	int *owe_groups;
 769:C:/Users/stapi/OneDrive/Desktop/GD32VW553/V1_MQTT_OK/GD32VW55X_Wifi_BLE_SDK/GD32VW55x_RELEASE_V1.0.2/MSDK/wpa_supplicant/src/ap\ap_config.h **** 	int owe_ptk_workaround;
 770:C:/Users/stapi/OneDrive/Desktop/GD32VW553/V1_MQTT_OK/GD32VW55X_Wifi_BLE_SDK/GD32VW55x_RELEASE_V1.0.2/MSDK/wpa_supplicant/src/ap\ap_config.h **** #endif /* CONFIG_OWE */
 771:C:/Users/stapi/OneDrive/Desktop/GD32VW553/V1_MQTT_OK/GD32VW55X_Wifi_BLE_SDK/GD32VW55x_RELEASE_V1.0.2/MSDK/wpa_supplicant/src/ap\ap_config.h **** 
 772:C:/Users/stapi/OneDrive/Desktop/GD32VW553/V1_MQTT_OK/GD32VW55X_Wifi_BLE_SDK/GD32VW55x_RELEASE_V1.0.2/MSDK/wpa_supplicant/src/ap\ap_config.h **** 	int coloc_intf_reporting;
 773:C:/Users/stapi/OneDrive/Desktop/GD32VW553/V1_MQTT_OK/GD32VW55X_Wifi_BLE_SDK/GD32VW55x_RELEASE_V1.0.2/MSDK/wpa_supplicant/src/ap\ap_config.h **** 
 774:C:/Users/stapi/OneDrive/Desktop/GD32VW553/V1_MQTT_OK/GD32VW55X_Wifi_BLE_SDK/GD32VW55x_RELEASE_V1.0.2/MSDK/wpa_supplicant/src/ap\ap_config.h **** 	u8 send_probe_response;
 775:C:/Users/stapi/OneDrive/Desktop/GD32VW553/V1_MQTT_OK/GD32VW55X_Wifi_BLE_SDK/GD32VW55x_RELEASE_V1.0.2/MSDK/wpa_supplicant/src/ap\ap_config.h **** 
 776:C:/Users/stapi/OneDrive/Desktop/GD32VW553/V1_MQTT_OK/GD32VW55X_Wifi_BLE_SDK/GD32VW55x_RELEASE_V1.0.2/MSDK/wpa_supplicant/src/ap\ap_config.h **** 	u8 transition_disable;
 777:C:/Users/stapi/OneDrive/Desktop/GD32VW553/V1_MQTT_OK/GD32VW55X_Wifi_BLE_SDK/GD32VW55x_RELEASE_V1.0.2/MSDK/wpa_supplicant/src/ap\ap_config.h **** 
 778:C:/Users/stapi/OneDrive/Desktop/GD32VW553/V1_MQTT_OK/GD32VW55X_Wifi_BLE_SDK/GD32VW55x_RELEASE_V1.0.2/MSDK/wpa_supplicant/src/ap\ap_config.h **** #define BACKHAUL_BSS 1
 779:C:/Users/stapi/OneDrive/Desktop/GD32VW553/V1_MQTT_OK/GD32VW55X_Wifi_BLE_SDK/GD32VW55x_RELEASE_V1.0.2/MSDK/wpa_supplicant/src/ap\ap_config.h **** #define FRONTHAUL_BSS 2
 780:C:/Users/stapi/OneDrive/Desktop/GD32VW553/V1_MQTT_OK/GD32VW55X_Wifi_BLE_SDK/GD32VW55x_RELEASE_V1.0.2/MSDK/wpa_supplicant/src/ap\ap_config.h **** 	int multi_ap; /* bitmap of BACKHAUL_BSS, FRONTHAUL_BSS */
 781:C:/Users/stapi/OneDrive/Desktop/GD32VW553/V1_MQTT_OK/GD32VW55X_Wifi_BLE_SDK/GD32VW55x_RELEASE_V1.0.2/MSDK/wpa_supplicant/src/ap\ap_config.h **** 
 782:C:/Users/stapi/OneDrive/Desktop/GD32VW553/V1_MQTT_OK/GD32VW55X_Wifi_BLE_SDK/GD32VW55x_RELEASE_V1.0.2/MSDK/wpa_supplicant/src/ap\ap_config.h **** #ifdef CONFIG_AIRTIME_POLICY
 783:C:/Users/stapi/OneDrive/Desktop/GD32VW553/V1_MQTT_OK/GD32VW55X_Wifi_BLE_SDK/GD32VW55x_RELEASE_V1.0.2/MSDK/wpa_supplicant/src/ap\ap_config.h **** 	unsigned int airtime_weight;
 784:C:/Users/stapi/OneDrive/Desktop/GD32VW553/V1_MQTT_OK/GD32VW55X_Wifi_BLE_SDK/GD32VW55x_RELEASE_V1.0.2/MSDK/wpa_supplicant/src/ap\ap_config.h **** 	int airtime_limit;
 785:C:/Users/stapi/OneDrive/Desktop/GD32VW553/V1_MQTT_OK/GD32VW55X_Wifi_BLE_SDK/GD32VW55x_RELEASE_V1.0.2/MSDK/wpa_supplicant/src/ap\ap_config.h **** 	struct airtime_sta_weight *airtime_weight_list;
 786:C:/Users/stapi/OneDrive/Desktop/GD32VW553/V1_MQTT_OK/GD32VW55X_Wifi_BLE_SDK/GD32VW55x_RELEASE_V1.0.2/MSDK/wpa_supplicant/src/ap\ap_config.h **** #endif /* CONFIG_AIRTIME_POLICY */
 787:C:/Users/stapi/OneDrive/Desktop/GD32VW553/V1_MQTT_OK/GD32VW55X_Wifi_BLE_SDK/GD32VW55x_RELEASE_V1.0.2/MSDK/wpa_supplicant/src/ap\ap_config.h **** 
 788:C:/Users/stapi/OneDrive/Desktop/GD32VW553/V1_MQTT_OK/GD32VW55X_Wifi_BLE_SDK/GD32VW55x_RELEASE_V1.0.2/MSDK/wpa_supplicant/src/ap\ap_config.h **** #ifdef CONFIG_MACSEC
 789:C:/Users/stapi/OneDrive/Desktop/GD32VW553/V1_MQTT_OK/GD32VW55X_Wifi_BLE_SDK/GD32VW55x_RELEASE_V1.0.2/MSDK/wpa_supplicant/src/ap\ap_config.h **** 	/**
 790:C:/Users/stapi/OneDrive/Desktop/GD32VW553/V1_MQTT_OK/GD32VW55X_Wifi_BLE_SDK/GD32VW55x_RELEASE_V1.0.2/MSDK/wpa_supplicant/src/ap\ap_config.h **** 	 * macsec_policy - Determines the policy for MACsec secure session
 791:C:/Users/stapi/OneDrive/Desktop/GD32VW553/V1_MQTT_OK/GD32VW55X_Wifi_BLE_SDK/GD32VW55x_RELEASE_V1.0.2/MSDK/wpa_supplicant/src/ap\ap_config.h **** 	 *
 792:C:/Users/stapi/OneDrive/Desktop/GD32VW553/V1_MQTT_OK/GD32VW55X_Wifi_BLE_SDK/GD32VW55x_RELEASE_V1.0.2/MSDK/wpa_supplicant/src/ap\ap_config.h **** 	 * 0: MACsec not in use (default)
 793:C:/Users/stapi/OneDrive/Desktop/GD32VW553/V1_MQTT_OK/GD32VW55X_Wifi_BLE_SDK/GD32VW55x_RELEASE_V1.0.2/MSDK/wpa_supplicant/src/ap\ap_config.h **** 	 * 1: MACsec enabled - Should secure, accept key server's advice to
 794:C:/Users/stapi/OneDrive/Desktop/GD32VW553/V1_MQTT_OK/GD32VW55X_Wifi_BLE_SDK/GD32VW55x_RELEASE_V1.0.2/MSDK/wpa_supplicant/src/ap\ap_config.h **** 	 *    determine whether to use a secure session or not.
 795:C:/Users/stapi/OneDrive/Desktop/GD32VW553/V1_MQTT_OK/GD32VW55X_Wifi_BLE_SDK/GD32VW55x_RELEASE_V1.0.2/MSDK/wpa_supplicant/src/ap\ap_config.h **** 	 */
 796:C:/Users/stapi/OneDrive/Desktop/GD32VW553/V1_MQTT_OK/GD32VW55X_Wifi_BLE_SDK/GD32VW55x_RELEASE_V1.0.2/MSDK/wpa_supplicant/src/ap\ap_config.h **** 	int macsec_policy;
 797:C:/Users/stapi/OneDrive/Desktop/GD32VW553/V1_MQTT_OK/GD32VW55X_Wifi_BLE_SDK/GD32VW55x_RELEASE_V1.0.2/MSDK/wpa_supplicant/src/ap\ap_config.h **** 
 798:C:/Users/stapi/OneDrive/Desktop/GD32VW553/V1_MQTT_OK/GD32VW55X_Wifi_BLE_SDK/GD32VW55x_RELEASE_V1.0.2/MSDK/wpa_supplicant/src/ap\ap_config.h **** 	/**
 799:C:/Users/stapi/OneDrive/Desktop/GD32VW553/V1_MQTT_OK/GD32VW55X_Wifi_BLE_SDK/GD32VW55x_RELEASE_V1.0.2/MSDK/wpa_supplicant/src/ap\ap_config.h **** 	 * macsec_integ_only - Determines how MACsec are transmitted
 800:C:/Users/stapi/OneDrive/Desktop/GD32VW553/V1_MQTT_OK/GD32VW55X_Wifi_BLE_SDK/GD32VW55x_RELEASE_V1.0.2/MSDK/wpa_supplicant/src/ap\ap_config.h **** 	 *
 801:C:/Users/stapi/OneDrive/Desktop/GD32VW553/V1_MQTT_OK/GD32VW55X_Wifi_BLE_SDK/GD32VW55x_RELEASE_V1.0.2/MSDK/wpa_supplicant/src/ap\ap_config.h **** 	 * This setting applies only when MACsec is in use, i.e.,
 802:C:/Users/stapi/OneDrive/Desktop/GD32VW553/V1_MQTT_OK/GD32VW55X_Wifi_BLE_SDK/GD32VW55x_RELEASE_V1.0.2/MSDK/wpa_supplicant/src/ap\ap_config.h **** 	 *  - macsec_policy is enabled
 803:C:/Users/stapi/OneDrive/Desktop/GD32VW553/V1_MQTT_OK/GD32VW55X_Wifi_BLE_SDK/GD32VW55x_RELEASE_V1.0.2/MSDK/wpa_supplicant/src/ap\ap_config.h **** 	 *  - the key server has decided to enable MACsec
 804:C:/Users/stapi/OneDrive/Desktop/GD32VW553/V1_MQTT_OK/GD32VW55X_Wifi_BLE_SDK/GD32VW55x_RELEASE_V1.0.2/MSDK/wpa_supplicant/src/ap\ap_config.h **** 	 *
 805:C:/Users/stapi/OneDrive/Desktop/GD32VW553/V1_MQTT_OK/GD32VW55X_Wifi_BLE_SDK/GD32VW55x_RELEASE_V1.0.2/MSDK/wpa_supplicant/src/ap\ap_config.h **** 	 * 0: Encrypt traffic (default)
 806:C:/Users/stapi/OneDrive/Desktop/GD32VW553/V1_MQTT_OK/GD32VW55X_Wifi_BLE_SDK/GD32VW55x_RELEASE_V1.0.2/MSDK/wpa_supplicant/src/ap\ap_config.h **** 	 * 1: Integrity only
 807:C:/Users/stapi/OneDrive/Desktop/GD32VW553/V1_MQTT_OK/GD32VW55X_Wifi_BLE_SDK/GD32VW55x_RELEASE_V1.0.2/MSDK/wpa_supplicant/src/ap\ap_config.h **** 	 */
 808:C:/Users/stapi/OneDrive/Desktop/GD32VW553/V1_MQTT_OK/GD32VW55X_Wifi_BLE_SDK/GD32VW55x_RELEASE_V1.0.2/MSDK/wpa_supplicant/src/ap\ap_config.h **** 	int macsec_integ_only;
 809:C:/Users/stapi/OneDrive/Desktop/GD32VW553/V1_MQTT_OK/GD32VW55X_Wifi_BLE_SDK/GD32VW55x_RELEASE_V1.0.2/MSDK/wpa_supplicant/src/ap\ap_config.h **** 
 810:C:/Users/stapi/OneDrive/Desktop/GD32VW553/V1_MQTT_OK/GD32VW55X_Wifi_BLE_SDK/GD32VW55x_RELEASE_V1.0.2/MSDK/wpa_supplicant/src/ap\ap_config.h **** 	/**
 811:C:/Users/stapi/OneDrive/Desktop/GD32VW553/V1_MQTT_OK/GD32VW55X_Wifi_BLE_SDK/GD32VW55x_RELEASE_V1.0.2/MSDK/wpa_supplicant/src/ap\ap_config.h **** 	 * macsec_replay_protect - Enable MACsec replay protection
 812:C:/Users/stapi/OneDrive/Desktop/GD32VW553/V1_MQTT_OK/GD32VW55X_Wifi_BLE_SDK/GD32VW55x_RELEASE_V1.0.2/MSDK/wpa_supplicant/src/ap\ap_config.h **** 	 *
 813:C:/Users/stapi/OneDrive/Desktop/GD32VW553/V1_MQTT_OK/GD32VW55X_Wifi_BLE_SDK/GD32VW55x_RELEASE_V1.0.2/MSDK/wpa_supplicant/src/ap\ap_config.h **** 	 * This setting applies only when MACsec is in use, i.e.,
 814:C:/Users/stapi/OneDrive/Desktop/GD32VW553/V1_MQTT_OK/GD32VW55X_Wifi_BLE_SDK/GD32VW55x_RELEASE_V1.0.2/MSDK/wpa_supplicant/src/ap\ap_config.h **** 	 *  - macsec_policy is enabled
 815:C:/Users/stapi/OneDrive/Desktop/GD32VW553/V1_MQTT_OK/GD32VW55X_Wifi_BLE_SDK/GD32VW55x_RELEASE_V1.0.2/MSDK/wpa_supplicant/src/ap\ap_config.h **** 	 *  - the key server has decided to enable MACsec
 816:C:/Users/stapi/OneDrive/Desktop/GD32VW553/V1_MQTT_OK/GD32VW55X_Wifi_BLE_SDK/GD32VW55x_RELEASE_V1.0.2/MSDK/wpa_supplicant/src/ap\ap_config.h **** 	 *
 817:C:/Users/stapi/OneDrive/Desktop/GD32VW553/V1_MQTT_OK/GD32VW55X_Wifi_BLE_SDK/GD32VW55x_RELEASE_V1.0.2/MSDK/wpa_supplicant/src/ap\ap_config.h **** 	 * 0: Replay protection disabled (default)
 818:C:/Users/stapi/OneDrive/Desktop/GD32VW553/V1_MQTT_OK/GD32VW55X_Wifi_BLE_SDK/GD32VW55x_RELEASE_V1.0.2/MSDK/wpa_supplicant/src/ap\ap_config.h **** 	 * 1: Replay protection enabled
 819:C:/Users/stapi/OneDrive/Desktop/GD32VW553/V1_MQTT_OK/GD32VW55X_Wifi_BLE_SDK/GD32VW55x_RELEASE_V1.0.2/MSDK/wpa_supplicant/src/ap\ap_config.h **** 	 */
 820:C:/Users/stapi/OneDrive/Desktop/GD32VW553/V1_MQTT_OK/GD32VW55X_Wifi_BLE_SDK/GD32VW55x_RELEASE_V1.0.2/MSDK/wpa_supplicant/src/ap\ap_config.h **** 	int macsec_replay_protect;
 821:C:/Users/stapi/OneDrive/Desktop/GD32VW553/V1_MQTT_OK/GD32VW55X_Wifi_BLE_SDK/GD32VW55x_RELEASE_V1.0.2/MSDK/wpa_supplicant/src/ap\ap_config.h **** 
 822:C:/Users/stapi/OneDrive/Desktop/GD32VW553/V1_MQTT_OK/GD32VW55X_Wifi_BLE_SDK/GD32VW55x_RELEASE_V1.0.2/MSDK/wpa_supplicant/src/ap\ap_config.h **** 	/**
 823:C:/Users/stapi/OneDrive/Desktop/GD32VW553/V1_MQTT_OK/GD32VW55X_Wifi_BLE_SDK/GD32VW55x_RELEASE_V1.0.2/MSDK/wpa_supplicant/src/ap\ap_config.h **** 	 * macsec_replay_window - MACsec replay protection window
 824:C:/Users/stapi/OneDrive/Desktop/GD32VW553/V1_MQTT_OK/GD32VW55X_Wifi_BLE_SDK/GD32VW55x_RELEASE_V1.0.2/MSDK/wpa_supplicant/src/ap\ap_config.h **** 	 *
 825:C:/Users/stapi/OneDrive/Desktop/GD32VW553/V1_MQTT_OK/GD32VW55X_Wifi_BLE_SDK/GD32VW55x_RELEASE_V1.0.2/MSDK/wpa_supplicant/src/ap\ap_config.h **** 	 * A window in which replay is tolerated, to allow receipt of frames
 826:C:/Users/stapi/OneDrive/Desktop/GD32VW553/V1_MQTT_OK/GD32VW55X_Wifi_BLE_SDK/GD32VW55x_RELEASE_V1.0.2/MSDK/wpa_supplicant/src/ap\ap_config.h **** 	 * that have been misordered by the network.
 827:C:/Users/stapi/OneDrive/Desktop/GD32VW553/V1_MQTT_OK/GD32VW55X_Wifi_BLE_SDK/GD32VW55x_RELEASE_V1.0.2/MSDK/wpa_supplicant/src/ap\ap_config.h **** 	 *
 828:C:/Users/stapi/OneDrive/Desktop/GD32VW553/V1_MQTT_OK/GD32VW55X_Wifi_BLE_SDK/GD32VW55x_RELEASE_V1.0.2/MSDK/wpa_supplicant/src/ap\ap_config.h **** 	 * This setting applies only when MACsec replay protection active, i.e.,
 829:C:/Users/stapi/OneDrive/Desktop/GD32VW553/V1_MQTT_OK/GD32VW55X_Wifi_BLE_SDK/GD32VW55x_RELEASE_V1.0.2/MSDK/wpa_supplicant/src/ap\ap_config.h **** 	 *  - macsec_replay_protect is enabled
 830:C:/Users/stapi/OneDrive/Desktop/GD32VW553/V1_MQTT_OK/GD32VW55X_Wifi_BLE_SDK/GD32VW55x_RELEASE_V1.0.2/MSDK/wpa_supplicant/src/ap\ap_config.h **** 	 *  - the key server has decided to enable MACsec
 831:C:/Users/stapi/OneDrive/Desktop/GD32VW553/V1_MQTT_OK/GD32VW55X_Wifi_BLE_SDK/GD32VW55x_RELEASE_V1.0.2/MSDK/wpa_supplicant/src/ap\ap_config.h **** 	 *
 832:C:/Users/stapi/OneDrive/Desktop/GD32VW553/V1_MQTT_OK/GD32VW55X_Wifi_BLE_SDK/GD32VW55x_RELEASE_V1.0.2/MSDK/wpa_supplicant/src/ap\ap_config.h **** 	 * 0: No replay window, strict check (default)
 833:C:/Users/stapi/OneDrive/Desktop/GD32VW553/V1_MQTT_OK/GD32VW55X_Wifi_BLE_SDK/GD32VW55x_RELEASE_V1.0.2/MSDK/wpa_supplicant/src/ap\ap_config.h **** 	 * 1..2^32-1: number of packets that could be misordered
 834:C:/Users/stapi/OneDrive/Desktop/GD32VW553/V1_MQTT_OK/GD32VW55X_Wifi_BLE_SDK/GD32VW55x_RELEASE_V1.0.2/MSDK/wpa_supplicant/src/ap\ap_config.h **** 	 */
 835:C:/Users/stapi/OneDrive/Desktop/GD32VW553/V1_MQTT_OK/GD32VW55X_Wifi_BLE_SDK/GD32VW55x_RELEASE_V1.0.2/MSDK/wpa_supplicant/src/ap\ap_config.h **** 	u32 macsec_replay_window;
 836:C:/Users/stapi/OneDrive/Desktop/GD32VW553/V1_MQTT_OK/GD32VW55X_Wifi_BLE_SDK/GD32VW55x_RELEASE_V1.0.2/MSDK/wpa_supplicant/src/ap\ap_config.h **** 
 837:C:/Users/stapi/OneDrive/Desktop/GD32VW553/V1_MQTT_OK/GD32VW55X_Wifi_BLE_SDK/GD32VW55x_RELEASE_V1.0.2/MSDK/wpa_supplicant/src/ap\ap_config.h **** 	/**
 838:C:/Users/stapi/OneDrive/Desktop/GD32VW553/V1_MQTT_OK/GD32VW55X_Wifi_BLE_SDK/GD32VW55x_RELEASE_V1.0.2/MSDK/wpa_supplicant/src/ap\ap_config.h **** 	 * macsec_port - MACsec port (in SCI)
 839:C:/Users/stapi/OneDrive/Desktop/GD32VW553/V1_MQTT_OK/GD32VW55X_Wifi_BLE_SDK/GD32VW55x_RELEASE_V1.0.2/MSDK/wpa_supplicant/src/ap\ap_config.h **** 	 *
 840:C:/Users/stapi/OneDrive/Desktop/GD32VW553/V1_MQTT_OK/GD32VW55X_Wifi_BLE_SDK/GD32VW55x_RELEASE_V1.0.2/MSDK/wpa_supplicant/src/ap\ap_config.h **** 	 * Port component of the SCI.
 841:C:/Users/stapi/OneDrive/Desktop/GD32VW553/V1_MQTT_OK/GD32VW55X_Wifi_BLE_SDK/GD32VW55x_RELEASE_V1.0.2/MSDK/wpa_supplicant/src/ap\ap_config.h **** 	 *
 842:C:/Users/stapi/OneDrive/Desktop/GD32VW553/V1_MQTT_OK/GD32VW55X_Wifi_BLE_SDK/GD32VW55x_RELEASE_V1.0.2/MSDK/wpa_supplicant/src/ap\ap_config.h **** 	 * Range: 1-65534 (default: 1)
 843:C:/Users/stapi/OneDrive/Desktop/GD32VW553/V1_MQTT_OK/GD32VW55X_Wifi_BLE_SDK/GD32VW55x_RELEASE_V1.0.2/MSDK/wpa_supplicant/src/ap\ap_config.h **** 	 */
 844:C:/Users/stapi/OneDrive/Desktop/GD32VW553/V1_MQTT_OK/GD32VW55X_Wifi_BLE_SDK/GD32VW55x_RELEASE_V1.0.2/MSDK/wpa_supplicant/src/ap\ap_config.h **** 	int macsec_port;
 845:C:/Users/stapi/OneDrive/Desktop/GD32VW553/V1_MQTT_OK/GD32VW55X_Wifi_BLE_SDK/GD32VW55x_RELEASE_V1.0.2/MSDK/wpa_supplicant/src/ap\ap_config.h **** 
 846:C:/Users/stapi/OneDrive/Desktop/GD32VW553/V1_MQTT_OK/GD32VW55X_Wifi_BLE_SDK/GD32VW55x_RELEASE_V1.0.2/MSDK/wpa_supplicant/src/ap\ap_config.h **** 	/**
 847:C:/Users/stapi/OneDrive/Desktop/GD32VW553/V1_MQTT_OK/GD32VW55X_Wifi_BLE_SDK/GD32VW55x_RELEASE_V1.0.2/MSDK/wpa_supplicant/src/ap\ap_config.h **** 	 * mka_priority - Priority of MKA Actor
 848:C:/Users/stapi/OneDrive/Desktop/GD32VW553/V1_MQTT_OK/GD32VW55X_Wifi_BLE_SDK/GD32VW55x_RELEASE_V1.0.2/MSDK/wpa_supplicant/src/ap\ap_config.h **** 	 *
 849:C:/Users/stapi/OneDrive/Desktop/GD32VW553/V1_MQTT_OK/GD32VW55X_Wifi_BLE_SDK/GD32VW55x_RELEASE_V1.0.2/MSDK/wpa_supplicant/src/ap\ap_config.h **** 	 * Range: 0-255 (default: 255)
 850:C:/Users/stapi/OneDrive/Desktop/GD32VW553/V1_MQTT_OK/GD32VW55X_Wifi_BLE_SDK/GD32VW55x_RELEASE_V1.0.2/MSDK/wpa_supplicant/src/ap\ap_config.h **** 	 */
 851:C:/Users/stapi/OneDrive/Desktop/GD32VW553/V1_MQTT_OK/GD32VW55X_Wifi_BLE_SDK/GD32VW55x_RELEASE_V1.0.2/MSDK/wpa_supplicant/src/ap\ap_config.h **** 	int mka_priority;
 852:C:/Users/stapi/OneDrive/Desktop/GD32VW553/V1_MQTT_OK/GD32VW55X_Wifi_BLE_SDK/GD32VW55x_RELEASE_V1.0.2/MSDK/wpa_supplicant/src/ap\ap_config.h **** 
 853:C:/Users/stapi/OneDrive/Desktop/GD32VW553/V1_MQTT_OK/GD32VW55X_Wifi_BLE_SDK/GD32VW55x_RELEASE_V1.0.2/MSDK/wpa_supplicant/src/ap\ap_config.h **** 	/**
 854:C:/Users/stapi/OneDrive/Desktop/GD32VW553/V1_MQTT_OK/GD32VW55X_Wifi_BLE_SDK/GD32VW55x_RELEASE_V1.0.2/MSDK/wpa_supplicant/src/ap\ap_config.h **** 	 * mka_ckn - MKA pre-shared CKN
 855:C:/Users/stapi/OneDrive/Desktop/GD32VW553/V1_MQTT_OK/GD32VW55X_Wifi_BLE_SDK/GD32VW55x_RELEASE_V1.0.2/MSDK/wpa_supplicant/src/ap\ap_config.h **** 	 */
 856:C:/Users/stapi/OneDrive/Desktop/GD32VW553/V1_MQTT_OK/GD32VW55X_Wifi_BLE_SDK/GD32VW55x_RELEASE_V1.0.2/MSDK/wpa_supplicant/src/ap\ap_config.h **** #define MACSEC_CKN_MAX_LEN 32
 857:C:/Users/stapi/OneDrive/Desktop/GD32VW553/V1_MQTT_OK/GD32VW55X_Wifi_BLE_SDK/GD32VW55x_RELEASE_V1.0.2/MSDK/wpa_supplicant/src/ap\ap_config.h **** 	size_t mka_ckn_len;
 858:C:/Users/stapi/OneDrive/Desktop/GD32VW553/V1_MQTT_OK/GD32VW55X_Wifi_BLE_SDK/GD32VW55x_RELEASE_V1.0.2/MSDK/wpa_supplicant/src/ap\ap_config.h **** 	u8 mka_ckn[MACSEC_CKN_MAX_LEN];
 859:C:/Users/stapi/OneDrive/Desktop/GD32VW553/V1_MQTT_OK/GD32VW55X_Wifi_BLE_SDK/GD32VW55x_RELEASE_V1.0.2/MSDK/wpa_supplicant/src/ap\ap_config.h **** 
 860:C:/Users/stapi/OneDrive/Desktop/GD32VW553/V1_MQTT_OK/GD32VW55X_Wifi_BLE_SDK/GD32VW55x_RELEASE_V1.0.2/MSDK/wpa_supplicant/src/ap\ap_config.h **** 	/**
 861:C:/Users/stapi/OneDrive/Desktop/GD32VW553/V1_MQTT_OK/GD32VW55X_Wifi_BLE_SDK/GD32VW55x_RELEASE_V1.0.2/MSDK/wpa_supplicant/src/ap\ap_config.h **** 	 * mka_cak - MKA pre-shared CAK
 862:C:/Users/stapi/OneDrive/Desktop/GD32VW553/V1_MQTT_OK/GD32VW55X_Wifi_BLE_SDK/GD32VW55x_RELEASE_V1.0.2/MSDK/wpa_supplicant/src/ap\ap_config.h **** 	 */
 863:C:/Users/stapi/OneDrive/Desktop/GD32VW553/V1_MQTT_OK/GD32VW55X_Wifi_BLE_SDK/GD32VW55x_RELEASE_V1.0.2/MSDK/wpa_supplicant/src/ap\ap_config.h **** #define MACSEC_CAK_MAX_LEN 32
 864:C:/Users/stapi/OneDrive/Desktop/GD32VW553/V1_MQTT_OK/GD32VW55X_Wifi_BLE_SDK/GD32VW55x_RELEASE_V1.0.2/MSDK/wpa_supplicant/src/ap\ap_config.h **** 	size_t mka_cak_len;
 865:C:/Users/stapi/OneDrive/Desktop/GD32VW553/V1_MQTT_OK/GD32VW55X_Wifi_BLE_SDK/GD32VW55x_RELEASE_V1.0.2/MSDK/wpa_supplicant/src/ap\ap_config.h **** 	u8 mka_cak[MACSEC_CAK_MAX_LEN];
 866:C:/Users/stapi/OneDrive/Desktop/GD32VW553/V1_MQTT_OK/GD32VW55X_Wifi_BLE_SDK/GD32VW55x_RELEASE_V1.0.2/MSDK/wpa_supplicant/src/ap\ap_config.h **** 
 867:C:/Users/stapi/OneDrive/Desktop/GD32VW553/V1_MQTT_OK/GD32VW55X_Wifi_BLE_SDK/GD32VW55x_RELEASE_V1.0.2/MSDK/wpa_supplicant/src/ap\ap_config.h **** #define MKA_PSK_SET_CKN BIT(0)
 868:C:/Users/stapi/OneDrive/Desktop/GD32VW553/V1_MQTT_OK/GD32VW55X_Wifi_BLE_SDK/GD32VW55x_RELEASE_V1.0.2/MSDK/wpa_supplicant/src/ap\ap_config.h **** #define MKA_PSK_SET_CAK BIT(1)
 869:C:/Users/stapi/OneDrive/Desktop/GD32VW553/V1_MQTT_OK/GD32VW55X_Wifi_BLE_SDK/GD32VW55x_RELEASE_V1.0.2/MSDK/wpa_supplicant/src/ap\ap_config.h **** #define MKA_PSK_SET (MKA_PSK_SET_CKN | MKA_PSK_SET_CAK)
 870:C:/Users/stapi/OneDrive/Desktop/GD32VW553/V1_MQTT_OK/GD32VW55X_Wifi_BLE_SDK/GD32VW55x_RELEASE_V1.0.2/MSDK/wpa_supplicant/src/ap\ap_config.h **** 	/**
 871:C:/Users/stapi/OneDrive/Desktop/GD32VW553/V1_MQTT_OK/GD32VW55X_Wifi_BLE_SDK/GD32VW55x_RELEASE_V1.0.2/MSDK/wpa_supplicant/src/ap\ap_config.h **** 	 * mka_psk_set - Whether mka_ckn and mka_cak are set
 872:C:/Users/stapi/OneDrive/Desktop/GD32VW553/V1_MQTT_OK/GD32VW55X_Wifi_BLE_SDK/GD32VW55x_RELEASE_V1.0.2/MSDK/wpa_supplicant/src/ap\ap_config.h **** 	 */
 873:C:/Users/stapi/OneDrive/Desktop/GD32VW553/V1_MQTT_OK/GD32VW55X_Wifi_BLE_SDK/GD32VW55x_RELEASE_V1.0.2/MSDK/wpa_supplicant/src/ap\ap_config.h **** 	u8 mka_psk_set;
 874:C:/Users/stapi/OneDrive/Desktop/GD32VW553/V1_MQTT_OK/GD32VW55X_Wifi_BLE_SDK/GD32VW55x_RELEASE_V1.0.2/MSDK/wpa_supplicant/src/ap\ap_config.h **** #endif /* CONFIG_MACSEC */
 875:C:/Users/stapi/OneDrive/Desktop/GD32VW553/V1_MQTT_OK/GD32VW55X_Wifi_BLE_SDK/GD32VW55x_RELEASE_V1.0.2/MSDK/wpa_supplicant/src/ap\ap_config.h **** 
 876:C:/Users/stapi/OneDrive/Desktop/GD32VW553/V1_MQTT_OK/GD32VW55X_Wifi_BLE_SDK/GD32VW55x_RELEASE_V1.0.2/MSDK/wpa_supplicant/src/ap\ap_config.h **** #ifdef CONFIG_PASN
 877:C:/Users/stapi/OneDrive/Desktop/GD32VW553/V1_MQTT_OK/GD32VW55X_Wifi_BLE_SDK/GD32VW55x_RELEASE_V1.0.2/MSDK/wpa_supplicant/src/ap\ap_config.h **** #ifdef CONFIG_TESTING_OPTIONS
 878:C:/Users/stapi/OneDrive/Desktop/GD32VW553/V1_MQTT_OK/GD32VW55X_Wifi_BLE_SDK/GD32VW55x_RELEASE_V1.0.2/MSDK/wpa_supplicant/src/ap\ap_config.h **** 	/*
 879:C:/Users/stapi/OneDrive/Desktop/GD32VW553/V1_MQTT_OK/GD32VW55X_Wifi_BLE_SDK/GD32VW55x_RELEASE_V1.0.2/MSDK/wpa_supplicant/src/ap\ap_config.h **** 	 * Normally, KDK should be derived if and only if both sides support
 880:C:/Users/stapi/OneDrive/Desktop/GD32VW553/V1_MQTT_OK/GD32VW55X_Wifi_BLE_SDK/GD32VW55x_RELEASE_V1.0.2/MSDK/wpa_supplicant/src/ap\ap_config.h **** 	 * secure LTF. Allow forcing KDK derivation for testing purposes.
 881:C:/Users/stapi/OneDrive/Desktop/GD32VW553/V1_MQTT_OK/GD32VW55X_Wifi_BLE_SDK/GD32VW55x_RELEASE_V1.0.2/MSDK/wpa_supplicant/src/ap\ap_config.h **** 	 */
 882:C:/Users/stapi/OneDrive/Desktop/GD32VW553/V1_MQTT_OK/GD32VW55X_Wifi_BLE_SDK/GD32VW55x_RELEASE_V1.0.2/MSDK/wpa_supplicant/src/ap\ap_config.h **** 	int force_kdk_derivation;
 883:C:/Users/stapi/OneDrive/Desktop/GD32VW553/V1_MQTT_OK/GD32VW55X_Wifi_BLE_SDK/GD32VW55x_RELEASE_V1.0.2/MSDK/wpa_supplicant/src/ap\ap_config.h **** 
 884:C:/Users/stapi/OneDrive/Desktop/GD32VW553/V1_MQTT_OK/GD32VW55X_Wifi_BLE_SDK/GD32VW55x_RELEASE_V1.0.2/MSDK/wpa_supplicant/src/ap\ap_config.h **** 	/* If set, corrupt the MIC in the 2nd Authentication frame of PASN */
 885:C:/Users/stapi/OneDrive/Desktop/GD32VW553/V1_MQTT_OK/GD32VW55X_Wifi_BLE_SDK/GD32VW55x_RELEASE_V1.0.2/MSDK/wpa_supplicant/src/ap\ap_config.h **** 	int pasn_corrupt_mic;
 886:C:/Users/stapi/OneDrive/Desktop/GD32VW553/V1_MQTT_OK/GD32VW55X_Wifi_BLE_SDK/GD32VW55x_RELEASE_V1.0.2/MSDK/wpa_supplicant/src/ap\ap_config.h **** #endif /* CONFIG_TESTING_OPTIONS */
 887:C:/Users/stapi/OneDrive/Desktop/GD32VW553/V1_MQTT_OK/GD32VW55X_Wifi_BLE_SDK/GD32VW55x_RELEASE_V1.0.2/MSDK/wpa_supplicant/src/ap\ap_config.h **** 
 888:C:/Users/stapi/OneDrive/Desktop/GD32VW553/V1_MQTT_OK/GD32VW55X_Wifi_BLE_SDK/GD32VW55x_RELEASE_V1.0.2/MSDK/wpa_supplicant/src/ap\ap_config.h **** 	int *pasn_groups;
 889:C:/Users/stapi/OneDrive/Desktop/GD32VW553/V1_MQTT_OK/GD32VW55X_Wifi_BLE_SDK/GD32VW55x_RELEASE_V1.0.2/MSDK/wpa_supplicant/src/ap\ap_config.h **** 
 890:C:/Users/stapi/OneDrive/Desktop/GD32VW553/V1_MQTT_OK/GD32VW55X_Wifi_BLE_SDK/GD32VW55x_RELEASE_V1.0.2/MSDK/wpa_supplicant/src/ap\ap_config.h **** 	/*
 891:C:/Users/stapi/OneDrive/Desktop/GD32VW553/V1_MQTT_OK/GD32VW55X_Wifi_BLE_SDK/GD32VW55x_RELEASE_V1.0.2/MSDK/wpa_supplicant/src/ap\ap_config.h **** 	 * The time in TUs after which the non-AP STA is requested to retry the
 892:C:/Users/stapi/OneDrive/Desktop/GD32VW553/V1_MQTT_OK/GD32VW55X_Wifi_BLE_SDK/GD32VW55x_RELEASE_V1.0.2/MSDK/wpa_supplicant/src/ap\ap_config.h **** 	 * PASN authentication in case there are too many parallel operations.
 893:C:/Users/stapi/OneDrive/Desktop/GD32VW553/V1_MQTT_OK/GD32VW55X_Wifi_BLE_SDK/GD32VW55x_RELEASE_V1.0.2/MSDK/wpa_supplicant/src/ap\ap_config.h **** 	 */
 894:C:/Users/stapi/OneDrive/Desktop/GD32VW553/V1_MQTT_OK/GD32VW55X_Wifi_BLE_SDK/GD32VW55x_RELEASE_V1.0.2/MSDK/wpa_supplicant/src/ap\ap_config.h **** 	u16 pasn_comeback_after;
 895:C:/Users/stapi/OneDrive/Desktop/GD32VW553/V1_MQTT_OK/GD32VW55X_Wifi_BLE_SDK/GD32VW55x_RELEASE_V1.0.2/MSDK/wpa_supplicant/src/ap\ap_config.h **** #endif /* CONFIG_PASN */
 896:C:/Users/stapi/OneDrive/Desktop/GD32VW553/V1_MQTT_OK/GD32VW55X_Wifi_BLE_SDK/GD32VW55x_RELEASE_V1.0.2/MSDK/wpa_supplicant/src/ap\ap_config.h **** 
 897:C:/Users/stapi/OneDrive/Desktop/GD32VW553/V1_MQTT_OK/GD32VW55X_Wifi_BLE_SDK/GD32VW55x_RELEASE_V1.0.2/MSDK/wpa_supplicant/src/ap\ap_config.h **** 	unsigned int unsol_bcast_probe_resp_interval;
 898:C:/Users/stapi/OneDrive/Desktop/GD32VW553/V1_MQTT_OK/GD32VW55X_Wifi_BLE_SDK/GD32VW55x_RELEASE_V1.0.2/MSDK/wpa_supplicant/src/ap\ap_config.h **** 
 899:C:/Users/stapi/OneDrive/Desktop/GD32VW553/V1_MQTT_OK/GD32VW55X_Wifi_BLE_SDK/GD32VW55x_RELEASE_V1.0.2/MSDK/wpa_supplicant/src/ap\ap_config.h **** 	u8 ext_capa_mask[EXT_CAPA_MAX_LEN];
 900:C:/Users/stapi/OneDrive/Desktop/GD32VW553/V1_MQTT_OK/GD32VW55X_Wifi_BLE_SDK/GD32VW55x_RELEASE_V1.0.2/MSDK/wpa_supplicant/src/ap\ap_config.h **** 	u8 ext_capa[EXT_CAPA_MAX_LEN];
 901:C:/Users/stapi/OneDrive/Desktop/GD32VW553/V1_MQTT_OK/GD32VW55X_Wifi_BLE_SDK/GD32VW55x_RELEASE_V1.0.2/MSDK/wpa_supplicant/src/ap\ap_config.h **** 
 902:C:/Users/stapi/OneDrive/Desktop/GD32VW553/V1_MQTT_OK/GD32VW55X_Wifi_BLE_SDK/GD32VW55x_RELEASE_V1.0.2/MSDK/wpa_supplicant/src/ap\ap_config.h **** 	u8 rnr;
 903:C:/Users/stapi/OneDrive/Desktop/GD32VW553/V1_MQTT_OK/GD32VW55X_Wifi_BLE_SDK/GD32VW55x_RELEASE_V1.0.2/MSDK/wpa_supplicant/src/ap\ap_config.h **** };
 904:C:/Users/stapi/OneDrive/Desktop/GD32VW553/V1_MQTT_OK/GD32VW55X_Wifi_BLE_SDK/GD32VW55x_RELEASE_V1.0.2/MSDK/wpa_supplicant/src/ap\ap_config.h **** 
 905:C:/Users/stapi/OneDrive/Desktop/GD32VW553/V1_MQTT_OK/GD32VW55X_Wifi_BLE_SDK/GD32VW55x_RELEASE_V1.0.2/MSDK/wpa_supplicant/src/ap\ap_config.h **** /**
 906:C:/Users/stapi/OneDrive/Desktop/GD32VW553/V1_MQTT_OK/GD32VW55X_Wifi_BLE_SDK/GD32VW55x_RELEASE_V1.0.2/MSDK/wpa_supplicant/src/ap\ap_config.h ****  * struct he_phy_capabilities_info - HE PHY capabilities
 907:C:/Users/stapi/OneDrive/Desktop/GD32VW553/V1_MQTT_OK/GD32VW55X_Wifi_BLE_SDK/GD32VW55x_RELEASE_V1.0.2/MSDK/wpa_supplicant/src/ap\ap_config.h ****  */
 908:C:/Users/stapi/OneDrive/Desktop/GD32VW553/V1_MQTT_OK/GD32VW55X_Wifi_BLE_SDK/GD32VW55x_RELEASE_V1.0.2/MSDK/wpa_supplicant/src/ap\ap_config.h **** struct he_phy_capabilities_info {
 909:C:/Users/stapi/OneDrive/Desktop/GD32VW553/V1_MQTT_OK/GD32VW55X_Wifi_BLE_SDK/GD32VW55x_RELEASE_V1.0.2/MSDK/wpa_supplicant/src/ap\ap_config.h **** 	bool he_su_beamformer;
 910:C:/Users/stapi/OneDrive/Desktop/GD32VW553/V1_MQTT_OK/GD32VW55X_Wifi_BLE_SDK/GD32VW55x_RELEASE_V1.0.2/MSDK/wpa_supplicant/src/ap\ap_config.h **** 	bool he_su_beamformee;
 911:C:/Users/stapi/OneDrive/Desktop/GD32VW553/V1_MQTT_OK/GD32VW55X_Wifi_BLE_SDK/GD32VW55x_RELEASE_V1.0.2/MSDK/wpa_supplicant/src/ap\ap_config.h **** 	bool he_mu_beamformer;
 912:C:/Users/stapi/OneDrive/Desktop/GD32VW553/V1_MQTT_OK/GD32VW55X_Wifi_BLE_SDK/GD32VW55x_RELEASE_V1.0.2/MSDK/wpa_supplicant/src/ap\ap_config.h **** };
 913:C:/Users/stapi/OneDrive/Desktop/GD32VW553/V1_MQTT_OK/GD32VW55X_Wifi_BLE_SDK/GD32VW55x_RELEASE_V1.0.2/MSDK/wpa_supplicant/src/ap\ap_config.h **** 
 914:C:/Users/stapi/OneDrive/Desktop/GD32VW553/V1_MQTT_OK/GD32VW55X_Wifi_BLE_SDK/GD32VW55x_RELEASE_V1.0.2/MSDK/wpa_supplicant/src/ap\ap_config.h **** /**
 915:C:/Users/stapi/OneDrive/Desktop/GD32VW553/V1_MQTT_OK/GD32VW55X_Wifi_BLE_SDK/GD32VW55x_RELEASE_V1.0.2/MSDK/wpa_supplicant/src/ap\ap_config.h ****  * struct he_operation - HE operation
 916:C:/Users/stapi/OneDrive/Desktop/GD32VW553/V1_MQTT_OK/GD32VW55X_Wifi_BLE_SDK/GD32VW55x_RELEASE_V1.0.2/MSDK/wpa_supplicant/src/ap\ap_config.h ****  */
 917:C:/Users/stapi/OneDrive/Desktop/GD32VW553/V1_MQTT_OK/GD32VW55X_Wifi_BLE_SDK/GD32VW55x_RELEASE_V1.0.2/MSDK/wpa_supplicant/src/ap\ap_config.h **** struct he_operation {
 918:C:/Users/stapi/OneDrive/Desktop/GD32VW553/V1_MQTT_OK/GD32VW55X_Wifi_BLE_SDK/GD32VW55x_RELEASE_V1.0.2/MSDK/wpa_supplicant/src/ap\ap_config.h **** 	u8 he_bss_color;
 919:C:/Users/stapi/OneDrive/Desktop/GD32VW553/V1_MQTT_OK/GD32VW55X_Wifi_BLE_SDK/GD32VW55x_RELEASE_V1.0.2/MSDK/wpa_supplicant/src/ap\ap_config.h **** 	u8 he_bss_color_disabled;
 920:C:/Users/stapi/OneDrive/Desktop/GD32VW553/V1_MQTT_OK/GD32VW55X_Wifi_BLE_SDK/GD32VW55x_RELEASE_V1.0.2/MSDK/wpa_supplicant/src/ap\ap_config.h **** 	u8 he_bss_color_partial;
 921:C:/Users/stapi/OneDrive/Desktop/GD32VW553/V1_MQTT_OK/GD32VW55X_Wifi_BLE_SDK/GD32VW55x_RELEASE_V1.0.2/MSDK/wpa_supplicant/src/ap\ap_config.h **** 	u8 he_default_pe_duration;
 922:C:/Users/stapi/OneDrive/Desktop/GD32VW553/V1_MQTT_OK/GD32VW55X_Wifi_BLE_SDK/GD32VW55x_RELEASE_V1.0.2/MSDK/wpa_supplicant/src/ap\ap_config.h **** 	u8 he_twt_required;
 923:C:/Users/stapi/OneDrive/Desktop/GD32VW553/V1_MQTT_OK/GD32VW55X_Wifi_BLE_SDK/GD32VW55x_RELEASE_V1.0.2/MSDK/wpa_supplicant/src/ap\ap_config.h **** 	u8 he_twt_responder;
 924:C:/Users/stapi/OneDrive/Desktop/GD32VW553/V1_MQTT_OK/GD32VW55X_Wifi_BLE_SDK/GD32VW55x_RELEASE_V1.0.2/MSDK/wpa_supplicant/src/ap\ap_config.h **** 	u16 he_rts_threshold;
 925:C:/Users/stapi/OneDrive/Desktop/GD32VW553/V1_MQTT_OK/GD32VW55X_Wifi_BLE_SDK/GD32VW55x_RELEASE_V1.0.2/MSDK/wpa_supplicant/src/ap\ap_config.h **** 	u8 he_er_su_disable;
 926:C:/Users/stapi/OneDrive/Desktop/GD32VW553/V1_MQTT_OK/GD32VW55X_Wifi_BLE_SDK/GD32VW55x_RELEASE_V1.0.2/MSDK/wpa_supplicant/src/ap\ap_config.h **** 	u16 he_basic_mcs_nss_set;
 927:C:/Users/stapi/OneDrive/Desktop/GD32VW553/V1_MQTT_OK/GD32VW55X_Wifi_BLE_SDK/GD32VW55x_RELEASE_V1.0.2/MSDK/wpa_supplicant/src/ap\ap_config.h **** };
 928:C:/Users/stapi/OneDrive/Desktop/GD32VW553/V1_MQTT_OK/GD32VW55X_Wifi_BLE_SDK/GD32VW55x_RELEASE_V1.0.2/MSDK/wpa_supplicant/src/ap\ap_config.h **** 
 929:C:/Users/stapi/OneDrive/Desktop/GD32VW553/V1_MQTT_OK/GD32VW55X_Wifi_BLE_SDK/GD32VW55x_RELEASE_V1.0.2/MSDK/wpa_supplicant/src/ap\ap_config.h **** /**
 930:C:/Users/stapi/OneDrive/Desktop/GD32VW553/V1_MQTT_OK/GD32VW55X_Wifi_BLE_SDK/GD32VW55x_RELEASE_V1.0.2/MSDK/wpa_supplicant/src/ap\ap_config.h ****  * struct spatial_reuse - Spatial reuse
 931:C:/Users/stapi/OneDrive/Desktop/GD32VW553/V1_MQTT_OK/GD32VW55X_Wifi_BLE_SDK/GD32VW55x_RELEASE_V1.0.2/MSDK/wpa_supplicant/src/ap\ap_config.h ****  */
 932:C:/Users/stapi/OneDrive/Desktop/GD32VW553/V1_MQTT_OK/GD32VW55X_Wifi_BLE_SDK/GD32VW55x_RELEASE_V1.0.2/MSDK/wpa_supplicant/src/ap\ap_config.h **** struct spatial_reuse {
 933:C:/Users/stapi/OneDrive/Desktop/GD32VW553/V1_MQTT_OK/GD32VW55X_Wifi_BLE_SDK/GD32VW55x_RELEASE_V1.0.2/MSDK/wpa_supplicant/src/ap\ap_config.h **** 	u8 sr_control;
 934:C:/Users/stapi/OneDrive/Desktop/GD32VW553/V1_MQTT_OK/GD32VW55X_Wifi_BLE_SDK/GD32VW55x_RELEASE_V1.0.2/MSDK/wpa_supplicant/src/ap\ap_config.h **** 	u8 non_srg_obss_pd_max_offset;
 935:C:/Users/stapi/OneDrive/Desktop/GD32VW553/V1_MQTT_OK/GD32VW55X_Wifi_BLE_SDK/GD32VW55x_RELEASE_V1.0.2/MSDK/wpa_supplicant/src/ap\ap_config.h **** 	u8 srg_obss_pd_min_offset;
 936:C:/Users/stapi/OneDrive/Desktop/GD32VW553/V1_MQTT_OK/GD32VW55X_Wifi_BLE_SDK/GD32VW55x_RELEASE_V1.0.2/MSDK/wpa_supplicant/src/ap\ap_config.h **** 	u8 srg_obss_pd_max_offset;
 937:C:/Users/stapi/OneDrive/Desktop/GD32VW553/V1_MQTT_OK/GD32VW55X_Wifi_BLE_SDK/GD32VW55x_RELEASE_V1.0.2/MSDK/wpa_supplicant/src/ap\ap_config.h **** 	u8 srg_bss_color_bitmap[8];
 938:C:/Users/stapi/OneDrive/Desktop/GD32VW553/V1_MQTT_OK/GD32VW55X_Wifi_BLE_SDK/GD32VW55x_RELEASE_V1.0.2/MSDK/wpa_supplicant/src/ap\ap_config.h **** 	u8 srg_partial_bssid_bitmap[8];
 939:C:/Users/stapi/OneDrive/Desktop/GD32VW553/V1_MQTT_OK/GD32VW55X_Wifi_BLE_SDK/GD32VW55x_RELEASE_V1.0.2/MSDK/wpa_supplicant/src/ap\ap_config.h **** };
 940:C:/Users/stapi/OneDrive/Desktop/GD32VW553/V1_MQTT_OK/GD32VW55X_Wifi_BLE_SDK/GD32VW55x_RELEASE_V1.0.2/MSDK/wpa_supplicant/src/ap\ap_config.h **** 
 941:C:/Users/stapi/OneDrive/Desktop/GD32VW553/V1_MQTT_OK/GD32VW55X_Wifi_BLE_SDK/GD32VW55x_RELEASE_V1.0.2/MSDK/wpa_supplicant/src/ap\ap_config.h **** /**
 942:C:/Users/stapi/OneDrive/Desktop/GD32VW553/V1_MQTT_OK/GD32VW55X_Wifi_BLE_SDK/GD32VW55x_RELEASE_V1.0.2/MSDK/wpa_supplicant/src/ap\ap_config.h ****  * struct hostapd_config - Per-radio interface configuration
 943:C:/Users/stapi/OneDrive/Desktop/GD32VW553/V1_MQTT_OK/GD32VW55X_Wifi_BLE_SDK/GD32VW55x_RELEASE_V1.0.2/MSDK/wpa_supplicant/src/ap\ap_config.h ****  */
 944:C:/Users/stapi/OneDrive/Desktop/GD32VW553/V1_MQTT_OK/GD32VW55X_Wifi_BLE_SDK/GD32VW55x_RELEASE_V1.0.2/MSDK/wpa_supplicant/src/ap\ap_config.h **** struct hostapd_config {
 945:C:/Users/stapi/OneDrive/Desktop/GD32VW553/V1_MQTT_OK/GD32VW55X_Wifi_BLE_SDK/GD32VW55x_RELEASE_V1.0.2/MSDK/wpa_supplicant/src/ap\ap_config.h **** 	struct hostapd_bss_config **bss, *last_bss;
 946:C:/Users/stapi/OneDrive/Desktop/GD32VW553/V1_MQTT_OK/GD32VW55X_Wifi_BLE_SDK/GD32VW55x_RELEASE_V1.0.2/MSDK/wpa_supplicant/src/ap\ap_config.h **** 	size_t num_bss;
 947:C:/Users/stapi/OneDrive/Desktop/GD32VW553/V1_MQTT_OK/GD32VW55X_Wifi_BLE_SDK/GD32VW55x_RELEASE_V1.0.2/MSDK/wpa_supplicant/src/ap\ap_config.h **** 
 948:C:/Users/stapi/OneDrive/Desktop/GD32VW553/V1_MQTT_OK/GD32VW55X_Wifi_BLE_SDK/GD32VW55x_RELEASE_V1.0.2/MSDK/wpa_supplicant/src/ap\ap_config.h **** 	u16 beacon_int;
 949:C:/Users/stapi/OneDrive/Desktop/GD32VW553/V1_MQTT_OK/GD32VW55X_Wifi_BLE_SDK/GD32VW55x_RELEASE_V1.0.2/MSDK/wpa_supplicant/src/ap\ap_config.h **** 	int rts_threshold;
 950:C:/Users/stapi/OneDrive/Desktop/GD32VW553/V1_MQTT_OK/GD32VW55X_Wifi_BLE_SDK/GD32VW55x_RELEASE_V1.0.2/MSDK/wpa_supplicant/src/ap\ap_config.h **** 	int fragm_threshold;
 951:C:/Users/stapi/OneDrive/Desktop/GD32VW553/V1_MQTT_OK/GD32VW55X_Wifi_BLE_SDK/GD32VW55x_RELEASE_V1.0.2/MSDK/wpa_supplicant/src/ap\ap_config.h **** 	u8 op_class;
 952:C:/Users/stapi/OneDrive/Desktop/GD32VW553/V1_MQTT_OK/GD32VW55X_Wifi_BLE_SDK/GD32VW55x_RELEASE_V1.0.2/MSDK/wpa_supplicant/src/ap\ap_config.h **** 	u8 channel;
 953:C:/Users/stapi/OneDrive/Desktop/GD32VW553/V1_MQTT_OK/GD32VW55X_Wifi_BLE_SDK/GD32VW55x_RELEASE_V1.0.2/MSDK/wpa_supplicant/src/ap\ap_config.h **** 	int enable_edmg;
 954:C:/Users/stapi/OneDrive/Desktop/GD32VW553/V1_MQTT_OK/GD32VW55X_Wifi_BLE_SDK/GD32VW55x_RELEASE_V1.0.2/MSDK/wpa_supplicant/src/ap\ap_config.h **** 	u8 edmg_channel;
 955:C:/Users/stapi/OneDrive/Desktop/GD32VW553/V1_MQTT_OK/GD32VW55X_Wifi_BLE_SDK/GD32VW55x_RELEASE_V1.0.2/MSDK/wpa_supplicant/src/ap\ap_config.h **** 	u8 acs;
 956:C:/Users/stapi/OneDrive/Desktop/GD32VW553/V1_MQTT_OK/GD32VW55X_Wifi_BLE_SDK/GD32VW55x_RELEASE_V1.0.2/MSDK/wpa_supplicant/src/ap\ap_config.h **** 	struct wpa_freq_range_list acs_ch_list;
 957:C:/Users/stapi/OneDrive/Desktop/GD32VW553/V1_MQTT_OK/GD32VW55X_Wifi_BLE_SDK/GD32VW55x_RELEASE_V1.0.2/MSDK/wpa_supplicant/src/ap\ap_config.h **** 	struct wpa_freq_range_list acs_freq_list;
 958:C:/Users/stapi/OneDrive/Desktop/GD32VW553/V1_MQTT_OK/GD32VW55X_Wifi_BLE_SDK/GD32VW55x_RELEASE_V1.0.2/MSDK/wpa_supplicant/src/ap\ap_config.h **** 	u8 acs_freq_list_present;
 959:C:/Users/stapi/OneDrive/Desktop/GD32VW553/V1_MQTT_OK/GD32VW55X_Wifi_BLE_SDK/GD32VW55x_RELEASE_V1.0.2/MSDK/wpa_supplicant/src/ap\ap_config.h **** 	int acs_exclude_dfs;
 960:C:/Users/stapi/OneDrive/Desktop/GD32VW553/V1_MQTT_OK/GD32VW55X_Wifi_BLE_SDK/GD32VW55x_RELEASE_V1.0.2/MSDK/wpa_supplicant/src/ap\ap_config.h **** 	u8 min_tx_power;
 961:C:/Users/stapi/OneDrive/Desktop/GD32VW553/V1_MQTT_OK/GD32VW55X_Wifi_BLE_SDK/GD32VW55x_RELEASE_V1.0.2/MSDK/wpa_supplicant/src/ap\ap_config.h **** 	enum hostapd_hw_mode hw_mode; /* HOSTAPD_MODE_IEEE80211A, .. */
 962:C:/Users/stapi/OneDrive/Desktop/GD32VW553/V1_MQTT_OK/GD32VW55X_Wifi_BLE_SDK/GD32VW55x_RELEASE_V1.0.2/MSDK/wpa_supplicant/src/ap\ap_config.h **** 	int acs_exclude_6ghz_non_psc;
 963:C:/Users/stapi/OneDrive/Desktop/GD32VW553/V1_MQTT_OK/GD32VW55X_Wifi_BLE_SDK/GD32VW55x_RELEASE_V1.0.2/MSDK/wpa_supplicant/src/ap\ap_config.h **** 	enum {
 964:C:/Users/stapi/OneDrive/Desktop/GD32VW553/V1_MQTT_OK/GD32VW55X_Wifi_BLE_SDK/GD32VW55x_RELEASE_V1.0.2/MSDK/wpa_supplicant/src/ap\ap_config.h **** 		LONG_PREAMBLE = 0,
 965:C:/Users/stapi/OneDrive/Desktop/GD32VW553/V1_MQTT_OK/GD32VW55X_Wifi_BLE_SDK/GD32VW55x_RELEASE_V1.0.2/MSDK/wpa_supplicant/src/ap\ap_config.h **** 		SHORT_PREAMBLE = 1
 966:C:/Users/stapi/OneDrive/Desktop/GD32VW553/V1_MQTT_OK/GD32VW55X_Wifi_BLE_SDK/GD32VW55x_RELEASE_V1.0.2/MSDK/wpa_supplicant/src/ap\ap_config.h **** 	} preamble;
 967:C:/Users/stapi/OneDrive/Desktop/GD32VW553/V1_MQTT_OK/GD32VW55X_Wifi_BLE_SDK/GD32VW55x_RELEASE_V1.0.2/MSDK/wpa_supplicant/src/ap\ap_config.h **** 
 968:C:/Users/stapi/OneDrive/Desktop/GD32VW553/V1_MQTT_OK/GD32VW55X_Wifi_BLE_SDK/GD32VW55x_RELEASE_V1.0.2/MSDK/wpa_supplicant/src/ap\ap_config.h **** 	int *supported_rates;
 969:C:/Users/stapi/OneDrive/Desktop/GD32VW553/V1_MQTT_OK/GD32VW55X_Wifi_BLE_SDK/GD32VW55x_RELEASE_V1.0.2/MSDK/wpa_supplicant/src/ap\ap_config.h **** 	int *basic_rates;
 970:C:/Users/stapi/OneDrive/Desktop/GD32VW553/V1_MQTT_OK/GD32VW55X_Wifi_BLE_SDK/GD32VW55x_RELEASE_V1.0.2/MSDK/wpa_supplicant/src/ap\ap_config.h **** 	unsigned int beacon_rate;
 971:C:/Users/stapi/OneDrive/Desktop/GD32VW553/V1_MQTT_OK/GD32VW55X_Wifi_BLE_SDK/GD32VW55x_RELEASE_V1.0.2/MSDK/wpa_supplicant/src/ap\ap_config.h **** 	enum beacon_rate_type rate_type;
 972:C:/Users/stapi/OneDrive/Desktop/GD32VW553/V1_MQTT_OK/GD32VW55X_Wifi_BLE_SDK/GD32VW55x_RELEASE_V1.0.2/MSDK/wpa_supplicant/src/ap\ap_config.h **** 
 973:C:/Users/stapi/OneDrive/Desktop/GD32VW553/V1_MQTT_OK/GD32VW55X_Wifi_BLE_SDK/GD32VW55x_RELEASE_V1.0.2/MSDK/wpa_supplicant/src/ap\ap_config.h **** 	const struct wpa_driver_ops *driver;
 974:C:/Users/stapi/OneDrive/Desktop/GD32VW553/V1_MQTT_OK/GD32VW55X_Wifi_BLE_SDK/GD32VW55x_RELEASE_V1.0.2/MSDK/wpa_supplicant/src/ap\ap_config.h **** 	char *driver_params;
 975:C:/Users/stapi/OneDrive/Desktop/GD32VW553/V1_MQTT_OK/GD32VW55X_Wifi_BLE_SDK/GD32VW55x_RELEASE_V1.0.2/MSDK/wpa_supplicant/src/ap\ap_config.h **** 
 976:C:/Users/stapi/OneDrive/Desktop/GD32VW553/V1_MQTT_OK/GD32VW55X_Wifi_BLE_SDK/GD32VW55x_RELEASE_V1.0.2/MSDK/wpa_supplicant/src/ap\ap_config.h **** 	int ap_table_max_size;
 977:C:/Users/stapi/OneDrive/Desktop/GD32VW553/V1_MQTT_OK/GD32VW55X_Wifi_BLE_SDK/GD32VW55x_RELEASE_V1.0.2/MSDK/wpa_supplicant/src/ap\ap_config.h **** 	int ap_table_expiration_time;
 978:C:/Users/stapi/OneDrive/Desktop/GD32VW553/V1_MQTT_OK/GD32VW55X_Wifi_BLE_SDK/GD32VW55x_RELEASE_V1.0.2/MSDK/wpa_supplicant/src/ap\ap_config.h **** 
 979:C:/Users/stapi/OneDrive/Desktop/GD32VW553/V1_MQTT_OK/GD32VW55X_Wifi_BLE_SDK/GD32VW55x_RELEASE_V1.0.2/MSDK/wpa_supplicant/src/ap\ap_config.h **** 	unsigned int track_sta_max_num;
 980:C:/Users/stapi/OneDrive/Desktop/GD32VW553/V1_MQTT_OK/GD32VW55X_Wifi_BLE_SDK/GD32VW55x_RELEASE_V1.0.2/MSDK/wpa_supplicant/src/ap\ap_config.h **** 	unsigned int track_sta_max_age;
 981:C:/Users/stapi/OneDrive/Desktop/GD32VW553/V1_MQTT_OK/GD32VW55X_Wifi_BLE_SDK/GD32VW55x_RELEASE_V1.0.2/MSDK/wpa_supplicant/src/ap\ap_config.h **** 
 982:C:/Users/stapi/OneDrive/Desktop/GD32VW553/V1_MQTT_OK/GD32VW55X_Wifi_BLE_SDK/GD32VW55x_RELEASE_V1.0.2/MSDK/wpa_supplicant/src/ap\ap_config.h **** 	char country[3]; /* first two octets: country code as described in
 983:C:/Users/stapi/OneDrive/Desktop/GD32VW553/V1_MQTT_OK/GD32VW55X_Wifi_BLE_SDK/GD32VW55x_RELEASE_V1.0.2/MSDK/wpa_supplicant/src/ap\ap_config.h **** 			  * ISO/IEC 3166-1. Third octet:
 984:C:/Users/stapi/OneDrive/Desktop/GD32VW553/V1_MQTT_OK/GD32VW55X_Wifi_BLE_SDK/GD32VW55x_RELEASE_V1.0.2/MSDK/wpa_supplicant/src/ap\ap_config.h **** 			  * ' ' (ascii 32): all environments
 985:C:/Users/stapi/OneDrive/Desktop/GD32VW553/V1_MQTT_OK/GD32VW55X_Wifi_BLE_SDK/GD32VW55x_RELEASE_V1.0.2/MSDK/wpa_supplicant/src/ap\ap_config.h **** 			  * 'O': Outdoor environemnt only
 986:C:/Users/stapi/OneDrive/Desktop/GD32VW553/V1_MQTT_OK/GD32VW55X_Wifi_BLE_SDK/GD32VW55x_RELEASE_V1.0.2/MSDK/wpa_supplicant/src/ap\ap_config.h **** 			  * 'I': Indoor environment only
 987:C:/Users/stapi/OneDrive/Desktop/GD32VW553/V1_MQTT_OK/GD32VW55X_Wifi_BLE_SDK/GD32VW55x_RELEASE_V1.0.2/MSDK/wpa_supplicant/src/ap\ap_config.h **** 			  * 'X': Used with noncountry entity ("XXX")
 988:C:/Users/stapi/OneDrive/Desktop/GD32VW553/V1_MQTT_OK/GD32VW55X_Wifi_BLE_SDK/GD32VW55x_RELEASE_V1.0.2/MSDK/wpa_supplicant/src/ap\ap_config.h **** 			  * 0x00..0x31: identifying IEEE 802.11 standard
 989:C:/Users/stapi/OneDrive/Desktop/GD32VW553/V1_MQTT_OK/GD32VW55X_Wifi_BLE_SDK/GD32VW55x_RELEASE_V1.0.2/MSDK/wpa_supplicant/src/ap\ap_config.h **** 			  *	Annex E table (0x04 = global table)
 990:C:/Users/stapi/OneDrive/Desktop/GD32VW553/V1_MQTT_OK/GD32VW55X_Wifi_BLE_SDK/GD32VW55x_RELEASE_V1.0.2/MSDK/wpa_supplicant/src/ap\ap_config.h **** 			  */
 991:C:/Users/stapi/OneDrive/Desktop/GD32VW553/V1_MQTT_OK/GD32VW55X_Wifi_BLE_SDK/GD32VW55x_RELEASE_V1.0.2/MSDK/wpa_supplicant/src/ap\ap_config.h **** 
 992:C:/Users/stapi/OneDrive/Desktop/GD32VW553/V1_MQTT_OK/GD32VW55X_Wifi_BLE_SDK/GD32VW55x_RELEASE_V1.0.2/MSDK/wpa_supplicant/src/ap\ap_config.h **** 	int ieee80211d;
 993:C:/Users/stapi/OneDrive/Desktop/GD32VW553/V1_MQTT_OK/GD32VW55X_Wifi_BLE_SDK/GD32VW55x_RELEASE_V1.0.2/MSDK/wpa_supplicant/src/ap\ap_config.h **** 
 994:C:/Users/stapi/OneDrive/Desktop/GD32VW553/V1_MQTT_OK/GD32VW55X_Wifi_BLE_SDK/GD32VW55x_RELEASE_V1.0.2/MSDK/wpa_supplicant/src/ap\ap_config.h **** 	int ieee80211h; /* DFS */
 995:C:/Users/stapi/OneDrive/Desktop/GD32VW553/V1_MQTT_OK/GD32VW55X_Wifi_BLE_SDK/GD32VW55x_RELEASE_V1.0.2/MSDK/wpa_supplicant/src/ap\ap_config.h **** 
 996:C:/Users/stapi/OneDrive/Desktop/GD32VW553/V1_MQTT_OK/GD32VW55X_Wifi_BLE_SDK/GD32VW55x_RELEASE_V1.0.2/MSDK/wpa_supplicant/src/ap\ap_config.h **** 	/*
 997:C:/Users/stapi/OneDrive/Desktop/GD32VW553/V1_MQTT_OK/GD32VW55X_Wifi_BLE_SDK/GD32VW55x_RELEASE_V1.0.2/MSDK/wpa_supplicant/src/ap\ap_config.h **** 	 * Local power constraint is an octet encoded as an unsigned integer in
 998:C:/Users/stapi/OneDrive/Desktop/GD32VW553/V1_MQTT_OK/GD32VW55X_Wifi_BLE_SDK/GD32VW55x_RELEASE_V1.0.2/MSDK/wpa_supplicant/src/ap\ap_config.h **** 	 * units of decibels. Invalid value -1 indicates that Power Constraint
 999:C:/Users/stapi/OneDrive/Desktop/GD32VW553/V1_MQTT_OK/GD32VW55X_Wifi_BLE_SDK/GD32VW55x_RELEASE_V1.0.2/MSDK/wpa_supplicant/src/ap\ap_config.h **** 	 * element will not be added.
1000:C:/Users/stapi/OneDrive/Desktop/GD32VW553/V1_MQTT_OK/GD32VW55X_Wifi_BLE_SDK/GD32VW55x_RELEASE_V1.0.2/MSDK/wpa_supplicant/src/ap\ap_config.h **** 	 */
1001:C:/Users/stapi/OneDrive/Desktop/GD32VW553/V1_MQTT_OK/GD32VW55X_Wifi_BLE_SDK/GD32VW55x_RELEASE_V1.0.2/MSDK/wpa_supplicant/src/ap\ap_config.h **** 	int local_pwr_constraint;
1002:C:/Users/stapi/OneDrive/Desktop/GD32VW553/V1_MQTT_OK/GD32VW55X_Wifi_BLE_SDK/GD32VW55x_RELEASE_V1.0.2/MSDK/wpa_supplicant/src/ap\ap_config.h **** 
1003:C:/Users/stapi/OneDrive/Desktop/GD32VW553/V1_MQTT_OK/GD32VW55X_Wifi_BLE_SDK/GD32VW55x_RELEASE_V1.0.2/MSDK/wpa_supplicant/src/ap\ap_config.h **** 	/* Control Spectrum Management bit */
1004:C:/Users/stapi/OneDrive/Desktop/GD32VW553/V1_MQTT_OK/GD32VW55X_Wifi_BLE_SDK/GD32VW55x_RELEASE_V1.0.2/MSDK/wpa_supplicant/src/ap\ap_config.h **** 	int spectrum_mgmt_required;
1005:C:/Users/stapi/OneDrive/Desktop/GD32VW553/V1_MQTT_OK/GD32VW55X_Wifi_BLE_SDK/GD32VW55x_RELEASE_V1.0.2/MSDK/wpa_supplicant/src/ap\ap_config.h **** 
1006:C:/Users/stapi/OneDrive/Desktop/GD32VW553/V1_MQTT_OK/GD32VW55X_Wifi_BLE_SDK/GD32VW55x_RELEASE_V1.0.2/MSDK/wpa_supplicant/src/ap\ap_config.h **** 	struct hostapd_tx_queue_params tx_queue[NUM_TX_QUEUES];
1007:C:/Users/stapi/OneDrive/Desktop/GD32VW553/V1_MQTT_OK/GD32VW55X_Wifi_BLE_SDK/GD32VW55x_RELEASE_V1.0.2/MSDK/wpa_supplicant/src/ap\ap_config.h **** 
1008:C:/Users/stapi/OneDrive/Desktop/GD32VW553/V1_MQTT_OK/GD32VW55X_Wifi_BLE_SDK/GD32VW55x_RELEASE_V1.0.2/MSDK/wpa_supplicant/src/ap\ap_config.h **** 	/*
1009:C:/Users/stapi/OneDrive/Desktop/GD32VW553/V1_MQTT_OK/GD32VW55X_Wifi_BLE_SDK/GD32VW55x_RELEASE_V1.0.2/MSDK/wpa_supplicant/src/ap\ap_config.h **** 	 * WMM AC parameters, in same order as 802.1D, i.e.
1010:C:/Users/stapi/OneDrive/Desktop/GD32VW553/V1_MQTT_OK/GD32VW55X_Wifi_BLE_SDK/GD32VW55x_RELEASE_V1.0.2/MSDK/wpa_supplicant/src/ap\ap_config.h **** 	 * 0 = BE (best effort)
1011:C:/Users/stapi/OneDrive/Desktop/GD32VW553/V1_MQTT_OK/GD32VW55X_Wifi_BLE_SDK/GD32VW55x_RELEASE_V1.0.2/MSDK/wpa_supplicant/src/ap\ap_config.h **** 	 * 1 = BK (background)
1012:C:/Users/stapi/OneDrive/Desktop/GD32VW553/V1_MQTT_OK/GD32VW55X_Wifi_BLE_SDK/GD32VW55x_RELEASE_V1.0.2/MSDK/wpa_supplicant/src/ap\ap_config.h **** 	 * 2 = VI (video)
1013:C:/Users/stapi/OneDrive/Desktop/GD32VW553/V1_MQTT_OK/GD32VW55X_Wifi_BLE_SDK/GD32VW55x_RELEASE_V1.0.2/MSDK/wpa_supplicant/src/ap\ap_config.h **** 	 * 3 = VO (voice)
1014:C:/Users/stapi/OneDrive/Desktop/GD32VW553/V1_MQTT_OK/GD32VW55X_Wifi_BLE_SDK/GD32VW55x_RELEASE_V1.0.2/MSDK/wpa_supplicant/src/ap\ap_config.h **** 	 */
1015:C:/Users/stapi/OneDrive/Desktop/GD32VW553/V1_MQTT_OK/GD32VW55X_Wifi_BLE_SDK/GD32VW55x_RELEASE_V1.0.2/MSDK/wpa_supplicant/src/ap\ap_config.h **** 	struct hostapd_wmm_ac_params wmm_ac_params[4];
1016:C:/Users/stapi/OneDrive/Desktop/GD32VW553/V1_MQTT_OK/GD32VW55X_Wifi_BLE_SDK/GD32VW55x_RELEASE_V1.0.2/MSDK/wpa_supplicant/src/ap\ap_config.h **** 
1017:C:/Users/stapi/OneDrive/Desktop/GD32VW553/V1_MQTT_OK/GD32VW55X_Wifi_BLE_SDK/GD32VW55x_RELEASE_V1.0.2/MSDK/wpa_supplicant/src/ap\ap_config.h **** 	int ht_op_mode_fixed;
1018:C:/Users/stapi/OneDrive/Desktop/GD32VW553/V1_MQTT_OK/GD32VW55X_Wifi_BLE_SDK/GD32VW55x_RELEASE_V1.0.2/MSDK/wpa_supplicant/src/ap\ap_config.h **** 	u16 ht_capab;
1019:C:/Users/stapi/OneDrive/Desktop/GD32VW553/V1_MQTT_OK/GD32VW55X_Wifi_BLE_SDK/GD32VW55x_RELEASE_V1.0.2/MSDK/wpa_supplicant/src/ap\ap_config.h **** 	int ieee80211n;
1020:C:/Users/stapi/OneDrive/Desktop/GD32VW553/V1_MQTT_OK/GD32VW55X_Wifi_BLE_SDK/GD32VW55x_RELEASE_V1.0.2/MSDK/wpa_supplicant/src/ap\ap_config.h **** 	int secondary_channel;
1021:C:/Users/stapi/OneDrive/Desktop/GD32VW553/V1_MQTT_OK/GD32VW55X_Wifi_BLE_SDK/GD32VW55x_RELEASE_V1.0.2/MSDK/wpa_supplicant/src/ap\ap_config.h **** 	int no_pri_sec_switch;
1022:C:/Users/stapi/OneDrive/Desktop/GD32VW553/V1_MQTT_OK/GD32VW55X_Wifi_BLE_SDK/GD32VW55x_RELEASE_V1.0.2/MSDK/wpa_supplicant/src/ap\ap_config.h **** 	int require_ht;
1023:C:/Users/stapi/OneDrive/Desktop/GD32VW553/V1_MQTT_OK/GD32VW55X_Wifi_BLE_SDK/GD32VW55x_RELEASE_V1.0.2/MSDK/wpa_supplicant/src/ap\ap_config.h **** 	int obss_interval;
1024:C:/Users/stapi/OneDrive/Desktop/GD32VW553/V1_MQTT_OK/GD32VW55X_Wifi_BLE_SDK/GD32VW55x_RELEASE_V1.0.2/MSDK/wpa_supplicant/src/ap\ap_config.h **** 	u32 vht_capab;
1025:C:/Users/stapi/OneDrive/Desktop/GD32VW553/V1_MQTT_OK/GD32VW55X_Wifi_BLE_SDK/GD32VW55x_RELEASE_V1.0.2/MSDK/wpa_supplicant/src/ap\ap_config.h **** 	int ieee80211ac;
1026:C:/Users/stapi/OneDrive/Desktop/GD32VW553/V1_MQTT_OK/GD32VW55X_Wifi_BLE_SDK/GD32VW55x_RELEASE_V1.0.2/MSDK/wpa_supplicant/src/ap\ap_config.h **** 	int require_vht;
1027:C:/Users/stapi/OneDrive/Desktop/GD32VW553/V1_MQTT_OK/GD32VW55X_Wifi_BLE_SDK/GD32VW55x_RELEASE_V1.0.2/MSDK/wpa_supplicant/src/ap\ap_config.h **** 	u8 vht_oper_chwidth;
1028:C:/Users/stapi/OneDrive/Desktop/GD32VW553/V1_MQTT_OK/GD32VW55X_Wifi_BLE_SDK/GD32VW55x_RELEASE_V1.0.2/MSDK/wpa_supplicant/src/ap\ap_config.h **** 	u8 vht_oper_centr_freq_seg0_idx;
1029:C:/Users/stapi/OneDrive/Desktop/GD32VW553/V1_MQTT_OK/GD32VW55X_Wifi_BLE_SDK/GD32VW55x_RELEASE_V1.0.2/MSDK/wpa_supplicant/src/ap\ap_config.h **** 	u8 vht_oper_centr_freq_seg1_idx;
1030:C:/Users/stapi/OneDrive/Desktop/GD32VW553/V1_MQTT_OK/GD32VW55X_Wifi_BLE_SDK/GD32VW55x_RELEASE_V1.0.2/MSDK/wpa_supplicant/src/ap\ap_config.h **** 	u8 ht40_plus_minus_allowed;
1031:C:/Users/stapi/OneDrive/Desktop/GD32VW553/V1_MQTT_OK/GD32VW55X_Wifi_BLE_SDK/GD32VW55x_RELEASE_V1.0.2/MSDK/wpa_supplicant/src/ap\ap_config.h **** 
1032:C:/Users/stapi/OneDrive/Desktop/GD32VW553/V1_MQTT_OK/GD32VW55X_Wifi_BLE_SDK/GD32VW55x_RELEASE_V1.0.2/MSDK/wpa_supplicant/src/ap\ap_config.h **** 	/* Use driver-generated interface addresses when adding multiple BSSs */
1033:C:/Users/stapi/OneDrive/Desktop/GD32VW553/V1_MQTT_OK/GD32VW55X_Wifi_BLE_SDK/GD32VW55x_RELEASE_V1.0.2/MSDK/wpa_supplicant/src/ap\ap_config.h **** 	u8 use_driver_iface_addr;
1034:C:/Users/stapi/OneDrive/Desktop/GD32VW553/V1_MQTT_OK/GD32VW55X_Wifi_BLE_SDK/GD32VW55x_RELEASE_V1.0.2/MSDK/wpa_supplicant/src/ap\ap_config.h **** 
1035:C:/Users/stapi/OneDrive/Desktop/GD32VW553/V1_MQTT_OK/GD32VW55X_Wifi_BLE_SDK/GD32VW55x_RELEASE_V1.0.2/MSDK/wpa_supplicant/src/ap\ap_config.h **** #ifdef CONFIG_FST
1036:C:/Users/stapi/OneDrive/Desktop/GD32VW553/V1_MQTT_OK/GD32VW55X_Wifi_BLE_SDK/GD32VW55x_RELEASE_V1.0.2/MSDK/wpa_supplicant/src/ap\ap_config.h **** 	struct fst_iface_cfg fst_cfg;
1037:C:/Users/stapi/OneDrive/Desktop/GD32VW553/V1_MQTT_OK/GD32VW55X_Wifi_BLE_SDK/GD32VW55x_RELEASE_V1.0.2/MSDK/wpa_supplicant/src/ap\ap_config.h **** #endif /* CONFIG_FST */
1038:C:/Users/stapi/OneDrive/Desktop/GD32VW553/V1_MQTT_OK/GD32VW55X_Wifi_BLE_SDK/GD32VW55x_RELEASE_V1.0.2/MSDK/wpa_supplicant/src/ap\ap_config.h **** 
1039:C:/Users/stapi/OneDrive/Desktop/GD32VW553/V1_MQTT_OK/GD32VW55X_Wifi_BLE_SDK/GD32VW55x_RELEASE_V1.0.2/MSDK/wpa_supplicant/src/ap\ap_config.h **** #ifdef CONFIG_P2P
1040:C:/Users/stapi/OneDrive/Desktop/GD32VW553/V1_MQTT_OK/GD32VW55X_Wifi_BLE_SDK/GD32VW55x_RELEASE_V1.0.2/MSDK/wpa_supplicant/src/ap\ap_config.h **** 	u8 p2p_go_ctwindow;
1041:C:/Users/stapi/OneDrive/Desktop/GD32VW553/V1_MQTT_OK/GD32VW55X_Wifi_BLE_SDK/GD32VW55x_RELEASE_V1.0.2/MSDK/wpa_supplicant/src/ap\ap_config.h **** #endif /* CONFIG_P2P */
1042:C:/Users/stapi/OneDrive/Desktop/GD32VW553/V1_MQTT_OK/GD32VW55X_Wifi_BLE_SDK/GD32VW55x_RELEASE_V1.0.2/MSDK/wpa_supplicant/src/ap\ap_config.h **** 
1043:C:/Users/stapi/OneDrive/Desktop/GD32VW553/V1_MQTT_OK/GD32VW55X_Wifi_BLE_SDK/GD32VW55x_RELEASE_V1.0.2/MSDK/wpa_supplicant/src/ap\ap_config.h **** #ifdef CONFIG_TESTING_OPTIONS
1044:C:/Users/stapi/OneDrive/Desktop/GD32VW553/V1_MQTT_OK/GD32VW55X_Wifi_BLE_SDK/GD32VW55x_RELEASE_V1.0.2/MSDK/wpa_supplicant/src/ap\ap_config.h **** 	double ignore_probe_probability;
1045:C:/Users/stapi/OneDrive/Desktop/GD32VW553/V1_MQTT_OK/GD32VW55X_Wifi_BLE_SDK/GD32VW55x_RELEASE_V1.0.2/MSDK/wpa_supplicant/src/ap\ap_config.h **** 	double ignore_auth_probability;
1046:C:/Users/stapi/OneDrive/Desktop/GD32VW553/V1_MQTT_OK/GD32VW55X_Wifi_BLE_SDK/GD32VW55x_RELEASE_V1.0.2/MSDK/wpa_supplicant/src/ap\ap_config.h **** 	double ignore_assoc_probability;
1047:C:/Users/stapi/OneDrive/Desktop/GD32VW553/V1_MQTT_OK/GD32VW55X_Wifi_BLE_SDK/GD32VW55x_RELEASE_V1.0.2/MSDK/wpa_supplicant/src/ap\ap_config.h **** 	double ignore_reassoc_probability;
1048:C:/Users/stapi/OneDrive/Desktop/GD32VW553/V1_MQTT_OK/GD32VW55X_Wifi_BLE_SDK/GD32VW55x_RELEASE_V1.0.2/MSDK/wpa_supplicant/src/ap\ap_config.h **** 	double corrupt_gtk_rekey_mic_probability;
1049:C:/Users/stapi/OneDrive/Desktop/GD32VW553/V1_MQTT_OK/GD32VW55X_Wifi_BLE_SDK/GD32VW55x_RELEASE_V1.0.2/MSDK/wpa_supplicant/src/ap\ap_config.h **** 	int ecsa_ie_only;
1050:C:/Users/stapi/OneDrive/Desktop/GD32VW553/V1_MQTT_OK/GD32VW55X_Wifi_BLE_SDK/GD32VW55x_RELEASE_V1.0.2/MSDK/wpa_supplicant/src/ap\ap_config.h **** #endif /* CONFIG_TESTING_OPTIONS */
1051:C:/Users/stapi/OneDrive/Desktop/GD32VW553/V1_MQTT_OK/GD32VW55X_Wifi_BLE_SDK/GD32VW55x_RELEASE_V1.0.2/MSDK/wpa_supplicant/src/ap\ap_config.h **** 
1052:C:/Users/stapi/OneDrive/Desktop/GD32VW553/V1_MQTT_OK/GD32VW55X_Wifi_BLE_SDK/GD32VW55x_RELEASE_V1.0.2/MSDK/wpa_supplicant/src/ap\ap_config.h **** #ifdef CONFIG_ACS
1053:C:/Users/stapi/OneDrive/Desktop/GD32VW553/V1_MQTT_OK/GD32VW55X_Wifi_BLE_SDK/GD32VW55x_RELEASE_V1.0.2/MSDK/wpa_supplicant/src/ap\ap_config.h **** 	unsigned int acs_num_scans;
1054:C:/Users/stapi/OneDrive/Desktop/GD32VW553/V1_MQTT_OK/GD32VW55X_Wifi_BLE_SDK/GD32VW55x_RELEASE_V1.0.2/MSDK/wpa_supplicant/src/ap\ap_config.h **** 	struct acs_bias {
1055:C:/Users/stapi/OneDrive/Desktop/GD32VW553/V1_MQTT_OK/GD32VW55X_Wifi_BLE_SDK/GD32VW55x_RELEASE_V1.0.2/MSDK/wpa_supplicant/src/ap\ap_config.h **** 		int channel;
1056:C:/Users/stapi/OneDrive/Desktop/GD32VW553/V1_MQTT_OK/GD32VW55X_Wifi_BLE_SDK/GD32VW55x_RELEASE_V1.0.2/MSDK/wpa_supplicant/src/ap\ap_config.h **** 		double bias;
1057:C:/Users/stapi/OneDrive/Desktop/GD32VW553/V1_MQTT_OK/GD32VW55X_Wifi_BLE_SDK/GD32VW55x_RELEASE_V1.0.2/MSDK/wpa_supplicant/src/ap\ap_config.h **** 	} *acs_chan_bias;
1058:C:/Users/stapi/OneDrive/Desktop/GD32VW553/V1_MQTT_OK/GD32VW55X_Wifi_BLE_SDK/GD32VW55x_RELEASE_V1.0.2/MSDK/wpa_supplicant/src/ap\ap_config.h **** 	unsigned int num_acs_chan_bias;
1059:C:/Users/stapi/OneDrive/Desktop/GD32VW553/V1_MQTT_OK/GD32VW55X_Wifi_BLE_SDK/GD32VW55x_RELEASE_V1.0.2/MSDK/wpa_supplicant/src/ap\ap_config.h **** #endif /* CONFIG_ACS */
1060:C:/Users/stapi/OneDrive/Desktop/GD32VW553/V1_MQTT_OK/GD32VW55X_Wifi_BLE_SDK/GD32VW55x_RELEASE_V1.0.2/MSDK/wpa_supplicant/src/ap\ap_config.h **** 
1061:C:/Users/stapi/OneDrive/Desktop/GD32VW553/V1_MQTT_OK/GD32VW55X_Wifi_BLE_SDK/GD32VW55x_RELEASE_V1.0.2/MSDK/wpa_supplicant/src/ap\ap_config.h **** 	struct wpabuf *lci;
1062:C:/Users/stapi/OneDrive/Desktop/GD32VW553/V1_MQTT_OK/GD32VW55X_Wifi_BLE_SDK/GD32VW55x_RELEASE_V1.0.2/MSDK/wpa_supplicant/src/ap\ap_config.h **** 	struct wpabuf *civic;
1063:C:/Users/stapi/OneDrive/Desktop/GD32VW553/V1_MQTT_OK/GD32VW55X_Wifi_BLE_SDK/GD32VW55x_RELEASE_V1.0.2/MSDK/wpa_supplicant/src/ap\ap_config.h **** 	int stationary_ap;
1064:C:/Users/stapi/OneDrive/Desktop/GD32VW553/V1_MQTT_OK/GD32VW55X_Wifi_BLE_SDK/GD32VW55x_RELEASE_V1.0.2/MSDK/wpa_supplicant/src/ap\ap_config.h **** 
1065:C:/Users/stapi/OneDrive/Desktop/GD32VW553/V1_MQTT_OK/GD32VW55X_Wifi_BLE_SDK/GD32VW55x_RELEASE_V1.0.2/MSDK/wpa_supplicant/src/ap\ap_config.h **** 	int ieee80211ax;
1066:C:/Users/stapi/OneDrive/Desktop/GD32VW553/V1_MQTT_OK/GD32VW55X_Wifi_BLE_SDK/GD32VW55x_RELEASE_V1.0.2/MSDK/wpa_supplicant/src/ap\ap_config.h **** #ifdef CONFIG_IEEE80211AX
1067:C:/Users/stapi/OneDrive/Desktop/GD32VW553/V1_MQTT_OK/GD32VW55X_Wifi_BLE_SDK/GD32VW55x_RELEASE_V1.0.2/MSDK/wpa_supplicant/src/ap\ap_config.h **** 	struct he_phy_capabilities_info he_phy_capab;
1068:C:/Users/stapi/OneDrive/Desktop/GD32VW553/V1_MQTT_OK/GD32VW55X_Wifi_BLE_SDK/GD32VW55x_RELEASE_V1.0.2/MSDK/wpa_supplicant/src/ap\ap_config.h **** 	struct he_operation he_op;
1069:C:/Users/stapi/OneDrive/Desktop/GD32VW553/V1_MQTT_OK/GD32VW55X_Wifi_BLE_SDK/GD32VW55x_RELEASE_V1.0.2/MSDK/wpa_supplicant/src/ap\ap_config.h **** 	struct ieee80211_he_mu_edca_parameter_set he_mu_edca;
1070:C:/Users/stapi/OneDrive/Desktop/GD32VW553/V1_MQTT_OK/GD32VW55X_Wifi_BLE_SDK/GD32VW55x_RELEASE_V1.0.2/MSDK/wpa_supplicant/src/ap\ap_config.h **** 	struct spatial_reuse spr;
1071:C:/Users/stapi/OneDrive/Desktop/GD32VW553/V1_MQTT_OK/GD32VW55X_Wifi_BLE_SDK/GD32VW55x_RELEASE_V1.0.2/MSDK/wpa_supplicant/src/ap\ap_config.h **** 	u8 he_oper_chwidth;
1072:C:/Users/stapi/OneDrive/Desktop/GD32VW553/V1_MQTT_OK/GD32VW55X_Wifi_BLE_SDK/GD32VW55x_RELEASE_V1.0.2/MSDK/wpa_supplicant/src/ap\ap_config.h **** 	u8 he_oper_centr_freq_seg0_idx;
1073:C:/Users/stapi/OneDrive/Desktop/GD32VW553/V1_MQTT_OK/GD32VW55X_Wifi_BLE_SDK/GD32VW55x_RELEASE_V1.0.2/MSDK/wpa_supplicant/src/ap\ap_config.h **** 	u8 he_oper_centr_freq_seg1_idx;
1074:C:/Users/stapi/OneDrive/Desktop/GD32VW553/V1_MQTT_OK/GD32VW55X_Wifi_BLE_SDK/GD32VW55x_RELEASE_V1.0.2/MSDK/wpa_supplicant/src/ap\ap_config.h **** 	u8 he_6ghz_max_mpdu;
1075:C:/Users/stapi/OneDrive/Desktop/GD32VW553/V1_MQTT_OK/GD32VW55X_Wifi_BLE_SDK/GD32VW55x_RELEASE_V1.0.2/MSDK/wpa_supplicant/src/ap\ap_config.h **** 	u8 he_6ghz_max_ampdu_len_exp;
1076:C:/Users/stapi/OneDrive/Desktop/GD32VW553/V1_MQTT_OK/GD32VW55X_Wifi_BLE_SDK/GD32VW55x_RELEASE_V1.0.2/MSDK/wpa_supplicant/src/ap\ap_config.h **** 	u8 he_6ghz_rx_ant_pat;
1077:C:/Users/stapi/OneDrive/Desktop/GD32VW553/V1_MQTT_OK/GD32VW55X_Wifi_BLE_SDK/GD32VW55x_RELEASE_V1.0.2/MSDK/wpa_supplicant/src/ap\ap_config.h **** 	u8 he_6ghz_tx_ant_pat;
1078:C:/Users/stapi/OneDrive/Desktop/GD32VW553/V1_MQTT_OK/GD32VW55X_Wifi_BLE_SDK/GD32VW55x_RELEASE_V1.0.2/MSDK/wpa_supplicant/src/ap\ap_config.h **** #endif /* CONFIG_IEEE80211AX */
1079:C:/Users/stapi/OneDrive/Desktop/GD32VW553/V1_MQTT_OK/GD32VW55X_Wifi_BLE_SDK/GD32VW55x_RELEASE_V1.0.2/MSDK/wpa_supplicant/src/ap\ap_config.h **** 
1080:C:/Users/stapi/OneDrive/Desktop/GD32VW553/V1_MQTT_OK/GD32VW55X_Wifi_BLE_SDK/GD32VW55x_RELEASE_V1.0.2/MSDK/wpa_supplicant/src/ap\ap_config.h **** 	/* VHT enable/disable config from CHAN_SWITCH */
1081:C:/Users/stapi/OneDrive/Desktop/GD32VW553/V1_MQTT_OK/GD32VW55X_Wifi_BLE_SDK/GD32VW55x_RELEASE_V1.0.2/MSDK/wpa_supplicant/src/ap\ap_config.h **** #define CH_SWITCH_VHT_ENABLED BIT(0)
1082:C:/Users/stapi/OneDrive/Desktop/GD32VW553/V1_MQTT_OK/GD32VW55X_Wifi_BLE_SDK/GD32VW55x_RELEASE_V1.0.2/MSDK/wpa_supplicant/src/ap\ap_config.h **** #define CH_SWITCH_VHT_DISABLED BIT(1)
1083:C:/Users/stapi/OneDrive/Desktop/GD32VW553/V1_MQTT_OK/GD32VW55X_Wifi_BLE_SDK/GD32VW55x_RELEASE_V1.0.2/MSDK/wpa_supplicant/src/ap\ap_config.h **** 	unsigned int ch_switch_vht_config;
1084:C:/Users/stapi/OneDrive/Desktop/GD32VW553/V1_MQTT_OK/GD32VW55X_Wifi_BLE_SDK/GD32VW55x_RELEASE_V1.0.2/MSDK/wpa_supplicant/src/ap\ap_config.h **** 
1085:C:/Users/stapi/OneDrive/Desktop/GD32VW553/V1_MQTT_OK/GD32VW55X_Wifi_BLE_SDK/GD32VW55x_RELEASE_V1.0.2/MSDK/wpa_supplicant/src/ap\ap_config.h **** 	/* HE enable/disable config from CHAN_SWITCH */
1086:C:/Users/stapi/OneDrive/Desktop/GD32VW553/V1_MQTT_OK/GD32VW55X_Wifi_BLE_SDK/GD32VW55x_RELEASE_V1.0.2/MSDK/wpa_supplicant/src/ap\ap_config.h **** #define CH_SWITCH_HE_ENABLED BIT(0)
1087:C:/Users/stapi/OneDrive/Desktop/GD32VW553/V1_MQTT_OK/GD32VW55X_Wifi_BLE_SDK/GD32VW55x_RELEASE_V1.0.2/MSDK/wpa_supplicant/src/ap\ap_config.h **** #define CH_SWITCH_HE_DISABLED BIT(1)
1088:C:/Users/stapi/OneDrive/Desktop/GD32VW553/V1_MQTT_OK/GD32VW55X_Wifi_BLE_SDK/GD32VW55x_RELEASE_V1.0.2/MSDK/wpa_supplicant/src/ap\ap_config.h **** 	unsigned int ch_switch_he_config;
1089:C:/Users/stapi/OneDrive/Desktop/GD32VW553/V1_MQTT_OK/GD32VW55X_Wifi_BLE_SDK/GD32VW55x_RELEASE_V1.0.2/MSDK/wpa_supplicant/src/ap\ap_config.h **** 
1090:C:/Users/stapi/OneDrive/Desktop/GD32VW553/V1_MQTT_OK/GD32VW55X_Wifi_BLE_SDK/GD32VW55x_RELEASE_V1.0.2/MSDK/wpa_supplicant/src/ap\ap_config.h **** 	int rssi_reject_assoc_rssi;
1091:C:/Users/stapi/OneDrive/Desktop/GD32VW553/V1_MQTT_OK/GD32VW55X_Wifi_BLE_SDK/GD32VW55x_RELEASE_V1.0.2/MSDK/wpa_supplicant/src/ap\ap_config.h **** 	int rssi_reject_assoc_timeout;
1092:C:/Users/stapi/OneDrive/Desktop/GD32VW553/V1_MQTT_OK/GD32VW55X_Wifi_BLE_SDK/GD32VW55x_RELEASE_V1.0.2/MSDK/wpa_supplicant/src/ap\ap_config.h **** 	int rssi_ignore_probe_request;
1093:C:/Users/stapi/OneDrive/Desktop/GD32VW553/V1_MQTT_OK/GD32VW55X_Wifi_BLE_SDK/GD32VW55x_RELEASE_V1.0.2/MSDK/wpa_supplicant/src/ap\ap_config.h **** 
1094:C:/Users/stapi/OneDrive/Desktop/GD32VW553/V1_MQTT_OK/GD32VW55X_Wifi_BLE_SDK/GD32VW55x_RELEASE_V1.0.2/MSDK/wpa_supplicant/src/ap\ap_config.h **** #ifdef CONFIG_AIRTIME_POLICY
1095:C:/Users/stapi/OneDrive/Desktop/GD32VW553/V1_MQTT_OK/GD32VW55X_Wifi_BLE_SDK/GD32VW55x_RELEASE_V1.0.2/MSDK/wpa_supplicant/src/ap\ap_config.h **** 	enum {
1096:C:/Users/stapi/OneDrive/Desktop/GD32VW553/V1_MQTT_OK/GD32VW55X_Wifi_BLE_SDK/GD32VW55x_RELEASE_V1.0.2/MSDK/wpa_supplicant/src/ap\ap_config.h **** 		AIRTIME_MODE_OFF = 0,
1097:C:/Users/stapi/OneDrive/Desktop/GD32VW553/V1_MQTT_OK/GD32VW55X_Wifi_BLE_SDK/GD32VW55x_RELEASE_V1.0.2/MSDK/wpa_supplicant/src/ap\ap_config.h **** 		AIRTIME_MODE_STATIC = 1,
1098:C:/Users/stapi/OneDrive/Desktop/GD32VW553/V1_MQTT_OK/GD32VW55X_Wifi_BLE_SDK/GD32VW55x_RELEASE_V1.0.2/MSDK/wpa_supplicant/src/ap\ap_config.h **** 		AIRTIME_MODE_DYNAMIC = 2,
1099:C:/Users/stapi/OneDrive/Desktop/GD32VW553/V1_MQTT_OK/GD32VW55X_Wifi_BLE_SDK/GD32VW55x_RELEASE_V1.0.2/MSDK/wpa_supplicant/src/ap\ap_config.h **** 		AIRTIME_MODE_LIMIT = 3,
1100:C:/Users/stapi/OneDrive/Desktop/GD32VW553/V1_MQTT_OK/GD32VW55X_Wifi_BLE_SDK/GD32VW55x_RELEASE_V1.0.2/MSDK/wpa_supplicant/src/ap\ap_config.h **** 		__AIRTIME_MODE_MAX,
1101:C:/Users/stapi/OneDrive/Desktop/GD32VW553/V1_MQTT_OK/GD32VW55X_Wifi_BLE_SDK/GD32VW55x_RELEASE_V1.0.2/MSDK/wpa_supplicant/src/ap\ap_config.h **** 	} airtime_mode;
1102:C:/Users/stapi/OneDrive/Desktop/GD32VW553/V1_MQTT_OK/GD32VW55X_Wifi_BLE_SDK/GD32VW55x_RELEASE_V1.0.2/MSDK/wpa_supplicant/src/ap\ap_config.h **** 	unsigned int airtime_update_interval;
1103:C:/Users/stapi/OneDrive/Desktop/GD32VW553/V1_MQTT_OK/GD32VW55X_Wifi_BLE_SDK/GD32VW55x_RELEASE_V1.0.2/MSDK/wpa_supplicant/src/ap\ap_config.h **** #define AIRTIME_MODE_MAX (__AIRTIME_MODE_MAX - 1)
1104:C:/Users/stapi/OneDrive/Desktop/GD32VW553/V1_MQTT_OK/GD32VW55X_Wifi_BLE_SDK/GD32VW55x_RELEASE_V1.0.2/MSDK/wpa_supplicant/src/ap\ap_config.h **** #endif /* CONFIG_AIRTIME_POLICY */
1105:C:/Users/stapi/OneDrive/Desktop/GD32VW553/V1_MQTT_OK/GD32VW55X_Wifi_BLE_SDK/GD32VW55x_RELEASE_V1.0.2/MSDK/wpa_supplicant/src/ap\ap_config.h **** };
1106:C:/Users/stapi/OneDrive/Desktop/GD32VW553/V1_MQTT_OK/GD32VW55X_Wifi_BLE_SDK/GD32VW55x_RELEASE_V1.0.2/MSDK/wpa_supplicant/src/ap\ap_config.h **** 
1107:C:/Users/stapi/OneDrive/Desktop/GD32VW553/V1_MQTT_OK/GD32VW55X_Wifi_BLE_SDK/GD32VW55x_RELEASE_V1.0.2/MSDK/wpa_supplicant/src/ap\ap_config.h **** 
1108:C:/Users/stapi/OneDrive/Desktop/GD32VW553/V1_MQTT_OK/GD32VW55X_Wifi_BLE_SDK/GD32VW55x_RELEASE_V1.0.2/MSDK/wpa_supplicant/src/ap\ap_config.h **** static inline u8 hostapd_get_oper_chwidth(struct hostapd_config *conf)
1109:C:/Users/stapi/OneDrive/Desktop/GD32VW553/V1_MQTT_OK/GD32VW55X_Wifi_BLE_SDK/GD32VW55x_RELEASE_V1.0.2/MSDK/wpa_supplicant/src/ap\ap_config.h **** {
1110:C:/Users/stapi/OneDrive/Desktop/GD32VW553/V1_MQTT_OK/GD32VW55X_Wifi_BLE_SDK/GD32VW55x_RELEASE_V1.0.2/MSDK/wpa_supplicant/src/ap\ap_config.h **** #ifdef CONFIG_IEEE80211AX
1111:C:/Users/stapi/OneDrive/Desktop/GD32VW553/V1_MQTT_OK/GD32VW55X_Wifi_BLE_SDK/GD32VW55x_RELEASE_V1.0.2/MSDK/wpa_supplicant/src/ap\ap_config.h **** 	if (conf->ieee80211ax)
1112:C:/Users/stapi/OneDrive/Desktop/GD32VW553/V1_MQTT_OK/GD32VW55X_Wifi_BLE_SDK/GD32VW55x_RELEASE_V1.0.2/MSDK/wpa_supplicant/src/ap\ap_config.h **** 		return conf->he_oper_chwidth;
1113:C:/Users/stapi/OneDrive/Desktop/GD32VW553/V1_MQTT_OK/GD32VW55X_Wifi_BLE_SDK/GD32VW55x_RELEASE_V1.0.2/MSDK/wpa_supplicant/src/ap\ap_config.h **** #endif /* CONFIG_IEEE80211AX */
1114:C:/Users/stapi/OneDrive/Desktop/GD32VW553/V1_MQTT_OK/GD32VW55X_Wifi_BLE_SDK/GD32VW55x_RELEASE_V1.0.2/MSDK/wpa_supplicant/src/ap\ap_config.h **** 	return conf->vht_oper_chwidth;
1115:C:/Users/stapi/OneDrive/Desktop/GD32VW553/V1_MQTT_OK/GD32VW55X_Wifi_BLE_SDK/GD32VW55x_RELEASE_V1.0.2/MSDK/wpa_supplicant/src/ap\ap_config.h **** }
1116:C:/Users/stapi/OneDrive/Desktop/GD32VW553/V1_MQTT_OK/GD32VW55X_Wifi_BLE_SDK/GD32VW55x_RELEASE_V1.0.2/MSDK/wpa_supplicant/src/ap\ap_config.h **** 
1117:C:/Users/stapi/OneDrive/Desktop/GD32VW553/V1_MQTT_OK/GD32VW55X_Wifi_BLE_SDK/GD32VW55x_RELEASE_V1.0.2/MSDK/wpa_supplicant/src/ap\ap_config.h **** static inline void
1118:C:/Users/stapi/OneDrive/Desktop/GD32VW553/V1_MQTT_OK/GD32VW55X_Wifi_BLE_SDK/GD32VW55x_RELEASE_V1.0.2/MSDK/wpa_supplicant/src/ap\ap_config.h **** hostapd_set_oper_chwidth(struct hostapd_config *conf, u8 oper_chwidth)
1119:C:/Users/stapi/OneDrive/Desktop/GD32VW553/V1_MQTT_OK/GD32VW55X_Wifi_BLE_SDK/GD32VW55x_RELEASE_V1.0.2/MSDK/wpa_supplicant/src/ap\ap_config.h **** {
1120:C:/Users/stapi/OneDrive/Desktop/GD32VW553/V1_MQTT_OK/GD32VW55X_Wifi_BLE_SDK/GD32VW55x_RELEASE_V1.0.2/MSDK/wpa_supplicant/src/ap\ap_config.h **** #ifdef CONFIG_IEEE80211AX
1121:C:/Users/stapi/OneDrive/Desktop/GD32VW553/V1_MQTT_OK/GD32VW55X_Wifi_BLE_SDK/GD32VW55x_RELEASE_V1.0.2/MSDK/wpa_supplicant/src/ap\ap_config.h **** 	if (conf->ieee80211ax)
1122:C:/Users/stapi/OneDrive/Desktop/GD32VW553/V1_MQTT_OK/GD32VW55X_Wifi_BLE_SDK/GD32VW55x_RELEASE_V1.0.2/MSDK/wpa_supplicant/src/ap\ap_config.h **** 		conf->he_oper_chwidth = oper_chwidth;
1123:C:/Users/stapi/OneDrive/Desktop/GD32VW553/V1_MQTT_OK/GD32VW55X_Wifi_BLE_SDK/GD32VW55x_RELEASE_V1.0.2/MSDK/wpa_supplicant/src/ap\ap_config.h **** #endif /* CONFIG_IEEE80211AX */
1124:C:/Users/stapi/OneDrive/Desktop/GD32VW553/V1_MQTT_OK/GD32VW55X_Wifi_BLE_SDK/GD32VW55x_RELEASE_V1.0.2/MSDK/wpa_supplicant/src/ap\ap_config.h **** 	conf->vht_oper_chwidth = oper_chwidth;
1125:C:/Users/stapi/OneDrive/Desktop/GD32VW553/V1_MQTT_OK/GD32VW55X_Wifi_BLE_SDK/GD32VW55x_RELEASE_V1.0.2/MSDK/wpa_supplicant/src/ap\ap_config.h **** }
1126:C:/Users/stapi/OneDrive/Desktop/GD32VW553/V1_MQTT_OK/GD32VW55X_Wifi_BLE_SDK/GD32VW55x_RELEASE_V1.0.2/MSDK/wpa_supplicant/src/ap\ap_config.h **** 
1127:C:/Users/stapi/OneDrive/Desktop/GD32VW553/V1_MQTT_OK/GD32VW55X_Wifi_BLE_SDK/GD32VW55x_RELEASE_V1.0.2/MSDK/wpa_supplicant/src/ap\ap_config.h **** static inline u8
1128:C:/Users/stapi/OneDrive/Desktop/GD32VW553/V1_MQTT_OK/GD32VW55X_Wifi_BLE_SDK/GD32VW55x_RELEASE_V1.0.2/MSDK/wpa_supplicant/src/ap\ap_config.h **** hostapd_get_oper_centr_freq_seg0_idx(struct hostapd_config *conf)
1129:C:/Users/stapi/OneDrive/Desktop/GD32VW553/V1_MQTT_OK/GD32VW55X_Wifi_BLE_SDK/GD32VW55x_RELEASE_V1.0.2/MSDK/wpa_supplicant/src/ap\ap_config.h **** {
1130:C:/Users/stapi/OneDrive/Desktop/GD32VW553/V1_MQTT_OK/GD32VW55X_Wifi_BLE_SDK/GD32VW55x_RELEASE_V1.0.2/MSDK/wpa_supplicant/src/ap\ap_config.h **** #ifdef CONFIG_IEEE80211AX
1131:C:/Users/stapi/OneDrive/Desktop/GD32VW553/V1_MQTT_OK/GD32VW55X_Wifi_BLE_SDK/GD32VW55x_RELEASE_V1.0.2/MSDK/wpa_supplicant/src/ap\ap_config.h **** 	if (conf->ieee80211ax)
 516              		.loc 2 1131 2 is_stmt 1
 517              		.loc 2 1131 5 is_stmt 0
 518 00c0 03A74715 		lw	a4,340(a5)
 519              	.LVL56:
 520 00c4 41C3     		beq	a4,zero,.L42
1132:C:/Users/stapi/OneDrive/Desktop/GD32VW553/V1_MQTT_OK/GD32VW55X_Wifi_BLE_SDK/GD32VW55x_RELEASE_V1.0.2/MSDK/wpa_supplicant/src/ap\ap_config.h **** 		return conf->he_oper_centr_freq_seg0_idx;
 521              		.loc 2 1132 3 is_stmt 1
 522              		.loc 2 1132 14 is_stmt 0
 523 00c6 03C9A718 		lbu	s2,394(a5)
 524              	.LVL57:
 525              	.LBE25:
 526              	.LBE24:
 216:C:/Users/stapi/OneDrive/Desktop/GD32VW553/V1_MQTT_OK/GD32VW55X_Wifi_BLE_SDK/GD32VW55x_RELEASE_V1.0.2/MSDK/wpa_supplicant/src/ap\ieee802_11_he.c **** 		u8 seg1 = hostapd_get_oper_centr_freq_seg1_idx(hapd->iconf);
 527              		.loc 1 216 3 is_stmt 1
 528              	.LBB27:
 529              	.LBB28:
1133:C:/Users/stapi/OneDrive/Desktop/GD32VW553/V1_MQTT_OK/GD32VW55X_Wifi_BLE_SDK/GD32VW55x_RELEASE_V1.0.2/MSDK/wpa_supplicant/src/ap\ap_config.h **** #endif /* CONFIG_IEEE80211AX */
1134:C:/Users/stapi/OneDrive/Desktop/GD32VW553/V1_MQTT_OK/GD32VW55X_Wifi_BLE_SDK/GD32VW55x_RELEASE_V1.0.2/MSDK/wpa_supplicant/src/ap\ap_config.h **** 	return conf->vht_oper_centr_freq_seg0_idx;
1135:C:/Users/stapi/OneDrive/Desktop/GD32VW553/V1_MQTT_OK/GD32VW55X_Wifi_BLE_SDK/GD32VW55x_RELEASE_V1.0.2/MSDK/wpa_supplicant/src/ap\ap_config.h **** }
1136:C:/Users/stapi/OneDrive/Desktop/GD32VW553/V1_MQTT_OK/GD32VW55X_Wifi_BLE_SDK/GD32VW55x_RELEASE_V1.0.2/MSDK/wpa_supplicant/src/ap\ap_config.h **** 
1137:C:/Users/stapi/OneDrive/Desktop/GD32VW553/V1_MQTT_OK/GD32VW55X_Wifi_BLE_SDK/GD32VW55x_RELEASE_V1.0.2/MSDK/wpa_supplicant/src/ap\ap_config.h **** static inline void
1138:C:/Users/stapi/OneDrive/Desktop/GD32VW553/V1_MQTT_OK/GD32VW55X_Wifi_BLE_SDK/GD32VW55x_RELEASE_V1.0.2/MSDK/wpa_supplicant/src/ap\ap_config.h **** hostapd_set_oper_centr_freq_seg0_idx(struct hostapd_config *conf,
1139:C:/Users/stapi/OneDrive/Desktop/GD32VW553/V1_MQTT_OK/GD32VW55X_Wifi_BLE_SDK/GD32VW55x_RELEASE_V1.0.2/MSDK/wpa_supplicant/src/ap\ap_config.h **** 				     u8 oper_centr_freq_seg0_idx)
1140:C:/Users/stapi/OneDrive/Desktop/GD32VW553/V1_MQTT_OK/GD32VW55X_Wifi_BLE_SDK/GD32VW55x_RELEASE_V1.0.2/MSDK/wpa_supplicant/src/ap\ap_config.h **** {
1141:C:/Users/stapi/OneDrive/Desktop/GD32VW553/V1_MQTT_OK/GD32VW55X_Wifi_BLE_SDK/GD32VW55x_RELEASE_V1.0.2/MSDK/wpa_supplicant/src/ap\ap_config.h **** #ifdef CONFIG_IEEE80211AX
1142:C:/Users/stapi/OneDrive/Desktop/GD32VW553/V1_MQTT_OK/GD32VW55X_Wifi_BLE_SDK/GD32VW55x_RELEASE_V1.0.2/MSDK/wpa_supplicant/src/ap\ap_config.h **** 	if (conf->ieee80211ax)
1143:C:/Users/stapi/OneDrive/Desktop/GD32VW553/V1_MQTT_OK/GD32VW55X_Wifi_BLE_SDK/GD32VW55x_RELEASE_V1.0.2/MSDK/wpa_supplicant/src/ap\ap_config.h **** 		conf->he_oper_centr_freq_seg0_idx = oper_centr_freq_seg0_idx;
1144:C:/Users/stapi/OneDrive/Desktop/GD32VW553/V1_MQTT_OK/GD32VW55X_Wifi_BLE_SDK/GD32VW55x_RELEASE_V1.0.2/MSDK/wpa_supplicant/src/ap\ap_config.h **** #endif /* CONFIG_IEEE80211AX */
1145:C:/Users/stapi/OneDrive/Desktop/GD32VW553/V1_MQTT_OK/GD32VW55X_Wifi_BLE_SDK/GD32VW55x_RELEASE_V1.0.2/MSDK/wpa_supplicant/src/ap\ap_config.h **** 	conf->vht_oper_centr_freq_seg0_idx = oper_centr_freq_seg0_idx;
1146:C:/Users/stapi/OneDrive/Desktop/GD32VW553/V1_MQTT_OK/GD32VW55X_Wifi_BLE_SDK/GD32VW55x_RELEASE_V1.0.2/MSDK/wpa_supplicant/src/ap\ap_config.h **** }
1147:C:/Users/stapi/OneDrive/Desktop/GD32VW553/V1_MQTT_OK/GD32VW55X_Wifi_BLE_SDK/GD32VW55x_RELEASE_V1.0.2/MSDK/wpa_supplicant/src/ap\ap_config.h **** 
1148:C:/Users/stapi/OneDrive/Desktop/GD32VW553/V1_MQTT_OK/GD32VW55X_Wifi_BLE_SDK/GD32VW55x_RELEASE_V1.0.2/MSDK/wpa_supplicant/src/ap\ap_config.h **** static inline u8
1149:C:/Users/stapi/OneDrive/Desktop/GD32VW553/V1_MQTT_OK/GD32VW55X_Wifi_BLE_SDK/GD32VW55x_RELEASE_V1.0.2/MSDK/wpa_supplicant/src/ap\ap_config.h **** hostapd_get_oper_centr_freq_seg1_idx(struct hostapd_config *conf)
1150:C:/Users/stapi/OneDrive/Desktop/GD32VW553/V1_MQTT_OK/GD32VW55X_Wifi_BLE_SDK/GD32VW55x_RELEASE_V1.0.2/MSDK/wpa_supplicant/src/ap\ap_config.h **** {
1151:C:/Users/stapi/OneDrive/Desktop/GD32VW553/V1_MQTT_OK/GD32VW55X_Wifi_BLE_SDK/GD32VW55x_RELEASE_V1.0.2/MSDK/wpa_supplicant/src/ap\ap_config.h **** #ifdef CONFIG_IEEE80211AX
1152:C:/Users/stapi/OneDrive/Desktop/GD32VW553/V1_MQTT_OK/GD32VW55X_Wifi_BLE_SDK/GD32VW55x_RELEASE_V1.0.2/MSDK/wpa_supplicant/src/ap\ap_config.h **** 	if (conf->ieee80211ax)
 530              		.loc 2 1152 2
1153:C:/Users/stapi/OneDrive/Desktop/GD32VW553/V1_MQTT_OK/GD32VW55X_Wifi_BLE_SDK/GD32VW55x_RELEASE_V1.0.2/MSDK/wpa_supplicant/src/ap\ap_config.h **** 		return conf->he_oper_centr_freq_seg1_idx;
 531              		.loc 2 1153 3
 532              		.loc 2 1153 14 is_stmt 0
 533 00ca 03CAB718 		lbu	s4,395(a5)
 534              	.L43:
 535              	.LVL58:
 536              	.LBE28:
 537              	.LBE27:
 217:C:/Users/stapi/OneDrive/Desktop/GD32VW553/V1_MQTT_OK/GD32VW55X_Wifi_BLE_SDK/GD32VW55x_RELEASE_V1.0.2/MSDK/wpa_supplicant/src/ap\ieee802_11_he.c **** 
 218:C:/Users/stapi/OneDrive/Desktop/GD32VW553/V1_MQTT_OK/GD32VW55X_Wifi_BLE_SDK/GD32VW55x_RELEASE_V1.0.2/MSDK/wpa_supplicant/src/ap\ieee802_11_he.c **** 		if (!seg0)
 538              		.loc 1 218 3 is_stmt 1
 219:C:/Users/stapi/OneDrive/Desktop/GD32VW553/V1_MQTT_OK/GD32VW55X_Wifi_BLE_SDK/GD32VW55x_RELEASE_V1.0.2/MSDK/wpa_supplicant/src/ap\ieee802_11_he.c **** 			seg0 = hapd->iconf->channel;
 539              		.loc 1 219 9 is_stmt 0
 540 00ce 83C79701 		lbu	a5,25(a5)
 218:C:/Users/stapi/OneDrive/Desktop/GD32VW553/V1_MQTT_OK/GD32VW55X_Wifi_BLE_SDK/GD32VW55x_RELEASE_V1.0.2/MSDK/wpa_supplicant/src/ap\ieee802_11_he.c **** 			seg0 = hapd->iconf->channel;
 541              		.loc 1 218 6
 542 00d2 63130900 		bne	s2,zero,.L44
 543              		.loc 1 219 9
 544 00d6 3E89     		mv	s2,a5
 545              	.LVL59:
 546              	.L44:
 220:C:/Users/stapi/OneDrive/Desktop/GD32VW553/V1_MQTT_OK/GD32VW55X_Wifi_BLE_SDK/GD32VW55x_RELEASE_V1.0.2/MSDK/wpa_supplicant/src/ap\ieee802_11_he.c **** 
 221:C:/Users/stapi/OneDrive/Desktop/GD32VW553/V1_MQTT_OK/GD32VW55X_Wifi_BLE_SDK/GD32VW55x_RELEASE_V1.0.2/MSDK/wpa_supplicant/src/ap\ieee802_11_he.c **** 		params |= HE_OPERATION_6GHZ_OPER_INFO;
 547              		.loc 1 221 3 is_stmt 1
 222:C:/Users/stapi/OneDrive/Desktop/GD32VW553/V1_MQTT_OK/GD32VW55X_Wifi_BLE_SDK/GD32VW55x_RELEASE_V1.0.2/MSDK/wpa_supplicant/src/ap\ieee802_11_he.c **** 
 223:C:/Users/stapi/OneDrive/Desktop/GD32VW553/V1_MQTT_OK/GD32VW55X_Wifi_BLE_SDK/GD32VW55x_RELEASE_V1.0.2/MSDK/wpa_supplicant/src/ap\ieee802_11_he.c **** 		/* 6 GHz Operation Information field
 224:C:/Users/stapi/OneDrive/Desktop/GD32VW553/V1_MQTT_OK/GD32VW55X_Wifi_BLE_SDK/GD32VW55x_RELEASE_V1.0.2/MSDK/wpa_supplicant/src/ap\ieee802_11_he.c **** 		 * IEEE P802.11ax/D8.0, 9.4.2.249 HE Operation element,
 225:C:/Users/stapi/OneDrive/Desktop/GD32VW553/V1_MQTT_OK/GD32VW55X_Wifi_BLE_SDK/GD32VW55x_RELEASE_V1.0.2/MSDK/wpa_supplicant/src/ap\ieee802_11_he.c **** 		 * Figure 9-788k
 226:C:/Users/stapi/OneDrive/Desktop/GD32VW553/V1_MQTT_OK/GD32VW55X_Wifi_BLE_SDK/GD32VW55x_RELEASE_V1.0.2/MSDK/wpa_supplicant/src/ap\ieee802_11_he.c **** 		 */
 227:C:/Users/stapi/OneDrive/Desktop/GD32VW553/V1_MQTT_OK/GD32VW55X_Wifi_BLE_SDK/GD32VW55x_RELEASE_V1.0.2/MSDK/wpa_supplicant/src/ap\ieee802_11_he.c **** 		*pos++ = hapd->iconf->channel; /* Primary Channel */
 548              		.loc 1 227 10 is_stmt 0
 549 00d8 A304F400 		sb	a5,9(s0)
 221:C:/Users/stapi/OneDrive/Desktop/GD32VW553/V1_MQTT_OK/GD32VW55X_Wifi_BLE_SDK/GD32VW55x_RELEASE_V1.0.2/MSDK/wpa_supplicant/src/ap\ieee802_11_he.c **** 
 550              		.loc 1 221 10
 551 00dc 93941429 		bseti	s1,s1,17
 552              	.LVL60:
 553              		.loc 1 227 3 is_stmt 1
 228:C:/Users/stapi/OneDrive/Desktop/GD32VW553/V1_MQTT_OK/GD32VW55X_Wifi_BLE_SDK/GD32VW55x_RELEASE_V1.0.2/MSDK/wpa_supplicant/src/ap\ieee802_11_he.c **** 
 229:C:/Users/stapi/OneDrive/Desktop/GD32VW553/V1_MQTT_OK/GD32VW55X_Wifi_BLE_SDK/GD32VW55x_RELEASE_V1.0.2/MSDK/wpa_supplicant/src/ap\ieee802_11_he.c **** 		/* Control: Channel Width */
 230:C:/Users/stapi/OneDrive/Desktop/GD32VW553/V1_MQTT_OK/GD32VW55X_Wifi_BLE_SDK/GD32VW55x_RELEASE_V1.0.2/MSDK/wpa_supplicant/src/ap\ieee802_11_he.c **** 		if (seg1)
 554              		.loc 1 230 3
 555              		.loc 1 230 6 is_stmt 0
 556 00e0 63070A06 		beq	s4,zero,.L45
 231:C:/Users/stapi/OneDrive/Desktop/GD32VW553/V1_MQTT_OK/GD32VW55X_Wifi_BLE_SDK/GD32VW55x_RELEASE_V1.0.2/MSDK/wpa_supplicant/src/ap\ieee802_11_he.c **** 			*pos++ = 3;
 557              		.loc 1 231 4 is_stmt 1
 558              	.LVL61:
 559              		.loc 1 231 11 is_stmt 0
 560 00e4 8D47     		li	a5,3
 561 00e6 2305F400 		sb	a5,10(s0)
 562              	.LVL62:
 563              	.L46:
 232:C:/Users/stapi/OneDrive/Desktop/GD32VW553/V1_MQTT_OK/GD32VW55X_Wifi_BLE_SDK/GD32VW55x_RELEASE_V1.0.2/MSDK/wpa_supplicant/src/ap\ieee802_11_he.c **** 		else
 233:C:/Users/stapi/OneDrive/Desktop/GD32VW553/V1_MQTT_OK/GD32VW55X_Wifi_BLE_SDK/GD32VW55x_RELEASE_V1.0.2/MSDK/wpa_supplicant/src/ap\ieee802_11_he.c **** 			*pos++ = center_idx_to_bw_6ghz(seg0);
 234:C:/Users/stapi/OneDrive/Desktop/GD32VW553/V1_MQTT_OK/GD32VW55X_Wifi_BLE_SDK/GD32VW55x_RELEASE_V1.0.2/MSDK/wpa_supplicant/src/ap\ieee802_11_he.c **** 
 235:C:/Users/stapi/OneDrive/Desktop/GD32VW553/V1_MQTT_OK/GD32VW55X_Wifi_BLE_SDK/GD32VW55x_RELEASE_V1.0.2/MSDK/wpa_supplicant/src/ap\ieee802_11_he.c **** 		/* Channel Center Freq Seg0/Seg1 */
 236:C:/Users/stapi/OneDrive/Desktop/GD32VW553/V1_MQTT_OK/GD32VW55X_Wifi_BLE_SDK/GD32VW55x_RELEASE_V1.0.2/MSDK/wpa_supplicant/src/ap\ieee802_11_he.c **** 		if (hapd->iconf->he_oper_chwidth == 2) {
 564              		.loc 1 236 3 is_stmt 1
 565              		.loc 1 236 11 is_stmt 0
 566 00ea 83A74900 		lw	a5,4(s3)
 567              		.loc 1 236 6
 568 00ee 0947     		li	a4,2
 569 00f0 83C69718 		lbu	a3,393(a5)
 570 00f4 639BE600 		bne	a3,a4,.L47
 237:C:/Users/stapi/OneDrive/Desktop/GD32VW553/V1_MQTT_OK/GD32VW55X_Wifi_BLE_SDK/GD32VW55x_RELEASE_V1.0.2/MSDK/wpa_supplicant/src/ap\ieee802_11_he.c **** 			/*
 238:C:/Users/stapi/OneDrive/Desktop/GD32VW553/V1_MQTT_OK/GD32VW55X_Wifi_BLE_SDK/GD32VW55x_RELEASE_V1.0.2/MSDK/wpa_supplicant/src/ap\ieee802_11_he.c **** 			 * Seg 0 indicates the channel center frequency index of
 239:C:/Users/stapi/OneDrive/Desktop/GD32VW553/V1_MQTT_OK/GD32VW55X_Wifi_BLE_SDK/GD32VW55x_RELEASE_V1.0.2/MSDK/wpa_supplicant/src/ap\ieee802_11_he.c **** 			 * the 160 MHz channel.
 240:C:/Users/stapi/OneDrive/Desktop/GD32VW553/V1_MQTT_OK/GD32VW55X_Wifi_BLE_SDK/GD32VW55x_RELEASE_V1.0.2/MSDK/wpa_supplicant/src/ap\ieee802_11_he.c **** 			 */
 241:C:/Users/stapi/OneDrive/Desktop/GD32VW553/V1_MQTT_OK/GD32VW55X_Wifi_BLE_SDK/GD32VW55x_RELEASE_V1.0.2/MSDK/wpa_supplicant/src/ap\ieee802_11_he.c **** 			seg1 = seg0;
 571              		.loc 1 241 4 is_stmt 1
 572              	.LVL63:
 242:C:/Users/stapi/OneDrive/Desktop/GD32VW553/V1_MQTT_OK/GD32VW55X_Wifi_BLE_SDK/GD32VW55x_RELEASE_V1.0.2/MSDK/wpa_supplicant/src/ap\ieee802_11_he.c **** 			if (hapd->iconf->channel < seg0)
 573              		.loc 1 242 4
 574              		.loc 1 242 7 is_stmt 0
 575 00f8 83C79701 		lbu	a5,25(a5)
 576 00fc 63F12707 		bgeu	a5,s2,.L48
 243:C:/Users/stapi/OneDrive/Desktop/GD32VW553/V1_MQTT_OK/GD32VW55X_Wifi_BLE_SDK/GD32VW55x_RELEASE_V1.0.2/MSDK/wpa_supplicant/src/ap\ieee802_11_he.c **** 				seg0 -= 8;
 577              		.loc 1 243 5 is_stmt 1
 578              		.loc 1 243 10 is_stmt 0
 579 0100 930789FF 		addi	a5,s2,-8
 580              	.L71:
 581              	.LVL64:
 244:C:/Users/stapi/OneDrive/Desktop/GD32VW553/V1_MQTT_OK/GD32VW55X_Wifi_BLE_SDK/GD32VW55x_RELEASE_V1.0.2/MSDK/wpa_supplicant/src/ap\ieee802_11_he.c **** 			else
 245:C:/Users/stapi/OneDrive/Desktop/GD32VW553/V1_MQTT_OK/GD32VW55X_Wifi_BLE_SDK/GD32VW55x_RELEASE_V1.0.2/MSDK/wpa_supplicant/src/ap\ieee802_11_he.c **** 				seg0 += 8;
 582              		.loc 1 245 10
 583 0104 4A8A     		mv	s4,s2
 584 0106 13F9F70F 		andi	s2,a5,0xff
 585              	.LVL65:
 586              	.L47:
 246:C:/Users/stapi/OneDrive/Desktop/GD32VW553/V1_MQTT_OK/GD32VW55X_Wifi_BLE_SDK/GD32VW55x_RELEASE_V1.0.2/MSDK/wpa_supplicant/src/ap\ieee802_11_he.c **** 		}
 247:C:/Users/stapi/OneDrive/Desktop/GD32VW553/V1_MQTT_OK/GD32VW55X_Wifi_BLE_SDK/GD32VW55x_RELEASE_V1.0.2/MSDK/wpa_supplicant/src/ap\ieee802_11_he.c **** 
 248:C:/Users/stapi/OneDrive/Desktop/GD32VW553/V1_MQTT_OK/GD32VW55X_Wifi_BLE_SDK/GD32VW55x_RELEASE_V1.0.2/MSDK/wpa_supplicant/src/ap\ieee802_11_he.c **** 		*pos++ = seg0;
 587              		.loc 1 248 3 is_stmt 1
 249:C:/Users/stapi/OneDrive/Desktop/GD32VW553/V1_MQTT_OK/GD32VW55X_Wifi_BLE_SDK/GD32VW55x_RELEASE_V1.0.2/MSDK/wpa_supplicant/src/ap\ieee802_11_he.c **** 		*pos++ = seg1;
 250:C:/Users/stapi/OneDrive/Desktop/GD32VW553/V1_MQTT_OK/GD32VW55X_Wifi_BLE_SDK/GD32VW55x_RELEASE_V1.0.2/MSDK/wpa_supplicant/src/ap\ieee802_11_he.c **** 		/* Minimum Rate */
 251:C:/Users/stapi/OneDrive/Desktop/GD32VW553/V1_MQTT_OK/GD32VW55X_Wifi_BLE_SDK/GD32VW55x_RELEASE_V1.0.2/MSDK/wpa_supplicant/src/ap\ieee802_11_he.c **** 		*pos++ = 6; /* TODO: what should be set here? */
 588              		.loc 1 251 10 is_stmt 0
 589 010a 9947     		li	a5,6
 248:C:/Users/stapi/OneDrive/Desktop/GD32VW553/V1_MQTT_OK/GD32VW55X_Wifi_BLE_SDK/GD32VW55x_RELEASE_V1.0.2/MSDK/wpa_supplicant/src/ap\ieee802_11_he.c **** 		*pos++ = seg1;
 590              		.loc 1 248 10
 591 010c A3052401 		sb	s2,11(s0)
 249:C:/Users/stapi/OneDrive/Desktop/GD32VW553/V1_MQTT_OK/GD32VW55X_Wifi_BLE_SDK/GD32VW55x_RELEASE_V1.0.2/MSDK/wpa_supplicant/src/ap\ieee802_11_he.c **** 		*pos++ = seg1;
 592              		.loc 1 249 3 is_stmt 1
 593              	.LVL66:
 249:C:/Users/stapi/OneDrive/Desktop/GD32VW553/V1_MQTT_OK/GD32VW55X_Wifi_BLE_SDK/GD32VW55x_RELEASE_V1.0.2/MSDK/wpa_supplicant/src/ap\ieee802_11_he.c **** 		*pos++ = seg1;
 594              		.loc 1 249 10 is_stmt 0
 595 0110 23064401 		sb	s4,12(s0)
 596              		.loc 1 251 3 is_stmt 1
 597              		.loc 1 251 7 is_stmt 0
 598 0114 1307E400 		addi	a4,s0,14
 599              	.LVL67:
 600              		.loc 1 251 10
 601 0118 A306F400 		sb	a5,13(s0)
 602              	.LVL68:
 603              	.L41:
 604              	.LBE23:
 252:C:/Users/stapi/OneDrive/Desktop/GD32VW553/V1_MQTT_OK/GD32VW55X_Wifi_BLE_SDK/GD32VW55x_RELEASE_V1.0.2/MSDK/wpa_supplicant/src/ap\ieee802_11_he.c **** 	}
 253:C:/Users/stapi/OneDrive/Desktop/GD32VW553/V1_MQTT_OK/GD32VW55X_Wifi_BLE_SDK/GD32VW55x_RELEASE_V1.0.2/MSDK/wpa_supplicant/src/ap\ieee802_11_he.c **** 
 254:C:/Users/stapi/OneDrive/Desktop/GD32VW553/V1_MQTT_OK/GD32VW55X_Wifi_BLE_SDK/GD32VW55x_RELEASE_V1.0.2/MSDK/wpa_supplicant/src/ap\ieee802_11_he.c **** 	oper->he_oper_params = host_to_le32(params);
 605              		.loc 1 254 2 is_stmt 1
 606              		.loc 1 254 23 is_stmt 0
 607 011c 93D78400 		srli	a5,s1,8
 608 0120 2302F400 		sb	a5,4(s0)
 609 0124 93D70401 		srli	a5,s1,16
 610 0128 A302F400 		sb	a5,5(s0)
 611 012c 93D78401 		srli	a5,s1,24
 612 0130 A3019400 		sb	s1,3(s0)
 613 0134 2303F400 		sb	a5,6(s0)
 255:C:/Users/stapi/OneDrive/Desktop/GD32VW553/V1_MQTT_OK/GD32VW55X_Wifi_BLE_SDK/GD32VW55x_RELEASE_V1.0.2/MSDK/wpa_supplicant/src/ap\ieee802_11_he.c **** 
 256:C:/Users/stapi/OneDrive/Desktop/GD32VW553/V1_MQTT_OK/GD32VW55X_Wifi_BLE_SDK/GD32VW55x_RELEASE_V1.0.2/MSDK/wpa_supplicant/src/ap\ieee802_11_he.c **** 	return pos;
 614              		.loc 1 256 2 is_stmt 1
 615              		.loc 1 256 9 is_stmt 0
 616 0138 3A84     		mv	s0,a4
 617              	.LVL69:
 618              	.L33:
 257:C:/Users/stapi/OneDrive/Desktop/GD32VW553/V1_MQTT_OK/GD32VW55X_Wifi_BLE_SDK/GD32VW55x_RELEASE_V1.0.2/MSDK/wpa_supplicant/src/ap\ieee802_11_he.c **** }
 619              		.loc 1 257 1
 620 013a 2285     		mv	a0,s0
 621 013c 17030000 		tail	__riscv_restore_5
 621      67000300 
 622              		.cfi_remember_state
 623              		.cfi_restore 20
 624              		.cfi_restore 19
 625              		.cfi_restore 18
 626              		.cfi_restore 9
 627              		.cfi_restore 8
 628              		.cfi_restore 1
 629              		.cfi_def_cfa_offset 0
 630              	.LVL70:
 631              	.L42:
 632              		.cfi_restore_state
 633              	.LBB32:
 634              	.LBB30:
 635              	.LBB26:
1134:C:/Users/stapi/OneDrive/Desktop/GD32VW553/V1_MQTT_OK/GD32VW55X_Wifi_BLE_SDK/GD32VW55x_RELEASE_V1.0.2/MSDK/wpa_supplicant/src/ap\ap_config.h **** }
 636              		.loc 2 1134 2 is_stmt 1
1134:C:/Users/stapi/OneDrive/Desktop/GD32VW553/V1_MQTT_OK/GD32VW55X_Wifi_BLE_SDK/GD32VW55x_RELEASE_V1.0.2/MSDK/wpa_supplicant/src/ap\ap_config.h **** }
 637              		.loc 2 1134 13 is_stmt 0
 638 0144 03C91714 		lbu	s2,321(a5)
 639              	.LVL71:
 640              	.LBE26:
 641              	.LBE30:
 216:C:/Users/stapi/OneDrive/Desktop/GD32VW553/V1_MQTT_OK/GD32VW55X_Wifi_BLE_SDK/GD32VW55x_RELEASE_V1.0.2/MSDK/wpa_supplicant/src/ap\ieee802_11_he.c **** 
 642              		.loc 1 216 3 is_stmt 1
 643              	.LBB31:
 644              	.LBB29:
1152:C:/Users/stapi/OneDrive/Desktop/GD32VW553/V1_MQTT_OK/GD32VW55X_Wifi_BLE_SDK/GD32VW55x_RELEASE_V1.0.2/MSDK/wpa_supplicant/src/ap\ap_config.h **** 		return conf->he_oper_centr_freq_seg1_idx;
 645              		.loc 2 1152 2
1154:C:/Users/stapi/OneDrive/Desktop/GD32VW553/V1_MQTT_OK/GD32VW55X_Wifi_BLE_SDK/GD32VW55x_RELEASE_V1.0.2/MSDK/wpa_supplicant/src/ap\ap_config.h **** #endif /* CONFIG_IEEE80211AX */
1155:C:/Users/stapi/OneDrive/Desktop/GD32VW553/V1_MQTT_OK/GD32VW55X_Wifi_BLE_SDK/GD32VW55x_RELEASE_V1.0.2/MSDK/wpa_supplicant/src/ap\ap_config.h **** 	return conf->vht_oper_centr_freq_seg1_idx;
 646              		.loc 2 1155 2
 647              		.loc 2 1155 13 is_stmt 0
 648 0148 03CA2714 		lbu	s4,322(a5)
 649 014c 49B7     		j	.L43
 650              	.LVL72:
 651              	.L45:
 652              	.LBE29:
 653              	.LBE31:
 233:C:/Users/stapi/OneDrive/Desktop/GD32VW553/V1_MQTT_OK/GD32VW55X_Wifi_BLE_SDK/GD32VW55x_RELEASE_V1.0.2/MSDK/wpa_supplicant/src/ap\ieee802_11_he.c **** 
 654              		.loc 1 233 4 is_stmt 1
 233:C:/Users/stapi/OneDrive/Desktop/GD32VW553/V1_MQTT_OK/GD32VW55X_Wifi_BLE_SDK/GD32VW55x_RELEASE_V1.0.2/MSDK/wpa_supplicant/src/ap\ieee802_11_he.c **** 
 655              		.loc 1 233 13 is_stmt 0
 656 014e 4A85     		mv	a0,s2
 657 0150 97000000 		call	center_idx_to_bw_6ghz
 657      E7800000 
 658              	.LVL73:
 233:C:/Users/stapi/OneDrive/Desktop/GD32VW553/V1_MQTT_OK/GD32VW55X_Wifi_BLE_SDK/GD32VW55x_RELEASE_V1.0.2/MSDK/wpa_supplicant/src/ap\ieee802_11_he.c **** 
 659              		.loc 1 233 11
 660 0158 2305A400 		sb	a0,10(s0)
 661 015c 79B7     		j	.L46
 662              	.LVL74:
 663              	.L48:
 245:C:/Users/stapi/OneDrive/Desktop/GD32VW553/V1_MQTT_OK/GD32VW55X_Wifi_BLE_SDK/GD32VW55x_RELEASE_V1.0.2/MSDK/wpa_supplicant/src/ap\ieee802_11_he.c **** 		}
 664              		.loc 1 245 5 is_stmt 1
 245:C:/Users/stapi/OneDrive/Desktop/GD32VW553/V1_MQTT_OK/GD32VW55X_Wifi_BLE_SDK/GD32VW55x_RELEASE_V1.0.2/MSDK/wpa_supplicant/src/ap\ieee802_11_he.c **** 		}
 665              		.loc 1 245 10 is_stmt 0
 666 015e 93078900 		addi	a5,s2,8
 667 0162 4DB7     		j	.L71
 668              	.LBE32:
 669              		.cfi_endproc
 670              	.LFE143:
 672              		.section	.rodata.hostapd_eid_he_mu_edca_parameter_set.str1.4,"aMS",@progbits,1
 673              		.align	2
 674              	.LC0:
 675 0000 48453A20 		.string	"HE: MU EDCA Parameter Set element"
 675      4D552045 
 675      44434120 
 675      50617261 
 675      6D657465 
 676              		.section	.text.hostapd_eid_he_mu_edca_parameter_set,"ax",@progbits
 677              		.align	1
 678              		.globl	hostapd_eid_he_mu_edca_parameter_set
 680              	hostapd_eid_he_mu_edca_parameter_set:
 681              	.LFB144:
 258:C:/Users/stapi/OneDrive/Desktop/GD32VW553/V1_MQTT_OK/GD32VW55X_Wifi_BLE_SDK/GD32VW55x_RELEASE_V1.0.2/MSDK/wpa_supplicant/src/ap\ieee802_11_he.c **** 
 259:C:/Users/stapi/OneDrive/Desktop/GD32VW553/V1_MQTT_OK/GD32VW55X_Wifi_BLE_SDK/GD32VW55x_RELEASE_V1.0.2/MSDK/wpa_supplicant/src/ap\ieee802_11_he.c **** 
 260:C:/Users/stapi/OneDrive/Desktop/GD32VW553/V1_MQTT_OK/GD32VW55X_Wifi_BLE_SDK/GD32VW55x_RELEASE_V1.0.2/MSDK/wpa_supplicant/src/ap\ieee802_11_he.c **** u8 * hostapd_eid_he_mu_edca_parameter_set(struct hostapd_data *hapd, u8 *eid)
 261:C:/Users/stapi/OneDrive/Desktop/GD32VW553/V1_MQTT_OK/GD32VW55X_Wifi_BLE_SDK/GD32VW55x_RELEASE_V1.0.2/MSDK/wpa_supplicant/src/ap\ieee802_11_he.c **** {
 682              		.loc 1 261 1 is_stmt 1
 683              		.cfi_startproc
 684              	.LVL75:
 685 0000 17030000 		call	t0,__riscv_save_2
 685      E7020300 
 686              		.cfi_offset 9, -12
 687              		.cfi_offset 8, -8
 688              		.cfi_offset 1, -4
 689              		.cfi_def_cfa_offset 16
 262:C:/Users/stapi/OneDrive/Desktop/GD32VW553/V1_MQTT_OK/GD32VW55X_Wifi_BLE_SDK/GD32VW55x_RELEASE_V1.0.2/MSDK/wpa_supplicant/src/ap\ieee802_11_he.c **** 	struct ieee80211_he_mu_edca_parameter_set *edca;
 690              		.loc 1 262 2
 263:C:/Users/stapi/OneDrive/Desktop/GD32VW553/V1_MQTT_OK/GD32VW55X_Wifi_BLE_SDK/GD32VW55x_RELEASE_V1.0.2/MSDK/wpa_supplicant/src/ap\ieee802_11_he.c **** 	u8 *pos;
 691              		.loc 1 263 2
 264:C:/Users/stapi/OneDrive/Desktop/GD32VW553/V1_MQTT_OK/GD32VW55X_Wifi_BLE_SDK/GD32VW55x_RELEASE_V1.0.2/MSDK/wpa_supplicant/src/ap\ieee802_11_he.c **** 	size_t i;
 692              		.loc 1 264 2
 265:C:/Users/stapi/OneDrive/Desktop/GD32VW553/V1_MQTT_OK/GD32VW55X_Wifi_BLE_SDK/GD32VW55x_RELEASE_V1.0.2/MSDK/wpa_supplicant/src/ap\ieee802_11_he.c **** 
 266:C:/Users/stapi/OneDrive/Desktop/GD32VW553/V1_MQTT_OK/GD32VW55X_Wifi_BLE_SDK/GD32VW55x_RELEASE_V1.0.2/MSDK/wpa_supplicant/src/ap\ieee802_11_he.c **** 	pos = (u8 *) &hapd->iface->conf->he_mu_edca;
 693              		.loc 1 266 2
 694              		.loc 1 266 27 is_stmt 0
 695 0008 1C41     		lw	a5,0(a0)
 261:C:/Users/stapi/OneDrive/Desktop/GD32VW553/V1_MQTT_OK/GD32VW55X_Wifi_BLE_SDK/GD32VW55x_RELEASE_V1.0.2/MSDK/wpa_supplicant/src/ap\ieee802_11_he.c **** 	struct ieee80211_he_mu_edca_parameter_set *edca;
 696              		.loc 1 261 1
 697 000a 2E84     		mv	s0,a1
 698              		.loc 1 266 27
 699 000c D847     		lw	a4,12(a5)
 700              	.LVL76:
 267:C:/Users/stapi/OneDrive/Desktop/GD32VW553/V1_MQTT_OK/GD32VW55X_Wifi_BLE_SDK/GD32VW55x_RELEASE_V1.0.2/MSDK/wpa_supplicant/src/ap\ieee802_11_he.c **** 	for (i = 0; i < sizeof(*edca); i++) {
 701              		.loc 1 267 2 is_stmt 1
 702              		.loc 1 267 14
 703 000e 93078716 		addi	a5,a4,360
 704 0012 13075717 		addi	a4,a4,373
 705              	.LVL77:
 706              	.L74:
 268:C:/Users/stapi/OneDrive/Desktop/GD32VW553/V1_MQTT_OK/GD32VW55X_Wifi_BLE_SDK/GD32VW55x_RELEASE_V1.0.2/MSDK/wpa_supplicant/src/ap\ieee802_11_he.c **** 		if (pos[i])
 707              		.loc 1 268 3
 708              		.loc 1 268 6 is_stmt 0
 709 0016 83C60700 		lbu	a3,0(a5)
 710 001a 89EA     		bne	a3,zero,.L73
 267:C:/Users/stapi/OneDrive/Desktop/GD32VW553/V1_MQTT_OK/GD32VW55X_Wifi_BLE_SDK/GD32VW55x_RELEASE_V1.0.2/MSDK/wpa_supplicant/src/ap\ieee802_11_he.c **** 	for (i = 0; i < sizeof(*edca); i++) {
 711              		.loc 1 267 33 is_stmt 1 discriminator 2
 712              	.LVL78:
 267:C:/Users/stapi/OneDrive/Desktop/GD32VW553/V1_MQTT_OK/GD32VW55X_Wifi_BLE_SDK/GD32VW55x_RELEASE_V1.0.2/MSDK/wpa_supplicant/src/ap\ieee802_11_he.c **** 	for (i = 0; i < sizeof(*edca); i++) {
 713              		.loc 1 267 14 discriminator 2
 267:C:/Users/stapi/OneDrive/Desktop/GD32VW553/V1_MQTT_OK/GD32VW55X_Wifi_BLE_SDK/GD32VW55x_RELEASE_V1.0.2/MSDK/wpa_supplicant/src/ap\ieee802_11_he.c **** 	for (i = 0; i < sizeof(*edca); i++) {
 714              		.loc 1 267 2 is_stmt 0 discriminator 2
 715 001c 8507     		addi	a5,a5,1
 716              	.LVL79:
 717 001e E31CF7FE 		bne	a4,a5,.L74
 718              	.LVL80:
 719              	.L77:
 269:C:/Users/stapi/OneDrive/Desktop/GD32VW553/V1_MQTT_OK/GD32VW55X_Wifi_BLE_SDK/GD32VW55x_RELEASE_V1.0.2/MSDK/wpa_supplicant/src/ap\ieee802_11_he.c **** 			break;
 270:C:/Users/stapi/OneDrive/Desktop/GD32VW553/V1_MQTT_OK/GD32VW55X_Wifi_BLE_SDK/GD32VW55x_RELEASE_V1.0.2/MSDK/wpa_supplicant/src/ap\ieee802_11_he.c **** 	}
 271:C:/Users/stapi/OneDrive/Desktop/GD32VW553/V1_MQTT_OK/GD32VW55X_Wifi_BLE_SDK/GD32VW55x_RELEASE_V1.0.2/MSDK/wpa_supplicant/src/ap\ieee802_11_he.c **** 	if (i == sizeof(*edca))
 272:C:/Users/stapi/OneDrive/Desktop/GD32VW553/V1_MQTT_OK/GD32VW55X_Wifi_BLE_SDK/GD32VW55x_RELEASE_V1.0.2/MSDK/wpa_supplicant/src/ap\ieee802_11_he.c **** 		return eid; /* no MU EDCA Parameters configured */
 273:C:/Users/stapi/OneDrive/Desktop/GD32VW553/V1_MQTT_OK/GD32VW55X_Wifi_BLE_SDK/GD32VW55x_RELEASE_V1.0.2/MSDK/wpa_supplicant/src/ap\ieee802_11_he.c **** 
 274:C:/Users/stapi/OneDrive/Desktop/GD32VW553/V1_MQTT_OK/GD32VW55X_Wifi_BLE_SDK/GD32VW55x_RELEASE_V1.0.2/MSDK/wpa_supplicant/src/ap\ieee802_11_he.c **** 	pos = eid;
 275:C:/Users/stapi/OneDrive/Desktop/GD32VW553/V1_MQTT_OK/GD32VW55X_Wifi_BLE_SDK/GD32VW55x_RELEASE_V1.0.2/MSDK/wpa_supplicant/src/ap\ieee802_11_he.c **** 	*pos++ = WLAN_EID_EXTENSION;
 276:C:/Users/stapi/OneDrive/Desktop/GD32VW553/V1_MQTT_OK/GD32VW55X_Wifi_BLE_SDK/GD32VW55x_RELEASE_V1.0.2/MSDK/wpa_supplicant/src/ap\ieee802_11_he.c **** 	*pos++ = 1 + sizeof(*edca);
 277:C:/Users/stapi/OneDrive/Desktop/GD32VW553/V1_MQTT_OK/GD32VW55X_Wifi_BLE_SDK/GD32VW55x_RELEASE_V1.0.2/MSDK/wpa_supplicant/src/ap\ieee802_11_he.c **** 	*pos++ = WLAN_EID_EXT_HE_MU_EDCA_PARAMS;
 278:C:/Users/stapi/OneDrive/Desktop/GD32VW553/V1_MQTT_OK/GD32VW55X_Wifi_BLE_SDK/GD32VW55x_RELEASE_V1.0.2/MSDK/wpa_supplicant/src/ap\ieee802_11_he.c **** 
 279:C:/Users/stapi/OneDrive/Desktop/GD32VW553/V1_MQTT_OK/GD32VW55X_Wifi_BLE_SDK/GD32VW55x_RELEASE_V1.0.2/MSDK/wpa_supplicant/src/ap\ieee802_11_he.c **** 	edca = (struct ieee80211_he_mu_edca_parameter_set *) pos;
 280:C:/Users/stapi/OneDrive/Desktop/GD32VW553/V1_MQTT_OK/GD32VW55X_Wifi_BLE_SDK/GD32VW55x_RELEASE_V1.0.2/MSDK/wpa_supplicant/src/ap\ieee802_11_he.c **** 	os_memcpy(edca, &hapd->iface->conf->he_mu_edca, sizeof(*edca));
 281:C:/Users/stapi/OneDrive/Desktop/GD32VW553/V1_MQTT_OK/GD32VW55X_Wifi_BLE_SDK/GD32VW55x_RELEASE_V1.0.2/MSDK/wpa_supplicant/src/ap\ieee802_11_he.c **** 
 282:C:/Users/stapi/OneDrive/Desktop/GD32VW553/V1_MQTT_OK/GD32VW55X_Wifi_BLE_SDK/GD32VW55x_RELEASE_V1.0.2/MSDK/wpa_supplicant/src/ap\ieee802_11_he.c **** 	wpa_hexdump(MSG_DEBUG, "HE: MU EDCA Parameter Set element",
 283:C:/Users/stapi/OneDrive/Desktop/GD32VW553/V1_MQTT_OK/GD32VW55X_Wifi_BLE_SDK/GD32VW55x_RELEASE_V1.0.2/MSDK/wpa_supplicant/src/ap\ieee802_11_he.c **** 		    pos, sizeof(*edca));
 284:C:/Users/stapi/OneDrive/Desktop/GD32VW553/V1_MQTT_OK/GD32VW55X_Wifi_BLE_SDK/GD32VW55x_RELEASE_V1.0.2/MSDK/wpa_supplicant/src/ap\ieee802_11_he.c **** 
 285:C:/Users/stapi/OneDrive/Desktop/GD32VW553/V1_MQTT_OK/GD32VW55X_Wifi_BLE_SDK/GD32VW55x_RELEASE_V1.0.2/MSDK/wpa_supplicant/src/ap\ieee802_11_he.c **** 	pos += sizeof(*edca);
 286:C:/Users/stapi/OneDrive/Desktop/GD32VW553/V1_MQTT_OK/GD32VW55X_Wifi_BLE_SDK/GD32VW55x_RELEASE_V1.0.2/MSDK/wpa_supplicant/src/ap\ieee802_11_he.c **** 
 287:C:/Users/stapi/OneDrive/Desktop/GD32VW553/V1_MQTT_OK/GD32VW55X_Wifi_BLE_SDK/GD32VW55x_RELEASE_V1.0.2/MSDK/wpa_supplicant/src/ap\ieee802_11_he.c **** 	return pos;
 288:C:/Users/stapi/OneDrive/Desktop/GD32VW553/V1_MQTT_OK/GD32VW55X_Wifi_BLE_SDK/GD32VW55x_RELEASE_V1.0.2/MSDK/wpa_supplicant/src/ap\ieee802_11_he.c **** }
 720              		.loc 1 288 1
 721 0022 2285     		mv	a0,s0
 722 0024 17030000 		tail	__riscv_restore_2
 722      67000300 
 723              		.cfi_remember_state
 724              		.cfi_restore 9
 725              		.cfi_restore 8
 726              		.cfi_restore 1
 727              		.cfi_def_cfa_offset 0
 728              	.LVL81:
 729              	.L73:
 730              		.cfi_restore_state
 271:C:/Users/stapi/OneDrive/Desktop/GD32VW553/V1_MQTT_OK/GD32VW55X_Wifi_BLE_SDK/GD32VW55x_RELEASE_V1.0.2/MSDK/wpa_supplicant/src/ap\ieee802_11_he.c **** 		return eid; /* no MU EDCA Parameters configured */
 731              		.loc 1 271 2 is_stmt 1
 274:C:/Users/stapi/OneDrive/Desktop/GD32VW553/V1_MQTT_OK/GD32VW55X_Wifi_BLE_SDK/GD32VW55x_RELEASE_V1.0.2/MSDK/wpa_supplicant/src/ap\ieee802_11_he.c **** 	*pos++ = WLAN_EID_EXTENSION;
 732              		.loc 1 274 2
 275:C:/Users/stapi/OneDrive/Desktop/GD32VW553/V1_MQTT_OK/GD32VW55X_Wifi_BLE_SDK/GD32VW55x_RELEASE_V1.0.2/MSDK/wpa_supplicant/src/ap\ieee802_11_he.c **** 	*pos++ = 1 + sizeof(*edca);
 733              		.loc 1 275 2
 275:C:/Users/stapi/OneDrive/Desktop/GD32VW553/V1_MQTT_OK/GD32VW55X_Wifi_BLE_SDK/GD32VW55x_RELEASE_V1.0.2/MSDK/wpa_supplicant/src/ap\ieee802_11_he.c **** 	*pos++ = 1 + sizeof(*edca);
 734              		.loc 1 275 9 is_stmt 0
 735 002c FD57     		li	a5,-1
 736              	.LVL82:
 737 002e 2300F400 		sb	a5,0(s0)
 276:C:/Users/stapi/OneDrive/Desktop/GD32VW553/V1_MQTT_OK/GD32VW55X_Wifi_BLE_SDK/GD32VW55x_RELEASE_V1.0.2/MSDK/wpa_supplicant/src/ap\ieee802_11_he.c **** 	*pos++ = WLAN_EID_EXT_HE_MU_EDCA_PARAMS;
 738              		.loc 1 276 2 is_stmt 1
 739              	.LVL83:
 276:C:/Users/stapi/OneDrive/Desktop/GD32VW553/V1_MQTT_OK/GD32VW55X_Wifi_BLE_SDK/GD32VW55x_RELEASE_V1.0.2/MSDK/wpa_supplicant/src/ap\ieee802_11_he.c **** 	*pos++ = WLAN_EID_EXT_HE_MU_EDCA_PARAMS;
 740              		.loc 1 276 9 is_stmt 0
 741 0032 B947     		li	a5,14
 742 0034 A300F400 		sb	a5,1(s0)
 277:C:/Users/stapi/OneDrive/Desktop/GD32VW553/V1_MQTT_OK/GD32VW55X_Wifi_BLE_SDK/GD32VW55x_RELEASE_V1.0.2/MSDK/wpa_supplicant/src/ap\ieee802_11_he.c **** 
 743              		.loc 1 277 2 is_stmt 1
 277:C:/Users/stapi/OneDrive/Desktop/GD32VW553/V1_MQTT_OK/GD32VW55X_Wifi_BLE_SDK/GD32VW55x_RELEASE_V1.0.2/MSDK/wpa_supplicant/src/ap\ieee802_11_he.c **** 
 744              		.loc 1 277 9 is_stmt 0
 745 0038 93076002 		li	a5,38
 746 003c 2301F400 		sb	a5,2(s0)
 280:C:/Users/stapi/OneDrive/Desktop/GD32VW553/V1_MQTT_OK/GD32VW55X_Wifi_BLE_SDK/GD32VW55x_RELEASE_V1.0.2/MSDK/wpa_supplicant/src/ap\ieee802_11_he.c **** 
 747              		.loc 1 280 30
 748 0040 1C41     		lw	a5,0(a0)
 277:C:/Users/stapi/OneDrive/Desktop/GD32VW553/V1_MQTT_OK/GD32VW55X_Wifi_BLE_SDK/GD32VW55x_RELEASE_V1.0.2/MSDK/wpa_supplicant/src/ap\ieee802_11_he.c **** 
 749              		.loc 1 277 6
 750 0042 93043400 		addi	s1,s0,3
 751              	.LVL84:
 279:C:/Users/stapi/OneDrive/Desktop/GD32VW553/V1_MQTT_OK/GD32VW55X_Wifi_BLE_SDK/GD32VW55x_RELEASE_V1.0.2/MSDK/wpa_supplicant/src/ap\ieee802_11_he.c **** 	os_memcpy(edca, &hapd->iface->conf->he_mu_edca, sizeof(*edca));
 752              		.loc 1 279 2 is_stmt 1
 280:C:/Users/stapi/OneDrive/Desktop/GD32VW553/V1_MQTT_OK/GD32VW55X_Wifi_BLE_SDK/GD32VW55x_RELEASE_V1.0.2/MSDK/wpa_supplicant/src/ap\ieee802_11_he.c **** 
 753              		.loc 1 280 2
 754 0046 3546     		li	a2,13
 280:C:/Users/stapi/OneDrive/Desktop/GD32VW553/V1_MQTT_OK/GD32VW55X_Wifi_BLE_SDK/GD32VW55x_RELEASE_V1.0.2/MSDK/wpa_supplicant/src/ap\ieee802_11_he.c **** 
 755              		.loc 1 280 18 is_stmt 0
 756 0048 CC47     		lw	a1,12(a5)
 280:C:/Users/stapi/OneDrive/Desktop/GD32VW553/V1_MQTT_OK/GD32VW55X_Wifi_BLE_SDK/GD32VW55x_RELEASE_V1.0.2/MSDK/wpa_supplicant/src/ap\ieee802_11_he.c **** 
 757              		.loc 1 280 2
 758 004a 2685     		mv	a0,s1
 759              	.LVL85:
 285:C:/Users/stapi/OneDrive/Desktop/GD32VW553/V1_MQTT_OK/GD32VW55X_Wifi_BLE_SDK/GD32VW55x_RELEASE_V1.0.2/MSDK/wpa_supplicant/src/ap\ieee802_11_he.c **** 
 760              		.loc 1 285 6
 761 004c 4104     		addi	s0,s0,16
 762              	.LVL86:
 280:C:/Users/stapi/OneDrive/Desktop/GD32VW553/V1_MQTT_OK/GD32VW55X_Wifi_BLE_SDK/GD32VW55x_RELEASE_V1.0.2/MSDK/wpa_supplicant/src/ap\ieee802_11_he.c **** 
 763              		.loc 1 280 2
 764 004e 93858516 		addi	a1,a1,360
 765 0052 97000000 		call	os_memcpy
 765      E7800000 
 766              	.LVL87:
 282:C:/Users/stapi/OneDrive/Desktop/GD32VW553/V1_MQTT_OK/GD32VW55X_Wifi_BLE_SDK/GD32VW55x_RELEASE_V1.0.2/MSDK/wpa_supplicant/src/ap\ieee802_11_he.c **** 		    pos, sizeof(*edca));
 767              		.loc 1 282 2 is_stmt 1
 768 005a B7050000 		lui	a1,%hi(.LC0)
 769 005e B546     		li	a3,13
 770 0060 2686     		mv	a2,s1
 771 0062 93850500 		addi	a1,a1,%lo(.LC0)
 772 0066 0945     		li	a0,2
 773 0068 97000000 		call	wpa_hexdump
 773      E7800000 
 774              	.LVL88:
 285:C:/Users/stapi/OneDrive/Desktop/GD32VW553/V1_MQTT_OK/GD32VW55X_Wifi_BLE_SDK/GD32VW55x_RELEASE_V1.0.2/MSDK/wpa_supplicant/src/ap\ieee802_11_he.c **** 
 775              		.loc 1 285 2
 287:C:/Users/stapi/OneDrive/Desktop/GD32VW553/V1_MQTT_OK/GD32VW55X_Wifi_BLE_SDK/GD32VW55x_RELEASE_V1.0.2/MSDK/wpa_supplicant/src/ap\ieee802_11_he.c **** }
 776              		.loc 1 287 2
 287:C:/Users/stapi/OneDrive/Desktop/GD32VW553/V1_MQTT_OK/GD32VW55X_Wifi_BLE_SDK/GD32VW55x_RELEASE_V1.0.2/MSDK/wpa_supplicant/src/ap\ieee802_11_he.c **** }
 777              		.loc 1 287 9 is_stmt 0
 778 0070 4DBF     		j	.L77
 779              		.cfi_endproc
 780              	.LFE144:
 782              		.section	.text.hostapd_eid_spatial_reuse,"ax",@progbits
 783              		.align	1
 784              		.globl	hostapd_eid_spatial_reuse
 786              	hostapd_eid_spatial_reuse:
 787              	.LFB145:
 289:C:/Users/stapi/OneDrive/Desktop/GD32VW553/V1_MQTT_OK/GD32VW55X_Wifi_BLE_SDK/GD32VW55x_RELEASE_V1.0.2/MSDK/wpa_supplicant/src/ap\ieee802_11_he.c **** 
 290:C:/Users/stapi/OneDrive/Desktop/GD32VW553/V1_MQTT_OK/GD32VW55X_Wifi_BLE_SDK/GD32VW55x_RELEASE_V1.0.2/MSDK/wpa_supplicant/src/ap\ieee802_11_he.c **** 
 291:C:/Users/stapi/OneDrive/Desktop/GD32VW553/V1_MQTT_OK/GD32VW55X_Wifi_BLE_SDK/GD32VW55x_RELEASE_V1.0.2/MSDK/wpa_supplicant/src/ap\ieee802_11_he.c **** u8 * hostapd_eid_spatial_reuse(struct hostapd_data *hapd, u8 *eid)
 292:C:/Users/stapi/OneDrive/Desktop/GD32VW553/V1_MQTT_OK/GD32VW55X_Wifi_BLE_SDK/GD32VW55x_RELEASE_V1.0.2/MSDK/wpa_supplicant/src/ap\ieee802_11_he.c **** {
 788              		.loc 1 292 1 is_stmt 1
 789              		.cfi_startproc
 790              	.LVL89:
 791 0000 17030000 		call	t0,__riscv_save_2
 791      E7020300 
 792              		.cfi_offset 9, -12
 793              		.cfi_offset 8, -8
 794              		.cfi_offset 1, -4
 795              		.cfi_def_cfa_offset 16
 293:C:/Users/stapi/OneDrive/Desktop/GD32VW553/V1_MQTT_OK/GD32VW55X_Wifi_BLE_SDK/GD32VW55x_RELEASE_V1.0.2/MSDK/wpa_supplicant/src/ap\ieee802_11_he.c **** 	struct ieee80211_spatial_reuse *spr;
 796              		.loc 1 293 2
 294:C:/Users/stapi/OneDrive/Desktop/GD32VW553/V1_MQTT_OK/GD32VW55X_Wifi_BLE_SDK/GD32VW55x_RELEASE_V1.0.2/MSDK/wpa_supplicant/src/ap\ieee802_11_he.c **** 	u8 *pos = eid, *spr_param;
 797              		.loc 1 294 2
 295:C:/Users/stapi/OneDrive/Desktop/GD32VW553/V1_MQTT_OK/GD32VW55X_Wifi_BLE_SDK/GD32VW55x_RELEASE_V1.0.2/MSDK/wpa_supplicant/src/ap\ieee802_11_he.c **** 	u8 sz = 1;
 296:C:/Users/stapi/OneDrive/Desktop/GD32VW553/V1_MQTT_OK/GD32VW55X_Wifi_BLE_SDK/GD32VW55x_RELEASE_V1.0.2/MSDK/wpa_supplicant/src/ap\ieee802_11_he.c **** 
 297:C:/Users/stapi/OneDrive/Desktop/GD32VW553/V1_MQTT_OK/GD32VW55X_Wifi_BLE_SDK/GD32VW55x_RELEASE_V1.0.2/MSDK/wpa_supplicant/src/ap\ieee802_11_he.c **** 	if (!hapd->iface->conf->spr.sr_control)
 798              		.loc 1 297 18 is_stmt 0
 799 0008 1C41     		lw	a5,0(a0)
 292:C:/Users/stapi/OneDrive/Desktop/GD32VW553/V1_MQTT_OK/GD32VW55X_Wifi_BLE_SDK/GD32VW55x_RELEASE_V1.0.2/MSDK/wpa_supplicant/src/ap\ieee802_11_he.c **** 	struct ieee80211_spatial_reuse *spr;
 800              		.loc 1 292 1
 801 000a 2E84     		mv	s0,a1
 802              	.LVL90:
 295:C:/Users/stapi/OneDrive/Desktop/GD32VW553/V1_MQTT_OK/GD32VW55X_Wifi_BLE_SDK/GD32VW55x_RELEASE_V1.0.2/MSDK/wpa_supplicant/src/ap\ieee802_11_he.c **** 	u8 sz = 1;
 803              		.loc 1 295 2 is_stmt 1
 804              		.loc 1 297 2
 805              		.loc 1 297 29 is_stmt 0
 806 000c DC47     		lw	a5,12(a5)
 807 000e 03C75717 		lbu	a4,373(a5)
 808              		.loc 1 297 5
 809 0012 59CB     		beq	a4,zero,.L80
 298:C:/Users/stapi/OneDrive/Desktop/GD32VW553/V1_MQTT_OK/GD32VW55X_Wifi_BLE_SDK/GD32VW55x_RELEASE_V1.0.2/MSDK/wpa_supplicant/src/ap\ieee802_11_he.c **** 		return eid;
 299:C:/Users/stapi/OneDrive/Desktop/GD32VW553/V1_MQTT_OK/GD32VW55X_Wifi_BLE_SDK/GD32VW55x_RELEASE_V1.0.2/MSDK/wpa_supplicant/src/ap\ieee802_11_he.c **** 
 300:C:/Users/stapi/OneDrive/Desktop/GD32VW553/V1_MQTT_OK/GD32VW55X_Wifi_BLE_SDK/GD32VW55x_RELEASE_V1.0.2/MSDK/wpa_supplicant/src/ap\ieee802_11_he.c **** 	if (hapd->iface->conf->spr.sr_control &
 301:C:/Users/stapi/OneDrive/Desktop/GD32VW553/V1_MQTT_OK/GD32VW55X_Wifi_BLE_SDK/GD32VW55x_RELEASE_V1.0.2/MSDK/wpa_supplicant/src/ap\ieee802_11_he.c **** 	    SPATIAL_REUSE_NON_SRG_OFFSET_PRESENT)
 302:C:/Users/stapi/OneDrive/Desktop/GD32VW553/V1_MQTT_OK/GD32VW55X_Wifi_BLE_SDK/GD32VW55x_RELEASE_V1.0.2/MSDK/wpa_supplicant/src/ap\ieee802_11_he.c **** 		sz++;
 810              		.loc 1 302 5
 811 0014 93572748 		bexti	a5,a4,2
 303:C:/Users/stapi/OneDrive/Desktop/GD32VW553/V1_MQTT_OK/GD32VW55X_Wifi_BLE_SDK/GD32VW55x_RELEASE_V1.0.2/MSDK/wpa_supplicant/src/ap\ieee802_11_he.c **** 
 304:C:/Users/stapi/OneDrive/Desktop/GD32VW553/V1_MQTT_OK/GD32VW55X_Wifi_BLE_SDK/GD32VW55x_RELEASE_V1.0.2/MSDK/wpa_supplicant/src/ap\ieee802_11_he.c **** 	if (hapd->iface->conf->spr.sr_control &
 812              		.loc 1 304 5
 813 0018 218B     		andi	a4,a4,8
 814 001a AA84     		mv	s1,a0
 300:C:/Users/stapi/OneDrive/Desktop/GD32VW553/V1_MQTT_OK/GD32VW55X_Wifi_BLE_SDK/GD32VW55x_RELEASE_V1.0.2/MSDK/wpa_supplicant/src/ap\ieee802_11_he.c **** 	    SPATIAL_REUSE_NON_SRG_OFFSET_PRESENT)
 815              		.loc 1 300 2 is_stmt 1
 302:C:/Users/stapi/OneDrive/Desktop/GD32VW553/V1_MQTT_OK/GD32VW55X_Wifi_BLE_SDK/GD32VW55x_RELEASE_V1.0.2/MSDK/wpa_supplicant/src/ap\ieee802_11_he.c **** 
 816              		.loc 1 302 5 is_stmt 0
 817 001c 8507     		addi	a5,a5,1
 818              	.LVL91:
 819              		.loc 1 304 2 is_stmt 1
 820              		.loc 1 304 5 is_stmt 0
 821 001e 01C7     		beq	a4,zero,.L82
 305:C:/Users/stapi/OneDrive/Desktop/GD32VW553/V1_MQTT_OK/GD32VW55X_Wifi_BLE_SDK/GD32VW55x_RELEASE_V1.0.2/MSDK/wpa_supplicant/src/ap\ieee802_11_he.c **** 	    SPATIAL_REUSE_SRG_INFORMATION_PRESENT)
 306:C:/Users/stapi/OneDrive/Desktop/GD32VW553/V1_MQTT_OK/GD32VW55X_Wifi_BLE_SDK/GD32VW55x_RELEASE_V1.0.2/MSDK/wpa_supplicant/src/ap\ieee802_11_he.c **** 		sz += 18;
 822              		.loc 1 306 3 is_stmt 1
 823              		.loc 1 306 6 is_stmt 0
 824 0020 C907     		addi	a5,a5,18
 825              	.LVL92:
 826 0022 93F7F70F 		andi	a5,a5,0xff
 827              	.LVL93:
 828              	.L82:
 307:C:/Users/stapi/OneDrive/Desktop/GD32VW553/V1_MQTT_OK/GD32VW55X_Wifi_BLE_SDK/GD32VW55x_RELEASE_V1.0.2/MSDK/wpa_supplicant/src/ap\ieee802_11_he.c **** 
 308:C:/Users/stapi/OneDrive/Desktop/GD32VW553/V1_MQTT_OK/GD32VW55X_Wifi_BLE_SDK/GD32VW55x_RELEASE_V1.0.2/MSDK/wpa_supplicant/src/ap\ieee802_11_he.c **** 	*pos++ = WLAN_EID_EXTENSION;
 829              		.loc 1 308 2 is_stmt 1
 309:C:/Users/stapi/OneDrive/Desktop/GD32VW553/V1_MQTT_OK/GD32VW55X_Wifi_BLE_SDK/GD32VW55x_RELEASE_V1.0.2/MSDK/wpa_supplicant/src/ap\ieee802_11_he.c **** 	*pos++ = 1 + sz;
 830              		.loc 1 309 13 is_stmt 0
 831 0026 8507     		addi	a5,a5,1
 832              	.LVL94:
 308:C:/Users/stapi/OneDrive/Desktop/GD32VW553/V1_MQTT_OK/GD32VW55X_Wifi_BLE_SDK/GD32VW55x_RELEASE_V1.0.2/MSDK/wpa_supplicant/src/ap\ieee802_11_he.c **** 	*pos++ = 1 + sz;
 833              		.loc 1 308 9
 834 0028 7D57     		li	a4,-1
 835              		.loc 1 309 9
 836 002a A300F400 		sb	a5,1(s0)
 310:C:/Users/stapi/OneDrive/Desktop/GD32VW553/V1_MQTT_OK/GD32VW55X_Wifi_BLE_SDK/GD32VW55x_RELEASE_V1.0.2/MSDK/wpa_supplicant/src/ap\ieee802_11_he.c **** 	*pos++ = WLAN_EID_EXT_SPATIAL_REUSE;
 837              		.loc 1 310 9
 838 002e 93077002 		li	a5,39
 308:C:/Users/stapi/OneDrive/Desktop/GD32VW553/V1_MQTT_OK/GD32VW55X_Wifi_BLE_SDK/GD32VW55x_RELEASE_V1.0.2/MSDK/wpa_supplicant/src/ap\ieee802_11_he.c **** 	*pos++ = 1 + sz;
 839              		.loc 1 308 9
 840 0032 2300E400 		sb	a4,0(s0)
 309:C:/Users/stapi/OneDrive/Desktop/GD32VW553/V1_MQTT_OK/GD32VW55X_Wifi_BLE_SDK/GD32VW55x_RELEASE_V1.0.2/MSDK/wpa_supplicant/src/ap\ieee802_11_he.c **** 	*pos++ = 1 + sz;
 841              		.loc 1 309 2 is_stmt 1
 842              	.LVL95:
 843              		.loc 1 310 2
 844              		.loc 1 310 9 is_stmt 0
 845 0036 2301F400 		sb	a5,2(s0)
 311:C:/Users/stapi/OneDrive/Desktop/GD32VW553/V1_MQTT_OK/GD32VW55X_Wifi_BLE_SDK/GD32VW55x_RELEASE_V1.0.2/MSDK/wpa_supplicant/src/ap\ieee802_11_he.c **** 
 312:C:/Users/stapi/OneDrive/Desktop/GD32VW553/V1_MQTT_OK/GD32VW55X_Wifi_BLE_SDK/GD32VW55x_RELEASE_V1.0.2/MSDK/wpa_supplicant/src/ap\ieee802_11_he.c **** 	spr = (struct ieee80211_spatial_reuse *) pos;
 846              		.loc 1 312 2 is_stmt 1
 847              	.LVL96:
 313:C:/Users/stapi/OneDrive/Desktop/GD32VW553/V1_MQTT_OK/GD32VW55X_Wifi_BLE_SDK/GD32VW55x_RELEASE_V1.0.2/MSDK/wpa_supplicant/src/ap\ieee802_11_he.c **** 	os_memset(spr, 0, sizeof(*spr));
 848              		.loc 1 313 2
 849 003a 5146     		li	a2,20
 850 003c 8145     		li	a1,0
 851              	.LVL97:
 852 003e 13053400 		addi	a0,s0,3
 853              	.LVL98:
 854 0042 97000000 		call	os_memset
 854      E7800000 
 855              	.LVL99:
 314:C:/Users/stapi/OneDrive/Desktop/GD32VW553/V1_MQTT_OK/GD32VW55X_Wifi_BLE_SDK/GD32VW55x_RELEASE_V1.0.2/MSDK/wpa_supplicant/src/ap\ieee802_11_he.c **** 
 315:C:/Users/stapi/OneDrive/Desktop/GD32VW553/V1_MQTT_OK/GD32VW55X_Wifi_BLE_SDK/GD32VW55x_RELEASE_V1.0.2/MSDK/wpa_supplicant/src/ap\ieee802_11_he.c **** 	spr->sr_ctrl = hapd->iface->conf->spr.sr_control;
 856              		.loc 1 315 2
 857              		.loc 1 315 28 is_stmt 0
 858 004a 9C40     		lw	a5,0(s1)
 859 004c D847     		lw	a4,12(a5)
 860              		.loc 1 315 39
 861 004e 83475717 		lbu	a5,373(a4)
 862              		.loc 1 315 15
 863 0052 A301F400 		sb	a5,3(s0)
 316:C:/Users/stapi/OneDrive/Desktop/GD32VW553/V1_MQTT_OK/GD32VW55X_Wifi_BLE_SDK/GD32VW55x_RELEASE_V1.0.2/MSDK/wpa_supplicant/src/ap\ieee802_11_he.c **** 	pos++;
 864              		.loc 1 316 2 is_stmt 1
 865              	.LVL100:
 317:C:/Users/stapi/OneDrive/Desktop/GD32VW553/V1_MQTT_OK/GD32VW55X_Wifi_BLE_SDK/GD32VW55x_RELEASE_V1.0.2/MSDK/wpa_supplicant/src/ap\ieee802_11_he.c **** 	spr_param = spr->params;
 866              		.loc 1 317 2
 318:C:/Users/stapi/OneDrive/Desktop/GD32VW553/V1_MQTT_OK/GD32VW55X_Wifi_BLE_SDK/GD32VW55x_RELEASE_V1.0.2/MSDK/wpa_supplicant/src/ap\ieee802_11_he.c **** 	if (spr->sr_ctrl & SPATIAL_REUSE_NON_SRG_OFFSET_PRESENT) {
 867              		.loc 1 318 2
 868              		.loc 1 318 5 is_stmt 0
 869 0056 93F64700 		andi	a3,a5,4
 870 005a A1EE     		bne	a3,zero,.L83
 316:C:/Users/stapi/OneDrive/Desktop/GD32VW553/V1_MQTT_OK/GD32VW55X_Wifi_BLE_SDK/GD32VW55x_RELEASE_V1.0.2/MSDK/wpa_supplicant/src/ap\ieee802_11_he.c **** 	pos++;
 871              		.loc 1 316 5
 872 005c 1104     		addi	s0,s0,4
 873              	.LVL101:
 874              	.L84:
 319:C:/Users/stapi/OneDrive/Desktop/GD32VW553/V1_MQTT_OK/GD32VW55X_Wifi_BLE_SDK/GD32VW55x_RELEASE_V1.0.2/MSDK/wpa_supplicant/src/ap\ieee802_11_he.c **** 		*spr_param++ =
 320:C:/Users/stapi/OneDrive/Desktop/GD32VW553/V1_MQTT_OK/GD32VW55X_Wifi_BLE_SDK/GD32VW55x_RELEASE_V1.0.2/MSDK/wpa_supplicant/src/ap\ieee802_11_he.c **** 			hapd->iface->conf->spr.non_srg_obss_pd_max_offset;
 321:C:/Users/stapi/OneDrive/Desktop/GD32VW553/V1_MQTT_OK/GD32VW55X_Wifi_BLE_SDK/GD32VW55x_RELEASE_V1.0.2/MSDK/wpa_supplicant/src/ap\ieee802_11_he.c **** 		pos++;
 322:C:/Users/stapi/OneDrive/Desktop/GD32VW553/V1_MQTT_OK/GD32VW55X_Wifi_BLE_SDK/GD32VW55x_RELEASE_V1.0.2/MSDK/wpa_supplicant/src/ap\ieee802_11_he.c **** 	}
 323:C:/Users/stapi/OneDrive/Desktop/GD32VW553/V1_MQTT_OK/GD32VW55X_Wifi_BLE_SDK/GD32VW55x_RELEASE_V1.0.2/MSDK/wpa_supplicant/src/ap\ieee802_11_he.c **** 	if (spr->sr_ctrl & SPATIAL_REUSE_SRG_INFORMATION_PRESENT) {
 875              		.loc 1 323 2 is_stmt 1
 876              		.loc 1 323 5 is_stmt 0
 877 005e A18B     		andi	a5,a5,8
 878 0060 A1C7     		beq	a5,zero,.L80
 324:C:/Users/stapi/OneDrive/Desktop/GD32VW553/V1_MQTT_OK/GD32VW55X_Wifi_BLE_SDK/GD32VW55x_RELEASE_V1.0.2/MSDK/wpa_supplicant/src/ap\ieee802_11_he.c **** 		*spr_param++ = hapd->iface->conf->spr.srg_obss_pd_min_offset;
 879              		.loc 1 324 3 is_stmt 1
 880              	.LVL102:
 881              		.loc 1 324 29 is_stmt 0
 882 0062 9C40     		lw	a5,0(s1)
 325:C:/Users/stapi/OneDrive/Desktop/GD32VW553/V1_MQTT_OK/GD32VW55X_Wifi_BLE_SDK/GD32VW55x_RELEASE_V1.0.2/MSDK/wpa_supplicant/src/ap\ieee802_11_he.c **** 		*spr_param++ = hapd->iface->conf->spr.srg_obss_pd_max_offset;
 326:C:/Users/stapi/OneDrive/Desktop/GD32VW553/V1_MQTT_OK/GD32VW55X_Wifi_BLE_SDK/GD32VW55x_RELEASE_V1.0.2/MSDK/wpa_supplicant/src/ap\ieee802_11_he.c **** 		os_memcpy(spr_param,
 883              		.loc 1 326 3
 884 0064 2146     		li	a2,8
 885 0066 13052400 		addi	a0,s0,2
 324:C:/Users/stapi/OneDrive/Desktop/GD32VW553/V1_MQTT_OK/GD32VW55X_Wifi_BLE_SDK/GD32VW55x_RELEASE_V1.0.2/MSDK/wpa_supplicant/src/ap\ieee802_11_he.c **** 		*spr_param++ = hapd->iface->conf->spr.srg_obss_pd_min_offset;
 886              		.loc 1 324 40
 887 006a DC47     		lw	a5,12(a5)
 888 006c 83C77717 		lbu	a5,375(a5)
 324:C:/Users/stapi/OneDrive/Desktop/GD32VW553/V1_MQTT_OK/GD32VW55X_Wifi_BLE_SDK/GD32VW55x_RELEASE_V1.0.2/MSDK/wpa_supplicant/src/ap\ieee802_11_he.c **** 		*spr_param++ = hapd->iface->conf->spr.srg_obss_pd_min_offset;
 889              		.loc 1 324 16
 890 0070 2300F400 		sb	a5,0(s0)
 325:C:/Users/stapi/OneDrive/Desktop/GD32VW553/V1_MQTT_OK/GD32VW55X_Wifi_BLE_SDK/GD32VW55x_RELEASE_V1.0.2/MSDK/wpa_supplicant/src/ap\ieee802_11_he.c **** 		*spr_param++ = hapd->iface->conf->spr.srg_obss_pd_max_offset;
 891              		.loc 1 325 3 is_stmt 1
 892              	.LVL103:
 325:C:/Users/stapi/OneDrive/Desktop/GD32VW553/V1_MQTT_OK/GD32VW55X_Wifi_BLE_SDK/GD32VW55x_RELEASE_V1.0.2/MSDK/wpa_supplicant/src/ap\ieee802_11_he.c **** 		*spr_param++ = hapd->iface->conf->spr.srg_obss_pd_max_offset;
 893              		.loc 1 325 29 is_stmt 0
 894 0074 9C40     		lw	a5,0(s1)
 325:C:/Users/stapi/OneDrive/Desktop/GD32VW553/V1_MQTT_OK/GD32VW55X_Wifi_BLE_SDK/GD32VW55x_RELEASE_V1.0.2/MSDK/wpa_supplicant/src/ap\ieee802_11_he.c **** 		*spr_param++ = hapd->iface->conf->spr.srg_obss_pd_max_offset;
 895              		.loc 1 325 40
 896 0076 DC47     		lw	a5,12(a5)
 897 0078 83C78717 		lbu	a5,376(a5)
 325:C:/Users/stapi/OneDrive/Desktop/GD32VW553/V1_MQTT_OK/GD32VW55X_Wifi_BLE_SDK/GD32VW55x_RELEASE_V1.0.2/MSDK/wpa_supplicant/src/ap\ieee802_11_he.c **** 		*spr_param++ = hapd->iface->conf->spr.srg_obss_pd_max_offset;
 898              		.loc 1 325 16
 899 007c A300F400 		sb	a5,1(s0)
 900              		.loc 1 326 3 is_stmt 1
 327:C:/Users/stapi/OneDrive/Desktop/GD32VW553/V1_MQTT_OK/GD32VW55X_Wifi_BLE_SDK/GD32VW55x_RELEASE_V1.0.2/MSDK/wpa_supplicant/src/ap\ieee802_11_he.c **** 			  hapd->iface->conf->spr.srg_bss_color_bitmap, 8);
 901              		.loc 1 327 17 is_stmt 0
 902 0080 9C40     		lw	a5,0(s1)
 903              		.loc 1 327 28
 904 0082 CC47     		lw	a1,12(a5)
 326:C:/Users/stapi/OneDrive/Desktop/GD32VW553/V1_MQTT_OK/GD32VW55X_Wifi_BLE_SDK/GD32VW55x_RELEASE_V1.0.2/MSDK/wpa_supplicant/src/ap\ieee802_11_he.c **** 			  hapd->iface->conf->spr.srg_bss_color_bitmap, 8);
 905              		.loc 1 326 3
 906 0084 93859517 		addi	a1,a1,377
 907 0088 97000000 		call	os_memcpy
 907      E7800000 
 908              	.LVL104:
 328:C:/Users/stapi/OneDrive/Desktop/GD32VW553/V1_MQTT_OK/GD32VW55X_Wifi_BLE_SDK/GD32VW55x_RELEASE_V1.0.2/MSDK/wpa_supplicant/src/ap\ieee802_11_he.c **** 		spr_param += 8;
 909              		.loc 1 328 3 is_stmt 1
 329:C:/Users/stapi/OneDrive/Desktop/GD32VW553/V1_MQTT_OK/GD32VW55X_Wifi_BLE_SDK/GD32VW55x_RELEASE_V1.0.2/MSDK/wpa_supplicant/src/ap\ieee802_11_he.c **** 		os_memcpy(spr_param,
 910              		.loc 1 329 3
 330:C:/Users/stapi/OneDrive/Desktop/GD32VW553/V1_MQTT_OK/GD32VW55X_Wifi_BLE_SDK/GD32VW55x_RELEASE_V1.0.2/MSDK/wpa_supplicant/src/ap\ieee802_11_he.c **** 			  hapd->iface->conf->spr.srg_partial_bssid_bitmap, 8);
 911              		.loc 1 330 17 is_stmt 0
 912 0090 9C40     		lw	a5,0(s1)
 329:C:/Users/stapi/OneDrive/Desktop/GD32VW553/V1_MQTT_OK/GD32VW55X_Wifi_BLE_SDK/GD32VW55x_RELEASE_V1.0.2/MSDK/wpa_supplicant/src/ap\ieee802_11_he.c **** 		os_memcpy(spr_param,
 913              		.loc 1 329 3
 914 0092 1305A400 		addi	a0,s0,10
 915              	.LVL105:
 916 0096 2146     		li	a2,8
 917              		.loc 1 330 28
 918 0098 CC47     		lw	a1,12(a5)
 331:C:/Users/stapi/OneDrive/Desktop/GD32VW553/V1_MQTT_OK/GD32VW55X_Wifi_BLE_SDK/GD32VW55x_RELEASE_V1.0.2/MSDK/wpa_supplicant/src/ap\ieee802_11_he.c **** 		pos += 18;
 919              		.loc 1 331 7
 920 009a 4904     		addi	s0,s0,18
 921              	.LVL106:
 329:C:/Users/stapi/OneDrive/Desktop/GD32VW553/V1_MQTT_OK/GD32VW55X_Wifi_BLE_SDK/GD32VW55x_RELEASE_V1.0.2/MSDK/wpa_supplicant/src/ap\ieee802_11_he.c **** 		os_memcpy(spr_param,
 922              		.loc 1 329 3
 923 009c 93851518 		addi	a1,a1,385
 924 00a0 97000000 		call	os_memcpy
 924      E7800000 
 925              	.LVL107:
 926              		.loc 1 331 3 is_stmt 1
 927              	.L80:
 332:C:/Users/stapi/OneDrive/Desktop/GD32VW553/V1_MQTT_OK/GD32VW55X_Wifi_BLE_SDK/GD32VW55x_RELEASE_V1.0.2/MSDK/wpa_supplicant/src/ap\ieee802_11_he.c **** 	}
 333:C:/Users/stapi/OneDrive/Desktop/GD32VW553/V1_MQTT_OK/GD32VW55X_Wifi_BLE_SDK/GD32VW55x_RELEASE_V1.0.2/MSDK/wpa_supplicant/src/ap\ieee802_11_he.c **** 
 334:C:/Users/stapi/OneDrive/Desktop/GD32VW553/V1_MQTT_OK/GD32VW55X_Wifi_BLE_SDK/GD32VW55x_RELEASE_V1.0.2/MSDK/wpa_supplicant/src/ap\ieee802_11_he.c **** 	return pos;
 335:C:/Users/stapi/OneDrive/Desktop/GD32VW553/V1_MQTT_OK/GD32VW55X_Wifi_BLE_SDK/GD32VW55x_RELEASE_V1.0.2/MSDK/wpa_supplicant/src/ap\ieee802_11_he.c **** }
 928              		.loc 1 335 1 is_stmt 0
 929 00a8 2285     		mv	a0,s0
 930 00aa 17030000 		tail	__riscv_restore_2
 930      67000300 
 931              		.cfi_remember_state
 932              		.cfi_restore 9
 933              		.cfi_restore 8
 934              		.cfi_restore 1
 935              		.cfi_def_cfa_offset 0
 936              	.LVL108:
 937              	.L83:
 938              		.cfi_restore_state
 319:C:/Users/stapi/OneDrive/Desktop/GD32VW553/V1_MQTT_OK/GD32VW55X_Wifi_BLE_SDK/GD32VW55x_RELEASE_V1.0.2/MSDK/wpa_supplicant/src/ap\ieee802_11_he.c **** 			hapd->iface->conf->spr.non_srg_obss_pd_max_offset;
 939              		.loc 1 319 3 is_stmt 1
 320:C:/Users/stapi/OneDrive/Desktop/GD32VW553/V1_MQTT_OK/GD32VW55X_Wifi_BLE_SDK/GD32VW55x_RELEASE_V1.0.2/MSDK/wpa_supplicant/src/ap\ieee802_11_he.c **** 		pos++;
 940              		.loc 1 320 26 is_stmt 0
 941 00b2 03476717 		lbu	a4,374(a4)
 321:C:/Users/stapi/OneDrive/Desktop/GD32VW553/V1_MQTT_OK/GD32VW55X_Wifi_BLE_SDK/GD32VW55x_RELEASE_V1.0.2/MSDK/wpa_supplicant/src/ap\ieee802_11_he.c **** 	}
 942              		.loc 1 321 6
 943 00b6 1504     		addi	s0,s0,5
 944              	.LVL109:
 319:C:/Users/stapi/OneDrive/Desktop/GD32VW553/V1_MQTT_OK/GD32VW55X_Wifi_BLE_SDK/GD32VW55x_RELEASE_V1.0.2/MSDK/wpa_supplicant/src/ap\ieee802_11_he.c **** 			hapd->iface->conf->spr.non_srg_obss_pd_max_offset;
 945              		.loc 1 319 16
 946 00b8 A30FE4FE 		sb	a4,-1(s0)
 321:C:/Users/stapi/OneDrive/Desktop/GD32VW553/V1_MQTT_OK/GD32VW55X_Wifi_BLE_SDK/GD32VW55x_RELEASE_V1.0.2/MSDK/wpa_supplicant/src/ap\ieee802_11_he.c **** 	}
 947              		.loc 1 321 3 is_stmt 1
 948              	.LVL110:
 949 00bc 4DB7     		j	.L84
 950              		.cfi_endproc
 951              	.LFE145:
 953              		.section	.text.hostapd_eid_he_6ghz_band_cap,"ax",@progbits
 954              		.align	1
 955              		.globl	hostapd_eid_he_6ghz_band_cap
 957              	hostapd_eid_he_6ghz_band_cap:
 958              	.LFB146:
 336:C:/Users/stapi/OneDrive/Desktop/GD32VW553/V1_MQTT_OK/GD32VW55X_Wifi_BLE_SDK/GD32VW55x_RELEASE_V1.0.2/MSDK/wpa_supplicant/src/ap\ieee802_11_he.c **** 
 337:C:/Users/stapi/OneDrive/Desktop/GD32VW553/V1_MQTT_OK/GD32VW55X_Wifi_BLE_SDK/GD32VW55x_RELEASE_V1.0.2/MSDK/wpa_supplicant/src/ap\ieee802_11_he.c **** 
 338:C:/Users/stapi/OneDrive/Desktop/GD32VW553/V1_MQTT_OK/GD32VW55X_Wifi_BLE_SDK/GD32VW55x_RELEASE_V1.0.2/MSDK/wpa_supplicant/src/ap\ieee802_11_he.c **** u8 * hostapd_eid_he_6ghz_band_cap(struct hostapd_data *hapd, u8 *eid)
 339:C:/Users/stapi/OneDrive/Desktop/GD32VW553/V1_MQTT_OK/GD32VW55X_Wifi_BLE_SDK/GD32VW55x_RELEASE_V1.0.2/MSDK/wpa_supplicant/src/ap\ieee802_11_he.c **** {
 959              		.loc 1 339 1
 960              		.cfi_startproc
 961              	.LVL111:
 962 0000 17030000 		call	t0,__riscv_save_4
 962      E7020300 
 963              		.cfi_offset 19, -20
 964              		.cfi_offset 18, -16
 965              		.cfi_offset 9, -12
 966              		.cfi_offset 8, -8
 967              		.cfi_offset 1, -4
 968              		.cfi_def_cfa_offset 32
 340:C:/Users/stapi/OneDrive/Desktop/GD32VW553/V1_MQTT_OK/GD32VW55X_Wifi_BLE_SDK/GD32VW55x_RELEASE_V1.0.2/MSDK/wpa_supplicant/src/ap\ieee802_11_he.c **** 	struct hostapd_config *conf = hapd->iface->conf;
 969              		.loc 1 340 2
 970              		.loc 1 340 36 is_stmt 0
 971 0008 1C41     		lw	a5,0(a0)
 972              	.LVL112:
 341:C:/Users/stapi/OneDrive/Desktop/GD32VW553/V1_MQTT_OK/GD32VW55X_Wifi_BLE_SDK/GD32VW55x_RELEASE_V1.0.2/MSDK/wpa_supplicant/src/ap\ieee802_11_he.c **** 	struct hostapd_hw_modes *mode = hapd->iface->current_mode;
 973              		.loc 1 341 2 is_stmt 1
 339:C:/Users/stapi/OneDrive/Desktop/GD32VW553/V1_MQTT_OK/GD32VW55X_Wifi_BLE_SDK/GD32VW55x_RELEASE_V1.0.2/MSDK/wpa_supplicant/src/ap\ieee802_11_he.c **** 	struct hostapd_config *conf = hapd->iface->conf;
 974              		.loc 1 339 1 is_stmt 0
 975 000a 2E84     		mv	s0,a1
 976              		.loc 1 341 27
 977 000c 83A94746 		lw	s3,1124(a5)
 978              	.LVL113:
 342:C:/Users/stapi/OneDrive/Desktop/GD32VW553/V1_MQTT_OK/GD32VW55X_Wifi_BLE_SDK/GD32VW55x_RELEASE_V1.0.2/MSDK/wpa_supplicant/src/ap\ieee802_11_he.c **** 	struct he_capabilities *he_cap;
 979              		.loc 1 342 2 is_stmt 1
 343:C:/Users/stapi/OneDrive/Desktop/GD32VW553/V1_MQTT_OK/GD32VW55X_Wifi_BLE_SDK/GD32VW55x_RELEASE_V1.0.2/MSDK/wpa_supplicant/src/ap\ieee802_11_he.c **** 	struct ieee80211_he_6ghz_band_cap *cap;
 980              		.loc 1 343 2
 344:C:/Users/stapi/OneDrive/Desktop/GD32VW553/V1_MQTT_OK/GD32VW55X_Wifi_BLE_SDK/GD32VW55x_RELEASE_V1.0.2/MSDK/wpa_supplicant/src/ap\ieee802_11_he.c **** 	u16 capab;
 981              		.loc 1 344 2
 345:C:/Users/stapi/OneDrive/Desktop/GD32VW553/V1_MQTT_OK/GD32VW55X_Wifi_BLE_SDK/GD32VW55x_RELEASE_V1.0.2/MSDK/wpa_supplicant/src/ap\ieee802_11_he.c **** 	u8 *pos;
 982              		.loc 1 345 2
 346:C:/Users/stapi/OneDrive/Desktop/GD32VW553/V1_MQTT_OK/GD32VW55X_Wifi_BLE_SDK/GD32VW55x_RELEASE_V1.0.2/MSDK/wpa_supplicant/src/ap\ieee802_11_he.c **** 
 347:C:/Users/stapi/OneDrive/Desktop/GD32VW553/V1_MQTT_OK/GD32VW55X_Wifi_BLE_SDK/GD32VW55x_RELEASE_V1.0.2/MSDK/wpa_supplicant/src/ap\ieee802_11_he.c **** 	if (!mode || !is_6ghz_op_class(hapd->iconf->op_class) ||
 983              		.loc 1 347 2
 984              		.loc 1 347 5 is_stmt 0
 985 0010 638E0906 		beq	s3,zero,.L98
 340:C:/Users/stapi/OneDrive/Desktop/GD32VW553/V1_MQTT_OK/GD32VW55X_Wifi_BLE_SDK/GD32VW55x_RELEASE_V1.0.2/MSDK/wpa_supplicant/src/ap\ieee802_11_he.c **** 	struct hostapd_hw_modes *mode = hapd->iface->current_mode;
 986              		.loc 1 340 25 discriminator 1
 987 0014 03A9C700 		lw	s2,12(a5)
 988              		.loc 1 347 16 discriminator 1
 989 0018 5C41     		lw	a5,4(a0)
 990              	.LVL114:
 991 001a AA84     		mv	s1,a0
 992 001c 03C58701 		lbu	a0,24(a5)
 993              	.LVL115:
 994 0020 97000000 		call	is_6ghz_op_class
 994      E7800000 
 995              	.LVL116:
 996              		.loc 1 347 12 discriminator 1
 997 0028 35C1     		beq	a0,zero,.L98
 348:C:/Users/stapi/OneDrive/Desktop/GD32VW553/V1_MQTT_OK/GD32VW55X_Wifi_BLE_SDK/GD32VW55x_RELEASE_V1.0.2/MSDK/wpa_supplicant/src/ap\ieee802_11_he.c **** 	    !is_6ghz_freq(hapd->iface->freq))
 998              		.loc 1 348 7 discriminator 2
 999 002a 9C40     		lw	a5,0(s1)
 1000 002c 03A54747 		lw	a0,1140(a5)
 1001 0030 97000000 		call	is_6ghz_freq
 1001      E7800000 
 1002              	.LVL117:
 347:C:/Users/stapi/OneDrive/Desktop/GD32VW553/V1_MQTT_OK/GD32VW55X_Wifi_BLE_SDK/GD32VW55x_RELEASE_V1.0.2/MSDK/wpa_supplicant/src/ap\ieee802_11_he.c **** 	    !is_6ghz_freq(hapd->iface->freq))
 1003              		.loc 1 347 56 discriminator 2
 1004 0038 31C9     		beq	a0,zero,.L98
 349:C:/Users/stapi/OneDrive/Desktop/GD32VW553/V1_MQTT_OK/GD32VW55X_Wifi_BLE_SDK/GD32VW55x_RELEASE_V1.0.2/MSDK/wpa_supplicant/src/ap\ieee802_11_he.c **** 		return eid;
 350:C:/Users/stapi/OneDrive/Desktop/GD32VW553/V1_MQTT_OK/GD32VW55X_Wifi_BLE_SDK/GD32VW55x_RELEASE_V1.0.2/MSDK/wpa_supplicant/src/ap\ieee802_11_he.c **** 
 351:C:/Users/stapi/OneDrive/Desktop/GD32VW553/V1_MQTT_OK/GD32VW55X_Wifi_BLE_SDK/GD32VW55x_RELEASE_V1.0.2/MSDK/wpa_supplicant/src/ap\ieee802_11_he.c **** 	he_cap = &mode->he_capab[IEEE80211_MODE_AP];
 1005              		.loc 1 351 2 is_stmt 1
 1006              	.LVL118:
 352:C:/Users/stapi/OneDrive/Desktop/GD32VW553/V1_MQTT_OK/GD32VW55X_Wifi_BLE_SDK/GD32VW55x_RELEASE_V1.0.2/MSDK/wpa_supplicant/src/ap\ieee802_11_he.c **** 	capab = he_cap->he_6ghz_capa & HE_6GHZ_BAND_CAP_MIN_MPDU_START;
 1007              		.loc 1 352 2
 353:C:/Users/stapi/OneDrive/Desktop/GD32VW553/V1_MQTT_OK/GD32VW55X_Wifi_BLE_SDK/GD32VW55x_RELEASE_V1.0.2/MSDK/wpa_supplicant/src/ap\ieee802_11_he.c **** 	capab |= (conf->he_6ghz_max_ampdu_len_exp <<
 1008              		.loc 1 353 16 is_stmt 0
 1009 003a 0347D918 		lbu	a4,397(s2)
 354:C:/Users/stapi/OneDrive/Desktop/GD32VW553/V1_MQTT_OK/GD32VW55X_Wifi_BLE_SDK/GD32VW55x_RELEASE_V1.0.2/MSDK/wpa_supplicant/src/ap\ieee802_11_he.c **** 		  HE_6GHZ_BAND_CAP_MAX_AMPDU_LEN_EXP_SHIFT) &
 355:C:/Users/stapi/OneDrive/Desktop/GD32VW553/V1_MQTT_OK/GD32VW55X_Wifi_BLE_SDK/GD32VW55x_RELEASE_V1.0.2/MSDK/wpa_supplicant/src/ap\ieee802_11_he.c **** 		HE_6GHZ_BAND_CAP_MAX_AMPDU_LEN_EXP_MASK;
 356:C:/Users/stapi/OneDrive/Desktop/GD32VW553/V1_MQTT_OK/GD32VW55X_Wifi_BLE_SDK/GD32VW55x_RELEASE_V1.0.2/MSDK/wpa_supplicant/src/ap\ieee802_11_he.c **** 	capab |= (conf->he_6ghz_max_mpdu <<
 1010              		.loc 1 356 16
 1011 003e 8346C918 		lbu	a3,396(s2)
 352:C:/Users/stapi/OneDrive/Desktop/GD32VW553/V1_MQTT_OK/GD32VW55X_Wifi_BLE_SDK/GD32VW55x_RELEASE_V1.0.2/MSDK/wpa_supplicant/src/ap\ieee802_11_he.c **** 	capab |= (conf->he_6ghz_max_ampdu_len_exp <<
 1012              		.loc 1 352 8
 1013 0042 83D7490E 		lhu	a5,228(s3)
 353:C:/Users/stapi/OneDrive/Desktop/GD32VW553/V1_MQTT_OK/GD32VW55X_Wifi_BLE_SDK/GD32VW55x_RELEASE_V1.0.2/MSDK/wpa_supplicant/src/ap\ieee802_11_he.c **** 	capab |= (conf->he_6ghz_max_ampdu_len_exp <<
 1014              		.loc 1 353 44
 1015 0046 0E07     		slli	a4,a4,3
 1016              		.loc 1 356 35
 1017 0048 9A06     		slli	a3,a3,6
 354:C:/Users/stapi/OneDrive/Desktop/GD32VW553/V1_MQTT_OK/GD32VW55X_Wifi_BLE_SDK/GD32VW55x_RELEASE_V1.0.2/MSDK/wpa_supplicant/src/ap\ieee802_11_he.c **** 		  HE_6GHZ_BAND_CAP_MAX_AMPDU_LEN_EXP_SHIFT) &
 1018              		.loc 1 354 47
 1019 004a 13778703 		andi	a4,a4,56
 357:C:/Users/stapi/OneDrive/Desktop/GD32VW553/V1_MQTT_OK/GD32VW55X_Wifi_BLE_SDK/GD32VW55x_RELEASE_V1.0.2/MSDK/wpa_supplicant/src/ap\ieee802_11_he.c **** 		  HE_6GHZ_BAND_CAP_MAX_MPDU_LEN_SHIFT) &
 1020              		.loc 1 357 42
 1021 004e 93F6F60F 		andi	a3,a3,255
 356:C:/Users/stapi/OneDrive/Desktop/GD32VW553/V1_MQTT_OK/GD32VW55X_Wifi_BLE_SDK/GD32VW55x_RELEASE_V1.0.2/MSDK/wpa_supplicant/src/ap\ieee802_11_he.c **** 		  HE_6GHZ_BAND_CAP_MAX_MPDU_LEN_SHIFT) &
 1022              		.loc 1 356 8
 1023 0052 558F     		or	a4,a4,a3
 352:C:/Users/stapi/OneDrive/Desktop/GD32VW553/V1_MQTT_OK/GD32VW55X_Wifi_BLE_SDK/GD32VW55x_RELEASE_V1.0.2/MSDK/wpa_supplicant/src/ap\ieee802_11_he.c **** 	capab |= (conf->he_6ghz_max_ampdu_len_exp <<
 1024              		.loc 1 352 8
 1025 0054 9D8B     		andi	a5,a5,7
 1026              	.LVL119:
 353:C:/Users/stapi/OneDrive/Desktop/GD32VW553/V1_MQTT_OK/GD32VW55X_Wifi_BLE_SDK/GD32VW55x_RELEASE_V1.0.2/MSDK/wpa_supplicant/src/ap\ieee802_11_he.c **** 		  HE_6GHZ_BAND_CAP_MAX_AMPDU_LEN_EXP_SHIFT) &
 1027              		.loc 1 353 2 is_stmt 1
 356:C:/Users/stapi/OneDrive/Desktop/GD32VW553/V1_MQTT_OK/GD32VW55X_Wifi_BLE_SDK/GD32VW55x_RELEASE_V1.0.2/MSDK/wpa_supplicant/src/ap\ieee802_11_he.c **** 		  HE_6GHZ_BAND_CAP_MAX_MPDU_LEN_SHIFT) &
 1028              		.loc 1 356 2
 356:C:/Users/stapi/OneDrive/Desktop/GD32VW553/V1_MQTT_OK/GD32VW55X_Wifi_BLE_SDK/GD32VW55x_RELEASE_V1.0.2/MSDK/wpa_supplicant/src/ap\ieee802_11_he.c **** 		  HE_6GHZ_BAND_CAP_MAX_MPDU_LEN_SHIFT) &
 1029              		.loc 1 356 8 is_stmt 0
 1030 0056 D98F     		or	a5,a5,a4
 1031              	.LVL120:
 358:C:/Users/stapi/OneDrive/Desktop/GD32VW553/V1_MQTT_OK/GD32VW55X_Wifi_BLE_SDK/GD32VW55x_RELEASE_V1.0.2/MSDK/wpa_supplicant/src/ap\ieee802_11_he.c **** 		HE_6GHZ_BAND_CAP_MAX_MPDU_LEN_MASK;
 359:C:/Users/stapi/OneDrive/Desktop/GD32VW553/V1_MQTT_OK/GD32VW55X_Wifi_BLE_SDK/GD32VW55x_RELEASE_V1.0.2/MSDK/wpa_supplicant/src/ap\ieee802_11_he.c **** 	capab |= HE_6GHZ_BAND_CAP_SMPS_DISABLED;
 1032              		.loc 1 359 2 is_stmt 1
 360:C:/Users/stapi/OneDrive/Desktop/GD32VW553/V1_MQTT_OK/GD32VW55X_Wifi_BLE_SDK/GD32VW55x_RELEASE_V1.0.2/MSDK/wpa_supplicant/src/ap\ieee802_11_he.c **** 	if (conf->he_6ghz_rx_ant_pat)
 1033              		.loc 1 360 2
 1034              		.loc 1 360 5 is_stmt 0
 1035 0058 0347E918 		lbu	a4,398(s2)
 1036 005c 0DEF     		bne	a4,zero,.L100
 359:C:/Users/stapi/OneDrive/Desktop/GD32VW553/V1_MQTT_OK/GD32VW55X_Wifi_BLE_SDK/GD32VW55x_RELEASE_V1.0.2/MSDK/wpa_supplicant/src/ap\ieee802_11_he.c **** 	if (conf->he_6ghz_rx_ant_pat)
 1037              		.loc 1 359 8
 1038 005e 93E70760 		ori	a5,a5,1536
 1039              	.LVL121:
 1040              	.L101:
 361:C:/Users/stapi/OneDrive/Desktop/GD32VW553/V1_MQTT_OK/GD32VW55X_Wifi_BLE_SDK/GD32VW55x_RELEASE_V1.0.2/MSDK/wpa_supplicant/src/ap\ieee802_11_he.c **** 		capab |= HE_6GHZ_BAND_CAP_RX_ANTPAT_CONS;
 362:C:/Users/stapi/OneDrive/Desktop/GD32VW553/V1_MQTT_OK/GD32VW55X_Wifi_BLE_SDK/GD32VW55x_RELEASE_V1.0.2/MSDK/wpa_supplicant/src/ap\ieee802_11_he.c **** 	if (conf->he_6ghz_tx_ant_pat)
 1041              		.loc 1 362 2 is_stmt 1
 1042              		.loc 1 362 5 is_stmt 0
 1043 0062 0347F918 		lbu	a4,399(s2)
 1044 0066 19C3     		beq	a4,zero,.L102
 363:C:/Users/stapi/OneDrive/Desktop/GD32VW553/V1_MQTT_OK/GD32VW55X_Wifi_BLE_SDK/GD32VW55x_RELEASE_V1.0.2/MSDK/wpa_supplicant/src/ap\ieee802_11_he.c **** 		capab |= HE_6GHZ_BAND_CAP_TX_ANTPAT_CONS;
 1045              		.loc 1 363 3 is_stmt 1
 1046              		.loc 1 363 9 is_stmt 0
 1047 0068 9397D728 		bseti	a5,a5,13
 1048              	.LVL122:
 1049              	.L102:
 364:C:/Users/stapi/OneDrive/Desktop/GD32VW553/V1_MQTT_OK/GD32VW55X_Wifi_BLE_SDK/GD32VW55x_RELEASE_V1.0.2/MSDK/wpa_supplicant/src/ap\ieee802_11_he.c **** 
 365:C:/Users/stapi/OneDrive/Desktop/GD32VW553/V1_MQTT_OK/GD32VW55X_Wifi_BLE_SDK/GD32VW55x_RELEASE_V1.0.2/MSDK/wpa_supplicant/src/ap\ieee802_11_he.c **** 	pos = eid;
 1050              		.loc 1 365 2 is_stmt 1
 366:C:/Users/stapi/OneDrive/Desktop/GD32VW553/V1_MQTT_OK/GD32VW55X_Wifi_BLE_SDK/GD32VW55x_RELEASE_V1.0.2/MSDK/wpa_supplicant/src/ap\ieee802_11_he.c **** 	*pos++ = WLAN_EID_EXTENSION;
 1051              		.loc 1 366 2
 1052              		.loc 1 366 9 is_stmt 0
 1053 006c 7D57     		li	a4,-1
 1054 006e 2300E400 		sb	a4,0(s0)
 367:C:/Users/stapi/OneDrive/Desktop/GD32VW553/V1_MQTT_OK/GD32VW55X_Wifi_BLE_SDK/GD32VW55x_RELEASE_V1.0.2/MSDK/wpa_supplicant/src/ap\ieee802_11_he.c **** 	*pos++ = 1 + sizeof(*cap);
 1055              		.loc 1 367 2 is_stmt 1
 1056              	.LVL123:
 1057              		.loc 1 367 9 is_stmt 0
 1058 0072 0D47     		li	a4,3
 1059 0074 A300E400 		sb	a4,1(s0)
 368:C:/Users/stapi/OneDrive/Desktop/GD32VW553/V1_MQTT_OK/GD32VW55X_Wifi_BLE_SDK/GD32VW55x_RELEASE_V1.0.2/MSDK/wpa_supplicant/src/ap\ieee802_11_he.c **** 	*pos++ = WLAN_EID_EXT_HE_6GHZ_BAND_CAP;
 1060              		.loc 1 368 2 is_stmt 1
 1061              	.LVL124:
 369:C:/Users/stapi/OneDrive/Desktop/GD32VW553/V1_MQTT_OK/GD32VW55X_Wifi_BLE_SDK/GD32VW55x_RELEASE_V1.0.2/MSDK/wpa_supplicant/src/ap\ieee802_11_he.c **** 
 370:C:/Users/stapi/OneDrive/Desktop/GD32VW553/V1_MQTT_OK/GD32VW55X_Wifi_BLE_SDK/GD32VW55x_RELEASE_V1.0.2/MSDK/wpa_supplicant/src/ap\ieee802_11_he.c **** 	cap = (struct ieee80211_he_6ghz_band_cap *) pos;
 371:C:/Users/stapi/OneDrive/Desktop/GD32VW553/V1_MQTT_OK/GD32VW55X_Wifi_BLE_SDK/GD32VW55x_RELEASE_V1.0.2/MSDK/wpa_supplicant/src/ap\ieee802_11_he.c **** 	cap->capab = host_to_le16(capab);
 1062              		.loc 1 371 13 is_stmt 0
 1063 0078 A301F400 		sb	a5,3(s0)
 368:C:/Users/stapi/OneDrive/Desktop/GD32VW553/V1_MQTT_OK/GD32VW55X_Wifi_BLE_SDK/GD32VW55x_RELEASE_V1.0.2/MSDK/wpa_supplicant/src/ap\ieee802_11_he.c **** 	*pos++ = WLAN_EID_EXT_HE_6GHZ_BAND_CAP;
 1064              		.loc 1 368 9
 1065 007c 1307B003 		li	a4,59
 1066              		.loc 1 371 13
 1067 0080 A183     		srli	a5,a5,8
 1068              	.LVL125:
 368:C:/Users/stapi/OneDrive/Desktop/GD32VW553/V1_MQTT_OK/GD32VW55X_Wifi_BLE_SDK/GD32VW55x_RELEASE_V1.0.2/MSDK/wpa_supplicant/src/ap\ieee802_11_he.c **** 	*pos++ = WLAN_EID_EXT_HE_6GHZ_BAND_CAP;
 1069              		.loc 1 368 9
 1070 0082 2301E400 		sb	a4,2(s0)
 370:C:/Users/stapi/OneDrive/Desktop/GD32VW553/V1_MQTT_OK/GD32VW55X_Wifi_BLE_SDK/GD32VW55x_RELEASE_V1.0.2/MSDK/wpa_supplicant/src/ap\ieee802_11_he.c **** 	cap->capab = host_to_le16(capab);
 1071              		.loc 1 370 2 is_stmt 1
 1072              	.LVL126:
 1073              		.loc 1 371 2
 1074              		.loc 1 371 13 is_stmt 0
 1075 0086 2302F400 		sb	a5,4(s0)
 372:C:/Users/stapi/OneDrive/Desktop/GD32VW553/V1_MQTT_OK/GD32VW55X_Wifi_BLE_SDK/GD32VW55x_RELEASE_V1.0.2/MSDK/wpa_supplicant/src/ap\ieee802_11_he.c **** 	pos += sizeof(*cap);
 1076              		.loc 1 372 2 is_stmt 1
 1077              		.loc 1 372 6 is_stmt 0
 1078 008a 1504     		addi	s0,s0,5
 1079              	.LVL127:
 373:C:/Users/stapi/OneDrive/Desktop/GD32VW553/V1_MQTT_OK/GD32VW55X_Wifi_BLE_SDK/GD32VW55x_RELEASE_V1.0.2/MSDK/wpa_supplicant/src/ap\ieee802_11_he.c **** 
 374:C:/Users/stapi/OneDrive/Desktop/GD32VW553/V1_MQTT_OK/GD32VW55X_Wifi_BLE_SDK/GD32VW55x_RELEASE_V1.0.2/MSDK/wpa_supplicant/src/ap\ieee802_11_he.c **** 	return pos;
 1080              		.loc 1 374 2 is_stmt 1
 1081              	.L98:
 375:C:/Users/stapi/OneDrive/Desktop/GD32VW553/V1_MQTT_OK/GD32VW55X_Wifi_BLE_SDK/GD32VW55x_RELEASE_V1.0.2/MSDK/wpa_supplicant/src/ap\ieee802_11_he.c **** }
 1082              		.loc 1 375 1 is_stmt 0
 1083 008c 2285     		mv	a0,s0
 1084 008e 17030000 		tail	__riscv_restore_4
 1084      67000300 
 1085              		.cfi_remember_state
 1086              		.cfi_restore 19
 1087              		.cfi_restore 18
 1088              		.cfi_restore 9
 1089              		.cfi_restore 8
 1090              		.cfi_restore 1
 1091              		.cfi_def_cfa_offset 0
 1092              	.LVL128:
 1093              	.L100:
 1094              		.cfi_restore_state
 361:C:/Users/stapi/OneDrive/Desktop/GD32VW553/V1_MQTT_OK/GD32VW55X_Wifi_BLE_SDK/GD32VW55x_RELEASE_V1.0.2/MSDK/wpa_supplicant/src/ap\ieee802_11_he.c **** 	if (conf->he_6ghz_tx_ant_pat)
 1095              		.loc 1 361 3 is_stmt 1
 361:C:/Users/stapi/OneDrive/Desktop/GD32VW553/V1_MQTT_OK/GD32VW55X_Wifi_BLE_SDK/GD32VW55x_RELEASE_V1.0.2/MSDK/wpa_supplicant/src/ap\ieee802_11_he.c **** 	if (conf->he_6ghz_tx_ant_pat)
 1096              		.loc 1 361 9 is_stmt 0
 1097 0096 0567     		li	a4,4096
 1098 0098 13070760 		addi	a4,a4,1536
 1099 009c D98F     		or	a5,a5,a4
 1100              	.LVL129:
 1101 009e D1B7     		j	.L101
 1102              		.cfi_endproc
 1103              	.LFE146:
 1105              		.section	.text.hostapd_get_he_capab,"ax",@progbits
 1106              		.align	1
 1107              		.globl	hostapd_get_he_capab
 1109              	hostapd_get_he_capab:
 1110              	.LFB147:
 376:C:/Users/stapi/OneDrive/Desktop/GD32VW553/V1_MQTT_OK/GD32VW55X_Wifi_BLE_SDK/GD32VW55x_RELEASE_V1.0.2/MSDK/wpa_supplicant/src/ap\ieee802_11_he.c **** 
 377:C:/Users/stapi/OneDrive/Desktop/GD32VW553/V1_MQTT_OK/GD32VW55X_Wifi_BLE_SDK/GD32VW55x_RELEASE_V1.0.2/MSDK/wpa_supplicant/src/ap\ieee802_11_he.c **** 
 378:C:/Users/stapi/OneDrive/Desktop/GD32VW553/V1_MQTT_OK/GD32VW55X_Wifi_BLE_SDK/GD32VW55x_RELEASE_V1.0.2/MSDK/wpa_supplicant/src/ap\ieee802_11_he.c **** void hostapd_get_he_capab(struct hostapd_data *hapd,
 379:C:/Users/stapi/OneDrive/Desktop/GD32VW553/V1_MQTT_OK/GD32VW55X_Wifi_BLE_SDK/GD32VW55x_RELEASE_V1.0.2/MSDK/wpa_supplicant/src/ap\ieee802_11_he.c **** 			  const struct ieee80211_he_capabilities *he_cap,
 380:C:/Users/stapi/OneDrive/Desktop/GD32VW553/V1_MQTT_OK/GD32VW55X_Wifi_BLE_SDK/GD32VW55x_RELEASE_V1.0.2/MSDK/wpa_supplicant/src/ap\ieee802_11_he.c **** 			  struct ieee80211_he_capabilities *neg_he_cap,
 381:C:/Users/stapi/OneDrive/Desktop/GD32VW553/V1_MQTT_OK/GD32VW55X_Wifi_BLE_SDK/GD32VW55x_RELEASE_V1.0.2/MSDK/wpa_supplicant/src/ap\ieee802_11_he.c **** 			  size_t he_capab_len)
 382:C:/Users/stapi/OneDrive/Desktop/GD32VW553/V1_MQTT_OK/GD32VW55X_Wifi_BLE_SDK/GD32VW55x_RELEASE_V1.0.2/MSDK/wpa_supplicant/src/ap\ieee802_11_he.c **** {
 1111              		.loc 1 382 1 is_stmt 1
 1112              		.cfi_startproc
 1113              	.LVL130:
 383:C:/Users/stapi/OneDrive/Desktop/GD32VW553/V1_MQTT_OK/GD32VW55X_Wifi_BLE_SDK/GD32VW55x_RELEASE_V1.0.2/MSDK/wpa_supplicant/src/ap\ieee802_11_he.c **** 	if (!he_cap)
 1114              		.loc 1 383 2
 1115              		.loc 1 383 5 is_stmt 0
 1116 0000 91C9     		beq	a1,zero,.L119
 1117 0002 3285     		mv	a0,a2
 1118              	.LVL131:
 384:C:/Users/stapi/OneDrive/Desktop/GD32VW553/V1_MQTT_OK/GD32VW55X_Wifi_BLE_SDK/GD32VW55x_RELEASE_V1.0.2/MSDK/wpa_supplicant/src/ap\ieee802_11_he.c **** 		return;
 385:C:/Users/stapi/OneDrive/Desktop/GD32VW553/V1_MQTT_OK/GD32VW55X_Wifi_BLE_SDK/GD32VW55x_RELEASE_V1.0.2/MSDK/wpa_supplicant/src/ap\ieee802_11_he.c **** 
 386:C:/Users/stapi/OneDrive/Desktop/GD32VW553/V1_MQTT_OK/GD32VW55X_Wifi_BLE_SDK/GD32VW55x_RELEASE_V1.0.2/MSDK/wpa_supplicant/src/ap\ieee802_11_he.c **** 	if (he_capab_len > sizeof(*neg_he_cap))
 1119              		.loc 1 386 2 is_stmt 1
 387:C:/Users/stapi/OneDrive/Desktop/GD32VW553/V1_MQTT_OK/GD32VW55X_Wifi_BLE_SDK/GD32VW55x_RELEASE_V1.0.2/MSDK/wpa_supplicant/src/ap\ieee802_11_he.c **** 		he_capab_len = sizeof(*neg_he_cap);
 388:C:/Users/stapi/OneDrive/Desktop/GD32VW553/V1_MQTT_OK/GD32VW55X_Wifi_BLE_SDK/GD32VW55x_RELEASE_V1.0.2/MSDK/wpa_supplicant/src/ap\ieee802_11_he.c **** 	/* TODO: mask out unsupported features */
 389:C:/Users/stapi/OneDrive/Desktop/GD32VW553/V1_MQTT_OK/GD32VW55X_Wifi_BLE_SDK/GD32VW55x_RELEASE_V1.0.2/MSDK/wpa_supplicant/src/ap\ieee802_11_he.c **** 
 390:C:/Users/stapi/OneDrive/Desktop/GD32VW553/V1_MQTT_OK/GD32VW55X_Wifi_BLE_SDK/GD32VW55x_RELEASE_V1.0.2/MSDK/wpa_supplicant/src/ap\ieee802_11_he.c **** 	os_memcpy(neg_he_cap, he_cap, he_capab_len);
 1120              		.loc 1 390 2
 1121 0004 13066003 		li	a2,54
 1122              	.LVL132:
 1123 0008 33D6C60A 		minu	a2,a3,a2
 1124              	.LVL133:
 1125 000c 17030000 		tail	os_memcpy
 1125      67000300 
 1126              	.LVL134:
 1127              	.L119:
 1128 0014 8280     		ret
 1129              		.cfi_endproc
 1130              	.LFE147:
 1132              		.section	.rodata.copy_sta_he_capab.str1.4,"aMS",@progbits,1
 1133              		.align	2
 1134              	.LC1:
 1135 0000 4E6F206D 		.string	"No matching HE MCS found between AP TX and STA RX"
 1135      61746368 
 1135      696E6720 
 1135      4845204D 
 1135      43532066 
 1136              		.section	.text.copy_sta_he_capab,"ax",@progbits
 1137              		.align	1
 1138              		.globl	copy_sta_he_capab
 1140              	copy_sta_he_capab:
 1141              	.LFB149:
 391:C:/Users/stapi/OneDrive/Desktop/GD32VW553/V1_MQTT_OK/GD32VW55X_Wifi_BLE_SDK/GD32VW55x_RELEASE_V1.0.2/MSDK/wpa_supplicant/src/ap\ieee802_11_he.c **** }
 392:C:/Users/stapi/OneDrive/Desktop/GD32VW553/V1_MQTT_OK/GD32VW55X_Wifi_BLE_SDK/GD32VW55x_RELEASE_V1.0.2/MSDK/wpa_supplicant/src/ap\ieee802_11_he.c **** 
 393:C:/Users/stapi/OneDrive/Desktop/GD32VW553/V1_MQTT_OK/GD32VW55X_Wifi_BLE_SDK/GD32VW55x_RELEASE_V1.0.2/MSDK/wpa_supplicant/src/ap\ieee802_11_he.c **** 
 394:C:/Users/stapi/OneDrive/Desktop/GD32VW553/V1_MQTT_OK/GD32VW55X_Wifi_BLE_SDK/GD32VW55x_RELEASE_V1.0.2/MSDK/wpa_supplicant/src/ap\ieee802_11_he.c **** static int check_valid_he_mcs(struct hostapd_data *hapd, const u8 *sta_he_capab,
 395:C:/Users/stapi/OneDrive/Desktop/GD32VW553/V1_MQTT_OK/GD32VW55X_Wifi_BLE_SDK/GD32VW55x_RELEASE_V1.0.2/MSDK/wpa_supplicant/src/ap\ieee802_11_he.c **** 			      enum ieee80211_op_mode opmode)
 396:C:/Users/stapi/OneDrive/Desktop/GD32VW553/V1_MQTT_OK/GD32VW55X_Wifi_BLE_SDK/GD32VW55x_RELEASE_V1.0.2/MSDK/wpa_supplicant/src/ap\ieee802_11_he.c **** {
 397:C:/Users/stapi/OneDrive/Desktop/GD32VW553/V1_MQTT_OK/GD32VW55X_Wifi_BLE_SDK/GD32VW55x_RELEASE_V1.0.2/MSDK/wpa_supplicant/src/ap\ieee802_11_he.c **** 	u16 sta_rx_mcs_set, ap_tx_mcs_set;
 398:C:/Users/stapi/OneDrive/Desktop/GD32VW553/V1_MQTT_OK/GD32VW55X_Wifi_BLE_SDK/GD32VW55x_RELEASE_V1.0.2/MSDK/wpa_supplicant/src/ap\ieee802_11_he.c **** 	u8 mcs_count = 0;
 399:C:/Users/stapi/OneDrive/Desktop/GD32VW553/V1_MQTT_OK/GD32VW55X_Wifi_BLE_SDK/GD32VW55x_RELEASE_V1.0.2/MSDK/wpa_supplicant/src/ap\ieee802_11_he.c **** 	const u16 *ap_mcs_set, *sta_mcs_set;
 400:C:/Users/stapi/OneDrive/Desktop/GD32VW553/V1_MQTT_OK/GD32VW55X_Wifi_BLE_SDK/GD32VW55x_RELEASE_V1.0.2/MSDK/wpa_supplicant/src/ap\ieee802_11_he.c **** 	int i;
 401:C:/Users/stapi/OneDrive/Desktop/GD32VW553/V1_MQTT_OK/GD32VW55X_Wifi_BLE_SDK/GD32VW55x_RELEASE_V1.0.2/MSDK/wpa_supplicant/src/ap\ieee802_11_he.c **** 
 402:C:/Users/stapi/OneDrive/Desktop/GD32VW553/V1_MQTT_OK/GD32VW55X_Wifi_BLE_SDK/GD32VW55x_RELEASE_V1.0.2/MSDK/wpa_supplicant/src/ap\ieee802_11_he.c **** 	if (!hapd->iface->current_mode)
 403:C:/Users/stapi/OneDrive/Desktop/GD32VW553/V1_MQTT_OK/GD32VW55X_Wifi_BLE_SDK/GD32VW55x_RELEASE_V1.0.2/MSDK/wpa_supplicant/src/ap\ieee802_11_he.c **** 		return 1;
 404:C:/Users/stapi/OneDrive/Desktop/GD32VW553/V1_MQTT_OK/GD32VW55X_Wifi_BLE_SDK/GD32VW55x_RELEASE_V1.0.2/MSDK/wpa_supplicant/src/ap\ieee802_11_he.c **** 	ap_mcs_set = (u16 *) hapd->iface->current_mode->he_capab[opmode].mcs;
 405:C:/Users/stapi/OneDrive/Desktop/GD32VW553/V1_MQTT_OK/GD32VW55X_Wifi_BLE_SDK/GD32VW55x_RELEASE_V1.0.2/MSDK/wpa_supplicant/src/ap\ieee802_11_he.c **** 	sta_mcs_set = (u16 *) ((const struct ieee80211_he_capabilities *)
 406:C:/Users/stapi/OneDrive/Desktop/GD32VW553/V1_MQTT_OK/GD32VW55X_Wifi_BLE_SDK/GD32VW55x_RELEASE_V1.0.2/MSDK/wpa_supplicant/src/ap\ieee802_11_he.c **** 			       sta_he_capab)->optional;
 407:C:/Users/stapi/OneDrive/Desktop/GD32VW553/V1_MQTT_OK/GD32VW55X_Wifi_BLE_SDK/GD32VW55x_RELEASE_V1.0.2/MSDK/wpa_supplicant/src/ap\ieee802_11_he.c **** 
 408:C:/Users/stapi/OneDrive/Desktop/GD32VW553/V1_MQTT_OK/GD32VW55X_Wifi_BLE_SDK/GD32VW55x_RELEASE_V1.0.2/MSDK/wpa_supplicant/src/ap\ieee802_11_he.c **** 	/*
 409:C:/Users/stapi/OneDrive/Desktop/GD32VW553/V1_MQTT_OK/GD32VW55X_Wifi_BLE_SDK/GD32VW55x_RELEASE_V1.0.2/MSDK/wpa_supplicant/src/ap\ieee802_11_he.c **** 	 * Disable HE capabilities for STAs for which there is not even a single
 410:C:/Users/stapi/OneDrive/Desktop/GD32VW553/V1_MQTT_OK/GD32VW55X_Wifi_BLE_SDK/GD32VW55x_RELEASE_V1.0.2/MSDK/wpa_supplicant/src/ap\ieee802_11_he.c **** 	 * allowed MCS in any supported number of streams, i.e., STA is
 411:C:/Users/stapi/OneDrive/Desktop/GD32VW553/V1_MQTT_OK/GD32VW55X_Wifi_BLE_SDK/GD32VW55x_RELEASE_V1.0.2/MSDK/wpa_supplicant/src/ap\ieee802_11_he.c **** 	 * advertising 3 (not supported) as HE MCS rates for all supported
 412:C:/Users/stapi/OneDrive/Desktop/GD32VW553/V1_MQTT_OK/GD32VW55X_Wifi_BLE_SDK/GD32VW55x_RELEASE_V1.0.2/MSDK/wpa_supplicant/src/ap\ieee802_11_he.c **** 	 * band/stream cases.
 413:C:/Users/stapi/OneDrive/Desktop/GD32VW553/V1_MQTT_OK/GD32VW55X_Wifi_BLE_SDK/GD32VW55x_RELEASE_V1.0.2/MSDK/wpa_supplicant/src/ap\ieee802_11_he.c **** 	 */
 414:C:/Users/stapi/OneDrive/Desktop/GD32VW553/V1_MQTT_OK/GD32VW55X_Wifi_BLE_SDK/GD32VW55x_RELEASE_V1.0.2/MSDK/wpa_supplicant/src/ap\ieee802_11_he.c **** 	switch (hapd->iface->conf->he_oper_chwidth) {
 415:C:/Users/stapi/OneDrive/Desktop/GD32VW553/V1_MQTT_OK/GD32VW55X_Wifi_BLE_SDK/GD32VW55x_RELEASE_V1.0.2/MSDK/wpa_supplicant/src/ap\ieee802_11_he.c **** 	case CHANWIDTH_80P80MHZ:
 416:C:/Users/stapi/OneDrive/Desktop/GD32VW553/V1_MQTT_OK/GD32VW55X_Wifi_BLE_SDK/GD32VW55x_RELEASE_V1.0.2/MSDK/wpa_supplicant/src/ap\ieee802_11_he.c **** 		mcs_count = 3;
 417:C:/Users/stapi/OneDrive/Desktop/GD32VW553/V1_MQTT_OK/GD32VW55X_Wifi_BLE_SDK/GD32VW55x_RELEASE_V1.0.2/MSDK/wpa_supplicant/src/ap\ieee802_11_he.c **** 		break;
 418:C:/Users/stapi/OneDrive/Desktop/GD32VW553/V1_MQTT_OK/GD32VW55X_Wifi_BLE_SDK/GD32VW55x_RELEASE_V1.0.2/MSDK/wpa_supplicant/src/ap\ieee802_11_he.c **** 	case CHANWIDTH_160MHZ:
 419:C:/Users/stapi/OneDrive/Desktop/GD32VW553/V1_MQTT_OK/GD32VW55X_Wifi_BLE_SDK/GD32VW55x_RELEASE_V1.0.2/MSDK/wpa_supplicant/src/ap\ieee802_11_he.c **** 		mcs_count = 2;
 420:C:/Users/stapi/OneDrive/Desktop/GD32VW553/V1_MQTT_OK/GD32VW55X_Wifi_BLE_SDK/GD32VW55x_RELEASE_V1.0.2/MSDK/wpa_supplicant/src/ap\ieee802_11_he.c **** 		break;
 421:C:/Users/stapi/OneDrive/Desktop/GD32VW553/V1_MQTT_OK/GD32VW55X_Wifi_BLE_SDK/GD32VW55x_RELEASE_V1.0.2/MSDK/wpa_supplicant/src/ap\ieee802_11_he.c **** 	default:
 422:C:/Users/stapi/OneDrive/Desktop/GD32VW553/V1_MQTT_OK/GD32VW55X_Wifi_BLE_SDK/GD32VW55x_RELEASE_V1.0.2/MSDK/wpa_supplicant/src/ap\ieee802_11_he.c **** 		mcs_count = 1;
 423:C:/Users/stapi/OneDrive/Desktop/GD32VW553/V1_MQTT_OK/GD32VW55X_Wifi_BLE_SDK/GD32VW55x_RELEASE_V1.0.2/MSDK/wpa_supplicant/src/ap\ieee802_11_he.c **** 		break;
 424:C:/Users/stapi/OneDrive/Desktop/GD32VW553/V1_MQTT_OK/GD32VW55X_Wifi_BLE_SDK/GD32VW55x_RELEASE_V1.0.2/MSDK/wpa_supplicant/src/ap\ieee802_11_he.c **** 	}
 425:C:/Users/stapi/OneDrive/Desktop/GD32VW553/V1_MQTT_OK/GD32VW55X_Wifi_BLE_SDK/GD32VW55x_RELEASE_V1.0.2/MSDK/wpa_supplicant/src/ap\ieee802_11_he.c **** 
 426:C:/Users/stapi/OneDrive/Desktop/GD32VW553/V1_MQTT_OK/GD32VW55X_Wifi_BLE_SDK/GD32VW55x_RELEASE_V1.0.2/MSDK/wpa_supplicant/src/ap\ieee802_11_he.c **** 	for (i = 0; i < mcs_count; i++) {
 427:C:/Users/stapi/OneDrive/Desktop/GD32VW553/V1_MQTT_OK/GD32VW55X_Wifi_BLE_SDK/GD32VW55x_RELEASE_V1.0.2/MSDK/wpa_supplicant/src/ap\ieee802_11_he.c **** 		int j;
 428:C:/Users/stapi/OneDrive/Desktop/GD32VW553/V1_MQTT_OK/GD32VW55X_Wifi_BLE_SDK/GD32VW55x_RELEASE_V1.0.2/MSDK/wpa_supplicant/src/ap\ieee802_11_he.c **** 
 429:C:/Users/stapi/OneDrive/Desktop/GD32VW553/V1_MQTT_OK/GD32VW55X_Wifi_BLE_SDK/GD32VW55x_RELEASE_V1.0.2/MSDK/wpa_supplicant/src/ap\ieee802_11_he.c **** 		/* AP Tx MCS map vs. STA Rx MCS map */
 430:C:/Users/stapi/OneDrive/Desktop/GD32VW553/V1_MQTT_OK/GD32VW55X_Wifi_BLE_SDK/GD32VW55x_RELEASE_V1.0.2/MSDK/wpa_supplicant/src/ap\ieee802_11_he.c **** 		sta_rx_mcs_set = WPA_GET_LE16((const u8 *) &sta_mcs_set[i * 2]);
 431:C:/Users/stapi/OneDrive/Desktop/GD32VW553/V1_MQTT_OK/GD32VW55X_Wifi_BLE_SDK/GD32VW55x_RELEASE_V1.0.2/MSDK/wpa_supplicant/src/ap\ieee802_11_he.c **** 		ap_tx_mcs_set = WPA_GET_LE16((const u8 *)
 432:C:/Users/stapi/OneDrive/Desktop/GD32VW553/V1_MQTT_OK/GD32VW55X_Wifi_BLE_SDK/GD32VW55x_RELEASE_V1.0.2/MSDK/wpa_supplicant/src/ap\ieee802_11_he.c **** 					     &ap_mcs_set[(i * 2) + 1]);
 433:C:/Users/stapi/OneDrive/Desktop/GD32VW553/V1_MQTT_OK/GD32VW55X_Wifi_BLE_SDK/GD32VW55x_RELEASE_V1.0.2/MSDK/wpa_supplicant/src/ap\ieee802_11_he.c **** 
 434:C:/Users/stapi/OneDrive/Desktop/GD32VW553/V1_MQTT_OK/GD32VW55X_Wifi_BLE_SDK/GD32VW55x_RELEASE_V1.0.2/MSDK/wpa_supplicant/src/ap\ieee802_11_he.c **** 		for (j = 0; j < HE_NSS_MAX_STREAMS; j++) {
 435:C:/Users/stapi/OneDrive/Desktop/GD32VW553/V1_MQTT_OK/GD32VW55X_Wifi_BLE_SDK/GD32VW55x_RELEASE_V1.0.2/MSDK/wpa_supplicant/src/ap\ieee802_11_he.c **** 			if (((ap_tx_mcs_set >> (j * 2)) & 0x3) == 3)
 436:C:/Users/stapi/OneDrive/Desktop/GD32VW553/V1_MQTT_OK/GD32VW55X_Wifi_BLE_SDK/GD32VW55x_RELEASE_V1.0.2/MSDK/wpa_supplicant/src/ap\ieee802_11_he.c **** 				continue;
 437:C:/Users/stapi/OneDrive/Desktop/GD32VW553/V1_MQTT_OK/GD32VW55X_Wifi_BLE_SDK/GD32VW55x_RELEASE_V1.0.2/MSDK/wpa_supplicant/src/ap\ieee802_11_he.c **** 
 438:C:/Users/stapi/OneDrive/Desktop/GD32VW553/V1_MQTT_OK/GD32VW55X_Wifi_BLE_SDK/GD32VW55x_RELEASE_V1.0.2/MSDK/wpa_supplicant/src/ap\ieee802_11_he.c **** 			if (((sta_rx_mcs_set >> (j * 2)) & 0x3) == 3)
 439:C:/Users/stapi/OneDrive/Desktop/GD32VW553/V1_MQTT_OK/GD32VW55X_Wifi_BLE_SDK/GD32VW55x_RELEASE_V1.0.2/MSDK/wpa_supplicant/src/ap\ieee802_11_he.c **** 				continue;
 440:C:/Users/stapi/OneDrive/Desktop/GD32VW553/V1_MQTT_OK/GD32VW55X_Wifi_BLE_SDK/GD32VW55x_RELEASE_V1.0.2/MSDK/wpa_supplicant/src/ap\ieee802_11_he.c **** 
 441:C:/Users/stapi/OneDrive/Desktop/GD32VW553/V1_MQTT_OK/GD32VW55X_Wifi_BLE_SDK/GD32VW55x_RELEASE_V1.0.2/MSDK/wpa_supplicant/src/ap\ieee802_11_he.c **** 			return 1;
 442:C:/Users/stapi/OneDrive/Desktop/GD32VW553/V1_MQTT_OK/GD32VW55X_Wifi_BLE_SDK/GD32VW55x_RELEASE_V1.0.2/MSDK/wpa_supplicant/src/ap\ieee802_11_he.c **** 		}
 443:C:/Users/stapi/OneDrive/Desktop/GD32VW553/V1_MQTT_OK/GD32VW55X_Wifi_BLE_SDK/GD32VW55x_RELEASE_V1.0.2/MSDK/wpa_supplicant/src/ap\ieee802_11_he.c **** 	}
 444:C:/Users/stapi/OneDrive/Desktop/GD32VW553/V1_MQTT_OK/GD32VW55X_Wifi_BLE_SDK/GD32VW55x_RELEASE_V1.0.2/MSDK/wpa_supplicant/src/ap\ieee802_11_he.c **** 
 445:C:/Users/stapi/OneDrive/Desktop/GD32VW553/V1_MQTT_OK/GD32VW55X_Wifi_BLE_SDK/GD32VW55x_RELEASE_V1.0.2/MSDK/wpa_supplicant/src/ap\ieee802_11_he.c **** 	wpa_printf(MSG_DEBUG,
 446:C:/Users/stapi/OneDrive/Desktop/GD32VW553/V1_MQTT_OK/GD32VW55X_Wifi_BLE_SDK/GD32VW55x_RELEASE_V1.0.2/MSDK/wpa_supplicant/src/ap\ieee802_11_he.c **** 		   "No matching HE MCS found between AP TX and STA RX");
 447:C:/Users/stapi/OneDrive/Desktop/GD32VW553/V1_MQTT_OK/GD32VW55X_Wifi_BLE_SDK/GD32VW55x_RELEASE_V1.0.2/MSDK/wpa_supplicant/src/ap\ieee802_11_he.c **** 
 448:C:/Users/stapi/OneDrive/Desktop/GD32VW553/V1_MQTT_OK/GD32VW55X_Wifi_BLE_SDK/GD32VW55x_RELEASE_V1.0.2/MSDK/wpa_supplicant/src/ap\ieee802_11_he.c **** 	return 0;
 449:C:/Users/stapi/OneDrive/Desktop/GD32VW553/V1_MQTT_OK/GD32VW55X_Wifi_BLE_SDK/GD32VW55x_RELEASE_V1.0.2/MSDK/wpa_supplicant/src/ap\ieee802_11_he.c **** }
 450:C:/Users/stapi/OneDrive/Desktop/GD32VW553/V1_MQTT_OK/GD32VW55X_Wifi_BLE_SDK/GD32VW55x_RELEASE_V1.0.2/MSDK/wpa_supplicant/src/ap\ieee802_11_he.c **** 
 451:C:/Users/stapi/OneDrive/Desktop/GD32VW553/V1_MQTT_OK/GD32VW55X_Wifi_BLE_SDK/GD32VW55x_RELEASE_V1.0.2/MSDK/wpa_supplicant/src/ap\ieee802_11_he.c **** 
 452:C:/Users/stapi/OneDrive/Desktop/GD32VW553/V1_MQTT_OK/GD32VW55X_Wifi_BLE_SDK/GD32VW55x_RELEASE_V1.0.2/MSDK/wpa_supplicant/src/ap\ieee802_11_he.c **** u16 copy_sta_he_capab(struct hostapd_data *hapd, struct sta_info *sta,
 453:C:/Users/stapi/OneDrive/Desktop/GD32VW553/V1_MQTT_OK/GD32VW55X_Wifi_BLE_SDK/GD32VW55x_RELEASE_V1.0.2/MSDK/wpa_supplicant/src/ap\ieee802_11_he.c **** 		      enum ieee80211_op_mode opmode, const u8 *he_capab,
 454:C:/Users/stapi/OneDrive/Desktop/GD32VW553/V1_MQTT_OK/GD32VW55X_Wifi_BLE_SDK/GD32VW55x_RELEASE_V1.0.2/MSDK/wpa_supplicant/src/ap\ieee802_11_he.c **** 		      size_t he_capab_len)
 455:C:/Users/stapi/OneDrive/Desktop/GD32VW553/V1_MQTT_OK/GD32VW55X_Wifi_BLE_SDK/GD32VW55x_RELEASE_V1.0.2/MSDK/wpa_supplicant/src/ap\ieee802_11_he.c **** {
 1142              		.loc 1 455 1
 1143              		.cfi_startproc
 1144              	.LVL135:
 1145 0000 17030000 		call	t0,__riscv_save_4
 1145      E7020300 
 1146              		.cfi_offset 19, -20
 1147              		.cfi_offset 18, -16
 1148              		.cfi_offset 9, -12
 1149              		.cfi_offset 8, -8
 1150              		.cfi_offset 1, -4
 1151              		.cfi_def_cfa_offset 32
 456:C:/Users/stapi/OneDrive/Desktop/GD32VW553/V1_MQTT_OK/GD32VW55X_Wifi_BLE_SDK/GD32VW55x_RELEASE_V1.0.2/MSDK/wpa_supplicant/src/ap\ieee802_11_he.c **** 	if (!he_capab || !(sta->flags & WLAN_STA_WMM) ||
 1152              		.loc 1 456 2
 1153              		.loc 1 456 24 is_stmt 0
 1154 0008 9C51     		lw	a5,32(a1)
 455:C:/Users/stapi/OneDrive/Desktop/GD32VW553/V1_MQTT_OK/GD32VW55X_Wifi_BLE_SDK/GD32VW55x_RELEASE_V1.0.2/MSDK/wpa_supplicant/src/ap\ieee802_11_he.c **** 	if (!he_capab || !(sta->flags & WLAN_STA_WMM) ||
 1155              		.loc 1 455 1
 1156 000a 2E84     		mv	s0,a1
 1157              		.loc 1 456 5
 1158 000c D5C2     		beq	a3,zero,.L123
 1159              		.loc 1 456 32 discriminator 1
 1160 000e 93F70720 		andi	a5,a5,512
 1161              		.loc 1 456 16 discriminator 1
 1162 0012 D9CF     		beq	a5,zero,.L123
 457:C:/Users/stapi/OneDrive/Desktop/GD32VW553/V1_MQTT_OK/GD32VW55X_Wifi_BLE_SDK/GD32VW55x_RELEASE_V1.0.2/MSDK/wpa_supplicant/src/ap\ieee802_11_he.c **** 	    !hapd->iconf->ieee80211ax || hapd->conf->disable_11ax ||
 1163              		.loc 1 457 18 discriminator 2
 1164 0014 5C41     		lw	a5,4(a0)
 456:C:/Users/stapi/OneDrive/Desktop/GD32VW553/V1_MQTT_OK/GD32VW55X_Wifi_BLE_SDK/GD32VW55x_RELEASE_V1.0.2/MSDK/wpa_supplicant/src/ap\ieee802_11_he.c **** 	if (!he_capab || !(sta->flags & WLAN_STA_WMM) ||
 1165              		.loc 1 456 48 discriminator 2
 1166 0016 83A74715 		lw	a5,340(a5)
 1167 001a D9CB     		beq	a5,zero,.L123
 1168              		.loc 1 457 45
 1169 001c 1C45     		lw	a5,8(a0)
 1170              		.loc 1 457 32
 1171 001e 83C7A729 		lbu	a5,666(a5)
 1172 0022 D9E7     		bne	a5,zero,.L123
 1173 0024 BA89     		mv	s3,a4
 1174 0026 1841     		lw	a4,0(a0)
 1175              	.LVL136:
 1176 0028 3689     		mv	s2,a3
 1177              	.LVL137:
 1178              	.LBB46:
 1179              	.LBB47:
 397:C:/Users/stapi/OneDrive/Desktop/GD32VW553/V1_MQTT_OK/GD32VW55X_Wifi_BLE_SDK/GD32VW55x_RELEASE_V1.0.2/MSDK/wpa_supplicant/src/ap\ieee802_11_he.c **** 	u8 mcs_count = 0;
 1180              		.loc 1 397 2 is_stmt 1 discriminator 1
 398:C:/Users/stapi/OneDrive/Desktop/GD32VW553/V1_MQTT_OK/GD32VW55X_Wifi_BLE_SDK/GD32VW55x_RELEASE_V1.0.2/MSDK/wpa_supplicant/src/ap\ieee802_11_he.c **** 	const u16 *ap_mcs_set, *sta_mcs_set;
 1181              		.loc 1 398 2 discriminator 1
 399:C:/Users/stapi/OneDrive/Desktop/GD32VW553/V1_MQTT_OK/GD32VW55X_Wifi_BLE_SDK/GD32VW55x_RELEASE_V1.0.2/MSDK/wpa_supplicant/src/ap\ieee802_11_he.c **** 	int i;
 1182              		.loc 1 399 2 discriminator 1
 400:C:/Users/stapi/OneDrive/Desktop/GD32VW553/V1_MQTT_OK/GD32VW55X_Wifi_BLE_SDK/GD32VW55x_RELEASE_V1.0.2/MSDK/wpa_supplicant/src/ap\ieee802_11_he.c **** 
 1183              		.loc 1 400 2 discriminator 1
 402:C:/Users/stapi/OneDrive/Desktop/GD32VW553/V1_MQTT_OK/GD32VW55X_Wifi_BLE_SDK/GD32VW55x_RELEASE_V1.0.2/MSDK/wpa_supplicant/src/ap\ieee802_11_he.c **** 		return 1;
 1184              		.loc 1 402 2 discriminator 1
 402:C:/Users/stapi/OneDrive/Desktop/GD32VW553/V1_MQTT_OK/GD32VW55X_Wifi_BLE_SDK/GD32VW55x_RELEASE_V1.0.2/MSDK/wpa_supplicant/src/ap\ieee802_11_he.c **** 		return 1;
 1185              		.loc 1 402 18 is_stmt 0 discriminator 1
 1186 002a 83274746 		lw	a5,1124(a4)
 402:C:/Users/stapi/OneDrive/Desktop/GD32VW553/V1_MQTT_OK/GD32VW55X_Wifi_BLE_SDK/GD32VW55x_RELEASE_V1.0.2/MSDK/wpa_supplicant/src/ap\ieee802_11_he.c **** 		return 1;
 1187              		.loc 1 402 5 discriminator 1
 1188 002e D5C3     		beq	a5,zero,.L124
 404:C:/Users/stapi/OneDrive/Desktop/GD32VW553/V1_MQTT_OK/GD32VW55X_Wifi_BLE_SDK/GD32VW55x_RELEASE_V1.0.2/MSDK/wpa_supplicant/src/ap\ieee802_11_he.c **** 	sta_mcs_set = (u16 *) ((const struct ieee80211_he_capabilities *)
 1189              		.loc 1 404 2 is_stmt 1
 414:C:/Users/stapi/OneDrive/Desktop/GD32VW553/V1_MQTT_OK/GD32VW55X_Wifi_BLE_SDK/GD32VW55x_RELEASE_V1.0.2/MSDK/wpa_supplicant/src/ap\ieee802_11_he.c **** 	case CHANWIDTH_80P80MHZ:
 1190              		.loc 1 414 27 is_stmt 0
 1191 0030 5847     		lw	a4,12(a4)
 1192 0032 9306A003 		li	a3,58
 1193              	.LVL138:
 1194 0036 3306D602 		mul	a2,a2,a3
 1195              	.LVL139:
 405:C:/Users/stapi/OneDrive/Desktop/GD32VW553/V1_MQTT_OK/GD32VW55X_Wifi_BLE_SDK/GD32VW55x_RELEASE_V1.0.2/MSDK/wpa_supplicant/src/ap\ieee802_11_he.c **** 			       sta_he_capab)->optional;
 1196              		.loc 1 405 2 is_stmt 1
 414:C:/Users/stapi/OneDrive/Desktop/GD32VW553/V1_MQTT_OK/GD32VW55X_Wifi_BLE_SDK/GD32VW55x_RELEASE_V1.0.2/MSDK/wpa_supplicant/src/ap\ieee802_11_he.c **** 	case CHANWIDTH_80P80MHZ:
 1197              		.loc 1 414 2
 414:C:/Users/stapi/OneDrive/Desktop/GD32VW553/V1_MQTT_OK/GD32VW55X_Wifi_BLE_SDK/GD32VW55x_RELEASE_V1.0.2/MSDK/wpa_supplicant/src/ap\ieee802_11_he.c **** 	case CHANWIDTH_80P80MHZ:
 1198              		.loc 1 414 27 is_stmt 0
 1199 003a 83459718 		lbu	a1,393(a4)
 1200              	.LVL140:
 414:C:/Users/stapi/OneDrive/Desktop/GD32VW553/V1_MQTT_OK/GD32VW55X_Wifi_BLE_SDK/GD32VW55x_RELEASE_V1.0.2/MSDK/wpa_supplicant/src/ap\ieee802_11_he.c **** 	case CHANWIDTH_80P80MHZ:
 1201              		.loc 1 414 2
 1202 003e 0947     		li	a4,2
 1203 0040 6386E500 		beq	a1,a4,.L125
 1204 0044 0D47     		li	a4,3
 1205 0046 6383E500 		beq	a1,a4,.L125
 422:C:/Users/stapi/OneDrive/Desktop/GD32VW553/V1_MQTT_OK/GD32VW55X_Wifi_BLE_SDK/GD32VW55x_RELEASE_V1.0.2/MSDK/wpa_supplicant/src/ap\ieee802_11_he.c **** 		break;
 1206              		.loc 1 422 13
 1207 004a 8545     		li	a1,1
 1208              	.L125:
 1209              	.LVL141:
 426:C:/Users/stapi/OneDrive/Desktop/GD32VW553/V1_MQTT_OK/GD32VW55X_Wifi_BLE_SDK/GD32VW55x_RELEASE_V1.0.2/MSDK/wpa_supplicant/src/ap\ieee802_11_he.c **** 		int j;
 1210              		.loc 1 426 2 is_stmt 1
 426:C:/Users/stapi/OneDrive/Desktop/GD32VW553/V1_MQTT_OK/GD32VW55X_Wifi_BLE_SDK/GD32VW55x_RELEASE_V1.0.2/MSDK/wpa_supplicant/src/ap\ieee802_11_he.c **** 		int j;
 1211              		.loc 1 426 14
 1212 004c 1306C604 		addi	a2,a2,76
 1213              	.LVL142:
 1214 0050 13051901 		addi	a0,s2,17
 1215              	.LVL143:
 1216 0054 B297     		add	a5,a5,a2
 1217              	.LVL144:
 426:C:/Users/stapi/OneDrive/Desktop/GD32VW553/V1_MQTT_OK/GD32VW55X_Wifi_BLE_SDK/GD32VW55x_RELEASE_V1.0.2/MSDK/wpa_supplicant/src/ap\ieee802_11_he.c **** 		int j;
 1218              		.loc 1 426 9 is_stmt 0
 1219 0056 0148     		li	a6,0
 1220              	.LBB48:
 435:C:/Users/stapi/OneDrive/Desktop/GD32VW553/V1_MQTT_OK/GD32VW55X_Wifi_BLE_SDK/GD32VW55x_RELEASE_V1.0.2/MSDK/wpa_supplicant/src/ap\ieee802_11_he.c **** 				continue;
 1221              		.loc 1 435 7
 1222 0058 0D43     		li	t1,3
 434:C:/Users/stapi/OneDrive/Desktop/GD32VW553/V1_MQTT_OK/GD32VW55X_Wifi_BLE_SDK/GD32VW55x_RELEASE_V1.0.2/MSDK/wpa_supplicant/src/ap\ieee802_11_he.c **** 			if (((ap_tx_mcs_set >> (j * 2)) & 0x3) == 3)
 1223              		.loc 1 434 3
 1224 005a 414E     		li	t3,16
 1225              	.LVL145:
 1226              	.L128:
 427:C:/Users/stapi/OneDrive/Desktop/GD32VW553/V1_MQTT_OK/GD32VW55X_Wifi_BLE_SDK/GD32VW55x_RELEASE_V1.0.2/MSDK/wpa_supplicant/src/ap\ieee802_11_he.c **** 
 1227              		.loc 1 427 3 is_stmt 1
 430:C:/Users/stapi/OneDrive/Desktop/GD32VW553/V1_MQTT_OK/GD32VW55X_Wifi_BLE_SDK/GD32VW55x_RELEASE_V1.0.2/MSDK/wpa_supplicant/src/ap\ieee802_11_he.c **** 		ap_tx_mcs_set = WPA_GET_LE16((const u8 *)
 1228              		.loc 1 430 3
 1229              	.LBE48:
 1230              	.LBE47:
 1231              	.LBE46:
 1232              		.file 3 "..\\..\\..\\..\\wpa_supplicant\\src/utils/common.h"
   1:..\..\..\..\wpa_supplicant\src/utils/common.h **** /*
   2:..\..\..\..\wpa_supplicant\src/utils/common.h ****  * wpa_supplicant/hostapd / common helper functions, etc.
   3:..\..\..\..\wpa_supplicant\src/utils/common.h ****  * Copyright (c) 2002-2007, Jouni Malinen <j@w1.fi>
   4:..\..\..\..\wpa_supplicant\src/utils/common.h ****  *
   5:..\..\..\..\wpa_supplicant\src/utils/common.h ****  * This software may be distributed under the terms of the BSD license.
   6:..\..\..\..\wpa_supplicant\src/utils/common.h ****  * See README for more details.
   7:..\..\..\..\wpa_supplicant\src/utils/common.h ****  */
   8:..\..\..\..\wpa_supplicant\src/utils/common.h **** 
   9:..\..\..\..\wpa_supplicant\src/utils/common.h **** #ifndef COMMON_H
  10:..\..\..\..\wpa_supplicant\src/utils/common.h **** #define COMMON_H
  11:..\..\..\..\wpa_supplicant\src/utils/common.h **** 
  12:..\..\..\..\wpa_supplicant\src/utils/common.h **** #include "os.h"
  13:..\..\..\..\wpa_supplicant\src/utils/common.h **** 
  14:..\..\..\..\wpa_supplicant\src/utils/common.h **** #if defined(__linux__) || defined(__GLIBC__)
  15:..\..\..\..\wpa_supplicant\src/utils/common.h **** #include <endian.h>
  16:..\..\..\..\wpa_supplicant\src/utils/common.h **** #include <byteswap.h>
  17:..\..\..\..\wpa_supplicant\src/utils/common.h **** #endif /* __linux__ */
  18:..\..\..\..\wpa_supplicant\src/utils/common.h **** 
  19:..\..\..\..\wpa_supplicant\src/utils/common.h **** #if defined(__FreeBSD__) || defined(__NetBSD__) || defined(__DragonFly__) || \
  20:..\..\..\..\wpa_supplicant\src/utils/common.h ****     defined(__OpenBSD__)
  21:..\..\..\..\wpa_supplicant\src/utils/common.h **** #include <sys/types.h>
  22:..\..\..\..\wpa_supplicant\src/utils/common.h **** #include <sys/endian.h>
  23:..\..\..\..\wpa_supplicant\src/utils/common.h **** #define __BYTE_ORDER	_BYTE_ORDER
  24:..\..\..\..\wpa_supplicant\src/utils/common.h **** #define	__LITTLE_ENDIAN	_LITTLE_ENDIAN
  25:..\..\..\..\wpa_supplicant\src/utils/common.h **** #define	__BIG_ENDIAN	_BIG_ENDIAN
  26:..\..\..\..\wpa_supplicant\src/utils/common.h **** #ifdef __OpenBSD__
  27:..\..\..\..\wpa_supplicant\src/utils/common.h **** #define bswap_16 swap16
  28:..\..\..\..\wpa_supplicant\src/utils/common.h **** #define bswap_32 swap32
  29:..\..\..\..\wpa_supplicant\src/utils/common.h **** #define bswap_64 swap64
  30:..\..\..\..\wpa_supplicant\src/utils/common.h **** #else /* __OpenBSD__ */
  31:..\..\..\..\wpa_supplicant\src/utils/common.h **** #define bswap_16 bswap16
  32:..\..\..\..\wpa_supplicant\src/utils/common.h **** #define bswap_32 bswap32
  33:..\..\..\..\wpa_supplicant\src/utils/common.h **** #define bswap_64 bswap64
  34:..\..\..\..\wpa_supplicant\src/utils/common.h **** #endif /* __OpenBSD__ */
  35:..\..\..\..\wpa_supplicant\src/utils/common.h **** #endif /* defined(__FreeBSD__) || defined(__NetBSD__) ||
  36:..\..\..\..\wpa_supplicant\src/utils/common.h **** 	* defined(__DragonFly__) || defined(__OpenBSD__) */
  37:..\..\..\..\wpa_supplicant\src/utils/common.h **** 
  38:..\..\..\..\wpa_supplicant\src/utils/common.h **** #ifdef __APPLE__
  39:..\..\..\..\wpa_supplicant\src/utils/common.h **** #include <sys/types.h>
  40:..\..\..\..\wpa_supplicant\src/utils/common.h **** #include <machine/endian.h>
  41:..\..\..\..\wpa_supplicant\src/utils/common.h **** #define __BYTE_ORDER	_BYTE_ORDER
  42:..\..\..\..\wpa_supplicant\src/utils/common.h **** #define __LITTLE_ENDIAN	_LITTLE_ENDIAN
  43:..\..\..\..\wpa_supplicant\src/utils/common.h **** #define __BIG_ENDIAN	_BIG_ENDIAN
  44:..\..\..\..\wpa_supplicant\src/utils/common.h **** static inline unsigned short bswap_16(unsigned short v)
  45:..\..\..\..\wpa_supplicant\src/utils/common.h **** {
  46:..\..\..\..\wpa_supplicant\src/utils/common.h **** 	return ((v & 0xff) << 8) | (v >> 8);
  47:..\..\..\..\wpa_supplicant\src/utils/common.h **** }
  48:..\..\..\..\wpa_supplicant\src/utils/common.h **** 
  49:..\..\..\..\wpa_supplicant\src/utils/common.h **** static inline unsigned int bswap_32(unsigned int v)
  50:..\..\..\..\wpa_supplicant\src/utils/common.h **** {
  51:..\..\..\..\wpa_supplicant\src/utils/common.h **** 	return ((v & 0xff) << 24) | ((v & 0xff00) << 8) |
  52:..\..\..\..\wpa_supplicant\src/utils/common.h **** 		((v & 0xff0000) >> 8) | (v >> 24);
  53:..\..\..\..\wpa_supplicant\src/utils/common.h **** }
  54:..\..\..\..\wpa_supplicant\src/utils/common.h **** #endif /* __APPLE__ */
  55:..\..\..\..\wpa_supplicant\src/utils/common.h **** 
  56:..\..\..\..\wpa_supplicant\src/utils/common.h **** #ifdef CONFIG_GDWIFI
  57:..\..\..\..\wpa_supplicant\src/utils/common.h **** // #include <sys/types.h>
  58:..\..\..\..\wpa_supplicant\src/utils/common.h **** // #include <machine/endian.h>
  59:..\..\..\..\wpa_supplicant\src/utils/common.h **** #define __BYTE_ORDER	BYTE_ORDER
  60:..\..\..\..\wpa_supplicant\src/utils/common.h **** #define __LITTLE_ENDIAN	LITTLE_ENDIAN
  61:..\..\..\..\wpa_supplicant\src/utils/common.h **** #define __BIG_ENDIAN	BIG_ENDIAN
  62:..\..\..\..\wpa_supplicant\src/utils/common.h **** #define ETHER_ADDR_LEN	6
  63:..\..\..\..\wpa_supplicant\src/utils/common.h **** #define ETH_P_802_3	0x0001		/* Dummy type for 802.3 frames  */
  64:..\..\..\..\wpa_supplicant\src/utils/common.h **** 
  65:..\..\..\..\wpa_supplicant\src/utils/common.h **** static inline unsigned short bswap_16(unsigned short v)
  66:..\..\..\..\wpa_supplicant\src/utils/common.h **** {
  67:..\..\..\..\wpa_supplicant\src/utils/common.h **** 	return ((v & 0xff) << 8) | (v >> 8);
  68:..\..\..\..\wpa_supplicant\src/utils/common.h **** }
  69:..\..\..\..\wpa_supplicant\src/utils/common.h **** 
  70:..\..\..\..\wpa_supplicant\src/utils/common.h **** static inline unsigned int bswap_32(unsigned int v)
  71:..\..\..\..\wpa_supplicant\src/utils/common.h **** {
  72:..\..\..\..\wpa_supplicant\src/utils/common.h **** 	return ((v & 0xff) << 24) | ((v & 0xff00) << 8) |
  73:..\..\..\..\wpa_supplicant\src/utils/common.h **** 		((v & 0xff0000) >> 8) | (v >> 24);
  74:..\..\..\..\wpa_supplicant\src/utils/common.h **** }
  75:..\..\..\..\wpa_supplicant\src/utils/common.h **** 
  76:..\..\..\..\wpa_supplicant\src/utils/common.h **** struct ether_header
  77:..\..\..\..\wpa_supplicant\src/utils/common.h **** {
  78:..\..\..\..\wpa_supplicant\src/utils/common.h **** 	uint8_t  ether_dhost[ETHER_ADDR_LEN];
  79:..\..\..\..\wpa_supplicant\src/utils/common.h **** 	uint8_t  ether_shost[ETHER_ADDR_LEN];
  80:..\..\..\..\wpa_supplicant\src/utils/common.h **** 	uint16_t ether_type;
  81:..\..\..\..\wpa_supplicant\src/utils/common.h **** } __PACKED;
  82:..\..\..\..\wpa_supplicant\src/utils/common.h **** #endif /* CONFIG_GDWIFI */
  83:..\..\..\..\wpa_supplicant\src/utils/common.h **** #ifdef __rtems__
  84:..\..\..\..\wpa_supplicant\src/utils/common.h **** #include <rtems/endian.h>
  85:..\..\..\..\wpa_supplicant\src/utils/common.h **** #define __BYTE_ORDER BYTE_ORDER
  86:..\..\..\..\wpa_supplicant\src/utils/common.h **** #define __LITTLE_ENDIAN LITTLE_ENDIAN
  87:..\..\..\..\wpa_supplicant\src/utils/common.h **** #define __BIG_ENDIAN BIG_ENDIAN
  88:..\..\..\..\wpa_supplicant\src/utils/common.h **** #define bswap_16 CPU_swap_u16
  89:..\..\..\..\wpa_supplicant\src/utils/common.h **** #define bswap_32 CPU_swap_u32
  90:..\..\..\..\wpa_supplicant\src/utils/common.h **** #endif /* __rtems__ */
  91:..\..\..\..\wpa_supplicant\src/utils/common.h **** 
  92:..\..\..\..\wpa_supplicant\src/utils/common.h **** #ifdef CONFIG_NATIVE_WINDOWS
  93:..\..\..\..\wpa_supplicant\src/utils/common.h **** #include <winsock.h>
  94:..\..\..\..\wpa_supplicant\src/utils/common.h **** 
  95:..\..\..\..\wpa_supplicant\src/utils/common.h **** typedef int socklen_t;
  96:..\..\..\..\wpa_supplicant\src/utils/common.h **** 
  97:..\..\..\..\wpa_supplicant\src/utils/common.h **** #ifndef MSG_DONTWAIT
  98:..\..\..\..\wpa_supplicant\src/utils/common.h **** #define MSG_DONTWAIT 0 /* not supported */
  99:..\..\..\..\wpa_supplicant\src/utils/common.h **** #endif
 100:..\..\..\..\wpa_supplicant\src/utils/common.h **** 
 101:..\..\..\..\wpa_supplicant\src/utils/common.h **** #endif /* CONFIG_NATIVE_WINDOWS */
 102:..\..\..\..\wpa_supplicant\src/utils/common.h **** 
 103:..\..\..\..\wpa_supplicant\src/utils/common.h **** #ifdef _MSC_VER
 104:..\..\..\..\wpa_supplicant\src/utils/common.h **** #define inline __inline
 105:..\..\..\..\wpa_supplicant\src/utils/common.h **** 
 106:..\..\..\..\wpa_supplicant\src/utils/common.h **** #undef vsnprintf
 107:..\..\..\..\wpa_supplicant\src/utils/common.h **** #define vsnprintf _vsnprintf
 108:..\..\..\..\wpa_supplicant\src/utils/common.h **** #undef close
 109:..\..\..\..\wpa_supplicant\src/utils/common.h **** #define close closesocket
 110:..\..\..\..\wpa_supplicant\src/utils/common.h **** #endif /* _MSC_VER */
 111:..\..\..\..\wpa_supplicant\src/utils/common.h **** 
 112:..\..\..\..\wpa_supplicant\src/utils/common.h **** 
 113:..\..\..\..\wpa_supplicant\src/utils/common.h **** /* Define platform specific integer types */
 114:..\..\..\..\wpa_supplicant\src/utils/common.h **** 
 115:..\..\..\..\wpa_supplicant\src/utils/common.h **** #ifdef _MSC_VER
 116:..\..\..\..\wpa_supplicant\src/utils/common.h **** typedef UINT64 u64;
 117:..\..\..\..\wpa_supplicant\src/utils/common.h **** typedef UINT32 u32;
 118:..\..\..\..\wpa_supplicant\src/utils/common.h **** typedef UINT16 u16;
 119:..\..\..\..\wpa_supplicant\src/utils/common.h **** typedef UINT8 u8;
 120:..\..\..\..\wpa_supplicant\src/utils/common.h **** typedef INT64 s64;
 121:..\..\..\..\wpa_supplicant\src/utils/common.h **** typedef INT32 s32;
 122:..\..\..\..\wpa_supplicant\src/utils/common.h **** typedef INT16 s16;
 123:..\..\..\..\wpa_supplicant\src/utils/common.h **** typedef INT8 s8;
 124:..\..\..\..\wpa_supplicant\src/utils/common.h **** #define WPA_TYPES_DEFINED
 125:..\..\..\..\wpa_supplicant\src/utils/common.h **** #endif /* _MSC_VER */
 126:..\..\..\..\wpa_supplicant\src/utils/common.h **** 
 127:..\..\..\..\wpa_supplicant\src/utils/common.h **** #ifdef __vxworks
 128:..\..\..\..\wpa_supplicant\src/utils/common.h **** typedef unsigned long long u64;
 129:..\..\..\..\wpa_supplicant\src/utils/common.h **** typedef UINT32 u32;
 130:..\..\..\..\wpa_supplicant\src/utils/common.h **** typedef UINT16 u16;
 131:..\..\..\..\wpa_supplicant\src/utils/common.h **** typedef UINT8 u8;
 132:..\..\..\..\wpa_supplicant\src/utils/common.h **** typedef long long s64;
 133:..\..\..\..\wpa_supplicant\src/utils/common.h **** typedef INT32 s32;
 134:..\..\..\..\wpa_supplicant\src/utils/common.h **** typedef INT16 s16;
 135:..\..\..\..\wpa_supplicant\src/utils/common.h **** typedef INT8 s8;
 136:..\..\..\..\wpa_supplicant\src/utils/common.h **** #define WPA_TYPES_DEFINED
 137:..\..\..\..\wpa_supplicant\src/utils/common.h **** #endif /* __vxworks */
 138:..\..\..\..\wpa_supplicant\src/utils/common.h **** 
 139:..\..\..\..\wpa_supplicant\src/utils/common.h **** #ifndef WPA_TYPES_DEFINED
 140:..\..\..\..\wpa_supplicant\src/utils/common.h **** #ifdef CONFIG_USE_INTTYPES_H
 141:..\..\..\..\wpa_supplicant\src/utils/common.h **** #include <inttypes.h>
 142:..\..\..\..\wpa_supplicant\src/utils/common.h **** #else
 143:..\..\..\..\wpa_supplicant\src/utils/common.h **** #include <stdint.h>
 144:..\..\..\..\wpa_supplicant\src/utils/common.h **** #endif
 145:..\..\..\..\wpa_supplicant\src/utils/common.h **** typedef uint64_t u64;
 146:..\..\..\..\wpa_supplicant\src/utils/common.h **** typedef uint32_t u32;
 147:..\..\..\..\wpa_supplicant\src/utils/common.h **** typedef uint16_t u16;
 148:..\..\..\..\wpa_supplicant\src/utils/common.h **** typedef uint8_t u8;
 149:..\..\..\..\wpa_supplicant\src/utils/common.h **** typedef int64_t s64;
 150:..\..\..\..\wpa_supplicant\src/utils/common.h **** typedef int32_t s32;
 151:..\..\..\..\wpa_supplicant\src/utils/common.h **** typedef int16_t s16;
 152:..\..\..\..\wpa_supplicant\src/utils/common.h **** typedef int8_t s8;
 153:..\..\..\..\wpa_supplicant\src/utils/common.h **** #define WPA_TYPES_DEFINED
 154:..\..\..\..\wpa_supplicant\src/utils/common.h **** #endif /* !WPA_TYPES_DEFINED */
 155:..\..\..\..\wpa_supplicant\src/utils/common.h **** 
 156:..\..\..\..\wpa_supplicant\src/utils/common.h **** 
 157:..\..\..\..\wpa_supplicant\src/utils/common.h **** /* Define platform specific byte swapping macros */
 158:..\..\..\..\wpa_supplicant\src/utils/common.h **** 
 159:..\..\..\..\wpa_supplicant\src/utils/common.h **** #if defined(__CYGWIN__) || defined(CONFIG_NATIVE_WINDOWS)
 160:..\..\..\..\wpa_supplicant\src/utils/common.h **** 
 161:..\..\..\..\wpa_supplicant\src/utils/common.h **** static inline unsigned short wpa_swap_16(unsigned short v)
 162:..\..\..\..\wpa_supplicant\src/utils/common.h **** {
 163:..\..\..\..\wpa_supplicant\src/utils/common.h **** 	return ((v & 0xff) << 8) | (v >> 8);
 164:..\..\..\..\wpa_supplicant\src/utils/common.h **** }
 165:..\..\..\..\wpa_supplicant\src/utils/common.h **** 
 166:..\..\..\..\wpa_supplicant\src/utils/common.h **** static inline unsigned int wpa_swap_32(unsigned int v)
 167:..\..\..\..\wpa_supplicant\src/utils/common.h **** {
 168:..\..\..\..\wpa_supplicant\src/utils/common.h **** 	return ((v & 0xff) << 24) | ((v & 0xff00) << 8) |
 169:..\..\..\..\wpa_supplicant\src/utils/common.h **** 		((v & 0xff0000) >> 8) | (v >> 24);
 170:..\..\..\..\wpa_supplicant\src/utils/common.h **** }
 171:..\..\..\..\wpa_supplicant\src/utils/common.h **** 
 172:..\..\..\..\wpa_supplicant\src/utils/common.h **** #define le_to_host16(n) (n)
 173:..\..\..\..\wpa_supplicant\src/utils/common.h **** #define host_to_le16(n) (n)
 174:..\..\..\..\wpa_supplicant\src/utils/common.h **** #define be_to_host16(n) wpa_swap_16(n)
 175:..\..\..\..\wpa_supplicant\src/utils/common.h **** #define host_to_be16(n) wpa_swap_16(n)
 176:..\..\..\..\wpa_supplicant\src/utils/common.h **** #define le_to_host32(n) (n)
 177:..\..\..\..\wpa_supplicant\src/utils/common.h **** #define host_to_le32(n) (n)
 178:..\..\..\..\wpa_supplicant\src/utils/common.h **** #define be_to_host32(n) wpa_swap_32(n)
 179:..\..\..\..\wpa_supplicant\src/utils/common.h **** #define host_to_be32(n) wpa_swap_32(n)
 180:..\..\..\..\wpa_supplicant\src/utils/common.h **** #define host_to_le64(n) (n)
 181:..\..\..\..\wpa_supplicant\src/utils/common.h **** 
 182:..\..\..\..\wpa_supplicant\src/utils/common.h **** #define WPA_BYTE_SWAP_DEFINED
 183:..\..\..\..\wpa_supplicant\src/utils/common.h **** 
 184:..\..\..\..\wpa_supplicant\src/utils/common.h **** #endif /* __CYGWIN__ || CONFIG_NATIVE_WINDOWS */
 185:..\..\..\..\wpa_supplicant\src/utils/common.h **** 
 186:..\..\..\..\wpa_supplicant\src/utils/common.h **** 
 187:..\..\..\..\wpa_supplicant\src/utils/common.h **** #ifndef WPA_BYTE_SWAP_DEFINED
 188:..\..\..\..\wpa_supplicant\src/utils/common.h **** 
 189:..\..\..\..\wpa_supplicant\src/utils/common.h **** #ifndef __BYTE_ORDER
 190:..\..\..\..\wpa_supplicant\src/utils/common.h **** #ifndef __LITTLE_ENDIAN
 191:..\..\..\..\wpa_supplicant\src/utils/common.h **** #ifndef __BIG_ENDIAN
 192:..\..\..\..\wpa_supplicant\src/utils/common.h **** #define __LITTLE_ENDIAN 1234
 193:..\..\..\..\wpa_supplicant\src/utils/common.h **** #define __BIG_ENDIAN 4321
 194:..\..\..\..\wpa_supplicant\src/utils/common.h **** #if defined(sparc)
 195:..\..\..\..\wpa_supplicant\src/utils/common.h **** #define __BYTE_ORDER __BIG_ENDIAN
 196:..\..\..\..\wpa_supplicant\src/utils/common.h **** #endif
 197:..\..\..\..\wpa_supplicant\src/utils/common.h **** #endif /* __BIG_ENDIAN */
 198:..\..\..\..\wpa_supplicant\src/utils/common.h **** #endif /* __LITTLE_ENDIAN */
 199:..\..\..\..\wpa_supplicant\src/utils/common.h **** #endif /* __BYTE_ORDER */
 200:..\..\..\..\wpa_supplicant\src/utils/common.h **** 
 201:..\..\..\..\wpa_supplicant\src/utils/common.h **** #if __BYTE_ORDER == __LITTLE_ENDIAN
 202:..\..\..\..\wpa_supplicant\src/utils/common.h **** #define le_to_host16(n) ((__force u16) (le16) (n))
 203:..\..\..\..\wpa_supplicant\src/utils/common.h **** #define host_to_le16(n) ((__force le16) (u16) (n))
 204:..\..\..\..\wpa_supplicant\src/utils/common.h **** #define be_to_host16(n) bswap_16((__force u16) (be16) (n))
 205:..\..\..\..\wpa_supplicant\src/utils/common.h **** #define host_to_be16(n) ((__force be16) bswap_16((n)))
 206:..\..\..\..\wpa_supplicant\src/utils/common.h **** #define le_to_host32(n) ((__force u32) (le32) (n))
 207:..\..\..\..\wpa_supplicant\src/utils/common.h **** #define host_to_le32(n) ((__force le32) (u32) (n))
 208:..\..\..\..\wpa_supplicant\src/utils/common.h **** #define be_to_host32(n) bswap_32((__force u32) (be32) (n))
 209:..\..\..\..\wpa_supplicant\src/utils/common.h **** #define host_to_be32(n) ((__force be32) bswap_32((n)))
 210:..\..\..\..\wpa_supplicant\src/utils/common.h **** #define le_to_host64(n) ((__force u64) (le64) (n))
 211:..\..\..\..\wpa_supplicant\src/utils/common.h **** #define host_to_le64(n) ((__force le64) (u64) (n))
 212:..\..\..\..\wpa_supplicant\src/utils/common.h **** #define be_to_host64(n) bswap_64((__force u64) (be64) (n))
 213:..\..\..\..\wpa_supplicant\src/utils/common.h **** #define host_to_be64(n) ((__force be64) bswap_64((n)))
 214:..\..\..\..\wpa_supplicant\src/utils/common.h **** #elif __BYTE_ORDER == __BIG_ENDIAN
 215:..\..\..\..\wpa_supplicant\src/utils/common.h **** #define le_to_host16(n) bswap_16(n)
 216:..\..\..\..\wpa_supplicant\src/utils/common.h **** #define host_to_le16(n) bswap_16(n)
 217:..\..\..\..\wpa_supplicant\src/utils/common.h **** #define be_to_host16(n) (n)
 218:..\..\..\..\wpa_supplicant\src/utils/common.h **** #define host_to_be16(n) (n)
 219:..\..\..\..\wpa_supplicant\src/utils/common.h **** #define le_to_host32(n) bswap_32(n)
 220:..\..\..\..\wpa_supplicant\src/utils/common.h **** #define host_to_le32(n) bswap_32(n)
 221:..\..\..\..\wpa_supplicant\src/utils/common.h **** #define be_to_host32(n) (n)
 222:..\..\..\..\wpa_supplicant\src/utils/common.h **** #define host_to_be32(n) (n)
 223:..\..\..\..\wpa_supplicant\src/utils/common.h **** #define le_to_host64(n) bswap_64(n)
 224:..\..\..\..\wpa_supplicant\src/utils/common.h **** #define host_to_le64(n) bswap_64(n)
 225:..\..\..\..\wpa_supplicant\src/utils/common.h **** #define be_to_host64(n) (n)
 226:..\..\..\..\wpa_supplicant\src/utils/common.h **** #define host_to_be64(n) (n)
 227:..\..\..\..\wpa_supplicant\src/utils/common.h **** #ifndef WORDS_BIGENDIAN
 228:..\..\..\..\wpa_supplicant\src/utils/common.h **** #define WORDS_BIGENDIAN
 229:..\..\..\..\wpa_supplicant\src/utils/common.h **** #endif
 230:..\..\..\..\wpa_supplicant\src/utils/common.h **** #else
 231:..\..\..\..\wpa_supplicant\src/utils/common.h **** #error Could not determine CPU byte order
 232:..\..\..\..\wpa_supplicant\src/utils/common.h **** #endif
 233:..\..\..\..\wpa_supplicant\src/utils/common.h **** 
 234:..\..\..\..\wpa_supplicant\src/utils/common.h **** #define WPA_BYTE_SWAP_DEFINED
 235:..\..\..\..\wpa_supplicant\src/utils/common.h **** #endif /* !WPA_BYTE_SWAP_DEFINED */
 236:..\..\..\..\wpa_supplicant\src/utils/common.h **** 
 237:..\..\..\..\wpa_supplicant\src/utils/common.h **** 
 238:..\..\..\..\wpa_supplicant\src/utils/common.h **** /* Macros for handling unaligned memory accesses */
 239:..\..\..\..\wpa_supplicant\src/utils/common.h **** 
 240:..\..\..\..\wpa_supplicant\src/utils/common.h **** static inline u16 WPA_GET_BE16(const u8 *a)
 241:..\..\..\..\wpa_supplicant\src/utils/common.h **** {
 242:..\..\..\..\wpa_supplicant\src/utils/common.h **** 	return (a[0] << 8) | a[1];
 243:..\..\..\..\wpa_supplicant\src/utils/common.h **** }
 244:..\..\..\..\wpa_supplicant\src/utils/common.h **** 
 245:..\..\..\..\wpa_supplicant\src/utils/common.h **** static inline void WPA_PUT_BE16(u8 *a, u16 val)
 246:..\..\..\..\wpa_supplicant\src/utils/common.h **** {
 247:..\..\..\..\wpa_supplicant\src/utils/common.h **** 	a[0] = val >> 8;
 248:..\..\..\..\wpa_supplicant\src/utils/common.h **** 	a[1] = val & 0xff;
 249:..\..\..\..\wpa_supplicant\src/utils/common.h **** }
 250:..\..\..\..\wpa_supplicant\src/utils/common.h **** 
 251:..\..\..\..\wpa_supplicant\src/utils/common.h **** static inline u16 WPA_GET_LE16(const u8 *a)
 252:..\..\..\..\wpa_supplicant\src/utils/common.h **** {
 253:..\..\..\..\wpa_supplicant\src/utils/common.h **** 	return (a[1] << 8) | a[0];
 1233              		.loc 3 253 2
 1234 005c 83461500 		lbu	a3,1(a0)
 1235 0060 03470500 		lbu	a4,0(a0)
 1236 0064 03C61700 		lbu	a2,1(a5)
 1237 0068 A206     		slli	a3,a3,8
 1238 006a D98E     		or	a3,a3,a4
 1239              	.LVL146:
 1240              	.LBB53:
 1241              	.LBB51:
 1242              	.LBB49:
 431:C:/Users/stapi/OneDrive/Desktop/GD32VW553/V1_MQTT_OK/GD32VW55X_Wifi_BLE_SDK/GD32VW55x_RELEASE_V1.0.2/MSDK/wpa_supplicant/src/ap\ieee802_11_he.c **** 					     &ap_mcs_set[(i * 2) + 1]);
 1243              		.loc 1 431 3
 1244              	.LBE49:
 1245              	.LBE51:
 1246              	.LBE53:
 1247              		.loc 3 253 2
 1248 006c 03C70700 		lbu	a4,0(a5)
 1249 0070 2206     		slli	a2,a2,8
 1250 0072 598E     		or	a2,a2,a4
 1251              	.LVL147:
 1252              	.LBB54:
 1253              	.LBB52:
 1254              	.LBB50:
 434:C:/Users/stapi/OneDrive/Desktop/GD32VW553/V1_MQTT_OK/GD32VW55X_Wifi_BLE_SDK/GD32VW55x_RELEASE_V1.0.2/MSDK/wpa_supplicant/src/ap\ieee802_11_he.c **** 			if (((ap_tx_mcs_set >> (j * 2)) & 0x3) == 3)
 1255              		.loc 1 434 3
 434:C:/Users/stapi/OneDrive/Desktop/GD32VW553/V1_MQTT_OK/GD32VW55X_Wifi_BLE_SDK/GD32VW55x_RELEASE_V1.0.2/MSDK/wpa_supplicant/src/ap\ieee802_11_he.c **** 			if (((ap_tx_mcs_set >> (j * 2)) & 0x3) == 3)
 1256              		.loc 1 434 15
 432:C:/Users/stapi/OneDrive/Desktop/GD32VW553/V1_MQTT_OK/GD32VW55X_Wifi_BLE_SDK/GD32VW55x_RELEASE_V1.0.2/MSDK/wpa_supplicant/src/ap\ieee802_11_he.c **** 
 1257              		.loc 1 432 11 is_stmt 0
 1258 0074 0147     		li	a4,0
 1259              	.LVL148:
 1260              	.L127:
 435:C:/Users/stapi/OneDrive/Desktop/GD32VW553/V1_MQTT_OK/GD32VW55X_Wifi_BLE_SDK/GD32VW55x_RELEASE_V1.0.2/MSDK/wpa_supplicant/src/ap\ieee802_11_he.c **** 				continue;
 1261              		.loc 1 435 4 is_stmt 1
 435:C:/Users/stapi/OneDrive/Desktop/GD32VW553/V1_MQTT_OK/GD32VW55X_Wifi_BLE_SDK/GD32VW55x_RELEASE_V1.0.2/MSDK/wpa_supplicant/src/ap\ieee802_11_he.c **** 				continue;
 1262              		.loc 1 435 24 is_stmt 0
 1263 0076 B358E640 		sra	a7,a2,a4
 435:C:/Users/stapi/OneDrive/Desktop/GD32VW553/V1_MQTT_OK/GD32VW55X_Wifi_BLE_SDK/GD32VW55x_RELEASE_V1.0.2/MSDK/wpa_supplicant/src/ap\ieee802_11_he.c **** 				continue;
 1264              		.loc 1 435 36
 1265 007a 93F83800 		andi	a7,a7,3
 435:C:/Users/stapi/OneDrive/Desktop/GD32VW553/V1_MQTT_OK/GD32VW55X_Wifi_BLE_SDK/GD32VW55x_RELEASE_V1.0.2/MSDK/wpa_supplicant/src/ap\ieee802_11_he.c **** 				continue;
 1266              		.loc 1 435 7
 1267 007e 63886800 		beq	a7,t1,.L126
 438:C:/Users/stapi/OneDrive/Desktop/GD32VW553/V1_MQTT_OK/GD32VW55X_Wifi_BLE_SDK/GD32VW55x_RELEASE_V1.0.2/MSDK/wpa_supplicant/src/ap\ieee802_11_he.c **** 				continue;
 1268              		.loc 1 438 4 is_stmt 1
 438:C:/Users/stapi/OneDrive/Desktop/GD32VW553/V1_MQTT_OK/GD32VW55X_Wifi_BLE_SDK/GD32VW55x_RELEASE_V1.0.2/MSDK/wpa_supplicant/src/ap\ieee802_11_he.c **** 				continue;
 1269              		.loc 1 438 25 is_stmt 0
 1270 0082 B3D8E640 		sra	a7,a3,a4
 438:C:/Users/stapi/OneDrive/Desktop/GD32VW553/V1_MQTT_OK/GD32VW55X_Wifi_BLE_SDK/GD32VW55x_RELEASE_V1.0.2/MSDK/wpa_supplicant/src/ap\ieee802_11_he.c **** 				continue;
 1271              		.loc 1 438 37
 1272 0086 93F83800 		andi	a7,a7,3
 438:C:/Users/stapi/OneDrive/Desktop/GD32VW553/V1_MQTT_OK/GD32VW55X_Wifi_BLE_SDK/GD32VW55x_RELEASE_V1.0.2/MSDK/wpa_supplicant/src/ap\ieee802_11_he.c **** 				continue;
 1273              		.loc 1 438 7
 1274 008a 63946804 		bne	a7,t1,.L124
 1275              	.L126:
 434:C:/Users/stapi/OneDrive/Desktop/GD32VW553/V1_MQTT_OK/GD32VW55X_Wifi_BLE_SDK/GD32VW55x_RELEASE_V1.0.2/MSDK/wpa_supplicant/src/ap\ieee802_11_he.c **** 			if (((ap_tx_mcs_set >> (j * 2)) & 0x3) == 3)
 1276              		.loc 1 434 39 is_stmt 1
 434:C:/Users/stapi/OneDrive/Desktop/GD32VW553/V1_MQTT_OK/GD32VW55X_Wifi_BLE_SDK/GD32VW55x_RELEASE_V1.0.2/MSDK/wpa_supplicant/src/ap\ieee802_11_he.c **** 			if (((ap_tx_mcs_set >> (j * 2)) & 0x3) == 3)
 1277              		.loc 1 434 15
 434:C:/Users/stapi/OneDrive/Desktop/GD32VW553/V1_MQTT_OK/GD32VW55X_Wifi_BLE_SDK/GD32VW55x_RELEASE_V1.0.2/MSDK/wpa_supplicant/src/ap\ieee802_11_he.c **** 			if (((ap_tx_mcs_set >> (j * 2)) & 0x3) == 3)
 1278              		.loc 1 434 3 is_stmt 0
 1279 008e 0907     		addi	a4,a4,2
 1280 0090 E313C7FF 		bne	a4,t3,.L127
 1281              	.LBE50:
 426:C:/Users/stapi/OneDrive/Desktop/GD32VW553/V1_MQTT_OK/GD32VW55X_Wifi_BLE_SDK/GD32VW55x_RELEASE_V1.0.2/MSDK/wpa_supplicant/src/ap\ieee802_11_he.c **** 		int j;
 1282              		.loc 1 426 29 is_stmt 1
 426:C:/Users/stapi/OneDrive/Desktop/GD32VW553/V1_MQTT_OK/GD32VW55X_Wifi_BLE_SDK/GD32VW55x_RELEASE_V1.0.2/MSDK/wpa_supplicant/src/ap\ieee802_11_he.c **** 		int j;
 1283              		.loc 1 426 30 is_stmt 0
 1284 0094 0508     		addi	a6,a6,1
 1285              	.LVL149:
 426:C:/Users/stapi/OneDrive/Desktop/GD32VW553/V1_MQTT_OK/GD32VW55X_Wifi_BLE_SDK/GD32VW55x_RELEASE_V1.0.2/MSDK/wpa_supplicant/src/ap\ieee802_11_he.c **** 		int j;
 1286              		.loc 1 426 14 is_stmt 1
 426:C:/Users/stapi/OneDrive/Desktop/GD32VW553/V1_MQTT_OK/GD32VW55X_Wifi_BLE_SDK/GD32VW55x_RELEASE_V1.0.2/MSDK/wpa_supplicant/src/ap\ieee802_11_he.c **** 		int j;
 1287              		.loc 1 426 2 is_stmt 0
 1288 0096 1105     		addi	a0,a0,4
 1289 0098 9107     		addi	a5,a5,4
 1290 009a E341B8FC 		blt	a6,a1,.L128
 445:C:/Users/stapi/OneDrive/Desktop/GD32VW553/V1_MQTT_OK/GD32VW55X_Wifi_BLE_SDK/GD32VW55x_RELEASE_V1.0.2/MSDK/wpa_supplicant/src/ap\ieee802_11_he.c **** 		   "No matching HE MCS found between AP TX and STA RX");
 1291              		.loc 1 445 2 is_stmt 1
 1292 009e B7050000 		lui	a1,%hi(.LC1)
 1293              	.LVL150:
 1294 00a2 93850500 		addi	a1,a1,%lo(.LC1)
 1295 00a6 0945     		li	a0,2
 1296 00a8 97000000 		call	wpa_printf
 1296      E7800000 
 1297              	.LVL151:
 448:C:/Users/stapi/OneDrive/Desktop/GD32VW553/V1_MQTT_OK/GD32VW55X_Wifi_BLE_SDK/GD32VW55x_RELEASE_V1.0.2/MSDK/wpa_supplicant/src/ap\ieee802_11_he.c **** }
 1298              		.loc 1 448 2
 1299              	.L123:
 1300              	.LBE52:
 1301              	.LBE54:
 458:C:/Users/stapi/OneDrive/Desktop/GD32VW553/V1_MQTT_OK/GD32VW55X_Wifi_BLE_SDK/GD32VW55x_RELEASE_V1.0.2/MSDK/wpa_supplicant/src/ap\ieee802_11_he.c **** 	    !check_valid_he_mcs(hapd, he_capab, opmode) ||
 459:C:/Users/stapi/OneDrive/Desktop/GD32VW553/V1_MQTT_OK/GD32VW55X_Wifi_BLE_SDK/GD32VW55x_RELEASE_V1.0.2/MSDK/wpa_supplicant/src/ap\ieee802_11_he.c **** 	    ieee80211_invalid_he_cap_size(he_capab, he_capab_len) ||
 460:C:/Users/stapi/OneDrive/Desktop/GD32VW553/V1_MQTT_OK/GD32VW55X_Wifi_BLE_SDK/GD32VW55x_RELEASE_V1.0.2/MSDK/wpa_supplicant/src/ap\ieee802_11_he.c **** 	    he_capab_len > sizeof(struct ieee80211_he_capabilities)) {
 461:C:/Users/stapi/OneDrive/Desktop/GD32VW553/V1_MQTT_OK/GD32VW55X_Wifi_BLE_SDK/GD32VW55x_RELEASE_V1.0.2/MSDK/wpa_supplicant/src/ap\ieee802_11_he.c **** 		sta->flags &= ~WLAN_STA_HE;
 1302              		.loc 1 461 3
 1303              		.loc 1 461 14 is_stmt 0
 1304 00b0 1C50     		lw	a5,32(s0)
 462:C:/Users/stapi/OneDrive/Desktop/GD32VW553/V1_MQTT_OK/GD32VW55X_Wifi_BLE_SDK/GD32VW55x_RELEASE_V1.0.2/MSDK/wpa_supplicant/src/ap\ieee802_11_he.c **** 		os_free(sta->he_capab);
 1305              		.loc 1 462 3
 1306 00b2 0325C40C 		lw	a0,204(s0)
 461:C:/Users/stapi/OneDrive/Desktop/GD32VW553/V1_MQTT_OK/GD32VW55X_Wifi_BLE_SDK/GD32VW55x_RELEASE_V1.0.2/MSDK/wpa_supplicant/src/ap\ieee802_11_he.c **** 		os_free(sta->he_capab);
 1307              		.loc 1 461 14
 1308 00b6 93978749 		bclri	a5,a5,24
 1309 00ba 1CD0     		sw	a5,32(s0)
 1310              		.loc 1 462 3 is_stmt 1
 1311 00bc 97000000 		call	os_free
 1311      E7800000 
 1312              	.LVL152:
 463:C:/Users/stapi/OneDrive/Desktop/GD32VW553/V1_MQTT_OK/GD32VW55X_Wifi_BLE_SDK/GD32VW55x_RELEASE_V1.0.2/MSDK/wpa_supplicant/src/ap\ieee802_11_he.c **** 		sta->he_capab = NULL;
 1313              		.loc 1 463 3
 1314              		.loc 1 463 17 is_stmt 0
 1315 00c4 2326040C 		sw	zero,204(s0)
 464:C:/Users/stapi/OneDrive/Desktop/GD32VW553/V1_MQTT_OK/GD32VW55X_Wifi_BLE_SDK/GD32VW55x_RELEASE_V1.0.2/MSDK/wpa_supplicant/src/ap\ieee802_11_he.c **** 		return WLAN_STATUS_SUCCESS;
 1316              		.loc 1 464 3 is_stmt 1
 1317              	.LVL153:
 1318              	.L158:
 465:C:/Users/stapi/OneDrive/Desktop/GD32VW553/V1_MQTT_OK/GD32VW55X_Wifi_BLE_SDK/GD32VW55x_RELEASE_V1.0.2/MSDK/wpa_supplicant/src/ap\ieee802_11_he.c **** 	}
 466:C:/Users/stapi/OneDrive/Desktop/GD32VW553/V1_MQTT_OK/GD32VW55X_Wifi_BLE_SDK/GD32VW55x_RELEASE_V1.0.2/MSDK/wpa_supplicant/src/ap\ieee802_11_he.c **** 
 467:C:/Users/stapi/OneDrive/Desktop/GD32VW553/V1_MQTT_OK/GD32VW55X_Wifi_BLE_SDK/GD32VW55x_RELEASE_V1.0.2/MSDK/wpa_supplicant/src/ap\ieee802_11_he.c **** 	if (!sta->he_capab) {
 468:C:/Users/stapi/OneDrive/Desktop/GD32VW553/V1_MQTT_OK/GD32VW55X_Wifi_BLE_SDK/GD32VW55x_RELEASE_V1.0.2/MSDK/wpa_supplicant/src/ap\ieee802_11_he.c **** 		sta->he_capab =
 469:C:/Users/stapi/OneDrive/Desktop/GD32VW553/V1_MQTT_OK/GD32VW55X_Wifi_BLE_SDK/GD32VW55x_RELEASE_V1.0.2/MSDK/wpa_supplicant/src/ap\ieee802_11_he.c **** 			os_zalloc(sizeof(struct ieee80211_he_capabilities));
 470:C:/Users/stapi/OneDrive/Desktop/GD32VW553/V1_MQTT_OK/GD32VW55X_Wifi_BLE_SDK/GD32VW55x_RELEASE_V1.0.2/MSDK/wpa_supplicant/src/ap\ieee802_11_he.c **** 		if (!sta->he_capab)
 471:C:/Users/stapi/OneDrive/Desktop/GD32VW553/V1_MQTT_OK/GD32VW55X_Wifi_BLE_SDK/GD32VW55x_RELEASE_V1.0.2/MSDK/wpa_supplicant/src/ap\ieee802_11_he.c **** 			return WLAN_STATUS_UNSPECIFIED_FAILURE;
 472:C:/Users/stapi/OneDrive/Desktop/GD32VW553/V1_MQTT_OK/GD32VW55X_Wifi_BLE_SDK/GD32VW55x_RELEASE_V1.0.2/MSDK/wpa_supplicant/src/ap\ieee802_11_he.c **** 	}
 473:C:/Users/stapi/OneDrive/Desktop/GD32VW553/V1_MQTT_OK/GD32VW55X_Wifi_BLE_SDK/GD32VW55x_RELEASE_V1.0.2/MSDK/wpa_supplicant/src/ap\ieee802_11_he.c **** 
 474:C:/Users/stapi/OneDrive/Desktop/GD32VW553/V1_MQTT_OK/GD32VW55X_Wifi_BLE_SDK/GD32VW55x_RELEASE_V1.0.2/MSDK/wpa_supplicant/src/ap\ieee802_11_he.c **** 	sta->flags |= WLAN_STA_HE;
 475:C:/Users/stapi/OneDrive/Desktop/GD32VW553/V1_MQTT_OK/GD32VW55X_Wifi_BLE_SDK/GD32VW55x_RELEASE_V1.0.2/MSDK/wpa_supplicant/src/ap\ieee802_11_he.c **** 	os_memset(sta->he_capab, 0, sizeof(struct ieee80211_he_capabilities));
 476:C:/Users/stapi/OneDrive/Desktop/GD32VW553/V1_MQTT_OK/GD32VW55X_Wifi_BLE_SDK/GD32VW55x_RELEASE_V1.0.2/MSDK/wpa_supplicant/src/ap\ieee802_11_he.c **** 	os_memcpy(sta->he_capab, he_capab, he_capab_len);
 477:C:/Users/stapi/OneDrive/Desktop/GD32VW553/V1_MQTT_OK/GD32VW55X_Wifi_BLE_SDK/GD32VW55x_RELEASE_V1.0.2/MSDK/wpa_supplicant/src/ap\ieee802_11_he.c **** 	sta->he_capab_len = he_capab_len;
 478:C:/Users/stapi/OneDrive/Desktop/GD32VW553/V1_MQTT_OK/GD32VW55X_Wifi_BLE_SDK/GD32VW55x_RELEASE_V1.0.2/MSDK/wpa_supplicant/src/ap\ieee802_11_he.c **** 
 479:C:/Users/stapi/OneDrive/Desktop/GD32VW553/V1_MQTT_OK/GD32VW55X_Wifi_BLE_SDK/GD32VW55x_RELEASE_V1.0.2/MSDK/wpa_supplicant/src/ap\ieee802_11_he.c **** 	return WLAN_STATUS_SUCCESS;
 1319              		.loc 1 479 2
 1320              		.loc 1 479 9 is_stmt 0
 1321 00c8 0145     		li	a0,0
 1322              	.L133:
 480:C:/Users/stapi/OneDrive/Desktop/GD32VW553/V1_MQTT_OK/GD32VW55X_Wifi_BLE_SDK/GD32VW55x_RELEASE_V1.0.2/MSDK/wpa_supplicant/src/ap\ieee802_11_he.c **** }
 1323              		.loc 1 480 1
 1324 00ca 17030000 		tail	__riscv_restore_4
 1324      67000300 
 1325              		.cfi_remember_state
 1326              		.cfi_restore 19
 1327              		.cfi_restore 18
 1328              		.cfi_restore 9
 1329              		.cfi_restore 8
 1330              		.cfi_restore 1
 1331              		.cfi_def_cfa_offset 0
 1332              	.LVL154:
 1333              	.L124:
 1334              		.cfi_restore_state
 1335              	.LBB55:
 1336              	.LBB56:
  66:C:/Users/stapi/OneDrive/Desktop/GD32VW553/V1_MQTT_OK/GD32VW55X_Wifi_BLE_SDK/GD32VW55x_RELEASE_V1.0.2/MSDK/wpa_supplicant/src/ap\ieee802_11_he.c **** 	size_t cap_len;
 1337              		.loc 1 66 2 is_stmt 1
  67:C:/Users/stapi/OneDrive/Desktop/GD32VW553/V1_MQTT_OK/GD32VW55X_Wifi_BLE_SDK/GD32VW55x_RELEASE_V1.0.2/MSDK/wpa_supplicant/src/ap\ieee802_11_he.c **** 
 1338              		.loc 1 67 2
  69:C:/Users/stapi/OneDrive/Desktop/GD32VW553/V1_MQTT_OK/GD32VW55X_Wifi_BLE_SDK/GD32VW55x_RELEASE_V1.0.2/MSDK/wpa_supplicant/src/ap\ieee802_11_he.c **** 	cap_len = sizeof(*cap) - sizeof(cap->optional);
 1339              		.loc 1 69 2
  70:C:/Users/stapi/OneDrive/Desktop/GD32VW553/V1_MQTT_OK/GD32VW55X_Wifi_BLE_SDK/GD32VW55x_RELEASE_V1.0.2/MSDK/wpa_supplicant/src/ap\ieee802_11_he.c **** 	if (len < cap_len)
 1340              		.loc 1 70 2
  71:C:/Users/stapi/OneDrive/Desktop/GD32VW553/V1_MQTT_OK/GD32VW55X_Wifi_BLE_SDK/GD32VW55x_RELEASE_V1.0.2/MSDK/wpa_supplicant/src/ap\ieee802_11_he.c **** 		return 1;
 1341              		.loc 1 71 2
  71:C:/Users/stapi/OneDrive/Desktop/GD32VW553/V1_MQTT_OK/GD32VW55X_Wifi_BLE_SDK/GD32VW55x_RELEASE_V1.0.2/MSDK/wpa_supplicant/src/ap\ieee802_11_he.c **** 		return 1;
 1342              		.loc 1 71 5 is_stmt 0
 1343 00d2 C147     		li	a5,16
 1344 00d4 E3FE37FD 		bleu	s3,a5,.L123
  74:C:/Users/stapi/OneDrive/Desktop/GD32VW553/V1_MQTT_OK/GD32VW55X_Wifi_BLE_SDK/GD32VW55x_RELEASE_V1.0.2/MSDK/wpa_supplicant/src/ap\ieee802_11_he.c **** 	if (len < cap_len)
 1345              		.loc 1 74 2 is_stmt 1
 1346 00d8 03476900 		lbu	a4,6(s2)
 1347              	.LVL155:
 1348              	.LBB57:
 1349              	.LBB58:
  51:C:/Users/stapi/OneDrive/Desktop/GD32VW553/V1_MQTT_OK/GD32VW55X_Wifi_BLE_SDK/GD32VW55x_RELEASE_V1.0.2/MSDK/wpa_supplicant/src/ap\ieee802_11_he.c **** 
 1350              		.loc 1 51 2
  53:C:/Users/stapi/OneDrive/Desktop/GD32VW553/V1_MQTT_OK/GD32VW55X_Wifi_BLE_SDK/GD32VW55x_RELEASE_V1.0.2/MSDK/wpa_supplicant/src/ap\ieee802_11_he.c **** 	    HE_PHYCAP_CHANNEL_WIDTH_SET_80PLUS80MHZ_IN_5G)
 1351              		.loc 1 53 2
  51:C:/Users/stapi/OneDrive/Desktop/GD32VW553/V1_MQTT_OK/GD32VW55X_Wifi_BLE_SDK/GD32VW55x_RELEASE_V1.0.2/MSDK/wpa_supplicant/src/ap\ieee802_11_he.c **** 
 1352              		.loc 1 51 5 is_stmt 0
 1353 00dc 9147     		li	a5,4
  53:C:/Users/stapi/OneDrive/Desktop/GD32VW553/V1_MQTT_OK/GD32VW55X_Wifi_BLE_SDK/GD32VW55x_RELEASE_V1.0.2/MSDK/wpa_supplicant/src/ap\ieee802_11_he.c **** 	    HE_PHYCAP_CHANNEL_WIDTH_SET_80PLUS80MHZ_IN_5G)
 1354              		.loc 1 53 5
 1355 00de 93760701 		andi	a3,a4,16
 1356 00e2 91C2     		beq	a3,zero,.L129
  55:C:/Users/stapi/OneDrive/Desktop/GD32VW553/V1_MQTT_OK/GD32VW55X_Wifi_BLE_SDK/GD32VW55x_RELEASE_V1.0.2/MSDK/wpa_supplicant/src/ap\ieee802_11_he.c **** 	if (phy_cap_info[HE_PHYCAP_CHANNEL_WIDTH_SET_IDX] &
 1357              		.loc 1 55 6
 1358 00e4 A147     		li	a5,8
 1359              	.L129:
 1360              	.LVL156:
  56:C:/Users/stapi/OneDrive/Desktop/GD32VW553/V1_MQTT_OK/GD32VW55X_Wifi_BLE_SDK/GD32VW55x_RELEASE_V1.0.2/MSDK/wpa_supplicant/src/ap\ieee802_11_he.c **** 	    HE_PHYCAP_CHANNEL_WIDTH_SET_160MHZ_IN_5G)
 1361              		.loc 1 56 2 is_stmt 1
  56:C:/Users/stapi/OneDrive/Desktop/GD32VW553/V1_MQTT_OK/GD32VW55X_Wifi_BLE_SDK/GD32VW55x_RELEASE_V1.0.2/MSDK/wpa_supplicant/src/ap\ieee802_11_he.c **** 	    HE_PHYCAP_CHANNEL_WIDTH_SET_160MHZ_IN_5G)
 1362              		.loc 1 56 5 is_stmt 0
 1363 00e6 218B     		andi	a4,a4,8
 1364 00e8 01C7     		beq	a4,zero,.L130
  58:C:/Users/stapi/OneDrive/Desktop/GD32VW553/V1_MQTT_OK/GD32VW55X_Wifi_BLE_SDK/GD32VW55x_RELEASE_V1.0.2/MSDK/wpa_supplicant/src/ap\ieee802_11_he.c **** 
 1365              		.loc 1 58 3 is_stmt 1
  58:C:/Users/stapi/OneDrive/Desktop/GD32VW553/V1_MQTT_OK/GD32VW55X_Wifi_BLE_SDK/GD32VW55x_RELEASE_V1.0.2/MSDK/wpa_supplicant/src/ap\ieee802_11_he.c **** 
 1366              		.loc 1 58 6 is_stmt 0
 1367 00ea 9107     		addi	a5,a5,4
 1368              	.LVL157:
 1369 00ec 93F7F70F 		andi	a5,a5,0xff
 1370              	.LVL158:
 1371              	.L130:
  60:C:/Users/stapi/OneDrive/Desktop/GD32VW553/V1_MQTT_OK/GD32VW55X_Wifi_BLE_SDK/GD32VW55x_RELEASE_V1.0.2/MSDK/wpa_supplicant/src/ap\ieee802_11_he.c **** }
 1372              		.loc 1 60 2 is_stmt 1
 1373              	.LBE58:
 1374              	.LBE57:
  74:C:/Users/stapi/OneDrive/Desktop/GD32VW553/V1_MQTT_OK/GD32VW55X_Wifi_BLE_SDK/GD32VW55x_RELEASE_V1.0.2/MSDK/wpa_supplicant/src/ap\ieee802_11_he.c **** 	if (len < cap_len)
 1375              		.loc 1 74 10 is_stmt 0
 1376 00f0 C507     		addi	a5,a5,17
 1377 00f2 93F4F70F 		andi	s1,a5,0xff
 1378              	.LVL159:
  75:C:/Users/stapi/OneDrive/Desktop/GD32VW553/V1_MQTT_OK/GD32VW55X_Wifi_BLE_SDK/GD32VW55x_RELEASE_V1.0.2/MSDK/wpa_supplicant/src/ap\ieee802_11_he.c **** 		return 1;
 1379              		.loc 1 75 2 is_stmt 1
  75:C:/Users/stapi/OneDrive/Desktop/GD32VW553/V1_MQTT_OK/GD32VW55X_Wifi_BLE_SDK/GD32VW55x_RELEASE_V1.0.2/MSDK/wpa_supplicant/src/ap\ieee802_11_he.c **** 		return 1;
 1380              		.loc 1 75 5 is_stmt 0
 1381 00f6 E3ED99FA 		bltu	s3,s1,.L123
  78:C:/Users/stapi/OneDrive/Desktop/GD32VW553/V1_MQTT_OK/GD32VW55X_Wifi_BLE_SDK/GD32VW55x_RELEASE_V1.0.2/MSDK/wpa_supplicant/src/ap\ieee802_11_he.c **** 
 1382              		.loc 1 78 2 is_stmt 1
  78:C:/Users/stapi/OneDrive/Desktop/GD32VW553/V1_MQTT_OK/GD32VW55X_Wifi_BLE_SDK/GD32VW55x_RELEASE_V1.0.2/MSDK/wpa_supplicant/src/ap\ieee802_11_he.c **** 
 1383              		.loc 1 78 13 is_stmt 0
 1384 00fa B3079900 		add	a5,s2,s1
 1385 00fe 03C50700 		lbu	a0,0(a5)
 1386              	.LVL160:
 1387              	.LBB59:
 1388              	.LBB60:
  25:C:/Users/stapi/OneDrive/Desktop/GD32VW553/V1_MQTT_OK/GD32VW55X_Wifi_BLE_SDK/GD32VW55x_RELEASE_V1.0.2/MSDK/wpa_supplicant/src/ap\ieee802_11_he.c **** 
 1389              		.loc 1 25 2 is_stmt 1
  27:C:/Users/stapi/OneDrive/Desktop/GD32VW553/V1_MQTT_OK/GD32VW55X_Wifi_BLE_SDK/GD32VW55x_RELEASE_V1.0.2/MSDK/wpa_supplicant/src/ap\ieee802_11_he.c **** 	     HE_PHYCAP_PPE_THRESHOLD_PRESENT) == 0)
 1390              		.loc 1 27 2
  27:C:/Users/stapi/OneDrive/Desktop/GD32VW553/V1_MQTT_OK/GD32VW55X_Wifi_BLE_SDK/GD32VW55x_RELEASE_V1.0.2/MSDK/wpa_supplicant/src/ap\ieee802_11_he.c **** 	     HE_PHYCAP_PPE_THRESHOLD_PRESENT) == 0)
 1391              		.loc 1 27 5 is_stmt 0
 1392 0102 0307C900 		lb	a4,12(s2)
  29:C:/Users/stapi/OneDrive/Desktop/GD32VW553/V1_MQTT_OK/GD32VW55X_Wifi_BLE_SDK/GD32VW55x_RELEASE_V1.0.2/MSDK/wpa_supplicant/src/ap\ieee802_11_he.c **** 
 1393              		.loc 1 29 10
 1394 0106 8147     		li	a5,0
  27:C:/Users/stapi/OneDrive/Desktop/GD32VW553/V1_MQTT_OK/GD32VW55X_Wifi_BLE_SDK/GD32VW55x_RELEASE_V1.0.2/MSDK/wpa_supplicant/src/ap\ieee802_11_he.c **** 	     HE_PHYCAP_PPE_THRESHOLD_PRESENT) == 0)
 1395              		.loc 1 27 5
 1396 0108 63570700 		bge	a4,zero,.L131
 1397 010c 97000000 		call	ieee80211_he_ppet_size.part.0
 1397      E7800000 
 1398              	.LVL161:
 1399 0114 AA87     		mv	a5,a0
 1400              	.L131:
 1401              	.LVL162:
 1402              	.LBE60:
 1403              	.LBE59:
  80:C:/Users/stapi/OneDrive/Desktop/GD32VW553/V1_MQTT_OK/GD32VW55X_Wifi_BLE_SDK/GD32VW55x_RELEASE_V1.0.2/MSDK/wpa_supplicant/src/ap\ieee802_11_he.c **** }
 1404              		.loc 1 80 2 is_stmt 1
  78:C:/Users/stapi/OneDrive/Desktop/GD32VW553/V1_MQTT_OK/GD32VW55X_Wifi_BLE_SDK/GD32VW55x_RELEASE_V1.0.2/MSDK/wpa_supplicant/src/ap\ieee802_11_he.c **** 
 1405              		.loc 1 78 10 is_stmt 0
 1406 0116 A697     		add	a5,a5,s1
 1407              	.LBE56:
 1408              	.LBE55:
 467:C:/Users/stapi/OneDrive/Desktop/GD32VW553/V1_MQTT_OK/GD32VW55X_Wifi_BLE_SDK/GD32VW55x_RELEASE_V1.0.2/MSDK/wpa_supplicant/src/ap\ieee802_11_he.c **** 		sta->he_capab =
 1409              		.loc 1 467 10
 1410 0118 0327C40C 		lw	a4,204(s0)
 458:C:/Users/stapi/OneDrive/Desktop/GD32VW553/V1_MQTT_OK/GD32VW55X_Wifi_BLE_SDK/GD32VW55x_RELEASE_V1.0.2/MSDK/wpa_supplicant/src/ap\ieee802_11_he.c **** 	    ieee80211_invalid_he_cap_size(he_capab, he_capab_len) ||
 1411              		.loc 1 458 50
 1412 011c E39AF9F8 		bne	s3,a5,.L123
 459:C:/Users/stapi/OneDrive/Desktop/GD32VW553/V1_MQTT_OK/GD32VW55X_Wifi_BLE_SDK/GD32VW55x_RELEASE_V1.0.2/MSDK/wpa_supplicant/src/ap\ieee802_11_he.c **** 	    he_capab_len > sizeof(struct ieee80211_he_capabilities)) {
 1413              		.loc 1 459 60
 1414 0120 93076003 		li	a5,54
 1415 0124 E3E637F9 		bgtu	s3,a5,.L123
 467:C:/Users/stapi/OneDrive/Desktop/GD32VW553/V1_MQTT_OK/GD32VW55X_Wifi_BLE_SDK/GD32VW55x_RELEASE_V1.0.2/MSDK/wpa_supplicant/src/ap\ieee802_11_he.c **** 		sta->he_capab =
 1416              		.loc 1 467 2 is_stmt 1
 467:C:/Users/stapi/OneDrive/Desktop/GD32VW553/V1_MQTT_OK/GD32VW55X_Wifi_BLE_SDK/GD32VW55x_RELEASE_V1.0.2/MSDK/wpa_supplicant/src/ap\ieee802_11_he.c **** 		sta->he_capab =
 1417              		.loc 1 467 5 is_stmt 0
 1418 0128 0DCB     		beq	a4,zero,.L134
 1419              	.L135:
 474:C:/Users/stapi/OneDrive/Desktop/GD32VW553/V1_MQTT_OK/GD32VW55X_Wifi_BLE_SDK/GD32VW55x_RELEASE_V1.0.2/MSDK/wpa_supplicant/src/ap\ieee802_11_he.c **** 	os_memset(sta->he_capab, 0, sizeof(struct ieee80211_he_capabilities));
 1420              		.loc 1 474 2 is_stmt 1
 474:C:/Users/stapi/OneDrive/Desktop/GD32VW553/V1_MQTT_OK/GD32VW55X_Wifi_BLE_SDK/GD32VW55x_RELEASE_V1.0.2/MSDK/wpa_supplicant/src/ap\ieee802_11_he.c **** 	os_memset(sta->he_capab, 0, sizeof(struct ieee80211_he_capabilities));
 1421              		.loc 1 474 13 is_stmt 0
 1422 012a 1C50     		lw	a5,32(s0)
 475:C:/Users/stapi/OneDrive/Desktop/GD32VW553/V1_MQTT_OK/GD32VW55X_Wifi_BLE_SDK/GD32VW55x_RELEASE_V1.0.2/MSDK/wpa_supplicant/src/ap\ieee802_11_he.c **** 	os_memcpy(sta->he_capab, he_capab, he_capab_len);
 1423              		.loc 1 475 2
 1424 012c 13066003 		li	a2,54
 1425 0130 8145     		li	a1,0
 474:C:/Users/stapi/OneDrive/Desktop/GD32VW553/V1_MQTT_OK/GD32VW55X_Wifi_BLE_SDK/GD32VW55x_RELEASE_V1.0.2/MSDK/wpa_supplicant/src/ap\ieee802_11_he.c **** 	os_memset(sta->he_capab, 0, sizeof(struct ieee80211_he_capabilities));
 1426              		.loc 1 474 13
 1427 0132 93978729 		bseti	a5,a5,24
 1428 0136 1CD0     		sw	a5,32(s0)
 475:C:/Users/stapi/OneDrive/Desktop/GD32VW553/V1_MQTT_OK/GD32VW55X_Wifi_BLE_SDK/GD32VW55x_RELEASE_V1.0.2/MSDK/wpa_supplicant/src/ap\ieee802_11_he.c **** 	os_memcpy(sta->he_capab, he_capab, he_capab_len);
 1429              		.loc 1 475 2 is_stmt 1
 1430 0138 13040408 		addi	s0,s0,128
 1431              	.LVL163:
 1432 013c 6844     		lw	a0,76(s0)
 1433 013e 97000000 		call	os_memset
 1433      E7800000 
 1434              	.LVL164:
 476:C:/Users/stapi/OneDrive/Desktop/GD32VW553/V1_MQTT_OK/GD32VW55X_Wifi_BLE_SDK/GD32VW55x_RELEASE_V1.0.2/MSDK/wpa_supplicant/src/ap\ieee802_11_he.c **** 	sta->he_capab_len = he_capab_len;
 1435              		.loc 1 476 2
 1436 0146 6844     		lw	a0,76(s0)
 1437 0148 4E86     		mv	a2,s3
 1438 014a CA85     		mv	a1,s2
 1439 014c 97000000 		call	os_memcpy
 1439      E7800000 
 1440              	.LVL165:
 477:C:/Users/stapi/OneDrive/Desktop/GD32VW553/V1_MQTT_OK/GD32VW55X_Wifi_BLE_SDK/GD32VW55x_RELEASE_V1.0.2/MSDK/wpa_supplicant/src/ap\ieee802_11_he.c **** 
 1441              		.loc 1 477 2
 477:C:/Users/stapi/OneDrive/Desktop/GD32VW553/V1_MQTT_OK/GD32VW55X_Wifi_BLE_SDK/GD32VW55x_RELEASE_V1.0.2/MSDK/wpa_supplicant/src/ap\ieee802_11_he.c **** 
 1442              		.loc 1 477 20 is_stmt 0
 1443 0154 23283405 		sw	s3,80(s0)
 1444 0158 85BF     		j	.L158
 1445              	.LVL166:
 1446              	.L134:
 468:C:/Users/stapi/OneDrive/Desktop/GD32VW553/V1_MQTT_OK/GD32VW55X_Wifi_BLE_SDK/GD32VW55x_RELEASE_V1.0.2/MSDK/wpa_supplicant/src/ap\ieee802_11_he.c **** 			os_zalloc(sizeof(struct ieee80211_he_capabilities));
 1447              		.loc 1 468 3 is_stmt 1
 469:C:/Users/stapi/OneDrive/Desktop/GD32VW553/V1_MQTT_OK/GD32VW55X_Wifi_BLE_SDK/GD32VW55x_RELEASE_V1.0.2/MSDK/wpa_supplicant/src/ap\ieee802_11_he.c **** 		if (!sta->he_capab)
 1448              		.loc 1 469 4 is_stmt 0
 1449 015a 13056003 		li	a0,54
 1450 015e 97000000 		call	os_zalloc
 1450      E7800000 
 1451              	.LVL167:
 468:C:/Users/stapi/OneDrive/Desktop/GD32VW553/V1_MQTT_OK/GD32VW55X_Wifi_BLE_SDK/GD32VW55x_RELEASE_V1.0.2/MSDK/wpa_supplicant/src/ap\ieee802_11_he.c **** 			os_zalloc(sizeof(struct ieee80211_he_capabilities));
 1452              		.loc 1 468 17
 1453 0166 2326A40C 		sw	a0,204(s0)
 470:C:/Users/stapi/OneDrive/Desktop/GD32VW553/V1_MQTT_OK/GD32VW55X_Wifi_BLE_SDK/GD32VW55x_RELEASE_V1.0.2/MSDK/wpa_supplicant/src/ap\ieee802_11_he.c **** 			return WLAN_STATUS_UNSPECIFIED_FAILURE;
 1454              		.loc 1 470 3 is_stmt 1
 470:C:/Users/stapi/OneDrive/Desktop/GD32VW553/V1_MQTT_OK/GD32VW55X_Wifi_BLE_SDK/GD32VW55x_RELEASE_V1.0.2/MSDK/wpa_supplicant/src/ap\ieee802_11_he.c **** 			return WLAN_STATUS_UNSPECIFIED_FAILURE;
 1455              		.loc 1 470 6 is_stmt 0
 1456 016a 61F1     		bne	a0,zero,.L135
 471:C:/Users/stapi/OneDrive/Desktop/GD32VW553/V1_MQTT_OK/GD32VW55X_Wifi_BLE_SDK/GD32VW55x_RELEASE_V1.0.2/MSDK/wpa_supplicant/src/ap\ieee802_11_he.c **** 	}
 1457              		.loc 1 471 11
 1458 016c 0545     		li	a0,1
 1459 016e B1BF     		j	.L133
 1460              		.cfi_endproc
 1461              	.LFE149:
 1463              		.section	.text.copy_sta_he_6ghz_capab,"ax",@progbits
 1464              		.align	1
 1465              		.globl	copy_sta_he_6ghz_capab
 1467              	copy_sta_he_6ghz_capab:
 1468              	.LFB150:
 481:C:/Users/stapi/OneDrive/Desktop/GD32VW553/V1_MQTT_OK/GD32VW55X_Wifi_BLE_SDK/GD32VW55x_RELEASE_V1.0.2/MSDK/wpa_supplicant/src/ap\ieee802_11_he.c **** 
 482:C:/Users/stapi/OneDrive/Desktop/GD32VW553/V1_MQTT_OK/GD32VW55X_Wifi_BLE_SDK/GD32VW55x_RELEASE_V1.0.2/MSDK/wpa_supplicant/src/ap\ieee802_11_he.c **** 
 483:C:/Users/stapi/OneDrive/Desktop/GD32VW553/V1_MQTT_OK/GD32VW55X_Wifi_BLE_SDK/GD32VW55x_RELEASE_V1.0.2/MSDK/wpa_supplicant/src/ap\ieee802_11_he.c **** u16 copy_sta_he_6ghz_capab(struct hostapd_data *hapd, struct sta_info *sta,
 484:C:/Users/stapi/OneDrive/Desktop/GD32VW553/V1_MQTT_OK/GD32VW55X_Wifi_BLE_SDK/GD32VW55x_RELEASE_V1.0.2/MSDK/wpa_supplicant/src/ap\ieee802_11_he.c **** 			   const u8 *he_6ghz_capab)
 485:C:/Users/stapi/OneDrive/Desktop/GD32VW553/V1_MQTT_OK/GD32VW55X_Wifi_BLE_SDK/GD32VW55x_RELEASE_V1.0.2/MSDK/wpa_supplicant/src/ap\ieee802_11_he.c **** {
 1469              		.loc 1 485 1 is_stmt 1
 1470              		.cfi_startproc
 1471              	.LVL168:
 1472 0000 17030000 		call	t0,__riscv_save_2
 1472      E7020300 
 1473              		.cfi_offset 9, -12
 1474              		.cfi_offset 8, -8
 1475              		.cfi_offset 1, -4
 1476              		.cfi_def_cfa_offset 16
 486:C:/Users/stapi/OneDrive/Desktop/GD32VW553/V1_MQTT_OK/GD32VW55X_Wifi_BLE_SDK/GD32VW55x_RELEASE_V1.0.2/MSDK/wpa_supplicant/src/ap\ieee802_11_he.c **** 	if (!he_6ghz_capab || !hapd->iconf->ieee80211ax ||
 1477              		.loc 1 486 2
 485:C:/Users/stapi/OneDrive/Desktop/GD32VW553/V1_MQTT_OK/GD32VW55X_Wifi_BLE_SDK/GD32VW55x_RELEASE_V1.0.2/MSDK/wpa_supplicant/src/ap\ieee802_11_he.c **** 	if (!he_6ghz_capab || !hapd->iconf->ieee80211ax ||
 1478              		.loc 1 485 1 is_stmt 0
 1479 0008 2E84     		mv	s0,a1
 1480              		.loc 1 486 5
 1481 000a 15E2     		bne	a2,zero,.L160
 1482              	.LVL169:
 1483              	.L162:
 487:C:/Users/stapi/OneDrive/Desktop/GD32VW553/V1_MQTT_OK/GD32VW55X_Wifi_BLE_SDK/GD32VW55x_RELEASE_V1.0.2/MSDK/wpa_supplicant/src/ap\ieee802_11_he.c **** 	    hapd->conf->disable_11ax ||
 488:C:/Users/stapi/OneDrive/Desktop/GD32VW553/V1_MQTT_OK/GD32VW55X_Wifi_BLE_SDK/GD32VW55x_RELEASE_V1.0.2/MSDK/wpa_supplicant/src/ap\ieee802_11_he.c **** 	    !is_6ghz_op_class(hapd->iconf->op_class)) {
 489:C:/Users/stapi/OneDrive/Desktop/GD32VW553/V1_MQTT_OK/GD32VW55X_Wifi_BLE_SDK/GD32VW55x_RELEASE_V1.0.2/MSDK/wpa_supplicant/src/ap\ieee802_11_he.c **** 		sta->flags &= ~WLAN_STA_6GHZ;
 1484              		.loc 1 489 3 is_stmt 1
 1485              		.loc 1 489 14 is_stmt 0
 1486 000c 1C50     		lw	a5,32(s0)
 490:C:/Users/stapi/OneDrive/Desktop/GD32VW553/V1_MQTT_OK/GD32VW55X_Wifi_BLE_SDK/GD32VW55x_RELEASE_V1.0.2/MSDK/wpa_supplicant/src/ap\ieee802_11_he.c **** 		os_free(sta->he_6ghz_capab);
 1487              		.loc 1 490 3
 1488 000e 0325440D 		lw	a0,212(s0)
 489:C:/Users/stapi/OneDrive/Desktop/GD32VW553/V1_MQTT_OK/GD32VW55X_Wifi_BLE_SDK/GD32VW55x_RELEASE_V1.0.2/MSDK/wpa_supplicant/src/ap\ieee802_11_he.c **** 		os_free(sta->he_6ghz_capab);
 1489              		.loc 1 489 14
 1490 0012 93979749 		bclri	a5,a5,25
 1491 0016 1CD0     		sw	a5,32(s0)
 1492              		.loc 1 490 3 is_stmt 1
 1493 0018 97000000 		call	os_free
 1493      E7800000 
 1494              	.LVL170:
 491:C:/Users/stapi/OneDrive/Desktop/GD32VW553/V1_MQTT_OK/GD32VW55X_Wifi_BLE_SDK/GD32VW55x_RELEASE_V1.0.2/MSDK/wpa_supplicant/src/ap\ieee802_11_he.c **** 		sta->he_6ghz_capab = NULL;
 1495              		.loc 1 491 3
 1496              		.loc 1 491 22 is_stmt 0
 1497 0020 232A040C 		sw	zero,212(s0)
 492:C:/Users/stapi/OneDrive/Desktop/GD32VW553/V1_MQTT_OK/GD32VW55X_Wifi_BLE_SDK/GD32VW55x_RELEASE_V1.0.2/MSDK/wpa_supplicant/src/ap\ieee802_11_he.c **** 		return WLAN_STATUS_SUCCESS;
 1498              		.loc 1 492 3 is_stmt 1
 1499              	.L172:
 493:C:/Users/stapi/OneDrive/Desktop/GD32VW553/V1_MQTT_OK/GD32VW55X_Wifi_BLE_SDK/GD32VW55x_RELEASE_V1.0.2/MSDK/wpa_supplicant/src/ap\ieee802_11_he.c **** 	}
 494:C:/Users/stapi/OneDrive/Desktop/GD32VW553/V1_MQTT_OK/GD32VW55X_Wifi_BLE_SDK/GD32VW55x_RELEASE_V1.0.2/MSDK/wpa_supplicant/src/ap\ieee802_11_he.c **** 
 495:C:/Users/stapi/OneDrive/Desktop/GD32VW553/V1_MQTT_OK/GD32VW55X_Wifi_BLE_SDK/GD32VW55x_RELEASE_V1.0.2/MSDK/wpa_supplicant/src/ap\ieee802_11_he.c **** 	if (!sta->he_6ghz_capab) {
 496:C:/Users/stapi/OneDrive/Desktop/GD32VW553/V1_MQTT_OK/GD32VW55X_Wifi_BLE_SDK/GD32VW55x_RELEASE_V1.0.2/MSDK/wpa_supplicant/src/ap\ieee802_11_he.c **** 		sta->he_6ghz_capab =
 497:C:/Users/stapi/OneDrive/Desktop/GD32VW553/V1_MQTT_OK/GD32VW55X_Wifi_BLE_SDK/GD32VW55x_RELEASE_V1.0.2/MSDK/wpa_supplicant/src/ap\ieee802_11_he.c **** 			os_zalloc(sizeof(struct ieee80211_he_6ghz_band_cap));
 498:C:/Users/stapi/OneDrive/Desktop/GD32VW553/V1_MQTT_OK/GD32VW55X_Wifi_BLE_SDK/GD32VW55x_RELEASE_V1.0.2/MSDK/wpa_supplicant/src/ap\ieee802_11_he.c **** 		if (!sta->he_6ghz_capab)
 499:C:/Users/stapi/OneDrive/Desktop/GD32VW553/V1_MQTT_OK/GD32VW55X_Wifi_BLE_SDK/GD32VW55x_RELEASE_V1.0.2/MSDK/wpa_supplicant/src/ap\ieee802_11_he.c **** 			return WLAN_STATUS_UNSPECIFIED_FAILURE;
 500:C:/Users/stapi/OneDrive/Desktop/GD32VW553/V1_MQTT_OK/GD32VW55X_Wifi_BLE_SDK/GD32VW55x_RELEASE_V1.0.2/MSDK/wpa_supplicant/src/ap\ieee802_11_he.c **** 	}
 501:C:/Users/stapi/OneDrive/Desktop/GD32VW553/V1_MQTT_OK/GD32VW55X_Wifi_BLE_SDK/GD32VW55x_RELEASE_V1.0.2/MSDK/wpa_supplicant/src/ap\ieee802_11_he.c **** 
 502:C:/Users/stapi/OneDrive/Desktop/GD32VW553/V1_MQTT_OK/GD32VW55X_Wifi_BLE_SDK/GD32VW55x_RELEASE_V1.0.2/MSDK/wpa_supplicant/src/ap\ieee802_11_he.c **** 	sta->flags |= WLAN_STA_6GHZ;
 503:C:/Users/stapi/OneDrive/Desktop/GD32VW553/V1_MQTT_OK/GD32VW55X_Wifi_BLE_SDK/GD32VW55x_RELEASE_V1.0.2/MSDK/wpa_supplicant/src/ap\ieee802_11_he.c **** 	os_memcpy(sta->he_6ghz_capab, he_6ghz_capab,
 504:C:/Users/stapi/OneDrive/Desktop/GD32VW553/V1_MQTT_OK/GD32VW55X_Wifi_BLE_SDK/GD32VW55x_RELEASE_V1.0.2/MSDK/wpa_supplicant/src/ap\ieee802_11_he.c **** 		  sizeof(struct ieee80211_he_6ghz_band_cap));
 505:C:/Users/stapi/OneDrive/Desktop/GD32VW553/V1_MQTT_OK/GD32VW55X_Wifi_BLE_SDK/GD32VW55x_RELEASE_V1.0.2/MSDK/wpa_supplicant/src/ap\ieee802_11_he.c **** 
 506:C:/Users/stapi/OneDrive/Desktop/GD32VW553/V1_MQTT_OK/GD32VW55X_Wifi_BLE_SDK/GD32VW55x_RELEASE_V1.0.2/MSDK/wpa_supplicant/src/ap\ieee802_11_he.c **** 	return WLAN_STATUS_SUCCESS;
 1500              		.loc 1 506 2
 1501              		.loc 1 506 9 is_stmt 0
 1502 0024 0145     		li	a0,0
 1503              	.L161:
 507:C:/Users/stapi/OneDrive/Desktop/GD32VW553/V1_MQTT_OK/GD32VW55X_Wifi_BLE_SDK/GD32VW55x_RELEASE_V1.0.2/MSDK/wpa_supplicant/src/ap\ieee802_11_he.c **** }
 1504              		.loc 1 507 1
 1505 0026 17030000 		tail	__riscv_restore_2
 1505      67000300 
 1506              		.cfi_remember_state
 1507              		.cfi_restore 9
 1508              		.cfi_restore 8
 1509              		.cfi_restore 1
 1510              		.cfi_def_cfa_offset 0
 1511              	.LVL171:
 1512              	.L160:
 1513              		.cfi_restore_state
 486:C:/Users/stapi/OneDrive/Desktop/GD32VW553/V1_MQTT_OK/GD32VW55X_Wifi_BLE_SDK/GD32VW55x_RELEASE_V1.0.2/MSDK/wpa_supplicant/src/ap\ieee802_11_he.c **** 	    hapd->conf->disable_11ax ||
 1514              		.loc 1 486 29 discriminator 1
 1515 002e 5C41     		lw	a5,4(a0)
 486:C:/Users/stapi/OneDrive/Desktop/GD32VW553/V1_MQTT_OK/GD32VW55X_Wifi_BLE_SDK/GD32VW55x_RELEASE_V1.0.2/MSDK/wpa_supplicant/src/ap\ieee802_11_he.c **** 	    hapd->conf->disable_11ax ||
 1516              		.loc 1 486 21 discriminator 1
 1517 0030 03A74715 		lw	a4,340(a5)
 1518 0034 61DF     		beq	a4,zero,.L162
 487:C:/Users/stapi/OneDrive/Desktop/GD32VW553/V1_MQTT_OK/GD32VW55X_Wifi_BLE_SDK/GD32VW55x_RELEASE_V1.0.2/MSDK/wpa_supplicant/src/ap\ieee802_11_he.c **** 	    !is_6ghz_op_class(hapd->iconf->op_class)) {
 1519              		.loc 1 487 16 discriminator 2
 1520 0036 1845     		lw	a4,8(a0)
 486:C:/Users/stapi/OneDrive/Desktop/GD32VW553/V1_MQTT_OK/GD32VW55X_Wifi_BLE_SDK/GD32VW55x_RELEASE_V1.0.2/MSDK/wpa_supplicant/src/ap\ieee802_11_he.c **** 	    hapd->conf->disable_11ax ||
 1521              		.loc 1 486 50 discriminator 2
 1522 0038 0347A729 		lbu	a4,666(a4)
 1523 003c 61FB     		bne	a4,zero,.L162
 488:C:/Users/stapi/OneDrive/Desktop/GD32VW553/V1_MQTT_OK/GD32VW55X_Wifi_BLE_SDK/GD32VW55x_RELEASE_V1.0.2/MSDK/wpa_supplicant/src/ap\ieee802_11_he.c **** 		sta->flags &= ~WLAN_STA_6GHZ;
 1524              		.loc 1 488 7
 1525 003e 03C58701 		lbu	a0,24(a5)
 1526              	.LVL172:
 1527 0042 B284     		mv	s1,a2
 1528 0044 97000000 		call	is_6ghz_op_class
 1528      E7800000 
 1529              	.LVL173:
 487:C:/Users/stapi/OneDrive/Desktop/GD32VW553/V1_MQTT_OK/GD32VW55X_Wifi_BLE_SDK/GD32VW55x_RELEASE_V1.0.2/MSDK/wpa_supplicant/src/ap\ieee802_11_he.c **** 	    !is_6ghz_op_class(hapd->iconf->op_class)) {
 1530              		.loc 1 487 31
 1531 004c 61D1     		beq	a0,zero,.L162
 495:C:/Users/stapi/OneDrive/Desktop/GD32VW553/V1_MQTT_OK/GD32VW55X_Wifi_BLE_SDK/GD32VW55x_RELEASE_V1.0.2/MSDK/wpa_supplicant/src/ap\ieee802_11_he.c **** 		sta->he_6ghz_capab =
 1532              		.loc 1 495 2 is_stmt 1
 495:C:/Users/stapi/OneDrive/Desktop/GD32VW553/V1_MQTT_OK/GD32VW55X_Wifi_BLE_SDK/GD32VW55x_RELEASE_V1.0.2/MSDK/wpa_supplicant/src/ap\ieee802_11_he.c **** 		sta->he_6ghz_capab =
 1533              		.loc 1 495 5 is_stmt 0
 1534 004e 8327440D 		lw	a5,212(s0)
 1535 0052 91CF     		beq	a5,zero,.L163
 1536              	.L164:
 502:C:/Users/stapi/OneDrive/Desktop/GD32VW553/V1_MQTT_OK/GD32VW55X_Wifi_BLE_SDK/GD32VW55x_RELEASE_V1.0.2/MSDK/wpa_supplicant/src/ap\ieee802_11_he.c **** 	os_memcpy(sta->he_6ghz_capab, he_6ghz_capab,
 1537              		.loc 1 502 2 is_stmt 1
 502:C:/Users/stapi/OneDrive/Desktop/GD32VW553/V1_MQTT_OK/GD32VW55X_Wifi_BLE_SDK/GD32VW55x_RELEASE_V1.0.2/MSDK/wpa_supplicant/src/ap\ieee802_11_he.c **** 	os_memcpy(sta->he_6ghz_capab, he_6ghz_capab,
 1538              		.loc 1 502 13 is_stmt 0
 1539 0054 1C50     		lw	a5,32(s0)
 503:C:/Users/stapi/OneDrive/Desktop/GD32VW553/V1_MQTT_OK/GD32VW55X_Wifi_BLE_SDK/GD32VW55x_RELEASE_V1.0.2/MSDK/wpa_supplicant/src/ap\ieee802_11_he.c **** 		  sizeof(struct ieee80211_he_6ghz_band_cap));
 1540              		.loc 1 503 2
 1541 0056 0325440D 		lw	a0,212(s0)
 1542 005a 0946     		li	a2,2
 502:C:/Users/stapi/OneDrive/Desktop/GD32VW553/V1_MQTT_OK/GD32VW55X_Wifi_BLE_SDK/GD32VW55x_RELEASE_V1.0.2/MSDK/wpa_supplicant/src/ap\ieee802_11_he.c **** 	os_memcpy(sta->he_6ghz_capab, he_6ghz_capab,
 1543              		.loc 1 502 13
 1544 005c 93979729 		bseti	a5,a5,25
 503:C:/Users/stapi/OneDrive/Desktop/GD32VW553/V1_MQTT_OK/GD32VW55X_Wifi_BLE_SDK/GD32VW55x_RELEASE_V1.0.2/MSDK/wpa_supplicant/src/ap\ieee802_11_he.c **** 		  sizeof(struct ieee80211_he_6ghz_band_cap));
 1545              		.loc 1 503 2
 1546 0060 A685     		mv	a1,s1
 502:C:/Users/stapi/OneDrive/Desktop/GD32VW553/V1_MQTT_OK/GD32VW55X_Wifi_BLE_SDK/GD32VW55x_RELEASE_V1.0.2/MSDK/wpa_supplicant/src/ap\ieee802_11_he.c **** 	os_memcpy(sta->he_6ghz_capab, he_6ghz_capab,
 1547              		.loc 1 502 13
 1548 0062 1CD0     		sw	a5,32(s0)
 503:C:/Users/stapi/OneDrive/Desktop/GD32VW553/V1_MQTT_OK/GD32VW55X_Wifi_BLE_SDK/GD32VW55x_RELEASE_V1.0.2/MSDK/wpa_supplicant/src/ap\ieee802_11_he.c **** 		  sizeof(struct ieee80211_he_6ghz_band_cap));
 1549              		.loc 1 503 2 is_stmt 1
 1550 0064 97000000 		call	os_memcpy
 1550      E7800000 
 1551              	.LVL174:
 1552 006c 65BF     		j	.L172
 1553              	.L163:
 496:C:/Users/stapi/OneDrive/Desktop/GD32VW553/V1_MQTT_OK/GD32VW55X_Wifi_BLE_SDK/GD32VW55x_RELEASE_V1.0.2/MSDK/wpa_supplicant/src/ap\ieee802_11_he.c **** 			os_zalloc(sizeof(struct ieee80211_he_6ghz_band_cap));
 1554              		.loc 1 496 3
 497:C:/Users/stapi/OneDrive/Desktop/GD32VW553/V1_MQTT_OK/GD32VW55X_Wifi_BLE_SDK/GD32VW55x_RELEASE_V1.0.2/MSDK/wpa_supplicant/src/ap\ieee802_11_he.c **** 		if (!sta->he_6ghz_capab)
 1555              		.loc 1 497 4 is_stmt 0
 1556 006e 0945     		li	a0,2
 1557 0070 97000000 		call	os_zalloc
 1557      E7800000 
 1558              	.LVL175:
 496:C:/Users/stapi/OneDrive/Desktop/GD32VW553/V1_MQTT_OK/GD32VW55X_Wifi_BLE_SDK/GD32VW55x_RELEASE_V1.0.2/MSDK/wpa_supplicant/src/ap\ieee802_11_he.c **** 			os_zalloc(sizeof(struct ieee80211_he_6ghz_band_cap));
 1559              		.loc 1 496 22
 1560 0078 232AA40C 		sw	a0,212(s0)
 498:C:/Users/stapi/OneDrive/Desktop/GD32VW553/V1_MQTT_OK/GD32VW55X_Wifi_BLE_SDK/GD32VW55x_RELEASE_V1.0.2/MSDK/wpa_supplicant/src/ap\ieee802_11_he.c **** 			return WLAN_STATUS_UNSPECIFIED_FAILURE;
 1561              		.loc 1 498 3 is_stmt 1
 498:C:/Users/stapi/OneDrive/Desktop/GD32VW553/V1_MQTT_OK/GD32VW55X_Wifi_BLE_SDK/GD32VW55x_RELEASE_V1.0.2/MSDK/wpa_supplicant/src/ap\ieee802_11_he.c **** 			return WLAN_STATUS_UNSPECIFIED_FAILURE;
 1562              		.loc 1 498 6 is_stmt 0
 1563 007c 61FD     		bne	a0,zero,.L164
 499:C:/Users/stapi/OneDrive/Desktop/GD32VW553/V1_MQTT_OK/GD32VW55X_Wifi_BLE_SDK/GD32VW55x_RELEASE_V1.0.2/MSDK/wpa_supplicant/src/ap\ieee802_11_he.c **** 	}
 1564              		.loc 1 499 11
 1565 007e 0545     		li	a0,1
 1566 0080 5DB7     		j	.L161
 1567              		.cfi_endproc
 1568              	.LFE150:
 1570              		.section	.text.hostapd_get_he_twt_responder,"ax",@progbits
 1571              		.align	1
 1572              		.globl	hostapd_get_he_twt_responder
 1574              	hostapd_get_he_twt_responder:
 1575              	.LFB151:
 508:C:/Users/stapi/OneDrive/Desktop/GD32VW553/V1_MQTT_OK/GD32VW55X_Wifi_BLE_SDK/GD32VW55x_RELEASE_V1.0.2/MSDK/wpa_supplicant/src/ap\ieee802_11_he.c **** 
 509:C:/Users/stapi/OneDrive/Desktop/GD32VW553/V1_MQTT_OK/GD32VW55X_Wifi_BLE_SDK/GD32VW55x_RELEASE_V1.0.2/MSDK/wpa_supplicant/src/ap\ieee802_11_he.c **** 
 510:C:/Users/stapi/OneDrive/Desktop/GD32VW553/V1_MQTT_OK/GD32VW55X_Wifi_BLE_SDK/GD32VW55x_RELEASE_V1.0.2/MSDK/wpa_supplicant/src/ap\ieee802_11_he.c **** int hostapd_get_he_twt_responder(struct hostapd_data *hapd,
 511:C:/Users/stapi/OneDrive/Desktop/GD32VW553/V1_MQTT_OK/GD32VW55X_Wifi_BLE_SDK/GD32VW55x_RELEASE_V1.0.2/MSDK/wpa_supplicant/src/ap\ieee802_11_he.c **** 				 enum ieee80211_op_mode mode)
 512:C:/Users/stapi/OneDrive/Desktop/GD32VW553/V1_MQTT_OK/GD32VW55X_Wifi_BLE_SDK/GD32VW55x_RELEASE_V1.0.2/MSDK/wpa_supplicant/src/ap\ieee802_11_he.c **** {
 1576              		.loc 1 512 1 is_stmt 1
 1577              		.cfi_startproc
 1578              	.LVL176:
 513:C:/Users/stapi/OneDrive/Desktop/GD32VW553/V1_MQTT_OK/GD32VW55X_Wifi_BLE_SDK/GD32VW55x_RELEASE_V1.0.2/MSDK/wpa_supplicant/src/ap\ieee802_11_he.c **** 	u8 *mac_cap;
 1579              		.loc 1 513 2
 514:C:/Users/stapi/OneDrive/Desktop/GD32VW553/V1_MQTT_OK/GD32VW55X_Wifi_BLE_SDK/GD32VW55x_RELEASE_V1.0.2/MSDK/wpa_supplicant/src/ap\ieee802_11_he.c **** 
 515:C:/Users/stapi/OneDrive/Desktop/GD32VW553/V1_MQTT_OK/GD32VW55X_Wifi_BLE_SDK/GD32VW55x_RELEASE_V1.0.2/MSDK/wpa_supplicant/src/ap\ieee802_11_he.c **** 	if (!hapd->iface->current_mode ||
 1580              		.loc 1 515 2
 1581              		.loc 1 515 11 is_stmt 0
 1582 0000 1841     		lw	a4,0(a0)
 1583              		.loc 1 515 18
 1584 0002 83274746 		lw	a5,1124(a4)
 1585              		.loc 1 515 5
 1586 0006 9DC3     		beq	a5,zero,.L175
 516:C:/Users/stapi/OneDrive/Desktop/GD32VW553/V1_MQTT_OK/GD32VW55X_Wifi_BLE_SDK/GD32VW55x_RELEASE_V1.0.2/MSDK/wpa_supplicant/src/ap\ieee802_11_he.c **** 	    !hapd->iface->current_mode->he_capab[mode].he_supported)
 1587              		.loc 1 516 48 discriminator 1
 1588 0008 9306A003 		li	a3,58
 1589 000c FF97D5C4 		maddr32	a5, a1, a3
 515:C:/Users/stapi/OneDrive/Desktop/GD32VW553/V1_MQTT_OK/GD32VW55X_Wifi_BLE_SDK/GD32VW55x_RELEASE_V1.0.2/MSDK/wpa_supplicant/src/ap\ieee802_11_he.c **** 	    !hapd->iface->current_mode->he_capab[mode].he_supported)
 1590              		.loc 1 515 33 discriminator 1
 1591 0010 83C68703 		lbu	a3,56(a5)
 517:C:/Users/stapi/OneDrive/Desktop/GD32VW553/V1_MQTT_OK/GD32VW55X_Wifi_BLE_SDK/GD32VW55x_RELEASE_V1.0.2/MSDK/wpa_supplicant/src/ap\ieee802_11_he.c **** 		return 0;
 518:C:/Users/stapi/OneDrive/Desktop/GD32VW553/V1_MQTT_OK/GD32VW55X_Wifi_BLE_SDK/GD32VW55x_RELEASE_V1.0.2/MSDK/wpa_supplicant/src/ap\ieee802_11_he.c **** 
 519:C:/Users/stapi/OneDrive/Desktop/GD32VW553/V1_MQTT_OK/GD32VW55X_Wifi_BLE_SDK/GD32VW55x_RELEASE_V1.0.2/MSDK/wpa_supplicant/src/ap\ieee802_11_he.c **** 	mac_cap = hapd->iface->current_mode->he_capab[mode].mac_cap;
 520:C:/Users/stapi/OneDrive/Desktop/GD32VW553/V1_MQTT_OK/GD32VW55X_Wifi_BLE_SDK/GD32VW55x_RELEASE_V1.0.2/MSDK/wpa_supplicant/src/ap\ieee802_11_he.c **** 
 521:C:/Users/stapi/OneDrive/Desktop/GD32VW553/V1_MQTT_OK/GD32VW55X_Wifi_BLE_SDK/GD32VW55x_RELEASE_V1.0.2/MSDK/wpa_supplicant/src/ap\ieee802_11_he.c **** 	return !!(mac_cap[HE_MAC_CAPAB_0] & HE_MACCAP_TWT_RESPONDER) &&
 1592              		.loc 1 521 63 discriminator 1
 1593 0014 0145     		li	a0,0
 1594              	.LVL177:
 515:C:/Users/stapi/OneDrive/Desktop/GD32VW553/V1_MQTT_OK/GD32VW55X_Wifi_BLE_SDK/GD32VW55x_RELEASE_V1.0.2/MSDK/wpa_supplicant/src/ap\ieee802_11_he.c **** 	    !hapd->iface->current_mode->he_capab[mode].he_supported)
 1595              		.loc 1 515 33 discriminator 1
 1596 0016 81CE     		beq	a3,zero,.L173
 519:C:/Users/stapi/OneDrive/Desktop/GD32VW553/V1_MQTT_OK/GD32VW55X_Wifi_BLE_SDK/GD32VW55x_RELEASE_V1.0.2/MSDK/wpa_supplicant/src/ap\ieee802_11_he.c **** 
 1597              		.loc 1 519 2 is_stmt 1
 1598              		.loc 1 521 2
 1599              		.loc 1 521 63 is_stmt 0
 1600 0018 83C74704 		lbu	a5,68(a5)
 1601 001c 918B     		andi	a5,a5,4
 1602 001e 81CB     		beq	a5,zero,.L173
 522:C:/Users/stapi/OneDrive/Desktop/GD32VW553/V1_MQTT_OK/GD32VW55X_Wifi_BLE_SDK/GD32VW55x_RELEASE_V1.0.2/MSDK/wpa_supplicant/src/ap\ieee802_11_he.c **** 		hapd->iface->conf->he_op.he_twt_responder;
 1603              		.loc 1 522 27 discriminator 1
 1604 0020 5C47     		lw	a5,12(a4)
 521:C:/Users/stapi/OneDrive/Desktop/GD32VW553/V1_MQTT_OK/GD32VW55X_Wifi_BLE_SDK/GD32VW55x_RELEASE_V1.0.2/MSDK/wpa_supplicant/src/ap\ieee802_11_he.c **** 		hapd->iface->conf->he_op.he_twt_responder;
 1605              		.loc 1 521 63 discriminator 1
 1606 0022 03C51716 		lbu	a0,353(a5)
 1607 0026 3335A000 		snez	a0,a0
 1608 002a 8280     		ret
 1609              	.LVL178:
 1610              	.L175:
 521:C:/Users/stapi/OneDrive/Desktop/GD32VW553/V1_MQTT_OK/GD32VW55X_Wifi_BLE_SDK/GD32VW55x_RELEASE_V1.0.2/MSDK/wpa_supplicant/src/ap\ieee802_11_he.c **** 		hapd->iface->conf->he_op.he_twt_responder;
 1611              		.loc 1 521 63
 1612 002c 0145     		li	a0,0
 1613              	.LVL179:
 1614              	.L173:
 523:C:/Users/stapi/OneDrive/Desktop/GD32VW553/V1_MQTT_OK/GD32VW55X_Wifi_BLE_SDK/GD32VW55x_RELEASE_V1.0.2/MSDK/wpa_supplicant/src/ap\ieee802_11_he.c **** }
 1615              		.loc 1 523 1
 1616 002e 8280     		ret
 1617              		.cfi_endproc
 1618              	.LFE151:
 1620              		.text
 1621              	.Letext0:
 1622              		.file 4 "c:\\users\\stapi\\onedrive\\desktop\\gd32vw553\\embeddedbuilder_v1.4.7.26843\\tools\\nucl
 1623              		.file 5 "c:\\users\\stapi\\onedrive\\desktop\\gd32vw553\\embeddedbuilder_v1.4.7.26843\\tools\\nucl
 1624              		.file 6 "c:\\users\\stapi\\onedrive\\desktop\\gd32vw553\\embeddedbuilder_v1.4.7.26843\\tools\\nucl
 1625              		.file 7 "..\\..\\..\\..\\lwip\\lwip-2.1.2\\src\\include/lwip/arch.h"
 1626              		.file 8 "..\\..\\..\\..\\lwip\\lwip-2.1.2\\src\\include/lwip/inet.h"
 1627              		.file 9 "..\\..\\..\\..\\wpa_supplicant\\src/utils/os.h"
 1628              		.file 10 "..\\..\\..\\..\\wpa_supplicant\\src/utils/wpabuf.h"
 1629              		.file 11 "..\\..\\..\\..\\wpa_supplicant\\src/common/ieee802_11_defs.h"
 1630              		.file 12 "..\\..\\..\\..\\wpa_supplicant\\src/utils/wpa_debug.h"
 1631              		.file 13 "..\\..\\..\\..\\wpa_supplicant\\src/common/defs.h"
 1632              		.file 14 "..\\..\\..\\..\\wpa_supplicant\\src/common/ieee802_11_common.h"
 1633              		.file 15 "..\\..\\..\\..\\wpa_supplicant\\src/utils/list.h"
 1634              		.file 16 "..\\..\\..\\..\\wpa_supplicant\\src/utils/ip_addr.h"
 1635              		.file 17 "..\\..\\..\\..\\wpa_supplicant\\src/wps/wps_defs.h"
 1636              		.file 18 "..\\..\\..\\..\\wpa_supplicant\\src/wps/wps.h"
 1637              		.file 19 "C:/Users/stapi/OneDrive/Desktop/GD32VW553/V1_MQTT_OK/GD32VW55X_Wifi_BLE_SDK/GD32VW55x_RE
 1638              		.file 20 "..\\..\\..\\..\\wpa_supplicant\\src/common/sae.h"
 1639              		.file 21 "..\\..\\..\\..\\wpa_supplicant\\src/drivers/driver.h"
 1640              		.file 22 "C:/Users/stapi/OneDrive/Desktop/GD32VW553/V1_MQTT_OK/GD32VW55X_Wifi_BLE_SDK/GD32VW55x_RE
 1641              		.file 23 "C:/Users/stapi/OneDrive/Desktop/GD32VW553/V1_MQTT_OK/GD32VW55X_Wifi_BLE_SDK/GD32VW55x_RE
DEFINED SYMBOLS
                            *ABS*:0000000000000000 ieee802_11_he.c
C:\Users\stapi\AppData\Local\Temp\cckM1eOc.s:12     .text.ieee80211_he_ppet_size.part.0:0000000000000000 ieee80211_he_ppet_size.part.0
C:\Users\stapi\AppData\Local\Temp\cckM1eOc.s:16     .text.ieee80211_he_ppet_size.part.0:0000000000000000 .L0 
C:\Users\stapi\AppData\Local\Temp\cckM1eOc.s:18     .text.ieee80211_he_ppet_size.part.0:0000000000000000 .L0 
C:\Users\stapi\AppData\Local\Temp\cckM1eOc.s:19     .text.ieee80211_he_ppet_size.part.0:0000000000000000 .L0 
C:\Users\stapi\AppData\Local\Temp\cckM1eOc.s:20     .text.ieee80211_he_ppet_size.part.0:0000000000000000 .L0 
C:\Users\stapi\AppData\Local\Temp\cckM1eOc.s:22     .text.ieee80211_he_ppet_size.part.0:0000000000000004 .L0 
C:\Users\stapi\AppData\Local\Temp\cckM1eOc.s:25     .text.ieee80211_he_ppet_size.part.0:0000000000000006 .L0 
C:\Users\stapi\AppData\Local\Temp\cckM1eOc.s:26     .text.ieee80211_he_ppet_size.part.0:0000000000000006 .L0 
C:\Users\stapi\AppData\Local\Temp\cckM1eOc.s:30     .text.ieee80211_he_ppet_size.part.0:0000000000000008 .L0 
C:\Users\stapi\AppData\Local\Temp\cckM1eOc.s:33     .text.ieee80211_he_ppet_size.part.0:000000000000000a .L0 
C:\Users\stapi\AppData\Local\Temp\cckM1eOc.s:34     .text.ieee80211_he_ppet_size.part.0:000000000000000a .L0 
C:\Users\stapi\AppData\Local\Temp\cckM1eOc.s:35     .text.ieee80211_he_ppet_size.part.0:000000000000000a .L0 
C:\Users\stapi\AppData\Local\Temp\cckM1eOc.s:39     .text.ieee80211_he_ppet_size.part.0:000000000000000e .L0 
C:\Users\stapi\AppData\Local\Temp\cckM1eOc.s:45     .text.ieee80211_he_ppet_size.part.0:0000000000000018 .L0 
C:\Users\stapi\AppData\Local\Temp\cckM1eOc.s:46     .text.ieee80211_he_ppet_size.part.0:0000000000000018 .L0 
C:\Users\stapi\AppData\Local\Temp\cckM1eOc.s:47     .text.ieee80211_he_ppet_size.part.0:0000000000000018 .L0 
C:\Users\stapi\AppData\Local\Temp\cckM1eOc.s:52     .text.ieee80211_he_ppet_size.part.0:000000000000001e .L0 
C:\Users\stapi\AppData\Local\Temp\cckM1eOc.s:53     .text.ieee80211_he_ppet_size.part.0:000000000000001e .L0 
C:\Users\stapi\AppData\Local\Temp\cckM1eOc.s:54     .text.ieee80211_he_ppet_size.part.0:000000000000001e .L0 
C:\Users\stapi\AppData\Local\Temp\cckM1eOc.s:60     .text.ieee80211_he_ppet_size.part.0:0000000000000022 .L0 
C:\Users\stapi\AppData\Local\Temp\cckM1eOc.s:61     .text.ieee80211_he_ppet_size.part.0:0000000000000022 .L0 
C:\Users\stapi\AppData\Local\Temp\cckM1eOc.s:64     .text.ieee80211_he_ppet_size.part.0:0000000000000028 .L0 
C:\Users\stapi\AppData\Local\Temp\cckM1eOc.s:65     .text.ieee80211_he_ppet_size.part.0:0000000000000028 .L0 
C:\Users\stapi\AppData\Local\Temp\cckM1eOc.s:71     .text.ieee80211_he_ppet_size.part.0:000000000000002e .L0 
C:\Users\stapi\AppData\Local\Temp\cckM1eOc.s:72     .text.ieee80211_he_ppet_size.part.0:000000000000002e .L0 
C:\Users\stapi\AppData\Local\Temp\cckM1eOc.s:75     .text.ieee80211_he_ppet_size.part.0:0000000000000032 .L0 
C:\Users\stapi\AppData\Local\Temp\cckM1eOc.s:82     .text.hostapd_eid_he_capab:0000000000000000 hostapd_eid_he_capab
C:\Users\stapi\AppData\Local\Temp\cckM1eOc.s:85     .text.hostapd_eid_he_capab:0000000000000000 .L0 
C:\Users\stapi\AppData\Local\Temp\cckM1eOc.s:87     .text.hostapd_eid_he_capab:0000000000000000 .L0 
C:\Users\stapi\AppData\Local\Temp\cckM1eOc.s:88     .text.hostapd_eid_he_capab:0000000000000008 .L0 
C:\Users\stapi\AppData\Local\Temp\cckM1eOc.s:89     .text.hostapd_eid_he_capab:0000000000000008 .L0 
C:\Users\stapi\AppData\Local\Temp\cckM1eOc.s:90     .text.hostapd_eid_he_capab:0000000000000008 .L0 
C:\Users\stapi\AppData\Local\Temp\cckM1eOc.s:91     .text.hostapd_eid_he_capab:0000000000000008 .L0 
C:\Users\stapi\AppData\Local\Temp\cckM1eOc.s:92     .text.hostapd_eid_he_capab:0000000000000008 .L0 
C:\Users\stapi\AppData\Local\Temp\cckM1eOc.s:93     .text.hostapd_eid_he_capab:0000000000000008 .L0 
C:\Users\stapi\AppData\Local\Temp\cckM1eOc.s:94     .text.hostapd_eid_he_capab:0000000000000008 .L0 
C:\Users\stapi\AppData\Local\Temp\cckM1eOc.s:95     .text.hostapd_eid_he_capab:0000000000000008 .L0 
C:\Users\stapi\AppData\Local\Temp\cckM1eOc.s:96     .text.hostapd_eid_he_capab:0000000000000008 .L0 
C:\Users\stapi\AppData\Local\Temp\cckM1eOc.s:97     .text.hostapd_eid_he_capab:0000000000000008 .L0 
C:\Users\stapi\AppData\Local\Temp\cckM1eOc.s:98     .text.hostapd_eid_he_capab:0000000000000008 .L0 
C:\Users\stapi\AppData\Local\Temp\cckM1eOc.s:99     .text.hostapd_eid_he_capab:0000000000000008 .L0 
C:\Users\stapi\AppData\Local\Temp\cckM1eOc.s:101    .text.hostapd_eid_he_capab:0000000000000008 .L0 
C:\Users\stapi\AppData\Local\Temp\cckM1eOc.s:102    .text.hostapd_eid_he_capab:0000000000000008 .L0 
C:\Users\stapi\AppData\Local\Temp\cckM1eOc.s:103    .text.hostapd_eid_he_capab:0000000000000008 .L0 
C:\Users\stapi\AppData\Local\Temp\cckM1eOc.s:105    .text.hostapd_eid_he_capab:000000000000000a .L0 
C:\Users\stapi\AppData\Local\Temp\cckM1eOc.s:107    .text.hostapd_eid_he_capab:000000000000000c .L0 
C:\Users\stapi\AppData\Local\Temp\cckM1eOc.s:110    .text.hostapd_eid_he_capab:0000000000000010 .L0 
C:\Users\stapi\AppData\Local\Temp\cckM1eOc.s:111    .text.hostapd_eid_he_capab:0000000000000010 .L0 
C:\Users\stapi\AppData\Local\Temp\cckM1eOc.s:112    .text.hostapd_eid_he_capab:0000000000000010 .L0 
C:\Users\stapi\AppData\Local\Temp\cckM1eOc.s:113    .text.hostapd_eid_he_capab:0000000000000010 .L0 
C:\Users\stapi\AppData\Local\Temp\cckM1eOc.s:114    .text.hostapd_eid_he_capab:0000000000000010 .L0 
C:\Users\stapi\AppData\Local\Temp\cckM1eOc.s:116    .text.hostapd_eid_he_capab:0000000000000014 .L0 
C:\Users\stapi\AppData\Local\Temp\cckM1eOc.s:121    .text.hostapd_eid_he_capab:000000000000001e .L0 
C:\Users\stapi\AppData\Local\Temp\cckM1eOc.s:124    .text.hostapd_eid_he_capab:000000000000001e .L0 
C:\Users\stapi\AppData\Local\Temp\cckM1eOc.s:125    .text.hostapd_eid_he_capab:000000000000001e .L0 
C:\Users\stapi\AppData\Local\Temp\cckM1eOc.s:129    .text.hostapd_eid_he_capab:0000000000000020 .L0 
C:\Users\stapi\AppData\Local\Temp\cckM1eOc.s:131    .text.hostapd_eid_he_capab:0000000000000024 .L0 
C:\Users\stapi\AppData\Local\Temp\cckM1eOc.s:133    .text.hostapd_eid_he_capab:0000000000000028 .L0 
C:\Users\stapi\AppData\Local\Temp\cckM1eOc.s:135    .text.hostapd_eid_he_capab:000000000000002a .L0 
C:\Users\stapi\AppData\Local\Temp\cckM1eOc.s:140    .text.hostapd_eid_he_capab:000000000000002e .L0 
C:\Users\stapi\AppData\Local\Temp\cckM1eOc.s:141    .text.hostapd_eid_he_capab:000000000000002e .L0 
C:\Users\stapi\AppData\Local\Temp\cckM1eOc.s:142    .text.hostapd_eid_he_capab:000000000000002e .L0 
C:\Users\stapi\AppData\Local\Temp\cckM1eOc.s:152    .text.hostapd_eid_he_capab:0000000000000040 .L0 
C:\Users\stapi\AppData\Local\Temp\cckM1eOc.s:153    .text.hostapd_eid_he_capab:0000000000000040 .L0 
C:\Users\stapi\AppData\Local\Temp\cckM1eOc.s:155    .text.hostapd_eid_he_capab:0000000000000042 .L0 
C:\Users\stapi\AppData\Local\Temp\cckM1eOc.s:157    .text.hostapd_eid_he_capab:0000000000000044 .L0 
C:\Users\stapi\AppData\Local\Temp\cckM1eOc.s:159    .text.hostapd_eid_he_capab:0000000000000048 .L0 
C:\Users\stapi\AppData\Local\Temp\cckM1eOc.s:168    .text.hostapd_eid_he_capab:000000000000005c .L0 
C:\Users\stapi\AppData\Local\Temp\cckM1eOc.s:169    .text.hostapd_eid_he_capab:000000000000005c .L0 
C:\Users\stapi\AppData\Local\Temp\cckM1eOc.s:172    .text.hostapd_eid_he_capab:0000000000000060 .L0 
C:\Users\stapi\AppData\Local\Temp\cckM1eOc.s:173    .text.hostapd_eid_he_capab:0000000000000060 .L0 
C:\Users\stapi\AppData\Local\Temp\cckM1eOc.s:177    .text.hostapd_eid_he_capab:0000000000000062 .L0 
C:\Users\stapi\AppData\Local\Temp\cckM1eOc.s:178    .text.hostapd_eid_he_capab:0000000000000062 .L0 
C:\Users\stapi\AppData\Local\Temp\cckM1eOc.s:182    .text.hostapd_eid_he_capab:0000000000000066 .L0 
C:\Users\stapi\AppData\Local\Temp\cckM1eOc.s:183    .text.hostapd_eid_he_capab:0000000000000066 .L0 
C:\Users\stapi\AppData\Local\Temp\cckM1eOc.s:184    .text.hostapd_eid_he_capab:0000000000000066 .L0 
C:\Users\stapi\AppData\Local\Temp\cckM1eOc.s:187    .text.hostapd_eid_he_capab:000000000000006e .L0 
C:\Users\stapi\AppData\Local\Temp\cckM1eOc.s:189    .text.hostapd_eid_he_capab:0000000000000072 .L0 
C:\Users\stapi\AppData\Local\Temp\cckM1eOc.s:191    .text.hostapd_eid_he_capab:0000000000000074 .L0 
C:\Users\stapi\AppData\Local\Temp\cckM1eOc.s:193    .text.hostapd_eid_he_capab:0000000000000076 .L0 
C:\Users\stapi\AppData\Local\Temp\cckM1eOc.s:195    .text.hostapd_eid_he_capab:000000000000007a .L0 
C:\Users\stapi\AppData\Local\Temp\cckM1eOc.s:197    .text.hostapd_eid_he_capab:000000000000007e .L0 
C:\Users\stapi\AppData\Local\Temp\cckM1eOc.s:199    .text.hostapd_eid_he_capab:0000000000000082 .L0 
C:\Users\stapi\AppData\Local\Temp\cckM1eOc.s:201    .text.hostapd_eid_he_capab:0000000000000086 .L0 
C:\Users\stapi\AppData\Local\Temp\cckM1eOc.s:203    .text.hostapd_eid_he_capab:000000000000008a .L0 
C:\Users\stapi\AppData\Local\Temp\cckM1eOc.s:209    .text.hostapd_eid_he_capab:000000000000009a .L0 
C:\Users\stapi\AppData\Local\Temp\cckM1eOc.s:211    .text.hostapd_eid_he_capab:000000000000009e .L0 
C:\Users\stapi\AppData\Local\Temp\cckM1eOc.s:217    .text.hostapd_eid_he_capab:00000000000000ac .L0 
C:\Users\stapi\AppData\Local\Temp\cckM1eOc.s:223    .text.hostapd_eid_he_capab:00000000000000bc .L0 
C:\Users\stapi\AppData\Local\Temp\cckM1eOc.s:225    .text.hostapd_eid_he_capab:00000000000000c0 .L0 
C:\Users\stapi\AppData\Local\Temp\cckM1eOc.s:229    .text.hostapd_eid_he_capab:00000000000000c8 .L0 
C:\Users\stapi\AppData\Local\Temp\cckM1eOc.s:232    .text.hostapd_eid_he_capab:00000000000000cc .L0 
C:\Users\stapi\AppData\Local\Temp\cckM1eOc.s:233    .text.hostapd_eid_he_capab:00000000000000cc .L0 
C:\Users\stapi\AppData\Local\Temp\cckM1eOc.s:234    .text.hostapd_eid_he_capab:00000000000000cc .L0 
C:\Users\stapi\AppData\Local\Temp\cckM1eOc.s:235    .text.hostapd_eid_he_capab:00000000000000cc .L0 
C:\Users\stapi\AppData\Local\Temp\cckM1eOc.s:236    .text.hostapd_eid_he_capab:00000000000000cc .L0 
C:\Users\stapi\AppData\Local\Temp\cckM1eOc.s:237    .text.hostapd_eid_he_capab:00000000000000cc .L0 
C:\Users\stapi\AppData\Local\Temp\cckM1eOc.s:238    .text.hostapd_eid_he_capab:00000000000000cc .L0 
C:\Users\stapi\AppData\Local\Temp\cckM1eOc.s:239    .text.hostapd_eid_he_capab:00000000000000cc .L0 
C:\Users\stapi\AppData\Local\Temp\cckM1eOc.s:242    .text.hostapd_eid_he_capab:00000000000000d4 .L0 
C:\Users\stapi\AppData\Local\Temp\cckM1eOc.s:243    .text.hostapd_eid_he_capab:00000000000000d4 .L0 
C:\Users\stapi\AppData\Local\Temp\cckM1eOc.s:245    .text.hostapd_eid_he_capab:00000000000000d8 .L0 
C:\Users\stapi\AppData\Local\Temp\cckM1eOc.s:246    .text.hostapd_eid_he_capab:00000000000000d8 .L0 
C:\Users\stapi\AppData\Local\Temp\cckM1eOc.s:249    .text.hostapd_eid_he_capab:00000000000000da .L0 
C:\Users\stapi\AppData\Local\Temp\cckM1eOc.s:251    .text.hostapd_eid_he_capab:00000000000000de .L0 
C:\Users\stapi\AppData\Local\Temp\cckM1eOc.s:253    .text.hostapd_eid_he_capab:00000000000000e2 .L0 
C:\Users\stapi\AppData\Local\Temp\cckM1eOc.s:260    .text.hostapd_eid_he_capab:00000000000000f2 .L0 
C:\Users\stapi\AppData\Local\Temp\cckM1eOc.s:261    .text.hostapd_eid_he_capab:00000000000000f2 .L0 
C:\Users\stapi\AppData\Local\Temp\cckM1eOc.s:263    .text.hostapd_eid_he_capab:00000000000000f6 .L0 
C:\Users\stapi\AppData\Local\Temp\cckM1eOc.s:265    .text.hostapd_eid_he_capab:00000000000000fa .L0 
C:\Users\stapi\AppData\Local\Temp\cckM1eOc.s:267    .text.hostapd_eid_he_capab:00000000000000fc .L0 
C:\Users\stapi\AppData\Local\Temp\cckM1eOc.s:269    .text.hostapd_eid_he_capab:0000000000000100 .L0 
C:\Users\stapi\AppData\Local\Temp\cckM1eOc.s:272    .text.hostapd_eid_he_capab:0000000000000106 .L0 
C:\Users\stapi\AppData\Local\Temp\cckM1eOc.s:273    .text.hostapd_eid_he_capab:0000000000000106 .L0 
C:\Users\stapi\AppData\Local\Temp\cckM1eOc.s:277    .text.hostapd_eid_he_capab:000000000000010e .L0 
C:\Users\stapi\AppData\Local\Temp\cckM1eOc.s:278    .text.hostapd_eid_he_capab:000000000000010e .L0 
C:\Users\stapi\AppData\Local\Temp\cckM1eOc.s:280    .text.hostapd_eid_he_capab:0000000000000112 .L0 
C:\Users\stapi\AppData\Local\Temp\cckM1eOc.s:282    .text.hostapd_eid_he_capab:0000000000000116 .L0 
C:\Users\stapi\AppData\Local\Temp\cckM1eOc.s:284    .text.hostapd_eid_he_capab:000000000000011a .L0 
C:\Users\stapi\AppData\Local\Temp\cckM1eOc.s:286    .text.hostapd_eid_he_capab:000000000000011c .L0 
C:\Users\stapi\AppData\Local\Temp\cckM1eOc.s:287    .text.hostapd_eid_he_capab:000000000000011c .L0 
C:\Users\stapi\AppData\Local\Temp\cckM1eOc.s:290    .text.hostapd_eid_he_capab:0000000000000120 .L0 
C:\Users\stapi\AppData\Local\Temp\cckM1eOc.s:291    .text.hostapd_eid_he_capab:0000000000000120 .L0 
C:\Users\stapi\AppData\Local\Temp\cckM1eOc.s:293    .text.hostapd_eid_he_capab:0000000000000124 .L0 
C:\Users\stapi\AppData\Local\Temp\cckM1eOc.s:295    .text.hostapd_eid_he_capab:0000000000000128 .L0 
C:\Users\stapi\AppData\Local\Temp\cckM1eOc.s:297    .text.hostapd_eid_he_capab:000000000000012a .L0 
C:\Users\stapi\AppData\Local\Temp\cckM1eOc.s:298    .text.hostapd_eid_he_capab:000000000000012a .L0 
C:\Users\stapi\AppData\Local\Temp\cckM1eOc.s:301    .text.hostapd_eid_he_capab:000000000000012e .L0 
C:\Users\stapi\AppData\Local\Temp\cckM1eOc.s:304    .text.hostapd_eid_he_capab:0000000000000136 .L0 
C:\Users\stapi\AppData\Local\Temp\cckM1eOc.s:305    .text.hostapd_eid_he_capab:0000000000000136 .L0 
C:\Users\stapi\AppData\Local\Temp\cckM1eOc.s:309    .text.hostapd_eid_he_capab:000000000000013e .L0 
C:\Users\stapi\AppData\Local\Temp\cckM1eOc.s:310    .text.hostapd_eid_he_capab:000000000000013e .L0 
C:\Users\stapi\AppData\Local\Temp\cckM1eOc.s:314    .text.hostapd_eid_he_capab:0000000000000142 .L0 
C:\Users\stapi\AppData\Local\Temp\cckM1eOc.s:315    .text.hostapd_eid_he_capab:0000000000000142 .L0 
C:\Users\stapi\AppData\Local\Temp\cckM1eOc.s:317    .text.hostapd_eid_he_capab:000000000000014c .L0 
C:\Users\stapi\AppData\Local\Temp\cckM1eOc.s:318    .text.hostapd_eid_he_capab:000000000000014c .L0 
C:\Users\stapi\AppData\Local\Temp\cckM1eOc.s:319    .text.hostapd_eid_he_capab:000000000000014c .L0 
C:\Users\stapi\AppData\Local\Temp\cckM1eOc.s:320    .text.hostapd_eid_he_capab:000000000000014c .L0 
C:\Users\stapi\AppData\Local\Temp\cckM1eOc.s:321    .text.hostapd_eid_he_capab:000000000000014c .L0 
C:\Users\stapi\AppData\Local\Temp\cckM1eOc.s:322    .text.hostapd_eid_he_capab:000000000000014c .L0 
C:\Users\stapi\AppData\Local\Temp\cckM1eOc.s:323    .text.hostapd_eid_he_capab:000000000000014c .L0 
C:\Users\stapi\AppData\Local\Temp\cckM1eOc.s:324    .text.hostapd_eid_he_capab:000000000000014c .L0 
C:\Users\stapi\AppData\Local\Temp\cckM1eOc.s:325    .text.hostapd_eid_he_capab:000000000000014c .L0 
C:\Users\stapi\AppData\Local\Temp\cckM1eOc.s:326    .text.hostapd_eid_he_capab:000000000000014c .L0 
C:\Users\stapi\AppData\Local\Temp\cckM1eOc.s:327    .text.hostapd_eid_he_capab:000000000000014c .L0 
C:\Users\stapi\AppData\Local\Temp\cckM1eOc.s:328    .text.hostapd_eid_he_capab:000000000000014c .L0 
C:\Users\stapi\AppData\Local\Temp\cckM1eOc.s:329    .text.hostapd_eid_he_capab:000000000000014c .L0 
C:\Users\stapi\AppData\Local\Temp\cckM1eOc.s:332    .text.hostapd_eid_he_capab:000000000000014c .L0 
C:\Users\stapi\AppData\Local\Temp\cckM1eOc.s:334    .text.hostapd_eid_he_capab:000000000000014c .L0 
C:\Users\stapi\AppData\Local\Temp\cckM1eOc.s:336    .text.hostapd_eid_he_capab:000000000000014e .L0 
C:\Users\stapi\AppData\Local\Temp\cckM1eOc.s:340    .text.hostapd_eid_he_capab:0000000000000154 .L0 
C:\Users\stapi\AppData\Local\Temp\cckM1eOc.s:347    .text.hostapd_eid_he_capab:0000000000000164 .L0 
C:\Users\stapi\AppData\Local\Temp\cckM1eOc.s:354    .text.hostapd_eid_he_operation:0000000000000000 hostapd_eid_he_operation
C:\Users\stapi\AppData\Local\Temp\cckM1eOc.s:357    .text.hostapd_eid_he_operation:0000000000000000 .L0 
C:\Users\stapi\AppData\Local\Temp\cckM1eOc.s:359    .text.hostapd_eid_he_operation:0000000000000000 .L0 
C:\Users\stapi\AppData\Local\Temp\cckM1eOc.s:360    .text.hostapd_eid_he_operation:0000000000000008 .L0 
C:\Users\stapi\AppData\Local\Temp\cckM1eOc.s:361    .text.hostapd_eid_he_operation:0000000000000008 .L0 
C:\Users\stapi\AppData\Local\Temp\cckM1eOc.s:362    .text.hostapd_eid_he_operation:0000000000000008 .L0 
C:\Users\stapi\AppData\Local\Temp\cckM1eOc.s:363    .text.hostapd_eid_he_operation:0000000000000008 .L0 
C:\Users\stapi\AppData\Local\Temp\cckM1eOc.s:364    .text.hostapd_eid_he_operation:0000000000000008 .L0 
C:\Users\stapi\AppData\Local\Temp\cckM1eOc.s:365    .text.hostapd_eid_he_operation:0000000000000008 .L0 
C:\Users\stapi\AppData\Local\Temp\cckM1eOc.s:366    .text.hostapd_eid_he_operation:0000000000000008 .L0 
C:\Users\stapi\AppData\Local\Temp\cckM1eOc.s:368    .text.hostapd_eid_he_operation:0000000000000008 .L0 
C:\Users\stapi\AppData\Local\Temp\cckM1eOc.s:369    .text.hostapd_eid_he_operation:0000000000000008 .L0 
C:\Users\stapi\AppData\Local\Temp\cckM1eOc.s:370    .text.hostapd_eid_he_operation:0000000000000008 .L0 
C:\Users\stapi\AppData\Local\Temp\cckM1eOc.s:372    .text.hostapd_eid_he_operation:000000000000000a .L0 
C:\Users\stapi\AppData\Local\Temp\cckM1eOc.s:375    .text.hostapd_eid_he_operation:000000000000000c .L0 
C:\Users\stapi\AppData\Local\Temp\cckM1eOc.s:376    .text.hostapd_eid_he_operation:000000000000000c .L0 
C:\Users\stapi\AppData\Local\Temp\cckM1eOc.s:377    .text.hostapd_eid_he_operation:000000000000000c .L0 
C:\Users\stapi\AppData\Local\Temp\cckM1eOc.s:378    .text.hostapd_eid_he_operation:000000000000000c .L0 
C:\Users\stapi\AppData\Local\Temp\cckM1eOc.s:381    .text.hostapd_eid_he_operation:0000000000000014 .L0 
C:\Users\stapi\AppData\Local\Temp\cckM1eOc.s:384    .text.hostapd_eid_he_operation:0000000000000018 .L0 
C:\Users\stapi\AppData\Local\Temp\cckM1eOc.s:385    .text.hostapd_eid_he_operation:0000000000000018 .L0 
C:\Users\stapi\AppData\Local\Temp\cckM1eOc.s:390    .text.hostapd_eid_he_operation:0000000000000024 .L0 
C:\Users\stapi\AppData\Local\Temp\cckM1eOc.s:392    .text.hostapd_eid_he_operation:0000000000000026 .L0 
C:\Users\stapi\AppData\Local\Temp\cckM1eOc.s:394    .text.hostapd_eid_he_operation:0000000000000028 .L0 
C:\Users\stapi\AppData\Local\Temp\cckM1eOc.s:398    .text.hostapd_eid_he_operation:000000000000002a .L0 
C:\Users\stapi\AppData\Local\Temp\cckM1eOc.s:399    .text.hostapd_eid_he_operation:000000000000002a .L0 
C:\Users\stapi\AppData\Local\Temp\cckM1eOc.s:402    .text.hostapd_eid_he_operation:000000000000002c .L0 
C:\Users\stapi\AppData\Local\Temp\cckM1eOc.s:404    .text.hostapd_eid_he_operation:000000000000002e .L0 
C:\Users\stapi\AppData\Local\Temp\cckM1eOc.s:406    .text.hostapd_eid_he_operation:0000000000000032 .L0 
C:\Users\stapi\AppData\Local\Temp\cckM1eOc.s:409    .text.hostapd_eid_he_operation:0000000000000036 .L0 
C:\Users\stapi\AppData\Local\Temp\cckM1eOc.s:412    .text.hostapd_eid_he_operation:000000000000003a .L0 
C:\Users\stapi\AppData\Local\Temp\cckM1eOc.s:413    .text.hostapd_eid_he_operation:000000000000003a .L0 
C:\Users\stapi\AppData\Local\Temp\cckM1eOc.s:414    .text.hostapd_eid_he_operation:000000000000003a .L0 
C:\Users\stapi\AppData\Local\Temp\cckM1eOc.s:417    .text.hostapd_eid_he_operation:000000000000003e .L0 
C:\Users\stapi\AppData\Local\Temp\cckM1eOc.s:418    .text.hostapd_eid_he_operation:000000000000003e .L0 
C:\Users\stapi\AppData\Local\Temp\cckM1eOc.s:425    .text.hostapd_eid_he_operation:000000000000004e .L0 
C:\Users\stapi\AppData\Local\Temp\cckM1eOc.s:426    .text.hostapd_eid_he_operation:000000000000004e .L0 
C:\Users\stapi\AppData\Local\Temp\cckM1eOc.s:429    .text.hostapd_eid_he_operation:0000000000000054 .L0 
C:\Users\stapi\AppData\Local\Temp\cckM1eOc.s:431    .text.hostapd_eid_he_operation:0000000000000058 .L0 
C:\Users\stapi\AppData\Local\Temp\cckM1eOc.s:434    .text.hostapd_eid_he_operation:000000000000005c .L0 
C:\Users\stapi\AppData\Local\Temp\cckM1eOc.s:435    .text.hostapd_eid_he_operation:000000000000005c .L0 
C:\Users\stapi\AppData\Local\Temp\cckM1eOc.s:437    .text.hostapd_eid_he_operation:000000000000005e .L0 
C:\Users\stapi\AppData\Local\Temp\cckM1eOc.s:441    .text.hostapd_eid_he_operation:0000000000000062 .L0 
C:\Users\stapi\AppData\Local\Temp\cckM1eOc.s:442    .text.hostapd_eid_he_operation:0000000000000062 .L0 
C:\Users\stapi\AppData\Local\Temp\cckM1eOc.s:444    .text.hostapd_eid_he_operation:0000000000000066 .L0 
C:\Users\stapi\AppData\Local\Temp\cckM1eOc.s:446    .text.hostapd_eid_he_operation:0000000000000068 .L0 
C:\Users\stapi\AppData\Local\Temp\cckM1eOc.s:447    .text.hostapd_eid_he_operation:0000000000000068 .L0 
C:\Users\stapi\AppData\Local\Temp\cckM1eOc.s:449    .text.hostapd_eid_he_operation:000000000000006a .L0 
C:\Users\stapi\AppData\Local\Temp\cckM1eOc.s:453    .text.hostapd_eid_he_operation:000000000000006c .L0 
C:\Users\stapi\AppData\Local\Temp\cckM1eOc.s:454    .text.hostapd_eid_he_operation:000000000000006c .L0 
C:\Users\stapi\AppData\Local\Temp\cckM1eOc.s:457    .text.hostapd_eid_he_operation:0000000000000072 .L0 
C:\Users\stapi\AppData\Local\Temp\cckM1eOc.s:458    .text.hostapd_eid_he_operation:0000000000000072 .L0 
C:\Users\stapi\AppData\Local\Temp\cckM1eOc.s:462    .text.hostapd_eid_he_operation:0000000000000076 .L0 
C:\Users\stapi\AppData\Local\Temp\cckM1eOc.s:463    .text.hostapd_eid_he_operation:0000000000000076 .L0 
C:\Users\stapi\AppData\Local\Temp\cckM1eOc.s:466    .text.hostapd_eid_he_operation:000000000000007c .L0 
C:\Users\stapi\AppData\Local\Temp\cckM1eOc.s:467    .text.hostapd_eid_he_operation:000000000000007c .L0 
C:\Users\stapi\AppData\Local\Temp\cckM1eOc.s:472    .text.hostapd_eid_he_operation:0000000000000082 .L0 
C:\Users\stapi\AppData\Local\Temp\cckM1eOc.s:473    .text.hostapd_eid_he_operation:0000000000000082 .L0 
C:\Users\stapi\AppData\Local\Temp\cckM1eOc.s:476    .text.hostapd_eid_he_operation:0000000000000088 .L0 
C:\Users\stapi\AppData\Local\Temp\cckM1eOc.s:477    .text.hostapd_eid_he_operation:0000000000000088 .L0 
C:\Users\stapi\AppData\Local\Temp\cckM1eOc.s:481    .text.hostapd_eid_he_operation:000000000000008c .L0 
C:\Users\stapi\AppData\Local\Temp\cckM1eOc.s:482    .text.hostapd_eid_he_operation:000000000000008c .L0 
C:\Users\stapi\AppData\Local\Temp\cckM1eOc.s:484    .text.hostapd_eid_he_operation:0000000000000090 .L0 
C:\Users\stapi\AppData\Local\Temp\cckM1eOc.s:486    .text.hostapd_eid_he_operation:0000000000000092 .L0 
C:\Users\stapi\AppData\Local\Temp\cckM1eOc.s:489    .text.hostapd_eid_he_operation:0000000000000094 .L0 
C:\Users\stapi\AppData\Local\Temp\cckM1eOc.s:490    .text.hostapd_eid_he_operation:0000000000000094 .L0 
C:\Users\stapi\AppData\Local\Temp\cckM1eOc.s:497    .text.hostapd_eid_he_operation:00000000000000a6 .L0 
C:\Users\stapi\AppData\Local\Temp\cckM1eOc.s:498    .text.hostapd_eid_he_operation:00000000000000a6 .L0 
C:\Users\stapi\AppData\Local\Temp\cckM1eOc.s:499    .text.hostapd_eid_he_operation:00000000000000a6 .L0 
C:\Users\stapi\AppData\Local\Temp\cckM1eOc.s:504    .text.hostapd_eid_he_operation:00000000000000b6 .L0 
C:\Users\stapi\AppData\Local\Temp\cckM1eOc.s:507    .text.hostapd_eid_he_operation:00000000000000ba .L0 
C:\Users\stapi\AppData\Local\Temp\cckM1eOc.s:510    .text.hostapd_eid_he_operation:00000000000000bc .L0 
C:\Users\stapi\AppData\Local\Temp\cckM1eOc.s:511    .text.hostapd_eid_he_operation:00000000000000bc .L0 
C:\Users\stapi\AppData\Local\Temp\cckM1eOc.s:517    .text.hostapd_eid_he_operation:00000000000000c0 .L0 
C:\Users\stapi\AppData\Local\Temp\cckM1eOc.s:518    .text.hostapd_eid_he_operation:00000000000000c0 .L0 
C:\Users\stapi\AppData\Local\Temp\cckM1eOc.s:522    .text.hostapd_eid_he_operation:00000000000000c6 .L0 
C:\Users\stapi\AppData\Local\Temp\cckM1eOc.s:523    .text.hostapd_eid_he_operation:00000000000000c6 .L0 
C:\Users\stapi\AppData\Local\Temp\cckM1eOc.s:530    .text.hostapd_eid_he_operation:00000000000000ca .L0 
C:\Users\stapi\AppData\Local\Temp\cckM1eOc.s:531    .text.hostapd_eid_he_operation:00000000000000ca .L0 
C:\Users\stapi\AppData\Local\Temp\cckM1eOc.s:532    .text.hostapd_eid_he_operation:00000000000000ca .L0 
C:\Users\stapi\AppData\Local\Temp\cckM1eOc.s:533    .text.hostapd_eid_he_operation:00000000000000ca .L0 
C:\Users\stapi\AppData\Local\Temp\cckM1eOc.s:539    .text.hostapd_eid_he_operation:00000000000000ce .L0 
C:\Users\stapi\AppData\Local\Temp\cckM1eOc.s:540    .text.hostapd_eid_he_operation:00000000000000ce .L0 
C:\Users\stapi\AppData\Local\Temp\cckM1eOc.s:542    .text.hostapd_eid_he_operation:00000000000000d2 .L0 
C:\Users\stapi\AppData\Local\Temp\cckM1eOc.s:544    .text.hostapd_eid_he_operation:00000000000000d6 .L0 
C:\Users\stapi\AppData\Local\Temp\cckM1eOc.s:548    .text.hostapd_eid_he_operation:00000000000000d8 .L0 
C:\Users\stapi\AppData\Local\Temp\cckM1eOc.s:549    .text.hostapd_eid_he_operation:00000000000000d8 .L0 
C:\Users\stapi\AppData\Local\Temp\cckM1eOc.s:551    .text.hostapd_eid_he_operation:00000000000000dc .L0 
C:\Users\stapi\AppData\Local\Temp\cckM1eOc.s:554    .text.hostapd_eid_he_operation:00000000000000e0 .L0 
C:\Users\stapi\AppData\Local\Temp\cckM1eOc.s:555    .text.hostapd_eid_he_operation:00000000000000e0 .L0 
C:\Users\stapi\AppData\Local\Temp\cckM1eOc.s:556    .text.hostapd_eid_he_operation:00000000000000e0 .L0 
C:\Users\stapi\AppData\Local\Temp\cckM1eOc.s:559    .text.hostapd_eid_he_operation:00000000000000e4 .L0 
C:\Users\stapi\AppData\Local\Temp\cckM1eOc.s:560    .text.hostapd_eid_he_operation:00000000000000e4 .L0 
C:\Users\stapi\AppData\Local\Temp\cckM1eOc.s:565    .text.hostapd_eid_he_operation:00000000000000ea .L0 
C:\Users\stapi\AppData\Local\Temp\cckM1eOc.s:566    .text.hostapd_eid_he_operation:00000000000000ea .L0 
C:\Users\stapi\AppData\Local\Temp\cckM1eOc.s:568    .text.hostapd_eid_he_operation:00000000000000ee .L0 
C:\Users\stapi\AppData\Local\Temp\cckM1eOc.s:573    .text.hostapd_eid_he_operation:00000000000000f8 .L0 
C:\Users\stapi\AppData\Local\Temp\cckM1eOc.s:574    .text.hostapd_eid_he_operation:00000000000000f8 .L0 
C:\Users\stapi\AppData\Local\Temp\cckM1eOc.s:575    .text.hostapd_eid_he_operation:00000000000000f8 .L0 
C:\Users\stapi\AppData\Local\Temp\cckM1eOc.s:578    .text.hostapd_eid_he_operation:0000000000000100 .L0 
C:\Users\stapi\AppData\Local\Temp\cckM1eOc.s:579    .text.hostapd_eid_he_operation:0000000000000100 .L0 
C:\Users\stapi\AppData\Local\Temp\cckM1eOc.s:583    .text.hostapd_eid_he_operation:0000000000000104 .L0 
C:\Users\stapi\AppData\Local\Temp\cckM1eOc.s:588    .text.hostapd_eid_he_operation:000000000000010a .L0 
C:\Users\stapi\AppData\Local\Temp\cckM1eOc.s:589    .text.hostapd_eid_he_operation:000000000000010a .L0 
C:\Users\stapi\AppData\Local\Temp\cckM1eOc.s:591    .text.hostapd_eid_he_operation:000000000000010c .L0 
C:\Users\stapi\AppData\Local\Temp\cckM1eOc.s:594    .text.hostapd_eid_he_operation:0000000000000110 .L0 
C:\Users\stapi\AppData\Local\Temp\cckM1eOc.s:595    .text.hostapd_eid_he_operation:0000000000000110 .L0 
C:\Users\stapi\AppData\Local\Temp\cckM1eOc.s:597    .text.hostapd_eid_he_operation:0000000000000114 .L0 
C:\Users\stapi\AppData\Local\Temp\cckM1eOc.s:598    .text.hostapd_eid_he_operation:0000000000000114 .L0 
C:\Users\stapi\AppData\Local\Temp\cckM1eOc.s:601    .text.hostapd_eid_he_operation:0000000000000118 .L0 
C:\Users\stapi\AppData\Local\Temp\cckM1eOc.s:606    .text.hostapd_eid_he_operation:000000000000011c .L0 
C:\Users\stapi\AppData\Local\Temp\cckM1eOc.s:607    .text.hostapd_eid_he_operation:000000000000011c .L0 
C:\Users\stapi\AppData\Local\Temp\cckM1eOc.s:615    .text.hostapd_eid_he_operation:0000000000000138 .L0 
C:\Users\stapi\AppData\Local\Temp\cckM1eOc.s:616    .text.hostapd_eid_he_operation:0000000000000138 .L0 
C:\Users\stapi\AppData\Local\Temp\cckM1eOc.s:620    .text.hostapd_eid_he_operation:000000000000013a .L0 
C:\Users\stapi\AppData\Local\Temp\cckM1eOc.s:622    .text.hostapd_eid_he_operation:0000000000000144 .L0 
C:\Users\stapi\AppData\Local\Temp\cckM1eOc.s:623    .text.hostapd_eid_he_operation:0000000000000144 .L0 
C:\Users\stapi\AppData\Local\Temp\cckM1eOc.s:624    .text.hostapd_eid_he_operation:0000000000000144 .L0 
C:\Users\stapi\AppData\Local\Temp\cckM1eOc.s:625    .text.hostapd_eid_he_operation:0000000000000144 .L0 
C:\Users\stapi\AppData\Local\Temp\cckM1eOc.s:626    .text.hostapd_eid_he_operation:0000000000000144 .L0 
C:\Users\stapi\AppData\Local\Temp\cckM1eOc.s:627    .text.hostapd_eid_he_operation:0000000000000144 .L0 
C:\Users\stapi\AppData\Local\Temp\cckM1eOc.s:628    .text.hostapd_eid_he_operation:0000000000000144 .L0 
C:\Users\stapi\AppData\Local\Temp\cckM1eOc.s:629    .text.hostapd_eid_he_operation:0000000000000144 .L0 
C:\Users\stapi\AppData\Local\Temp\cckM1eOc.s:632    .text.hostapd_eid_he_operation:0000000000000144 .L0 
C:\Users\stapi\AppData\Local\Temp\cckM1eOc.s:637    .text.hostapd_eid_he_operation:0000000000000144 .L0 
C:\Users\stapi\AppData\Local\Temp\cckM1eOc.s:638    .text.hostapd_eid_he_operation:0000000000000144 .L0 
C:\Users\stapi\AppData\Local\Temp\cckM1eOc.s:645    .text.hostapd_eid_he_operation:0000000000000148 .L0 
C:\Users\stapi\AppData\Local\Temp\cckM1eOc.s:646    .text.hostapd_eid_he_operation:0000000000000148 .L0 
C:\Users\stapi\AppData\Local\Temp\cckM1eOc.s:647    .text.hostapd_eid_he_operation:0000000000000148 .L0 
C:\Users\stapi\AppData\Local\Temp\cckM1eOc.s:648    .text.hostapd_eid_he_operation:0000000000000148 .L0 
C:\Users\stapi\AppData\Local\Temp\cckM1eOc.s:655    .text.hostapd_eid_he_operation:000000000000014e .L0 
C:\Users\stapi\AppData\Local\Temp\cckM1eOc.s:656    .text.hostapd_eid_he_operation:000000000000014e .L0 
C:\Users\stapi\AppData\Local\Temp\cckM1eOc.s:660    .text.hostapd_eid_he_operation:0000000000000158 .L0 
C:\Users\stapi\AppData\Local\Temp\cckM1eOc.s:665    .text.hostapd_eid_he_operation:000000000000015e .L0 
C:\Users\stapi\AppData\Local\Temp\cckM1eOc.s:666    .text.hostapd_eid_he_operation:000000000000015e .L0 
C:\Users\stapi\AppData\Local\Temp\cckM1eOc.s:669    .text.hostapd_eid_he_operation:0000000000000164 .L0 
C:\Users\stapi\AppData\Local\Temp\cckM1eOc.s:680    .text.hostapd_eid_he_mu_edca_parameter_set:0000000000000000 hostapd_eid_he_mu_edca_parameter_set
C:\Users\stapi\AppData\Local\Temp\cckM1eOc.s:683    .text.hostapd_eid_he_mu_edca_parameter_set:0000000000000000 .L0 
C:\Users\stapi\AppData\Local\Temp\cckM1eOc.s:685    .text.hostapd_eid_he_mu_edca_parameter_set:0000000000000000 .L0 
C:\Users\stapi\AppData\Local\Temp\cckM1eOc.s:686    .text.hostapd_eid_he_mu_edca_parameter_set:0000000000000008 .L0 
C:\Users\stapi\AppData\Local\Temp\cckM1eOc.s:687    .text.hostapd_eid_he_mu_edca_parameter_set:0000000000000008 .L0 
C:\Users\stapi\AppData\Local\Temp\cckM1eOc.s:688    .text.hostapd_eid_he_mu_edca_parameter_set:0000000000000008 .L0 
C:\Users\stapi\AppData\Local\Temp\cckM1eOc.s:689    .text.hostapd_eid_he_mu_edca_parameter_set:0000000000000008 .L0 
C:\Users\stapi\AppData\Local\Temp\cckM1eOc.s:691    .text.hostapd_eid_he_mu_edca_parameter_set:0000000000000008 .L0 
C:\Users\stapi\AppData\Local\Temp\cckM1eOc.s:692    .text.hostapd_eid_he_mu_edca_parameter_set:0000000000000008 .L0 
C:\Users\stapi\AppData\Local\Temp\cckM1eOc.s:693    .text.hostapd_eid_he_mu_edca_parameter_set:0000000000000008 .L0 
C:\Users\stapi\AppData\Local\Temp\cckM1eOc.s:694    .text.hostapd_eid_he_mu_edca_parameter_set:0000000000000008 .L0 
C:\Users\stapi\AppData\Local\Temp\cckM1eOc.s:695    .text.hostapd_eid_he_mu_edca_parameter_set:0000000000000008 .L0 
C:\Users\stapi\AppData\Local\Temp\cckM1eOc.s:697    .text.hostapd_eid_he_mu_edca_parameter_set:000000000000000a .L0 
C:\Users\stapi\AppData\Local\Temp\cckM1eOc.s:699    .text.hostapd_eid_he_mu_edca_parameter_set:000000000000000c .L0 
C:\Users\stapi\AppData\Local\Temp\cckM1eOc.s:702    .text.hostapd_eid_he_mu_edca_parameter_set:000000000000000e .L0 
C:\Users\stapi\AppData\Local\Temp\cckM1eOc.s:703    .text.hostapd_eid_he_mu_edca_parameter_set:000000000000000e .L0 
C:\Users\stapi\AppData\Local\Temp\cckM1eOc.s:708    .text.hostapd_eid_he_mu_edca_parameter_set:0000000000000016 .L0 
C:\Users\stapi\AppData\Local\Temp\cckM1eOc.s:709    .text.hostapd_eid_he_mu_edca_parameter_set:0000000000000016 .L0 
C:\Users\stapi\AppData\Local\Temp\cckM1eOc.s:713    .text.hostapd_eid_he_mu_edca_parameter_set:000000000000001c .L0 
C:\Users\stapi\AppData\Local\Temp\cckM1eOc.s:714    .text.hostapd_eid_he_mu_edca_parameter_set:000000000000001c .L0 
C:\Users\stapi\AppData\Local\Temp\cckM1eOc.s:715    .text.hostapd_eid_he_mu_edca_parameter_set:000000000000001c .L0 
C:\Users\stapi\AppData\Local\Temp\cckM1eOc.s:721    .text.hostapd_eid_he_mu_edca_parameter_set:0000000000000022 .L0 
C:\Users\stapi\AppData\Local\Temp\cckM1eOc.s:723    .text.hostapd_eid_he_mu_edca_parameter_set:000000000000002c .L0 
C:\Users\stapi\AppData\Local\Temp\cckM1eOc.s:724    .text.hostapd_eid_he_mu_edca_parameter_set:000000000000002c .L0 
C:\Users\stapi\AppData\Local\Temp\cckM1eOc.s:725    .text.hostapd_eid_he_mu_edca_parameter_set:000000000000002c .L0 
C:\Users\stapi\AppData\Local\Temp\cckM1eOc.s:726    .text.hostapd_eid_he_mu_edca_parameter_set:000000000000002c .L0 
C:\Users\stapi\AppData\Local\Temp\cckM1eOc.s:727    .text.hostapd_eid_he_mu_edca_parameter_set:000000000000002c .L0 
C:\Users\stapi\AppData\Local\Temp\cckM1eOc.s:730    .text.hostapd_eid_he_mu_edca_parameter_set:000000000000002c .L0 
C:\Users\stapi\AppData\Local\Temp\cckM1eOc.s:732    .text.hostapd_eid_he_mu_edca_parameter_set:000000000000002c .L0 
C:\Users\stapi\AppData\Local\Temp\cckM1eOc.s:733    .text.hostapd_eid_he_mu_edca_parameter_set:000000000000002c .L0 
C:\Users\stapi\AppData\Local\Temp\cckM1eOc.s:734    .text.hostapd_eid_he_mu_edca_parameter_set:000000000000002c .L0 
C:\Users\stapi\AppData\Local\Temp\cckM1eOc.s:735    .text.hostapd_eid_he_mu_edca_parameter_set:000000000000002c .L0 
C:\Users\stapi\AppData\Local\Temp\cckM1eOc.s:740    .text.hostapd_eid_he_mu_edca_parameter_set:0000000000000032 .L0 
C:\Users\stapi\AppData\Local\Temp\cckM1eOc.s:741    .text.hostapd_eid_he_mu_edca_parameter_set:0000000000000032 .L0 
C:\Users\stapi\AppData\Local\Temp\cckM1eOc.s:744    .text.hostapd_eid_he_mu_edca_parameter_set:0000000000000038 .L0 
C:\Users\stapi\AppData\Local\Temp\cckM1eOc.s:745    .text.hostapd_eid_he_mu_edca_parameter_set:0000000000000038 .L0 
C:\Users\stapi\AppData\Local\Temp\cckM1eOc.s:748    .text.hostapd_eid_he_mu_edca_parameter_set:0000000000000040 .L0 
C:\Users\stapi\AppData\Local\Temp\cckM1eOc.s:750    .text.hostapd_eid_he_mu_edca_parameter_set:0000000000000042 .L0 
C:\Users\stapi\AppData\Local\Temp\cckM1eOc.s:753    .text.hostapd_eid_he_mu_edca_parameter_set:0000000000000046 .L0 
C:\Users\stapi\AppData\Local\Temp\cckM1eOc.s:754    .text.hostapd_eid_he_mu_edca_parameter_set:0000000000000046 .L0 
C:\Users\stapi\AppData\Local\Temp\cckM1eOc.s:756    .text.hostapd_eid_he_mu_edca_parameter_set:0000000000000048 .L0 
C:\Users\stapi\AppData\Local\Temp\cckM1eOc.s:758    .text.hostapd_eid_he_mu_edca_parameter_set:000000000000004a .L0 
C:\Users\stapi\AppData\Local\Temp\cckM1eOc.s:761    .text.hostapd_eid_he_mu_edca_parameter_set:000000000000004c .L0 
C:\Users\stapi\AppData\Local\Temp\cckM1eOc.s:764    .text.hostapd_eid_he_mu_edca_parameter_set:000000000000004e .L0 
C:\Users\stapi\AppData\Local\Temp\cckM1eOc.s:768    .text.hostapd_eid_he_mu_edca_parameter_set:000000000000005a .L0 
C:\Users\stapi\AppData\Local\Temp\cckM1eOc.s:776    .text.hostapd_eid_he_mu_edca_parameter_set:0000000000000070 .L0 
C:\Users\stapi\AppData\Local\Temp\cckM1eOc.s:777    .text.hostapd_eid_he_mu_edca_parameter_set:0000000000000070 .L0 
C:\Users\stapi\AppData\Local\Temp\cckM1eOc.s:778    .text.hostapd_eid_he_mu_edca_parameter_set:0000000000000070 .L0 
C:\Users\stapi\AppData\Local\Temp\cckM1eOc.s:779    .text.hostapd_eid_he_mu_edca_parameter_set:0000000000000072 .L0 
C:\Users\stapi\AppData\Local\Temp\cckM1eOc.s:786    .text.hostapd_eid_spatial_reuse:0000000000000000 hostapd_eid_spatial_reuse
C:\Users\stapi\AppData\Local\Temp\cckM1eOc.s:789    .text.hostapd_eid_spatial_reuse:0000000000000000 .L0 
C:\Users\stapi\AppData\Local\Temp\cckM1eOc.s:791    .text.hostapd_eid_spatial_reuse:0000000000000000 .L0 
C:\Users\stapi\AppData\Local\Temp\cckM1eOc.s:792    .text.hostapd_eid_spatial_reuse:0000000000000008 .L0 
C:\Users\stapi\AppData\Local\Temp\cckM1eOc.s:793    .text.hostapd_eid_spatial_reuse:0000000000000008 .L0 
C:\Users\stapi\AppData\Local\Temp\cckM1eOc.s:794    .text.hostapd_eid_spatial_reuse:0000000000000008 .L0 
C:\Users\stapi\AppData\Local\Temp\cckM1eOc.s:795    .text.hostapd_eid_spatial_reuse:0000000000000008 .L0 
C:\Users\stapi\AppData\Local\Temp\cckM1eOc.s:797    .text.hostapd_eid_spatial_reuse:0000000000000008 .L0 
C:\Users\stapi\AppData\Local\Temp\cckM1eOc.s:798    .text.hostapd_eid_spatial_reuse:0000000000000008 .L0 
C:\Users\stapi\AppData\Local\Temp\cckM1eOc.s:799    .text.hostapd_eid_spatial_reuse:0000000000000008 .L0 
C:\Users\stapi\AppData\Local\Temp\cckM1eOc.s:801    .text.hostapd_eid_spatial_reuse:000000000000000a .L0 
C:\Users\stapi\AppData\Local\Temp\cckM1eOc.s:804    .text.hostapd_eid_spatial_reuse:000000000000000c .L0 
C:\Users\stapi\AppData\Local\Temp\cckM1eOc.s:805    .text.hostapd_eid_spatial_reuse:000000000000000c .L0 
C:\Users\stapi\AppData\Local\Temp\cckM1eOc.s:806    .text.hostapd_eid_spatial_reuse:000000000000000c .L0 
C:\Users\stapi\AppData\Local\Temp\cckM1eOc.s:809    .text.hostapd_eid_spatial_reuse:0000000000000012 .L0 
C:\Users\stapi\AppData\Local\Temp\cckM1eOc.s:811    .text.hostapd_eid_spatial_reuse:0000000000000014 .L0 
C:\Users\stapi\AppData\Local\Temp\cckM1eOc.s:813    .text.hostapd_eid_spatial_reuse:0000000000000018 .L0 
C:\Users\stapi\AppData\Local\Temp\cckM1eOc.s:816    .text.hostapd_eid_spatial_reuse:000000000000001c .L0 
C:\Users\stapi\AppData\Local\Temp\cckM1eOc.s:817    .text.hostapd_eid_spatial_reuse:000000000000001c .L0 
C:\Users\stapi\AppData\Local\Temp\cckM1eOc.s:820    .text.hostapd_eid_spatial_reuse:000000000000001e .L0 
C:\Users\stapi\AppData\Local\Temp\cckM1eOc.s:821    .text.hostapd_eid_spatial_reuse:000000000000001e .L0 
C:\Users\stapi\AppData\Local\Temp\cckM1eOc.s:823    .text.hostapd_eid_spatial_reuse:0000000000000020 .L0 
C:\Users\stapi\AppData\Local\Temp\cckM1eOc.s:824    .text.hostapd_eid_spatial_reuse:0000000000000020 .L0 
C:\Users\stapi\AppData\Local\Temp\cckM1eOc.s:830    .text.hostapd_eid_spatial_reuse:0000000000000026 .L0 
C:\Users\stapi\AppData\Local\Temp\cckM1eOc.s:831    .text.hostapd_eid_spatial_reuse:0000000000000026 .L0 
C:\Users\stapi\AppData\Local\Temp\cckM1eOc.s:834    .text.hostapd_eid_spatial_reuse:0000000000000028 .L0 
C:\Users\stapi\AppData\Local\Temp\cckM1eOc.s:836    .text.hostapd_eid_spatial_reuse:000000000000002a .L0 
C:\Users\stapi\AppData\Local\Temp\cckM1eOc.s:838    .text.hostapd_eid_spatial_reuse:000000000000002e .L0 
C:\Users\stapi\AppData\Local\Temp\cckM1eOc.s:840    .text.hostapd_eid_spatial_reuse:0000000000000032 .L0 
C:\Users\stapi\AppData\Local\Temp\cckM1eOc.s:843    .text.hostapd_eid_spatial_reuse:0000000000000036 .L0 
C:\Users\stapi\AppData\Local\Temp\cckM1eOc.s:844    .text.hostapd_eid_spatial_reuse:0000000000000036 .L0 
C:\Users\stapi\AppData\Local\Temp\cckM1eOc.s:845    .text.hostapd_eid_spatial_reuse:0000000000000036 .L0 
C:\Users\stapi\AppData\Local\Temp\cckM1eOc.s:848    .text.hostapd_eid_spatial_reuse:000000000000003a .L0 
C:\Users\stapi\AppData\Local\Temp\cckM1eOc.s:849    .text.hostapd_eid_spatial_reuse:000000000000003a .L0 
C:\Users\stapi\AppData\Local\Temp\cckM1eOc.s:857    .text.hostapd_eid_spatial_reuse:000000000000004a .L0 
C:\Users\stapi\AppData\Local\Temp\cckM1eOc.s:858    .text.hostapd_eid_spatial_reuse:000000000000004a .L0 
C:\Users\stapi\AppData\Local\Temp\cckM1eOc.s:861    .text.hostapd_eid_spatial_reuse:000000000000004e .L0 
C:\Users\stapi\AppData\Local\Temp\cckM1eOc.s:863    .text.hostapd_eid_spatial_reuse:0000000000000052 .L0 
C:\Users\stapi\AppData\Local\Temp\cckM1eOc.s:866    .text.hostapd_eid_spatial_reuse:0000000000000056 .L0 
C:\Users\stapi\AppData\Local\Temp\cckM1eOc.s:867    .text.hostapd_eid_spatial_reuse:0000000000000056 .L0 
C:\Users\stapi\AppData\Local\Temp\cckM1eOc.s:868    .text.hostapd_eid_spatial_reuse:0000000000000056 .L0 
C:\Users\stapi\AppData\Local\Temp\cckM1eOc.s:869    .text.hostapd_eid_spatial_reuse:0000000000000056 .L0 
C:\Users\stapi\AppData\Local\Temp\cckM1eOc.s:872    .text.hostapd_eid_spatial_reuse:000000000000005c .L0 
C:\Users\stapi\AppData\Local\Temp\cckM1eOc.s:876    .text.hostapd_eid_spatial_reuse:000000000000005e .L0 
C:\Users\stapi\AppData\Local\Temp\cckM1eOc.s:877    .text.hostapd_eid_spatial_reuse:000000000000005e .L0 
C:\Users\stapi\AppData\Local\Temp\cckM1eOc.s:881    .text.hostapd_eid_spatial_reuse:0000000000000062 .L0 
C:\Users\stapi\AppData\Local\Temp\cckM1eOc.s:882    .text.hostapd_eid_spatial_reuse:0000000000000062 .L0 
C:\Users\stapi\AppData\Local\Temp\cckM1eOc.s:884    .text.hostapd_eid_spatial_reuse:0000000000000064 .L0 
C:\Users\stapi\AppData\Local\Temp\cckM1eOc.s:887    .text.hostapd_eid_spatial_reuse:000000000000006a .L0 
C:\Users\stapi\AppData\Local\Temp\cckM1eOc.s:890    .text.hostapd_eid_spatial_reuse:0000000000000070 .L0 
C:\Users\stapi\AppData\Local\Temp\cckM1eOc.s:893    .text.hostapd_eid_spatial_reuse:0000000000000074 .L0 
C:\Users\stapi\AppData\Local\Temp\cckM1eOc.s:894    .text.hostapd_eid_spatial_reuse:0000000000000074 .L0 
C:\Users\stapi\AppData\Local\Temp\cckM1eOc.s:896    .text.hostapd_eid_spatial_reuse:0000000000000076 .L0 
C:\Users\stapi\AppData\Local\Temp\cckM1eOc.s:899    .text.hostapd_eid_spatial_reuse:000000000000007c .L0 
C:\Users\stapi\AppData\Local\Temp\cckM1eOc.s:901    .text.hostapd_eid_spatial_reuse:0000000000000080 .L0 
C:\Users\stapi\AppData\Local\Temp\cckM1eOc.s:902    .text.hostapd_eid_spatial_reuse:0000000000000080 .L0 
C:\Users\stapi\AppData\Local\Temp\cckM1eOc.s:904    .text.hostapd_eid_spatial_reuse:0000000000000082 .L0 
C:\Users\stapi\AppData\Local\Temp\cckM1eOc.s:906    .text.hostapd_eid_spatial_reuse:0000000000000084 .L0 
C:\Users\stapi\AppData\Local\Temp\cckM1eOc.s:910    .text.hostapd_eid_spatial_reuse:0000000000000090 .L0 
C:\Users\stapi\AppData\Local\Temp\cckM1eOc.s:911    .text.hostapd_eid_spatial_reuse:0000000000000090 .L0 
C:\Users\stapi\AppData\Local\Temp\cckM1eOc.s:912    .text.hostapd_eid_spatial_reuse:0000000000000090 .L0 
C:\Users\stapi\AppData\Local\Temp\cckM1eOc.s:914    .text.hostapd_eid_spatial_reuse:0000000000000092 .L0 
C:\Users\stapi\AppData\Local\Temp\cckM1eOc.s:918    .text.hostapd_eid_spatial_reuse:0000000000000098 .L0 
C:\Users\stapi\AppData\Local\Temp\cckM1eOc.s:920    .text.hostapd_eid_spatial_reuse:000000000000009a .L0 
C:\Users\stapi\AppData\Local\Temp\cckM1eOc.s:923    .text.hostapd_eid_spatial_reuse:000000000000009c .L0 
C:\Users\stapi\AppData\Local\Temp\cckM1eOc.s:928    .text.hostapd_eid_spatial_reuse:00000000000000a8 .L0 
C:\Users\stapi\AppData\Local\Temp\cckM1eOc.s:929    .text.hostapd_eid_spatial_reuse:00000000000000a8 .L0 
C:\Users\stapi\AppData\Local\Temp\cckM1eOc.s:931    .text.hostapd_eid_spatial_reuse:00000000000000b2 .L0 
C:\Users\stapi\AppData\Local\Temp\cckM1eOc.s:932    .text.hostapd_eid_spatial_reuse:00000000000000b2 .L0 
C:\Users\stapi\AppData\Local\Temp\cckM1eOc.s:933    .text.hostapd_eid_spatial_reuse:00000000000000b2 .L0 
C:\Users\stapi\AppData\Local\Temp\cckM1eOc.s:934    .text.hostapd_eid_spatial_reuse:00000000000000b2 .L0 
C:\Users\stapi\AppData\Local\Temp\cckM1eOc.s:935    .text.hostapd_eid_spatial_reuse:00000000000000b2 .L0 
C:\Users\stapi\AppData\Local\Temp\cckM1eOc.s:938    .text.hostapd_eid_spatial_reuse:00000000000000b2 .L0 
C:\Users\stapi\AppData\Local\Temp\cckM1eOc.s:940    .text.hostapd_eid_spatial_reuse:00000000000000b2 .L0 
C:\Users\stapi\AppData\Local\Temp\cckM1eOc.s:941    .text.hostapd_eid_spatial_reuse:00000000000000b2 .L0 
C:\Users\stapi\AppData\Local\Temp\cckM1eOc.s:943    .text.hostapd_eid_spatial_reuse:00000000000000b6 .L0 
C:\Users\stapi\AppData\Local\Temp\cckM1eOc.s:946    .text.hostapd_eid_spatial_reuse:00000000000000b8 .L0 
C:\Users\stapi\AppData\Local\Temp\cckM1eOc.s:949    .text.hostapd_eid_spatial_reuse:00000000000000bc .L0 
C:\Users\stapi\AppData\Local\Temp\cckM1eOc.s:950    .text.hostapd_eid_spatial_reuse:00000000000000be .L0 
C:\Users\stapi\AppData\Local\Temp\cckM1eOc.s:957    .text.hostapd_eid_he_6ghz_band_cap:0000000000000000 hostapd_eid_he_6ghz_band_cap
C:\Users\stapi\AppData\Local\Temp\cckM1eOc.s:960    .text.hostapd_eid_he_6ghz_band_cap:0000000000000000 .L0 
C:\Users\stapi\AppData\Local\Temp\cckM1eOc.s:962    .text.hostapd_eid_he_6ghz_band_cap:0000000000000000 .L0 
C:\Users\stapi\AppData\Local\Temp\cckM1eOc.s:963    .text.hostapd_eid_he_6ghz_band_cap:0000000000000008 .L0 
C:\Users\stapi\AppData\Local\Temp\cckM1eOc.s:964    .text.hostapd_eid_he_6ghz_band_cap:0000000000000008 .L0 
C:\Users\stapi\AppData\Local\Temp\cckM1eOc.s:965    .text.hostapd_eid_he_6ghz_band_cap:0000000000000008 .L0 
C:\Users\stapi\AppData\Local\Temp\cckM1eOc.s:966    .text.hostapd_eid_he_6ghz_band_cap:0000000000000008 .L0 
C:\Users\stapi\AppData\Local\Temp\cckM1eOc.s:967    .text.hostapd_eid_he_6ghz_band_cap:0000000000000008 .L0 
C:\Users\stapi\AppData\Local\Temp\cckM1eOc.s:968    .text.hostapd_eid_he_6ghz_band_cap:0000000000000008 .L0 
C:\Users\stapi\AppData\Local\Temp\cckM1eOc.s:970    .text.hostapd_eid_he_6ghz_band_cap:0000000000000008 .L0 
C:\Users\stapi\AppData\Local\Temp\cckM1eOc.s:971    .text.hostapd_eid_he_6ghz_band_cap:0000000000000008 .L0 
C:\Users\stapi\AppData\Local\Temp\cckM1eOc.s:974    .text.hostapd_eid_he_6ghz_band_cap:000000000000000a .L0 
C:\Users\stapi\AppData\Local\Temp\cckM1eOc.s:975    .text.hostapd_eid_he_6ghz_band_cap:000000000000000a .L0 
C:\Users\stapi\AppData\Local\Temp\cckM1eOc.s:977    .text.hostapd_eid_he_6ghz_band_cap:000000000000000c .L0 
C:\Users\stapi\AppData\Local\Temp\cckM1eOc.s:980    .text.hostapd_eid_he_6ghz_band_cap:0000000000000010 .L0 
C:\Users\stapi\AppData\Local\Temp\cckM1eOc.s:981    .text.hostapd_eid_he_6ghz_band_cap:0000000000000010 .L0 
C:\Users\stapi\AppData\Local\Temp\cckM1eOc.s:982    .text.hostapd_eid_he_6ghz_band_cap:0000000000000010 .L0 
C:\Users\stapi\AppData\Local\Temp\cckM1eOc.s:983    .text.hostapd_eid_he_6ghz_band_cap:0000000000000010 .L0 
C:\Users\stapi\AppData\Local\Temp\cckM1eOc.s:984    .text.hostapd_eid_he_6ghz_band_cap:0000000000000010 .L0 
C:\Users\stapi\AppData\Local\Temp\cckM1eOc.s:985    .text.hostapd_eid_he_6ghz_band_cap:0000000000000010 .L0 
C:\Users\stapi\AppData\Local\Temp\cckM1eOc.s:987    .text.hostapd_eid_he_6ghz_band_cap:0000000000000014 .L0 
C:\Users\stapi\AppData\Local\Temp\cckM1eOc.s:989    .text.hostapd_eid_he_6ghz_band_cap:0000000000000018 .L0 
C:\Users\stapi\AppData\Local\Temp\cckM1eOc.s:997    .text.hostapd_eid_he_6ghz_band_cap:0000000000000028 .L0 
C:\Users\stapi\AppData\Local\Temp\cckM1eOc.s:999    .text.hostapd_eid_he_6ghz_band_cap:000000000000002a .L0 
C:\Users\stapi\AppData\Local\Temp\cckM1eOc.s:1004   .text.hostapd_eid_he_6ghz_band_cap:0000000000000038 .L0 
C:\Users\stapi\AppData\Local\Temp\cckM1eOc.s:1007   .text.hostapd_eid_he_6ghz_band_cap:000000000000003a .L0 
C:\Users\stapi\AppData\Local\Temp\cckM1eOc.s:1008   .text.hostapd_eid_he_6ghz_band_cap:000000000000003a .L0 
C:\Users\stapi\AppData\Local\Temp\cckM1eOc.s:1009   .text.hostapd_eid_he_6ghz_band_cap:000000000000003a .L0 
C:\Users\stapi\AppData\Local\Temp\cckM1eOc.s:1011   .text.hostapd_eid_he_6ghz_band_cap:000000000000003e .L0 
C:\Users\stapi\AppData\Local\Temp\cckM1eOc.s:1013   .text.hostapd_eid_he_6ghz_band_cap:0000000000000042 .L0 
C:\Users\stapi\AppData\Local\Temp\cckM1eOc.s:1015   .text.hostapd_eid_he_6ghz_band_cap:0000000000000046 .L0 
C:\Users\stapi\AppData\Local\Temp\cckM1eOc.s:1017   .text.hostapd_eid_he_6ghz_band_cap:0000000000000048 .L0 
C:\Users\stapi\AppData\Local\Temp\cckM1eOc.s:1019   .text.hostapd_eid_he_6ghz_band_cap:000000000000004a .L0 
C:\Users\stapi\AppData\Local\Temp\cckM1eOc.s:1021   .text.hostapd_eid_he_6ghz_band_cap:000000000000004e .L0 
C:\Users\stapi\AppData\Local\Temp\cckM1eOc.s:1023   .text.hostapd_eid_he_6ghz_band_cap:0000000000000052 .L0 
C:\Users\stapi\AppData\Local\Temp\cckM1eOc.s:1025   .text.hostapd_eid_he_6ghz_band_cap:0000000000000054 .L0 
C:\Users\stapi\AppData\Local\Temp\cckM1eOc.s:1028   .text.hostapd_eid_he_6ghz_band_cap:0000000000000056 .L0 
C:\Users\stapi\AppData\Local\Temp\cckM1eOc.s:1029   .text.hostapd_eid_he_6ghz_band_cap:0000000000000056 .L0 
C:\Users\stapi\AppData\Local\Temp\cckM1eOc.s:1030   .text.hostapd_eid_he_6ghz_band_cap:0000000000000056 .L0 
C:\Users\stapi\AppData\Local\Temp\cckM1eOc.s:1033   .text.hostapd_eid_he_6ghz_band_cap:0000000000000058 .L0 
C:\Users\stapi\AppData\Local\Temp\cckM1eOc.s:1034   .text.hostapd_eid_he_6ghz_band_cap:0000000000000058 .L0 
C:\Users\stapi\AppData\Local\Temp\cckM1eOc.s:1035   .text.hostapd_eid_he_6ghz_band_cap:0000000000000058 .L0 
C:\Users\stapi\AppData\Local\Temp\cckM1eOc.s:1038   .text.hostapd_eid_he_6ghz_band_cap:000000000000005e .L0 
C:\Users\stapi\AppData\Local\Temp\cckM1eOc.s:1042   .text.hostapd_eid_he_6ghz_band_cap:0000000000000062 .L0 
C:\Users\stapi\AppData\Local\Temp\cckM1eOc.s:1043   .text.hostapd_eid_he_6ghz_band_cap:0000000000000062 .L0 
C:\Users\stapi\AppData\Local\Temp\cckM1eOc.s:1046   .text.hostapd_eid_he_6ghz_band_cap:0000000000000068 .L0 
C:\Users\stapi\AppData\Local\Temp\cckM1eOc.s:1047   .text.hostapd_eid_he_6ghz_band_cap:0000000000000068 .L0 
C:\Users\stapi\AppData\Local\Temp\cckM1eOc.s:1051   .text.hostapd_eid_he_6ghz_band_cap:000000000000006c .L0 
C:\Users\stapi\AppData\Local\Temp\cckM1eOc.s:1052   .text.hostapd_eid_he_6ghz_band_cap:000000000000006c .L0 
C:\Users\stapi\AppData\Local\Temp\cckM1eOc.s:1053   .text.hostapd_eid_he_6ghz_band_cap:000000000000006c .L0 
C:\Users\stapi\AppData\Local\Temp\cckM1eOc.s:1057   .text.hostapd_eid_he_6ghz_band_cap:0000000000000072 .L0 
C:\Users\stapi\AppData\Local\Temp\cckM1eOc.s:1058   .text.hostapd_eid_he_6ghz_band_cap:0000000000000072 .L0 
C:\Users\stapi\AppData\Local\Temp\cckM1eOc.s:1062   .text.hostapd_eid_he_6ghz_band_cap:0000000000000078 .L0 
C:\Users\stapi\AppData\Local\Temp\cckM1eOc.s:1063   .text.hostapd_eid_he_6ghz_band_cap:0000000000000078 .L0 
C:\Users\stapi\AppData\Local\Temp\cckM1eOc.s:1065   .text.hostapd_eid_he_6ghz_band_cap:000000000000007c .L0 
C:\Users\stapi\AppData\Local\Temp\cckM1eOc.s:1067   .text.hostapd_eid_he_6ghz_band_cap:0000000000000080 .L0 
C:\Users\stapi\AppData\Local\Temp\cckM1eOc.s:1070   .text.hostapd_eid_he_6ghz_band_cap:0000000000000082 .L0 
C:\Users\stapi\AppData\Local\Temp\cckM1eOc.s:1073   .text.hostapd_eid_he_6ghz_band_cap:0000000000000086 .L0 
C:\Users\stapi\AppData\Local\Temp\cckM1eOc.s:1074   .text.hostapd_eid_he_6ghz_band_cap:0000000000000086 .L0 
C:\Users\stapi\AppData\Local\Temp\cckM1eOc.s:1075   .text.hostapd_eid_he_6ghz_band_cap:0000000000000086 .L0 
C:\Users\stapi\AppData\Local\Temp\cckM1eOc.s:1077   .text.hostapd_eid_he_6ghz_band_cap:000000000000008a .L0 
C:\Users\stapi\AppData\Local\Temp\cckM1eOc.s:1078   .text.hostapd_eid_he_6ghz_band_cap:000000000000008a .L0 
C:\Users\stapi\AppData\Local\Temp\cckM1eOc.s:1082   .text.hostapd_eid_he_6ghz_band_cap:000000000000008c .L0 
C:\Users\stapi\AppData\Local\Temp\cckM1eOc.s:1083   .text.hostapd_eid_he_6ghz_band_cap:000000000000008c .L0 
C:\Users\stapi\AppData\Local\Temp\cckM1eOc.s:1085   .text.hostapd_eid_he_6ghz_band_cap:0000000000000096 .L0 
C:\Users\stapi\AppData\Local\Temp\cckM1eOc.s:1086   .text.hostapd_eid_he_6ghz_band_cap:0000000000000096 .L0 
C:\Users\stapi\AppData\Local\Temp\cckM1eOc.s:1087   .text.hostapd_eid_he_6ghz_band_cap:0000000000000096 .L0 
C:\Users\stapi\AppData\Local\Temp\cckM1eOc.s:1088   .text.hostapd_eid_he_6ghz_band_cap:0000000000000096 .L0 
C:\Users\stapi\AppData\Local\Temp\cckM1eOc.s:1089   .text.hostapd_eid_he_6ghz_band_cap:0000000000000096 .L0 
C:\Users\stapi\AppData\Local\Temp\cckM1eOc.s:1090   .text.hostapd_eid_he_6ghz_band_cap:0000000000000096 .L0 
C:\Users\stapi\AppData\Local\Temp\cckM1eOc.s:1091   .text.hostapd_eid_he_6ghz_band_cap:0000000000000096 .L0 
C:\Users\stapi\AppData\Local\Temp\cckM1eOc.s:1094   .text.hostapd_eid_he_6ghz_band_cap:0000000000000096 .L0 
C:\Users\stapi\AppData\Local\Temp\cckM1eOc.s:1096   .text.hostapd_eid_he_6ghz_band_cap:0000000000000096 .L0 
C:\Users\stapi\AppData\Local\Temp\cckM1eOc.s:1097   .text.hostapd_eid_he_6ghz_band_cap:0000000000000096 .L0 
C:\Users\stapi\AppData\Local\Temp\cckM1eOc.s:1102   .text.hostapd_eid_he_6ghz_band_cap:00000000000000a0 .L0 
C:\Users\stapi\AppData\Local\Temp\cckM1eOc.s:1109   .text.hostapd_get_he_capab:0000000000000000 hostapd_get_he_capab
C:\Users\stapi\AppData\Local\Temp\cckM1eOc.s:1112   .text.hostapd_get_he_capab:0000000000000000 .L0 
C:\Users\stapi\AppData\Local\Temp\cckM1eOc.s:1114   .text.hostapd_get_he_capab:0000000000000000 .L0 
C:\Users\stapi\AppData\Local\Temp\cckM1eOc.s:1115   .text.hostapd_get_he_capab:0000000000000000 .L0 
C:\Users\stapi\AppData\Local\Temp\cckM1eOc.s:1116   .text.hostapd_get_he_capab:0000000000000000 .L0 
C:\Users\stapi\AppData\Local\Temp\cckM1eOc.s:1120   .text.hostapd_get_he_capab:0000000000000004 .L0 
C:\Users\stapi\AppData\Local\Temp\cckM1eOc.s:1121   .text.hostapd_get_he_capab:0000000000000004 .L0 
C:\Users\stapi\AppData\Local\Temp\cckM1eOc.s:1129   .text.hostapd_get_he_capab:0000000000000016 .L0 
C:\Users\stapi\AppData\Local\Temp\cckM1eOc.s:1140   .text.copy_sta_he_capab:0000000000000000 copy_sta_he_capab
C:\Users\stapi\AppData\Local\Temp\cckM1eOc.s:1143   .text.copy_sta_he_capab:0000000000000000 .L0 
C:\Users\stapi\AppData\Local\Temp\cckM1eOc.s:1145   .text.copy_sta_he_capab:0000000000000000 .L0 
C:\Users\stapi\AppData\Local\Temp\cckM1eOc.s:1146   .text.copy_sta_he_capab:0000000000000008 .L0 
C:\Users\stapi\AppData\Local\Temp\cckM1eOc.s:1147   .text.copy_sta_he_capab:0000000000000008 .L0 
C:\Users\stapi\AppData\Local\Temp\cckM1eOc.s:1148   .text.copy_sta_he_capab:0000000000000008 .L0 
C:\Users\stapi\AppData\Local\Temp\cckM1eOc.s:1149   .text.copy_sta_he_capab:0000000000000008 .L0 
C:\Users\stapi\AppData\Local\Temp\cckM1eOc.s:1150   .text.copy_sta_he_capab:0000000000000008 .L0 
C:\Users\stapi\AppData\Local\Temp\cckM1eOc.s:1151   .text.copy_sta_he_capab:0000000000000008 .L0 
C:\Users\stapi\AppData\Local\Temp\cckM1eOc.s:1153   .text.copy_sta_he_capab:0000000000000008 .L0 
C:\Users\stapi\AppData\Local\Temp\cckM1eOc.s:1154   .text.copy_sta_he_capab:0000000000000008 .L0 
C:\Users\stapi\AppData\Local\Temp\cckM1eOc.s:1156   .text.copy_sta_he_capab:000000000000000a .L0 
C:\Users\stapi\AppData\Local\Temp\cckM1eOc.s:1158   .text.copy_sta_he_capab:000000000000000c .L0 
C:\Users\stapi\AppData\Local\Temp\cckM1eOc.s:1160   .text.copy_sta_he_capab:000000000000000e .L0 
C:\Users\stapi\AppData\Local\Temp\cckM1eOc.s:1162   .text.copy_sta_he_capab:0000000000000012 .L0 
C:\Users\stapi\AppData\Local\Temp\cckM1eOc.s:1164   .text.copy_sta_he_capab:0000000000000014 .L0 
C:\Users\stapi\AppData\Local\Temp\cckM1eOc.s:1166   .text.copy_sta_he_capab:0000000000000016 .L0 
C:\Users\stapi\AppData\Local\Temp\cckM1eOc.s:1169   .text.copy_sta_he_capab:000000000000001c .L0 
C:\Users\stapi\AppData\Local\Temp\cckM1eOc.s:1171   .text.copy_sta_he_capab:000000000000001e .L0 
C:\Users\stapi\AppData\Local\Temp\cckM1eOc.s:1181   .text.copy_sta_he_capab:000000000000002a .L0 
C:\Users\stapi\AppData\Local\Temp\cckM1eOc.s:1182   .text.copy_sta_he_capab:000000000000002a .L0 
C:\Users\stapi\AppData\Local\Temp\cckM1eOc.s:1183   .text.copy_sta_he_capab:000000000000002a .L0 
C:\Users\stapi\AppData\Local\Temp\cckM1eOc.s:1184   .text.copy_sta_he_capab:000000000000002a .L0 
C:\Users\stapi\AppData\Local\Temp\cckM1eOc.s:1185   .text.copy_sta_he_capab:000000000000002a .L0 
C:\Users\stapi\AppData\Local\Temp\cckM1eOc.s:1186   .text.copy_sta_he_capab:000000000000002a .L0 
C:\Users\stapi\AppData\Local\Temp\cckM1eOc.s:1188   .text.copy_sta_he_capab:000000000000002e .L0 
C:\Users\stapi\AppData\Local\Temp\cckM1eOc.s:1190   .text.copy_sta_he_capab:0000000000000030 .L0 
C:\Users\stapi\AppData\Local\Temp\cckM1eOc.s:1191   .text.copy_sta_he_capab:0000000000000030 .L0 
C:\Users\stapi\AppData\Local\Temp\cckM1eOc.s:1197   .text.copy_sta_he_capab:000000000000003a .L0 
C:\Users\stapi\AppData\Local\Temp\cckM1eOc.s:1198   .text.copy_sta_he_capab:000000000000003a .L0 
C:\Users\stapi\AppData\Local\Temp\cckM1eOc.s:1199   .text.copy_sta_he_capab:000000000000003a .L0 
C:\Users\stapi\AppData\Local\Temp\cckM1eOc.s:1202   .text.copy_sta_he_capab:000000000000003e .L0 
C:\Users\stapi\AppData\Local\Temp\cckM1eOc.s:1207   .text.copy_sta_he_capab:000000000000004a .L0 
C:\Users\stapi\AppData\Local\Temp\cckM1eOc.s:1211   .text.copy_sta_he_capab:000000000000004c .L0 
C:\Users\stapi\AppData\Local\Temp\cckM1eOc.s:1212   .text.copy_sta_he_capab:000000000000004c .L0 
C:\Users\stapi\AppData\Local\Temp\cckM1eOc.s:1219   .text.copy_sta_he_capab:0000000000000056 .L0 
C:\Users\stapi\AppData\Local\Temp\cckM1eOc.s:1222   .text.copy_sta_he_capab:0000000000000058 .L0 
C:\Users\stapi\AppData\Local\Temp\cckM1eOc.s:1224   .text.copy_sta_he_capab:000000000000005a .L0 
C:\Users\stapi\AppData\Local\Temp\cckM1eOc.s:1228   .text.copy_sta_he_capab:000000000000005c .L0 
C:\Users\stapi\AppData\Local\Temp\cckM1eOc.s:1233   .text.copy_sta_he_capab:000000000000005c .L0 
C:\Users\stapi\AppData\Local\Temp\cckM1eOc.s:1234   .text.copy_sta_he_capab:000000000000005c .L0 
C:\Users\stapi\AppData\Local\Temp\cckM1eOc.s:1247   .text.copy_sta_he_capab:000000000000006c .L0 
C:\Users\stapi\AppData\Local\Temp\cckM1eOc.s:1248   .text.copy_sta_he_capab:000000000000006c .L0 
C:\Users\stapi\AppData\Local\Temp\cckM1eOc.s:1256   .text.copy_sta_he_capab:0000000000000074 .L0 
C:\Users\stapi\AppData\Local\Temp\cckM1eOc.s:1257   .text.copy_sta_he_capab:0000000000000074 .L0 
C:\Users\stapi\AppData\Local\Temp\cckM1eOc.s:1258   .text.copy_sta_he_capab:0000000000000074 .L0 
C:\Users\stapi\AppData\Local\Temp\cckM1eOc.s:1262   .text.copy_sta_he_capab:0000000000000076 .L0 
C:\Users\stapi\AppData\Local\Temp\cckM1eOc.s:1263   .text.copy_sta_he_capab:0000000000000076 .L0 
C:\Users\stapi\AppData\Local\Temp\cckM1eOc.s:1265   .text.copy_sta_he_capab:000000000000007a .L0 
C:\Users\stapi\AppData\Local\Temp\cckM1eOc.s:1267   .text.copy_sta_he_capab:000000000000007e .L0 
C:\Users\stapi\AppData\Local\Temp\cckM1eOc.s:1269   .text.copy_sta_he_capab:0000000000000082 .L0 
C:\Users\stapi\AppData\Local\Temp\cckM1eOc.s:1270   .text.copy_sta_he_capab:0000000000000082 .L0 
C:\Users\stapi\AppData\Local\Temp\cckM1eOc.s:1272   .text.copy_sta_he_capab:0000000000000086 .L0 
C:\Users\stapi\AppData\Local\Temp\cckM1eOc.s:1274   .text.copy_sta_he_capab:000000000000008a .L0 
C:\Users\stapi\AppData\Local\Temp\cckM1eOc.s:1277   .text.copy_sta_he_capab:000000000000008e .L0 
C:\Users\stapi\AppData\Local\Temp\cckM1eOc.s:1278   .text.copy_sta_he_capab:000000000000008e .L0 
C:\Users\stapi\AppData\Local\Temp\cckM1eOc.s:1279   .text.copy_sta_he_capab:000000000000008e .L0 
C:\Users\stapi\AppData\Local\Temp\cckM1eOc.s:1283   .text.copy_sta_he_capab:0000000000000094 .L0 
C:\Users\stapi\AppData\Local\Temp\cckM1eOc.s:1284   .text.copy_sta_he_capab:0000000000000094 .L0 
C:\Users\stapi\AppData\Local\Temp\cckM1eOc.s:1287   .text.copy_sta_he_capab:0000000000000096 .L0 
C:\Users\stapi\AppData\Local\Temp\cckM1eOc.s:1288   .text.copy_sta_he_capab:0000000000000096 .L0 
C:\Users\stapi\AppData\Local\Temp\cckM1eOc.s:1292   .text.copy_sta_he_capab:000000000000009e .L0 
C:\Users\stapi\AppData\Local\Temp\cckM1eOc.s:1302   .text.copy_sta_he_capab:00000000000000b0 .L0 
C:\Users\stapi\AppData\Local\Temp\cckM1eOc.s:1303   .text.copy_sta_he_capab:00000000000000b0 .L0 
C:\Users\stapi\AppData\Local\Temp\cckM1eOc.s:1304   .text.copy_sta_he_capab:00000000000000b0 .L0 
C:\Users\stapi\AppData\Local\Temp\cckM1eOc.s:1306   .text.copy_sta_he_capab:00000000000000b2 .L0 
C:\Users\stapi\AppData\Local\Temp\cckM1eOc.s:1308   .text.copy_sta_he_capab:00000000000000b6 .L0 
C:\Users\stapi\AppData\Local\Temp\cckM1eOc.s:1311   .text.copy_sta_he_capab:00000000000000bc .L0 
C:\Users\stapi\AppData\Local\Temp\cckM1eOc.s:1314   .text.copy_sta_he_capab:00000000000000c4 .L0 
C:\Users\stapi\AppData\Local\Temp\cckM1eOc.s:1315   .text.copy_sta_he_capab:00000000000000c4 .L0 
C:\Users\stapi\AppData\Local\Temp\cckM1eOc.s:1319   .text.copy_sta_he_capab:00000000000000c8 .L0 
C:\Users\stapi\AppData\Local\Temp\cckM1eOc.s:1320   .text.copy_sta_he_capab:00000000000000c8 .L0 
C:\Users\stapi\AppData\Local\Temp\cckM1eOc.s:1321   .text.copy_sta_he_capab:00000000000000c8 .L0 
C:\Users\stapi\AppData\Local\Temp\cckM1eOc.s:1324   .text.copy_sta_he_capab:00000000000000ca .L0 
C:\Users\stapi\AppData\Local\Temp\cckM1eOc.s:1325   .text.copy_sta_he_capab:00000000000000d2 .L0 
C:\Users\stapi\AppData\Local\Temp\cckM1eOc.s:1326   .text.copy_sta_he_capab:00000000000000d2 .L0 
C:\Users\stapi\AppData\Local\Temp\cckM1eOc.s:1327   .text.copy_sta_he_capab:00000000000000d2 .L0 
C:\Users\stapi\AppData\Local\Temp\cckM1eOc.s:1328   .text.copy_sta_he_capab:00000000000000d2 .L0 
C:\Users\stapi\AppData\Local\Temp\cckM1eOc.s:1329   .text.copy_sta_he_capab:00000000000000d2 .L0 
C:\Users\stapi\AppData\Local\Temp\cckM1eOc.s:1330   .text.copy_sta_he_capab:00000000000000d2 .L0 
C:\Users\stapi\AppData\Local\Temp\cckM1eOc.s:1331   .text.copy_sta_he_capab:00000000000000d2 .L0 
C:\Users\stapi\AppData\Local\Temp\cckM1eOc.s:1334   .text.copy_sta_he_capab:00000000000000d2 .L0 
C:\Users\stapi\AppData\Local\Temp\cckM1eOc.s:1338   .text.copy_sta_he_capab:00000000000000d2 .L0 
C:\Users\stapi\AppData\Local\Temp\cckM1eOc.s:1339   .text.copy_sta_he_capab:00000000000000d2 .L0 
C:\Users\stapi\AppData\Local\Temp\cckM1eOc.s:1340   .text.copy_sta_he_capab:00000000000000d2 .L0 
C:\Users\stapi\AppData\Local\Temp\cckM1eOc.s:1341   .text.copy_sta_he_capab:00000000000000d2 .L0 
C:\Users\stapi\AppData\Local\Temp\cckM1eOc.s:1342   .text.copy_sta_he_capab:00000000000000d2 .L0 
C:\Users\stapi\AppData\Local\Temp\cckM1eOc.s:1343   .text.copy_sta_he_capab:00000000000000d2 .L0 
C:\Users\stapi\AppData\Local\Temp\cckM1eOc.s:1346   .text.copy_sta_he_capab:00000000000000d8 .L0 
C:\Users\stapi\AppData\Local\Temp\cckM1eOc.s:1351   .text.copy_sta_he_capab:00000000000000dc .L0 
C:\Users\stapi\AppData\Local\Temp\cckM1eOc.s:1352   .text.copy_sta_he_capab:00000000000000dc .L0 
C:\Users\stapi\AppData\Local\Temp\cckM1eOc.s:1353   .text.copy_sta_he_capab:00000000000000dc .L0 
C:\Users\stapi\AppData\Local\Temp\cckM1eOc.s:1355   .text.copy_sta_he_capab:00000000000000de .L0 
C:\Users\stapi\AppData\Local\Temp\cckM1eOc.s:1358   .text.copy_sta_he_capab:00000000000000e4 .L0 
C:\Users\stapi\AppData\Local\Temp\cckM1eOc.s:1362   .text.copy_sta_he_capab:00000000000000e6 .L0 
C:\Users\stapi\AppData\Local\Temp\cckM1eOc.s:1363   .text.copy_sta_he_capab:00000000000000e6 .L0 
C:\Users\stapi\AppData\Local\Temp\cckM1eOc.s:1366   .text.copy_sta_he_capab:00000000000000ea .L0 
C:\Users\stapi\AppData\Local\Temp\cckM1eOc.s:1367   .text.copy_sta_he_capab:00000000000000ea .L0 
C:\Users\stapi\AppData\Local\Temp\cckM1eOc.s:1375   .text.copy_sta_he_capab:00000000000000f0 .L0 
C:\Users\stapi\AppData\Local\Temp\cckM1eOc.s:1376   .text.copy_sta_he_capab:00000000000000f0 .L0 
C:\Users\stapi\AppData\Local\Temp\cckM1eOc.s:1380   .text.copy_sta_he_capab:00000000000000f6 .L0 
C:\Users\stapi\AppData\Local\Temp\cckM1eOc.s:1381   .text.copy_sta_he_capab:00000000000000f6 .L0 
C:\Users\stapi\AppData\Local\Temp\cckM1eOc.s:1383   .text.copy_sta_he_capab:00000000000000fa .L0 
C:\Users\stapi\AppData\Local\Temp\cckM1eOc.s:1384   .text.copy_sta_he_capab:00000000000000fa .L0 
C:\Users\stapi\AppData\Local\Temp\cckM1eOc.s:1390   .text.copy_sta_he_capab:0000000000000102 .L0 
C:\Users\stapi\AppData\Local\Temp\cckM1eOc.s:1391   .text.copy_sta_he_capab:0000000000000102 .L0 
C:\Users\stapi\AppData\Local\Temp\cckM1eOc.s:1392   .text.copy_sta_he_capab:0000000000000102 .L0 
C:\Users\stapi\AppData\Local\Temp\cckM1eOc.s:1394   .text.copy_sta_he_capab:0000000000000106 .L0 
C:\Users\stapi\AppData\Local\Temp\cckM1eOc.s:1396   .text.copy_sta_he_capab:0000000000000108 .L0 
C:\Users\stapi\AppData\Local\Temp\cckM1eOc.s:1405   .text.copy_sta_he_capab:0000000000000116 .L0 
C:\Users\stapi\AppData\Local\Temp\cckM1eOc.s:1406   .text.copy_sta_he_capab:0000000000000116 .L0 
C:\Users\stapi\AppData\Local\Temp\cckM1eOc.s:1410   .text.copy_sta_he_capab:0000000000000118 .L0 
C:\Users\stapi\AppData\Local\Temp\cckM1eOc.s:1412   .text.copy_sta_he_capab:000000000000011c .L0 
C:\Users\stapi\AppData\Local\Temp\cckM1eOc.s:1414   .text.copy_sta_he_capab:0000000000000120 .L0 
C:\Users\stapi\AppData\Local\Temp\cckM1eOc.s:1417   .text.copy_sta_he_capab:0000000000000128 .L0 
C:\Users\stapi\AppData\Local\Temp\cckM1eOc.s:1418   .text.copy_sta_he_capab:0000000000000128 .L0 
C:\Users\stapi\AppData\Local\Temp\cckM1eOc.s:1421   .text.copy_sta_he_capab:000000000000012a .L0 
C:\Users\stapi\AppData\Local\Temp\cckM1eOc.s:1422   .text.copy_sta_he_capab:000000000000012a .L0 
C:\Users\stapi\AppData\Local\Temp\cckM1eOc.s:1424   .text.copy_sta_he_capab:000000000000012c .L0 
C:\Users\stapi\AppData\Local\Temp\cckM1eOc.s:1427   .text.copy_sta_he_capab:0000000000000132 .L0 
C:\Users\stapi\AppData\Local\Temp\cckM1eOc.s:1430   .text.copy_sta_he_capab:0000000000000138 .L0 
C:\Users\stapi\AppData\Local\Temp\cckM1eOc.s:1436   .text.copy_sta_he_capab:0000000000000146 .L0 
C:\Users\stapi\AppData\Local\Temp\cckM1eOc.s:1442   .text.copy_sta_he_capab:0000000000000154 .L0 
C:\Users\stapi\AppData\Local\Temp\cckM1eOc.s:1443   .text.copy_sta_he_capab:0000000000000154 .L0 
C:\Users\stapi\AppData\Local\Temp\cckM1eOc.s:1448   .text.copy_sta_he_capab:000000000000015a .L0 
C:\Users\stapi\AppData\Local\Temp\cckM1eOc.s:1449   .text.copy_sta_he_capab:000000000000015a .L0 
C:\Users\stapi\AppData\Local\Temp\cckM1eOc.s:1453   .text.copy_sta_he_capab:0000000000000166 .L0 
C:\Users\stapi\AppData\Local\Temp\cckM1eOc.s:1455   .text.copy_sta_he_capab:000000000000016a .L0 
C:\Users\stapi\AppData\Local\Temp\cckM1eOc.s:1456   .text.copy_sta_he_capab:000000000000016a .L0 
C:\Users\stapi\AppData\Local\Temp\cckM1eOc.s:1458   .text.copy_sta_he_capab:000000000000016c .L0 
C:\Users\stapi\AppData\Local\Temp\cckM1eOc.s:1460   .text.copy_sta_he_capab:0000000000000170 .L0 
C:\Users\stapi\AppData\Local\Temp\cckM1eOc.s:1467   .text.copy_sta_he_6ghz_capab:0000000000000000 copy_sta_he_6ghz_capab
C:\Users\stapi\AppData\Local\Temp\cckM1eOc.s:1470   .text.copy_sta_he_6ghz_capab:0000000000000000 .L0 
C:\Users\stapi\AppData\Local\Temp\cckM1eOc.s:1472   .text.copy_sta_he_6ghz_capab:0000000000000000 .L0 
C:\Users\stapi\AppData\Local\Temp\cckM1eOc.s:1473   .text.copy_sta_he_6ghz_capab:0000000000000008 .L0 
C:\Users\stapi\AppData\Local\Temp\cckM1eOc.s:1474   .text.copy_sta_he_6ghz_capab:0000000000000008 .L0 
C:\Users\stapi\AppData\Local\Temp\cckM1eOc.s:1475   .text.copy_sta_he_6ghz_capab:0000000000000008 .L0 
C:\Users\stapi\AppData\Local\Temp\cckM1eOc.s:1476   .text.copy_sta_he_6ghz_capab:0000000000000008 .L0 
C:\Users\stapi\AppData\Local\Temp\cckM1eOc.s:1478   .text.copy_sta_he_6ghz_capab:0000000000000008 .L0 
C:\Users\stapi\AppData\Local\Temp\cckM1eOc.s:1479   .text.copy_sta_he_6ghz_capab:0000000000000008 .L0 
C:\Users\stapi\AppData\Local\Temp\cckM1eOc.s:1481   .text.copy_sta_he_6ghz_capab:000000000000000a .L0 
C:\Users\stapi\AppData\Local\Temp\cckM1eOc.s:1485   .text.copy_sta_he_6ghz_capab:000000000000000c .L0 
C:\Users\stapi\AppData\Local\Temp\cckM1eOc.s:1486   .text.copy_sta_he_6ghz_capab:000000000000000c .L0 
C:\Users\stapi\AppData\Local\Temp\cckM1eOc.s:1488   .text.copy_sta_he_6ghz_capab:000000000000000e .L0 
C:\Users\stapi\AppData\Local\Temp\cckM1eOc.s:1490   .text.copy_sta_he_6ghz_capab:0000000000000012 .L0 
C:\Users\stapi\AppData\Local\Temp\cckM1eOc.s:1493   .text.copy_sta_he_6ghz_capab:0000000000000018 .L0 
C:\Users\stapi\AppData\Local\Temp\cckM1eOc.s:1496   .text.copy_sta_he_6ghz_capab:0000000000000020 .L0 
C:\Users\stapi\AppData\Local\Temp\cckM1eOc.s:1497   .text.copy_sta_he_6ghz_capab:0000000000000020 .L0 
C:\Users\stapi\AppData\Local\Temp\cckM1eOc.s:1500   .text.copy_sta_he_6ghz_capab:0000000000000024 .L0 
C:\Users\stapi\AppData\Local\Temp\cckM1eOc.s:1501   .text.copy_sta_he_6ghz_capab:0000000000000024 .L0 
C:\Users\stapi\AppData\Local\Temp\cckM1eOc.s:1502   .text.copy_sta_he_6ghz_capab:0000000000000024 .L0 
C:\Users\stapi\AppData\Local\Temp\cckM1eOc.s:1505   .text.copy_sta_he_6ghz_capab:0000000000000026 .L0 
C:\Users\stapi\AppData\Local\Temp\cckM1eOc.s:1506   .text.copy_sta_he_6ghz_capab:000000000000002e .L0 
C:\Users\stapi\AppData\Local\Temp\cckM1eOc.s:1507   .text.copy_sta_he_6ghz_capab:000000000000002e .L0 
C:\Users\stapi\AppData\Local\Temp\cckM1eOc.s:1508   .text.copy_sta_he_6ghz_capab:000000000000002e .L0 
C:\Users\stapi\AppData\Local\Temp\cckM1eOc.s:1509   .text.copy_sta_he_6ghz_capab:000000000000002e .L0 
C:\Users\stapi\AppData\Local\Temp\cckM1eOc.s:1510   .text.copy_sta_he_6ghz_capab:000000000000002e .L0 
C:\Users\stapi\AppData\Local\Temp\cckM1eOc.s:1513   .text.copy_sta_he_6ghz_capab:000000000000002e .L0 
C:\Users\stapi\AppData\Local\Temp\cckM1eOc.s:1515   .text.copy_sta_he_6ghz_capab:000000000000002e .L0 
C:\Users\stapi\AppData\Local\Temp\cckM1eOc.s:1517   .text.copy_sta_he_6ghz_capab:0000000000000030 .L0 
C:\Users\stapi\AppData\Local\Temp\cckM1eOc.s:1520   .text.copy_sta_he_6ghz_capab:0000000000000036 .L0 
C:\Users\stapi\AppData\Local\Temp\cckM1eOc.s:1522   .text.copy_sta_he_6ghz_capab:0000000000000038 .L0 
C:\Users\stapi\AppData\Local\Temp\cckM1eOc.s:1525   .text.copy_sta_he_6ghz_capab:000000000000003e .L0 
C:\Users\stapi\AppData\Local\Temp\cckM1eOc.s:1531   .text.copy_sta_he_6ghz_capab:000000000000004c .L0 
C:\Users\stapi\AppData\Local\Temp\cckM1eOc.s:1533   .text.copy_sta_he_6ghz_capab:000000000000004e .L0 
C:\Users\stapi\AppData\Local\Temp\cckM1eOc.s:1534   .text.copy_sta_he_6ghz_capab:000000000000004e .L0 
C:\Users\stapi\AppData\Local\Temp\cckM1eOc.s:1538   .text.copy_sta_he_6ghz_capab:0000000000000054 .L0 
C:\Users\stapi\AppData\Local\Temp\cckM1eOc.s:1539   .text.copy_sta_he_6ghz_capab:0000000000000054 .L0 
C:\Users\stapi\AppData\Local\Temp\cckM1eOc.s:1541   .text.copy_sta_he_6ghz_capab:0000000000000056 .L0 
C:\Users\stapi\AppData\Local\Temp\cckM1eOc.s:1544   .text.copy_sta_he_6ghz_capab:000000000000005c .L0 
C:\Users\stapi\AppData\Local\Temp\cckM1eOc.s:1546   .text.copy_sta_he_6ghz_capab:0000000000000060 .L0 
C:\Users\stapi\AppData\Local\Temp\cckM1eOc.s:1548   .text.copy_sta_he_6ghz_capab:0000000000000062 .L0 
C:\Users\stapi\AppData\Local\Temp\cckM1eOc.s:1550   .text.copy_sta_he_6ghz_capab:0000000000000064 .L0 
C:\Users\stapi\AppData\Local\Temp\cckM1eOc.s:1555   .text.copy_sta_he_6ghz_capab:000000000000006e .L0 
C:\Users\stapi\AppData\Local\Temp\cckM1eOc.s:1556   .text.copy_sta_he_6ghz_capab:000000000000006e .L0 
C:\Users\stapi\AppData\Local\Temp\cckM1eOc.s:1560   .text.copy_sta_he_6ghz_capab:0000000000000078 .L0 
C:\Users\stapi\AppData\Local\Temp\cckM1eOc.s:1562   .text.copy_sta_he_6ghz_capab:000000000000007c .L0 
C:\Users\stapi\AppData\Local\Temp\cckM1eOc.s:1563   .text.copy_sta_he_6ghz_capab:000000000000007c .L0 
C:\Users\stapi\AppData\Local\Temp\cckM1eOc.s:1565   .text.copy_sta_he_6ghz_capab:000000000000007e .L0 
C:\Users\stapi\AppData\Local\Temp\cckM1eOc.s:1567   .text.copy_sta_he_6ghz_capab:0000000000000082 .L0 
C:\Users\stapi\AppData\Local\Temp\cckM1eOc.s:1574   .text.hostapd_get_he_twt_responder:0000000000000000 hostapd_get_he_twt_responder
C:\Users\stapi\AppData\Local\Temp\cckM1eOc.s:1577   .text.hostapd_get_he_twt_responder:0000000000000000 .L0 
C:\Users\stapi\AppData\Local\Temp\cckM1eOc.s:1579   .text.hostapd_get_he_twt_responder:0000000000000000 .L0 
C:\Users\stapi\AppData\Local\Temp\cckM1eOc.s:1580   .text.hostapd_get_he_twt_responder:0000000000000000 .L0 
C:\Users\stapi\AppData\Local\Temp\cckM1eOc.s:1581   .text.hostapd_get_he_twt_responder:0000000000000000 .L0 
C:\Users\stapi\AppData\Local\Temp\cckM1eOc.s:1582   .text.hostapd_get_he_twt_responder:0000000000000000 .L0 
C:\Users\stapi\AppData\Local\Temp\cckM1eOc.s:1584   .text.hostapd_get_he_twt_responder:0000000000000002 .L0 
C:\Users\stapi\AppData\Local\Temp\cckM1eOc.s:1586   .text.hostapd_get_he_twt_responder:0000000000000006 .L0 
C:\Users\stapi\AppData\Local\Temp\cckM1eOc.s:1588   .text.hostapd_get_he_twt_responder:0000000000000008 .L0 
C:\Users\stapi\AppData\Local\Temp\cckM1eOc.s:1591   .text.hostapd_get_he_twt_responder:0000000000000010 .L0 
C:\Users\stapi\AppData\Local\Temp\cckM1eOc.s:1593   .text.hostapd_get_he_twt_responder:0000000000000014 .L0 
C:\Users\stapi\AppData\Local\Temp\cckM1eOc.s:1596   .text.hostapd_get_he_twt_responder:0000000000000016 .L0 
C:\Users\stapi\AppData\Local\Temp\cckM1eOc.s:1598   .text.hostapd_get_he_twt_responder:0000000000000018 .L0 
C:\Users\stapi\AppData\Local\Temp\cckM1eOc.s:1599   .text.hostapd_get_he_twt_responder:0000000000000018 .L0 
C:\Users\stapi\AppData\Local\Temp\cckM1eOc.s:1600   .text.hostapd_get_he_twt_responder:0000000000000018 .L0 
C:\Users\stapi\AppData\Local\Temp\cckM1eOc.s:1604   .text.hostapd_get_he_twt_responder:0000000000000020 .L0 
C:\Users\stapi\AppData\Local\Temp\cckM1eOc.s:1606   .text.hostapd_get_he_twt_responder:0000000000000022 .L0 
C:\Users\stapi\AppData\Local\Temp\cckM1eOc.s:1612   .text.hostapd_get_he_twt_responder:000000000000002c .L0 
C:\Users\stapi\AppData\Local\Temp\cckM1eOc.s:1616   .text.hostapd_get_he_twt_responder:000000000000002e .L0 
C:\Users\stapi\AppData\Local\Temp\cckM1eOc.s:1617   .text.hostapd_get_he_twt_responder:0000000000000030 .L0 
C:\Users\stapi\AppData\Local\Temp\cckM1eOc.s:78     .text.ieee80211_he_ppet_size.part.0:0000000000000032 .L0 
C:\Users\stapi\AppData\Local\Temp\cckM1eOc.s:350    .text.hostapd_eid_he_capab:0000000000000164 .L0 
C:\Users\stapi\AppData\Local\Temp\cckM1eOc.s:672    .text.hostapd_eid_he_operation:0000000000000164 .L0 
C:\Users\stapi\AppData\Local\Temp\cckM1eOc.s:782    .text.hostapd_eid_he_mu_edca_parameter_set:0000000000000072 .L0 
C:\Users\stapi\AppData\Local\Temp\cckM1eOc.s:953    .text.hostapd_eid_spatial_reuse:00000000000000be .L0 
C:\Users\stapi\AppData\Local\Temp\cckM1eOc.s:1105   .text.hostapd_eid_he_6ghz_band_cap:00000000000000a0 .L0 
C:\Users\stapi\AppData\Local\Temp\cckM1eOc.s:1132   .text.hostapd_get_he_capab:0000000000000016 .L0 
C:\Users\stapi\AppData\Local\Temp\cckM1eOc.s:1463   .text.copy_sta_he_capab:0000000000000170 .L0 
C:\Users\stapi\AppData\Local\Temp\cckM1eOc.s:1570   .text.copy_sta_he_6ghz_capab:0000000000000082 .L0 
C:\Users\stapi\AppData\Local\Temp\cckM1eOc.s:1620   .text.hostapd_get_he_twt_responder:0000000000000030 .L0 
                     .debug_frame:0000000000000000 .L0 
C:\Users\stapi\AppData\Local\Temp\cckM1eOc.s:58     .text.ieee80211_he_ppet_size.part.0:0000000000000022 .L4
C:\Users\stapi\AppData\Local\Temp\cckM1eOc.s:69     .text.ieee80211_he_ppet_size.part.0:000000000000002e .L3
C:\Users\stapi\AppData\Local\Temp\cckM1eOc.s:27     .text.ieee80211_he_ppet_size.part.0:0000000000000008 .L2
C:\Users\stapi\AppData\Local\Temp\cckM1eOc.s:313    .text.hostapd_eid_he_capab:0000000000000142 .L9
C:\Users\stapi\AppData\Local\Temp\cckM1eOc.s:147    .text.hostapd_eid_he_capab:0000000000000040 .L10
C:\Users\stapi\AppData\Local\Temp\cckM1eOc.s:331    .text.hostapd_eid_he_capab:000000000000014c .L22
C:\Users\stapi\AppData\Local\Temp\cckM1eOc.s:338    .text.hostapd_eid_he_capab:0000000000000154 .L23
C:\Users\stapi\AppData\Local\Temp\cckM1eOc.s:343    .text.hostapd_eid_he_capab:000000000000015c .L24
C:\Users\stapi\AppData\Local\Temp\cckM1eOc.s:258    .text.hostapd_eid_he_capab:00000000000000f2 .L14
C:\Users\stapi\AppData\Local\Temp\cckM1eOc.s:274    .text.hostapd_eid_he_capab:000000000000010a .L16
C:\Users\stapi\AppData\Local\Temp\cckM1eOc.s:288    .text.hostapd_eid_he_capab:0000000000000120 .L18
C:\Users\stapi\AppData\Local\Temp\cckM1eOc.s:299    .text.hostapd_eid_he_capab:000000000000012e .L20
C:\Users\stapi\AppData\Local\Temp\cckM1eOc.s:165    .text.hostapd_eid_he_capab:000000000000005c .L11
C:\Users\stapi\AppData\Local\Temp\cckM1eOc.s:175    .text.hostapd_eid_he_capab:0000000000000062 .L12
C:\Users\stapi\AppData\Local\Temp\cckM1eOc.s:181    .text.hostapd_eid_he_capab:0000000000000066 .L13
C:\Users\stapi\AppData\Local\Temp\cckM1eOc.s:618    .text.hostapd_eid_he_operation:000000000000013a .L33
C:\Users\stapi\AppData\Local\Temp\cckM1eOc.s:395    .text.hostapd_eid_he_operation:000000000000002a .L34
C:\Users\stapi\AppData\Local\Temp\cckM1eOc.s:439    .text.hostapd_eid_he_operation:0000000000000062 .L35
C:\Users\stapi\AppData\Local\Temp\cckM1eOc.s:451    .text.hostapd_eid_he_operation:000000000000006c .L36
C:\Users\stapi\AppData\Local\Temp\cckM1eOc.s:460    .text.hostapd_eid_he_operation:0000000000000076 .L37
C:\Users\stapi\AppData\Local\Temp\cckM1eOc.s:470    .text.hostapd_eid_he_operation:0000000000000082 .L38
C:\Users\stapi\AppData\Local\Temp\cckM1eOc.s:479    .text.hostapd_eid_he_operation:000000000000008c .L39
C:\Users\stapi\AppData\Local\Temp\cckM1eOc.s:603    .text.hostapd_eid_he_operation:000000000000011c .L41
C:\Users\stapi\AppData\Local\Temp\cckM1eOc.s:631    .text.hostapd_eid_he_operation:0000000000000144 .L42
C:\Users\stapi\AppData\Local\Temp\cckM1eOc.s:546    .text.hostapd_eid_he_operation:00000000000000d8 .L44
C:\Users\stapi\AppData\Local\Temp\cckM1eOc.s:651    .text.hostapd_eid_he_operation:000000000000014e .L45
C:\Users\stapi\AppData\Local\Temp\cckM1eOc.s:586    .text.hostapd_eid_he_operation:000000000000010a .L47
C:\Users\stapi\AppData\Local\Temp\cckM1eOc.s:663    .text.hostapd_eid_he_operation:000000000000015e .L48
C:\Users\stapi\AppData\Local\Temp\cckM1eOc.s:534    .text.hostapd_eid_he_operation:00000000000000ce .L43
C:\Users\stapi\AppData\Local\Temp\cckM1eOc.s:563    .text.hostapd_eid_he_operation:00000000000000ea .L46
C:\Users\stapi\AppData\Local\Temp\cckM1eOc.s:580    .text.hostapd_eid_he_operation:0000000000000104 .L71
C:\Users\stapi\AppData\Local\Temp\cckM1eOc.s:674    .rodata.hostapd_eid_he_mu_edca_parameter_set.str1.4:0000000000000000 .LC0
C:\Users\stapi\AppData\Local\Temp\cckM1eOc.s:729    .text.hostapd_eid_he_mu_edca_parameter_set:000000000000002c .L73
C:\Users\stapi\AppData\Local\Temp\cckM1eOc.s:706    .text.hostapd_eid_he_mu_edca_parameter_set:0000000000000016 .L74
C:\Users\stapi\AppData\Local\Temp\cckM1eOc.s:719    .text.hostapd_eid_he_mu_edca_parameter_set:0000000000000022 .L77
C:\Users\stapi\AppData\Local\Temp\cckM1eOc.s:927    .text.hostapd_eid_spatial_reuse:00000000000000a8 .L80
C:\Users\stapi\AppData\Local\Temp\cckM1eOc.s:828    .text.hostapd_eid_spatial_reuse:0000000000000026 .L82
C:\Users\stapi\AppData\Local\Temp\cckM1eOc.s:937    .text.hostapd_eid_spatial_reuse:00000000000000b2 .L83
C:\Users\stapi\AppData\Local\Temp\cckM1eOc.s:874    .text.hostapd_eid_spatial_reuse:000000000000005e .L84
C:\Users\stapi\AppData\Local\Temp\cckM1eOc.s:1081   .text.hostapd_eid_he_6ghz_band_cap:000000000000008c .L98
C:\Users\stapi\AppData\Local\Temp\cckM1eOc.s:1093   .text.hostapd_eid_he_6ghz_band_cap:0000000000000096 .L100
C:\Users\stapi\AppData\Local\Temp\cckM1eOc.s:1049   .text.hostapd_eid_he_6ghz_band_cap:000000000000006c .L102
C:\Users\stapi\AppData\Local\Temp\cckM1eOc.s:1040   .text.hostapd_eid_he_6ghz_band_cap:0000000000000062 .L101
C:\Users\stapi\AppData\Local\Temp\cckM1eOc.s:1127   .text.hostapd_get_he_capab:0000000000000014 .L119
C:\Users\stapi\AppData\Local\Temp\cckM1eOc.s:1134   .rodata.copy_sta_he_capab.str1.4:0000000000000000 .LC1
C:\Users\stapi\AppData\Local\Temp\cckM1eOc.s:1299   .text.copy_sta_he_capab:00000000000000b0 .L123
C:\Users\stapi\AppData\Local\Temp\cckM1eOc.s:1333   .text.copy_sta_he_capab:00000000000000d2 .L124
C:\Users\stapi\AppData\Local\Temp\cckM1eOc.s:1208   .text.copy_sta_he_capab:000000000000004c .L125
C:\Users\stapi\AppData\Local\Temp\cckM1eOc.s:1275   .text.copy_sta_he_capab:000000000000008e .L126
C:\Users\stapi\AppData\Local\Temp\cckM1eOc.s:1260   .text.copy_sta_he_capab:0000000000000076 .L127
C:\Users\stapi\AppData\Local\Temp\cckM1eOc.s:1226   .text.copy_sta_he_capab:000000000000005c .L128
C:\Users\stapi\AppData\Local\Temp\cckM1eOc.s:1359   .text.copy_sta_he_capab:00000000000000e6 .L129
C:\Users\stapi\AppData\Local\Temp\cckM1eOc.s:1371   .text.copy_sta_he_capab:00000000000000f0 .L130
C:\Users\stapi\AppData\Local\Temp\cckM1eOc.s:1400   .text.copy_sta_he_capab:0000000000000116 .L131
C:\Users\stapi\AppData\Local\Temp\cckM1eOc.s:1446   .text.copy_sta_he_capab:000000000000015a .L134
C:\Users\stapi\AppData\Local\Temp\cckM1eOc.s:1318   .text.copy_sta_he_capab:00000000000000c8 .L158
C:\Users\stapi\AppData\Local\Temp\cckM1eOc.s:1419   .text.copy_sta_he_capab:000000000000012a .L135
C:\Users\stapi\AppData\Local\Temp\cckM1eOc.s:1322   .text.copy_sta_he_capab:00000000000000ca .L133
C:\Users\stapi\AppData\Local\Temp\cckM1eOc.s:1512   .text.copy_sta_he_6ghz_capab:000000000000002e .L160
C:\Users\stapi\AppData\Local\Temp\cckM1eOc.s:1483   .text.copy_sta_he_6ghz_capab:000000000000000c .L162
C:\Users\stapi\AppData\Local\Temp\cckM1eOc.s:1553   .text.copy_sta_he_6ghz_capab:000000000000006e .L163
C:\Users\stapi\AppData\Local\Temp\cckM1eOc.s:1499   .text.copy_sta_he_6ghz_capab:0000000000000024 .L172
C:\Users\stapi\AppData\Local\Temp\cckM1eOc.s:1536   .text.copy_sta_he_6ghz_capab:0000000000000054 .L164
C:\Users\stapi\AppData\Local\Temp\cckM1eOc.s:1503   .text.copy_sta_he_6ghz_capab:0000000000000026 .L161
C:\Users\stapi\AppData\Local\Temp\cckM1eOc.s:1610   .text.hostapd_get_he_twt_responder:000000000000002c .L175
C:\Users\stapi\AppData\Local\Temp\cckM1eOc.s:1614   .text.hostapd_get_he_twt_responder:000000000000002e .L173
C:\Users\stapi\AppData\Local\Temp\cckM1eOc.s:17489  .debug_abbrev:0000000000000000 .Ldebug_abbrev0
C:\Users\stapi\AppData\Local\Temp\cckM1eOc.s:22366  .debug_str:0000000000003278 .LASF1536
C:\Users\stapi\AppData\Local\Temp\cckM1eOc.s:23118  .debug_str:000000000000491b .LASF1537
C:\Users\stapi\AppData\Local\Temp\cckM1eOc.s:23518  .debug_str:0000000000005561 .LASF1538
C:\Users\stapi\AppData\Local\Temp\cckM1eOc.s:20574  .debug_ranges:0000000000000000 .Ldebug_ranges0
C:\Users\stapi\AppData\Local\Temp\cckM1eOc.s:20638  .debug_line:0000000000000000 .Ldebug_line0
C:\Users\stapi\AppData\Local\Temp\cckM1eOc.s:21076  .debug_str:0000000000000cbe .LASF1
C:\Users\stapi\AppData\Local\Temp\cckM1eOc.s:23710  .debug_str:0000000000005b99 .LASF0
C:\Users\stapi\AppData\Local\Temp\cckM1eOc.s:21872  .debug_str:000000000000237c .LASF2
C:\Users\stapi\AppData\Local\Temp\cckM1eOc.s:23050  .debug_str:000000000000471a .LASF3
C:\Users\stapi\AppData\Local\Temp\cckM1eOc.s:21234  .debug_str:000000000000113b .LASF4
C:\Users\stapi\AppData\Local\Temp\cckM1eOc.s:22148  .debug_str:0000000000002bc9 .LASF5
C:\Users\stapi\AppData\Local\Temp\cckM1eOc.s:22652  .debug_str:0000000000003c17 .LASF6
C:\Users\stapi\AppData\Local\Temp\cckM1eOc.s:21588  .debug_str:0000000000001b3c .LASF7
C:\Users\stapi\AppData\Local\Temp\cckM1eOc.s:22010  .debug_str:00000000000027f9 .LASF8
C:\Users\stapi\AppData\Local\Temp\cckM1eOc.s:22758  .debug_str:0000000000003ee0 .LASF9
C:\Users\stapi\AppData\Local\Temp\cckM1eOc.s:22754  .debug_str:0000000000003ecb .LASF10
C:\Users\stapi\AppData\Local\Temp\cckM1eOc.s:22324  .debug_str:0000000000003133 .LASF11
C:\Users\stapi\AppData\Local\Temp\cckM1eOc.s:20676  .debug_str:000000000000010c .LASF12
C:\Users\stapi\AppData\Local\Temp\cckM1eOc.s:20646  .debug_str:0000000000000040 .LASF13
C:\Users\stapi\AppData\Local\Temp\cckM1eOc.s:23114  .debug_str:0000000000004900 .LASF14
C:\Users\stapi\AppData\Local\Temp\cckM1eOc.s:23194  .debug_str:0000000000004bca .LASF15
C:\Users\stapi\AppData\Local\Temp\cckM1eOc.s:23358  .debug_str:00000000000050b0 .LASF16
C:\Users\stapi\AppData\Local\Temp\cckM1eOc.s:23134  .debug_str:0000000000004a21 .LASF17
C:\Users\stapi\AppData\Local\Temp\cckM1eOc.s:22070  .debug_str:00000000000029a7 .LASF18
C:\Users\stapi\AppData\Local\Temp\cckM1eOc.s:23172  .debug_str:0000000000004b33 .LASF19
C:\Users\stapi\AppData\Local\Temp\cckM1eOc.s:23656  .debug_str:00000000000059ea .LASF20
C:\Users\stapi\AppData\Local\Temp\cckM1eOc.s:20862  .debug_str:00000000000006a2 .LASF21
C:\Users\stapi\AppData\Local\Temp\cckM1eOc.s:21628  .debug_str:0000000000001c55 .LASF22
C:\Users\stapi\AppData\Local\Temp\cckM1eOc.s:21806  .debug_str:000000000000217d .LASF23
C:\Users\stapi\AppData\Local\Temp\cckM1eOc.s:21682  .debug_str:0000000000001dbb .LASF24
C:\Users\stapi\AppData\Local\Temp\cckM1eOc.s:22226  .debug_str:0000000000002e30 .LASF25
C:\Users\stapi\AppData\Local\Temp\cckM1eOc.s:21382  .debug_str:000000000000156e .LASF27
C:\Users\stapi\AppData\Local\Temp\cckM1eOc.s:21016  .debug_str:0000000000000ade .LASF29
C:\Users\stapi\AppData\Local\Temp\cckM1eOc.s:21802  .debug_str:0000000000002160 .LASF26
C:\Users\stapi\AppData\Local\Temp\cckM1eOc.s:21946  .debug_str:00000000000025ce .LASF28
C:\Users\stapi\AppData\Local\Temp\cckM1eOc.s:23320  .debug_str:0000000000004f99 .LASF30
C:\Users\stapi\AppData\Local\Temp\cckM1eOc.s:21554  .debug_str:0000000000001a62 .LASF31
C:\Users\stapi\AppData\Local\Temp\cckM1eOc.s:21044  .debug_str:0000000000000bc2 .LASF32
C:\Users\stapi\AppData\Local\Temp\cckM1eOc.s:21618  .debug_str:0000000000001c0c .LASF33
C:\Users\stapi\AppData\Local\Temp\cckM1eOc.s:20742  .debug_str:0000000000000330 .LASF34
C:\Users\stapi\AppData\Local\Temp\cckM1eOc.s:21006  .debug_str:0000000000000a89 .LASF35
C:\Users\stapi\AppData\Local\Temp\cckM1eOc.s:23322  .debug_str:0000000000004f9e .LASF36
C:\Users\stapi\AppData\Local\Temp\cckM1eOc.s:23318  .debug_str:0000000000004f93 .LASF37
C:\Users\stapi\AppData\Local\Temp\cckM1eOc.s:22628  .debug_str:0000000000003b65 .LASF38
C:\Users\stapi\AppData\Local\Temp\cckM1eOc.s:22128  .debug_str:0000000000002b3d .LASF39
C:\Users\stapi\AppData\Local\Temp\cckM1eOc.s:22234  .debug_str:0000000000002e81 .LASF40
C:\Users\stapi\AppData\Local\Temp\cckM1eOc.s:22186  .debug_str:0000000000002d0c .LASF41
C:\Users\stapi\AppData\Local\Temp\cckM1eOc.s:21640  .debug_str:0000000000001c96 .LASF42
C:\Users\stapi\AppData\Local\Temp\cckM1eOc.s:22894  .debug_str:000000000000428a .LASF43
C:\Users\stapi\AppData\Local\Temp\cckM1eOc.s:23434  .debug_str:00000000000052f5 .LASF89
C:\Users\stapi\AppData\Local\Temp\cckM1eOc.s:21120  .debug_str:0000000000000de3 .LASF44
C:\Users\stapi\AppData\Local\Temp\cckM1eOc.s:22914  .debug_str:0000000000004315 .LASF45
C:\Users\stapi\AppData\Local\Temp\cckM1eOc.s:22084  .debug_str:00000000000029fb .LASF46
C:\Users\stapi\AppData\Local\Temp\cckM1eOc.s:23570  .debug_str:000000000000574f .LASF47
C:\Users\stapi\AppData\Local\Temp\cckM1eOc.s:22052  .debug_str:0000000000002918 .LASF48
C:\Users\stapi\AppData\Local\Temp\cckM1eOc.s:21996  .debug_str:0000000000002796 .LASF49
C:\Users\stapi\AppData\Local\Temp\cckM1eOc.s:23264  .debug_str:0000000000004e01 .LASF50
C:\Users\stapi\AppData\Local\Temp\cckM1eOc.s:23502  .debug_str:00000000000054fb .LASF51
C:\Users\stapi\AppData\Local\Temp\cckM1eOc.s:21100  .debug_str:0000000000000d58 .LASF52
C:\Users\stapi\AppData\Local\Temp\cckM1eOc.s:21178  .debug_str:0000000000000f9c .LASF53
C:\Users\stapi\AppData\Local\Temp\cckM1eOc.s:22908  .debug_str:00000000000042e7 .LASF54
C:\Users\stapi\AppData\Local\Temp\cckM1eOc.s:22676  .debug_str:0000000000003ca6 .LASF55
C:\Users\stapi\AppData\Local\Temp\cckM1eOc.s:20726  .debug_str:00000000000002ab .LASF56
C:\Users\stapi\AppData\Local\Temp\cckM1eOc.s:21928  .debug_str:0000000000002555 .LASF57
C:\Users\stapi\AppData\Local\Temp\cckM1eOc.s:23494  .debug_str:00000000000054bb .LASF58
C:\Users\stapi\AppData\Local\Temp\cckM1eOc.s:21028  .debug_str:0000000000000b31 .LASF59
C:\Users\stapi\AppData\Local\Temp\cckM1eOc.s:23408  .debug_str:0000000000005243 .LASF60
C:\Users\stapi\AppData\Local\Temp\cckM1eOc.s:22962  .debug_str:0000000000004496 .LASF61
C:\Users\stapi\AppData\Local\Temp\cckM1eOc.s:22076  .debug_str:00000000000029c6 .LASF62
C:\Users\stapi\AppData\Local\Temp\cckM1eOc.s:23044  .debug_str:00000000000046dc .LASF63
C:\Users\stapi\AppData\Local\Temp\cckM1eOc.s:23354  .debug_str:0000000000005095 .LASF64
C:\Users\stapi\AppData\Local\Temp\cckM1eOc.s:21186  .debug_str:0000000000000fd9 .LASF65
C:\Users\stapi\AppData\Local\Temp\cckM1eOc.s:23058  .debug_str:0000000000004745 .LASF66
C:\Users\stapi\AppData\Local\Temp\cckM1eOc.s:20904  .debug_str:00000000000007a6 .LASF67
C:\Users\stapi\AppData\Local\Temp\cckM1eOc.s:23674  .debug_str:0000000000005a6a .LASF68
C:\Users\stapi\AppData\Local\Temp\cckM1eOc.s:21062  .debug_str:0000000000000c49 .LASF69
C:\Users\stapi\AppData\Local\Temp\cckM1eOc.s:21742  .debug_str:0000000000001f7b .LASF70
C:\Users\stapi\AppData\Local\Temp\cckM1eOc.s:21962  .debug_str:0000000000002659 .LASF71
C:\Users\stapi\AppData\Local\Temp\cckM1eOc.s:23604  .debug_str:000000000000585f .LASF72
C:\Users\stapi\AppData\Local\Temp\cckM1eOc.s:22982  .debug_str:000000000000452c .LASF73
C:\Users\stapi\AppData\Local\Temp\cckM1eOc.s:20730  .debug_str:00000000000002d3 .LASF74
C:\Users\stapi\AppData\Local\Temp\cckM1eOc.s:20718  .debug_str:0000000000000260 .LASF75
C:\Users\stapi\AppData\Local\Temp\cckM1eOc.s:22020  .debug_str:0000000000002846 .LASF76
C:\Users\stapi\AppData\Local\Temp\cckM1eOc.s:21086  .debug_str:0000000000000d02 .LASF77
C:\Users\stapi\AppData\Local\Temp\cckM1eOc.s:22328  .debug_str:0000000000003150 .LASF78
C:\Users\stapi\AppData\Local\Temp\cckM1eOc.s:22674  .debug_str:0000000000003ca0 .LASF79
C:\Users\stapi\AppData\Local\Temp\cckM1eOc.s:23272  .debug_str:0000000000004e34 .LASF80
C:\Users\stapi\AppData\Local\Temp\cckM1eOc.s:23618  .debug_str:00000000000058ca .LASF81
C:\Users\stapi\AppData\Local\Temp\cckM1eOc.s:21092  .debug_str:0000000000000d2f .LASF82
C:\Users\stapi\AppData\Local\Temp\cckM1eOc.s:22302  .debug_str:000000000000308a .LASF83
C:\Users\stapi\AppData\Local\Temp\cckM1eOc.s:23684  .debug_str:0000000000005ac2 .LASF84
C:\Users\stapi\AppData\Local\Temp\cckM1eOc.s:23490  .debug_str:0000000000005498 .LASF85
C:\Users\stapi\AppData\Local\Temp\cckM1eOc.s:21890  .debug_str:0000000000002415 .LASF86
C:\Users\stapi\AppData\Local\Temp\cckM1eOc.s:20850  .debug_str:0000000000000638 .LASF87
C:\Users\stapi\AppData\Local\Temp\cckM1eOc.s:22326  .debug_str:000000000000313e .LASF88
C:\Users\stapi\AppData\Local\Temp\cckM1eOc.s:21492  .debug_str:0000000000001885 .LASF90
C:\Users\stapi\AppData\Local\Temp\cckM1eOc.s:22374  .debug_str:0000000000003389 .LASF91
C:\Users\stapi\AppData\Local\Temp\cckM1eOc.s:22376  .debug_str:000000000000339a .LASF92
C:\Users\stapi\AppData\Local\Temp\cckM1eOc.s:23636  .debug_str:0000000000005959 .LASF93
C:\Users\stapi\AppData\Local\Temp\cckM1eOc.s:22886  .debug_str:000000000000425d .LASF94
C:\Users\stapi\AppData\Local\Temp\cckM1eOc.s:22280  .debug_str:0000000000002fdc .LASF95
C:\Users\stapi\AppData\Local\Temp\cckM1eOc.s:23144  .debug_str:0000000000004a76 .LASF96
C:\Users\stapi\AppData\Local\Temp\cckM1eOc.s:21384  .debug_str:0000000000001576 .LASF97
C:\Users\stapi\AppData\Local\Temp\cckM1eOc.s:22762  .debug_str:0000000000003f07 .LASF98
C:\Users\stapi\AppData\Local\Temp\cckM1eOc.s:21010  .debug_str:0000000000000ab1 .LASF99
C:\Users\stapi\AppData\Local\Temp\cckM1eOc.s:21464  .debug_str:00000000000017b6 .LASF100
C:\Users\stapi\AppData\Local\Temp\cckM1eOc.s:20844  .debug_str:0000000000000604 .LASF101
C:\Users\stapi\AppData\Local\Temp\cckM1eOc.s:23304  .debug_str:0000000000004f29 .LASF102
C:\Users\stapi\AppData\Local\Temp\cckM1eOc.s:22974  .debug_str:00000000000044ef .LASF103
C:\Users\stapi\AppData\Local\Temp\cckM1eOc.s:23092  .debug_str:000000000000483f .LASF104
C:\Users\stapi\AppData\Local\Temp\cckM1eOc.s:21796  .debug_str:0000000000002128 .LASF105
C:\Users\stapi\AppData\Local\Temp\cckM1eOc.s:23204  .debug_str:0000000000004c15 .LASF106
C:\Users\stapi\AppData\Local\Temp\cckM1eOc.s:22746  .debug_str:0000000000003e9f .LASF107
C:\Users\stapi\AppData\Local\Temp\cckM1eOc.s:20686  .debug_str:000000000000016a .LASF108
C:\Users\stapi\AppData\Local\Temp\cckM1eOc.s:22292  .debug_str:0000000000003037 .LASF109
C:\Users\stapi\AppData\Local\Temp\cckM1eOc.s:21032  .debug_str:0000000000000b47 .LASF110
C:\Users\stapi\AppData\Local\Temp\cckM1eOc.s:21380  .debug_str:000000000000155e .LASF111
C:\Users\stapi\AppData\Local\Temp\cckM1eOc.s:22384  .debug_str:00000000000033fb .LASF112
C:\Users\stapi\AppData\Local\Temp\cckM1eOc.s:22386  .debug_str:0000000000003413 .LASF113
C:\Users\stapi\AppData\Local\Temp\cckM1eOc.s:22382  .debug_str:00000000000033e3 .LASF114
C:\Users\stapi\AppData\Local\Temp\cckM1eOc.s:22422  .debug_str:000000000000352c .LASF115
C:\Users\stapi\AppData\Local\Temp\cckM1eOc.s:20842  .debug_str:00000000000005ea .LASF116
C:\Users\stapi\AppData\Local\Temp\cckM1eOc.s:22944  .debug_str:000000000000441c .LASF117
C:\Users\stapi\AppData\Local\Temp\cckM1eOc.s:21144  .debug_str:0000000000000e9b .LASF118
C:\Users\stapi\AppData\Local\Temp\cckM1eOc.s:22126  .debug_str:0000000000002b2c .LASF119
C:\Users\stapi\AppData\Local\Temp\cckM1eOc.s:23560  .debug_str:0000000000005706 .LASF120
C:\Users\stapi\AppData\Local\Temp\cckM1eOc.s:23478  .debug_str:000000000000544c .LASF121
C:\Users\stapi\AppData\Local\Temp\cckM1eOc.s:23584  .debug_str:00000000000057b0 .LASF122
C:\Users\stapi\AppData\Local\Temp\cckM1eOc.s:21160  .debug_str:0000000000000f11 .LASF123
C:\Users\stapi\AppData\Local\Temp\cckM1eOc.s:23072  .debug_str:000000000000479f .LASF124
C:\Users\stapi\AppData\Local\Temp\cckM1eOc.s:21830  .debug_str:000000000000222f .LASF125
C:\Users\stapi\AppData\Local\Temp\cckM1eOc.s:23034  .debug_str:0000000000004689 .LASF126
C:\Users\stapi\AppData\Local\Temp\cckM1eOc.s:21826  .debug_str:0000000000002209 .LASF127
C:\Users\stapi\AppData\Local\Temp\cckM1eOc.s:22528  .debug_str:00000000000038a0 .LASF128
C:\Users\stapi\AppData\Local\Temp\cckM1eOc.s:21850  .debug_str:00000000000022cd .LASF129
C:\Users\stapi\AppData\Local\Temp\cckM1eOc.s:21514  .debug_str:0000000000001929 .LASF130
C:\Users\stapi\AppData\Local\Temp\cckM1eOc.s:21570  .debug_str:0000000000001ac9 .LASF131
C:\Users\stapi\AppData\Local\Temp\cckM1eOc.s:21684  .debug_str:0000000000001dc1 .LASF132
C:\Users\stapi\AppData\Local\Temp\cckM1eOc.s:21532  .debug_str:00000000000019bd .LASF133
C:\Users\stapi\AppData\Local\Temp\cckM1eOc.s:21060  .debug_str:0000000000000c3a .LASF134
C:\Users\stapi\AppData\Local\Temp\cckM1eOc.s:20980  .debug_str:00000000000009aa .LASF135
C:\Users\stapi\AppData\Local\Temp\cckM1eOc.s:22526  .debug_str:0000000000003890 .LASF136
C:\Users\stapi\AppData\Local\Temp\cckM1eOc.s:22620  .debug_str:0000000000003b2c .LASF137
C:\Users\stapi\AppData\Local\Temp\cckM1eOc.s:21110  .debug_str:0000000000000da0 .LASF138
C:\Users\stapi\AppData\Local\Temp\cckM1eOc.s:23106  .debug_str:00000000000048c9 .LASF139
C:\Users\stapi\AppData\Local\Temp\cckM1eOc.s:21654  .debug_str:0000000000001ced .LASF140
C:\Users\stapi\AppData\Local\Temp\cckM1eOc.s:23362  .debug_str:00000000000050c2 .LASF141
C:\Users\stapi\AppData\Local\Temp\cckM1eOc.s:20960  .debug_str:0000000000000931 .LASF142
C:\Users\stapi\AppData\Local\Temp\cckM1eOc.s:21674  .debug_str:0000000000001d84 .LASF143
C:\Users\stapi\AppData\Local\Temp\cckM1eOc.s:21732  .debug_str:0000000000001f3d .LASF144
C:\Users\stapi\AppData\Local\Temp\cckM1eOc.s:20966  .debug_str:000000000000095c .LASF145
C:\Users\stapi\AppData\Local\Temp\cckM1eOc.s:23588  .debug_str:00000000000057d6 .LASF146
C:\Users\stapi\AppData\Local\Temp\cckM1eOc.s:22038  .debug_str:00000000000028c3 .LASF147
C:\Users\stapi\AppData\Local\Temp\cckM1eOc.s:23346  .debug_str:000000000000505f .LASF148
C:\Users\stapi\AppData\Local\Temp\cckM1eOc.s:21390  .debug_str:00000000000015aa .LASF149
C:\Users\stapi\AppData\Local\Temp\cckM1eOc.s:23438  .debug_str:0000000000005317 .LASF150
C:\Users\stapi\AppData\Local\Temp\cckM1eOc.s:21814  .debug_str:00000000000021af .LASF151
C:\Users\stapi\AppData\Local\Temp\cckM1eOc.s:22418  .debug_str:00000000000034f8 .LASF152
C:\Users\stapi\AppData\Local\Temp\cckM1eOc.s:21886  .debug_str:00000000000023ed .LASF153
C:\Users\stapi\AppData\Local\Temp\cckM1eOc.s:23332  .debug_str:0000000000004fe7 .LASF154
C:\Users\stapi\AppData\Local\Temp\cckM1eOc.s:22466  .debug_str:000000000000369f .LASF155
C:\Users\stapi\AppData\Local\Temp\cckM1eOc.s:20858  .debug_str:0000000000000680 .LASF156
C:\Users\stapi\AppData\Local\Temp\cckM1eOc.s:22026  .debug_str:0000000000002863 .LASF157
C:\Users\stapi\AppData\Local\Temp\cckM1eOc.s:23682  .debug_str:0000000000005ab0 .LASF158
C:\Users\stapi\AppData\Local\Temp\cckM1eOc.s:22270  .debug_str:0000000000002f76 .LASF159
C:\Users\stapi\AppData\Local\Temp\cckM1eOc.s:21902  .debug_str:0000000000002472 .LASF160
C:\Users\stapi\AppData\Local\Temp\cckM1eOc.s:23076  .debug_str:00000000000047c9 .LASF161
C:\Users\stapi\AppData\Local\Temp\cckM1eOc.s:21828  .debug_str:0000000000002218 .LASF162
C:\Users\stapi\AppData\Local\Temp\cckM1eOc.s:21800  .debug_str:000000000000214a .LASF163
C:\Users\stapi\AppData\Local\Temp\cckM1eOc.s:23422  .debug_str:000000000000529d .LASF164
C:\Users\stapi\AppData\Local\Temp\cckM1eOc.s:23210  .debug_str:0000000000004c4c .LASF165
C:\Users\stapi\AppData\Local\Temp\cckM1eOc.s:20736  .debug_str:000000000000030a .LASF166
C:\Users\stapi\AppData\Local\Temp\cckM1eOc.s:23276  .debug_str:0000000000004e5f .LASF167
C:\Users\stapi\AppData\Local\Temp\cckM1eOc.s:21538  .debug_str:00000000000019e6 .LASF168
C:\Users\stapi\AppData\Local\Temp\cckM1eOc.s:21470  .debug_str:00000000000017d5 .LASF169
C:\Users\stapi\AppData\Local\Temp\cckM1eOc.s:21056  .debug_str:0000000000000c26 .LASF170
C:\Users\stapi\AppData\Local\Temp\cckM1eOc.s:23152  .debug_str:0000000000004aa3 .LASF171
C:\Users\stapi\AppData\Local\Temp\cckM1eOc.s:21650  .debug_str:0000000000001cd8 .LASF172
C:\Users\stapi\AppData\Local\Temp\cckM1eOc.s:22884  .debug_str:0000000000004258 .LASF173
C:\Users\stapi\AppData\Local\Temp\cckM1eOc.s:22626  .debug_str:0000000000003b5d .LASF174
C:\Users\stapi\AppData\Local\Temp\cckM1eOc.s:21656  .debug_str:0000000000001cf6 .LASF175
C:\Users\stapi\AppData\Local\Temp\cckM1eOc.s:23714  .debug_str:0000000000005bb9 .LASF176
C:\Users\stapi\AppData\Local\Temp\cckM1eOc.s:22644  .debug_str:0000000000003be7 .LASF177
C:\Users\stapi\AppData\Local\Temp\cckM1eOc.s:21812  .debug_str:000000000000219e .LASF178
C:\Users\stapi\AppData\Local\Temp\cckM1eOc.s:22868  .debug_str:00000000000041e7 .LASF179
C:\Users\stapi\AppData\Local\Temp\cckM1eOc.s:20882  .debug_str:0000000000000736 .LASF180
C:\Users\stapi\AppData\Local\Temp\cckM1eOc.s:20884  .debug_str:000000000000073d .LASF181
C:\Users\stapi\AppData\Local\Temp\cckM1eOc.s:21000  .debug_str:0000000000000a70 .LASF182
C:\Users\stapi\AppData\Local\Temp\cckM1eOc.s:20886  .debug_str:0000000000000744 .LASF183
C:\Users\stapi\AppData\Local\Temp\cckM1eOc.s:20888  .debug_str:000000000000074b .LASF184
C:\Users\stapi\AppData\Local\Temp\cckM1eOc.s:20890  .debug_str:0000000000000752 .LASF185
C:\Users\stapi\AppData\Local\Temp\cckM1eOc.s:20892  .debug_str:0000000000000759 .LASF186
C:\Users\stapi\AppData\Local\Temp\cckM1eOc.s:20894  .debug_str:0000000000000760 .LASF187
C:\Users\stapi\AppData\Local\Temp\cckM1eOc.s:20896  .debug_str:0000000000000767 .LASF188
C:\Users\stapi\AppData\Local\Temp\cckM1eOc.s:22092  .debug_str:0000000000002a31 .LASF189
C:\Users\stapi\AppData\Local\Temp\cckM1eOc.s:21734  .debug_str:0000000000001f49 .LASF190
C:\Users\stapi\AppData\Local\Temp\cckM1eOc.s:23524  .debug_str:000000000000560f .LASF191
C:\Users\stapi\AppData\Local\Temp\cckM1eOc.s:20944  .debug_str:00000000000008d7 .LASF192
C:\Users\stapi\AppData\Local\Temp\cckM1eOc.s:22510  .debug_str:000000000000380f .LASF193
C:\Users\stapi\AppData\Local\Temp\cckM1eOc.s:21216  .debug_str:00000000000010bc .LASF194
C:\Users\stapi\AppData\Local\Temp\cckM1eOc.s:23294  .debug_str:0000000000004ecd .LASF195
C:\Users\stapi\AppData\Local\Temp\cckM1eOc.s:22036  .debug_str:00000000000028be .LASF196
C:\Users\stapi\AppData\Local\Temp\cckM1eOc.s:20964  .debug_str:0000000000000953 .LASF197
C:\Users\stapi\AppData\Local\Temp\cckM1eOc.s:21478  .debug_str:000000000000182d .LASF198
C:\Users\stapi\AppData\Local\Temp\cckM1eOc.s:22318  .debug_str:000000000000310f .LASF199
C:\Users\stapi\AppData\Local\Temp\cckM1eOc.s:22394  .debug_str:000000000000344b .LASF200
C:\Users\stapi\AppData\Local\Temp\cckM1eOc.s:21316  .debug_str:0000000000001396 .LASF201
C:\Users\stapi\AppData\Local\Temp\cckM1eOc.s:21852  .debug_str:00000000000022e0 .LASF202
C:\Users\stapi\AppData\Local\Temp\cckM1eOc.s:23548  .debug_str:00000000000056b5 .LASF203
C:\Users\stapi\AppData\Local\Temp\cckM1eOc.s:22484  .debug_str:000000000000373f .LASF204
C:\Users\stapi\AppData\Local\Temp\cckM1eOc.s:20828  .debug_str:00000000000005a6 .LASF205
C:\Users\stapi\AppData\Local\Temp\cckM1eOc.s:20954  .debug_str:0000000000000912 .LASF206
C:\Users\stapi\AppData\Local\Temp\cckM1eOc.s:21102  .debug_str:0000000000000d72 .LASF207
C:\Users\stapi\AppData\Local\Temp\cckM1eOc.s:21238  .debug_str:000000000000114e .LASF208
C:\Users\stapi\AppData\Local\Temp\cckM1eOc.s:23582  .debug_str:00000000000057a3 .LASF209
C:\Users\stapi\AppData\Local\Temp\cckM1eOc.s:20766  .debug_str:00000000000003d7 .LASF210
C:\Users\stapi\AppData\Local\Temp\cckM1eOc.s:23196  .debug_str:0000000000004be1 .LASF211
C:\Users\stapi\AppData\Local\Temp\cckM1eOc.s:23572  .debug_str:0000000000005764 .LASF212
C:\Users\stapi\AppData\Local\Temp\cckM1eOc.s:21706  .debug_str:0000000000001e68 .LASF213
C:\Users\stapi\AppData\Local\Temp\cckM1eOc.s:21584  .debug_str:0000000000001b25 .LASF214
C:\Users\stapi\AppData\Local\Temp\cckM1eOc.s:20758  .debug_str:00000000000003a3 .LASF215
C:\Users\stapi\AppData\Local\Temp\cckM1eOc.s:23630  .debug_str:0000000000005928 .LASF216
C:\Users\stapi\AppData\Local\Temp\cckM1eOc.s:21314  .debug_str:0000000000001388 .LASF217
C:\Users\stapi\AppData\Local\Temp\cckM1eOc.s:23480  .debug_str:000000000000545b .LASF218
C:\Users\stapi\AppData\Local\Temp\cckM1eOc.s:20660  .debug_str:000000000000009a .LASF219
C:\Users\stapi\AppData\Local\Temp\cckM1eOc.s:21512  .debug_str:000000000000191c .LASF220
C:\Users\stapi\AppData\Local\Temp\cckM1eOc.s:21170  .debug_str:0000000000000f66 .LASF221
C:\Users\stapi\AppData\Local\Temp\cckM1eOc.s:21716  .debug_str:0000000000001eb5 .LASF222
C:\Users\stapi\AppData\Local\Temp\cckM1eOc.s:23024  .debug_str:0000000000004632 .LASF223
C:\Users\stapi\AppData\Local\Temp\cckM1eOc.s:20640  .debug_str:0000000000000000 .LASF224
C:\Users\stapi\AppData\Local\Temp\cckM1eOc.s:23654  .debug_str:00000000000059e3 .LASF225
C:\Users\stapi\AppData\Local\Temp\cckM1eOc.s:20694  .debug_str:00000000000001ac .LASF226
C:\Users\stapi\AppData\Local\Temp\cckM1eOc.s:23448  .debug_str:0000000000005379 .LASF227
C:\Users\stapi\AppData\Local\Temp\cckM1eOc.s:21676  .debug_str:0000000000001d90 .LASF228
C:\Users\stapi\AppData\Local\Temp\cckM1eOc.s:21982  .debug_str:0000000000002712 .LASF229
C:\Users\stapi\AppData\Local\Temp\cckM1eOc.s:21114  .debug_str:0000000000000dc5 .LASF230
C:\Users\stapi\AppData\Local\Temp\cckM1eOc.s:22330  .debug_str:000000000000316b .LASF231
C:\Users\stapi\AppData\Local\Temp\cckM1eOc.s:21364  .debug_str:00000000000014fe .LASF232
C:\Users\stapi\AppData\Local\Temp\cckM1eOc.s:23602  .debug_str:0000000000005852 .LASF233
C:\Users\stapi\AppData\Local\Temp\cckM1eOc.s:22856  .debug_str:0000000000004196 .LASF234
C:\Users\stapi\AppData\Local\Temp\cckM1eOc.s:21332  .debug_str:00000000000013f4 .LASF235
C:\Users\stapi\AppData\Local\Temp\cckM1eOc.s:23244  .debug_str:0000000000004d6e .LASF236
C:\Users\stapi\AppData\Local\Temp\cckM1eOc.s:23600  .debug_str:0000000000005846 .LASF237
C:\Users\stapi\AppData\Local\Temp\cckM1eOc.s:23416  .debug_str:000000000000526f .LASF238
C:\Users\stapi\AppData\Local\Temp\cckM1eOc.s:22492  .debug_str:000000000000377b .LASF239
C:\Users\stapi\AppData\Local\Temp\cckM1eOc.s:22958  .debug_str:0000000000004480 .LASF240
C:\Users\stapi\AppData\Local\Temp\cckM1eOc.s:22848  .debug_str:0000000000004164 .LASF241
C:\Users\stapi\AppData\Local\Temp\cckM1eOc.s:22702  .debug_str:0000000000003d4d .LASF242
C:\Users\stapi\AppData\Local\Temp\cckM1eOc.s:21672  .debug_str:0000000000001d7c .LASF243
C:\Users\stapi\AppData\Local\Temp\cckM1eOc.s:21366  .debug_str:000000000000150b .LASF244
C:\Users\stapi\AppData\Local\Temp\cckM1eOc.s:21774  .debug_str:0000000000002090 .LASF245
C:\Users\stapi\AppData\Local\Temp\cckM1eOc.s:22892  .debug_str:0000000000004283 .LASF246
C:\Users\stapi\AppData\Local\Temp\cckM1eOc.s:23380  .debug_str:000000000000514f .LASF247
C:\Users\stapi\AppData\Local\Temp\cckM1eOc.s:22668  .debug_str:0000000000003c78 .LASF248
C:\Users\stapi\AppData\Local\Temp\cckM1eOc.s:21098  .debug_str:0000000000000d47 .LASF249
C:\Users\stapi\AppData\Local\Temp\cckM1eOc.s:22056  .debug_str:000000000000293b .LASF250
C:\Users\stapi\AppData\Local\Temp\cckM1eOc.s:21764  .debug_str:0000000000002031 .LASF251
C:\Users\stapi\AppData\Local\Temp\cckM1eOc.s:23198  .debug_str:0000000000004bee .LASF252
C:\Users\stapi\AppData\Local\Temp\cckM1eOc.s:22672  .debug_str:0000000000003c91 .LASF253
C:\Users\stapi\AppData\Local\Temp\cckM1eOc.s:22246  .debug_str:0000000000002ef0 .LASF254
C:\Users\stapi\AppData\Local\Temp\cckM1eOc.s:21496  .debug_str:00000000000018a8 .LASF255
C:\Users\stapi\AppData\Local\Temp\cckM1eOc.s:21698  .debug_str:0000000000001e13 .LASF256
C:\Users\stapi\AppData\Local\Temp\cckM1eOc.s:21480  .debug_str:0000000000001837 .LASF257
C:\Users\stapi\AppData\Local\Temp\cckM1eOc.s:22178  .debug_str:0000000000002cc0 .LASF258
C:\Users\stapi\AppData\Local\Temp\cckM1eOc.s:23040  .debug_str:00000000000046b8 .LASF259
C:\Users\stapi\AppData\Local\Temp\cckM1eOc.s:23712  .debug_str:0000000000005ba6 .LASF260
C:\Users\stapi\AppData\Local\Temp\cckM1eOc.s:22534  .debug_str:00000000000038bf .LASF261
C:\Users\stapi\AppData\Local\Temp\cckM1eOc.s:21280  .debug_str:0000000000001279 .LASF262
C:\Users\stapi\AppData\Local\Temp\cckM1eOc.s:20674  .debug_str:00000000000000fb .LASF263
C:\Users\stapi\AppData\Local\Temp\cckM1eOc.s:22412  .debug_str:00000000000034c5 .LASF264
C:\Users\stapi\AppData\Local\Temp\cckM1eOc.s:23646  .debug_str:00000000000059a7 .LASF265
C:\Users\stapi\AppData\Local\Temp\cckM1eOc.s:22420  .debug_str:0000000000003512 .LASF266
C:\Users\stapi\AppData\Local\Temp\cckM1eOc.s:20720  .debug_str:0000000000000277 .LASF267
C:\Users\stapi\AppData\Local\Temp\cckM1eOc.s:21704  .debug_str:0000000000001e47 .LASF268
C:\Users\stapi\AppData\Local\Temp\cckM1eOc.s:22538  .debug_str:00000000000038e4 .LASF269
C:\Users\stapi\AppData\Local\Temp\cckM1eOc.s:20706  .debug_str:0000000000000206 .LASF270
C:\Users\stapi\AppData\Local\Temp\cckM1eOc.s:22822  .debug_str:00000000000040c2 .LASF271
C:\Users\stapi\AppData\Local\Temp\cckM1eOc.s:22166  .debug_str:0000000000002c47 .LASF272
C:\Users\stapi\AppData\Local\Temp\cckM1eOc.s:22182  .debug_str:0000000000002ce6 .LASF273
C:\Users\stapi\AppData\Local\Temp\cckM1eOc.s:20724  .debug_str:0000000000000299 .LASF274
C:\Users\stapi\AppData\Local\Temp\cckM1eOc.s:21482  .debug_str:0000000000001846 .LASF275
C:\Users\stapi\AppData\Local\Temp\cckM1eOc.s:20970  .debug_str:000000000000097a .LASF276
C:\Users\stapi\AppData\Local\Temp\cckM1eOc.s:23538  .debug_str:000000000000567c .LASF277
C:\Users\stapi\AppData\Local\Temp\cckM1eOc.s:23370  .debug_str:00000000000050fe .LASF278
C:\Users\stapi\AppData\Local\Temp\cckM1eOc.s:23116  .debug_str:000000000000490b .LASF279
C:\Users\stapi\AppData\Local\Temp\cckM1eOc.s:21272  .debug_str:0000000000001242 .LASF280
C:\Users\stapi\AppData\Local\Temp\cckM1eOc.s:20770  .debug_str:00000000000003fb .LASF281
C:\Users\stapi\AppData\Local\Temp\cckM1eOc.s:21128  .debug_str:0000000000000e1e .LASF282
C:\Users\stapi\AppData\Local\Temp\cckM1eOc.s:23094  .debug_str:0000000000004854 .LASF283
C:\Users\stapi\AppData\Local\Temp\cckM1eOc.s:22732  .debug_str:0000000000003e2e .LASF284
C:\Users\stapi\AppData\Local\Temp\cckM1eOc.s:22266  .debug_str:0000000000002f65 .LASF285
C:\Users\stapi\AppData\Local\Temp\cckM1eOc.s:22250  .debug_str:0000000000002f0c .LASF286
C:\Users\stapi\AppData\Local\Temp\cckM1eOc.s:21020  .debug_str:0000000000000af2 .LASF287
C:\Users\stapi\AppData\Local\Temp\cckM1eOc.s:23236  .debug_str:0000000000004d27 .LASF288
C:\Users\stapi\AppData\Local\Temp\cckM1eOc.s:23628  .debug_str:000000000000591c .LASF289
C:\Users\stapi\AppData\Local\Temp\cckM1eOc.s:22222  .debug_str:0000000000002e1c .LASF290
C:\Users\stapi\AppData\Local\Temp\cckM1eOc.s:22030  .debug_str:000000000000288a .LASF291
C:\Users\stapi\AppData\Local\Temp\cckM1eOc.s:21842  .debug_str:000000000000229d .LASF292
C:\Users\stapi\AppData\Local\Temp\cckM1eOc.s:22524  .debug_str:0000000000003877 .LASF293
C:\Users\stapi\AppData\Local\Temp\cckM1eOc.s:22448  .debug_str:0000000000003603 .LASF294
C:\Users\stapi\AppData\Local\Temp\cckM1eOc.s:21026  .debug_str:0000000000000b17 .LASF295
C:\Users\stapi\AppData\Local\Temp\cckM1eOc.s:21040  .debug_str:0000000000000b92 .LASF296
C:\Users\stapi\AppData\Local\Temp\cckM1eOc.s:23168  .debug_str:0000000000004b15 .LASF297
C:\Users\stapi\AppData\Local\Temp\cckM1eOc.s:23576  .debug_str:000000000000577a .LASF298
C:\Users\stapi\AppData\Local\Temp\cckM1eOc.s:22810  .debug_str:000000000000406c .LASF299
C:\Users\stapi\AppData\Local\Temp\cckM1eOc.s:23270  .debug_str:0000000000004e25 .LASF1539
C:\Users\stapi\AppData\Local\Temp\cckM1eOc.s:21434  .debug_str:00000000000016fe .LASF300
C:\Users\stapi\AppData\Local\Temp\cckM1eOc.s:21544  .debug_str:0000000000001a15 .LASF301
C:\Users\stapi\AppData\Local\Temp\cckM1eOc.s:21782  .debug_str:00000000000020cd .LASF302
C:\Users\stapi\AppData\Local\Temp\cckM1eOc.s:21428  .debug_str:00000000000016cf .LASF303
C:\Users\stapi\AppData\Local\Temp\cckM1eOc.s:21854  .debug_str:00000000000022e9 .LASF304
C:\Users\stapi\AppData\Local\Temp\cckM1eOc.s:21466  .debug_str:00000000000017c3 .LASF305
C:\Users\stapi\AppData\Local\Temp\cckM1eOc.s:22256  .debug_str:0000000000002f30 .LASF306
C:\Users\stapi\AppData\Local\Temp\cckM1eOc.s:23680  .debug_str:0000000000005aa2 .LASF307
C:\Users\stapi\AppData\Local\Temp\cckM1eOc.s:21202  .debug_str:0000000000001052 .LASF308
C:\Users\stapi\AppData\Local\Temp\cckM1eOc.s:22094  .debug_str:0000000000002a3d .LASF309
C:\Users\stapi\AppData\Local\Temp\cckM1eOc.s:20750  .debug_str:0000000000000372 .LASF310
C:\Users\stapi\AppData\Local\Temp\cckM1eOc.s:20816  .debug_str:000000000000054b .LASF311
C:\Users\stapi\AppData\Local\Temp\cckM1eOc.s:22788  .debug_str:0000000000003fd9 .LASF312
C:\Users\stapi\AppData\Local\Temp\cckM1eOc.s:21738  .debug_str:0000000000001f65 .LASF313
C:\Users\stapi\AppData\Local\Temp\cckM1eOc.s:22042  .debug_str:00000000000028db .LASF314
C:\Users\stapi\AppData\Local\Temp\cckM1eOc.s:21342  .debug_str:0000000000001435 .LASF315
C:\Users\stapi\AppData\Local\Temp\cckM1eOc.s:22164  .debug_str:0000000000002c3f .LASF316
C:\Users\stapi\AppData\Local\Temp\cckM1eOc.s:23250  .debug_str:0000000000004d97 .LASF317
C:\Users\stapi\AppData\Local\Temp\cckM1eOc.s:22028  .debug_str:0000000000002877 .LASF318
C:\Users\stapi\AppData\Local\Temp\cckM1eOc.s:20920  .debug_str:000000000000080d .LASF319
C:\Users\stapi\AppData\Local\Temp\cckM1eOc.s:21954  .debug_str:000000000000260f .LASF320
C:\Users\stapi\AppData\Local\Temp\cckM1eOc.s:20870  .debug_str:00000000000006d4 .LASF321
C:\Users\stapi\AppData\Local\Temp\cckM1eOc.s:20762  .debug_str:00000000000003b7 .LASF322
C:\Users\stapi\AppData\Local\Temp\cckM1eOc.s:20656  .debug_str:0000000000000084 .LASF323
C:\Users\stapi\AppData\Local\Temp\cckM1eOc.s:23698  .debug_str:0000000000005b3b .LASF324
C:\Users\stapi\AppData\Local\Temp\cckM1eOc.s:23450  .debug_str:0000000000005383 .LASF325
C:\Users\stapi\AppData\Local\Temp\cckM1eOc.s:23574  .debug_str:0000000000005771 .LASF326
C:\Users\stapi\AppData\Local\Temp\cckM1eOc.s:21536  .debug_str:00000000000019dc .LASF327
C:\Users\stapi\AppData\Local\Temp\cckM1eOc.s:21702  .debug_str:0000000000001e34 .LASF328
C:\Users\stapi\AppData\Local\Temp\cckM1eOc.s:23568  .debug_str:0000000000005743 .LASF329
C:\Users\stapi\AppData\Local\Temp\cckM1eOc.s:22824  .debug_str:00000000000040d3 .LASF330
C:\Users\stapi\AppData\Local\Temp\cckM1eOc.s:22968  .debug_str:00000000000044b7 .LASF331
C:\Users\stapi\AppData\Local\Temp\cckM1eOc.s:23004  .debug_str:00000000000045c4 .LASF332
C:\Users\stapi\AppData\Local\Temp\cckM1eOc.s:20728  .debug_str:00000000000002c4 .LASF333
C:\Users\stapi\AppData\Local\Temp\cckM1eOc.s:20696  .debug_str:00000000000001b7 .LASF334
C:\Users\stapi\AppData\Local\Temp\cckM1eOc.s:21452  .debug_str:0000000000001763 .LASF335
C:\Users\stapi\AppData\Local\Temp\cckM1eOc.s:22516  .debug_str:000000000000383d .LASF336
C:\Users\stapi\AppData\Local\Temp\cckM1eOc.s:22692  .debug_str:0000000000003d11 .LASF337
C:\Users\stapi\AppData\Local\Temp\cckM1eOc.s:22766  .debug_str:0000000000003f2f .LASF338
C:\Users\stapi\AppData\Local\Temp\cckM1eOc.s:21002  .debug_str:0000000000000a78 .LASF339
C:\Users\stapi\AppData\Local\Temp\cckM1eOc.s:23012  .debug_str:00000000000045ed .LASF340
C:\Users\stapi\AppData\Local\Temp\cckM1eOc.s:23414  .debug_str:0000000000005262 .LASF341
C:\Users\stapi\AppData\Local\Temp\cckM1eOc.s:22664  .debug_str:0000000000003c5e .LASF342
C:\Users\stapi\AppData\Local\Temp\cckM1eOc.s:21142  .debug_str:0000000000000e94 .LASF343
C:\Users\stapi\AppData\Local\Temp\cckM1eOc.s:21374  .debug_str:0000000000001536 .LASF344
C:\Users\stapi\AppData\Local\Temp\cckM1eOc.s:21908  .debug_str:00000000000024a8 .LASF345
C:\Users\stapi\AppData\Local\Temp\cckM1eOc.s:23254  .debug_str:0000000000004dbd .LASF346
C:\Users\stapi\AppData\Local\Temp\cckM1eOc.s:22212  .debug_str:0000000000002ddf .LASF347
C:\Users\stapi\AppData\Local\Temp\cckM1eOc.s:22320  .debug_str:0000000000003119 .LASF348
C:\Users\stapi\AppData\Local\Temp\cckM1eOc.s:20732  .debug_str:00000000000002dc .LASF349
C:\Users\stapi\AppData\Local\Temp\cckM1eOc.s:22000  .debug_str:00000000000027ab .LASF350
C:\Users\stapi\AppData\Local\Temp\cckM1eOc.s:23208  .debug_str:0000000000004c41 .LASF351
C:\Users\stapi\AppData\Local\Temp\cckM1eOc.s:23154  .debug_str:0000000000004aab .LASF352
C:\Users\stapi\AppData\Local\Temp\cckM1eOc.s:20974  .debug_str:0000000000000991 .LASF353
C:\Users\stapi\AppData\Local\Temp\cckM1eOc.s:21952  .debug_str:00000000000025fe .LASF354
C:\Users\stapi\AppData\Local\Temp\cckM1eOc.s:22172  .debug_str:0000000000002c87 .LASF355
C:\Users\stapi\AppData\Local\Temp\cckM1eOc.s:21574  .debug_str:0000000000001aed .LASF356
C:\Users\stapi\AppData\Local\Temp\cckM1eOc.s:21844  .debug_str:00000000000022a2 .LASF357
C:\Users\stapi\AppData\Local\Temp\cckM1eOc.s:20830  .debug_str:00000000000005b6 .LASF358
C:\Users\stapi\AppData\Local\Temp\cckM1eOc.s:21290  .debug_str:00000000000012c2 .LASF359
C:\Users\stapi\AppData\Local\Temp\cckM1eOc.s:22562  .debug_str:000000000000399c .LASF360
C:\Users\stapi\AppData\Local\Temp\cckM1eOc.s:20778  .debug_str:0000000000000435 .LASF361
C:\Users\stapi\AppData\Local\Temp\cckM1eOc.s:23062  .debug_str:0000000000004767 .LASF362
C:\Users\stapi\AppData\Local\Temp\cckM1eOc.s:22864  .debug_str:00000000000041c9 .LASF363
C:\Users\stapi\AppData\Local\Temp\cckM1eOc.s:22242  .debug_str:0000000000002ecc .LASF364
C:\Users\stapi\AppData\Local\Temp\cckM1eOc.s:23716  .debug_str:0000000000005bc6 .LASF365
C:\Users\stapi\AppData\Local\Temp\cckM1eOc.s:23188  .debug_str:0000000000004b9b .LASF366
C:\Users\stapi\AppData\Local\Temp\cckM1eOc.s:21696  .debug_str:0000000000001e0c .LASF367
C:\Users\stapi\AppData\Local\Temp\cckM1eOc.s:20782  .debug_str:0000000000000450 .LASF368
C:\Users\stapi\AppData\Local\Temp\cckM1eOc.s:22048  .debug_str:0000000000002900 .LASF369
C:\Users\stapi\AppData\Local\Temp\cckM1eOc.s:21106  .debug_str:0000000000000d84 .LASF370
C:\Users\stapi\AppData\Local\Temp\cckM1eOc.s:21494  .debug_str:0000000000001894 .LASF371
C:\Users\stapi\AppData\Local\Temp\cckM1eOc.s:23104  .debug_str:00000000000048ae .LASF372
C:\Users\stapi\AppData\Local\Temp\cckM1eOc.s:21860  .debug_str:0000000000002319 .LASF373
C:\Users\stapi\AppData\Local\Temp\cckM1eOc.s:22530  .debug_str:00000000000038ab .LASF374
C:\Users\stapi\AppData\Local\Temp\cckM1eOc.s:22680  .debug_str:0000000000003cc3 .LASF375
C:\Users\stapi\AppData\Local\Temp\cckM1eOc.s:20784  .debug_str:000000000000045a .LASF376
C:\Users\stapi\AppData\Local\Temp\cckM1eOc.s:22068  .debug_str:0000000000002995 .LASF377
C:\Users\stapi\AppData\Local\Temp\cckM1eOc.s:23316  .debug_str:0000000000004f86 .LASF378
C:\Users\stapi\AppData\Local\Temp\cckM1eOc.s:21932  .debug_str:0000000000002577 .LASF379
C:\Users\stapi\AppData\Local\Temp\cckM1eOc.s:23394  .debug_str:00000000000051d6 .LASF380
C:\Users\stapi\AppData\Local\Temp\cckM1eOc.s:21864  .debug_str:0000000000002347 .LASF381
C:\Users\stapi\AppData\Local\Temp\cckM1eOc.s:22410  .debug_str:00000000000034bb .LASF382
C:\Users\stapi\AppData\Local\Temp\cckM1eOc.s:22698  .debug_str:0000000000003d36 .LASF383
C:\Users\stapi\AppData\Local\Temp\cckM1eOc.s:22114  .debug_str:0000000000002ae4 .LASF384
C:\Users\stapi\AppData\Local\Temp\cckM1eOc.s:20692  .debug_str:0000000000000195 .LASF385
C:\Users\stapi\AppData\Local\Temp\cckM1eOc.s:22264  .debug_str:0000000000002f5c .LASF386
C:\Users\stapi\AppData\Local\Temp\cckM1eOc.s:21190  .debug_str:0000000000000ff8 .LASF387
C:\Users\stapi\AppData\Local\Temp\cckM1eOc.s:22814  .debug_str:0000000000004085 .LASF388
C:\Users\stapi\AppData\Local\Temp\cckM1eOc.s:21668  .debug_str:0000000000001d5e .LASF389
C:\Users\stapi\AppData\Local\Temp\cckM1eOc.s:20668  .debug_str:00000000000000ce .LASF390
C:\Users\stapi\AppData\Local\Temp\cckM1eOc.s:22710  .debug_str:0000000000003d82 .LASF391
C:\Users\stapi\AppData\Local\Temp\cckM1eOc.s:21034  .debug_str:0000000000000b66 .LASF392
C:\Users\stapi\AppData\Local\Temp\cckM1eOc.s:22662  .debug_str:0000000000003c57 .LASF393
C:\Users\stapi\AppData\Local\Temp\cckM1eOc.s:21078  .debug_str:0000000000000cc5 .LASF394
C:\Users\stapi\AppData\Local\Temp\cckM1eOc.s:22012  .debug_str:000000000000280c .LASF395
C:\Users\stapi\AppData\Local\Temp\cckM1eOc.s:21292  .debug_str:00000000000012cf .LASF396
C:\Users\stapi\AppData\Local\Temp\cckM1eOc.s:21112  .debug_str:0000000000000db0 .LASF397
C:\Users\stapi\AppData\Local\Temp\cckM1eOc.s:21620  .debug_str:0000000000001c11 .LASF398
C:\Users\stapi\AppData\Local\Temp\cckM1eOc.s:20924  .debug_str:0000000000000835 .LASF399
C:\Users\stapi\AppData\Local\Temp\cckM1eOc.s:23598  .debug_str:0000000000005832 .LASF400
C:\Users\stapi\AppData\Local\Temp\cckM1eOc.s:21136  .debug_str:0000000000000e6f .LASF401
C:\Users\stapi\AppData\Local\Temp\cckM1eOc.s:20818  .debug_str:0000000000000554 .LASF402
C:\Users\stapi\AppData\Local\Temp\cckM1eOc.s:23678  .debug_str:0000000000005a9c .LASF403
C:\Users\stapi\AppData\Local\Temp\cckM1eOc.s:23132  .debug_str:0000000000004a15 .LASF404
C:\Users\stapi\AppData\Local\Temp\cckM1eOc.s:20760  .debug_str:00000000000003ac .LASF405
C:\Users\stapi\AppData\Local\Temp\cckM1eOc.s:22140  .debug_str:0000000000002b8e .LASF406
C:\Users\stapi\AppData\Local\Temp\cckM1eOc.s:20940  .debug_str:00000000000008b6 .LASF407
C:\Users\stapi\AppData\Local\Temp\cckM1eOc.s:22440  .debug_str:00000000000035c7 .LASF408
C:\Users\stapi\AppData\Local\Temp\cckM1eOc.s:22878  .debug_str:0000000000004239 .LASF409
C:\Users\stapi\AppData\Local\Temp\cckM1eOc.s:21042  .debug_str:0000000000000bb6 .LASF410
C:\Users\stapi\AppData\Local\Temp\cckM1eOc.s:21274  .debug_str:0000000000001251 .LASF411
C:\Users\stapi\AppData\Local\Temp\cckM1eOc.s:23220  .debug_str:0000000000004c7b .LASF412
C:\Users\stapi\AppData\Local\Temp\cckM1eOc.s:21526  .debug_str:0000000000001988 .LASF413
C:\Users\stapi\AppData\Local\Temp\cckM1eOc.s:20860  .debug_str:0000000000000697 .LASF414
C:\Users\stapi\AppData\Local\Temp\cckM1eOc.s:22742  .debug_str:0000000000003e82 .LASF415
C:\Users\stapi\AppData\Local\Temp\cckM1eOc.s:21936  .debug_str:000000000000258b .LASF416
C:\Users\stapi\AppData\Local\Temp\cckM1eOc.s:23278  .debug_str:0000000000004e6a .LASF417
C:\Users\stapi\AppData\Local\Temp\cckM1eOc.s:21904  .debug_str:000000000000248a .LASF418
C:\Users\stapi\AppData\Local\Temp\cckM1eOc.s:21918  .debug_str:0000000000002509 .LASF419
C:\Users\stapi\AppData\Local\Temp\cckM1eOc.s:22192  .debug_str:0000000000002d38 .LASF420
C:\Users\stapi\AppData\Local\Temp\cckM1eOc.s:22906  .debug_str:00000000000042d8 .LASF421
C:\Users\stapi\AppData\Local\Temp\cckM1eOc.s:23158  .debug_str:0000000000004ab7 .LASF422
C:\Users\stapi\AppData\Local\Temp\cckM1eOc.s:23252  .debug_str:0000000000004dae .LASF423
C:\Users\stapi\AppData\Local\Temp\cckM1eOc.s:21122  .debug_str:0000000000000dff .LASF424
C:\Users\stapi\AppData\Local\Temp\cckM1eOc.s:21572  .debug_str:0000000000001ad7 .LASF425
C:\Users\stapi\AppData\Local\Temp\cckM1eOc.s:21406  .debug_str:0000000000001634 .LASF426
C:\Users\stapi\AppData\Local\Temp\cckM1eOc.s:23552  .debug_str:00000000000056cc .LASF427
C:\Users\stapi\AppData\Local\Temp\cckM1eOc.s:20996  .debug_str:0000000000000a4a .LASF428
C:\Users\stapi\AppData\Local\Temp\cckM1eOc.s:22424  .debug_str:0000000000003545 .LASF429
C:\Users\stapi\AppData\Local\Temp\cckM1eOc.s:22082  .debug_str:00000000000029eb .LASF430
C:\Users\stapi\AppData\Local\Temp\cckM1eOc.s:20740  .debug_str:0000000000000319 .LASF431
C:\Users\stapi\AppData\Local\Temp\cckM1eOc.s:21356  .debug_str:00000000000014a0 .LASF432
C:\Users\stapi\AppData\Local\Temp\cckM1eOc.s:23232  .debug_str:0000000000004cef .LASF433
C:\Users\stapi\AppData\Local\Temp\cckM1eOc.s:23246  .debug_str:0000000000004d76 .LASF434
C:\Users\stapi\AppData\Local\Temp\cckM1eOc.s:21312  .debug_str:000000000000136f .LASF435
C:\Users\stapi\AppData\Local\Temp\cckM1eOc.s:20642  .debug_str:0000000000000005 .LASF436
C:\Users\stapi\AppData\Local\Temp\cckM1eOc.s:21878  .debug_str:00000000000023a0 .LASF437
C:\Users\stapi\AppData\Local\Temp\cckM1eOc.s:20848  .debug_str:0000000000000624 .LASF438
C:\Users\stapi\AppData\Local\Temp\cckM1eOc.s:21568  .debug_str:0000000000001aae .LASF439
C:\Users\stapi\AppData\Local\Temp\cckM1eOc.s:22138  .debug_str:0000000000002b7c .LASF440
C:\Users\stapi\AppData\Local\Temp\cckM1eOc.s:21964  .debug_str:0000000000002673 .LASF441
C:\Users\stapi\AppData\Local\Temp\cckM1eOc.s:21692  .debug_str:0000000000001dfa .LASF442
C:\Users\stapi\AppData\Local\Temp\cckM1eOc.s:22956  .debug_str:0000000000004475 .LASF443
C:\Users\stapi\AppData\Local\Temp\cckM1eOc.s:23626  .debug_str:000000000000590d .LASF444
C:\Users\stapi\AppData\Local\Temp\cckM1eOc.s:22130  .debug_str:0000000000002b49 .LASF445
C:\Users\stapi\AppData\Local\Temp\cckM1eOc.s:21834  .debug_str:0000000000002250 .LASF446
C:\Users\stapi\AppData\Local\Temp\cckM1eOc.s:23488  .debug_str:0000000000005490 .LASF447
C:\Users\stapi\AppData\Local\Temp\cckM1eOc.s:22646  .debug_str:0000000000003bf2 .LASF448
C:\Users\stapi\AppData\Local\Temp\cckM1eOc.s:21736  .debug_str:0000000000001f56 .LASF449
C:\Users\stapi\AppData\Local\Temp\cckM1eOc.s:21938  .debug_str:0000000000002596 .LASF450
C:\Users\stapi\AppData\Local\Temp\cckM1eOc.s:21816  .debug_str:00000000000021c1 .LASF451
C:\Users\stapi\AppData\Local\Temp\cckM1eOc.s:21124  .debug_str:0000000000000e06 .LASF452
C:\Users\stapi\AppData\Local\Temp\cckM1eOc.s:23292  .debug_str:0000000000004ec2 .LASF453
C:\Users\stapi\AppData\Local\Temp\cckM1eOc.s:20880  .debug_str:0000000000000724 .LASF454
C:\Users\stapi\AppData\Local\Temp\cckM1eOc.s:23216  .debug_str:0000000000004c64 .LASF455
C:\Users\stapi\AppData\Local\Temp\cckM1eOc.s:21426  .debug_str:00000000000016b4 .LASF456
C:\Users\stapi\AppData\Local\Temp\cckM1eOc.s:21134  .debug_str:0000000000000e52 .LASF457
C:\Users\stapi\AppData\Local\Temp\cckM1eOc.s:23632  .debug_str:0000000000005937 .LASF458
C:\Users\stapi\AppData\Local\Temp\cckM1eOc.s:21018  .debug_str:0000000000000ae5 .LASF459
C:\Users\stapi\AppData\Local\Temp\cckM1eOc.s:21064  .debug_str:0000000000000c6f .LASF460
C:\Users\stapi\AppData\Local\Temp\cckM1eOc.s:20738  .debug_str:000000000000030f .LASF461
C:\Users\stapi\AppData\Local\Temp\cckM1eOc.s:22924  .debug_str:000000000000435c .LASF462
C:\Users\stapi\AppData\Local\Temp\cckM1eOc.s:21324  .debug_str:00000000000013bd .LASF463
C:\Users\stapi\AppData\Local\Temp\cckM1eOc.s:22716  .debug_str:0000000000003dab .LASF464
C:\Users\stapi\AppData\Local\Temp\cckM1eOc.s:23608  .debug_str:000000000000587b .LASF465
C:\Users\stapi\AppData\Local\Temp\cckM1eOc.s:22296  .debug_str:000000000000306a .LASF466
C:\Users\stapi\AppData\Local\Temp\cckM1eOc.s:21294  .debug_str:00000000000012e4 .LASF467
C:\Users\stapi\AppData\Local\Temp\cckM1eOc.s:20872  .debug_str:00000000000006e1 .LASF468
C:\Users\stapi\AppData\Local\Temp\cckM1eOc.s:21132  .debug_str:0000000000000e38 .LASF469
C:\Users\stapi\AppData\Local\Temp\cckM1eOc.s:22278  .debug_str:0000000000002fbe .LASF470
C:\Users\stapi\AppData\Local\Temp\cckM1eOc.s:22836  .debug_str:0000000000004106 .LASF471
C:\Users\stapi\AppData\Local\Temp\cckM1eOc.s:23672  .debug_str:0000000000005a5e .LASF472
C:\Users\stapi\AppData\Local\Temp\cckM1eOc.s:22786  .debug_str:0000000000003fc2 .LASF473
C:\Users\stapi\AppData\Local\Temp\cckM1eOc.s:22276  .debug_str:0000000000002faf .LASF474
C:\Users\stapi\AppData\Local\Temp\cckM1eOc.s:22314  .debug_str:00000000000030f0 .LASF475
C:\Users\stapi\AppData\Local\Temp\cckM1eOc.s:23126  .debug_str:00000000000049ec .LASF476
C:\Users\stapi\AppData\Local\Temp\cckM1eOc.s:23070  .debug_str:0000000000004797 .LASF477
C:\Users\stapi\AppData\Local\Temp\cckM1eOc.s:23352  .debug_str:0000000000005089 .LASF478
C:\Users\stapi\AppData\Local\Temp\cckM1eOc.s:22610  .debug_str:0000000000003af4 .LASF479
C:\Users\stapi\AppData\Local\Temp\cckM1eOc.s:21326  .debug_str:00000000000013d1 .LASF480
C:\Users\stapi\AppData\Local\Temp\cckM1eOc.s:21368  .debug_str:0000000000001514 .LASF481
C:\Users\stapi\AppData\Local\Temp\cckM1eOc.s:22088  .debug_str:0000000000002a17 .LASF482
C:\Users\stapi\AppData\Local\Temp\cckM1eOc.s:23430  .debug_str:00000000000052d4 .LASF483
C:\Users\stapi\AppData\Local\Temp\cckM1eOc.s:22238  .debug_str:0000000000002e9f .LASF484
C:\Users\stapi\AppData\Local\Temp\cckM1eOc.s:23606  .debug_str:0000000000005871 .LASF485
C:\Users\stapi\AppData\Local\Temp\cckM1eOc.s:21576  .debug_str:0000000000001afa .LASF486
C:\Users\stapi\AppData\Local\Temp\cckM1eOc.s:23644  .debug_str:0000000000005993 .LASF487
C:\Users\stapi\AppData\Local\Temp\cckM1eOc.s:22554  .debug_str:0000000000003962 .LASF488
C:\Users\stapi\AppData\Local\Temp\cckM1eOc.s:23506  .debug_str:0000000000005513 .LASF489
C:\Users\stapi\AppData\Local\Temp\cckM1eOc.s:20820  .debug_str:0000000000000567 .LASF490
C:\Users\stapi\AppData\Local\Temp\cckM1eOc.s:21068  .debug_str:0000000000000c8e .LASF491
C:\Users\stapi\AppData\Local\Temp\cckM1eOc.s:21922  .debug_str:000000000000251d .LASF492
C:\Users\stapi\AppData\Local\Temp\cckM1eOc.s:22930  .debug_str:0000000000004397 .LASF493
C:\Users\stapi\AppData\Local\Temp\cckM1eOc.s:21246  .debug_str:0000000000001190 .LASF494
C:\Users\stapi\AppData\Local\Temp\cckM1eOc.s:23090  .debug_str:000000000000482f .LASF495
C:\Users\stapi\AppData\Local\Temp\cckM1eOc.s:21150  .debug_str:0000000000000ebc .LASF496
C:\Users\stapi\AppData\Local\Temp\cckM1eOc.s:23594  .debug_str:000000000000580f .LASF497
C:\Users\stapi\AppData\Local\Temp\cckM1eOc.s:22838  .debug_str:0000000000004113 .LASF498
C:\Users\stapi\AppData\Local\Temp\cckM1eOc.s:22922  .debug_str:000000000000434a .LASF499
C:\Users\stapi\AppData\Local\Temp\cckM1eOc.s:22650  .debug_str:0000000000003c04 .LASF500
C:\Users\stapi\AppData\Local\Temp\cckM1eOc.s:23666  .debug_str:0000000000005a33 .LASF501
C:\Users\stapi\AppData\Local\Temp\cckM1eOc.s:21206  .debug_str:0000000000001078 .LASF502
C:\Users\stapi\AppData\Local\Temp\cckM1eOc.s:23100  .debug_str:0000000000004884 .LASF503
C:\Users\stapi\AppData\Local\Temp\cckM1eOc.s:23650  .debug_str:00000000000059c6 .LASF504
C:\Users\stapi\AppData\Local\Temp\cckM1eOc.s:22840  .debug_str:0000000000004121 .LASF505
C:\Users\stapi\AppData\Local\Temp\cckM1eOc.s:23464  .debug_str:00000000000053d6 .LASF506
C:\Users\stapi\AppData\Local\Temp\cckM1eOc.s:21340  .debug_str:0000000000001429 .LASF507
C:\Users\stapi\AppData\Local\Temp\cckM1eOc.s:23026  .debug_str:0000000000004642 .LASF508
C:\Users\stapi\AppData\Local\Temp\cckM1eOc.s:23344  .debug_str:0000000000005054 .LASF509
C:\Users\stapi\AppData\Local\Temp\cckM1eOc.s:23534  .debug_str:0000000000005663 .LASF510
C:\Users\stapi\AppData\Local\Temp\cckM1eOc.s:23238  .debug_str:0000000000004d3d .LASF511
C:\Users\stapi\AppData\Local\Temp\cckM1eOc.s:22004  .debug_str:00000000000027ca .LASF512
C:\Users\stapi\AppData\Local\Temp\cckM1eOc.s:22494  .debug_str:0000000000003789 .LASF513
C:\Users\stapi\AppData\Local\Temp\cckM1eOc.s:23296  .debug_str:0000000000004edc .LASF514
C:\Users\stapi\AppData\Local\Temp\cckM1eOc.s:20678  .debug_str:000000000000011e .LASF515
C:\Users\stapi\AppData\Local\Temp\cckM1eOc.s:23240  .debug_str:0000000000004d47 .LASF516
C:\Users\stapi\AppData\Local\Temp\cckM1eOc.s:22640  .debug_str:0000000000003bb9 .LASF517
C:\Users\stapi\AppData\Local\Temp\cckM1eOc.s:22096  .debug_str:0000000000002a4e .LASF518
C:\Users\stapi\AppData\Local\Temp\cckM1eOc.s:23694  .debug_str:0000000000005b09 .LASF519
C:\Users\stapi\AppData\Local\Temp\cckM1eOc.s:21014  .debug_str:0000000000000ad2 .LASF520
C:\Users\stapi\AppData\Local\Temp\cckM1eOc.s:22632  .debug_str:0000000000003b7d .LASF521
C:\Users\stapi\AppData\Local\Temp\cckM1eOc.s:21138  .debug_str:0000000000000e83 .LASF522
C:\Users\stapi\AppData\Local\Temp\cckM1eOc.s:20734  .debug_str:00000000000002f6 .LASF523
C:\Users\stapi\AppData\Local\Temp\cckM1eOc.s:22274  .debug_str:0000000000002f99 .LASF524
C:\Users\stapi\AppData\Local\Temp\cckM1eOc.s:22964  .debug_str:000000000000449d .LASF525
C:\Users\stapi\AppData\Local\Temp\cckM1eOc.s:23528  .debug_str:000000000000562c .LASF526
C:\Users\stapi\AppData\Local\Temp\cckM1eOc.s:22784  .debug_str:0000000000003fb1 .LASF527
C:\Users\stapi\AppData\Local\Temp\cckM1eOc.s:21940  .debug_str:00000000000025a0 .LASF528
C:\Users\stapi\AppData\Local\Temp\cckM1eOc.s:23692  .debug_str:0000000000005b04 .LASF529
C:\Users\stapi\AppData\Local\Temp\cckM1eOc.s:22018  .debug_str:000000000000283a .LASF530
C:\Users\stapi\AppData\Local\Temp\cckM1eOc.s:21252  .debug_str:00000000000011b3 .LASF531
C:\Users\stapi\AppData\Local\Temp\cckM1eOc.s:21260  .debug_str:00000000000011df .LASF532
C:\Users\stapi\AppData\Local\Temp\cckM1eOc.s:22190  .debug_str:0000000000002d25 .LASF533
C:\Users\stapi\AppData\Local\Temp\cckM1eOc.s:21258  .debug_str:00000000000011d5 .LASF534
C:\Users\stapi\AppData\Local\Temp\cckM1eOc.s:21838  .debug_str:000000000000227a .LASF535
C:\Users\stapi\AppData\Local\Temp\cckM1eOc.s:21354  .debug_str:0000000000001489 .LASF536
C:\Users\stapi\AppData\Local\Temp\cckM1eOc.s:22262  .debug_str:0000000000002f4d .LASF537
C:\Users\stapi\AppData\Local\Temp\cckM1eOc.s:22796  .debug_str:0000000000004003 .LASF538
C:\Users\stapi\AppData\Local\Temp\cckM1eOc.s:21604  .debug_str:0000000000001bb9 .LASF539
C:\Users\stapi\AppData\Local\Temp\cckM1eOc.s:21022  .debug_str:0000000000000b02 .LASF540
C:\Users\stapi\AppData\Local\Temp\cckM1eOc.s:22504  .debug_str:00000000000037e4 .LASF541
C:\Users\stapi\AppData\Local\Temp\cckM1eOc.s:21578  .debug_str:0000000000001b0b .LASF542
C:\Users\stapi\AppData\Local\Temp\cckM1eOc.s:23466  .debug_str:00000000000053ef .LASF543
C:\Users\stapi\AppData\Local\Temp\cckM1eOc.s:22100  .debug_str:0000000000002a72 .LASF544
C:\Users\stapi\AppData\Local\Temp\cckM1eOc.s:21874  .debug_str:0000000000002385 .LASF545
C:\Users\stapi\AppData\Local\Temp\cckM1eOc.s:23110  .debug_str:00000000000048e9 .LASF546
C:\Users\stapi\AppData\Local\Temp\cckM1eOc.s:21664  .debug_str:0000000000001d3c .LASF547
C:\Users\stapi\AppData\Local\Temp\cckM1eOc.s:21910  .debug_str:00000000000024b2 .LASF548
C:\Users\stapi\AppData\Local\Temp\cckM1eOc.s:21712  .debug_str:0000000000001e99 .LASF549
C:\Users\stapi\AppData\Local\Temp\cckM1eOc.s:23462  .debug_str:00000000000053cb .LASF550
C:\Users\stapi\AppData\Local\Temp\cckM1eOc.s:21876  .debug_str:0000000000002390 .LASF551
C:\Users\stapi\AppData\Local\Temp\cckM1eOc.s:22658  .debug_str:0000000000003c37 .LASF552
C:\Users\stapi\AppData\Local\Temp\cckM1eOc.s:23504  .debug_str:0000000000005501 .LASF553
C:\Users\stapi\AppData\Local\Temp\cckM1eOc.s:21648  .debug_str:0000000000001cc2 .LASF554
C:\Users\stapi\AppData\Local\Temp\cckM1eOc.s:23424  .debug_str:00000000000052a3 .LASF555
C:\Users\stapi\AppData\Local\Temp\cckM1eOc.s:22570  .debug_str:00000000000039ce .LASF556
C:\Users\stapi\AppData\Local\Temp\cckM1eOc.s:23274  .debug_str:0000000000004e4c .LASF557
C:\Users\stapi\AppData\Local\Temp\cckM1eOc.s:21398  .debug_str:00000000000015f2 .LASF558
C:\Users\stapi\AppData\Local\Temp\cckM1eOc.s:21914  .debug_str:00000000000024db .LASF559
C:\Users\stapi\AppData\Local\Temp\cckM1eOc.s:23022  .debug_str:0000000000004622 .LASF560
C:\Users\stapi\AppData\Local\Temp\cckM1eOc.s:21528  .debug_str:000000000000199d .LASF561
C:\Users\stapi\AppData\Local\Temp\cckM1eOc.s:21730  .debug_str:0000000000001f2e .LASF562
C:\Users\stapi\AppData\Local\Temp\cckM1eOc.s:20972  .debug_str:0000000000000987 .LASF563
C:\Users\stapi\AppData\Local\Temp\cckM1eOc.s:23000  .debug_str:00000000000045a3 .LASF564
C:\Users\stapi\AppData\Local\Temp\cckM1eOc.s:22670  .debug_str:0000000000003c82 .LASF565
C:\Users\stapi\AppData\Local\Temp\cckM1eOc.s:22876  .debug_str:000000000000422c .LASF566
C:\Users\stapi\AppData\Local\Temp\cckM1eOc.s:22308  .debug_str:00000000000030bf .LASF567
C:\Users\stapi\AppData\Local\Temp\cckM1eOc.s:22350  .debug_str:00000000000031f3 .LASF568
C:\Users\stapi\AppData\Local\Temp\cckM1eOc.s:22348  .debug_str:00000000000031ee .LASF569
C:\Users\stapi\AppData\Local\Temp\cckM1eOc.s:22954  .debug_str:000000000000446b .LASF570
C:\Users\stapi\AppData\Local\Temp\cckM1eOc.s:23190  .debug_str:0000000000004ba7 .LASF571
C:\Users\stapi\AppData\Local\Temp\cckM1eOc.s:22656  .debug_str:0000000000003c2a .LASF572
C:\Users\stapi\AppData\Local\Temp\cckM1eOc.s:21948  .debug_str:00000000000025d9 .LASF573
C:\Users\stapi\AppData\Local\Temp\cckM1eOc.s:20946  .debug_str:00000000000008e1 .LASF574
C:\Users\stapi\AppData\Local\Temp\cckM1eOc.s:21992  .debug_str:000000000000276a .LASF575
C:\Users\stapi\AppData\Local\Temp\cckM1eOc.s:21236  .debug_str:0000000000001145 .LASF576
C:\Users\stapi\AppData\Local\Temp\cckM1eOc.s:22730  .debug_str:0000000000003e1e .LASF577
C:\Users\stapi\AppData\Local\Temp\cckM1eOc.s:22602  .debug_str:0000000000003abb .LASF578
C:\Users\stapi\AppData\Local\Temp\cckM1eOc.s:22300  .debug_str:0000000000003082 .LASF579
C:\Users\stapi\AppData\Local\Temp\cckM1eOc.s:21286  .debug_str:00000000000012a7 .LASF580
C:\Users\stapi\AppData\Local\Temp\cckM1eOc.s:21108  .debug_str:0000000000000d92 .LASF581
C:\Users\stapi\AppData\Local\Temp\cckM1eOc.s:21652  .debug_str:0000000000001cdd .LASF582
C:\Users\stapi\AppData\Local\Temp\cckM1eOc.s:22370  .debug_str:000000000000337c .LASF583
C:\Users\stapi\AppData\Local\Temp\cckM1eOc.s:23510  .debug_str:0000000000005523 .LASF584
C:\Users\stapi\AppData\Local\Temp\cckM1eOc.s:23350  .debug_str:0000000000005076 .LASF585
C:\Users\stapi\AppData\Local\Temp\cckM1eOc.s:20958  .debug_str:0000000000000926 .LASF586
C:\Users\stapi\AppData\Local\Temp\cckM1eOc.s:23008  .debug_str:00000000000045d2 .LASF587
C:\Users\stapi\AppData\Local\Temp\cckM1eOc.s:22396  .debug_str:0000000000003453 .LASF588
C:\Users\stapi\AppData\Local\Temp\cckM1eOc.s:21804  .debug_str:000000000000216a .LASF589
C:\Users\stapi\AppData\Local\Temp\cckM1eOc.s:20902  .debug_str:00000000000007a1 .LASF590
C:\Users\stapi\AppData\Local\Temp\cckM1eOc.s:23314  .debug_str:0000000000004f78 .LASF591
C:\Users\stapi\AppData\Local\Temp\cckM1eOc.s:21772  .debug_str:0000000000002082 .LASF592
C:\Users\stapi\AppData\Local\Temp\cckM1eOc.s:22932  .debug_str:00000000000043b4 .LASF593
C:\Users\stapi\AppData\Local\Temp\cckM1eOc.s:23036  .debug_str:0000000000004699 .LASF594
C:\Users\stapi\AppData\Local\Temp\cckM1eOc.s:22078  .debug_str:00000000000029d1 .LASF595
C:\Users\stapi\AppData\Local\Temp\cckM1eOc.s:23336  .debug_str:0000000000005006 .LASF596
C:\Users\stapi\AppData\Local\Temp\cckM1eOc.s:22624  .debug_str:0000000000003b49 .LASF597
C:\Users\stapi\AppData\Local\Temp\cckM1eOc.s:21148  .debug_str:0000000000000ea9 .LASF598
C:\Users\stapi\AppData\Local\Temp\cckM1eOc.s:22806  .debug_str:0000000000004058 .LASF599
C:\Users\stapi\AppData\Local\Temp\cckM1eOc.s:22896  .debug_str:0000000000004294 .LASF600
C:\Users\stapi\AppData\Local\Temp\cckM1eOc.s:20648  .debug_str:000000000000004e .LASF601
C:\Users\stapi\AppData\Local\Temp\cckM1eOc.s:21974  .debug_str:00000000000026d5 .LASF602
C:\Users\stapi\AppData\Local\Temp\cckM1eOc.s:21988  .debug_str:0000000000002746 .LASF603
C:\Users\stapi\AppData\Local\Temp\cckM1eOc.s:22446  .debug_str:00000000000035ea .LASF604
C:\Users\stapi\AppData\Local\Temp\cckM1eOc.s:20792  .debug_str:0000000000000494 .LASF605
C:\Users\stapi\AppData\Local\Temp\cckM1eOc.s:20786  .debug_str:000000000000045f .LASF606
C:\Users\stapi\AppData\Local\Temp\cckM1eOc.s:21336  .debug_str:000000000000140a .LASF607
C:\Users\stapi\AppData\Local\Temp\cckM1eOc.s:21046  .debug_str:0000000000000bc7 .LASF608
C:\Users\stapi\AppData\Local\Temp\cckM1eOc.s:23398  .debug_str:00000000000051fd .LASF609
C:\Users\stapi\AppData\Local\Temp\cckM1eOc.s:22360  .debug_str:0000000000003245 .LASF610
C:\Users\stapi\AppData\Local\Temp\cckM1eOc.s:23160  .debug_str:0000000000004ac3 .LASF611
C:\Users\stapi\AppData\Local\Temp\cckM1eOc.s:21690  .debug_str:0000000000001de3 .LASF612
C:\Users\stapi\AppData\Local\Temp\cckM1eOc.s:20752  .debug_str:000000000000037b .LASF613
C:\Users\stapi\AppData\Local\Temp\cckM1eOc.s:21264  .debug_str:00000000000011fa .LASF614
C:\Users\stapi\AppData\Local\Temp\cckM1eOc.s:22034  .debug_str:00000000000028ad .LASF615
C:\Users\stapi\AppData\Local\Temp\cckM1eOc.s:21550  .debug_str:0000000000001a34 .LASF616
C:\Users\stapi\AppData\Local\Temp\cckM1eOc.s:21054  .debug_str:0000000000000c11 .LASF617
C:\Users\stapi\AppData\Local\Temp\cckM1eOc.s:22150  .debug_str:0000000000002bd7 .LASF618
C:\Users\stapi\AppData\Local\Temp\cckM1eOc.s:23200  .debug_str:0000000000004bfc .LASF619
C:\Users\stapi\AppData\Local\Temp\cckM1eOc.s:21960  .debug_str:000000000000263e .LASF620
C:\Users\stapi\AppData\Local\Temp\cckM1eOc.s:23166  .debug_str:0000000000004afe .LASF621
C:\Users\stapi\AppData\Local\Temp\cckM1eOc.s:21602  .debug_str:0000000000001ba2 .LASF622
C:\Users\stapi\AppData\Local\Temp\cckM1eOc.s:21950  .debug_str:00000000000025e9 .LASF623
C:\Users\stapi\AppData\Local\Temp\cckM1eOc.s:21472  .debug_str:00000000000017ed .LASF624
C:\Users\stapi\AppData\Local\Temp\cckM1eOc.s:21900  .debug_str:0000000000002464 .LASF625
C:\Users\stapi\AppData\Local\Temp\cckM1eOc.s:21896  .debug_str:000000000000243f .LASF626
C:\Users\stapi\AppData\Local\Temp\cckM1eOc.s:23340  .debug_str:0000000000005032 .LASF627
C:\Users\stapi\AppData\Local\Temp\cckM1eOc.s:23546  .debug_str:00000000000056ac .LASF628
C:\Users\stapi\AppData\Local\Temp\cckM1eOc.s:22918  .debug_str:0000000000004334 .LASF629
C:\Users\stapi\AppData\Local\Temp\cckM1eOc.s:21140  .debug_str:0000000000000e89 .LASF630
C:\Users\stapi\AppData\Local\Temp\cckM1eOc.s:22338  .debug_str:00000000000031aa .LASF631
C:\Users\stapi\AppData\Local\Temp\cckM1eOc.s:22734  .debug_str:0000000000003e46 .LASF632
C:\Users\stapi\AppData\Local\Temp\cckM1eOc.s:21920  .debug_str:0000000000002514 .LASF633
C:\Users\stapi\AppData\Local\Temp\cckM1eOc.s:20714  .debug_str:0000000000000242 .LASF634
C:\Users\stapi\AppData\Local\Temp\cckM1eOc.s:23544  .debug_str:00000000000056a0 .LASF635
C:\Users\stapi\AppData\Local\Temp\cckM1eOc.s:22132  .debug_str:0000000000002b52 .LASF636
C:\Users\stapi\AppData\Local\Temp\cckM1eOc.s:20928  .debug_str:000000000000085e .LASF637
C:\Users\stapi\AppData\Local\Temp\cckM1eOc.s:22920  .debug_str:000000000000433c .LASF638
C:\Users\stapi\AppData\Local\Temp\cckM1eOc.s:23170  .debug_str:0000000000004b1d .LASF639
C:\Users\stapi\AppData\Local\Temp\cckM1eOc.s:23228  .debug_str:0000000000004cd4 .LASF640
C:\Users\stapi\AppData\Local\Temp\cckM1eOc.s:20938  .debug_str:00000000000008a9 .LASF641
C:\Users\stapi\AppData\Local\Temp\cckM1eOc.s:23052  .debug_str:0000000000004726 .LASF642
C:\Users\stapi\AppData\Local\Temp\cckM1eOc.s:21882  .debug_str:00000000000023c3 .LASF643
C:\Users\stapi\AppData\Local\Temp\cckM1eOc.s:21510  .debug_str:0000000000001913 .LASF644
C:\Users\stapi\AppData\Local\Temp\cckM1eOc.s:21636  .debug_str:0000000000001c7c .LASF645
C:\Users\stapi\AppData\Local\Temp\cckM1eOc.s:21152  .debug_str:0000000000000ed0 .LASF646
C:\Users\stapi\AppData\Local\Temp\cckM1eOc.s:20654  .debug_str:0000000000000078 .LASF647
C:\Users\stapi\AppData\Local\Temp\cckM1eOc.s:22998  .debug_str:0000000000004599 .LASF648
C:\Users\stapi\AppData\Local\Temp\cckM1eOc.s:23708  .debug_str:0000000000005b92 .LASF649
C:\Users\stapi\AppData\Local\Temp\cckM1eOc.s:23400  .debug_str:000000000000520a .LASF650
C:\Users\stapi\AppData\Local\Temp\cckM1eOc.s:22948  .debug_str:0000000000004439 .LASF651
C:\Users\stapi\AppData\Local\Temp\cckM1eOc.s:23382  .debug_str:0000000000005158 .LASF652
C:\Users\stapi\AppData\Local\Temp\cckM1eOc.s:22438  .debug_str:00000000000035b5 .LASF653
C:\Users\stapi\AppData\Local\Temp\cckM1eOc.s:21720  .debug_str:0000000000001ed4 .LASF654
C:\Users\stapi\AppData\Local\Temp\cckM1eOc.s:22722  .debug_str:0000000000003de1 .LASF655
C:\Users\stapi\AppData\Local\Temp\cckM1eOc.s:22832  .debug_str:00000000000040f0 .LASF656
C:\Users\stapi\AppData\Local\Temp\cckM1eOc.s:23280  .debug_str:0000000000004e73 .LASF657
C:\Users\stapi\AppData\Local\Temp\cckM1eOc.s:20812  .debug_str:0000000000000525 .LASF658
C:\Users\stapi\AppData\Local\Temp\cckM1eOc.s:22472  .debug_str:00000000000036e6 .LASF659
C:\Users\stapi\AppData\Local\Temp\cckM1eOc.s:23542  .debug_str:0000000000005697 .LASF660
C:\Users\stapi\AppData\Local\Temp\cckM1eOc.s:21416  .debug_str:0000000000001674 .LASF661
C:\Users\stapi\AppData\Local\Temp\cckM1eOc.s:21432  .debug_str:00000000000016ed .LASF662
C:\Users\stapi\AppData\Local\Temp\cckM1eOc.s:21610  .debug_str:0000000000001be0 .LASF663
C:\Users\stapi\AppData\Local\Temp\cckM1eOc.s:23282  .debug_str:0000000000004e7e .LASF664
C:\Users\stapi\AppData\Local\Temp\cckM1eOc.s:21430  .debug_str:00000000000016db .LASF665
C:\Users\stapi\AppData\Local\Temp\cckM1eOc.s:20708  .debug_str:0000000000000214 .LASF666
C:\Users\stapi\AppData\Local\Temp\cckM1eOc.s:21126  .debug_str:0000000000000e13 .LASF667
C:\Users\stapi\AppData\Local\Temp\cckM1eOc.s:21058  .debug_str:0000000000000c2c .LASF668
C:\Users\stapi\AppData\Local\Temp\cckM1eOc.s:21728  .debug_str:0000000000001f24 .LASF669
C:\Users\stapi\AppData\Local\Temp\cckM1eOc.s:22402  .debug_str:0000000000003492 .LASF670
C:\Users\stapi\AppData\Local\Temp\cckM1eOc.s:23184  .debug_str:0000000000004b7e .LASF671
C:\Users\stapi\AppData\Local\Temp\cckM1eOc.s:21778  .debug_str:00000000000020ac .LASF672
C:\Users\stapi\AppData\Local\Temp\cckM1eOc.s:22500  .debug_str:00000000000037be .LASF673
C:\Users\stapi\AppData\Local\Temp\cckM1eOc.s:22972  .debug_str:00000000000044d2 .LASF674
C:\Users\stapi\AppData\Local\Temp\cckM1eOc.s:21358  .debug_str:00000000000014c3 .LASF675
C:\Users\stapi\AppData\Local\Temp\cckM1eOc.s:23474  .debug_str:0000000000005425 .LASF676
C:\Users\stapi\AppData\Local\Temp\cckM1eOc.s:23006  .debug_str:00000000000045cc .LASF677
C:\Users\stapi\AppData\Local\Temp\cckM1eOc.s:21200  .debug_str:0000000000001044 .LASF678
C:\Users\stapi\AppData\Local\Temp\cckM1eOc.s:22406  .debug_str:00000000000034a4 .LASF679
C:\Users\stapi\AppData\Local\Temp\cckM1eOc.s:20878  .debug_str:0000000000000717 .LASF680
C:\Users\stapi\AppData\Local\Temp\cckM1eOc.s:20978  .debug_str:00000000000009a4 .LASF681
C:\Users\stapi\AppData\Local\Temp\cckM1eOc.s:22258  .debug_str:0000000000002f35 .LASF682
C:\Users\stapi\AppData\Local\Temp\cckM1eOc.s:21036  .debug_str:0000000000000b70 .LASF683
C:\Users\stapi\AppData\Local\Temp\cckM1eOc.s:22174  .debug_str:0000000000002c90 .LASF684
C:\Users\stapi\AppData\Local\Temp\cckM1eOc.s:22642  .debug_str:0000000000003bcb .LASF685
C:\Users\stapi\AppData\Local\Temp\cckM1eOc.s:23492  .debug_str:00000000000054aa .LASF686
C:\Users\stapi\AppData\Local\Temp\cckM1eOc.s:21244  .debug_str:0000000000001176 .LASF687
C:\Users\stapi\AppData\Local\Temp\cckM1eOc.s:20922  .debug_str:0000000000000822 .LASF688
C:\Users\stapi\AppData\Local\Temp\cckM1eOc.s:22666  .debug_str:0000000000003c65 .LASF689
C:\Users\stapi\AppData\Local\Temp\cckM1eOc.s:22014  .debug_str:0000000000002818 .LASF690
C:\Users\stapi\AppData\Local\Temp\cckM1eOc.s:20912  .debug_str:00000000000007d6 .LASF691
C:\Users\stapi\AppData\Local\Temp\cckM1eOc.s:22474  .debug_str:00000000000036fd .LASF692
C:\Users\stapi\AppData\Local\Temp\cckM1eOc.s:21392  .debug_str:00000000000015bf .LASF693
C:\Users\stapi\AppData\Local\Temp\cckM1eOc.s:21300  .debug_str:000000000000131a .LASF694
C:\Users\stapi\AppData\Local\Temp\cckM1eOc.s:22450  .debug_str:000000000000361b .LASF695
C:\Users\stapi\AppData\Local\Temp\cckM1eOc.s:20952  .debug_str:000000000000090d .LASF696
C:\Users\stapi\AppData\Local\Temp\cckM1eOc.s:23452  .debug_str:000000000000538e .LASF697
C:\Users\stapi\AppData\Local\Temp\cckM1eOc.s:23468  .debug_str:00000000000053fe .LASF698
C:\Users\stapi\AppData\Local\Temp\cckM1eOc.s:21310  .debug_str:0000000000001367 .LASF699
C:\Users\stapi\AppData\Local\Temp\cckM1eOc.s:20906  .debug_str:00000000000007ba .LASF700
C:\Users\stapi\AppData\Local\Temp\cckM1eOc.s:22596  .debug_str:0000000000003aa0 .LASF701
C:\Users\stapi\AppData\Local\Temp\cckM1eOc.s:22826  .debug_str:00000000000040d8 .LASF702
C:\Users\stapi\AppData\Local\Temp\cckM1eOc.s:21210  .debug_str:0000000000001096 .LASF703
C:\Users\stapi\AppData\Local\Temp\cckM1eOc.s:21710  .debug_str:0000000000001e8a .LASF704
C:\Users\stapi\AppData\Local\Temp\cckM1eOc.s:22436  .debug_str:00000000000035ab .LASF705
C:\Users\stapi\AppData\Local\Temp\cckM1eOc.s:20698  .debug_str:00000000000001c4 .LASF706
C:\Users\stapi\AppData\Local\Temp\cckM1eOc.s:21724  .debug_str:0000000000001ef2 .LASF707
C:\Users\stapi\AppData\Local\Temp\cckM1eOc.s:20988  .debug_str:00000000000009ef .LASF708
C:\Users\stapi\AppData\Local\Temp\cckM1eOc.s:22502  .debug_str:00000000000037db .LASF709
C:\Users\stapi\AppData\Local\Temp\cckM1eOc.s:21104  .debug_str:0000000000000d7f .LASF710
C:\Users\stapi\AppData\Local\Temp\cckM1eOc.s:21822  .debug_str:00000000000021ea .LASF711
C:\Users\stapi\AppData\Local\Temp\cckM1eOc.s:22006  .debug_str:00000000000027e0 .LASF712
C:\Users\stapi\AppData\Local\Temp\cckM1eOc.s:20942  .debug_str:00000000000008ca .LASF713
C:\Users\stapi\AppData\Local\Temp\cckM1eOc.s:23328  .debug_str:0000000000004fc2 .LASF714
C:\Users\stapi\AppData\Local\Temp\cckM1eOc.s:21976  .debug_str:00000000000026de .LASF715
C:\Users\stapi\AppData\Local\Temp\cckM1eOc.s:22720  .debug_str:0000000000003dcd .LASF716
C:\Users\stapi\AppData\Local\Temp\cckM1eOc.s:21524  .debug_str:000000000000197e .LASF717
C:\Users\stapi\AppData\Local\Temp\cckM1eOc.s:22802  .debug_str:0000000000004035 .LASF718
C:\Users\stapi\AppData\Local\Temp\cckM1eOc.s:22772  .debug_str:0000000000003f57 .LASF719
C:\Users\stapi\AppData\Local\Temp\cckM1eOc.s:20984  .debug_str:00000000000009cc .LASF720
C:\Users\stapi\AppData\Local\Temp\cckM1eOc.s:21930  .debug_str:000000000000256b .LASF721
C:\Users\stapi\AppData\Local\Temp\cckM1eOc.s:21024  .debug_str:0000000000000b0b .LASF722
C:\Users\stapi\AppData\Local\Temp\cckM1eOc.s:23470  .debug_str:0000000000005407 .LASF723
C:\Users\stapi\AppData\Local\Temp\cckM1eOc.s:21394  .debug_str:00000000000015d9 .LASF724
C:\Users\stapi\AppData\Local\Temp\cckM1eOc.s:22046  .debug_str:00000000000028f1 .LASF725
C:\Users\stapi\AppData\Local\Temp\cckM1eOc.s:21998  .debug_str:00000000000027a5 .LASF726
C:\Users\stapi\AppData\Local\Temp\cckM1eOc.s:22992  .debug_str:000000000000456d .LASF727
C:\Users\stapi\AppData\Local\Temp\cckM1eOc.s:22090  .debug_str:0000000000002a2a .LASF728
C:\Users\stapi\AppData\Local\Temp\cckM1eOc.s:20672  .debug_str:00000000000000f3 .LASF729
C:\Users\stapi\AppData\Local\Temp\cckM1eOc.s:22900  .debug_str:00000000000042bf .LASF730
C:\Users\stapi\AppData\Local\Temp\cckM1eOc.s:23150  .debug_str:0000000000004a97 .LASF731
C:\Users\stapi\AppData\Local\Temp\cckM1eOc.s:20908  .debug_str:00000000000007bf .LASF732
C:\Users\stapi\AppData\Local\Temp\cckM1eOc.s:21598  .debug_str:0000000000001b88 .LASF733
C:\Users\stapi\AppData\Local\Temp\cckM1eOc.s:22970  .debug_str:00000000000044c7 .LASF734
C:\Users\stapi\AppData\Local\Temp\cckM1eOc.s:23508  .debug_str:000000000000551d .LASF735
C:\Users\stapi\AppData\Local\Temp\cckM1eOc.s:22774  .debug_str:0000000000003f69 .LASF736
C:\Users\stapi\AppData\Local\Temp\cckM1eOc.s:21276  .debug_str:000000000000125d .LASF737
C:\Users\stapi\AppData\Local\Temp\cckM1eOc.s:23068  .debug_str:0000000000004787 .LASF738
C:\Users\stapi\AppData\Local\Temp\cckM1eOc.s:23660  .debug_str:0000000000005a05 .LASF739
C:\Users\stapi\AppData\Local\Temp\cckM1eOc.s:22946  .debug_str:000000000000442e .LASF740
C:\Users\stapi\AppData\Local\Temp\cckM1eOc.s:21208  .debug_str:0000000000001089 .LASF741
C:\Users\stapi\AppData\Local\Temp\cckM1eOc.s:22066  .debug_str:000000000000298a .LASF742
C:\Users\stapi\AppData\Local\Temp\cckM1eOc.s:22098  .debug_str:0000000000002a64 .LASF743
C:\Users\stapi\AppData\Local\Temp\cckM1eOc.s:23010  .debug_str:00000000000045df .LASF744
C:\Users\stapi\AppData\Local\Temp\cckM1eOc.s:23620  .debug_str:00000000000058d2 .LASF745
C:\Users\stapi\AppData\Local\Temp\cckM1eOc.s:22152  .debug_str:0000000000002be5 .LASF746
C:\Users\stapi\AppData\Local\Temp\cckM1eOc.s:22008  .debug_str:00000000000027eb .LASF747
C:\Users\stapi\AppData\Local\Temp\cckM1eOc.s:21956  .debug_str:0000000000002620 .LASF748
C:\Users\stapi\AppData\Local\Temp\cckM1eOc.s:21484  .debug_str:000000000000184f .LASF749
C:\Users\stapi\AppData\Local\Temp\cckM1eOc.s:21192  .debug_str:0000000000001002 .LASF750
C:\Users\stapi\AppData\Local\Temp\cckM1eOc.s:21402  .debug_str:000000000000161a .LASF751
C:\Users\stapi\AppData\Local\Temp\cckM1eOc.s:22206  .debug_str:0000000000002da1 .LASF752
C:\Users\stapi\AppData\Local\Temp\cckM1eOc.s:23256  .debug_str:0000000000004dc4 .LASF753
C:\Users\stapi\AppData\Local\Temp\cckM1eOc.s:22782  .debug_str:0000000000003f9d .LASF754
C:\Users\stapi\AppData\Local\Temp\cckM1eOc.s:23720  .debug_str:0000000000005be9 .LASF755
C:\Users\stapi\AppData\Local\Temp\cckM1eOc.s:23060  .debug_str:000000000000475d .LASF756
C:\Users\stapi\AppData\Local\Temp\cckM1eOc.s:21630  .debug_str:0000000000001c5e .LASF757
C:\Users\stapi\AppData\Local\Temp\cckM1eOc.s:21222  .debug_str:00000000000010ea .LASF758
C:\Users\stapi\AppData\Local\Temp\cckM1eOc.s:21840  .debug_str:0000000000002289 .LASF759
C:\Users\stapi\AppData\Local\Temp\cckM1eOc.s:23368  .debug_str:00000000000050e8 .LASF760
C:\Users\stapi\AppData\Local\Temp\cckM1eOc.s:22514  .debug_str:000000000000382f .LASF761
C:\Users\stapi\AppData\Local\Temp\cckM1eOc.s:22940  .debug_str:00000000000043fd .LASF762
C:\Users\stapi\AppData\Local\Temp\cckM1eOc.s:21740  .debug_str:0000000000001f6f .LASF763
C:\Users\stapi\AppData\Local\Temp\cckM1eOc.s:22202  .debug_str:0000000000002d87 .LASF764
C:\Users\stapi\AppData\Local\Temp\cckM1eOc.s:20856  .debug_str:0000000000000668 .LASF765
C:\Users\stapi\AppData\Local\Temp\cckM1eOc.s:20764  .debug_str:00000000000003c5 .LASF766
C:\Users\stapi\AppData\Local\Temp\cckM1eOc.s:22728  .debug_str:0000000000003e05 .LASF767
C:\Users\stapi\AppData\Local\Temp\cckM1eOc.s:22426  .debug_str:000000000000355c .LASF768
C:\Users\stapi\AppData\Local\Temp\cckM1eOc.s:22032  .debug_str:00000000000028a3 .LASF769
C:\Users\stapi\AppData\Local\Temp\cckM1eOc.s:22580  .debug_str:0000000000003a25 .LASF770
C:\Users\stapi\AppData\Local\Temp\cckM1eOc.s:20834  .debug_str:00000000000005c9 .LASF771
C:\Users\stapi\AppData\Local\Temp\cckM1eOc.s:21212  .debug_str:00000000000010aa .LASF772
C:\Users\stapi\AppData\Local\Temp\cckM1eOc.s:22532  .debug_str:00000000000038b0 .LASF773
C:\Users\stapi\AppData\Local\Temp\cckM1eOc.s:23648  .debug_str:00000000000059be .LASF774
C:\Users\stapi\AppData\Local\Temp\cckM1eOc.s:23578  .debug_str:0000000000005791 .LASF775
C:\Users\stapi\AppData\Local\Temp\cckM1eOc.s:22938  .debug_str:00000000000043eb .LASF776
C:\Users\stapi\AppData\Local\Temp\cckM1eOc.s:20688  .debug_str:0000000000000183 .LASF777
C:\Users\stapi\AppData\Local\Temp\cckM1eOc.s:22744  .debug_str:0000000000003e90 .LASF778
C:\Users\stapi\AppData\Local\Temp\cckM1eOc.s:20968  .debug_str:000000000000096b .LASF779
C:\Users\stapi\AppData\Local\Temp\cckM1eOc.s:23248  .debug_str:0000000000004d8d .LASF780
C:\Users\stapi\AppData\Local\Temp\cckM1eOc.s:23084  .debug_str:0000000000004814 .LASF781
C:\Users\stapi\AppData\Local\Temp\cckM1eOc.s:23290  .debug_str:0000000000004eb6 .LASF782
C:\Users\stapi\AppData\Local\Temp\cckM1eOc.s:22232  .debug_str:0000000000002e71 .LASF783
C:\Users\stapi\AppData\Local\Temp\cckM1eOc.s:23298  .debug_str:0000000000004ef4 .LASF784
C:\Users\stapi\AppData\Local\Temp\cckM1eOc.s:21978  .debug_str:00000000000026f1 .LASF785
C:\Users\stapi\AppData\Local\Temp\cckM1eOc.s:20814  .debug_str:000000000000053a .LASF786
C:\Users\stapi\AppData\Local\Temp\cckM1eOc.s:22490  .debug_str:0000000000003770 .LASF787
C:\Users\stapi\AppData\Local\Temp\cckM1eOc.s:20822  .debug_str:0000000000000577 .LASF788
C:\Users\stapi\AppData\Local\Temp\cckM1eOc.s:22444  .debug_str:00000000000035de .LASF789
C:\Users\stapi\AppData\Local\Temp\cckM1eOc.s:21218  .debug_str:00000000000010d1 .LASF790
C:\Users\stapi\AppData\Local\Temp\cckM1eOc.s:21670  .debug_str:0000000000001d6f .LASF791
C:\Users\stapi\AppData\Local\Temp\cckM1eOc.s:22854  .debug_str:000000000000418b .LASF792
C:\Users\stapi\AppData\Local\Temp\cckM1eOc.s:23486  .debug_str:0000000000005481 .LASF793
C:\Users\stapi\AppData\Local\Temp\cckM1eOc.s:22688  .debug_str:0000000000003cf8 .LASF794
C:\Users\stapi\AppData\Local\Temp\cckM1eOc.s:21370  .debug_str:0000000000001521 .LASF795
C:\Users\stapi\AppData\Local\Temp\cckM1eOc.s:22630  .debug_str:0000000000003b73 .LASF796
C:\Users\stapi\AppData\Local\Temp\cckM1eOc.s:21454  .debug_str:0000000000001770 .LASF797
C:\Users\stapi\AppData\Local\Temp\cckM1eOc.s:21350  .debug_str:0000000000001469 .LASF798
C:\Users\stapi\AppData\Local\Temp\cckM1eOc.s:22116  .debug_str:0000000000002aed .LASF799
C:\Users\stapi\AppData\Local\Temp\cckM1eOc.s:23520  .debug_str:00000000000055f3 .LASF800
C:\Users\stapi\AppData\Local\Temp\cckM1eOc.s:21894  .debug_str:0000000000002431 .LASF801
C:\Users\stapi\AppData\Local\Temp\cckM1eOc.s:21984  .debug_str:0000000000002721 .LASF802
C:\Users\stapi\AppData\Local\Temp\cckM1eOc.s:20804  .debug_str:00000000000004ec .LASF803
C:\Users\stapi\AppData\Local\Temp\cckM1eOc.s:23334  .debug_str:0000000000004ffc .LASF804
C:\Users\stapi\AppData\Local\Temp\cckM1eOc.s:23530  .debug_str:0000000000005636 .LASF805
C:\Users\stapi\AppData\Local\Temp\cckM1eOc.s:20900  .debug_str:0000000000000785 .LASF806
C:\Users\stapi\AppData\Local\Temp\cckM1eOc.s:20650  .debug_str:000000000000005c .LASF807
C:\Users\stapi\AppData\Local\Temp\cckM1eOc.s:22904  .debug_str:00000000000042d0 .LASF808
C:\Users\stapi\AppData\Local\Temp\cckM1eOc.s:21248  .debug_str:0000000000001198 .LASF809
C:\Users\stapi\AppData\Local\Temp\cckM1eOc.s:21436  .debug_str:0000000000001703 .LASF810
C:\Users\stapi\AppData\Local\Temp\cckM1eOc.s:22290  .debug_str:000000000000302f .LASF811
C:\Users\stapi\AppData\Local\Temp\cckM1eOc.s:20868  .debug_str:00000000000006c7 .LASF812
C:\Users\stapi\AppData\Local\Temp\cckM1eOc.s:22058  .debug_str:000000000000294c .LASF813
C:\Users\stapi\AppData\Local\Temp\cckM1eOc.s:21644  .debug_str:0000000000001cae .LASF814
C:\Users\stapi\AppData\Local\Temp\cckM1eOc.s:21072  .debug_str:0000000000000caf .LASF815
C:\Users\stapi\AppData\Local\Temp\cckM1eOc.s:23410  .debug_str:000000000000524e .LASF816
C:\Users\stapi\AppData\Local\Temp\cckM1eOc.s:21888  .debug_str:0000000000002405 .LASF817
C:\Users\stapi\AppData\Local\Temp\cckM1eOc.s:23148  .debug_str:0000000000004a90 .LASF818
C:\Users\stapi\AppData\Local\Temp\cckM1eOc.s:23136  .debug_str:0000000000004a28 .LASF819
C:\Users\stapi\AppData\Local\Temp\cckM1eOc.s:22536  .debug_str:00000000000038d1 .LASF820
C:\Users\stapi\AppData\Local\Temp\cckM1eOc.s:22040  .debug_str:00000000000028d0 .LASF821
C:\Users\stapi\AppData\Local\Temp\cckM1eOc.s:22990  .debug_str:0000000000004550 .LASF822
C:\Users\stapi\AppData\Local\Temp\cckM1eOc.s:23202  .debug_str:0000000000004c07 .LASF823
C:\Users\stapi\AppData\Local\Temp\cckM1eOc.s:21308  .debug_str:000000000000135a .LASF824
C:\Users\stapi\AppData\Local\Temp\cckM1eOc.s:21180  .debug_str:0000000000000fb1 .LASF825
C:\Users\stapi\AppData\Local\Temp\cckM1eOc.s:23102  .debug_str:0000000000004899 .LASF826
C:\Users\stapi\AppData\Local\Temp\cckM1eOc.s:22142  .debug_str:0000000000002ba2 .LASF827
C:\Users\stapi\AppData\Local\Temp\cckM1eOc.s:21050  .debug_str:0000000000000bef .LASF828
C:\Users\stapi\AppData\Local\Temp\cckM1eOc.s:21266  .debug_str:000000000000120b .LASF829
C:\Users\stapi\AppData\Local\Temp\cckM1eOc.s:20898  .debug_str:000000000000076e .LASF830
C:\Users\stapi\AppData\Local\Temp\cckM1eOc.s:21912  .debug_str:00000000000024c5 .LASF831
C:\Users\stapi\AppData\Local\Temp\cckM1eOc.s:21446  .debug_str:000000000000172e .LASF832
C:\Users\stapi\AppData\Local\Temp\cckM1eOc.s:23096  .debug_str:0000000000004866 .LASF833
C:\Users\stapi\AppData\Local\Temp\cckM1eOc.s:22622  .debug_str:0000000000003b3c .LASF834
C:\Users\stapi\AppData\Local\Temp\cckM1eOc.s:21516  .debug_str:0000000000001937 .LASF835
C:\Users\stapi\AppData\Local\Temp\cckM1eOc.s:21540  .debug_str:0000000000001a02 .LASF836
C:\Users\stapi\AppData\Local\Temp\cckM1eOc.s:21884  .debug_str:00000000000023dc .LASF837
C:\Users\stapi\AppData\Local\Temp\cckM1eOc.s:22778  .debug_str:0000000000003f86 .LASF838
C:\Users\stapi\AppData\Local\Temp\cckM1eOc.s:22604  .debug_str:0000000000003ad1 .LASF839
C:\Users\stapi\AppData\Local\Temp\cckM1eOc.s:23412  .debug_str:0000000000005259 .LASF840
C:\Users\stapi\AppData\Local\Temp\cckM1eOc.s:22654  .debug_str:0000000000003c21 .LASF841
C:\Users\stapi\AppData\Local\Temp\cckM1eOc.s:23376  .debug_str:000000000000512c .LASF842
C:\Users\stapi\AppData\Local\Temp\cckM1eOc.s:23356  .debug_str:00000000000050ab .LASF843
C:\Users\stapi\AppData\Local\Temp\cckM1eOc.s:22306  .debug_str:00000000000030ba .LASF844
C:\Users\stapi\AppData\Local\Temp\cckM1eOc.s:21318  .debug_str:000000000000139e .LASF845
C:\Users\stapi\AppData\Local\Temp\cckM1eOc.s:23230  .debug_str:0000000000004ce4 .LASF846
C:\Users\stapi\AppData\Local\Temp\cckM1eOc.s:22216  .debug_str:0000000000002df2 .LASF847
C:\Users\stapi\AppData\Local\Temp\cckM1eOc.s:21686  .debug_str:0000000000001dcf .LASF848
C:\Users\stapi\AppData\Local\Temp\cckM1eOc.s:22080  .debug_str:00000000000029e4 .LASF849
C:\Users\stapi\AppData\Local\Temp\cckM1eOc.s:20864  .debug_str:00000000000006ab .LASF850
C:\Users\stapi\AppData\Local\Temp\cckM1eOc.s:22866  .debug_str:00000000000041d7 .LASF851
C:\Users\stapi\AppData\Local\Temp\cckM1eOc.s:21424  .debug_str:00000000000016aa .LASF852
C:\Users\stapi\AppData\Local\Temp\cckM1eOc.s:21622  .debug_str:0000000000001c2a .LASF853
C:\Users\stapi\AppData\Local\Temp\cckM1eOc.s:22260  .debug_str:0000000000002f40 .LASF854
C:\Users\stapi\AppData\Local\Temp\cckM1eOc.s:22984  .debug_str:000000000000453e .LASF855
C:\Users\stapi\AppData\Local\Temp\cckM1eOc.s:22024  .debug_str:000000000000285b .LASF856
C:\Users\stapi\AppData\Local\Temp\cckM1eOc.s:22598  .debug_str:0000000000003aa7 .LASF857
C:\Users\stapi\AppData\Local\Temp\cckM1eOc.s:21388  .debug_str:000000000000159d .LASF858
C:\Users\stapi\AppData\Local\Temp\cckM1eOc.s:20670  .debug_str:00000000000000e1 .LASF859
C:\Users\stapi\AppData\Local\Temp\cckM1eOc.s:23162  .debug_str:0000000000004ad8 .LASF860
C:\Users\stapi\AppData\Local\Temp\cckM1eOc.s:23690  .debug_str:0000000000005af0 .LASF861
C:\Users\stapi\AppData\Local\Temp\cckM1eOc.s:21156  .debug_str:0000000000000eec .LASF862
C:\Users\stapi\AppData\Local\Temp\cckM1eOc.s:22176  .debug_str:0000000000002cac .LASF863
C:\Users\stapi\AppData\Local\Temp\cckM1eOc.s:21660  .debug_str:0000000000001d20 .LASF864
C:\Users\stapi\AppData\Local\Temp\cckM1eOc.s:22470  .debug_str:00000000000036d0 .LASF865
C:\Users\stapi\AppData\Local\Temp\cckM1eOc.s:22750  .debug_str:0000000000003eb4 .LASF866
C:\Users\stapi\AppData\Local\Temp\cckM1eOc.s:21096  .debug_str:0000000000000d3d .LASF867
C:\Users\stapi\AppData\Local\Temp\cckM1eOc.s:22718  .debug_str:0000000000003dbc .LASF868
C:\Users\stapi\AppData\Local\Temp\cckM1eOc.s:23512  .debug_str:000000000000552f .LASF869
C:\Users\stapi\AppData\Local\Temp\cckM1eOc.s:22478  .debug_str:000000000000371d .LASF870
C:\Users\stapi\AppData\Local\Temp\cckM1eOc.s:23086  .debug_str:000000000000481d .LASF871
C:\Users\stapi\AppData\Local\Temp\cckM1eOc.s:23266  .debug_str:0000000000004e15 .LASF872
C:\Users\stapi\AppData\Local\Temp\cckM1eOc.s:21680  .debug_str:0000000000001db3 .LASF873
C:\Users\stapi\AppData\Local\Temp\cckM1eOc.s:22344  .debug_str:00000000000031da .LASF874
C:\Users\stapi\AppData\Local\Temp\cckM1eOc.s:22462  .debug_str:0000000000003688 .LASF875
C:\Users\stapi\AppData\Local\Temp\cckM1eOc.s:21306  .debug_str:0000000000001355 .LASF876
C:\Users\stapi\AppData\Local\Temp\cckM1eOc.s:21346  .debug_str:000000000000144b .LASF877
C:\Users\stapi\AppData\Local\Temp\cckM1eOc.s:21146  .debug_str:0000000000000ea4 .LASF878
C:\Users\stapi\AppData\Local\Temp\cckM1eOc.s:20810  .debug_str:0000000000000520 .LASF879
C:\Users\stapi\AppData\Local\Temp\cckM1eOc.s:22880  .debug_str:0000000000004247 .LASF880
C:\Users\stapi\AppData\Local\Temp\cckM1eOc.s:21408  .debug_str:0000000000001647 .LASF881
C:\Users\stapi\AppData\Local\Temp\cckM1eOc.s:22400  .debug_str:0000000000003483 .LASF882
C:\Users\stapi\AppData\Local\Temp\cckM1eOc.s:22916  .debug_str:0000000000004329 .LASF883
C:\Users\stapi\AppData\Local\Temp\cckM1eOc.s:21412  .debug_str:0000000000001658 .LASF884
C:\Users\stapi\AppData\Local\Temp\cckM1eOc.s:23364  .debug_str:00000000000050d2 .LASF885
C:\Users\stapi\AppData\Local\Temp\cckM1eOc.s:21906  .debug_str:000000000000249a .LASF886
C:\Users\stapi\AppData\Local\Temp\cckM1eOc.s:23300  .debug_str:0000000000004f07 .LASF887
C:\Users\stapi\AppData\Local\Temp\cckM1eOc.s:21004  .debug_str:0000000000000a7e .LASF888
C:\Users\stapi\AppData\Local\Temp\cckM1eOc.s:22764  .debug_str:0000000000003f1c .LASF889
C:\Users\stapi\AppData\Local\Temp\cckM1eOc.s:21188  .debug_str:0000000000000fef .LASF890
C:\Users\stapi\AppData\Local\Temp\cckM1eOc.s:22584  .debug_str:0000000000003a44 .LASF891
C:\Users\stapi\AppData\Local\Temp\cckM1eOc.s:23206  .debug_str:0000000000004c2a .LASF892
C:\Users\stapi\AppData\Local\Temp\cckM1eOc.s:23700  .debug_str:0000000000005b48 .LASF893
C:\Users\stapi\AppData\Local\Temp\cckM1eOc.s:22086  .debug_str:0000000000002a0e .LASF894
C:\Users\stapi\AppData\Local\Temp\cckM1eOc.s:21214  .debug_str:00000000000010b1 .LASF895
C:\Users\stapi\AppData\Local\Temp\cckM1eOc.s:22740  .debug_str:0000000000003e6b .LASF896
C:\Users\stapi\AppData\Local\Temp\cckM1eOc.s:22844  .debug_str:000000000000414a .LASF897
C:\Users\stapi\AppData\Local\Temp\cckM1eOc.s:23268  .debug_str:0000000000004e1b .LASF898
C:\Users\stapi\AppData\Local\Temp\cckM1eOc.s:22612  .debug_str:0000000000003b01 .LASF899
C:\Users\stapi\AppData\Local\Temp\cckM1eOc.s:23378  .debug_str:0000000000005141 .LASF900
C:\Users\stapi\AppData\Local\Temp\cckM1eOc.s:22022  .debug_str:0000000000002855 .LASF901
C:\Users\stapi\AppData\Local\Temp\cckM1eOc.s:23146  .debug_str:0000000000004a83 .LASF902
C:\Users\stapi\AppData\Local\Temp\cckM1eOc.s:20826  .debug_str:0000000000000595 .LASF903
C:\Users\stapi\AppData\Local\Temp\cckM1eOc.s:22146  .debug_str:0000000000002bbd .LASF904
C:\Users\stapi\AppData\Local\Temp\cckM1eOc.s:20948  .debug_str:00000000000008f4 .LASF905
C:\Users\stapi\AppData\Local\Temp\cckM1eOc.s:21298  .debug_str:0000000000001309 .LASF906
C:\Users\stapi\AppData\Local\Temp\cckM1eOc.s:23436  .debug_str:000000000000530a .LASF907
C:\Users\stapi\AppData\Local\Temp\cckM1eOc.s:22572  .debug_str:00000000000039e5 .LASF908
C:\Users\stapi\AppData\Local\Temp\cckM1eOc.s:23404  .debug_str:000000000000522a .LASF909
C:\Users\stapi\AppData\Local\Temp\cckM1eOc.s:20962  .debug_str:0000000000000942 .LASF910
C:\Users\stapi\AppData\Local\Temp\cckM1eOc.s:22978  .debug_str:0000000000004509 .LASF911
C:\Users\stapi\AppData\Local\Temp\cckM1eOc.s:21084  .debug_str:0000000000000ceb .LASF912
C:\Users\stapi\AppData\Local\Temp\cckM1eOc.s:21586  .debug_str:0000000000001b30 .LASF913
C:\Users\stapi\AppData\Local\Temp\cckM1eOc.s:22748  .debug_str:0000000000003eab .LASF914
C:\Users\stapi\AppData\Local\Temp\cckM1eOc.s:21748  .debug_str:0000000000001fac .LASF915
C:\Users\stapi\AppData\Local\Temp\cckM1eOc.s:21784  .debug_str:00000000000020db .LASF916
C:\Users\stapi\AppData\Local\Temp\cckM1eOc.s:22254  .debug_str:0000000000002f22 .LASF917
C:\Users\stapi\AppData\Local\Temp\cckM1eOc.s:23616  .debug_str:00000000000058b5 .LASF918
C:\Users\stapi\AppData\Local\Temp\cckM1eOc.s:21770  .debug_str:000000000000206d .LASF919
C:\Users\stapi\AppData\Local\Temp\cckM1eOc.s:22976  .debug_str:0000000000004500 .LASF920
C:\Users\stapi\AppData\Local\Temp\cckM1eOc.s:23476  .debug_str:000000000000543b .LASF921
C:\Users\stapi\AppData\Local\Temp\cckM1eOc.s:21972  .debug_str:00000000000026be .LASF922
C:\Users\stapi\AppData\Local\Temp\cckM1eOc.s:20838  .debug_str:00000000000005d9 .LASF923
C:\Users\stapi\AppData\Local\Temp\cckM1eOc.s:21442  .debug_str:0000000000001720 .LASF924
C:\Users\stapi\AppData\Local\Temp\cckM1eOc.s:21420  .debug_str:0000000000001691 .LASF925
C:\Users\stapi\AppData\Local\Temp\cckM1eOc.s:21184  .debug_str:0000000000000fcb .LASF926
C:\Users\stapi\AppData\Local\Temp\cckM1eOc.s:23482  .debug_str:0000000000005466 .LASF927
C:\Users\stapi\AppData\Local\Temp\cckM1eOc.s:22648  .debug_str:0000000000003bfa .LASF928
C:\Users\stapi\AppData\Local\Temp\cckM1eOc.s:22592  .debug_str:0000000000003a87 .LASF929
C:\Users\stapi\AppData\Local\Temp\cckM1eOc.s:22074  .debug_str:00000000000029bd .LASF930
C:\Users\stapi\AppData\Local\Temp\cckM1eOc.s:20748  .debug_str:0000000000000364 .LASF931
C:\Users\stapi\AppData\Local\Temp\cckM1eOc.s:21338  .debug_str:000000000000141b .LASF932
C:\Users\stapi\AppData\Local\Temp\cckM1eOc.s:22460  .debug_str:0000000000003677 .LASF933
C:\Users\stapi\AppData\Local\Temp\cckM1eOc.s:21498  .debug_str:00000000000018b3 .LASF934
C:\Users\stapi\AppData\Local\Temp\cckM1eOc.s:22738  .debug_str:0000000000003e60 .LASF935
C:\Users\stapi\AppData\Local\Temp\cckM1eOc.s:23048  .debug_str:0000000000004707 .LASF936
C:\Users\stapi\AppData\Local\Temp\cckM1eOc.s:21320  .debug_str:00000000000013a3 .LASF937
C:\Users\stapi\AppData\Local\Temp\cckM1eOc.s:22408  .debug_str:00000000000034b0 .LASF938
C:\Users\stapi\AppData\Local\Temp\cckM1eOc.s:22194  .debug_str:0000000000002d4b .LASF939
C:\Users\stapi\AppData\Local\Temp\cckM1eOc.s:22196  .debug_str:0000000000002d58 .LASF940
C:\Users\stapi\AppData\Local\Temp\cckM1eOc.s:22996  .debug_str:000000000000458f .LASF941
C:\Users\stapi\AppData\Local\Temp\cckM1eOc.s:21048  .debug_str:0000000000000bd4 .LASF942
C:\Users\stapi\AppData\Local\Temp\cckM1eOc.s:22162  .debug_str:0000000000002c36 .LASF943
C:\Users\stapi\AppData\Local\Temp\cckM1eOc.s:21614  .debug_str:0000000000001bee .LASF944
C:\Users\stapi\AppData\Local\Temp\cckM1eOc.s:22776  .debug_str:0000000000003f7a .LASF945
C:\Users\stapi\AppData\Local\Temp\cckM1eOc.s:21626  .debug_str:0000000000001c49 .LASF946
C:\Users\stapi\AppData\Local\Temp\cckM1eOc.s:20910  .debug_str:00000000000007cd .LASF947
C:\Users\stapi\AppData\Local\Temp\cckM1eOc.s:21486  .debug_str:0000000000001858 .LASF948
C:\Users\stapi\AppData\Local\Temp\cckM1eOc.s:23590  .debug_str:00000000000057e8 .LASF949
C:\Users\stapi\AppData\Local\Temp\cckM1eOc.s:20710  .debug_str:0000000000000226 .LASF950
C:\Users\stapi\AppData\Local\Temp\cckM1eOc.s:21162  .debug_str:0000000000000f22 .LASF951
C:\Users\stapi\AppData\Local\Temp\cckM1eOc.s:23098  .debug_str:0000000000004875 .LASF952
C:\Users\stapi\AppData\Local\Temp\cckM1eOc.s:21608  .debug_str:0000000000001bd9 .LASF953
C:\Users\stapi\AppData\Local\Temp\cckM1eOc.s:21714  .debug_str:0000000000001eaa .LASF954
C:\Users\stapi\AppData\Local\Temp\cckM1eOc.s:21892  .debug_str:0000000000002427 .LASF955
C:\Users\stapi\AppData\Local\Temp\cckM1eOc.s:21744  .debug_str:0000000000001f8d .LASF956
C:\Users\stapi\AppData\Local\Temp\cckM1eOc.s:21224  .debug_str:00000000000010f1 .LASF957
C:\Users\stapi\AppData\Local\Temp\cckM1eOc.s:20712  .debug_str:0000000000000231 .LASF958
C:\Users\stapi\AppData\Local\Temp\cckM1eOc.s:22690  .debug_str:0000000000003d02 .LASF959
C:\Users\stapi\AppData\Local\Temp\cckM1eOc.s:22456  .debug_str:0000000000003659 .LASF960
C:\Users\stapi\AppData\Local\Temp\cckM1eOc.s:23496  .debug_str:00000000000054cd .LASF961
C:\Users\stapi\AppData\Local\Temp\cckM1eOc.s:23536  .debug_str:0000000000005671 .LASF962
C:\Users\stapi\AppData\Local\Temp\cckM1eOc.s:22404  .debug_str:000000000000349e .LASF963
C:\Users\stapi\AppData\Local\Temp\cckM1eOc.s:22214  .debug_str:0000000000002de6 .LASF964
C:\Users\stapi\AppData\Local\Temp\cckM1eOc.s:21362  .debug_str:00000000000014f3 .LASF965
C:\Users\stapi\AppData\Local\Temp\cckM1eOc.s:23406  .debug_str:0000000000005238 .LASF966
C:\Users\stapi\AppData\Local\Temp\cckM1eOc.s:23130  .debug_str:0000000000004a0e .LASF967
C:\Users\stapi\AppData\Local\Temp\cckM1eOc.s:21580  .debug_str:0000000000001b10 .LASF968
C:\Users\stapi\AppData\Local\Temp\cckM1eOc.s:22184  .debug_str:0000000000002cf7 .LASF969
C:\Users\stapi\AppData\Local\Temp\cckM1eOc.s:20796  .debug_str:00000000000004b7 .LASF970
C:\Users\stapi\AppData\Local\Temp\cckM1eOc.s:22392  .debug_str:0000000000003442 .LASF971
C:\Users\stapi\AppData\Local\Temp\cckM1eOc.s:21220  .debug_str:00000000000010de .LASF972
C:\Users\stapi\AppData\Local\Temp\cckM1eOc.s:21450  .debug_str:0000000000001753 .LASF973
C:\Users\stapi\AppData\Local\Temp\cckM1eOc.s:21594  .debug_str:0000000000001b6c .LASF974
C:\Users\stapi\AppData\Local\Temp\cckM1eOc.s:21986  .debug_str:0000000000002730 .LASF975
C:\Users\stapi\AppData\Local\Temp\cckM1eOc.s:22434  .debug_str:000000000000359c .LASF976
C:\Users\stapi\AppData\Local\Temp\cckM1eOc.s:22842  .debug_str:0000000000004137 .LASF977
C:\Users\stapi\AppData\Local\Temp\cckM1eOc.s:20772  .debug_str:000000000000040c .LASF978
C:\Users\stapi\AppData\Local\Temp\cckM1eOc.s:20700  .debug_str:00000000000001ce .LASF979
C:\Users\stapi\AppData\Local\Temp\cckM1eOc.s:20866  .debug_str:00000000000006b6 .LASF980
C:\Users\stapi\AppData\Local\Temp\cckM1eOc.s:22736  .debug_str:0000000000003e56 .LASF981
C:\Users\stapi\AppData\Local\Temp\cckM1eOc.s:20854  .debug_str:0000000000000659 .LASF982
C:\Users\stapi\AppData\Local\Temp\cckM1eOc.s:22508  .debug_str:00000000000037fa .LASF983
C:\Users\stapi\AppData\Local\Temp\cckM1eOc.s:23704  .debug_str:0000000000005b63 .LASF984
C:\Users\stapi\AppData\Local\Temp\cckM1eOc.s:23128  .debug_str:0000000000004a03 .LASF985
C:\Users\stapi\AppData\Local\Temp\cckM1eOc.s:22614  .debug_str:0000000000003b0b .LASF986
C:\Users\stapi\AppData\Local\Temp\cckM1eOc.s:23516  .debug_str:000000000000554f .LASF987
C:\Users\stapi\AppData\Local\Temp\cckM1eOc.s:21752  .debug_str:0000000000001fd5 .LASF988
C:\Users\stapi\AppData\Local\Temp\cckM1eOc.s:22588  .debug_str:0000000000003a63 .LASF989
C:\Users\stapi\AppData\Local\Temp\cckM1eOc.s:20852  .debug_str:000000000000064a .LASF990
C:\Users\stapi\AppData\Local\Temp\cckM1eOc.s:22804  .debug_str:0000000000004043 .LASF991
C:\Users\stapi\AppData\Local\Temp\cckM1eOc.s:23178  .debug_str:0000000000004b5c .LASF992
C:\Users\stapi\AppData\Local\Temp\cckM1eOc.s:23018  .debug_str:000000000000460a .LASF993
C:\Users\stapi\AppData\Local\Temp\cckM1eOc.s:21612  .debug_str:0000000000001be9 .LASF994
C:\Users\stapi\AppData\Local\Temp\cckM1eOc.s:21118  .debug_str:0000000000000dda .LASF995
C:\Users\stapi\AppData\Local\Temp\cckM1eOc.s:21548  .debug_str:0000000000001a2a .LASF996
C:\Users\stapi\AppData\Local\Temp\cckM1eOc.s:22608  .debug_str:0000000000003ae6 .LASF997
C:\Users\stapi\AppData\Local\Temp\cckM1eOc.s:22352  .debug_str:0000000000003203 .LASF998
C:\Users\stapi\AppData\Local\Temp\cckM1eOc.s:23472  .debug_str:0000000000005415 .LASF999
C:\Users\stapi\AppData\Local\Temp\cckM1eOc.s:20976  .debug_str:0000000000000998 .LASF1000
C:\Users\stapi\AppData\Local\Temp\cckM1eOc.s:23348  .debug_str:000000000000506e .LASF1001
C:\Users\stapi\AppData\Local\Temp\cckM1eOc.s:20916  .debug_str:00000000000007f4 .LASF1002
C:\Users\stapi\AppData\Local\Temp\cckM1eOc.s:20652  .debug_str:000000000000006a .LASF1003
C:\Users\stapi\AppData\Local\Temp\cckM1eOc.s:22910  .debug_str:00000000000042f5 .LASF1004
C:\Users\stapi\AppData\Local\Temp\cckM1eOc.s:23676  .debug_str:0000000000005a90 .LASF1005
C:\Users\stapi\AppData\Local\Temp\cckM1eOc.s:23390  .debug_str:00000000000051bc .LASF1006
C:\Users\stapi\AppData\Local\Temp\cckM1eOc.s:23212  .debug_str:0000000000004c52 .LASF1007
C:\Users\stapi\AppData\Local\Temp\cckM1eOc.s:21250  .debug_str:00000000000011a3 .LASF1008
C:\Users\stapi\AppData\Local\Temp\cckM1eOc.s:22016  .debug_str:000000000000282d .LASF1009
C:\Users\stapi\AppData\Local\Temp\cckM1eOc.s:21662  .debug_str:0000000000001d33 .LASF1010
C:\Users\stapi\AppData\Local\Temp\cckM1eOc.s:21284  .debug_str:000000000000129b .LASF1011
C:\Users\stapi\AppData\Local\Temp\cckM1eOc.s:21916  .debug_str:00000000000024e7 .LASF1012
C:\Users\stapi\AppData\Local\Temp\cckM1eOc.s:20990  .debug_str:00000000000009fb .LASF1013
C:\Users\stapi\AppData\Local\Temp\cckM1eOc.s:20644  .debug_str:0000000000000022 .LASF1014
C:\Users\stapi\AppData\Local\Temp\cckM1eOc.s:20702  .debug_str:00000000000001db .LASF1015
C:\Users\stapi\AppData\Local\Temp\cckM1eOc.s:21474  .debug_str:0000000000001806 .LASF1016
C:\Users\stapi\AppData\Local\Temp\cckM1eOc.s:23002  .debug_str:00000000000045b6 .LASF1017
C:\Users\stapi\AppData\Local\Temp\cckM1eOc.s:22556  .debug_str:0000000000003977 .LASF1018
C:\Users\stapi\AppData\Local\Temp\cckM1eOc.s:22678  .debug_str:0000000000003cb8 .LASF1019
C:\Users\stapi\AppData\Local\Temp\cckM1eOc.s:22488  .debug_str:0000000000003762 .LASF1020
C:\Users\stapi\AppData\Local\Temp\cckM1eOc.s:21968  .debug_str:000000000000269f .LASF1021
C:\Users\stapi\AppData\Local\Temp\cckM1eOc.s:23120  .debug_str:00000000000049ab .LASF1022
C:\Users\stapi\AppData\Local\Temp\cckM1eOc.s:22380  .debug_str:00000000000033c3 .LASF1023
C:\Users\stapi\AppData\Local\Temp\cckM1eOc.s:23514  .debug_str:0000000000005534 .LASF1024
C:\Users\stapi\AppData\Local\Temp\cckM1eOc.s:23458  .debug_str:00000000000053b4 .LASF1025
C:\Users\stapi\AppData\Local\Temp\cckM1eOc.s:20780  .debug_str:000000000000043e .LASF1026
C:\Users\stapi\AppData\Local\Temp\cckM1eOc.s:22874  .debug_str:000000000000421d .LASF1027
C:\Users\stapi\AppData\Local\Temp\cckM1eOc.s:22414  .debug_str:00000000000034d9 .LASF1028
C:\Users\stapi\AppData\Local\Temp\cckM1eOc.s:21196  .debug_str:0000000000001024 .LASF1029
C:\Users\stapi\AppData\Local\Temp\cckM1eOc.s:22568  .debug_str:00000000000039b2 .LASF1030
C:\Users\stapi\AppData\Local\Temp\cckM1eOc.s:21694  .debug_str:0000000000001e05 .LASF1031
C:\Users\stapi\AppData\Local\Temp\cckM1eOc.s:20662  .debug_str:00000000000000aa .LASF1032
C:\Users\stapi\AppData\Local\Temp\cckM1eOc.s:23156  .debug_str:0000000000004ab2 .LASF1033
C:\Users\stapi\AppData\Local\Temp\cckM1eOc.s:22544  .debug_str:0000000000003913 .LASF1034
C:\Users\stapi\AppData\Local\Temp\cckM1eOc.s:21658  .debug_str:0000000000001d06 .LASF1035
C:\Users\stapi\AppData\Local\Temp\cckM1eOc.s:20936  .debug_str:00000000000008a2 .LASF1036
C:\Users\stapi\AppData\Local\Temp\cckM1eOc.s:21564  .debug_str:0000000000001a9a .LASF1037
C:\Users\stapi\AppData\Local\Temp\cckM1eOc.s:22336  .debug_str:0000000000003197 .LASF1038
C:\Users\stapi\AppData\Local\Temp\cckM1eOc.s:22546  .debug_str:000000000000391e .LASF1039
C:\Users\stapi\AppData\Local\Temp\cckM1eOc.s:22156  .debug_str:0000000000002bfb .LASF1040
C:\Users\stapi\AppData\Local\Temp\cckM1eOc.s:22696  .debug_str:0000000000003d28 .LASF1041
C:\Users\stapi\AppData\Local\Temp\cckM1eOc.s:22934  .debug_str:00000000000043c9 .LASF1042
C:\Users\stapi\AppData\Local\Temp\cckM1eOc.s:21502  .debug_str:00000000000018cd .LASF1043
C:\Users\stapi\AppData\Local\Temp\cckM1eOc.s:23440  .debug_str:0000000000005334 .LASF1044
C:\Users\stapi\AppData\Local\Temp\cckM1eOc.s:23622  .debug_str:00000000000058eb .LASF1045
C:\Users\stapi\AppData\Local\Temp\cckM1eOc.s:21642  .debug_str:0000000000001ca2 .LASF1046
C:\Users\stapi\AppData\Local\Temp\cckM1eOc.s:21372  .debug_str:000000000000152a .LASF1047
C:\Users\stapi\AppData\Local\Temp\cckM1eOc.s:22050  .debug_str:000000000000290c .LASF1048
C:\Users\stapi\AppData\Local\Temp\cckM1eOc.s:23080  .debug_str:00000000000047ed .LASF1049
C:\Users\stapi\AppData\Local\Temp\cckM1eOc.s:21410  .debug_str:000000000000164d .LASF1050
C:\Users\stapi\AppData\Local\Temp\cckM1eOc.s:23014  .debug_str:00000000000045f3 .LASF1051
C:\Users\stapi\AppData\Local\Temp\cckM1eOc.s:22828  .debug_str:00000000000040e2 .LASF1052
C:\Users\stapi\AppData\Local\Temp\cckM1eOc.s:21330  .debug_str:00000000000013e4 .LASF1053
C:\Users\stapi\AppData\Local\Temp\cckM1eOc.s:22830  .debug_str:00000000000040eb .LASF1054
C:\Users\stapi\AppData\Local\Temp\cckM1eOc.s:23174  .debug_str:0000000000004b3c .LASF1055
C:\Users\stapi\AppData\Local\Temp\cckM1eOc.s:23028  .debug_str:0000000000004659 .LASF1056
C:\Users\stapi\AppData\Local\Temp\cckM1eOc.s:22310  .debug_str:00000000000030cb .LASF1057
C:\Users\stapi\AppData\Local\Temp\cckM1eOc.s:21518  .debug_str:0000000000001942 .LASF1058
C:\Users\stapi\AppData\Local\Temp\cckM1eOc.s:22158  .debug_str:0000000000002c0a .LASF1059
C:\Users\stapi\AppData\Local\Temp\cckM1eOc.s:23664  .debug_str:0000000000005a1e .LASF1060
C:\Users\stapi\AppData\Local\Temp\cckM1eOc.s:21198  .debug_str:000000000000102f .LASF1061
C:\Users\stapi\AppData\Local\Temp\cckM1eOc.s:21836  .debug_str:000000000000225d .LASF1062
C:\Users\stapi\AppData\Local\Temp\cckM1eOc.s:23386  .debug_str:0000000000005188 .LASF1063
C:\Users\stapi\AppData\Local\Temp\cckM1eOc.s:23706  .debug_str:0000000000005b7d .LASF1064
C:\Users\stapi\AppData\Local\Temp\cckM1eOc.s:23020  .debug_str:0000000000004613 .LASF1065
C:\Users\stapi\AppData\Local\Temp\cckM1eOc.s:22542  .debug_str:0000000000003900 .LASF1066
C:\Users\stapi\AppData\Local\Temp\cckM1eOc.s:21256  .debug_str:00000000000011c8 .LASF1067
C:\Users\stapi\AppData\Local\Temp\cckM1eOc.s:23642  .debug_str:000000000000597f .LASF1068
C:\Users\stapi\AppData\Local\Temp\cckM1eOc.s:22496  .debug_str:00000000000037a1 .LASF1069
C:\Users\stapi\AppData\Local\Temp\cckM1eOc.s:23176  .debug_str:0000000000004b43 .LASF1070
C:\Users\stapi\AppData\Local\Temp\cckM1eOc.s:22752  .debug_str:0000000000003ebd .LASF1071
C:\Users\stapi\AppData\Local\Temp\cckM1eOc.s:22812  .debug_str:0000000000004072 .LASF1072
C:\Users\stapi\AppData\Local\Temp\cckM1eOc.s:23056  .debug_str:0000000000004733 .LASF1073
C:\Users\stapi\AppData\Local\Temp\cckM1eOc.s:21438  .debug_str:000000000000170a .LASF1074
C:\Users\stapi\AppData\Local\Temp\cckM1eOc.s:22368  .debug_str:0000000000003371 .LASF1075
C:\Users\stapi\AppData\Local\Temp\cckM1eOc.s:23402  .debug_str:0000000000005218 .LASF1076
C:\Users\stapi\AppData\Local\Temp\cckM1eOc.s:22286  .debug_str:0000000000003004 .LASF1077
C:\Users\stapi\AppData\Local\Temp\cckM1eOc.s:22110  .debug_str:0000000000002ac9 .LASF1078
C:\Users\stapi\AppData\Local\Temp\cckM1eOc.s:23586  .debug_str:00000000000057bf .LASF1079
C:\Users\stapi\AppData\Local\Temp\cckM1eOc.s:21448  .debug_str:0000000000001748 .LASF1080
C:\Users\stapi\AppData\Local\Temp\cckM1eOc.s:23218  .debug_str:0000000000004c70 .LASF1081
C:\Users\stapi\AppData\Local\Temp\cckM1eOc.s:20790  .debug_str:000000000000048b .LASF1082
C:\Users\stapi\AppData\Local\Temp\cckM1eOc.s:22442  .debug_str:00000000000035d5 .LASF1083
C:\Users\stapi\AppData\Local\Temp\cckM1eOc.s:23592  .debug_str:0000000000005804 .LASF1084
C:\Users\stapi\AppData\Local\Temp\cckM1eOc.s:20874  .debug_str:00000000000006f8 .LASF1085
C:\Users\stapi\AppData\Local\Temp\cckM1eOc.s:23688  .debug_str:0000000000005ae4 .LASF1086
C:\Users\stapi\AppData\Local\Temp\cckM1eOc.s:22966  .debug_str:00000000000044a7 .LASF1087
C:\Users\stapi\AppData\Local\Temp\cckM1eOc.s:23526  .debug_str:000000000000561c .LASF1088
C:\Users\stapi\AppData\Local\Temp\cckM1eOc.s:21600  .debug_str:0000000000001b94 .LASF1089
C:\Users\stapi\AppData\Local\Temp\cckM1eOc.s:21868  .debug_str:0000000000002361 .LASF1090
C:\Users\stapi\AppData\Local\Temp\cckM1eOc.s:21592  .debug_str:0000000000001b5a .LASF1091
C:\Users\stapi\AppData\Local\Temp\cckM1eOc.s:23046  .debug_str:00000000000046f7 .LASF1092
C:\Users\stapi\AppData\Local\Temp\cckM1eOc.s:23310  .debug_str:0000000000004f54 .LASF1093
C:\Users\stapi\AppData\Local\Temp\cckM1eOc.s:23454  .debug_str:0000000000005398 .LASF1094
C:\Users\stapi\AppData\Local\Temp\cckM1eOc.s:22332  .debug_str:0000000000003176 .LASF1095
C:\Users\stapi\AppData\Local\Temp\cckM1eOc.s:22888  .debug_str:000000000000426a .LASF1096
C:\Users\stapi\AppData\Local\Temp\cckM1eOc.s:22106  .debug_str:0000000000002aae .LASF1097
C:\Users\stapi\AppData\Local\Temp\cckM1eOc.s:23392  .debug_str:00000000000051cc .LASF1098
C:\Users\stapi\AppData\Local\Temp\cckM1eOc.s:20832  .debug_str:00000000000005bf .LASF1099
C:\Users\stapi\AppData\Local\Temp\cckM1eOc.s:21094  .debug_str:0000000000000d36 .LASF1100
C:\Users\stapi\AppData\Local\Temp\cckM1eOc.s:23016  .debug_str:0000000000004603 .LASF1101
C:\Users\stapi\AppData\Local\Temp\cckM1eOc.s:23260  .debug_str:0000000000004dec .LASF1102
C:\Users\stapi\AppData\Local\Temp\cckM1eOc.s:21942  .debug_str:00000000000025b5 .LASF1103
C:\Users\stapi\AppData\Local\Temp\cckM1eOc.s:21088  .debug_str:0000000000000d11 .LASF1104
C:\Users\stapi\AppData\Local\Temp\cckM1eOc.s:22694  .debug_str:0000000000003d1d .LASF1105
C:\Users\stapi\AppData\Local\Temp\cckM1eOc.s:22480  .debug_str:000000000000372a .LASF1106
C:\Users\stapi\AppData\Local\Temp\cckM1eOc.s:21282  .debug_str:000000000000128c .LASF1107
C:\Users\stapi\AppData\Local\Temp\cckM1eOc.s:22060  .debug_str:0000000000002959 .LASF1108
C:\Users\stapi\AppData\Local\Temp\cckM1eOc.s:20746  .debug_str:0000000000000354 .LASF1109
C:\Users\stapi\AppData\Local\Temp\cckM1eOc.s:22334  .debug_str:0000000000003186 .LASF1110
C:\Users\stapi\AppData\Local\Temp\cckM1eOc.s:22770  .debug_str:0000000000003f44 .LASF1111
C:\Users\stapi\AppData\Local\Temp\cckM1eOc.s:21476  .debug_str:0000000000001822 .LASF1112
C:\Users\stapi\AppData\Local\Temp\cckM1eOc.s:22144  .debug_str:0000000000002bb0 .LASF1113
C:\Users\stapi\AppData\Local\Temp\cckM1eOc.s:22464  .debug_str:0000000000003691 .LASF1114
C:\Users\stapi\AppData\Local\Temp\cckM1eOc.s:22104  .debug_str:0000000000002aa3 .LASF1115
C:\Users\stapi\AppData\Local\Temp\cckM1eOc.s:21254  .debug_str:00000000000011c0 .LASF1116
C:\Users\stapi\AppData\Local\Temp\cckM1eOc.s:21818  .debug_str:00000000000021d1 .LASF1117
C:\Users\stapi\AppData\Local\Temp\cckM1eOc.s:21944  .debug_str:00000000000025c0 .LASF1118
C:\Users\stapi\AppData\Local\Temp\cckM1eOc.s:22154  .debug_str:0000000000002bed .LASF1119
C:\Users\stapi\AppData\Local\Temp\cckM1eOc.s:21506  .debug_str:00000000000018e8 .LASF1120
C:\Users\stapi\AppData\Local\Temp\cckM1eOc.s:21856  .debug_str:00000000000022fe .LASF1121
C:\Users\stapi\AppData\Local\Temp\cckM1eOc.s:22870  .debug_str:00000000000041f9 .LASF1122
C:\Users\stapi\AppData\Local\Temp\cckM1eOc.s:23372  .debug_str:000000000000510b .LASF1123
C:\Users\stapi\AppData\Local\Temp\cckM1eOc.s:23670  .debug_str:0000000000005a52 .LASF1124
C:\Users\stapi\AppData\Local\Temp\cckM1eOc.s:21880  .debug_str:00000000000023b0 .LASF1125
C:\Users\stapi\AppData\Local\Temp\cckM1eOc.s:21080  .debug_str:0000000000000ccc .LASF1126
C:\Users\stapi\AppData\Local\Temp\cckM1eOc.s:20722  .debug_str:000000000000028d .LASF1127
C:\Users\stapi\AppData\Local\Temp\cckM1eOc.s:21788  .debug_str:0000000000002107 .LASF1128
C:\Users\stapi\AppData\Local\Temp\cckM1eOc.s:22342  .debug_str:00000000000031ca .LASF1129
C:\Users\stapi\AppData\Local\Temp\cckM1eOc.s:21722  .debug_str:0000000000001ee6 .LASF1130
C:\Users\stapi\AppData\Local\Temp\cckM1eOc.s:22834  .debug_str:00000000000040fb .LASF1131
C:\Users\stapi\AppData\Local\Temp\cckM1eOc.s:23444  .debug_str:0000000000005357 .LASF1132
C:\Users\stapi\AppData\Local\Temp\cckM1eOc.s:21052  .debug_str:0000000000000c09 .LASF1133
C:\Users\stapi\AppData\Local\Temp\cckM1eOc.s:22430  .debug_str:0000000000003583 .LASF1134
C:\Users\stapi\AppData\Local\Temp\cckM1eOc.s:22850  .debug_str:0000000000004176 .LASF1135
C:\Users\stapi\AppData\Local\Temp\cckM1eOc.s:23456  .debug_str:00000000000053a6 .LASF1136
C:\Users\stapi\AppData\Local\Temp\cckM1eOc.s:23396  .debug_str:00000000000051ec .LASF1137
C:\Users\stapi\AppData\Local\Temp\cckM1eOc.s:22248  .debug_str:0000000000002efa .LASF1138
C:\Users\stapi\AppData\Local\Temp\cckM1eOc.s:22616  .debug_str:0000000000003b15 .LASF1139
C:\Users\stapi\AppData\Local\Temp\cckM1eOc.s:21232  .debug_str:000000000000112e .LASF1140
C:\Users\stapi\AppData\Local\Temp\cckM1eOc.s:21360  .debug_str:00000000000014db .LASF1141
C:\Users\stapi\AppData\Local\Temp\cckM1eOc.s:23388  .debug_str:00000000000051a7 .LASF1142
C:\Users\stapi\AppData\Local\Temp\cckM1eOc.s:21168  .debug_str:0000000000000f4f .LASF1143
C:\Users\stapi\AppData\Local\Temp\cckM1eOc.s:21174  .debug_str:0000000000000f80 .LASF1144
C:\Users\stapi\AppData\Local\Temp\cckM1eOc.s:23696  .debug_str:0000000000005b22 .LASF1145
C:\Users\stapi\AppData\Local\Temp\cckM1eOc.s:23222  .debug_str:0000000000004c92 .LASF1146
C:\Users\stapi\AppData\Local\Temp\cckM1eOc.s:22288  .debug_str:0000000000003016 .LASF1147
C:\Users\stapi\AppData\Local\Temp\cckM1eOc.s:21786  .debug_str:00000000000020ed .LASF1148
C:\Users\stapi\AppData\Local\Temp\cckM1eOc.s:21230  .debug_str:0000000000001113 .LASF1149
C:\Users\stapi\AppData\Local\Temp\cckM1eOc.s:21386  .debug_str:0000000000001583 .LASF1150
C:\Users\stapi\AppData\Local\Temp\cckM1eOc.s:21304  .debug_str:0000000000001340 .LASF1151
C:\Users\stapi\AppData\Local\Temp\cckM1eOc.s:22518  .debug_str:0000000000003849 .LASF1152
C:\Users\stapi\AppData\Local\Temp\cckM1eOc.s:20802  .debug_str:00000000000004e2 .LASF1153
C:\Users\stapi\AppData\Local\Temp\cckM1eOc.s:21780  .debug_str:00000000000020bd .LASF1154
C:\Users\stapi\AppData\Local\Temp\cckM1eOc.s:23652  .debug_str:00000000000059d4 .LASF1155
C:\Users\stapi\AppData\Local\Temp\cckM1eOc.s:22618  .debug_str:0000000000003b21 .LASF1156
C:\Users\stapi\AppData\Local\Temp\cckM1eOc.s:22340  .debug_str:00000000000031b8 .LASF1157
C:\Users\stapi\AppData\Local\Temp\cckM1eOc.s:21760  .debug_str:000000000000200e .LASF1158
C:\Users\stapi\AppData\Local\Temp\cckM1eOc.s:22272  .debug_str:0000000000002f8a .LASF1159
C:\Users\stapi\AppData\Local\Temp\cckM1eOc.s:21638  .debug_str:0000000000001c8c .LASF1160
C:\Users\stapi\AppData\Local\Temp\cckM1eOc.s:20754  .debug_str:000000000000038b .LASF1161
C:\Users\stapi\AppData\Local\Temp\cckM1eOc.s:20756  .debug_str:0000000000000397 .LASF1162
C:\Users\stapi\AppData\Local\Temp\cckM1eOc.s:21462  .debug_str:00000000000017a5 .LASF1163
C:\Users\stapi\AppData\Local\Temp\cckM1eOc.s:22282  .debug_str:0000000000002fe8 .LASF1164
C:\Users\stapi\AppData\Local\Temp\cckM1eOc.s:21166  .debug_str:0000000000000f46 .LASF1165
C:\Users\stapi\AppData\Local\Temp\cckM1eOc.s:23554  .debug_str:00000000000056e1 .LASF1166
C:\Users\stapi\AppData\Local\Temp\cckM1eOc.s:22136  .debug_str:0000000000002b71 .LASF1167
C:\Users\stapi\AppData\Local\Temp\cckM1eOc.s:22708  .debug_str:0000000000003d73 .LASF1168
C:\Users\stapi\AppData\Local\Temp\cckM1eOc.s:22704  .debug_str:0000000000003d57 .LASF1169
C:\Users\stapi\AppData\Local\Temp\cckM1eOc.s:22468  .debug_str:00000000000036be .LASF1170
C:\Users\stapi\AppData\Local\Temp\cckM1eOc.s:21820  .debug_str:00000000000021db .LASF1171
C:\Users\stapi\AppData\Local\Temp\cckM1eOc.s:22390  .debug_str:0000000000003435 .LASF1172
C:\Users\stapi\AppData\Local\Temp\cckM1eOc.s:23566  .debug_str:000000000000573a .LASF1173
C:\Users\stapi\AppData\Local\Temp\cckM1eOc.s:21790  .debug_str:000000000000210f .LASF1174
C:\Users\stapi\AppData\Local\Temp\cckM1eOc.s:23558  .debug_str:00000000000056fa .LASF1175
C:\Users\stapi\AppData\Local\Temp\cckM1eOc.s:23460  .debug_str:00000000000053c0 .LASF1176
C:\Users\stapi\AppData\Local\Temp\cckM1eOc.s:20800  .debug_str:00000000000004d5 .LASF1177
C:\Users\stapi\AppData\Local\Temp\cckM1eOc.s:20682  .debug_str:0000000000000141 .LASF1178
C:\Users\stapi\AppData\Local\Temp\cckM1eOc.s:21700  .debug_str:0000000000001e1f .LASF1179
C:\Users\stapi\AppData\Local\Temp\cckM1eOc.s:22002  .debug_str:00000000000027b9 .LASF1180
C:\Users\stapi\AppData\Local\Temp\cckM1eOc.s:20992  .debug_str:0000000000000a19 .LASF1181
C:\Users\stapi\AppData\Local\Temp\cckM1eOc.s:22230  .debug_str:0000000000002e53 .LASF1182
C:\Users\stapi\AppData\Local\Temp\cckM1eOc.s:22218  .debug_str:0000000000002dff .LASF1183
C:\Users\stapi\AppData\Local\Temp\cckM1eOc.s:22160  .debug_str:0000000000002c19 .LASF1184
C:\Users\stapi\AppData\Local\Temp\cckM1eOc.s:21164  .debug_str:0000000000000f2c .LASF1185
C:\Users\stapi\AppData\Local\Temp\cckM1eOc.s:20950  .debug_str:00000000000008fe .LASF1186
C:\Users\stapi\AppData\Local\Temp\cckM1eOc.s:21870  .debug_str:000000000000236f .LASF1187
C:\Users\stapi\AppData\Local\Temp\cckM1eOc.s:21794  .debug_str:000000000000211f .LASF1188
C:\Users\stapi\AppData\Local\Temp\cckM1eOc.s:20914  .debug_str:00000000000007ea .LASF1189
C:\Users\stapi\AppData\Local\Temp\cckM1eOc.s:22064  .debug_str:000000000000297d .LASF1190
C:\Users\stapi\AppData\Local\Temp\cckM1eOc.s:20704  .debug_str:00000000000001f3 .LASF1191
C:\Users\stapi\AppData\Local\Temp\cckM1eOc.s:21898  .debug_str:000000000000244e .LASF1192
C:\Users\stapi\AppData\Local\Temp\cckM1eOc.s:23428  .debug_str:00000000000052c7 .LASF1193
C:\Users\stapi\AppData\Local\Temp\cckM1eOc.s:22636  .debug_str:0000000000003b90 .LASF1194
C:\Users\stapi\AppData\Local\Temp\cckM1eOc.s:23580  .debug_str:0000000000005799 .LASF1195
C:\Users\stapi\AppData\Local\Temp\cckM1eOc.s:23284  .debug_str:0000000000004e89 .LASF1196
C:\Users\stapi\AppData\Local\Temp\cckM1eOc.s:21766  .debug_str:0000000000002043 .LASF1197
C:\Users\stapi\AppData\Local\Temp\cckM1eOc.s:21488  .debug_str:0000000000001865 .LASF1198
C:\Users\stapi\AppData\Local\Temp\cckM1eOc.s:21756  .debug_str:0000000000001ff1 .LASF1199
C:\Users\stapi\AppData\Local\Temp\cckM1eOc.s:22204  .debug_str:0000000000002d93 .LASF1200
C:\Users\stapi\AppData\Local\Temp\cckM1eOc.s:22540  .debug_str:00000000000038fa .LASF1201
C:\Users\stapi\AppData\Local\Temp\cckM1eOc.s:21688  .debug_str:0000000000001ddb .LASF1202
C:\Users\stapi\AppData\Local\Temp\cckM1eOc.s:23308  .debug_str:0000000000004f47 .LASF1203
C:\Users\stapi\AppData\Local\Temp\cckM1eOc.s:21490  .debug_str:0000000000001870 .LASF1204
C:\Users\stapi\AppData\Local\Temp\cckM1eOc.s:21008  .debug_str:0000000000000a8e .LASF1205
C:\Users\stapi\AppData\Local\Temp\cckM1eOc.s:22928  .debug_str:000000000000437e .LASF1206
C:\Users\stapi\AppData\Local\Temp\cckM1eOc.s:20744  .debug_str:0000000000000337 .LASF1207
C:\Users\stapi\AppData\Local\Temp\cckM1eOc.s:21508  .debug_str:00000000000018fa .LASF1208
C:\Users\stapi\AppData\Local\Temp\cckM1eOc.s:23366  .debug_str:00000000000050d9 .LASF1209
C:\Users\stapi\AppData\Local\Temp\cckM1eOc.s:23234  .debug_str:0000000000004d18 .LASF1210
C:\Users\stapi\AppData\Local\Temp\cckM1eOc.s:22044  .debug_str:00000000000028e3 .LASF1211
C:\Users\stapi\AppData\Local\Temp\cckM1eOc.s:22512  .debug_str:0000000000003828 .LASF1212
C:\Users\stapi\AppData\Local\Temp\cckM1eOc.s:22560  .debug_str:0000000000003990 .LASF1213
C:\Users\stapi\AppData\Local\Temp\cckM1eOc.s:21560  .debug_str:0000000000001a7c .LASF1214
C:\Users\stapi\AppData\Local\Temp\cckM1eOc.s:21520  .debug_str:0000000000001965 .LASF1215
C:\Users\stapi\AppData\Local\Temp\cckM1eOc.s:22378  .debug_str:00000000000033ab .LASF1216
C:\Users\stapi\AppData\Local\Temp\cckM1eOc.s:21970  .debug_str:00000000000026b1 .LASF1217
C:\Users\stapi\AppData\Local\Temp\cckM1eOc.s:22432  .debug_str:0000000000003596 .LASF1218
C:\Users\stapi\AppData\Local\Temp\cckM1eOc.s:22284  .debug_str:0000000000002ff4 .LASF1219
C:\Users\stapi\AppData\Local\Temp\cckM1eOc.s:22372  .debug_str:0000000000003381 .LASF1220
C:\Users\stapi\AppData\Local\Temp\cckM1eOc.s:22634  .debug_str:0000000000003b87 .LASF1221
C:\Users\stapi\AppData\Local\Temp\cckM1eOc.s:20808  .debug_str:0000000000000510 .LASF1222
C:\Users\stapi\AppData\Local\Temp\cckM1eOc.s:23484  .debug_str:0000000000005479 .LASF1223
C:\Users\stapi\AppData\Local\Temp\cckM1eOc.s:22356  .debug_str:0000000000003229 .LASF1224
C:\Users\stapi\AppData\Local\Temp\cckM1eOc.s:21562  .debug_str:0000000000001a91 .LASF1225
C:\Users\stapi\AppData\Local\Temp\cckM1eOc.s:22268  .debug_str:0000000000002f6e .LASF1226
C:\Users\stapi\AppData\Local\Temp\cckM1eOc.s:23418  .debug_str:000000000000527f .LASF1227
C:\Users\stapi\AppData\Local\Temp\cckM1eOc.s:22506  .debug_str:00000000000037e9 .LASF1228
C:\Users\stapi\AppData\Local\Temp\cckM1eOc.s:23214  .debug_str:0000000000004c5c .LASF1229
C:\Users\stapi\AppData\Local\Temp\cckM1eOc.s:21030  .debug_str:0000000000000b38 .LASF1230
C:\Users\stapi\AppData\Local\Temp\cckM1eOc.s:21708  .debug_str:0000000000001e7a .LASF1231
C:\Users\stapi\AppData\Local\Temp\cckM1eOc.s:21378  .debug_str:0000000000001553 .LASF1232
C:\Users\stapi\AppData\Local\Temp\cckM1eOc.s:20774  .debug_str:0000000000000422 .LASF1233
C:\Users\stapi\AppData\Local\Temp\cckM1eOc.s:22756  .debug_str:0000000000003ed4 .LASF1234
C:\Users\stapi\AppData\Local\Temp\cckM1eOc.s:22724  .debug_str:0000000000003de9 .LASF1235
C:\Users\stapi\AppData\Local\Temp\cckM1eOc.s:21558  .debug_str:0000000000001a71 .LASF1236
C:\Users\stapi\AppData\Local\Temp\cckM1eOc.s:21176  .debug_str:0000000000000f94 .LASF1237
C:\Users\stapi\AppData\Local\Temp\cckM1eOc.s:22950  .debug_str:000000000000444b .LASF1238
C:\Users\stapi\AppData\Local\Temp\cckM1eOc.s:20876  .debug_str:0000000000000703 .LASF1239
C:\Users\stapi\AppData\Local\Temp\cckM1eOc.s:23420  .debug_str:0000000000005288 .LASF1240
C:\Users\stapi\AppData\Local\Temp\cckM1eOc.s:20934  .debug_str:000000000000088d .LASF1241
C:\Users\stapi\AppData\Local\Temp\cckM1eOc.s:23540  .debug_str:000000000000568d .LASF1242
C:\Users\stapi\AppData\Local\Temp\cckM1eOc.s:21858  .debug_str:0000000000002310 .LASF1243
C:\Users\stapi\AppData\Local\Temp\cckM1eOc.s:20956  .debug_str:000000000000091e .LASF1244
C:\Users\stapi\AppData\Local\Temp\cckM1eOc.s:21154  .debug_str:0000000000000edc .LASF1245
C:\Users\stapi\AppData\Local\Temp\cckM1eOc.s:22498  .debug_str:00000000000037b3 .LASF1246
C:\Users\stapi\AppData\Local\Temp\cckM1eOc.s:22794  .debug_str:0000000000003ffa .LASF1247
C:\Users\stapi\AppData\Local\Temp\cckM1eOc.s:22236  .debug_str:0000000000002e8b .LASF1248
C:\Users\stapi\AppData\Local\Temp\cckM1eOc.s:22936  .debug_str:00000000000043d7 .LASF1249
C:\Users\stapi\AppData\Local\Temp\cckM1eOc.s:22476  .debug_str:0000000000003714 .LASF1250
C:\Users\stapi\AppData\Local\Temp\cckM1eOc.s:21746  .debug_str:0000000000001f9c .LASF1251
C:\Users\stapi\AppData\Local\Temp\cckM1eOc.s:23182  .debug_str:0000000000004b70 .LASF1252
C:\Users\stapi\AppData\Local\Temp\cckM1eOc.s:23374  .debug_str:000000000000511a .LASF1253
C:\Users\stapi\AppData\Local\Temp\cckM1eOc.s:22316  .debug_str:0000000000003103 .LASF1254
C:\Users\stapi\AppData\Local\Temp\cckM1eOc.s:21924  .debug_str:0000000000002534 .LASF1255
C:\Users\stapi\AppData\Local\Temp\cckM1eOc.s:23042  .debug_str:00000000000046cb .LASF1256
C:\Users\stapi\AppData\Local\Temp\cckM1eOc.s:23312  .debug_str:0000000000004f63 .LASF1257
C:\Users\stapi\AppData\Local\Temp\cckM1eOc.s:20982  .debug_str:00000000000009ba .LASF1258
C:\Users\stapi\AppData\Local\Temp\cckM1eOc.s:22660  .debug_str:0000000000003c41 .LASF1259
C:\Users\stapi\AppData\Local\Temp\cckM1eOc.s:22180  .debug_str:0000000000002cd5 .LASF1260
C:\Users\stapi\AppData\Local\Temp\cckM1eOc.s:21762  .debug_str:000000000000201c .LASF1261
C:\Users\stapi\AppData\Local\Temp\cckM1eOc.s:22818  .debug_str:000000000000409f .LASF1262
C:\Users\stapi\AppData\Local\Temp\cckM1eOc.s:23074  .debug_str:00000000000047b2 .LASF1263
C:\Users\stapi\AppData\Local\Temp\cckM1eOc.s:23306  .debug_str:0000000000004f3a .LASF1264
C:\Users\stapi\AppData\Local\Temp\cckM1eOc.s:23192  .debug_str:0000000000004bb9 .LASF1265
C:\Users\stapi\AppData\Local\Temp\cckM1eOc.s:22912  .debug_str:0000000000004303 .LASF1266
C:\Users\stapi\AppData\Local\Temp\cckM1eOc.s:20716  .debug_str:000000000000024a .LASF1267
C:\Users\stapi\AppData\Local\Temp\cckM1eOc.s:22134  .debug_str:0000000000002b5f .LASF1268
C:\Users\stapi\AppData\Local\Temp\cckM1eOc.s:23564  .debug_str:0000000000005724 .LASF1269
C:\Users\stapi\AppData\Local\Temp\cckM1eOc.s:21070  .debug_str:0000000000000ca4 .LASF1270
C:\Users\stapi\AppData\Local\Temp\cckM1eOc.s:21624  .debug_str:0000000000001c3a .LASF1271
C:\Users\stapi\AppData\Local\Temp\cckM1eOc.s:23180  .debug_str:0000000000004b61 .LASF1272
C:\Users\stapi\AppData\Local\Temp\cckM1eOc.s:21606  .debug_str:0000000000001bcd .LASF1273
C:\Users\stapi\AppData\Local\Temp\cckM1eOc.s:21980  .debug_str:0000000000002702 .LASF1274
C:\Users\stapi\AppData\Local\Temp\cckM1eOc.s:21824  .debug_str:00000000000021f6 .LASF1275
C:\Users\stapi\AppData\Local\Temp\cckM1eOc.s:22714  .debug_str:0000000000003d9b .LASF1276
C:\Users\stapi\AppData\Local\Temp\cckM1eOc.s:21352  .debug_str:0000000000001474 .LASF1277
C:\Users\stapi\AppData\Local\Temp\cckM1eOc.s:22200  .debug_str:0000000000002d6f .LASF1278
C:\Users\stapi\AppData\Local\Temp\cckM1eOc.s:21808  .debug_str:0000000000002183 .LASF1279
C:\Users\stapi\AppData\Local\Temp\cckM1eOc.s:23638  .debug_str:0000000000005961 .LASF1280
C:\Users\stapi\AppData\Local\Temp\cckM1eOc.s:21468  .debug_str:00000000000017c8 .LASF1281
C:\Users\stapi\AppData\Local\Temp\cckM1eOc.s:22354  .debug_str:0000000000003214 .LASF1282
C:\Users\stapi\AppData\Local\Temp\cckM1eOc.s:22168  .debug_str:0000000000002c56 .LASF1283
C:\Users\stapi\AppData\Local\Temp\cckM1eOc.s:23164  .debug_str:0000000000004aed .LASF1284
C:\Users\stapi\AppData\Local\Temp\cckM1eOc.s:21500  .debug_str:00000000000018c7 .LASF1285
C:\Users\stapi\AppData\Local\Temp\cckM1eOc.s:22252  .debug_str:0000000000002f11 .LASF1286
C:\Users\stapi\AppData\Local\Temp\cckM1eOc.s:21262  .debug_str:00000000000011ec .LASF1287
C:\Users\stapi\AppData\Local\Temp\cckM1eOc.s:22820  .debug_str:00000000000040b2 .LASF1288
C:\Users\stapi\AppData\Local\Temp\cckM1eOc.s:22700  .debug_str:0000000000003d3e .LASF1289
C:\Users\stapi\AppData\Local\Temp\cckM1eOc.s:23326  .debug_str:0000000000004fb1 .LASF1290
C:\Users\stapi\AppData\Local\Temp\cckM1eOc.s:22388  .debug_str:000000000000342b .LASF1291
C:\Users\stapi\AppData\Local\Temp\cckM1eOc.s:22862  .debug_str:00000000000041c3 .LASF1292
C:\Users\stapi\AppData\Local\Temp\cckM1eOc.s:22578  .debug_str:0000000000003a04 .LASF1293
C:\Users\stapi\AppData\Local\Temp\cckM1eOc.s:22550  .debug_str:0000000000003941 .LASF1294
C:\Users\stapi\AppData\Local\Temp\cckM1eOc.s:21288  .debug_str:00000000000012b2 .LASF1295
C:\Users\stapi\AppData\Local\Temp\cckM1eOc.s:21172  .debug_str:0000000000000f72 .LASF1296
C:\Users\stapi\AppData\Local\Temp\cckM1eOc.s:23596  .debug_str:0000000000005823 .LASF1297
C:\Users\stapi\AppData\Local\Temp\cckM1eOc.s:22520  .debug_str:0000000000003859 .LASF1298
C:\Users\stapi\AppData\Local\Temp\cckM1eOc.s:22858  .debug_str:00000000000041a2 .LASF1299
C:\Users\stapi\AppData\Local\Temp\cckM1eOc.s:21158  .debug_str:0000000000000efe .LASF1300
C:\Users\stapi\AppData\Local\Temp\cckM1eOc.s:22220  .debug_str:0000000000002e10 .LASF1301
C:\Users\stapi\AppData\Local\Temp\cckM1eOc.s:23066  .debug_str:0000000000004781 .LASF1302
C:\Users\stapi\AppData\Local\Temp\cckM1eOc.s:22942  .debug_str:000000000000440b .LASF1303
C:\Users\stapi\AppData\Local\Temp\cckM1eOc.s:20664  .debug_str:00000000000000b5 .LASF1304
C:\Users\stapi\AppData\Local\Temp\cckM1eOc.s:20794  .debug_str:00000000000004a5 .LASF1305
C:\Users\stapi\AppData\Local\Temp\cckM1eOc.s:21414  .debug_str:0000000000001662 .LASF1306
C:\Users\stapi\AppData\Local\Temp\cckM1eOc.s:23258  .debug_str:0000000000004ddb .LASF1307
C:\Users\stapi\AppData\Local\Temp\cckM1eOc.s:22726  .debug_str:0000000000003df2 .LASF1308
C:\Users\stapi\AppData\Local\Temp\cckM1eOc.s:23140  .debug_str:0000000000004a54 .LASF1309
C:\Users\stapi\AppData\Local\Temp\cckM1eOc.s:22798  .debug_str:0000000000004010 .LASF1310
C:\Users\stapi\AppData\Local\Temp\cckM1eOc.s:22684  .debug_str:0000000000003ce0 .LASF1311
C:\Users\stapi\AppData\Local\Temp\cckM1eOc.s:21444  .debug_str:0000000000001728 .LASF1312
C:\Users\stapi\AppData\Local\Temp\cckM1eOc.s:22780  .debug_str:0000000000003f90 .LASF1313
C:\Users\stapi\AppData\Local\Temp\cckM1eOc.s:23242  .debug_str:0000000000004d5a .LASF1314
C:\Users\stapi\AppData\Local\Temp\cckM1eOc.s:20658  .debug_str:000000000000008e .LASF1315
C:\Users\stapi\AppData\Local\Temp\cckM1eOc.s:22358  .debug_str:0000000000003232 .LASF1316
C:\Users\stapi\AppData\Local\Temp\cckM1eOc.s:22428  .debug_str:000000000000356d .LASF1317
C:\Users\stapi\AppData\Local\Temp\cckM1eOc.s:22170  .debug_str:0000000000002c70 .LASF1318
C:\Users\stapi\AppData\Local\Temp\cckM1eOc.s:22902  .debug_str:00000000000042c9 .LASF1319
C:\Users\stapi\AppData\Local\Temp\cckM1eOc.s:21634  .debug_str:0000000000001c74 .LASF1320
C:\Users\stapi\AppData\Local\Temp\cckM1eOc.s:20836  .debug_str:00000000000005d1 .LASF1321
C:\Users\stapi\AppData\Local\Temp\cckM1eOc.s:23078  .debug_str:00000000000047e3 .LASF1322
C:\Users\stapi\AppData\Local\Temp\cckM1eOc.s:22124  .debug_str:0000000000002b21 .LASF1323
C:\Users\stapi\AppData\Local\Temp\cckM1eOc.s:21750  .debug_str:0000000000001fbf .LASF1324
C:\Users\stapi\AppData\Local\Temp\cckM1eOc.s:21934  .debug_str:000000000000257f .LASF1325
C:\Users\stapi\AppData\Local\Temp\cckM1eOc.s:21530  .debug_str:00000000000019ad .LASF1326
C:\Users\stapi\AppData\Local\Temp\cckM1eOc.s:21798  .debug_str:000000000000213d .LASF1327
C:\Users\stapi\AppData\Local\Temp\cckM1eOc.s:22980  .debug_str:000000000000451e .LASF1328
C:\Users\stapi\AppData\Local\Temp\cckM1eOc.s:21666  .debug_str:0000000000001d55 .LASF1329
C:\Users\stapi\AppData\Local\Temp\cckM1eOc.s:22582  .debug_str:0000000000003a34 .LASF1330
C:\Users\stapi\AppData\Local\Temp\cckM1eOc.s:20788  .debug_str:0000000000000470 .LASF1331
C:\Users\stapi\AppData\Local\Temp\cckM1eOc.s:22240  .debug_str:0000000000002eb2 .LASF1332
C:\Users\stapi\AppData\Local\Temp\cckM1eOc.s:22768  .debug_str:0000000000003f3f .LASF1333
C:\Users\stapi\AppData\Local\Temp\cckM1eOc.s:21400  .debug_str:0000000000001609 .LASF1334
C:\Users\stapi\AppData\Local\Temp\cckM1eOc.s:21182  .debug_str:0000000000000fbd .LASF1335
C:\Users\stapi\AppData\Local\Temp\cckM1eOc.s:21926  .debug_str:0000000000002544 .LASF1336
C:\Users\stapi\AppData\Local\Temp\cckM1eOc.s:23500  .debug_str:00000000000054e3 .LASF1337
C:\Users\stapi\AppData\Local\Temp\cckM1eOc.s:21542  .debug_str:0000000000001a0d .LASF1338
C:\Users\stapi\AppData\Local\Temp\cckM1eOc.s:23226  .debug_str:0000000000004cc9 .LASF1339
C:\Users\stapi\AppData\Local\Temp\cckM1eOc.s:22552  .debug_str:0000000000003953 .LASF1340
C:\Users\stapi\AppData\Local\Temp\cckM1eOc.s:22852  .debug_str:0000000000004181 .LASF1341
C:\Users\stapi\AppData\Local\Temp\cckM1eOc.s:22926  .debug_str:000000000000436c .LASF1342
C:\Users\stapi\AppData\Local\Temp\cckM1eOc.s:22398  .debug_str:000000000000346c .LASF1343
C:\Users\stapi\AppData\Local\Temp\cckM1eOc.s:22682  .debug_str:0000000000003ccc .LASF1344
C:\Users\stapi\AppData\Local\Temp\cckM1eOc.s:20926  .debug_str:0000000000000848 .LASF1345
C:\Users\stapi\AppData\Local\Temp\cckM1eOc.s:21552  .debug_str:0000000000001a45 .LASF1346
C:\Users\stapi\AppData\Local\Temp\cckM1eOc.s:21832  .debug_str:000000000000223e .LASF1347
C:\Users\stapi\AppData\Local\Temp\cckM1eOc.s:21534  .debug_str:00000000000019ce .LASF1348
C:\Users\stapi\AppData\Local\Temp\cckM1eOc.s:20918  .debug_str:00000000000007ff .LASF1349
C:\Users\stapi\AppData\Local\Temp\cckM1eOc.s:23432  .debug_str:00000000000052e8 .LASF1350
C:\Users\stapi\AppData\Local\Temp\cckM1eOc.s:22312  .debug_str:00000000000030e8 .LASF1351
C:\Users\stapi\AppData\Local\Temp\cckM1eOc.s:22846  .debug_str:0000000000004150 .LASF1352
C:\Users\stapi\AppData\Local\Temp\cckM1eOc.s:21504  .debug_str:00000000000018df .LASF1353
C:\Users\stapi\AppData\Local\Temp\cckM1eOc.s:21240  .debug_str:0000000000001159 .LASF1354
C:\Users\stapi\AppData\Local\Temp\cckM1eOc.s:23032  .debug_str:000000000000467e .LASF1355
C:\Users\stapi\AppData\Local\Temp\cckM1eOc.s:23662  .debug_str:0000000000005a15 .LASF1356
C:\Users\stapi\AppData\Local\Temp\cckM1eOc.s:23624  .debug_str:00000000000058fd .LASF1357
C:\Users\stapi\AppData\Local\Temp\cckM1eOc.s:22590  .debug_str:0000000000003a76 .LASF1358
C:\Users\stapi\AppData\Local\Temp\cckM1eOc.s:21082  .debug_str:0000000000000cd7 .LASF1359
C:\Users\stapi\AppData\Local\Temp\cckM1eOc.s:23612  .debug_str:0000000000005898 .LASF1360
C:\Users\stapi\AppData\Local\Temp\cckM1eOc.s:23640  .debug_str:000000000000597a .LASF1361
C:\Users\stapi\AppData\Local\Temp\cckM1eOc.s:20776  .debug_str:000000000000042c .LASF1362
C:\Users\stapi\AppData\Local\Temp\cckM1eOc.s:22224  .debug_str:0000000000002e2a .LASF1363
C:\Users\stapi\AppData\Local\Temp\cckM1eOc.s:22574  .debug_str:00000000000039f3 .LASF1364
C:\Users\stapi\AppData\Local\Temp\cckM1eOc.s:22346  .debug_str:00000000000031e6 .LASF1365
C:\Users\stapi\AppData\Local\Temp\cckM1eOc.s:23338  .debug_str:000000000000501b .LASF1366
C:\Users\stapi\AppData\Local\Temp\cckM1eOc.s:20846  .debug_str:0000000000000610 .LASF1367
C:\Users\stapi\AppData\Local\Temp\cckM1eOc.s:22606  .debug_str:0000000000003adb .LASF1368
C:\Users\stapi\AppData\Local\Temp\cckM1eOc.s:23330  .debug_str:0000000000004fd0 .LASF1369
C:\Users\stapi\AppData\Local\Temp\cckM1eOc.s:20932  .debug_str:0000000000000877 .LASF1370
C:\Users\stapi\AppData\Local\Temp\cckM1eOc.s:21546  .debug_str:0000000000001a1d .LASF1371
C:\Users\stapi\AppData\Local\Temp\cckM1eOc.s:22112  .debug_str:0000000000002ada .LASF1372
C:\Users\stapi\AppData\Local\Temp\cckM1eOc.s:22108  .debug_str:0000000000002ab5 .LASF1373
C:\Users\stapi\AppData\Local\Temp\cckM1eOc.s:22686  .debug_str:0000000000003ceb .LASF1374
C:\Users\stapi\AppData\Local\Temp\cckM1eOc.s:22898  .debug_str:00000000000042b4 .LASF1375
C:\Users\stapi\AppData\Local\Temp\cckM1eOc.s:23112  .debug_str:00000000000048f0 .LASF1376
C:\Users\stapi\AppData\Local\Temp\cckM1eOc.s:23686  .debug_str:0000000000005ace .LASF1377
C:\Users\stapi\AppData\Local\Temp\cckM1eOc.s:22244  .debug_str:0000000000002edc .LASF1378
C:\Users\stapi\AppData\Local\Temp\cckM1eOc.s:20998  .debug_str:0000000000000a5f .LASF1379
C:\Users\stapi\AppData\Local\Temp\cckM1eOc.s:22120  .debug_str:0000000000002b05 .LASF1380
C:\Users\stapi\AppData\Local\Temp\cckM1eOc.s:22072  .debug_str:00000000000029af .LASF1381
C:\Users\stapi\AppData\Local\Temp\cckM1eOc.s:23634  .debug_str:0000000000005946 .LASF1382
C:\Users\stapi\AppData\Local\Temp\cckM1eOc.s:21302  .debug_str:0000000000001334 .LASF1383
C:\Users\stapi\AppData\Local\Temp\cckM1eOc.s:21846  .debug_str:00000000000022aa .LASF1384
C:\Users\stapi\AppData\Local\Temp\cckM1eOc.s:23658  .debug_str:00000000000059f2 .LASF1385
C:\Users\stapi\AppData\Local\Temp\cckM1eOc.s:22890  .debug_str:0000000000004278 .LASF1386
C:\Users\stapi\AppData\Local\Temp\cckM1eOc.s:21616  .debug_str:0000000000001bf8 .LASF1387
C:\Users\stapi\AppData\Local\Temp\cckM1eOc.s:21066  .debug_str:0000000000000c7c .LASF1388
C:\Users\stapi\AppData\Local\Temp\cckM1eOc.s:23550  .debug_str:00000000000056bf .LASF1389
C:\Users\stapi\AppData\Local\Temp\cckM1eOc.s:22872  .debug_str:000000000000420f .LASF1390
C:\Users\stapi\AppData\Local\Temp\cckM1eOc.s:20680  .debug_str:0000000000000131 .LASF1391
C:\Users\stapi\AppData\Local\Temp\cckM1eOc.s:21590  .debug_str:0000000000001b47 .LASF1392
C:\Users\stapi\AppData\Local\Temp\cckM1eOc.s:20666  .debug_str:00000000000000c5 .LASF1393
C:\Users\stapi\AppData\Local\Temp\cckM1eOc.s:21776  .debug_str:000000000000209b .LASF1394
C:\Users\stapi\AppData\Local\Temp\cckM1eOc.s:20684  .debug_str:0000000000000157 .LASF1395
C:\Users\stapi\AppData\Local\Temp\cckM1eOc.s:21718  .debug_str:0000000000001ebf .LASF1396
C:\Users\stapi\AppData\Local\Temp\cckM1eOc.s:22994  .debug_str:000000000000457a .LASF1397
C:\Users\stapi\AppData\Local\Temp\cckM1eOc.s:21012  .debug_str:0000000000000abe .LASF1398
C:\Users\stapi\AppData\Local\Temp\cckM1eOc.s:21296  .debug_str:00000000000012f8 .LASF1399
C:\Users\stapi\AppData\Local\Temp\cckM1eOc.s:21404  .debug_str:0000000000001623 .LASF1400
C:\Users\stapi\AppData\Local\Temp\cckM1eOc.s:23186  .debug_str:0000000000004b8a .LASF1401
C:\Users\stapi\AppData\Local\Temp\cckM1eOc.s:23302  .debug_str:0000000000004f18 .LASF1402
C:\Users\stapi\AppData\Local\Temp\cckM1eOc.s:22198  .debug_str:0000000000002d65 .LASF1403
C:\Users\stapi\AppData\Local\Temp\cckM1eOc.s:21792  .debug_str:0000000000002118 .LASF1404
C:\Users\stapi\AppData\Local\Temp\cckM1eOc.s:21278  .debug_str:000000000000126b .LASF1405
C:\Users\stapi\AppData\Local\Temp\cckM1eOc.s:23286  .debug_str:0000000000004e97 .LASF1406
C:\Users\stapi\AppData\Local\Temp\cckM1eOc.s:21958  .debug_str:0000000000002630 .LASF1407
C:\Users\stapi\AppData\Local\Temp\cckM1eOc.s:21418  .debug_str:0000000000001682 .LASF1408
C:\Users\stapi\AppData\Local\Temp\cckM1eOc.s:21848  .debug_str:00000000000022ba .LASF1409
C:\Users\stapi\AppData\Local\Temp\cckM1eOc.s:22952  .debug_str:0000000000004459 .LASF1410
C:\Users\stapi\AppData\Local\Temp\cckM1eOc.s:23562  .debug_str:0000000000005715 .LASF1411
C:\Users\stapi\AppData\Local\Temp\cckM1eOc.s:21328  .debug_str:00000000000013dd .LASF1412
C:\Users\stapi\AppData\Local\Temp\cckM1eOc.s:22566  .debug_str:00000000000039ab .LASF1413
C:\Users\stapi\AppData\Local\Temp\cckM1eOc.s:20798  .debug_str:00000000000004cd .LASF1414
C:\Users\stapi\AppData\Local\Temp\cckM1eOc.s:21396  .debug_str:00000000000015df .LASF1415
C:\Users\stapi\AppData\Local\Temp\cckM1eOc.s:21376  .debug_str:0000000000001543 .LASF1416
C:\Users\stapi\AppData\Local\Temp\cckM1eOc.s:21344  .debug_str:0000000000001443 .LASF1417
C:\Users\stapi\AppData\Local\Temp\cckM1eOc.s:23522  .debug_str:00000000000055ff .LASF1418
C:\Users\stapi\AppData\Local\Temp\cckM1eOc.s:23122  .debug_str:00000000000049c7 .LASF1419
C:\Users\stapi\AppData\Local\Temp\cckM1eOc.s:22294  .debug_str:0000000000003056 .LASF1420
C:\Users\stapi\AppData\Local\Temp\cckM1eOc.s:23610  .debug_str:0000000000005889 .LASF1421
C:\Users\stapi\AppData\Local\Temp\cckM1eOc.s:22800  .debug_str:000000000000401e .LASF1422
C:\Users\stapi\AppData\Local\Temp\cckM1eOc.s:21242  .debug_str:0000000000001166 .LASF1423
C:\Users\stapi\AppData\Local\Temp\cckM1eOc.s:22522  .debug_str:0000000000003869 .LASF1424
C:\Users\stapi\AppData\Local\Temp\cckM1eOc.s:21130  .debug_str:0000000000000e2b .LASF1425
C:\Users\stapi\AppData\Local\Temp\cckM1eOc.s:23142  .debug_str:0000000000004a66 .LASF1426
C:\Users\stapi\AppData\Local\Temp\cckM1eOc.s:21348  .debug_str:0000000000001458 .LASF1427
C:\Users\stapi\AppData\Local\Temp\cckM1eOc.s:22322  .debug_str:0000000000003124 .LASF1428
C:\Users\stapi\AppData\Local\Temp\cckM1eOc.s:23426  .debug_str:00000000000052bc .LASF1429
C:\Users\stapi\AppData\Local\Temp\cckM1eOc.s:23064  .debug_str:000000000000476e .LASF1430
C:\Users\stapi\AppData\Local\Temp\cckM1eOc.s:21226  .debug_str:00000000000010fd .LASF1431
C:\Users\stapi\AppData\Local\Temp\cckM1eOc.s:21194  .debug_str:000000000000100a .LASF1432
C:\Users\stapi\AppData\Local\Temp\cckM1eOc.s:21270  .debug_str:000000000000122b .LASF1433
C:\Users\stapi\AppData\Local\Temp\cckM1eOc.s:22208  .debug_str:0000000000002daf .LASF1434
C:\Users\stapi\AppData\Local\Temp\cckM1eOc.s:21994  .debug_str:0000000000002782 .LASF1435
C:\Users\stapi\AppData\Local\Temp\cckM1eOc.s:21754  .debug_str:0000000000001fe6 .LASF1436
C:\Users\stapi\AppData\Local\Temp\cckM1eOc.s:20768  .debug_str:00000000000003e5 .LASF1437
C:\Users\stapi\AppData\Local\Temp\cckM1eOc.s:21204  .debug_str:0000000000001065 .LASF1438
C:\Users\stapi\AppData\Local\Temp\cckM1eOc.s:22600  .debug_str:0000000000003aac .LASF1439
C:\Users\stapi\AppData\Local\Temp\cckM1eOc.s:20690  .debug_str:0000000000000189 .LASF1440
C:\Users\stapi\AppData\Local\Temp\cckM1eOc.s:22816  .debug_str:000000000000408b .LASF1441
C:\Users\stapi\AppData\Local\Temp\cckM1eOc.s:23138  .debug_str:0000000000004a3b .LASF1442
C:\Users\stapi\AppData\Local\Temp\cckM1eOc.s:23030  .debug_str:000000000000466a .LASF1443
C:\Users\stapi\AppData\Local\Temp\cckM1eOc.s:20806  .debug_str:00000000000004f6 .LASF1444
C:\Users\stapi\AppData\Local\Temp\cckM1eOc.s:22860  .debug_str:00000000000041b4 .LASF1445
C:\Users\stapi\AppData\Local\Temp\cckM1eOc.s:21768  .debug_str:000000000000205a .LASF1446
C:\Users\stapi\AppData\Local\Temp\cckM1eOc.s:21866  .debug_str:0000000000002352 .LASF1447
C:\Users\stapi\AppData\Local\Temp\cckM1eOc.s:23342  .debug_str:0000000000005041 .LASF1448
C:\Users\stapi\AppData\Local\Temp\cckM1eOc.s:23088  .debug_str:0000000000004827 .LASF1449
C:\Users\stapi\AppData\Local\Temp\cckM1eOc.s:23324  .debug_str:0000000000004fa3 .LASF1450
C:\Users\stapi\AppData\Local\Temp\cckM1eOc.s:20824  .debug_str:0000000000000582 .LASF1451
C:\Users\stapi\AppData\Local\Temp\cckM1eOc.s:22458  .debug_str:000000000000366f .LASF1452
C:\Users\stapi\AppData\Local\Temp\cckM1eOc.s:21038  .debug_str:0000000000000b80 .LASF1453
C:\Users\stapi\AppData\Local\Temp\cckM1eOc.s:23384  .debug_str:0000000000005171 .LASF1454
C:\Users\stapi\AppData\Local\Temp\cckM1eOc.s:21678  .debug_str:0000000000001d9b .LASF1455
C:\Users\stapi\AppData\Local\Temp\cckM1eOc.s:22118  .debug_str:0000000000002afd .LASF1456
C:\Users\stapi\AppData\Local\Temp\cckM1eOc.s:21632  .debug_str:0000000000001c6b .LASF1457
C:\Users\stapi\AppData\Local\Temp\cckM1eOc.s:22706  .debug_str:0000000000003d69 .LASF1458
C:\Users\stapi\AppData\Local\Temp\cckM1eOc.s:21268  .debug_str:0000000000001221 .LASF1459
C:\Users\stapi\AppData\Local\Temp\cckM1eOc.s:21116  .debug_str:0000000000000dd4 .LASF1460
C:\Users\stapi\AppData\Local\Temp\cckM1eOc.s:21228  .debug_str:000000000000110d .LASF1461
C:\Users\stapi\AppData\Local\Temp\cckM1eOc.s:21646  .debug_str:0000000000001cb8 .LASF1462
C:\Users\stapi\AppData\Local\Temp\cckM1eOc.s:23262  .debug_str:0000000000004df7 .LASF1463
C:\Users\stapi\AppData\Local\Temp\cckM1eOc.s:22062  .debug_str:0000000000002969 .LASF1464
C:\Users\stapi\AppData\Local\Temp\cckM1eOc.s:21334  .debug_str:0000000000001404 .LASF1465
C:\Users\stapi\AppData\Local\Temp\cckM1eOc.s:22548  .debug_str:000000000000392d .LASF1466
C:\Users\stapi\AppData\Local\Temp\cckM1eOc.s:22362  .debug_str:000000000000325b .LASF1467
C:\Users\stapi\AppData\Local\Temp\cckM1eOc.s:22188  .debug_str:0000000000002d15 .LASF1468
C:\Users\stapi\AppData\Local\Temp\cckM1eOc.s:21810  .debug_str:0000000000002190 .LASF1469
C:\Users\stapi\AppData\Local\Temp\cckM1eOc.s:22416  .debug_str:00000000000034e8 .LASF1470
C:\Users\stapi\AppData\Local\Temp\cckM1eOc.s:22586  .debug_str:0000000000003a59 .LASF1471
C:\Users\stapi\AppData\Local\Temp\cckM1eOc.s:22298  .debug_str:0000000000003078 .LASF1472
C:\Users\stapi\AppData\Local\Temp\cckM1eOc.s:21566  .debug_str:0000000000001aa2 .LASF1473
C:\Users\stapi\AppData\Local\Temp\cckM1eOc.s:21322  .debug_str:00000000000013af .LASF1474
C:\Users\stapi\AppData\Local\Temp\cckM1eOc.s:22712  .debug_str:0000000000003d8d .LASF1475
C:\Users\stapi\AppData\Local\Temp\cckM1eOc.s:21990  .debug_str:000000000000275d .LASF1476
C:\Users\stapi\AppData\Local\Temp\cckM1eOc.s:21582  .debug_str:0000000000001b1c .LASF1477
C:\Users\stapi\AppData\Local\Temp\cckM1eOc.s:21422  .debug_str:000000000000169d .LASF1478
C:\Users\stapi\AppData\Local\Temp\cckM1eOc.s:23446  .debug_str:0000000000005366 .LASF1479
C:\Users\stapi\AppData\Local\Temp\cckM1eOc.s:23082  .debug_str:00000000000047f8 .LASF1480
C:\Users\stapi\AppData\Local\Temp\cckM1eOc.s:23054  .debug_str:000000000000472e .LASF1481
C:\Users\stapi\AppData\Local\Temp\cckM1eOc.s:20840  .debug_str:00000000000005e2 .LASF1482
C:\Users\stapi\AppData\Local\Temp\cckM1eOc.s:22122  .debug_str:0000000000002b14 .LASF1483
C:\Users\stapi\AppData\Local\Temp\cckM1eOc.s:23556  .debug_str:00000000000056ed .LASF1484
C:\Users\stapi\AppData\Local\Temp\cckM1eOc.s:23702  .debug_str:0000000000005b58 .LASF1485
C:\Users\stapi\AppData\Local\Temp\cckM1eOc.s:22808  .debug_str:0000000000004061 .LASF1486
C:\Users\stapi\AppData\Local\Temp\cckM1eOc.s:21966  .debug_str:0000000000002689 .LASF1487
C:\Users\stapi\AppData\Local\Temp\cckM1eOc.s:23288  .debug_str:0000000000004ea2 .LASF1488
C:\Users\stapi\AppData\Local\Temp\cckM1eOc.s:23532  .debug_str:0000000000005651 .LASF1489
C:\Users\stapi\AppData\Local\Temp\cckM1eOc.s:23224  .debug_str:0000000000004cac .LASF1491
C:\Users\stapi\AppData\Local\Temp\cckM1eOc.s:1575   .text.hostapd_get_he_twt_responder:0000000000000000 .LFB151
C:\Users\stapi\AppData\Local\Temp\cckM1eOc.s:1618   .text.hostapd_get_he_twt_responder:0000000000000030 .LFE151
C:\Users\stapi\AppData\Local\Temp\cckM1eOc.s:22960  .debug_str:0000000000004491 .LASF1490
C:\Users\stapi\AppData\Local\Temp\cckM1eOc.s:18911  .debug_loc:0000000000000000 .LLST70
C:\Users\stapi\AppData\Local\Temp\cckM1eOc.s:20994  .debug_str:0000000000000a33 .LASF1492
C:\Users\stapi\AppData\Local\Temp\cckM1eOc.s:1468   .text.copy_sta_he_6ghz_capab:0000000000000000 .LFB150
C:\Users\stapi\AppData\Local\Temp\cckM1eOc.s:1568   .text.copy_sta_he_6ghz_capab:0000000000000082 .LFE150
C:\Users\stapi\AppData\Local\Temp\cckM1eOc.s:18936  .debug_loc:000000000000003a .LLST67
C:\Users\stapi\AppData\Local\Temp\cckM1eOc.s:18961  .debug_loc:0000000000000074 .LLST68
C:\Users\stapi\AppData\Local\Temp\cckM1eOc.s:18972  .debug_loc:0000000000000092 .LLST69
C:\Users\stapi\AppData\Local\Temp\cckM1eOc.s:1494   .text.copy_sta_he_6ghz_capab:0000000000000020 .LVL170
C:\Users\stapi\AppData\Local\Temp\cckM1eOc.s:1529   .text.copy_sta_he_6ghz_capab:000000000000004c .LVL173
C:\Users\stapi\AppData\Local\Temp\cckM1eOc.s:1551   .text.copy_sta_he_6ghz_capab:000000000000006c .LVL174
C:\Users\stapi\AppData\Local\Temp\cckM1eOc.s:1558   .text.copy_sta_he_6ghz_capab:0000000000000078 .LVL175
C:\Users\stapi\AppData\Local\Temp\cckM1eOc.s:23442  .debug_str:0000000000005345 .LASF1493
C:\Users\stapi\AppData\Local\Temp\cckM1eOc.s:1141   .text.copy_sta_he_capab:0000000000000000 .LFB149
C:\Users\stapi\AppData\Local\Temp\cckM1eOc.s:1461   .text.copy_sta_he_capab:0000000000000170 .LFE149
C:\Users\stapi\AppData\Local\Temp\cckM1eOc.s:18994  .debug_loc:00000000000000c9 .LLST45
C:\Users\stapi\AppData\Local\Temp\cckM1eOc.s:19008  .debug_loc:00000000000000ea .LLST46
C:\Users\stapi\AppData\Local\Temp\cckM1eOc.s:21090  .debug_str:0000000000000d28 .LASF1494
C:\Users\stapi\AppData\Local\Temp\cckM1eOc.s:19040  .debug_loc:000000000000013a .LLST47
C:\Users\stapi\AppData\Local\Temp\cckM1eOc.s:19054  .debug_loc:000000000000015b .LLST48
C:\Users\stapi\AppData\Local\Temp\cckM1eOc.s:19076  .debug_loc:0000000000000192 .LLST49
C:\Users\stapi\AppData\Local\Temp\cckM1eOc.s:1178   .text.copy_sta_he_capab:000000000000002a .LBB46
C:\Users\stapi\AppData\Local\Temp\cckM1eOc.s:19098  .debug_loc:00000000000001c9 .LLST50
C:\Users\stapi\AppData\Local\Temp\cckM1eOc.s:19112  .debug_loc:00000000000001ea .LLST51
C:\Users\stapi\AppData\Local\Temp\cckM1eOc.s:19126  .debug_loc:000000000000020b .LLST52
C:\Users\stapi\AppData\Local\Temp\cckM1eOc.s:19137  .debug_loc:0000000000000229 .LLST53
C:\Users\stapi\AppData\Local\Temp\cckM1eOc.s:19144  .debug_loc:000000000000023c .LLST54
C:\Users\stapi\AppData\Local\Temp\cckM1eOc.s:19151  .debug_loc:000000000000024f .LLST55
C:\Users\stapi\AppData\Local\Temp\cckM1eOc.s:19163  .debug_loc:000000000000026e .LLST56
C:\Users\stapi\AppData\Local\Temp\cckM1eOc.s:19224  .debug_loc:00000000000002ce .LLST57
C:\Users\stapi\AppData\Local\Temp\cckM1eOc.s:19233  .debug_loc:00000000000002e3 .LLST58
C:\Users\stapi\AppData\Local\Temp\cckM1eOc.s:19245  .debug_loc:0000000000000302 .LLST59
C:\Users\stapi\AppData\Local\Temp\cckM1eOc.s:1297   .text.copy_sta_he_capab:00000000000000b0 .LVL151
C:\Users\stapi\AppData\Local\Temp\cckM1eOc.s:1335   .text.copy_sta_he_capab:00000000000000d2 .LBB55
C:\Users\stapi\AppData\Local\Temp\cckM1eOc.s:1408   .text.copy_sta_he_capab:0000000000000118 .LBE55
C:\Users\stapi\AppData\Local\Temp\cckM1eOc.s:19253  .debug_loc:0000000000000316 .LLST60
C:\Users\stapi\AppData\Local\Temp\cckM1eOc.s:19260  .debug_loc:0000000000000329 .LLST61
C:\Users\stapi\AppData\Local\Temp\cckM1eOc.s:19267  .debug_loc:000000000000033c .LLST62
C:\Users\stapi\AppData\Local\Temp\cckM1eOc.s:1348   .text.copy_sta_he_capab:00000000000000dc .LBB57
C:\Users\stapi\AppData\Local\Temp\cckM1eOc.s:1374   .text.copy_sta_he_capab:00000000000000f0 .LBE57
C:\Users\stapi\AppData\Local\Temp\cckM1eOc.s:19279  .debug_loc:000000000000035b .LLST63
C:\Users\stapi\AppData\Local\Temp\cckM1eOc.s:19288  .debug_loc:0000000000000370 .LLST64
C:\Users\stapi\AppData\Local\Temp\cckM1eOc.s:1387   .text.copy_sta_he_capab:0000000000000102 .LBB59
C:\Users\stapi\AppData\Local\Temp\cckM1eOc.s:1403   .text.copy_sta_he_capab:0000000000000116 .LBE59
C:\Users\stapi\AppData\Local\Temp\cckM1eOc.s:19300  .debug_loc:000000000000038f .LLST65
C:\Users\stapi\AppData\Local\Temp\cckM1eOc.s:19309  .debug_loc:00000000000003a4 .LLST66
C:\Users\stapi\AppData\Local\Temp\cckM1eOc.s:1398   .text.copy_sta_he_capab:0000000000000114 .LVL161
C:\Users\stapi\AppData\Local\Temp\cckM1eOc.s:1312   .text.copy_sta_he_capab:00000000000000c4 .LVL152
C:\Users\stapi\AppData\Local\Temp\cckM1eOc.s:1434   .text.copy_sta_he_capab:0000000000000146 .LVL164
C:\Users\stapi\AppData\Local\Temp\cckM1eOc.s:1440   .text.copy_sta_he_capab:0000000000000154 .LVL165
C:\Users\stapi\AppData\Local\Temp\cckM1eOc.s:1451   .text.copy_sta_he_capab:0000000000000166 .LVL167
C:\Users\stapi\AppData\Local\Temp\cckM1eOc.s:22790  .debug_str:0000000000003fe0 .LASF1517
C:\Users\stapi\AppData\Local\Temp\cckM1eOc.s:23108  .debug_str:00000000000048dc .LASF1495
C:\Users\stapi\AppData\Local\Temp\cckM1eOc.s:23124  .debug_str:00000000000049dd .LASF1496
C:\Users\stapi\AppData\Local\Temp\cckM1eOc.s:23038  .debug_str:00000000000046aa .LASF1497
C:\Users\stapi\AppData\Local\Temp\cckM1eOc.s:21596  .debug_str:0000000000001b7e .LASF1498
C:\Users\stapi\AppData\Local\Temp\cckM1eOc.s:22882  .debug_str:000000000000424d .LASF1499
C:\Users\stapi\AppData\Local\Temp\cckM1eOc.s:21758  .debug_str:0000000000002002 .LASF1500
C:\Users\stapi\AppData\Local\Temp\cckM1eOc.s:22486  .debug_str:000000000000374d .LASF1540
C:\Users\stapi\AppData\Local\Temp\cckM1eOc.s:1110   .text.hostapd_get_he_capab:0000000000000000 .LFB147
C:\Users\stapi\AppData\Local\Temp\cckM1eOc.s:1130   .text.hostapd_get_he_capab:0000000000000016 .LFE147
C:\Users\stapi\AppData\Local\Temp\cckM1eOc.s:19316  .debug_loc:00000000000003b7 .LLST41
C:\Users\stapi\AppData\Local\Temp\cckM1eOc.s:22792  .debug_str:0000000000003ff3 .LASF1501
C:\Users\stapi\AppData\Local\Temp\cckM1eOc.s:19334  .debug_loc:00000000000003e3 .LLST42
C:\Users\stapi\AppData\Local\Temp\cckM1eOc.s:22594  .debug_str:0000000000003a95 .LASF1502
C:\Users\stapi\AppData\Local\Temp\cckM1eOc.s:19352  .debug_loc:000000000000040f .LLST43
C:\Users\stapi\AppData\Local\Temp\cckM1eOc.s:19374  .debug_loc:0000000000000446 .LLST44
C:\Users\stapi\AppData\Local\Temp\cckM1eOc.s:1126   .text.hostapd_get_he_capab:0000000000000014 .LVL134
C:\Users\stapi\AppData\Local\Temp\cckM1eOc.s:22760  .debug_str:0000000000003eea .LASF1503
C:\Users\stapi\AppData\Local\Temp\cckM1eOc.s:958    .text.hostapd_eid_he_6ghz_band_cap:0000000000000000 .LFB146
C:\Users\stapi\AppData\Local\Temp\cckM1eOc.s:1103   .text.hostapd_eid_he_6ghz_band_cap:00000000000000a0 .LFE146
C:\Users\stapi\AppData\Local\Temp\cckM1eOc.s:19438  .debug_loc:00000000000004b0 .LLST34
C:\Users\stapi\AppData\Local\Temp\cckM1eOc.s:19460  .debug_loc:00000000000004e7 .LLST35
C:\Users\stapi\AppData\Local\Temp\cckM1eOc.s:19482  .debug_loc:000000000000051e .LLST36
C:\Users\stapi\AppData\Local\Temp\cckM1eOc.s:19498  .debug_loc:0000000000000548 .LLST37
C:\Users\stapi\AppData\Local\Temp\cckM1eOc.s:19513  .debug_loc:000000000000056c .LLST38
C:\Users\stapi\AppData\Local\Temp\cckM1eOc.s:19522  .debug_loc:0000000000000581 .LLST39
C:\Users\stapi\AppData\Local\Temp\cckM1eOc.s:19570  .debug_loc:00000000000005dc .LLST40
C:\Users\stapi\AppData\Local\Temp\cckM1eOc.s:995    .text.hostapd_eid_he_6ghz_band_cap:0000000000000028 .LVL116
C:\Users\stapi\AppData\Local\Temp\cckM1eOc.s:1002   .text.hostapd_eid_he_6ghz_band_cap:0000000000000038 .LVL117
C:\Users\stapi\AppData\Local\Temp\cckM1eOc.s:21862  .debug_str:000000000000232d .LASF1504
C:\Users\stapi\AppData\Local\Temp\cckM1eOc.s:787    .text.hostapd_eid_spatial_reuse:0000000000000000 .LFB145
C:\Users\stapi\AppData\Local\Temp\cckM1eOc.s:951    .text.hostapd_eid_spatial_reuse:00000000000000be .LFE145
C:\Users\stapi\AppData\Local\Temp\cckM1eOc.s:19591  .debug_loc:000000000000060b .LLST28
C:\Users\stapi\AppData\Local\Temp\cckM1eOc.s:19613  .debug_loc:0000000000000642 .LLST29
C:\Users\stapi\AppData\Local\Temp\cckM1eOc.s:19641  .debug_loc:0000000000000686 .LLST30
C:\Users\stapi\AppData\Local\Temp\cckM1eOc.s:19687  .debug_loc:00000000000006ea .LLST31
C:\Users\stapi\AppData\Local\Temp\cckM1eOc.s:22454  .debug_str:000000000000364f .LASF1505
C:\Users\stapi\AppData\Local\Temp\cckM1eOc.s:19750  .debug_loc:000000000000077b .LLST32
C:\Users\stapi\AppData\Local\Temp\cckM1eOc.s:19805  .debug_loc:00000000000007fd .LLST33
C:\Users\stapi\AppData\Local\Temp\cckM1eOc.s:855    .text.hostapd_eid_spatial_reuse:000000000000004a .LVL99
C:\Users\stapi\AppData\Local\Temp\cckM1eOc.s:908    .text.hostapd_eid_spatial_reuse:0000000000000090 .LVL104
C:\Users\stapi\AppData\Local\Temp\cckM1eOc.s:925    .text.hostapd_eid_spatial_reuse:00000000000000a8 .LVL107
C:\Users\stapi\AppData\Local\Temp\cckM1eOc.s:22102  .debug_str:0000000000002a7e .LASF1506
C:\Users\stapi\AppData\Local\Temp\cckM1eOc.s:681    .text.hostapd_eid_he_mu_edca_parameter_set:0000000000000000 .LFB144
C:\Users\stapi\AppData\Local\Temp\cckM1eOc.s:780    .text.hostapd_eid_he_mu_edca_parameter_set:0000000000000072 .LFE144
C:\Users\stapi\AppData\Local\Temp\cckM1eOc.s:19827  .debug_loc:0000000000000834 .LLST24
C:\Users\stapi\AppData\Local\Temp\cckM1eOc.s:19852  .debug_loc:000000000000086e .LLST25
C:\Users\stapi\AppData\Local\Temp\cckM1eOc.s:21074  .debug_str:0000000000000cb9 .LASF1507
C:\Users\stapi\AppData\Local\Temp\cckM1eOc.s:19876  .debug_loc:00000000000008a7 .LLST26
C:\Users\stapi\AppData\Local\Temp\cckM1eOc.s:19917  .debug_loc:0000000000000901 .LLST27
C:\Users\stapi\AppData\Local\Temp\cckM1eOc.s:766    .text.hostapd_eid_he_mu_edca_parameter_set:000000000000005a .LVL87
C:\Users\stapi\AppData\Local\Temp\cckM1eOc.s:774    .text.hostapd_eid_he_mu_edca_parameter_set:0000000000000070 .LVL88
C:\Users\stapi\AppData\Local\Temp\cckM1eOc.s:22228  .debug_str:0000000000002e3a .LASF1508
C:\Users\stapi\AppData\Local\Temp\cckM1eOc.s:355    .text.hostapd_eid_he_operation:0000000000000000 .LFB143
C:\Users\stapi\AppData\Local\Temp\cckM1eOc.s:670    .text.hostapd_eid_he_operation:0000000000000164 .LFE143
C:\Users\stapi\AppData\Local\Temp\cckM1eOc.s:19989  .debug_loc:0000000000000975 .LLST14
C:\Users\stapi\AppData\Local\Temp\cckM1eOc.s:20011  .debug_loc:00000000000009ac .LLST15
C:\Users\stapi\AppData\Local\Temp\cckM1eOc.s:23498  .debug_str:00000000000054de .LASF1509
C:\Users\stapi\AppData\Local\Temp\cckM1eOc.s:20033  .debug_loc:00000000000009e3 .LLST16
C:\Users\stapi\AppData\Local\Temp\cckM1eOc.s:20058  .debug_loc:0000000000000a1d .LLST17
C:\Users\stapi\AppData\Local\Temp\cckM1eOc.s:22482  .debug_str:0000000000003735 .LASF1510
C:\Users\stapi\AppData\Local\Temp\cckM1eOc.s:20157  .debug_loc:0000000000000b03 .LLST18
C:\Users\stapi\AppData\Local\Temp\cckM1eOc.s:20175  .debug_loc:0000000000000b2f .LLST19
C:\Users\stapi\AppData\Local\Temp\cckM1eOc.s:22986  .debug_str:0000000000004546 .LASF1511
C:\Users\stapi\AppData\Local\Temp\cckM1eOc.s:20204  .debug_loc:0000000000000b74 .LLST20
C:\Users\stapi\AppData\Local\Temp\cckM1eOc.s:22988  .debug_str:000000000000454b .LASF1512
C:\Users\stapi\AppData\Local\Temp\cckM1eOc.s:20223  .debug_loc:0000000000000ba8 .LLST21
C:\Users\stapi\AppData\Local\Temp\cckM1eOc.s:513    .text.hostapd_eid_he_operation:00000000000000c0 .LBB24
C:\Users\stapi\AppData\Local\Temp\cckM1eOc.s:20246  .debug_loc:0000000000000be7 .LLST22
C:\Users\stapi\AppData\Local\Temp\cckM1eOc.s:528    .text.hostapd_eid_he_operation:00000000000000ca .LBB27
C:\Users\stapi\AppData\Local\Temp\cckM1eOc.s:20257  .debug_loc:0000000000000c05 .LLST23
C:\Users\stapi\AppData\Local\Temp\cckM1eOc.s:658    .text.hostapd_eid_he_operation:0000000000000158 .LVL73
C:\Users\stapi\AppData\Local\Temp\cckM1eOc.s:388    .text.hostapd_eid_he_operation:0000000000000024 .LVL37
C:\Users\stapi\AppData\Local\Temp\cckM1eOc.s:423    .text.hostapd_eid_he_operation:000000000000004e .LVL44
C:\Users\stapi\AppData\Local\Temp\cckM1eOc.s:502    .text.hostapd_eid_he_operation:00000000000000b6 .LVL53
C:\Users\stapi\AppData\Local\Temp\cckM1eOc.s:23718  .debug_str:0000000000005bd4 .LASF1513
C:\Users\stapi\AppData\Local\Temp\cckM1eOc.s:83     .text.hostapd_eid_he_capab:0000000000000000 .LFB142
C:\Users\stapi\AppData\Local\Temp\cckM1eOc.s:348    .text.hostapd_eid_he_capab:0000000000000164 .LFE142
C:\Users\stapi\AppData\Local\Temp\cckM1eOc.s:20268  .debug_loc:0000000000000c23 .LLST2
C:\Users\stapi\AppData\Local\Temp\cckM1eOc.s:20290  .debug_loc:0000000000000c5a .LLST3
C:\Users\stapi\AppData\Local\Temp\cckM1eOc.s:20312  .debug_loc:0000000000000c91 .LLST4
C:\Users\stapi\AppData\Local\Temp\cckM1eOc.s:20326  .debug_loc:0000000000000cb2 .LLST5
C:\Users\stapi\AppData\Local\Temp\cckM1eOc.s:20333  .debug_loc:0000000000000cc5 .LLST6
C:\Users\stapi\AppData\Local\Temp\cckM1eOc.s:20352  .debug_loc:0000000000000cf2 .LLST7
C:\Users\stapi\AppData\Local\Temp\cckM1eOc.s:21522  .debug_str:0000000000001976 .LASF1514
C:\Users\stapi\AppData\Local\Temp\cckM1eOc.s:20371  .debug_loc:0000000000000d26 .LLST8
C:\Users\stapi\AppData\Local\Temp\cckM1eOc.s:22054  .debug_str:000000000000292e .LASF1515
C:\Users\stapi\AppData\Local\Temp\cckM1eOc.s:20393  .debug_loc:0000000000000d5d .LLST9
C:\Users\stapi\AppData\Local\Temp\cckM1eOc.s:22576  .debug_str:00000000000039fa .LASF1516
C:\Users\stapi\AppData\Local\Temp\cckM1eOc.s:20410  .debug_loc:0000000000000d88 .LLST10
C:\Users\stapi\AppData\Local\Temp\cckM1eOc.s:122    .text.hostapd_eid_he_capab:000000000000001e .LBB14
C:\Users\stapi\AppData\Local\Temp\cckM1eOc.s:20426  .debug_loc:0000000000000db2 .LLST11
C:\Users\stapi\AppData\Local\Temp\cckM1eOc.s:20433  .debug_loc:0000000000000dc5 .LLST12
C:\Users\stapi\AppData\Local\Temp\cckM1eOc.s:20440  .debug_loc:0000000000000dd8 .LLST13
C:\Users\stapi\AppData\Local\Temp\cckM1eOc.s:145    .text.hostapd_eid_he_capab:000000000000003e .LVL18
C:\Users\stapi\AppData\Local\Temp\cckM1eOc.s:207    .text.hostapd_eid_he_capab:000000000000009a .LVL24
C:\Users\stapi\AppData\Local\Temp\cckM1eOc.s:215    .text.hostapd_eid_he_capab:00000000000000ac .LVL25
C:\Users\stapi\AppData\Local\Temp\cckM1eOc.s:221    .text.hostapd_eid_he_capab:00000000000000bc .LVL26
C:\Users\stapi\AppData\Local\Temp\cckM1eOc.s:240    .text.hostapd_eid_he_capab:00000000000000d4 .LVL28
C:\Users\stapi\AppData\Local\Temp\cckM1eOc.s:257    .text.hostapd_eid_he_capab:00000000000000f2 .LVL30
C:\Users\stapi\AppData\Local\Temp\cckM1eOc.s:22210  .debug_str:0000000000002dc1 .LASF1518
C:\Users\stapi\AppData\Local\Temp\cckM1eOc.s:21456  .debug_str:000000000000177d .LASF1519
C:\Users\stapi\AppData\Local\Temp\cckM1eOc.s:22638  .debug_str:0000000000003b9f .LASF1520
C:\Users\stapi\AppData\Local\Temp\cckM1eOc.s:22304  .debug_str:00000000000030ad .LASF1521
C:\Users\stapi\AppData\Local\Temp\cckM1eOc.s:20986  .debug_str:00000000000009d8 .LASF1522
C:\Users\stapi\AppData\Local\Temp\cckM1eOc.s:22558  .debug_str:0000000000003982 .LASF1523
C:\Users\stapi\AppData\Local\Temp\cckM1eOc.s:21726  .debug_str:0000000000001eff .LASF1524
C:\Users\stapi\AppData\Local\Temp\cckM1eOc.s:22452  .debug_str:000000000000362a .LASF1525
C:\Users\stapi\AppData\Local\Temp\cckM1eOc.s:23360  .debug_str:00000000000050b5 .LASF1526
C:\Users\stapi\AppData\Local\Temp\cckM1eOc.s:13     .text.ieee80211_he_ppet_size.part.0:0000000000000000 .LFB152
C:\Users\stapi\AppData\Local\Temp\cckM1eOc.s:76     .text.ieee80211_he_ppet_size.part.0:0000000000000032 .LFE152
C:\Users\stapi\AppData\Local\Temp\cckM1eOc.s:20453  .debug_loc:0000000000000df8 .LLST0
C:\Users\stapi\AppData\Local\Temp\cckM1eOc.s:20471  .debug_loc:0000000000000e24 .LLST1
C:\Users\stapi\AppData\Local\Temp\cckM1eOc.s:22364  .debug_str:0000000000003270 .LASF1527
C:\Users\stapi\AppData\Local\Temp\cckM1eOc.s:23668  .debug_str:0000000000005a41 .LASF1528
C:\Users\stapi\AppData\Local\Temp\cckM1eOc.s:22564  .debug_str:00000000000039a1 .LASF1529
C:\Users\stapi\AppData\Local\Temp\cckM1eOc.s:21460  .debug_str:000000000000179b .LASF1530
C:\Users\stapi\AppData\Local\Temp\cckM1eOc.s:23614  .debug_str:00000000000058aa .LASF1531
C:\Users\stapi\AppData\Local\Temp\cckM1eOc.s:21556  .debug_str:0000000000001a67 .LASF1532
C:\Users\stapi\AppData\Local\Temp\cckM1eOc.s:20930  .debug_str:000000000000086a .LASF1533
C:\Users\stapi\AppData\Local\Temp\cckM1eOc.s:21440  .debug_str:0000000000001714 .LASF1534
C:\Users\stapi\AppData\Local\Temp\cckM1eOc.s:21458  .debug_str:0000000000001785 .LASF1535
C:\Users\stapi\AppData\Local\Temp\cckM1eOc.s:1578   .text.hostapd_get_he_twt_responder:0000000000000000 .LVL176
C:\Users\stapi\AppData\Local\Temp\cckM1eOc.s:1594   .text.hostapd_get_he_twt_responder:0000000000000016 .LVL177
C:\Users\stapi\AppData\Local\Temp\cckM1eOc.s:1609   .text.hostapd_get_he_twt_responder:000000000000002c .LVL178
C:\Users\stapi\AppData\Local\Temp\cckM1eOc.s:1613   .text.hostapd_get_he_twt_responder:000000000000002e .LVL179
C:\Users\stapi\AppData\Local\Temp\cckM1eOc.s:1471   .text.copy_sta_he_6ghz_capab:0000000000000000 .LVL168
C:\Users\stapi\AppData\Local\Temp\cckM1eOc.s:1482   .text.copy_sta_he_6ghz_capab:000000000000000c .LVL169
C:\Users\stapi\AppData\Local\Temp\cckM1eOc.s:1511   .text.copy_sta_he_6ghz_capab:000000000000002e .LVL171
C:\Users\stapi\AppData\Local\Temp\cckM1eOc.s:1526   .text.copy_sta_he_6ghz_capab:0000000000000042 .LVL172
C:\Users\stapi\AppData\Local\Temp\cckM1eOc.s:1144   .text.copy_sta_he_capab:0000000000000000 .LVL135
C:\Users\stapi\AppData\Local\Temp\cckM1eOc.s:1215   .text.copy_sta_he_capab:0000000000000054 .LVL143
C:\Users\stapi\AppData\Local\Temp\cckM1eOc.s:1200   .text.copy_sta_he_capab:000000000000003e .LVL140
C:\Users\stapi\AppData\Local\Temp\cckM1eOc.s:1317   .text.copy_sta_he_capab:00000000000000c8 .LVL153
C:\Users\stapi\AppData\Local\Temp\cckM1eOc.s:1332   .text.copy_sta_he_capab:00000000000000d2 .LVL154
C:\Users\stapi\AppData\Local\Temp\cckM1eOc.s:1431   .text.copy_sta_he_capab:000000000000013c .LVL163
C:\Users\stapi\AppData\Local\Temp\cckM1eOc.s:1445   .text.copy_sta_he_capab:000000000000015a .LVL166
C:\Users\stapi\AppData\Local\Temp\cckM1eOc.s:1195   .text.copy_sta_he_capab:000000000000003a .LVL139
C:\Users\stapi\AppData\Local\Temp\cckM1eOc.s:1193   .text.copy_sta_he_capab:0000000000000036 .LVL138
C:\Users\stapi\AppData\Local\Temp\cckM1eOc.s:1175   .text.copy_sta_he_capab:0000000000000028 .LVL136
C:\Users\stapi\AppData\Local\Temp\cckM1eOc.s:1177   .text.copy_sta_he_capab:000000000000002a .LVL137
C:\Users\stapi\AppData\Local\Temp\cckM1eOc.s:1239   .text.copy_sta_he_capab:000000000000006c .LVL146
C:\Users\stapi\AppData\Local\Temp\cckM1eOc.s:1251   .text.copy_sta_he_capab:0000000000000074 .LVL147
C:\Users\stapi\AppData\Local\Temp\cckM1eOc.s:1209   .text.copy_sta_he_capab:000000000000004c .LVL141
C:\Users\stapi\AppData\Local\Temp\cckM1eOc.s:1293   .text.copy_sta_he_capab:00000000000000a2 .LVL150
C:\Users\stapi\AppData\Local\Temp\cckM1eOc.s:1213   .text.copy_sta_he_capab:0000000000000050 .LVL142
C:\Users\stapi\AppData\Local\Temp\cckM1eOc.s:1217   .text.copy_sta_he_capab:0000000000000056 .LVL144
C:\Users\stapi\AppData\Local\Temp\cckM1eOc.s:1225   .text.copy_sta_he_capab:000000000000005c .LVL145
C:\Users\stapi\AppData\Local\Temp\cckM1eOc.s:1259   .text.copy_sta_he_capab:0000000000000076 .LVL148
C:\Users\stapi\AppData\Local\Temp\cckM1eOc.s:1401   .text.copy_sta_he_capab:0000000000000116 .LVL162
C:\Users\stapi\AppData\Local\Temp\cckM1eOc.s:1378   .text.copy_sta_he_capab:00000000000000f6 .LVL159
C:\Users\stapi\AppData\Local\Temp\cckM1eOc.s:1347   .text.copy_sta_he_capab:00000000000000dc .LVL155
C:\Users\stapi\AppData\Local\Temp\cckM1eOc.s:1370   .text.copy_sta_he_capab:00000000000000f0 .LVL158
C:\Users\stapi\AppData\Local\Temp\cckM1eOc.s:1360   .text.copy_sta_he_capab:00000000000000e6 .LVL156
C:\Users\stapi\AppData\Local\Temp\cckM1eOc.s:1368   .text.copy_sta_he_capab:00000000000000ec .LVL157
C:\Users\stapi\AppData\Local\Temp\cckM1eOc.s:1386   .text.copy_sta_he_capab:0000000000000102 .LVL160
C:\Users\stapi\AppData\Local\Temp\cckM1eOc.s:1113   .text.hostapd_get_he_capab:0000000000000000 .LVL130
C:\Users\stapi\AppData\Local\Temp\cckM1eOc.s:1118   .text.hostapd_get_he_capab:0000000000000004 .LVL131
C:\Users\stapi\AppData\Local\Temp\cckM1eOc.s:1122   .text.hostapd_get_he_capab:0000000000000008 .LVL132
C:\Users\stapi\AppData\Local\Temp\cckM1eOc.s:1124   .text.hostapd_get_he_capab:000000000000000c .LVL133
C:\Users\stapi\AppData\Local\Temp\cckM1eOc.s:961    .text.hostapd_eid_he_6ghz_band_cap:0000000000000000 .LVL111
C:\Users\stapi\AppData\Local\Temp\cckM1eOc.s:993    .text.hostapd_eid_he_6ghz_band_cap:0000000000000020 .LVL115
C:\Users\stapi\AppData\Local\Temp\cckM1eOc.s:1079   .text.hostapd_eid_he_6ghz_band_cap:000000000000008c .LVL127
C:\Users\stapi\AppData\Local\Temp\cckM1eOc.s:1092   .text.hostapd_eid_he_6ghz_band_cap:0000000000000096 .LVL128
C:\Users\stapi\AppData\Local\Temp\cckM1eOc.s:972    .text.hostapd_eid_he_6ghz_band_cap:000000000000000a .LVL112
C:\Users\stapi\AppData\Local\Temp\cckM1eOc.s:990    .text.hostapd_eid_he_6ghz_band_cap:000000000000001a .LVL114
C:\Users\stapi\AppData\Local\Temp\cckM1eOc.s:1006   .text.hostapd_eid_he_6ghz_band_cap:000000000000003a .LVL118
C:\Users\stapi\AppData\Local\Temp\cckM1eOc.s:1072   .text.hostapd_eid_he_6ghz_band_cap:0000000000000086 .LVL126
C:\Users\stapi\AppData\Local\Temp\cckM1eOc.s:1026   .text.hostapd_eid_he_6ghz_band_cap:0000000000000056 .LVL119
C:\Users\stapi\AppData\Local\Temp\cckM1eOc.s:1031   .text.hostapd_eid_he_6ghz_band_cap:0000000000000058 .LVL120
C:\Users\stapi\AppData\Local\Temp\cckM1eOc.s:1039   .text.hostapd_eid_he_6ghz_band_cap:0000000000000062 .LVL121
C:\Users\stapi\AppData\Local\Temp\cckM1eOc.s:1068   .text.hostapd_eid_he_6ghz_band_cap:0000000000000082 .LVL125
C:\Users\stapi\AppData\Local\Temp\cckM1eOc.s:1100   .text.hostapd_eid_he_6ghz_band_cap:000000000000009e .LVL129
C:\Users\stapi\AppData\Local\Temp\cckM1eOc.s:1048   .text.hostapd_eid_he_6ghz_band_cap:000000000000006c .LVL122
C:\Users\stapi\AppData\Local\Temp\cckM1eOc.s:1056   .text.hostapd_eid_he_6ghz_band_cap:0000000000000072 .LVL123
C:\Users\stapi\AppData\Local\Temp\cckM1eOc.s:1061   .text.hostapd_eid_he_6ghz_band_cap:0000000000000078 .LVL124
C:\Users\stapi\AppData\Local\Temp\cckM1eOc.s:790    .text.hostapd_eid_spatial_reuse:0000000000000000 .LVL89
C:\Users\stapi\AppData\Local\Temp\cckM1eOc.s:853    .text.hostapd_eid_spatial_reuse:0000000000000042 .LVL98
C:\Users\stapi\AppData\Local\Temp\cckM1eOc.s:936    .text.hostapd_eid_spatial_reuse:00000000000000b2 .LVL108
C:\Users\stapi\AppData\Local\Temp\cckM1eOc.s:851    .text.hostapd_eid_spatial_reuse:000000000000003e .LVL97
C:\Users\stapi\AppData\Local\Temp\cckM1eOc.s:873    .text.hostapd_eid_spatial_reuse:000000000000005e .LVL101
C:\Users\stapi\AppData\Local\Temp\cckM1eOc.s:944    .text.hostapd_eid_spatial_reuse:00000000000000b8 .LVL109
C:\Users\stapi\AppData\Local\Temp\cckM1eOc.s:847    .text.hostapd_eid_spatial_reuse:000000000000003a .LVL96
C:\Users\stapi\AppData\Local\Temp\cckM1eOc.s:802    .text.hostapd_eid_spatial_reuse:000000000000000c .LVL90
C:\Users\stapi\AppData\Local\Temp\cckM1eOc.s:827    .text.hostapd_eid_spatial_reuse:0000000000000026 .LVL93
C:\Users\stapi\AppData\Local\Temp\cckM1eOc.s:842    .text.hostapd_eid_spatial_reuse:0000000000000036 .LVL95
C:\Users\stapi\AppData\Local\Temp\cckM1eOc.s:865    .text.hostapd_eid_spatial_reuse:0000000000000056 .LVL100
C:\Users\stapi\AppData\Local\Temp\cckM1eOc.s:921    .text.hostapd_eid_spatial_reuse:000000000000009c .LVL106
C:\Users\stapi\AppData\Local\Temp\cckM1eOc.s:948    .text.hostapd_eid_spatial_reuse:00000000000000bc .LVL110
C:\Users\stapi\AppData\Local\Temp\cckM1eOc.s:880    .text.hostapd_eid_spatial_reuse:0000000000000062 .LVL102
C:\Users\stapi\AppData\Local\Temp\cckM1eOc.s:892    .text.hostapd_eid_spatial_reuse:0000000000000074 .LVL103
C:\Users\stapi\AppData\Local\Temp\cckM1eOc.s:915    .text.hostapd_eid_spatial_reuse:0000000000000096 .LVL105
C:\Users\stapi\AppData\Local\Temp\cckM1eOc.s:818    .text.hostapd_eid_spatial_reuse:000000000000001e .LVL91
C:\Users\stapi\AppData\Local\Temp\cckM1eOc.s:825    .text.hostapd_eid_spatial_reuse:0000000000000022 .LVL92
C:\Users\stapi\AppData\Local\Temp\cckM1eOc.s:832    .text.hostapd_eid_spatial_reuse:0000000000000028 .LVL94
C:\Users\stapi\AppData\Local\Temp\cckM1eOc.s:684    .text.hostapd_eid_he_mu_edca_parameter_set:0000000000000000 .LVL75
C:\Users\stapi\AppData\Local\Temp\cckM1eOc.s:718    .text.hostapd_eid_he_mu_edca_parameter_set:0000000000000022 .LVL80
C:\Users\stapi\AppData\Local\Temp\cckM1eOc.s:728    .text.hostapd_eid_he_mu_edca_parameter_set:000000000000002c .LVL81
C:\Users\stapi\AppData\Local\Temp\cckM1eOc.s:759    .text.hostapd_eid_he_mu_edca_parameter_set:000000000000004c .LVL85
C:\Users\stapi\AppData\Local\Temp\cckM1eOc.s:762    .text.hostapd_eid_he_mu_edca_parameter_set:000000000000004e .LVL86
C:\Users\stapi\AppData\Local\Temp\cckM1eOc.s:700    .text.hostapd_eid_he_mu_edca_parameter_set:000000000000000e .LVL76
C:\Users\stapi\AppData\Local\Temp\cckM1eOc.s:705    .text.hostapd_eid_he_mu_edca_parameter_set:0000000000000016 .LVL77
C:\Users\stapi\AppData\Local\Temp\cckM1eOc.s:739    .text.hostapd_eid_he_mu_edca_parameter_set:0000000000000032 .LVL83
C:\Users\stapi\AppData\Local\Temp\cckM1eOc.s:751    .text.hostapd_eid_he_mu_edca_parameter_set:0000000000000046 .LVL84
C:\Users\stapi\AppData\Local\Temp\cckM1eOc.s:712    .text.hostapd_eid_he_mu_edca_parameter_set:000000000000001c .LVL78
C:\Users\stapi\AppData\Local\Temp\cckM1eOc.s:716    .text.hostapd_eid_he_mu_edca_parameter_set:000000000000001e .LVL79
C:\Users\stapi\AppData\Local\Temp\cckM1eOc.s:736    .text.hostapd_eid_he_mu_edca_parameter_set:000000000000002e .LVL82
C:\Users\stapi\AppData\Local\Temp\cckM1eOc.s:358    .text.hostapd_eid_he_operation:0000000000000000 .LVL34
C:\Users\stapi\AppData\Local\Temp\cckM1eOc.s:386    .text.hostapd_eid_he_operation:000000000000001c .LVL36
C:\Users\stapi\AppData\Local\Temp\cckM1eOc.s:617    .text.hostapd_eid_he_operation:000000000000013a .LVL69
C:\Users\stapi\AppData\Local\Temp\cckM1eOc.s:630    .text.hostapd_eid_he_operation:0000000000000144 .LVL70
C:\Users\stapi\AppData\Local\Temp\cckM1eOc.s:416    .text.hostapd_eid_he_operation:000000000000003e .LVL42
C:\Users\stapi\AppData\Local\Temp\cckM1eOc.s:421    .text.hostapd_eid_he_operation:0000000000000046 .LVL43
C:\Users\stapi\AppData\Local\Temp\cckM1eOc.s:373    .text.hostapd_eid_he_operation:000000000000000c .LVL35
C:\Users\stapi\AppData\Local\Temp\cckM1eOc.s:396    .text.hostapd_eid_he_operation:000000000000002a .LVL38
C:\Users\stapi\AppData\Local\Temp\cckM1eOc.s:411    .text.hostapd_eid_he_operation:000000000000003a .LVL41
C:\Users\stapi\AppData\Local\Temp\cckM1eOc.s:496    .text.hostapd_eid_he_operation:00000000000000a6 .LVL52
C:\Users\stapi\AppData\Local\Temp\cckM1eOc.s:505    .text.hostapd_eid_he_operation:00000000000000ba .LVL54
C:\Users\stapi\AppData\Local\Temp\cckM1eOc.s:519    .text.hostapd_eid_he_operation:00000000000000c4 .LVL56
C:\Users\stapi\AppData\Local\Temp\cckM1eOc.s:552    .text.hostapd_eid_he_operation:00000000000000e0 .LVL60
C:\Users\stapi\AppData\Local\Temp\cckM1eOc.s:558    .text.hostapd_eid_he_operation:00000000000000e4 .LVL61
C:\Users\stapi\AppData\Local\Temp\cckM1eOc.s:585    .text.hostapd_eid_he_operation:000000000000010a .LVL65
C:\Users\stapi\AppData\Local\Temp\cckM1eOc.s:593    .text.hostapd_eid_he_operation:0000000000000110 .LVL66
C:\Users\stapi\AppData\Local\Temp\cckM1eOc.s:599    .text.hostapd_eid_he_operation:0000000000000118 .LVL67
C:\Users\stapi\AppData\Local\Temp\cckM1eOc.s:650    .text.hostapd_eid_he_operation:000000000000014e .LVL72
C:\Users\stapi\AppData\Local\Temp\cckM1eOc.s:400    .text.hostapd_eid_he_operation:000000000000002c .LVL39
C:\Users\stapi\AppData\Local\Temp\cckM1eOc.s:407    .text.hostapd_eid_he_operation:0000000000000036 .LVL40
C:\Users\stapi\AppData\Local\Temp\cckM1eOc.s:432    .text.hostapd_eid_he_operation:000000000000005c .LVL45
C:\Users\stapi\AppData\Local\Temp\cckM1eOc.s:438    .text.hostapd_eid_he_operation:0000000000000062 .LVL46
C:\Users\stapi\AppData\Local\Temp\cckM1eOc.s:487    .text.hostapd_eid_he_operation:0000000000000094 .LVL51
C:\Users\stapi\AppData\Local\Temp\cckM1eOc.s:524    .text.hostapd_eid_he_operation:00000000000000ca .LVL57
C:\Users\stapi\AppData\Local\Temp\cckM1eOc.s:581    .text.hostapd_eid_he_operation:0000000000000104 .LVL64
C:\Users\stapi\AppData\Local\Temp\cckM1eOc.s:602    .text.hostapd_eid_he_operation:000000000000011c .LVL68
C:\Users\stapi\AppData\Local\Temp\cckM1eOc.s:639    .text.hostapd_eid_he_operation:0000000000000148 .LVL71
C:\Users\stapi\AppData\Local\Temp\cckM1eOc.s:535    .text.hostapd_eid_he_operation:00000000000000ce .LVL58
C:\Users\stapi\AppData\Local\Temp\cckM1eOc.s:572    .text.hostapd_eid_he_operation:00000000000000f8 .LVL63
C:\Users\stapi\AppData\Local\Temp\cckM1eOc.s:662    .text.hostapd_eid_he_operation:000000000000015e .LVL74
C:\Users\stapi\AppData\Local\Temp\cckM1eOc.s:512    .text.hostapd_eid_he_operation:00000000000000c0 .LVL55
C:\Users\stapi\AppData\Local\Temp\cckM1eOc.s:86     .text.hostapd_eid_he_capab:0000000000000000 .LVL14
C:\Users\stapi\AppData\Local\Temp\cckM1eOc.s:136    .text.hostapd_eid_he_capab:000000000000002e .LVL17
C:\Users\stapi\AppData\Local\Temp\cckM1eOc.s:311    .text.hostapd_eid_he_capab:0000000000000142 .LVL32
C:\Users\stapi\AppData\Local\Temp\cckM1eOc.s:330    .text.hostapd_eid_he_capab:000000000000014c .LVL33
C:\Users\stapi\AppData\Local\Temp\cckM1eOc.s:230    .text.hostapd_eid_he_capab:00000000000000cc .LVL27
C:\Users\stapi\AppData\Local\Temp\cckM1eOc.s:108    .text.hostapd_eid_he_capab:0000000000000010 .LVL15
C:\Users\stapi\AppData\Local\Temp\cckM1eOc.s:166    .text.hostapd_eid_he_capab:000000000000005c .LVL20
C:\Users\stapi\AppData\Local\Temp\cckM1eOc.s:306    .text.hostapd_eid_he_capab:000000000000013a .LVL31
C:\Users\stapi\AppData\Local\Temp\cckM1eOc.s:120    .text.hostapd_eid_he_capab:000000000000001e .LVL16
C:\Users\stapi\AppData\Local\Temp\cckM1eOc.s:247    .text.hostapd_eid_he_capab:00000000000000da .LVL29
C:\Users\stapi\AppData\Local\Temp\cckM1eOc.s:148    .text.hostapd_eid_he_capab:0000000000000040 .LVL19
C:\Users\stapi\AppData\Local\Temp\cckM1eOc.s:17     .text.ieee80211_he_ppet_size.part.0:0000000000000000 .LVL0
C:\Users\stapi\AppData\Local\Temp\cckM1eOc.s:36     .text.ieee80211_he_ppet_size.part.0:000000000000000c .LVL4
C:\Users\stapi\AppData\Local\Temp\cckM1eOc.s:57     .text.ieee80211_he_ppet_size.part.0:0000000000000022 .LVL10
C:\Users\stapi\AppData\Local\Temp\cckM1eOc.s:28     .text.ieee80211_he_ppet_size.part.0:0000000000000008 .LVL2
C:\Users\stapi\AppData\Local\Temp\cckM1eOc.s:32     .text.ieee80211_he_ppet_size.part.0:000000000000000a .LVL3
C:\Users\stapi\AppData\Local\Temp\cckM1eOc.s:41     .text.ieee80211_he_ppet_size.part.0:0000000000000014 .LVL5
C:\Users\stapi\AppData\Local\Temp\cckM1eOc.s:43     .text.ieee80211_he_ppet_size.part.0:0000000000000018 .LVL6
C:\Users\stapi\AppData\Local\Temp\cckM1eOc.s:48     .text.ieee80211_he_ppet_size.part.0:000000000000001a .LVL7
C:\Users\stapi\AppData\Local\Temp\cckM1eOc.s:50     .text.ieee80211_he_ppet_size.part.0:000000000000001e .LVL8
C:\Users\stapi\AppData\Local\Temp\cckM1eOc.s:55     .text.ieee80211_he_ppet_size.part.0:0000000000000020 .LVL9
C:\Users\stapi\AppData\Local\Temp\cckM1eOc.s:66     .text.ieee80211_he_ppet_size.part.0:000000000000002a .LVL11
C:\Users\stapi\AppData\Local\Temp\cckM1eOc.s:68     .text.ieee80211_he_ppet_size.part.0:000000000000002e .LVL12
C:\Users\stapi\AppData\Local\Temp\cckM1eOc.s:1643   .debug_info:0000000000000000 .Ldebug_info0
C:\Users\stapi\AppData\Local\Temp\cckM1eOc.s:127    .text.hostapd_eid_he_capab:0000000000000020 .LBE14
C:\Users\stapi\AppData\Local\Temp\cckM1eOc.s:137    .text.hostapd_eid_he_capab:000000000000002e .LBB17
C:\Users\stapi\AppData\Local\Temp\cckM1eOc.s:150    .text.hostapd_eid_he_capab:0000000000000040 .LBE17
C:\Users\stapi\AppData\Local\Temp\cckM1eOc.s:508    .text.hostapd_eid_he_operation:00000000000000bc .LBB23
C:\Users\stapi\AppData\Local\Temp\cckM1eOc.s:604    .text.hostapd_eid_he_operation:000000000000011c .LBE23
C:\Users\stapi\AppData\Local\Temp\cckM1eOc.s:633    .text.hostapd_eid_he_operation:0000000000000144 .LBB32
C:\Users\stapi\AppData\Local\Temp\cckM1eOc.s:668    .text.hostapd_eid_he_operation:0000000000000164 .LBE32
C:\Users\stapi\AppData\Local\Temp\cckM1eOc.s:526    .text.hostapd_eid_he_operation:00000000000000ca .LBE24
C:\Users\stapi\AppData\Local\Temp\cckM1eOc.s:634    .text.hostapd_eid_he_operation:0000000000000144 .LBB30
C:\Users\stapi\AppData\Local\Temp\cckM1eOc.s:641    .text.hostapd_eid_he_operation:0000000000000148 .LBE30
C:\Users\stapi\AppData\Local\Temp\cckM1eOc.s:537    .text.hostapd_eid_he_operation:00000000000000ce .LBE27
C:\Users\stapi\AppData\Local\Temp\cckM1eOc.s:643    .text.hostapd_eid_he_operation:0000000000000148 .LBB31
C:\Users\stapi\AppData\Local\Temp\cckM1eOc.s:653    .text.hostapd_eid_he_operation:000000000000014e .LBE31
C:\Users\stapi\AppData\Local\Temp\cckM1eOc.s:1231   .text.copy_sta_he_capab:000000000000005c .LBE46
C:\Users\stapi\AppData\Local\Temp\cckM1eOc.s:1240   .text.copy_sta_he_capab:000000000000006c .LBB53
C:\Users\stapi\AppData\Local\Temp\cckM1eOc.s:1246   .text.copy_sta_he_capab:000000000000006c .LBE53
C:\Users\stapi\AppData\Local\Temp\cckM1eOc.s:1252   .text.copy_sta_he_capab:0000000000000074 .LBB54
C:\Users\stapi\AppData\Local\Temp\cckM1eOc.s:1301   .text.copy_sta_he_capab:00000000000000b0 .LBE54
C:\Users\stapi\AppData\Local\Temp\cckM1eOc.s:1220   .text.copy_sta_he_capab:0000000000000058 .LBB48
C:\Users\stapi\AppData\Local\Temp\cckM1eOc.s:1229   .text.copy_sta_he_capab:000000000000005c .LBE48
C:\Users\stapi\AppData\Local\Temp\cckM1eOc.s:1242   .text.copy_sta_he_capab:000000000000006c .LBB49
C:\Users\stapi\AppData\Local\Temp\cckM1eOc.s:1244   .text.copy_sta_he_capab:000000000000006c .LBE49
C:\Users\stapi\AppData\Local\Temp\cckM1eOc.s:1254   .text.copy_sta_he_capab:0000000000000074 .LBB50
C:\Users\stapi\AppData\Local\Temp\cckM1eOc.s:1281   .text.copy_sta_he_capab:0000000000000094 .LBE50

UNDEFINED SYMBOLS
__riscv_save_10
os_memset
os_memcpy
__riscv_restore_10
__riscv_save_5
is_6ghz_op_class
__riscv_restore_5
center_idx_to_bw_6ghz
__riscv_save_2
__riscv_restore_2
wpa_hexdump
__riscv_save_4
is_6ghz_freq
__riscv_restore_4
wpa_printf
os_free
os_zalloc
