   1              		.file	"ieee802_11_shared.c"
   2              		.option nopic
   3              		.attribute arch, "rv32i2p0_m2p0_a2p0_f2p0_c2p0_b_p0p94"
   4              		.attribute unaligned_access, 0
   5              		.attribute stack_align, 16
   6              		.text
   7              	.Ltext0:
   8              		.cfi_sections	.debug_frame
   9              		.section	.text.hostapd_eid_assoc_comeback_time,"ax",@progbits
  10              		.align	1
  11              		.globl	hostapd_eid_assoc_comeback_time
  13              	hostapd_eid_assoc_comeback_time:
  14              	.LFB167:
  15              		.file 1 "C:/Users/stapi/OneDrive/Desktop/GD32VW553/V1_MQTT_OK/GD32VW55X_Wifi_BLE_SDK/GD32VW55x_REL
   1:C:/Users/stapi/OneDrive/Desktop/GD32VW553/V1_MQTT_OK/GD32VW55X_Wifi_BLE_SDK/GD32VW55x_RELEASE_V1.0.2/MSDK/wpa_supplicant/src/ap\ieee802_11_shared.c **** /*
   2:C:/Users/stapi/OneDrive/Desktop/GD32VW553/V1_MQTT_OK/GD32VW55X_Wifi_BLE_SDK/GD32VW55x_RELEASE_V1.0.2/MSDK/wpa_supplicant/src/ap\ieee802_11_shared.c ****  * hostapd / IEEE 802.11 Management
   3:C:/Users/stapi/OneDrive/Desktop/GD32VW553/V1_MQTT_OK/GD32VW55X_Wifi_BLE_SDK/GD32VW55x_RELEASE_V1.0.2/MSDK/wpa_supplicant/src/ap\ieee802_11_shared.c ****  * Copyright (c) 2002-2012, Jouni Malinen <j@w1.fi>
   4:C:/Users/stapi/OneDrive/Desktop/GD32VW553/V1_MQTT_OK/GD32VW55X_Wifi_BLE_SDK/GD32VW55x_RELEASE_V1.0.2/MSDK/wpa_supplicant/src/ap\ieee802_11_shared.c ****  *
   5:C:/Users/stapi/OneDrive/Desktop/GD32VW553/V1_MQTT_OK/GD32VW55X_Wifi_BLE_SDK/GD32VW55x_RELEASE_V1.0.2/MSDK/wpa_supplicant/src/ap\ieee802_11_shared.c ****  * This software may be distributed under the terms of the BSD license.
   6:C:/Users/stapi/OneDrive/Desktop/GD32VW553/V1_MQTT_OK/GD32VW55X_Wifi_BLE_SDK/GD32VW55x_RELEASE_V1.0.2/MSDK/wpa_supplicant/src/ap\ieee802_11_shared.c ****  * See README for more details.
   7:C:/Users/stapi/OneDrive/Desktop/GD32VW553/V1_MQTT_OK/GD32VW55X_Wifi_BLE_SDK/GD32VW55x_RELEASE_V1.0.2/MSDK/wpa_supplicant/src/ap\ieee802_11_shared.c ****  */
   8:C:/Users/stapi/OneDrive/Desktop/GD32VW553/V1_MQTT_OK/GD32VW55X_Wifi_BLE_SDK/GD32VW55x_RELEASE_V1.0.2/MSDK/wpa_supplicant/src/ap\ieee802_11_shared.c **** 
   9:C:/Users/stapi/OneDrive/Desktop/GD32VW553/V1_MQTT_OK/GD32VW55X_Wifi_BLE_SDK/GD32VW55x_RELEASE_V1.0.2/MSDK/wpa_supplicant/src/ap\ieee802_11_shared.c **** #include "utils/includes.h"
  10:C:/Users/stapi/OneDrive/Desktop/GD32VW553/V1_MQTT_OK/GD32VW55X_Wifi_BLE_SDK/GD32VW55x_RELEASE_V1.0.2/MSDK/wpa_supplicant/src/ap\ieee802_11_shared.c **** 
  11:C:/Users/stapi/OneDrive/Desktop/GD32VW553/V1_MQTT_OK/GD32VW55X_Wifi_BLE_SDK/GD32VW55x_RELEASE_V1.0.2/MSDK/wpa_supplicant/src/ap\ieee802_11_shared.c **** #ifdef CONFIG_AP
  12:C:/Users/stapi/OneDrive/Desktop/GD32VW553/V1_MQTT_OK/GD32VW55X_Wifi_BLE_SDK/GD32VW55x_RELEASE_V1.0.2/MSDK/wpa_supplicant/src/ap\ieee802_11_shared.c **** #include "utils/common.h"
  13:C:/Users/stapi/OneDrive/Desktop/GD32VW553/V1_MQTT_OK/GD32VW55X_Wifi_BLE_SDK/GD32VW55x_RELEASE_V1.0.2/MSDK/wpa_supplicant/src/ap\ieee802_11_shared.c **** #include "common/ieee802_11_defs.h"
  14:C:/Users/stapi/OneDrive/Desktop/GD32VW553/V1_MQTT_OK/GD32VW55X_Wifi_BLE_SDK/GD32VW55x_RELEASE_V1.0.2/MSDK/wpa_supplicant/src/ap\ieee802_11_shared.c **** #include "common/ocv.h"
  15:C:/Users/stapi/OneDrive/Desktop/GD32VW553/V1_MQTT_OK/GD32VW55X_Wifi_BLE_SDK/GD32VW55x_RELEASE_V1.0.2/MSDK/wpa_supplicant/src/ap\ieee802_11_shared.c **** #include "common/wpa_ctrl.h"
  16:C:/Users/stapi/OneDrive/Desktop/GD32VW553/V1_MQTT_OK/GD32VW55X_Wifi_BLE_SDK/GD32VW55x_RELEASE_V1.0.2/MSDK/wpa_supplicant/src/ap\ieee802_11_shared.c **** #include "hostapd.h"
  17:C:/Users/stapi/OneDrive/Desktop/GD32VW553/V1_MQTT_OK/GD32VW55X_Wifi_BLE_SDK/GD32VW55x_RELEASE_V1.0.2/MSDK/wpa_supplicant/src/ap\ieee802_11_shared.c **** #include "sta_info.h"
  18:C:/Users/stapi/OneDrive/Desktop/GD32VW553/V1_MQTT_OK/GD32VW55X_Wifi_BLE_SDK/GD32VW55x_RELEASE_V1.0.2/MSDK/wpa_supplicant/src/ap\ieee802_11_shared.c **** #include "ap_config.h"
  19:C:/Users/stapi/OneDrive/Desktop/GD32VW553/V1_MQTT_OK/GD32VW55X_Wifi_BLE_SDK/GD32VW55x_RELEASE_V1.0.2/MSDK/wpa_supplicant/src/ap\ieee802_11_shared.c **** #include "ap_drv_ops.h"
  20:C:/Users/stapi/OneDrive/Desktop/GD32VW553/V1_MQTT_OK/GD32VW55X_Wifi_BLE_SDK/GD32VW55x_RELEASE_V1.0.2/MSDK/wpa_supplicant/src/ap\ieee802_11_shared.c **** #include "wpa_auth.h"
  21:C:/Users/stapi/OneDrive/Desktop/GD32VW553/V1_MQTT_OK/GD32VW55X_Wifi_BLE_SDK/GD32VW55x_RELEASE_V1.0.2/MSDK/wpa_supplicant/src/ap\ieee802_11_shared.c **** #include "ieee802_11.h"
  22:C:/Users/stapi/OneDrive/Desktop/GD32VW553/V1_MQTT_OK/GD32VW55X_Wifi_BLE_SDK/GD32VW55x_RELEASE_V1.0.2/MSDK/wpa_supplicant/src/ap\ieee802_11_shared.c **** 
  23:C:/Users/stapi/OneDrive/Desktop/GD32VW553/V1_MQTT_OK/GD32VW55X_Wifi_BLE_SDK/GD32VW55x_RELEASE_V1.0.2/MSDK/wpa_supplicant/src/ap\ieee802_11_shared.c **** 
  24:C:/Users/stapi/OneDrive/Desktop/GD32VW553/V1_MQTT_OK/GD32VW55X_Wifi_BLE_SDK/GD32VW55x_RELEASE_V1.0.2/MSDK/wpa_supplicant/src/ap\ieee802_11_shared.c **** u8 * hostapd_eid_assoc_comeback_time(struct hostapd_data *hapd,
  25:C:/Users/stapi/OneDrive/Desktop/GD32VW553/V1_MQTT_OK/GD32VW55X_Wifi_BLE_SDK/GD32VW55x_RELEASE_V1.0.2/MSDK/wpa_supplicant/src/ap\ieee802_11_shared.c **** 				     struct sta_info *sta, u8 *eid)
  26:C:/Users/stapi/OneDrive/Desktop/GD32VW553/V1_MQTT_OK/GD32VW55X_Wifi_BLE_SDK/GD32VW55x_RELEASE_V1.0.2/MSDK/wpa_supplicant/src/ap\ieee802_11_shared.c **** {
  16              		.loc 1 26 1
  17              		.cfi_startproc
  18              	.LVL0:
  19 0000 17030000 		call	t0,__riscv_save_3
  19      E7020300 
  20              		.cfi_offset 18, -16
  21              		.cfi_offset 9, -12
  22              		.cfi_offset 8, -8
  23              		.cfi_offset 1, -4
  24              		.cfi_def_cfa_offset 16
  27:C:/Users/stapi/OneDrive/Desktop/GD32VW553/V1_MQTT_OK/GD32VW55X_Wifi_BLE_SDK/GD32VW55x_RELEASE_V1.0.2/MSDK/wpa_supplicant/src/ap\ieee802_11_shared.c **** 	u8 *pos = eid;
  25              		.loc 1 27 2
  26              	.LVL1:
  28:C:/Users/stapi/OneDrive/Desktop/GD32VW553/V1_MQTT_OK/GD32VW55X_Wifi_BLE_SDK/GD32VW55x_RELEASE_V1.0.2/MSDK/wpa_supplicant/src/ap\ieee802_11_shared.c **** 	u32 timeout, tu;
  27              		.loc 1 28 2
  29:C:/Users/stapi/OneDrive/Desktop/GD32VW553/V1_MQTT_OK/GD32VW55X_Wifi_BLE_SDK/GD32VW55x_RELEASE_V1.0.2/MSDK/wpa_supplicant/src/ap\ieee802_11_shared.c **** 	struct os_reltime now, passed;
  28              		.loc 1 29 2
  30:C:/Users/stapi/OneDrive/Desktop/GD32VW553/V1_MQTT_OK/GD32VW55X_Wifi_BLE_SDK/GD32VW55x_RELEASE_V1.0.2/MSDK/wpa_supplicant/src/ap\ieee802_11_shared.c **** 
  31:C:/Users/stapi/OneDrive/Desktop/GD32VW553/V1_MQTT_OK/GD32VW55X_Wifi_BLE_SDK/GD32VW55x_RELEASE_V1.0.2/MSDK/wpa_supplicant/src/ap\ieee802_11_shared.c **** 	*pos++ = WLAN_EID_TIMEOUT_INTERVAL;
  29              		.loc 1 31 2
  30              		.loc 1 31 9 is_stmt 0
  31 0008 93078003 		li	a5,56
  32 000c 2300F600 		sb	a5,0(a2)
  32:C:/Users/stapi/OneDrive/Desktop/GD32VW553/V1_MQTT_OK/GD32VW55X_Wifi_BLE_SDK/GD32VW55x_RELEASE_V1.0.2/MSDK/wpa_supplicant/src/ap\ieee802_11_shared.c **** 	*pos++ = 5;
  33              		.loc 1 32 2 is_stmt 1
  34              	.LVL2:
  35              		.loc 1 32 9 is_stmt 0
  36 0010 9547     		li	a5,5
  26:C:/Users/stapi/OneDrive/Desktop/GD32VW553/V1_MQTT_OK/GD32VW55X_Wifi_BLE_SDK/GD32VW55x_RELEASE_V1.0.2/MSDK/wpa_supplicant/src/ap\ieee802_11_shared.c **** 	u8 *pos = eid;
  37              		.loc 1 26 1
  38 0012 4111     		addi	sp,sp,-16
  39              		.cfi_def_cfa_offset 32
  40              		.loc 1 32 9
  41 0014 A300F600 		sb	a5,1(a2)
  33:C:/Users/stapi/OneDrive/Desktop/GD32VW553/V1_MQTT_OK/GD32VW55X_Wifi_BLE_SDK/GD32VW55x_RELEASE_V1.0.2/MSDK/wpa_supplicant/src/ap\ieee802_11_shared.c **** 	*pos++ = WLAN_TIMEOUT_ASSOC_COMEBACK;
  42              		.loc 1 33 2 is_stmt 1
  43              	.LVL3:
  44              		.loc 1 33 9 is_stmt 0
  45 0018 8D47     		li	a5,3
  46 001a 2301F600 		sb	a5,2(a2)
  34:C:/Users/stapi/OneDrive/Desktop/GD32VW553/V1_MQTT_OK/GD32VW55X_Wifi_BLE_SDK/GD32VW55x_RELEASE_V1.0.2/MSDK/wpa_supplicant/src/ap\ieee802_11_shared.c **** 	os_get_reltime(&now);
  47              		.loc 1 34 2 is_stmt 1
  26:C:/Users/stapi/OneDrive/Desktop/GD32VW553/V1_MQTT_OK/GD32VW55X_Wifi_BLE_SDK/GD32VW55x_RELEASE_V1.0.2/MSDK/wpa_supplicant/src/ap\ieee802_11_shared.c **** 	u8 *pos = eid;
  48              		.loc 1 26 1 is_stmt 0
  49 001e 2A89     		mv	s2,a0
  50              		.loc 1 34 2
  51 0020 2800     		addi	a0,sp,8
  52              	.LVL4:
  26:C:/Users/stapi/OneDrive/Desktop/GD32VW553/V1_MQTT_OK/GD32VW55X_Wifi_BLE_SDK/GD32VW55x_RELEASE_V1.0.2/MSDK/wpa_supplicant/src/ap\ieee802_11_shared.c **** 	u8 *pos = eid;
  53              		.loc 1 26 1
  54 0022 AE84     		mv	s1,a1
  55 0024 3284     		mv	s0,a2
  56              		.loc 1 34 2
  57 0026 97000000 		call	os_get_reltime
  57      E7800000 
  58              	.LVL5:
  35:C:/Users/stapi/OneDrive/Desktop/GD32VW553/V1_MQTT_OK/GD32VW55X_Wifi_BLE_SDK/GD32VW55x_RELEASE_V1.0.2/MSDK/wpa_supplicant/src/ap\ieee802_11_shared.c **** 	os_reltime_sub(&now, &sta->sa_query_start, &passed);
  59              		.loc 1 35 2 is_stmt 1
  60              	.LBB36:
  61              	.LBB37:
  62              		.file 2 "..\\..\\..\\..\\wpa_supplicant\\src/utils/os.h"
   1:..\..\..\..\wpa_supplicant\src/utils/os.h **** /*
   2:..\..\..\..\wpa_supplicant\src/utils/os.h ****  * OS specific functions
   3:..\..\..\..\wpa_supplicant\src/utils/os.h ****  * Copyright (c) 2005-2009, Jouni Malinen <j@w1.fi>
   4:..\..\..\..\wpa_supplicant\src/utils/os.h ****  *
   5:..\..\..\..\wpa_supplicant\src/utils/os.h ****  * This software may be distributed under the terms of the BSD license.
   6:..\..\..\..\wpa_supplicant\src/utils/os.h ****  * See README for more details.
   7:..\..\..\..\wpa_supplicant\src/utils/os.h ****  */
   8:..\..\..\..\wpa_supplicant\src/utils/os.h **** 
   9:..\..\..\..\wpa_supplicant\src/utils/os.h **** #ifndef OS_H
  10:..\..\..\..\wpa_supplicant\src/utils/os.h **** #define OS_H
  11:..\..\..\..\wpa_supplicant\src/utils/os.h **** 
  12:..\..\..\..\wpa_supplicant\src/utils/os.h **** typedef long os_time_t;
  13:..\..\..\..\wpa_supplicant\src/utils/os.h **** 
  14:..\..\..\..\wpa_supplicant\src/utils/os.h **** /**
  15:..\..\..\..\wpa_supplicant\src/utils/os.h ****  * os_sleep - Sleep (sec, usec)
  16:..\..\..\..\wpa_supplicant\src/utils/os.h ****  * @sec: Number of seconds to sleep
  17:..\..\..\..\wpa_supplicant\src/utils/os.h ****  * @usec: Number of microseconds to sleep
  18:..\..\..\..\wpa_supplicant\src/utils/os.h ****  */
  19:..\..\..\..\wpa_supplicant\src/utils/os.h **** void os_sleep(os_time_t sec, os_time_t usec);
  20:..\..\..\..\wpa_supplicant\src/utils/os.h **** 
  21:..\..\..\..\wpa_supplicant\src/utils/os.h **** struct os_time {
  22:..\..\..\..\wpa_supplicant\src/utils/os.h **** 	os_time_t sec;
  23:..\..\..\..\wpa_supplicant\src/utils/os.h **** 	os_time_t usec;
  24:..\..\..\..\wpa_supplicant\src/utils/os.h **** };
  25:..\..\..\..\wpa_supplicant\src/utils/os.h **** 
  26:..\..\..\..\wpa_supplicant\src/utils/os.h **** struct os_reltime {
  27:..\..\..\..\wpa_supplicant\src/utils/os.h **** 	os_time_t sec;
  28:..\..\..\..\wpa_supplicant\src/utils/os.h **** 	os_time_t usec;
  29:..\..\..\..\wpa_supplicant\src/utils/os.h **** };
  30:..\..\..\..\wpa_supplicant\src/utils/os.h **** 
  31:..\..\..\..\wpa_supplicant\src/utils/os.h **** /**
  32:..\..\..\..\wpa_supplicant\src/utils/os.h ****  * os_get_time - Get current time (sec, usec)
  33:..\..\..\..\wpa_supplicant\src/utils/os.h ****  * @t: Pointer to buffer for the time
  34:..\..\..\..\wpa_supplicant\src/utils/os.h ****  * Returns: 0 on success, -1 on failure
  35:..\..\..\..\wpa_supplicant\src/utils/os.h ****  */
  36:..\..\..\..\wpa_supplicant\src/utils/os.h **** int os_get_time(struct os_time *t);
  37:..\..\..\..\wpa_supplicant\src/utils/os.h **** 
  38:..\..\..\..\wpa_supplicant\src/utils/os.h **** /**
  39:..\..\..\..\wpa_supplicant\src/utils/os.h ****  * os_get_reltime - Get relative time (sec, usec)
  40:..\..\..\..\wpa_supplicant\src/utils/os.h ****  * @t: Pointer to buffer for the time
  41:..\..\..\..\wpa_supplicant\src/utils/os.h ****  * Returns: 0 on success, -1 on failure
  42:..\..\..\..\wpa_supplicant\src/utils/os.h ****  */
  43:..\..\..\..\wpa_supplicant\src/utils/os.h **** int os_get_reltime(struct os_reltime *t);
  44:..\..\..\..\wpa_supplicant\src/utils/os.h **** 
  45:..\..\..\..\wpa_supplicant\src/utils/os.h **** 
  46:..\..\..\..\wpa_supplicant\src/utils/os.h **** /* Helpers for handling struct os_time */
  47:..\..\..\..\wpa_supplicant\src/utils/os.h **** 
  48:..\..\..\..\wpa_supplicant\src/utils/os.h **** static inline int os_time_before(struct os_time *a, struct os_time *b)
  49:..\..\..\..\wpa_supplicant\src/utils/os.h **** {
  50:..\..\..\..\wpa_supplicant\src/utils/os.h **** 	return (a->sec < b->sec) ||
  51:..\..\..\..\wpa_supplicant\src/utils/os.h **** 	       (a->sec == b->sec && a->usec < b->usec);
  52:..\..\..\..\wpa_supplicant\src/utils/os.h **** }
  53:..\..\..\..\wpa_supplicant\src/utils/os.h **** 
  54:..\..\..\..\wpa_supplicant\src/utils/os.h **** 
  55:..\..\..\..\wpa_supplicant\src/utils/os.h **** static inline void os_time_sub(struct os_time *a, struct os_time *b,
  56:..\..\..\..\wpa_supplicant\src/utils/os.h **** 			       struct os_time *res)
  57:..\..\..\..\wpa_supplicant\src/utils/os.h **** {
  58:..\..\..\..\wpa_supplicant\src/utils/os.h **** 	res->sec = a->sec - b->sec;
  59:..\..\..\..\wpa_supplicant\src/utils/os.h **** 	res->usec = a->usec - b->usec;
  60:..\..\..\..\wpa_supplicant\src/utils/os.h **** 	if (res->usec < 0) {
  61:..\..\..\..\wpa_supplicant\src/utils/os.h **** 		res->sec--;
  62:..\..\..\..\wpa_supplicant\src/utils/os.h **** 		res->usec += 1000000;
  63:..\..\..\..\wpa_supplicant\src/utils/os.h **** 	}
  64:..\..\..\..\wpa_supplicant\src/utils/os.h **** }
  65:..\..\..\..\wpa_supplicant\src/utils/os.h **** 
  66:..\..\..\..\wpa_supplicant\src/utils/os.h **** 
  67:..\..\..\..\wpa_supplicant\src/utils/os.h **** /* Helpers for handling struct os_reltime */
  68:..\..\..\..\wpa_supplicant\src/utils/os.h **** 
  69:..\..\..\..\wpa_supplicant\src/utils/os.h **** static inline int os_reltime_before(struct os_reltime *a,
  70:..\..\..\..\wpa_supplicant\src/utils/os.h **** 				    struct os_reltime *b)
  71:..\..\..\..\wpa_supplicant\src/utils/os.h **** {
  72:..\..\..\..\wpa_supplicant\src/utils/os.h **** 	return (a->sec < b->sec) ||
  73:..\..\..\..\wpa_supplicant\src/utils/os.h **** 	       (a->sec == b->sec && a->usec < b->usec);
  74:..\..\..\..\wpa_supplicant\src/utils/os.h **** }
  75:..\..\..\..\wpa_supplicant\src/utils/os.h **** 
  76:..\..\..\..\wpa_supplicant\src/utils/os.h **** 
  77:..\..\..\..\wpa_supplicant\src/utils/os.h **** static inline void os_reltime_sub(struct os_reltime *a, struct os_reltime *b,
  78:..\..\..\..\wpa_supplicant\src/utils/os.h **** 				  struct os_reltime *res)
  79:..\..\..\..\wpa_supplicant\src/utils/os.h **** {
  80:..\..\..\..\wpa_supplicant\src/utils/os.h **** 	res->sec = a->sec - b->sec;
  63              		.loc 2 80 2
  64              		.loc 2 80 20 is_stmt 0
  65 002e 83A7440E 		lw	a5,228(s1)
  66 0032 2247     		lw	a4,8(sp)
  81:..\..\..\..\wpa_supplicant\src/utils/os.h **** 	res->usec = a->usec - b->usec;
  67              		.loc 2 81 22
  68 0034 83A6840E 		lw	a3,232(s1)
  80:..\..\..\..\wpa_supplicant\src/utils/os.h **** 	res->usec = a->usec - b->usec;
  69              		.loc 2 80 20
  70 0038 1D8F     		sub	a4,a4,a5
  71              	.LVL6:
  72              		.loc 2 81 2 is_stmt 1
  73              		.loc 2 81 22 is_stmt 0
  74 003a B247     		lw	a5,12(sp)
  75 003c 958F     		sub	a5,a5,a3
  76              	.LVL7:
  82:..\..\..\..\wpa_supplicant\src/utils/os.h **** 	if (res->usec < 0) {
  77              		.loc 2 82 2 is_stmt 1
  78              		.loc 2 82 5 is_stmt 0
  79 003e 63D80700 		bge	a5,zero,.L2
  83:..\..\..\..\wpa_supplicant\src/utils/os.h **** 		res->sec--;
  80              		.loc 2 83 3 is_stmt 1
  84:..\..\..\..\wpa_supplicant\src/utils/os.h **** 		res->usec += 1000000;
  81              		.loc 2 84 13 is_stmt 0
  82 0042 B7460F00 		li	a3,999424
  83 0046 93860624 		addi	a3,a3,576
  83:..\..\..\..\wpa_supplicant\src/utils/os.h **** 		res->sec--;
  84              		.loc 2 83 11
  85 004a 7D17     		addi	a4,a4,-1
  86              	.LVL8:
  87              		.loc 2 84 3 is_stmt 1
  88              		.loc 2 84 13 is_stmt 0
  89 004c B697     		add	a5,a5,a3
  90              	.LVL9:
  91              	.L2:
  92              	.LBE37:
  93              	.LBE36:
  36:C:/Users/stapi/OneDrive/Desktop/GD32VW553/V1_MQTT_OK/GD32VW55X_Wifi_BLE_SDK/GD32VW55x_RELEASE_V1.0.2/MSDK/wpa_supplicant/src/ap\ieee802_11_shared.c **** 	tu = (passed.sec * 1000000 + passed.usec) / 1024;
  94              		.loc 1 36 2 is_stmt 1
  95              		.loc 1 36 29 is_stmt 0
  96 004e B7460F00 		li	a3,999424
  97 0052 93860624 		addi	a3,a3,576
  98 0056 FF17D7C4 		maddr32	a5, a4, a3
  99              	.LVL10:
 100              		.loc 1 36 44
 101 005a 13070040 		li	a4,1024
 102              	.LVL11:
 103 005e B3C7E702 		div	a5,a5,a4
 104              	.LVL12:
  37:C:/Users/stapi/OneDrive/Desktop/GD32VW553/V1_MQTT_OK/GD32VW55X_Wifi_BLE_SDK/GD32VW55x_RELEASE_V1.0.2/MSDK/wpa_supplicant/src/ap\ieee802_11_shared.c **** 	if (hapd->conf->assoc_sa_query_max_timeout > tu)
 105              		.loc 1 37 2 is_stmt 1
 106              		.loc 1 37 16 is_stmt 0
 107 0062 03278900 		lw	a4,8(s2)
 108 0066 8326C715 		lw	a3,348(a4)
  38:C:/Users/stapi/OneDrive/Desktop/GD32VW553/V1_MQTT_OK/GD32VW55X_Wifi_BLE_SDK/GD32VW55x_RELEASE_V1.0.2/MSDK/wpa_supplicant/src/ap\ieee802_11_shared.c **** 		timeout = hapd->conf->assoc_sa_query_max_timeout - tu;
  39:C:/Users/stapi/OneDrive/Desktop/GD32VW553/V1_MQTT_OK/GD32VW55X_Wifi_BLE_SDK/GD32VW55x_RELEASE_V1.0.2/MSDK/wpa_supplicant/src/ap\ieee802_11_shared.c **** 	else
  40:C:/Users/stapi/OneDrive/Desktop/GD32VW553/V1_MQTT_OK/GD32VW55X_Wifi_BLE_SDK/GD32VW55x_RELEASE_V1.0.2/MSDK/wpa_supplicant/src/ap\ieee802_11_shared.c **** 		timeout = 0;
 109              		.loc 1 40 11
 110 006a 0147     		li	a4,0
  37:C:/Users/stapi/OneDrive/Desktop/GD32VW553/V1_MQTT_OK/GD32VW55X_Wifi_BLE_SDK/GD32VW55x_RELEASE_V1.0.2/MSDK/wpa_supplicant/src/ap\ieee802_11_shared.c **** 	if (hapd->conf->assoc_sa_query_max_timeout > tu)
 111              		.loc 1 37 5
 112 006c 63F4D700 		bleu	a3,a5,.L3
  38:C:/Users/stapi/OneDrive/Desktop/GD32VW553/V1_MQTT_OK/GD32VW55X_Wifi_BLE_SDK/GD32VW55x_RELEASE_V1.0.2/MSDK/wpa_supplicant/src/ap\ieee802_11_shared.c **** 		timeout = hapd->conf->assoc_sa_query_max_timeout - tu;
 113              		.loc 1 38 3 is_stmt 1
  38:C:/Users/stapi/OneDrive/Desktop/GD32VW553/V1_MQTT_OK/GD32VW55X_Wifi_BLE_SDK/GD32VW55x_RELEASE_V1.0.2/MSDK/wpa_supplicant/src/ap\ieee802_11_shared.c **** 		timeout = hapd->conf->assoc_sa_query_max_timeout - tu;
 114              		.loc 1 38 11 is_stmt 0
 115 0070 3387F640 		sub	a4,a3,a5
 116              	.LVL13:
 117              	.L3:
  41:C:/Users/stapi/OneDrive/Desktop/GD32VW553/V1_MQTT_OK/GD32VW55X_Wifi_BLE_SDK/GD32VW55x_RELEASE_V1.0.2/MSDK/wpa_supplicant/src/ap\ieee802_11_shared.c **** 	if (timeout < hapd->conf->assoc_sa_query_max_timeout)
 118              		.loc 1 41 2 is_stmt 1
 119              		.loc 1 41 5 is_stmt 0
 120 0074 6373D700 		bleu	a3,a4,.L4
  42:C:/Users/stapi/OneDrive/Desktop/GD32VW553/V1_MQTT_OK/GD32VW55X_Wifi_BLE_SDK/GD32VW55x_RELEASE_V1.0.2/MSDK/wpa_supplicant/src/ap\ieee802_11_shared.c **** 		timeout++; /* add some extra time for local timers */
 121              		.loc 1 42 3 is_stmt 1
 122              		.loc 1 42 10 is_stmt 0
 123 0078 0507     		addi	a4,a4,1
 124              	.LVL14:
 125              	.L4:
  43:C:/Users/stapi/OneDrive/Desktop/GD32VW553/V1_MQTT_OK/GD32VW55X_Wifi_BLE_SDK/GD32VW55x_RELEASE_V1.0.2/MSDK/wpa_supplicant/src/ap\ieee802_11_shared.c **** 	WPA_PUT_LE32(pos, timeout);
 126              		.loc 1 43 2 is_stmt 1
 127              	.LBB38:
 128              	.LBB39:
 129              		.file 3 "..\\..\\..\\..\\wpa_supplicant\\src/utils/common.h"
   1:..\..\..\..\wpa_supplicant\src/utils/common.h **** /*
   2:..\..\..\..\wpa_supplicant\src/utils/common.h ****  * wpa_supplicant/hostapd / common helper functions, etc.
   3:..\..\..\..\wpa_supplicant\src/utils/common.h ****  * Copyright (c) 2002-2007, Jouni Malinen <j@w1.fi>
   4:..\..\..\..\wpa_supplicant\src/utils/common.h ****  *
   5:..\..\..\..\wpa_supplicant\src/utils/common.h ****  * This software may be distributed under the terms of the BSD license.
   6:..\..\..\..\wpa_supplicant\src/utils/common.h ****  * See README for more details.
   7:..\..\..\..\wpa_supplicant\src/utils/common.h ****  */
   8:..\..\..\..\wpa_supplicant\src/utils/common.h **** 
   9:..\..\..\..\wpa_supplicant\src/utils/common.h **** #ifndef COMMON_H
  10:..\..\..\..\wpa_supplicant\src/utils/common.h **** #define COMMON_H
  11:..\..\..\..\wpa_supplicant\src/utils/common.h **** 
  12:..\..\..\..\wpa_supplicant\src/utils/common.h **** #include "os.h"
  13:..\..\..\..\wpa_supplicant\src/utils/common.h **** 
  14:..\..\..\..\wpa_supplicant\src/utils/common.h **** #if defined(__linux__) || defined(__GLIBC__)
  15:..\..\..\..\wpa_supplicant\src/utils/common.h **** #include <endian.h>
  16:..\..\..\..\wpa_supplicant\src/utils/common.h **** #include <byteswap.h>
  17:..\..\..\..\wpa_supplicant\src/utils/common.h **** #endif /* __linux__ */
  18:..\..\..\..\wpa_supplicant\src/utils/common.h **** 
  19:..\..\..\..\wpa_supplicant\src/utils/common.h **** #if defined(__FreeBSD__) || defined(__NetBSD__) || defined(__DragonFly__) || \
  20:..\..\..\..\wpa_supplicant\src/utils/common.h ****     defined(__OpenBSD__)
  21:..\..\..\..\wpa_supplicant\src/utils/common.h **** #include <sys/types.h>
  22:..\..\..\..\wpa_supplicant\src/utils/common.h **** #include <sys/endian.h>
  23:..\..\..\..\wpa_supplicant\src/utils/common.h **** #define __BYTE_ORDER	_BYTE_ORDER
  24:..\..\..\..\wpa_supplicant\src/utils/common.h **** #define	__LITTLE_ENDIAN	_LITTLE_ENDIAN
  25:..\..\..\..\wpa_supplicant\src/utils/common.h **** #define	__BIG_ENDIAN	_BIG_ENDIAN
  26:..\..\..\..\wpa_supplicant\src/utils/common.h **** #ifdef __OpenBSD__
  27:..\..\..\..\wpa_supplicant\src/utils/common.h **** #define bswap_16 swap16
  28:..\..\..\..\wpa_supplicant\src/utils/common.h **** #define bswap_32 swap32
  29:..\..\..\..\wpa_supplicant\src/utils/common.h **** #define bswap_64 swap64
  30:..\..\..\..\wpa_supplicant\src/utils/common.h **** #else /* __OpenBSD__ */
  31:..\..\..\..\wpa_supplicant\src/utils/common.h **** #define bswap_16 bswap16
  32:..\..\..\..\wpa_supplicant\src/utils/common.h **** #define bswap_32 bswap32
  33:..\..\..\..\wpa_supplicant\src/utils/common.h **** #define bswap_64 bswap64
  34:..\..\..\..\wpa_supplicant\src/utils/common.h **** #endif /* __OpenBSD__ */
  35:..\..\..\..\wpa_supplicant\src/utils/common.h **** #endif /* defined(__FreeBSD__) || defined(__NetBSD__) ||
  36:..\..\..\..\wpa_supplicant\src/utils/common.h **** 	* defined(__DragonFly__) || defined(__OpenBSD__) */
  37:..\..\..\..\wpa_supplicant\src/utils/common.h **** 
  38:..\..\..\..\wpa_supplicant\src/utils/common.h **** #ifdef __APPLE__
  39:..\..\..\..\wpa_supplicant\src/utils/common.h **** #include <sys/types.h>
  40:..\..\..\..\wpa_supplicant\src/utils/common.h **** #include <machine/endian.h>
  41:..\..\..\..\wpa_supplicant\src/utils/common.h **** #define __BYTE_ORDER	_BYTE_ORDER
  42:..\..\..\..\wpa_supplicant\src/utils/common.h **** #define __LITTLE_ENDIAN	_LITTLE_ENDIAN
  43:..\..\..\..\wpa_supplicant\src/utils/common.h **** #define __BIG_ENDIAN	_BIG_ENDIAN
  44:..\..\..\..\wpa_supplicant\src/utils/common.h **** static inline unsigned short bswap_16(unsigned short v)
  45:..\..\..\..\wpa_supplicant\src/utils/common.h **** {
  46:..\..\..\..\wpa_supplicant\src/utils/common.h **** 	return ((v & 0xff) << 8) | (v >> 8);
  47:..\..\..\..\wpa_supplicant\src/utils/common.h **** }
  48:..\..\..\..\wpa_supplicant\src/utils/common.h **** 
  49:..\..\..\..\wpa_supplicant\src/utils/common.h **** static inline unsigned int bswap_32(unsigned int v)
  50:..\..\..\..\wpa_supplicant\src/utils/common.h **** {
  51:..\..\..\..\wpa_supplicant\src/utils/common.h **** 	return ((v & 0xff) << 24) | ((v & 0xff00) << 8) |
  52:..\..\..\..\wpa_supplicant\src/utils/common.h **** 		((v & 0xff0000) >> 8) | (v >> 24);
  53:..\..\..\..\wpa_supplicant\src/utils/common.h **** }
  54:..\..\..\..\wpa_supplicant\src/utils/common.h **** #endif /* __APPLE__ */
  55:..\..\..\..\wpa_supplicant\src/utils/common.h **** 
  56:..\..\..\..\wpa_supplicant\src/utils/common.h **** #ifdef CONFIG_GDWIFI
  57:..\..\..\..\wpa_supplicant\src/utils/common.h **** // #include <sys/types.h>
  58:..\..\..\..\wpa_supplicant\src/utils/common.h **** // #include <machine/endian.h>
  59:..\..\..\..\wpa_supplicant\src/utils/common.h **** #define __BYTE_ORDER	BYTE_ORDER
  60:..\..\..\..\wpa_supplicant\src/utils/common.h **** #define __LITTLE_ENDIAN	LITTLE_ENDIAN
  61:..\..\..\..\wpa_supplicant\src/utils/common.h **** #define __BIG_ENDIAN	BIG_ENDIAN
  62:..\..\..\..\wpa_supplicant\src/utils/common.h **** #define ETHER_ADDR_LEN	6
  63:..\..\..\..\wpa_supplicant\src/utils/common.h **** #define ETH_P_802_3	0x0001		/* Dummy type for 802.3 frames  */
  64:..\..\..\..\wpa_supplicant\src/utils/common.h **** 
  65:..\..\..\..\wpa_supplicant\src/utils/common.h **** static inline unsigned short bswap_16(unsigned short v)
  66:..\..\..\..\wpa_supplicant\src/utils/common.h **** {
  67:..\..\..\..\wpa_supplicant\src/utils/common.h **** 	return ((v & 0xff) << 8) | (v >> 8);
  68:..\..\..\..\wpa_supplicant\src/utils/common.h **** }
  69:..\..\..\..\wpa_supplicant\src/utils/common.h **** 
  70:..\..\..\..\wpa_supplicant\src/utils/common.h **** static inline unsigned int bswap_32(unsigned int v)
  71:..\..\..\..\wpa_supplicant\src/utils/common.h **** {
  72:..\..\..\..\wpa_supplicant\src/utils/common.h **** 	return ((v & 0xff) << 24) | ((v & 0xff00) << 8) |
  73:..\..\..\..\wpa_supplicant\src/utils/common.h **** 		((v & 0xff0000) >> 8) | (v >> 24);
  74:..\..\..\..\wpa_supplicant\src/utils/common.h **** }
  75:..\..\..\..\wpa_supplicant\src/utils/common.h **** 
  76:..\..\..\..\wpa_supplicant\src/utils/common.h **** struct ether_header
  77:..\..\..\..\wpa_supplicant\src/utils/common.h **** {
  78:..\..\..\..\wpa_supplicant\src/utils/common.h **** 	uint8_t  ether_dhost[ETHER_ADDR_LEN];
  79:..\..\..\..\wpa_supplicant\src/utils/common.h **** 	uint8_t  ether_shost[ETHER_ADDR_LEN];
  80:..\..\..\..\wpa_supplicant\src/utils/common.h **** 	uint16_t ether_type;
  81:..\..\..\..\wpa_supplicant\src/utils/common.h **** } __PACKED;
  82:..\..\..\..\wpa_supplicant\src/utils/common.h **** #endif /* CONFIG_GDWIFI */
  83:..\..\..\..\wpa_supplicant\src/utils/common.h **** #ifdef __rtems__
  84:..\..\..\..\wpa_supplicant\src/utils/common.h **** #include <rtems/endian.h>
  85:..\..\..\..\wpa_supplicant\src/utils/common.h **** #define __BYTE_ORDER BYTE_ORDER
  86:..\..\..\..\wpa_supplicant\src/utils/common.h **** #define __LITTLE_ENDIAN LITTLE_ENDIAN
  87:..\..\..\..\wpa_supplicant\src/utils/common.h **** #define __BIG_ENDIAN BIG_ENDIAN
  88:..\..\..\..\wpa_supplicant\src/utils/common.h **** #define bswap_16 CPU_swap_u16
  89:..\..\..\..\wpa_supplicant\src/utils/common.h **** #define bswap_32 CPU_swap_u32
  90:..\..\..\..\wpa_supplicant\src/utils/common.h **** #endif /* __rtems__ */
  91:..\..\..\..\wpa_supplicant\src/utils/common.h **** 
  92:..\..\..\..\wpa_supplicant\src/utils/common.h **** #ifdef CONFIG_NATIVE_WINDOWS
  93:..\..\..\..\wpa_supplicant\src/utils/common.h **** #include <winsock.h>
  94:..\..\..\..\wpa_supplicant\src/utils/common.h **** 
  95:..\..\..\..\wpa_supplicant\src/utils/common.h **** typedef int socklen_t;
  96:..\..\..\..\wpa_supplicant\src/utils/common.h **** 
  97:..\..\..\..\wpa_supplicant\src/utils/common.h **** #ifndef MSG_DONTWAIT
  98:..\..\..\..\wpa_supplicant\src/utils/common.h **** #define MSG_DONTWAIT 0 /* not supported */
  99:..\..\..\..\wpa_supplicant\src/utils/common.h **** #endif
 100:..\..\..\..\wpa_supplicant\src/utils/common.h **** 
 101:..\..\..\..\wpa_supplicant\src/utils/common.h **** #endif /* CONFIG_NATIVE_WINDOWS */
 102:..\..\..\..\wpa_supplicant\src/utils/common.h **** 
 103:..\..\..\..\wpa_supplicant\src/utils/common.h **** #ifdef _MSC_VER
 104:..\..\..\..\wpa_supplicant\src/utils/common.h **** #define inline __inline
 105:..\..\..\..\wpa_supplicant\src/utils/common.h **** 
 106:..\..\..\..\wpa_supplicant\src/utils/common.h **** #undef vsnprintf
 107:..\..\..\..\wpa_supplicant\src/utils/common.h **** #define vsnprintf _vsnprintf
 108:..\..\..\..\wpa_supplicant\src/utils/common.h **** #undef close
 109:..\..\..\..\wpa_supplicant\src/utils/common.h **** #define close closesocket
 110:..\..\..\..\wpa_supplicant\src/utils/common.h **** #endif /* _MSC_VER */
 111:..\..\..\..\wpa_supplicant\src/utils/common.h **** 
 112:..\..\..\..\wpa_supplicant\src/utils/common.h **** 
 113:..\..\..\..\wpa_supplicant\src/utils/common.h **** /* Define platform specific integer types */
 114:..\..\..\..\wpa_supplicant\src/utils/common.h **** 
 115:..\..\..\..\wpa_supplicant\src/utils/common.h **** #ifdef _MSC_VER
 116:..\..\..\..\wpa_supplicant\src/utils/common.h **** typedef UINT64 u64;
 117:..\..\..\..\wpa_supplicant\src/utils/common.h **** typedef UINT32 u32;
 118:..\..\..\..\wpa_supplicant\src/utils/common.h **** typedef UINT16 u16;
 119:..\..\..\..\wpa_supplicant\src/utils/common.h **** typedef UINT8 u8;
 120:..\..\..\..\wpa_supplicant\src/utils/common.h **** typedef INT64 s64;
 121:..\..\..\..\wpa_supplicant\src/utils/common.h **** typedef INT32 s32;
 122:..\..\..\..\wpa_supplicant\src/utils/common.h **** typedef INT16 s16;
 123:..\..\..\..\wpa_supplicant\src/utils/common.h **** typedef INT8 s8;
 124:..\..\..\..\wpa_supplicant\src/utils/common.h **** #define WPA_TYPES_DEFINED
 125:..\..\..\..\wpa_supplicant\src/utils/common.h **** #endif /* _MSC_VER */
 126:..\..\..\..\wpa_supplicant\src/utils/common.h **** 
 127:..\..\..\..\wpa_supplicant\src/utils/common.h **** #ifdef __vxworks
 128:..\..\..\..\wpa_supplicant\src/utils/common.h **** typedef unsigned long long u64;
 129:..\..\..\..\wpa_supplicant\src/utils/common.h **** typedef UINT32 u32;
 130:..\..\..\..\wpa_supplicant\src/utils/common.h **** typedef UINT16 u16;
 131:..\..\..\..\wpa_supplicant\src/utils/common.h **** typedef UINT8 u8;
 132:..\..\..\..\wpa_supplicant\src/utils/common.h **** typedef long long s64;
 133:..\..\..\..\wpa_supplicant\src/utils/common.h **** typedef INT32 s32;
 134:..\..\..\..\wpa_supplicant\src/utils/common.h **** typedef INT16 s16;
 135:..\..\..\..\wpa_supplicant\src/utils/common.h **** typedef INT8 s8;
 136:..\..\..\..\wpa_supplicant\src/utils/common.h **** #define WPA_TYPES_DEFINED
 137:..\..\..\..\wpa_supplicant\src/utils/common.h **** #endif /* __vxworks */
 138:..\..\..\..\wpa_supplicant\src/utils/common.h **** 
 139:..\..\..\..\wpa_supplicant\src/utils/common.h **** #ifndef WPA_TYPES_DEFINED
 140:..\..\..\..\wpa_supplicant\src/utils/common.h **** #ifdef CONFIG_USE_INTTYPES_H
 141:..\..\..\..\wpa_supplicant\src/utils/common.h **** #include <inttypes.h>
 142:..\..\..\..\wpa_supplicant\src/utils/common.h **** #else
 143:..\..\..\..\wpa_supplicant\src/utils/common.h **** #include <stdint.h>
 144:..\..\..\..\wpa_supplicant\src/utils/common.h **** #endif
 145:..\..\..\..\wpa_supplicant\src/utils/common.h **** typedef uint64_t u64;
 146:..\..\..\..\wpa_supplicant\src/utils/common.h **** typedef uint32_t u32;
 147:..\..\..\..\wpa_supplicant\src/utils/common.h **** typedef uint16_t u16;
 148:..\..\..\..\wpa_supplicant\src/utils/common.h **** typedef uint8_t u8;
 149:..\..\..\..\wpa_supplicant\src/utils/common.h **** typedef int64_t s64;
 150:..\..\..\..\wpa_supplicant\src/utils/common.h **** typedef int32_t s32;
 151:..\..\..\..\wpa_supplicant\src/utils/common.h **** typedef int16_t s16;
 152:..\..\..\..\wpa_supplicant\src/utils/common.h **** typedef int8_t s8;
 153:..\..\..\..\wpa_supplicant\src/utils/common.h **** #define WPA_TYPES_DEFINED
 154:..\..\..\..\wpa_supplicant\src/utils/common.h **** #endif /* !WPA_TYPES_DEFINED */
 155:..\..\..\..\wpa_supplicant\src/utils/common.h **** 
 156:..\..\..\..\wpa_supplicant\src/utils/common.h **** 
 157:..\..\..\..\wpa_supplicant\src/utils/common.h **** /* Define platform specific byte swapping macros */
 158:..\..\..\..\wpa_supplicant\src/utils/common.h **** 
 159:..\..\..\..\wpa_supplicant\src/utils/common.h **** #if defined(__CYGWIN__) || defined(CONFIG_NATIVE_WINDOWS)
 160:..\..\..\..\wpa_supplicant\src/utils/common.h **** 
 161:..\..\..\..\wpa_supplicant\src/utils/common.h **** static inline unsigned short wpa_swap_16(unsigned short v)
 162:..\..\..\..\wpa_supplicant\src/utils/common.h **** {
 163:..\..\..\..\wpa_supplicant\src/utils/common.h **** 	return ((v & 0xff) << 8) | (v >> 8);
 164:..\..\..\..\wpa_supplicant\src/utils/common.h **** }
 165:..\..\..\..\wpa_supplicant\src/utils/common.h **** 
 166:..\..\..\..\wpa_supplicant\src/utils/common.h **** static inline unsigned int wpa_swap_32(unsigned int v)
 167:..\..\..\..\wpa_supplicant\src/utils/common.h **** {
 168:..\..\..\..\wpa_supplicant\src/utils/common.h **** 	return ((v & 0xff) << 24) | ((v & 0xff00) << 8) |
 169:..\..\..\..\wpa_supplicant\src/utils/common.h **** 		((v & 0xff0000) >> 8) | (v >> 24);
 170:..\..\..\..\wpa_supplicant\src/utils/common.h **** }
 171:..\..\..\..\wpa_supplicant\src/utils/common.h **** 
 172:..\..\..\..\wpa_supplicant\src/utils/common.h **** #define le_to_host16(n) (n)
 173:..\..\..\..\wpa_supplicant\src/utils/common.h **** #define host_to_le16(n) (n)
 174:..\..\..\..\wpa_supplicant\src/utils/common.h **** #define be_to_host16(n) wpa_swap_16(n)
 175:..\..\..\..\wpa_supplicant\src/utils/common.h **** #define host_to_be16(n) wpa_swap_16(n)
 176:..\..\..\..\wpa_supplicant\src/utils/common.h **** #define le_to_host32(n) (n)
 177:..\..\..\..\wpa_supplicant\src/utils/common.h **** #define host_to_le32(n) (n)
 178:..\..\..\..\wpa_supplicant\src/utils/common.h **** #define be_to_host32(n) wpa_swap_32(n)
 179:..\..\..\..\wpa_supplicant\src/utils/common.h **** #define host_to_be32(n) wpa_swap_32(n)
 180:..\..\..\..\wpa_supplicant\src/utils/common.h **** #define host_to_le64(n) (n)
 181:..\..\..\..\wpa_supplicant\src/utils/common.h **** 
 182:..\..\..\..\wpa_supplicant\src/utils/common.h **** #define WPA_BYTE_SWAP_DEFINED
 183:..\..\..\..\wpa_supplicant\src/utils/common.h **** 
 184:..\..\..\..\wpa_supplicant\src/utils/common.h **** #endif /* __CYGWIN__ || CONFIG_NATIVE_WINDOWS */
 185:..\..\..\..\wpa_supplicant\src/utils/common.h **** 
 186:..\..\..\..\wpa_supplicant\src/utils/common.h **** 
 187:..\..\..\..\wpa_supplicant\src/utils/common.h **** #ifndef WPA_BYTE_SWAP_DEFINED
 188:..\..\..\..\wpa_supplicant\src/utils/common.h **** 
 189:..\..\..\..\wpa_supplicant\src/utils/common.h **** #ifndef __BYTE_ORDER
 190:..\..\..\..\wpa_supplicant\src/utils/common.h **** #ifndef __LITTLE_ENDIAN
 191:..\..\..\..\wpa_supplicant\src/utils/common.h **** #ifndef __BIG_ENDIAN
 192:..\..\..\..\wpa_supplicant\src/utils/common.h **** #define __LITTLE_ENDIAN 1234
 193:..\..\..\..\wpa_supplicant\src/utils/common.h **** #define __BIG_ENDIAN 4321
 194:..\..\..\..\wpa_supplicant\src/utils/common.h **** #if defined(sparc)
 195:..\..\..\..\wpa_supplicant\src/utils/common.h **** #define __BYTE_ORDER __BIG_ENDIAN
 196:..\..\..\..\wpa_supplicant\src/utils/common.h **** #endif
 197:..\..\..\..\wpa_supplicant\src/utils/common.h **** #endif /* __BIG_ENDIAN */
 198:..\..\..\..\wpa_supplicant\src/utils/common.h **** #endif /* __LITTLE_ENDIAN */
 199:..\..\..\..\wpa_supplicant\src/utils/common.h **** #endif /* __BYTE_ORDER */
 200:..\..\..\..\wpa_supplicant\src/utils/common.h **** 
 201:..\..\..\..\wpa_supplicant\src/utils/common.h **** #if __BYTE_ORDER == __LITTLE_ENDIAN
 202:..\..\..\..\wpa_supplicant\src/utils/common.h **** #define le_to_host16(n) ((__force u16) (le16) (n))
 203:..\..\..\..\wpa_supplicant\src/utils/common.h **** #define host_to_le16(n) ((__force le16) (u16) (n))
 204:..\..\..\..\wpa_supplicant\src/utils/common.h **** #define be_to_host16(n) bswap_16((__force u16) (be16) (n))
 205:..\..\..\..\wpa_supplicant\src/utils/common.h **** #define host_to_be16(n) ((__force be16) bswap_16((n)))
 206:..\..\..\..\wpa_supplicant\src/utils/common.h **** #define le_to_host32(n) ((__force u32) (le32) (n))
 207:..\..\..\..\wpa_supplicant\src/utils/common.h **** #define host_to_le32(n) ((__force le32) (u32) (n))
 208:..\..\..\..\wpa_supplicant\src/utils/common.h **** #define be_to_host32(n) bswap_32((__force u32) (be32) (n))
 209:..\..\..\..\wpa_supplicant\src/utils/common.h **** #define host_to_be32(n) ((__force be32) bswap_32((n)))
 210:..\..\..\..\wpa_supplicant\src/utils/common.h **** #define le_to_host64(n) ((__force u64) (le64) (n))
 211:..\..\..\..\wpa_supplicant\src/utils/common.h **** #define host_to_le64(n) ((__force le64) (u64) (n))
 212:..\..\..\..\wpa_supplicant\src/utils/common.h **** #define be_to_host64(n) bswap_64((__force u64) (be64) (n))
 213:..\..\..\..\wpa_supplicant\src/utils/common.h **** #define host_to_be64(n) ((__force be64) bswap_64((n)))
 214:..\..\..\..\wpa_supplicant\src/utils/common.h **** #elif __BYTE_ORDER == __BIG_ENDIAN
 215:..\..\..\..\wpa_supplicant\src/utils/common.h **** #define le_to_host16(n) bswap_16(n)
 216:..\..\..\..\wpa_supplicant\src/utils/common.h **** #define host_to_le16(n) bswap_16(n)
 217:..\..\..\..\wpa_supplicant\src/utils/common.h **** #define be_to_host16(n) (n)
 218:..\..\..\..\wpa_supplicant\src/utils/common.h **** #define host_to_be16(n) (n)
 219:..\..\..\..\wpa_supplicant\src/utils/common.h **** #define le_to_host32(n) bswap_32(n)
 220:..\..\..\..\wpa_supplicant\src/utils/common.h **** #define host_to_le32(n) bswap_32(n)
 221:..\..\..\..\wpa_supplicant\src/utils/common.h **** #define be_to_host32(n) (n)
 222:..\..\..\..\wpa_supplicant\src/utils/common.h **** #define host_to_be32(n) (n)
 223:..\..\..\..\wpa_supplicant\src/utils/common.h **** #define le_to_host64(n) bswap_64(n)
 224:..\..\..\..\wpa_supplicant\src/utils/common.h **** #define host_to_le64(n) bswap_64(n)
 225:..\..\..\..\wpa_supplicant\src/utils/common.h **** #define be_to_host64(n) (n)
 226:..\..\..\..\wpa_supplicant\src/utils/common.h **** #define host_to_be64(n) (n)
 227:..\..\..\..\wpa_supplicant\src/utils/common.h **** #ifndef WORDS_BIGENDIAN
 228:..\..\..\..\wpa_supplicant\src/utils/common.h **** #define WORDS_BIGENDIAN
 229:..\..\..\..\wpa_supplicant\src/utils/common.h **** #endif
 230:..\..\..\..\wpa_supplicant\src/utils/common.h **** #else
 231:..\..\..\..\wpa_supplicant\src/utils/common.h **** #error Could not determine CPU byte order
 232:..\..\..\..\wpa_supplicant\src/utils/common.h **** #endif
 233:..\..\..\..\wpa_supplicant\src/utils/common.h **** 
 234:..\..\..\..\wpa_supplicant\src/utils/common.h **** #define WPA_BYTE_SWAP_DEFINED
 235:..\..\..\..\wpa_supplicant\src/utils/common.h **** #endif /* !WPA_BYTE_SWAP_DEFINED */
 236:..\..\..\..\wpa_supplicant\src/utils/common.h **** 
 237:..\..\..\..\wpa_supplicant\src/utils/common.h **** 
 238:..\..\..\..\wpa_supplicant\src/utils/common.h **** /* Macros for handling unaligned memory accesses */
 239:..\..\..\..\wpa_supplicant\src/utils/common.h **** 
 240:..\..\..\..\wpa_supplicant\src/utils/common.h **** static inline u16 WPA_GET_BE16(const u8 *a)
 241:..\..\..\..\wpa_supplicant\src/utils/common.h **** {
 242:..\..\..\..\wpa_supplicant\src/utils/common.h **** 	return (a[0] << 8) | a[1];
 243:..\..\..\..\wpa_supplicant\src/utils/common.h **** }
 244:..\..\..\..\wpa_supplicant\src/utils/common.h **** 
 245:..\..\..\..\wpa_supplicant\src/utils/common.h **** static inline void WPA_PUT_BE16(u8 *a, u16 val)
 246:..\..\..\..\wpa_supplicant\src/utils/common.h **** {
 247:..\..\..\..\wpa_supplicant\src/utils/common.h **** 	a[0] = val >> 8;
 248:..\..\..\..\wpa_supplicant\src/utils/common.h **** 	a[1] = val & 0xff;
 249:..\..\..\..\wpa_supplicant\src/utils/common.h **** }
 250:..\..\..\..\wpa_supplicant\src/utils/common.h **** 
 251:..\..\..\..\wpa_supplicant\src/utils/common.h **** static inline u16 WPA_GET_LE16(const u8 *a)
 252:..\..\..\..\wpa_supplicant\src/utils/common.h **** {
 253:..\..\..\..\wpa_supplicant\src/utils/common.h **** 	return (a[1] << 8) | a[0];
 254:..\..\..\..\wpa_supplicant\src/utils/common.h **** }
 255:..\..\..\..\wpa_supplicant\src/utils/common.h **** 
 256:..\..\..\..\wpa_supplicant\src/utils/common.h **** static inline void WPA_PUT_LE16(u8 *a, u16 val)
 257:..\..\..\..\wpa_supplicant\src/utils/common.h **** {
 258:..\..\..\..\wpa_supplicant\src/utils/common.h **** 	a[1] = val >> 8;
 259:..\..\..\..\wpa_supplicant\src/utils/common.h **** 	a[0] = val & 0xff;
 260:..\..\..\..\wpa_supplicant\src/utils/common.h **** }
 261:..\..\..\..\wpa_supplicant\src/utils/common.h **** 
 262:..\..\..\..\wpa_supplicant\src/utils/common.h **** static inline u32 WPA_GET_BE24(const u8 *a)
 263:..\..\..\..\wpa_supplicant\src/utils/common.h **** {
 264:..\..\..\..\wpa_supplicant\src/utils/common.h **** 	return (a[0] << 16) | (a[1] << 8) | a[2];
 265:..\..\..\..\wpa_supplicant\src/utils/common.h **** }
 266:..\..\..\..\wpa_supplicant\src/utils/common.h **** 
 267:..\..\..\..\wpa_supplicant\src/utils/common.h **** static inline void WPA_PUT_BE24(u8 *a, u32 val)
 268:..\..\..\..\wpa_supplicant\src/utils/common.h **** {
 269:..\..\..\..\wpa_supplicant\src/utils/common.h **** 	a[0] = (val >> 16) & 0xff;
 270:..\..\..\..\wpa_supplicant\src/utils/common.h **** 	a[1] = (val >> 8) & 0xff;
 271:..\..\..\..\wpa_supplicant\src/utils/common.h **** 	a[2] = val & 0xff;
 272:..\..\..\..\wpa_supplicant\src/utils/common.h **** }
 273:..\..\..\..\wpa_supplicant\src/utils/common.h **** 
 274:..\..\..\..\wpa_supplicant\src/utils/common.h **** static inline u32 WPA_GET_BE32(const u8 *a)
 275:..\..\..\..\wpa_supplicant\src/utils/common.h **** {
 276:..\..\..\..\wpa_supplicant\src/utils/common.h **** 	return ((u32) a[0] << 24) | (a[1] << 16) | (a[2] << 8) | a[3];
 277:..\..\..\..\wpa_supplicant\src/utils/common.h **** }
 278:..\..\..\..\wpa_supplicant\src/utils/common.h **** 
 279:..\..\..\..\wpa_supplicant\src/utils/common.h **** static inline void WPA_PUT_BE32(u8 *a, u32 val)
 280:..\..\..\..\wpa_supplicant\src/utils/common.h **** {
 281:..\..\..\..\wpa_supplicant\src/utils/common.h **** 	a[0] = (val >> 24) & 0xff;
 282:..\..\..\..\wpa_supplicant\src/utils/common.h **** 	a[1] = (val >> 16) & 0xff;
 283:..\..\..\..\wpa_supplicant\src/utils/common.h **** 	a[2] = (val >> 8) & 0xff;
 284:..\..\..\..\wpa_supplicant\src/utils/common.h **** 	a[3] = val & 0xff;
 285:..\..\..\..\wpa_supplicant\src/utils/common.h **** }
 286:..\..\..\..\wpa_supplicant\src/utils/common.h **** 
 287:..\..\..\..\wpa_supplicant\src/utils/common.h **** static inline u32 WPA_GET_LE32(const u8 *a)
 288:..\..\..\..\wpa_supplicant\src/utils/common.h **** {
 289:..\..\..\..\wpa_supplicant\src/utils/common.h **** 	return ((u32) a[3] << 24) | (a[2] << 16) | (a[1] << 8) | a[0];
 290:..\..\..\..\wpa_supplicant\src/utils/common.h **** }
 291:..\..\..\..\wpa_supplicant\src/utils/common.h **** 
 292:..\..\..\..\wpa_supplicant\src/utils/common.h **** static inline void WPA_PUT_LE32(u8 *a, u32 val)
 293:..\..\..\..\wpa_supplicant\src/utils/common.h **** {
 294:..\..\..\..\wpa_supplicant\src/utils/common.h **** 	a[3] = (val >> 24) & 0xff;
 130              		.loc 3 294 2
 131              		.loc 3 294 14 is_stmt 0
 132 007a 93578701 		srli	a5,a4,24
 133              	.LVL15:
 134              		.loc 3 294 7
 135 007e 2303F400 		sb	a5,6(s0)
 295:..\..\..\..\wpa_supplicant\src/utils/common.h **** 	a[2] = (val >> 16) & 0xff;
 136              		.loc 3 295 2 is_stmt 1
 137              		.loc 3 295 14 is_stmt 0
 138 0082 93570701 		srli	a5,a4,16
 139              		.loc 3 295 7
 140 0086 A302F400 		sb	a5,5(s0)
 296:..\..\..\..\wpa_supplicant\src/utils/common.h **** 	a[1] = (val >> 8) & 0xff;
 141              		.loc 3 296 2 is_stmt 1
 142              		.loc 3 296 14 is_stmt 0
 143 008a 93578700 		srli	a5,a4,8
 144              		.loc 3 296 7
 145 008e 2302F400 		sb	a5,4(s0)
 297:..\..\..\..\wpa_supplicant\src/utils/common.h **** 	a[0] = val & 0xff;
 146              		.loc 3 297 2 is_stmt 1
 147              		.loc 3 297 7 is_stmt 0
 148 0092 A301E400 		sb	a4,3(s0)
 149              	.LVL16:
 150              	.LBE39:
 151              	.LBE38:
  44:C:/Users/stapi/OneDrive/Desktop/GD32VW553/V1_MQTT_OK/GD32VW55X_Wifi_BLE_SDK/GD32VW55x_RELEASE_V1.0.2/MSDK/wpa_supplicant/src/ap\ieee802_11_shared.c **** 	pos += 4;
 152              		.loc 1 44 2 is_stmt 1
  45:C:/Users/stapi/OneDrive/Desktop/GD32VW553/V1_MQTT_OK/GD32VW55X_Wifi_BLE_SDK/GD32VW55x_RELEASE_V1.0.2/MSDK/wpa_supplicant/src/ap\ieee802_11_shared.c **** 
  46:C:/Users/stapi/OneDrive/Desktop/GD32VW553/V1_MQTT_OK/GD32VW55X_Wifi_BLE_SDK/GD32VW55x_RELEASE_V1.0.2/MSDK/wpa_supplicant/src/ap\ieee802_11_shared.c **** 	return pos;
 153              		.loc 1 46 2
  47:C:/Users/stapi/OneDrive/Desktop/GD32VW553/V1_MQTT_OK/GD32VW55X_Wifi_BLE_SDK/GD32VW55x_RELEASE_V1.0.2/MSDK/wpa_supplicant/src/ap\ieee802_11_shared.c **** }
 154              		.loc 1 47 1 is_stmt 0
 155 0096 13057400 		addi	a0,s0,7
 156              	.LVL17:
 157 009a 4101     		addi	sp,sp,16
 158              		.cfi_def_cfa_offset 0
 159 009c 17030000 		tail	__riscv_restore_3
 159      67000300 
 160              		.cfi_restore 18
 161              		.cfi_restore 9
 162              		.cfi_restore 8
 163              		.cfi_restore 1
 164              		.cfi_def_cfa_offset -16
 165              		.cfi_endproc
 166              	.LFE167:
 168              		.section	.rodata.ieee802_11_send_sa_query_req.str1.4,"aMS",@progbits,1
 169              		.align	2
 170              	.LC0:
 171 0000 49454545 		.string	"IEEE 802.11: Sending SA Query Request to %02x:%02x:%02x:%02x:%02x:%02x"
 171      20383032 
 171      2E31313A 
 171      2053656E 
 171      64696E67 
 172 0047 00       		.align	2
 173              	.LC1:
 174 0048 49454545 		.string	"IEEE 802.11: SA Query Transaction ID"
 174      20383032 
 174      2E31313A 
 174      20534120 
 174      51756572 
 175 006d 000000   		.align	2
 176              	.LC2:
 177 0070 4661696C 		.string	"Failed to allocate buffer for SA Query Response frame"
 177      65642074 
 177      6F20616C 
 177      6C6F6361 
 177      74652062 
 178 00a6 0000     		.align	2
 179              	.LC3:
 180 00a8 69656565 		.string	"ieee802_11_send_sa_query_req: send failed"
 180      3830325F 
 180      31315F73 
 180      656E645F 
 180      73615F71 
 181              		.section	.text.ieee802_11_send_sa_query_req,"ax",@progbits
 182              		.align	1
 183              		.globl	ieee802_11_send_sa_query_req
 185              	ieee802_11_send_sa_query_req:
 186              	.LFB168:
  48:C:/Users/stapi/OneDrive/Desktop/GD32VW553/V1_MQTT_OK/GD32VW55X_Wifi_BLE_SDK/GD32VW55x_RELEASE_V1.0.2/MSDK/wpa_supplicant/src/ap\ieee802_11_shared.c **** 
  49:C:/Users/stapi/OneDrive/Desktop/GD32VW553/V1_MQTT_OK/GD32VW55X_Wifi_BLE_SDK/GD32VW55x_RELEASE_V1.0.2/MSDK/wpa_supplicant/src/ap\ieee802_11_shared.c **** 
  50:C:/Users/stapi/OneDrive/Desktop/GD32VW553/V1_MQTT_OK/GD32VW55X_Wifi_BLE_SDK/GD32VW55x_RELEASE_V1.0.2/MSDK/wpa_supplicant/src/ap\ieee802_11_shared.c **** /* MLME-SAQuery.request */
  51:C:/Users/stapi/OneDrive/Desktop/GD32VW553/V1_MQTT_OK/GD32VW55X_Wifi_BLE_SDK/GD32VW55x_RELEASE_V1.0.2/MSDK/wpa_supplicant/src/ap\ieee802_11_shared.c **** void ieee802_11_send_sa_query_req(struct hostapd_data *hapd,
  52:C:/Users/stapi/OneDrive/Desktop/GD32VW553/V1_MQTT_OK/GD32VW55X_Wifi_BLE_SDK/GD32VW55x_RELEASE_V1.0.2/MSDK/wpa_supplicant/src/ap\ieee802_11_shared.c **** 				  const u8 *addr, const u8 *trans_id)
  53:C:/Users/stapi/OneDrive/Desktop/GD32VW553/V1_MQTT_OK/GD32VW55X_Wifi_BLE_SDK/GD32VW55x_RELEASE_V1.0.2/MSDK/wpa_supplicant/src/ap\ieee802_11_shared.c **** {
 187              		.loc 1 53 1 is_stmt 1
 188              		.cfi_startproc
 189              	.LVL18:
 190 0000 17030000 		call	t0,__riscv_save_4
 190      E7020300 
 191              		.cfi_offset 19, -20
 192              		.cfi_offset 18, -16
 193              		.cfi_offset 9, -12
 194              		.cfi_offset 8, -8
 195              		.cfi_offset 1, -4
 196              		.cfi_def_cfa_offset 32
  54:C:/Users/stapi/OneDrive/Desktop/GD32VW553/V1_MQTT_OK/GD32VW55X_Wifi_BLE_SDK/GD32VW55x_RELEASE_V1.0.2/MSDK/wpa_supplicant/src/ap\ieee802_11_shared.c **** #ifdef CONFIG_OCV
  55:C:/Users/stapi/OneDrive/Desktop/GD32VW553/V1_MQTT_OK/GD32VW55X_Wifi_BLE_SDK/GD32VW55x_RELEASE_V1.0.2/MSDK/wpa_supplicant/src/ap\ieee802_11_shared.c **** 	struct sta_info *sta;
  56:C:/Users/stapi/OneDrive/Desktop/GD32VW553/V1_MQTT_OK/GD32VW55X_Wifi_BLE_SDK/GD32VW55x_RELEASE_V1.0.2/MSDK/wpa_supplicant/src/ap\ieee802_11_shared.c **** #endif /* CONFIG_OCV */
  57:C:/Users/stapi/OneDrive/Desktop/GD32VW553/V1_MQTT_OK/GD32VW55X_Wifi_BLE_SDK/GD32VW55x_RELEASE_V1.0.2/MSDK/wpa_supplicant/src/ap\ieee802_11_shared.c **** 	struct ieee80211_mgmt *mgmt;
 197              		.loc 1 57 2
  58:C:/Users/stapi/OneDrive/Desktop/GD32VW553/V1_MQTT_OK/GD32VW55X_Wifi_BLE_SDK/GD32VW55x_RELEASE_V1.0.2/MSDK/wpa_supplicant/src/ap\ieee802_11_shared.c **** 	u8 *oci_ie = NULL;
 198              		.loc 1 58 2
 199              	.LVL19:
  59:C:/Users/stapi/OneDrive/Desktop/GD32VW553/V1_MQTT_OK/GD32VW55X_Wifi_BLE_SDK/GD32VW55x_RELEASE_V1.0.2/MSDK/wpa_supplicant/src/ap\ieee802_11_shared.c **** 	u8 oci_ie_len = 0;
 200              		.loc 1 59 2
  60:C:/Users/stapi/OneDrive/Desktop/GD32VW553/V1_MQTT_OK/GD32VW55X_Wifi_BLE_SDK/GD32VW55x_RELEASE_V1.0.2/MSDK/wpa_supplicant/src/ap\ieee802_11_shared.c **** 	u8 *end;
 201              		.loc 1 60 2
  61:C:/Users/stapi/OneDrive/Desktop/GD32VW553/V1_MQTT_OK/GD32VW55X_Wifi_BLE_SDK/GD32VW55x_RELEASE_V1.0.2/MSDK/wpa_supplicant/src/ap\ieee802_11_shared.c **** 
  62:C:/Users/stapi/OneDrive/Desktop/GD32VW553/V1_MQTT_OK/GD32VW55X_Wifi_BLE_SDK/GD32VW55x_RELEASE_V1.0.2/MSDK/wpa_supplicant/src/ap\ieee802_11_shared.c **** 	wpa_printf(MSG_DEBUG, "IEEE 802.11: Sending SA Query Request to "
 202              		.loc 1 62 2
 203 0008 83C85500 		lbu	a7,5(a1)
 204 000c 03C84500 		lbu	a6,4(a1)
 205 0010 83C73500 		lbu	a5,3(a1)
 206 0014 03C72500 		lbu	a4,2(a1)
 207 0018 83C61500 		lbu	a3,1(a1)
  53:C:/Users/stapi/OneDrive/Desktop/GD32VW553/V1_MQTT_OK/GD32VW55X_Wifi_BLE_SDK/GD32VW55x_RELEASE_V1.0.2/MSDK/wpa_supplicant/src/ap\ieee802_11_shared.c **** #ifdef CONFIG_OCV
 208              		.loc 1 53 1 is_stmt 0
 209 001c B289     		mv	s3,a2
 210              		.loc 1 62 2
 211 001e 03C60500 		lbu	a2,0(a1)
 212              	.LVL20:
  53:C:/Users/stapi/OneDrive/Desktop/GD32VW553/V1_MQTT_OK/GD32VW55X_Wifi_BLE_SDK/GD32VW55x_RELEASE_V1.0.2/MSDK/wpa_supplicant/src/ap\ieee802_11_shared.c **** #ifdef CONFIG_OCV
 213              		.loc 1 53 1
 214 0022 AE84     		mv	s1,a1
 215              		.loc 1 62 2
 216 0024 B7050000 		lui	a1,%hi(.LC0)
 217              	.LVL21:
  53:C:/Users/stapi/OneDrive/Desktop/GD32VW553/V1_MQTT_OK/GD32VW55X_Wifi_BLE_SDK/GD32VW55x_RELEASE_V1.0.2/MSDK/wpa_supplicant/src/ap\ieee802_11_shared.c **** #ifdef CONFIG_OCV
 218              		.loc 1 53 1
 219 0028 4111     		addi	sp,sp,-16
 220              		.cfi_def_cfa_offset 48
 221              		.loc 1 62 2
 222 002a 93850500 		addi	a1,a1,%lo(.LC0)
  53:C:/Users/stapi/OneDrive/Desktop/GD32VW553/V1_MQTT_OK/GD32VW55X_Wifi_BLE_SDK/GD32VW55x_RELEASE_V1.0.2/MSDK/wpa_supplicant/src/ap\ieee802_11_shared.c **** #ifdef CONFIG_OCV
 223              		.loc 1 53 1
 224 002e 2A89     		mv	s2,a0
 225              		.loc 1 62 2
 226 0030 0945     		li	a0,2
 227              	.LVL22:
 228 0032 97000000 		call	wpa_printf
 228      E7800000 
 229              	.LVL23:
  63:C:/Users/stapi/OneDrive/Desktop/GD32VW553/V1_MQTT_OK/GD32VW55X_Wifi_BLE_SDK/GD32VW55x_RELEASE_V1.0.2/MSDK/wpa_supplicant/src/ap\ieee802_11_shared.c **** 		   MACSTR, MAC2STR(addr));
  64:C:/Users/stapi/OneDrive/Desktop/GD32VW553/V1_MQTT_OK/GD32VW55X_Wifi_BLE_SDK/GD32VW55x_RELEASE_V1.0.2/MSDK/wpa_supplicant/src/ap\ieee802_11_shared.c **** 	wpa_hexdump(MSG_DEBUG, "IEEE 802.11: SA Query Transaction ID",
 230              		.loc 1 64 2 is_stmt 1
 231 003a B7050000 		lui	a1,%hi(.LC1)
 232 003e 0945     		li	a0,2
 233 0040 8946     		li	a3,2
 234 0042 4E86     		mv	a2,s3
 235 0044 93850500 		addi	a1,a1,%lo(.LC1)
 236 0048 97000000 		call	wpa_hexdump
 236      E7800000 
 237              	.LVL24:
  65:C:/Users/stapi/OneDrive/Desktop/GD32VW553/V1_MQTT_OK/GD32VW55X_Wifi_BLE_SDK/GD32VW55x_RELEASE_V1.0.2/MSDK/wpa_supplicant/src/ap\ieee802_11_shared.c **** 		    trans_id, WLAN_SA_QUERY_TR_ID_LEN);
  66:C:/Users/stapi/OneDrive/Desktop/GD32VW553/V1_MQTT_OK/GD32VW55X_Wifi_BLE_SDK/GD32VW55x_RELEASE_V1.0.2/MSDK/wpa_supplicant/src/ap\ieee802_11_shared.c **** 
  67:C:/Users/stapi/OneDrive/Desktop/GD32VW553/V1_MQTT_OK/GD32VW55X_Wifi_BLE_SDK/GD32VW55x_RELEASE_V1.0.2/MSDK/wpa_supplicant/src/ap\ieee802_11_shared.c **** #ifdef CONFIG_OCV
  68:C:/Users/stapi/OneDrive/Desktop/GD32VW553/V1_MQTT_OK/GD32VW55X_Wifi_BLE_SDK/GD32VW55x_RELEASE_V1.0.2/MSDK/wpa_supplicant/src/ap\ieee802_11_shared.c **** 	sta = ap_get_sta(hapd, addr);
  69:C:/Users/stapi/OneDrive/Desktop/GD32VW553/V1_MQTT_OK/GD32VW55X_Wifi_BLE_SDK/GD32VW55x_RELEASE_V1.0.2/MSDK/wpa_supplicant/src/ap\ieee802_11_shared.c **** 	if (sta && wpa_auth_uses_ocv(sta->wpa_sm)) {
  70:C:/Users/stapi/OneDrive/Desktop/GD32VW553/V1_MQTT_OK/GD32VW55X_Wifi_BLE_SDK/GD32VW55x_RELEASE_V1.0.2/MSDK/wpa_supplicant/src/ap\ieee802_11_shared.c **** 		struct wpa_channel_info ci;
  71:C:/Users/stapi/OneDrive/Desktop/GD32VW553/V1_MQTT_OK/GD32VW55X_Wifi_BLE_SDK/GD32VW55x_RELEASE_V1.0.2/MSDK/wpa_supplicant/src/ap\ieee802_11_shared.c **** 
  72:C:/Users/stapi/OneDrive/Desktop/GD32VW553/V1_MQTT_OK/GD32VW55X_Wifi_BLE_SDK/GD32VW55x_RELEASE_V1.0.2/MSDK/wpa_supplicant/src/ap\ieee802_11_shared.c **** 		if (hostapd_drv_channel_info(hapd, &ci) != 0) {
  73:C:/Users/stapi/OneDrive/Desktop/GD32VW553/V1_MQTT_OK/GD32VW55X_Wifi_BLE_SDK/GD32VW55x_RELEASE_V1.0.2/MSDK/wpa_supplicant/src/ap\ieee802_11_shared.c **** 			wpa_printf(MSG_WARNING,
  74:C:/Users/stapi/OneDrive/Desktop/GD32VW553/V1_MQTT_OK/GD32VW55X_Wifi_BLE_SDK/GD32VW55x_RELEASE_V1.0.2/MSDK/wpa_supplicant/src/ap\ieee802_11_shared.c **** 				   "Failed to get channel info for OCI element in SA Query Request");
  75:C:/Users/stapi/OneDrive/Desktop/GD32VW553/V1_MQTT_OK/GD32VW55X_Wifi_BLE_SDK/GD32VW55x_RELEASE_V1.0.2/MSDK/wpa_supplicant/src/ap\ieee802_11_shared.c **** 			return;
  76:C:/Users/stapi/OneDrive/Desktop/GD32VW553/V1_MQTT_OK/GD32VW55X_Wifi_BLE_SDK/GD32VW55x_RELEASE_V1.0.2/MSDK/wpa_supplicant/src/ap\ieee802_11_shared.c **** 		}
  77:C:/Users/stapi/OneDrive/Desktop/GD32VW553/V1_MQTT_OK/GD32VW55X_Wifi_BLE_SDK/GD32VW55x_RELEASE_V1.0.2/MSDK/wpa_supplicant/src/ap\ieee802_11_shared.c **** #ifdef CONFIG_TESTING_OPTIONS
  78:C:/Users/stapi/OneDrive/Desktop/GD32VW553/V1_MQTT_OK/GD32VW55X_Wifi_BLE_SDK/GD32VW55x_RELEASE_V1.0.2/MSDK/wpa_supplicant/src/ap\ieee802_11_shared.c **** 		if (hapd->conf->oci_freq_override_saquery_req) {
  79:C:/Users/stapi/OneDrive/Desktop/GD32VW553/V1_MQTT_OK/GD32VW55X_Wifi_BLE_SDK/GD32VW55x_RELEASE_V1.0.2/MSDK/wpa_supplicant/src/ap\ieee802_11_shared.c **** 			wpa_printf(MSG_INFO,
  80:C:/Users/stapi/OneDrive/Desktop/GD32VW553/V1_MQTT_OK/GD32VW55X_Wifi_BLE_SDK/GD32VW55x_RELEASE_V1.0.2/MSDK/wpa_supplicant/src/ap\ieee802_11_shared.c **** 				   "TEST: Override OCI frequency %d -> %u MHz",
  81:C:/Users/stapi/OneDrive/Desktop/GD32VW553/V1_MQTT_OK/GD32VW55X_Wifi_BLE_SDK/GD32VW55x_RELEASE_V1.0.2/MSDK/wpa_supplicant/src/ap\ieee802_11_shared.c **** 				   ci.frequency,
  82:C:/Users/stapi/OneDrive/Desktop/GD32VW553/V1_MQTT_OK/GD32VW55X_Wifi_BLE_SDK/GD32VW55x_RELEASE_V1.0.2/MSDK/wpa_supplicant/src/ap\ieee802_11_shared.c **** 				   hapd->conf->oci_freq_override_saquery_req);
  83:C:/Users/stapi/OneDrive/Desktop/GD32VW553/V1_MQTT_OK/GD32VW55X_Wifi_BLE_SDK/GD32VW55x_RELEASE_V1.0.2/MSDK/wpa_supplicant/src/ap\ieee802_11_shared.c **** 			ci.frequency =
  84:C:/Users/stapi/OneDrive/Desktop/GD32VW553/V1_MQTT_OK/GD32VW55X_Wifi_BLE_SDK/GD32VW55x_RELEASE_V1.0.2/MSDK/wpa_supplicant/src/ap\ieee802_11_shared.c **** 				hapd->conf->oci_freq_override_saquery_req;
  85:C:/Users/stapi/OneDrive/Desktop/GD32VW553/V1_MQTT_OK/GD32VW55X_Wifi_BLE_SDK/GD32VW55x_RELEASE_V1.0.2/MSDK/wpa_supplicant/src/ap\ieee802_11_shared.c **** 		}
  86:C:/Users/stapi/OneDrive/Desktop/GD32VW553/V1_MQTT_OK/GD32VW55X_Wifi_BLE_SDK/GD32VW55x_RELEASE_V1.0.2/MSDK/wpa_supplicant/src/ap\ieee802_11_shared.c **** #endif /* CONFIG_TESTING_OPTIONS */
  87:C:/Users/stapi/OneDrive/Desktop/GD32VW553/V1_MQTT_OK/GD32VW55X_Wifi_BLE_SDK/GD32VW55x_RELEASE_V1.0.2/MSDK/wpa_supplicant/src/ap\ieee802_11_shared.c **** 
  88:C:/Users/stapi/OneDrive/Desktop/GD32VW553/V1_MQTT_OK/GD32VW55X_Wifi_BLE_SDK/GD32VW55x_RELEASE_V1.0.2/MSDK/wpa_supplicant/src/ap\ieee802_11_shared.c **** 		oci_ie_len = OCV_OCI_EXTENDED_LEN;
  89:C:/Users/stapi/OneDrive/Desktop/GD32VW553/V1_MQTT_OK/GD32VW55X_Wifi_BLE_SDK/GD32VW55x_RELEASE_V1.0.2/MSDK/wpa_supplicant/src/ap\ieee802_11_shared.c **** 		oci_ie = os_zalloc(oci_ie_len);
  90:C:/Users/stapi/OneDrive/Desktop/GD32VW553/V1_MQTT_OK/GD32VW55X_Wifi_BLE_SDK/GD32VW55x_RELEASE_V1.0.2/MSDK/wpa_supplicant/src/ap\ieee802_11_shared.c **** 		if (!oci_ie) {
  91:C:/Users/stapi/OneDrive/Desktop/GD32VW553/V1_MQTT_OK/GD32VW55X_Wifi_BLE_SDK/GD32VW55x_RELEASE_V1.0.2/MSDK/wpa_supplicant/src/ap\ieee802_11_shared.c **** 			wpa_printf(MSG_WARNING,
  92:C:/Users/stapi/OneDrive/Desktop/GD32VW553/V1_MQTT_OK/GD32VW55X_Wifi_BLE_SDK/GD32VW55x_RELEASE_V1.0.2/MSDK/wpa_supplicant/src/ap\ieee802_11_shared.c **** 				   "Failed to allocate buffer for OCI element in SA Query Request");
  93:C:/Users/stapi/OneDrive/Desktop/GD32VW553/V1_MQTT_OK/GD32VW55X_Wifi_BLE_SDK/GD32VW55x_RELEASE_V1.0.2/MSDK/wpa_supplicant/src/ap\ieee802_11_shared.c **** 			return;
  94:C:/Users/stapi/OneDrive/Desktop/GD32VW553/V1_MQTT_OK/GD32VW55X_Wifi_BLE_SDK/GD32VW55x_RELEASE_V1.0.2/MSDK/wpa_supplicant/src/ap\ieee802_11_shared.c **** 		}
  95:C:/Users/stapi/OneDrive/Desktop/GD32VW553/V1_MQTT_OK/GD32VW55X_Wifi_BLE_SDK/GD32VW55x_RELEASE_V1.0.2/MSDK/wpa_supplicant/src/ap\ieee802_11_shared.c **** 
  96:C:/Users/stapi/OneDrive/Desktop/GD32VW553/V1_MQTT_OK/GD32VW55X_Wifi_BLE_SDK/GD32VW55x_RELEASE_V1.0.2/MSDK/wpa_supplicant/src/ap\ieee802_11_shared.c **** 		if (ocv_insert_extended_oci(&ci, oci_ie) < 0) {
  97:C:/Users/stapi/OneDrive/Desktop/GD32VW553/V1_MQTT_OK/GD32VW55X_Wifi_BLE_SDK/GD32VW55x_RELEASE_V1.0.2/MSDK/wpa_supplicant/src/ap\ieee802_11_shared.c **** 			os_free(oci_ie);
  98:C:/Users/stapi/OneDrive/Desktop/GD32VW553/V1_MQTT_OK/GD32VW55X_Wifi_BLE_SDK/GD32VW55x_RELEASE_V1.0.2/MSDK/wpa_supplicant/src/ap\ieee802_11_shared.c **** 			return;
  99:C:/Users/stapi/OneDrive/Desktop/GD32VW553/V1_MQTT_OK/GD32VW55X_Wifi_BLE_SDK/GD32VW55x_RELEASE_V1.0.2/MSDK/wpa_supplicant/src/ap\ieee802_11_shared.c **** 		}
 100:C:/Users/stapi/OneDrive/Desktop/GD32VW553/V1_MQTT_OK/GD32VW55X_Wifi_BLE_SDK/GD32VW55x_RELEASE_V1.0.2/MSDK/wpa_supplicant/src/ap\ieee802_11_shared.c **** 	}
 101:C:/Users/stapi/OneDrive/Desktop/GD32VW553/V1_MQTT_OK/GD32VW55X_Wifi_BLE_SDK/GD32VW55x_RELEASE_V1.0.2/MSDK/wpa_supplicant/src/ap\ieee802_11_shared.c **** #endif /* CONFIG_OCV */
 102:C:/Users/stapi/OneDrive/Desktop/GD32VW553/V1_MQTT_OK/GD32VW55X_Wifi_BLE_SDK/GD32VW55x_RELEASE_V1.0.2/MSDK/wpa_supplicant/src/ap\ieee802_11_shared.c **** 
 103:C:/Users/stapi/OneDrive/Desktop/GD32VW553/V1_MQTT_OK/GD32VW55X_Wifi_BLE_SDK/GD32VW55x_RELEASE_V1.0.2/MSDK/wpa_supplicant/src/ap\ieee802_11_shared.c **** 	mgmt = os_zalloc(sizeof(*mgmt) + oci_ie_len);
 238              		.loc 1 103 2
 239              		.loc 1 103 9 is_stmt 0
 240 0050 13058002 		li	a0,40
 241 0054 97000000 		call	os_zalloc
 241      E7800000 
 242              	.LVL25:
 104:C:/Users/stapi/OneDrive/Desktop/GD32VW553/V1_MQTT_OK/GD32VW55X_Wifi_BLE_SDK/GD32VW55x_RELEASE_V1.0.2/MSDK/wpa_supplicant/src/ap\ieee802_11_shared.c **** 	if (!mgmt) {
 243              		.loc 1 104 2 is_stmt 1
 244              		.loc 1 104 5 is_stmt 0
 245 005c 05E5     		bne	a0,zero,.L8
 105:C:/Users/stapi/OneDrive/Desktop/GD32VW553/V1_MQTT_OK/GD32VW55X_Wifi_BLE_SDK/GD32VW55x_RELEASE_V1.0.2/MSDK/wpa_supplicant/src/ap\ieee802_11_shared.c **** 		wpa_printf(MSG_DEBUG,
 246              		.loc 1 105 3 is_stmt 1
 247 005e B7050000 		lui	a1,%hi(.LC2)
 248 0062 93850500 		addi	a1,a1,%lo(.LC2)
 249 0066 0945     		li	a0,2
 250              	.LVL26:
 251 0068 97000000 		call	wpa_printf
 251      E7800000 
 252              	.LVL27:
 106:C:/Users/stapi/OneDrive/Desktop/GD32VW553/V1_MQTT_OK/GD32VW55X_Wifi_BLE_SDK/GD32VW55x_RELEASE_V1.0.2/MSDK/wpa_supplicant/src/ap\ieee802_11_shared.c **** 			   "Failed to allocate buffer for SA Query Response frame");
 107:C:/Users/stapi/OneDrive/Desktop/GD32VW553/V1_MQTT_OK/GD32VW55X_Wifi_BLE_SDK/GD32VW55x_RELEASE_V1.0.2/MSDK/wpa_supplicant/src/ap\ieee802_11_shared.c **** 		os_free(oci_ie);
 253              		.loc 1 107 3
 254              	.L12:
 108:C:/Users/stapi/OneDrive/Desktop/GD32VW553/V1_MQTT_OK/GD32VW55X_Wifi_BLE_SDK/GD32VW55x_RELEASE_V1.0.2/MSDK/wpa_supplicant/src/ap\ieee802_11_shared.c **** 		return;
 109:C:/Users/stapi/OneDrive/Desktop/GD32VW553/V1_MQTT_OK/GD32VW55X_Wifi_BLE_SDK/GD32VW55x_RELEASE_V1.0.2/MSDK/wpa_supplicant/src/ap\ieee802_11_shared.c **** 	}
 110:C:/Users/stapi/OneDrive/Desktop/GD32VW553/V1_MQTT_OK/GD32VW55X_Wifi_BLE_SDK/GD32VW55x_RELEASE_V1.0.2/MSDK/wpa_supplicant/src/ap\ieee802_11_shared.c **** 
 111:C:/Users/stapi/OneDrive/Desktop/GD32VW553/V1_MQTT_OK/GD32VW55X_Wifi_BLE_SDK/GD32VW55x_RELEASE_V1.0.2/MSDK/wpa_supplicant/src/ap\ieee802_11_shared.c **** 	mgmt->frame_control = IEEE80211_FC(WLAN_FC_TYPE_MGMT,
 112:C:/Users/stapi/OneDrive/Desktop/GD32VW553/V1_MQTT_OK/GD32VW55X_Wifi_BLE_SDK/GD32VW55x_RELEASE_V1.0.2/MSDK/wpa_supplicant/src/ap\ieee802_11_shared.c **** 					   WLAN_FC_STYPE_ACTION);
 113:C:/Users/stapi/OneDrive/Desktop/GD32VW553/V1_MQTT_OK/GD32VW55X_Wifi_BLE_SDK/GD32VW55x_RELEASE_V1.0.2/MSDK/wpa_supplicant/src/ap\ieee802_11_shared.c **** 	os_memcpy(mgmt->da, addr, ETH_ALEN);
 114:C:/Users/stapi/OneDrive/Desktop/GD32VW553/V1_MQTT_OK/GD32VW55X_Wifi_BLE_SDK/GD32VW55x_RELEASE_V1.0.2/MSDK/wpa_supplicant/src/ap\ieee802_11_shared.c **** 	os_memcpy(mgmt->sa, hapd->own_addr, ETH_ALEN);
 115:C:/Users/stapi/OneDrive/Desktop/GD32VW553/V1_MQTT_OK/GD32VW55X_Wifi_BLE_SDK/GD32VW55x_RELEASE_V1.0.2/MSDK/wpa_supplicant/src/ap\ieee802_11_shared.c **** 	os_memcpy(mgmt->bssid, hapd->own_addr, ETH_ALEN);
 116:C:/Users/stapi/OneDrive/Desktop/GD32VW553/V1_MQTT_OK/GD32VW55X_Wifi_BLE_SDK/GD32VW55x_RELEASE_V1.0.2/MSDK/wpa_supplicant/src/ap\ieee802_11_shared.c **** 	mgmt->u.action.category = WLAN_ACTION_SA_QUERY;
 117:C:/Users/stapi/OneDrive/Desktop/GD32VW553/V1_MQTT_OK/GD32VW55X_Wifi_BLE_SDK/GD32VW55x_RELEASE_V1.0.2/MSDK/wpa_supplicant/src/ap\ieee802_11_shared.c **** 	mgmt->u.action.u.sa_query_req.action = WLAN_SA_QUERY_REQUEST;
 118:C:/Users/stapi/OneDrive/Desktop/GD32VW553/V1_MQTT_OK/GD32VW55X_Wifi_BLE_SDK/GD32VW55x_RELEASE_V1.0.2/MSDK/wpa_supplicant/src/ap\ieee802_11_shared.c **** 	os_memcpy(mgmt->u.action.u.sa_query_req.trans_id, trans_id,
 119:C:/Users/stapi/OneDrive/Desktop/GD32VW553/V1_MQTT_OK/GD32VW55X_Wifi_BLE_SDK/GD32VW55x_RELEASE_V1.0.2/MSDK/wpa_supplicant/src/ap\ieee802_11_shared.c **** 		  WLAN_SA_QUERY_TR_ID_LEN);
 120:C:/Users/stapi/OneDrive/Desktop/GD32VW553/V1_MQTT_OK/GD32VW55X_Wifi_BLE_SDK/GD32VW55x_RELEASE_V1.0.2/MSDK/wpa_supplicant/src/ap\ieee802_11_shared.c **** 	end = mgmt->u.action.u.sa_query_req.variable;
 121:C:/Users/stapi/OneDrive/Desktop/GD32VW553/V1_MQTT_OK/GD32VW55X_Wifi_BLE_SDK/GD32VW55x_RELEASE_V1.0.2/MSDK/wpa_supplicant/src/ap\ieee802_11_shared.c **** #ifdef CONFIG_OCV
 122:C:/Users/stapi/OneDrive/Desktop/GD32VW553/V1_MQTT_OK/GD32VW55X_Wifi_BLE_SDK/GD32VW55x_RELEASE_V1.0.2/MSDK/wpa_supplicant/src/ap\ieee802_11_shared.c **** 	if (oci_ie_len > 0) {
 123:C:/Users/stapi/OneDrive/Desktop/GD32VW553/V1_MQTT_OK/GD32VW55X_Wifi_BLE_SDK/GD32VW55x_RELEASE_V1.0.2/MSDK/wpa_supplicant/src/ap\ieee802_11_shared.c **** 		os_memcpy(end, oci_ie, oci_ie_len);
 124:C:/Users/stapi/OneDrive/Desktop/GD32VW553/V1_MQTT_OK/GD32VW55X_Wifi_BLE_SDK/GD32VW55x_RELEASE_V1.0.2/MSDK/wpa_supplicant/src/ap\ieee802_11_shared.c **** 		end += oci_ie_len;
 125:C:/Users/stapi/OneDrive/Desktop/GD32VW553/V1_MQTT_OK/GD32VW55X_Wifi_BLE_SDK/GD32VW55x_RELEASE_V1.0.2/MSDK/wpa_supplicant/src/ap\ieee802_11_shared.c **** 	}
 126:C:/Users/stapi/OneDrive/Desktop/GD32VW553/V1_MQTT_OK/GD32VW55X_Wifi_BLE_SDK/GD32VW55x_RELEASE_V1.0.2/MSDK/wpa_supplicant/src/ap\ieee802_11_shared.c **** #endif /* CONFIG_OCV */
 127:C:/Users/stapi/OneDrive/Desktop/GD32VW553/V1_MQTT_OK/GD32VW55X_Wifi_BLE_SDK/GD32VW55x_RELEASE_V1.0.2/MSDK/wpa_supplicant/src/ap\ieee802_11_shared.c **** 	if (hostapd_drv_send_mlme(hapd, mgmt, end - (u8 *) mgmt, 0, NULL, 0, 0)
 128:C:/Users/stapi/OneDrive/Desktop/GD32VW553/V1_MQTT_OK/GD32VW55X_Wifi_BLE_SDK/GD32VW55x_RELEASE_V1.0.2/MSDK/wpa_supplicant/src/ap\ieee802_11_shared.c **** 	    < 0)
 129:C:/Users/stapi/OneDrive/Desktop/GD32VW553/V1_MQTT_OK/GD32VW55X_Wifi_BLE_SDK/GD32VW55x_RELEASE_V1.0.2/MSDK/wpa_supplicant/src/ap\ieee802_11_shared.c **** 		wpa_printf(MSG_INFO, "ieee802_11_send_sa_query_req: send failed");
 130:C:/Users/stapi/OneDrive/Desktop/GD32VW553/V1_MQTT_OK/GD32VW55X_Wifi_BLE_SDK/GD32VW55x_RELEASE_V1.0.2/MSDK/wpa_supplicant/src/ap\ieee802_11_shared.c **** 
 131:C:/Users/stapi/OneDrive/Desktop/GD32VW553/V1_MQTT_OK/GD32VW55X_Wifi_BLE_SDK/GD32VW55x_RELEASE_V1.0.2/MSDK/wpa_supplicant/src/ap\ieee802_11_shared.c **** 	os_free(mgmt);
 132:C:/Users/stapi/OneDrive/Desktop/GD32VW553/V1_MQTT_OK/GD32VW55X_Wifi_BLE_SDK/GD32VW55x_RELEASE_V1.0.2/MSDK/wpa_supplicant/src/ap\ieee802_11_shared.c **** 	os_free(oci_ie);
 255              		.loc 1 132 2
 256 0070 0145     		li	a0,0
 257 0072 97000000 		call	os_free
 257      E7800000 
 258              	.LVL28:
 133:C:/Users/stapi/OneDrive/Desktop/GD32VW553/V1_MQTT_OK/GD32VW55X_Wifi_BLE_SDK/GD32VW55x_RELEASE_V1.0.2/MSDK/wpa_supplicant/src/ap\ieee802_11_shared.c **** }
 259              		.loc 1 133 1 is_stmt 0
 260 007a 4101     		addi	sp,sp,16
 261              		.cfi_remember_state
 262              		.cfi_def_cfa_offset 0
 263 007c 17030000 		tail	__riscv_restore_4
 263      67000300 
 264              		.cfi_restore 19
 265              		.cfi_restore 18
 266              		.cfi_restore 9
 267              		.cfi_restore 8
 268              		.cfi_restore 1
 269              		.cfi_def_cfa_offset -32
 270              	.LVL29:
 271              	.L8:
 272              		.cfi_restore_state
 111:C:/Users/stapi/OneDrive/Desktop/GD32VW553/V1_MQTT_OK/GD32VW55X_Wifi_BLE_SDK/GD32VW55x_RELEASE_V1.0.2/MSDK/wpa_supplicant/src/ap\ieee802_11_shared.c **** 					   WLAN_FC_STYPE_ACTION);
 273              		.loc 1 111 22
 274 0084 930700FD 		li	a5,-48
 275 0088 2A84     		mv	s0,a0
 111:C:/Users/stapi/OneDrive/Desktop/GD32VW553/V1_MQTT_OK/GD32VW55X_Wifi_BLE_SDK/GD32VW55x_RELEASE_V1.0.2/MSDK/wpa_supplicant/src/ap\ieee802_11_shared.c **** 					   WLAN_FC_STYPE_ACTION);
 276              		.loc 1 111 2 is_stmt 1
 111:C:/Users/stapi/OneDrive/Desktop/GD32VW553/V1_MQTT_OK/GD32VW55X_Wifi_BLE_SDK/GD32VW55x_RELEASE_V1.0.2/MSDK/wpa_supplicant/src/ap\ieee802_11_shared.c **** 					   WLAN_FC_STYPE_ACTION);
 277              		.loc 1 111 22 is_stmt 0
 278 008a 2300F500 		sb	a5,0(a0)
 279 008e A3000500 		sb	zero,1(a0)
 113:C:/Users/stapi/OneDrive/Desktop/GD32VW553/V1_MQTT_OK/GD32VW55X_Wifi_BLE_SDK/GD32VW55x_RELEASE_V1.0.2/MSDK/wpa_supplicant/src/ap\ieee802_11_shared.c **** 	os_memcpy(mgmt->sa, hapd->own_addr, ETH_ALEN);
 280              		.loc 1 113 2 is_stmt 1
 281 0092 1946     		li	a2,6
 282 0094 A685     		mv	a1,s1
 283 0096 1105     		addi	a0,a0,4
 284              	.LVL30:
 285 0098 97000000 		call	os_memcpy
 285      E7800000 
 286              	.LVL31:
 114:C:/Users/stapi/OneDrive/Desktop/GD32VW553/V1_MQTT_OK/GD32VW55X_Wifi_BLE_SDK/GD32VW55x_RELEASE_V1.0.2/MSDK/wpa_supplicant/src/ap\ieee802_11_shared.c **** 	os_memcpy(mgmt->bssid, hapd->own_addr, ETH_ALEN);
 287              		.loc 1 114 2
 114:C:/Users/stapi/OneDrive/Desktop/GD32VW553/V1_MQTT_OK/GD32VW55X_Wifi_BLE_SDK/GD32VW55x_RELEASE_V1.0.2/MSDK/wpa_supplicant/src/ap\ieee802_11_shared.c **** 	os_memcpy(mgmt->bssid, hapd->own_addr, ETH_ALEN);
 288              		.loc 1 114 26 is_stmt 0
 289 00a0 93051901 		addi	a1,s2,17
 114:C:/Users/stapi/OneDrive/Desktop/GD32VW553/V1_MQTT_OK/GD32VW55X_Wifi_BLE_SDK/GD32VW55x_RELEASE_V1.0.2/MSDK/wpa_supplicant/src/ap\ieee802_11_shared.c **** 	os_memcpy(mgmt->bssid, hapd->own_addr, ETH_ALEN);
 290              		.loc 1 114 2
 291 00a4 1946     		li	a2,6
 292 00a6 1305A400 		addi	a0,s0,10
 293 00aa 2EC6     		sw	a1,12(sp)
 294 00ac 97000000 		call	os_memcpy
 294      E7800000 
 295              	.LVL32:
 115:C:/Users/stapi/OneDrive/Desktop/GD32VW553/V1_MQTT_OK/GD32VW55X_Wifi_BLE_SDK/GD32VW55x_RELEASE_V1.0.2/MSDK/wpa_supplicant/src/ap\ieee802_11_shared.c **** 	mgmt->u.action.category = WLAN_ACTION_SA_QUERY;
 296              		.loc 1 115 2 is_stmt 1
 297 00b4 B245     		lw	a1,12(sp)
 298 00b6 1946     		li	a2,6
 299 00b8 13050401 		addi	a0,s0,16
 300 00bc 97000000 		call	os_memcpy
 300      E7800000 
 301              	.LVL33:
 116:C:/Users/stapi/OneDrive/Desktop/GD32VW553/V1_MQTT_OK/GD32VW55X_Wifi_BLE_SDK/GD32VW55x_RELEASE_V1.0.2/MSDK/wpa_supplicant/src/ap\ieee802_11_shared.c **** 	mgmt->u.action.u.sa_query_req.action = WLAN_SA_QUERY_REQUEST;
 302              		.loc 1 116 2
 116:C:/Users/stapi/OneDrive/Desktop/GD32VW553/V1_MQTT_OK/GD32VW55X_Wifi_BLE_SDK/GD32VW55x_RELEASE_V1.0.2/MSDK/wpa_supplicant/src/ap\ieee802_11_shared.c **** 	mgmt->u.action.u.sa_query_req.action = WLAN_SA_QUERY_REQUEST;
 303              		.loc 1 116 26 is_stmt 0
 304 00c4 A147     		li	a5,8
 305 00c6 230CF400 		sb	a5,24(s0)
 117:C:/Users/stapi/OneDrive/Desktop/GD32VW553/V1_MQTT_OK/GD32VW55X_Wifi_BLE_SDK/GD32VW55x_RELEASE_V1.0.2/MSDK/wpa_supplicant/src/ap\ieee802_11_shared.c **** 	os_memcpy(mgmt->u.action.u.sa_query_req.trans_id, trans_id,
 306              		.loc 1 117 2 is_stmt 1
 118:C:/Users/stapi/OneDrive/Desktop/GD32VW553/V1_MQTT_OK/GD32VW55X_Wifi_BLE_SDK/GD32VW55x_RELEASE_V1.0.2/MSDK/wpa_supplicant/src/ap\ieee802_11_shared.c **** 		  WLAN_SA_QUERY_TR_ID_LEN);
 307              		.loc 1 118 2 is_stmt 0
 308 00ca 0946     		li	a2,2
 309 00cc CE85     		mv	a1,s3
 117:C:/Users/stapi/OneDrive/Desktop/GD32VW553/V1_MQTT_OK/GD32VW55X_Wifi_BLE_SDK/GD32VW55x_RELEASE_V1.0.2/MSDK/wpa_supplicant/src/ap\ieee802_11_shared.c **** 	os_memcpy(mgmt->u.action.u.sa_query_req.trans_id, trans_id,
 310              		.loc 1 117 39
 311 00ce A30C0400 		sb	zero,25(s0)
 118:C:/Users/stapi/OneDrive/Desktop/GD32VW553/V1_MQTT_OK/GD32VW55X_Wifi_BLE_SDK/GD32VW55x_RELEASE_V1.0.2/MSDK/wpa_supplicant/src/ap\ieee802_11_shared.c **** 		  WLAN_SA_QUERY_TR_ID_LEN);
 312              		.loc 1 118 2 is_stmt 1
 313 00d2 1305A401 		addi	a0,s0,26
 314 00d6 97000000 		call	os_memcpy
 314      E7800000 
 315              	.LVL34:
 120:C:/Users/stapi/OneDrive/Desktop/GD32VW553/V1_MQTT_OK/GD32VW55X_Wifi_BLE_SDK/GD32VW55x_RELEASE_V1.0.2/MSDK/wpa_supplicant/src/ap\ieee802_11_shared.c **** #ifdef CONFIG_OCV
 316              		.loc 1 120 2
 127:C:/Users/stapi/OneDrive/Desktop/GD32VW553/V1_MQTT_OK/GD32VW55X_Wifi_BLE_SDK/GD32VW55x_RELEASE_V1.0.2/MSDK/wpa_supplicant/src/ap\ieee802_11_shared.c **** 	    < 0)
 317              		.loc 1 127 2
 127:C:/Users/stapi/OneDrive/Desktop/GD32VW553/V1_MQTT_OK/GD32VW55X_Wifi_BLE_SDK/GD32VW55x_RELEASE_V1.0.2/MSDK/wpa_supplicant/src/ap\ieee802_11_shared.c **** 	    < 0)
 318              		.loc 1 127 6 is_stmt 0
 319 00de 0148     		li	a6,0
 320 00e0 8147     		li	a5,0
 321 00e2 0147     		li	a4,0
 322 00e4 8146     		li	a3,0
 323 00e6 7146     		li	a2,28
 324 00e8 A285     		mv	a1,s0
 325 00ea 4A85     		mv	a0,s2
 326 00ec 97000000 		call	hostapd_drv_send_mlme
 326      E7800000 
 327              	.LVL35:
 127:C:/Users/stapi/OneDrive/Desktop/GD32VW553/V1_MQTT_OK/GD32VW55X_Wifi_BLE_SDK/GD32VW55x_RELEASE_V1.0.2/MSDK/wpa_supplicant/src/ap\ieee802_11_shared.c **** 	    < 0)
 328              		.loc 1 127 5
 329 00f4 635B0500 		bge	a0,zero,.L10
 129:C:/Users/stapi/OneDrive/Desktop/GD32VW553/V1_MQTT_OK/GD32VW55X_Wifi_BLE_SDK/GD32VW55x_RELEASE_V1.0.2/MSDK/wpa_supplicant/src/ap\ieee802_11_shared.c **** 
 330              		.loc 1 129 3 is_stmt 1
 331 00f8 B7050000 		lui	a1,%hi(.LC3)
 332 00fc 93850500 		addi	a1,a1,%lo(.LC3)
 333 0100 0D45     		li	a0,3
 334 0102 97000000 		call	wpa_printf
 334      E7800000 
 335              	.LVL36:
 336              	.L10:
 131:C:/Users/stapi/OneDrive/Desktop/GD32VW553/V1_MQTT_OK/GD32VW55X_Wifi_BLE_SDK/GD32VW55x_RELEASE_V1.0.2/MSDK/wpa_supplicant/src/ap\ieee802_11_shared.c **** 	os_free(oci_ie);
 337              		.loc 1 131 2
 338 010a 2285     		mv	a0,s0
 339 010c 97000000 		call	os_free
 339      E7800000 
 340              	.LVL37:
 341 0114 B1BF     		j	.L12
 342              		.cfi_endproc
 343              	.LFE168:
 345              		.section	.rodata.ieee802_11_sa_query_action.str1.4,"aMS",@progbits,1
 346              		.align	2
 347              	.LC4:
 348 0000 49454545 		.string	"IEEE 802.11: Too short SA Query Action frame (len=%lu)"
 348      20383032 
 348      2E31313A 
 348      20546F6F 
 348      2073686F 
 349 0037 00       		.align	2
 350              	.LC5:
 351 0038 49454545 		.string	"IEEE 802.11: Ignore group-addressed SA Query frame (A1=%02x:%02x:%02x:%02x:%02x:%02x A2=%
 351      20383032 
 351      2E31313A 
 351      2049676E 
 351      6F726520 
 352 00af 00       		.align	2
 353              	.LC6:
 354 00b0 49454545 		.string	"IEEE 802.11: Received SA Query Request from %02x:%02x:%02x:%02x:%02x:%02x"
 354      20383032 
 354      2E31313A 
 354      20526563 
 354      65697665 
 355 00fa 0000     		.align	2
 356              	.LC7:
 357 00fc 49454545 		.string	"IEEE 802.11: Ignore SA Query Request from unassociated STA %02x:%02x:%02x:%02x:%02x:%02x"
 357      20383032 
 357      2E31313A 
 357      2049676E 
 357      6F726520 
 358 0155 000000   		.align	2
 359              	.LC8:
 360 0158 49454545 		.string	"IEEE 802.11: Sending SA Query Response to %02x:%02x:%02x:%02x:%02x:%02x"
 360      20383032 
 360      2E31313A 
 360      2053656E 
 360      64696E67 
 361              		.align	2
 362              	.LC9:
 363 01a0 69656565 		.string	"ieee80211_mgmt_sa_query_request: send failed"
 363      38303231 
 363      315F6D67 
 363      6D745F73 
 363      615F7175 
 364 01cd 000000   		.align	2
 365              	.LC10:
 366 01d0 49454545 		.string	"IEEE 802.11: Unexpected SA Query Action %d"
 366      20383032 
 366      2E31313A 
 366      20556E65 
 366      78706563 
 367 01fb 00       		.align	2
 368              	.LC11:
 369 01fc 49454545 		.string	"IEEE 802.11: Received SA Query Response from %02x:%02x:%02x:%02x:%02x:%02x"
 369      20383032 
 369      2E31313A 
 369      20526563 
 369      65697665 
 370 0247 00       		.align	2
 371              	.LC12:
 372 0248 49454545 		.string	"IEEE 802.11: No matching STA with pending SA Query request found"
 372      20383032 
 372      2E31313A 
 372      204E6F20 
 372      6D617463 
 373 0289 000000   		.align	2
 374              	.LC13:
 375 028c 49454545 		.string	"IEEE 802.11: No matching SA Query transaction identifier found"
 375      20383032 
 375      2E31313A 
 375      204E6F20 
 375      6D617463 
 376              		.section	.text.ieee802_11_sa_query_action,"ax",@progbits
 377              		.align	1
 378              		.globl	ieee802_11_sa_query_action
 380              	ieee802_11_sa_query_action:
 381              	.LFB170:
 134:C:/Users/stapi/OneDrive/Desktop/GD32VW553/V1_MQTT_OK/GD32VW55X_Wifi_BLE_SDK/GD32VW55x_RELEASE_V1.0.2/MSDK/wpa_supplicant/src/ap\ieee802_11_shared.c **** 
 135:C:/Users/stapi/OneDrive/Desktop/GD32VW553/V1_MQTT_OK/GD32VW55X_Wifi_BLE_SDK/GD32VW55x_RELEASE_V1.0.2/MSDK/wpa_supplicant/src/ap\ieee802_11_shared.c **** 
 136:C:/Users/stapi/OneDrive/Desktop/GD32VW553/V1_MQTT_OK/GD32VW55X_Wifi_BLE_SDK/GD32VW55x_RELEASE_V1.0.2/MSDK/wpa_supplicant/src/ap\ieee802_11_shared.c **** static void ieee802_11_send_sa_query_resp(struct hostapd_data *hapd,
 137:C:/Users/stapi/OneDrive/Desktop/GD32VW553/V1_MQTT_OK/GD32VW55X_Wifi_BLE_SDK/GD32VW55x_RELEASE_V1.0.2/MSDK/wpa_supplicant/src/ap\ieee802_11_shared.c **** 					  const u8 *sa, const u8 *trans_id)
 138:C:/Users/stapi/OneDrive/Desktop/GD32VW553/V1_MQTT_OK/GD32VW55X_Wifi_BLE_SDK/GD32VW55x_RELEASE_V1.0.2/MSDK/wpa_supplicant/src/ap\ieee802_11_shared.c **** {
 139:C:/Users/stapi/OneDrive/Desktop/GD32VW553/V1_MQTT_OK/GD32VW55X_Wifi_BLE_SDK/GD32VW55x_RELEASE_V1.0.2/MSDK/wpa_supplicant/src/ap\ieee802_11_shared.c **** 	struct sta_info *sta;
 140:C:/Users/stapi/OneDrive/Desktop/GD32VW553/V1_MQTT_OK/GD32VW55X_Wifi_BLE_SDK/GD32VW55x_RELEASE_V1.0.2/MSDK/wpa_supplicant/src/ap\ieee802_11_shared.c **** 	struct ieee80211_mgmt *resp;
 141:C:/Users/stapi/OneDrive/Desktop/GD32VW553/V1_MQTT_OK/GD32VW55X_Wifi_BLE_SDK/GD32VW55x_RELEASE_V1.0.2/MSDK/wpa_supplicant/src/ap\ieee802_11_shared.c **** 	u8 *oci_ie = NULL;
 142:C:/Users/stapi/OneDrive/Desktop/GD32VW553/V1_MQTT_OK/GD32VW55X_Wifi_BLE_SDK/GD32VW55x_RELEASE_V1.0.2/MSDK/wpa_supplicant/src/ap\ieee802_11_shared.c **** 	u8 oci_ie_len = 0;
 143:C:/Users/stapi/OneDrive/Desktop/GD32VW553/V1_MQTT_OK/GD32VW55X_Wifi_BLE_SDK/GD32VW55x_RELEASE_V1.0.2/MSDK/wpa_supplicant/src/ap\ieee802_11_shared.c **** 	u8 *end;
 144:C:/Users/stapi/OneDrive/Desktop/GD32VW553/V1_MQTT_OK/GD32VW55X_Wifi_BLE_SDK/GD32VW55x_RELEASE_V1.0.2/MSDK/wpa_supplicant/src/ap\ieee802_11_shared.c **** 
 145:C:/Users/stapi/OneDrive/Desktop/GD32VW553/V1_MQTT_OK/GD32VW55X_Wifi_BLE_SDK/GD32VW55x_RELEASE_V1.0.2/MSDK/wpa_supplicant/src/ap\ieee802_11_shared.c **** 	wpa_printf(MSG_DEBUG, "IEEE 802.11: Received SA Query Request from "
 146:C:/Users/stapi/OneDrive/Desktop/GD32VW553/V1_MQTT_OK/GD32VW55X_Wifi_BLE_SDK/GD32VW55x_RELEASE_V1.0.2/MSDK/wpa_supplicant/src/ap\ieee802_11_shared.c **** 		   MACSTR, MAC2STR(sa));
 147:C:/Users/stapi/OneDrive/Desktop/GD32VW553/V1_MQTT_OK/GD32VW55X_Wifi_BLE_SDK/GD32VW55x_RELEASE_V1.0.2/MSDK/wpa_supplicant/src/ap\ieee802_11_shared.c **** 	wpa_hexdump(MSG_DEBUG, "IEEE 802.11: SA Query Transaction ID",
 148:C:/Users/stapi/OneDrive/Desktop/GD32VW553/V1_MQTT_OK/GD32VW55X_Wifi_BLE_SDK/GD32VW55x_RELEASE_V1.0.2/MSDK/wpa_supplicant/src/ap\ieee802_11_shared.c **** 		    trans_id, WLAN_SA_QUERY_TR_ID_LEN);
 149:C:/Users/stapi/OneDrive/Desktop/GD32VW553/V1_MQTT_OK/GD32VW55X_Wifi_BLE_SDK/GD32VW55x_RELEASE_V1.0.2/MSDK/wpa_supplicant/src/ap\ieee802_11_shared.c **** 
 150:C:/Users/stapi/OneDrive/Desktop/GD32VW553/V1_MQTT_OK/GD32VW55X_Wifi_BLE_SDK/GD32VW55x_RELEASE_V1.0.2/MSDK/wpa_supplicant/src/ap\ieee802_11_shared.c **** 	sta = ap_get_sta(hapd, sa);
 151:C:/Users/stapi/OneDrive/Desktop/GD32VW553/V1_MQTT_OK/GD32VW55X_Wifi_BLE_SDK/GD32VW55x_RELEASE_V1.0.2/MSDK/wpa_supplicant/src/ap\ieee802_11_shared.c **** 	if (sta == NULL || !(sta->flags & WLAN_STA_ASSOC)) {
 152:C:/Users/stapi/OneDrive/Desktop/GD32VW553/V1_MQTT_OK/GD32VW55X_Wifi_BLE_SDK/GD32VW55x_RELEASE_V1.0.2/MSDK/wpa_supplicant/src/ap\ieee802_11_shared.c **** 		wpa_printf(MSG_DEBUG, "IEEE 802.11: Ignore SA Query Request "
 153:C:/Users/stapi/OneDrive/Desktop/GD32VW553/V1_MQTT_OK/GD32VW55X_Wifi_BLE_SDK/GD32VW55x_RELEASE_V1.0.2/MSDK/wpa_supplicant/src/ap\ieee802_11_shared.c **** 			   "from unassociated STA " MACSTR, MAC2STR(sa));
 154:C:/Users/stapi/OneDrive/Desktop/GD32VW553/V1_MQTT_OK/GD32VW55X_Wifi_BLE_SDK/GD32VW55x_RELEASE_V1.0.2/MSDK/wpa_supplicant/src/ap\ieee802_11_shared.c **** 		return;
 155:C:/Users/stapi/OneDrive/Desktop/GD32VW553/V1_MQTT_OK/GD32VW55X_Wifi_BLE_SDK/GD32VW55x_RELEASE_V1.0.2/MSDK/wpa_supplicant/src/ap\ieee802_11_shared.c **** 	}
 156:C:/Users/stapi/OneDrive/Desktop/GD32VW553/V1_MQTT_OK/GD32VW55X_Wifi_BLE_SDK/GD32VW55x_RELEASE_V1.0.2/MSDK/wpa_supplicant/src/ap\ieee802_11_shared.c **** 
 157:C:/Users/stapi/OneDrive/Desktop/GD32VW553/V1_MQTT_OK/GD32VW55X_Wifi_BLE_SDK/GD32VW55x_RELEASE_V1.0.2/MSDK/wpa_supplicant/src/ap\ieee802_11_shared.c **** #ifdef CONFIG_OCV
 158:C:/Users/stapi/OneDrive/Desktop/GD32VW553/V1_MQTT_OK/GD32VW55X_Wifi_BLE_SDK/GD32VW55x_RELEASE_V1.0.2/MSDK/wpa_supplicant/src/ap\ieee802_11_shared.c **** 	if (wpa_auth_uses_ocv(sta->wpa_sm)) {
 159:C:/Users/stapi/OneDrive/Desktop/GD32VW553/V1_MQTT_OK/GD32VW55X_Wifi_BLE_SDK/GD32VW55x_RELEASE_V1.0.2/MSDK/wpa_supplicant/src/ap\ieee802_11_shared.c **** 		struct wpa_channel_info ci;
 160:C:/Users/stapi/OneDrive/Desktop/GD32VW553/V1_MQTT_OK/GD32VW55X_Wifi_BLE_SDK/GD32VW55x_RELEASE_V1.0.2/MSDK/wpa_supplicant/src/ap\ieee802_11_shared.c **** 
 161:C:/Users/stapi/OneDrive/Desktop/GD32VW553/V1_MQTT_OK/GD32VW55X_Wifi_BLE_SDK/GD32VW55x_RELEASE_V1.0.2/MSDK/wpa_supplicant/src/ap\ieee802_11_shared.c **** 		if (hostapd_drv_channel_info(hapd, &ci) != 0) {
 162:C:/Users/stapi/OneDrive/Desktop/GD32VW553/V1_MQTT_OK/GD32VW55X_Wifi_BLE_SDK/GD32VW55x_RELEASE_V1.0.2/MSDK/wpa_supplicant/src/ap\ieee802_11_shared.c **** 			wpa_printf(MSG_WARNING,
 163:C:/Users/stapi/OneDrive/Desktop/GD32VW553/V1_MQTT_OK/GD32VW55X_Wifi_BLE_SDK/GD32VW55x_RELEASE_V1.0.2/MSDK/wpa_supplicant/src/ap\ieee802_11_shared.c **** 				   "Failed to get channel info for OCI element in SA Query Response");
 164:C:/Users/stapi/OneDrive/Desktop/GD32VW553/V1_MQTT_OK/GD32VW55X_Wifi_BLE_SDK/GD32VW55x_RELEASE_V1.0.2/MSDK/wpa_supplicant/src/ap\ieee802_11_shared.c **** 			return;
 165:C:/Users/stapi/OneDrive/Desktop/GD32VW553/V1_MQTT_OK/GD32VW55X_Wifi_BLE_SDK/GD32VW55x_RELEASE_V1.0.2/MSDK/wpa_supplicant/src/ap\ieee802_11_shared.c **** 		}
 166:C:/Users/stapi/OneDrive/Desktop/GD32VW553/V1_MQTT_OK/GD32VW55X_Wifi_BLE_SDK/GD32VW55x_RELEASE_V1.0.2/MSDK/wpa_supplicant/src/ap\ieee802_11_shared.c **** #ifdef CONFIG_TESTING_OPTIONS
 167:C:/Users/stapi/OneDrive/Desktop/GD32VW553/V1_MQTT_OK/GD32VW55X_Wifi_BLE_SDK/GD32VW55x_RELEASE_V1.0.2/MSDK/wpa_supplicant/src/ap\ieee802_11_shared.c **** 		if (hapd->conf->oci_freq_override_saquery_resp) {
 168:C:/Users/stapi/OneDrive/Desktop/GD32VW553/V1_MQTT_OK/GD32VW55X_Wifi_BLE_SDK/GD32VW55x_RELEASE_V1.0.2/MSDK/wpa_supplicant/src/ap\ieee802_11_shared.c **** 			wpa_printf(MSG_INFO,
 169:C:/Users/stapi/OneDrive/Desktop/GD32VW553/V1_MQTT_OK/GD32VW55X_Wifi_BLE_SDK/GD32VW55x_RELEASE_V1.0.2/MSDK/wpa_supplicant/src/ap\ieee802_11_shared.c **** 				   "TEST: Override OCI frequency %d -> %u MHz",
 170:C:/Users/stapi/OneDrive/Desktop/GD32VW553/V1_MQTT_OK/GD32VW55X_Wifi_BLE_SDK/GD32VW55x_RELEASE_V1.0.2/MSDK/wpa_supplicant/src/ap\ieee802_11_shared.c **** 				   ci.frequency,
 171:C:/Users/stapi/OneDrive/Desktop/GD32VW553/V1_MQTT_OK/GD32VW55X_Wifi_BLE_SDK/GD32VW55x_RELEASE_V1.0.2/MSDK/wpa_supplicant/src/ap\ieee802_11_shared.c **** 				   hapd->conf->oci_freq_override_saquery_resp);
 172:C:/Users/stapi/OneDrive/Desktop/GD32VW553/V1_MQTT_OK/GD32VW55X_Wifi_BLE_SDK/GD32VW55x_RELEASE_V1.0.2/MSDK/wpa_supplicant/src/ap\ieee802_11_shared.c **** 			ci.frequency =
 173:C:/Users/stapi/OneDrive/Desktop/GD32VW553/V1_MQTT_OK/GD32VW55X_Wifi_BLE_SDK/GD32VW55x_RELEASE_V1.0.2/MSDK/wpa_supplicant/src/ap\ieee802_11_shared.c **** 				hapd->conf->oci_freq_override_saquery_resp;
 174:C:/Users/stapi/OneDrive/Desktop/GD32VW553/V1_MQTT_OK/GD32VW55X_Wifi_BLE_SDK/GD32VW55x_RELEASE_V1.0.2/MSDK/wpa_supplicant/src/ap\ieee802_11_shared.c **** 		}
 175:C:/Users/stapi/OneDrive/Desktop/GD32VW553/V1_MQTT_OK/GD32VW55X_Wifi_BLE_SDK/GD32VW55x_RELEASE_V1.0.2/MSDK/wpa_supplicant/src/ap\ieee802_11_shared.c **** #endif /* CONFIG_TESTING_OPTIONS */
 176:C:/Users/stapi/OneDrive/Desktop/GD32VW553/V1_MQTT_OK/GD32VW55X_Wifi_BLE_SDK/GD32VW55x_RELEASE_V1.0.2/MSDK/wpa_supplicant/src/ap\ieee802_11_shared.c **** 
 177:C:/Users/stapi/OneDrive/Desktop/GD32VW553/V1_MQTT_OK/GD32VW55X_Wifi_BLE_SDK/GD32VW55x_RELEASE_V1.0.2/MSDK/wpa_supplicant/src/ap\ieee802_11_shared.c **** 		oci_ie_len = OCV_OCI_EXTENDED_LEN;
 178:C:/Users/stapi/OneDrive/Desktop/GD32VW553/V1_MQTT_OK/GD32VW55X_Wifi_BLE_SDK/GD32VW55x_RELEASE_V1.0.2/MSDK/wpa_supplicant/src/ap\ieee802_11_shared.c **** 		oci_ie = os_zalloc(oci_ie_len);
 179:C:/Users/stapi/OneDrive/Desktop/GD32VW553/V1_MQTT_OK/GD32VW55X_Wifi_BLE_SDK/GD32VW55x_RELEASE_V1.0.2/MSDK/wpa_supplicant/src/ap\ieee802_11_shared.c **** 		if (!oci_ie) {
 180:C:/Users/stapi/OneDrive/Desktop/GD32VW553/V1_MQTT_OK/GD32VW55X_Wifi_BLE_SDK/GD32VW55x_RELEASE_V1.0.2/MSDK/wpa_supplicant/src/ap\ieee802_11_shared.c **** 			wpa_printf(MSG_WARNING,
 181:C:/Users/stapi/OneDrive/Desktop/GD32VW553/V1_MQTT_OK/GD32VW55X_Wifi_BLE_SDK/GD32VW55x_RELEASE_V1.0.2/MSDK/wpa_supplicant/src/ap\ieee802_11_shared.c **** 				   "Failed to allocate buffer for for OCI element in SA Query Response");
 182:C:/Users/stapi/OneDrive/Desktop/GD32VW553/V1_MQTT_OK/GD32VW55X_Wifi_BLE_SDK/GD32VW55x_RELEASE_V1.0.2/MSDK/wpa_supplicant/src/ap\ieee802_11_shared.c **** 			return;
 183:C:/Users/stapi/OneDrive/Desktop/GD32VW553/V1_MQTT_OK/GD32VW55X_Wifi_BLE_SDK/GD32VW55x_RELEASE_V1.0.2/MSDK/wpa_supplicant/src/ap\ieee802_11_shared.c **** 		}
 184:C:/Users/stapi/OneDrive/Desktop/GD32VW553/V1_MQTT_OK/GD32VW55X_Wifi_BLE_SDK/GD32VW55x_RELEASE_V1.0.2/MSDK/wpa_supplicant/src/ap\ieee802_11_shared.c **** 
 185:C:/Users/stapi/OneDrive/Desktop/GD32VW553/V1_MQTT_OK/GD32VW55X_Wifi_BLE_SDK/GD32VW55x_RELEASE_V1.0.2/MSDK/wpa_supplicant/src/ap\ieee802_11_shared.c **** 		if (ocv_insert_extended_oci(&ci, oci_ie) < 0) {
 186:C:/Users/stapi/OneDrive/Desktop/GD32VW553/V1_MQTT_OK/GD32VW55X_Wifi_BLE_SDK/GD32VW55x_RELEASE_V1.0.2/MSDK/wpa_supplicant/src/ap\ieee802_11_shared.c **** 			os_free(oci_ie);
 187:C:/Users/stapi/OneDrive/Desktop/GD32VW553/V1_MQTT_OK/GD32VW55X_Wifi_BLE_SDK/GD32VW55x_RELEASE_V1.0.2/MSDK/wpa_supplicant/src/ap\ieee802_11_shared.c **** 			return;
 188:C:/Users/stapi/OneDrive/Desktop/GD32VW553/V1_MQTT_OK/GD32VW55X_Wifi_BLE_SDK/GD32VW55x_RELEASE_V1.0.2/MSDK/wpa_supplicant/src/ap\ieee802_11_shared.c **** 		}
 189:C:/Users/stapi/OneDrive/Desktop/GD32VW553/V1_MQTT_OK/GD32VW55X_Wifi_BLE_SDK/GD32VW55x_RELEASE_V1.0.2/MSDK/wpa_supplicant/src/ap\ieee802_11_shared.c **** 	}
 190:C:/Users/stapi/OneDrive/Desktop/GD32VW553/V1_MQTT_OK/GD32VW55X_Wifi_BLE_SDK/GD32VW55x_RELEASE_V1.0.2/MSDK/wpa_supplicant/src/ap\ieee802_11_shared.c **** #endif /* CONFIG_OCV */
 191:C:/Users/stapi/OneDrive/Desktop/GD32VW553/V1_MQTT_OK/GD32VW55X_Wifi_BLE_SDK/GD32VW55x_RELEASE_V1.0.2/MSDK/wpa_supplicant/src/ap\ieee802_11_shared.c **** 
 192:C:/Users/stapi/OneDrive/Desktop/GD32VW553/V1_MQTT_OK/GD32VW55X_Wifi_BLE_SDK/GD32VW55x_RELEASE_V1.0.2/MSDK/wpa_supplicant/src/ap\ieee802_11_shared.c **** 	resp = os_zalloc(sizeof(*resp) + oci_ie_len);
 193:C:/Users/stapi/OneDrive/Desktop/GD32VW553/V1_MQTT_OK/GD32VW55X_Wifi_BLE_SDK/GD32VW55x_RELEASE_V1.0.2/MSDK/wpa_supplicant/src/ap\ieee802_11_shared.c **** 	if (!resp) {
 194:C:/Users/stapi/OneDrive/Desktop/GD32VW553/V1_MQTT_OK/GD32VW55X_Wifi_BLE_SDK/GD32VW55x_RELEASE_V1.0.2/MSDK/wpa_supplicant/src/ap\ieee802_11_shared.c **** 		wpa_printf(MSG_DEBUG,
 195:C:/Users/stapi/OneDrive/Desktop/GD32VW553/V1_MQTT_OK/GD32VW55X_Wifi_BLE_SDK/GD32VW55x_RELEASE_V1.0.2/MSDK/wpa_supplicant/src/ap\ieee802_11_shared.c **** 			   "Failed to allocate buffer for SA Query Response frame");
 196:C:/Users/stapi/OneDrive/Desktop/GD32VW553/V1_MQTT_OK/GD32VW55X_Wifi_BLE_SDK/GD32VW55x_RELEASE_V1.0.2/MSDK/wpa_supplicant/src/ap\ieee802_11_shared.c **** 		os_free(oci_ie);
 197:C:/Users/stapi/OneDrive/Desktop/GD32VW553/V1_MQTT_OK/GD32VW55X_Wifi_BLE_SDK/GD32VW55x_RELEASE_V1.0.2/MSDK/wpa_supplicant/src/ap\ieee802_11_shared.c **** 		return;
 198:C:/Users/stapi/OneDrive/Desktop/GD32VW553/V1_MQTT_OK/GD32VW55X_Wifi_BLE_SDK/GD32VW55x_RELEASE_V1.0.2/MSDK/wpa_supplicant/src/ap\ieee802_11_shared.c **** 	}
 199:C:/Users/stapi/OneDrive/Desktop/GD32VW553/V1_MQTT_OK/GD32VW55X_Wifi_BLE_SDK/GD32VW55x_RELEASE_V1.0.2/MSDK/wpa_supplicant/src/ap\ieee802_11_shared.c **** 
 200:C:/Users/stapi/OneDrive/Desktop/GD32VW553/V1_MQTT_OK/GD32VW55X_Wifi_BLE_SDK/GD32VW55x_RELEASE_V1.0.2/MSDK/wpa_supplicant/src/ap\ieee802_11_shared.c **** 	wpa_printf(MSG_DEBUG, "IEEE 802.11: Sending SA Query Response to "
 201:C:/Users/stapi/OneDrive/Desktop/GD32VW553/V1_MQTT_OK/GD32VW55X_Wifi_BLE_SDK/GD32VW55x_RELEASE_V1.0.2/MSDK/wpa_supplicant/src/ap\ieee802_11_shared.c **** 		   MACSTR, MAC2STR(sa));
 202:C:/Users/stapi/OneDrive/Desktop/GD32VW553/V1_MQTT_OK/GD32VW55X_Wifi_BLE_SDK/GD32VW55x_RELEASE_V1.0.2/MSDK/wpa_supplicant/src/ap\ieee802_11_shared.c **** 
 203:C:/Users/stapi/OneDrive/Desktop/GD32VW553/V1_MQTT_OK/GD32VW55X_Wifi_BLE_SDK/GD32VW55x_RELEASE_V1.0.2/MSDK/wpa_supplicant/src/ap\ieee802_11_shared.c **** 	resp->frame_control = IEEE80211_FC(WLAN_FC_TYPE_MGMT,
 204:C:/Users/stapi/OneDrive/Desktop/GD32VW553/V1_MQTT_OK/GD32VW55X_Wifi_BLE_SDK/GD32VW55x_RELEASE_V1.0.2/MSDK/wpa_supplicant/src/ap\ieee802_11_shared.c **** 					   WLAN_FC_STYPE_ACTION);
 205:C:/Users/stapi/OneDrive/Desktop/GD32VW553/V1_MQTT_OK/GD32VW55X_Wifi_BLE_SDK/GD32VW55x_RELEASE_V1.0.2/MSDK/wpa_supplicant/src/ap\ieee802_11_shared.c **** 	os_memcpy(resp->da, sa, ETH_ALEN);
 206:C:/Users/stapi/OneDrive/Desktop/GD32VW553/V1_MQTT_OK/GD32VW55X_Wifi_BLE_SDK/GD32VW55x_RELEASE_V1.0.2/MSDK/wpa_supplicant/src/ap\ieee802_11_shared.c **** 	os_memcpy(resp->sa, hapd->own_addr, ETH_ALEN);
 207:C:/Users/stapi/OneDrive/Desktop/GD32VW553/V1_MQTT_OK/GD32VW55X_Wifi_BLE_SDK/GD32VW55x_RELEASE_V1.0.2/MSDK/wpa_supplicant/src/ap\ieee802_11_shared.c **** 	os_memcpy(resp->bssid, hapd->own_addr, ETH_ALEN);
 208:C:/Users/stapi/OneDrive/Desktop/GD32VW553/V1_MQTT_OK/GD32VW55X_Wifi_BLE_SDK/GD32VW55x_RELEASE_V1.0.2/MSDK/wpa_supplicant/src/ap\ieee802_11_shared.c **** 	resp->u.action.category = WLAN_ACTION_SA_QUERY;
 209:C:/Users/stapi/OneDrive/Desktop/GD32VW553/V1_MQTT_OK/GD32VW55X_Wifi_BLE_SDK/GD32VW55x_RELEASE_V1.0.2/MSDK/wpa_supplicant/src/ap\ieee802_11_shared.c **** 	resp->u.action.u.sa_query_req.action = WLAN_SA_QUERY_RESPONSE;
 210:C:/Users/stapi/OneDrive/Desktop/GD32VW553/V1_MQTT_OK/GD32VW55X_Wifi_BLE_SDK/GD32VW55x_RELEASE_V1.0.2/MSDK/wpa_supplicant/src/ap\ieee802_11_shared.c **** 	os_memcpy(resp->u.action.u.sa_query_req.trans_id, trans_id,
 211:C:/Users/stapi/OneDrive/Desktop/GD32VW553/V1_MQTT_OK/GD32VW55X_Wifi_BLE_SDK/GD32VW55x_RELEASE_V1.0.2/MSDK/wpa_supplicant/src/ap\ieee802_11_shared.c **** 		  WLAN_SA_QUERY_TR_ID_LEN);
 212:C:/Users/stapi/OneDrive/Desktop/GD32VW553/V1_MQTT_OK/GD32VW55X_Wifi_BLE_SDK/GD32VW55x_RELEASE_V1.0.2/MSDK/wpa_supplicant/src/ap\ieee802_11_shared.c **** 	end = resp->u.action.u.sa_query_req.variable;
 213:C:/Users/stapi/OneDrive/Desktop/GD32VW553/V1_MQTT_OK/GD32VW55X_Wifi_BLE_SDK/GD32VW55x_RELEASE_V1.0.2/MSDK/wpa_supplicant/src/ap\ieee802_11_shared.c **** #ifdef CONFIG_OCV
 214:C:/Users/stapi/OneDrive/Desktop/GD32VW553/V1_MQTT_OK/GD32VW55X_Wifi_BLE_SDK/GD32VW55x_RELEASE_V1.0.2/MSDK/wpa_supplicant/src/ap\ieee802_11_shared.c **** 	if (oci_ie_len > 0) {
 215:C:/Users/stapi/OneDrive/Desktop/GD32VW553/V1_MQTT_OK/GD32VW55X_Wifi_BLE_SDK/GD32VW55x_RELEASE_V1.0.2/MSDK/wpa_supplicant/src/ap\ieee802_11_shared.c **** 		os_memcpy(end, oci_ie, oci_ie_len);
 216:C:/Users/stapi/OneDrive/Desktop/GD32VW553/V1_MQTT_OK/GD32VW55X_Wifi_BLE_SDK/GD32VW55x_RELEASE_V1.0.2/MSDK/wpa_supplicant/src/ap\ieee802_11_shared.c **** 		end += oci_ie_len;
 217:C:/Users/stapi/OneDrive/Desktop/GD32VW553/V1_MQTT_OK/GD32VW55X_Wifi_BLE_SDK/GD32VW55x_RELEASE_V1.0.2/MSDK/wpa_supplicant/src/ap\ieee802_11_shared.c **** 	}
 218:C:/Users/stapi/OneDrive/Desktop/GD32VW553/V1_MQTT_OK/GD32VW55X_Wifi_BLE_SDK/GD32VW55x_RELEASE_V1.0.2/MSDK/wpa_supplicant/src/ap\ieee802_11_shared.c **** #endif /* CONFIG_OCV */
 219:C:/Users/stapi/OneDrive/Desktop/GD32VW553/V1_MQTT_OK/GD32VW55X_Wifi_BLE_SDK/GD32VW55x_RELEASE_V1.0.2/MSDK/wpa_supplicant/src/ap\ieee802_11_shared.c **** 	if (hostapd_drv_send_mlme(hapd, resp, end - (u8 *) resp, 0, NULL, 0, 0)
 220:C:/Users/stapi/OneDrive/Desktop/GD32VW553/V1_MQTT_OK/GD32VW55X_Wifi_BLE_SDK/GD32VW55x_RELEASE_V1.0.2/MSDK/wpa_supplicant/src/ap\ieee802_11_shared.c **** 	    < 0)
 221:C:/Users/stapi/OneDrive/Desktop/GD32VW553/V1_MQTT_OK/GD32VW55X_Wifi_BLE_SDK/GD32VW55x_RELEASE_V1.0.2/MSDK/wpa_supplicant/src/ap\ieee802_11_shared.c **** 		wpa_printf(MSG_INFO, "ieee80211_mgmt_sa_query_request: send failed");
 222:C:/Users/stapi/OneDrive/Desktop/GD32VW553/V1_MQTT_OK/GD32VW55X_Wifi_BLE_SDK/GD32VW55x_RELEASE_V1.0.2/MSDK/wpa_supplicant/src/ap\ieee802_11_shared.c **** 
 223:C:/Users/stapi/OneDrive/Desktop/GD32VW553/V1_MQTT_OK/GD32VW55X_Wifi_BLE_SDK/GD32VW55x_RELEASE_V1.0.2/MSDK/wpa_supplicant/src/ap\ieee802_11_shared.c **** 	os_free(resp);
 224:C:/Users/stapi/OneDrive/Desktop/GD32VW553/V1_MQTT_OK/GD32VW55X_Wifi_BLE_SDK/GD32VW55x_RELEASE_V1.0.2/MSDK/wpa_supplicant/src/ap\ieee802_11_shared.c **** 	os_free(oci_ie);
 225:C:/Users/stapi/OneDrive/Desktop/GD32VW553/V1_MQTT_OK/GD32VW55X_Wifi_BLE_SDK/GD32VW55x_RELEASE_V1.0.2/MSDK/wpa_supplicant/src/ap\ieee802_11_shared.c **** }
 226:C:/Users/stapi/OneDrive/Desktop/GD32VW553/V1_MQTT_OK/GD32VW55X_Wifi_BLE_SDK/GD32VW55x_RELEASE_V1.0.2/MSDK/wpa_supplicant/src/ap\ieee802_11_shared.c **** 
 227:C:/Users/stapi/OneDrive/Desktop/GD32VW553/V1_MQTT_OK/GD32VW55X_Wifi_BLE_SDK/GD32VW55x_RELEASE_V1.0.2/MSDK/wpa_supplicant/src/ap\ieee802_11_shared.c **** 
 228:C:/Users/stapi/OneDrive/Desktop/GD32VW553/V1_MQTT_OK/GD32VW55X_Wifi_BLE_SDK/GD32VW55x_RELEASE_V1.0.2/MSDK/wpa_supplicant/src/ap\ieee802_11_shared.c **** void ieee802_11_sa_query_action(struct hostapd_data *hapd,
 229:C:/Users/stapi/OneDrive/Desktop/GD32VW553/V1_MQTT_OK/GD32VW55X_Wifi_BLE_SDK/GD32VW55x_RELEASE_V1.0.2/MSDK/wpa_supplicant/src/ap\ieee802_11_shared.c **** 				const struct ieee80211_mgmt *mgmt,
 230:C:/Users/stapi/OneDrive/Desktop/GD32VW553/V1_MQTT_OK/GD32VW55X_Wifi_BLE_SDK/GD32VW55x_RELEASE_V1.0.2/MSDK/wpa_supplicant/src/ap\ieee802_11_shared.c **** 				size_t len)
 231:C:/Users/stapi/OneDrive/Desktop/GD32VW553/V1_MQTT_OK/GD32VW55X_Wifi_BLE_SDK/GD32VW55x_RELEASE_V1.0.2/MSDK/wpa_supplicant/src/ap\ieee802_11_shared.c **** {
 382              		.loc 1 231 1
 383              		.cfi_startproc
 384              	.LVL38:
 385 0000 17030000 		call	t0,__riscv_save_5
 385      E7020300 
 386              		.cfi_offset 20, -24
 387              		.cfi_offset 19, -20
 388              		.cfi_offset 18, -16
 389              		.cfi_offset 9, -12
 390              		.cfi_offset 8, -8
 391              		.cfi_offset 1, -4
 392              		.cfi_def_cfa_offset 32
 232:C:/Users/stapi/OneDrive/Desktop/GD32VW553/V1_MQTT_OK/GD32VW55X_Wifi_BLE_SDK/GD32VW55x_RELEASE_V1.0.2/MSDK/wpa_supplicant/src/ap\ieee802_11_shared.c **** 	struct sta_info *sta;
 393              		.loc 1 232 2
 233:C:/Users/stapi/OneDrive/Desktop/GD32VW553/V1_MQTT_OK/GD32VW55X_Wifi_BLE_SDK/GD32VW55x_RELEASE_V1.0.2/MSDK/wpa_supplicant/src/ap\ieee802_11_shared.c **** 	int i;
 394              		.loc 1 233 2
 234:C:/Users/stapi/OneDrive/Desktop/GD32VW553/V1_MQTT_OK/GD32VW55X_Wifi_BLE_SDK/GD32VW55x_RELEASE_V1.0.2/MSDK/wpa_supplicant/src/ap\ieee802_11_shared.c **** 	const u8 *sa = mgmt->sa;
 395              		.loc 1 234 2
 396              	.LVL39:
 235:C:/Users/stapi/OneDrive/Desktop/GD32VW553/V1_MQTT_OK/GD32VW55X_Wifi_BLE_SDK/GD32VW55x_RELEASE_V1.0.2/MSDK/wpa_supplicant/src/ap\ieee802_11_shared.c **** 	const u8 action_type = mgmt->u.action.u.sa_query_resp.action;
 397              		.loc 1 235 2
 236:C:/Users/stapi/OneDrive/Desktop/GD32VW553/V1_MQTT_OK/GD32VW55X_Wifi_BLE_SDK/GD32VW55x_RELEASE_V1.0.2/MSDK/wpa_supplicant/src/ap\ieee802_11_shared.c **** 	const u8 *trans_id = mgmt->u.action.u.sa_query_resp.trans_id;
 398              		.loc 1 236 2
 237:C:/Users/stapi/OneDrive/Desktop/GD32VW553/V1_MQTT_OK/GD32VW55X_Wifi_BLE_SDK/GD32VW55x_RELEASE_V1.0.2/MSDK/wpa_supplicant/src/ap\ieee802_11_shared.c **** 
 238:C:/Users/stapi/OneDrive/Desktop/GD32VW553/V1_MQTT_OK/GD32VW55X_Wifi_BLE_SDK/GD32VW55x_RELEASE_V1.0.2/MSDK/wpa_supplicant/src/ap\ieee802_11_shared.c **** 	if (((const u8 *) mgmt) + len <
 399              		.loc 1 238 2
 400              		.loc 1 238 26 is_stmt 0
 401 0008 B387C500 		add	a5,a1,a2
 402              		.loc 1 238 32
 403 000c 1387C501 		addi	a4,a1,28
 231:C:/Users/stapi/OneDrive/Desktop/GD32VW553/V1_MQTT_OK/GD32VW55X_Wifi_BLE_SDK/GD32VW55x_RELEASE_V1.0.2/MSDK/wpa_supplicant/src/ap\ieee802_11_shared.c **** 	struct sta_info *sta;
 404              		.loc 1 231 1
 405 0010 7971     		addi	sp,sp,-48
 406              		.cfi_def_cfa_offset 80
 407              		.loc 1 238 5
 408 0012 63FCE700 		bgeu	a5,a4,.L14
 239:C:/Users/stapi/OneDrive/Desktop/GD32VW553/V1_MQTT_OK/GD32VW55X_Wifi_BLE_SDK/GD32VW55x_RELEASE_V1.0.2/MSDK/wpa_supplicant/src/ap\ieee802_11_shared.c **** 	    mgmt->u.action.u.sa_query_resp.variable) {
 240:C:/Users/stapi/OneDrive/Desktop/GD32VW553/V1_MQTT_OK/GD32VW55X_Wifi_BLE_SDK/GD32VW55x_RELEASE_V1.0.2/MSDK/wpa_supplicant/src/ap\ieee802_11_shared.c **** 		wpa_printf(MSG_DEBUG,
 409              		.loc 1 240 3 is_stmt 1
 410 0016 B7050000 		lui	a1,%hi(.LC4)
 411              	.LVL40:
 412 001a 93850500 		addi	a1,a1,%lo(.LC4)
 413              	.LVL41:
 414              	.L42:
 241:C:/Users/stapi/OneDrive/Desktop/GD32VW553/V1_MQTT_OK/GD32VW55X_Wifi_BLE_SDK/GD32VW55x_RELEASE_V1.0.2/MSDK/wpa_supplicant/src/ap\ieee802_11_shared.c **** 			   "IEEE 802.11: Too short SA Query Action frame (len=%lu)",
 242:C:/Users/stapi/OneDrive/Desktop/GD32VW553/V1_MQTT_OK/GD32VW55X_Wifi_BLE_SDK/GD32VW55x_RELEASE_V1.0.2/MSDK/wpa_supplicant/src/ap\ieee802_11_shared.c **** 			   (unsigned long) len);
 243:C:/Users/stapi/OneDrive/Desktop/GD32VW553/V1_MQTT_OK/GD32VW55X_Wifi_BLE_SDK/GD32VW55x_RELEASE_V1.0.2/MSDK/wpa_supplicant/src/ap\ieee802_11_shared.c **** 		return;
 244:C:/Users/stapi/OneDrive/Desktop/GD32VW553/V1_MQTT_OK/GD32VW55X_Wifi_BLE_SDK/GD32VW55x_RELEASE_V1.0.2/MSDK/wpa_supplicant/src/ap\ieee802_11_shared.c **** 	}
 245:C:/Users/stapi/OneDrive/Desktop/GD32VW553/V1_MQTT_OK/GD32VW55X_Wifi_BLE_SDK/GD32VW55x_RELEASE_V1.0.2/MSDK/wpa_supplicant/src/ap\ieee802_11_shared.c **** 	if (is_multicast_ether_addr(mgmt->da)) {
 246:C:/Users/stapi/OneDrive/Desktop/GD32VW553/V1_MQTT_OK/GD32VW55X_Wifi_BLE_SDK/GD32VW55x_RELEASE_V1.0.2/MSDK/wpa_supplicant/src/ap\ieee802_11_shared.c **** 		wpa_printf(MSG_DEBUG,
 247:C:/Users/stapi/OneDrive/Desktop/GD32VW553/V1_MQTT_OK/GD32VW55X_Wifi_BLE_SDK/GD32VW55x_RELEASE_V1.0.2/MSDK/wpa_supplicant/src/ap\ieee802_11_shared.c **** 			   "IEEE 802.11: Ignore group-addressed SA Query frame (A1=" MACSTR " A2=" MACSTR ")",
 248:C:/Users/stapi/OneDrive/Desktop/GD32VW553/V1_MQTT_OK/GD32VW55X_Wifi_BLE_SDK/GD32VW55x_RELEASE_V1.0.2/MSDK/wpa_supplicant/src/ap\ieee802_11_shared.c **** 			   MAC2STR(mgmt->da), MAC2STR(mgmt->sa));
 249:C:/Users/stapi/OneDrive/Desktop/GD32VW553/V1_MQTT_OK/GD32VW55X_Wifi_BLE_SDK/GD32VW55x_RELEASE_V1.0.2/MSDK/wpa_supplicant/src/ap\ieee802_11_shared.c **** 		return;
 250:C:/Users/stapi/OneDrive/Desktop/GD32VW553/V1_MQTT_OK/GD32VW55X_Wifi_BLE_SDK/GD32VW55x_RELEASE_V1.0.2/MSDK/wpa_supplicant/src/ap\ieee802_11_shared.c **** 	}
 251:C:/Users/stapi/OneDrive/Desktop/GD32VW553/V1_MQTT_OK/GD32VW55X_Wifi_BLE_SDK/GD32VW55x_RELEASE_V1.0.2/MSDK/wpa_supplicant/src/ap\ieee802_11_shared.c **** 
 252:C:/Users/stapi/OneDrive/Desktop/GD32VW553/V1_MQTT_OK/GD32VW55X_Wifi_BLE_SDK/GD32VW55x_RELEASE_V1.0.2/MSDK/wpa_supplicant/src/ap\ieee802_11_shared.c **** 	sta = ap_get_sta(hapd, sa);
 253:C:/Users/stapi/OneDrive/Desktop/GD32VW553/V1_MQTT_OK/GD32VW55X_Wifi_BLE_SDK/GD32VW55x_RELEASE_V1.0.2/MSDK/wpa_supplicant/src/ap\ieee802_11_shared.c **** 
 254:C:/Users/stapi/OneDrive/Desktop/GD32VW553/V1_MQTT_OK/GD32VW55X_Wifi_BLE_SDK/GD32VW55x_RELEASE_V1.0.2/MSDK/wpa_supplicant/src/ap\ieee802_11_shared.c **** #ifdef CONFIG_OCV
 255:C:/Users/stapi/OneDrive/Desktop/GD32VW553/V1_MQTT_OK/GD32VW55X_Wifi_BLE_SDK/GD32VW55x_RELEASE_V1.0.2/MSDK/wpa_supplicant/src/ap\ieee802_11_shared.c **** 	if (sta && wpa_auth_uses_ocv(sta->wpa_sm)) {
 256:C:/Users/stapi/OneDrive/Desktop/GD32VW553/V1_MQTT_OK/GD32VW55X_Wifi_BLE_SDK/GD32VW55x_RELEASE_V1.0.2/MSDK/wpa_supplicant/src/ap\ieee802_11_shared.c **** 		struct ieee802_11_elems elems;
 257:C:/Users/stapi/OneDrive/Desktop/GD32VW553/V1_MQTT_OK/GD32VW55X_Wifi_BLE_SDK/GD32VW55x_RELEASE_V1.0.2/MSDK/wpa_supplicant/src/ap\ieee802_11_shared.c **** 		struct wpa_channel_info ci;
 258:C:/Users/stapi/OneDrive/Desktop/GD32VW553/V1_MQTT_OK/GD32VW55X_Wifi_BLE_SDK/GD32VW55x_RELEASE_V1.0.2/MSDK/wpa_supplicant/src/ap\ieee802_11_shared.c **** 		int tx_chanwidth;
 259:C:/Users/stapi/OneDrive/Desktop/GD32VW553/V1_MQTT_OK/GD32VW55X_Wifi_BLE_SDK/GD32VW55x_RELEASE_V1.0.2/MSDK/wpa_supplicant/src/ap\ieee802_11_shared.c **** 		int tx_seg1_idx;
 260:C:/Users/stapi/OneDrive/Desktop/GD32VW553/V1_MQTT_OK/GD32VW55X_Wifi_BLE_SDK/GD32VW55x_RELEASE_V1.0.2/MSDK/wpa_supplicant/src/ap\ieee802_11_shared.c **** 		size_t ies_len;
 261:C:/Users/stapi/OneDrive/Desktop/GD32VW553/V1_MQTT_OK/GD32VW55X_Wifi_BLE_SDK/GD32VW55x_RELEASE_V1.0.2/MSDK/wpa_supplicant/src/ap\ieee802_11_shared.c **** 		const u8 *ies;
 262:C:/Users/stapi/OneDrive/Desktop/GD32VW553/V1_MQTT_OK/GD32VW55X_Wifi_BLE_SDK/GD32VW55x_RELEASE_V1.0.2/MSDK/wpa_supplicant/src/ap\ieee802_11_shared.c **** 
 263:C:/Users/stapi/OneDrive/Desktop/GD32VW553/V1_MQTT_OK/GD32VW55X_Wifi_BLE_SDK/GD32VW55x_RELEASE_V1.0.2/MSDK/wpa_supplicant/src/ap\ieee802_11_shared.c **** 		ies = mgmt->u.action.u.sa_query_resp.variable;
 264:C:/Users/stapi/OneDrive/Desktop/GD32VW553/V1_MQTT_OK/GD32VW55X_Wifi_BLE_SDK/GD32VW55x_RELEASE_V1.0.2/MSDK/wpa_supplicant/src/ap\ieee802_11_shared.c **** 		ies_len = len - (ies - (u8 *) mgmt);
 265:C:/Users/stapi/OneDrive/Desktop/GD32VW553/V1_MQTT_OK/GD32VW55X_Wifi_BLE_SDK/GD32VW55x_RELEASE_V1.0.2/MSDK/wpa_supplicant/src/ap\ieee802_11_shared.c **** 		if (ieee802_11_parse_elems(ies, ies_len, &elems, 1) ==
 266:C:/Users/stapi/OneDrive/Desktop/GD32VW553/V1_MQTT_OK/GD32VW55X_Wifi_BLE_SDK/GD32VW55x_RELEASE_V1.0.2/MSDK/wpa_supplicant/src/ap\ieee802_11_shared.c **** 		    ParseFailed) {
 267:C:/Users/stapi/OneDrive/Desktop/GD32VW553/V1_MQTT_OK/GD32VW55X_Wifi_BLE_SDK/GD32VW55x_RELEASE_V1.0.2/MSDK/wpa_supplicant/src/ap\ieee802_11_shared.c **** 			wpa_printf(MSG_DEBUG,
 268:C:/Users/stapi/OneDrive/Desktop/GD32VW553/V1_MQTT_OK/GD32VW55X_Wifi_BLE_SDK/GD32VW55x_RELEASE_V1.0.2/MSDK/wpa_supplicant/src/ap\ieee802_11_shared.c **** 				   "SA Query: Failed to parse elements");
 269:C:/Users/stapi/OneDrive/Desktop/GD32VW553/V1_MQTT_OK/GD32VW55X_Wifi_BLE_SDK/GD32VW55x_RELEASE_V1.0.2/MSDK/wpa_supplicant/src/ap\ieee802_11_shared.c **** 			return;
 270:C:/Users/stapi/OneDrive/Desktop/GD32VW553/V1_MQTT_OK/GD32VW55X_Wifi_BLE_SDK/GD32VW55x_RELEASE_V1.0.2/MSDK/wpa_supplicant/src/ap\ieee802_11_shared.c **** 		}
 271:C:/Users/stapi/OneDrive/Desktop/GD32VW553/V1_MQTT_OK/GD32VW55X_Wifi_BLE_SDK/GD32VW55x_RELEASE_V1.0.2/MSDK/wpa_supplicant/src/ap\ieee802_11_shared.c **** 
 272:C:/Users/stapi/OneDrive/Desktop/GD32VW553/V1_MQTT_OK/GD32VW55X_Wifi_BLE_SDK/GD32VW55x_RELEASE_V1.0.2/MSDK/wpa_supplicant/src/ap\ieee802_11_shared.c **** 		if (hostapd_drv_channel_info(hapd, &ci) != 0) {
 273:C:/Users/stapi/OneDrive/Desktop/GD32VW553/V1_MQTT_OK/GD32VW55X_Wifi_BLE_SDK/GD32VW55x_RELEASE_V1.0.2/MSDK/wpa_supplicant/src/ap\ieee802_11_shared.c **** 			wpa_printf(MSG_WARNING,
 274:C:/Users/stapi/OneDrive/Desktop/GD32VW553/V1_MQTT_OK/GD32VW55X_Wifi_BLE_SDK/GD32VW55x_RELEASE_V1.0.2/MSDK/wpa_supplicant/src/ap\ieee802_11_shared.c **** 				   "Failed to get channel info to validate received OCI in SA Query Action frame");
 275:C:/Users/stapi/OneDrive/Desktop/GD32VW553/V1_MQTT_OK/GD32VW55X_Wifi_BLE_SDK/GD32VW55x_RELEASE_V1.0.2/MSDK/wpa_supplicant/src/ap\ieee802_11_shared.c **** 			return;
 276:C:/Users/stapi/OneDrive/Desktop/GD32VW553/V1_MQTT_OK/GD32VW55X_Wifi_BLE_SDK/GD32VW55x_RELEASE_V1.0.2/MSDK/wpa_supplicant/src/ap\ieee802_11_shared.c **** 		}
 277:C:/Users/stapi/OneDrive/Desktop/GD32VW553/V1_MQTT_OK/GD32VW55X_Wifi_BLE_SDK/GD32VW55x_RELEASE_V1.0.2/MSDK/wpa_supplicant/src/ap\ieee802_11_shared.c **** 
 278:C:/Users/stapi/OneDrive/Desktop/GD32VW553/V1_MQTT_OK/GD32VW55X_Wifi_BLE_SDK/GD32VW55x_RELEASE_V1.0.2/MSDK/wpa_supplicant/src/ap\ieee802_11_shared.c **** 		if (get_sta_tx_parameters(sta->wpa_sm,
 279:C:/Users/stapi/OneDrive/Desktop/GD32VW553/V1_MQTT_OK/GD32VW55X_Wifi_BLE_SDK/GD32VW55x_RELEASE_V1.0.2/MSDK/wpa_supplicant/src/ap\ieee802_11_shared.c **** 					  channel_width_to_int(ci.chanwidth),
 280:C:/Users/stapi/OneDrive/Desktop/GD32VW553/V1_MQTT_OK/GD32VW55X_Wifi_BLE_SDK/GD32VW55x_RELEASE_V1.0.2/MSDK/wpa_supplicant/src/ap\ieee802_11_shared.c **** 					  ci.seg1_idx, &tx_chanwidth,
 281:C:/Users/stapi/OneDrive/Desktop/GD32VW553/V1_MQTT_OK/GD32VW55X_Wifi_BLE_SDK/GD32VW55x_RELEASE_V1.0.2/MSDK/wpa_supplicant/src/ap\ieee802_11_shared.c **** 					  &tx_seg1_idx) < 0)
 282:C:/Users/stapi/OneDrive/Desktop/GD32VW553/V1_MQTT_OK/GD32VW55X_Wifi_BLE_SDK/GD32VW55x_RELEASE_V1.0.2/MSDK/wpa_supplicant/src/ap\ieee802_11_shared.c **** 			return;
 283:C:/Users/stapi/OneDrive/Desktop/GD32VW553/V1_MQTT_OK/GD32VW55X_Wifi_BLE_SDK/GD32VW55x_RELEASE_V1.0.2/MSDK/wpa_supplicant/src/ap\ieee802_11_shared.c **** 
 284:C:/Users/stapi/OneDrive/Desktop/GD32VW553/V1_MQTT_OK/GD32VW55X_Wifi_BLE_SDK/GD32VW55x_RELEASE_V1.0.2/MSDK/wpa_supplicant/src/ap\ieee802_11_shared.c **** 		if (ocv_verify_tx_params(elems.oci, elems.oci_len, &ci,
 285:C:/Users/stapi/OneDrive/Desktop/GD32VW553/V1_MQTT_OK/GD32VW55X_Wifi_BLE_SDK/GD32VW55x_RELEASE_V1.0.2/MSDK/wpa_supplicant/src/ap\ieee802_11_shared.c **** 					 tx_chanwidth, tx_seg1_idx) !=
 286:C:/Users/stapi/OneDrive/Desktop/GD32VW553/V1_MQTT_OK/GD32VW55X_Wifi_BLE_SDK/GD32VW55x_RELEASE_V1.0.2/MSDK/wpa_supplicant/src/ap\ieee802_11_shared.c **** 		    OCI_SUCCESS) {
 287:C:/Users/stapi/OneDrive/Desktop/GD32VW553/V1_MQTT_OK/GD32VW55X_Wifi_BLE_SDK/GD32VW55x_RELEASE_V1.0.2/MSDK/wpa_supplicant/src/ap\ieee802_11_shared.c **** 			wpa_msg(hapd->msg_ctx, MSG_INFO, OCV_FAILURE "addr="
 288:C:/Users/stapi/OneDrive/Desktop/GD32VW553/V1_MQTT_OK/GD32VW55X_Wifi_BLE_SDK/GD32VW55x_RELEASE_V1.0.2/MSDK/wpa_supplicant/src/ap\ieee802_11_shared.c **** 				MACSTR " frame=saquery%s error=%s",
 289:C:/Users/stapi/OneDrive/Desktop/GD32VW553/V1_MQTT_OK/GD32VW55X_Wifi_BLE_SDK/GD32VW55x_RELEASE_V1.0.2/MSDK/wpa_supplicant/src/ap\ieee802_11_shared.c **** 				MAC2STR(sa),
 290:C:/Users/stapi/OneDrive/Desktop/GD32VW553/V1_MQTT_OK/GD32VW55X_Wifi_BLE_SDK/GD32VW55x_RELEASE_V1.0.2/MSDK/wpa_supplicant/src/ap\ieee802_11_shared.c **** 				action_type == WLAN_SA_QUERY_REQUEST ?
 291:C:/Users/stapi/OneDrive/Desktop/GD32VW553/V1_MQTT_OK/GD32VW55X_Wifi_BLE_SDK/GD32VW55x_RELEASE_V1.0.2/MSDK/wpa_supplicant/src/ap\ieee802_11_shared.c **** 				"req" : "resp", ocv_errorstr);
 292:C:/Users/stapi/OneDrive/Desktop/GD32VW553/V1_MQTT_OK/GD32VW55X_Wifi_BLE_SDK/GD32VW55x_RELEASE_V1.0.2/MSDK/wpa_supplicant/src/ap\ieee802_11_shared.c **** 			return;
 293:C:/Users/stapi/OneDrive/Desktop/GD32VW553/V1_MQTT_OK/GD32VW55X_Wifi_BLE_SDK/GD32VW55x_RELEASE_V1.0.2/MSDK/wpa_supplicant/src/ap\ieee802_11_shared.c **** 		}
 294:C:/Users/stapi/OneDrive/Desktop/GD32VW553/V1_MQTT_OK/GD32VW55X_Wifi_BLE_SDK/GD32VW55x_RELEASE_V1.0.2/MSDK/wpa_supplicant/src/ap\ieee802_11_shared.c **** 	}
 295:C:/Users/stapi/OneDrive/Desktop/GD32VW553/V1_MQTT_OK/GD32VW55X_Wifi_BLE_SDK/GD32VW55x_RELEASE_V1.0.2/MSDK/wpa_supplicant/src/ap\ieee802_11_shared.c **** #endif /* CONFIG_OCV */
 296:C:/Users/stapi/OneDrive/Desktop/GD32VW553/V1_MQTT_OK/GD32VW55X_Wifi_BLE_SDK/GD32VW55x_RELEASE_V1.0.2/MSDK/wpa_supplicant/src/ap\ieee802_11_shared.c **** 
 297:C:/Users/stapi/OneDrive/Desktop/GD32VW553/V1_MQTT_OK/GD32VW55X_Wifi_BLE_SDK/GD32VW55x_RELEASE_V1.0.2/MSDK/wpa_supplicant/src/ap\ieee802_11_shared.c **** 	if (action_type == WLAN_SA_QUERY_REQUEST) {
 298:C:/Users/stapi/OneDrive/Desktop/GD32VW553/V1_MQTT_OK/GD32VW55X_Wifi_BLE_SDK/GD32VW55x_RELEASE_V1.0.2/MSDK/wpa_supplicant/src/ap\ieee802_11_shared.c **** 		if (sta)
 299:C:/Users/stapi/OneDrive/Desktop/GD32VW553/V1_MQTT_OK/GD32VW55X_Wifi_BLE_SDK/GD32VW55x_RELEASE_V1.0.2/MSDK/wpa_supplicant/src/ap\ieee802_11_shared.c **** 			sta->post_csa_sa_query = 0;
 300:C:/Users/stapi/OneDrive/Desktop/GD32VW553/V1_MQTT_OK/GD32VW55X_Wifi_BLE_SDK/GD32VW55x_RELEASE_V1.0.2/MSDK/wpa_supplicant/src/ap\ieee802_11_shared.c **** 		ieee802_11_send_sa_query_resp(hapd, sa, trans_id);
 301:C:/Users/stapi/OneDrive/Desktop/GD32VW553/V1_MQTT_OK/GD32VW55X_Wifi_BLE_SDK/GD32VW55x_RELEASE_V1.0.2/MSDK/wpa_supplicant/src/ap\ieee802_11_shared.c **** 		return;
 302:C:/Users/stapi/OneDrive/Desktop/GD32VW553/V1_MQTT_OK/GD32VW55X_Wifi_BLE_SDK/GD32VW55x_RELEASE_V1.0.2/MSDK/wpa_supplicant/src/ap\ieee802_11_shared.c **** 	}
 303:C:/Users/stapi/OneDrive/Desktop/GD32VW553/V1_MQTT_OK/GD32VW55X_Wifi_BLE_SDK/GD32VW55x_RELEASE_V1.0.2/MSDK/wpa_supplicant/src/ap\ieee802_11_shared.c **** 
 304:C:/Users/stapi/OneDrive/Desktop/GD32VW553/V1_MQTT_OK/GD32VW55X_Wifi_BLE_SDK/GD32VW55x_RELEASE_V1.0.2/MSDK/wpa_supplicant/src/ap\ieee802_11_shared.c **** 	if (action_type != WLAN_SA_QUERY_RESPONSE) {
 305:C:/Users/stapi/OneDrive/Desktop/GD32VW553/V1_MQTT_OK/GD32VW55X_Wifi_BLE_SDK/GD32VW55x_RELEASE_V1.0.2/MSDK/wpa_supplicant/src/ap\ieee802_11_shared.c **** 		wpa_printf(MSG_DEBUG, "IEEE 802.11: Unexpected SA Query "
 415              		.loc 1 305 3 is_stmt 0
 416 001e 0945     		li	a0,2
 417 0020 97000000 		call	wpa_printf
 417      E7800000 
 418              	.LVL42:
 306:C:/Users/stapi/OneDrive/Desktop/GD32VW553/V1_MQTT_OK/GD32VW55X_Wifi_BLE_SDK/GD32VW55x_RELEASE_V1.0.2/MSDK/wpa_supplicant/src/ap\ieee802_11_shared.c **** 			   "Action %d", action_type);
 307:C:/Users/stapi/OneDrive/Desktop/GD32VW553/V1_MQTT_OK/GD32VW55X_Wifi_BLE_SDK/GD32VW55x_RELEASE_V1.0.2/MSDK/wpa_supplicant/src/ap\ieee802_11_shared.c **** 		return;
 419              		.loc 1 307 3 is_stmt 1
 420 0028 A1A8     		j	.L13
 421              	.LVL43:
 422              	.L14:
 423              	.LBB44:
 424              	.LBB45:
 298:..\..\..\..\wpa_supplicant\src/utils/common.h **** }
 299:..\..\..\..\wpa_supplicant\src/utils/common.h **** 
 300:..\..\..\..\wpa_supplicant\src/utils/common.h **** static inline u64 WPA_GET_BE64(const u8 *a)
 301:..\..\..\..\wpa_supplicant\src/utils/common.h **** {
 302:..\..\..\..\wpa_supplicant\src/utils/common.h **** 	return (((u64) a[0]) << 56) | (((u64) a[1]) << 48) |
 303:..\..\..\..\wpa_supplicant\src/utils/common.h **** 		(((u64) a[2]) << 40) | (((u64) a[3]) << 32) |
 304:..\..\..\..\wpa_supplicant\src/utils/common.h **** 		(((u64) a[4]) << 24) | (((u64) a[5]) << 16) |
 305:..\..\..\..\wpa_supplicant\src/utils/common.h **** 		(((u64) a[6]) << 8) | ((u64) a[7]);
 306:..\..\..\..\wpa_supplicant\src/utils/common.h **** }
 307:..\..\..\..\wpa_supplicant\src/utils/common.h **** 
 308:..\..\..\..\wpa_supplicant\src/utils/common.h **** static inline void WPA_PUT_BE64(u8 *a, u64 val)
 309:..\..\..\..\wpa_supplicant\src/utils/common.h **** {
 310:..\..\..\..\wpa_supplicant\src/utils/common.h **** 	a[0] = val >> 56;
 311:..\..\..\..\wpa_supplicant\src/utils/common.h **** 	a[1] = val >> 48;
 312:..\..\..\..\wpa_supplicant\src/utils/common.h **** 	a[2] = val >> 40;
 313:..\..\..\..\wpa_supplicant\src/utils/common.h **** 	a[3] = val >> 32;
 314:..\..\..\..\wpa_supplicant\src/utils/common.h **** 	a[4] = val >> 24;
 315:..\..\..\..\wpa_supplicant\src/utils/common.h **** 	a[5] = val >> 16;
 316:..\..\..\..\wpa_supplicant\src/utils/common.h **** 	a[6] = val >> 8;
 317:..\..\..\..\wpa_supplicant\src/utils/common.h **** 	a[7] = val & 0xff;
 318:..\..\..\..\wpa_supplicant\src/utils/common.h **** }
 319:..\..\..\..\wpa_supplicant\src/utils/common.h **** 
 320:..\..\..\..\wpa_supplicant\src/utils/common.h **** static inline u64 WPA_GET_LE64(const u8 *a)
 321:..\..\..\..\wpa_supplicant\src/utils/common.h **** {
 322:..\..\..\..\wpa_supplicant\src/utils/common.h **** 	return (((u64) a[7]) << 56) | (((u64) a[6]) << 48) |
 323:..\..\..\..\wpa_supplicant\src/utils/common.h **** 		(((u64) a[5]) << 40) | (((u64) a[4]) << 32) |
 324:..\..\..\..\wpa_supplicant\src/utils/common.h **** 		(((u64) a[3]) << 24) | (((u64) a[2]) << 16) |
 325:..\..\..\..\wpa_supplicant\src/utils/common.h **** 		(((u64) a[1]) << 8) | ((u64) a[0]);
 326:..\..\..\..\wpa_supplicant\src/utils/common.h **** }
 327:..\..\..\..\wpa_supplicant\src/utils/common.h **** 
 328:..\..\..\..\wpa_supplicant\src/utils/common.h **** static inline void WPA_PUT_LE64(u8 *a, u64 val)
 329:..\..\..\..\wpa_supplicant\src/utils/common.h **** {
 330:..\..\..\..\wpa_supplicant\src/utils/common.h **** 	a[7] = val >> 56;
 331:..\..\..\..\wpa_supplicant\src/utils/common.h **** 	a[6] = val >> 48;
 332:..\..\..\..\wpa_supplicant\src/utils/common.h **** 	a[5] = val >> 40;
 333:..\..\..\..\wpa_supplicant\src/utils/common.h **** 	a[4] = val >> 32;
 334:..\..\..\..\wpa_supplicant\src/utils/common.h **** 	a[3] = val >> 24;
 335:..\..\..\..\wpa_supplicant\src/utils/common.h **** 	a[2] = val >> 16;
 336:..\..\..\..\wpa_supplicant\src/utils/common.h **** 	a[1] = val >> 8;
 337:..\..\..\..\wpa_supplicant\src/utils/common.h **** 	a[0] = val & 0xff;
 338:..\..\..\..\wpa_supplicant\src/utils/common.h **** }
 339:..\..\..\..\wpa_supplicant\src/utils/common.h **** 
 340:..\..\..\..\wpa_supplicant\src/utils/common.h **** 
 341:..\..\..\..\wpa_supplicant\src/utils/common.h **** #ifndef ETH_ALEN
 342:..\..\..\..\wpa_supplicant\src/utils/common.h **** #define ETH_ALEN 6
 343:..\..\..\..\wpa_supplicant\src/utils/common.h **** #endif
 344:..\..\..\..\wpa_supplicant\src/utils/common.h **** #ifndef ETH_HLEN
 345:..\..\..\..\wpa_supplicant\src/utils/common.h **** #define ETH_HLEN 14
 346:..\..\..\..\wpa_supplicant\src/utils/common.h **** #endif
 347:..\..\..\..\wpa_supplicant\src/utils/common.h **** #ifndef IFNAMSIZ
 348:..\..\..\..\wpa_supplicant\src/utils/common.h **** #define IFNAMSIZ 16
 349:..\..\..\..\wpa_supplicant\src/utils/common.h **** #endif
 350:..\..\..\..\wpa_supplicant\src/utils/common.h **** #ifndef ETH_P_ALL
 351:..\..\..\..\wpa_supplicant\src/utils/common.h **** #define ETH_P_ALL 0x0003
 352:..\..\..\..\wpa_supplicant\src/utils/common.h **** #endif
 353:..\..\..\..\wpa_supplicant\src/utils/common.h **** #ifndef ETH_P_IP
 354:..\..\..\..\wpa_supplicant\src/utils/common.h **** #define ETH_P_IP 0x0800
 355:..\..\..\..\wpa_supplicant\src/utils/common.h **** #endif
 356:..\..\..\..\wpa_supplicant\src/utils/common.h **** #ifndef ETH_P_80211_ENCAP
 357:..\..\..\..\wpa_supplicant\src/utils/common.h **** #define ETH_P_80211_ENCAP 0x890d /* TDLS comes under this category */
 358:..\..\..\..\wpa_supplicant\src/utils/common.h **** #endif
 359:..\..\..\..\wpa_supplicant\src/utils/common.h **** #ifndef ETH_P_PAE
 360:..\..\..\..\wpa_supplicant\src/utils/common.h **** #define ETH_P_PAE 0x888E /* Port Access Entity (IEEE 802.1X) */
 361:..\..\..\..\wpa_supplicant\src/utils/common.h **** #endif /* ETH_P_PAE */
 362:..\..\..\..\wpa_supplicant\src/utils/common.h **** #ifndef ETH_P_EAPOL
 363:..\..\..\..\wpa_supplicant\src/utils/common.h **** #define ETH_P_EAPOL ETH_P_PAE
 364:..\..\..\..\wpa_supplicant\src/utils/common.h **** #endif /* ETH_P_EAPOL */
 365:..\..\..\..\wpa_supplicant\src/utils/common.h **** #ifndef ETH_P_RSN_PREAUTH
 366:..\..\..\..\wpa_supplicant\src/utils/common.h **** #define ETH_P_RSN_PREAUTH 0x88c7
 367:..\..\..\..\wpa_supplicant\src/utils/common.h **** #endif /* ETH_P_RSN_PREAUTH */
 368:..\..\..\..\wpa_supplicant\src/utils/common.h **** #ifndef ETH_P_RRB
 369:..\..\..\..\wpa_supplicant\src/utils/common.h **** #define ETH_P_RRB 0x890D
 370:..\..\..\..\wpa_supplicant\src/utils/common.h **** #endif /* ETH_P_RRB */
 371:..\..\..\..\wpa_supplicant\src/utils/common.h **** #ifndef ETH_P_OUI
 372:..\..\..\..\wpa_supplicant\src/utils/common.h **** #define ETH_P_OUI 0x88B7
 373:..\..\..\..\wpa_supplicant\src/utils/common.h **** #endif /* ETH_P_OUI */
 374:..\..\..\..\wpa_supplicant\src/utils/common.h **** #ifndef ETH_P_8021Q
 375:..\..\..\..\wpa_supplicant\src/utils/common.h **** #define ETH_P_8021Q 0x8100
 376:..\..\..\..\wpa_supplicant\src/utils/common.h **** #endif /* ETH_P_8021Q */
 377:..\..\..\..\wpa_supplicant\src/utils/common.h **** 
 378:..\..\..\..\wpa_supplicant\src/utils/common.h **** #if defined(__CC_ARM)
 379:..\..\..\..\wpa_supplicant\src/utils/common.h **** #define PRINTF_FORMAT(a,b)
 380:..\..\..\..\wpa_supplicant\src/utils/common.h **** #define STRUCT_PACKED           __attribute__ ((packed))
 381:..\..\..\..\wpa_supplicant\src/utils/common.h **** #elif defined(__ICCARM__)
 382:..\..\..\..\wpa_supplicant\src/utils/common.h **** #define PRINTF_FORMAT(a,b)
 383:..\..\..\..\wpa_supplicant\src/utils/common.h **** #define STRUCT_PACKED           __attribute__((packed, aligned(1)))
 384:..\..\..\..\wpa_supplicant\src/utils/common.h **** #elif defined(__ARMCC_VERSION) && (__ARMCC_VERSION >= 6010050)
 385:..\..\..\..\wpa_supplicant\src/utils/common.h **** #define PRINTF_FORMAT(a,b)
 386:..\..\..\..\wpa_supplicant\src/utils/common.h **** #define STRUCT_PACKED           __attribute__((packed, aligned(1)))
 387:..\..\..\..\wpa_supplicant\src/utils/common.h **** #elif defined ( __GNUC__ )
 388:..\..\..\..\wpa_supplicant\src/utils/common.h **** #define PRINTF_FORMAT(a,b)      __attribute__ ((format (printf, (a), (b))))
 389:..\..\..\..\wpa_supplicant\src/utils/common.h **** #define STRUCT_PACKED           __attribute__ ((packed))
 390:..\..\..\..\wpa_supplicant\src/utils/common.h **** #else
 391:..\..\..\..\wpa_supplicant\src/utils/common.h **** #define PRINTF_FORMAT(a,b)
 392:..\..\..\..\wpa_supplicant\src/utils/common.h **** #define STRUCT_PACKED
 393:..\..\..\..\wpa_supplicant\src/utils/common.h **** #endif
 394:..\..\..\..\wpa_supplicant\src/utils/common.h **** 
 395:..\..\..\..\wpa_supplicant\src/utils/common.h **** 
 396:..\..\..\..\wpa_supplicant\src/utils/common.h **** #ifdef CONFIG_ANSI_C_EXTRA
 397:..\..\..\..\wpa_supplicant\src/utils/common.h **** 
 398:..\..\..\..\wpa_supplicant\src/utils/common.h **** #if !defined(_MSC_VER) || _MSC_VER < 1400
 399:..\..\..\..\wpa_supplicant\src/utils/common.h **** /* snprintf - used in number of places; sprintf() is _not_ a good replacement
 400:..\..\..\..\wpa_supplicant\src/utils/common.h ****  * due to possible buffer overflow; see, e.g.,
 401:..\..\..\..\wpa_supplicant\src/utils/common.h ****  * http://www.ijs.si/software/snprintf/ for portable implementation of
 402:..\..\..\..\wpa_supplicant\src/utils/common.h ****  * snprintf. */
 403:..\..\..\..\wpa_supplicant\src/utils/common.h **** int snprintf(char *str, size_t size, const char *format, ...);
 404:..\..\..\..\wpa_supplicant\src/utils/common.h **** 
 405:..\..\..\..\wpa_supplicant\src/utils/common.h **** /* vsnprintf - only used for wpa_msg() in wpa_supplicant.c */
 406:..\..\..\..\wpa_supplicant\src/utils/common.h **** int vsnprintf(char *str, size_t size, const char *format, va_list ap);
 407:..\..\..\..\wpa_supplicant\src/utils/common.h **** #endif /* !defined(_MSC_VER) || _MSC_VER < 1400 */
 408:..\..\..\..\wpa_supplicant\src/utils/common.h **** 
 409:..\..\..\..\wpa_supplicant\src/utils/common.h **** /* getopt - only used in main.c */
 410:..\..\..\..\wpa_supplicant\src/utils/common.h **** int getopt(int argc, char *const argv[], const char *optstring);
 411:..\..\..\..\wpa_supplicant\src/utils/common.h **** extern char *optarg;
 412:..\..\..\..\wpa_supplicant\src/utils/common.h **** extern int optind;
 413:..\..\..\..\wpa_supplicant\src/utils/common.h **** 
 414:..\..\..\..\wpa_supplicant\src/utils/common.h **** #ifndef CONFIG_NO_SOCKLEN_T_TYPEDEF
 415:..\..\..\..\wpa_supplicant\src/utils/common.h **** #ifndef __socklen_t_defined
 416:..\..\..\..\wpa_supplicant\src/utils/common.h **** typedef int socklen_t;
 417:..\..\..\..\wpa_supplicant\src/utils/common.h **** #endif
 418:..\..\..\..\wpa_supplicant\src/utils/common.h **** #endif
 419:..\..\..\..\wpa_supplicant\src/utils/common.h **** 
 420:..\..\..\..\wpa_supplicant\src/utils/common.h **** /* inline - define as __inline or just define it to be empty, if needed */
 421:..\..\..\..\wpa_supplicant\src/utils/common.h **** #ifdef CONFIG_NO_INLINE
 422:..\..\..\..\wpa_supplicant\src/utils/common.h **** #define inline
 423:..\..\..\..\wpa_supplicant\src/utils/common.h **** #else
 424:..\..\..\..\wpa_supplicant\src/utils/common.h **** #define inline __inline
 425:..\..\..\..\wpa_supplicant\src/utils/common.h **** #endif
 426:..\..\..\..\wpa_supplicant\src/utils/common.h **** 
 427:..\..\..\..\wpa_supplicant\src/utils/common.h **** #ifndef __func__
 428:..\..\..\..\wpa_supplicant\src/utils/common.h **** #define __func__ "__func__ not defined"
 429:..\..\..\..\wpa_supplicant\src/utils/common.h **** #endif
 430:..\..\..\..\wpa_supplicant\src/utils/common.h **** 
 431:..\..\..\..\wpa_supplicant\src/utils/common.h **** #ifndef bswap_16
 432:..\..\..\..\wpa_supplicant\src/utils/common.h **** #define bswap_16(a) ((((u16) (a) << 8) & 0xff00) | (((u16) (a) >> 8) & 0xff))
 433:..\..\..\..\wpa_supplicant\src/utils/common.h **** #endif
 434:..\..\..\..\wpa_supplicant\src/utils/common.h **** 
 435:..\..\..\..\wpa_supplicant\src/utils/common.h **** #ifndef bswap_32
 436:..\..\..\..\wpa_supplicant\src/utils/common.h **** #define bswap_32(a) ((((u32) (a) << 24) & 0xff000000) | \
 437:..\..\..\..\wpa_supplicant\src/utils/common.h **** 		     (((u32) (a) << 8) & 0xff0000) | \
 438:..\..\..\..\wpa_supplicant\src/utils/common.h ****      		     (((u32) (a) >> 8) & 0xff00) | \
 439:..\..\..\..\wpa_supplicant\src/utils/common.h ****      		     (((u32) (a) >> 24) & 0xff))
 440:..\..\..\..\wpa_supplicant\src/utils/common.h **** #endif
 441:..\..\..\..\wpa_supplicant\src/utils/common.h **** 
 442:..\..\..\..\wpa_supplicant\src/utils/common.h **** #ifndef MSG_DONTWAIT
 443:..\..\..\..\wpa_supplicant\src/utils/common.h **** #define MSG_DONTWAIT 0
 444:..\..\..\..\wpa_supplicant\src/utils/common.h **** #endif
 445:..\..\..\..\wpa_supplicant\src/utils/common.h **** 
 446:..\..\..\..\wpa_supplicant\src/utils/common.h **** #ifdef _WIN32_WCE
 447:..\..\..\..\wpa_supplicant\src/utils/common.h **** void perror(const char *s);
 448:..\..\..\..\wpa_supplicant\src/utils/common.h **** #endif /* _WIN32_WCE */
 449:..\..\..\..\wpa_supplicant\src/utils/common.h **** 
 450:..\..\..\..\wpa_supplicant\src/utils/common.h **** #endif /* CONFIG_ANSI_C_EXTRA */
 451:..\..\..\..\wpa_supplicant\src/utils/common.h **** 
 452:..\..\..\..\wpa_supplicant\src/utils/common.h **** #ifndef MAC2STR
 453:..\..\..\..\wpa_supplicant\src/utils/common.h **** #define MAC2STR(a) (a)[0], (a)[1], (a)[2], (a)[3], (a)[4], (a)[5]
 454:..\..\..\..\wpa_supplicant\src/utils/common.h **** #define MACSTR "%02x:%02x:%02x:%02x:%02x:%02x"
 455:..\..\..\..\wpa_supplicant\src/utils/common.h **** 
 456:..\..\..\..\wpa_supplicant\src/utils/common.h **** /*
 457:..\..\..\..\wpa_supplicant\src/utils/common.h ****  * Compact form for string representation of MAC address
 458:..\..\..\..\wpa_supplicant\src/utils/common.h ****  * To be used, e.g., for constructing dbus paths for P2P Devices
 459:..\..\..\..\wpa_supplicant\src/utils/common.h ****  */
 460:..\..\..\..\wpa_supplicant\src/utils/common.h **** #define COMPACT_MACSTR "%02x%02x%02x%02x%02x%02x"
 461:..\..\..\..\wpa_supplicant\src/utils/common.h **** #endif
 462:..\..\..\..\wpa_supplicant\src/utils/common.h **** 
 463:..\..\..\..\wpa_supplicant\src/utils/common.h **** #ifndef BIT
 464:..\..\..\..\wpa_supplicant\src/utils/common.h **** #define BIT(x) (1U << (x))
 465:..\..\..\..\wpa_supplicant\src/utils/common.h **** #endif
 466:..\..\..\..\wpa_supplicant\src/utils/common.h **** 
 467:..\..\..\..\wpa_supplicant\src/utils/common.h **** /*
 468:..\..\..\..\wpa_supplicant\src/utils/common.h ****  * Definitions for sparse validation
 469:..\..\..\..\wpa_supplicant\src/utils/common.h ****  * (http://kernel.org/pub/linux/kernel/people/josh/sparse/)
 470:..\..\..\..\wpa_supplicant\src/utils/common.h ****  */
 471:..\..\..\..\wpa_supplicant\src/utils/common.h **** #ifdef __CHECKER__
 472:..\..\..\..\wpa_supplicant\src/utils/common.h **** #define __force __attribute__((force))
 473:..\..\..\..\wpa_supplicant\src/utils/common.h **** #undef __bitwise
 474:..\..\..\..\wpa_supplicant\src/utils/common.h **** #define __bitwise __attribute__((bitwise))
 475:..\..\..\..\wpa_supplicant\src/utils/common.h **** #else
 476:..\..\..\..\wpa_supplicant\src/utils/common.h **** #define __force
 477:..\..\..\..\wpa_supplicant\src/utils/common.h **** #undef __bitwise
 478:..\..\..\..\wpa_supplicant\src/utils/common.h **** #define __bitwise
 479:..\..\..\..\wpa_supplicant\src/utils/common.h **** #endif
 480:..\..\..\..\wpa_supplicant\src/utils/common.h **** 
 481:..\..\..\..\wpa_supplicant\src/utils/common.h **** typedef u16 __bitwise be16;
 482:..\..\..\..\wpa_supplicant\src/utils/common.h **** typedef u16 __bitwise le16;
 483:..\..\..\..\wpa_supplicant\src/utils/common.h **** typedef u32 __bitwise be32;
 484:..\..\..\..\wpa_supplicant\src/utils/common.h **** typedef u32 __bitwise le32;
 485:..\..\..\..\wpa_supplicant\src/utils/common.h **** typedef u64 __bitwise be64;
 486:..\..\..\..\wpa_supplicant\src/utils/common.h **** typedef u64 __bitwise le64;
 487:..\..\..\..\wpa_supplicant\src/utils/common.h **** 
 488:..\..\..\..\wpa_supplicant\src/utils/common.h **** #ifndef __must_check
 489:..\..\..\..\wpa_supplicant\src/utils/common.h **** #if __GNUC__ > 3 || (__GNUC__ == 3 && __GNUC_MINOR__ >= 4)
 490:..\..\..\..\wpa_supplicant\src/utils/common.h **** #define __must_check __attribute__((__warn_unused_result__))
 491:..\..\..\..\wpa_supplicant\src/utils/common.h **** #else
 492:..\..\..\..\wpa_supplicant\src/utils/common.h **** #define __must_check
 493:..\..\..\..\wpa_supplicant\src/utils/common.h **** #endif /* __GNUC__ */
 494:..\..\..\..\wpa_supplicant\src/utils/common.h **** #endif /* __must_check */
 495:..\..\..\..\wpa_supplicant\src/utils/common.h **** 
 496:..\..\..\..\wpa_supplicant\src/utils/common.h **** #ifndef __maybe_unused
 497:..\..\..\..\wpa_supplicant\src/utils/common.h **** #if __GNUC__ > 3 || (__GNUC__ == 3 && __GNUC_MINOR__ >= 4)
 498:..\..\..\..\wpa_supplicant\src/utils/common.h **** #define __maybe_unused __attribute__((unused))
 499:..\..\..\..\wpa_supplicant\src/utils/common.h **** #else
 500:..\..\..\..\wpa_supplicant\src/utils/common.h **** #define __maybe_unused
 501:..\..\..\..\wpa_supplicant\src/utils/common.h **** #endif /* __GNUC__ */
 502:..\..\..\..\wpa_supplicant\src/utils/common.h **** #endif /* __must_check */
 503:..\..\..\..\wpa_supplicant\src/utils/common.h **** 
 504:..\..\..\..\wpa_supplicant\src/utils/common.h **** #define SSID_MAX_LEN 32
 505:..\..\..\..\wpa_supplicant\src/utils/common.h **** 
 506:..\..\..\..\wpa_supplicant\src/utils/common.h **** struct wpa_ssid_value {
 507:..\..\..\..\wpa_supplicant\src/utils/common.h **** 	u8 ssid[SSID_MAX_LEN];
 508:..\..\..\..\wpa_supplicant\src/utils/common.h **** 	size_t ssid_len;
 509:..\..\..\..\wpa_supplicant\src/utils/common.h **** };
 510:..\..\..\..\wpa_supplicant\src/utils/common.h **** 
 511:..\..\..\..\wpa_supplicant\src/utils/common.h **** int hwaddr_aton(const char *txt, u8 *addr);
 512:..\..\..\..\wpa_supplicant\src/utils/common.h **** int hwaddr_masked_aton(const char *txt, u8 *addr, u8 *mask, u8 maskable);
 513:..\..\..\..\wpa_supplicant\src/utils/common.h **** int hwaddr_compact_aton(const char *txt, u8 *addr);
 514:..\..\..\..\wpa_supplicant\src/utils/common.h **** int hwaddr_aton2(const char *txt, u8 *addr);
 515:..\..\..\..\wpa_supplicant\src/utils/common.h **** int hex2byte(const char *hex);
 516:..\..\..\..\wpa_supplicant\src/utils/common.h **** int hexstr2bin(const char *hex, u8 *buf, size_t len);
 517:..\..\..\..\wpa_supplicant\src/utils/common.h **** void inc_byte_array(u8 *counter, size_t len);
 518:..\..\..\..\wpa_supplicant\src/utils/common.h **** void buf_shift_right(u8 *buf, size_t len, size_t bits);
 519:..\..\..\..\wpa_supplicant\src/utils/common.h **** void wpa_get_ntp_timestamp(u8 *buf);
 520:..\..\..\..\wpa_supplicant\src/utils/common.h **** int wpa_scnprintf(char *buf, size_t size, const char *fmt, ...)
 521:..\..\..\..\wpa_supplicant\src/utils/common.h **** 	PRINTF_FORMAT(3, 4);
 522:..\..\..\..\wpa_supplicant\src/utils/common.h **** int wpa_snprintf_hex_sep(char *buf, size_t buf_size, const u8 *data, size_t len,
 523:..\..\..\..\wpa_supplicant\src/utils/common.h **** 			 char sep);
 524:..\..\..\..\wpa_supplicant\src/utils/common.h **** int wpa_snprintf_hex(char *buf, size_t buf_size, const u8 *data, size_t len);
 525:..\..\..\..\wpa_supplicant\src/utils/common.h **** int wpa_snprintf_hex_uppercase(char *buf, size_t buf_size, const u8 *data,
 526:..\..\..\..\wpa_supplicant\src/utils/common.h **** 			       size_t len);
 527:..\..\..\..\wpa_supplicant\src/utils/common.h **** 
 528:..\..\..\..\wpa_supplicant\src/utils/common.h **** int hwaddr_mask_txt(char *buf, size_t len, const u8 *addr, const u8 *mask);
 529:..\..\..\..\wpa_supplicant\src/utils/common.h **** int ssid_parse(const char *buf, struct wpa_ssid_value *ssid);
 530:..\..\..\..\wpa_supplicant\src/utils/common.h **** 
 531:..\..\..\..\wpa_supplicant\src/utils/common.h **** #ifdef CONFIG_NATIVE_WINDOWS
 532:..\..\..\..\wpa_supplicant\src/utils/common.h **** void wpa_unicode2ascii_inplace(TCHAR *str);
 533:..\..\..\..\wpa_supplicant\src/utils/common.h **** TCHAR * wpa_strdup_tchar(const char *str);
 534:..\..\..\..\wpa_supplicant\src/utils/common.h **** #else /* CONFIG_NATIVE_WINDOWS */
 535:..\..\..\..\wpa_supplicant\src/utils/common.h **** #define wpa_unicode2ascii_inplace(s) do { } while (0)
 536:..\..\..\..\wpa_supplicant\src/utils/common.h **** #define wpa_strdup_tchar(s) strdup((s))
 537:..\..\..\..\wpa_supplicant\src/utils/common.h **** #endif /* CONFIG_NATIVE_WINDOWS */
 538:..\..\..\..\wpa_supplicant\src/utils/common.h **** 
 539:..\..\..\..\wpa_supplicant\src/utils/common.h **** void printf_encode(char *txt, size_t maxlen, const u8 *data, size_t len);
 540:..\..\..\..\wpa_supplicant\src/utils/common.h **** size_t printf_decode(u8 *buf, size_t maxlen, const char *str);
 541:..\..\..\..\wpa_supplicant\src/utils/common.h **** 
 542:..\..\..\..\wpa_supplicant\src/utils/common.h **** const char * wpa_ssid_txt(const u8 *ssid, size_t ssid_len);
 543:..\..\..\..\wpa_supplicant\src/utils/common.h **** 
 544:..\..\..\..\wpa_supplicant\src/utils/common.h **** char * wpa_config_parse_string(const char *value, size_t *len);
 545:..\..\..\..\wpa_supplicant\src/utils/common.h **** int is_hex(const u8 *data, size_t len);
 546:..\..\..\..\wpa_supplicant\src/utils/common.h **** int has_ctrl_char(const u8 *data, size_t len);
 547:..\..\..\..\wpa_supplicant\src/utils/common.h **** int has_newline(const char *str);
 548:..\..\..\..\wpa_supplicant\src/utils/common.h **** size_t merge_byte_arrays(u8 *res, size_t res_len,
 549:..\..\..\..\wpa_supplicant\src/utils/common.h **** 			 const u8 *src1, size_t src1_len,
 550:..\..\..\..\wpa_supplicant\src/utils/common.h **** 			 const u8 *src2, size_t src2_len);
 551:..\..\..\..\wpa_supplicant\src/utils/common.h **** char * dup_binstr(const void *src, size_t len);
 552:..\..\..\..\wpa_supplicant\src/utils/common.h **** 
 553:..\..\..\..\wpa_supplicant\src/utils/common.h **** static inline int is_zero_ether_addr(const u8 *a)
 554:..\..\..\..\wpa_supplicant\src/utils/common.h **** {
 555:..\..\..\..\wpa_supplicant\src/utils/common.h **** 	return !(a[0] | a[1] | a[2] | a[3] | a[4] | a[5]);
 556:..\..\..\..\wpa_supplicant\src/utils/common.h **** }
 557:..\..\..\..\wpa_supplicant\src/utils/common.h **** 
 558:..\..\..\..\wpa_supplicant\src/utils/common.h **** static inline int is_broadcast_ether_addr(const u8 *a)
 559:..\..\..\..\wpa_supplicant\src/utils/common.h **** {
 560:..\..\..\..\wpa_supplicant\src/utils/common.h **** 	return (a[0] & a[1] & a[2] & a[3] & a[4] & a[5]) == 0xff;
 561:..\..\..\..\wpa_supplicant\src/utils/common.h **** }
 562:..\..\..\..\wpa_supplicant\src/utils/common.h **** 
 563:..\..\..\..\wpa_supplicant\src/utils/common.h **** static inline int is_multicast_ether_addr(const u8 *a)
 564:..\..\..\..\wpa_supplicant\src/utils/common.h **** {
 565:..\..\..\..\wpa_supplicant\src/utils/common.h **** 	return a[0] & 0x01;
 425              		.loc 3 565 10 is_stmt 0
 426 002a 03C64500 		lbu	a2,4(a1)
 427              	.LVL44:
 428 002e 2E84     		mv	s0,a1
 429              	.LBE45:
 430              	.LBE44:
 245:C:/Users/stapi/OneDrive/Desktop/GD32VW553/V1_MQTT_OK/GD32VW55X_Wifi_BLE_SDK/GD32VW55x_RELEASE_V1.0.2/MSDK/wpa_supplicant/src/ap\ieee802_11_shared.c **** 		wpa_printf(MSG_DEBUG,
 431              		.loc 1 245 2 is_stmt 1
 432              	.LVL45:
 433              	.LBB47:
 434              	.LBB46:
 435              		.loc 3 565 2
 436              	.LBE46:
 437              	.LBE47:
 245:C:/Users/stapi/OneDrive/Desktop/GD32VW553/V1_MQTT_OK/GD32VW55X_Wifi_BLE_SDK/GD32VW55x_RELEASE_V1.0.2/MSDK/wpa_supplicant/src/ap\ieee802_11_shared.c **** 		wpa_printf(MSG_DEBUG,
 438              		.loc 1 245 5 is_stmt 0
 439 0030 93771600 		andi	a5,a2,1
 440 0034 B9CB     		beq	a5,zero,.L16
 441              	.LVL46:
 246:C:/Users/stapi/OneDrive/Desktop/GD32VW553/V1_MQTT_OK/GD32VW55X_Wifi_BLE_SDK/GD32VW55x_RELEASE_V1.0.2/MSDK/wpa_supplicant/src/ap\ieee802_11_shared.c **** 			   "IEEE 802.11: Ignore group-addressed SA Query frame (A1=" MACSTR " A2=" MACSTR ")",
 442              		.loc 1 246 3 is_stmt 1
 443 0036 83C7F500 		lbu	a5,15(a1)
 444 003a 0945     		li	a0,2
 445              	.LVL47:
 446 003c 3ECA     		sw	a5,20(sp)
 447              	.LVL48:
 448 003e 83C7E500 		lbu	a5,14(a1)
 449 0042 3EC8     		sw	a5,16(sp)
 450 0044 83C7D500 		lbu	a5,13(a1)
 451 0048 3EC6     		sw	a5,12(sp)
 452 004a 83C7C500 		lbu	a5,12(a1)
 453 004e 3EC4     		sw	a5,8(sp)
 454 0050 83C7B500 		lbu	a5,11(a1)
 455 0054 3EC2     		sw	a5,4(sp)
 456 0056 83C7A500 		lbu	a5,10(a1)
 457 005a 3EC0     		sw	a5,0(sp)
 458 005c 83C89500 		lbu	a7,9(a1)
 459 0060 03C88500 		lbu	a6,8(a1)
 460 0064 83C77500 		lbu	a5,7(a1)
 461 0068 03C76500 		lbu	a4,6(a1)
 462 006c 83C65500 		lbu	a3,5(a1)
 463 0070 B7050000 		lui	a1,%hi(.LC5)
 464 0074 93850500 		addi	a1,a1,%lo(.LC5)
 465 0078 97000000 		call	wpa_printf
 465      E7800000 
 466              	.LVL49:
 249:C:/Users/stapi/OneDrive/Desktop/GD32VW553/V1_MQTT_OK/GD32VW55X_Wifi_BLE_SDK/GD32VW55x_RELEASE_V1.0.2/MSDK/wpa_supplicant/src/ap\ieee802_11_shared.c **** 	}
 467              		.loc 1 249 3
 468              	.L13:
 308:C:/Users/stapi/OneDrive/Desktop/GD32VW553/V1_MQTT_OK/GD32VW55X_Wifi_BLE_SDK/GD32VW55x_RELEASE_V1.0.2/MSDK/wpa_supplicant/src/ap\ieee802_11_shared.c **** 	}
 309:C:/Users/stapi/OneDrive/Desktop/GD32VW553/V1_MQTT_OK/GD32VW55X_Wifi_BLE_SDK/GD32VW55x_RELEASE_V1.0.2/MSDK/wpa_supplicant/src/ap\ieee802_11_shared.c **** 
 310:C:/Users/stapi/OneDrive/Desktop/GD32VW553/V1_MQTT_OK/GD32VW55X_Wifi_BLE_SDK/GD32VW55x_RELEASE_V1.0.2/MSDK/wpa_supplicant/src/ap\ieee802_11_shared.c **** 	wpa_printf(MSG_DEBUG, "IEEE 802.11: Received SA Query Response from "
 311:C:/Users/stapi/OneDrive/Desktop/GD32VW553/V1_MQTT_OK/GD32VW55X_Wifi_BLE_SDK/GD32VW55x_RELEASE_V1.0.2/MSDK/wpa_supplicant/src/ap\ieee802_11_shared.c **** 		   MACSTR, MAC2STR(sa));
 312:C:/Users/stapi/OneDrive/Desktop/GD32VW553/V1_MQTT_OK/GD32VW55X_Wifi_BLE_SDK/GD32VW55x_RELEASE_V1.0.2/MSDK/wpa_supplicant/src/ap\ieee802_11_shared.c **** 	wpa_hexdump(MSG_DEBUG, "IEEE 802.11: SA Query Transaction ID",
 313:C:/Users/stapi/OneDrive/Desktop/GD32VW553/V1_MQTT_OK/GD32VW55X_Wifi_BLE_SDK/GD32VW55x_RELEASE_V1.0.2/MSDK/wpa_supplicant/src/ap\ieee802_11_shared.c **** 		    trans_id, WLAN_SA_QUERY_TR_ID_LEN);
 314:C:/Users/stapi/OneDrive/Desktop/GD32VW553/V1_MQTT_OK/GD32VW55X_Wifi_BLE_SDK/GD32VW55x_RELEASE_V1.0.2/MSDK/wpa_supplicant/src/ap\ieee802_11_shared.c **** 
 315:C:/Users/stapi/OneDrive/Desktop/GD32VW553/V1_MQTT_OK/GD32VW55X_Wifi_BLE_SDK/GD32VW55x_RELEASE_V1.0.2/MSDK/wpa_supplicant/src/ap\ieee802_11_shared.c **** 	/* MLME-SAQuery.confirm */
 316:C:/Users/stapi/OneDrive/Desktop/GD32VW553/V1_MQTT_OK/GD32VW55X_Wifi_BLE_SDK/GD32VW55x_RELEASE_V1.0.2/MSDK/wpa_supplicant/src/ap\ieee802_11_shared.c **** 
 317:C:/Users/stapi/OneDrive/Desktop/GD32VW553/V1_MQTT_OK/GD32VW55X_Wifi_BLE_SDK/GD32VW55x_RELEASE_V1.0.2/MSDK/wpa_supplicant/src/ap\ieee802_11_shared.c **** 	if (sta == NULL || sta->sa_query_trans_id == NULL) {
 318:C:/Users/stapi/OneDrive/Desktop/GD32VW553/V1_MQTT_OK/GD32VW55X_Wifi_BLE_SDK/GD32VW55x_RELEASE_V1.0.2/MSDK/wpa_supplicant/src/ap\ieee802_11_shared.c **** 		wpa_printf(MSG_DEBUG, "IEEE 802.11: No matching STA with "
 319:C:/Users/stapi/OneDrive/Desktop/GD32VW553/V1_MQTT_OK/GD32VW55X_Wifi_BLE_SDK/GD32VW55x_RELEASE_V1.0.2/MSDK/wpa_supplicant/src/ap\ieee802_11_shared.c **** 			   "pending SA Query request found");
 320:C:/Users/stapi/OneDrive/Desktop/GD32VW553/V1_MQTT_OK/GD32VW55X_Wifi_BLE_SDK/GD32VW55x_RELEASE_V1.0.2/MSDK/wpa_supplicant/src/ap\ieee802_11_shared.c **** 		return;
 321:C:/Users/stapi/OneDrive/Desktop/GD32VW553/V1_MQTT_OK/GD32VW55X_Wifi_BLE_SDK/GD32VW55x_RELEASE_V1.0.2/MSDK/wpa_supplicant/src/ap\ieee802_11_shared.c **** 	}
 322:C:/Users/stapi/OneDrive/Desktop/GD32VW553/V1_MQTT_OK/GD32VW55X_Wifi_BLE_SDK/GD32VW55x_RELEASE_V1.0.2/MSDK/wpa_supplicant/src/ap\ieee802_11_shared.c **** 
 323:C:/Users/stapi/OneDrive/Desktop/GD32VW553/V1_MQTT_OK/GD32VW55X_Wifi_BLE_SDK/GD32VW55x_RELEASE_V1.0.2/MSDK/wpa_supplicant/src/ap\ieee802_11_shared.c **** 	for (i = 0; i < sta->sa_query_count; i++) {
 324:C:/Users/stapi/OneDrive/Desktop/GD32VW553/V1_MQTT_OK/GD32VW55X_Wifi_BLE_SDK/GD32VW55x_RELEASE_V1.0.2/MSDK/wpa_supplicant/src/ap\ieee802_11_shared.c **** 		if (os_memcmp(sta->sa_query_trans_id +
 325:C:/Users/stapi/OneDrive/Desktop/GD32VW553/V1_MQTT_OK/GD32VW55X_Wifi_BLE_SDK/GD32VW55x_RELEASE_V1.0.2/MSDK/wpa_supplicant/src/ap\ieee802_11_shared.c **** 			      i * WLAN_SA_QUERY_TR_ID_LEN,
 326:C:/Users/stapi/OneDrive/Desktop/GD32VW553/V1_MQTT_OK/GD32VW55X_Wifi_BLE_SDK/GD32VW55x_RELEASE_V1.0.2/MSDK/wpa_supplicant/src/ap\ieee802_11_shared.c **** 			      trans_id, WLAN_SA_QUERY_TR_ID_LEN) == 0)
 327:C:/Users/stapi/OneDrive/Desktop/GD32VW553/V1_MQTT_OK/GD32VW55X_Wifi_BLE_SDK/GD32VW55x_RELEASE_V1.0.2/MSDK/wpa_supplicant/src/ap\ieee802_11_shared.c **** 			break;
 328:C:/Users/stapi/OneDrive/Desktop/GD32VW553/V1_MQTT_OK/GD32VW55X_Wifi_BLE_SDK/GD32VW55x_RELEASE_V1.0.2/MSDK/wpa_supplicant/src/ap\ieee802_11_shared.c **** 	}
 329:C:/Users/stapi/OneDrive/Desktop/GD32VW553/V1_MQTT_OK/GD32VW55X_Wifi_BLE_SDK/GD32VW55x_RELEASE_V1.0.2/MSDK/wpa_supplicant/src/ap\ieee802_11_shared.c **** 
 330:C:/Users/stapi/OneDrive/Desktop/GD32VW553/V1_MQTT_OK/GD32VW55X_Wifi_BLE_SDK/GD32VW55x_RELEASE_V1.0.2/MSDK/wpa_supplicant/src/ap\ieee802_11_shared.c **** 	if (i >= sta->sa_query_count) {
 331:C:/Users/stapi/OneDrive/Desktop/GD32VW553/V1_MQTT_OK/GD32VW55X_Wifi_BLE_SDK/GD32VW55x_RELEASE_V1.0.2/MSDK/wpa_supplicant/src/ap\ieee802_11_shared.c **** 		wpa_printf(MSG_DEBUG, "IEEE 802.11: No matching SA Query "
 332:C:/Users/stapi/OneDrive/Desktop/GD32VW553/V1_MQTT_OK/GD32VW55X_Wifi_BLE_SDK/GD32VW55x_RELEASE_V1.0.2/MSDK/wpa_supplicant/src/ap\ieee802_11_shared.c **** 			   "transaction identifier found");
 333:C:/Users/stapi/OneDrive/Desktop/GD32VW553/V1_MQTT_OK/GD32VW55X_Wifi_BLE_SDK/GD32VW55x_RELEASE_V1.0.2/MSDK/wpa_supplicant/src/ap\ieee802_11_shared.c **** 		return;
 334:C:/Users/stapi/OneDrive/Desktop/GD32VW553/V1_MQTT_OK/GD32VW55X_Wifi_BLE_SDK/GD32VW55x_RELEASE_V1.0.2/MSDK/wpa_supplicant/src/ap\ieee802_11_shared.c **** 	}
 335:C:/Users/stapi/OneDrive/Desktop/GD32VW553/V1_MQTT_OK/GD32VW55X_Wifi_BLE_SDK/GD32VW55x_RELEASE_V1.0.2/MSDK/wpa_supplicant/src/ap\ieee802_11_shared.c **** 
 336:C:/Users/stapi/OneDrive/Desktop/GD32VW553/V1_MQTT_OK/GD32VW55X_Wifi_BLE_SDK/GD32VW55x_RELEASE_V1.0.2/MSDK/wpa_supplicant/src/ap\ieee802_11_shared.c **** 	hostapd_logger(hapd, sta->addr, HOSTAPD_MODULE_IEEE80211,
 337:C:/Users/stapi/OneDrive/Desktop/GD32VW553/V1_MQTT_OK/GD32VW55X_Wifi_BLE_SDK/GD32VW55x_RELEASE_V1.0.2/MSDK/wpa_supplicant/src/ap\ieee802_11_shared.c **** 		       HOSTAPD_LEVEL_DEBUG,
 338:C:/Users/stapi/OneDrive/Desktop/GD32VW553/V1_MQTT_OK/GD32VW55X_Wifi_BLE_SDK/GD32VW55x_RELEASE_V1.0.2/MSDK/wpa_supplicant/src/ap\ieee802_11_shared.c **** 		       "Reply to pending SA Query received");
 339:C:/Users/stapi/OneDrive/Desktop/GD32VW553/V1_MQTT_OK/GD32VW55X_Wifi_BLE_SDK/GD32VW55x_RELEASE_V1.0.2/MSDK/wpa_supplicant/src/ap\ieee802_11_shared.c **** 	ap_sta_stop_sa_query(hapd, sta);
 340:C:/Users/stapi/OneDrive/Desktop/GD32VW553/V1_MQTT_OK/GD32VW55X_Wifi_BLE_SDK/GD32VW55x_RELEASE_V1.0.2/MSDK/wpa_supplicant/src/ap\ieee802_11_shared.c **** }
 469              		.loc 1 340 1 is_stmt 0
 470 0080 4561     		addi	sp,sp,48
 471              		.cfi_remember_state
 472              		.cfi_def_cfa_offset 0
 473 0082 17030000 		tail	__riscv_restore_5
 473      67000300 
 474              		.cfi_restore 20
 475              		.cfi_restore 19
 476              		.cfi_restore 18
 477              		.cfi_restore 9
 478              		.cfi_restore 8
 479              		.cfi_restore 1
 480              		.cfi_def_cfa_offset -32
 481              	.LVL50:
 482              	.L16:
 483              		.cfi_restore_state
 235:C:/Users/stapi/OneDrive/Desktop/GD32VW553/V1_MQTT_OK/GD32VW55X_Wifi_BLE_SDK/GD32VW55x_RELEASE_V1.0.2/MSDK/wpa_supplicant/src/ap\ieee802_11_shared.c **** 	const u8 *trans_id = mgmt->u.action.u.sa_query_resp.trans_id;
 484              		.loc 1 235 11
 485 008a 03C69501 		lbu	a2,25(a1)
 234:C:/Users/stapi/OneDrive/Desktop/GD32VW553/V1_MQTT_OK/GD32VW55X_Wifi_BLE_SDK/GD32VW55x_RELEASE_V1.0.2/MSDK/wpa_supplicant/src/ap\ieee802_11_shared.c **** 	const u8 action_type = mgmt->u.action.u.sa_query_resp.action;
 486              		.loc 1 234 12
 487 008e 138AA500 		addi	s4,a1,10
 236:C:/Users/stapi/OneDrive/Desktop/GD32VW553/V1_MQTT_OK/GD32VW55X_Wifi_BLE_SDK/GD32VW55x_RELEASE_V1.0.2/MSDK/wpa_supplicant/src/ap\ieee802_11_shared.c **** 
 488              		.loc 1 236 12
 489 0092 9389A501 		addi	s3,a1,26
 252:C:/Users/stapi/OneDrive/Desktop/GD32VW553/V1_MQTT_OK/GD32VW55X_Wifi_BLE_SDK/GD32VW55x_RELEASE_V1.0.2/MSDK/wpa_supplicant/src/ap\ieee802_11_shared.c **** 
 490              		.loc 1 252 2 is_stmt 1
 252:C:/Users/stapi/OneDrive/Desktop/GD32VW553/V1_MQTT_OK/GD32VW55X_Wifi_BLE_SDK/GD32VW55x_RELEASE_V1.0.2/MSDK/wpa_supplicant/src/ap\ieee802_11_shared.c **** 
 491              		.loc 1 252 8 is_stmt 0
 492 0096 D285     		mv	a1,s4
 235:C:/Users/stapi/OneDrive/Desktop/GD32VW553/V1_MQTT_OK/GD32VW55X_Wifi_BLE_SDK/GD32VW55x_RELEASE_V1.0.2/MSDK/wpa_supplicant/src/ap\ieee802_11_shared.c **** 	const u8 *trans_id = mgmt->u.action.u.sa_query_resp.trans_id;
 493              		.loc 1 235 11
 494 0098 32D6     		sw	a2,44(sp)
 495 009a 2A89     		mv	s2,a0
 252:C:/Users/stapi/OneDrive/Desktop/GD32VW553/V1_MQTT_OK/GD32VW55X_Wifi_BLE_SDK/GD32VW55x_RELEASE_V1.0.2/MSDK/wpa_supplicant/src/ap\ieee802_11_shared.c **** 
 496              		.loc 1 252 8
 497 009c 97000000 		call	ap_get_sta
 497      E7800000 
 498              	.LVL51:
 297:C:/Users/stapi/OneDrive/Desktop/GD32VW553/V1_MQTT_OK/GD32VW55X_Wifi_BLE_SDK/GD32VW55x_RELEASE_V1.0.2/MSDK/wpa_supplicant/src/ap\ieee802_11_shared.c **** 		if (sta)
 499              		.loc 1 297 5
 500 00a4 3256     		lw	a2,44(sp)
 252:C:/Users/stapi/OneDrive/Desktop/GD32VW553/V1_MQTT_OK/GD32VW55X_Wifi_BLE_SDK/GD32VW55x_RELEASE_V1.0.2/MSDK/wpa_supplicant/src/ap\ieee802_11_shared.c **** 
 501              		.loc 1 252 8
 502 00a6 AA84     		mv	s1,a0
 503              	.LVL52:
 297:C:/Users/stapi/OneDrive/Desktop/GD32VW553/V1_MQTT_OK/GD32VW55X_Wifi_BLE_SDK/GD32VW55x_RELEASE_V1.0.2/MSDK/wpa_supplicant/src/ap\ieee802_11_shared.c **** 		if (sta)
 504              		.loc 1 297 2 is_stmt 1
 297:C:/Users/stapi/OneDrive/Desktop/GD32VW553/V1_MQTT_OK/GD32VW55X_Wifi_BLE_SDK/GD32VW55x_RELEASE_V1.0.2/MSDK/wpa_supplicant/src/ap\ieee802_11_shared.c **** 		if (sta)
 505              		.loc 1 297 5 is_stmt 0
 506 00a8 631F0616 		bne	a2,zero,.L17
 298:C:/Users/stapi/OneDrive/Desktop/GD32VW553/V1_MQTT_OK/GD32VW55X_Wifi_BLE_SDK/GD32VW55x_RELEASE_V1.0.2/MSDK/wpa_supplicant/src/ap\ieee802_11_shared.c **** 			sta->post_csa_sa_query = 0;
 507              		.loc 1 298 3 is_stmt 1
 298:C:/Users/stapi/OneDrive/Desktop/GD32VW553/V1_MQTT_OK/GD32VW55X_Wifi_BLE_SDK/GD32VW55x_RELEASE_V1.0.2/MSDK/wpa_supplicant/src/ap\ieee802_11_shared.c **** 			sta->post_csa_sa_query = 0;
 508              		.loc 1 298 6 is_stmt 0
 509 00ac 19C5     		beq	a0,zero,.L18
 299:C:/Users/stapi/OneDrive/Desktop/GD32VW553/V1_MQTT_OK/GD32VW55X_Wifi_BLE_SDK/GD32VW55x_RELEASE_V1.0.2/MSDK/wpa_supplicant/src/ap\ieee802_11_shared.c **** 		ieee802_11_send_sa_query_resp(hapd, sa, trans_id);
 510              		.loc 1 299 4 is_stmt 1
 299:C:/Users/stapi/OneDrive/Desktop/GD32VW553/V1_MQTT_OK/GD32VW55X_Wifi_BLE_SDK/GD32VW55x_RELEASE_V1.0.2/MSDK/wpa_supplicant/src/ap\ieee802_11_shared.c **** 		ieee802_11_send_sa_query_resp(hapd, sa, trans_id);
 511              		.loc 1 299 27 is_stmt 0
 512 00ae 8347F504 		lbu	a5,79(a0)
 513 00b2 93F7F7FD 		andi	a5,a5,-33
 514 00b6 A307F504 		sb	a5,79(a0)
 515              	.L18:
 300:C:/Users/stapi/OneDrive/Desktop/GD32VW553/V1_MQTT_OK/GD32VW55X_Wifi_BLE_SDK/GD32VW55x_RELEASE_V1.0.2/MSDK/wpa_supplicant/src/ap\ieee802_11_shared.c **** 		return;
 516              		.loc 1 300 3 is_stmt 1
 517              	.LVL53:
 518              	.LBB48:
 519              	.LBB49:
 139:C:/Users/stapi/OneDrive/Desktop/GD32VW553/V1_MQTT_OK/GD32VW55X_Wifi_BLE_SDK/GD32VW55x_RELEASE_V1.0.2/MSDK/wpa_supplicant/src/ap\ieee802_11_shared.c **** 	struct ieee80211_mgmt *resp;
 520              		.loc 1 139 2
 140:C:/Users/stapi/OneDrive/Desktop/GD32VW553/V1_MQTT_OK/GD32VW55X_Wifi_BLE_SDK/GD32VW55x_RELEASE_V1.0.2/MSDK/wpa_supplicant/src/ap\ieee802_11_shared.c **** 	u8 *oci_ie = NULL;
 521              		.loc 1 140 2
 141:C:/Users/stapi/OneDrive/Desktop/GD32VW553/V1_MQTT_OK/GD32VW55X_Wifi_BLE_SDK/GD32VW55x_RELEASE_V1.0.2/MSDK/wpa_supplicant/src/ap\ieee802_11_shared.c **** 	u8 oci_ie_len = 0;
 522              		.loc 1 141 2
 142:C:/Users/stapi/OneDrive/Desktop/GD32VW553/V1_MQTT_OK/GD32VW55X_Wifi_BLE_SDK/GD32VW55x_RELEASE_V1.0.2/MSDK/wpa_supplicant/src/ap\ieee802_11_shared.c **** 	u8 *end;
 523              		.loc 1 142 2
 143:C:/Users/stapi/OneDrive/Desktop/GD32VW553/V1_MQTT_OK/GD32VW55X_Wifi_BLE_SDK/GD32VW55x_RELEASE_V1.0.2/MSDK/wpa_supplicant/src/ap\ieee802_11_shared.c **** 
 524              		.loc 1 143 2
 145:C:/Users/stapi/OneDrive/Desktop/GD32VW553/V1_MQTT_OK/GD32VW55X_Wifi_BLE_SDK/GD32VW55x_RELEASE_V1.0.2/MSDK/wpa_supplicant/src/ap\ieee802_11_shared.c **** 		   MACSTR, MAC2STR(sa));
 525              		.loc 1 145 2
 526 00ba 8348F400 		lbu	a7,15(s0)
 527 00be 0348E400 		lbu	a6,14(s0)
 528 00c2 8347D400 		lbu	a5,13(s0)
 529 00c6 0347C400 		lbu	a4,12(s0)
 530 00ca 8346B400 		lbu	a3,11(s0)
 531 00ce 0346A400 		lbu	a2,10(s0)
 532 00d2 B7050000 		lui	a1,%hi(.LC6)
 533 00d6 93850500 		addi	a1,a1,%lo(.LC6)
 534 00da 0945     		li	a0,2
 535 00dc 97000000 		call	wpa_printf
 535      E7800000 
 536              	.LVL54:
 147:C:/Users/stapi/OneDrive/Desktop/GD32VW553/V1_MQTT_OK/GD32VW55X_Wifi_BLE_SDK/GD32VW55x_RELEASE_V1.0.2/MSDK/wpa_supplicant/src/ap\ieee802_11_shared.c **** 		    trans_id, WLAN_SA_QUERY_TR_ID_LEN);
 537              		.loc 1 147 2
 538 00e4 B7050000 		lui	a1,%hi(.LC1)
 539 00e8 93850500 		addi	a1,a1,%lo(.LC1)
 540 00ec 0945     		li	a0,2
 541 00ee 8946     		li	a3,2
 542 00f0 4E86     		mv	a2,s3
 543 00f2 97000000 		call	wpa_hexdump
 543      E7800000 
 544              	.LVL55:
 150:C:/Users/stapi/OneDrive/Desktop/GD32VW553/V1_MQTT_OK/GD32VW55X_Wifi_BLE_SDK/GD32VW55x_RELEASE_V1.0.2/MSDK/wpa_supplicant/src/ap\ieee802_11_shared.c **** 	if (sta == NULL || !(sta->flags & WLAN_STA_ASSOC)) {
 545              		.loc 1 150 2
 150:C:/Users/stapi/OneDrive/Desktop/GD32VW553/V1_MQTT_OK/GD32VW55X_Wifi_BLE_SDK/GD32VW55x_RELEASE_V1.0.2/MSDK/wpa_supplicant/src/ap\ieee802_11_shared.c **** 	if (sta == NULL || !(sta->flags & WLAN_STA_ASSOC)) {
 546              		.loc 1 150 8 is_stmt 0
 547 00fa D285     		mv	a1,s4
 548 00fc 4A85     		mv	a0,s2
 549 00fe 97000000 		call	ap_get_sta
 549      E7800000 
 550              	.LVL56:
 151:C:/Users/stapi/OneDrive/Desktop/GD32VW553/V1_MQTT_OK/GD32VW55X_Wifi_BLE_SDK/GD32VW55x_RELEASE_V1.0.2/MSDK/wpa_supplicant/src/ap\ieee802_11_shared.c **** 		wpa_printf(MSG_DEBUG, "IEEE 802.11: Ignore SA Query Request "
 551              		.loc 1 151 2 is_stmt 1
 151:C:/Users/stapi/OneDrive/Desktop/GD32VW553/V1_MQTT_OK/GD32VW55X_Wifi_BLE_SDK/GD32VW55x_RELEASE_V1.0.2/MSDK/wpa_supplicant/src/ap\ieee802_11_shared.c **** 		wpa_printf(MSG_DEBUG, "IEEE 802.11: Ignore SA Query Request "
 552              		.loc 1 151 5 is_stmt 0
 553 0106 01C5     		beq	a0,zero,.L19
 151:C:/Users/stapi/OneDrive/Desktop/GD32VW553/V1_MQTT_OK/GD32VW55X_Wifi_BLE_SDK/GD32VW55x_RELEASE_V1.0.2/MSDK/wpa_supplicant/src/ap\ieee802_11_shared.c **** 		wpa_printf(MSG_DEBUG, "IEEE 802.11: Ignore SA Query Request "
 554              		.loc 1 151 34
 555 0108 1C51     		lw	a5,32(a0)
 556 010a 898B     		andi	a5,a5,2
 151:C:/Users/stapi/OneDrive/Desktop/GD32VW553/V1_MQTT_OK/GD32VW55X_Wifi_BLE_SDK/GD32VW55x_RELEASE_V1.0.2/MSDK/wpa_supplicant/src/ap\ieee802_11_shared.c **** 		wpa_printf(MSG_DEBUG, "IEEE 802.11: Ignore SA Query Request "
 557              		.loc 1 151 18
 558 010c 9DE7     		bne	a5,zero,.L20
 559              	.L19:
 152:C:/Users/stapi/OneDrive/Desktop/GD32VW553/V1_MQTT_OK/GD32VW55X_Wifi_BLE_SDK/GD32VW55x_RELEASE_V1.0.2/MSDK/wpa_supplicant/src/ap\ieee802_11_shared.c **** 			   "from unassociated STA " MACSTR, MAC2STR(sa));
 560              		.loc 1 152 3 is_stmt 1
 561 010e 8348F400 		lbu	a7,15(s0)
 562 0112 0348E400 		lbu	a6,14(s0)
 563 0116 8347D400 		lbu	a5,13(s0)
 564 011a 0347C400 		lbu	a4,12(s0)
 565 011e 8346B400 		lbu	a3,11(s0)
 566 0122 0346A400 		lbu	a2,10(s0)
 567 0126 B7050000 		lui	a1,%hi(.LC7)
 568 012a 93850500 		addi	a1,a1,%lo(.LC7)
 569 012e 0945     		li	a0,2
 570              	.LVL57:
 571 0130 97000000 		call	wpa_printf
 571      E7800000 
 572              	.LVL58:
 154:C:/Users/stapi/OneDrive/Desktop/GD32VW553/V1_MQTT_OK/GD32VW55X_Wifi_BLE_SDK/GD32VW55x_RELEASE_V1.0.2/MSDK/wpa_supplicant/src/ap\ieee802_11_shared.c **** 	}
 573              		.loc 1 154 3
 574 0138 A1B7     		j	.L13
 575              	.LVL59:
 576              	.L20:
 192:C:/Users/stapi/OneDrive/Desktop/GD32VW553/V1_MQTT_OK/GD32VW55X_Wifi_BLE_SDK/GD32VW55x_RELEASE_V1.0.2/MSDK/wpa_supplicant/src/ap\ieee802_11_shared.c **** 	if (!resp) {
 577              		.loc 1 192 2
 192:C:/Users/stapi/OneDrive/Desktop/GD32VW553/V1_MQTT_OK/GD32VW55X_Wifi_BLE_SDK/GD32VW55x_RELEASE_V1.0.2/MSDK/wpa_supplicant/src/ap\ieee802_11_shared.c **** 	if (!resp) {
 578              		.loc 1 192 9 is_stmt 0
 579 013a 13058002 		li	a0,40
 580              	.LVL60:
 581 013e 97000000 		call	os_zalloc
 581      E7800000 
 582              	.LVL61:
 583 0146 AA84     		mv	s1,a0
 584              	.LVL62:
 193:C:/Users/stapi/OneDrive/Desktop/GD32VW553/V1_MQTT_OK/GD32VW55X_Wifi_BLE_SDK/GD32VW55x_RELEASE_V1.0.2/MSDK/wpa_supplicant/src/ap\ieee802_11_shared.c **** 		wpa_printf(MSG_DEBUG,
 585              		.loc 1 193 2 is_stmt 1
 193:C:/Users/stapi/OneDrive/Desktop/GD32VW553/V1_MQTT_OK/GD32VW55X_Wifi_BLE_SDK/GD32VW55x_RELEASE_V1.0.2/MSDK/wpa_supplicant/src/ap\ieee802_11_shared.c **** 		wpa_printf(MSG_DEBUG,
 586              		.loc 1 193 5 is_stmt 0
 587 0148 05E1     		bne	a0,zero,.L21
 194:C:/Users/stapi/OneDrive/Desktop/GD32VW553/V1_MQTT_OK/GD32VW55X_Wifi_BLE_SDK/GD32VW55x_RELEASE_V1.0.2/MSDK/wpa_supplicant/src/ap\ieee802_11_shared.c **** 			   "Failed to allocate buffer for SA Query Response frame");
 588              		.loc 1 194 3 is_stmt 1
 589 014a B7050000 		lui	a1,%hi(.LC2)
 590 014e 93850500 		addi	a1,a1,%lo(.LC2)
 591 0152 0945     		li	a0,2
 592 0154 97000000 		call	wpa_printf
 592      E7800000 
 593              	.LVL63:
 196:C:/Users/stapi/OneDrive/Desktop/GD32VW553/V1_MQTT_OK/GD32VW55X_Wifi_BLE_SDK/GD32VW55x_RELEASE_V1.0.2/MSDK/wpa_supplicant/src/ap\ieee802_11_shared.c **** 		return;
 594              		.loc 1 196 3
 595              	.L43:
 224:C:/Users/stapi/OneDrive/Desktop/GD32VW553/V1_MQTT_OK/GD32VW55X_Wifi_BLE_SDK/GD32VW55x_RELEASE_V1.0.2/MSDK/wpa_supplicant/src/ap\ieee802_11_shared.c **** }
 596              		.loc 1 224 2
 597 015c 0145     		li	a0,0
 598 015e 97000000 		call	os_free
 598      E7800000 
 599              	.LVL64:
 600 0166 29BF     		j	.L13
 601              	.L21:
 200:C:/Users/stapi/OneDrive/Desktop/GD32VW553/V1_MQTT_OK/GD32VW55X_Wifi_BLE_SDK/GD32VW55x_RELEASE_V1.0.2/MSDK/wpa_supplicant/src/ap\ieee802_11_shared.c **** 		   MACSTR, MAC2STR(sa));
 602              		.loc 1 200 2
 603 0168 0348E400 		lbu	a6,14(s0)
 604 016c 0347C400 		lbu	a4,12(s0)
 605 0170 8346B400 		lbu	a3,11(s0)
 606 0174 8348F400 		lbu	a7,15(s0)
 607 0178 8347D400 		lbu	a5,13(s0)
 608 017c 0346A400 		lbu	a2,10(s0)
 609 0180 B7050000 		lui	a1,%hi(.LC8)
 610 0184 93850500 		addi	a1,a1,%lo(.LC8)
 611 0188 0945     		li	a0,2
 612 018a 97000000 		call	wpa_printf
 612      E7800000 
 613              	.LVL65:
 203:C:/Users/stapi/OneDrive/Desktop/GD32VW553/V1_MQTT_OK/GD32VW55X_Wifi_BLE_SDK/GD32VW55x_RELEASE_V1.0.2/MSDK/wpa_supplicant/src/ap\ieee802_11_shared.c **** 					   WLAN_FC_STYPE_ACTION);
 614              		.loc 1 203 2
 203:C:/Users/stapi/OneDrive/Desktop/GD32VW553/V1_MQTT_OK/GD32VW55X_Wifi_BLE_SDK/GD32VW55x_RELEASE_V1.0.2/MSDK/wpa_supplicant/src/ap\ieee802_11_shared.c **** 					   WLAN_FC_STYPE_ACTION);
 615              		.loc 1 203 22 is_stmt 0
 616 0192 930700FD 		li	a5,-48
 617 0196 2380F400 		sb	a5,0(s1)
 205:C:/Users/stapi/OneDrive/Desktop/GD32VW553/V1_MQTT_OK/GD32VW55X_Wifi_BLE_SDK/GD32VW55x_RELEASE_V1.0.2/MSDK/wpa_supplicant/src/ap\ieee802_11_shared.c **** 	os_memcpy(resp->sa, hapd->own_addr, ETH_ALEN);
 618              		.loc 1 205 2
 619 019a 1946     		li	a2,6
 620 019c D285     		mv	a1,s4
 203:C:/Users/stapi/OneDrive/Desktop/GD32VW553/V1_MQTT_OK/GD32VW55X_Wifi_BLE_SDK/GD32VW55x_RELEASE_V1.0.2/MSDK/wpa_supplicant/src/ap\ieee802_11_shared.c **** 					   WLAN_FC_STYPE_ACTION);
 621              		.loc 1 203 22
 622 019e A3800400 		sb	zero,1(s1)
 205:C:/Users/stapi/OneDrive/Desktop/GD32VW553/V1_MQTT_OK/GD32VW55X_Wifi_BLE_SDK/GD32VW55x_RELEASE_V1.0.2/MSDK/wpa_supplicant/src/ap\ieee802_11_shared.c **** 	os_memcpy(resp->sa, hapd->own_addr, ETH_ALEN);
 623              		.loc 1 205 2 is_stmt 1
 624 01a2 13854400 		addi	a0,s1,4
 625 01a6 97000000 		call	os_memcpy
 625      E7800000 
 626              	.LVL66:
 206:C:/Users/stapi/OneDrive/Desktop/GD32VW553/V1_MQTT_OK/GD32VW55X_Wifi_BLE_SDK/GD32VW55x_RELEASE_V1.0.2/MSDK/wpa_supplicant/src/ap\ieee802_11_shared.c **** 	os_memcpy(resp->bssid, hapd->own_addr, ETH_ALEN);
 627              		.loc 1 206 2
 206:C:/Users/stapi/OneDrive/Desktop/GD32VW553/V1_MQTT_OK/GD32VW55X_Wifi_BLE_SDK/GD32VW55x_RELEASE_V1.0.2/MSDK/wpa_supplicant/src/ap\ieee802_11_shared.c **** 	os_memcpy(resp->bssid, hapd->own_addr, ETH_ALEN);
 628              		.loc 1 206 26 is_stmt 0
 629 01ae 93051901 		addi	a1,s2,17
 206:C:/Users/stapi/OneDrive/Desktop/GD32VW553/V1_MQTT_OK/GD32VW55X_Wifi_BLE_SDK/GD32VW55x_RELEASE_V1.0.2/MSDK/wpa_supplicant/src/ap\ieee802_11_shared.c **** 	os_memcpy(resp->bssid, hapd->own_addr, ETH_ALEN);
 630              		.loc 1 206 2
 631 01b2 1946     		li	a2,6
 632 01b4 1385A400 		addi	a0,s1,10
 633 01b8 2ED6     		sw	a1,44(sp)
 634 01ba 97000000 		call	os_memcpy
 634      E7800000 
 635              	.LVL67:
 207:C:/Users/stapi/OneDrive/Desktop/GD32VW553/V1_MQTT_OK/GD32VW55X_Wifi_BLE_SDK/GD32VW55x_RELEASE_V1.0.2/MSDK/wpa_supplicant/src/ap\ieee802_11_shared.c **** 	resp->u.action.category = WLAN_ACTION_SA_QUERY;
 636              		.loc 1 207 2 is_stmt 1
 637 01c2 B255     		lw	a1,44(sp)
 638 01c4 1946     		li	a2,6
 639 01c6 13850401 		addi	a0,s1,16
 640 01ca 97000000 		call	os_memcpy
 640      E7800000 
 641              	.LVL68:
 208:C:/Users/stapi/OneDrive/Desktop/GD32VW553/V1_MQTT_OK/GD32VW55X_Wifi_BLE_SDK/GD32VW55x_RELEASE_V1.0.2/MSDK/wpa_supplicant/src/ap\ieee802_11_shared.c **** 	resp->u.action.u.sa_query_req.action = WLAN_SA_QUERY_RESPONSE;
 642              		.loc 1 208 2
 208:C:/Users/stapi/OneDrive/Desktop/GD32VW553/V1_MQTT_OK/GD32VW55X_Wifi_BLE_SDK/GD32VW55x_RELEASE_V1.0.2/MSDK/wpa_supplicant/src/ap\ieee802_11_shared.c **** 	resp->u.action.u.sa_query_req.action = WLAN_SA_QUERY_RESPONSE;
 643              		.loc 1 208 26 is_stmt 0
 644 01d2 A147     		li	a5,8
 645 01d4 238CF400 		sb	a5,24(s1)
 209:C:/Users/stapi/OneDrive/Desktop/GD32VW553/V1_MQTT_OK/GD32VW55X_Wifi_BLE_SDK/GD32VW55x_RELEASE_V1.0.2/MSDK/wpa_supplicant/src/ap\ieee802_11_shared.c **** 	os_memcpy(resp->u.action.u.sa_query_req.trans_id, trans_id,
 646              		.loc 1 209 2 is_stmt 1
 209:C:/Users/stapi/OneDrive/Desktop/GD32VW553/V1_MQTT_OK/GD32VW55X_Wifi_BLE_SDK/GD32VW55x_RELEASE_V1.0.2/MSDK/wpa_supplicant/src/ap\ieee802_11_shared.c **** 	os_memcpy(resp->u.action.u.sa_query_req.trans_id, trans_id,
 647              		.loc 1 209 39 is_stmt 0
 648 01d8 8547     		li	a5,1
 649 01da A38CF400 		sb	a5,25(s1)
 210:C:/Users/stapi/OneDrive/Desktop/GD32VW553/V1_MQTT_OK/GD32VW55X_Wifi_BLE_SDK/GD32VW55x_RELEASE_V1.0.2/MSDK/wpa_supplicant/src/ap\ieee802_11_shared.c **** 		  WLAN_SA_QUERY_TR_ID_LEN);
 650              		.loc 1 210 2 is_stmt 1
 651 01de 0946     		li	a2,2
 652 01e0 CE85     		mv	a1,s3
 653 01e2 1385A401 		addi	a0,s1,26
 654 01e6 97000000 		call	os_memcpy
 654      E7800000 
 655              	.LVL69:
 212:C:/Users/stapi/OneDrive/Desktop/GD32VW553/V1_MQTT_OK/GD32VW55X_Wifi_BLE_SDK/GD32VW55x_RELEASE_V1.0.2/MSDK/wpa_supplicant/src/ap\ieee802_11_shared.c **** #ifdef CONFIG_OCV
 656              		.loc 1 212 2
 219:C:/Users/stapi/OneDrive/Desktop/GD32VW553/V1_MQTT_OK/GD32VW55X_Wifi_BLE_SDK/GD32VW55x_RELEASE_V1.0.2/MSDK/wpa_supplicant/src/ap\ieee802_11_shared.c **** 	    < 0)
 657              		.loc 1 219 2
 219:C:/Users/stapi/OneDrive/Desktop/GD32VW553/V1_MQTT_OK/GD32VW55X_Wifi_BLE_SDK/GD32VW55x_RELEASE_V1.0.2/MSDK/wpa_supplicant/src/ap\ieee802_11_shared.c **** 	    < 0)
 658              		.loc 1 219 6 is_stmt 0
 659 01ee 0148     		li	a6,0
 660 01f0 8147     		li	a5,0
 661 01f2 0147     		li	a4,0
 662 01f4 8146     		li	a3,0
 663 01f6 7146     		li	a2,28
 664 01f8 A685     		mv	a1,s1
 665 01fa 4A85     		mv	a0,s2
 666 01fc 97000000 		call	hostapd_drv_send_mlme
 666      E7800000 
 667              	.LVL70:
 219:C:/Users/stapi/OneDrive/Desktop/GD32VW553/V1_MQTT_OK/GD32VW55X_Wifi_BLE_SDK/GD32VW55x_RELEASE_V1.0.2/MSDK/wpa_supplicant/src/ap\ieee802_11_shared.c **** 	    < 0)
 668              		.loc 1 219 5
 669 0204 635B0500 		bge	a0,zero,.L22
 221:C:/Users/stapi/OneDrive/Desktop/GD32VW553/V1_MQTT_OK/GD32VW55X_Wifi_BLE_SDK/GD32VW55x_RELEASE_V1.0.2/MSDK/wpa_supplicant/src/ap\ieee802_11_shared.c **** 
 670              		.loc 1 221 3 is_stmt 1
 671 0208 B7050000 		lui	a1,%hi(.LC9)
 672 020c 93850500 		addi	a1,a1,%lo(.LC9)
 673 0210 0D45     		li	a0,3
 674 0212 97000000 		call	wpa_printf
 674      E7800000 
 675              	.LVL71:
 676              	.L22:
 223:C:/Users/stapi/OneDrive/Desktop/GD32VW553/V1_MQTT_OK/GD32VW55X_Wifi_BLE_SDK/GD32VW55x_RELEASE_V1.0.2/MSDK/wpa_supplicant/src/ap\ieee802_11_shared.c **** 	os_free(oci_ie);
 677              		.loc 1 223 2
 678 021a 2685     		mv	a0,s1
 679 021c 97000000 		call	os_free
 679      E7800000 
 680              	.LVL72:
 681 0224 25BF     		j	.L43
 682              	.LVL73:
 683              	.L17:
 684              	.LBE49:
 685              	.LBE48:
 304:C:/Users/stapi/OneDrive/Desktop/GD32VW553/V1_MQTT_OK/GD32VW55X_Wifi_BLE_SDK/GD32VW55x_RELEASE_V1.0.2/MSDK/wpa_supplicant/src/ap\ieee802_11_shared.c **** 		wpa_printf(MSG_DEBUG, "IEEE 802.11: Unexpected SA Query "
 686              		.loc 1 304 2
 304:C:/Users/stapi/OneDrive/Desktop/GD32VW553/V1_MQTT_OK/GD32VW55X_Wifi_BLE_SDK/GD32VW55x_RELEASE_V1.0.2/MSDK/wpa_supplicant/src/ap\ieee802_11_shared.c **** 		wpa_printf(MSG_DEBUG, "IEEE 802.11: Unexpected SA Query "
 687              		.loc 1 304 5 is_stmt 0
 688 0226 8547     		li	a5,1
 689 0228 6307F600 		beq	a2,a5,.L23
 305:C:/Users/stapi/OneDrive/Desktop/GD32VW553/V1_MQTT_OK/GD32VW55X_Wifi_BLE_SDK/GD32VW55x_RELEASE_V1.0.2/MSDK/wpa_supplicant/src/ap\ieee802_11_shared.c **** 			   "Action %d", action_type);
 690              		.loc 1 305 3 is_stmt 1
 691 022c B7050000 		lui	a1,%hi(.LC10)
 692 0230 93850500 		addi	a1,a1,%lo(.LC10)
 693 0234 EDB3     		j	.L42
 694              	.L23:
 310:C:/Users/stapi/OneDrive/Desktop/GD32VW553/V1_MQTT_OK/GD32VW55X_Wifi_BLE_SDK/GD32VW55x_RELEASE_V1.0.2/MSDK/wpa_supplicant/src/ap\ieee802_11_shared.c **** 		   MACSTR, MAC2STR(sa));
 695              		.loc 1 310 2
 696 0236 8346B400 		lbu	a3,11(s0)
 697 023a 0346A400 		lbu	a2,10(s0)
 698 023e 8348F400 		lbu	a7,15(s0)
 699 0242 0348E400 		lbu	a6,14(s0)
 700 0246 8347D400 		lbu	a5,13(s0)
 701 024a 0347C400 		lbu	a4,12(s0)
 702 024e B7050000 		lui	a1,%hi(.LC11)
 703 0252 93850500 		addi	a1,a1,%lo(.LC11)
 704 0256 0945     		li	a0,2
 705 0258 97000000 		call	wpa_printf
 705      E7800000 
 706              	.LVL74:
 312:C:/Users/stapi/OneDrive/Desktop/GD32VW553/V1_MQTT_OK/GD32VW55X_Wifi_BLE_SDK/GD32VW55x_RELEASE_V1.0.2/MSDK/wpa_supplicant/src/ap\ieee802_11_shared.c **** 		    trans_id, WLAN_SA_QUERY_TR_ID_LEN);
 707              		.loc 1 312 2
 708 0260 B7050000 		lui	a1,%hi(.LC1)
 709 0264 8946     		li	a3,2
 710 0266 4E86     		mv	a2,s3
 711 0268 93850500 		addi	a1,a1,%lo(.LC1)
 712 026c 0945     		li	a0,2
 713 026e 97000000 		call	wpa_hexdump
 713      E7800000 
 714              	.LVL75:
 317:C:/Users/stapi/OneDrive/Desktop/GD32VW553/V1_MQTT_OK/GD32VW55X_Wifi_BLE_SDK/GD32VW55x_RELEASE_V1.0.2/MSDK/wpa_supplicant/src/ap\ieee802_11_shared.c **** 		wpa_printf(MSG_DEBUG, "IEEE 802.11: No matching STA with "
 715              		.loc 1 317 2
 317:C:/Users/stapi/OneDrive/Desktop/GD32VW553/V1_MQTT_OK/GD32VW55X_Wifi_BLE_SDK/GD32VW55x_RELEASE_V1.0.2/MSDK/wpa_supplicant/src/ap\ieee802_11_shared.c **** 		wpa_printf(MSG_DEBUG, "IEEE 802.11: No matching STA with "
 716              		.loc 1 317 5 is_stmt 0
 717 0276 89C4     		beq	s1,zero,.L24
 317:C:/Users/stapi/OneDrive/Desktop/GD32VW553/V1_MQTT_OK/GD32VW55X_Wifi_BLE_SDK/GD32VW55x_RELEASE_V1.0.2/MSDK/wpa_supplicant/src/ap\ieee802_11_shared.c **** 		wpa_printf(MSG_DEBUG, "IEEE 802.11: No matching STA with "
 718              		.loc 1 317 18 discriminator 1
 719 0278 83A7040E 		lw	a5,224(s1)
 323:C:/Users/stapi/OneDrive/Desktop/GD32VW553/V1_MQTT_OK/GD32VW55X_Wifi_BLE_SDK/GD32VW55x_RELEASE_V1.0.2/MSDK/wpa_supplicant/src/ap\ieee802_11_shared.c **** 		if (os_memcmp(sta->sa_query_trans_id +
 720              		.loc 1 323 9 discriminator 1
 721 027c 0144     		li	s0,0
 722              	.LVL76:
 317:C:/Users/stapi/OneDrive/Desktop/GD32VW553/V1_MQTT_OK/GD32VW55X_Wifi_BLE_SDK/GD32VW55x_RELEASE_V1.0.2/MSDK/wpa_supplicant/src/ap\ieee802_11_shared.c **** 		wpa_printf(MSG_DEBUG, "IEEE 802.11: No matching STA with "
 723              		.loc 1 317 18 discriminator 1
 724 027e 9DE7     		bne	a5,zero,.L25
 725              	.L24:
 318:C:/Users/stapi/OneDrive/Desktop/GD32VW553/V1_MQTT_OK/GD32VW55X_Wifi_BLE_SDK/GD32VW55x_RELEASE_V1.0.2/MSDK/wpa_supplicant/src/ap\ieee802_11_shared.c **** 			   "pending SA Query request found");
 726              		.loc 1 318 3 is_stmt 1
 727 0280 B7050000 		lui	a1,%hi(.LC12)
 728 0284 93850500 		addi	a1,a1,%lo(.LC12)
 729              	.L41:
 331:C:/Users/stapi/OneDrive/Desktop/GD32VW553/V1_MQTT_OK/GD32VW55X_Wifi_BLE_SDK/GD32VW55x_RELEASE_V1.0.2/MSDK/wpa_supplicant/src/ap\ieee802_11_shared.c **** 			   "transaction identifier found");
 730              		.loc 1 331 3 is_stmt 0
 731 0288 0945     		li	a0,2
 732 028a 97000000 		call	wpa_printf
 732      E7800000 
 733              	.LVL77:
 333:C:/Users/stapi/OneDrive/Desktop/GD32VW553/V1_MQTT_OK/GD32VW55X_Wifi_BLE_SDK/GD32VW55x_RELEASE_V1.0.2/MSDK/wpa_supplicant/src/ap\ieee802_11_shared.c **** 	}
 734              		.loc 1 333 3 is_stmt 1
 735 0292 FDB3     		j	.L13
 736              	.LVL78:
 737              	.L27:
 324:C:/Users/stapi/OneDrive/Desktop/GD32VW553/V1_MQTT_OK/GD32VW55X_Wifi_BLE_SDK/GD32VW55x_RELEASE_V1.0.2/MSDK/wpa_supplicant/src/ap\ieee802_11_shared.c **** 			      i * WLAN_SA_QUERY_TR_ID_LEN,
 738              		.loc 1 324 3
 324:C:/Users/stapi/OneDrive/Desktop/GD32VW553/V1_MQTT_OK/GD32VW55X_Wifi_BLE_SDK/GD32VW55x_RELEASE_V1.0.2/MSDK/wpa_supplicant/src/ap\ieee802_11_shared.c **** 			      i * WLAN_SA_QUERY_TR_ID_LEN,
 739              		.loc 1 324 40 is_stmt 0
 740 0294 03A5040E 		lw	a0,224(s1)
 324:C:/Users/stapi/OneDrive/Desktop/GD32VW553/V1_MQTT_OK/GD32VW55X_Wifi_BLE_SDK/GD32VW55x_RELEASE_V1.0.2/MSDK/wpa_supplicant/src/ap\ieee802_11_shared.c **** 			      i * WLAN_SA_QUERY_TR_ID_LEN,
 741              		.loc 1 324 7
 742 0298 0946     		li	a2,2
 743 029a CE85     		mv	a1,s3
 744 029c 3325A420 		sh1add	a0,s0,a0
 745 02a0 97000000 		call	os_memcmp
 745      E7800000 
 746              	.LVL79:
 324:C:/Users/stapi/OneDrive/Desktop/GD32VW553/V1_MQTT_OK/GD32VW55X_Wifi_BLE_SDK/GD32VW55x_RELEASE_V1.0.2/MSDK/wpa_supplicant/src/ap\ieee802_11_shared.c **** 			      i * WLAN_SA_QUERY_TR_ID_LEN,
 747              		.loc 1 324 6
 748 02a8 19C9     		beq	a0,zero,.L26
 323:C:/Users/stapi/OneDrive/Desktop/GD32VW553/V1_MQTT_OK/GD32VW55X_Wifi_BLE_SDK/GD32VW55x_RELEASE_V1.0.2/MSDK/wpa_supplicant/src/ap\ieee802_11_shared.c **** 		if (os_memcmp(sta->sa_query_trans_id +
 749              		.loc 1 323 39 is_stmt 1 discriminator 2
 323:C:/Users/stapi/OneDrive/Desktop/GD32VW553/V1_MQTT_OK/GD32VW55X_Wifi_BLE_SDK/GD32VW55x_RELEASE_V1.0.2/MSDK/wpa_supplicant/src/ap\ieee802_11_shared.c **** 		if (os_memcmp(sta->sa_query_trans_id +
 750              		.loc 1 323 40 is_stmt 0 discriminator 2
 751 02aa 0504     		addi	s0,s0,1
 752              	.LVL80:
 753              	.L25:
 323:C:/Users/stapi/OneDrive/Desktop/GD32VW553/V1_MQTT_OK/GD32VW55X_Wifi_BLE_SDK/GD32VW55x_RELEASE_V1.0.2/MSDK/wpa_supplicant/src/ap\ieee802_11_shared.c **** 		if (os_memcmp(sta->sa_query_trans_id +
 754              		.loc 1 323 14 is_stmt 1 discriminator 1
 323:C:/Users/stapi/OneDrive/Desktop/GD32VW553/V1_MQTT_OK/GD32VW55X_Wifi_BLE_SDK/GD32VW55x_RELEASE_V1.0.2/MSDK/wpa_supplicant/src/ap\ieee802_11_shared.c **** 		if (os_memcmp(sta->sa_query_trans_id +
 755              		.loc 1 323 2 is_stmt 0 discriminator 1
 756 02ac 83A7840D 		lw	a5,216(s1)
 757 02b0 E342F4FE 		bgt	a5,s0,.L27
 758              	.L28:
 331:C:/Users/stapi/OneDrive/Desktop/GD32VW553/V1_MQTT_OK/GD32VW55X_Wifi_BLE_SDK/GD32VW55x_RELEASE_V1.0.2/MSDK/wpa_supplicant/src/ap\ieee802_11_shared.c **** 			   "transaction identifier found");
 759              		.loc 1 331 3 is_stmt 1
 760 02b4 B7050000 		lui	a1,%hi(.LC13)
 761 02b8 93850500 		addi	a1,a1,%lo(.LC13)
 762 02bc F1B7     		j	.L41
 763              	.L26:
 330:C:/Users/stapi/OneDrive/Desktop/GD32VW553/V1_MQTT_OK/GD32VW55X_Wifi_BLE_SDK/GD32VW55x_RELEASE_V1.0.2/MSDK/wpa_supplicant/src/ap\ieee802_11_shared.c **** 		wpa_printf(MSG_DEBUG, "IEEE 802.11: No matching SA Query "
 764              		.loc 1 330 2
 330:C:/Users/stapi/OneDrive/Desktop/GD32VW553/V1_MQTT_OK/GD32VW55X_Wifi_BLE_SDK/GD32VW55x_RELEASE_V1.0.2/MSDK/wpa_supplicant/src/ap\ieee802_11_shared.c **** 		wpa_printf(MSG_DEBUG, "IEEE 802.11: No matching SA Query "
 765              		.loc 1 330 5 is_stmt 0
 766 02be 83A7840D 		lw	a5,216(s1)
 767 02c2 E359F4FE 		ble	a5,s0,.L28
 336:C:/Users/stapi/OneDrive/Desktop/GD32VW553/V1_MQTT_OK/GD32VW55X_Wifi_BLE_SDK/GD32VW55x_RELEASE_V1.0.2/MSDK/wpa_supplicant/src/ap\ieee802_11_shared.c **** 		       HOSTAPD_LEVEL_DEBUG,
 768              		.loc 1 336 2 is_stmt 1
 336:C:/Users/stapi/OneDrive/Desktop/GD32VW553/V1_MQTT_OK/GD32VW55X_Wifi_BLE_SDK/GD32VW55x_RELEASE_V1.0.2/MSDK/wpa_supplicant/src/ap\ieee802_11_shared.c **** 		       HOSTAPD_LEVEL_DEBUG,
 769              		.loc 1 336 2
 336:C:/Users/stapi/OneDrive/Desktop/GD32VW553/V1_MQTT_OK/GD32VW55X_Wifi_BLE_SDK/GD32VW55x_RELEASE_V1.0.2/MSDK/wpa_supplicant/src/ap\ieee802_11_shared.c **** 		       HOSTAPD_LEVEL_DEBUG,
 770              		.loc 1 336 2
 339:C:/Users/stapi/OneDrive/Desktop/GD32VW553/V1_MQTT_OK/GD32VW55X_Wifi_BLE_SDK/GD32VW55x_RELEASE_V1.0.2/MSDK/wpa_supplicant/src/ap\ieee802_11_shared.c **** }
 771              		.loc 1 339 2
 772 02c6 A685     		mv	a1,s1
 773 02c8 4A85     		mv	a0,s2
 774 02ca 97000000 		call	ap_sta_stop_sa_query
 774      E7800000 
 775              	.LVL81:
 776 02d2 7DB3     		j	.L13
 777              		.cfi_endproc
 778              	.LFE170:
 780              		.section	.text.hostapd_eid_ext_capab,"ax",@progbits
 781              		.align	1
 782              		.globl	hostapd_eid_ext_capab
 784              	hostapd_eid_ext_capab:
 785              	.LFB172:
 341:C:/Users/stapi/OneDrive/Desktop/GD32VW553/V1_MQTT_OK/GD32VW55X_Wifi_BLE_SDK/GD32VW55x_RELEASE_V1.0.2/MSDK/wpa_supplicant/src/ap\ieee802_11_shared.c **** 
 342:C:/Users/stapi/OneDrive/Desktop/GD32VW553/V1_MQTT_OK/GD32VW55X_Wifi_BLE_SDK/GD32VW55x_RELEASE_V1.0.2/MSDK/wpa_supplicant/src/ap\ieee802_11_shared.c **** 
 343:C:/Users/stapi/OneDrive/Desktop/GD32VW553/V1_MQTT_OK/GD32VW55X_Wifi_BLE_SDK/GD32VW55x_RELEASE_V1.0.2/MSDK/wpa_supplicant/src/ap\ieee802_11_shared.c **** static void hostapd_ext_capab_byte(struct hostapd_data *hapd, u8 *pos, int idx)
 344:C:/Users/stapi/OneDrive/Desktop/GD32VW553/V1_MQTT_OK/GD32VW55X_Wifi_BLE_SDK/GD32VW55x_RELEASE_V1.0.2/MSDK/wpa_supplicant/src/ap\ieee802_11_shared.c **** {
 345:C:/Users/stapi/OneDrive/Desktop/GD32VW553/V1_MQTT_OK/GD32VW55X_Wifi_BLE_SDK/GD32VW55x_RELEASE_V1.0.2/MSDK/wpa_supplicant/src/ap\ieee802_11_shared.c **** 	*pos = 0x00;
 346:C:/Users/stapi/OneDrive/Desktop/GD32VW553/V1_MQTT_OK/GD32VW55X_Wifi_BLE_SDK/GD32VW55x_RELEASE_V1.0.2/MSDK/wpa_supplicant/src/ap\ieee802_11_shared.c **** 
 347:C:/Users/stapi/OneDrive/Desktop/GD32VW553/V1_MQTT_OK/GD32VW55X_Wifi_BLE_SDK/GD32VW55x_RELEASE_V1.0.2/MSDK/wpa_supplicant/src/ap\ieee802_11_shared.c **** 	switch (idx) {
 348:C:/Users/stapi/OneDrive/Desktop/GD32VW553/V1_MQTT_OK/GD32VW55X_Wifi_BLE_SDK/GD32VW55x_RELEASE_V1.0.2/MSDK/wpa_supplicant/src/ap\ieee802_11_shared.c **** 	case 0: /* Bits 0-7 */
 349:C:/Users/stapi/OneDrive/Desktop/GD32VW553/V1_MQTT_OK/GD32VW55X_Wifi_BLE_SDK/GD32VW55x_RELEASE_V1.0.2/MSDK/wpa_supplicant/src/ap\ieee802_11_shared.c **** 		if (hapd->iconf->obss_interval)
 350:C:/Users/stapi/OneDrive/Desktop/GD32VW553/V1_MQTT_OK/GD32VW55X_Wifi_BLE_SDK/GD32VW55x_RELEASE_V1.0.2/MSDK/wpa_supplicant/src/ap\ieee802_11_shared.c **** 			*pos |= 0x01; /* Bit 0 - Coexistence management */
 351:C:/Users/stapi/OneDrive/Desktop/GD32VW553/V1_MQTT_OK/GD32VW55X_Wifi_BLE_SDK/GD32VW55x_RELEASE_V1.0.2/MSDK/wpa_supplicant/src/ap\ieee802_11_shared.c **** 		if (hapd->iface->drv_flags & WPA_DRIVER_FLAGS_AP_CSA)
 352:C:/Users/stapi/OneDrive/Desktop/GD32VW553/V1_MQTT_OK/GD32VW55X_Wifi_BLE_SDK/GD32VW55x_RELEASE_V1.0.2/MSDK/wpa_supplicant/src/ap\ieee802_11_shared.c **** 			*pos |= 0x04; /* Bit 2 - Extended Channel Switching */
 353:C:/Users/stapi/OneDrive/Desktop/GD32VW553/V1_MQTT_OK/GD32VW55X_Wifi_BLE_SDK/GD32VW55x_RELEASE_V1.0.2/MSDK/wpa_supplicant/src/ap\ieee802_11_shared.c **** 		break;
 354:C:/Users/stapi/OneDrive/Desktop/GD32VW553/V1_MQTT_OK/GD32VW55X_Wifi_BLE_SDK/GD32VW55x_RELEASE_V1.0.2/MSDK/wpa_supplicant/src/ap\ieee802_11_shared.c **** 	case 1: /* Bits 8-15 */
 355:C:/Users/stapi/OneDrive/Desktop/GD32VW553/V1_MQTT_OK/GD32VW55X_Wifi_BLE_SDK/GD32VW55x_RELEASE_V1.0.2/MSDK/wpa_supplicant/src/ap\ieee802_11_shared.c **** 		if (hapd->conf->proxy_arp)
 356:C:/Users/stapi/OneDrive/Desktop/GD32VW553/V1_MQTT_OK/GD32VW55X_Wifi_BLE_SDK/GD32VW55x_RELEASE_V1.0.2/MSDK/wpa_supplicant/src/ap\ieee802_11_shared.c **** 			*pos |= 0x10; /* Bit 12 - Proxy ARP */
 357:C:/Users/stapi/OneDrive/Desktop/GD32VW553/V1_MQTT_OK/GD32VW55X_Wifi_BLE_SDK/GD32VW55x_RELEASE_V1.0.2/MSDK/wpa_supplicant/src/ap\ieee802_11_shared.c **** 		if (hapd->conf->coloc_intf_reporting) {
 358:C:/Users/stapi/OneDrive/Desktop/GD32VW553/V1_MQTT_OK/GD32VW55X_Wifi_BLE_SDK/GD32VW55x_RELEASE_V1.0.2/MSDK/wpa_supplicant/src/ap\ieee802_11_shared.c **** 			/* Bit 13 - Collocated Interference Reporting */
 359:C:/Users/stapi/OneDrive/Desktop/GD32VW553/V1_MQTT_OK/GD32VW55X_Wifi_BLE_SDK/GD32VW55x_RELEASE_V1.0.2/MSDK/wpa_supplicant/src/ap\ieee802_11_shared.c **** 			*pos |= 0x20;
 360:C:/Users/stapi/OneDrive/Desktop/GD32VW553/V1_MQTT_OK/GD32VW55X_Wifi_BLE_SDK/GD32VW55x_RELEASE_V1.0.2/MSDK/wpa_supplicant/src/ap\ieee802_11_shared.c **** 		}
 361:C:/Users/stapi/OneDrive/Desktop/GD32VW553/V1_MQTT_OK/GD32VW55X_Wifi_BLE_SDK/GD32VW55x_RELEASE_V1.0.2/MSDK/wpa_supplicant/src/ap\ieee802_11_shared.c **** 		break;
 362:C:/Users/stapi/OneDrive/Desktop/GD32VW553/V1_MQTT_OK/GD32VW55X_Wifi_BLE_SDK/GD32VW55x_RELEASE_V1.0.2/MSDK/wpa_supplicant/src/ap\ieee802_11_shared.c **** 	case 2: /* Bits 16-23 */
 363:C:/Users/stapi/OneDrive/Desktop/GD32VW553/V1_MQTT_OK/GD32VW55X_Wifi_BLE_SDK/GD32VW55x_RELEASE_V1.0.2/MSDK/wpa_supplicant/src/ap\ieee802_11_shared.c **** 		if (hapd->conf->wnm_sleep_mode)
 364:C:/Users/stapi/OneDrive/Desktop/GD32VW553/V1_MQTT_OK/GD32VW55X_Wifi_BLE_SDK/GD32VW55x_RELEASE_V1.0.2/MSDK/wpa_supplicant/src/ap\ieee802_11_shared.c **** 			*pos |= 0x02; /* Bit 17 - WNM-Sleep Mode */
 365:C:/Users/stapi/OneDrive/Desktop/GD32VW553/V1_MQTT_OK/GD32VW55X_Wifi_BLE_SDK/GD32VW55x_RELEASE_V1.0.2/MSDK/wpa_supplicant/src/ap\ieee802_11_shared.c **** 		if (hapd->conf->bss_transition)
 366:C:/Users/stapi/OneDrive/Desktop/GD32VW553/V1_MQTT_OK/GD32VW55X_Wifi_BLE_SDK/GD32VW55x_RELEASE_V1.0.2/MSDK/wpa_supplicant/src/ap\ieee802_11_shared.c **** 			*pos |= 0x08; /* Bit 19 - BSS Transition */
 367:C:/Users/stapi/OneDrive/Desktop/GD32VW553/V1_MQTT_OK/GD32VW55X_Wifi_BLE_SDK/GD32VW55x_RELEASE_V1.0.2/MSDK/wpa_supplicant/src/ap\ieee802_11_shared.c **** 		break;
 368:C:/Users/stapi/OneDrive/Desktop/GD32VW553/V1_MQTT_OK/GD32VW55X_Wifi_BLE_SDK/GD32VW55x_RELEASE_V1.0.2/MSDK/wpa_supplicant/src/ap\ieee802_11_shared.c **** 	case 3: /* Bits 24-31 */
 369:C:/Users/stapi/OneDrive/Desktop/GD32VW553/V1_MQTT_OK/GD32VW55X_Wifi_BLE_SDK/GD32VW55x_RELEASE_V1.0.2/MSDK/wpa_supplicant/src/ap\ieee802_11_shared.c **** #ifdef CONFIG_WNM_AP
 370:C:/Users/stapi/OneDrive/Desktop/GD32VW553/V1_MQTT_OK/GD32VW55X_Wifi_BLE_SDK/GD32VW55x_RELEASE_V1.0.2/MSDK/wpa_supplicant/src/ap\ieee802_11_shared.c **** 		*pos |= 0x02; /* Bit 25 - SSID List */
 371:C:/Users/stapi/OneDrive/Desktop/GD32VW553/V1_MQTT_OK/GD32VW55X_Wifi_BLE_SDK/GD32VW55x_RELEASE_V1.0.2/MSDK/wpa_supplicant/src/ap\ieee802_11_shared.c **** #endif /* CONFIG_WNM_AP */
 372:C:/Users/stapi/OneDrive/Desktop/GD32VW553/V1_MQTT_OK/GD32VW55X_Wifi_BLE_SDK/GD32VW55x_RELEASE_V1.0.2/MSDK/wpa_supplicant/src/ap\ieee802_11_shared.c **** 		if (hapd->conf->time_advertisement == 2)
 373:C:/Users/stapi/OneDrive/Desktop/GD32VW553/V1_MQTT_OK/GD32VW55X_Wifi_BLE_SDK/GD32VW55x_RELEASE_V1.0.2/MSDK/wpa_supplicant/src/ap\ieee802_11_shared.c **** 			*pos |= 0x08; /* Bit 27 - UTC TSF Offset */
 374:C:/Users/stapi/OneDrive/Desktop/GD32VW553/V1_MQTT_OK/GD32VW55X_Wifi_BLE_SDK/GD32VW55x_RELEASE_V1.0.2/MSDK/wpa_supplicant/src/ap\ieee802_11_shared.c **** 		if (hapd->conf->interworking)
 375:C:/Users/stapi/OneDrive/Desktop/GD32VW553/V1_MQTT_OK/GD32VW55X_Wifi_BLE_SDK/GD32VW55x_RELEASE_V1.0.2/MSDK/wpa_supplicant/src/ap\ieee802_11_shared.c **** 			*pos |= 0x80; /* Bit 31 - Interworking */
 376:C:/Users/stapi/OneDrive/Desktop/GD32VW553/V1_MQTT_OK/GD32VW55X_Wifi_BLE_SDK/GD32VW55x_RELEASE_V1.0.2/MSDK/wpa_supplicant/src/ap\ieee802_11_shared.c **** 		break;
 377:C:/Users/stapi/OneDrive/Desktop/GD32VW553/V1_MQTT_OK/GD32VW55X_Wifi_BLE_SDK/GD32VW55x_RELEASE_V1.0.2/MSDK/wpa_supplicant/src/ap\ieee802_11_shared.c **** 	case 4: /* Bits 32-39 */
 378:C:/Users/stapi/OneDrive/Desktop/GD32VW553/V1_MQTT_OK/GD32VW55X_Wifi_BLE_SDK/GD32VW55x_RELEASE_V1.0.2/MSDK/wpa_supplicant/src/ap\ieee802_11_shared.c **** 		if (hapd->conf->qos_map_set_len)
 379:C:/Users/stapi/OneDrive/Desktop/GD32VW553/V1_MQTT_OK/GD32VW55X_Wifi_BLE_SDK/GD32VW55x_RELEASE_V1.0.2/MSDK/wpa_supplicant/src/ap\ieee802_11_shared.c **** 			*pos |= 0x01; /* Bit 32 - QoS Map */
 380:C:/Users/stapi/OneDrive/Desktop/GD32VW553/V1_MQTT_OK/GD32VW55X_Wifi_BLE_SDK/GD32VW55x_RELEASE_V1.0.2/MSDK/wpa_supplicant/src/ap\ieee802_11_shared.c **** 		if (hapd->conf->tdls & TDLS_PROHIBIT)
 381:C:/Users/stapi/OneDrive/Desktop/GD32VW553/V1_MQTT_OK/GD32VW55X_Wifi_BLE_SDK/GD32VW55x_RELEASE_V1.0.2/MSDK/wpa_supplicant/src/ap\ieee802_11_shared.c **** 			*pos |= 0x40; /* Bit 38 - TDLS Prohibited */
 382:C:/Users/stapi/OneDrive/Desktop/GD32VW553/V1_MQTT_OK/GD32VW55X_Wifi_BLE_SDK/GD32VW55x_RELEASE_V1.0.2/MSDK/wpa_supplicant/src/ap\ieee802_11_shared.c **** 		if (hapd->conf->tdls & TDLS_PROHIBIT_CHAN_SWITCH) {
 383:C:/Users/stapi/OneDrive/Desktop/GD32VW553/V1_MQTT_OK/GD32VW55X_Wifi_BLE_SDK/GD32VW55x_RELEASE_V1.0.2/MSDK/wpa_supplicant/src/ap\ieee802_11_shared.c **** 			/* Bit 39 - TDLS Channel Switching Prohibited */
 384:C:/Users/stapi/OneDrive/Desktop/GD32VW553/V1_MQTT_OK/GD32VW55X_Wifi_BLE_SDK/GD32VW55x_RELEASE_V1.0.2/MSDK/wpa_supplicant/src/ap\ieee802_11_shared.c **** 			*pos |= 0x80;
 385:C:/Users/stapi/OneDrive/Desktop/GD32VW553/V1_MQTT_OK/GD32VW55X_Wifi_BLE_SDK/GD32VW55x_RELEASE_V1.0.2/MSDK/wpa_supplicant/src/ap\ieee802_11_shared.c **** 		}
 386:C:/Users/stapi/OneDrive/Desktop/GD32VW553/V1_MQTT_OK/GD32VW55X_Wifi_BLE_SDK/GD32VW55x_RELEASE_V1.0.2/MSDK/wpa_supplicant/src/ap\ieee802_11_shared.c **** 		break;
 387:C:/Users/stapi/OneDrive/Desktop/GD32VW553/V1_MQTT_OK/GD32VW55X_Wifi_BLE_SDK/GD32VW55x_RELEASE_V1.0.2/MSDK/wpa_supplicant/src/ap\ieee802_11_shared.c **** 	case 5: /* Bits 40-47 */
 388:C:/Users/stapi/OneDrive/Desktop/GD32VW553/V1_MQTT_OK/GD32VW55X_Wifi_BLE_SDK/GD32VW55x_RELEASE_V1.0.2/MSDK/wpa_supplicant/src/ap\ieee802_11_shared.c **** #ifdef CONFIG_HS20
 389:C:/Users/stapi/OneDrive/Desktop/GD32VW553/V1_MQTT_OK/GD32VW55X_Wifi_BLE_SDK/GD32VW55x_RELEASE_V1.0.2/MSDK/wpa_supplicant/src/ap\ieee802_11_shared.c **** 		if (hapd->conf->hs20)
 390:C:/Users/stapi/OneDrive/Desktop/GD32VW553/V1_MQTT_OK/GD32VW55X_Wifi_BLE_SDK/GD32VW55x_RELEASE_V1.0.2/MSDK/wpa_supplicant/src/ap\ieee802_11_shared.c **** 			*pos |= 0x40; /* Bit 46 - WNM-Notification */
 391:C:/Users/stapi/OneDrive/Desktop/GD32VW553/V1_MQTT_OK/GD32VW55X_Wifi_BLE_SDK/GD32VW55x_RELEASE_V1.0.2/MSDK/wpa_supplicant/src/ap\ieee802_11_shared.c **** #endif /* CONFIG_HS20 */
 392:C:/Users/stapi/OneDrive/Desktop/GD32VW553/V1_MQTT_OK/GD32VW55X_Wifi_BLE_SDK/GD32VW55x_RELEASE_V1.0.2/MSDK/wpa_supplicant/src/ap\ieee802_11_shared.c **** #ifdef CONFIG_MBO
 393:C:/Users/stapi/OneDrive/Desktop/GD32VW553/V1_MQTT_OK/GD32VW55X_Wifi_BLE_SDK/GD32VW55x_RELEASE_V1.0.2/MSDK/wpa_supplicant/src/ap\ieee802_11_shared.c **** 		if (hapd->conf->mbo_enabled)
 394:C:/Users/stapi/OneDrive/Desktop/GD32VW553/V1_MQTT_OK/GD32VW55X_Wifi_BLE_SDK/GD32VW55x_RELEASE_V1.0.2/MSDK/wpa_supplicant/src/ap\ieee802_11_shared.c **** 			*pos |= 0x40; /* Bit 46 - WNM-Notification */
 395:C:/Users/stapi/OneDrive/Desktop/GD32VW553/V1_MQTT_OK/GD32VW55X_Wifi_BLE_SDK/GD32VW55x_RELEASE_V1.0.2/MSDK/wpa_supplicant/src/ap\ieee802_11_shared.c **** #endif /* CONFIG_MBO */
 396:C:/Users/stapi/OneDrive/Desktop/GD32VW553/V1_MQTT_OK/GD32VW55X_Wifi_BLE_SDK/GD32VW55x_RELEASE_V1.0.2/MSDK/wpa_supplicant/src/ap\ieee802_11_shared.c **** 		break;
 397:C:/Users/stapi/OneDrive/Desktop/GD32VW553/V1_MQTT_OK/GD32VW55X_Wifi_BLE_SDK/GD32VW55x_RELEASE_V1.0.2/MSDK/wpa_supplicant/src/ap\ieee802_11_shared.c **** 	case 6: /* Bits 48-55 */
 398:C:/Users/stapi/OneDrive/Desktop/GD32VW553/V1_MQTT_OK/GD32VW55X_Wifi_BLE_SDK/GD32VW55x_RELEASE_V1.0.2/MSDK/wpa_supplicant/src/ap\ieee802_11_shared.c **** 		if (hapd->conf->ssid.utf8_ssid)
 399:C:/Users/stapi/OneDrive/Desktop/GD32VW553/V1_MQTT_OK/GD32VW55X_Wifi_BLE_SDK/GD32VW55x_RELEASE_V1.0.2/MSDK/wpa_supplicant/src/ap\ieee802_11_shared.c **** 			*pos |= 0x01; /* Bit 48 - UTF-8 SSID */
 400:C:/Users/stapi/OneDrive/Desktop/GD32VW553/V1_MQTT_OK/GD32VW55X_Wifi_BLE_SDK/GD32VW55x_RELEASE_V1.0.2/MSDK/wpa_supplicant/src/ap\ieee802_11_shared.c **** 		break;
 401:C:/Users/stapi/OneDrive/Desktop/GD32VW553/V1_MQTT_OK/GD32VW55X_Wifi_BLE_SDK/GD32VW55x_RELEASE_V1.0.2/MSDK/wpa_supplicant/src/ap\ieee802_11_shared.c **** 	case 7: /* Bits 56-63 */
 402:C:/Users/stapi/OneDrive/Desktop/GD32VW553/V1_MQTT_OK/GD32VW55X_Wifi_BLE_SDK/GD32VW55x_RELEASE_V1.0.2/MSDK/wpa_supplicant/src/ap\ieee802_11_shared.c **** 		break;
 403:C:/Users/stapi/OneDrive/Desktop/GD32VW553/V1_MQTT_OK/GD32VW55X_Wifi_BLE_SDK/GD32VW55x_RELEASE_V1.0.2/MSDK/wpa_supplicant/src/ap\ieee802_11_shared.c **** 	case 8: /* Bits 64-71 */
 404:C:/Users/stapi/OneDrive/Desktop/GD32VW553/V1_MQTT_OK/GD32VW55X_Wifi_BLE_SDK/GD32VW55x_RELEASE_V1.0.2/MSDK/wpa_supplicant/src/ap\ieee802_11_shared.c **** 		if (hapd->conf->ftm_responder)
 405:C:/Users/stapi/OneDrive/Desktop/GD32VW553/V1_MQTT_OK/GD32VW55X_Wifi_BLE_SDK/GD32VW55x_RELEASE_V1.0.2/MSDK/wpa_supplicant/src/ap\ieee802_11_shared.c **** 			*pos |= 0x40; /* Bit 70 - FTM responder */
 406:C:/Users/stapi/OneDrive/Desktop/GD32VW553/V1_MQTT_OK/GD32VW55X_Wifi_BLE_SDK/GD32VW55x_RELEASE_V1.0.2/MSDK/wpa_supplicant/src/ap\ieee802_11_shared.c **** 		if (hapd->conf->ftm_initiator)
 407:C:/Users/stapi/OneDrive/Desktop/GD32VW553/V1_MQTT_OK/GD32VW55X_Wifi_BLE_SDK/GD32VW55x_RELEASE_V1.0.2/MSDK/wpa_supplicant/src/ap\ieee802_11_shared.c **** 			*pos |= 0x80; /* Bit 71 - FTM initiator */
 408:C:/Users/stapi/OneDrive/Desktop/GD32VW553/V1_MQTT_OK/GD32VW55X_Wifi_BLE_SDK/GD32VW55x_RELEASE_V1.0.2/MSDK/wpa_supplicant/src/ap\ieee802_11_shared.c **** 		break;
 409:C:/Users/stapi/OneDrive/Desktop/GD32VW553/V1_MQTT_OK/GD32VW55X_Wifi_BLE_SDK/GD32VW55x_RELEASE_V1.0.2/MSDK/wpa_supplicant/src/ap\ieee802_11_shared.c **** 	case 9: /* Bits 72-79 */
 410:C:/Users/stapi/OneDrive/Desktop/GD32VW553/V1_MQTT_OK/GD32VW55X_Wifi_BLE_SDK/GD32VW55x_RELEASE_V1.0.2/MSDK/wpa_supplicant/src/ap\ieee802_11_shared.c **** #ifdef CONFIG_FILS
 411:C:/Users/stapi/OneDrive/Desktop/GD32VW553/V1_MQTT_OK/GD32VW55X_Wifi_BLE_SDK/GD32VW55x_RELEASE_V1.0.2/MSDK/wpa_supplicant/src/ap\ieee802_11_shared.c **** 		if ((hapd->conf->wpa & WPA_PROTO_RSN) &&
 412:C:/Users/stapi/OneDrive/Desktop/GD32VW553/V1_MQTT_OK/GD32VW55X_Wifi_BLE_SDK/GD32VW55x_RELEASE_V1.0.2/MSDK/wpa_supplicant/src/ap\ieee802_11_shared.c **** 		    wpa_key_mgmt_fils(hapd->conf->wpa_key_mgmt))
 413:C:/Users/stapi/OneDrive/Desktop/GD32VW553/V1_MQTT_OK/GD32VW55X_Wifi_BLE_SDK/GD32VW55x_RELEASE_V1.0.2/MSDK/wpa_supplicant/src/ap\ieee802_11_shared.c **** 			*pos |= 0x01;
 414:C:/Users/stapi/OneDrive/Desktop/GD32VW553/V1_MQTT_OK/GD32VW55X_Wifi_BLE_SDK/GD32VW55x_RELEASE_V1.0.2/MSDK/wpa_supplicant/src/ap\ieee802_11_shared.c **** #endif /* CONFIG_FILS */
 415:C:/Users/stapi/OneDrive/Desktop/GD32VW553/V1_MQTT_OK/GD32VW55X_Wifi_BLE_SDK/GD32VW55x_RELEASE_V1.0.2/MSDK/wpa_supplicant/src/ap\ieee802_11_shared.c **** #ifdef CONFIG_IEEE80211AX
 416:C:/Users/stapi/OneDrive/Desktop/GD32VW553/V1_MQTT_OK/GD32VW55X_Wifi_BLE_SDK/GD32VW55x_RELEASE_V1.0.2/MSDK/wpa_supplicant/src/ap\ieee802_11_shared.c **** 		if (hapd->iconf->ieee80211ax &&
 417:C:/Users/stapi/OneDrive/Desktop/GD32VW553/V1_MQTT_OK/GD32VW55X_Wifi_BLE_SDK/GD32VW55x_RELEASE_V1.0.2/MSDK/wpa_supplicant/src/ap\ieee802_11_shared.c **** 		    hostapd_get_he_twt_responder(hapd, IEEE80211_MODE_AP))
 418:C:/Users/stapi/OneDrive/Desktop/GD32VW553/V1_MQTT_OK/GD32VW55X_Wifi_BLE_SDK/GD32VW55x_RELEASE_V1.0.2/MSDK/wpa_supplicant/src/ap\ieee802_11_shared.c **** 			*pos |= 0x40; /* Bit 78 - TWT responder */
 419:C:/Users/stapi/OneDrive/Desktop/GD32VW553/V1_MQTT_OK/GD32VW55X_Wifi_BLE_SDK/GD32VW55x_RELEASE_V1.0.2/MSDK/wpa_supplicant/src/ap\ieee802_11_shared.c **** #endif /* CONFIG_IEEE80211AX */
 420:C:/Users/stapi/OneDrive/Desktop/GD32VW553/V1_MQTT_OK/GD32VW55X_Wifi_BLE_SDK/GD32VW55x_RELEASE_V1.0.2/MSDK/wpa_supplicant/src/ap\ieee802_11_shared.c **** 		break;
 421:C:/Users/stapi/OneDrive/Desktop/GD32VW553/V1_MQTT_OK/GD32VW55X_Wifi_BLE_SDK/GD32VW55x_RELEASE_V1.0.2/MSDK/wpa_supplicant/src/ap\ieee802_11_shared.c **** 	case 10: /* Bits 80-87 */
 422:C:/Users/stapi/OneDrive/Desktop/GD32VW553/V1_MQTT_OK/GD32VW55X_Wifi_BLE_SDK/GD32VW55x_RELEASE_V1.0.2/MSDK/wpa_supplicant/src/ap\ieee802_11_shared.c **** #ifdef CONFIG_SAE
 423:C:/Users/stapi/OneDrive/Desktop/GD32VW553/V1_MQTT_OK/GD32VW55X_Wifi_BLE_SDK/GD32VW55x_RELEASE_V1.0.2/MSDK/wpa_supplicant/src/ap\ieee802_11_shared.c **** 		if (hapd->conf->wpa &&
 424:C:/Users/stapi/OneDrive/Desktop/GD32VW553/V1_MQTT_OK/GD32VW55X_Wifi_BLE_SDK/GD32VW55x_RELEASE_V1.0.2/MSDK/wpa_supplicant/src/ap\ieee802_11_shared.c **** 		    wpa_key_mgmt_sae(hapd->conf->wpa_key_mgmt)) {
 425:C:/Users/stapi/OneDrive/Desktop/GD32VW553/V1_MQTT_OK/GD32VW55X_Wifi_BLE_SDK/GD32VW55x_RELEASE_V1.0.2/MSDK/wpa_supplicant/src/ap\ieee802_11_shared.c **** 			int in_use = hostapd_sae_pw_id_in_use(hapd->conf);
 426:C:/Users/stapi/OneDrive/Desktop/GD32VW553/V1_MQTT_OK/GD32VW55X_Wifi_BLE_SDK/GD32VW55x_RELEASE_V1.0.2/MSDK/wpa_supplicant/src/ap\ieee802_11_shared.c **** 
 427:C:/Users/stapi/OneDrive/Desktop/GD32VW553/V1_MQTT_OK/GD32VW55X_Wifi_BLE_SDK/GD32VW55x_RELEASE_V1.0.2/MSDK/wpa_supplicant/src/ap\ieee802_11_shared.c **** 			if (in_use)
 428:C:/Users/stapi/OneDrive/Desktop/GD32VW553/V1_MQTT_OK/GD32VW55X_Wifi_BLE_SDK/GD32VW55x_RELEASE_V1.0.2/MSDK/wpa_supplicant/src/ap\ieee802_11_shared.c **** 				*pos |= 0x02; /* Bit 81 - SAE Password
 429:C:/Users/stapi/OneDrive/Desktop/GD32VW553/V1_MQTT_OK/GD32VW55X_Wifi_BLE_SDK/GD32VW55x_RELEASE_V1.0.2/MSDK/wpa_supplicant/src/ap\ieee802_11_shared.c **** 					       * Identifiers In Use */
 430:C:/Users/stapi/OneDrive/Desktop/GD32VW553/V1_MQTT_OK/GD32VW55X_Wifi_BLE_SDK/GD32VW55x_RELEASE_V1.0.2/MSDK/wpa_supplicant/src/ap\ieee802_11_shared.c **** 			if (in_use == 2)
 431:C:/Users/stapi/OneDrive/Desktop/GD32VW553/V1_MQTT_OK/GD32VW55X_Wifi_BLE_SDK/GD32VW55x_RELEASE_V1.0.2/MSDK/wpa_supplicant/src/ap\ieee802_11_shared.c **** 				*pos |= 0x04; /* Bit 82 - SAE Password
 432:C:/Users/stapi/OneDrive/Desktop/GD32VW553/V1_MQTT_OK/GD32VW55X_Wifi_BLE_SDK/GD32VW55x_RELEASE_V1.0.2/MSDK/wpa_supplicant/src/ap\ieee802_11_shared.c **** 					       * Identifiers Used Exclusively */
 433:C:/Users/stapi/OneDrive/Desktop/GD32VW553/V1_MQTT_OK/GD32VW55X_Wifi_BLE_SDK/GD32VW55x_RELEASE_V1.0.2/MSDK/wpa_supplicant/src/ap\ieee802_11_shared.c **** 		}
 434:C:/Users/stapi/OneDrive/Desktop/GD32VW553/V1_MQTT_OK/GD32VW55X_Wifi_BLE_SDK/GD32VW55x_RELEASE_V1.0.2/MSDK/wpa_supplicant/src/ap\ieee802_11_shared.c **** #endif /* CONFIG_SAE */
 435:C:/Users/stapi/OneDrive/Desktop/GD32VW553/V1_MQTT_OK/GD32VW55X_Wifi_BLE_SDK/GD32VW55x_RELEASE_V1.0.2/MSDK/wpa_supplicant/src/ap\ieee802_11_shared.c **** 		if (hapd->conf->beacon_prot &&
 436:C:/Users/stapi/OneDrive/Desktop/GD32VW553/V1_MQTT_OK/GD32VW55X_Wifi_BLE_SDK/GD32VW55x_RELEASE_V1.0.2/MSDK/wpa_supplicant/src/ap\ieee802_11_shared.c **** 		    (hapd->iface->drv_flags &
 437:C:/Users/stapi/OneDrive/Desktop/GD32VW553/V1_MQTT_OK/GD32VW55X_Wifi_BLE_SDK/GD32VW55x_RELEASE_V1.0.2/MSDK/wpa_supplicant/src/ap\ieee802_11_shared.c **** 		     WPA_DRIVER_FLAGS_BEACON_PROTECTION))
 438:C:/Users/stapi/OneDrive/Desktop/GD32VW553/V1_MQTT_OK/GD32VW55X_Wifi_BLE_SDK/GD32VW55x_RELEASE_V1.0.2/MSDK/wpa_supplicant/src/ap\ieee802_11_shared.c **** 			*pos |= 0x10; /* Bit 84 - Beacon Protection Enabled */
 439:C:/Users/stapi/OneDrive/Desktop/GD32VW553/V1_MQTT_OK/GD32VW55X_Wifi_BLE_SDK/GD32VW55x_RELEASE_V1.0.2/MSDK/wpa_supplicant/src/ap\ieee802_11_shared.c **** 		break;
 440:C:/Users/stapi/OneDrive/Desktop/GD32VW553/V1_MQTT_OK/GD32VW55X_Wifi_BLE_SDK/GD32VW55x_RELEASE_V1.0.2/MSDK/wpa_supplicant/src/ap\ieee802_11_shared.c **** 	case 11: /* Bits 88-95 */
 441:C:/Users/stapi/OneDrive/Desktop/GD32VW553/V1_MQTT_OK/GD32VW55X_Wifi_BLE_SDK/GD32VW55x_RELEASE_V1.0.2/MSDK/wpa_supplicant/src/ap\ieee802_11_shared.c **** #ifdef CONFIG_SAE_PK
 442:C:/Users/stapi/OneDrive/Desktop/GD32VW553/V1_MQTT_OK/GD32VW55X_Wifi_BLE_SDK/GD32VW55x_RELEASE_V1.0.2/MSDK/wpa_supplicant/src/ap\ieee802_11_shared.c **** 		if (hapd->conf->wpa &&
 443:C:/Users/stapi/OneDrive/Desktop/GD32VW553/V1_MQTT_OK/GD32VW55X_Wifi_BLE_SDK/GD32VW55x_RELEASE_V1.0.2/MSDK/wpa_supplicant/src/ap\ieee802_11_shared.c **** 		    wpa_key_mgmt_sae(hapd->conf->wpa_key_mgmt) &&
 444:C:/Users/stapi/OneDrive/Desktop/GD32VW553/V1_MQTT_OK/GD32VW55X_Wifi_BLE_SDK/GD32VW55x_RELEASE_V1.0.2/MSDK/wpa_supplicant/src/ap\ieee802_11_shared.c **** 		    hostapd_sae_pk_exclusively(hapd->conf))
 445:C:/Users/stapi/OneDrive/Desktop/GD32VW553/V1_MQTT_OK/GD32VW55X_Wifi_BLE_SDK/GD32VW55x_RELEASE_V1.0.2/MSDK/wpa_supplicant/src/ap\ieee802_11_shared.c **** 			*pos |= 0x01; /* Bit 88 - SAE PK Exclusively */
 446:C:/Users/stapi/OneDrive/Desktop/GD32VW553/V1_MQTT_OK/GD32VW55X_Wifi_BLE_SDK/GD32VW55x_RELEASE_V1.0.2/MSDK/wpa_supplicant/src/ap\ieee802_11_shared.c **** #endif /* CONFIG_SAE_PK */
 447:C:/Users/stapi/OneDrive/Desktop/GD32VW553/V1_MQTT_OK/GD32VW55X_Wifi_BLE_SDK/GD32VW55x_RELEASE_V1.0.2/MSDK/wpa_supplicant/src/ap\ieee802_11_shared.c **** 		break;
 448:C:/Users/stapi/OneDrive/Desktop/GD32VW553/V1_MQTT_OK/GD32VW55X_Wifi_BLE_SDK/GD32VW55x_RELEASE_V1.0.2/MSDK/wpa_supplicant/src/ap\ieee802_11_shared.c **** 	}
 449:C:/Users/stapi/OneDrive/Desktop/GD32VW553/V1_MQTT_OK/GD32VW55X_Wifi_BLE_SDK/GD32VW55x_RELEASE_V1.0.2/MSDK/wpa_supplicant/src/ap\ieee802_11_shared.c **** }
 450:C:/Users/stapi/OneDrive/Desktop/GD32VW553/V1_MQTT_OK/GD32VW55X_Wifi_BLE_SDK/GD32VW55x_RELEASE_V1.0.2/MSDK/wpa_supplicant/src/ap\ieee802_11_shared.c **** 
 451:C:/Users/stapi/OneDrive/Desktop/GD32VW553/V1_MQTT_OK/GD32VW55X_Wifi_BLE_SDK/GD32VW55x_RELEASE_V1.0.2/MSDK/wpa_supplicant/src/ap\ieee802_11_shared.c **** 
 452:C:/Users/stapi/OneDrive/Desktop/GD32VW553/V1_MQTT_OK/GD32VW55X_Wifi_BLE_SDK/GD32VW55x_RELEASE_V1.0.2/MSDK/wpa_supplicant/src/ap\ieee802_11_shared.c **** u8 * hostapd_eid_ext_capab(struct hostapd_data *hapd, u8 *eid)
 453:C:/Users/stapi/OneDrive/Desktop/GD32VW553/V1_MQTT_OK/GD32VW55X_Wifi_BLE_SDK/GD32VW55x_RELEASE_V1.0.2/MSDK/wpa_supplicant/src/ap\ieee802_11_shared.c **** {
 786              		.loc 1 453 1
 787              		.cfi_startproc
 788              	.LVL82:
 789 0000 17030000 		call	t0,__riscv_save_12
 789      E7020300 
 790              		.cfi_offset 27, -52
 791              		.cfi_offset 26, -48
 792              		.cfi_offset 25, -44
 793              		.cfi_offset 24, -40
 794              		.cfi_offset 23, -36
 795              		.cfi_offset 22, -32
 796              		.cfi_offset 21, -28
 797              		.cfi_offset 20, -24
 798              		.cfi_offset 19, -20
 799              		.cfi_offset 18, -16
 800              		.cfi_offset 9, -12
 801              		.cfi_offset 8, -8
 802              		.cfi_offset 1, -4
 803              		.cfi_def_cfa_offset 64
 454:C:/Users/stapi/OneDrive/Desktop/GD32VW553/V1_MQTT_OK/GD32VW55X_Wifi_BLE_SDK/GD32VW55x_RELEASE_V1.0.2/MSDK/wpa_supplicant/src/ap\ieee802_11_shared.c **** 	u8 *pos = eid;
 804              		.loc 1 454 2
 805              	.LVL83:
 455:C:/Users/stapi/OneDrive/Desktop/GD32VW553/V1_MQTT_OK/GD32VW55X_Wifi_BLE_SDK/GD32VW55x_RELEASE_V1.0.2/MSDK/wpa_supplicant/src/ap\ieee802_11_shared.c **** 	u8 len = EXT_CAPA_MAX_LEN, i;
 806              		.loc 1 455 2
 456:C:/Users/stapi/OneDrive/Desktop/GD32VW553/V1_MQTT_OK/GD32VW55X_Wifi_BLE_SDK/GD32VW55x_RELEASE_V1.0.2/MSDK/wpa_supplicant/src/ap\ieee802_11_shared.c **** 
 457:C:/Users/stapi/OneDrive/Desktop/GD32VW553/V1_MQTT_OK/GD32VW55X_Wifi_BLE_SDK/GD32VW55x_RELEASE_V1.0.2/MSDK/wpa_supplicant/src/ap\ieee802_11_shared.c **** 	if (len < hapd->iface->extended_capa_len)
 807              		.loc 1 457 2
 808              		.loc 1 457 23 is_stmt 0
 809 0008 1C41     		lw	a5,0(a0)
 810 000a BD49     		li	s3,15
 811 000c 370B0000 		lui	s6,%hi(.L48)
 812 0010 83A74745 		lw	a5,1108(a5)
 813              	.LBB55:
 814              	.LBB56:
 815              	.LBB57:
 816              	.LBB58:
 817              		.file 4 "..\\..\\..\\..\\wpa_supplicant\\src/common/defs.h"
   1:..\..\..\..\wpa_supplicant\src/common/defs.h **** /*
   2:..\..\..\..\wpa_supplicant\src/common/defs.h ****  * WPA Supplicant - Common definitions
   3:..\..\..\..\wpa_supplicant\src/common/defs.h ****  * Copyright (c) 2004-2018, Jouni Malinen <j@w1.fi>
   4:..\..\..\..\wpa_supplicant\src/common/defs.h ****  *
   5:..\..\..\..\wpa_supplicant\src/common/defs.h ****  * This software may be distributed under the terms of the BSD license.
   6:..\..\..\..\wpa_supplicant\src/common/defs.h ****  * See README for more details.
   7:..\..\..\..\wpa_supplicant\src/common/defs.h ****  */
   8:..\..\..\..\wpa_supplicant\src/common/defs.h **** 
   9:..\..\..\..\wpa_supplicant\src/common/defs.h **** #ifndef DEFS_H
  10:..\..\..\..\wpa_supplicant\src/common/defs.h **** #define DEFS_H
  11:..\..\..\..\wpa_supplicant\src/common/defs.h **** 
  12:..\..\..\..\wpa_supplicant\src/common/defs.h **** #define WPA_CIPHER_NONE BIT(0)
  13:..\..\..\..\wpa_supplicant\src/common/defs.h **** #define WPA_CIPHER_WEP40 BIT(1)
  14:..\..\..\..\wpa_supplicant\src/common/defs.h **** #define WPA_CIPHER_WEP104 BIT(2)
  15:..\..\..\..\wpa_supplicant\src/common/defs.h **** #define WPA_CIPHER_TKIP BIT(3)
  16:..\..\..\..\wpa_supplicant\src/common/defs.h **** #define WPA_CIPHER_CCMP BIT(4)
  17:..\..\..\..\wpa_supplicant\src/common/defs.h **** #define WPA_CIPHER_AES_128_CMAC BIT(5)
  18:..\..\..\..\wpa_supplicant\src/common/defs.h **** #define WPA_CIPHER_GCMP BIT(6)
  19:..\..\..\..\wpa_supplicant\src/common/defs.h **** #define WPA_CIPHER_SMS4 BIT(7)
  20:..\..\..\..\wpa_supplicant\src/common/defs.h **** #define WPA_CIPHER_GCMP_256 BIT(8)
  21:..\..\..\..\wpa_supplicant\src/common/defs.h **** #define WPA_CIPHER_CCMP_256 BIT(9)
  22:..\..\..\..\wpa_supplicant\src/common/defs.h **** #define WPA_CIPHER_BIP_GMAC_128 BIT(11)
  23:..\..\..\..\wpa_supplicant\src/common/defs.h **** #define WPA_CIPHER_BIP_GMAC_256 BIT(12)
  24:..\..\..\..\wpa_supplicant\src/common/defs.h **** #define WPA_CIPHER_BIP_CMAC_256 BIT(13)
  25:..\..\..\..\wpa_supplicant\src/common/defs.h **** #define WPA_CIPHER_GTK_NOT_USED BIT(14)
  26:..\..\..\..\wpa_supplicant\src/common/defs.h **** 
  27:..\..\..\..\wpa_supplicant\src/common/defs.h **** #define WPA_KEY_MGMT_IEEE8021X BIT(0)
  28:..\..\..\..\wpa_supplicant\src/common/defs.h **** #define WPA_KEY_MGMT_PSK BIT(1)
  29:..\..\..\..\wpa_supplicant\src/common/defs.h **** #define WPA_KEY_MGMT_NONE BIT(2)
  30:..\..\..\..\wpa_supplicant\src/common/defs.h **** #define WPA_KEY_MGMT_IEEE8021X_NO_WPA BIT(3)
  31:..\..\..\..\wpa_supplicant\src/common/defs.h **** #define WPA_KEY_MGMT_WPA_NONE BIT(4)
  32:..\..\..\..\wpa_supplicant\src/common/defs.h **** #define WPA_KEY_MGMT_FT_IEEE8021X BIT(5)
  33:..\..\..\..\wpa_supplicant\src/common/defs.h **** #define WPA_KEY_MGMT_FT_PSK BIT(6)
  34:..\..\..\..\wpa_supplicant\src/common/defs.h **** #define WPA_KEY_MGMT_IEEE8021X_SHA256 BIT(7)
  35:..\..\..\..\wpa_supplicant\src/common/defs.h **** #define WPA_KEY_MGMT_PSK_SHA256 BIT(8)
  36:..\..\..\..\wpa_supplicant\src/common/defs.h **** #define WPA_KEY_MGMT_WPS BIT(9)
  37:..\..\..\..\wpa_supplicant\src/common/defs.h **** #define WPA_KEY_MGMT_SAE BIT(10)
  38:..\..\..\..\wpa_supplicant\src/common/defs.h **** #define WPA_KEY_MGMT_FT_SAE BIT(11)
  39:..\..\..\..\wpa_supplicant\src/common/defs.h **** #define WPA_KEY_MGMT_WAPI_PSK BIT(12)
  40:..\..\..\..\wpa_supplicant\src/common/defs.h **** #define WPA_KEY_MGMT_WAPI_CERT BIT(13)
  41:..\..\..\..\wpa_supplicant\src/common/defs.h **** #define WPA_KEY_MGMT_CCKM BIT(14)
  42:..\..\..\..\wpa_supplicant\src/common/defs.h **** #define WPA_KEY_MGMT_OSEN BIT(15)
  43:..\..\..\..\wpa_supplicant\src/common/defs.h **** #define WPA_KEY_MGMT_IEEE8021X_SUITE_B BIT(16)
  44:..\..\..\..\wpa_supplicant\src/common/defs.h **** #define WPA_KEY_MGMT_IEEE8021X_SUITE_B_192 BIT(17)
  45:..\..\..\..\wpa_supplicant\src/common/defs.h **** #define WPA_KEY_MGMT_FILS_SHA256 BIT(18)
  46:..\..\..\..\wpa_supplicant\src/common/defs.h **** #define WPA_KEY_MGMT_FILS_SHA384 BIT(19)
  47:..\..\..\..\wpa_supplicant\src/common/defs.h **** #define WPA_KEY_MGMT_FT_FILS_SHA256 BIT(20)
  48:..\..\..\..\wpa_supplicant\src/common/defs.h **** #define WPA_KEY_MGMT_FT_FILS_SHA384 BIT(21)
  49:..\..\..\..\wpa_supplicant\src/common/defs.h **** #define WPA_KEY_MGMT_OWE BIT(22)
  50:..\..\..\..\wpa_supplicant\src/common/defs.h **** #define WPA_KEY_MGMT_DPP BIT(23)
  51:..\..\..\..\wpa_supplicant\src/common/defs.h **** #define WPA_KEY_MGMT_FT_IEEE8021X_SHA384 BIT(24)
  52:..\..\..\..\wpa_supplicant\src/common/defs.h **** #define WPA_KEY_MGMT_PASN BIT(25)
  53:..\..\..\..\wpa_supplicant\src/common/defs.h **** 
  54:..\..\..\..\wpa_supplicant\src/common/defs.h **** 
  55:..\..\..\..\wpa_supplicant\src/common/defs.h **** #define WPA_KEY_MGMT_FT (WPA_KEY_MGMT_FT_PSK | \
  56:..\..\..\..\wpa_supplicant\src/common/defs.h **** 			 WPA_KEY_MGMT_FT_IEEE8021X | \
  57:..\..\..\..\wpa_supplicant\src/common/defs.h **** 			 WPA_KEY_MGMT_FT_IEEE8021X_SHA384 | \
  58:..\..\..\..\wpa_supplicant\src/common/defs.h **** 			 WPA_KEY_MGMT_FT_SAE | \
  59:..\..\..\..\wpa_supplicant\src/common/defs.h **** 			 WPA_KEY_MGMT_FT_FILS_SHA256 | \
  60:..\..\..\..\wpa_supplicant\src/common/defs.h **** 			 WPA_KEY_MGMT_FT_FILS_SHA384)
  61:..\..\..\..\wpa_supplicant\src/common/defs.h **** 
  62:..\..\..\..\wpa_supplicant\src/common/defs.h **** static inline int wpa_key_mgmt_wpa_ieee8021x(int akm)
  63:..\..\..\..\wpa_supplicant\src/common/defs.h **** {
  64:..\..\..\..\wpa_supplicant\src/common/defs.h **** 	return !!(akm & (WPA_KEY_MGMT_IEEE8021X |
  65:..\..\..\..\wpa_supplicant\src/common/defs.h **** 			 WPA_KEY_MGMT_FT_IEEE8021X |
  66:..\..\..\..\wpa_supplicant\src/common/defs.h **** 			 WPA_KEY_MGMT_FT_IEEE8021X_SHA384 |
  67:..\..\..\..\wpa_supplicant\src/common/defs.h **** 			 WPA_KEY_MGMT_CCKM |
  68:..\..\..\..\wpa_supplicant\src/common/defs.h **** 			 WPA_KEY_MGMT_OSEN |
  69:..\..\..\..\wpa_supplicant\src/common/defs.h **** 			 WPA_KEY_MGMT_IEEE8021X_SHA256 |
  70:..\..\..\..\wpa_supplicant\src/common/defs.h **** 			 WPA_KEY_MGMT_IEEE8021X_SUITE_B |
  71:..\..\..\..\wpa_supplicant\src/common/defs.h **** 			 WPA_KEY_MGMT_IEEE8021X_SUITE_B_192 |
  72:..\..\..\..\wpa_supplicant\src/common/defs.h **** 			 WPA_KEY_MGMT_FILS_SHA256 |
  73:..\..\..\..\wpa_supplicant\src/common/defs.h **** 			 WPA_KEY_MGMT_FILS_SHA384 |
  74:..\..\..\..\wpa_supplicant\src/common/defs.h **** 			 WPA_KEY_MGMT_FT_FILS_SHA256 |
  75:..\..\..\..\wpa_supplicant\src/common/defs.h **** 			 WPA_KEY_MGMT_FT_FILS_SHA384));
  76:..\..\..\..\wpa_supplicant\src/common/defs.h **** }
  77:..\..\..\..\wpa_supplicant\src/common/defs.h **** 
  78:..\..\..\..\wpa_supplicant\src/common/defs.h **** static inline int wpa_key_mgmt_wpa_psk_no_sae(int akm)
  79:..\..\..\..\wpa_supplicant\src/common/defs.h **** {
  80:..\..\..\..\wpa_supplicant\src/common/defs.h **** 	return !!(akm & (WPA_KEY_MGMT_PSK |
  81:..\..\..\..\wpa_supplicant\src/common/defs.h **** 			 WPA_KEY_MGMT_FT_PSK |
  82:..\..\..\..\wpa_supplicant\src/common/defs.h **** 			 WPA_KEY_MGMT_PSK_SHA256));
  83:..\..\..\..\wpa_supplicant\src/common/defs.h **** }
  84:..\..\..\..\wpa_supplicant\src/common/defs.h **** 
  85:..\..\..\..\wpa_supplicant\src/common/defs.h **** static inline int wpa_key_mgmt_wpa_psk(int akm)
  86:..\..\..\..\wpa_supplicant\src/common/defs.h **** {
  87:..\..\..\..\wpa_supplicant\src/common/defs.h **** 	return !!(akm & (WPA_KEY_MGMT_PSK |
  88:..\..\..\..\wpa_supplicant\src/common/defs.h **** 			 WPA_KEY_MGMT_FT_PSK |
  89:..\..\..\..\wpa_supplicant\src/common/defs.h **** 			 WPA_KEY_MGMT_PSK_SHA256 |
  90:..\..\..\..\wpa_supplicant\src/common/defs.h **** 			 WPA_KEY_MGMT_SAE |
  91:..\..\..\..\wpa_supplicant\src/common/defs.h **** 			 WPA_KEY_MGMT_FT_SAE));
  92:..\..\..\..\wpa_supplicant\src/common/defs.h **** }
  93:..\..\..\..\wpa_supplicant\src/common/defs.h **** 
  94:..\..\..\..\wpa_supplicant\src/common/defs.h **** static inline int wpa_key_mgmt_ft(int akm)
  95:..\..\..\..\wpa_supplicant\src/common/defs.h **** {
  96:..\..\..\..\wpa_supplicant\src/common/defs.h **** 	return !!(akm & WPA_KEY_MGMT_FT);
  97:..\..\..\..\wpa_supplicant\src/common/defs.h **** }
  98:..\..\..\..\wpa_supplicant\src/common/defs.h **** 
  99:..\..\..\..\wpa_supplicant\src/common/defs.h **** static inline int wpa_key_mgmt_only_ft(int akm)
 100:..\..\..\..\wpa_supplicant\src/common/defs.h **** {
 101:..\..\..\..\wpa_supplicant\src/common/defs.h **** 	int ft = wpa_key_mgmt_ft(akm);
 102:..\..\..\..\wpa_supplicant\src/common/defs.h **** 	akm &= ~WPA_KEY_MGMT_FT;
 103:..\..\..\..\wpa_supplicant\src/common/defs.h **** 	return ft && !akm;
 104:..\..\..\..\wpa_supplicant\src/common/defs.h **** }
 105:..\..\..\..\wpa_supplicant\src/common/defs.h **** 
 106:..\..\..\..\wpa_supplicant\src/common/defs.h **** static inline int wpa_key_mgmt_ft_psk(int akm)
 107:..\..\..\..\wpa_supplicant\src/common/defs.h **** {
 108:..\..\..\..\wpa_supplicant\src/common/defs.h **** 	return !!(akm & WPA_KEY_MGMT_FT_PSK);
 109:..\..\..\..\wpa_supplicant\src/common/defs.h **** }
 110:..\..\..\..\wpa_supplicant\src/common/defs.h **** 
 111:..\..\..\..\wpa_supplicant\src/common/defs.h **** static inline int wpa_key_mgmt_sae(int akm)
 112:..\..\..\..\wpa_supplicant\src/common/defs.h **** {
 113:..\..\..\..\wpa_supplicant\src/common/defs.h **** 	return !!(akm & (WPA_KEY_MGMT_SAE |
 818              		.loc 4 113 16
 819 0014 856B     		li	s7,4096
 820              	.LBE58:
 821              	.LBE57:
 822              	.LBE56:
 823              	.LBE55:
 453:C:/Users/stapi/OneDrive/Desktop/GD32VW553/V1_MQTT_OK/GD32VW55X_Wifi_BLE_SDK/GD32VW55x_RELEASE_V1.0.2/MSDK/wpa_supplicant/src/ap\ieee802_11_shared.c **** 	u8 *pos = eid;
 824              		.loc 1 453 1
 825 0016 AA84     		mv	s1,a0
 826 0018 B3F9F90A 		maxu	s3,s3,a5
 458:C:/Users/stapi/OneDrive/Desktop/GD32VW553/V1_MQTT_OK/GD32VW55X_Wifi_BLE_SDK/GD32VW55x_RELEASE_V1.0.2/MSDK/wpa_supplicant/src/ap\ieee802_11_shared.c **** 		len = hapd->iface->extended_capa_len;
 459:C:/Users/stapi/OneDrive/Desktop/GD32VW553/V1_MQTT_OK/GD32VW55X_Wifi_BLE_SDK/GD32VW55x_RELEASE_V1.0.2/MSDK/wpa_supplicant/src/ap\ieee802_11_shared.c **** 
 460:C:/Users/stapi/OneDrive/Desktop/GD32VW553/V1_MQTT_OK/GD32VW55X_Wifi_BLE_SDK/GD32VW55x_RELEASE_V1.0.2/MSDK/wpa_supplicant/src/ap\ieee802_11_shared.c **** 	*pos++ = WLAN_EID_EXT_CAPAB;
 827              		.loc 1 460 9
 828 001c 9307F007 		li	a5,127
 829 0020 13F9F90F 		andi	s2,s3,0xff
 830              	.LVL84:
 831              		.loc 1 460 2 is_stmt 1
 453:C:/Users/stapi/OneDrive/Desktop/GD32VW553/V1_MQTT_OK/GD32VW55X_Wifi_BLE_SDK/GD32VW55x_RELEASE_V1.0.2/MSDK/wpa_supplicant/src/ap\ieee802_11_shared.c **** 	u8 *pos = eid;
 832              		.loc 1 453 1 is_stmt 0
 833 0024 2E8A     		mv	s4,a1
 834              		.loc 1 460 9
 835 0026 2380F500 		sb	a5,0(a1)
 461:C:/Users/stapi/OneDrive/Desktop/GD32VW553/V1_MQTT_OK/GD32VW55X_Wifi_BLE_SDK/GD32VW55x_RELEASE_V1.0.2/MSDK/wpa_supplicant/src/ap\ieee802_11_shared.c **** 	*pos++ = len;
 836              		.loc 1 461 2 is_stmt 1
 837              		.loc 1 461 6 is_stmt 0
 838 002a 13842500 		addi	s0,a1,2
 839              	.LVL85:
 840              		.loc 1 461 9
 841 002e A3802501 		sb	s2,1(a1)
 462:C:/Users/stapi/OneDrive/Desktop/GD32VW553/V1_MQTT_OK/GD32VW55X_Wifi_BLE_SDK/GD32VW55x_RELEASE_V1.0.2/MSDK/wpa_supplicant/src/ap\ieee802_11_shared.c **** 	for (i = 0; i < len; i++, pos++) {
 842              		.loc 1 462 2 is_stmt 1
 843              	.LVL86:
 844 0032 814A     		li	s5,0
 845 0034 130B0B00 		addi	s6,s6,%lo(.L48)
 846              	.LBB69:
 847              	.LBB66:
 436:C:/Users/stapi/OneDrive/Desktop/GD32VW553/V1_MQTT_OK/GD32VW55X_Wifi_BLE_SDK/GD32VW55x_RELEASE_V1.0.2/MSDK/wpa_supplicant/src/ap\ieee802_11_shared.c **** 		     WPA_DRIVER_FLAGS_BEACON_PROTECTION))
 848              		.loc 1 436 31 is_stmt 0
 849 0038 B70C0040 		li	s9,1073741824
 850              	.LBB61:
 851              	.LBB59:
 852              		.loc 4 113 16
 853 003c 938B0BC0 		addi	s7,s7,-1024
 854              	.LBE59:
 855              	.LBE61:
 856              	.LBB62:
 430:C:/Users/stapi/OneDrive/Desktop/GD32VW553/V1_MQTT_OK/GD32VW55X_Wifi_BLE_SDK/GD32VW55x_RELEASE_V1.0.2/MSDK/wpa_supplicant/src/ap\ieee802_11_shared.c **** 				*pos |= 0x04; /* Bit 82 - SAE Password
 857              		.loc 1 430 7
 858 0040 894D     		li	s11,2
 859              	.LBE62:
 399:C:/Users/stapi/OneDrive/Desktop/GD32VW553/V1_MQTT_OK/GD32VW55X_Wifi_BLE_SDK/GD32VW55x_RELEASE_V1.0.2/MSDK/wpa_supplicant/src/ap\ieee802_11_shared.c **** 		break;
 860              		.loc 1 399 9
 861 0042 054C     		li	s8,1
 862              	.LVL87:
 863              	.L45:
 864 0044 13FDFA0F 		andi	s10,s5,0xff
 865              	.LVL88:
 866              	.LBE66:
 867              	.LBE69:
 868              		.loc 1 462 14 is_stmt 1 discriminator 1
 869              		.loc 1 462 2 is_stmt 0 discriminator 1
 870 0048 63642D03 		bgtu	s2,s10,.L73
 871 004c 93F7F90F 		andi	a5,s3,255
 872 0050 8507     		addi	a5,a5,1
 873 0052 D297     		add	a5,s4,a5
 874              	.L74:
 463:C:/Users/stapi/OneDrive/Desktop/GD32VW553/V1_MQTT_OK/GD32VW55X_Wifi_BLE_SDK/GD32VW55x_RELEASE_V1.0.2/MSDK/wpa_supplicant/src/ap\ieee802_11_shared.c **** 		hostapd_ext_capab_byte(hapd, pos, i);
 464:C:/Users/stapi/OneDrive/Desktop/GD32VW553/V1_MQTT_OK/GD32VW55X_Wifi_BLE_SDK/GD32VW55x_RELEASE_V1.0.2/MSDK/wpa_supplicant/src/ap\ieee802_11_shared.c **** 
 465:C:/Users/stapi/OneDrive/Desktop/GD32VW553/V1_MQTT_OK/GD32VW55X_Wifi_BLE_SDK/GD32VW55x_RELEASE_V1.0.2/MSDK/wpa_supplicant/src/ap\ieee802_11_shared.c **** 		if (i < hapd->iface->extended_capa_len) {
 466:C:/Users/stapi/OneDrive/Desktop/GD32VW553/V1_MQTT_OK/GD32VW55X_Wifi_BLE_SDK/GD32VW55x_RELEASE_V1.0.2/MSDK/wpa_supplicant/src/ap\ieee802_11_shared.c **** 			*pos &= ~hapd->iface->extended_capa_mask[i];
 467:C:/Users/stapi/OneDrive/Desktop/GD32VW553/V1_MQTT_OK/GD32VW55X_Wifi_BLE_SDK/GD32VW55x_RELEASE_V1.0.2/MSDK/wpa_supplicant/src/ap\ieee802_11_shared.c **** 			*pos |= hapd->iface->extended_capa[i];
 468:C:/Users/stapi/OneDrive/Desktop/GD32VW553/V1_MQTT_OK/GD32VW55X_Wifi_BLE_SDK/GD32VW55x_RELEASE_V1.0.2/MSDK/wpa_supplicant/src/ap\ieee802_11_shared.c **** 		}
 469:C:/Users/stapi/OneDrive/Desktop/GD32VW553/V1_MQTT_OK/GD32VW55X_Wifi_BLE_SDK/GD32VW55x_RELEASE_V1.0.2/MSDK/wpa_supplicant/src/ap\ieee802_11_shared.c **** 
 470:C:/Users/stapi/OneDrive/Desktop/GD32VW553/V1_MQTT_OK/GD32VW55X_Wifi_BLE_SDK/GD32VW55x_RELEASE_V1.0.2/MSDK/wpa_supplicant/src/ap\ieee802_11_shared.c **** 		if (i < EXT_CAPA_MAX_LEN) {
 471:C:/Users/stapi/OneDrive/Desktop/GD32VW553/V1_MQTT_OK/GD32VW55X_Wifi_BLE_SDK/GD32VW55x_RELEASE_V1.0.2/MSDK/wpa_supplicant/src/ap\ieee802_11_shared.c **** 			*pos &= ~hapd->conf->ext_capa_mask[i];
 472:C:/Users/stapi/OneDrive/Desktop/GD32VW553/V1_MQTT_OK/GD32VW55X_Wifi_BLE_SDK/GD32VW55x_RELEASE_V1.0.2/MSDK/wpa_supplicant/src/ap\ieee802_11_shared.c **** 			*pos |= hapd->conf->ext_capa[i];
 473:C:/Users/stapi/OneDrive/Desktop/GD32VW553/V1_MQTT_OK/GD32VW55X_Wifi_BLE_SDK/GD32VW55x_RELEASE_V1.0.2/MSDK/wpa_supplicant/src/ap\ieee802_11_shared.c **** 		}
 474:C:/Users/stapi/OneDrive/Desktop/GD32VW553/V1_MQTT_OK/GD32VW55X_Wifi_BLE_SDK/GD32VW55x_RELEASE_V1.0.2/MSDK/wpa_supplicant/src/ap\ieee802_11_shared.c **** 	}
 475:C:/Users/stapi/OneDrive/Desktop/GD32VW553/V1_MQTT_OK/GD32VW55X_Wifi_BLE_SDK/GD32VW55x_RELEASE_V1.0.2/MSDK/wpa_supplicant/src/ap\ieee802_11_shared.c **** 
 476:C:/Users/stapi/OneDrive/Desktop/GD32VW553/V1_MQTT_OK/GD32VW55X_Wifi_BLE_SDK/GD32VW55x_RELEASE_V1.0.2/MSDK/wpa_supplicant/src/ap\ieee802_11_shared.c **** 	while (len > 0 && eid[1 + len] == 0) {
 875              		.loc 1 476 8 is_stmt 1
 876 0054 63090900 		beq	s2,zero,.L97
 877              		.loc 1 476 17 is_stmt 0 discriminator 1
 878 0058 03C70700 		lbu	a4,0(a5)
 879 005c FD17     		addi	a5,a5,-1
 880 005e 6306071C 		beq	a4,zero,.L76
 477:C:/Users/stapi/OneDrive/Desktop/GD32VW553/V1_MQTT_OK/GD32VW55X_Wifi_BLE_SDK/GD32VW55x_RELEASE_V1.0.2/MSDK/wpa_supplicant/src/ap\ieee802_11_shared.c **** 		len--;
 478:C:/Users/stapi/OneDrive/Desktop/GD32VW553/V1_MQTT_OK/GD32VW55X_Wifi_BLE_SDK/GD32VW55x_RELEASE_V1.0.2/MSDK/wpa_supplicant/src/ap\ieee802_11_shared.c **** 		eid[1] = len;
 479:C:/Users/stapi/OneDrive/Desktop/GD32VW553/V1_MQTT_OK/GD32VW55X_Wifi_BLE_SDK/GD32VW55x_RELEASE_V1.0.2/MSDK/wpa_supplicant/src/ap\ieee802_11_shared.c **** 	}
 480:C:/Users/stapi/OneDrive/Desktop/GD32VW553/V1_MQTT_OK/GD32VW55X_Wifi_BLE_SDK/GD32VW55x_RELEASE_V1.0.2/MSDK/wpa_supplicant/src/ap\ieee802_11_shared.c **** 	if (len == 0)
 881              		.loc 1 480 2 is_stmt 1
 481:C:/Users/stapi/OneDrive/Desktop/GD32VW553/V1_MQTT_OK/GD32VW55X_Wifi_BLE_SDK/GD32VW55x_RELEASE_V1.0.2/MSDK/wpa_supplicant/src/ap\ieee802_11_shared.c **** 		return eid;
 482:C:/Users/stapi/OneDrive/Desktop/GD32VW553/V1_MQTT_OK/GD32VW55X_Wifi_BLE_SDK/GD32VW55x_RELEASE_V1.0.2/MSDK/wpa_supplicant/src/ap\ieee802_11_shared.c **** 
 483:C:/Users/stapi/OneDrive/Desktop/GD32VW553/V1_MQTT_OK/GD32VW55X_Wifi_BLE_SDK/GD32VW55x_RELEASE_V1.0.2/MSDK/wpa_supplicant/src/ap\ieee802_11_shared.c **** 	return eid + 2 + len;
 882              		.loc 1 483 2
 883              		.loc 1 483 17 is_stmt 0
 884 0062 0909     		addi	s2,s2,2
 885              	.LVL89:
 886 0064 4A9A     		add	s4,s4,s2
 887              	.LVL90:
 888              	.L97:
 484:C:/Users/stapi/OneDrive/Desktop/GD32VW553/V1_MQTT_OK/GD32VW55X_Wifi_BLE_SDK/GD32VW55x_RELEASE_V1.0.2/MSDK/wpa_supplicant/src/ap\ieee802_11_shared.c **** }
 889              		.loc 1 484 1
 890 0066 5285     		mv	a0,s4
 891 0068 17030000 		tail	__riscv_restore_12
 891      67000300 
 892              		.cfi_remember_state
 893              		.cfi_restore 27
 894              		.cfi_restore 26
 895              		.cfi_restore 25
 896              		.cfi_restore 24
 897              		.cfi_restore 23
 898              		.cfi_restore 22
 899              		.cfi_restore 21
 900              		.cfi_restore 20
 901              		.cfi_restore 19
 902              		.cfi_restore 18
 903              		.cfi_restore 9
 904              		.cfi_restore 8
 905              		.cfi_restore 1
 906              		.cfi_def_cfa_offset 0
 907              	.LVL91:
 908              	.L73:
 909              		.cfi_restore_state
 463:C:/Users/stapi/OneDrive/Desktop/GD32VW553/V1_MQTT_OK/GD32VW55X_Wifi_BLE_SDK/GD32VW55x_RELEASE_V1.0.2/MSDK/wpa_supplicant/src/ap\ieee802_11_shared.c **** 
 910              		.loc 1 463 3 is_stmt 1
 911              	.LBB70:
 912              	.LBB67:
 345:C:/Users/stapi/OneDrive/Desktop/GD32VW553/V1_MQTT_OK/GD32VW55X_Wifi_BLE_SDK/GD32VW55x_RELEASE_V1.0.2/MSDK/wpa_supplicant/src/ap\ieee802_11_shared.c **** 
 913              		.loc 1 345 2
 345:C:/Users/stapi/OneDrive/Desktop/GD32VW553/V1_MQTT_OK/GD32VW55X_Wifi_BLE_SDK/GD32VW55x_RELEASE_V1.0.2/MSDK/wpa_supplicant/src/ap\ieee802_11_shared.c **** 
 914              		.loc 1 345 7 is_stmt 0
 915 0070 23000400 		sb	zero,0(s0)
 347:C:/Users/stapi/OneDrive/Desktop/GD32VW553/V1_MQTT_OK/GD32VW55X_Wifi_BLE_SDK/GD32VW55x_RELEASE_V1.0.2/MSDK/wpa_supplicant/src/ap\ieee802_11_shared.c **** 	case 0: /* Bits 0-7 */
 916              		.loc 1 347 2 is_stmt 1
 917 0074 A947     		li	a5,10
 918 0076 63E5A70D 		bgtu	s10,a5,.L46
 919 007a B3476D21 		sh2add	a5,s10,s6
 920 007e 9C43     		lw	a5,0(a5)
 921 0080 8287     		jr	a5
 922              		.section	.rodata.hostapd_eid_ext_capab,"a",@progbits
 923              		.align	2
 924              		.align	2
 925              	.L48:
 926 0000 00000000 		.word	.L56
 927 0004 00000000 		.word	.L55
 928 0008 00000000 		.word	.L54
 929 000c 00000000 		.word	.L53
 930 0010 00000000 		.word	.L52
 931 0014 00000000 		.word	.L46
 932 0018 00000000 		.word	.L51
 933 001c 00000000 		.word	.L46
 934 0020 00000000 		.word	.L50
 935 0024 00000000 		.word	.L49
 936 0028 00000000 		.word	.L47
 937              		.section	.text.hostapd_eid_ext_capab
 938              	.L56:
 939              	.LVL92:
 349:C:/Users/stapi/OneDrive/Desktop/GD32VW553/V1_MQTT_OK/GD32VW55X_Wifi_BLE_SDK/GD32VW55x_RELEASE_V1.0.2/MSDK/wpa_supplicant/src/ap\ieee802_11_shared.c **** 			*pos |= 0x01; /* Bit 0 - Coexistence management */
 940              		.loc 1 349 3
 349:C:/Users/stapi/OneDrive/Desktop/GD32VW553/V1_MQTT_OK/GD32VW55X_Wifi_BLE_SDK/GD32VW55x_RELEASE_V1.0.2/MSDK/wpa_supplicant/src/ap\ieee802_11_shared.c **** 			*pos |= 0x01; /* Bit 0 - Coexistence management */
 941              		.loc 1 349 18 is_stmt 0
 942 0082 DC40     		lw	a5,4(s1)
 349:C:/Users/stapi/OneDrive/Desktop/GD32VW553/V1_MQTT_OK/GD32VW55X_Wifi_BLE_SDK/GD32VW55x_RELEASE_V1.0.2/MSDK/wpa_supplicant/src/ap\ieee802_11_shared.c **** 			*pos |= 0x01; /* Bit 0 - Coexistence management */
 943              		.loc 1 349 6
 944 0084 83A70713 		lw	a5,304(a5)
 945 0088 99C3     		beq	a5,zero,.L57
 350:C:/Users/stapi/OneDrive/Desktop/GD32VW553/V1_MQTT_OK/GD32VW55X_Wifi_BLE_SDK/GD32VW55x_RELEASE_V1.0.2/MSDK/wpa_supplicant/src/ap\ieee802_11_shared.c **** 		if (hapd->iface->drv_flags & WPA_DRIVER_FLAGS_AP_CSA)
 946              		.loc 1 350 4 is_stmt 1
 350:C:/Users/stapi/OneDrive/Desktop/GD32VW553/V1_MQTT_OK/GD32VW55X_Wifi_BLE_SDK/GD32VW55x_RELEASE_V1.0.2/MSDK/wpa_supplicant/src/ap\ieee802_11_shared.c **** 		if (hapd->iface->drv_flags & WPA_DRIVER_FLAGS_AP_CSA)
 947              		.loc 1 350 9 is_stmt 0
 948 008a 23008401 		sb	s8,0(s0)
 949              	.L57:
 351:C:/Users/stapi/OneDrive/Desktop/GD32VW553/V1_MQTT_OK/GD32VW55X_Wifi_BLE_SDK/GD32VW55x_RELEASE_V1.0.2/MSDK/wpa_supplicant/src/ap\ieee802_11_shared.c **** 			*pos |= 0x04; /* Bit 2 - Extended Channel Switching */
 950              		.loc 1 351 3 is_stmt 1
 351:C:/Users/stapi/OneDrive/Desktop/GD32VW553/V1_MQTT_OK/GD32VW55X_Wifi_BLE_SDK/GD32VW55x_RELEASE_V1.0.2/MSDK/wpa_supplicant/src/ap\ieee802_11_shared.c **** 			*pos |= 0x04; /* Bit 2 - Extended Channel Switching */
 951              		.loc 1 351 18 is_stmt 0
 952 008e 9C40     		lw	a5,0(s1)
 351:C:/Users/stapi/OneDrive/Desktop/GD32VW553/V1_MQTT_OK/GD32VW55X_Wifi_BLE_SDK/GD32VW55x_RELEASE_V1.0.2/MSDK/wpa_supplicant/src/ap\ieee802_11_shared.c **** 			*pos |= 0x04; /* Bit 2 - Extended Channel Switching */
 953              		.loc 1 351 30
 954 0090 83A78743 		lw	a5,1080(a5)
 351:C:/Users/stapi/OneDrive/Desktop/GD32VW553/V1_MQTT_OK/GD32VW55X_Wifi_BLE_SDK/GD32VW55x_RELEASE_V1.0.2/MSDK/wpa_supplicant/src/ap\ieee802_11_shared.c **** 			*pos |= 0x04; /* Bit 2 - Extended Channel Switching */
 955              		.loc 1 351 6
 956 0094 63D6070A 		bge	a5,zero,.L46
 352:C:/Users/stapi/OneDrive/Desktop/GD32VW553/V1_MQTT_OK/GD32VW55X_Wifi_BLE_SDK/GD32VW55x_RELEASE_V1.0.2/MSDK/wpa_supplicant/src/ap\ieee802_11_shared.c **** 		break;
 957              		.loc 1 352 4 is_stmt 1
 352:C:/Users/stapi/OneDrive/Desktop/GD32VW553/V1_MQTT_OK/GD32VW55X_Wifi_BLE_SDK/GD32VW55x_RELEASE_V1.0.2/MSDK/wpa_supplicant/src/ap\ieee802_11_shared.c **** 		break;
 958              		.loc 1 352 9 is_stmt 0
 959 0098 83470400 		lbu	a5,0(s0)
 960 009c 93E74700 		ori	a5,a5,4
 961              	.LVL93:
 962              	.L136:
 438:C:/Users/stapi/OneDrive/Desktop/GD32VW553/V1_MQTT_OK/GD32VW55X_Wifi_BLE_SDK/GD32VW55x_RELEASE_V1.0.2/MSDK/wpa_supplicant/src/ap\ieee802_11_shared.c **** 		break;
 963              		.loc 1 438 9
 964 00a0 2300F400 		sb	a5,0(s0)
 965 00a4 71A8     		j	.L46
 966              	.LVL94:
 967              	.L55:
 355:C:/Users/stapi/OneDrive/Desktop/GD32VW553/V1_MQTT_OK/GD32VW55X_Wifi_BLE_SDK/GD32VW55x_RELEASE_V1.0.2/MSDK/wpa_supplicant/src/ap\ieee802_11_shared.c **** 			*pos |= 0x10; /* Bit 12 - Proxy ARP */
 968              		.loc 1 355 3 is_stmt 1
 355:C:/Users/stapi/OneDrive/Desktop/GD32VW553/V1_MQTT_OK/GD32VW55X_Wifi_BLE_SDK/GD32VW55x_RELEASE_V1.0.2/MSDK/wpa_supplicant/src/ap\ieee802_11_shared.c **** 			*pos |= 0x10; /* Bit 12 - Proxy ARP */
 969              		.loc 1 355 17 is_stmt 0
 970 00a6 9C44     		lw	a5,8(s1)
 355:C:/Users/stapi/OneDrive/Desktop/GD32VW553/V1_MQTT_OK/GD32VW55X_Wifi_BLE_SDK/GD32VW55x_RELEASE_V1.0.2/MSDK/wpa_supplicant/src/ap\ieee802_11_shared.c **** 			*pos |= 0x10; /* Bit 12 - Proxy ARP */
 971              		.loc 1 355 6
 972 00a8 83A78736 		lw	a5,872(a5)
 973 00ac 81C7     		beq	a5,zero,.L59
 356:C:/Users/stapi/OneDrive/Desktop/GD32VW553/V1_MQTT_OK/GD32VW55X_Wifi_BLE_SDK/GD32VW55x_RELEASE_V1.0.2/MSDK/wpa_supplicant/src/ap\ieee802_11_shared.c **** 		if (hapd->conf->coloc_intf_reporting) {
 974              		.loc 1 356 4 is_stmt 1
 356:C:/Users/stapi/OneDrive/Desktop/GD32VW553/V1_MQTT_OK/GD32VW55X_Wifi_BLE_SDK/GD32VW55x_RELEASE_V1.0.2/MSDK/wpa_supplicant/src/ap\ieee802_11_shared.c **** 		if (hapd->conf->coloc_intf_reporting) {
 975              		.loc 1 356 9 is_stmt 0
 976 00ae C147     		li	a5,16
 977 00b0 2300F400 		sb	a5,0(s0)
 978              	.L59:
 357:C:/Users/stapi/OneDrive/Desktop/GD32VW553/V1_MQTT_OK/GD32VW55X_Wifi_BLE_SDK/GD32VW55x_RELEASE_V1.0.2/MSDK/wpa_supplicant/src/ap\ieee802_11_shared.c **** 			/* Bit 13 - Collocated Interference Reporting */
 979              		.loc 1 357 3 is_stmt 1
 357:C:/Users/stapi/OneDrive/Desktop/GD32VW553/V1_MQTT_OK/GD32VW55X_Wifi_BLE_SDK/GD32VW55x_RELEASE_V1.0.2/MSDK/wpa_supplicant/src/ap\ieee802_11_shared.c **** 			/* Bit 13 - Collocated Interference Reporting */
 980              		.loc 1 357 17 is_stmt 0
 981 00b4 9C44     		lw	a5,8(s1)
 357:C:/Users/stapi/OneDrive/Desktop/GD32VW553/V1_MQTT_OK/GD32VW55X_Wifi_BLE_SDK/GD32VW55x_RELEASE_V1.0.2/MSDK/wpa_supplicant/src/ap\ieee802_11_shared.c **** 			/* Bit 13 - Collocated Interference Reporting */
 982              		.loc 1 357 6
 983 00b6 83A7473D 		lw	a5,980(a5)
 984 00ba D9C3     		beq	a5,zero,.L46
 359:C:/Users/stapi/OneDrive/Desktop/GD32VW553/V1_MQTT_OK/GD32VW55X_Wifi_BLE_SDK/GD32VW55x_RELEASE_V1.0.2/MSDK/wpa_supplicant/src/ap\ieee802_11_shared.c **** 		}
 985              		.loc 1 359 4 is_stmt 1
 359:C:/Users/stapi/OneDrive/Desktop/GD32VW553/V1_MQTT_OK/GD32VW55X_Wifi_BLE_SDK/GD32VW55x_RELEASE_V1.0.2/MSDK/wpa_supplicant/src/ap\ieee802_11_shared.c **** 		}
 986              		.loc 1 359 9 is_stmt 0
 987 00bc 83470400 		lbu	a5,0(s0)
 988 00c0 93E70702 		ori	a5,a5,32
 989 00c4 F1BF     		j	.L136
 990              	.L54:
 363:C:/Users/stapi/OneDrive/Desktop/GD32VW553/V1_MQTT_OK/GD32VW55X_Wifi_BLE_SDK/GD32VW55x_RELEASE_V1.0.2/MSDK/wpa_supplicant/src/ap\ieee802_11_shared.c **** 			*pos |= 0x02; /* Bit 17 - WNM-Sleep Mode */
 991              		.loc 1 363 3 is_stmt 1
 363:C:/Users/stapi/OneDrive/Desktop/GD32VW553/V1_MQTT_OK/GD32VW55X_Wifi_BLE_SDK/GD32VW55x_RELEASE_V1.0.2/MSDK/wpa_supplicant/src/ap\ieee802_11_shared.c **** 			*pos |= 0x02; /* Bit 17 - WNM-Sleep Mode */
 992              		.loc 1 363 17 is_stmt 0
 993 00c6 9C44     		lw	a5,8(s1)
 363:C:/Users/stapi/OneDrive/Desktop/GD32VW553/V1_MQTT_OK/GD32VW55X_Wifi_BLE_SDK/GD32VW55x_RELEASE_V1.0.2/MSDK/wpa_supplicant/src/ap\ieee802_11_shared.c **** 			*pos |= 0x02; /* Bit 17 - WNM-Sleep Mode */
 994              		.loc 1 363 6
 995 00c8 83A7472A 		lw	a5,676(a5)
 996 00cc 99C3     		beq	a5,zero,.L61
 364:C:/Users/stapi/OneDrive/Desktop/GD32VW553/V1_MQTT_OK/GD32VW55X_Wifi_BLE_SDK/GD32VW55x_RELEASE_V1.0.2/MSDK/wpa_supplicant/src/ap\ieee802_11_shared.c **** 		if (hapd->conf->bss_transition)
 997              		.loc 1 364 4 is_stmt 1
 364:C:/Users/stapi/OneDrive/Desktop/GD32VW553/V1_MQTT_OK/GD32VW55X_Wifi_BLE_SDK/GD32VW55x_RELEASE_V1.0.2/MSDK/wpa_supplicant/src/ap\ieee802_11_shared.c **** 		if (hapd->conf->bss_transition)
 998              		.loc 1 364 9 is_stmt 0
 999 00ce 2300B401 		sb	s11,0(s0)
 1000              	.L61:
 365:C:/Users/stapi/OneDrive/Desktop/GD32VW553/V1_MQTT_OK/GD32VW55X_Wifi_BLE_SDK/GD32VW55x_RELEASE_V1.0.2/MSDK/wpa_supplicant/src/ap\ieee802_11_shared.c **** 			*pos |= 0x08; /* Bit 19 - BSS Transition */
 1001              		.loc 1 365 3 is_stmt 1
 365:C:/Users/stapi/OneDrive/Desktop/GD32VW553/V1_MQTT_OK/GD32VW55X_Wifi_BLE_SDK/GD32VW55x_RELEASE_V1.0.2/MSDK/wpa_supplicant/src/ap\ieee802_11_shared.c **** 			*pos |= 0x08; /* Bit 19 - BSS Transition */
 1002              		.loc 1 365 17 is_stmt 0
 1003 00d2 9C44     		lw	a5,8(s1)
 365:C:/Users/stapi/OneDrive/Desktop/GD32VW553/V1_MQTT_OK/GD32VW55X_Wifi_BLE_SDK/GD32VW55x_RELEASE_V1.0.2/MSDK/wpa_supplicant/src/ap\ieee802_11_shared.c **** 			*pos |= 0x08; /* Bit 19 - BSS Transition */
 1004              		.loc 1 365 6
 1005 00d4 83A7C72A 		lw	a5,684(a5)
 1006 00d8 A5C7     		beq	a5,zero,.L46
 366:C:/Users/stapi/OneDrive/Desktop/GD32VW553/V1_MQTT_OK/GD32VW55X_Wifi_BLE_SDK/GD32VW55x_RELEASE_V1.0.2/MSDK/wpa_supplicant/src/ap\ieee802_11_shared.c **** 		break;
 1007              		.loc 1 366 4 is_stmt 1
 366:C:/Users/stapi/OneDrive/Desktop/GD32VW553/V1_MQTT_OK/GD32VW55X_Wifi_BLE_SDK/GD32VW55x_RELEASE_V1.0.2/MSDK/wpa_supplicant/src/ap\ieee802_11_shared.c **** 		break;
 1008              		.loc 1 366 9 is_stmt 0
 1009 00da 83470400 		lbu	a5,0(s0)
 1010 00de 93E78700 		ori	a5,a5,8
 1011 00e2 7DBF     		j	.L136
 1012              	.L53:
 372:C:/Users/stapi/OneDrive/Desktop/GD32VW553/V1_MQTT_OK/GD32VW55X_Wifi_BLE_SDK/GD32VW55x_RELEASE_V1.0.2/MSDK/wpa_supplicant/src/ap\ieee802_11_shared.c **** 			*pos |= 0x08; /* Bit 27 - UTC TSF Offset */
 1013              		.loc 1 372 3 is_stmt 1
 372:C:/Users/stapi/OneDrive/Desktop/GD32VW553/V1_MQTT_OK/GD32VW55X_Wifi_BLE_SDK/GD32VW55x_RELEASE_V1.0.2/MSDK/wpa_supplicant/src/ap\ieee802_11_shared.c **** 			*pos |= 0x08; /* Bit 27 - UTC TSF Offset */
 1014              		.loc 1 372 17 is_stmt 0
 1015 00e4 9C44     		lw	a5,8(s1)
 372:C:/Users/stapi/OneDrive/Desktop/GD32VW553/V1_MQTT_OK/GD32VW55X_Wifi_BLE_SDK/GD32VW55x_RELEASE_V1.0.2/MSDK/wpa_supplicant/src/ap\ieee802_11_shared.c **** 			*pos |= 0x08; /* Bit 27 - UTC TSF Offset */
 1016              		.loc 1 372 6
 1017 00e6 83A7C729 		lw	a5,668(a5)
 1018 00ea 6395B701 		bne	a5,s11,.L62
 373:C:/Users/stapi/OneDrive/Desktop/GD32VW553/V1_MQTT_OK/GD32VW55X_Wifi_BLE_SDK/GD32VW55x_RELEASE_V1.0.2/MSDK/wpa_supplicant/src/ap\ieee802_11_shared.c **** 		if (hapd->conf->interworking)
 1019              		.loc 1 373 4 is_stmt 1
 373:C:/Users/stapi/OneDrive/Desktop/GD32VW553/V1_MQTT_OK/GD32VW55X_Wifi_BLE_SDK/GD32VW55x_RELEASE_V1.0.2/MSDK/wpa_supplicant/src/ap\ieee802_11_shared.c **** 		if (hapd->conf->interworking)
 1020              		.loc 1 373 9 is_stmt 0
 1021 00ee A147     		li	a5,8
 1022 00f0 2300F400 		sb	a5,0(s0)
 1023              	.L62:
 374:C:/Users/stapi/OneDrive/Desktop/GD32VW553/V1_MQTT_OK/GD32VW55X_Wifi_BLE_SDK/GD32VW55x_RELEASE_V1.0.2/MSDK/wpa_supplicant/src/ap\ieee802_11_shared.c **** 			*pos |= 0x80; /* Bit 31 - Interworking */
 1024              		.loc 1 374 3 is_stmt 1
 374:C:/Users/stapi/OneDrive/Desktop/GD32VW553/V1_MQTT_OK/GD32VW55X_Wifi_BLE_SDK/GD32VW55x_RELEASE_V1.0.2/MSDK/wpa_supplicant/src/ap\ieee802_11_shared.c **** 			*pos |= 0x80; /* Bit 31 - Interworking */
 1025              		.loc 1 374 17 is_stmt 0
 1026 00f4 9C44     		lw	a5,8(s1)
 374:C:/Users/stapi/OneDrive/Desktop/GD32VW553/V1_MQTT_OK/GD32VW55X_Wifi_BLE_SDK/GD32VW55x_RELEASE_V1.0.2/MSDK/wpa_supplicant/src/ap\ieee802_11_shared.c **** 			*pos |= 0x80; /* Bit 31 - Interworking */
 1027              		.loc 1 374 6
 1028 00f6 83A7072B 		lw	a5,688(a5)
 1029              	.L140:
 382:C:/Users/stapi/OneDrive/Desktop/GD32VW553/V1_MQTT_OK/GD32VW55X_Wifi_BLE_SDK/GD32VW55x_RELEASE_V1.0.2/MSDK/wpa_supplicant/src/ap\ieee802_11_shared.c **** 			/* Bit 39 - TDLS Channel Switching Prohibited */
 1030              		.loc 1 382 6
 1031 00fa B9C3     		beq	a5,zero,.L46
 384:C:/Users/stapi/OneDrive/Desktop/GD32VW553/V1_MQTT_OK/GD32VW55X_Wifi_BLE_SDK/GD32VW55x_RELEASE_V1.0.2/MSDK/wpa_supplicant/src/ap\ieee802_11_shared.c **** 		}
 1032              		.loc 1 384 4 is_stmt 1
 384:C:/Users/stapi/OneDrive/Desktop/GD32VW553/V1_MQTT_OK/GD32VW55X_Wifi_BLE_SDK/GD32VW55x_RELEASE_V1.0.2/MSDK/wpa_supplicant/src/ap\ieee802_11_shared.c **** 		}
 1033              		.loc 1 384 9 is_stmt 0
 1034 00fc 83470400 		lbu	a5,0(s0)
 1035              	.L137:
 407:C:/Users/stapi/OneDrive/Desktop/GD32VW553/V1_MQTT_OK/GD32VW55X_Wifi_BLE_SDK/GD32VW55x_RELEASE_V1.0.2/MSDK/wpa_supplicant/src/ap\ieee802_11_shared.c **** 		break;
 1036              		.loc 1 407 4 is_stmt 1
 407:C:/Users/stapi/OneDrive/Desktop/GD32VW553/V1_MQTT_OK/GD32VW55X_Wifi_BLE_SDK/GD32VW55x_RELEASE_V1.0.2/MSDK/wpa_supplicant/src/ap\ieee802_11_shared.c **** 		break;
 1037              		.loc 1 407 9 is_stmt 0
 1038 0100 93E707F8 		ori	a5,a5,-128
 1039 0104 71BF     		j	.L136
 1040              	.L52:
 378:C:/Users/stapi/OneDrive/Desktop/GD32VW553/V1_MQTT_OK/GD32VW55X_Wifi_BLE_SDK/GD32VW55x_RELEASE_V1.0.2/MSDK/wpa_supplicant/src/ap\ieee802_11_shared.c **** 			*pos |= 0x01; /* Bit 32 - QoS Map */
 1041              		.loc 1 378 3 is_stmt 1
 378:C:/Users/stapi/OneDrive/Desktop/GD32VW553/V1_MQTT_OK/GD32VW55X_Wifi_BLE_SDK/GD32VW55x_RELEASE_V1.0.2/MSDK/wpa_supplicant/src/ap\ieee802_11_shared.c **** 			*pos |= 0x01; /* Bit 32 - QoS Map */
 1042              		.loc 1 378 17 is_stmt 0
 1043 0106 9C44     		lw	a5,8(s1)
 378:C:/Users/stapi/OneDrive/Desktop/GD32VW553/V1_MQTT_OK/GD32VW55X_Wifi_BLE_SDK/GD32VW55x_RELEASE_V1.0.2/MSDK/wpa_supplicant/src/ap\ieee802_11_shared.c **** 			*pos |= 0x01; /* Bit 32 - QoS Map */
 1044              		.loc 1 378 6
 1045 0108 83A70736 		lw	a5,864(a5)
 1046 010c 99C3     		beq	a5,zero,.L63
 379:C:/Users/stapi/OneDrive/Desktop/GD32VW553/V1_MQTT_OK/GD32VW55X_Wifi_BLE_SDK/GD32VW55x_RELEASE_V1.0.2/MSDK/wpa_supplicant/src/ap\ieee802_11_shared.c **** 		if (hapd->conf->tdls & TDLS_PROHIBIT)
 1047              		.loc 1 379 4 is_stmt 1
 379:C:/Users/stapi/OneDrive/Desktop/GD32VW553/V1_MQTT_OK/GD32VW55X_Wifi_BLE_SDK/GD32VW55x_RELEASE_V1.0.2/MSDK/wpa_supplicant/src/ap\ieee802_11_shared.c **** 		if (hapd->conf->tdls & TDLS_PROHIBIT)
 1048              		.loc 1 379 9 is_stmt 0
 1049 010e 23008401 		sb	s8,0(s0)
 1050              	.L63:
 380:C:/Users/stapi/OneDrive/Desktop/GD32VW553/V1_MQTT_OK/GD32VW55X_Wifi_BLE_SDK/GD32VW55x_RELEASE_V1.0.2/MSDK/wpa_supplicant/src/ap\ieee802_11_shared.c **** 			*pos |= 0x40; /* Bit 38 - TDLS Prohibited */
 1051              		.loc 1 380 3 is_stmt 1
 380:C:/Users/stapi/OneDrive/Desktop/GD32VW553/V1_MQTT_OK/GD32VW55X_Wifi_BLE_SDK/GD32VW55x_RELEASE_V1.0.2/MSDK/wpa_supplicant/src/ap\ieee802_11_shared.c **** 			*pos |= 0x40; /* Bit 38 - TDLS Prohibited */
 1052              		.loc 1 380 17 is_stmt 0
 1053 0112 9C44     		lw	a5,8(s1)
 380:C:/Users/stapi/OneDrive/Desktop/GD32VW553/V1_MQTT_OK/GD32VW55X_Wifi_BLE_SDK/GD32VW55x_RELEASE_V1.0.2/MSDK/wpa_supplicant/src/ap\ieee802_11_shared.c **** 			*pos |= 0x40; /* Bit 38 - TDLS Prohibited */
 1054              		.loc 1 380 24
 1055 0114 83A74729 		lw	a5,660(a5)
 1056 0118 858B     		andi	a5,a5,1
 380:C:/Users/stapi/OneDrive/Desktop/GD32VW553/V1_MQTT_OK/GD32VW55X_Wifi_BLE_SDK/GD32VW55x_RELEASE_V1.0.2/MSDK/wpa_supplicant/src/ap\ieee802_11_shared.c **** 			*pos |= 0x40; /* Bit 38 - TDLS Prohibited */
 1057              		.loc 1 380 6
 1058 011a 99C7     		beq	a5,zero,.L64
 381:C:/Users/stapi/OneDrive/Desktop/GD32VW553/V1_MQTT_OK/GD32VW55X_Wifi_BLE_SDK/GD32VW55x_RELEASE_V1.0.2/MSDK/wpa_supplicant/src/ap\ieee802_11_shared.c **** 		if (hapd->conf->tdls & TDLS_PROHIBIT_CHAN_SWITCH) {
 1059              		.loc 1 381 4 is_stmt 1
 381:C:/Users/stapi/OneDrive/Desktop/GD32VW553/V1_MQTT_OK/GD32VW55X_Wifi_BLE_SDK/GD32VW55x_RELEASE_V1.0.2/MSDK/wpa_supplicant/src/ap\ieee802_11_shared.c **** 		if (hapd->conf->tdls & TDLS_PROHIBIT_CHAN_SWITCH) {
 1060              		.loc 1 381 9 is_stmt 0
 1061 011c 83470400 		lbu	a5,0(s0)
 1062 0120 93E70704 		ori	a5,a5,64
 1063 0124 2300F400 		sb	a5,0(s0)
 1064              	.L64:
 382:C:/Users/stapi/OneDrive/Desktop/GD32VW553/V1_MQTT_OK/GD32VW55X_Wifi_BLE_SDK/GD32VW55x_RELEASE_V1.0.2/MSDK/wpa_supplicant/src/ap\ieee802_11_shared.c **** 			/* Bit 39 - TDLS Channel Switching Prohibited */
 1065              		.loc 1 382 3 is_stmt 1
 382:C:/Users/stapi/OneDrive/Desktop/GD32VW553/V1_MQTT_OK/GD32VW55X_Wifi_BLE_SDK/GD32VW55x_RELEASE_V1.0.2/MSDK/wpa_supplicant/src/ap\ieee802_11_shared.c **** 			/* Bit 39 - TDLS Channel Switching Prohibited */
 1066              		.loc 1 382 17 is_stmt 0
 1067 0128 9C44     		lw	a5,8(s1)
 382:C:/Users/stapi/OneDrive/Desktop/GD32VW553/V1_MQTT_OK/GD32VW55X_Wifi_BLE_SDK/GD32VW55x_RELEASE_V1.0.2/MSDK/wpa_supplicant/src/ap\ieee802_11_shared.c **** 			/* Bit 39 - TDLS Channel Switching Prohibited */
 1068              		.loc 1 382 24
 1069 012a 83A74729 		lw	a5,660(a5)
 1070 012e 898B     		andi	a5,a5,2
 1071 0130 E9B7     		j	.L140
 1072              	.L51:
 398:C:/Users/stapi/OneDrive/Desktop/GD32VW553/V1_MQTT_OK/GD32VW55X_Wifi_BLE_SDK/GD32VW55x_RELEASE_V1.0.2/MSDK/wpa_supplicant/src/ap\ieee802_11_shared.c **** 			*pos |= 0x01; /* Bit 48 - UTF-8 SSID */
 1073              		.loc 1 398 3 is_stmt 1
 398:C:/Users/stapi/OneDrive/Desktop/GD32VW553/V1_MQTT_OK/GD32VW55X_Wifi_BLE_SDK/GD32VW55x_RELEASE_V1.0.2/MSDK/wpa_supplicant/src/ap\ieee802_11_shared.c **** 			*pos |= 0x01; /* Bit 48 - UTF-8 SSID */
 1074              		.loc 1 398 7 is_stmt 0
 1075 0132 9C44     		lw	a5,8(s1)
 1076 0134 83C7070E 		lbu	a5,224(a5)
 398:C:/Users/stapi/OneDrive/Desktop/GD32VW553/V1_MQTT_OK/GD32VW55X_Wifi_BLE_SDK/GD32VW55x_RELEASE_V1.0.2/MSDK/wpa_supplicant/src/ap\ieee802_11_shared.c **** 			*pos |= 0x01; /* Bit 48 - UTF-8 SSID */
 1077              		.loc 1 398 6
 1078 0138 898B     		andi	a5,a5,2
 1079 013a 99C3     		beq	a5,zero,.L46
 399:C:/Users/stapi/OneDrive/Desktop/GD32VW553/V1_MQTT_OK/GD32VW55X_Wifi_BLE_SDK/GD32VW55x_RELEASE_V1.0.2/MSDK/wpa_supplicant/src/ap\ieee802_11_shared.c **** 		break;
 1080              		.loc 1 399 4 is_stmt 1
 399:C:/Users/stapi/OneDrive/Desktop/GD32VW553/V1_MQTT_OK/GD32VW55X_Wifi_BLE_SDK/GD32VW55x_RELEASE_V1.0.2/MSDK/wpa_supplicant/src/ap\ieee802_11_shared.c **** 		break;
 1081              		.loc 1 399 9 is_stmt 0
 1082 013c 23008401 		sb	s8,0(s0)
 1083              	.LVL95:
 1084              	.L46:
 1085              	.LBE67:
 1086              	.LBE70:
 465:C:/Users/stapi/OneDrive/Desktop/GD32VW553/V1_MQTT_OK/GD32VW55X_Wifi_BLE_SDK/GD32VW55x_RELEASE_V1.0.2/MSDK/wpa_supplicant/src/ap\ieee802_11_shared.c **** 			*pos &= ~hapd->iface->extended_capa_mask[i];
 1087              		.loc 1 465 3 is_stmt 1
 465:C:/Users/stapi/OneDrive/Desktop/GD32VW553/V1_MQTT_OK/GD32VW55X_Wifi_BLE_SDK/GD32VW55x_RELEASE_V1.0.2/MSDK/wpa_supplicant/src/ap\ieee802_11_shared.c **** 			*pos &= ~hapd->iface->extended_capa_mask[i];
 1088              		.loc 1 465 15 is_stmt 0
 1089 0140 9C40     		lw	a5,0(s1)
 465:C:/Users/stapi/OneDrive/Desktop/GD32VW553/V1_MQTT_OK/GD32VW55X_Wifi_BLE_SDK/GD32VW55x_RELEASE_V1.0.2/MSDK/wpa_supplicant/src/ap\ieee802_11_shared.c **** 			*pos &= ~hapd->iface->extended_capa_mask[i];
 1090              		.loc 1 465 6
 1091 0142 83A64745 		lw	a3,1108(a5)
 1092 0146 63F6DA02 		bleu	a3,s5,.L71
 466:C:/Users/stapi/OneDrive/Desktop/GD32VW553/V1_MQTT_OK/GD32VW55X_Wifi_BLE_SDK/GD32VW55x_RELEASE_V1.0.2/MSDK/wpa_supplicant/src/ap\ieee802_11_shared.c **** 			*pos |= hapd->iface->extended_capa[i];
 1093              		.loc 1 466 4 is_stmt 1
 466:C:/Users/stapi/OneDrive/Desktop/GD32VW553/V1_MQTT_OK/GD32VW55X_Wifi_BLE_SDK/GD32VW55x_RELEASE_V1.0.2/MSDK/wpa_supplicant/src/ap\ieee802_11_shared.c **** 			*pos |= hapd->iface->extended_capa[i];
 1094              		.loc 1 466 44 is_stmt 0
 1095 014a 83A70745 		lw	a5,1104(a5)
 466:C:/Users/stapi/OneDrive/Desktop/GD32VW553/V1_MQTT_OK/GD32VW55X_Wifi_BLE_SDK/GD32VW55x_RELEASE_V1.0.2/MSDK/wpa_supplicant/src/ap\ieee802_11_shared.c **** 			*pos |= hapd->iface->extended_capa[i];
 1096              		.loc 1 466 9
 1097 014e 83460400 		lbu	a3,0(s0)
 466:C:/Users/stapi/OneDrive/Desktop/GD32VW553/V1_MQTT_OK/GD32VW55X_Wifi_BLE_SDK/GD32VW55x_RELEASE_V1.0.2/MSDK/wpa_supplicant/src/ap\ieee802_11_shared.c **** 			*pos |= hapd->iface->extended_capa[i];
 1098              		.loc 1 466 44
 1099 0152 D697     		add	a5,a5,s5
 466:C:/Users/stapi/OneDrive/Desktop/GD32VW553/V1_MQTT_OK/GD32VW55X_Wifi_BLE_SDK/GD32VW55x_RELEASE_V1.0.2/MSDK/wpa_supplicant/src/ap\ieee802_11_shared.c **** 			*pos |= hapd->iface->extended_capa[i];
 1100              		.loc 1 466 9
 1101 0154 83C70700 		lbu	a5,0(a5)
 1102 0158 B3F7F640 		andn	a5,a3,a5
 1103 015c 2300F400 		sb	a5,0(s0)
 467:C:/Users/stapi/OneDrive/Desktop/GD32VW553/V1_MQTT_OK/GD32VW55X_Wifi_BLE_SDK/GD32VW55x_RELEASE_V1.0.2/MSDK/wpa_supplicant/src/ap\ieee802_11_shared.c **** 		}
 1104              		.loc 1 467 4 is_stmt 1
 467:C:/Users/stapi/OneDrive/Desktop/GD32VW553/V1_MQTT_OK/GD32VW55X_Wifi_BLE_SDK/GD32VW55x_RELEASE_V1.0.2/MSDK/wpa_supplicant/src/ap\ieee802_11_shared.c **** 		}
 1105              		.loc 1 467 23 is_stmt 0
 1106 0160 9440     		lw	a3,0(s1)
 467:C:/Users/stapi/OneDrive/Desktop/GD32VW553/V1_MQTT_OK/GD32VW55X_Wifi_BLE_SDK/GD32VW55x_RELEASE_V1.0.2/MSDK/wpa_supplicant/src/ap\ieee802_11_shared.c **** 		}
 1107              		.loc 1 467 38
 1108 0162 83A6C644 		lw	a3,1100(a3)
 1109 0166 D696     		add	a3,a3,s5
 467:C:/Users/stapi/OneDrive/Desktop/GD32VW553/V1_MQTT_OK/GD32VW55X_Wifi_BLE_SDK/GD32VW55x_RELEASE_V1.0.2/MSDK/wpa_supplicant/src/ap\ieee802_11_shared.c **** 		}
 1110              		.loc 1 467 9
 1111 0168 83C60600 		lbu	a3,0(a3)
 1112 016c D58F     		or	a5,a5,a3
 1113 016e 2300F400 		sb	a5,0(s0)
 1114              	.L71:
 470:C:/Users/stapi/OneDrive/Desktop/GD32VW553/V1_MQTT_OK/GD32VW55X_Wifi_BLE_SDK/GD32VW55x_RELEASE_V1.0.2/MSDK/wpa_supplicant/src/ap\ieee802_11_shared.c **** 			*pos &= ~hapd->conf->ext_capa_mask[i];
 1115              		.loc 1 470 3 is_stmt 1
 470:C:/Users/stapi/OneDrive/Desktop/GD32VW553/V1_MQTT_OK/GD32VW55X_Wifi_BLE_SDK/GD32VW55x_RELEASE_V1.0.2/MSDK/wpa_supplicant/src/ap\ieee802_11_shared.c **** 			*pos &= ~hapd->conf->ext_capa_mask[i];
 1116              		.loc 1 470 6 is_stmt 0
 1117 0172 B947     		li	a5,14
 1118 0174 63E3A703 		bgtu	s10,a5,.L72
 471:C:/Users/stapi/OneDrive/Desktop/GD32VW553/V1_MQTT_OK/GD32VW55X_Wifi_BLE_SDK/GD32VW55x_RELEASE_V1.0.2/MSDK/wpa_supplicant/src/ap\ieee802_11_shared.c **** 			*pos |= hapd->conf->ext_capa[i];
 1119              		.loc 1 471 4 is_stmt 1
 471:C:/Users/stapi/OneDrive/Desktop/GD32VW553/V1_MQTT_OK/GD32VW55X_Wifi_BLE_SDK/GD32VW55x_RELEASE_V1.0.2/MSDK/wpa_supplicant/src/ap\ieee802_11_shared.c **** 			*pos |= hapd->conf->ext_capa[i];
 1120              		.loc 1 471 38 is_stmt 0
 1121 0178 9C44     		lw	a5,8(s1)
 471:C:/Users/stapi/OneDrive/Desktop/GD32VW553/V1_MQTT_OK/GD32VW55X_Wifi_BLE_SDK/GD32VW55x_RELEASE_V1.0.2/MSDK/wpa_supplicant/src/ap\ieee802_11_shared.c **** 			*pos |= hapd->conf->ext_capa[i];
 1122              		.loc 1 471 9
 1123 017a 83460400 		lbu	a3,0(s0)
 471:C:/Users/stapi/OneDrive/Desktop/GD32VW553/V1_MQTT_OK/GD32VW55X_Wifi_BLE_SDK/GD32VW55x_RELEASE_V1.0.2/MSDK/wpa_supplicant/src/ap\ieee802_11_shared.c **** 			*pos |= hapd->conf->ext_capa[i];
 1124              		.loc 1 471 38
 1125 017e D697     		add	a5,a5,s5
 471:C:/Users/stapi/OneDrive/Desktop/GD32VW553/V1_MQTT_OK/GD32VW55X_Wifi_BLE_SDK/GD32VW55x_RELEASE_V1.0.2/MSDK/wpa_supplicant/src/ap\ieee802_11_shared.c **** 			*pos |= hapd->conf->ext_capa[i];
 1126              		.loc 1 471 9
 1127 0180 83C7473E 		lbu	a5,996(a5)
 1128 0184 B3F7F640 		andn	a5,a3,a5
 1129 0188 2300F400 		sb	a5,0(s0)
 472:C:/Users/stapi/OneDrive/Desktop/GD32VW553/V1_MQTT_OK/GD32VW55X_Wifi_BLE_SDK/GD32VW55x_RELEASE_V1.0.2/MSDK/wpa_supplicant/src/ap\ieee802_11_shared.c **** 		}
 1130              		.loc 1 472 4 is_stmt 1
 472:C:/Users/stapi/OneDrive/Desktop/GD32VW553/V1_MQTT_OK/GD32VW55X_Wifi_BLE_SDK/GD32VW55x_RELEASE_V1.0.2/MSDK/wpa_supplicant/src/ap\ieee802_11_shared.c **** 		}
 1131              		.loc 1 472 32 is_stmt 0
 1132 018c 9444     		lw	a3,8(s1)
 1133 018e D696     		add	a3,a3,s5
 472:C:/Users/stapi/OneDrive/Desktop/GD32VW553/V1_MQTT_OK/GD32VW55X_Wifi_BLE_SDK/GD32VW55x_RELEASE_V1.0.2/MSDK/wpa_supplicant/src/ap\ieee802_11_shared.c **** 		}
 1134              		.loc 1 472 9
 1135 0190 83C6363F 		lbu	a3,1011(a3)
 1136 0194 D58F     		or	a5,a5,a3
 1137 0196 2300F400 		sb	a5,0(s0)
 1138              	.L72:
 462:C:/Users/stapi/OneDrive/Desktop/GD32VW553/V1_MQTT_OK/GD32VW55X_Wifi_BLE_SDK/GD32VW55x_RELEASE_V1.0.2/MSDK/wpa_supplicant/src/ap\ieee802_11_shared.c **** 		hostapd_ext_capab_byte(hapd, pos, i);
 1139              		.loc 1 462 23 is_stmt 1 discriminator 2
 1140              	.LVL96:
 462:C:/Users/stapi/OneDrive/Desktop/GD32VW553/V1_MQTT_OK/GD32VW55X_Wifi_BLE_SDK/GD32VW55x_RELEASE_V1.0.2/MSDK/wpa_supplicant/src/ap\ieee802_11_shared.c **** 		hostapd_ext_capab_byte(hapd, pos, i);
 1141              		.loc 1 462 31 is_stmt 0 discriminator 2
 1142 019a 0504     		addi	s0,s0,1
 1143              	.LVL97:
 1144 019c 850A     		addi	s5,s5,1
 1145              	.LVL98:
 1146 019e 5DB5     		j	.L45
 1147              	.LVL99:
 1148              	.L50:
 1149              	.LBB71:
 1150              	.LBB68:
 404:C:/Users/stapi/OneDrive/Desktop/GD32VW553/V1_MQTT_OK/GD32VW55X_Wifi_BLE_SDK/GD32VW55x_RELEASE_V1.0.2/MSDK/wpa_supplicant/src/ap\ieee802_11_shared.c **** 			*pos |= 0x40; /* Bit 70 - FTM responder */
 1151              		.loc 1 404 3 is_stmt 1
 404:C:/Users/stapi/OneDrive/Desktop/GD32VW553/V1_MQTT_OK/GD32VW55X_Wifi_BLE_SDK/GD32VW55x_RELEASE_V1.0.2/MSDK/wpa_supplicant/src/ap\ieee802_11_shared.c **** 			*pos |= 0x40; /* Bit 70 - FTM responder */
 1152              		.loc 1 404 17 is_stmt 0
 1153 01a0 9C44     		lw	a5,8(s1)
 404:C:/Users/stapi/OneDrive/Desktop/GD32VW553/V1_MQTT_OK/GD32VW55X_Wifi_BLE_SDK/GD32VW55x_RELEASE_V1.0.2/MSDK/wpa_supplicant/src/ap\ieee802_11_shared.c **** 			*pos |= 0x40; /* Bit 70 - FTM responder */
 1154              		.loc 1 404 6
 1155 01a2 83A7073C 		lw	a5,960(a5)
 405:C:/Users/stapi/OneDrive/Desktop/GD32VW553/V1_MQTT_OK/GD32VW55X_Wifi_BLE_SDK/GD32VW55x_RELEASE_V1.0.2/MSDK/wpa_supplicant/src/ap\ieee802_11_shared.c **** 		if (hapd->conf->ftm_initiator)
 1156              		.loc 1 405 9
 1157 01a6 B337F000 		snez	a5,a5
 1158 01aa 9A07     		slli	a5,a5,6
 1159 01ac 2300F400 		sb	a5,0(s0)
 406:C:/Users/stapi/OneDrive/Desktop/GD32VW553/V1_MQTT_OK/GD32VW55X_Wifi_BLE_SDK/GD32VW55x_RELEASE_V1.0.2/MSDK/wpa_supplicant/src/ap\ieee802_11_shared.c **** 			*pos |= 0x80; /* Bit 71 - FTM initiator */
 1160              		.loc 1 406 3 is_stmt 1
 406:C:/Users/stapi/OneDrive/Desktop/GD32VW553/V1_MQTT_OK/GD32VW55X_Wifi_BLE_SDK/GD32VW55x_RELEASE_V1.0.2/MSDK/wpa_supplicant/src/ap\ieee802_11_shared.c **** 			*pos |= 0x80; /* Bit 71 - FTM initiator */
 1161              		.loc 1 406 17 is_stmt 0
 1162 01b0 9444     		lw	a3,8(s1)
 406:C:/Users/stapi/OneDrive/Desktop/GD32VW553/V1_MQTT_OK/GD32VW55X_Wifi_BLE_SDK/GD32VW55x_RELEASE_V1.0.2/MSDK/wpa_supplicant/src/ap\ieee802_11_shared.c **** 			*pos |= 0x80; /* Bit 71 - FTM initiator */
 1163              		.loc 1 406 6
 1164 01b2 83A6463C 		lw	a3,964(a3)
 1165 01b6 C9D6     		beq	a3,zero,.L46
 1166 01b8 A1B7     		j	.L137
 1167              	.L49:
 416:C:/Users/stapi/OneDrive/Desktop/GD32VW553/V1_MQTT_OK/GD32VW55X_Wifi_BLE_SDK/GD32VW55x_RELEASE_V1.0.2/MSDK/wpa_supplicant/src/ap\ieee802_11_shared.c **** 		    hostapd_get_he_twt_responder(hapd, IEEE80211_MODE_AP))
 1168              		.loc 1 416 3 is_stmt 1
 416:C:/Users/stapi/OneDrive/Desktop/GD32VW553/V1_MQTT_OK/GD32VW55X_Wifi_BLE_SDK/GD32VW55x_RELEASE_V1.0.2/MSDK/wpa_supplicant/src/ap\ieee802_11_shared.c **** 		    hostapd_get_he_twt_responder(hapd, IEEE80211_MODE_AP))
 1169              		.loc 1 416 18 is_stmt 0
 1170 01ba DC40     		lw	a5,4(s1)
 416:C:/Users/stapi/OneDrive/Desktop/GD32VW553/V1_MQTT_OK/GD32VW55X_Wifi_BLE_SDK/GD32VW55x_RELEASE_V1.0.2/MSDK/wpa_supplicant/src/ap\ieee802_11_shared.c **** 		    hostapd_get_he_twt_responder(hapd, IEEE80211_MODE_AP))
 1171              		.loc 1 416 6
 1172 01bc 83A74715 		lw	a5,340(a5)
 1173 01c0 C1D3     		beq	a5,zero,.L46
 417:C:/Users/stapi/OneDrive/Desktop/GD32VW553/V1_MQTT_OK/GD32VW55X_Wifi_BLE_SDK/GD32VW55x_RELEASE_V1.0.2/MSDK/wpa_supplicant/src/ap\ieee802_11_shared.c **** 			*pos |= 0x40; /* Bit 78 - TWT responder */
 1174              		.loc 1 417 7
 1175 01c2 8945     		li	a1,2
 1176 01c4 2685     		mv	a0,s1
 1177 01c6 97000000 		call	hostapd_get_he_twt_responder
 1177      E7800000 
 1178              	.LVL100:
 416:C:/Users/stapi/OneDrive/Desktop/GD32VW553/V1_MQTT_OK/GD32VW55X_Wifi_BLE_SDK/GD32VW55x_RELEASE_V1.0.2/MSDK/wpa_supplicant/src/ap\ieee802_11_shared.c **** 		    hostapd_get_he_twt_responder(hapd, IEEE80211_MODE_AP))
 1179              		.loc 1 416 32
 1180 01ce 2DD9     		beq	a0,zero,.L46
 418:C:/Users/stapi/OneDrive/Desktop/GD32VW553/V1_MQTT_OK/GD32VW55X_Wifi_BLE_SDK/GD32VW55x_RELEASE_V1.0.2/MSDK/wpa_supplicant/src/ap\ieee802_11_shared.c **** #endif /* CONFIG_IEEE80211AX */
 1181              		.loc 1 418 4 is_stmt 1
 418:C:/Users/stapi/OneDrive/Desktop/GD32VW553/V1_MQTT_OK/GD32VW55X_Wifi_BLE_SDK/GD32VW55x_RELEASE_V1.0.2/MSDK/wpa_supplicant/src/ap\ieee802_11_shared.c **** #endif /* CONFIG_IEEE80211AX */
 1182              		.loc 1 418 9 is_stmt 0
 1183 01d0 83470400 		lbu	a5,0(s0)
 1184 01d4 93E70704 		ori	a5,a5,64
 1185 01d8 E1B5     		j	.L136
 1186              	.L47:
 423:C:/Users/stapi/OneDrive/Desktop/GD32VW553/V1_MQTT_OK/GD32VW55X_Wifi_BLE_SDK/GD32VW55x_RELEASE_V1.0.2/MSDK/wpa_supplicant/src/ap\ieee802_11_shared.c **** 		    wpa_key_mgmt_sae(hapd->conf->wpa_key_mgmt)) {
 1187              		.loc 1 423 3 is_stmt 1
 423:C:/Users/stapi/OneDrive/Desktop/GD32VW553/V1_MQTT_OK/GD32VW55X_Wifi_BLE_SDK/GD32VW55x_RELEASE_V1.0.2/MSDK/wpa_supplicant/src/ap\ieee802_11_shared.c **** 		    wpa_key_mgmt_sae(hapd->conf->wpa_key_mgmt)) {
 1188              		.loc 1 423 11 is_stmt 0
 1189 01da 8844     		lw	a0,8(s1)
 423:C:/Users/stapi/OneDrive/Desktop/GD32VW553/V1_MQTT_OK/GD32VW55X_Wifi_BLE_SDK/GD32VW55x_RELEASE_V1.0.2/MSDK/wpa_supplicant/src/ap\ieee802_11_shared.c **** 		    wpa_key_mgmt_sae(hapd->conf->wpa_key_mgmt)) {
 1190              		.loc 1 423 6
 1191 01dc 83274514 		lw	a5,324(a0)
 1192 01e0 9DC3     		beq	a5,zero,.L67
 1193              	.LVL101:
 1194              	.LBB63:
 1195              	.LBB60:
 1196              		.loc 4 113 2 is_stmt 1
 1197              		.loc 4 113 16 is_stmt 0
 1198 01e2 8327C514 		lw	a5,332(a0)
 1199 01e6 B3F77701 		and	a5,a5,s7
 1200              	.LBE60:
 1201              	.LBE63:
 423:C:/Users/stapi/OneDrive/Desktop/GD32VW553/V1_MQTT_OK/GD32VW55X_Wifi_BLE_SDK/GD32VW55x_RELEASE_V1.0.2/MSDK/wpa_supplicant/src/ap\ieee802_11_shared.c **** 		    wpa_key_mgmt_sae(hapd->conf->wpa_key_mgmt)) {
 1202              		.loc 1 423 23
 1203 01ea 91CF     		beq	a5,zero,.L67
 1204              	.LBB64:
 425:C:/Users/stapi/OneDrive/Desktop/GD32VW553/V1_MQTT_OK/GD32VW55X_Wifi_BLE_SDK/GD32VW55x_RELEASE_V1.0.2/MSDK/wpa_supplicant/src/ap\ieee802_11_shared.c **** 
 1205              		.loc 1 425 4 is_stmt 1
 425:C:/Users/stapi/OneDrive/Desktop/GD32VW553/V1_MQTT_OK/GD32VW55X_Wifi_BLE_SDK/GD32VW55x_RELEASE_V1.0.2/MSDK/wpa_supplicant/src/ap\ieee802_11_shared.c **** 
 1206              		.loc 1 425 17 is_stmt 0
 1207 01ec 97000000 		call	hostapd_sae_pw_id_in_use
 1207      E7800000 
 1208              	.LVL102:
 427:C:/Users/stapi/OneDrive/Desktop/GD32VW553/V1_MQTT_OK/GD32VW55X_Wifi_BLE_SDK/GD32VW55x_RELEASE_V1.0.2/MSDK/wpa_supplicant/src/ap\ieee802_11_shared.c **** 				*pos |= 0x02; /* Bit 81 - SAE Password
 1209              		.loc 1 427 4 is_stmt 1
 427:C:/Users/stapi/OneDrive/Desktop/GD32VW553/V1_MQTT_OK/GD32VW55X_Wifi_BLE_SDK/GD32VW55x_RELEASE_V1.0.2/MSDK/wpa_supplicant/src/ap\ieee802_11_shared.c **** 				*pos |= 0x02; /* Bit 81 - SAE Password
 1210              		.loc 1 427 7 is_stmt 0
 1211 01f4 09C9     		beq	a0,zero,.L67
 428:C:/Users/stapi/OneDrive/Desktop/GD32VW553/V1_MQTT_OK/GD32VW55X_Wifi_BLE_SDK/GD32VW55x_RELEASE_V1.0.2/MSDK/wpa_supplicant/src/ap\ieee802_11_shared.c **** 					       * Identifiers In Use */
 1212              		.loc 1 428 5 is_stmt 1
 428:C:/Users/stapi/OneDrive/Desktop/GD32VW553/V1_MQTT_OK/GD32VW55X_Wifi_BLE_SDK/GD32VW55x_RELEASE_V1.0.2/MSDK/wpa_supplicant/src/ap\ieee802_11_shared.c **** 					       * Identifiers In Use */
 1213              		.loc 1 428 10 is_stmt 0
 1214 01f6 83470400 		lbu	a5,0(s0)
 430:C:/Users/stapi/OneDrive/Desktop/GD32VW553/V1_MQTT_OK/GD32VW55X_Wifi_BLE_SDK/GD32VW55x_RELEASE_V1.0.2/MSDK/wpa_supplicant/src/ap\ieee802_11_shared.c **** 				*pos |= 0x04; /* Bit 82 - SAE Password
 1215              		.loc 1 430 4 is_stmt 1
 430:C:/Users/stapi/OneDrive/Desktop/GD32VW553/V1_MQTT_OK/GD32VW55X_Wifi_BLE_SDK/GD32VW55x_RELEASE_V1.0.2/MSDK/wpa_supplicant/src/ap\ieee802_11_shared.c **** 				*pos |= 0x04; /* Bit 82 - SAE Password
 1216              		.loc 1 430 7 is_stmt 0
 1217 01fa 6305B503 		beq	a0,s11,.L69
 428:C:/Users/stapi/OneDrive/Desktop/GD32VW553/V1_MQTT_OK/GD32VW55X_Wifi_BLE_SDK/GD32VW55x_RELEASE_V1.0.2/MSDK/wpa_supplicant/src/ap\ieee802_11_shared.c **** 					       * Identifiers In Use */
 1218              		.loc 1 428 10
 1219 01fe 93E72700 		ori	a5,a5,2
 1220              	.L135:
 431:C:/Users/stapi/OneDrive/Desktop/GD32VW553/V1_MQTT_OK/GD32VW55X_Wifi_BLE_SDK/GD32VW55x_RELEASE_V1.0.2/MSDK/wpa_supplicant/src/ap\ieee802_11_shared.c **** 					       * Identifiers Used Exclusively */
 1221              		.loc 1 431 10
 1222 0202 2300F400 		sb	a5,0(s0)
 1223              	.LVL103:
 1224              	.L67:
 1225              	.LBE64:
 435:C:/Users/stapi/OneDrive/Desktop/GD32VW553/V1_MQTT_OK/GD32VW55X_Wifi_BLE_SDK/GD32VW55x_RELEASE_V1.0.2/MSDK/wpa_supplicant/src/ap\ieee802_11_shared.c **** 		    (hapd->iface->drv_flags &
 1226              		.loc 1 435 3 is_stmt 1
 435:C:/Users/stapi/OneDrive/Desktop/GD32VW553/V1_MQTT_OK/GD32VW55X_Wifi_BLE_SDK/GD32VW55x_RELEASE_V1.0.2/MSDK/wpa_supplicant/src/ap\ieee802_11_shared.c **** 		    (hapd->iface->drv_flags &
 1227              		.loc 1 435 17 is_stmt 0
 1228 0206 9C44     		lw	a5,8(s1)
 435:C:/Users/stapi/OneDrive/Desktop/GD32VW553/V1_MQTT_OK/GD32VW55X_Wifi_BLE_SDK/GD32VW55x_RELEASE_V1.0.2/MSDK/wpa_supplicant/src/ap\ieee802_11_shared.c **** 		    (hapd->iface->drv_flags &
 1229              		.loc 1 435 6
 1230 0208 83A78715 		lw	a5,344(a5)
 1231 020c 95DB     		beq	a5,zero,.L46
 436:C:/Users/stapi/OneDrive/Desktop/GD32VW553/V1_MQTT_OK/GD32VW55X_Wifi_BLE_SDK/GD32VW55x_RELEASE_V1.0.2/MSDK/wpa_supplicant/src/ap\ieee802_11_shared.c **** 		     WPA_DRIVER_FLAGS_BEACON_PROTECTION))
 1232              		.loc 1 436 19
 1233 020e 9C40     		lw	a5,0(s1)
 436:C:/Users/stapi/OneDrive/Desktop/GD32VW553/V1_MQTT_OK/GD32VW55X_Wifi_BLE_SDK/GD32VW55x_RELEASE_V1.0.2/MSDK/wpa_supplicant/src/ap\ieee802_11_shared.c **** 		     WPA_DRIVER_FLAGS_BEACON_PROTECTION))
 1234              		.loc 1 436 31
 1235 0210 83A7C743 		lw	a5,1084(a5)
 1236 0214 B3F79701 		and	a5,a5,s9
 435:C:/Users/stapi/OneDrive/Desktop/GD32VW553/V1_MQTT_OK/GD32VW55X_Wifi_BLE_SDK/GD32VW55x_RELEASE_V1.0.2/MSDK/wpa_supplicant/src/ap\ieee802_11_shared.c **** 		    (hapd->iface->drv_flags &
 1237              		.loc 1 435 31
 1238 0218 85D7     		beq	a5,zero,.L46
 438:C:/Users/stapi/OneDrive/Desktop/GD32VW553/V1_MQTT_OK/GD32VW55X_Wifi_BLE_SDK/GD32VW55x_RELEASE_V1.0.2/MSDK/wpa_supplicant/src/ap\ieee802_11_shared.c **** 		break;
 1239              		.loc 1 438 4 is_stmt 1
 438:C:/Users/stapi/OneDrive/Desktop/GD32VW553/V1_MQTT_OK/GD32VW55X_Wifi_BLE_SDK/GD32VW55x_RELEASE_V1.0.2/MSDK/wpa_supplicant/src/ap\ieee802_11_shared.c **** 		break;
 1240              		.loc 1 438 9 is_stmt 0
 1241 021a 83470400 		lbu	a5,0(s0)
 1242 021e 93E70701 		ori	a5,a5,16
 1243 0222 BDBD     		j	.L136
 1244              	.LVL104:
 1245              	.L69:
 1246              	.LBB65:
 431:C:/Users/stapi/OneDrive/Desktop/GD32VW553/V1_MQTT_OK/GD32VW55X_Wifi_BLE_SDK/GD32VW55x_RELEASE_V1.0.2/MSDK/wpa_supplicant/src/ap\ieee802_11_shared.c **** 					       * Identifiers Used Exclusively */
 1247              		.loc 1 431 5 is_stmt 1
 431:C:/Users/stapi/OneDrive/Desktop/GD32VW553/V1_MQTT_OK/GD32VW55X_Wifi_BLE_SDK/GD32VW55x_RELEASE_V1.0.2/MSDK/wpa_supplicant/src/ap\ieee802_11_shared.c **** 					       * Identifiers Used Exclusively */
 1248              		.loc 1 431 10 is_stmt 0
 1249 0224 93E76700 		ori	a5,a5,6
 1250 0228 E9BF     		j	.L135
 1251              	.LVL105:
 1252              	.L76:
 1253              	.LBE65:
 1254              	.LBE68:
 1255              	.LBE71:
 477:C:/Users/stapi/OneDrive/Desktop/GD32VW553/V1_MQTT_OK/GD32VW55X_Wifi_BLE_SDK/GD32VW55x_RELEASE_V1.0.2/MSDK/wpa_supplicant/src/ap\ieee802_11_shared.c **** 		eid[1] = len;
 1256              		.loc 1 477 3 is_stmt 1
 477:C:/Users/stapi/OneDrive/Desktop/GD32VW553/V1_MQTT_OK/GD32VW55X_Wifi_BLE_SDK/GD32VW55x_RELEASE_V1.0.2/MSDK/wpa_supplicant/src/ap\ieee802_11_shared.c **** 		eid[1] = len;
 1257              		.loc 1 477 6 is_stmt 0
 1258 022a 7D19     		addi	s2,s2,-1
 1259              	.LVL106:
 1260 022c 1379F90F 		andi	s2,s2,0xff
 1261              	.LVL107:
 478:C:/Users/stapi/OneDrive/Desktop/GD32VW553/V1_MQTT_OK/GD32VW55X_Wifi_BLE_SDK/GD32VW55x_RELEASE_V1.0.2/MSDK/wpa_supplicant/src/ap\ieee802_11_shared.c **** 	}
 1262              		.loc 1 478 3 is_stmt 1
 478:C:/Users/stapi/OneDrive/Desktop/GD32VW553/V1_MQTT_OK/GD32VW55X_Wifi_BLE_SDK/GD32VW55x_RELEASE_V1.0.2/MSDK/wpa_supplicant/src/ap\ieee802_11_shared.c **** 	}
 1263              		.loc 1 478 10 is_stmt 0
 1264 0230 A3002A01 		sb	s2,1(s4)
 1265 0234 05B5     		j	.L74
 1266              		.cfi_endproc
 1267              	.LFE172:
 1269              		.section	.text.hostapd_eid_qos_map_set,"ax",@progbits
 1270              		.align	1
 1271              		.globl	hostapd_eid_qos_map_set
 1273              	hostapd_eid_qos_map_set:
 1274              	.LFB173:
 485:C:/Users/stapi/OneDrive/Desktop/GD32VW553/V1_MQTT_OK/GD32VW55X_Wifi_BLE_SDK/GD32VW55x_RELEASE_V1.0.2/MSDK/wpa_supplicant/src/ap\ieee802_11_shared.c **** 
 486:C:/Users/stapi/OneDrive/Desktop/GD32VW553/V1_MQTT_OK/GD32VW55X_Wifi_BLE_SDK/GD32VW55x_RELEASE_V1.0.2/MSDK/wpa_supplicant/src/ap\ieee802_11_shared.c **** 
 487:C:/Users/stapi/OneDrive/Desktop/GD32VW553/V1_MQTT_OK/GD32VW55X_Wifi_BLE_SDK/GD32VW55x_RELEASE_V1.0.2/MSDK/wpa_supplicant/src/ap\ieee802_11_shared.c **** u8 * hostapd_eid_qos_map_set(struct hostapd_data *hapd, u8 *eid)
 488:C:/Users/stapi/OneDrive/Desktop/GD32VW553/V1_MQTT_OK/GD32VW55X_Wifi_BLE_SDK/GD32VW55x_RELEASE_V1.0.2/MSDK/wpa_supplicant/src/ap\ieee802_11_shared.c **** {
 1275              		.loc 1 488 1 is_stmt 1
 1276              		.cfi_startproc
 1277              	.LVL108:
 1278 0000 17030000 		call	t0,__riscv_save_2
 1278      E7020300 
