   1              		.file	"ieee802_11_vht.c"
   2              		.option nopic
   3              		.attribute arch, "rv32i2p0_m2p0_a2p0_f2p0_c2p0_b_p0p94"
   4              		.attribute unaligned_access, 0
   5              		.attribute stack_align, 16
   6              		.text
   7              	.Ltext0:
   8              		.cfi_sections	.debug_frame
   9              		.section	.text.hostapd_eid_vht_capabilities,"ax",@progbits
  10              		.align	1
  11              		.globl	hostapd_eid_vht_capabilities
  13              	hostapd_eid_vht_capabilities:
  14              	.LFB139:
  15              		.file 1 "C:/Users/stapi/OneDrive/Desktop/GD32VW553/V1_MQTT_OK/GD32VW55X_Wifi_BLE_SDK/GD32VW55x_REL
   1:C:/Users/stapi/OneDrive/Desktop/GD32VW553/V1_MQTT_OK/GD32VW55X_Wifi_BLE_SDK/GD32VW55x_RELEASE_V1.0.2/MSDK/wpa_supplicant/src/ap\ieee802_11_vht.c **** /*
   2:C:/Users/stapi/OneDrive/Desktop/GD32VW553/V1_MQTT_OK/GD32VW55X_Wifi_BLE_SDK/GD32VW55x_RELEASE_V1.0.2/MSDK/wpa_supplicant/src/ap\ieee802_11_vht.c ****  * hostapd / IEEE 802.11ac VHT
   3:C:/Users/stapi/OneDrive/Desktop/GD32VW553/V1_MQTT_OK/GD32VW55X_Wifi_BLE_SDK/GD32VW55x_RELEASE_V1.0.2/MSDK/wpa_supplicant/src/ap\ieee802_11_vht.c ****  * Copyright (c) 2002-2009, Jouni Malinen <j@w1.fi>
   4:C:/Users/stapi/OneDrive/Desktop/GD32VW553/V1_MQTT_OK/GD32VW55X_Wifi_BLE_SDK/GD32VW55x_RELEASE_V1.0.2/MSDK/wpa_supplicant/src/ap\ieee802_11_vht.c ****  *
   5:C:/Users/stapi/OneDrive/Desktop/GD32VW553/V1_MQTT_OK/GD32VW55X_Wifi_BLE_SDK/GD32VW55x_RELEASE_V1.0.2/MSDK/wpa_supplicant/src/ap\ieee802_11_vht.c ****  * This program is free software; you can redistribute it and/or modify
   6:C:/Users/stapi/OneDrive/Desktop/GD32VW553/V1_MQTT_OK/GD32VW55X_Wifi_BLE_SDK/GD32VW55x_RELEASE_V1.0.2/MSDK/wpa_supplicant/src/ap\ieee802_11_vht.c ****  * it under the terms of BSD license
   7:C:/Users/stapi/OneDrive/Desktop/GD32VW553/V1_MQTT_OK/GD32VW55X_Wifi_BLE_SDK/GD32VW55x_RELEASE_V1.0.2/MSDK/wpa_supplicant/src/ap\ieee802_11_vht.c ****  *
   8:C:/Users/stapi/OneDrive/Desktop/GD32VW553/V1_MQTT_OK/GD32VW55X_Wifi_BLE_SDK/GD32VW55x_RELEASE_V1.0.2/MSDK/wpa_supplicant/src/ap\ieee802_11_vht.c ****  * See README and COPYING for more details.
   9:C:/Users/stapi/OneDrive/Desktop/GD32VW553/V1_MQTT_OK/GD32VW55X_Wifi_BLE_SDK/GD32VW55x_RELEASE_V1.0.2/MSDK/wpa_supplicant/src/ap\ieee802_11_vht.c ****  */
  10:C:/Users/stapi/OneDrive/Desktop/GD32VW553/V1_MQTT_OK/GD32VW55X_Wifi_BLE_SDK/GD32VW55x_RELEASE_V1.0.2/MSDK/wpa_supplicant/src/ap\ieee802_11_vht.c **** 
  11:C:/Users/stapi/OneDrive/Desktop/GD32VW553/V1_MQTT_OK/GD32VW55X_Wifi_BLE_SDK/GD32VW55x_RELEASE_V1.0.2/MSDK/wpa_supplicant/src/ap\ieee802_11_vht.c **** #include "utils/includes.h"
  12:C:/Users/stapi/OneDrive/Desktop/GD32VW553/V1_MQTT_OK/GD32VW55X_Wifi_BLE_SDK/GD32VW55x_RELEASE_V1.0.2/MSDK/wpa_supplicant/src/ap\ieee802_11_vht.c **** 
  13:C:/Users/stapi/OneDrive/Desktop/GD32VW553/V1_MQTT_OK/GD32VW55X_Wifi_BLE_SDK/GD32VW55x_RELEASE_V1.0.2/MSDK/wpa_supplicant/src/ap\ieee802_11_vht.c **** #include "utils/common.h"
  14:C:/Users/stapi/OneDrive/Desktop/GD32VW553/V1_MQTT_OK/GD32VW55X_Wifi_BLE_SDK/GD32VW55x_RELEASE_V1.0.2/MSDK/wpa_supplicant/src/ap\ieee802_11_vht.c **** #include "common/ieee802_11_defs.h"
  15:C:/Users/stapi/OneDrive/Desktop/GD32VW553/V1_MQTT_OK/GD32VW55X_Wifi_BLE_SDK/GD32VW55x_RELEASE_V1.0.2/MSDK/wpa_supplicant/src/ap\ieee802_11_vht.c **** #include "hostapd.h"
  16:C:/Users/stapi/OneDrive/Desktop/GD32VW553/V1_MQTT_OK/GD32VW55X_Wifi_BLE_SDK/GD32VW55x_RELEASE_V1.0.2/MSDK/wpa_supplicant/src/ap\ieee802_11_vht.c **** #include "ap_config.h"
  17:C:/Users/stapi/OneDrive/Desktop/GD32VW553/V1_MQTT_OK/GD32VW55X_Wifi_BLE_SDK/GD32VW55x_RELEASE_V1.0.2/MSDK/wpa_supplicant/src/ap\ieee802_11_vht.c **** #include "sta_info.h"
  18:C:/Users/stapi/OneDrive/Desktop/GD32VW553/V1_MQTT_OK/GD32VW55X_Wifi_BLE_SDK/GD32VW55x_RELEASE_V1.0.2/MSDK/wpa_supplicant/src/ap\ieee802_11_vht.c **** #include "beacon.h"
  19:C:/Users/stapi/OneDrive/Desktop/GD32VW553/V1_MQTT_OK/GD32VW55X_Wifi_BLE_SDK/GD32VW55x_RELEASE_V1.0.2/MSDK/wpa_supplicant/src/ap\ieee802_11_vht.c **** #include "ieee802_11.h"
  20:C:/Users/stapi/OneDrive/Desktop/GD32VW553/V1_MQTT_OK/GD32VW55X_Wifi_BLE_SDK/GD32VW55x_RELEASE_V1.0.2/MSDK/wpa_supplicant/src/ap\ieee802_11_vht.c **** #include "dfs.h"
  21:C:/Users/stapi/OneDrive/Desktop/GD32VW553/V1_MQTT_OK/GD32VW55X_Wifi_BLE_SDK/GD32VW55x_RELEASE_V1.0.2/MSDK/wpa_supplicant/src/ap\ieee802_11_vht.c **** 
  22:C:/Users/stapi/OneDrive/Desktop/GD32VW553/V1_MQTT_OK/GD32VW55X_Wifi_BLE_SDK/GD32VW55x_RELEASE_V1.0.2/MSDK/wpa_supplicant/src/ap\ieee802_11_vht.c **** 
  23:C:/Users/stapi/OneDrive/Desktop/GD32VW553/V1_MQTT_OK/GD32VW55X_Wifi_BLE_SDK/GD32VW55x_RELEASE_V1.0.2/MSDK/wpa_supplicant/src/ap\ieee802_11_vht.c **** u8 * hostapd_eid_vht_capabilities(struct hostapd_data *hapd, u8 *eid, u32 nsts)
  24:C:/Users/stapi/OneDrive/Desktop/GD32VW553/V1_MQTT_OK/GD32VW55X_Wifi_BLE_SDK/GD32VW55x_RELEASE_V1.0.2/MSDK/wpa_supplicant/src/ap\ieee802_11_vht.c **** {
  16              		.loc 1 24 1
  17              		.cfi_startproc
  18              	.LVL0:
  19 0000 17030000 		call	t0,__riscv_save_4
  19      E7020300 
  20              		.cfi_offset 19, -20
  21              		.cfi_offset 18, -16
  22              		.cfi_offset 9, -12
  23              		.cfi_offset 8, -8
  24              		.cfi_offset 1, -4
  25              		.cfi_def_cfa_offset 32
  25:C:/Users/stapi/OneDrive/Desktop/GD32VW553/V1_MQTT_OK/GD32VW55X_Wifi_BLE_SDK/GD32VW55x_RELEASE_V1.0.2/MSDK/wpa_supplicant/src/ap\ieee802_11_vht.c **** 	struct ieee80211_vht_capabilities *cap;
  26              		.loc 1 25 2
  26:C:/Users/stapi/OneDrive/Desktop/GD32VW553/V1_MQTT_OK/GD32VW55X_Wifi_BLE_SDK/GD32VW55x_RELEASE_V1.0.2/MSDK/wpa_supplicant/src/ap\ieee802_11_vht.c **** 	struct hostapd_hw_modes *mode = hapd->iface->current_mode;
  27              		.loc 1 26 2
  28              		.loc 1 26 27 is_stmt 0
  29 0008 1C41     		lw	a5,0(a0)
  24:C:/Users/stapi/OneDrive/Desktop/GD32VW553/V1_MQTT_OK/GD32VW55X_Wifi_BLE_SDK/GD32VW55x_RELEASE_V1.0.2/MSDK/wpa_supplicant/src/ap\ieee802_11_vht.c **** 	struct ieee80211_vht_capabilities *cap;
  30              		.loc 1 24 1
  31 000a 2E84     		mv	s0,a1
  32              		.loc 1 26 27
  33 000c 83A94746 		lw	s3,1124(a5)
  34              	.LVL1:
  27:C:/Users/stapi/OneDrive/Desktop/GD32VW553/V1_MQTT_OK/GD32VW55X_Wifi_BLE_SDK/GD32VW55x_RELEASE_V1.0.2/MSDK/wpa_supplicant/src/ap\ieee802_11_vht.c **** 	u8 *pos = eid;
  35              		.loc 1 27 2 is_stmt 1
  28:C:/Users/stapi/OneDrive/Desktop/GD32VW553/V1_MQTT_OK/GD32VW55X_Wifi_BLE_SDK/GD32VW55x_RELEASE_V1.0.2/MSDK/wpa_supplicant/src/ap\ieee802_11_vht.c **** 
  29:C:/Users/stapi/OneDrive/Desktop/GD32VW553/V1_MQTT_OK/GD32VW55X_Wifi_BLE_SDK/GD32VW55x_RELEASE_V1.0.2/MSDK/wpa_supplicant/src/ap\ieee802_11_vht.c **** 	if (!mode || is_6ghz_op_class(hapd->iconf->op_class))
  36              		.loc 1 29 2
  37              		.loc 1 29 5 is_stmt 0
  38 0010 6380090A 		beq	s3,zero,.L3
  39              		.loc 1 29 15 discriminator 1
  40 0014 5C41     		lw	a5,4(a0)
  41 0016 2A89     		mv	s2,a0
  42 0018 B284     		mv	s1,a2
  43 001a 03C58701 		lbu	a0,24(a5)
  44              	.LVL2:
  45 001e 97000000 		call	is_6ghz_op_class
  45      E7800000 
  46              	.LVL3:
  47              		.loc 1 29 12 discriminator 1
  48 0026 49E5     		bne	a0,zero,.L3
  30:C:/Users/stapi/OneDrive/Desktop/GD32VW553/V1_MQTT_OK/GD32VW55X_Wifi_BLE_SDK/GD32VW55x_RELEASE_V1.0.2/MSDK/wpa_supplicant/src/ap\ieee802_11_vht.c **** 		return eid;
  31:C:/Users/stapi/OneDrive/Desktop/GD32VW553/V1_MQTT_OK/GD32VW55X_Wifi_BLE_SDK/GD32VW55x_RELEASE_V1.0.2/MSDK/wpa_supplicant/src/ap\ieee802_11_vht.c **** 
  32:C:/Users/stapi/OneDrive/Desktop/GD32VW553/V1_MQTT_OK/GD32VW55X_Wifi_BLE_SDK/GD32VW55x_RELEASE_V1.0.2/MSDK/wpa_supplicant/src/ap\ieee802_11_vht.c **** 	if (mode->mode == HOSTAPD_MODE_IEEE80211G && hapd->conf->vendor_vht &&
  49              		.loc 1 32 2 is_stmt 1
  50              		.loc 1 32 5 is_stmt 0
  51 0028 03A70900 		lw	a4,0(s3)
  52 002c 8547     		li	a5,1
  53 002e 6315F702 		bne	a4,a5,.L5
  54              		.loc 1 32 57 discriminator 1
  55 0032 83278900 		lw	a5,8(s2)
  56              		.loc 1 32 44 discriminator 1
  57 0036 83A7C73A 		lw	a5,940(a5)
  58 003a 99CF     		beq	a5,zero,.L5
  59              		.loc 1 32 70 discriminator 2
  60 003c 83A78902 		lw	a5,40(s3)
  61 0040 81EF     		bne	a5,zero,.L5
  33:C:/Users/stapi/OneDrive/Desktop/GD32VW553/V1_MQTT_OK/GD32VW55X_Wifi_BLE_SDK/GD32VW55x_RELEASE_V1.0.2/MSDK/wpa_supplicant/src/ap\ieee802_11_vht.c **** 	    mode->vht_capab == 0 && hapd->iface->hw_features) {
  62              		.loc 1 33 34
  63 0042 03270900 		lw	a4,0(s2)
  64              		.loc 1 33 41
  65 0046 8327C745 		lw	a5,1116(a4)
  66              		.loc 1 33 27
  67 004a 99C7     		beq	a5,zero,.L5
  68              	.LBB4:
  34:C:/Users/stapi/OneDrive/Desktop/GD32VW553/V1_MQTT_OK/GD32VW55X_Wifi_BLE_SDK/GD32VW55x_RELEASE_V1.0.2/MSDK/wpa_supplicant/src/ap\ieee802_11_vht.c **** 		int i;
  35:C:/Users/stapi/OneDrive/Desktop/GD32VW553/V1_MQTT_OK/GD32VW55X_Wifi_BLE_SDK/GD32VW55x_RELEASE_V1.0.2/MSDK/wpa_supplicant/src/ap\ieee802_11_vht.c **** 
  36:C:/Users/stapi/OneDrive/Desktop/GD32VW553/V1_MQTT_OK/GD32VW55X_Wifi_BLE_SDK/GD32VW55x_RELEASE_V1.0.2/MSDK/wpa_supplicant/src/ap\ieee802_11_vht.c **** 		for (i = 0; i < hapd->iface->num_hw_features; i++) {
  69              		.loc 1 36 30
  70 004c 03260746 		lw	a2,1120(a4)
  37:C:/Users/stapi/OneDrive/Desktop/GD32VW553/V1_MQTT_OK/GD32VW55X_Wifi_BLE_SDK/GD32VW55x_RELEASE_V1.0.2/MSDK/wpa_supplicant/src/ap\ieee802_11_vht.c **** 			if (hapd->iface->hw_features[i].mode ==
  71              		.loc 1 37 7
  72 0050 8945     		li	a1,2
  36:C:/Users/stapi/OneDrive/Desktop/GD32VW553/V1_MQTT_OK/GD32VW55X_Wifi_BLE_SDK/GD32VW55x_RELEASE_V1.0.2/MSDK/wpa_supplicant/src/ap\ieee802_11_vht.c **** 			if (hapd->iface->hw_features[i].mode ==
  73              		.loc 1 36 10
  74 0052 0147     		li	a4,0
  75              	.L6:
  76              	.LVL4:
  36:C:/Users/stapi/OneDrive/Desktop/GD32VW553/V1_MQTT_OK/GD32VW55X_Wifi_BLE_SDK/GD32VW55x_RELEASE_V1.0.2/MSDK/wpa_supplicant/src/ap\ieee802_11_vht.c **** 			if (hapd->iface->hw_features[i].mode ==
  77              		.loc 1 36 15 is_stmt 1 discriminator 1
  36:C:/Users/stapi/OneDrive/Desktop/GD32VW553/V1_MQTT_OK/GD32VW55X_Wifi_BLE_SDK/GD32VW55x_RELEASE_V1.0.2/MSDK/wpa_supplicant/src/ap\ieee802_11_vht.c **** 			if (hapd->iface->hw_features[i].mode ==
  78              		.loc 1 36 3 is_stmt 0 discriminator 1
  79 0054 6343C706 		bgt	a2,a4,.L7
  80              	.LVL5:
  81              	.L5:
  82              	.LBE4:
  38:C:/Users/stapi/OneDrive/Desktop/GD32VW553/V1_MQTT_OK/GD32VW55X_Wifi_BLE_SDK/GD32VW55x_RELEASE_V1.0.2/MSDK/wpa_supplicant/src/ap\ieee802_11_vht.c **** 			    HOSTAPD_MODE_IEEE80211A) {
  39:C:/Users/stapi/OneDrive/Desktop/GD32VW553/V1_MQTT_OK/GD32VW55X_Wifi_BLE_SDK/GD32VW55x_RELEASE_V1.0.2/MSDK/wpa_supplicant/src/ap\ieee802_11_vht.c **** 				mode = &hapd->iface->hw_features[i];
  40:C:/Users/stapi/OneDrive/Desktop/GD32VW553/V1_MQTT_OK/GD32VW55X_Wifi_BLE_SDK/GD32VW55x_RELEASE_V1.0.2/MSDK/wpa_supplicant/src/ap\ieee802_11_vht.c **** 				break;
  41:C:/Users/stapi/OneDrive/Desktop/GD32VW553/V1_MQTT_OK/GD32VW55X_Wifi_BLE_SDK/GD32VW55x_RELEASE_V1.0.2/MSDK/wpa_supplicant/src/ap\ieee802_11_vht.c **** 			}
  42:C:/Users/stapi/OneDrive/Desktop/GD32VW553/V1_MQTT_OK/GD32VW55X_Wifi_BLE_SDK/GD32VW55x_RELEASE_V1.0.2/MSDK/wpa_supplicant/src/ap\ieee802_11_vht.c **** 		}
  43:C:/Users/stapi/OneDrive/Desktop/GD32VW553/V1_MQTT_OK/GD32VW55X_Wifi_BLE_SDK/GD32VW55x_RELEASE_V1.0.2/MSDK/wpa_supplicant/src/ap\ieee802_11_vht.c **** 	}
  44:C:/Users/stapi/OneDrive/Desktop/GD32VW553/V1_MQTT_OK/GD32VW55X_Wifi_BLE_SDK/GD32VW55x_RELEASE_V1.0.2/MSDK/wpa_supplicant/src/ap\ieee802_11_vht.c **** 
  45:C:/Users/stapi/OneDrive/Desktop/GD32VW553/V1_MQTT_OK/GD32VW55X_Wifi_BLE_SDK/GD32VW55x_RELEASE_V1.0.2/MSDK/wpa_supplicant/src/ap\ieee802_11_vht.c **** 	*pos++ = WLAN_EID_VHT_CAP;
  83              		.loc 1 45 2 is_stmt 1
  84              		.loc 1 45 9 is_stmt 0
  85 0058 9307F0FB 		li	a5,-65
  86 005c 2300F400 		sb	a5,0(s0)
  46:C:/Users/stapi/OneDrive/Desktop/GD32VW553/V1_MQTT_OK/GD32VW55X_Wifi_BLE_SDK/GD32VW55x_RELEASE_V1.0.2/MSDK/wpa_supplicant/src/ap\ieee802_11_vht.c **** 	*pos++ = sizeof(*cap);
  87              		.loc 1 46 2 is_stmt 1
  88              	.LVL6:
  89              		.loc 1 46 9 is_stmt 0
  90 0060 B147     		li	a5,12
  91 0062 A300F400 		sb	a5,1(s0)
  47:C:/Users/stapi/OneDrive/Desktop/GD32VW553/V1_MQTT_OK/GD32VW55X_Wifi_BLE_SDK/GD32VW55x_RELEASE_V1.0.2/MSDK/wpa_supplicant/src/ap\ieee802_11_vht.c **** 
  48:C:/Users/stapi/OneDrive/Desktop/GD32VW553/V1_MQTT_OK/GD32VW55X_Wifi_BLE_SDK/GD32VW55x_RELEASE_V1.0.2/MSDK/wpa_supplicant/src/ap\ieee802_11_vht.c **** 	cap = (struct ieee80211_vht_capabilities *) pos;
  92              		.loc 1 48 2 is_stmt 1
  93              	.LVL7:
  49:C:/Users/stapi/OneDrive/Desktop/GD32VW553/V1_MQTT_OK/GD32VW55X_Wifi_BLE_SDK/GD32VW55x_RELEASE_V1.0.2/MSDK/wpa_supplicant/src/ap\ieee802_11_vht.c **** 	os_memset(cap, 0, sizeof(*cap));
  94              		.loc 1 49 2
  95 0066 3146     		li	a2,12
  96 0068 8145     		li	a1,0
  97 006a 13052400 		addi	a0,s0,2
  98              	.LVL8:
  99 006e 97000000 		call	os_memset
  99      E7800000 
 100              	.LVL9:
  50:C:/Users/stapi/OneDrive/Desktop/GD32VW553/V1_MQTT_OK/GD32VW55X_Wifi_BLE_SDK/GD32VW55x_RELEASE_V1.0.2/MSDK/wpa_supplicant/src/ap\ieee802_11_vht.c **** 	cap->vht_capabilities_info = host_to_le32(
 101              		.loc 1 50 2
 102              		.loc 1 50 31 is_stmt 0
 103 0076 83270900 		lw	a5,0(s2)
 104 007a DC47     		lw	a5,12(a5)
 105 007c 83A74713 		lw	a5,308(a5)
  51:C:/Users/stapi/OneDrive/Desktop/GD32VW553/V1_MQTT_OK/GD32VW55X_Wifi_BLE_SDK/GD32VW55x_RELEASE_V1.0.2/MSDK/wpa_supplicant/src/ap\ieee802_11_vht.c **** 		hapd->iface->conf->vht_capab);
  52:C:/Users/stapi/OneDrive/Desktop/GD32VW553/V1_MQTT_OK/GD32VW55X_Wifi_BLE_SDK/GD32VW55x_RELEASE_V1.0.2/MSDK/wpa_supplicant/src/ap\ieee802_11_vht.c **** 
  53:C:/Users/stapi/OneDrive/Desktop/GD32VW553/V1_MQTT_OK/GD32VW55X_Wifi_BLE_SDK/GD32VW55x_RELEASE_V1.0.2/MSDK/wpa_supplicant/src/ap\ieee802_11_vht.c **** 	if (nsts != 0) {
 106              		.loc 1 53 2 is_stmt 1
 107              		.loc 1 53 5 is_stmt 0
 108 0080 B9E4     		bne	s1,zero,.L8
  50:C:/Users/stapi/OneDrive/Desktop/GD32VW553/V1_MQTT_OK/GD32VW55X_Wifi_BLE_SDK/GD32VW55x_RELEASE_V1.0.2/MSDK/wpa_supplicant/src/ap\ieee802_11_vht.c **** 	cap->vht_capabilities_info = host_to_le32(
 109              		.loc 1 50 29
 110 0082 13D78700 		srli	a4,a5,8
 111 0086 2301F400 		sb	a5,2(s0)
 112 008a A301E400 		sb	a4,3(s0)
 113 008e 13D70701 		srli	a4,a5,16
 114 0092 E183     		srli	a5,a5,24
 115 0094 2302E400 		sb	a4,4(s0)
 116 0098 A302F400 		sb	a5,5(s0)
 117              	.L9:
  54:C:/Users/stapi/OneDrive/Desktop/GD32VW553/V1_MQTT_OK/GD32VW55X_Wifi_BLE_SDK/GD32VW55x_RELEASE_V1.0.2/MSDK/wpa_supplicant/src/ap\ieee802_11_vht.c **** 		u32 hapd_nsts;
  55:C:/Users/stapi/OneDrive/Desktop/GD32VW553/V1_MQTT_OK/GD32VW55X_Wifi_BLE_SDK/GD32VW55x_RELEASE_V1.0.2/MSDK/wpa_supplicant/src/ap\ieee802_11_vht.c **** 
  56:C:/Users/stapi/OneDrive/Desktop/GD32VW553/V1_MQTT_OK/GD32VW55X_Wifi_BLE_SDK/GD32VW55x_RELEASE_V1.0.2/MSDK/wpa_supplicant/src/ap\ieee802_11_vht.c **** 		hapd_nsts = le_to_host32(cap->vht_capabilities_info);
  57:C:/Users/stapi/OneDrive/Desktop/GD32VW553/V1_MQTT_OK/GD32VW55X_Wifi_BLE_SDK/GD32VW55x_RELEASE_V1.0.2/MSDK/wpa_supplicant/src/ap\ieee802_11_vht.c **** 		hapd_nsts = (hapd_nsts >> VHT_CAP_BEAMFORMEE_STS_OFFSET) & 7;
  58:C:/Users/stapi/OneDrive/Desktop/GD32VW553/V1_MQTT_OK/GD32VW55X_Wifi_BLE_SDK/GD32VW55x_RELEASE_V1.0.2/MSDK/wpa_supplicant/src/ap\ieee802_11_vht.c **** 		cap->vht_capabilities_info &=
  59:C:/Users/stapi/OneDrive/Desktop/GD32VW553/V1_MQTT_OK/GD32VW55X_Wifi_BLE_SDK/GD32VW55x_RELEASE_V1.0.2/MSDK/wpa_supplicant/src/ap\ieee802_11_vht.c **** 			~(host_to_le32(hapd_nsts <<
  60:C:/Users/stapi/OneDrive/Desktop/GD32VW553/V1_MQTT_OK/GD32VW55X_Wifi_BLE_SDK/GD32VW55x_RELEASE_V1.0.2/MSDK/wpa_supplicant/src/ap\ieee802_11_vht.c **** 				       VHT_CAP_BEAMFORMEE_STS_OFFSET));
  61:C:/Users/stapi/OneDrive/Desktop/GD32VW553/V1_MQTT_OK/GD32VW55X_Wifi_BLE_SDK/GD32VW55x_RELEASE_V1.0.2/MSDK/wpa_supplicant/src/ap\ieee802_11_vht.c **** 		cap->vht_capabilities_info |=
  62:C:/Users/stapi/OneDrive/Desktop/GD32VW553/V1_MQTT_OK/GD32VW55X_Wifi_BLE_SDK/GD32VW55x_RELEASE_V1.0.2/MSDK/wpa_supplicant/src/ap\ieee802_11_vht.c **** 			host_to_le32(nsts << VHT_CAP_BEAMFORMEE_STS_OFFSET);
  63:C:/Users/stapi/OneDrive/Desktop/GD32VW553/V1_MQTT_OK/GD32VW55X_Wifi_BLE_SDK/GD32VW55x_RELEASE_V1.0.2/MSDK/wpa_supplicant/src/ap\ieee802_11_vht.c **** 	}
  64:C:/Users/stapi/OneDrive/Desktop/GD32VW553/V1_MQTT_OK/GD32VW55X_Wifi_BLE_SDK/GD32VW55x_RELEASE_V1.0.2/MSDK/wpa_supplicant/src/ap\ieee802_11_vht.c **** 
  65:C:/Users/stapi/OneDrive/Desktop/GD32VW553/V1_MQTT_OK/GD32VW55X_Wifi_BLE_SDK/GD32VW55x_RELEASE_V1.0.2/MSDK/wpa_supplicant/src/ap\ieee802_11_vht.c **** 	/* Supported MCS set comes from hw */
  66:C:/Users/stapi/OneDrive/Desktop/GD32VW553/V1_MQTT_OK/GD32VW55X_Wifi_BLE_SDK/GD32VW55x_RELEASE_V1.0.2/MSDK/wpa_supplicant/src/ap\ieee802_11_vht.c **** 	os_memcpy(&cap->vht_supported_mcs_set, mode->vht_mcs_set, 8);
 118              		.loc 1 66 2 is_stmt 1
 119 009c 13056400 		addi	a0,s0,6
 120 00a0 2146     		li	a2,8
 121 00a2 9385C902 		addi	a1,s3,44
 122 00a6 97000000 		call	os_memcpy
 122      E7800000 
 123              	.LVL10:
  67:C:/Users/stapi/OneDrive/Desktop/GD32VW553/V1_MQTT_OK/GD32VW55X_Wifi_BLE_SDK/GD32VW55x_RELEASE_V1.0.2/MSDK/wpa_supplicant/src/ap\ieee802_11_vht.c **** 
  68:C:/Users/stapi/OneDrive/Desktop/GD32VW553/V1_MQTT_OK/GD32VW55X_Wifi_BLE_SDK/GD32VW55x_RELEASE_V1.0.2/MSDK/wpa_supplicant/src/ap\ieee802_11_vht.c **** 	pos += sizeof(*cap);
 124              		.loc 1 68 2
 125              		.loc 1 68 6 is_stmt 0
 126 00ae 3904     		addi	s0,s0,14
 127              	.LVL11:
  69:C:/Users/stapi/OneDrive/Desktop/GD32VW553/V1_MQTT_OK/GD32VW55X_Wifi_BLE_SDK/GD32VW55x_RELEASE_V1.0.2/MSDK/wpa_supplicant/src/ap\ieee802_11_vht.c **** 
  70:C:/Users/stapi/OneDrive/Desktop/GD32VW553/V1_MQTT_OK/GD32VW55X_Wifi_BLE_SDK/GD32VW55x_RELEASE_V1.0.2/MSDK/wpa_supplicant/src/ap\ieee802_11_vht.c **** 	return pos;
 128              		.loc 1 70 2 is_stmt 1
 129              	.L3:
  71:C:/Users/stapi/OneDrive/Desktop/GD32VW553/V1_MQTT_OK/GD32VW55X_Wifi_BLE_SDK/GD32VW55x_RELEASE_V1.0.2/MSDK/wpa_supplicant/src/ap\ieee802_11_vht.c **** }
 130              		.loc 1 71 1 is_stmt 0
 131 00b0 2285     		mv	a0,s0
 132 00b2 17030000 		tail	__riscv_restore_4
 132      67000300 
 133              		.cfi_remember_state
 134              		.cfi_restore 19
 135              		.cfi_restore 18
 136              		.cfi_restore 9
 137              		.cfi_restore 8
 138              		.cfi_restore 1
 139              		.cfi_def_cfa_offset 0
 140              	.LVL12:
 141              	.L7:
 142              		.cfi_restore_state
 143              	.LBB5:
  37:C:/Users/stapi/OneDrive/Desktop/GD32VW553/V1_MQTT_OK/GD32VW55X_Wifi_BLE_SDK/GD32VW55x_RELEASE_V1.0.2/MSDK/wpa_supplicant/src/ap\ieee802_11_vht.c **** 			    HOSTAPD_MODE_IEEE80211A) {
 144              		.loc 1 37 4 is_stmt 1
  37:C:/Users/stapi/OneDrive/Desktop/GD32VW553/V1_MQTT_OK/GD32VW55X_Wifi_BLE_SDK/GD32VW55x_RELEASE_V1.0.2/MSDK/wpa_supplicant/src/ap\ieee802_11_vht.c **** 			    HOSTAPD_MODE_IEEE80211A) {
 145              		.loc 1 37 32 is_stmt 0
 146 00ba BE86     		mv	a3,a5
  37:C:/Users/stapi/OneDrive/Desktop/GD32VW553/V1_MQTT_OK/GD32VW55X_Wifi_BLE_SDK/GD32VW55x_RELEASE_V1.0.2/MSDK/wpa_supplicant/src/ap\ieee802_11_vht.c **** 			    HOSTAPD_MODE_IEEE80211A) {
 147              		.loc 1 37 7
 148 00bc 8843     		lw	a0,0(a5)
 149 00be 9387C719 		addi	a5,a5,412
 150 00c2 6304B500 		beq	a0,a1,.L10
  36:C:/Users/stapi/OneDrive/Desktop/GD32VW553/V1_MQTT_OK/GD32VW55X_Wifi_BLE_SDK/GD32VW55x_RELEASE_V1.0.2/MSDK/wpa_supplicant/src/ap\ieee802_11_vht.c **** 			if (hapd->iface->hw_features[i].mode ==
 151              		.loc 1 36 49 is_stmt 1 discriminator 2
  36:C:/Users/stapi/OneDrive/Desktop/GD32VW553/V1_MQTT_OK/GD32VW55X_Wifi_BLE_SDK/GD32VW55x_RELEASE_V1.0.2/MSDK/wpa_supplicant/src/ap\ieee802_11_vht.c **** 			if (hapd->iface->hw_features[i].mode ==
 152              		.loc 1 36 50 is_stmt 0 discriminator 2
 153 00c6 0507     		addi	a4,a4,1
 154              	.LVL13:
 155 00c8 71B7     		j	.L6
 156              	.L10:
  37:C:/Users/stapi/OneDrive/Desktop/GD32VW553/V1_MQTT_OK/GD32VW55X_Wifi_BLE_SDK/GD32VW55x_RELEASE_V1.0.2/MSDK/wpa_supplicant/src/ap\ieee802_11_vht.c **** 			    HOSTAPD_MODE_IEEE80211A) {
 157              		.loc 1 37 32
 158 00ca B689     		mv	s3,a3
 159              	.LVL14:
 160 00cc 71B7     		j	.L5
 161              	.LVL15:
 162              	.L8:
 163              	.LBE5:
 164              	.LBB6:
  54:C:/Users/stapi/OneDrive/Desktop/GD32VW553/V1_MQTT_OK/GD32VW55X_Wifi_BLE_SDK/GD32VW55x_RELEASE_V1.0.2/MSDK/wpa_supplicant/src/ap\ieee802_11_vht.c **** 
 165              		.loc 1 54 3 is_stmt 1
  56:C:/Users/stapi/OneDrive/Desktop/GD32VW553/V1_MQTT_OK/GD32VW55X_Wifi_BLE_SDK/GD32VW55x_RELEASE_V1.0.2/MSDK/wpa_supplicant/src/ap\ieee802_11_vht.c **** 		hapd_nsts = (hapd_nsts >> VHT_CAP_BEAMFORMEE_STS_OFFSET) & 7;
 166              		.loc 1 56 3
  57:C:/Users/stapi/OneDrive/Desktop/GD32VW553/V1_MQTT_OK/GD32VW55X_Wifi_BLE_SDK/GD32VW55x_RELEASE_V1.0.2/MSDK/wpa_supplicant/src/ap\ieee802_11_vht.c **** 		cap->vht_capabilities_info &=
 167              		.loc 1 57 3
  58:C:/Users/stapi/OneDrive/Desktop/GD32VW553/V1_MQTT_OK/GD32VW55X_Wifi_BLE_SDK/GD32VW55x_RELEASE_V1.0.2/MSDK/wpa_supplicant/src/ap\ieee802_11_vht.c **** 			~(host_to_le32(hapd_nsts <<
 168              		.loc 1 58 3
  61:C:/Users/stapi/OneDrive/Desktop/GD32VW553/V1_MQTT_OK/GD32VW55X_Wifi_BLE_SDK/GD32VW55x_RELEASE_V1.0.2/MSDK/wpa_supplicant/src/ap\ieee802_11_vht.c **** 			host_to_le32(nsts << VHT_CAP_BEAMFORMEE_STS_OFFSET);
 169              		.loc 1 61 3
  58:C:/Users/stapi/OneDrive/Desktop/GD32VW553/V1_MQTT_OK/GD32VW55X_Wifi_BLE_SDK/GD32VW55x_RELEASE_V1.0.2/MSDK/wpa_supplicant/src/ap\ieee802_11_vht.c **** 			~(host_to_le32(hapd_nsts <<
 170              		.loc 1 58 30 is_stmt 0
 171 00ce 4977     		li	a4,-57344
 172 00d0 7D17     		addi	a4,a4,-1
 173 00d2 F98F     		and	a5,a5,a4
 174              	.LVL16:
  62:C:/Users/stapi/OneDrive/Desktop/GD32VW553/V1_MQTT_OK/GD32VW55X_Wifi_BLE_SDK/GD32VW55x_RELEASE_V1.0.2/MSDK/wpa_supplicant/src/ap\ieee802_11_vht.c **** 	}
 175              		.loc 1 62 4
 176 00d4 1396D400 		slli	a2,s1,13
  61:C:/Users/stapi/OneDrive/Desktop/GD32VW553/V1_MQTT_OK/GD32VW55X_Wifi_BLE_SDK/GD32VW55x_RELEASE_V1.0.2/MSDK/wpa_supplicant/src/ap\ieee802_11_vht.c **** 			host_to_le32(nsts << VHT_CAP_BEAMFORMEE_STS_OFFSET);
 177              		.loc 1 61 30
 178 00d8 5D8E     		or	a2,a5,a2
 179 00da 2301F400 		sb	a5,2(s0)
 180 00de 93578600 		srli	a5,a2,8
 181 00e2 A301F400 		sb	a5,3(s0)
 182 00e6 93570601 		srli	a5,a2,16
 183 00ea 6182     		srli	a2,a2,24
 184 00ec 2302F400 		sb	a5,4(s0)
 185 00f0 A302C400 		sb	a2,5(s0)
 186 00f4 65B7     		j	.L9
 187              	.LBE6:
 188              		.cfi_endproc
 189              	.LFE139:
 191              		.section	.text.hostapd_eid_vht_operation,"ax",@progbits
 192              		.align	1
 193              		.globl	hostapd_eid_vht_operation
 195              	hostapd_eid_vht_operation:
 196              	.LFB140:
  72:C:/Users/stapi/OneDrive/Desktop/GD32VW553/V1_MQTT_OK/GD32VW55X_Wifi_BLE_SDK/GD32VW55x_RELEASE_V1.0.2/MSDK/wpa_supplicant/src/ap\ieee802_11_vht.c **** 
  73:C:/Users/stapi/OneDrive/Desktop/GD32VW553/V1_MQTT_OK/GD32VW55X_Wifi_BLE_SDK/GD32VW55x_RELEASE_V1.0.2/MSDK/wpa_supplicant/src/ap\ieee802_11_vht.c **** 
  74:C:/Users/stapi/OneDrive/Desktop/GD32VW553/V1_MQTT_OK/GD32VW55X_Wifi_BLE_SDK/GD32VW55x_RELEASE_V1.0.2/MSDK/wpa_supplicant/src/ap\ieee802_11_vht.c **** u8 * hostapd_eid_vht_operation(struct hostapd_data *hapd, u8 *eid)
  75:C:/Users/stapi/OneDrive/Desktop/GD32VW553/V1_MQTT_OK/GD32VW55X_Wifi_BLE_SDK/GD32VW55x_RELEASE_V1.0.2/MSDK/wpa_supplicant/src/ap\ieee802_11_vht.c **** {
 197              		.loc 1 75 1 is_stmt 1
 198              		.cfi_startproc
 199              	.LVL17:
 200 0000 17030000 		call	t0,__riscv_save_2
 200      E7020300 
 201              		.cfi_offset 9, -12
 202              		.cfi_offset 8, -8
 203              		.cfi_offset 1, -4
 204              		.cfi_def_cfa_offset 16
  76:C:/Users/stapi/OneDrive/Desktop/GD32VW553/V1_MQTT_OK/GD32VW55X_Wifi_BLE_SDK/GD32VW55x_RELEASE_V1.0.2/MSDK/wpa_supplicant/src/ap\ieee802_11_vht.c **** 	struct ieee80211_vht_operation *oper;
 205              		.loc 1 76 2
  77:C:/Users/stapi/OneDrive/Desktop/GD32VW553/V1_MQTT_OK/GD32VW55X_Wifi_BLE_SDK/GD32VW55x_RELEASE_V1.0.2/MSDK/wpa_supplicant/src/ap\ieee802_11_vht.c **** 	u8 *pos = eid;
 206              		.loc 1 77 2
  78:C:/Users/stapi/OneDrive/Desktop/GD32VW553/V1_MQTT_OK/GD32VW55X_Wifi_BLE_SDK/GD32VW55x_RELEASE_V1.0.2/MSDK/wpa_supplicant/src/ap\ieee802_11_vht.c **** 
  79:C:/Users/stapi/OneDrive/Desktop/GD32VW553/V1_MQTT_OK/GD32VW55X_Wifi_BLE_SDK/GD32VW55x_RELEASE_V1.0.2/MSDK/wpa_supplicant/src/ap\ieee802_11_vht.c **** 	if (is_6ghz_op_class(hapd->iconf->op_class))
 207              		.loc 1 79 6 is_stmt 0
 208 0008 5C41     		lw	a5,4(a0)
  75:C:/Users/stapi/OneDrive/Desktop/GD32VW553/V1_MQTT_OK/GD32VW55X_Wifi_BLE_SDK/GD32VW55x_RELEASE_V1.0.2/MSDK/wpa_supplicant/src/ap\ieee802_11_vht.c **** 	struct ieee80211_vht_operation *oper;
 209              		.loc 1 75 1
 210 000a AA84     		mv	s1,a0
 211 000c 2E84     		mv	s0,a1
 212              	.LVL18:
 213              		.loc 1 79 2 is_stmt 1
 214              		.loc 1 79 6 is_stmt 0
 215 000e 03C58701 		lbu	a0,24(a5)
 216              	.LVL19:
 217 0012 97000000 		call	is_6ghz_op_class
 217      E7800000 
 218              	.LVL20:
 219              		.loc 1 79 5
 220 001a 2DE1     		bne	a0,zero,.L19
 221              	.LVL21:
 222              	.LBB9:
 223              	.LBB10:
  80:C:/Users/stapi/OneDrive/Desktop/GD32VW553/V1_MQTT_OK/GD32VW55X_Wifi_BLE_SDK/GD32VW55x_RELEASE_V1.0.2/MSDK/wpa_supplicant/src/ap\ieee802_11_vht.c **** 		return eid;
  81:C:/Users/stapi/OneDrive/Desktop/GD32VW553/V1_MQTT_OK/GD32VW55X_Wifi_BLE_SDK/GD32VW55x_RELEASE_V1.0.2/MSDK/wpa_supplicant/src/ap\ieee802_11_vht.c **** 
  82:C:/Users/stapi/OneDrive/Desktop/GD32VW553/V1_MQTT_OK/GD32VW55X_Wifi_BLE_SDK/GD32VW55x_RELEASE_V1.0.2/MSDK/wpa_supplicant/src/ap\ieee802_11_vht.c **** 	*pos++ = WLAN_EID_VHT_OPERATION;
 224              		.loc 1 82 2 is_stmt 1
 225              		.loc 1 82 9 is_stmt 0
 226 001c 930700FC 		li	a5,-64
 227 0020 2300F400 		sb	a5,0(s0)
  83:C:/Users/stapi/OneDrive/Desktop/GD32VW553/V1_MQTT_OK/GD32VW55X_Wifi_BLE_SDK/GD32VW55x_RELEASE_V1.0.2/MSDK/wpa_supplicant/src/ap\ieee802_11_vht.c **** 	*pos++ = sizeof(*oper);
 228              		.loc 1 83 2 is_stmt 1
 229              	.LVL22:
 230              		.loc 1 83 9 is_stmt 0
 231 0024 9547     		li	a5,5
 232 0026 A300F400 		sb	a5,1(s0)
  84:C:/Users/stapi/OneDrive/Desktop/GD32VW553/V1_MQTT_OK/GD32VW55X_Wifi_BLE_SDK/GD32VW55x_RELEASE_V1.0.2/MSDK/wpa_supplicant/src/ap\ieee802_11_vht.c **** 
  85:C:/Users/stapi/OneDrive/Desktop/GD32VW553/V1_MQTT_OK/GD32VW55X_Wifi_BLE_SDK/GD32VW55x_RELEASE_V1.0.2/MSDK/wpa_supplicant/src/ap\ieee802_11_vht.c **** 	oper = (struct ieee80211_vht_operation *) pos;
 233              		.loc 1 85 2 is_stmt 1
 234              	.LVL23:
  86:C:/Users/stapi/OneDrive/Desktop/GD32VW553/V1_MQTT_OK/GD32VW55X_Wifi_BLE_SDK/GD32VW55x_RELEASE_V1.0.2/MSDK/wpa_supplicant/src/ap\ieee802_11_vht.c **** 	os_memset(oper, 0, sizeof(*oper));
 235              		.loc 1 86 2
 236 002a 1546     		li	a2,5
 237 002c 8145     		li	a1,0
 238 002e 13052400 		addi	a0,s0,2
 239              	.LVL24:
 240 0032 97000000 		call	os_memset
 240      E7800000 
 241              	.LVL25:
  87:C:/Users/stapi/OneDrive/Desktop/GD32VW553/V1_MQTT_OK/GD32VW55X_Wifi_BLE_SDK/GD32VW55x_RELEASE_V1.0.2/MSDK/wpa_supplicant/src/ap\ieee802_11_vht.c **** 
  88:C:/Users/stapi/OneDrive/Desktop/GD32VW553/V1_MQTT_OK/GD32VW55X_Wifi_BLE_SDK/GD32VW55x_RELEASE_V1.0.2/MSDK/wpa_supplicant/src/ap\ieee802_11_vht.c **** 	/*
  89:C:/Users/stapi/OneDrive/Desktop/GD32VW553/V1_MQTT_OK/GD32VW55X_Wifi_BLE_SDK/GD32VW55x_RELEASE_V1.0.2/MSDK/wpa_supplicant/src/ap\ieee802_11_vht.c **** 	 * center freq = 5 GHz + (5 * index)
  90:C:/Users/stapi/OneDrive/Desktop/GD32VW553/V1_MQTT_OK/GD32VW55X_Wifi_BLE_SDK/GD32VW55x_RELEASE_V1.0.2/MSDK/wpa_supplicant/src/ap\ieee802_11_vht.c **** 	 * So index 42 gives center freq 5.210 GHz
  91:C:/Users/stapi/OneDrive/Desktop/GD32VW553/V1_MQTT_OK/GD32VW55X_Wifi_BLE_SDK/GD32VW55x_RELEASE_V1.0.2/MSDK/wpa_supplicant/src/ap\ieee802_11_vht.c **** 	 * which is channel 42 in 5G band
  92:C:/Users/stapi/OneDrive/Desktop/GD32VW553/V1_MQTT_OK/GD32VW55X_Wifi_BLE_SDK/GD32VW55x_RELEASE_V1.0.2/MSDK/wpa_supplicant/src/ap\ieee802_11_vht.c **** 	 */
  93:C:/Users/stapi/OneDrive/Desktop/GD32VW553/V1_MQTT_OK/GD32VW55X_Wifi_BLE_SDK/GD32VW55x_RELEASE_V1.0.2/MSDK/wpa_supplicant/src/ap\ieee802_11_vht.c **** 	oper->vht_op_info_chan_center_freq_seg0_idx =
 242              		.loc 1 93 2
  94:C:/Users/stapi/OneDrive/Desktop/GD32VW553/V1_MQTT_OK/GD32VW55X_Wifi_BLE_SDK/GD32VW55x_RELEASE_V1.0.2/MSDK/wpa_supplicant/src/ap\ieee802_11_vht.c **** 		hapd->iconf->vht_oper_centr_freq_seg0_idx;
 243              		.loc 1 94 7 is_stmt 0
 244 003a D840     		lw	a4,4(s1)
  95:C:/Users/stapi/OneDrive/Desktop/GD32VW553/V1_MQTT_OK/GD32VW55X_Wifi_BLE_SDK/GD32VW55x_RELEASE_V1.0.2/MSDK/wpa_supplicant/src/ap\ieee802_11_vht.c **** 	oper->vht_op_info_chan_center_freq_seg1_idx =
  96:C:/Users/stapi/OneDrive/Desktop/GD32VW553/V1_MQTT_OK/GD32VW55X_Wifi_BLE_SDK/GD32VW55x_RELEASE_V1.0.2/MSDK/wpa_supplicant/src/ap\ieee802_11_vht.c **** 		hapd->iconf->vht_oper_centr_freq_seg1_idx;
  97:C:/Users/stapi/OneDrive/Desktop/GD32VW553/V1_MQTT_OK/GD32VW55X_Wifi_BLE_SDK/GD32VW55x_RELEASE_V1.0.2/MSDK/wpa_supplicant/src/ap\ieee802_11_vht.c **** 
  98:C:/Users/stapi/OneDrive/Desktop/GD32VW553/V1_MQTT_OK/GD32VW55X_Wifi_BLE_SDK/GD32VW55x_RELEASE_V1.0.2/MSDK/wpa_supplicant/src/ap\ieee802_11_vht.c **** 	oper->vht_op_info_chwidth = hapd->iconf->vht_oper_chwidth;
  99:C:/Users/stapi/OneDrive/Desktop/GD32VW553/V1_MQTT_OK/GD32VW55X_Wifi_BLE_SDK/GD32VW55x_RELEASE_V1.0.2/MSDK/wpa_supplicant/src/ap\ieee802_11_vht.c **** 	if (hapd->iconf->vht_oper_chwidth == 2) {
 245              		.loc 1 99 5
 246 003c 0946     		li	a2,2
  94:C:/Users/stapi/OneDrive/Desktop/GD32VW553/V1_MQTT_OK/GD32VW55X_Wifi_BLE_SDK/GD32VW55x_RELEASE_V1.0.2/MSDK/wpa_supplicant/src/ap\ieee802_11_vht.c **** 		hapd->iconf->vht_oper_centr_freq_seg0_idx;
 247              		.loc 1 94 14
 248 003e 83471714 		lbu	a5,321(a4)
  93:C:/Users/stapi/OneDrive/Desktop/GD32VW553/V1_MQTT_OK/GD32VW55X_Wifi_BLE_SDK/GD32VW55x_RELEASE_V1.0.2/MSDK/wpa_supplicant/src/ap\ieee802_11_vht.c **** 		hapd->iconf->vht_oper_centr_freq_seg0_idx;
 249              		.loc 1 93 46
 250 0042 A301F400 		sb	a5,3(s0)
  95:C:/Users/stapi/OneDrive/Desktop/GD32VW553/V1_MQTT_OK/GD32VW55X_Wifi_BLE_SDK/GD32VW55x_RELEASE_V1.0.2/MSDK/wpa_supplicant/src/ap\ieee802_11_vht.c **** 	oper->vht_op_info_chan_center_freq_seg1_idx =
 251              		.loc 1 95 2 is_stmt 1
  95:C:/Users/stapi/OneDrive/Desktop/GD32VW553/V1_MQTT_OK/GD32VW55X_Wifi_BLE_SDK/GD32VW55x_RELEASE_V1.0.2/MSDK/wpa_supplicant/src/ap\ieee802_11_vht.c **** 	oper->vht_op_info_chan_center_freq_seg1_idx =
 252              		.loc 1 95 46 is_stmt 0
 253 0046 83462714 		lbu	a3,322(a4)
 254 004a 2302D400 		sb	a3,4(s0)
  98:C:/Users/stapi/OneDrive/Desktop/GD32VW553/V1_MQTT_OK/GD32VW55X_Wifi_BLE_SDK/GD32VW55x_RELEASE_V1.0.2/MSDK/wpa_supplicant/src/ap\ieee802_11_vht.c **** 	if (hapd->iconf->vht_oper_chwidth == 2) {
 255              		.loc 1 98 2 is_stmt 1
  98:C:/Users/stapi/OneDrive/Desktop/GD32VW553/V1_MQTT_OK/GD32VW55X_Wifi_BLE_SDK/GD32VW55x_RELEASE_V1.0.2/MSDK/wpa_supplicant/src/ap\ieee802_11_vht.c **** 	if (hapd->iconf->vht_oper_chwidth == 2) {
 256              		.loc 1 98 41 is_stmt 0
 257 004e 83460714 		lbu	a3,320(a4)
 258              		.loc 1 99 2 is_stmt 1
 259              		.loc 1 99 5 is_stmt 0
 260 0052 639CC602 		bne	a3,a2,.L20
 100:C:/Users/stapi/OneDrive/Desktop/GD32VW553/V1_MQTT_OK/GD32VW55X_Wifi_BLE_SDK/GD32VW55x_RELEASE_V1.0.2/MSDK/wpa_supplicant/src/ap\ieee802_11_vht.c **** 		/*
 101:C:/Users/stapi/OneDrive/Desktop/GD32VW553/V1_MQTT_OK/GD32VW55X_Wifi_BLE_SDK/GD32VW55x_RELEASE_V1.0.2/MSDK/wpa_supplicant/src/ap\ieee802_11_vht.c **** 		 * Convert 160 MHz channel width to new style as interop
 102:C:/Users/stapi/OneDrive/Desktop/GD32VW553/V1_MQTT_OK/GD32VW55X_Wifi_BLE_SDK/GD32VW55x_RELEASE_V1.0.2/MSDK/wpa_supplicant/src/ap\ieee802_11_vht.c **** 		 * workaround.
 103:C:/Users/stapi/OneDrive/Desktop/GD32VW553/V1_MQTT_OK/GD32VW55X_Wifi_BLE_SDK/GD32VW55x_RELEASE_V1.0.2/MSDK/wpa_supplicant/src/ap\ieee802_11_vht.c **** 		 */
 104:C:/Users/stapi/OneDrive/Desktop/GD32VW553/V1_MQTT_OK/GD32VW55X_Wifi_BLE_SDK/GD32VW55x_RELEASE_V1.0.2/MSDK/wpa_supplicant/src/ap\ieee802_11_vht.c **** 		oper->vht_op_info_chwidth = 1;
 261              		.loc 1 104 3 is_stmt 1
 262              		.loc 1 104 29 is_stmt 0
 263 0056 8546     		li	a3,1
 264 0058 2301D400 		sb	a3,2(s0)
 105:C:/Users/stapi/OneDrive/Desktop/GD32VW553/V1_MQTT_OK/GD32VW55X_Wifi_BLE_SDK/GD32VW55x_RELEASE_V1.0.2/MSDK/wpa_supplicant/src/ap\ieee802_11_vht.c **** 		oper->vht_op_info_chan_center_freq_seg1_idx =
 265              		.loc 1 105 3 is_stmt 1
 266              		.loc 1 105 47 is_stmt 0
 267 005c 2302F400 		sb	a5,4(s0)
 106:C:/Users/stapi/OneDrive/Desktop/GD32VW553/V1_MQTT_OK/GD32VW55X_Wifi_BLE_SDK/GD32VW55x_RELEASE_V1.0.2/MSDK/wpa_supplicant/src/ap\ieee802_11_vht.c **** 			oper->vht_op_info_chan_center_freq_seg0_idx;
 107:C:/Users/stapi/OneDrive/Desktop/GD32VW553/V1_MQTT_OK/GD32VW55X_Wifi_BLE_SDK/GD32VW55x_RELEASE_V1.0.2/MSDK/wpa_supplicant/src/ap\ieee802_11_vht.c **** 		if (hapd->iconf->channel <
 268              		.loc 1 107 3 is_stmt 1
 269              		.loc 1 107 6 is_stmt 0
 270 0060 03479701 		lbu	a4,25(a4)
 271 0064 6371F702 		bgeu	a4,a5,.L21
 108:C:/Users/stapi/OneDrive/Desktop/GD32VW553/V1_MQTT_OK/GD32VW55X_Wifi_BLE_SDK/GD32VW55x_RELEASE_V1.0.2/MSDK/wpa_supplicant/src/ap\ieee802_11_vht.c **** 		    hapd->iconf->vht_oper_centr_freq_seg0_idx)
 109:C:/Users/stapi/OneDrive/Desktop/GD32VW553/V1_MQTT_OK/GD32VW55X_Wifi_BLE_SDK/GD32VW55x_RELEASE_V1.0.2/MSDK/wpa_supplicant/src/ap\ieee802_11_vht.c **** 			oper->vht_op_info_chan_center_freq_seg0_idx -= 8;
 272              		.loc 1 109 4 is_stmt 1
 273              		.loc 1 109 48 is_stmt 0
 274 0068 E117     		addi	a5,a5,-8
 275              	.L25:
 110:C:/Users/stapi/OneDrive/Desktop/GD32VW553/V1_MQTT_OK/GD32VW55X_Wifi_BLE_SDK/GD32VW55x_RELEASE_V1.0.2/MSDK/wpa_supplicant/src/ap\ieee802_11_vht.c **** 		else
 111:C:/Users/stapi/OneDrive/Desktop/GD32VW553/V1_MQTT_OK/GD32VW55X_Wifi_BLE_SDK/GD32VW55x_RELEASE_V1.0.2/MSDK/wpa_supplicant/src/ap\ieee802_11_vht.c **** 			oper->vht_op_info_chan_center_freq_seg0_idx += 8;
 276              		.loc 1 111 48
 277 006a A301F400 		sb	a5,3(s0)
 278              	.L22:
 112:C:/Users/stapi/OneDrive/Desktop/GD32VW553/V1_MQTT_OK/GD32VW55X_Wifi_BLE_SDK/GD32VW55x_RELEASE_V1.0.2/MSDK/wpa_supplicant/src/ap\ieee802_11_vht.c **** 	} else if (hapd->iconf->vht_oper_chwidth == 3) {
 113:C:/Users/stapi/OneDrive/Desktop/GD32VW553/V1_MQTT_OK/GD32VW55X_Wifi_BLE_SDK/GD32VW55x_RELEASE_V1.0.2/MSDK/wpa_supplicant/src/ap\ieee802_11_vht.c **** 		/*
 114:C:/Users/stapi/OneDrive/Desktop/GD32VW553/V1_MQTT_OK/GD32VW55X_Wifi_BLE_SDK/GD32VW55x_RELEASE_V1.0.2/MSDK/wpa_supplicant/src/ap\ieee802_11_vht.c **** 		 * Convert 80+80 MHz channel width to new style as interop
 115:C:/Users/stapi/OneDrive/Desktop/GD32VW553/V1_MQTT_OK/GD32VW55X_Wifi_BLE_SDK/GD32VW55x_RELEASE_V1.0.2/MSDK/wpa_supplicant/src/ap\ieee802_11_vht.c **** 		 * workaround.
 116:C:/Users/stapi/OneDrive/Desktop/GD32VW553/V1_MQTT_OK/GD32VW55X_Wifi_BLE_SDK/GD32VW55x_RELEASE_V1.0.2/MSDK/wpa_supplicant/src/ap\ieee802_11_vht.c **** 		 */
 117:C:/Users/stapi/OneDrive/Desktop/GD32VW553/V1_MQTT_OK/GD32VW55X_Wifi_BLE_SDK/GD32VW55x_RELEASE_V1.0.2/MSDK/wpa_supplicant/src/ap\ieee802_11_vht.c **** 		oper->vht_op_info_chwidth = 1;
 118:C:/Users/stapi/OneDrive/Desktop/GD32VW553/V1_MQTT_OK/GD32VW55X_Wifi_BLE_SDK/GD32VW55x_RELEASE_V1.0.2/MSDK/wpa_supplicant/src/ap\ieee802_11_vht.c **** 	}
 119:C:/Users/stapi/OneDrive/Desktop/GD32VW553/V1_MQTT_OK/GD32VW55X_Wifi_BLE_SDK/GD32VW55x_RELEASE_V1.0.2/MSDK/wpa_supplicant/src/ap\ieee802_11_vht.c **** 
 120:C:/Users/stapi/OneDrive/Desktop/GD32VW553/V1_MQTT_OK/GD32VW55X_Wifi_BLE_SDK/GD32VW55x_RELEASE_V1.0.2/MSDK/wpa_supplicant/src/ap\ieee802_11_vht.c **** 	/* VHT Basic MCS set comes from hw */
 121:C:/Users/stapi/OneDrive/Desktop/GD32VW553/V1_MQTT_OK/GD32VW55X_Wifi_BLE_SDK/GD32VW55x_RELEASE_V1.0.2/MSDK/wpa_supplicant/src/ap\ieee802_11_vht.c **** 	/* Hard code 1 stream, MCS0-7 is a min Basic VHT MCS rates */
 122:C:/Users/stapi/OneDrive/Desktop/GD32VW553/V1_MQTT_OK/GD32VW55X_Wifi_BLE_SDK/GD32VW55x_RELEASE_V1.0.2/MSDK/wpa_supplicant/src/ap\ieee802_11_vht.c **** 	oper->vht_basic_mcs_set = host_to_le16(0xfffc);
 279              		.loc 1 122 2 is_stmt 1
 280              		.loc 1 122 26 is_stmt 0
 281 006e F157     		li	a5,-4
 282 0070 A302F400 		sb	a5,5(s0)
 283 0074 FD57     		li	a5,-1
 284 0076 2303F400 		sb	a5,6(s0)
 123:C:/Users/stapi/OneDrive/Desktop/GD32VW553/V1_MQTT_OK/GD32VW55X_Wifi_BLE_SDK/GD32VW55x_RELEASE_V1.0.2/MSDK/wpa_supplicant/src/ap\ieee802_11_vht.c **** 	pos += sizeof(*oper);
 285              		.loc 1 123 2 is_stmt 1
 286              		.loc 1 123 6 is_stmt 0
 287 007a 1D04     		addi	s0,s0,7
 288              	.LVL26:
 124:C:/Users/stapi/OneDrive/Desktop/GD32VW553/V1_MQTT_OK/GD32VW55X_Wifi_BLE_SDK/GD32VW55x_RELEASE_V1.0.2/MSDK/wpa_supplicant/src/ap\ieee802_11_vht.c **** 
 125:C:/Users/stapi/OneDrive/Desktop/GD32VW553/V1_MQTT_OK/GD32VW55X_Wifi_BLE_SDK/GD32VW55x_RELEASE_V1.0.2/MSDK/wpa_supplicant/src/ap\ieee802_11_vht.c **** 	return pos;
 289              		.loc 1 125 2 is_stmt 1
 290              	.L19:
 291              	.LBE10:
 292              	.LBE9:
 126:C:/Users/stapi/OneDrive/Desktop/GD32VW553/V1_MQTT_OK/GD32VW55X_Wifi_BLE_SDK/GD32VW55x_RELEASE_V1.0.2/MSDK/wpa_supplicant/src/ap\ieee802_11_vht.c **** }
 293              		.loc 1 126 1 is_stmt 0
 294 007c 2285     		mv	a0,s0
 295 007e 17030000 		tail	__riscv_restore_2
 295      67000300 
 296              		.cfi_remember_state
 297              		.cfi_restore 9
 298              		.cfi_restore 8
 299              		.cfi_restore 1
 300              		.cfi_def_cfa_offset 0
 301              	.LVL27:
 302              	.L21:
 303              		.cfi_restore_state
 304              	.LBB12:
 305              	.LBB11:
 111:C:/Users/stapi/OneDrive/Desktop/GD32VW553/V1_MQTT_OK/GD32VW55X_Wifi_BLE_SDK/GD32VW55x_RELEASE_V1.0.2/MSDK/wpa_supplicant/src/ap\ieee802_11_vht.c **** 	} else if (hapd->iconf->vht_oper_chwidth == 3) {
 306              		.loc 1 111 4 is_stmt 1
 111:C:/Users/stapi/OneDrive/Desktop/GD32VW553/V1_MQTT_OK/GD32VW55X_Wifi_BLE_SDK/GD32VW55x_RELEASE_V1.0.2/MSDK/wpa_supplicant/src/ap\ieee802_11_vht.c **** 	} else if (hapd->iconf->vht_oper_chwidth == 3) {
 307              		.loc 1 111 48 is_stmt 0
 308 0086 A107     		addi	a5,a5,8
 309 0088 CDB7     		j	.L25
 310              	.L20:
 112:C:/Users/stapi/OneDrive/Desktop/GD32VW553/V1_MQTT_OK/GD32VW55X_Wifi_BLE_SDK/GD32VW55x_RELEASE_V1.0.2/MSDK/wpa_supplicant/src/ap\ieee802_11_vht.c **** 		/*
 311              		.loc 1 112 9 is_stmt 1
 112:C:/Users/stapi/OneDrive/Desktop/GD32VW553/V1_MQTT_OK/GD32VW55X_Wifi_BLE_SDK/GD32VW55x_RELEASE_V1.0.2/MSDK/wpa_supplicant/src/ap\ieee802_11_vht.c **** 		/*
 312              		.loc 1 112 12 is_stmt 0
 313 008a 8D47     		li	a5,3
 314 008c 6385F600 		beq	a3,a5,.L23
  98:C:/Users/stapi/OneDrive/Desktop/GD32VW553/V1_MQTT_OK/GD32VW55X_Wifi_BLE_SDK/GD32VW55x_RELEASE_V1.0.2/MSDK/wpa_supplicant/src/ap\ieee802_11_vht.c **** 	if (hapd->iconf->vht_oper_chwidth == 2) {
 315              		.loc 1 98 28
 316 0090 2301D400 		sb	a3,2(s0)
 317 0094 E9BF     		j	.L22
 318              	.L23:
 117:C:/Users/stapi/OneDrive/Desktop/GD32VW553/V1_MQTT_OK/GD32VW55X_Wifi_BLE_SDK/GD32VW55x_RELEASE_V1.0.2/MSDK/wpa_supplicant/src/ap\ieee802_11_vht.c **** 	}
 319              		.loc 1 117 3 is_stmt 1
 117:C:/Users/stapi/OneDrive/Desktop/GD32VW553/V1_MQTT_OK/GD32VW55X_Wifi_BLE_SDK/GD32VW55x_RELEASE_V1.0.2/MSDK/wpa_supplicant/src/ap\ieee802_11_vht.c **** 	}
 320              		.loc 1 117 29 is_stmt 0
 321 0096 8547     		li	a5,1
 322 0098 2301F400 		sb	a5,2(s0)
 323 009c C9BF     		j	.L22
 324              	.LBE11:
 325              	.LBE12:
 326              		.cfi_endproc
 327              	.LFE140:
 329              		.section	.rodata.copy_sta_vht_capab.str1.4,"aMS",@progbits,1
 330              		.align	2
 331              	.LC0:
 332 0000 4E6F206D 		.string	"No matching VHT MCS found between AP TX and STA RX"
 332      61746368 
 332      696E6720 
 332      56485420 
 332      4D435320 
 333              		.section	.text.copy_sta_vht_capab,"ax",@progbits
 334              		.align	1
 335              		.globl	copy_sta_vht_capab
 337              	copy_sta_vht_capab:
 338              	.LFB142:
 127:C:/Users/stapi/OneDrive/Desktop/GD32VW553/V1_MQTT_OK/GD32VW55X_Wifi_BLE_SDK/GD32VW55x_RELEASE_V1.0.2/MSDK/wpa_supplicant/src/ap\ieee802_11_vht.c **** 
 128:C:/Users/stapi/OneDrive/Desktop/GD32VW553/V1_MQTT_OK/GD32VW55X_Wifi_BLE_SDK/GD32VW55x_RELEASE_V1.0.2/MSDK/wpa_supplicant/src/ap\ieee802_11_vht.c **** 
 129:C:/Users/stapi/OneDrive/Desktop/GD32VW553/V1_MQTT_OK/GD32VW55X_Wifi_BLE_SDK/GD32VW55x_RELEASE_V1.0.2/MSDK/wpa_supplicant/src/ap\ieee802_11_vht.c **** static int check_valid_vht_mcs(struct hostapd_hw_modes *mode,
 130:C:/Users/stapi/OneDrive/Desktop/GD32VW553/V1_MQTT_OK/GD32VW55X_Wifi_BLE_SDK/GD32VW55x_RELEASE_V1.0.2/MSDK/wpa_supplicant/src/ap\ieee802_11_vht.c **** 			       const u8 *sta_vht_capab)
 131:C:/Users/stapi/OneDrive/Desktop/GD32VW553/V1_MQTT_OK/GD32VW55X_Wifi_BLE_SDK/GD32VW55x_RELEASE_V1.0.2/MSDK/wpa_supplicant/src/ap\ieee802_11_vht.c **** {
 132:C:/Users/stapi/OneDrive/Desktop/GD32VW553/V1_MQTT_OK/GD32VW55X_Wifi_BLE_SDK/GD32VW55x_RELEASE_V1.0.2/MSDK/wpa_supplicant/src/ap\ieee802_11_vht.c **** 	const struct ieee80211_vht_capabilities *vht_cap;
 133:C:/Users/stapi/OneDrive/Desktop/GD32VW553/V1_MQTT_OK/GD32VW55X_Wifi_BLE_SDK/GD32VW55x_RELEASE_V1.0.2/MSDK/wpa_supplicant/src/ap\ieee802_11_vht.c **** 	struct ieee80211_vht_capabilities ap_vht_cap;
 134:C:/Users/stapi/OneDrive/Desktop/GD32VW553/V1_MQTT_OK/GD32VW55X_Wifi_BLE_SDK/GD32VW55x_RELEASE_V1.0.2/MSDK/wpa_supplicant/src/ap\ieee802_11_vht.c **** 	u16 sta_rx_mcs_set, ap_tx_mcs_set;
 135:C:/Users/stapi/OneDrive/Desktop/GD32VW553/V1_MQTT_OK/GD32VW55X_Wifi_BLE_SDK/GD32VW55x_RELEASE_V1.0.2/MSDK/wpa_supplicant/src/ap\ieee802_11_vht.c **** 	int i;
 136:C:/Users/stapi/OneDrive/Desktop/GD32VW553/V1_MQTT_OK/GD32VW55X_Wifi_BLE_SDK/GD32VW55x_RELEASE_V1.0.2/MSDK/wpa_supplicant/src/ap\ieee802_11_vht.c **** 
 137:C:/Users/stapi/OneDrive/Desktop/GD32VW553/V1_MQTT_OK/GD32VW55X_Wifi_BLE_SDK/GD32VW55x_RELEASE_V1.0.2/MSDK/wpa_supplicant/src/ap\ieee802_11_vht.c **** 	if (!mode)
 138:C:/Users/stapi/OneDrive/Desktop/GD32VW553/V1_MQTT_OK/GD32VW55X_Wifi_BLE_SDK/GD32VW55x_RELEASE_V1.0.2/MSDK/wpa_supplicant/src/ap\ieee802_11_vht.c **** 		return 1;
 139:C:/Users/stapi/OneDrive/Desktop/GD32VW553/V1_MQTT_OK/GD32VW55X_Wifi_BLE_SDK/GD32VW55x_RELEASE_V1.0.2/MSDK/wpa_supplicant/src/ap\ieee802_11_vht.c **** 
 140:C:/Users/stapi/OneDrive/Desktop/GD32VW553/V1_MQTT_OK/GD32VW55X_Wifi_BLE_SDK/GD32VW55x_RELEASE_V1.0.2/MSDK/wpa_supplicant/src/ap\ieee802_11_vht.c **** 	/*
 141:C:/Users/stapi/OneDrive/Desktop/GD32VW553/V1_MQTT_OK/GD32VW55X_Wifi_BLE_SDK/GD32VW55x_RELEASE_V1.0.2/MSDK/wpa_supplicant/src/ap\ieee802_11_vht.c **** 	 * Disable VHT caps for STAs for which there is not even a single
 142:C:/Users/stapi/OneDrive/Desktop/GD32VW553/V1_MQTT_OK/GD32VW55X_Wifi_BLE_SDK/GD32VW55x_RELEASE_V1.0.2/MSDK/wpa_supplicant/src/ap\ieee802_11_vht.c **** 	 * allowed MCS in any supported number of streams, i.e., STA is
 143:C:/Users/stapi/OneDrive/Desktop/GD32VW553/V1_MQTT_OK/GD32VW55X_Wifi_BLE_SDK/GD32VW55x_RELEASE_V1.0.2/MSDK/wpa_supplicant/src/ap\ieee802_11_vht.c **** 	 * advertising 3 (not supported) as VHT MCS rates for all supported
 144:C:/Users/stapi/OneDrive/Desktop/GD32VW553/V1_MQTT_OK/GD32VW55X_Wifi_BLE_SDK/GD32VW55x_RELEASE_V1.0.2/MSDK/wpa_supplicant/src/ap\ieee802_11_vht.c **** 	 * stream cases.
 145:C:/Users/stapi/OneDrive/Desktop/GD32VW553/V1_MQTT_OK/GD32VW55X_Wifi_BLE_SDK/GD32VW55x_RELEASE_V1.0.2/MSDK/wpa_supplicant/src/ap\ieee802_11_vht.c **** 	 */
 146:C:/Users/stapi/OneDrive/Desktop/GD32VW553/V1_MQTT_OK/GD32VW55X_Wifi_BLE_SDK/GD32VW55x_RELEASE_V1.0.2/MSDK/wpa_supplicant/src/ap\ieee802_11_vht.c **** 	os_memcpy(&ap_vht_cap.vht_supported_mcs_set, mode->vht_mcs_set,
 147:C:/Users/stapi/OneDrive/Desktop/GD32VW553/V1_MQTT_OK/GD32VW55X_Wifi_BLE_SDK/GD32VW55x_RELEASE_V1.0.2/MSDK/wpa_supplicant/src/ap\ieee802_11_vht.c **** 		  sizeof(ap_vht_cap.vht_supported_mcs_set));
 148:C:/Users/stapi/OneDrive/Desktop/GD32VW553/V1_MQTT_OK/GD32VW55X_Wifi_BLE_SDK/GD32VW55x_RELEASE_V1.0.2/MSDK/wpa_supplicant/src/ap\ieee802_11_vht.c **** 	vht_cap = (const struct ieee80211_vht_capabilities *) sta_vht_capab;
 149:C:/Users/stapi/OneDrive/Desktop/GD32VW553/V1_MQTT_OK/GD32VW55X_Wifi_BLE_SDK/GD32VW55x_RELEASE_V1.0.2/MSDK/wpa_supplicant/src/ap\ieee802_11_vht.c **** 
 150:C:/Users/stapi/OneDrive/Desktop/GD32VW553/V1_MQTT_OK/GD32VW55X_Wifi_BLE_SDK/GD32VW55x_RELEASE_V1.0.2/MSDK/wpa_supplicant/src/ap\ieee802_11_vht.c **** 	/* AP Tx MCS map vs. STA Rx MCS map */
 151:C:/Users/stapi/OneDrive/Desktop/GD32VW553/V1_MQTT_OK/GD32VW55X_Wifi_BLE_SDK/GD32VW55x_RELEASE_V1.0.2/MSDK/wpa_supplicant/src/ap\ieee802_11_vht.c **** 	sta_rx_mcs_set = le_to_host16(vht_cap->vht_supported_mcs_set.rx_map);
 152:C:/Users/stapi/OneDrive/Desktop/GD32VW553/V1_MQTT_OK/GD32VW55X_Wifi_BLE_SDK/GD32VW55x_RELEASE_V1.0.2/MSDK/wpa_supplicant/src/ap\ieee802_11_vht.c **** 	ap_tx_mcs_set = le_to_host16(ap_vht_cap.vht_supported_mcs_set.tx_map);
 153:C:/Users/stapi/OneDrive/Desktop/GD32VW553/V1_MQTT_OK/GD32VW55X_Wifi_BLE_SDK/GD32VW55x_RELEASE_V1.0.2/MSDK/wpa_supplicant/src/ap\ieee802_11_vht.c **** 
 154:C:/Users/stapi/OneDrive/Desktop/GD32VW553/V1_MQTT_OK/GD32VW55X_Wifi_BLE_SDK/GD32VW55x_RELEASE_V1.0.2/MSDK/wpa_supplicant/src/ap\ieee802_11_vht.c **** 	for (i = 0; i < VHT_RX_NSS_MAX_STREAMS; i++) {
 155:C:/Users/stapi/OneDrive/Desktop/GD32VW553/V1_MQTT_OK/GD32VW55X_Wifi_BLE_SDK/GD32VW55x_RELEASE_V1.0.2/MSDK/wpa_supplicant/src/ap\ieee802_11_vht.c **** 		if ((ap_tx_mcs_set & (0x3 << (i * 2))) == 3)
 156:C:/Users/stapi/OneDrive/Desktop/GD32VW553/V1_MQTT_OK/GD32VW55X_Wifi_BLE_SDK/GD32VW55x_RELEASE_V1.0.2/MSDK/wpa_supplicant/src/ap\ieee802_11_vht.c **** 			continue;
 157:C:/Users/stapi/OneDrive/Desktop/GD32VW553/V1_MQTT_OK/GD32VW55X_Wifi_BLE_SDK/GD32VW55x_RELEASE_V1.0.2/MSDK/wpa_supplicant/src/ap\ieee802_11_vht.c **** 
 158:C:/Users/stapi/OneDrive/Desktop/GD32VW553/V1_MQTT_OK/GD32VW55X_Wifi_BLE_SDK/GD32VW55x_RELEASE_V1.0.2/MSDK/wpa_supplicant/src/ap\ieee802_11_vht.c **** 		if ((sta_rx_mcs_set & (0x3 << (i * 2))) == 3)
 159:C:/Users/stapi/OneDrive/Desktop/GD32VW553/V1_MQTT_OK/GD32VW55X_Wifi_BLE_SDK/GD32VW55x_RELEASE_V1.0.2/MSDK/wpa_supplicant/src/ap\ieee802_11_vht.c **** 			continue;
 160:C:/Users/stapi/OneDrive/Desktop/GD32VW553/V1_MQTT_OK/GD32VW55X_Wifi_BLE_SDK/GD32VW55x_RELEASE_V1.0.2/MSDK/wpa_supplicant/src/ap\ieee802_11_vht.c **** 
 161:C:/Users/stapi/OneDrive/Desktop/GD32VW553/V1_MQTT_OK/GD32VW55X_Wifi_BLE_SDK/GD32VW55x_RELEASE_V1.0.2/MSDK/wpa_supplicant/src/ap\ieee802_11_vht.c **** 		return 1;
 162:C:/Users/stapi/OneDrive/Desktop/GD32VW553/V1_MQTT_OK/GD32VW55X_Wifi_BLE_SDK/GD32VW55x_RELEASE_V1.0.2/MSDK/wpa_supplicant/src/ap\ieee802_11_vht.c **** 	}
 163:C:/Users/stapi/OneDrive/Desktop/GD32VW553/V1_MQTT_OK/GD32VW55X_Wifi_BLE_SDK/GD32VW55x_RELEASE_V1.0.2/MSDK/wpa_supplicant/src/ap\ieee802_11_vht.c **** 
 164:C:/Users/stapi/OneDrive/Desktop/GD32VW553/V1_MQTT_OK/GD32VW55X_Wifi_BLE_SDK/GD32VW55x_RELEASE_V1.0.2/MSDK/wpa_supplicant/src/ap\ieee802_11_vht.c **** 	wpa_printf(MSG_DEBUG,
 165:C:/Users/stapi/OneDrive/Desktop/GD32VW553/V1_MQTT_OK/GD32VW55X_Wifi_BLE_SDK/GD32VW55x_RELEASE_V1.0.2/MSDK/wpa_supplicant/src/ap\ieee802_11_vht.c **** 		   "No matching VHT MCS found between AP TX and STA RX");
 166:C:/Users/stapi/OneDrive/Desktop/GD32VW553/V1_MQTT_OK/GD32VW55X_Wifi_BLE_SDK/GD32VW55x_RELEASE_V1.0.2/MSDK/wpa_supplicant/src/ap\ieee802_11_vht.c **** 	return 0;
 167:C:/Users/stapi/OneDrive/Desktop/GD32VW553/V1_MQTT_OK/GD32VW55X_Wifi_BLE_SDK/GD32VW55x_RELEASE_V1.0.2/MSDK/wpa_supplicant/src/ap\ieee802_11_vht.c **** }
 168:C:/Users/stapi/OneDrive/Desktop/GD32VW553/V1_MQTT_OK/GD32VW55X_Wifi_BLE_SDK/GD32VW55x_RELEASE_V1.0.2/MSDK/wpa_supplicant/src/ap\ieee802_11_vht.c **** 
 169:C:/Users/stapi/OneDrive/Desktop/GD32VW553/V1_MQTT_OK/GD32VW55X_Wifi_BLE_SDK/GD32VW55x_RELEASE_V1.0.2/MSDK/wpa_supplicant/src/ap\ieee802_11_vht.c **** 
 170:C:/Users/stapi/OneDrive/Desktop/GD32VW553/V1_MQTT_OK/GD32VW55X_Wifi_BLE_SDK/GD32VW55x_RELEASE_V1.0.2/MSDK/wpa_supplicant/src/ap\ieee802_11_vht.c **** u16 copy_sta_vht_capab(struct hostapd_data *hapd, struct sta_info *sta,
 171:C:/Users/stapi/OneDrive/Desktop/GD32VW553/V1_MQTT_OK/GD32VW55X_Wifi_BLE_SDK/GD32VW55x_RELEASE_V1.0.2/MSDK/wpa_supplicant/src/ap\ieee802_11_vht.c **** 		       const u8 *vht_capab)
 172:C:/Users/stapi/OneDrive/Desktop/GD32VW553/V1_MQTT_OK/GD32VW55X_Wifi_BLE_SDK/GD32VW55x_RELEASE_V1.0.2/MSDK/wpa_supplicant/src/ap\ieee802_11_vht.c **** {
 339              		.loc 1 172 1 is_stmt 1
 340              		.cfi_startproc
 341              	.LVL28:
 342 0000 17030000 		call	t0,__riscv_save_2
 342      E7020300 
 343              		.cfi_offset 9, -12
 344              		.cfi_offset 8, -8
 345              		.cfi_offset 1, -4
 346              		.cfi_def_cfa_offset 16
 173:C:/Users/stapi/OneDrive/Desktop/GD32VW553/V1_MQTT_OK/GD32VW55X_Wifi_BLE_SDK/GD32VW55x_RELEASE_V1.0.2/MSDK/wpa_supplicant/src/ap\ieee802_11_vht.c **** 	/* Disable VHT caps for STAs associated to no-VHT BSSes. */
 174:C:/Users/stapi/OneDrive/Desktop/GD32VW553/V1_MQTT_OK/GD32VW55X_Wifi_BLE_SDK/GD32VW55x_RELEASE_V1.0.2/MSDK/wpa_supplicant/src/ap\ieee802_11_vht.c **** 	if (!vht_capab || !(sta->flags & WLAN_STA_WMM) ||
 347              		.loc 1 174 2
 348              		.loc 1 174 25 is_stmt 0
 349 0008 9C51     		lw	a5,32(a1)
 172:C:/Users/stapi/OneDrive/Desktop/GD32VW553/V1_MQTT_OK/GD32VW55X_Wifi_BLE_SDK/GD32VW55x_RELEASE_V1.0.2/MSDK/wpa_supplicant/src/ap\ieee802_11_vht.c **** 	/* Disable VHT caps for STAs associated to no-VHT BSSes. */
 350              		.loc 1 172 1
 351 000a 4111     		addi	sp,sp,-16
 352              		.cfi_def_cfa_offset 32
 172:C:/Users/stapi/OneDrive/Desktop/GD32VW553/V1_MQTT_OK/GD32VW55X_Wifi_BLE_SDK/GD32VW55x_RELEASE_V1.0.2/MSDK/wpa_supplicant/src/ap\ieee802_11_vht.c **** 	/* Disable VHT caps for STAs associated to no-VHT BSSes. */
 353              		.loc 1 172 1
 354 000c 2E84     		mv	s0,a1
 355              		.loc 1 174 5
 356 000e 51C6     		beq	a2,zero,.L27
 357              		.loc 1 174 33 discriminator 1
 358 0010 93F70720 		andi	a5,a5,512
 359              		.loc 1 174 17 discriminator 1
 360 0014 D9C3     		beq	a5,zero,.L27
 175:C:/Users/stapi/OneDrive/Desktop/GD32VW553/V1_MQTT_OK/GD32VW55X_Wifi_BLE_SDK/GD32VW55x_RELEASE_V1.0.2/MSDK/wpa_supplicant/src/ap\ieee802_11_vht.c **** 	    !hapd->iconf->ieee80211ac || hapd->conf->disable_11ac ||
 361              		.loc 1 175 18 discriminator 2
 362 0016 5C41     		lw	a5,4(a0)
 174:C:/Users/stapi/OneDrive/Desktop/GD32VW553/V1_MQTT_OK/GD32VW55X_Wifi_BLE_SDK/GD32VW55x_RELEASE_V1.0.2/MSDK/wpa_supplicant/src/ap\ieee802_11_vht.c **** 	    !hapd->iconf->ieee80211ac || hapd->conf->disable_11ac ||
 363              		.loc 1 174 49 discriminator 2
 364 0018 83A78713 		lw	a5,312(a5)
 365 001c BDCF     		beq	a5,zero,.L27
 366              		.loc 1 175 45
 367 001e 1C45     		lw	a5,8(a0)
 368              		.loc 1 175 32
 369 0020 83C79729 		lbu	a5,665(a5)
 370 0024 BDEB     		bne	a5,zero,.L27
 176:C:/Users/stapi/OneDrive/Desktop/GD32VW553/V1_MQTT_OK/GD32VW55X_Wifi_BLE_SDK/GD32VW55x_RELEASE_V1.0.2/MSDK/wpa_supplicant/src/ap\ieee802_11_vht.c **** 	    !check_valid_vht_mcs(hapd->iface->current_mode, vht_capab)) {
 371              		.loc 1 176 7 discriminator 1
 372 0026 1C41     		lw	a5,0(a0)
 373 0028 B284     		mv	s1,a2
 374 002a 83A54746 		lw	a1,1124(a5)
 375              	.LVL29:
 376              	.LBB15:
 377              	.LBB16:
 132:C:/Users/stapi/OneDrive/Desktop/GD32VW553/V1_MQTT_OK/GD32VW55X_Wifi_BLE_SDK/GD32VW55x_RELEASE_V1.0.2/MSDK/wpa_supplicant/src/ap\ieee802_11_vht.c **** 	struct ieee80211_vht_capabilities ap_vht_cap;
 378              		.loc 1 132 2 is_stmt 1 discriminator 1
 133:C:/Users/stapi/OneDrive/Desktop/GD32VW553/V1_MQTT_OK/GD32VW55X_Wifi_BLE_SDK/GD32VW55x_RELEASE_V1.0.2/MSDK/wpa_supplicant/src/ap\ieee802_11_vht.c **** 	u16 sta_rx_mcs_set, ap_tx_mcs_set;
 379              		.loc 1 133 2 discriminator 1
 134:C:/Users/stapi/OneDrive/Desktop/GD32VW553/V1_MQTT_OK/GD32VW55X_Wifi_BLE_SDK/GD32VW55x_RELEASE_V1.0.2/MSDK/wpa_supplicant/src/ap\ieee802_11_vht.c **** 	int i;
 380              		.loc 1 134 2 discriminator 1
 135:C:/Users/stapi/OneDrive/Desktop/GD32VW553/V1_MQTT_OK/GD32VW55X_Wifi_BLE_SDK/GD32VW55x_RELEASE_V1.0.2/MSDK/wpa_supplicant/src/ap\ieee802_11_vht.c **** 
 381              		.loc 1 135 2 discriminator 1
 137:C:/Users/stapi/OneDrive/Desktop/GD32VW553/V1_MQTT_OK/GD32VW55X_Wifi_BLE_SDK/GD32VW55x_RELEASE_V1.0.2/MSDK/wpa_supplicant/src/ap\ieee802_11_vht.c **** 		return 1;
 382              		.loc 1 137 2 discriminator 1
 137:C:/Users/stapi/OneDrive/Desktop/GD32VW553/V1_MQTT_OK/GD32VW55X_Wifi_BLE_SDK/GD32VW55x_RELEASE_V1.0.2/MSDK/wpa_supplicant/src/ap\ieee802_11_vht.c **** 		return 1;
 383              		.loc 1 137 5 is_stmt 0 discriminator 1
 384 002e 91ED     		bne	a1,zero,.L28
 385              	.LVL30:
 386              	.L32:
 387              	.LBE16:
 388              	.LBE15:
 177:C:/Users/stapi/OneDrive/Desktop/GD32VW553/V1_MQTT_OK/GD32VW55X_Wifi_BLE_SDK/GD32VW55x_RELEASE_V1.0.2/MSDK/wpa_supplicant/src/ap\ieee802_11_vht.c **** 		sta->flags &= ~WLAN_STA_VHT;
 178:C:/Users/stapi/OneDrive/Desktop/GD32VW553/V1_MQTT_OK/GD32VW55X_Wifi_BLE_SDK/GD32VW55x_RELEASE_V1.0.2/MSDK/wpa_supplicant/src/ap\ieee802_11_vht.c **** 		os_free(sta->vht_capabilities);
 179:C:/Users/stapi/OneDrive/Desktop/GD32VW553/V1_MQTT_OK/GD32VW55X_Wifi_BLE_SDK/GD32VW55x_RELEASE_V1.0.2/MSDK/wpa_supplicant/src/ap\ieee802_11_vht.c **** 		sta->vht_capabilities = NULL;
 180:C:/Users/stapi/OneDrive/Desktop/GD32VW553/V1_MQTT_OK/GD32VW55X_Wifi_BLE_SDK/GD32VW55x_RELEASE_V1.0.2/MSDK/wpa_supplicant/src/ap\ieee802_11_vht.c **** 		return WLAN_STATUS_SUCCESS;
 181:C:/Users/stapi/OneDrive/Desktop/GD32VW553/V1_MQTT_OK/GD32VW55X_Wifi_BLE_SDK/GD32VW55x_RELEASE_V1.0.2/MSDK/wpa_supplicant/src/ap\ieee802_11_vht.c **** 	}
 182:C:/Users/stapi/OneDrive/Desktop/GD32VW553/V1_MQTT_OK/GD32VW55X_Wifi_BLE_SDK/GD32VW55x_RELEASE_V1.0.2/MSDK/wpa_supplicant/src/ap\ieee802_11_vht.c **** 
 183:C:/Users/stapi/OneDrive/Desktop/GD32VW553/V1_MQTT_OK/GD32VW55X_Wifi_BLE_SDK/GD32VW55x_RELEASE_V1.0.2/MSDK/wpa_supplicant/src/ap\ieee802_11_vht.c **** 	if (sta->vht_capabilities == NULL) {
 389              		.loc 1 183 2 is_stmt 1
 390              		.loc 1 183 5 is_stmt 0
 391 0030 8327040C 		lw	a5,192(s0)
 392 0034 C9E7     		bne	a5,zero,.L30
 184:C:/Users/stapi/OneDrive/Desktop/GD32VW553/V1_MQTT_OK/GD32VW55X_Wifi_BLE_SDK/GD32VW55x_RELEASE_V1.0.2/MSDK/wpa_supplicant/src/ap\ieee802_11_vht.c **** 		sta->vht_capabilities =
 393              		.loc 1 184 3 is_stmt 1
 185:C:/Users/stapi/OneDrive/Desktop/GD32VW553/V1_MQTT_OK/GD32VW55X_Wifi_BLE_SDK/GD32VW55x_RELEASE_V1.0.2/MSDK/wpa_supplicant/src/ap\ieee802_11_vht.c **** 			os_zalloc(sizeof(struct ieee80211_vht_capabilities));
 394              		.loc 1 185 4 is_stmt 0
 395 0036 3145     		li	a0,12
 396 0038 97000000 		call	os_zalloc
 396      E7800000 
 397              	.LVL31:
 184:C:/Users/stapi/OneDrive/Desktop/GD32VW553/V1_MQTT_OK/GD32VW55X_Wifi_BLE_SDK/GD32VW55x_RELEASE_V1.0.2/MSDK/wpa_supplicant/src/ap\ieee802_11_vht.c **** 		sta->vht_capabilities =
 398              		.loc 1 184 25
 399 0040 2320A40C 		sw	a0,192(s0)
 186:C:/Users/stapi/OneDrive/Desktop/GD32VW553/V1_MQTT_OK/GD32VW55X_Wifi_BLE_SDK/GD32VW55x_RELEASE_V1.0.2/MSDK/wpa_supplicant/src/ap\ieee802_11_vht.c **** 		if (sta->vht_capabilities == NULL)
 400              		.loc 1 186 3 is_stmt 1
 401              		.loc 1 186 6 is_stmt 0
 402 0044 2DED     		bne	a0,zero,.L30
 187:C:/Users/stapi/OneDrive/Desktop/GD32VW553/V1_MQTT_OK/GD32VW55X_Wifi_BLE_SDK/GD32VW55x_RELEASE_V1.0.2/MSDK/wpa_supplicant/src/ap\ieee802_11_vht.c **** 			return WLAN_STATUS_UNSPECIFIED_FAILURE;
 403              		.loc 1 187 11
 404 0046 0545     		li	a0,1
 405 0048 B5A0     		j	.L34
 406              	.LVL32:
 407              	.L28:
 408              	.LBB18:
 409              	.LBB17:
 146:C:/Users/stapi/OneDrive/Desktop/GD32VW553/V1_MQTT_OK/GD32VW55X_Wifi_BLE_SDK/GD32VW55x_RELEASE_V1.0.2/MSDK/wpa_supplicant/src/ap\ieee802_11_vht.c **** 		  sizeof(ap_vht_cap.vht_supported_mcs_set));
 410              		.loc 1 146 2 is_stmt 1
 411 004a 2146     		li	a2,8
 412 004c 9385C502 		addi	a1,a1,44
 413              	.LVL33:
 414 0050 2800     		addi	a0,sp,8
 415              	.LVL34:
 416 0052 97000000 		call	os_memcpy
 416      E7800000 
 417              	.LVL35:
 148:C:/Users/stapi/OneDrive/Desktop/GD32VW553/V1_MQTT_OK/GD32VW55X_Wifi_BLE_SDK/GD32VW55x_RELEASE_V1.0.2/MSDK/wpa_supplicant/src/ap\ieee802_11_vht.c **** 
 418              		.loc 1 148 2
 151:C:/Users/stapi/OneDrive/Desktop/GD32VW553/V1_MQTT_OK/GD32VW55X_Wifi_BLE_SDK/GD32VW55x_RELEASE_V1.0.2/MSDK/wpa_supplicant/src/ap\ieee802_11_vht.c **** 	ap_tx_mcs_set = le_to_host16(ap_vht_cap.vht_supported_mcs_set.tx_map);
 419              		.loc 1 151 2
 151:C:/Users/stapi/OneDrive/Desktop/GD32VW553/V1_MQTT_OK/GD32VW55X_Wifi_BLE_SDK/GD32VW55x_RELEASE_V1.0.2/MSDK/wpa_supplicant/src/ap\ieee802_11_vht.c **** 	ap_tx_mcs_set = le_to_host16(ap_vht_cap.vht_supported_mcs_set.tx_map);
 420              		.loc 1 151 17 is_stmt 0
 421 005a 83C75400 		lbu	a5,5(s1)
 422 005e 03C74400 		lbu	a4,4(s1)
 152:C:/Users/stapi/OneDrive/Desktop/GD32VW553/V1_MQTT_OK/GD32VW55X_Wifi_BLE_SDK/GD32VW55x_RELEASE_V1.0.2/MSDK/wpa_supplicant/src/ap\ieee802_11_vht.c **** 
 423              		.loc 1 152 16
 424 0062 0355C100 		lhu	a0,12(sp)
 151:C:/Users/stapi/OneDrive/Desktop/GD32VW553/V1_MQTT_OK/GD32VW55X_Wifi_BLE_SDK/GD32VW55x_RELEASE_V1.0.2/MSDK/wpa_supplicant/src/ap\ieee802_11_vht.c **** 	ap_tx_mcs_set = le_to_host16(ap_vht_cap.vht_supported_mcs_set.tx_map);
 425              		.loc 1 151 17
 426 0066 A207     		slli	a5,a5,8
 427 0068 D98F     		or	a5,a5,a4
 428              	.LVL36:
 152:C:/Users/stapi/OneDrive/Desktop/GD32VW553/V1_MQTT_OK/GD32VW55X_Wifi_BLE_SDK/GD32VW55x_RELEASE_V1.0.2/MSDK/wpa_supplicant/src/ap\ieee802_11_vht.c **** 
 429              		.loc 1 152 2 is_stmt 1
 154:C:/Users/stapi/OneDrive/Desktop/GD32VW553/V1_MQTT_OK/GD32VW55X_Wifi_BLE_SDK/GD32VW55x_RELEASE_V1.0.2/MSDK/wpa_supplicant/src/ap\ieee802_11_vht.c **** 		if ((ap_tx_mcs_set & (0x3 << (i * 2))) == 3)
 430              		.loc 1 154 2
 154:C:/Users/stapi/OneDrive/Desktop/GD32VW553/V1_MQTT_OK/GD32VW55X_Wifi_BLE_SDK/GD32VW55x_RELEASE_V1.0.2/MSDK/wpa_supplicant/src/ap\ieee802_11_vht.c **** 		if ((ap_tx_mcs_set & (0x3 << (i * 2))) == 3)
 431              		.loc 1 154 14
 155:C:/Users/stapi/OneDrive/Desktop/GD32VW553/V1_MQTT_OK/GD32VW55X_Wifi_BLE_SDK/GD32VW55x_RELEASE_V1.0.2/MSDK/wpa_supplicant/src/ap\ieee802_11_vht.c **** 			continue;
 432              		.loc 1 155 29 is_stmt 0
 433 006a 0D46     		li	a2,3
 152:C:/Users/stapi/OneDrive/Desktop/GD32VW553/V1_MQTT_OK/GD32VW55X_Wifi_BLE_SDK/GD32VW55x_RELEASE_V1.0.2/MSDK/wpa_supplicant/src/ap\ieee802_11_vht.c **** 
 434              		.loc 1 152 16
 435 006c 0147     		li	a4,0
 154:C:/Users/stapi/OneDrive/Desktop/GD32VW553/V1_MQTT_OK/GD32VW55X_Wifi_BLE_SDK/GD32VW55x_RELEASE_V1.0.2/MSDK/wpa_supplicant/src/ap\ieee802_11_vht.c **** 		if ((ap_tx_mcs_set & (0x3 << (i * 2))) == 3)
 436              		.loc 1 154 2
 437 006e C145     		li	a1,16
 438              	.LVL37:
 439              	.L33:
 155:C:/Users/stapi/OneDrive/Desktop/GD32VW553/V1_MQTT_OK/GD32VW55X_Wifi_BLE_SDK/GD32VW55x_RELEASE_V1.0.2/MSDK/wpa_supplicant/src/ap\ieee802_11_vht.c **** 			continue;
 440              		.loc 1 155 3 is_stmt 1
 155:C:/Users/stapi/OneDrive/Desktop/GD32VW553/V1_MQTT_OK/GD32VW55X_Wifi_BLE_SDK/GD32VW55x_RELEASE_V1.0.2/MSDK/wpa_supplicant/src/ap\ieee802_11_vht.c **** 			continue;
 441              		.loc 1 155 29 is_stmt 0
 442 0070 B316E600 		sll	a3,a2,a4
 155:C:/Users/stapi/OneDrive/Desktop/GD32VW553/V1_MQTT_OK/GD32VW55X_Wifi_BLE_SDK/GD32VW55x_RELEASE_V1.0.2/MSDK/wpa_supplicant/src/ap\ieee802_11_vht.c **** 			continue;
 443              		.loc 1 155 22
 444 0074 3378D500 		and	a6,a0,a3
 155:C:/Users/stapi/OneDrive/Desktop/GD32VW553/V1_MQTT_OK/GD32VW55X_Wifi_BLE_SDK/GD32VW55x_RELEASE_V1.0.2/MSDK/wpa_supplicant/src/ap\ieee802_11_vht.c **** 			continue;
 445              		.loc 1 155 6
 446 0078 6305C800 		beq	a6,a2,.L31
 158:C:/Users/stapi/OneDrive/Desktop/GD32VW553/V1_MQTT_OK/GD32VW55X_Wifi_BLE_SDK/GD32VW55x_RELEASE_V1.0.2/MSDK/wpa_supplicant/src/ap\ieee802_11_vht.c **** 			continue;
 447              		.loc 1 158 3 is_stmt 1
 158:C:/Users/stapi/OneDrive/Desktop/GD32VW553/V1_MQTT_OK/GD32VW55X_Wifi_BLE_SDK/GD32VW55x_RELEASE_V1.0.2/MSDK/wpa_supplicant/src/ap\ieee802_11_vht.c **** 			continue;
 448              		.loc 1 158 23 is_stmt 0
 449 007c FD8E     		and	a3,a5,a3
 158:C:/Users/stapi/OneDrive/Desktop/GD32VW553/V1_MQTT_OK/GD32VW55X_Wifi_BLE_SDK/GD32VW55x_RELEASE_V1.0.2/MSDK/wpa_supplicant/src/ap\ieee802_11_vht.c **** 			continue;
 450              		.loc 1 158 6
 451 007e E399C6FA 		bne	a3,a2,.L32
 452              	.L31:
 154:C:/Users/stapi/OneDrive/Desktop/GD32VW553/V1_MQTT_OK/GD32VW55X_Wifi_BLE_SDK/GD32VW55x_RELEASE_V1.0.2/MSDK/wpa_supplicant/src/ap\ieee802_11_vht.c **** 		if ((ap_tx_mcs_set & (0x3 << (i * 2))) == 3)
 453              		.loc 1 154 42 is_stmt 1
 154:C:/Users/stapi/OneDrive/Desktop/GD32VW553/V1_MQTT_OK/GD32VW55X_Wifi_BLE_SDK/GD32VW55x_RELEASE_V1.0.2/MSDK/wpa_supplicant/src/ap\ieee802_11_vht.c **** 		if ((ap_tx_mcs_set & (0x3 << (i * 2))) == 3)
 454              		.loc 1 154 14
 154:C:/Users/stapi/OneDrive/Desktop/GD32VW553/V1_MQTT_OK/GD32VW55X_Wifi_BLE_SDK/GD32VW55x_RELEASE_V1.0.2/MSDK/wpa_supplicant/src/ap\ieee802_11_vht.c **** 		if ((ap_tx_mcs_set & (0x3 << (i * 2))) == 3)
 455              		.loc 1 154 2 is_stmt 0
 456 0082 0907     		addi	a4,a4,2
 457 0084 E316B7FE 		bne	a4,a1,.L33
 164:C:/Users/stapi/OneDrive/Desktop/GD32VW553/V1_MQTT_OK/GD32VW55X_Wifi_BLE_SDK/GD32VW55x_RELEASE_V1.0.2/MSDK/wpa_supplicant/src/ap\ieee802_11_vht.c **** 		   "No matching VHT MCS found between AP TX and STA RX");
 458              		.loc 1 164 2 is_stmt 1
 459 0088 B7050000 		lui	a1,%hi(.LC0)
 460 008c 93850500 		addi	a1,a1,%lo(.LC0)
 461 0090 0945     		li	a0,2
 462              	.LVL38:
 463 0092 97000000 		call	wpa_printf
 463      E7800000 
 464              	.LVL39:
 166:C:/Users/stapi/OneDrive/Desktop/GD32VW553/V1_MQTT_OK/GD32VW55X_Wifi_BLE_SDK/GD32VW55x_RELEASE_V1.0.2/MSDK/wpa_supplicant/src/ap\ieee802_11_vht.c **** }
 465              		.loc 1 166 2
 466              	.L27:
 467              	.LBE17:
 468              	.LBE18:
 177:C:/Users/stapi/OneDrive/Desktop/GD32VW553/V1_MQTT_OK/GD32VW55X_Wifi_BLE_SDK/GD32VW55x_RELEASE_V1.0.2/MSDK/wpa_supplicant/src/ap\ieee802_11_vht.c **** 		os_free(sta->vht_capabilities);
 469              		.loc 1 177 3
 177:C:/Users/stapi/OneDrive/Desktop/GD32VW553/V1_MQTT_OK/GD32VW55X_Wifi_BLE_SDK/GD32VW55x_RELEASE_V1.0.2/MSDK/wpa_supplicant/src/ap\ieee802_11_vht.c **** 		os_free(sta->vht_capabilities);
 470              		.loc 1 177 14 is_stmt 0
 471 009a 1C50     		lw	a5,32(s0)
 178:C:/Users/stapi/OneDrive/Desktop/GD32VW553/V1_MQTT_OK/GD32VW55X_Wifi_BLE_SDK/GD32VW55x_RELEASE_V1.0.2/MSDK/wpa_supplicant/src/ap\ieee802_11_vht.c **** 		sta->vht_capabilities = NULL;
 472              		.loc 1 178 3
 473 009c 0325040C 		lw	a0,192(s0)
 177:C:/Users/stapi/OneDrive/Desktop/GD32VW553/V1_MQTT_OK/GD32VW55X_Wifi_BLE_SDK/GD32VW55x_RELEASE_V1.0.2/MSDK/wpa_supplicant/src/ap\ieee802_11_vht.c **** 		os_free(sta->vht_capabilities);
 474              		.loc 1 177 14
 475 00a0 93972749 		bclri	a5,a5,18
 476 00a4 1CD0     		sw	a5,32(s0)
 178:C:/Users/stapi/OneDrive/Desktop/GD32VW553/V1_MQTT_OK/GD32VW55X_Wifi_BLE_SDK/GD32VW55x_RELEASE_V1.0.2/MSDK/wpa_supplicant/src/ap\ieee802_11_vht.c **** 		sta->vht_capabilities = NULL;
 477              		.loc 1 178 3 is_stmt 1
 478 00a6 97000000 		call	os_free
 478      E7800000 
 479              	.LVL40:
 179:C:/Users/stapi/OneDrive/Desktop/GD32VW553/V1_MQTT_OK/GD32VW55X_Wifi_BLE_SDK/GD32VW55x_RELEASE_V1.0.2/MSDK/wpa_supplicant/src/ap\ieee802_11_vht.c **** 		return WLAN_STATUS_SUCCESS;
 480              		.loc 1 179 3
 179:C:/Users/stapi/OneDrive/Desktop/GD32VW553/V1_MQTT_OK/GD32VW55X_Wifi_BLE_SDK/GD32VW55x_RELEASE_V1.0.2/MSDK/wpa_supplicant/src/ap\ieee802_11_vht.c **** 		return WLAN_STATUS_SUCCESS;
 481              		.loc 1 179 25 is_stmt 0
 482 00ae 2320040C 		sw	zero,192(s0)
 180:C:/Users/stapi/OneDrive/Desktop/GD32VW553/V1_MQTT_OK/GD32VW55X_Wifi_BLE_SDK/GD32VW55x_RELEASE_V1.0.2/MSDK/wpa_supplicant/src/ap\ieee802_11_vht.c **** 	}
 483              		.loc 1 180 3 is_stmt 1
 484              	.L46:
 188:C:/Users/stapi/OneDrive/Desktop/GD32VW553/V1_MQTT_OK/GD32VW55X_Wifi_BLE_SDK/GD32VW55x_RELEASE_V1.0.2/MSDK/wpa_supplicant/src/ap\ieee802_11_vht.c **** 	}
 189:C:/Users/stapi/OneDrive/Desktop/GD32VW553/V1_MQTT_OK/GD32VW55X_Wifi_BLE_SDK/GD32VW55x_RELEASE_V1.0.2/MSDK/wpa_supplicant/src/ap\ieee802_11_vht.c **** 
 190:C:/Users/stapi/OneDrive/Desktop/GD32VW553/V1_MQTT_OK/GD32VW55X_Wifi_BLE_SDK/GD32VW55x_RELEASE_V1.0.2/MSDK/wpa_supplicant/src/ap\ieee802_11_vht.c **** 	sta->flags |= WLAN_STA_VHT;
 191:C:/Users/stapi/OneDrive/Desktop/GD32VW553/V1_MQTT_OK/GD32VW55X_Wifi_BLE_SDK/GD32VW55x_RELEASE_V1.0.2/MSDK/wpa_supplicant/src/ap\ieee802_11_vht.c **** 	os_memcpy(sta->vht_capabilities, vht_capab,
 192:C:/Users/stapi/OneDrive/Desktop/GD32VW553/V1_MQTT_OK/GD32VW55X_Wifi_BLE_SDK/GD32VW55x_RELEASE_V1.0.2/MSDK/wpa_supplicant/src/ap\ieee802_11_vht.c **** 		  sizeof(struct ieee80211_vht_capabilities));
 193:C:/Users/stapi/OneDrive/Desktop/GD32VW553/V1_MQTT_OK/GD32VW55X_Wifi_BLE_SDK/GD32VW55x_RELEASE_V1.0.2/MSDK/wpa_supplicant/src/ap\ieee802_11_vht.c **** 
 194:C:/Users/stapi/OneDrive/Desktop/GD32VW553/V1_MQTT_OK/GD32VW55X_Wifi_BLE_SDK/GD32VW55x_RELEASE_V1.0.2/MSDK/wpa_supplicant/src/ap\ieee802_11_vht.c **** 	return WLAN_STATUS_SUCCESS;
 485              		.loc 1 194 2
 486              		.loc 1 194 9 is_stmt 0
 487 00b2 0145     		li	a0,0
 488              	.L34:
 195:C:/Users/stapi/OneDrive/Desktop/GD32VW553/V1_MQTT_OK/GD32VW55X_Wifi_BLE_SDK/GD32VW55x_RELEASE_V1.0.2/MSDK/wpa_supplicant/src/ap\ieee802_11_vht.c **** }
 489              		.loc 1 195 1
 490 00b4 4101     		addi	sp,sp,16
 491              		.cfi_remember_state
 492              		.cfi_def_cfa_offset 0
 493 00b6 17030000 		tail	__riscv_restore_2
 493      67000300 
 494              		.cfi_restore 9
 495              		.cfi_restore 8
 496              		.cfi_restore 1
 497              		.cfi_def_cfa_offset -16
 498              	.LVL41:
 499              	.L30:
 500              		.cfi_restore_state
 190:C:/Users/stapi/OneDrive/Desktop/GD32VW553/V1_MQTT_OK/GD32VW55X_Wifi_BLE_SDK/GD32VW55x_RELEASE_V1.0.2/MSDK/wpa_supplicant/src/ap\ieee802_11_vht.c **** 	os_memcpy(sta->vht_capabilities, vht_capab,
 501              		.loc 1 190 2 is_stmt 1
 190:C:/Users/stapi/OneDrive/Desktop/GD32VW553/V1_MQTT_OK/GD32VW55X_Wifi_BLE_SDK/GD32VW55x_RELEASE_V1.0.2/MSDK/wpa_supplicant/src/ap\ieee802_11_vht.c **** 	os_memcpy(sta->vht_capabilities, vht_capab,
 502              		.loc 1 190 13 is_stmt 0
 503 00be 1C50     		lw	a5,32(s0)
 191:C:/Users/stapi/OneDrive/Desktop/GD32VW553/V1_MQTT_OK/GD32VW55X_Wifi_BLE_SDK/GD32VW55x_RELEASE_V1.0.2/MSDK/wpa_supplicant/src/ap\ieee802_11_vht.c **** 		  sizeof(struct ieee80211_vht_capabilities));
 504              		.loc 1 191 2
 505 00c0 0325040C 		lw	a0,192(s0)
 506 00c4 3146     		li	a2,12
 190:C:/Users/stapi/OneDrive/Desktop/GD32VW553/V1_MQTT_OK/GD32VW55X_Wifi_BLE_SDK/GD32VW55x_RELEASE_V1.0.2/MSDK/wpa_supplicant/src/ap\ieee802_11_vht.c **** 	os_memcpy(sta->vht_capabilities, vht_capab,
 507              		.loc 1 190 13
 508 00c6 93972729 		bseti	a5,a5,18
 191:C:/Users/stapi/OneDrive/Desktop/GD32VW553/V1_MQTT_OK/GD32VW55X_Wifi_BLE_SDK/GD32VW55x_RELEASE_V1.0.2/MSDK/wpa_supplicant/src/ap\ieee802_11_vht.c **** 		  sizeof(struct ieee80211_vht_capabilities));
 509              		.loc 1 191 2
 510 00ca A685     		mv	a1,s1
 190:C:/Users/stapi/OneDrive/Desktop/GD32VW553/V1_MQTT_OK/GD32VW55X_Wifi_BLE_SDK/GD32VW55x_RELEASE_V1.0.2/MSDK/wpa_supplicant/src/ap\ieee802_11_vht.c **** 	os_memcpy(sta->vht_capabilities, vht_capab,
 511              		.loc 1 190 13
 512 00cc 1CD0     		sw	a5,32(s0)
 191:C:/Users/stapi/OneDrive/Desktop/GD32VW553/V1_MQTT_OK/GD32VW55X_Wifi_BLE_SDK/GD32VW55x_RELEASE_V1.0.2/MSDK/wpa_supplicant/src/ap\ieee802_11_vht.c **** 		  sizeof(struct ieee80211_vht_capabilities));
 513              		.loc 1 191 2 is_stmt 1
 514 00ce 97000000 		call	os_memcpy
 514      E7800000 
 515              	.LVL42:
 516 00d6 F1BF     		j	.L46
 517              		.cfi_endproc
 518              	.LFE142:
 520              		.section	.text.copy_sta_vht_oper,"ax",@progbits
 521              		.align	1
 522              		.globl	copy_sta_vht_oper
 524              	copy_sta_vht_oper:
 525              	.LFB143:
 196:C:/Users/stapi/OneDrive/Desktop/GD32VW553/V1_MQTT_OK/GD32VW55X_Wifi_BLE_SDK/GD32VW55x_RELEASE_V1.0.2/MSDK/wpa_supplicant/src/ap\ieee802_11_vht.c **** 
 197:C:/Users/stapi/OneDrive/Desktop/GD32VW553/V1_MQTT_OK/GD32VW55X_Wifi_BLE_SDK/GD32VW55x_RELEASE_V1.0.2/MSDK/wpa_supplicant/src/ap\ieee802_11_vht.c **** 
 198:C:/Users/stapi/OneDrive/Desktop/GD32VW553/V1_MQTT_OK/GD32VW55X_Wifi_BLE_SDK/GD32VW55x_RELEASE_V1.0.2/MSDK/wpa_supplicant/src/ap\ieee802_11_vht.c **** u16 copy_sta_vht_oper(struct hostapd_data *hapd, struct sta_info *sta,
 199:C:/Users/stapi/OneDrive/Desktop/GD32VW553/V1_MQTT_OK/GD32VW55X_Wifi_BLE_SDK/GD32VW55x_RELEASE_V1.0.2/MSDK/wpa_supplicant/src/ap\ieee802_11_vht.c **** 		      const u8 *vht_oper)
 200:C:/Users/stapi/OneDrive/Desktop/GD32VW553/V1_MQTT_OK/GD32VW55X_Wifi_BLE_SDK/GD32VW55x_RELEASE_V1.0.2/MSDK/wpa_supplicant/src/ap\ieee802_11_vht.c **** {
 526              		.loc 1 200 1
 527              		.cfi_startproc
 528              	.LVL43:
 529 0000 17030000 		call	t0,__riscv_save_1
 529      E7020300 
 530              		.cfi_offset 8, -8
 531              		.cfi_offset 1, -4
 532              		.cfi_def_cfa_offset 16
 201:C:/Users/stapi/OneDrive/Desktop/GD32VW553/V1_MQTT_OK/GD32VW55X_Wifi_BLE_SDK/GD32VW55x_RELEASE_V1.0.2/MSDK/wpa_supplicant/src/ap\ieee802_11_vht.c **** 	if (!vht_oper) {
 533              		.loc 1 201 2
 202:C:/Users/stapi/OneDrive/Desktop/GD32VW553/V1_MQTT_OK/GD32VW55X_Wifi_BLE_SDK/GD32VW55x_RELEASE_V1.0.2/MSDK/wpa_supplicant/src/ap\ieee802_11_vht.c **** 		os_free(sta->vht_operation);
 534              		.loc 1 202 14 is_stmt 0
 535 0008 03A5450C 		lw	a0,196(a1)
 536              	.LVL44:
 200:C:/Users/stapi/OneDrive/Desktop/GD32VW553/V1_MQTT_OK/GD32VW55X_Wifi_BLE_SDK/GD32VW55x_RELEASE_V1.0.2/MSDK/wpa_supplicant/src/ap\ieee802_11_vht.c **** 	if (!vht_oper) {
 537              		.loc 1 200 1
 538 000c 4111     		addi	sp,sp,-16
 539              		.cfi_def_cfa_offset 32
 200:C:/Users/stapi/OneDrive/Desktop/GD32VW553/V1_MQTT_OK/GD32VW55X_Wifi_BLE_SDK/GD32VW55x_RELEASE_V1.0.2/MSDK/wpa_supplicant/src/ap\ieee802_11_vht.c **** 	if (!vht_oper) {
 540              		.loc 1 200 1
 541 000e 2E84     		mv	s0,a1
 201:C:/Users/stapi/OneDrive/Desktop/GD32VW553/V1_MQTT_OK/GD32VW55X_Wifi_BLE_SDK/GD32VW55x_RELEASE_V1.0.2/MSDK/wpa_supplicant/src/ap\ieee802_11_vht.c **** 	if (!vht_oper) {
 542              		.loc 1 201 5
 543 0010 09EE     		bne	a2,zero,.L48
 544              		.loc 1 202 3 is_stmt 1
 545 0012 97000000 		call	os_free
 545      E7800000 
 546              	.LVL45:
 203:C:/Users/stapi/OneDrive/Desktop/GD32VW553/V1_MQTT_OK/GD32VW55X_Wifi_BLE_SDK/GD32VW55x_RELEASE_V1.0.2/MSDK/wpa_supplicant/src/ap\ieee802_11_vht.c **** 		sta->vht_operation = NULL;
 547              		.loc 1 203 3
 548              		.loc 1 203 22 is_stmt 0
 549 001a 2322040C 		sw	zero,196(s0)
 204:C:/Users/stapi/OneDrive/Desktop/GD32VW553/V1_MQTT_OK/GD32VW55X_Wifi_BLE_SDK/GD32VW55x_RELEASE_V1.0.2/MSDK/wpa_supplicant/src/ap\ieee802_11_vht.c **** 		return WLAN_STATUS_SUCCESS;
 550              		.loc 1 204 3 is_stmt 1
 551              	.L53:
 205:C:/Users/stapi/OneDrive/Desktop/GD32VW553/V1_MQTT_OK/GD32VW55X_Wifi_BLE_SDK/GD32VW55x_RELEASE_V1.0.2/MSDK/wpa_supplicant/src/ap\ieee802_11_vht.c **** 	}
 206:C:/Users/stapi/OneDrive/Desktop/GD32VW553/V1_MQTT_OK/GD32VW55X_Wifi_BLE_SDK/GD32VW55x_RELEASE_V1.0.2/MSDK/wpa_supplicant/src/ap\ieee802_11_vht.c **** 
 207:C:/Users/stapi/OneDrive/Desktop/GD32VW553/V1_MQTT_OK/GD32VW55X_Wifi_BLE_SDK/GD32VW55x_RELEASE_V1.0.2/MSDK/wpa_supplicant/src/ap\ieee802_11_vht.c **** 	if (!sta->vht_operation) {
 208:C:/Users/stapi/OneDrive/Desktop/GD32VW553/V1_MQTT_OK/GD32VW55X_Wifi_BLE_SDK/GD32VW55x_RELEASE_V1.0.2/MSDK/wpa_supplicant/src/ap\ieee802_11_vht.c **** 		sta->vht_operation =
 209:C:/Users/stapi/OneDrive/Desktop/GD32VW553/V1_MQTT_OK/GD32VW55X_Wifi_BLE_SDK/GD32VW55x_RELEASE_V1.0.2/MSDK/wpa_supplicant/src/ap\ieee802_11_vht.c **** 			os_zalloc(sizeof(struct ieee80211_vht_operation));
 210:C:/Users/stapi/OneDrive/Desktop/GD32VW553/V1_MQTT_OK/GD32VW55X_Wifi_BLE_SDK/GD32VW55x_RELEASE_V1.0.2/MSDK/wpa_supplicant/src/ap\ieee802_11_vht.c **** 		if (!sta->vht_operation)
 211:C:/Users/stapi/OneDrive/Desktop/GD32VW553/V1_MQTT_OK/GD32VW55X_Wifi_BLE_SDK/GD32VW55x_RELEASE_V1.0.2/MSDK/wpa_supplicant/src/ap\ieee802_11_vht.c **** 			return WLAN_STATUS_UNSPECIFIED_FAILURE;
 212:C:/Users/stapi/OneDrive/Desktop/GD32VW553/V1_MQTT_OK/GD32VW55X_Wifi_BLE_SDK/GD32VW55x_RELEASE_V1.0.2/MSDK/wpa_supplicant/src/ap\ieee802_11_vht.c **** 	}
 213:C:/Users/stapi/OneDrive/Desktop/GD32VW553/V1_MQTT_OK/GD32VW55X_Wifi_BLE_SDK/GD32VW55x_RELEASE_V1.0.2/MSDK/wpa_supplicant/src/ap\ieee802_11_vht.c **** 
 214:C:/Users/stapi/OneDrive/Desktop/GD32VW553/V1_MQTT_OK/GD32VW55X_Wifi_BLE_SDK/GD32VW55x_RELEASE_V1.0.2/MSDK/wpa_supplicant/src/ap\ieee802_11_vht.c **** 	os_memcpy(sta->vht_operation, vht_oper,
 215:C:/Users/stapi/OneDrive/Desktop/GD32VW553/V1_MQTT_OK/GD32VW55X_Wifi_BLE_SDK/GD32VW55x_RELEASE_V1.0.2/MSDK/wpa_supplicant/src/ap\ieee802_11_vht.c **** 		  sizeof(struct ieee80211_vht_operation));
 216:C:/Users/stapi/OneDrive/Desktop/GD32VW553/V1_MQTT_OK/GD32VW55X_Wifi_BLE_SDK/GD32VW55x_RELEASE_V1.0.2/MSDK/wpa_supplicant/src/ap\ieee802_11_vht.c **** 
 217:C:/Users/stapi/OneDrive/Desktop/GD32VW553/V1_MQTT_OK/GD32VW55X_Wifi_BLE_SDK/GD32VW55x_RELEASE_V1.0.2/MSDK/wpa_supplicant/src/ap\ieee802_11_vht.c **** 	return WLAN_STATUS_SUCCESS;
 552              		.loc 1 217 2
 553              		.loc 1 217 9 is_stmt 0
 554 001e 0145     		li	a0,0
 555              	.L49:
 218:C:/Users/stapi/OneDrive/Desktop/GD32VW553/V1_MQTT_OK/GD32VW55X_Wifi_BLE_SDK/GD32VW55x_RELEASE_V1.0.2/MSDK/wpa_supplicant/src/ap\ieee802_11_vht.c **** }
 556              		.loc 1 218 1
 557 0020 4101     		addi	sp,sp,16
 558              		.cfi_remember_state
 559              		.cfi_def_cfa_offset 0
 560 0022 17030000 		tail	__riscv_restore_1
 560      67000300 
 561              		.cfi_restore 8
 562              		.cfi_restore 1
 563              		.cfi_def_cfa_offset -16
 564              	.LVL46:
 565              	.L48:
 566              		.cfi_restore_state
 567 002a B285     		mv	a1,a2
 207:C:/Users/stapi/OneDrive/Desktop/GD32VW553/V1_MQTT_OK/GD32VW55X_Wifi_BLE_SDK/GD32VW55x_RELEASE_V1.0.2/MSDK/wpa_supplicant/src/ap\ieee802_11_vht.c **** 		sta->vht_operation =
 568              		.loc 1 207 2 is_stmt 1
 207:C:/Users/stapi/OneDrive/Desktop/GD32VW553/V1_MQTT_OK/GD32VW55X_Wifi_BLE_SDK/GD32VW55x_RELEASE_V1.0.2/MSDK/wpa_supplicant/src/ap\ieee802_11_vht.c **** 		sta->vht_operation =
 569              		.loc 1 207 5 is_stmt 0
 570 002c 09C9     		beq	a0,zero,.L50
 571              	.LVL47:
 572              	.L51:
 214:C:/Users/stapi/OneDrive/Desktop/GD32VW553/V1_MQTT_OK/GD32VW55X_Wifi_BLE_SDK/GD32VW55x_RELEASE_V1.0.2/MSDK/wpa_supplicant/src/ap\ieee802_11_vht.c **** 		  sizeof(struct ieee80211_vht_operation));
 573              		.loc 1 214 2 is_stmt 1
 574 002e 0325440C 		lw	a0,196(s0)
 575 0032 1546     		li	a2,5
 576 0034 97000000 		call	os_memcpy
 576      E7800000 
 577              	.LVL48:
 578 003c CDB7     		j	.L53
 579              	.LVL49:
 580              	.L50:
 209:C:/Users/stapi/OneDrive/Desktop/GD32VW553/V1_MQTT_OK/GD32VW55X_Wifi_BLE_SDK/GD32VW55x_RELEASE_V1.0.2/MSDK/wpa_supplicant/src/ap\ieee802_11_vht.c **** 		if (!sta->vht_operation)
 581              		.loc 1 209 4 is_stmt 0
 582 003e 1545     		li	a0,5
 583 0040 32C6     		sw	a2,12(sp)
 208:C:/Users/stapi/OneDrive/Desktop/GD32VW553/V1_MQTT_OK/GD32VW55X_Wifi_BLE_SDK/GD32VW55x_RELEASE_V1.0.2/MSDK/wpa_supplicant/src/ap\ieee802_11_vht.c **** 			os_zalloc(sizeof(struct ieee80211_vht_operation));
 584              		.loc 1 208 3 is_stmt 1
 209:C:/Users/stapi/OneDrive/Desktop/GD32VW553/V1_MQTT_OK/GD32VW55X_Wifi_BLE_SDK/GD32VW55x_RELEASE_V1.0.2/MSDK/wpa_supplicant/src/ap\ieee802_11_vht.c **** 		if (!sta->vht_operation)
 585              		.loc 1 209 4 is_stmt 0
 586 0042 97000000 		call	os_zalloc
 586      E7800000 
 587              	.LVL50:
 208:C:/Users/stapi/OneDrive/Desktop/GD32VW553/V1_MQTT_OK/GD32VW55X_Wifi_BLE_SDK/GD32VW55x_RELEASE_V1.0.2/MSDK/wpa_supplicant/src/ap\ieee802_11_vht.c **** 			os_zalloc(sizeof(struct ieee80211_vht_operation));
 588              		.loc 1 208 22
 589 004a 2322A40C 		sw	a0,196(s0)
 210:C:/Users/stapi/OneDrive/Desktop/GD32VW553/V1_MQTT_OK/GD32VW55X_Wifi_BLE_SDK/GD32VW55x_RELEASE_V1.0.2/MSDK/wpa_supplicant/src/ap\ieee802_11_vht.c **** 			return WLAN_STATUS_UNSPECIFIED_FAILURE;
 590              		.loc 1 210 3 is_stmt 1
 210:C:/Users/stapi/OneDrive/Desktop/GD32VW553/V1_MQTT_OK/GD32VW55X_Wifi_BLE_SDK/GD32VW55x_RELEASE_V1.0.2/MSDK/wpa_supplicant/src/ap\ieee802_11_vht.c **** 			return WLAN_STATUS_UNSPECIFIED_FAILURE;
 591              		.loc 1 210 6 is_stmt 0
 592 004e B245     		lw	a1,12(sp)
 593 0050 79FD     		bne	a0,zero,.L51
 211:C:/Users/stapi/OneDrive/Desktop/GD32VW553/V1_MQTT_OK/GD32VW55X_Wifi_BLE_SDK/GD32VW55x_RELEASE_V1.0.2/MSDK/wpa_supplicant/src/ap\ieee802_11_vht.c **** 	}
 594              		.loc 1 211 11
 595 0052 0545     		li	a0,1
 596 0054 F1B7     		j	.L49
 597              		.cfi_endproc
 598              	.LFE143:
 600              		.section	.text.copy_sta_vendor_vht,"ax",@progbits
 601              		.align	1
 602              		.globl	copy_sta_vendor_vht
 604              	copy_sta_vendor_vht:
 605              	.LFB144:
 219:C:/Users/stapi/OneDrive/Desktop/GD32VW553/V1_MQTT_OK/GD32VW55X_Wifi_BLE_SDK/GD32VW55x_RELEASE_V1.0.2/MSDK/wpa_supplicant/src/ap\ieee802_11_vht.c **** 
 220:C:/Users/stapi/OneDrive/Desktop/GD32VW553/V1_MQTT_OK/GD32VW55X_Wifi_BLE_SDK/GD32VW55x_RELEASE_V1.0.2/MSDK/wpa_supplicant/src/ap\ieee802_11_vht.c **** 
 221:C:/Users/stapi/OneDrive/Desktop/GD32VW553/V1_MQTT_OK/GD32VW55X_Wifi_BLE_SDK/GD32VW55x_RELEASE_V1.0.2/MSDK/wpa_supplicant/src/ap\ieee802_11_vht.c **** u16 copy_sta_vendor_vht(struct hostapd_data *hapd, struct sta_info *sta,
 222:C:/Users/stapi/OneDrive/Desktop/GD32VW553/V1_MQTT_OK/GD32VW55X_Wifi_BLE_SDK/GD32VW55x_RELEASE_V1.0.2/MSDK/wpa_supplicant/src/ap\ieee802_11_vht.c **** 			const u8 *ie, size_t len)
 223:C:/Users/stapi/OneDrive/Desktop/GD32VW553/V1_MQTT_OK/GD32VW55X_Wifi_BLE_SDK/GD32VW55x_RELEASE_V1.0.2/MSDK/wpa_supplicant/src/ap\ieee802_11_vht.c **** {
 606              		.loc 1 223 1 is_stmt 1
 607              		.cfi_startproc
 608              	.LVL51:
 609 0000 17030000 		call	t0,__riscv_save_1
 609      E7020300 
 610              		.cfi_offset 8, -8
 611              		.cfi_offset 1, -4
 612              		.cfi_def_cfa_offset 16
 224:C:/Users/stapi/OneDrive/Desktop/GD32VW553/V1_MQTT_OK/GD32VW55X_Wifi_BLE_SDK/GD32VW55x_RELEASE_V1.0.2/MSDK/wpa_supplicant/src/ap\ieee802_11_vht.c **** 	const u8 *vht_capab;
 613              		.loc 1 224 2
 225:C:/Users/stapi/OneDrive/Desktop/GD32VW553/V1_MQTT_OK/GD32VW55X_Wifi_BLE_SDK/GD32VW55x_RELEASE_V1.0.2/MSDK/wpa_supplicant/src/ap\ieee802_11_vht.c **** 	unsigned int vht_capab_len;
 614              		.loc 1 225 2
 226:C:/Users/stapi/OneDrive/Desktop/GD32VW553/V1_MQTT_OK/GD32VW55X_Wifi_BLE_SDK/GD32VW55x_RELEASE_V1.0.2/MSDK/wpa_supplicant/src/ap\ieee802_11_vht.c **** 
 227:C:/Users/stapi/OneDrive/Desktop/GD32VW553/V1_MQTT_OK/GD32VW55X_Wifi_BLE_SDK/GD32VW55x_RELEASE_V1.0.2/MSDK/wpa_supplicant/src/ap\ieee802_11_vht.c **** 	if (!ie || len < 5 + 2 + sizeof(struct ieee80211_vht_capabilities) ||
 615              		.loc 1 227 2
 223:C:/Users/stapi/OneDrive/Desktop/GD32VW553/V1_MQTT_OK/GD32VW55X_Wifi_BLE_SDK/GD32VW55x_RELEASE_V1.0.2/MSDK/wpa_supplicant/src/ap\ieee802_11_vht.c **** 	const u8 *vht_capab;
 616              		.loc 1 223 1 is_stmt 0
 617 0008 4111     		addi	sp,sp,-16
 618              		.cfi_def_cfa_offset 32
 223:C:/Users/stapi/OneDrive/Desktop/GD32VW553/V1_MQTT_OK/GD32VW55X_Wifi_BLE_SDK/GD32VW55x_RELEASE_V1.0.2/MSDK/wpa_supplicant/src/ap\ieee802_11_vht.c **** 	const u8 *vht_capab;
 619              		.loc 1 223 1
 620 000a 2E84     		mv	s0,a1
 621              		.loc 1 227 5
 622 000c 35CA     		beq	a2,zero,.L55
 623              		.loc 1 227 10 discriminator 1
 624 000e C947     		li	a5,18
 625 0010 63F8D706 		bleu	a3,a5,.L55
 228:C:/Users/stapi/OneDrive/Desktop/GD32VW553/V1_MQTT_OK/GD32VW55X_Wifi_BLE_SDK/GD32VW55x_RELEASE_V1.0.2/MSDK/wpa_supplicant/src/ap\ieee802_11_vht.c **** 	    hapd->conf->disable_11ac)
 626              		.loc 1 228 16 discriminator 2
 627 0014 1C45     		lw	a5,8(a0)
 227:C:/Users/stapi/OneDrive/Desktop/GD32VW553/V1_MQTT_OK/GD32VW55X_Wifi_BLE_SDK/GD32VW55x_RELEASE_V1.0.2/MSDK/wpa_supplicant/src/ap\ieee802_11_vht.c **** 	    hapd->conf->disable_11ac)
 628              		.loc 1 227 69 discriminator 2
 629 0016 83C79729 		lbu	a5,665(a5)
 630 001a BDE3     		bne	a5,zero,.L55
 229:C:/Users/stapi/OneDrive/Desktop/GD32VW553/V1_MQTT_OK/GD32VW55X_Wifi_BLE_SDK/GD32VW55x_RELEASE_V1.0.2/MSDK/wpa_supplicant/src/ap\ieee802_11_vht.c **** 		goto no_capab;
 230:C:/Users/stapi/OneDrive/Desktop/GD32VW553/V1_MQTT_OK/GD32VW55X_Wifi_BLE_SDK/GD32VW55x_RELEASE_V1.0.2/MSDK/wpa_supplicant/src/ap\ieee802_11_vht.c **** 
 231:C:/Users/stapi/OneDrive/Desktop/GD32VW553/V1_MQTT_OK/GD32VW55X_Wifi_BLE_SDK/GD32VW55x_RELEASE_V1.0.2/MSDK/wpa_supplicant/src/ap\ieee802_11_vht.c **** 	/* The VHT Capabilities element embedded in vendor VHT */
 232:C:/Users/stapi/OneDrive/Desktop/GD32VW553/V1_MQTT_OK/GD32VW55X_Wifi_BLE_SDK/GD32VW55x_RELEASE_V1.0.2/MSDK/wpa_supplicant/src/ap\ieee802_11_vht.c **** 	vht_capab = ie + 5;
 631              		.loc 1 232 2 is_stmt 1
 632              	.LVL52:
 233:C:/Users/stapi/OneDrive/Desktop/GD32VW553/V1_MQTT_OK/GD32VW55X_Wifi_BLE_SDK/GD32VW55x_RELEASE_V1.0.2/MSDK/wpa_supplicant/src/ap\ieee802_11_vht.c **** 	if (vht_capab[0] != WLAN_EID_VHT_CAP)
 633              		.loc 1 233 2
 634              		.loc 1 233 5 is_stmt 0
 635 001c 03475600 		lbu	a4,5(a2)
 636 0020 9307F00B 		li	a5,191
 637 0024 631EF704 		bne	a4,a5,.L55
 234:C:/Users/stapi/OneDrive/Desktop/GD32VW553/V1_MQTT_OK/GD32VW55X_Wifi_BLE_SDK/GD32VW55x_RELEASE_V1.0.2/MSDK/wpa_supplicant/src/ap\ieee802_11_vht.c **** 		goto no_capab;
 235:C:/Users/stapi/OneDrive/Desktop/GD32VW553/V1_MQTT_OK/GD32VW55X_Wifi_BLE_SDK/GD32VW55x_RELEASE_V1.0.2/MSDK/wpa_supplicant/src/ap\ieee802_11_vht.c **** 	vht_capab_len = vht_capab[1];
 638              		.loc 1 235 2 is_stmt 1
 639              		.loc 1 235 27 is_stmt 0
 640 0028 83476600 		lbu	a5,6(a2)
 641              	.LVL53:
 236:C:/Users/stapi/OneDrive/Desktop/GD32VW553/V1_MQTT_OK/GD32VW55X_Wifi_BLE_SDK/GD32VW55x_RELEASE_V1.0.2/MSDK/wpa_supplicant/src/ap\ieee802_11_vht.c **** 	if (vht_capab_len < sizeof(struct ieee80211_vht_capabilities) ||
 642              		.loc 1 236 2 is_stmt 1
 643              		.loc 1 236 5 is_stmt 0
 644 002c 2D47     		li	a4,11
 645 002e 6379F704 		bleu	a5,a4,.L55
 237:C:/Users/stapi/OneDrive/Desktop/GD32VW553/V1_MQTT_OK/GD32VW55X_Wifi_BLE_SDK/GD32VW55x_RELEASE_V1.0.2/MSDK/wpa_supplicant/src/ap\ieee802_11_vht.c **** 	    (int) vht_capab_len > ie + len - vht_capab - 2)
 646              		.loc 1 237 26 discriminator 1
 647 0032 E916     		addi	a3,a3,-6
 648              	.LVL54:
 236:C:/Users/stapi/OneDrive/Desktop/GD32VW553/V1_MQTT_OK/GD32VW55X_Wifi_BLE_SDK/GD32VW55x_RELEASE_V1.0.2/MSDK/wpa_supplicant/src/ap\ieee802_11_vht.c **** 	if (vht_capab_len < sizeof(struct ieee80211_vht_capabilities) ||
 649              		.loc 1 236 64 discriminator 1
 650 0034 63D6D704 		ble	a3,a5,.L55
 238:C:/Users/stapi/OneDrive/Desktop/GD32VW553/V1_MQTT_OK/GD32VW55X_Wifi_BLE_SDK/GD32VW55x_RELEASE_V1.0.2/MSDK/wpa_supplicant/src/ap\ieee802_11_vht.c **** 		goto no_capab;
 239:C:/Users/stapi/OneDrive/Desktop/GD32VW553/V1_MQTT_OK/GD32VW55X_Wifi_BLE_SDK/GD32VW55x_RELEASE_V1.0.2/MSDK/wpa_supplicant/src/ap\ieee802_11_vht.c **** 	vht_capab += 2;
 651              		.loc 1 239 2 is_stmt 1
 240:C:/Users/stapi/OneDrive/Desktop/GD32VW553/V1_MQTT_OK/GD32VW55X_Wifi_BLE_SDK/GD32VW55x_RELEASE_V1.0.2/MSDK/wpa_supplicant/src/ap\ieee802_11_vht.c **** 
 241:C:/Users/stapi/OneDrive/Desktop/GD32VW553/V1_MQTT_OK/GD32VW55X_Wifi_BLE_SDK/GD32VW55x_RELEASE_V1.0.2/MSDK/wpa_supplicant/src/ap\ieee802_11_vht.c **** 	if (sta->vht_capabilities == NULL) {
 652              		.loc 1 241 5 is_stmt 0
 653 0038 8327040C 		lw	a5,192(s0)
 654              	.LVL55:
 239:C:/Users/stapi/OneDrive/Desktop/GD32VW553/V1_MQTT_OK/GD32VW55X_Wifi_BLE_SDK/GD32VW55x_RELEASE_V1.0.2/MSDK/wpa_supplicant/src/ap\ieee802_11_vht.c **** 
 655              		.loc 1 239 12
 656 003c 93057600 		addi	a1,a2,7
 657              	.LVL56:
 658              		.loc 1 241 2 is_stmt 1
 659              		.loc 1 241 5 is_stmt 0
 660 0040 99CF     		beq	a5,zero,.L56
 661              	.LVL57:
 662              	.L58:
 242:C:/Users/stapi/OneDrive/Desktop/GD32VW553/V1_MQTT_OK/GD32VW55X_Wifi_BLE_SDK/GD32VW55x_RELEASE_V1.0.2/MSDK/wpa_supplicant/src/ap\ieee802_11_vht.c **** 		sta->vht_capabilities =
 243:C:/Users/stapi/OneDrive/Desktop/GD32VW553/V1_MQTT_OK/GD32VW55X_Wifi_BLE_SDK/GD32VW55x_RELEASE_V1.0.2/MSDK/wpa_supplicant/src/ap\ieee802_11_vht.c **** 			os_zalloc(sizeof(struct ieee80211_vht_capabilities));
 244:C:/Users/stapi/OneDrive/Desktop/GD32VW553/V1_MQTT_OK/GD32VW55X_Wifi_BLE_SDK/GD32VW55x_RELEASE_V1.0.2/MSDK/wpa_supplicant/src/ap\ieee802_11_vht.c **** 		if (sta->vht_capabilities == NULL)
 245:C:/Users/stapi/OneDrive/Desktop/GD32VW553/V1_MQTT_OK/GD32VW55X_Wifi_BLE_SDK/GD32VW55x_RELEASE_V1.0.2/MSDK/wpa_supplicant/src/ap\ieee802_11_vht.c **** 			return WLAN_STATUS_UNSPECIFIED_FAILURE;
 246:C:/Users/stapi/OneDrive/Desktop/GD32VW553/V1_MQTT_OK/GD32VW55X_Wifi_BLE_SDK/GD32VW55x_RELEASE_V1.0.2/MSDK/wpa_supplicant/src/ap\ieee802_11_vht.c **** 	}
 247:C:/Users/stapi/OneDrive/Desktop/GD32VW553/V1_MQTT_OK/GD32VW55X_Wifi_BLE_SDK/GD32VW55x_RELEASE_V1.0.2/MSDK/wpa_supplicant/src/ap\ieee802_11_vht.c **** 
 248:C:/Users/stapi/OneDrive/Desktop/GD32VW553/V1_MQTT_OK/GD32VW55X_Wifi_BLE_SDK/GD32VW55x_RELEASE_V1.0.2/MSDK/wpa_supplicant/src/ap\ieee802_11_vht.c **** 	sta->flags |= WLAN_STA_VHT | WLAN_STA_VENDOR_VHT;
 663              		.loc 1 248 2 is_stmt 1
 664              		.loc 1 248 13 is_stmt 0
 665 0042 1C50     		lw	a5,32(s0)
 666 0044 37072400 		li	a4,2359296
 249:C:/Users/stapi/OneDrive/Desktop/GD32VW553/V1_MQTT_OK/GD32VW55X_Wifi_BLE_SDK/GD32VW55x_RELEASE_V1.0.2/MSDK/wpa_supplicant/src/ap\ieee802_11_vht.c **** 	os_memcpy(sta->vht_capabilities, vht_capab,
 667              		.loc 1 249 2
 668 0048 0325040C 		lw	a0,192(s0)
 248:C:/Users/stapi/OneDrive/Desktop/GD32VW553/V1_MQTT_OK/GD32VW55X_Wifi_BLE_SDK/GD32VW55x_RELEASE_V1.0.2/MSDK/wpa_supplicant/src/ap\ieee802_11_vht.c **** 	os_memcpy(sta->vht_capabilities, vht_capab,
 669              		.loc 1 248 13
 670 004c D98F     		or	a5,a5,a4
 671 004e 1CD0     		sw	a5,32(s0)
 672              		.loc 1 249 2 is_stmt 1
 673 0050 3146     		li	a2,12
 674 0052 97000000 		call	os_memcpy
 674      E7800000 
 675              	.LVL58:
 250:C:/Users/stapi/OneDrive/Desktop/GD32VW553/V1_MQTT_OK/GD32VW55X_Wifi_BLE_SDK/GD32VW55x_RELEASE_V1.0.2/MSDK/wpa_supplicant/src/ap\ieee802_11_vht.c **** 		  sizeof(struct ieee80211_vht_capabilities));
 251:C:/Users/stapi/OneDrive/Desktop/GD32VW553/V1_MQTT_OK/GD32VW55X_Wifi_BLE_SDK/GD32VW55x_RELEASE_V1.0.2/MSDK/wpa_supplicant/src/ap\ieee802_11_vht.c **** 	return WLAN_STATUS_SUCCESS;
 676              		.loc 1 251 2
 677              	.L64:
 252:C:/Users/stapi/OneDrive/Desktop/GD32VW553/V1_MQTT_OK/GD32VW55X_Wifi_BLE_SDK/GD32VW55x_RELEASE_V1.0.2/MSDK/wpa_supplicant/src/ap\ieee802_11_vht.c **** 
 253:C:/Users/stapi/OneDrive/Desktop/GD32VW553/V1_MQTT_OK/GD32VW55X_Wifi_BLE_SDK/GD32VW55x_RELEASE_V1.0.2/MSDK/wpa_supplicant/src/ap\ieee802_11_vht.c **** no_capab:
 254:C:/Users/stapi/OneDrive/Desktop/GD32VW553/V1_MQTT_OK/GD32VW55X_Wifi_BLE_SDK/GD32VW55x_RELEASE_V1.0.2/MSDK/wpa_supplicant/src/ap\ieee802_11_vht.c **** 	sta->flags &= ~WLAN_STA_VENDOR_VHT;
 255:C:/Users/stapi/OneDrive/Desktop/GD32VW553/V1_MQTT_OK/GD32VW55X_Wifi_BLE_SDK/GD32VW55x_RELEASE_V1.0.2/MSDK/wpa_supplicant/src/ap\ieee802_11_vht.c **** 	return WLAN_STATUS_SUCCESS;
 678              		.loc 1 255 2
 679              		.loc 1 255 9 is_stmt 0
 680 005a 0145     		li	a0,0
 681 005c 29A8     		j	.L57
 682              	.LVL59:
 683              	.L56:
 243:C:/Users/stapi/OneDrive/Desktop/GD32VW553/V1_MQTT_OK/GD32VW55X_Wifi_BLE_SDK/GD32VW55x_RELEASE_V1.0.2/MSDK/wpa_supplicant/src/ap\ieee802_11_vht.c **** 		if (sta->vht_capabilities == NULL)
 684              		.loc 1 243 4
 685 005e 3145     		li	a0,12
 686              	.LVL60:
 687 0060 2EC6     		sw	a1,12(sp)
 242:C:/Users/stapi/OneDrive/Desktop/GD32VW553/V1_MQTT_OK/GD32VW55X_Wifi_BLE_SDK/GD32VW55x_RELEASE_V1.0.2/MSDK/wpa_supplicant/src/ap\ieee802_11_vht.c **** 			os_zalloc(sizeof(struct ieee80211_vht_capabilities));
 688              		.loc 1 242 3 is_stmt 1
 243:C:/Users/stapi/OneDrive/Desktop/GD32VW553/V1_MQTT_OK/GD32VW55X_Wifi_BLE_SDK/GD32VW55x_RELEASE_V1.0.2/MSDK/wpa_supplicant/src/ap\ieee802_11_vht.c **** 		if (sta->vht_capabilities == NULL)
 689              		.loc 1 243 4 is_stmt 0
 690 0062 97000000 		call	os_zalloc
 690      E7800000 
 691              	.LVL61:
 692 006a AA87     		mv	a5,a0
 242:C:/Users/stapi/OneDrive/Desktop/GD32VW553/V1_MQTT_OK/GD32VW55X_Wifi_BLE_SDK/GD32VW55x_RELEASE_V1.0.2/MSDK/wpa_supplicant/src/ap\ieee802_11_vht.c **** 			os_zalloc(sizeof(struct ieee80211_vht_capabilities));
 693              		.loc 1 242 25
 694 006c 2320A40C 		sw	a0,192(s0)
 244:C:/Users/stapi/OneDrive/Desktop/GD32VW553/V1_MQTT_OK/GD32VW55X_Wifi_BLE_SDK/GD32VW55x_RELEASE_V1.0.2/MSDK/wpa_supplicant/src/ap\ieee802_11_vht.c **** 			return WLAN_STATUS_UNSPECIFIED_FAILURE;
 695              		.loc 1 244 3 is_stmt 1
 244:C:/Users/stapi/OneDrive/Desktop/GD32VW553/V1_MQTT_OK/GD32VW55X_Wifi_BLE_SDK/GD32VW55x_RELEASE_V1.0.2/MSDK/wpa_supplicant/src/ap\ieee802_11_vht.c **** 			return WLAN_STATUS_UNSPECIFIED_FAILURE;
 696              		.loc 1 244 6 is_stmt 0
 697 0070 B245     		lw	a1,12(sp)
 245:C:/Users/stapi/OneDrive/Desktop/GD32VW553/V1_MQTT_OK/GD32VW55X_Wifi_BLE_SDK/GD32VW55x_RELEASE_V1.0.2/MSDK/wpa_supplicant/src/ap\ieee802_11_vht.c **** 	}
 698              		.loc 1 245 11
 699 0072 0545     		li	a0,1
 244:C:/Users/stapi/OneDrive/Desktop/GD32VW553/V1_MQTT_OK/GD32VW55X_Wifi_BLE_SDK/GD32VW55x_RELEASE_V1.0.2/MSDK/wpa_supplicant/src/ap\ieee802_11_vht.c **** 			return WLAN_STATUS_UNSPECIFIED_FAILURE;
 700              		.loc 1 244 6
 701 0074 F9F7     		bne	a5,zero,.L58
 702              	.LVL62:
 703              	.L57:
 256:C:/Users/stapi/OneDrive/Desktop/GD32VW553/V1_MQTT_OK/GD32VW55X_Wifi_BLE_SDK/GD32VW55x_RELEASE_V1.0.2/MSDK/wpa_supplicant/src/ap\ieee802_11_vht.c **** }
 704              		.loc 1 256 1
 705 0076 4101     		addi	sp,sp,16
 706              		.cfi_remember_state
 707              		.cfi_def_cfa_offset 0
 708 0078 17030000 		tail	__riscv_restore_1
 708      67000300 
 709              		.cfi_restore 8
 710              		.cfi_restore 1
 711              		.cfi_def_cfa_offset -16
 712              	.LVL63:
 713              	.L55:
 714              		.cfi_restore_state
 254:C:/Users/stapi/OneDrive/Desktop/GD32VW553/V1_MQTT_OK/GD32VW55X_Wifi_BLE_SDK/GD32VW55x_RELEASE_V1.0.2/MSDK/wpa_supplicant/src/ap\ieee802_11_vht.c **** 	return WLAN_STATUS_SUCCESS;
 715              		.loc 1 254 2 is_stmt 1
 254:C:/Users/stapi/OneDrive/Desktop/GD32VW553/V1_MQTT_OK/GD32VW55X_Wifi_BLE_SDK/GD32VW55x_RELEASE_V1.0.2/MSDK/wpa_supplicant/src/ap\ieee802_11_vht.c **** 	return WLAN_STATUS_SUCCESS;
 716              		.loc 1 254 13 is_stmt 0
 717 0080 1C50     		lw	a5,32(s0)
 718 0082 93975749 		bclri	a5,a5,21
 719 0086 1CD0     		sw	a5,32(s0)
 720 0088 C9BF     		j	.L64
 721              		.cfi_endproc
 722              	.LFE144:
 724              		.section	.text.hostapd_eid_vendor_vht,"ax",@progbits
 725              		.align	1
 726              		.globl	hostapd_eid_vendor_vht
 728              	hostapd_eid_vendor_vht:
 729              	.LFB145:
 257:C:/Users/stapi/OneDrive/Desktop/GD32VW553/V1_MQTT_OK/GD32VW55X_Wifi_BLE_SDK/GD32VW55x_RELEASE_V1.0.2/MSDK/wpa_supplicant/src/ap\ieee802_11_vht.c **** 
 258:C:/Users/stapi/OneDrive/Desktop/GD32VW553/V1_MQTT_OK/GD32VW55X_Wifi_BLE_SDK/GD32VW55x_RELEASE_V1.0.2/MSDK/wpa_supplicant/src/ap\ieee802_11_vht.c **** 
 259:C:/Users/stapi/OneDrive/Desktop/GD32VW553/V1_MQTT_OK/GD32VW55X_Wifi_BLE_SDK/GD32VW55x_RELEASE_V1.0.2/MSDK/wpa_supplicant/src/ap\ieee802_11_vht.c **** u8 * hostapd_eid_vendor_vht(struct hostapd_data *hapd, u8 *eid)
 260:C:/Users/stapi/OneDrive/Desktop/GD32VW553/V1_MQTT_OK/GD32VW55X_Wifi_BLE_SDK/GD32VW55x_RELEASE_V1.0.2/MSDK/wpa_supplicant/src/ap\ieee802_11_vht.c **** {
 730              		.loc 1 260 1 is_stmt 1
 731              		.cfi_startproc
 732              	.LVL64:
 261:C:/Users/stapi/OneDrive/Desktop/GD32VW553/V1_MQTT_OK/GD32VW55X_Wifi_BLE_SDK/GD32VW55x_RELEASE_V1.0.2/MSDK/wpa_supplicant/src/ap\ieee802_11_vht.c **** 	u8 *pos = eid;
 733              		.loc 1 261 2
 262:C:/Users/stapi/OneDrive/Desktop/GD32VW553/V1_MQTT_OK/GD32VW55X_Wifi_BLE_SDK/GD32VW55x_RELEASE_V1.0.2/MSDK/wpa_supplicant/src/ap\ieee802_11_vht.c **** 
 263:C:/Users/stapi/OneDrive/Desktop/GD32VW553/V1_MQTT_OK/GD32VW55X_Wifi_BLE_SDK/GD32VW55x_RELEASE_V1.0.2/MSDK/wpa_supplicant/src/ap\ieee802_11_vht.c **** 	/* Vendor VHT is applicable only to 2.4 GHz */
 264:C:/Users/stapi/OneDrive/Desktop/GD32VW553/V1_MQTT_OK/GD32VW55X_Wifi_BLE_SDK/GD32VW55x_RELEASE_V1.0.2/MSDK/wpa_supplicant/src/ap\ieee802_11_vht.c **** 	if (!hapd->iface->current_mode ||
 734              		.loc 1 264 2
 735              		.loc 1 264 18 is_stmt 0
 736 0000 1C41     		lw	a5,0(a0)
 737 0002 83A74746 		lw	a5,1124(a5)
 738              		.loc 1 264 5
 739 0006 ADC3     		beq	a5,zero,.L71
 740              		.loc 1 264 33 discriminator 1
 741 0008 9843     		lw	a4,0(a5)
 742 000a 8547     		li	a5,1
 743 000c 631EF704 		bne	a4,a5,.L71
 260:C:/Users/stapi/OneDrive/Desktop/GD32VW553/V1_MQTT_OK/GD32VW55X_Wifi_BLE_SDK/GD32VW55x_RELEASE_V1.0.2/MSDK/wpa_supplicant/src/ap\ieee802_11_vht.c **** 	u8 *pos = eid;
 744              		.loc 1 260 1
 745 0010 17030000 		call	t0,__riscv_save_1
 745      E7020300 
 746              		.cfi_offset 8, -8
 747              		.cfi_offset 1, -4
 748              		.cfi_def_cfa_offset 16
 265:C:/Users/stapi/OneDrive/Desktop/GD32VW553/V1_MQTT_OK/GD32VW55X_Wifi_BLE_SDK/GD32VW55x_RELEASE_V1.0.2/MSDK/wpa_supplicant/src/ap\ieee802_11_vht.c **** 	    hapd->iface->current_mode->mode != HOSTAPD_MODE_IEEE80211G)
 266:C:/Users/stapi/OneDrive/Desktop/GD32VW553/V1_MQTT_OK/GD32VW55X_Wifi_BLE_SDK/GD32VW55x_RELEASE_V1.0.2/MSDK/wpa_supplicant/src/ap\ieee802_11_vht.c **** 		return eid;
 267:C:/Users/stapi/OneDrive/Desktop/GD32VW553/V1_MQTT_OK/GD32VW55X_Wifi_BLE_SDK/GD32VW55x_RELEASE_V1.0.2/MSDK/wpa_supplicant/src/ap\ieee802_11_vht.c **** 
 268:C:/Users/stapi/OneDrive/Desktop/GD32VW553/V1_MQTT_OK/GD32VW55X_Wifi_BLE_SDK/GD32VW55x_RELEASE_V1.0.2/MSDK/wpa_supplicant/src/ap\ieee802_11_vht.c **** 	*pos++ = WLAN_EID_VENDOR_SPECIFIC;
 749              		.loc 1 268 9
 750 0018 9307D0FD 		li	a5,-35
 751 001c 2380F500 		sb	a5,0(a1)
 269:C:/Users/stapi/OneDrive/Desktop/GD32VW553/V1_MQTT_OK/GD32VW55X_Wifi_BLE_SDK/GD32VW55x_RELEASE_V1.0.2/MSDK/wpa_supplicant/src/ap\ieee802_11_vht.c **** 	*pos++ = (5 +		/* The Vendor OUI, type and subtype */
 752              		.loc 1 269 9
 753 0020 E947     		li	a5,26
 754 0022 A380F500 		sb	a5,1(a1)
 755              	.LBB19:
 756              	.LBB20:
 757              		.file 2 "..\\..\\..\\..\\wpa_supplicant\\src/utils/common.h"
   1:..\..\..\..\wpa_supplicant\src/utils/common.h **** /*
   2:..\..\..\..\wpa_supplicant\src/utils/common.h ****  * wpa_supplicant/hostapd / common helper functions, etc.
   3:..\..\..\..\wpa_supplicant\src/utils/common.h ****  * Copyright (c) 2002-2007, Jouni Malinen <j@w1.fi>
   4:..\..\..\..\wpa_supplicant\src/utils/common.h ****  *
   5:..\..\..\..\wpa_supplicant\src/utils/common.h ****  * This software may be distributed under the terms of the BSD license.
   6:..\..\..\..\wpa_supplicant\src/utils/common.h ****  * See README for more details.
   7:..\..\..\..\wpa_supplicant\src/utils/common.h ****  */
   8:..\..\..\..\wpa_supplicant\src/utils/common.h **** 
   9:..\..\..\..\wpa_supplicant\src/utils/common.h **** #ifndef COMMON_H
  10:..\..\..\..\wpa_supplicant\src/utils/common.h **** #define COMMON_H
  11:..\..\..\..\wpa_supplicant\src/utils/common.h **** 
  12:..\..\..\..\wpa_supplicant\src/utils/common.h **** #include "os.h"
  13:..\..\..\..\wpa_supplicant\src/utils/common.h **** 
  14:..\..\..\..\wpa_supplicant\src/utils/common.h **** #if defined(__linux__) || defined(__GLIBC__)
  15:..\..\..\..\wpa_supplicant\src/utils/common.h **** #include <endian.h>
  16:..\..\..\..\wpa_supplicant\src/utils/common.h **** #include <byteswap.h>
  17:..\..\..\..\wpa_supplicant\src/utils/common.h **** #endif /* __linux__ */
  18:..\..\..\..\wpa_supplicant\src/utils/common.h **** 
  19:..\..\..\..\wpa_supplicant\src/utils/common.h **** #if defined(__FreeBSD__) || defined(__NetBSD__) || defined(__DragonFly__) || \
  20:..\..\..\..\wpa_supplicant\src/utils/common.h ****     defined(__OpenBSD__)
  21:..\..\..\..\wpa_supplicant\src/utils/common.h **** #include <sys/types.h>
  22:..\..\..\..\wpa_supplicant\src/utils/common.h **** #include <sys/endian.h>
  23:..\..\..\..\wpa_supplicant\src/utils/common.h **** #define __BYTE_ORDER	_BYTE_ORDER
  24:..\..\..\..\wpa_supplicant\src/utils/common.h **** #define	__LITTLE_ENDIAN	_LITTLE_ENDIAN
  25:..\..\..\..\wpa_supplicant\src/utils/common.h **** #define	__BIG_ENDIAN	_BIG_ENDIAN
  26:..\..\..\..\wpa_supplicant\src/utils/common.h **** #ifdef __OpenBSD__
  27:..\..\..\..\wpa_supplicant\src/utils/common.h **** #define bswap_16 swap16
  28:..\..\..\..\wpa_supplicant\src/utils/common.h **** #define bswap_32 swap32
  29:..\..\..\..\wpa_supplicant\src/utils/common.h **** #define bswap_64 swap64
  30:..\..\..\..\wpa_supplicant\src/utils/common.h **** #else /* __OpenBSD__ */
  31:..\..\..\..\wpa_supplicant\src/utils/common.h **** #define bswap_16 bswap16
  32:..\..\..\..\wpa_supplicant\src/utils/common.h **** #define bswap_32 bswap32
  33:..\..\..\..\wpa_supplicant\src/utils/common.h **** #define bswap_64 bswap64
  34:..\..\..\..\wpa_supplicant\src/utils/common.h **** #endif /* __OpenBSD__ */
  35:..\..\..\..\wpa_supplicant\src/utils/common.h **** #endif /* defined(__FreeBSD__) || defined(__NetBSD__) ||
  36:..\..\..\..\wpa_supplicant\src/utils/common.h **** 	* defined(__DragonFly__) || defined(__OpenBSD__) */
  37:..\..\..\..\wpa_supplicant\src/utils/common.h **** 
  38:..\..\..\..\wpa_supplicant\src/utils/common.h **** #ifdef __APPLE__
  39:..\..\..\..\wpa_supplicant\src/utils/common.h **** #include <sys/types.h>
  40:..\..\..\..\wpa_supplicant\src/utils/common.h **** #include <machine/endian.h>
  41:..\..\..\..\wpa_supplicant\src/utils/common.h **** #define __BYTE_ORDER	_BYTE_ORDER
  42:..\..\..\..\wpa_supplicant\src/utils/common.h **** #define __LITTLE_ENDIAN	_LITTLE_ENDIAN
  43:..\..\..\..\wpa_supplicant\src/utils/common.h **** #define __BIG_ENDIAN	_BIG_ENDIAN
  44:..\..\..\..\wpa_supplicant\src/utils/common.h **** static inline unsigned short bswap_16(unsigned short v)
  45:..\..\..\..\wpa_supplicant\src/utils/common.h **** {
  46:..\..\..\..\wpa_supplicant\src/utils/common.h **** 	return ((v & 0xff) << 8) | (v >> 8);
  47:..\..\..\..\wpa_supplicant\src/utils/common.h **** }
  48:..\..\..\..\wpa_supplicant\src/utils/common.h **** 
  49:..\..\..\..\wpa_supplicant\src/utils/common.h **** static inline unsigned int bswap_32(unsigned int v)
  50:..\..\..\..\wpa_supplicant\src/utils/common.h **** {
  51:..\..\..\..\wpa_supplicant\src/utils/common.h **** 	return ((v & 0xff) << 24) | ((v & 0xff00) << 8) |
  52:..\..\..\..\wpa_supplicant\src/utils/common.h **** 		((v & 0xff0000) >> 8) | (v >> 24);
  53:..\..\..\..\wpa_supplicant\src/utils/common.h **** }
  54:..\..\..\..\wpa_supplicant\src/utils/common.h **** #endif /* __APPLE__ */
  55:..\..\..\..\wpa_supplicant\src/utils/common.h **** 
  56:..\..\..\..\wpa_supplicant\src/utils/common.h **** #ifdef CONFIG_GDWIFI
  57:..\..\..\..\wpa_supplicant\src/utils/common.h **** // #include <sys/types.h>
  58:..\..\..\..\wpa_supplicant\src/utils/common.h **** // #include <machine/endian.h>
  59:..\..\..\..\wpa_supplicant\src/utils/common.h **** #define __BYTE_ORDER	BYTE_ORDER
  60:..\..\..\..\wpa_supplicant\src/utils/common.h **** #define __LITTLE_ENDIAN	LITTLE_ENDIAN
  61:..\..\..\..\wpa_supplicant\src/utils/common.h **** #define __BIG_ENDIAN	BIG_ENDIAN
  62:..\..\..\..\wpa_supplicant\src/utils/common.h **** #define ETHER_ADDR_LEN	6
  63:..\..\..\..\wpa_supplicant\src/utils/common.h **** #define ETH_P_802_3	0x0001		/* Dummy type for 802.3 frames  */
  64:..\..\..\..\wpa_supplicant\src/utils/common.h **** 
  65:..\..\..\..\wpa_supplicant\src/utils/common.h **** static inline unsigned short bswap_16(unsigned short v)
  66:..\..\..\..\wpa_supplicant\src/utils/common.h **** {
  67:..\..\..\..\wpa_supplicant\src/utils/common.h **** 	return ((v & 0xff) << 8) | (v >> 8);
  68:..\..\..\..\wpa_supplicant\src/utils/common.h **** }
  69:..\..\..\..\wpa_supplicant\src/utils/common.h **** 
  70:..\..\..\..\wpa_supplicant\src/utils/common.h **** static inline unsigned int bswap_32(unsigned int v)
  71:..\..\..\..\wpa_supplicant\src/utils/common.h **** {
  72:..\..\..\..\wpa_supplicant\src/utils/common.h **** 	return ((v & 0xff) << 24) | ((v & 0xff00) << 8) |
  73:..\..\..\..\wpa_supplicant\src/utils/common.h **** 		((v & 0xff0000) >> 8) | (v >> 24);
  74:..\..\..\..\wpa_supplicant\src/utils/common.h **** }
  75:..\..\..\..\wpa_supplicant\src/utils/common.h **** 
  76:..\..\..\..\wpa_supplicant\src/utils/common.h **** struct ether_header
  77:..\..\..\..\wpa_supplicant\src/utils/common.h **** {
  78:..\..\..\..\wpa_supplicant\src/utils/common.h **** 	uint8_t  ether_dhost[ETHER_ADDR_LEN];
  79:..\..\..\..\wpa_supplicant\src/utils/common.h **** 	uint8_t  ether_shost[ETHER_ADDR_LEN];
  80:..\..\..\..\wpa_supplicant\src/utils/common.h **** 	uint16_t ether_type;
  81:..\..\..\..\wpa_supplicant\src/utils/common.h **** } __PACKED;
  82:..\..\..\..\wpa_supplicant\src/utils/common.h **** #endif /* CONFIG_GDWIFI */
  83:..\..\..\..\wpa_supplicant\src/utils/common.h **** #ifdef __rtems__
  84:..\..\..\..\wpa_supplicant\src/utils/common.h **** #include <rtems/endian.h>
  85:..\..\..\..\wpa_supplicant\src/utils/common.h **** #define __BYTE_ORDER BYTE_ORDER
  86:..\..\..\..\wpa_supplicant\src/utils/common.h **** #define __LITTLE_ENDIAN LITTLE_ENDIAN
  87:..\..\..\..\wpa_supplicant\src/utils/common.h **** #define __BIG_ENDIAN BIG_ENDIAN
  88:..\..\..\..\wpa_supplicant\src/utils/common.h **** #define bswap_16 CPU_swap_u16
  89:..\..\..\..\wpa_supplicant\src/utils/common.h **** #define bswap_32 CPU_swap_u32
  90:..\..\..\..\wpa_supplicant\src/utils/common.h **** #endif /* __rtems__ */
  91:..\..\..\..\wpa_supplicant\src/utils/common.h **** 
  92:..\..\..\..\wpa_supplicant\src/utils/common.h **** #ifdef CONFIG_NATIVE_WINDOWS
  93:..\..\..\..\wpa_supplicant\src/utils/common.h **** #include <winsock.h>
  94:..\..\..\..\wpa_supplicant\src/utils/common.h **** 
  95:..\..\..\..\wpa_supplicant\src/utils/common.h **** typedef int socklen_t;
  96:..\..\..\..\wpa_supplicant\src/utils/common.h **** 
  97:..\..\..\..\wpa_supplicant\src/utils/common.h **** #ifndef MSG_DONTWAIT
  98:..\..\..\..\wpa_supplicant\src/utils/common.h **** #define MSG_DONTWAIT 0 /* not supported */
  99:..\..\..\..\wpa_supplicant\src/utils/common.h **** #endif
 100:..\..\..\..\wpa_supplicant\src/utils/common.h **** 
 101:..\..\..\..\wpa_supplicant\src/utils/common.h **** #endif /* CONFIG_NATIVE_WINDOWS */
 102:..\..\..\..\wpa_supplicant\src/utils/common.h **** 
 103:..\..\..\..\wpa_supplicant\src/utils/common.h **** #ifdef _MSC_VER
 104:..\..\..\..\wpa_supplicant\src/utils/common.h **** #define inline __inline
 105:..\..\..\..\wpa_supplicant\src/utils/common.h **** 
 106:..\..\..\..\wpa_supplicant\src/utils/common.h **** #undef vsnprintf
 107:..\..\..\..\wpa_supplicant\src/utils/common.h **** #define vsnprintf _vsnprintf
 108:..\..\..\..\wpa_supplicant\src/utils/common.h **** #undef close
 109:..\..\..\..\wpa_supplicant\src/utils/common.h **** #define close closesocket
 110:..\..\..\..\wpa_supplicant\src/utils/common.h **** #endif /* _MSC_VER */
 111:..\..\..\..\wpa_supplicant\src/utils/common.h **** 
 112:..\..\..\..\wpa_supplicant\src/utils/common.h **** 
 113:..\..\..\..\wpa_supplicant\src/utils/common.h **** /* Define platform specific integer types */
 114:..\..\..\..\wpa_supplicant\src/utils/common.h **** 
 115:..\..\..\..\wpa_supplicant\src/utils/common.h **** #ifdef _MSC_VER
 116:..\..\..\..\wpa_supplicant\src/utils/common.h **** typedef UINT64 u64;
 117:..\..\..\..\wpa_supplicant\src/utils/common.h **** typedef UINT32 u32;
 118:..\..\..\..\wpa_supplicant\src/utils/common.h **** typedef UINT16 u16;
 119:..\..\..\..\wpa_supplicant\src/utils/common.h **** typedef UINT8 u8;
 120:..\..\..\..\wpa_supplicant\src/utils/common.h **** typedef INT64 s64;
 121:..\..\..\..\wpa_supplicant\src/utils/common.h **** typedef INT32 s32;
 122:..\..\..\..\wpa_supplicant\src/utils/common.h **** typedef INT16 s16;
 123:..\..\..\..\wpa_supplicant\src/utils/common.h **** typedef INT8 s8;
 124:..\..\..\..\wpa_supplicant\src/utils/common.h **** #define WPA_TYPES_DEFINED
 125:..\..\..\..\wpa_supplicant\src/utils/common.h **** #endif /* _MSC_VER */
 126:..\..\..\..\wpa_supplicant\src/utils/common.h **** 
 127:..\..\..\..\wpa_supplicant\src/utils/common.h **** #ifdef __vxworks
 128:..\..\..\..\wpa_supplicant\src/utils/common.h **** typedef unsigned long long u64;
 129:..\..\..\..\wpa_supplicant\src/utils/common.h **** typedef UINT32 u32;
 130:..\..\..\..\wpa_supplicant\src/utils/common.h **** typedef UINT16 u16;
 131:..\..\..\..\wpa_supplicant\src/utils/common.h **** typedef UINT8 u8;
 132:..\..\..\..\wpa_supplicant\src/utils/common.h **** typedef long long s64;
 133:..\..\..\..\wpa_supplicant\src/utils/common.h **** typedef INT32 s32;
 134:..\..\..\..\wpa_supplicant\src/utils/common.h **** typedef INT16 s16;
 135:..\..\..\..\wpa_supplicant\src/utils/common.h **** typedef INT8 s8;
 136:..\..\..\..\wpa_supplicant\src/utils/common.h **** #define WPA_TYPES_DEFINED
 137:..\..\..\..\wpa_supplicant\src/utils/common.h **** #endif /* __vxworks */
 138:..\..\..\..\wpa_supplicant\src/utils/common.h **** 
 139:..\..\..\..\wpa_supplicant\src/utils/common.h **** #ifndef WPA_TYPES_DEFINED
 140:..\..\..\..\wpa_supplicant\src/utils/common.h **** #ifdef CONFIG_USE_INTTYPES_H
 141:..\..\..\..\wpa_supplicant\src/utils/common.h **** #include <inttypes.h>
 142:..\..\..\..\wpa_supplicant\src/utils/common.h **** #else
 143:..\..\..\..\wpa_supplicant\src/utils/common.h **** #include <stdint.h>
 144:..\..\..\..\wpa_supplicant\src/utils/common.h **** #endif
 145:..\..\..\..\wpa_supplicant\src/utils/common.h **** typedef uint64_t u64;
 146:..\..\..\..\wpa_supplicant\src/utils/common.h **** typedef uint32_t u32;
 147:..\..\..\..\wpa_supplicant\src/utils/common.h **** typedef uint16_t u16;
 148:..\..\..\..\wpa_supplicant\src/utils/common.h **** typedef uint8_t u8;
 149:..\..\..\..\wpa_supplicant\src/utils/common.h **** typedef int64_t s64;
 150:..\..\..\..\wpa_supplicant\src/utils/common.h **** typedef int32_t s32;
 151:..\..\..\..\wpa_supplicant\src/utils/common.h **** typedef int16_t s16;
 152:..\..\..\..\wpa_supplicant\src/utils/common.h **** typedef int8_t s8;
 153:..\..\..\..\wpa_supplicant\src/utils/common.h **** #define WPA_TYPES_DEFINED
 154:..\..\..\..\wpa_supplicant\src/utils/common.h **** #endif /* !WPA_TYPES_DEFINED */
 155:..\..\..\..\wpa_supplicant\src/utils/common.h **** 
 156:..\..\..\..\wpa_supplicant\src/utils/common.h **** 
 157:..\..\..\..\wpa_supplicant\src/utils/common.h **** /* Define platform specific byte swapping macros */
 158:..\..\..\..\wpa_supplicant\src/utils/common.h **** 
 159:..\..\..\..\wpa_supplicant\src/utils/common.h **** #if defined(__CYGWIN__) || defined(CONFIG_NATIVE_WINDOWS)
 160:..\..\..\..\wpa_supplicant\src/utils/common.h **** 
 161:..\..\..\..\wpa_supplicant\src/utils/common.h **** static inline unsigned short wpa_swap_16(unsigned short v)
 162:..\..\..\..\wpa_supplicant\src/utils/common.h **** {
 163:..\..\..\..\wpa_supplicant\src/utils/common.h **** 	return ((v & 0xff) << 8) | (v >> 8);
 164:..\..\..\..\wpa_supplicant\src/utils/common.h **** }
 165:..\..\..\..\wpa_supplicant\src/utils/common.h **** 
 166:..\..\..\..\wpa_supplicant\src/utils/common.h **** static inline unsigned int wpa_swap_32(unsigned int v)
 167:..\..\..\..\wpa_supplicant\src/utils/common.h **** {
 168:..\..\..\..\wpa_supplicant\src/utils/common.h **** 	return ((v & 0xff) << 24) | ((v & 0xff00) << 8) |
 169:..\..\..\..\wpa_supplicant\src/utils/common.h **** 		((v & 0xff0000) >> 8) | (v >> 24);
 170:..\..\..\..\wpa_supplicant\src/utils/common.h **** }
 171:..\..\..\..\wpa_supplicant\src/utils/common.h **** 
 172:..\..\..\..\wpa_supplicant\src/utils/common.h **** #define le_to_host16(n) (n)
 173:..\..\..\..\wpa_supplicant\src/utils/common.h **** #define host_to_le16(n) (n)
 174:..\..\..\..\wpa_supplicant\src/utils/common.h **** #define be_to_host16(n) wpa_swap_16(n)
 175:..\..\..\..\wpa_supplicant\src/utils/common.h **** #define host_to_be16(n) wpa_swap_16(n)
 176:..\..\..\..\wpa_supplicant\src/utils/common.h **** #define le_to_host32(n) (n)
 177:..\..\..\..\wpa_supplicant\src/utils/common.h **** #define host_to_le32(n) (n)
 178:..\..\..\..\wpa_supplicant\src/utils/common.h **** #define be_to_host32(n) wpa_swap_32(n)
 179:..\..\..\..\wpa_supplicant\src/utils/common.h **** #define host_to_be32(n) wpa_swap_32(n)
 180:..\..\..\..\wpa_supplicant\src/utils/common.h **** #define host_to_le64(n) (n)
 181:..\..\..\..\wpa_supplicant\src/utils/common.h **** 
 182:..\..\..\..\wpa_supplicant\src/utils/common.h **** #define WPA_BYTE_SWAP_DEFINED
 183:..\..\..\..\wpa_supplicant\src/utils/common.h **** 
 184:..\..\..\..\wpa_supplicant\src/utils/common.h **** #endif /* __CYGWIN__ || CONFIG_NATIVE_WINDOWS */
 185:..\..\..\..\wpa_supplicant\src/utils/common.h **** 
 186:..\..\..\..\wpa_supplicant\src/utils/common.h **** 
 187:..\..\..\..\wpa_supplicant\src/utils/common.h **** #ifndef WPA_BYTE_SWAP_DEFINED
 188:..\..\..\..\wpa_supplicant\src/utils/common.h **** 
 189:..\..\..\..\wpa_supplicant\src/utils/common.h **** #ifndef __BYTE_ORDER
 190:..\..\..\..\wpa_supplicant\src/utils/common.h **** #ifndef __LITTLE_ENDIAN
 191:..\..\..\..\wpa_supplicant\src/utils/common.h **** #ifndef __BIG_ENDIAN
 192:..\..\..\..\wpa_supplicant\src/utils/common.h **** #define __LITTLE_ENDIAN 1234
 193:..\..\..\..\wpa_supplicant\src/utils/common.h **** #define __BIG_ENDIAN 4321
 194:..\..\..\..\wpa_supplicant\src/utils/common.h **** #if defined(sparc)
 195:..\..\..\..\wpa_supplicant\src/utils/common.h **** #define __BYTE_ORDER __BIG_ENDIAN
 196:..\..\..\..\wpa_supplicant\src/utils/common.h **** #endif
 197:..\..\..\..\wpa_supplicant\src/utils/common.h **** #endif /* __BIG_ENDIAN */
 198:..\..\..\..\wpa_supplicant\src/utils/common.h **** #endif /* __LITTLE_ENDIAN */
 199:..\..\..\..\wpa_supplicant\src/utils/common.h **** #endif /* __BYTE_ORDER */
 200:..\..\..\..\wpa_supplicant\src/utils/common.h **** 
 201:..\..\..\..\wpa_supplicant\src/utils/common.h **** #if __BYTE_ORDER == __LITTLE_ENDIAN
 202:..\..\..\..\wpa_supplicant\src/utils/common.h **** #define le_to_host16(n) ((__force u16) (le16) (n))
 203:..\..\..\..\wpa_supplicant\src/utils/common.h **** #define host_to_le16(n) ((__force le16) (u16) (n))
 204:..\..\..\..\wpa_supplicant\src/utils/common.h **** #define be_to_host16(n) bswap_16((__force u16) (be16) (n))
 205:..\..\..\..\wpa_supplicant\src/utils/common.h **** #define host_to_be16(n) ((__force be16) bswap_16((n)))
 206:..\..\..\..\wpa_supplicant\src/utils/common.h **** #define le_to_host32(n) ((__force u32) (le32) (n))
 207:..\..\..\..\wpa_supplicant\src/utils/common.h **** #define host_to_le32(n) ((__force le32) (u32) (n))
 208:..\..\..\..\wpa_supplicant\src/utils/common.h **** #define be_to_host32(n) bswap_32((__force u32) (be32) (n))
 209:..\..\..\..\wpa_supplicant\src/utils/common.h **** #define host_to_be32(n) ((__force be32) bswap_32((n)))
 210:..\..\..\..\wpa_supplicant\src/utils/common.h **** #define le_to_host64(n) ((__force u64) (le64) (n))
 211:..\..\..\..\wpa_supplicant\src/utils/common.h **** #define host_to_le64(n) ((__force le64) (u64) (n))
 212:..\..\..\..\wpa_supplicant\src/utils/common.h **** #define be_to_host64(n) bswap_64((__force u64) (be64) (n))
 213:..\..\..\..\wpa_supplicant\src/utils/common.h **** #define host_to_be64(n) ((__force be64) bswap_64((n)))
 214:..\..\..\..\wpa_supplicant\src/utils/common.h **** #elif __BYTE_ORDER == __BIG_ENDIAN
 215:..\..\..\..\wpa_supplicant\src/utils/common.h **** #define le_to_host16(n) bswap_16(n)
 216:..\..\..\..\wpa_supplicant\src/utils/common.h **** #define host_to_le16(n) bswap_16(n)
 217:..\..\..\..\wpa_supplicant\src/utils/common.h **** #define be_to_host16(n) (n)
 218:..\..\..\..\wpa_supplicant\src/utils/common.h **** #define host_to_be16(n) (n)
 219:..\..\..\..\wpa_supplicant\src/utils/common.h **** #define le_to_host32(n) bswap_32(n)
 220:..\..\..\..\wpa_supplicant\src/utils/common.h **** #define host_to_le32(n) bswap_32(n)
 221:..\..\..\..\wpa_supplicant\src/utils/common.h **** #define be_to_host32(n) (n)
 222:..\..\..\..\wpa_supplicant\src/utils/common.h **** #define host_to_be32(n) (n)
 223:..\..\..\..\wpa_supplicant\src/utils/common.h **** #define le_to_host64(n) bswap_64(n)
 224:..\..\..\..\wpa_supplicant\src/utils/common.h **** #define host_to_le64(n) bswap_64(n)
 225:..\..\..\..\wpa_supplicant\src/utils/common.h **** #define be_to_host64(n) (n)
 226:..\..\..\..\wpa_supplicant\src/utils/common.h **** #define host_to_be64(n) (n)
 227:..\..\..\..\wpa_supplicant\src/utils/common.h **** #ifndef WORDS_BIGENDIAN
 228:..\..\..\..\wpa_supplicant\src/utils/common.h **** #define WORDS_BIGENDIAN
 229:..\..\..\..\wpa_supplicant\src/utils/common.h **** #endif
 230:..\..\..\..\wpa_supplicant\src/utils/common.h **** #else
 231:..\..\..\..\wpa_supplicant\src/utils/common.h **** #error Could not determine CPU byte order
 232:..\..\..\..\wpa_supplicant\src/utils/common.h **** #endif
 233:..\..\..\..\wpa_supplicant\src/utils/common.h **** 
 234:..\..\..\..\wpa_supplicant\src/utils/common.h **** #define WPA_BYTE_SWAP_DEFINED
 235:..\..\..\..\wpa_supplicant\src/utils/common.h **** #endif /* !WPA_BYTE_SWAP_DEFINED */
 236:..\..\..\..\wpa_supplicant\src/utils/common.h **** 
 237:..\..\..\..\wpa_supplicant\src/utils/common.h **** 
 238:..\..\..\..\wpa_supplicant\src/utils/common.h **** /* Macros for handling unaligned memory accesses */
 239:..\..\..\..\wpa_supplicant\src/utils/common.h **** 
 240:..\..\..\..\wpa_supplicant\src/utils/common.h **** static inline u16 WPA_GET_BE16(const u8 *a)
 241:..\..\..\..\wpa_supplicant\src/utils/common.h **** {
 242:..\..\..\..\wpa_supplicant\src/utils/common.h **** 	return (a[0] << 8) | a[1];
 243:..\..\..\..\wpa_supplicant\src/utils/common.h **** }
 244:..\..\..\..\wpa_supplicant\src/utils/common.h **** 
 245:..\..\..\..\wpa_supplicant\src/utils/common.h **** static inline void WPA_PUT_BE16(u8 *a, u16 val)
 246:..\..\..\..\wpa_supplicant\src/utils/common.h **** {
 247:..\..\..\..\wpa_supplicant\src/utils/common.h **** 	a[0] = val >> 8;
 248:..\..\..\..\wpa_supplicant\src/utils/common.h **** 	a[1] = val & 0xff;
 249:..\..\..\..\wpa_supplicant\src/utils/common.h **** }
 250:..\..\..\..\wpa_supplicant\src/utils/common.h **** 
 251:..\..\..\..\wpa_supplicant\src/utils/common.h **** static inline u16 WPA_GET_LE16(const u8 *a)
 252:..\..\..\..\wpa_supplicant\src/utils/common.h **** {
 253:..\..\..\..\wpa_supplicant\src/utils/common.h **** 	return (a[1] << 8) | a[0];
 254:..\..\..\..\wpa_supplicant\src/utils/common.h **** }
 255:..\..\..\..\wpa_supplicant\src/utils/common.h **** 
 256:..\..\..\..\wpa_supplicant\src/utils/common.h **** static inline void WPA_PUT_LE16(u8 *a, u16 val)
 257:..\..\..\..\wpa_supplicant\src/utils/common.h **** {
 258:..\..\..\..\wpa_supplicant\src/utils/common.h **** 	a[1] = val >> 8;
 259:..\..\..\..\wpa_supplicant\src/utils/common.h **** 	a[0] = val & 0xff;
 260:..\..\..\..\wpa_supplicant\src/utils/common.h **** }
 261:..\..\..\..\wpa_supplicant\src/utils/common.h **** 
 262:..\..\..\..\wpa_supplicant\src/utils/common.h **** static inline u32 WPA_GET_BE24(const u8 *a)
 263:..\..\..\..\wpa_supplicant\src/utils/common.h **** {
 264:..\..\..\..\wpa_supplicant\src/utils/common.h **** 	return (a[0] << 16) | (a[1] << 8) | a[2];
 265:..\..\..\..\wpa_supplicant\src/utils/common.h **** }
 266:..\..\..\..\wpa_supplicant\src/utils/common.h **** 
 267:..\..\..\..\wpa_supplicant\src/utils/common.h **** static inline void WPA_PUT_BE24(u8 *a, u32 val)
 268:..\..\..\..\wpa_supplicant\src/utils/common.h **** {
 269:..\..\..\..\wpa_supplicant\src/utils/common.h **** 	a[0] = (val >> 16) & 0xff;
 270:..\..\..\..\wpa_supplicant\src/utils/common.h **** 	a[1] = (val >> 8) & 0xff;
 271:..\..\..\..\wpa_supplicant\src/utils/common.h **** 	a[2] = val & 0xff;
 272:..\..\..\..\wpa_supplicant\src/utils/common.h **** }
 273:..\..\..\..\wpa_supplicant\src/utils/common.h **** 
 274:..\..\..\..\wpa_supplicant\src/utils/common.h **** static inline u32 WPA_GET_BE32(const u8 *a)
 275:..\..\..\..\wpa_supplicant\src/utils/common.h **** {
 276:..\..\..\..\wpa_supplicant\src/utils/common.h **** 	return ((u32) a[0] << 24) | (a[1] << 16) | (a[2] << 8) | a[3];
 277:..\..\..\..\wpa_supplicant\src/utils/common.h **** }
 278:..\..\..\..\wpa_supplicant\src/utils/common.h **** 
 279:..\..\..\..\wpa_supplicant\src/utils/common.h **** static inline void WPA_PUT_BE32(u8 *a, u32 val)
 280:..\..\..\..\wpa_supplicant\src/utils/common.h **** {
 281:..\..\..\..\wpa_supplicant\src/utils/common.h **** 	a[0] = (val >> 24) & 0xff;
 282:..\..\..\..\wpa_supplicant\src/utils/common.h **** 	a[1] = (val >> 16) & 0xff;
 758              		.loc 2 282 7
 759 0026 930700F9 		li	a5,-112
 760 002a A381F500 		sb	a5,3(a1)
 283:..\..\..\..\wpa_supplicant\src/utils/common.h **** 	a[2] = (val >> 8) & 0xff;
 761              		.loc 2 283 7
 762 002e 9307C004 		li	a5,76
 763 0032 2382F500 		sb	a5,4(a1)
 284:..\..\..\..\wpa_supplicant\src/utils/common.h **** 	a[3] = val & 0xff;
 764              		.loc 2 284 7
 765 0036 9147     		li	a5,4
 766 0038 A382F500 		sb	a5,5(a1)
 767              	.LBE20:
 768              	.LBE19:
 270:C:/Users/stapi/OneDrive/Desktop/GD32VW553/V1_MQTT_OK/GD32VW55X_Wifi_BLE_SDK/GD32VW55x_RELEASE_V1.0.2/MSDK/wpa_supplicant/src/ap\ieee802_11_vht.c **** 		  2 + sizeof(struct ieee80211_vht_capabilities) +
 271:C:/Users/stapi/OneDrive/Desktop/GD32VW553/V1_MQTT_OK/GD32VW55X_Wifi_BLE_SDK/GD32VW55x_RELEASE_V1.0.2/MSDK/wpa_supplicant/src/ap\ieee802_11_vht.c **** 		  2 + sizeof(struct ieee80211_vht_operation));
 272:C:/Users/stapi/OneDrive/Desktop/GD32VW553/V1_MQTT_OK/GD32VW55X_Wifi_BLE_SDK/GD32VW55x_RELEASE_V1.0.2/MSDK/wpa_supplicant/src/ap\ieee802_11_vht.c **** 
 273:C:/Users/stapi/OneDrive/Desktop/GD32VW553/V1_MQTT_OK/GD32VW55X_Wifi_BLE_SDK/GD32VW55x_RELEASE_V1.0.2/MSDK/wpa_supplicant/src/ap\ieee802_11_vht.c **** 	WPA_PUT_BE32(pos, (OUI_BROADCOM << 8) | VENDOR_VHT_TYPE);
 274:C:/Users/stapi/OneDrive/Desktop/GD32VW553/V1_MQTT_OK/GD32VW55X_Wifi_BLE_SDK/GD32VW55x_RELEASE_V1.0.2/MSDK/wpa_supplicant/src/ap\ieee802_11_vht.c **** 	pos += 4;
 275:C:/Users/stapi/OneDrive/Desktop/GD32VW553/V1_MQTT_OK/GD32VW55X_Wifi_BLE_SDK/GD32VW55x_RELEASE_V1.0.2/MSDK/wpa_supplicant/src/ap\ieee802_11_vht.c **** 	*pos++ = VENDOR_VHT_SUBTYPE;
 769              		.loc 1 275 9
 770 003c A147     		li	a5,8
 771 003e 2383F500 		sb	a5,6(a1)
 772              	.LBB23:
 773              	.LBB21:
 281:..\..\..\..\wpa_supplicant\src/utils/common.h **** 	a[1] = (val >> 16) & 0xff;
 774              		.loc 2 281 7
 775 0042 23810500 		sb	zero,2(a1)
 776              	.LBE21:
 777              	.LBE23:
 276:C:/Users/stapi/OneDrive/Desktop/GD32VW553/V1_MQTT_OK/GD32VW55X_Wifi_BLE_SDK/GD32VW55x_RELEASE_V1.0.2/MSDK/wpa_supplicant/src/ap\ieee802_11_vht.c **** 	pos = hostapd_eid_vht_capabilities(hapd, pos, 0);
 778              		.loc 1 276 8
 779 0046 0146     		li	a2,0
 780 0048 9D05     		addi	a1,a1,7
 781              	.LVL65:
 782 004a 2A84     		mv	s0,a0
 268:C:/Users/stapi/OneDrive/Desktop/GD32VW553/V1_MQTT_OK/GD32VW55X_Wifi_BLE_SDK/GD32VW55x_RELEASE_V1.0.2/MSDK/wpa_supplicant/src/ap\ieee802_11_vht.c **** 	*pos++ = (5 +		/* The Vendor OUI, type and subtype */
 783              		.loc 1 268 2 is_stmt 1
 784              	.LVL66:
 269:C:/Users/stapi/OneDrive/Desktop/GD32VW553/V1_MQTT_OK/GD32VW55X_Wifi_BLE_SDK/GD32VW55x_RELEASE_V1.0.2/MSDK/wpa_supplicant/src/ap\ieee802_11_vht.c **** 		  2 + sizeof(struct ieee80211_vht_capabilities) +
 785              		.loc 1 269 2
 273:C:/Users/stapi/OneDrive/Desktop/GD32VW553/V1_MQTT_OK/GD32VW55X_Wifi_BLE_SDK/GD32VW55x_RELEASE_V1.0.2/MSDK/wpa_supplicant/src/ap\ieee802_11_vht.c **** 	pos += 4;
 786              		.loc 1 273 2
 787              	.LBB24:
 788              	.LBB22:
 281:..\..\..\..\wpa_supplicant\src/utils/common.h **** 	a[1] = (val >> 16) & 0xff;
 789              		.loc 2 281 2
 282:..\..\..\..\wpa_supplicant\src/utils/common.h **** 	a[2] = (val >> 8) & 0xff;
 790              		.loc 2 282 2
 283:..\..\..\..\wpa_supplicant\src/utils/common.h **** 	a[3] = val & 0xff;
 791              		.loc 2 283 2
 792              		.loc 2 284 2
 793              	.LBE22:
 794              	.LBE24:
 274:C:/Users/stapi/OneDrive/Desktop/GD32VW553/V1_MQTT_OK/GD32VW55X_Wifi_BLE_SDK/GD32VW55x_RELEASE_V1.0.2/MSDK/wpa_supplicant/src/ap\ieee802_11_vht.c **** 	*pos++ = VENDOR_VHT_SUBTYPE;
 795              		.loc 1 274 2
 275:C:/Users/stapi/OneDrive/Desktop/GD32VW553/V1_MQTT_OK/GD32VW55X_Wifi_BLE_SDK/GD32VW55x_RELEASE_V1.0.2/MSDK/wpa_supplicant/src/ap\ieee802_11_vht.c **** 	pos = hostapd_eid_vht_capabilities(hapd, pos, 0);
 796              		.loc 1 275 2
 797              		.loc 1 276 2
 798              		.loc 1 276 8 is_stmt 0
 799 004c 97000000 		call	hostapd_eid_vht_capabilities
 799      E7800000 
 800              	.LVL67:
 801 0054 AA85     		mv	a1,a0
 802              	.LVL68:
 277:C:/Users/stapi/OneDrive/Desktop/GD32VW553/V1_MQTT_OK/GD32VW55X_Wifi_BLE_SDK/GD32VW55x_RELEASE_V1.0.2/MSDK/wpa_supplicant/src/ap\ieee802_11_vht.c **** 	pos = hostapd_eid_vht_operation(hapd, pos);
 803              		.loc 1 277 2 is_stmt 1
 804              		.loc 1 277 8 is_stmt 0
 805 0056 2285     		mv	a0,s0
 806              	.LVL69:
 807 0058 97000000 		call	hostapd_eid_vht_operation
 807      E7800000 
 808              	.LVL70:
 278:C:/Users/stapi/OneDrive/Desktop/GD32VW553/V1_MQTT_OK/GD32VW55X_Wifi_BLE_SDK/GD32VW55x_RELEASE_V1.0.2/MSDK/wpa_supplicant/src/ap\ieee802_11_vht.c **** 
 279:C:/Users/stapi/OneDrive/Desktop/GD32VW553/V1_MQTT_OK/GD32VW55X_Wifi_BLE_SDK/GD32VW55x_RELEASE_V1.0.2/MSDK/wpa_supplicant/src/ap\ieee802_11_vht.c **** 	return pos;
 809              		.loc 1 279 2 is_stmt 1
 280:C:/Users/stapi/OneDrive/Desktop/GD32VW553/V1_MQTT_OK/GD32VW55X_Wifi_BLE_SDK/GD32VW55x_RELEASE_V1.0.2/MSDK/wpa_supplicant/src/ap\ieee802_11_vht.c **** }
 810              		.loc 1 280 1 is_stmt 0
 811 0060 17030000 		tail	__riscv_restore_1
 811      67000300 
 812              		.cfi_restore 8
 813              		.cfi_restore 1
 814              		.cfi_def_cfa_offset 0
 815              	.LVL71:
 816              	.L71:
 817 0068 2E85     		mv	a0,a1
 818              	.LVL72:
 819 006a 8280     		ret
 820              		.cfi_endproc
 821              	.LFE145:
 823              		.section	.text.set_sta_vht_opmode,"ax",@progbits
 824              		.align	1
 825              		.globl	set_sta_vht_opmode
 827              	set_sta_vht_opmode:
 828              	.LFB146:
 281:C:/Users/stapi/OneDrive/Desktop/GD32VW553/V1_MQTT_OK/GD32VW55X_Wifi_BLE_SDK/GD32VW55x_RELEASE_V1.0.2/MSDK/wpa_supplicant/src/ap\ieee802_11_vht.c **** 
 282:C:/Users/stapi/OneDrive/Desktop/GD32VW553/V1_MQTT_OK/GD32VW55X_Wifi_BLE_SDK/GD32VW55x_RELEASE_V1.0.2/MSDK/wpa_supplicant/src/ap\ieee802_11_vht.c **** 
 283:C:/Users/stapi/OneDrive/Desktop/GD32VW553/V1_MQTT_OK/GD32VW55X_Wifi_BLE_SDK/GD32VW55x_RELEASE_V1.0.2/MSDK/wpa_supplicant/src/ap\ieee802_11_vht.c **** u16 set_sta_vht_opmode(struct hostapd_data *hapd, struct sta_info *sta,
 284:C:/Users/stapi/OneDrive/Desktop/GD32VW553/V1_MQTT_OK/GD32VW55X_Wifi_BLE_SDK/GD32VW55x_RELEASE_V1.0.2/MSDK/wpa_supplicant/src/ap\ieee802_11_vht.c **** 		       const u8 *vht_oper_notif)
 285:C:/Users/stapi/OneDrive/Desktop/GD32VW553/V1_MQTT_OK/GD32VW55X_Wifi_BLE_SDK/GD32VW55x_RELEASE_V1.0.2/MSDK/wpa_supplicant/src/ap\ieee802_11_vht.c **** {
 829              		.loc 1 285 1 is_stmt 1
 830              		.cfi_startproc
 831              	.LVL73:
 286:C:/Users/stapi/OneDrive/Desktop/GD32VW553/V1_MQTT_OK/GD32VW55X_Wifi_BLE_SDK/GD32VW55x_RELEASE_V1.0.2/MSDK/wpa_supplicant/src/ap\ieee802_11_vht.c **** 	if (!vht_oper_notif) {
 832              		.loc 1 286 2
 287:C:/Users/stapi/OneDrive/Desktop/GD32VW553/V1_MQTT_OK/GD32VW55X_Wifi_BLE_SDK/GD32VW55x_RELEASE_V1.0.2/MSDK/wpa_supplicant/src/ap\ieee802_11_vht.c **** 		sta->flags &= ~WLAN_STA_VHT_OPMODE_ENABLED;
 833              		.loc 1 287 14 is_stmt 0
 834 0000 9C51     		lw	a5,32(a1)
 286:C:/Users/stapi/OneDrive/Desktop/GD32VW553/V1_MQTT_OK/GD32VW55X_Wifi_BLE_SDK/GD32VW55x_RELEASE_V1.0.2/MSDK/wpa_supplicant/src/ap\ieee802_11_vht.c **** 	if (!vht_oper_notif) {
 835              		.loc 1 286 5
 836 0002 11E6     		bne	a2,zero,.L75
 837              		.loc 1 287 3 is_stmt 1
 838              		.loc 1 287 14 is_stmt 0
 839 0004 93974749 		bclri	a5,a5,20
 840 0008 9CD1     		sw	a5,32(a1)
 288:C:/Users/stapi/OneDrive/Desktop/GD32VW553/V1_MQTT_OK/GD32VW55X_Wifi_BLE_SDK/GD32VW55x_RELEASE_V1.0.2/MSDK/wpa_supplicant/src/ap\ieee802_11_vht.c **** 		return WLAN_STATUS_SUCCESS;
 841              		.loc 1 288 3 is_stmt 1
 842              	.L76:
 289:C:/Users/stapi/OneDrive/Desktop/GD32VW553/V1_MQTT_OK/GD32VW55X_Wifi_BLE_SDK/GD32VW55x_RELEASE_V1.0.2/MSDK/wpa_supplicant/src/ap\ieee802_11_vht.c **** 	}
 290:C:/Users/stapi/OneDrive/Desktop/GD32VW553/V1_MQTT_OK/GD32VW55X_Wifi_BLE_SDK/GD32VW55x_RELEASE_V1.0.2/MSDK/wpa_supplicant/src/ap\ieee802_11_vht.c **** 
 291:C:/Users/stapi/OneDrive/Desktop/GD32VW553/V1_MQTT_OK/GD32VW55X_Wifi_BLE_SDK/GD32VW55x_RELEASE_V1.0.2/MSDK/wpa_supplicant/src/ap\ieee802_11_vht.c **** 	sta->flags |= WLAN_STA_VHT_OPMODE_ENABLED;
 292:C:/Users/stapi/OneDrive/Desktop/GD32VW553/V1_MQTT_OK/GD32VW55X_Wifi_BLE_SDK/GD32VW55x_RELEASE_V1.0.2/MSDK/wpa_supplicant/src/ap\ieee802_11_vht.c **** 	sta->vht_opmode = *vht_oper_notif;
 293:C:/Users/stapi/OneDrive/Desktop/GD32VW553/V1_MQTT_OK/GD32VW55X_Wifi_BLE_SDK/GD32VW55x_RELEASE_V1.0.2/MSDK/wpa_supplicant/src/ap\ieee802_11_vht.c **** 	return WLAN_STATUS_SUCCESS;
 294:C:/Users/stapi/OneDrive/Desktop/GD32VW553/V1_MQTT_OK/GD32VW55X_Wifi_BLE_SDK/GD32VW55x_RELEASE_V1.0.2/MSDK/wpa_supplicant/src/ap\ieee802_11_vht.c **** }
 843              		.loc 1 294 1 is_stmt 0
 844 000a 0145     		li	a0,0
 845              	.LVL74:
 846 000c 8280     		ret
 847              	.LVL75:
 848              	.L75:
 291:C:/Users/stapi/OneDrive/Desktop/GD32VW553/V1_MQTT_OK/GD32VW55X_Wifi_BLE_SDK/GD32VW55x_RELEASE_V1.0.2/MSDK/wpa_supplicant/src/ap\ieee802_11_vht.c **** 	sta->vht_opmode = *vht_oper_notif;
 849              		.loc 1 291 2 is_stmt 1
 291:C:/Users/stapi/OneDrive/Desktop/GD32VW553/V1_MQTT_OK/GD32VW55X_Wifi_BLE_SDK/GD32VW55x_RELEASE_V1.0.2/MSDK/wpa_supplicant/src/ap\ieee802_11_vht.c **** 	sta->vht_opmode = *vht_oper_notif;
 850              		.loc 1 291 13 is_stmt 0
 851 000e 93974729 		bseti	a5,a5,20
 852 0012 9CD1     		sw	a5,32(a1)
 292:C:/Users/stapi/OneDrive/Desktop/GD32VW553/V1_MQTT_OK/GD32VW55X_Wifi_BLE_SDK/GD32VW55x_RELEASE_V1.0.2/MSDK/wpa_supplicant/src/ap\ieee802_11_vht.c **** 	return WLAN_STATUS_SUCCESS;
 853              		.loc 1 292 2 is_stmt 1
 292:C:/Users/stapi/OneDrive/Desktop/GD32VW553/V1_MQTT_OK/GD32VW55X_Wifi_BLE_SDK/GD32VW55x_RELEASE_V1.0.2/MSDK/wpa_supplicant/src/ap\ieee802_11_vht.c **** 	return WLAN_STATUS_SUCCESS;
 854              		.loc 1 292 20 is_stmt 0
 855 0014 83470600 		lbu	a5,0(a2)
 292:C:/Users/stapi/OneDrive/Desktop/GD32VW553/V1_MQTT_OK/GD32VW55X_Wifi_BLE_SDK/GD32VW55x_RELEASE_V1.0.2/MSDK/wpa_supplicant/src/ap\ieee802_11_vht.c **** 	return WLAN_STATUS_SUCCESS;
 856              		.loc 1 292 18
 857 0018 2384F50C 		sb	a5,200(a1)
 293:C:/Users/stapi/OneDrive/Desktop/GD32VW553/V1_MQTT_OK/GD32VW55X_Wifi_BLE_SDK/GD32VW55x_RELEASE_V1.0.2/MSDK/wpa_supplicant/src/ap\ieee802_11_vht.c **** }
 858              		.loc 1 293 2 is_stmt 1
 293:C:/Users/stapi/OneDrive/Desktop/GD32VW553/V1_MQTT_OK/GD32VW55X_Wifi_BLE_SDK/GD32VW55x_RELEASE_V1.0.2/MSDK/wpa_supplicant/src/ap\ieee802_11_vht.c **** }
 859              		.loc 1 293 9 is_stmt 0
 860 001c FDB7     		j	.L76
 861              		.cfi_endproc
 862              	.LFE146:
 864              		.section	.text.hostapd_get_vht_capab,"ax",@progbits
 865              		.align	1
 866              		.globl	hostapd_get_vht_capab
 868              	hostapd_get_vht_capab:
 869              	.LFB147:
 295:C:/Users/stapi/OneDrive/Desktop/GD32VW553/V1_MQTT_OK/GD32VW55X_Wifi_BLE_SDK/GD32VW55x_RELEASE_V1.0.2/MSDK/wpa_supplicant/src/ap\ieee802_11_vht.c **** 
 296:C:/Users/stapi/OneDrive/Desktop/GD32VW553/V1_MQTT_OK/GD32VW55X_Wifi_BLE_SDK/GD32VW55x_RELEASE_V1.0.2/MSDK/wpa_supplicant/src/ap\ieee802_11_vht.c **** 
 297:C:/Users/stapi/OneDrive/Desktop/GD32VW553/V1_MQTT_OK/GD32VW55X_Wifi_BLE_SDK/GD32VW55x_RELEASE_V1.0.2/MSDK/wpa_supplicant/src/ap\ieee802_11_vht.c **** void hostapd_get_vht_capab(struct hostapd_data *hapd,
 298:C:/Users/stapi/OneDrive/Desktop/GD32VW553/V1_MQTT_OK/GD32VW55X_Wifi_BLE_SDK/GD32VW55x_RELEASE_V1.0.2/MSDK/wpa_supplicant/src/ap\ieee802_11_vht.c **** 			   struct ieee80211_vht_capabilities *vht_cap,
 299:C:/Users/stapi/OneDrive/Desktop/GD32VW553/V1_MQTT_OK/GD32VW55X_Wifi_BLE_SDK/GD32VW55x_RELEASE_V1.0.2/MSDK/wpa_supplicant/src/ap\ieee802_11_vht.c **** 			   struct ieee80211_vht_capabilities *neg_vht_cap)
 300:C:/Users/stapi/OneDrive/Desktop/GD32VW553/V1_MQTT_OK/GD32VW55X_Wifi_BLE_SDK/GD32VW55x_RELEASE_V1.0.2/MSDK/wpa_supplicant/src/ap\ieee802_11_vht.c **** {
 870              		.loc 1 300 1 is_stmt 1
 871              		.cfi_startproc
 872              	.LVL76:
 301:C:/Users/stapi/OneDrive/Desktop/GD32VW553/V1_MQTT_OK/GD32VW55X_Wifi_BLE_SDK/GD32VW55x_RELEASE_V1.0.2/MSDK/wpa_supplicant/src/ap\ieee802_11_vht.c **** 	u32 cap, own_cap, sym_caps;
 873              		.loc 1 301 2
 302:C:/Users/stapi/OneDrive/Desktop/GD32VW553/V1_MQTT_OK/GD32VW55X_Wifi_BLE_SDK/GD32VW55x_RELEASE_V1.0.2/MSDK/wpa_supplicant/src/ap\ieee802_11_vht.c **** 
 303:C:/Users/stapi/OneDrive/Desktop/GD32VW553/V1_MQTT_OK/GD32VW55X_Wifi_BLE_SDK/GD32VW55x_RELEASE_V1.0.2/MSDK/wpa_supplicant/src/ap\ieee802_11_vht.c **** 	if (vht_cap == NULL)
 874              		.loc 1 303 2
 875              		.loc 1 303 5 is_stmt 0
 876 0000 F9C9     		beq	a1,zero,.L97
 300:C:/Users/stapi/OneDrive/Desktop/GD32VW553/V1_MQTT_OK/GD32VW55X_Wifi_BLE_SDK/GD32VW55x_RELEASE_V1.0.2/MSDK/wpa_supplicant/src/ap\ieee802_11_vht.c **** 	u32 cap, own_cap, sym_caps;
 877              		.loc 1 300 1
 878 0002 17030000 		call	t0,__riscv_save_2
 878      E7020300 
 879              		.cfi_offset 9, -12
 880              		.cfi_offset 8, -8
 881              		.cfi_offset 1, -4
 882              		.cfi_def_cfa_offset 16
 883 000a 3284     		mv	s0,a2
 304:C:/Users/stapi/OneDrive/Desktop/GD32VW553/V1_MQTT_OK/GD32VW55X_Wifi_BLE_SDK/GD32VW55x_RELEASE_V1.0.2/MSDK/wpa_supplicant/src/ap\ieee802_11_vht.c **** 		return;
 305:C:/Users/stapi/OneDrive/Desktop/GD32VW553/V1_MQTT_OK/GD32VW55X_Wifi_BLE_SDK/GD32VW55x_RELEASE_V1.0.2/MSDK/wpa_supplicant/src/ap\ieee802_11_vht.c **** 	os_memcpy(neg_vht_cap, vht_cap, sizeof(*neg_vht_cap));
 884              		.loc 1 305 2 is_stmt 1
 885 000c AA84     		mv	s1,a0
 886 000e 3146     		li	a2,12
 887              	.LVL77:
 888 0010 2285     		mv	a0,s0
 889              	.LVL78:
 890 0012 97000000 		call	os_memcpy
 890      E7800000 
 891              	.LVL79:
 306:C:/Users/stapi/OneDrive/Desktop/GD32VW553/V1_MQTT_OK/GD32VW55X_Wifi_BLE_SDK/GD32VW55x_RELEASE_V1.0.2/MSDK/wpa_supplicant/src/ap\ieee802_11_vht.c **** 
 307:C:/Users/stapi/OneDrive/Desktop/GD32VW553/V1_MQTT_OK/GD32VW55X_Wifi_BLE_SDK/GD32VW55x_RELEASE_V1.0.2/MSDK/wpa_supplicant/src/ap\ieee802_11_vht.c **** 	cap = le_to_host32(neg_vht_cap->vht_capabilities_info);
 892              		.loc 1 307 2
 893              		.loc 1 307 6 is_stmt 0
 894 001a 83461400 		lbu	a3,1(s0)
 895 001e 83470400 		lbu	a5,0(s0)
 896 0022 A206     		slli	a3,a3,8
 897 0024 D58F     		or	a5,a3,a5
 898 0026 83462400 		lbu	a3,2(s0)
 899 002a C206     		slli	a3,a3,16
 900 002c DD8E     		or	a3,a3,a5
 901 002e 83473400 		lbu	a5,3(s0)
 902 0032 E207     		slli	a5,a5,24
 903 0034 DD8E     		or	a3,a5,a3
 904              	.LVL80:
 308:C:/Users/stapi/OneDrive/Desktop/GD32VW553/V1_MQTT_OK/GD32VW55X_Wifi_BLE_SDK/GD32VW55x_RELEASE_V1.0.2/MSDK/wpa_supplicant/src/ap\ieee802_11_vht.c **** 	own_cap = hapd->iconf->vht_capab;
 905              		.loc 1 308 2 is_stmt 1
 906              		.loc 1 308 10 is_stmt 0
 907 0036 DC40     		lw	a5,4(s1)
 908 0038 03A74713 		lw	a4,308(a5)
 909              	.LVL81:
 309:C:/Users/stapi/OneDrive/Desktop/GD32VW553/V1_MQTT_OK/GD32VW55X_Wifi_BLE_SDK/GD32VW55x_RELEASE_V1.0.2/MSDK/wpa_supplicant/src/ap\ieee802_11_vht.c **** 
 310:C:/Users/stapi/OneDrive/Desktop/GD32VW553/V1_MQTT_OK/GD32VW55X_Wifi_BLE_SDK/GD32VW55x_RELEASE_V1.0.2/MSDK/wpa_supplicant/src/ap\ieee802_11_vht.c **** 	/* mask out symmetric VHT capabilities we don't support */
 311:C:/Users/stapi/OneDrive/Desktop/GD32VW553/V1_MQTT_OK/GD32VW55X_Wifi_BLE_SDK/GD32VW55x_RELEASE_V1.0.2/MSDK/wpa_supplicant/src/ap\ieee802_11_vht.c **** 	sym_caps = VHT_CAP_SHORT_GI_80 | VHT_CAP_SHORT_GI_160;
 910              		.loc 1 311 2 is_stmt 1
 312:C:/Users/stapi/OneDrive/Desktop/GD32VW553/V1_MQTT_OK/GD32VW55X_Wifi_BLE_SDK/GD32VW55x_RELEASE_V1.0.2/MSDK/wpa_supplicant/src/ap\ieee802_11_vht.c **** 	cap &= ~sym_caps | (own_cap & sym_caps);
 911              		.loc 1 312 2
 912              		.loc 1 312 19 is_stmt 0
 913 003c 9367F7F9 		ori	a5,a4,-97
 914              		.loc 1 312 6
 915 0040 F58F     		and	a5,a5,a3
 916              	.LVL82:
 313:C:/Users/stapi/OneDrive/Desktop/GD32VW553/V1_MQTT_OK/GD32VW55X_Wifi_BLE_SDK/GD32VW55x_RELEASE_V1.0.2/MSDK/wpa_supplicant/src/ap\ieee802_11_vht.c **** 
 314:C:/Users/stapi/OneDrive/Desktop/GD32VW553/V1_MQTT_OK/GD32VW55X_Wifi_BLE_SDK/GD32VW55x_RELEASE_V1.0.2/MSDK/wpa_supplicant/src/ap\ieee802_11_vht.c **** 	/* mask out beamformer/beamformee caps if not supported */
 315:C:/Users/stapi/OneDrive/Desktop/GD32VW553/V1_MQTT_OK/GD32VW55X_Wifi_BLE_SDK/GD32VW55x_RELEASE_V1.0.2/MSDK/wpa_supplicant/src/ap\ieee802_11_vht.c **** 	if (!(own_cap & VHT_CAP_SU_BEAMFORMER_CAPABLE))
 917              		.loc 1 315 2 is_stmt 1
 918              		.loc 1 315 16 is_stmt 0
 919 0042 9356B748 		bexti	a3,a4,11
 920              		.loc 1 315 5
 921 0046 81E6     		bne	a3,zero,.L79
 316:C:/Users/stapi/OneDrive/Desktop/GD32VW553/V1_MQTT_OK/GD32VW55X_Wifi_BLE_SDK/GD32VW55x_RELEASE_V1.0.2/MSDK/wpa_supplicant/src/ap\ieee802_11_vht.c **** 		cap &= ~(VHT_CAP_SU_BEAMFORMEE_CAPABLE |
 922              		.loc 1 316 3 is_stmt 1
 923              		.loc 1 316 7 is_stmt 0
 924 0048 C576     		li	a3,-61440
 925 004a FD16     		addi	a3,a3,-1
 926 004c F58F     		and	a5,a5,a3
 927              	.LVL83:
 928              	.L79:
 317:C:/Users/stapi/OneDrive/Desktop/GD32VW553/V1_MQTT_OK/GD32VW55X_Wifi_BLE_SDK/GD32VW55x_RELEASE_V1.0.2/MSDK/wpa_supplicant/src/ap\ieee802_11_vht.c **** 			 VHT_CAP_BEAMFORMEE_STS_MAX);
 318:C:/Users/stapi/OneDrive/Desktop/GD32VW553/V1_MQTT_OK/GD32VW55X_Wifi_BLE_SDK/GD32VW55x_RELEASE_V1.0.2/MSDK/wpa_supplicant/src/ap\ieee802_11_vht.c **** 
 319:C:/Users/stapi/OneDrive/Desktop/GD32VW553/V1_MQTT_OK/GD32VW55X_Wifi_BLE_SDK/GD32VW55x_RELEASE_V1.0.2/MSDK/wpa_supplicant/src/ap\ieee802_11_vht.c **** 	if (!(own_cap & VHT_CAP_SU_BEAMFORMEE_CAPABLE))
 929              		.loc 1 319 2 is_stmt 1
 930              		.loc 1 319 16 is_stmt 0
 931 004e 8566     		li	a3,4096
 932 0050 F98E     		and	a3,a4,a3
 933              		.loc 1 319 5
 934 0052 91E6     		bne	a3,zero,.L80
 320:C:/Users/stapi/OneDrive/Desktop/GD32VW553/V1_MQTT_OK/GD32VW55X_Wifi_BLE_SDK/GD32VW55x_RELEASE_V1.0.2/MSDK/wpa_supplicant/src/ap\ieee802_11_vht.c **** 		cap &= ~(VHT_CAP_SU_BEAMFORMER_CAPABLE |
 935              		.loc 1 320 3 is_stmt 1
 936              		.loc 1 320 7 is_stmt 0
 937 0054 B7F6F8FF 		li	a3,-462848
 938 0058 9386F67F 		addi	a3,a3,2047
 939 005c F58F     		and	a5,a5,a3
 940              	.LVL84:
 941              	.L80:
 321:C:/Users/stapi/OneDrive/Desktop/GD32VW553/V1_MQTT_OK/GD32VW55X_Wifi_BLE_SDK/GD32VW55x_RELEASE_V1.0.2/MSDK/wpa_supplicant/src/ap\ieee802_11_vht.c **** 			 VHT_CAP_SOUNDING_DIMENSION_MAX);
 322:C:/Users/stapi/OneDrive/Desktop/GD32VW553/V1_MQTT_OK/GD32VW55X_Wifi_BLE_SDK/GD32VW55x_RELEASE_V1.0.2/MSDK/wpa_supplicant/src/ap\ieee802_11_vht.c **** 
 323:C:/Users/stapi/OneDrive/Desktop/GD32VW553/V1_MQTT_OK/GD32VW55X_Wifi_BLE_SDK/GD32VW55x_RELEASE_V1.0.2/MSDK/wpa_supplicant/src/ap\ieee802_11_vht.c **** 	if (!(own_cap & VHT_CAP_MU_BEAMFORMER_CAPABLE))
 942              		.loc 1 323 2 is_stmt 1
 943              		.loc 1 323 16 is_stmt 0
 944 005e B7060800 		li	a3,524288
 945 0062 F98E     		and	a3,a4,a3
 946              		.loc 1 323 5
 947 0064 99E2     		bne	a3,zero,.L81
 324:C:/Users/stapi/OneDrive/Desktop/GD32VW553/V1_MQTT_OK/GD32VW55X_Wifi_BLE_SDK/GD32VW55x_RELEASE_V1.0.2/MSDK/wpa_supplicant/src/ap\ieee802_11_vht.c **** 		cap &= ~VHT_CAP_MU_BEAMFORMEE_CAPABLE;
 948              		.loc 1 324 3 is_stmt 1
 949              		.loc 1 324 7 is_stmt 0
 950 0066 93974749 		bclri	a5,a5,20
 951              	.LVL85:
 952              	.L81:
 325:C:/Users/stapi/OneDrive/Desktop/GD32VW553/V1_MQTT_OK/GD32VW55X_Wifi_BLE_SDK/GD32VW55x_RELEASE_V1.0.2/MSDK/wpa_supplicant/src/ap\ieee802_11_vht.c **** 
 326:C:/Users/stapi/OneDrive/Desktop/GD32VW553/V1_MQTT_OK/GD32VW55X_Wifi_BLE_SDK/GD32VW55x_RELEASE_V1.0.2/MSDK/wpa_supplicant/src/ap\ieee802_11_vht.c **** 	if (!(own_cap & VHT_CAP_MU_BEAMFORMEE_CAPABLE))
 953              		.loc 1 326 2 is_stmt 1
 954              		.loc 1 326 16 is_stmt 0
 955 006a B7061000 		li	a3,1048576
 956 006e F98E     		and	a3,a4,a3
 957              		.loc 1 326 5
 958 0070 99E2     		bne	a3,zero,.L82
 327:C:/Users/stapi/OneDrive/Desktop/GD32VW553/V1_MQTT_OK/GD32VW55X_Wifi_BLE_SDK/GD32VW55x_RELEASE_V1.0.2/MSDK/wpa_supplicant/src/ap\ieee802_11_vht.c **** 		cap &= ~VHT_CAP_MU_BEAMFORMER_CAPABLE;
 959              		.loc 1 327 3 is_stmt 1
 960              		.loc 1 327 7 is_stmt 0
 961 0072 93973749 		bclri	a5,a5,19
 962              	.LVL86:
 963              	.L82:
 328:C:/Users/stapi/OneDrive/Desktop/GD32VW553/V1_MQTT_OK/GD32VW55X_Wifi_BLE_SDK/GD32VW55x_RELEASE_V1.0.2/MSDK/wpa_supplicant/src/ap\ieee802_11_vht.c **** 
 329:C:/Users/stapi/OneDrive/Desktop/GD32VW553/V1_MQTT_OK/GD32VW55X_Wifi_BLE_SDK/GD32VW55x_RELEASE_V1.0.2/MSDK/wpa_supplicant/src/ap\ieee802_11_vht.c **** 	/* mask channel widths we don't support */
 330:C:/Users/stapi/OneDrive/Desktop/GD32VW553/V1_MQTT_OK/GD32VW55X_Wifi_BLE_SDK/GD32VW55x_RELEASE_V1.0.2/MSDK/wpa_supplicant/src/ap\ieee802_11_vht.c **** 	switch (own_cap & VHT_CAP_SUPP_CHAN_WIDTH_MASK) {
 964              		.loc 1 330 2 is_stmt 1
 965              		.loc 1 330 18 is_stmt 0
 966 0076 9376C700 		andi	a3,a4,12
 967              		.loc 1 330 2
 968 007a 1146     		li	a2,4
 969 007c 6387C600 		beq	a3,a2,.L83
 970 0080 2146     		li	a2,8
 971 0082 638AC600 		beq	a3,a2,.L84
 331:C:/Users/stapi/OneDrive/Desktop/GD32VW553/V1_MQTT_OK/GD32VW55X_Wifi_BLE_SDK/GD32VW55x_RELEASE_V1.0.2/MSDK/wpa_supplicant/src/ap\ieee802_11_vht.c **** 	case VHT_CAP_SUPP_CHAN_WIDTH_160_80PLUS80MHZ:
 332:C:/Users/stapi/OneDrive/Desktop/GD32VW553/V1_MQTT_OK/GD32VW55X_Wifi_BLE_SDK/GD32VW55x_RELEASE_V1.0.2/MSDK/wpa_supplicant/src/ap\ieee802_11_vht.c **** 		break;
 333:C:/Users/stapi/OneDrive/Desktop/GD32VW553/V1_MQTT_OK/GD32VW55X_Wifi_BLE_SDK/GD32VW55x_RELEASE_V1.0.2/MSDK/wpa_supplicant/src/ap\ieee802_11_vht.c **** 	case VHT_CAP_SUPP_CHAN_WIDTH_160MHZ:
 334:C:/Users/stapi/OneDrive/Desktop/GD32VW553/V1_MQTT_OK/GD32VW55X_Wifi_BLE_SDK/GD32VW55x_RELEASE_V1.0.2/MSDK/wpa_supplicant/src/ap\ieee802_11_vht.c **** 		if (cap & VHT_CAP_SUPP_CHAN_WIDTH_160_80PLUS80MHZ) {
 335:C:/Users/stapi/OneDrive/Desktop/GD32VW553/V1_MQTT_OK/GD32VW55X_Wifi_BLE_SDK/GD32VW55x_RELEASE_V1.0.2/MSDK/wpa_supplicant/src/ap\ieee802_11_vht.c **** 			cap &= ~VHT_CAP_SUPP_CHAN_WIDTH_160_80PLUS80MHZ;
 336:C:/Users/stapi/OneDrive/Desktop/GD32VW553/V1_MQTT_OK/GD32VW55X_Wifi_BLE_SDK/GD32VW55x_RELEASE_V1.0.2/MSDK/wpa_supplicant/src/ap\ieee802_11_vht.c **** 			cap |= VHT_CAP_SUPP_CHAN_WIDTH_160MHZ;
 337:C:/Users/stapi/OneDrive/Desktop/GD32VW553/V1_MQTT_OK/GD32VW55X_Wifi_BLE_SDK/GD32VW55x_RELEASE_V1.0.2/MSDK/wpa_supplicant/src/ap\ieee802_11_vht.c **** 		}
 338:C:/Users/stapi/OneDrive/Desktop/GD32VW553/V1_MQTT_OK/GD32VW55X_Wifi_BLE_SDK/GD32VW55x_RELEASE_V1.0.2/MSDK/wpa_supplicant/src/ap\ieee802_11_vht.c **** 		break;
 339:C:/Users/stapi/OneDrive/Desktop/GD32VW553/V1_MQTT_OK/GD32VW55X_Wifi_BLE_SDK/GD32VW55x_RELEASE_V1.0.2/MSDK/wpa_supplicant/src/ap\ieee802_11_vht.c **** 	default:
 340:C:/Users/stapi/OneDrive/Desktop/GD32VW553/V1_MQTT_OK/GD32VW55X_Wifi_BLE_SDK/GD32VW55x_RELEASE_V1.0.2/MSDK/wpa_supplicant/src/ap\ieee802_11_vht.c **** 		cap &= ~VHT_CAP_SUPP_CHAN_WIDTH_MASK;
 972              		.loc 1 340 3 is_stmt 1
 973              		.loc 1 340 7 is_stmt 0
 974 0086 CD9B     		andi	a5,a5,-13
 975              	.LVL87:
 341:C:/Users/stapi/OneDrive/Desktop/GD32VW553/V1_MQTT_OK/GD32VW55X_Wifi_BLE_SDK/GD32VW55x_RELEASE_V1.0.2/MSDK/wpa_supplicant/src/ap\ieee802_11_vht.c **** 		break;
 976              		.loc 1 341 3 is_stmt 1
 977 0088 39A0     		j	.L84
 978              	.L83:
 334:C:/Users/stapi/OneDrive/Desktop/GD32VW553/V1_MQTT_OK/GD32VW55X_Wifi_BLE_SDK/GD32VW55x_RELEASE_V1.0.2/MSDK/wpa_supplicant/src/ap\ieee802_11_vht.c **** 			cap &= ~VHT_CAP_SUPP_CHAN_WIDTH_160_80PLUS80MHZ;
 979              		.loc 1 334 3
 334:C:/Users/stapi/OneDrive/Desktop/GD32VW553/V1_MQTT_OK/GD32VW55X_Wifi_BLE_SDK/GD32VW55x_RELEASE_V1.0.2/MSDK/wpa_supplicant/src/ap\ieee802_11_vht.c **** 			cap &= ~VHT_CAP_SUPP_CHAN_WIDTH_160_80PLUS80MHZ;
 980              		.loc 1 334 11 is_stmt 0
 981 008a 93F68700 		andi	a3,a5,8
 334:C:/Users/stapi/OneDrive/Desktop/GD32VW553/V1_MQTT_OK/GD32VW55X_Wifi_BLE_SDK/GD32VW55x_RELEASE_V1.0.2/MSDK/wpa_supplicant/src/ap\ieee802_11_vht.c **** 			cap &= ~VHT_CAP_SUPP_CHAN_WIDTH_160_80PLUS80MHZ;
 982              		.loc 1 334 6
 983 008e 81C6     		beq	a3,zero,.L84
 335:C:/Users/stapi/OneDrive/Desktop/GD32VW553/V1_MQTT_OK/GD32VW55X_Wifi_BLE_SDK/GD32VW55x_RELEASE_V1.0.2/MSDK/wpa_supplicant/src/ap\ieee802_11_vht.c **** 			cap |= VHT_CAP_SUPP_CHAN_WIDTH_160MHZ;
 984              		.loc 1 335 4 is_stmt 1
 335:C:/Users/stapi/OneDrive/Desktop/GD32VW553/V1_MQTT_OK/GD32VW55X_Wifi_BLE_SDK/GD32VW55x_RELEASE_V1.0.2/MSDK/wpa_supplicant/src/ap\ieee802_11_vht.c **** 			cap |= VHT_CAP_SUPP_CHAN_WIDTH_160MHZ;
 985              		.loc 1 335 8 is_stmt 0
 986 0090 DD9B     		andi	a5,a5,-9
 987              	.LVL88:
 336:C:/Users/stapi/OneDrive/Desktop/GD32VW553/V1_MQTT_OK/GD32VW55X_Wifi_BLE_SDK/GD32VW55x_RELEASE_V1.0.2/MSDK/wpa_supplicant/src/ap\ieee802_11_vht.c **** 		}
 988              		.loc 1 336 4 is_stmt 1
 336:C:/Users/stapi/OneDrive/Desktop/GD32VW553/V1_MQTT_OK/GD32VW55X_Wifi_BLE_SDK/GD32VW55x_RELEASE_V1.0.2/MSDK/wpa_supplicant/src/ap\ieee802_11_vht.c **** 		}
 989              		.loc 1 336 8 is_stmt 0
 990 0092 93E74700 		ori	a5,a5,4
 991              	.LVL89:
 992              	.L84:
 342:C:/Users/stapi/OneDrive/Desktop/GD32VW553/V1_MQTT_OK/GD32VW55X_Wifi_BLE_SDK/GD32VW55x_RELEASE_V1.0.2/MSDK/wpa_supplicant/src/ap\ieee802_11_vht.c **** 	}
 343:C:/Users/stapi/OneDrive/Desktop/GD32VW553/V1_MQTT_OK/GD32VW55X_Wifi_BLE_SDK/GD32VW55x_RELEASE_V1.0.2/MSDK/wpa_supplicant/src/ap\ieee802_11_vht.c **** 
 344:C:/Users/stapi/OneDrive/Desktop/GD32VW553/V1_MQTT_OK/GD32VW55X_Wifi_BLE_SDK/GD32VW55x_RELEASE_V1.0.2/MSDK/wpa_supplicant/src/ap\ieee802_11_vht.c **** 	if (!(cap & VHT_CAP_SUPP_CHAN_WIDTH_MASK))
 993              		.loc 1 344 2 is_stmt 1
 994              		.loc 1 344 12 is_stmt 0
 995 0096 93F6C700 		andi	a3,a5,12
 996              		.loc 1 344 5
 997 009a 99E2     		bne	a3,zero,.L86
 345:C:/Users/stapi/OneDrive/Desktop/GD32VW553/V1_MQTT_OK/GD32VW55X_Wifi_BLE_SDK/GD32VW55x_RELEASE_V1.0.2/MSDK/wpa_supplicant/src/ap\ieee802_11_vht.c **** 		cap &= ~VHT_CAP_SHORT_GI_160;
 998              		.loc 1 345 3 is_stmt 1
 999              		.loc 1 345 7 is_stmt 0
 1000 009c 93F7F7FB 		andi	a5,a5,-65
 1001              	.LVL90:
 1002              	.L86:
 346:C:/Users/stapi/OneDrive/Desktop/GD32VW553/V1_MQTT_OK/GD32VW55X_Wifi_BLE_SDK/GD32VW55x_RELEASE_V1.0.2/MSDK/wpa_supplicant/src/ap\ieee802_11_vht.c **** 
 347:C:/Users/stapi/OneDrive/Desktop/GD32VW553/V1_MQTT_OK/GD32VW55X_Wifi_BLE_SDK/GD32VW55x_RELEASE_V1.0.2/MSDK/wpa_supplicant/src/ap\ieee802_11_vht.c **** 	/*
 348:C:/Users/stapi/OneDrive/Desktop/GD32VW553/V1_MQTT_OK/GD32VW55X_Wifi_BLE_SDK/GD32VW55x_RELEASE_V1.0.2/MSDK/wpa_supplicant/src/ap\ieee802_11_vht.c **** 	 * if we don't support RX STBC, mask out TX STBC in the STA's HT caps
 349:C:/Users/stapi/OneDrive/Desktop/GD32VW553/V1_MQTT_OK/GD32VW55X_Wifi_BLE_SDK/GD32VW55x_RELEASE_V1.0.2/MSDK/wpa_supplicant/src/ap\ieee802_11_vht.c **** 	 * if we don't support TX STBC, mask out RX STBC in the STA's HT caps
 350:C:/Users/stapi/OneDrive/Desktop/GD32VW553/V1_MQTT_OK/GD32VW55X_Wifi_BLE_SDK/GD32VW55x_RELEASE_V1.0.2/MSDK/wpa_supplicant/src/ap\ieee802_11_vht.c **** 	 */
 351:C:/Users/stapi/OneDrive/Desktop/GD32VW553/V1_MQTT_OK/GD32VW55X_Wifi_BLE_SDK/GD32VW55x_RELEASE_V1.0.2/MSDK/wpa_supplicant/src/ap\ieee802_11_vht.c **** 	if (!(own_cap & VHT_CAP_RXSTBC_MASK))
 1003              		.loc 1 351 2 is_stmt 1
 1004              		.loc 1 351 16 is_stmt 0
 1005 00a0 93760770 		andi	a3,a4,1792
 1006              		.loc 1 351 5
 1007 00a4 99E2     		bne	a3,zero,.L87
 352:C:/Users/stapi/OneDrive/Desktop/GD32VW553/V1_MQTT_OK/GD32VW55X_Wifi_BLE_SDK/GD32VW55x_RELEASE_V1.0.2/MSDK/wpa_supplicant/src/ap\ieee802_11_vht.c **** 		cap &= ~VHT_CAP_TXSTBC;
 1008              		.loc 1 352 3 is_stmt 1
 1009              		.loc 1 352 7 is_stmt 0
 1010 00a6 93F7F7F7 		andi	a5,a5,-129
 1011              	.LVL91:
 1012              	.L87:
 353:C:/Users/stapi/OneDrive/Desktop/GD32VW553/V1_MQTT_OK/GD32VW55X_Wifi_BLE_SDK/GD32VW55x_RELEASE_V1.0.2/MSDK/wpa_supplicant/src/ap\ieee802_11_vht.c **** 	if (!(own_cap & VHT_CAP_TXSTBC))
 1013              		.loc 1 353 2 is_stmt 1
 1014              		.loc 1 353 16 is_stmt 0
 1015 00aa 13770708 		andi	a4,a4,128
 1016              	.LVL92:
 1017              		.loc 1 353 5
 1018 00ae 19E3     		bne	a4,zero,.L88
 354:C:/Users/stapi/OneDrive/Desktop/GD32VW553/V1_MQTT_OK/GD32VW55X_Wifi_BLE_SDK/GD32VW55x_RELEASE_V1.0.2/MSDK/wpa_supplicant/src/ap\ieee802_11_vht.c **** 		cap &= ~VHT_CAP_RXSTBC_MASK;
 1019              		.loc 1 354 3 is_stmt 1
 1020              		.loc 1 354 7 is_stmt 0
 1021 00b0 93F7F78F 		andi	a5,a5,-1793
 1022              	.LVL93:
 1023              	.L88:
 355:C:/Users/stapi/OneDrive/Desktop/GD32VW553/V1_MQTT_OK/GD32VW55X_Wifi_BLE_SDK/GD32VW55x_RELEASE_V1.0.2/MSDK/wpa_supplicant/src/ap\ieee802_11_vht.c **** 
 356:C:/Users/stapi/OneDrive/Desktop/GD32VW553/V1_MQTT_OK/GD32VW55X_Wifi_BLE_SDK/GD32VW55x_RELEASE_V1.0.2/MSDK/wpa_supplicant/src/ap\ieee802_11_vht.c **** 	neg_vht_cap->vht_capabilities_info = host_to_le32(cap);
 1024              		.loc 1 356 2 is_stmt 1
 1025              		.loc 1 356 37 is_stmt 0
 1026 00b4 13D78700 		srli	a4,a5,8
 1027 00b8 2300F400 		sb	a5,0(s0)
 1028 00bc A300E400 		sb	a4,1(s0)
 1029 00c0 13D70701 		srli	a4,a5,16
 1030 00c4 E183     		srli	a5,a5,24
 1031              	.LVL94:
 1032 00c6 2301E400 		sb	a4,2(s0)
 1033 00ca A301F400 		sb	a5,3(s0)
 357:C:/Users/stapi/OneDrive/Desktop/GD32VW553/V1_MQTT_OK/GD32VW55X_Wifi_BLE_SDK/GD32VW55x_RELEASE_V1.0.2/MSDK/wpa_supplicant/src/ap\ieee802_11_vht.c **** }
 1034              		.loc 1 357 1
 1035 00ce 17030000 		tail	__riscv_restore_2
 1035      67000300 
 1036              		.cfi_restore 9
 1037              		.cfi_restore 8
 1038              		.cfi_restore 1
 1039              		.cfi_def_cfa_offset 0
 1040              	.LVL95:
 1041              	.L97:
 1042 00d6 8280     		ret
 1043              		.cfi_endproc
 1044              	.LFE147:
 1046              		.text
 1047              	.Letext0:
 1048              		.file 3 "c:\\users\\stapi\\onedrive\\desktop\\gd32vw553\\embeddedbuilder_v1.4.7.26843\\tools\\nucl
 1049              		.file 4 "c:\\users\\stapi\\onedrive\\desktop\\gd32vw553\\embeddedbuilder_v1.4.7.26843\\tools\\nucl
 1050              		.file 5 "c:\\users\\stapi\\onedrive\\desktop\\gd32vw553\\embeddedbuilder_v1.4.7.26843\\tools\\nucl
 1051              		.file 6 "..\\..\\..\\..\\lwip\\lwip-2.1.2\\src\\include/lwip/arch.h"
 1052              		.file 7 "..\\..\\..\\..\\lwip\\lwip-2.1.2\\src\\include/lwip/inet.h"
 1053              		.file 8 "..\\..\\..\\..\\wpa_supplicant\\src/utils/os.h"
 1054              		.file 9 "..\\..\\..\\..\\wpa_supplicant\\src/utils/wpabuf.h"
 1055              		.file 10 "..\\..\\..\\..\\wpa_supplicant\\src/common/ieee802_11_defs.h"
 1056              		.file 11 "..\\..\\..\\..\\wpa_supplicant\\src/utils/wpa_debug.h"
 1057              		.file 12 "..\\..\\..\\..\\wpa_supplicant\\src/common/defs.h"
 1058              		.file 13 "..\\..\\..\\..\\wpa_supplicant\\src/utils/list.h"
 1059              		.file 14 "..\\..\\..\\..\\wpa_supplicant\\src/utils/ip_addr.h"
 1060              		.file 15 "..\\..\\..\\..\\wpa_supplicant\\src/common/ieee802_11_common.h"
 1061              		.file 16 "..\\..\\..\\..\\wpa_supplicant\\src/wps/wps_defs.h"
 1062              		.file 17 "..\\..\\..\\..\\wpa_supplicant\\src/wps/wps.h"
 1063              		.file 18 "C:/Users/stapi/OneDrive/Desktop/GD32VW553/V1_MQTT_OK/GD32VW55X_Wifi_BLE_SDK/GD32VW55x_RE
 1064              		.file 19 "C:/Users/stapi/OneDrive/Desktop/GD32VW553/V1_MQTT_OK/GD32VW55X_Wifi_BLE_SDK/GD32VW55x_RE
 1065              		.file 20 "..\\..\\..\\..\\wpa_supplicant\\src/common/sae.h"
 1066              		.file 21 "..\\..\\..\\..\\wpa_supplicant\\src/drivers/driver.h"
 1067              		.file 22 "C:/Users/stapi/OneDrive/Desktop/GD32VW553/V1_MQTT_OK/GD32VW55X_Wifi_BLE_SDK/GD32VW55x_RE
 1068              		.file 23 "C:/Users/stapi/OneDrive/Desktop/GD32VW553/V1_MQTT_OK/GD32VW55X_Wifi_BLE_SDK/GD32VW55x_RE
DEFINED SYMBOLS
                            *ABS*:0000000000000000 ieee802_11_vht.c
C:\Users\stapi\AppData\Local\Temp\cc9ZvSHH.s:13     .text.hostapd_eid_vht_capabilities:0000000000000000 hostapd_eid_vht_capabilities
C:\Users\stapi\AppData\Local\Temp\cc9ZvSHH.s:17     .text.hostapd_eid_vht_capabilities:0000000000000000 .L0 
C:\Users\stapi\AppData\Local\Temp\cc9ZvSHH.s:19     .text.hostapd_eid_vht_capabilities:0000000000000000 .L0 
C:\Users\stapi\AppData\Local\Temp\cc9ZvSHH.s:20     .text.hostapd_eid_vht_capabilities:0000000000000008 .L0 
C:\Users\stapi\AppData\Local\Temp\cc9ZvSHH.s:21     .text.hostapd_eid_vht_capabilities:0000000000000008 .L0 
C:\Users\stapi\AppData\Local\Temp\cc9ZvSHH.s:22     .text.hostapd_eid_vht_capabilities:0000000000000008 .L0 
C:\Users\stapi\AppData\Local\Temp\cc9ZvSHH.s:23     .text.hostapd_eid_vht_capabilities:0000000000000008 .L0 
C:\Users\stapi\AppData\Local\Temp\cc9ZvSHH.s:24     .text.hostapd_eid_vht_capabilities:0000000000000008 .L0 
C:\Users\stapi\AppData\Local\Temp\cc9ZvSHH.s:25     .text.hostapd_eid_vht_capabilities:0000000000000008 .L0 
C:\Users\stapi\AppData\Local\Temp\cc9ZvSHH.s:27     .text.hostapd_eid_vht_capabilities:0000000000000008 .L0 
C:\Users\stapi\AppData\Local\Temp\cc9ZvSHH.s:28     .text.hostapd_eid_vht_capabilities:0000000000000008 .L0 
C:\Users\stapi\AppData\Local\Temp\cc9ZvSHH.s:29     .text.hostapd_eid_vht_capabilities:0000000000000008 .L0 
C:\Users\stapi\AppData\Local\Temp\cc9ZvSHH.s:31     .text.hostapd_eid_vht_capabilities:000000000000000a .L0 
C:\Users\stapi\AppData\Local\Temp\cc9ZvSHH.s:33     .text.hostapd_eid_vht_capabilities:000000000000000c .L0 
C:\Users\stapi\AppData\Local\Temp\cc9ZvSHH.s:36     .text.hostapd_eid_vht_capabilities:0000000000000010 .L0 
C:\Users\stapi\AppData\Local\Temp\cc9ZvSHH.s:37     .text.hostapd_eid_vht_capabilities:0000000000000010 .L0 
C:\Users\stapi\AppData\Local\Temp\cc9ZvSHH.s:38     .text.hostapd_eid_vht_capabilities:0000000000000010 .L0 
C:\Users\stapi\AppData\Local\Temp\cc9ZvSHH.s:40     .text.hostapd_eid_vht_capabilities:0000000000000014 .L0 
C:\Users\stapi\AppData\Local\Temp\cc9ZvSHH.s:48     .text.hostapd_eid_vht_capabilities:0000000000000026 .L0 
C:\Users\stapi\AppData\Local\Temp\cc9ZvSHH.s:50     .text.hostapd_eid_vht_capabilities:0000000000000028 .L0 
C:\Users\stapi\AppData\Local\Temp\cc9ZvSHH.s:51     .text.hostapd_eid_vht_capabilities:0000000000000028 .L0 
C:\Users\stapi\AppData\Local\Temp\cc9ZvSHH.s:55     .text.hostapd_eid_vht_capabilities:0000000000000032 .L0 
C:\Users\stapi\AppData\Local\Temp\cc9ZvSHH.s:57     .text.hostapd_eid_vht_capabilities:0000000000000036 .L0 
C:\Users\stapi\AppData\Local\Temp\cc9ZvSHH.s:60     .text.hostapd_eid_vht_capabilities:000000000000003c .L0 
C:\Users\stapi\AppData\Local\Temp\cc9ZvSHH.s:63     .text.hostapd_eid_vht_capabilities:0000000000000042 .L0 
C:\Users\stapi\AppData\Local\Temp\cc9ZvSHH.s:65     .text.hostapd_eid_vht_capabilities:0000000000000046 .L0 
C:\Users\stapi\AppData\Local\Temp\cc9ZvSHH.s:67     .text.hostapd_eid_vht_capabilities:000000000000004a .L0 
C:\Users\stapi\AppData\Local\Temp\cc9ZvSHH.s:70     .text.hostapd_eid_vht_capabilities:000000000000004c .L0 
C:\Users\stapi\AppData\Local\Temp\cc9ZvSHH.s:72     .text.hostapd_eid_vht_capabilities:0000000000000050 .L0 
C:\Users\stapi\AppData\Local\Temp\cc9ZvSHH.s:74     .text.hostapd_eid_vht_capabilities:0000000000000052 .L0 
C:\Users\stapi\AppData\Local\Temp\cc9ZvSHH.s:78     .text.hostapd_eid_vht_capabilities:0000000000000054 .L0 
C:\Users\stapi\AppData\Local\Temp\cc9ZvSHH.s:79     .text.hostapd_eid_vht_capabilities:0000000000000054 .L0 
C:\Users\stapi\AppData\Local\Temp\cc9ZvSHH.s:84     .text.hostapd_eid_vht_capabilities:0000000000000058 .L0 
C:\Users\stapi\AppData\Local\Temp\cc9ZvSHH.s:85     .text.hostapd_eid_vht_capabilities:0000000000000058 .L0 
C:\Users\stapi\AppData\Local\Temp\cc9ZvSHH.s:89     .text.hostapd_eid_vht_capabilities:0000000000000060 .L0 
C:\Users\stapi\AppData\Local\Temp\cc9ZvSHH.s:90     .text.hostapd_eid_vht_capabilities:0000000000000060 .L0 
C:\Users\stapi\AppData\Local\Temp\cc9ZvSHH.s:94     .text.hostapd_eid_vht_capabilities:0000000000000066 .L0 
C:\Users\stapi\AppData\Local\Temp\cc9ZvSHH.s:95     .text.hostapd_eid_vht_capabilities:0000000000000066 .L0 
C:\Users\stapi\AppData\Local\Temp\cc9ZvSHH.s:102    .text.hostapd_eid_vht_capabilities:0000000000000076 .L0 
C:\Users\stapi\AppData\Local\Temp\cc9ZvSHH.s:103    .text.hostapd_eid_vht_capabilities:0000000000000076 .L0 
C:\Users\stapi\AppData\Local\Temp\cc9ZvSHH.s:107    .text.hostapd_eid_vht_capabilities:0000000000000080 .L0 
C:\Users\stapi\AppData\Local\Temp\cc9ZvSHH.s:108    .text.hostapd_eid_vht_capabilities:0000000000000080 .L0 
C:\Users\stapi\AppData\Local\Temp\cc9ZvSHH.s:110    .text.hostapd_eid_vht_capabilities:0000000000000082 .L0 
C:\Users\stapi\AppData\Local\Temp\cc9ZvSHH.s:119    .text.hostapd_eid_vht_capabilities:000000000000009c .L0 
C:\Users\stapi\AppData\Local\Temp\cc9ZvSHH.s:125    .text.hostapd_eid_vht_capabilities:00000000000000ae .L0 
C:\Users\stapi\AppData\Local\Temp\cc9ZvSHH.s:126    .text.hostapd_eid_vht_capabilities:00000000000000ae .L0 
C:\Users\stapi\AppData\Local\Temp\cc9ZvSHH.s:130    .text.hostapd_eid_vht_capabilities:00000000000000b0 .L0 
C:\Users\stapi\AppData\Local\Temp\cc9ZvSHH.s:131    .text.hostapd_eid_vht_capabilities:00000000000000b0 .L0 
C:\Users\stapi\AppData\Local\Temp\cc9ZvSHH.s:133    .text.hostapd_eid_vht_capabilities:00000000000000ba .L0 
C:\Users\stapi\AppData\Local\Temp\cc9ZvSHH.s:134    .text.hostapd_eid_vht_capabilities:00000000000000ba .L0 
C:\Users\stapi\AppData\Local\Temp\cc9ZvSHH.s:135    .text.hostapd_eid_vht_capabilities:00000000000000ba .L0 
C:\Users\stapi\AppData\Local\Temp\cc9ZvSHH.s:136    .text.hostapd_eid_vht_capabilities:00000000000000ba .L0 
C:\Users\stapi\AppData\Local\Temp\cc9ZvSHH.s:137    .text.hostapd_eid_vht_capabilities:00000000000000ba .L0 
C:\Users\stapi\AppData\Local\Temp\cc9ZvSHH.s:138    .text.hostapd_eid_vht_capabilities:00000000000000ba .L0 
C:\Users\stapi\AppData\Local\Temp\cc9ZvSHH.s:139    .text.hostapd_eid_vht_capabilities:00000000000000ba .L0 
C:\Users\stapi\AppData\Local\Temp\cc9ZvSHH.s:142    .text.hostapd_eid_vht_capabilities:00000000000000ba .L0 
C:\Users\stapi\AppData\Local\Temp\cc9ZvSHH.s:145    .text.hostapd_eid_vht_capabilities:00000000000000ba .L0 
C:\Users\stapi\AppData\Local\Temp\cc9ZvSHH.s:146    .text.hostapd_eid_vht_capabilities:00000000000000ba .L0 
C:\Users\stapi\AppData\Local\Temp\cc9ZvSHH.s:148    .text.hostapd_eid_vht_capabilities:00000000000000bc .L0 
C:\Users\stapi\AppData\Local\Temp\cc9ZvSHH.s:152    .text.hostapd_eid_vht_capabilities:00000000000000c6 .L0 
C:\Users\stapi\AppData\Local\Temp\cc9ZvSHH.s:153    .text.hostapd_eid_vht_capabilities:00000000000000c6 .L0 
C:\Users\stapi\AppData\Local\Temp\cc9ZvSHH.s:158    .text.hostapd_eid_vht_capabilities:00000000000000ca .L0 
C:\Users\stapi\AppData\Local\Temp\cc9ZvSHH.s:166    .text.hostapd_eid_vht_capabilities:00000000000000ce .L0 
C:\Users\stapi\AppData\Local\Temp\cc9ZvSHH.s:167    .text.hostapd_eid_vht_capabilities:00000000000000ce .L0 
C:\Users\stapi\AppData\Local\Temp\cc9ZvSHH.s:168    .text.hostapd_eid_vht_capabilities:00000000000000ce .L0 
C:\Users\stapi\AppData\Local\Temp\cc9ZvSHH.s:169    .text.hostapd_eid_vht_capabilities:00000000000000ce .L0 
C:\Users\stapi\AppData\Local\Temp\cc9ZvSHH.s:170    .text.hostapd_eid_vht_capabilities:00000000000000ce .L0 
C:\Users\stapi\AppData\Local\Temp\cc9ZvSHH.s:171    .text.hostapd_eid_vht_capabilities:00000000000000ce .L0 
C:\Users\stapi\AppData\Local\Temp\cc9ZvSHH.s:176    .text.hostapd_eid_vht_capabilities:00000000000000d4 .L0 
C:\Users\stapi\AppData\Local\Temp\cc9ZvSHH.s:178    .text.hostapd_eid_vht_capabilities:00000000000000d8 .L0 
C:\Users\stapi\AppData\Local\Temp\cc9ZvSHH.s:188    .text.hostapd_eid_vht_capabilities:00000000000000f6 .L0 
C:\Users\stapi\AppData\Local\Temp\cc9ZvSHH.s:195    .text.hostapd_eid_vht_operation:0000000000000000 hostapd_eid_vht_operation
C:\Users\stapi\AppData\Local\Temp\cc9ZvSHH.s:198    .text.hostapd_eid_vht_operation:0000000000000000 .L0 
C:\Users\stapi\AppData\Local\Temp\cc9ZvSHH.s:200    .text.hostapd_eid_vht_operation:0000000000000000 .L0 
C:\Users\stapi\AppData\Local\Temp\cc9ZvSHH.s:201    .text.hostapd_eid_vht_operation:0000000000000008 .L0 
C:\Users\stapi\AppData\Local\Temp\cc9ZvSHH.s:202    .text.hostapd_eid_vht_operation:0000000000000008 .L0 
C:\Users\stapi\AppData\Local\Temp\cc9ZvSHH.s:203    .text.hostapd_eid_vht_operation:0000000000000008 .L0 
C:\Users\stapi\AppData\Local\Temp\cc9ZvSHH.s:204    .text.hostapd_eid_vht_operation:0000000000000008 .L0 
C:\Users\stapi\AppData\Local\Temp\cc9ZvSHH.s:206    .text.hostapd_eid_vht_operation:0000000000000008 .L0 
C:\Users\stapi\AppData\Local\Temp\cc9ZvSHH.s:207    .text.hostapd_eid_vht_operation:0000000000000008 .L0 
C:\Users\stapi\AppData\Local\Temp\cc9ZvSHH.s:208    .text.hostapd_eid_vht_operation:0000000000000008 .L0 
C:\Users\stapi\AppData\Local\Temp\cc9ZvSHH.s:210    .text.hostapd_eid_vht_operation:000000000000000a .L0 
C:\Users\stapi\AppData\Local\Temp\cc9ZvSHH.s:214    .text.hostapd_eid_vht_operation:000000000000000e .L0 
C:\Users\stapi\AppData\Local\Temp\cc9ZvSHH.s:215    .text.hostapd_eid_vht_operation:000000000000000e .L0 
C:\Users\stapi\AppData\Local\Temp\cc9ZvSHH.s:220    .text.hostapd_eid_vht_operation:000000000000001a .L0 
C:\Users\stapi\AppData\Local\Temp\cc9ZvSHH.s:225    .text.hostapd_eid_vht_operation:000000000000001c .L0 
C:\Users\stapi\AppData\Local\Temp\cc9ZvSHH.s:226    .text.hostapd_eid_vht_operation:000000000000001c .L0 
C:\Users\stapi\AppData\Local\Temp\cc9ZvSHH.s:230    .text.hostapd_eid_vht_operation:0000000000000024 .L0 
C:\Users\stapi\AppData\Local\Temp\cc9ZvSHH.s:231    .text.hostapd_eid_vht_operation:0000000000000024 .L0 
C:\Users\stapi\AppData\Local\Temp\cc9ZvSHH.s:235    .text.hostapd_eid_vht_operation:000000000000002a .L0 
C:\Users\stapi\AppData\Local\Temp\cc9ZvSHH.s:236    .text.hostapd_eid_vht_operation:000000000000002a .L0 
C:\Users\stapi\AppData\Local\Temp\cc9ZvSHH.s:243    .text.hostapd_eid_vht_operation:000000000000003a .L0 
C:\Users\stapi\AppData\Local\Temp\cc9ZvSHH.s:244    .text.hostapd_eid_vht_operation:000000000000003a .L0 
C:\Users\stapi\AppData\Local\Temp\cc9ZvSHH.s:246    .text.hostapd_eid_vht_operation:000000000000003c .L0 
C:\Users\stapi\AppData\Local\Temp\cc9ZvSHH.s:248    .text.hostapd_eid_vht_operation:000000000000003e .L0 
C:\Users\stapi\AppData\Local\Temp\cc9ZvSHH.s:250    .text.hostapd_eid_vht_operation:0000000000000042 .L0 
C:\Users\stapi\AppData\Local\Temp\cc9ZvSHH.s:252    .text.hostapd_eid_vht_operation:0000000000000046 .L0 
C:\Users\stapi\AppData\Local\Temp\cc9ZvSHH.s:253    .text.hostapd_eid_vht_operation:0000000000000046 .L0 
C:\Users\stapi\AppData\Local\Temp\cc9ZvSHH.s:256    .text.hostapd_eid_vht_operation:000000000000004e .L0 
C:\Users\stapi\AppData\Local\Temp\cc9ZvSHH.s:257    .text.hostapd_eid_vht_operation:000000000000004e .L0 
C:\Users\stapi\AppData\Local\Temp\cc9ZvSHH.s:259    .text.hostapd_eid_vht_operation:0000000000000052 .L0 
C:\Users\stapi\AppData\Local\Temp\cc9ZvSHH.s:260    .text.hostapd_eid_vht_operation:0000000000000052 .L0 
C:\Users\stapi\AppData\Local\Temp\cc9ZvSHH.s:262    .text.hostapd_eid_vht_operation:0000000000000056 .L0 
C:\Users\stapi\AppData\Local\Temp\cc9ZvSHH.s:263    .text.hostapd_eid_vht_operation:0000000000000056 .L0 
C:\Users\stapi\AppData\Local\Temp\cc9ZvSHH.s:266    .text.hostapd_eid_vht_operation:000000000000005c .L0 
C:\Users\stapi\AppData\Local\Temp\cc9ZvSHH.s:267    .text.hostapd_eid_vht_operation:000000000000005c .L0 
C:\Users\stapi\AppData\Local\Temp\cc9ZvSHH.s:269    .text.hostapd_eid_vht_operation:0000000000000060 .L0 
C:\Users\stapi\AppData\Local\Temp\cc9ZvSHH.s:270    .text.hostapd_eid_vht_operation:0000000000000060 .L0 
C:\Users\stapi\AppData\Local\Temp\cc9ZvSHH.s:273    .text.hostapd_eid_vht_operation:0000000000000068 .L0 
C:\Users\stapi\AppData\Local\Temp\cc9ZvSHH.s:274    .text.hostapd_eid_vht_operation:0000000000000068 .L0 
C:\Users\stapi\AppData\Local\Temp\cc9ZvSHH.s:277    .text.hostapd_eid_vht_operation:000000000000006a .L0 
C:\Users\stapi\AppData\Local\Temp\cc9ZvSHH.s:280    .text.hostapd_eid_vht_operation:000000000000006e .L0 
C:\Users\stapi\AppData\Local\Temp\cc9ZvSHH.s:281    .text.hostapd_eid_vht_operation:000000000000006e .L0 
C:\Users\stapi\AppData\Local\Temp\cc9ZvSHH.s:286    .text.hostapd_eid_vht_operation:000000000000007a .L0 
C:\Users\stapi\AppData\Local\Temp\cc9ZvSHH.s:287    .text.hostapd_eid_vht_operation:000000000000007a .L0 
C:\Users\stapi\AppData\Local\Temp\cc9ZvSHH.s:293    .text.hostapd_eid_vht_operation:000000000000007c .L0 
C:\Users\stapi\AppData\Local\Temp\cc9ZvSHH.s:294    .text.hostapd_eid_vht_operation:000000000000007c .L0 
C:\Users\stapi\AppData\Local\Temp\cc9ZvSHH.s:296    .text.hostapd_eid_vht_operation:0000000000000086 .L0 
C:\Users\stapi\AppData\Local\Temp\cc9ZvSHH.s:297    .text.hostapd_eid_vht_operation:0000000000000086 .L0 
C:\Users\stapi\AppData\Local\Temp\cc9ZvSHH.s:298    .text.hostapd_eid_vht_operation:0000000000000086 .L0 
C:\Users\stapi\AppData\Local\Temp\cc9ZvSHH.s:299    .text.hostapd_eid_vht_operation:0000000000000086 .L0 
C:\Users\stapi\AppData\Local\Temp\cc9ZvSHH.s:300    .text.hostapd_eid_vht_operation:0000000000000086 .L0 
C:\Users\stapi\AppData\Local\Temp\cc9ZvSHH.s:303    .text.hostapd_eid_vht_operation:0000000000000086 .L0 
C:\Users\stapi\AppData\Local\Temp\cc9ZvSHH.s:307    .text.hostapd_eid_vht_operation:0000000000000086 .L0 
C:\Users\stapi\AppData\Local\Temp\cc9ZvSHH.s:308    .text.hostapd_eid_vht_operation:0000000000000086 .L0 
C:\Users\stapi\AppData\Local\Temp\cc9ZvSHH.s:312    .text.hostapd_eid_vht_operation:000000000000008a .L0 
C:\Users\stapi\AppData\Local\Temp\cc9ZvSHH.s:313    .text.hostapd_eid_vht_operation:000000000000008a .L0 
C:\Users\stapi\AppData\Local\Temp\cc9ZvSHH.s:316    .text.hostapd_eid_vht_operation:0000000000000090 .L0 
C:\Users\stapi\AppData\Local\Temp\cc9ZvSHH.s:320    .text.hostapd_eid_vht_operation:0000000000000096 .L0 
C:\Users\stapi\AppData\Local\Temp\cc9ZvSHH.s:321    .text.hostapd_eid_vht_operation:0000000000000096 .L0 
C:\Users\stapi\AppData\Local\Temp\cc9ZvSHH.s:326    .text.hostapd_eid_vht_operation:000000000000009e .L0 
C:\Users\stapi\AppData\Local\Temp\cc9ZvSHH.s:337    .text.copy_sta_vht_capab:0000000000000000 copy_sta_vht_capab
C:\Users\stapi\AppData\Local\Temp\cc9ZvSHH.s:340    .text.copy_sta_vht_capab:0000000000000000 .L0 
C:\Users\stapi\AppData\Local\Temp\cc9ZvSHH.s:342    .text.copy_sta_vht_capab:0000000000000000 .L0 
C:\Users\stapi\AppData\Local\Temp\cc9ZvSHH.s:343    .text.copy_sta_vht_capab:0000000000000008 .L0 
C:\Users\stapi\AppData\Local\Temp\cc9ZvSHH.s:344    .text.copy_sta_vht_capab:0000000000000008 .L0 
C:\Users\stapi\AppData\Local\Temp\cc9ZvSHH.s:345    .text.copy_sta_vht_capab:0000000000000008 .L0 
C:\Users\stapi\AppData\Local\Temp\cc9ZvSHH.s:346    .text.copy_sta_vht_capab:0000000000000008 .L0 
C:\Users\stapi\AppData\Local\Temp\cc9ZvSHH.s:348    .text.copy_sta_vht_capab:0000000000000008 .L0 
C:\Users\stapi\AppData\Local\Temp\cc9ZvSHH.s:349    .text.copy_sta_vht_capab:0000000000000008 .L0 
C:\Users\stapi\AppData\Local\Temp\cc9ZvSHH.s:351    .text.copy_sta_vht_capab:000000000000000a .L0 
C:\Users\stapi\AppData\Local\Temp\cc9ZvSHH.s:352    .text.copy_sta_vht_capab:000000000000000c .L0 
C:\Users\stapi\AppData\Local\Temp\cc9ZvSHH.s:354    .text.copy_sta_vht_capab:000000000000000c .L0 
C:\Users\stapi\AppData\Local\Temp\cc9ZvSHH.s:356    .text.copy_sta_vht_capab:000000000000000e .L0 
C:\Users\stapi\AppData\Local\Temp\cc9ZvSHH.s:358    .text.copy_sta_vht_capab:0000000000000010 .L0 
C:\Users\stapi\AppData\Local\Temp\cc9ZvSHH.s:360    .text.copy_sta_vht_capab:0000000000000014 .L0 
C:\Users\stapi\AppData\Local\Temp\cc9ZvSHH.s:362    .text.copy_sta_vht_capab:0000000000000016 .L0 
C:\Users\stapi\AppData\Local\Temp\cc9ZvSHH.s:364    .text.copy_sta_vht_capab:0000000000000018 .L0 
C:\Users\stapi\AppData\Local\Temp\cc9ZvSHH.s:367    .text.copy_sta_vht_capab:000000000000001e .L0 
C:\Users\stapi\AppData\Local\Temp\cc9ZvSHH.s:369    .text.copy_sta_vht_capab:0000000000000020 .L0 
C:\Users\stapi\AppData\Local\Temp\cc9ZvSHH.s:372    .text.copy_sta_vht_capab:0000000000000026 .L0 
C:\Users\stapi\AppData\Local\Temp\cc9ZvSHH.s:379    .text.copy_sta_vht_capab:000000000000002e .L0 
C:\Users\stapi\AppData\Local\Temp\cc9ZvSHH.s:380    .text.copy_sta_vht_capab:000000000000002e .L0 
C:\Users\stapi\AppData\Local\Temp\cc9ZvSHH.s:381    .text.copy_sta_vht_capab:000000000000002e .L0 
C:\Users\stapi\AppData\Local\Temp\cc9ZvSHH.s:382    .text.copy_sta_vht_capab:000000000000002e .L0 
C:\Users\stapi\AppData\Local\Temp\cc9ZvSHH.s:383    .text.copy_sta_vht_capab:000000000000002e .L0 
C:\Users\stapi\AppData\Local\Temp\cc9ZvSHH.s:384    .text.copy_sta_vht_capab:000000000000002e .L0 
C:\Users\stapi\AppData\Local\Temp\cc9ZvSHH.s:390    .text.copy_sta_vht_capab:0000000000000030 .L0 
C:\Users\stapi\AppData\Local\Temp\cc9ZvSHH.s:391    .text.copy_sta_vht_capab:0000000000000030 .L0 
C:\Users\stapi\AppData\Local\Temp\cc9ZvSHH.s:394    .text.copy_sta_vht_capab:0000000000000036 .L0 
C:\Users\stapi\AppData\Local\Temp\cc9ZvSHH.s:395    .text.copy_sta_vht_capab:0000000000000036 .L0 
C:\Users\stapi\AppData\Local\Temp\cc9ZvSHH.s:399    .text.copy_sta_vht_capab:0000000000000040 .L0 
C:\Users\stapi\AppData\Local\Temp\cc9ZvSHH.s:401    .text.copy_sta_vht_capab:0000000000000044 .L0 
C:\Users\stapi\AppData\Local\Temp\cc9ZvSHH.s:402    .text.copy_sta_vht_capab:0000000000000044 .L0 
C:\Users\stapi\AppData\Local\Temp\cc9ZvSHH.s:404    .text.copy_sta_vht_capab:0000000000000046 .L0 
C:\Users\stapi\AppData\Local\Temp\cc9ZvSHH.s:411    .text.copy_sta_vht_capab:000000000000004a .L0 
C:\Users\stapi\AppData\Local\Temp\cc9ZvSHH.s:419    .text.copy_sta_vht_capab:000000000000005a .L0 
C:\Users\stapi\AppData\Local\Temp\cc9ZvSHH.s:420    .text.copy_sta_vht_capab:000000000000005a .L0 
C:\Users\stapi\AppData\Local\Temp\cc9ZvSHH.s:421    .text.copy_sta_vht_capab:000000000000005a .L0 
C:\Users\stapi\AppData\Local\Temp\cc9ZvSHH.s:424    .text.copy_sta_vht_capab:0000000000000062 .L0 
C:\Users\stapi\AppData\Local\Temp\cc9ZvSHH.s:426    .text.copy_sta_vht_capab:0000000000000066 .L0 
C:\Users\stapi\AppData\Local\Temp\cc9ZvSHH.s:430    .text.copy_sta_vht_capab:000000000000006a .L0 
C:\Users\stapi\AppData\Local\Temp\cc9ZvSHH.s:431    .text.copy_sta_vht_capab:000000000000006a .L0 
C:\Users\stapi\AppData\Local\Temp\cc9ZvSHH.s:432    .text.copy_sta_vht_capab:000000000000006a .L0 
C:\Users\stapi\AppData\Local\Temp\cc9ZvSHH.s:433    .text.copy_sta_vht_capab:000000000000006a .L0 
C:\Users\stapi\AppData\Local\Temp\cc9ZvSHH.s:435    .text.copy_sta_vht_capab:000000000000006c .L0 
C:\Users\stapi\AppData\Local\Temp\cc9ZvSHH.s:437    .text.copy_sta_vht_capab:000000000000006e .L0 
C:\Users\stapi\AppData\Local\Temp\cc9ZvSHH.s:441    .text.copy_sta_vht_capab:0000000000000070 .L0 
C:\Users\stapi\AppData\Local\Temp\cc9ZvSHH.s:442    .text.copy_sta_vht_capab:0000000000000070 .L0 
C:\Users\stapi\AppData\Local\Temp\cc9ZvSHH.s:444    .text.copy_sta_vht_capab:0000000000000074 .L0 
C:\Users\stapi\AppData\Local\Temp\cc9ZvSHH.s:446    .text.copy_sta_vht_capab:0000000000000078 .L0 
C:\Users\stapi\AppData\Local\Temp\cc9ZvSHH.s:448    .text.copy_sta_vht_capab:000000000000007c .L0 
C:\Users\stapi\AppData\Local\Temp\cc9ZvSHH.s:449    .text.copy_sta_vht_capab:000000000000007c .L0 
C:\Users\stapi\AppData\Local\Temp\cc9ZvSHH.s:451    .text.copy_sta_vht_capab:000000000000007e .L0 
C:\Users\stapi\AppData\Local\Temp\cc9ZvSHH.s:454    .text.copy_sta_vht_capab:0000000000000082 .L0 
C:\Users\stapi\AppData\Local\Temp\cc9ZvSHH.s:455    .text.copy_sta_vht_capab:0000000000000082 .L0 
C:\Users\stapi\AppData\Local\Temp\cc9ZvSHH.s:456    .text.copy_sta_vht_capab:0000000000000082 .L0 
C:\Users\stapi\AppData\Local\Temp\cc9ZvSHH.s:459    .text.copy_sta_vht_capab:0000000000000088 .L0 
C:\Users\stapi\AppData\Local\Temp\cc9ZvSHH.s:469    .text.copy_sta_vht_capab:000000000000009a .L0 
C:\Users\stapi\AppData\Local\Temp\cc9ZvSHH.s:470    .text.copy_sta_vht_capab:000000000000009a .L0 
C:\Users\stapi\AppData\Local\Temp\cc9ZvSHH.s:471    .text.copy_sta_vht_capab:000000000000009a .L0 
C:\Users\stapi\AppData\Local\Temp\cc9ZvSHH.s:473    .text.copy_sta_vht_capab:000000000000009c .L0 
C:\Users\stapi\AppData\Local\Temp\cc9ZvSHH.s:475    .text.copy_sta_vht_capab:00000000000000a0 .L0 
C:\Users\stapi\AppData\Local\Temp\cc9ZvSHH.s:478    .text.copy_sta_vht_capab:00000000000000a6 .L0 
C:\Users\stapi\AppData\Local\Temp\cc9ZvSHH.s:481    .text.copy_sta_vht_capab:00000000000000ae .L0 
C:\Users\stapi\AppData\Local\Temp\cc9ZvSHH.s:482    .text.copy_sta_vht_capab:00000000000000ae .L0 
C:\Users\stapi\AppData\Local\Temp\cc9ZvSHH.s:485    .text.copy_sta_vht_capab:00000000000000b2 .L0 
C:\Users\stapi\AppData\Local\Temp\cc9ZvSHH.s:486    .text.copy_sta_vht_capab:00000000000000b2 .L0 
C:\Users\stapi\AppData\Local\Temp\cc9ZvSHH.s:487    .text.copy_sta_vht_capab:00000000000000b2 .L0 
C:\Users\stapi\AppData\Local\Temp\cc9ZvSHH.s:490    .text.copy_sta_vht_capab:00000000000000b4 .L0 
C:\Users\stapi\AppData\Local\Temp\cc9ZvSHH.s:491    .text.copy_sta_vht_capab:00000000000000b6 .L0 
C:\Users\stapi\AppData\Local\Temp\cc9ZvSHH.s:492    .text.copy_sta_vht_capab:00000000000000b6 .L0 
C:\Users\stapi\AppData\Local\Temp\cc9ZvSHH.s:494    .text.copy_sta_vht_capab:00000000000000be .L0 
C:\Users\stapi\AppData\Local\Temp\cc9ZvSHH.s:495    .text.copy_sta_vht_capab:00000000000000be .L0 
C:\Users\stapi\AppData\Local\Temp\cc9ZvSHH.s:496    .text.copy_sta_vht_capab:00000000000000be .L0 
C:\Users\stapi\AppData\Local\Temp\cc9ZvSHH.s:497    .text.copy_sta_vht_capab:00000000000000be .L0 
C:\Users\stapi\AppData\Local\Temp\cc9ZvSHH.s:500    .text.copy_sta_vht_capab:00000000000000be .L0 
C:\Users\stapi\AppData\Local\Temp\cc9ZvSHH.s:502    .text.copy_sta_vht_capab:00000000000000be .L0 
C:\Users\stapi\AppData\Local\Temp\cc9ZvSHH.s:503    .text.copy_sta_vht_capab:00000000000000be .L0 
C:\Users\stapi\AppData\Local\Temp\cc9ZvSHH.s:505    .text.copy_sta_vht_capab:00000000000000c0 .L0 
C:\Users\stapi\AppData\Local\Temp\cc9ZvSHH.s:508    .text.copy_sta_vht_capab:00000000000000c6 .L0 
C:\Users\stapi\AppData\Local\Temp\cc9ZvSHH.s:510    .text.copy_sta_vht_capab:00000000000000ca .L0 
C:\Users\stapi\AppData\Local\Temp\cc9ZvSHH.s:512    .text.copy_sta_vht_capab:00000000000000cc .L0 
C:\Users\stapi\AppData\Local\Temp\cc9ZvSHH.s:514    .text.copy_sta_vht_capab:00000000000000ce .L0 
C:\Users\stapi\AppData\Local\Temp\cc9ZvSHH.s:517    .text.copy_sta_vht_capab:00000000000000d8 .L0 
C:\Users\stapi\AppData\Local\Temp\cc9ZvSHH.s:524    .text.copy_sta_vht_oper:0000000000000000 copy_sta_vht_oper
C:\Users\stapi\AppData\Local\Temp\cc9ZvSHH.s:527    .text.copy_sta_vht_oper:0000000000000000 .L0 
C:\Users\stapi\AppData\Local\Temp\cc9ZvSHH.s:529    .text.copy_sta_vht_oper:0000000000000000 .L0 
C:\Users\stapi\AppData\Local\Temp\cc9ZvSHH.s:530    .text.copy_sta_vht_oper:0000000000000008 .L0 
C:\Users\stapi\AppData\Local\Temp\cc9ZvSHH.s:531    .text.copy_sta_vht_oper:0000000000000008 .L0 
C:\Users\stapi\AppData\Local\Temp\cc9ZvSHH.s:532    .text.copy_sta_vht_oper:0000000000000008 .L0 
C:\Users\stapi\AppData\Local\Temp\cc9ZvSHH.s:534    .text.copy_sta_vht_oper:0000000000000008 .L0 
C:\Users\stapi\AppData\Local\Temp\cc9ZvSHH.s:535    .text.copy_sta_vht_oper:0000000000000008 .L0 
C:\Users\stapi\AppData\Local\Temp\cc9ZvSHH.s:538    .text.copy_sta_vht_oper:000000000000000c .L0 
C:\Users\stapi\AppData\Local\Temp\cc9ZvSHH.s:539    .text.copy_sta_vht_oper:000000000000000e .L0 
C:\Users\stapi\AppData\Local\Temp\cc9ZvSHH.s:541    .text.copy_sta_vht_oper:000000000000000e .L0 
C:\Users\stapi\AppData\Local\Temp\cc9ZvSHH.s:543    .text.copy_sta_vht_oper:0000000000000010 .L0 
C:\Users\stapi\AppData\Local\Temp\cc9ZvSHH.s:545    .text.copy_sta_vht_oper:0000000000000012 .L0 
C:\Users\stapi\AppData\Local\Temp\cc9ZvSHH.s:548    .text.copy_sta_vht_oper:000000000000001a .L0 
C:\Users\stapi\AppData\Local\Temp\cc9ZvSHH.s:549    .text.copy_sta_vht_oper:000000000000001a .L0 
C:\Users\stapi\AppData\Local\Temp\cc9ZvSHH.s:552    .text.copy_sta_vht_oper:000000000000001e .L0 
C:\Users\stapi\AppData\Local\Temp\cc9ZvSHH.s:553    .text.copy_sta_vht_oper:000000000000001e .L0 
C:\Users\stapi\AppData\Local\Temp\cc9ZvSHH.s:554    .text.copy_sta_vht_oper:000000000000001e .L0 
C:\Users\stapi\AppData\Local\Temp\cc9ZvSHH.s:557    .text.copy_sta_vht_oper:0000000000000020 .L0 
C:\Users\stapi\AppData\Local\Temp\cc9ZvSHH.s:558    .text.copy_sta_vht_oper:0000000000000022 .L0 
C:\Users\stapi\AppData\Local\Temp\cc9ZvSHH.s:559    .text.copy_sta_vht_oper:0000000000000022 .L0 
C:\Users\stapi\AppData\Local\Temp\cc9ZvSHH.s:561    .text.copy_sta_vht_oper:000000000000002a .L0 
C:\Users\stapi\AppData\Local\Temp\cc9ZvSHH.s:562    .text.copy_sta_vht_oper:000000000000002a .L0 
C:\Users\stapi\AppData\Local\Temp\cc9ZvSHH.s:563    .text.copy_sta_vht_oper:000000000000002a .L0 
C:\Users\stapi\AppData\Local\Temp\cc9ZvSHH.s:566    .text.copy_sta_vht_oper:000000000000002a .L0 
C:\Users\stapi\AppData\Local\Temp\cc9ZvSHH.s:569    .text.copy_sta_vht_oper:000000000000002c .L0 
C:\Users\stapi\AppData\Local\Temp\cc9ZvSHH.s:570    .text.copy_sta_vht_oper:000000000000002c .L0 
C:\Users\stapi\AppData\Local\Temp\cc9ZvSHH.s:574    .text.copy_sta_vht_oper:000000000000002e .L0 
C:\Users\stapi\AppData\Local\Temp\cc9ZvSHH.s:582    .text.copy_sta_vht_oper:000000000000003e .L0 
C:\Users\stapi\AppData\Local\Temp\cc9ZvSHH.s:585    .text.copy_sta_vht_oper:0000000000000042 .L0 
C:\Users\stapi\AppData\Local\Temp\cc9ZvSHH.s:586    .text.copy_sta_vht_oper:0000000000000042 .L0 
C:\Users\stapi\AppData\Local\Temp\cc9ZvSHH.s:589    .text.copy_sta_vht_oper:000000000000004a .L0 
C:\Users\stapi\AppData\Local\Temp\cc9ZvSHH.s:591    .text.copy_sta_vht_oper:000000000000004e .L0 
C:\Users\stapi\AppData\Local\Temp\cc9ZvSHH.s:592    .text.copy_sta_vht_oper:000000000000004e .L0 
C:\Users\stapi\AppData\Local\Temp\cc9ZvSHH.s:595    .text.copy_sta_vht_oper:0000000000000052 .L0 
C:\Users\stapi\AppData\Local\Temp\cc9ZvSHH.s:597    .text.copy_sta_vht_oper:0000000000000056 .L0 
C:\Users\stapi\AppData\Local\Temp\cc9ZvSHH.s:604    .text.copy_sta_vendor_vht:0000000000000000 copy_sta_vendor_vht
C:\Users\stapi\AppData\Local\Temp\cc9ZvSHH.s:607    .text.copy_sta_vendor_vht:0000000000000000 .L0 
C:\Users\stapi\AppData\Local\Temp\cc9ZvSHH.s:609    .text.copy_sta_vendor_vht:0000000000000000 .L0 
C:\Users\stapi\AppData\Local\Temp\cc9ZvSHH.s:610    .text.copy_sta_vendor_vht:0000000000000008 .L0 
C:\Users\stapi\AppData\Local\Temp\cc9ZvSHH.s:611    .text.copy_sta_vendor_vht:0000000000000008 .L0 
C:\Users\stapi\AppData\Local\Temp\cc9ZvSHH.s:612    .text.copy_sta_vendor_vht:0000000000000008 .L0 
C:\Users\stapi\AppData\Local\Temp\cc9ZvSHH.s:614    .text.copy_sta_vendor_vht:0000000000000008 .L0 
C:\Users\stapi\AppData\Local\Temp\cc9ZvSHH.s:615    .text.copy_sta_vendor_vht:0000000000000008 .L0 
C:\Users\stapi\AppData\Local\Temp\cc9ZvSHH.s:616    .text.copy_sta_vendor_vht:0000000000000008 .L0 
C:\Users\stapi\AppData\Local\Temp\cc9ZvSHH.s:617    .text.copy_sta_vendor_vht:0000000000000008 .L0 
C:\Users\stapi\AppData\Local\Temp\cc9ZvSHH.s:618    .text.copy_sta_vendor_vht:000000000000000a .L0 
C:\Users\stapi\AppData\Local\Temp\cc9ZvSHH.s:620    .text.copy_sta_vendor_vht:000000000000000a .L0 
C:\Users\stapi\AppData\Local\Temp\cc9ZvSHH.s:622    .text.copy_sta_vendor_vht:000000000000000c .L0 
C:\Users\stapi\AppData\Local\Temp\cc9ZvSHH.s:624    .text.copy_sta_vendor_vht:000000000000000e .L0 
C:\Users\stapi\AppData\Local\Temp\cc9ZvSHH.s:627    .text.copy_sta_vendor_vht:0000000000000014 .L0 
C:\Users\stapi\AppData\Local\Temp\cc9ZvSHH.s:629    .text.copy_sta_vendor_vht:0000000000000016 .L0 
C:\Users\stapi\AppData\Local\Temp\cc9ZvSHH.s:633    .text.copy_sta_vendor_vht:000000000000001c .L0 
C:\Users\stapi\AppData\Local\Temp\cc9ZvSHH.s:634    .text.copy_sta_vendor_vht:000000000000001c .L0 
C:\Users\stapi\AppData\Local\Temp\cc9ZvSHH.s:635    .text.copy_sta_vendor_vht:000000000000001c .L0 
C:\Users\stapi\AppData\Local\Temp\cc9ZvSHH.s:639    .text.copy_sta_vendor_vht:0000000000000028 .L0 
C:\Users\stapi\AppData\Local\Temp\cc9ZvSHH.s:640    .text.copy_sta_vendor_vht:0000000000000028 .L0 
C:\Users\stapi\AppData\Local\Temp\cc9ZvSHH.s:643    .text.copy_sta_vendor_vht:000000000000002c .L0 
C:\Users\stapi\AppData\Local\Temp\cc9ZvSHH.s:644    .text.copy_sta_vendor_vht:000000000000002c .L0 
C:\Users\stapi\AppData\Local\Temp\cc9ZvSHH.s:647    .text.copy_sta_vendor_vht:0000000000000032 .L0 
C:\Users\stapi\AppData\Local\Temp\cc9ZvSHH.s:650    .text.copy_sta_vendor_vht:0000000000000034 .L0 
C:\Users\stapi\AppData\Local\Temp\cc9ZvSHH.s:652    .text.copy_sta_vendor_vht:0000000000000038 .L0 
C:\Users\stapi\AppData\Local\Temp\cc9ZvSHH.s:653    .text.copy_sta_vendor_vht:0000000000000038 .L0 
C:\Users\stapi\AppData\Local\Temp\cc9ZvSHH.s:656    .text.copy_sta_vendor_vht:000000000000003c .L0 
C:\Users\stapi\AppData\Local\Temp\cc9ZvSHH.s:659    .text.copy_sta_vendor_vht:0000000000000040 .L0 
C:\Users\stapi\AppData\Local\Temp\cc9ZvSHH.s:660    .text.copy_sta_vendor_vht:0000000000000040 .L0 
C:\Users\stapi\AppData\Local\Temp\cc9ZvSHH.s:664    .text.copy_sta_vendor_vht:0000000000000042 .L0 
C:\Users\stapi\AppData\Local\Temp\cc9ZvSHH.s:665    .text.copy_sta_vendor_vht:0000000000000042 .L0 
C:\Users\stapi\AppData\Local\Temp\cc9ZvSHH.s:668    .text.copy_sta_vendor_vht:0000000000000048 .L0 
C:\Users\stapi\AppData\Local\Temp\cc9ZvSHH.s:670    .text.copy_sta_vendor_vht:000000000000004c .L0 
C:\Users\stapi\AppData\Local\Temp\cc9ZvSHH.s:673    .text.copy_sta_vendor_vht:0000000000000050 .L0 
C:\Users\stapi\AppData\Local\Temp\cc9ZvSHH.s:678    .text.copy_sta_vendor_vht:000000000000005a .L0 
C:\Users\stapi\AppData\Local\Temp\cc9ZvSHH.s:679    .text.copy_sta_vendor_vht:000000000000005a .L0 
C:\Users\stapi\AppData\Local\Temp\cc9ZvSHH.s:680    .text.copy_sta_vendor_vht:000000000000005a .L0 
C:\Users\stapi\AppData\Local\Temp\cc9ZvSHH.s:685    .text.copy_sta_vendor_vht:000000000000005e .L0 
C:\Users\stapi\AppData\Local\Temp\cc9ZvSHH.s:689    .text.copy_sta_vendor_vht:0000000000000062 .L0 
C:\Users\stapi\AppData\Local\Temp\cc9ZvSHH.s:690    .text.copy_sta_vendor_vht:0000000000000062 .L0 
C:\Users\stapi\AppData\Local\Temp\cc9ZvSHH.s:694    .text.copy_sta_vendor_vht:000000000000006c .L0 
C:\Users\stapi\AppData\Local\Temp\cc9ZvSHH.s:696    .text.copy_sta_vendor_vht:0000000000000070 .L0 
C:\Users\stapi\AppData\Local\Temp\cc9ZvSHH.s:697    .text.copy_sta_vendor_vht:0000000000000070 .L0 
C:\Users\stapi\AppData\Local\Temp\cc9ZvSHH.s:699    .text.copy_sta_vendor_vht:0000000000000072 .L0 
C:\Users\stapi\AppData\Local\Temp\cc9ZvSHH.s:701    .text.copy_sta_vendor_vht:0000000000000074 .L0 
C:\Users\stapi\AppData\Local\Temp\cc9ZvSHH.s:705    .text.copy_sta_vendor_vht:0000000000000076 .L0 
C:\Users\stapi\AppData\Local\Temp\cc9ZvSHH.s:706    .text.copy_sta_vendor_vht:0000000000000078 .L0 
C:\Users\stapi\AppData\Local\Temp\cc9ZvSHH.s:707    .text.copy_sta_vendor_vht:0000000000000078 .L0 
C:\Users\stapi\AppData\Local\Temp\cc9ZvSHH.s:709    .text.copy_sta_vendor_vht:0000000000000080 .L0 
C:\Users\stapi\AppData\Local\Temp\cc9ZvSHH.s:710    .text.copy_sta_vendor_vht:0000000000000080 .L0 
C:\Users\stapi\AppData\Local\Temp\cc9ZvSHH.s:711    .text.copy_sta_vendor_vht:0000000000000080 .L0 
C:\Users\stapi\AppData\Local\Temp\cc9ZvSHH.s:714    .text.copy_sta_vendor_vht:0000000000000080 .L0 
C:\Users\stapi\AppData\Local\Temp\cc9ZvSHH.s:716    .text.copy_sta_vendor_vht:0000000000000080 .L0 
C:\Users\stapi\AppData\Local\Temp\cc9ZvSHH.s:717    .text.copy_sta_vendor_vht:0000000000000080 .L0 
C:\Users\stapi\AppData\Local\Temp\cc9ZvSHH.s:721    .text.copy_sta_vendor_vht:000000000000008a .L0 
C:\Users\stapi\AppData\Local\Temp\cc9ZvSHH.s:728    .text.hostapd_eid_vendor_vht:0000000000000000 hostapd_eid_vendor_vht
C:\Users\stapi\AppData\Local\Temp\cc9ZvSHH.s:731    .text.hostapd_eid_vendor_vht:0000000000000000 .L0 
C:\Users\stapi\AppData\Local\Temp\cc9ZvSHH.s:733    .text.hostapd_eid_vendor_vht:0000000000000000 .L0 
C:\Users\stapi\AppData\Local\Temp\cc9ZvSHH.s:734    .text.hostapd_eid_vendor_vht:0000000000000000 .L0 
C:\Users\stapi\AppData\Local\Temp\cc9ZvSHH.s:735    .text.hostapd_eid_vendor_vht:0000000000000000 .L0 
C:\Users\stapi\AppData\Local\Temp\cc9ZvSHH.s:736    .text.hostapd_eid_vendor_vht:0000000000000000 .L0 
C:\Users\stapi\AppData\Local\Temp\cc9ZvSHH.s:739    .text.hostapd_eid_vendor_vht:0000000000000006 .L0 
C:\Users\stapi\AppData\Local\Temp\cc9ZvSHH.s:741    .text.hostapd_eid_vendor_vht:0000000000000008 .L0 
C:\Users\stapi\AppData\Local\Temp\cc9ZvSHH.s:745    .text.hostapd_eid_vendor_vht:0000000000000010 .L0 
C:\Users\stapi\AppData\Local\Temp\cc9ZvSHH.s:746    .text.hostapd_eid_vendor_vht:0000000000000018 .L0 
C:\Users\stapi\AppData\Local\Temp\cc9ZvSHH.s:747    .text.hostapd_eid_vendor_vht:0000000000000018 .L0 
C:\Users\stapi\AppData\Local\Temp\cc9ZvSHH.s:748    .text.hostapd_eid_vendor_vht:0000000000000018 .L0 
C:\Users\stapi\AppData\Local\Temp\cc9ZvSHH.s:750    .text.hostapd_eid_vendor_vht:0000000000000018 .L0 
C:\Users\stapi\AppData\Local\Temp\cc9ZvSHH.s:753    .text.hostapd_eid_vendor_vht:0000000000000020 .L0 
C:\Users\stapi\AppData\Local\Temp\cc9ZvSHH.s:759    .text.hostapd_eid_vendor_vht:0000000000000026 .L0 
C:\Users\stapi\AppData\Local\Temp\cc9ZvSHH.s:762    .text.hostapd_eid_vendor_vht:000000000000002e .L0 
C:\Users\stapi\AppData\Local\Temp\cc9ZvSHH.s:765    .text.hostapd_eid_vendor_vht:0000000000000036 .L0 
C:\Users\stapi\AppData\Local\Temp\cc9ZvSHH.s:770    .text.hostapd_eid_vendor_vht:000000000000003c .L0 
C:\Users\stapi\AppData\Local\Temp\cc9ZvSHH.s:775    .text.hostapd_eid_vendor_vht:0000000000000042 .L0 
C:\Users\stapi\AppData\Local\Temp\cc9ZvSHH.s:779    .text.hostapd_eid_vendor_vht:0000000000000046 .L0 
C:\Users\stapi\AppData\Local\Temp\cc9ZvSHH.s:785    .text.hostapd_eid_vendor_vht:000000000000004c .L0 
C:\Users\stapi\AppData\Local\Temp\cc9ZvSHH.s:786    .text.hostapd_eid_vendor_vht:000000000000004c .L0 
C:\Users\stapi\AppData\Local\Temp\cc9ZvSHH.s:789    .text.hostapd_eid_vendor_vht:000000000000004c .L0 
C:\Users\stapi\AppData\Local\Temp\cc9ZvSHH.s:790    .text.hostapd_eid_vendor_vht:000000000000004c .L0 
C:\Users\stapi\AppData\Local\Temp\cc9ZvSHH.s:791    .text.hostapd_eid_vendor_vht:000000000000004c .L0 
C:\Users\stapi\AppData\Local\Temp\cc9ZvSHH.s:792    .text.hostapd_eid_vendor_vht:000000000000004c .L0 
C:\Users\stapi\AppData\Local\Temp\cc9ZvSHH.s:795    .text.hostapd_eid_vendor_vht:000000000000004c .L0 
C:\Users\stapi\AppData\Local\Temp\cc9ZvSHH.s:796    .text.hostapd_eid_vendor_vht:000000000000004c .L0 
C:\Users\stapi\AppData\Local\Temp\cc9ZvSHH.s:797    .text.hostapd_eid_vendor_vht:000000000000004c .L0 
C:\Users\stapi\AppData\Local\Temp\cc9ZvSHH.s:798    .text.hostapd_eid_vendor_vht:000000000000004c .L0 
C:\Users\stapi\AppData\Local\Temp\cc9ZvSHH.s:799    .text.hostapd_eid_vendor_vht:000000000000004c .L0 
C:\Users\stapi\AppData\Local\Temp\cc9ZvSHH.s:804    .text.hostapd_eid_vendor_vht:0000000000000056 .L0 
C:\Users\stapi\AppData\Local\Temp\cc9ZvSHH.s:805    .text.hostapd_eid_vendor_vht:0000000000000056 .L0 
C:\Users\stapi\AppData\Local\Temp\cc9ZvSHH.s:810    .text.hostapd_eid_vendor_vht:0000000000000060 .L0 
C:\Users\stapi\AppData\Local\Temp\cc9ZvSHH.s:811    .text.hostapd_eid_vendor_vht:0000000000000060 .L0 
C:\Users\stapi\AppData\Local\Temp\cc9ZvSHH.s:812    .text.hostapd_eid_vendor_vht:0000000000000068 .L0 
C:\Users\stapi\AppData\Local\Temp\cc9ZvSHH.s:813    .text.hostapd_eid_vendor_vht:0000000000000068 .L0 
C:\Users\stapi\AppData\Local\Temp\cc9ZvSHH.s:814    .text.hostapd_eid_vendor_vht:0000000000000068 .L0 
C:\Users\stapi\AppData\Local\Temp\cc9ZvSHH.s:820    .text.hostapd_eid_vendor_vht:000000000000006c .L0 
C:\Users\stapi\AppData\Local\Temp\cc9ZvSHH.s:827    .text.set_sta_vht_opmode:0000000000000000 set_sta_vht_opmode
C:\Users\stapi\AppData\Local\Temp\cc9ZvSHH.s:830    .text.set_sta_vht_opmode:0000000000000000 .L0 
C:\Users\stapi\AppData\Local\Temp\cc9ZvSHH.s:832    .text.set_sta_vht_opmode:0000000000000000 .L0 
C:\Users\stapi\AppData\Local\Temp\cc9ZvSHH.s:833    .text.set_sta_vht_opmode:0000000000000000 .L0 
C:\Users\stapi\AppData\Local\Temp\cc9ZvSHH.s:834    .text.set_sta_vht_opmode:0000000000000000 .L0 
C:\Users\stapi\AppData\Local\Temp\cc9ZvSHH.s:836    .text.set_sta_vht_opmode:0000000000000002 .L0 
C:\Users\stapi\AppData\Local\Temp\cc9ZvSHH.s:838    .text.set_sta_vht_opmode:0000000000000004 .L0 
C:\Users\stapi\AppData\Local\Temp\cc9ZvSHH.s:839    .text.set_sta_vht_opmode:0000000000000004 .L0 
C:\Users\stapi\AppData\Local\Temp\cc9ZvSHH.s:843    .text.set_sta_vht_opmode:000000000000000a .L0 
C:\Users\stapi\AppData\Local\Temp\cc9ZvSHH.s:844    .text.set_sta_vht_opmode:000000000000000a .L0 
C:\Users\stapi\AppData\Local\Temp\cc9ZvSHH.s:850    .text.set_sta_vht_opmode:000000000000000e .L0 
C:\Users\stapi\AppData\Local\Temp\cc9ZvSHH.s:851    .text.set_sta_vht_opmode:000000000000000e .L0 
C:\Users\stapi\AppData\Local\Temp\cc9ZvSHH.s:854    .text.set_sta_vht_opmode:0000000000000014 .L0 
C:\Users\stapi\AppData\Local\Temp\cc9ZvSHH.s:855    .text.set_sta_vht_opmode:0000000000000014 .L0 
C:\Users\stapi\AppData\Local\Temp\cc9ZvSHH.s:857    .text.set_sta_vht_opmode:0000000000000018 .L0 
C:\Users\stapi\AppData\Local\Temp\cc9ZvSHH.s:859    .text.set_sta_vht_opmode:000000000000001c .L0 
C:\Users\stapi\AppData\Local\Temp\cc9ZvSHH.s:860    .text.set_sta_vht_opmode:000000000000001c .L0 
C:\Users\stapi\AppData\Local\Temp\cc9ZvSHH.s:861    .text.set_sta_vht_opmode:000000000000001e .L0 
C:\Users\stapi\AppData\Local\Temp\cc9ZvSHH.s:868    .text.hostapd_get_vht_capab:0000000000000000 hostapd_get_vht_capab
C:\Users\stapi\AppData\Local\Temp\cc9ZvSHH.s:871    .text.hostapd_get_vht_capab:0000000000000000 .L0 
C:\Users\stapi\AppData\Local\Temp\cc9ZvSHH.s:873    .text.hostapd_get_vht_capab:0000000000000000 .L0 
C:\Users\stapi\AppData\Local\Temp\cc9ZvSHH.s:874    .text.hostapd_get_vht_capab:0000000000000000 .L0 
C:\Users\stapi\AppData\Local\Temp\cc9ZvSHH.s:875    .text.hostapd_get_vht_capab:0000000000000000 .L0 
C:\Users\stapi\AppData\Local\Temp\cc9ZvSHH.s:876    .text.hostapd_get_vht_capab:0000000000000000 .L0 
C:\Users\stapi\AppData\Local\Temp\cc9ZvSHH.s:878    .text.hostapd_get_vht_capab:0000000000000002 .L0 
C:\Users\stapi\AppData\Local\Temp\cc9ZvSHH.s:879    .text.hostapd_get_vht_capab:000000000000000a .L0 
C:\Users\stapi\AppData\Local\Temp\cc9ZvSHH.s:880    .text.hostapd_get_vht_capab:000000000000000a .L0 
C:\Users\stapi\AppData\Local\Temp\cc9ZvSHH.s:881    .text.hostapd_get_vht_capab:000000000000000a .L0 
C:\Users\stapi\AppData\Local\Temp\cc9ZvSHH.s:882    .text.hostapd_get_vht_capab:000000000000000a .L0 
C:\Users\stapi\AppData\Local\Temp\cc9ZvSHH.s:885    .text.hostapd_get_vht_capab:000000000000000c .L0 
C:\Users\stapi\AppData\Local\Temp\cc9ZvSHH.s:893    .text.hostapd_get_vht_capab:000000000000001a .L0 
C:\Users\stapi\AppData\Local\Temp\cc9ZvSHH.s:894    .text.hostapd_get_vht_capab:000000000000001a .L0 
C:\Users\stapi\AppData\Local\Temp\cc9ZvSHH.s:906    .text.hostapd_get_vht_capab:0000000000000036 .L0 
C:\Users\stapi\AppData\Local\Temp\cc9ZvSHH.s:907    .text.hostapd_get_vht_capab:0000000000000036 .L0 
C:\Users\stapi\AppData\Local\Temp\cc9ZvSHH.s:911    .text.hostapd_get_vht_capab:000000000000003c .L0 
C:\Users\stapi\AppData\Local\Temp\cc9ZvSHH.s:912    .text.hostapd_get_vht_capab:000000000000003c .L0 
C:\Users\stapi\AppData\Local\Temp\cc9ZvSHH.s:913    .text.hostapd_get_vht_capab:000000000000003c .L0 
C:\Users\stapi\AppData\Local\Temp\cc9ZvSHH.s:915    .text.hostapd_get_vht_capab:0000000000000040 .L0 
C:\Users\stapi\AppData\Local\Temp\cc9ZvSHH.s:918    .text.hostapd_get_vht_capab:0000000000000042 .L0 
C:\Users\stapi\AppData\Local\Temp\cc9ZvSHH.s:919    .text.hostapd_get_vht_capab:0000000000000042 .L0 
C:\Users\stapi\AppData\Local\Temp\cc9ZvSHH.s:921    .text.hostapd_get_vht_capab:0000000000000046 .L0 
C:\Users\stapi\AppData\Local\Temp\cc9ZvSHH.s:923    .text.hostapd_get_vht_capab:0000000000000048 .L0 
C:\Users\stapi\AppData\Local\Temp\cc9ZvSHH.s:924    .text.hostapd_get_vht_capab:0000000000000048 .L0 
C:\Users\stapi\AppData\Local\Temp\cc9ZvSHH.s:930    .text.hostapd_get_vht_capab:000000000000004e .L0 
C:\Users\stapi\AppData\Local\Temp\cc9ZvSHH.s:931    .text.hostapd_get_vht_capab:000000000000004e .L0 
C:\Users\stapi\AppData\Local\Temp\cc9ZvSHH.s:934    .text.hostapd_get_vht_capab:0000000000000052 .L0 
C:\Users\stapi\AppData\Local\Temp\cc9ZvSHH.s:936    .text.hostapd_get_vht_capab:0000000000000054 .L0 
C:\Users\stapi\AppData\Local\Temp\cc9ZvSHH.s:937    .text.hostapd_get_vht_capab:0000000000000054 .L0 
C:\Users\stapi\AppData\Local\Temp\cc9ZvSHH.s:943    .text.hostapd_get_vht_capab:000000000000005e .L0 
C:\Users\stapi\AppData\Local\Temp\cc9ZvSHH.s:944    .text.hostapd_get_vht_capab:000000000000005e .L0 
C:\Users\stapi\AppData\Local\Temp\cc9ZvSHH.s:947    .text.hostapd_get_vht_capab:0000000000000064 .L0 
C:\Users\stapi\AppData\Local\Temp\cc9ZvSHH.s:949    .text.hostapd_get_vht_capab:0000000000000066 .L0 
C:\Users\stapi\AppData\Local\Temp\cc9ZvSHH.s:950    .text.hostapd_get_vht_capab:0000000000000066 .L0 
C:\Users\stapi\AppData\Local\Temp\cc9ZvSHH.s:954    .text.hostapd_get_vht_capab:000000000000006a .L0 
C:\Users\stapi\AppData\Local\Temp\cc9ZvSHH.s:955    .text.hostapd_get_vht_capab:000000000000006a .L0 
C:\Users\stapi\AppData\Local\Temp\cc9ZvSHH.s:958    .text.hostapd_get_vht_capab:0000000000000070 .L0 
C:\Users\stapi\AppData\Local\Temp\cc9ZvSHH.s:960    .text.hostapd_get_vht_capab:0000000000000072 .L0 
C:\Users\stapi\AppData\Local\Temp\cc9ZvSHH.s:961    .text.hostapd_get_vht_capab:0000000000000072 .L0 
C:\Users\stapi\AppData\Local\Temp\cc9ZvSHH.s:965    .text.hostapd_get_vht_capab:0000000000000076 .L0 
C:\Users\stapi\AppData\Local\Temp\cc9ZvSHH.s:966    .text.hostapd_get_vht_capab:0000000000000076 .L0 
C:\Users\stapi\AppData\Local\Temp\cc9ZvSHH.s:968    .text.hostapd_get_vht_capab:000000000000007a .L0 
C:\Users\stapi\AppData\Local\Temp\cc9ZvSHH.s:973    .text.hostapd_get_vht_capab:0000000000000086 .L0 
C:\Users\stapi\AppData\Local\Temp\cc9ZvSHH.s:974    .text.hostapd_get_vht_capab:0000000000000086 .L0 
C:\Users\stapi\AppData\Local\Temp\cc9ZvSHH.s:977    .text.hostapd_get_vht_capab:0000000000000088 .L0 
C:\Users\stapi\AppData\Local\Temp\cc9ZvSHH.s:980    .text.hostapd_get_vht_capab:000000000000008a .L0 
C:\Users\stapi\AppData\Local\Temp\cc9ZvSHH.s:981    .text.hostapd_get_vht_capab:000000000000008a .L0 
C:\Users\stapi\AppData\Local\Temp\cc9ZvSHH.s:983    .text.hostapd_get_vht_capab:000000000000008e .L0 
C:\Users\stapi\AppData\Local\Temp\cc9ZvSHH.s:985    .text.hostapd_get_vht_capab:0000000000000090 .L0 
C:\Users\stapi\AppData\Local\Temp\cc9ZvSHH.s:986    .text.hostapd_get_vht_capab:0000000000000090 .L0 
C:\Users\stapi\AppData\Local\Temp\cc9ZvSHH.s:989    .text.hostapd_get_vht_capab:0000000000000092 .L0 
C:\Users\stapi\AppData\Local\Temp\cc9ZvSHH.s:990    .text.hostapd_get_vht_capab:0000000000000092 .L0 
C:\Users\stapi\AppData\Local\Temp\cc9ZvSHH.s:994    .text.hostapd_get_vht_capab:0000000000000096 .L0 
C:\Users\stapi\AppData\Local\Temp\cc9ZvSHH.s:995    .text.hostapd_get_vht_capab:0000000000000096 .L0 
C:\Users\stapi\AppData\Local\Temp\cc9ZvSHH.s:997    .text.hostapd_get_vht_capab:000000000000009a .L0 
C:\Users\stapi\AppData\Local\Temp\cc9ZvSHH.s:999    .text.hostapd_get_vht_capab:000000000000009c .L0 
C:\Users\stapi\AppData\Local\Temp\cc9ZvSHH.s:1000   .text.hostapd_get_vht_capab:000000000000009c .L0 
C:\Users\stapi\AppData\Local\Temp\cc9ZvSHH.s:1004   .text.hostapd_get_vht_capab:00000000000000a0 .L0 
C:\Users\stapi\AppData\Local\Temp\cc9ZvSHH.s:1005   .text.hostapd_get_vht_capab:00000000000000a0 .L0 
C:\Users\stapi\AppData\Local\Temp\cc9ZvSHH.s:1007   .text.hostapd_get_vht_capab:00000000000000a4 .L0 
C:\Users\stapi\AppData\Local\Temp\cc9ZvSHH.s:1009   .text.hostapd_get_vht_capab:00000000000000a6 .L0 
C:\Users\stapi\AppData\Local\Temp\cc9ZvSHH.s:1010   .text.hostapd_get_vht_capab:00000000000000a6 .L0 
C:\Users\stapi\AppData\Local\Temp\cc9ZvSHH.s:1014   .text.hostapd_get_vht_capab:00000000000000aa .L0 
C:\Users\stapi\AppData\Local\Temp\cc9ZvSHH.s:1015   .text.hostapd_get_vht_capab:00000000000000aa .L0 
C:\Users\stapi\AppData\Local\Temp\cc9ZvSHH.s:1018   .text.hostapd_get_vht_capab:00000000000000ae .L0 
C:\Users\stapi\AppData\Local\Temp\cc9ZvSHH.s:1020   .text.hostapd_get_vht_capab:00000000000000b0 .L0 
C:\Users\stapi\AppData\Local\Temp\cc9ZvSHH.s:1021   .text.hostapd_get_vht_capab:00000000000000b0 .L0 
C:\Users\stapi\AppData\Local\Temp\cc9ZvSHH.s:1025   .text.hostapd_get_vht_capab:00000000000000b4 .L0 
C:\Users\stapi\AppData\Local\Temp\cc9ZvSHH.s:1026   .text.hostapd_get_vht_capab:00000000000000b4 .L0 
C:\Users\stapi\AppData\Local\Temp\cc9ZvSHH.s:1035   .text.hostapd_get_vht_capab:00000000000000ce .L0 
C:\Users\stapi\AppData\Local\Temp\cc9ZvSHH.s:1036   .text.hostapd_get_vht_capab:00000000000000d6 .L0 
C:\Users\stapi\AppData\Local\Temp\cc9ZvSHH.s:1037   .text.hostapd_get_vht_capab:00000000000000d6 .L0 
C:\Users\stapi\AppData\Local\Temp\cc9ZvSHH.s:1038   .text.hostapd_get_vht_capab:00000000000000d6 .L0 
C:\Users\stapi\AppData\Local\Temp\cc9ZvSHH.s:1039   .text.hostapd_get_vht_capab:00000000000000d6 .L0 
C:\Users\stapi\AppData\Local\Temp\cc9ZvSHH.s:1043   .text.hostapd_get_vht_capab:00000000000000d8 .L0 
C:\Users\stapi\AppData\Local\Temp\cc9ZvSHH.s:191    .text.hostapd_eid_vht_capabilities:00000000000000f6 .L0 
C:\Users\stapi\AppData\Local\Temp\cc9ZvSHH.s:329    .text.hostapd_eid_vht_operation:000000000000009e .L0 
C:\Users\stapi\AppData\Local\Temp\cc9ZvSHH.s:520    .text.copy_sta_vht_capab:00000000000000d8 .L0 
C:\Users\stapi\AppData\Local\Temp\cc9ZvSHH.s:600    .text.copy_sta_vht_oper:0000000000000056 .L0 
C:\Users\stapi\AppData\Local\Temp\cc9ZvSHH.s:724    .text.copy_sta_vendor_vht:000000000000008a .L0 
C:\Users\stapi\AppData\Local\Temp\cc9ZvSHH.s:823    .text.hostapd_eid_vendor_vht:000000000000006c .L0 
C:\Users\stapi\AppData\Local\Temp\cc9ZvSHH.s:864    .text.set_sta_vht_opmode:000000000000001e .L0 
C:\Users\stapi\AppData\Local\Temp\cc9ZvSHH.s:1046   .text.hostapd_get_vht_capab:00000000000000d8 .L0 
                     .debug_frame:0000000000000000 .L0 
C:\Users\stapi\AppData\Local\Temp\cc9ZvSHH.s:129    .text.hostapd_eid_vht_capabilities:00000000000000b0 .L3
C:\Users\stapi\AppData\Local\Temp\cc9ZvSHH.s:81     .text.hostapd_eid_vht_capabilities:0000000000000058 .L5
C:\Users\stapi\AppData\Local\Temp\cc9ZvSHH.s:141    .text.hostapd_eid_vht_capabilities:00000000000000ba .L7
C:\Users\stapi\AppData\Local\Temp\cc9ZvSHH.s:162    .text.hostapd_eid_vht_capabilities:00000000000000ce .L8
C:\Users\stapi\AppData\Local\Temp\cc9ZvSHH.s:156    .text.hostapd_eid_vht_capabilities:00000000000000ca .L10
C:\Users\stapi\AppData\Local\Temp\cc9ZvSHH.s:75     .text.hostapd_eid_vht_capabilities:0000000000000054 .L6
C:\Users\stapi\AppData\Local\Temp\cc9ZvSHH.s:117    .text.hostapd_eid_vht_capabilities:000000000000009c .L9
C:\Users\stapi\AppData\Local\Temp\cc9ZvSHH.s:290    .text.hostapd_eid_vht_operation:000000000000007c .L19
C:\Users\stapi\AppData\Local\Temp\cc9ZvSHH.s:310    .text.hostapd_eid_vht_operation:000000000000008a .L20
C:\Users\stapi\AppData\Local\Temp\cc9ZvSHH.s:302    .text.hostapd_eid_vht_operation:0000000000000086 .L21
C:\Users\stapi\AppData\Local\Temp\cc9ZvSHH.s:275    .text.hostapd_eid_vht_operation:000000000000006a .L25
C:\Users\stapi\AppData\Local\Temp\cc9ZvSHH.s:318    .text.hostapd_eid_vht_operation:0000000000000096 .L23
C:\Users\stapi\AppData\Local\Temp\cc9ZvSHH.s:278    .text.hostapd_eid_vht_operation:000000000000006e .L22
C:\Users\stapi\AppData\Local\Temp\cc9ZvSHH.s:331    .rodata.copy_sta_vht_capab.str1.4:0000000000000000 .LC0
C:\Users\stapi\AppData\Local\Temp\cc9ZvSHH.s:466    .text.copy_sta_vht_capab:000000000000009a .L27
C:\Users\stapi\AppData\Local\Temp\cc9ZvSHH.s:407    .text.copy_sta_vht_capab:000000000000004a .L28
C:\Users\stapi\AppData\Local\Temp\cc9ZvSHH.s:499    .text.copy_sta_vht_capab:00000000000000be .L30
C:\Users\stapi\AppData\Local\Temp\cc9ZvSHH.s:488    .text.copy_sta_vht_capab:00000000000000b4 .L34
C:\Users\stapi\AppData\Local\Temp\cc9ZvSHH.s:452    .text.copy_sta_vht_capab:0000000000000082 .L31
C:\Users\stapi\AppData\Local\Temp\cc9ZvSHH.s:386    .text.copy_sta_vht_capab:0000000000000030 .L32
C:\Users\stapi\AppData\Local\Temp\cc9ZvSHH.s:439    .text.copy_sta_vht_capab:0000000000000070 .L33
C:\Users\stapi\AppData\Local\Temp\cc9ZvSHH.s:484    .text.copy_sta_vht_capab:00000000000000b2 .L46
C:\Users\stapi\AppData\Local\Temp\cc9ZvSHH.s:565    .text.copy_sta_vht_oper:000000000000002a .L48
C:\Users\stapi\AppData\Local\Temp\cc9ZvSHH.s:580    .text.copy_sta_vht_oper:000000000000003e .L50
C:\Users\stapi\AppData\Local\Temp\cc9ZvSHH.s:551    .text.copy_sta_vht_oper:000000000000001e .L53
C:\Users\stapi\AppData\Local\Temp\cc9ZvSHH.s:572    .text.copy_sta_vht_oper:000000000000002e .L51
C:\Users\stapi\AppData\Local\Temp\cc9ZvSHH.s:555    .text.copy_sta_vht_oper:0000000000000020 .L49
C:\Users\stapi\AppData\Local\Temp\cc9ZvSHH.s:713    .text.copy_sta_vendor_vht:0000000000000080 .L55
C:\Users\stapi\AppData\Local\Temp\cc9ZvSHH.s:683    .text.copy_sta_vendor_vht:000000000000005e .L56
C:\Users\stapi\AppData\Local\Temp\cc9ZvSHH.s:703    .text.copy_sta_vendor_vht:0000000000000076 .L57
C:\Users\stapi\AppData\Local\Temp\cc9ZvSHH.s:662    .text.copy_sta_vendor_vht:0000000000000042 .L58
C:\Users\stapi\AppData\Local\Temp\cc9ZvSHH.s:677    .text.copy_sta_vendor_vht:000000000000005a .L64
C:\Users\stapi\AppData\Local\Temp\cc9ZvSHH.s:816    .text.hostapd_eid_vendor_vht:0000000000000068 .L71
C:\Users\stapi\AppData\Local\Temp\cc9ZvSHH.s:848    .text.set_sta_vht_opmode:000000000000000e .L75
C:\Users\stapi\AppData\Local\Temp\cc9ZvSHH.s:842    .text.set_sta_vht_opmode:000000000000000a .L76
C:\Users\stapi\AppData\Local\Temp\cc9ZvSHH.s:1041   .text.hostapd_get_vht_capab:00000000000000d6 .L97
C:\Users\stapi\AppData\Local\Temp\cc9ZvSHH.s:928    .text.hostapd_get_vht_capab:000000000000004e .L79
C:\Users\stapi\AppData\Local\Temp\cc9ZvSHH.s:941    .text.hostapd_get_vht_capab:000000000000005e .L80
C:\Users\stapi\AppData\Local\Temp\cc9ZvSHH.s:952    .text.hostapd_get_vht_capab:000000000000006a .L81
C:\Users\stapi\AppData\Local\Temp\cc9ZvSHH.s:963    .text.hostapd_get_vht_capab:0000000000000076 .L82
C:\Users\stapi\AppData\Local\Temp\cc9ZvSHH.s:978    .text.hostapd_get_vht_capab:000000000000008a .L83
C:\Users\stapi\AppData\Local\Temp\cc9ZvSHH.s:992    .text.hostapd_get_vht_capab:0000000000000096 .L84
C:\Users\stapi\AppData\Local\Temp\cc9ZvSHH.s:1002   .text.hostapd_get_vht_capab:00000000000000a0 .L86
C:\Users\stapi\AppData\Local\Temp\cc9ZvSHH.s:1012   .text.hostapd_get_vht_capab:00000000000000aa .L87
C:\Users\stapi\AppData\Local\Temp\cc9ZvSHH.s:1023   .text.hostapd_get_vht_capab:00000000000000b4 .L88
C:\Users\stapi\AppData\Local\Temp\cc9ZvSHH.s:16276  .debug_abbrev:0000000000000000 .Ldebug_abbrev0
C:\Users\stapi\AppData\Local\Temp\cc9ZvSHH.s:20200  .debug_str:0000000000003167 .LASF1505
C:\Users\stapi\AppData\Local\Temp\cc9ZvSHH.s:20444  .debug_str:00000000000039c7 .LASF1506
C:\Users\stapi\AppData\Local\Temp\cc9ZvSHH.s:21326  .debug_str:000000000000537b .LASF1507
C:\Users\stapi\AppData\Local\Temp\cc9ZvSHH.s:18452  .debug_ranges:0000000000000000 .Ldebug_ranges0
C:\Users\stapi\AppData\Local\Temp\cc9ZvSHH.s:18498  .debug_line:0000000000000000 .Ldebug_line0
C:\Users\stapi\AppData\Local\Temp\cc9ZvSHH.s:18928  .debug_str:0000000000000c6a .LASF1
C:\Users\stapi\AppData\Local\Temp\cc9ZvSHH.s:21518  .debug_str:00000000000059b3 .LASF0
C:\Users\stapi\AppData\Local\Temp\cc9ZvSHH.s:19714  .debug_str:00000000000022d1 .LASF2
C:\Users\stapi\AppData\Local\Temp\cc9ZvSHH.s:20862  .debug_str:00000000000045e6 .LASF3
C:\Users\stapi\AppData\Local\Temp\cc9ZvSHH.s:19082  .debug_str:00000000000010d5 .LASF4
C:\Users\stapi\AppData\Local\Temp\cc9ZvSHH.s:19986  .debug_str:0000000000002af6 .LASF5
C:\Users\stapi\AppData\Local\Temp\cc9ZvSHH.s:20472  .debug_str:0000000000003b0c .LASF6
C:\Users\stapi\AppData\Local\Temp\cc9ZvSHH.s:19434  .debug_str:0000000000001ac8 .LASF7
C:\Users\stapi\AppData\Local\Temp\cc9ZvSHH.s:19852  .debug_str:000000000000274e .LASF8
C:\Users\stapi\AppData\Local\Temp\cc9ZvSHH.s:20578  .debug_str:0000000000003dd5 .LASF9
C:\Users\stapi\AppData\Local\Temp\cc9ZvSHH.s:20574  .debug_str:0000000000003dc0 .LASF10
C:\Users\stapi\AppData\Local\Temp\cc9ZvSHH.s:20158  .debug_str:0000000000003022 .LASF11
C:\Users\stapi\AppData\Local\Temp\cc9ZvSHH.s:18536  .debug_str:0000000000000103 .LASF12
C:\Users\stapi\AppData\Local\Temp\cc9ZvSHH.s:18506  .debug_str:0000000000000040 .LASF13
C:\Users\stapi\AppData\Local\Temp\cc9ZvSHH.s:20928  .debug_str:00000000000047e1 .LASF14
C:\Users\stapi\AppData\Local\Temp\cc9ZvSHH.s:21006  .debug_str:0000000000004a13 .LASF15
C:\Users\stapi\AppData\Local\Temp\cc9ZvSHH.s:21168  .debug_str:0000000000004ecc .LASF16
C:\Users\stapi\AppData\Local\Temp\cc9ZvSHH.s:20946  .debug_str:0000000000004872 .LASF17
C:\Users\stapi\AppData\Local\Temp\cc9ZvSHH.s:19908  .debug_str:00000000000028e0 .LASF18
C:\Users\stapi\AppData\Local\Temp\cc9ZvSHH.s:20984  .debug_str:000000000000497c .LASF19
C:\Users\stapi\AppData\Local\Temp\cc9ZvSHH.s:21464  .debug_str:0000000000005813 .LASF20
C:\Users\stapi\AppData\Local\Temp\cc9ZvSHH.s:18720  .debug_str:0000000000000682 .LASF21
C:\Users\stapi\AppData\Local\Temp\cc9ZvSHH.s:19472  .debug_str:0000000000001bd7 .LASF22
C:\Users\stapi\AppData\Local\Temp\cc9ZvSHH.s:19648  .debug_str:00000000000020e3 .LASF23
C:\Users\stapi\AppData\Local\Temp\cc9ZvSHH.s:19526  .debug_str:0000000000001d44 .LASF24
C:\Users\stapi\AppData\Local\Temp\cc9ZvSHH.s:20060  .debug_str:0000000000002d28 .LASF25
C:\Users\stapi\AppData\Local\Temp\cc9ZvSHH.s:19234  .debug_str:0000000000001519 .LASF27
C:\Users\stapi\AppData\Local\Temp\cc9ZvSHH.s:18870  .debug_str:0000000000000a8f .LASF29
C:\Users\stapi\AppData\Local\Temp\cc9ZvSHH.s:19644  .debug_str:00000000000020c6 .LASF26
C:\Users\stapi\AppData\Local\Temp\cc9ZvSHH.s:19788  .debug_str:0000000000002523 .LASF28
C:\Users\stapi\AppData\Local\Temp\cc9ZvSHH.s:21130  .debug_str:0000000000004db5 .LASF30
C:\Users\stapi\AppData\Local\Temp\cc9ZvSHH.s:19400  .debug_str:00000000000019ee .LASF31
C:\Users\stapi\AppData\Local\Temp\cc9ZvSHH.s:18898  .debug_str:0000000000000b73 .LASF32
C:\Users\stapi\AppData\Local\Temp\cc9ZvSHH.s:19462  .debug_str:0000000000001b8e .LASF33
C:\Users\stapi\AppData\Local\Temp\cc9ZvSHH.s:18600  .debug_str:0000000000000310 .LASF34
C:\Users\stapi\AppData\Local\Temp\cc9ZvSHH.s:18860  .debug_str:0000000000000a3a .LASF35
C:\Users\stapi\AppData\Local\Temp\cc9ZvSHH.s:21132  .debug_str:0000000000004dba .LASF36
C:\Users\stapi\AppData\Local\Temp\cc9ZvSHH.s:21128  .debug_str:0000000000004daf .LASF37
C:\Users\stapi\AppData\Local\Temp\cc9ZvSHH.s:20450  .debug_str:0000000000003a74 .LASF38
C:\Users\stapi\AppData\Local\Temp\cc9ZvSHH.s:19966  .debug_str:0000000000002a67 .LASF39
C:\Users\stapi\AppData\Local\Temp\cc9ZvSHH.s:20066  .debug_str:0000000000002d60 .LASF40
C:\Users\stapi\AppData\Local\Temp\cc9ZvSHH.s:20024  .debug_str:0000000000002c32 .LASF41
C:\Users\stapi\AppData\Local\Temp\cc9ZvSHH.s:19484  .debug_str:0000000000001c18 .LASF42
C:\Users\stapi\AppData\Local\Temp\cc9ZvSHH.s:20710  .debug_str:0000000000004160 .LASF43
C:\Users\stapi\AppData\Local\Temp\cc9ZvSHH.s:21242  .debug_str:0000000000005104 .LASF83
C:\Users\stapi\AppData\Local\Temp\cc9ZvSHH.s:18966  .debug_str:0000000000000d72 .LASF44
C:\Users\stapi\AppData\Local\Temp\cc9ZvSHH.s:20730  .debug_str:00000000000041eb .LASF45
C:\Users\stapi\AppData\Local\Temp\cc9ZvSHH.s:19924  .debug_str:000000000000294a .LASF46
C:\Users\stapi\AppData\Local\Temp\cc9ZvSHH.s:21380  .debug_str:0000000000005580 .LASF47
C:\Users\stapi\AppData\Local\Temp\cc9ZvSHH.s:19892  .debug_str:000000000000285e .LASF48
C:\Users\stapi\AppData\Local\Temp\cc9ZvSHH.s:19838  .debug_str:00000000000026eb .LASF49
C:\Users\stapi\AppData\Local\Temp\cc9ZvSHH.s:21076  .debug_str:0000000000004c35 .LASF50
C:\Users\stapi\AppData\Local\Temp\cc9ZvSHH.s:21310  .debug_str:0000000000005315 .LASF51
C:\Users\stapi\AppData\Local\Temp\cc9ZvSHH.s:18946  .debug_str:0000000000000ce7 .LASF52
C:\Users\stapi\AppData\Local\Temp\cc9ZvSHH.s:19024  .debug_str:0000000000000f23 .LASF53
C:\Users\stapi\AppData\Local\Temp\cc9ZvSHH.s:20724  .debug_str:00000000000041bd .LASF54
C:\Users\stapi\AppData\Local\Temp\cc9ZvSHH.s:20496  .debug_str:0000000000003b9b .LASF55
C:\Users\stapi\AppData\Local\Temp\cc9ZvSHH.s:18584  .debug_str:000000000000028b .LASF56
C:\Users\stapi\AppData\Local\Temp\cc9ZvSHH.s:19770  .debug_str:00000000000024aa .LASF57
C:\Users\stapi\AppData\Local\Temp\cc9ZvSHH.s:21300  .debug_str:00000000000052b8 .LASF58
C:\Users\stapi\AppData\Local\Temp\cc9ZvSHH.s:18882  .debug_str:0000000000000ae2 .LASF59
C:\Users\stapi\AppData\Local\Temp\cc9ZvSHH.s:21216  .debug_str:0000000000005052 .LASF60
C:\Users\stapi\AppData\Local\Temp\cc9ZvSHH.s:20778  .debug_str:000000000000436c .LASF61
C:\Users\stapi\AppData\Local\Temp\cc9ZvSHH.s:19916  .debug_str:0000000000002915 .LASF62
C:\Users\stapi\AppData\Local\Temp\cc9ZvSHH.s:20856  .debug_str:00000000000045a8 .LASF63
C:\Users\stapi\AppData\Local\Temp\cc9ZvSHH.s:21164  .debug_str:0000000000004eb1 .LASF64
C:\Users\stapi\AppData\Local\Temp\cc9ZvSHH.s:19034  .debug_str:0000000000000f73 .LASF65
C:\Users\stapi\AppData\Local\Temp\cc9ZvSHH.s:20870  .debug_str:0000000000004611 .LASF66
C:\Users\stapi\AppData\Local\Temp\cc9ZvSHH.s:18762  .debug_str:0000000000000786 .LASF67
C:\Users\stapi\AppData\Local\Temp\cc9ZvSHH.s:21484  .debug_str:0000000000005898 .LASF68
C:\Users\stapi\AppData\Local\Temp\cc9ZvSHH.s:18916  .debug_str:0000000000000bfa .LASF69
C:\Users\stapi\AppData\Local\Temp\cc9ZvSHH.s:19586  .debug_str:0000000000001eed .LASF70
C:\Users\stapi\AppData\Local\Temp\cc9ZvSHH.s:19804  .debug_str:00000000000025ae .LASF71
C:\Users\stapi\AppData\Local\Temp\cc9ZvSHH.s:21414  .debug_str:0000000000005690 .LASF72
C:\Users\stapi\AppData\Local\Temp\cc9ZvSHH.s:20798  .debug_str:0000000000004402 .LASF73
C:\Users\stapi\AppData\Local\Temp\cc9ZvSHH.s:18588  .debug_str:00000000000002b3 .LASF74
C:\Users\stapi\AppData\Local\Temp\cc9ZvSHH.s:20162  .debug_str:000000000000303f .LASF75
C:\Users\stapi\AppData\Local\Temp\cc9ZvSHH.s:20494  .debug_str:0000000000003b95 .LASF76
C:\Users\stapi\AppData\Local\Temp\cc9ZvSHH.s:20138  .debug_str:0000000000002f86 .LASF77
C:\Users\stapi\AppData\Local\Temp\cc9ZvSHH.s:21494  .debug_str:00000000000058f0 .LASF78
C:\Users\stapi\AppData\Local\Temp\cc9ZvSHH.s:21296  .debug_str:0000000000005295 .LASF79
C:\Users\stapi\AppData\Local\Temp\cc9ZvSHH.s:19732  .debug_str:000000000000236a .LASF80
C:\Users\stapi\AppData\Local\Temp\cc9ZvSHH.s:18708  .debug_str:0000000000000618 .LASF81
C:\Users\stapi\AppData\Local\Temp\cc9ZvSHH.s:20160  .debug_str:000000000000302d .LASF82
C:\Users\stapi\AppData\Local\Temp\cc9ZvSHH.s:19338  .debug_str:0000000000001806 .LASF84
C:\Users\stapi\AppData\Local\Temp\cc9ZvSHH.s:20208  .debug_str:0000000000003278 .LASF85
C:\Users\stapi\AppData\Local\Temp\cc9ZvSHH.s:20210  .debug_str:0000000000003289 .LASF86
C:\Users\stapi\AppData\Local\Temp\cc9ZvSHH.s:21444  .debug_str:0000000000005782 .LASF87
C:\Users\stapi\AppData\Local\Temp\cc9ZvSHH.s:20700  .debug_str:000000000000411f .LASF88
C:\Users\stapi\AppData\Local\Temp\cc9ZvSHH.s:20114  .debug_str:0000000000002ec6 .LASF89
C:\Users\stapi\AppData\Local\Temp\cc9ZvSHH.s:20958  .debug_str:00000000000048d4 .LASF90
C:\Users\stapi\AppData\Local\Temp\cc9ZvSHH.s:19236  .debug_str:0000000000001521 .LASF91
C:\Users\stapi\AppData\Local\Temp\cc9ZvSHH.s:20580  .debug_str:0000000000003ddf .LASF92
C:\Users\stapi\AppData\Local\Temp\cc9ZvSHH.s:18864  .debug_str:0000000000000a62 .LASF93
C:\Users\stapi\AppData\Local\Temp\cc9ZvSHH.s:19310  .debug_str:0000000000001737 .LASF94
C:\Users\stapi\AppData\Local\Temp\cc9ZvSHH.s:18702  .debug_str:00000000000005e4 .LASF95
C:\Users\stapi\AppData\Local\Temp\cc9ZvSHH.s:21114  .debug_str:0000000000004d45 .LASF96
C:\Users\stapi\AppData\Local\Temp\cc9ZvSHH.s:20790  .debug_str:00000000000043c5 .LASF97
C:\Users\stapi\AppData\Local\Temp\cc9ZvSHH.s:20908  .debug_str:000000000000472d .LASF98
C:\Users\stapi\AppData\Local\Temp\cc9ZvSHH.s:19638  .debug_str:000000000000208e .LASF99
C:\Users\stapi\AppData\Local\Temp\cc9ZvSHH.s:21016  .debug_str:0000000000004a5e .LASF100
C:\Users\stapi\AppData\Local\Temp\cc9ZvSHH.s:20566  .debug_str:0000000000003d94 .LASF101
C:\Users\stapi\AppData\Local\Temp\cc9ZvSHH.s:18546  .debug_str:0000000000000161 .LASF102
C:\Users\stapi\AppData\Local\Temp\cc9ZvSHH.s:20128  .debug_str:0000000000002f33 .LASF103
C:\Users\stapi\AppData\Local\Temp\cc9ZvSHH.s:18886  .debug_str:0000000000000af8 .LASF104
C:\Users\stapi\AppData\Local\Temp\cc9ZvSHH.s:19232  .debug_str:0000000000001509 .LASF105
C:\Users\stapi\AppData\Local\Temp\cc9ZvSHH.s:20218  .debug_str:00000000000032ea .LASF106
C:\Users\stapi\AppData\Local\Temp\cc9ZvSHH.s:20220  .debug_str:0000000000003302 .LASF107
C:\Users\stapi\AppData\Local\Temp\cc9ZvSHH.s:20216  .debug_str:00000000000032d2 .LASF108
C:\Users\stapi\AppData\Local\Temp\cc9ZvSHH.s:20256  .debug_str:000000000000341b .LASF109
C:\Users\stapi\AppData\Local\Temp\cc9ZvSHH.s:18700  .debug_str:00000000000005ca .LASF110
C:\Users\stapi\AppData\Local\Temp\cc9ZvSHH.s:20760  .debug_str:00000000000042f2 .LASF111
C:\Users\stapi\AppData\Local\Temp\cc9ZvSHH.s:18992  .debug_str:0000000000000e34 .LASF112
C:\Users\stapi\AppData\Local\Temp\cc9ZvSHH.s:19964  .debug_str:0000000000002a56 .LASF113
C:\Users\stapi\AppData\Local\Temp\cc9ZvSHH.s:21370  .debug_str:0000000000005537 .LASF114
C:\Users\stapi\AppData\Local\Temp\cc9ZvSHH.s:21284  .debug_str:0000000000005249 .LASF115
C:\Users\stapi\AppData\Local\Temp\cc9ZvSHH.s:21394  .debug_str:00000000000055e1 .LASF116
C:\Users\stapi\AppData\Local\Temp\cc9ZvSHH.s:19006  .debug_str:0000000000000e98 .LASF117
C:\Users\stapi\AppData\Local\Temp\cc9ZvSHH.s:20888  .debug_str:000000000000468d .LASF118
C:\Users\stapi\AppData\Local\Temp\cc9ZvSHH.s:19672  .debug_str:0000000000002195 .LASF119
C:\Users\stapi\AppData\Local\Temp\cc9ZvSHH.s:20846  .debug_str:0000000000004555 .LASF120
C:\Users\stapi\AppData\Local\Temp\cc9ZvSHH.s:19668  .debug_str:000000000000216f .LASF121
C:\Users\stapi\AppData\Local\Temp\cc9ZvSHH.s:20354  .debug_str:0000000000003741 .LASF122
C:\Users\stapi\AppData\Local\Temp\cc9ZvSHH.s:19692  .debug_str:0000000000002233 .LASF123
C:\Users\stapi\AppData\Local\Temp\cc9ZvSHH.s:19360  .debug_str:00000000000018aa .LASF124
C:\Users\stapi\AppData\Local\Temp\cc9ZvSHH.s:19416  .debug_str:0000000000001a55 .LASF125
C:\Users\stapi\AppData\Local\Temp\cc9ZvSHH.s:19528  .debug_str:0000000000001d4a .LASF126
C:\Users\stapi\AppData\Local\Temp\cc9ZvSHH.s:19378  .debug_str:0000000000001949 .LASF127
C:\Users\stapi\AppData\Local\Temp\cc9ZvSHH.s:18914  .debug_str:0000000000000beb .LASF128
C:\Users\stapi\AppData\Local\Temp\cc9ZvSHH.s:18838  .debug_str:0000000000000989 .LASF129
C:\Users\stapi\AppData\Local\Temp\cc9ZvSHH.s:20352  .debug_str:0000000000003731 .LASF130
C:\Users\stapi\AppData\Local\Temp\cc9ZvSHH.s:20440  .debug_str:00000000000039aa .LASF131
C:\Users\stapi\AppData\Local\Temp\cc9ZvSHH.s:18956  .debug_str:0000000000000d2f .LASF132
C:\Users\stapi\AppData\Local\Temp\cc9ZvSHH.s:20922  .debug_str:00000000000047b7 .LASF133
C:\Users\stapi\AppData\Local\Temp\cc9ZvSHH.s:19498  .debug_str:0000000000001c6f .LASF134
C:\Users\stapi\AppData\Local\Temp\cc9ZvSHH.s:21170  .debug_str:0000000000004ed1 .LASF135
C:\Users\stapi\AppData\Local\Temp\cc9ZvSHH.s:18818  .debug_str:0000000000000910 .LASF136
C:\Users\stapi\AppData\Local\Temp\cc9ZvSHH.s:19518  .debug_str:0000000000001d0d .LASF137
C:\Users\stapi\AppData\Local\Temp\cc9ZvSHH.s:19574  .debug_str:0000000000001ea1 .LASF138
C:\Users\stapi\AppData\Local\Temp\cc9ZvSHH.s:18824  .debug_str:000000000000093b .LASF139
C:\Users\stapi\AppData\Local\Temp\cc9ZvSHH.s:21398  .debug_str:0000000000005607 .LASF140
C:\Users\stapi\AppData\Local\Temp\cc9ZvSHH.s:19878  .debug_str:0000000000002809 .LASF141
C:\Users\stapi\AppData\Local\Temp\cc9ZvSHH.s:21156  .debug_str:0000000000004e7b .LASF142
C:\Users\stapi\AppData\Local\Temp\cc9ZvSHH.s:19242  .debug_str:0000000000001555 .LASF143
C:\Users\stapi\AppData\Local\Temp\cc9ZvSHH.s:21246  .debug_str:0000000000005126 .LASF144
C:\Users\stapi\AppData\Local\Temp\cc9ZvSHH.s:19656  .debug_str:0000000000002115 .LASF145
C:\Users\stapi\AppData\Local\Temp\cc9ZvSHH.s:20252  .debug_str:00000000000033e7 .LASF146
C:\Users\stapi\AppData\Local\Temp\cc9ZvSHH.s:19728  .debug_str:0000000000002342 .LASF147
C:\Users\stapi\AppData\Local\Temp\cc9ZvSHH.s:21142  .debug_str:0000000000004e03 .LASF148
C:\Users\stapi\AppData\Local\Temp\cc9ZvSHH.s:20296  .debug_str:000000000000355f .LASF149
C:\Users\stapi\AppData\Local\Temp\cc9ZvSHH.s:18716  .debug_str:0000000000000660 .LASF150
C:\Users\stapi\AppData\Local\Temp\cc9ZvSHH.s:19866  .debug_str:00000000000027a9 .LASF151
C:\Users\stapi\AppData\Local\Temp\cc9ZvSHH.s:21492  .debug_str:00000000000058de .LASF152
C:\Users\stapi\AppData\Local\Temp\cc9ZvSHH.s:20104  .debug_str:0000000000002e60 .LASF153
C:\Users\stapi\AppData\Local\Temp\cc9ZvSHH.s:19744  .debug_str:00000000000023c7 .LASF154
C:\Users\stapi\AppData\Local\Temp\cc9ZvSHH.s:20892  .debug_str:00000000000046b7 .LASF155
C:\Users\stapi\AppData\Local\Temp\cc9ZvSHH.s:19670  .debug_str:000000000000217e .LASF156
C:\Users\stapi\AppData\Local\Temp\cc9ZvSHH.s:20966  .debug_str:0000000000004901 .LASF157
C:\Users\stapi\AppData\Local\Temp\cc9ZvSHH.s:19494  .debug_str:0000000000001c5a .LASF158
C:\Users\stapi\AppData\Local\Temp\cc9ZvSHH.s:20698  .debug_str:000000000000411a .LASF159
C:\Users\stapi\AppData\Local\Temp\cc9ZvSHH.s:20448  .debug_str:0000000000003a6c .LASF160
C:\Users\stapi\AppData\Local\Temp\cc9ZvSHH.s:19500  .debug_str:0000000000001c78 .LASF161
C:\Users\stapi\AppData\Local\Temp\cc9ZvSHH.s:19642  .debug_str:00000000000020b0 .LASF162
C:\Users\stapi\AppData\Local\Temp\cc9ZvSHH.s:21230  .debug_str:00000000000050ac .LASF163
C:\Users\stapi\AppData\Local\Temp\cc9ZvSHH.s:21022  .debug_str:0000000000004a95 .LASF164
C:\Users\stapi\AppData\Local\Temp\cc9ZvSHH.s:18594  .debug_str:00000000000002ea .LASF165
C:\Users\stapi\AppData\Local\Temp\cc9ZvSHH.s:21086  .debug_str:0000000000004c7b .LASF166
C:\Users\stapi\AppData\Local\Temp\cc9ZvSHH.s:19384  .debug_str:0000000000001972 .LASF167
C:\Users\stapi\AppData\Local\Temp\cc9ZvSHH.s:19316  .debug_str:0000000000001756 .LASF168
C:\Users\stapi\AppData\Local\Temp\cc9ZvSHH.s:18910  .debug_str:0000000000000bd7 .LASF169
C:\Users\stapi\AppData\Local\Temp\cc9ZvSHH.s:21522  .debug_str:00000000000059d3 .LASF170
C:\Users\stapi\AppData\Local\Temp\cc9ZvSHH.s:20464  .debug_str:0000000000003adc .LASF171
C:\Users\stapi\AppData\Local\Temp\cc9ZvSHH.s:19654  .debug_str:0000000000002104 .LASF172
C:\Users\stapi\AppData\Local\Temp\cc9ZvSHH.s:20684  .debug_str:00000000000040b4 .LASF173
C:\Users\stapi\AppData\Local\Temp\cc9ZvSHH.s:18740  .debug_str:0000000000000716 .LASF174
C:\Users\stapi\AppData\Local\Temp\cc9ZvSHH.s:18742  .debug_str:000000000000071d .LASF175
C:\Users\stapi\AppData\Local\Temp\cc9ZvSHH.s:18854  .debug_str:0000000000000a21 .LASF176
C:\Users\stapi\AppData\Local\Temp\cc9ZvSHH.s:18744  .debug_str:0000000000000724 .LASF177
C:\Users\stapi\AppData\Local\Temp\cc9ZvSHH.s:18746  .debug_str:000000000000072b .LASF178
C:\Users\stapi\AppData\Local\Temp\cc9ZvSHH.s:18748  .debug_str:0000000000000732 .LASF179
C:\Users\stapi\AppData\Local\Temp\cc9ZvSHH.s:18750  .debug_str:0000000000000739 .LASF180
C:\Users\stapi\AppData\Local\Temp\cc9ZvSHH.s:18752  .debug_str:0000000000000740 .LASF181
C:\Users\stapi\AppData\Local\Temp\cc9ZvSHH.s:18754  .debug_str:0000000000000747 .LASF182
C:\Users\stapi\AppData\Local\Temp\cc9ZvSHH.s:19932  .debug_str:0000000000002980 .LASF183
C:\Users\stapi\AppData\Local\Temp\cc9ZvSHH.s:19576  .debug_str:0000000000001ead .LASF184
C:\Users\stapi\AppData\Local\Temp\cc9ZvSHH.s:21332  .debug_str:0000000000005429 .LASF185
C:\Users\stapi\AppData\Local\Temp\cc9ZvSHH.s:18802  .debug_str:00000000000008b6 .LASF186
C:\Users\stapi\AppData\Local\Temp\cc9ZvSHH.s:20336  .debug_str:00000000000036b0 .LASF187
C:\Users\stapi\AppData\Local\Temp\cc9ZvSHH.s:19064  .debug_str:0000000000001056 .LASF188
C:\Users\stapi\AppData\Local\Temp\cc9ZvSHH.s:21104  .debug_str:0000000000004ce9 .LASF189
C:\Users\stapi\AppData\Local\Temp\cc9ZvSHH.s:19876  .debug_str:0000000000002804 .LASF190
C:\Users\stapi\AppData\Local\Temp\cc9ZvSHH.s:18822  .debug_str:0000000000000932 .LASF191
C:\Users\stapi\AppData\Local\Temp\cc9ZvSHH.s:19324  .debug_str:00000000000017ae .LASF192
C:\Users\stapi\AppData\Local\Temp\cc9ZvSHH.s:20152  .debug_str:0000000000002ffe .LASF193
C:\Users\stapi\AppData\Local\Temp\cc9ZvSHH.s:20228  .debug_str:000000000000333a .LASF194
C:\Users\stapi\AppData\Local\Temp\cc9ZvSHH.s:19164  .debug_str:0000000000001330 .LASF195
C:\Users\stapi\AppData\Local\Temp\cc9ZvSHH.s:19694  .debug_str:0000000000002246 .LASF196
C:\Users\stapi\AppData\Local\Temp\cc9ZvSHH.s:21356  .debug_str:00000000000054cf .LASF197
C:\Users\stapi\AppData\Local\Temp\cc9ZvSHH.s:20312  .debug_str:00000000000035f5 .LASF198
C:\Users\stapi\AppData\Local\Temp\cc9ZvSHH.s:18686  .debug_str:0000000000000586 .LASF199
C:\Users\stapi\AppData\Local\Temp\cc9ZvSHH.s:18812  .debug_str:00000000000008f1 .LASF200
C:\Users\stapi\AppData\Local\Temp\cc9ZvSHH.s:18948  .debug_str:0000000000000d01 .LASF201
C:\Users\stapi\AppData\Local\Temp\cc9ZvSHH.s:19086  .debug_str:00000000000010e8 .LASF202
C:\Users\stapi\AppData\Local\Temp\cc9ZvSHH.s:21392  .debug_str:00000000000055d4 .LASF203
C:\Users\stapi\AppData\Local\Temp\cc9ZvSHH.s:18624  .debug_str:00000000000003b7 .LASF204
C:\Users\stapi\AppData\Local\Temp\cc9ZvSHH.s:21008  .debug_str:0000000000004a2a .LASF205
C:\Users\stapi\AppData\Local\Temp\cc9ZvSHH.s:21382  .debug_str:0000000000005595 .LASF206
C:\Users\stapi\AppData\Local\Temp\cc9ZvSHH.s:19550  .debug_str:0000000000001df1 .LASF207
C:\Users\stapi\AppData\Local\Temp\cc9ZvSHH.s:19430  .debug_str:0000000000001ab1 .LASF208
C:\Users\stapi\AppData\Local\Temp\cc9ZvSHH.s:18616  .debug_str:0000000000000383 .LASF209
C:\Users\stapi\AppData\Local\Temp\cc9ZvSHH.s:21438  .debug_str:0000000000005751 .LASF210
C:\Users\stapi\AppData\Local\Temp\cc9ZvSHH.s:19162  .debug_str:0000000000001322 .LASF211
C:\Users\stapi\AppData\Local\Temp\cc9ZvSHH.s:21286  .debug_str:0000000000005258 .LASF212
C:\Users\stapi\AppData\Local\Temp\cc9ZvSHH.s:18520  .debug_str:000000000000009a .LASF213
C:\Users\stapi\AppData\Local\Temp\cc9ZvSHH.s:19358  .debug_str:000000000000189d .LASF214
C:\Users\stapi\AppData\Local\Temp\cc9ZvSHH.s:19016  .debug_str:0000000000000eed .LASF215
C:\Users\stapi\AppData\Local\Temp\cc9ZvSHH.s:19560  .debug_str:0000000000001e3e .LASF216
C:\Users\stapi\AppData\Local\Temp\cc9ZvSHH.s:20836  .debug_str:00000000000044fe .LASF217
C:\Users\stapi\AppData\Local\Temp\cc9ZvSHH.s:18500  .debug_str:0000000000000000 .LASF218
C:\Users\stapi\AppData\Local\Temp\cc9ZvSHH.s:21462  .debug_str:000000000000580c .LASF219
C:\Users\stapi\AppData\Local\Temp\cc9ZvSHH.s:18554  .debug_str:00000000000001a3 .LASF220
C:\Users\stapi\AppData\Local\Temp\cc9ZvSHH.s:21254  .debug_str:0000000000005176 .LASF221
C:\Users\stapi\AppData\Local\Temp\cc9ZvSHH.s:19520  .debug_str:0000000000001d19 .LASF222
C:\Users\stapi\AppData\Local\Temp\cc9ZvSHH.s:19824  .debug_str:0000000000002667 .LASF223
C:\Users\stapi\AppData\Local\Temp\cc9ZvSHH.s:18960  .debug_str:0000000000000d54 .LASF224
C:\Users\stapi\AppData\Local\Temp\cc9ZvSHH.s:20164  .debug_str:000000000000305a .LASF225
C:\Users\stapi\AppData\Local\Temp\cc9ZvSHH.s:19216  .debug_str:00000000000014a9 .LASF226
C:\Users\stapi\AppData\Local\Temp\cc9ZvSHH.s:21412  .debug_str:0000000000005683 .LASF227
C:\Users\stapi\AppData\Local\Temp\cc9ZvSHH.s:20672  .debug_str:0000000000004063 .LASF228
C:\Users\stapi\AppData\Local\Temp\cc9ZvSHH.s:19182  .debug_str:0000000000001397 .LASF229
C:\Users\stapi\AppData\Local\Temp\cc9ZvSHH.s:21056  .debug_str:0000000000004ba2 .LASF230
C:\Users\stapi\AppData\Local\Temp\cc9ZvSHH.s:21410  .debug_str:0000000000005677 .LASF231
C:\Users\stapi\AppData\Local\Temp\cc9ZvSHH.s:21224  .debug_str:000000000000507e .LASF232
C:\Users\stapi\AppData\Local\Temp\cc9ZvSHH.s:20318  .debug_str:000000000000361c .LASF233
C:\Users\stapi\AppData\Local\Temp\cc9ZvSHH.s:20774  .debug_str:0000000000004356 .LASF234
C:\Users\stapi\AppData\Local\Temp\cc9ZvSHH.s:20664  .debug_str:0000000000004031 .LASF235
C:\Users\stapi\AppData\Local\Temp\cc9ZvSHH.s:20522  .debug_str:0000000000003c42 .LASF236
C:\Users\stapi\AppData\Local\Temp\cc9ZvSHH.s:19516  .debug_str:0000000000001d05 .LASF237
C:\Users\stapi\AppData\Local\Temp\cc9ZvSHH.s:19218  .debug_str:00000000000014b6 .LASF238
C:\Users\stapi\AppData\Local\Temp\cc9ZvSHH.s:19616  .debug_str:0000000000001ff6 .LASF239
C:\Users\stapi\AppData\Local\Temp\cc9ZvSHH.s:20706  .debug_str:0000000000004145 .LASF240
C:\Users\stapi\AppData\Local\Temp\cc9ZvSHH.s:21188  .debug_str:0000000000004f5e .LASF241
C:\Users\stapi\AppData\Local\Temp\cc9ZvSHH.s:20488  .debug_str:0000000000003b6d .LASF242
C:\Users\stapi\AppData\Local\Temp\cc9ZvSHH.s:18944  .debug_str:0000000000000cd6 .LASF243
C:\Users\stapi\AppData\Local\Temp\cc9ZvSHH.s:19894  .debug_str:0000000000002874 .LASF244
C:\Users\stapi\AppData\Local\Temp\cc9ZvSHH.s:19606  .debug_str:0000000000001f97 .LASF245
C:\Users\stapi\AppData\Local\Temp\cc9ZvSHH.s:21010  .debug_str:0000000000004a37 .LASF246
C:\Users\stapi\AppData\Local\Temp\cc9ZvSHH.s:20492  .debug_str:0000000000003b86 .LASF247
C:\Users\stapi\AppData\Local\Temp\cc9ZvSHH.s:20080  .debug_str:0000000000002dda .LASF248
C:\Users\stapi\AppData\Local\Temp\cc9ZvSHH.s:19342  .debug_str:0000000000001829 .LASF249
C:\Users\stapi\AppData\Local\Temp\cc9ZvSHH.s:19542  .debug_str:0000000000001d9c .LASF250
C:\Users\stapi\AppData\Local\Temp\cc9ZvSHH.s:19326  .debug_str:00000000000017b8 .LASF251
C:\Users\stapi\AppData\Local\Temp\cc9ZvSHH.s:20016  .debug_str:0000000000002be6 .LASF252
C:\Users\stapi\AppData\Local\Temp\cc9ZvSHH.s:20852  .debug_str:0000000000004584 .LASF253
C:\Users\stapi\AppData\Local\Temp\cc9ZvSHH.s:21520  .debug_str:00000000000059c0 .LASF254
C:\Users\stapi\AppData\Local\Temp\cc9ZvSHH.s:20360  .debug_str:0000000000003760 .LASF255
C:\Users\stapi\AppData\Local\Temp\cc9ZvSHH.s:19128  .debug_str:0000000000001213 .LASF256
C:\Users\stapi\AppData\Local\Temp\cc9ZvSHH.s:18534  .debug_str:00000000000000f2 .LASF257
C:\Users\stapi\AppData\Local\Temp\cc9ZvSHH.s:20246  .debug_str:00000000000033b4 .LASF258
C:\Users\stapi\AppData\Local\Temp\cc9ZvSHH.s:21454  .debug_str:00000000000057d0 .LASF259
C:\Users\stapi\AppData\Local\Temp\cc9ZvSHH.s:20254  .debug_str:0000000000003401 .LASF260
C:\Users\stapi\AppData\Local\Temp\cc9ZvSHH.s:18578  .debug_str:0000000000000257 .LASF261
C:\Users\stapi\AppData\Local\Temp\cc9ZvSHH.s:19548  .debug_str:0000000000001dd0 .LASF262
C:\Users\stapi\AppData\Local\Temp\cc9ZvSHH.s:20364  .debug_str:0000000000003785 .LASF263
C:\Users\stapi\AppData\Local\Temp\cc9ZvSHH.s:18566  .debug_str:00000000000001fd .LASF264
C:\Users\stapi\AppData\Local\Temp\cc9ZvSHH.s:20636  .debug_str:0000000000003f80 .LASF265
C:\Users\stapi\AppData\Local\Temp\cc9ZvSHH.s:20004  .debug_str:0000000000002b74 .LASF266
C:\Users\stapi\AppData\Local\Temp\cc9ZvSHH.s:20020  .debug_str:0000000000002c0c .LASF267
C:\Users\stapi\AppData\Local\Temp\cc9ZvSHH.s:18582  .debug_str:0000000000000279 .LASF268
C:\Users\stapi\AppData\Local\Temp\cc9ZvSHH.s:19328  .debug_str:00000000000017c7 .LASF269
C:\Users\stapi\AppData\Local\Temp\cc9ZvSHH.s:18828  .debug_str:0000000000000959 .LASF270
C:\Users\stapi\AppData\Local\Temp\cc9ZvSHH.s:21346  .debug_str:0000000000005496 .LASF271
C:\Users\stapi\AppData\Local\Temp\cc9ZvSHH.s:21178  .debug_str:0000000000004f0d .LASF272
C:\Users\stapi\AppData\Local\Temp\cc9ZvSHH.s:20930  .debug_str:00000000000047ec .LASF273
C:\Users\stapi\AppData\Local\Temp\cc9ZvSHH.s:19120  .debug_str:00000000000011dc .LASF274
C:\Users\stapi\AppData\Local\Temp\cc9ZvSHH.s:18628  .debug_str:00000000000003db .LASF275
C:\Users\stapi\AppData\Local\Temp\cc9ZvSHH.s:18974  .debug_str:0000000000000dad .LASF276
C:\Users\stapi\AppData\Local\Temp\cc9ZvSHH.s:20910  .debug_str:0000000000004742 .LASF277
C:\Users\stapi\AppData\Local\Temp\cc9ZvSHH.s:20552  .debug_str:0000000000003d23 .LASF278
C:\Users\stapi\AppData\Local\Temp\cc9ZvSHH.s:20100  .debug_str:0000000000002e4f .LASF279
C:\Users\stapi\AppData\Local\Temp\cc9ZvSHH.s:20084  .debug_str:0000000000002df6 .LASF280
C:\Users\stapi\AppData\Local\Temp\cc9ZvSHH.s:18874  .debug_str:0000000000000aa3 .LASF281
C:\Users\stapi\AppData\Local\Temp\cc9ZvSHH.s:21048  .debug_str:0000000000004b5b .LASF282
C:\Users\stapi\AppData\Local\Temp\cc9ZvSHH.s:21436  .debug_str:0000000000005745 .LASF283
C:\Users\stapi\AppData\Local\Temp\cc9ZvSHH.s:20056  .debug_str:0000000000002d14 .LASF284
C:\Users\stapi\AppData\Local\Temp\cc9ZvSHH.s:19870  .debug_str:00000000000027d0 .LASF285
C:\Users\stapi\AppData\Local\Temp\cc9ZvSHH.s:19684  .debug_str:0000000000002203 .LASF286
C:\Users\stapi\AppData\Local\Temp\cc9ZvSHH.s:20350  .debug_str:0000000000003718 .LASF287
C:\Users\stapi\AppData\Local\Temp\cc9ZvSHH.s:20282  .debug_str:00000000000034f2 .LASF288
C:\Users\stapi\AppData\Local\Temp\cc9ZvSHH.s:18880  .debug_str:0000000000000ac8 .LASF289
C:\Users\stapi\AppData\Local\Temp\cc9ZvSHH.s:18894  .debug_str:0000000000000b43 .LASF290
C:\Users\stapi\AppData\Local\Temp\cc9ZvSHH.s:20980  .debug_str:000000000000495e .LASF291
C:\Users\stapi\AppData\Local\Temp\cc9ZvSHH.s:21386  .debug_str:00000000000055ab .LASF292
C:\Users\stapi\AppData\Local\Temp\cc9ZvSHH.s:20624  .debug_str:0000000000003f2a .LASF293
C:\Users\stapi\AppData\Local\Temp\cc9ZvSHH.s:21082  .debug_str:0000000000004c59 .LASF1508
C:\Users\stapi\AppData\Local\Temp\cc9ZvSHH.s:19286  .debug_str:00000000000016a9 .LASF294
C:\Users\stapi\AppData\Local\Temp\cc9ZvSHH.s:19390  .debug_str:00000000000019a1 .LASF295
C:\Users\stapi\AppData\Local\Temp\cc9ZvSHH.s:19624  .debug_str:0000000000002033 .LASF296
C:\Users\stapi\AppData\Local\Temp\cc9ZvSHH.s:19280  .debug_str:000000000000167a .LASF297
C:\Users\stapi\AppData\Local\Temp\cc9ZvSHH.s:19698  .debug_str:0000000000002258 .LASF298
C:\Users\stapi\AppData\Local\Temp\cc9ZvSHH.s:19312  .debug_str:0000000000001744 .LASF299
C:\Users\stapi\AppData\Local\Temp\cc9ZvSHH.s:20090  .debug_str:0000000000002e1a .LASF300
C:\Users\stapi\AppData\Local\Temp\cc9ZvSHH.s:21490  .debug_str:00000000000058d0 .LASF301
C:\Users\stapi\AppData\Local\Temp\cc9ZvSHH.s:19050  .debug_str:0000000000000fec .LASF302
C:\Users\stapi\AppData\Local\Temp\cc9ZvSHH.s:19934  .debug_str:000000000000298c .LASF303
C:\Users\stapi\AppData\Local\Temp\cc9ZvSHH.s:18608  .debug_str:0000000000000352 .LASF304
C:\Users\stapi\AppData\Local\Temp\cc9ZvSHH.s:18674  .debug_str:000000000000052b .LASF305
C:\Users\stapi\AppData\Local\Temp\cc9ZvSHH.s:20606  .debug_str:0000000000003eb1 .LASF306
C:\Users\stapi\AppData\Local\Temp\cc9ZvSHH.s:19582  .debug_str:0000000000001ed7 .LASF307
C:\Users\stapi\AppData\Local\Temp\cc9ZvSHH.s:19882  .debug_str:0000000000002821 .LASF308
C:\Users\stapi\AppData\Local\Temp\cc9ZvSHH.s:19192  .debug_str:00000000000013d8 .LASF309
C:\Users\stapi\AppData\Local\Temp\cc9ZvSHH.s:20002  .debug_str:0000000000002b6c .LASF310
C:\Users\stapi\AppData\Local\Temp\cc9ZvSHH.s:21062  .debug_str:0000000000004bcb .LASF311
C:\Users\stapi\AppData\Local\Temp\cc9ZvSHH.s:19868  .debug_str:00000000000027bd .LASF312
C:\Users\stapi\AppData\Local\Temp\cc9ZvSHH.s:18780  .debug_str:00000000000007f9 .LASF313
C:\Users\stapi\AppData\Local\Temp\cc9ZvSHH.s:19796  .debug_str:0000000000002564 .LASF314
C:\Users\stapi\AppData\Local\Temp\cc9ZvSHH.s:18728  .debug_str:00000000000006b4 .LASF315
C:\Users\stapi\AppData\Local\Temp\cc9ZvSHH.s:18620  .debug_str:0000000000000397 .LASF316
C:\Users\stapi\AppData\Local\Temp\cc9ZvSHH.s:18516  .debug_str:0000000000000084 .LASF317
C:\Users\stapi\AppData\Local\Temp\cc9ZvSHH.s:21506  .debug_str:0000000000005955 .LASF318
C:\Users\stapi\AppData\Local\Temp\cc9ZvSHH.s:21256  .debug_str:0000000000005180 .LASF319
C:\Users\stapi\AppData\Local\Temp\cc9ZvSHH.s:21384  .debug_str:00000000000055a2 .LASF320
C:\Users\stapi\AppData\Local\Temp\cc9ZvSHH.s:19382  .debug_str:0000000000001968 .LASF321
C:\Users\stapi\AppData\Local\Temp\cc9ZvSHH.s:19546  .debug_str:0000000000001dbd .LASF322
C:\Users\stapi\AppData\Local\Temp\cc9ZvSHH.s:21378  .debug_str:0000000000005574 .LASF323
C:\Users\stapi\AppData\Local\Temp\cc9ZvSHH.s:20638  .debug_str:0000000000003f91 .LASF324
C:\Users\stapi\AppData\Local\Temp\cc9ZvSHH.s:20784  .debug_str:000000000000438d .LASF325
C:\Users\stapi\AppData\Local\Temp\cc9ZvSHH.s:20816  .debug_str:0000000000004490 .LASF326
C:\Users\stapi\AppData\Local\Temp\cc9ZvSHH.s:18586  .debug_str:00000000000002a4 .LASF327
C:\Users\stapi\AppData\Local\Temp\cc9ZvSHH.s:18556  .debug_str:00000000000001ae .LASF328
C:\Users\stapi\AppData\Local\Temp\cc9ZvSHH.s:19302  .debug_str:0000000000001702 .LASF329
C:\Users\stapi\AppData\Local\Temp\cc9ZvSHH.s:20342  .debug_str:00000000000036de .LASF330
C:\Users\stapi\AppData\Local\Temp\cc9ZvSHH.s:20512  .debug_str:0000000000003c06 .LASF331
C:\Users\stapi\AppData\Local\Temp\cc9ZvSHH.s:20584  .debug_str:0000000000003e07 .LASF332
C:\Users\stapi\AppData\Local\Temp\cc9ZvSHH.s:18856  .debug_str:0000000000000a29 .LASF333
C:\Users\stapi\AppData\Local\Temp\cc9ZvSHH.s:20824  .debug_str:00000000000044b9 .LASF334
C:\Users\stapi\AppData\Local\Temp\cc9ZvSHH.s:21222  .debug_str:0000000000005071 .LASF335
C:\Users\stapi\AppData\Local\Temp\cc9ZvSHH.s:20484  .debug_str:0000000000003b53 .LASF336
C:\Users\stapi\AppData\Local\Temp\cc9ZvSHH.s:18988  .debug_str:0000000000000e23 .LASF337
C:\Users\stapi\AppData\Local\Temp\cc9ZvSHH.s:19226  .debug_str:00000000000014e1 .LASF338
C:\Users\stapi\AppData\Local\Temp\cc9ZvSHH.s:19750  .debug_str:00000000000023fd .LASF339
C:\Users\stapi\AppData\Local\Temp\cc9ZvSHH.s:21066  .debug_str:0000000000004bf1 .LASF340
C:\Users\stapi\AppData\Local\Temp\cc9ZvSHH.s:20046  .debug_str:0000000000002cd7 .LASF341
C:\Users\stapi\AppData\Local\Temp\cc9ZvSHH.s:20154  .debug_str:0000000000003008 .LASF342
C:\Users\stapi\AppData\Local\Temp\cc9ZvSHH.s:18590  .debug_str:00000000000002bc .LASF343
C:\Users\stapi\AppData\Local\Temp\cc9ZvSHH.s:19842  .debug_str:0000000000002700 .LASF344
C:\Users\stapi\AppData\Local\Temp\cc9ZvSHH.s:21020  .debug_str:0000000000004a8a .LASF345
C:\Users\stapi\AppData\Local\Temp\cc9ZvSHH.s:20968  .debug_str:0000000000004909 .LASF346
C:\Users\stapi\AppData\Local\Temp\cc9ZvSHH.s:18832  .debug_str:0000000000000970 .LASF347
C:\Users\stapi\AppData\Local\Temp\cc9ZvSHH.s:19794  .debug_str:0000000000002553 .LASF348
C:\Users\stapi\AppData\Local\Temp\cc9ZvSHH.s:20010  .debug_str:0000000000002bb4 .LASF349
C:\Users\stapi\AppData\Local\Temp\cc9ZvSHH.s:19420  .debug_str:0000000000001a79 .LASF350
C:\Users\stapi\AppData\Local\Temp\cc9ZvSHH.s:19686  .debug_str:0000000000002208 .LASF351
C:\Users\stapi\AppData\Local\Temp\cc9ZvSHH.s:18688  .debug_str:0000000000000596 .LASF352
C:\Users\stapi\AppData\Local\Temp\cc9ZvSHH.s:19138  .debug_str:000000000000125c .LASF353
C:\Users\stapi\AppData\Local\Temp\cc9ZvSHH.s:20386  .debug_str:000000000000382f .LASF354
C:\Users\stapi\AppData\Local\Temp\cc9ZvSHH.s:18636  .debug_str:0000000000000415 .LASF355
C:\Users\stapi\AppData\Local\Temp\cc9ZvSHH.s:20874  .debug_str:0000000000004633 .LASF356
C:\Users\stapi\AppData\Local\Temp\cc9ZvSHH.s:20680  .debug_str:0000000000004096 .LASF357
C:\Users\stapi\AppData\Local\Temp\cc9ZvSHH.s:20074  .debug_str:0000000000002dab .LASF358
C:\Users\stapi\AppData\Local\Temp\cc9ZvSHH.s:21524  .debug_str:00000000000059e0 .LASF359
C:\Users\stapi\AppData\Local\Temp\cc9ZvSHH.s:21000  .debug_str:00000000000049e4 .LASF360
C:\Users\stapi\AppData\Local\Temp\cc9ZvSHH.s:19540  .debug_str:0000000000001d95 .LASF361
C:\Users\stapi\AppData\Local\Temp\cc9ZvSHH.s:18640  .debug_str:0000000000000430 .LASF362
C:\Users\stapi\AppData\Local\Temp\cc9ZvSHH.s:19888  .debug_str:0000000000002846 .LASF363
C:\Users\stapi\AppData\Local\Temp\cc9ZvSHH.s:18952  .debug_str:0000000000000d13 .LASF364
C:\Users\stapi\AppData\Local\Temp\cc9ZvSHH.s:19340  .debug_str:0000000000001815 .LASF365
C:\Users\stapi\AppData\Local\Temp\cc9ZvSHH.s:20920  .debug_str:000000000000479c .LASF366
C:\Users\stapi\AppData\Local\Temp\cc9ZvSHH.s:19704  .debug_str:0000000000002288 .LASF367
C:\Users\stapi\AppData\Local\Temp\cc9ZvSHH.s:20356  .debug_str:000000000000374c .LASF368
C:\Users\stapi\AppData\Local\Temp\cc9ZvSHH.s:20500  .debug_str:0000000000003bb8 .LASF369
C:\Users\stapi\AppData\Local\Temp\cc9ZvSHH.s:18642  .debug_str:000000000000043a .LASF370
C:\Users\stapi\AppData\Local\Temp\cc9ZvSHH.s:19906  .debug_str:00000000000028ce .LASF371
C:\Users\stapi\AppData\Local\Temp\cc9ZvSHH.s:21126  .debug_str:0000000000004da2 .LASF372
C:\Users\stapi\AppData\Local\Temp\cc9ZvSHH.s:19774  .debug_str:00000000000024cc .LASF373
C:\Users\stapi\AppData\Local\Temp\cc9ZvSHH.s:21202  .debug_str:0000000000004fe5 .LASF374
C:\Users\stapi\AppData\Local\Temp\cc9ZvSHH.s:19706  .debug_str:000000000000229c .LASF375
C:\Users\stapi\AppData\Local\Temp\cc9ZvSHH.s:20244  .debug_str:00000000000033aa .LASF376
C:\Users\stapi\AppData\Local\Temp\cc9ZvSHH.s:20518  .debug_str:0000000000003c2b .LASF377
C:\Users\stapi\AppData\Local\Temp\cc9ZvSHH.s:19952  .debug_str:0000000000002a0e .LASF378
C:\Users\stapi\AppData\Local\Temp\cc9ZvSHH.s:18552  .debug_str:000000000000018c .LASF379
C:\Users\stapi\AppData\Local\Temp\cc9ZvSHH.s:20098  .debug_str:0000000000002e46 .LASF380
C:\Users\stapi\AppData\Local\Temp\cc9ZvSHH.s:19038  .debug_str:0000000000000f92 .LASF381
C:\Users\stapi\AppData\Local\Temp\cc9ZvSHH.s:20628  .debug_str:0000000000003f43 .LASF382
C:\Users\stapi\AppData\Local\Temp\cc9ZvSHH.s:19510  .debug_str:0000000000001ccd .LASF383
C:\Users\stapi\AppData\Local\Temp\cc9ZvSHH.s:18528  .debug_str:00000000000000ce .LASF384
C:\Users\stapi\AppData\Local\Temp\cc9ZvSHH.s:20530  .debug_str:0000000000003c77 .LASF385
C:\Users\stapi\AppData\Local\Temp\cc9ZvSHH.s:18888  .debug_str:0000000000000b17 .LASF386
C:\Users\stapi\AppData\Local\Temp\cc9ZvSHH.s:20482  .debug_str:0000000000003b4c .LASF387
C:\Users\stapi\AppData\Local\Temp\cc9ZvSHH.s:18930  .debug_str:0000000000000c71 .LASF388
C:\Users\stapi\AppData\Local\Temp\cc9ZvSHH.s:19854  .debug_str:0000000000002761 .LASF389
C:\Users\stapi\AppData\Local\Temp\cc9ZvSHH.s:19140  .debug_str:0000000000001269 .LASF390
C:\Users\stapi\AppData\Local\Temp\cc9ZvSHH.s:18958  .debug_str:0000000000000d3f .LASF391
C:\Users\stapi\AppData\Local\Temp\cc9ZvSHH.s:19464  .debug_str:0000000000001b93 .LASF392
C:\Users\stapi\AppData\Local\Temp\cc9ZvSHH.s:18784  .debug_str:0000000000000821 .LASF393
C:\Users\stapi\AppData\Local\Temp\cc9ZvSHH.s:21408  .debug_str:0000000000005663 .LASF394
C:\Users\stapi\AppData\Local\Temp\cc9ZvSHH.s:18982  .debug_str:0000000000000dfe .LASF395
C:\Users\stapi\AppData\Local\Temp\cc9ZvSHH.s:18676  .debug_str:0000000000000534 .LASF396
C:\Users\stapi\AppData\Local\Temp\cc9ZvSHH.s:21488  .debug_str:00000000000058ca .LASF397
C:\Users\stapi\AppData\Local\Temp\cc9ZvSHH.s:20944  .debug_str:0000000000004866 .LASF398
C:\Users\stapi\AppData\Local\Temp\cc9ZvSHH.s:18618  .debug_str:000000000000038c .LASF399
C:\Users\stapi\AppData\Local\Temp\cc9ZvSHH.s:19978  .debug_str:0000000000002ab8 .LASF400
C:\Users\stapi\AppData\Local\Temp\cc9ZvSHH.s:18798  .debug_str:0000000000000895 .LASF401
C:\Users\stapi\AppData\Local\Temp\cc9ZvSHH.s:20274  .debug_str:00000000000034b6 .LASF402
C:\Users\stapi\AppData\Local\Temp\cc9ZvSHH.s:20694  .debug_str:0000000000004106 .LASF403
C:\Users\stapi\AppData\Local\Temp\cc9ZvSHH.s:18896  .debug_str:0000000000000b67 .LASF404
C:\Users\stapi\AppData\Local\Temp\cc9ZvSHH.s:19122  .debug_str:00000000000011eb .LASF405
C:\Users\stapi\AppData\Local\Temp\cc9ZvSHH.s:21032  .debug_str:0000000000004ac4 .LASF406
C:\Users\stapi\AppData\Local\Temp\cc9ZvSHH.s:19372  .debug_str:0000000000001914 .LASF407
C:\Users\stapi\AppData\Local\Temp\cc9ZvSHH.s:18718  .debug_str:0000000000000677 .LASF408
C:\Users\stapi\AppData\Local\Temp\cc9ZvSHH.s:20562  .debug_str:0000000000003d77 .LASF409
C:\Users\stapi\AppData\Local\Temp\cc9ZvSHH.s:19778  .debug_str:00000000000024e0 .LASF410
C:\Users\stapi\AppData\Local\Temp\cc9ZvSHH.s:21088  .debug_str:0000000000004c86 .LASF411
C:\Users\stapi\AppData\Local\Temp\cc9ZvSHH.s:19746  .debug_str:00000000000023df .LASF412
C:\Users\stapi\AppData\Local\Temp\cc9ZvSHH.s:19760  .debug_str:000000000000245e .LASF413
C:\Users\stapi\AppData\Local\Temp\cc9ZvSHH.s:20028  .debug_str:0000000000002c4e .LASF414
C:\Users\stapi\AppData\Local\Temp\cc9ZvSHH.s:20722  .debug_str:00000000000041ae .LASF415
C:\Users\stapi\AppData\Local\Temp\cc9ZvSHH.s:20972  .debug_str:0000000000004915 .LASF416
C:\Users\stapi\AppData\Local\Temp\cc9ZvSHH.s:21064  .debug_str:0000000000004be2 .LASF417
C:\Users\stapi\AppData\Local\Temp\cc9ZvSHH.s:18968  .debug_str:0000000000000d8e .LASF418
C:\Users\stapi\AppData\Local\Temp\cc9ZvSHH.s:19418  .debug_str:0000000000001a63 .LASF419
C:\Users\stapi\AppData\Local\Temp\cc9ZvSHH.s:19258  .debug_str:00000000000015df .LASF420
C:\Users\stapi\AppData\Local\Temp\cc9ZvSHH.s:21360  .debug_str:00000000000054e6 .LASF421
C:\Users\stapi\AppData\Local\Temp\cc9ZvSHH.s:18850  .debug_str:00000000000009fb .LASF422
C:\Users\stapi\AppData\Local\Temp\cc9ZvSHH.s:20258  .debug_str:0000000000003434 .LASF423
C:\Users\stapi\AppData\Local\Temp\cc9ZvSHH.s:19922  .debug_str:000000000000293a .LASF424
C:\Users\stapi\AppData\Local\Temp\cc9ZvSHH.s:18598  .debug_str:00000000000002f9 .LASF425
C:\Users\stapi\AppData\Local\Temp\cc9ZvSHH.s:19208  .debug_str:000000000000144b .LASF426
C:\Users\stapi\AppData\Local\Temp\cc9ZvSHH.s:21044  .debug_str:0000000000004b23 .LASF427
C:\Users\stapi\AppData\Local\Temp\cc9ZvSHH.s:21058  .debug_str:0000000000004baa .LASF428
C:\Users\stapi\AppData\Local\Temp\cc9ZvSHH.s:19160  .debug_str:0000000000001309 .LASF429
C:\Users\stapi\AppData\Local\Temp\cc9ZvSHH.s:18502  .debug_str:0000000000000005 .LASF430
C:\Users\stapi\AppData\Local\Temp\cc9ZvSHH.s:19720  .debug_str:00000000000022f5 .LASF431
C:\Users\stapi\AppData\Local\Temp\cc9ZvSHH.s:18706  .debug_str:0000000000000604 .LASF432
C:\Users\stapi\AppData\Local\Temp\cc9ZvSHH.s:19414  .debug_str:0000000000001a3a .LASF433
C:\Users\stapi\AppData\Local\Temp\cc9ZvSHH.s:19976  .debug_str:0000000000002aa6 .LASF434
C:\Users\stapi\AppData\Local\Temp\cc9ZvSHH.s:19806  .debug_str:00000000000025c8 .LASF435
C:\Users\stapi\AppData\Local\Temp\cc9ZvSHH.s:19536  .debug_str:0000000000001d83 .LASF436
C:\Users\stapi\AppData\Local\Temp\cc9ZvSHH.s:20772  .debug_str:000000000000434b .LASF437
C:\Users\stapi\AppData\Local\Temp\cc9ZvSHH.s:21434  .debug_str:0000000000005736 .LASF438
C:\Users\stapi\AppData\Local\Temp\cc9ZvSHH.s:19968  .debug_str:0000000000002a73 .LASF439
C:\Users\stapi\AppData\Local\Temp\cc9ZvSHH.s:19676  .debug_str:00000000000021b6 .LASF440
C:\Users\stapi\AppData\Local\Temp\cc9ZvSHH.s:21294  .debug_str:000000000000528d .LASF441
C:\Users\stapi\AppData\Local\Temp\cc9ZvSHH.s:20466  .debug_str:0000000000003ae7 .LASF442
C:\Users\stapi\AppData\Local\Temp\cc9ZvSHH.s:19580  .debug_str:0000000000001ec8 .LASF443
C:\Users\stapi\AppData\Local\Temp\cc9ZvSHH.s:19780  .debug_str:00000000000024eb .LASF444
C:\Users\stapi\AppData\Local\Temp\cc9ZvSHH.s:19658  .debug_str:0000000000002127 .LASF445
C:\Users\stapi\AppData\Local\Temp\cc9ZvSHH.s:18970  .debug_str:0000000000000d95 .LASF446
C:\Users\stapi\AppData\Local\Temp\cc9ZvSHH.s:21102  .debug_str:0000000000004cde .LASF447
C:\Users\stapi\AppData\Local\Temp\cc9ZvSHH.s:18738  .debug_str:0000000000000704 .LASF448
C:\Users\stapi\AppData\Local\Temp\cc9ZvSHH.s:21028  .debug_str:0000000000004aad .LASF449
C:\Users\stapi\AppData\Local\Temp\cc9ZvSHH.s:19278  .debug_str:000000000000165f .LASF450
C:\Users\stapi\AppData\Local\Temp\cc9ZvSHH.s:18980  .debug_str:0000000000000de1 .LASF451
C:\Users\stapi\AppData\Local\Temp\cc9ZvSHH.s:21440  .debug_str:0000000000005760 .LASF452
C:\Users\stapi\AppData\Local\Temp\cc9ZvSHH.s:18872  .debug_str:0000000000000a96 .LASF453
C:\Users\stapi\AppData\Local\Temp\cc9ZvSHH.s:18918  .debug_str:0000000000000c20 .LASF454
C:\Users\stapi\AppData\Local\Temp\cc9ZvSHH.s:18596  .debug_str:00000000000002ef .LASF455
C:\Users\stapi\AppData\Local\Temp\cc9ZvSHH.s:20740  .debug_str:0000000000004232 .LASF456
C:\Users\stapi\AppData\Local\Temp\cc9ZvSHH.s:19172  .debug_str:0000000000001357 .LASF457
C:\Users\stapi\AppData\Local\Temp\cc9ZvSHH.s:20536  .debug_str:0000000000003ca0 .LASF458
C:\Users\stapi\AppData\Local\Temp\cc9ZvSHH.s:21418  .debug_str:00000000000056ac .LASF459
C:\Users\stapi\AppData\Local\Temp\cc9ZvSHH.s:20132  .debug_str:0000000000002f66 .LASF460
C:\Users\stapi\AppData\Local\Temp\cc9ZvSHH.s:19142  .debug_str:000000000000127e .LASF461
C:\Users\stapi\AppData\Local\Temp\cc9ZvSHH.s:18730  .debug_str:00000000000006c1 .LASF462
C:\Users\stapi\AppData\Local\Temp\cc9ZvSHH.s:18978  .debug_str:0000000000000dc7 .LASF463
C:\Users\stapi\AppData\Local\Temp\cc9ZvSHH.s:20112  .debug_str:0000000000002ea8 .LASF464
C:\Users\stapi\AppData\Local\Temp\cc9ZvSHH.s:20652  .debug_str:0000000000003fd3 .LASF465
C:\Users\stapi\AppData\Local\Temp\cc9ZvSHH.s:21482  .debug_str:000000000000588c .LASF466
C:\Users\stapi\AppData\Local\Temp\cc9ZvSHH.s:20604  .debug_str:0000000000003e9a .LASF467
C:\Users\stapi\AppData\Local\Temp\cc9ZvSHH.s:20110  .debug_str:0000000000002e99 .LASF468
C:\Users\stapi\AppData\Local\Temp\cc9ZvSHH.s:20148  .debug_str:0000000000002fdf .LASF469
C:\Users\stapi\AppData\Local\Temp\cc9ZvSHH.s:20938  .debug_str:000000000000483d .LASF470
C:\Users\stapi\AppData\Local\Temp\cc9ZvSHH.s:20886  .debug_str:0000000000004685 .LASF471
C:\Users\stapi\AppData\Local\Temp\cc9ZvSHH.s:21162  .debug_str:0000000000004ea5 .LASF472
C:\Users\stapi\AppData\Local\Temp\cc9ZvSHH.s:20430  .debug_str:0000000000003972 .LASF473
C:\Users\stapi\AppData\Local\Temp\cc9ZvSHH.s:19174  .debug_str:000000000000136b .LASF474
C:\Users\stapi\AppData\Local\Temp\cc9ZvSHH.s:19220  .debug_str:00000000000014bf .LASF475
C:\Users\stapi\AppData\Local\Temp\cc9ZvSHH.s:19928  .debug_str:0000000000002966 .LASF476
C:\Users\stapi\AppData\Local\Temp\cc9ZvSHH.s:21238  .debug_str:00000000000050e3 .LASF477
C:\Users\stapi\AppData\Local\Temp\cc9ZvSHH.s:20070  .debug_str:0000000000002d7e .LASF478
C:\Users\stapi\AppData\Local\Temp\cc9ZvSHH.s:21416  .debug_str:00000000000056a2 .LASF479
C:\Users\stapi\AppData\Local\Temp\cc9ZvSHH.s:19422  .debug_str:0000000000001a86 .LASF480
C:\Users\stapi\AppData\Local\Temp\cc9ZvSHH.s:21452  .debug_str:00000000000057bc .LASF481
C:\Users\stapi\AppData\Local\Temp\cc9ZvSHH.s:20380  .debug_str:0000000000003803 .LASF482
C:\Users\stapi\AppData\Local\Temp\cc9ZvSHH.s:21314  .debug_str:000000000000532d .LASF483
C:\Users\stapi\AppData\Local\Temp\cc9ZvSHH.s:18678  .debug_str:0000000000000547 .LASF484
C:\Users\stapi\AppData\Local\Temp\cc9ZvSHH.s:18922  .debug_str:0000000000000c3f .LASF485
C:\Users\stapi\AppData\Local\Temp\cc9ZvSHH.s:19764  .debug_str:0000000000002472 .LASF486
C:\Users\stapi\AppData\Local\Temp\cc9ZvSHH.s:20746  .debug_str:000000000000426d .LASF487
C:\Users\stapi\AppData\Local\Temp\cc9ZvSHH.s:19094  .debug_str:000000000000112a .LASF488
C:\Users\stapi\AppData\Local\Temp\cc9ZvSHH.s:20906  .debug_str:000000000000471d .LASF489
C:\Users\stapi\AppData\Local\Temp\cc9ZvSHH.s:18998  .debug_str:0000000000000e55 .LASF490
C:\Users\stapi\AppData\Local\Temp\cc9ZvSHH.s:21404  .debug_str:0000000000005640 .LASF491
C:\Users\stapi\AppData\Local\Temp\cc9ZvSHH.s:20654  .debug_str:0000000000003fe0 .LASF492
C:\Users\stapi\AppData\Local\Temp\cc9ZvSHH.s:20738  .debug_str:0000000000004220 .LASF493
C:\Users\stapi\AppData\Local\Temp\cc9ZvSHH.s:20470  .debug_str:0000000000003af9 .LASF494
C:\Users\stapi\AppData\Local\Temp\cc9ZvSHH.s:21476  .debug_str:0000000000005861 .LASF495
C:\Users\stapi\AppData\Local\Temp\cc9ZvSHH.s:19054  .debug_str:0000000000001012 .LASF496
C:\Users\stapi\AppData\Local\Temp\cc9ZvSHH.s:20916  .debug_str:0000000000004772 .LASF497
C:\Users\stapi\AppData\Local\Temp\cc9ZvSHH.s:21458  .debug_str:00000000000057ef .LASF498
C:\Users\stapi\AppData\Local\Temp\cc9ZvSHH.s:20656  .debug_str:0000000000003fee .LASF499
C:\Users\stapi\AppData\Local\Temp\cc9ZvSHH.s:21270  .debug_str:00000000000051d3 .LASF500
C:\Users\stapi\AppData\Local\Temp\cc9ZvSHH.s:19190  .debug_str:00000000000013cc .LASF501
C:\Users\stapi\AppData\Local\Temp\cc9ZvSHH.s:20838  .debug_str:000000000000450e .LASF502
C:\Users\stapi\AppData\Local\Temp\cc9ZvSHH.s:21154  .debug_str:0000000000004e70 .LASF503
C:\Users\stapi\AppData\Local\Temp\cc9ZvSHH.s:21342  .debug_str:000000000000547d .LASF504
C:\Users\stapi\AppData\Local\Temp\cc9ZvSHH.s:21050  .debug_str:0000000000004b71 .LASF505
C:\Users\stapi\AppData\Local\Temp\cc9ZvSHH.s:19846  .debug_str:000000000000271f .LASF506
C:\Users\stapi\AppData\Local\Temp\cc9ZvSHH.s:20320  .debug_str:000000000000362a .LASF507
C:\Users\stapi\AppData\Local\Temp\cc9ZvSHH.s:21106  .debug_str:0000000000004cf8 .LASF508
C:\Users\stapi\AppData\Local\Temp\cc9ZvSHH.s:18538  .debug_str:0000000000000115 .LASF509
C:\Users\stapi\AppData\Local\Temp\cc9ZvSHH.s:21052  .debug_str:0000000000004b7b .LASF510
C:\Users\stapi\AppData\Local\Temp\cc9ZvSHH.s:20460  .debug_str:0000000000003aae .LASF511
C:\Users\stapi\AppData\Local\Temp\cc9ZvSHH.s:19936  .debug_str:000000000000299d .LASF512
C:\Users\stapi\AppData\Local\Temp\cc9ZvSHH.s:21502  .debug_str:0000000000005923 .LASF513
C:\Users\stapi\AppData\Local\Temp\cc9ZvSHH.s:18868  .debug_str:0000000000000a83 .LASF514
C:\Users\stapi\AppData\Local\Temp\cc9ZvSHH.s:20454  .debug_str:0000000000003a8c .LASF515
C:\Users\stapi\AppData\Local\Temp\cc9ZvSHH.s:18984  .debug_str:0000000000000e12 .LASF516
C:\Users\stapi\AppData\Local\Temp\cc9ZvSHH.s:18592  .debug_str:00000000000002d6 .LASF517
C:\Users\stapi\AppData\Local\Temp\cc9ZvSHH.s:20108  .debug_str:0000000000002e83 .LASF518
C:\Users\stapi\AppData\Local\Temp\cc9ZvSHH.s:20780  .debug_str:0000000000004373 .LASF519
C:\Users\stapi\AppData\Local\Temp\cc9ZvSHH.s:21336  .debug_str:0000000000005446 .LASF520
C:\Users\stapi\AppData\Local\Temp\cc9ZvSHH.s:20602  .debug_str:0000000000003e89 .LASF521
C:\Users\stapi\AppData\Local\Temp\cc9ZvSHH.s:19782  .debug_str:00000000000024f5 .LASF522
C:\Users\stapi\AppData\Local\Temp\cc9ZvSHH.s:21500  .debug_str:000000000000591e .LASF523
C:\Users\stapi\AppData\Local\Temp\cc9ZvSHH.s:19860  .debug_str:000000000000278f .LASF524
C:\Users\stapi\AppData\Local\Temp\cc9ZvSHH.s:19100  .debug_str:000000000000114d .LASF525
C:\Users\stapi\AppData\Local\Temp\cc9ZvSHH.s:19108  .debug_str:0000000000001179 .LASF526
C:\Users\stapi\AppData\Local\Temp\cc9ZvSHH.s:20026  .debug_str:0000000000002c3b .LASF527
C:\Users\stapi\AppData\Local\Temp\cc9ZvSHH.s:19106  .debug_str:000000000000116f .LASF528
C:\Users\stapi\AppData\Local\Temp\cc9ZvSHH.s:19680  .debug_str:00000000000021e0 .LASF529
C:\Users\stapi\AppData\Local\Temp\cc9ZvSHH.s:19206  .debug_str:0000000000001434 .LASF530
C:\Users\stapi\AppData\Local\Temp\cc9ZvSHH.s:20096  .debug_str:0000000000002e37 .LASF531
C:\Users\stapi\AppData\Local\Temp\cc9ZvSHH.s:20610  .debug_str:0000000000003ec1 .LASF532
C:\Users\stapi\AppData\Local\Temp\cc9ZvSHH.s:19448  .debug_str:0000000000001b3b .LASF533
C:\Users\stapi\AppData\Local\Temp\cc9ZvSHH.s:18876  .debug_str:0000000000000ab3 .LASF534
C:\Users\stapi\AppData\Local\Temp\cc9ZvSHH.s:20330  .debug_str:0000000000003685 .LASF535
C:\Users\stapi\AppData\Local\Temp\cc9ZvSHH.s:19424  .debug_str:0000000000001a97 .LASF536
C:\Users\stapi\AppData\Local\Temp\cc9ZvSHH.s:21272  .debug_str:00000000000051ec .LASF537
C:\Users\stapi\AppData\Local\Temp\cc9ZvSHH.s:19940  .debug_str:00000000000029c1 .LASF538
C:\Users\stapi\AppData\Local\Temp\cc9ZvSHH.s:19716  .debug_str:00000000000022da .LASF539
C:\Users\stapi\AppData\Local\Temp\cc9ZvSHH.s:20924  .debug_str:00000000000047ca .LASF540
C:\Users\stapi\AppData\Local\Temp\cc9ZvSHH.s:19506  .debug_str:0000000000001cab .LASF541
C:\Users\stapi\AppData\Local\Temp\cc9ZvSHH.s:19752  .debug_str:0000000000002407 .LASF542
C:\Users\stapi\AppData\Local\Temp\cc9ZvSHH.s:19556  .debug_str:0000000000001e22 .LASF543
C:\Users\stapi\AppData\Local\Temp\cc9ZvSHH.s:21268  .debug_str:00000000000051c8 .LASF544
C:\Users\stapi\AppData\Local\Temp\cc9ZvSHH.s:19718  .debug_str:00000000000022e5 .LASF545
C:\Users\stapi\AppData\Local\Temp\cc9ZvSHH.s:20478  .debug_str:0000000000003b2c .LASF546
C:\Users\stapi\AppData\Local\Temp\cc9ZvSHH.s:21312  .debug_str:000000000000531b .LASF547
C:\Users\stapi\AppData\Local\Temp\cc9ZvSHH.s:19492  .debug_str:0000000000001c44 .LASF548
C:\Users\stapi\AppData\Local\Temp\cc9ZvSHH.s:21232  .debug_str:00000000000050b2 .LASF549
C:\Users\stapi\AppData\Local\Temp\cc9ZvSHH.s:20394  .debug_str:0000000000003861 .LASF550
C:\Users\stapi\AppData\Local\Temp\cc9ZvSHH.s:21084  .debug_str:0000000000004c68 .LASF551
C:\Users\stapi\AppData\Local\Temp\cc9ZvSHH.s:19250  .debug_str:000000000000159d .LASF552
C:\Users\stapi\AppData\Local\Temp\cc9ZvSHH.s:19756  .debug_str:0000000000002430 .LASF553
C:\Users\stapi\AppData\Local\Temp\cc9ZvSHH.s:20834  .debug_str:00000000000044ee .LASF554
C:\Users\stapi\AppData\Local\Temp\cc9ZvSHH.s:19374  .debug_str:0000000000001929 .LASF555
C:\Users\stapi\AppData\Local\Temp\cc9ZvSHH.s:19572  .debug_str:0000000000001e92 .LASF556
C:\Users\stapi\AppData\Local\Temp\cc9ZvSHH.s:18830  .debug_str:0000000000000966 .LASF557
C:\Users\stapi\AppData\Local\Temp\cc9ZvSHH.s:20812  .debug_str:000000000000446f .LASF558
C:\Users\stapi\AppData\Local\Temp\cc9ZvSHH.s:20490  .debug_str:0000000000003b77 .LASF559
C:\Users\stapi\AppData\Local\Temp\cc9ZvSHH.s:20692  .debug_str:00000000000040f9 .LASF560
C:\Users\stapi\AppData\Local\Temp\cc9ZvSHH.s:20142  .debug_str:0000000000002fae .LASF561
C:\Users\stapi\AppData\Local\Temp\cc9ZvSHH.s:20184  .debug_str:00000000000030e2 .LASF562
C:\Users\stapi\AppData\Local\Temp\cc9ZvSHH.s:20182  .debug_str:00000000000030dd .LASF563
C:\Users\stapi\AppData\Local\Temp\cc9ZvSHH.s:20770  .debug_str:0000000000004341 .LASF564
C:\Users\stapi\AppData\Local\Temp\cc9ZvSHH.s:21002  .debug_str:00000000000049f0 .LASF565
C:\Users\stapi\AppData\Local\Temp\cc9ZvSHH.s:20476  .debug_str:0000000000003b1f .LASF566
C:\Users\stapi\AppData\Local\Temp\cc9ZvSHH.s:19790  .debug_str:000000000000252e .LASF567
C:\Users\stapi\AppData\Local\Temp\cc9ZvSHH.s:18804  .debug_str:00000000000008c0 .LASF568
C:\Users\stapi\AppData\Local\Temp\cc9ZvSHH.s:19834  .debug_str:00000000000026bf .LASF569
C:\Users\stapi\AppData\Local\Temp\cc9ZvSHH.s:19084  .debug_str:00000000000010df .LASF570
C:\Users\stapi\AppData\Local\Temp\cc9ZvSHH.s:20550  .debug_str:0000000000003d13 .LASF571
C:\Users\stapi\AppData\Local\Temp\cc9ZvSHH.s:20422  .debug_str:0000000000003939 .LASF572
C:\Users\stapi\AppData\Local\Temp\cc9ZvSHH.s:20136  .debug_str:0000000000002f7e .LASF573
C:\Users\stapi\AppData\Local\Temp\cc9ZvSHH.s:19134  .debug_str:0000000000001241 .LASF574
C:\Users\stapi\AppData\Local\Temp\cc9ZvSHH.s:18954  .debug_str:0000000000000d21 .LASF575
C:\Users\stapi\AppData\Local\Temp\cc9ZvSHH.s:19496  .debug_str:0000000000001c5f .LASF576
C:\Users\stapi\AppData\Local\Temp\cc9ZvSHH.s:20204  .debug_str:000000000000326b .LASF577
C:\Users\stapi\AppData\Local\Temp\cc9ZvSHH.s:21318  .debug_str:000000000000533d .LASF578
C:\Users\stapi\AppData\Local\Temp\cc9ZvSHH.s:21160  .debug_str:0000000000004e92 .LASF579
C:\Users\stapi\AppData\Local\Temp\cc9ZvSHH.s:18816  .debug_str:0000000000000905 .LASF580
C:\Users\stapi\AppData\Local\Temp\cc9ZvSHH.s:20820  .debug_str:000000000000449e .LASF581
C:\Users\stapi\AppData\Local\Temp\cc9ZvSHH.s:20230  .debug_str:0000000000003342 .LASF582
C:\Users\stapi\AppData\Local\Temp\cc9ZvSHH.s:19646  .debug_str:00000000000020d0 .LASF583
C:\Users\stapi\AppData\Local\Temp\cc9ZvSHH.s:18760  .debug_str:0000000000000781 .LASF584
C:\Users\stapi\AppData\Local\Temp\cc9ZvSHH.s:21124  .debug_str:0000000000004d94 .LASF585
C:\Users\stapi\AppData\Local\Temp\cc9ZvSHH.s:19614  .debug_str:0000000000001fe8 .LASF586
C:\Users\stapi\AppData\Local\Temp\cc9ZvSHH.s:20748  .debug_str:000000000000428a .LASF587
C:\Users\stapi\AppData\Local\Temp\cc9ZvSHH.s:20848  .debug_str:0000000000004565 .LASF588
C:\Users\stapi\AppData\Local\Temp\cc9ZvSHH.s:19918  .debug_str:0000000000002920 .LASF589
C:\Users\stapi\AppData\Local\Temp\cc9ZvSHH.s:21146  .debug_str:0000000000004e22 .LASF590
C:\Users\stapi\AppData\Local\Temp\cc9ZvSHH.s:20446  .debug_str:0000000000003a58 .LASF591
C:\Users\stapi\AppData\Local\Temp\cc9ZvSHH.s:18996  .debug_str:0000000000000e42 .LASF592
C:\Users\stapi\AppData\Local\Temp\cc9ZvSHH.s:20620  .debug_str:0000000000003f16 .LASF593
C:\Users\stapi\AppData\Local\Temp\cc9ZvSHH.s:20712  .debug_str:000000000000416a .LASF594
C:\Users\stapi\AppData\Local\Temp\cc9ZvSHH.s:18508  .debug_str:000000000000004e .LASF595
C:\Users\stapi\AppData\Local\Temp\cc9ZvSHH.s:19816  .debug_str:000000000000262a .LASF596
C:\Users\stapi\AppData\Local\Temp\cc9ZvSHH.s:19830  .debug_str:000000000000269b .LASF597
C:\Users\stapi\AppData\Local\Temp\cc9ZvSHH.s:20280  .debug_str:00000000000034d9 .LASF598
C:\Users\stapi\AppData\Local\Temp\cc9ZvSHH.s:18650  .debug_str:0000000000000474 .LASF599
C:\Users\stapi\AppData\Local\Temp\cc9ZvSHH.s:18644  .debug_str:000000000000043f .LASF600
C:\Users\stapi\AppData\Local\Temp\cc9ZvSHH.s:19186  .debug_str:00000000000013ad .LASF601
C:\Users\stapi\AppData\Local\Temp\cc9ZvSHH.s:18900  .debug_str:0000000000000b78 .LASF602
C:\Users\stapi\AppData\Local\Temp\cc9ZvSHH.s:21206  .debug_str:000000000000500c .LASF603
C:\Users\stapi\AppData\Local\Temp\cc9ZvSHH.s:20194  .debug_str:0000000000003134 .LASF604
C:\Users\stapi\AppData\Local\Temp\cc9ZvSHH.s:20974  .debug_str:0000000000004921 .LASF605
C:\Users\stapi\AppData\Local\Temp\cc9ZvSHH.s:19534  .debug_str:0000000000001d6c .LASF606
C:\Users\stapi\AppData\Local\Temp\cc9ZvSHH.s:18610  .debug_str:000000000000035b .LASF607
C:\Users\stapi\AppData\Local\Temp\cc9ZvSHH.s:19112  .debug_str:0000000000001194 .LASF608
C:\Users\stapi\AppData\Local\Temp\cc9ZvSHH.s:19874  .debug_str:00000000000027f3 .LASF609
C:\Users\stapi\AppData\Local\Temp\cc9ZvSHH.s:19396  .debug_str:00000000000019c0 .LASF610
C:\Users\stapi\AppData\Local\Temp\cc9ZvSHH.s:18908  .debug_str:0000000000000bc2 .LASF611
C:\Users\stapi\AppData\Local\Temp\cc9ZvSHH.s:19988  .debug_str:0000000000002b04 .LASF612
C:\Users\stapi\AppData\Local\Temp\cc9ZvSHH.s:21012  .debug_str:0000000000004a45 .LASF613
C:\Users\stapi\AppData\Local\Temp\cc9ZvSHH.s:19802  .debug_str:0000000000002593 .LASF614
C:\Users\stapi\AppData\Local\Temp\cc9ZvSHH.s:20978  .debug_str:0000000000004947 .LASF615
C:\Users\stapi\AppData\Local\Temp\cc9ZvSHH.s:19446  .debug_str:0000000000001b24 .LASF616
C:\Users\stapi\AppData\Local\Temp\cc9ZvSHH.s:19792  .debug_str:000000000000253e .LASF617
C:\Users\stapi\AppData\Local\Temp\cc9ZvSHH.s:19318  .debug_str:000000000000176e .LASF618
C:\Users\stapi\AppData\Local\Temp\cc9ZvSHH.s:19742  .debug_str:00000000000023b9 .LASF619
C:\Users\stapi\AppData\Local\Temp\cc9ZvSHH.s:19738  .debug_str:0000000000002394 .LASF620
C:\Users\stapi\AppData\Local\Temp\cc9ZvSHH.s:21150  .debug_str:0000000000004e4e .LASF621
C:\Users\stapi\AppData\Local\Temp\cc9ZvSHH.s:21354  .debug_str:00000000000054c6 .LASF622
C:\Users\stapi\AppData\Local\Temp\cc9ZvSHH.s:20734  .debug_str:000000000000420a .LASF623
C:\Users\stapi\AppData\Local\Temp\cc9ZvSHH.s:18986  .debug_str:0000000000000e18 .LASF624
C:\Users\stapi\AppData\Local\Temp\cc9ZvSHH.s:20172  .debug_str:0000000000003099 .LASF625
C:\Users\stapi\AppData\Local\Temp\cc9ZvSHH.s:20554  .debug_str:0000000000003d3b .LASF626
C:\Users\stapi\AppData\Local\Temp\cc9ZvSHH.s:19762  .debug_str:0000000000002469 .LASF627
C:\Users\stapi\AppData\Local\Temp\cc9ZvSHH.s:18574  .debug_str:0000000000000239 .LASF628
C:\Users\stapi\AppData\Local\Temp\cc9ZvSHH.s:21352  .debug_str:00000000000054ba .LASF629
C:\Users\stapi\AppData\Local\Temp\cc9ZvSHH.s:19970  .debug_str:0000000000002a7c .LASF630
C:\Users\stapi\AppData\Local\Temp\cc9ZvSHH.s:18788  .debug_str:000000000000084a .LASF631
C:\Users\stapi\AppData\Local\Temp\cc9ZvSHH.s:20736  .debug_str:0000000000004212 .LASF632
C:\Users\stapi\AppData\Local\Temp\cc9ZvSHH.s:20982  .debug_str:0000000000004966 .LASF633
C:\Users\stapi\AppData\Local\Temp\cc9ZvSHH.s:21040  .debug_str:0000000000004b08 .LASF634
C:\Users\stapi\AppData\Local\Temp\cc9ZvSHH.s:18796  .debug_str:0000000000000888 .LASF635
C:\Users\stapi\AppData\Local\Temp\cc9ZvSHH.s:20864  .debug_str:00000000000045f2 .LASF636
C:\Users\stapi\AppData\Local\Temp\cc9ZvSHH.s:19724  .debug_str:0000000000002318 .LASF637
C:\Users\stapi\AppData\Local\Temp\cc9ZvSHH.s:19356  .debug_str:0000000000001894 .LASF638
C:\Users\stapi\AppData\Local\Temp\cc9ZvSHH.s:19480  .debug_str:0000000000001bfe .LASF639
C:\Users\stapi\AppData\Local\Temp\cc9ZvSHH.s:19000  .debug_str:0000000000000e69 .LASF640
C:\Users\stapi\AppData\Local\Temp\cc9ZvSHH.s:18514  .debug_str:0000000000000078 .LASF641
C:\Users\stapi\AppData\Local\Temp\cc9ZvSHH.s:20810  .debug_str:0000000000004465 .LASF642
C:\Users\stapi\AppData\Local\Temp\cc9ZvSHH.s:21516  .debug_str:00000000000059ac .LASF643
C:\Users\stapi\AppData\Local\Temp\cc9ZvSHH.s:21208  .debug_str:0000000000005019 .LASF644
C:\Users\stapi\AppData\Local\Temp\cc9ZvSHH.s:20764  .debug_str:000000000000430f .LASF645
C:\Users\stapi\AppData\Local\Temp\cc9ZvSHH.s:21190  .debug_str:0000000000004f67 .LASF646
C:\Users\stapi\AppData\Local\Temp\cc9ZvSHH.s:20272  .debug_str:00000000000034a4 .LASF647
C:\Users\stapi\AppData\Local\Temp\cc9ZvSHH.s:19564  .debug_str:0000000000001e5d .LASF648
C:\Users\stapi\AppData\Local\Temp\cc9ZvSHH.s:20542  .debug_str:0000000000003cd6 .LASF649
C:\Users\stapi\AppData\Local\Temp\cc9ZvSHH.s:20646  .debug_str:0000000000003fae .LASF650
C:\Users\stapi\AppData\Local\Temp\cc9ZvSHH.s:21090  .debug_str:0000000000004c8f .LASF651
C:\Users\stapi\AppData\Local\Temp\cc9ZvSHH.s:18670  .debug_str:0000000000000505 .LASF652
C:\Users\stapi\AppData\Local\Temp\cc9ZvSHH.s:20302  .debug_str:00000000000035a6 .LASF653
C:\Users\stapi\AppData\Local\Temp\cc9ZvSHH.s:21350  .debug_str:00000000000054b1 .LASF654
C:\Users\stapi\AppData\Local\Temp\cc9ZvSHH.s:19268  .debug_str:000000000000161f .LASF655
C:\Users\stapi\AppData\Local\Temp\cc9ZvSHH.s:19284  .debug_str:0000000000001698 .LASF656
C:\Users\stapi\AppData\Local\Temp\cc9ZvSHH.s:19454  .debug_str:0000000000001b62 .LASF657
C:\Users\stapi\AppData\Local\Temp\cc9ZvSHH.s:21092  .debug_str:0000000000004c9a .LASF658
C:\Users\stapi\AppData\Local\Temp\cc9ZvSHH.s:19282  .debug_str:0000000000001686 .LASF659
C:\Users\stapi\AppData\Local\Temp\cc9ZvSHH.s:18568  .debug_str:000000000000020b .LASF660
C:\Users\stapi\AppData\Local\Temp\cc9ZvSHH.s:18972  .debug_str:0000000000000da2 .LASF661
C:\Users\stapi\AppData\Local\Temp\cc9ZvSHH.s:18912  .debug_str:0000000000000bdd .LASF662
C:\Users\stapi\AppData\Local\Temp\cc9ZvSHH.s:19570  .debug_str:0000000000001e88 .LASF663
C:\Users\stapi\AppData\Local\Temp\cc9ZvSHH.s:20236  .debug_str:0000000000003381 .LASF664
C:\Users\stapi\AppData\Local\Temp\cc9ZvSHH.s:20996  .debug_str:00000000000049c7 .LASF665
C:\Users\stapi\AppData\Local\Temp\cc9ZvSHH.s:19620  .debug_str:0000000000002012 .LASF666
C:\Users\stapi\AppData\Local\Temp\cc9ZvSHH.s:20326  .debug_str:000000000000365f .LASF667
C:\Users\stapi\AppData\Local\Temp\cc9ZvSHH.s:20788  .debug_str:00000000000043a8 .LASF668
C:\Users\stapi\AppData\Local\Temp\cc9ZvSHH.s:19210  .debug_str:000000000000146e .LASF669
C:\Users\stapi\AppData\Local\Temp\cc9ZvSHH.s:21280  .debug_str:0000000000005222 .LASF670
C:\Users\stapi\AppData\Local\Temp\cc9ZvSHH.s:20818  .debug_str:0000000000004498 .LASF671
C:\Users\stapi\AppData\Local\Temp\cc9ZvSHH.s:19048  .debug_str:0000000000000fde .LASF672
C:\Users\stapi\AppData\Local\Temp\cc9ZvSHH.s:20240  .debug_str:0000000000003393 .LASF673
C:\Users\stapi\AppData\Local\Temp\cc9ZvSHH.s:18736  .debug_str:00000000000006f7 .LASF674
C:\Users\stapi\AppData\Local\Temp\cc9ZvSHH.s:18836  .debug_str:0000000000000983 .LASF675
C:\Users\stapi\AppData\Local\Temp\cc9ZvSHH.s:20092  .debug_str:0000000000002e1f .LASF676
C:\Users\stapi\AppData\Local\Temp\cc9ZvSHH.s:18890  .debug_str:0000000000000b21 .LASF677
C:\Users\stapi\AppData\Local\Temp\cc9ZvSHH.s:20012  .debug_str:0000000000002bbd .LASF678
C:\Users\stapi\AppData\Local\Temp\cc9ZvSHH.s:20462  .debug_str:0000000000003ac0 .LASF679
C:\Users\stapi\AppData\Local\Temp\cc9ZvSHH.s:21298  .debug_str:00000000000052a7 .LASF680
C:\Users\stapi\AppData\Local\Temp\cc9ZvSHH.s:19092  .debug_str:0000000000001110 .LASF681
C:\Users\stapi\AppData\Local\Temp\cc9ZvSHH.s:18782  .debug_str:000000000000080e .LASF682
C:\Users\stapi\AppData\Local\Temp\cc9ZvSHH.s:20486  .debug_str:0000000000003b5a .LASF683
C:\Users\stapi\AppData\Local\Temp\cc9ZvSHH.s:19856  .debug_str:000000000000276d .LASF684
C:\Users\stapi\AppData\Local\Temp\cc9ZvSHH.s:18772  .debug_str:00000000000007c2 .LASF685
C:\Users\stapi\AppData\Local\Temp\cc9ZvSHH.s:20304  .debug_str:00000000000035bd .LASF686
C:\Users\stapi\AppData\Local\Temp\cc9ZvSHH.s:19244  .debug_str:000000000000156a .LASF687
C:\Users\stapi\AppData\Local\Temp\cc9ZvSHH.s:19148  .debug_str:00000000000012b4 .LASF688
C:\Users\stapi\AppData\Local\Temp\cc9ZvSHH.s:20284  .debug_str:000000000000350a .LASF689
C:\Users\stapi\AppData\Local\Temp\cc9ZvSHH.s:18810  .debug_str:00000000000008ec .LASF690
C:\Users\stapi\AppData\Local\Temp\cc9ZvSHH.s:21258  .debug_str:000000000000518b .LASF691
C:\Users\stapi\AppData\Local\Temp\cc9ZvSHH.s:21274  .debug_str:00000000000051fb .LASF692
C:\Users\stapi\AppData\Local\Temp\cc9ZvSHH.s:19158  .debug_str:0000000000001301 .LASF693
C:\Users\stapi\AppData\Local\Temp\cc9ZvSHH.s:18764  .debug_str:000000000000079a .LASF694
C:\Users\stapi\AppData\Local\Temp\cc9ZvSHH.s:20416  .debug_str:000000000000391e .LASF695
C:\Users\stapi\AppData\Local\Temp\cc9ZvSHH.s:20640  .debug_str:0000000000003f96 .LASF696
C:\Users\stapi\AppData\Local\Temp\cc9ZvSHH.s:19058  .debug_str:0000000000001030 .LASF697
C:\Users\stapi\AppData\Local\Temp\cc9ZvSHH.s:19554  .debug_str:0000000000001e13 .LASF698
C:\Users\stapi\AppData\Local\Temp\cc9ZvSHH.s:20270  .debug_str:000000000000349a .LASF699
C:\Users\stapi\AppData\Local\Temp\cc9ZvSHH.s:18558  .debug_str:00000000000001bb .LASF700
C:\Users\stapi\AppData\Local\Temp\cc9ZvSHH.s:19568  .debug_str:0000000000001e7b .LASF701
C:\Users\stapi\AppData\Local\Temp\cc9ZvSHH.s:18844  .debug_str:00000000000009b7 .LASF702
C:\Users\stapi\AppData\Local\Temp\cc9ZvSHH.s:20328  .debug_str:000000000000367c .LASF703
C:\Users\stapi\AppData\Local\Temp\cc9ZvSHH.s:18950  .debug_str:0000000000000d0e .LASF704
C:\Users\stapi\AppData\Local\Temp\cc9ZvSHH.s:19664  .debug_str:0000000000002150 .LASF705
C:\Users\stapi\AppData\Local\Temp\cc9ZvSHH.s:19848  .debug_str:0000000000002735 .LASF706
C:\Users\stapi\AppData\Local\Temp\cc9ZvSHH.s:18800  .debug_str:00000000000008a9 .LASF707
C:\Users\stapi\AppData\Local\Temp\cc9ZvSHH.s:21138  .debug_str:0000000000004dde .LASF708
C:\Users\stapi\AppData\Local\Temp\cc9ZvSHH.s:19818  .debug_str:0000000000002633 .LASF709
C:\Users\stapi\AppData\Local\Temp\cc9ZvSHH.s:20540  .debug_str:0000000000003cc2 .LASF710
C:\Users\stapi\AppData\Local\Temp\cc9ZvSHH.s:19370  .debug_str:000000000000190a .LASF711
C:\Users\stapi\AppData\Local\Temp\cc9ZvSHH.s:20616  .debug_str:0000000000003ef3 .LASF712
C:\Users\stapi\AppData\Local\Temp\cc9ZvSHH.s:20590  .debug_str:0000000000003e2f .LASF713
C:\Users\stapi\AppData\Local\Temp\cc9ZvSHH.s:18842  .debug_str:00000000000009ab .LASF714
C:\Users\stapi\AppData\Local\Temp\cc9ZvSHH.s:19772  .debug_str:00000000000024c0 .LASF715
C:\Users\stapi\AppData\Local\Temp\cc9ZvSHH.s:18878  .debug_str:0000000000000abc .LASF716
C:\Users\stapi\AppData\Local\Temp\cc9ZvSHH.s:21276  .debug_str:0000000000005204 .LASF717
C:\Users\stapi\AppData\Local\Temp\cc9ZvSHH.s:19246  .debug_str:0000000000001584 .LASF718
C:\Users\stapi\AppData\Local\Temp\cc9ZvSHH.s:19886  .debug_str:0000000000002837 .LASF719
C:\Users\stapi\AppData\Local\Temp\cc9ZvSHH.s:19840  .debug_str:00000000000026fa .LASF720
C:\Users\stapi\AppData\Local\Temp\cc9ZvSHH.s:20804  .debug_str:0000000000004439 .LASF721
C:\Users\stapi\AppData\Local\Temp\cc9ZvSHH.s:19930  .debug_str:0000000000002979 .LASF722
C:\Users\stapi\AppData\Local\Temp\cc9ZvSHH.s:18532  .debug_str:00000000000000ea .LASF723
C:\Users\stapi\AppData\Local\Temp\cc9ZvSHH.s:20716  .debug_str:0000000000004195 .LASF724
C:\Users\stapi\AppData\Local\Temp\cc9ZvSHH.s:20964  .debug_str:00000000000048f5 .LASF725
C:\Users\stapi\AppData\Local\Temp\cc9ZvSHH.s:18768  .debug_str:00000000000007ab .LASF726
C:\Users\stapi\AppData\Local\Temp\cc9ZvSHH.s:19442  .debug_str:0000000000001b0a .LASF727
C:\Users\stapi\AppData\Local\Temp\cc9ZvSHH.s:20786  .debug_str:000000000000439d .LASF728
C:\Users\stapi\AppData\Local\Temp\cc9ZvSHH.s:21316  .debug_str:0000000000005337 .LASF729
C:\Users\stapi\AppData\Local\Temp\cc9ZvSHH.s:20592  .debug_str:0000000000003e41 .LASF730
C:\Users\stapi\AppData\Local\Temp\cc9ZvSHH.s:19124  .debug_str:00000000000011f7 .LASF731
C:\Users\stapi\AppData\Local\Temp\cc9ZvSHH.s:20884  .debug_str:0000000000004675 .LASF732
C:\Users\stapi\AppData\Local\Temp\cc9ZvSHH.s:21470  .debug_str:0000000000005833 .LASF733
C:\Users\stapi\AppData\Local\Temp\cc9ZvSHH.s:20762  .debug_str:0000000000004304 .LASF734
C:\Users\stapi\AppData\Local\Temp\cc9ZvSHH.s:19056  .debug_str:0000000000001023 .LASF735
C:\Users\stapi\AppData\Local\Temp\cc9ZvSHH.s:19904  .debug_str:00000000000028c3 .LASF736
C:\Users\stapi\AppData\Local\Temp\cc9ZvSHH.s:19938  .debug_str:00000000000029b3 .LASF737
C:\Users\stapi\AppData\Local\Temp\cc9ZvSHH.s:20822  .debug_str:00000000000044ab .LASF738
C:\Users\stapi\AppData\Local\Temp\cc9ZvSHH.s:21428  .debug_str:00000000000056fb .LASF739
C:\Users\stapi\AppData\Local\Temp\cc9ZvSHH.s:19990  .debug_str:0000000000002b12 .LASF740
C:\Users\stapi\AppData\Local\Temp\cc9ZvSHH.s:19850  .debug_str:0000000000002740 .LASF741
C:\Users\stapi\AppData\Local\Temp\cc9ZvSHH.s:19798  .debug_str:0000000000002575 .LASF742
C:\Users\stapi\AppData\Local\Temp\cc9ZvSHH.s:19330  .debug_str:00000000000017d0 .LASF743
C:\Users\stapi\AppData\Local\Temp\cc9ZvSHH.s:19040  .debug_str:0000000000000f9c .LASF744
C:\Users\stapi\AppData\Local\Temp\cc9ZvSHH.s:19254  .debug_str:00000000000015c5 .LASF745
C:\Users\stapi\AppData\Local\Temp\cc9ZvSHH.s:20042  .debug_str:0000000000002cb7 .LASF746
C:\Users\stapi\AppData\Local\Temp\cc9ZvSHH.s:21068  .debug_str:0000000000004bf8 .LASF747
C:\Users\stapi\AppData\Local\Temp\cc9ZvSHH.s:20600  .debug_str:0000000000003e75 .LASF748
C:\Users\stapi\AppData\Local\Temp\cc9ZvSHH.s:21526  .debug_str:00000000000059ee .LASF749
C:\Users\stapi\AppData\Local\Temp\cc9ZvSHH.s:20872  .debug_str:0000000000004629 .LASF750
C:\Users\stapi\AppData\Local\Temp\cc9ZvSHH.s:19474  .debug_str:0000000000001be0 .LASF751
C:\Users\stapi\AppData\Local\Temp\cc9ZvSHH.s:19070  .debug_str:0000000000001084 .LASF752
C:\Users\stapi\AppData\Local\Temp\cc9ZvSHH.s:19682  .debug_str:00000000000021ef .LASF753
C:\Users\stapi\AppData\Local\Temp\cc9ZvSHH.s:21176  .debug_str:0000000000004ef7 .LASF754
C:\Users\stapi\AppData\Local\Temp\cc9ZvSHH.s:20340  .debug_str:00000000000036d0 .LASF755
C:\Users\stapi\AppData\Local\Temp\cc9ZvSHH.s:20756  .debug_str:00000000000042d3 .LASF756
C:\Users\stapi\AppData\Local\Temp\cc9ZvSHH.s:19584  .debug_str:0000000000001ee1 .LASF757
C:\Users\stapi\AppData\Local\Temp\cc9ZvSHH.s:20038  .debug_str:0000000000002c9d .LASF758
C:\Users\stapi\AppData\Local\Temp\cc9ZvSHH.s:18714  .debug_str:0000000000000648 .LASF759
C:\Users\stapi\AppData\Local\Temp\cc9ZvSHH.s:18622  .debug_str:00000000000003a5 .LASF760
C:\Users\stapi\AppData\Local\Temp\cc9ZvSHH.s:20548  .debug_str:0000000000003cfa .LASF761
C:\Users\stapi\AppData\Local\Temp\cc9ZvSHH.s:20260  .debug_str:000000000000344b .LASF762
C:\Users\stapi\AppData\Local\Temp\cc9ZvSHH.s:19872  .debug_str:00000000000027e9 .LASF763
C:\Users\stapi\AppData\Local\Temp\cc9ZvSHH.s:20402  .debug_str:00000000000038ae .LASF764
C:\Users\stapi\AppData\Local\Temp\cc9ZvSHH.s:18692  .debug_str:00000000000005a9 .LASF765
C:\Users\stapi\AppData\Local\Temp\cc9ZvSHH.s:19060  .debug_str:0000000000001044 .LASF766
C:\Users\stapi\AppData\Local\Temp\cc9ZvSHH.s:20358  .debug_str:0000000000003751 .LASF767
C:\Users\stapi\AppData\Local\Temp\cc9ZvSHH.s:21456  .debug_str:00000000000057e7 .LASF768
C:\Users\stapi\AppData\Local\Temp\cc9ZvSHH.s:21388  .debug_str:00000000000055c2 .LASF769
C:\Users\stapi\AppData\Local\Temp\cc9ZvSHH.s:20754  .debug_str:00000000000042c1 .LASF770
C:\Users\stapi\AppData\Local\Temp\cc9ZvSHH.s:18548  .debug_str:000000000000017a .LASF771
C:\Users\stapi\AppData\Local\Temp\cc9ZvSHH.s:20564  .debug_str:0000000000003d85 .LASF772
C:\Users\stapi\AppData\Local\Temp\cc9ZvSHH.s:18826  .debug_str:000000000000094a .LASF773
C:\Users\stapi\AppData\Local\Temp\cc9ZvSHH.s:21060  .debug_str:0000000000004bc1 .LASF774
C:\Users\stapi\AppData\Local\Temp\cc9ZvSHH.s:20900  .debug_str:0000000000004702 .LASF775
C:\Users\stapi\AppData\Local\Temp\cc9ZvSHH.s:21100  .debug_str:0000000000004cd2 .LASF776
C:\Users\stapi\AppData\Local\Temp\cc9ZvSHH.s:20064  .debug_str:0000000000002d50 .LASF777
C:\Users\stapi\AppData\Local\Temp\cc9ZvSHH.s:21108  .debug_str:0000000000004d10 .LASF778
C:\Users\stapi\AppData\Local\Temp\cc9ZvSHH.s:19820  .debug_str:0000000000002646 .LASF779
C:\Users\stapi\AppData\Local\Temp\cc9ZvSHH.s:18672  .debug_str:000000000000051a .LASF780
C:\Users\stapi\AppData\Local\Temp\cc9ZvSHH.s:20316  .debug_str:0000000000003611 .LASF781
C:\Users\stapi\AppData\Local\Temp\cc9ZvSHH.s:18680  .debug_str:0000000000000557 .LASF782
C:\Users\stapi\AppData\Local\Temp\cc9ZvSHH.s:20278  .debug_str:00000000000034cd .LASF783
C:\Users\stapi\AppData\Local\Temp\cc9ZvSHH.s:19066  .debug_str:000000000000106b .LASF784
C:\Users\stapi\AppData\Local\Temp\cc9ZvSHH.s:19512  .debug_str:0000000000001cde .LASF785
C:\Users\stapi\AppData\Local\Temp\cc9ZvSHH.s:20670  .debug_str:0000000000004058 .LASF786
C:\Users\stapi\AppData\Local\Temp\cc9ZvSHH.s:21292  .debug_str:000000000000527e .LASF787
C:\Users\stapi\AppData\Local\Temp\cc9ZvSHH.s:20508  .debug_str:0000000000003bed .LASF788
C:\Users\stapi\AppData\Local\Temp\cc9ZvSHH.s:19222  .debug_str:00000000000014cc .LASF789
C:\Users\stapi\AppData\Local\Temp\cc9ZvSHH.s:20452  .debug_str:0000000000003a82 .LASF790
C:\Users\stapi\AppData\Local\Temp\cc9ZvSHH.s:19304  .debug_str:000000000000170f .LASF791
C:\Users\stapi\AppData\Local\Temp\cc9ZvSHH.s:19202  .debug_str:0000000000001414 .LASF792
C:\Users\stapi\AppData\Local\Temp\cc9ZvSHH.s:19954  .debug_str:0000000000002a17 .LASF793
C:\Users\stapi\AppData\Local\Temp\cc9ZvSHH.s:21328  .debug_str:000000000000540d .LASF794
C:\Users\stapi\AppData\Local\Temp\cc9ZvSHH.s:19736  .debug_str:0000000000002386 .LASF795
C:\Users\stapi\AppData\Local\Temp\cc9ZvSHH.s:19826  .debug_str:0000000000002676 .LASF796
C:\Users\stapi\AppData\Local\Temp\cc9ZvSHH.s:18662  .debug_str:00000000000004cc .LASF797
C:\Users\stapi\AppData\Local\Temp\cc9ZvSHH.s:21144  .debug_str:0000000000004e18 .LASF798
C:\Users\stapi\AppData\Local\Temp\cc9ZvSHH.s:21338  .debug_str:0000000000005450 .LASF799
C:\Users\stapi\AppData\Local\Temp\cc9ZvSHH.s:18758  .debug_str:0000000000000765 .LASF800
C:\Users\stapi\AppData\Local\Temp\cc9ZvSHH.s:18510  .debug_str:000000000000005c .LASF801
C:\Users\stapi\AppData\Local\Temp\cc9ZvSHH.s:20720  .debug_str:00000000000041a6 .LASF802
C:\Users\stapi\AppData\Local\Temp\cc9ZvSHH.s:19096  .debug_str:0000000000001132 .LASF803
C:\Users\stapi\AppData\Local\Temp\cc9ZvSHH.s:19288  .debug_str:00000000000016ae .LASF804
C:\Users\stapi\AppData\Local\Temp\cc9ZvSHH.s:20126  .debug_str:0000000000002f2b .LASF805
C:\Users\stapi\AppData\Local\Temp\cc9ZvSHH.s:18726  .debug_str:00000000000006a7 .LASF806
C:\Users\stapi\AppData\Local\Temp\cc9ZvSHH.s:19896  .debug_str:0000000000002885 .LASF807
C:\Users\stapi\AppData\Local\Temp\cc9ZvSHH.s:19488  .debug_str:0000000000001c30 .LASF808
C:\Users\stapi\AppData\Local\Temp\cc9ZvSHH.s:18926  .debug_str:0000000000000c60 .LASF809
C:\Users\stapi\AppData\Local\Temp\cc9ZvSHH.s:21218  .debug_str:000000000000505d .LASF810
C:\Users\stapi\AppData\Local\Temp\cc9ZvSHH.s:19730  .debug_str:000000000000235a .LASF811
C:\Users\stapi\AppData\Local\Temp\cc9ZvSHH.s:20962  .debug_str:00000000000048ee .LASF812
C:\Users\stapi\AppData\Local\Temp\cc9ZvSHH.s:20948  .debug_str:0000000000004879 .LASF813
C:\Users\stapi\AppData\Local\Temp\cc9ZvSHH.s:20362  .debug_str:0000000000003772 .LASF814
C:\Users\stapi\AppData\Local\Temp\cc9ZvSHH.s:19880  .debug_str:0000000000002816 .LASF815
C:\Users\stapi\AppData\Local\Temp\cc9ZvSHH.s:20802  .debug_str:000000000000441c .LASF816
C:\Users\stapi\AppData\Local\Temp\cc9ZvSHH.s:21014  .debug_str:0000000000004a50 .LASF817
C:\Users\stapi\AppData\Local\Temp\cc9ZvSHH.s:19156  .debug_str:00000000000012f4 .LASF818
C:\Users\stapi\AppData\Local\Temp\cc9ZvSHH.s:19028  .debug_str:0000000000000f4b .LASF819
C:\Users\stapi\AppData\Local\Temp\cc9ZvSHH.s:20918  .debug_str:0000000000004787 .LASF820
C:\Users\stapi\AppData\Local\Temp\cc9ZvSHH.s:19980  .debug_str:0000000000002acc .LASF821
C:\Users\stapi\AppData\Local\Temp\cc9ZvSHH.s:18904  .debug_str:0000000000000ba0 .LASF822
C:\Users\stapi\AppData\Local\Temp\cc9ZvSHH.s:19114  .debug_str:00000000000011a5 .LASF823
C:\Users\stapi\AppData\Local\Temp\cc9ZvSHH.s:18756  .debug_str:000000000000074e .LASF824
C:\Users\stapi\AppData\Local\Temp\cc9ZvSHH.s:19754  .debug_str:000000000000241a .LASF825
C:\Users\stapi\AppData\Local\Temp\cc9ZvSHH.s:19296  .debug_str:00000000000016cd .LASF826
C:\Users\stapi\AppData\Local\Temp\cc9ZvSHH.s:20912  .debug_str:0000000000004754 .LASF827
C:\Users\stapi\AppData\Local\Temp\cc9ZvSHH.s:20442  .debug_str:00000000000039ba .LASF828
C:\Users\stapi\AppData\Local\Temp\cc9ZvSHH.s:19362  .debug_str:00000000000018b8 .LASF829
C:\Users\stapi\AppData\Local\Temp\cc9ZvSHH.s:19386  .debug_str:000000000000198e .LASF830
C:\Users\stapi\AppData\Local\Temp\cc9ZvSHH.s:19726  .debug_str:0000000000002331 .LASF831
C:\Users\stapi\AppData\Local\Temp\cc9ZvSHH.s:20596  .debug_str:0000000000003e5e .LASF832
C:\Users\stapi\AppData\Local\Temp\cc9ZvSHH.s:20424  .debug_str:000000000000394f .LASF833
C:\Users\stapi\AppData\Local\Temp\cc9ZvSHH.s:21220  .debug_str:0000000000005068 .LASF834
C:\Users\stapi\AppData\Local\Temp\cc9ZvSHH.s:20474  .debug_str:0000000000003b16 .LASF835
C:\Users\stapi\AppData\Local\Temp\cc9ZvSHH.s:21184  .debug_str:0000000000004f3b .LASF836
C:\Users\stapi\AppData\Local\Temp\cc9ZvSHH.s:21166  .debug_str:0000000000004ec7 .LASF837
C:\Users\stapi\AppData\Local\Temp\cc9ZvSHH.s:20140  .debug_str:0000000000002fa9 .LASF838
C:\Users\stapi\AppData\Local\Temp\cc9ZvSHH.s:19166  .debug_str:0000000000001338 .LASF839
C:\Users\stapi\AppData\Local\Temp\cc9ZvSHH.s:21042  .debug_str:0000000000004b18 .LASF840
C:\Users\stapi\AppData\Local\Temp\cc9ZvSHH.s:20050  .debug_str:0000000000002cea .LASF841
C:\Users\stapi\AppData\Local\Temp\cc9ZvSHH.s:19530  .debug_str:0000000000001d58 .LASF842
C:\Users\stapi\AppData\Local\Temp\cc9ZvSHH.s:19920  .debug_str:0000000000002933 .LASF843
C:\Users\stapi\AppData\Local\Temp\cc9ZvSHH.s:18722  .debug_str:000000000000068b .LASF844
C:\Users\stapi\AppData\Local\Temp\cc9ZvSHH.s:20682  .debug_str:00000000000040a4 .LASF845
C:\Users\stapi\AppData\Local\Temp\cc9ZvSHH.s:19276  .debug_str:0000000000001655 .LASF846
C:\Users\stapi\AppData\Local\Temp\cc9ZvSHH.s:19466  .debug_str:0000000000001bac .LASF847
C:\Users\stapi\AppData\Local\Temp\cc9ZvSHH.s:20094  .debug_str:0000000000002e2a .LASF848
C:\Users\stapi\AppData\Local\Temp\cc9ZvSHH.s:20800  .debug_str:0000000000004414 .LASF849
C:\Users\stapi\AppData\Local\Temp\cc9ZvSHH.s:19864  .debug_str:00000000000027a1 .LASF850
C:\Users\stapi\AppData\Local\Temp\cc9ZvSHH.s:20418  .debug_str:0000000000003925 .LASF851
C:\Users\stapi\AppData\Local\Temp\cc9ZvSHH.s:19240  .debug_str:0000000000001548 .LASF852
C:\Users\stapi\AppData\Local\Temp\cc9ZvSHH.s:20300  .debug_str:0000000000003590 .LASF853
C:\Users\stapi\AppData\Local\Temp\cc9ZvSHH.s:20570  .debug_str:0000000000003da9 .LASF854
C:\Users\stapi\AppData\Local\Temp\cc9ZvSHH.s:18942  .debug_str:0000000000000ccc .LASF855
C:\Users\stapi\AppData\Local\Temp\cc9ZvSHH.s:20538  .debug_str:0000000000003cb1 .LASF856
C:\Users\stapi\AppData\Local\Temp\cc9ZvSHH.s:21320  .debug_str:0000000000005349 .LASF857
C:\Users\stapi\AppData\Local\Temp\cc9ZvSHH.s:20308  .debug_str:00000000000035dd .LASF858
C:\Users\stapi\AppData\Local\Temp\cc9ZvSHH.s:20902  .debug_str:000000000000470b .LASF859
C:\Users\stapi\AppData\Local\Temp\cc9ZvSHH.s:21078  .debug_str:0000000000004c49 .LASF860
C:\Users\stapi\AppData\Local\Temp\cc9ZvSHH.s:19524  .debug_str:0000000000001d3c .LASF861
C:\Users\stapi\AppData\Local\Temp\cc9ZvSHH.s:20178  .debug_str:00000000000030c9 .LASF862
C:\Users\stapi\AppData\Local\Temp\cc9ZvSHH.s:20292  .debug_str:0000000000003548 .LASF863
C:\Users\stapi\AppData\Local\Temp\cc9ZvSHH.s:19154  .debug_str:00000000000012ef .LASF864
C:\Users\stapi\AppData\Local\Temp\cc9ZvSHH.s:19196  .debug_str:00000000000013ee .LASF865
C:\Users\stapi\AppData\Local\Temp\cc9ZvSHH.s:18994  .debug_str:0000000000000e3d .LASF866
C:\Users\stapi\AppData\Local\Temp\cc9ZvSHH.s:18668  .debug_str:0000000000000500 .LASF867
C:\Users\stapi\AppData\Local\Temp\cc9ZvSHH.s:20696  .debug_str:0000000000004114 .LASF868
C:\Users\stapi\AppData\Local\Temp\cc9ZvSHH.s:19260  .debug_str:00000000000015f2 .LASF869
C:\Users\stapi\AppData\Local\Temp\cc9ZvSHH.s:20234  .debug_str:0000000000003372 .LASF870
C:\Users\stapi\AppData\Local\Temp\cc9ZvSHH.s:20732  .debug_str:00000000000041ff .LASF871
C:\Users\stapi\AppData\Local\Temp\cc9ZvSHH.s:19264  .debug_str:0000000000001603 .LASF872
C:\Users\stapi\AppData\Local\Temp\cc9ZvSHH.s:21172  .debug_str:0000000000004ee1 .LASF873
C:\Users\stapi\AppData\Local\Temp\cc9ZvSHH.s:19748  .debug_str:00000000000023ef .LASF874
C:\Users\stapi\AppData\Local\Temp\cc9ZvSHH.s:21110  .debug_str:0000000000004d23 .LASF875
C:\Users\stapi\AppData\Local\Temp\cc9ZvSHH.s:18858  .debug_str:0000000000000a2f .LASF876
C:\Users\stapi\AppData\Local\Temp\cc9ZvSHH.s:20582  .debug_str:0000000000003df4 .LASF877
C:\Users\stapi\AppData\Local\Temp\cc9ZvSHH.s:19036  .debug_str:0000000000000f89 .LASF878
C:\Users\stapi\AppData\Local\Temp\cc9ZvSHH.s:20406  .debug_str:00000000000038cd .LASF879
C:\Users\stapi\AppData\Local\Temp\cc9ZvSHH.s:21018  .debug_str:0000000000004a73 .LASF880
C:\Users\stapi\AppData\Local\Temp\cc9ZvSHH.s:21508  .debug_str:0000000000005962 .LASF881
C:\Users\stapi\AppData\Local\Temp\cc9ZvSHH.s:19926  .debug_str:000000000000295d .LASF882
C:\Users\stapi\AppData\Local\Temp\cc9ZvSHH.s:19062  .debug_str:000000000000104b .LASF883
C:\Users\stapi\AppData\Local\Temp\cc9ZvSHH.s:20560  .debug_str:0000000000003d60 .LASF884
C:\Users\stapi\AppData\Local\Temp\cc9ZvSHH.s:20660  .debug_str:0000000000004017 .LASF885
C:\Users\stapi\AppData\Local\Temp\cc9ZvSHH.s:21080  .debug_str:0000000000004c4f .LASF886
C:\Users\stapi\AppData\Local\Temp\cc9ZvSHH.s:20432  .debug_str:000000000000397f .LASF887
C:\Users\stapi\AppData\Local\Temp\cc9ZvSHH.s:21186  .debug_str:0000000000004f50 .LASF888
C:\Users\stapi\AppData\Local\Temp\cc9ZvSHH.s:19862  .debug_str:000000000000279b .LASF889
C:\Users\stapi\AppData\Local\Temp\cc9ZvSHH.s:20960  .debug_str:00000000000048e1 .LASF890
C:\Users\stapi\AppData\Local\Temp\cc9ZvSHH.s:18684  .debug_str:0000000000000575 .LASF891
C:\Users\stapi\AppData\Local\Temp\cc9ZvSHH.s:19984  .debug_str:0000000000002aea .LASF892
C:\Users\stapi\AppData\Local\Temp\cc9ZvSHH.s:18806  .debug_str:00000000000008d3 .LASF893
C:\Users\stapi\AppData\Local\Temp\cc9ZvSHH.s:19146  .debug_str:00000000000012a3 .LASF894
C:\Users\stapi\AppData\Local\Temp\cc9ZvSHH.s:21244  .debug_str:0000000000005119 .LASF895
C:\Users\stapi\AppData\Local\Temp\cc9ZvSHH.s:20396  .debug_str:0000000000003878 .LASF896
C:\Users\stapi\AppData\Local\Temp\cc9ZvSHH.s:21212  .debug_str:0000000000005039 .LASF897
C:\Users\stapi\AppData\Local\Temp\cc9ZvSHH.s:18820  .debug_str:0000000000000921 .LASF898
C:\Users\stapi\AppData\Local\Temp\cc9ZvSHH.s:20794  .debug_str:00000000000043df .LASF899
C:\Users\stapi\AppData\Local\Temp\cc9ZvSHH.s:18936  .debug_str:0000000000000c97 .LASF900
C:\Users\stapi\AppData\Local\Temp\cc9ZvSHH.s:19432  .debug_str:0000000000001abc .LASF901
C:\Users\stapi\AppData\Local\Temp\cc9ZvSHH.s:20568  .debug_str:0000000000003da0 .LASF902
C:\Users\stapi\AppData\Local\Temp\cc9ZvSHH.s:19592  .debug_str:0000000000001f1e .LASF903
C:\Users\stapi\AppData\Local\Temp\cc9ZvSHH.s:19626  .debug_str:0000000000002041 .LASF904
C:\Users\stapi\AppData\Local\Temp\cc9ZvSHH.s:20088  .debug_str:0000000000002e0c .LASF905
C:\Users\stapi\AppData\Local\Temp\cc9ZvSHH.s:21426  .debug_str:00000000000056e6 .LASF906
C:\Users\stapi\AppData\Local\Temp\cc9ZvSHH.s:19612  .debug_str:0000000000001fd3 .LASF907
C:\Users\stapi\AppData\Local\Temp\cc9ZvSHH.s:20792  .debug_str:00000000000043d6 .LASF908
C:\Users\stapi\AppData\Local\Temp\cc9ZvSHH.s:21282  .debug_str:0000000000005238 .LASF909
C:\Users\stapi\AppData\Local\Temp\cc9ZvSHH.s:19814  .debug_str:0000000000002613 .LASF910
C:\Users\stapi\AppData\Local\Temp\cc9ZvSHH.s:18696  .debug_str:00000000000005b9 .LASF911
C:\Users\stapi\AppData\Local\Temp\cc9ZvSHH.s:19292  .debug_str:00000000000016bf .LASF912
C:\Users\stapi\AppData\Local\Temp\cc9ZvSHH.s:19272  .debug_str:000000000000163c .LASF913
C:\Users\stapi\AppData\Local\Temp\cc9ZvSHH.s:19032  .debug_str:0000000000000f65 .LASF914
C:\Users\stapi\AppData\Local\Temp\cc9ZvSHH.s:21288  .debug_str:0000000000005263 .LASF915
C:\Users\stapi\AppData\Local\Temp\cc9ZvSHH.s:20468  .debug_str:0000000000003aef .LASF916
C:\Users\stapi\AppData\Local\Temp\cc9ZvSHH.s:20414  .debug_str:0000000000003910 .LASF917
C:\Users\stapi\AppData\Local\Temp\cc9ZvSHH.s:19914  .debug_str:000000000000290c .LASF918
C:\Users\stapi\AppData\Local\Temp\cc9ZvSHH.s:18606  .debug_str:0000000000000344 .LASF919
C:\Users\stapi\AppData\Local\Temp\cc9ZvSHH.s:19188  .debug_str:00000000000013be .LASF920
C:\Users\stapi\AppData\Local\Temp\cc9ZvSHH.s:20290  .debug_str:0000000000003537 .LASF921
C:\Users\stapi\AppData\Local\Temp\cc9ZvSHH.s:19344  .debug_str:0000000000001834 .LASF922
C:\Users\stapi\AppData\Local\Temp\cc9ZvSHH.s:20558  .debug_str:0000000000003d55 .LASF923
C:\Users\stapi\AppData\Local\Temp\cc9ZvSHH.s:20860  .debug_str:00000000000045d3 .LASF924
C:\Users\stapi\AppData\Local\Temp\cc9ZvSHH.s:19168  .debug_str:000000000000133d .LASF925
C:\Users\stapi\AppData\Local\Temp\cc9ZvSHH.s:20242  .debug_str:000000000000339f .LASF926
C:\Users\stapi\AppData\Local\Temp\cc9ZvSHH.s:20030  .debug_str:0000000000002c61 .LASF927
C:\Users\stapi\AppData\Local\Temp\cc9ZvSHH.s:20032  .debug_str:0000000000002c6e .LASF928
C:\Users\stapi\AppData\Local\Temp\cc9ZvSHH.s:20808  .debug_str:000000000000445b .LASF929
C:\Users\stapi\AppData\Local\Temp\cc9ZvSHH.s:18902  .debug_str:0000000000000b85 .LASF930
C:\Users\stapi\AppData\Local\Temp\cc9ZvSHH.s:20000  .debug_str:0000000000002b63 .LASF931
C:\Users\stapi\AppData\Local\Temp\cc9ZvSHH.s:19458  .debug_str:0000000000001b70 .LASF932
C:\Users\stapi\AppData\Local\Temp\cc9ZvSHH.s:20594  .debug_str:0000000000003e52 .LASF933
C:\Users\stapi\AppData\Local\Temp\cc9ZvSHH.s:19470  .debug_str:0000000000001bcb .LASF934
C:\Users\stapi\AppData\Local\Temp\cc9ZvSHH.s:18770  .debug_str:00000000000007b9 .LASF935
C:\Users\stapi\AppData\Local\Temp\cc9ZvSHH.s:19332  .debug_str:00000000000017d9 .LASF936
C:\Users\stapi\AppData\Local\Temp\cc9ZvSHH.s:21400  .debug_str:0000000000005619 .LASF937
C:\Users\stapi\AppData\Local\Temp\cc9ZvSHH.s:18570  .debug_str:000000000000021d .LASF938
C:\Users\stapi\AppData\Local\Temp\cc9ZvSHH.s:19008  .debug_str:0000000000000ea9 .LASF939
C:\Users\stapi\AppData\Local\Temp\cc9ZvSHH.s:20914  .debug_str:0000000000004763 .LASF940
C:\Users\stapi\AppData\Local\Temp\cc9ZvSHH.s:19452  .debug_str:0000000000001b5b .LASF941
C:\Users\stapi\AppData\Local\Temp\cc9ZvSHH.s:19558  .debug_str:0000000000001e33 .LASF942
C:\Users\stapi\AppData\Local\Temp\cc9ZvSHH.s:19734  .debug_str:000000000000237c .LASF943
C:\Users\stapi\AppData\Local\Temp\cc9ZvSHH.s:19588  .debug_str:0000000000001eff .LASF944
C:\Users\stapi\AppData\Local\Temp\cc9ZvSHH.s:19072  .debug_str:000000000000108b .LASF945
C:\Users\stapi\AppData\Local\Temp\cc9ZvSHH.s:18572  .debug_str:0000000000000228 .LASF946
C:\Users\stapi\AppData\Local\Temp\cc9ZvSHH.s:20510  .debug_str:0000000000003bf7 .LASF947
C:\Users\stapi\AppData\Local\Temp\cc9ZvSHH.s:20286  .debug_str:0000000000003519 .LASF948
C:\Users\stapi\AppData\Local\Temp\cc9ZvSHH.s:21302  .debug_str:00000000000052ca .LASF949
C:\Users\stapi\AppData\Local\Temp\cc9ZvSHH.s:21344  .debug_str:000000000000548b .LASF950
C:\Users\stapi\AppData\Local\Temp\cc9ZvSHH.s:20238  .debug_str:000000000000338d .LASF951
C:\Users\stapi\AppData\Local\Temp\cc9ZvSHH.s:20048  .debug_str:0000000000002cde .LASF952
C:\Users\stapi\AppData\Local\Temp\cc9ZvSHH.s:19214  .debug_str:000000000000149e .LASF953
C:\Users\stapi\AppData\Local\Temp\cc9ZvSHH.s:21214  .debug_str:0000000000005047 .LASF954
C:\Users\stapi\AppData\Local\Temp\cc9ZvSHH.s:20942  .debug_str:000000000000485f .LASF955
C:\Users\stapi\AppData\Local\Temp\cc9ZvSHH.s:19426  .debug_str:0000000000001a9c .LASF956
C:\Users\stapi\AppData\Local\Temp\cc9ZvSHH.s:20022  .debug_str:0000000000002c1d .LASF957
C:\Users\stapi\AppData\Local\Temp\cc9ZvSHH.s:18654  .debug_str:0000000000000497 .LASF958
C:\Users\stapi\AppData\Local\Temp\cc9ZvSHH.s:20226  .debug_str:0000000000003331 .LASF959
C:\Users\stapi\AppData\Local\Temp\cc9ZvSHH.s:19068  .debug_str:0000000000001078 .LASF960
C:\Users\stapi\AppData\Local\Temp\cc9ZvSHH.s:19300  .debug_str:00000000000016f2 .LASF961
C:\Users\stapi\AppData\Local\Temp\cc9ZvSHH.s:19440  .debug_str:0000000000001af8 .LASF962
C:\Users\stapi\AppData\Local\Temp\cc9ZvSHH.s:19828  .debug_str:0000000000002685 .LASF963
C:\Users\stapi\AppData\Local\Temp\cc9ZvSHH.s:20268  .debug_str:000000000000348b .LASF964
C:\Users\stapi\AppData\Local\Temp\cc9ZvSHH.s:20658  .debug_str:0000000000004004 .LASF965
C:\Users\stapi\AppData\Local\Temp\cc9ZvSHH.s:18630  .debug_str:00000000000003ec .LASF966
C:\Users\stapi\AppData\Local\Temp\cc9ZvSHH.s:18560  .debug_str:00000000000001c5 .LASF967
C:\Users\stapi\AppData\Local\Temp\cc9ZvSHH.s:18724  .debug_str:0000000000000696 .LASF968
C:\Users\stapi\AppData\Local\Temp\cc9ZvSHH.s:20556  .debug_str:0000000000003d4b .LASF969
C:\Users\stapi\AppData\Local\Temp\cc9ZvSHH.s:18712  .debug_str:0000000000000639 .LASF970
C:\Users\stapi\AppData\Local\Temp\cc9ZvSHH.s:20334  .debug_str:000000000000369b .LASF971
C:\Users\stapi\AppData\Local\Temp\cc9ZvSHH.s:21512  .debug_str:000000000000597d .LASF972
C:\Users\stapi\AppData\Local\Temp\cc9ZvSHH.s:20940  .debug_str:0000000000004854 .LASF973
C:\Users\stapi\AppData\Local\Temp\cc9ZvSHH.s:20434  .debug_str:0000000000003989 .LASF974
C:\Users\stapi\AppData\Local\Temp\cc9ZvSHH.s:21324  .debug_str:0000000000005369 .LASF975
C:\Users\stapi\AppData\Local\Temp\cc9ZvSHH.s:19596  .debug_str:0000000000001f47 .LASF976
C:\Users\stapi\AppData\Local\Temp\cc9ZvSHH.s:20410  .debug_str:00000000000038ec .LASF977
C:\Users\stapi\AppData\Local\Temp\cc9ZvSHH.s:18710  .debug_str:000000000000062a .LASF978
C:\Users\stapi\AppData\Local\Temp\cc9ZvSHH.s:20618  .debug_str:0000000000003f01 .LASF979
C:\Users\stapi\AppData\Local\Temp\cc9ZvSHH.s:20990  .debug_str:00000000000049a5 .LASF980
C:\Users\stapi\AppData\Local\Temp\cc9ZvSHH.s:20830  .debug_str:00000000000044d6 .LASF981
C:\Users\stapi\AppData\Local\Temp\cc9ZvSHH.s:19456  .debug_str:0000000000001b6b .LASF982
C:\Users\stapi\AppData\Local\Temp\cc9ZvSHH.s:18964  .debug_str:0000000000000d69 .LASF983
C:\Users\stapi\AppData\Local\Temp\cc9ZvSHH.s:19394  .debug_str:00000000000019b6 .LASF984
C:\Users\stapi\AppData\Local\Temp\cc9ZvSHH.s:20428  .debug_str:0000000000003964 .LASF985
C:\Users\stapi\AppData\Local\Temp\cc9ZvSHH.s:20186  .debug_str:00000000000030f2 .LASF986
C:\Users\stapi\AppData\Local\Temp\cc9ZvSHH.s:21278  .debug_str:0000000000005212 .LASF987
C:\Users\stapi\AppData\Local\Temp\cc9ZvSHH.s:18834  .debug_str:0000000000000977 .LASF988
C:\Users\stapi\AppData\Local\Temp\cc9ZvSHH.s:21158  .debug_str:0000000000004e8a .LASF989
C:\Users\stapi\AppData\Local\Temp\cc9ZvSHH.s:18776  .debug_str:00000000000007e0 .LASF990
C:\Users\stapi\AppData\Local\Temp\cc9ZvSHH.s:18512  .debug_str:000000000000006a .LASF991
C:\Users\stapi\AppData\Local\Temp\cc9ZvSHH.s:20726  .debug_str:00000000000041cb .LASF992
C:\Users\stapi\AppData\Local\Temp\cc9ZvSHH.s:21486  .debug_str:00000000000058be .LASF993
C:\Users\stapi\AppData\Local\Temp\cc9ZvSHH.s:21198  .debug_str:0000000000004fcb .LASF994
C:\Users\stapi\AppData\Local\Temp\cc9ZvSHH.s:21024  .debug_str:0000000000004a9b .LASF995
C:\Users\stapi\AppData\Local\Temp\cc9ZvSHH.s:19098  .debug_str:000000000000113d .LASF996
C:\Users\stapi\AppData\Local\Temp\cc9ZvSHH.s:19858  .debug_str:0000000000002782 .LASF997
C:\Users\stapi\AppData\Local\Temp\cc9ZvSHH.s:19504  .debug_str:0000000000001ca2 .LASF998
C:\Users\stapi\AppData\Local\Temp\cc9ZvSHH.s:19132  .debug_str:0000000000001235 .LASF999
C:\Users\stapi\AppData\Local\Temp\cc9ZvSHH.s:19758  .debug_str:000000000000243c .LASF1000
C:\Users\stapi\AppData\Local\Temp\cc9ZvSHH.s:18846  .debug_str:00000000000009c3 .LASF1001
C:\Users\stapi\AppData\Local\Temp\cc9ZvSHH.s:18504  .debug_str:0000000000000022 .LASF1002
C:\Users\stapi\AppData\Local\Temp\cc9ZvSHH.s:18562  .debug_str:00000000000001d2 .LASF1003
C:\Users\stapi\AppData\Local\Temp\cc9ZvSHH.s:19320  .debug_str:0000000000001787 .LASF1004
C:\Users\stapi\AppData\Local\Temp\cc9ZvSHH.s:20814  .debug_str:0000000000004482 .LASF1005
C:\Users\stapi\AppData\Local\Temp\cc9ZvSHH.s:20382  .debug_str:0000000000003818 .LASF1006
C:\Users\stapi\AppData\Local\Temp\cc9ZvSHH.s:20498  .debug_str:0000000000003bad .LASF1007
C:\Users\stapi\AppData\Local\Temp\cc9ZvSHH.s:20314  .debug_str:0000000000003603 .LASF1008
C:\Users\stapi\AppData\Local\Temp\cc9ZvSHH.s:19810  .debug_str:00000000000025f4 .LASF1009
C:\Users\stapi\AppData\Local\Temp\cc9ZvSHH.s:20932  .debug_str:00000000000047fc .LASF1010
C:\Users\stapi\AppData\Local\Temp\cc9ZvSHH.s:20214  .debug_str:00000000000032b2 .LASF1011
C:\Users\stapi\AppData\Local\Temp\cc9ZvSHH.s:21322  .debug_str:000000000000534e .LASF1012
C:\Users\stapi\AppData\Local\Temp\cc9ZvSHH.s:21264  .debug_str:00000000000051b1 .LASF1013
C:\Users\stapi\AppData\Local\Temp\cc9ZvSHH.s:18638  .debug_str:000000000000041e .LASF1014
C:\Users\stapi\AppData\Local\Temp\cc9ZvSHH.s:20690  .debug_str:00000000000040ea .LASF1015
C:\Users\stapi\AppData\Local\Temp\cc9ZvSHH.s:20248  .debug_str:00000000000033c8 .LASF1016
C:\Users\stapi\AppData\Local\Temp\cc9ZvSHH.s:19044  .debug_str:0000000000000fbe .LASF1017
C:\Users\stapi\AppData\Local\Temp\cc9ZvSHH.s:20392  .debug_str:0000000000003845 .LASF1018
C:\Users\stapi\AppData\Local\Temp\cc9ZvSHH.s:19538  .debug_str:0000000000001d8e .LASF1019
C:\Users\stapi\AppData\Local\Temp\cc9ZvSHH.s:18522  .debug_str:00000000000000aa .LASF1020
C:\Users\stapi\AppData\Local\Temp\cc9ZvSHH.s:20970  .debug_str:0000000000004910 .LASF1021
C:\Users\stapi\AppData\Local\Temp\cc9ZvSHH.s:20370  .debug_str:00000000000037b4 .LASF1022
C:\Users\stapi\AppData\Local\Temp\cc9ZvSHH.s:19502  .debug_str:0000000000001c88 .LASF1023
C:\Users\stapi\AppData\Local\Temp\cc9ZvSHH.s:18794  .debug_str:0000000000000881 .LASF1024
C:\Users\stapi\AppData\Local\Temp\cc9ZvSHH.s:19410  .debug_str:0000000000001a26 .LASF1025
C:\Users\stapi\AppData\Local\Temp\cc9ZvSHH.s:20170  .debug_str:0000000000003086 .LASF1026
C:\Users\stapi\AppData\Local\Temp\cc9ZvSHH.s:20372  .debug_str:00000000000037bf .LASF1027
C:\Users\stapi\AppData\Local\Temp\cc9ZvSHH.s:19994  .debug_str:0000000000002b28 .LASF1028
C:\Users\stapi\AppData\Local\Temp\cc9ZvSHH.s:20516  .debug_str:0000000000003c1d .LASF1029
C:\Users\stapi\AppData\Local\Temp\cc9ZvSHH.s:20750  .debug_str:000000000000429f .LASF1030
C:\Users\stapi\AppData\Local\Temp\cc9ZvSHH.s:19348  .debug_str:000000000000184e .LASF1031
C:\Users\stapi\AppData\Local\Temp\cc9ZvSHH.s:21248  .debug_str:0000000000005143 .LASF1032
C:\Users\stapi\AppData\Local\Temp\cc9ZvSHH.s:21430  .debug_str:0000000000005714 .LASF1033
C:\Users\stapi\AppData\Local\Temp\cc9ZvSHH.s:19486  .debug_str:0000000000001c24 .LASF1034
C:\Users\stapi\AppData\Local\Temp\cc9ZvSHH.s:19224  .debug_str:00000000000014d5 .LASF1035
C:\Users\stapi\AppData\Local\Temp\cc9ZvSHH.s:19890  .debug_str:0000000000002852 .LASF1036
C:\Users\stapi\AppData\Local\Temp\cc9ZvSHH.s:20896  .debug_str:00000000000046db .LASF1037
C:\Users\stapi\AppData\Local\Temp\cc9ZvSHH.s:19262  .debug_str:00000000000015f8 .LASF1038
C:\Users\stapi\AppData\Local\Temp\cc9ZvSHH.s:20826  .debug_str:00000000000044bf .LASF1039
C:\Users\stapi\AppData\Local\Temp\cc9ZvSHH.s:20642  .debug_str:0000000000003fa0 .LASF1040
C:\Users\stapi\AppData\Local\Temp\cc9ZvSHH.s:19178  .debug_str:000000000000137e .LASF1041
C:\Users\stapi\AppData\Local\Temp\cc9ZvSHH.s:20644  .debug_str:0000000000003fa9 .LASF1042
C:\Users\stapi\AppData\Local\Temp\cc9ZvSHH.s:20986  .debug_str:0000000000004985 .LASF1043
C:\Users\stapi\AppData\Local\Temp\cc9ZvSHH.s:20840  .debug_str:0000000000004525 .LASF1044
C:\Users\stapi\AppData\Local\Temp\cc9ZvSHH.s:20144  .debug_str:0000000000002fba .LASF1045
C:\Users\stapi\AppData\Local\Temp\cc9ZvSHH.s:19364  .debug_str:00000000000018c3 .LASF1046
C:\Users\stapi\AppData\Local\Temp\cc9ZvSHH.s:19996  .debug_str:0000000000002b37 .LASF1047
C:\Users\stapi\AppData\Local\Temp\cc9ZvSHH.s:21474  .debug_str:000000000000584c .LASF1048
C:\Users\stapi\AppData\Local\Temp\cc9ZvSHH.s:19046  .debug_str:0000000000000fc9 .LASF1049
C:\Users\stapi\AppData\Local\Temp\cc9ZvSHH.s:19678  .debug_str:00000000000021c3 .LASF1050
C:\Users\stapi\AppData\Local\Temp\cc9ZvSHH.s:21194  .debug_str:0000000000004f97 .LASF1051
C:\Users\stapi\AppData\Local\Temp\cc9ZvSHH.s:21514  .debug_str:0000000000005997 .LASF1052
C:\Users\stapi\AppData\Local\Temp\cc9ZvSHH.s:20832  .debug_str:00000000000044df .LASF1053
C:\Users\stapi\AppData\Local\Temp\cc9ZvSHH.s:20368  .debug_str:00000000000037a1 .LASF1054
C:\Users\stapi\AppData\Local\Temp\cc9ZvSHH.s:19104  .debug_str:0000000000001162 .LASF1055
C:\Users\stapi\AppData\Local\Temp\cc9ZvSHH.s:21450  .debug_str:00000000000057a8 .LASF1056
C:\Users\stapi\AppData\Local\Temp\cc9ZvSHH.s:20322  .debug_str:0000000000003642 .LASF1057
C:\Users\stapi\AppData\Local\Temp\cc9ZvSHH.s:20988  .debug_str:000000000000498c .LASF1058
C:\Users\stapi\AppData\Local\Temp\cc9ZvSHH.s:20572  .debug_str:0000000000003db2 .LASF1059
C:\Users\stapi\AppData\Local\Temp\cc9ZvSHH.s:20626  .debug_str:0000000000003f30 .LASF1060
C:\Users\stapi\AppData\Local\Temp\cc9ZvSHH.s:20868  .debug_str:00000000000045ff .LASF1061
C:\Users\stapi\AppData\Local\Temp\cc9ZvSHH.s:19290  .debug_str:00000000000016b5 .LASF1062
C:\Users\stapi\AppData\Local\Temp\cc9ZvSHH.s:20202  .debug_str:0000000000003260 .LASF1063
C:\Users\stapi\AppData\Local\Temp\cc9ZvSHH.s:21210  .debug_str:0000000000005027 .LASF1064
C:\Users\stapi\AppData\Local\Temp\cc9ZvSHH.s:20122  .debug_str:0000000000002f00 .LASF1065
C:\Users\stapi\AppData\Local\Temp\cc9ZvSHH.s:19948  .debug_str:00000000000029f3 .LASF1066
C:\Users\stapi\AppData\Local\Temp\cc9ZvSHH.s:21396  .debug_str:00000000000055f0 .LASF1067
C:\Users\stapi\AppData\Local\Temp\cc9ZvSHH.s:19298  .debug_str:00000000000016e7 .LASF1068
C:\Users\stapi\AppData\Local\Temp\cc9ZvSHH.s:21030  .debug_str:0000000000004ab9 .LASF1069
C:\Users\stapi\AppData\Local\Temp\cc9ZvSHH.s:18648  .debug_str:000000000000046b .LASF1070
C:\Users\stapi\AppData\Local\Temp\cc9ZvSHH.s:20276  .debug_str:00000000000034c4 .LASF1071
C:\Users\stapi\AppData\Local\Temp\cc9ZvSHH.s:21402  .debug_str:0000000000005635 .LASF1072
C:\Users\stapi\AppData\Local\Temp\cc9ZvSHH.s:18732  .debug_str:00000000000006d8 .LASF1073
C:\Users\stapi\AppData\Local\Temp\cc9ZvSHH.s:21498  .debug_str:0000000000005912 .LASF1074
C:\Users\stapi\AppData\Local\Temp\cc9ZvSHH.s:20782  .debug_str:000000000000437d .LASF1075
C:\Users\stapi\AppData\Local\Temp\cc9ZvSHH.s:21334  .debug_str:0000000000005436 .LASF1076
C:\Users\stapi\AppData\Local\Temp\cc9ZvSHH.s:19444  .debug_str:0000000000001b16 .LASF1077
C:\Users\stapi\AppData\Local\Temp\cc9ZvSHH.s:19710  .debug_str:00000000000022b6 .LASF1078
C:\Users\stapi\AppData\Local\Temp\cc9ZvSHH.s:19438  .debug_str:0000000000001ae6 .LASF1079
C:\Users\stapi\AppData\Local\Temp\cc9ZvSHH.s:20858  .debug_str:00000000000045c3 .LASF1080
C:\Users\stapi\AppData\Local\Temp\cc9ZvSHH.s:21120  .debug_str:0000000000004d70 .LASF1081
C:\Users\stapi\AppData\Local\Temp\cc9ZvSHH.s:21260  .debug_str:0000000000005195 .LASF1082
C:\Users\stapi\AppData\Local\Temp\cc9ZvSHH.s:20166  .debug_str:0000000000003065 .LASF1083
C:\Users\stapi\AppData\Local\Temp\cc9ZvSHH.s:20702  .debug_str:000000000000412c .LASF1084
C:\Users\stapi\AppData\Local\Temp\cc9ZvSHH.s:19944  .debug_str:00000000000029d8 .LASF1085
C:\Users\stapi\AppData\Local\Temp\cc9ZvSHH.s:21200  .debug_str:0000000000004fdb .LASF1086
C:\Users\stapi\AppData\Local\Temp\cc9ZvSHH.s:18690  .debug_str:000000000000059f .LASF1087
C:\Users\stapi\AppData\Local\Temp\cc9ZvSHH.s:18940  .debug_str:0000000000000cc5 .LASF1088
C:\Users\stapi\AppData\Local\Temp\cc9ZvSHH.s:20828  .debug_str:00000000000044cf .LASF1089
C:\Users\stapi\AppData\Local\Temp\cc9ZvSHH.s:21072  .debug_str:0000000000004c20 .LASF1090
C:\Users\stapi\AppData\Local\Temp\cc9ZvSHH.s:19784  .debug_str:000000000000250a .LASF1091
C:\Users\stapi\AppData\Local\Temp\cc9ZvSHH.s:18938  .debug_str:0000000000000cae .LASF1092
C:\Users\stapi\AppData\Local\Temp\cc9ZvSHH.s:20514  .debug_str:0000000000003c12 .LASF1093
C:\Users\stapi\AppData\Local\Temp\cc9ZvSHH.s:20310  .debug_str:00000000000035ea .LASF1094
C:\Users\stapi\AppData\Local\Temp\cc9ZvSHH.s:19130  .debug_str:0000000000001226 .LASF1095
C:\Users\stapi\AppData\Local\Temp\cc9ZvSHH.s:19898  .debug_str:0000000000002892 .LASF1096
C:\Users\stapi\AppData\Local\Temp\cc9ZvSHH.s:18604  .debug_str:0000000000000334 .LASF1097
C:\Users\stapi\AppData\Local\Temp\cc9ZvSHH.s:20168  .debug_str:0000000000003075 .LASF1098
C:\Users\stapi\AppData\Local\Temp\cc9ZvSHH.s:20588  .debug_str:0000000000003e1c .LASF1099
C:\Users\stapi\AppData\Local\Temp\cc9ZvSHH.s:19322  .debug_str:00000000000017a3 .LASF1100
C:\Users\stapi\AppData\Local\Temp\cc9ZvSHH.s:20014  .debug_str:0000000000002bd9 .LASF1101
C:\Users\stapi\AppData\Local\Temp\cc9ZvSHH.s:20294  .debug_str:0000000000003551 .LASF1102
C:\Users\stapi\AppData\Local\Temp\cc9ZvSHH.s:19942  .debug_str:00000000000029cd .LASF1103
C:\Users\stapi\AppData\Local\Temp\cc9ZvSHH.s:19102  .debug_str:000000000000115a .LASF1104
C:\Users\stapi\AppData\Local\Temp\cc9ZvSHH.s:19660  .debug_str:0000000000002137 .LASF1105
C:\Users\stapi\AppData\Local\Temp\cc9ZvSHH.s:19786  .debug_str:0000000000002515 .LASF1106
C:\Users\stapi\AppData\Local\Temp\cc9ZvSHH.s:19992  .debug_str:0000000000002b1a .LASF1107
C:\Users\stapi\AppData\Local\Temp\cc9ZvSHH.s:19352  .debug_str:0000000000001869 .LASF1108
C:\Users\stapi\AppData\Local\Temp\cc9ZvSHH.s:19700  .debug_str:000000000000226d .LASF1109
C:\Users\stapi\AppData\Local\Temp\cc9ZvSHH.s:20686  .debug_str:00000000000040c6 .LASF1110
C:\Users\stapi\AppData\Local\Temp\cc9ZvSHH.s:21180  .debug_str:0000000000004f1a .LASF1111
C:\Users\stapi\AppData\Local\Temp\cc9ZvSHH.s:21480  .debug_str:0000000000005880 .LASF1112
C:\Users\stapi\AppData\Local\Temp\cc9ZvSHH.s:19722  .debug_str:0000000000002305 .LASF1113
C:\Users\stapi\AppData\Local\Temp\cc9ZvSHH.s:18932  .debug_str:0000000000000c78 .LASF1114
C:\Users\stapi\AppData\Local\Temp\cc9ZvSHH.s:18580  .debug_str:000000000000026d .LASF1115
C:\Users\stapi\AppData\Local\Temp\cc9ZvSHH.s:19630  .debug_str:000000000000206d .LASF1116
C:\Users\stapi\AppData\Local\Temp\cc9ZvSHH.s:20176  .debug_str:00000000000030b9 .LASF1117
C:\Users\stapi\AppData\Local\Temp\cc9ZvSHH.s:19566  .debug_str:0000000000001e6f .LASF1118
C:\Users\stapi\AppData\Local\Temp\cc9ZvSHH.s:20648  .debug_str:0000000000003fb9 .LASF1119
C:\Users\stapi\AppData\Local\Temp\cc9ZvSHH.s:21250  .debug_str:0000000000005154 .LASF1120
C:\Users\stapi\AppData\Local\Temp\cc9ZvSHH.s:18906  .debug_str:0000000000000bba .LASF1121
C:\Users\stapi\AppData\Local\Temp\cc9ZvSHH.s:20264  .debug_str:0000000000003472 .LASF1122
C:\Users\stapi\AppData\Local\Temp\cc9ZvSHH.s:20666  .debug_str:0000000000004043 .LASF1123
C:\Users\stapi\AppData\Local\Temp\cc9ZvSHH.s:21262  .debug_str:00000000000051a3 .LASF1124
C:\Users\stapi\AppData\Local\Temp\cc9ZvSHH.s:21204  .debug_str:0000000000004ffb .LASF1125
C:\Users\stapi\AppData\Local\Temp\cc9ZvSHH.s:20082  .debug_str:0000000000002de4 .LASF1126
C:\Users\stapi\AppData\Local\Temp\cc9ZvSHH.s:20436  .debug_str:0000000000003993 .LASF1127
C:\Users\stapi\AppData\Local\Temp\cc9ZvSHH.s:19080  .debug_str:00000000000010c8 .LASF1128
C:\Users\stapi\AppData\Local\Temp\cc9ZvSHH.s:19212  .debug_str:0000000000001486 .LASF1129
C:\Users\stapi\AppData\Local\Temp\cc9ZvSHH.s:21196  .debug_str:0000000000004fb6 .LASF1130
C:\Users\stapi\AppData\Local\Temp\cc9ZvSHH.s:19014  .debug_str:0000000000000ed6 .LASF1131
C:\Users\stapi\AppData\Local\Temp\cc9ZvSHH.s:19020  .debug_str:0000000000000f07 .LASF1132
C:\Users\stapi\AppData\Local\Temp\cc9ZvSHH.s:21504  .debug_str:000000000000593c .LASF1133
C:\Users\stapi\AppData\Local\Temp\cc9ZvSHH.s:21034  .debug_str:0000000000004adb .LASF1134
C:\Users\stapi\AppData\Local\Temp\cc9ZvSHH.s:20124  .debug_str:0000000000002f12 .LASF1135
C:\Users\stapi\AppData\Local\Temp\cc9ZvSHH.s:19628  .debug_str:0000000000002053 .LASF1136
C:\Users\stapi\AppData\Local\Temp\cc9ZvSHH.s:19078  .debug_str:00000000000010ad .LASF1137
C:\Users\stapi\AppData\Local\Temp\cc9ZvSHH.s:19238  .debug_str:000000000000152e .LASF1138
C:\Users\stapi\AppData\Local\Temp\cc9ZvSHH.s:19152  .debug_str:00000000000012da .LASF1139
C:\Users\stapi\AppData\Local\Temp\cc9ZvSHH.s:20344  .debug_str:00000000000036ea .LASF1140
C:\Users\stapi\AppData\Local\Temp\cc9ZvSHH.s:18660  .debug_str:00000000000004c2 .LASF1141
C:\Users\stapi\AppData\Local\Temp\cc9ZvSHH.s:19622  .debug_str:0000000000002023 .LASF1142
C:\Users\stapi\AppData\Local\Temp\cc9ZvSHH.s:21460  .debug_str:00000000000057fd .LASF1143
C:\Users\stapi\AppData\Local\Temp\cc9ZvSHH.s:20438  .debug_str:000000000000399f .LASF1144
C:\Users\stapi\AppData\Local\Temp\cc9ZvSHH.s:20174  .debug_str:00000000000030a7 .LASF1145
C:\Users\stapi\AppData\Local\Temp\cc9ZvSHH.s:19602  .debug_str:0000000000001f74 .LASF1146
C:\Users\stapi\AppData\Local\Temp\cc9ZvSHH.s:20106  .debug_str:0000000000002e74 .LASF1147
C:\Users\stapi\AppData\Local\Temp\cc9ZvSHH.s:19482  .debug_str:0000000000001c0e .LASF1148
C:\Users\stapi\AppData\Local\Temp\cc9ZvSHH.s:18612  .debug_str:000000000000036b .LASF1149
C:\Users\stapi\AppData\Local\Temp\cc9ZvSHH.s:18614  .debug_str:0000000000000377 .LASF1150
C:\Users\stapi\AppData\Local\Temp\cc9ZvSHH.s:19308  .debug_str:0000000000001726 .LASF1151
C:\Users\stapi\AppData\Local\Temp\cc9ZvSHH.s:20116  .debug_str:0000000000002ed2 .LASF1152
C:\Users\stapi\AppData\Local\Temp\cc9ZvSHH.s:19012  .debug_str:0000000000000ecd .LASF1153
C:\Users\stapi\AppData\Local\Temp\cc9ZvSHH.s:21364  .debug_str:0000000000005512 .LASF1154
C:\Users\stapi\AppData\Local\Temp\cc9ZvSHH.s:19974  .debug_str:0000000000002a9b .LASF1155
C:\Users\stapi\AppData\Local\Temp\cc9ZvSHH.s:20528  .debug_str:0000000000003c68 .LASF1156
C:\Users\stapi\AppData\Local\Temp\cc9ZvSHH.s:20524  .debug_str:0000000000003c4c .LASF1157
C:\Users\stapi\AppData\Local\Temp\cc9ZvSHH.s:20298  .debug_str:000000000000357e .LASF1158
C:\Users\stapi\AppData\Local\Temp\cc9ZvSHH.s:19662  .debug_str:0000000000002141 .LASF1159
C:\Users\stapi\AppData\Local\Temp\cc9ZvSHH.s:20224  .debug_str:0000000000003324 .LASF1160
C:\Users\stapi\AppData\Local\Temp\cc9ZvSHH.s:21376  .debug_str:000000000000556b .LASF1161
C:\Users\stapi\AppData\Local\Temp\cc9ZvSHH.s:19632  .debug_str:0000000000002075 .LASF1162
C:\Users\stapi\AppData\Local\Temp\cc9ZvSHH.s:21368  .debug_str:000000000000552b .LASF1163
C:\Users\stapi\AppData\Local\Temp\cc9ZvSHH.s:21266  .debug_str:00000000000051bd .LASF1164
C:\Users\stapi\AppData\Local\Temp\cc9ZvSHH.s:18658  .debug_str:00000000000004b5 .LASF1165
C:\Users\stapi\AppData\Local\Temp\cc9ZvSHH.s:18542  .debug_str:0000000000000138 .LASF1166
C:\Users\stapi\AppData\Local\Temp\cc9ZvSHH.s:19544  .debug_str:0000000000001da8 .LASF1167
C:\Users\stapi\AppData\Local\Temp\cc9ZvSHH.s:19844  .debug_str:000000000000270e .LASF1168
C:\Users\stapi\AppData\Local\Temp\cc9ZvSHH.s:18848  .debug_str:00000000000009e1 .LASF1169
C:\Users\stapi\AppData\Local\Temp\cc9ZvSHH.s:20062  .debug_str:0000000000002d32 .LASF1170
C:\Users\stapi\AppData\Local\Temp\cc9ZvSHH.s:20052  .debug_str:0000000000002cf7 .LASF1171
C:\Users\stapi\AppData\Local\Temp\cc9ZvSHH.s:19998  .debug_str:0000000000002b46 .LASF1172
C:\Users\stapi\AppData\Local\Temp\cc9ZvSHH.s:19010  .debug_str:0000000000000eb3 .LASF1173
C:\Users\stapi\AppData\Local\Temp\cc9ZvSHH.s:18808  .debug_str:00000000000008dd .LASF1174
C:\Users\stapi\AppData\Local\Temp\cc9ZvSHH.s:19712  .debug_str:00000000000022c4 .LASF1175
C:\Users\stapi\AppData\Local\Temp\cc9ZvSHH.s:19636  .debug_str:0000000000002085 .LASF1176
C:\Users\stapi\AppData\Local\Temp\cc9ZvSHH.s:18774  .debug_str:00000000000007d6 .LASF1177
C:\Users\stapi\AppData\Local\Temp\cc9ZvSHH.s:19902  .debug_str:00000000000028b6 .LASF1178
C:\Users\stapi\AppData\Local\Temp\cc9ZvSHH.s:18564  .debug_str:00000000000001ea .LASF1179
C:\Users\stapi\AppData\Local\Temp\cc9ZvSHH.s:19740  .debug_str:00000000000023a3 .LASF1180
C:\Users\stapi\AppData\Local\Temp\cc9ZvSHH.s:21236  .debug_str:00000000000050d6 .LASF1181
C:\Users\stapi\AppData\Local\Temp\cc9ZvSHH.s:20458  .debug_str:0000000000003a9f .LASF1182
C:\Users\stapi\AppData\Local\Temp\cc9ZvSHH.s:21390  .debug_str:00000000000055ca .LASF1183
C:\Users\stapi\AppData\Local\Temp\cc9ZvSHH.s:21094  .debug_str:0000000000004ca5 .LASF1184
C:\Users\stapi\AppData\Local\Temp\cc9ZvSHH.s:19608  .debug_str:0000000000001fa9 .LASF1185
C:\Users\stapi\AppData\Local\Temp\cc9ZvSHH.s:19334  .debug_str:00000000000017e6 .LASF1186
C:\Users\stapi\AppData\Local\Temp\cc9ZvSHH.s:19600  .debug_str:0000000000001f63 .LASF1187
C:\Users\stapi\AppData\Local\Temp\cc9ZvSHH.s:20040  .debug_str:0000000000002ca9 .LASF1188
C:\Users\stapi\AppData\Local\Temp\cc9ZvSHH.s:20366  .debug_str:000000000000379b .LASF1189
C:\Users\stapi\AppData\Local\Temp\cc9ZvSHH.s:19532  .debug_str:0000000000001d64 .LASF1190
C:\Users\stapi\AppData\Local\Temp\cc9ZvSHH.s:21118  .debug_str:0000000000004d63 .LASF1191
C:\Users\stapi\AppData\Local\Temp\cc9ZvSHH.s:19336  .debug_str:00000000000017f1 .LASF1192
C:\Users\stapi\AppData\Local\Temp\cc9ZvSHH.s:18862  .debug_str:0000000000000a3f .LASF1193
C:\Users\stapi\AppData\Local\Temp\cc9ZvSHH.s:20744  .debug_str:0000000000004254 .LASF1194
C:\Users\stapi\AppData\Local\Temp\cc9ZvSHH.s:18602  .debug_str:0000000000000317 .LASF1195
C:\Users\stapi\AppData\Local\Temp\cc9ZvSHH.s:19354  .debug_str:000000000000187b .LASF1196
C:\Users\stapi\AppData\Local\Temp\cc9ZvSHH.s:21174  .debug_str:0000000000004ee8 .LASF1197
C:\Users\stapi\AppData\Local\Temp\cc9ZvSHH.s:21046  .debug_str:0000000000004b4c .LASF1198
C:\Users\stapi\AppData\Local\Temp\cc9ZvSHH.s:19884  .debug_str:0000000000002829 .LASF1199
C:\Users\stapi\AppData\Local\Temp\cc9ZvSHH.s:20338  .debug_str:00000000000036c9 .LASF1200
C:\Users\stapi\AppData\Local\Temp\cc9ZvSHH.s:20384  .debug_str:0000000000003823 .LASF1201
C:\Users\stapi\AppData\Local\Temp\cc9ZvSHH.s:19406  .debug_str:0000000000001a08 .LASF1202
C:\Users\stapi\AppData\Local\Temp\cc9ZvSHH.s:19368  .debug_str:00000000000018f9 .LASF1203
C:\Users\stapi\AppData\Local\Temp\cc9ZvSHH.s:20212  .debug_str:000000000000329a .LASF1204
C:\Users\stapi\AppData\Local\Temp\cc9ZvSHH.s:19812  .debug_str:0000000000002606 .LASF1205
C:\Users\stapi\AppData\Local\Temp\cc9ZvSHH.s:20266  .debug_str:0000000000003485 .LASF1206
C:\Users\stapi\AppData\Local\Temp\cc9ZvSHH.s:20120  .debug_str:0000000000002ef0 .LASF1207
C:\Users\stapi\AppData\Local\Temp\cc9ZvSHH.s:20206  .debug_str:0000000000003270 .LASF1208
C:\Users\stapi\AppData\Local\Temp\cc9ZvSHH.s:20456  .debug_str:0000000000003a96 .LASF1209
C:\Users\stapi\AppData\Local\Temp\cc9ZvSHH.s:18666  .debug_str:00000000000004f0 .LASF1210
C:\Users\stapi\AppData\Local\Temp\cc9ZvSHH.s:21290  .debug_str:0000000000005276 .LASF1211
C:\Users\stapi\AppData\Local\Temp\cc9ZvSHH.s:20190  .debug_str:0000000000003118 .LASF1212
C:\Users\stapi\AppData\Local\Temp\cc9ZvSHH.s:19408  .debug_str:0000000000001a1d .LASF1213
C:\Users\stapi\AppData\Local\Temp\cc9ZvSHH.s:20102  .debug_str:0000000000002e58 .LASF1214
C:\Users\stapi\AppData\Local\Temp\cc9ZvSHH.s:21226  .debug_str:000000000000508e .LASF1215
C:\Users\stapi\AppData\Local\Temp\cc9ZvSHH.s:20332  .debug_str:000000000000368a .LASF1216
C:\Users\stapi\AppData\Local\Temp\cc9ZvSHH.s:21026  .debug_str:0000000000004aa5 .LASF1217
C:\Users\stapi\AppData\Local\Temp\cc9ZvSHH.s:18884  .debug_str:0000000000000ae9 .LASF1218
C:\Users\stapi\AppData\Local\Temp\cc9ZvSHH.s:19552  .debug_str:0000000000001e03 .LASF1219
C:\Users\stapi\AppData\Local\Temp\cc9ZvSHH.s:19230  .debug_str:00000000000014fe .LASF1220
C:\Users\stapi\AppData\Local\Temp\cc9ZvSHH.s:18632  .debug_str:0000000000000402 .LASF1221
C:\Users\stapi\AppData\Local\Temp\cc9ZvSHH.s:20576  .debug_str:0000000000003dc9 .LASF1222
C:\Users\stapi\AppData\Local\Temp\cc9ZvSHH.s:20544  .debug_str:0000000000003cde .LASF1223
C:\Users\stapi\AppData\Local\Temp\cc9ZvSHH.s:19404  .debug_str:00000000000019fd .LASF1224
C:\Users\stapi\AppData\Local\Temp\cc9ZvSHH.s:19022  .debug_str:0000000000000f1b .LASF1225
C:\Users\stapi\AppData\Local\Temp\cc9ZvSHH.s:20766  .debug_str:0000000000004321 .LASF1226
C:\Users\stapi\AppData\Local\Temp\cc9ZvSHH.s:18734  .debug_str:00000000000006e3 .LASF1227
C:\Users\stapi\AppData\Local\Temp\cc9ZvSHH.s:21228  .debug_str:0000000000005097 .LASF1228
C:\Users\stapi\AppData\Local\Temp\cc9ZvSHH.s:18792  .debug_str:000000000000086c .LASF1229
C:\Users\stapi\AppData\Local\Temp\cc9ZvSHH.s:21348  .debug_str:00000000000054a7 .LASF1230
C:\Users\stapi\AppData\Local\Temp\cc9ZvSHH.s:19702  .debug_str:000000000000227f .LASF1231
C:\Users\stapi\AppData\Local\Temp\cc9ZvSHH.s:18814  .debug_str:00000000000008fd .LASF1232
C:\Users\stapi\AppData\Local\Temp\cc9ZvSHH.s:19002  .debug_str:0000000000000e75 .LASF1233
C:\Users\stapi\AppData\Local\Temp\cc9ZvSHH.s:20324  .debug_str:0000000000003654 .LASF1234
C:\Users\stapi\AppData\Local\Temp\cc9ZvSHH.s:20608  .debug_str:0000000000003eb8 .LASF1235
C:\Users\stapi\AppData\Local\Temp\cc9ZvSHH.s:20068  .debug_str:0000000000002d6a .LASF1236
C:\Users\stapi\AppData\Local\Temp\cc9ZvSHH.s:20752  .debug_str:00000000000042ad .LASF1237
C:\Users\stapi\AppData\Local\Temp\cc9ZvSHH.s:20306  .debug_str:00000000000035d4 .LASF1238
C:\Users\stapi\AppData\Local\Temp\cc9ZvSHH.s:19590  .debug_str:0000000000001f0e .LASF1239
C:\Users\stapi\AppData\Local\Temp\cc9ZvSHH.s:20994  .debug_str:00000000000049b9 .LASF1240
C:\Users\stapi\AppData\Local\Temp\cc9ZvSHH.s:21182  .debug_str:0000000000004f29 .LASF1241
C:\Users\stapi\AppData\Local\Temp\cc9ZvSHH.s:20150  .debug_str:0000000000002ff2 .LASF1242
C:\Users\stapi\AppData\Local\Temp\cc9ZvSHH.s:19766  .debug_str:0000000000002489 .LASF1243
C:\Users\stapi\AppData\Local\Temp\cc9ZvSHH.s:20854  .debug_str:0000000000004597 .LASF1244
C:\Users\stapi\AppData\Local\Temp\cc9ZvSHH.s:21122  .debug_str:0000000000004d7f .LASF1245
C:\Users\stapi\AppData\Local\Temp\cc9ZvSHH.s:18840  .debug_str:0000000000000999 .LASF1246
C:\Users\stapi\AppData\Local\Temp\cc9ZvSHH.s:20480  .debug_str:0000000000003b36 .LASF1247
C:\Users\stapi\AppData\Local\Temp\cc9ZvSHH.s:20018  .debug_str:0000000000002bfb .LASF1248
C:\Users\stapi\AppData\Local\Temp\cc9ZvSHH.s:19604  .debug_str:0000000000001f82 .LASF1249
C:\Users\stapi\AppData\Local\Temp\cc9ZvSHH.s:20632  .debug_str:0000000000003f5d .LASF1250
C:\Users\stapi\AppData\Local\Temp\cc9ZvSHH.s:20890  .debug_str:00000000000046a0 .LASF1251
C:\Users\stapi\AppData\Local\Temp\cc9ZvSHH.s:21116  .debug_str:0000000000004d56 .LASF1252
C:\Users\stapi\AppData\Local\Temp\cc9ZvSHH.s:21004  .debug_str:0000000000004a02 .LASF1253
C:\Users\stapi\AppData\Local\Temp\cc9ZvSHH.s:20728  .debug_str:00000000000041d9 .LASF1254
C:\Users\stapi\AppData\Local\Temp\cc9ZvSHH.s:18576  .debug_str:0000000000000241 .LASF1255
C:\Users\stapi\AppData\Local\Temp\cc9ZvSHH.s:19972  .debug_str:0000000000002a89 .LASF1256
C:\Users\stapi\AppData\Local\Temp\cc9ZvSHH.s:21374  .debug_str:0000000000005555 .LASF1257
C:\Users\stapi\AppData\Local\Temp\cc9ZvSHH.s:18924  .debug_str:0000000000000c55 .LASF1258
C:\Users\stapi\AppData\Local\Temp\cc9ZvSHH.s:19468  .debug_str:0000000000001bbc .LASF1259
C:\Users\stapi\AppData\Local\Temp\cc9ZvSHH.s:20992  .debug_str:00000000000049aa .LASF1260
C:\Users\stapi\AppData\Local\Temp\cc9ZvSHH.s:19450  .debug_str:0000000000001b4f .LASF1261
C:\Users\stapi\AppData\Local\Temp\cc9ZvSHH.s:19822  .debug_str:0000000000002657 .LASF1262
C:\Users\stapi\AppData\Local\Temp\cc9ZvSHH.s:19666  .debug_str:000000000000215c .LASF1263
C:\Users\stapi\AppData\Local\Temp\cc9ZvSHH.s:20534  .debug_str:0000000000003c90 .LASF1264
C:\Users\stapi\AppData\Local\Temp\cc9ZvSHH.s:19204  .debug_str:000000000000141f .LASF1265
C:\Users\stapi\AppData\Local\Temp\cc9ZvSHH.s:20036  .debug_str:0000000000002c85 .LASF1266
C:\Users\stapi\AppData\Local\Temp\cc9ZvSHH.s:19650  .debug_str:00000000000020e9 .LASF1267
C:\Users\stapi\AppData\Local\Temp\cc9ZvSHH.s:21446  .debug_str:000000000000578a .LASF1268
C:\Users\stapi\AppData\Local\Temp\cc9ZvSHH.s:19314  .debug_str:0000000000001749 .LASF1269
C:\Users\stapi\AppData\Local\Temp\cc9ZvSHH.s:20188  .debug_str:0000000000003103 .LASF1270
C:\Users\stapi\AppData\Local\Temp\cc9ZvSHH.s:20006  .debug_str:0000000000002b83 .LASF1271
C:\Users\stapi\AppData\Local\Temp\cc9ZvSHH.s:20976  .debug_str:0000000000004936 .LASF1272
C:\Users\stapi\AppData\Local\Temp\cc9ZvSHH.s:19346  .debug_str:0000000000001848 .LASF1273
C:\Users\stapi\AppData\Local\Temp\cc9ZvSHH.s:20086  .debug_str:0000000000002dfb .LASF1274
C:\Users\stapi\AppData\Local\Temp\cc9ZvSHH.s:19110  .debug_str:0000000000001186 .LASF1275
C:\Users\stapi\AppData\Local\Temp\cc9ZvSHH.s:20634  .debug_str:0000000000003f70 .LASF1276
C:\Users\stapi\AppData\Local\Temp\cc9ZvSHH.s:20520  .debug_str:0000000000003c33 .LASF1277
C:\Users\stapi\AppData\Local\Temp\cc9ZvSHH.s:21136  .debug_str:0000000000004dcd .LASF1278
C:\Users\stapi\AppData\Local\Temp\cc9ZvSHH.s:20222  .debug_str:000000000000331a .LASF1279
C:\Users\stapi\AppData\Local\Temp\cc9ZvSHH.s:20678  .debug_str:0000000000004090 .LASF1280
C:\Users\stapi\AppData\Local\Temp\cc9ZvSHH.s:20400  .debug_str:000000000000388d .LASF1281
C:\Users\stapi\AppData\Local\Temp\cc9ZvSHH.s:20376  .debug_str:00000000000037e2 .LASF1282
C:\Users\stapi\AppData\Local\Temp\cc9ZvSHH.s:19136  .debug_str:000000000000124c .LASF1283
C:\Users\stapi\AppData\Local\Temp\cc9ZvSHH.s:19018  .debug_str:0000000000000ef9 .LASF1284
C:\Users\stapi\AppData\Local\Temp\cc9ZvSHH.s:21406  .debug_str:0000000000005654 .LASF1285
C:\Users\stapi\AppData\Local\Temp\cc9ZvSHH.s:20346  .debug_str:00000000000036fa .LASF1286
C:\Users\stapi\AppData\Local\Temp\cc9ZvSHH.s:20674  .debug_str:000000000000406f .LASF1287
C:\Users\stapi\AppData\Local\Temp\cc9ZvSHH.s:19004  .debug_str:0000000000000e85 .LASF1288
C:\Users\stapi\AppData\Local\Temp\cc9ZvSHH.s:20054  .debug_str:0000000000002d08 .LASF1289
C:\Users\stapi\AppData\Local\Temp\cc9ZvSHH.s:20880  .debug_str:000000000000465b .LASF1290
C:\Users\stapi\AppData\Local\Temp\cc9ZvSHH.s:20758  .debug_str:00000000000042e1 .LASF1291
C:\Users\stapi\AppData\Local\Temp\cc9ZvSHH.s:18524  .debug_str:00000000000000b5 .LASF1292
C:\Users\stapi\AppData\Local\Temp\cc9ZvSHH.s:18652  .debug_str:0000000000000485 .LASF1293
C:\Users\stapi\AppData\Local\Temp\cc9ZvSHH.s:19266  .debug_str:000000000000160d .LASF1294
C:\Users\stapi\AppData\Local\Temp\cc9ZvSHH.s:21070  .debug_str:0000000000004c0f .LASF1295
C:\Users\stapi\AppData\Local\Temp\cc9ZvSHH.s:20546  .debug_str:0000000000003ce7 .LASF1296
C:\Users\stapi\AppData\Local\Temp\cc9ZvSHH.s:20954  .debug_str:00000000000048b2 .LASF1297
C:\Users\stapi\AppData\Local\Temp\cc9ZvSHH.s:20612  .debug_str:0000000000003ece .LASF1298
C:\Users\stapi\AppData\Local\Temp\cc9ZvSHH.s:20504  .debug_str:0000000000003bd5 .LASF1299
C:\Users\stapi\AppData\Local\Temp\cc9ZvSHH.s:19294  .debug_str:00000000000016c7 .LASF1300
C:\Users\stapi\AppData\Local\Temp\cc9ZvSHH.s:20598  .debug_str:0000000000003e68 .LASF1301
C:\Users\stapi\AppData\Local\Temp\cc9ZvSHH.s:21054  .debug_str:0000000000004b8e .LASF1302
C:\Users\stapi\AppData\Local\Temp\cc9ZvSHH.s:18518  .debug_str:000000000000008e .LASF1303
C:\Users\stapi\AppData\Local\Temp\cc9ZvSHH.s:20192  .debug_str:0000000000003121 .LASF1304
C:\Users\stapi\AppData\Local\Temp\cc9ZvSHH.s:20262  .debug_str:000000000000345c .LASF1305
C:\Users\stapi\AppData\Local\Temp\cc9ZvSHH.s:20008  .debug_str:0000000000002b9d .LASF1306
C:\Users\stapi\AppData\Local\Temp\cc9ZvSHH.s:20718  .debug_str:000000000000419f .LASF1307
C:\Users\stapi\AppData\Local\Temp\cc9ZvSHH.s:19478  .debug_str:0000000000001bf6 .LASF1308
C:\Users\stapi\AppData\Local\Temp\cc9ZvSHH.s:18694  .debug_str:00000000000005b1 .LASF1309
C:\Users\stapi\AppData\Local\Temp\cc9ZvSHH.s:20894  .debug_str:00000000000046d1 .LASF1310
C:\Users\stapi\AppData\Local\Temp\cc9ZvSHH.s:19962  .debug_str:0000000000002a4b .LASF1311
C:\Users\stapi\AppData\Local\Temp\cc9ZvSHH.s:19594  .debug_str:0000000000001f31 .LASF1312
C:\Users\stapi\AppData\Local\Temp\cc9ZvSHH.s:19776  .debug_str:00000000000024d4 .LASF1313
C:\Users\stapi\AppData\Local\Temp\cc9ZvSHH.s:19376  .debug_str:0000000000001939 .LASF1314
C:\Users\stapi\AppData\Local\Temp\cc9ZvSHH.s:19640  .debug_str:00000000000020a3 .LASF1315
C:\Users\stapi\AppData\Local\Temp\cc9ZvSHH.s:20796  .debug_str:00000000000043f4 .LASF1316
C:\Users\stapi\AppData\Local\Temp\cc9ZvSHH.s:19508  .debug_str:0000000000001cc4 .LASF1317
C:\Users\stapi\AppData\Local\Temp\cc9ZvSHH.s:20404  .debug_str:00000000000038bd .LASF1318
C:\Users\stapi\AppData\Local\Temp\cc9ZvSHH.s:18646  .debug_str:0000000000000450 .LASF1319
C:\Users\stapi\AppData\Local\Temp\cc9ZvSHH.s:20072  .debug_str:0000000000002d91 .LASF1320
C:\Users\stapi\AppData\Local\Temp\cc9ZvSHH.s:20586  .debug_str:0000000000003e17 .LASF1321
C:\Users\stapi\AppData\Local\Temp\cc9ZvSHH.s:19252  .debug_str:00000000000015b4 .LASF1322
C:\Users\stapi\AppData\Local\Temp\cc9ZvSHH.s:19030  .debug_str:0000000000000f57 .LASF1323
C:\Users\stapi\AppData\Local\Temp\cc9ZvSHH.s:19768  .debug_str:0000000000002499 .LASF1324
C:\Users\stapi\AppData\Local\Temp\cc9ZvSHH.s:21308  .debug_str:00000000000052fd .LASF1325
C:\Users\stapi\AppData\Local\Temp\cc9ZvSHH.s:19388  .debug_str:0000000000001999 .LASF1326
C:\Users\stapi\AppData\Local\Temp\cc9ZvSHH.s:21038  .debug_str:0000000000004afd .LASF1327
C:\Users\stapi\AppData\Local\Temp\cc9ZvSHH.s:20378  .debug_str:00000000000037f4 .LASF1328
C:\Users\stapi\AppData\Local\Temp\cc9ZvSHH.s:20668  .debug_str:000000000000404e .LASF1329
C:\Users\stapi\AppData\Local\Temp\cc9ZvSHH.s:20742  .debug_str:0000000000004242 .LASF1330
C:\Users\stapi\AppData\Local\Temp\cc9ZvSHH.s:20232  .debug_str:000000000000335b .LASF1331
C:\Users\stapi\AppData\Local\Temp\cc9ZvSHH.s:20502  .debug_str:0000000000003bc1 .LASF1332
C:\Users\stapi\AppData\Local\Temp\cc9ZvSHH.s:18786  .debug_str:0000000000000834 .LASF1333
C:\Users\stapi\AppData\Local\Temp\cc9ZvSHH.s:19398  .debug_str:00000000000019d1 .LASF1334
C:\Users\stapi\AppData\Local\Temp\cc9ZvSHH.s:19674  .debug_str:00000000000021a4 .LASF1335
C:\Users\stapi\AppData\Local\Temp\cc9ZvSHH.s:19380  .debug_str:000000000000195a .LASF1336
C:\Users\stapi\AppData\Local\Temp\cc9ZvSHH.s:18778  .debug_str:00000000000007eb .LASF1337
C:\Users\stapi\AppData\Local\Temp\cc9ZvSHH.s:21240  .debug_str:00000000000050f7 .LASF1338
C:\Users\stapi\AppData\Local\Temp\cc9ZvSHH.s:20146  .debug_str:0000000000002fd7 .LASF1339
C:\Users\stapi\AppData\Local\Temp\cc9ZvSHH.s:20662  .debug_str:000000000000401d .LASF1340
C:\Users\stapi\AppData\Local\Temp\cc9ZvSHH.s:19350  .debug_str:0000000000001860 .LASF1341
C:\Users\stapi\AppData\Local\Temp\cc9ZvSHH.s:19088  .debug_str:00000000000010f3 .LASF1342
C:\Users\stapi\AppData\Local\Temp\cc9ZvSHH.s:20844  .debug_str:000000000000454a .LASF1343
C:\Users\stapi\AppData\Local\Temp\cc9ZvSHH.s:21472  .debug_str:0000000000005843 .LASF1344
C:\Users\stapi\AppData\Local\Temp\cc9ZvSHH.s:21432  .debug_str:0000000000005726 .LASF1345
C:\Users\stapi\AppData\Local\Temp\cc9ZvSHH.s:20412  .debug_str:00000000000038ff .LASF1346
C:\Users\stapi\AppData\Local\Temp\cc9ZvSHH.s:18934  .debug_str:0000000000000c83 .LASF1347
C:\Users\stapi\AppData\Local\Temp\cc9ZvSHH.s:21422  .debug_str:00000000000056c9 .LASF1348
C:\Users\stapi\AppData\Local\Temp\cc9ZvSHH.s:21448  .debug_str:00000000000057a3 .LASF1349
C:\Users\stapi\AppData\Local\Temp\cc9ZvSHH.s:18634  .debug_str:000000000000040c .LASF1350
C:\Users\stapi\AppData\Local\Temp\cc9ZvSHH.s:20058  .debug_str:0000000000002d22 .LASF1351
C:\Users\stapi\AppData\Local\Temp\cc9ZvSHH.s:20398  .debug_str:0000000000003886 .LASF1352
C:\Users\stapi\AppData\Local\Temp\cc9ZvSHH.s:20180  .debug_str:00000000000030d5 .LASF1353
C:\Users\stapi\AppData\Local\Temp\cc9ZvSHH.s:21148  .debug_str:0000000000004e37 .LASF1354
C:\Users\stapi\AppData\Local\Temp\cc9ZvSHH.s:18704  .debug_str:00000000000005f0 .LASF1355
C:\Users\stapi\AppData\Local\Temp\cc9ZvSHH.s:20426  .debug_str:0000000000003959 .LASF1356
C:\Users\stapi\AppData\Local\Temp\cc9ZvSHH.s:21140  .debug_str:0000000000004dec .LASF1357
C:\Users\stapi\AppData\Local\Temp\cc9ZvSHH.s:18790  .debug_str:0000000000000856 .LASF1358
C:\Users\stapi\AppData\Local\Temp\cc9ZvSHH.s:19392  .debug_str:00000000000019a9 .LASF1359
C:\Users\stapi\AppData\Local\Temp\cc9ZvSHH.s:19950  .debug_str:0000000000002a04 .LASF1360
C:\Users\stapi\AppData\Local\Temp\cc9ZvSHH.s:19946  .debug_str:00000000000029df .LASF1361
C:\Users\stapi\AppData\Local\Temp\cc9ZvSHH.s:20506  .debug_str:0000000000003be0 .LASF1362
C:\Users\stapi\AppData\Local\Temp\cc9ZvSHH.s:20714  .debug_str:000000000000418a .LASF1363
C:\Users\stapi\AppData\Local\Temp\cc9ZvSHH.s:20926  .debug_str:00000000000047d1 .LASF1364
C:\Users\stapi\AppData\Local\Temp\cc9ZvSHH.s:21496  .debug_str:00000000000058fc .LASF1365
C:\Users\stapi\AppData\Local\Temp\cc9ZvSHH.s:20078  .debug_str:0000000000002dc6 .LASF1366
C:\Users\stapi\AppData\Local\Temp\cc9ZvSHH.s:18852  .debug_str:0000000000000a10 .LASF1367
C:\Users\stapi\AppData\Local\Temp\cc9ZvSHH.s:19958  .debug_str:0000000000002a2f .LASF1368
C:\Users\stapi\AppData\Local\Temp\cc9ZvSHH.s:19910  .debug_str:00000000000028e8 .LASF1369
C:\Users\stapi\AppData\Local\Temp\cc9ZvSHH.s:21442  .debug_str:000000000000576f .LASF1370
C:\Users\stapi\AppData\Local\Temp\cc9ZvSHH.s:19150  .debug_str:00000000000012ce .LASF1371
C:\Users\stapi\AppData\Local\Temp\cc9ZvSHH.s:19688  .debug_str:0000000000002210 .LASF1372
C:\Users\stapi\AppData\Local\Temp\cc9ZvSHH.s:21468  .debug_str:0000000000005820 .LASF1373
C:\Users\stapi\AppData\Local\Temp\cc9ZvSHH.s:20704  .debug_str:000000000000413a .LASF1374
C:\Users\stapi\AppData\Local\Temp\cc9ZvSHH.s:19460  .debug_str:0000000000001b7a .LASF1375
C:\Users\stapi\AppData\Local\Temp\cc9ZvSHH.s:18920  .debug_str:0000000000000c2d .LASF1376
C:\Users\stapi\AppData\Local\Temp\cc9ZvSHH.s:21358  .debug_str:00000000000054d9 .LASF1377
C:\Users\stapi\AppData\Local\Temp\cc9ZvSHH.s:20688  .debug_str:00000000000040dc .LASF1378
C:\Users\stapi\AppData\Local\Temp\cc9ZvSHH.s:18540  .debug_str:0000000000000128 .LASF1379
C:\Users\stapi\AppData\Local\Temp\cc9ZvSHH.s:19436  .debug_str:0000000000001ad3 .LASF1380
C:\Users\stapi\AppData\Local\Temp\cc9ZvSHH.s:18526  .debug_str:00000000000000c5 .LASF1381
C:\Users\stapi\AppData\Local\Temp\cc9ZvSHH.s:19618  .debug_str:0000000000002001 .LASF1382
C:\Users\stapi\AppData\Local\Temp\cc9ZvSHH.s:18544  .debug_str:000000000000014e .LASF1383
C:\Users\stapi\AppData\Local\Temp\cc9ZvSHH.s:19562  .debug_str:0000000000001e48 .LASF1384
C:\Users\stapi\AppData\Local\Temp\cc9ZvSHH.s:20806  .debug_str:0000000000004446 .LASF1385
C:\Users\stapi\AppData\Local\Temp\cc9ZvSHH.s:18866  .debug_str:0000000000000a6f .LASF1386
C:\Users\stapi\AppData\Local\Temp\cc9ZvSHH.s:19144  .debug_str:0000000000001292 .LASF1387
C:\Users\stapi\AppData\Local\Temp\cc9ZvSHH.s:19256  .debug_str:00000000000015ce .LASF1388
C:\Users\stapi\AppData\Local\Temp\cc9ZvSHH.s:20998  .debug_str:00000000000049d3 .LASF1389
C:\Users\stapi\AppData\Local\Temp\cc9ZvSHH.s:21112  .debug_str:0000000000004d34 .LASF1390
C:\Users\stapi\AppData\Local\Temp\cc9ZvSHH.s:20034  .debug_str:0000000000002c7b .LASF1391
C:\Users\stapi\AppData\Local\Temp\cc9ZvSHH.s:19634  .debug_str:000000000000207e .LASF1392
C:\Users\stapi\AppData\Local\Temp\cc9ZvSHH.s:19126  .debug_str:0000000000001205 .LASF1393
C:\Users\stapi\AppData\Local\Temp\cc9ZvSHH.s:21096  .debug_str:0000000000004cb3 .LASF1394
C:\Users\stapi\AppData\Local\Temp\cc9ZvSHH.s:19800  .debug_str:0000000000002585 .LASF1395
C:\Users\stapi\AppData\Local\Temp\cc9ZvSHH.s:19270  .debug_str:000000000000162d .LASF1396
C:\Users\stapi\AppData\Local\Temp\cc9ZvSHH.s:19690  .debug_str:0000000000002220 .LASF1397
C:\Users\stapi\AppData\Local\Temp\cc9ZvSHH.s:20768  .debug_str:000000000000432f .LASF1398
C:\Users\stapi\AppData\Local\Temp\cc9ZvSHH.s:21372  .debug_str:0000000000005546 .LASF1399
C:\Users\stapi\AppData\Local\Temp\cc9ZvSHH.s:19176  .debug_str:0000000000001377 .LASF1400
C:\Users\stapi\AppData\Local\Temp\cc9ZvSHH.s:20390  .debug_str:000000000000383e .LASF1401
C:\Users\stapi\AppData\Local\Temp\cc9ZvSHH.s:18656  .debug_str:00000000000004ad .LASF1402
C:\Users\stapi\AppData\Local\Temp\cc9ZvSHH.s:19248  .debug_str:000000000000158a .LASF1403
C:\Users\stapi\AppData\Local\Temp\cc9ZvSHH.s:19228  .debug_str:00000000000014ee .LASF1404
C:\Users\stapi\AppData\Local\Temp\cc9ZvSHH.s:19194  .debug_str:00000000000013e6 .LASF1405
C:\Users\stapi\AppData\Local\Temp\cc9ZvSHH.s:21330  .debug_str:0000000000005419 .LASF1406
C:\Users\stapi\AppData\Local\Temp\cc9ZvSHH.s:20934  .debug_str:0000000000004818 .LASF1407
C:\Users\stapi\AppData\Local\Temp\cc9ZvSHH.s:20130  .debug_str:0000000000002f52 .LASF1408
C:\Users\stapi\AppData\Local\Temp\cc9ZvSHH.s:21420  .debug_str:00000000000056ba .LASF1409
C:\Users\stapi\AppData\Local\Temp\cc9ZvSHH.s:20614  .debug_str:0000000000003edc .LASF1410
C:\Users\stapi\AppData\Local\Temp\cc9ZvSHH.s:19090  .debug_str:0000000000001100 .LASF1411
C:\Users\stapi\AppData\Local\Temp\cc9ZvSHH.s:20348  .debug_str:000000000000370a .LASF1412
C:\Users\stapi\AppData\Local\Temp\cc9ZvSHH.s:18976  .debug_str:0000000000000dba .LASF1413
C:\Users\stapi\AppData\Local\Temp\cc9ZvSHH.s:20956  .debug_str:00000000000048c4 .LASF1414
C:\Users\stapi\AppData\Local\Temp\cc9ZvSHH.s:19200  .debug_str:0000000000001403 .LASF1415
C:\Users\stapi\AppData\Local\Temp\cc9ZvSHH.s:20156  .debug_str:0000000000003013 .LASF1416
C:\Users\stapi\AppData\Local\Temp\cc9ZvSHH.s:21234  .debug_str:00000000000050cb .LASF1417
C:\Users\stapi\AppData\Local\Temp\cc9ZvSHH.s:20876  .debug_str:000000000000463a .LASF1418
C:\Users\stapi\AppData\Local\Temp\cc9ZvSHH.s:19074  .debug_str:0000000000001097 .LASF1419
C:\Users\stapi\AppData\Local\Temp\cc9ZvSHH.s:19042  .debug_str:0000000000000fa4 .LASF1420
C:\Users\stapi\AppData\Local\Temp\cc9ZvSHH.s:19118  .debug_str:00000000000011c5 .LASF1421
C:\Users\stapi\AppData\Local\Temp\cc9ZvSHH.s:20044  .debug_str:0000000000002cc5 .LASF1422
C:\Users\stapi\AppData\Local\Temp\cc9ZvSHH.s:19836  .debug_str:00000000000026d7 .LASF1423
C:\Users\stapi\AppData\Local\Temp\cc9ZvSHH.s:19598  .debug_str:0000000000001f58 .LASF1424
C:\Users\stapi\AppData\Local\Temp\cc9ZvSHH.s:18626  .debug_str:00000000000003c5 .LASF1425
C:\Users\stapi\AppData\Local\Temp\cc9ZvSHH.s:19052  .debug_str:0000000000000fff .LASF1426
C:\Users\stapi\AppData\Local\Temp\cc9ZvSHH.s:20420  .debug_str:000000000000392a .LASF1427
C:\Users\stapi\AppData\Local\Temp\cc9ZvSHH.s:18550  .debug_str:0000000000000180 .LASF1428
C:\Users\stapi\AppData\Local\Temp\cc9ZvSHH.s:20630  .debug_str:0000000000003f49 .LASF1429
C:\Users\stapi\AppData\Local\Temp\cc9ZvSHH.s:20952  .debug_str:0000000000004899 .LASF1430
C:\Users\stapi\AppData\Local\Temp\cc9ZvSHH.s:20842  .debug_str:0000000000004536 .LASF1431
C:\Users\stapi\AppData\Local\Temp\cc9ZvSHH.s:18664  .debug_str:00000000000004d6 .LASF1432
C:\Users\stapi\AppData\Local\Temp\cc9ZvSHH.s:20676  .debug_str:0000000000004081 .LASF1433
C:\Users\stapi\AppData\Local\Temp\cc9ZvSHH.s:19610  .debug_str:0000000000001fc0 .LASF1434
C:\Users\stapi\AppData\Local\Temp\cc9ZvSHH.s:19708  .debug_str:00000000000022a7 .LASF1435
C:\Users\stapi\AppData\Local\Temp\cc9ZvSHH.s:21152  .debug_str:0000000000004e5d .LASF1436
C:\Users\stapi\AppData\Local\Temp\cc9ZvSHH.s:20904  .debug_str:0000000000004715 .LASF1437
C:\Users\stapi\AppData\Local\Temp\cc9ZvSHH.s:21134  .debug_str:0000000000004dbf .LASF1438
C:\Users\stapi\AppData\Local\Temp\cc9ZvSHH.s:18682  .debug_str:0000000000000562 .LASF1439
C:\Users\stapi\AppData\Local\Temp\cc9ZvSHH.s:20288  .debug_str:000000000000352f .LASF1440
C:\Users\stapi\AppData\Local\Temp\cc9ZvSHH.s:18892  .debug_str:0000000000000b31 .LASF1441
C:\Users\stapi\AppData\Local\Temp\cc9ZvSHH.s:21192  .debug_str:0000000000004f80 .LASF1442
C:\Users\stapi\AppData\Local\Temp\cc9ZvSHH.s:19522  .debug_str:0000000000001d24 .LASF1443
C:\Users\stapi\AppData\Local\Temp\cc9ZvSHH.s:19956  .debug_str:0000000000002a27 .LASF1444
C:\Users\stapi\AppData\Local\Temp\cc9ZvSHH.s:19476  .debug_str:0000000000001bed .LASF1445
C:\Users\stapi\AppData\Local\Temp\cc9ZvSHH.s:20526  .debug_str:0000000000003c5e .LASF1446
C:\Users\stapi\AppData\Local\Temp\cc9ZvSHH.s:19116  .debug_str:00000000000011bb .LASF1447
C:\Users\stapi\AppData\Local\Temp\cc9ZvSHH.s:18962  .debug_str:0000000000000d63 .LASF1448
C:\Users\stapi\AppData\Local\Temp\cc9ZvSHH.s:19076  .debug_str:00000000000010a7 .LASF1449
C:\Users\stapi\AppData\Local\Temp\cc9ZvSHH.s:19490  .debug_str:0000000000001c3a .LASF1450
C:\Users\stapi\AppData\Local\Temp\cc9ZvSHH.s:21074  .debug_str:0000000000004c2b .LASF1451
C:\Users\stapi\AppData\Local\Temp\cc9ZvSHH.s:19900  .debug_str:00000000000028a2 .LASF1452
C:\Users\stapi\AppData\Local\Temp\cc9ZvSHH.s:19184  .debug_str:00000000000013a7 .LASF1453
C:\Users\stapi\AppData\Local\Temp\cc9ZvSHH.s:20374  .debug_str:00000000000037ce .LASF1454
C:\Users\stapi\AppData\Local\Temp\cc9ZvSHH.s:20196  .debug_str:000000000000314a .LASF1455
C:\Users\stapi\AppData\Local\Temp\cc9ZvSHH.s:19982  .debug_str:0000000000002ada .LASF1456
C:\Users\stapi\AppData\Local\Temp\cc9ZvSHH.s:19652  .debug_str:00000000000020f6 .LASF1457
C:\Users\stapi\AppData\Local\Temp\cc9ZvSHH.s:20250  .debug_str:00000000000033d7 .LASF1458
C:\Users\stapi\AppData\Local\Temp\cc9ZvSHH.s:20408  .debug_str:00000000000038e2 .LASF1459
C:\Users\stapi\AppData\Local\Temp\cc9ZvSHH.s:20134  .debug_str:0000000000002f74 .LASF1460
C:\Users\stapi\AppData\Local\Temp\cc9ZvSHH.s:19412  .debug_str:0000000000001a2e .LASF1461
C:\Users\stapi\AppData\Local\Temp\cc9ZvSHH.s:19170  .debug_str:0000000000001349 .LASF1462
C:\Users\stapi\AppData\Local\Temp\cc9ZvSHH.s:20532  .debug_str:0000000000003c82 .LASF1463
C:\Users\stapi\AppData\Local\Temp\cc9ZvSHH.s:19832  .debug_str:00000000000026b2 .LASF1464
C:\Users\stapi\AppData\Local\Temp\cc9ZvSHH.s:19428  .debug_str:0000000000001aa8 .LASF1465
C:\Users\stapi\AppData\Local\Temp\cc9ZvSHH.s:19274  .debug_str:0000000000001648 .LASF1466
C:\Users\stapi\AppData\Local\Temp\cc9ZvSHH.s:21252  .debug_str:0000000000005163 .LASF1467
C:\Users\stapi\AppData\Local\Temp\cc9ZvSHH.s:20898  .debug_str:00000000000046e6 .LASF1468
C:\Users\stapi\AppData\Local\Temp\cc9ZvSHH.s:20866  .debug_str:00000000000045fa .LASF1469
C:\Users\stapi\AppData\Local\Temp\cc9ZvSHH.s:18698  .debug_str:00000000000005c2 .LASF1470
C:\Users\stapi\AppData\Local\Temp\cc9ZvSHH.s:19960  .debug_str:0000000000002a3e .LASF1471
C:\Users\stapi\AppData\Local\Temp\cc9ZvSHH.s:21366  .debug_str:000000000000551e .LASF1472
C:\Users\stapi\AppData\Local\Temp\cc9ZvSHH.s:21510  .debug_str:0000000000005972 .LASF1473
C:\Users\stapi\AppData\Local\Temp\cc9ZvSHH.s:20622  .debug_str:0000000000003f1f .LASF1474
C:\Users\stapi\AppData\Local\Temp\cc9ZvSHH.s:19808  .debug_str:00000000000025de .LASF1475
C:\Users\stapi\AppData\Local\Temp\cc9ZvSHH.s:21098  .debug_str:0000000000004cbe .LASF1476
C:\Users\stapi\AppData\Local\Temp\cc9ZvSHH.s:21340  .debug_str:000000000000546b .LASF1477
C:\Users\stapi\AppData\Local\Temp\cc9ZvSHH.s:19912  .debug_str:00000000000028f6 .LASF1509
C:\Users\stapi\AppData\Local\Temp\cc9ZvSHH.s:869    .text.hostapd_get_vht_capab:0000000000000000 .LFB147
C:\Users\stapi\AppData\Local\Temp\cc9ZvSHH.s:1044   .text.hostapd_get_vht_capab:00000000000000d8 .LFE147
C:\Users\stapi\AppData\Local\Temp\cc9ZvSHH.s:20776  .debug_str:0000000000004367 .LASF1478
C:\Users\stapi\AppData\Local\Temp\cc9ZvSHH.s:17589  .debug_loc:0000000000000000 .LLST37
C:\Users\stapi\AppData\Local\Temp\cc9ZvSHH.s:19198  .debug_str:00000000000013fb .LASF1479
C:\Users\stapi\AppData\Local\Temp\cc9ZvSHH.s:17604  .debug_loc:0000000000000029 .LLST38
C:\Users\stapi\AppData\Local\Temp\cc9ZvSHH.s:18766  .debug_str:000000000000079f .LASF1480
C:\Users\stapi\AppData\Local\Temp\cc9ZvSHH.s:17622  .debug_loc:0000000000000055 .LLST39
C:\Users\stapi\AppData\Local\Temp\cc9ZvSHH.s:17637  .debug_loc:000000000000007e .LLST40
C:\Users\stapi\AppData\Local\Temp\cc9ZvSHH.s:21036  .debug_str:0000000000004af5 .LASF1481
C:\Users\stapi\AppData\Local\Temp\cc9ZvSHH.s:17648  .debug_loc:000000000000009c .LLST41
C:\Users\stapi\AppData\Local\Temp\cc9ZvSHH.s:18530  .debug_str:00000000000000e1 .LASF1482
C:\Users\stapi\AppData\Local\Temp\cc9ZvSHH.s:17663  .debug_loc:00000000000000bf .LLST42
C:\Users\stapi\AppData\Local\Temp\cc9ZvSHH.s:891    .text.hostapd_get_vht_capab:000000000000001a .LVL79
C:\Users\stapi\AppData\Local\Temp\cc9ZvSHH.s:19366  .debug_str:00000000000018e6 .LASF1484
C:\Users\stapi\AppData\Local\Temp\cc9ZvSHH.s:828    .text.set_sta_vht_opmode:0000000000000000 .LFB146
C:\Users\stapi\AppData\Local\Temp\cc9ZvSHH.s:862    .text.set_sta_vht_opmode:000000000000001e .LFE146
C:\Users\stapi\AppData\Local\Temp\cc9ZvSHH.s:17672  .debug_loc:00000000000000d4 .LLST36
C:\Users\stapi\AppData\Local\Temp\cc9ZvSHH.s:20650  .debug_str:0000000000003fc4 .LASF1483
C:\Users\stapi\AppData\Local\Temp\cc9ZvSHH.s:21362  .debug_str:00000000000054fb .LASF1485
C:\Users\stapi\AppData\Local\Temp\cc9ZvSHH.s:729    .text.hostapd_eid_vendor_vht:0000000000000000 .LFB145
C:\Users\stapi\AppData\Local\Temp\cc9ZvSHH.s:821    .text.hostapd_eid_vendor_vht:000000000000006c .LFE145
C:\Users\stapi\AppData\Local\Temp\cc9ZvSHH.s:17690  .debug_loc:0000000000000100 .LLST33
C:\Users\stapi\AppData\Local\Temp\cc9ZvSHH.s:17712  .debug_loc:0000000000000137 .LLST34
C:\Users\stapi\AppData\Local\Temp\cc9ZvSHH.s:17736  .debug_loc:0000000000000170 .LLST35
C:\Users\stapi\AppData\Local\Temp\cc9ZvSHH.s:755    .text.hostapd_eid_vendor_vht:0000000000000026 .LBB19
C:\Users\stapi\AppData\Local\Temp\cc9ZvSHH.s:800    .text.hostapd_eid_vendor_vht:0000000000000054 .LVL67
C:\Users\stapi\AppData\Local\Temp\cc9ZvSHH.s:808    .text.hostapd_eid_vendor_vht:0000000000000060 .LVL70
C:\Users\stapi\AppData\Local\Temp\cc9ZvSHH.s:20882  .debug_str:0000000000004661 .LASF1486
C:\Users\stapi\AppData\Local\Temp\cc9ZvSHH.s:605    .text.copy_sta_vendor_vht:0000000000000000 .LFB144
C:\Users\stapi\AppData\Local\Temp\cc9ZvSHH.s:722    .text.copy_sta_vendor_vht:000000000000008a .LFE144
C:\Users\stapi\AppData\Local\Temp\cc9ZvSHH.s:17765  .debug_loc:00000000000001bc .LLST27
C:\Users\stapi\AppData\Local\Temp\cc9ZvSHH.s:17794  .debug_loc:0000000000000201 .LLST28
C:\Users\stapi\AppData\Local\Temp\cc9ZvSHH.s:17805  .debug_loc:000000000000021f .LLST29
C:\Users\stapi\AppData\Local\Temp\cc9ZvSHH.s:17843  .debug_loc:0000000000000274 .LLST30
C:\Users\stapi\AppData\Local\Temp\cc9ZvSHH.s:17863  .debug_loc:00000000000002a2 .LLST31
C:\Users\stapi\AppData\Local\Temp\cc9ZvSHH.s:20878  .debug_str:000000000000464d .LASF1487
C:\Users\stapi\AppData\Local\Temp\cc9ZvSHH.s:17894  .debug_loc:00000000000002e9 .LLST32
C:\Users\stapi\AppData\Local\Temp\cc9ZvSHH.s:19696  .debug_str:000000000000224f .LASF1510
C:\Users\stapi\AppData\Local\Temp\cc9ZvSHH.s:675    .text.copy_sta_vendor_vht:000000000000005a .LVL58
C:\Users\stapi\AppData\Local\Temp\cc9ZvSHH.s:691    .text.copy_sta_vendor_vht:000000000000006a .LVL61
C:\Users\stapi\AppData\Local\Temp\cc9ZvSHH.s:20118  .debug_str:0000000000002ede .LASF1488
C:\Users\stapi\AppData\Local\Temp\cc9ZvSHH.s:525    .text.copy_sta_vht_oper:0000000000000000 .LFB143
C:\Users\stapi\AppData\Local\Temp\cc9ZvSHH.s:598    .text.copy_sta_vht_oper:0000000000000056 .LFE143
C:\Users\stapi\AppData\Local\Temp\cc9ZvSHH.s:17928  .debug_loc:0000000000000325 .LLST24
C:\Users\stapi\AppData\Local\Temp\cc9ZvSHH.s:17942  .debug_loc:0000000000000346 .LLST25
C:\Users\stapi\AppData\Local\Temp\cc9ZvSHH.s:19180  .debug_str:000000000000138e .LASF1489
C:\Users\stapi\AppData\Local\Temp\cc9ZvSHH.s:17953  .debug_loc:0000000000000364 .LLST26
C:\Users\stapi\AppData\Local\Temp\cc9ZvSHH.s:546    .text.copy_sta_vht_oper:000000000000001a .LVL45
C:\Users\stapi\AppData\Local\Temp\cc9ZvSHH.s:577    .text.copy_sta_vht_oper:000000000000003c .LVL48
C:\Users\stapi\AppData\Local\Temp\cc9ZvSHH.s:587    .text.copy_sta_vht_oper:000000000000004a .LVL50
C:\Users\stapi\AppData\Local\Temp\cc9ZvSHH.s:19026  .debug_str:0000000000000f38 .LASF1490
C:\Users\stapi\AppData\Local\Temp\cc9ZvSHH.s:338    .text.copy_sta_vht_capab:0000000000000000 .LFB142
C:\Users\stapi\AppData\Local\Temp\cc9ZvSHH.s:518    .text.copy_sta_vht_capab:00000000000000d8 .LFE142
C:\Users\stapi\AppData\Local\Temp\cc9ZvSHH.s:17987  .debug_loc:00000000000003b5 .LLST15
C:\Users\stapi\AppData\Local\Temp\cc9ZvSHH.s:18012  .debug_loc:00000000000003ef .LLST16
C:\Users\stapi\AppData\Local\Temp\cc9ZvSHH.s:18023  .debug_loc:000000000000040d .LLST17
C:\Users\stapi\AppData\Local\Temp\cc9ZvSHH.s:376    .text.copy_sta_vht_capab:000000000000002e .LBB15
C:\Users\stapi\AppData\Local\Temp\cc9ZvSHH.s:18045  .debug_loc:0000000000000444 .LLST18
C:\Users\stapi\AppData\Local\Temp\cc9ZvSHH.s:18056  .debug_loc:0000000000000462 .LLST19
C:\Users\stapi\AppData\Local\Temp\cc9ZvSHH.s:18072  .debug_loc:000000000000048d .LLST20
C:\Users\stapi\AppData\Local\Temp\cc9ZvSHH.s:18079  .debug_loc:00000000000004a0 .LLST21
C:\Users\stapi\AppData\Local\Temp\cc9ZvSHH.s:18086  .debug_loc:00000000000004b3 .LLST22
C:\Users\stapi\AppData\Local\Temp\cc9ZvSHH.s:18098  .debug_loc:00000000000004d2 .LLST23
C:\Users\stapi\AppData\Local\Temp\cc9ZvSHH.s:417    .text.copy_sta_vht_capab:000000000000005a .LVL35
C:\Users\stapi\AppData\Local\Temp\cc9ZvSHH.s:464    .text.copy_sta_vht_capab:000000000000009a .LVL39
C:\Users\stapi\AppData\Local\Temp\cc9ZvSHH.s:397    .text.copy_sta_vht_capab:0000000000000040 .LVL31
C:\Users\stapi\AppData\Local\Temp\cc9ZvSHH.s:479    .text.copy_sta_vht_capab:00000000000000ae .LVL40
C:\Users\stapi\AppData\Local\Temp\cc9ZvSHH.s:515    .text.copy_sta_vht_capab:00000000000000d6 .LVL42
C:\Users\stapi\AppData\Local\Temp\cc9ZvSHH.s:20708  .debug_str:000000000000414c .LASF1511
C:\Users\stapi\AppData\Local\Temp\cc9ZvSHH.s:19578  .debug_str:0000000000001eba .LASF1491
C:\Users\stapi\AppData\Local\Temp\cc9ZvSHH.s:20076  .debug_str:0000000000002dbb .LASF1492
C:\Users\stapi\AppData\Local\Temp\cc9ZvSHH.s:20936  .debug_str:000000000000482e .LASF1493
C:\Users\stapi\AppData\Local\Temp\cc9ZvSHH.s:20850  .debug_str:0000000000004576 .LASF1494
C:\Users\stapi\AppData\Local\Temp\cc9ZvSHH.s:19514  .debug_str:0000000000001ceb .LASF1512
C:\Users\stapi\AppData\Local\Temp\cc9ZvSHH.s:21306  .debug_str:00000000000052f8 .LASF1495
C:\Users\stapi\AppData\Local\Temp\cc9ZvSHH.s:21304  .debug_str:00000000000052db .LASF1496
C:\Users\stapi\AppData\Local\Temp\cc9ZvSHH.s:14     .text.hostapd_eid_vht_capabilities:0000000000000000 .LFB139
C:\Users\stapi\AppData\Local\Temp\cc9ZvSHH.s:189    .text.hostapd_eid_vht_capabilities:00000000000000f6 .LFE139
C:\Users\stapi\AppData\Local\Temp\cc9ZvSHH.s:18106  .debug_loc:00000000000004e6 .LLST0
C:\Users\stapi\AppData\Local\Temp\cc9ZvSHH.s:18128  .debug_loc:000000000000051d .LLST1
C:\Users\stapi\AppData\Local\Temp\cc9ZvSHH.s:21466  .debug_str:000000000000581b .LASF1497
C:\Users\stapi\AppData\Local\Temp\cc9ZvSHH.s:18150  .debug_loc:0000000000000554 .LLST2
C:\Users\stapi\AppData\Local\Temp\cc9ZvSHH.s:18172  .debug_loc:000000000000058b .LLST3
C:\Users\stapi\AppData\Local\Temp\cc9ZvSHH.s:18197  .debug_loc:00000000000005c5 .LLST4
C:\Users\stapi\AppData\Local\Temp\cc9ZvSHH.s:18208  .debug_loc:00000000000005e3 .LLST5
C:\Users\stapi\AppData\Local\Temp\cc9ZvSHH.s:18251  .debug_loc:000000000000064b .LLST6
C:\Users\stapi\AppData\Local\Temp\cc9ZvSHH.s:164    .text.hostapd_eid_vht_capabilities:00000000000000ce .LBB6
C:\Users\stapi\AppData\Local\Temp\cc9ZvSHH.s:187    .text.hostapd_eid_vht_capabilities:00000000000000f6 .LBE6
C:\Users\stapi\AppData\Local\Temp\cc9ZvSHH.s:18990  .debug_str:0000000000000e2a .LASF1498
C:\Users\stapi\AppData\Local\Temp\cc9ZvSHH.s:18262  .debug_loc:0000000000000669 .LLST7
C:\Users\stapi\AppData\Local\Temp\cc9ZvSHH.s:46     .text.hostapd_eid_vht_capabilities:0000000000000026 .LVL3
C:\Users\stapi\AppData\Local\Temp\cc9ZvSHH.s:100    .text.hostapd_eid_vht_capabilities:0000000000000076 .LVL9
C:\Users\stapi\AppData\Local\Temp\cc9ZvSHH.s:123    .text.hostapd_eid_vht_capabilities:00000000000000ae .LVL10
C:\Users\stapi\AppData\Local\Temp\cc9ZvSHH.s:20950  .debug_str:000000000000488c .LASF1513
C:\Users\stapi\AppData\Local\Temp\cc9ZvSHH.s:196    .text.hostapd_eid_vht_operation:0000000000000000 .LFB140
C:\Users\stapi\AppData\Local\Temp\cc9ZvSHH.s:327    .text.hostapd_eid_vht_operation:000000000000009e .LFE140
C:\Users\stapi\AppData\Local\Temp\cc9ZvSHH.s:18292  .debug_loc:000000000000069b .LLST8
C:\Users\stapi\AppData\Local\Temp\cc9ZvSHH.s:18303  .debug_loc:00000000000006b9 .LLST9
C:\Users\stapi\AppData\Local\Temp\cc9ZvSHH.s:18325  .debug_loc:00000000000006f0 .LLST10
C:\Users\stapi\AppData\Local\Temp\cc9ZvSHH.s:222    .text.hostapd_eid_vht_operation:000000000000001c .LBB9
C:\Users\stapi\AppData\Local\Temp\cc9ZvSHH.s:18347  .debug_loc:0000000000000727 .LLST11
C:\Users\stapi\AppData\Local\Temp\cc9ZvSHH.s:18358  .debug_loc:0000000000000745 .LLST12
C:\Users\stapi\AppData\Local\Temp\cc9ZvSHH.s:18369  .debug_loc:0000000000000763 .LLST13
C:\Users\stapi\AppData\Local\Temp\cc9ZvSHH.s:18394  .debug_loc:000000000000079d .LLST14
C:\Users\stapi\AppData\Local\Temp\cc9ZvSHH.s:241    .text.hostapd_eid_vht_operation:000000000000003a .LVL25
C:\Users\stapi\AppData\Local\Temp\cc9ZvSHH.s:218    .text.hostapd_eid_vht_operation:000000000000001a .LVL20
C:\Users\stapi\AppData\Local\Temp\cc9ZvSHH.s:20388  .debug_str:0000000000003834 .LASF1499
C:\Users\stapi\AppData\Local\Temp\cc9ZvSHH.s:19306  .debug_str:000000000000171c .LASF1500
C:\Users\stapi\AppData\Local\Temp\cc9ZvSHH.s:20198  .debug_str:000000000000315f .LASF1501
C:\Users\stapi\AppData\Local\Temp\cc9ZvSHH.s:21424  .debug_str:00000000000056db .LASF1502
C:\Users\stapi\AppData\Local\Temp\cc9ZvSHH.s:21478  .debug_str:000000000000586f .LASF1503
C:\Users\stapi\AppData\Local\Temp\cc9ZvSHH.s:19402  .debug_str:00000000000019f3 .LASF1504
C:\Users\stapi\AppData\Local\Temp\cc9ZvSHH.s:872    .text.hostapd_get_vht_capab:0000000000000000 .LVL76
C:\Users\stapi\AppData\Local\Temp\cc9ZvSHH.s:889    .text.hostapd_get_vht_capab:0000000000000012 .LVL78
C:\Users\stapi\AppData\Local\Temp\cc9ZvSHH.s:1040   .text.hostapd_get_vht_capab:00000000000000d6 .LVL95
C:\Users\stapi\AppData\Local\Temp\cc9ZvSHH.s:887    .text.hostapd_get_vht_capab:0000000000000010 .LVL77
C:\Users\stapi\AppData\Local\Temp\cc9ZvSHH.s:904    .text.hostapd_get_vht_capab:0000000000000036 .LVL80
C:\Users\stapi\AppData\Local\Temp\cc9ZvSHH.s:916    .text.hostapd_get_vht_capab:0000000000000042 .LVL82
C:\Users\stapi\AppData\Local\Temp\cc9ZvSHH.s:1031   .text.hostapd_get_vht_capab:00000000000000c6 .LVL94
C:\Users\stapi\AppData\Local\Temp\cc9ZvSHH.s:909    .text.hostapd_get_vht_capab:000000000000003c .LVL81
C:\Users\stapi\AppData\Local\Temp\cc9ZvSHH.s:1016   .text.hostapd_get_vht_capab:00000000000000ae .LVL92
C:\Users\stapi\AppData\Local\Temp\cc9ZvSHH.s:831    .text.set_sta_vht_opmode:0000000000000000 .LVL73
C:\Users\stapi\AppData\Local\Temp\cc9ZvSHH.s:845    .text.set_sta_vht_opmode:000000000000000c .LVL74
C:\Users\stapi\AppData\Local\Temp\cc9ZvSHH.s:847    .text.set_sta_vht_opmode:000000000000000e .LVL75
C:\Users\stapi\AppData\Local\Temp\cc9ZvSHH.s:732    .text.hostapd_eid_vendor_vht:0000000000000000 .LVL64
C:\Users\stapi\AppData\Local\Temp\cc9ZvSHH.s:815    .text.hostapd_eid_vendor_vht:0000000000000068 .LVL71
C:\Users\stapi\AppData\Local\Temp\cc9ZvSHH.s:818    .text.hostapd_eid_vendor_vht:000000000000006a .LVL72
C:\Users\stapi\AppData\Local\Temp\cc9ZvSHH.s:781    .text.hostapd_eid_vendor_vht:000000000000004a .LVL65
C:\Users\stapi\AppData\Local\Temp\cc9ZvSHH.s:784    .text.hostapd_eid_vendor_vht:000000000000004c .LVL66
C:\Users\stapi\AppData\Local\Temp\cc9ZvSHH.s:802    .text.hostapd_eid_vendor_vht:0000000000000056 .LVL68
C:\Users\stapi\AppData\Local\Temp\cc9ZvSHH.s:806    .text.hostapd_eid_vendor_vht:0000000000000058 .LVL69
C:\Users\stapi\AppData\Local\Temp\cc9ZvSHH.s:608    .text.copy_sta_vendor_vht:0000000000000000 .LVL51
C:\Users\stapi\AppData\Local\Temp\cc9ZvSHH.s:661    .text.copy_sta_vendor_vht:0000000000000042 .LVL57
C:\Users\stapi\AppData\Local\Temp\cc9ZvSHH.s:682    .text.copy_sta_vendor_vht:000000000000005e .LVL59
C:\Users\stapi\AppData\Local\Temp\cc9ZvSHH.s:686    .text.copy_sta_vendor_vht:0000000000000060 .LVL60
C:\Users\stapi\AppData\Local\Temp\cc9ZvSHH.s:712    .text.copy_sta_vendor_vht:0000000000000080 .LVL63
C:\Users\stapi\AppData\Local\Temp\cc9ZvSHH.s:657    .text.copy_sta_vendor_vht:0000000000000040 .LVL56
C:\Users\stapi\AppData\Local\Temp\cc9ZvSHH.s:702    .text.copy_sta_vendor_vht:0000000000000076 .LVL62
C:\Users\stapi\AppData\Local\Temp\cc9ZvSHH.s:648    .text.copy_sta_vendor_vht:0000000000000034 .LVL54
C:\Users\stapi\AppData\Local\Temp\cc9ZvSHH.s:632    .text.copy_sta_vendor_vht:000000000000001c .LVL52
C:\Users\stapi\AppData\Local\Temp\cc9ZvSHH.s:641    .text.copy_sta_vendor_vht:000000000000002c .LVL53
C:\Users\stapi\AppData\Local\Temp\cc9ZvSHH.s:654    .text.copy_sta_vendor_vht:000000000000003c .LVL55
C:\Users\stapi\AppData\Local\Temp\cc9ZvSHH.s:528    .text.copy_sta_vht_oper:0000000000000000 .LVL43
C:\Users\stapi\AppData\Local\Temp\cc9ZvSHH.s:536    .text.copy_sta_vht_oper:000000000000000c .LVL44
C:\Users\stapi\AppData\Local\Temp\cc9ZvSHH.s:564    .text.copy_sta_vht_oper:000000000000002a .LVL46
C:\Users\stapi\AppData\Local\Temp\cc9ZvSHH.s:571    .text.copy_sta_vht_oper:000000000000002e .LVL47
C:\Users\stapi\AppData\Local\Temp\cc9ZvSHH.s:579    .text.copy_sta_vht_oper:000000000000003e .LVL49
C:\Users\stapi\AppData\Local\Temp\cc9ZvSHH.s:341    .text.copy_sta_vht_capab:0000000000000000 .LVL28
C:\Users\stapi\AppData\Local\Temp\cc9ZvSHH.s:385    .text.copy_sta_vht_capab:0000000000000030 .LVL30
C:\Users\stapi\AppData\Local\Temp\cc9ZvSHH.s:406    .text.copy_sta_vht_capab:000000000000004a .LVL32
C:\Users\stapi\AppData\Local\Temp\cc9ZvSHH.s:415    .text.copy_sta_vht_capab:0000000000000052 .LVL34
C:\Users\stapi\AppData\Local\Temp\cc9ZvSHH.s:375    .text.copy_sta_vht_capab:000000000000002e .LVL29
C:\Users\stapi\AppData\Local\Temp\cc9ZvSHH.s:498    .text.copy_sta_vht_capab:00000000000000be .LVL41
C:\Users\stapi\AppData\Local\Temp\cc9ZvSHH.s:413    .text.copy_sta_vht_capab:0000000000000050 .LVL33
C:\Users\stapi\AppData\Local\Temp\cc9ZvSHH.s:428    .text.copy_sta_vht_capab:000000000000006a .LVL36
C:\Users\stapi\AppData\Local\Temp\cc9ZvSHH.s:462    .text.copy_sta_vht_capab:0000000000000092 .LVL38
C:\Users\stapi\AppData\Local\Temp\cc9ZvSHH.s:438    .text.copy_sta_vht_capab:0000000000000070 .LVL37
C:\Users\stapi\AppData\Local\Temp\cc9ZvSHH.s:18     .text.hostapd_eid_vht_capabilities:0000000000000000 .LVL0
C:\Users\stapi\AppData\Local\Temp\cc9ZvSHH.s:44     .text.hostapd_eid_vht_capabilities:000000000000001e .LVL2
C:\Users\stapi\AppData\Local\Temp\cc9ZvSHH.s:127    .text.hostapd_eid_vht_capabilities:00000000000000b0 .LVL11
C:\Users\stapi\AppData\Local\Temp\cc9ZvSHH.s:140    .text.hostapd_eid_vht_capabilities:00000000000000ba .LVL12
C:\Users\stapi\AppData\Local\Temp\cc9ZvSHH.s:93     .text.hostapd_eid_vht_capabilities:0000000000000066 .LVL7
C:\Users\stapi\AppData\Local\Temp\cc9ZvSHH.s:98     .text.hostapd_eid_vht_capabilities:000000000000006e .LVL8
C:\Users\stapi\AppData\Local\Temp\cc9ZvSHH.s:161    .text.hostapd_eid_vht_capabilities:00000000000000ce .LVL15
C:\Users\stapi\AppData\Local\Temp\cc9ZvSHH.s:34     .text.hostapd_eid_vht_capabilities:0000000000000010 .LVL1
C:\Users\stapi\AppData\Local\Temp\cc9ZvSHH.s:159    .text.hostapd_eid_vht_capabilities:00000000000000cc .LVL14
C:\Users\stapi\AppData\Local\Temp\cc9ZvSHH.s:80     .text.hostapd_eid_vht_capabilities:0000000000000058 .LVL5
C:\Users\stapi\AppData\Local\Temp\cc9ZvSHH.s:88     .text.hostapd_eid_vht_capabilities:0000000000000060 .LVL6
C:\Users\stapi\AppData\Local\Temp\cc9ZvSHH.s:76     .text.hostapd_eid_vht_capabilities:0000000000000054 .LVL4
C:\Users\stapi\AppData\Local\Temp\cc9ZvSHH.s:174    .text.hostapd_eid_vht_capabilities:00000000000000d4 .LVL16
C:\Users\stapi\AppData\Local\Temp\cc9ZvSHH.s:199    .text.hostapd_eid_vht_operation:0000000000000000 .LVL17
C:\Users\stapi\AppData\Local\Temp\cc9ZvSHH.s:216    .text.hostapd_eid_vht_operation:0000000000000012 .LVL19
C:\Users\stapi\AppData\Local\Temp\cc9ZvSHH.s:288    .text.hostapd_eid_vht_operation:000000000000007c .LVL26
C:\Users\stapi\AppData\Local\Temp\cc9ZvSHH.s:301    .text.hostapd_eid_vht_operation:0000000000000086 .LVL27
C:\Users\stapi\AppData\Local\Temp\cc9ZvSHH.s:212    .text.hostapd_eid_vht_operation:000000000000000e .LVL18
C:\Users\stapi\AppData\Local\Temp\cc9ZvSHH.s:221    .text.hostapd_eid_vht_operation:000000000000001c .LVL21
C:\Users\stapi\AppData\Local\Temp\cc9ZvSHH.s:234    .text.hostapd_eid_vht_operation:000000000000002a .LVL23
C:\Users\stapi\AppData\Local\Temp\cc9ZvSHH.s:239    .text.hostapd_eid_vht_operation:0000000000000032 .LVL24
C:\Users\stapi\AppData\Local\Temp\cc9ZvSHH.s:229    .text.hostapd_eid_vht_operation:0000000000000024 .LVL22
C:\Users\stapi\AppData\Local\Temp\cc9ZvSHH.s:1070   .debug_info:0000000000000000 .Ldebug_info0
C:\Users\stapi\AppData\Local\Temp\cc9ZvSHH.s:68     .text.hostapd_eid_vht_capabilities:000000000000004c .LBB4
C:\Users\stapi\AppData\Local\Temp\cc9ZvSHH.s:82     .text.hostapd_eid_vht_capabilities:0000000000000058 .LBE4
C:\Users\stapi\AppData\Local\Temp\cc9ZvSHH.s:143    .text.hostapd_eid_vht_capabilities:00000000000000ba .LBB5
C:\Users\stapi\AppData\Local\Temp\cc9ZvSHH.s:163    .text.hostapd_eid_vht_capabilities:00000000000000ce .LBE5
C:\Users\stapi\AppData\Local\Temp\cc9ZvSHH.s:292    .text.hostapd_eid_vht_operation:000000000000007c .LBE9
C:\Users\stapi\AppData\Local\Temp\cc9ZvSHH.s:304    .text.hostapd_eid_vht_operation:0000000000000086 .LBB12
C:\Users\stapi\AppData\Local\Temp\cc9ZvSHH.s:325    .text.hostapd_eid_vht_operation:000000000000009e .LBE12
C:\Users\stapi\AppData\Local\Temp\cc9ZvSHH.s:388    .text.copy_sta_vht_capab:0000000000000030 .LBE15
C:\Users\stapi\AppData\Local\Temp\cc9ZvSHH.s:408    .text.copy_sta_vht_capab:000000000000004a .LBB18
C:\Users\stapi\AppData\Local\Temp\cc9ZvSHH.s:468    .text.copy_sta_vht_capab:000000000000009a .LBE18
C:\Users\stapi\AppData\Local\Temp\cc9ZvSHH.s:768    .text.hostapd_eid_vendor_vht:000000000000003c .LBE19
C:\Users\stapi\AppData\Local\Temp\cc9ZvSHH.s:772    .text.hostapd_eid_vendor_vht:0000000000000042 .LBB23
C:\Users\stapi\AppData\Local\Temp\cc9ZvSHH.s:777    .text.hostapd_eid_vendor_vht:0000000000000046 .LBE23
C:\Users\stapi\AppData\Local\Temp\cc9ZvSHH.s:787    .text.hostapd_eid_vendor_vht:000000000000004c .LBB24
C:\Users\stapi\AppData\Local\Temp\cc9ZvSHH.s:794    .text.hostapd_eid_vendor_vht:000000000000004c .LBE24

UNDEFINED SYMBOLS
__riscv_save_4
is_6ghz_op_class
os_memset
os_memcpy
__riscv_restore_4
__riscv_save_2
__riscv_restore_2
os_zalloc
wpa_printf
os_free
__riscv_save_1
__riscv_restore_1
