   1              		.file	"ieee802_11_shared.c"
   2              		.option nopic
   3              		.attribute arch, "rv32i2p0_m2p0_a2p0_f2p0_c2p0_b_p0p94"
   4              		.attribute unaligned_access, 0
   5              		.attribute stack_align, 16
   6              		.text
   7              	.Ltext0:
   8              		.cfi_sections	.debug_frame
   9              		.section	.text.hostapd_eid_assoc_comeback_time,"ax",@progbits
  10              		.align	1
  11              		.globl	hostapd_eid_assoc_comeback_time
  13              	hostapd_eid_assoc_comeback_time:
  14              	.LFB167:
  15              		.file 1 "C:/Users/stapi/OneDrive/Desktop/GD32VW553/V1_MQTT_OK/GD32VW55X_Wifi_BLE_SDK/GD32VW55x_REL
   1:C:/Users/stapi/OneDrive/Desktop/GD32VW553/V1_MQTT_OK/GD32VW55X_Wifi_BLE_SDK/GD32VW55x_RELEASE_V1.0.2/MSDK/wpa_supplicant/src/ap\ieee802_11_shared.c **** /*
   2:C:/Users/stapi/OneDrive/Desktop/GD32VW553/V1_MQTT_OK/GD32VW55X_Wifi_BLE_SDK/GD32VW55x_RELEASE_V1.0.2/MSDK/wpa_supplicant/src/ap\ieee802_11_shared.c ****  * hostapd / IEEE 802.11 Management
   3:C:/Users/stapi/OneDrive/Desktop/GD32VW553/V1_MQTT_OK/GD32VW55X_Wifi_BLE_SDK/GD32VW55x_RELEASE_V1.0.2/MSDK/wpa_supplicant/src/ap\ieee802_11_shared.c ****  * Copyright (c) 2002-2012, Jouni Malinen <j@w1.fi>
   4:C:/Users/stapi/OneDrive/Desktop/GD32VW553/V1_MQTT_OK/GD32VW55X_Wifi_BLE_SDK/GD32VW55x_RELEASE_V1.0.2/MSDK/wpa_supplicant/src/ap\ieee802_11_shared.c ****  *
   5:C:/Users/stapi/OneDrive/Desktop/GD32VW553/V1_MQTT_OK/GD32VW55X_Wifi_BLE_SDK/GD32VW55x_RELEASE_V1.0.2/MSDK/wpa_supplicant/src/ap\ieee802_11_shared.c ****  * This software may be distributed under the terms of the BSD license.
   6:C:/Users/stapi/OneDrive/Desktop/GD32VW553/V1_MQTT_OK/GD32VW55X_Wifi_BLE_SDK/GD32VW55x_RELEASE_V1.0.2/MSDK/wpa_supplicant/src/ap\ieee802_11_shared.c ****  * See README for more details.
   7:C:/Users/stapi/OneDrive/Desktop/GD32VW553/V1_MQTT_OK/GD32VW55X_Wifi_BLE_SDK/GD32VW55x_RELEASE_V1.0.2/MSDK/wpa_supplicant/src/ap\ieee802_11_shared.c ****  */
   8:C:/Users/stapi/OneDrive/Desktop/GD32VW553/V1_MQTT_OK/GD32VW55X_Wifi_BLE_SDK/GD32VW55x_RELEASE_V1.0.2/MSDK/wpa_supplicant/src/ap\ieee802_11_shared.c **** 
   9:C:/Users/stapi/OneDrive/Desktop/GD32VW553/V1_MQTT_OK/GD32VW55X_Wifi_BLE_SDK/GD32VW55x_RELEASE_V1.0.2/MSDK/wpa_supplicant/src/ap\ieee802_11_shared.c **** #include "utils/includes.h"
  10:C:/Users/stapi/OneDrive/Desktop/GD32VW553/V1_MQTT_OK/GD32VW55X_Wifi_BLE_SDK/GD32VW55x_RELEASE_V1.0.2/MSDK/wpa_supplicant/src/ap\ieee802_11_shared.c **** 
  11:C:/Users/stapi/OneDrive/Desktop/GD32VW553/V1_MQTT_OK/GD32VW55X_Wifi_BLE_SDK/GD32VW55x_RELEASE_V1.0.2/MSDK/wpa_supplicant/src/ap\ieee802_11_shared.c **** #ifdef CONFIG_AP
  12:C:/Users/stapi/OneDrive/Desktop/GD32VW553/V1_MQTT_OK/GD32VW55X_Wifi_BLE_SDK/GD32VW55x_RELEASE_V1.0.2/MSDK/wpa_supplicant/src/ap\ieee802_11_shared.c **** #include "utils/common.h"
  13:C:/Users/stapi/OneDrive/Desktop/GD32VW553/V1_MQTT_OK/GD32VW55X_Wifi_BLE_SDK/GD32VW55x_RELEASE_V1.0.2/MSDK/wpa_supplicant/src/ap\ieee802_11_shared.c **** #include "common/ieee802_11_defs.h"
  14:C:/Users/stapi/OneDrive/Desktop/GD32VW553/V1_MQTT_OK/GD32VW55X_Wifi_BLE_SDK/GD32VW55x_RELEASE_V1.0.2/MSDK/wpa_supplicant/src/ap\ieee802_11_shared.c **** #include "common/ocv.h"
  15:C:/Users/stapi/OneDrive/Desktop/GD32VW553/V1_MQTT_OK/GD32VW55X_Wifi_BLE_SDK/GD32VW55x_RELEASE_V1.0.2/MSDK/wpa_supplicant/src/ap\ieee802_11_shared.c **** #include "common/wpa_ctrl.h"
  16:C:/Users/stapi/OneDrive/Desktop/GD32VW553/V1_MQTT_OK/GD32VW55X_Wifi_BLE_SDK/GD32VW55x_RELEASE_V1.0.2/MSDK/wpa_supplicant/src/ap\ieee802_11_shared.c **** #include "hostapd.h"
  17:C:/Users/stapi/OneDrive/Desktop/GD32VW553/V1_MQTT_OK/GD32VW55X_Wifi_BLE_SDK/GD32VW55x_RELEASE_V1.0.2/MSDK/wpa_supplicant/src/ap\ieee802_11_shared.c **** #include "sta_info.h"
  18:C:/Users/stapi/OneDrive/Desktop/GD32VW553/V1_MQTT_OK/GD32VW55X_Wifi_BLE_SDK/GD32VW55x_RELEASE_V1.0.2/MSDK/wpa_supplicant/src/ap\ieee802_11_shared.c **** #include "ap_config.h"
  19:C:/Users/stapi/OneDrive/Desktop/GD32VW553/V1_MQTT_OK/GD32VW55X_Wifi_BLE_SDK/GD32VW55x_RELEASE_V1.0.2/MSDK/wpa_supplicant/src/ap\ieee802_11_shared.c **** #include "ap_drv_ops.h"
  20:C:/Users/stapi/OneDrive/Desktop/GD32VW553/V1_MQTT_OK/GD32VW55X_Wifi_BLE_SDK/GD32VW55x_RELEASE_V1.0.2/MSDK/wpa_supplicant/src/ap\ieee802_11_shared.c **** #include "wpa_auth.h"
  21:C:/Users/stapi/OneDrive/Desktop/GD32VW553/V1_MQTT_OK/GD32VW55X_Wifi_BLE_SDK/GD32VW55x_RELEASE_V1.0.2/MSDK/wpa_supplicant/src/ap\ieee802_11_shared.c **** #include "ieee802_11.h"
  22:C:/Users/stapi/OneDrive/Desktop/GD32VW553/V1_MQTT_OK/GD32VW55X_Wifi_BLE_SDK/GD32VW55x_RELEASE_V1.0.2/MSDK/wpa_supplicant/src/ap\ieee802_11_shared.c **** 
  23:C:/Users/stapi/OneDrive/Desktop/GD32VW553/V1_MQTT_OK/GD32VW55X_Wifi_BLE_SDK/GD32VW55x_RELEASE_V1.0.2/MSDK/wpa_supplicant/src/ap\ieee802_11_shared.c **** 
  24:C:/Users/stapi/OneDrive/Desktop/GD32VW553/V1_MQTT_OK/GD32VW55X_Wifi_BLE_SDK/GD32VW55x_RELEASE_V1.0.2/MSDK/wpa_supplicant/src/ap\ieee802_11_shared.c **** u8 * hostapd_eid_assoc_comeback_time(struct hostapd_data *hapd,
  25:C:/Users/stapi/OneDrive/Desktop/GD32VW553/V1_MQTT_OK/GD32VW55X_Wifi_BLE_SDK/GD32VW55x_RELEASE_V1.0.2/MSDK/wpa_supplicant/src/ap\ieee802_11_shared.c **** 				     struct sta_info *sta, u8 *eid)
  26:C:/Users/stapi/OneDrive/Desktop/GD32VW553/V1_MQTT_OK/GD32VW55X_Wifi_BLE_SDK/GD32VW55x_RELEASE_V1.0.2/MSDK/wpa_supplicant/src/ap\ieee802_11_shared.c **** {
  16              		.loc 1 26 1
  17              		.cfi_startproc
  18              	.LVL0:
  19 0000 17030000 		call	t0,__riscv_save_3
  19      E7020300 
  20              		.cfi_offset 18, -16
  21              		.cfi_offset 9, -12
  22              		.cfi_offset 8, -8
  23              		.cfi_offset 1, -4
  24              		.cfi_def_cfa_offset 16
  27:C:/Users/stapi/OneDrive/Desktop/GD32VW553/V1_MQTT_OK/GD32VW55X_Wifi_BLE_SDK/GD32VW55x_RELEASE_V1.0.2/MSDK/wpa_supplicant/src/ap\ieee802_11_shared.c **** 	u8 *pos = eid;
  25              		.loc 1 27 2
  26              	.LVL1:
  28:C:/Users/stapi/OneDrive/Desktop/GD32VW553/V1_MQTT_OK/GD32VW55X_Wifi_BLE_SDK/GD32VW55x_RELEASE_V1.0.2/MSDK/wpa_supplicant/src/ap\ieee802_11_shared.c **** 	u32 timeout, tu;
  27              		.loc 1 28 2
  29:C:/Users/stapi/OneDrive/Desktop/GD32VW553/V1_MQTT_OK/GD32VW55X_Wifi_BLE_SDK/GD32VW55x_RELEASE_V1.0.2/MSDK/wpa_supplicant/src/ap\ieee802_11_shared.c **** 	struct os_reltime now, passed;
  28              		.loc 1 29 2
  30:C:/Users/stapi/OneDrive/Desktop/GD32VW553/V1_MQTT_OK/GD32VW55X_Wifi_BLE_SDK/GD32VW55x_RELEASE_V1.0.2/MSDK/wpa_supplicant/src/ap\ieee802_11_shared.c **** 
  31:C:/Users/stapi/OneDrive/Desktop/GD32VW553/V1_MQTT_OK/GD32VW55X_Wifi_BLE_SDK/GD32VW55x_RELEASE_V1.0.2/MSDK/wpa_supplicant/src/ap\ieee802_11_shared.c **** 	*pos++ = WLAN_EID_TIMEOUT_INTERVAL;
  29              		.loc 1 31 2
  30              		.loc 1 31 9 is_stmt 0
  31 0008 93078003 		li	a5,56
  32 000c 2300F600 		sb	a5,0(a2)
  32:C:/Users/stapi/OneDrive/Desktop/GD32VW553/V1_MQTT_OK/GD32VW55X_Wifi_BLE_SDK/GD32VW55x_RELEASE_V1.0.2/MSDK/wpa_supplicant/src/ap\ieee802_11_shared.c **** 	*pos++ = 5;
  33              		.loc 1 32 2 is_stmt 1
  34              	.LVL2:
  35              		.loc 1 32 9 is_stmt 0
  36 0010 9547     		li	a5,5
  26:C:/Users/stapi/OneDrive/Desktop/GD32VW553/V1_MQTT_OK/GD32VW55X_Wifi_BLE_SDK/GD32VW55x_RELEASE_V1.0.2/MSDK/wpa_supplicant/src/ap\ieee802_11_shared.c **** 	u8 *pos = eid;
  37              		.loc 1 26 1
  38 0012 4111     		addi	sp,sp,-16
  39              		.cfi_def_cfa_offset 32
  40              		.loc 1 32 9
  41 0014 A300F600 		sb	a5,1(a2)
  33:C:/Users/stapi/OneDrive/Desktop/GD32VW553/V1_MQTT_OK/GD32VW55X_Wifi_BLE_SDK/GD32VW55x_RELEASE_V1.0.2/MSDK/wpa_supplicant/src/ap\ieee802_11_shared.c **** 	*pos++ = WLAN_TIMEOUT_ASSOC_COMEBACK;
  42              		.loc 1 33 2 is_stmt 1
  43              	.LVL3:
  44              		.loc 1 33 9 is_stmt 0
  45 0018 8D47     		li	a5,3
  46 001a 2301F600 		sb	a5,2(a2)
  34:C:/Users/stapi/OneDrive/Desktop/GD32VW553/V1_MQTT_OK/GD32VW55X_Wifi_BLE_SDK/GD32VW55x_RELEASE_V1.0.2/MSDK/wpa_supplicant/src/ap\ieee802_11_shared.c **** 	os_get_reltime(&now);
  47              		.loc 1 34 2 is_stmt 1
  26:C:/Users/stapi/OneDrive/Desktop/GD32VW553/V1_MQTT_OK/GD32VW55X_Wifi_BLE_SDK/GD32VW55x_RELEASE_V1.0.2/MSDK/wpa_supplicant/src/ap\ieee802_11_shared.c **** 	u8 *pos = eid;
  48              		.loc 1 26 1 is_stmt 0
  49 001e 2A89     		mv	s2,a0
  50              		.loc 1 34 2
  51 0020 2800     		addi	a0,sp,8
  52              	.LVL4:
  26:C:/Users/stapi/OneDrive/Desktop/GD32VW553/V1_MQTT_OK/GD32VW55X_Wifi_BLE_SDK/GD32VW55x_RELEASE_V1.0.2/MSDK/wpa_supplicant/src/ap\ieee802_11_shared.c **** 	u8 *pos = eid;
  53              		.loc 1 26 1
  54 0022 AE84     		mv	s1,a1
  55 0024 3284     		mv	s0,a2
  56              		.loc 1 34 2
  57 0026 97000000 		call	os_get_reltime
  57      E7800000 
  58              	.LVL5:
  35:C:/Users/stapi/OneDrive/Desktop/GD32VW553/V1_MQTT_OK/GD32VW55X_Wifi_BLE_SDK/GD32VW55x_RELEASE_V1.0.2/MSDK/wpa_supplicant/src/ap\ieee802_11_shared.c **** 	os_reltime_sub(&now, &sta->sa_query_start, &passed);
  59              		.loc 1 35 2 is_stmt 1
  60              	.LBB36:
  61              	.LBB37:
  62              		.file 2 "..\\..\\..\\..\\wpa_supplicant\\src/utils/os.h"
   1:..\..\..\..\wpa_supplicant\src/utils/os.h **** /*
   2:..\..\..\..\wpa_supplicant\src/utils/os.h ****  * OS specific functions
   3:..\..\..\..\wpa_supplicant\src/utils/os.h ****  * Copyright (c) 2005-2009, Jouni Malinen <j@w1.fi>
   4:..\..\..\..\wpa_supplicant\src/utils/os.h ****  *
   5:..\..\..\..\wpa_supplicant\src/utils/os.h ****  * This software may be distributed under the terms of the BSD license.
   6:..\..\..\..\wpa_supplicant\src/utils/os.h ****  * See README for more details.
   7:..\..\..\..\wpa_supplicant\src/utils/os.h ****  */
   8:..\..\..\..\wpa_supplicant\src/utils/os.h **** 
   9:..\..\..\..\wpa_supplicant\src/utils/os.h **** #ifndef OS_H
  10:..\..\..\..\wpa_supplicant\src/utils/os.h **** #define OS_H
  11:..\..\..\..\wpa_supplicant\src/utils/os.h **** 
  12:..\..\..\..\wpa_supplicant\src/utils/os.h **** typedef long os_time_t;
  13:..\..\..\..\wpa_supplicant\src/utils/os.h **** 
  14:..\..\..\..\wpa_supplicant\src/utils/os.h **** /**
  15:..\..\..\..\wpa_supplicant\src/utils/os.h ****  * os_sleep - Sleep (sec, usec)
  16:..\..\..\..\wpa_supplicant\src/utils/os.h ****  * @sec: Number of seconds to sleep
  17:..\..\..\..\wpa_supplicant\src/utils/os.h ****  * @usec: Number of microseconds to sleep
  18:..\..\..\..\wpa_supplicant\src/utils/os.h ****  */
  19:..\..\..\..\wpa_supplicant\src/utils/os.h **** void os_sleep(os_time_t sec, os_time_t usec);
  20:..\..\..\..\wpa_supplicant\src/utils/os.h **** 
  21:..\..\..\..\wpa_supplicant\src/utils/os.h **** struct os_time {
  22:..\..\..\..\wpa_supplicant\src/utils/os.h **** 	os_time_t sec;
  23:..\..\..\..\wpa_supplicant\src/utils/os.h **** 	os_time_t usec;
  24:..\..\..\..\wpa_supplicant\src/utils/os.h **** };
  25:..\..\..\..\wpa_supplicant\src/utils/os.h **** 
  26:..\..\..\..\wpa_supplicant\src/utils/os.h **** struct os_reltime {
  27:..\..\..\..\wpa_supplicant\src/utils/os.h **** 	os_time_t sec;
  28:..\..\..\..\wpa_supplicant\src/utils/os.h **** 	os_time_t usec;
  29:..\..\..\..\wpa_supplicant\src/utils/os.h **** };
  30:..\..\..\..\wpa_supplicant\src/utils/os.h **** 
  31:..\..\..\..\wpa_supplicant\src/utils/os.h **** /**
  32:..\..\..\..\wpa_supplicant\src/utils/os.h ****  * os_get_time - Get current time (sec, usec)
  33:..\..\..\..\wpa_supplicant\src/utils/os.h ****  * @t: Pointer to buffer for the time
  34:..\..\..\..\wpa_supplicant\src/utils/os.h ****  * Returns: 0 on success, -1 on failure
  35:..\..\..\..\wpa_supplicant\src/utils/os.h ****  */
  36:..\..\..\..\wpa_supplicant\src/utils/os.h **** int os_get_time(struct os_time *t);
  37:..\..\..\..\wpa_supplicant\src/utils/os.h **** 
  38:..\..\..\..\wpa_supplicant\src/utils/os.h **** /**
  39:..\..\..\..\wpa_supplicant\src/utils/os.h ****  * os_get_reltime - Get relative time (sec, usec)
  40:..\..\..\..\wpa_supplicant\src/utils/os.h ****  * @t: Pointer to buffer for the time
  41:..\..\..\..\wpa_supplicant\src/utils/os.h ****  * Returns: 0 on success, -1 on failure
  42:..\..\..\..\wpa_supplicant\src/utils/os.h ****  */
  43:..\..\..\..\wpa_supplicant\src/utils/os.h **** int os_get_reltime(struct os_reltime *t);
  44:..\..\..\..\wpa_supplicant\src/utils/os.h **** 
  45:..\..\..\..\wpa_supplicant\src/utils/os.h **** 
  46:..\..\..\..\wpa_supplicant\src/utils/os.h **** /* Helpers for handling struct os_time */
  47:..\..\..\..\wpa_supplicant\src/utils/os.h **** 
  48:..\..\..\..\wpa_supplicant\src/utils/os.h **** static inline int os_time_before(struct os_time *a, struct os_time *b)
  49:..\..\..\..\wpa_supplicant\src/utils/os.h **** {
  50:..\..\..\..\wpa_supplicant\src/utils/os.h **** 	return (a->sec < b->sec) ||
  51:..\..\..\..\wpa_supplicant\src/utils/os.h **** 	       (a->sec == b->sec && a->usec < b->usec);
  52:..\..\..\..\wpa_supplicant\src/utils/os.h **** }
  53:..\..\..\..\wpa_supplicant\src/utils/os.h **** 
  54:..\..\..\..\wpa_supplicant\src/utils/os.h **** 
  55:..\..\..\..\wpa_supplicant\src/utils/os.h **** static inline void os_time_sub(struct os_time *a, struct os_time *b,
  56:..\..\..\..\wpa_supplicant\src/utils/os.h **** 			       struct os_time *res)
  57:..\..\..\..\wpa_supplicant\src/utils/os.h **** {
  58:..\..\..\..\wpa_supplicant\src/utils/os.h **** 	res->sec = a->sec - b->sec;
  59:..\..\..\..\wpa_supplicant\src/utils/os.h **** 	res->usec = a->usec - b->usec;
  60:..\..\..\..\wpa_supplicant\src/utils/os.h **** 	if (res->usec < 0) {
  61:..\..\..\..\wpa_supplicant\src/utils/os.h **** 		res->sec--;
  62:..\..\..\..\wpa_supplicant\src/utils/os.h **** 		res->usec += 1000000;
  63:..\..\..\..\wpa_supplicant\src/utils/os.h **** 	}
  64:..\..\..\..\wpa_supplicant\src/utils/os.h **** }
  65:..\..\..\..\wpa_supplicant\src/utils/os.h **** 
  66:..\..\..\..\wpa_supplicant\src/utils/os.h **** 
  67:..\..\..\..\wpa_supplicant\src/utils/os.h **** /* Helpers for handling struct os_reltime */
  68:..\..\..\..\wpa_supplicant\src/utils/os.h **** 
  69:..\..\..\..\wpa_supplicant\src/utils/os.h **** static inline int os_reltime_before(struct os_reltime *a,
  70:..\..\..\..\wpa_supplicant\src/utils/os.h **** 				    struct os_reltime *b)
  71:..\..\..\..\wpa_supplicant\src/utils/os.h **** {
  72:..\..\..\..\wpa_supplicant\src/utils/os.h **** 	return (a->sec < b->sec) ||
  73:..\..\..\..\wpa_supplicant\src/utils/os.h **** 	       (a->sec == b->sec && a->usec < b->usec);
  74:..\..\..\..\wpa_supplicant\src/utils/os.h **** }
  75:..\..\..\..\wpa_supplicant\src/utils/os.h **** 
  76:..\..\..\..\wpa_supplicant\src/utils/os.h **** 
  77:..\..\..\..\wpa_supplicant\src/utils/os.h **** static inline void os_reltime_sub(struct os_reltime *a, struct os_reltime *b,
  78:..\..\..\..\wpa_supplicant\src/utils/os.h **** 				  struct os_reltime *res)
  79:..\..\..\..\wpa_supplicant\src/utils/os.h **** {
  80:..\..\..\..\wpa_supplicant\src/utils/os.h **** 	res->sec = a->sec - b->sec;
  63              		.loc 2 80 2
  64              		.loc 2 80 20 is_stmt 0
  65 002e 83A7440E 		lw	a5,228(s1)
  66 0032 2247     		lw	a4,8(sp)
  81:..\..\..\..\wpa_supplicant\src/utils/os.h **** 	res->usec = a->usec - b->usec;
  67              		.loc 2 81 22
  68 0034 83A6840E 		lw	a3,232(s1)
  80:..\..\..\..\wpa_supplicant\src/utils/os.h **** 	res->usec = a->usec - b->usec;
  69              		.loc 2 80 20
  70 0038 1D8F     		sub	a4,a4,a5
  71              	.LVL6:
  72              		.loc 2 81 2 is_stmt 1
  73              		.loc 2 81 22 is_stmt 0
  74 003a B247     		lw	a5,12(sp)
  75 003c 958F     		sub	a5,a5,a3
  76              	.LVL7:
  82:..\..\..\..\wpa_supplicant\src/utils/os.h **** 	if (res->usec < 0) {
  77              		.loc 2 82 2 is_stmt 1
  78              		.loc 2 82 5 is_stmt 0
  79 003e 63D80700 		bge	a5,zero,.L2
  83:..\..\..\..\wpa_supplicant\src/utils/os.h **** 		res->sec--;
  80              		.loc 2 83 3 is_stmt 1
  84:..\..\..\..\wpa_supplicant\src/utils/os.h **** 		res->usec += 1000000;
  81              		.loc 2 84 13 is_stmt 0
  82 0042 B7460F00 		li	a3,999424
  83 0046 93860624 		addi	a3,a3,576
  83:..\..\..\..\wpa_supplicant\src/utils/os.h **** 		res->sec--;
  84              		.loc 2 83 11
  85 004a 7D17     		addi	a4,a4,-1
  86              	.LVL8:
  87              		.loc 2 84 3 is_stmt 1
  88              		.loc 2 84 13 is_stmt 0
  89 004c B697     		add	a5,a5,a3
  90              	.LVL9:
  91              	.L2:
  92              	.LBE37:
  93              	.LBE36:
  36:C:/Users/stapi/OneDrive/Desktop/GD32VW553/V1_MQTT_OK/GD32VW55X_Wifi_BLE_SDK/GD32VW55x_RELEASE_V1.0.2/MSDK/wpa_supplicant/src/ap\ieee802_11_shared.c **** 	tu = (passed.sec * 1000000 + passed.usec) / 1024;
  94              		.loc 1 36 2 is_stmt 1
  95              		.loc 1 36 29 is_stmt 0
  96 004e B7460F00 		li	a3,999424
  97 0052 93860624 		addi	a3,a3,576
  98 0056 FF17D7C4 		maddr32	a5, a4, a3
  99              	.LVL10:
 100              		.loc 1 36 44
 101 005a 13070040 		li	a4,1024
 102              	.LVL11:
 103 005e B3C7E702 		div	a5,a5,a4
 104              	.LVL12:
  37:C:/Users/stapi/OneDrive/Desktop/GD32VW553/V1_MQTT_OK/GD32VW55X_Wifi_BLE_SDK/GD32VW55x_RELEASE_V1.0.2/MSDK/wpa_supplicant/src/ap\ieee802_11_shared.c **** 	if (hapd->conf->assoc_sa_query_max_timeout > tu)
 105              		.loc 1 37 2 is_stmt 1
 106              		.loc 1 37 16 is_stmt 0
 107 0062 03278900 		lw	a4,8(s2)
 108 0066 8326C715 		lw	a3,348(a4)
  38:C:/Users/stapi/OneDrive/Desktop/GD32VW553/V1_MQTT_OK/GD32VW55X_Wifi_BLE_SDK/GD32VW55x_RELEASE_V1.0.2/MSDK/wpa_supplicant/src/ap\ieee802_11_shared.c **** 		timeout = hapd->conf->assoc_sa_query_max_timeout - tu;
  39:C:/Users/stapi/OneDrive/Desktop/GD32VW553/V1_MQTT_OK/GD32VW55X_Wifi_BLE_SDK/GD32VW55x_RELEASE_V1.0.2/MSDK/wpa_supplicant/src/ap\ieee802_11_shared.c **** 	else
  40:C:/Users/stapi/OneDrive/Desktop/GD32VW553/V1_MQTT_OK/GD32VW55X_Wifi_BLE_SDK/GD32VW55x_RELEASE_V1.0.2/MSDK/wpa_supplicant/src/ap\ieee802_11_shared.c **** 		timeout = 0;
 109              		.loc 1 40 11
 110 006a 0147     		li	a4,0
  37:C:/Users/stapi/OneDrive/Desktop/GD32VW553/V1_MQTT_OK/GD32VW55X_Wifi_BLE_SDK/GD32VW55x_RELEASE_V1.0.2/MSDK/wpa_supplicant/src/ap\ieee802_11_shared.c **** 	if (hapd->conf->assoc_sa_query_max_timeout > tu)
 111              		.loc 1 37 5
 112 006c 63F4D700 		bleu	a3,a5,.L3
  38:C:/Users/stapi/OneDrive/Desktop/GD32VW553/V1_MQTT_OK/GD32VW55X_Wifi_BLE_SDK/GD32VW55x_RELEASE_V1.0.2/MSDK/wpa_supplicant/src/ap\ieee802_11_shared.c **** 		timeout = hapd->conf->assoc_sa_query_max_timeout - tu;
 113              		.loc 1 38 3 is_stmt 1
  38:C:/Users/stapi/OneDrive/Desktop/GD32VW553/V1_MQTT_OK/GD32VW55X_Wifi_BLE_SDK/GD32VW55x_RELEASE_V1.0.2/MSDK/wpa_supplicant/src/ap\ieee802_11_shared.c **** 		timeout = hapd->conf->assoc_sa_query_max_timeout - tu;
 114              		.loc 1 38 11 is_stmt 0
 115 0070 3387F640 		sub	a4,a3,a5
 116              	.LVL13:
 117              	.L3:
  41:C:/Users/stapi/OneDrive/Desktop/GD32VW553/V1_MQTT_OK/GD32VW55X_Wifi_BLE_SDK/GD32VW55x_RELEASE_V1.0.2/MSDK/wpa_supplicant/src/ap\ieee802_11_shared.c **** 	if (timeout < hapd->conf->assoc_sa_query_max_timeout)
 118              		.loc 1 41 2 is_stmt 1
 119              		.loc 1 41 5 is_stmt 0
 120 0074 6373D700 		bleu	a3,a4,.L4
  42:C:/Users/stapi/OneDrive/Desktop/GD32VW553/V1_MQTT_OK/GD32VW55X_Wifi_BLE_SDK/GD32VW55x_RELEASE_V1.0.2/MSDK/wpa_supplicant/src/ap\ieee802_11_shared.c **** 		timeout++; /* add some extra time for local timers */
 121              		.loc 1 42 3 is_stmt 1
 122              		.loc 1 42 10 is_stmt 0
 123 0078 0507     		addi	a4,a4,1
 124              	.LVL14:
 125              	.L4:
  43:C:/Users/stapi/OneDrive/Desktop/GD32VW553/V1_MQTT_OK/GD32VW55X_Wifi_BLE_SDK/GD32VW55x_RELEASE_V1.0.2/MSDK/wpa_supplicant/src/ap\ieee802_11_shared.c **** 	WPA_PUT_LE32(pos, timeout);
 126              		.loc 1 43 2 is_stmt 1
 127              	.LBB38:
 128              	.LBB39:
 129              		.file 3 "..\\..\\..\\..\\wpa_supplicant\\src/utils/common.h"
   1:..\..\..\..\wpa_supplicant\src/utils/common.h **** /*
   2:..\..\..\..\wpa_supplicant\src/utils/common.h ****  * wpa_supplicant/hostapd / common helper functions, etc.
   3:..\..\..\..\wpa_supplicant\src/utils/common.h ****  * Copyright (c) 2002-2007, Jouni Malinen <j@w1.fi>
   4:..\..\..\..\wpa_supplicant\src/utils/common.h ****  *
   5:..\..\..\..\wpa_supplicant\src/utils/common.h ****  * This software may be distributed under the terms of the BSD license.
   6:..\..\..\..\wpa_supplicant\src/utils/common.h ****  * See README for more details.
   7:..\..\..\..\wpa_supplicant\src/utils/common.h ****  */
   8:..\..\..\..\wpa_supplicant\src/utils/common.h **** 
   9:..\..\..\..\wpa_supplicant\src/utils/common.h **** #ifndef COMMON_H
  10:..\..\..\..\wpa_supplicant\src/utils/common.h **** #define COMMON_H
  11:..\..\..\..\wpa_supplicant\src/utils/common.h **** 
  12:..\..\..\..\wpa_supplicant\src/utils/common.h **** #include "os.h"
  13:..\..\..\..\wpa_supplicant\src/utils/common.h **** 
  14:..\..\..\..\wpa_supplicant\src/utils/common.h **** #if defined(__linux__) || defined(__GLIBC__)
  15:..\..\..\..\wpa_supplicant\src/utils/common.h **** #include <endian.h>
  16:..\..\..\..\wpa_supplicant\src/utils/common.h **** #include <byteswap.h>
  17:..\..\..\..\wpa_supplicant\src/utils/common.h **** #endif /* __linux__ */
  18:..\..\..\..\wpa_supplicant\src/utils/common.h **** 
  19:..\..\..\..\wpa_supplicant\src/utils/common.h **** #if defined(__FreeBSD__) || defined(__NetBSD__) || defined(__DragonFly__) || \
  20:..\..\..\..\wpa_supplicant\src/utils/common.h ****     defined(__OpenBSD__)
  21:..\..\..\..\wpa_supplicant\src/utils/common.h **** #include <sys/types.h>
  22:..\..\..\..\wpa_supplicant\src/utils/common.h **** #include <sys/endian.h>
  23:..\..\..\..\wpa_supplicant\src/utils/common.h **** #define __BYTE_ORDER	_BYTE_ORDER
  24:..\..\..\..\wpa_supplicant\src/utils/common.h **** #define	__LITTLE_ENDIAN	_LITTLE_ENDIAN
  25:..\..\..\..\wpa_supplicant\src/utils/common.h **** #define	__BIG_ENDIAN	_BIG_ENDIAN
  26:..\..\..\..\wpa_supplicant\src/utils/common.h **** #ifdef __OpenBSD__
  27:..\..\..\..\wpa_supplicant\src/utils/common.h **** #define bswap_16 swap16
  28:..\..\..\..\wpa_supplicant\src/utils/common.h **** #define bswap_32 swap32
  29:..\..\..\..\wpa_supplicant\src/utils/common.h **** #define bswap_64 swap64
  30:..\..\..\..\wpa_supplicant\src/utils/common.h **** #else /* __OpenBSD__ */
  31:..\..\..\..\wpa_supplicant\src/utils/common.h **** #define bswap_16 bswap16
  32:..\..\..\..\wpa_supplicant\src/utils/common.h **** #define bswap_32 bswap32
  33:..\..\..\..\wpa_supplicant\src/utils/common.h **** #define bswap_64 bswap64
  34:..\..\..\..\wpa_supplicant\src/utils/common.h **** #endif /* __OpenBSD__ */
  35:..\..\..\..\wpa_supplicant\src/utils/common.h **** #endif /* defined(__FreeBSD__) || defined(__NetBSD__) ||
  36:..\..\..\..\wpa_supplicant\src/utils/common.h **** 	* defined(__DragonFly__) || defined(__OpenBSD__) */
  37:..\..\..\..\wpa_supplicant\src/utils/common.h **** 
  38:..\..\..\..\wpa_supplicant\src/utils/common.h **** #ifdef __APPLE__
  39:..\..\..\..\wpa_supplicant\src/utils/common.h **** #include <sys/types.h>
  40:..\..\..\..\wpa_supplicant\src/utils/common.h **** #include <machine/endian.h>
  41:..\..\..\..\wpa_supplicant\src/utils/common.h **** #define __BYTE_ORDER	_BYTE_ORDER
  42:..\..\..\..\wpa_supplicant\src/utils/common.h **** #define __LITTLE_ENDIAN	_LITTLE_ENDIAN
  43:..\..\..\..\wpa_supplicant\src/utils/common.h **** #define __BIG_ENDIAN	_BIG_ENDIAN
  44:..\..\..\..\wpa_supplicant\src/utils/common.h **** static inline unsigned short bswap_16(unsigned short v)
  45:..\..\..\..\wpa_supplicant\src/utils/common.h **** {
  46:..\..\..\..\wpa_supplicant\src/utils/common.h **** 	return ((v & 0xff) << 8) | (v >> 8);
  47:..\..\..\..\wpa_supplicant\src/utils/common.h **** }
  48:..\..\..\..\wpa_supplicant\src/utils/common.h **** 
  49:..\..\..\..\wpa_supplicant\src/utils/common.h **** static inline unsigned int bswap_32(unsigned int v)
  50:..\..\..\..\wpa_supplicant\src/utils/common.h **** {
  51:..\..\..\..\wpa_supplicant\src/utils/common.h **** 	return ((v & 0xff) << 24) | ((v & 0xff00) << 8) |
  52:..\..\..\..\wpa_supplicant\src/utils/common.h **** 		((v & 0xff0000) >> 8) | (v >> 24);
  53:..\..\..\..\wpa_supplicant\src/utils/common.h **** }
  54:..\..\..\..\wpa_supplicant\src/utils/common.h **** #endif /* __APPLE__ */
  55:..\..\..\..\wpa_supplicant\src/utils/common.h **** 
  56:..\..\..\..\wpa_supplicant\src/utils/common.h **** #ifdef CONFIG_GDWIFI
  57:..\..\..\..\wpa_supplicant\src/utils/common.h **** // #include <sys/types.h>
  58:..\..\..\..\wpa_supplicant\src/utils/common.h **** // #include <machine/endian.h>
  59:..\..\..\..\wpa_supplicant\src/utils/common.h **** #define __BYTE_ORDER	BYTE_ORDER
  60:..\..\..\..\wpa_supplicant\src/utils/common.h **** #define __LITTLE_ENDIAN	LITTLE_ENDIAN
  61:..\..\..\..\wpa_supplicant\src/utils/common.h **** #define __BIG_ENDIAN	BIG_ENDIAN
  62:..\..\..\..\wpa_supplicant\src/utils/common.h **** #define ETHER_ADDR_LEN	6
  63:..\..\..\..\wpa_supplicant\src/utils/common.h **** #define ETH_P_802_3	0x0001		/* Dummy type for 802.3 frames  */
  64:..\..\..\..\wpa_supplicant\src/utils/common.h **** 
  65:..\..\..\..\wpa_supplicant\src/utils/common.h **** static inline unsigned short bswap_16(unsigned short v)
  66:..\..\..\..\wpa_supplicant\src/utils/common.h **** {
  67:..\..\..\..\wpa_supplicant\src/utils/common.h **** 	return ((v & 0xff) << 8) | (v >> 8);
  68:..\..\..\..\wpa_supplicant\src/utils/common.h **** }
  69:..\..\..\..\wpa_supplicant\src/utils/common.h **** 
  70:..\..\..\..\wpa_supplicant\src/utils/common.h **** static inline unsigned int bswap_32(unsigned int v)
  71:..\..\..\..\wpa_supplicant\src/utils/common.h **** {
  72:..\..\..\..\wpa_supplicant\src/utils/common.h **** 	return ((v & 0xff) << 24) | ((v & 0xff00) << 8) |
  73:..\..\..\..\wpa_supplicant\src/utils/common.h **** 		((v & 0xff0000) >> 8) | (v >> 24);
  74:..\..\..\..\wpa_supplicant\src/utils/common.h **** }
  75:..\..\..\..\wpa_supplicant\src/utils/common.h **** 
  76:..\..\..\..\wpa_supplicant\src/utils/common.h **** struct ether_header
  77:..\..\..\..\wpa_supplicant\src/utils/common.h **** {
  78:..\..\..\..\wpa_supplicant\src/utils/common.h **** 	uint8_t  ether_dhost[ETHER_ADDR_LEN];
  79:..\..\..\..\wpa_supplicant\src/utils/common.h **** 	uint8_t  ether_shost[ETHER_ADDR_LEN];
  80:..\..\..\..\wpa_supplicant\src/utils/common.h **** 	uint16_t ether_type;
  81:..\..\..\..\wpa_supplicant\src/utils/common.h **** } __PACKED;
  82:..\..\..\..\wpa_supplicant\src/utils/common.h **** #endif /* CONFIG_GDWIFI */
  83:..\..\..\..\wpa_supplicant\src/utils/common.h **** #ifdef __rtems__
  84:..\..\..\..\wpa_supplicant\src/utils/common.h **** #include <rtems/endian.h>
  85:..\..\..\..\wpa_supplicant\src/utils/common.h **** #define __BYTE_ORDER BYTE_ORDER
  86:..\..\..\..\wpa_supplicant\src/utils/common.h **** #define __LITTLE_ENDIAN LITTLE_ENDIAN
  87:..\..\..\..\wpa_supplicant\src/utils/common.h **** #define __BIG_ENDIAN BIG_ENDIAN
  88:..\..\..\..\wpa_supplicant\src/utils/common.h **** #define bswap_16 CPU_swap_u16
  89:..\..\..\..\wpa_supplicant\src/utils/common.h **** #define bswap_32 CPU_swap_u32
  90:..\..\..\..\wpa_supplicant\src/utils/common.h **** #endif /* __rtems__ */
  91:..\..\..\..\wpa_supplicant\src/utils/common.h **** 
  92:..\..\..\..\wpa_supplicant\src/utils/common.h **** #ifdef CONFIG_NATIVE_WINDOWS
  93:..\..\..\..\wpa_supplicant\src/utils/common.h **** #include <winsock.h>
  94:..\..\..\..\wpa_supplicant\src/utils/common.h **** 
  95:..\..\..\..\wpa_supplicant\src/utils/common.h **** typedef int socklen_t;
  96:..\..\..\..\wpa_supplicant\src/utils/common.h **** 
  97:..\..\..\..\wpa_supplicant\src/utils/common.h **** #ifndef MSG_DONTWAIT
  98:..\..\..\..\wpa_supplicant\src/utils/common.h **** #define MSG_DONTWAIT 0 /* not supported */
  99:..\..\..\..\wpa_supplicant\src/utils/common.h **** #endif
 100:..\..\..\..\wpa_supplicant\src/utils/common.h **** 
 101:..\..\..\..\wpa_supplicant\src/utils/common.h **** #endif /* CONFIG_NATIVE_WINDOWS */
 102:..\..\..\..\wpa_supplicant\src/utils/common.h **** 
 103:..\..\..\..\wpa_supplicant\src/utils/common.h **** #ifdef _MSC_VER
 104:..\..\..\..\wpa_supplicant\src/utils/common.h **** #define inline __inline
 105:..\..\..\..\wpa_supplicant\src/utils/common.h **** 
 106:..\..\..\..\wpa_supplicant\src/utils/common.h **** #undef vsnprintf
 107:..\..\..\..\wpa_supplicant\src/utils/common.h **** #define vsnprintf _vsnprintf
 108:..\..\..\..\wpa_supplicant\src/utils/common.h **** #undef close
 109:..\..\..\..\wpa_supplicant\src/utils/common.h **** #define close closesocket
 110:..\..\..\..\wpa_supplicant\src/utils/common.h **** #endif /* _MSC_VER */
 111:..\..\..\..\wpa_supplicant\src/utils/common.h **** 
 112:..\..\..\..\wpa_supplicant\src/utils/common.h **** 
 113:..\..\..\..\wpa_supplicant\src/utils/common.h **** /* Define platform specific integer types */
 114:..\..\..\..\wpa_supplicant\src/utils/common.h **** 
 115:..\..\..\..\wpa_supplicant\src/utils/common.h **** #ifdef _MSC_VER
 116:..\..\..\..\wpa_supplicant\src/utils/common.h **** typedef UINT64 u64;
 117:..\..\..\..\wpa_supplicant\src/utils/common.h **** typedef UINT32 u32;
 118:..\..\..\..\wpa_supplicant\src/utils/common.h **** typedef UINT16 u16;
 119:..\..\..\..\wpa_supplicant\src/utils/common.h **** typedef UINT8 u8;
 120:..\..\..\..\wpa_supplicant\src/utils/common.h **** typedef INT64 s64;
 121:..\..\..\..\wpa_supplicant\src/utils/common.h **** typedef INT32 s32;
 122:..\..\..\..\wpa_supplicant\src/utils/common.h **** typedef INT16 s16;
 123:..\..\..\..\wpa_supplicant\src/utils/common.h **** typedef INT8 s8;
 124:..\..\..\..\wpa_supplicant\src/utils/common.h **** #define WPA_TYPES_DEFINED
 125:..\..\..\..\wpa_supplicant\src/utils/common.h **** #endif /* _MSC_VER */
 126:..\..\..\..\wpa_supplicant\src/utils/common.h **** 
 127:..\..\..\..\wpa_supplicant\src/utils/common.h **** #ifdef __vxworks
 128:..\..\..\..\wpa_supplicant\src/utils/common.h **** typedef unsigned long long u64;
 129:..\..\..\..\wpa_supplicant\src/utils/common.h **** typedef UINT32 u32;
 130:..\..\..\..\wpa_supplicant\src/utils/common.h **** typedef UINT16 u16;
 131:..\..\..\..\wpa_supplicant\src/utils/common.h **** typedef UINT8 u8;
 132:..\..\..\..\wpa_supplicant\src/utils/common.h **** typedef long long s64;
 133:..\..\..\..\wpa_supplicant\src/utils/common.h **** typedef INT32 s32;
 134:..\..\..\..\wpa_supplicant\src/utils/common.h **** typedef INT16 s16;
 135:..\..\..\..\wpa_supplicant\src/utils/common.h **** typedef INT8 s8;
 136:..\..\..\..\wpa_supplicant\src/utils/common.h **** #define WPA_TYPES_DEFINED
 137:..\..\..\..\wpa_supplicant\src/utils/common.h **** #endif /* __vxworks */
 138:..\..\..\..\wpa_supplicant\src/utils/common.h **** 
 139:..\..\..\..\wpa_supplicant\src/utils/common.h **** #ifndef WPA_TYPES_DEFINED
 140:..\..\..\..\wpa_supplicant\src/utils/common.h **** #ifdef CONFIG_USE_INTTYPES_H
 141:..\..\..\..\wpa_supplicant\src/utils/common.h **** #include <inttypes.h>
 142:..\..\..\..\wpa_supplicant\src/utils/common.h **** #else
 143:..\..\..\..\wpa_supplicant\src/utils/common.h **** #include <stdint.h>
 144:..\..\..\..\wpa_supplicant\src/utils/common.h **** #endif
 145:..\..\..\..\wpa_supplicant\src/utils/common.h **** typedef uint64_t u64;
 146:..\..\..\..\wpa_supplicant\src/utils/common.h **** typedef uint32_t u32;
 147:..\..\..\..\wpa_supplicant\src/utils/common.h **** typedef uint16_t u16;
 148:..\..\..\..\wpa_supplicant\src/utils/common.h **** typedef uint8_t u8;
 149:..\..\..\..\wpa_supplicant\src/utils/common.h **** typedef int64_t s64;
 150:..\..\..\..\wpa_supplicant\src/utils/common.h **** typedef int32_t s32;
 151:..\..\..\..\wpa_supplicant\src/utils/common.h **** typedef int16_t s16;
 152:..\..\..\..\wpa_supplicant\src/utils/common.h **** typedef int8_t s8;
 153:..\..\..\..\wpa_supplicant\src/utils/common.h **** #define WPA_TYPES_DEFINED
 154:..\..\..\..\wpa_supplicant\src/utils/common.h **** #endif /* !WPA_TYPES_DEFINED */
 155:..\..\..\..\wpa_supplicant\src/utils/common.h **** 
 156:..\..\..\..\wpa_supplicant\src/utils/common.h **** 
 157:..\..\..\..\wpa_supplicant\src/utils/common.h **** /* Define platform specific byte swapping macros */
 158:..\..\..\..\wpa_supplicant\src/utils/common.h **** 
 159:..\..\..\..\wpa_supplicant\src/utils/common.h **** #if defined(__CYGWIN__) || defined(CONFIG_NATIVE_WINDOWS)
 160:..\..\..\..\wpa_supplicant\src/utils/common.h **** 
 161:..\..\..\..\wpa_supplicant\src/utils/common.h **** static inline unsigned short wpa_swap_16(unsigned short v)
 162:..\..\..\..\wpa_supplicant\src/utils/common.h **** {
 163:..\..\..\..\wpa_supplicant\src/utils/common.h **** 	return ((v & 0xff) << 8) | (v >> 8);
 164:..\..\..\..\wpa_supplicant\src/utils/common.h **** }
 165:..\..\..\..\wpa_supplicant\src/utils/common.h **** 
 166:..\..\..\..\wpa_supplicant\src/utils/common.h **** static inline unsigned int wpa_swap_32(unsigned int v)
 167:..\..\..\..\wpa_supplicant\src/utils/common.h **** {
 168:..\..\..\..\wpa_supplicant\src/utils/common.h **** 	return ((v & 0xff) << 24) | ((v & 0xff00) << 8) |
 169:..\..\..\..\wpa_supplicant\src/utils/common.h **** 		((v & 0xff0000) >> 8) | (v >> 24);
 170:..\..\..\..\wpa_supplicant\src/utils/common.h **** }
 171:..\..\..\..\wpa_supplicant\src/utils/common.h **** 
 172:..\..\..\..\wpa_supplicant\src/utils/common.h **** #define le_to_host16(n) (n)
 173:..\..\..\..\wpa_supplicant\src/utils/common.h **** #define host_to_le16(n) (n)
 174:..\..\..\..\wpa_supplicant\src/utils/common.h **** #define be_to_host16(n) wpa_swap_16(n)
 175:..\..\..\..\wpa_supplicant\src/utils/common.h **** #define host_to_be16(n) wpa_swap_16(n)
 176:..\..\..\..\wpa_supplicant\src/utils/common.h **** #define le_to_host32(n) (n)
 177:..\..\..\..\wpa_supplicant\src/utils/common.h **** #define host_to_le32(n) (n)
 178:..\..\..\..\wpa_supplicant\src/utils/common.h **** #define be_to_host32(n) wpa_swap_32(n)
 179:..\..\..\..\wpa_supplicant\src/utils/common.h **** #define host_to_be32(n) wpa_swap_32(n)
 180:..\..\..\..\wpa_supplicant\src/utils/common.h **** #define host_to_le64(n) (n)
 181:..\..\..\..\wpa_supplicant\src/utils/common.h **** 
 182:..\..\..\..\wpa_supplicant\src/utils/common.h **** #define WPA_BYTE_SWAP_DEFINED
 183:..\..\..\..\wpa_supplicant\src/utils/common.h **** 
 184:..\..\..\..\wpa_supplicant\src/utils/common.h **** #endif /* __CYGWIN__ || CONFIG_NATIVE_WINDOWS */
 185:..\..\..\..\wpa_supplicant\src/utils/common.h **** 
 186:..\..\..\..\wpa_supplicant\src/utils/common.h **** 
 187:..\..\..\..\wpa_supplicant\src/utils/common.h **** #ifndef WPA_BYTE_SWAP_DEFINED
 188:..\..\..\..\wpa_supplicant\src/utils/common.h **** 
 189:..\..\..\..\wpa_supplicant\src/utils/common.h **** #ifndef __BYTE_ORDER
 190:..\..\..\..\wpa_supplicant\src/utils/common.h **** #ifndef __LITTLE_ENDIAN
 191:..\..\..\..\wpa_supplicant\src/utils/common.h **** #ifndef __BIG_ENDIAN
 192:..\..\..\..\wpa_supplicant\src/utils/common.h **** #define __LITTLE_ENDIAN 1234
 193:..\..\..\..\wpa_supplicant\src/utils/common.h **** #define __BIG_ENDIAN 4321
 194:..\..\..\..\wpa_supplicant\src/utils/common.h **** #if defined(sparc)
 195:..\..\..\..\wpa_supplicant\src/utils/common.h **** #define __BYTE_ORDER __BIG_ENDIAN
 196:..\..\..\..\wpa_supplicant\src/utils/common.h **** #endif
 197:..\..\..\..\wpa_supplicant\src/utils/common.h **** #endif /* __BIG_ENDIAN */
 198:..\..\..\..\wpa_supplicant\src/utils/common.h **** #endif /* __LITTLE_ENDIAN */
 199:..\..\..\..\wpa_supplicant\src/utils/common.h **** #endif /* __BYTE_ORDER */
 200:..\..\..\..\wpa_supplicant\src/utils/common.h **** 
 201:..\..\..\..\wpa_supplicant\src/utils/common.h **** #if __BYTE_ORDER == __LITTLE_ENDIAN
 202:..\..\..\..\wpa_supplicant\src/utils/common.h **** #define le_to_host16(n) ((__force u16) (le16) (n))
 203:..\..\..\..\wpa_supplicant\src/utils/common.h **** #define host_to_le16(n) ((__force le16) (u16) (n))
 204:..\..\..\..\wpa_supplicant\src/utils/common.h **** #define be_to_host16(n) bswap_16((__force u16) (be16) (n))
 205:..\..\..\..\wpa_supplicant\src/utils/common.h **** #define host_to_be16(n) ((__force be16) bswap_16((n)))
 206:..\..\..\..\wpa_supplicant\src/utils/common.h **** #define le_to_host32(n) ((__force u32) (le32) (n))
 207:..\..\..\..\wpa_supplicant\src/utils/common.h **** #define host_to_le32(n) ((__force le32) (u32) (n))
 208:..\..\..\..\wpa_supplicant\src/utils/common.h **** #define be_to_host32(n) bswap_32((__force u32) (be32) (n))
 209:..\..\..\..\wpa_supplicant\src/utils/common.h **** #define host_to_be32(n) ((__force be32) bswap_32((n)))
 210:..\..\..\..\wpa_supplicant\src/utils/common.h **** #define le_to_host64(n) ((__force u64) (le64) (n))
 211:..\..\..\..\wpa_supplicant\src/utils/common.h **** #define host_to_le64(n) ((__force le64) (u64) (n))
 212:..\..\..\..\wpa_supplicant\src/utils/common.h **** #define be_to_host64(n) bswap_64((__force u64) (be64) (n))
 213:..\..\..\..\wpa_supplicant\src/utils/common.h **** #define host_to_be64(n) ((__force be64) bswap_64((n)))
 214:..\..\..\..\wpa_supplicant\src/utils/common.h **** #elif __BYTE_ORDER == __BIG_ENDIAN
 215:..\..\..\..\wpa_supplicant\src/utils/common.h **** #define le_to_host16(n) bswap_16(n)
 216:..\..\..\..\wpa_supplicant\src/utils/common.h **** #define host_to_le16(n) bswap_16(n)
 217:..\..\..\..\wpa_supplicant\src/utils/common.h **** #define be_to_host16(n) (n)
 218:..\..\..\..\wpa_supplicant\src/utils/common.h **** #define host_to_be16(n) (n)
 219:..\..\..\..\wpa_supplicant\src/utils/common.h **** #define le_to_host32(n) bswap_32(n)
 220:..\..\..\..\wpa_supplicant\src/utils/common.h **** #define host_to_le32(n) bswap_32(n)
 221:..\..\..\..\wpa_supplicant\src/utils/common.h **** #define be_to_host32(n) (n)
 222:..\..\..\..\wpa_supplicant\src/utils/common.h **** #define host_to_be32(n) (n)
 223:..\..\..\..\wpa_supplicant\src/utils/common.h **** #define le_to_host64(n) bswap_64(n)
 224:..\..\..\..\wpa_supplicant\src/utils/common.h **** #define host_to_le64(n) bswap_64(n)
 225:..\..\..\..\wpa_supplicant\src/utils/common.h **** #define be_to_host64(n) (n)
 226:..\..\..\..\wpa_supplicant\src/utils/common.h **** #define host_to_be64(n) (n)
 227:..\..\..\..\wpa_supplicant\src/utils/common.h **** #ifndef WORDS_BIGENDIAN
 228:..\..\..\..\wpa_supplicant\src/utils/common.h **** #define WORDS_BIGENDIAN
 229:..\..\..\..\wpa_supplicant\src/utils/common.h **** #endif
 230:..\..\..\..\wpa_supplicant\src/utils/common.h **** #else
 231:..\..\..\..\wpa_supplicant\src/utils/common.h **** #error Could not determine CPU byte order
 232:..\..\..\..\wpa_supplicant\src/utils/common.h **** #endif
 233:..\..\..\..\wpa_supplicant\src/utils/common.h **** 
 234:..\..\..\..\wpa_supplicant\src/utils/common.h **** #define WPA_BYTE_SWAP_DEFINED
 235:..\..\..\..\wpa_supplicant\src/utils/common.h **** #endif /* !WPA_BYTE_SWAP_DEFINED */
 236:..\..\..\..\wpa_supplicant\src/utils/common.h **** 
 237:..\..\..\..\wpa_supplicant\src/utils/common.h **** 
 238:..\..\..\..\wpa_supplicant\src/utils/common.h **** /* Macros for handling unaligned memory accesses */
 239:..\..\..\..\wpa_supplicant\src/utils/common.h **** 
 240:..\..\..\..\wpa_supplicant\src/utils/common.h **** static inline u16 WPA_GET_BE16(const u8 *a)
 241:..\..\..\..\wpa_supplicant\src/utils/common.h **** {
 242:..\..\..\..\wpa_supplicant\src/utils/common.h **** 	return (a[0] << 8) | a[1];
 243:..\..\..\..\wpa_supplicant\src/utils/common.h **** }
 244:..\..\..\..\wpa_supplicant\src/utils/common.h **** 
 245:..\..\..\..\wpa_supplicant\src/utils/common.h **** static inline void WPA_PUT_BE16(u8 *a, u16 val)
 246:..\..\..\..\wpa_supplicant\src/utils/common.h **** {
 247:..\..\..\..\wpa_supplicant\src/utils/common.h **** 	a[0] = val >> 8;
 248:..\..\..\..\wpa_supplicant\src/utils/common.h **** 	a[1] = val & 0xff;
 249:..\..\..\..\wpa_supplicant\src/utils/common.h **** }
 250:..\..\..\..\wpa_supplicant\src/utils/common.h **** 
 251:..\..\..\..\wpa_supplicant\src/utils/common.h **** static inline u16 WPA_GET_LE16(const u8 *a)
 252:..\..\..\..\wpa_supplicant\src/utils/common.h **** {
 253:..\..\..\..\wpa_supplicant\src/utils/common.h **** 	return (a[1] << 8) | a[0];
 254:..\..\..\..\wpa_supplicant\src/utils/common.h **** }
 255:..\..\..\..\wpa_supplicant\src/utils/common.h **** 
 256:..\..\..\..\wpa_supplicant\src/utils/common.h **** static inline void WPA_PUT_LE16(u8 *a, u16 val)
 257:..\..\..\..\wpa_supplicant\src/utils/common.h **** {
 258:..\..\..\..\wpa_supplicant\src/utils/common.h **** 	a[1] = val >> 8;
 259:..\..\..\..\wpa_supplicant\src/utils/common.h **** 	a[0] = val & 0xff;
 260:..\..\..\..\wpa_supplicant\src/utils/common.h **** }
 261:..\..\..\..\wpa_supplicant\src/utils/common.h **** 
 262:..\..\..\..\wpa_supplicant\src/utils/common.h **** static inline u32 WPA_GET_BE24(const u8 *a)
 263:..\..\..\..\wpa_supplicant\src/utils/common.h **** {
 264:..\..\..\..\wpa_supplicant\src/utils/common.h **** 	return (a[0] << 16) | (a[1] << 8) | a[2];
 265:..\..\..\..\wpa_supplicant\src/utils/common.h **** }
 266:..\..\..\..\wpa_supplicant\src/utils/common.h **** 
 267:..\..\..\..\wpa_supplicant\src/utils/common.h **** static inline void WPA_PUT_BE24(u8 *a, u32 val)
 268:..\..\..\..\wpa_supplicant\src/utils/common.h **** {
 269:..\..\..\..\wpa_supplicant\src/utils/common.h **** 	a[0] = (val >> 16) & 0xff;
 270:..\..\..\..\wpa_supplicant\src/utils/common.h **** 	a[1] = (val >> 8) & 0xff;
 271:..\..\..\..\wpa_supplicant\src/utils/common.h **** 	a[2] = val & 0xff;
 272:..\..\..\..\wpa_supplicant\src/utils/common.h **** }
 273:..\..\..\..\wpa_supplicant\src/utils/common.h **** 
 274:..\..\..\..\wpa_supplicant\src/utils/common.h **** static inline u32 WPA_GET_BE32(const u8 *a)
 275:..\..\..\..\wpa_supplicant\src/utils/common.h **** {
 276:..\..\..\..\wpa_supplicant\src/utils/common.h **** 	return ((u32) a[0] << 24) | (a[1] << 16) | (a[2] << 8) | a[3];
 277:..\..\..\..\wpa_supplicant\src/utils/common.h **** }
 278:..\..\..\..\wpa_supplicant\src/utils/common.h **** 
 279:..\..\..\..\wpa_supplicant\src/utils/common.h **** static inline void WPA_PUT_BE32(u8 *a, u32 val)
 280:..\..\..\..\wpa_supplicant\src/utils/common.h **** {
 281:..\..\..\..\wpa_supplicant\src/utils/common.h **** 	a[0] = (val >> 24) & 0xff;
 282:..\..\..\..\wpa_supplicant\src/utils/common.h **** 	a[1] = (val >> 16) & 0xff;
 283:..\..\..\..\wpa_supplicant\src/utils/common.h **** 	a[2] = (val >> 8) & 0xff;
 284:..\..\..\..\wpa_supplicant\src/utils/common.h **** 	a[3] = val & 0xff;
 285:..\..\..\..\wpa_supplicant\src/utils/common.h **** }
 286:..\..\..\..\wpa_supplicant\src/utils/common.h **** 
 287:..\..\..\..\wpa_supplicant\src/utils/common.h **** static inline u32 WPA_GET_LE32(const u8 *a)
 288:..\..\..\..\wpa_supplicant\src/utils/common.h **** {
 289:..\..\..\..\wpa_supplicant\src/utils/common.h **** 	return ((u32) a[3] << 24) | (a[2] << 16) | (a[1] << 8) | a[0];
 290:..\..\..\..\wpa_supplicant\src/utils/common.h **** }
 291:..\..\..\..\wpa_supplicant\src/utils/common.h **** 
 292:..\..\..\..\wpa_supplicant\src/utils/common.h **** static inline void WPA_PUT_LE32(u8 *a, u32 val)
 293:..\..\..\..\wpa_supplicant\src/utils/common.h **** {
 294:..\..\..\..\wpa_supplicant\src/utils/common.h **** 	a[3] = (val >> 24) & 0xff;
 130              		.loc 3 294 2
 131              		.loc 3 294 14 is_stmt 0
 132 007a 93578701 		srli	a5,a4,24
 133              	.LVL15:
 134              		.loc 3 294 7
 135 007e 2303F400 		sb	a5,6(s0)
 295:..\..\..\..\wpa_supplicant\src/utils/common.h **** 	a[2] = (val >> 16) & 0xff;
 136              		.loc 3 295 2 is_stmt 1
 137              		.loc 3 295 14 is_stmt 0
 138 0082 93570701 		srli	a5,a4,16
 139              		.loc 3 295 7
 140 0086 A302F400 		sb	a5,5(s0)
 296:..\..\..\..\wpa_supplicant\src/utils/common.h **** 	a[1] = (val >> 8) & 0xff;
 141              		.loc 3 296 2 is_stmt 1
 142              		.loc 3 296 14 is_stmt 0
 143 008a 93578700 		srli	a5,a4,8
 144              		.loc 3 296 7
 145 008e 2302F400 		sb	a5,4(s0)
 297:..\..\..\..\wpa_supplicant\src/utils/common.h **** 	a[0] = val & 0xff;
 146              		.loc 3 297 2 is_stmt 1
 147              		.loc 3 297 7 is_stmt 0
 148 0092 A301E400 		sb	a4,3(s0)
 149              	.LVL16:
 150              	.LBE39:
 151              	.LBE38:
  44:C:/Users/stapi/OneDrive/Desktop/GD32VW553/V1_MQTT_OK/GD32VW55X_Wifi_BLE_SDK/GD32VW55x_RELEASE_V1.0.2/MSDK/wpa_supplicant/src/ap\ieee802_11_shared.c **** 	pos += 4;
 152              		.loc 1 44 2 is_stmt 1
  45:C:/Users/stapi/OneDrive/Desktop/GD32VW553/V1_MQTT_OK/GD32VW55X_Wifi_BLE_SDK/GD32VW55x_RELEASE_V1.0.2/MSDK/wpa_supplicant/src/ap\ieee802_11_shared.c **** 
  46:C:/Users/stapi/OneDrive/Desktop/GD32VW553/V1_MQTT_OK/GD32VW55X_Wifi_BLE_SDK/GD32VW55x_RELEASE_V1.0.2/MSDK/wpa_supplicant/src/ap\ieee802_11_shared.c **** 	return pos;
 153              		.loc 1 46 2
  47:C:/Users/stapi/OneDrive/Desktop/GD32VW553/V1_MQTT_OK/GD32VW55X_Wifi_BLE_SDK/GD32VW55x_RELEASE_V1.0.2/MSDK/wpa_supplicant/src/ap\ieee802_11_shared.c **** }
 154              		.loc 1 47 1 is_stmt 0
 155 0096 13057400 		addi	a0,s0,7
 156              	.LVL17:
 157 009a 4101     		addi	sp,sp,16
 158              		.cfi_def_cfa_offset 0
 159 009c 17030000 		tail	__riscv_restore_3
 159      67000300 
 160              		.cfi_restore 18
 161              		.cfi_restore 9
 162              		.cfi_restore 8
 163              		.cfi_restore 1
 164              		.cfi_def_cfa_offset -16
 165              		.cfi_endproc
 166              	.LFE167:
 168              		.section	.rodata.ieee802_11_send_sa_query_req.str1.4,"aMS",@progbits,1
 169              		.align	2
 170              	.LC0:
 171 0000 49454545 		.string	"IEEE 802.11: Sending SA Query Request to %02x:%02x:%02x:%02x:%02x:%02x"
 171      20383032 
 171      2E31313A 
 171      2053656E 
 171      64696E67 
 172 0047 00       		.align	2
 173              	.LC1:
 174 0048 49454545 		.string	"IEEE 802.11: SA Query Transaction ID"
 174      20383032 
 174      2E31313A 
 174      20534120 
 174      51756572 
 175 006d 000000   		.align	2
 176              	.LC2:
 177 0070 4661696C 		.string	"Failed to allocate buffer for SA Query Response frame"
 177      65642074 
 177      6F20616C 
 177      6C6F6361 
 177      74652062 
 178 00a6 0000     		.align	2
 179              	.LC3:
 180 00a8 69656565 		.string	"ieee802_11_send_sa_query_req: send failed"
 180      3830325F 
 180      31315F73 
 180      656E645F 
 180      73615F71 
 181              		.section	.text.ieee802_11_send_sa_query_req,"ax",@progbits
 182              		.align	1
 183              		.globl	ieee802_11_send_sa_query_req
 185              	ieee802_11_send_sa_query_req:
 186              	.LFB168:
  48:C:/Users/stapi/OneDrive/Desktop/GD32VW553/V1_MQTT_OK/GD32VW55X_Wifi_BLE_SDK/GD32VW55x_RELEASE_V1.0.2/MSDK/wpa_supplicant/src/ap\ieee802_11_shared.c **** 
  49:C:/Users/stapi/OneDrive/Desktop/GD32VW553/V1_MQTT_OK/GD32VW55X_Wifi_BLE_SDK/GD32VW55x_RELEASE_V1.0.2/MSDK/wpa_supplicant/src/ap\ieee802_11_shared.c **** 
  50:C:/Users/stapi/OneDrive/Desktop/GD32VW553/V1_MQTT_OK/GD32VW55X_Wifi_BLE_SDK/GD32VW55x_RELEASE_V1.0.2/MSDK/wpa_supplicant/src/ap\ieee802_11_shared.c **** /* MLME-SAQuery.request */
  51:C:/Users/stapi/OneDrive/Desktop/GD32VW553/V1_MQTT_OK/GD32VW55X_Wifi_BLE_SDK/GD32VW55x_RELEASE_V1.0.2/MSDK/wpa_supplicant/src/ap\ieee802_11_shared.c **** void ieee802_11_send_sa_query_req(struct hostapd_data *hapd,
  52:C:/Users/stapi/OneDrive/Desktop/GD32VW553/V1_MQTT_OK/GD32VW55X_Wifi_BLE_SDK/GD32VW55x_RELEASE_V1.0.2/MSDK/wpa_supplicant/src/ap\ieee802_11_shared.c **** 				  const u8 *addr, const u8 *trans_id)
  53:C:/Users/stapi/OneDrive/Desktop/GD32VW553/V1_MQTT_OK/GD32VW55X_Wifi_BLE_SDK/GD32VW55x_RELEASE_V1.0.2/MSDK/wpa_supplicant/src/ap\ieee802_11_shared.c **** {
 187              		.loc 1 53 1 is_stmt 1
 188              		.cfi_startproc
 189              	.LVL18:
 190 0000 17030000 		call	t0,__riscv_save_4
 190      E7020300 
 191              		.cfi_offset 19, -20
 192              		.cfi_offset 18, -16
 193              		.cfi_offset 9, -12
 194              		.cfi_offset 8, -8
 195              		.cfi_offset 1, -4
 196              		.cfi_def_cfa_offset 32
  54:C:/Users/stapi/OneDrive/Desktop/GD32VW553/V1_MQTT_OK/GD32VW55X_Wifi_BLE_SDK/GD32VW55x_RELEASE_V1.0.2/MSDK/wpa_supplicant/src/ap\ieee802_11_shared.c **** #ifdef CONFIG_OCV
  55:C:/Users/stapi/OneDrive/Desktop/GD32VW553/V1_MQTT_OK/GD32VW55X_Wifi_BLE_SDK/GD32VW55x_RELEASE_V1.0.2/MSDK/wpa_supplicant/src/ap\ieee802_11_shared.c **** 	struct sta_info *sta;
  56:C:/Users/stapi/OneDrive/Desktop/GD32VW553/V1_MQTT_OK/GD32VW55X_Wifi_BLE_SDK/GD32VW55x_RELEASE_V1.0.2/MSDK/wpa_supplicant/src/ap\ieee802_11_shared.c **** #endif /* CONFIG_OCV */
  57:C:/Users/stapi/OneDrive/Desktop/GD32VW553/V1_MQTT_OK/GD32VW55X_Wifi_BLE_SDK/GD32VW55x_RELEASE_V1.0.2/MSDK/wpa_supplicant/src/ap\ieee802_11_shared.c **** 	struct ieee80211_mgmt *mgmt;
 197              		.loc 1 57 2
  58:C:/Users/stapi/OneDrive/Desktop/GD32VW553/V1_MQTT_OK/GD32VW55X_Wifi_BLE_SDK/GD32VW55x_RELEASE_V1.0.2/MSDK/wpa_supplicant/src/ap\ieee802_11_shared.c **** 	u8 *oci_ie = NULL;
 198              		.loc 1 58 2
 199              	.LVL19:
  59:C:/Users/stapi/OneDrive/Desktop/GD32VW553/V1_MQTT_OK/GD32VW55X_Wifi_BLE_SDK/GD32VW55x_RELEASE_V1.0.2/MSDK/wpa_supplicant/src/ap\ieee802_11_shared.c **** 	u8 oci_ie_len = 0;
 200              		.loc 1 59 2
  60:C:/Users/stapi/OneDrive/Desktop/GD32VW553/V1_MQTT_OK/GD32VW55X_Wifi_BLE_SDK/GD32VW55x_RELEASE_V1.0.2/MSDK/wpa_supplicant/src/ap\ieee802_11_shared.c **** 	u8 *end;
 201              		.loc 1 60 2
  61:C:/Users/stapi/OneDrive/Desktop/GD32VW553/V1_MQTT_OK/GD32VW55X_Wifi_BLE_SDK/GD32VW55x_RELEASE_V1.0.2/MSDK/wpa_supplicant/src/ap\ieee802_11_shared.c **** 
  62:C:/Users/stapi/OneDrive/Desktop/GD32VW553/V1_MQTT_OK/GD32VW55X_Wifi_BLE_SDK/GD32VW55x_RELEASE_V1.0.2/MSDK/wpa_supplicant/src/ap\ieee802_11_shared.c **** 	wpa_printf(MSG_DEBUG, "IEEE 802.11: Sending SA Query Request to "
 202              		.loc 1 62 2
 203 0008 83C85500 		lbu	a7,5(a1)
 204 000c 03C84500 		lbu	a6,4(a1)
 205 0010 83C73500 		lbu	a5,3(a1)
 206 0014 03C72500 		lbu	a4,2(a1)
 207 0018 83C61500 		lbu	a3,1(a1)
  53:C:/Users/stapi/OneDrive/Desktop/GD32VW553/V1_MQTT_OK/GD32VW55X_Wifi_BLE_SDK/GD32VW55x_RELEASE_V1.0.2/MSDK/wpa_supplicant/src/ap\ieee802_11_shared.c **** #ifdef CONFIG_OCV
 208              		.loc 1 53 1 is_stmt 0
 209 001c B289     		mv	s3,a2
 210              		.loc 1 62 2
 211 001e 03C60500 		lbu	a2,0(a1)
 212              	.LVL20:
  53:C:/Users/stapi/OneDrive/Desktop/GD32VW553/V1_MQTT_OK/GD32VW55X_Wifi_BLE_SDK/GD32VW55x_RELEASE_V1.0.2/MSDK/wpa_supplicant/src/ap\ieee802_11_shared.c **** #ifdef CONFIG_OCV
 213              		.loc 1 53 1
 214 0022 AE84     		mv	s1,a1
 215              		.loc 1 62 2
 216 0024 B7050000 		lui	a1,%hi(.LC0)
 217              	.LVL21:
  53:C:/Users/stapi/OneDrive/Desktop/GD32VW553/V1_MQTT_OK/GD32VW55X_Wifi_BLE_SDK/GD32VW55x_RELEASE_V1.0.2/MSDK/wpa_supplicant/src/ap\ieee802_11_shared.c **** #ifdef CONFIG_OCV
 218              		.loc 1 53 1
 219 0028 4111     		addi	sp,sp,-16
 220              		.cfi_def_cfa_offset 48
 221              		.loc 1 62 2
 222 002a 93850500 		addi	a1,a1,%lo(.LC0)
  53:C:/Users/stapi/OneDrive/Desktop/GD32VW553/V1_MQTT_OK/GD32VW55X_Wifi_BLE_SDK/GD32VW55x_RELEASE_V1.0.2/MSDK/wpa_supplicant/src/ap\ieee802_11_shared.c **** #ifdef CONFIG_OCV
 223              		.loc 1 53 1
 224 002e 2A89     		mv	s2,a0
 225              		.loc 1 62 2
 226 0030 0945     		li	a0,2
 227              	.LVL22:
 228 0032 97000000 		call	wpa_printf
 228      E7800000 
 229              	.LVL23:
  63:C:/Users/stapi/OneDrive/Desktop/GD32VW553/V1_MQTT_OK/GD32VW55X_Wifi_BLE_SDK/GD32VW55x_RELEASE_V1.0.2/MSDK/wpa_supplicant/src/ap\ieee802_11_shared.c **** 		   MACSTR, MAC2STR(addr));
  64:C:/Users/stapi/OneDrive/Desktop/GD32VW553/V1_MQTT_OK/GD32VW55X_Wifi_BLE_SDK/GD32VW55x_RELEASE_V1.0.2/MSDK/wpa_supplicant/src/ap\ieee802_11_shared.c **** 	wpa_hexdump(MSG_DEBUG, "IEEE 802.11: SA Query Transaction ID",
 230              		.loc 1 64 2 is_stmt 1
 231 003a B7050000 		lui	a1,%hi(.LC1)
 232 003e 0945     		li	a0,2
 233 0040 8946     		li	a3,2
 234 0042 4E86     		mv	a2,s3
 235 0044 93850500 		addi	a1,a1,%lo(.LC1)
 236 0048 97000000 		call	wpa_hexdump
 236      E7800000 
 237              	.LVL24:
  65:C:/Users/stapi/OneDrive/Desktop/GD32VW553/V1_MQTT_OK/GD32VW55X_Wifi_BLE_SDK/GD32VW55x_RELEASE_V1.0.2/MSDK/wpa_supplicant/src/ap\ieee802_11_shared.c **** 		    trans_id, WLAN_SA_QUERY_TR_ID_LEN);
  66:C:/Users/stapi/OneDrive/Desktop/GD32VW553/V1_MQTT_OK/GD32VW55X_Wifi_BLE_SDK/GD32VW55x_RELEASE_V1.0.2/MSDK/wpa_supplicant/src/ap\ieee802_11_shared.c **** 
  67:C:/Users/stapi/OneDrive/Desktop/GD32VW553/V1_MQTT_OK/GD32VW55X_Wifi_BLE_SDK/GD32VW55x_RELEASE_V1.0.2/MSDK/wpa_supplicant/src/ap\ieee802_11_shared.c **** #ifdef CONFIG_OCV
  68:C:/Users/stapi/OneDrive/Desktop/GD32VW553/V1_MQTT_OK/GD32VW55X_Wifi_BLE_SDK/GD32VW55x_RELEASE_V1.0.2/MSDK/wpa_supplicant/src/ap\ieee802_11_shared.c **** 	sta = ap_get_sta(hapd, addr);
  69:C:/Users/stapi/OneDrive/Desktop/GD32VW553/V1_MQTT_OK/GD32VW55X_Wifi_BLE_SDK/GD32VW55x_RELEASE_V1.0.2/MSDK/wpa_supplicant/src/ap\ieee802_11_shared.c **** 	if (sta && wpa_auth_uses_ocv(sta->wpa_sm)) {
  70:C:/Users/stapi/OneDrive/Desktop/GD32VW553/V1_MQTT_OK/GD32VW55X_Wifi_BLE_SDK/GD32VW55x_RELEASE_V1.0.2/MSDK/wpa_supplicant/src/ap\ieee802_11_shared.c **** 		struct wpa_channel_info ci;
  71:C:/Users/stapi/OneDrive/Desktop/GD32VW553/V1_MQTT_OK/GD32VW55X_Wifi_BLE_SDK/GD32VW55x_RELEASE_V1.0.2/MSDK/wpa_supplicant/src/ap\ieee802_11_shared.c **** 
  72:C:/Users/stapi/OneDrive/Desktop/GD32VW553/V1_MQTT_OK/GD32VW55X_Wifi_BLE_SDK/GD32VW55x_RELEASE_V1.0.2/MSDK/wpa_supplicant/src/ap\ieee802_11_shared.c **** 		if (hostapd_drv_channel_info(hapd, &ci) != 0) {
  73:C:/Users/stapi/OneDrive/Desktop/GD32VW553/V1_MQTT_OK/GD32VW55X_Wifi_BLE_SDK/GD32VW55x_RELEASE_V1.0.2/MSDK/wpa_supplicant/src/ap\ieee802_11_shared.c **** 			wpa_printf(MSG_WARNING,
  74:C:/Users/stapi/OneDrive/Desktop/GD32VW553/V1_MQTT_OK/GD32VW55X_Wifi_BLE_SDK/GD32VW55x_RELEASE_V1.0.2/MSDK/wpa_supplicant/src/ap\ieee802_11_shared.c **** 				   "Failed to get channel info for OCI element in SA Query Request");
  75:C:/Users/stapi/OneDrive/Desktop/GD32VW553/V1_MQTT_OK/GD32VW55X_Wifi_BLE_SDK/GD32VW55x_RELEASE_V1.0.2/MSDK/wpa_supplicant/src/ap\ieee802_11_shared.c **** 			return;
  76:C:/Users/stapi/OneDrive/Desktop/GD32VW553/V1_MQTT_OK/GD32VW55X_Wifi_BLE_SDK/GD32VW55x_RELEASE_V1.0.2/MSDK/wpa_supplicant/src/ap\ieee802_11_shared.c **** 		}
  77:C:/Users/stapi/OneDrive/Desktop/GD32VW553/V1_MQTT_OK/GD32VW55X_Wifi_BLE_SDK/GD32VW55x_RELEASE_V1.0.2/MSDK/wpa_supplicant/src/ap\ieee802_11_shared.c **** #ifdef CONFIG_TESTING_OPTIONS
  78:C:/Users/stapi/OneDrive/Desktop/GD32VW553/V1_MQTT_OK/GD32VW55X_Wifi_BLE_SDK/GD32VW55x_RELEASE_V1.0.2/MSDK/wpa_supplicant/src/ap\ieee802_11_shared.c **** 		if (hapd->conf->oci_freq_override_saquery_req) {
  79:C:/Users/stapi/OneDrive/Desktop/GD32VW553/V1_MQTT_OK/GD32VW55X_Wifi_BLE_SDK/GD32VW55x_RELEASE_V1.0.2/MSDK/wpa_supplicant/src/ap\ieee802_11_shared.c **** 			wpa_printf(MSG_INFO,
  80:C:/Users/stapi/OneDrive/Desktop/GD32VW553/V1_MQTT_OK/GD32VW55X_Wifi_BLE_SDK/GD32VW55x_RELEASE_V1.0.2/MSDK/wpa_supplicant/src/ap\ieee802_11_shared.c **** 				   "TEST: Override OCI frequency %d -> %u MHz",
  81:C:/Users/stapi/OneDrive/Desktop/GD32VW553/V1_MQTT_OK/GD32VW55X_Wifi_BLE_SDK/GD32VW55x_RELEASE_V1.0.2/MSDK/wpa_supplicant/src/ap\ieee802_11_shared.c **** 				   ci.frequency,
  82:C:/Users/stapi/OneDrive/Desktop/GD32VW553/V1_MQTT_OK/GD32VW55X_Wifi_BLE_SDK/GD32VW55x_RELEASE_V1.0.2/MSDK/wpa_supplicant/src/ap\ieee802_11_shared.c **** 				   hapd->conf->oci_freq_override_saquery_req);
  83:C:/Users/stapi/OneDrive/Desktop/GD32VW553/V1_MQTT_OK/GD32VW55X_Wifi_BLE_SDK/GD32VW55x_RELEASE_V1.0.2/MSDK/wpa_supplicant/src/ap\ieee802_11_shared.c **** 			ci.frequency =
  84:C:/Users/stapi/OneDrive/Desktop/GD32VW553/V1_MQTT_OK/GD32VW55X_Wifi_BLE_SDK/GD32VW55x_RELEASE_V1.0.2/MSDK/wpa_supplicant/src/ap\ieee802_11_shared.c **** 				hapd->conf->oci_freq_override_saquery_req;
  85:C:/Users/stapi/OneDrive/Desktop/GD32VW553/V1_MQTT_OK/GD32VW55X_Wifi_BLE_SDK/GD32VW55x_RELEASE_V1.0.2/MSDK/wpa_supplicant/src/ap\ieee802_11_shared.c **** 		}
  86:C:/Users/stapi/OneDrive/Desktop/GD32VW553/V1_MQTT_OK/GD32VW55X_Wifi_BLE_SDK/GD32VW55x_RELEASE_V1.0.2/MSDK/wpa_supplicant/src/ap\ieee802_11_shared.c **** #endif /* CONFIG_TESTING_OPTIONS */
  87:C:/Users/stapi/OneDrive/Desktop/GD32VW553/V1_MQTT_OK/GD32VW55X_Wifi_BLE_SDK/GD32VW55x_RELEASE_V1.0.2/MSDK/wpa_supplicant/src/ap\ieee802_11_shared.c **** 
  88:C:/Users/stapi/OneDrive/Desktop/GD32VW553/V1_MQTT_OK/GD32VW55X_Wifi_BLE_SDK/GD32VW55x_RELEASE_V1.0.2/MSDK/wpa_supplicant/src/ap\ieee802_11_shared.c **** 		oci_ie_len = OCV_OCI_EXTENDED_LEN;
  89:C:/Users/stapi/OneDrive/Desktop/GD32VW553/V1_MQTT_OK/GD32VW55X_Wifi_BLE_SDK/GD32VW55x_RELEASE_V1.0.2/MSDK/wpa_supplicant/src/ap\ieee802_11_shared.c **** 		oci_ie = os_zalloc(oci_ie_len);
  90:C:/Users/stapi/OneDrive/Desktop/GD32VW553/V1_MQTT_OK/GD32VW55X_Wifi_BLE_SDK/GD32VW55x_RELEASE_V1.0.2/MSDK/wpa_supplicant/src/ap\ieee802_11_shared.c **** 		if (!oci_ie) {
  91:C:/Users/stapi/OneDrive/Desktop/GD32VW553/V1_MQTT_OK/GD32VW55X_Wifi_BLE_SDK/GD32VW55x_RELEASE_V1.0.2/MSDK/wpa_supplicant/src/ap\ieee802_11_shared.c **** 			wpa_printf(MSG_WARNING,
  92:C:/Users/stapi/OneDrive/Desktop/GD32VW553/V1_MQTT_OK/GD32VW55X_Wifi_BLE_SDK/GD32VW55x_RELEASE_V1.0.2/MSDK/wpa_supplicant/src/ap\ieee802_11_shared.c **** 				   "Failed to allocate buffer for OCI element in SA Query Request");
  93:C:/Users/stapi/OneDrive/Desktop/GD32VW553/V1_MQTT_OK/GD32VW55X_Wifi_BLE_SDK/GD32VW55x_RELEASE_V1.0.2/MSDK/wpa_supplicant/src/ap\ieee802_11_shared.c **** 			return;
  94:C:/Users/stapi/OneDrive/Desktop/GD32VW553/V1_MQTT_OK/GD32VW55X_Wifi_BLE_SDK/GD32VW55x_RELEASE_V1.0.2/MSDK/wpa_supplicant/src/ap\ieee802_11_shared.c **** 		}
  95:C:/Users/stapi/OneDrive/Desktop/GD32VW553/V1_MQTT_OK/GD32VW55X_Wifi_BLE_SDK/GD32VW55x_RELEASE_V1.0.2/MSDK/wpa_supplicant/src/ap\ieee802_11_shared.c **** 
  96:C:/Users/stapi/OneDrive/Desktop/GD32VW553/V1_MQTT_OK/GD32VW55X_Wifi_BLE_SDK/GD32VW55x_RELEASE_V1.0.2/MSDK/wpa_supplicant/src/ap\ieee802_11_shared.c **** 		if (ocv_insert_extended_oci(&ci, oci_ie) < 0) {
  97:C:/Users/stapi/OneDrive/Desktop/GD32VW553/V1_MQTT_OK/GD32VW55X_Wifi_BLE_SDK/GD32VW55x_RELEASE_V1.0.2/MSDK/wpa_supplicant/src/ap\ieee802_11_shared.c **** 			os_free(oci_ie);
  98:C:/Users/stapi/OneDrive/Desktop/GD32VW553/V1_MQTT_OK/GD32VW55X_Wifi_BLE_SDK/GD32VW55x_RELEASE_V1.0.2/MSDK/wpa_supplicant/src/ap\ieee802_11_shared.c **** 			return;
  99:C:/Users/stapi/OneDrive/Desktop/GD32VW553/V1_MQTT_OK/GD32VW55X_Wifi_BLE_SDK/GD32VW55x_RELEASE_V1.0.2/MSDK/wpa_supplicant/src/ap\ieee802_11_shared.c **** 		}
 100:C:/Users/stapi/OneDrive/Desktop/GD32VW553/V1_MQTT_OK/GD32VW55X_Wifi_BLE_SDK/GD32VW55x_RELEASE_V1.0.2/MSDK/wpa_supplicant/src/ap\ieee802_11_shared.c **** 	}
 101:C:/Users/stapi/OneDrive/Desktop/GD32VW553/V1_MQTT_OK/GD32VW55X_Wifi_BLE_SDK/GD32VW55x_RELEASE_V1.0.2/MSDK/wpa_supplicant/src/ap\ieee802_11_shared.c **** #endif /* CONFIG_OCV */
 102:C:/Users/stapi/OneDrive/Desktop/GD32VW553/V1_MQTT_OK/GD32VW55X_Wifi_BLE_SDK/GD32VW55x_RELEASE_V1.0.2/MSDK/wpa_supplicant/src/ap\ieee802_11_shared.c **** 
 103:C:/Users/stapi/OneDrive/Desktop/GD32VW553/V1_MQTT_OK/GD32VW55X_Wifi_BLE_SDK/GD32VW55x_RELEASE_V1.0.2/MSDK/wpa_supplicant/src/ap\ieee802_11_shared.c **** 	mgmt = os_zalloc(sizeof(*mgmt) + oci_ie_len);
 238              		.loc 1 103 2
 239              		.loc 1 103 9 is_stmt 0
 240 0050 13058002 		li	a0,40
 241 0054 97000000 		call	os_zalloc
 241      E7800000 
 242              	.LVL25:
 104:C:/Users/stapi/OneDrive/Desktop/GD32VW553/V1_MQTT_OK/GD32VW55X_Wifi_BLE_SDK/GD32VW55x_RELEASE_V1.0.2/MSDK/wpa_supplicant/src/ap\ieee802_11_shared.c **** 	if (!mgmt) {
 243              		.loc 1 104 2 is_stmt 1
 244              		.loc 1 104 5 is_stmt 0
 245 005c 05E5     		bne	a0,zero,.L8
 105:C:/Users/stapi/OneDrive/Desktop/GD32VW553/V1_MQTT_OK/GD32VW55X_Wifi_BLE_SDK/GD32VW55x_RELEASE_V1.0.2/MSDK/wpa_supplicant/src/ap\ieee802_11_shared.c **** 		wpa_printf(MSG_DEBUG,
 246              		.loc 1 105 3 is_stmt 1
 247 005e B7050000 		lui	a1,%hi(.LC2)
 248 0062 93850500 		addi	a1,a1,%lo(.LC2)
 249 0066 0945     		li	a0,2
 250              	.LVL26:
 251 0068 97000000 		call	wpa_printf
 251      E7800000 
 252              	.LVL27:
 106:C:/Users/stapi/OneDrive/Desktop/GD32VW553/V1_MQTT_OK/GD32VW55X_Wifi_BLE_SDK/GD32VW55x_RELEASE_V1.0.2/MSDK/wpa_supplicant/src/ap\ieee802_11_shared.c **** 			   "Failed to allocate buffer for SA Query Response frame");
 107:C:/Users/stapi/OneDrive/Desktop/GD32VW553/V1_MQTT_OK/GD32VW55X_Wifi_BLE_SDK/GD32VW55x_RELEASE_V1.0.2/MSDK/wpa_supplicant/src/ap\ieee802_11_shared.c **** 		os_free(oci_ie);
 253              		.loc 1 107 3
 254              	.L12:
 108:C:/Users/stapi/OneDrive/Desktop/GD32VW553/V1_MQTT_OK/GD32VW55X_Wifi_BLE_SDK/GD32VW55x_RELEASE_V1.0.2/MSDK/wpa_supplicant/src/ap\ieee802_11_shared.c **** 		return;
 109:C:/Users/stapi/OneDrive/Desktop/GD32VW553/V1_MQTT_OK/GD32VW55X_Wifi_BLE_SDK/GD32VW55x_RELEASE_V1.0.2/MSDK/wpa_supplicant/src/ap\ieee802_11_shared.c **** 	}
 110:C:/Users/stapi/OneDrive/Desktop/GD32VW553/V1_MQTT_OK/GD32VW55X_Wifi_BLE_SDK/GD32VW55x_RELEASE_V1.0.2/MSDK/wpa_supplicant/src/ap\ieee802_11_shared.c **** 
 111:C:/Users/stapi/OneDrive/Desktop/GD32VW553/V1_MQTT_OK/GD32VW55X_Wifi_BLE_SDK/GD32VW55x_RELEASE_V1.0.2/MSDK/wpa_supplicant/src/ap\ieee802_11_shared.c **** 	mgmt->frame_control = IEEE80211_FC(WLAN_FC_TYPE_MGMT,
 112:C:/Users/stapi/OneDrive/Desktop/GD32VW553/V1_MQTT_OK/GD32VW55X_Wifi_BLE_SDK/GD32VW55x_RELEASE_V1.0.2/MSDK/wpa_supplicant/src/ap\ieee802_11_shared.c **** 					   WLAN_FC_STYPE_ACTION);
 113:C:/Users/stapi/OneDrive/Desktop/GD32VW553/V1_MQTT_OK/GD32VW55X_Wifi_BLE_SDK/GD32VW55x_RELEASE_V1.0.2/MSDK/wpa_supplicant/src/ap\ieee802_11_shared.c **** 	os_memcpy(mgmt->da, addr, ETH_ALEN);
 114:C:/Users/stapi/OneDrive/Desktop/GD32VW553/V1_MQTT_OK/GD32VW55X_Wifi_BLE_SDK/GD32VW55x_RELEASE_V1.0.2/MSDK/wpa_supplicant/src/ap\ieee802_11_shared.c **** 	os_memcpy(mgmt->sa, hapd->own_addr, ETH_ALEN);
 115:C:/Users/stapi/OneDrive/Desktop/GD32VW553/V1_MQTT_OK/GD32VW55X_Wifi_BLE_SDK/GD32VW55x_RELEASE_V1.0.2/MSDK/wpa_supplicant/src/ap\ieee802_11_shared.c **** 	os_memcpy(mgmt->bssid, hapd->own_addr, ETH_ALEN);
 116:C:/Users/stapi/OneDrive/Desktop/GD32VW553/V1_MQTT_OK/GD32VW55X_Wifi_BLE_SDK/GD32VW55x_RELEASE_V1.0.2/MSDK/wpa_supplicant/src/ap\ieee802_11_shared.c **** 	mgmt->u.action.category = WLAN_ACTION_SA_QUERY;
 117:C:/Users/stapi/OneDrive/Desktop/GD32VW553/V1_MQTT_OK/GD32VW55X_Wifi_BLE_SDK/GD32VW55x_RELEASE_V1.0.2/MSDK/wpa_supplicant/src/ap\ieee802_11_shared.c **** 	mgmt->u.action.u.sa_query_req.action = WLAN_SA_QUERY_REQUEST;
 118:C:/Users/stapi/OneDrive/Desktop/GD32VW553/V1_MQTT_OK/GD32VW55X_Wifi_BLE_SDK/GD32VW55x_RELEASE_V1.0.2/MSDK/wpa_supplicant/src/ap\ieee802_11_shared.c **** 	os_memcpy(mgmt->u.action.u.sa_query_req.trans_id, trans_id,
 119:C:/Users/stapi/OneDrive/Desktop/GD32VW553/V1_MQTT_OK/GD32VW55X_Wifi_BLE_SDK/GD32VW55x_RELEASE_V1.0.2/MSDK/wpa_supplicant/src/ap\ieee802_11_shared.c **** 		  WLAN_SA_QUERY_TR_ID_LEN);
 120:C:/Users/stapi/OneDrive/Desktop/GD32VW553/V1_MQTT_OK/GD32VW55X_Wifi_BLE_SDK/GD32VW55x_RELEASE_V1.0.2/MSDK/wpa_supplicant/src/ap\ieee802_11_shared.c **** 	end = mgmt->u.action.u.sa_query_req.variable;
 121:C:/Users/stapi/OneDrive/Desktop/GD32VW553/V1_MQTT_OK/GD32VW55X_Wifi_BLE_SDK/GD32VW55x_RELEASE_V1.0.2/MSDK/wpa_supplicant/src/ap\ieee802_11_shared.c **** #ifdef CONFIG_OCV
 122:C:/Users/stapi/OneDrive/Desktop/GD32VW553/V1_MQTT_OK/GD32VW55X_Wifi_BLE_SDK/GD32VW55x_RELEASE_V1.0.2/MSDK/wpa_supplicant/src/ap\ieee802_11_shared.c **** 	if (oci_ie_len > 0) {
 123:C:/Users/stapi/OneDrive/Desktop/GD32VW553/V1_MQTT_OK/GD32VW55X_Wifi_BLE_SDK/GD32VW55x_RELEASE_V1.0.2/MSDK/wpa_supplicant/src/ap\ieee802_11_shared.c **** 		os_memcpy(end, oci_ie, oci_ie_len);
 124:C:/Users/stapi/OneDrive/Desktop/GD32VW553/V1_MQTT_OK/GD32VW55X_Wifi_BLE_SDK/GD32VW55x_RELEASE_V1.0.2/MSDK/wpa_supplicant/src/ap\ieee802_11_shared.c **** 		end += oci_ie_len;
 125:C:/Users/stapi/OneDrive/Desktop/GD32VW553/V1_MQTT_OK/GD32VW55X_Wifi_BLE_SDK/GD32VW55x_RELEASE_V1.0.2/MSDK/wpa_supplicant/src/ap\ieee802_11_shared.c **** 	}
 126:C:/Users/stapi/OneDrive/Desktop/GD32VW553/V1_MQTT_OK/GD32VW55X_Wifi_BLE_SDK/GD32VW55x_RELEASE_V1.0.2/MSDK/wpa_supplicant/src/ap\ieee802_11_shared.c **** #endif /* CONFIG_OCV */
 127:C:/Users/stapi/OneDrive/Desktop/GD32VW553/V1_MQTT_OK/GD32VW55X_Wifi_BLE_SDK/GD32VW55x_RELEASE_V1.0.2/MSDK/wpa_supplicant/src/ap\ieee802_11_shared.c **** 	if (hostapd_drv_send_mlme(hapd, mgmt, end - (u8 *) mgmt, 0, NULL, 0, 0)
 128:C:/Users/stapi/OneDrive/Desktop/GD32VW553/V1_MQTT_OK/GD32VW55X_Wifi_BLE_SDK/GD32VW55x_RELEASE_V1.0.2/MSDK/wpa_supplicant/src/ap\ieee802_11_shared.c **** 	    < 0)
 129:C:/Users/stapi/OneDrive/Desktop/GD32VW553/V1_MQTT_OK/GD32VW55X_Wifi_BLE_SDK/GD32VW55x_RELEASE_V1.0.2/MSDK/wpa_supplicant/src/ap\ieee802_11_shared.c **** 		wpa_printf(MSG_INFO, "ieee802_11_send_sa_query_req: send failed");
 130:C:/Users/stapi/OneDrive/Desktop/GD32VW553/V1_MQTT_OK/GD32VW55X_Wifi_BLE_SDK/GD32VW55x_RELEASE_V1.0.2/MSDK/wpa_supplicant/src/ap\ieee802_11_shared.c **** 
 131:C:/Users/stapi/OneDrive/Desktop/GD32VW553/V1_MQTT_OK/GD32VW55X_Wifi_BLE_SDK/GD32VW55x_RELEASE_V1.0.2/MSDK/wpa_supplicant/src/ap\ieee802_11_shared.c **** 	os_free(mgmt);
 132:C:/Users/stapi/OneDrive/Desktop/GD32VW553/V1_MQTT_OK/GD32VW55X_Wifi_BLE_SDK/GD32VW55x_RELEASE_V1.0.2/MSDK/wpa_supplicant/src/ap\ieee802_11_shared.c **** 	os_free(oci_ie);
 255              		.loc 1 132 2
 256 0070 0145     		li	a0,0
 257 0072 97000000 		call	os_free
 257      E7800000 
 258              	.LVL28:
 133:C:/Users/stapi/OneDrive/Desktop/GD32VW553/V1_MQTT_OK/GD32VW55X_Wifi_BLE_SDK/GD32VW55x_RELEASE_V1.0.2/MSDK/wpa_supplicant/src/ap\ieee802_11_shared.c **** }
 259              		.loc 1 133 1 is_stmt 0
 260 007a 4101     		addi	sp,sp,16
 261              		.cfi_remember_state
 262              		.cfi_def_cfa_offset 0
 263 007c 17030000 		tail	__riscv_restore_4
 263      67000300 
 264              		.cfi_restore 19
 265              		.cfi_restore 18
 266              		.cfi_restore 9
 267              		.cfi_restore 8
 268              		.cfi_restore 1
 269              		.cfi_def_cfa_offset -32
 270              	.LVL29:
 271              	.L8:
 272              		.cfi_restore_state
 111:C:/Users/stapi/OneDrive/Desktop/GD32VW553/V1_MQTT_OK/GD32VW55X_Wifi_BLE_SDK/GD32VW55x_RELEASE_V1.0.2/MSDK/wpa_supplicant/src/ap\ieee802_11_shared.c **** 					   WLAN_FC_STYPE_ACTION);
 273              		.loc 1 111 22
 274 0084 930700FD 		li	a5,-48
 275 0088 2A84     		mv	s0,a0
 111:C:/Users/stapi/OneDrive/Desktop/GD32VW553/V1_MQTT_OK/GD32VW55X_Wifi_BLE_SDK/GD32VW55x_RELEASE_V1.0.2/MSDK/wpa_supplicant/src/ap\ieee802_11_shared.c **** 					   WLAN_FC_STYPE_ACTION);
 276              		.loc 1 111 2 is_stmt 1
 111:C:/Users/stapi/OneDrive/Desktop/GD32VW553/V1_MQTT_OK/GD32VW55X_Wifi_BLE_SDK/GD32VW55x_RELEASE_V1.0.2/MSDK/wpa_supplicant/src/ap\ieee802_11_shared.c **** 					   WLAN_FC_STYPE_ACTION);
 277              		.loc 1 111 22 is_stmt 0
 278 008a 2300F500 		sb	a5,0(a0)
 279 008e A3000500 		sb	zero,1(a0)
 113:C:/Users/stapi/OneDrive/Desktop/GD32VW553/V1_MQTT_OK/GD32VW55X_Wifi_BLE_SDK/GD32VW55x_RELEASE_V1.0.2/MSDK/wpa_supplicant/src/ap\ieee802_11_shared.c **** 	os_memcpy(mgmt->sa, hapd->own_addr, ETH_ALEN);
 280              		.loc 1 113 2 is_stmt 1
 281 0092 1946     		li	a2,6
 282 0094 A685     		mv	a1,s1
 283 0096 1105     		addi	a0,a0,4
 284              	.LVL30:
 285 0098 97000000 		call	os_memcpy
 285      E7800000 
 286              	.LVL31:
 114:C:/Users/stapi/OneDrive/Desktop/GD32VW553/V1_MQTT_OK/GD32VW55X_Wifi_BLE_SDK/GD32VW55x_RELEASE_V1.0.2/MSDK/wpa_supplicant/src/ap\ieee802_11_shared.c **** 	os_memcpy(mgmt->bssid, hapd->own_addr, ETH_ALEN);
 287              		.loc 1 114 2
 114:C:/Users/stapi/OneDrive/Desktop/GD32VW553/V1_MQTT_OK/GD32VW55X_Wifi_BLE_SDK/GD32VW55x_RELEASE_V1.0.2/MSDK/wpa_supplicant/src/ap\ieee802_11_shared.c **** 	os_memcpy(mgmt->bssid, hapd->own_addr, ETH_ALEN);
 288              		.loc 1 114 26 is_stmt 0
 289 00a0 93051901 		addi	a1,s2,17
 114:C:/Users/stapi/OneDrive/Desktop/GD32VW553/V1_MQTT_OK/GD32VW55X_Wifi_BLE_SDK/GD32VW55x_RELEASE_V1.0.2/MSDK/wpa_supplicant/src/ap\ieee802_11_shared.c **** 	os_memcpy(mgmt->bssid, hapd->own_addr, ETH_ALEN);
 290              		.loc 1 114 2
 291 00a4 1946     		li	a2,6
 292 00a6 1305A400 		addi	a0,s0,10
 293 00aa 2EC6     		sw	a1,12(sp)
 294 00ac 97000000 		call	os_memcpy
 294      E7800000 
 295              	.LVL32:
 115:C:/Users/stapi/OneDrive/Desktop/GD32VW553/V1_MQTT_OK/GD32VW55X_Wifi_BLE_SDK/GD32VW55x_RELEASE_V1.0.2/MSDK/wpa_supplicant/src/ap\ieee802_11_shared.c **** 	mgmt->u.action.category = WLAN_ACTION_SA_QUERY;
 296              		.loc 1 115 2 is_stmt 1
 297 00b4 B245     		lw	a1,12(sp)
 298 00b6 1946     		li	a2,6
 299 00b8 13050401 		addi	a0,s0,16
 300 00bc 97000000 		call	os_memcpy
 300      E7800000 
 301              	.LVL33:
 116:C:/Users/stapi/OneDrive/Desktop/GD32VW553/V1_MQTT_OK/GD32VW55X_Wifi_BLE_SDK/GD32VW55x_RELEASE_V1.0.2/MSDK/wpa_supplicant/src/ap\ieee802_11_shared.c **** 	mgmt->u.action.u.sa_query_req.action = WLAN_SA_QUERY_REQUEST;
 302              		.loc 1 116 2
 116:C:/Users/stapi/OneDrive/Desktop/GD32VW553/V1_MQTT_OK/GD32VW55X_Wifi_BLE_SDK/GD32VW55x_RELEASE_V1.0.2/MSDK/wpa_supplicant/src/ap\ieee802_11_shared.c **** 	mgmt->u.action.u.sa_query_req.action = WLAN_SA_QUERY_REQUEST;
 303              		.loc 1 116 26 is_stmt 0
 304 00c4 A147     		li	a5,8
 305 00c6 230CF400 		sb	a5,24(s0)
 117:C:/Users/stapi/OneDrive/Desktop/GD32VW553/V1_MQTT_OK/GD32VW55X_Wifi_BLE_SDK/GD32VW55x_RELEASE_V1.0.2/MSDK/wpa_supplicant/src/ap\ieee802_11_shared.c **** 	os_memcpy(mgmt->u.action.u.sa_query_req.trans_id, trans_id,
 306              		.loc 1 117 2 is_stmt 1
 118:C:/Users/stapi/OneDrive/Desktop/GD32VW553/V1_MQTT_OK/GD32VW55X_Wifi_BLE_SDK/GD32VW55x_RELEASE_V1.0.2/MSDK/wpa_supplicant/src/ap\ieee802_11_shared.c **** 		  WLAN_SA_QUERY_TR_ID_LEN);
 307              		.loc 1 118 2 is_stmt 0
 308 00ca 0946     		li	a2,2
 309 00cc CE85     		mv	a1,s3
 117:C:/Users/stapi/OneDrive/Desktop/GD32VW553/V1_MQTT_OK/GD32VW55X_Wifi_BLE_SDK/GD32VW55x_RELEASE_V1.0.2/MSDK/wpa_supplicant/src/ap\ieee802_11_shared.c **** 	os_memcpy(mgmt->u.action.u.sa_query_req.trans_id, trans_id,
 310              		.loc 1 117 39
 311 00ce A30C0400 		sb	zero,25(s0)
 118:C:/Users/stapi/OneDrive/Desktop/GD32VW553/V1_MQTT_OK/GD32VW55X_Wifi_BLE_SDK/GD32VW55x_RELEASE_V1.0.2/MSDK/wpa_supplicant/src/ap\ieee802_11_shared.c **** 		  WLAN_SA_QUERY_TR_ID_LEN);
 312              		.loc 1 118 2 is_stmt 1
 313 00d2 1305A401 		addi	a0,s0,26
 314 00d6 97000000 		call	os_memcpy
 314      E7800000 
 315              	.LVL34:
 120:C:/Users/stapi/OneDrive/Desktop/GD32VW553/V1_MQTT_OK/GD32VW55X_Wifi_BLE_SDK/GD32VW55x_RELEASE_V1.0.2/MSDK/wpa_supplicant/src/ap\ieee802_11_shared.c **** #ifdef CONFIG_OCV
 316              		.loc 1 120 2
 127:C:/Users/stapi/OneDrive/Desktop/GD32VW553/V1_MQTT_OK/GD32VW55X_Wifi_BLE_SDK/GD32VW55x_RELEASE_V1.0.2/MSDK/wpa_supplicant/src/ap\ieee802_11_shared.c **** 	    < 0)
 317              		.loc 1 127 2
 127:C:/Users/stapi/OneDrive/Desktop/GD32VW553/V1_MQTT_OK/GD32VW55X_Wifi_BLE_SDK/GD32VW55x_RELEASE_V1.0.2/MSDK/wpa_supplicant/src/ap\ieee802_11_shared.c **** 	    < 0)
 318              		.loc 1 127 6 is_stmt 0
 319 00de 0148     		li	a6,0
 320 00e0 8147     		li	a5,0
 321 00e2 0147     		li	a4,0
 322 00e4 8146     		li	a3,0
 323 00e6 7146     		li	a2,28
 324 00e8 A285     		mv	a1,s0
 325 00ea 4A85     		mv	a0,s2
 326 00ec 97000000 		call	hostapd_drv_send_mlme
 326      E7800000 
 327              	.LVL35:
 127:C:/Users/stapi/OneDrive/Desktop/GD32VW553/V1_MQTT_OK/GD32VW55X_Wifi_BLE_SDK/GD32VW55x_RELEASE_V1.0.2/MSDK/wpa_supplicant/src/ap\ieee802_11_shared.c **** 	    < 0)
 328              		.loc 1 127 5
 329 00f4 635B0500 		bge	a0,zero,.L10
 129:C:/Users/stapi/OneDrive/Desktop/GD32VW553/V1_MQTT_OK/GD32VW55X_Wifi_BLE_SDK/GD32VW55x_RELEASE_V1.0.2/MSDK/wpa_supplicant/src/ap\ieee802_11_shared.c **** 
 330              		.loc 1 129 3 is_stmt 1
 331 00f8 B7050000 		lui	a1,%hi(.LC3)
 332 00fc 93850500 		addi	a1,a1,%lo(.LC3)
 333 0100 0D45     		li	a0,3
 334 0102 97000000 		call	wpa_printf
 334      E7800000 
 335              	.LVL36:
 336              	.L10:
 131:C:/Users/stapi/OneDrive/Desktop/GD32VW553/V1_MQTT_OK/GD32VW55X_Wifi_BLE_SDK/GD32VW55x_RELEASE_V1.0.2/MSDK/wpa_supplicant/src/ap\ieee802_11_shared.c **** 	os_free(oci_ie);
 337              		.loc 1 131 2
 338 010a 2285     		mv	a0,s0
 339 010c 97000000 		call	os_free
 339      E7800000 
 340              	.LVL37:
 341 0114 B1BF     		j	.L12
 342              		.cfi_endproc
 343              	.LFE168:
 345              		.section	.rodata.ieee802_11_sa_query_action.str1.4,"aMS",@progbits,1
 346              		.align	2
 347              	.LC4:
 348 0000 49454545 		.string	"IEEE 802.11: Too short SA Query Action frame (len=%lu)"
 348      20383032 
 348      2E31313A 
 348      20546F6F 
 348      2073686F 
 349 0037 00       		.align	2
 350              	.LC5:
 351 0038 49454545 		.string	"IEEE 802.11: Ignore group-addressed SA Query frame (A1=%02x:%02x:%02x:%02x:%02x:%02x A2=%
 351      20383032 
 351      2E31313A 
 351      2049676E 
 351      6F726520 
 352 00af 00       		.align	2
 353              	.LC6:
 354 00b0 49454545 		.string	"IEEE 802.11: Received SA Query Request from %02x:%02x:%02x:%02x:%02x:%02x"
 354      20383032 
 354      2E31313A 
 354      20526563 
 354      65697665 
 355 00fa 0000     		.align	2
 356              	.LC7:
 357 00fc 49454545 		.string	"IEEE 802.11: Ignore SA Query Request from unassociated STA %02x:%02x:%02x:%02x:%02x:%02x"
 357      20383032 
 357      2E31313A 
 357      2049676E 
 357      6F726520 
 358 0155 000000   		.align	2
 359              	.LC8:
 360 0158 49454545 		.string	"IEEE 802.11: Sending SA Query Response to %02x:%02x:%02x:%02x:%02x:%02x"
 360      20383032 
 360      2E31313A 
 360      2053656E 
 360      64696E67 
 361              		.align	2
 362              	.LC9:
 363 01a0 69656565 		.string	"ieee80211_mgmt_sa_query_request: send failed"
 363      38303231 
 363      315F6D67 
 363      6D745F73 
 363      615F7175 
 364 01cd 000000   		.align	2
 365              	.LC10:
 366 01d0 49454545 		.string	"IEEE 802.11: Unexpected SA Query Action %d"
 366      20383032 
 366      2E31313A 
 366      20556E65 
 366      78706563 
 367 01fb 00       		.align	2
 368              	.LC11:
 369 01fc 49454545 		.string	"IEEE 802.11: Received SA Query Response from %02x:%02x:%02x:%02x:%02x:%02x"
 369      20383032 
 369      2E31313A 
 369      20526563 
 369      65697665 
 370 0247 00       		.align	2
 371              	.LC12:
 372 0248 49454545 		.string	"IEEE 802.11: No matching STA with pending SA Query request found"
 372      20383032 
 372      2E31313A 
 372      204E6F20 
 372      6D617463 
 373 0289 000000   		.align	2
 374              	.LC13:
 375 028c 49454545 		.string	"IEEE 802.11: No matching SA Query transaction identifier found"
 375      20383032 
 375      2E31313A 
 375      204E6F20 
 375      6D617463 
 376              		.section	.text.ieee802_11_sa_query_action,"ax",@progbits
 377              		.align	1
 378              		.globl	ieee802_11_sa_query_action
 380              	ieee802_11_sa_query_action:
 381              	.LFB170:
 134:C:/Users/stapi/OneDrive/Desktop/GD32VW553/V1_MQTT_OK/GD32VW55X_Wifi_BLE_SDK/GD32VW55x_RELEASE_V1.0.2/MSDK/wpa_supplicant/src/ap\ieee802_11_shared.c **** 
 135:C:/Users/stapi/OneDrive/Desktop/GD32VW553/V1_MQTT_OK/GD32VW55X_Wifi_BLE_SDK/GD32VW55x_RELEASE_V1.0.2/MSDK/wpa_supplicant/src/ap\ieee802_11_shared.c **** 
 136:C:/Users/stapi/OneDrive/Desktop/GD32VW553/V1_MQTT_OK/GD32VW55X_Wifi_BLE_SDK/GD32VW55x_RELEASE_V1.0.2/MSDK/wpa_supplicant/src/ap\ieee802_11_shared.c **** static void ieee802_11_send_sa_query_resp(struct hostapd_data *hapd,
 137:C:/Users/stapi/OneDrive/Desktop/GD32VW553/V1_MQTT_OK/GD32VW55X_Wifi_BLE_SDK/GD32VW55x_RELEASE_V1.0.2/MSDK/wpa_supplicant/src/ap\ieee802_11_shared.c **** 					  const u8 *sa, const u8 *trans_id)
 138:C:/Users/stapi/OneDrive/Desktop/GD32VW553/V1_MQTT_OK/GD32VW55X_Wifi_BLE_SDK/GD32VW55x_RELEASE_V1.0.2/MSDK/wpa_supplicant/src/ap\ieee802_11_shared.c **** {
 139:C:/Users/stapi/OneDrive/Desktop/GD32VW553/V1_MQTT_OK/GD32VW55X_Wifi_BLE_SDK/GD32VW55x_RELEASE_V1.0.2/MSDK/wpa_supplicant/src/ap\ieee802_11_shared.c **** 	struct sta_info *sta;
 140:C:/Users/stapi/OneDrive/Desktop/GD32VW553/V1_MQTT_OK/GD32VW55X_Wifi_BLE_SDK/GD32VW55x_RELEASE_V1.0.2/MSDK/wpa_supplicant/src/ap\ieee802_11_shared.c **** 	struct ieee80211_mgmt *resp;
 141:C:/Users/stapi/OneDrive/Desktop/GD32VW553/V1_MQTT_OK/GD32VW55X_Wifi_BLE_SDK/GD32VW55x_RELEASE_V1.0.2/MSDK/wpa_supplicant/src/ap\ieee802_11_shared.c **** 	u8 *oci_ie = NULL;
 142:C:/Users/stapi/OneDrive/Desktop/GD32VW553/V1_MQTT_OK/GD32VW55X_Wifi_BLE_SDK/GD32VW55x_RELEASE_V1.0.2/MSDK/wpa_supplicant/src/ap\ieee802_11_shared.c **** 	u8 oci_ie_len = 0;
 143:C:/Users/stapi/OneDrive/Desktop/GD32VW553/V1_MQTT_OK/GD32VW55X_Wifi_BLE_SDK/GD32VW55x_RELEASE_V1.0.2/MSDK/wpa_supplicant/src/ap\ieee802_11_shared.c **** 	u8 *end;
 144:C:/Users/stapi/OneDrive/Desktop/GD32VW553/V1_MQTT_OK/GD32VW55X_Wifi_BLE_SDK/GD32VW55x_RELEASE_V1.0.2/MSDK/wpa_supplicant/src/ap\ieee802_11_shared.c **** 
 145:C:/Users/stapi/OneDrive/Desktop/GD32VW553/V1_MQTT_OK/GD32VW55X_Wifi_BLE_SDK/GD32VW55x_RELEASE_V1.0.2/MSDK/wpa_supplicant/src/ap\ieee802_11_shared.c **** 	wpa_printf(MSG_DEBUG, "IEEE 802.11: Received SA Query Request from "
 146:C:/Users/stapi/OneDrive/Desktop/GD32VW553/V1_MQTT_OK/GD32VW55X_Wifi_BLE_SDK/GD32VW55x_RELEASE_V1.0.2/MSDK/wpa_supplicant/src/ap\ieee802_11_shared.c **** 		   MACSTR, MAC2STR(sa));
 147:C:/Users/stapi/OneDrive/Desktop/GD32VW553/V1_MQTT_OK/GD32VW55X_Wifi_BLE_SDK/GD32VW55x_RELEASE_V1.0.2/MSDK/wpa_supplicant/src/ap\ieee802_11_shared.c **** 	wpa_hexdump(MSG_DEBUG, "IEEE 802.11: SA Query Transaction ID",
 148:C:/Users/stapi/OneDrive/Desktop/GD32VW553/V1_MQTT_OK/GD32VW55X_Wifi_BLE_SDK/GD32VW55x_RELEASE_V1.0.2/MSDK/wpa_supplicant/src/ap\ieee802_11_shared.c **** 		    trans_id, WLAN_SA_QUERY_TR_ID_LEN);
 149:C:/Users/stapi/OneDrive/Desktop/GD32VW553/V1_MQTT_OK/GD32VW55X_Wifi_BLE_SDK/GD32VW55x_RELEASE_V1.0.2/MSDK/wpa_supplicant/src/ap\ieee802_11_shared.c **** 
 150:C:/Users/stapi/OneDrive/Desktop/GD32VW553/V1_MQTT_OK/GD32VW55X_Wifi_BLE_SDK/GD32VW55x_RELEASE_V1.0.2/MSDK/wpa_supplicant/src/ap\ieee802_11_shared.c **** 	sta = ap_get_sta(hapd, sa);
 151:C:/Users/stapi/OneDrive/Desktop/GD32VW553/V1_MQTT_OK/GD32VW55X_Wifi_BLE_SDK/GD32VW55x_RELEASE_V1.0.2/MSDK/wpa_supplicant/src/ap\ieee802_11_shared.c **** 	if (sta == NULL || !(sta->flags & WLAN_STA_ASSOC)) {
 152:C:/Users/stapi/OneDrive/Desktop/GD32VW553/V1_MQTT_OK/GD32VW55X_Wifi_BLE_SDK/GD32VW55x_RELEASE_V1.0.2/MSDK/wpa_supplicant/src/ap\ieee802_11_shared.c **** 		wpa_printf(MSG_DEBUG, "IEEE 802.11: Ignore SA Query Request "
 153:C:/Users/stapi/OneDrive/Desktop/GD32VW553/V1_MQTT_OK/GD32VW55X_Wifi_BLE_SDK/GD32VW55x_RELEASE_V1.0.2/MSDK/wpa_supplicant/src/ap\ieee802_11_shared.c **** 			   "from unassociated STA " MACSTR, MAC2STR(sa));
 154:C:/Users/stapi/OneDrive/Desktop/GD32VW553/V1_MQTT_OK/GD32VW55X_Wifi_BLE_SDK/GD32VW55x_RELEASE_V1.0.2/MSDK/wpa_supplicant/src/ap\ieee802_11_shared.c **** 		return;
 155:C:/Users/stapi/OneDrive/Desktop/GD32VW553/V1_MQTT_OK/GD32VW55X_Wifi_BLE_SDK/GD32VW55x_RELEASE_V1.0.2/MSDK/wpa_supplicant/src/ap\ieee802_11_shared.c **** 	}
 156:C:/Users/stapi/OneDrive/Desktop/GD32VW553/V1_MQTT_OK/GD32VW55X_Wifi_BLE_SDK/GD32VW55x_RELEASE_V1.0.2/MSDK/wpa_supplicant/src/ap\ieee802_11_shared.c **** 
 157:C:/Users/stapi/OneDrive/Desktop/GD32VW553/V1_MQTT_OK/GD32VW55X_Wifi_BLE_SDK/GD32VW55x_RELEASE_V1.0.2/MSDK/wpa_supplicant/src/ap\ieee802_11_shared.c **** #ifdef CONFIG_OCV
 158:C:/Users/stapi/OneDrive/Desktop/GD32VW553/V1_MQTT_OK/GD32VW55X_Wifi_BLE_SDK/GD32VW55x_RELEASE_V1.0.2/MSDK/wpa_supplicant/src/ap\ieee802_11_shared.c **** 	if (wpa_auth_uses_ocv(sta->wpa_sm)) {
 159:C:/Users/stapi/OneDrive/Desktop/GD32VW553/V1_MQTT_OK/GD32VW55X_Wifi_BLE_SDK/GD32VW55x_RELEASE_V1.0.2/MSDK/wpa_supplicant/src/ap\ieee802_11_shared.c **** 		struct wpa_channel_info ci;
 160:C:/Users/stapi/OneDrive/Desktop/GD32VW553/V1_MQTT_OK/GD32VW55X_Wifi_BLE_SDK/GD32VW55x_RELEASE_V1.0.2/MSDK/wpa_supplicant/src/ap\ieee802_11_shared.c **** 
 161:C:/Users/stapi/OneDrive/Desktop/GD32VW553/V1_MQTT_OK/GD32VW55X_Wifi_BLE_SDK/GD32VW55x_RELEASE_V1.0.2/MSDK/wpa_supplicant/src/ap\ieee802_11_shared.c **** 		if (hostapd_drv_channel_info(hapd, &ci) != 0) {
 162:C:/Users/stapi/OneDrive/Desktop/GD32VW553/V1_MQTT_OK/GD32VW55X_Wifi_BLE_SDK/GD32VW55x_RELEASE_V1.0.2/MSDK/wpa_supplicant/src/ap\ieee802_11_shared.c **** 			wpa_printf(MSG_WARNING,
 163:C:/Users/stapi/OneDrive/Desktop/GD32VW553/V1_MQTT_OK/GD32VW55X_Wifi_BLE_SDK/GD32VW55x_RELEASE_V1.0.2/MSDK/wpa_supplicant/src/ap\ieee802_11_shared.c **** 				   "Failed to get channel info for OCI element in SA Query Response");
 164:C:/Users/stapi/OneDrive/Desktop/GD32VW553/V1_MQTT_OK/GD32VW55X_Wifi_BLE_SDK/GD32VW55x_RELEASE_V1.0.2/MSDK/wpa_supplicant/src/ap\ieee802_11_shared.c **** 			return;
 165:C:/Users/stapi/OneDrive/Desktop/GD32VW553/V1_MQTT_OK/GD32VW55X_Wifi_BLE_SDK/GD32VW55x_RELEASE_V1.0.2/MSDK/wpa_supplicant/src/ap\ieee802_11_shared.c **** 		}
 166:C:/Users/stapi/OneDrive/Desktop/GD32VW553/V1_MQTT_OK/GD32VW55X_Wifi_BLE_SDK/GD32VW55x_RELEASE_V1.0.2/MSDK/wpa_supplicant/src/ap\ieee802_11_shared.c **** #ifdef CONFIG_TESTING_OPTIONS
 167:C:/Users/stapi/OneDrive/Desktop/GD32VW553/V1_MQTT_OK/GD32VW55X_Wifi_BLE_SDK/GD32VW55x_RELEASE_V1.0.2/MSDK/wpa_supplicant/src/ap\ieee802_11_shared.c **** 		if (hapd->conf->oci_freq_override_saquery_resp) {
 168:C:/Users/stapi/OneDrive/Desktop/GD32VW553/V1_MQTT_OK/GD32VW55X_Wifi_BLE_SDK/GD32VW55x_RELEASE_V1.0.2/MSDK/wpa_supplicant/src/ap\ieee802_11_shared.c **** 			wpa_printf(MSG_INFO,
 169:C:/Users/stapi/OneDrive/Desktop/GD32VW553/V1_MQTT_OK/GD32VW55X_Wifi_BLE_SDK/GD32VW55x_RELEASE_V1.0.2/MSDK/wpa_supplicant/src/ap\ieee802_11_shared.c **** 				   "TEST: Override OCI frequency %d -> %u MHz",
 170:C:/Users/stapi/OneDrive/Desktop/GD32VW553/V1_MQTT_OK/GD32VW55X_Wifi_BLE_SDK/GD32VW55x_RELEASE_V1.0.2/MSDK/wpa_supplicant/src/ap\ieee802_11_shared.c **** 				   ci.frequency,
 171:C:/Users/stapi/OneDrive/Desktop/GD32VW553/V1_MQTT_OK/GD32VW55X_Wifi_BLE_SDK/GD32VW55x_RELEASE_V1.0.2/MSDK/wpa_supplicant/src/ap\ieee802_11_shared.c **** 				   hapd->conf->oci_freq_override_saquery_resp);
 172:C:/Users/stapi/OneDrive/Desktop/GD32VW553/V1_MQTT_OK/GD32VW55X_Wifi_BLE_SDK/GD32VW55x_RELEASE_V1.0.2/MSDK/wpa_supplicant/src/ap\ieee802_11_shared.c **** 			ci.frequency =
 173:C:/Users/stapi/OneDrive/Desktop/GD32VW553/V1_MQTT_OK/GD32VW55X_Wifi_BLE_SDK/GD32VW55x_RELEASE_V1.0.2/MSDK/wpa_supplicant/src/ap\ieee802_11_shared.c **** 				hapd->conf->oci_freq_override_saquery_resp;
 174:C:/Users/stapi/OneDrive/Desktop/GD32VW553/V1_MQTT_OK/GD32VW55X_Wifi_BLE_SDK/GD32VW55x_RELEASE_V1.0.2/MSDK/wpa_supplicant/src/ap\ieee802_11_shared.c **** 		}
 175:C:/Users/stapi/OneDrive/Desktop/GD32VW553/V1_MQTT_OK/GD32VW55X_Wifi_BLE_SDK/GD32VW55x_RELEASE_V1.0.2/MSDK/wpa_supplicant/src/ap\ieee802_11_shared.c **** #endif /* CONFIG_TESTING_OPTIONS */
 176:C:/Users/stapi/OneDrive/Desktop/GD32VW553/V1_MQTT_OK/GD32VW55X_Wifi_BLE_SDK/GD32VW55x_RELEASE_V1.0.2/MSDK/wpa_supplicant/src/ap\ieee802_11_shared.c **** 
 177:C:/Users/stapi/OneDrive/Desktop/GD32VW553/V1_MQTT_OK/GD32VW55X_Wifi_BLE_SDK/GD32VW55x_RELEASE_V1.0.2/MSDK/wpa_supplicant/src/ap\ieee802_11_shared.c **** 		oci_ie_len = OCV_OCI_EXTENDED_LEN;
 178:C:/Users/stapi/OneDrive/Desktop/GD32VW553/V1_MQTT_OK/GD32VW55X_Wifi_BLE_SDK/GD32VW55x_RELEASE_V1.0.2/MSDK/wpa_supplicant/src/ap\ieee802_11_shared.c **** 		oci_ie = os_zalloc(oci_ie_len);
 179:C:/Users/stapi/OneDrive/Desktop/GD32VW553/V1_MQTT_OK/GD32VW55X_Wifi_BLE_SDK/GD32VW55x_RELEASE_V1.0.2/MSDK/wpa_supplicant/src/ap\ieee802_11_shared.c **** 		if (!oci_ie) {
 180:C:/Users/stapi/OneDrive/Desktop/GD32VW553/V1_MQTT_OK/GD32VW55X_Wifi_BLE_SDK/GD32VW55x_RELEASE_V1.0.2/MSDK/wpa_supplicant/src/ap\ieee802_11_shared.c **** 			wpa_printf(MSG_WARNING,
 181:C:/Users/stapi/OneDrive/Desktop/GD32VW553/V1_MQTT_OK/GD32VW55X_Wifi_BLE_SDK/GD32VW55x_RELEASE_V1.0.2/MSDK/wpa_supplicant/src/ap\ieee802_11_shared.c **** 				   "Failed to allocate buffer for for OCI element in SA Query Response");
 182:C:/Users/stapi/OneDrive/Desktop/GD32VW553/V1_MQTT_OK/GD32VW55X_Wifi_BLE_SDK/GD32VW55x_RELEASE_V1.0.2/MSDK/wpa_supplicant/src/ap\ieee802_11_shared.c **** 			return;
 183:C:/Users/stapi/OneDrive/Desktop/GD32VW553/V1_MQTT_OK/GD32VW55X_Wifi_BLE_SDK/GD32VW55x_RELEASE_V1.0.2/MSDK/wpa_supplicant/src/ap\ieee802_11_shared.c **** 		}
 184:C:/Users/stapi/OneDrive/Desktop/GD32VW553/V1_MQTT_OK/GD32VW55X_Wifi_BLE_SDK/GD32VW55x_RELEASE_V1.0.2/MSDK/wpa_supplicant/src/ap\ieee802_11_shared.c **** 
 185:C:/Users/stapi/OneDrive/Desktop/GD32VW553/V1_MQTT_OK/GD32VW55X_Wifi_BLE_SDK/GD32VW55x_RELEASE_V1.0.2/MSDK/wpa_supplicant/src/ap\ieee802_11_shared.c **** 		if (ocv_insert_extended_oci(&ci, oci_ie) < 0) {
 186:C:/Users/stapi/OneDrive/Desktop/GD32VW553/V1_MQTT_OK/GD32VW55X_Wifi_BLE_SDK/GD32VW55x_RELEASE_V1.0.2/MSDK/wpa_supplicant/src/ap\ieee802_11_shared.c **** 			os_free(oci_ie);
 187:C:/Users/stapi/OneDrive/Desktop/GD32VW553/V1_MQTT_OK/GD32VW55X_Wifi_BLE_SDK/GD32VW55x_RELEASE_V1.0.2/MSDK/wpa_supplicant/src/ap\ieee802_11_shared.c **** 			return;
 188:C:/Users/stapi/OneDrive/Desktop/GD32VW553/V1_MQTT_OK/GD32VW55X_Wifi_BLE_SDK/GD32VW55x_RELEASE_V1.0.2/MSDK/wpa_supplicant/src/ap\ieee802_11_shared.c **** 		}
 189:C:/Users/stapi/OneDrive/Desktop/GD32VW553/V1_MQTT_OK/GD32VW55X_Wifi_BLE_SDK/GD32VW55x_RELEASE_V1.0.2/MSDK/wpa_supplicant/src/ap\ieee802_11_shared.c **** 	}
 190:C:/Users/stapi/OneDrive/Desktop/GD32VW553/V1_MQTT_OK/GD32VW55X_Wifi_BLE_SDK/GD32VW55x_RELEASE_V1.0.2/MSDK/wpa_supplicant/src/ap\ieee802_11_shared.c **** #endif /* CONFIG_OCV */
 191:C:/Users/stapi/OneDrive/Desktop/GD32VW553/V1_MQTT_OK/GD32VW55X_Wifi_BLE_SDK/GD32VW55x_RELEASE_V1.0.2/MSDK/wpa_supplicant/src/ap\ieee802_11_shared.c **** 
 192:C:/Users/stapi/OneDrive/Desktop/GD32VW553/V1_MQTT_OK/GD32VW55X_Wifi_BLE_SDK/GD32VW55x_RELEASE_V1.0.2/MSDK/wpa_supplicant/src/ap\ieee802_11_shared.c **** 	resp = os_zalloc(sizeof(*resp) + oci_ie_len);
 193:C:/Users/stapi/OneDrive/Desktop/GD32VW553/V1_MQTT_OK/GD32VW55X_Wifi_BLE_SDK/GD32VW55x_RELEASE_V1.0.2/MSDK/wpa_supplicant/src/ap\ieee802_11_shared.c **** 	if (!resp) {
 194:C:/Users/stapi/OneDrive/Desktop/GD32VW553/V1_MQTT_OK/GD32VW55X_Wifi_BLE_SDK/GD32VW55x_RELEASE_V1.0.2/MSDK/wpa_supplicant/src/ap\ieee802_11_shared.c **** 		wpa_printf(MSG_DEBUG,
 195:C:/Users/stapi/OneDrive/Desktop/GD32VW553/V1_MQTT_OK/GD32VW55X_Wifi_BLE_SDK/GD32VW55x_RELEASE_V1.0.2/MSDK/wpa_supplicant/src/ap\ieee802_11_shared.c **** 			   "Failed to allocate buffer for SA Query Response frame");
 196:C:/Users/stapi/OneDrive/Desktop/GD32VW553/V1_MQTT_OK/GD32VW55X_Wifi_BLE_SDK/GD32VW55x_RELEASE_V1.0.2/MSDK/wpa_supplicant/src/ap\ieee802_11_shared.c **** 		os_free(oci_ie);
 197:C:/Users/stapi/OneDrive/Desktop/GD32VW553/V1_MQTT_OK/GD32VW55X_Wifi_BLE_SDK/GD32VW55x_RELEASE_V1.0.2/MSDK/wpa_supplicant/src/ap\ieee802_11_shared.c **** 		return;
 198:C:/Users/stapi/OneDrive/Desktop/GD32VW553/V1_MQTT_OK/GD32VW55X_Wifi_BLE_SDK/GD32VW55x_RELEASE_V1.0.2/MSDK/wpa_supplicant/src/ap\ieee802_11_shared.c **** 	}
 199:C:/Users/stapi/OneDrive/Desktop/GD32VW553/V1_MQTT_OK/GD32VW55X_Wifi_BLE_SDK/GD32VW55x_RELEASE_V1.0.2/MSDK/wpa_supplicant/src/ap\ieee802_11_shared.c **** 
 200:C:/Users/stapi/OneDrive/Desktop/GD32VW553/V1_MQTT_OK/GD32VW55X_Wifi_BLE_SDK/GD32VW55x_RELEASE_V1.0.2/MSDK/wpa_supplicant/src/ap\ieee802_11_shared.c **** 	wpa_printf(MSG_DEBUG, "IEEE 802.11: Sending SA Query Response to "
 201:C:/Users/stapi/OneDrive/Desktop/GD32VW553/V1_MQTT_OK/GD32VW55X_Wifi_BLE_SDK/GD32VW55x_RELEASE_V1.0.2/MSDK/wpa_supplicant/src/ap\ieee802_11_shared.c **** 		   MACSTR, MAC2STR(sa));
 202:C:/Users/stapi/OneDrive/Desktop/GD32VW553/V1_MQTT_OK/GD32VW55X_Wifi_BLE_SDK/GD32VW55x_RELEASE_V1.0.2/MSDK/wpa_supplicant/src/ap\ieee802_11_shared.c **** 
 203:C:/Users/stapi/OneDrive/Desktop/GD32VW553/V1_MQTT_OK/GD32VW55X_Wifi_BLE_SDK/GD32VW55x_RELEASE_V1.0.2/MSDK/wpa_supplicant/src/ap\ieee802_11_shared.c **** 	resp->frame_control = IEEE80211_FC(WLAN_FC_TYPE_MGMT,
 204:C:/Users/stapi/OneDrive/Desktop/GD32VW553/V1_MQTT_OK/GD32VW55X_Wifi_BLE_SDK/GD32VW55x_RELEASE_V1.0.2/MSDK/wpa_supplicant/src/ap\ieee802_11_shared.c **** 					   WLAN_FC_STYPE_ACTION);
 205:C:/Users/stapi/OneDrive/Desktop/GD32VW553/V1_MQTT_OK/GD32VW55X_Wifi_BLE_SDK/GD32VW55x_RELEASE_V1.0.2/MSDK/wpa_supplicant/src/ap\ieee802_11_shared.c **** 	os_memcpy(resp->da, sa, ETH_ALEN);
 206:C:/Users/stapi/OneDrive/Desktop/GD32VW553/V1_MQTT_OK/GD32VW55X_Wifi_BLE_SDK/GD32VW55x_RELEASE_V1.0.2/MSDK/wpa_supplicant/src/ap\ieee802_11_shared.c **** 	os_memcpy(resp->sa, hapd->own_addr, ETH_ALEN);
 207:C:/Users/stapi/OneDrive/Desktop/GD32VW553/V1_MQTT_OK/GD32VW55X_Wifi_BLE_SDK/GD32VW55x_RELEASE_V1.0.2/MSDK/wpa_supplicant/src/ap\ieee802_11_shared.c **** 	os_memcpy(resp->bssid, hapd->own_addr, ETH_ALEN);
 208:C:/Users/stapi/OneDrive/Desktop/GD32VW553/V1_MQTT_OK/GD32VW55X_Wifi_BLE_SDK/GD32VW55x_RELEASE_V1.0.2/MSDK/wpa_supplicant/src/ap\ieee802_11_shared.c **** 	resp->u.action.category = WLAN_ACTION_SA_QUERY;
 209:C:/Users/stapi/OneDrive/Desktop/GD32VW553/V1_MQTT_OK/GD32VW55X_Wifi_BLE_SDK/GD32VW55x_RELEASE_V1.0.2/MSDK/wpa_supplicant/src/ap\ieee802_11_shared.c **** 	resp->u.action.u.sa_query_req.action = WLAN_SA_QUERY_RESPONSE;
 210:C:/Users/stapi/OneDrive/Desktop/GD32VW553/V1_MQTT_OK/GD32VW55X_Wifi_BLE_SDK/GD32VW55x_RELEASE_V1.0.2/MSDK/wpa_supplicant/src/ap\ieee802_11_shared.c **** 	os_memcpy(resp->u.action.u.sa_query_req.trans_id, trans_id,
 211:C:/Users/stapi/OneDrive/Desktop/GD32VW553/V1_MQTT_OK/GD32VW55X_Wifi_BLE_SDK/GD32VW55x_RELEASE_V1.0.2/MSDK/wpa_supplicant/src/ap\ieee802_11_shared.c **** 		  WLAN_SA_QUERY_TR_ID_LEN);
 212:C:/Users/stapi/OneDrive/Desktop/GD32VW553/V1_MQTT_OK/GD32VW55X_Wifi_BLE_SDK/GD32VW55x_RELEASE_V1.0.2/MSDK/wpa_supplicant/src/ap\ieee802_11_shared.c **** 	end = resp->u.action.u.sa_query_req.variable;
 213:C:/Users/stapi/OneDrive/Desktop/GD32VW553/V1_MQTT_OK/GD32VW55X_Wifi_BLE_SDK/GD32VW55x_RELEASE_V1.0.2/MSDK/wpa_supplicant/src/ap\ieee802_11_shared.c **** #ifdef CONFIG_OCV
 214:C:/Users/stapi/OneDrive/Desktop/GD32VW553/V1_MQTT_OK/GD32VW55X_Wifi_BLE_SDK/GD32VW55x_RELEASE_V1.0.2/MSDK/wpa_supplicant/src/ap\ieee802_11_shared.c **** 	if (oci_ie_len > 0) {
 215:C:/Users/stapi/OneDrive/Desktop/GD32VW553/V1_MQTT_OK/GD32VW55X_Wifi_BLE_SDK/GD32VW55x_RELEASE_V1.0.2/MSDK/wpa_supplicant/src/ap\ieee802_11_shared.c **** 		os_memcpy(end, oci_ie, oci_ie_len);
 216:C:/Users/stapi/OneDrive/Desktop/GD32VW553/V1_MQTT_OK/GD32VW55X_Wifi_BLE_SDK/GD32VW55x_RELEASE_V1.0.2/MSDK/wpa_supplicant/src/ap\ieee802_11_shared.c **** 		end += oci_ie_len;
 217:C:/Users/stapi/OneDrive/Desktop/GD32VW553/V1_MQTT_OK/GD32VW55X_Wifi_BLE_SDK/GD32VW55x_RELEASE_V1.0.2/MSDK/wpa_supplicant/src/ap\ieee802_11_shared.c **** 	}
 218:C:/Users/stapi/OneDrive/Desktop/GD32VW553/V1_MQTT_OK/GD32VW55X_Wifi_BLE_SDK/GD32VW55x_RELEASE_V1.0.2/MSDK/wpa_supplicant/src/ap\ieee802_11_shared.c **** #endif /* CONFIG_OCV */
 219:C:/Users/stapi/OneDrive/Desktop/GD32VW553/V1_MQTT_OK/GD32VW55X_Wifi_BLE_SDK/GD32VW55x_RELEASE_V1.0.2/MSDK/wpa_supplicant/src/ap\ieee802_11_shared.c **** 	if (hostapd_drv_send_mlme(hapd, resp, end - (u8 *) resp, 0, NULL, 0, 0)
 220:C:/Users/stapi/OneDrive/Desktop/GD32VW553/V1_MQTT_OK/GD32VW55X_Wifi_BLE_SDK/GD32VW55x_RELEASE_V1.0.2/MSDK/wpa_supplicant/src/ap\ieee802_11_shared.c **** 	    < 0)
 221:C:/Users/stapi/OneDrive/Desktop/GD32VW553/V1_MQTT_OK/GD32VW55X_Wifi_BLE_SDK/GD32VW55x_RELEASE_V1.0.2/MSDK/wpa_supplicant/src/ap\ieee802_11_shared.c **** 		wpa_printf(MSG_INFO, "ieee80211_mgmt_sa_query_request: send failed");
 222:C:/Users/stapi/OneDrive/Desktop/GD32VW553/V1_MQTT_OK/GD32VW55X_Wifi_BLE_SDK/GD32VW55x_RELEASE_V1.0.2/MSDK/wpa_supplicant/src/ap\ieee802_11_shared.c **** 
 223:C:/Users/stapi/OneDrive/Desktop/GD32VW553/V1_MQTT_OK/GD32VW55X_Wifi_BLE_SDK/GD32VW55x_RELEASE_V1.0.2/MSDK/wpa_supplicant/src/ap\ieee802_11_shared.c **** 	os_free(resp);
 224:C:/Users/stapi/OneDrive/Desktop/GD32VW553/V1_MQTT_OK/GD32VW55X_Wifi_BLE_SDK/GD32VW55x_RELEASE_V1.0.2/MSDK/wpa_supplicant/src/ap\ieee802_11_shared.c **** 	os_free(oci_ie);
 225:C:/Users/stapi/OneDrive/Desktop/GD32VW553/V1_MQTT_OK/GD32VW55X_Wifi_BLE_SDK/GD32VW55x_RELEASE_V1.0.2/MSDK/wpa_supplicant/src/ap\ieee802_11_shared.c **** }
 226:C:/Users/stapi/OneDrive/Desktop/GD32VW553/V1_MQTT_OK/GD32VW55X_Wifi_BLE_SDK/GD32VW55x_RELEASE_V1.0.2/MSDK/wpa_supplicant/src/ap\ieee802_11_shared.c **** 
 227:C:/Users/stapi/OneDrive/Desktop/GD32VW553/V1_MQTT_OK/GD32VW55X_Wifi_BLE_SDK/GD32VW55x_RELEASE_V1.0.2/MSDK/wpa_supplicant/src/ap\ieee802_11_shared.c **** 
 228:C:/Users/stapi/OneDrive/Desktop/GD32VW553/V1_MQTT_OK/GD32VW55X_Wifi_BLE_SDK/GD32VW55x_RELEASE_V1.0.2/MSDK/wpa_supplicant/src/ap\ieee802_11_shared.c **** void ieee802_11_sa_query_action(struct hostapd_data *hapd,
 229:C:/Users/stapi/OneDrive/Desktop/GD32VW553/V1_MQTT_OK/GD32VW55X_Wifi_BLE_SDK/GD32VW55x_RELEASE_V1.0.2/MSDK/wpa_supplicant/src/ap\ieee802_11_shared.c **** 				const struct ieee80211_mgmt *mgmt,
 230:C:/Users/stapi/OneDrive/Desktop/GD32VW553/V1_MQTT_OK/GD32VW55X_Wifi_BLE_SDK/GD32VW55x_RELEASE_V1.0.2/MSDK/wpa_supplicant/src/ap\ieee802_11_shared.c **** 				size_t len)
 231:C:/Users/stapi/OneDrive/Desktop/GD32VW553/V1_MQTT_OK/GD32VW55X_Wifi_BLE_SDK/GD32VW55x_RELEASE_V1.0.2/MSDK/wpa_supplicant/src/ap\ieee802_11_shared.c **** {
 382              		.loc 1 231 1
 383              		.cfi_startproc
 384              	.LVL38:
 385 0000 17030000 		call	t0,__riscv_save_5
 385      E7020300 
 386              		.cfi_offset 20, -24
 387              		.cfi_offset 19, -20
 388              		.cfi_offset 18, -16
 389              		.cfi_offset 9, -12
 390              		.cfi_offset 8, -8
 391              		.cfi_offset 1, -4
 392              		.cfi_def_cfa_offset 32
 232:C:/Users/stapi/OneDrive/Desktop/GD32VW553/V1_MQTT_OK/GD32VW55X_Wifi_BLE_SDK/GD32VW55x_RELEASE_V1.0.2/MSDK/wpa_supplicant/src/ap\ieee802_11_shared.c **** 	struct sta_info *sta;
 393              		.loc 1 232 2
 233:C:/Users/stapi/OneDrive/Desktop/GD32VW553/V1_MQTT_OK/GD32VW55X_Wifi_BLE_SDK/GD32VW55x_RELEASE_V1.0.2/MSDK/wpa_supplicant/src/ap\ieee802_11_shared.c **** 	int i;
 394              		.loc 1 233 2
 234:C:/Users/stapi/OneDrive/Desktop/GD32VW553/V1_MQTT_OK/GD32VW55X_Wifi_BLE_SDK/GD32VW55x_RELEASE_V1.0.2/MSDK/wpa_supplicant/src/ap\ieee802_11_shared.c **** 	const u8 *sa = mgmt->sa;
 395              		.loc 1 234 2
 396              	.LVL39:
 235:C:/Users/stapi/OneDrive/Desktop/GD32VW553/V1_MQTT_OK/GD32VW55X_Wifi_BLE_SDK/GD32VW55x_RELEASE_V1.0.2/MSDK/wpa_supplicant/src/ap\ieee802_11_shared.c **** 	const u8 action_type = mgmt->u.action.u.sa_query_resp.action;
 397              		.loc 1 235 2
 236:C:/Users/stapi/OneDrive/Desktop/GD32VW553/V1_MQTT_OK/GD32VW55X_Wifi_BLE_SDK/GD32VW55x_RELEASE_V1.0.2/MSDK/wpa_supplicant/src/ap\ieee802_11_shared.c **** 	const u8 *trans_id = mgmt->u.action.u.sa_query_resp.trans_id;
 398              		.loc 1 236 2
 237:C:/Users/stapi/OneDrive/Desktop/GD32VW553/V1_MQTT_OK/GD32VW55X_Wifi_BLE_SDK/GD32VW55x_RELEASE_V1.0.2/MSDK/wpa_supplicant/src/ap\ieee802_11_shared.c **** 
 238:C:/Users/stapi/OneDrive/Desktop/GD32VW553/V1_MQTT_OK/GD32VW55X_Wifi_BLE_SDK/GD32VW55x_RELEASE_V1.0.2/MSDK/wpa_supplicant/src/ap\ieee802_11_shared.c **** 	if (((const u8 *) mgmt) + len <
 399              		.loc 1 238 2
 400              		.loc 1 238 26 is_stmt 0
 401 0008 B387C500 		add	a5,a1,a2
 402              		.loc 1 238 32
 403 000c 1387C501 		addi	a4,a1,28
 231:C:/Users/stapi/OneDrive/Desktop/GD32VW553/V1_MQTT_OK/GD32VW55X_Wifi_BLE_SDK/GD32VW55x_RELEASE_V1.0.2/MSDK/wpa_supplicant/src/ap\ieee802_11_shared.c **** 	struct sta_info *sta;
 404              		.loc 1 231 1
 405 0010 7971     		addi	sp,sp,-48
 406              		.cfi_def_cfa_offset 80
 407              		.loc 1 238 5
 408 0012 63FCE700 		bgeu	a5,a4,.L14
 239:C:/Users/stapi/OneDrive/Desktop/GD32VW553/V1_MQTT_OK/GD32VW55X_Wifi_BLE_SDK/GD32VW55x_RELEASE_V1.0.2/MSDK/wpa_supplicant/src/ap\ieee802_11_shared.c **** 	    mgmt->u.action.u.sa_query_resp.variable) {
 240:C:/Users/stapi/OneDrive/Desktop/GD32VW553/V1_MQTT_OK/GD32VW55X_Wifi_BLE_SDK/GD32VW55x_RELEASE_V1.0.2/MSDK/wpa_supplicant/src/ap\ieee802_11_shared.c **** 		wpa_printf(MSG_DEBUG,
 409              		.loc 1 240 3 is_stmt 1
 410 0016 B7050000 		lui	a1,%hi(.LC4)
 411              	.LVL40:
 412 001a 93850500 		addi	a1,a1,%lo(.LC4)
 413              	.LVL41:
 414              	.L42:
 241:C:/Users/stapi/OneDrive/Desktop/GD32VW553/V1_MQTT_OK/GD32VW55X_Wifi_BLE_SDK/GD32VW55x_RELEASE_V1.0.2/MSDK/wpa_supplicant/src/ap\ieee802_11_shared.c **** 			   "IEEE 802.11: Too short SA Query Action frame (len=%lu)",
 242:C:/Users/stapi/OneDrive/Desktop/GD32VW553/V1_MQTT_OK/GD32VW55X_Wifi_BLE_SDK/GD32VW55x_RELEASE_V1.0.2/MSDK/wpa_supplicant/src/ap\ieee802_11_shared.c **** 			   (unsigned long) len);
 243:C:/Users/stapi/OneDrive/Desktop/GD32VW553/V1_MQTT_OK/GD32VW55X_Wifi_BLE_SDK/GD32VW55x_RELEASE_V1.0.2/MSDK/wpa_supplicant/src/ap\ieee802_11_shared.c **** 		return;
 244:C:/Users/stapi/OneDrive/Desktop/GD32VW553/V1_MQTT_OK/GD32VW55X_Wifi_BLE_SDK/GD32VW55x_RELEASE_V1.0.2/MSDK/wpa_supplicant/src/ap\ieee802_11_shared.c **** 	}
 245:C:/Users/stapi/OneDrive/Desktop/GD32VW553/V1_MQTT_OK/GD32VW55X_Wifi_BLE_SDK/GD32VW55x_RELEASE_V1.0.2/MSDK/wpa_supplicant/src/ap\ieee802_11_shared.c **** 	if (is_multicast_ether_addr(mgmt->da)) {
 246:C:/Users/stapi/OneDrive/Desktop/GD32VW553/V1_MQTT_OK/GD32VW55X_Wifi_BLE_SDK/GD32VW55x_RELEASE_V1.0.2/MSDK/wpa_supplicant/src/ap\ieee802_11_shared.c **** 		wpa_printf(MSG_DEBUG,
 247:C:/Users/stapi/OneDrive/Desktop/GD32VW553/V1_MQTT_OK/GD32VW55X_Wifi_BLE_SDK/GD32VW55x_RELEASE_V1.0.2/MSDK/wpa_supplicant/src/ap\ieee802_11_shared.c **** 			   "IEEE 802.11: Ignore group-addressed SA Query frame (A1=" MACSTR " A2=" MACSTR ")",
 248:C:/Users/stapi/OneDrive/Desktop/GD32VW553/V1_MQTT_OK/GD32VW55X_Wifi_BLE_SDK/GD32VW55x_RELEASE_V1.0.2/MSDK/wpa_supplicant/src/ap\ieee802_11_shared.c **** 			   MAC2STR(mgmt->da), MAC2STR(mgmt->sa));
 249:C:/Users/stapi/OneDrive/Desktop/GD32VW553/V1_MQTT_OK/GD32VW55X_Wifi_BLE_SDK/GD32VW55x_RELEASE_V1.0.2/MSDK/wpa_supplicant/src/ap\ieee802_11_shared.c **** 		return;
 250:C:/Users/stapi/OneDrive/Desktop/GD32VW553/V1_MQTT_OK/GD32VW55X_Wifi_BLE_SDK/GD32VW55x_RELEASE_V1.0.2/MSDK/wpa_supplicant/src/ap\ieee802_11_shared.c **** 	}
 251:C:/Users/stapi/OneDrive/Desktop/GD32VW553/V1_MQTT_OK/GD32VW55X_Wifi_BLE_SDK/GD32VW55x_RELEASE_V1.0.2/MSDK/wpa_supplicant/src/ap\ieee802_11_shared.c **** 
 252:C:/Users/stapi/OneDrive/Desktop/GD32VW553/V1_MQTT_OK/GD32VW55X_Wifi_BLE_SDK/GD32VW55x_RELEASE_V1.0.2/MSDK/wpa_supplicant/src/ap\ieee802_11_shared.c **** 	sta = ap_get_sta(hapd, sa);
 253:C:/Users/stapi/OneDrive/Desktop/GD32VW553/V1_MQTT_OK/GD32VW55X_Wifi_BLE_SDK/GD32VW55x_RELEASE_V1.0.2/MSDK/wpa_supplicant/src/ap\ieee802_11_shared.c **** 
 254:C:/Users/stapi/OneDrive/Desktop/GD32VW553/V1_MQTT_OK/GD32VW55X_Wifi_BLE_SDK/GD32VW55x_RELEASE_V1.0.2/MSDK/wpa_supplicant/src/ap\ieee802_11_shared.c **** #ifdef CONFIG_OCV
 255:C:/Users/stapi/OneDrive/Desktop/GD32VW553/V1_MQTT_OK/GD32VW55X_Wifi_BLE_SDK/GD32VW55x_RELEASE_V1.0.2/MSDK/wpa_supplicant/src/ap\ieee802_11_shared.c **** 	if (sta && wpa_auth_uses_ocv(sta->wpa_sm)) {
 256:C:/Users/stapi/OneDrive/Desktop/GD32VW553/V1_MQTT_OK/GD32VW55X_Wifi_BLE_SDK/GD32VW55x_RELEASE_V1.0.2/MSDK/wpa_supplicant/src/ap\ieee802_11_shared.c **** 		struct ieee802_11_elems elems;
 257:C:/Users/stapi/OneDrive/Desktop/GD32VW553/V1_MQTT_OK/GD32VW55X_Wifi_BLE_SDK/GD32VW55x_RELEASE_V1.0.2/MSDK/wpa_supplicant/src/ap\ieee802_11_shared.c **** 		struct wpa_channel_info ci;
 258:C:/Users/stapi/OneDrive/Desktop/GD32VW553/V1_MQTT_OK/GD32VW55X_Wifi_BLE_SDK/GD32VW55x_RELEASE_V1.0.2/MSDK/wpa_supplicant/src/ap\ieee802_11_shared.c **** 		int tx_chanwidth;
 259:C:/Users/stapi/OneDrive/Desktop/GD32VW553/V1_MQTT_OK/GD32VW55X_Wifi_BLE_SDK/GD32VW55x_RELEASE_V1.0.2/MSDK/wpa_supplicant/src/ap\ieee802_11_shared.c **** 		int tx_seg1_idx;
 260:C:/Users/stapi/OneDrive/Desktop/GD32VW553/V1_MQTT_OK/GD32VW55X_Wifi_BLE_SDK/GD32VW55x_RELEASE_V1.0.2/MSDK/wpa_supplicant/src/ap\ieee802_11_shared.c **** 		size_t ies_len;
 261:C:/Users/stapi/OneDrive/Desktop/GD32VW553/V1_MQTT_OK/GD32VW55X_Wifi_BLE_SDK/GD32VW55x_RELEASE_V1.0.2/MSDK/wpa_supplicant/src/ap\ieee802_11_shared.c **** 		const u8 *ies;
 262:C:/Users/stapi/OneDrive/Desktop/GD32VW553/V1_MQTT_OK/GD32VW55X_Wifi_BLE_SDK/GD32VW55x_RELEASE_V1.0.2/MSDK/wpa_supplicant/src/ap\ieee802_11_shared.c **** 
 263:C:/Users/stapi/OneDrive/Desktop/GD32VW553/V1_MQTT_OK/GD32VW55X_Wifi_BLE_SDK/GD32VW55x_RELEASE_V1.0.2/MSDK/wpa_supplicant/src/ap\ieee802_11_shared.c **** 		ies = mgmt->u.action.u.sa_query_resp.variable;
 264:C:/Users/stapi/OneDrive/Desktop/GD32VW553/V1_MQTT_OK/GD32VW55X_Wifi_BLE_SDK/GD32VW55x_RELEASE_V1.0.2/MSDK/wpa_supplicant/src/ap\ieee802_11_shared.c **** 		ies_len = len - (ies - (u8 *) mgmt);
 265:C:/Users/stapi/OneDrive/Desktop/GD32VW553/V1_MQTT_OK/GD32VW55X_Wifi_BLE_SDK/GD32VW55x_RELEASE_V1.0.2/MSDK/wpa_supplicant/src/ap\ieee802_11_shared.c **** 		if (ieee802_11_parse_elems(ies, ies_len, &elems, 1) ==
 266:C:/Users/stapi/OneDrive/Desktop/GD32VW553/V1_MQTT_OK/GD32VW55X_Wifi_BLE_SDK/GD32VW55x_RELEASE_V1.0.2/MSDK/wpa_supplicant/src/ap\ieee802_11_shared.c **** 		    ParseFailed) {
 267:C:/Users/stapi/OneDrive/Desktop/GD32VW553/V1_MQTT_OK/GD32VW55X_Wifi_BLE_SDK/GD32VW55x_RELEASE_V1.0.2/MSDK/wpa_supplicant/src/ap\ieee802_11_shared.c **** 			wpa_printf(MSG_DEBUG,
 268:C:/Users/stapi/OneDrive/Desktop/GD32VW553/V1_MQTT_OK/GD32VW55X_Wifi_BLE_SDK/GD32VW55x_RELEASE_V1.0.2/MSDK/wpa_supplicant/src/ap\ieee802_11_shared.c **** 				   "SA Query: Failed to parse elements");
 269:C:/Users/stapi/OneDrive/Desktop/GD32VW553/V1_MQTT_OK/GD32VW55X_Wifi_BLE_SDK/GD32VW55x_RELEASE_V1.0.2/MSDK/wpa_supplicant/src/ap\ieee802_11_shared.c **** 			return;
 270:C:/Users/stapi/OneDrive/Desktop/GD32VW553/V1_MQTT_OK/GD32VW55X_Wifi_BLE_SDK/GD32VW55x_RELEASE_V1.0.2/MSDK/wpa_supplicant/src/ap\ieee802_11_shared.c **** 		}
 271:C:/Users/stapi/OneDrive/Desktop/GD32VW553/V1_MQTT_OK/GD32VW55X_Wifi_BLE_SDK/GD32VW55x_RELEASE_V1.0.2/MSDK/wpa_supplicant/src/ap\ieee802_11_shared.c **** 
 272:C:/Users/stapi/OneDrive/Desktop/GD32VW553/V1_MQTT_OK/GD32VW55X_Wifi_BLE_SDK/GD32VW55x_RELEASE_V1.0.2/MSDK/wpa_supplicant/src/ap\ieee802_11_shared.c **** 		if (hostapd_drv_channel_info(hapd, &ci) != 0) {
 273:C:/Users/stapi/OneDrive/Desktop/GD32VW553/V1_MQTT_OK/GD32VW55X_Wifi_BLE_SDK/GD32VW55x_RELEASE_V1.0.2/MSDK/wpa_supplicant/src/ap\ieee802_11_shared.c **** 			wpa_printf(MSG_WARNING,
 274:C:/Users/stapi/OneDrive/Desktop/GD32VW553/V1_MQTT_OK/GD32VW55X_Wifi_BLE_SDK/GD32VW55x_RELEASE_V1.0.2/MSDK/wpa_supplicant/src/ap\ieee802_11_shared.c **** 				   "Failed to get channel info to validate received OCI in SA Query Action frame");
 275:C:/Users/stapi/OneDrive/Desktop/GD32VW553/V1_MQTT_OK/GD32VW55X_Wifi_BLE_SDK/GD32VW55x_RELEASE_V1.0.2/MSDK/wpa_supplicant/src/ap\ieee802_11_shared.c **** 			return;
 276:C:/Users/stapi/OneDrive/Desktop/GD32VW553/V1_MQTT_OK/GD32VW55X_Wifi_BLE_SDK/GD32VW55x_RELEASE_V1.0.2/MSDK/wpa_supplicant/src/ap\ieee802_11_shared.c **** 		}
 277:C:/Users/stapi/OneDrive/Desktop/GD32VW553/V1_MQTT_OK/GD32VW55X_Wifi_BLE_SDK/GD32VW55x_RELEASE_V1.0.2/MSDK/wpa_supplicant/src/ap\ieee802_11_shared.c **** 
 278:C:/Users/stapi/OneDrive/Desktop/GD32VW553/V1_MQTT_OK/GD32VW55X_Wifi_BLE_SDK/GD32VW55x_RELEASE_V1.0.2/MSDK/wpa_supplicant/src/ap\ieee802_11_shared.c **** 		if (get_sta_tx_parameters(sta->wpa_sm,
 279:C:/Users/stapi/OneDrive/Desktop/GD32VW553/V1_MQTT_OK/GD32VW55X_Wifi_BLE_SDK/GD32VW55x_RELEASE_V1.0.2/MSDK/wpa_supplicant/src/ap\ieee802_11_shared.c **** 					  channel_width_to_int(ci.chanwidth),
 280:C:/Users/stapi/OneDrive/Desktop/GD32VW553/V1_MQTT_OK/GD32VW55X_Wifi_BLE_SDK/GD32VW55x_RELEASE_V1.0.2/MSDK/wpa_supplicant/src/ap\ieee802_11_shared.c **** 					  ci.seg1_idx, &tx_chanwidth,
 281:C:/Users/stapi/OneDrive/Desktop/GD32VW553/V1_MQTT_OK/GD32VW55X_Wifi_BLE_SDK/GD32VW55x_RELEASE_V1.0.2/MSDK/wpa_supplicant/src/ap\ieee802_11_shared.c **** 					  &tx_seg1_idx) < 0)
 282:C:/Users/stapi/OneDrive/Desktop/GD32VW553/V1_MQTT_OK/GD32VW55X_Wifi_BLE_SDK/GD32VW55x_RELEASE_V1.0.2/MSDK/wpa_supplicant/src/ap\ieee802_11_shared.c **** 			return;
 283:C:/Users/stapi/OneDrive/Desktop/GD32VW553/V1_MQTT_OK/GD32VW55X_Wifi_BLE_SDK/GD32VW55x_RELEASE_V1.0.2/MSDK/wpa_supplicant/src/ap\ieee802_11_shared.c **** 
 284:C:/Users/stapi/OneDrive/Desktop/GD32VW553/V1_MQTT_OK/GD32VW55X_Wifi_BLE_SDK/GD32VW55x_RELEASE_V1.0.2/MSDK/wpa_supplicant/src/ap\ieee802_11_shared.c **** 		if (ocv_verify_tx_params(elems.oci, elems.oci_len, &ci,
 285:C:/Users/stapi/OneDrive/Desktop/GD32VW553/V1_MQTT_OK/GD32VW55X_Wifi_BLE_SDK/GD32VW55x_RELEASE_V1.0.2/MSDK/wpa_supplicant/src/ap\ieee802_11_shared.c **** 					 tx_chanwidth, tx_seg1_idx) !=
 286:C:/Users/stapi/OneDrive/Desktop/GD32VW553/V1_MQTT_OK/GD32VW55X_Wifi_BLE_SDK/GD32VW55x_RELEASE_V1.0.2/MSDK/wpa_supplicant/src/ap\ieee802_11_shared.c **** 		    OCI_SUCCESS) {
 287:C:/Users/stapi/OneDrive/Desktop/GD32VW553/V1_MQTT_OK/GD32VW55X_Wifi_BLE_SDK/GD32VW55x_RELEASE_V1.0.2/MSDK/wpa_supplicant/src/ap\ieee802_11_shared.c **** 			wpa_msg(hapd->msg_ctx, MSG_INFO, OCV_FAILURE "addr="
 288:C:/Users/stapi/OneDrive/Desktop/GD32VW553/V1_MQTT_OK/GD32VW55X_Wifi_BLE_SDK/GD32VW55x_RELEASE_V1.0.2/MSDK/wpa_supplicant/src/ap\ieee802_11_shared.c **** 				MACSTR " frame=saquery%s error=%s",
 289:C:/Users/stapi/OneDrive/Desktop/GD32VW553/V1_MQTT_OK/GD32VW55X_Wifi_BLE_SDK/GD32VW55x_RELEASE_V1.0.2/MSDK/wpa_supplicant/src/ap\ieee802_11_shared.c **** 				MAC2STR(sa),
 290:C:/Users/stapi/OneDrive/Desktop/GD32VW553/V1_MQTT_OK/GD32VW55X_Wifi_BLE_SDK/GD32VW55x_RELEASE_V1.0.2/MSDK/wpa_supplicant/src/ap\ieee802_11_shared.c **** 				action_type == WLAN_SA_QUERY_REQUEST ?
 291:C:/Users/stapi/OneDrive/Desktop/GD32VW553/V1_MQTT_OK/GD32VW55X_Wifi_BLE_SDK/GD32VW55x_RELEASE_V1.0.2/MSDK/wpa_supplicant/src/ap\ieee802_11_shared.c **** 				"req" : "resp", ocv_errorstr);
 292:C:/Users/stapi/OneDrive/Desktop/GD32VW553/V1_MQTT_OK/GD32VW55X_Wifi_BLE_SDK/GD32VW55x_RELEASE_V1.0.2/MSDK/wpa_supplicant/src/ap\ieee802_11_shared.c **** 			return;
 293:C:/Users/stapi/OneDrive/Desktop/GD32VW553/V1_MQTT_OK/GD32VW55X_Wifi_BLE_SDK/GD32VW55x_RELEASE_V1.0.2/MSDK/wpa_supplicant/src/ap\ieee802_11_shared.c **** 		}
 294:C:/Users/stapi/OneDrive/Desktop/GD32VW553/V1_MQTT_OK/GD32VW55X_Wifi_BLE_SDK/GD32VW55x_RELEASE_V1.0.2/MSDK/wpa_supplicant/src/ap\ieee802_11_shared.c **** 	}
 295:C:/Users/stapi/OneDrive/Desktop/GD32VW553/V1_MQTT_OK/GD32VW55X_Wifi_BLE_SDK/GD32VW55x_RELEASE_V1.0.2/MSDK/wpa_supplicant/src/ap\ieee802_11_shared.c **** #endif /* CONFIG_OCV */
 296:C:/Users/stapi/OneDrive/Desktop/GD32VW553/V1_MQTT_OK/GD32VW55X_Wifi_BLE_SDK/GD32VW55x_RELEASE_V1.0.2/MSDK/wpa_supplicant/src/ap\ieee802_11_shared.c **** 
 297:C:/Users/stapi/OneDrive/Desktop/GD32VW553/V1_MQTT_OK/GD32VW55X_Wifi_BLE_SDK/GD32VW55x_RELEASE_V1.0.2/MSDK/wpa_supplicant/src/ap\ieee802_11_shared.c **** 	if (action_type == WLAN_SA_QUERY_REQUEST) {
 298:C:/Users/stapi/OneDrive/Desktop/GD32VW553/V1_MQTT_OK/GD32VW55X_Wifi_BLE_SDK/GD32VW55x_RELEASE_V1.0.2/MSDK/wpa_supplicant/src/ap\ieee802_11_shared.c **** 		if (sta)
 299:C:/Users/stapi/OneDrive/Desktop/GD32VW553/V1_MQTT_OK/GD32VW55X_Wifi_BLE_SDK/GD32VW55x_RELEASE_V1.0.2/MSDK/wpa_supplicant/src/ap\ieee802_11_shared.c **** 			sta->post_csa_sa_query = 0;
 300:C:/Users/stapi/OneDrive/Desktop/GD32VW553/V1_MQTT_OK/GD32VW55X_Wifi_BLE_SDK/GD32VW55x_RELEASE_V1.0.2/MSDK/wpa_supplicant/src/ap\ieee802_11_shared.c **** 		ieee802_11_send_sa_query_resp(hapd, sa, trans_id);
 301:C:/Users/stapi/OneDrive/Desktop/GD32VW553/V1_MQTT_OK/GD32VW55X_Wifi_BLE_SDK/GD32VW55x_RELEASE_V1.0.2/MSDK/wpa_supplicant/src/ap\ieee802_11_shared.c **** 		return;
 302:C:/Users/stapi/OneDrive/Desktop/GD32VW553/V1_MQTT_OK/GD32VW55X_Wifi_BLE_SDK/GD32VW55x_RELEASE_V1.0.2/MSDK/wpa_supplicant/src/ap\ieee802_11_shared.c **** 	}
 303:C:/Users/stapi/OneDrive/Desktop/GD32VW553/V1_MQTT_OK/GD32VW55X_Wifi_BLE_SDK/GD32VW55x_RELEASE_V1.0.2/MSDK/wpa_supplicant/src/ap\ieee802_11_shared.c **** 
 304:C:/Users/stapi/OneDrive/Desktop/GD32VW553/V1_MQTT_OK/GD32VW55X_Wifi_BLE_SDK/GD32VW55x_RELEASE_V1.0.2/MSDK/wpa_supplicant/src/ap\ieee802_11_shared.c **** 	if (action_type != WLAN_SA_QUERY_RESPONSE) {
 305:C:/Users/stapi/OneDrive/Desktop/GD32VW553/V1_MQTT_OK/GD32VW55X_Wifi_BLE_SDK/GD32VW55x_RELEASE_V1.0.2/MSDK/wpa_supplicant/src/ap\ieee802_11_shared.c **** 		wpa_printf(MSG_DEBUG, "IEEE 802.11: Unexpected SA Query "
 415              		.loc 1 305 3 is_stmt 0
 416 001e 0945     		li	a0,2
 417 0020 97000000 		call	wpa_printf
 417      E7800000 
 418              	.LVL42:
 306:C:/Users/stapi/OneDrive/Desktop/GD32VW553/V1_MQTT_OK/GD32VW55X_Wifi_BLE_SDK/GD32VW55x_RELEASE_V1.0.2/MSDK/wpa_supplicant/src/ap\ieee802_11_shared.c **** 			   "Action %d", action_type);
 307:C:/Users/stapi/OneDrive/Desktop/GD32VW553/V1_MQTT_OK/GD32VW55X_Wifi_BLE_SDK/GD32VW55x_RELEASE_V1.0.2/MSDK/wpa_supplicant/src/ap\ieee802_11_shared.c **** 		return;
 419              		.loc 1 307 3 is_stmt 1
 420 0028 A1A8     		j	.L13
 421              	.LVL43:
 422              	.L14:
 423              	.LBB44:
 424              	.LBB45:
 298:..\..\..\..\wpa_supplicant\src/utils/common.h **** }
 299:..\..\..\..\wpa_supplicant\src/utils/common.h **** 
 300:..\..\..\..\wpa_supplicant\src/utils/common.h **** static inline u64 WPA_GET_BE64(const u8 *a)
 301:..\..\..\..\wpa_supplicant\src/utils/common.h **** {
 302:..\..\..\..\wpa_supplicant\src/utils/common.h **** 	return (((u64) a[0]) << 56) | (((u64) a[1]) << 48) |
 303:..\..\..\..\wpa_supplicant\src/utils/common.h **** 		(((u64) a[2]) << 40) | (((u64) a[3]) << 32) |
 304:..\..\..\..\wpa_supplicant\src/utils/common.h **** 		(((u64) a[4]) << 24) | (((u64) a[5]) << 16) |
 305:..\..\..\..\wpa_supplicant\src/utils/common.h **** 		(((u64) a[6]) << 8) | ((u64) a[7]);
 306:..\..\..\..\wpa_supplicant\src/utils/common.h **** }
 307:..\..\..\..\wpa_supplicant\src/utils/common.h **** 
 308:..\..\..\..\wpa_supplicant\src/utils/common.h **** static inline void WPA_PUT_BE64(u8 *a, u64 val)
 309:..\..\..\..\wpa_supplicant\src/utils/common.h **** {
 310:..\..\..\..\wpa_supplicant\src/utils/common.h **** 	a[0] = val >> 56;
 311:..\..\..\..\wpa_supplicant\src/utils/common.h **** 	a[1] = val >> 48;
 312:..\..\..\..\wpa_supplicant\src/utils/common.h **** 	a[2] = val >> 40;
 313:..\..\..\..\wpa_supplicant\src/utils/common.h **** 	a[3] = val >> 32;
 314:..\..\..\..\wpa_supplicant\src/utils/common.h **** 	a[4] = val >> 24;
 315:..\..\..\..\wpa_supplicant\src/utils/common.h **** 	a[5] = val >> 16;
 316:..\..\..\..\wpa_supplicant\src/utils/common.h **** 	a[6] = val >> 8;
 317:..\..\..\..\wpa_supplicant\src/utils/common.h **** 	a[7] = val & 0xff;
 318:..\..\..\..\wpa_supplicant\src/utils/common.h **** }
 319:..\..\..\..\wpa_supplicant\src/utils/common.h **** 
 320:..\..\..\..\wpa_supplicant\src/utils/common.h **** static inline u64 WPA_GET_LE64(const u8 *a)
 321:..\..\..\..\wpa_supplicant\src/utils/common.h **** {
 322:..\..\..\..\wpa_supplicant\src/utils/common.h **** 	return (((u64) a[7]) << 56) | (((u64) a[6]) << 48) |
 323:..\..\..\..\wpa_supplicant\src/utils/common.h **** 		(((u64) a[5]) << 40) | (((u64) a[4]) << 32) |
 324:..\..\..\..\wpa_supplicant\src/utils/common.h **** 		(((u64) a[3]) << 24) | (((u64) a[2]) << 16) |
 325:..\..\..\..\wpa_supplicant\src/utils/common.h **** 		(((u64) a[1]) << 8) | ((u64) a[0]);
 326:..\..\..\..\wpa_supplicant\src/utils/common.h **** }
 327:..\..\..\..\wpa_supplicant\src/utils/common.h **** 
 328:..\..\..\..\wpa_supplicant\src/utils/common.h **** static inline void WPA_PUT_LE64(u8 *a, u64 val)
 329:..\..\..\..\wpa_supplicant\src/utils/common.h **** {
 330:..\..\..\..\wpa_supplicant\src/utils/common.h **** 	a[7] = val >> 56;
 331:..\..\..\..\wpa_supplicant\src/utils/common.h **** 	a[6] = val >> 48;
 332:..\..\..\..\wpa_supplicant\src/utils/common.h **** 	a[5] = val >> 40;
 333:..\..\..\..\wpa_supplicant\src/utils/common.h **** 	a[4] = val >> 32;
 334:..\..\..\..\wpa_supplicant\src/utils/common.h **** 	a[3] = val >> 24;
 335:..\..\..\..\wpa_supplicant\src/utils/common.h **** 	a[2] = val >> 16;
 336:..\..\..\..\wpa_supplicant\src/utils/common.h **** 	a[1] = val >> 8;
 337:..\..\..\..\wpa_supplicant\src/utils/common.h **** 	a[0] = val & 0xff;
 338:..\..\..\..\wpa_supplicant\src/utils/common.h **** }
 339:..\..\..\..\wpa_supplicant\src/utils/common.h **** 
 340:..\..\..\..\wpa_supplicant\src/utils/common.h **** 
 341:..\..\..\..\wpa_supplicant\src/utils/common.h **** #ifndef ETH_ALEN
 342:..\..\..\..\wpa_supplicant\src/utils/common.h **** #define ETH_ALEN 6
 343:..\..\..\..\wpa_supplicant\src/utils/common.h **** #endif
 344:..\..\..\..\wpa_supplicant\src/utils/common.h **** #ifndef ETH_HLEN
 345:..\..\..\..\wpa_supplicant\src/utils/common.h **** #define ETH_HLEN 14
 346:..\..\..\..\wpa_supplicant\src/utils/common.h **** #endif
 347:..\..\..\..\wpa_supplicant\src/utils/common.h **** #ifndef IFNAMSIZ
 348:..\..\..\..\wpa_supplicant\src/utils/common.h **** #define IFNAMSIZ 16
 349:..\..\..\..\wpa_supplicant\src/utils/common.h **** #endif
 350:..\..\..\..\wpa_supplicant\src/utils/common.h **** #ifndef ETH_P_ALL
 351:..\..\..\..\wpa_supplicant\src/utils/common.h **** #define ETH_P_ALL 0x0003
 352:..\..\..\..\wpa_supplicant\src/utils/common.h **** #endif
 353:..\..\..\..\wpa_supplicant\src/utils/common.h **** #ifndef ETH_P_IP
 354:..\..\..\..\wpa_supplicant\src/utils/common.h **** #define ETH_P_IP 0x0800
 355:..\..\..\..\wpa_supplicant\src/utils/common.h **** #endif
 356:..\..\..\..\wpa_supplicant\src/utils/common.h **** #ifndef ETH_P_80211_ENCAP
 357:..\..\..\..\wpa_supplicant\src/utils/common.h **** #define ETH_P_80211_ENCAP 0x890d /* TDLS comes under this category */
 358:..\..\..\..\wpa_supplicant\src/utils/common.h **** #endif
 359:..\..\..\..\wpa_supplicant\src/utils/common.h **** #ifndef ETH_P_PAE
 360:..\..\..\..\wpa_supplicant\src/utils/common.h **** #define ETH_P_PAE 0x888E /* Port Access Entity (IEEE 802.1X) */
 361:..\..\..\..\wpa_supplicant\src/utils/common.h **** #endif /* ETH_P_PAE */
 362:..\..\..\..\wpa_supplicant\src/utils/common.h **** #ifndef ETH_P_EAPOL
 363:..\..\..\..\wpa_supplicant\src/utils/common.h **** #define ETH_P_EAPOL ETH_P_PAE
 364:..\..\..\..\wpa_supplicant\src/utils/common.h **** #endif /* ETH_P_EAPOL */
 365:..\..\..\..\wpa_supplicant\src/utils/common.h **** #ifndef ETH_P_RSN_PREAUTH
 366:..\..\..\..\wpa_supplicant\src/utils/common.h **** #define ETH_P_RSN_PREAUTH 0x88c7
 367:..\..\..\..\wpa_supplicant\src/utils/common.h **** #endif /* ETH_P_RSN_PREAUTH */
 368:..\..\..\..\wpa_supplicant\src/utils/common.h **** #ifndef ETH_P_RRB
 369:..\..\..\..\wpa_supplicant\src/utils/common.h **** #define ETH_P_RRB 0x890D
 370:..\..\..\..\wpa_supplicant\src/utils/common.h **** #endif /* ETH_P_RRB */
 371:..\..\..\..\wpa_supplicant\src/utils/common.h **** #ifndef ETH_P_OUI
 372:..\..\..\..\wpa_supplicant\src/utils/common.h **** #define ETH_P_OUI 0x88B7
 373:..\..\..\..\wpa_supplicant\src/utils/common.h **** #endif /* ETH_P_OUI */
 374:..\..\..\..\wpa_supplicant\src/utils/common.h **** #ifndef ETH_P_8021Q
 375:..\..\..\..\wpa_supplicant\src/utils/common.h **** #define ETH_P_8021Q 0x8100
 376:..\..\..\..\wpa_supplicant\src/utils/common.h **** #endif /* ETH_P_8021Q */
 377:..\..\..\..\wpa_supplicant\src/utils/common.h **** 
 378:..\..\..\..\wpa_supplicant\src/utils/common.h **** #if defined(__CC_ARM)
 379:..\..\..\..\wpa_supplicant\src/utils/common.h **** #define PRINTF_FORMAT(a,b)
 380:..\..\..\..\wpa_supplicant\src/utils/common.h **** #define STRUCT_PACKED           __attribute__ ((packed))
 381:..\..\..\..\wpa_supplicant\src/utils/common.h **** #elif defined(__ICCARM__)
 382:..\..\..\..\wpa_supplicant\src/utils/common.h **** #define PRINTF_FORMAT(a,b)
 383:..\..\..\..\wpa_supplicant\src/utils/common.h **** #define STRUCT_PACKED           __attribute__((packed, aligned(1)))
 384:..\..\..\..\wpa_supplicant\src/utils/common.h **** #elif defined(__ARMCC_VERSION) && (__ARMCC_VERSION >= 6010050)
 385:..\..\..\..\wpa_supplicant\src/utils/common.h **** #define PRINTF_FORMAT(a,b)
 386:..\..\..\..\wpa_supplicant\src/utils/common.h **** #define STRUCT_PACKED           __attribute__((packed, aligned(1)))
 387:..\..\..\..\wpa_supplicant\src/utils/common.h **** #elif defined ( __GNUC__ )
 388:..\..\..\..\wpa_supplicant\src/utils/common.h **** #define PRINTF_FORMAT(a,b)      __attribute__ ((format (printf, (a), (b))))
 389:..\..\..\..\wpa_supplicant\src/utils/common.h **** #define STRUCT_PACKED           __attribute__ ((packed))
 390:..\..\..\..\wpa_supplicant\src/utils/common.h **** #else
 391:..\..\..\..\wpa_supplicant\src/utils/common.h **** #define PRINTF_FORMAT(a,b)
 392:..\..\..\..\wpa_supplicant\src/utils/common.h **** #define STRUCT_PACKED
 393:..\..\..\..\wpa_supplicant\src/utils/common.h **** #endif
 394:..\..\..\..\wpa_supplicant\src/utils/common.h **** 
 395:..\..\..\..\wpa_supplicant\src/utils/common.h **** 
 396:..\..\..\..\wpa_supplicant\src/utils/common.h **** #ifdef CONFIG_ANSI_C_EXTRA
 397:..\..\..\..\wpa_supplicant\src/utils/common.h **** 
 398:..\..\..\..\wpa_supplicant\src/utils/common.h **** #if !defined(_MSC_VER) || _MSC_VER < 1400
 399:..\..\..\..\wpa_supplicant\src/utils/common.h **** /* snprintf - used in number of places; sprintf() is _not_ a good replacement
 400:..\..\..\..\wpa_supplicant\src/utils/common.h ****  * due to possible buffer overflow; see, e.g.,
 401:..\..\..\..\wpa_supplicant\src/utils/common.h ****  * http://www.ijs.si/software/snprintf/ for portable implementation of
 402:..\..\..\..\wpa_supplicant\src/utils/common.h ****  * snprintf. */
 403:..\..\..\..\wpa_supplicant\src/utils/common.h **** int snprintf(char *str, size_t size, const char *format, ...);
 404:..\..\..\..\wpa_supplicant\src/utils/common.h **** 
 405:..\..\..\..\wpa_supplicant\src/utils/common.h **** /* vsnprintf - only used for wpa_msg() in wpa_supplicant.c */
 406:..\..\..\..\wpa_supplicant\src/utils/common.h **** int vsnprintf(char *str, size_t size, const char *format, va_list ap);
 407:..\..\..\..\wpa_supplicant\src/utils/common.h **** #endif /* !defined(_MSC_VER) || _MSC_VER < 1400 */
 408:..\..\..\..\wpa_supplicant\src/utils/common.h **** 
 409:..\..\..\..\wpa_supplicant\src/utils/common.h **** /* getopt - only used in main.c */
 410:..\..\..\..\wpa_supplicant\src/utils/common.h **** int getopt(int argc, char *const argv[], const char *optstring);
 411:..\..\..\..\wpa_supplicant\src/utils/common.h **** extern char *optarg;
 412:..\..\..\..\wpa_supplicant\src/utils/common.h **** extern int optind;
 413:..\..\..\..\wpa_supplicant\src/utils/common.h **** 
 414:..\..\..\..\wpa_supplicant\src/utils/common.h **** #ifndef CONFIG_NO_SOCKLEN_T_TYPEDEF
 415:..\..\..\..\wpa_supplicant\src/utils/common.h **** #ifndef __socklen_t_defined
 416:..\..\..\..\wpa_supplicant\src/utils/common.h **** typedef int socklen_t;
 417:..\..\..\..\wpa_supplicant\src/utils/common.h **** #endif
 418:..\..\..\..\wpa_supplicant\src/utils/common.h **** #endif
 419:..\..\..\..\wpa_supplicant\src/utils/common.h **** 
 420:..\..\..\..\wpa_supplicant\src/utils/common.h **** /* inline - define as __inline or just define it to be empty, if needed */
 421:..\..\..\..\wpa_supplicant\src/utils/common.h **** #ifdef CONFIG_NO_INLINE
 422:..\..\..\..\wpa_supplicant\src/utils/common.h **** #define inline
 423:..\..\..\..\wpa_supplicant\src/utils/common.h **** #else
 424:..\..\..\..\wpa_supplicant\src/utils/common.h **** #define inline __inline
 425:..\..\..\..\wpa_supplicant\src/utils/common.h **** #endif
 426:..\..\..\..\wpa_supplicant\src/utils/common.h **** 
 427:..\..\..\..\wpa_supplicant\src/utils/common.h **** #ifndef __func__
 428:..\..\..\..\wpa_supplicant\src/utils/common.h **** #define __func__ "__func__ not defined"
 429:..\..\..\..\wpa_supplicant\src/utils/common.h **** #endif
 430:..\..\..\..\wpa_supplicant\src/utils/common.h **** 
 431:..\..\..\..\wpa_supplicant\src/utils/common.h **** #ifndef bswap_16
 432:..\..\..\..\wpa_supplicant\src/utils/common.h **** #define bswap_16(a) ((((u16) (a) << 8) & 0xff00) | (((u16) (a) >> 8) & 0xff))
 433:..\..\..\..\wpa_supplicant\src/utils/common.h **** #endif
 434:..\..\..\..\wpa_supplicant\src/utils/common.h **** 
 435:..\..\..\..\wpa_supplicant\src/utils/common.h **** #ifndef bswap_32
 436:..\..\..\..\wpa_supplicant\src/utils/common.h **** #define bswap_32(a) ((((u32) (a) << 24) & 0xff000000) | \
 437:..\..\..\..\wpa_supplicant\src/utils/common.h **** 		     (((u32) (a) << 8) & 0xff0000) | \
 438:..\..\..\..\wpa_supplicant\src/utils/common.h ****      		     (((u32) (a) >> 8) & 0xff00) | \
 439:..\..\..\..\wpa_supplicant\src/utils/common.h ****      		     (((u32) (a) >> 24) & 0xff))
 440:..\..\..\..\wpa_supplicant\src/utils/common.h **** #endif
 441:..\..\..\..\wpa_supplicant\src/utils/common.h **** 
 442:..\..\..\..\wpa_supplicant\src/utils/common.h **** #ifndef MSG_DONTWAIT
 443:..\..\..\..\wpa_supplicant\src/utils/common.h **** #define MSG_DONTWAIT 0
 444:..\..\..\..\wpa_supplicant\src/utils/common.h **** #endif
 445:..\..\..\..\wpa_supplicant\src/utils/common.h **** 
 446:..\..\..\..\wpa_supplicant\src/utils/common.h **** #ifdef _WIN32_WCE
 447:..\..\..\..\wpa_supplicant\src/utils/common.h **** void perror(const char *s);
 448:..\..\..\..\wpa_supplicant\src/utils/common.h **** #endif /* _WIN32_WCE */
 449:..\..\..\..\wpa_supplicant\src/utils/common.h **** 
 450:..\..\..\..\wpa_supplicant\src/utils/common.h **** #endif /* CONFIG_ANSI_C_EXTRA */
 451:..\..\..\..\wpa_supplicant\src/utils/common.h **** 
 452:..\..\..\..\wpa_supplicant\src/utils/common.h **** #ifndef MAC2STR
 453:..\..\..\..\wpa_supplicant\src/utils/common.h **** #define MAC2STR(a) (a)[0], (a)[1], (a)[2], (a)[3], (a)[4], (a)[5]
 454:..\..\..\..\wpa_supplicant\src/utils/common.h **** #define MACSTR "%02x:%02x:%02x:%02x:%02x:%02x"
 455:..\..\..\..\wpa_supplicant\src/utils/common.h **** 
 456:..\..\..\..\wpa_supplicant\src/utils/common.h **** /*
 457:..\..\..\..\wpa_supplicant\src/utils/common.h ****  * Compact form for string representation of MAC address
 458:..\..\..\..\wpa_supplicant\src/utils/common.h ****  * To be used, e.g., for constructing dbus paths for P2P Devices
 459:..\..\..\..\wpa_supplicant\src/utils/common.h ****  */
 460:..\..\..\..\wpa_supplicant\src/utils/common.h **** #define COMPACT_MACSTR "%02x%02x%02x%02x%02x%02x"
 461:..\..\..\..\wpa_supplicant\src/utils/common.h **** #endif
 462:..\..\..\..\wpa_supplicant\src/utils/common.h **** 
 463:..\..\..\..\wpa_supplicant\src/utils/common.h **** #ifndef BIT
 464:..\..\..\..\wpa_supplicant\src/utils/common.h **** #define BIT(x) (1U << (x))
 465:..\..\..\..\wpa_supplicant\src/utils/common.h **** #endif
 466:..\..\..\..\wpa_supplicant\src/utils/common.h **** 
 467:..\..\..\..\wpa_supplicant\src/utils/common.h **** /*
 468:..\..\..\..\wpa_supplicant\src/utils/common.h ****  * Definitions for sparse validation
 469:..\..\..\..\wpa_supplicant\src/utils/common.h ****  * (http://kernel.org/pub/linux/kernel/people/josh/sparse/)
 470:..\..\..\..\wpa_supplicant\src/utils/common.h ****  */
 471:..\..\..\..\wpa_supplicant\src/utils/common.h **** #ifdef __CHECKER__
 472:..\..\..\..\wpa_supplicant\src/utils/common.h **** #define __force __attribute__((force))
 473:..\..\..\..\wpa_supplicant\src/utils/common.h **** #undef __bitwise
 474:..\..\..\..\wpa_supplicant\src/utils/common.h **** #define __bitwise __attribute__((bitwise))
 475:..\..\..\..\wpa_supplicant\src/utils/common.h **** #else
 476:..\..\..\..\wpa_supplicant\src/utils/common.h **** #define __force
 477:..\..\..\..\wpa_supplicant\src/utils/common.h **** #undef __bitwise
 478:..\..\..\..\wpa_supplicant\src/utils/common.h **** #define __bitwise
 479:..\..\..\..\wpa_supplicant\src/utils/common.h **** #endif
 480:..\..\..\..\wpa_supplicant\src/utils/common.h **** 
 481:..\..\..\..\wpa_supplicant\src/utils/common.h **** typedef u16 __bitwise be16;
 482:..\..\..\..\wpa_supplicant\src/utils/common.h **** typedef u16 __bitwise le16;
 483:..\..\..\..\wpa_supplicant\src/utils/common.h **** typedef u32 __bitwise be32;
 484:..\..\..\..\wpa_supplicant\src/utils/common.h **** typedef u32 __bitwise le32;
 485:..\..\..\..\wpa_supplicant\src/utils/common.h **** typedef u64 __bitwise be64;
 486:..\..\..\..\wpa_supplicant\src/utils/common.h **** typedef u64 __bitwise le64;
 487:..\..\..\..\wpa_supplicant\src/utils/common.h **** 
 488:..\..\..\..\wpa_supplicant\src/utils/common.h **** #ifndef __must_check
 489:..\..\..\..\wpa_supplicant\src/utils/common.h **** #if __GNUC__ > 3 || (__GNUC__ == 3 && __GNUC_MINOR__ >= 4)
 490:..\..\..\..\wpa_supplicant\src/utils/common.h **** #define __must_check __attribute__((__warn_unused_result__))
 491:..\..\..\..\wpa_supplicant\src/utils/common.h **** #else
 492:..\..\..\..\wpa_supplicant\src/utils/common.h **** #define __must_check
 493:..\..\..\..\wpa_supplicant\src/utils/common.h **** #endif /* __GNUC__ */
 494:..\..\..\..\wpa_supplicant\src/utils/common.h **** #endif /* __must_check */
 495:..\..\..\..\wpa_supplicant\src/utils/common.h **** 
 496:..\..\..\..\wpa_supplicant\src/utils/common.h **** #ifndef __maybe_unused
 497:..\..\..\..\wpa_supplicant\src/utils/common.h **** #if __GNUC__ > 3 || (__GNUC__ == 3 && __GNUC_MINOR__ >= 4)
 498:..\..\..\..\wpa_supplicant\src/utils/common.h **** #define __maybe_unused __attribute__((unused))
 499:..\..\..\..\wpa_supplicant\src/utils/common.h **** #else
 500:..\..\..\..\wpa_supplicant\src/utils/common.h **** #define __maybe_unused
 501:..\..\..\..\wpa_supplicant\src/utils/common.h **** #endif /* __GNUC__ */
 502:..\..\..\..\wpa_supplicant\src/utils/common.h **** #endif /* __must_check */
 503:..\..\..\..\wpa_supplicant\src/utils/common.h **** 
 504:..\..\..\..\wpa_supplicant\src/utils/common.h **** #define SSID_MAX_LEN 32
 505:..\..\..\..\wpa_supplicant\src/utils/common.h **** 
 506:..\..\..\..\wpa_supplicant\src/utils/common.h **** struct wpa_ssid_value {
 507:..\..\..\..\wpa_supplicant\src/utils/common.h **** 	u8 ssid[SSID_MAX_LEN];
 508:..\..\..\..\wpa_supplicant\src/utils/common.h **** 	size_t ssid_len;
 509:..\..\..\..\wpa_supplicant\src/utils/common.h **** };
 510:..\..\..\..\wpa_supplicant\src/utils/common.h **** 
 511:..\..\..\..\wpa_supplicant\src/utils/common.h **** int hwaddr_aton(const char *txt, u8 *addr);
 512:..\..\..\..\wpa_supplicant\src/utils/common.h **** int hwaddr_masked_aton(const char *txt, u8 *addr, u8 *mask, u8 maskable);
 513:..\..\..\..\wpa_supplicant\src/utils/common.h **** int hwaddr_compact_aton(const char *txt, u8 *addr);
 514:..\..\..\..\wpa_supplicant\src/utils/common.h **** int hwaddr_aton2(const char *txt, u8 *addr);
 515:..\..\..\..\wpa_supplicant\src/utils/common.h **** int hex2byte(const char *hex);
 516:..\..\..\..\wpa_supplicant\src/utils/common.h **** int hexstr2bin(const char *hex, u8 *buf, size_t len);
 517:..\..\..\..\wpa_supplicant\src/utils/common.h **** void inc_byte_array(u8 *counter, size_t len);
 518:..\..\..\..\wpa_supplicant\src/utils/common.h **** void buf_shift_right(u8 *buf, size_t len, size_t bits);
 519:..\..\..\..\wpa_supplicant\src/utils/common.h **** void wpa_get_ntp_timestamp(u8 *buf);
 520:..\..\..\..\wpa_supplicant\src/utils/common.h **** int wpa_scnprintf(char *buf, size_t size, const char *fmt, ...)
 521:..\..\..\..\wpa_supplicant\src/utils/common.h **** 	PRINTF_FORMAT(3, 4);
 522:..\..\..\..\wpa_supplicant\src/utils/common.h **** int wpa_snprintf_hex_sep(char *buf, size_t buf_size, const u8 *data, size_t len,
 523:..\..\..\..\wpa_supplicant\src/utils/common.h **** 			 char sep);
 524:..\..\..\..\wpa_supplicant\src/utils/common.h **** int wpa_snprintf_hex(char *buf, size_t buf_size, const u8 *data, size_t len);
 525:..\..\..\..\wpa_supplicant\src/utils/common.h **** int wpa_snprintf_hex_uppercase(char *buf, size_t buf_size, const u8 *data,
 526:..\..\..\..\wpa_supplicant\src/utils/common.h **** 			       size_t len);
 527:..\..\..\..\wpa_supplicant\src/utils/common.h **** 
 528:..\..\..\..\wpa_supplicant\src/utils/common.h **** int hwaddr_mask_txt(char *buf, size_t len, const u8 *addr, const u8 *mask);
 529:..\..\..\..\wpa_supplicant\src/utils/common.h **** int ssid_parse(const char *buf, struct wpa_ssid_value *ssid);
 530:..\..\..\..\wpa_supplicant\src/utils/common.h **** 
 531:..\..\..\..\wpa_supplicant\src/utils/common.h **** #ifdef CONFIG_NATIVE_WINDOWS
 532:..\..\..\..\wpa_supplicant\src/utils/common.h **** void wpa_unicode2ascii_inplace(TCHAR *str);
 533:..\..\..\..\wpa_supplicant\src/utils/common.h **** TCHAR * wpa_strdup_tchar(const char *str);
 534:..\..\..\..\wpa_supplicant\src/utils/common.h **** #else /* CONFIG_NATIVE_WINDOWS */
 535:..\..\..\..\wpa_supplicant\src/utils/common.h **** #define wpa_unicode2ascii_inplace(s) do { } while (0)
 536:..\..\..\..\wpa_supplicant\src/utils/common.h **** #define wpa_strdup_tchar(s) strdup((s))
 537:..\..\..\..\wpa_supplicant\src/utils/common.h **** #endif /* CONFIG_NATIVE_WINDOWS */
 538:..\..\..\..\wpa_supplicant\src/utils/common.h **** 
 539:..\..\..\..\wpa_supplicant\src/utils/common.h **** void printf_encode(char *txt, size_t maxlen, const u8 *data, size_t len);
 540:..\..\..\..\wpa_supplicant\src/utils/common.h **** size_t printf_decode(u8 *buf, size_t maxlen, const char *str);
 541:..\..\..\..\wpa_supplicant\src/utils/common.h **** 
 542:..\..\..\..\wpa_supplicant\src/utils/common.h **** const char * wpa_ssid_txt(const u8 *ssid, size_t ssid_len);
 543:..\..\..\..\wpa_supplicant\src/utils/common.h **** 
 544:..\..\..\..\wpa_supplicant\src/utils/common.h **** char * wpa_config_parse_string(const char *value, size_t *len);
 545:..\..\..\..\wpa_supplicant\src/utils/common.h **** int is_hex(const u8 *data, size_t len);
 546:..\..\..\..\wpa_supplicant\src/utils/common.h **** int has_ctrl_char(const u8 *data, size_t len);
 547:..\..\..\..\wpa_supplicant\src/utils/common.h **** int has_newline(const char *str);
 548:..\..\..\..\wpa_supplicant\src/utils/common.h **** size_t merge_byte_arrays(u8 *res, size_t res_len,
 549:..\..\..\..\wpa_supplicant\src/utils/common.h **** 			 const u8 *src1, size_t src1_len,
 550:..\..\..\..\wpa_supplicant\src/utils/common.h **** 			 const u8 *src2, size_t src2_len);
 551:..\..\..\..\wpa_supplicant\src/utils/common.h **** char * dup_binstr(const void *src, size_t len);
 552:..\..\..\..\wpa_supplicant\src/utils/common.h **** 
 553:..\..\..\..\wpa_supplicant\src/utils/common.h **** static inline int is_zero_ether_addr(const u8 *a)
 554:..\..\..\..\wpa_supplicant\src/utils/common.h **** {
 555:..\..\..\..\wpa_supplicant\src/utils/common.h **** 	return !(a[0] | a[1] | a[2] | a[3] | a[4] | a[5]);
 556:..\..\..\..\wpa_supplicant\src/utils/common.h **** }
 557:..\..\..\..\wpa_supplicant\src/utils/common.h **** 
 558:..\..\..\..\wpa_supplicant\src/utils/common.h **** static inline int is_broadcast_ether_addr(const u8 *a)
 559:..\..\..\..\wpa_supplicant\src/utils/common.h **** {
 560:..\..\..\..\wpa_supplicant\src/utils/common.h **** 	return (a[0] & a[1] & a[2] & a[3] & a[4] & a[5]) == 0xff;
 561:..\..\..\..\wpa_supplicant\src/utils/common.h **** }
 562:..\..\..\..\wpa_supplicant\src/utils/common.h **** 
 563:..\..\..\..\wpa_supplicant\src/utils/common.h **** static inline int is_multicast_ether_addr(const u8 *a)
 564:..\..\..\..\wpa_supplicant\src/utils/common.h **** {
 565:..\..\..\..\wpa_supplicant\src/utils/common.h **** 	return a[0] & 0x01;
 425              		.loc 3 565 10 is_stmt 0
 426 002a 03C64500 		lbu	a2,4(a1)
 427              	.LVL44:
 428 002e 2E84     		mv	s0,a1
 429              	.LBE45:
 430              	.LBE44:
 245:C:/Users/stapi/OneDrive/Desktop/GD32VW553/V1_MQTT_OK/GD32VW55X_Wifi_BLE_SDK/GD32VW55x_RELEASE_V1.0.2/MSDK/wpa_supplicant/src/ap\ieee802_11_shared.c **** 		wpa_printf(MSG_DEBUG,
 431              		.loc 1 245 2 is_stmt 1
 432              	.LVL45:
 433              	.LBB47:
 434              	.LBB46:
 435              		.loc 3 565 2
 436              	.LBE46:
 437              	.LBE47:
 245:C:/Users/stapi/OneDrive/Desktop/GD32VW553/V1_MQTT_OK/GD32VW55X_Wifi_BLE_SDK/GD32VW55x_RELEASE_V1.0.2/MSDK/wpa_supplicant/src/ap\ieee802_11_shared.c **** 		wpa_printf(MSG_DEBUG,
 438              		.loc 1 245 5 is_stmt 0
 439 0030 93771600 		andi	a5,a2,1
 440 0034 B9CB     		beq	a5,zero,.L16
 441              	.LVL46:
 246:C:/Users/stapi/OneDrive/Desktop/GD32VW553/V1_MQTT_OK/GD32VW55X_Wifi_BLE_SDK/GD32VW55x_RELEASE_V1.0.2/MSDK/wpa_supplicant/src/ap\ieee802_11_shared.c **** 			   "IEEE 802.11: Ignore group-addressed SA Query frame (A1=" MACSTR " A2=" MACSTR ")",
 442              		.loc 1 246 3 is_stmt 1
 443 0036 83C7F500 		lbu	a5,15(a1)
 444 003a 0945     		li	a0,2
 445              	.LVL47:
 446 003c 3ECA     		sw	a5,20(sp)
 447              	.LVL48:
 448 003e 83C7E500 		lbu	a5,14(a1)
 449 0042 3EC8     		sw	a5,16(sp)
 450 0044 83C7D500 		lbu	a5,13(a1)
 451 0048 3EC6     		sw	a5,12(sp)
 452 004a 83C7C500 		lbu	a5,12(a1)
 453 004e 3EC4     		sw	a5,8(sp)
 454 0050 83C7B500 		lbu	a5,11(a1)
 455 0054 3EC2     		sw	a5,4(sp)
 456 0056 83C7A500 		lbu	a5,10(a1)
 457 005a 3EC0     		sw	a5,0(sp)
 458 005c 83C89500 		lbu	a7,9(a1)
 459 0060 03C88500 		lbu	a6,8(a1)
 460 0064 83C77500 		lbu	a5,7(a1)
 461 0068 03C76500 		lbu	a4,6(a1)
 462 006c 83C65500 		lbu	a3,5(a1)
 463 0070 B7050000 		lui	a1,%hi(.LC5)
 464 0074 93850500 		addi	a1,a1,%lo(.LC5)
 465 0078 97000000 		call	wpa_printf
 465      E7800000 
 466              	.LVL49:
 249:C:/Users/stapi/OneDrive/Desktop/GD32VW553/V1_MQTT_OK/GD32VW55X_Wifi_BLE_SDK/GD32VW55x_RELEASE_V1.0.2/MSDK/wpa_supplicant/src/ap\ieee802_11_shared.c **** 	}
 467              		.loc 1 249 3
 468              	.L13:
 308:C:/Users/stapi/OneDrive/Desktop/GD32VW553/V1_MQTT_OK/GD32VW55X_Wifi_BLE_SDK/GD32VW55x_RELEASE_V1.0.2/MSDK/wpa_supplicant/src/ap\ieee802_11_shared.c **** 	}
 309:C:/Users/stapi/OneDrive/Desktop/GD32VW553/V1_MQTT_OK/GD32VW55X_Wifi_BLE_SDK/GD32VW55x_RELEASE_V1.0.2/MSDK/wpa_supplicant/src/ap\ieee802_11_shared.c **** 
 310:C:/Users/stapi/OneDrive/Desktop/GD32VW553/V1_MQTT_OK/GD32VW55X_Wifi_BLE_SDK/GD32VW55x_RELEASE_V1.0.2/MSDK/wpa_supplicant/src/ap\ieee802_11_shared.c **** 	wpa_printf(MSG_DEBUG, "IEEE 802.11: Received SA Query Response from "
 311:C:/Users/stapi/OneDrive/Desktop/GD32VW553/V1_MQTT_OK/GD32VW55X_Wifi_BLE_SDK/GD32VW55x_RELEASE_V1.0.2/MSDK/wpa_supplicant/src/ap\ieee802_11_shared.c **** 		   MACSTR, MAC2STR(sa));
 312:C:/Users/stapi/OneDrive/Desktop/GD32VW553/V1_MQTT_OK/GD32VW55X_Wifi_BLE_SDK/GD32VW55x_RELEASE_V1.0.2/MSDK/wpa_supplicant/src/ap\ieee802_11_shared.c **** 	wpa_hexdump(MSG_DEBUG, "IEEE 802.11: SA Query Transaction ID",
 313:C:/Users/stapi/OneDrive/Desktop/GD32VW553/V1_MQTT_OK/GD32VW55X_Wifi_BLE_SDK/GD32VW55x_RELEASE_V1.0.2/MSDK/wpa_supplicant/src/ap\ieee802_11_shared.c **** 		    trans_id, WLAN_SA_QUERY_TR_ID_LEN);
 314:C:/Users/stapi/OneDrive/Desktop/GD32VW553/V1_MQTT_OK/GD32VW55X_Wifi_BLE_SDK/GD32VW55x_RELEASE_V1.0.2/MSDK/wpa_supplicant/src/ap\ieee802_11_shared.c **** 
 315:C:/Users/stapi/OneDrive/Desktop/GD32VW553/V1_MQTT_OK/GD32VW55X_Wifi_BLE_SDK/GD32VW55x_RELEASE_V1.0.2/MSDK/wpa_supplicant/src/ap\ieee802_11_shared.c **** 	/* MLME-SAQuery.confirm */
 316:C:/Users/stapi/OneDrive/Desktop/GD32VW553/V1_MQTT_OK/GD32VW55X_Wifi_BLE_SDK/GD32VW55x_RELEASE_V1.0.2/MSDK/wpa_supplicant/src/ap\ieee802_11_shared.c **** 
 317:C:/Users/stapi/OneDrive/Desktop/GD32VW553/V1_MQTT_OK/GD32VW55X_Wifi_BLE_SDK/GD32VW55x_RELEASE_V1.0.2/MSDK/wpa_supplicant/src/ap\ieee802_11_shared.c **** 	if (sta == NULL || sta->sa_query_trans_id == NULL) {
 318:C:/Users/stapi/OneDrive/Desktop/GD32VW553/V1_MQTT_OK/GD32VW55X_Wifi_BLE_SDK/GD32VW55x_RELEASE_V1.0.2/MSDK/wpa_supplicant/src/ap\ieee802_11_shared.c **** 		wpa_printf(MSG_DEBUG, "IEEE 802.11: No matching STA with "
 319:C:/Users/stapi/OneDrive/Desktop/GD32VW553/V1_MQTT_OK/GD32VW55X_Wifi_BLE_SDK/GD32VW55x_RELEASE_V1.0.2/MSDK/wpa_supplicant/src/ap\ieee802_11_shared.c **** 			   "pending SA Query request found");
 320:C:/Users/stapi/OneDrive/Desktop/GD32VW553/V1_MQTT_OK/GD32VW55X_Wifi_BLE_SDK/GD32VW55x_RELEASE_V1.0.2/MSDK/wpa_supplicant/src/ap\ieee802_11_shared.c **** 		return;
 321:C:/Users/stapi/OneDrive/Desktop/GD32VW553/V1_MQTT_OK/GD32VW55X_Wifi_BLE_SDK/GD32VW55x_RELEASE_V1.0.2/MSDK/wpa_supplicant/src/ap\ieee802_11_shared.c **** 	}
 322:C:/Users/stapi/OneDrive/Desktop/GD32VW553/V1_MQTT_OK/GD32VW55X_Wifi_BLE_SDK/GD32VW55x_RELEASE_V1.0.2/MSDK/wpa_supplicant/src/ap\ieee802_11_shared.c **** 
 323:C:/Users/stapi/OneDrive/Desktop/GD32VW553/V1_MQTT_OK/GD32VW55X_Wifi_BLE_SDK/GD32VW55x_RELEASE_V1.0.2/MSDK/wpa_supplicant/src/ap\ieee802_11_shared.c **** 	for (i = 0; i < sta->sa_query_count; i++) {
 324:C:/Users/stapi/OneDrive/Desktop/GD32VW553/V1_MQTT_OK/GD32VW55X_Wifi_BLE_SDK/GD32VW55x_RELEASE_V1.0.2/MSDK/wpa_supplicant/src/ap\ieee802_11_shared.c **** 		if (os_memcmp(sta->sa_query_trans_id +
 325:C:/Users/stapi/OneDrive/Desktop/GD32VW553/V1_MQTT_OK/GD32VW55X_Wifi_BLE_SDK/GD32VW55x_RELEASE_V1.0.2/MSDK/wpa_supplicant/src/ap\ieee802_11_shared.c **** 			      i * WLAN_SA_QUERY_TR_ID_LEN,
 326:C:/Users/stapi/OneDrive/Desktop/GD32VW553/V1_MQTT_OK/GD32VW55X_Wifi_BLE_SDK/GD32VW55x_RELEASE_V1.0.2/MSDK/wpa_supplicant/src/ap\ieee802_11_shared.c **** 			      trans_id, WLAN_SA_QUERY_TR_ID_LEN) == 0)
 327:C:/Users/stapi/OneDrive/Desktop/GD32VW553/V1_MQTT_OK/GD32VW55X_Wifi_BLE_SDK/GD32VW55x_RELEASE_V1.0.2/MSDK/wpa_supplicant/src/ap\ieee802_11_shared.c **** 			break;
 328:C:/Users/stapi/OneDrive/Desktop/GD32VW553/V1_MQTT_OK/GD32VW55X_Wifi_BLE_SDK/GD32VW55x_RELEASE_V1.0.2/MSDK/wpa_supplicant/src/ap\ieee802_11_shared.c **** 	}
 329:C:/Users/stapi/OneDrive/Desktop/GD32VW553/V1_MQTT_OK/GD32VW55X_Wifi_BLE_SDK/GD32VW55x_RELEASE_V1.0.2/MSDK/wpa_supplicant/src/ap\ieee802_11_shared.c **** 
 330:C:/Users/stapi/OneDrive/Desktop/GD32VW553/V1_MQTT_OK/GD32VW55X_Wifi_BLE_SDK/GD32VW55x_RELEASE_V1.0.2/MSDK/wpa_supplicant/src/ap\ieee802_11_shared.c **** 	if (i >= sta->sa_query_count) {
 331:C:/Users/stapi/OneDrive/Desktop/GD32VW553/V1_MQTT_OK/GD32VW55X_Wifi_BLE_SDK/GD32VW55x_RELEASE_V1.0.2/MSDK/wpa_supplicant/src/ap\ieee802_11_shared.c **** 		wpa_printf(MSG_DEBUG, "IEEE 802.11: No matching SA Query "
 332:C:/Users/stapi/OneDrive/Desktop/GD32VW553/V1_MQTT_OK/GD32VW55X_Wifi_BLE_SDK/GD32VW55x_RELEASE_V1.0.2/MSDK/wpa_supplicant/src/ap\ieee802_11_shared.c **** 			   "transaction identifier found");
 333:C:/Users/stapi/OneDrive/Desktop/GD32VW553/V1_MQTT_OK/GD32VW55X_Wifi_BLE_SDK/GD32VW55x_RELEASE_V1.0.2/MSDK/wpa_supplicant/src/ap\ieee802_11_shared.c **** 		return;
 334:C:/Users/stapi/OneDrive/Desktop/GD32VW553/V1_MQTT_OK/GD32VW55X_Wifi_BLE_SDK/GD32VW55x_RELEASE_V1.0.2/MSDK/wpa_supplicant/src/ap\ieee802_11_shared.c **** 	}
 335:C:/Users/stapi/OneDrive/Desktop/GD32VW553/V1_MQTT_OK/GD32VW55X_Wifi_BLE_SDK/GD32VW55x_RELEASE_V1.0.2/MSDK/wpa_supplicant/src/ap\ieee802_11_shared.c **** 
 336:C:/Users/stapi/OneDrive/Desktop/GD32VW553/V1_MQTT_OK/GD32VW55X_Wifi_BLE_SDK/GD32VW55x_RELEASE_V1.0.2/MSDK/wpa_supplicant/src/ap\ieee802_11_shared.c **** 	hostapd_logger(hapd, sta->addr, HOSTAPD_MODULE_IEEE80211,
 337:C:/Users/stapi/OneDrive/Desktop/GD32VW553/V1_MQTT_OK/GD32VW55X_Wifi_BLE_SDK/GD32VW55x_RELEASE_V1.0.2/MSDK/wpa_supplicant/src/ap\ieee802_11_shared.c **** 		       HOSTAPD_LEVEL_DEBUG,
 338:C:/Users/stapi/OneDrive/Desktop/GD32VW553/V1_MQTT_OK/GD32VW55X_Wifi_BLE_SDK/GD32VW55x_RELEASE_V1.0.2/MSDK/wpa_supplicant/src/ap\ieee802_11_shared.c **** 		       "Reply to pending SA Query received");
 339:C:/Users/stapi/OneDrive/Desktop/GD32VW553/V1_MQTT_OK/GD32VW55X_Wifi_BLE_SDK/GD32VW55x_RELEASE_V1.0.2/MSDK/wpa_supplicant/src/ap\ieee802_11_shared.c **** 	ap_sta_stop_sa_query(hapd, sta);
 340:C:/Users/stapi/OneDrive/Desktop/GD32VW553/V1_MQTT_OK/GD32VW55X_Wifi_BLE_SDK/GD32VW55x_RELEASE_V1.0.2/MSDK/wpa_supplicant/src/ap\ieee802_11_shared.c **** }
 469              		.loc 1 340 1 is_stmt 0
 470 0080 4561     		addi	sp,sp,48
 471              		.cfi_remember_state
 472              		.cfi_def_cfa_offset 0
 473 0082 17030000 		tail	__riscv_restore_5
 473      67000300 
 474              		.cfi_restore 20
 475              		.cfi_restore 19
 476              		.cfi_restore 18
 477              		.cfi_restore 9
 478              		.cfi_restore 8
 479              		.cfi_restore 1
 480              		.cfi_def_cfa_offset -32
 481              	.LVL50:
 482              	.L16:
 483              		.cfi_restore_state
 235:C:/Users/stapi/OneDrive/Desktop/GD32VW553/V1_MQTT_OK/GD32VW55X_Wifi_BLE_SDK/GD32VW55x_RELEASE_V1.0.2/MSDK/wpa_supplicant/src/ap\ieee802_11_shared.c **** 	const u8 *trans_id = mgmt->u.action.u.sa_query_resp.trans_id;
 484              		.loc 1 235 11
 485 008a 03C69501 		lbu	a2,25(a1)
 234:C:/Users/stapi/OneDrive/Desktop/GD32VW553/V1_MQTT_OK/GD32VW55X_Wifi_BLE_SDK/GD32VW55x_RELEASE_V1.0.2/MSDK/wpa_supplicant/src/ap\ieee802_11_shared.c **** 	const u8 action_type = mgmt->u.action.u.sa_query_resp.action;
 486              		.loc 1 234 12
 487 008e 138AA500 		addi	s4,a1,10
 236:C:/Users/stapi/OneDrive/Desktop/GD32VW553/V1_MQTT_OK/GD32VW55X_Wifi_BLE_SDK/GD32VW55x_RELEASE_V1.0.2/MSDK/wpa_supplicant/src/ap\ieee802_11_shared.c **** 
 488              		.loc 1 236 12
 489 0092 9389A501 		addi	s3,a1,26
 252:C:/Users/stapi/OneDrive/Desktop/GD32VW553/V1_MQTT_OK/GD32VW55X_Wifi_BLE_SDK/GD32VW55x_RELEASE_V1.0.2/MSDK/wpa_supplicant/src/ap\ieee802_11_shared.c **** 
 490              		.loc 1 252 2 is_stmt 1
 252:C:/Users/stapi/OneDrive/Desktop/GD32VW553/V1_MQTT_OK/GD32VW55X_Wifi_BLE_SDK/GD32VW55x_RELEASE_V1.0.2/MSDK/wpa_supplicant/src/ap\ieee802_11_shared.c **** 
 491              		.loc 1 252 8 is_stmt 0
 492 0096 D285     		mv	a1,s4
 235:C:/Users/stapi/OneDrive/Desktop/GD32VW553/V1_MQTT_OK/GD32VW55X_Wifi_BLE_SDK/GD32VW55x_RELEASE_V1.0.2/MSDK/wpa_supplicant/src/ap\ieee802_11_shared.c **** 	const u8 *trans_id = mgmt->u.action.u.sa_query_resp.trans_id;
 493              		.loc 1 235 11
 494 0098 32D6     		sw	a2,44(sp)
 495 009a 2A89     		mv	s2,a0
 252:C:/Users/stapi/OneDrive/Desktop/GD32VW553/V1_MQTT_OK/GD32VW55X_Wifi_BLE_SDK/GD32VW55x_RELEASE_V1.0.2/MSDK/wpa_supplicant/src/ap\ieee802_11_shared.c **** 
 496              		.loc 1 252 8
 497 009c 97000000 		call	ap_get_sta
 497      E7800000 
 498              	.LVL51:
 297:C:/Users/stapi/OneDrive/Desktop/GD32VW553/V1_MQTT_OK/GD32VW55X_Wifi_BLE_SDK/GD32VW55x_RELEASE_V1.0.2/MSDK/wpa_supplicant/src/ap\ieee802_11_shared.c **** 		if (sta)
 499              		.loc 1 297 5
 500 00a4 3256     		lw	a2,44(sp)
 252:C:/Users/stapi/OneDrive/Desktop/GD32VW553/V1_MQTT_OK/GD32VW55X_Wifi_BLE_SDK/GD32VW55x_RELEASE_V1.0.2/MSDK/wpa_supplicant/src/ap\ieee802_11_shared.c **** 
 501              		.loc 1 252 8
 502 00a6 AA84     		mv	s1,a0
 503              	.LVL52:
 297:C:/Users/stapi/OneDrive/Desktop/GD32VW553/V1_MQTT_OK/GD32VW55X_Wifi_BLE_SDK/GD32VW55x_RELEASE_V1.0.2/MSDK/wpa_supplicant/src/ap\ieee802_11_shared.c **** 		if (sta)
 504              		.loc 1 297 2 is_stmt 1
 297:C:/Users/stapi/OneDrive/Desktop/GD32VW553/V1_MQTT_OK/GD32VW55X_Wifi_BLE_SDK/GD32VW55x_RELEASE_V1.0.2/MSDK/wpa_supplicant/src/ap\ieee802_11_shared.c **** 		if (sta)
 505              		.loc 1 297 5 is_stmt 0
 506 00a8 631F0616 		bne	a2,zero,.L17
 298:C:/Users/stapi/OneDrive/Desktop/GD32VW553/V1_MQTT_OK/GD32VW55X_Wifi_BLE_SDK/GD32VW55x_RELEASE_V1.0.2/MSDK/wpa_supplicant/src/ap\ieee802_11_shared.c **** 			sta->post_csa_sa_query = 0;
 507              		.loc 1 298 3 is_stmt 1
 298:C:/Users/stapi/OneDrive/Desktop/GD32VW553/V1_MQTT_OK/GD32VW55X_Wifi_BLE_SDK/GD32VW55x_RELEASE_V1.0.2/MSDK/wpa_supplicant/src/ap\ieee802_11_shared.c **** 			sta->post_csa_sa_query = 0;
 508              		.loc 1 298 6 is_stmt 0
 509 00ac 19C5     		beq	a0,zero,.L18
 299:C:/Users/stapi/OneDrive/Desktop/GD32VW553/V1_MQTT_OK/GD32VW55X_Wifi_BLE_SDK/GD32VW55x_RELEASE_V1.0.2/MSDK/wpa_supplicant/src/ap\ieee802_11_shared.c **** 		ieee802_11_send_sa_query_resp(hapd, sa, trans_id);
 510              		.loc 1 299 4 is_stmt 1
 299:C:/Users/stapi/OneDrive/Desktop/GD32VW553/V1_MQTT_OK/GD32VW55X_Wifi_BLE_SDK/GD32VW55x_RELEASE_V1.0.2/MSDK/wpa_supplicant/src/ap\ieee802_11_shared.c **** 		ieee802_11_send_sa_query_resp(hapd, sa, trans_id);
 511              		.loc 1 299 27 is_stmt 0
 512 00ae 8347F504 		lbu	a5,79(a0)
 513 00b2 93F7F7FD 		andi	a5,a5,-33
 514 00b6 A307F504 		sb	a5,79(a0)
 515              	.L18:
 300:C:/Users/stapi/OneDrive/Desktop/GD32VW553/V1_MQTT_OK/GD32VW55X_Wifi_BLE_SDK/GD32VW55x_RELEASE_V1.0.2/MSDK/wpa_supplicant/src/ap\ieee802_11_shared.c **** 		return;
 516              		.loc 1 300 3 is_stmt 1
 517              	.LVL53:
 518              	.LBB48:
 519              	.LBB49:
 139:C:/Users/stapi/OneDrive/Desktop/GD32VW553/V1_MQTT_OK/GD32VW55X_Wifi_BLE_SDK/GD32VW55x_RELEASE_V1.0.2/MSDK/wpa_supplicant/src/ap\ieee802_11_shared.c **** 	struct ieee80211_mgmt *resp;
 520              		.loc 1 139 2
 140:C:/Users/stapi/OneDrive/Desktop/GD32VW553/V1_MQTT_OK/GD32VW55X_Wifi_BLE_SDK/GD32VW55x_RELEASE_V1.0.2/MSDK/wpa_supplicant/src/ap\ieee802_11_shared.c **** 	u8 *oci_ie = NULL;
 521              		.loc 1 140 2
 141:C:/Users/stapi/OneDrive/Desktop/GD32VW553/V1_MQTT_OK/GD32VW55X_Wifi_BLE_SDK/GD32VW55x_RELEASE_V1.0.2/MSDK/wpa_supplicant/src/ap\ieee802_11_shared.c **** 	u8 oci_ie_len = 0;
 522              		.loc 1 141 2
 142:C:/Users/stapi/OneDrive/Desktop/GD32VW553/V1_MQTT_OK/GD32VW55X_Wifi_BLE_SDK/GD32VW55x_RELEASE_V1.0.2/MSDK/wpa_supplicant/src/ap\ieee802_11_shared.c **** 	u8 *end;
 523              		.loc 1 142 2
 143:C:/Users/stapi/OneDrive/Desktop/GD32VW553/V1_MQTT_OK/GD32VW55X_Wifi_BLE_SDK/GD32VW55x_RELEASE_V1.0.2/MSDK/wpa_supplicant/src/ap\ieee802_11_shared.c **** 
 524              		.loc 1 143 2
 145:C:/Users/stapi/OneDrive/Desktop/GD32VW553/V1_MQTT_OK/GD32VW55X_Wifi_BLE_SDK/GD32VW55x_RELEASE_V1.0.2/MSDK/wpa_supplicant/src/ap\ieee802_11_shared.c **** 		   MACSTR, MAC2STR(sa));
 525              		.loc 1 145 2
 526 00ba 8348F400 		lbu	a7,15(s0)
 527 00be 0348E400 		lbu	a6,14(s0)
 528 00c2 8347D400 		lbu	a5,13(s0)
 529 00c6 0347C400 		lbu	a4,12(s0)
 530 00ca 8346B400 		lbu	a3,11(s0)
 531 00ce 0346A400 		lbu	a2,10(s0)
 532 00d2 B7050000 		lui	a1,%hi(.LC6)
 533 00d6 93850500 		addi	a1,a1,%lo(.LC6)
 534 00da 0945     		li	a0,2
 535 00dc 97000000 		call	wpa_printf
 535      E7800000 
 536              	.LVL54:
 147:C:/Users/stapi/OneDrive/Desktop/GD32VW553/V1_MQTT_OK/GD32VW55X_Wifi_BLE_SDK/GD32VW55x_RELEASE_V1.0.2/MSDK/wpa_supplicant/src/ap\ieee802_11_shared.c **** 		    trans_id, WLAN_SA_QUERY_TR_ID_LEN);
 537              		.loc 1 147 2
 538 00e4 B7050000 		lui	a1,%hi(.LC1)
 539 00e8 93850500 		addi	a1,a1,%lo(.LC1)
 540 00ec 0945     		li	a0,2
 541 00ee 8946     		li	a3,2
 542 00f0 4E86     		mv	a2,s3
 543 00f2 97000000 		call	wpa_hexdump
 543      E7800000 
 544              	.LVL55:
 150:C:/Users/stapi/OneDrive/Desktop/GD32VW553/V1_MQTT_OK/GD32VW55X_Wifi_BLE_SDK/GD32VW55x_RELEASE_V1.0.2/MSDK/wpa_supplicant/src/ap\ieee802_11_shared.c **** 	if (sta == NULL || !(sta->flags & WLAN_STA_ASSOC)) {
 545              		.loc 1 150 2
 150:C:/Users/stapi/OneDrive/Desktop/GD32VW553/V1_MQTT_OK/GD32VW55X_Wifi_BLE_SDK/GD32VW55x_RELEASE_V1.0.2/MSDK/wpa_supplicant/src/ap\ieee802_11_shared.c **** 	if (sta == NULL || !(sta->flags & WLAN_STA_ASSOC)) {
 546              		.loc 1 150 8 is_stmt 0
 547 00fa D285     		mv	a1,s4
 548 00fc 4A85     		mv	a0,s2
 549 00fe 97000000 		call	ap_get_sta
 549      E7800000 
 550              	.LVL56:
 151:C:/Users/stapi/OneDrive/Desktop/GD32VW553/V1_MQTT_OK/GD32VW55X_Wifi_BLE_SDK/GD32VW55x_RELEASE_V1.0.2/MSDK/wpa_supplicant/src/ap\ieee802_11_shared.c **** 		wpa_printf(MSG_DEBUG, "IEEE 802.11: Ignore SA Query Request "
 551              		.loc 1 151 2 is_stmt 1
 151:C:/Users/stapi/OneDrive/Desktop/GD32VW553/V1_MQTT_OK/GD32VW55X_Wifi_BLE_SDK/GD32VW55x_RELEASE_V1.0.2/MSDK/wpa_supplicant/src/ap\ieee802_11_shared.c **** 		wpa_printf(MSG_DEBUG, "IEEE 802.11: Ignore SA Query Request "
 552              		.loc 1 151 5 is_stmt 0
 553 0106 01C5     		beq	a0,zero,.L19
 151:C:/Users/stapi/OneDrive/Desktop/GD32VW553/V1_MQTT_OK/GD32VW55X_Wifi_BLE_SDK/GD32VW55x_RELEASE_V1.0.2/MSDK/wpa_supplicant/src/ap\ieee802_11_shared.c **** 		wpa_printf(MSG_DEBUG, "IEEE 802.11: Ignore SA Query Request "
 554              		.loc 1 151 34
 555 0108 1C51     		lw	a5,32(a0)
 556 010a 898B     		andi	a5,a5,2
 151:C:/Users/stapi/OneDrive/Desktop/GD32VW553/V1_MQTT_OK/GD32VW55X_Wifi_BLE_SDK/GD32VW55x_RELEASE_V1.0.2/MSDK/wpa_supplicant/src/ap\ieee802_11_shared.c **** 		wpa_printf(MSG_DEBUG, "IEEE 802.11: Ignore SA Query Request "
 557              		.loc 1 151 18
 558 010c 9DE7     		bne	a5,zero,.L20
 559              	.L19:
 152:C:/Users/stapi/OneDrive/Desktop/GD32VW553/V1_MQTT_OK/GD32VW55X_Wifi_BLE_SDK/GD32VW55x_RELEASE_V1.0.2/MSDK/wpa_supplicant/src/ap\ieee802_11_shared.c **** 			   "from unassociated STA " MACSTR, MAC2STR(sa));
 560              		.loc 1 152 3 is_stmt 1
 561 010e 8348F400 		lbu	a7,15(s0)
 562 0112 0348E400 		lbu	a6,14(s0)
 563 0116 8347D400 		lbu	a5,13(s0)
 564 011a 0347C400 		lbu	a4,12(s0)
 565 011e 8346B400 		lbu	a3,11(s0)
 566 0122 0346A400 		lbu	a2,10(s0)
 567 0126 B7050000 		lui	a1,%hi(.LC7)
 568 012a 93850500 		addi	a1,a1,%lo(.LC7)
 569 012e 0945     		li	a0,2
 570              	.LVL57:
 571 0130 97000000 		call	wpa_printf
 571      E7800000 
 572              	.LVL58:
 154:C:/Users/stapi/OneDrive/Desktop/GD32VW553/V1_MQTT_OK/GD32VW55X_Wifi_BLE_SDK/GD32VW55x_RELEASE_V1.0.2/MSDK/wpa_supplicant/src/ap\ieee802_11_shared.c **** 	}
 573              		.loc 1 154 3
 574 0138 A1B7     		j	.L13
 575              	.LVL59:
 576              	.L20:
 192:C:/Users/stapi/OneDrive/Desktop/GD32VW553/V1_MQTT_OK/GD32VW55X_Wifi_BLE_SDK/GD32VW55x_RELEASE_V1.0.2/MSDK/wpa_supplicant/src/ap\ieee802_11_shared.c **** 	if (!resp) {
 577              		.loc 1 192 2
 192:C:/Users/stapi/OneDrive/Desktop/GD32VW553/V1_MQTT_OK/GD32VW55X_Wifi_BLE_SDK/GD32VW55x_RELEASE_V1.0.2/MSDK/wpa_supplicant/src/ap\ieee802_11_shared.c **** 	if (!resp) {
 578              		.loc 1 192 9 is_stmt 0
 579 013a 13058002 		li	a0,40
 580              	.LVL60:
 581 013e 97000000 		call	os_zalloc
 581      E7800000 
 582              	.LVL61:
 583 0146 AA84     		mv	s1,a0
 584              	.LVL62:
 193:C:/Users/stapi/OneDrive/Desktop/GD32VW553/V1_MQTT_OK/GD32VW55X_Wifi_BLE_SDK/GD32VW55x_RELEASE_V1.0.2/MSDK/wpa_supplicant/src/ap\ieee802_11_shared.c **** 		wpa_printf(MSG_DEBUG,
 585              		.loc 1 193 2 is_stmt 1
 193:C:/Users/stapi/OneDrive/Desktop/GD32VW553/V1_MQTT_OK/GD32VW55X_Wifi_BLE_SDK/GD32VW55x_RELEASE_V1.0.2/MSDK/wpa_supplicant/src/ap\ieee802_11_shared.c **** 		wpa_printf(MSG_DEBUG,
 586              		.loc 1 193 5 is_stmt 0
 587 0148 05E1     		bne	a0,zero,.L21
 194:C:/Users/stapi/OneDrive/Desktop/GD32VW553/V1_MQTT_OK/GD32VW55X_Wifi_BLE_SDK/GD32VW55x_RELEASE_V1.0.2/MSDK/wpa_supplicant/src/ap\ieee802_11_shared.c **** 			   "Failed to allocate buffer for SA Query Response frame");
 588              		.loc 1 194 3 is_stmt 1
 589 014a B7050000 		lui	a1,%hi(.LC2)
 590 014e 93850500 		addi	a1,a1,%lo(.LC2)
 591 0152 0945     		li	a0,2
 592 0154 97000000 		call	wpa_printf
 592      E7800000 
 593              	.LVL63:
 196:C:/Users/stapi/OneDrive/Desktop/GD32VW553/V1_MQTT_OK/GD32VW55X_Wifi_BLE_SDK/GD32VW55x_RELEASE_V1.0.2/MSDK/wpa_supplicant/src/ap\ieee802_11_shared.c **** 		return;
 594              		.loc 1 196 3
 595              	.L43:
 224:C:/Users/stapi/OneDrive/Desktop/GD32VW553/V1_MQTT_OK/GD32VW55X_Wifi_BLE_SDK/GD32VW55x_RELEASE_V1.0.2/MSDK/wpa_supplicant/src/ap\ieee802_11_shared.c **** }
 596              		.loc 1 224 2
 597 015c 0145     		li	a0,0
 598 015e 97000000 		call	os_free
 598      E7800000 
 599              	.LVL64:
 600 0166 29BF     		j	.L13
 601              	.L21:
 200:C:/Users/stapi/OneDrive/Desktop/GD32VW553/V1_MQTT_OK/GD32VW55X_Wifi_BLE_SDK/GD32VW55x_RELEASE_V1.0.2/MSDK/wpa_supplicant/src/ap\ieee802_11_shared.c **** 		   MACSTR, MAC2STR(sa));
 602              		.loc 1 200 2
 603 0168 0348E400 		lbu	a6,14(s0)
 604 016c 0347C400 		lbu	a4,12(s0)
 605 0170 8346B400 		lbu	a3,11(s0)
 606 0174 8348F400 		lbu	a7,15(s0)
 607 0178 8347D400 		lbu	a5,13(s0)
 608 017c 0346A400 		lbu	a2,10(s0)
 609 0180 B7050000 		lui	a1,%hi(.LC8)
 610 0184 93850500 		addi	a1,a1,%lo(.LC8)
 611 0188 0945     		li	a0,2
 612 018a 97000000 		call	wpa_printf
 612      E7800000 
 613              	.LVL65:
 203:C:/Users/stapi/OneDrive/Desktop/GD32VW553/V1_MQTT_OK/GD32VW55X_Wifi_BLE_SDK/GD32VW55x_RELEASE_V1.0.2/MSDK/wpa_supplicant/src/ap\ieee802_11_shared.c **** 					   WLAN_FC_STYPE_ACTION);
 614              		.loc 1 203 2
 203:C:/Users/stapi/OneDrive/Desktop/GD32VW553/V1_MQTT_OK/GD32VW55X_Wifi_BLE_SDK/GD32VW55x_RELEASE_V1.0.2/MSDK/wpa_supplicant/src/ap\ieee802_11_shared.c **** 					   WLAN_FC_STYPE_ACTION);
 615              		.loc 1 203 22 is_stmt 0
 616 0192 930700FD 		li	a5,-48
 617 0196 2380F400 		sb	a5,0(s1)
 205:C:/Users/stapi/OneDrive/Desktop/GD32VW553/V1_MQTT_OK/GD32VW55X_Wifi_BLE_SDK/GD32VW55x_RELEASE_V1.0.2/MSDK/wpa_supplicant/src/ap\ieee802_11_shared.c **** 	os_memcpy(resp->sa, hapd->own_addr, ETH_ALEN);
 618              		.loc 1 205 2
 619 019a 1946     		li	a2,6
 620 019c D285     		mv	a1,s4
 203:C:/Users/stapi/OneDrive/Desktop/GD32VW553/V1_MQTT_OK/GD32VW55X_Wifi_BLE_SDK/GD32VW55x_RELEASE_V1.0.2/MSDK/wpa_supplicant/src/ap\ieee802_11_shared.c **** 					   WLAN_FC_STYPE_ACTION);
 621              		.loc 1 203 22
 622 019e A3800400 		sb	zero,1(s1)
 205:C:/Users/stapi/OneDrive/Desktop/GD32VW553/V1_MQTT_OK/GD32VW55X_Wifi_BLE_SDK/GD32VW55x_RELEASE_V1.0.2/MSDK/wpa_supplicant/src/ap\ieee802_11_shared.c **** 	os_memcpy(resp->sa, hapd->own_addr, ETH_ALEN);
 623              		.loc 1 205 2 is_stmt 1
 624 01a2 13854400 		addi	a0,s1,4
 625 01a6 97000000 		call	os_memcpy
 625      E7800000 
 626              	.LVL66:
 206:C:/Users/stapi/OneDrive/Desktop/GD32VW553/V1_MQTT_OK/GD32VW55X_Wifi_BLE_SDK/GD32VW55x_RELEASE_V1.0.2/MSDK/wpa_supplicant/src/ap\ieee802_11_shared.c **** 	os_memcpy(resp->bssid, hapd->own_addr, ETH_ALEN);
 627              		.loc 1 206 2
 206:C:/Users/stapi/OneDrive/Desktop/GD32VW553/V1_MQTT_OK/GD32VW55X_Wifi_BLE_SDK/GD32VW55x_RELEASE_V1.0.2/MSDK/wpa_supplicant/src/ap\ieee802_11_shared.c **** 	os_memcpy(resp->bssid, hapd->own_addr, ETH_ALEN);
 628              		.loc 1 206 26 is_stmt 0
 629 01ae 93051901 		addi	a1,s2,17
 206:C:/Users/stapi/OneDrive/Desktop/GD32VW553/V1_MQTT_OK/GD32VW55X_Wifi_BLE_SDK/GD32VW55x_RELEASE_V1.0.2/MSDK/wpa_supplicant/src/ap\ieee802_11_shared.c **** 	os_memcpy(resp->bssid, hapd->own_addr, ETH_ALEN);
 630              		.loc 1 206 2
 631 01b2 1946     		li	a2,6
 632 01b4 1385A400 		addi	a0,s1,10
 633 01b8 2ED6     		sw	a1,44(sp)
 634 01ba 97000000 		call	os_memcpy
 634      E7800000 
 635              	.LVL67:
 207:C:/Users/stapi/OneDrive/Desktop/GD32VW553/V1_MQTT_OK/GD32VW55X_Wifi_BLE_SDK/GD32VW55x_RELEASE_V1.0.2/MSDK/wpa_supplicant/src/ap\ieee802_11_shared.c **** 	resp->u.action.category = WLAN_ACTION_SA_QUERY;
 636              		.loc 1 207 2 is_stmt 1
 637 01c2 B255     		lw	a1,44(sp)
 638 01c4 1946     		li	a2,6
 639 01c6 13850401 		addi	a0,s1,16
 640 01ca 97000000 		call	os_memcpy
 640      E7800000 
 641              	.LVL68:
 208:C:/Users/stapi/OneDrive/Desktop/GD32VW553/V1_MQTT_OK/GD32VW55X_Wifi_BLE_SDK/GD32VW55x_RELEASE_V1.0.2/MSDK/wpa_supplicant/src/ap\ieee802_11_shared.c **** 	resp->u.action.u.sa_query_req.action = WLAN_SA_QUERY_RESPONSE;
 642              		.loc 1 208 2
 208:C:/Users/stapi/OneDrive/Desktop/GD32VW553/V1_MQTT_OK/GD32VW55X_Wifi_BLE_SDK/GD32VW55x_RELEASE_V1.0.2/MSDK/wpa_supplicant/src/ap\ieee802_11_shared.c **** 	resp->u.action.u.sa_query_req.action = WLAN_SA_QUERY_RESPONSE;
 643              		.loc 1 208 26 is_stmt 0
 644 01d2 A147     		li	a5,8
 645 01d4 238CF400 		sb	a5,24(s1)
 209:C:/Users/stapi/OneDrive/Desktop/GD32VW553/V1_MQTT_OK/GD32VW55X_Wifi_BLE_SDK/GD32VW55x_RELEASE_V1.0.2/MSDK/wpa_supplicant/src/ap\ieee802_11_shared.c **** 	os_memcpy(resp->u.action.u.sa_query_req.trans_id, trans_id,
 646              		.loc 1 209 2 is_stmt 1
 209:C:/Users/stapi/OneDrive/Desktop/GD32VW553/V1_MQTT_OK/GD32VW55X_Wifi_BLE_SDK/GD32VW55x_RELEASE_V1.0.2/MSDK/wpa_supplicant/src/ap\ieee802_11_shared.c **** 	os_memcpy(resp->u.action.u.sa_query_req.trans_id, trans_id,
 647              		.loc 1 209 39 is_stmt 0
 648 01d8 8547     		li	a5,1
 649 01da A38CF400 		sb	a5,25(s1)
 210:C:/Users/stapi/OneDrive/Desktop/GD32VW553/V1_MQTT_OK/GD32VW55X_Wifi_BLE_SDK/GD32VW55x_RELEASE_V1.0.2/MSDK/wpa_supplicant/src/ap\ieee802_11_shared.c **** 		  WLAN_SA_QUERY_TR_ID_LEN);
 650              		.loc 1 210 2 is_stmt 1
 651 01de 0946     		li	a2,2
 652 01e0 CE85     		mv	a1,s3
 653 01e2 1385A401 		addi	a0,s1,26
 654 01e6 97000000 		call	os_memcpy
 654      E7800000 
 655              	.LVL69:
 212:C:/Users/stapi/OneDrive/Desktop/GD32VW553/V1_MQTT_OK/GD32VW55X_Wifi_BLE_SDK/GD32VW55x_RELEASE_V1.0.2/MSDK/wpa_supplicant/src/ap\ieee802_11_shared.c **** #ifdef CONFIG_OCV
 656              		.loc 1 212 2
 219:C:/Users/stapi/OneDrive/Desktop/GD32VW553/V1_MQTT_OK/GD32VW55X_Wifi_BLE_SDK/GD32VW55x_RELEASE_V1.0.2/MSDK/wpa_supplicant/src/ap\ieee802_11_shared.c **** 	    < 0)
 657              		.loc 1 219 2
 219:C:/Users/stapi/OneDrive/Desktop/GD32VW553/V1_MQTT_OK/GD32VW55X_Wifi_BLE_SDK/GD32VW55x_RELEASE_V1.0.2/MSDK/wpa_supplicant/src/ap\ieee802_11_shared.c **** 	    < 0)
 658              		.loc 1 219 6 is_stmt 0
 659 01ee 0148     		li	a6,0
 660 01f0 8147     		li	a5,0
 661 01f2 0147     		li	a4,0
 662 01f4 8146     		li	a3,0
 663 01f6 7146     		li	a2,28
 664 01f8 A685     		mv	a1,s1
 665 01fa 4A85     		mv	a0,s2
 666 01fc 97000000 		call	hostapd_drv_send_mlme
 666      E7800000 
 667              	.LVL70:
 219:C:/Users/stapi/OneDrive/Desktop/GD32VW553/V1_MQTT_OK/GD32VW55X_Wifi_BLE_SDK/GD32VW55x_RELEASE_V1.0.2/MSDK/wpa_supplicant/src/ap\ieee802_11_shared.c **** 	    < 0)
 668              		.loc 1 219 5
 669 0204 635B0500 		bge	a0,zero,.L22
 221:C:/Users/stapi/OneDrive/Desktop/GD32VW553/V1_MQTT_OK/GD32VW55X_Wifi_BLE_SDK/GD32VW55x_RELEASE_V1.0.2/MSDK/wpa_supplicant/src/ap\ieee802_11_shared.c **** 
 670              		.loc 1 221 3 is_stmt 1
 671 0208 B7050000 		lui	a1,%hi(.LC9)
 672 020c 93850500 		addi	a1,a1,%lo(.LC9)
 673 0210 0D45     		li	a0,3
 674 0212 97000000 		call	wpa_printf
 674      E7800000 
 675              	.LVL71:
 676              	.L22:
 223:C:/Users/stapi/OneDrive/Desktop/GD32VW553/V1_MQTT_OK/GD32VW55X_Wifi_BLE_SDK/GD32VW55x_RELEASE_V1.0.2/MSDK/wpa_supplicant/src/ap\ieee802_11_shared.c **** 	os_free(oci_ie);
 677              		.loc 1 223 2
 678 021a 2685     		mv	a0,s1
 679 021c 97000000 		call	os_free
 679      E7800000 
 680              	.LVL72:
 681 0224 25BF     		j	.L43
 682              	.LVL73:
 683              	.L17:
 684              	.LBE49:
 685              	.LBE48:
 304:C:/Users/stapi/OneDrive/Desktop/GD32VW553/V1_MQTT_OK/GD32VW55X_Wifi_BLE_SDK/GD32VW55x_RELEASE_V1.0.2/MSDK/wpa_supplicant/src/ap\ieee802_11_shared.c **** 		wpa_printf(MSG_DEBUG, "IEEE 802.11: Unexpected SA Query "
 686              		.loc 1 304 2
 304:C:/Users/stapi/OneDrive/Desktop/GD32VW553/V1_MQTT_OK/GD32VW55X_Wifi_BLE_SDK/GD32VW55x_RELEASE_V1.0.2/MSDK/wpa_supplicant/src/ap\ieee802_11_shared.c **** 		wpa_printf(MSG_DEBUG, "IEEE 802.11: Unexpected SA Query "
 687              		.loc 1 304 5 is_stmt 0
 688 0226 8547     		li	a5,1
 689 0228 6307F600 		beq	a2,a5,.L23
 305:C:/Users/stapi/OneDrive/Desktop/GD32VW553/V1_MQTT_OK/GD32VW55X_Wifi_BLE_SDK/GD32VW55x_RELEASE_V1.0.2/MSDK/wpa_supplicant/src/ap\ieee802_11_shared.c **** 			   "Action %d", action_type);
 690              		.loc 1 305 3 is_stmt 1
 691 022c B7050000 		lui	a1,%hi(.LC10)
 692 0230 93850500 		addi	a1,a1,%lo(.LC10)
 693 0234 EDB3     		j	.L42
 694              	.L23:
 310:C:/Users/stapi/OneDrive/Desktop/GD32VW553/V1_MQTT_OK/GD32VW55X_Wifi_BLE_SDK/GD32VW55x_RELEASE_V1.0.2/MSDK/wpa_supplicant/src/ap\ieee802_11_shared.c **** 		   MACSTR, MAC2STR(sa));
 695              		.loc 1 310 2
 696 0236 8346B400 		lbu	a3,11(s0)
 697 023a 0346A400 		lbu	a2,10(s0)
 698 023e 8348F400 		lbu	a7,15(s0)
 699 0242 0348E400 		lbu	a6,14(s0)
 700 0246 8347D400 		lbu	a5,13(s0)
 701 024a 0347C400 		lbu	a4,12(s0)
 702 024e B7050000 		lui	a1,%hi(.LC11)
 703 0252 93850500 		addi	a1,a1,%lo(.LC11)
 704 0256 0945     		li	a0,2
 705 0258 97000000 		call	wpa_printf
 705      E7800000 
 706              	.LVL74:
 312:C:/Users/stapi/OneDrive/Desktop/GD32VW553/V1_MQTT_OK/GD32VW55X_Wifi_BLE_SDK/GD32VW55x_RELEASE_V1.0.2/MSDK/wpa_supplicant/src/ap\ieee802_11_shared.c **** 		    trans_id, WLAN_SA_QUERY_TR_ID_LEN);
 707              		.loc 1 312 2
 708 0260 B7050000 		lui	a1,%hi(.LC1)
 709 0264 8946     		li	a3,2
 710 0266 4E86     		mv	a2,s3
 711 0268 93850500 		addi	a1,a1,%lo(.LC1)
 712 026c 0945     		li	a0,2
 713 026e 97000000 		call	wpa_hexdump
 713      E7800000 
 714              	.LVL75:
 317:C:/Users/stapi/OneDrive/Desktop/GD32VW553/V1_MQTT_OK/GD32VW55X_Wifi_BLE_SDK/GD32VW55x_RELEASE_V1.0.2/MSDK/wpa_supplicant/src/ap\ieee802_11_shared.c **** 		wpa_printf(MSG_DEBUG, "IEEE 802.11: No matching STA with "
 715              		.loc 1 317 2
 317:C:/Users/stapi/OneDrive/Desktop/GD32VW553/V1_MQTT_OK/GD32VW55X_Wifi_BLE_SDK/GD32VW55x_RELEASE_V1.0.2/MSDK/wpa_supplicant/src/ap\ieee802_11_shared.c **** 		wpa_printf(MSG_DEBUG, "IEEE 802.11: No matching STA with "
 716              		.loc 1 317 5 is_stmt 0
 717 0276 89C4     		beq	s1,zero,.L24
 317:C:/Users/stapi/OneDrive/Desktop/GD32VW553/V1_MQTT_OK/GD32VW55X_Wifi_BLE_SDK/GD32VW55x_RELEASE_V1.0.2/MSDK/wpa_supplicant/src/ap\ieee802_11_shared.c **** 		wpa_printf(MSG_DEBUG, "IEEE 802.11: No matching STA with "
 718              		.loc 1 317 18 discriminator 1
 719 0278 83A7040E 		lw	a5,224(s1)
 323:C:/Users/stapi/OneDrive/Desktop/GD32VW553/V1_MQTT_OK/GD32VW55X_Wifi_BLE_SDK/GD32VW55x_RELEASE_V1.0.2/MSDK/wpa_supplicant/src/ap\ieee802_11_shared.c **** 		if (os_memcmp(sta->sa_query_trans_id +
 720              		.loc 1 323 9 discriminator 1
 721 027c 0144     		li	s0,0
 722              	.LVL76:
 317:C:/Users/stapi/OneDrive/Desktop/GD32VW553/V1_MQTT_OK/GD32VW55X_Wifi_BLE_SDK/GD32VW55x_RELEASE_V1.0.2/MSDK/wpa_supplicant/src/ap\ieee802_11_shared.c **** 		wpa_printf(MSG_DEBUG, "IEEE 802.11: No matching STA with "
 723              		.loc 1 317 18 discriminator 1
 724 027e 9DE7     		bne	a5,zero,.L25
 725              	.L24:
 318:C:/Users/stapi/OneDrive/Desktop/GD32VW553/V1_MQTT_OK/GD32VW55X_Wifi_BLE_SDK/GD32VW55x_RELEASE_V1.0.2/MSDK/wpa_supplicant/src/ap\ieee802_11_shared.c **** 			   "pending SA Query request found");
 726              		.loc 1 318 3 is_stmt 1
 727 0280 B7050000 		lui	a1,%hi(.LC12)
 728 0284 93850500 		addi	a1,a1,%lo(.LC12)
 729              	.L41:
 331:C:/Users/stapi/OneDrive/Desktop/GD32VW553/V1_MQTT_OK/GD32VW55X_Wifi_BLE_SDK/GD32VW55x_RELEASE_V1.0.2/MSDK/wpa_supplicant/src/ap\ieee802_11_shared.c **** 			   "transaction identifier found");
 730              		.loc 1 331 3 is_stmt 0
 731 0288 0945     		li	a0,2
 732 028a 97000000 		call	wpa_printf
 732      E7800000 
 733              	.LVL77:
 333:C:/Users/stapi/OneDrive/Desktop/GD32VW553/V1_MQTT_OK/GD32VW55X_Wifi_BLE_SDK/GD32VW55x_RELEASE_V1.0.2/MSDK/wpa_supplicant/src/ap\ieee802_11_shared.c **** 	}
 734              		.loc 1 333 3 is_stmt 1
 735 0292 FDB3     		j	.L13
 736              	.LVL78:
 737              	.L27:
 324:C:/Users/stapi/OneDrive/Desktop/GD32VW553/V1_MQTT_OK/GD32VW55X_Wifi_BLE_SDK/GD32VW55x_RELEASE_V1.0.2/MSDK/wpa_supplicant/src/ap\ieee802_11_shared.c **** 			      i * WLAN_SA_QUERY_TR_ID_LEN,
 738              		.loc 1 324 3
 324:C:/Users/stapi/OneDrive/Desktop/GD32VW553/V1_MQTT_OK/GD32VW55X_Wifi_BLE_SDK/GD32VW55x_RELEASE_V1.0.2/MSDK/wpa_supplicant/src/ap\ieee802_11_shared.c **** 			      i * WLAN_SA_QUERY_TR_ID_LEN,
 739              		.loc 1 324 40 is_stmt 0
 740 0294 03A5040E 		lw	a0,224(s1)
 324:C:/Users/stapi/OneDrive/Desktop/GD32VW553/V1_MQTT_OK/GD32VW55X_Wifi_BLE_SDK/GD32VW55x_RELEASE_V1.0.2/MSDK/wpa_supplicant/src/ap\ieee802_11_shared.c **** 			      i * WLAN_SA_QUERY_TR_ID_LEN,
 741              		.loc 1 324 7
 742 0298 0946     		li	a2,2
 743 029a CE85     		mv	a1,s3
 744 029c 3325A420 		sh1add	a0,s0,a0
 745 02a0 97000000 		call	os_memcmp
 745      E7800000 
 746              	.LVL79:
 324:C:/Users/stapi/OneDrive/Desktop/GD32VW553/V1_MQTT_OK/GD32VW55X_Wifi_BLE_SDK/GD32VW55x_RELEASE_V1.0.2/MSDK/wpa_supplicant/src/ap\ieee802_11_shared.c **** 			      i * WLAN_SA_QUERY_TR_ID_LEN,
 747              		.loc 1 324 6
 748 02a8 19C9     		beq	a0,zero,.L26
 323:C:/Users/stapi/OneDrive/Desktop/GD32VW553/V1_MQTT_OK/GD32VW55X_Wifi_BLE_SDK/GD32VW55x_RELEASE_V1.0.2/MSDK/wpa_supplicant/src/ap\ieee802_11_shared.c **** 		if (os_memcmp(sta->sa_query_trans_id +
 749              		.loc 1 323 39 is_stmt 1 discriminator 2
 323:C:/Users/stapi/OneDrive/Desktop/GD32VW553/V1_MQTT_OK/GD32VW55X_Wifi_BLE_SDK/GD32VW55x_RELEASE_V1.0.2/MSDK/wpa_supplicant/src/ap\ieee802_11_shared.c **** 		if (os_memcmp(sta->sa_query_trans_id +
 750              		.loc 1 323 40 is_stmt 0 discriminator 2
 751 02aa 0504     		addi	s0,s0,1
 752              	.LVL80:
 753              	.L25:
 323:C:/Users/stapi/OneDrive/Desktop/GD32VW553/V1_MQTT_OK/GD32VW55X_Wifi_BLE_SDK/GD32VW55x_RELEASE_V1.0.2/MSDK/wpa_supplicant/src/ap\ieee802_11_shared.c **** 		if (os_memcmp(sta->sa_query_trans_id +
 754              		.loc 1 323 14 is_stmt 1 discriminator 1
 323:C:/Users/stapi/OneDrive/Desktop/GD32VW553/V1_MQTT_OK/GD32VW55X_Wifi_BLE_SDK/GD32VW55x_RELEASE_V1.0.2/MSDK/wpa_supplicant/src/ap\ieee802_11_shared.c **** 		if (os_memcmp(sta->sa_query_trans_id +
 755              		.loc 1 323 2 is_stmt 0 discriminator 1
 756 02ac 83A7840D 		lw	a5,216(s1)
 757 02b0 E342F4FE 		bgt	a5,s0,.L27
 758              	.L28:
 331:C:/Users/stapi/OneDrive/Desktop/GD32VW553/V1_MQTT_OK/GD32VW55X_Wifi_BLE_SDK/GD32VW55x_RELEASE_V1.0.2/MSDK/wpa_supplicant/src/ap\ieee802_11_shared.c **** 			   "transaction identifier found");
 759              		.loc 1 331 3 is_stmt 1
 760 02b4 B7050000 		lui	a1,%hi(.LC13)
 761 02b8 93850500 		addi	a1,a1,%lo(.LC13)
 762 02bc F1B7     		j	.L41
 763              	.L26:
 330:C:/Users/stapi/OneDrive/Desktop/GD32VW553/V1_MQTT_OK/GD32VW55X_Wifi_BLE_SDK/GD32VW55x_RELEASE_V1.0.2/MSDK/wpa_supplicant/src/ap\ieee802_11_shared.c **** 		wpa_printf(MSG_DEBUG, "IEEE 802.11: No matching SA Query "
 764              		.loc 1 330 2
 330:C:/Users/stapi/OneDrive/Desktop/GD32VW553/V1_MQTT_OK/GD32VW55X_Wifi_BLE_SDK/GD32VW55x_RELEASE_V1.0.2/MSDK/wpa_supplicant/src/ap\ieee802_11_shared.c **** 		wpa_printf(MSG_DEBUG, "IEEE 802.11: No matching SA Query "
 765              		.loc 1 330 5 is_stmt 0
 766 02be 83A7840D 		lw	a5,216(s1)
 767 02c2 E359F4FE 		ble	a5,s0,.L28
 336:C:/Users/stapi/OneDrive/Desktop/GD32VW553/V1_MQTT_OK/GD32VW55X_Wifi_BLE_SDK/GD32VW55x_RELEASE_V1.0.2/MSDK/wpa_supplicant/src/ap\ieee802_11_shared.c **** 		       HOSTAPD_LEVEL_DEBUG,
 768              		.loc 1 336 2 is_stmt 1
 336:C:/Users/stapi/OneDrive/Desktop/GD32VW553/V1_MQTT_OK/GD32VW55X_Wifi_BLE_SDK/GD32VW55x_RELEASE_V1.0.2/MSDK/wpa_supplicant/src/ap\ieee802_11_shared.c **** 		       HOSTAPD_LEVEL_DEBUG,
 769              		.loc 1 336 2
 336:C:/Users/stapi/OneDrive/Desktop/GD32VW553/V1_MQTT_OK/GD32VW55X_Wifi_BLE_SDK/GD32VW55x_RELEASE_V1.0.2/MSDK/wpa_supplicant/src/ap\ieee802_11_shared.c **** 		       HOSTAPD_LEVEL_DEBUG,
 770              		.loc 1 336 2
 339:C:/Users/stapi/OneDrive/Desktop/GD32VW553/V1_MQTT_OK/GD32VW55X_Wifi_BLE_SDK/GD32VW55x_RELEASE_V1.0.2/MSDK/wpa_supplicant/src/ap\ieee802_11_shared.c **** }
 771              		.loc 1 339 2
 772 02c6 A685     		mv	a1,s1
 773 02c8 4A85     		mv	a0,s2
 774 02ca 97000000 		call	ap_sta_stop_sa_query
 774      E7800000 
 775              	.LVL81:
 776 02d2 7DB3     		j	.L13
 777              		.cfi_endproc
 778              	.LFE170:
 780              		.section	.text.hostapd_eid_ext_capab,"ax",@progbits
 781              		.align	1
 782              		.globl	hostapd_eid_ext_capab
 784              	hostapd_eid_ext_capab:
 785              	.LFB172:
 341:C:/Users/stapi/OneDrive/Desktop/GD32VW553/V1_MQTT_OK/GD32VW55X_Wifi_BLE_SDK/GD32VW55x_RELEASE_V1.0.2/MSDK/wpa_supplicant/src/ap\ieee802_11_shared.c **** 
 342:C:/Users/stapi/OneDrive/Desktop/GD32VW553/V1_MQTT_OK/GD32VW55X_Wifi_BLE_SDK/GD32VW55x_RELEASE_V1.0.2/MSDK/wpa_supplicant/src/ap\ieee802_11_shared.c **** 
 343:C:/Users/stapi/OneDrive/Desktop/GD32VW553/V1_MQTT_OK/GD32VW55X_Wifi_BLE_SDK/GD32VW55x_RELEASE_V1.0.2/MSDK/wpa_supplicant/src/ap\ieee802_11_shared.c **** static void hostapd_ext_capab_byte(struct hostapd_data *hapd, u8 *pos, int idx)
 344:C:/Users/stapi/OneDrive/Desktop/GD32VW553/V1_MQTT_OK/GD32VW55X_Wifi_BLE_SDK/GD32VW55x_RELEASE_V1.0.2/MSDK/wpa_supplicant/src/ap\ieee802_11_shared.c **** {
 345:C:/Users/stapi/OneDrive/Desktop/GD32VW553/V1_MQTT_OK/GD32VW55X_Wifi_BLE_SDK/GD32VW55x_RELEASE_V1.0.2/MSDK/wpa_supplicant/src/ap\ieee802_11_shared.c **** 	*pos = 0x00;
 346:C:/Users/stapi/OneDrive/Desktop/GD32VW553/V1_MQTT_OK/GD32VW55X_Wifi_BLE_SDK/GD32VW55x_RELEASE_V1.0.2/MSDK/wpa_supplicant/src/ap\ieee802_11_shared.c **** 
 347:C:/Users/stapi/OneDrive/Desktop/GD32VW553/V1_MQTT_OK/GD32VW55X_Wifi_BLE_SDK/GD32VW55x_RELEASE_V1.0.2/MSDK/wpa_supplicant/src/ap\ieee802_11_shared.c **** 	switch (idx) {
 348:C:/Users/stapi/OneDrive/Desktop/GD32VW553/V1_MQTT_OK/GD32VW55X_Wifi_BLE_SDK/GD32VW55x_RELEASE_V1.0.2/MSDK/wpa_supplicant/src/ap\ieee802_11_shared.c **** 	case 0: /* Bits 0-7 */
 349:C:/Users/stapi/OneDrive/Desktop/GD32VW553/V1_MQTT_OK/GD32VW55X_Wifi_BLE_SDK/GD32VW55x_RELEASE_V1.0.2/MSDK/wpa_supplicant/src/ap\ieee802_11_shared.c **** 		if (hapd->iconf->obss_interval)
 350:C:/Users/stapi/OneDrive/Desktop/GD32VW553/V1_MQTT_OK/GD32VW55X_Wifi_BLE_SDK/GD32VW55x_RELEASE_V1.0.2/MSDK/wpa_supplicant/src/ap\ieee802_11_shared.c **** 			*pos |= 0x01; /* Bit 0 - Coexistence management */
 351:C:/Users/stapi/OneDrive/Desktop/GD32VW553/V1_MQTT_OK/GD32VW55X_Wifi_BLE_SDK/GD32VW55x_RELEASE_V1.0.2/MSDK/wpa_supplicant/src/ap\ieee802_11_shared.c **** 		if (hapd->iface->drv_flags & WPA_DRIVER_FLAGS_AP_CSA)
 352:C:/Users/stapi/OneDrive/Desktop/GD32VW553/V1_MQTT_OK/GD32VW55X_Wifi_BLE_SDK/GD32VW55x_RELEASE_V1.0.2/MSDK/wpa_supplicant/src/ap\ieee802_11_shared.c **** 			*pos |= 0x04; /* Bit 2 - Extended Channel Switching */
 353:C:/Users/stapi/OneDrive/Desktop/GD32VW553/V1_MQTT_OK/GD32VW55X_Wifi_BLE_SDK/GD32VW55x_RELEASE_V1.0.2/MSDK/wpa_supplicant/src/ap\ieee802_11_shared.c **** 		break;
 354:C:/Users/stapi/OneDrive/Desktop/GD32VW553/V1_MQTT_OK/GD32VW55X_Wifi_BLE_SDK/GD32VW55x_RELEASE_V1.0.2/MSDK/wpa_supplicant/src/ap\ieee802_11_shared.c **** 	case 1: /* Bits 8-15 */
 355:C:/Users/stapi/OneDrive/Desktop/GD32VW553/V1_MQTT_OK/GD32VW55X_Wifi_BLE_SDK/GD32VW55x_RELEASE_V1.0.2/MSDK/wpa_supplicant/src/ap\ieee802_11_shared.c **** 		if (hapd->conf->proxy_arp)
 356:C:/Users/stapi/OneDrive/Desktop/GD32VW553/V1_MQTT_OK/GD32VW55X_Wifi_BLE_SDK/GD32VW55x_RELEASE_V1.0.2/MSDK/wpa_supplicant/src/ap\ieee802_11_shared.c **** 			*pos |= 0x10; /* Bit 12 - Proxy ARP */
 357:C:/Users/stapi/OneDrive/Desktop/GD32VW553/V1_MQTT_OK/GD32VW55X_Wifi_BLE_SDK/GD32VW55x_RELEASE_V1.0.2/MSDK/wpa_supplicant/src/ap\ieee802_11_shared.c **** 		if (hapd->conf->coloc_intf_reporting) {
 358:C:/Users/stapi/OneDrive/Desktop/GD32VW553/V1_MQTT_OK/GD32VW55X_Wifi_BLE_SDK/GD32VW55x_RELEASE_V1.0.2/MSDK/wpa_supplicant/src/ap\ieee802_11_shared.c **** 			/* Bit 13 - Collocated Interference Reporting */
 359:C:/Users/stapi/OneDrive/Desktop/GD32VW553/V1_MQTT_OK/GD32VW55X_Wifi_BLE_SDK/GD32VW55x_RELEASE_V1.0.2/MSDK/wpa_supplicant/src/ap\ieee802_11_shared.c **** 			*pos |= 0x20;
 360:C:/Users/stapi/OneDrive/Desktop/GD32VW553/V1_MQTT_OK/GD32VW55X_Wifi_BLE_SDK/GD32VW55x_RELEASE_V1.0.2/MSDK/wpa_supplicant/src/ap\ieee802_11_shared.c **** 		}
 361:C:/Users/stapi/OneDrive/Desktop/GD32VW553/V1_MQTT_OK/GD32VW55X_Wifi_BLE_SDK/GD32VW55x_RELEASE_V1.0.2/MSDK/wpa_supplicant/src/ap\ieee802_11_shared.c **** 		break;
 362:C:/Users/stapi/OneDrive/Desktop/GD32VW553/V1_MQTT_OK/GD32VW55X_Wifi_BLE_SDK/GD32VW55x_RELEASE_V1.0.2/MSDK/wpa_supplicant/src/ap\ieee802_11_shared.c **** 	case 2: /* Bits 16-23 */
 363:C:/Users/stapi/OneDrive/Desktop/GD32VW553/V1_MQTT_OK/GD32VW55X_Wifi_BLE_SDK/GD32VW55x_RELEASE_V1.0.2/MSDK/wpa_supplicant/src/ap\ieee802_11_shared.c **** 		if (hapd->conf->wnm_sleep_mode)
 364:C:/Users/stapi/OneDrive/Desktop/GD32VW553/V1_MQTT_OK/GD32VW55X_Wifi_BLE_SDK/GD32VW55x_RELEASE_V1.0.2/MSDK/wpa_supplicant/src/ap\ieee802_11_shared.c **** 			*pos |= 0x02; /* Bit 17 - WNM-Sleep Mode */
 365:C:/Users/stapi/OneDrive/Desktop/GD32VW553/V1_MQTT_OK/GD32VW55X_Wifi_BLE_SDK/GD32VW55x_RELEASE_V1.0.2/MSDK/wpa_supplicant/src/ap\ieee802_11_shared.c **** 		if (hapd->conf->bss_transition)
 366:C:/Users/stapi/OneDrive/Desktop/GD32VW553/V1_MQTT_OK/GD32VW55X_Wifi_BLE_SDK/GD32VW55x_RELEASE_V1.0.2/MSDK/wpa_supplicant/src/ap\ieee802_11_shared.c **** 			*pos |= 0x08; /* Bit 19 - BSS Transition */
 367:C:/Users/stapi/OneDrive/Desktop/GD32VW553/V1_MQTT_OK/GD32VW55X_Wifi_BLE_SDK/GD32VW55x_RELEASE_V1.0.2/MSDK/wpa_supplicant/src/ap\ieee802_11_shared.c **** 		break;
 368:C:/Users/stapi/OneDrive/Desktop/GD32VW553/V1_MQTT_OK/GD32VW55X_Wifi_BLE_SDK/GD32VW55x_RELEASE_V1.0.2/MSDK/wpa_supplicant/src/ap\ieee802_11_shared.c **** 	case 3: /* Bits 24-31 */
 369:C:/Users/stapi/OneDrive/Desktop/GD32VW553/V1_MQTT_OK/GD32VW55X_Wifi_BLE_SDK/GD32VW55x_RELEASE_V1.0.2/MSDK/wpa_supplicant/src/ap\ieee802_11_shared.c **** #ifdef CONFIG_WNM_AP
 370:C:/Users/stapi/OneDrive/Desktop/GD32VW553/V1_MQTT_OK/GD32VW55X_Wifi_BLE_SDK/GD32VW55x_RELEASE_V1.0.2/MSDK/wpa_supplicant/src/ap\ieee802_11_shared.c **** 		*pos |= 0x02; /* Bit 25 - SSID List */
 371:C:/Users/stapi/OneDrive/Desktop/GD32VW553/V1_MQTT_OK/GD32VW55X_Wifi_BLE_SDK/GD32VW55x_RELEASE_V1.0.2/MSDK/wpa_supplicant/src/ap\ieee802_11_shared.c **** #endif /* CONFIG_WNM_AP */
 372:C:/Users/stapi/OneDrive/Desktop/GD32VW553/V1_MQTT_OK/GD32VW55X_Wifi_BLE_SDK/GD32VW55x_RELEASE_V1.0.2/MSDK/wpa_supplicant/src/ap\ieee802_11_shared.c **** 		if (hapd->conf->time_advertisement == 2)
 373:C:/Users/stapi/OneDrive/Desktop/GD32VW553/V1_MQTT_OK/GD32VW55X_Wifi_BLE_SDK/GD32VW55x_RELEASE_V1.0.2/MSDK/wpa_supplicant/src/ap\ieee802_11_shared.c **** 			*pos |= 0x08; /* Bit 27 - UTC TSF Offset */
 374:C:/Users/stapi/OneDrive/Desktop/GD32VW553/V1_MQTT_OK/GD32VW55X_Wifi_BLE_SDK/GD32VW55x_RELEASE_V1.0.2/MSDK/wpa_supplicant/src/ap\ieee802_11_shared.c **** 		if (hapd->conf->interworking)
 375:C:/Users/stapi/OneDrive/Desktop/GD32VW553/V1_MQTT_OK/GD32VW55X_Wifi_BLE_SDK/GD32VW55x_RELEASE_V1.0.2/MSDK/wpa_supplicant/src/ap\ieee802_11_shared.c **** 			*pos |= 0x80; /* Bit 31 - Interworking */
 376:C:/Users/stapi/OneDrive/Desktop/GD32VW553/V1_MQTT_OK/GD32VW55X_Wifi_BLE_SDK/GD32VW55x_RELEASE_V1.0.2/MSDK/wpa_supplicant/src/ap\ieee802_11_shared.c **** 		break;
 377:C:/Users/stapi/OneDrive/Desktop/GD32VW553/V1_MQTT_OK/GD32VW55X_Wifi_BLE_SDK/GD32VW55x_RELEASE_V1.0.2/MSDK/wpa_supplicant/src/ap\ieee802_11_shared.c **** 	case 4: /* Bits 32-39 */
 378:C:/Users/stapi/OneDrive/Desktop/GD32VW553/V1_MQTT_OK/GD32VW55X_Wifi_BLE_SDK/GD32VW55x_RELEASE_V1.0.2/MSDK/wpa_supplicant/src/ap\ieee802_11_shared.c **** 		if (hapd->conf->qos_map_set_len)
 379:C:/Users/stapi/OneDrive/Desktop/GD32VW553/V1_MQTT_OK/GD32VW55X_Wifi_BLE_SDK/GD32VW55x_RELEASE_V1.0.2/MSDK/wpa_supplicant/src/ap\ieee802_11_shared.c **** 			*pos |= 0x01; /* Bit 32 - QoS Map */
 380:C:/Users/stapi/OneDrive/Desktop/GD32VW553/V1_MQTT_OK/GD32VW55X_Wifi_BLE_SDK/GD32VW55x_RELEASE_V1.0.2/MSDK/wpa_supplicant/src/ap\ieee802_11_shared.c **** 		if (hapd->conf->tdls & TDLS_PROHIBIT)
 381:C:/Users/stapi/OneDrive/Desktop/GD32VW553/V1_MQTT_OK/GD32VW55X_Wifi_BLE_SDK/GD32VW55x_RELEASE_V1.0.2/MSDK/wpa_supplicant/src/ap\ieee802_11_shared.c **** 			*pos |= 0x40; /* Bit 38 - TDLS Prohibited */
 382:C:/Users/stapi/OneDrive/Desktop/GD32VW553/V1_MQTT_OK/GD32VW55X_Wifi_BLE_SDK/GD32VW55x_RELEASE_V1.0.2/MSDK/wpa_supplicant/src/ap\ieee802_11_shared.c **** 		if (hapd->conf->tdls & TDLS_PROHIBIT_CHAN_SWITCH) {
 383:C:/Users/stapi/OneDrive/Desktop/GD32VW553/V1_MQTT_OK/GD32VW55X_Wifi_BLE_SDK/GD32VW55x_RELEASE_V1.0.2/MSDK/wpa_supplicant/src/ap\ieee802_11_shared.c **** 			/* Bit 39 - TDLS Channel Switching Prohibited */
 384:C:/Users/stapi/OneDrive/Desktop/GD32VW553/V1_MQTT_OK/GD32VW55X_Wifi_BLE_SDK/GD32VW55x_RELEASE_V1.0.2/MSDK/wpa_supplicant/src/ap\ieee802_11_shared.c **** 			*pos |= 0x80;
 385:C:/Users/stapi/OneDrive/Desktop/GD32VW553/V1_MQTT_OK/GD32VW55X_Wifi_BLE_SDK/GD32VW55x_RELEASE_V1.0.2/MSDK/wpa_supplicant/src/ap\ieee802_11_shared.c **** 		}
 386:C:/Users/stapi/OneDrive/Desktop/GD32VW553/V1_MQTT_OK/GD32VW55X_Wifi_BLE_SDK/GD32VW55x_RELEASE_V1.0.2/MSDK/wpa_supplicant/src/ap\ieee802_11_shared.c **** 		break;
 387:C:/Users/stapi/OneDrive/Desktop/GD32VW553/V1_MQTT_OK/GD32VW55X_Wifi_BLE_SDK/GD32VW55x_RELEASE_V1.0.2/MSDK/wpa_supplicant/src/ap\ieee802_11_shared.c **** 	case 5: /* Bits 40-47 */
 388:C:/Users/stapi/OneDrive/Desktop/GD32VW553/V1_MQTT_OK/GD32VW55X_Wifi_BLE_SDK/GD32VW55x_RELEASE_V1.0.2/MSDK/wpa_supplicant/src/ap\ieee802_11_shared.c **** #ifdef CONFIG_HS20
 389:C:/Users/stapi/OneDrive/Desktop/GD32VW553/V1_MQTT_OK/GD32VW55X_Wifi_BLE_SDK/GD32VW55x_RELEASE_V1.0.2/MSDK/wpa_supplicant/src/ap\ieee802_11_shared.c **** 		if (hapd->conf->hs20)
 390:C:/Users/stapi/OneDrive/Desktop/GD32VW553/V1_MQTT_OK/GD32VW55X_Wifi_BLE_SDK/GD32VW55x_RELEASE_V1.0.2/MSDK/wpa_supplicant/src/ap\ieee802_11_shared.c **** 			*pos |= 0x40; /* Bit 46 - WNM-Notification */
 391:C:/Users/stapi/OneDrive/Desktop/GD32VW553/V1_MQTT_OK/GD32VW55X_Wifi_BLE_SDK/GD32VW55x_RELEASE_V1.0.2/MSDK/wpa_supplicant/src/ap\ieee802_11_shared.c **** #endif /* CONFIG_HS20 */
 392:C:/Users/stapi/OneDrive/Desktop/GD32VW553/V1_MQTT_OK/GD32VW55X_Wifi_BLE_SDK/GD32VW55x_RELEASE_V1.0.2/MSDK/wpa_supplicant/src/ap\ieee802_11_shared.c **** #ifdef CONFIG_MBO
 393:C:/Users/stapi/OneDrive/Desktop/GD32VW553/V1_MQTT_OK/GD32VW55X_Wifi_BLE_SDK/GD32VW55x_RELEASE_V1.0.2/MSDK/wpa_supplicant/src/ap\ieee802_11_shared.c **** 		if (hapd->conf->mbo_enabled)
 394:C:/Users/stapi/OneDrive/Desktop/GD32VW553/V1_MQTT_OK/GD32VW55X_Wifi_BLE_SDK/GD32VW55x_RELEASE_V1.0.2/MSDK/wpa_supplicant/src/ap\ieee802_11_shared.c **** 			*pos |= 0x40; /* Bit 46 - WNM-Notification */
 395:C:/Users/stapi/OneDrive/Desktop/GD32VW553/V1_MQTT_OK/GD32VW55X_Wifi_BLE_SDK/GD32VW55x_RELEASE_V1.0.2/MSDK/wpa_supplicant/src/ap\ieee802_11_shared.c **** #endif /* CONFIG_MBO */
 396:C:/Users/stapi/OneDrive/Desktop/GD32VW553/V1_MQTT_OK/GD32VW55X_Wifi_BLE_SDK/GD32VW55x_RELEASE_V1.0.2/MSDK/wpa_supplicant/src/ap\ieee802_11_shared.c **** 		break;
 397:C:/Users/stapi/OneDrive/Desktop/GD32VW553/V1_MQTT_OK/GD32VW55X_Wifi_BLE_SDK/GD32VW55x_RELEASE_V1.0.2/MSDK/wpa_supplicant/src/ap\ieee802_11_shared.c **** 	case 6: /* Bits 48-55 */
 398:C:/Users/stapi/OneDrive/Desktop/GD32VW553/V1_MQTT_OK/GD32VW55X_Wifi_BLE_SDK/GD32VW55x_RELEASE_V1.0.2/MSDK/wpa_supplicant/src/ap\ieee802_11_shared.c **** 		if (hapd->conf->ssid.utf8_ssid)
 399:C:/Users/stapi/OneDrive/Desktop/GD32VW553/V1_MQTT_OK/GD32VW55X_Wifi_BLE_SDK/GD32VW55x_RELEASE_V1.0.2/MSDK/wpa_supplicant/src/ap\ieee802_11_shared.c **** 			*pos |= 0x01; /* Bit 48 - UTF-8 SSID */
 400:C:/Users/stapi/OneDrive/Desktop/GD32VW553/V1_MQTT_OK/GD32VW55X_Wifi_BLE_SDK/GD32VW55x_RELEASE_V1.0.2/MSDK/wpa_supplicant/src/ap\ieee802_11_shared.c **** 		break;
 401:C:/Users/stapi/OneDrive/Desktop/GD32VW553/V1_MQTT_OK/GD32VW55X_Wifi_BLE_SDK/GD32VW55x_RELEASE_V1.0.2/MSDK/wpa_supplicant/src/ap\ieee802_11_shared.c **** 	case 7: /* Bits 56-63 */
 402:C:/Users/stapi/OneDrive/Desktop/GD32VW553/V1_MQTT_OK/GD32VW55X_Wifi_BLE_SDK/GD32VW55x_RELEASE_V1.0.2/MSDK/wpa_supplicant/src/ap\ieee802_11_shared.c **** 		break;
 403:C:/Users/stapi/OneDrive/Desktop/GD32VW553/V1_MQTT_OK/GD32VW55X_Wifi_BLE_SDK/GD32VW55x_RELEASE_V1.0.2/MSDK/wpa_supplicant/src/ap\ieee802_11_shared.c **** 	case 8: /* Bits 64-71 */
 404:C:/Users/stapi/OneDrive/Desktop/GD32VW553/V1_MQTT_OK/GD32VW55X_Wifi_BLE_SDK/GD32VW55x_RELEASE_V1.0.2/MSDK/wpa_supplicant/src/ap\ieee802_11_shared.c **** 		if (hapd->conf->ftm_responder)
 405:C:/Users/stapi/OneDrive/Desktop/GD32VW553/V1_MQTT_OK/GD32VW55X_Wifi_BLE_SDK/GD32VW55x_RELEASE_V1.0.2/MSDK/wpa_supplicant/src/ap\ieee802_11_shared.c **** 			*pos |= 0x40; /* Bit 70 - FTM responder */
 406:C:/Users/stapi/OneDrive/Desktop/GD32VW553/V1_MQTT_OK/GD32VW55X_Wifi_BLE_SDK/GD32VW55x_RELEASE_V1.0.2/MSDK/wpa_supplicant/src/ap\ieee802_11_shared.c **** 		if (hapd->conf->ftm_initiator)
 407:C:/Users/stapi/OneDrive/Desktop/GD32VW553/V1_MQTT_OK/GD32VW55X_Wifi_BLE_SDK/GD32VW55x_RELEASE_V1.0.2/MSDK/wpa_supplicant/src/ap\ieee802_11_shared.c **** 			*pos |= 0x80; /* Bit 71 - FTM initiator */
 408:C:/Users/stapi/OneDrive/Desktop/GD32VW553/V1_MQTT_OK/GD32VW55X_Wifi_BLE_SDK/GD32VW55x_RELEASE_V1.0.2/MSDK/wpa_supplicant/src/ap\ieee802_11_shared.c **** 		break;
 409:C:/Users/stapi/OneDrive/Desktop/GD32VW553/V1_MQTT_OK/GD32VW55X_Wifi_BLE_SDK/GD32VW55x_RELEASE_V1.0.2/MSDK/wpa_supplicant/src/ap\ieee802_11_shared.c **** 	case 9: /* Bits 72-79 */
 410:C:/Users/stapi/OneDrive/Desktop/GD32VW553/V1_MQTT_OK/GD32VW55X_Wifi_BLE_SDK/GD32VW55x_RELEASE_V1.0.2/MSDK/wpa_supplicant/src/ap\ieee802_11_shared.c **** #ifdef CONFIG_FILS
 411:C:/Users/stapi/OneDrive/Desktop/GD32VW553/V1_MQTT_OK/GD32VW55X_Wifi_BLE_SDK/GD32VW55x_RELEASE_V1.0.2/MSDK/wpa_supplicant/src/ap\ieee802_11_shared.c **** 		if ((hapd->conf->wpa & WPA_PROTO_RSN) &&
 412:C:/Users/stapi/OneDrive/Desktop/GD32VW553/V1_MQTT_OK/GD32VW55X_Wifi_BLE_SDK/GD32VW55x_RELEASE_V1.0.2/MSDK/wpa_supplicant/src/ap\ieee802_11_shared.c **** 		    wpa_key_mgmt_fils(hapd->conf->wpa_key_mgmt))
 413:C:/Users/stapi/OneDrive/Desktop/GD32VW553/V1_MQTT_OK/GD32VW55X_Wifi_BLE_SDK/GD32VW55x_RELEASE_V1.0.2/MSDK/wpa_supplicant/src/ap\ieee802_11_shared.c **** 			*pos |= 0x01;
 414:C:/Users/stapi/OneDrive/Desktop/GD32VW553/V1_MQTT_OK/GD32VW55X_Wifi_BLE_SDK/GD32VW55x_RELEASE_V1.0.2/MSDK/wpa_supplicant/src/ap\ieee802_11_shared.c **** #endif /* CONFIG_FILS */
 415:C:/Users/stapi/OneDrive/Desktop/GD32VW553/V1_MQTT_OK/GD32VW55X_Wifi_BLE_SDK/GD32VW55x_RELEASE_V1.0.2/MSDK/wpa_supplicant/src/ap\ieee802_11_shared.c **** #ifdef CONFIG_IEEE80211AX
 416:C:/Users/stapi/OneDrive/Desktop/GD32VW553/V1_MQTT_OK/GD32VW55X_Wifi_BLE_SDK/GD32VW55x_RELEASE_V1.0.2/MSDK/wpa_supplicant/src/ap\ieee802_11_shared.c **** 		if (hapd->iconf->ieee80211ax &&
 417:C:/Users/stapi/OneDrive/Desktop/GD32VW553/V1_MQTT_OK/GD32VW55X_Wifi_BLE_SDK/GD32VW55x_RELEASE_V1.0.2/MSDK/wpa_supplicant/src/ap\ieee802_11_shared.c **** 		    hostapd_get_he_twt_responder(hapd, IEEE80211_MODE_AP))
 418:C:/Users/stapi/OneDrive/Desktop/GD32VW553/V1_MQTT_OK/GD32VW55X_Wifi_BLE_SDK/GD32VW55x_RELEASE_V1.0.2/MSDK/wpa_supplicant/src/ap\ieee802_11_shared.c **** 			*pos |= 0x40; /* Bit 78 - TWT responder */
 419:C:/Users/stapi/OneDrive/Desktop/GD32VW553/V1_MQTT_OK/GD32VW55X_Wifi_BLE_SDK/GD32VW55x_RELEASE_V1.0.2/MSDK/wpa_supplicant/src/ap\ieee802_11_shared.c **** #endif /* CONFIG_IEEE80211AX */
 420:C:/Users/stapi/OneDrive/Desktop/GD32VW553/V1_MQTT_OK/GD32VW55X_Wifi_BLE_SDK/GD32VW55x_RELEASE_V1.0.2/MSDK/wpa_supplicant/src/ap\ieee802_11_shared.c **** 		break;
 421:C:/Users/stapi/OneDrive/Desktop/GD32VW553/V1_MQTT_OK/GD32VW55X_Wifi_BLE_SDK/GD32VW55x_RELEASE_V1.0.2/MSDK/wpa_supplicant/src/ap\ieee802_11_shared.c **** 	case 10: /* Bits 80-87 */
 422:C:/Users/stapi/OneDrive/Desktop/GD32VW553/V1_MQTT_OK/GD32VW55X_Wifi_BLE_SDK/GD32VW55x_RELEASE_V1.0.2/MSDK/wpa_supplicant/src/ap\ieee802_11_shared.c **** #ifdef CONFIG_SAE
 423:C:/Users/stapi/OneDrive/Desktop/GD32VW553/V1_MQTT_OK/GD32VW55X_Wifi_BLE_SDK/GD32VW55x_RELEASE_V1.0.2/MSDK/wpa_supplicant/src/ap\ieee802_11_shared.c **** 		if (hapd->conf->wpa &&
 424:C:/Users/stapi/OneDrive/Desktop/GD32VW553/V1_MQTT_OK/GD32VW55X_Wifi_BLE_SDK/GD32VW55x_RELEASE_V1.0.2/MSDK/wpa_supplicant/src/ap\ieee802_11_shared.c **** 		    wpa_key_mgmt_sae(hapd->conf->wpa_key_mgmt)) {
 425:C:/Users/stapi/OneDrive/Desktop/GD32VW553/V1_MQTT_OK/GD32VW55X_Wifi_BLE_SDK/GD32VW55x_RELEASE_V1.0.2/MSDK/wpa_supplicant/src/ap\ieee802_11_shared.c **** 			int in_use = hostapd_sae_pw_id_in_use(hapd->conf);
 426:C:/Users/stapi/OneDrive/Desktop/GD32VW553/V1_MQTT_OK/GD32VW55X_Wifi_BLE_SDK/GD32VW55x_RELEASE_V1.0.2/MSDK/wpa_supplicant/src/ap\ieee802_11_shared.c **** 
 427:C:/Users/stapi/OneDrive/Desktop/GD32VW553/V1_MQTT_OK/GD32VW55X_Wifi_BLE_SDK/GD32VW55x_RELEASE_V1.0.2/MSDK/wpa_supplicant/src/ap\ieee802_11_shared.c **** 			if (in_use)
 428:C:/Users/stapi/OneDrive/Desktop/GD32VW553/V1_MQTT_OK/GD32VW55X_Wifi_BLE_SDK/GD32VW55x_RELEASE_V1.0.2/MSDK/wpa_supplicant/src/ap\ieee802_11_shared.c **** 				*pos |= 0x02; /* Bit 81 - SAE Password
 429:C:/Users/stapi/OneDrive/Desktop/GD32VW553/V1_MQTT_OK/GD32VW55X_Wifi_BLE_SDK/GD32VW55x_RELEASE_V1.0.2/MSDK/wpa_supplicant/src/ap\ieee802_11_shared.c **** 					       * Identifiers In Use */
 430:C:/Users/stapi/OneDrive/Desktop/GD32VW553/V1_MQTT_OK/GD32VW55X_Wifi_BLE_SDK/GD32VW55x_RELEASE_V1.0.2/MSDK/wpa_supplicant/src/ap\ieee802_11_shared.c **** 			if (in_use == 2)
 431:C:/Users/stapi/OneDrive/Desktop/GD32VW553/V1_MQTT_OK/GD32VW55X_Wifi_BLE_SDK/GD32VW55x_RELEASE_V1.0.2/MSDK/wpa_supplicant/src/ap\ieee802_11_shared.c **** 				*pos |= 0x04; /* Bit 82 - SAE Password
 432:C:/Users/stapi/OneDrive/Desktop/GD32VW553/V1_MQTT_OK/GD32VW55X_Wifi_BLE_SDK/GD32VW55x_RELEASE_V1.0.2/MSDK/wpa_supplicant/src/ap\ieee802_11_shared.c **** 					       * Identifiers Used Exclusively */
 433:C:/Users/stapi/OneDrive/Desktop/GD32VW553/V1_MQTT_OK/GD32VW55X_Wifi_BLE_SDK/GD32VW55x_RELEASE_V1.0.2/MSDK/wpa_supplicant/src/ap\ieee802_11_shared.c **** 		}
 434:C:/Users/stapi/OneDrive/Desktop/GD32VW553/V1_MQTT_OK/GD32VW55X_Wifi_BLE_SDK/GD32VW55x_RELEASE_V1.0.2/MSDK/wpa_supplicant/src/ap\ieee802_11_shared.c **** #endif /* CONFIG_SAE */
 435:C:/Users/stapi/OneDrive/Desktop/GD32VW553/V1_MQTT_OK/GD32VW55X_Wifi_BLE_SDK/GD32VW55x_RELEASE_V1.0.2/MSDK/wpa_supplicant/src/ap\ieee802_11_shared.c **** 		if (hapd->conf->beacon_prot &&
 436:C:/Users/stapi/OneDrive/Desktop/GD32VW553/V1_MQTT_OK/GD32VW55X_Wifi_BLE_SDK/GD32VW55x_RELEASE_V1.0.2/MSDK/wpa_supplicant/src/ap\ieee802_11_shared.c **** 		    (hapd->iface->drv_flags &
 437:C:/Users/stapi/OneDrive/Desktop/GD32VW553/V1_MQTT_OK/GD32VW55X_Wifi_BLE_SDK/GD32VW55x_RELEASE_V1.0.2/MSDK/wpa_supplicant/src/ap\ieee802_11_shared.c **** 		     WPA_DRIVER_FLAGS_BEACON_PROTECTION))
 438:C:/Users/stapi/OneDrive/Desktop/GD32VW553/V1_MQTT_OK/GD32VW55X_Wifi_BLE_SDK/GD32VW55x_RELEASE_V1.0.2/MSDK/wpa_supplicant/src/ap\ieee802_11_shared.c **** 			*pos |= 0x10; /* Bit 84 - Beacon Protection Enabled */
 439:C:/Users/stapi/OneDrive/Desktop/GD32VW553/V1_MQTT_OK/GD32VW55X_Wifi_BLE_SDK/GD32VW55x_RELEASE_V1.0.2/MSDK/wpa_supplicant/src/ap\ieee802_11_shared.c **** 		break;
 440:C:/Users/stapi/OneDrive/Desktop/GD32VW553/V1_MQTT_OK/GD32VW55X_Wifi_BLE_SDK/GD32VW55x_RELEASE_V1.0.2/MSDK/wpa_supplicant/src/ap\ieee802_11_shared.c **** 	case 11: /* Bits 88-95 */
 441:C:/Users/stapi/OneDrive/Desktop/GD32VW553/V1_MQTT_OK/GD32VW55X_Wifi_BLE_SDK/GD32VW55x_RELEASE_V1.0.2/MSDK/wpa_supplicant/src/ap\ieee802_11_shared.c **** #ifdef CONFIG_SAE_PK
 442:C:/Users/stapi/OneDrive/Desktop/GD32VW553/V1_MQTT_OK/GD32VW55X_Wifi_BLE_SDK/GD32VW55x_RELEASE_V1.0.2/MSDK/wpa_supplicant/src/ap\ieee802_11_shared.c **** 		if (hapd->conf->wpa &&
 443:C:/Users/stapi/OneDrive/Desktop/GD32VW553/V1_MQTT_OK/GD32VW55X_Wifi_BLE_SDK/GD32VW55x_RELEASE_V1.0.2/MSDK/wpa_supplicant/src/ap\ieee802_11_shared.c **** 		    wpa_key_mgmt_sae(hapd->conf->wpa_key_mgmt) &&
 444:C:/Users/stapi/OneDrive/Desktop/GD32VW553/V1_MQTT_OK/GD32VW55X_Wifi_BLE_SDK/GD32VW55x_RELEASE_V1.0.2/MSDK/wpa_supplicant/src/ap\ieee802_11_shared.c **** 		    hostapd_sae_pk_exclusively(hapd->conf))
 445:C:/Users/stapi/OneDrive/Desktop/GD32VW553/V1_MQTT_OK/GD32VW55X_Wifi_BLE_SDK/GD32VW55x_RELEASE_V1.0.2/MSDK/wpa_supplicant/src/ap\ieee802_11_shared.c **** 			*pos |= 0x01; /* Bit 88 - SAE PK Exclusively */
 446:C:/Users/stapi/OneDrive/Desktop/GD32VW553/V1_MQTT_OK/GD32VW55X_Wifi_BLE_SDK/GD32VW55x_RELEASE_V1.0.2/MSDK/wpa_supplicant/src/ap\ieee802_11_shared.c **** #endif /* CONFIG_SAE_PK */
 447:C:/Users/stapi/OneDrive/Desktop/GD32VW553/V1_MQTT_OK/GD32VW55X_Wifi_BLE_SDK/GD32VW55x_RELEASE_V1.0.2/MSDK/wpa_supplicant/src/ap\ieee802_11_shared.c **** 		break;
 448:C:/Users/stapi/OneDrive/Desktop/GD32VW553/V1_MQTT_OK/GD32VW55X_Wifi_BLE_SDK/GD32VW55x_RELEASE_V1.0.2/MSDK/wpa_supplicant/src/ap\ieee802_11_shared.c **** 	}
 449:C:/Users/stapi/OneDrive/Desktop/GD32VW553/V1_MQTT_OK/GD32VW55X_Wifi_BLE_SDK/GD32VW55x_RELEASE_V1.0.2/MSDK/wpa_supplicant/src/ap\ieee802_11_shared.c **** }
 450:C:/Users/stapi/OneDrive/Desktop/GD32VW553/V1_MQTT_OK/GD32VW55X_Wifi_BLE_SDK/GD32VW55x_RELEASE_V1.0.2/MSDK/wpa_supplicant/src/ap\ieee802_11_shared.c **** 
 451:C:/Users/stapi/OneDrive/Desktop/GD32VW553/V1_MQTT_OK/GD32VW55X_Wifi_BLE_SDK/GD32VW55x_RELEASE_V1.0.2/MSDK/wpa_supplicant/src/ap\ieee802_11_shared.c **** 
 452:C:/Users/stapi/OneDrive/Desktop/GD32VW553/V1_MQTT_OK/GD32VW55X_Wifi_BLE_SDK/GD32VW55x_RELEASE_V1.0.2/MSDK/wpa_supplicant/src/ap\ieee802_11_shared.c **** u8 * hostapd_eid_ext_capab(struct hostapd_data *hapd, u8 *eid)
 453:C:/Users/stapi/OneDrive/Desktop/GD32VW553/V1_MQTT_OK/GD32VW55X_Wifi_BLE_SDK/GD32VW55x_RELEASE_V1.0.2/MSDK/wpa_supplicant/src/ap\ieee802_11_shared.c **** {
 786              		.loc 1 453 1
 787              		.cfi_startproc
 788              	.LVL82:
 789 0000 17030000 		call	t0,__riscv_save_12
 789      E7020300 
 790              		.cfi_offset 27, -52
 791              		.cfi_offset 26, -48
 792              		.cfi_offset 25, -44
 793              		.cfi_offset 24, -40
 794              		.cfi_offset 23, -36
 795              		.cfi_offset 22, -32
 796              		.cfi_offset 21, -28
 797              		.cfi_offset 20, -24
 798              		.cfi_offset 19, -20
 799              		.cfi_offset 18, -16
 800              		.cfi_offset 9, -12
 801              		.cfi_offset 8, -8
 802              		.cfi_offset 1, -4
 803              		.cfi_def_cfa_offset 64
 454:C:/Users/stapi/OneDrive/Desktop/GD32VW553/V1_MQTT_OK/GD32VW55X_Wifi_BLE_SDK/GD32VW55x_RELEASE_V1.0.2/MSDK/wpa_supplicant/src/ap\ieee802_11_shared.c **** 	u8 *pos = eid;
 804              		.loc 1 454 2
 805              	.LVL83:
 455:C:/Users/stapi/OneDrive/Desktop/GD32VW553/V1_MQTT_OK/GD32VW55X_Wifi_BLE_SDK/GD32VW55x_RELEASE_V1.0.2/MSDK/wpa_supplicant/src/ap\ieee802_11_shared.c **** 	u8 len = EXT_CAPA_MAX_LEN, i;
 806              		.loc 1 455 2
 456:C:/Users/stapi/OneDrive/Desktop/GD32VW553/V1_MQTT_OK/GD32VW55X_Wifi_BLE_SDK/GD32VW55x_RELEASE_V1.0.2/MSDK/wpa_supplicant/src/ap\ieee802_11_shared.c **** 
 457:C:/Users/stapi/OneDrive/Desktop/GD32VW553/V1_MQTT_OK/GD32VW55X_Wifi_BLE_SDK/GD32VW55x_RELEASE_V1.0.2/MSDK/wpa_supplicant/src/ap\ieee802_11_shared.c **** 	if (len < hapd->iface->extended_capa_len)
 807              		.loc 1 457 2
 808              		.loc 1 457 23 is_stmt 0
 809 0008 1C41     		lw	a5,0(a0)
 810 000a BD49     		li	s3,15
 811 000c 370B0000 		lui	s6,%hi(.L48)
 812 0010 83A74745 		lw	a5,1108(a5)
 813              	.LBB55:
 814              	.LBB56:
 815              	.LBB57:
 816              	.LBB58:
 817              		.file 4 "..\\..\\..\\..\\wpa_supplicant\\src/common/defs.h"
   1:..\..\..\..\wpa_supplicant\src/common/defs.h **** /*
   2:..\..\..\..\wpa_supplicant\src/common/defs.h ****  * WPA Supplicant - Common definitions
   3:..\..\..\..\wpa_supplicant\src/common/defs.h ****  * Copyright (c) 2004-2018, Jouni Malinen <j@w1.fi>
   4:..\..\..\..\wpa_supplicant\src/common/defs.h ****  *
   5:..\..\..\..\wpa_supplicant\src/common/defs.h ****  * This software may be distributed under the terms of the BSD license.
   6:..\..\..\..\wpa_supplicant\src/common/defs.h ****  * See README for more details.
   7:..\..\..\..\wpa_supplicant\src/common/defs.h ****  */
   8:..\..\..\..\wpa_supplicant\src/common/defs.h **** 
   9:..\..\..\..\wpa_supplicant\src/common/defs.h **** #ifndef DEFS_H
  10:..\..\..\..\wpa_supplicant\src/common/defs.h **** #define DEFS_H
  11:..\..\..\..\wpa_supplicant\src/common/defs.h **** 
  12:..\..\..\..\wpa_supplicant\src/common/defs.h **** #define WPA_CIPHER_NONE BIT(0)
  13:..\..\..\..\wpa_supplicant\src/common/defs.h **** #define WPA_CIPHER_WEP40 BIT(1)
  14:..\..\..\..\wpa_supplicant\src/common/defs.h **** #define WPA_CIPHER_WEP104 BIT(2)
  15:..\..\..\..\wpa_supplicant\src/common/defs.h **** #define WPA_CIPHER_TKIP BIT(3)
  16:..\..\..\..\wpa_supplicant\src/common/defs.h **** #define WPA_CIPHER_CCMP BIT(4)
  17:..\..\..\..\wpa_supplicant\src/common/defs.h **** #define WPA_CIPHER_AES_128_CMAC BIT(5)
  18:..\..\..\..\wpa_supplicant\src/common/defs.h **** #define WPA_CIPHER_GCMP BIT(6)
  19:..\..\..\..\wpa_supplicant\src/common/defs.h **** #define WPA_CIPHER_SMS4 BIT(7)
  20:..\..\..\..\wpa_supplicant\src/common/defs.h **** #define WPA_CIPHER_GCMP_256 BIT(8)
  21:..\..\..\..\wpa_supplicant\src/common/defs.h **** #define WPA_CIPHER_CCMP_256 BIT(9)
  22:..\..\..\..\wpa_supplicant\src/common/defs.h **** #define WPA_CIPHER_BIP_GMAC_128 BIT(11)
  23:..\..\..\..\wpa_supplicant\src/common/defs.h **** #define WPA_CIPHER_BIP_GMAC_256 BIT(12)
  24:..\..\..\..\wpa_supplicant\src/common/defs.h **** #define WPA_CIPHER_BIP_CMAC_256 BIT(13)
  25:..\..\..\..\wpa_supplicant\src/common/defs.h **** #define WPA_CIPHER_GTK_NOT_USED BIT(14)
  26:..\..\..\..\wpa_supplicant\src/common/defs.h **** 
  27:..\..\..\..\wpa_supplicant\src/common/defs.h **** #define WPA_KEY_MGMT_IEEE8021X BIT(0)
  28:..\..\..\..\wpa_supplicant\src/common/defs.h **** #define WPA_KEY_MGMT_PSK BIT(1)
  29:..\..\..\..\wpa_supplicant\src/common/defs.h **** #define WPA_KEY_MGMT_NONE BIT(2)
  30:..\..\..\..\wpa_supplicant\src/common/defs.h **** #define WPA_KEY_MGMT_IEEE8021X_NO_WPA BIT(3)
  31:..\..\..\..\wpa_supplicant\src/common/defs.h **** #define WPA_KEY_MGMT_WPA_NONE BIT(4)
  32:..\..\..\..\wpa_supplicant\src/common/defs.h **** #define WPA_KEY_MGMT_FT_IEEE8021X BIT(5)
  33:..\..\..\..\wpa_supplicant\src/common/defs.h **** #define WPA_KEY_MGMT_FT_PSK BIT(6)
  34:..\..\..\..\wpa_supplicant\src/common/defs.h **** #define WPA_KEY_MGMT_IEEE8021X_SHA256 BIT(7)
  35:..\..\..\..\wpa_supplicant\src/common/defs.h **** #define WPA_KEY_MGMT_PSK_SHA256 BIT(8)
  36:..\..\..\..\wpa_supplicant\src/common/defs.h **** #define WPA_KEY_MGMT_WPS BIT(9)
  37:..\..\..\..\wpa_supplicant\src/common/defs.h **** #define WPA_KEY_MGMT_SAE BIT(10)
  38:..\..\..\..\wpa_supplicant\src/common/defs.h **** #define WPA_KEY_MGMT_FT_SAE BIT(11)
  39:..\..\..\..\wpa_supplicant\src/common/defs.h **** #define WPA_KEY_MGMT_WAPI_PSK BIT(12)
  40:..\..\..\..\wpa_supplicant\src/common/defs.h **** #define WPA_KEY_MGMT_WAPI_CERT BIT(13)
  41:..\..\..\..\wpa_supplicant\src/common/defs.h **** #define WPA_KEY_MGMT_CCKM BIT(14)
  42:..\..\..\..\wpa_supplicant\src/common/defs.h **** #define WPA_KEY_MGMT_OSEN BIT(15)
  43:..\..\..\..\wpa_supplicant\src/common/defs.h **** #define WPA_KEY_MGMT_IEEE8021X_SUITE_B BIT(16)
  44:..\..\..\..\wpa_supplicant\src/common/defs.h **** #define WPA_KEY_MGMT_IEEE8021X_SUITE_B_192 BIT(17)
  45:..\..\..\..\wpa_supplicant\src/common/defs.h **** #define WPA_KEY_MGMT_FILS_SHA256 BIT(18)
  46:..\..\..\..\wpa_supplicant\src/common/defs.h **** #define WPA_KEY_MGMT_FILS_SHA384 BIT(19)
  47:..\..\..\..\wpa_supplicant\src/common/defs.h **** #define WPA_KEY_MGMT_FT_FILS_SHA256 BIT(20)
  48:..\..\..\..\wpa_supplicant\src/common/defs.h **** #define WPA_KEY_MGMT_FT_FILS_SHA384 BIT(21)
  49:..\..\..\..\wpa_supplicant\src/common/defs.h **** #define WPA_KEY_MGMT_OWE BIT(22)
  50:..\..\..\..\wpa_supplicant\src/common/defs.h **** #define WPA_KEY_MGMT_DPP BIT(23)
  51:..\..\..\..\wpa_supplicant\src/common/defs.h **** #define WPA_KEY_MGMT_FT_IEEE8021X_SHA384 BIT(24)
  52:..\..\..\..\wpa_supplicant\src/common/defs.h **** #define WPA_KEY_MGMT_PASN BIT(25)
  53:..\..\..\..\wpa_supplicant\src/common/defs.h **** 
  54:..\..\..\..\wpa_supplicant\src/common/defs.h **** 
  55:..\..\..\..\wpa_supplicant\src/common/defs.h **** #define WPA_KEY_MGMT_FT (WPA_KEY_MGMT_FT_PSK | \
  56:..\..\..\..\wpa_supplicant\src/common/defs.h **** 			 WPA_KEY_MGMT_FT_IEEE8021X | \
  57:..\..\..\..\wpa_supplicant\src/common/defs.h **** 			 WPA_KEY_MGMT_FT_IEEE8021X_SHA384 | \
  58:..\..\..\..\wpa_supplicant\src/common/defs.h **** 			 WPA_KEY_MGMT_FT_SAE | \
  59:..\..\..\..\wpa_supplicant\src/common/defs.h **** 			 WPA_KEY_MGMT_FT_FILS_SHA256 | \
  60:..\..\..\..\wpa_supplicant\src/common/defs.h **** 			 WPA_KEY_MGMT_FT_FILS_SHA384)
  61:..\..\..\..\wpa_supplicant\src/common/defs.h **** 
  62:..\..\..\..\wpa_supplicant\src/common/defs.h **** static inline int wpa_key_mgmt_wpa_ieee8021x(int akm)
  63:..\..\..\..\wpa_supplicant\src/common/defs.h **** {
  64:..\..\..\..\wpa_supplicant\src/common/defs.h **** 	return !!(akm & (WPA_KEY_MGMT_IEEE8021X |
  65:..\..\..\..\wpa_supplicant\src/common/defs.h **** 			 WPA_KEY_MGMT_FT_IEEE8021X |
  66:..\..\..\..\wpa_supplicant\src/common/defs.h **** 			 WPA_KEY_MGMT_FT_IEEE8021X_SHA384 |
  67:..\..\..\..\wpa_supplicant\src/common/defs.h **** 			 WPA_KEY_MGMT_CCKM |
  68:..\..\..\..\wpa_supplicant\src/common/defs.h **** 			 WPA_KEY_MGMT_OSEN |
  69:..\..\..\..\wpa_supplicant\src/common/defs.h **** 			 WPA_KEY_MGMT_IEEE8021X_SHA256 |
  70:..\..\..\..\wpa_supplicant\src/common/defs.h **** 			 WPA_KEY_MGMT_IEEE8021X_SUITE_B |
  71:..\..\..\..\wpa_supplicant\src/common/defs.h **** 			 WPA_KEY_MGMT_IEEE8021X_SUITE_B_192 |
  72:..\..\..\..\wpa_supplicant\src/common/defs.h **** 			 WPA_KEY_MGMT_FILS_SHA256 |
  73:..\..\..\..\wpa_supplicant\src/common/defs.h **** 			 WPA_KEY_MGMT_FILS_SHA384 |
  74:..\..\..\..\wpa_supplicant\src/common/defs.h **** 			 WPA_KEY_MGMT_FT_FILS_SHA256 |
  75:..\..\..\..\wpa_supplicant\src/common/defs.h **** 			 WPA_KEY_MGMT_FT_FILS_SHA384));
  76:..\..\..\..\wpa_supplicant\src/common/defs.h **** }
  77:..\..\..\..\wpa_supplicant\src/common/defs.h **** 
  78:..\..\..\..\wpa_supplicant\src/common/defs.h **** static inline int wpa_key_mgmt_wpa_psk_no_sae(int akm)
  79:..\..\..\..\wpa_supplicant\src/common/defs.h **** {
  80:..\..\..\..\wpa_supplicant\src/common/defs.h **** 	return !!(akm & (WPA_KEY_MGMT_PSK |
  81:..\..\..\..\wpa_supplicant\src/common/defs.h **** 			 WPA_KEY_MGMT_FT_PSK |
  82:..\..\..\..\wpa_supplicant\src/common/defs.h **** 			 WPA_KEY_MGMT_PSK_SHA256));
  83:..\..\..\..\wpa_supplicant\src/common/defs.h **** }
  84:..\..\..\..\wpa_supplicant\src/common/defs.h **** 
  85:..\..\..\..\wpa_supplicant\src/common/defs.h **** static inline int wpa_key_mgmt_wpa_psk(int akm)
  86:..\..\..\..\wpa_supplicant\src/common/defs.h **** {
  87:..\..\..\..\wpa_supplicant\src/common/defs.h **** 	return !!(akm & (WPA_KEY_MGMT_PSK |
  88:..\..\..\..\wpa_supplicant\src/common/defs.h **** 			 WPA_KEY_MGMT_FT_PSK |
  89:..\..\..\..\wpa_supplicant\src/common/defs.h **** 			 WPA_KEY_MGMT_PSK_SHA256 |
  90:..\..\..\..\wpa_supplicant\src/common/defs.h **** 			 WPA_KEY_MGMT_SAE |
  91:..\..\..\..\wpa_supplicant\src/common/defs.h **** 			 WPA_KEY_MGMT_FT_SAE));
  92:..\..\..\..\wpa_supplicant\src/common/defs.h **** }
  93:..\..\..\..\wpa_supplicant\src/common/defs.h **** 
  94:..\..\..\..\wpa_supplicant\src/common/defs.h **** static inline int wpa_key_mgmt_ft(int akm)
  95:..\..\..\..\wpa_supplicant\src/common/defs.h **** {
  96:..\..\..\..\wpa_supplicant\src/common/defs.h **** 	return !!(akm & WPA_KEY_MGMT_FT);
  97:..\..\..\..\wpa_supplicant\src/common/defs.h **** }
  98:..\..\..\..\wpa_supplicant\src/common/defs.h **** 
  99:..\..\..\..\wpa_supplicant\src/common/defs.h **** static inline int wpa_key_mgmt_only_ft(int akm)
 100:..\..\..\..\wpa_supplicant\src/common/defs.h **** {
 101:..\..\..\..\wpa_supplicant\src/common/defs.h **** 	int ft = wpa_key_mgmt_ft(akm);
 102:..\..\..\..\wpa_supplicant\src/common/defs.h **** 	akm &= ~WPA_KEY_MGMT_FT;
 103:..\..\..\..\wpa_supplicant\src/common/defs.h **** 	return ft && !akm;
 104:..\..\..\..\wpa_supplicant\src/common/defs.h **** }
 105:..\..\..\..\wpa_supplicant\src/common/defs.h **** 
 106:..\..\..\..\wpa_supplicant\src/common/defs.h **** static inline int wpa_key_mgmt_ft_psk(int akm)
 107:..\..\..\..\wpa_supplicant\src/common/defs.h **** {
 108:..\..\..\..\wpa_supplicant\src/common/defs.h **** 	return !!(akm & WPA_KEY_MGMT_FT_PSK);
 109:..\..\..\..\wpa_supplicant\src/common/defs.h **** }
 110:..\..\..\..\wpa_supplicant\src/common/defs.h **** 
 111:..\..\..\..\wpa_supplicant\src/common/defs.h **** static inline int wpa_key_mgmt_sae(int akm)
 112:..\..\..\..\wpa_supplicant\src/common/defs.h **** {
 113:..\..\..\..\wpa_supplicant\src/common/defs.h **** 	return !!(akm & (WPA_KEY_MGMT_SAE |
 818              		.loc 4 113 16
 819 0014 856B     		li	s7,4096
 820              	.LBE58:
 821              	.LBE57:
 822              	.LBE56:
 823              	.LBE55:
 453:C:/Users/stapi/OneDrive/Desktop/GD32VW553/V1_MQTT_OK/GD32VW55X_Wifi_BLE_SDK/GD32VW55x_RELEASE_V1.0.2/MSDK/wpa_supplicant/src/ap\ieee802_11_shared.c **** 	u8 *pos = eid;
 824              		.loc 1 453 1
 825 0016 AA84     		mv	s1,a0
 826 0018 B3F9F90A 		maxu	s3,s3,a5
 458:C:/Users/stapi/OneDrive/Desktop/GD32VW553/V1_MQTT_OK/GD32VW55X_Wifi_BLE_SDK/GD32VW55x_RELEASE_V1.0.2/MSDK/wpa_supplicant/src/ap\ieee802_11_shared.c **** 		len = hapd->iface->extended_capa_len;
 459:C:/Users/stapi/OneDrive/Desktop/GD32VW553/V1_MQTT_OK/GD32VW55X_Wifi_BLE_SDK/GD32VW55x_RELEASE_V1.0.2/MSDK/wpa_supplicant/src/ap\ieee802_11_shared.c **** 
 460:C:/Users/stapi/OneDrive/Desktop/GD32VW553/V1_MQTT_OK/GD32VW55X_Wifi_BLE_SDK/GD32VW55x_RELEASE_V1.0.2/MSDK/wpa_supplicant/src/ap\ieee802_11_shared.c **** 	*pos++ = WLAN_EID_EXT_CAPAB;
 827              		.loc 1 460 9
 828 001c 9307F007 		li	a5,127
 829 0020 13F9F90F 		andi	s2,s3,0xff
 830              	.LVL84:
 831              		.loc 1 460 2 is_stmt 1
 453:C:/Users/stapi/OneDrive/Desktop/GD32VW553/V1_MQTT_OK/GD32VW55X_Wifi_BLE_SDK/GD32VW55x_RELEASE_V1.0.2/MSDK/wpa_supplicant/src/ap\ieee802_11_shared.c **** 	u8 *pos = eid;
 832              		.loc 1 453 1 is_stmt 0
 833 0024 2E8A     		mv	s4,a1
 834              		.loc 1 460 9
 835 0026 2380F500 		sb	a5,0(a1)
 461:C:/Users/stapi/OneDrive/Desktop/GD32VW553/V1_MQTT_OK/GD32VW55X_Wifi_BLE_SDK/GD32VW55x_RELEASE_V1.0.2/MSDK/wpa_supplicant/src/ap\ieee802_11_shared.c **** 	*pos++ = len;
 836              		.loc 1 461 2 is_stmt 1
 837              		.loc 1 461 6 is_stmt 0
 838 002a 13842500 		addi	s0,a1,2
 839              	.LVL85:
 840              		.loc 1 461 9
 841 002e A3802501 		sb	s2,1(a1)
 462:C:/Users/stapi/OneDrive/Desktop/GD32VW553/V1_MQTT_OK/GD32VW55X_Wifi_BLE_SDK/GD32VW55x_RELEASE_V1.0.2/MSDK/wpa_supplicant/src/ap\ieee802_11_shared.c **** 	for (i = 0; i < len; i++, pos++) {
 842              		.loc 1 462 2 is_stmt 1
 843              	.LVL86:
 844 0032 814A     		li	s5,0
 845 0034 130B0B00 		addi	s6,s6,%lo(.L48)
 846              	.LBB69:
 847              	.LBB66:
 436:C:/Users/stapi/OneDrive/Desktop/GD32VW553/V1_MQTT_OK/GD32VW55X_Wifi_BLE_SDK/GD32VW55x_RELEASE_V1.0.2/MSDK/wpa_supplicant/src/ap\ieee802_11_shared.c **** 		     WPA_DRIVER_FLAGS_BEACON_PROTECTION))
 848              		.loc 1 436 31 is_stmt 0
 849 0038 B70C0040 		li	s9,1073741824
 850              	.LBB61:
 851              	.LBB59:
 852              		.loc 4 113 16
 853 003c 938B0BC0 		addi	s7,s7,-1024
 854              	.LBE59:
 855              	.LBE61:
 856              	.LBB62:
 430:C:/Users/stapi/OneDrive/Desktop/GD32VW553/V1_MQTT_OK/GD32VW55X_Wifi_BLE_SDK/GD32VW55x_RELEASE_V1.0.2/MSDK/wpa_supplicant/src/ap\ieee802_11_shared.c **** 				*pos |= 0x04; /* Bit 82 - SAE Password
 857              		.loc 1 430 7
 858 0040 894D     		li	s11,2
 859              	.LBE62:
 399:C:/Users/stapi/OneDrive/Desktop/GD32VW553/V1_MQTT_OK/GD32VW55X_Wifi_BLE_SDK/GD32VW55x_RELEASE_V1.0.2/MSDK/wpa_supplicant/src/ap\ieee802_11_shared.c **** 		break;
 860              		.loc 1 399 9
 861 0042 054C     		li	s8,1
 862              	.LVL87:
 863              	.L45:
 864 0044 13FDFA0F 		andi	s10,s5,0xff
 865              	.LVL88:
 866              	.LBE66:
 867              	.LBE69:
 868              		.loc 1 462 14 is_stmt 1 discriminator 1
 869              		.loc 1 462 2 is_stmt 0 discriminator 1
 870 0048 63642D03 		bgtu	s2,s10,.L73
 871 004c 93F7F90F 		andi	a5,s3,255
 872 0050 8507     		addi	a5,a5,1
 873 0052 D297     		add	a5,s4,a5
 874              	.L74:
 463:C:/Users/stapi/OneDrive/Desktop/GD32VW553/V1_MQTT_OK/GD32VW55X_Wifi_BLE_SDK/GD32VW55x_RELEASE_V1.0.2/MSDK/wpa_supplicant/src/ap\ieee802_11_shared.c **** 		hostapd_ext_capab_byte(hapd, pos, i);
 464:C:/Users/stapi/OneDrive/Desktop/GD32VW553/V1_MQTT_OK/GD32VW55X_Wifi_BLE_SDK/GD32VW55x_RELEASE_V1.0.2/MSDK/wpa_supplicant/src/ap\ieee802_11_shared.c **** 
 465:C:/Users/stapi/OneDrive/Desktop/GD32VW553/V1_MQTT_OK/GD32VW55X_Wifi_BLE_SDK/GD32VW55x_RELEASE_V1.0.2/MSDK/wpa_supplicant/src/ap\ieee802_11_shared.c **** 		if (i < hapd->iface->extended_capa_len) {
 466:C:/Users/stapi/OneDrive/Desktop/GD32VW553/V1_MQTT_OK/GD32VW55X_Wifi_BLE_SDK/GD32VW55x_RELEASE_V1.0.2/MSDK/wpa_supplicant/src/ap\ieee802_11_shared.c **** 			*pos &= ~hapd->iface->extended_capa_mask[i];
 467:C:/Users/stapi/OneDrive/Desktop/GD32VW553/V1_MQTT_OK/GD32VW55X_Wifi_BLE_SDK/GD32VW55x_RELEASE_V1.0.2/MSDK/wpa_supplicant/src/ap\ieee802_11_shared.c **** 			*pos |= hapd->iface->extended_capa[i];
 468:C:/Users/stapi/OneDrive/Desktop/GD32VW553/V1_MQTT_OK/GD32VW55X_Wifi_BLE_SDK/GD32VW55x_RELEASE_V1.0.2/MSDK/wpa_supplicant/src/ap\ieee802_11_shared.c **** 		}
 469:C:/Users/stapi/OneDrive/Desktop/GD32VW553/V1_MQTT_OK/GD32VW55X_Wifi_BLE_SDK/GD32VW55x_RELEASE_V1.0.2/MSDK/wpa_supplicant/src/ap\ieee802_11_shared.c **** 
 470:C:/Users/stapi/OneDrive/Desktop/GD32VW553/V1_MQTT_OK/GD32VW55X_Wifi_BLE_SDK/GD32VW55x_RELEASE_V1.0.2/MSDK/wpa_supplicant/src/ap\ieee802_11_shared.c **** 		if (i < EXT_CAPA_MAX_LEN) {
 471:C:/Users/stapi/OneDrive/Desktop/GD32VW553/V1_MQTT_OK/GD32VW55X_Wifi_BLE_SDK/GD32VW55x_RELEASE_V1.0.2/MSDK/wpa_supplicant/src/ap\ieee802_11_shared.c **** 			*pos &= ~hapd->conf->ext_capa_mask[i];
 472:C:/Users/stapi/OneDrive/Desktop/GD32VW553/V1_MQTT_OK/GD32VW55X_Wifi_BLE_SDK/GD32VW55x_RELEASE_V1.0.2/MSDK/wpa_supplicant/src/ap\ieee802_11_shared.c **** 			*pos |= hapd->conf->ext_capa[i];
 473:C:/Users/stapi/OneDrive/Desktop/GD32VW553/V1_MQTT_OK/GD32VW55X_Wifi_BLE_SDK/GD32VW55x_RELEASE_V1.0.2/MSDK/wpa_supplicant/src/ap\ieee802_11_shared.c **** 		}
 474:C:/Users/stapi/OneDrive/Desktop/GD32VW553/V1_MQTT_OK/GD32VW55X_Wifi_BLE_SDK/GD32VW55x_RELEASE_V1.0.2/MSDK/wpa_supplicant/src/ap\ieee802_11_shared.c **** 	}
 475:C:/Users/stapi/OneDrive/Desktop/GD32VW553/V1_MQTT_OK/GD32VW55X_Wifi_BLE_SDK/GD32VW55x_RELEASE_V1.0.2/MSDK/wpa_supplicant/src/ap\ieee802_11_shared.c **** 
 476:C:/Users/stapi/OneDrive/Desktop/GD32VW553/V1_MQTT_OK/GD32VW55X_Wifi_BLE_SDK/GD32VW55x_RELEASE_V1.0.2/MSDK/wpa_supplicant/src/ap\ieee802_11_shared.c **** 	while (len > 0 && eid[1 + len] == 0) {
 875              		.loc 1 476 8 is_stmt 1
 876 0054 63090900 		beq	s2,zero,.L97
 877              		.loc 1 476 17 is_stmt 0 discriminator 1
 878 0058 03C70700 		lbu	a4,0(a5)
 879 005c FD17     		addi	a5,a5,-1
 880 005e 6306071C 		beq	a4,zero,.L76
 477:C:/Users/stapi/OneDrive/Desktop/GD32VW553/V1_MQTT_OK/GD32VW55X_Wifi_BLE_SDK/GD32VW55x_RELEASE_V1.0.2/MSDK/wpa_supplicant/src/ap\ieee802_11_shared.c **** 		len--;
 478:C:/Users/stapi/OneDrive/Desktop/GD32VW553/V1_MQTT_OK/GD32VW55X_Wifi_BLE_SDK/GD32VW55x_RELEASE_V1.0.2/MSDK/wpa_supplicant/src/ap\ieee802_11_shared.c **** 		eid[1] = len;
 479:C:/Users/stapi/OneDrive/Desktop/GD32VW553/V1_MQTT_OK/GD32VW55X_Wifi_BLE_SDK/GD32VW55x_RELEASE_V1.0.2/MSDK/wpa_supplicant/src/ap\ieee802_11_shared.c **** 	}
 480:C:/Users/stapi/OneDrive/Desktop/GD32VW553/V1_MQTT_OK/GD32VW55X_Wifi_BLE_SDK/GD32VW55x_RELEASE_V1.0.2/MSDK/wpa_supplicant/src/ap\ieee802_11_shared.c **** 	if (len == 0)
 881              		.loc 1 480 2 is_stmt 1
 481:C:/Users/stapi/OneDrive/Desktop/GD32VW553/V1_MQTT_OK/GD32VW55X_Wifi_BLE_SDK/GD32VW55x_RELEASE_V1.0.2/MSDK/wpa_supplicant/src/ap\ieee802_11_shared.c **** 		return eid;
 482:C:/Users/stapi/OneDrive/Desktop/GD32VW553/V1_MQTT_OK/GD32VW55X_Wifi_BLE_SDK/GD32VW55x_RELEASE_V1.0.2/MSDK/wpa_supplicant/src/ap\ieee802_11_shared.c **** 
 483:C:/Users/stapi/OneDrive/Desktop/GD32VW553/V1_MQTT_OK/GD32VW55X_Wifi_BLE_SDK/GD32VW55x_RELEASE_V1.0.2/MSDK/wpa_supplicant/src/ap\ieee802_11_shared.c **** 	return eid + 2 + len;
 882              		.loc 1 483 2
 883              		.loc 1 483 17 is_stmt 0
 884 0062 0909     		addi	s2,s2,2
 885              	.LVL89:
 886 0064 4A9A     		add	s4,s4,s2
 887              	.LVL90:
 888              	.L97:
 484:C:/Users/stapi/OneDrive/Desktop/GD32VW553/V1_MQTT_OK/GD32VW55X_Wifi_BLE_SDK/GD32VW55x_RELEASE_V1.0.2/MSDK/wpa_supplicant/src/ap\ieee802_11_shared.c **** }
 889              		.loc 1 484 1
 890 0066 5285     		mv	a0,s4
 891 0068 17030000 		tail	__riscv_restore_12
 891      67000300 
 892              		.cfi_remember_state
 893              		.cfi_restore 27
 894              		.cfi_restore 26
 895              		.cfi_restore 25
 896              		.cfi_restore 24
 897              		.cfi_restore 23
 898              		.cfi_restore 22
 899              		.cfi_restore 21
 900              		.cfi_restore 20
 901              		.cfi_restore 19
 902              		.cfi_restore 18
 903              		.cfi_restore 9
 904              		.cfi_restore 8
 905              		.cfi_restore 1
 906              		.cfi_def_cfa_offset 0
 907              	.LVL91:
 908              	.L73:
 909              		.cfi_restore_state
 463:C:/Users/stapi/OneDrive/Desktop/GD32VW553/V1_MQTT_OK/GD32VW55X_Wifi_BLE_SDK/GD32VW55x_RELEASE_V1.0.2/MSDK/wpa_supplicant/src/ap\ieee802_11_shared.c **** 
 910              		.loc 1 463 3 is_stmt 1
 911              	.LBB70:
 912              	.LBB67:
 345:C:/Users/stapi/OneDrive/Desktop/GD32VW553/V1_MQTT_OK/GD32VW55X_Wifi_BLE_SDK/GD32VW55x_RELEASE_V1.0.2/MSDK/wpa_supplicant/src/ap\ieee802_11_shared.c **** 
 913              		.loc 1 345 2
 345:C:/Users/stapi/OneDrive/Desktop/GD32VW553/V1_MQTT_OK/GD32VW55X_Wifi_BLE_SDK/GD32VW55x_RELEASE_V1.0.2/MSDK/wpa_supplicant/src/ap\ieee802_11_shared.c **** 
 914              		.loc 1 345 7 is_stmt 0
 915 0070 23000400 		sb	zero,0(s0)
 347:C:/Users/stapi/OneDrive/Desktop/GD32VW553/V1_MQTT_OK/GD32VW55X_Wifi_BLE_SDK/GD32VW55x_RELEASE_V1.0.2/MSDK/wpa_supplicant/src/ap\ieee802_11_shared.c **** 	case 0: /* Bits 0-7 */
 916              		.loc 1 347 2 is_stmt 1
 917 0074 A947     		li	a5,10
 918 0076 63E5A70D 		bgtu	s10,a5,.L46
 919 007a B3476D21 		sh2add	a5,s10,s6
 920 007e 9C43     		lw	a5,0(a5)
 921 0080 8287     		jr	a5
 922              		.section	.rodata.hostapd_eid_ext_capab,"a",@progbits
 923              		.align	2
 924              		.align	2
 925              	.L48:
 926 0000 00000000 		.word	.L56
 927 0004 00000000 		.word	.L55
 928 0008 00000000 		.word	.L54
 929 000c 00000000 		.word	.L53
 930 0010 00000000 		.word	.L52
 931 0014 00000000 		.word	.L46
 932 0018 00000000 		.word	.L51
 933 001c 00000000 		.word	.L46
 934 0020 00000000 		.word	.L50
 935 0024 00000000 		.word	.L49
 936 0028 00000000 		.word	.L47
 937              		.section	.text.hostapd_eid_ext_capab
 938              	.L56:
 939              	.LVL92:
 349:C:/Users/stapi/OneDrive/Desktop/GD32VW553/V1_MQTT_OK/GD32VW55X_Wifi_BLE_SDK/GD32VW55x_RELEASE_V1.0.2/MSDK/wpa_supplicant/src/ap\ieee802_11_shared.c **** 			*pos |= 0x01; /* Bit 0 - Coexistence management */
 940              		.loc 1 349 3
 349:C:/Users/stapi/OneDrive/Desktop/GD32VW553/V1_MQTT_OK/GD32VW55X_Wifi_BLE_SDK/GD32VW55x_RELEASE_V1.0.2/MSDK/wpa_supplicant/src/ap\ieee802_11_shared.c **** 			*pos |= 0x01; /* Bit 0 - Coexistence management */
 941              		.loc 1 349 18 is_stmt 0
 942 0082 DC40     		lw	a5,4(s1)
 349:C:/Users/stapi/OneDrive/Desktop/GD32VW553/V1_MQTT_OK/GD32VW55X_Wifi_BLE_SDK/GD32VW55x_RELEASE_V1.0.2/MSDK/wpa_supplicant/src/ap\ieee802_11_shared.c **** 			*pos |= 0x01; /* Bit 0 - Coexistence management */
 943              		.loc 1 349 6
 944 0084 83A70713 		lw	a5,304(a5)
 945 0088 99C3     		beq	a5,zero,.L57
 350:C:/Users/stapi/OneDrive/Desktop/GD32VW553/V1_MQTT_OK/GD32VW55X_Wifi_BLE_SDK/GD32VW55x_RELEASE_V1.0.2/MSDK/wpa_supplicant/src/ap\ieee802_11_shared.c **** 		if (hapd->iface->drv_flags & WPA_DRIVER_FLAGS_AP_CSA)
 946              		.loc 1 350 4 is_stmt 1
 350:C:/Users/stapi/OneDrive/Desktop/GD32VW553/V1_MQTT_OK/GD32VW55X_Wifi_BLE_SDK/GD32VW55x_RELEASE_V1.0.2/MSDK/wpa_supplicant/src/ap\ieee802_11_shared.c **** 		if (hapd->iface->drv_flags & WPA_DRIVER_FLAGS_AP_CSA)
 947              		.loc 1 350 9 is_stmt 0
 948 008a 23008401 		sb	s8,0(s0)
 949              	.L57:
 351:C:/Users/stapi/OneDrive/Desktop/GD32VW553/V1_MQTT_OK/GD32VW55X_Wifi_BLE_SDK/GD32VW55x_RELEASE_V1.0.2/MSDK/wpa_supplicant/src/ap\ieee802_11_shared.c **** 			*pos |= 0x04; /* Bit 2 - Extended Channel Switching */
 950              		.loc 1 351 3 is_stmt 1
 351:C:/Users/stapi/OneDrive/Desktop/GD32VW553/V1_MQTT_OK/GD32VW55X_Wifi_BLE_SDK/GD32VW55x_RELEASE_V1.0.2/MSDK/wpa_supplicant/src/ap\ieee802_11_shared.c **** 			*pos |= 0x04; /* Bit 2 - Extended Channel Switching */
 951              		.loc 1 351 18 is_stmt 0
 952 008e 9C40     		lw	a5,0(s1)
 351:C:/Users/stapi/OneDrive/Desktop/GD32VW553/V1_MQTT_OK/GD32VW55X_Wifi_BLE_SDK/GD32VW55x_RELEASE_V1.0.2/MSDK/wpa_supplicant/src/ap\ieee802_11_shared.c **** 			*pos |= 0x04; /* Bit 2 - Extended Channel Switching */
 953              		.loc 1 351 30
 954 0090 83A78743 		lw	a5,1080(a5)
 351:C:/Users/stapi/OneDrive/Desktop/GD32VW553/V1_MQTT_OK/GD32VW55X_Wifi_BLE_SDK/GD32VW55x_RELEASE_V1.0.2/MSDK/wpa_supplicant/src/ap\ieee802_11_shared.c **** 			*pos |= 0x04; /* Bit 2 - Extended Channel Switching */
 955              		.loc 1 351 6
 956 0094 63D6070A 		bge	a5,zero,.L46
 352:C:/Users/stapi/OneDrive/Desktop/GD32VW553/V1_MQTT_OK/GD32VW55X_Wifi_BLE_SDK/GD32VW55x_RELEASE_V1.0.2/MSDK/wpa_supplicant/src/ap\ieee802_11_shared.c **** 		break;
 957              		.loc 1 352 4 is_stmt 1
 352:C:/Users/stapi/OneDrive/Desktop/GD32VW553/V1_MQTT_OK/GD32VW55X_Wifi_BLE_SDK/GD32VW55x_RELEASE_V1.0.2/MSDK/wpa_supplicant/src/ap\ieee802_11_shared.c **** 		break;
 958              		.loc 1 352 9 is_stmt 0
 959 0098 83470400 		lbu	a5,0(s0)
 960 009c 93E74700 		ori	a5,a5,4
 961              	.LVL93:
 962              	.L136:
 438:C:/Users/stapi/OneDrive/Desktop/GD32VW553/V1_MQTT_OK/GD32VW55X_Wifi_BLE_SDK/GD32VW55x_RELEASE_V1.0.2/MSDK/wpa_supplicant/src/ap\ieee802_11_shared.c **** 		break;
 963              		.loc 1 438 9
 964 00a0 2300F400 		sb	a5,0(s0)
 965 00a4 71A8     		j	.L46
 966              	.LVL94:
 967              	.L55:
 355:C:/Users/stapi/OneDrive/Desktop/GD32VW553/V1_MQTT_OK/GD32VW55X_Wifi_BLE_SDK/GD32VW55x_RELEASE_V1.0.2/MSDK/wpa_supplicant/src/ap\ieee802_11_shared.c **** 			*pos |= 0x10; /* Bit 12 - Proxy ARP */
 968              		.loc 1 355 3 is_stmt 1
 355:C:/Users/stapi/OneDrive/Desktop/GD32VW553/V1_MQTT_OK/GD32VW55X_Wifi_BLE_SDK/GD32VW55x_RELEASE_V1.0.2/MSDK/wpa_supplicant/src/ap\ieee802_11_shared.c **** 			*pos |= 0x10; /* Bit 12 - Proxy ARP */
 969              		.loc 1 355 17 is_stmt 0
 970 00a6 9C44     		lw	a5,8(s1)
 355:C:/Users/stapi/OneDrive/Desktop/GD32VW553/V1_MQTT_OK/GD32VW55X_Wifi_BLE_SDK/GD32VW55x_RELEASE_V1.0.2/MSDK/wpa_supplicant/src/ap\ieee802_11_shared.c **** 			*pos |= 0x10; /* Bit 12 - Proxy ARP */
 971              		.loc 1 355 6
 972 00a8 83A78736 		lw	a5,872(a5)
 973 00ac 81C7     		beq	a5,zero,.L59
 356:C:/Users/stapi/OneDrive/Desktop/GD32VW553/V1_MQTT_OK/GD32VW55X_Wifi_BLE_SDK/GD32VW55x_RELEASE_V1.0.2/MSDK/wpa_supplicant/src/ap\ieee802_11_shared.c **** 		if (hapd->conf->coloc_intf_reporting) {
 974              		.loc 1 356 4 is_stmt 1
 356:C:/Users/stapi/OneDrive/Desktop/GD32VW553/V1_MQTT_OK/GD32VW55X_Wifi_BLE_SDK/GD32VW55x_RELEASE_V1.0.2/MSDK/wpa_supplicant/src/ap\ieee802_11_shared.c **** 		if (hapd->conf->coloc_intf_reporting) {
 975              		.loc 1 356 9 is_stmt 0
 976 00ae C147     		li	a5,16
 977 00b0 2300F400 		sb	a5,0(s0)
 978              	.L59:
 357:C:/Users/stapi/OneDrive/Desktop/GD32VW553/V1_MQTT_OK/GD32VW55X_Wifi_BLE_SDK/GD32VW55x_RELEASE_V1.0.2/MSDK/wpa_supplicant/src/ap\ieee802_11_shared.c **** 			/* Bit 13 - Collocated Interference Reporting */
 979              		.loc 1 357 3 is_stmt 1
 357:C:/Users/stapi/OneDrive/Desktop/GD32VW553/V1_MQTT_OK/GD32VW55X_Wifi_BLE_SDK/GD32VW55x_RELEASE_V1.0.2/MSDK/wpa_supplicant/src/ap\ieee802_11_shared.c **** 			/* Bit 13 - Collocated Interference Reporting */
 980              		.loc 1 357 17 is_stmt 0
 981 00b4 9C44     		lw	a5,8(s1)
 357:C:/Users/stapi/OneDrive/Desktop/GD32VW553/V1_MQTT_OK/GD32VW55X_Wifi_BLE_SDK/GD32VW55x_RELEASE_V1.0.2/MSDK/wpa_supplicant/src/ap\ieee802_11_shared.c **** 			/* Bit 13 - Collocated Interference Reporting */
 982              		.loc 1 357 6
 983 00b6 83A7473D 		lw	a5,980(a5)
 984 00ba D9C3     		beq	a5,zero,.L46
 359:C:/Users/stapi/OneDrive/Desktop/GD32VW553/V1_MQTT_OK/GD32VW55X_Wifi_BLE_SDK/GD32VW55x_RELEASE_V1.0.2/MSDK/wpa_supplicant/src/ap\ieee802_11_shared.c **** 		}
 985              		.loc 1 359 4 is_stmt 1
 359:C:/Users/stapi/OneDrive/Desktop/GD32VW553/V1_MQTT_OK/GD32VW55X_Wifi_BLE_SDK/GD32VW55x_RELEASE_V1.0.2/MSDK/wpa_supplicant/src/ap\ieee802_11_shared.c **** 		}
 986              		.loc 1 359 9 is_stmt 0
 987 00bc 83470400 		lbu	a5,0(s0)
 988 00c0 93E70702 		ori	a5,a5,32
 989 00c4 F1BF     		j	.L136
 990              	.L54:
 363:C:/Users/stapi/OneDrive/Desktop/GD32VW553/V1_MQTT_OK/GD32VW55X_Wifi_BLE_SDK/GD32VW55x_RELEASE_V1.0.2/MSDK/wpa_supplicant/src/ap\ieee802_11_shared.c **** 			*pos |= 0x02; /* Bit 17 - WNM-Sleep Mode */
 991              		.loc 1 363 3 is_stmt 1
 363:C:/Users/stapi/OneDrive/Desktop/GD32VW553/V1_MQTT_OK/GD32VW55X_Wifi_BLE_SDK/GD32VW55x_RELEASE_V1.0.2/MSDK/wpa_supplicant/src/ap\ieee802_11_shared.c **** 			*pos |= 0x02; /* Bit 17 - WNM-Sleep Mode */
 992              		.loc 1 363 17 is_stmt 0
 993 00c6 9C44     		lw	a5,8(s1)
 363:C:/Users/stapi/OneDrive/Desktop/GD32VW553/V1_MQTT_OK/GD32VW55X_Wifi_BLE_SDK/GD32VW55x_RELEASE_V1.0.2/MSDK/wpa_supplicant/src/ap\ieee802_11_shared.c **** 			*pos |= 0x02; /* Bit 17 - WNM-Sleep Mode */
 994              		.loc 1 363 6
 995 00c8 83A7472A 		lw	a5,676(a5)
 996 00cc 99C3     		beq	a5,zero,.L61
 364:C:/Users/stapi/OneDrive/Desktop/GD32VW553/V1_MQTT_OK/GD32VW55X_Wifi_BLE_SDK/GD32VW55x_RELEASE_V1.0.2/MSDK/wpa_supplicant/src/ap\ieee802_11_shared.c **** 		if (hapd->conf->bss_transition)
 997              		.loc 1 364 4 is_stmt 1
 364:C:/Users/stapi/OneDrive/Desktop/GD32VW553/V1_MQTT_OK/GD32VW55X_Wifi_BLE_SDK/GD32VW55x_RELEASE_V1.0.2/MSDK/wpa_supplicant/src/ap\ieee802_11_shared.c **** 		if (hapd->conf->bss_transition)
 998              		.loc 1 364 9 is_stmt 0
 999 00ce 2300B401 		sb	s11,0(s0)
 1000              	.L61:
 365:C:/Users/stapi/OneDrive/Desktop/GD32VW553/V1_MQTT_OK/GD32VW55X_Wifi_BLE_SDK/GD32VW55x_RELEASE_V1.0.2/MSDK/wpa_supplicant/src/ap\ieee802_11_shared.c **** 			*pos |= 0x08; /* Bit 19 - BSS Transition */
 1001              		.loc 1 365 3 is_stmt 1
 365:C:/Users/stapi/OneDrive/Desktop/GD32VW553/V1_MQTT_OK/GD32VW55X_Wifi_BLE_SDK/GD32VW55x_RELEASE_V1.0.2/MSDK/wpa_supplicant/src/ap\ieee802_11_shared.c **** 			*pos |= 0x08; /* Bit 19 - BSS Transition */
 1002              		.loc 1 365 17 is_stmt 0
 1003 00d2 9C44     		lw	a5,8(s1)
 365:C:/Users/stapi/OneDrive/Desktop/GD32VW553/V1_MQTT_OK/GD32VW55X_Wifi_BLE_SDK/GD32VW55x_RELEASE_V1.0.2/MSDK/wpa_supplicant/src/ap\ieee802_11_shared.c **** 			*pos |= 0x08; /* Bit 19 - BSS Transition */
 1004              		.loc 1 365 6
 1005 00d4 83A7C72A 		lw	a5,684(a5)
 1006 00d8 A5C7     		beq	a5,zero,.L46
 366:C:/Users/stapi/OneDrive/Desktop/GD32VW553/V1_MQTT_OK/GD32VW55X_Wifi_BLE_SDK/GD32VW55x_RELEASE_V1.0.2/MSDK/wpa_supplicant/src/ap\ieee802_11_shared.c **** 		break;
 1007              		.loc 1 366 4 is_stmt 1
 366:C:/Users/stapi/OneDrive/Desktop/GD32VW553/V1_MQTT_OK/GD32VW55X_Wifi_BLE_SDK/GD32VW55x_RELEASE_V1.0.2/MSDK/wpa_supplicant/src/ap\ieee802_11_shared.c **** 		break;
 1008              		.loc 1 366 9 is_stmt 0
 1009 00da 83470400 		lbu	a5,0(s0)
 1010 00de 93E78700 		ori	a5,a5,8
 1011 00e2 7DBF     		j	.L136
 1012              	.L53:
 372:C:/Users/stapi/OneDrive/Desktop/GD32VW553/V1_MQTT_OK/GD32VW55X_Wifi_BLE_SDK/GD32VW55x_RELEASE_V1.0.2/MSDK/wpa_supplicant/src/ap\ieee802_11_shared.c **** 			*pos |= 0x08; /* Bit 27 - UTC TSF Offset */
 1013              		.loc 1 372 3 is_stmt 1
 372:C:/Users/stapi/OneDrive/Desktop/GD32VW553/V1_MQTT_OK/GD32VW55X_Wifi_BLE_SDK/GD32VW55x_RELEASE_V1.0.2/MSDK/wpa_supplicant/src/ap\ieee802_11_shared.c **** 			*pos |= 0x08; /* Bit 27 - UTC TSF Offset */
 1014              		.loc 1 372 17 is_stmt 0
 1015 00e4 9C44     		lw	a5,8(s1)
 372:C:/Users/stapi/OneDrive/Desktop/GD32VW553/V1_MQTT_OK/GD32VW55X_Wifi_BLE_SDK/GD32VW55x_RELEASE_V1.0.2/MSDK/wpa_supplicant/src/ap\ieee802_11_shared.c **** 			*pos |= 0x08; /* Bit 27 - UTC TSF Offset */
 1016              		.loc 1 372 6
 1017 00e6 83A7C729 		lw	a5,668(a5)
 1018 00ea 6395B701 		bne	a5,s11,.L62
 373:C:/Users/stapi/OneDrive/Desktop/GD32VW553/V1_MQTT_OK/GD32VW55X_Wifi_BLE_SDK/GD32VW55x_RELEASE_V1.0.2/MSDK/wpa_supplicant/src/ap\ieee802_11_shared.c **** 		if (hapd->conf->interworking)
 1019              		.loc 1 373 4 is_stmt 1
 373:C:/Users/stapi/OneDrive/Desktop/GD32VW553/V1_MQTT_OK/GD32VW55X_Wifi_BLE_SDK/GD32VW55x_RELEASE_V1.0.2/MSDK/wpa_supplicant/src/ap\ieee802_11_shared.c **** 		if (hapd->conf->interworking)
 1020              		.loc 1 373 9 is_stmt 0
 1021 00ee A147     		li	a5,8
 1022 00f0 2300F400 		sb	a5,0(s0)
 1023              	.L62:
 374:C:/Users/stapi/OneDrive/Desktop/GD32VW553/V1_MQTT_OK/GD32VW55X_Wifi_BLE_SDK/GD32VW55x_RELEASE_V1.0.2/MSDK/wpa_supplicant/src/ap\ieee802_11_shared.c **** 			*pos |= 0x80; /* Bit 31 - Interworking */
 1024              		.loc 1 374 3 is_stmt 1
 374:C:/Users/stapi/OneDrive/Desktop/GD32VW553/V1_MQTT_OK/GD32VW55X_Wifi_BLE_SDK/GD32VW55x_RELEASE_V1.0.2/MSDK/wpa_supplicant/src/ap\ieee802_11_shared.c **** 			*pos |= 0x80; /* Bit 31 - Interworking */
 1025              		.loc 1 374 17 is_stmt 0
 1026 00f4 9C44     		lw	a5,8(s1)
 374:C:/Users/stapi/OneDrive/Desktop/GD32VW553/V1_MQTT_OK/GD32VW55X_Wifi_BLE_SDK/GD32VW55x_RELEASE_V1.0.2/MSDK/wpa_supplicant/src/ap\ieee802_11_shared.c **** 			*pos |= 0x80; /* Bit 31 - Interworking */
 1027              		.loc 1 374 6
 1028 00f6 83A7072B 		lw	a5,688(a5)
 1029              	.L140:
 382:C:/Users/stapi/OneDrive/Desktop/GD32VW553/V1_MQTT_OK/GD32VW55X_Wifi_BLE_SDK/GD32VW55x_RELEASE_V1.0.2/MSDK/wpa_supplicant/src/ap\ieee802_11_shared.c **** 			/* Bit 39 - TDLS Channel Switching Prohibited */
 1030              		.loc 1 382 6
 1031 00fa B9C3     		beq	a5,zero,.L46
 384:C:/Users/stapi/OneDrive/Desktop/GD32VW553/V1_MQTT_OK/GD32VW55X_Wifi_BLE_SDK/GD32VW55x_RELEASE_V1.0.2/MSDK/wpa_supplicant/src/ap\ieee802_11_shared.c **** 		}
 1032              		.loc 1 384 4 is_stmt 1
 384:C:/Users/stapi/OneDrive/Desktop/GD32VW553/V1_MQTT_OK/GD32VW55X_Wifi_BLE_SDK/GD32VW55x_RELEASE_V1.0.2/MSDK/wpa_supplicant/src/ap\ieee802_11_shared.c **** 		}
 1033              		.loc 1 384 9 is_stmt 0
 1034 00fc 83470400 		lbu	a5,0(s0)
 1035              	.L137:
 407:C:/Users/stapi/OneDrive/Desktop/GD32VW553/V1_MQTT_OK/GD32VW55X_Wifi_BLE_SDK/GD32VW55x_RELEASE_V1.0.2/MSDK/wpa_supplicant/src/ap\ieee802_11_shared.c **** 		break;
 1036              		.loc 1 407 4 is_stmt 1
 407:C:/Users/stapi/OneDrive/Desktop/GD32VW553/V1_MQTT_OK/GD32VW55X_Wifi_BLE_SDK/GD32VW55x_RELEASE_V1.0.2/MSDK/wpa_supplicant/src/ap\ieee802_11_shared.c **** 		break;
 1037              		.loc 1 407 9 is_stmt 0
 1038 0100 93E707F8 		ori	a5,a5,-128
 1039 0104 71BF     		j	.L136
 1040              	.L52:
 378:C:/Users/stapi/OneDrive/Desktop/GD32VW553/V1_MQTT_OK/GD32VW55X_Wifi_BLE_SDK/GD32VW55x_RELEASE_V1.0.2/MSDK/wpa_supplicant/src/ap\ieee802_11_shared.c **** 			*pos |= 0x01; /* Bit 32 - QoS Map */
 1041              		.loc 1 378 3 is_stmt 1
 378:C:/Users/stapi/OneDrive/Desktop/GD32VW553/V1_MQTT_OK/GD32VW55X_Wifi_BLE_SDK/GD32VW55x_RELEASE_V1.0.2/MSDK/wpa_supplicant/src/ap\ieee802_11_shared.c **** 			*pos |= 0x01; /* Bit 32 - QoS Map */
 1042              		.loc 1 378 17 is_stmt 0
 1043 0106 9C44     		lw	a5,8(s1)
 378:C:/Users/stapi/OneDrive/Desktop/GD32VW553/V1_MQTT_OK/GD32VW55X_Wifi_BLE_SDK/GD32VW55x_RELEASE_V1.0.2/MSDK/wpa_supplicant/src/ap\ieee802_11_shared.c **** 			*pos |= 0x01; /* Bit 32 - QoS Map */
 1044              		.loc 1 378 6
 1045 0108 83A70736 		lw	a5,864(a5)
 1046 010c 99C3     		beq	a5,zero,.L63
 379:C:/Users/stapi/OneDrive/Desktop/GD32VW553/V1_MQTT_OK/GD32VW55X_Wifi_BLE_SDK/GD32VW55x_RELEASE_V1.0.2/MSDK/wpa_supplicant/src/ap\ieee802_11_shared.c **** 		if (hapd->conf->tdls & TDLS_PROHIBIT)
 1047              		.loc 1 379 4 is_stmt 1
 379:C:/Users/stapi/OneDrive/Desktop/GD32VW553/V1_MQTT_OK/GD32VW55X_Wifi_BLE_SDK/GD32VW55x_RELEASE_V1.0.2/MSDK/wpa_supplicant/src/ap\ieee802_11_shared.c **** 		if (hapd->conf->tdls & TDLS_PROHIBIT)
 1048              		.loc 1 379 9 is_stmt 0
 1049 010e 23008401 		sb	s8,0(s0)
 1050              	.L63:
 380:C:/Users/stapi/OneDrive/Desktop/GD32VW553/V1_MQTT_OK/GD32VW55X_Wifi_BLE_SDK/GD32VW55x_RELEASE_V1.0.2/MSDK/wpa_supplicant/src/ap\ieee802_11_shared.c **** 			*pos |= 0x40; /* Bit 38 - TDLS Prohibited */
 1051              		.loc 1 380 3 is_stmt 1
 380:C:/Users/stapi/OneDrive/Desktop/GD32VW553/V1_MQTT_OK/GD32VW55X_Wifi_BLE_SDK/GD32VW55x_RELEASE_V1.0.2/MSDK/wpa_supplicant/src/ap\ieee802_11_shared.c **** 			*pos |= 0x40; /* Bit 38 - TDLS Prohibited */
 1052              		.loc 1 380 17 is_stmt 0
 1053 0112 9C44     		lw	a5,8(s1)
 380:C:/Users/stapi/OneDrive/Desktop/GD32VW553/V1_MQTT_OK/GD32VW55X_Wifi_BLE_SDK/GD32VW55x_RELEASE_V1.0.2/MSDK/wpa_supplicant/src/ap\ieee802_11_shared.c **** 			*pos |= 0x40; /* Bit 38 - TDLS Prohibited */
 1054              		.loc 1 380 24
 1055 0114 83A74729 		lw	a5,660(a5)
 1056 0118 858B     		andi	a5,a5,1
 380:C:/Users/stapi/OneDrive/Desktop/GD32VW553/V1_MQTT_OK/GD32VW55X_Wifi_BLE_SDK/GD32VW55x_RELEASE_V1.0.2/MSDK/wpa_supplicant/src/ap\ieee802_11_shared.c **** 			*pos |= 0x40; /* Bit 38 - TDLS Prohibited */
 1057              		.loc 1 380 6
 1058 011a 99C7     		beq	a5,zero,.L64
 381:C:/Users/stapi/OneDrive/Desktop/GD32VW553/V1_MQTT_OK/GD32VW55X_Wifi_BLE_SDK/GD32VW55x_RELEASE_V1.0.2/MSDK/wpa_supplicant/src/ap\ieee802_11_shared.c **** 		if (hapd->conf->tdls & TDLS_PROHIBIT_CHAN_SWITCH) {
 1059              		.loc 1 381 4 is_stmt 1
 381:C:/Users/stapi/OneDrive/Desktop/GD32VW553/V1_MQTT_OK/GD32VW55X_Wifi_BLE_SDK/GD32VW55x_RELEASE_V1.0.2/MSDK/wpa_supplicant/src/ap\ieee802_11_shared.c **** 		if (hapd->conf->tdls & TDLS_PROHIBIT_CHAN_SWITCH) {
 1060              		.loc 1 381 9 is_stmt 0
 1061 011c 83470400 		lbu	a5,0(s0)
 1062 0120 93E70704 		ori	a5,a5,64
 1063 0124 2300F400 		sb	a5,0(s0)
 1064              	.L64:
 382:C:/Users/stapi/OneDrive/Desktop/GD32VW553/V1_MQTT_OK/GD32VW55X_Wifi_BLE_SDK/GD32VW55x_RELEASE_V1.0.2/MSDK/wpa_supplicant/src/ap\ieee802_11_shared.c **** 			/* Bit 39 - TDLS Channel Switching Prohibited */
 1065              		.loc 1 382 3 is_stmt 1
 382:C:/Users/stapi/OneDrive/Desktop/GD32VW553/V1_MQTT_OK/GD32VW55X_Wifi_BLE_SDK/GD32VW55x_RELEASE_V1.0.2/MSDK/wpa_supplicant/src/ap\ieee802_11_shared.c **** 			/* Bit 39 - TDLS Channel Switching Prohibited */
 1066              		.loc 1 382 17 is_stmt 0
 1067 0128 9C44     		lw	a5,8(s1)
 382:C:/Users/stapi/OneDrive/Desktop/GD32VW553/V1_MQTT_OK/GD32VW55X_Wifi_BLE_SDK/GD32VW55x_RELEASE_V1.0.2/MSDK/wpa_supplicant/src/ap\ieee802_11_shared.c **** 			/* Bit 39 - TDLS Channel Switching Prohibited */
 1068              		.loc 1 382 24
 1069 012a 83A74729 		lw	a5,660(a5)
 1070 012e 898B     		andi	a5,a5,2
 1071 0130 E9B7     		j	.L140
 1072              	.L51:
 398:C:/Users/stapi/OneDrive/Desktop/GD32VW553/V1_MQTT_OK/GD32VW55X_Wifi_BLE_SDK/GD32VW55x_RELEASE_V1.0.2/MSDK/wpa_supplicant/src/ap\ieee802_11_shared.c **** 			*pos |= 0x01; /* Bit 48 - UTF-8 SSID */
 1073              		.loc 1 398 3 is_stmt 1
 398:C:/Users/stapi/OneDrive/Desktop/GD32VW553/V1_MQTT_OK/GD32VW55X_Wifi_BLE_SDK/GD32VW55x_RELEASE_V1.0.2/MSDK/wpa_supplicant/src/ap\ieee802_11_shared.c **** 			*pos |= 0x01; /* Bit 48 - UTF-8 SSID */
 1074              		.loc 1 398 7 is_stmt 0
 1075 0132 9C44     		lw	a5,8(s1)
 1076 0134 83C7070E 		lbu	a5,224(a5)
 398:C:/Users/stapi/OneDrive/Desktop/GD32VW553/V1_MQTT_OK/GD32VW55X_Wifi_BLE_SDK/GD32VW55x_RELEASE_V1.0.2/MSDK/wpa_supplicant/src/ap\ieee802_11_shared.c **** 			*pos |= 0x01; /* Bit 48 - UTF-8 SSID */
 1077              		.loc 1 398 6
 1078 0138 898B     		andi	a5,a5,2
 1079 013a 99C3     		beq	a5,zero,.L46
 399:C:/Users/stapi/OneDrive/Desktop/GD32VW553/V1_MQTT_OK/GD32VW55X_Wifi_BLE_SDK/GD32VW55x_RELEASE_V1.0.2/MSDK/wpa_supplicant/src/ap\ieee802_11_shared.c **** 		break;
 1080              		.loc 1 399 4 is_stmt 1
 399:C:/Users/stapi/OneDrive/Desktop/GD32VW553/V1_MQTT_OK/GD32VW55X_Wifi_BLE_SDK/GD32VW55x_RELEASE_V1.0.2/MSDK/wpa_supplicant/src/ap\ieee802_11_shared.c **** 		break;
 1081              		.loc 1 399 9 is_stmt 0
 1082 013c 23008401 		sb	s8,0(s0)
 1083              	.LVL95:
 1084              	.L46:
 1085              	.LBE67:
 1086              	.LBE70:
 465:C:/Users/stapi/OneDrive/Desktop/GD32VW553/V1_MQTT_OK/GD32VW55X_Wifi_BLE_SDK/GD32VW55x_RELEASE_V1.0.2/MSDK/wpa_supplicant/src/ap\ieee802_11_shared.c **** 			*pos &= ~hapd->iface->extended_capa_mask[i];
 1087              		.loc 1 465 3 is_stmt 1
 465:C:/Users/stapi/OneDrive/Desktop/GD32VW553/V1_MQTT_OK/GD32VW55X_Wifi_BLE_SDK/GD32VW55x_RELEASE_V1.0.2/MSDK/wpa_supplicant/src/ap\ieee802_11_shared.c **** 			*pos &= ~hapd->iface->extended_capa_mask[i];
 1088              		.loc 1 465 15 is_stmt 0
 1089 0140 9C40     		lw	a5,0(s1)
 465:C:/Users/stapi/OneDrive/Desktop/GD32VW553/V1_MQTT_OK/GD32VW55X_Wifi_BLE_SDK/GD32VW55x_RELEASE_V1.0.2/MSDK/wpa_supplicant/src/ap\ieee802_11_shared.c **** 			*pos &= ~hapd->iface->extended_capa_mask[i];
 1090              		.loc 1 465 6
 1091 0142 83A64745 		lw	a3,1108(a5)
 1092 0146 63F6DA02 		bleu	a3,s5,.L71
 466:C:/Users/stapi/OneDrive/Desktop/GD32VW553/V1_MQTT_OK/GD32VW55X_Wifi_BLE_SDK/GD32VW55x_RELEASE_V1.0.2/MSDK/wpa_supplicant/src/ap\ieee802_11_shared.c **** 			*pos |= hapd->iface->extended_capa[i];
 1093              		.loc 1 466 4 is_stmt 1
 466:C:/Users/stapi/OneDrive/Desktop/GD32VW553/V1_MQTT_OK/GD32VW55X_Wifi_BLE_SDK/GD32VW55x_RELEASE_V1.0.2/MSDK/wpa_supplicant/src/ap\ieee802_11_shared.c **** 			*pos |= hapd->iface->extended_capa[i];
 1094              		.loc 1 466 44 is_stmt 0
 1095 014a 83A70745 		lw	a5,1104(a5)
 466:C:/Users/stapi/OneDrive/Desktop/GD32VW553/V1_MQTT_OK/GD32VW55X_Wifi_BLE_SDK/GD32VW55x_RELEASE_V1.0.2/MSDK/wpa_supplicant/src/ap\ieee802_11_shared.c **** 			*pos |= hapd->iface->extended_capa[i];
 1096              		.loc 1 466 9
 1097 014e 83460400 		lbu	a3,0(s0)
 466:C:/Users/stapi/OneDrive/Desktop/GD32VW553/V1_MQTT_OK/GD32VW55X_Wifi_BLE_SDK/GD32VW55x_RELEASE_V1.0.2/MSDK/wpa_supplicant/src/ap\ieee802_11_shared.c **** 			*pos |= hapd->iface->extended_capa[i];
 1098              		.loc 1 466 44
 1099 0152 D697     		add	a5,a5,s5
 466:C:/Users/stapi/OneDrive/Desktop/GD32VW553/V1_MQTT_OK/GD32VW55X_Wifi_BLE_SDK/GD32VW55x_RELEASE_V1.0.2/MSDK/wpa_supplicant/src/ap\ieee802_11_shared.c **** 			*pos |= hapd->iface->extended_capa[i];
 1100              		.loc 1 466 9
 1101 0154 83C70700 		lbu	a5,0(a5)
 1102 0158 B3F7F640 		andn	a5,a3,a5
 1103 015c 2300F400 		sb	a5,0(s0)
 467:C:/Users/stapi/OneDrive/Desktop/GD32VW553/V1_MQTT_OK/GD32VW55X_Wifi_BLE_SDK/GD32VW55x_RELEASE_V1.0.2/MSDK/wpa_supplicant/src/ap\ieee802_11_shared.c **** 		}
 1104              		.loc 1 467 4 is_stmt 1
 467:C:/Users/stapi/OneDrive/Desktop/GD32VW553/V1_MQTT_OK/GD32VW55X_Wifi_BLE_SDK/GD32VW55x_RELEASE_V1.0.2/MSDK/wpa_supplicant/src/ap\ieee802_11_shared.c **** 		}
 1105              		.loc 1 467 23 is_stmt 0
 1106 0160 9440     		lw	a3,0(s1)
 467:C:/Users/stapi/OneDrive/Desktop/GD32VW553/V1_MQTT_OK/GD32VW55X_Wifi_BLE_SDK/GD32VW55x_RELEASE_V1.0.2/MSDK/wpa_supplicant/src/ap\ieee802_11_shared.c **** 		}
 1107              		.loc 1 467 38
 1108 0162 83A6C644 		lw	a3,1100(a3)
 1109 0166 D696     		add	a3,a3,s5
 467:C:/Users/stapi/OneDrive/Desktop/GD32VW553/V1_MQTT_OK/GD32VW55X_Wifi_BLE_SDK/GD32VW55x_RELEASE_V1.0.2/MSDK/wpa_supplicant/src/ap\ieee802_11_shared.c **** 		}
 1110              		.loc 1 467 9
 1111 0168 83C60600 		lbu	a3,0(a3)
 1112 016c D58F     		or	a5,a5,a3
 1113 016e 2300F400 		sb	a5,0(s0)
 1114              	.L71:
 470:C:/Users/stapi/OneDrive/Desktop/GD32VW553/V1_MQTT_OK/GD32VW55X_Wifi_BLE_SDK/GD32VW55x_RELEASE_V1.0.2/MSDK/wpa_supplicant/src/ap\ieee802_11_shared.c **** 			*pos &= ~hapd->conf->ext_capa_mask[i];
 1115              		.loc 1 470 3 is_stmt 1
 470:C:/Users/stapi/OneDrive/Desktop/GD32VW553/V1_MQTT_OK/GD32VW55X_Wifi_BLE_SDK/GD32VW55x_RELEASE_V1.0.2/MSDK/wpa_supplicant/src/ap\ieee802_11_shared.c **** 			*pos &= ~hapd->conf->ext_capa_mask[i];
 1116              		.loc 1 470 6 is_stmt 0
 1117 0172 B947     		li	a5,14
 1118 0174 63E3A703 		bgtu	s10,a5,.L72
 471:C:/Users/stapi/OneDrive/Desktop/GD32VW553/V1_MQTT_OK/GD32VW55X_Wifi_BLE_SDK/GD32VW55x_RELEASE_V1.0.2/MSDK/wpa_supplicant/src/ap\ieee802_11_shared.c **** 			*pos |= hapd->conf->ext_capa[i];
 1119              		.loc 1 471 4 is_stmt 1
 471:C:/Users/stapi/OneDrive/Desktop/GD32VW553/V1_MQTT_OK/GD32VW55X_Wifi_BLE_SDK/GD32VW55x_RELEASE_V1.0.2/MSDK/wpa_supplicant/src/ap\ieee802_11_shared.c **** 			*pos |= hapd->conf->ext_capa[i];
 1120              		.loc 1 471 38 is_stmt 0
 1121 0178 9C44     		lw	a5,8(s1)
 471:C:/Users/stapi/OneDrive/Desktop/GD32VW553/V1_MQTT_OK/GD32VW55X_Wifi_BLE_SDK/GD32VW55x_RELEASE_V1.0.2/MSDK/wpa_supplicant/src/ap\ieee802_11_shared.c **** 			*pos |= hapd->conf->ext_capa[i];
 1122              		.loc 1 471 9
 1123 017a 83460400 		lbu	a3,0(s0)
 471:C:/Users/stapi/OneDrive/Desktop/GD32VW553/V1_MQTT_OK/GD32VW55X_Wifi_BLE_SDK/GD32VW55x_RELEASE_V1.0.2/MSDK/wpa_supplicant/src/ap\ieee802_11_shared.c **** 			*pos |= hapd->conf->ext_capa[i];
 1124              		.loc 1 471 38
 1125 017e D697     		add	a5,a5,s5
 471:C:/Users/stapi/OneDrive/Desktop/GD32VW553/V1_MQTT_OK/GD32VW55X_Wifi_BLE_SDK/GD32VW55x_RELEASE_V1.0.2/MSDK/wpa_supplicant/src/ap\ieee802_11_shared.c **** 			*pos |= hapd->conf->ext_capa[i];
 1126              		.loc 1 471 9
 1127 0180 83C7473E 		lbu	a5,996(a5)
 1128 0184 B3F7F640 		andn	a5,a3,a5
 1129 0188 2300F400 		sb	a5,0(s0)
 472:C:/Users/stapi/OneDrive/Desktop/GD32VW553/V1_MQTT_OK/GD32VW55X_Wifi_BLE_SDK/GD32VW55x_RELEASE_V1.0.2/MSDK/wpa_supplicant/src/ap\ieee802_11_shared.c **** 		}
 1130              		.loc 1 472 4 is_stmt 1
 472:C:/Users/stapi/OneDrive/Desktop/GD32VW553/V1_MQTT_OK/GD32VW55X_Wifi_BLE_SDK/GD32VW55x_RELEASE_V1.0.2/MSDK/wpa_supplicant/src/ap\ieee802_11_shared.c **** 		}
 1131              		.loc 1 472 32 is_stmt 0
 1132 018c 9444     		lw	a3,8(s1)
 1133 018e D696     		add	a3,a3,s5
 472:C:/Users/stapi/OneDrive/Desktop/GD32VW553/V1_MQTT_OK/GD32VW55X_Wifi_BLE_SDK/GD32VW55x_RELEASE_V1.0.2/MSDK/wpa_supplicant/src/ap\ieee802_11_shared.c **** 		}
 1134              		.loc 1 472 9
 1135 0190 83C6363F 		lbu	a3,1011(a3)
 1136 0194 D58F     		or	a5,a5,a3
 1137 0196 2300F400 		sb	a5,0(s0)
 1138              	.L72:
 462:C:/Users/stapi/OneDrive/Desktop/GD32VW553/V1_MQTT_OK/GD32VW55X_Wifi_BLE_SDK/GD32VW55x_RELEASE_V1.0.2/MSDK/wpa_supplicant/src/ap\ieee802_11_shared.c **** 		hostapd_ext_capab_byte(hapd, pos, i);
 1139              		.loc 1 462 23 is_stmt 1 discriminator 2
 1140              	.LVL96:
 462:C:/Users/stapi/OneDrive/Desktop/GD32VW553/V1_MQTT_OK/GD32VW55X_Wifi_BLE_SDK/GD32VW55x_RELEASE_V1.0.2/MSDK/wpa_supplicant/src/ap\ieee802_11_shared.c **** 		hostapd_ext_capab_byte(hapd, pos, i);
 1141              		.loc 1 462 31 is_stmt 0 discriminator 2
 1142 019a 0504     		addi	s0,s0,1
 1143              	.LVL97:
 1144 019c 850A     		addi	s5,s5,1
 1145              	.LVL98:
 1146 019e 5DB5     		j	.L45
 1147              	.LVL99:
 1148              	.L50:
 1149              	.LBB71:
 1150              	.LBB68:
 404:C:/Users/stapi/OneDrive/Desktop/GD32VW553/V1_MQTT_OK/GD32VW55X_Wifi_BLE_SDK/GD32VW55x_RELEASE_V1.0.2/MSDK/wpa_supplicant/src/ap\ieee802_11_shared.c **** 			*pos |= 0x40; /* Bit 70 - FTM responder */
 1151              		.loc 1 404 3 is_stmt 1
 404:C:/Users/stapi/OneDrive/Desktop/GD32VW553/V1_MQTT_OK/GD32VW55X_Wifi_BLE_SDK/GD32VW55x_RELEASE_V1.0.2/MSDK/wpa_supplicant/src/ap\ieee802_11_shared.c **** 			*pos |= 0x40; /* Bit 70 - FTM responder */
 1152              		.loc 1 404 17 is_stmt 0
 1153 01a0 9C44     		lw	a5,8(s1)
 404:C:/Users/stapi/OneDrive/Desktop/GD32VW553/V1_MQTT_OK/GD32VW55X_Wifi_BLE_SDK/GD32VW55x_RELEASE_V1.0.2/MSDK/wpa_supplicant/src/ap\ieee802_11_shared.c **** 			*pos |= 0x40; /* Bit 70 - FTM responder */
 1154              		.loc 1 404 6
 1155 01a2 83A7073C 		lw	a5,960(a5)
 405:C:/Users/stapi/OneDrive/Desktop/GD32VW553/V1_MQTT_OK/GD32VW55X_Wifi_BLE_SDK/GD32VW55x_RELEASE_V1.0.2/MSDK/wpa_supplicant/src/ap\ieee802_11_shared.c **** 		if (hapd->conf->ftm_initiator)
 1156              		.loc 1 405 9
 1157 01a6 B337F000 		snez	a5,a5
 1158 01aa 9A07     		slli	a5,a5,6
 1159 01ac 2300F400 		sb	a5,0(s0)
 406:C:/Users/stapi/OneDrive/Desktop/GD32VW553/V1_MQTT_OK/GD32VW55X_Wifi_BLE_SDK/GD32VW55x_RELEASE_V1.0.2/MSDK/wpa_supplicant/src/ap\ieee802_11_shared.c **** 			*pos |= 0x80; /* Bit 71 - FTM initiator */
 1160              		.loc 1 406 3 is_stmt 1
 406:C:/Users/stapi/OneDrive/Desktop/GD32VW553/V1_MQTT_OK/GD32VW55X_Wifi_BLE_SDK/GD32VW55x_RELEASE_V1.0.2/MSDK/wpa_supplicant/src/ap\ieee802_11_shared.c **** 			*pos |= 0x80; /* Bit 71 - FTM initiator */
 1161              		.loc 1 406 17 is_stmt 0
 1162 01b0 9444     		lw	a3,8(s1)
 406:C:/Users/stapi/OneDrive/Desktop/GD32VW553/V1_MQTT_OK/GD32VW55X_Wifi_BLE_SDK/GD32VW55x_RELEASE_V1.0.2/MSDK/wpa_supplicant/src/ap\ieee802_11_shared.c **** 			*pos |= 0x80; /* Bit 71 - FTM initiator */
 1163              		.loc 1 406 6
 1164 01b2 83A6463C 		lw	a3,964(a3)
 1165 01b6 C9D6     		beq	a3,zero,.L46
 1166 01b8 A1B7     		j	.L137
 1167              	.L49:
 416:C:/Users/stapi/OneDrive/Desktop/GD32VW553/V1_MQTT_OK/GD32VW55X_Wifi_BLE_SDK/GD32VW55x_RELEASE_V1.0.2/MSDK/wpa_supplicant/src/ap\ieee802_11_shared.c **** 		    hostapd_get_he_twt_responder(hapd, IEEE80211_MODE_AP))
 1168              		.loc 1 416 3 is_stmt 1
 416:C:/Users/stapi/OneDrive/Desktop/GD32VW553/V1_MQTT_OK/GD32VW55X_Wifi_BLE_SDK/GD32VW55x_RELEASE_V1.0.2/MSDK/wpa_supplicant/src/ap\ieee802_11_shared.c **** 		    hostapd_get_he_twt_responder(hapd, IEEE80211_MODE_AP))
 1169              		.loc 1 416 18 is_stmt 0
 1170 01ba DC40     		lw	a5,4(s1)
 416:C:/Users/stapi/OneDrive/Desktop/GD32VW553/V1_MQTT_OK/GD32VW55X_Wifi_BLE_SDK/GD32VW55x_RELEASE_V1.0.2/MSDK/wpa_supplicant/src/ap\ieee802_11_shared.c **** 		    hostapd_get_he_twt_responder(hapd, IEEE80211_MODE_AP))
 1171              		.loc 1 416 6
 1172 01bc 83A74715 		lw	a5,340(a5)
 1173 01c0 C1D3     		beq	a5,zero,.L46
 417:C:/Users/stapi/OneDrive/Desktop/GD32VW553/V1_MQTT_OK/GD32VW55X_Wifi_BLE_SDK/GD32VW55x_RELEASE_V1.0.2/MSDK/wpa_supplicant/src/ap\ieee802_11_shared.c **** 			*pos |= 0x40; /* Bit 78 - TWT responder */
 1174              		.loc 1 417 7
 1175 01c2 8945     		li	a1,2
 1176 01c4 2685     		mv	a0,s1
 1177 01c6 97000000 		call	hostapd_get_he_twt_responder
 1177      E7800000 
 1178              	.LVL100:
 416:C:/Users/stapi/OneDrive/Desktop/GD32VW553/V1_MQTT_OK/GD32VW55X_Wifi_BLE_SDK/GD32VW55x_RELEASE_V1.0.2/MSDK/wpa_supplicant/src/ap\ieee802_11_shared.c **** 		    hostapd_get_he_twt_responder(hapd, IEEE80211_MODE_AP))
 1179              		.loc 1 416 32
 1180 01ce 2DD9     		beq	a0,zero,.L46
 418:C:/Users/stapi/OneDrive/Desktop/GD32VW553/V1_MQTT_OK/GD32VW55X_Wifi_BLE_SDK/GD32VW55x_RELEASE_V1.0.2/MSDK/wpa_supplicant/src/ap\ieee802_11_shared.c **** #endif /* CONFIG_IEEE80211AX */
 1181              		.loc 1 418 4 is_stmt 1
 418:C:/Users/stapi/OneDrive/Desktop/GD32VW553/V1_MQTT_OK/GD32VW55X_Wifi_BLE_SDK/GD32VW55x_RELEASE_V1.0.2/MSDK/wpa_supplicant/src/ap\ieee802_11_shared.c **** #endif /* CONFIG_IEEE80211AX */
 1182              		.loc 1 418 9 is_stmt 0
 1183 01d0 83470400 		lbu	a5,0(s0)
 1184 01d4 93E70704 		ori	a5,a5,64
 1185 01d8 E1B5     		j	.L136
 1186              	.L47:
 423:C:/Users/stapi/OneDrive/Desktop/GD32VW553/V1_MQTT_OK/GD32VW55X_Wifi_BLE_SDK/GD32VW55x_RELEASE_V1.0.2/MSDK/wpa_supplicant/src/ap\ieee802_11_shared.c **** 		    wpa_key_mgmt_sae(hapd->conf->wpa_key_mgmt)) {
 1187              		.loc 1 423 3 is_stmt 1
 423:C:/Users/stapi/OneDrive/Desktop/GD32VW553/V1_MQTT_OK/GD32VW55X_Wifi_BLE_SDK/GD32VW55x_RELEASE_V1.0.2/MSDK/wpa_supplicant/src/ap\ieee802_11_shared.c **** 		    wpa_key_mgmt_sae(hapd->conf->wpa_key_mgmt)) {
 1188              		.loc 1 423 11 is_stmt 0
 1189 01da 8844     		lw	a0,8(s1)
 423:C:/Users/stapi/OneDrive/Desktop/GD32VW553/V1_MQTT_OK/GD32VW55X_Wifi_BLE_SDK/GD32VW55x_RELEASE_V1.0.2/MSDK/wpa_supplicant/src/ap\ieee802_11_shared.c **** 		    wpa_key_mgmt_sae(hapd->conf->wpa_key_mgmt)) {
 1190              		.loc 1 423 6
 1191 01dc 83274514 		lw	a5,324(a0)
 1192 01e0 9DC3     		beq	a5,zero,.L67
 1193              	.LVL101:
 1194              	.LBB63:
 1195              	.LBB60:
 1196              		.loc 4 113 2 is_stmt 1
 1197              		.loc 4 113 16 is_stmt 0
 1198 01e2 8327C514 		lw	a5,332(a0)
 1199 01e6 B3F77701 		and	a5,a5,s7
 1200              	.LBE60:
 1201              	.LBE63:
 423:C:/Users/stapi/OneDrive/Desktop/GD32VW553/V1_MQTT_OK/GD32VW55X_Wifi_BLE_SDK/GD32VW55x_RELEASE_V1.0.2/MSDK/wpa_supplicant/src/ap\ieee802_11_shared.c **** 		    wpa_key_mgmt_sae(hapd->conf->wpa_key_mgmt)) {
 1202              		.loc 1 423 23
 1203 01ea 91CF     		beq	a5,zero,.L67
 1204              	.LBB64:
 425:C:/Users/stapi/OneDrive/Desktop/GD32VW553/V1_MQTT_OK/GD32VW55X_Wifi_BLE_SDK/GD32VW55x_RELEASE_V1.0.2/MSDK/wpa_supplicant/src/ap\ieee802_11_shared.c **** 
 1205              		.loc 1 425 4 is_stmt 1
 425:C:/Users/stapi/OneDrive/Desktop/GD32VW553/V1_MQTT_OK/GD32VW55X_Wifi_BLE_SDK/GD32VW55x_RELEASE_V1.0.2/MSDK/wpa_supplicant/src/ap\ieee802_11_shared.c **** 
 1206              		.loc 1 425 17 is_stmt 0
 1207 01ec 97000000 		call	hostapd_sae_pw_id_in_use
 1207      E7800000 
 1208              	.LVL102:
 427:C:/Users/stapi/OneDrive/Desktop/GD32VW553/V1_MQTT_OK/GD32VW55X_Wifi_BLE_SDK/GD32VW55x_RELEASE_V1.0.2/MSDK/wpa_supplicant/src/ap\ieee802_11_shared.c **** 				*pos |= 0x02; /* Bit 81 - SAE Password
 1209              		.loc 1 427 4 is_stmt 1
 427:C:/Users/stapi/OneDrive/Desktop/GD32VW553/V1_MQTT_OK/GD32VW55X_Wifi_BLE_SDK/GD32VW55x_RELEASE_V1.0.2/MSDK/wpa_supplicant/src/ap\ieee802_11_shared.c **** 				*pos |= 0x02; /* Bit 81 - SAE Password
 1210              		.loc 1 427 7 is_stmt 0
 1211 01f4 09C9     		beq	a0,zero,.L67
 428:C:/Users/stapi/OneDrive/Desktop/GD32VW553/V1_MQTT_OK/GD32VW55X_Wifi_BLE_SDK/GD32VW55x_RELEASE_V1.0.2/MSDK/wpa_supplicant/src/ap\ieee802_11_shared.c **** 					       * Identifiers In Use */
 1212              		.loc 1 428 5 is_stmt 1
 428:C:/Users/stapi/OneDrive/Desktop/GD32VW553/V1_MQTT_OK/GD32VW55X_Wifi_BLE_SDK/GD32VW55x_RELEASE_V1.0.2/MSDK/wpa_supplicant/src/ap\ieee802_11_shared.c **** 					       * Identifiers In Use */
 1213              		.loc 1 428 10 is_stmt 0
 1214 01f6 83470400 		lbu	a5,0(s0)
 430:C:/Users/stapi/OneDrive/Desktop/GD32VW553/V1_MQTT_OK/GD32VW55X_Wifi_BLE_SDK/GD32VW55x_RELEASE_V1.0.2/MSDK/wpa_supplicant/src/ap\ieee802_11_shared.c **** 				*pos |= 0x04; /* Bit 82 - SAE Password
 1215              		.loc 1 430 4 is_stmt 1
 430:C:/Users/stapi/OneDrive/Desktop/GD32VW553/V1_MQTT_OK/GD32VW55X_Wifi_BLE_SDK/GD32VW55x_RELEASE_V1.0.2/MSDK/wpa_supplicant/src/ap\ieee802_11_shared.c **** 				*pos |= 0x04; /* Bit 82 - SAE Password
 1216              		.loc 1 430 7 is_stmt 0
 1217 01fa 6305B503 		beq	a0,s11,.L69
 428:C:/Users/stapi/OneDrive/Desktop/GD32VW553/V1_MQTT_OK/GD32VW55X_Wifi_BLE_SDK/GD32VW55x_RELEASE_V1.0.2/MSDK/wpa_supplicant/src/ap\ieee802_11_shared.c **** 					       * Identifiers In Use */
 1218              		.loc 1 428 10
 1219 01fe 93E72700 		ori	a5,a5,2
 1220              	.L135:
 431:C:/Users/stapi/OneDrive/Desktop/GD32VW553/V1_MQTT_OK/GD32VW55X_Wifi_BLE_SDK/GD32VW55x_RELEASE_V1.0.2/MSDK/wpa_supplicant/src/ap\ieee802_11_shared.c **** 					       * Identifiers Used Exclusively */
 1221              		.loc 1 431 10
 1222 0202 2300F400 		sb	a5,0(s0)
 1223              	.LVL103:
 1224              	.L67:
 1225              	.LBE64:
 435:C:/Users/stapi/OneDrive/Desktop/GD32VW553/V1_MQTT_OK/GD32VW55X_Wifi_BLE_SDK/GD32VW55x_RELEASE_V1.0.2/MSDK/wpa_supplicant/src/ap\ieee802_11_shared.c **** 		    (hapd->iface->drv_flags &
 1226              		.loc 1 435 3 is_stmt 1
 435:C:/Users/stapi/OneDrive/Desktop/GD32VW553/V1_MQTT_OK/GD32VW55X_Wifi_BLE_SDK/GD32VW55x_RELEASE_V1.0.2/MSDK/wpa_supplicant/src/ap\ieee802_11_shared.c **** 		    (hapd->iface->drv_flags &
 1227              		.loc 1 435 17 is_stmt 0
 1228 0206 9C44     		lw	a5,8(s1)
 435:C:/Users/stapi/OneDrive/Desktop/GD32VW553/V1_MQTT_OK/GD32VW55X_Wifi_BLE_SDK/GD32VW55x_RELEASE_V1.0.2/MSDK/wpa_supplicant/src/ap\ieee802_11_shared.c **** 		    (hapd->iface->drv_flags &
 1229              		.loc 1 435 6
 1230 0208 83A78715 		lw	a5,344(a5)
 1231 020c 95DB     		beq	a5,zero,.L46
 436:C:/Users/stapi/OneDrive/Desktop/GD32VW553/V1_MQTT_OK/GD32VW55X_Wifi_BLE_SDK/GD32VW55x_RELEASE_V1.0.2/MSDK/wpa_supplicant/src/ap\ieee802_11_shared.c **** 		     WPA_DRIVER_FLAGS_BEACON_PROTECTION))
 1232              		.loc 1 436 19
 1233 020e 9C40     		lw	a5,0(s1)
 436:C:/Users/stapi/OneDrive/Desktop/GD32VW553/V1_MQTT_OK/GD32VW55X_Wifi_BLE_SDK/GD32VW55x_RELEASE_V1.0.2/MSDK/wpa_supplicant/src/ap\ieee802_11_shared.c **** 		     WPA_DRIVER_FLAGS_BEACON_PROTECTION))
 1234              		.loc 1 436 31
 1235 0210 83A7C743 		lw	a5,1084(a5)
 1236 0214 B3F79701 		and	a5,a5,s9
 435:C:/Users/stapi/OneDrive/Desktop/GD32VW553/V1_MQTT_OK/GD32VW55X_Wifi_BLE_SDK/GD32VW55x_RELEASE_V1.0.2/MSDK/wpa_supplicant/src/ap\ieee802_11_shared.c **** 		    (hapd->iface->drv_flags &
 1237              		.loc 1 435 31
 1238 0218 85D7     		beq	a5,zero,.L46
 438:C:/Users/stapi/OneDrive/Desktop/GD32VW553/V1_MQTT_OK/GD32VW55X_Wifi_BLE_SDK/GD32VW55x_RELEASE_V1.0.2/MSDK/wpa_supplicant/src/ap\ieee802_11_shared.c **** 		break;
 1239              		.loc 1 438 4 is_stmt 1
 438:C:/Users/stapi/OneDrive/Desktop/GD32VW553/V1_MQTT_OK/GD32VW55X_Wifi_BLE_SDK/GD32VW55x_RELEASE_V1.0.2/MSDK/wpa_supplicant/src/ap\ieee802_11_shared.c **** 		break;
 1240              		.loc 1 438 9 is_stmt 0
 1241 021a 83470400 		lbu	a5,0(s0)
 1242 021e 93E70701 		ori	a5,a5,16
 1243 0222 BDBD     		j	.L136
 1244              	.LVL104:
 1245              	.L69:
 1246              	.LBB65:
 431:C:/Users/stapi/OneDrive/Desktop/GD32VW553/V1_MQTT_OK/GD32VW55X_Wifi_BLE_SDK/GD32VW55x_RELEASE_V1.0.2/MSDK/wpa_supplicant/src/ap\ieee802_11_shared.c **** 					       * Identifiers Used Exclusively */
 1247              		.loc 1 431 5 is_stmt 1
 431:C:/Users/stapi/OneDrive/Desktop/GD32VW553/V1_MQTT_OK/GD32VW55X_Wifi_BLE_SDK/GD32VW55x_RELEASE_V1.0.2/MSDK/wpa_supplicant/src/ap\ieee802_11_shared.c **** 					       * Identifiers Used Exclusively */
 1248              		.loc 1 431 10 is_stmt 0
 1249 0224 93E76700 		ori	a5,a5,6
 1250 0228 E9BF     		j	.L135
 1251              	.LVL105:
 1252              	.L76:
 1253              	.LBE65:
 1254              	.LBE68:
 1255              	.LBE71:
 477:C:/Users/stapi/OneDrive/Desktop/GD32VW553/V1_MQTT_OK/GD32VW55X_Wifi_BLE_SDK/GD32VW55x_RELEASE_V1.0.2/MSDK/wpa_supplicant/src/ap\ieee802_11_shared.c **** 		eid[1] = len;
 1256              		.loc 1 477 3 is_stmt 1
 477:C:/Users/stapi/OneDrive/Desktop/GD32VW553/V1_MQTT_OK/GD32VW55X_Wifi_BLE_SDK/GD32VW55x_RELEASE_V1.0.2/MSDK/wpa_supplicant/src/ap\ieee802_11_shared.c **** 		eid[1] = len;
 1257              		.loc 1 477 6 is_stmt 0
 1258 022a 7D19     		addi	s2,s2,-1
 1259              	.LVL106:
 1260 022c 1379F90F 		andi	s2,s2,0xff
 1261              	.LVL107:
 478:C:/Users/stapi/OneDrive/Desktop/GD32VW553/V1_MQTT_OK/GD32VW55X_Wifi_BLE_SDK/GD32VW55x_RELEASE_V1.0.2/MSDK/wpa_supplicant/src/ap\ieee802_11_shared.c **** 	}
 1262              		.loc 1 478 3 is_stmt 1
 478:C:/Users/stapi/OneDrive/Desktop/GD32VW553/V1_MQTT_OK/GD32VW55X_Wifi_BLE_SDK/GD32VW55x_RELEASE_V1.0.2/MSDK/wpa_supplicant/src/ap\ieee802_11_shared.c **** 	}
 1263              		.loc 1 478 10 is_stmt 0
 1264 0230 A3002A01 		sb	s2,1(s4)
 1265 0234 05B5     		j	.L74
 1266              		.cfi_endproc
 1267              	.LFE172:
 1269              		.section	.text.hostapd_eid_qos_map_set,"ax",@progbits
 1270              		.align	1
 1271              		.globl	hostapd_eid_qos_map_set
 1273              	hostapd_eid_qos_map_set:
 1274              	.LFB173:
 485:C:/Users/stapi/OneDrive/Desktop/GD32VW553/V1_MQTT_OK/GD32VW55X_Wifi_BLE_SDK/GD32VW55x_RELEASE_V1.0.2/MSDK/wpa_supplicant/src/ap\ieee802_11_shared.c **** 
 486:C:/Users/stapi/OneDrive/Desktop/GD32VW553/V1_MQTT_OK/GD32VW55X_Wifi_BLE_SDK/GD32VW55x_RELEASE_V1.0.2/MSDK/wpa_supplicant/src/ap\ieee802_11_shared.c **** 
 487:C:/Users/stapi/OneDrive/Desktop/GD32VW553/V1_MQTT_OK/GD32VW55X_Wifi_BLE_SDK/GD32VW55x_RELEASE_V1.0.2/MSDK/wpa_supplicant/src/ap\ieee802_11_shared.c **** u8 * hostapd_eid_qos_map_set(struct hostapd_data *hapd, u8 *eid)
 488:C:/Users/stapi/OneDrive/Desktop/GD32VW553/V1_MQTT_OK/GD32VW55X_Wifi_BLE_SDK/GD32VW55x_RELEASE_V1.0.2/MSDK/wpa_supplicant/src/ap\ieee802_11_shared.c **** {
 1275              		.loc 1 488 1 is_stmt 1
 1276              		.cfi_startproc
 1277              	.LVL108:
 1278 0000 17030000 		call	t0,__riscv_save_2
 1278      E7020300 
 1279              		.cfi_offset 9, -12
 1280              		.cfi_offset 8, -8
 1281              		.cfi_offset 1, -4
 1282              		.cfi_def_cfa_offset 16
 489:C:/Users/stapi/OneDrive/Desktop/GD32VW553/V1_MQTT_OK/GD32VW55X_Wifi_BLE_SDK/GD32VW55x_RELEASE_V1.0.2/MSDK/wpa_supplicant/src/ap\ieee802_11_shared.c **** 	u8 *pos = eid;
 1283              		.loc 1 489 2
 1284              	.LVL109:
 490:C:/Users/stapi/OneDrive/Desktop/GD32VW553/V1_MQTT_OK/GD32VW55X_Wifi_BLE_SDK/GD32VW55x_RELEASE_V1.0.2/MSDK/wpa_supplicant/src/ap\ieee802_11_shared.c **** 	u8 len = hapd->conf->qos_map_set_len;
 1285              		.loc 1 490 2
 488:C:/Users/stapi/OneDrive/Desktop/GD32VW553/V1_MQTT_OK/GD32VW55X_Wifi_BLE_SDK/GD32VW55x_RELEASE_V1.0.2/MSDK/wpa_supplicant/src/ap\ieee802_11_shared.c **** 	u8 *pos = eid;
 1286              		.loc 1 488 1 is_stmt 0
 1287 0008 AA87     		mv	a5,a0
 1288              		.loc 1 490 21
 1289 000a 9847     		lw	a4,8(a5)
 488:C:/Users/stapi/OneDrive/Desktop/GD32VW553/V1_MQTT_OK/GD32VW55X_Wifi_BLE_SDK/GD32VW55x_RELEASE_V1.0.2/MSDK/wpa_supplicant/src/ap\ieee802_11_shared.c **** 	u8 *pos = eid;
 1290              		.loc 1 488 1
 1291 000c 2E85     		mv	a0,a1
 1292              	.LVL110:
 1293              		.loc 1 490 21
 1294 000e 03240736 		lw	s0,864(a4)
 1295              		.loc 1 490 5
 1296 0012 1377F40F 		andi	a4,s0,0xff
 1297              	.LVL111:
 491:C:/Users/stapi/OneDrive/Desktop/GD32VW553/V1_MQTT_OK/GD32VW55X_Wifi_BLE_SDK/GD32VW55x_RELEASE_V1.0.2/MSDK/wpa_supplicant/src/ap\ieee802_11_shared.c **** 
 492:C:/Users/stapi/OneDrive/Desktop/GD32VW553/V1_MQTT_OK/GD32VW55X_Wifi_BLE_SDK/GD32VW55x_RELEASE_V1.0.2/MSDK/wpa_supplicant/src/ap\ieee802_11_shared.c **** 	if (!len)
 1298              		.loc 1 492 2 is_stmt 1
 1299              		.loc 1 492 5 is_stmt 0
 1300 0016 15C7     		beq	a4,zero,.L142
 493:C:/Users/stapi/OneDrive/Desktop/GD32VW553/V1_MQTT_OK/GD32VW55X_Wifi_BLE_SDK/GD32VW55x_RELEASE_V1.0.2/MSDK/wpa_supplicant/src/ap\ieee802_11_shared.c **** 		return eid;
 494:C:/Users/stapi/OneDrive/Desktop/GD32VW553/V1_MQTT_OK/GD32VW55X_Wifi_BLE_SDK/GD32VW55x_RELEASE_V1.0.2/MSDK/wpa_supplicant/src/ap\ieee802_11_shared.c **** 
 495:C:/Users/stapi/OneDrive/Desktop/GD32VW553/V1_MQTT_OK/GD32VW55X_Wifi_BLE_SDK/GD32VW55x_RELEASE_V1.0.2/MSDK/wpa_supplicant/src/ap\ieee802_11_shared.c **** 	*pos++ = WLAN_EID_QOS_MAP_SET;
 1301              		.loc 1 495 2 is_stmt 1
 1302              	.LVL112:
 1303              		.loc 1 495 9 is_stmt 0
 1304 0018 9306E006 		li	a3,110
 1305 001c 2380D500 		sb	a3,0(a1)
 496:C:/Users/stapi/OneDrive/Desktop/GD32VW553/V1_MQTT_OK/GD32VW55X_Wifi_BLE_SDK/GD32VW55x_RELEASE_V1.0.2/MSDK/wpa_supplicant/src/ap\ieee802_11_shared.c **** 	*pos++ = len;
 1306              		.loc 1 496 2 is_stmt 1
 1307              		.loc 1 496 9 is_stmt 0
 1308 0020 A380E500 		sb	a4,1(a1)
 1309              		.loc 1 496 6
 1310 0024 93842500 		addi	s1,a1,2
 1311              	.LVL113:
 497:C:/Users/stapi/OneDrive/Desktop/GD32VW553/V1_MQTT_OK/GD32VW55X_Wifi_BLE_SDK/GD32VW55x_RELEASE_V1.0.2/MSDK/wpa_supplicant/src/ap\ieee802_11_shared.c **** 	os_memcpy(pos, hapd->conf->qos_map_set, len);
 1312              		.loc 1 497 2 is_stmt 1
 1313              		.loc 1 497 27 is_stmt 0
 1314 0028 8C47     		lw	a1,8(a5)
 1315              	.LVL114:
 1316 002a 1374F40F 		andi	s0,s0,255
 1317              		.loc 1 497 2
 1318 002e 2286     		mv	a2,s0
 1319 0030 93854532 		addi	a1,a1,804
 1320 0034 2685     		mv	a0,s1
 1321              	.LVL115:
 1322 0036 97000000 		call	os_memcpy
 1322      E7800000 
 1323              	.LVL116:
 498:C:/Users/stapi/OneDrive/Desktop/GD32VW553/V1_MQTT_OK/GD32VW55X_Wifi_BLE_SDK/GD32VW55x_RELEASE_V1.0.2/MSDK/wpa_supplicant/src/ap\ieee802_11_shared.c **** 	pos += len;
 1324              		.loc 1 498 2 is_stmt 1
 1325              		.loc 1 498 6 is_stmt 0
 1326 003e 33858400 		add	a0,s1,s0
 1327              	.LVL117:
 499:C:/Users/stapi/OneDrive/Desktop/GD32VW553/V1_MQTT_OK/GD32VW55X_Wifi_BLE_SDK/GD32VW55x_RELEASE_V1.0.2/MSDK/wpa_supplicant/src/ap\ieee802_11_shared.c **** 
 500:C:/Users/stapi/OneDrive/Desktop/GD32VW553/V1_MQTT_OK/GD32VW55X_Wifi_BLE_SDK/GD32VW55x_RELEASE_V1.0.2/MSDK/wpa_supplicant/src/ap\ieee802_11_shared.c **** 	return pos;
 1328              		.loc 1 500 2 is_stmt 1
 1329              	.L142:
 501:C:/Users/stapi/OneDrive/Desktop/GD32VW553/V1_MQTT_OK/GD32VW55X_Wifi_BLE_SDK/GD32VW55x_RELEASE_V1.0.2/MSDK/wpa_supplicant/src/ap\ieee802_11_shared.c **** }
 1330              		.loc 1 501 1 is_stmt 0
 1331 0042 17030000 		tail	__riscv_restore_2
 1331      67000300 
 1332              		.cfi_restore 9
 1333              		.cfi_restore 8
 1334              		.cfi_restore 1
 1335              		.cfi_def_cfa_offset 0
 1336              		.cfi_endproc
 1337              	.LFE173:
 1339              		.section	.text.hostapd_eid_interworking,"ax",@progbits
 1340              		.align	1
 1341              		.globl	hostapd_eid_interworking
 1343              	hostapd_eid_interworking:
 1344              	.LFB174:
 502:C:/Users/stapi/OneDrive/Desktop/GD32VW553/V1_MQTT_OK/GD32VW55X_Wifi_BLE_SDK/GD32VW55x_RELEASE_V1.0.2/MSDK/wpa_supplicant/src/ap\ieee802_11_shared.c **** 
 503:C:/Users/stapi/OneDrive/Desktop/GD32VW553/V1_MQTT_OK/GD32VW55X_Wifi_BLE_SDK/GD32VW55x_RELEASE_V1.0.2/MSDK/wpa_supplicant/src/ap\ieee802_11_shared.c **** 
 504:C:/Users/stapi/OneDrive/Desktop/GD32VW553/V1_MQTT_OK/GD32VW55X_Wifi_BLE_SDK/GD32VW55x_RELEASE_V1.0.2/MSDK/wpa_supplicant/src/ap\ieee802_11_shared.c **** u8 * hostapd_eid_interworking(struct hostapd_data *hapd, u8 *eid)
 505:C:/Users/stapi/OneDrive/Desktop/GD32VW553/V1_MQTT_OK/GD32VW55X_Wifi_BLE_SDK/GD32VW55x_RELEASE_V1.0.2/MSDK/wpa_supplicant/src/ap\ieee802_11_shared.c **** {
 1345              		.loc 1 505 1 is_stmt 1
 1346              		.cfi_startproc
 1347              	.LVL118:
 506:C:/Users/stapi/OneDrive/Desktop/GD32VW553/V1_MQTT_OK/GD32VW55X_Wifi_BLE_SDK/GD32VW55x_RELEASE_V1.0.2/MSDK/wpa_supplicant/src/ap\ieee802_11_shared.c **** 	u8 *pos = eid;
 1348              		.loc 1 506 2
 507:C:/Users/stapi/OneDrive/Desktop/GD32VW553/V1_MQTT_OK/GD32VW55X_Wifi_BLE_SDK/GD32VW55x_RELEASE_V1.0.2/MSDK/wpa_supplicant/src/ap\ieee802_11_shared.c **** #ifdef CONFIG_INTERWORKING
 508:C:/Users/stapi/OneDrive/Desktop/GD32VW553/V1_MQTT_OK/GD32VW55X_Wifi_BLE_SDK/GD32VW55x_RELEASE_V1.0.2/MSDK/wpa_supplicant/src/ap\ieee802_11_shared.c **** 	u8 *len;
 509:C:/Users/stapi/OneDrive/Desktop/GD32VW553/V1_MQTT_OK/GD32VW55X_Wifi_BLE_SDK/GD32VW55x_RELEASE_V1.0.2/MSDK/wpa_supplicant/src/ap\ieee802_11_shared.c **** 
 510:C:/Users/stapi/OneDrive/Desktop/GD32VW553/V1_MQTT_OK/GD32VW55X_Wifi_BLE_SDK/GD32VW55x_RELEASE_V1.0.2/MSDK/wpa_supplicant/src/ap\ieee802_11_shared.c **** 	if (!hapd->conf->interworking)
 511:C:/Users/stapi/OneDrive/Desktop/GD32VW553/V1_MQTT_OK/GD32VW55X_Wifi_BLE_SDK/GD32VW55x_RELEASE_V1.0.2/MSDK/wpa_supplicant/src/ap\ieee802_11_shared.c **** 		return eid;
 512:C:/Users/stapi/OneDrive/Desktop/GD32VW553/V1_MQTT_OK/GD32VW55X_Wifi_BLE_SDK/GD32VW55x_RELEASE_V1.0.2/MSDK/wpa_supplicant/src/ap\ieee802_11_shared.c **** 
 513:C:/Users/stapi/OneDrive/Desktop/GD32VW553/V1_MQTT_OK/GD32VW55X_Wifi_BLE_SDK/GD32VW55x_RELEASE_V1.0.2/MSDK/wpa_supplicant/src/ap\ieee802_11_shared.c **** 	*pos++ = WLAN_EID_INTERWORKING;
 514:C:/Users/stapi/OneDrive/Desktop/GD32VW553/V1_MQTT_OK/GD32VW55X_Wifi_BLE_SDK/GD32VW55x_RELEASE_V1.0.2/MSDK/wpa_supplicant/src/ap\ieee802_11_shared.c **** 	len = pos++;
 515:C:/Users/stapi/OneDrive/Desktop/GD32VW553/V1_MQTT_OK/GD32VW55X_Wifi_BLE_SDK/GD32VW55x_RELEASE_V1.0.2/MSDK/wpa_supplicant/src/ap\ieee802_11_shared.c **** 
 516:C:/Users/stapi/OneDrive/Desktop/GD32VW553/V1_MQTT_OK/GD32VW55X_Wifi_BLE_SDK/GD32VW55x_RELEASE_V1.0.2/MSDK/wpa_supplicant/src/ap\ieee802_11_shared.c **** 	*pos = hapd->conf->access_network_type;
 517:C:/Users/stapi/OneDrive/Desktop/GD32VW553/V1_MQTT_OK/GD32VW55X_Wifi_BLE_SDK/GD32VW55x_RELEASE_V1.0.2/MSDK/wpa_supplicant/src/ap\ieee802_11_shared.c **** 	if (hapd->conf->internet)
 518:C:/Users/stapi/OneDrive/Desktop/GD32VW553/V1_MQTT_OK/GD32VW55X_Wifi_BLE_SDK/GD32VW55x_RELEASE_V1.0.2/MSDK/wpa_supplicant/src/ap\ieee802_11_shared.c **** 		*pos |= INTERWORKING_ANO_INTERNET;
 519:C:/Users/stapi/OneDrive/Desktop/GD32VW553/V1_MQTT_OK/GD32VW55X_Wifi_BLE_SDK/GD32VW55x_RELEASE_V1.0.2/MSDK/wpa_supplicant/src/ap\ieee802_11_shared.c **** 	if (hapd->conf->asra)
 520:C:/Users/stapi/OneDrive/Desktop/GD32VW553/V1_MQTT_OK/GD32VW55X_Wifi_BLE_SDK/GD32VW55x_RELEASE_V1.0.2/MSDK/wpa_supplicant/src/ap\ieee802_11_shared.c **** 		*pos |= INTERWORKING_ANO_ASRA;
 521:C:/Users/stapi/OneDrive/Desktop/GD32VW553/V1_MQTT_OK/GD32VW55X_Wifi_BLE_SDK/GD32VW55x_RELEASE_V1.0.2/MSDK/wpa_supplicant/src/ap\ieee802_11_shared.c **** 	if (hapd->conf->esr)
 522:C:/Users/stapi/OneDrive/Desktop/GD32VW553/V1_MQTT_OK/GD32VW55X_Wifi_BLE_SDK/GD32VW55x_RELEASE_V1.0.2/MSDK/wpa_supplicant/src/ap\ieee802_11_shared.c **** 		*pos |= INTERWORKING_ANO_ESR;
 523:C:/Users/stapi/OneDrive/Desktop/GD32VW553/V1_MQTT_OK/GD32VW55X_Wifi_BLE_SDK/GD32VW55x_RELEASE_V1.0.2/MSDK/wpa_supplicant/src/ap\ieee802_11_shared.c **** 	if (hapd->conf->uesa)
 524:C:/Users/stapi/OneDrive/Desktop/GD32VW553/V1_MQTT_OK/GD32VW55X_Wifi_BLE_SDK/GD32VW55x_RELEASE_V1.0.2/MSDK/wpa_supplicant/src/ap\ieee802_11_shared.c **** 		*pos |= INTERWORKING_ANO_UESA;
 525:C:/Users/stapi/OneDrive/Desktop/GD32VW553/V1_MQTT_OK/GD32VW55X_Wifi_BLE_SDK/GD32VW55x_RELEASE_V1.0.2/MSDK/wpa_supplicant/src/ap\ieee802_11_shared.c **** 	pos++;
 526:C:/Users/stapi/OneDrive/Desktop/GD32VW553/V1_MQTT_OK/GD32VW55X_Wifi_BLE_SDK/GD32VW55x_RELEASE_V1.0.2/MSDK/wpa_supplicant/src/ap\ieee802_11_shared.c **** 
 527:C:/Users/stapi/OneDrive/Desktop/GD32VW553/V1_MQTT_OK/GD32VW55X_Wifi_BLE_SDK/GD32VW55x_RELEASE_V1.0.2/MSDK/wpa_supplicant/src/ap\ieee802_11_shared.c **** 	if (hapd->conf->venue_info_set) {
 528:C:/Users/stapi/OneDrive/Desktop/GD32VW553/V1_MQTT_OK/GD32VW55X_Wifi_BLE_SDK/GD32VW55x_RELEASE_V1.0.2/MSDK/wpa_supplicant/src/ap\ieee802_11_shared.c **** 		*pos++ = hapd->conf->venue_group;
 529:C:/Users/stapi/OneDrive/Desktop/GD32VW553/V1_MQTT_OK/GD32VW55X_Wifi_BLE_SDK/GD32VW55x_RELEASE_V1.0.2/MSDK/wpa_supplicant/src/ap\ieee802_11_shared.c **** 		*pos++ = hapd->conf->venue_type;
 530:C:/Users/stapi/OneDrive/Desktop/GD32VW553/V1_MQTT_OK/GD32VW55X_Wifi_BLE_SDK/GD32VW55x_RELEASE_V1.0.2/MSDK/wpa_supplicant/src/ap\ieee802_11_shared.c **** 	}
 531:C:/Users/stapi/OneDrive/Desktop/GD32VW553/V1_MQTT_OK/GD32VW55X_Wifi_BLE_SDK/GD32VW55x_RELEASE_V1.0.2/MSDK/wpa_supplicant/src/ap\ieee802_11_shared.c **** 
 532:C:/Users/stapi/OneDrive/Desktop/GD32VW553/V1_MQTT_OK/GD32VW55X_Wifi_BLE_SDK/GD32VW55x_RELEASE_V1.0.2/MSDK/wpa_supplicant/src/ap\ieee802_11_shared.c **** 	if (!is_zero_ether_addr(hapd->conf->hessid)) {
 533:C:/Users/stapi/OneDrive/Desktop/GD32VW553/V1_MQTT_OK/GD32VW55X_Wifi_BLE_SDK/GD32VW55x_RELEASE_V1.0.2/MSDK/wpa_supplicant/src/ap\ieee802_11_shared.c **** 		os_memcpy(pos, hapd->conf->hessid, ETH_ALEN);
 534:C:/Users/stapi/OneDrive/Desktop/GD32VW553/V1_MQTT_OK/GD32VW55X_Wifi_BLE_SDK/GD32VW55x_RELEASE_V1.0.2/MSDK/wpa_supplicant/src/ap\ieee802_11_shared.c **** 		pos += ETH_ALEN;
 535:C:/Users/stapi/OneDrive/Desktop/GD32VW553/V1_MQTT_OK/GD32VW55X_Wifi_BLE_SDK/GD32VW55x_RELEASE_V1.0.2/MSDK/wpa_supplicant/src/ap\ieee802_11_shared.c **** 	}
 536:C:/Users/stapi/OneDrive/Desktop/GD32VW553/V1_MQTT_OK/GD32VW55X_Wifi_BLE_SDK/GD32VW55x_RELEASE_V1.0.2/MSDK/wpa_supplicant/src/ap\ieee802_11_shared.c **** 
 537:C:/Users/stapi/OneDrive/Desktop/GD32VW553/V1_MQTT_OK/GD32VW55X_Wifi_BLE_SDK/GD32VW55x_RELEASE_V1.0.2/MSDK/wpa_supplicant/src/ap\ieee802_11_shared.c **** 	*len = pos - len - 1;
 538:C:/Users/stapi/OneDrive/Desktop/GD32VW553/V1_MQTT_OK/GD32VW55X_Wifi_BLE_SDK/GD32VW55x_RELEASE_V1.0.2/MSDK/wpa_supplicant/src/ap\ieee802_11_shared.c **** #endif /* CONFIG_INTERWORKING */
 539:C:/Users/stapi/OneDrive/Desktop/GD32VW553/V1_MQTT_OK/GD32VW55X_Wifi_BLE_SDK/GD32VW55x_RELEASE_V1.0.2/MSDK/wpa_supplicant/src/ap\ieee802_11_shared.c **** 
 540:C:/Users/stapi/OneDrive/Desktop/GD32VW553/V1_MQTT_OK/GD32VW55X_Wifi_BLE_SDK/GD32VW55x_RELEASE_V1.0.2/MSDK/wpa_supplicant/src/ap\ieee802_11_shared.c **** 	return pos;
 1349              		.loc 1 540 2
 541:C:/Users/stapi/OneDrive/Desktop/GD32VW553/V1_MQTT_OK/GD32VW55X_Wifi_BLE_SDK/GD32VW55x_RELEASE_V1.0.2/MSDK/wpa_supplicant/src/ap\ieee802_11_shared.c **** }
 1350              		.loc 1 541 1 is_stmt 0
 1351 0000 2E85     		mv	a0,a1
 1352              	.LVL119:
 1353 0002 8280     		ret
 1354              		.cfi_endproc
 1355              	.LFE174:
 1357              		.section	.text.hostapd_eid_adv_proto,"ax",@progbits
 1358              		.align	1
 1359              		.globl	hostapd_eid_adv_proto
 1361              	hostapd_eid_adv_proto:
 1362              	.LFB190:
 1363              		.cfi_startproc
 1364 0000 2E85     		mv	a0,a1
 1365 0002 8280     		ret
 1366              		.cfi_endproc
 1367              	.LFE190:
 1369              		.section	.text.hostapd_eid_roaming_consortium,"ax",@progbits
 1370              		.align	1
 1371              		.globl	hostapd_eid_roaming_consortium
 1373              	hostapd_eid_roaming_consortium:
 1374              	.LFB192:
 1375              		.cfi_startproc
 1376 0000 2E85     		mv	a0,a1
 1377 0002 8280     		ret
 1378              		.cfi_endproc
 1379              	.LFE192:
 1381              		.section	.text.hostapd_eid_time_zone,"ax",@progbits
 1382              		.align	1
 1383              		.globl	hostapd_eid_time_zone
 1385              	hostapd_eid_time_zone:
 1386              	.LFB178:
 542:C:/Users/stapi/OneDrive/Desktop/GD32VW553/V1_MQTT_OK/GD32VW55X_Wifi_BLE_SDK/GD32VW55x_RELEASE_V1.0.2/MSDK/wpa_supplicant/src/ap\ieee802_11_shared.c **** 
 543:C:/Users/stapi/OneDrive/Desktop/GD32VW553/V1_MQTT_OK/GD32VW55X_Wifi_BLE_SDK/GD32VW55x_RELEASE_V1.0.2/MSDK/wpa_supplicant/src/ap\ieee802_11_shared.c **** 
 544:C:/Users/stapi/OneDrive/Desktop/GD32VW553/V1_MQTT_OK/GD32VW55X_Wifi_BLE_SDK/GD32VW55x_RELEASE_V1.0.2/MSDK/wpa_supplicant/src/ap\ieee802_11_shared.c **** u8 * hostapd_eid_adv_proto(struct hostapd_data *hapd, u8 *eid)
 545:C:/Users/stapi/OneDrive/Desktop/GD32VW553/V1_MQTT_OK/GD32VW55X_Wifi_BLE_SDK/GD32VW55x_RELEASE_V1.0.2/MSDK/wpa_supplicant/src/ap\ieee802_11_shared.c **** {
 546:C:/Users/stapi/OneDrive/Desktop/GD32VW553/V1_MQTT_OK/GD32VW55X_Wifi_BLE_SDK/GD32VW55x_RELEASE_V1.0.2/MSDK/wpa_supplicant/src/ap\ieee802_11_shared.c **** 	u8 *pos = eid;
 547:C:/Users/stapi/OneDrive/Desktop/GD32VW553/V1_MQTT_OK/GD32VW55X_Wifi_BLE_SDK/GD32VW55x_RELEASE_V1.0.2/MSDK/wpa_supplicant/src/ap\ieee802_11_shared.c **** #ifdef CONFIG_INTERWORKING
 548:C:/Users/stapi/OneDrive/Desktop/GD32VW553/V1_MQTT_OK/GD32VW55X_Wifi_BLE_SDK/GD32VW55x_RELEASE_V1.0.2/MSDK/wpa_supplicant/src/ap\ieee802_11_shared.c **** 
 549:C:/Users/stapi/OneDrive/Desktop/GD32VW553/V1_MQTT_OK/GD32VW55X_Wifi_BLE_SDK/GD32VW55x_RELEASE_V1.0.2/MSDK/wpa_supplicant/src/ap\ieee802_11_shared.c **** 	/* TODO: Separate configuration for ANQP? */
 550:C:/Users/stapi/OneDrive/Desktop/GD32VW553/V1_MQTT_OK/GD32VW55X_Wifi_BLE_SDK/GD32VW55x_RELEASE_V1.0.2/MSDK/wpa_supplicant/src/ap\ieee802_11_shared.c **** 	if (!hapd->conf->interworking)
 551:C:/Users/stapi/OneDrive/Desktop/GD32VW553/V1_MQTT_OK/GD32VW55X_Wifi_BLE_SDK/GD32VW55x_RELEASE_V1.0.2/MSDK/wpa_supplicant/src/ap\ieee802_11_shared.c **** 		return eid;
 552:C:/Users/stapi/OneDrive/Desktop/GD32VW553/V1_MQTT_OK/GD32VW55X_Wifi_BLE_SDK/GD32VW55x_RELEASE_V1.0.2/MSDK/wpa_supplicant/src/ap\ieee802_11_shared.c **** 
 553:C:/Users/stapi/OneDrive/Desktop/GD32VW553/V1_MQTT_OK/GD32VW55X_Wifi_BLE_SDK/GD32VW55x_RELEASE_V1.0.2/MSDK/wpa_supplicant/src/ap\ieee802_11_shared.c **** 	*pos++ = WLAN_EID_ADV_PROTO;
 554:C:/Users/stapi/OneDrive/Desktop/GD32VW553/V1_MQTT_OK/GD32VW55X_Wifi_BLE_SDK/GD32VW55x_RELEASE_V1.0.2/MSDK/wpa_supplicant/src/ap\ieee802_11_shared.c **** 	*pos++ = 2;
 555:C:/Users/stapi/OneDrive/Desktop/GD32VW553/V1_MQTT_OK/GD32VW55X_Wifi_BLE_SDK/GD32VW55x_RELEASE_V1.0.2/MSDK/wpa_supplicant/src/ap\ieee802_11_shared.c **** 	*pos++ = 0x7F; /* Query Response Length Limit | PAME-BI */
 556:C:/Users/stapi/OneDrive/Desktop/GD32VW553/V1_MQTT_OK/GD32VW55X_Wifi_BLE_SDK/GD32VW55x_RELEASE_V1.0.2/MSDK/wpa_supplicant/src/ap\ieee802_11_shared.c **** 	*pos++ = ACCESS_NETWORK_QUERY_PROTOCOL;
 557:C:/Users/stapi/OneDrive/Desktop/GD32VW553/V1_MQTT_OK/GD32VW55X_Wifi_BLE_SDK/GD32VW55x_RELEASE_V1.0.2/MSDK/wpa_supplicant/src/ap\ieee802_11_shared.c **** #endif /* CONFIG_INTERWORKING */
 558:C:/Users/stapi/OneDrive/Desktop/GD32VW553/V1_MQTT_OK/GD32VW55X_Wifi_BLE_SDK/GD32VW55x_RELEASE_V1.0.2/MSDK/wpa_supplicant/src/ap\ieee802_11_shared.c **** 
 559:C:/Users/stapi/OneDrive/Desktop/GD32VW553/V1_MQTT_OK/GD32VW55X_Wifi_BLE_SDK/GD32VW55x_RELEASE_V1.0.2/MSDK/wpa_supplicant/src/ap\ieee802_11_shared.c **** 	return pos;
 560:C:/Users/stapi/OneDrive/Desktop/GD32VW553/V1_MQTT_OK/GD32VW55X_Wifi_BLE_SDK/GD32VW55x_RELEASE_V1.0.2/MSDK/wpa_supplicant/src/ap\ieee802_11_shared.c **** }
 561:C:/Users/stapi/OneDrive/Desktop/GD32VW553/V1_MQTT_OK/GD32VW55X_Wifi_BLE_SDK/GD32VW55x_RELEASE_V1.0.2/MSDK/wpa_supplicant/src/ap\ieee802_11_shared.c **** 
 562:C:/Users/stapi/OneDrive/Desktop/GD32VW553/V1_MQTT_OK/GD32VW55X_Wifi_BLE_SDK/GD32VW55x_RELEASE_V1.0.2/MSDK/wpa_supplicant/src/ap\ieee802_11_shared.c **** 
 563:C:/Users/stapi/OneDrive/Desktop/GD32VW553/V1_MQTT_OK/GD32VW55X_Wifi_BLE_SDK/GD32VW55x_RELEASE_V1.0.2/MSDK/wpa_supplicant/src/ap\ieee802_11_shared.c **** u8 * hostapd_eid_roaming_consortium(struct hostapd_data *hapd, u8 *eid)
 564:C:/Users/stapi/OneDrive/Desktop/GD32VW553/V1_MQTT_OK/GD32VW55X_Wifi_BLE_SDK/GD32VW55x_RELEASE_V1.0.2/MSDK/wpa_supplicant/src/ap\ieee802_11_shared.c **** {
 565:C:/Users/stapi/OneDrive/Desktop/GD32VW553/V1_MQTT_OK/GD32VW55X_Wifi_BLE_SDK/GD32VW55x_RELEASE_V1.0.2/MSDK/wpa_supplicant/src/ap\ieee802_11_shared.c **** 	u8 *pos = eid;
 566:C:/Users/stapi/OneDrive/Desktop/GD32VW553/V1_MQTT_OK/GD32VW55X_Wifi_BLE_SDK/GD32VW55x_RELEASE_V1.0.2/MSDK/wpa_supplicant/src/ap\ieee802_11_shared.c **** #ifdef CONFIG_INTERWORKING
 567:C:/Users/stapi/OneDrive/Desktop/GD32VW553/V1_MQTT_OK/GD32VW55X_Wifi_BLE_SDK/GD32VW55x_RELEASE_V1.0.2/MSDK/wpa_supplicant/src/ap\ieee802_11_shared.c **** 	u8 *len;
 568:C:/Users/stapi/OneDrive/Desktop/GD32VW553/V1_MQTT_OK/GD32VW55X_Wifi_BLE_SDK/GD32VW55x_RELEASE_V1.0.2/MSDK/wpa_supplicant/src/ap\ieee802_11_shared.c **** 	unsigned int i, count;
 569:C:/Users/stapi/OneDrive/Desktop/GD32VW553/V1_MQTT_OK/GD32VW55X_Wifi_BLE_SDK/GD32VW55x_RELEASE_V1.0.2/MSDK/wpa_supplicant/src/ap\ieee802_11_shared.c **** 
 570:C:/Users/stapi/OneDrive/Desktop/GD32VW553/V1_MQTT_OK/GD32VW55X_Wifi_BLE_SDK/GD32VW55x_RELEASE_V1.0.2/MSDK/wpa_supplicant/src/ap\ieee802_11_shared.c **** 	if (!hapd->conf->interworking ||
 571:C:/Users/stapi/OneDrive/Desktop/GD32VW553/V1_MQTT_OK/GD32VW55X_Wifi_BLE_SDK/GD32VW55x_RELEASE_V1.0.2/MSDK/wpa_supplicant/src/ap\ieee802_11_shared.c **** 	    hapd->conf->roaming_consortium == NULL ||
 572:C:/Users/stapi/OneDrive/Desktop/GD32VW553/V1_MQTT_OK/GD32VW55X_Wifi_BLE_SDK/GD32VW55x_RELEASE_V1.0.2/MSDK/wpa_supplicant/src/ap\ieee802_11_shared.c **** 	    hapd->conf->roaming_consortium_count == 0)
 573:C:/Users/stapi/OneDrive/Desktop/GD32VW553/V1_MQTT_OK/GD32VW55X_Wifi_BLE_SDK/GD32VW55x_RELEASE_V1.0.2/MSDK/wpa_supplicant/src/ap\ieee802_11_shared.c **** 		return eid;
 574:C:/Users/stapi/OneDrive/Desktop/GD32VW553/V1_MQTT_OK/GD32VW55X_Wifi_BLE_SDK/GD32VW55x_RELEASE_V1.0.2/MSDK/wpa_supplicant/src/ap\ieee802_11_shared.c **** 
 575:C:/Users/stapi/OneDrive/Desktop/GD32VW553/V1_MQTT_OK/GD32VW55X_Wifi_BLE_SDK/GD32VW55x_RELEASE_V1.0.2/MSDK/wpa_supplicant/src/ap\ieee802_11_shared.c **** 	*pos++ = WLAN_EID_ROAMING_CONSORTIUM;
 576:C:/Users/stapi/OneDrive/Desktop/GD32VW553/V1_MQTT_OK/GD32VW55X_Wifi_BLE_SDK/GD32VW55x_RELEASE_V1.0.2/MSDK/wpa_supplicant/src/ap\ieee802_11_shared.c **** 	len = pos++;
 577:C:/Users/stapi/OneDrive/Desktop/GD32VW553/V1_MQTT_OK/GD32VW55X_Wifi_BLE_SDK/GD32VW55x_RELEASE_V1.0.2/MSDK/wpa_supplicant/src/ap\ieee802_11_shared.c **** 
 578:C:/Users/stapi/OneDrive/Desktop/GD32VW553/V1_MQTT_OK/GD32VW55X_Wifi_BLE_SDK/GD32VW55x_RELEASE_V1.0.2/MSDK/wpa_supplicant/src/ap\ieee802_11_shared.c **** 	/* Number of ANQP OIs (in addition to the max 3 listed here) */
 579:C:/Users/stapi/OneDrive/Desktop/GD32VW553/V1_MQTT_OK/GD32VW55X_Wifi_BLE_SDK/GD32VW55x_RELEASE_V1.0.2/MSDK/wpa_supplicant/src/ap\ieee802_11_shared.c **** 	if (hapd->conf->roaming_consortium_count > 3 + 255)
 580:C:/Users/stapi/OneDrive/Desktop/GD32VW553/V1_MQTT_OK/GD32VW55X_Wifi_BLE_SDK/GD32VW55x_RELEASE_V1.0.2/MSDK/wpa_supplicant/src/ap\ieee802_11_shared.c **** 		*pos++ = 255;
 581:C:/Users/stapi/OneDrive/Desktop/GD32VW553/V1_MQTT_OK/GD32VW55X_Wifi_BLE_SDK/GD32VW55x_RELEASE_V1.0.2/MSDK/wpa_supplicant/src/ap\ieee802_11_shared.c **** 	else if (hapd->conf->roaming_consortium_count > 3)
 582:C:/Users/stapi/OneDrive/Desktop/GD32VW553/V1_MQTT_OK/GD32VW55X_Wifi_BLE_SDK/GD32VW55x_RELEASE_V1.0.2/MSDK/wpa_supplicant/src/ap\ieee802_11_shared.c **** 		*pos++ = hapd->conf->roaming_consortium_count - 3;
 583:C:/Users/stapi/OneDrive/Desktop/GD32VW553/V1_MQTT_OK/GD32VW55X_Wifi_BLE_SDK/GD32VW55x_RELEASE_V1.0.2/MSDK/wpa_supplicant/src/ap\ieee802_11_shared.c **** 	else
 584:C:/Users/stapi/OneDrive/Desktop/GD32VW553/V1_MQTT_OK/GD32VW55X_Wifi_BLE_SDK/GD32VW55x_RELEASE_V1.0.2/MSDK/wpa_supplicant/src/ap\ieee802_11_shared.c **** 		*pos++ = 0;
 585:C:/Users/stapi/OneDrive/Desktop/GD32VW553/V1_MQTT_OK/GD32VW55X_Wifi_BLE_SDK/GD32VW55x_RELEASE_V1.0.2/MSDK/wpa_supplicant/src/ap\ieee802_11_shared.c **** 
 586:C:/Users/stapi/OneDrive/Desktop/GD32VW553/V1_MQTT_OK/GD32VW55X_Wifi_BLE_SDK/GD32VW55x_RELEASE_V1.0.2/MSDK/wpa_supplicant/src/ap\ieee802_11_shared.c **** 	/* OU #1 and #2 Lengths */
 587:C:/Users/stapi/OneDrive/Desktop/GD32VW553/V1_MQTT_OK/GD32VW55X_Wifi_BLE_SDK/GD32VW55x_RELEASE_V1.0.2/MSDK/wpa_supplicant/src/ap\ieee802_11_shared.c **** 	*pos = hapd->conf->roaming_consortium[0].len;
 588:C:/Users/stapi/OneDrive/Desktop/GD32VW553/V1_MQTT_OK/GD32VW55X_Wifi_BLE_SDK/GD32VW55x_RELEASE_V1.0.2/MSDK/wpa_supplicant/src/ap\ieee802_11_shared.c **** 	if (hapd->conf->roaming_consortium_count > 1)
 589:C:/Users/stapi/OneDrive/Desktop/GD32VW553/V1_MQTT_OK/GD32VW55X_Wifi_BLE_SDK/GD32VW55x_RELEASE_V1.0.2/MSDK/wpa_supplicant/src/ap\ieee802_11_shared.c **** 		*pos |= hapd->conf->roaming_consortium[1].len << 4;
 590:C:/Users/stapi/OneDrive/Desktop/GD32VW553/V1_MQTT_OK/GD32VW55X_Wifi_BLE_SDK/GD32VW55x_RELEASE_V1.0.2/MSDK/wpa_supplicant/src/ap\ieee802_11_shared.c **** 	pos++;
 591:C:/Users/stapi/OneDrive/Desktop/GD32VW553/V1_MQTT_OK/GD32VW55X_Wifi_BLE_SDK/GD32VW55x_RELEASE_V1.0.2/MSDK/wpa_supplicant/src/ap\ieee802_11_shared.c **** 
 592:C:/Users/stapi/OneDrive/Desktop/GD32VW553/V1_MQTT_OK/GD32VW55X_Wifi_BLE_SDK/GD32VW55x_RELEASE_V1.0.2/MSDK/wpa_supplicant/src/ap\ieee802_11_shared.c **** 	if (hapd->conf->roaming_consortium_count > 3)
 593:C:/Users/stapi/OneDrive/Desktop/GD32VW553/V1_MQTT_OK/GD32VW55X_Wifi_BLE_SDK/GD32VW55x_RELEASE_V1.0.2/MSDK/wpa_supplicant/src/ap\ieee802_11_shared.c **** 		count = 3;
 594:C:/Users/stapi/OneDrive/Desktop/GD32VW553/V1_MQTT_OK/GD32VW55X_Wifi_BLE_SDK/GD32VW55x_RELEASE_V1.0.2/MSDK/wpa_supplicant/src/ap\ieee802_11_shared.c **** 	else
 595:C:/Users/stapi/OneDrive/Desktop/GD32VW553/V1_MQTT_OK/GD32VW55X_Wifi_BLE_SDK/GD32VW55x_RELEASE_V1.0.2/MSDK/wpa_supplicant/src/ap\ieee802_11_shared.c **** 		count = hapd->conf->roaming_consortium_count;
 596:C:/Users/stapi/OneDrive/Desktop/GD32VW553/V1_MQTT_OK/GD32VW55X_Wifi_BLE_SDK/GD32VW55x_RELEASE_V1.0.2/MSDK/wpa_supplicant/src/ap\ieee802_11_shared.c **** 
 597:C:/Users/stapi/OneDrive/Desktop/GD32VW553/V1_MQTT_OK/GD32VW55X_Wifi_BLE_SDK/GD32VW55x_RELEASE_V1.0.2/MSDK/wpa_supplicant/src/ap\ieee802_11_shared.c **** 	for (i = 0; i < count; i++) {
 598:C:/Users/stapi/OneDrive/Desktop/GD32VW553/V1_MQTT_OK/GD32VW55X_Wifi_BLE_SDK/GD32VW55x_RELEASE_V1.0.2/MSDK/wpa_supplicant/src/ap\ieee802_11_shared.c **** 		os_memcpy(pos, hapd->conf->roaming_consortium[i].oi,
 599:C:/Users/stapi/OneDrive/Desktop/GD32VW553/V1_MQTT_OK/GD32VW55X_Wifi_BLE_SDK/GD32VW55x_RELEASE_V1.0.2/MSDK/wpa_supplicant/src/ap\ieee802_11_shared.c **** 			  hapd->conf->roaming_consortium[i].len);
 600:C:/Users/stapi/OneDrive/Desktop/GD32VW553/V1_MQTT_OK/GD32VW55X_Wifi_BLE_SDK/GD32VW55x_RELEASE_V1.0.2/MSDK/wpa_supplicant/src/ap\ieee802_11_shared.c **** 		pos += hapd->conf->roaming_consortium[i].len;
 601:C:/Users/stapi/OneDrive/Desktop/GD32VW553/V1_MQTT_OK/GD32VW55X_Wifi_BLE_SDK/GD32VW55x_RELEASE_V1.0.2/MSDK/wpa_supplicant/src/ap\ieee802_11_shared.c **** 	}
 602:C:/Users/stapi/OneDrive/Desktop/GD32VW553/V1_MQTT_OK/GD32VW55X_Wifi_BLE_SDK/GD32VW55x_RELEASE_V1.0.2/MSDK/wpa_supplicant/src/ap\ieee802_11_shared.c **** 
 603:C:/Users/stapi/OneDrive/Desktop/GD32VW553/V1_MQTT_OK/GD32VW55X_Wifi_BLE_SDK/GD32VW55x_RELEASE_V1.0.2/MSDK/wpa_supplicant/src/ap\ieee802_11_shared.c **** 	*len = pos - len - 1;
 604:C:/Users/stapi/OneDrive/Desktop/GD32VW553/V1_MQTT_OK/GD32VW55X_Wifi_BLE_SDK/GD32VW55x_RELEASE_V1.0.2/MSDK/wpa_supplicant/src/ap\ieee802_11_shared.c **** #endif /* CONFIG_INTERWORKING */
 605:C:/Users/stapi/OneDrive/Desktop/GD32VW553/V1_MQTT_OK/GD32VW55X_Wifi_BLE_SDK/GD32VW55x_RELEASE_V1.0.2/MSDK/wpa_supplicant/src/ap\ieee802_11_shared.c **** 
 606:C:/Users/stapi/OneDrive/Desktop/GD32VW553/V1_MQTT_OK/GD32VW55X_Wifi_BLE_SDK/GD32VW55x_RELEASE_V1.0.2/MSDK/wpa_supplicant/src/ap\ieee802_11_shared.c **** 	return pos;
 607:C:/Users/stapi/OneDrive/Desktop/GD32VW553/V1_MQTT_OK/GD32VW55X_Wifi_BLE_SDK/GD32VW55x_RELEASE_V1.0.2/MSDK/wpa_supplicant/src/ap\ieee802_11_shared.c **** }
 608:C:/Users/stapi/OneDrive/Desktop/GD32VW553/V1_MQTT_OK/GD32VW55X_Wifi_BLE_SDK/GD32VW55x_RELEASE_V1.0.2/MSDK/wpa_supplicant/src/ap\ieee802_11_shared.c **** 
 609:C:/Users/stapi/OneDrive/Desktop/GD32VW553/V1_MQTT_OK/GD32VW55X_Wifi_BLE_SDK/GD32VW55x_RELEASE_V1.0.2/MSDK/wpa_supplicant/src/ap\ieee802_11_shared.c **** 
 610:C:/Users/stapi/OneDrive/Desktop/GD32VW553/V1_MQTT_OK/GD32VW55X_Wifi_BLE_SDK/GD32VW55x_RELEASE_V1.0.2/MSDK/wpa_supplicant/src/ap\ieee802_11_shared.c **** u8 * hostapd_eid_time_adv(struct hostapd_data *hapd, u8 *eid)
 611:C:/Users/stapi/OneDrive/Desktop/GD32VW553/V1_MQTT_OK/GD32VW55X_Wifi_BLE_SDK/GD32VW55x_RELEASE_V1.0.2/MSDK/wpa_supplicant/src/ap\ieee802_11_shared.c **** {
 612:C:/Users/stapi/OneDrive/Desktop/GD32VW553/V1_MQTT_OK/GD32VW55X_Wifi_BLE_SDK/GD32VW55x_RELEASE_V1.0.2/MSDK/wpa_supplicant/src/ap\ieee802_11_shared.c **** 	if (hapd->conf->time_advertisement != 2)
 613:C:/Users/stapi/OneDrive/Desktop/GD32VW553/V1_MQTT_OK/GD32VW55X_Wifi_BLE_SDK/GD32VW55x_RELEASE_V1.0.2/MSDK/wpa_supplicant/src/ap\ieee802_11_shared.c **** 		return eid;
 614:C:/Users/stapi/OneDrive/Desktop/GD32VW553/V1_MQTT_OK/GD32VW55X_Wifi_BLE_SDK/GD32VW55x_RELEASE_V1.0.2/MSDK/wpa_supplicant/src/ap\ieee802_11_shared.c **** 
 615:C:/Users/stapi/OneDrive/Desktop/GD32VW553/V1_MQTT_OK/GD32VW55X_Wifi_BLE_SDK/GD32VW55x_RELEASE_V1.0.2/MSDK/wpa_supplicant/src/ap\ieee802_11_shared.c **** 	if (hapd->time_adv == NULL &&
 616:C:/Users/stapi/OneDrive/Desktop/GD32VW553/V1_MQTT_OK/GD32VW55X_Wifi_BLE_SDK/GD32VW55x_RELEASE_V1.0.2/MSDK/wpa_supplicant/src/ap\ieee802_11_shared.c **** 	    hostapd_update_time_adv(hapd) < 0)
 617:C:/Users/stapi/OneDrive/Desktop/GD32VW553/V1_MQTT_OK/GD32VW55X_Wifi_BLE_SDK/GD32VW55x_RELEASE_V1.0.2/MSDK/wpa_supplicant/src/ap\ieee802_11_shared.c **** 		return eid;
 618:C:/Users/stapi/OneDrive/Desktop/GD32VW553/V1_MQTT_OK/GD32VW55X_Wifi_BLE_SDK/GD32VW55x_RELEASE_V1.0.2/MSDK/wpa_supplicant/src/ap\ieee802_11_shared.c **** 
 619:C:/Users/stapi/OneDrive/Desktop/GD32VW553/V1_MQTT_OK/GD32VW55X_Wifi_BLE_SDK/GD32VW55x_RELEASE_V1.0.2/MSDK/wpa_supplicant/src/ap\ieee802_11_shared.c **** 	if (hapd->time_adv == NULL)
 620:C:/Users/stapi/OneDrive/Desktop/GD32VW553/V1_MQTT_OK/GD32VW55X_Wifi_BLE_SDK/GD32VW55x_RELEASE_V1.0.2/MSDK/wpa_supplicant/src/ap\ieee802_11_shared.c **** 		return eid;
 621:C:/Users/stapi/OneDrive/Desktop/GD32VW553/V1_MQTT_OK/GD32VW55X_Wifi_BLE_SDK/GD32VW55x_RELEASE_V1.0.2/MSDK/wpa_supplicant/src/ap\ieee802_11_shared.c **** 
 622:C:/Users/stapi/OneDrive/Desktop/GD32VW553/V1_MQTT_OK/GD32VW55X_Wifi_BLE_SDK/GD32VW55x_RELEASE_V1.0.2/MSDK/wpa_supplicant/src/ap\ieee802_11_shared.c **** 	os_memcpy(eid, wpabuf_head(hapd->time_adv),
 623:C:/Users/stapi/OneDrive/Desktop/GD32VW553/V1_MQTT_OK/GD32VW55X_Wifi_BLE_SDK/GD32VW55x_RELEASE_V1.0.2/MSDK/wpa_supplicant/src/ap\ieee802_11_shared.c **** 		  wpabuf_len(hapd->time_adv));
 624:C:/Users/stapi/OneDrive/Desktop/GD32VW553/V1_MQTT_OK/GD32VW55X_Wifi_BLE_SDK/GD32VW55x_RELEASE_V1.0.2/MSDK/wpa_supplicant/src/ap\ieee802_11_shared.c **** 	eid += wpabuf_len(hapd->time_adv);
 625:C:/Users/stapi/OneDrive/Desktop/GD32VW553/V1_MQTT_OK/GD32VW55X_Wifi_BLE_SDK/GD32VW55x_RELEASE_V1.0.2/MSDK/wpa_supplicant/src/ap\ieee802_11_shared.c **** 
 626:C:/Users/stapi/OneDrive/Desktop/GD32VW553/V1_MQTT_OK/GD32VW55X_Wifi_BLE_SDK/GD32VW55x_RELEASE_V1.0.2/MSDK/wpa_supplicant/src/ap\ieee802_11_shared.c **** 	return eid;
 627:C:/Users/stapi/OneDrive/Desktop/GD32VW553/V1_MQTT_OK/GD32VW55X_Wifi_BLE_SDK/GD32VW55x_RELEASE_V1.0.2/MSDK/wpa_supplicant/src/ap\ieee802_11_shared.c **** }
 628:C:/Users/stapi/OneDrive/Desktop/GD32VW553/V1_MQTT_OK/GD32VW55X_Wifi_BLE_SDK/GD32VW55x_RELEASE_V1.0.2/MSDK/wpa_supplicant/src/ap\ieee802_11_shared.c **** 
 629:C:/Users/stapi/OneDrive/Desktop/GD32VW553/V1_MQTT_OK/GD32VW55X_Wifi_BLE_SDK/GD32VW55x_RELEASE_V1.0.2/MSDK/wpa_supplicant/src/ap\ieee802_11_shared.c **** 
 630:C:/Users/stapi/OneDrive/Desktop/GD32VW553/V1_MQTT_OK/GD32VW55X_Wifi_BLE_SDK/GD32VW55x_RELEASE_V1.0.2/MSDK/wpa_supplicant/src/ap\ieee802_11_shared.c **** u8 * hostapd_eid_time_zone(struct hostapd_data *hapd, u8 *eid)
 631:C:/Users/stapi/OneDrive/Desktop/GD32VW553/V1_MQTT_OK/GD32VW55X_Wifi_BLE_SDK/GD32VW55x_RELEASE_V1.0.2/MSDK/wpa_supplicant/src/ap\ieee802_11_shared.c **** {
 1387              		.loc 1 631 1 is_stmt 1
 1388              		.cfi_startproc
 1389              	.LVL120:
 1390              		.loc 1 631 1 is_stmt 0
 1391 0000 17030000 		call	t0,__riscv_save_4
 1391      E7020300 
 1392              		.cfi_offset 19, -20
 1393              		.cfi_offset 18, -16
 1394              		.cfi_offset 9, -12
 1395              		.cfi_offset 8, -8
 1396              		.cfi_offset 1, -4
 1397              		.cfi_def_cfa_offset 32
 632:C:/Users/stapi/OneDrive/Desktop/GD32VW553/V1_MQTT_OK/GD32VW55X_Wifi_BLE_SDK/GD32VW55x_RELEASE_V1.0.2/MSDK/wpa_supplicant/src/ap\ieee802_11_shared.c **** 	size_t len;
 1398              		.loc 1 632 2 is_stmt 1
 633:C:/Users/stapi/OneDrive/Desktop/GD32VW553/V1_MQTT_OK/GD32VW55X_Wifi_BLE_SDK/GD32VW55x_RELEASE_V1.0.2/MSDK/wpa_supplicant/src/ap\ieee802_11_shared.c **** 
 634:C:/Users/stapi/OneDrive/Desktop/GD32VW553/V1_MQTT_OK/GD32VW55X_Wifi_BLE_SDK/GD32VW55x_RELEASE_V1.0.2/MSDK/wpa_supplicant/src/ap\ieee802_11_shared.c **** 	if (hapd->conf->time_advertisement != 2 || !hapd->conf->time_zone)
 1399              		.loc 1 634 2
 1400              		.loc 1 634 10 is_stmt 0
 1401 0008 1C45     		lw	a5,8(a0)
 1402              		.loc 1 634 5
 1403 000a 0947     		li	a4,2
 631:C:/Users/stapi/OneDrive/Desktop/GD32VW553/V1_MQTT_OK/GD32VW55X_Wifi_BLE_SDK/GD32VW55x_RELEASE_V1.0.2/MSDK/wpa_supplicant/src/ap\ieee802_11_shared.c **** 	size_t len;
 1404              		.loc 1 631 1
 1405 000c 2E84     		mv	s0,a1
 1406              		.loc 1 634 5
 1407 000e 83A6C729 		lw	a3,668(a5)
 1408 0012 639FE602 		bne	a3,a4,.L151
 1409 0016 2A89     		mv	s2,a0
 1410              		.loc 1 634 56 discriminator 1
 1411 0018 03A5072A 		lw	a0,672(a5)
 1412              	.LVL121:
 1413              		.loc 1 634 42 discriminator 1
 1414 001c 15C9     		beq	a0,zero,.L151
 635:C:/Users/stapi/OneDrive/Desktop/GD32VW553/V1_MQTT_OK/GD32VW55X_Wifi_BLE_SDK/GD32VW55x_RELEASE_V1.0.2/MSDK/wpa_supplicant/src/ap\ieee802_11_shared.c **** 		return eid;
 636:C:/Users/stapi/OneDrive/Desktop/GD32VW553/V1_MQTT_OK/GD32VW55X_Wifi_BLE_SDK/GD32VW55x_RELEASE_V1.0.2/MSDK/wpa_supplicant/src/ap\ieee802_11_shared.c **** 
 637:C:/Users/stapi/OneDrive/Desktop/GD32VW553/V1_MQTT_OK/GD32VW55X_Wifi_BLE_SDK/GD32VW55x_RELEASE_V1.0.2/MSDK/wpa_supplicant/src/ap\ieee802_11_shared.c **** 	len = os_strlen(hapd->conf->time_zone);
 1415              		.loc 1 637 2 is_stmt 1
 1416              		.loc 1 637 8 is_stmt 0
 1417 001e 97000000 		call	os_strlen
 1417      E7800000 
 1418              	.LVL122:
 638:C:/Users/stapi/OneDrive/Desktop/GD32VW553/V1_MQTT_OK/GD32VW55X_Wifi_BLE_SDK/GD32VW55x_RELEASE_V1.0.2/MSDK/wpa_supplicant/src/ap\ieee802_11_shared.c **** 
 639:C:/Users/stapi/OneDrive/Desktop/GD32VW553/V1_MQTT_OK/GD32VW55X_Wifi_BLE_SDK/GD32VW55x_RELEASE_V1.0.2/MSDK/wpa_supplicant/src/ap\ieee802_11_shared.c **** 	*eid++ = WLAN_EID_TIME_ZONE;
 1419              		.loc 1 639 9
 1420 0026 93072006 		li	a5,98
 640:C:/Users/stapi/OneDrive/Desktop/GD32VW553/V1_MQTT_OK/GD32VW55X_Wifi_BLE_SDK/GD32VW55x_RELEASE_V1.0.2/MSDK/wpa_supplicant/src/ap\ieee802_11_shared.c **** 	*eid++ = len;
 1421              		.loc 1 640 9
 1422 002a A300A400 		sb	a0,1(s0)
 639:C:/Users/stapi/OneDrive/Desktop/GD32VW553/V1_MQTT_OK/GD32VW55X_Wifi_BLE_SDK/GD32VW55x_RELEASE_V1.0.2/MSDK/wpa_supplicant/src/ap\ieee802_11_shared.c **** 	*eid++ = len;
 1423              		.loc 1 639 9
 1424 002e 2300F400 		sb	a5,0(s0)
 641:C:/Users/stapi/OneDrive/Desktop/GD32VW553/V1_MQTT_OK/GD32VW55X_Wifi_BLE_SDK/GD32VW55x_RELEASE_V1.0.2/MSDK/wpa_supplicant/src/ap\ieee802_11_shared.c **** 	os_memcpy(eid, hapd->conf->time_zone, len);
 1425              		.loc 1 641 27
 1426 0032 83278900 		lw	a5,8(s2)
 640:C:/Users/stapi/OneDrive/Desktop/GD32VW553/V1_MQTT_OK/GD32VW55X_Wifi_BLE_SDK/GD32VW55x_RELEASE_V1.0.2/MSDK/wpa_supplicant/src/ap\ieee802_11_shared.c **** 	*eid++ = len;
 1427              		.loc 1 640 6
 1428 0036 93092400 		addi	s3,s0,2
 637:C:/Users/stapi/OneDrive/Desktop/GD32VW553/V1_MQTT_OK/GD32VW55X_Wifi_BLE_SDK/GD32VW55x_RELEASE_V1.0.2/MSDK/wpa_supplicant/src/ap\ieee802_11_shared.c **** 
 1429              		.loc 1 637 8
 1430 003a AA84     		mv	s1,a0
 1431              	.LVL123:
 639:C:/Users/stapi/OneDrive/Desktop/GD32VW553/V1_MQTT_OK/GD32VW55X_Wifi_BLE_SDK/GD32VW55x_RELEASE_V1.0.2/MSDK/wpa_supplicant/src/ap\ieee802_11_shared.c **** 	*eid++ = len;
 1432              		.loc 1 639 2 is_stmt 1
 640:C:/Users/stapi/OneDrive/Desktop/GD32VW553/V1_MQTT_OK/GD32VW55X_Wifi_BLE_SDK/GD32VW55x_RELEASE_V1.0.2/MSDK/wpa_supplicant/src/ap\ieee802_11_shared.c **** 	os_memcpy(eid, hapd->conf->time_zone, len);
 1433              		.loc 1 640 2
 1434              		.loc 1 641 2
 1435 003c 83A5072A 		lw	a1,672(a5)
 1436 0040 2A86     		mv	a2,a0
 1437 0042 4E85     		mv	a0,s3
 1438 0044 97000000 		call	os_memcpy
 1438      E7800000 
 1439              	.LVL124:
 642:C:/Users/stapi/OneDrive/Desktop/GD32VW553/V1_MQTT_OK/GD32VW55X_Wifi_BLE_SDK/GD32VW55x_RELEASE_V1.0.2/MSDK/wpa_supplicant/src/ap\ieee802_11_shared.c **** 	eid += len;
 1440              		.loc 1 642 2
 1441              		.loc 1 642 6 is_stmt 0
 1442 004c 33849900 		add	s0,s3,s1
 1443              	.LVL125:
 643:C:/Users/stapi/OneDrive/Desktop/GD32VW553/V1_MQTT_OK/GD32VW55X_Wifi_BLE_SDK/GD32VW55x_RELEASE_V1.0.2/MSDK/wpa_supplicant/src/ap\ieee802_11_shared.c **** 
 644:C:/Users/stapi/OneDrive/Desktop/GD32VW553/V1_MQTT_OK/GD32VW55X_Wifi_BLE_SDK/GD32VW55x_RELEASE_V1.0.2/MSDK/wpa_supplicant/src/ap\ieee802_11_shared.c **** 	return eid;
 1444              		.loc 1 644 2 is_stmt 1
 1445              	.L151:
 645:C:/Users/stapi/OneDrive/Desktop/GD32VW553/V1_MQTT_OK/GD32VW55X_Wifi_BLE_SDK/GD32VW55x_RELEASE_V1.0.2/MSDK/wpa_supplicant/src/ap\ieee802_11_shared.c **** }
 1446              		.loc 1 645 1 is_stmt 0
 1447 0050 2285     		mv	a0,s0
 1448 0052 17030000 		tail	__riscv_restore_4
 1448      67000300 
 1449              		.cfi_restore 19
 1450              		.cfi_restore 18
 1451              		.cfi_restore 9
 1452              		.cfi_restore 8
 1453              		.cfi_restore 1
 1454              		.cfi_def_cfa_offset 0
 1455              		.cfi_endproc
 1456              	.LFE178:
 1458              		.section	.text.hostapd_update_time_adv,"ax",@progbits
 1459              		.align	1
 1460              		.globl	hostapd_update_time_adv
 1462              	hostapd_update_time_adv:
 1463              	.LFB179:
 646:C:/Users/stapi/OneDrive/Desktop/GD32VW553/V1_MQTT_OK/GD32VW55X_Wifi_BLE_SDK/GD32VW55x_RELEASE_V1.0.2/MSDK/wpa_supplicant/src/ap\ieee802_11_shared.c **** 
 647:C:/Users/stapi/OneDrive/Desktop/GD32VW553/V1_MQTT_OK/GD32VW55X_Wifi_BLE_SDK/GD32VW55x_RELEASE_V1.0.2/MSDK/wpa_supplicant/src/ap\ieee802_11_shared.c **** 
 648:C:/Users/stapi/OneDrive/Desktop/GD32VW553/V1_MQTT_OK/GD32VW55X_Wifi_BLE_SDK/GD32VW55x_RELEASE_V1.0.2/MSDK/wpa_supplicant/src/ap\ieee802_11_shared.c **** int hostapd_update_time_adv(struct hostapd_data *hapd)
 649:C:/Users/stapi/OneDrive/Desktop/GD32VW553/V1_MQTT_OK/GD32VW55X_Wifi_BLE_SDK/GD32VW55x_RELEASE_V1.0.2/MSDK/wpa_supplicant/src/ap\ieee802_11_shared.c **** {
 1464              		.loc 1 649 1 is_stmt 1
 1465              		.cfi_startproc
 1466              	.LVL126:
 650:C:/Users/stapi/OneDrive/Desktop/GD32VW553/V1_MQTT_OK/GD32VW55X_Wifi_BLE_SDK/GD32VW55x_RELEASE_V1.0.2/MSDK/wpa_supplicant/src/ap\ieee802_11_shared.c **** 	const int elen = 2 + 1 + 10 + 5 + 1;
 1467              		.loc 1 650 2
 651:C:/Users/stapi/OneDrive/Desktop/GD32VW553/V1_MQTT_OK/GD32VW55X_Wifi_BLE_SDK/GD32VW55x_RELEASE_V1.0.2/MSDK/wpa_supplicant/src/ap\ieee802_11_shared.c **** 	struct os_time t;
 1468              		.loc 1 651 2
 652:C:/Users/stapi/OneDrive/Desktop/GD32VW553/V1_MQTT_OK/GD32VW55X_Wifi_BLE_SDK/GD32VW55x_RELEASE_V1.0.2/MSDK/wpa_supplicant/src/ap\ieee802_11_shared.c **** 	struct os_tm tm;
 1469              		.loc 1 652 2
 653:C:/Users/stapi/OneDrive/Desktop/GD32VW553/V1_MQTT_OK/GD32VW55X_Wifi_BLE_SDK/GD32VW55x_RELEASE_V1.0.2/MSDK/wpa_supplicant/src/ap\ieee802_11_shared.c **** 	u8 *pos;
 1470              		.loc 1 653 2
 654:C:/Users/stapi/OneDrive/Desktop/GD32VW553/V1_MQTT_OK/GD32VW55X_Wifi_BLE_SDK/GD32VW55x_RELEASE_V1.0.2/MSDK/wpa_supplicant/src/ap\ieee802_11_shared.c **** 
 655:C:/Users/stapi/OneDrive/Desktop/GD32VW553/V1_MQTT_OK/GD32VW55X_Wifi_BLE_SDK/GD32VW55x_RELEASE_V1.0.2/MSDK/wpa_supplicant/src/ap\ieee802_11_shared.c **** 	if (hapd->conf->time_advertisement != 2)
 1471              		.loc 1 655 2
 1472              		.loc 1 655 16 is_stmt 0
 1473 0000 1C45     		lw	a5,8(a0)
 1474              		.loc 1 655 5
 1475 0002 03A7C729 		lw	a4,668(a5)
 1476 0006 8947     		li	a5,2
 1477 0008 631AF70C 		bne	a4,a5,.L163
 649:C:/Users/stapi/OneDrive/Desktop/GD32VW553/V1_MQTT_OK/GD32VW55X_Wifi_BLE_SDK/GD32VW55x_RELEASE_V1.0.2/MSDK/wpa_supplicant/src/ap\ieee802_11_shared.c **** 	const int elen = 2 + 1 + 10 + 5 + 1;
 1478              		.loc 1 649 1
 1479 000c 17030000 		call	t0,__riscv_save_1
 1479      E7020300 
 1480              		.cfi_offset 8, -8
 1481              		.cfi_offset 1, -4
 1482              		.cfi_def_cfa_offset 16
 1483 0014 0111     		addi	sp,sp,-32
 1484              		.cfi_def_cfa_offset 48
 1485 0016 2A84     		mv	s0,a0
 1486              	.LVL127:
 1487              	.LBB81:
 1488              	.LBB82:
 656:C:/Users/stapi/OneDrive/Desktop/GD32VW553/V1_MQTT_OK/GD32VW55X_Wifi_BLE_SDK/GD32VW55x_RELEASE_V1.0.2/MSDK/wpa_supplicant/src/ap\ieee802_11_shared.c **** 		return 0;
 657:C:/Users/stapi/OneDrive/Desktop/GD32VW553/V1_MQTT_OK/GD32VW55X_Wifi_BLE_SDK/GD32VW55x_RELEASE_V1.0.2/MSDK/wpa_supplicant/src/ap\ieee802_11_shared.c **** 
 658:C:/Users/stapi/OneDrive/Desktop/GD32VW553/V1_MQTT_OK/GD32VW55X_Wifi_BLE_SDK/GD32VW55x_RELEASE_V1.0.2/MSDK/wpa_supplicant/src/ap\ieee802_11_shared.c **** 	if (os_get_time(&t) < 0 || os_gmtime(t.sec, &tm) < 0)
 1489              		.loc 1 658 2 is_stmt 1
 1490              		.loc 1 658 6 is_stmt 0
 1491 0018 0A85     		mv	a0,sp
 1492              	.LVL128:
 1493 001a 97000000 		call	os_get_time
 1493      E7800000 
 1494              	.LVL129:
 1495              		.loc 1 658 5
 1496 0022 63580500 		bge	a0,zero,.L158
 1497              	.L160:
 659:C:/Users/stapi/OneDrive/Desktop/GD32VW553/V1_MQTT_OK/GD32VW55X_Wifi_BLE_SDK/GD32VW55x_RELEASE_V1.0.2/MSDK/wpa_supplicant/src/ap\ieee802_11_shared.c **** 		return -1;
 1498              		.loc 1 659 10
 1499 0026 7D55     		li	a0,-1
 1500              	.LVL130:
 1501              	.L156:
 1502              	.LBE82:
 1503              	.LBE81:
 660:C:/Users/stapi/OneDrive/Desktop/GD32VW553/V1_MQTT_OK/GD32VW55X_Wifi_BLE_SDK/GD32VW55x_RELEASE_V1.0.2/MSDK/wpa_supplicant/src/ap\ieee802_11_shared.c **** 
 661:C:/Users/stapi/OneDrive/Desktop/GD32VW553/V1_MQTT_OK/GD32VW55X_Wifi_BLE_SDK/GD32VW55x_RELEASE_V1.0.2/MSDK/wpa_supplicant/src/ap\ieee802_11_shared.c **** 	if (!hapd->time_adv) {
 662:C:/Users/stapi/OneDrive/Desktop/GD32VW553/V1_MQTT_OK/GD32VW55X_Wifi_BLE_SDK/GD32VW55x_RELEASE_V1.0.2/MSDK/wpa_supplicant/src/ap\ieee802_11_shared.c **** 		hapd->time_adv = wpabuf_alloc(elen);
 663:C:/Users/stapi/OneDrive/Desktop/GD32VW553/V1_MQTT_OK/GD32VW55X_Wifi_BLE_SDK/GD32VW55x_RELEASE_V1.0.2/MSDK/wpa_supplicant/src/ap\ieee802_11_shared.c **** 		if (hapd->time_adv == NULL)
 664:C:/Users/stapi/OneDrive/Desktop/GD32VW553/V1_MQTT_OK/GD32VW55X_Wifi_BLE_SDK/GD32VW55x_RELEASE_V1.0.2/MSDK/wpa_supplicant/src/ap\ieee802_11_shared.c **** 			return -1;
 665:C:/Users/stapi/OneDrive/Desktop/GD32VW553/V1_MQTT_OK/GD32VW55X_Wifi_BLE_SDK/GD32VW55x_RELEASE_V1.0.2/MSDK/wpa_supplicant/src/ap\ieee802_11_shared.c **** 		pos = wpabuf_put(hapd->time_adv, elen);
 666:C:/Users/stapi/OneDrive/Desktop/GD32VW553/V1_MQTT_OK/GD32VW55X_Wifi_BLE_SDK/GD32VW55x_RELEASE_V1.0.2/MSDK/wpa_supplicant/src/ap\ieee802_11_shared.c **** 	} else
 667:C:/Users/stapi/OneDrive/Desktop/GD32VW553/V1_MQTT_OK/GD32VW55X_Wifi_BLE_SDK/GD32VW55x_RELEASE_V1.0.2/MSDK/wpa_supplicant/src/ap\ieee802_11_shared.c **** 		pos = wpabuf_mhead_u8(hapd->time_adv);
 668:C:/Users/stapi/OneDrive/Desktop/GD32VW553/V1_MQTT_OK/GD32VW55X_Wifi_BLE_SDK/GD32VW55x_RELEASE_V1.0.2/MSDK/wpa_supplicant/src/ap\ieee802_11_shared.c **** 
 669:C:/Users/stapi/OneDrive/Desktop/GD32VW553/V1_MQTT_OK/GD32VW55X_Wifi_BLE_SDK/GD32VW55x_RELEASE_V1.0.2/MSDK/wpa_supplicant/src/ap\ieee802_11_shared.c **** 	*pos++ = WLAN_EID_TIME_ADVERTISEMENT;
 670:C:/Users/stapi/OneDrive/Desktop/GD32VW553/V1_MQTT_OK/GD32VW55X_Wifi_BLE_SDK/GD32VW55x_RELEASE_V1.0.2/MSDK/wpa_supplicant/src/ap\ieee802_11_shared.c **** 	*pos++ = 1 + 10 + 5 + 1;
 671:C:/Users/stapi/OneDrive/Desktop/GD32VW553/V1_MQTT_OK/GD32VW55X_Wifi_BLE_SDK/GD32VW55x_RELEASE_V1.0.2/MSDK/wpa_supplicant/src/ap\ieee802_11_shared.c **** 
 672:C:/Users/stapi/OneDrive/Desktop/GD32VW553/V1_MQTT_OK/GD32VW55X_Wifi_BLE_SDK/GD32VW55x_RELEASE_V1.0.2/MSDK/wpa_supplicant/src/ap\ieee802_11_shared.c **** 	*pos++ = 2; /* UTC time at which the TSF timer is 0 */
 673:C:/Users/stapi/OneDrive/Desktop/GD32VW553/V1_MQTT_OK/GD32VW55X_Wifi_BLE_SDK/GD32VW55x_RELEASE_V1.0.2/MSDK/wpa_supplicant/src/ap\ieee802_11_shared.c **** 
 674:C:/Users/stapi/OneDrive/Desktop/GD32VW553/V1_MQTT_OK/GD32VW55X_Wifi_BLE_SDK/GD32VW55x_RELEASE_V1.0.2/MSDK/wpa_supplicant/src/ap\ieee802_11_shared.c **** 	/* Time Value at TSF 0 */
 675:C:/Users/stapi/OneDrive/Desktop/GD32VW553/V1_MQTT_OK/GD32VW55X_Wifi_BLE_SDK/GD32VW55x_RELEASE_V1.0.2/MSDK/wpa_supplicant/src/ap\ieee802_11_shared.c **** 	/* FIX: need to calculate this based on the current TSF value */
 676:C:/Users/stapi/OneDrive/Desktop/GD32VW553/V1_MQTT_OK/GD32VW55X_Wifi_BLE_SDK/GD32VW55x_RELEASE_V1.0.2/MSDK/wpa_supplicant/src/ap\ieee802_11_shared.c **** 	WPA_PUT_LE16(pos, tm.year); /* Year */
 677:C:/Users/stapi/OneDrive/Desktop/GD32VW553/V1_MQTT_OK/GD32VW55X_Wifi_BLE_SDK/GD32VW55x_RELEASE_V1.0.2/MSDK/wpa_supplicant/src/ap\ieee802_11_shared.c **** 	pos += 2;
 678:C:/Users/stapi/OneDrive/Desktop/GD32VW553/V1_MQTT_OK/GD32VW55X_Wifi_BLE_SDK/GD32VW55x_RELEASE_V1.0.2/MSDK/wpa_supplicant/src/ap\ieee802_11_shared.c **** 	*pos++ = tm.month; /* Month */
 679:C:/Users/stapi/OneDrive/Desktop/GD32VW553/V1_MQTT_OK/GD32VW55X_Wifi_BLE_SDK/GD32VW55x_RELEASE_V1.0.2/MSDK/wpa_supplicant/src/ap\ieee802_11_shared.c **** 	*pos++ = tm.day; /* Day of month */
 680:C:/Users/stapi/OneDrive/Desktop/GD32VW553/V1_MQTT_OK/GD32VW55X_Wifi_BLE_SDK/GD32VW55x_RELEASE_V1.0.2/MSDK/wpa_supplicant/src/ap\ieee802_11_shared.c **** 	*pos++ = tm.hour; /* Hours */
 681:C:/Users/stapi/OneDrive/Desktop/GD32VW553/V1_MQTT_OK/GD32VW55X_Wifi_BLE_SDK/GD32VW55x_RELEASE_V1.0.2/MSDK/wpa_supplicant/src/ap\ieee802_11_shared.c **** 	*pos++ = tm.min; /* Minutes */
 682:C:/Users/stapi/OneDrive/Desktop/GD32VW553/V1_MQTT_OK/GD32VW55X_Wifi_BLE_SDK/GD32VW55x_RELEASE_V1.0.2/MSDK/wpa_supplicant/src/ap\ieee802_11_shared.c **** 	*pos++ = tm.sec; /* Seconds */
 683:C:/Users/stapi/OneDrive/Desktop/GD32VW553/V1_MQTT_OK/GD32VW55X_Wifi_BLE_SDK/GD32VW55x_RELEASE_V1.0.2/MSDK/wpa_supplicant/src/ap\ieee802_11_shared.c **** 	WPA_PUT_LE16(pos, 0); /* Milliseconds (not used) */
 684:C:/Users/stapi/OneDrive/Desktop/GD32VW553/V1_MQTT_OK/GD32VW55X_Wifi_BLE_SDK/GD32VW55x_RELEASE_V1.0.2/MSDK/wpa_supplicant/src/ap\ieee802_11_shared.c **** 	pos += 2;
 685:C:/Users/stapi/OneDrive/Desktop/GD32VW553/V1_MQTT_OK/GD32VW55X_Wifi_BLE_SDK/GD32VW55x_RELEASE_V1.0.2/MSDK/wpa_supplicant/src/ap\ieee802_11_shared.c **** 	*pos++ = 0; /* Reserved */
 686:C:/Users/stapi/OneDrive/Desktop/GD32VW553/V1_MQTT_OK/GD32VW55X_Wifi_BLE_SDK/GD32VW55x_RELEASE_V1.0.2/MSDK/wpa_supplicant/src/ap\ieee802_11_shared.c **** 
 687:C:/Users/stapi/OneDrive/Desktop/GD32VW553/V1_MQTT_OK/GD32VW55X_Wifi_BLE_SDK/GD32VW55x_RELEASE_V1.0.2/MSDK/wpa_supplicant/src/ap\ieee802_11_shared.c **** 	/* Time Error */
 688:C:/Users/stapi/OneDrive/Desktop/GD32VW553/V1_MQTT_OK/GD32VW55X_Wifi_BLE_SDK/GD32VW55x_RELEASE_V1.0.2/MSDK/wpa_supplicant/src/ap\ieee802_11_shared.c **** 	/* TODO: fill in an estimate on the error */
 689:C:/Users/stapi/OneDrive/Desktop/GD32VW553/V1_MQTT_OK/GD32VW55X_Wifi_BLE_SDK/GD32VW55x_RELEASE_V1.0.2/MSDK/wpa_supplicant/src/ap\ieee802_11_shared.c **** 	*pos++ = 0;
 690:C:/Users/stapi/OneDrive/Desktop/GD32VW553/V1_MQTT_OK/GD32VW55X_Wifi_BLE_SDK/GD32VW55x_RELEASE_V1.0.2/MSDK/wpa_supplicant/src/ap\ieee802_11_shared.c **** 	*pos++ = 0;
 691:C:/Users/stapi/OneDrive/Desktop/GD32VW553/V1_MQTT_OK/GD32VW55X_Wifi_BLE_SDK/GD32VW55x_RELEASE_V1.0.2/MSDK/wpa_supplicant/src/ap\ieee802_11_shared.c **** 	*pos++ = 0;
 692:C:/Users/stapi/OneDrive/Desktop/GD32VW553/V1_MQTT_OK/GD32VW55X_Wifi_BLE_SDK/GD32VW55x_RELEASE_V1.0.2/MSDK/wpa_supplicant/src/ap\ieee802_11_shared.c **** 	*pos++ = 0;
 693:C:/Users/stapi/OneDrive/Desktop/GD32VW553/V1_MQTT_OK/GD32VW55X_Wifi_BLE_SDK/GD32VW55x_RELEASE_V1.0.2/MSDK/wpa_supplicant/src/ap\ieee802_11_shared.c **** 	*pos++ = 0;
 694:C:/Users/stapi/OneDrive/Desktop/GD32VW553/V1_MQTT_OK/GD32VW55X_Wifi_BLE_SDK/GD32VW55x_RELEASE_V1.0.2/MSDK/wpa_supplicant/src/ap\ieee802_11_shared.c **** 
 695:C:/Users/stapi/OneDrive/Desktop/GD32VW553/V1_MQTT_OK/GD32VW55X_Wifi_BLE_SDK/GD32VW55x_RELEASE_V1.0.2/MSDK/wpa_supplicant/src/ap\ieee802_11_shared.c **** 	*pos++ = hapd->time_update_counter++;
 696:C:/Users/stapi/OneDrive/Desktop/GD32VW553/V1_MQTT_OK/GD32VW55X_Wifi_BLE_SDK/GD32VW55x_RELEASE_V1.0.2/MSDK/wpa_supplicant/src/ap\ieee802_11_shared.c **** 
 697:C:/Users/stapi/OneDrive/Desktop/GD32VW553/V1_MQTT_OK/GD32VW55X_Wifi_BLE_SDK/GD32VW55x_RELEASE_V1.0.2/MSDK/wpa_supplicant/src/ap\ieee802_11_shared.c **** 	return 0;
 698:C:/Users/stapi/OneDrive/Desktop/GD32VW553/V1_MQTT_OK/GD32VW55X_Wifi_BLE_SDK/GD32VW55x_RELEASE_V1.0.2/MSDK/wpa_supplicant/src/ap\ieee802_11_shared.c **** }
 1504              		.loc 1 698 1
 1505 0028 0561     		addi	sp,sp,32
 1506              		.cfi_remember_state
 1507              		.cfi_def_cfa_offset 0
 1508 002a 17030000 		tail	__riscv_restore_1
 1508      67000300 
 1509              		.cfi_restore 8
 1510              		.cfi_restore 1
 1511              		.cfi_def_cfa_offset -16
 1512              	.LVL131:
 1513              	.L158:
 1514              		.cfi_restore_state
 1515              	.LBB96:
 1516              	.LBB94:
 658:C:/Users/stapi/OneDrive/Desktop/GD32VW553/V1_MQTT_OK/GD32VW55X_Wifi_BLE_SDK/GD32VW55x_RELEASE_V1.0.2/MSDK/wpa_supplicant/src/ap\ieee802_11_shared.c **** 		return -1;
 1517              		.loc 1 658 29
 1518 0032 0245     		lw	a0,0(sp)
 1519 0034 2C00     		addi	a1,sp,8
 1520 0036 97000000 		call	os_gmtime
 1520      E7800000 
 1521              	.LVL132:
 658:C:/Users/stapi/OneDrive/Desktop/GD32VW553/V1_MQTT_OK/GD32VW55X_Wifi_BLE_SDK/GD32VW55x_RELEASE_V1.0.2/MSDK/wpa_supplicant/src/ap\ieee802_11_shared.c **** 		return -1;
 1522              		.loc 1 658 26
 1523 003e E34405FE 		blt	a0,zero,.L160
 661:C:/Users/stapi/OneDrive/Desktop/GD32VW553/V1_MQTT_OK/GD32VW55X_Wifi_BLE_SDK/GD32VW55x_RELEASE_V1.0.2/MSDK/wpa_supplicant/src/ap\ieee802_11_shared.c **** 		hapd->time_adv = wpabuf_alloc(elen);
 1524              		.loc 1 661 2 is_stmt 1
 661:C:/Users/stapi/OneDrive/Desktop/GD32VW553/V1_MQTT_OK/GD32VW55X_Wifi_BLE_SDK/GD32VW55x_RELEASE_V1.0.2/MSDK/wpa_supplicant/src/ap\ieee802_11_shared.c **** 		hapd->time_adv = wpabuf_alloc(elen);
 1525              		.loc 1 661 11 is_stmt 0
 1526 0042 83274459 		lw	a5,1428(s0)
 661:C:/Users/stapi/OneDrive/Desktop/GD32VW553/V1_MQTT_OK/GD32VW55X_Wifi_BLE_SDK/GD32VW55x_RELEASE_V1.0.2/MSDK/wpa_supplicant/src/ap\ieee802_11_shared.c **** 		hapd->time_adv = wpabuf_alloc(elen);
 1527              		.loc 1 661 5
 1528 0046 C9EB     		bne	a5,zero,.L161
 662:C:/Users/stapi/OneDrive/Desktop/GD32VW553/V1_MQTT_OK/GD32VW55X_Wifi_BLE_SDK/GD32VW55x_RELEASE_V1.0.2/MSDK/wpa_supplicant/src/ap\ieee802_11_shared.c **** 		if (hapd->time_adv == NULL)
 1529              		.loc 1 662 3 is_stmt 1
 662:C:/Users/stapi/OneDrive/Desktop/GD32VW553/V1_MQTT_OK/GD32VW55X_Wifi_BLE_SDK/GD32VW55x_RELEASE_V1.0.2/MSDK/wpa_supplicant/src/ap\ieee802_11_shared.c **** 		if (hapd->time_adv == NULL)
 1530              		.loc 1 662 20 is_stmt 0
 1531 0048 4D45     		li	a0,19
 1532 004a 97000000 		call	wpabuf_alloc
 1532      E7800000 
 1533              	.LVL133:
 662:C:/Users/stapi/OneDrive/Desktop/GD32VW553/V1_MQTT_OK/GD32VW55X_Wifi_BLE_SDK/GD32VW55x_RELEASE_V1.0.2/MSDK/wpa_supplicant/src/ap\ieee802_11_shared.c **** 		if (hapd->time_adv == NULL)
 1534              		.loc 1 662 18
 1535 0052 232AA458 		sw	a0,1428(s0)
 663:C:/Users/stapi/OneDrive/Desktop/GD32VW553/V1_MQTT_OK/GD32VW55X_Wifi_BLE_SDK/GD32VW55x_RELEASE_V1.0.2/MSDK/wpa_supplicant/src/ap\ieee802_11_shared.c **** 			return -1;
 1536              		.loc 1 663 3 is_stmt 1
 663:C:/Users/stapi/OneDrive/Desktop/GD32VW553/V1_MQTT_OK/GD32VW55X_Wifi_BLE_SDK/GD32VW55x_RELEASE_V1.0.2/MSDK/wpa_supplicant/src/ap\ieee802_11_shared.c **** 			return -1;
 1537              		.loc 1 663 6 is_stmt 0
 1538 0056 61D9     		beq	a0,zero,.L160
 665:C:/Users/stapi/OneDrive/Desktop/GD32VW553/V1_MQTT_OK/GD32VW55X_Wifi_BLE_SDK/GD32VW55x_RELEASE_V1.0.2/MSDK/wpa_supplicant/src/ap\ieee802_11_shared.c **** 	} else
 1539              		.loc 1 665 3 is_stmt 1
 665:C:/Users/stapi/OneDrive/Desktop/GD32VW553/V1_MQTT_OK/GD32VW55X_Wifi_BLE_SDK/GD32VW55x_RELEASE_V1.0.2/MSDK/wpa_supplicant/src/ap\ieee802_11_shared.c **** 	} else
 1540              		.loc 1 665 9 is_stmt 0
 1541 0058 CD45     		li	a1,19
 1542 005a 97000000 		call	wpabuf_put
 1542      E7800000 
 1543              	.LVL134:
 1544              	.L162:
 669:C:/Users/stapi/OneDrive/Desktop/GD32VW553/V1_MQTT_OK/GD32VW55X_Wifi_BLE_SDK/GD32VW55x_RELEASE_V1.0.2/MSDK/wpa_supplicant/src/ap\ieee802_11_shared.c **** 	*pos++ = 1 + 10 + 5 + 1;
 1545              		.loc 1 669 2 is_stmt 1
 669:C:/Users/stapi/OneDrive/Desktop/GD32VW553/V1_MQTT_OK/GD32VW55X_Wifi_BLE_SDK/GD32VW55x_RELEASE_V1.0.2/MSDK/wpa_supplicant/src/ap\ieee802_11_shared.c **** 	*pos++ = 1 + 10 + 5 + 1;
 1546              		.loc 1 669 9 is_stmt 0
 1547 0062 93075004 		li	a5,69
 1548 0066 2300F500 		sb	a5,0(a0)
 670:C:/Users/stapi/OneDrive/Desktop/GD32VW553/V1_MQTT_OK/GD32VW55X_Wifi_BLE_SDK/GD32VW55x_RELEASE_V1.0.2/MSDK/wpa_supplicant/src/ap\ieee802_11_shared.c **** 
 1549              		.loc 1 670 2 is_stmt 1
 1550              	.LVL135:
 670:C:/Users/stapi/OneDrive/Desktop/GD32VW553/V1_MQTT_OK/GD32VW55X_Wifi_BLE_SDK/GD32VW55x_RELEASE_V1.0.2/MSDK/wpa_supplicant/src/ap\ieee802_11_shared.c **** 
 1551              		.loc 1 670 9 is_stmt 0
 1552 006a C547     		li	a5,17
 1553 006c A300F500 		sb	a5,1(a0)
 672:C:/Users/stapi/OneDrive/Desktop/GD32VW553/V1_MQTT_OK/GD32VW55X_Wifi_BLE_SDK/GD32VW55x_RELEASE_V1.0.2/MSDK/wpa_supplicant/src/ap\ieee802_11_shared.c **** 
 1554              		.loc 1 672 2 is_stmt 1
 1555              	.LVL136:
 672:C:/Users/stapi/OneDrive/Desktop/GD32VW553/V1_MQTT_OK/GD32VW55X_Wifi_BLE_SDK/GD32VW55x_RELEASE_V1.0.2/MSDK/wpa_supplicant/src/ap\ieee802_11_shared.c **** 
 1556              		.loc 1 672 9 is_stmt 0
 1557 0070 8947     		li	a5,2
 1558 0072 2301F500 		sb	a5,2(a0)
 676:C:/Users/stapi/OneDrive/Desktop/GD32VW553/V1_MQTT_OK/GD32VW55X_Wifi_BLE_SDK/GD32VW55x_RELEASE_V1.0.2/MSDK/wpa_supplicant/src/ap\ieee802_11_shared.c **** 	pos += 2;
 1559              		.loc 1 676 2 is_stmt 1
 676:C:/Users/stapi/OneDrive/Desktop/GD32VW553/V1_MQTT_OK/GD32VW55X_Wifi_BLE_SDK/GD32VW55x_RELEASE_V1.0.2/MSDK/wpa_supplicant/src/ap\ieee802_11_shared.c **** 	pos += 2;
 1560              		.loc 1 676 22 is_stmt 0
 1561 0076 7247     		lw	a4,28(sp)
 1562              	.LVL137:
 1563              	.LBB83:
 1564              	.LBB84:
 258:..\..\..\..\wpa_supplicant\src/utils/common.h **** 	a[0] = val & 0xff;
 1565              		.loc 3 258 2 is_stmt 1
 258:..\..\..\..\wpa_supplicant\src/utils/common.h **** 	a[0] = val & 0xff;
 1566              		.loc 3 258 7 is_stmt 0
 1567 0078 B3470708 		zext.h	a5,a4
 1568 007c A183     		srli	a5,a5,8
 259:..\..\..\..\wpa_supplicant\src/utils/common.h **** }
 1569              		.loc 3 259 7
 1570 007e A301E500 		sb	a4,3(a0)
 258:..\..\..\..\wpa_supplicant\src/utils/common.h **** 	a[0] = val & 0xff;
 1571              		.loc 3 258 7
 1572 0082 2302F500 		sb	a5,4(a0)
 259:..\..\..\..\wpa_supplicant\src/utils/common.h **** }
 1573              		.loc 3 259 2 is_stmt 1
 1574              	.LVL138:
 1575              	.LBE84:
 1576              	.LBE83:
 677:C:/Users/stapi/OneDrive/Desktop/GD32VW553/V1_MQTT_OK/GD32VW55X_Wifi_BLE_SDK/GD32VW55x_RELEASE_V1.0.2/MSDK/wpa_supplicant/src/ap\ieee802_11_shared.c **** 	*pos++ = tm.month; /* Month */
 1577              		.loc 1 677 2
 678:C:/Users/stapi/OneDrive/Desktop/GD32VW553/V1_MQTT_OK/GD32VW55X_Wifi_BLE_SDK/GD32VW55x_RELEASE_V1.0.2/MSDK/wpa_supplicant/src/ap\ieee802_11_shared.c **** 	*pos++ = tm.day; /* Day of month */
 1578              		.loc 1 678 2
 678:C:/Users/stapi/OneDrive/Desktop/GD32VW553/V1_MQTT_OK/GD32VW55X_Wifi_BLE_SDK/GD32VW55x_RELEASE_V1.0.2/MSDK/wpa_supplicant/src/ap\ieee802_11_shared.c **** 	*pos++ = tm.day; /* Day of month */
 1579              		.loc 1 678 9 is_stmt 0
 1580 0086 E247     		lw	a5,24(sp)
 692:C:/Users/stapi/OneDrive/Desktop/GD32VW553/V1_MQTT_OK/GD32VW55X_Wifi_BLE_SDK/GD32VW55x_RELEASE_V1.0.2/MSDK/wpa_supplicant/src/ap\ieee802_11_shared.c **** 	*pos++ = 0;
 1581              		.loc 1 692 9
 1582 0088 23080500 		sb	zero,16(a0)
 693:C:/Users/stapi/OneDrive/Desktop/GD32VW553/V1_MQTT_OK/GD32VW55X_Wifi_BLE_SDK/GD32VW55x_RELEASE_V1.0.2/MSDK/wpa_supplicant/src/ap\ieee802_11_shared.c **** 
 1583              		.loc 1 693 9
 1584 008c A3080500 		sb	zero,17(a0)
 678:C:/Users/stapi/OneDrive/Desktop/GD32VW553/V1_MQTT_OK/GD32VW55X_Wifi_BLE_SDK/GD32VW55x_RELEASE_V1.0.2/MSDK/wpa_supplicant/src/ap\ieee802_11_shared.c **** 	*pos++ = tm.day; /* Day of month */
 1585              		.loc 1 678 9
 1586 0090 A302F500 		sb	a5,5(a0)
 679:C:/Users/stapi/OneDrive/Desktop/GD32VW553/V1_MQTT_OK/GD32VW55X_Wifi_BLE_SDK/GD32VW55x_RELEASE_V1.0.2/MSDK/wpa_supplicant/src/ap\ieee802_11_shared.c **** 	*pos++ = tm.hour; /* Hours */
 1587              		.loc 1 679 2 is_stmt 1
 1588              	.LVL139:
 679:C:/Users/stapi/OneDrive/Desktop/GD32VW553/V1_MQTT_OK/GD32VW55X_Wifi_BLE_SDK/GD32VW55x_RELEASE_V1.0.2/MSDK/wpa_supplicant/src/ap\ieee802_11_shared.c **** 	*pos++ = tm.hour; /* Hours */
 1589              		.loc 1 679 9 is_stmt 0
 1590 0094 D247     		lw	a5,20(sp)
 685:C:/Users/stapi/OneDrive/Desktop/GD32VW553/V1_MQTT_OK/GD32VW55X_Wifi_BLE_SDK/GD32VW55x_RELEASE_V1.0.2/MSDK/wpa_supplicant/src/ap\ieee802_11_shared.c **** 
 1591              		.loc 1 685 9
 1592 0096 23060500 		sb	zero,12(a0)
 689:C:/Users/stapi/OneDrive/Desktop/GD32VW553/V1_MQTT_OK/GD32VW55X_Wifi_BLE_SDK/GD32VW55x_RELEASE_V1.0.2/MSDK/wpa_supplicant/src/ap\ieee802_11_shared.c **** 	*pos++ = 0;
 1593              		.loc 1 689 9
 1594 009a A3060500 		sb	zero,13(a0)
 679:C:/Users/stapi/OneDrive/Desktop/GD32VW553/V1_MQTT_OK/GD32VW55X_Wifi_BLE_SDK/GD32VW55x_RELEASE_V1.0.2/MSDK/wpa_supplicant/src/ap\ieee802_11_shared.c **** 	*pos++ = tm.hour; /* Hours */
 1595              		.loc 1 679 9
 1596 009e 2303F500 		sb	a5,6(a0)
 680:C:/Users/stapi/OneDrive/Desktop/GD32VW553/V1_MQTT_OK/GD32VW55X_Wifi_BLE_SDK/GD32VW55x_RELEASE_V1.0.2/MSDK/wpa_supplicant/src/ap\ieee802_11_shared.c **** 	*pos++ = tm.min; /* Minutes */
 1597              		.loc 1 680 2 is_stmt 1
 1598              	.LVL140:
 680:C:/Users/stapi/OneDrive/Desktop/GD32VW553/V1_MQTT_OK/GD32VW55X_Wifi_BLE_SDK/GD32VW55x_RELEASE_V1.0.2/MSDK/wpa_supplicant/src/ap\ieee802_11_shared.c **** 	*pos++ = tm.min; /* Minutes */
 1599              		.loc 1 680 9 is_stmt 0
 1600 00a2 C247     		lw	a5,16(sp)
 690:C:/Users/stapi/OneDrive/Desktop/GD32VW553/V1_MQTT_OK/GD32VW55X_Wifi_BLE_SDK/GD32VW55x_RELEASE_V1.0.2/MSDK/wpa_supplicant/src/ap\ieee802_11_shared.c **** 	*pos++ = 0;
 1601              		.loc 1 690 9
 1602 00a4 23070500 		sb	zero,14(a0)
 1603              	.LBB85:
 1604              	.LBB86:
 258:..\..\..\..\wpa_supplicant\src/utils/common.h **** 	a[0] = val & 0xff;
 1605              		.loc 3 258 7
 1606 00a8 A3050500 		sb	zero,11(a0)
 1607              	.LBE86:
 1608              	.LBE85:
 680:C:/Users/stapi/OneDrive/Desktop/GD32VW553/V1_MQTT_OK/GD32VW55X_Wifi_BLE_SDK/GD32VW55x_RELEASE_V1.0.2/MSDK/wpa_supplicant/src/ap\ieee802_11_shared.c **** 	*pos++ = tm.min; /* Minutes */
 1609              		.loc 1 680 9
 1610 00ac A303F500 		sb	a5,7(a0)
 681:C:/Users/stapi/OneDrive/Desktop/GD32VW553/V1_MQTT_OK/GD32VW55X_Wifi_BLE_SDK/GD32VW55x_RELEASE_V1.0.2/MSDK/wpa_supplicant/src/ap\ieee802_11_shared.c **** 	*pos++ = tm.sec; /* Seconds */
 1611              		.loc 1 681 2 is_stmt 1
 1612              	.LVL141:
 681:C:/Users/stapi/OneDrive/Desktop/GD32VW553/V1_MQTT_OK/GD32VW55X_Wifi_BLE_SDK/GD32VW55x_RELEASE_V1.0.2/MSDK/wpa_supplicant/src/ap\ieee802_11_shared.c **** 	*pos++ = tm.sec; /* Seconds */
 1613              		.loc 1 681 9 is_stmt 0
 1614 00b0 B247     		lw	a5,12(sp)
 1615              	.LBB89:
 1616              	.LBB87:
 259:..\..\..\..\wpa_supplicant\src/utils/common.h **** }
 1617              		.loc 3 259 7
 1618 00b2 23050500 		sb	zero,10(a0)
 1619              	.LBE87:
 1620              	.LBE89:
 691:C:/Users/stapi/OneDrive/Desktop/GD32VW553/V1_MQTT_OK/GD32VW55X_Wifi_BLE_SDK/GD32VW55x_RELEASE_V1.0.2/MSDK/wpa_supplicant/src/ap\ieee802_11_shared.c **** 	*pos++ = 0;
 1621              		.loc 1 691 9
 1622 00b6 A3070500 		sb	zero,15(a0)
 681:C:/Users/stapi/OneDrive/Desktop/GD32VW553/V1_MQTT_OK/GD32VW55X_Wifi_BLE_SDK/GD32VW55x_RELEASE_V1.0.2/MSDK/wpa_supplicant/src/ap\ieee802_11_shared.c **** 	*pos++ = tm.sec; /* Seconds */
 1623              		.loc 1 681 9
 1624 00ba 2304F500 		sb	a5,8(a0)
 682:C:/Users/stapi/OneDrive/Desktop/GD32VW553/V1_MQTT_OK/GD32VW55X_Wifi_BLE_SDK/GD32VW55x_RELEASE_V1.0.2/MSDK/wpa_supplicant/src/ap\ieee802_11_shared.c **** 	WPA_PUT_LE16(pos, 0); /* Milliseconds (not used) */
 1625              		.loc 1 682 2 is_stmt 1
 1626              	.LVL142:
 682:C:/Users/stapi/OneDrive/Desktop/GD32VW553/V1_MQTT_OK/GD32VW55X_Wifi_BLE_SDK/GD32VW55x_RELEASE_V1.0.2/MSDK/wpa_supplicant/src/ap\ieee802_11_shared.c **** 	WPA_PUT_LE16(pos, 0); /* Milliseconds (not used) */
 1627              		.loc 1 682 9 is_stmt 0
 1628 00be A247     		lw	a5,8(sp)
 1629 00c0 A304F500 		sb	a5,9(a0)
 683:C:/Users/stapi/OneDrive/Desktop/GD32VW553/V1_MQTT_OK/GD32VW55X_Wifi_BLE_SDK/GD32VW55x_RELEASE_V1.0.2/MSDK/wpa_supplicant/src/ap\ieee802_11_shared.c **** 	pos += 2;
 1630              		.loc 1 683 2 is_stmt 1
 1631              	.LVL143:
 1632              	.LBB90:
 1633              	.LBB88:
 258:..\..\..\..\wpa_supplicant\src/utils/common.h **** 	a[0] = val & 0xff;
 1634              		.loc 3 258 2
 259:..\..\..\..\wpa_supplicant\src/utils/common.h **** }
 1635              		.loc 3 259 2
 1636              	.LBE88:
 1637              	.LBE90:
 684:C:/Users/stapi/OneDrive/Desktop/GD32VW553/V1_MQTT_OK/GD32VW55X_Wifi_BLE_SDK/GD32VW55x_RELEASE_V1.0.2/MSDK/wpa_supplicant/src/ap\ieee802_11_shared.c **** 	*pos++ = 0; /* Reserved */
 1638              		.loc 1 684 2
 685:C:/Users/stapi/OneDrive/Desktop/GD32VW553/V1_MQTT_OK/GD32VW55X_Wifi_BLE_SDK/GD32VW55x_RELEASE_V1.0.2/MSDK/wpa_supplicant/src/ap\ieee802_11_shared.c **** 
 1639              		.loc 1 685 2
 689:C:/Users/stapi/OneDrive/Desktop/GD32VW553/V1_MQTT_OK/GD32VW55X_Wifi_BLE_SDK/GD32VW55x_RELEASE_V1.0.2/MSDK/wpa_supplicant/src/ap\ieee802_11_shared.c **** 	*pos++ = 0;
 1640              		.loc 1 689 2
 690:C:/Users/stapi/OneDrive/Desktop/GD32VW553/V1_MQTT_OK/GD32VW55X_Wifi_BLE_SDK/GD32VW55x_RELEASE_V1.0.2/MSDK/wpa_supplicant/src/ap\ieee802_11_shared.c **** 	*pos++ = 0;
 1641              		.loc 1 690 2
 691:C:/Users/stapi/OneDrive/Desktop/GD32VW553/V1_MQTT_OK/GD32VW55X_Wifi_BLE_SDK/GD32VW55x_RELEASE_V1.0.2/MSDK/wpa_supplicant/src/ap\ieee802_11_shared.c **** 	*pos++ = 0;
 1642              		.loc 1 691 2
 692:C:/Users/stapi/OneDrive/Desktop/GD32VW553/V1_MQTT_OK/GD32VW55X_Wifi_BLE_SDK/GD32VW55x_RELEASE_V1.0.2/MSDK/wpa_supplicant/src/ap\ieee802_11_shared.c **** 	*pos++ = 0;
 1643              		.loc 1 692 2
 693:C:/Users/stapi/OneDrive/Desktop/GD32VW553/V1_MQTT_OK/GD32VW55X_Wifi_BLE_SDK/GD32VW55x_RELEASE_V1.0.2/MSDK/wpa_supplicant/src/ap\ieee802_11_shared.c **** 
 1644              		.loc 1 693 2
 695:C:/Users/stapi/OneDrive/Desktop/GD32VW553/V1_MQTT_OK/GD32VW55X_Wifi_BLE_SDK/GD32VW55x_RELEASE_V1.0.2/MSDK/wpa_supplicant/src/ap\ieee802_11_shared.c **** 
 1645              		.loc 1 695 2
 695:C:/Users/stapi/OneDrive/Desktop/GD32VW553/V1_MQTT_OK/GD32VW55X_Wifi_BLE_SDK/GD32VW55x_RELEASE_V1.0.2/MSDK/wpa_supplicant/src/ap\ieee802_11_shared.c **** 
 1646              		.loc 1 695 15 is_stmt 0
 1647 00c4 83470459 		lbu	a5,1424(s0)
 695:C:/Users/stapi/OneDrive/Desktop/GD32VW553/V1_MQTT_OK/GD32VW55X_Wifi_BLE_SDK/GD32VW55x_RELEASE_V1.0.2/MSDK/wpa_supplicant/src/ap\ieee802_11_shared.c **** 
 1648              		.loc 1 695 36
 1649 00c8 13871700 		addi	a4,a5,1
 1650 00cc 2308E458 		sb	a4,1424(s0)
 1651              	.LVL144:
 695:C:/Users/stapi/OneDrive/Desktop/GD32VW553/V1_MQTT_OK/GD32VW55X_Wifi_BLE_SDK/GD32VW55x_RELEASE_V1.0.2/MSDK/wpa_supplicant/src/ap\ieee802_11_shared.c **** 
 1652              		.loc 1 695 9
 1653 00d0 2309F500 		sb	a5,18(a0)
 697:C:/Users/stapi/OneDrive/Desktop/GD32VW553/V1_MQTT_OK/GD32VW55X_Wifi_BLE_SDK/GD32VW55x_RELEASE_V1.0.2/MSDK/wpa_supplicant/src/ap\ieee802_11_shared.c **** }
 1654              		.loc 1 697 2 is_stmt 1
 697:C:/Users/stapi/OneDrive/Desktop/GD32VW553/V1_MQTT_OK/GD32VW55X_Wifi_BLE_SDK/GD32VW55x_RELEASE_V1.0.2/MSDK/wpa_supplicant/src/ap\ieee802_11_shared.c **** }
 1655              		.loc 1 697 9 is_stmt 0
 1656 00d4 0145     		li	a0,0
 1657              	.LVL145:
 1658 00d6 89BF     		j	.L156
 1659              	.LVL146:
 1660              	.L161:
 667:C:/Users/stapi/OneDrive/Desktop/GD32VW553/V1_MQTT_OK/GD32VW55X_Wifi_BLE_SDK/GD32VW55x_RELEASE_V1.0.2/MSDK/wpa_supplicant/src/ap\ieee802_11_shared.c **** 
 1661              		.loc 1 667 3 is_stmt 1
 1662              	.LBE94:
 1663              	.LBE96:
 1664              		.file 5 "..\\..\\..\\..\\wpa_supplicant\\src/utils/wpabuf.h"
   1:..\..\..\..\wpa_supplicant\src/utils/wpabuf.h **** /*
   2:..\..\..\..\wpa_supplicant\src/utils/wpabuf.h ****  * Dynamic data buffer
   3:..\..\..\..\wpa_supplicant\src/utils/wpabuf.h ****  * Copyright (c) 2007-2012, Jouni Malinen <j@w1.fi>
   4:..\..\..\..\wpa_supplicant\src/utils/wpabuf.h ****  *
   5:..\..\..\..\wpa_supplicant\src/utils/wpabuf.h ****  * This software may be distributed under the terms of the BSD license.
   6:..\..\..\..\wpa_supplicant\src/utils/wpabuf.h ****  * See README for more details.
   7:..\..\..\..\wpa_supplicant\src/utils/wpabuf.h ****  */
   8:..\..\..\..\wpa_supplicant\src/utils/wpabuf.h **** 
   9:..\..\..\..\wpa_supplicant\src/utils/wpabuf.h **** #ifndef WPABUF_H
  10:..\..\..\..\wpa_supplicant\src/utils/wpabuf.h **** #define WPABUF_H
  11:..\..\..\..\wpa_supplicant\src/utils/wpabuf.h **** 
  12:..\..\..\..\wpa_supplicant\src/utils/wpabuf.h **** /* wpabuf::buf is a pointer to external data */
  13:..\..\..\..\wpa_supplicant\src/utils/wpabuf.h **** #define WPABUF_FLAG_EXT_DATA BIT(0)
  14:..\..\..\..\wpa_supplicant\src/utils/wpabuf.h **** 
  15:..\..\..\..\wpa_supplicant\src/utils/wpabuf.h **** /*
  16:..\..\..\..\wpa_supplicant\src/utils/wpabuf.h ****  * Internal data structure for wpabuf. Please do not touch this directly from
  17:..\..\..\..\wpa_supplicant\src/utils/wpabuf.h ****  * elsewhere. This is only defined in header file to allow inline functions
  18:..\..\..\..\wpa_supplicant\src/utils/wpabuf.h ****  * from this file to access data.
  19:..\..\..\..\wpa_supplicant\src/utils/wpabuf.h ****  */
  20:..\..\..\..\wpa_supplicant\src/utils/wpabuf.h **** struct wpabuf {
  21:..\..\..\..\wpa_supplicant\src/utils/wpabuf.h **** 	size_t size; /* total size of the allocated buffer */
  22:..\..\..\..\wpa_supplicant\src/utils/wpabuf.h **** 	size_t used; /* length of data in the buffer */
  23:..\..\..\..\wpa_supplicant\src/utils/wpabuf.h **** 	u8 *buf; /* pointer to the head of the buffer */
  24:..\..\..\..\wpa_supplicant\src/utils/wpabuf.h **** 	unsigned int flags;
  25:..\..\..\..\wpa_supplicant\src/utils/wpabuf.h **** 	/* optionally followed by the allocated buffer */
  26:..\..\..\..\wpa_supplicant\src/utils/wpabuf.h **** };
  27:..\..\..\..\wpa_supplicant\src/utils/wpabuf.h **** 
  28:..\..\..\..\wpa_supplicant\src/utils/wpabuf.h **** 
  29:..\..\..\..\wpa_supplicant\src/utils/wpabuf.h **** int wpabuf_resize(struct wpabuf **buf, size_t add_len);
  30:..\..\..\..\wpa_supplicant\src/utils/wpabuf.h **** struct wpabuf * wpabuf_alloc(size_t len);
  31:..\..\..\..\wpa_supplicant\src/utils/wpabuf.h **** struct wpabuf * wpabuf_alloc_ext_data(u8 *data, size_t len);
  32:..\..\..\..\wpa_supplicant\src/utils/wpabuf.h **** struct wpabuf * wpabuf_alloc_copy(const void *data, size_t len);
  33:..\..\..\..\wpa_supplicant\src/utils/wpabuf.h **** struct wpabuf * wpabuf_dup(const struct wpabuf *src);
  34:..\..\..\..\wpa_supplicant\src/utils/wpabuf.h **** void wpabuf_free(struct wpabuf *buf);
  35:..\..\..\..\wpa_supplicant\src/utils/wpabuf.h **** void wpabuf_clear_free(struct wpabuf *buf);
  36:..\..\..\..\wpa_supplicant\src/utils/wpabuf.h **** void * wpabuf_put(struct wpabuf *buf, size_t len);
  37:..\..\..\..\wpa_supplicant\src/utils/wpabuf.h **** struct wpabuf * wpabuf_concat(struct wpabuf *a, struct wpabuf *b);
  38:..\..\..\..\wpa_supplicant\src/utils/wpabuf.h **** struct wpabuf * wpabuf_zeropad(struct wpabuf *buf, size_t len);
  39:..\..\..\..\wpa_supplicant\src/utils/wpabuf.h **** void wpabuf_printf(struct wpabuf *buf, char *fmt, ...) PRINTF_FORMAT(2, 3);
  40:..\..\..\..\wpa_supplicant\src/utils/wpabuf.h **** struct wpabuf * wpabuf_parse_bin(const char *buf);
  41:..\..\..\..\wpa_supplicant\src/utils/wpabuf.h **** 
  42:..\..\..\..\wpa_supplicant\src/utils/wpabuf.h **** 
  43:..\..\..\..\wpa_supplicant\src/utils/wpabuf.h **** /**
  44:..\..\..\..\wpa_supplicant\src/utils/wpabuf.h ****  * wpabuf_size - Get the currently allocated size of a wpabuf buffer
  45:..\..\..\..\wpa_supplicant\src/utils/wpabuf.h ****  * @buf: wpabuf buffer
  46:..\..\..\..\wpa_supplicant\src/utils/wpabuf.h ****  * Returns: Currently allocated size of the buffer
  47:..\..\..\..\wpa_supplicant\src/utils/wpabuf.h ****  */
  48:..\..\..\..\wpa_supplicant\src/utils/wpabuf.h **** static inline size_t wpabuf_size(const struct wpabuf *buf)
  49:..\..\..\..\wpa_supplicant\src/utils/wpabuf.h **** {
  50:..\..\..\..\wpa_supplicant\src/utils/wpabuf.h **** 	return buf->size;
  51:..\..\..\..\wpa_supplicant\src/utils/wpabuf.h **** }
  52:..\..\..\..\wpa_supplicant\src/utils/wpabuf.h **** 
  53:..\..\..\..\wpa_supplicant\src/utils/wpabuf.h **** /**
  54:..\..\..\..\wpa_supplicant\src/utils/wpabuf.h ****  * wpabuf_len - Get the current length of a wpabuf buffer data
  55:..\..\..\..\wpa_supplicant\src/utils/wpabuf.h ****  * @buf: wpabuf buffer
  56:..\..\..\..\wpa_supplicant\src/utils/wpabuf.h ****  * Returns: Currently used length of the buffer
  57:..\..\..\..\wpa_supplicant\src/utils/wpabuf.h ****  */
  58:..\..\..\..\wpa_supplicant\src/utils/wpabuf.h **** static inline size_t wpabuf_len(const struct wpabuf *buf)
  59:..\..\..\..\wpa_supplicant\src/utils/wpabuf.h **** {
  60:..\..\..\..\wpa_supplicant\src/utils/wpabuf.h **** 	return buf->used;
  61:..\..\..\..\wpa_supplicant\src/utils/wpabuf.h **** }
  62:..\..\..\..\wpa_supplicant\src/utils/wpabuf.h **** 
  63:..\..\..\..\wpa_supplicant\src/utils/wpabuf.h **** /**
  64:..\..\..\..\wpa_supplicant\src/utils/wpabuf.h ****  * wpabuf_tailroom - Get size of available tail room in the end of the buffer
  65:..\..\..\..\wpa_supplicant\src/utils/wpabuf.h ****  * @buf: wpabuf buffer
  66:..\..\..\..\wpa_supplicant\src/utils/wpabuf.h ****  * Returns: Tail room (in bytes) of available space in the end of the buffer
  67:..\..\..\..\wpa_supplicant\src/utils/wpabuf.h ****  */
  68:..\..\..\..\wpa_supplicant\src/utils/wpabuf.h **** static inline size_t wpabuf_tailroom(const struct wpabuf *buf)
  69:..\..\..\..\wpa_supplicant\src/utils/wpabuf.h **** {
  70:..\..\..\..\wpa_supplicant\src/utils/wpabuf.h **** 	return buf->size - buf->used;
  71:..\..\..\..\wpa_supplicant\src/utils/wpabuf.h **** }
  72:..\..\..\..\wpa_supplicant\src/utils/wpabuf.h **** 
  73:..\..\..\..\wpa_supplicant\src/utils/wpabuf.h **** /**
  74:..\..\..\..\wpa_supplicant\src/utils/wpabuf.h ****  * wpabuf_cmp - Check if two buffers contain the same data
  75:..\..\..\..\wpa_supplicant\src/utils/wpabuf.h ****  * @a: wpabuf buffer
  76:..\..\..\..\wpa_supplicant\src/utils/wpabuf.h ****  * @b: wpabuf buffer
  77:..\..\..\..\wpa_supplicant\src/utils/wpabuf.h ****  * Returns: 0 if the two buffers contain the same data and non-zero otherwise
  78:..\..\..\..\wpa_supplicant\src/utils/wpabuf.h ****  */
  79:..\..\..\..\wpa_supplicant\src/utils/wpabuf.h **** static inline int wpabuf_cmp(const struct wpabuf *a, const struct wpabuf *b)
  80:..\..\..\..\wpa_supplicant\src/utils/wpabuf.h **** {
  81:..\..\..\..\wpa_supplicant\src/utils/wpabuf.h **** 	if (!a && !b)
  82:..\..\..\..\wpa_supplicant\src/utils/wpabuf.h **** 		return 0;
  83:..\..\..\..\wpa_supplicant\src/utils/wpabuf.h **** 	if (a && b && wpabuf_size(a) == wpabuf_size(b))
  84:..\..\..\..\wpa_supplicant\src/utils/wpabuf.h **** 		return os_memcmp(a->buf, b->buf, wpabuf_size(a));
  85:..\..\..\..\wpa_supplicant\src/utils/wpabuf.h **** 	return -1;
  86:..\..\..\..\wpa_supplicant\src/utils/wpabuf.h **** }
  87:..\..\..\..\wpa_supplicant\src/utils/wpabuf.h **** 
  88:..\..\..\..\wpa_supplicant\src/utils/wpabuf.h **** /**
  89:..\..\..\..\wpa_supplicant\src/utils/wpabuf.h ****  * wpabuf_head - Get pointer to the head of the buffer data
  90:..\..\..\..\wpa_supplicant\src/utils/wpabuf.h ****  * @buf: wpabuf buffer
  91:..\..\..\..\wpa_supplicant\src/utils/wpabuf.h ****  * Returns: Pointer to the head of the buffer data
  92:..\..\..\..\wpa_supplicant\src/utils/wpabuf.h ****  */
  93:..\..\..\..\wpa_supplicant\src/utils/wpabuf.h **** static inline const void * wpabuf_head(const struct wpabuf *buf)
  94:..\..\..\..\wpa_supplicant\src/utils/wpabuf.h **** {
  95:..\..\..\..\wpa_supplicant\src/utils/wpabuf.h **** 	return buf->buf;
  96:..\..\..\..\wpa_supplicant\src/utils/wpabuf.h **** }
  97:..\..\..\..\wpa_supplicant\src/utils/wpabuf.h **** 
  98:..\..\..\..\wpa_supplicant\src/utils/wpabuf.h **** static inline const u8 * wpabuf_head_u8(const struct wpabuf *buf)
  99:..\..\..\..\wpa_supplicant\src/utils/wpabuf.h **** {
 100:..\..\..\..\wpa_supplicant\src/utils/wpabuf.h **** 	return (const u8 *) wpabuf_head(buf);
 101:..\..\..\..\wpa_supplicant\src/utils/wpabuf.h **** }
 102:..\..\..\..\wpa_supplicant\src/utils/wpabuf.h **** 
 103:..\..\..\..\wpa_supplicant\src/utils/wpabuf.h **** /**
 104:..\..\..\..\wpa_supplicant\src/utils/wpabuf.h ****  * wpabuf_mhead - Get modifiable pointer to the head of the buffer data
 105:..\..\..\..\wpa_supplicant\src/utils/wpabuf.h ****  * @buf: wpabuf buffer
 106:..\..\..\..\wpa_supplicant\src/utils/wpabuf.h ****  * Returns: Pointer to the head of the buffer data
 107:..\..\..\..\wpa_supplicant\src/utils/wpabuf.h ****  */
 108:..\..\..\..\wpa_supplicant\src/utils/wpabuf.h **** static inline void * wpabuf_mhead(struct wpabuf *buf)
 109:..\..\..\..\wpa_supplicant\src/utils/wpabuf.h **** {
 110:..\..\..\..\wpa_supplicant\src/utils/wpabuf.h **** 	return buf->buf;
 111:..\..\..\..\wpa_supplicant\src/utils/wpabuf.h **** }
 112:..\..\..\..\wpa_supplicant\src/utils/wpabuf.h **** 
 113:..\..\..\..\wpa_supplicant\src/utils/wpabuf.h **** static inline u8 * wpabuf_mhead_u8(struct wpabuf *buf)
 114:..\..\..\..\wpa_supplicant\src/utils/wpabuf.h **** {
 115:..\..\..\..\wpa_supplicant\src/utils/wpabuf.h **** 	return (u8 *) wpabuf_mhead(buf);
 1665              		.loc 5 115 2
 1666              	.LBB97:
 1667              	.LBB95:
 1668              	.LBB91:
 1669              	.LBB92:
 1670              	.LBB93:
 110:..\..\..\..\wpa_supplicant\src/utils/wpabuf.h **** }
 1671              		.loc 5 110 2
 110:..\..\..\..\wpa_supplicant\src/utils/wpabuf.h **** }
 1672              		.loc 5 110 12 is_stmt 0
 1673 00d8 8847     		lw	a0,8(a5)
 1674              	.LVL147:
 1675 00da 61B7     		j	.L162
 1676              	.LVL148:
 1677              	.L163:
 1678              		.cfi_def_cfa_offset 0
 1679              		.cfi_restore 1
 1680              		.cfi_restore 8
 1681              	.LBE93:
 1682              	.LBE92:
 1683              	.LBE91:
 1684              	.LBE95:
 1685              	.LBE97:
 656:C:/Users/stapi/OneDrive/Desktop/GD32VW553/V1_MQTT_OK/GD32VW55X_Wifi_BLE_SDK/GD32VW55x_RELEASE_V1.0.2/MSDK/wpa_supplicant/src/ap\ieee802_11_shared.c **** 
 1686              		.loc 1 656 10
 1687 00dc 0145     		li	a0,0
 1688              	.LVL149:
 1689              		.loc 1 698 1
 1690 00de 8280     		ret
 1691              		.cfi_endproc
 1692              	.LFE179:
 1694              		.section	.text.hostapd_eid_time_adv,"ax",@progbits
 1695              		.align	1
 1696              		.globl	hostapd_eid_time_adv
 1698              	hostapd_eid_time_adv:
 1699              	.LFB177:
 611:C:/Users/stapi/OneDrive/Desktop/GD32VW553/V1_MQTT_OK/GD32VW55X_Wifi_BLE_SDK/GD32VW55x_RELEASE_V1.0.2/MSDK/wpa_supplicant/src/ap\ieee802_11_shared.c **** 	if (hapd->conf->time_advertisement != 2)
 1700              		.loc 1 611 1 is_stmt 1
 1701              		.cfi_startproc
 1702              	.LVL150:
 1703 0000 17030000 		call	t0,__riscv_save_2
 1703      E7020300 
 1704              		.cfi_offset 9, -12
 1705              		.cfi_offset 8, -8
 1706              		.cfi_offset 1, -4
 1707              		.cfi_def_cfa_offset 16
 612:C:/Users/stapi/OneDrive/Desktop/GD32VW553/V1_MQTT_OK/GD32VW55X_Wifi_BLE_SDK/GD32VW55x_RELEASE_V1.0.2/MSDK/wpa_supplicant/src/ap\ieee802_11_shared.c **** 		return eid;
 1708              		.loc 1 612 2
 612:C:/Users/stapi/OneDrive/Desktop/GD32VW553/V1_MQTT_OK/GD32VW55X_Wifi_BLE_SDK/GD32VW55x_RELEASE_V1.0.2/MSDK/wpa_supplicant/src/ap\ieee802_11_shared.c **** 		return eid;
 1709              		.loc 1 612 16 is_stmt 0
 1710 0008 1C45     		lw	a5,8(a0)
 611:C:/Users/stapi/OneDrive/Desktop/GD32VW553/V1_MQTT_OK/GD32VW55X_Wifi_BLE_SDK/GD32VW55x_RELEASE_V1.0.2/MSDK/wpa_supplicant/src/ap\ieee802_11_shared.c **** 	if (hapd->conf->time_advertisement != 2)
 1711              		.loc 1 611 1
 1712 000a 2E84     		mv	s0,a1
 612:C:/Users/stapi/OneDrive/Desktop/GD32VW553/V1_MQTT_OK/GD32VW55X_Wifi_BLE_SDK/GD32VW55x_RELEASE_V1.0.2/MSDK/wpa_supplicant/src/ap\ieee802_11_shared.c **** 		return eid;
 1713              		.loc 1 612 5
 1714 000c 03A7C729 		lw	a4,668(a5)
 1715 0010 8947     		li	a5,2
 1716 0012 6319F700 		bne	a4,a5,.L173
 615:C:/Users/stapi/OneDrive/Desktop/GD32VW553/V1_MQTT_OK/GD32VW55X_Wifi_BLE_SDK/GD32VW55x_RELEASE_V1.0.2/MSDK/wpa_supplicant/src/ap\ieee802_11_shared.c **** 	    hostapd_update_time_adv(hapd) < 0)
 1717              		.loc 1 615 5
 1718 0016 83274559 		lw	a5,1428(a0)
 1719 001a AA84     		mv	s1,a0
 615:C:/Users/stapi/OneDrive/Desktop/GD32VW553/V1_MQTT_OK/GD32VW55X_Wifi_BLE_SDK/GD32VW55x_RELEASE_V1.0.2/MSDK/wpa_supplicant/src/ap\ieee802_11_shared.c **** 	    hostapd_update_time_adv(hapd) < 0)
 1720              		.loc 1 615 2 is_stmt 1
 615:C:/Users/stapi/OneDrive/Desktop/GD32VW553/V1_MQTT_OK/GD32VW55X_Wifi_BLE_SDK/GD32VW55x_RELEASE_V1.0.2/MSDK/wpa_supplicant/src/ap\ieee802_11_shared.c **** 	    hostapd_update_time_adv(hapd) < 0)
 1721              		.loc 1 615 5 is_stmt 0
 1722 001c 89CB     		beq	a5,zero,.L174
 1723              	.LVL151:
 1724              	.L177:
 619:C:/Users/stapi/OneDrive/Desktop/GD32VW553/V1_MQTT_OK/GD32VW55X_Wifi_BLE_SDK/GD32VW55x_RELEASE_V1.0.2/MSDK/wpa_supplicant/src/ap\ieee802_11_shared.c **** 		return eid;
 1725              		.loc 1 619 2 is_stmt 1
 619:C:/Users/stapi/OneDrive/Desktop/GD32VW553/V1_MQTT_OK/GD32VW55X_Wifi_BLE_SDK/GD32VW55x_RELEASE_V1.0.2/MSDK/wpa_supplicant/src/ap\ieee802_11_shared.c **** 		return eid;
 1726              		.loc 1 619 10 is_stmt 0
 1727 001e 83A74459 		lw	a5,1428(s1)
 619:C:/Users/stapi/OneDrive/Desktop/GD32VW553/V1_MQTT_OK/GD32VW55X_Wifi_BLE_SDK/GD32VW55x_RELEASE_V1.0.2/MSDK/wpa_supplicant/src/ap\ieee802_11_shared.c **** 		return eid;
 1728              		.loc 1 619 5
 1729 0022 89EF     		bne	a5,zero,.L181
 1730              	.LVL152:
 1731              	.L173:
 627:C:/Users/stapi/OneDrive/Desktop/GD32VW553/V1_MQTT_OK/GD32VW55X_Wifi_BLE_SDK/GD32VW55x_RELEASE_V1.0.2/MSDK/wpa_supplicant/src/ap\ieee802_11_shared.c **** 
 1732              		.loc 1 627 1
 1733 0024 2285     		mv	a0,s0
 1734 0026 17030000 		tail	__riscv_restore_2
 1734      67000300 
 1735              		.cfi_remember_state
 1736              		.cfi_restore 9
 1737              		.cfi_restore 8
 1738              		.cfi_restore 1
 1739              		.cfi_def_cfa_offset 0
 1740              	.LVL153:
 1741              	.L174:
 1742              		.cfi_restore_state
 616:C:/Users/stapi/OneDrive/Desktop/GD32VW553/V1_MQTT_OK/GD32VW55X_Wifi_BLE_SDK/GD32VW55x_RELEASE_V1.0.2/MSDK/wpa_supplicant/src/ap\ieee802_11_shared.c **** 		return eid;
 1743              		.loc 1 616 6 discriminator 1
 1744 002e 97000000 		call	hostapd_update_time_adv
 1744      E7800000 
 1745              	.LVL154:
 615:C:/Users/stapi/OneDrive/Desktop/GD32VW553/V1_MQTT_OK/GD32VW55X_Wifi_BLE_SDK/GD32VW55x_RELEASE_V1.0.2/MSDK/wpa_supplicant/src/ap\ieee802_11_shared.c **** 	    hostapd_update_time_adv(hapd) < 0)
 1746              		.loc 1 615 29 discriminator 1
 1747 0036 E35405FE 		bge	a0,zero,.L177
 1748 003a EDB7     		j	.L173
 1749              	.L181:
 622:C:/Users/stapi/OneDrive/Desktop/GD32VW553/V1_MQTT_OK/GD32VW55X_Wifi_BLE_SDK/GD32VW55x_RELEASE_V1.0.2/MSDK/wpa_supplicant/src/ap\ieee802_11_shared.c **** 		  wpabuf_len(hapd->time_adv));
 1750              		.loc 1 622 2 is_stmt 1
 1751              	.LVL155:
 1752              	.LBB98:
 1753              	.LBB99:
  95:..\..\..\..\wpa_supplicant\src/utils/wpabuf.h **** }
 1754              		.loc 5 95 2
 1755              	.LBE99:
 1756              	.LBE98:
 1757              	.LBB100:
 1758              	.LBB101:
  60:..\..\..\..\wpa_supplicant\src/utils/wpabuf.h **** }
 1759              		.loc 5 60 2
 1760              	.LBE101:
 1761              	.LBE100:
 622:C:/Users/stapi/OneDrive/Desktop/GD32VW553/V1_MQTT_OK/GD32VW55X_Wifi_BLE_SDK/GD32VW55x_RELEASE_V1.0.2/MSDK/wpa_supplicant/src/ap\ieee802_11_shared.c **** 		  wpabuf_len(hapd->time_adv));
 1762              		.loc 1 622 2 is_stmt 0
 1763 003c D043     		lw	a2,4(a5)
 1764 003e 8C47     		lw	a1,8(a5)
 1765 0040 2285     		mv	a0,s0
 1766 0042 97000000 		call	os_memcpy
 1766      E7800000 
 1767              	.LVL156:
 624:C:/Users/stapi/OneDrive/Desktop/GD32VW553/V1_MQTT_OK/GD32VW55X_Wifi_BLE_SDK/GD32VW55x_RELEASE_V1.0.2/MSDK/wpa_supplicant/src/ap\ieee802_11_shared.c **** 
 1768              		.loc 1 624 2 is_stmt 1
 1769              	.LBB102:
 1770              	.LBB103:
  60:..\..\..\..\wpa_supplicant\src/utils/wpabuf.h **** }
 1771              		.loc 5 60 2
  60:..\..\..\..\wpa_supplicant\src/utils/wpabuf.h **** }
 1772              		.loc 5 60 12 is_stmt 0
 1773 004a 83A74459 		lw	a5,1428(s1)
 1774              	.LBE103:
 1775              	.LBE102:
 624:C:/Users/stapi/OneDrive/Desktop/GD32VW553/V1_MQTT_OK/GD32VW55X_Wifi_BLE_SDK/GD32VW55x_RELEASE_V1.0.2/MSDK/wpa_supplicant/src/ap\ieee802_11_shared.c **** 
 1776              		.loc 1 624 6
 1777 004e DC43     		lw	a5,4(a5)
 1778 0050 3E94     		add	s0,s0,a5
 1779              	.LVL157:
 626:C:/Users/stapi/OneDrive/Desktop/GD32VW553/V1_MQTT_OK/GD32VW55X_Wifi_BLE_SDK/GD32VW55x_RELEASE_V1.0.2/MSDK/wpa_supplicant/src/ap\ieee802_11_shared.c **** }
 1780              		.loc 1 626 2 is_stmt 1
 626:C:/Users/stapi/OneDrive/Desktop/GD32VW553/V1_MQTT_OK/GD32VW55X_Wifi_BLE_SDK/GD32VW55x_RELEASE_V1.0.2/MSDK/wpa_supplicant/src/ap\ieee802_11_shared.c **** }
 1781              		.loc 1 626 9 is_stmt 0
 1782 0052 C9BF     		j	.L173
 1783              		.cfi_endproc
 1784              	.LFE177:
 1786              		.section	.text.hostapd_eid_bss_max_idle_period,"ax",@progbits
 1787              		.align	1
 1788              		.globl	hostapd_eid_bss_max_idle_period
 1790              	hostapd_eid_bss_max_idle_period:
 1791              	.LFB194:
 1792              		.cfi_startproc
 1793 0000 2E85     		mv	a0,a1
 1794 0002 8280     		ret
 1795              		.cfi_endproc
 1796              	.LFE194:
 1798              		.section	.text.hostapd_eid_owe_trans_len,"ax",@progbits
 1799              		.align	1
 1800              		.globl	hostapd_eid_owe_trans_len
 1802              	hostapd_eid_owe_trans_len:
 1803              	.LFB181:
 699:C:/Users/stapi/OneDrive/Desktop/GD32VW553/V1_MQTT_OK/GD32VW55X_Wifi_BLE_SDK/GD32VW55x_RELEASE_V1.0.2/MSDK/wpa_supplicant/src/ap\ieee802_11_shared.c **** 
 700:C:/Users/stapi/OneDrive/Desktop/GD32VW553/V1_MQTT_OK/GD32VW55X_Wifi_BLE_SDK/GD32VW55x_RELEASE_V1.0.2/MSDK/wpa_supplicant/src/ap\ieee802_11_shared.c **** 
 701:C:/Users/stapi/OneDrive/Desktop/GD32VW553/V1_MQTT_OK/GD32VW55X_Wifi_BLE_SDK/GD32VW55x_RELEASE_V1.0.2/MSDK/wpa_supplicant/src/ap\ieee802_11_shared.c **** u8 * hostapd_eid_bss_max_idle_period(struct hostapd_data *hapd, u8 *eid)
 702:C:/Users/stapi/OneDrive/Desktop/GD32VW553/V1_MQTT_OK/GD32VW55X_Wifi_BLE_SDK/GD32VW55x_RELEASE_V1.0.2/MSDK/wpa_supplicant/src/ap\ieee802_11_shared.c **** {
 703:C:/Users/stapi/OneDrive/Desktop/GD32VW553/V1_MQTT_OK/GD32VW55X_Wifi_BLE_SDK/GD32VW55x_RELEASE_V1.0.2/MSDK/wpa_supplicant/src/ap\ieee802_11_shared.c **** 	u8 *pos = eid;
 704:C:/Users/stapi/OneDrive/Desktop/GD32VW553/V1_MQTT_OK/GD32VW55X_Wifi_BLE_SDK/GD32VW55x_RELEASE_V1.0.2/MSDK/wpa_supplicant/src/ap\ieee802_11_shared.c **** 
 705:C:/Users/stapi/OneDrive/Desktop/GD32VW553/V1_MQTT_OK/GD32VW55X_Wifi_BLE_SDK/GD32VW55x_RELEASE_V1.0.2/MSDK/wpa_supplicant/src/ap\ieee802_11_shared.c **** #ifdef CONFIG_WNM_AP
 706:C:/Users/stapi/OneDrive/Desktop/GD32VW553/V1_MQTT_OK/GD32VW55X_Wifi_BLE_SDK/GD32VW55x_RELEASE_V1.0.2/MSDK/wpa_supplicant/src/ap\ieee802_11_shared.c **** 	if (hapd->conf->ap_max_inactivity > 0) {
 707:C:/Users/stapi/OneDrive/Desktop/GD32VW553/V1_MQTT_OK/GD32VW55X_Wifi_BLE_SDK/GD32VW55x_RELEASE_V1.0.2/MSDK/wpa_supplicant/src/ap\ieee802_11_shared.c **** 		unsigned int val;
 708:C:/Users/stapi/OneDrive/Desktop/GD32VW553/V1_MQTT_OK/GD32VW55X_Wifi_BLE_SDK/GD32VW55x_RELEASE_V1.0.2/MSDK/wpa_supplicant/src/ap\ieee802_11_shared.c **** 		*pos++ = WLAN_EID_BSS_MAX_IDLE_PERIOD;
 709:C:/Users/stapi/OneDrive/Desktop/GD32VW553/V1_MQTT_OK/GD32VW55X_Wifi_BLE_SDK/GD32VW55x_RELEASE_V1.0.2/MSDK/wpa_supplicant/src/ap\ieee802_11_shared.c **** 		*pos++ = 3;
 710:C:/Users/stapi/OneDrive/Desktop/GD32VW553/V1_MQTT_OK/GD32VW55X_Wifi_BLE_SDK/GD32VW55x_RELEASE_V1.0.2/MSDK/wpa_supplicant/src/ap\ieee802_11_shared.c **** 		val = hapd->conf->ap_max_inactivity;
 711:C:/Users/stapi/OneDrive/Desktop/GD32VW553/V1_MQTT_OK/GD32VW55X_Wifi_BLE_SDK/GD32VW55x_RELEASE_V1.0.2/MSDK/wpa_supplicant/src/ap\ieee802_11_shared.c **** 		if (val > 68000)
 712:C:/Users/stapi/OneDrive/Desktop/GD32VW553/V1_MQTT_OK/GD32VW55X_Wifi_BLE_SDK/GD32VW55x_RELEASE_V1.0.2/MSDK/wpa_supplicant/src/ap\ieee802_11_shared.c **** 			val = 68000;
 713:C:/Users/stapi/OneDrive/Desktop/GD32VW553/V1_MQTT_OK/GD32VW55X_Wifi_BLE_SDK/GD32VW55x_RELEASE_V1.0.2/MSDK/wpa_supplicant/src/ap\ieee802_11_shared.c **** 		val *= 1000;
 714:C:/Users/stapi/OneDrive/Desktop/GD32VW553/V1_MQTT_OK/GD32VW55X_Wifi_BLE_SDK/GD32VW55x_RELEASE_V1.0.2/MSDK/wpa_supplicant/src/ap\ieee802_11_shared.c **** 		val /= 1024;
 715:C:/Users/stapi/OneDrive/Desktop/GD32VW553/V1_MQTT_OK/GD32VW55X_Wifi_BLE_SDK/GD32VW55x_RELEASE_V1.0.2/MSDK/wpa_supplicant/src/ap\ieee802_11_shared.c **** 		if (val == 0)
 716:C:/Users/stapi/OneDrive/Desktop/GD32VW553/V1_MQTT_OK/GD32VW55X_Wifi_BLE_SDK/GD32VW55x_RELEASE_V1.0.2/MSDK/wpa_supplicant/src/ap\ieee802_11_shared.c **** 			val = 1;
 717:C:/Users/stapi/OneDrive/Desktop/GD32VW553/V1_MQTT_OK/GD32VW55X_Wifi_BLE_SDK/GD32VW55x_RELEASE_V1.0.2/MSDK/wpa_supplicant/src/ap\ieee802_11_shared.c **** 		if (val > 65535)
 718:C:/Users/stapi/OneDrive/Desktop/GD32VW553/V1_MQTT_OK/GD32VW55X_Wifi_BLE_SDK/GD32VW55x_RELEASE_V1.0.2/MSDK/wpa_supplicant/src/ap\ieee802_11_shared.c **** 			val = 65535;
 719:C:/Users/stapi/OneDrive/Desktop/GD32VW553/V1_MQTT_OK/GD32VW55X_Wifi_BLE_SDK/GD32VW55x_RELEASE_V1.0.2/MSDK/wpa_supplicant/src/ap\ieee802_11_shared.c **** 		WPA_PUT_LE16(pos, val);
 720:C:/Users/stapi/OneDrive/Desktop/GD32VW553/V1_MQTT_OK/GD32VW55X_Wifi_BLE_SDK/GD32VW55x_RELEASE_V1.0.2/MSDK/wpa_supplicant/src/ap\ieee802_11_shared.c **** 		pos += 2;
 721:C:/Users/stapi/OneDrive/Desktop/GD32VW553/V1_MQTT_OK/GD32VW55X_Wifi_BLE_SDK/GD32VW55x_RELEASE_V1.0.2/MSDK/wpa_supplicant/src/ap\ieee802_11_shared.c **** 		*pos++ = 0x00; /* TODO: Protected Keep-Alive Required */
 722:C:/Users/stapi/OneDrive/Desktop/GD32VW553/V1_MQTT_OK/GD32VW55X_Wifi_BLE_SDK/GD32VW55x_RELEASE_V1.0.2/MSDK/wpa_supplicant/src/ap\ieee802_11_shared.c **** 	}
 723:C:/Users/stapi/OneDrive/Desktop/GD32VW553/V1_MQTT_OK/GD32VW55X_Wifi_BLE_SDK/GD32VW55x_RELEASE_V1.0.2/MSDK/wpa_supplicant/src/ap\ieee802_11_shared.c **** #endif /* CONFIG_WNM_AP */
 724:C:/Users/stapi/OneDrive/Desktop/GD32VW553/V1_MQTT_OK/GD32VW55X_Wifi_BLE_SDK/GD32VW55x_RELEASE_V1.0.2/MSDK/wpa_supplicant/src/ap\ieee802_11_shared.c **** 
 725:C:/Users/stapi/OneDrive/Desktop/GD32VW553/V1_MQTT_OK/GD32VW55X_Wifi_BLE_SDK/GD32VW55x_RELEASE_V1.0.2/MSDK/wpa_supplicant/src/ap\ieee802_11_shared.c **** 	return pos;
 726:C:/Users/stapi/OneDrive/Desktop/GD32VW553/V1_MQTT_OK/GD32VW55X_Wifi_BLE_SDK/GD32VW55x_RELEASE_V1.0.2/MSDK/wpa_supplicant/src/ap\ieee802_11_shared.c **** }
 727:C:/Users/stapi/OneDrive/Desktop/GD32VW553/V1_MQTT_OK/GD32VW55X_Wifi_BLE_SDK/GD32VW55x_RELEASE_V1.0.2/MSDK/wpa_supplicant/src/ap\ieee802_11_shared.c **** 
 728:C:/Users/stapi/OneDrive/Desktop/GD32VW553/V1_MQTT_OK/GD32VW55X_Wifi_BLE_SDK/GD32VW55x_RELEASE_V1.0.2/MSDK/wpa_supplicant/src/ap\ieee802_11_shared.c **** 
 729:C:/Users/stapi/OneDrive/Desktop/GD32VW553/V1_MQTT_OK/GD32VW55X_Wifi_BLE_SDK/GD32VW55x_RELEASE_V1.0.2/MSDK/wpa_supplicant/src/ap\ieee802_11_shared.c **** #ifdef CONFIG_MBO
 730:C:/Users/stapi/OneDrive/Desktop/GD32VW553/V1_MQTT_OK/GD32VW55X_Wifi_BLE_SDK/GD32VW55x_RELEASE_V1.0.2/MSDK/wpa_supplicant/src/ap\ieee802_11_shared.c **** 
 731:C:/Users/stapi/OneDrive/Desktop/GD32VW553/V1_MQTT_OK/GD32VW55X_Wifi_BLE_SDK/GD32VW55x_RELEASE_V1.0.2/MSDK/wpa_supplicant/src/ap\ieee802_11_shared.c **** u8 * hostapd_eid_mbo_rssi_assoc_rej(struct hostapd_data *hapd, u8 *eid,
 732:C:/Users/stapi/OneDrive/Desktop/GD32VW553/V1_MQTT_OK/GD32VW55X_Wifi_BLE_SDK/GD32VW55x_RELEASE_V1.0.2/MSDK/wpa_supplicant/src/ap\ieee802_11_shared.c **** 				    size_t len, int delta)
 733:C:/Users/stapi/OneDrive/Desktop/GD32VW553/V1_MQTT_OK/GD32VW55X_Wifi_BLE_SDK/GD32VW55x_RELEASE_V1.0.2/MSDK/wpa_supplicant/src/ap\ieee802_11_shared.c **** {
 734:C:/Users/stapi/OneDrive/Desktop/GD32VW553/V1_MQTT_OK/GD32VW55X_Wifi_BLE_SDK/GD32VW55x_RELEASE_V1.0.2/MSDK/wpa_supplicant/src/ap\ieee802_11_shared.c **** 	u8 mbo[4];
 735:C:/Users/stapi/OneDrive/Desktop/GD32VW553/V1_MQTT_OK/GD32VW55X_Wifi_BLE_SDK/GD32VW55x_RELEASE_V1.0.2/MSDK/wpa_supplicant/src/ap\ieee802_11_shared.c **** 
 736:C:/Users/stapi/OneDrive/Desktop/GD32VW553/V1_MQTT_OK/GD32VW55X_Wifi_BLE_SDK/GD32VW55x_RELEASE_V1.0.2/MSDK/wpa_supplicant/src/ap\ieee802_11_shared.c **** 	mbo[0] = OCE_ATTR_ID_RSSI_BASED_ASSOC_REJECT;
 737:C:/Users/stapi/OneDrive/Desktop/GD32VW553/V1_MQTT_OK/GD32VW55X_Wifi_BLE_SDK/GD32VW55x_RELEASE_V1.0.2/MSDK/wpa_supplicant/src/ap\ieee802_11_shared.c **** 	mbo[1] = 2;
 738:C:/Users/stapi/OneDrive/Desktop/GD32VW553/V1_MQTT_OK/GD32VW55X_Wifi_BLE_SDK/GD32VW55x_RELEASE_V1.0.2/MSDK/wpa_supplicant/src/ap\ieee802_11_shared.c **** 	/* Delta RSSI */
 739:C:/Users/stapi/OneDrive/Desktop/GD32VW553/V1_MQTT_OK/GD32VW55X_Wifi_BLE_SDK/GD32VW55x_RELEASE_V1.0.2/MSDK/wpa_supplicant/src/ap\ieee802_11_shared.c **** 	mbo[2] = delta;
 740:C:/Users/stapi/OneDrive/Desktop/GD32VW553/V1_MQTT_OK/GD32VW55X_Wifi_BLE_SDK/GD32VW55x_RELEASE_V1.0.2/MSDK/wpa_supplicant/src/ap\ieee802_11_shared.c **** 	/* Retry delay */
 741:C:/Users/stapi/OneDrive/Desktop/GD32VW553/V1_MQTT_OK/GD32VW55X_Wifi_BLE_SDK/GD32VW55x_RELEASE_V1.0.2/MSDK/wpa_supplicant/src/ap\ieee802_11_shared.c **** 	mbo[3] = hapd->iconf->rssi_reject_assoc_timeout;
 742:C:/Users/stapi/OneDrive/Desktop/GD32VW553/V1_MQTT_OK/GD32VW55X_Wifi_BLE_SDK/GD32VW55x_RELEASE_V1.0.2/MSDK/wpa_supplicant/src/ap\ieee802_11_shared.c **** 
 743:C:/Users/stapi/OneDrive/Desktop/GD32VW553/V1_MQTT_OK/GD32VW55X_Wifi_BLE_SDK/GD32VW55x_RELEASE_V1.0.2/MSDK/wpa_supplicant/src/ap\ieee802_11_shared.c **** 	return eid + mbo_add_ie(eid, len, mbo, 4);
 744:C:/Users/stapi/OneDrive/Desktop/GD32VW553/V1_MQTT_OK/GD32VW55X_Wifi_BLE_SDK/GD32VW55x_RELEASE_V1.0.2/MSDK/wpa_supplicant/src/ap\ieee802_11_shared.c **** }
 745:C:/Users/stapi/OneDrive/Desktop/GD32VW553/V1_MQTT_OK/GD32VW55X_Wifi_BLE_SDK/GD32VW55x_RELEASE_V1.0.2/MSDK/wpa_supplicant/src/ap\ieee802_11_shared.c **** 
 746:C:/Users/stapi/OneDrive/Desktop/GD32VW553/V1_MQTT_OK/GD32VW55X_Wifi_BLE_SDK/GD32VW55x_RELEASE_V1.0.2/MSDK/wpa_supplicant/src/ap\ieee802_11_shared.c **** 
 747:C:/Users/stapi/OneDrive/Desktop/GD32VW553/V1_MQTT_OK/GD32VW55X_Wifi_BLE_SDK/GD32VW55x_RELEASE_V1.0.2/MSDK/wpa_supplicant/src/ap\ieee802_11_shared.c **** u8 * hostapd_eid_mbo(struct hostapd_data *hapd, u8 *eid, size_t len)
 748:C:/Users/stapi/OneDrive/Desktop/GD32VW553/V1_MQTT_OK/GD32VW55X_Wifi_BLE_SDK/GD32VW55x_RELEASE_V1.0.2/MSDK/wpa_supplicant/src/ap\ieee802_11_shared.c **** {
 749:C:/Users/stapi/OneDrive/Desktop/GD32VW553/V1_MQTT_OK/GD32VW55X_Wifi_BLE_SDK/GD32VW55x_RELEASE_V1.0.2/MSDK/wpa_supplicant/src/ap\ieee802_11_shared.c **** 	u8 mbo[9], *mbo_pos = mbo;
 750:C:/Users/stapi/OneDrive/Desktop/GD32VW553/V1_MQTT_OK/GD32VW55X_Wifi_BLE_SDK/GD32VW55x_RELEASE_V1.0.2/MSDK/wpa_supplicant/src/ap\ieee802_11_shared.c **** 	u8 *pos = eid;
 751:C:/Users/stapi/OneDrive/Desktop/GD32VW553/V1_MQTT_OK/GD32VW55X_Wifi_BLE_SDK/GD32VW55x_RELEASE_V1.0.2/MSDK/wpa_supplicant/src/ap\ieee802_11_shared.c **** 
 752:C:/Users/stapi/OneDrive/Desktop/GD32VW553/V1_MQTT_OK/GD32VW55X_Wifi_BLE_SDK/GD32VW55x_RELEASE_V1.0.2/MSDK/wpa_supplicant/src/ap\ieee802_11_shared.c **** 	if (!hapd->conf->mbo_enabled &&
 753:C:/Users/stapi/OneDrive/Desktop/GD32VW553/V1_MQTT_OK/GD32VW55X_Wifi_BLE_SDK/GD32VW55x_RELEASE_V1.0.2/MSDK/wpa_supplicant/src/ap\ieee802_11_shared.c **** 	    !OCE_STA_CFON_ENABLED(hapd) && !OCE_AP_ENABLED(hapd))
 754:C:/Users/stapi/OneDrive/Desktop/GD32VW553/V1_MQTT_OK/GD32VW55X_Wifi_BLE_SDK/GD32VW55x_RELEASE_V1.0.2/MSDK/wpa_supplicant/src/ap\ieee802_11_shared.c **** 		return eid;
 755:C:/Users/stapi/OneDrive/Desktop/GD32VW553/V1_MQTT_OK/GD32VW55X_Wifi_BLE_SDK/GD32VW55x_RELEASE_V1.0.2/MSDK/wpa_supplicant/src/ap\ieee802_11_shared.c **** 
 756:C:/Users/stapi/OneDrive/Desktop/GD32VW553/V1_MQTT_OK/GD32VW55X_Wifi_BLE_SDK/GD32VW55x_RELEASE_V1.0.2/MSDK/wpa_supplicant/src/ap\ieee802_11_shared.c **** 	if (hapd->conf->mbo_enabled) {
 757:C:/Users/stapi/OneDrive/Desktop/GD32VW553/V1_MQTT_OK/GD32VW55X_Wifi_BLE_SDK/GD32VW55x_RELEASE_V1.0.2/MSDK/wpa_supplicant/src/ap\ieee802_11_shared.c **** 		*mbo_pos++ = MBO_ATTR_ID_AP_CAPA_IND;
 758:C:/Users/stapi/OneDrive/Desktop/GD32VW553/V1_MQTT_OK/GD32VW55X_Wifi_BLE_SDK/GD32VW55x_RELEASE_V1.0.2/MSDK/wpa_supplicant/src/ap\ieee802_11_shared.c **** 		*mbo_pos++ = 1;
 759:C:/Users/stapi/OneDrive/Desktop/GD32VW553/V1_MQTT_OK/GD32VW55X_Wifi_BLE_SDK/GD32VW55x_RELEASE_V1.0.2/MSDK/wpa_supplicant/src/ap\ieee802_11_shared.c **** 		/* Not Cellular aware */
 760:C:/Users/stapi/OneDrive/Desktop/GD32VW553/V1_MQTT_OK/GD32VW55X_Wifi_BLE_SDK/GD32VW55x_RELEASE_V1.0.2/MSDK/wpa_supplicant/src/ap\ieee802_11_shared.c **** 		*mbo_pos++ = 0;
 761:C:/Users/stapi/OneDrive/Desktop/GD32VW553/V1_MQTT_OK/GD32VW55X_Wifi_BLE_SDK/GD32VW55x_RELEASE_V1.0.2/MSDK/wpa_supplicant/src/ap\ieee802_11_shared.c **** 	}
 762:C:/Users/stapi/OneDrive/Desktop/GD32VW553/V1_MQTT_OK/GD32VW55X_Wifi_BLE_SDK/GD32VW55x_RELEASE_V1.0.2/MSDK/wpa_supplicant/src/ap\ieee802_11_shared.c **** 
 763:C:/Users/stapi/OneDrive/Desktop/GD32VW553/V1_MQTT_OK/GD32VW55X_Wifi_BLE_SDK/GD32VW55x_RELEASE_V1.0.2/MSDK/wpa_supplicant/src/ap\ieee802_11_shared.c **** 	if (hapd->conf->mbo_enabled && hapd->mbo_assoc_disallow) {
 764:C:/Users/stapi/OneDrive/Desktop/GD32VW553/V1_MQTT_OK/GD32VW55X_Wifi_BLE_SDK/GD32VW55x_RELEASE_V1.0.2/MSDK/wpa_supplicant/src/ap\ieee802_11_shared.c **** 		*mbo_pos++ = MBO_ATTR_ID_ASSOC_DISALLOW;
 765:C:/Users/stapi/OneDrive/Desktop/GD32VW553/V1_MQTT_OK/GD32VW55X_Wifi_BLE_SDK/GD32VW55x_RELEASE_V1.0.2/MSDK/wpa_supplicant/src/ap\ieee802_11_shared.c **** 		*mbo_pos++ = 1;
 766:C:/Users/stapi/OneDrive/Desktop/GD32VW553/V1_MQTT_OK/GD32VW55X_Wifi_BLE_SDK/GD32VW55x_RELEASE_V1.0.2/MSDK/wpa_supplicant/src/ap\ieee802_11_shared.c **** 		*mbo_pos++ = hapd->mbo_assoc_disallow;
 767:C:/Users/stapi/OneDrive/Desktop/GD32VW553/V1_MQTT_OK/GD32VW55X_Wifi_BLE_SDK/GD32VW55x_RELEASE_V1.0.2/MSDK/wpa_supplicant/src/ap\ieee802_11_shared.c **** 	}
 768:C:/Users/stapi/OneDrive/Desktop/GD32VW553/V1_MQTT_OK/GD32VW55X_Wifi_BLE_SDK/GD32VW55x_RELEASE_V1.0.2/MSDK/wpa_supplicant/src/ap\ieee802_11_shared.c **** 
 769:C:/Users/stapi/OneDrive/Desktop/GD32VW553/V1_MQTT_OK/GD32VW55X_Wifi_BLE_SDK/GD32VW55x_RELEASE_V1.0.2/MSDK/wpa_supplicant/src/ap\ieee802_11_shared.c **** 	if (OCE_STA_CFON_ENABLED(hapd) || OCE_AP_ENABLED(hapd)) {
 770:C:/Users/stapi/OneDrive/Desktop/GD32VW553/V1_MQTT_OK/GD32VW55X_Wifi_BLE_SDK/GD32VW55x_RELEASE_V1.0.2/MSDK/wpa_supplicant/src/ap\ieee802_11_shared.c **** 		u8 ctrl;
 771:C:/Users/stapi/OneDrive/Desktop/GD32VW553/V1_MQTT_OK/GD32VW55X_Wifi_BLE_SDK/GD32VW55x_RELEASE_V1.0.2/MSDK/wpa_supplicant/src/ap\ieee802_11_shared.c **** 
 772:C:/Users/stapi/OneDrive/Desktop/GD32VW553/V1_MQTT_OK/GD32VW55X_Wifi_BLE_SDK/GD32VW55x_RELEASE_V1.0.2/MSDK/wpa_supplicant/src/ap\ieee802_11_shared.c **** 		ctrl = OCE_RELEASE;
 773:C:/Users/stapi/OneDrive/Desktop/GD32VW553/V1_MQTT_OK/GD32VW55X_Wifi_BLE_SDK/GD32VW55x_RELEASE_V1.0.2/MSDK/wpa_supplicant/src/ap\ieee802_11_shared.c **** 		if (OCE_STA_CFON_ENABLED(hapd) && !OCE_AP_ENABLED(hapd))
 774:C:/Users/stapi/OneDrive/Desktop/GD32VW553/V1_MQTT_OK/GD32VW55X_Wifi_BLE_SDK/GD32VW55x_RELEASE_V1.0.2/MSDK/wpa_supplicant/src/ap\ieee802_11_shared.c **** 			ctrl |= OCE_IS_STA_CFON;
 775:C:/Users/stapi/OneDrive/Desktop/GD32VW553/V1_MQTT_OK/GD32VW55X_Wifi_BLE_SDK/GD32VW55x_RELEASE_V1.0.2/MSDK/wpa_supplicant/src/ap\ieee802_11_shared.c **** 
 776:C:/Users/stapi/OneDrive/Desktop/GD32VW553/V1_MQTT_OK/GD32VW55X_Wifi_BLE_SDK/GD32VW55x_RELEASE_V1.0.2/MSDK/wpa_supplicant/src/ap\ieee802_11_shared.c **** 		*mbo_pos++ = OCE_ATTR_ID_CAPA_IND;
 777:C:/Users/stapi/OneDrive/Desktop/GD32VW553/V1_MQTT_OK/GD32VW55X_Wifi_BLE_SDK/GD32VW55x_RELEASE_V1.0.2/MSDK/wpa_supplicant/src/ap\ieee802_11_shared.c **** 		*mbo_pos++ = 1;
 778:C:/Users/stapi/OneDrive/Desktop/GD32VW553/V1_MQTT_OK/GD32VW55X_Wifi_BLE_SDK/GD32VW55x_RELEASE_V1.0.2/MSDK/wpa_supplicant/src/ap\ieee802_11_shared.c **** 		*mbo_pos++ = ctrl;
 779:C:/Users/stapi/OneDrive/Desktop/GD32VW553/V1_MQTT_OK/GD32VW55X_Wifi_BLE_SDK/GD32VW55x_RELEASE_V1.0.2/MSDK/wpa_supplicant/src/ap\ieee802_11_shared.c **** 	}
 780:C:/Users/stapi/OneDrive/Desktop/GD32VW553/V1_MQTT_OK/GD32VW55X_Wifi_BLE_SDK/GD32VW55x_RELEASE_V1.0.2/MSDK/wpa_supplicant/src/ap\ieee802_11_shared.c **** 
 781:C:/Users/stapi/OneDrive/Desktop/GD32VW553/V1_MQTT_OK/GD32VW55X_Wifi_BLE_SDK/GD32VW55x_RELEASE_V1.0.2/MSDK/wpa_supplicant/src/ap\ieee802_11_shared.c **** 	pos += mbo_add_ie(pos, len, mbo, mbo_pos - mbo);
 782:C:/Users/stapi/OneDrive/Desktop/GD32VW553/V1_MQTT_OK/GD32VW55X_Wifi_BLE_SDK/GD32VW55x_RELEASE_V1.0.2/MSDK/wpa_supplicant/src/ap\ieee802_11_shared.c **** 
 783:C:/Users/stapi/OneDrive/Desktop/GD32VW553/V1_MQTT_OK/GD32VW55X_Wifi_BLE_SDK/GD32VW55x_RELEASE_V1.0.2/MSDK/wpa_supplicant/src/ap\ieee802_11_shared.c **** 	return pos;
 784:C:/Users/stapi/OneDrive/Desktop/GD32VW553/V1_MQTT_OK/GD32VW55X_Wifi_BLE_SDK/GD32VW55x_RELEASE_V1.0.2/MSDK/wpa_supplicant/src/ap\ieee802_11_shared.c **** }
 785:C:/Users/stapi/OneDrive/Desktop/GD32VW553/V1_MQTT_OK/GD32VW55X_Wifi_BLE_SDK/GD32VW55x_RELEASE_V1.0.2/MSDK/wpa_supplicant/src/ap\ieee802_11_shared.c **** 
 786:C:/Users/stapi/OneDrive/Desktop/GD32VW553/V1_MQTT_OK/GD32VW55X_Wifi_BLE_SDK/GD32VW55x_RELEASE_V1.0.2/MSDK/wpa_supplicant/src/ap\ieee802_11_shared.c **** 
 787:C:/Users/stapi/OneDrive/Desktop/GD32VW553/V1_MQTT_OK/GD32VW55X_Wifi_BLE_SDK/GD32VW55x_RELEASE_V1.0.2/MSDK/wpa_supplicant/src/ap\ieee802_11_shared.c **** u8 hostapd_mbo_ie_len(struct hostapd_data *hapd)
 788:C:/Users/stapi/OneDrive/Desktop/GD32VW553/V1_MQTT_OK/GD32VW55X_Wifi_BLE_SDK/GD32VW55x_RELEASE_V1.0.2/MSDK/wpa_supplicant/src/ap\ieee802_11_shared.c **** {
 789:C:/Users/stapi/OneDrive/Desktop/GD32VW553/V1_MQTT_OK/GD32VW55X_Wifi_BLE_SDK/GD32VW55x_RELEASE_V1.0.2/MSDK/wpa_supplicant/src/ap\ieee802_11_shared.c **** 	u8 len;
 790:C:/Users/stapi/OneDrive/Desktop/GD32VW553/V1_MQTT_OK/GD32VW55X_Wifi_BLE_SDK/GD32VW55x_RELEASE_V1.0.2/MSDK/wpa_supplicant/src/ap\ieee802_11_shared.c **** 
 791:C:/Users/stapi/OneDrive/Desktop/GD32VW553/V1_MQTT_OK/GD32VW55X_Wifi_BLE_SDK/GD32VW55x_RELEASE_V1.0.2/MSDK/wpa_supplicant/src/ap\ieee802_11_shared.c **** 	if (!hapd->conf->mbo_enabled &&
 792:C:/Users/stapi/OneDrive/Desktop/GD32VW553/V1_MQTT_OK/GD32VW55X_Wifi_BLE_SDK/GD32VW55x_RELEASE_V1.0.2/MSDK/wpa_supplicant/src/ap\ieee802_11_shared.c **** 	    !OCE_STA_CFON_ENABLED(hapd) && !OCE_AP_ENABLED(hapd))
 793:C:/Users/stapi/OneDrive/Desktop/GD32VW553/V1_MQTT_OK/GD32VW55X_Wifi_BLE_SDK/GD32VW55x_RELEASE_V1.0.2/MSDK/wpa_supplicant/src/ap\ieee802_11_shared.c **** 		return 0;
 794:C:/Users/stapi/OneDrive/Desktop/GD32VW553/V1_MQTT_OK/GD32VW55X_Wifi_BLE_SDK/GD32VW55x_RELEASE_V1.0.2/MSDK/wpa_supplicant/src/ap\ieee802_11_shared.c **** 
 795:C:/Users/stapi/OneDrive/Desktop/GD32VW553/V1_MQTT_OK/GD32VW55X_Wifi_BLE_SDK/GD32VW55x_RELEASE_V1.0.2/MSDK/wpa_supplicant/src/ap\ieee802_11_shared.c **** 	/*
 796:C:/Users/stapi/OneDrive/Desktop/GD32VW553/V1_MQTT_OK/GD32VW55X_Wifi_BLE_SDK/GD32VW55x_RELEASE_V1.0.2/MSDK/wpa_supplicant/src/ap\ieee802_11_shared.c **** 	 * MBO IE header (6) + Capability Indication attribute (3) +
 797:C:/Users/stapi/OneDrive/Desktop/GD32VW553/V1_MQTT_OK/GD32VW55X_Wifi_BLE_SDK/GD32VW55x_RELEASE_V1.0.2/MSDK/wpa_supplicant/src/ap\ieee802_11_shared.c **** 	 * Association Disallowed attribute (3) = 12
 798:C:/Users/stapi/OneDrive/Desktop/GD32VW553/V1_MQTT_OK/GD32VW55X_Wifi_BLE_SDK/GD32VW55x_RELEASE_V1.0.2/MSDK/wpa_supplicant/src/ap\ieee802_11_shared.c **** 	 */
 799:C:/Users/stapi/OneDrive/Desktop/GD32VW553/V1_MQTT_OK/GD32VW55X_Wifi_BLE_SDK/GD32VW55x_RELEASE_V1.0.2/MSDK/wpa_supplicant/src/ap\ieee802_11_shared.c **** 	len = 6;
 800:C:/Users/stapi/OneDrive/Desktop/GD32VW553/V1_MQTT_OK/GD32VW55X_Wifi_BLE_SDK/GD32VW55x_RELEASE_V1.0.2/MSDK/wpa_supplicant/src/ap\ieee802_11_shared.c **** 	if (hapd->conf->mbo_enabled)
 801:C:/Users/stapi/OneDrive/Desktop/GD32VW553/V1_MQTT_OK/GD32VW55X_Wifi_BLE_SDK/GD32VW55x_RELEASE_V1.0.2/MSDK/wpa_supplicant/src/ap\ieee802_11_shared.c **** 		len += 3 + (hapd->mbo_assoc_disallow ? 3 : 0);
 802:C:/Users/stapi/OneDrive/Desktop/GD32VW553/V1_MQTT_OK/GD32VW55X_Wifi_BLE_SDK/GD32VW55x_RELEASE_V1.0.2/MSDK/wpa_supplicant/src/ap\ieee802_11_shared.c **** 
 803:C:/Users/stapi/OneDrive/Desktop/GD32VW553/V1_MQTT_OK/GD32VW55X_Wifi_BLE_SDK/GD32VW55x_RELEASE_V1.0.2/MSDK/wpa_supplicant/src/ap\ieee802_11_shared.c **** 	/* OCE capability indication attribute (3) */
 804:C:/Users/stapi/OneDrive/Desktop/GD32VW553/V1_MQTT_OK/GD32VW55X_Wifi_BLE_SDK/GD32VW55x_RELEASE_V1.0.2/MSDK/wpa_supplicant/src/ap\ieee802_11_shared.c **** 	if (OCE_STA_CFON_ENABLED(hapd) || OCE_AP_ENABLED(hapd))
 805:C:/Users/stapi/OneDrive/Desktop/GD32VW553/V1_MQTT_OK/GD32VW55X_Wifi_BLE_SDK/GD32VW55x_RELEASE_V1.0.2/MSDK/wpa_supplicant/src/ap\ieee802_11_shared.c **** 		len += 3;
 806:C:/Users/stapi/OneDrive/Desktop/GD32VW553/V1_MQTT_OK/GD32VW55X_Wifi_BLE_SDK/GD32VW55x_RELEASE_V1.0.2/MSDK/wpa_supplicant/src/ap\ieee802_11_shared.c **** 
 807:C:/Users/stapi/OneDrive/Desktop/GD32VW553/V1_MQTT_OK/GD32VW55X_Wifi_BLE_SDK/GD32VW55x_RELEASE_V1.0.2/MSDK/wpa_supplicant/src/ap\ieee802_11_shared.c **** 	return len;
 808:C:/Users/stapi/OneDrive/Desktop/GD32VW553/V1_MQTT_OK/GD32VW55X_Wifi_BLE_SDK/GD32VW55x_RELEASE_V1.0.2/MSDK/wpa_supplicant/src/ap\ieee802_11_shared.c **** }
 809:C:/Users/stapi/OneDrive/Desktop/GD32VW553/V1_MQTT_OK/GD32VW55X_Wifi_BLE_SDK/GD32VW55x_RELEASE_V1.0.2/MSDK/wpa_supplicant/src/ap\ieee802_11_shared.c **** 
 810:C:/Users/stapi/OneDrive/Desktop/GD32VW553/V1_MQTT_OK/GD32VW55X_Wifi_BLE_SDK/GD32VW55x_RELEASE_V1.0.2/MSDK/wpa_supplicant/src/ap\ieee802_11_shared.c **** #endif /* CONFIG_MBO */
 811:C:/Users/stapi/OneDrive/Desktop/GD32VW553/V1_MQTT_OK/GD32VW55X_Wifi_BLE_SDK/GD32VW55x_RELEASE_V1.0.2/MSDK/wpa_supplicant/src/ap\ieee802_11_shared.c **** 
 812:C:/Users/stapi/OneDrive/Desktop/GD32VW553/V1_MQTT_OK/GD32VW55X_Wifi_BLE_SDK/GD32VW55x_RELEASE_V1.0.2/MSDK/wpa_supplicant/src/ap\ieee802_11_shared.c **** 
 813:C:/Users/stapi/OneDrive/Desktop/GD32VW553/V1_MQTT_OK/GD32VW55X_Wifi_BLE_SDK/GD32VW55x_RELEASE_V1.0.2/MSDK/wpa_supplicant/src/ap\ieee802_11_shared.c **** #ifdef CONFIG_OWE
 814:C:/Users/stapi/OneDrive/Desktop/GD32VW553/V1_MQTT_OK/GD32VW55X_Wifi_BLE_SDK/GD32VW55x_RELEASE_V1.0.2/MSDK/wpa_supplicant/src/ap\ieee802_11_shared.c **** static int hostapd_eid_owe_trans_enabled(struct hostapd_data *hapd)
 815:C:/Users/stapi/OneDrive/Desktop/GD32VW553/V1_MQTT_OK/GD32VW55X_Wifi_BLE_SDK/GD32VW55x_RELEASE_V1.0.2/MSDK/wpa_supplicant/src/ap\ieee802_11_shared.c **** {
 816:C:/Users/stapi/OneDrive/Desktop/GD32VW553/V1_MQTT_OK/GD32VW55X_Wifi_BLE_SDK/GD32VW55x_RELEASE_V1.0.2/MSDK/wpa_supplicant/src/ap\ieee802_11_shared.c **** 	return hapd->conf->owe_transition_ssid_len > 0 &&
 817:C:/Users/stapi/OneDrive/Desktop/GD32VW553/V1_MQTT_OK/GD32VW55X_Wifi_BLE_SDK/GD32VW55x_RELEASE_V1.0.2/MSDK/wpa_supplicant/src/ap\ieee802_11_shared.c **** 		!is_zero_ether_addr(hapd->conf->owe_transition_bssid);
 818:C:/Users/stapi/OneDrive/Desktop/GD32VW553/V1_MQTT_OK/GD32VW55X_Wifi_BLE_SDK/GD32VW55x_RELEASE_V1.0.2/MSDK/wpa_supplicant/src/ap\ieee802_11_shared.c **** }
 819:C:/Users/stapi/OneDrive/Desktop/GD32VW553/V1_MQTT_OK/GD32VW55X_Wifi_BLE_SDK/GD32VW55x_RELEASE_V1.0.2/MSDK/wpa_supplicant/src/ap\ieee802_11_shared.c **** #endif /* CONFIG_OWE */
 820:C:/Users/stapi/OneDrive/Desktop/GD32VW553/V1_MQTT_OK/GD32VW55X_Wifi_BLE_SDK/GD32VW55x_RELEASE_V1.0.2/MSDK/wpa_supplicant/src/ap\ieee802_11_shared.c **** 
 821:C:/Users/stapi/OneDrive/Desktop/GD32VW553/V1_MQTT_OK/GD32VW55X_Wifi_BLE_SDK/GD32VW55x_RELEASE_V1.0.2/MSDK/wpa_supplicant/src/ap\ieee802_11_shared.c **** 
 822:C:/Users/stapi/OneDrive/Desktop/GD32VW553/V1_MQTT_OK/GD32VW55X_Wifi_BLE_SDK/GD32VW55x_RELEASE_V1.0.2/MSDK/wpa_supplicant/src/ap\ieee802_11_shared.c **** size_t hostapd_eid_owe_trans_len(struct hostapd_data *hapd)
 823:C:/Users/stapi/OneDrive/Desktop/GD32VW553/V1_MQTT_OK/GD32VW55X_Wifi_BLE_SDK/GD32VW55x_RELEASE_V1.0.2/MSDK/wpa_supplicant/src/ap\ieee802_11_shared.c **** {
 1804              		.loc 1 823 1 is_stmt 1
 1805              		.cfi_startproc
 1806              	.LVL158:
 824:C:/Users/stapi/OneDrive/Desktop/GD32VW553/V1_MQTT_OK/GD32VW55X_Wifi_BLE_SDK/GD32VW55x_RELEASE_V1.0.2/MSDK/wpa_supplicant/src/ap\ieee802_11_shared.c **** #ifdef CONFIG_OWE
 825:C:/Users/stapi/OneDrive/Desktop/GD32VW553/V1_MQTT_OK/GD32VW55X_Wifi_BLE_SDK/GD32VW55x_RELEASE_V1.0.2/MSDK/wpa_supplicant/src/ap\ieee802_11_shared.c **** 	if (!hostapd_eid_owe_trans_enabled(hapd))
 826:C:/Users/stapi/OneDrive/Desktop/GD32VW553/V1_MQTT_OK/GD32VW55X_Wifi_BLE_SDK/GD32VW55x_RELEASE_V1.0.2/MSDK/wpa_supplicant/src/ap\ieee802_11_shared.c **** 		return 0;
 827:C:/Users/stapi/OneDrive/Desktop/GD32VW553/V1_MQTT_OK/GD32VW55X_Wifi_BLE_SDK/GD32VW55x_RELEASE_V1.0.2/MSDK/wpa_supplicant/src/ap\ieee802_11_shared.c **** 	return 6 + ETH_ALEN + 1 + hapd->conf->owe_transition_ssid_len;
 828:C:/Users/stapi/OneDrive/Desktop/GD32VW553/V1_MQTT_OK/GD32VW55X_Wifi_BLE_SDK/GD32VW55x_RELEASE_V1.0.2/MSDK/wpa_supplicant/src/ap\ieee802_11_shared.c **** #else /* CONFIG_OWE */
 829:C:/Users/stapi/OneDrive/Desktop/GD32VW553/V1_MQTT_OK/GD32VW55X_Wifi_BLE_SDK/GD32VW55x_RELEASE_V1.0.2/MSDK/wpa_supplicant/src/ap\ieee802_11_shared.c **** 	return 0;
 1807              		.loc 1 829 2
 830:C:/Users/stapi/OneDrive/Desktop/GD32VW553/V1_MQTT_OK/GD32VW55X_Wifi_BLE_SDK/GD32VW55x_RELEASE_V1.0.2/MSDK/wpa_supplicant/src/ap\ieee802_11_shared.c **** #endif /* CONFIG_OWE */
 831:C:/Users/stapi/OneDrive/Desktop/GD32VW553/V1_MQTT_OK/GD32VW55X_Wifi_BLE_SDK/GD32VW55x_RELEASE_V1.0.2/MSDK/wpa_supplicant/src/ap\ieee802_11_shared.c **** }
 1808              		.loc 1 831 1 is_stmt 0
 1809 0000 0145     		li	a0,0
 1810              	.LVL159:
 1811 0002 8280     		ret
 1812              		.cfi_endproc
 1813              	.LFE181:
 1815              		.section	.text.hostapd_eid_owe_trans,"ax",@progbits
 1816              		.align	1
 1817              		.globl	hostapd_eid_owe_trans
 1819              	hostapd_eid_owe_trans:
 1820              	.LFB182:
 832:C:/Users/stapi/OneDrive/Desktop/GD32VW553/V1_MQTT_OK/GD32VW55X_Wifi_BLE_SDK/GD32VW55x_RELEASE_V1.0.2/MSDK/wpa_supplicant/src/ap\ieee802_11_shared.c **** 
 833:C:/Users/stapi/OneDrive/Desktop/GD32VW553/V1_MQTT_OK/GD32VW55X_Wifi_BLE_SDK/GD32VW55x_RELEASE_V1.0.2/MSDK/wpa_supplicant/src/ap\ieee802_11_shared.c **** 
 834:C:/Users/stapi/OneDrive/Desktop/GD32VW553/V1_MQTT_OK/GD32VW55X_Wifi_BLE_SDK/GD32VW55x_RELEASE_V1.0.2/MSDK/wpa_supplicant/src/ap\ieee802_11_shared.c **** u8 * hostapd_eid_owe_trans(struct hostapd_data *hapd, u8 *eid,
 835:C:/Users/stapi/OneDrive/Desktop/GD32VW553/V1_MQTT_OK/GD32VW55X_Wifi_BLE_SDK/GD32VW55x_RELEASE_V1.0.2/MSDK/wpa_supplicant/src/ap\ieee802_11_shared.c **** 				  size_t len)
 836:C:/Users/stapi/OneDrive/Desktop/GD32VW553/V1_MQTT_OK/GD32VW55X_Wifi_BLE_SDK/GD32VW55x_RELEASE_V1.0.2/MSDK/wpa_supplicant/src/ap\ieee802_11_shared.c **** {
 1821              		.loc 1 836 1 is_stmt 1
 1822              		.cfi_startproc
 1823              	.LVL160:
 837:C:/Users/stapi/OneDrive/Desktop/GD32VW553/V1_MQTT_OK/GD32VW55X_Wifi_BLE_SDK/GD32VW55x_RELEASE_V1.0.2/MSDK/wpa_supplicant/src/ap\ieee802_11_shared.c **** #ifdef CONFIG_OWE
 838:C:/Users/stapi/OneDrive/Desktop/GD32VW553/V1_MQTT_OK/GD32VW55X_Wifi_BLE_SDK/GD32VW55x_RELEASE_V1.0.2/MSDK/wpa_supplicant/src/ap\ieee802_11_shared.c **** 	u8 *pos = eid;
 839:C:/Users/stapi/OneDrive/Desktop/GD32VW553/V1_MQTT_OK/GD32VW55X_Wifi_BLE_SDK/GD32VW55x_RELEASE_V1.0.2/MSDK/wpa_supplicant/src/ap\ieee802_11_shared.c **** 	size_t elen;
 840:C:/Users/stapi/OneDrive/Desktop/GD32VW553/V1_MQTT_OK/GD32VW55X_Wifi_BLE_SDK/GD32VW55x_RELEASE_V1.0.2/MSDK/wpa_supplicant/src/ap\ieee802_11_shared.c **** 
 841:C:/Users/stapi/OneDrive/Desktop/GD32VW553/V1_MQTT_OK/GD32VW55X_Wifi_BLE_SDK/GD32VW55x_RELEASE_V1.0.2/MSDK/wpa_supplicant/src/ap\ieee802_11_shared.c **** 	if (hapd->conf->owe_transition_ifname[0] &&
 842:C:/Users/stapi/OneDrive/Desktop/GD32VW553/V1_MQTT_OK/GD32VW55X_Wifi_BLE_SDK/GD32VW55x_RELEASE_V1.0.2/MSDK/wpa_supplicant/src/ap\ieee802_11_shared.c **** 	    !hostapd_eid_owe_trans_enabled(hapd))
 843:C:/Users/stapi/OneDrive/Desktop/GD32VW553/V1_MQTT_OK/GD32VW55X_Wifi_BLE_SDK/GD32VW55x_RELEASE_V1.0.2/MSDK/wpa_supplicant/src/ap\ieee802_11_shared.c **** 		hostapd_owe_trans_get_info(hapd);
 844:C:/Users/stapi/OneDrive/Desktop/GD32VW553/V1_MQTT_OK/GD32VW55X_Wifi_BLE_SDK/GD32VW55x_RELEASE_V1.0.2/MSDK/wpa_supplicant/src/ap\ieee802_11_shared.c **** 
 845:C:/Users/stapi/OneDrive/Desktop/GD32VW553/V1_MQTT_OK/GD32VW55X_Wifi_BLE_SDK/GD32VW55x_RELEASE_V1.0.2/MSDK/wpa_supplicant/src/ap\ieee802_11_shared.c **** 	if (!hostapd_eid_owe_trans_enabled(hapd))
 846:C:/Users/stapi/OneDrive/Desktop/GD32VW553/V1_MQTT_OK/GD32VW55X_Wifi_BLE_SDK/GD32VW55x_RELEASE_V1.0.2/MSDK/wpa_supplicant/src/ap\ieee802_11_shared.c **** 		return pos;
 847:C:/Users/stapi/OneDrive/Desktop/GD32VW553/V1_MQTT_OK/GD32VW55X_Wifi_BLE_SDK/GD32VW55x_RELEASE_V1.0.2/MSDK/wpa_supplicant/src/ap\ieee802_11_shared.c **** 
 848:C:/Users/stapi/OneDrive/Desktop/GD32VW553/V1_MQTT_OK/GD32VW55X_Wifi_BLE_SDK/GD32VW55x_RELEASE_V1.0.2/MSDK/wpa_supplicant/src/ap\ieee802_11_shared.c **** 	elen = hostapd_eid_owe_trans_len(hapd);
 849:C:/Users/stapi/OneDrive/Desktop/GD32VW553/V1_MQTT_OK/GD32VW55X_Wifi_BLE_SDK/GD32VW55x_RELEASE_V1.0.2/MSDK/wpa_supplicant/src/ap\ieee802_11_shared.c **** 	if (len < elen) {
 850:C:/Users/stapi/OneDrive/Desktop/GD32VW553/V1_MQTT_OK/GD32VW55X_Wifi_BLE_SDK/GD32VW55x_RELEASE_V1.0.2/MSDK/wpa_supplicant/src/ap\ieee802_11_shared.c **** 		wpa_printf(MSG_DEBUG,
 851:C:/Users/stapi/OneDrive/Desktop/GD32VW553/V1_MQTT_OK/GD32VW55X_Wifi_BLE_SDK/GD32VW55x_RELEASE_V1.0.2/MSDK/wpa_supplicant/src/ap\ieee802_11_shared.c **** 			   "OWE: Not enough room in the buffer for OWE IE");
 852:C:/Users/stapi/OneDrive/Desktop/GD32VW553/V1_MQTT_OK/GD32VW55X_Wifi_BLE_SDK/GD32VW55x_RELEASE_V1.0.2/MSDK/wpa_supplicant/src/ap\ieee802_11_shared.c **** 		return pos;
 853:C:/Users/stapi/OneDrive/Desktop/GD32VW553/V1_MQTT_OK/GD32VW55X_Wifi_BLE_SDK/GD32VW55x_RELEASE_V1.0.2/MSDK/wpa_supplicant/src/ap\ieee802_11_shared.c **** 	}
 854:C:/Users/stapi/OneDrive/Desktop/GD32VW553/V1_MQTT_OK/GD32VW55X_Wifi_BLE_SDK/GD32VW55x_RELEASE_V1.0.2/MSDK/wpa_supplicant/src/ap\ieee802_11_shared.c **** 
 855:C:/Users/stapi/OneDrive/Desktop/GD32VW553/V1_MQTT_OK/GD32VW55X_Wifi_BLE_SDK/GD32VW55x_RELEASE_V1.0.2/MSDK/wpa_supplicant/src/ap\ieee802_11_shared.c **** 	*pos++ = WLAN_EID_VENDOR_SPECIFIC;
 856:C:/Users/stapi/OneDrive/Desktop/GD32VW553/V1_MQTT_OK/GD32VW55X_Wifi_BLE_SDK/GD32VW55x_RELEASE_V1.0.2/MSDK/wpa_supplicant/src/ap\ieee802_11_shared.c **** 	*pos++ = elen - 2;
 857:C:/Users/stapi/OneDrive/Desktop/GD32VW553/V1_MQTT_OK/GD32VW55X_Wifi_BLE_SDK/GD32VW55x_RELEASE_V1.0.2/MSDK/wpa_supplicant/src/ap\ieee802_11_shared.c **** 	WPA_PUT_BE24(pos, OUI_WFA);
 858:C:/Users/stapi/OneDrive/Desktop/GD32VW553/V1_MQTT_OK/GD32VW55X_Wifi_BLE_SDK/GD32VW55x_RELEASE_V1.0.2/MSDK/wpa_supplicant/src/ap\ieee802_11_shared.c **** 	pos += 3;
 859:C:/Users/stapi/OneDrive/Desktop/GD32VW553/V1_MQTT_OK/GD32VW55X_Wifi_BLE_SDK/GD32VW55x_RELEASE_V1.0.2/MSDK/wpa_supplicant/src/ap\ieee802_11_shared.c **** 	*pos++ = OWE_OUI_TYPE;
 860:C:/Users/stapi/OneDrive/Desktop/GD32VW553/V1_MQTT_OK/GD32VW55X_Wifi_BLE_SDK/GD32VW55x_RELEASE_V1.0.2/MSDK/wpa_supplicant/src/ap\ieee802_11_shared.c **** 	os_memcpy(pos, hapd->conf->owe_transition_bssid, ETH_ALEN);
 861:C:/Users/stapi/OneDrive/Desktop/GD32VW553/V1_MQTT_OK/GD32VW55X_Wifi_BLE_SDK/GD32VW55x_RELEASE_V1.0.2/MSDK/wpa_supplicant/src/ap\ieee802_11_shared.c **** 	pos += ETH_ALEN;
 862:C:/Users/stapi/OneDrive/Desktop/GD32VW553/V1_MQTT_OK/GD32VW55X_Wifi_BLE_SDK/GD32VW55x_RELEASE_V1.0.2/MSDK/wpa_supplicant/src/ap\ieee802_11_shared.c **** 	*pos++ = hapd->conf->owe_transition_ssid_len;
 863:C:/Users/stapi/OneDrive/Desktop/GD32VW553/V1_MQTT_OK/GD32VW55X_Wifi_BLE_SDK/GD32VW55x_RELEASE_V1.0.2/MSDK/wpa_supplicant/src/ap\ieee802_11_shared.c **** 	os_memcpy(pos, hapd->conf->owe_transition_ssid,
 864:C:/Users/stapi/OneDrive/Desktop/GD32VW553/V1_MQTT_OK/GD32VW55X_Wifi_BLE_SDK/GD32VW55x_RELEASE_V1.0.2/MSDK/wpa_supplicant/src/ap\ieee802_11_shared.c **** 		  hapd->conf->owe_transition_ssid_len);
 865:C:/Users/stapi/OneDrive/Desktop/GD32VW553/V1_MQTT_OK/GD32VW55X_Wifi_BLE_SDK/GD32VW55x_RELEASE_V1.0.2/MSDK/wpa_supplicant/src/ap\ieee802_11_shared.c **** 	pos += hapd->conf->owe_transition_ssid_len;
 866:C:/Users/stapi/OneDrive/Desktop/GD32VW553/V1_MQTT_OK/GD32VW55X_Wifi_BLE_SDK/GD32VW55x_RELEASE_V1.0.2/MSDK/wpa_supplicant/src/ap\ieee802_11_shared.c **** 
 867:C:/Users/stapi/OneDrive/Desktop/GD32VW553/V1_MQTT_OK/GD32VW55X_Wifi_BLE_SDK/GD32VW55x_RELEASE_V1.0.2/MSDK/wpa_supplicant/src/ap\ieee802_11_shared.c **** 	return pos;
 868:C:/Users/stapi/OneDrive/Desktop/GD32VW553/V1_MQTT_OK/GD32VW55X_Wifi_BLE_SDK/GD32VW55x_RELEASE_V1.0.2/MSDK/wpa_supplicant/src/ap\ieee802_11_shared.c **** #else /* CONFIG_OWE */
 869:C:/Users/stapi/OneDrive/Desktop/GD32VW553/V1_MQTT_OK/GD32VW55X_Wifi_BLE_SDK/GD32VW55x_RELEASE_V1.0.2/MSDK/wpa_supplicant/src/ap\ieee802_11_shared.c **** 	return eid;
 1824              		.loc 1 869 2
 870:C:/Users/stapi/OneDrive/Desktop/GD32VW553/V1_MQTT_OK/GD32VW55X_Wifi_BLE_SDK/GD32VW55x_RELEASE_V1.0.2/MSDK/wpa_supplicant/src/ap\ieee802_11_shared.c **** #endif /* CONFIG_OWE */
 871:C:/Users/stapi/OneDrive/Desktop/GD32VW553/V1_MQTT_OK/GD32VW55X_Wifi_BLE_SDK/GD32VW55x_RELEASE_V1.0.2/MSDK/wpa_supplicant/src/ap\ieee802_11_shared.c **** }
 1825              		.loc 1 871 1 is_stmt 0
 1826 0000 2E85     		mv	a0,a1
 1827              	.LVL161:
 1828 0002 8280     		ret
 1829              		.cfi_endproc
 1830              	.LFE182:
 1832              		.section	.text.hostapd_eid_dpp_cc_len,"ax",@progbits
 1833              		.align	1
 1834              		.globl	hostapd_eid_dpp_cc_len
 1836              	hostapd_eid_dpp_cc_len:
 1837              	.LFB198:
 1838              		.cfi_startproc
 1839 0000 0145     		li	a0,0
 1840 0002 8280     		ret
 1841              		.cfi_endproc
 1842              	.LFE198:
 1844              		.section	.text.hostapd_eid_dpp_cc,"ax",@progbits
 1845              		.align	1
 1846              		.globl	hostapd_eid_dpp_cc
 1848              	hostapd_eid_dpp_cc:
 1849              	.LFB196:
 1850              		.cfi_startproc
 1851 0000 2E85     		mv	a0,a1
 1852 0002 8280     		ret
 1853              		.cfi_endproc
 1854              	.LFE196:
 1856              		.section	.text.ap_copy_sta_supp_op_classes,"ax",@progbits
 1857              		.align	1
 1858              		.globl	ap_copy_sta_supp_op_classes
 1860              	ap_copy_sta_supp_op_classes:
 1861              	.LFB185:
 872:C:/Users/stapi/OneDrive/Desktop/GD32VW553/V1_MQTT_OK/GD32VW55X_Wifi_BLE_SDK/GD32VW55x_RELEASE_V1.0.2/MSDK/wpa_supplicant/src/ap\ieee802_11_shared.c **** 
 873:C:/Users/stapi/OneDrive/Desktop/GD32VW553/V1_MQTT_OK/GD32VW55X_Wifi_BLE_SDK/GD32VW55x_RELEASE_V1.0.2/MSDK/wpa_supplicant/src/ap\ieee802_11_shared.c **** 
 874:C:/Users/stapi/OneDrive/Desktop/GD32VW553/V1_MQTT_OK/GD32VW55X_Wifi_BLE_SDK/GD32VW55x_RELEASE_V1.0.2/MSDK/wpa_supplicant/src/ap\ieee802_11_shared.c **** size_t hostapd_eid_dpp_cc_len(struct hostapd_data *hapd)
 875:C:/Users/stapi/OneDrive/Desktop/GD32VW553/V1_MQTT_OK/GD32VW55X_Wifi_BLE_SDK/GD32VW55x_RELEASE_V1.0.2/MSDK/wpa_supplicant/src/ap\ieee802_11_shared.c **** {
 876:C:/Users/stapi/OneDrive/Desktop/GD32VW553/V1_MQTT_OK/GD32VW55X_Wifi_BLE_SDK/GD32VW55x_RELEASE_V1.0.2/MSDK/wpa_supplicant/src/ap\ieee802_11_shared.c **** #ifdef CONFIG_DPP2
 877:C:/Users/stapi/OneDrive/Desktop/GD32VW553/V1_MQTT_OK/GD32VW55X_Wifi_BLE_SDK/GD32VW55x_RELEASE_V1.0.2/MSDK/wpa_supplicant/src/ap\ieee802_11_shared.c **** 	if (hapd->conf->dpp_configurator_connectivity)
 878:C:/Users/stapi/OneDrive/Desktop/GD32VW553/V1_MQTT_OK/GD32VW55X_Wifi_BLE_SDK/GD32VW55x_RELEASE_V1.0.2/MSDK/wpa_supplicant/src/ap\ieee802_11_shared.c **** 		return 6;
 879:C:/Users/stapi/OneDrive/Desktop/GD32VW553/V1_MQTT_OK/GD32VW55X_Wifi_BLE_SDK/GD32VW55x_RELEASE_V1.0.2/MSDK/wpa_supplicant/src/ap\ieee802_11_shared.c **** #endif /* CONFIG_DPP2 */
 880:C:/Users/stapi/OneDrive/Desktop/GD32VW553/V1_MQTT_OK/GD32VW55X_Wifi_BLE_SDK/GD32VW55x_RELEASE_V1.0.2/MSDK/wpa_supplicant/src/ap\ieee802_11_shared.c **** 	return 0;
 881:C:/Users/stapi/OneDrive/Desktop/GD32VW553/V1_MQTT_OK/GD32VW55X_Wifi_BLE_SDK/GD32VW55x_RELEASE_V1.0.2/MSDK/wpa_supplicant/src/ap\ieee802_11_shared.c **** }
 882:C:/Users/stapi/OneDrive/Desktop/GD32VW553/V1_MQTT_OK/GD32VW55X_Wifi_BLE_SDK/GD32VW55x_RELEASE_V1.0.2/MSDK/wpa_supplicant/src/ap\ieee802_11_shared.c **** 
 883:C:/Users/stapi/OneDrive/Desktop/GD32VW553/V1_MQTT_OK/GD32VW55X_Wifi_BLE_SDK/GD32VW55x_RELEASE_V1.0.2/MSDK/wpa_supplicant/src/ap\ieee802_11_shared.c **** 
 884:C:/Users/stapi/OneDrive/Desktop/GD32VW553/V1_MQTT_OK/GD32VW55X_Wifi_BLE_SDK/GD32VW55x_RELEASE_V1.0.2/MSDK/wpa_supplicant/src/ap\ieee802_11_shared.c **** u8 * hostapd_eid_dpp_cc(struct hostapd_data *hapd, u8 *eid, size_t len)
 885:C:/Users/stapi/OneDrive/Desktop/GD32VW553/V1_MQTT_OK/GD32VW55X_Wifi_BLE_SDK/GD32VW55x_RELEASE_V1.0.2/MSDK/wpa_supplicant/src/ap\ieee802_11_shared.c **** {
 886:C:/Users/stapi/OneDrive/Desktop/GD32VW553/V1_MQTT_OK/GD32VW55X_Wifi_BLE_SDK/GD32VW55x_RELEASE_V1.0.2/MSDK/wpa_supplicant/src/ap\ieee802_11_shared.c **** 	u8 *pos = eid;
 887:C:/Users/stapi/OneDrive/Desktop/GD32VW553/V1_MQTT_OK/GD32VW55X_Wifi_BLE_SDK/GD32VW55x_RELEASE_V1.0.2/MSDK/wpa_supplicant/src/ap\ieee802_11_shared.c **** 
 888:C:/Users/stapi/OneDrive/Desktop/GD32VW553/V1_MQTT_OK/GD32VW55X_Wifi_BLE_SDK/GD32VW55x_RELEASE_V1.0.2/MSDK/wpa_supplicant/src/ap\ieee802_11_shared.c **** #ifdef CONFIG_DPP2
 889:C:/Users/stapi/OneDrive/Desktop/GD32VW553/V1_MQTT_OK/GD32VW55X_Wifi_BLE_SDK/GD32VW55x_RELEASE_V1.0.2/MSDK/wpa_supplicant/src/ap\ieee802_11_shared.c **** 	if (!hapd->conf->dpp_configurator_connectivity || len < 6)
 890:C:/Users/stapi/OneDrive/Desktop/GD32VW553/V1_MQTT_OK/GD32VW55X_Wifi_BLE_SDK/GD32VW55x_RELEASE_V1.0.2/MSDK/wpa_supplicant/src/ap\ieee802_11_shared.c **** 		return pos;
 891:C:/Users/stapi/OneDrive/Desktop/GD32VW553/V1_MQTT_OK/GD32VW55X_Wifi_BLE_SDK/GD32VW55x_RELEASE_V1.0.2/MSDK/wpa_supplicant/src/ap\ieee802_11_shared.c **** 
 892:C:/Users/stapi/OneDrive/Desktop/GD32VW553/V1_MQTT_OK/GD32VW55X_Wifi_BLE_SDK/GD32VW55x_RELEASE_V1.0.2/MSDK/wpa_supplicant/src/ap\ieee802_11_shared.c **** 	*pos++ = WLAN_EID_VENDOR_SPECIFIC;
 893:C:/Users/stapi/OneDrive/Desktop/GD32VW553/V1_MQTT_OK/GD32VW55X_Wifi_BLE_SDK/GD32VW55x_RELEASE_V1.0.2/MSDK/wpa_supplicant/src/ap\ieee802_11_shared.c **** 	*pos++ = 4;
 894:C:/Users/stapi/OneDrive/Desktop/GD32VW553/V1_MQTT_OK/GD32VW55X_Wifi_BLE_SDK/GD32VW55x_RELEASE_V1.0.2/MSDK/wpa_supplicant/src/ap\ieee802_11_shared.c **** 	WPA_PUT_BE24(pos, OUI_WFA);
 895:C:/Users/stapi/OneDrive/Desktop/GD32VW553/V1_MQTT_OK/GD32VW55X_Wifi_BLE_SDK/GD32VW55x_RELEASE_V1.0.2/MSDK/wpa_supplicant/src/ap\ieee802_11_shared.c **** 	pos += 3;
 896:C:/Users/stapi/OneDrive/Desktop/GD32VW553/V1_MQTT_OK/GD32VW55X_Wifi_BLE_SDK/GD32VW55x_RELEASE_V1.0.2/MSDK/wpa_supplicant/src/ap\ieee802_11_shared.c **** 	*pos++ = DPP_CC_OUI_TYPE;
 897:C:/Users/stapi/OneDrive/Desktop/GD32VW553/V1_MQTT_OK/GD32VW55X_Wifi_BLE_SDK/GD32VW55x_RELEASE_V1.0.2/MSDK/wpa_supplicant/src/ap\ieee802_11_shared.c **** #endif /* CONFIG_DPP2 */
 898:C:/Users/stapi/OneDrive/Desktop/GD32VW553/V1_MQTT_OK/GD32VW55X_Wifi_BLE_SDK/GD32VW55x_RELEASE_V1.0.2/MSDK/wpa_supplicant/src/ap\ieee802_11_shared.c **** 
 899:C:/Users/stapi/OneDrive/Desktop/GD32VW553/V1_MQTT_OK/GD32VW55X_Wifi_BLE_SDK/GD32VW55x_RELEASE_V1.0.2/MSDK/wpa_supplicant/src/ap\ieee802_11_shared.c **** 	return pos;
 900:C:/Users/stapi/OneDrive/Desktop/GD32VW553/V1_MQTT_OK/GD32VW55X_Wifi_BLE_SDK/GD32VW55x_RELEASE_V1.0.2/MSDK/wpa_supplicant/src/ap\ieee802_11_shared.c **** }
 901:C:/Users/stapi/OneDrive/Desktop/GD32VW553/V1_MQTT_OK/GD32VW55X_Wifi_BLE_SDK/GD32VW55x_RELEASE_V1.0.2/MSDK/wpa_supplicant/src/ap\ieee802_11_shared.c **** 
 902:C:/Users/stapi/OneDrive/Desktop/GD32VW553/V1_MQTT_OK/GD32VW55X_Wifi_BLE_SDK/GD32VW55x_RELEASE_V1.0.2/MSDK/wpa_supplicant/src/ap\ieee802_11_shared.c **** 
 903:C:/Users/stapi/OneDrive/Desktop/GD32VW553/V1_MQTT_OK/GD32VW55X_Wifi_BLE_SDK/GD32VW55x_RELEASE_V1.0.2/MSDK/wpa_supplicant/src/ap\ieee802_11_shared.c **** void ap_copy_sta_supp_op_classes(struct sta_info *sta,
 904:C:/Users/stapi/OneDrive/Desktop/GD32VW553/V1_MQTT_OK/GD32VW55X_Wifi_BLE_SDK/GD32VW55x_RELEASE_V1.0.2/MSDK/wpa_supplicant/src/ap\ieee802_11_shared.c **** 				 const u8 *supp_op_classes,
 905:C:/Users/stapi/OneDrive/Desktop/GD32VW553/V1_MQTT_OK/GD32VW55X_Wifi_BLE_SDK/GD32VW55x_RELEASE_V1.0.2/MSDK/wpa_supplicant/src/ap\ieee802_11_shared.c **** 				 size_t supp_op_classes_len)
 906:C:/Users/stapi/OneDrive/Desktop/GD32VW553/V1_MQTT_OK/GD32VW55X_Wifi_BLE_SDK/GD32VW55x_RELEASE_V1.0.2/MSDK/wpa_supplicant/src/ap\ieee802_11_shared.c **** {
 1862              		.loc 1 906 1 is_stmt 1
 1863              		.cfi_startproc
 1864              	.LVL162:
 1865              		.loc 1 906 1 is_stmt 0
 1866 0000 17030000 		call	t0,__riscv_save_2
 1866      E7020300 
 1867              		.cfi_offset 9, -12
 1868              		.cfi_offset 8, -8
 1869              		.cfi_offset 1, -4
 1870              		.cfi_def_cfa_offset 16
 907:C:/Users/stapi/OneDrive/Desktop/GD32VW553/V1_MQTT_OK/GD32VW55X_Wifi_BLE_SDK/GD32VW55x_RELEASE_V1.0.2/MSDK/wpa_supplicant/src/ap\ieee802_11_shared.c **** 	if (!supp_op_classes)
 1871              		.loc 1 907 2 is_stmt 1
 906:C:/Users/stapi/OneDrive/Desktop/GD32VW553/V1_MQTT_OK/GD32VW55X_Wifi_BLE_SDK/GD32VW55x_RELEASE_V1.0.2/MSDK/wpa_supplicant/src/ap\ieee802_11_shared.c **** 	if (!supp_op_classes)
 1872              		.loc 1 906 1 is_stmt 0
 1873 0008 4111     		addi	sp,sp,-16
 1874              		.cfi_def_cfa_offset 32
 1875              		.loc 1 907 5
 1876 000a 2EC6     		sw	a1,12(sp)
 1877 000c 8DCD     		beq	a1,zero,.L188
 1878 000e AA84     		mv	s1,a0
 908:C:/Users/stapi/OneDrive/Desktop/GD32VW553/V1_MQTT_OK/GD32VW55X_Wifi_BLE_SDK/GD32VW55x_RELEASE_V1.0.2/MSDK/wpa_supplicant/src/ap\ieee802_11_shared.c **** 		return;
 909:C:/Users/stapi/OneDrive/Desktop/GD32VW553/V1_MQTT_OK/GD32VW55X_Wifi_BLE_SDK/GD32VW55x_RELEASE_V1.0.2/MSDK/wpa_supplicant/src/ap\ieee802_11_shared.c **** 	os_free(sta->supp_op_classes);
 1879              		.loc 1 909 2
 1880 0010 03250513 		lw	a0,304(a0)
 1881              	.LVL163:
 1882 0014 3284     		mv	s0,a2
 1883              		.loc 1 909 2 is_stmt 1
 1884 0016 97000000 		call	os_free
 1884      E7800000 
 1885              	.LVL164:
 910:C:/Users/stapi/OneDrive/Desktop/GD32VW553/V1_MQTT_OK/GD32VW55X_Wifi_BLE_SDK/GD32VW55x_RELEASE_V1.0.2/MSDK/wpa_supplicant/src/ap\ieee802_11_shared.c **** 	sta->supp_op_classes = os_malloc(1 + supp_op_classes_len);
 1886              		.loc 1 910 2
 1887              		.loc 1 910 25 is_stmt 0
 1888 001e 13051400 		addi	a0,s0,1
 1889 0022 97000000 		call	os_malloc
 1889      E7800000 
 1890              	.LVL165:
 1891              		.loc 1 910 23
 1892 002a 23A8A412 		sw	a0,304(s1)
 911:C:/Users/stapi/OneDrive/Desktop/GD32VW553/V1_MQTT_OK/GD32VW55X_Wifi_BLE_SDK/GD32VW55x_RELEASE_V1.0.2/MSDK/wpa_supplicant/src/ap\ieee802_11_shared.c **** 	if (!sta->supp_op_classes)
 1893              		.loc 1 911 2 is_stmt 1
 1894              		.loc 1 911 5 is_stmt 0
 1895 002e 01CD     		beq	a0,zero,.L188
 912:C:/Users/stapi/OneDrive/Desktop/GD32VW553/V1_MQTT_OK/GD32VW55X_Wifi_BLE_SDK/GD32VW55x_RELEASE_V1.0.2/MSDK/wpa_supplicant/src/ap\ieee802_11_shared.c **** 		return;
 913:C:/Users/stapi/OneDrive/Desktop/GD32VW553/V1_MQTT_OK/GD32VW55X_Wifi_BLE_SDK/GD32VW55x_RELEASE_V1.0.2/MSDK/wpa_supplicant/src/ap\ieee802_11_shared.c **** 
 914:C:/Users/stapi/OneDrive/Desktop/GD32VW553/V1_MQTT_OK/GD32VW55X_Wifi_BLE_SDK/GD32VW55x_RELEASE_V1.0.2/MSDK/wpa_supplicant/src/ap\ieee802_11_shared.c **** 	sta->supp_op_classes[0] = supp_op_classes_len;
 1896              		.loc 1 914 2 is_stmt 1
 1897              		.loc 1 914 26 is_stmt 0
 1898 0030 23008500 		sb	s0,0(a0)
 915:C:/Users/stapi/OneDrive/Desktop/GD32VW553/V1_MQTT_OK/GD32VW55X_Wifi_BLE_SDK/GD32VW55x_RELEASE_V1.0.2/MSDK/wpa_supplicant/src/ap\ieee802_11_shared.c **** 	os_memcpy(sta->supp_op_classes + 1, supp_op_classes,
 1899              		.loc 1 915 2 is_stmt 1
 1900              		.loc 1 915 33 is_stmt 0
 1901 0034 03A50413 		lw	a0,304(s1)
 1902              		.loc 1 915 2
 1903 0038 B245     		lw	a1,12(sp)
 1904 003a 2286     		mv	a2,s0
 1905 003c 0505     		addi	a0,a0,1
 1906 003e 97000000 		call	os_memcpy
 1906      E7800000 
 1907              	.LVL166:
 1908              	.L188:
 916:C:/Users/stapi/OneDrive/Desktop/GD32VW553/V1_MQTT_OK/GD32VW55X_Wifi_BLE_SDK/GD32VW55x_RELEASE_V1.0.2/MSDK/wpa_supplicant/src/ap\ieee802_11_shared.c **** 		  supp_op_classes_len);
 917:C:/Users/stapi/OneDrive/Desktop/GD32VW553/V1_MQTT_OK/GD32VW55X_Wifi_BLE_SDK/GD32VW55x_RELEASE_V1.0.2/MSDK/wpa_supplicant/src/ap\ieee802_11_shared.c **** }
 1909              		.loc 1 917 1
 1910 0046 4101     		addi	sp,sp,16
 1911              		.cfi_def_cfa_offset 0
 1912              	.LVL167:
 1913 0048 17030000 		tail	__riscv_restore_2
 1913      67000300 
 1914              		.cfi_restore 9
 1915              		.cfi_restore 8
 1916              		.cfi_restore 1
 1917              		.cfi_def_cfa_offset -16
 1918              		.cfi_endproc
 1919              	.LFE185:
 1921              		.section	.text.hostapd_eid_fils_indic,"ax",@progbits
 1922              		.align	1
 1923              		.globl	hostapd_eid_fils_indic
 1925              	hostapd_eid_fils_indic:
 1926              	.LFB186:
 918:C:/Users/stapi/OneDrive/Desktop/GD32VW553/V1_MQTT_OK/GD32VW55X_Wifi_BLE_SDK/GD32VW55x_RELEASE_V1.0.2/MSDK/wpa_supplicant/src/ap\ieee802_11_shared.c **** 
 919:C:/Users/stapi/OneDrive/Desktop/GD32VW553/V1_MQTT_OK/GD32VW55X_Wifi_BLE_SDK/GD32VW55x_RELEASE_V1.0.2/MSDK/wpa_supplicant/src/ap\ieee802_11_shared.c **** 
 920:C:/Users/stapi/OneDrive/Desktop/GD32VW553/V1_MQTT_OK/GD32VW55X_Wifi_BLE_SDK/GD32VW55x_RELEASE_V1.0.2/MSDK/wpa_supplicant/src/ap\ieee802_11_shared.c **** u8 * hostapd_eid_fils_indic(struct hostapd_data *hapd, u8 *eid, int hessid)
 921:C:/Users/stapi/OneDrive/Desktop/GD32VW553/V1_MQTT_OK/GD32VW55X_Wifi_BLE_SDK/GD32VW55x_RELEASE_V1.0.2/MSDK/wpa_supplicant/src/ap\ieee802_11_shared.c **** {
 1927              		.loc 1 921 1 is_stmt 1
 1928              		.cfi_startproc
 1929              	.LVL168:
 922:C:/Users/stapi/OneDrive/Desktop/GD32VW553/V1_MQTT_OK/GD32VW55X_Wifi_BLE_SDK/GD32VW55x_RELEASE_V1.0.2/MSDK/wpa_supplicant/src/ap\ieee802_11_shared.c **** 	u8 *pos = eid;
 1930              		.loc 1 922 2
 923:C:/Users/stapi/OneDrive/Desktop/GD32VW553/V1_MQTT_OK/GD32VW55X_Wifi_BLE_SDK/GD32VW55x_RELEASE_V1.0.2/MSDK/wpa_supplicant/src/ap\ieee802_11_shared.c **** #ifdef CONFIG_FILS
 924:C:/Users/stapi/OneDrive/Desktop/GD32VW553/V1_MQTT_OK/GD32VW55X_Wifi_BLE_SDK/GD32VW55x_RELEASE_V1.0.2/MSDK/wpa_supplicant/src/ap\ieee802_11_shared.c **** 	u8 *len;
 925:C:/Users/stapi/OneDrive/Desktop/GD32VW553/V1_MQTT_OK/GD32VW55X_Wifi_BLE_SDK/GD32VW55x_RELEASE_V1.0.2/MSDK/wpa_supplicant/src/ap\ieee802_11_shared.c **** 	u16 fils_info = 0;
 926:C:/Users/stapi/OneDrive/Desktop/GD32VW553/V1_MQTT_OK/GD32VW55X_Wifi_BLE_SDK/GD32VW55x_RELEASE_V1.0.2/MSDK/wpa_supplicant/src/ap\ieee802_11_shared.c **** 	size_t realms;
 927:C:/Users/stapi/OneDrive/Desktop/GD32VW553/V1_MQTT_OK/GD32VW55X_Wifi_BLE_SDK/GD32VW55x_RELEASE_V1.0.2/MSDK/wpa_supplicant/src/ap\ieee802_11_shared.c **** 	struct fils_realm *realm;
 928:C:/Users/stapi/OneDrive/Desktop/GD32VW553/V1_MQTT_OK/GD32VW55X_Wifi_BLE_SDK/GD32VW55x_RELEASE_V1.0.2/MSDK/wpa_supplicant/src/ap\ieee802_11_shared.c **** 
 929:C:/Users/stapi/OneDrive/Desktop/GD32VW553/V1_MQTT_OK/GD32VW55X_Wifi_BLE_SDK/GD32VW55x_RELEASE_V1.0.2/MSDK/wpa_supplicant/src/ap\ieee802_11_shared.c **** 	if (!(hapd->conf->wpa & WPA_PROTO_RSN) ||
 930:C:/Users/stapi/OneDrive/Desktop/GD32VW553/V1_MQTT_OK/GD32VW55X_Wifi_BLE_SDK/GD32VW55x_RELEASE_V1.0.2/MSDK/wpa_supplicant/src/ap\ieee802_11_shared.c **** 	    !wpa_key_mgmt_fils(hapd->conf->wpa_key_mgmt))
 931:C:/Users/stapi/OneDrive/Desktop/GD32VW553/V1_MQTT_OK/GD32VW55X_Wifi_BLE_SDK/GD32VW55x_RELEASE_V1.0.2/MSDK/wpa_supplicant/src/ap\ieee802_11_shared.c **** 		return pos;
 932:C:/Users/stapi/OneDrive/Desktop/GD32VW553/V1_MQTT_OK/GD32VW55X_Wifi_BLE_SDK/GD32VW55x_RELEASE_V1.0.2/MSDK/wpa_supplicant/src/ap\ieee802_11_shared.c **** 
 933:C:/Users/stapi/OneDrive/Desktop/GD32VW553/V1_MQTT_OK/GD32VW55X_Wifi_BLE_SDK/GD32VW55x_RELEASE_V1.0.2/MSDK/wpa_supplicant/src/ap\ieee802_11_shared.c **** 	realms = dl_list_len(&hapd->conf->fils_realms);
 934:C:/Users/stapi/OneDrive/Desktop/GD32VW553/V1_MQTT_OK/GD32VW55X_Wifi_BLE_SDK/GD32VW55x_RELEASE_V1.0.2/MSDK/wpa_supplicant/src/ap\ieee802_11_shared.c **** 	if (realms > 7)
 935:C:/Users/stapi/OneDrive/Desktop/GD32VW553/V1_MQTT_OK/GD32VW55X_Wifi_BLE_SDK/GD32VW55x_RELEASE_V1.0.2/MSDK/wpa_supplicant/src/ap\ieee802_11_shared.c **** 		realms = 7; /* 3 bit count field limits this to max 7 */
 936:C:/Users/stapi/OneDrive/Desktop/GD32VW553/V1_MQTT_OK/GD32VW55X_Wifi_BLE_SDK/GD32VW55x_RELEASE_V1.0.2/MSDK/wpa_supplicant/src/ap\ieee802_11_shared.c **** 
 937:C:/Users/stapi/OneDrive/Desktop/GD32VW553/V1_MQTT_OK/GD32VW55X_Wifi_BLE_SDK/GD32VW55x_RELEASE_V1.0.2/MSDK/wpa_supplicant/src/ap\ieee802_11_shared.c **** 	*pos++ = WLAN_EID_FILS_INDICATION;
 938:C:/Users/stapi/OneDrive/Desktop/GD32VW553/V1_MQTT_OK/GD32VW55X_Wifi_BLE_SDK/GD32VW55x_RELEASE_V1.0.2/MSDK/wpa_supplicant/src/ap\ieee802_11_shared.c **** 	len = pos++;
 939:C:/Users/stapi/OneDrive/Desktop/GD32VW553/V1_MQTT_OK/GD32VW55X_Wifi_BLE_SDK/GD32VW55x_RELEASE_V1.0.2/MSDK/wpa_supplicant/src/ap\ieee802_11_shared.c **** 	/* TODO: B0..B2: Number of Public Key Identifiers */
 940:C:/Users/stapi/OneDrive/Desktop/GD32VW553/V1_MQTT_OK/GD32VW55X_Wifi_BLE_SDK/GD32VW55x_RELEASE_V1.0.2/MSDK/wpa_supplicant/src/ap\ieee802_11_shared.c **** 	if (hapd->conf->erp_domain) {
 941:C:/Users/stapi/OneDrive/Desktop/GD32VW553/V1_MQTT_OK/GD32VW55X_Wifi_BLE_SDK/GD32VW55x_RELEASE_V1.0.2/MSDK/wpa_supplicant/src/ap\ieee802_11_shared.c **** 		/* B3..B5: Number of Realm Identifiers */
 942:C:/Users/stapi/OneDrive/Desktop/GD32VW553/V1_MQTT_OK/GD32VW55X_Wifi_BLE_SDK/GD32VW55x_RELEASE_V1.0.2/MSDK/wpa_supplicant/src/ap\ieee802_11_shared.c **** 		fils_info |= realms << 3;
 943:C:/Users/stapi/OneDrive/Desktop/GD32VW553/V1_MQTT_OK/GD32VW55X_Wifi_BLE_SDK/GD32VW55x_RELEASE_V1.0.2/MSDK/wpa_supplicant/src/ap\ieee802_11_shared.c **** 	}
 944:C:/Users/stapi/OneDrive/Desktop/GD32VW553/V1_MQTT_OK/GD32VW55X_Wifi_BLE_SDK/GD32VW55x_RELEASE_V1.0.2/MSDK/wpa_supplicant/src/ap\ieee802_11_shared.c **** 	/* TODO: B6: FILS IP Address Configuration */
 945:C:/Users/stapi/OneDrive/Desktop/GD32VW553/V1_MQTT_OK/GD32VW55X_Wifi_BLE_SDK/GD32VW55x_RELEASE_V1.0.2/MSDK/wpa_supplicant/src/ap\ieee802_11_shared.c **** 	if (hapd->conf->fils_cache_id_set)
 946:C:/Users/stapi/OneDrive/Desktop/GD32VW553/V1_MQTT_OK/GD32VW55X_Wifi_BLE_SDK/GD32VW55x_RELEASE_V1.0.2/MSDK/wpa_supplicant/src/ap\ieee802_11_shared.c **** 		fils_info |= BIT(7);
 947:C:/Users/stapi/OneDrive/Desktop/GD32VW553/V1_MQTT_OK/GD32VW55X_Wifi_BLE_SDK/GD32VW55x_RELEASE_V1.0.2/MSDK/wpa_supplicant/src/ap\ieee802_11_shared.c **** 	if (hessid && !is_zero_ether_addr(hapd->conf->hessid))
 948:C:/Users/stapi/OneDrive/Desktop/GD32VW553/V1_MQTT_OK/GD32VW55X_Wifi_BLE_SDK/GD32VW55x_RELEASE_V1.0.2/MSDK/wpa_supplicant/src/ap\ieee802_11_shared.c **** 		fils_info |= BIT(8); /* HESSID Included */
 949:C:/Users/stapi/OneDrive/Desktop/GD32VW553/V1_MQTT_OK/GD32VW55X_Wifi_BLE_SDK/GD32VW55x_RELEASE_V1.0.2/MSDK/wpa_supplicant/src/ap\ieee802_11_shared.c **** 	/* FILS Shared Key Authentication without PFS Supported */
 950:C:/Users/stapi/OneDrive/Desktop/GD32VW553/V1_MQTT_OK/GD32VW55X_Wifi_BLE_SDK/GD32VW55x_RELEASE_V1.0.2/MSDK/wpa_supplicant/src/ap\ieee802_11_shared.c **** 	fils_info |= BIT(9);
 951:C:/Users/stapi/OneDrive/Desktop/GD32VW553/V1_MQTT_OK/GD32VW55X_Wifi_BLE_SDK/GD32VW55x_RELEASE_V1.0.2/MSDK/wpa_supplicant/src/ap\ieee802_11_shared.c **** 	if (hapd->conf->fils_dh_group) {
 952:C:/Users/stapi/OneDrive/Desktop/GD32VW553/V1_MQTT_OK/GD32VW55X_Wifi_BLE_SDK/GD32VW55x_RELEASE_V1.0.2/MSDK/wpa_supplicant/src/ap\ieee802_11_shared.c **** 		/* FILS Shared Key Authentication with PFS Supported */
 953:C:/Users/stapi/OneDrive/Desktop/GD32VW553/V1_MQTT_OK/GD32VW55X_Wifi_BLE_SDK/GD32VW55x_RELEASE_V1.0.2/MSDK/wpa_supplicant/src/ap\ieee802_11_shared.c **** 		fils_info |= BIT(10);
 954:C:/Users/stapi/OneDrive/Desktop/GD32VW553/V1_MQTT_OK/GD32VW55X_Wifi_BLE_SDK/GD32VW55x_RELEASE_V1.0.2/MSDK/wpa_supplicant/src/ap\ieee802_11_shared.c **** 	}
 955:C:/Users/stapi/OneDrive/Desktop/GD32VW553/V1_MQTT_OK/GD32VW55X_Wifi_BLE_SDK/GD32VW55x_RELEASE_V1.0.2/MSDK/wpa_supplicant/src/ap\ieee802_11_shared.c **** 	/* TODO: B11: FILS Public Key Authentication Supported */
 956:C:/Users/stapi/OneDrive/Desktop/GD32VW553/V1_MQTT_OK/GD32VW55X_Wifi_BLE_SDK/GD32VW55x_RELEASE_V1.0.2/MSDK/wpa_supplicant/src/ap\ieee802_11_shared.c **** 	/* B12..B15: Reserved */
 957:C:/Users/stapi/OneDrive/Desktop/GD32VW553/V1_MQTT_OK/GD32VW55X_Wifi_BLE_SDK/GD32VW55x_RELEASE_V1.0.2/MSDK/wpa_supplicant/src/ap\ieee802_11_shared.c **** 	WPA_PUT_LE16(pos, fils_info);
 958:C:/Users/stapi/OneDrive/Desktop/GD32VW553/V1_MQTT_OK/GD32VW55X_Wifi_BLE_SDK/GD32VW55x_RELEASE_V1.0.2/MSDK/wpa_supplicant/src/ap\ieee802_11_shared.c **** 	pos += 2;
 959:C:/Users/stapi/OneDrive/Desktop/GD32VW553/V1_MQTT_OK/GD32VW55X_Wifi_BLE_SDK/GD32VW55x_RELEASE_V1.0.2/MSDK/wpa_supplicant/src/ap\ieee802_11_shared.c **** 	if (hapd->conf->fils_cache_id_set) {
 960:C:/Users/stapi/OneDrive/Desktop/GD32VW553/V1_MQTT_OK/GD32VW55X_Wifi_BLE_SDK/GD32VW55x_RELEASE_V1.0.2/MSDK/wpa_supplicant/src/ap\ieee802_11_shared.c **** 		os_memcpy(pos, hapd->conf->fils_cache_id, FILS_CACHE_ID_LEN);
 961:C:/Users/stapi/OneDrive/Desktop/GD32VW553/V1_MQTT_OK/GD32VW55X_Wifi_BLE_SDK/GD32VW55x_RELEASE_V1.0.2/MSDK/wpa_supplicant/src/ap\ieee802_11_shared.c **** 		pos += FILS_CACHE_ID_LEN;
 962:C:/Users/stapi/OneDrive/Desktop/GD32VW553/V1_MQTT_OK/GD32VW55X_Wifi_BLE_SDK/GD32VW55x_RELEASE_V1.0.2/MSDK/wpa_supplicant/src/ap\ieee802_11_shared.c **** 	}
 963:C:/Users/stapi/OneDrive/Desktop/GD32VW553/V1_MQTT_OK/GD32VW55X_Wifi_BLE_SDK/GD32VW55x_RELEASE_V1.0.2/MSDK/wpa_supplicant/src/ap\ieee802_11_shared.c **** 	if (hessid && !is_zero_ether_addr(hapd->conf->hessid)) {
 964:C:/Users/stapi/OneDrive/Desktop/GD32VW553/V1_MQTT_OK/GD32VW55X_Wifi_BLE_SDK/GD32VW55x_RELEASE_V1.0.2/MSDK/wpa_supplicant/src/ap\ieee802_11_shared.c **** 		os_memcpy(pos, hapd->conf->hessid, ETH_ALEN);
 965:C:/Users/stapi/OneDrive/Desktop/GD32VW553/V1_MQTT_OK/GD32VW55X_Wifi_BLE_SDK/GD32VW55x_RELEASE_V1.0.2/MSDK/wpa_supplicant/src/ap\ieee802_11_shared.c **** 		pos += ETH_ALEN;
 966:C:/Users/stapi/OneDrive/Desktop/GD32VW553/V1_MQTT_OK/GD32VW55X_Wifi_BLE_SDK/GD32VW55x_RELEASE_V1.0.2/MSDK/wpa_supplicant/src/ap\ieee802_11_shared.c **** 	}
 967:C:/Users/stapi/OneDrive/Desktop/GD32VW553/V1_MQTT_OK/GD32VW55X_Wifi_BLE_SDK/GD32VW55x_RELEASE_V1.0.2/MSDK/wpa_supplicant/src/ap\ieee802_11_shared.c **** 
 968:C:/Users/stapi/OneDrive/Desktop/GD32VW553/V1_MQTT_OK/GD32VW55X_Wifi_BLE_SDK/GD32VW55x_RELEASE_V1.0.2/MSDK/wpa_supplicant/src/ap\ieee802_11_shared.c **** 	dl_list_for_each(realm, &hapd->conf->fils_realms, struct fils_realm,
 969:C:/Users/stapi/OneDrive/Desktop/GD32VW553/V1_MQTT_OK/GD32VW55X_Wifi_BLE_SDK/GD32VW55x_RELEASE_V1.0.2/MSDK/wpa_supplicant/src/ap\ieee802_11_shared.c **** 			 list) {
 970:C:/Users/stapi/OneDrive/Desktop/GD32VW553/V1_MQTT_OK/GD32VW55X_Wifi_BLE_SDK/GD32VW55x_RELEASE_V1.0.2/MSDK/wpa_supplicant/src/ap\ieee802_11_shared.c **** 		if (realms == 0)
 971:C:/Users/stapi/OneDrive/Desktop/GD32VW553/V1_MQTT_OK/GD32VW55X_Wifi_BLE_SDK/GD32VW55x_RELEASE_V1.0.2/MSDK/wpa_supplicant/src/ap\ieee802_11_shared.c **** 			break;
 972:C:/Users/stapi/OneDrive/Desktop/GD32VW553/V1_MQTT_OK/GD32VW55X_Wifi_BLE_SDK/GD32VW55x_RELEASE_V1.0.2/MSDK/wpa_supplicant/src/ap\ieee802_11_shared.c **** 		realms--;
 973:C:/Users/stapi/OneDrive/Desktop/GD32VW553/V1_MQTT_OK/GD32VW55X_Wifi_BLE_SDK/GD32VW55x_RELEASE_V1.0.2/MSDK/wpa_supplicant/src/ap\ieee802_11_shared.c **** 		os_memcpy(pos, realm->hash, 2);
 974:C:/Users/stapi/OneDrive/Desktop/GD32VW553/V1_MQTT_OK/GD32VW55X_Wifi_BLE_SDK/GD32VW55x_RELEASE_V1.0.2/MSDK/wpa_supplicant/src/ap\ieee802_11_shared.c **** 		pos += 2;
 975:C:/Users/stapi/OneDrive/Desktop/GD32VW553/V1_MQTT_OK/GD32VW55X_Wifi_BLE_SDK/GD32VW55x_RELEASE_V1.0.2/MSDK/wpa_supplicant/src/ap\ieee802_11_shared.c **** 	}
 976:C:/Users/stapi/OneDrive/Desktop/GD32VW553/V1_MQTT_OK/GD32VW55X_Wifi_BLE_SDK/GD32VW55x_RELEASE_V1.0.2/MSDK/wpa_supplicant/src/ap\ieee802_11_shared.c **** 	*len = pos - len - 1;
 977:C:/Users/stapi/OneDrive/Desktop/GD32VW553/V1_MQTT_OK/GD32VW55X_Wifi_BLE_SDK/GD32VW55x_RELEASE_V1.0.2/MSDK/wpa_supplicant/src/ap\ieee802_11_shared.c **** #endif /* CONFIG_FILS */
 978:C:/Users/stapi/OneDrive/Desktop/GD32VW553/V1_MQTT_OK/GD32VW55X_Wifi_BLE_SDK/GD32VW55x_RELEASE_V1.0.2/MSDK/wpa_supplicant/src/ap\ieee802_11_shared.c **** 
 979:C:/Users/stapi/OneDrive/Desktop/GD32VW553/V1_MQTT_OK/GD32VW55X_Wifi_BLE_SDK/GD32VW55x_RELEASE_V1.0.2/MSDK/wpa_supplicant/src/ap\ieee802_11_shared.c **** 	return pos;
 1931              		.loc 1 979 2
 980:C:/Users/stapi/OneDrive/Desktop/GD32VW553/V1_MQTT_OK/GD32VW55X_Wifi_BLE_SDK/GD32VW55x_RELEASE_V1.0.2/MSDK/wpa_supplicant/src/ap\ieee802_11_shared.c **** }
 1932              		.loc 1 980 1 is_stmt 0
 1933 0000 2E85     		mv	a0,a1
 1934              	.LVL169:
 1935 0002 8280     		ret
 1936              		.cfi_endproc
 1937              	.LFE186:
 1939              		.section	.text.hostapd_eid_rsnxe,"ax",@progbits
 1940              		.align	1
 1941              		.globl	hostapd_eid_rsnxe
 1943              	hostapd_eid_rsnxe:
 1944              	.LFB187:
 981:C:/Users/stapi/OneDrive/Desktop/GD32VW553/V1_MQTT_OK/GD32VW55X_Wifi_BLE_SDK/GD32VW55x_RELEASE_V1.0.2/MSDK/wpa_supplicant/src/ap\ieee802_11_shared.c **** 
 982:C:/Users/stapi/OneDrive/Desktop/GD32VW553/V1_MQTT_OK/GD32VW55X_Wifi_BLE_SDK/GD32VW55x_RELEASE_V1.0.2/MSDK/wpa_supplicant/src/ap\ieee802_11_shared.c **** 
 983:C:/Users/stapi/OneDrive/Desktop/GD32VW553/V1_MQTT_OK/GD32VW55X_Wifi_BLE_SDK/GD32VW55x_RELEASE_V1.0.2/MSDK/wpa_supplicant/src/ap\ieee802_11_shared.c **** #ifdef CONFIG_OCV
 984:C:/Users/stapi/OneDrive/Desktop/GD32VW553/V1_MQTT_OK/GD32VW55X_Wifi_BLE_SDK/GD32VW55x_RELEASE_V1.0.2/MSDK/wpa_supplicant/src/ap\ieee802_11_shared.c **** int get_tx_parameters(struct sta_info *sta, int ap_max_chanwidth,
 985:C:/Users/stapi/OneDrive/Desktop/GD32VW553/V1_MQTT_OK/GD32VW55X_Wifi_BLE_SDK/GD32VW55x_RELEASE_V1.0.2/MSDK/wpa_supplicant/src/ap\ieee802_11_shared.c **** 		      int ap_seg1_idx, int *bandwidth, int *seg1_idx)
 986:C:/Users/stapi/OneDrive/Desktop/GD32VW553/V1_MQTT_OK/GD32VW55X_Wifi_BLE_SDK/GD32VW55x_RELEASE_V1.0.2/MSDK/wpa_supplicant/src/ap\ieee802_11_shared.c **** {
 987:C:/Users/stapi/OneDrive/Desktop/GD32VW553/V1_MQTT_OK/GD32VW55X_Wifi_BLE_SDK/GD32VW55x_RELEASE_V1.0.2/MSDK/wpa_supplicant/src/ap\ieee802_11_shared.c **** 	int ht_40mhz = 0;
 988:C:/Users/stapi/OneDrive/Desktop/GD32VW553/V1_MQTT_OK/GD32VW55X_Wifi_BLE_SDK/GD32VW55x_RELEASE_V1.0.2/MSDK/wpa_supplicant/src/ap\ieee802_11_shared.c **** 	int vht_80p80 = 0;
 989:C:/Users/stapi/OneDrive/Desktop/GD32VW553/V1_MQTT_OK/GD32VW55X_Wifi_BLE_SDK/GD32VW55x_RELEASE_V1.0.2/MSDK/wpa_supplicant/src/ap\ieee802_11_shared.c **** 	int requested_bw;
 990:C:/Users/stapi/OneDrive/Desktop/GD32VW553/V1_MQTT_OK/GD32VW55X_Wifi_BLE_SDK/GD32VW55x_RELEASE_V1.0.2/MSDK/wpa_supplicant/src/ap\ieee802_11_shared.c **** 
 991:C:/Users/stapi/OneDrive/Desktop/GD32VW553/V1_MQTT_OK/GD32VW55X_Wifi_BLE_SDK/GD32VW55x_RELEASE_V1.0.2/MSDK/wpa_supplicant/src/ap\ieee802_11_shared.c **** 	if (sta->ht_capabilities)
 992:C:/Users/stapi/OneDrive/Desktop/GD32VW553/V1_MQTT_OK/GD32VW55X_Wifi_BLE_SDK/GD32VW55x_RELEASE_V1.0.2/MSDK/wpa_supplicant/src/ap\ieee802_11_shared.c **** 		ht_40mhz = !!(sta->ht_capabilities->ht_capabilities_info &
 993:C:/Users/stapi/OneDrive/Desktop/GD32VW553/V1_MQTT_OK/GD32VW55X_Wifi_BLE_SDK/GD32VW55x_RELEASE_V1.0.2/MSDK/wpa_supplicant/src/ap\ieee802_11_shared.c **** 			      HT_CAP_INFO_SUPP_CHANNEL_WIDTH_SET);
 994:C:/Users/stapi/OneDrive/Desktop/GD32VW553/V1_MQTT_OK/GD32VW55X_Wifi_BLE_SDK/GD32VW55x_RELEASE_V1.0.2/MSDK/wpa_supplicant/src/ap\ieee802_11_shared.c **** 
 995:C:/Users/stapi/OneDrive/Desktop/GD32VW553/V1_MQTT_OK/GD32VW55X_Wifi_BLE_SDK/GD32VW55x_RELEASE_V1.0.2/MSDK/wpa_supplicant/src/ap\ieee802_11_shared.c **** 	if (sta->vht_operation) {
 996:C:/Users/stapi/OneDrive/Desktop/GD32VW553/V1_MQTT_OK/GD32VW55X_Wifi_BLE_SDK/GD32VW55x_RELEASE_V1.0.2/MSDK/wpa_supplicant/src/ap\ieee802_11_shared.c **** 		struct ieee80211_vht_operation *oper = sta->vht_operation;
 997:C:/Users/stapi/OneDrive/Desktop/GD32VW553/V1_MQTT_OK/GD32VW55X_Wifi_BLE_SDK/GD32VW55x_RELEASE_V1.0.2/MSDK/wpa_supplicant/src/ap\ieee802_11_shared.c **** 
 998:C:/Users/stapi/OneDrive/Desktop/GD32VW553/V1_MQTT_OK/GD32VW55X_Wifi_BLE_SDK/GD32VW55x_RELEASE_V1.0.2/MSDK/wpa_supplicant/src/ap\ieee802_11_shared.c **** 		/*
 999:C:/Users/stapi/OneDrive/Desktop/GD32VW553/V1_MQTT_OK/GD32VW55X_Wifi_BLE_SDK/GD32VW55x_RELEASE_V1.0.2/MSDK/wpa_supplicant/src/ap\ieee802_11_shared.c **** 		 * If a VHT Operation element was present, use it to determine
1000:C:/Users/stapi/OneDrive/Desktop/GD32VW553/V1_MQTT_OK/GD32VW55X_Wifi_BLE_SDK/GD32VW55x_RELEASE_V1.0.2/MSDK/wpa_supplicant/src/ap\ieee802_11_shared.c **** 		 * the supported channel bandwidth.
1001:C:/Users/stapi/OneDrive/Desktop/GD32VW553/V1_MQTT_OK/GD32VW55X_Wifi_BLE_SDK/GD32VW55x_RELEASE_V1.0.2/MSDK/wpa_supplicant/src/ap\ieee802_11_shared.c **** 		 */
1002:C:/Users/stapi/OneDrive/Desktop/GD32VW553/V1_MQTT_OK/GD32VW55X_Wifi_BLE_SDK/GD32VW55x_RELEASE_V1.0.2/MSDK/wpa_supplicant/src/ap\ieee802_11_shared.c **** 		if (oper->vht_op_info_chwidth == 0) {
1003:C:/Users/stapi/OneDrive/Desktop/GD32VW553/V1_MQTT_OK/GD32VW55X_Wifi_BLE_SDK/GD32VW55x_RELEASE_V1.0.2/MSDK/wpa_supplicant/src/ap\ieee802_11_shared.c **** 			requested_bw = ht_40mhz ? 40 : 20;
1004:C:/Users/stapi/OneDrive/Desktop/GD32VW553/V1_MQTT_OK/GD32VW55X_Wifi_BLE_SDK/GD32VW55x_RELEASE_V1.0.2/MSDK/wpa_supplicant/src/ap\ieee802_11_shared.c **** 		} else if (oper->vht_op_info_chan_center_freq_seg1_idx == 0) {
1005:C:/Users/stapi/OneDrive/Desktop/GD32VW553/V1_MQTT_OK/GD32VW55X_Wifi_BLE_SDK/GD32VW55x_RELEASE_V1.0.2/MSDK/wpa_supplicant/src/ap\ieee802_11_shared.c **** 			requested_bw = 80;
1006:C:/Users/stapi/OneDrive/Desktop/GD32VW553/V1_MQTT_OK/GD32VW55X_Wifi_BLE_SDK/GD32VW55x_RELEASE_V1.0.2/MSDK/wpa_supplicant/src/ap\ieee802_11_shared.c **** 		} else {
1007:C:/Users/stapi/OneDrive/Desktop/GD32VW553/V1_MQTT_OK/GD32VW55X_Wifi_BLE_SDK/GD32VW55x_RELEASE_V1.0.2/MSDK/wpa_supplicant/src/ap\ieee802_11_shared.c **** 			int diff;
1008:C:/Users/stapi/OneDrive/Desktop/GD32VW553/V1_MQTT_OK/GD32VW55X_Wifi_BLE_SDK/GD32VW55x_RELEASE_V1.0.2/MSDK/wpa_supplicant/src/ap\ieee802_11_shared.c **** 
1009:C:/Users/stapi/OneDrive/Desktop/GD32VW553/V1_MQTT_OK/GD32VW55X_Wifi_BLE_SDK/GD32VW55x_RELEASE_V1.0.2/MSDK/wpa_supplicant/src/ap\ieee802_11_shared.c **** 			requested_bw = 160;
1010:C:/Users/stapi/OneDrive/Desktop/GD32VW553/V1_MQTT_OK/GD32VW55X_Wifi_BLE_SDK/GD32VW55x_RELEASE_V1.0.2/MSDK/wpa_supplicant/src/ap\ieee802_11_shared.c **** 			diff = abs((int)
1011:C:/Users/stapi/OneDrive/Desktop/GD32VW553/V1_MQTT_OK/GD32VW55X_Wifi_BLE_SDK/GD32VW55x_RELEASE_V1.0.2/MSDK/wpa_supplicant/src/ap\ieee802_11_shared.c **** 				   oper->vht_op_info_chan_center_freq_seg0_idx -
1012:C:/Users/stapi/OneDrive/Desktop/GD32VW553/V1_MQTT_OK/GD32VW55X_Wifi_BLE_SDK/GD32VW55x_RELEASE_V1.0.2/MSDK/wpa_supplicant/src/ap\ieee802_11_shared.c **** 				   (int)
1013:C:/Users/stapi/OneDrive/Desktop/GD32VW553/V1_MQTT_OK/GD32VW55X_Wifi_BLE_SDK/GD32VW55x_RELEASE_V1.0.2/MSDK/wpa_supplicant/src/ap\ieee802_11_shared.c **** 				   oper->vht_op_info_chan_center_freq_seg1_idx);
1014:C:/Users/stapi/OneDrive/Desktop/GD32VW553/V1_MQTT_OK/GD32VW55X_Wifi_BLE_SDK/GD32VW55x_RELEASE_V1.0.2/MSDK/wpa_supplicant/src/ap\ieee802_11_shared.c **** 			vht_80p80 = oper->vht_op_info_chan_center_freq_seg1_idx
1015:C:/Users/stapi/OneDrive/Desktop/GD32VW553/V1_MQTT_OK/GD32VW55X_Wifi_BLE_SDK/GD32VW55x_RELEASE_V1.0.2/MSDK/wpa_supplicant/src/ap\ieee802_11_shared.c **** 				!= 0 &&	diff > 16;
1016:C:/Users/stapi/OneDrive/Desktop/GD32VW553/V1_MQTT_OK/GD32VW55X_Wifi_BLE_SDK/GD32VW55x_RELEASE_V1.0.2/MSDK/wpa_supplicant/src/ap\ieee802_11_shared.c **** 		}
1017:C:/Users/stapi/OneDrive/Desktop/GD32VW553/V1_MQTT_OK/GD32VW55X_Wifi_BLE_SDK/GD32VW55x_RELEASE_V1.0.2/MSDK/wpa_supplicant/src/ap\ieee802_11_shared.c **** 	} else if (sta->vht_capabilities) {
1018:C:/Users/stapi/OneDrive/Desktop/GD32VW553/V1_MQTT_OK/GD32VW55X_Wifi_BLE_SDK/GD32VW55x_RELEASE_V1.0.2/MSDK/wpa_supplicant/src/ap\ieee802_11_shared.c **** 		struct ieee80211_vht_capabilities *capab;
1019:C:/Users/stapi/OneDrive/Desktop/GD32VW553/V1_MQTT_OK/GD32VW55X_Wifi_BLE_SDK/GD32VW55x_RELEASE_V1.0.2/MSDK/wpa_supplicant/src/ap\ieee802_11_shared.c **** 		int vht_chanwidth;
1020:C:/Users/stapi/OneDrive/Desktop/GD32VW553/V1_MQTT_OK/GD32VW55X_Wifi_BLE_SDK/GD32VW55x_RELEASE_V1.0.2/MSDK/wpa_supplicant/src/ap\ieee802_11_shared.c **** 
1021:C:/Users/stapi/OneDrive/Desktop/GD32VW553/V1_MQTT_OK/GD32VW55X_Wifi_BLE_SDK/GD32VW55x_RELEASE_V1.0.2/MSDK/wpa_supplicant/src/ap\ieee802_11_shared.c **** 		capab = sta->vht_capabilities;
1022:C:/Users/stapi/OneDrive/Desktop/GD32VW553/V1_MQTT_OK/GD32VW55X_Wifi_BLE_SDK/GD32VW55x_RELEASE_V1.0.2/MSDK/wpa_supplicant/src/ap\ieee802_11_shared.c **** 
1023:C:/Users/stapi/OneDrive/Desktop/GD32VW553/V1_MQTT_OK/GD32VW55X_Wifi_BLE_SDK/GD32VW55x_RELEASE_V1.0.2/MSDK/wpa_supplicant/src/ap\ieee802_11_shared.c **** 		/*
1024:C:/Users/stapi/OneDrive/Desktop/GD32VW553/V1_MQTT_OK/GD32VW55X_Wifi_BLE_SDK/GD32VW55x_RELEASE_V1.0.2/MSDK/wpa_supplicant/src/ap\ieee802_11_shared.c **** 		 * If only the VHT Capabilities element is present (e.g., for
1025:C:/Users/stapi/OneDrive/Desktop/GD32VW553/V1_MQTT_OK/GD32VW55X_Wifi_BLE_SDK/GD32VW55x_RELEASE_V1.0.2/MSDK/wpa_supplicant/src/ap\ieee802_11_shared.c **** 		 * normal clients), use it to determine the supported channel
1026:C:/Users/stapi/OneDrive/Desktop/GD32VW553/V1_MQTT_OK/GD32VW55X_Wifi_BLE_SDK/GD32VW55x_RELEASE_V1.0.2/MSDK/wpa_supplicant/src/ap\ieee802_11_shared.c **** 		 * bandwidth.
1027:C:/Users/stapi/OneDrive/Desktop/GD32VW553/V1_MQTT_OK/GD32VW55X_Wifi_BLE_SDK/GD32VW55x_RELEASE_V1.0.2/MSDK/wpa_supplicant/src/ap\ieee802_11_shared.c **** 		 */
1028:C:/Users/stapi/OneDrive/Desktop/GD32VW553/V1_MQTT_OK/GD32VW55X_Wifi_BLE_SDK/GD32VW55x_RELEASE_V1.0.2/MSDK/wpa_supplicant/src/ap\ieee802_11_shared.c **** 		vht_chanwidth = capab->vht_capabilities_info &
1029:C:/Users/stapi/OneDrive/Desktop/GD32VW553/V1_MQTT_OK/GD32VW55X_Wifi_BLE_SDK/GD32VW55x_RELEASE_V1.0.2/MSDK/wpa_supplicant/src/ap\ieee802_11_shared.c **** 			VHT_CAP_SUPP_CHAN_WIDTH_MASK;
1030:C:/Users/stapi/OneDrive/Desktop/GD32VW553/V1_MQTT_OK/GD32VW55X_Wifi_BLE_SDK/GD32VW55x_RELEASE_V1.0.2/MSDK/wpa_supplicant/src/ap\ieee802_11_shared.c **** 		vht_80p80 = capab->vht_capabilities_info &
1031:C:/Users/stapi/OneDrive/Desktop/GD32VW553/V1_MQTT_OK/GD32VW55X_Wifi_BLE_SDK/GD32VW55x_RELEASE_V1.0.2/MSDK/wpa_supplicant/src/ap\ieee802_11_shared.c **** 			VHT_CAP_SUPP_CHAN_WIDTH_160_80PLUS80MHZ;
1032:C:/Users/stapi/OneDrive/Desktop/GD32VW553/V1_MQTT_OK/GD32VW55X_Wifi_BLE_SDK/GD32VW55x_RELEASE_V1.0.2/MSDK/wpa_supplicant/src/ap\ieee802_11_shared.c **** 
1033:C:/Users/stapi/OneDrive/Desktop/GD32VW553/V1_MQTT_OK/GD32VW55X_Wifi_BLE_SDK/GD32VW55x_RELEASE_V1.0.2/MSDK/wpa_supplicant/src/ap\ieee802_11_shared.c **** 		/* TODO: Also take into account Extended NSS BW Support field */
1034:C:/Users/stapi/OneDrive/Desktop/GD32VW553/V1_MQTT_OK/GD32VW55X_Wifi_BLE_SDK/GD32VW55x_RELEASE_V1.0.2/MSDK/wpa_supplicant/src/ap\ieee802_11_shared.c **** 		requested_bw = vht_chanwidth ? 160 : 80;
1035:C:/Users/stapi/OneDrive/Desktop/GD32VW553/V1_MQTT_OK/GD32VW55X_Wifi_BLE_SDK/GD32VW55x_RELEASE_V1.0.2/MSDK/wpa_supplicant/src/ap\ieee802_11_shared.c **** 	} else {
1036:C:/Users/stapi/OneDrive/Desktop/GD32VW553/V1_MQTT_OK/GD32VW55X_Wifi_BLE_SDK/GD32VW55x_RELEASE_V1.0.2/MSDK/wpa_supplicant/src/ap\ieee802_11_shared.c **** 		requested_bw = ht_40mhz ? 40 : 20;
1037:C:/Users/stapi/OneDrive/Desktop/GD32VW553/V1_MQTT_OK/GD32VW55X_Wifi_BLE_SDK/GD32VW55x_RELEASE_V1.0.2/MSDK/wpa_supplicant/src/ap\ieee802_11_shared.c **** 	}
1038:C:/Users/stapi/OneDrive/Desktop/GD32VW553/V1_MQTT_OK/GD32VW55X_Wifi_BLE_SDK/GD32VW55x_RELEASE_V1.0.2/MSDK/wpa_supplicant/src/ap\ieee802_11_shared.c **** 
1039:C:/Users/stapi/OneDrive/Desktop/GD32VW553/V1_MQTT_OK/GD32VW55X_Wifi_BLE_SDK/GD32VW55x_RELEASE_V1.0.2/MSDK/wpa_supplicant/src/ap\ieee802_11_shared.c **** 	*bandwidth = requested_bw < ap_max_chanwidth ?
1040:C:/Users/stapi/OneDrive/Desktop/GD32VW553/V1_MQTT_OK/GD32VW55X_Wifi_BLE_SDK/GD32VW55x_RELEASE_V1.0.2/MSDK/wpa_supplicant/src/ap\ieee802_11_shared.c **** 		requested_bw : ap_max_chanwidth;
1041:C:/Users/stapi/OneDrive/Desktop/GD32VW553/V1_MQTT_OK/GD32VW55X_Wifi_BLE_SDK/GD32VW55x_RELEASE_V1.0.2/MSDK/wpa_supplicant/src/ap\ieee802_11_shared.c **** 
1042:C:/Users/stapi/OneDrive/Desktop/GD32VW553/V1_MQTT_OK/GD32VW55X_Wifi_BLE_SDK/GD32VW55x_RELEASE_V1.0.2/MSDK/wpa_supplicant/src/ap\ieee802_11_shared.c **** 	*seg1_idx = 0;
1043:C:/Users/stapi/OneDrive/Desktop/GD32VW553/V1_MQTT_OK/GD32VW55X_Wifi_BLE_SDK/GD32VW55x_RELEASE_V1.0.2/MSDK/wpa_supplicant/src/ap\ieee802_11_shared.c **** 	if (ap_seg1_idx && vht_80p80)
1044:C:/Users/stapi/OneDrive/Desktop/GD32VW553/V1_MQTT_OK/GD32VW55X_Wifi_BLE_SDK/GD32VW55x_RELEASE_V1.0.2/MSDK/wpa_supplicant/src/ap\ieee802_11_shared.c **** 		*seg1_idx = ap_seg1_idx;
1045:C:/Users/stapi/OneDrive/Desktop/GD32VW553/V1_MQTT_OK/GD32VW55X_Wifi_BLE_SDK/GD32VW55x_RELEASE_V1.0.2/MSDK/wpa_supplicant/src/ap\ieee802_11_shared.c **** 
1046:C:/Users/stapi/OneDrive/Desktop/GD32VW553/V1_MQTT_OK/GD32VW55X_Wifi_BLE_SDK/GD32VW55x_RELEASE_V1.0.2/MSDK/wpa_supplicant/src/ap\ieee802_11_shared.c **** 	return 0;
1047:C:/Users/stapi/OneDrive/Desktop/GD32VW553/V1_MQTT_OK/GD32VW55X_Wifi_BLE_SDK/GD32VW55x_RELEASE_V1.0.2/MSDK/wpa_supplicant/src/ap\ieee802_11_shared.c **** }
1048:C:/Users/stapi/OneDrive/Desktop/GD32VW553/V1_MQTT_OK/GD32VW55X_Wifi_BLE_SDK/GD32VW55x_RELEASE_V1.0.2/MSDK/wpa_supplicant/src/ap\ieee802_11_shared.c **** #endif /* CONFIG_OCV */
1049:C:/Users/stapi/OneDrive/Desktop/GD32VW553/V1_MQTT_OK/GD32VW55X_Wifi_BLE_SDK/GD32VW55x_RELEASE_V1.0.2/MSDK/wpa_supplicant/src/ap\ieee802_11_shared.c **** 
1050:C:/Users/stapi/OneDrive/Desktop/GD32VW553/V1_MQTT_OK/GD32VW55X_Wifi_BLE_SDK/GD32VW55x_RELEASE_V1.0.2/MSDK/wpa_supplicant/src/ap\ieee802_11_shared.c **** 
1051:C:/Users/stapi/OneDrive/Desktop/GD32VW553/V1_MQTT_OK/GD32VW55X_Wifi_BLE_SDK/GD32VW55x_RELEASE_V1.0.2/MSDK/wpa_supplicant/src/ap\ieee802_11_shared.c **** u8 * hostapd_eid_rsnxe(struct hostapd_data *hapd, u8 *eid, size_t len)
1052:C:/Users/stapi/OneDrive/Desktop/GD32VW553/V1_MQTT_OK/GD32VW55X_Wifi_BLE_SDK/GD32VW55x_RELEASE_V1.0.2/MSDK/wpa_supplicant/src/ap\ieee802_11_shared.c **** {
 1945              		.loc 1 1052 1 is_stmt 1
 1946              		.cfi_startproc
 1947              	.LVL170:
 1948 0000 17030000 		call	t0,__riscv_save_3
 1948      E7020300 
 1949              		.cfi_offset 18, -16
 1950              		.cfi_offset 9, -12
 1951              		.cfi_offset 8, -8
 1952              		.cfi_offset 1, -4
 1953              		.cfi_def_cfa_offset 16
1053:C:/Users/stapi/OneDrive/Desktop/GD32VW553/V1_MQTT_OK/GD32VW55X_Wifi_BLE_SDK/GD32VW55x_RELEASE_V1.0.2/MSDK/wpa_supplicant/src/ap\ieee802_11_shared.c **** 	u8 *pos = eid;
 1954              		.loc 1 1053 2
1052:C:/Users/stapi/OneDrive/Desktop/GD32VW553/V1_MQTT_OK/GD32VW55X_Wifi_BLE_SDK/GD32VW55x_RELEASE_V1.0.2/MSDK/wpa_supplicant/src/ap\ieee802_11_shared.c **** 	u8 *pos = eid;
 1955              		.loc 1 1052 1 is_stmt 0
 1956 0008 AA84     		mv	s1,a0
1054:C:/Users/stapi/OneDrive/Desktop/GD32VW553/V1_MQTT_OK/GD32VW55X_Wifi_BLE_SDK/GD32VW55x_RELEASE_V1.0.2/MSDK/wpa_supplicant/src/ap\ieee802_11_shared.c **** 	bool sae_pk = false;
1055:C:/Users/stapi/OneDrive/Desktop/GD32VW553/V1_MQTT_OK/GD32VW55X_Wifi_BLE_SDK/GD32VW55x_RELEASE_V1.0.2/MSDK/wpa_supplicant/src/ap\ieee802_11_shared.c **** 	u16 capab = 0;
1056:C:/Users/stapi/OneDrive/Desktop/GD32VW553/V1_MQTT_OK/GD32VW55X_Wifi_BLE_SDK/GD32VW55x_RELEASE_V1.0.2/MSDK/wpa_supplicant/src/ap\ieee802_11_shared.c **** 	size_t flen;
1057:C:/Users/stapi/OneDrive/Desktop/GD32VW553/V1_MQTT_OK/GD32VW55X_Wifi_BLE_SDK/GD32VW55x_RELEASE_V1.0.2/MSDK/wpa_supplicant/src/ap\ieee802_11_shared.c **** 
1058:C:/Users/stapi/OneDrive/Desktop/GD32VW553/V1_MQTT_OK/GD32VW55X_Wifi_BLE_SDK/GD32VW55x_RELEASE_V1.0.2/MSDK/wpa_supplicant/src/ap\ieee802_11_shared.c **** 	if (!(hapd->conf->wpa & WPA_PROTO_RSN))
 1957              		.loc 1 1058 12
 1958 000a 0845     		lw	a0,8(a0)
 1959              	.LVL171:
1052:C:/Users/stapi/OneDrive/Desktop/GD32VW553/V1_MQTT_OK/GD32VW55X_Wifi_BLE_SDK/GD32VW55x_RELEASE_V1.0.2/MSDK/wpa_supplicant/src/ap\ieee802_11_shared.c **** 	u8 *pos = eid;
 1960              		.loc 1 1052 1
 1961 000c 2E84     		mv	s0,a1
 1962              	.LVL172:
1054:C:/Users/stapi/OneDrive/Desktop/GD32VW553/V1_MQTT_OK/GD32VW55X_Wifi_BLE_SDK/GD32VW55x_RELEASE_V1.0.2/MSDK/wpa_supplicant/src/ap\ieee802_11_shared.c **** 	bool sae_pk = false;
 1963              		.loc 1 1054 2 is_stmt 1
1055:C:/Users/stapi/OneDrive/Desktop/GD32VW553/V1_MQTT_OK/GD32VW55X_Wifi_BLE_SDK/GD32VW55x_RELEASE_V1.0.2/MSDK/wpa_supplicant/src/ap\ieee802_11_shared.c **** 	size_t flen;
 1964              		.loc 1 1055 2
1056:C:/Users/stapi/OneDrive/Desktop/GD32VW553/V1_MQTT_OK/GD32VW55X_Wifi_BLE_SDK/GD32VW55x_RELEASE_V1.0.2/MSDK/wpa_supplicant/src/ap\ieee802_11_shared.c **** 
 1965              		.loc 1 1056 2
 1966              		.loc 1 1058 2
 1967              		.loc 1 1058 24 is_stmt 0
 1968 000e 83274514 		lw	a5,324(a0)
 1969 0012 898B     		andi	a5,a5,2
 1970              		.loc 1 1058 5
 1971 0014 91E7     		bne	a5,zero,.L198
 1972              	.LVL173:
 1973              	.L212:
1059:C:/Users/stapi/OneDrive/Desktop/GD32VW553/V1_MQTT_OK/GD32VW55X_Wifi_BLE_SDK/GD32VW55x_RELEASE_V1.0.2/MSDK/wpa_supplicant/src/ap\ieee802_11_shared.c **** 		return eid;
1060:C:/Users/stapi/OneDrive/Desktop/GD32VW553/V1_MQTT_OK/GD32VW55X_Wifi_BLE_SDK/GD32VW55x_RELEASE_V1.0.2/MSDK/wpa_supplicant/src/ap\ieee802_11_shared.c **** 
1061:C:/Users/stapi/OneDrive/Desktop/GD32VW553/V1_MQTT_OK/GD32VW55X_Wifi_BLE_SDK/GD32VW55x_RELEASE_V1.0.2/MSDK/wpa_supplicant/src/ap\ieee802_11_shared.c **** #ifdef CONFIG_SAE_PK
1062:C:/Users/stapi/OneDrive/Desktop/GD32VW553/V1_MQTT_OK/GD32VW55X_Wifi_BLE_SDK/GD32VW55x_RELEASE_V1.0.2/MSDK/wpa_supplicant/src/ap\ieee802_11_shared.c **** 	sae_pk = hostapd_sae_pk_in_use(hapd->conf);
1063:C:/Users/stapi/OneDrive/Desktop/GD32VW553/V1_MQTT_OK/GD32VW55X_Wifi_BLE_SDK/GD32VW55x_RELEASE_V1.0.2/MSDK/wpa_supplicant/src/ap\ieee802_11_shared.c **** #endif /* CONFIG_SAE_PK */
1064:C:/Users/stapi/OneDrive/Desktop/GD32VW553/V1_MQTT_OK/GD32VW55X_Wifi_BLE_SDK/GD32VW55x_RELEASE_V1.0.2/MSDK/wpa_supplicant/src/ap\ieee802_11_shared.c **** 
1065:C:/Users/stapi/OneDrive/Desktop/GD32VW553/V1_MQTT_OK/GD32VW55X_Wifi_BLE_SDK/GD32VW55x_RELEASE_V1.0.2/MSDK/wpa_supplicant/src/ap\ieee802_11_shared.c **** 	if (wpa_key_mgmt_sae(hapd->conf->wpa_key_mgmt) &&
1066:C:/Users/stapi/OneDrive/Desktop/GD32VW553/V1_MQTT_OK/GD32VW55X_Wifi_BLE_SDK/GD32VW55x_RELEASE_V1.0.2/MSDK/wpa_supplicant/src/ap\ieee802_11_shared.c **** 	    (hapd->conf->sae_pwe == 1 || hapd->conf->sae_pwe == 2 ||
1067:C:/Users/stapi/OneDrive/Desktop/GD32VW553/V1_MQTT_OK/GD32VW55X_Wifi_BLE_SDK/GD32VW55x_RELEASE_V1.0.2/MSDK/wpa_supplicant/src/ap\ieee802_11_shared.c **** 	     hostapd_sae_pw_id_in_use(hapd->conf) || sae_pk) &&
1068:C:/Users/stapi/OneDrive/Desktop/GD32VW553/V1_MQTT_OK/GD32VW55X_Wifi_BLE_SDK/GD32VW55x_RELEASE_V1.0.2/MSDK/wpa_supplicant/src/ap\ieee802_11_shared.c **** 	    hapd->conf->sae_pwe != 3) {
1069:C:/Users/stapi/OneDrive/Desktop/GD32VW553/V1_MQTT_OK/GD32VW55X_Wifi_BLE_SDK/GD32VW55x_RELEASE_V1.0.2/MSDK/wpa_supplicant/src/ap\ieee802_11_shared.c **** 		capab |= BIT(WLAN_RSNX_CAPAB_SAE_H2E);
1070:C:/Users/stapi/OneDrive/Desktop/GD32VW553/V1_MQTT_OK/GD32VW55X_Wifi_BLE_SDK/GD32VW55x_RELEASE_V1.0.2/MSDK/wpa_supplicant/src/ap\ieee802_11_shared.c **** #ifdef CONFIG_SAE_PK
1071:C:/Users/stapi/OneDrive/Desktop/GD32VW553/V1_MQTT_OK/GD32VW55X_Wifi_BLE_SDK/GD32VW55x_RELEASE_V1.0.2/MSDK/wpa_supplicant/src/ap\ieee802_11_shared.c **** 		if (sae_pk)
1072:C:/Users/stapi/OneDrive/Desktop/GD32VW553/V1_MQTT_OK/GD32VW55X_Wifi_BLE_SDK/GD32VW55x_RELEASE_V1.0.2/MSDK/wpa_supplicant/src/ap\ieee802_11_shared.c **** 			capab |= BIT(WLAN_RSNX_CAPAB_SAE_PK);
1073:C:/Users/stapi/OneDrive/Desktop/GD32VW553/V1_MQTT_OK/GD32VW55X_Wifi_BLE_SDK/GD32VW55x_RELEASE_V1.0.2/MSDK/wpa_supplicant/src/ap\ieee802_11_shared.c **** #endif /* CONFIG_SAE_PK */
1074:C:/Users/stapi/OneDrive/Desktop/GD32VW553/V1_MQTT_OK/GD32VW55X_Wifi_BLE_SDK/GD32VW55x_RELEASE_V1.0.2/MSDK/wpa_supplicant/src/ap\ieee802_11_shared.c **** 	}
1075:C:/Users/stapi/OneDrive/Desktop/GD32VW553/V1_MQTT_OK/GD32VW55X_Wifi_BLE_SDK/GD32VW55x_RELEASE_V1.0.2/MSDK/wpa_supplicant/src/ap\ieee802_11_shared.c **** 
1076:C:/Users/stapi/OneDrive/Desktop/GD32VW553/V1_MQTT_OK/GD32VW55X_Wifi_BLE_SDK/GD32VW55x_RELEASE_V1.0.2/MSDK/wpa_supplicant/src/ap\ieee802_11_shared.c **** 	if (hapd->iface->drv_flags2 & WPA_DRIVER_FLAGS2_SEC_LTF)
1077:C:/Users/stapi/OneDrive/Desktop/GD32VW553/V1_MQTT_OK/GD32VW55X_Wifi_BLE_SDK/GD32VW55x_RELEASE_V1.0.2/MSDK/wpa_supplicant/src/ap\ieee802_11_shared.c **** 		capab |= BIT(WLAN_RSNX_CAPAB_SECURE_LTF);
1078:C:/Users/stapi/OneDrive/Desktop/GD32VW553/V1_MQTT_OK/GD32VW55X_Wifi_BLE_SDK/GD32VW55x_RELEASE_V1.0.2/MSDK/wpa_supplicant/src/ap\ieee802_11_shared.c **** 	if (hapd->iface->drv_flags2 & WPA_DRIVER_FLAGS2_SEC_RTT)
1079:C:/Users/stapi/OneDrive/Desktop/GD32VW553/V1_MQTT_OK/GD32VW55X_Wifi_BLE_SDK/GD32VW55x_RELEASE_V1.0.2/MSDK/wpa_supplicant/src/ap\ieee802_11_shared.c **** 		capab |= BIT(WLAN_RSNX_CAPAB_SECURE_RTT);
1080:C:/Users/stapi/OneDrive/Desktop/GD32VW553/V1_MQTT_OK/GD32VW55X_Wifi_BLE_SDK/GD32VW55x_RELEASE_V1.0.2/MSDK/wpa_supplicant/src/ap\ieee802_11_shared.c **** 	if (hapd->iface->drv_flags2 & WPA_DRIVER_FLAGS2_PROT_RANGE_NEG)
1081:C:/Users/stapi/OneDrive/Desktop/GD32VW553/V1_MQTT_OK/GD32VW55X_Wifi_BLE_SDK/GD32VW55x_RELEASE_V1.0.2/MSDK/wpa_supplicant/src/ap\ieee802_11_shared.c **** 		capab |= BIT(WLAN_RSNX_CAPAB_PROT_RANGE_NEG);
1082:C:/Users/stapi/OneDrive/Desktop/GD32VW553/V1_MQTT_OK/GD32VW55X_Wifi_BLE_SDK/GD32VW55x_RELEASE_V1.0.2/MSDK/wpa_supplicant/src/ap\ieee802_11_shared.c **** 
1083:C:/Users/stapi/OneDrive/Desktop/GD32VW553/V1_MQTT_OK/GD32VW55X_Wifi_BLE_SDK/GD32VW55x_RELEASE_V1.0.2/MSDK/wpa_supplicant/src/ap\ieee802_11_shared.c **** 	flen = (capab & 0xff00) ? 2 : 1;
 1974              		.loc 1 1083 30
 1975 0016 2285     		mv	a0,s0
 1976              	.LVL174:
 1977              	.L197:
1084:C:/Users/stapi/OneDrive/Desktop/GD32VW553/V1_MQTT_OK/GD32VW55X_Wifi_BLE_SDK/GD32VW55x_RELEASE_V1.0.2/MSDK/wpa_supplicant/src/ap\ieee802_11_shared.c **** 	if (len < 2 + flen || !capab)
1085:C:/Users/stapi/OneDrive/Desktop/GD32VW553/V1_MQTT_OK/GD32VW55X_Wifi_BLE_SDK/GD32VW55x_RELEASE_V1.0.2/MSDK/wpa_supplicant/src/ap\ieee802_11_shared.c **** 		return eid; /* no supported extended RSN capabilities */
1086:C:/Users/stapi/OneDrive/Desktop/GD32VW553/V1_MQTT_OK/GD32VW55X_Wifi_BLE_SDK/GD32VW55x_RELEASE_V1.0.2/MSDK/wpa_supplicant/src/ap\ieee802_11_shared.c **** 	capab |= flen - 1; /* bit 0-3 = Field length (n - 1) */
1087:C:/Users/stapi/OneDrive/Desktop/GD32VW553/V1_MQTT_OK/GD32VW55X_Wifi_BLE_SDK/GD32VW55x_RELEASE_V1.0.2/MSDK/wpa_supplicant/src/ap\ieee802_11_shared.c **** 
1088:C:/Users/stapi/OneDrive/Desktop/GD32VW553/V1_MQTT_OK/GD32VW55X_Wifi_BLE_SDK/GD32VW55x_RELEASE_V1.0.2/MSDK/wpa_supplicant/src/ap\ieee802_11_shared.c **** 	*pos++ = WLAN_EID_RSNX;
1089:C:/Users/stapi/OneDrive/Desktop/GD32VW553/V1_MQTT_OK/GD32VW55X_Wifi_BLE_SDK/GD32VW55x_RELEASE_V1.0.2/MSDK/wpa_supplicant/src/ap\ieee802_11_shared.c **** 	*pos++ = flen;
1090:C:/Users/stapi/OneDrive/Desktop/GD32VW553/V1_MQTT_OK/GD32VW55X_Wifi_BLE_SDK/GD32VW55x_RELEASE_V1.0.2/MSDK/wpa_supplicant/src/ap\ieee802_11_shared.c **** 	*pos++ = capab & 0x00ff;
1091:C:/Users/stapi/OneDrive/Desktop/GD32VW553/V1_MQTT_OK/GD32VW55X_Wifi_BLE_SDK/GD32VW55x_RELEASE_V1.0.2/MSDK/wpa_supplicant/src/ap\ieee802_11_shared.c **** 	capab >>= 8;
1092:C:/Users/stapi/OneDrive/Desktop/GD32VW553/V1_MQTT_OK/GD32VW55X_Wifi_BLE_SDK/GD32VW55x_RELEASE_V1.0.2/MSDK/wpa_supplicant/src/ap\ieee802_11_shared.c **** 	if (capab)
1093:C:/Users/stapi/OneDrive/Desktop/GD32VW553/V1_MQTT_OK/GD32VW55X_Wifi_BLE_SDK/GD32VW55x_RELEASE_V1.0.2/MSDK/wpa_supplicant/src/ap\ieee802_11_shared.c **** 		*pos++ = capab;
1094:C:/Users/stapi/OneDrive/Desktop/GD32VW553/V1_MQTT_OK/GD32VW55X_Wifi_BLE_SDK/GD32VW55x_RELEASE_V1.0.2/MSDK/wpa_supplicant/src/ap\ieee802_11_shared.c **** 
1095:C:/Users/stapi/OneDrive/Desktop/GD32VW553/V1_MQTT_OK/GD32VW55X_Wifi_BLE_SDK/GD32VW55x_RELEASE_V1.0.2/MSDK/wpa_supplicant/src/ap\ieee802_11_shared.c **** 	return pos;
1096:C:/Users/stapi/OneDrive/Desktop/GD32VW553/V1_MQTT_OK/GD32VW55X_Wifi_BLE_SDK/GD32VW55x_RELEASE_V1.0.2/MSDK/wpa_supplicant/src/ap\ieee802_11_shared.c **** }
 1978              		.loc 1 1096 1
 1979 0018 17030000 		tail	__riscv_restore_3
 1979      67000300 
 1980              		.cfi_remember_state
 1981              		.cfi_restore 18
 1982              		.cfi_restore 9
 1983              		.cfi_restore 8
 1984              		.cfi_restore 1
 1985              		.cfi_def_cfa_offset 0
 1986              	.LVL175:
 1987              	.L198:
 1988              		.cfi_restore_state
 1989              	.LBB104:
 1990              	.LBB105:
 1991              		.loc 4 113 16
 1992 0020 8327C514 		lw	a5,332(a0)
 1993 0024 0567     		li	a4,4096
 1994 0026 130707C0 		addi	a4,a4,-1024
 1995 002a F98F     		and	a5,a5,a4
 1996 002c 3289     		mv	s2,a2
 1997              	.LBE105:
 1998              	.LBE104:
1065:C:/Users/stapi/OneDrive/Desktop/GD32VW553/V1_MQTT_OK/GD32VW55X_Wifi_BLE_SDK/GD32VW55x_RELEASE_V1.0.2/MSDK/wpa_supplicant/src/ap\ieee802_11_shared.c **** 	    (hapd->conf->sae_pwe == 1 || hapd->conf->sae_pwe == 2 ||
 1999              		.loc 1 1065 2 is_stmt 1
 2000              	.LVL176:
 2001              	.LBB107:
 2002              	.LBB106:
 2003              		.loc 4 113 2
 2004              	.LBE106:
 2005              	.LBE107:
1065:C:/Users/stapi/OneDrive/Desktop/GD32VW553/V1_MQTT_OK/GD32VW55X_Wifi_BLE_SDK/GD32VW55x_RELEASE_V1.0.2/MSDK/wpa_supplicant/src/ap\ieee802_11_shared.c **** 	    (hapd->conf->sae_pwe == 1 || hapd->conf->sae_pwe == 2 ||
 2006              		.loc 1 1065 5 is_stmt 0
 2007 002e ADE3     		bne	a5,zero,.L200
 2008              	.LVL177:
 2009              	.L203:
1055:C:/Users/stapi/OneDrive/Desktop/GD32VW553/V1_MQTT_OK/GD32VW55X_Wifi_BLE_SDK/GD32VW55x_RELEASE_V1.0.2/MSDK/wpa_supplicant/src/ap\ieee802_11_shared.c **** 	size_t flen;
 2010              		.loc 1 1055 6
 2011 0030 8147     		li	a5,0
 2012              	.L201:
 2013              	.LVL178:
1076:C:/Users/stapi/OneDrive/Desktop/GD32VW553/V1_MQTT_OK/GD32VW55X_Wifi_BLE_SDK/GD32VW55x_RELEASE_V1.0.2/MSDK/wpa_supplicant/src/ap\ieee802_11_shared.c **** 		capab |= BIT(WLAN_RSNX_CAPAB_SECURE_LTF);
 2014              		.loc 1 1076 2 is_stmt 1
1076:C:/Users/stapi/OneDrive/Desktop/GD32VW553/V1_MQTT_OK/GD32VW55X_Wifi_BLE_SDK/GD32VW55x_RELEASE_V1.0.2/MSDK/wpa_supplicant/src/ap\ieee802_11_shared.c **** 		capab |= BIT(WLAN_RSNX_CAPAB_SECURE_LTF);
 2015              		.loc 1 1076 17 is_stmt 0
 2016 0032 9840     		lw	a4,0(s1)
 2017 0034 03270744 		lw	a4,1088(a4)
1076:C:/Users/stapi/OneDrive/Desktop/GD32VW553/V1_MQTT_OK/GD32VW55X_Wifi_BLE_SDK/GD32VW55x_RELEASE_V1.0.2/MSDK/wpa_supplicant/src/ap\ieee802_11_shared.c **** 		capab |= BIT(WLAN_RSNX_CAPAB_SECURE_LTF);
 2018              		.loc 1 1076 30
 2019 0038 93764700 		andi	a3,a4,4
1076:C:/Users/stapi/OneDrive/Desktop/GD32VW553/V1_MQTT_OK/GD32VW55X_Wifi_BLE_SDK/GD32VW55x_RELEASE_V1.0.2/MSDK/wpa_supplicant/src/ap\ieee802_11_shared.c **** 		capab |= BIT(WLAN_RSNX_CAPAB_SECURE_LTF);
 2020              		.loc 1 1076 5
 2021 003c 99C2     		beq	a3,zero,.L205
1077:C:/Users/stapi/OneDrive/Desktop/GD32VW553/V1_MQTT_OK/GD32VW55X_Wifi_BLE_SDK/GD32VW55x_RELEASE_V1.0.2/MSDK/wpa_supplicant/src/ap\ieee802_11_shared.c **** 	if (hapd->iface->drv_flags2 & WPA_DRIVER_FLAGS2_SEC_RTT)
 2022              		.loc 1 1077 3 is_stmt 1
1077:C:/Users/stapi/OneDrive/Desktop/GD32VW553/V1_MQTT_OK/GD32VW55X_Wifi_BLE_SDK/GD32VW55x_RELEASE_V1.0.2/MSDK/wpa_supplicant/src/ap\ieee802_11_shared.c **** 	if (hapd->iface->drv_flags2 & WPA_DRIVER_FLAGS2_SEC_RTT)
 2023              		.loc 1 1077 9 is_stmt 0
 2024 003e 93E70710 		ori	a5,a5,256
 2025              	.LVL179:
 2026              	.L205:
1078:C:/Users/stapi/OneDrive/Desktop/GD32VW553/V1_MQTT_OK/GD32VW55X_Wifi_BLE_SDK/GD32VW55x_RELEASE_V1.0.2/MSDK/wpa_supplicant/src/ap\ieee802_11_shared.c **** 		capab |= BIT(WLAN_RSNX_CAPAB_SECURE_RTT);
 2027              		.loc 1 1078 2 is_stmt 1
1078:C:/Users/stapi/OneDrive/Desktop/GD32VW553/V1_MQTT_OK/GD32VW55X_Wifi_BLE_SDK/GD32VW55x_RELEASE_V1.0.2/MSDK/wpa_supplicant/src/ap\ieee802_11_shared.c **** 		capab |= BIT(WLAN_RSNX_CAPAB_SECURE_RTT);
 2028              		.loc 1 1078 30 is_stmt 0
 2029 0042 93768700 		andi	a3,a4,8
1078:C:/Users/stapi/OneDrive/Desktop/GD32VW553/V1_MQTT_OK/GD32VW55X_Wifi_BLE_SDK/GD32VW55x_RELEASE_V1.0.2/MSDK/wpa_supplicant/src/ap\ieee802_11_shared.c **** 		capab |= BIT(WLAN_RSNX_CAPAB_SECURE_RTT);
 2030              		.loc 1 1078 5
 2031 0046 99C2     		beq	a3,zero,.L207
1079:C:/Users/stapi/OneDrive/Desktop/GD32VW553/V1_MQTT_OK/GD32VW55X_Wifi_BLE_SDK/GD32VW55x_RELEASE_V1.0.2/MSDK/wpa_supplicant/src/ap\ieee802_11_shared.c **** 	if (hapd->iface->drv_flags2 & WPA_DRIVER_FLAGS2_PROT_RANGE_NEG)
 2032              		.loc 1 1079 3 is_stmt 1
1079:C:/Users/stapi/OneDrive/Desktop/GD32VW553/V1_MQTT_OK/GD32VW55X_Wifi_BLE_SDK/GD32VW55x_RELEASE_V1.0.2/MSDK/wpa_supplicant/src/ap\ieee802_11_shared.c **** 	if (hapd->iface->drv_flags2 & WPA_DRIVER_FLAGS2_PROT_RANGE_NEG)
 2033              		.loc 1 1079 9 is_stmt 0
 2034 0048 93E70720 		ori	a5,a5,512
 2035              	.LVL180:
 2036              	.L207:
1080:C:/Users/stapi/OneDrive/Desktop/GD32VW553/V1_MQTT_OK/GD32VW55X_Wifi_BLE_SDK/GD32VW55x_RELEASE_V1.0.2/MSDK/wpa_supplicant/src/ap\ieee802_11_shared.c **** 		capab |= BIT(WLAN_RSNX_CAPAB_PROT_RANGE_NEG);
 2037              		.loc 1 1080 2 is_stmt 1
1080:C:/Users/stapi/OneDrive/Desktop/GD32VW553/V1_MQTT_OK/GD32VW55X_Wifi_BLE_SDK/GD32VW55x_RELEASE_V1.0.2/MSDK/wpa_supplicant/src/ap\ieee802_11_shared.c **** 		capab |= BIT(WLAN_RSNX_CAPAB_PROT_RANGE_NEG);
 2038              		.loc 1 1080 30 is_stmt 0
 2039 004c 418B     		andi	a4,a4,16
1080:C:/Users/stapi/OneDrive/Desktop/GD32VW553/V1_MQTT_OK/GD32VW55X_Wifi_BLE_SDK/GD32VW55x_RELEASE_V1.0.2/MSDK/wpa_supplicant/src/ap\ieee802_11_shared.c **** 		capab |= BIT(WLAN_RSNX_CAPAB_PROT_RANGE_NEG);
 2040              		.loc 1 1080 5
 2041 004e 35C7     		beq	a4,zero,.L209
1081:C:/Users/stapi/OneDrive/Desktop/GD32VW553/V1_MQTT_OK/GD32VW55X_Wifi_BLE_SDK/GD32VW55x_RELEASE_V1.0.2/MSDK/wpa_supplicant/src/ap\ieee802_11_shared.c **** 
 2042              		.loc 1 1081 3 is_stmt 1
1081:C:/Users/stapi/OneDrive/Desktop/GD32VW553/V1_MQTT_OK/GD32VW55X_Wifi_BLE_SDK/GD32VW55x_RELEASE_V1.0.2/MSDK/wpa_supplicant/src/ap\ieee802_11_shared.c **** 
 2043              		.loc 1 1081 9 is_stmt 0
 2044 0050 93E70740 		ori	a5,a5,1024
 2045              	.LVL181:
1083:C:/Users/stapi/OneDrive/Desktop/GD32VW553/V1_MQTT_OK/GD32VW55X_Wifi_BLE_SDK/GD32VW55x_RELEASE_V1.0.2/MSDK/wpa_supplicant/src/ap\ieee802_11_shared.c **** 	if (len < 2 + flen || !capab)
 2046              		.loc 1 1083 2 is_stmt 1
1083:C:/Users/stapi/OneDrive/Desktop/GD32VW553/V1_MQTT_OK/GD32VW55X_Wifi_BLE_SDK/GD32VW55x_RELEASE_V1.0.2/MSDK/wpa_supplicant/src/ap\ieee802_11_shared.c **** 	if (len < 2 + flen || !capab)
 2047              		.loc 1 1083 30 is_stmt 0
 2048 0054 0947     		li	a4,2
 2049              	.L211:
 2050              	.LVL182:
1084:C:/Users/stapi/OneDrive/Desktop/GD32VW553/V1_MQTT_OK/GD32VW55X_Wifi_BLE_SDK/GD32VW55x_RELEASE_V1.0.2/MSDK/wpa_supplicant/src/ap\ieee802_11_shared.c **** 		return eid; /* no supported extended RSN capabilities */
 2051              		.loc 1 1084 2 is_stmt 1 discriminator 4
1084:C:/Users/stapi/OneDrive/Desktop/GD32VW553/V1_MQTT_OK/GD32VW55X_Wifi_BLE_SDK/GD32VW55x_RELEASE_V1.0.2/MSDK/wpa_supplicant/src/ap\ieee802_11_shared.c **** 		return eid; /* no supported extended RSN capabilities */
 2052              		.loc 1 1084 14 is_stmt 0 discriminator 4
 2053 0056 0546     		li	a2,1
 2054 0058 9146     		li	a3,4
 2055 005a 6313C700 		bne	a4,a2,.L214
 2056 005e 8D46     		li	a3,3
 2057              	.L214:
1084:C:/Users/stapi/OneDrive/Desktop/GD32VW553/V1_MQTT_OK/GD32VW55X_Wifi_BLE_SDK/GD32VW55x_RELEASE_V1.0.2/MSDK/wpa_supplicant/src/ap\ieee802_11_shared.c **** 		return eid; /* no supported extended RSN capabilities */
 2058              		.loc 1 1084 5 discriminator 4
 2059 0060 E36BD9FA 		bgtu	a3,s2,.L212
1084:C:/Users/stapi/OneDrive/Desktop/GD32VW553/V1_MQTT_OK/GD32VW55X_Wifi_BLE_SDK/GD32VW55x_RELEASE_V1.0.2/MSDK/wpa_supplicant/src/ap\ieee802_11_shared.c **** 		return eid; /* no supported extended RSN capabilities */
 2060              		.loc 1 1084 21 discriminator 1
 2061 0064 CDDB     		beq	a5,zero,.L212
1086:C:/Users/stapi/OneDrive/Desktop/GD32VW553/V1_MQTT_OK/GD32VW55X_Wifi_BLE_SDK/GD32VW55x_RELEASE_V1.0.2/MSDK/wpa_supplicant/src/ap\ieee802_11_shared.c **** 
 2062              		.loc 1 1086 2 is_stmt 1
1086:C:/Users/stapi/OneDrive/Desktop/GD32VW553/V1_MQTT_OK/GD32VW55X_Wifi_BLE_SDK/GD32VW55x_RELEASE_V1.0.2/MSDK/wpa_supplicant/src/ap\ieee802_11_shared.c **** 
 2063              		.loc 1 1086 16 is_stmt 0
 2064 0066 9306F7FF 		addi	a3,a4,-1
1086:C:/Users/stapi/OneDrive/Desktop/GD32VW553/V1_MQTT_OK/GD32VW55X_Wifi_BLE_SDK/GD32VW55x_RELEASE_V1.0.2/MSDK/wpa_supplicant/src/ap\ieee802_11_shared.c **** 
 2065              		.loc 1 1086 8
 2066 006a D58F     		or	a5,a5,a3
 2067              	.LVL183:
1088:C:/Users/stapi/OneDrive/Desktop/GD32VW553/V1_MQTT_OK/GD32VW55X_Wifi_BLE_SDK/GD32VW55x_RELEASE_V1.0.2/MSDK/wpa_supplicant/src/ap\ieee802_11_shared.c **** 	*pos++ = flen;
 2068              		.loc 1 1088 9
 2069 006c D156     		li	a3,-12
1086:C:/Users/stapi/OneDrive/Desktop/GD32VW553/V1_MQTT_OK/GD32VW55X_Wifi_BLE_SDK/GD32VW55x_RELEASE_V1.0.2/MSDK/wpa_supplicant/src/ap\ieee802_11_shared.c **** 
 2070              		.loc 1 1086 8
 2071 006e B3C70708 		zext.h	a5,a5
 2072              	.LVL184:
1088:C:/Users/stapi/OneDrive/Desktop/GD32VW553/V1_MQTT_OK/GD32VW55X_Wifi_BLE_SDK/GD32VW55x_RELEASE_V1.0.2/MSDK/wpa_supplicant/src/ap\ieee802_11_shared.c **** 	*pos++ = flen;
 2073              		.loc 1 1088 2 is_stmt 1
1088:C:/Users/stapi/OneDrive/Desktop/GD32VW553/V1_MQTT_OK/GD32VW55X_Wifi_BLE_SDK/GD32VW55x_RELEASE_V1.0.2/MSDK/wpa_supplicant/src/ap\ieee802_11_shared.c **** 	*pos++ = flen;
 2074              		.loc 1 1088 9 is_stmt 0
 2075 0072 2300D400 		sb	a3,0(s0)
1089:C:/Users/stapi/OneDrive/Desktop/GD32VW553/V1_MQTT_OK/GD32VW55X_Wifi_BLE_SDK/GD32VW55x_RELEASE_V1.0.2/MSDK/wpa_supplicant/src/ap\ieee802_11_shared.c **** 	*pos++ = capab & 0x00ff;
 2076              		.loc 1 1089 2 is_stmt 1
 2077              	.LVL185:
1090:C:/Users/stapi/OneDrive/Desktop/GD32VW553/V1_MQTT_OK/GD32VW55X_Wifi_BLE_SDK/GD32VW55x_RELEASE_V1.0.2/MSDK/wpa_supplicant/src/ap\ieee802_11_shared.c **** 	capab >>= 8;
 2078              		.loc 1 1090 9 is_stmt 0
 2079 0076 2301F400 		sb	a5,2(s0)
1089:C:/Users/stapi/OneDrive/Desktop/GD32VW553/V1_MQTT_OK/GD32VW55X_Wifi_BLE_SDK/GD32VW55x_RELEASE_V1.0.2/MSDK/wpa_supplicant/src/ap\ieee802_11_shared.c **** 	*pos++ = capab & 0x00ff;
 2080              		.loc 1 1089 9
 2081 007a A300E400 		sb	a4,1(s0)
1090:C:/Users/stapi/OneDrive/Desktop/GD32VW553/V1_MQTT_OK/GD32VW55X_Wifi_BLE_SDK/GD32VW55x_RELEASE_V1.0.2/MSDK/wpa_supplicant/src/ap\ieee802_11_shared.c **** 	capab >>= 8;
 2082              		.loc 1 1090 2 is_stmt 1
 2083              	.LVL186:
1091:C:/Users/stapi/OneDrive/Desktop/GD32VW553/V1_MQTT_OK/GD32VW55X_Wifi_BLE_SDK/GD32VW55x_RELEASE_V1.0.2/MSDK/wpa_supplicant/src/ap\ieee802_11_shared.c **** 	if (capab)
 2084              		.loc 1 1091 2
1091:C:/Users/stapi/OneDrive/Desktop/GD32VW553/V1_MQTT_OK/GD32VW55X_Wifi_BLE_SDK/GD32VW55x_RELEASE_V1.0.2/MSDK/wpa_supplicant/src/ap\ieee802_11_shared.c **** 	if (capab)
 2085              		.loc 1 1091 8 is_stmt 0
 2086 007e A183     		srli	a5,a5,8
 2087              	.LVL187:
1092:C:/Users/stapi/OneDrive/Desktop/GD32VW553/V1_MQTT_OK/GD32VW55X_Wifi_BLE_SDK/GD32VW55x_RELEASE_V1.0.2/MSDK/wpa_supplicant/src/ap\ieee802_11_shared.c **** 		*pos++ = capab;
 2088              		.loc 1 1092 2 is_stmt 1
1090:C:/Users/stapi/OneDrive/Desktop/GD32VW553/V1_MQTT_OK/GD32VW55X_Wifi_BLE_SDK/GD32VW55x_RELEASE_V1.0.2/MSDK/wpa_supplicant/src/ap\ieee802_11_shared.c **** 	capab >>= 8;
 2089              		.loc 1 1090 6 is_stmt 0
 2090 0080 13053400 		addi	a0,s0,3
 2091              	.LVL188:
1092:C:/Users/stapi/OneDrive/Desktop/GD32VW553/V1_MQTT_OK/GD32VW55X_Wifi_BLE_SDK/GD32VW55x_RELEASE_V1.0.2/MSDK/wpa_supplicant/src/ap\ieee802_11_shared.c **** 		*pos++ = capab;
 2092              		.loc 1 1092 5
 2093 0084 D1DB     		beq	a5,zero,.L197
1093:C:/Users/stapi/OneDrive/Desktop/GD32VW553/V1_MQTT_OK/GD32VW55X_Wifi_BLE_SDK/GD32VW55x_RELEASE_V1.0.2/MSDK/wpa_supplicant/src/ap\ieee802_11_shared.c **** 
 2094              		.loc 1 1093 3 is_stmt 1
1093:C:/Users/stapi/OneDrive/Desktop/GD32VW553/V1_MQTT_OK/GD32VW55X_Wifi_BLE_SDK/GD32VW55x_RELEASE_V1.0.2/MSDK/wpa_supplicant/src/ap\ieee802_11_shared.c **** 
 2095              		.loc 1 1093 7 is_stmt 0
 2096 0086 13054400 		addi	a0,s0,4
 2097              	.LVL189:
1093:C:/Users/stapi/OneDrive/Desktop/GD32VW553/V1_MQTT_OK/GD32VW55X_Wifi_BLE_SDK/GD32VW55x_RELEASE_V1.0.2/MSDK/wpa_supplicant/src/ap\ieee802_11_shared.c **** 
 2098              		.loc 1 1093 10
 2099 008a A301F400 		sb	a5,3(s0)
 2100              	.LVL190:
 2101 008e 69B7     		j	.L197
 2102              	.LVL191:
 2103              	.L200:
1066:C:/Users/stapi/OneDrive/Desktop/GD32VW553/V1_MQTT_OK/GD32VW55X_Wifi_BLE_SDK/GD32VW55x_RELEASE_V1.0.2/MSDK/wpa_supplicant/src/ap\ieee802_11_shared.c **** 	     hostapd_sae_pw_id_in_use(hapd->conf) || sae_pk) &&
 2104              		.loc 1 1066 32 discriminator 1
 2105 0090 8327C538 		lw	a5,908(a0)
1065:C:/Users/stapi/OneDrive/Desktop/GD32VW553/V1_MQTT_OK/GD32VW55X_Wifi_BLE_SDK/GD32VW55x_RELEASE_V1.0.2/MSDK/wpa_supplicant/src/ap\ieee802_11_shared.c **** 	    (hapd->conf->sae_pwe == 1 || hapd->conf->sae_pwe == 2 ||
 2106              		.loc 1 1065 49 discriminator 1
 2107 0094 0547     		li	a4,1
1066:C:/Users/stapi/OneDrive/Desktop/GD32VW553/V1_MQTT_OK/GD32VW55X_Wifi_BLE_SDK/GD32VW55x_RELEASE_V1.0.2/MSDK/wpa_supplicant/src/ap\ieee802_11_shared.c **** 	     hostapd_sae_pw_id_in_use(hapd->conf) || sae_pk) &&
 2108              		.loc 1 1066 32 discriminator 1
 2109 0096 FD17     		addi	a5,a5,-1
1065:C:/Users/stapi/OneDrive/Desktop/GD32VW553/V1_MQTT_OK/GD32VW55X_Wifi_BLE_SDK/GD32VW55x_RELEASE_V1.0.2/MSDK/wpa_supplicant/src/ap\ieee802_11_shared.c **** 	    (hapd->conf->sae_pwe == 1 || hapd->conf->sae_pwe == 2 ||
 2110              		.loc 1 1065 49 discriminator 1
 2111 0098 636BF700 		bgtu	a5,a4,.L202
 2112              	.LVL192:
 2113              	.L204:
1068:C:/Users/stapi/OneDrive/Desktop/GD32VW553/V1_MQTT_OK/GD32VW55X_Wifi_BLE_SDK/GD32VW55x_RELEASE_V1.0.2/MSDK/wpa_supplicant/src/ap\ieee802_11_shared.c **** 		capab |= BIT(WLAN_RSNX_CAPAB_SAE_H2E);
 2114              		.loc 1 1068 16
 2115 009c 9C44     		lw	a5,8(s1)
1067:C:/Users/stapi/OneDrive/Desktop/GD32VW553/V1_MQTT_OK/GD32VW55X_Wifi_BLE_SDK/GD32VW55x_RELEASE_V1.0.2/MSDK/wpa_supplicant/src/ap\ieee802_11_shared.c **** 	    hapd->conf->sae_pwe != 3) {
 2116              		.loc 1 1067 55
 2117 009e 0D47     		li	a4,3
 2118 00a0 83A6C738 		lw	a3,908(a5)
1069:C:/Users/stapi/OneDrive/Desktop/GD32VW553/V1_MQTT_OK/GD32VW55X_Wifi_BLE_SDK/GD32VW55x_RELEASE_V1.0.2/MSDK/wpa_supplicant/src/ap\ieee802_11_shared.c **** #ifdef CONFIG_SAE_PK
 2119              		.loc 1 1069 9
 2120 00a4 93070002 		li	a5,32
1067:C:/Users/stapi/OneDrive/Desktop/GD32VW553/V1_MQTT_OK/GD32VW55X_Wifi_BLE_SDK/GD32VW55x_RELEASE_V1.0.2/MSDK/wpa_supplicant/src/ap\ieee802_11_shared.c **** 	    hapd->conf->sae_pwe != 3) {
 2121              		.loc 1 1067 55
 2122 00a8 E395E6F8 		bne	a3,a4,.L201
 2123 00ac 51B7     		j	.L203
 2124              	.LVL193:
 2125              	.L202:
1067:C:/Users/stapi/OneDrive/Desktop/GD32VW553/V1_MQTT_OK/GD32VW55X_Wifi_BLE_SDK/GD32VW55x_RELEASE_V1.0.2/MSDK/wpa_supplicant/src/ap\ieee802_11_shared.c **** 	    hapd->conf->sae_pwe != 3) {
 2126              		.loc 1 1067 7
 2127 00ae 97000000 		call	hostapd_sae_pw_id_in_use
 2127      E7800000 
 2128              	.LVL194:
1066:C:/Users/stapi/OneDrive/Desktop/GD32VW553/V1_MQTT_OK/GD32VW55X_Wifi_BLE_SDK/GD32VW55x_RELEASE_V1.0.2/MSDK/wpa_supplicant/src/ap\ieee802_11_shared.c **** 	     hostapd_sae_pw_id_in_use(hapd->conf) || sae_pk) &&
 2129              		.loc 1 1066 60
 2130 00b6 7DF1     		bne	a0,zero,.L204
 2131 00b8 A5BF     		j	.L203
 2132              	.LVL195:
 2133              	.L209:
1083:C:/Users/stapi/OneDrive/Desktop/GD32VW553/V1_MQTT_OK/GD32VW55X_Wifi_BLE_SDK/GD32VW55x_RELEASE_V1.0.2/MSDK/wpa_supplicant/src/ap\ieee802_11_shared.c **** 	if (len < 2 + flen || !capab)
 2134              		.loc 1 1083 2 is_stmt 1
1083:C:/Users/stapi/OneDrive/Desktop/GD32VW553/V1_MQTT_OK/GD32VW55X_Wifi_BLE_SDK/GD32VW55x_RELEASE_V1.0.2/MSDK/wpa_supplicant/src/ap\ieee802_11_shared.c **** 	if (len < 2 + flen || !capab)
 2135              		.loc 1 1083 30 is_stmt 0
 2136 00ba 13F707F0 		andi	a4,a5,-256
 2137 00be 33470708 		zext.h	a4,a4
 2138 00c2 3337E000 		snez	a4,a4
 2139 00c6 0507     		addi	a4,a4,1
 2140 00c8 79B7     		j	.L211
 2141              		.cfi_endproc
 2142              	.LFE187:
 2144              		.text
 2145              	.Letext0:
 2146              		.file 6 "c:\\users\\stapi\\onedrive\\desktop\\gd32vw553\\embeddedbuilder_v1.4.7.26843\\tools\\nucl
 2147              		.file 7 "c:\\users\\stapi\\onedrive\\desktop\\gd32vw553\\embeddedbuilder_v1.4.7.26843\\tools\\nucl
 2148              		.file 8 "c:\\users\\stapi\\onedrive\\desktop\\gd32vw553\\embeddedbuilder_v1.4.7.26843\\tools\\nucl
 2149              		.file 9 "..\\..\\..\\..\\lwip\\lwip-2.1.2\\src\\include/lwip/arch.h"
 2150              		.file 10 "..\\..\\..\\..\\lwip\\lwip-2.1.2\\src\\include/lwip/inet.h"
 2151              		.file 11 "..\\..\\..\\..\\wpa_supplicant\\src/common/ieee802_11_defs.h"
 2152              		.file 12 "..\\..\\..\\..\\wpa_supplicant\\src/utils/wpa_debug.h"
 2153              		.file 13 "..\\..\\..\\..\\wpa_supplicant\\src/utils/list.h"
 2154              		.file 14 "..\\..\\..\\..\\wpa_supplicant\\src/utils/ip_addr.h"
 2155              		.file 15 "..\\..\\..\\..\\wpa_supplicant\\src/common/ieee802_11_common.h"
 2156              		.file 16 "..\\..\\..\\..\\wpa_supplicant\\src/wps/wps_defs.h"
 2157              		.file 17 "..\\..\\..\\..\\wpa_supplicant\\src/wps/wps.h"
 2158              		.file 18 "C:/Users/stapi/OneDrive/Desktop/GD32VW553/V1_MQTT_OK/GD32VW55X_Wifi_BLE_SDK/GD32VW55x_RE
 2159              		.file 19 "C:/Users/stapi/OneDrive/Desktop/GD32VW553/V1_MQTT_OK/GD32VW55X_Wifi_BLE_SDK/GD32VW55x_RE
 2160              		.file 20 "..\\..\\..\\..\\wpa_supplicant\\src/common/sae.h"
 2161              		.file 21 "..\\..\\..\\..\\wpa_supplicant\\src/drivers/driver.h"
 2162              		.file 22 "C:/Users/stapi/OneDrive/Desktop/GD32VW553/V1_MQTT_OK/GD32VW55X_Wifi_BLE_SDK/GD32VW55x_RE
 2163              		.file 23 "C:/Users/stapi/OneDrive/Desktop/GD32VW553/V1_MQTT_OK/GD32VW55X_Wifi_BLE_SDK/GD32VW55x_RE
 2164              		.file 24 "C:/Users/stapi/OneDrive/Desktop/GD32VW553/V1_MQTT_OK/GD32VW55X_Wifi_BLE_SDK/GD32VW55x_RE
 2165              		.file 25 "C:/Users/stapi/OneDrive/Desktop/GD32VW553/V1_MQTT_OK/GD32VW55X_Wifi_BLE_SDK/GD32VW55x_RE
DEFINED SYMBOLS
                            *ABS*:0000000000000000 ieee802_11_shared.c
C:\Users\stapi\AppData\Local\Temp\ccNAGkjl.s:13     .text.hostapd_eid_assoc_comeback_time:0000000000000000 hostapd_eid_assoc_comeback_time
C:\Users\stapi\AppData\Local\Temp\ccNAGkjl.s:17     .text.hostapd_eid_assoc_comeback_time:0000000000000000 .L0 
C:\Users\stapi\AppData\Local\Temp\ccNAGkjl.s:19     .text.hostapd_eid_assoc_comeback_time:0000000000000000 .L0 
C:\Users\stapi\AppData\Local\Temp\ccNAGkjl.s:20     .text.hostapd_eid_assoc_comeback_time:0000000000000008 .L0 
C:\Users\stapi\AppData\Local\Temp\ccNAGkjl.s:21     .text.hostapd_eid_assoc_comeback_time:0000000000000008 .L0 
C:\Users\stapi\AppData\Local\Temp\ccNAGkjl.s:22     .text.hostapd_eid_assoc_comeback_time:0000000000000008 .L0 
C:\Users\stapi\AppData\Local\Temp\ccNAGkjl.s:23     .text.hostapd_eid_assoc_comeback_time:0000000000000008 .L0 
C:\Users\stapi\AppData\Local\Temp\ccNAGkjl.s:24     .text.hostapd_eid_assoc_comeback_time:0000000000000008 .L0 
C:\Users\stapi\AppData\Local\Temp\ccNAGkjl.s:27     .text.hostapd_eid_assoc_comeback_time:0000000000000008 .L0 
C:\Users\stapi\AppData\Local\Temp\ccNAGkjl.s:28     .text.hostapd_eid_assoc_comeback_time:0000000000000008 .L0 
C:\Users\stapi\AppData\Local\Temp\ccNAGkjl.s:29     .text.hostapd_eid_assoc_comeback_time:0000000000000008 .L0 
C:\Users\stapi\AppData\Local\Temp\ccNAGkjl.s:30     .text.hostapd_eid_assoc_comeback_time:0000000000000008 .L0 
C:\Users\stapi\AppData\Local\Temp\ccNAGkjl.s:31     .text.hostapd_eid_assoc_comeback_time:0000000000000008 .L0 
C:\Users\stapi\AppData\Local\Temp\ccNAGkjl.s:35     .text.hostapd_eid_assoc_comeback_time:0000000000000010 .L0 
C:\Users\stapi\AppData\Local\Temp\ccNAGkjl.s:36     .text.hostapd_eid_assoc_comeback_time:0000000000000010 .L0 
C:\Users\stapi\AppData\Local\Temp\ccNAGkjl.s:38     .text.hostapd_eid_assoc_comeback_time:0000000000000012 .L0 
C:\Users\stapi\AppData\Local\Temp\ccNAGkjl.s:39     .text.hostapd_eid_assoc_comeback_time:0000000000000014 .L0 
C:\Users\stapi\AppData\Local\Temp\ccNAGkjl.s:41     .text.hostapd_eid_assoc_comeback_time:0000000000000014 .L0 
C:\Users\stapi\AppData\Local\Temp\ccNAGkjl.s:44     .text.hostapd_eid_assoc_comeback_time:0000000000000018 .L0 
C:\Users\stapi\AppData\Local\Temp\ccNAGkjl.s:45     .text.hostapd_eid_assoc_comeback_time:0000000000000018 .L0 
C:\Users\stapi\AppData\Local\Temp\ccNAGkjl.s:48     .text.hostapd_eid_assoc_comeback_time:000000000000001e .L0 
C:\Users\stapi\AppData\Local\Temp\ccNAGkjl.s:49     .text.hostapd_eid_assoc_comeback_time:000000000000001e .L0 
C:\Users\stapi\AppData\Local\Temp\ccNAGkjl.s:51     .text.hostapd_eid_assoc_comeback_time:0000000000000020 .L0 
C:\Users\stapi\AppData\Local\Temp\ccNAGkjl.s:54     .text.hostapd_eid_assoc_comeback_time:0000000000000022 .L0 
C:\Users\stapi\AppData\Local\Temp\ccNAGkjl.s:57     .text.hostapd_eid_assoc_comeback_time:0000000000000026 .L0 
C:\Users\stapi\AppData\Local\Temp\ccNAGkjl.s:63     .text.hostapd_eid_assoc_comeback_time:000000000000002e .L0 
C:\Users\stapi\AppData\Local\Temp\ccNAGkjl.s:64     .text.hostapd_eid_assoc_comeback_time:000000000000002e .L0 
C:\Users\stapi\AppData\Local\Temp\ccNAGkjl.s:65     .text.hostapd_eid_assoc_comeback_time:000000000000002e .L0 
C:\Users\stapi\AppData\Local\Temp\ccNAGkjl.s:68     .text.hostapd_eid_assoc_comeback_time:0000000000000034 .L0 
C:\Users\stapi\AppData\Local\Temp\ccNAGkjl.s:70     .text.hostapd_eid_assoc_comeback_time:0000000000000038 .L0 
C:\Users\stapi\AppData\Local\Temp\ccNAGkjl.s:73     .text.hostapd_eid_assoc_comeback_time:000000000000003a .L0 
C:\Users\stapi\AppData\Local\Temp\ccNAGkjl.s:74     .text.hostapd_eid_assoc_comeback_time:000000000000003a .L0 
C:\Users\stapi\AppData\Local\Temp\ccNAGkjl.s:78     .text.hostapd_eid_assoc_comeback_time:000000000000003e .L0 
C:\Users\stapi\AppData\Local\Temp\ccNAGkjl.s:79     .text.hostapd_eid_assoc_comeback_time:000000000000003e .L0 
C:\Users\stapi\AppData\Local\Temp\ccNAGkjl.s:81     .text.hostapd_eid_assoc_comeback_time:0000000000000042 .L0 
C:\Users\stapi\AppData\Local\Temp\ccNAGkjl.s:82     .text.hostapd_eid_assoc_comeback_time:0000000000000042 .L0 
C:\Users\stapi\AppData\Local\Temp\ccNAGkjl.s:85     .text.hostapd_eid_assoc_comeback_time:000000000000004a .L0 
C:\Users\stapi\AppData\Local\Temp\ccNAGkjl.s:88     .text.hostapd_eid_assoc_comeback_time:000000000000004c .L0 
C:\Users\stapi\AppData\Local\Temp\ccNAGkjl.s:89     .text.hostapd_eid_assoc_comeback_time:000000000000004c .L0 
C:\Users\stapi\AppData\Local\Temp\ccNAGkjl.s:95     .text.hostapd_eid_assoc_comeback_time:000000000000004e .L0 
C:\Users\stapi\AppData\Local\Temp\ccNAGkjl.s:96     .text.hostapd_eid_assoc_comeback_time:000000000000004e .L0 
C:\Users\stapi\AppData\Local\Temp\ccNAGkjl.s:101    .text.hostapd_eid_assoc_comeback_time:000000000000005a .L0 
C:\Users\stapi\AppData\Local\Temp\ccNAGkjl.s:106    .text.hostapd_eid_assoc_comeback_time:0000000000000062 .L0 
C:\Users\stapi\AppData\Local\Temp\ccNAGkjl.s:107    .text.hostapd_eid_assoc_comeback_time:0000000000000062 .L0 
C:\Users\stapi\AppData\Local\Temp\ccNAGkjl.s:110    .text.hostapd_eid_assoc_comeback_time:000000000000006a .L0 
C:\Users\stapi\AppData\Local\Temp\ccNAGkjl.s:112    .text.hostapd_eid_assoc_comeback_time:000000000000006c .L0 
C:\Users\stapi\AppData\Local\Temp\ccNAGkjl.s:114    .text.hostapd_eid_assoc_comeback_time:0000000000000070 .L0 
C:\Users\stapi\AppData\Local\Temp\ccNAGkjl.s:115    .text.hostapd_eid_assoc_comeback_time:0000000000000070 .L0 
C:\Users\stapi\AppData\Local\Temp\ccNAGkjl.s:119    .text.hostapd_eid_assoc_comeback_time:0000000000000074 .L0 
C:\Users\stapi\AppData\Local\Temp\ccNAGkjl.s:120    .text.hostapd_eid_assoc_comeback_time:0000000000000074 .L0 
C:\Users\stapi\AppData\Local\Temp\ccNAGkjl.s:122    .text.hostapd_eid_assoc_comeback_time:0000000000000078 .L0 
C:\Users\stapi\AppData\Local\Temp\ccNAGkjl.s:123    .text.hostapd_eid_assoc_comeback_time:0000000000000078 .L0 
C:\Users\stapi\AppData\Local\Temp\ccNAGkjl.s:130    .text.hostapd_eid_assoc_comeback_time:000000000000007a .L0 
C:\Users\stapi\AppData\Local\Temp\ccNAGkjl.s:131    .text.hostapd_eid_assoc_comeback_time:000000000000007a .L0 
C:\Users\stapi\AppData\Local\Temp\ccNAGkjl.s:132    .text.hostapd_eid_assoc_comeback_time:000000000000007a .L0 
C:\Users\stapi\AppData\Local\Temp\ccNAGkjl.s:135    .text.hostapd_eid_assoc_comeback_time:000000000000007e .L0 
C:\Users\stapi\AppData\Local\Temp\ccNAGkjl.s:137    .text.hostapd_eid_assoc_comeback_time:0000000000000082 .L0 
C:\Users\stapi\AppData\Local\Temp\ccNAGkjl.s:138    .text.hostapd_eid_assoc_comeback_time:0000000000000082 .L0 
C:\Users\stapi\AppData\Local\Temp\ccNAGkjl.s:140    .text.hostapd_eid_assoc_comeback_time:0000000000000086 .L0 
C:\Users\stapi\AppData\Local\Temp\ccNAGkjl.s:142    .text.hostapd_eid_assoc_comeback_time:000000000000008a .L0 
C:\Users\stapi\AppData\Local\Temp\ccNAGkjl.s:143    .text.hostapd_eid_assoc_comeback_time:000000000000008a .L0 
C:\Users\stapi\AppData\Local\Temp\ccNAGkjl.s:145    .text.hostapd_eid_assoc_comeback_time:000000000000008e .L0 
C:\Users\stapi\AppData\Local\Temp\ccNAGkjl.s:147    .text.hostapd_eid_assoc_comeback_time:0000000000000092 .L0 
C:\Users\stapi\AppData\Local\Temp\ccNAGkjl.s:148    .text.hostapd_eid_assoc_comeback_time:0000000000000092 .L0 
C:\Users\stapi\AppData\Local\Temp\ccNAGkjl.s:153    .text.hostapd_eid_assoc_comeback_time:0000000000000096 .L0 
C:\Users\stapi\AppData\Local\Temp\ccNAGkjl.s:154    .text.hostapd_eid_assoc_comeback_time:0000000000000096 .L0 
C:\Users\stapi\AppData\Local\Temp\ccNAGkjl.s:155    .text.hostapd_eid_assoc_comeback_time:0000000000000096 .L0 
C:\Users\stapi\AppData\Local\Temp\ccNAGkjl.s:158    .text.hostapd_eid_assoc_comeback_time:000000000000009c .L0 
C:\Users\stapi\AppData\Local\Temp\ccNAGkjl.s:160    .text.hostapd_eid_assoc_comeback_time:00000000000000a4 .L0 
C:\Users\stapi\AppData\Local\Temp\ccNAGkjl.s:161    .text.hostapd_eid_assoc_comeback_time:00000000000000a4 .L0 
C:\Users\stapi\AppData\Local\Temp\ccNAGkjl.s:162    .text.hostapd_eid_assoc_comeback_time:00000000000000a4 .L0 
C:\Users\stapi\AppData\Local\Temp\ccNAGkjl.s:163    .text.hostapd_eid_assoc_comeback_time:00000000000000a4 .L0 
C:\Users\stapi\AppData\Local\Temp\ccNAGkjl.s:164    .text.hostapd_eid_assoc_comeback_time:00000000000000a4 .L0 
C:\Users\stapi\AppData\Local\Temp\ccNAGkjl.s:165    .text.hostapd_eid_assoc_comeback_time:00000000000000a4 .L0 
C:\Users\stapi\AppData\Local\Temp\ccNAGkjl.s:185    .text.ieee802_11_send_sa_query_req:0000000000000000 ieee802_11_send_sa_query_req
C:\Users\stapi\AppData\Local\Temp\ccNAGkjl.s:188    .text.ieee802_11_send_sa_query_req:0000000000000000 .L0 
C:\Users\stapi\AppData\Local\Temp\ccNAGkjl.s:190    .text.ieee802_11_send_sa_query_req:0000000000000000 .L0 
C:\Users\stapi\AppData\Local\Temp\ccNAGkjl.s:191    .text.ieee802_11_send_sa_query_req:0000000000000008 .L0 
C:\Users\stapi\AppData\Local\Temp\ccNAGkjl.s:192    .text.ieee802_11_send_sa_query_req:0000000000000008 .L0 
C:\Users\stapi\AppData\Local\Temp\ccNAGkjl.s:193    .text.ieee802_11_send_sa_query_req:0000000000000008 .L0 
C:\Users\stapi\AppData\Local\Temp\ccNAGkjl.s:194    .text.ieee802_11_send_sa_query_req:0000000000000008 .L0 
C:\Users\stapi\AppData\Local\Temp\ccNAGkjl.s:195    .text.ieee802_11_send_sa_query_req:0000000000000008 .L0 
C:\Users\stapi\AppData\Local\Temp\ccNAGkjl.s:196    .text.ieee802_11_send_sa_query_req:0000000000000008 .L0 
C:\Users\stapi\AppData\Local\Temp\ccNAGkjl.s:198    .text.ieee802_11_send_sa_query_req:0000000000000008 .L0 
C:\Users\stapi\AppData\Local\Temp\ccNAGkjl.s:200    .text.ieee802_11_send_sa_query_req:0000000000000008 .L0 
C:\Users\stapi\AppData\Local\Temp\ccNAGkjl.s:201    .text.ieee802_11_send_sa_query_req:0000000000000008 .L0 
C:\Users\stapi\AppData\Local\Temp\ccNAGkjl.s:202    .text.ieee802_11_send_sa_query_req:0000000000000008 .L0 
C:\Users\stapi\AppData\Local\Temp\ccNAGkjl.s:203    .text.ieee802_11_send_sa_query_req:0000000000000008 .L0 
C:\Users\stapi\AppData\Local\Temp\ccNAGkjl.s:209    .text.ieee802_11_send_sa_query_req:000000000000001c .L0 
C:\Users\stapi\AppData\Local\Temp\ccNAGkjl.s:211    .text.ieee802_11_send_sa_query_req:000000000000001e .L0 
C:\Users\stapi\AppData\Local\Temp\ccNAGkjl.s:214    .text.ieee802_11_send_sa_query_req:0000000000000022 .L0 
C:\Users\stapi\AppData\Local\Temp\ccNAGkjl.s:216    .text.ieee802_11_send_sa_query_req:0000000000000024 .L0 
C:\Users\stapi\AppData\Local\Temp\ccNAGkjl.s:219    .text.ieee802_11_send_sa_query_req:0000000000000028 .L0 
C:\Users\stapi\AppData\Local\Temp\ccNAGkjl.s:220    .text.ieee802_11_send_sa_query_req:000000000000002a .L0 
C:\Users\stapi\AppData\Local\Temp\ccNAGkjl.s:222    .text.ieee802_11_send_sa_query_req:000000000000002a .L0 
C:\Users\stapi\AppData\Local\Temp\ccNAGkjl.s:224    .text.ieee802_11_send_sa_query_req:000000000000002e .L0 
C:\Users\stapi\AppData\Local\Temp\ccNAGkjl.s:226    .text.ieee802_11_send_sa_query_req:0000000000000030 .L0 
C:\Users\stapi\AppData\Local\Temp\ccNAGkjl.s:231    .text.ieee802_11_send_sa_query_req:000000000000003a .L0 
C:\Users\stapi\AppData\Local\Temp\ccNAGkjl.s:239    .text.ieee802_11_send_sa_query_req:0000000000000050 .L0 
C:\Users\stapi\AppData\Local\Temp\ccNAGkjl.s:240    .text.ieee802_11_send_sa_query_req:0000000000000050 .L0 
C:\Users\stapi\AppData\Local\Temp\ccNAGkjl.s:244    .text.ieee802_11_send_sa_query_req:000000000000005c .L0 
C:\Users\stapi\AppData\Local\Temp\ccNAGkjl.s:245    .text.ieee802_11_send_sa_query_req:000000000000005c .L0 
C:\Users\stapi\AppData\Local\Temp\ccNAGkjl.s:247    .text.ieee802_11_send_sa_query_req:000000000000005e .L0 
C:\Users\stapi\AppData\Local\Temp\ccNAGkjl.s:255    .text.ieee802_11_send_sa_query_req:0000000000000070 .L0 
C:\Users\stapi\AppData\Local\Temp\ccNAGkjl.s:256    .text.ieee802_11_send_sa_query_req:0000000000000070 .L0 
C:\Users\stapi\AppData\Local\Temp\ccNAGkjl.s:260    .text.ieee802_11_send_sa_query_req:000000000000007a .L0 
C:\Users\stapi\AppData\Local\Temp\ccNAGkjl.s:261    .text.ieee802_11_send_sa_query_req:000000000000007c .L0 
C:\Users\stapi\AppData\Local\Temp\ccNAGkjl.s:262    .text.ieee802_11_send_sa_query_req:000000000000007c .L0 
C:\Users\stapi\AppData\Local\Temp\ccNAGkjl.s:264    .text.ieee802_11_send_sa_query_req:0000000000000084 .L0 
C:\Users\stapi\AppData\Local\Temp\ccNAGkjl.s:265    .text.ieee802_11_send_sa_query_req:0000000000000084 .L0 
C:\Users\stapi\AppData\Local\Temp\ccNAGkjl.s:266    .text.ieee802_11_send_sa_query_req:0000000000000084 .L0 
C:\Users\stapi\AppData\Local\Temp\ccNAGkjl.s:267    .text.ieee802_11_send_sa_query_req:0000000000000084 .L0 
C:\Users\stapi\AppData\Local\Temp\ccNAGkjl.s:268    .text.ieee802_11_send_sa_query_req:0000000000000084 .L0 
C:\Users\stapi\AppData\Local\Temp\ccNAGkjl.s:269    .text.ieee802_11_send_sa_query_req:0000000000000084 .L0 
C:\Users\stapi\AppData\Local\Temp\ccNAGkjl.s:272    .text.ieee802_11_send_sa_query_req:0000000000000084 .L0 
C:\Users\stapi\AppData\Local\Temp\ccNAGkjl.s:274    .text.ieee802_11_send_sa_query_req:0000000000000084 .L0 
C:\Users\stapi\AppData\Local\Temp\ccNAGkjl.s:277    .text.ieee802_11_send_sa_query_req:000000000000008a .L0 
C:\Users\stapi\AppData\Local\Temp\ccNAGkjl.s:278    .text.ieee802_11_send_sa_query_req:000000000000008a .L0 
C:\Users\stapi\AppData\Local\Temp\ccNAGkjl.s:281    .text.ieee802_11_send_sa_query_req:0000000000000092 .L0 
C:\Users\stapi\AppData\Local\Temp\ccNAGkjl.s:288    .text.ieee802_11_send_sa_query_req:00000000000000a0 .L0 
C:\Users\stapi\AppData\Local\Temp\ccNAGkjl.s:289    .text.ieee802_11_send_sa_query_req:00000000000000a0 .L0 
C:\Users\stapi\AppData\Local\Temp\ccNAGkjl.s:291    .text.ieee802_11_send_sa_query_req:00000000000000a4 .L0 
C:\Users\stapi\AppData\Local\Temp\ccNAGkjl.s:297    .text.ieee802_11_send_sa_query_req:00000000000000b4 .L0 
C:\Users\stapi\AppData\Local\Temp\ccNAGkjl.s:303    .text.ieee802_11_send_sa_query_req:00000000000000c4 .L0 
C:\Users\stapi\AppData\Local\Temp\ccNAGkjl.s:304    .text.ieee802_11_send_sa_query_req:00000000000000c4 .L0 
C:\Users\stapi\AppData\Local\Temp\ccNAGkjl.s:307    .text.ieee802_11_send_sa_query_req:00000000000000ca .L0 
C:\Users\stapi\AppData\Local\Temp\ccNAGkjl.s:308    .text.ieee802_11_send_sa_query_req:00000000000000ca .L0 
C:\Users\stapi\AppData\Local\Temp\ccNAGkjl.s:311    .text.ieee802_11_send_sa_query_req:00000000000000ce .L0 
C:\Users\stapi\AppData\Local\Temp\ccNAGkjl.s:313    .text.ieee802_11_send_sa_query_req:00000000000000d2 .L0 
C:\Users\stapi\AppData\Local\Temp\ccNAGkjl.s:317    .text.ieee802_11_send_sa_query_req:00000000000000de .L0 
C:\Users\stapi\AppData\Local\Temp\ccNAGkjl.s:318    .text.ieee802_11_send_sa_query_req:00000000000000de .L0 
C:\Users\stapi\AppData\Local\Temp\ccNAGkjl.s:319    .text.ieee802_11_send_sa_query_req:00000000000000de .L0 
C:\Users\stapi\AppData\Local\Temp\ccNAGkjl.s:329    .text.ieee802_11_send_sa_query_req:00000000000000f4 .L0 
C:\Users\stapi\AppData\Local\Temp\ccNAGkjl.s:331    .text.ieee802_11_send_sa_query_req:00000000000000f8 .L0 
C:\Users\stapi\AppData\Local\Temp\ccNAGkjl.s:338    .text.ieee802_11_send_sa_query_req:000000000000010a .L0 
C:\Users\stapi\AppData\Local\Temp\ccNAGkjl.s:342    .text.ieee802_11_send_sa_query_req:0000000000000116 .L0 
C:\Users\stapi\AppData\Local\Temp\ccNAGkjl.s:380    .text.ieee802_11_sa_query_action:0000000000000000 ieee802_11_sa_query_action
C:\Users\stapi\AppData\Local\Temp\ccNAGkjl.s:383    .text.ieee802_11_sa_query_action:0000000000000000 .L0 
C:\Users\stapi\AppData\Local\Temp\ccNAGkjl.s:385    .text.ieee802_11_sa_query_action:0000000000000000 .L0 
C:\Users\stapi\AppData\Local\Temp\ccNAGkjl.s:386    .text.ieee802_11_sa_query_action:0000000000000008 .L0 
C:\Users\stapi\AppData\Local\Temp\ccNAGkjl.s:387    .text.ieee802_11_sa_query_action:0000000000000008 .L0 
C:\Users\stapi\AppData\Local\Temp\ccNAGkjl.s:388    .text.ieee802_11_sa_query_action:0000000000000008 .L0 
C:\Users\stapi\AppData\Local\Temp\ccNAGkjl.s:389    .text.ieee802_11_sa_query_action:0000000000000008 .L0 
C:\Users\stapi\AppData\Local\Temp\ccNAGkjl.s:390    .text.ieee802_11_sa_query_action:0000000000000008 .L0 
C:\Users\stapi\AppData\Local\Temp\ccNAGkjl.s:391    .text.ieee802_11_sa_query_action:0000000000000008 .L0 
C:\Users\stapi\AppData\Local\Temp\ccNAGkjl.s:392    .text.ieee802_11_sa_query_action:0000000000000008 .L0 
C:\Users\stapi\AppData\Local\Temp\ccNAGkjl.s:394    .text.ieee802_11_sa_query_action:0000000000000008 .L0 
C:\Users\stapi\AppData\Local\Temp\ccNAGkjl.s:395    .text.ieee802_11_sa_query_action:0000000000000008 .L0 
C:\Users\stapi\AppData\Local\Temp\ccNAGkjl.s:397    .text.ieee802_11_sa_query_action:0000000000000008 .L0 
C:\Users\stapi\AppData\Local\Temp\ccNAGkjl.s:398    .text.ieee802_11_sa_query_action:0000000000000008 .L0 
C:\Users\stapi\AppData\Local\Temp\ccNAGkjl.s:399    .text.ieee802_11_sa_query_action:0000000000000008 .L0 
C:\Users\stapi\AppData\Local\Temp\ccNAGkjl.s:400    .text.ieee802_11_sa_query_action:0000000000000008 .L0 
C:\Users\stapi\AppData\Local\Temp\ccNAGkjl.s:401    .text.ieee802_11_sa_query_action:0000000000000008 .L0 
C:\Users\stapi\AppData\Local\Temp\ccNAGkjl.s:403    .text.ieee802_11_sa_query_action:000000000000000c .L0 
C:\Users\stapi\AppData\Local\Temp\ccNAGkjl.s:405    .text.ieee802_11_sa_query_action:0000000000000010 .L0 
C:\Users\stapi\AppData\Local\Temp\ccNAGkjl.s:406    .text.ieee802_11_sa_query_action:0000000000000012 .L0 
C:\Users\stapi\AppData\Local\Temp\ccNAGkjl.s:408    .text.ieee802_11_sa_query_action:0000000000000012 .L0 
C:\Users\stapi\AppData\Local\Temp\ccNAGkjl.s:410    .text.ieee802_11_sa_query_action:0000000000000016 .L0 
C:\Users\stapi\AppData\Local\Temp\ccNAGkjl.s:416    .text.ieee802_11_sa_query_action:000000000000001e .L0 
C:\Users\stapi\AppData\Local\Temp\ccNAGkjl.s:420    .text.ieee802_11_sa_query_action:0000000000000028 .L0 
C:\Users\stapi\AppData\Local\Temp\ccNAGkjl.s:426    .text.ieee802_11_sa_query_action:000000000000002a .L0 
C:\Users\stapi\AppData\Local\Temp\ccNAGkjl.s:435    .text.ieee802_11_sa_query_action:0000000000000030 .L0 
C:\Users\stapi\AppData\Local\Temp\ccNAGkjl.s:438    .text.ieee802_11_sa_query_action:0000000000000030 .L0 
C:\Users\stapi\AppData\Local\Temp\ccNAGkjl.s:439    .text.ieee802_11_sa_query_action:0000000000000030 .L0 
C:\Users\stapi\AppData\Local\Temp\ccNAGkjl.s:443    .text.ieee802_11_sa_query_action:0000000000000036 .L0 
C:\Users\stapi\AppData\Local\Temp\ccNAGkjl.s:469    .text.ieee802_11_sa_query_action:0000000000000080 .L0 
C:\Users\stapi\AppData\Local\Temp\ccNAGkjl.s:470    .text.ieee802_11_sa_query_action:0000000000000080 .L0 
C:\Users\stapi\AppData\Local\Temp\ccNAGkjl.s:471    .text.ieee802_11_sa_query_action:0000000000000082 .L0 
C:\Users\stapi\AppData\Local\Temp\ccNAGkjl.s:472    .text.ieee802_11_sa_query_action:0000000000000082 .L0 
C:\Users\stapi\AppData\Local\Temp\ccNAGkjl.s:474    .text.ieee802_11_sa_query_action:000000000000008a .L0 
C:\Users\stapi\AppData\Local\Temp\ccNAGkjl.s:475    .text.ieee802_11_sa_query_action:000000000000008a .L0 
C:\Users\stapi\AppData\Local\Temp\ccNAGkjl.s:476    .text.ieee802_11_sa_query_action:000000000000008a .L0 
C:\Users\stapi\AppData\Local\Temp\ccNAGkjl.s:477    .text.ieee802_11_sa_query_action:000000000000008a .L0 
C:\Users\stapi\AppData\Local\Temp\ccNAGkjl.s:478    .text.ieee802_11_sa_query_action:000000000000008a .L0 
C:\Users\stapi\AppData\Local\Temp\ccNAGkjl.s:479    .text.ieee802_11_sa_query_action:000000000000008a .L0 
C:\Users\stapi\AppData\Local\Temp\ccNAGkjl.s:480    .text.ieee802_11_sa_query_action:000000000000008a .L0 
C:\Users\stapi\AppData\Local\Temp\ccNAGkjl.s:483    .text.ieee802_11_sa_query_action:000000000000008a .L0 
C:\Users\stapi\AppData\Local\Temp\ccNAGkjl.s:485    .text.ieee802_11_sa_query_action:000000000000008a .L0 
C:\Users\stapi\AppData\Local\Temp\ccNAGkjl.s:487    .text.ieee802_11_sa_query_action:000000000000008e .L0 
C:\Users\stapi\AppData\Local\Temp\ccNAGkjl.s:489    .text.ieee802_11_sa_query_action:0000000000000092 .L0 
C:\Users\stapi\AppData\Local\Temp\ccNAGkjl.s:491    .text.ieee802_11_sa_query_action:0000000000000096 .L0 
C:\Users\stapi\AppData\Local\Temp\ccNAGkjl.s:492    .text.ieee802_11_sa_query_action:0000000000000096 .L0 
C:\Users\stapi\AppData\Local\Temp\ccNAGkjl.s:494    .text.ieee802_11_sa_query_action:0000000000000098 .L0 
C:\Users\stapi\AppData\Local\Temp\ccNAGkjl.s:497    .text.ieee802_11_sa_query_action:000000000000009c .L0 
C:\Users\stapi\AppData\Local\Temp\ccNAGkjl.s:500    .text.ieee802_11_sa_query_action:00000000000000a4 .L0 
C:\Users\stapi\AppData\Local\Temp\ccNAGkjl.s:502    .text.ieee802_11_sa_query_action:00000000000000a6 .L0 
C:\Users\stapi\AppData\Local\Temp\ccNAGkjl.s:505    .text.ieee802_11_sa_query_action:00000000000000a8 .L0 
C:\Users\stapi\AppData\Local\Temp\ccNAGkjl.s:506    .text.ieee802_11_sa_query_action:00000000000000a8 .L0 
C:\Users\stapi\AppData\Local\Temp\ccNAGkjl.s:508    .text.ieee802_11_sa_query_action:00000000000000ac .L0 
C:\Users\stapi\AppData\Local\Temp\ccNAGkjl.s:509    .text.ieee802_11_sa_query_action:00000000000000ac .L0 
C:\Users\stapi\AppData\Local\Temp\ccNAGkjl.s:511    .text.ieee802_11_sa_query_action:00000000000000ae .L0 
C:\Users\stapi\AppData\Local\Temp\ccNAGkjl.s:512    .text.ieee802_11_sa_query_action:00000000000000ae .L0 
C:\Users\stapi\AppData\Local\Temp\ccNAGkjl.s:520    .text.ieee802_11_sa_query_action:00000000000000ba .L0 
C:\Users\stapi\AppData\Local\Temp\ccNAGkjl.s:521    .text.ieee802_11_sa_query_action:00000000000000ba .L0 
C:\Users\stapi\AppData\Local\Temp\ccNAGkjl.s:522    .text.ieee802_11_sa_query_action:00000000000000ba .L0 
C:\Users\stapi\AppData\Local\Temp\ccNAGkjl.s:523    .text.ieee802_11_sa_query_action:00000000000000ba .L0 
C:\Users\stapi\AppData\Local\Temp\ccNAGkjl.s:524    .text.ieee802_11_sa_query_action:00000000000000ba .L0 
C:\Users\stapi\AppData\Local\Temp\ccNAGkjl.s:525    .text.ieee802_11_sa_query_action:00000000000000ba .L0 
C:\Users\stapi\AppData\Local\Temp\ccNAGkjl.s:526    .text.ieee802_11_sa_query_action:00000000000000ba .L0 
C:\Users\stapi\AppData\Local\Temp\ccNAGkjl.s:538    .text.ieee802_11_sa_query_action:00000000000000e4 .L0 
C:\Users\stapi\AppData\Local\Temp\ccNAGkjl.s:546    .text.ieee802_11_sa_query_action:00000000000000fa .L0 
C:\Users\stapi\AppData\Local\Temp\ccNAGkjl.s:547    .text.ieee802_11_sa_query_action:00000000000000fa .L0 
C:\Users\stapi\AppData\Local\Temp\ccNAGkjl.s:552    .text.ieee802_11_sa_query_action:0000000000000106 .L0 
C:\Users\stapi\AppData\Local\Temp\ccNAGkjl.s:553    .text.ieee802_11_sa_query_action:0000000000000106 .L0 
C:\Users\stapi\AppData\Local\Temp\ccNAGkjl.s:555    .text.ieee802_11_sa_query_action:0000000000000108 .L0 
C:\Users\stapi\AppData\Local\Temp\ccNAGkjl.s:558    .text.ieee802_11_sa_query_action:000000000000010c .L0 
C:\Users\stapi\AppData\Local\Temp\ccNAGkjl.s:561    .text.ieee802_11_sa_query_action:000000000000010e .L0 
C:\Users\stapi\AppData\Local\Temp\ccNAGkjl.s:574    .text.ieee802_11_sa_query_action:0000000000000138 .L0 
C:\Users\stapi\AppData\Local\Temp\ccNAGkjl.s:578    .text.ieee802_11_sa_query_action:000000000000013a .L0 
C:\Users\stapi\AppData\Local\Temp\ccNAGkjl.s:579    .text.ieee802_11_sa_query_action:000000000000013a .L0 
C:\Users\stapi\AppData\Local\Temp\ccNAGkjl.s:586    .text.ieee802_11_sa_query_action:0000000000000148 .L0 
C:\Users\stapi\AppData\Local\Temp\ccNAGkjl.s:587    .text.ieee802_11_sa_query_action:0000000000000148 .L0 
C:\Users\stapi\AppData\Local\Temp\ccNAGkjl.s:589    .text.ieee802_11_sa_query_action:000000000000014a .L0 
C:\Users\stapi\AppData\Local\Temp\ccNAGkjl.s:596    .text.ieee802_11_sa_query_action:000000000000015c .L0 
C:\Users\stapi\AppData\Local\Temp\ccNAGkjl.s:597    .text.ieee802_11_sa_query_action:000000000000015c .L0 
C:\Users\stapi\AppData\Local\Temp\ccNAGkjl.s:603    .text.ieee802_11_sa_query_action:0000000000000168 .L0 
C:\Users\stapi\AppData\Local\Temp\ccNAGkjl.s:615    .text.ieee802_11_sa_query_action:0000000000000192 .L0 
C:\Users\stapi\AppData\Local\Temp\ccNAGkjl.s:616    .text.ieee802_11_sa_query_action:0000000000000192 .L0 
C:\Users\stapi\AppData\Local\Temp\ccNAGkjl.s:619    .text.ieee802_11_sa_query_action:000000000000019a .L0 
C:\Users\stapi\AppData\Local\Temp\ccNAGkjl.s:622    .text.ieee802_11_sa_query_action:000000000000019e .L0 
C:\Users\stapi\AppData\Local\Temp\ccNAGkjl.s:624    .text.ieee802_11_sa_query_action:00000000000001a2 .L0 
C:\Users\stapi\AppData\Local\Temp\ccNAGkjl.s:628    .text.ieee802_11_sa_query_action:00000000000001ae .L0 
C:\Users\stapi\AppData\Local\Temp\ccNAGkjl.s:629    .text.ieee802_11_sa_query_action:00000000000001ae .L0 
C:\Users\stapi\AppData\Local\Temp\ccNAGkjl.s:631    .text.ieee802_11_sa_query_action:00000000000001b2 .L0 
C:\Users\stapi\AppData\Local\Temp\ccNAGkjl.s:637    .text.ieee802_11_sa_query_action:00000000000001c2 .L0 
C:\Users\stapi\AppData\Local\Temp\ccNAGkjl.s:643    .text.ieee802_11_sa_query_action:00000000000001d2 .L0 
C:\Users\stapi\AppData\Local\Temp\ccNAGkjl.s:644    .text.ieee802_11_sa_query_action:00000000000001d2 .L0 
C:\Users\stapi\AppData\Local\Temp\ccNAGkjl.s:647    .text.ieee802_11_sa_query_action:00000000000001d8 .L0 
C:\Users\stapi\AppData\Local\Temp\ccNAGkjl.s:648    .text.ieee802_11_sa_query_action:00000000000001d8 .L0 
C:\Users\stapi\AppData\Local\Temp\ccNAGkjl.s:651    .text.ieee802_11_sa_query_action:00000000000001de .L0 
C:\Users\stapi\AppData\Local\Temp\ccNAGkjl.s:657    .text.ieee802_11_sa_query_action:00000000000001ee .L0 
C:\Users\stapi\AppData\Local\Temp\ccNAGkjl.s:658    .text.ieee802_11_sa_query_action:00000000000001ee .L0 
C:\Users\stapi\AppData\Local\Temp\ccNAGkjl.s:659    .text.ieee802_11_sa_query_action:00000000000001ee .L0 
C:\Users\stapi\AppData\Local\Temp\ccNAGkjl.s:669    .text.ieee802_11_sa_query_action:0000000000000204 .L0 
C:\Users\stapi\AppData\Local\Temp\ccNAGkjl.s:671    .text.ieee802_11_sa_query_action:0000000000000208 .L0 
C:\Users\stapi\AppData\Local\Temp\ccNAGkjl.s:678    .text.ieee802_11_sa_query_action:000000000000021a .L0 
C:\Users\stapi\AppData\Local\Temp\ccNAGkjl.s:687    .text.ieee802_11_sa_query_action:0000000000000226 .L0 
C:\Users\stapi\AppData\Local\Temp\ccNAGkjl.s:688    .text.ieee802_11_sa_query_action:0000000000000226 .L0 
C:\Users\stapi\AppData\Local\Temp\ccNAGkjl.s:691    .text.ieee802_11_sa_query_action:000000000000022c .L0 
C:\Users\stapi\AppData\Local\Temp\ccNAGkjl.s:696    .text.ieee802_11_sa_query_action:0000000000000236 .L0 
C:\Users\stapi\AppData\Local\Temp\ccNAGkjl.s:708    .text.ieee802_11_sa_query_action:0000000000000260 .L0 
C:\Users\stapi\AppData\Local\Temp\ccNAGkjl.s:716    .text.ieee802_11_sa_query_action:0000000000000276 .L0 
C:\Users\stapi\AppData\Local\Temp\ccNAGkjl.s:717    .text.ieee802_11_sa_query_action:0000000000000276 .L0 
C:\Users\stapi\AppData\Local\Temp\ccNAGkjl.s:719    .text.ieee802_11_sa_query_action:0000000000000278 .L0 
C:\Users\stapi\AppData\Local\Temp\ccNAGkjl.s:721    .text.ieee802_11_sa_query_action:000000000000027c .L0 
C:\Users\stapi\AppData\Local\Temp\ccNAGkjl.s:724    .text.ieee802_11_sa_query_action:000000000000027e .L0 
C:\Users\stapi\AppData\Local\Temp\ccNAGkjl.s:727    .text.ieee802_11_sa_query_action:0000000000000280 .L0 
C:\Users\stapi\AppData\Local\Temp\ccNAGkjl.s:731    .text.ieee802_11_sa_query_action:0000000000000288 .L0 
C:\Users\stapi\AppData\Local\Temp\ccNAGkjl.s:735    .text.ieee802_11_sa_query_action:0000000000000292 .L0 
C:\Users\stapi\AppData\Local\Temp\ccNAGkjl.s:739    .text.ieee802_11_sa_query_action:0000000000000294 .L0 
C:\Users\stapi\AppData\Local\Temp\ccNAGkjl.s:740    .text.ieee802_11_sa_query_action:0000000000000294 .L0 
C:\Users\stapi\AppData\Local\Temp\ccNAGkjl.s:742    .text.ieee802_11_sa_query_action:0000000000000298 .L0 
C:\Users\stapi\AppData\Local\Temp\ccNAGkjl.s:748    .text.ieee802_11_sa_query_action:00000000000002a8 .L0 
C:\Users\stapi\AppData\Local\Temp\ccNAGkjl.s:750    .text.ieee802_11_sa_query_action:00000000000002aa .L0 
C:\Users\stapi\AppData\Local\Temp\ccNAGkjl.s:751    .text.ieee802_11_sa_query_action:00000000000002aa .L0 
C:\Users\stapi\AppData\Local\Temp\ccNAGkjl.s:755    .text.ieee802_11_sa_query_action:00000000000002ac .L0 
C:\Users\stapi\AppData\Local\Temp\ccNAGkjl.s:756    .text.ieee802_11_sa_query_action:00000000000002ac .L0 
C:\Users\stapi\AppData\Local\Temp\ccNAGkjl.s:760    .text.ieee802_11_sa_query_action:00000000000002b4 .L0 
C:\Users\stapi\AppData\Local\Temp\ccNAGkjl.s:765    .text.ieee802_11_sa_query_action:00000000000002be .L0 
C:\Users\stapi\AppData\Local\Temp\ccNAGkjl.s:766    .text.ieee802_11_sa_query_action:00000000000002be .L0 
C:\Users\stapi\AppData\Local\Temp\ccNAGkjl.s:769    .text.ieee802_11_sa_query_action:00000000000002c6 .L0 
C:\Users\stapi\AppData\Local\Temp\ccNAGkjl.s:770    .text.ieee802_11_sa_query_action:00000000000002c6 .L0 
C:\Users\stapi\AppData\Local\Temp\ccNAGkjl.s:771    .text.ieee802_11_sa_query_action:00000000000002c6 .L0 
C:\Users\stapi\AppData\Local\Temp\ccNAGkjl.s:772    .text.ieee802_11_sa_query_action:00000000000002c6 .L0 
C:\Users\stapi\AppData\Local\Temp\ccNAGkjl.s:777    .text.ieee802_11_sa_query_action:00000000000002d4 .L0 
C:\Users\stapi\AppData\Local\Temp\ccNAGkjl.s:784    .text.hostapd_eid_ext_capab:0000000000000000 hostapd_eid_ext_capab
C:\Users\stapi\AppData\Local\Temp\ccNAGkjl.s:787    .text.hostapd_eid_ext_capab:0000000000000000 .L0 
C:\Users\stapi\AppData\Local\Temp\ccNAGkjl.s:789    .text.hostapd_eid_ext_capab:0000000000000000 .L0 
C:\Users\stapi\AppData\Local\Temp\ccNAGkjl.s:790    .text.hostapd_eid_ext_capab:0000000000000008 .L0 
C:\Users\stapi\AppData\Local\Temp\ccNAGkjl.s:791    .text.hostapd_eid_ext_capab:0000000000000008 .L0 
C:\Users\stapi\AppData\Local\Temp\ccNAGkjl.s:792    .text.hostapd_eid_ext_capab:0000000000000008 .L0 
C:\Users\stapi\AppData\Local\Temp\ccNAGkjl.s:793    .text.hostapd_eid_ext_capab:0000000000000008 .L0 
C:\Users\stapi\AppData\Local\Temp\ccNAGkjl.s:794    .text.hostapd_eid_ext_capab:0000000000000008 .L0 
C:\Users\stapi\AppData\Local\Temp\ccNAGkjl.s:795    .text.hostapd_eid_ext_capab:0000000000000008 .L0 
C:\Users\stapi\AppData\Local\Temp\ccNAGkjl.s:796    .text.hostapd_eid_ext_capab:0000000000000008 .L0 
C:\Users\stapi\AppData\Local\Temp\ccNAGkjl.s:797    .text.hostapd_eid_ext_capab:0000000000000008 .L0 
C:\Users\stapi\AppData\Local\Temp\ccNAGkjl.s:798    .text.hostapd_eid_ext_capab:0000000000000008 .L0 
C:\Users\stapi\AppData\Local\Temp\ccNAGkjl.s:799    .text.hostapd_eid_ext_capab:0000000000000008 .L0 
C:\Users\stapi\AppData\Local\Temp\ccNAGkjl.s:800    .text.hostapd_eid_ext_capab:0000000000000008 .L0 
C:\Users\stapi\AppData\Local\Temp\ccNAGkjl.s:801    .text.hostapd_eid_ext_capab:0000000000000008 .L0 
C:\Users\stapi\AppData\Local\Temp\ccNAGkjl.s:802    .text.hostapd_eid_ext_capab:0000000000000008 .L0 
C:\Users\stapi\AppData\Local\Temp\ccNAGkjl.s:803    .text.hostapd_eid_ext_capab:0000000000000008 .L0 
C:\Users\stapi\AppData\Local\Temp\ccNAGkjl.s:806    .text.hostapd_eid_ext_capab:0000000000000008 .L0 
C:\Users\stapi\AppData\Local\Temp\ccNAGkjl.s:807    .text.hostapd_eid_ext_capab:0000000000000008 .L0 
C:\Users\stapi\AppData\Local\Temp\ccNAGkjl.s:808    .text.hostapd_eid_ext_capab:0000000000000008 .L0 
C:\Users\stapi\AppData\Local\Temp\ccNAGkjl.s:809    .text.hostapd_eid_ext_capab:0000000000000008 .L0 
C:\Users\stapi\AppData\Local\Temp\ccNAGkjl.s:819    .text.hostapd_eid_ext_capab:0000000000000014 .L0 
C:\Users\stapi\AppData\Local\Temp\ccNAGkjl.s:825    .text.hostapd_eid_ext_capab:0000000000000016 .L0 
C:\Users\stapi\AppData\Local\Temp\ccNAGkjl.s:828    .text.hostapd_eid_ext_capab:000000000000001c .L0 
C:\Users\stapi\AppData\Local\Temp\ccNAGkjl.s:832    .text.hostapd_eid_ext_capab:0000000000000024 .L0 
C:\Users\stapi\AppData\Local\Temp\ccNAGkjl.s:833    .text.hostapd_eid_ext_capab:0000000000000024 .L0 
C:\Users\stapi\AppData\Local\Temp\ccNAGkjl.s:835    .text.hostapd_eid_ext_capab:0000000000000026 .L0 
C:\Users\stapi\AppData\Local\Temp\ccNAGkjl.s:837    .text.hostapd_eid_ext_capab:000000000000002a .L0 
C:\Users\stapi\AppData\Local\Temp\ccNAGkjl.s:838    .text.hostapd_eid_ext_capab:000000000000002a .L0 
C:\Users\stapi\AppData\Local\Temp\ccNAGkjl.s:841    .text.hostapd_eid_ext_capab:000000000000002e .L0 
C:\Users\stapi\AppData\Local\Temp\ccNAGkjl.s:844    .text.hostapd_eid_ext_capab:0000000000000032 .L0 
C:\Users\stapi\AppData\Local\Temp\ccNAGkjl.s:849    .text.hostapd_eid_ext_capab:0000000000000038 .L0 
C:\Users\stapi\AppData\Local\Temp\ccNAGkjl.s:853    .text.hostapd_eid_ext_capab:000000000000003c .L0 
C:\Users\stapi\AppData\Local\Temp\ccNAGkjl.s:858    .text.hostapd_eid_ext_capab:0000000000000040 .L0 
C:\Users\stapi\AppData\Local\Temp\ccNAGkjl.s:861    .text.hostapd_eid_ext_capab:0000000000000042 .L0 
C:\Users\stapi\AppData\Local\Temp\ccNAGkjl.s:869    .text.hostapd_eid_ext_capab:0000000000000048 .L0 
C:\Users\stapi\AppData\Local\Temp\ccNAGkjl.s:870    .text.hostapd_eid_ext_capab:0000000000000048 .L0 
C:\Users\stapi\AppData\Local\Temp\ccNAGkjl.s:876    .text.hostapd_eid_ext_capab:0000000000000054 .L0 
C:\Users\stapi\AppData\Local\Temp\ccNAGkjl.s:878    .text.hostapd_eid_ext_capab:0000000000000058 .L0 
C:\Users\stapi\AppData\Local\Temp\ccNAGkjl.s:882    .text.hostapd_eid_ext_capab:0000000000000062 .L0 
C:\Users\stapi\AppData\Local\Temp\ccNAGkjl.s:883    .text.hostapd_eid_ext_capab:0000000000000062 .L0 
C:\Users\stapi\AppData\Local\Temp\ccNAGkjl.s:884    .text.hostapd_eid_ext_capab:0000000000000062 .L0 
C:\Users\stapi\AppData\Local\Temp\ccNAGkjl.s:890    .text.hostapd_eid_ext_capab:0000000000000066 .L0 
C:\Users\stapi\AppData\Local\Temp\ccNAGkjl.s:892    .text.hostapd_eid_ext_capab:0000000000000070 .L0 
C:\Users\stapi\AppData\Local\Temp\ccNAGkjl.s:893    .text.hostapd_eid_ext_capab:0000000000000070 .L0 
C:\Users\stapi\AppData\Local\Temp\ccNAGkjl.s:894    .text.hostapd_eid_ext_capab:0000000000000070 .L0 
C:\Users\stapi\AppData\Local\Temp\ccNAGkjl.s:895    .text.hostapd_eid_ext_capab:0000000000000070 .L0 
C:\Users\stapi\AppData\Local\Temp\ccNAGkjl.s:896    .text.hostapd_eid_ext_capab:0000000000000070 .L0 
C:\Users\stapi\AppData\Local\Temp\ccNAGkjl.s:897    .text.hostapd_eid_ext_capab:0000000000000070 .L0 
C:\Users\stapi\AppData\Local\Temp\ccNAGkjl.s:898    .text.hostapd_eid_ext_capab:0000000000000070 .L0 
C:\Users\stapi\AppData\Local\Temp\ccNAGkjl.s:899    .text.hostapd_eid_ext_capab:0000000000000070 .L0 
C:\Users\stapi\AppData\Local\Temp\ccNAGkjl.s:900    .text.hostapd_eid_ext_capab:0000000000000070 .L0 
C:\Users\stapi\AppData\Local\Temp\ccNAGkjl.s:901    .text.hostapd_eid_ext_capab:0000000000000070 .L0 
C:\Users\stapi\AppData\Local\Temp\ccNAGkjl.s:902    .text.hostapd_eid_ext_capab:0000000000000070 .L0 
C:\Users\stapi\AppData\Local\Temp\ccNAGkjl.s:903    .text.hostapd_eid_ext_capab:0000000000000070 .L0 
C:\Users\stapi\AppData\Local\Temp\ccNAGkjl.s:904    .text.hostapd_eid_ext_capab:0000000000000070 .L0 
C:\Users\stapi\AppData\Local\Temp\ccNAGkjl.s:905    .text.hostapd_eid_ext_capab:0000000000000070 .L0 
C:\Users\stapi\AppData\Local\Temp\ccNAGkjl.s:906    .text.hostapd_eid_ext_capab:0000000000000070 .L0 
C:\Users\stapi\AppData\Local\Temp\ccNAGkjl.s:909    .text.hostapd_eid_ext_capab:0000000000000070 .L0 
C:\Users\stapi\AppData\Local\Temp\ccNAGkjl.s:913    .text.hostapd_eid_ext_capab:0000000000000070 .L0 
C:\Users\stapi\AppData\Local\Temp\ccNAGkjl.s:914    .text.hostapd_eid_ext_capab:0000000000000070 .L0 
C:\Users\stapi\AppData\Local\Temp\ccNAGkjl.s:915    .text.hostapd_eid_ext_capab:0000000000000070 .L0 
C:\Users\stapi\AppData\Local\Temp\ccNAGkjl.s:917    .text.hostapd_eid_ext_capab:0000000000000074 .L0 
C:\Users\stapi\AppData\Local\Temp\ccNAGkjl.s:941    .text.hostapd_eid_ext_capab:0000000000000082 .L0 
C:\Users\stapi\AppData\Local\Temp\ccNAGkjl.s:942    .text.hostapd_eid_ext_capab:0000000000000082 .L0 
C:\Users\stapi\AppData\Local\Temp\ccNAGkjl.s:944    .text.hostapd_eid_ext_capab:0000000000000084 .L0 
C:\Users\stapi\AppData\Local\Temp\ccNAGkjl.s:947    .text.hostapd_eid_ext_capab:000000000000008a .L0 
C:\Users\stapi\AppData\Local\Temp\ccNAGkjl.s:948    .text.hostapd_eid_ext_capab:000000000000008a .L0 
C:\Users\stapi\AppData\Local\Temp\ccNAGkjl.s:951    .text.hostapd_eid_ext_capab:000000000000008e .L0 
C:\Users\stapi\AppData\Local\Temp\ccNAGkjl.s:952    .text.hostapd_eid_ext_capab:000000000000008e .L0 
C:\Users\stapi\AppData\Local\Temp\ccNAGkjl.s:954    .text.hostapd_eid_ext_capab:0000000000000090 .L0 
C:\Users\stapi\AppData\Local\Temp\ccNAGkjl.s:956    .text.hostapd_eid_ext_capab:0000000000000094 .L0 
C:\Users\stapi\AppData\Local\Temp\ccNAGkjl.s:958    .text.hostapd_eid_ext_capab:0000000000000098 .L0 
C:\Users\stapi\AppData\Local\Temp\ccNAGkjl.s:959    .text.hostapd_eid_ext_capab:0000000000000098 .L0 
C:\Users\stapi\AppData\Local\Temp\ccNAGkjl.s:964    .text.hostapd_eid_ext_capab:00000000000000a0 .L0 
C:\Users\stapi\AppData\Local\Temp\ccNAGkjl.s:969    .text.hostapd_eid_ext_capab:00000000000000a6 .L0 
C:\Users\stapi\AppData\Local\Temp\ccNAGkjl.s:970    .text.hostapd_eid_ext_capab:00000000000000a6 .L0 
C:\Users\stapi\AppData\Local\Temp\ccNAGkjl.s:972    .text.hostapd_eid_ext_capab:00000000000000a8 .L0 
C:\Users\stapi\AppData\Local\Temp\ccNAGkjl.s:975    .text.hostapd_eid_ext_capab:00000000000000ae .L0 
C:\Users\stapi\AppData\Local\Temp\ccNAGkjl.s:976    .text.hostapd_eid_ext_capab:00000000000000ae .L0 
C:\Users\stapi\AppData\Local\Temp\ccNAGkjl.s:980    .text.hostapd_eid_ext_capab:00000000000000b4 .L0 
C:\Users\stapi\AppData\Local\Temp\ccNAGkjl.s:981    .text.hostapd_eid_ext_capab:00000000000000b4 .L0 
C:\Users\stapi\AppData\Local\Temp\ccNAGkjl.s:983    .text.hostapd_eid_ext_capab:00000000000000b6 .L0 
C:\Users\stapi\AppData\Local\Temp\ccNAGkjl.s:986    .text.hostapd_eid_ext_capab:00000000000000bc .L0 
C:\Users\stapi\AppData\Local\Temp\ccNAGkjl.s:987    .text.hostapd_eid_ext_capab:00000000000000bc .L0 
C:\Users\stapi\AppData\Local\Temp\ccNAGkjl.s:992    .text.hostapd_eid_ext_capab:00000000000000c6 .L0 
C:\Users\stapi\AppData\Local\Temp\ccNAGkjl.s:993    .text.hostapd_eid_ext_capab:00000000000000c6 .L0 
C:\Users\stapi\AppData\Local\Temp\ccNAGkjl.s:995    .text.hostapd_eid_ext_capab:00000000000000c8 .L0 
C:\Users\stapi\AppData\Local\Temp\ccNAGkjl.s:998    .text.hostapd_eid_ext_capab:00000000000000ce .L0 
C:\Users\stapi\AppData\Local\Temp\ccNAGkjl.s:999    .text.hostapd_eid_ext_capab:00000000000000ce .L0 
C:\Users\stapi\AppData\Local\Temp\ccNAGkjl.s:1002   .text.hostapd_eid_ext_capab:00000000000000d2 .L0 
C:\Users\stapi\AppData\Local\Temp\ccNAGkjl.s:1003   .text.hostapd_eid_ext_capab:00000000000000d2 .L0 
C:\Users\stapi\AppData\Local\Temp\ccNAGkjl.s:1005   .text.hostapd_eid_ext_capab:00000000000000d4 .L0 
C:\Users\stapi\AppData\Local\Temp\ccNAGkjl.s:1008   .text.hostapd_eid_ext_capab:00000000000000da .L0 
C:\Users\stapi\AppData\Local\Temp\ccNAGkjl.s:1009   .text.hostapd_eid_ext_capab:00000000000000da .L0 
C:\Users\stapi\AppData\Local\Temp\ccNAGkjl.s:1014   .text.hostapd_eid_ext_capab:00000000000000e4 .L0 
C:\Users\stapi\AppData\Local\Temp\ccNAGkjl.s:1015   .text.hostapd_eid_ext_capab:00000000000000e4 .L0 
C:\Users\stapi\AppData\Local\Temp\ccNAGkjl.s:1017   .text.hostapd_eid_ext_capab:00000000000000e6 .L0 
C:\Users\stapi\AppData\Local\Temp\ccNAGkjl.s:1020   .text.hostapd_eid_ext_capab:00000000000000ee .L0 
C:\Users\stapi\AppData\Local\Temp\ccNAGkjl.s:1021   .text.hostapd_eid_ext_capab:00000000000000ee .L0 
C:\Users\stapi\AppData\Local\Temp\ccNAGkjl.s:1025   .text.hostapd_eid_ext_capab:00000000000000f4 .L0 
C:\Users\stapi\AppData\Local\Temp\ccNAGkjl.s:1026   .text.hostapd_eid_ext_capab:00000000000000f4 .L0 
C:\Users\stapi\AppData\Local\Temp\ccNAGkjl.s:1028   .text.hostapd_eid_ext_capab:00000000000000f6 .L0 
C:\Users\stapi\AppData\Local\Temp\ccNAGkjl.s:1031   .text.hostapd_eid_ext_capab:00000000000000fa .L0 
C:\Users\stapi\AppData\Local\Temp\ccNAGkjl.s:1033   .text.hostapd_eid_ext_capab:00000000000000fc .L0 
C:\Users\stapi\AppData\Local\Temp\ccNAGkjl.s:1034   .text.hostapd_eid_ext_capab:00000000000000fc .L0 
C:\Users\stapi\AppData\Local\Temp\ccNAGkjl.s:1037   .text.hostapd_eid_ext_capab:0000000000000100 .L0 
C:\Users\stapi\AppData\Local\Temp\ccNAGkjl.s:1038   .text.hostapd_eid_ext_capab:0000000000000100 .L0 
C:\Users\stapi\AppData\Local\Temp\ccNAGkjl.s:1042   .text.hostapd_eid_ext_capab:0000000000000106 .L0 
C:\Users\stapi\AppData\Local\Temp\ccNAGkjl.s:1043   .text.hostapd_eid_ext_capab:0000000000000106 .L0 
C:\Users\stapi\AppData\Local\Temp\ccNAGkjl.s:1045   .text.hostapd_eid_ext_capab:0000000000000108 .L0 
C:\Users\stapi\AppData\Local\Temp\ccNAGkjl.s:1048   .text.hostapd_eid_ext_capab:000000000000010e .L0 
C:\Users\stapi\AppData\Local\Temp\ccNAGkjl.s:1049   .text.hostapd_eid_ext_capab:000000000000010e .L0 
C:\Users\stapi\AppData\Local\Temp\ccNAGkjl.s:1052   .text.hostapd_eid_ext_capab:0000000000000112 .L0 
C:\Users\stapi\AppData\Local\Temp\ccNAGkjl.s:1053   .text.hostapd_eid_ext_capab:0000000000000112 .L0 
C:\Users\stapi\AppData\Local\Temp\ccNAGkjl.s:1055   .text.hostapd_eid_ext_capab:0000000000000114 .L0 
C:\Users\stapi\AppData\Local\Temp\ccNAGkjl.s:1058   .text.hostapd_eid_ext_capab:000000000000011a .L0 
C:\Users\stapi\AppData\Local\Temp\ccNAGkjl.s:1060   .text.hostapd_eid_ext_capab:000000000000011c .L0 
C:\Users\stapi\AppData\Local\Temp\ccNAGkjl.s:1061   .text.hostapd_eid_ext_capab:000000000000011c .L0 
C:\Users\stapi\AppData\Local\Temp\ccNAGkjl.s:1066   .text.hostapd_eid_ext_capab:0000000000000128 .L0 
C:\Users\stapi\AppData\Local\Temp\ccNAGkjl.s:1067   .text.hostapd_eid_ext_capab:0000000000000128 .L0 
C:\Users\stapi\AppData\Local\Temp\ccNAGkjl.s:1069   .text.hostapd_eid_ext_capab:000000000000012a .L0 
C:\Users\stapi\AppData\Local\Temp\ccNAGkjl.s:1074   .text.hostapd_eid_ext_capab:0000000000000132 .L0 
C:\Users\stapi\AppData\Local\Temp\ccNAGkjl.s:1075   .text.hostapd_eid_ext_capab:0000000000000132 .L0 
C:\Users\stapi\AppData\Local\Temp\ccNAGkjl.s:1078   .text.hostapd_eid_ext_capab:0000000000000138 .L0 
C:\Users\stapi\AppData\Local\Temp\ccNAGkjl.s:1081   .text.hostapd_eid_ext_capab:000000000000013c .L0 
C:\Users\stapi\AppData\Local\Temp\ccNAGkjl.s:1082   .text.hostapd_eid_ext_capab:000000000000013c .L0 
C:\Users\stapi\AppData\Local\Temp\ccNAGkjl.s:1088   .text.hostapd_eid_ext_capab:0000000000000140 .L0 
C:\Users\stapi\AppData\Local\Temp\ccNAGkjl.s:1089   .text.hostapd_eid_ext_capab:0000000000000140 .L0 
C:\Users\stapi\AppData\Local\Temp\ccNAGkjl.s:1091   .text.hostapd_eid_ext_capab:0000000000000142 .L0 
C:\Users\stapi\AppData\Local\Temp\ccNAGkjl.s:1094   .text.hostapd_eid_ext_capab:000000000000014a .L0 
C:\Users\stapi\AppData\Local\Temp\ccNAGkjl.s:1095   .text.hostapd_eid_ext_capab:000000000000014a .L0 
C:\Users\stapi\AppData\Local\Temp\ccNAGkjl.s:1097   .text.hostapd_eid_ext_capab:000000000000014e .L0 
C:\Users\stapi\AppData\Local\Temp\ccNAGkjl.s:1099   .text.hostapd_eid_ext_capab:0000000000000152 .L0 
C:\Users\stapi\AppData\Local\Temp\ccNAGkjl.s:1101   .text.hostapd_eid_ext_capab:0000000000000154 .L0 
C:\Users\stapi\AppData\Local\Temp\ccNAGkjl.s:1105   .text.hostapd_eid_ext_capab:0000000000000160 .L0 
C:\Users\stapi\AppData\Local\Temp\ccNAGkjl.s:1106   .text.hostapd_eid_ext_capab:0000000000000160 .L0 
C:\Users\stapi\AppData\Local\Temp\ccNAGkjl.s:1108   .text.hostapd_eid_ext_capab:0000000000000162 .L0 
C:\Users\stapi\AppData\Local\Temp\ccNAGkjl.s:1111   .text.hostapd_eid_ext_capab:0000000000000168 .L0 
C:\Users\stapi\AppData\Local\Temp\ccNAGkjl.s:1116   .text.hostapd_eid_ext_capab:0000000000000172 .L0 
C:\Users\stapi\AppData\Local\Temp\ccNAGkjl.s:1117   .text.hostapd_eid_ext_capab:0000000000000172 .L0 
C:\Users\stapi\AppData\Local\Temp\ccNAGkjl.s:1120   .text.hostapd_eid_ext_capab:0000000000000178 .L0 
C:\Users\stapi\AppData\Local\Temp\ccNAGkjl.s:1121   .text.hostapd_eid_ext_capab:0000000000000178 .L0 
C:\Users\stapi\AppData\Local\Temp\ccNAGkjl.s:1123   .text.hostapd_eid_ext_capab:000000000000017a .L0 
C:\Users\stapi\AppData\Local\Temp\ccNAGkjl.s:1125   .text.hostapd_eid_ext_capab:000000000000017e .L0 
C:\Users\stapi\AppData\Local\Temp\ccNAGkjl.s:1127   .text.hostapd_eid_ext_capab:0000000000000180 .L0 
C:\Users\stapi\AppData\Local\Temp\ccNAGkjl.s:1131   .text.hostapd_eid_ext_capab:000000000000018c .L0 
C:\Users\stapi\AppData\Local\Temp\ccNAGkjl.s:1132   .text.hostapd_eid_ext_capab:000000000000018c .L0 
C:\Users\stapi\AppData\Local\Temp\ccNAGkjl.s:1135   .text.hostapd_eid_ext_capab:0000000000000190 .L0 
C:\Users\stapi\AppData\Local\Temp\ccNAGkjl.s:1141   .text.hostapd_eid_ext_capab:000000000000019a .L0 
C:\Users\stapi\AppData\Local\Temp\ccNAGkjl.s:1142   .text.hostapd_eid_ext_capab:000000000000019a .L0 
C:\Users\stapi\AppData\Local\Temp\ccNAGkjl.s:1152   .text.hostapd_eid_ext_capab:00000000000001a0 .L0 
C:\Users\stapi\AppData\Local\Temp\ccNAGkjl.s:1153   .text.hostapd_eid_ext_capab:00000000000001a0 .L0 
C:\Users\stapi\AppData\Local\Temp\ccNAGkjl.s:1155   .text.hostapd_eid_ext_capab:00000000000001a2 .L0 
C:\Users\stapi\AppData\Local\Temp\ccNAGkjl.s:1157   .text.hostapd_eid_ext_capab:00000000000001a6 .L0 
C:\Users\stapi\AppData\Local\Temp\ccNAGkjl.s:1161   .text.hostapd_eid_ext_capab:00000000000001b0 .L0 
C:\Users\stapi\AppData\Local\Temp\ccNAGkjl.s:1162   .text.hostapd_eid_ext_capab:00000000000001b0 .L0 
C:\Users\stapi\AppData\Local\Temp\ccNAGkjl.s:1164   .text.hostapd_eid_ext_capab:00000000000001b2 .L0 
C:\Users\stapi\AppData\Local\Temp\ccNAGkjl.s:1169   .text.hostapd_eid_ext_capab:00000000000001ba .L0 
C:\Users\stapi\AppData\Local\Temp\ccNAGkjl.s:1170   .text.hostapd_eid_ext_capab:00000000000001ba .L0 
C:\Users\stapi\AppData\Local\Temp\ccNAGkjl.s:1172   .text.hostapd_eid_ext_capab:00000000000001bc .L0 
C:\Users\stapi\AppData\Local\Temp\ccNAGkjl.s:1175   .text.hostapd_eid_ext_capab:00000000000001c2 .L0 
C:\Users\stapi\AppData\Local\Temp\ccNAGkjl.s:1180   .text.hostapd_eid_ext_capab:00000000000001ce .L0 
C:\Users\stapi\AppData\Local\Temp\ccNAGkjl.s:1182   .text.hostapd_eid_ext_capab:00000000000001d0 .L0 
C:\Users\stapi\AppData\Local\Temp\ccNAGkjl.s:1183   .text.hostapd_eid_ext_capab:00000000000001d0 .L0 
C:\Users\stapi\AppData\Local\Temp\ccNAGkjl.s:1188   .text.hostapd_eid_ext_capab:00000000000001da .L0 
C:\Users\stapi\AppData\Local\Temp\ccNAGkjl.s:1189   .text.hostapd_eid_ext_capab:00000000000001da .L0 
C:\Users\stapi\AppData\Local\Temp\ccNAGkjl.s:1191   .text.hostapd_eid_ext_capab:00000000000001dc .L0 
C:\Users\stapi\AppData\Local\Temp\ccNAGkjl.s:1197   .text.hostapd_eid_ext_capab:00000000000001e2 .L0 
C:\Users\stapi\AppData\Local\Temp\ccNAGkjl.s:1198   .text.hostapd_eid_ext_capab:00000000000001e2 .L0 
C:\Users\stapi\AppData\Local\Temp\ccNAGkjl.s:1203   .text.hostapd_eid_ext_capab:00000000000001ea .L0 
C:\Users\stapi\AppData\Local\Temp\ccNAGkjl.s:1206   .text.hostapd_eid_ext_capab:00000000000001ec .L0 
C:\Users\stapi\AppData\Local\Temp\ccNAGkjl.s:1207   .text.hostapd_eid_ext_capab:00000000000001ec .L0 
C:\Users\stapi\AppData\Local\Temp\ccNAGkjl.s:1210   .text.hostapd_eid_ext_capab:00000000000001f4 .L0 
C:\Users\stapi\AppData\Local\Temp\ccNAGkjl.s:1211   .text.hostapd_eid_ext_capab:00000000000001f4 .L0 
C:\Users\stapi\AppData\Local\Temp\ccNAGkjl.s:1213   .text.hostapd_eid_ext_capab:00000000000001f6 .L0 
C:\Users\stapi\AppData\Local\Temp\ccNAGkjl.s:1214   .text.hostapd_eid_ext_capab:00000000000001f6 .L0 
C:\Users\stapi\AppData\Local\Temp\ccNAGkjl.s:1216   .text.hostapd_eid_ext_capab:00000000000001fa .L0 
C:\Users\stapi\AppData\Local\Temp\ccNAGkjl.s:1217   .text.hostapd_eid_ext_capab:00000000000001fa .L0 
C:\Users\stapi\AppData\Local\Temp\ccNAGkjl.s:1219   .text.hostapd_eid_ext_capab:00000000000001fe .L0 
C:\Users\stapi\AppData\Local\Temp\ccNAGkjl.s:1222   .text.hostapd_eid_ext_capab:0000000000000202 .L0 
C:\Users\stapi\AppData\Local\Temp\ccNAGkjl.s:1227   .text.hostapd_eid_ext_capab:0000000000000206 .L0 
C:\Users\stapi\AppData\Local\Temp\ccNAGkjl.s:1228   .text.hostapd_eid_ext_capab:0000000000000206 .L0 
C:\Users\stapi\AppData\Local\Temp\ccNAGkjl.s:1230   .text.hostapd_eid_ext_capab:0000000000000208 .L0 
C:\Users\stapi\AppData\Local\Temp\ccNAGkjl.s:1233   .text.hostapd_eid_ext_capab:000000000000020e .L0 
C:\Users\stapi\AppData\Local\Temp\ccNAGkjl.s:1235   .text.hostapd_eid_ext_capab:0000000000000210 .L0 
C:\Users\stapi\AppData\Local\Temp\ccNAGkjl.s:1238   .text.hostapd_eid_ext_capab:0000000000000218 .L0 
C:\Users\stapi\AppData\Local\Temp\ccNAGkjl.s:1240   .text.hostapd_eid_ext_capab:000000000000021a .L0 
C:\Users\stapi\AppData\Local\Temp\ccNAGkjl.s:1241   .text.hostapd_eid_ext_capab:000000000000021a .L0 
C:\Users\stapi\AppData\Local\Temp\ccNAGkjl.s:1248   .text.hostapd_eid_ext_capab:0000000000000224 .L0 
C:\Users\stapi\AppData\Local\Temp\ccNAGkjl.s:1249   .text.hostapd_eid_ext_capab:0000000000000224 .L0 
C:\Users\stapi\AppData\Local\Temp\ccNAGkjl.s:1257   .text.hostapd_eid_ext_capab:000000000000022a .L0 
C:\Users\stapi\AppData\Local\Temp\ccNAGkjl.s:1258   .text.hostapd_eid_ext_capab:000000000000022a .L0 
C:\Users\stapi\AppData\Local\Temp\ccNAGkjl.s:1263   .text.hostapd_eid_ext_capab:0000000000000230 .L0 
C:\Users\stapi\AppData\Local\Temp\ccNAGkjl.s:1264   .text.hostapd_eid_ext_capab:0000000000000230 .L0 
C:\Users\stapi\AppData\Local\Temp\ccNAGkjl.s:1266   .text.hostapd_eid_ext_capab:0000000000000236 .L0 
C:\Users\stapi\AppData\Local\Temp\ccNAGkjl.s:1273   .text.hostapd_eid_qos_map_set:0000000000000000 hostapd_eid_qos_map_set
C:\Users\stapi\AppData\Local\Temp\ccNAGkjl.s:1276   .text.hostapd_eid_qos_map_set:0000000000000000 .L0 
C:\Users\stapi\AppData\Local\Temp\ccNAGkjl.s:1278   .text.hostapd_eid_qos_map_set:0000000000000000 .L0 
C:\Users\stapi\AppData\Local\Temp\ccNAGkjl.s:1279   .text.hostapd_eid_qos_map_set:0000000000000008 .L0 
C:\Users\stapi\AppData\Local\Temp\ccNAGkjl.s:1280   .text.hostapd_eid_qos_map_set:0000000000000008 .L0 
C:\Users\stapi\AppData\Local\Temp\ccNAGkjl.s:1281   .text.hostapd_eid_qos_map_set:0000000000000008 .L0 
C:\Users\stapi\AppData\Local\Temp\ccNAGkjl.s:1282   .text.hostapd_eid_qos_map_set:0000000000000008 .L0 
C:\Users\stapi\AppData\Local\Temp\ccNAGkjl.s:1285   .text.hostapd_eid_qos_map_set:0000000000000008 .L0 
C:\Users\stapi\AppData\Local\Temp\ccNAGkjl.s:1286   .text.hostapd_eid_qos_map_set:0000000000000008 .L0 
C:\Users\stapi\AppData\Local\Temp\ccNAGkjl.s:1287   .text.hostapd_eid_qos_map_set:0000000000000008 .L0 
C:\Users\stapi\AppData\Local\Temp\ccNAGkjl.s:1289   .text.hostapd_eid_qos_map_set:000000000000000a .L0 
C:\Users\stapi\AppData\Local\Temp\ccNAGkjl.s:1291   .text.hostapd_eid_qos_map_set:000000000000000c .L0 
C:\Users\stapi\AppData\Local\Temp\ccNAGkjl.s:1294   .text.hostapd_eid_qos_map_set:000000000000000e .L0 
C:\Users\stapi\AppData\Local\Temp\ccNAGkjl.s:1296   .text.hostapd_eid_qos_map_set:0000000000000012 .L0 
C:\Users\stapi\AppData\Local\Temp\ccNAGkjl.s:1299   .text.hostapd_eid_qos_map_set:0000000000000016 .L0 
C:\Users\stapi\AppData\Local\Temp\ccNAGkjl.s:1300   .text.hostapd_eid_qos_map_set:0000000000000016 .L0 
C:\Users\stapi\AppData\Local\Temp\ccNAGkjl.s:1303   .text.hostapd_eid_qos_map_set:0000000000000018 .L0 
C:\Users\stapi\AppData\Local\Temp\ccNAGkjl.s:1304   .text.hostapd_eid_qos_map_set:0000000000000018 .L0 
C:\Users\stapi\AppData\Local\Temp\ccNAGkjl.s:1307   .text.hostapd_eid_qos_map_set:0000000000000020 .L0 
C:\Users\stapi\AppData\Local\Temp\ccNAGkjl.s:1308   .text.hostapd_eid_qos_map_set:0000000000000020 .L0 
C:\Users\stapi\AppData\Local\Temp\ccNAGkjl.s:1310   .text.hostapd_eid_qos_map_set:0000000000000024 .L0 
C:\Users\stapi\AppData\Local\Temp\ccNAGkjl.s:1313   .text.hostapd_eid_qos_map_set:0000000000000028 .L0 
C:\Users\stapi\AppData\Local\Temp\ccNAGkjl.s:1314   .text.hostapd_eid_qos_map_set:0000000000000028 .L0 
C:\Users\stapi\AppData\Local\Temp\ccNAGkjl.s:1318   .text.hostapd_eid_qos_map_set:000000000000002e .L0 
C:\Users\stapi\AppData\Local\Temp\ccNAGkjl.s:1325   .text.hostapd_eid_qos_map_set:000000000000003e .L0 
C:\Users\stapi\AppData\Local\Temp\ccNAGkjl.s:1326   .text.hostapd_eid_qos_map_set:000000000000003e .L0 
C:\Users\stapi\AppData\Local\Temp\ccNAGkjl.s:1330   .text.hostapd_eid_qos_map_set:0000000000000042 .L0 
C:\Users\stapi\AppData\Local\Temp\ccNAGkjl.s:1331   .text.hostapd_eid_qos_map_set:0000000000000042 .L0 
C:\Users\stapi\AppData\Local\Temp\ccNAGkjl.s:1332   .text.hostapd_eid_qos_map_set:000000000000004a .L0 
C:\Users\stapi\AppData\Local\Temp\ccNAGkjl.s:1333   .text.hostapd_eid_qos_map_set:000000000000004a .L0 
C:\Users\stapi\AppData\Local\Temp\ccNAGkjl.s:1334   .text.hostapd_eid_qos_map_set:000000000000004a .L0 
C:\Users\stapi\AppData\Local\Temp\ccNAGkjl.s:1335   .text.hostapd_eid_qos_map_set:000000000000004a .L0 
C:\Users\stapi\AppData\Local\Temp\ccNAGkjl.s:1336   .text.hostapd_eid_qos_map_set:000000000000004a .L0 
C:\Users\stapi\AppData\Local\Temp\ccNAGkjl.s:1343   .text.hostapd_eid_interworking:0000000000000000 hostapd_eid_interworking
C:\Users\stapi\AppData\Local\Temp\ccNAGkjl.s:1346   .text.hostapd_eid_interworking:0000000000000000 .L0 
C:\Users\stapi\AppData\Local\Temp\ccNAGkjl.s:1348   .text.hostapd_eid_interworking:0000000000000000 .L0 
C:\Users\stapi\AppData\Local\Temp\ccNAGkjl.s:1349   .text.hostapd_eid_interworking:0000000000000000 .L0 
C:\Users\stapi\AppData\Local\Temp\ccNAGkjl.s:1350   .text.hostapd_eid_interworking:0000000000000000 .L0 
C:\Users\stapi\AppData\Local\Temp\ccNAGkjl.s:1351   .text.hostapd_eid_interworking:0000000000000000 .L0 
C:\Users\stapi\AppData\Local\Temp\ccNAGkjl.s:1354   .text.hostapd_eid_interworking:0000000000000004 .L0 
C:\Users\stapi\AppData\Local\Temp\ccNAGkjl.s:1361   .text.hostapd_eid_adv_proto:0000000000000000 hostapd_eid_adv_proto
C:\Users\stapi\AppData\Local\Temp\ccNAGkjl.s:1363   .text.hostapd_eid_adv_proto:0000000000000000 .L0 
C:\Users\stapi\AppData\Local\Temp\ccNAGkjl.s:1366   .text.hostapd_eid_adv_proto:0000000000000004 .L0 
C:\Users\stapi\AppData\Local\Temp\ccNAGkjl.s:1373   .text.hostapd_eid_roaming_consortium:0000000000000000 hostapd_eid_roaming_consortium
C:\Users\stapi\AppData\Local\Temp\ccNAGkjl.s:1375   .text.hostapd_eid_roaming_consortium:0000000000000000 .L0 
C:\Users\stapi\AppData\Local\Temp\ccNAGkjl.s:1378   .text.hostapd_eid_roaming_consortium:0000000000000004 .L0 
C:\Users\stapi\AppData\Local\Temp\ccNAGkjl.s:1385   .text.hostapd_eid_time_zone:0000000000000000 hostapd_eid_time_zone
C:\Users\stapi\AppData\Local\Temp\ccNAGkjl.s:1388   .text.hostapd_eid_time_zone:0000000000000000 .L0 
C:\Users\stapi\AppData\Local\Temp\ccNAGkjl.s:1390   .text.hostapd_eid_time_zone:0000000000000000 .L0 
C:\Users\stapi\AppData\Local\Temp\ccNAGkjl.s:1391   .text.hostapd_eid_time_zone:0000000000000000 .L0 
C:\Users\stapi\AppData\Local\Temp\ccNAGkjl.s:1392   .text.hostapd_eid_time_zone:0000000000000008 .L0 
C:\Users\stapi\AppData\Local\Temp\ccNAGkjl.s:1393   .text.hostapd_eid_time_zone:0000000000000008 .L0 
C:\Users\stapi\AppData\Local\Temp\ccNAGkjl.s:1394   .text.hostapd_eid_time_zone:0000000000000008 .L0 
C:\Users\stapi\AppData\Local\Temp\ccNAGkjl.s:1395   .text.hostapd_eid_time_zone:0000000000000008 .L0 
C:\Users\stapi\AppData\Local\Temp\ccNAGkjl.s:1396   .text.hostapd_eid_time_zone:0000000000000008 .L0 
C:\Users\stapi\AppData\Local\Temp\ccNAGkjl.s:1397   .text.hostapd_eid_time_zone:0000000000000008 .L0 
C:\Users\stapi\AppData\Local\Temp\ccNAGkjl.s:1399   .text.hostapd_eid_time_zone:0000000000000008 .L0 
C:\Users\stapi\AppData\Local\Temp\ccNAGkjl.s:1400   .text.hostapd_eid_time_zone:0000000000000008 .L0 
C:\Users\stapi\AppData\Local\Temp\ccNAGkjl.s:1401   .text.hostapd_eid_time_zone:0000000000000008 .L0 
C:\Users\stapi\AppData\Local\Temp\ccNAGkjl.s:1403   .text.hostapd_eid_time_zone:000000000000000a .L0 
C:\Users\stapi\AppData\Local\Temp\ccNAGkjl.s:1405   .text.hostapd_eid_time_zone:000000000000000c .L0 
C:\Users\stapi\AppData\Local\Temp\ccNAGkjl.s:1407   .text.hostapd_eid_time_zone:000000000000000e .L0 
C:\Users\stapi\AppData\Local\Temp\ccNAGkjl.s:1411   .text.hostapd_eid_time_zone:0000000000000018 .L0 
C:\Users\stapi\AppData\Local\Temp\ccNAGkjl.s:1414   .text.hostapd_eid_time_zone:000000000000001c .L0 
C:\Users\stapi\AppData\Local\Temp\ccNAGkjl.s:1416   .text.hostapd_eid_time_zone:000000000000001e .L0 
C:\Users\stapi\AppData\Local\Temp\ccNAGkjl.s:1417   .text.hostapd_eid_time_zone:000000000000001e .L0 
C:\Users\stapi\AppData\Local\Temp\ccNAGkjl.s:1420   .text.hostapd_eid_time_zone:0000000000000026 .L0 
C:\Users\stapi\AppData\Local\Temp\ccNAGkjl.s:1422   .text.hostapd_eid_time_zone:000000000000002a .L0 
C:\Users\stapi\AppData\Local\Temp\ccNAGkjl.s:1424   .text.hostapd_eid_time_zone:000000000000002e .L0 
C:\Users\stapi\AppData\Local\Temp\ccNAGkjl.s:1426   .text.hostapd_eid_time_zone:0000000000000032 .L0 
C:\Users\stapi\AppData\Local\Temp\ccNAGkjl.s:1428   .text.hostapd_eid_time_zone:0000000000000036 .L0 
C:\Users\stapi\AppData\Local\Temp\ccNAGkjl.s:1430   .text.hostapd_eid_time_zone:000000000000003a .L0 
C:\Users\stapi\AppData\Local\Temp\ccNAGkjl.s:1433   .text.hostapd_eid_time_zone:000000000000003c .L0 
C:\Users\stapi\AppData\Local\Temp\ccNAGkjl.s:1434   .text.hostapd_eid_time_zone:000000000000003c .L0 
C:\Users\stapi\AppData\Local\Temp\ccNAGkjl.s:1435   .text.hostapd_eid_time_zone:000000000000003c .L0 
C:\Users\stapi\AppData\Local\Temp\ccNAGkjl.s:1441   .text.hostapd_eid_time_zone:000000000000004c .L0 
C:\Users\stapi\AppData\Local\Temp\ccNAGkjl.s:1442   .text.hostapd_eid_time_zone:000000000000004c .L0 
C:\Users\stapi\AppData\Local\Temp\ccNAGkjl.s:1446   .text.hostapd_eid_time_zone:0000000000000050 .L0 
C:\Users\stapi\AppData\Local\Temp\ccNAGkjl.s:1447   .text.hostapd_eid_time_zone:0000000000000050 .L0 
C:\Users\stapi\AppData\Local\Temp\ccNAGkjl.s:1449   .text.hostapd_eid_time_zone:000000000000005a .L0 
C:\Users\stapi\AppData\Local\Temp\ccNAGkjl.s:1450   .text.hostapd_eid_time_zone:000000000000005a .L0 
C:\Users\stapi\AppData\Local\Temp\ccNAGkjl.s:1451   .text.hostapd_eid_time_zone:000000000000005a .L0 
C:\Users\stapi\AppData\Local\Temp\ccNAGkjl.s:1452   .text.hostapd_eid_time_zone:000000000000005a .L0 
C:\Users\stapi\AppData\Local\Temp\ccNAGkjl.s:1453   .text.hostapd_eid_time_zone:000000000000005a .L0 
C:\Users\stapi\AppData\Local\Temp\ccNAGkjl.s:1454   .text.hostapd_eid_time_zone:000000000000005a .L0 
C:\Users\stapi\AppData\Local\Temp\ccNAGkjl.s:1455   .text.hostapd_eid_time_zone:000000000000005a .L0 
C:\Users\stapi\AppData\Local\Temp\ccNAGkjl.s:1462   .text.hostapd_update_time_adv:0000000000000000 hostapd_update_time_adv
C:\Users\stapi\AppData\Local\Temp\ccNAGkjl.s:1465   .text.hostapd_update_time_adv:0000000000000000 .L0 
C:\Users\stapi\AppData\Local\Temp\ccNAGkjl.s:1467   .text.hostapd_update_time_adv:0000000000000000 .L0 
C:\Users\stapi\AppData\Local\Temp\ccNAGkjl.s:1468   .text.hostapd_update_time_adv:0000000000000000 .L0 
C:\Users\stapi\AppData\Local\Temp\ccNAGkjl.s:1469   .text.hostapd_update_time_adv:0000000000000000 .L0 
C:\Users\stapi\AppData\Local\Temp\ccNAGkjl.s:1470   .text.hostapd_update_time_adv:0000000000000000 .L0 
C:\Users\stapi\AppData\Local\Temp\ccNAGkjl.s:1471   .text.hostapd_update_time_adv:0000000000000000 .L0 
C:\Users\stapi\AppData\Local\Temp\ccNAGkjl.s:1472   .text.hostapd_update_time_adv:0000000000000000 .L0 
C:\Users\stapi\AppData\Local\Temp\ccNAGkjl.s:1473   .text.hostapd_update_time_adv:0000000000000000 .L0 
C:\Users\stapi\AppData\Local\Temp\ccNAGkjl.s:1475   .text.hostapd_update_time_adv:0000000000000002 .L0 
C:\Users\stapi\AppData\Local\Temp\ccNAGkjl.s:1479   .text.hostapd_update_time_adv:000000000000000c .L0 
C:\Users\stapi\AppData\Local\Temp\ccNAGkjl.s:1480   .text.hostapd_update_time_adv:0000000000000014 .L0 
C:\Users\stapi\AppData\Local\Temp\ccNAGkjl.s:1481   .text.hostapd_update_time_adv:0000000000000014 .L0 
C:\Users\stapi\AppData\Local\Temp\ccNAGkjl.s:1482   .text.hostapd_update_time_adv:0000000000000014 .L0 
C:\Users\stapi\AppData\Local\Temp\ccNAGkjl.s:1484   .text.hostapd_update_time_adv:0000000000000016 .L0 
C:\Users\stapi\AppData\Local\Temp\ccNAGkjl.s:1490   .text.hostapd_update_time_adv:0000000000000018 .L0 
C:\Users\stapi\AppData\Local\Temp\ccNAGkjl.s:1491   .text.hostapd_update_time_adv:0000000000000018 .L0 
C:\Users\stapi\AppData\Local\Temp\ccNAGkjl.s:1496   .text.hostapd_update_time_adv:0000000000000022 .L0 
C:\Users\stapi\AppData\Local\Temp\ccNAGkjl.s:1499   .text.hostapd_update_time_adv:0000000000000026 .L0 
C:\Users\stapi\AppData\Local\Temp\ccNAGkjl.s:1505   .text.hostapd_update_time_adv:0000000000000028 .L0 
C:\Users\stapi\AppData\Local\Temp\ccNAGkjl.s:1506   .text.hostapd_update_time_adv:000000000000002a .L0 
C:\Users\stapi\AppData\Local\Temp\ccNAGkjl.s:1507   .text.hostapd_update_time_adv:000000000000002a .L0 
C:\Users\stapi\AppData\Local\Temp\ccNAGkjl.s:1509   .text.hostapd_update_time_adv:0000000000000032 .L0 
C:\Users\stapi\AppData\Local\Temp\ccNAGkjl.s:1510   .text.hostapd_update_time_adv:0000000000000032 .L0 
C:\Users\stapi\AppData\Local\Temp\ccNAGkjl.s:1511   .text.hostapd_update_time_adv:0000000000000032 .L0 
C:\Users\stapi\AppData\Local\Temp\ccNAGkjl.s:1514   .text.hostapd_update_time_adv:0000000000000032 .L0 
C:\Users\stapi\AppData\Local\Temp\ccNAGkjl.s:1518   .text.hostapd_update_time_adv:0000000000000032 .L0 
C:\Users\stapi\AppData\Local\Temp\ccNAGkjl.s:1523   .text.hostapd_update_time_adv:000000000000003e .L0 
C:\Users\stapi\AppData\Local\Temp\ccNAGkjl.s:1525   .text.hostapd_update_time_adv:0000000000000042 .L0 
C:\Users\stapi\AppData\Local\Temp\ccNAGkjl.s:1526   .text.hostapd_update_time_adv:0000000000000042 .L0 
C:\Users\stapi\AppData\Local\Temp\ccNAGkjl.s:1528   .text.hostapd_update_time_adv:0000000000000046 .L0 
C:\Users\stapi\AppData\Local\Temp\ccNAGkjl.s:1530   .text.hostapd_update_time_adv:0000000000000048 .L0 
C:\Users\stapi\AppData\Local\Temp\ccNAGkjl.s:1531   .text.hostapd_update_time_adv:0000000000000048 .L0 
C:\Users\stapi\AppData\Local\Temp\ccNAGkjl.s:1535   .text.hostapd_update_time_adv:0000000000000052 .L0 
C:\Users\stapi\AppData\Local\Temp\ccNAGkjl.s:1537   .text.hostapd_update_time_adv:0000000000000056 .L0 
C:\Users\stapi\AppData\Local\Temp\ccNAGkjl.s:1538   .text.hostapd_update_time_adv:0000000000000056 .L0 
C:\Users\stapi\AppData\Local\Temp\ccNAGkjl.s:1540   .text.hostapd_update_time_adv:0000000000000058 .L0 
C:\Users\stapi\AppData\Local\Temp\ccNAGkjl.s:1541   .text.hostapd_update_time_adv:0000000000000058 .L0 
C:\Users\stapi\AppData\Local\Temp\ccNAGkjl.s:1546   .text.hostapd_update_time_adv:0000000000000062 .L0 
C:\Users\stapi\AppData\Local\Temp\ccNAGkjl.s:1547   .text.hostapd_update_time_adv:0000000000000062 .L0 
C:\Users\stapi\AppData\Local\Temp\ccNAGkjl.s:1551   .text.hostapd_update_time_adv:000000000000006a .L0 
C:\Users\stapi\AppData\Local\Temp\ccNAGkjl.s:1552   .text.hostapd_update_time_adv:000000000000006a .L0 
C:\Users\stapi\AppData\Local\Temp\ccNAGkjl.s:1556   .text.hostapd_update_time_adv:0000000000000070 .L0 
C:\Users\stapi\AppData\Local\Temp\ccNAGkjl.s:1557   .text.hostapd_update_time_adv:0000000000000070 .L0 
C:\Users\stapi\AppData\Local\Temp\ccNAGkjl.s:1560   .text.hostapd_update_time_adv:0000000000000076 .L0 
C:\Users\stapi\AppData\Local\Temp\ccNAGkjl.s:1561   .text.hostapd_update_time_adv:0000000000000076 .L0 
C:\Users\stapi\AppData\Local\Temp\ccNAGkjl.s:1566   .text.hostapd_update_time_adv:0000000000000078 .L0 
C:\Users\stapi\AppData\Local\Temp\ccNAGkjl.s:1567   .text.hostapd_update_time_adv:0000000000000078 .L0 
C:\Users\stapi\AppData\Local\Temp\ccNAGkjl.s:1570   .text.hostapd_update_time_adv:000000000000007e .L0 
C:\Users\stapi\AppData\Local\Temp\ccNAGkjl.s:1572   .text.hostapd_update_time_adv:0000000000000082 .L0 
C:\Users\stapi\AppData\Local\Temp\ccNAGkjl.s:1577   .text.hostapd_update_time_adv:0000000000000086 .L0 
C:\Users\stapi\AppData\Local\Temp\ccNAGkjl.s:1578   .text.hostapd_update_time_adv:0000000000000086 .L0 
C:\Users\stapi\AppData\Local\Temp\ccNAGkjl.s:1579   .text.hostapd_update_time_adv:0000000000000086 .L0 
C:\Users\stapi\AppData\Local\Temp\ccNAGkjl.s:1580   .text.hostapd_update_time_adv:0000000000000086 .L0 
C:\Users\stapi\AppData\Local\Temp\ccNAGkjl.s:1582   .text.hostapd_update_time_adv:0000000000000088 .L0 
C:\Users\stapi\AppData\Local\Temp\ccNAGkjl.s:1584   .text.hostapd_update_time_adv:000000000000008c .L0 
C:\Users\stapi\AppData\Local\Temp\ccNAGkjl.s:1586   .text.hostapd_update_time_adv:0000000000000090 .L0 
C:\Users\stapi\AppData\Local\Temp\ccNAGkjl.s:1589   .text.hostapd_update_time_adv:0000000000000094 .L0 
C:\Users\stapi\AppData\Local\Temp\ccNAGkjl.s:1590   .text.hostapd_update_time_adv:0000000000000094 .L0 
C:\Users\stapi\AppData\Local\Temp\ccNAGkjl.s:1592   .text.hostapd_update_time_adv:0000000000000096 .L0 
C:\Users\stapi\AppData\Local\Temp\ccNAGkjl.s:1594   .text.hostapd_update_time_adv:000000000000009a .L0 
C:\Users\stapi\AppData\Local\Temp\ccNAGkjl.s:1596   .text.hostapd_update_time_adv:000000000000009e .L0 
C:\Users\stapi\AppData\Local\Temp\ccNAGkjl.s:1599   .text.hostapd_update_time_adv:00000000000000a2 .L0 
C:\Users\stapi\AppData\Local\Temp\ccNAGkjl.s:1600   .text.hostapd_update_time_adv:00000000000000a2 .L0 
C:\Users\stapi\AppData\Local\Temp\ccNAGkjl.s:1602   .text.hostapd_update_time_adv:00000000000000a4 .L0 
C:\Users\stapi\AppData\Local\Temp\ccNAGkjl.s:1606   .text.hostapd_update_time_adv:00000000000000a8 .L0 
C:\Users\stapi\AppData\Local\Temp\ccNAGkjl.s:1610   .text.hostapd_update_time_adv:00000000000000ac .L0 
C:\Users\stapi\AppData\Local\Temp\ccNAGkjl.s:1613   .text.hostapd_update_time_adv:00000000000000b0 .L0 
C:\Users\stapi\AppData\Local\Temp\ccNAGkjl.s:1614   .text.hostapd_update_time_adv:00000000000000b0 .L0 
C:\Users\stapi\AppData\Local\Temp\ccNAGkjl.s:1618   .text.hostapd_update_time_adv:00000000000000b2 .L0 
C:\Users\stapi\AppData\Local\Temp\ccNAGkjl.s:1622   .text.hostapd_update_time_adv:00000000000000b6 .L0 
C:\Users\stapi\AppData\Local\Temp\ccNAGkjl.s:1624   .text.hostapd_update_time_adv:00000000000000ba .L0 
C:\Users\stapi\AppData\Local\Temp\ccNAGkjl.s:1627   .text.hostapd_update_time_adv:00000000000000be .L0 
C:\Users\stapi\AppData\Local\Temp\ccNAGkjl.s:1628   .text.hostapd_update_time_adv:00000000000000be .L0 
C:\Users\stapi\AppData\Local\Temp\ccNAGkjl.s:1634   .text.hostapd_update_time_adv:00000000000000c4 .L0 
C:\Users\stapi\AppData\Local\Temp\ccNAGkjl.s:1635   .text.hostapd_update_time_adv:00000000000000c4 .L0 
C:\Users\stapi\AppData\Local\Temp\ccNAGkjl.s:1638   .text.hostapd_update_time_adv:00000000000000c4 .L0 
C:\Users\stapi\AppData\Local\Temp\ccNAGkjl.s:1639   .text.hostapd_update_time_adv:00000000000000c4 .L0 
C:\Users\stapi\AppData\Local\Temp\ccNAGkjl.s:1640   .text.hostapd_update_time_adv:00000000000000c4 .L0 
C:\Users\stapi\AppData\Local\Temp\ccNAGkjl.s:1641   .text.hostapd_update_time_adv:00000000000000c4 .L0 
C:\Users\stapi\AppData\Local\Temp\ccNAGkjl.s:1642   .text.hostapd_update_time_adv:00000000000000c4 .L0 
C:\Users\stapi\AppData\Local\Temp\ccNAGkjl.s:1643   .text.hostapd_update_time_adv:00000000000000c4 .L0 
C:\Users\stapi\AppData\Local\Temp\ccNAGkjl.s:1644   .text.hostapd_update_time_adv:00000000000000c4 .L0 
C:\Users\stapi\AppData\Local\Temp\ccNAGkjl.s:1645   .text.hostapd_update_time_adv:00000000000000c4 .L0 
C:\Users\stapi\AppData\Local\Temp\ccNAGkjl.s:1646   .text.hostapd_update_time_adv:00000000000000c4 .L0 
C:\Users\stapi\AppData\Local\Temp\ccNAGkjl.s:1647   .text.hostapd_update_time_adv:00000000000000c4 .L0 
C:\Users\stapi\AppData\Local\Temp\ccNAGkjl.s:1649   .text.hostapd_update_time_adv:00000000000000c8 .L0 
C:\Users\stapi\AppData\Local\Temp\ccNAGkjl.s:1653   .text.hostapd_update_time_adv:00000000000000d0 .L0 
C:\Users\stapi\AppData\Local\Temp\ccNAGkjl.s:1655   .text.hostapd_update_time_adv:00000000000000d4 .L0 
C:\Users\stapi\AppData\Local\Temp\ccNAGkjl.s:1656   .text.hostapd_update_time_adv:00000000000000d4 .L0 
C:\Users\stapi\AppData\Local\Temp\ccNAGkjl.s:1665   .text.hostapd_update_time_adv:00000000000000d8 .L0 
C:\Users\stapi\AppData\Local\Temp\ccNAGkjl.s:1671   .text.hostapd_update_time_adv:00000000000000d8 .L0 
C:\Users\stapi\AppData\Local\Temp\ccNAGkjl.s:1672   .text.hostapd_update_time_adv:00000000000000d8 .L0 
C:\Users\stapi\AppData\Local\Temp\ccNAGkjl.s:1673   .text.hostapd_update_time_adv:00000000000000d8 .L0 
C:\Users\stapi\AppData\Local\Temp\ccNAGkjl.s:1678   .text.hostapd_update_time_adv:00000000000000dc .L0 
C:\Users\stapi\AppData\Local\Temp\ccNAGkjl.s:1679   .text.hostapd_update_time_adv:00000000000000dc .L0 
C:\Users\stapi\AppData\Local\Temp\ccNAGkjl.s:1680   .text.hostapd_update_time_adv:00000000000000dc .L0 
C:\Users\stapi\AppData\Local\Temp\ccNAGkjl.s:1687   .text.hostapd_update_time_adv:00000000000000dc .L0 
C:\Users\stapi\AppData\Local\Temp\ccNAGkjl.s:1690   .text.hostapd_update_time_adv:00000000000000de .L0 
C:\Users\stapi\AppData\Local\Temp\ccNAGkjl.s:1691   .text.hostapd_update_time_adv:00000000000000e0 .L0 
C:\Users\stapi\AppData\Local\Temp\ccNAGkjl.s:1698   .text.hostapd_eid_time_adv:0000000000000000 hostapd_eid_time_adv
C:\Users\stapi\AppData\Local\Temp\ccNAGkjl.s:1701   .text.hostapd_eid_time_adv:0000000000000000 .L0 
C:\Users\stapi\AppData\Local\Temp\ccNAGkjl.s:1703   .text.hostapd_eid_time_adv:0000000000000000 .L0 
C:\Users\stapi\AppData\Local\Temp\ccNAGkjl.s:1704   .text.hostapd_eid_time_adv:0000000000000008 .L0 
C:\Users\stapi\AppData\Local\Temp\ccNAGkjl.s:1705   .text.hostapd_eid_time_adv:0000000000000008 .L0 
C:\Users\stapi\AppData\Local\Temp\ccNAGkjl.s:1706   .text.hostapd_eid_time_adv:0000000000000008 .L0 
C:\Users\stapi\AppData\Local\Temp\ccNAGkjl.s:1707   .text.hostapd_eid_time_adv:0000000000000008 .L0 
C:\Users\stapi\AppData\Local\Temp\ccNAGkjl.s:1709   .text.hostapd_eid_time_adv:0000000000000008 .L0 
C:\Users\stapi\AppData\Local\Temp\ccNAGkjl.s:1710   .text.hostapd_eid_time_adv:0000000000000008 .L0 
C:\Users\stapi\AppData\Local\Temp\ccNAGkjl.s:1712   .text.hostapd_eid_time_adv:000000000000000a .L0 
C:\Users\stapi\AppData\Local\Temp\ccNAGkjl.s:1714   .text.hostapd_eid_time_adv:000000000000000c .L0 
C:\Users\stapi\AppData\Local\Temp\ccNAGkjl.s:1718   .text.hostapd_eid_time_adv:0000000000000016 .L0 
C:\Users\stapi\AppData\Local\Temp\ccNAGkjl.s:1721   .text.hostapd_eid_time_adv:000000000000001c .L0 
C:\Users\stapi\AppData\Local\Temp\ccNAGkjl.s:1722   .text.hostapd_eid_time_adv:000000000000001c .L0 
C:\Users\stapi\AppData\Local\Temp\ccNAGkjl.s:1726   .text.hostapd_eid_time_adv:000000000000001e .L0 
C:\Users\stapi\AppData\Local\Temp\ccNAGkjl.s:1727   .text.hostapd_eid_time_adv:000000000000001e .L0 
C:\Users\stapi\AppData\Local\Temp\ccNAGkjl.s:1729   .text.hostapd_eid_time_adv:0000000000000022 .L0 
C:\Users\stapi\AppData\Local\Temp\ccNAGkjl.s:1733   .text.hostapd_eid_time_adv:0000000000000024 .L0 
C:\Users\stapi\AppData\Local\Temp\ccNAGkjl.s:1735   .text.hostapd_eid_time_adv:000000000000002e .L0 
C:\Users\stapi\AppData\Local\Temp\ccNAGkjl.s:1736   .text.hostapd_eid_time_adv:000000000000002e .L0 
C:\Users\stapi\AppData\Local\Temp\ccNAGkjl.s:1737   .text.hostapd_eid_time_adv:000000000000002e .L0 
C:\Users\stapi\AppData\Local\Temp\ccNAGkjl.s:1738   .text.hostapd_eid_time_adv:000000000000002e .L0 
C:\Users\stapi\AppData\Local\Temp\ccNAGkjl.s:1739   .text.hostapd_eid_time_adv:000000000000002e .L0 
C:\Users\stapi\AppData\Local\Temp\ccNAGkjl.s:1742   .text.hostapd_eid_time_adv:000000000000002e .L0 
C:\Users\stapi\AppData\Local\Temp\ccNAGkjl.s:1744   .text.hostapd_eid_time_adv:000000000000002e .L0 
C:\Users\stapi\AppData\Local\Temp\ccNAGkjl.s:1747   .text.hostapd_eid_time_adv:0000000000000036 .L0 
C:\Users\stapi\AppData\Local\Temp\ccNAGkjl.s:1754   .text.hostapd_eid_time_adv:000000000000003c .L0 
C:\Users\stapi\AppData\Local\Temp\ccNAGkjl.s:1759   .text.hostapd_eid_time_adv:000000000000003c .L0 
C:\Users\stapi\AppData\Local\Temp\ccNAGkjl.s:1762   .text.hostapd_eid_time_adv:000000000000003c .L0 
C:\Users\stapi\AppData\Local\Temp\ccNAGkjl.s:1763   .text.hostapd_eid_time_adv:000000000000003c .L0 
C:\Users\stapi\AppData\Local\Temp\ccNAGkjl.s:1771   .text.hostapd_eid_time_adv:000000000000004a .L0 
C:\Users\stapi\AppData\Local\Temp\ccNAGkjl.s:1772   .text.hostapd_eid_time_adv:000000000000004a .L0 
C:\Users\stapi\AppData\Local\Temp\ccNAGkjl.s:1773   .text.hostapd_eid_time_adv:000000000000004a .L0 
C:\Users\stapi\AppData\Local\Temp\ccNAGkjl.s:1777   .text.hostapd_eid_time_adv:000000000000004e .L0 
C:\Users\stapi\AppData\Local\Temp\ccNAGkjl.s:1781   .text.hostapd_eid_time_adv:0000000000000052 .L0 
C:\Users\stapi\AppData\Local\Temp\ccNAGkjl.s:1782   .text.hostapd_eid_time_adv:0000000000000052 .L0 
C:\Users\stapi\AppData\Local\Temp\ccNAGkjl.s:1783   .text.hostapd_eid_time_adv:0000000000000054 .L0 
C:\Users\stapi\AppData\Local\Temp\ccNAGkjl.s:1790   .text.hostapd_eid_bss_max_idle_period:0000000000000000 hostapd_eid_bss_max_idle_period
C:\Users\stapi\AppData\Local\Temp\ccNAGkjl.s:1792   .text.hostapd_eid_bss_max_idle_period:0000000000000000 .L0 
C:\Users\stapi\AppData\Local\Temp\ccNAGkjl.s:1795   .text.hostapd_eid_bss_max_idle_period:0000000000000004 .L0 
C:\Users\stapi\AppData\Local\Temp\ccNAGkjl.s:1802   .text.hostapd_eid_owe_trans_len:0000000000000000 hostapd_eid_owe_trans_len
C:\Users\stapi\AppData\Local\Temp\ccNAGkjl.s:1805   .text.hostapd_eid_owe_trans_len:0000000000000000 .L0 
C:\Users\stapi\AppData\Local\Temp\ccNAGkjl.s:1807   .text.hostapd_eid_owe_trans_len:0000000000000000 .L0 
C:\Users\stapi\AppData\Local\Temp\ccNAGkjl.s:1808   .text.hostapd_eid_owe_trans_len:0000000000000000 .L0 
C:\Users\stapi\AppData\Local\Temp\ccNAGkjl.s:1809   .text.hostapd_eid_owe_trans_len:0000000000000000 .L0 
C:\Users\stapi\AppData\Local\Temp\ccNAGkjl.s:1812   .text.hostapd_eid_owe_trans_len:0000000000000004 .L0 
C:\Users\stapi\AppData\Local\Temp\ccNAGkjl.s:1819   .text.hostapd_eid_owe_trans:0000000000000000 hostapd_eid_owe_trans
C:\Users\stapi\AppData\Local\Temp\ccNAGkjl.s:1822   .text.hostapd_eid_owe_trans:0000000000000000 .L0 
C:\Users\stapi\AppData\Local\Temp\ccNAGkjl.s:1824   .text.hostapd_eid_owe_trans:0000000000000000 .L0 
C:\Users\stapi\AppData\Local\Temp\ccNAGkjl.s:1825   .text.hostapd_eid_owe_trans:0000000000000000 .L0 
C:\Users\stapi\AppData\Local\Temp\ccNAGkjl.s:1826   .text.hostapd_eid_owe_trans:0000000000000000 .L0 
C:\Users\stapi\AppData\Local\Temp\ccNAGkjl.s:1829   .text.hostapd_eid_owe_trans:0000000000000004 .L0 
C:\Users\stapi\AppData\Local\Temp\ccNAGkjl.s:1836   .text.hostapd_eid_dpp_cc_len:0000000000000000 hostapd_eid_dpp_cc_len
C:\Users\stapi\AppData\Local\Temp\ccNAGkjl.s:1838   .text.hostapd_eid_dpp_cc_len:0000000000000000 .L0 
C:\Users\stapi\AppData\Local\Temp\ccNAGkjl.s:1841   .text.hostapd_eid_dpp_cc_len:0000000000000004 .L0 
C:\Users\stapi\AppData\Local\Temp\ccNAGkjl.s:1848   .text.hostapd_eid_dpp_cc:0000000000000000 hostapd_eid_dpp_cc
C:\Users\stapi\AppData\Local\Temp\ccNAGkjl.s:1850   .text.hostapd_eid_dpp_cc:0000000000000000 .L0 
C:\Users\stapi\AppData\Local\Temp\ccNAGkjl.s:1853   .text.hostapd_eid_dpp_cc:0000000000000004 .L0 
C:\Users\stapi\AppData\Local\Temp\ccNAGkjl.s:1860   .text.ap_copy_sta_supp_op_classes:0000000000000000 ap_copy_sta_supp_op_classes
C:\Users\stapi\AppData\Local\Temp\ccNAGkjl.s:1863   .text.ap_copy_sta_supp_op_classes:0000000000000000 .L0 
C:\Users\stapi\AppData\Local\Temp\ccNAGkjl.s:1865   .text.ap_copy_sta_supp_op_classes:0000000000000000 .L0 
C:\Users\stapi\AppData\Local\Temp\ccNAGkjl.s:1866   .text.ap_copy_sta_supp_op_classes:0000000000000000 .L0 
C:\Users\stapi\AppData\Local\Temp\ccNAGkjl.s:1867   .text.ap_copy_sta_supp_op_classes:0000000000000008 .L0 
C:\Users\stapi\AppData\Local\Temp\ccNAGkjl.s:1868   .text.ap_copy_sta_supp_op_classes:0000000000000008 .L0 
C:\Users\stapi\AppData\Local\Temp\ccNAGkjl.s:1869   .text.ap_copy_sta_supp_op_classes:0000000000000008 .L0 
C:\Users\stapi\AppData\Local\Temp\ccNAGkjl.s:1870   .text.ap_copy_sta_supp_op_classes:0000000000000008 .L0 
C:\Users\stapi\AppData\Local\Temp\ccNAGkjl.s:1872   .text.ap_copy_sta_supp_op_classes:0000000000000008 .L0 
C:\Users\stapi\AppData\Local\Temp\ccNAGkjl.s:1873   .text.ap_copy_sta_supp_op_classes:0000000000000008 .L0 
C:\Users\stapi\AppData\Local\Temp\ccNAGkjl.s:1874   .text.ap_copy_sta_supp_op_classes:000000000000000a .L0 
C:\Users\stapi\AppData\Local\Temp\ccNAGkjl.s:1876   .text.ap_copy_sta_supp_op_classes:000000000000000a .L0 
C:\Users\stapi\AppData\Local\Temp\ccNAGkjl.s:1880   .text.ap_copy_sta_supp_op_classes:0000000000000010 .L0 
C:\Users\stapi\AppData\Local\Temp\ccNAGkjl.s:1884   .text.ap_copy_sta_supp_op_classes:0000000000000016 .L0 
C:\Users\stapi\AppData\Local\Temp\ccNAGkjl.s:1887   .text.ap_copy_sta_supp_op_classes:000000000000001e .L0 
C:\Users\stapi\AppData\Local\Temp\ccNAGkjl.s:1888   .text.ap_copy_sta_supp_op_classes:000000000000001e .L0 
C:\Users\stapi\AppData\Local\Temp\ccNAGkjl.s:1892   .text.ap_copy_sta_supp_op_classes:000000000000002a .L0 
C:\Users\stapi\AppData\Local\Temp\ccNAGkjl.s:1894   .text.ap_copy_sta_supp_op_classes:000000000000002e .L0 
C:\Users\stapi\AppData\Local\Temp\ccNAGkjl.s:1895   .text.ap_copy_sta_supp_op_classes:000000000000002e .L0 
C:\Users\stapi\AppData\Local\Temp\ccNAGkjl.s:1897   .text.ap_copy_sta_supp_op_classes:0000000000000030 .L0 
C:\Users\stapi\AppData\Local\Temp\ccNAGkjl.s:1898   .text.ap_copy_sta_supp_op_classes:0000000000000030 .L0 
C:\Users\stapi\AppData\Local\Temp\ccNAGkjl.s:1900   .text.ap_copy_sta_supp_op_classes:0000000000000034 .L0 
C:\Users\stapi\AppData\Local\Temp\ccNAGkjl.s:1901   .text.ap_copy_sta_supp_op_classes:0000000000000034 .L0 
C:\Users\stapi\AppData\Local\Temp\ccNAGkjl.s:1903   .text.ap_copy_sta_supp_op_classes:0000000000000038 .L0 
C:\Users\stapi\AppData\Local\Temp\ccNAGkjl.s:1910   .text.ap_copy_sta_supp_op_classes:0000000000000046 .L0 
C:\Users\stapi\AppData\Local\Temp\ccNAGkjl.s:1911   .text.ap_copy_sta_supp_op_classes:0000000000000048 .L0 
C:\Users\stapi\AppData\Local\Temp\ccNAGkjl.s:1914   .text.ap_copy_sta_supp_op_classes:0000000000000050 .L0 
C:\Users\stapi\AppData\Local\Temp\ccNAGkjl.s:1915   .text.ap_copy_sta_supp_op_classes:0000000000000050 .L0 
C:\Users\stapi\AppData\Local\Temp\ccNAGkjl.s:1916   .text.ap_copy_sta_supp_op_classes:0000000000000050 .L0 
C:\Users\stapi\AppData\Local\Temp\ccNAGkjl.s:1917   .text.ap_copy_sta_supp_op_classes:0000000000000050 .L0 
C:\Users\stapi\AppData\Local\Temp\ccNAGkjl.s:1918   .text.ap_copy_sta_supp_op_classes:0000000000000050 .L0 
C:\Users\stapi\AppData\Local\Temp\ccNAGkjl.s:1925   .text.hostapd_eid_fils_indic:0000000000000000 hostapd_eid_fils_indic
C:\Users\stapi\AppData\Local\Temp\ccNAGkjl.s:1928   .text.hostapd_eid_fils_indic:0000000000000000 .L0 
C:\Users\stapi\AppData\Local\Temp\ccNAGkjl.s:1930   .text.hostapd_eid_fils_indic:0000000000000000 .L0 
C:\Users\stapi\AppData\Local\Temp\ccNAGkjl.s:1931   .text.hostapd_eid_fils_indic:0000000000000000 .L0 
C:\Users\stapi\AppData\Local\Temp\ccNAGkjl.s:1932   .text.hostapd_eid_fils_indic:0000000000000000 .L0 
C:\Users\stapi\AppData\Local\Temp\ccNAGkjl.s:1933   .text.hostapd_eid_fils_indic:0000000000000000 .L0 
C:\Users\stapi\AppData\Local\Temp\ccNAGkjl.s:1936   .text.hostapd_eid_fils_indic:0000000000000004 .L0 
C:\Users\stapi\AppData\Local\Temp\ccNAGkjl.s:1943   .text.hostapd_eid_rsnxe:0000000000000000 hostapd_eid_rsnxe
C:\Users\stapi\AppData\Local\Temp\ccNAGkjl.s:1946   .text.hostapd_eid_rsnxe:0000000000000000 .L0 
C:\Users\stapi\AppData\Local\Temp\ccNAGkjl.s:1948   .text.hostapd_eid_rsnxe:0000000000000000 .L0 
C:\Users\stapi\AppData\Local\Temp\ccNAGkjl.s:1949   .text.hostapd_eid_rsnxe:0000000000000008 .L0 
C:\Users\stapi\AppData\Local\Temp\ccNAGkjl.s:1950   .text.hostapd_eid_rsnxe:0000000000000008 .L0 
C:\Users\stapi\AppData\Local\Temp\ccNAGkjl.s:1951   .text.hostapd_eid_rsnxe:0000000000000008 .L0 
C:\Users\stapi\AppData\Local\Temp\ccNAGkjl.s:1952   .text.hostapd_eid_rsnxe:0000000000000008 .L0 
C:\Users\stapi\AppData\Local\Temp\ccNAGkjl.s:1953   .text.hostapd_eid_rsnxe:0000000000000008 .L0 
C:\Users\stapi\AppData\Local\Temp\ccNAGkjl.s:1955   .text.hostapd_eid_rsnxe:0000000000000008 .L0 
C:\Users\stapi\AppData\Local\Temp\ccNAGkjl.s:1956   .text.hostapd_eid_rsnxe:0000000000000008 .L0 
C:\Users\stapi\AppData\Local\Temp\ccNAGkjl.s:1958   .text.hostapd_eid_rsnxe:000000000000000a .L0 
C:\Users\stapi\AppData\Local\Temp\ccNAGkjl.s:1961   .text.hostapd_eid_rsnxe:000000000000000c .L0 
C:\Users\stapi\AppData\Local\Temp\ccNAGkjl.s:1964   .text.hostapd_eid_rsnxe:000000000000000e .L0 
C:\Users\stapi\AppData\Local\Temp\ccNAGkjl.s:1965   .text.hostapd_eid_rsnxe:000000000000000e .L0 
C:\Users\stapi\AppData\Local\Temp\ccNAGkjl.s:1966   .text.hostapd_eid_rsnxe:000000000000000e .L0 
C:\Users\stapi\AppData\Local\Temp\ccNAGkjl.s:1967   .text.hostapd_eid_rsnxe:000000000000000e .L0 
C:\Users\stapi\AppData\Local\Temp\ccNAGkjl.s:1968   .text.hostapd_eid_rsnxe:000000000000000e .L0 
C:\Users\stapi\AppData\Local\Temp\ccNAGkjl.s:1971   .text.hostapd_eid_rsnxe:0000000000000014 .L0 
C:\Users\stapi\AppData\Local\Temp\ccNAGkjl.s:1975   .text.hostapd_eid_rsnxe:0000000000000016 .L0 
C:\Users\stapi\AppData\Local\Temp\ccNAGkjl.s:1979   .text.hostapd_eid_rsnxe:0000000000000018 .L0 
C:\Users\stapi\AppData\Local\Temp\ccNAGkjl.s:1980   .text.hostapd_eid_rsnxe:0000000000000020 .L0 
C:\Users\stapi\AppData\Local\Temp\ccNAGkjl.s:1981   .text.hostapd_eid_rsnxe:0000000000000020 .L0 
C:\Users\stapi\AppData\Local\Temp\ccNAGkjl.s:1982   .text.hostapd_eid_rsnxe:0000000000000020 .L0 
C:\Users\stapi\AppData\Local\Temp\ccNAGkjl.s:1983   .text.hostapd_eid_rsnxe:0000000000000020 .L0 
C:\Users\stapi\AppData\Local\Temp\ccNAGkjl.s:1984   .text.hostapd_eid_rsnxe:0000000000000020 .L0 
C:\Users\stapi\AppData\Local\Temp\ccNAGkjl.s:1985   .text.hostapd_eid_rsnxe:0000000000000020 .L0 
C:\Users\stapi\AppData\Local\Temp\ccNAGkjl.s:1988   .text.hostapd_eid_rsnxe:0000000000000020 .L0 
C:\Users\stapi\AppData\Local\Temp\ccNAGkjl.s:1992   .text.hostapd_eid_rsnxe:0000000000000020 .L0 
C:\Users\stapi\AppData\Local\Temp\ccNAGkjl.s:2003   .text.hostapd_eid_rsnxe:000000000000002e .L0 
C:\Users\stapi\AppData\Local\Temp\ccNAGkjl.s:2006   .text.hostapd_eid_rsnxe:000000000000002e .L0 
C:\Users\stapi\AppData\Local\Temp\ccNAGkjl.s:2007   .text.hostapd_eid_rsnxe:000000000000002e .L0 
C:\Users\stapi\AppData\Local\Temp\ccNAGkjl.s:2011   .text.hostapd_eid_rsnxe:0000000000000030 .L0 
C:\Users\stapi\AppData\Local\Temp\ccNAGkjl.s:2015   .text.hostapd_eid_rsnxe:0000000000000032 .L0 
C:\Users\stapi\AppData\Local\Temp\ccNAGkjl.s:2016   .text.hostapd_eid_rsnxe:0000000000000032 .L0 
C:\Users\stapi\AppData\Local\Temp\ccNAGkjl.s:2019   .text.hostapd_eid_rsnxe:0000000000000038 .L0 
C:\Users\stapi\AppData\Local\Temp\ccNAGkjl.s:2021   .text.hostapd_eid_rsnxe:000000000000003c .L0 
C:\Users\stapi\AppData\Local\Temp\ccNAGkjl.s:2023   .text.hostapd_eid_rsnxe:000000000000003e .L0 
C:\Users\stapi\AppData\Local\Temp\ccNAGkjl.s:2024   .text.hostapd_eid_rsnxe:000000000000003e .L0 
C:\Users\stapi\AppData\Local\Temp\ccNAGkjl.s:2028   .text.hostapd_eid_rsnxe:0000000000000042 .L0 
C:\Users\stapi\AppData\Local\Temp\ccNAGkjl.s:2029   .text.hostapd_eid_rsnxe:0000000000000042 .L0 
C:\Users\stapi\AppData\Local\Temp\ccNAGkjl.s:2031   .text.hostapd_eid_rsnxe:0000000000000046 .L0 
C:\Users\stapi\AppData\Local\Temp\ccNAGkjl.s:2033   .text.hostapd_eid_rsnxe:0000000000000048 .L0 
C:\Users\stapi\AppData\Local\Temp\ccNAGkjl.s:2034   .text.hostapd_eid_rsnxe:0000000000000048 .L0 
C:\Users\stapi\AppData\Local\Temp\ccNAGkjl.s:2038   .text.hostapd_eid_rsnxe:000000000000004c .L0 
C:\Users\stapi\AppData\Local\Temp\ccNAGkjl.s:2039   .text.hostapd_eid_rsnxe:000000000000004c .L0 
C:\Users\stapi\AppData\Local\Temp\ccNAGkjl.s:2041   .text.hostapd_eid_rsnxe:000000000000004e .L0 
C:\Users\stapi\AppData\Local\Temp\ccNAGkjl.s:2043   .text.hostapd_eid_rsnxe:0000000000000050 .L0 
C:\Users\stapi\AppData\Local\Temp\ccNAGkjl.s:2044   .text.hostapd_eid_rsnxe:0000000000000050 .L0 
C:\Users\stapi\AppData\Local\Temp\ccNAGkjl.s:2047   .text.hostapd_eid_rsnxe:0000000000000054 .L0 
C:\Users\stapi\AppData\Local\Temp\ccNAGkjl.s:2048   .text.hostapd_eid_rsnxe:0000000000000054 .L0 
C:\Users\stapi\AppData\Local\Temp\ccNAGkjl.s:2052   .text.hostapd_eid_rsnxe:0000000000000056 .L0 
C:\Users\stapi\AppData\Local\Temp\ccNAGkjl.s:2053   .text.hostapd_eid_rsnxe:0000000000000056 .L0 
C:\Users\stapi\AppData\Local\Temp\ccNAGkjl.s:2059   .text.hostapd_eid_rsnxe:0000000000000060 .L0 
C:\Users\stapi\AppData\Local\Temp\ccNAGkjl.s:2061   .text.hostapd_eid_rsnxe:0000000000000064 .L0 
C:\Users\stapi\AppData\Local\Temp\ccNAGkjl.s:2063   .text.hostapd_eid_rsnxe:0000000000000066 .L0 
C:\Users\stapi\AppData\Local\Temp\ccNAGkjl.s:2064   .text.hostapd_eid_rsnxe:0000000000000066 .L0 
C:\Users\stapi\AppData\Local\Temp\ccNAGkjl.s:2066   .text.hostapd_eid_rsnxe:000000000000006a .L0 
C:\Users\stapi\AppData\Local\Temp\ccNAGkjl.s:2069   .text.hostapd_eid_rsnxe:000000000000006c .L0 
C:\Users\stapi\AppData\Local\Temp\ccNAGkjl.s:2071   .text.hostapd_eid_rsnxe:000000000000006e .L0 
C:\Users\stapi\AppData\Local\Temp\ccNAGkjl.s:2074   .text.hostapd_eid_rsnxe:0000000000000072 .L0 
C:\Users\stapi\AppData\Local\Temp\ccNAGkjl.s:2075   .text.hostapd_eid_rsnxe:0000000000000072 .L0 
C:\Users\stapi\AppData\Local\Temp\ccNAGkjl.s:2078   .text.hostapd_eid_rsnxe:0000000000000076 .L0 
C:\Users\stapi\AppData\Local\Temp\ccNAGkjl.s:2079   .text.hostapd_eid_rsnxe:0000000000000076 .L0 
C:\Users\stapi\AppData\Local\Temp\ccNAGkjl.s:2081   .text.hostapd_eid_rsnxe:000000000000007a .L0 
C:\Users\stapi\AppData\Local\Temp\ccNAGkjl.s:2084   .text.hostapd_eid_rsnxe:000000000000007e .L0 
C:\Users\stapi\AppData\Local\Temp\ccNAGkjl.s:2085   .text.hostapd_eid_rsnxe:000000000000007e .L0 
C:\Users\stapi\AppData\Local\Temp\ccNAGkjl.s:2086   .text.hostapd_eid_rsnxe:000000000000007e .L0 
C:\Users\stapi\AppData\Local\Temp\ccNAGkjl.s:2089   .text.hostapd_eid_rsnxe:0000000000000080 .L0 
C:\Users\stapi\AppData\Local\Temp\ccNAGkjl.s:2090   .text.hostapd_eid_rsnxe:0000000000000080 .L0 
C:\Users\stapi\AppData\Local\Temp\ccNAGkjl.s:2093   .text.hostapd_eid_rsnxe:0000000000000084 .L0 
C:\Users\stapi\AppData\Local\Temp\ccNAGkjl.s:2095   .text.hostapd_eid_rsnxe:0000000000000086 .L0 
C:\Users\stapi\AppData\Local\Temp\ccNAGkjl.s:2096   .text.hostapd_eid_rsnxe:0000000000000086 .L0 
C:\Users\stapi\AppData\Local\Temp\ccNAGkjl.s:2099   .text.hostapd_eid_rsnxe:000000000000008a .L0 
C:\Users\stapi\AppData\Local\Temp\ccNAGkjl.s:2105   .text.hostapd_eid_rsnxe:0000000000000090 .L0 
C:\Users\stapi\AppData\Local\Temp\ccNAGkjl.s:2107   .text.hostapd_eid_rsnxe:0000000000000094 .L0 
C:\Users\stapi\AppData\Local\Temp\ccNAGkjl.s:2109   .text.hostapd_eid_rsnxe:0000000000000096 .L0 
C:\Users\stapi\AppData\Local\Temp\ccNAGkjl.s:2111   .text.hostapd_eid_rsnxe:0000000000000098 .L0 
C:\Users\stapi\AppData\Local\Temp\ccNAGkjl.s:2115   .text.hostapd_eid_rsnxe:000000000000009c .L0 
C:\Users\stapi\AppData\Local\Temp\ccNAGkjl.s:2117   .text.hostapd_eid_rsnxe:000000000000009e .L0 
C:\Users\stapi\AppData\Local\Temp\ccNAGkjl.s:2120   .text.hostapd_eid_rsnxe:00000000000000a4 .L0 
C:\Users\stapi\AppData\Local\Temp\ccNAGkjl.s:2122   .text.hostapd_eid_rsnxe:00000000000000a8 .L0 
C:\Users\stapi\AppData\Local\Temp\ccNAGkjl.s:2127   .text.hostapd_eid_rsnxe:00000000000000ae .L0 
C:\Users\stapi\AppData\Local\Temp\ccNAGkjl.s:2130   .text.hostapd_eid_rsnxe:00000000000000b6 .L0 
C:\Users\stapi\AppData\Local\Temp\ccNAGkjl.s:2135   .text.hostapd_eid_rsnxe:00000000000000ba .L0 
C:\Users\stapi\AppData\Local\Temp\ccNAGkjl.s:2136   .text.hostapd_eid_rsnxe:00000000000000ba .L0 
C:\Users\stapi\AppData\Local\Temp\ccNAGkjl.s:2141   .text.hostapd_eid_rsnxe:00000000000000ca .L0 
C:\Users\stapi\AppData\Local\Temp\ccNAGkjl.s:168    .text.hostapd_eid_assoc_comeback_time:00000000000000a4 .L0 
C:\Users\stapi\AppData\Local\Temp\ccNAGkjl.s:345    .text.ieee802_11_send_sa_query_req:0000000000000116 .L0 
C:\Users\stapi\AppData\Local\Temp\ccNAGkjl.s:780    .text.ieee802_11_sa_query_action:00000000000002d4 .L0 
C:\Users\stapi\AppData\Local\Temp\ccNAGkjl.s:1269   .text.hostapd_eid_ext_capab:0000000000000236 .L0 
C:\Users\stapi\AppData\Local\Temp\ccNAGkjl.s:1339   .text.hostapd_eid_qos_map_set:000000000000004a .L0 
C:\Users\stapi\AppData\Local\Temp\ccNAGkjl.s:1357   .text.hostapd_eid_interworking:0000000000000004 .L0 
C:\Users\stapi\AppData\Local\Temp\ccNAGkjl.s:1458   .text.hostapd_eid_time_zone:000000000000005a .L0 
C:\Users\stapi\AppData\Local\Temp\ccNAGkjl.s:1694   .text.hostapd_update_time_adv:00000000000000e0 .L0 
C:\Users\stapi\AppData\Local\Temp\ccNAGkjl.s:1786   .text.hostapd_eid_time_adv:0000000000000054 .L0 
C:\Users\stapi\AppData\Local\Temp\ccNAGkjl.s:1815   .text.hostapd_eid_owe_trans_len:0000000000000004 .L0 
C:\Users\stapi\AppData\Local\Temp\ccNAGkjl.s:1832   .text.hostapd_eid_owe_trans:0000000000000004 .L0 
C:\Users\stapi\AppData\Local\Temp\ccNAGkjl.s:1921   .text.ap_copy_sta_supp_op_classes:0000000000000050 .L0 
C:\Users\stapi\AppData\Local\Temp\ccNAGkjl.s:1939   .text.hostapd_eid_fils_indic:0000000000000004 .L0 
C:\Users\stapi\AppData\Local\Temp\ccNAGkjl.s:2144   .text.hostapd_eid_rsnxe:00000000000000ca .L0 
                     .debug_frame:0000000000000000 .L0 
C:\Users\stapi\AppData\Local\Temp\ccNAGkjl.s:91     .text.hostapd_eid_assoc_comeback_time:000000000000004e .L2
C:\Users\stapi\AppData\Local\Temp\ccNAGkjl.s:117    .text.hostapd_eid_assoc_comeback_time:0000000000000074 .L3
C:\Users\stapi\AppData\Local\Temp\ccNAGkjl.s:125    .text.hostapd_eid_assoc_comeback_time:000000000000007a .L4
C:\Users\stapi\AppData\Local\Temp\ccNAGkjl.s:170    .rodata.ieee802_11_send_sa_query_req.str1.4:0000000000000000 .LC0
C:\Users\stapi\AppData\Local\Temp\ccNAGkjl.s:173    .rodata.ieee802_11_send_sa_query_req.str1.4:0000000000000048 .LC1
C:\Users\stapi\AppData\Local\Temp\ccNAGkjl.s:176    .rodata.ieee802_11_send_sa_query_req.str1.4:0000000000000070 .LC2
C:\Users\stapi\AppData\Local\Temp\ccNAGkjl.s:179    .rodata.ieee802_11_send_sa_query_req.str1.4:00000000000000a8 .LC3
C:\Users\stapi\AppData\Local\Temp\ccNAGkjl.s:271    .text.ieee802_11_send_sa_query_req:0000000000000084 .L8
C:\Users\stapi\AppData\Local\Temp\ccNAGkjl.s:336    .text.ieee802_11_send_sa_query_req:000000000000010a .L10
C:\Users\stapi\AppData\Local\Temp\ccNAGkjl.s:254    .text.ieee802_11_send_sa_query_req:0000000000000070 .L12
C:\Users\stapi\AppData\Local\Temp\ccNAGkjl.s:347    .rodata.ieee802_11_sa_query_action.str1.4:0000000000000000 .LC4
C:\Users\stapi\AppData\Local\Temp\ccNAGkjl.s:350    .rodata.ieee802_11_sa_query_action.str1.4:0000000000000038 .LC5
C:\Users\stapi\AppData\Local\Temp\ccNAGkjl.s:353    .rodata.ieee802_11_sa_query_action.str1.4:00000000000000b0 .LC6
C:\Users\stapi\AppData\Local\Temp\ccNAGkjl.s:356    .rodata.ieee802_11_sa_query_action.str1.4:00000000000000fc .LC7
C:\Users\stapi\AppData\Local\Temp\ccNAGkjl.s:359    .rodata.ieee802_11_sa_query_action.str1.4:0000000000000158 .LC8
C:\Users\stapi\AppData\Local\Temp\ccNAGkjl.s:362    .rodata.ieee802_11_sa_query_action.str1.4:00000000000001a0 .LC9
C:\Users\stapi\AppData\Local\Temp\ccNAGkjl.s:365    .rodata.ieee802_11_sa_query_action.str1.4:00000000000001d0 .LC10
C:\Users\stapi\AppData\Local\Temp\ccNAGkjl.s:368    .rodata.ieee802_11_sa_query_action.str1.4:00000000000001fc .LC11
C:\Users\stapi\AppData\Local\Temp\ccNAGkjl.s:371    .rodata.ieee802_11_sa_query_action.str1.4:0000000000000248 .LC12
C:\Users\stapi\AppData\Local\Temp\ccNAGkjl.s:374    .rodata.ieee802_11_sa_query_action.str1.4:000000000000028c .LC13
C:\Users\stapi\AppData\Local\Temp\ccNAGkjl.s:422    .text.ieee802_11_sa_query_action:000000000000002a .L14
C:\Users\stapi\AppData\Local\Temp\ccNAGkjl.s:468    .text.ieee802_11_sa_query_action:0000000000000080 .L13
C:\Users\stapi\AppData\Local\Temp\ccNAGkjl.s:482    .text.ieee802_11_sa_query_action:000000000000008a .L16
C:\Users\stapi\AppData\Local\Temp\ccNAGkjl.s:683    .text.ieee802_11_sa_query_action:0000000000000226 .L17
C:\Users\stapi\AppData\Local\Temp\ccNAGkjl.s:515    .text.ieee802_11_sa_query_action:00000000000000ba .L18
C:\Users\stapi\AppData\Local\Temp\ccNAGkjl.s:559    .text.ieee802_11_sa_query_action:000000000000010e .L19
C:\Users\stapi\AppData\Local\Temp\ccNAGkjl.s:576    .text.ieee802_11_sa_query_action:000000000000013a .L20
C:\Users\stapi\AppData\Local\Temp\ccNAGkjl.s:601    .text.ieee802_11_sa_query_action:0000000000000168 .L21
C:\Users\stapi\AppData\Local\Temp\ccNAGkjl.s:676    .text.ieee802_11_sa_query_action:000000000000021a .L22
C:\Users\stapi\AppData\Local\Temp\ccNAGkjl.s:595    .text.ieee802_11_sa_query_action:000000000000015c .L43
C:\Users\stapi\AppData\Local\Temp\ccNAGkjl.s:694    .text.ieee802_11_sa_query_action:0000000000000236 .L23
C:\Users\stapi\AppData\Local\Temp\ccNAGkjl.s:414    .text.ieee802_11_sa_query_action:000000000000001e .L42
C:\Users\stapi\AppData\Local\Temp\ccNAGkjl.s:725    .text.ieee802_11_sa_query_action:0000000000000280 .L24
C:\Users\stapi\AppData\Local\Temp\ccNAGkjl.s:753    .text.ieee802_11_sa_query_action:00000000000002ac .L25
C:\Users\stapi\AppData\Local\Temp\ccNAGkjl.s:763    .text.ieee802_11_sa_query_action:00000000000002be .L26
C:\Users\stapi\AppData\Local\Temp\ccNAGkjl.s:737    .text.ieee802_11_sa_query_action:0000000000000294 .L27
C:\Users\stapi\AppData\Local\Temp\ccNAGkjl.s:729    .text.ieee802_11_sa_query_action:0000000000000288 .L41
C:\Users\stapi\AppData\Local\Temp\ccNAGkjl.s:758    .text.ieee802_11_sa_query_action:00000000000002b4 .L28
C:\Users\stapi\AppData\Local\Temp\ccNAGkjl.s:925    .rodata.hostapd_eid_ext_capab:0000000000000000 .L48
C:\Users\stapi\AppData\Local\Temp\ccNAGkjl.s:908    .text.hostapd_eid_ext_capab:0000000000000070 .L73
C:\Users\stapi\AppData\Local\Temp\ccNAGkjl.s:888    .text.hostapd_eid_ext_capab:0000000000000066 .L97
C:\Users\stapi\AppData\Local\Temp\ccNAGkjl.s:1252   .text.hostapd_eid_ext_capab:000000000000022a .L76
C:\Users\stapi\AppData\Local\Temp\ccNAGkjl.s:1084   .text.hostapd_eid_ext_capab:0000000000000140 .L46
C:\Users\stapi\AppData\Local\Temp\ccNAGkjl.s:949    .text.hostapd_eid_ext_capab:000000000000008e .L57
C:\Users\stapi\AppData\Local\Temp\ccNAGkjl.s:978    .text.hostapd_eid_ext_capab:00000000000000b4 .L59
C:\Users\stapi\AppData\Local\Temp\ccNAGkjl.s:962    .text.hostapd_eid_ext_capab:00000000000000a0 .L136
C:\Users\stapi\AppData\Local\Temp\ccNAGkjl.s:1000   .text.hostapd_eid_ext_capab:00000000000000d2 .L61
C:\Users\stapi\AppData\Local\Temp\ccNAGkjl.s:1023   .text.hostapd_eid_ext_capab:00000000000000f4 .L62
C:\Users\stapi\AppData\Local\Temp\ccNAGkjl.s:1050   .text.hostapd_eid_ext_capab:0000000000000112 .L63
C:\Users\stapi\AppData\Local\Temp\ccNAGkjl.s:1064   .text.hostapd_eid_ext_capab:0000000000000128 .L64
C:\Users\stapi\AppData\Local\Temp\ccNAGkjl.s:1029   .text.hostapd_eid_ext_capab:00000000000000fa .L140
C:\Users\stapi\AppData\Local\Temp\ccNAGkjl.s:1114   .text.hostapd_eid_ext_capab:0000000000000172 .L71
C:\Users\stapi\AppData\Local\Temp\ccNAGkjl.s:1138   .text.hostapd_eid_ext_capab:000000000000019a .L72
C:\Users\stapi\AppData\Local\Temp\ccNAGkjl.s:863    .text.hostapd_eid_ext_capab:0000000000000044 .L45
C:\Users\stapi\AppData\Local\Temp\ccNAGkjl.s:1035   .text.hostapd_eid_ext_capab:0000000000000100 .L137
C:\Users\stapi\AppData\Local\Temp\ccNAGkjl.s:1224   .text.hostapd_eid_ext_capab:0000000000000206 .L67
C:\Users\stapi\AppData\Local\Temp\ccNAGkjl.s:1245   .text.hostapd_eid_ext_capab:0000000000000224 .L69
C:\Users\stapi\AppData\Local\Temp\ccNAGkjl.s:1220   .text.hostapd_eid_ext_capab:0000000000000202 .L135
C:\Users\stapi\AppData\Local\Temp\ccNAGkjl.s:874    .text.hostapd_eid_ext_capab:0000000000000054 .L74
C:\Users\stapi\AppData\Local\Temp\ccNAGkjl.s:938    .text.hostapd_eid_ext_capab:0000000000000082 .L56
C:\Users\stapi\AppData\Local\Temp\ccNAGkjl.s:967    .text.hostapd_eid_ext_capab:00000000000000a6 .L55
C:\Users\stapi\AppData\Local\Temp\ccNAGkjl.s:990    .text.hostapd_eid_ext_capab:00000000000000c6 .L54
C:\Users\stapi\AppData\Local\Temp\ccNAGkjl.s:1012   .text.hostapd_eid_ext_capab:00000000000000e4 .L53
C:\Users\stapi\AppData\Local\Temp\ccNAGkjl.s:1040   .text.hostapd_eid_ext_capab:0000000000000106 .L52
C:\Users\stapi\AppData\Local\Temp\ccNAGkjl.s:1072   .text.hostapd_eid_ext_capab:0000000000000132 .L51
C:\Users\stapi\AppData\Local\Temp\ccNAGkjl.s:1148   .text.hostapd_eid_ext_capab:00000000000001a0 .L50
C:\Users\stapi\AppData\Local\Temp\ccNAGkjl.s:1167   .text.hostapd_eid_ext_capab:00000000000001ba .L49
C:\Users\stapi\AppData\Local\Temp\ccNAGkjl.s:1186   .text.hostapd_eid_ext_capab:00000000000001da .L47
C:\Users\stapi\AppData\Local\Temp\ccNAGkjl.s:1329   .text.hostapd_eid_qos_map_set:0000000000000042 .L142
C:\Users\stapi\AppData\Local\Temp\ccNAGkjl.s:1445   .text.hostapd_eid_time_zone:0000000000000050 .L151
C:\Users\stapi\AppData\Local\Temp\ccNAGkjl.s:1677   .text.hostapd_update_time_adv:00000000000000dc .L163
C:\Users\stapi\AppData\Local\Temp\ccNAGkjl.s:1513   .text.hostapd_update_time_adv:0000000000000032 .L158
C:\Users\stapi\AppData\Local\Temp\ccNAGkjl.s:1497   .text.hostapd_update_time_adv:0000000000000026 .L160
C:\Users\stapi\AppData\Local\Temp\ccNAGkjl.s:1660   .text.hostapd_update_time_adv:00000000000000d8 .L161
C:\Users\stapi\AppData\Local\Temp\ccNAGkjl.s:1501   .text.hostapd_update_time_adv:0000000000000028 .L156
C:\Users\stapi\AppData\Local\Temp\ccNAGkjl.s:1544   .text.hostapd_update_time_adv:0000000000000062 .L162
C:\Users\stapi\AppData\Local\Temp\ccNAGkjl.s:1731   .text.hostapd_eid_time_adv:0000000000000024 .L173
C:\Users\stapi\AppData\Local\Temp\ccNAGkjl.s:1741   .text.hostapd_eid_time_adv:000000000000002e .L174
C:\Users\stapi\AppData\Local\Temp\ccNAGkjl.s:1749   .text.hostapd_eid_time_adv:000000000000003c .L181
C:\Users\stapi\AppData\Local\Temp\ccNAGkjl.s:1724   .text.hostapd_eid_time_adv:000000000000001e .L177
C:\Users\stapi\AppData\Local\Temp\ccNAGkjl.s:1908   .text.ap_copy_sta_supp_op_classes:0000000000000046 .L188
C:\Users\stapi\AppData\Local\Temp\ccNAGkjl.s:1987   .text.hostapd_eid_rsnxe:0000000000000020 .L198
C:\Users\stapi\AppData\Local\Temp\ccNAGkjl.s:2103   .text.hostapd_eid_rsnxe:0000000000000090 .L200
C:\Users\stapi\AppData\Local\Temp\ccNAGkjl.s:2026   .text.hostapd_eid_rsnxe:0000000000000042 .L205
C:\Users\stapi\AppData\Local\Temp\ccNAGkjl.s:2036   .text.hostapd_eid_rsnxe:000000000000004c .L207
C:\Users\stapi\AppData\Local\Temp\ccNAGkjl.s:2133   .text.hostapd_eid_rsnxe:00000000000000ba .L209
C:\Users\stapi\AppData\Local\Temp\ccNAGkjl.s:2057   .text.hostapd_eid_rsnxe:0000000000000060 .L214
C:\Users\stapi\AppData\Local\Temp\ccNAGkjl.s:1973   .text.hostapd_eid_rsnxe:0000000000000016 .L212
C:\Users\stapi\AppData\Local\Temp\ccNAGkjl.s:1977   .text.hostapd_eid_rsnxe:0000000000000018 .L197
C:\Users\stapi\AppData\Local\Temp\ccNAGkjl.s:2125   .text.hostapd_eid_rsnxe:00000000000000ae .L202
C:\Users\stapi\AppData\Local\Temp\ccNAGkjl.s:2012   .text.hostapd_eid_rsnxe:0000000000000032 .L201
C:\Users\stapi\AppData\Local\Temp\ccNAGkjl.s:2009   .text.hostapd_eid_rsnxe:0000000000000030 .L203
C:\Users\stapi\AppData\Local\Temp\ccNAGkjl.s:2113   .text.hostapd_eid_rsnxe:000000000000009c .L204
C:\Users\stapi\AppData\Local\Temp\ccNAGkjl.s:2049   .text.hostapd_eid_rsnxe:0000000000000056 .L211
C:\Users\stapi\AppData\Local\Temp\ccNAGkjl.s:19985  .debug_abbrev:0000000000000000 .Ldebug_abbrev0
C:\Users\stapi\AppData\Local\Temp\ccNAGkjl.s:24776  .debug_str:00000000000034ac .LASF1602
C:\Users\stapi\AppData\Local\Temp\ccNAGkjl.s:25988  .debug_str:0000000000005950 .LASF1603
C:\Users\stapi\AppData\Local\Temp\ccNAGkjl.s:25958  .debug_str:00000000000057fc .LASF1604
C:\Users\stapi\AppData\Local\Temp\ccNAGkjl.s:22872  .debug_ranges:0000000000000000 .Ldebug_ranges0
C:\Users\stapi\AppData\Local\Temp\ccNAGkjl.s:22958  .debug_line:0000000000000000 .Ldebug_line0
C:\Users\stapi\AppData\Local\Temp\ccNAGkjl.s:23418  .debug_str:0000000000000d6b .LASF1
C:\Users\stapi\AppData\Local\Temp\ccNAGkjl.s:26162  .debug_str:0000000000005f0b .LASF0
C:\Users\stapi\AppData\Local\Temp\ccNAGkjl.s:24256  .debug_str:0000000000002551 .LASF2
C:\Users\stapi\AppData\Local\Temp\ccNAGkjl.s:25484  .debug_str:00000000000049e9 .LASF3
C:\Users\stapi\AppData\Local\Temp\ccNAGkjl.s:23580  .debug_str:0000000000001200 .LASF4
C:\Users\stapi\AppData\Local\Temp\ccNAGkjl.s:24548  .debug_str:0000000000002dda .LASF5
C:\Users\stapi\AppData\Local\Temp\ccNAGkjl.s:25074  .debug_str:0000000000003e80 .LASF6
C:\Users\stapi\AppData\Local\Temp\ccNAGkjl.s:23966  .debug_str:0000000000001ced .LASF7
C:\Users\stapi\AppData\Local\Temp\ccNAGkjl.s:24406  .debug_str:0000000000002a20 .LASF8
C:\Users\stapi\AppData\Local\Temp\ccNAGkjl.s:25188  .debug_str:0000000000004195 .LASF9
C:\Users\stapi\AppData\Local\Temp\ccNAGkjl.s:25184  .debug_str:0000000000004180 .LASF10
C:\Users\stapi\AppData\Local\Temp\ccNAGkjl.s:24732  .debug_str:0000000000003350 .LASF11
C:\Users\stapi\AppData\Local\Temp\ccNAGkjl.s:23002  .debug_str:000000000000013c .LASF12
C:\Users\stapi\AppData\Local\Temp\ccNAGkjl.s:22968  .debug_str:0000000000000055 .LASF13
C:\Users\stapi\AppData\Local\Temp\ccNAGkjl.s:25552  .debug_str:0000000000004bf6 .LASF14
C:\Users\stapi\AppData\Local\Temp\ccNAGkjl.s:25630  .debug_str:0000000000004e28 .LASF15
C:\Users\stapi\AppData\Local\Temp\ccNAGkjl.s:25798  .debug_str:0000000000005331 .LASF16
C:\Users\stapi\AppData\Local\Temp\ccNAGkjl.s:25568  .debug_str:0000000000004c78 .LASF17
C:\Users\stapi\AppData\Local\Temp\ccNAGkjl.s:24468  .debug_str:0000000000002bd3 .LASF18
C:\Users\stapi\AppData\Local\Temp\ccNAGkjl.s:25608  .debug_str:0000000000004d91 .LASF19
C:\Users\stapi\AppData\Local\Temp\ccNAGkjl.s:26102  .debug_str:0000000000005d36 .LASF20
C:\Users\stapi\AppData\Local\Temp\ccNAGkjl.s:23196  .debug_str:00000000000006ff .LASF21
C:\Users\stapi\AppData\Local\Temp\ccNAGkjl.s:24008  .debug_str:0000000000001e37 .LASF22
C:\Users\stapi\AppData\Local\Temp\ccNAGkjl.s:24188  .debug_str:000000000000234d .LASF23
C:\Users\stapi\AppData\Local\Temp\ccNAGkjl.s:24066  .debug_str:0000000000001fac .LASF24
C:\Users\stapi\AppData\Local\Temp\ccNAGkjl.s:24632  .debug_str:000000000000305b .LASF25
C:\Users\stapi\AppData\Local\Temp\ccNAGkjl.s:23742  .debug_str:000000000000169a .LASF27
C:\Users\stapi\AppData\Local\Temp\ccNAGkjl.s:23358  .debug_str:0000000000000b88 .LASF29
C:\Users\stapi\AppData\Local\Temp\ccNAGkjl.s:24184  .debug_str:0000000000002330 .LASF26
C:\Users\stapi\AppData\Local\Temp\ccNAGkjl.s:25412  .debug_str:00000000000047dc .LASF28
C:\Users\stapi\AppData\Local\Temp\ccNAGkjl.s:25756  .debug_str:00000000000051fe .LASF30
C:\Users\stapi\AppData\Local\Temp\ccNAGkjl.s:24338  .debug_str:00000000000027db .LASF31
C:\Users\stapi\AppData\Local\Temp\ccNAGkjl.s:23892  .debug_str:0000000000001ae7 .LASF32
C:\Users\stapi\AppData\Local\Temp\ccNAGkjl.s:24470  .debug_str:0000000000002bdb .LASF33
C:\Users\stapi\AppData\Local\Temp\ccNAGkjl.s:24036  .debug_str:0000000000001ed8 .LASF34
C:\Users\stapi\AppData\Local\Temp\ccNAGkjl.s:23084  .debug_str:00000000000003d7 .LASF35
C:\Users\stapi\AppData\Local\Temp\ccNAGkjl.s:23928  .debug_str:0000000000001bef .LASF36
C:\Users\stapi\AppData\Local\Temp\ccNAGkjl.s:23386  .debug_str:0000000000000c6c .LASF37
C:\Users\stapi\AppData\Local\Temp\ccNAGkjl.s:23996  .debug_str:0000000000001dcf .LASF38
C:\Users\stapi\AppData\Local\Temp\ccNAGkjl.s:23070  .debug_str:0000000000000370 .LASF39
C:\Users\stapi\AppData\Local\Temp\ccNAGkjl.s:23348  .debug_str:0000000000000b33 .LASF40
C:\Users\stapi\AppData\Local\Temp\ccNAGkjl.s:25758  .debug_str:0000000000005203 .LASF41
C:\Users\stapi\AppData\Local\Temp\ccNAGkjl.s:25754  .debug_str:00000000000051f8 .LASF42
C:\Users\stapi\AppData\Local\Temp\ccNAGkjl.s:25050  .debug_str:0000000000003dde .LASF43
C:\Users\stapi\AppData\Local\Temp\ccNAGkjl.s:24528  .debug_str:0000000000002d4e .LASF44
C:\Users\stapi\AppData\Local\Temp\ccNAGkjl.s:24638  .debug_str:0000000000003093 .LASF45
C:\Users\stapi\AppData\Local\Temp\ccNAGkjl.s:24590  .debug_str:0000000000002f39 .LASF46
C:\Users\stapi\AppData\Local\Temp\ccNAGkjl.s:24020  .debug_str:0000000000001e78 .LASF47
C:\Users\stapi\AppData\Local\Temp\ccNAGkjl.s:25322  .debug_str:000000000000451f .LASF48
C:\Users\stapi\AppData\Local\Temp\ccNAGkjl.s:25878  .debug_str:00000000000055a7 .LASF149
C:\Users\stapi\AppData\Local\Temp\ccNAGkjl.s:23458  .debug_str:0000000000000e7e .LASF49
C:\Users\stapi\AppData\Local\Temp\ccNAGkjl.s:25344  .debug_str:00000000000045c0 .LASF50
C:\Users\stapi\AppData\Local\Temp\ccNAGkjl.s:24484  .debug_str:0000000000002c2c .LASF51
C:\Users\stapi\AppData\Local\Temp\ccNAGkjl.s:26012  .debug_str:0000000000005a7a .LASF52
C:\Users\stapi\AppData\Local\Temp\ccNAGkjl.s:24452  .debug_str:0000000000002b51 .LASF53
C:\Users\stapi\AppData\Local\Temp\ccNAGkjl.s:24390  .debug_str:00000000000029b1 .LASF54
C:\Users\stapi\AppData\Local\Temp\ccNAGkjl.s:25702  .debug_str:0000000000005077 .LASF55
C:\Users\stapi\AppData\Local\Temp\ccNAGkjl.s:25942  .debug_str:0000000000005796 .LASF56
C:\Users\stapi\AppData\Local\Temp\ccNAGkjl.s:23172  .debug_str:0000000000000636 .LASF57
C:\Users\stapi\AppData\Local\Temp\ccNAGkjl.s:26080  .debug_str:0000000000005c94 .LASF58
C:\Users\stapi\AppData\Local\Temp\ccNAGkjl.s:23072  .debug_str:0000000000000377 .LASF59
C:\Users\stapi\AppData\Local\Temp\ccNAGkjl.s:23166  .debug_str:000000000000061d .LASF60
C:\Users\stapi\AppData\Local\Temp\ccNAGkjl.s:23238  .debug_str:0000000000000800 .LASF61
C:\Users\stapi\AppData\Local\Temp\ccNAGkjl.s:24906  .debug_str:00000000000039bd .LASF62
C:\Users\stapi\AppData\Local\Temp\ccNAGkjl.s:24458  .debug_str:0000000000002b85 .LASF63
C:\Users\stapi\AppData\Local\Temp\ccNAGkjl.s:25320  .debug_str:0000000000004514 .LASF64
C:\Users\stapi\AppData\Local\Temp\ccNAGkjl.s:23846  .debug_str:00000000000019a0 .LASF65
C:\Users\stapi\AppData\Local\Temp\ccNAGkjl.s:23480  .debug_str:0000000000000f29 .LASF66
C:\Users\stapi\AppData\Local\Temp\ccNAGkjl.s:23794  .debug_str:000000000000183e .LASF67
C:\Users\stapi\AppData\Local\Temp\ccNAGkjl.s:23690  .debug_str:0000000000001519 .LASF68
C:\Users\stapi\AppData\Local\Temp\ccNAGkjl.s:24780  .debug_str:00000000000035b0 .LASF69
C:\Users\stapi\AppData\Local\Temp\ccNAGkjl.s:26106  .debug_str:0000000000005d51 .LASF70
C:\Users\stapi\AppData\Local\Temp\ccNAGkjl.s:24418  .debug_str:0000000000002a76 .LASF71
C:\Users\stapi\AppData\Local\Temp\ccNAGkjl.s:23532  .debug_str:00000000000010a2 .LASF72
C:\Users\stapi\AppData\Local\Temp\ccNAGkjl.s:25760  .debug_str:0000000000005208 .LASF73
C:\Users\stapi\AppData\Local\Temp\ccNAGkjl.s:24928  .debug_str:0000000000003a75 .LASF74
C:\Users\stapi\AppData\Local\Temp\ccNAGkjl.s:25504  .debug_str:0000000000004a61 .LASF75
C:\Users\stapi\AppData\Local\Temp\ccNAGkjl.s:23234  .debug_str:00000000000007da .LASF76
C:\Users\stapi\AppData\Local\Temp\ccNAGkjl.s:25472  .debug_str:0000000000004988 .LASF77
C:\Users\stapi\AppData\Local\Temp\ccNAGkjl.s:24560  .debug_str:0000000000002e2b .LASF78
C:\Users\stapi\AppData\Local\Temp\ccNAGkjl.s:24414  .debug_str:0000000000002a61 .LASF79
C:\Users\stapi\AppData\Local\Temp\ccNAGkjl.s:24416  .debug_str:0000000000002a6d .LASF80
C:\Users\stapi\AppData\Local\Temp\ccNAGkjl.s:24790  .debug_str:00000000000035ea .LASF81
C:\Users\stapi\AppData\Local\Temp\ccNAGkjl.s:23640  .debug_str:00000000000013a9 .LASF82
C:\Users\stapi\AppData\Local\Temp\ccNAGkjl.s:24200  .debug_str:00000000000023a1 .LASF83
C:\Users\stapi\AppData\Local\Temp\ccNAGkjl.s:26062  .debug_str:0000000000005c00 .LASF84
C:\Users\stapi\AppData\Local\Temp\ccNAGkjl.s:23114  .debug_str:00000000000004a3 .LASF85
C:\Users\stapi\AppData\Local\Temp\ccNAGkjl.s:23440  .debug_str:0000000000000e0f .LASF86
C:\Users\stapi\AppData\Local\Temp\ccNAGkjl.s:24980  .debug_str:0000000000003bf5 .LASF87
C:\Users\stapi\AppData\Local\Temp\ccNAGkjl.s:24348  .debug_str:000000000000282d .LASF88
C:\Users\stapi\AppData\Local\Temp\ccNAGkjl.s:25466  .debug_str:0000000000004955 .LASF89
C:\Users\stapi\AppData\Local\Temp\ccNAGkjl.s:23906  .debug_str:0000000000001b4e .LASF90
C:\Users\stapi\AppData\Local\Temp\ccNAGkjl.s:23104  .debug_str:0000000000000467 .LASF91
C:\Users\stapi\AppData\Local\Temp\ccNAGkjl.s:25018  .debug_str:0000000000003d12 .LASF92
C:\Users\stapi\AppData\Local\Temp\ccNAGkjl.s:24990  .debug_str:0000000000003c23 .LASF93
C:\Users\stapi\AppData\Local\Temp\ccNAGkjl.s:23936  .debug_str:0000000000001c1d .LASF94
C:\Users\stapi\AppData\Local\Temp\ccNAGkjl.s:23266  .debug_str:00000000000008d3 .LASF95
C:\Users\stapi\AppData\Local\Temp\ccNAGkjl.s:24290  .debug_str:000000000000266e .LASF96
C:\Users\stapi\AppData\Local\Temp\ccNAGkjl.s:25244  .debug_str:0000000000004330 .LASF97
C:\Users\stapi\AppData\Local\Temp\ccNAGkjl.s:24604  .debug_str:0000000000002f9c .LASF98
C:\Users\stapi\AppData\Local\Temp\ccNAGkjl.s:25828  .debug_str:0000000000005430 .LASF99
C:\Users\stapi\AppData\Local\Temp\ccNAGkjl.s:25728  .debug_str:0000000000005120 .LASF100
C:\Users\stapi\AppData\Local\Temp\ccNAGkjl.s:24076  .debug_str:0000000000001feb .LASF101
C:\Users\stapi\AppData\Local\Temp\ccNAGkjl.s:24930  .debug_str:0000000000003a7c .LASF102
C:\Users\stapi\AppData\Local\Temp\ccNAGkjl.s:24052  .debug_str:0000000000001f57 .LASF103
C:\Users\stapi\AppData\Local\Temp\ccNAGkjl.s:25256  .debug_str:0000000000004375 .LASF104
C:\Users\stapi\AppData\Local\Temp\ccNAGkjl.s:25574  .debug_str:0000000000004cab .LASF105
C:\Users\stapi\AppData\Local\Temp\ccNAGkjl.s:24870  .debug_str:00000000000038a6 .LASF106
C:\Users\stapi\AppData\Local\Temp\ccNAGkjl.s:26024  .debug_str:0000000000005ace .LASF107
C:\Users\stapi\AppData\Local\Temp\ccNAGkjl.s:23570  .debug_str:00000000000011b5 .LASF108
C:\Users\stapi\AppData\Local\Temp\ccNAGkjl.s:24398  .debug_str:00000000000029e5 .LASF109
C:\Users\stapi\AppData\Local\Temp\ccNAGkjl.s:25480  .debug_str:00000000000049cd .LASF110
C:\Users\stapi\AppData\Local\Temp\ccNAGkjl.s:23850  .debug_str:00000000000019b4 .LASF111
C:\Users\stapi\AppData\Local\Temp\ccNAGkjl.s:24536  .debug_str:0000000000002d82 .LASF112
C:\Users\stapi\AppData\Local\Temp\ccNAGkjl.s:24628  .debug_str:0000000000003046 .LASF113
C:\Users\stapi\AppData\Local\Temp\ccNAGkjl.s:22996  .debug_str:0000000000000115 .LASF114
C:\Users\stapi\AppData\Local\Temp\ccNAGkjl.s:25178  .debug_str:0000000000004160 .LASF115
C:\Users\stapi\AppData\Local\Temp\ccNAGkjl.s:23478  .debug_str:0000000000000f23 .LASF116
C:\Users\stapi\AppData\Local\Temp\ccNAGkjl.s:24236  .debug_str:00000000000024c6 .LASF117
C:\Users\stapi\AppData\Local\Temp\ccNAGkjl.s:23436  .debug_str:0000000000000de8 .LASF118
C:\Users\stapi\AppData\Local\Temp\ccNAGkjl.s:23518  .debug_str:000000000000103c .LASF119
C:\Users\stapi\AppData\Local\Temp\ccNAGkjl.s:25336  .debug_str:000000000000457c .LASF120
C:\Users\stapi\AppData\Local\Temp\ccNAGkjl.s:25102  .debug_str:0000000000003f34 .LASF121
C:\Users\stapi\AppData\Local\Temp\ccNAGkjl.s:23052  .debug_str:00000000000002df .LASF122
C:\Users\stapi\AppData\Local\Temp\ccNAGkjl.s:24320  .debug_str:0000000000002762 .LASF123
C:\Users\stapi\AppData\Local\Temp\ccNAGkjl.s:25936  .debug_str:000000000000575b .LASF124
C:\Users\stapi\AppData\Local\Temp\ccNAGkjl.s:23370  .debug_str:0000000000000bdb .LASF125
C:\Users\stapi\AppData\Local\Temp\ccNAGkjl.s:25850  .debug_str:00000000000054db .LASF126
C:\Users\stapi\AppData\Local\Temp\ccNAGkjl.s:25394  .debug_str:0000000000004754 .LASF127
C:\Users\stapi\AppData\Local\Temp\ccNAGkjl.s:24476  .debug_str:0000000000002bf7 .LASF128
C:\Users\stapi\AppData\Local\Temp\ccNAGkjl.s:25476  .debug_str:00000000000049a2 .LASF129
C:\Users\stapi\AppData\Local\Temp\ccNAGkjl.s:25794  .debug_str:0000000000005316 .LASF130
C:\Users\stapi\AppData\Local\Temp\ccNAGkjl.s:23526  .debug_str:0000000000001079 .LASF131
C:\Users\stapi\AppData\Local\Temp\ccNAGkjl.s:25494  .debug_str:0000000000004a1f .LASF132
C:\Users\stapi\AppData\Local\Temp\ccNAGkjl.s:23244  .debug_str:000000000000082d .LASF133
C:\Users\stapi\AppData\Local\Temp\ccNAGkjl.s:26120  .debug_str:0000000000005dac .LASF134
C:\Users\stapi\AppData\Local\Temp\ccNAGkjl.s:23404  .debug_str:0000000000000cf3 .LASF135
C:\Users\stapi\AppData\Local\Temp\ccNAGkjl.s:24126  .debug_str:0000000000002157 .LASF136
C:\Users\stapi\AppData\Local\Temp\ccNAGkjl.s:24356  .debug_str:0000000000002874 .LASF137
C:\Users\stapi\AppData\Local\Temp\ccNAGkjl.s:26048  .debug_str:0000000000005b95 .LASF138
C:\Users\stapi\AppData\Local\Temp\ccNAGkjl.s:25416  .debug_str:00000000000047f2 .LASF139
C:\Users\stapi\AppData\Local\Temp\ccNAGkjl.s:23058  .debug_str:0000000000000313 .LASF140
C:\Users\stapi\AppData\Local\Temp\ccNAGkjl.s:24738  .debug_str:0000000000003384 .LASF141
C:\Users\stapi\AppData\Local\Temp\ccNAGkjl.s:25100  .debug_str:0000000000003f2e .LASF142
C:\Users\stapi\AppData\Local\Temp\ccNAGkjl.s:24712  .debug_str:00000000000032b4 .LASF143
C:\Users\stapi\AppData\Local\Temp\ccNAGkjl.s:26130  .debug_str:0000000000005e04 .LASF144
C:\Users\stapi\AppData\Local\Temp\ccNAGkjl.s:25932  .debug_str:0000000000005738 .LASF145
C:\Users\stapi\AppData\Local\Temp\ccNAGkjl.s:24274  .debug_str:00000000000025ea .LASF146
C:\Users\stapi\AppData\Local\Temp\ccNAGkjl.s:23184  .debug_str:0000000000000695 .LASF147
C:\Users\stapi\AppData\Local\Temp\ccNAGkjl.s:24736  .debug_str:0000000000003372 .LASF148
C:\Users\stapi\AppData\Local\Temp\ccNAGkjl.s:23862  .debug_str:00000000000019fa .LASF150
C:\Users\stapi\AppData\Local\Temp\ccNAGkjl.s:24786  .debug_str:00000000000035c8 .LASF151
C:\Users\stapi\AppData\Local\Temp\ccNAGkjl.s:24788  .debug_str:00000000000035d9 .LASF152
C:\Users\stapi\AppData\Local\Temp\ccNAGkjl.s:26082  .debug_str:0000000000005ca5 .LASF153
C:\Users\stapi\AppData\Local\Temp\ccNAGkjl.s:25312  .debug_str:00000000000044e7 .LASF154
C:\Users\stapi\AppData\Local\Temp\ccNAGkjl.s:24684  .debug_str:00000000000031ee .LASF155
C:\Users\stapi\AppData\Local\Temp\ccNAGkjl.s:25580  .debug_str:0000000000004cd4 .LASF156
C:\Users\stapi\AppData\Local\Temp\ccNAGkjl.s:23744  .debug_str:00000000000016a2 .LASF157
C:\Users\stapi\AppData\Local\Temp\ccNAGkjl.s:25190  .debug_str:000000000000419f .LASF158
C:\Users\stapi\AppData\Local\Temp\ccNAGkjl.s:23352  .debug_str:0000000000000b5b .LASF159
C:\Users\stapi\AppData\Local\Temp\ccNAGkjl.s:23830  .debug_str:000000000000191f .LASF160
C:\Users\stapi\AppData\Local\Temp\ccNAGkjl.s:23178  .debug_str:0000000000000661 .LASF161
C:\Users\stapi\AppData\Local\Temp\ccNAGkjl.s:25740  .debug_str:000000000000518e .LASF162
C:\Users\stapi\AppData\Local\Temp\ccNAGkjl.s:25406  .debug_str:00000000000047ad .LASF163
C:\Users\stapi\AppData\Local\Temp\ccNAGkjl.s:25532  .debug_str:0000000000004b42 .LASF164
C:\Users\stapi\AppData\Local\Temp\ccNAGkjl.s:24178  .debug_str:00000000000022f8 .LASF165
C:\Users\stapi\AppData\Local\Temp\ccNAGkjl.s:25642  .debug_str:0000000000004e8b .LASF166
C:\Users\stapi\AppData\Local\Temp\ccNAGkjl.s:25176  .debug_str:0000000000004154 .LASF167
C:\Users\stapi\AppData\Local\Temp\ccNAGkjl.s:23012  .debug_str:000000000000019a .LASF168
C:\Users\stapi\AppData\Local\Temp\ccNAGkjl.s:24700  .debug_str:0000000000003255 .LASF169
C:\Users\stapi\AppData\Local\Temp\ccNAGkjl.s:23374  .debug_str:0000000000000bf1 .LASF170
C:\Users\stapi\AppData\Local\Temp\ccNAGkjl.s:23740  .debug_str:000000000000168a .LASF171
C:\Users\stapi\AppData\Local\Temp\ccNAGkjl.s:24798  .debug_str:0000000000003649 .LASF172
C:\Users\stapi\AppData\Local\Temp\ccNAGkjl.s:24800  .debug_str:0000000000003661 .LASF173
C:\Users\stapi\AppData\Local\Temp\ccNAGkjl.s:24796  .debug_str:0000000000003631 .LASF174
C:\Users\stapi\AppData\Local\Temp\ccNAGkjl.s:24838  .debug_str:0000000000003790 .LASF175
C:\Users\stapi\AppData\Local\Temp\ccNAGkjl.s:23176  .debug_str:0000000000000647 .LASF176
C:\Users\stapi\AppData\Local\Temp\ccNAGkjl.s:25376  .debug_str:00000000000046da .LASF177
C:\Users\stapi\AppData\Local\Temp\ccNAGkjl.s:23484  .debug_str:0000000000000f3b .LASF178
C:\Users\stapi\AppData\Local\Temp\ccNAGkjl.s:24524  .debug_str:0000000000002d38 .LASF179
C:\Users\stapi\AppData\Local\Temp\ccNAGkjl.s:23566  .debug_str:000000000000119a .LASF180
C:\Users\stapi\AppData\Local\Temp\ccNAGkjl.s:25920  .debug_str:00000000000056ec .LASF181
C:\Users\stapi\AppData\Local\Temp\ccNAGkjl.s:26028  .debug_str:0000000000005ae6 .LASF182
C:\Users\stapi\AppData\Local\Temp\ccNAGkjl.s:23500  .debug_str:0000000000000fb1 .LASF183
C:\Users\stapi\AppData\Local\Temp\ccNAGkjl.s:25510  .debug_str:0000000000004a82 .LASF184
C:\Users\stapi\AppData\Local\Temp\ccNAGkjl.s:24214  .debug_str:0000000000002415 .LASF185
C:\Users\stapi\AppData\Local\Temp\ccNAGkjl.s:25464  .debug_str:0000000000004945 .LASF186
C:\Users\stapi\AppData\Local\Temp\ccNAGkjl.s:24210  .debug_str:00000000000023ef .LASF187
C:\Users\stapi\AppData\Local\Temp\ccNAGkjl.s:24948  .debug_str:0000000000003b0e .LASF188
C:\Users\stapi\AppData\Local\Temp\ccNAGkjl.s:24234  .debug_str:00000000000024b3 .LASF189
C:\Users\stapi\AppData\Local\Temp\ccNAGkjl.s:23886  .debug_str:0000000000001aab .LASF190
C:\Users\stapi\AppData\Local\Temp\ccNAGkjl.s:23946  .debug_str:0000000000001c73 .LASF191
C:\Users\stapi\AppData\Local\Temp\ccNAGkjl.s:24068  .debug_str:0000000000001fb2 .LASF192
C:\Users\stapi\AppData\Local\Temp\ccNAGkjl.s:23904  .debug_str:0000000000001b3d .LASF193
C:\Users\stapi\AppData\Local\Temp\ccNAGkjl.s:23402  .debug_str:0000000000000ce4 .LASF194
C:\Users\stapi\AppData\Local\Temp\ccNAGkjl.s:23326  .debug_str:0000000000000a82 .LASF195
C:\Users\stapi\AppData\Local\Temp\ccNAGkjl.s:24946  .debug_str:0000000000003afe .LASF196
C:\Users\stapi\AppData\Local\Temp\ccNAGkjl.s:25042  .debug_str:0000000000003da5 .LASF197
C:\Users\stapi\AppData\Local\Temp\ccNAGkjl.s:23448  .debug_str:0000000000000e3b .LASF198
C:\Users\stapi\AppData\Local\Temp\ccNAGkjl.s:25546  .debug_str:0000000000004bcc .LASF199
C:\Users\stapi\AppData\Local\Temp\ccNAGkjl.s:24034  .debug_str:0000000000001ecf .LASF200
C:\Users\stapi\AppData\Local\Temp\ccNAGkjl.s:25800  .debug_str:0000000000005336 .LASF201
C:\Users\stapi\AppData\Local\Temp\ccNAGkjl.s:23304  .debug_str:00000000000009ec .LASF202
C:\Users\stapi\AppData\Local\Temp\ccNAGkjl.s:24058  .debug_str:0000000000001f75 .LASF203
C:\Users\stapi\AppData\Local\Temp\ccNAGkjl.s:24116  .debug_str:0000000000002119 .LASF204
C:\Users\stapi\AppData\Local\Temp\ccNAGkjl.s:23310  .debug_str:0000000000000a17 .LASF205
C:\Users\stapi\AppData\Local\Temp\ccNAGkjl.s:26032  .debug_str:0000000000005b0c .LASF206
C:\Users\stapi\AppData\Local\Temp\ccNAGkjl.s:24438  .debug_str:0000000000002afc .LASF207
C:\Users\stapi\AppData\Local\Temp\ccNAGkjl.s:25786  .debug_str:00000000000052e0 .LASF208
C:\Users\stapi\AppData\Local\Temp\ccNAGkjl.s:23750  .debug_str:00000000000016d6 .LASF209
C:\Users\stapi\AppData\Local\Temp\ccNAGkjl.s:25882  .debug_str:00000000000055c9 .LASF210
C:\Users\stapi\AppData\Local\Temp\ccNAGkjl.s:24196  .debug_str:000000000000237f .LASF211
C:\Users\stapi\AppData\Local\Temp\ccNAGkjl.s:24834  .debug_str:000000000000375c .LASF212
C:\Users\stapi\AppData\Local\Temp\ccNAGkjl.s:24270  .debug_str:00000000000025c2 .LASF213
C:\Users\stapi\AppData\Local\Temp\ccNAGkjl.s:25770  .debug_str:0000000000005259 .LASF214
C:\Users\stapi\AppData\Local\Temp\ccNAGkjl.s:24882  .debug_str:00000000000038f6 .LASF215
C:\Users\stapi\AppData\Local\Temp\ccNAGkjl.s:23192  .debug_str:00000000000006dd .LASF216
C:\Users\stapi\AppData\Local\Temp\ccNAGkjl.s:24426  .debug_str:0000000000002a9c .LASF217
C:\Users\stapi\AppData\Local\Temp\ccNAGkjl.s:26128  .debug_str:0000000000005df2 .LASF218
C:\Users\stapi\AppData\Local\Temp\ccNAGkjl.s:24674  .debug_str:0000000000003188 .LASF219
C:\Users\stapi\AppData\Local\Temp\ccNAGkjl.s:24288  .debug_str:0000000000002656 .LASF220
C:\Users\stapi\AppData\Local\Temp\ccNAGkjl.s:25514  .debug_str:0000000000004aac .LASF221
C:\Users\stapi\AppData\Local\Temp\ccNAGkjl.s:24212  .debug_str:00000000000023fe .LASF222
C:\Users\stapi\AppData\Local\Temp\ccNAGkjl.s:25588  .debug_str:0000000000004d01 .LASF223
C:\Users\stapi\AppData\Local\Temp\ccNAGkjl.s:24030  .debug_str:0000000000001eba .LASF224
C:\Users\stapi\AppData\Local\Temp\ccNAGkjl.s:25310  .debug_str:00000000000044e2 .LASF225
C:\Users\stapi\AppData\Local\Temp\ccNAGkjl.s:25048  .debug_str:0000000000003dd6 .LASF226
C:\Users\stapi\AppData\Local\Temp\ccNAGkjl.s:24038  .debug_str:0000000000001ede .LASF227
C:\Users\stapi\AppData\Local\Temp\ccNAGkjl.s:24182  .debug_str:000000000000231a .LASF228
C:\Users\stapi\AppData\Local\Temp\ccNAGkjl.s:25866  .debug_str:000000000000554f .LASF229
C:\Users\stapi\AppData\Local\Temp\ccNAGkjl.s:25648  .debug_str:0000000000004ec2 .LASF230
C:\Users\stapi\AppData\Local\Temp\ccNAGkjl.s:23064  .debug_str:000000000000034a .LASF231
C:\Users\stapi\AppData\Local\Temp\ccNAGkjl.s:25712  .debug_str:00000000000050bd .LASF232
C:\Users\stapi\AppData\Local\Temp\ccNAGkjl.s:23912  .debug_str:0000000000001b73 .LASF233
C:\Users\stapi\AppData\Local\Temp\ccNAGkjl.s:23836  .debug_str:000000000000193e .LASF234
C:\Users\stapi\AppData\Local\Temp\ccNAGkjl.s:23398  .debug_str:0000000000000cd0 .LASF235
C:\Users\stapi\AppData\Local\Temp\ccNAGkjl.s:26166  .debug_str:0000000000005f2b .LASF236
C:\Users\stapi\AppData\Local\Temp\ccNAGkjl.s:25066  .debug_str:0000000000003e50 .LASF237
C:\Users\stapi\AppData\Local\Temp\ccNAGkjl.s:24194  .debug_str:000000000000236e .LASF238
C:\Users\stapi\AppData\Local\Temp\ccNAGkjl.s:25296  .debug_str:000000000000447c .LASF239
C:\Users\stapi\AppData\Local\Temp\ccNAGkjl.s:23218  .debug_str:00000000000007a2 .LASF240
C:\Users\stapi\AppData\Local\Temp\ccNAGkjl.s:23220  .debug_str:00000000000007a9 .LASF241
C:\Users\stapi\AppData\Local\Temp\ccNAGkjl.s:23342  .debug_str:0000000000000b1a .LASF242
C:\Users\stapi\AppData\Local\Temp\ccNAGkjl.s:23222  .debug_str:00000000000007b0 .LASF243
C:\Users\stapi\AppData\Local\Temp\ccNAGkjl.s:23224  .debug_str:00000000000007b7 .LASF244
C:\Users\stapi\AppData\Local\Temp\ccNAGkjl.s:23226  .debug_str:00000000000007be .LASF245
C:\Users\stapi\AppData\Local\Temp\ccNAGkjl.s:23228  .debug_str:00000000000007c5 .LASF246
C:\Users\stapi\AppData\Local\Temp\ccNAGkjl.s:23230  .debug_str:00000000000007cc .LASF247
C:\Users\stapi\AppData\Local\Temp\ccNAGkjl.s:23232  .debug_str:00000000000007d3 .LASF248
C:\Users\stapi\AppData\Local\Temp\ccNAGkjl.s:24492  .debug_str:0000000000002c62 .LASF249
C:\Users\stapi\AppData\Local\Temp\ccNAGkjl.s:24118  .debug_str:0000000000002125 .LASF250
C:\Users\stapi\AppData\Local\Temp\ccNAGkjl.s:25964  .debug_str:00000000000058aa .LASF251
C:\Users\stapi\AppData\Local\Temp\ccNAGkjl.s:23286  .debug_str:0000000000000979 .LASF252
C:\Users\stapi\AppData\Local\Temp\ccNAGkjl.s:24926  .debug_str:0000000000003a5c .LASF253
C:\Users\stapi\AppData\Local\Temp\ccNAGkjl.s:23558  .debug_str:0000000000001165 .LASF254
C:\Users\stapi\AppData\Local\Temp\ccNAGkjl.s:25730  .debug_str:0000000000005132 .LASF255
C:\Users\stapi\AppData\Local\Temp\ccNAGkjl.s:24436  .debug_str:0000000000002af7 .LASF256
C:\Users\stapi\AppData\Local\Temp\ccNAGkjl.s:23308  .debug_str:0000000000000a0e .LASF257
C:\Users\stapi\AppData\Local\Temp\ccNAGkjl.s:23848  .debug_str:00000000000019aa .LASF258
C:\Users\stapi\AppData\Local\Temp\ccNAGkjl.s:24726  .debug_str:000000000000332c .LASF259
C:\Users\stapi\AppData\Local\Temp\ccNAGkjl.s:24808  .debug_str:0000000000003699 .LASF260
C:\Users\stapi\AppData\Local\Temp\ccNAGkjl.s:23672  .debug_str:00000000000014ab .LASF261
C:\Users\stapi\AppData\Local\Temp\ccNAGkjl.s:24238  .debug_str:00000000000024cf .LASF262
C:\Users\stapi\AppData\Local\Temp\ccNAGkjl.s:25990  .debug_str:00000000000059e4 .LASF263
C:\Users\stapi\AppData\Local\Temp\ccNAGkjl.s:24900  .debug_str:0000000000003996 .LASF264
C:\Users\stapi\AppData\Local\Temp\ccNAGkjl.s:23162  .debug_str:0000000000000604 .LASF265
C:\Users\stapi\AppData\Local\Temp\ccNAGkjl.s:23298  .debug_str:00000000000009cd .LASF266
C:\Users\stapi\AppData\Local\Temp\ccNAGkjl.s:23438  .debug_str:0000000000000e02 .LASF267
C:\Users\stapi\AppData\Local\Temp\ccNAGkjl.s:23584  .debug_str:0000000000001213 .LASF268
C:\Users\stapi\AppData\Local\Temp\ccNAGkjl.s:26026  .debug_str:0000000000005ad9 .LASF269
C:\Users\stapi\AppData\Local\Temp\ccNAGkjl.s:23096  .debug_str:000000000000041c .LASF270
C:\Users\stapi\AppData\Local\Temp\ccNAGkjl.s:25632  .debug_str:0000000000004e3f .LASF271
C:\Users\stapi\AppData\Local\Temp\ccNAGkjl.s:26014  .debug_str:0000000000005a8f .LASF272
C:\Users\stapi\AppData\Local\Temp\ccNAGkjl.s:24092  .debug_str:0000000000002069 .LASF273
C:\Users\stapi\AppData\Local\Temp\ccNAGkjl.s:23960  .debug_str:0000000000001ccf .LASF274
C:\Users\stapi\AppData\Local\Temp\ccNAGkjl.s:23088  .debug_str:00000000000003e8 .LASF275
C:\Users\stapi\AppData\Local\Temp\ccNAGkjl.s:26074  .debug_str:0000000000005c63 .LASF276
C:\Users\stapi\AppData\Local\Temp\ccNAGkjl.s:23670  .debug_str:000000000000149d .LASF277
C:\Users\stapi\AppData\Local\Temp\ccNAGkjl.s:25922  .debug_str:00000000000056fb .LASF278
C:\Users\stapi\AppData\Local\Temp\ccNAGkjl.s:22984  .debug_str:00000000000000bc .LASF279
C:\Users\stapi\AppData\Local\Temp\ccNAGkjl.s:23884  .debug_str:0000000000001a9e .LASF280
C:\Users\stapi\AppData\Local\Temp\ccNAGkjl.s:23510  .debug_str:0000000000001006 .LASF281
C:\Users\stapi\AppData\Local\Temp\ccNAGkjl.s:24102  .debug_str:00000000000020b6 .LASF282
C:\Users\stapi\AppData\Local\Temp\ccNAGkjl.s:25454  .debug_str:00000000000048ee .LASF283
C:\Users\stapi\AppData\Local\Temp\ccNAGkjl.s:22960  .debug_str:0000000000000000 .LASF284
C:\Users\stapi\AppData\Local\Temp\ccNAGkjl.s:26100  .debug_str:0000000000005d2f .LASF285
C:\Users\stapi\AppData\Local\Temp\ccNAGkjl.s:23020  .debug_str:00000000000001dc .LASF286
C:\Users\stapi\AppData\Local\Temp\ccNAGkjl.s:25890  .debug_str:0000000000005619 .LASF287
C:\Users\stapi\AppData\Local\Temp\ccNAGkjl.s:24060  .debug_str:0000000000001f81 .LASF288
C:\Users\stapi\AppData\Local\Temp\ccNAGkjl.s:24376  .debug_str:000000000000292d .LASF289
C:\Users\stapi\AppData\Local\Temp\ccNAGkjl.s:23452  .debug_str:0000000000000e60 .LASF290
C:\Users\stapi\AppData\Local\Temp\ccNAGkjl.s:24740  .debug_str:000000000000339f .LASF291
C:\Users\stapi\AppData\Local\Temp\ccNAGkjl.s:23722  .debug_str:0000000000001620 .LASF292
C:\Users\stapi\AppData\Local\Temp\ccNAGkjl.s:26046  .debug_str:0000000000005b88 .LASF293
C:\Users\stapi\AppData\Local\Temp\ccNAGkjl.s:25284  .debug_str:000000000000442b .LASF294
C:\Users\stapi\AppData\Local\Temp\ccNAGkjl.s:23688  .debug_str:0000000000001509 .LASF295
C:\Users\stapi\AppData\Local\Temp\ccNAGkjl.s:25682  .debug_str:0000000000004fe4 .LASF296
C:\Users\stapi\AppData\Local\Temp\ccNAGkjl.s:26044  .debug_str:0000000000005b7c .LASF297
C:\Users\stapi\AppData\Local\Temp\ccNAGkjl.s:25858  .debug_str:0000000000005507 .LASF298
C:\Users\stapi\AppData\Local\Temp\ccNAGkjl.s:24908  .debug_str:00000000000039c8 .LASF299
C:\Users\stapi\AppData\Local\Temp\ccNAGkjl.s:25390  .debug_str:000000000000473e .LASF300
C:\Users\stapi\AppData\Local\Temp\ccNAGkjl.s:25276  .debug_str:00000000000043f9 .LASF301
C:\Users\stapi\AppData\Local\Temp\ccNAGkjl.s:25130  .debug_str:0000000000003fec .LASF302
C:\Users\stapi\AppData\Local\Temp\ccNAGkjl.s:24056  .debug_str:0000000000001f6d .LASF303
C:\Users\stapi\AppData\Local\Temp\ccNAGkjl.s:23724  .debug_str:000000000000162d .LASF304
C:\Users\stapi\AppData\Local\Temp\ccNAGkjl.s:24156  .debug_str:0000000000002260 .LASF305
C:\Users\stapi\AppData\Local\Temp\ccNAGkjl.s:25318  .debug_str:000000000000450d .LASF306
C:\Users\stapi\AppData\Local\Temp\ccNAGkjl.s:25818  .debug_str:00000000000053c3 .LASF307
C:\Users\stapi\AppData\Local\Temp\ccNAGkjl.s:25094  .debug_str:0000000000003f06 .LASF308
C:\Users\stapi\AppData\Local\Temp\ccNAGkjl.s:23434  .debug_str:0000000000000dd7 .LASF309
C:\Users\stapi\AppData\Local\Temp\ccNAGkjl.s:24454  .debug_str:0000000000002b67 .LASF310
C:\Users\stapi\AppData\Local\Temp\ccNAGkjl.s:24146  .debug_str:0000000000002201 .LASF311
C:\Users\stapi\AppData\Local\Temp\ccNAGkjl.s:25636  .debug_str:0000000000004e64 .LASF312
C:\Users\stapi\AppData\Local\Temp\ccNAGkjl.s:25098  .debug_str:0000000000003f1f .LASF313
C:\Users\stapi\AppData\Local\Temp\ccNAGkjl.s:24650  .debug_str:0000000000003102 .LASF314
C:\Users\stapi\AppData\Local\Temp\ccNAGkjl.s:23866  .debug_str:0000000000001a1d .LASF315
C:\Users\stapi\AppData\Local\Temp\ccNAGkjl.s:24084  .debug_str:0000000000002014 .LASF316
C:\Users\stapi\AppData\Local\Temp\ccNAGkjl.s:23210  .debug_str:0000000000000760 .LASF317
C:\Users\stapi\AppData\Local\Temp\ccNAGkjl.s:24582  .debug_str:0000000000002eed .LASF318
C:\Users\stapi\AppData\Local\Temp\ccNAGkjl.s:25470  .debug_str:0000000000004975 .LASF319
C:\Users\stapi\AppData\Local\Temp\ccNAGkjl.s:26164  .debug_str:0000000000005f18 .LASF320
C:\Users\stapi\AppData\Local\Temp\ccNAGkjl.s:24956  .debug_str:0000000000003b32 .LASF321
C:\Users\stapi\AppData\Local\Temp\ccNAGkjl.s:23628  .debug_str:000000000000134a .LASF322
C:\Users\stapi\AppData\Local\Temp\ccNAGkjl.s:23000  .debug_str:000000000000012b .LASF323
C:\Users\stapi\AppData\Local\Temp\ccNAGkjl.s:24828  .debug_str:0000000000003729 .LASF324
C:\Users\stapi\AppData\Local\Temp\ccNAGkjl.s:26092  .debug_str:0000000000005cf3 .LASF325
C:\Users\stapi\AppData\Local\Temp\ccNAGkjl.s:24836  .debug_str:0000000000003776 .LASF326
C:\Users\stapi\AppData\Local\Temp\ccNAGkjl.s:23046  .debug_str:00000000000002ab .LASF327
C:\Users\stapi\AppData\Local\Temp\ccNAGkjl.s:24090  .debug_str:0000000000002048 .LASF328
C:\Users\stapi\AppData\Local\Temp\ccNAGkjl.s:24960  .debug_str:0000000000003b57 .LASF329
C:\Users\stapi\AppData\Local\Temp\ccNAGkjl.s:23032  .debug_str:0000000000000236 .LASF330
C:\Users\stapi\AppData\Local\Temp\ccNAGkjl.s:25248  .debug_str:000000000000434c .LASF331
C:\Users\stapi\AppData\Local\Temp\ccNAGkjl.s:24570  .debug_str:0000000000002e74 .LASF332
C:\Users\stapi\AppData\Local\Temp\ccNAGkjl.s:24586  .debug_str:0000000000002f13 .LASF333
C:\Users\stapi\AppData\Local\Temp\ccNAGkjl.s:23050  .debug_str:00000000000002cd .LASF334
C:\Users\stapi\AppData\Local\Temp\ccNAGkjl.s:23852  .debug_str:00000000000019bb .LASF335
C:\Users\stapi\AppData\Local\Temp\ccNAGkjl.s:23314  .debug_str:0000000000000a35 .LASF336
C:\Users\stapi\AppData\Local\Temp\ccNAGkjl.s:25978  .debug_str:0000000000005917 .LASF337
C:\Users\stapi\AppData\Local\Temp\ccNAGkjl.s:25808  .debug_str:0000000000005372 .LASF338
C:\Users\stapi\AppData\Local\Temp\ccNAGkjl.s:25554  .debug_str:0000000000004c01 .LASF339
C:\Users\stapi\AppData\Local\Temp\ccNAGkjl.s:23620  .debug_str:0000000000001313 .LASF340
C:\Users\stapi\AppData\Local\Temp\ccNAGkjl.s:23100  .debug_str:0000000000000440 .LASF341
C:\Users\stapi\AppData\Local\Temp\ccNAGkjl.s:23468  .debug_str:0000000000000ebe .LASF342
C:\Users\stapi\AppData\Local\Temp\ccNAGkjl.s:25534  .debug_str:0000000000004b57 .LASF343
C:\Users\stapi\AppData\Local\Temp\ccNAGkjl.s:25162  .debug_str:00000000000040e3 .LASF344
C:\Users\stapi\AppData\Local\Temp\ccNAGkjl.s:24670  .debug_str:0000000000003177 .LASF345
C:\Users\stapi\AppData\Local\Temp\ccNAGkjl.s:24654  .debug_str:000000000000311e .LASF346
C:\Users\stapi\AppData\Local\Temp\ccNAGkjl.s:23362  .debug_str:0000000000000b9c .LASF347
C:\Users\stapi\AppData\Local\Temp\ccNAGkjl.s:25674  .debug_str:0000000000004f9d .LASF348
C:\Users\stapi\AppData\Local\Temp\ccNAGkjl.s:26072  .debug_str:0000000000005c57 .LASF349
C:\Users\stapi\AppData\Local\Temp\ccNAGkjl.s:24626  .debug_str:0000000000003038 .LASF350
C:\Users\stapi\AppData\Local\Temp\ccNAGkjl.s:24430  .debug_str:0000000000002ac3 .LASF351
C:\Users\stapi\AppData\Local\Temp\ccNAGkjl.s:24226  .debug_str:0000000000002483 .LASF352
C:\Users\stapi\AppData\Local\Temp\ccNAGkjl.s:24944  .debug_str:0000000000003ae5 .LASF353
C:\Users\stapi\AppData\Local\Temp\ccNAGkjl.s:24864  .debug_str:0000000000003867 .LASF354
C:\Users\stapi\AppData\Local\Temp\ccNAGkjl.s:23368  .debug_str:0000000000000bc1 .LASF355
C:\Users\stapi\AppData\Local\Temp\ccNAGkjl.s:23382  .debug_str:0000000000000c3c .LASF356
C:\Users\stapi\AppData\Local\Temp\ccNAGkjl.s:25604  .debug_str:0000000000004d73 .LASF357
C:\Users\stapi\AppData\Local\Temp\ccNAGkjl.s:26018  .debug_str:0000000000005aa5 .LASF358
C:\Users\stapi\AppData\Local\Temp\ccNAGkjl.s:25234  .debug_str:00000000000042ea .LASF359
C:\Users\stapi\AppData\Local\Temp\ccNAGkjl.s:25708  .debug_str:000000000000509b .LASF1605
C:\Users\stapi\AppData\Local\Temp\ccNAGkjl.s:23800  .debug_str:000000000000186d .LASF360
C:\Users\stapi\AppData\Local\Temp\ccNAGkjl.s:23918  .debug_str:0000000000001ba2 .LASF361
C:\Users\stapi\AppData\Local\Temp\ccNAGkjl.s:24164  .debug_str:000000000000229d .LASF362
C:\Users\stapi\AppData\Local\Temp\ccNAGkjl.s:23792  .debug_str:0000000000001832 .LASF363
C:\Users\stapi\AppData\Local\Temp\ccNAGkjl.s:24240  .debug_str:00000000000024d8 .LASF364
C:\Users\stapi\AppData\Local\Temp\ccNAGkjl.s:23832  .debug_str:000000000000192c .LASF365
C:\Users\stapi\AppData\Local\Temp\ccNAGkjl.s:24660  .debug_str:0000000000003142 .LASF366
C:\Users\stapi\AppData\Local\Temp\ccNAGkjl.s:26126  .debug_str:0000000000005de4 .LASF367
C:\Users\stapi\AppData\Local\Temp\ccNAGkjl.s:23544  .debug_str:00000000000010fb .LASF368
C:\Users\stapi\AppData\Local\Temp\ccNAGkjl.s:24494  .debug_str:0000000000002c6e .LASF369
C:\Users\stapi\AppData\Local\Temp\ccNAGkjl.s:23080  .debug_str:00000000000003be .LASF370
C:\Users\stapi\AppData\Local\Temp\ccNAGkjl.s:23150  .debug_str:00000000000005a9 .LASF371
C:\Users\stapi\AppData\Local\Temp\ccNAGkjl.s:25216  .debug_str:0000000000004271 .LASF372
C:\Users\stapi\AppData\Local\Temp\ccNAGkjl.s:24122  .debug_str:0000000000002141 .LASF373
C:\Users\stapi\AppData\Local\Temp\ccNAGkjl.s:24442  .debug_str:0000000000002b14 .LASF374
C:\Users\stapi\AppData\Local\Temp\ccNAGkjl.s:23700  .debug_str:0000000000001557 .LASF375
C:\Users\stapi\AppData\Local\Temp\ccNAGkjl.s:24568  .debug_str:0000000000002e6c .LASF376
C:\Users\stapi\AppData\Local\Temp\ccNAGkjl.s:25688  .debug_str:000000000000500d .LASF377
C:\Users\stapi\AppData\Local\Temp\ccNAGkjl.s:24428  .debug_str:0000000000002ab0 .LASF378
C:\Users\stapi\AppData\Local\Temp\ccNAGkjl.s:23262  .debug_str:00000000000008ab .LASF379
C:\Users\stapi\AppData\Local\Temp\ccNAGkjl.s:24346  .debug_str:000000000000281c .LASF380
C:\Users\stapi\AppData\Local\Temp\ccNAGkjl.s:23204  .debug_str:0000000000000731 .LASF381
C:\Users\stapi\AppData\Local\Temp\ccNAGkjl.s:23092  .debug_str:00000000000003fc .LASF382
C:\Users\stapi\AppData\Local\Temp\ccNAGkjl.s:22980  .debug_str:00000000000000a6 .LASF383
C:\Users\stapi\AppData\Local\Temp\ccNAGkjl.s:26148  .debug_str:0000000000005ea2 .LASF384
C:\Users\stapi\AppData\Local\Temp\ccNAGkjl.s:25892  .debug_str:0000000000005623 .LASF385
C:\Users\stapi\AppData\Local\Temp\ccNAGkjl.s:26016  .debug_str:0000000000005a9c .LASF386
C:\Users\stapi\AppData\Local\Temp\ccNAGkjl.s:23910  .debug_str:0000000000001b69 .LASF387
C:\Users\stapi\AppData\Local\Temp\ccNAGkjl.s:24088  .debug_str:0000000000002035 .LASF388
C:\Users\stapi\AppData\Local\Temp\ccNAGkjl.s:26010  .debug_str:0000000000005a6e .LASF389
C:\Users\stapi\AppData\Local\Temp\ccNAGkjl.s:25250  .debug_str:000000000000435d .LASF390
C:\Users\stapi\AppData\Local\Temp\ccNAGkjl.s:25400  .debug_str:0000000000004775 .LASF391
C:\Users\stapi\AppData\Local\Temp\ccNAGkjl.s:25434  .debug_str:0000000000004880 .LASF392
C:\Users\stapi\AppData\Local\Temp\ccNAGkjl.s:23054  .debug_str:00000000000002f8 .LASF393
C:\Users\stapi\AppData\Local\Temp\ccNAGkjl.s:23022  .debug_str:00000000000001e7 .LASF394
C:\Users\stapi\AppData\Local\Temp\ccNAGkjl.s:23822  .debug_str:00000000000018ea .LASF395
C:\Users\stapi\AppData\Local\Temp\ccNAGkjl.s:24934  .debug_str:0000000000003a95 .LASF396
C:\Users\stapi\AppData\Local\Temp\ccNAGkjl.s:25118  .debug_str:0000000000003f9f .LASF397
C:\Users\stapi\AppData\Local\Temp\ccNAGkjl.s:25194  .debug_str:00000000000041c7 .LASF398
C:\Users\stapi\AppData\Local\Temp\ccNAGkjl.s:23344  .debug_str:0000000000000b22 .LASF399
C:\Users\stapi\AppData\Local\Temp\ccNAGkjl.s:25442  .debug_str:00000000000048a9 .LASF400
C:\Users\stapi\AppData\Local\Temp\ccNAGkjl.s:25856  .debug_str:00000000000054fa .LASF401
C:\Users\stapi\AppData\Local\Temp\ccNAGkjl.s:25090  .debug_str:0000000000003eec .LASF402
C:\Users\stapi\AppData\Local\Temp\ccNAGkjl.s:23482  .debug_str:0000000000000f34 .LASF403
C:\Users\stapi\AppData\Local\Temp\ccNAGkjl.s:23734  .debug_str:0000000000001662 .LASF404
C:\Users\stapi\AppData\Local\Temp\ccNAGkjl.s:24298  .debug_str:00000000000026ab .LASF405
C:\Users\stapi\AppData\Local\Temp\ccNAGkjl.s:25692  .debug_str:0000000000005033 .LASF406
C:\Users\stapi\AppData\Local\Temp\ccNAGkjl.s:24616  .debug_str:0000000000002ffb .LASF407
C:\Users\stapi\AppData\Local\Temp\ccNAGkjl.s:24728  .debug_str:0000000000003336 .LASF408
C:\Users\stapi\AppData\Local\Temp\ccNAGkjl.s:23060  .debug_str:000000000000031c .LASF409
C:\Users\stapi\AppData\Local\Temp\ccNAGkjl.s:24394  .debug_str:00000000000029c6 .LASF410
C:\Users\stapi\AppData\Local\Temp\ccNAGkjl.s:25646  .debug_str:0000000000004eb7 .LASF411
C:\Users\stapi\AppData\Local\Temp\ccNAGkjl.s:25590  .debug_str:0000000000004d09 .LASF412
C:\Users\stapi\AppData\Local\Temp\ccNAGkjl.s:23320  .debug_str:0000000000000a69 .LASF413
C:\Users\stapi\AppData\Local\Temp\ccNAGkjl.s:24344  .debug_str:000000000000280b .LASF414
C:\Users\stapi\AppData\Local\Temp\ccNAGkjl.s:24576  .debug_str:0000000000002eb4 .LASF415
C:\Users\stapi\AppData\Local\Temp\ccNAGkjl.s:23950  .debug_str:0000000000001c97 .LASF416
C:\Users\stapi\AppData\Local\Temp\ccNAGkjl.s:24228  .debug_str:0000000000002488 .LASF417
C:\Users\stapi\AppData\Local\Temp\ccNAGkjl.s:23164  .debug_str:0000000000000614 .LASF418
C:\Users\stapi\AppData\Local\Temp\ccNAGkjl.s:23644  .debug_str:00000000000013c5 .LASF419
C:\Users\stapi\AppData\Local\Temp\ccNAGkjl.s:24984  .debug_str:0000000000003c0d .LASF420
C:\Users\stapi\AppData\Local\Temp\ccNAGkjl.s:23110  .debug_str:0000000000000488 .LASF421
C:\Users\stapi\AppData\Local\Temp\ccNAGkjl.s:25498  .debug_str:0000000000004a41 .LASF422
C:\Users\stapi\AppData\Local\Temp\ccNAGkjl.s:25292  .debug_str:000000000000445e .LASF423
C:\Users\stapi\AppData\Local\Temp\ccNAGkjl.s:24646  .debug_str:00000000000030de .LASF424
C:\Users\stapi\AppData\Local\Temp\ccNAGkjl.s:26168  .debug_str:0000000000005f38 .LASF425
C:\Users\stapi\AppData\Local\Temp\ccNAGkjl.s:25624  .debug_str:0000000000004df9 .LASF426
C:\Users\stapi\AppData\Local\Temp\ccNAGkjl.s:24082  .debug_str:000000000000200d .LASF427
C:\Users\stapi\AppData\Local\Temp\ccNAGkjl.s:25062  .debug_str:0000000000003e2a .LASF428
C:\Users\stapi\AppData\Local\Temp\ccNAGkjl.s:24448  .debug_str:0000000000002b39 .LASF429
C:\Users\stapi\AppData\Local\Temp\ccNAGkjl.s:23444  .debug_str:0000000000000e1f .LASF430
C:\Users\stapi\AppData\Local\Temp\ccNAGkjl.s:23864  .debug_str:0000000000001a09 .LASF431
C:\Users\stapi\AppData\Local\Temp\ccNAGkjl.s:25544  .debug_str:0000000000004bb1 .LASF432
C:\Users\stapi\AppData\Local\Temp\ccNAGkjl.s:24246  .debug_str:0000000000002508 .LASF433
C:\Users\stapi\AppData\Local\Temp\ccNAGkjl.s:24950  .debug_str:0000000000003b19 .LASF434
C:\Users\stapi\AppData\Local\Temp\ccNAGkjl.s:25106  .debug_str:0000000000003f51 .LASF435
C:\Users\stapi\AppData\Local\Temp\ccNAGkjl.s:23116  .debug_str:00000000000004ac .LASF436
C:\Users\stapi\AppData\Local\Temp\ccNAGkjl.s:24466  .debug_str:0000000000002bc1 .LASF437
C:\Users\stapi\AppData\Local\Temp\ccNAGkjl.s:25752  .debug_str:00000000000051eb .LASF438
C:\Users\stapi\AppData\Local\Temp\ccNAGkjl.s:24324  .debug_str:0000000000002784 .LASF439
C:\Users\stapi\AppData\Local\Temp\ccNAGkjl.s:25834  .debug_str:0000000000005459 .LASF440
C:\Users\stapi\AppData\Local\Temp\ccNAGkjl.s:24248  .debug_str:000000000000251c .LASF441
C:\Users\stapi\AppData\Local\Temp\ccNAGkjl.s:24826  .debug_str:000000000000371f .LASF442
C:\Users\stapi\AppData\Local\Temp\ccNAGkjl.s:25124  .debug_str:0000000000003fc4 .LASF443
C:\Users\stapi\AppData\Local\Temp\ccNAGkjl.s:24512  .debug_str:0000000000002cf0 .LASF444
C:\Users\stapi\AppData\Local\Temp\ccNAGkjl.s:23018  .debug_str:00000000000001c5 .LASF445
C:\Users\stapi\AppData\Local\Temp\ccNAGkjl.s:24668  .debug_str:000000000000316e .LASF446
C:\Users\stapi\AppData\Local\Temp\ccNAGkjl.s:23530  .debug_str:0000000000001098 .LASF447
C:\Users\stapi\AppData\Local\Temp\ccNAGkjl.s:25238  .debug_str:0000000000004303 .LASF448
C:\Users\stapi\AppData\Local\Temp\ccNAGkjl.s:24050  .debug_str:0000000000001f46 .LASF449
C:\Users\stapi\AppData\Local\Temp\ccNAGkjl.s:22992  .debug_str:00000000000000f0 .LASF450
C:\Users\stapi\AppData\Local\Temp\ccNAGkjl.s:25138  .debug_str:0000000000004021 .LASF451
C:\Users\stapi\AppData\Local\Temp\ccNAGkjl.s:23376  .debug_str:0000000000000c10 .LASF452
C:\Users\stapi\AppData\Local\Temp\ccNAGkjl.s:25088  .debug_str:0000000000003ee5 .LASF453
C:\Users\stapi\AppData\Local\Temp\ccNAGkjl.s:23420  .debug_str:0000000000000d72 .LASF454
C:\Users\stapi\AppData\Local\Temp\ccNAGkjl.s:24408  .debug_str:0000000000002a33 .LASF455
C:\Users\stapi\AppData\Local\Temp\ccNAGkjl.s:23646  .debug_str:00000000000013d2 .LASF456
C:\Users\stapi\AppData\Local\Temp\ccNAGkjl.s:23450  .debug_str:0000000000000e4b .LASF457
C:\Users\stapi\AppData\Local\Temp\ccNAGkjl.s:23998  .debug_str:0000000000001dd4 .LASF458
C:\Users\stapi\AppData\Local\Temp\ccNAGkjl.s:23268  .debug_str:00000000000008e4 .LASF459
C:\Users\stapi\AppData\Local\Temp\ccNAGkjl.s:26042  .debug_str:0000000000005b68 .LASF460
C:\Users\stapi\AppData\Local\Temp\ccNAGkjl.s:23476  .debug_str:0000000000000f0f .LASF461
C:\Users\stapi\AppData\Local\Temp\ccNAGkjl.s:23152  .debug_str:00000000000005b2 .LASF462
C:\Users\stapi\AppData\Local\Temp\ccNAGkjl.s:26124  .debug_str:0000000000005dde .LASF463
C:\Users\stapi\AppData\Local\Temp\ccNAGkjl.s:25566  .debug_str:0000000000004c6c .LASF464
C:\Users\stapi\AppData\Local\Temp\ccNAGkjl.s:23090  .debug_str:00000000000003f1 .LASF465
C:\Users\stapi\AppData\Local\Temp\ccNAGkjl.s:24540  .debug_str:0000000000002d9f .LASF466
C:\Users\stapi\AppData\Local\Temp\ccNAGkjl.s:23282  .debug_str:0000000000000958 .LASF467
C:\Users\stapi\AppData\Local\Temp\ccNAGkjl.s:24856  .debug_str:000000000000382b .LASF468
C:\Users\stapi\AppData\Local\Temp\ccNAGkjl.s:25306  .debug_str:00000000000044ce .LASF469
C:\Users\stapi\AppData\Local\Temp\ccNAGkjl.s:23384  .debug_str:0000000000000c60 .LASF470
C:\Users\stapi\AppData\Local\Temp\ccNAGkjl.s:23622  .debug_str:0000000000001322 .LASF471
C:\Users\stapi\AppData\Local\Temp\ccNAGkjl.s:25658  .debug_str:0000000000004ef1 .LASF472
C:\Users\stapi\AppData\Local\Temp\ccNAGkjl.s:23898  .debug_str:0000000000001b08 .LASF473
C:\Users\stapi\AppData\Local\Temp\ccNAGkjl.s:23194  .debug_str:00000000000006f4 .LASF474
C:\Users\stapi\AppData\Local\Temp\ccNAGkjl.s:25172  .debug_str:0000000000004137 .LASF475
C:\Users\stapi\AppData\Local\Temp\ccNAGkjl.s:24328  .debug_str:0000000000002798 .LASF476
C:\Users\stapi\AppData\Local\Temp\ccNAGkjl.s:25714  .debug_str:00000000000050c8 .LASF477
C:\Users\stapi\AppData\Local\Temp\ccNAGkjl.s:24292  .debug_str:0000000000002679 .LASF478
C:\Users\stapi\AppData\Local\Temp\ccNAGkjl.s:24310  .debug_str:0000000000002716 .LASF479
C:\Users\stapi\AppData\Local\Temp\ccNAGkjl.s:24596  .debug_str:0000000000002f65 .LASF480
C:\Users\stapi\AppData\Local\Temp\ccNAGkjl.s:25334  .debug_str:000000000000456d .LASF481
C:\Users\stapi\AppData\Local\Temp\ccNAGkjl.s:25594  .debug_str:0000000000004d15 .LASF482
C:\Users\stapi\AppData\Local\Temp\ccNAGkjl.s:25690  .debug_str:0000000000005024 .LASF483
C:\Users\stapi\AppData\Local\Temp\ccNAGkjl.s:23460  .debug_str:0000000000000e9a .LASF484
C:\Users\stapi\AppData\Local\Temp\ccNAGkjl.s:23948  .debug_str:0000000000001c81 .LASF485
C:\Users\stapi\AppData\Local\Temp\ccNAGkjl.s:23766  .debug_str:0000000000001760 .LASF486
C:\Users\stapi\AppData\Local\Temp\ccNAGkjl.s:25994  .debug_str:00000000000059fb .LASF487
C:\Users\stapi\AppData\Local\Temp\ccNAGkjl.s:23338  .debug_str:0000000000000af4 .LASF488
C:\Users\stapi\AppData\Local\Temp\ccNAGkjl.s:24840  .debug_str:00000000000037a9 .LASF489
C:\Users\stapi\AppData\Local\Temp\ccNAGkjl.s:24482  .debug_str:0000000000002c1c .LASF490
C:\Users\stapi\AppData\Local\Temp\ccNAGkjl.s:23068  .debug_str:0000000000000359 .LASF491
C:\Users\stapi\AppData\Local\Temp\ccNAGkjl.s:23714  .debug_str:00000000000015c2 .LASF492
C:\Users\stapi\AppData\Local\Temp\ccNAGkjl.s:25670  .debug_str:0000000000004f65 .LASF493
C:\Users\stapi\AppData\Local\Temp\ccNAGkjl.s:25684  .debug_str:0000000000004fec .LASF494
C:\Users\stapi\AppData\Local\Temp\ccNAGkjl.s:23668  .debug_str:0000000000001484 .LASF495
C:\Users\stapi\AppData\Local\Temp\ccNAGkjl.s:22962  .debug_str:0000000000000005 .LASF496
C:\Users\stapi\AppData\Local\Temp\ccNAGkjl.s:24262  .debug_str:0000000000002575 .LASF497
C:\Users\stapi\AppData\Local\Temp\ccNAGkjl.s:23182  .debug_str:0000000000000681 .LASF498
C:\Users\stapi\AppData\Local\Temp\ccNAGkjl.s:23944  .debug_str:0000000000001c58 .LASF499
C:\Users\stapi\AppData\Local\Temp\ccNAGkjl.s:24538  .debug_str:0000000000002d8d .LASF500
C:\Users\stapi\AppData\Local\Temp\ccNAGkjl.s:24358  .debug_str:000000000000288e .LASF501
C:\Users\stapi\AppData\Local\Temp\ccNAGkjl.s:24078  .debug_str:0000000000001ffb .LASF502
C:\Users\stapi\AppData\Local\Temp\ccNAGkjl.s:25388  .debug_str:0000000000004733 .LASF503
C:\Users\stapi\AppData\Local\Temp\ccNAGkjl.s:26070  .debug_str:0000000000005c48 .LASF504
C:\Users\stapi\AppData\Local\Temp\ccNAGkjl.s:24530  .debug_str:0000000000002d5a .LASF505
C:\Users\stapi\AppData\Local\Temp\ccNAGkjl.s:24218  .debug_str:0000000000002436 .LASF506
C:\Users\stapi\AppData\Local\Temp\ccNAGkjl.s:25930  .debug_str:0000000000005730 .LASF507
C:\Users\stapi\AppData\Local\Temp\ccNAGkjl.s:25068  .debug_str:0000000000003e5b .LASF508
C:\Users\stapi\AppData\Local\Temp\ccNAGkjl.s:24120  .debug_str:0000000000002132 .LASF509
C:\Users\stapi\AppData\Local\Temp\ccNAGkjl.s:24330  .debug_str:00000000000027a3 .LASF510
C:\Users\stapi\AppData\Local\Temp\ccNAGkjl.s:24198  .debug_str:0000000000002391 .LASF511
C:\Users\stapi\AppData\Local\Temp\ccNAGkjl.s:23462  .debug_str:0000000000000ea1 .LASF512
C:\Users\stapi\AppData\Local\Temp\ccNAGkjl.s:25272  .debug_str:00000000000043da .LASF513
C:\Users\stapi\AppData\Local\Temp\ccNAGkjl.s:23216  .debug_str:0000000000000790 .LASF514
C:\Users\stapi\AppData\Local\Temp\ccNAGkjl.s:25654  .debug_str:0000000000004eda .LASF515
C:\Users\stapi\AppData\Local\Temp\ccNAGkjl.s:23790  .debug_str:0000000000001817 .LASF516
C:\Users\stapi\AppData\Local\Temp\ccNAGkjl.s:23474  .debug_str:0000000000000ef2 .LASF517
C:\Users\stapi\AppData\Local\Temp\ccNAGkjl.s:26076  .debug_str:0000000000005c72 .LASF518
C:\Users\stapi\AppData\Local\Temp\ccNAGkjl.s:23360  .debug_str:0000000000000b8f .LASF519
C:\Users\stapi\AppData\Local\Temp\ccNAGkjl.s:23406  .debug_str:0000000000000d19 .LASF520
C:\Users\stapi\AppData\Local\Temp\ccNAGkjl.s:23066  .debug_str:000000000000034f .LASF521
C:\Users\stapi\AppData\Local\Temp\ccNAGkjl.s:25354  .debug_str:0000000000004607 .LASF522
C:\Users\stapi\AppData\Local\Temp\ccNAGkjl.s:23680  .debug_str:00000000000014d2 .LASF523
C:\Users\stapi\AppData\Local\Temp\ccNAGkjl.s:25146  .debug_str:0000000000004060 .LASF524
C:\Users\stapi\AppData\Local\Temp\ccNAGkjl.s:26052  .debug_str:0000000000005bb1 .LASF525
C:\Users\stapi\AppData\Local\Temp\ccNAGkjl.s:24704  .debug_str:0000000000003288 .LASF526
C:\Users\stapi\AppData\Local\Temp\ccNAGkjl.s:23648  .debug_str:00000000000013e7 .LASF527
C:\Users\stapi\AppData\Local\Temp\ccNAGkjl.s:23206  .debug_str:000000000000073e .LASF528
C:\Users\stapi\AppData\Local\Temp\ccNAGkjl.s:23472  .debug_str:0000000000000ed8 .LASF529
C:\Users\stapi\AppData\Local\Temp\ccNAGkjl.s:24682  .debug_str:00000000000031d0 .LASF530
C:\Users\stapi\AppData\Local\Temp\ccNAGkjl.s:25262  .debug_str:0000000000004390 .LASF531
C:\Users\stapi\AppData\Local\Temp\ccNAGkjl.s:26118  .debug_str:0000000000005da0 .LASF532
C:\Users\stapi\AppData\Local\Temp\ccNAGkjl.s:25214  .debug_str:000000000000425a .LASF533
C:\Users\stapi\AppData\Local\Temp\ccNAGkjl.s:24680  .debug_str:00000000000031c1 .LASF534
C:\Users\stapi\AppData\Local\Temp\ccNAGkjl.s:24722  .debug_str:000000000000330d .LASF535
C:\Users\stapi\AppData\Local\Temp\ccNAGkjl.s:25560  .debug_str:0000000000004c43 .LASF536
C:\Users\stapi\AppData\Local\Temp\ccNAGkjl.s:25508  .debug_str:0000000000004a7a .LASF537
C:\Users\stapi\AppData\Local\Temp\ccNAGkjl.s:25792  .debug_str:000000000000530a .LASF538
C:\Users\stapi\AppData\Local\Temp\ccNAGkjl.s:25032  .debug_str:0000000000003d6d .LASF539
C:\Users\stapi\AppData\Local\Temp\ccNAGkjl.s:23682  .debug_str:00000000000014e6 .LASF540
C:\Users\stapi\AppData\Local\Temp\ccNAGkjl.s:23728  .debug_str:0000000000001640 .LASF541
C:\Users\stapi\AppData\Local\Temp\ccNAGkjl.s:24488  .debug_str:0000000000002c48 .LASF542
C:\Users\stapi\AppData\Local\Temp\ccNAGkjl.s:25874  .debug_str:0000000000005586 .LASF543
C:\Users\stapi\AppData\Local\Temp\ccNAGkjl.s:24642  .debug_str:00000000000030b1 .LASF544
C:\Users\stapi\AppData\Local\Temp\ccNAGkjl.s:26050  .debug_str:0000000000005ba7 .LASF545
C:\Users\stapi\AppData\Local\Temp\ccNAGkjl.s:23952  .debug_str:0000000000001ca4 .LASF546
C:\Users\stapi\AppData\Local\Temp\ccNAGkjl.s:26090  .debug_str:0000000000005cdf .LASF547
C:\Users\stapi\AppData\Local\Temp\ccNAGkjl.s:24976  .debug_str:0000000000003bd5 .LASF548
C:\Users\stapi\AppData\Local\Temp\ccNAGkjl.s:25946  .debug_str:00000000000057ae .LASF549
C:\Users\stapi\AppData\Local\Temp\ccNAGkjl.s:23154  .debug_str:00000000000005c5 .LASF550
C:\Users\stapi\AppData\Local\Temp\ccNAGkjl.s:23410  .debug_str:0000000000000d38 .LASF551
C:\Users\stapi\AppData\Local\Temp\ccNAGkjl.s:24314  .debug_str:000000000000272a .LASF552
C:\Users\stapi\AppData\Local\Temp\ccNAGkjl.s:25360  .debug_str:0000000000004642 .LASF553
C:\Users\stapi\AppData\Local\Temp\ccNAGkjl.s:23592  .debug_str:0000000000001255 .LASF554
C:\Users\stapi\AppData\Local\Temp\ccNAGkjl.s:25530  .debug_str:0000000000004b32 .LASF555
C:\Users\stapi\AppData\Local\Temp\ccNAGkjl.s:23490  .debug_str:0000000000000f5c .LASF556
C:\Users\stapi\AppData\Local\Temp\ccNAGkjl.s:26038  .debug_str:0000000000005b45 .LASF557
C:\Users\stapi\AppData\Local\Temp\ccNAGkjl.s:25264  .debug_str:000000000000439d .LASF558
C:\Users\stapi\AppData\Local\Temp\ccNAGkjl.s:25352  .debug_str:00000000000045f5 .LASF559
C:\Users\stapi\AppData\Local\Temp\ccNAGkjl.s:25072  .debug_str:0000000000003e6d .LASF560
C:\Users\stapi\AppData\Local\Temp\ccNAGkjl.s:26114  .debug_str:0000000000005d86 .LASF561
C:\Users\stapi\AppData\Local\Temp\ccNAGkjl.s:23548  .debug_str:0000000000001121 .LASF562
C:\Users\stapi\AppData\Local\Temp\ccNAGkjl.s:25540  .debug_str:0000000000004b87 .LASF563
C:\Users\stapi\AppData\Local\Temp\ccNAGkjl.s:26096  .debug_str:0000000000005d12 .LASF564
C:\Users\stapi\AppData\Local\Temp\ccNAGkjl.s:25266  .debug_str:00000000000043ab .LASF565
C:\Users\stapi\AppData\Local\Temp\ccNAGkjl.s:25906  .debug_str:0000000000005676 .LASF566
C:\Users\stapi\AppData\Local\Temp\ccNAGkjl.s:23698  .debug_str:000000000000154b .LASF567
C:\Users\stapi\AppData\Local\Temp\ccNAGkjl.s:25456  .debug_str:00000000000048fe .LASF568
C:\Users\stapi\AppData\Local\Temp\ccNAGkjl.s:25784  .debug_str:00000000000052d5 .LASF569
C:\Users\stapi\AppData\Local\Temp\ccNAGkjl.s:25974  .debug_str:00000000000058fe .LASF570
C:\Users\stapi\AppData\Local\Temp\ccNAGkjl.s:25676  .debug_str:0000000000004fb3 .LASF571
C:\Users\stapi\AppData\Local\Temp\ccNAGkjl.s:24400  .debug_str:00000000000029f1 .LASF572
C:\Users\stapi\AppData\Local\Temp\ccNAGkjl.s:24910  .debug_str:00000000000039d6 .LASF573
C:\Users\stapi\AppData\Local\Temp\ccNAGkjl.s:25732  .debug_str:0000000000005141 .LASF574
C:\Users\stapi\AppData\Local\Temp\ccNAGkjl.s:23004  .debug_str:000000000000014e .LASF575
C:\Users\stapi\AppData\Local\Temp\ccNAGkjl.s:25678  .debug_str:0000000000004fbd .LASF576
C:\Users\stapi\AppData\Local\Temp\ccNAGkjl.s:25060  .debug_str:0000000000003e18 .LASF577
C:\Users\stapi\AppData\Local\Temp\ccNAGkjl.s:24496  .debug_str:0000000000002c7f .LASF578
C:\Users\stapi\AppData\Local\Temp\ccNAGkjl.s:26144  .debug_str:0000000000005e70 .LASF579
C:\Users\stapi\AppData\Local\Temp\ccNAGkjl.s:23356  .debug_str:0000000000000b7c .LASF580
C:\Users\stapi\AppData\Local\Temp\ccNAGkjl.s:25054  .debug_str:0000000000003df6 .LASF581
C:\Users\stapi\AppData\Local\Temp\ccNAGkjl.s:23062  .debug_str:0000000000000336 .LASF582
C:\Users\stapi\AppData\Local\Temp\ccNAGkjl.s:24678  .debug_str:00000000000031ab .LASF583
C:\Users\stapi\AppData\Local\Temp\ccNAGkjl.s:25396  .debug_str:000000000000475b .LASF584
C:\Users\stapi\AppData\Local\Temp\ccNAGkjl.s:25968  .debug_str:00000000000058c7 .LASF585
C:\Users\stapi\AppData\Local\Temp\ccNAGkjl.s:25212  .debug_str:0000000000004249 .LASF586
C:\Users\stapi\AppData\Local\Temp\ccNAGkjl.s:24332  .debug_str:00000000000027ad .LASF587
C:\Users\stapi\AppData\Local\Temp\ccNAGkjl.s:26142  .debug_str:0000000000005e6b .LASF588
C:\Users\stapi\AppData\Local\Temp\ccNAGkjl.s:24420  .debug_str:0000000000002a82 .LASF589
C:\Users\stapi\AppData\Local\Temp\ccNAGkjl.s:23598  .debug_str:0000000000001278 .LASF590
C:\Users\stapi\AppData\Local\Temp\ccNAGkjl.s:23608  .debug_str:00000000000012b0 .LASF591
C:\Users\stapi\AppData\Local\Temp\ccNAGkjl.s:24594  .debug_str:0000000000002f52 .LASF592
C:\Users\stapi\AppData\Local\Temp\ccNAGkjl.s:23604  .debug_str:000000000000129a .LASF593
C:\Users\stapi\AppData\Local\Temp\ccNAGkjl.s:24222  .debug_str:0000000000002460 .LASF594
C:\Users\stapi\AppData\Local\Temp\ccNAGkjl.s:23712  .debug_str:00000000000015ab .LASF595
C:\Users\stapi\AppData\Local\Temp\ccNAGkjl.s:24666  .debug_str:000000000000315f .LASF596
C:\Users\stapi\AppData\Local\Temp\ccNAGkjl.s:25220  .debug_str:0000000000004281 .LASF597
C:\Users\stapi\AppData\Local\Temp\ccNAGkjl.s:23980  .debug_str:0000000000001d60 .LASF598
C:\Users\stapi\AppData\Local\Temp\ccNAGkjl.s:23364  .debug_str:0000000000000bac .LASF599
C:\Users\stapi\AppData\Local\Temp\ccNAGkjl.s:24920  .debug_str:0000000000003a31 .LASF600
C:\Users\stapi\AppData\Local\Temp\ccNAGkjl.s:23954  .debug_str:0000000000001cb5 .LASF601
C:\Users\stapi\AppData\Local\Temp\ccNAGkjl.s:25908  .debug_str:000000000000568f .LASF602
C:\Users\stapi\AppData\Local\Temp\ccNAGkjl.s:24500  .debug_str:0000000000002ca3 .LASF603
C:\Users\stapi\AppData\Local\Temp\ccNAGkjl.s:24258  .debug_str:000000000000255a .LASF604
C:\Users\stapi\AppData\Local\Temp\ccNAGkjl.s:25548  .debug_str:0000000000004bdf .LASF605
C:\Users\stapi\AppData\Local\Temp\ccNAGkjl.s:24046  .debug_str:0000000000001f24 .LASF606
C:\Users\stapi\AppData\Local\Temp\ccNAGkjl.s:24300  .debug_str:00000000000026b5 .LASF607
C:\Users\stapi\AppData\Local\Temp\ccNAGkjl.s:24098  .debug_str:000000000000209a .LASF608
C:\Users\stapi\AppData\Local\Temp\ccNAGkjl.s:25904  .debug_str:000000000000566b .LASF609
C:\Users\stapi\AppData\Local\Temp\ccNAGkjl.s:24260  .debug_str:0000000000002565 .LASF610
C:\Users\stapi\AppData\Local\Temp\ccNAGkjl.s:25082  .debug_str:0000000000003ea7 .LASF611
C:\Users\stapi\AppData\Local\Temp\ccNAGkjl.s:25944  .debug_str:000000000000579c .LASF612
C:\Users\stapi\AppData\Local\Temp\ccNAGkjl.s:24028  .debug_str:0000000000001ea4 .LASF613
C:\Users\stapi\AppData\Local\Temp\ccNAGkjl.s:25868  .debug_str:0000000000005555 .LASF614
C:\Users\stapi\AppData\Local\Temp\ccNAGkjl.s:24994  .debug_str:0000000000003c4e .LASF615
C:\Users\stapi\AppData\Local\Temp\ccNAGkjl.s:25710  .debug_str:00000000000050aa .LASF616
C:\Users\stapi\AppData\Local\Temp\ccNAGkjl.s:23758  .debug_str:000000000000171e .LASF617
C:\Users\stapi\AppData\Local\Temp\ccNAGkjl.s:24306  .debug_str:00000000000026e8 .LASF618
C:\Users\stapi\AppData\Local\Temp\ccNAGkjl.s:25452  .debug_str:00000000000048de .LASF619
C:\Users\stapi\AppData\Local\Temp\ccNAGkjl.s:23900  .debug_str:0000000000001b1d .LASF620
C:\Users\stapi\AppData\Local\Temp\ccNAGkjl.s:24114  .debug_str:000000000000210a .LASF621
C:\Users\stapi\AppData\Local\Temp\ccNAGkjl.s:23318  .debug_str:0000000000000a5f .LASF622
C:\Users\stapi\AppData\Local\Temp\ccNAGkjl.s:25430  .debug_str:000000000000485f .LASF623
C:\Users\stapi\AppData\Local\Temp\ccNAGkjl.s:25096  .debug_str:0000000000003f10 .LASF624
C:\Users\stapi\AppData\Local\Temp\ccNAGkjl.s:25304  .debug_str:00000000000044c1 .LASF625
C:\Users\stapi\AppData\Local\Temp\ccNAGkjl.s:24716  .debug_str:00000000000032dc .LASF626
C:\Users\stapi\AppData\Local\Temp\ccNAGkjl.s:24760  .debug_str:0000000000003427 .LASF627
C:\Users\stapi\AppData\Local\Temp\ccNAGkjl.s:24758  .debug_str:0000000000003422 .LASF628
C:\Users\stapi\AppData\Local\Temp\ccNAGkjl.s:25386  .debug_str:0000000000004729 .LASF629
C:\Users\stapi\AppData\Local\Temp\ccNAGkjl.s:25626  .debug_str:0000000000004e05 .LASF630
C:\Users\stapi\AppData\Local\Temp\ccNAGkjl.s:25080  .debug_str:0000000000003e9a .LASF631
C:\Users\stapi\AppData\Local\Temp\ccNAGkjl.s:24340  .debug_str:00000000000027e6 .LASF632
C:\Users\stapi\AppData\Local\Temp\ccNAGkjl.s:23290  .debug_str:000000000000099c .LASF633
C:\Users\stapi\AppData\Local\Temp\ccNAGkjl.s:24386  .debug_str:0000000000002985 .LASF634
C:\Users\stapi\AppData\Local\Temp\ccNAGkjl.s:23582  .debug_str:000000000000120a .LASF635
C:\Users\stapi\AppData\Local\Temp\ccNAGkjl.s:25160  .debug_str:00000000000040d3 .LASF636
C:\Users\stapi\AppData\Local\Temp\ccNAGkjl.s:25024  .debug_str:0000000000003d34 .LASF637
C:\Users\stapi\AppData\Local\Temp\ccNAGkjl.s:24710  .debug_str:00000000000032ac .LASF638
C:\Users\stapi\AppData\Local\Temp\ccNAGkjl.s:23634  .debug_str:0000000000001378 .LASF639
C:\Users\stapi\AppData\Local\Temp\ccNAGkjl.s:23446  .debug_str:0000000000000e2d .LASF640
C:\Users\stapi\AppData\Local\Temp\ccNAGkjl.s:24032  .debug_str:0000000000001ebf .LASF641
C:\Users\stapi\AppData\Local\Temp\ccNAGkjl.s:24782  .debug_str:00000000000035bb .LASF642
C:\Users\stapi\AppData\Local\Temp\ccNAGkjl.s:25950  .debug_str:00000000000057be .LASF643
C:\Users\stapi\AppData\Local\Temp\ccNAGkjl.s:25790  .debug_str:00000000000052f7 .LASF644
C:\Users\stapi\AppData\Local\Temp\ccNAGkjl.s:23302  .debug_str:00000000000009e1 .LASF645
C:\Users\stapi\AppData\Local\Temp\ccNAGkjl.s:25438  .debug_str:000000000000488e .LASF646
C:\Users\stapi\AppData\Local\Temp\ccNAGkjl.s:24810  .debug_str:00000000000036a1 .LASF647
C:\Users\stapi\AppData\Local\Temp\ccNAGkjl.s:24186  .debug_str:000000000000233a .LASF648
C:\Users\stapi\AppData\Local\Temp\ccNAGkjl.s:23242  .debug_str:0000000000000828 .LASF649
C:\Users\stapi\AppData\Local\Temp\ccNAGkjl.s:25750  .debug_str:00000000000051dd .LASF650
C:\Users\stapi\AppData\Local\Temp\ccNAGkjl.s:24154  .debug_str:0000000000002252 .LASF651
C:\Users\stapi\AppData\Local\Temp\ccNAGkjl.s:25362  .debug_str:000000000000465f .LASF652
C:\Users\stapi\AppData\Local\Temp\ccNAGkjl.s:25468  .debug_str:0000000000004964 .LASF653
C:\Users\stapi\AppData\Local\Temp\ccNAGkjl.s:24478  .debug_str:0000000000002c02 .LASF654
C:\Users\stapi\AppData\Local\Temp\ccNAGkjl.s:25774  .debug_str:0000000000005278 .LASF655
C:\Users\stapi\AppData\Local\Temp\ccNAGkjl.s:25046  .debug_str:0000000000003dc2 .LASF656
C:\Users\stapi\AppData\Local\Temp\ccNAGkjl.s:23488  .debug_str:0000000000000f49 .LASF657
C:\Users\stapi\AppData\Local\Temp\ccNAGkjl.s:25230  .debug_str:00000000000042d6 .LASF658
C:\Users\stapi\AppData\Local\Temp\ccNAGkjl.s:25324  .debug_str:0000000000004529 .LASF659
C:\Users\stapi\AppData\Local\Temp\ccNAGkjl.s:22970  .debug_str:0000000000000063 .LASF660
C:\Users\stapi\AppData\Local\Temp\ccNAGkjl.s:24368  .debug_str:00000000000028f0 .LASF661
C:\Users\stapi\AppData\Local\Temp\ccNAGkjl.s:24382  .debug_str:0000000000002961 .LASF662
C:\Users\stapi\AppData\Local\Temp\ccNAGkjl.s:24862  .debug_str:000000000000384e .LASF663
C:\Users\stapi\AppData\Local\Temp\ccNAGkjl.s:23124  .debug_str:00000000000004e6 .LASF664
C:\Users\stapi\AppData\Local\Temp\ccNAGkjl.s:23118  .debug_str:00000000000004b1 .LASF665
C:\Users\stapi\AppData\Local\Temp\ccNAGkjl.s:23694  .debug_str:000000000000152c .LASF666
C:\Users\stapi\AppData\Local\Temp\ccNAGkjl.s:23388  .debug_str:0000000000000c71 .LASF667
C:\Users\stapi\AppData\Local\Temp\ccNAGkjl.s:25838  .debug_str:0000000000005480 .LASF668
C:\Users\stapi\AppData\Local\Temp\ccNAGkjl.s:24770  .debug_str:0000000000003479 .LASF669
C:\Users\stapi\AppData\Local\Temp\ccNAGkjl.s:25596  .debug_str:0000000000004d21 .LASF670
C:\Users\stapi\AppData\Local\Temp\ccNAGkjl.s:24074  .debug_str:0000000000001fd4 .LASF671
C:\Users\stapi\AppData\Local\Temp\ccNAGkjl.s:23082  .debug_str:00000000000003c7 .LASF672
C:\Users\stapi\AppData\Local\Temp\ccNAGkjl.s:23612  .debug_str:00000000000012cb .LASF673
C:\Users\stapi\AppData\Local\Temp\ccNAGkjl.s:24434  .debug_str:0000000000002ae6 .LASF674
C:\Users\stapi\AppData\Local\Temp\ccNAGkjl.s:23924  .debug_str:0000000000001bc1 .LASF675
C:\Users\stapi\AppData\Local\Temp\ccNAGkjl.s:23396  .debug_str:0000000000000cbb .LASF676
C:\Users\stapi\AppData\Local\Temp\ccNAGkjl.s:24552  .debug_str:0000000000002df8 .LASF677
C:\Users\stapi\AppData\Local\Temp\ccNAGkjl.s:25638  .debug_str:0000000000004e72 .LASF678
C:\Users\stapi\AppData\Local\Temp\ccNAGkjl.s:24354  .debug_str:0000000000002859 .LASF679
C:\Users\stapi\AppData\Local\Temp\ccNAGkjl.s:25602  .debug_str:0000000000004d5c .LASF680
C:\Users\stapi\AppData\Local\Temp\ccNAGkjl.s:23978  .debug_str:0000000000001d49 .LASF681
C:\Users\stapi\AppData\Local\Temp\ccNAGkjl.s:24342  .debug_str:00000000000027f6 .LASF682
C:\Users\stapi\AppData\Local\Temp\ccNAGkjl.s:23838  .debug_str:0000000000001956 .LASF683
C:\Users\stapi\AppData\Local\Temp\ccNAGkjl.s:24286  .debug_str:0000000000002648 .LASF684
C:\Users\stapi\AppData\Local\Temp\ccNAGkjl.s:24282  .debug_str:0000000000002623 .LASF685
C:\Users\stapi\AppData\Local\Temp\ccNAGkjl.s:25778  .debug_str:00000000000052a4 .LASF686
C:\Users\stapi\AppData\Local\Temp\ccNAGkjl.s:25986  .debug_str:0000000000005947 .LASF687
C:\Users\stapi\AppData\Local\Temp\ccNAGkjl.s:25348  .debug_str:00000000000045df .LASF688
C:\Users\stapi\AppData\Local\Temp\ccNAGkjl.s:24748  .debug_str:00000000000033de .LASF689
C:\Users\stapi\AppData\Local\Temp\ccNAGkjl.s:25164  .debug_str:00000000000040fb .LASF690
C:\Users\stapi\AppData\Local\Temp\ccNAGkjl.s:24312  .debug_str:0000000000002721 .LASF691
C:\Users\stapi\AppData\Local\Temp\ccNAGkjl.s:23040  .debug_str:0000000000000272 .LASF692
C:\Users\stapi\AppData\Local\Temp\ccNAGkjl.s:25984  .debug_str:000000000000593b .LASF693
C:\Users\stapi\AppData\Local\Temp\ccNAGkjl.s:24532  .debug_str:0000000000002d63 .LASF694
C:\Users\stapi\AppData\Local\Temp\ccNAGkjl.s:23272  .debug_str:000000000000090d .LASF695
C:\Users\stapi\AppData\Local\Temp\ccNAGkjl.s:25350  .debug_str:00000000000045e7 .LASF696
C:\Users\stapi\AppData\Local\Temp\ccNAGkjl.s:25606  .debug_str:0000000000004d7b .LASF697
C:\Users\stapi\AppData\Local\Temp\ccNAGkjl.s:25666  .debug_str:0000000000004f4a .LASF698
C:\Users\stapi\AppData\Local\Temp\ccNAGkjl.s:23280  .debug_str:000000000000094b .LASF699
C:\Users\stapi\AppData\Local\Temp\ccNAGkjl.s:25486  .debug_str:00000000000049f5 .LASF700
C:\Users\stapi\AppData\Local\Temp\ccNAGkjl.s:24266  .debug_str:0000000000002598 .LASF701
C:\Users\stapi\AppData\Local\Temp\ccNAGkjl.s:23882  .debug_str:0000000000001a95 .LASF702
C:\Users\stapi\AppData\Local\Temp\ccNAGkjl.s:24016  .debug_str:0000000000001e5e .LASF703
C:\Users\stapi\AppData\Local\Temp\ccNAGkjl.s:23492  .debug_str:0000000000000f70 .LASF704
C:\Users\stapi\AppData\Local\Temp\ccNAGkjl.s:22978  .debug_str:000000000000009a .LASF705
C:\Users\stapi\AppData\Local\Temp\ccNAGkjl.s:25428  .debug_str:0000000000004855 .LASF706
C:\Users\stapi\AppData\Local\Temp\ccNAGkjl.s:26160  .debug_str:0000000000005f04 .LASF707
C:\Users\stapi\AppData\Local\Temp\ccNAGkjl.s:25840  .debug_str:000000000000548d .LASF708
C:\Users\stapi\AppData\Local\Temp\ccNAGkjl.s:25380  .debug_str:00000000000046f7 .LASF709
C:\Users\stapi\AppData\Local\Temp\ccNAGkjl.s:25820  .debug_str:00000000000053cc .LASF710
C:\Users\stapi\AppData\Local\Temp\ccNAGkjl.s:24854  .debug_str:0000000000003819 .LASF711
C:\Users\stapi\AppData\Local\Temp\ccNAGkjl.s:24106  .debug_str:00000000000020d5 .LASF712
C:\Users\stapi\AppData\Local\Temp\ccNAGkjl.s:25152  .debug_str:0000000000004096 .LASF713
C:\Users\stapi\AppData\Local\Temp\ccNAGkjl.s:25258  .debug_str:000000000000437a .LASF714
C:\Users\stapi\AppData\Local\Temp\ccNAGkjl.s:25716  .debug_str:00000000000050d1 .LASF715
C:\Users\stapi\AppData\Local\Temp\ccNAGkjl.s:23144  .debug_str:0000000000000577 .LASF716
C:\Users\stapi\AppData\Local\Temp\ccNAGkjl.s:24890  .debug_str:0000000000003947 .LASF717
C:\Users\stapi\AppData\Local\Temp\ccNAGkjl.s:25982  .debug_str:0000000000005932 .LASF718
C:\Users\stapi\AppData\Local\Temp\ccNAGkjl.s:23778  .debug_str:00000000000017b7 .LASF719
C:\Users\stapi\AppData\Local\Temp\ccNAGkjl.s:23798  .debug_str:000000000000185c .LASF720
C:\Users\stapi\AppData\Local\Temp\ccNAGkjl.s:23986  .debug_str:0000000000001d87 .LASF721
C:\Users\stapi\AppData\Local\Temp\ccNAGkjl.s:25718  .debug_str:00000000000050dc .LASF722
C:\Users\stapi\AppData\Local\Temp\ccNAGkjl.s:23796  .debug_str:000000000000184a .LASF723
C:\Users\stapi\AppData\Local\Temp\ccNAGkjl.s:23034  .debug_str:0000000000000244 .LASF724
C:\Users\stapi\AppData\Local\Temp\ccNAGkjl.s:23464  .debug_str:0000000000000eae .LASF725
C:\Users\stapi\AppData\Local\Temp\ccNAGkjl.s:23400  .debug_str:0000000000000cd6 .LASF726
C:\Users\stapi\AppData\Local\Temp\ccNAGkjl.s:24112  .debug_str:0000000000002100 .LASF727
C:\Users\stapi\AppData\Local\Temp\ccNAGkjl.s:24818  .debug_str:00000000000036f6 .LASF728
C:\Users\stapi\AppData\Local\Temp\ccNAGkjl.s:25620  .debug_str:0000000000004ddc .LASF729
C:\Users\stapi\AppData\Local\Temp\ccNAGkjl.s:24160  .debug_str:000000000000227c .LASF730
C:\Users\stapi\AppData\Local\Temp\ccNAGkjl.s:24916  .debug_str:0000000000003a0b .LASF731
C:\Users\stapi\AppData\Local\Temp\ccNAGkjl.s:25404  .debug_str:0000000000004790 .LASF732
C:\Users\stapi\AppData\Local\Temp\ccNAGkjl.s:23716  .debug_str:00000000000015e5 .LASF733
C:\Users\stapi\AppData\Local\Temp\ccNAGkjl.s:25916  .debug_str:00000000000056c5 .LASF734
C:\Users\stapi\AppData\Local\Temp\ccNAGkjl.s:25436  .debug_str:0000000000004888 .LASF735
C:\Users\stapi\AppData\Local\Temp\ccNAGkjl.s:23542  .debug_str:00000000000010ed .LASF736
C:\Users\stapi\AppData\Local\Temp\ccNAGkjl.s:24822  .debug_str:0000000000003708 .LASF737
C:\Users\stapi\AppData\Local\Temp\ccNAGkjl.s:23214  .debug_str:0000000000000783 .LASF738
C:\Users\stapi\AppData\Local\Temp\ccNAGkjl.s:23324  .debug_str:0000000000000a7c .LASF739
C:\Users\stapi\AppData\Local\Temp\ccNAGkjl.s:24662  .debug_str:0000000000003147 .LASF740
C:\Users\stapi\AppData\Local\Temp\ccNAGkjl.s:23378  .debug_str:0000000000000c1a .LASF741
C:\Users\stapi\AppData\Local\Temp\ccNAGkjl.s:24578  .debug_str:0000000000002ebd .LASF742
C:\Users\stapi\AppData\Local\Temp\ccNAGkjl.s:25064  .debug_str:0000000000003e34 .LASF743
C:\Users\stapi\AppData\Local\Temp\ccNAGkjl.s:25934  .debug_str:000000000000574a .LASF744
C:\Users\stapi\AppData\Local\Temp\ccNAGkjl.s:23590  .debug_str:000000000000123b .LASF745
C:\Users\stapi\AppData\Local\Temp\ccNAGkjl.s:23264  .debug_str:00000000000008c0 .LASF746
C:\Users\stapi\AppData\Local\Temp\ccNAGkjl.s:25092  .debug_str:0000000000003ef3 .LASF747
C:\Users\stapi\AppData\Local\Temp\ccNAGkjl.s:24410  .debug_str:0000000000002a3f .LASF748
C:\Users\stapi\AppData\Local\Temp\ccNAGkjl.s:23254  .debug_str:0000000000000874 .LASF749
C:\Users\stapi\AppData\Local\Temp\ccNAGkjl.s:24892  .debug_str:000000000000395e .LASF750
C:\Users\stapi\AppData\Local\Temp\ccNAGkjl.s:23752  .debug_str:00000000000016eb .LASF751
C:\Users\stapi\AppData\Local\Temp\ccNAGkjl.s:23654  .debug_str:000000000000141d .LASF752
C:\Users\stapi\AppData\Local\Temp\ccNAGkjl.s:24866  .debug_str:000000000000387f .LASF753
C:\Users\stapi\AppData\Local\Temp\ccNAGkjl.s:23296  .debug_str:00000000000009c8 .LASF754
C:\Users\stapi\AppData\Local\Temp\ccNAGkjl.s:25894  .debug_str:000000000000562e .LASF755
C:\Users\stapi\AppData\Local\Temp\ccNAGkjl.s:25910  .debug_str:000000000000569e .LASF756
C:\Users\stapi\AppData\Local\Temp\ccNAGkjl.s:23666  .debug_str:000000000000147c .LASF757
C:\Users\stapi\AppData\Local\Temp\ccNAGkjl.s:23248  .debug_str:0000000000000858 .LASF758
C:\Users\stapi\AppData\Local\Temp\ccNAGkjl.s:25016  .debug_str:0000000000003d0b .LASF759
C:\Users\stapi\AppData\Local\Temp\ccNAGkjl.s:25252  .debug_str:0000000000004362 .LASF760
C:\Users\stapi\AppData\Local\Temp\ccNAGkjl.s:23552  .debug_str:000000000000113f .LASF761
C:\Users\stapi\AppData\Local\Temp\ccNAGkjl.s:24096  .debug_str:000000000000208b .LASF762
C:\Users\stapi\AppData\Local\Temp\ccNAGkjl.s:24852  .debug_str:000000000000380f .LASF763
C:\Users\stapi\AppData\Local\Temp\ccNAGkjl.s:23024  .debug_str:00000000000001f4 .LASF764
C:\Users\stapi\AppData\Local\Temp\ccNAGkjl.s:24110  .debug_str:00000000000020f3 .LASF765
C:\Users\stapi\AppData\Local\Temp\ccNAGkjl.s:23332  .debug_str:0000000000000ab0 .LASF766
C:\Users\stapi\AppData\Local\Temp\ccNAGkjl.s:24918  .debug_str:0000000000003a28 .LASF767
C:\Users\stapi\AppData\Local\Temp\ccNAGkjl.s:23442  .debug_str:0000000000000e1a .LASF768
C:\Users\stapi\AppData\Local\Temp\ccNAGkjl.s:24206  .debug_str:00000000000023d0 .LASF769
C:\Users\stapi\AppData\Local\Temp\ccNAGkjl.s:24402  .debug_str:0000000000002a07 .LASF770
C:\Users\stapi\AppData\Local\Temp\ccNAGkjl.s:23284  .debug_str:000000000000096c .LASF771
C:\Users\stapi\AppData\Local\Temp\ccNAGkjl.s:25766  .debug_str:0000000000005234 .LASF772
C:\Users\stapi\AppData\Local\Temp\ccNAGkjl.s:24370  .debug_str:00000000000028f9 .LASF773
C:\Users\stapi\AppData\Local\Temp\ccNAGkjl.s:25150  .debug_str:0000000000004082 .LASF774
C:\Users\stapi\AppData\Local\Temp\ccNAGkjl.s:23896  .debug_str:0000000000001afe .LASF775
C:\Users\stapi\AppData\Local\Temp\ccNAGkjl.s:25226  .debug_str:00000000000042b3 .LASF776
C:\Users\stapi\AppData\Local\Temp\ccNAGkjl.s:25200  .debug_str:00000000000041ef .LASF777
C:\Users\stapi\AppData\Local\Temp\ccNAGkjl.s:23330  .debug_str:0000000000000aa4 .LASF778
C:\Users\stapi\AppData\Local\Temp\ccNAGkjl.s:24322  .debug_str:0000000000002778 .LASF779
C:\Users\stapi\AppData\Local\Temp\ccNAGkjl.s:23366  .debug_str:0000000000000bb5 .LASF780
C:\Users\stapi\AppData\Local\Temp\ccNAGkjl.s:25912  .debug_str:00000000000056a7 .LASF781
C:\Users\stapi\AppData\Local\Temp\ccNAGkjl.s:23754  .debug_str:0000000000001705 .LASF782
C:\Users\stapi\AppData\Local\Temp\ccNAGkjl.s:24446  .debug_str:0000000000002b2a .LASF783
C:\Users\stapi\AppData\Local\Temp\ccNAGkjl.s:24392  .debug_str:00000000000029c0 .LASF784
C:\Users\stapi\AppData\Local\Temp\ccNAGkjl.s:25422  .debug_str:0000000000004829 .LASF785
C:\Users\stapi\AppData\Local\Temp\ccNAGkjl.s:24490  .debug_str:0000000000002c5b .LASF786
C:\Users\stapi\AppData\Local\Temp\ccNAGkjl.s:22998  .debug_str:0000000000000123 .LASF787
C:\Users\stapi\AppData\Local\Temp\ccNAGkjl.s:25328  .debug_str:0000000000004554 .LASF788
C:\Users\stapi\AppData\Local\Temp\ccNAGkjl.s:25586  .debug_str:0000000000004cf5 .LASF789
C:\Users\stapi\AppData\Local\Temp\ccNAGkjl.s:23250  .debug_str:000000000000085d .LASF790
C:\Users\stapi\AppData\Local\Temp\ccNAGkjl.s:23974  .debug_str:0000000000001d2f .LASF791
C:\Users\stapi\AppData\Local\Temp\ccNAGkjl.s:25402  .debug_str:0000000000004785 .LASF792
C:\Users\stapi\AppData\Local\Temp\ccNAGkjl.s:25948  .debug_str:00000000000057b8 .LASF793
C:\Users\stapi\AppData\Local\Temp\ccNAGkjl.s:25202  .debug_str:0000000000004201 .LASF794
C:\Users\stapi\AppData\Local\Temp\ccNAGkjl.s:23624  .debug_str:000000000000132e .LASF795
C:\Users\stapi\AppData\Local\Temp\ccNAGkjl.s:25506  .debug_str:0000000000004a6a .LASF796
C:\Users\stapi\AppData\Local\Temp\ccNAGkjl.s:26108  .debug_str:0000000000005d58 .LASF797
C:\Users\stapi\AppData\Local\Temp\ccNAGkjl.s:25378  .debug_str:00000000000046ec .LASF798
C:\Users\stapi\AppData\Local\Temp\ccNAGkjl.s:23550  .debug_str:0000000000001132 .LASF799
C:\Users\stapi\AppData\Local\Temp\ccNAGkjl.s:24464  .debug_str:0000000000002bb6 .LASF800
C:\Users\stapi\AppData\Local\Temp\ccNAGkjl.s:24498  .debug_str:0000000000002c95 .LASF801
C:\Users\stapi\AppData\Local\Temp\ccNAGkjl.s:25440  .debug_str:000000000000489b .LASF802
C:\Users\stapi\AppData\Local\Temp\ccNAGkjl.s:26064  .debug_str:0000000000005c0d .LASF803
C:\Users\stapi\AppData\Local\Temp\ccNAGkjl.s:24554  .debug_str:0000000000002e06 .LASF804
C:\Users\stapi\AppData\Local\Temp\ccNAGkjl.s:24404  .debug_str:0000000000002a12 .LASF805
C:\Users\stapi\AppData\Local\Temp\ccNAGkjl.s:24350  .debug_str:000000000000283b .LASF806
C:\Users\stapi\AppData\Local\Temp\ccNAGkjl.s:23854  .debug_str:00000000000019c4 .LASF807
C:\Users\stapi\AppData\Local\Temp\ccNAGkjl.s:23534  .debug_str:00000000000010ab .LASF808
C:\Users\stapi\AppData\Local\Temp\ccNAGkjl.s:23762  .debug_str:0000000000001746 .LASF809
C:\Users\stapi\AppData\Local\Temp\ccNAGkjl.s:24612  .debug_str:0000000000002fdb .LASF810
C:\Users\stapi\AppData\Local\Temp\ccNAGkjl.s:25694  .debug_str:000000000000503a .LASF811
C:\Users\stapi\AppData\Local\Temp\ccNAGkjl.s:25210  .debug_str:0000000000004235 .LASF812
C:\Users\stapi\AppData\Local\Temp\ccNAGkjl.s:26170  .debug_str:0000000000005f46 .LASF813
C:\Users\stapi\AppData\Local\Temp\ccNAGkjl.s:25496  .debug_str:0000000000004a37 .LASF814
C:\Users\stapi\AppData\Local\Temp\ccNAGkjl.s:24010  .debug_str:0000000000001e40 .LASF815
C:\Users\stapi\AppData\Local\Temp\ccNAGkjl.s:23564  .debug_str:0000000000001193 .LASF816
C:\Users\stapi\AppData\Local\Temp\ccNAGkjl.s:24224  .debug_str:000000000000246f .LASF817
C:\Users\stapi\AppData\Local\Temp\ccNAGkjl.s:25806  .debug_str:000000000000535c .LASF818
C:\Users\stapi\AppData\Local\Temp\ccNAGkjl.s:24932  .debug_str:0000000000003a87 .LASF819
C:\Users\stapi\AppData\Local\Temp\ccNAGkjl.s:25372  .debug_str:00000000000046bb .LASF820
C:\Users\stapi\AppData\Local\Temp\ccNAGkjl.s:24124  .debug_str:000000000000214b .LASF821
C:\Users\stapi\AppData\Local\Temp\ccNAGkjl.s:24608  .debug_str:0000000000002fc1 .LASF822
C:\Users\stapi\AppData\Local\Temp\ccNAGkjl.s:23190  .debug_str:00000000000006c5 .LASF823
C:\Users\stapi\AppData\Local\Temp\ccNAGkjl.s:23094  .debug_str:000000000000040a .LASF824
C:\Users\stapi\AppData\Local\Temp\ccNAGkjl.s:25158  .debug_str:00000000000040ba .LASF825
C:\Users\stapi\AppData\Local\Temp\ccNAGkjl.s:24842  .debug_str:00000000000037c0 .LASF826
C:\Users\stapi\AppData\Local\Temp\ccNAGkjl.s:24432  .debug_str:0000000000002adc .LASF827
C:\Users\stapi\AppData\Local\Temp\ccNAGkjl.s:25002  .debug_str:0000000000003c9b .LASF828
C:\Users\stapi\AppData\Local\Temp\ccNAGkjl.s:23168  .debug_str:0000000000000626 .LASF829
C:\Users\stapi\AppData\Local\Temp\ccNAGkjl.s:23554  .debug_str:0000000000001153 .LASF830
C:\Users\stapi\AppData\Local\Temp\ccNAGkjl.s:24954  .debug_str:0000000000003b23 .LASF831
C:\Users\stapi\AppData\Local\Temp\ccNAGkjl.s:26094  .debug_str:0000000000005d0a .LASF832
C:\Users\stapi\AppData\Local\Temp\ccNAGkjl.s:26020  .debug_str:0000000000005abc .LASF833
C:\Users\stapi\AppData\Local\Temp\ccNAGkjl.s:25370  .debug_str:00000000000046a9 .LASF834
C:\Users\stapi\AppData\Local\Temp\ccNAGkjl.s:23014  .debug_str:00000000000001b3 .LASF835
C:\Users\stapi\AppData\Local\Temp\ccNAGkjl.s:25174  .debug_str:0000000000004145 .LASF836
C:\Users\stapi\AppData\Local\Temp\ccNAGkjl.s:23312  .debug_str:0000000000000a26 .LASF837
C:\Users\stapi\AppData\Local\Temp\ccNAGkjl.s:25686  .debug_str:0000000000005003 .LASF838
C:\Users\stapi\AppData\Local\Temp\ccNAGkjl.s:25522  .debug_str:0000000000004af7 .LASF839
C:\Users\stapi\AppData\Local\Temp\ccNAGkjl.s:25726  .debug_str:0000000000005114 .LASF840
C:\Users\stapi\AppData\Local\Temp\ccNAGkjl.s:24636  .debug_str:0000000000003083 .LASF841
C:\Users\stapi\AppData\Local\Temp\ccNAGkjl.s:25734  .debug_str:0000000000005159 .LASF842
C:\Users\stapi\AppData\Local\Temp\ccNAGkjl.s:24372  .debug_str:000000000000290c .LASF843
C:\Users\stapi\AppData\Local\Temp\ccNAGkjl.s:23148  .debug_str:0000000000000598 .LASF844
C:\Users\stapi\AppData\Local\Temp\ccNAGkjl.s:24904  .debug_str:00000000000039b2 .LASF845
C:\Users\stapi\AppData\Local\Temp\ccNAGkjl.s:23156  .debug_str:00000000000005d5 .LASF846
C:\Users\stapi\AppData\Local\Temp\ccNAGkjl.s:24860  .debug_str:0000000000003842 .LASF847
C:\Users\stapi\AppData\Local\Temp\ccNAGkjl.s:23560  .debug_str:000000000000117a .LASF848
C:\Users\stapi\AppData\Local\Temp\ccNAGkjl.s:24054  .debug_str:0000000000001f60 .LASF849
C:\Users\stapi\AppData\Local\Temp\ccNAGkjl.s:25282  .debug_str:0000000000004420 .LASF850
C:\Users\stapi\AppData\Local\Temp\ccNAGkjl.s:25928  .debug_str:0000000000005721 .LASF851
C:\Users\stapi\AppData\Local\Temp\ccNAGkjl.s:25114  .debug_str:0000000000003f86 .LASF852
C:\Users\stapi\AppData\Local\Temp\ccNAGkjl.s:23730  .debug_str:000000000000164d .LASF853
C:\Users\stapi\AppData\Local\Temp\ccNAGkjl.s:25052  .debug_str:0000000000003dec .LASF854
C:\Users\stapi\AppData\Local\Temp\ccNAGkjl.s:23824  .debug_str:00000000000018f7 .LASF855
C:\Users\stapi\AppData\Local\Temp\ccNAGkjl.s:23708  .debug_str:000000000000158b .LASF856
C:\Users\stapi\AppData\Local\Temp\ccNAGkjl.s:24514  .debug_str:0000000000002cf9 .LASF857
C:\Users\stapi\AppData\Local\Temp\ccNAGkjl.s:25960  .debug_str:000000000000588e .LASF858
C:\Users\stapi\AppData\Local\Temp\ccNAGkjl.s:24280  .debug_str:0000000000002615 .LASF859
C:\Users\stapi\AppData\Local\Temp\ccNAGkjl.s:24378  .debug_str:000000000000293c .LASF860
C:\Users\stapi\AppData\Local\Temp\ccNAGkjl.s:23136  .debug_str:000000000000053e .LASF861
C:\Users\stapi\AppData\Local\Temp\ccNAGkjl.s:25772  .debug_str:000000000000526e .LASF862
C:\Users\stapi\AppData\Local\Temp\ccNAGkjl.s:25970  .debug_str:00000000000058d1 .LASF863
C:\Users\stapi\AppData\Local\Temp\ccNAGkjl.s:23240  .debug_str:000000000000080c .LASF864
C:\Users\stapi\AppData\Local\Temp\ccNAGkjl.s:22972  .debug_str:0000000000000071 .LASF865
C:\Users\stapi\AppData\Local\Temp\ccNAGkjl.s:25332  .debug_str:0000000000004565 .LASF866
C:\Users\stapi\AppData\Local\Temp\ccNAGkjl.s:23594  .debug_str:000000000000125d .LASF867
C:\Users\stapi\AppData\Local\Temp\ccNAGkjl.s:23804  .debug_str:000000000000187d .LASF868
C:\Users\stapi\AppData\Local\Temp\ccNAGkjl.s:24698  .debug_str:000000000000324d .LASF869
C:\Users\stapi\AppData\Local\Temp\ccNAGkjl.s:23202  .debug_str:0000000000000724 .LASF870
C:\Users\stapi\AppData\Local\Temp\ccNAGkjl.s:24456  .debug_str:0000000000002b78 .LASF871
C:\Users\stapi\AppData\Local\Temp\ccNAGkjl.s:24024  .debug_str:0000000000001e90 .LASF872
C:\Users\stapi\AppData\Local\Temp\ccNAGkjl.s:23416  .debug_str:0000000000000d61 .LASF873
C:\Users\stapi\AppData\Local\Temp\ccNAGkjl.s:25852  .debug_str:00000000000054e6 .LASF874
C:\Users\stapi\AppData\Local\Temp\ccNAGkjl.s:24272  .debug_str:00000000000025da .LASF875
C:\Users\stapi\AppData\Local\Temp\ccNAGkjl.s:25584  .debug_str:0000000000004cee .LASF876
C:\Users\stapi\AppData\Local\Temp\ccNAGkjl.s:25570  .debug_str:0000000000004c7f .LASF877
C:\Users\stapi\AppData\Local\Temp\ccNAGkjl.s:24958  .debug_str:0000000000003b44 .LASF878
C:\Users\stapi\AppData\Local\Temp\ccNAGkjl.s:24440  .debug_str:0000000000002b09 .LASF879
C:\Users\stapi\AppData\Local\Temp\ccNAGkjl.s:25420  .debug_str:000000000000480c .LASF880
C:\Users\stapi\AppData\Local\Temp\ccNAGkjl.s:25640  .debug_str:0000000000004e7d .LASF881
C:\Users\stapi\AppData\Local\Temp\ccNAGkjl.s:23664  .debug_str:000000000000146f .LASF882
C:\Users\stapi\AppData\Local\Temp\ccNAGkjl.s:23520  .debug_str:0000000000001051 .LASF883
C:\Users\stapi\AppData\Local\Temp\ccNAGkjl.s:25542  .debug_str:0000000000004b9c .LASF884
C:\Users\stapi\AppData\Local\Temp\ccNAGkjl.s:24542  .debug_str:0000000000002db3 .LASF885
C:\Users\stapi\AppData\Local\Temp\ccNAGkjl.s:23392  .debug_str:0000000000000c99 .LASF886
C:\Users\stapi\AppData\Local\Temp\ccNAGkjl.s:23614  .debug_str:00000000000012dc .LASF887
C:\Users\stapi\AppData\Local\Temp\ccNAGkjl.s:23236  .debug_str:00000000000007e9 .LASF888
C:\Users\stapi\AppData\Local\Temp\ccNAGkjl.s:24302  .debug_str:00000000000026c8 .LASF889
C:\Users\stapi\AppData\Local\Temp\ccNAGkjl.s:23816  .debug_str:00000000000018b5 .LASF890
C:\Users\stapi\AppData\Local\Temp\ccNAGkjl.s:25536  .debug_str:0000000000004b69 .LASF891
C:\Users\stapi\AppData\Local\Temp\ccNAGkjl.s:25044  .debug_str:0000000000003db5 .LASF892
C:\Users\stapi\AppData\Local\Temp\ccNAGkjl.s:23888  .debug_str:0000000000001ab9 .LASF893
C:\Users\stapi\AppData\Local\Temp\ccNAGkjl.s:23914  .debug_str:0000000000001b8f .LASF894
C:\Users\stapi\AppData\Local\Temp\ccNAGkjl.s:24268  .debug_str:00000000000025b1 .LASF895
C:\Users\stapi\AppData\Local\Temp\ccNAGkjl.s:25206  .debug_str:000000000000421e .LASF896
C:\Users\stapi\AppData\Local\Temp\ccNAGkjl.s:25026  .debug_str:0000000000003d4a .LASF897
C:\Users\stapi\AppData\Local\Temp\ccNAGkjl.s:25854  .debug_str:00000000000054f1 .LASF898
C:\Users\stapi\AppData\Local\Temp\ccNAGkjl.s:25078  .debug_str:0000000000003e91 .LASF899
C:\Users\stapi\AppData\Local\Temp\ccNAGkjl.s:25814  .debug_str:00000000000053a0 .LASF900
C:\Users\stapi\AppData\Local\Temp\ccNAGkjl.s:25796  .debug_str:000000000000532c .LASF901
C:\Users\stapi\AppData\Local\Temp\ccNAGkjl.s:24714  .debug_str:00000000000032d7 .LASF902
C:\Users\stapi\AppData\Local\Temp\ccNAGkjl.s:23674  .debug_str:00000000000014b3 .LASF903
C:\Users\stapi\AppData\Local\Temp\ccNAGkjl.s:25668  .debug_str:0000000000004f5a .LASF904
C:\Users\stapi\AppData\Local\Temp\ccNAGkjl.s:24620  .debug_str:000000000000300e .LASF905
C:\Users\stapi\AppData\Local\Temp\ccNAGkjl.s:24070  .debug_str:0000000000001fc0 .LASF906
C:\Users\stapi\AppData\Local\Temp\ccNAGkjl.s:24480  .debug_str:0000000000002c15 .LASF907
C:\Users\stapi\AppData\Local\Temp\ccNAGkjl.s:23198  .debug_str:0000000000000708 .LASF908
C:\Users\stapi\AppData\Local\Temp\ccNAGkjl.s:25294  .debug_str:000000000000446c .LASF909
C:\Users\stapi\AppData\Local\Temp\ccNAGkjl.s:23788  .debug_str:000000000000180d .LASF910
C:\Users\stapi\AppData\Local\Temp\ccNAGkjl.s:24002  .debug_str:0000000000001e0c .LASF911
C:\Users\stapi\AppData\Local\Temp\ccNAGkjl.s:24664  .debug_str:0000000000003152 .LASF912
C:\Users\stapi\AppData\Local\Temp\ccNAGkjl.s:25418  .debug_str:0000000000004804 .LASF913
C:\Users\stapi\AppData\Local\Temp\ccNAGkjl.s:24424  .debug_str:0000000000002a94 .LASF914
C:\Users\stapi\AppData\Local\Temp\ccNAGkjl.s:25020  .debug_str:0000000000003d20 .LASF915
C:\Users\stapi\AppData\Local\Temp\ccNAGkjl.s:23748  .debug_str:00000000000016c9 .LASF916
C:\Users\stapi\AppData\Local\Temp\ccNAGkjl.s:22994  .debug_str:0000000000000103 .LASF917
C:\Users\stapi\AppData\Local\Temp\ccNAGkjl.s:25598  .debug_str:0000000000004d36 .LASF918
C:\Users\stapi\AppData\Local\Temp\ccNAGkjl.s:26140  .debug_str:0000000000005e57 .LASF919
C:\Users\stapi\AppData\Local\Temp\ccNAGkjl.s:23496  .debug_str:0000000000000f8c .LASF920
C:\Users\stapi\AppData\Local\Temp\ccNAGkjl.s:24580  .debug_str:0000000000002ed9 .LASF921
C:\Users\stapi\AppData\Local\Temp\ccNAGkjl.s:24042  .debug_str:0000000000001f08 .LASF922
C:\Users\stapi\AppData\Local\Temp\ccNAGkjl.s:24888  .debug_str:0000000000003931 .LASF923
C:\Users\stapi\AppData\Local\Temp\ccNAGkjl.s:25180  .debug_str:0000000000004169 .LASF924
C:\Users\stapi\AppData\Local\Temp\ccNAGkjl.s:23432  .debug_str:0000000000000dcd .LASF925
C:\Users\stapi\AppData\Local\Temp\ccNAGkjl.s:25148  .debug_str:0000000000004071 .LASF926
C:\Users\stapi\AppData\Local\Temp\ccNAGkjl.s:25952  .debug_str:00000000000057ca .LASF927
C:\Users\stapi\AppData\Local\Temp\ccNAGkjl.s:24896  .debug_str:000000000000397e .LASF928
C:\Users\stapi\AppData\Local\Temp\ccNAGkjl.s:25526  .debug_str:0000000000004b20 .LASF929
C:\Users\stapi\AppData\Local\Temp\ccNAGkjl.s:25704  .debug_str:000000000000508b .LASF930
C:\Users\stapi\AppData\Local\Temp\ccNAGkjl.s:24064  .debug_str:0000000000001fa4 .LASF931
C:\Users\stapi\AppData\Local\Temp\ccNAGkjl.s:24754  .debug_str:000000000000340e .LASF932
C:\Users\stapi\AppData\Local\Temp\ccNAGkjl.s:24878  .debug_str:00000000000038df .LASF933
C:\Users\stapi\AppData\Local\Temp\ccNAGkjl.s:23662  .debug_str:000000000000146a .LASF934
C:\Users\stapi\AppData\Local\Temp\ccNAGkjl.s:23704  .debug_str:000000000000156d .LASF935
C:\Users\stapi\AppData\Local\Temp\ccNAGkjl.s:23486  .debug_str:0000000000000f44 .LASF936
C:\Users\stapi\AppData\Local\Temp\ccNAGkjl.s:23142  .debug_str:0000000000000572 .LASF937
C:\Users\stapi\AppData\Local\Temp\ccNAGkjl.s:25308  .debug_str:00000000000044dc .LASF938
C:\Users\stapi\AppData\Local\Temp\ccNAGkjl.s:23768  .debug_str:0000000000001773 .LASF939
C:\Users\stapi\AppData\Local\Temp\ccNAGkjl.s:24814  .debug_str:00000000000036d1 .LASF940
C:\Users\stapi\AppData\Local\Temp\ccNAGkjl.s:25346  .debug_str:00000000000045d4 .LASF941
C:\Users\stapi\AppData\Local\Temp\ccNAGkjl.s:23772  .debug_str:0000000000001784 .LASF942
C:\Users\stapi\AppData\Local\Temp\ccNAGkjl.s:25802  .debug_str:0000000000005346 .LASF943
C:\Users\stapi\AppData\Local\Temp\ccNAGkjl.s:24294  .debug_str:0000000000002689 .LASF944
C:\Users\stapi\AppData\Local\Temp\ccNAGkjl.s:25736  .debug_str:000000000000516c .LASF945
C:\Users\stapi\AppData\Local\Temp\ccNAGkjl.s:23346  .debug_str:0000000000000b28 .LASF946
C:\Users\stapi\AppData\Local\Temp\ccNAGkjl.s:25192  .debug_str:00000000000041b4 .LASF947
C:\Users\stapi\AppData\Local\Temp\ccNAGkjl.s:23528  .debug_str:000000000000108f .LASF948
C:\Users\stapi\AppData\Local\Temp\ccNAGkjl.s:25006  .debug_str:0000000000003cba .LASF949
C:\Users\stapi\AppData\Local\Temp\ccNAGkjl.s:25644  .debug_str:0000000000004ea0 .LASF950
C:\Users\stapi\AppData\Local\Temp\ccNAGkjl.s:26150  .debug_str:0000000000005eaf .LASF951
C:\Users\stapi\AppData\Local\Temp\ccNAGkjl.s:24486  .debug_str:0000000000002c3f .LASF952
C:\Users\stapi\AppData\Local\Temp\ccNAGkjl.s:23556  .debug_str:000000000000115a .LASF953
C:\Users\stapi\AppData\Local\Temp\ccNAGkjl.s:25170  .debug_str:0000000000004120 .LASF954
C:\Users\stapi\AppData\Local\Temp\ccNAGkjl.s:25270  .debug_str:00000000000043d4 .LASF955
C:\Users\stapi\AppData\Local\Temp\ccNAGkjl.s:25706  .debug_str:0000000000005091 .LASF956
C:\Users\stapi\AppData\Local\Temp\ccNAGkjl.s:25034  .debug_str:0000000000003d7a .LASF957
C:\Users\stapi\AppData\Local\Temp\ccNAGkjl.s:25816  .debug_str:00000000000053b5 .LASF958
C:\Users\stapi\AppData\Local\Temp\ccNAGkjl.s:24422  .debug_str:0000000000002a8e .LASF959
C:\Users\stapi\AppData\Local\Temp\ccNAGkjl.s:25582  .debug_str:0000000000004ce1 .LASF960
C:\Users\stapi\AppData\Local\Temp\ccNAGkjl.s:23160  .debug_str:00000000000005f3 .LASF961
C:\Users\stapi\AppData\Local\Temp\ccNAGkjl.s:24546  .debug_str:0000000000002dce .LASF962
C:\Users\stapi\AppData\Local\Temp\ccNAGkjl.s:23292  .debug_str:00000000000009af .LASF963
C:\Users\stapi\AppData\Local\Temp\ccNAGkjl.s:23652  .debug_str:000000000000140c .LASF964
C:\Users\stapi\AppData\Local\Temp\ccNAGkjl.s:25880  .debug_str:00000000000055bc .LASF965
C:\Users\stapi\AppData\Local\Temp\ccNAGkjl.s:24996  .debug_str:0000000000003c65 .LASF966
C:\Users\stapi\AppData\Local\Temp\ccNAGkjl.s:25846  .debug_str:00000000000054c2 .LASF967
C:\Users\stapi\AppData\Local\Temp\ccNAGkjl.s:23306  .debug_str:00000000000009fd .LASF968
C:\Users\stapi\AppData\Local\Temp\ccNAGkjl.s:25410  .debug_str:00000000000047c7 .LASF969
C:\Users\stapi\AppData\Local\Temp\ccNAGkjl.s:23426  .debug_str:0000000000000d98 .LASF970
C:\Users\stapi\AppData\Local\Temp\ccNAGkjl.s:23964  .debug_str:0000000000001ce1 .LASF971
C:\Users\stapi\AppData\Local\Temp\ccNAGkjl.s:24132  .debug_str:0000000000002188 .LASF972
C:\Users\stapi\AppData\Local\Temp\ccNAGkjl.s:24166  .debug_str:00000000000022ab .LASF973
C:\Users\stapi\AppData\Local\Temp\ccNAGkjl.s:24658  .debug_str:0000000000003134 .LASF974
C:\Users\stapi\AppData\Local\Temp\ccNAGkjl.s:26060  .debug_str:0000000000005beb .LASF975
C:\Users\stapi\AppData\Local\Temp\ccNAGkjl.s:24152  .debug_str:000000000000223d .LASF976
C:\Users\stapi\AppData\Local\Temp\ccNAGkjl.s:25408  .debug_str:00000000000047be .LASF977
C:\Users\stapi\AppData\Local\Temp\ccNAGkjl.s:25918  .debug_str:00000000000056db .LASF978
C:\Users\stapi\AppData\Local\Temp\ccNAGkjl.s:24366  .debug_str:00000000000028d9 .LASF979
C:\Users\stapi\AppData\Local\Temp\ccNAGkjl.s:23812  .debug_str:00000000000018a7 .LASF980
C:\Users\stapi\AppData\Local\Temp\ccNAGkjl.s:23782  .debug_str:00000000000017d4 .LASF981
C:\Users\stapi\AppData\Local\Temp\ccNAGkjl.s:23524  .debug_str:000000000000106b .LASF982
C:\Users\stapi\AppData\Local\Temp\ccNAGkjl.s:25924  .debug_str:0000000000005706 .LASF983
C:\Users\stapi\AppData\Local\Temp\ccNAGkjl.s:25070  .debug_str:0000000000003e63 .LASF984
C:\Users\stapi\AppData\Local\Temp\ccNAGkjl.s:25014  .debug_str:0000000000003cfd .LASF985
C:\Users\stapi\AppData\Local\Temp\ccNAGkjl.s:24474  .debug_str:0000000000002bee .LASF986
C:\Users\stapi\AppData\Local\Temp\ccNAGkjl.s:23078  .debug_str:00000000000003b0 .LASF987
C:\Users\stapi\AppData\Local\Temp\ccNAGkjl.s:23696  .debug_str:000000000000153d .LASF988
C:\Users\stapi\AppData\Local\Temp\ccNAGkjl.s:24876  .debug_str:00000000000038ce .LASF989
C:\Users\stapi\AppData\Local\Temp\ccNAGkjl.s:23870  .debug_str:0000000000001a35 .LASF990
C:\Users\stapi\AppData\Local\Temp\ccNAGkjl.s:25168  .debug_str:0000000000004115 .LASF991
C:\Users\stapi\AppData\Local\Temp\ccNAGkjl.s:25482  .debug_str:00000000000049d6 .LASF992
C:\Users\stapi\AppData\Local\Temp\ccNAGkjl.s:23676  .debug_str:00000000000014b8 .LASF993
C:\Users\stapi\AppData\Local\Temp\ccNAGkjl.s:24824  .debug_str:0000000000003714 .LASF994
C:\Users\stapi\AppData\Local\Temp\ccNAGkjl.s:24598  .debug_str:0000000000002f78 .LASF995
C:\Users\stapi\AppData\Local\Temp\ccNAGkjl.s:24600  .debug_str:0000000000002f85 .LASF996
C:\Users\stapi\AppData\Local\Temp\ccNAGkjl.s:25426  .debug_str:000000000000484b .LASF997
C:\Users\stapi\AppData\Local\Temp\ccNAGkjl.s:23390  .debug_str:0000000000000c7e .LASF998
C:\Users\stapi\AppData\Local\Temp\ccNAGkjl.s:24566  .debug_str:0000000000002e63 .LASF999
C:\Users\stapi\AppData\Local\Temp\ccNAGkjl.s:23992  .debug_str:0000000000001db1 .LASF1000
C:\Users\stapi\AppData\Local\Temp\ccNAGkjl.s:25204  .debug_str:0000000000004212 .LASF1001
C:\Users\stapi\AppData\Local\Temp\ccNAGkjl.s:24006  .debug_str:0000000000001e2b .LASF1002
C:\Users\stapi\AppData\Local\Temp\ccNAGkjl.s:23252  .debug_str:000000000000086b .LASF1003
C:\Users\stapi\AppData\Local\Temp\ccNAGkjl.s:23856  .debug_str:00000000000019cd .LASF1004
C:\Users\stapi\AppData\Local\Temp\ccNAGkjl.s:26034  .debug_str:0000000000005b1e .LASF1005
C:\Users\stapi\AppData\Local\Temp\ccNAGkjl.s:23036  .debug_str:0000000000000256 .LASF1006
C:\Users\stapi\AppData\Local\Temp\ccNAGkjl.s:23502  .debug_str:0000000000000fc2 .LASF1007
C:\Users\stapi\AppData\Local\Temp\ccNAGkjl.s:25538  .debug_str:0000000000004b78 .LASF1008
C:\Users\stapi\AppData\Local\Temp\ccNAGkjl.s:23984  .debug_str:0000000000001d80 .LASF1009
C:\Users\stapi\AppData\Local\Temp\ccNAGkjl.s:24100  .debug_str:00000000000020ab .LASF1010
C:\Users\stapi\AppData\Local\Temp\ccNAGkjl.s:24276  .debug_str:00000000000025fc .LASF1011
C:\Users\stapi\AppData\Local\Temp\ccNAGkjl.s:24128  .debug_str:0000000000002169 .LASF1012
C:\Users\stapi\AppData\Local\Temp\ccNAGkjl.s:23568  .debug_str:00000000000011a9 .LASF1013
C:\Users\stapi\AppData\Local\Temp\ccNAGkjl.s:23038  .debug_str:0000000000000261 .LASF1014
C:\Users\stapi\AppData\Local\Temp\ccNAGkjl.s:25116  .debug_str:0000000000003f90 .LASF1015
C:\Users\stapi\AppData\Local\Temp\ccNAGkjl.s:24872  .debug_str:00000000000038b0 .LASF1016
C:\Users\stapi\AppData\Local\Temp\ccNAGkjl.s:25938  .debug_str:000000000000576d .LASF1017
C:\Users\stapi\AppData\Local\Temp\ccNAGkjl.s:25976  .debug_str:000000000000590c .LASF1018
C:\Users\stapi\AppData\Local\Temp\ccNAGkjl.s:24820  .debug_str:0000000000003702 .LASF1019
C:\Users\stapi\AppData\Local\Temp\ccNAGkjl.s:24618  .debug_str:0000000000003002 .LASF1020
C:\Users\stapi\AppData\Local\Temp\ccNAGkjl.s:23720  .debug_str:0000000000001615 .LASF1021
C:\Users\stapi\AppData\Local\Temp\ccNAGkjl.s:25848  .debug_str:00000000000054d0 .LASF1022
C:\Users\stapi\AppData\Local\Temp\ccNAGkjl.s:25564  .debug_str:0000000000004c65 .LASF1023
C:\Users\stapi\AppData\Local\Temp\ccNAGkjl.s:23956  .debug_str:0000000000001cba .LASF1024
C:\Users\stapi\AppData\Local\Temp\ccNAGkjl.s:24588  .debug_str:0000000000002f24 .LASF1025
C:\Users\stapi\AppData\Local\Temp\ccNAGkjl.s:23128  .debug_str:0000000000000509 .LASF1026
C:\Users\stapi\AppData\Local\Temp\ccNAGkjl.s:24806  .debug_str:0000000000003690 .LASF1027
C:\Users\stapi\AppData\Local\Temp\ccNAGkjl.s:23562  .debug_str:0000000000001187 .LASF1028
C:\Users\stapi\AppData\Local\Temp\ccNAGkjl.s:23820  .debug_str:00000000000018da .LASF1029
C:\Users\stapi\AppData\Local\Temp\ccNAGkjl.s:23972  .debug_str:0000000000001d1d .LASF1030
C:\Users\stapi\AppData\Local\Temp\ccNAGkjl.s:24380  .debug_str:000000000000294b .LASF1031
C:\Users\stapi\AppData\Local\Temp\ccNAGkjl.s:24850  .debug_str:0000000000003800 .LASF1032
C:\Users\stapi\AppData\Local\Temp\ccNAGkjl.s:25268  .debug_str:00000000000043c1 .LASF1033
C:\Users\stapi\AppData\Local\Temp\ccNAGkjl.s:23102  .debug_str:0000000000000451 .LASF1034
C:\Users\stapi\AppData\Local\Temp\ccNAGkjl.s:23026  .debug_str:00000000000001fe .LASF1035
C:\Users\stapi\AppData\Local\Temp\ccNAGkjl.s:23200  .debug_str:0000000000000713 .LASF1036
C:\Users\stapi\AppData\Local\Temp\ccNAGkjl.s:25166  .debug_str:000000000000410b .LASF1037
C:\Users\stapi\AppData\Local\Temp\ccNAGkjl.s:23188  .debug_str:00000000000006b6 .LASF1038
C:\Users\stapi\AppData\Local\Temp\ccNAGkjl.s:24924  .debug_str:0000000000003a47 .LASF1039
C:\Users\stapi\AppData\Local\Temp\ccNAGkjl.s:26156  .debug_str:0000000000005ed5 .LASF1040
C:\Users\stapi\AppData\Local\Temp\ccNAGkjl.s:25562  .debug_str:0000000000004c5a .LASF1041
C:\Users\stapi\AppData\Local\Temp\ccNAGkjl.s:25036  .debug_str:0000000000003d84 .LASF1042
C:\Users\stapi\AppData\Local\Temp\ccNAGkjl.s:25956  .debug_str:00000000000057ea .LASF1043
C:\Users\stapi\AppData\Local\Temp\ccNAGkjl.s:24136  .debug_str:00000000000021b1 .LASF1044
C:\Users\stapi\AppData\Local\Temp\ccNAGkjl.s:25010  .debug_str:0000000000003cd9 .LASF1045
C:\Users\stapi\AppData\Local\Temp\ccNAGkjl.s:23186  .debug_str:00000000000006a7 .LASF1046
C:\Users\stapi\AppData\Local\Temp\ccNAGkjl.s:25228  .debug_str:00000000000042c1 .LASF1047
C:\Users\stapi\AppData\Local\Temp\ccNAGkjl.s:25614  .debug_str:0000000000004dba .LASF1048
C:\Users\stapi\AppData\Local\Temp\ccNAGkjl.s:25448  .debug_str:00000000000048c6 .LASF1049
C:\Users\stapi\AppData\Local\Temp\ccNAGkjl.s:23990  .debug_str:0000000000001dac .LASF1050
C:\Users\stapi\AppData\Local\Temp\ccNAGkjl.s:23456  .debug_str:0000000000000e75 .LASF1051
C:\Users\stapi\AppData\Local\Temp\ccNAGkjl.s:23922  .debug_str:0000000000001bb7 .LASF1052
C:\Users\stapi\AppData\Local\Temp\ccNAGkjl.s:25030  .debug_str:0000000000003d5f .LASF1053
C:\Users\stapi\AppData\Local\Temp\ccNAGkjl.s:24762  .debug_str:0000000000003437 .LASF1054
C:\Users\stapi\AppData\Local\Temp\ccNAGkjl.s:25914  .debug_str:00000000000056b5 .LASF1055
C:\Users\stapi\AppData\Local\Temp\ccNAGkjl.s:23322  .debug_str:0000000000000a70 .LASF1056
C:\Users\stapi\AppData\Local\Temp\ccNAGkjl.s:25788  .debug_str:00000000000052ef .LASF1057
C:\Users\stapi\AppData\Local\Temp\ccNAGkjl.s:23258  .debug_str:0000000000000892 .LASF1058
C:\Users\stapi\AppData\Local\Temp\ccNAGkjl.s:22976  .debug_str:000000000000008c .LASF1059
C:\Users\stapi\AppData\Local\Temp\ccNAGkjl.s:25338  .debug_str:000000000000458a .LASF1060
C:\Users\stapi\AppData\Local\Temp\ccNAGkjl.s:26122  .debug_str:0000000000005dd2 .LASF1061
C:\Users\stapi\AppData\Local\Temp\ccNAGkjl.s:25830  .debug_str:000000000000543f .LASF1062
C:\Users\stapi\AppData\Local\Temp\ccNAGkjl.s:25650  .debug_str:0000000000004ec8 .LASF1063
C:\Users\stapi\AppData\Local\Temp\ccNAGkjl.s:23596  .debug_str:0000000000001268 .LASF1064
C:\Users\stapi\AppData\Local\Temp\ccNAGkjl.s:24412  .debug_str:0000000000002a54 .LASF1065
C:\Users\stapi\AppData\Local\Temp\ccNAGkjl.s:24044  .debug_str:0000000000001f1b .LASF1066
C:\Users\stapi\AppData\Local\Temp\ccNAGkjl.s:23632  .debug_str:000000000000136c .LASF1067
C:\Users\stapi\AppData\Local\Temp\ccNAGkjl.s:24308  .debug_str:00000000000026f4 .LASF1068
C:\Users\stapi\AppData\Local\Temp\ccNAGkjl.s:23334  .debug_str:0000000000000abc .LASF1069
C:\Users\stapi\AppData\Local\Temp\ccNAGkjl.s:22964  .debug_str:0000000000000022 .LASF1070
C:\Users\stapi\AppData\Local\Temp\ccNAGkjl.s:23028  .debug_str:000000000000020b .LASF1071
C:\Users\stapi\AppData\Local\Temp\ccNAGkjl.s:23842  .debug_str:0000000000001979 .LASF1072
C:\Users\stapi\AppData\Local\Temp\ccNAGkjl.s:25432  .debug_str:0000000000004872 .LASF1073
C:\Users\stapi\AppData\Local\Temp\ccNAGkjl.s:24978  .debug_str:0000000000003bea .LASF1074
C:\Users\stapi\AppData\Local\Temp\ccNAGkjl.s:25104  .debug_str:0000000000003f46 .LASF1075
C:\Users\stapi\AppData\Local\Temp\ccNAGkjl.s:24902  .debug_str:00000000000039a4 .LASF1076
C:\Users\stapi\AppData\Local\Temp\ccNAGkjl.s:24362  .debug_str:00000000000028ba .LASF1077
C:\Users\stapi\AppData\Local\Temp\ccNAGkjl.s:25556  .debug_str:0000000000004c11 .LASF1078
C:\Users\stapi\AppData\Local\Temp\ccNAGkjl.s:24794  .debug_str:0000000000003611 .LASF1079
C:\Users\stapi\AppData\Local\Temp\ccNAGkjl.s:25954  .debug_str:00000000000057cf .LASF1080
C:\Users\stapi\AppData\Local\Temp\ccNAGkjl.s:25900  .debug_str:0000000000005654 .LASF1081
C:\Users\stapi\AppData\Local\Temp\ccNAGkjl.s:23112  .debug_str:0000000000000491 .LASF1082
C:\Users\stapi\AppData\Local\Temp\ccNAGkjl.s:25302  .debug_str:00000000000044b2 .LASF1083
C:\Users\stapi\AppData\Local\Temp\ccNAGkjl.s:24830  .debug_str:000000000000373d .LASF1084
C:\Users\stapi\AppData\Local\Temp\ccNAGkjl.s:23538  .debug_str:00000000000010cd .LASF1085
C:\Users\stapi\AppData\Local\Temp\ccNAGkjl.s:24992  .debug_str:0000000000003c32 .LASF1086
C:\Users\stapi\AppData\Local\Temp\ccNAGkjl.s:24080  .debug_str:0000000000002006 .LASF1087
C:\Users\stapi\AppData\Local\Temp\ccNAGkjl.s:22986  .debug_str:00000000000000cc .LASF1088
C:\Users\stapi\AppData\Local\Temp\ccNAGkjl.s:25592  .debug_str:0000000000004d10 .LASF1089
C:\Users\stapi\AppData\Local\Temp\ccNAGkjl.s:24966  .debug_str:0000000000003b86 .LASF1090
C:\Users\stapi\AppData\Local\Temp\ccNAGkjl.s:24040  .debug_str:0000000000001eee .LASF1091
C:\Users\stapi\AppData\Local\Temp\ccNAGkjl.s:23278  .debug_str:0000000000000944 .LASF1092
C:\Users\stapi\AppData\Local\Temp\ccNAGkjl.s:23940  .debug_str:0000000000001c44 .LASF1093
C:\Users\stapi\AppData\Local\Temp\ccNAGkjl.s:24746  .debug_str:00000000000033cb .LASF1094
C:\Users\stapi\AppData\Local\Temp\ccNAGkjl.s:24968  .debug_str:0000000000003b91 .LASF1095
C:\Users\stapi\AppData\Local\Temp\ccNAGkjl.s:24558  .debug_str:0000000000002e1c .LASF1096
C:\Users\stapi\AppData\Local\Temp\ccNAGkjl.s:25122  .debug_str:0000000000003fb6 .LASF1097
C:\Users\stapi\AppData\Local\Temp\ccNAGkjl.s:25366  .debug_str:0000000000004687 .LASF1098
C:\Users\stapi\AppData\Local\Temp\ccNAGkjl.s:23874  .debug_str:0000000000001a4f .LASF1099
C:\Users\stapi\AppData\Local\Temp\ccNAGkjl.s:25884  .debug_str:00000000000055e6 .LASF1100
C:\Users\stapi\AppData\Local\Temp\ccNAGkjl.s:26066  .debug_str:0000000000005c26 .LASF1101
C:\Users\stapi\AppData\Local\Temp\ccNAGkjl.s:24022  .debug_str:0000000000001e84 .LASF1102
C:\Users\stapi\AppData\Local\Temp\ccNAGkjl.s:23732  .debug_str:0000000000001656 .LASF1103
C:\Users\stapi\AppData\Local\Temp\ccNAGkjl.s:24450  .debug_str:0000000000002b45 .LASF1104
C:\Users\stapi\AppData\Local\Temp\ccNAGkjl.s:25518  .debug_str:0000000000004ad0 .LASF1105
C:\Users\stapi\AppData\Local\Temp\ccNAGkjl.s:23770  .debug_str:0000000000001779 .LASF1106
C:\Users\stapi\AppData\Local\Temp\ccNAGkjl.s:25444  .debug_str:00000000000048af .LASF1107
C:\Users\stapi\AppData\Local\Temp\ccNAGkjl.s:25254  .debug_str:000000000000436c .LASF1108
C:\Users\stapi\AppData\Local\Temp\ccNAGkjl.s:23686  .debug_str:00000000000014f9 .LASF1109
C:\Users\stapi\AppData\Local\Temp\ccNAGkjl.s:25610  .debug_str:0000000000004d9a .LASF1110
C:\Users\stapi\AppData\Local\Temp\ccNAGkjl.s:25458  .debug_str:0000000000004915 .LASF1111
C:\Users\stapi\AppData\Local\Temp\ccNAGkjl.s:24718  .debug_str:00000000000032e8 .LASF1112
C:\Users\stapi\AppData\Local\Temp\ccNAGkjl.s:23890  .debug_str:0000000000001ac4 .LASF1113
C:\Users\stapi\AppData\Local\Temp\ccNAGkjl.s:24562  .debug_str:0000000000002e37 .LASF1114
C:\Users\stapi\AppData\Local\Temp\ccNAGkjl.s:26112  .debug_str:0000000000005d71 .LASF1115
C:\Users\stapi\AppData\Local\Temp\ccNAGkjl.s:23540  .debug_str:00000000000010d8 .LASF1116
C:\Users\stapi\AppData\Local\Temp\ccNAGkjl.s:24220  .debug_str:0000000000002443 .LASF1117
C:\Users\stapi\AppData\Local\Temp\ccNAGkjl.s:25824  .debug_str:00000000000053fc .LASF1118
C:\Users\stapi\AppData\Local\Temp\ccNAGkjl.s:26158  .debug_str:0000000000005eef .LASF1119
C:\Users\stapi\AppData\Local\Temp\ccNAGkjl.s:25450  .debug_str:00000000000048cf .LASF1120
C:\Users\stapi\AppData\Local\Temp\ccNAGkjl.s:24964  .debug_str:0000000000003b73 .LASF1121
C:\Users\stapi\AppData\Local\Temp\ccNAGkjl.s:23602  .debug_str:000000000000128d .LASF1122
C:\Users\stapi\AppData\Local\Temp\ccNAGkjl.s:26088  .debug_str:0000000000005ccb .LASF1123
C:\Users\stapi\AppData\Local\Temp\ccNAGkjl.s:24912  .debug_str:00000000000039ee .LASF1124
C:\Users\stapi\AppData\Local\Temp\ccNAGkjl.s:25612  .debug_str:0000000000004da1 .LASF1125
C:\Users\stapi\AppData\Local\Temp\ccNAGkjl.s:25182  .debug_str:0000000000004172 .LASF1126
C:\Users\stapi\AppData\Local\Temp\ccNAGkjl.s:25236  .debug_str:00000000000042f0 .LASF1127
C:\Users\stapi\AppData\Local\Temp\ccNAGkjl.s:25492  .debug_str:0000000000004a0d .LASF1128
C:\Users\stapi\AppData\Local\Temp\ccNAGkjl.s:23808  .debug_str:0000000000001891 .LASF1129
C:\Users\stapi\AppData\Local\Temp\ccNAGkjl.s:24778  .debug_str:00000000000035a5 .LASF1130
C:\Users\stapi\AppData\Local\Temp\ccNAGkjl.s:25844  .debug_str:00000000000054b0 .LASF1131
C:\Users\stapi\AppData\Local\Temp\ccNAGkjl.s:24694  .debug_str:0000000000003222 .LASF1132
C:\Users\stapi\AppData\Local\Temp\ccNAGkjl.s:24508  .debug_str:0000000000002cd5 .LASF1133
C:\Users\stapi\AppData\Local\Temp\ccNAGkjl.s:26030  .debug_str:0000000000005af5 .LASF1134
C:\Users\stapi\AppData\Local\Temp\ccNAGkjl.s:23818  .debug_str:00000000000018cf .LASF1135
C:\Users\stapi\AppData\Local\Temp\ccNAGkjl.s:25656  .debug_str:0000000000004ee6 .LASF1136
C:\Users\stapi\AppData\Local\Temp\ccNAGkjl.s:23122  .debug_str:00000000000004dd .LASF1137
C:\Users\stapi\AppData\Local\Temp\ccNAGkjl.s:24858  .debug_str:0000000000003839 .LASF1138
C:\Users\stapi\AppData\Local\Temp\ccNAGkjl.s:26036  .debug_str:0000000000005b3a .LASF1139
C:\Users\stapi\AppData\Local\Temp\ccNAGkjl.s:23208  .debug_str:0000000000000755 .LASF1140
C:\Users\stapi\AppData\Local\Temp\ccNAGkjl.s:26138  .debug_str:0000000000005e4b .LASF1141
C:\Users\stapi\AppData\Local\Temp\ccNAGkjl.s:25398  .debug_str:0000000000004765 .LASF1142
C:\Users\stapi\AppData\Local\Temp\ccNAGkjl.s:25966  .debug_str:00000000000058b7 .LASF1143
C:\Users\stapi\AppData\Local\Temp\ccNAGkjl.s:23976  .debug_str:0000000000001d3b .LASF1144
C:\Users\stapi\AppData\Local\Temp\ccNAGkjl.s:24252  .debug_str:0000000000002536 .LASF1145
C:\Users\stapi\AppData\Local\Temp\ccNAGkjl.s:23970  .debug_str:0000000000001d0b .LASF1146
C:\Users\stapi\AppData\Local\Temp\ccNAGkjl.s:25478  .debug_str:00000000000049bd .LASF1147
C:\Users\stapi\AppData\Local\Temp\ccNAGkjl.s:25746  .debug_str:00000000000051b9 .LASF1148
C:\Users\stapi\AppData\Local\Temp\ccNAGkjl.s:25896  .debug_str:0000000000005638 .LASF1149
C:\Users\stapi\AppData\Local\Temp\ccNAGkjl.s:24742  .debug_str:00000000000033aa .LASF1150
C:\Users\stapi\AppData\Local\Temp\ccNAGkjl.s:25314  .debug_str:00000000000044f4 .LASF1151
C:\Users\stapi\AppData\Local\Temp\ccNAGkjl.s:24504  .debug_str:0000000000002cba .LASF1152
C:\Users\stapi\AppData\Local\Temp\ccNAGkjl.s:25832  .debug_str:000000000000544f .LASF1153
C:\Users\stapi\AppData\Local\Temp\ccNAGkjl.s:24304  .debug_str:00000000000026de .LASF1154
C:\Users\stapi\AppData\Local\Temp\ccNAGkjl.s:23430  .debug_str:0000000000000dc6 .LASF1155
C:\Users\stapi\AppData\Local\Temp\ccNAGkjl.s:25446  .debug_str:00000000000048bf .LASF1156
C:\Users\stapi\AppData\Local\Temp\ccNAGkjl.s:25698  .debug_str:0000000000005062 .LASF1157
C:\Users\stapi\AppData\Local\Temp\ccNAGkjl.s:24334  .debug_str:00000000000027c2 .LASF1158
C:\Users\stapi\AppData\Local\Temp\ccNAGkjl.s:23428  .debug_str:0000000000000daf .LASF1159
C:\Users\stapi\AppData\Local\Temp\ccNAGkjl.s:25120  .debug_str:0000000000003fab .LASF1160
C:\Users\stapi\AppData\Local\Temp\ccNAGkjl.s:24898  .debug_str:000000000000398b .LASF1161
C:\Users\stapi\AppData\Local\Temp\ccNAGkjl.s:23630  .debug_str:000000000000135d .LASF1162
C:\Users\stapi\AppData\Local\Temp\ccNAGkjl.s:23076  .debug_str:00000000000003a0 .LASF1163
C:\Users\stapi\AppData\Local\Temp\ccNAGkjl.s:24744  .debug_str:00000000000033ba .LASF1164
C:\Users\stapi\AppData\Local\Temp\ccNAGkjl.s:25198  .debug_str:00000000000041dc .LASF1165
C:\Users\stapi\AppData\Local\Temp\ccNAGkjl.s:23844  .debug_str:0000000000001995 .LASF1166
C:\Users\stapi\AppData\Local\Temp\ccNAGkjl.s:24544  .debug_str:0000000000002dc1 .LASF1167
C:\Users\stapi\AppData\Local\Temp\ccNAGkjl.s:24880  .debug_str:00000000000038e8 .LASF1168
C:\Users\stapi\AppData\Local\Temp\ccNAGkjl.s:24502  .debug_str:0000000000002caf .LASF1169
C:\Users\stapi\AppData\Local\Temp\ccNAGkjl.s:23600  .debug_str:0000000000001285 .LASF1170
C:\Users\stapi\AppData\Local\Temp\ccNAGkjl.s:24202  .debug_str:00000000000023b7 .LASF1171
C:\Users\stapi\AppData\Local\Temp\ccNAGkjl.s:24336  .debug_str:00000000000027cd .LASF1172
C:\Users\stapi\AppData\Local\Temp\ccNAGkjl.s:24556  .debug_str:0000000000002e0e .LASF1173
C:\Users\stapi\AppData\Local\Temp\ccNAGkjl.s:23878  .debug_str:0000000000001a6a .LASF1174
C:\Users\stapi\AppData\Local\Temp\ccNAGkjl.s:24242  .debug_str:00000000000024ed .LASF1175
C:\Users\stapi\AppData\Local\Temp\ccNAGkjl.s:25298  .debug_str:000000000000448e .LASF1176
C:\Users\stapi\AppData\Local\Temp\ccNAGkjl.s:25810  .debug_str:000000000000537f .LASF1177
C:\Users\stapi\AppData\Local\Temp\ccNAGkjl.s:26116  .debug_str:0000000000005d94 .LASF1178
C:\Users\stapi\AppData\Local\Temp\ccNAGkjl.s:24264  .debug_str:0000000000002585 .LASF1179
C:\Users\stapi\AppData\Local\Temp\ccNAGkjl.s:23422  .debug_str:0000000000000d79 .LASF1180
C:\Users\stapi\AppData\Local\Temp\ccNAGkjl.s:23048  .debug_str:00000000000002c1 .LASF1181
C:\Users\stapi\AppData\Local\Temp\ccNAGkjl.s:24170  .debug_str:00000000000022d7 .LASF1182
C:\Users\stapi\AppData\Local\Temp\ccNAGkjl.s:24752  .debug_str:00000000000033fe .LASF1183
C:\Users\stapi\AppData\Local\Temp\ccNAGkjl.s:24108  .debug_str:00000000000020e7 .LASF1184
C:\Users\stapi\AppData\Local\Temp\ccNAGkjl.s:25260  .debug_str:0000000000004385 .LASF1185
C:\Users\stapi\AppData\Local\Temp\ccNAGkjl.s:25886  .debug_str:00000000000055f7 .LASF1186
C:\Users\stapi\AppData\Local\Temp\ccNAGkjl.s:23394  .debug_str:0000000000000cb3 .LASF1187
C:\Users\stapi\AppData\Local\Temp\ccNAGkjl.s:24846  .debug_str:00000000000037e7 .LASF1188
C:\Users\stapi\AppData\Local\Temp\ccNAGkjl.s:25278  .debug_str:000000000000440b .LASF1189
C:\Users\stapi\AppData\Local\Temp\ccNAGkjl.s:25898  .debug_str:0000000000005646 .LASF1190
C:\Users\stapi\AppData\Local\Temp\ccNAGkjl.s:25836  .debug_str:000000000000546f .LASF1191
C:\Users\stapi\AppData\Local\Temp\ccNAGkjl.s:24652  .debug_str:000000000000310c .LASF1192
C:\Users\stapi\AppData\Local\Temp\ccNAGkjl.s:25038  .debug_str:0000000000003d8e .LASF1193
C:\Users\stapi\AppData\Local\Temp\ccNAGkjl.s:23578  .debug_str:00000000000011f3 .LASF1194
C:\Users\stapi\AppData\Local\Temp\ccNAGkjl.s:23718  .debug_str:00000000000015fd .LASF1195
C:\Users\stapi\AppData\Local\Temp\ccNAGkjl.s:25826  .debug_str:000000000000541b .LASF1196
C:\Users\stapi\AppData\Local\Temp\ccNAGkjl.s:23508  .debug_str:0000000000000fef .LASF1197
C:\Users\stapi\AppData\Local\Temp\ccNAGkjl.s:23514  .debug_str:0000000000001020 .LASF1198
C:\Users\stapi\AppData\Local\Temp\ccNAGkjl.s:26146  .debug_str:0000000000005e89 .LASF1199
C:\Users\stapi\AppData\Local\Temp\ccNAGkjl.s:25660  .debug_str:0000000000004f08 .LASF1200
C:\Users\stapi\AppData\Local\Temp\ccNAGkjl.s:24696  .debug_str:0000000000003234 .LASF1201
C:\Users\stapi\AppData\Local\Temp\ccNAGkjl.s:24168  .debug_str:00000000000022bd .LASF1202
C:\Users\stapi\AppData\Local\Temp\ccNAGkjl.s:23576  .debug_str:00000000000011d8 .LASF1203
C:\Users\stapi\AppData\Local\Temp\ccNAGkjl.s:23746  .debug_str:00000000000016af .LASF1204
C:\Users\stapi\AppData\Local\Temp\ccNAGkjl.s:23658  .debug_str:0000000000001443 .LASF1205
C:\Users\stapi\AppData\Local\Temp\ccNAGkjl.s:24938  .debug_str:0000000000003ab7 .LASF1206
C:\Users\stapi\AppData\Local\Temp\ccNAGkjl.s:23134  .debug_str:0000000000000534 .LASF1207
C:\Users\stapi\AppData\Local\Temp\ccNAGkjl.s:24162  .debug_str:000000000000228d .LASF1208
C:\Users\stapi\AppData\Local\Temp\ccNAGkjl.s:26098  .debug_str:0000000000005d20 .LASF1209
C:\Users\stapi\AppData\Local\Temp\ccNAGkjl.s:25040  .debug_str:0000000000003d9a .LASF1210
C:\Users\stapi\AppData\Local\Temp\ccNAGkjl.s:24750  .debug_str:00000000000033ec .LASF1211
C:\Users\stapi\AppData\Local\Temp\ccNAGkjl.s:24142  .debug_str:00000000000021de .LASF1212
C:\Users\stapi\AppData\Local\Temp\ccNAGkjl.s:24676  .debug_str:000000000000319c .LASF1213
C:\Users\stapi\AppData\Local\Temp\ccNAGkjl.s:24018  .debug_str:0000000000001e6e .LASF1214
C:\Users\stapi\AppData\Local\Temp\ccNAGkjl.s:24708  .debug_str:00000000000032a0 .LASF1215
C:\Users\stapi\AppData\Local\Temp\ccNAGkjl.s:23086  .debug_str:00000000000003dc .LASF1216
C:\Users\stapi\AppData\Local\Temp\ccNAGkjl.s:23828  .debug_str:000000000000190e .LASF1217
C:\Users\stapi\AppData\Local\Temp\ccNAGkjl.s:24686  .debug_str:00000000000031fa .LASF1218
C:\Users\stapi\AppData\Local\Temp\ccNAGkjl.s:23506  .debug_str:0000000000000fe6 .LASF1219
C:\Users\stapi\AppData\Local\Temp\ccNAGkjl.s:25996  .debug_str:0000000000005a10 .LASF1220
C:\Users\stapi\AppData\Local\Temp\ccNAGkjl.s:25136  .debug_str:0000000000004012 .LASF1221
C:\Users\stapi\AppData\Local\Temp\ccNAGkjl.s:25132  .debug_str:0000000000003ff6 .LASF1222
C:\Users\stapi\AppData\Local\Temp\ccNAGkjl.s:24886  .debug_str:000000000000391f .LASF1223
C:\Users\stapi\AppData\Local\Temp\ccNAGkjl.s:24204  .debug_str:00000000000023c1 .LASF1224
C:\Users\stapi\AppData\Local\Temp\ccNAGkjl.s:24804  .debug_str:0000000000003683 .LASF1225
C:\Users\stapi\AppData\Local\Temp\ccNAGkjl.s:26006  .debug_str:0000000000005a5a .LASF1226
C:\Users\stapi\AppData\Local\Temp\ccNAGkjl.s:24172  .debug_str:00000000000022df .LASF1227
C:\Users\stapi\AppData\Local\Temp\ccNAGkjl.s:26000  .debug_str:0000000000005a29 .LASF1228
C:\Users\stapi\AppData\Local\Temp\ccNAGkjl.s:25902  .debug_str:0000000000005660 .LASF1229
C:\Users\stapi\AppData\Local\Temp\ccNAGkjl.s:23132  .debug_str:0000000000000527 .LASF1230
C:\Users\stapi\AppData\Local\Temp\ccNAGkjl.s:23008  .debug_str:0000000000000171 .LASF1231
C:\Users\stapi\AppData\Local\Temp\ccNAGkjl.s:24086  .debug_str:0000000000002020 .LASF1232
C:\Users\stapi\AppData\Local\Temp\ccNAGkjl.s:24396  .debug_str:00000000000029d4 .LASF1233
C:\Users\stapi\AppData\Local\Temp\ccNAGkjl.s:23336  .debug_str:0000000000000ada .LASF1234
C:\Users\stapi\AppData\Local\Temp\ccNAGkjl.s:24634  .debug_str:0000000000003065 .LASF1235
C:\Users\stapi\AppData\Local\Temp\ccNAGkjl.s:24622  .debug_str:000000000000301b .LASF1236
C:\Users\stapi\AppData\Local\Temp\ccNAGkjl.s:24564  .debug_str:0000000000002e46 .LASF1237
C:\Users\stapi\AppData\Local\Temp\ccNAGkjl.s:23504  .debug_str:0000000000000fcc .LASF1238
C:\Users\stapi\AppData\Local\Temp\ccNAGkjl.s:23294  .debug_str:00000000000009b9 .LASF1239
C:\Users\stapi\AppData\Local\Temp\ccNAGkjl.s:24254  .debug_str:0000000000002544 .LASF1240
C:\Users\stapi\AppData\Local\Temp\ccNAGkjl.s:24176  .debug_str:00000000000022ef .LASF1241
C:\Users\stapi\AppData\Local\Temp\ccNAGkjl.s:23256  .debug_str:0000000000000888 .LASF1242
C:\Users\stapi\AppData\Local\Temp\ccNAGkjl.s:24462  .debug_str:0000000000002ba9 .LASF1243
C:\Users\stapi\AppData\Local\Temp\ccNAGkjl.s:23030  .debug_str:0000000000000223 .LASF1244
C:\Users\stapi\AppData\Local\Temp\ccNAGkjl.s:24284  .debug_str:0000000000002632 .LASF1245
C:\Users\stapi\AppData\Local\Temp\ccNAGkjl.s:25872  .debug_str:0000000000005579 .LASF1246
C:\Users\stapi\AppData\Local\Temp\ccNAGkjl.s:25058  .debug_str:0000000000003e09 .LASF1247
C:\Users\stapi\AppData\Local\Temp\ccNAGkjl.s:26022  .debug_str:0000000000005ac4 .LASF1248
C:\Users\stapi\AppData\Local\Temp\ccNAGkjl.s:25720  .debug_str:00000000000050e7 .LASF1249
C:\Users\stapi\AppData\Local\Temp\ccNAGkjl.s:24148  .debug_str:0000000000002213 .LASF1250
C:\Users\stapi\AppData\Local\Temp\ccNAGkjl.s:23858  .debug_str:00000000000019da .LASF1251
C:\Users\stapi\AppData\Local\Temp\ccNAGkjl.s:24140  .debug_str:00000000000021cd .LASF1252
C:\Users\stapi\AppData\Local\Temp\ccNAGkjl.s:24610  .debug_str:0000000000002fcd .LASF1253
C:\Users\stapi\AppData\Local\Temp\ccNAGkjl.s:24962  .debug_str:0000000000003b6d .LASF1254
C:\Users\stapi\AppData\Local\Temp\ccNAGkjl.s:24072  .debug_str:0000000000001fcc .LASF1255
C:\Users\stapi\AppData\Local\Temp\ccNAGkjl.s:25744  .debug_str:00000000000051ac .LASF1256
C:\Users\stapi\AppData\Local\Temp\ccNAGkjl.s:23860  .debug_str:00000000000019e5 .LASF1257
C:\Users\stapi\AppData\Local\Temp\ccNAGkjl.s:23350  .debug_str:0000000000000b38 .LASF1258
C:\Users\stapi\AppData\Local\Temp\ccNAGkjl.s:25358  .debug_str:0000000000004629 .LASF1259
C:\Users\stapi\AppData\Local\Temp\ccNAGkjl.s:23074  .debug_str:0000000000000383 .LASF1260
C:\Users\stapi\AppData\Local\Temp\ccNAGkjl.s:23880  .debug_str:0000000000001a7c .LASF1261
C:\Users\stapi\AppData\Local\Temp\ccNAGkjl.s:25804  .debug_str:000000000000534d .LASF1262
C:\Users\stapi\AppData\Local\Temp\ccNAGkjl.s:25672  .debug_str:0000000000004f8e .LASF1263
C:\Users\stapi\AppData\Local\Temp\ccNAGkjl.s:24444  .debug_str:0000000000002b1c .LASF1264
C:\Users\stapi\AppData\Local\Temp\ccNAGkjl.s:24982  .debug_str:0000000000003c01 .LASF1265
C:\Users\stapi\AppData\Local\Temp\ccNAGkjl.s:23932  .debug_str:0000000000001bff .LASF1266
C:\Users\stapi\AppData\Local\Temp\ccNAGkjl.s:23894  .debug_str:0000000000001aed .LASF1267
C:\Users\stapi\AppData\Local\Temp\ccNAGkjl.s:24792  .debug_str:00000000000035f9 .LASF1268
C:\Users\stapi\AppData\Local\Temp\ccNAGkjl.s:24364  .debug_str:00000000000028cc .LASF1269
C:\Users\stapi\AppData\Local\Temp\ccNAGkjl.s:24848  .debug_str:00000000000037fa .LASF1270
C:\Users\stapi\AppData\Local\Temp\ccNAGkjl.s:24690  .debug_str:000000000000320d .LASF1271
C:\Users\stapi\AppData\Local\Temp\ccNAGkjl.s:24784  .debug_str:00000000000035c0 .LASF1272
C:\Users\stapi\AppData\Local\Temp\ccNAGkjl.s:25056  .debug_str:0000000000003e00 .LASF1273
C:\Users\stapi\AppData\Local\Temp\ccNAGkjl.s:23140  .debug_str:0000000000000562 .LASF1274
C:\Users\stapi\AppData\Local\Temp\ccNAGkjl.s:25926  .debug_str:0000000000005719 .LASF1275
C:\Users\stapi\AppData\Local\Temp\ccNAGkjl.s:24766  .debug_str:000000000000345d .LASF1276
C:\Users\stapi\AppData\Local\Temp\ccNAGkjl.s:23934  .debug_str:0000000000001c14 .LASF1277
C:\Users\stapi\AppData\Local\Temp\ccNAGkjl.s:24672  .debug_str:0000000000003180 .LASF1278
C:\Users\stapi\AppData\Local\Temp\ccNAGkjl.s:25862  .debug_str:0000000000005531 .LASF1279
C:\Users\stapi\AppData\Local\Temp\ccNAGkjl.s:24922  .debug_str:0000000000003a36 .LASF1280
C:\Users\stapi\AppData\Local\Temp\ccNAGkjl.s:25652  .debug_str:0000000000004ed2 .LASF1281
C:\Users\stapi\AppData\Local\Temp\ccNAGkjl.s:23372  .debug_str:0000000000000be2 .LASF1282
C:\Users\stapi\AppData\Local\Temp\ccNAGkjl.s:24094  .debug_str:000000000000207b .LASF1283
C:\Users\stapi\AppData\Local\Temp\ccNAGkjl.s:23738  .debug_str:000000000000167f .LASF1284
C:\Users\stapi\AppData\Local\Temp\ccNAGkjl.s:23106  .debug_str:0000000000000475 .LASF1285
C:\Users\stapi\AppData\Local\Temp\ccNAGkjl.s:25186  .debug_str:0000000000004189 .LASF1286
C:\Users\stapi\AppData\Local\Temp\ccNAGkjl.s:25154  .debug_str:000000000000409e .LASF1287
C:\Users\stapi\AppData\Local\Temp\ccNAGkjl.s:23930  .debug_str:0000000000001bf4 .LASF1288
C:\Users\stapi\AppData\Local\Temp\ccNAGkjl.s:23516  .debug_str:0000000000001034 .LASF1289
C:\Users\stapi\AppData\Local\Temp\ccNAGkjl.s:25382  .debug_str:0000000000004709 .LASF1290
C:\Users\stapi\AppData\Local\Temp\ccNAGkjl.s:23212  .debug_str:000000000000076f .LASF1291
C:\Users\stapi\AppData\Local\Temp\ccNAGkjl.s:25864  .debug_str:000000000000553a .LASF1292
C:\Users\stapi\AppData\Local\Temp\ccNAGkjl.s:23276  .debug_str:000000000000092f .LASF1293
C:\Users\stapi\AppData\Local\Temp\ccNAGkjl.s:25980  .debug_str:0000000000005928 .LASF1294
C:\Users\stapi\AppData\Local\Temp\ccNAGkjl.s:24244  .debug_str:00000000000024ff .LASF1295
C:\Users\stapi\AppData\Local\Temp\ccNAGkjl.s:23300  .debug_str:00000000000009d9 .LASF1296
C:\Users\stapi\AppData\Local\Temp\ccNAGkjl.s:23494  .debug_str:0000000000000f7c .LASF1297
C:\Users\stapi\AppData\Local\Temp\ccNAGkjl.s:24914  .debug_str:0000000000003a00 .LASF1298
C:\Users\stapi\AppData\Local\Temp\ccNAGkjl.s:25218  .debug_str:0000000000004278 .LASF1299
C:\Users\stapi\AppData\Local\Temp\ccNAGkjl.s:24640  .debug_str:000000000000309d .LASF1300
C:\Users\stapi\AppData\Local\Temp\ccNAGkjl.s:25368  .debug_str:0000000000004695 .LASF1301
C:\Users\stapi\AppData\Local\Temp\ccNAGkjl.s:24894  .debug_str:0000000000003975 .LASF1302
C:\Users\stapi\AppData\Local\Temp\ccNAGkjl.s:24130  .debug_str:0000000000002178 .LASF1303
C:\Users\stapi\AppData\Local\Temp\ccNAGkjl.s:25618  .debug_str:0000000000004dce .LASF1304
C:\Users\stapi\AppData\Local\Temp\ccNAGkjl.s:25812  .debug_str:000000000000538e .LASF1305
C:\Users\stapi\AppData\Local\Temp\ccNAGkjl.s:24724  .debug_str:0000000000003320 .LASF1306
C:\Users\stapi\AppData\Local\Temp\ccNAGkjl.s:24316  .debug_str:0000000000002741 .LASF1307
C:\Users\stapi\AppData\Local\Temp\ccNAGkjl.s:25474  .debug_str:0000000000004991 .LASF1308
C:\Users\stapi\AppData\Local\Temp\ccNAGkjl.s:25748  .debug_str:00000000000051c8 .LASF1309
C:\Users\stapi\AppData\Local\Temp\ccNAGkjl.s:23328  .debug_str:0000000000000a92 .LASF1310
C:\Users\stapi\AppData\Local\Temp\ccNAGkjl.s:25086  .debug_str:0000000000003ecf .LASF1311
C:\Users\stapi\AppData\Local\Temp\ccNAGkjl.s:24584  .debug_str:0000000000002f02 .LASF1312
C:\Users\stapi\AppData\Local\Temp\ccNAGkjl.s:24144  .debug_str:00000000000021ec .LASF1313
C:\Users\stapi\AppData\Local\Temp\ccNAGkjl.s:25242  .debug_str:000000000000431d .LASF1314
C:\Users\stapi\AppData\Local\Temp\ccNAGkjl.s:25512  .debug_str:0000000000004a95 .LASF1315
C:\Users\stapi\AppData\Local\Temp\ccNAGkjl.s:25742  .debug_str:000000000000519f .LASF1316
C:\Users\stapi\AppData\Local\Temp\ccNAGkjl.s:25628  .debug_str:0000000000004e17 .LASF1317
C:\Users\stapi\AppData\Local\Temp\ccNAGkjl.s:25340  .debug_str:0000000000004598 .LASF1318
C:\Users\stapi\AppData\Local\Temp\ccNAGkjl.s:23042  .debug_str:000000000000027a .LASF1319
C:\Users\stapi\AppData\Local\Temp\ccNAGkjl.s:24534  .debug_str:0000000000002d70 .LASF1320
C:\Users\stapi\AppData\Local\Temp\ccNAGkjl.s:26004  .debug_str:0000000000005a44 .LASF1321
C:\Users\stapi\AppData\Local\Temp\ccNAGkjl.s:23412  .debug_str:0000000000000d4e .LASF1322
C:\Users\stapi\AppData\Local\Temp\ccNAGkjl.s:24004  .debug_str:0000000000001e1c .LASF1323
C:\Users\stapi\AppData\Local\Temp\ccNAGkjl.s:25616  .debug_str:0000000000004dbf .LASF1324
C:\Users\stapi\AppData\Local\Temp\ccNAGkjl.s:23982  .debug_str:0000000000001d74 .LASF1325
C:\Users\stapi\AppData\Local\Temp\ccNAGkjl.s:24374  .debug_str:000000000000291d .LASF1326
C:\Users\stapi\AppData\Local\Temp\ccNAGkjl.s:24208  .debug_str:00000000000023dc .LASF1327
C:\Users\stapi\AppData\Local\Temp\ccNAGkjl.s:25142  .debug_str:000000000000403a .LASF1328
C:\Users\stapi\AppData\Local\Temp\ccNAGkjl.s:23710  .debug_str:0000000000001596 .LASF1329
C:\Users\stapi\AppData\Local\Temp\ccNAGkjl.s:24606  .debug_str:0000000000002fa9 .LASF1330
C:\Users\stapi\AppData\Local\Temp\ccNAGkjl.s:24190  .debug_str:0000000000002353 .LASF1331
C:\Users\stapi\AppData\Local\Temp\ccNAGkjl.s:26084  .debug_str:0000000000005cad .LASF1332
C:\Users\stapi\AppData\Local\Temp\ccNAGkjl.s:23834  .debug_str:0000000000001931 .LASF1333
C:\Users\stapi\AppData\Local\Temp\ccNAGkjl.s:24764  .debug_str:0000000000003448 .LASF1334
C:\Users\stapi\AppData\Local\Temp\ccNAGkjl.s:24572  .debug_str:0000000000002e83 .LASF1335
C:\Users\stapi\AppData\Local\Temp\ccNAGkjl.s:25600  .debug_str:0000000000004d4b .LASF1336
C:\Users\stapi\AppData\Local\Temp\ccNAGkjl.s:23872  .debug_str:0000000000001a49 .LASF1337
C:\Users\stapi\AppData\Local\Temp\ccNAGkjl.s:24656  .debug_str:0000000000003123 .LASF1338
C:\Users\stapi\AppData\Local\Temp\ccNAGkjl.s:23610  .debug_str:00000000000012bd .LASF1339
C:\Users\stapi\AppData\Local\Temp\ccNAGkjl.s:25246  .debug_str:000000000000433c .LASF1340
C:\Users\stapi\AppData\Local\Temp\ccNAGkjl.s:25128  .debug_str:0000000000003fdd .LASF1341
C:\Users\stapi\AppData\Local\Temp\ccNAGkjl.s:25764  .debug_str:0000000000005223 .LASF1342
C:\Users\stapi\AppData\Local\Temp\ccNAGkjl.s:24802  .debug_str:0000000000003679 .LASF1343
C:\Users\stapi\AppData\Local\Temp\ccNAGkjl.s:25290  .debug_str:0000000000004458 .LASF1344
C:\Users\stapi\AppData\Local\Temp\ccNAGkjl.s:25000  .debug_str:0000000000003c7a .LASF1345
C:\Users\stapi\AppData\Local\Temp\ccNAGkjl.s:24972  .debug_str:0000000000003bb4 .LASF1346
C:\Users\stapi\AppData\Local\Temp\ccNAGkjl.s:23636  .debug_str:0000000000001383 .LASF1347
C:\Users\stapi\AppData\Local\Temp\ccNAGkjl.s:23512  .debug_str:0000000000001012 .LASF1348
C:\Users\stapi\AppData\Local\Temp\ccNAGkjl.s:26040  .debug_str:0000000000005b59 .LASF1349
C:\Users\stapi\AppData\Local\Temp\ccNAGkjl.s:24940  .debug_str:0000000000003ac7 .LASF1350
C:\Users\stapi\AppData\Local\Temp\ccNAGkjl.s:25286  .debug_str:0000000000004437 .LASF1351
C:\Users\stapi\AppData\Local\Temp\ccNAGkjl.s:23498  .debug_str:0000000000000f9e .LASF1352
C:\Users\stapi\AppData\Local\Temp\ccNAGkjl.s:24624  .debug_str:000000000000302c .LASF1353
C:\Users\stapi\AppData\Local\Temp\ccNAGkjl.s:25502  .debug_str:0000000000004a5b .LASF1354
C:\Users\stapi\AppData\Local\Temp\ccNAGkjl.s:25374  .debug_str:00000000000046c9 .LASF1355
C:\Users\stapi\AppData\Local\Temp\ccNAGkjl.s:22988  .debug_str:00000000000000d7 .LASF1356
C:\Users\stapi\AppData\Local\Temp\ccNAGkjl.s:23126  .debug_str:00000000000004f7 .LASF1357
C:\Users\stapi\AppData\Local\Temp\ccNAGkjl.s:23776  .debug_str:00000000000017a5 .LASF1358
C:\Users\stapi\AppData\Local\Temp\ccNAGkjl.s:25696  .debug_str:0000000000005051 .LASF1359
C:\Users\stapi\AppData\Local\Temp\ccNAGkjl.s:25156  .debug_str:00000000000040a7 .LASF1360
C:\Users\stapi\AppData\Local\Temp\ccNAGkjl.s:25576  .debug_str:0000000000004cb2 .LASF1361
C:\Users\stapi\AppData\Local\Temp\ccNAGkjl.s:25222  .debug_str:000000000000428e .LASF1362
C:\Users\stapi\AppData\Local\Temp\ccNAGkjl.s:25110  .debug_str:0000000000003f6e .LASF1363
C:\Users\stapi\AppData\Local\Temp\ccNAGkjl.s:23814  .debug_str:00000000000018af .LASF1364
C:\Users\stapi\AppData\Local\Temp\ccNAGkjl.s:25208  .debug_str:0000000000004228 .LASF1365
C:\Users\stapi\AppData\Local\Temp\ccNAGkjl.s:25680  .debug_str:0000000000004fd0 .LASF1366
C:\Users\stapi\AppData\Local\Temp\ccNAGkjl.s:22982  .debug_str:00000000000000b0 .LASF1367
C:\Users\stapi\AppData\Local\Temp\ccNAGkjl.s:24768  .debug_str:0000000000003466 .LASF1368
C:\Users\stapi\AppData\Local\Temp\ccNAGkjl.s:24844  .debug_str:00000000000037d1 .LASF1369
C:\Users\stapi\AppData\Local\Temp\ccNAGkjl.s:24574  .debug_str:0000000000002e9d .LASF1370
C:\Users\stapi\AppData\Local\Temp\ccNAGkjl.s:25330  .debug_str:000000000000455e .LASF1371
C:\Users\stapi\AppData\Local\Temp\ccNAGkjl.s:24014  .debug_str:0000000000001e56 .LASF1372
C:\Users\stapi\AppData\Local\Temp\ccNAGkjl.s:23170  .debug_str:000000000000062e .LASF1373
C:\Users\stapi\AppData\Local\Temp\ccNAGkjl.s:25516  .debug_str:0000000000004ac6 .LASF1374
C:\Users\stapi\AppData\Local\Temp\ccNAGkjl.s:24522  .debug_str:0000000000002d2d .LASF1375
C:\Users\stapi\AppData\Local\Temp\ccNAGkjl.s:24134  .debug_str:000000000000219b .LASF1376
C:\Users\stapi\AppData\Local\Temp\ccNAGkjl.s:24326  .debug_str:000000000000278c .LASF1377
C:\Users\stapi\AppData\Local\Temp\ccNAGkjl.s:23902  .debug_str:0000000000001b2d .LASF1378
C:\Users\stapi\AppData\Local\Temp\ccNAGkjl.s:24180  .debug_str:000000000000230d .LASF1379
C:\Users\stapi\AppData\Local\Temp\ccNAGkjl.s:25414  .debug_str:00000000000047e4 .LASF1380
C:\Users\stapi\AppData\Local\Temp\ccNAGkjl.s:24048  .debug_str:0000000000001f3d .LASF1381
C:\Users\stapi\AppData\Local\Temp\ccNAGkjl.s:25004  .debug_str:0000000000003caa .LASF1382
C:\Users\stapi\AppData\Local\Temp\ccNAGkjl.s:23120  .debug_str:00000000000004c2 .LASF1383
C:\Users\stapi\AppData\Local\Temp\ccNAGkjl.s:24644  .debug_str:00000000000030c4 .LASF1384
C:\Users\stapi\AppData\Local\Temp\ccNAGkjl.s:25196  .debug_str:00000000000041d7 .LASF1385
C:\Users\stapi\AppData\Local\Temp\ccNAGkjl.s:23760  .debug_str:0000000000001735 .LASF1386
C:\Users\stapi\AppData\Local\Temp\ccNAGkjl.s:23522  .debug_str:000000000000105d .LASF1387
C:\Users\stapi\AppData\Local\Temp\ccNAGkjl.s:24318  .debug_str:0000000000002751 .LASF1388
C:\Users\stapi\AppData\Local\Temp\ccNAGkjl.s:25940  .debug_str:000000000000577e .LASF1389
C:\Users\stapi\AppData\Local\Temp\ccNAGkjl.s:23916  .debug_str:0000000000001b9a .LASF1390
C:\Users\stapi\AppData\Local\Temp\ccNAGkjl.s:25664  .debug_str:0000000000004f3f .LASF1391
C:\Users\stapi\AppData\Local\Temp\ccNAGkjl.s:24974  .debug_str:0000000000003bc6 .LASF1392
C:\Users\stapi\AppData\Local\Temp\ccNAGkjl.s:25280  .debug_str:0000000000004416 .LASF1393
C:\Users\stapi\AppData\Local\Temp\ccNAGkjl.s:25356  .debug_str:0000000000004617 .LASF1394
C:\Users\stapi\AppData\Local\Temp\ccNAGkjl.s:24812  .debug_str:00000000000036ba .LASF1395
C:\Users\stapi\AppData\Local\Temp\ccNAGkjl.s:25108  .debug_str:0000000000003f5a .LASF1396
C:\Users\stapi\AppData\Local\Temp\ccNAGkjl.s:23270  .debug_str:00000000000008f7 .LASF1397
C:\Users\stapi\AppData\Local\Temp\ccNAGkjl.s:23926  .debug_str:0000000000001bd2 .LASF1398
C:\Users\stapi\AppData\Local\Temp\ccNAGkjl.s:24216  .debug_str:0000000000002424 .LASF1399
C:\Users\stapi\AppData\Local\Temp\ccNAGkjl.s:23908  .debug_str:0000000000001b5b .LASF1400
C:\Users\stapi\AppData\Local\Temp\ccNAGkjl.s:23260  .debug_str:000000000000089d .LASF1401
C:\Users\stapi\AppData\Local\Temp\ccNAGkjl.s:25876  .debug_str:000000000000559a .LASF1402
C:\Users\stapi\AppData\Local\Temp\ccNAGkjl.s:24720  .debug_str:0000000000003305 .LASF1403
C:\Users\stapi\AppData\Local\Temp\ccNAGkjl.s:25274  .debug_str:00000000000043e5 .LASF1404
C:\Users\stapi\AppData\Local\Temp\ccNAGkjl.s:23876  .debug_str:0000000000001a61 .LASF1405
C:\Users\stapi\AppData\Local\Temp\ccNAGkjl.s:23586  .debug_str:000000000000121e .LASF1406
C:\Users\stapi\AppData\Local\Temp\ccNAGkjl.s:25462  .debug_str:000000000000493a .LASF1407
C:\Users\stapi\AppData\Local\Temp\ccNAGkjl.s:26110  .debug_str:0000000000005d68 .LASF1408
C:\Users\stapi\AppData\Local\Temp\ccNAGkjl.s:26068  .debug_str:0000000000005c38 .LASF1409
C:\Users\stapi\AppData\Local\Temp\ccNAGkjl.s:25012  .debug_str:0000000000003cec .LASF1410
C:\Users\stapi\AppData\Local\Temp\ccNAGkjl.s:23424  .debug_str:0000000000000d84 .LASF1411
C:\Users\stapi\AppData\Local\Temp\ccNAGkjl.s:26056  .debug_str:0000000000005bce .LASF1412
C:\Users\stapi\AppData\Local\Temp\ccNAGkjl.s:26086  .debug_str:0000000000005cc6 .LASF1413
C:\Users\stapi\AppData\Local\Temp\ccNAGkjl.s:23108  .debug_str:000000000000047f .LASF1414
C:\Users\stapi\AppData\Local\Temp\ccNAGkjl.s:24630  .debug_str:0000000000003055 .LASF1415
C:\Users\stapi\AppData\Local\Temp\ccNAGkjl.s:24998  .debug_str:0000000000003c73 .LASF1416
C:\Users\stapi\AppData\Local\Temp\ccNAGkjl.s:24756  .debug_str:000000000000341a .LASF1417
C:\Users\stapi\AppData\Local\Temp\ccNAGkjl.s:25776  .debug_str:000000000000528d .LASF1418
C:\Users\stapi\AppData\Local\Temp\ccNAGkjl.s:23180  .debug_str:000000000000066d .LASF1419
C:\Users\stapi\AppData\Local\Temp\ccNAGkjl.s:25028  .debug_str:0000000000003d54 .LASF1420
C:\Users\stapi\AppData\Local\Temp\ccNAGkjl.s:25768  .debug_str:0000000000005242 .LASF1421
C:\Users\stapi\AppData\Local\Temp\ccNAGkjl.s:23274  .debug_str:0000000000000919 .LASF1422
C:\Users\stapi\AppData\Local\Temp\ccNAGkjl.s:23920  .debug_str:0000000000001baa .LASF1423
C:\Users\stapi\AppData\Local\Temp\ccNAGkjl.s:24510  .debug_str:0000000000002ce6 .LASF1424
C:\Users\stapi\AppData\Local\Temp\ccNAGkjl.s:24506  .debug_str:0000000000002cc1 .LASF1425
C:\Users\stapi\AppData\Local\Temp\ccNAGkjl.s:25112  .debug_str:0000000000003f79 .LASF1426
C:\Users\stapi\AppData\Local\Temp\ccNAGkjl.s:25326  .debug_str:0000000000004549 .LASF1427
C:\Users\stapi\AppData\Local\Temp\ccNAGkjl.s:25550  .debug_str:0000000000004be6 .LASF1428
C:\Users\stapi\AppData\Local\Temp\ccNAGkjl.s:26132  .debug_str:0000000000005e10 .LASF1429
C:\Users\stapi\AppData\Local\Temp\ccNAGkjl.s:24648  .debug_str:00000000000030ee .LASF1430
C:\Users\stapi\AppData\Local\Temp\ccNAGkjl.s:23340  .debug_str:0000000000000b09 .LASF1431
C:\Users\stapi\AppData\Local\Temp\ccNAGkjl.s:24518  .debug_str:0000000000002d11 .LASF1432
C:\Users\stapi\AppData\Local\Temp\ccNAGkjl.s:24472  .debug_str:0000000000002be0 .LASF1433
C:\Users\stapi\AppData\Local\Temp\ccNAGkjl.s:26078  .debug_str:0000000000005c81 .LASF1434
C:\Users\stapi\AppData\Local\Temp\ccNAGkjl.s:23656  .debug_str:0000000000001437 .LASF1435
C:\Users\stapi\AppData\Local\Temp\ccNAGkjl.s:24230  .debug_str:0000000000002490 .LASF1436
C:\Users\stapi\AppData\Local\Temp\ccNAGkjl.s:26104  .debug_str:0000000000005d3e .LASF1437
C:\Users\stapi\AppData\Local\Temp\ccNAGkjl.s:25316  .debug_str:0000000000004502 .LASF1438
C:\Users\stapi\AppData\Local\Temp\ccNAGkjl.s:23994  .debug_str:0000000000001dbb .LASF1439
C:\Users\stapi\AppData\Local\Temp\ccNAGkjl.s:23408  .debug_str:0000000000000d26 .LASF1440
C:\Users\stapi\AppData\Local\Temp\ccNAGkjl.s:25992  .debug_str:00000000000059ee .LASF1441
C:\Users\stapi\AppData\Local\Temp\ccNAGkjl.s:25300  .debug_str:00000000000044a4 .LASF1442
C:\Users\stapi\AppData\Local\Temp\ccNAGkjl.s:23006  .debug_str:0000000000000161 .LASF1443
C:\Users\stapi\AppData\Local\Temp\ccNAGkjl.s:23968  .debug_str:0000000000001cf8 .LASF1444
C:\Users\stapi\AppData\Local\Temp\ccNAGkjl.s:22990  .debug_str:00000000000000e7 .LASF1445
C:\Users\stapi\AppData\Local\Temp\ccNAGkjl.s:24158  .debug_str:000000000000226b .LASF1446
C:\Users\stapi\AppData\Local\Temp\ccNAGkjl.s:23010  .debug_str:0000000000000187 .LASF1447
C:\Users\stapi\AppData\Local\Temp\ccNAGkjl.s:24104  .debug_str:00000000000020c0 .LASF1448
C:\Users\stapi\AppData\Local\Temp\ccNAGkjl.s:25424  .debug_str:0000000000004836 .LASF1449
C:\Users\stapi\AppData\Local\Temp\ccNAGkjl.s:23354  .debug_str:0000000000000b68 .LASF1450
C:\Users\stapi\AppData\Local\Temp\ccNAGkjl.s:23650  .debug_str:00000000000013fb .LASF1451
C:\Users\stapi\AppData\Local\Temp\ccNAGkjl.s:23764  .debug_str:000000000000174f .LASF1452
C:\Users\stapi\AppData\Local\Temp\ccNAGkjl.s:25622  .debug_str:0000000000004de8 .LASF1453
C:\Users\stapi\AppData\Local\Temp\ccNAGkjl.s:25738  .debug_str:000000000000517d .LASF1454
C:\Users\stapi\AppData\Local\Temp\ccNAGkjl.s:24602  .debug_str:0000000000002f92 .LASF1455
C:\Users\stapi\AppData\Local\Temp\ccNAGkjl.s:24174  .debug_str:00000000000022e8 .LASF1456
C:\Users\stapi\AppData\Local\Temp\ccNAGkjl.s:23626  .debug_str:000000000000133c .LASF1457
C:\Users\stapi\AppData\Local\Temp\ccNAGkjl.s:25722  .debug_str:00000000000050f5 .LASF1458
C:\Users\stapi\AppData\Local\Temp\ccNAGkjl.s:24352  .debug_str:000000000000284b .LASF1459
C:\Users\stapi\AppData\Local\Temp\ccNAGkjl.s:23780  .debug_str:00000000000017c5 .LASF1460
C:\Users\stapi\AppData\Local\Temp\ccNAGkjl.s:24232  .debug_str:00000000000024a0 .LASF1461
C:\Users\stapi\AppData\Local\Temp\ccNAGkjl.s:25384  .debug_str:0000000000004717 .LASF1462
C:\Users\stapi\AppData\Local\Temp\ccNAGkjl.s:26002  .debug_str:0000000000005a35 .LASF1463
C:\Users\stapi\AppData\Local\Temp\ccNAGkjl.s:23684  .debug_str:00000000000014f2 .LASF1464
C:\Users\stapi\AppData\Local\Temp\ccNAGkjl.s:24988  .debug_str:0000000000003c1c .LASF1465
C:\Users\stapi\AppData\Local\Temp\ccNAGkjl.s:23130  .debug_str:000000000000051f .LASF1466
C:\Users\stapi\AppData\Local\Temp\ccNAGkjl.s:23756  .debug_str:000000000000170b .LASF1467
C:\Users\stapi\AppData\Local\Temp\ccNAGkjl.s:23736  .debug_str:000000000000166f .LASF1468
C:\Users\stapi\AppData\Local\Temp\ccNAGkjl.s:23702  .debug_str:0000000000001565 .LASF1469
C:\Users\stapi\AppData\Local\Temp\ccNAGkjl.s:25962  .debug_str:000000000000589a .LASF1470
C:\Users\stapi\AppData\Local\Temp\ccNAGkjl.s:25558  .debug_str:0000000000004c2d .LASF1471
C:\Users\stapi\AppData\Local\Temp\ccNAGkjl.s:24702  .debug_str:0000000000003274 .LASF1472
C:\Users\stapi\AppData\Local\Temp\ccNAGkjl.s:26054  .debug_str:0000000000005bbf .LASF1473
C:\Users\stapi\AppData\Local\Temp\ccNAGkjl.s:25224  .debug_str:000000000000429c .LASF1474
C:\Users\stapi\AppData\Local\Temp\ccNAGkjl.s:23588  .debug_str:000000000000122b .LASF1475
C:\Users\stapi\AppData\Local\Temp\ccNAGkjl.s:24942  .debug_str:0000000000003ad7 .LASF1476
C:\Users\stapi\AppData\Local\Temp\ccNAGkjl.s:23470  .debug_str:0000000000000ecb .LASF1477
C:\Users\stapi\AppData\Local\Temp\ccNAGkjl.s:25578  .debug_str:0000000000004cc4 .LASF1478
C:\Users\stapi\AppData\Local\Temp\ccNAGkjl.s:23706  .debug_str:000000000000157a .LASF1479
C:\Users\stapi\AppData\Local\Temp\ccNAGkjl.s:24730  .debug_str:0000000000003341 .LASF1480
C:\Users\stapi\AppData\Local\Temp\ccNAGkjl.s:25870  .debug_str:000000000000556e .LASF1481
C:\Users\stapi\AppData\Local\Temp\ccNAGkjl.s:25500  .debug_str:0000000000004a48 .LASF1482
C:\Users\stapi\AppData\Local\Temp\ccNAGkjl.s:23572  .debug_str:00000000000011c2 .LASF1483
C:\Users\stapi\AppData\Local\Temp\ccNAGkjl.s:23536  .debug_str:00000000000010b3 .LASF1484
C:\Users\stapi\AppData\Local\Temp\ccNAGkjl.s:23618  .debug_str:00000000000012fc .LASF1485
C:\Users\stapi\AppData\Local\Temp\ccNAGkjl.s:24614  .debug_str:0000000000002fe9 .LASF1486
C:\Users\stapi\AppData\Local\Temp\ccNAGkjl.s:24388  .debug_str:000000000000299d .LASF1487
C:\Users\stapi\AppData\Local\Temp\ccNAGkjl.s:24138  .debug_str:00000000000021c2 .LASF1488
C:\Users\stapi\AppData\Local\Temp\ccNAGkjl.s:23098  .debug_str:000000000000042a .LASF1489
C:\Users\stapi\AppData\Local\Temp\ccNAGkjl.s:23546  .debug_str:000000000000110e .LASF1490
C:\Users\stapi\AppData\Local\Temp\ccNAGkjl.s:25022  .debug_str:0000000000003d25 .LASF1491
C:\Users\stapi\AppData\Local\Temp\ccNAGkjl.s:23016  .debug_str:00000000000001b9 .LASF1492
C:\Users\stapi\AppData\Local\Temp\ccNAGkjl.s:25240  .debug_str:0000000000004309 .LASF1493
C:\Users\stapi\AppData\Local\Temp\ccNAGkjl.s:25572  .debug_str:0000000000004c92 .LASF1494
C:\Users\stapi\AppData\Local\Temp\ccNAGkjl.s:25460  .debug_str:0000000000004926 .LASF1495
C:\Users\stapi\AppData\Local\Temp\ccNAGkjl.s:23138  .debug_str:0000000000000548 .LASF1496
C:\Users\stapi\AppData\Local\Temp\ccNAGkjl.s:25288  .debug_str:0000000000004449 .LASF1497
C:\Users\stapi\AppData\Local\Temp\ccNAGkjl.s:24150  .debug_str:000000000000222a .LASF1498
C:\Users\stapi\AppData\Local\Temp\ccNAGkjl.s:24250  .debug_str:0000000000002527 .LASF1499
C:\Users\stapi\AppData\Local\Temp\ccNAGkjl.s:25782  .debug_str:00000000000052c2 .LASF1500
C:\Users\stapi\AppData\Local\Temp\ccNAGkjl.s:25528  .debug_str:0000000000004b2a .LASF1501
C:\Users\stapi\AppData\Local\Temp\ccNAGkjl.s:25762  .debug_str:0000000000005215 .LASF1502
C:\Users\stapi\AppData\Local\Temp\ccNAGkjl.s:23158  .debug_str:00000000000005e0 .LASF1503
C:\Users\stapi\AppData\Local\Temp\ccNAGkjl.s:24874  .debug_str:00000000000038c6 .LASF1504
C:\Users\stapi\AppData\Local\Temp\ccNAGkjl.s:23380  .debug_str:0000000000000c2a .LASF1505
C:\Users\stapi\AppData\Local\Temp\ccNAGkjl.s:25822  .debug_str:00000000000053e5 .LASF1506
C:\Users\stapi\AppData\Local\Temp\ccNAGkjl.s:24062  .debug_str:0000000000001f8c .LASF1507
C:\Users\stapi\AppData\Local\Temp\ccNAGkjl.s:24516  .debug_str:0000000000002d09 .LASF1508
C:\Users\stapi\AppData\Local\Temp\ccNAGkjl.s:24012  .debug_str:0000000000001e4d .LASF1509
C:\Users\stapi\AppData\Local\Temp\ccNAGkjl.s:25134  .debug_str:0000000000004008 .LASF1510
C:\Users\stapi\AppData\Local\Temp\ccNAGkjl.s:23616  .debug_str:00000000000012f2 .LASF1511
C:\Users\stapi\AppData\Local\Temp\ccNAGkjl.s:23454  .debug_str:0000000000000e6f .LASF1512
C:\Users\stapi\AppData\Local\Temp\ccNAGkjl.s:23574  .debug_str:00000000000011d2 .LASF1513
C:\Users\stapi\AppData\Local\Temp\ccNAGkjl.s:24026  .debug_str:0000000000001e9a .LASF1514
C:\Users\stapi\AppData\Local\Temp\ccNAGkjl.s:25700  .debug_str:000000000000506d .LASF1515
C:\Users\stapi\AppData\Local\Temp\ccNAGkjl.s:24460  .debug_str:0000000000002b95 .LASF1516
C:\Users\stapi\AppData\Local\Temp\ccNAGkjl.s:23692  .debug_str:0000000000001526 .LASF1517
C:\Users\stapi\AppData\Local\Temp\ccNAGkjl.s:24970  .debug_str:0000000000003ba0 .LASF1518
C:\Users\stapi\AppData\Local\Temp\ccNAGkjl.s:24772  .debug_str:000000000000348f .LASF1519
C:\Users\stapi\AppData\Local\Temp\ccNAGkjl.s:24592  .debug_str:0000000000002f42 .LASF1520
C:\Users\stapi\AppData\Local\Temp\ccNAGkjl.s:24192  .debug_str:0000000000002360 .LASF1521
C:\Users\stapi\AppData\Local\Temp\ccNAGkjl.s:24832  .debug_str:000000000000374c .LASF1522
C:\Users\stapi\AppData\Local\Temp\ccNAGkjl.s:25008  .debug_str:0000000000003ccf .LASF1523
C:\Users\stapi\AppData\Local\Temp\ccNAGkjl.s:24706  .debug_str:0000000000003296 .LASF1524
C:\Users\stapi\AppData\Local\Temp\ccNAGkjl.s:23942  .debug_str:0000000000001c4c .LASF1525
C:\Users\stapi\AppData\Local\Temp\ccNAGkjl.s:23678  .debug_str:00000000000014c4 .LASF1526
C:\Users\stapi\AppData\Local\Temp\ccNAGkjl.s:25140  .debug_str:000000000000402c .LASF1527
C:\Users\stapi\AppData\Local\Temp\ccNAGkjl.s:24384  .debug_str:0000000000002978 .LASF1528
C:\Users\stapi\AppData\Local\Temp\ccNAGkjl.s:23958  .debug_str:0000000000001cc6 .LASF1529
C:\Users\stapi\AppData\Local\Temp\ccNAGkjl.s:23784  .debug_str:00000000000017e0 .LASF1530
C:\Users\stapi\AppData\Local\Temp\ccNAGkjl.s:25888  .debug_str:0000000000005606 .LASF1531
C:\Users\stapi\AppData\Local\Temp\ccNAGkjl.s:25520  .debug_str:0000000000004adb .LASF1532
C:\Users\stapi\AppData\Local\Temp\ccNAGkjl.s:25490  .debug_str:0000000000004a08 .LASF1533
C:\Users\stapi\AppData\Local\Temp\ccNAGkjl.s:23174  .debug_str:000000000000063f .LASF1534
C:\Users\stapi\AppData\Local\Temp\ccNAGkjl.s:24520  .debug_str:0000000000002d20 .LASF1535
C:\Users\stapi\AppData\Local\Temp\ccNAGkjl.s:25998  .debug_str:0000000000005a1c .LASF1536
C:\Users\stapi\AppData\Local\Temp\ccNAGkjl.s:26152  .debug_str:0000000000005ebf .LASF1537
C:\Users\stapi\AppData\Local\Temp\ccNAGkjl.s:25232  .debug_str:00000000000042df .LASF1538
C:\Users\stapi\AppData\Local\Temp\ccNAGkjl.s:24360  .debug_str:00000000000028a4 .LASF1539
C:\Users\stapi\AppData\Local\Temp\ccNAGkjl.s:25724  .debug_str:0000000000005100 .LASF1540
C:\Users\stapi\AppData\Local\Temp\ccNAGkjl.s:25972  .debug_str:00000000000058ec .LASF1541
C:\Users\stapi\AppData\Local\Temp\ccNAGkjl.s:23660  .debug_str:0000000000001458 .LASF1544
C:\Users\stapi\AppData\Local\Temp\ccNAGkjl.s:1944   .text.hostapd_eid_rsnxe:0000000000000000 .LFB187
C:\Users\stapi\AppData\Local\Temp\ccNAGkjl.s:2142   .text.hostapd_eid_rsnxe:00000000000000ca .LFE187
C:\Users\stapi\AppData\Local\Temp\ccNAGkjl.s:25392  .debug_str:000000000000474f .LASF1542
C:\Users\stapi\AppData\Local\Temp\ccNAGkjl.s:21614  .debug_loc:0000000000000000 .LLST62
C:\Users\stapi\AppData\Local\Temp\ccNAGkjl.s:21625  .debug_loc:000000000000001e .LLST63
C:\Users\stapi\AppData\Local\Temp\ccNAGkjl.s:21636  .debug_loc:000000000000003c .LLST64
C:\Users\stapi\AppData\Local\Temp\ccNAGkjl.s:21674  .debug_loc:000000000000009f .LLST65
C:\Users\stapi\AppData\Local\Temp\ccNAGkjl.s:21715  .debug_loc:0000000000000105 .LLST66
C:\Users\stapi\AppData\Local\Temp\ccNAGkjl.s:24526  .debug_str:0000000000002d49 .LASF1543
C:\Users\stapi\AppData\Local\Temp\ccNAGkjl.s:21745  .debug_loc:0000000000000152 .LLST67
C:\Users\stapi\AppData\Local\Temp\ccNAGkjl.s:1989   .text.hostapd_eid_rsnxe:0000000000000020 .LBB104
C:\Users\stapi\AppData\Local\Temp\ccNAGkjl.s:2128   .text.hostapd_eid_rsnxe:00000000000000b6 .LVL194
C:\Users\stapi\AppData\Local\Temp\ccNAGkjl.s:23246  .debug_str:0000000000000841 .LASF1545
C:\Users\stapi\AppData\Local\Temp\ccNAGkjl.s:1926   .text.hostapd_eid_fils_indic:0000000000000000 .LFB186
C:\Users\stapi\AppData\Local\Temp\ccNAGkjl.s:1937   .text.hostapd_eid_fils_indic:0000000000000004 .LFE186
C:\Users\stapi\AppData\Local\Temp\ccNAGkjl.s:21752  .debug_loc:0000000000000165 .LLST61
C:\Users\stapi\AppData\Local\Temp\ccNAGkjl.s:23988  .debug_str:0000000000001d90 .LASF1562
C:\Users\stapi\AppData\Local\Temp\ccNAGkjl.s:1861   .text.ap_copy_sta_supp_op_classes:0000000000000000 .LFB185
C:\Users\stapi\AppData\Local\Temp\ccNAGkjl.s:1919   .text.ap_copy_sta_supp_op_classes:0000000000000050 .LFE185
C:\Users\stapi\AppData\Local\Temp\ccNAGkjl.s:21766  .debug_loc:0000000000000186 .LLST58
C:\Users\stapi\AppData\Local\Temp\ccNAGkjl.s:21784  .debug_loc:00000000000001b2 .LLST59
C:\Users\stapi\AppData\Local\Temp\ccNAGkjl.s:24296  .debug_str:0000000000002697 .LASF1546
C:\Users\stapi\AppData\Local\Temp\ccNAGkjl.s:21801  .debug_loc:00000000000001dd .LLST60
C:\Users\stapi\AppData\Local\Temp\ccNAGkjl.s:1885   .text.ap_copy_sta_supp_op_classes:000000000000001e .LVL164
C:\Users\stapi\AppData\Local\Temp\ccNAGkjl.s:1890   .text.ap_copy_sta_supp_op_classes:000000000000002a .LVL165
C:\Users\stapi\AppData\Local\Temp\ccNAGkjl.s:1907   .text.ap_copy_sta_supp_op_classes:0000000000000046 .LVL166
C:\Users\stapi\AppData\Local\Temp\ccNAGkjl.s:25364  .debug_str:0000000000004674 .LASF1547
C:\Users\stapi\AppData\Local\Temp\ccNAGkjl.s:24734  .debug_str:000000000000335b .LASF1548
C:\Users\stapi\AppData\Local\Temp\ccNAGkjl.s:25144  .debug_str:000000000000404a .LASF1549
C:\Users\stapi\AppData\Local\Temp\ccNAGkjl.s:25860  .debug_str:0000000000005517 .LASF1550
C:\Users\stapi\AppData\Local\Temp\ccNAGkjl.s:23786  .debug_str:00000000000017ed .LASF1551
C:\Users\stapi\AppData\Local\Temp\ccNAGkjl.s:25634  .debug_str:0000000000004e4c .LASF1552
C:\Users\stapi\AppData\Local\Temp\ccNAGkjl.s:24692  .debug_str:000000000000321d .LASF1553
C:\Users\stapi\AppData\Local\Temp\ccNAGkjl.s:24816  .debug_str:00000000000036e0 .LASF1554
C:\Users\stapi\AppData\Local\Temp\ccNAGkjl.s:1386   .text.hostapd_eid_time_zone:0000000000000000 .LFB178
C:\Users\stapi\AppData\Local\Temp\ccNAGkjl.s:1456   .text.hostapd_eid_time_zone:000000000000005a .LFE178
C:\Users\stapi\AppData\Local\Temp\ccNAGkjl.s:21819  .debug_loc:0000000000000209 .LLST44
C:\Users\stapi\AppData\Local\Temp\ccNAGkjl.s:21837  .debug_loc:0000000000000235 .LLST45
C:\Users\stapi\AppData\Local\Temp\ccNAGkjl.s:21856  .debug_loc:0000000000000269 .LLST46
C:\Users\stapi\AppData\Local\Temp\ccNAGkjl.s:1418   .text.hostapd_eid_time_zone:0000000000000026 .LVL122
C:\Users\stapi\AppData\Local\Temp\ccNAGkjl.s:1439   .text.hostapd_eid_time_zone:000000000000004c .LVL124
C:\Users\stapi\AppData\Local\Temp\ccNAGkjl.s:22966  .debug_str:0000000000000040 .LASF1555
C:\Users\stapi\AppData\Local\Temp\ccNAGkjl.s:1699   .text.hostapd_eid_time_adv:0000000000000000 .LFB177
C:\Users\stapi\AppData\Local\Temp\ccNAGkjl.s:1784   .text.hostapd_eid_time_adv:0000000000000054 .LFE177
C:\Users\stapi\AppData\Local\Temp\ccNAGkjl.s:21863  .debug_loc:000000000000027c .LLST54
C:\Users\stapi\AppData\Local\Temp\ccNAGkjl.s:21885  .debug_loc:00000000000002b3 .LLST55
C:\Users\stapi\AppData\Local\Temp\ccNAGkjl.s:1752   .text.hostapd_eid_time_adv:000000000000003c .LBB98
C:\Users\stapi\AppData\Local\Temp\ccNAGkjl.s:1756   .text.hostapd_eid_time_adv:000000000000003c .LBE98
C:\Users\stapi\AppData\Local\Temp\ccNAGkjl.s:1757   .text.hostapd_eid_time_adv:000000000000003c .LBB100
C:\Users\stapi\AppData\Local\Temp\ccNAGkjl.s:1761   .text.hostapd_eid_time_adv:000000000000003c .LBE100
C:\Users\stapi\AppData\Local\Temp\ccNAGkjl.s:1769   .text.hostapd_eid_time_adv:000000000000004a .LBB102
C:\Users\stapi\AppData\Local\Temp\ccNAGkjl.s:1775   .text.hostapd_eid_time_adv:000000000000004e .LBE102
C:\Users\stapi\AppData\Local\Temp\ccNAGkjl.s:1745   .text.hostapd_eid_time_adv:0000000000000036 .LVL154
C:\Users\stapi\AppData\Local\Temp\ccNAGkjl.s:1767   .text.hostapd_eid_time_adv:000000000000004a .LVL156
C:\Users\stapi\AppData\Local\Temp\ccNAGkjl.s:24000  .debug_str:0000000000001ded .LASF1556
C:\Users\stapi\AppData\Local\Temp\ccNAGkjl.s:25342  .debug_str:00000000000045aa .LASF1557
C:\Users\stapi\AppData\Local\Temp\ccNAGkjl.s:23288  .debug_str:0000000000000983 .LASF1558
C:\Users\stapi\AppData\Local\Temp\ccNAGkjl.s:26134  .debug_str:0000000000005e26 .LASF1559
C:\Users\stapi\AppData\Local\Temp\ccNAGkjl.s:1274   .text.hostapd_eid_qos_map_set:0000000000000000 .LFB173
C:\Users\stapi\AppData\Local\Temp\ccNAGkjl.s:1337   .text.hostapd_eid_qos_map_set:000000000000004a .LFE173
C:\Users\stapi\AppData\Local\Temp\ccNAGkjl.s:21896  .debug_loc:00000000000002d1 .LLST39
C:\Users\stapi\AppData\Local\Temp\ccNAGkjl.s:21914  .debug_loc:00000000000002fd .LLST40
C:\Users\stapi\AppData\Local\Temp\ccNAGkjl.s:21938  .debug_loc:0000000000000336 .LLST41
C:\Users\stapi\AppData\Local\Temp\ccNAGkjl.s:21959  .debug_loc:000000000000036c .LLST42
C:\Users\stapi\AppData\Local\Temp\ccNAGkjl.s:1323   .text.hostapd_eid_qos_map_set:000000000000003e .LVL116
C:\Users\stapi\AppData\Local\Temp\ccNAGkjl.s:23638  .debug_str:0000000000001393 .LASF1560
C:\Users\stapi\AppData\Local\Temp\ccNAGkjl.s:785    .text.hostapd_eid_ext_capab:0000000000000000 .LFB172
C:\Users\stapi\AppData\Local\Temp\ccNAGkjl.s:1267   .text.hostapd_eid_ext_capab:0000000000000236 .LFE172
C:\Users\stapi\AppData\Local\Temp\ccNAGkjl.s:21966  .debug_loc:000000000000037f .LLST30
C:\Users\stapi\AppData\Local\Temp\ccNAGkjl.s:21977  .debug_loc:000000000000039d .LLST31
C:\Users\stapi\AppData\Local\Temp\ccNAGkjl.s:21999  .debug_loc:00000000000003d4 .LLST32
C:\Users\stapi\AppData\Local\Temp\ccNAGkjl.s:22016  .debug_loc:00000000000003ff .LLST33
C:\Users\stapi\AppData\Local\Temp\ccNAGkjl.s:22036  .debug_loc:0000000000000434 .LLST34
C:\Users\stapi\AppData\Local\Temp\ccNAGkjl.s:813    .text.hostapd_eid_ext_capab:0000000000000014 .LBB55
C:\Users\stapi\AppData\Local\Temp\ccNAGkjl.s:22064  .debug_loc:0000000000000478 .LLST35
C:\Users\stapi\AppData\Local\Temp\ccNAGkjl.s:22099  .debug_loc:00000000000004bc .LLST36
C:\Users\stapi\AppData\Local\Temp\ccNAGkjl.s:22110  .debug_loc:00000000000004da .LLST37
C:\Users\stapi\AppData\Local\Temp\ccNAGkjl.s:815    .text.hostapd_eid_ext_capab:0000000000000014 .LBB57
C:\Users\stapi\AppData\Local\Temp\ccNAGkjl.s:22121  .debug_loc:00000000000004f8 .LLST38
C:\Users\stapi\AppData\Local\Temp\ccNAGkjl.s:1208   .text.hostapd_eid_ext_capab:00000000000001f4 .LVL102
C:\Users\stapi\AppData\Local\Temp\ccNAGkjl.s:1178   .text.hostapd_eid_ext_capab:00000000000001ce .LVL100
C:\Users\stapi\AppData\Local\Temp\ccNAGkjl.s:23774  .debug_str:000000000000178e .LASF1566
C:\Users\stapi\AppData\Local\Temp\ccNAGkjl.s:23962  .debug_str:0000000000001cda .LASF1561
C:\Users\stapi\AppData\Local\Temp\ccNAGkjl.s:23044  .debug_str:0000000000000290 .LASF1563
C:\Users\stapi\AppData\Local\Temp\ccNAGkjl.s:381    .text.ieee802_11_sa_query_action:0000000000000000 .LFB170
C:\Users\stapi\AppData\Local\Temp\ccNAGkjl.s:778    .text.ieee802_11_sa_query_action:00000000000002d4 .LFE170
C:\Users\stapi\AppData\Local\Temp\ccNAGkjl.s:22132  .debug_loc:0000000000000516 .LLST15
C:\Users\stapi\AppData\Local\Temp\ccNAGkjl.s:24952  .debug_str:0000000000003b1e .LASF1564
C:\Users\stapi\AppData\Local\Temp\ccNAGkjl.s:22165  .debug_loc:0000000000000566 .LLST16
C:\Users\stapi\AppData\Local\Temp\ccNAGkjl.s:22210  .debug_loc:00000000000005d0 .LLST17
C:\Users\stapi\AppData\Local\Temp\ccNAGkjl.s:22235  .debug_loc:000000000000060a .LLST18
C:\Users\stapi\AppData\Local\Temp\ccNAGkjl.s:22246  .debug_loc:0000000000000628 .LLST19
C:\Users\stapi\AppData\Local\Temp\ccNAGkjl.s:23146  .debug_str:000000000000058c .LASF1565
C:\Users\stapi\AppData\Local\Temp\ccNAGkjl.s:22303  .debug_loc:000000000000069e .LLST20
C:\Users\stapi\AppData\Local\Temp\ccNAGkjl.s:22331  .debug_loc:00000000000006e2 .LLST21
C:\Users\stapi\AppData\Local\Temp\ccNAGkjl.s:423    .text.ieee802_11_sa_query_action:000000000000002a .LBB44
C:\Users\stapi\AppData\Local\Temp\ccNAGkjl.s:518    .text.ieee802_11_sa_query_action:00000000000000ba .LBB48
C:\Users\stapi\AppData\Local\Temp\ccNAGkjl.s:685    .text.ieee802_11_sa_query_action:0000000000000226 .LBE48
C:\Users\stapi\AppData\Local\Temp\ccNAGkjl.s:22386  .debug_loc:0000000000000756 .LLST22
C:\Users\stapi\AppData\Local\Temp\ccNAGkjl.s:22395  .debug_loc:000000000000076b .LLST23
C:\Users\stapi\AppData\Local\Temp\ccNAGkjl.s:22404  .debug_loc:0000000000000780 .LLST24
C:\Users\stapi\AppData\Local\Temp\ccNAGkjl.s:22411  .debug_loc:0000000000000793 .LLST25
C:\Users\stapi\AppData\Local\Temp\ccNAGkjl.s:22422  .debug_loc:00000000000007b1 .LLST26
C:\Users\stapi\AppData\Local\Temp\ccNAGkjl.s:22429  .debug_loc:00000000000007c4 .LLST27
C:\Users\stapi\AppData\Local\Temp\ccNAGkjl.s:22437  .debug_loc:00000000000007d8 .LLST29
C:\Users\stapi\AppData\Local\Temp\ccNAGkjl.s:536    .text.ieee802_11_sa_query_action:00000000000000e4 .LVL54
C:\Users\stapi\AppData\Local\Temp\ccNAGkjl.s:544    .text.ieee802_11_sa_query_action:00000000000000fa .LVL55
C:\Users\stapi\AppData\Local\Temp\ccNAGkjl.s:550    .text.ieee802_11_sa_query_action:0000000000000106 .LVL56
C:\Users\stapi\AppData\Local\Temp\ccNAGkjl.s:572    .text.ieee802_11_sa_query_action:0000000000000138 .LVL58
C:\Users\stapi\AppData\Local\Temp\ccNAGkjl.s:582    .text.ieee802_11_sa_query_action:0000000000000146 .LVL61
C:\Users\stapi\AppData\Local\Temp\ccNAGkjl.s:593    .text.ieee802_11_sa_query_action:000000000000015c .LVL63
C:\Users\stapi\AppData\Local\Temp\ccNAGkjl.s:599    .text.ieee802_11_sa_query_action:0000000000000166 .LVL64
C:\Users\stapi\AppData\Local\Temp\ccNAGkjl.s:613    .text.ieee802_11_sa_query_action:0000000000000192 .LVL65
C:\Users\stapi\AppData\Local\Temp\ccNAGkjl.s:626    .text.ieee802_11_sa_query_action:00000000000001ae .LVL66
C:\Users\stapi\AppData\Local\Temp\ccNAGkjl.s:635    .text.ieee802_11_sa_query_action:00000000000001c2 .LVL67
C:\Users\stapi\AppData\Local\Temp\ccNAGkjl.s:641    .text.ieee802_11_sa_query_action:00000000000001d2 .LVL68
C:\Users\stapi\AppData\Local\Temp\ccNAGkjl.s:655    .text.ieee802_11_sa_query_action:00000000000001ee .LVL69
C:\Users\stapi\AppData\Local\Temp\ccNAGkjl.s:667    .text.ieee802_11_sa_query_action:0000000000000204 .LVL70
C:\Users\stapi\AppData\Local\Temp\ccNAGkjl.s:675    .text.ieee802_11_sa_query_action:000000000000021a .LVL71
C:\Users\stapi\AppData\Local\Temp\ccNAGkjl.s:680    .text.ieee802_11_sa_query_action:0000000000000224 .LVL72
C:\Users\stapi\AppData\Local\Temp\ccNAGkjl.s:418    .text.ieee802_11_sa_query_action:0000000000000028 .LVL42
C:\Users\stapi\AppData\Local\Temp\ccNAGkjl.s:466    .text.ieee802_11_sa_query_action:0000000000000080 .LVL49
C:\Users\stapi\AppData\Local\Temp\ccNAGkjl.s:498    .text.ieee802_11_sa_query_action:00000000000000a4 .LVL51
C:\Users\stapi\AppData\Local\Temp\ccNAGkjl.s:706    .text.ieee802_11_sa_query_action:0000000000000260 .LVL74
C:\Users\stapi\AppData\Local\Temp\ccNAGkjl.s:714    .text.ieee802_11_sa_query_action:0000000000000276 .LVL75
C:\Users\stapi\AppData\Local\Temp\ccNAGkjl.s:733    .text.ieee802_11_sa_query_action:0000000000000292 .LVL77
C:\Users\stapi\AppData\Local\Temp\ccNAGkjl.s:746    .text.ieee802_11_sa_query_action:00000000000002a8 .LVL79
C:\Users\stapi\AppData\Local\Temp\ccNAGkjl.s:775    .text.ieee802_11_sa_query_action:00000000000002d2 .LVL81
C:\Users\stapi\AppData\Local\Temp\ccNAGkjl.s:25084  .debug_str:0000000000003eb1 .LASF1567
C:\Users\stapi\AppData\Local\Temp\ccNAGkjl.s:23466  .debug_str:0000000000000eb9 .LASF1568
C:\Users\stapi\AppData\Local\Temp\ccNAGkjl.s:24688  .debug_str:0000000000003206 .LASF1569
C:\Users\stapi\AppData\Local\Temp\ccNAGkjl.s:26008  .debug_str:0000000000005a63 .LASF1570
C:\Users\stapi\AppData\Local\Temp\ccNAGkjl.s:23316  .debug_str:0000000000000a42 .LASF1571
C:\Users\stapi\AppData\Local\Temp\ccNAGkjl.s:186    .text.ieee802_11_send_sa_query_req:0000000000000000 .LFB168
C:\Users\stapi\AppData\Local\Temp\ccNAGkjl.s:343    .text.ieee802_11_send_sa_query_req:0000000000000116 .LFE168
C:\Users\stapi\AppData\Local\Temp\ccNAGkjl.s:22446  .debug_loc:00000000000007ed .LLST11
C:\Users\stapi\AppData\Local\Temp\ccNAGkjl.s:22457  .debug_loc:000000000000080b .LLST12
C:\Users\stapi\AppData\Local\Temp\ccNAGkjl.s:22468  .debug_loc:0000000000000829 .LLST13
C:\Users\stapi\AppData\Local\Temp\ccNAGkjl.s:22479  .debug_loc:0000000000000847 .LLST14
C:\Users\stapi\AppData\Local\Temp\ccNAGkjl.s:229    .text.ieee802_11_send_sa_query_req:000000000000003a .LVL23
C:\Users\stapi\AppData\Local\Temp\ccNAGkjl.s:237    .text.ieee802_11_send_sa_query_req:0000000000000050 .LVL24
C:\Users\stapi\AppData\Local\Temp\ccNAGkjl.s:242    .text.ieee802_11_send_sa_query_req:000000000000005c .LVL25
C:\Users\stapi\AppData\Local\Temp\ccNAGkjl.s:252    .text.ieee802_11_send_sa_query_req:0000000000000070 .LVL27
C:\Users\stapi\AppData\Local\Temp\ccNAGkjl.s:258    .text.ieee802_11_send_sa_query_req:000000000000007a .LVL28
C:\Users\stapi\AppData\Local\Temp\ccNAGkjl.s:286    .text.ieee802_11_send_sa_query_req:00000000000000a0 .LVL31
C:\Users\stapi\AppData\Local\Temp\ccNAGkjl.s:295    .text.ieee802_11_send_sa_query_req:00000000000000b4 .LVL32
C:\Users\stapi\AppData\Local\Temp\ccNAGkjl.s:301    .text.ieee802_11_send_sa_query_req:00000000000000c4 .LVL33
C:\Users\stapi\AppData\Local\Temp\ccNAGkjl.s:315    .text.ieee802_11_send_sa_query_req:00000000000000de .LVL34
C:\Users\stapi\AppData\Local\Temp\ccNAGkjl.s:327    .text.ieee802_11_send_sa_query_req:00000000000000f4 .LVL35
C:\Users\stapi\AppData\Local\Temp\ccNAGkjl.s:335    .text.ieee802_11_send_sa_query_req:000000000000010a .LVL36
C:\Users\stapi\AppData\Local\Temp\ccNAGkjl.s:340    .text.ieee802_11_send_sa_query_req:0000000000000114 .LVL37
C:\Users\stapi\AppData\Local\Temp\ccNAGkjl.s:25524  .debug_str:0000000000004b00 .LASF1572
C:\Users\stapi\AppData\Local\Temp\ccNAGkjl.s:14     .text.hostapd_eid_assoc_comeback_time:0000000000000000 .LFB167
C:\Users\stapi\AppData\Local\Temp\ccNAGkjl.s:166    .text.hostapd_eid_assoc_comeback_time:00000000000000a4 .LFE167
C:\Users\stapi\AppData\Local\Temp\ccNAGkjl.s:22494  .debug_loc:0000000000000870 .LLST0
C:\Users\stapi\AppData\Local\Temp\ccNAGkjl.s:22505  .debug_loc:000000000000088e .LLST1
C:\Users\stapi\AppData\Local\Temp\ccNAGkjl.s:22516  .debug_loc:00000000000008ac .LLST2
C:\Users\stapi\AppData\Local\Temp\ccNAGkjl.s:22527  .debug_loc:00000000000008ca .LLST3
C:\Users\stapi\AppData\Local\Temp\ccNAGkjl.s:23414  .debug_str:0000000000000d59 .LASF1573
C:\Users\stapi\AppData\Local\Temp\ccNAGkjl.s:22564  .debug_loc:000000000000091e .LLST4
C:\Users\stapi\AppData\Local\Temp\ccNAGkjl.s:25076  .debug_str:0000000000003e8a .LASF1574
C:\Users\stapi\AppData\Local\Temp\ccNAGkjl.s:22571  .debug_loc:0000000000000931 .LLST5
C:\Users\stapi\AppData\Local\Temp\ccNAGkjl.s:60     .text.hostapd_eid_assoc_comeback_time:000000000000002e .LBB36
C:\Users\stapi\AppData\Local\Temp\ccNAGkjl.s:93     .text.hostapd_eid_assoc_comeback_time:000000000000004e .LBE36
C:\Users\stapi\AppData\Local\Temp\ccNAGkjl.s:22617  .debug_loc:0000000000000987 .LLST6
C:\Users\stapi\AppData\Local\Temp\ccNAGkjl.s:22626  .debug_loc:000000000000099f .LLST7
C:\Users\stapi\AppData\Local\Temp\ccNAGkjl.s:22635  .debug_loc:00000000000009b5 .LLST8
C:\Users\stapi\AppData\Local\Temp\ccNAGkjl.s:127    .text.hostapd_eid_assoc_comeback_time:000000000000007a .LBB38
C:\Users\stapi\AppData\Local\Temp\ccNAGkjl.s:151    .text.hostapd_eid_assoc_comeback_time:0000000000000096 .LBE38
C:\Users\stapi\AppData\Local\Temp\ccNAGkjl.s:22644  .debug_loc:00000000000009ca .LLST9
C:\Users\stapi\AppData\Local\Temp\ccNAGkjl.s:22651  .debug_loc:00000000000009dd .LLST10
C:\Users\stapi\AppData\Local\Temp\ccNAGkjl.s:58     .text.hostapd_eid_assoc_comeback_time:000000000000002e .LVL5
C:\Users\stapi\AppData\Local\Temp\ccNAGkjl.s:25126  .debug_str:0000000000003fcc .LASF1575
C:\Users\stapi\AppData\Local\Temp\ccNAGkjl.s:24550  .debug_str:0000000000002de8 .LASF1576
C:\Users\stapi\AppData\Local\Temp\ccNAGkjl.s:23868  .debug_str:0000000000001a28 .LASF1577
C:\Users\stapi\AppData\Local\Temp\ccNAGkjl.s:23606  .debug_str:00000000000012a4 .LASF1578
C:\Users\stapi\AppData\Local\Temp\ccNAGkjl.s:26154  .debug_str:0000000000005eca .LASF1579
C:\Users\stapi\AppData\Local\Temp\ccNAGkjl.s:24868  .debug_str:000000000000388e .LASF1580
C:\Users\stapi\AppData\Local\Temp\ccNAGkjl.s:22974  .debug_str:000000000000007f .LASF1581
C:\Users\stapi\AppData\Local\Temp\ccNAGkjl.s:26136  .debug_str:0000000000005e3e .LASF1582
C:\Users\stapi\AppData\Local\Temp\ccNAGkjl.s:24278  .debug_str:0000000000002606 .LASF1583
C:\Users\stapi\AppData\Local\Temp\ccNAGkjl.s:1344   .text.hostapd_eid_interworking:0000000000000000 .LFB174
C:\Users\stapi\AppData\Local\Temp\ccNAGkjl.s:1355   .text.hostapd_eid_interworking:0000000000000004 .LFE174
C:\Users\stapi\AppData\Local\Temp\ccNAGkjl.s:22660  .debug_loc:00000000000009f2 .LLST43
C:\Users\stapi\AppData\Local\Temp\ccNAGkjl.s:1463   .text.hostapd_update_time_adv:0000000000000000 .LFB179
C:\Users\stapi\AppData\Local\Temp\ccNAGkjl.s:1692   .text.hostapd_update_time_adv:00000000000000e0 .LFE179
C:\Users\stapi\AppData\Local\Temp\ccNAGkjl.s:22674  .debug_loc:0000000000000a13 .LLST47
C:\Users\stapi\AppData\Local\Temp\ccNAGkjl.s:1487   .text.hostapd_update_time_adv:0000000000000018 .LBB81
C:\Users\stapi\AppData\Local\Temp\ccNAGkjl.s:22696  .debug_loc:0000000000000a4a .LLST48
C:\Users\stapi\AppData\Local\Temp\ccNAGkjl.s:22715  .debug_loc:0000000000000a7e .LLST49
C:\Users\stapi\AppData\Local\Temp\ccNAGkjl.s:1563   .text.hostapd_update_time_adv:0000000000000078 .LBB83
C:\Users\stapi\AppData\Local\Temp\ccNAGkjl.s:1576   .text.hostapd_update_time_adv:0000000000000086 .LBE83
C:\Users\stapi\AppData\Local\Temp\ccNAGkjl.s:22782  .debug_loc:0000000000000b13 .LLST50
C:\Users\stapi\AppData\Local\Temp\ccNAGkjl.s:22789  .debug_loc:0000000000000b26 .LLST51
C:\Users\stapi\AppData\Local\Temp\ccNAGkjl.s:1603   .text.hostapd_update_time_adv:00000000000000a8 .LBB85
C:\Users\stapi\AppData\Local\Temp\ccNAGkjl.s:1668   .text.hostapd_update_time_adv:00000000000000d8 .LBB91
C:\Users\stapi\AppData\Local\Temp\ccNAGkjl.s:1683   .text.hostapd_update_time_adv:00000000000000dc .LBE91
C:\Users\stapi\AppData\Local\Temp\ccNAGkjl.s:22798  .debug_loc:0000000000000b3b .LLST52
C:\Users\stapi\AppData\Local\Temp\ccNAGkjl.s:1669   .text.hostapd_update_time_adv:00000000000000d8 .LBB92
C:\Users\stapi\AppData\Local\Temp\ccNAGkjl.s:1682   .text.hostapd_update_time_adv:00000000000000dc .LBE92
C:\Users\stapi\AppData\Local\Temp\ccNAGkjl.s:1494   .text.hostapd_update_time_adv:0000000000000022 .LVL129
C:\Users\stapi\AppData\Local\Temp\ccNAGkjl.s:1521   .text.hostapd_update_time_adv:000000000000003e .LVL132
C:\Users\stapi\AppData\Local\Temp\ccNAGkjl.s:1533   .text.hostapd_update_time_adv:0000000000000052 .LVL133
C:\Users\stapi\AppData\Local\Temp\ccNAGkjl.s:1543   .text.hostapd_update_time_adv:0000000000000062 .LVL134
C:\Users\stapi\AppData\Local\Temp\ccNAGkjl.s:1803   .text.hostapd_eid_owe_trans_len:0000000000000000 .LFB181
C:\Users\stapi\AppData\Local\Temp\ccNAGkjl.s:1813   .text.hostapd_eid_owe_trans_len:0000000000000004 .LFE181
C:\Users\stapi\AppData\Local\Temp\ccNAGkjl.s:22805  .debug_loc:0000000000000b4e .LLST56
C:\Users\stapi\AppData\Local\Temp\ccNAGkjl.s:1820   .text.hostapd_eid_owe_trans:0000000000000000 .LFB182
C:\Users\stapi\AppData\Local\Temp\ccNAGkjl.s:1830   .text.hostapd_eid_owe_trans:0000000000000004 .LFE182
C:\Users\stapi\AppData\Local\Temp\ccNAGkjl.s:22819  .debug_loc:0000000000000b6f .LLST57
C:\Users\stapi\AppData\Local\Temp\ccNAGkjl.s:23938  .debug_str:0000000000001c2b .LASF1584
C:\Users\stapi\AppData\Local\Temp\ccNAGkjl.s:24774  .debug_str:00000000000034a4 .LASF1585
C:\Users\stapi\AppData\Local\Temp\ccNAGkjl.s:23642  .debug_str:00000000000013bb .LASF1586
C:\Users\stapi\AppData\Local\Temp\ccNAGkjl.s:24986  .debug_str:0000000000003c12 .LASF1587
C:\Users\stapi\AppData\Local\Temp\ccNAGkjl.s:23726  .debug_str:0000000000001636 .LASF1588
C:\Users\stapi\AppData\Local\Temp\ccNAGkjl.s:25662  .debug_str:0000000000004f22 .LASF1589
C:\Users\stapi\AppData\Local\Temp\ccNAGkjl.s:26058  .debug_str:0000000000005be0 .LASF1590
C:\Users\stapi\AppData\Local\Temp\ccNAGkjl.s:23810  .debug_str:000000000000189b .LASF1591
C:\Users\stapi\AppData\Local\Temp\ccNAGkjl.s:25488  .debug_str:00000000000049fd .LASF1592
C:\Users\stapi\AppData\Local\Temp\ccNAGkjl.s:23826  .debug_str:0000000000001904 .LASF1593
C:\Users\stapi\AppData\Local\Temp\ccNAGkjl.s:24936  .debug_str:0000000000003aa1 .LASF1594
C:\Users\stapi\AppData\Local\Temp\ccNAGkjl.s:24884  .debug_str:0000000000003915 .LASF1595
C:\Users\stapi\AppData\Local\Temp\ccNAGkjl.s:25842  .debug_str:000000000000549b .LASF1596
C:\Users\stapi\AppData\Local\Temp\ccNAGkjl.s:25780  .debug_str:00000000000052b3 .LASF1597
C:\Users\stapi\AppData\Local\Temp\ccNAGkjl.s:23056  .debug_str:0000000000000307 .LASF1598
C:\Users\stapi\AppData\Local\Temp\ccNAGkjl.s:23840  .debug_str:000000000000196f .LASF1599
C:\Users\stapi\AppData\Local\Temp\ccNAGkjl.s:23806  .debug_str:0000000000001884 .LASF1600
C:\Users\stapi\AppData\Local\Temp\ccNAGkjl.s:23802  .debug_str:0000000000001872 .LASF1601
C:\Users\stapi\AppData\Local\Temp\ccNAGkjl.s:1947   .text.hostapd_eid_rsnxe:0000000000000000 .LVL170
C:\Users\stapi\AppData\Local\Temp\ccNAGkjl.s:1959   .text.hostapd_eid_rsnxe:000000000000000c .LVL171
C:\Users\stapi\AppData\Local\Temp\ccNAGkjl.s:1972   .text.hostapd_eid_rsnxe:0000000000000016 .LVL173
C:\Users\stapi\AppData\Local\Temp\ccNAGkjl.s:1986   .text.hostapd_eid_rsnxe:0000000000000020 .LVL175
C:\Users\stapi\AppData\Local\Temp\ccNAGkjl.s:2008   .text.hostapd_eid_rsnxe:0000000000000030 .LVL177
C:\Users\stapi\AppData\Local\Temp\ccNAGkjl.s:2102   .text.hostapd_eid_rsnxe:0000000000000090 .LVL191
C:\Users\stapi\AppData\Local\Temp\ccNAGkjl.s:2112   .text.hostapd_eid_rsnxe:000000000000009c .LVL192
C:\Users\stapi\AppData\Local\Temp\ccNAGkjl.s:2124   .text.hostapd_eid_rsnxe:00000000000000ae .LVL193
C:\Users\stapi\AppData\Local\Temp\ccNAGkjl.s:1962   .text.hostapd_eid_rsnxe:000000000000000e .LVL172
C:\Users\stapi\AppData\Local\Temp\ccNAGkjl.s:1976   .text.hostapd_eid_rsnxe:0000000000000018 .LVL174
C:\Users\stapi\AppData\Local\Temp\ccNAGkjl.s:2072   .text.hostapd_eid_rsnxe:0000000000000072 .LVL184
C:\Users\stapi\AppData\Local\Temp\ccNAGkjl.s:2077   .text.hostapd_eid_rsnxe:0000000000000076 .LVL185
C:\Users\stapi\AppData\Local\Temp\ccNAGkjl.s:2083   .text.hostapd_eid_rsnxe:000000000000007e .LVL186
C:\Users\stapi\AppData\Local\Temp\ccNAGkjl.s:2091   .text.hostapd_eid_rsnxe:0000000000000084 .LVL188
C:\Users\stapi\AppData\Local\Temp\ccNAGkjl.s:2100   .text.hostapd_eid_rsnxe:000000000000008e .LVL190
C:\Users\stapi\AppData\Local\Temp\ccNAGkjl.s:2013   .text.hostapd_eid_rsnxe:0000000000000032 .LVL178
C:\Users\stapi\AppData\Local\Temp\ccNAGkjl.s:2067   .text.hostapd_eid_rsnxe:000000000000006c .LVL183
C:\Users\stapi\AppData\Local\Temp\ccNAGkjl.s:2132   .text.hostapd_eid_rsnxe:00000000000000ba .LVL195
C:\Users\stapi\AppData\Local\Temp\ccNAGkjl.s:2050   .text.hostapd_eid_rsnxe:0000000000000056 .LVL182
C:\Users\stapi\AppData\Local\Temp\ccNAGkjl.s:1929   .text.hostapd_eid_fils_indic:0000000000000000 .LVL168
C:\Users\stapi\AppData\Local\Temp\ccNAGkjl.s:1934   .text.hostapd_eid_fils_indic:0000000000000002 .LVL169
C:\Users\stapi\AppData\Local\Temp\ccNAGkjl.s:1864   .text.ap_copy_sta_supp_op_classes:0000000000000000 .LVL162
C:\Users\stapi\AppData\Local\Temp\ccNAGkjl.s:1881   .text.ap_copy_sta_supp_op_classes:0000000000000014 .LVL163
C:\Users\stapi\AppData\Local\Temp\ccNAGkjl.s:1912   .text.ap_copy_sta_supp_op_classes:0000000000000048 .LVL167
C:\Users\stapi\AppData\Local\Temp\ccNAGkjl.s:1389   .text.hostapd_eid_time_zone:0000000000000000 .LVL120
C:\Users\stapi\AppData\Local\Temp\ccNAGkjl.s:1412   .text.hostapd_eid_time_zone:000000000000001c .LVL121
C:\Users\stapi\AppData\Local\Temp\ccNAGkjl.s:1443   .text.hostapd_eid_time_zone:0000000000000050 .LVL125
C:\Users\stapi\AppData\Local\Temp\ccNAGkjl.s:1431   .text.hostapd_eid_time_zone:000000000000003c .LVL123
C:\Users\stapi\AppData\Local\Temp\ccNAGkjl.s:1702   .text.hostapd_eid_time_adv:0000000000000000 .LVL150
C:\Users\stapi\AppData\Local\Temp\ccNAGkjl.s:1723   .text.hostapd_eid_time_adv:000000000000001e .LVL151
C:\Users\stapi\AppData\Local\Temp\ccNAGkjl.s:1730   .text.hostapd_eid_time_adv:0000000000000024 .LVL152
C:\Users\stapi\AppData\Local\Temp\ccNAGkjl.s:1740   .text.hostapd_eid_time_adv:000000000000002e .LVL153
C:\Users\stapi\AppData\Local\Temp\ccNAGkjl.s:1277   .text.hostapd_eid_qos_map_set:0000000000000000 .LVL108
C:\Users\stapi\AppData\Local\Temp\ccNAGkjl.s:1292   .text.hostapd_eid_qos_map_set:000000000000000e .LVL110
C:\Users\stapi\AppData\Local\Temp\ccNAGkjl.s:1315   .text.hostapd_eid_qos_map_set:000000000000002a .LVL114
C:\Users\stapi\AppData\Local\Temp\ccNAGkjl.s:1321   .text.hostapd_eid_qos_map_set:0000000000000036 .LVL115
C:\Users\stapi\AppData\Local\Temp\ccNAGkjl.s:1327   .text.hostapd_eid_qos_map_set:0000000000000042 .LVL117
C:\Users\stapi\AppData\Local\Temp\ccNAGkjl.s:1284   .text.hostapd_eid_qos_map_set:0000000000000008 .LVL109
C:\Users\stapi\AppData\Local\Temp\ccNAGkjl.s:1302   .text.hostapd_eid_qos_map_set:0000000000000018 .LVL112
C:\Users\stapi\AppData\Local\Temp\ccNAGkjl.s:1311   .text.hostapd_eid_qos_map_set:0000000000000028 .LVL113
C:\Users\stapi\AppData\Local\Temp\ccNAGkjl.s:1297   .text.hostapd_eid_qos_map_set:0000000000000016 .LVL111
C:\Users\stapi\AppData\Local\Temp\ccNAGkjl.s:788    .text.hostapd_eid_ext_capab:0000000000000000 .LVL82
C:\Users\stapi\AppData\Local\Temp\ccNAGkjl.s:862    .text.hostapd_eid_ext_capab:0000000000000044 .LVL87
C:\Users\stapi\AppData\Local\Temp\ccNAGkjl.s:887    .text.hostapd_eid_ext_capab:0000000000000066 .LVL90
C:\Users\stapi\AppData\Local\Temp\ccNAGkjl.s:907    .text.hostapd_eid_ext_capab:0000000000000070 .LVL91
C:\Users\stapi\AppData\Local\Temp\ccNAGkjl.s:805    .text.hostapd_eid_ext_capab:0000000000000008 .LVL83
C:\Users\stapi\AppData\Local\Temp\ccNAGkjl.s:830    .text.hostapd_eid_ext_capab:0000000000000024 .LVL84
C:\Users\stapi\AppData\Local\Temp\ccNAGkjl.s:839    .text.hostapd_eid_ext_capab:000000000000002e .LVL85
C:\Users\stapi\AppData\Local\Temp\ccNAGkjl.s:885    .text.hostapd_eid_ext_capab:0000000000000064 .LVL89
C:\Users\stapi\AppData\Local\Temp\ccNAGkjl.s:1259   .text.hostapd_eid_ext_capab:000000000000022c .LVL106
C:\Users\stapi\AppData\Local\Temp\ccNAGkjl.s:1261   .text.hostapd_eid_ext_capab:0000000000000230 .LVL107
C:\Users\stapi\AppData\Local\Temp\ccNAGkjl.s:843    .text.hostapd_eid_ext_capab:0000000000000032 .LVL86
C:\Users\stapi\AppData\Local\Temp\ccNAGkjl.s:865    .text.hostapd_eid_ext_capab:0000000000000048 .LVL88
C:\Users\stapi\AppData\Local\Temp\ccNAGkjl.s:1140   .text.hostapd_eid_ext_capab:000000000000019a .LVL96
C:\Users\stapi\AppData\Local\Temp\ccNAGkjl.s:1145   .text.hostapd_eid_ext_capab:000000000000019e .LVL98
C:\Users\stapi\AppData\Local\Temp\ccNAGkjl.s:1147   .text.hostapd_eid_ext_capab:00000000000001a0 .LVL99
C:\Users\stapi\AppData\Local\Temp\ccNAGkjl.s:939    .text.hostapd_eid_ext_capab:0000000000000082 .LVL92
C:\Users\stapi\AppData\Local\Temp\ccNAGkjl.s:961    .text.hostapd_eid_ext_capab:00000000000000a0 .LVL93
C:\Users\stapi\AppData\Local\Temp\ccNAGkjl.s:966    .text.hostapd_eid_ext_capab:00000000000000a6 .LVL94
C:\Users\stapi\AppData\Local\Temp\ccNAGkjl.s:1083   .text.hostapd_eid_ext_capab:0000000000000140 .LVL95
C:\Users\stapi\AppData\Local\Temp\ccNAGkjl.s:1251   .text.hostapd_eid_ext_capab:000000000000022a .LVL105
C:\Users\stapi\AppData\Local\Temp\ccNAGkjl.s:1223   .text.hostapd_eid_ext_capab:0000000000000206 .LVL103
C:\Users\stapi\AppData\Local\Temp\ccNAGkjl.s:1244   .text.hostapd_eid_ext_capab:0000000000000224 .LVL104
C:\Users\stapi\AppData\Local\Temp\ccNAGkjl.s:384    .text.ieee802_11_sa_query_action:0000000000000000 .LVL38
C:\Users\stapi\AppData\Local\Temp\ccNAGkjl.s:413    .text.ieee802_11_sa_query_action:000000000000001e .LVL41
C:\Users\stapi\AppData\Local\Temp\ccNAGkjl.s:421    .text.ieee802_11_sa_query_action:000000000000002a .LVL43
C:\Users\stapi\AppData\Local\Temp\ccNAGkjl.s:445    .text.ieee802_11_sa_query_action:000000000000003c .LVL47
C:\Users\stapi\AppData\Local\Temp\ccNAGkjl.s:481    .text.ieee802_11_sa_query_action:000000000000008a .LVL50
C:\Users\stapi\AppData\Local\Temp\ccNAGkjl.s:411    .text.ieee802_11_sa_query_action:000000000000001a .LVL40
C:\Users\stapi\AppData\Local\Temp\ccNAGkjl.s:441    .text.ieee802_11_sa_query_action:0000000000000036 .LVL46
C:\Users\stapi\AppData\Local\Temp\ccNAGkjl.s:722    .text.ieee802_11_sa_query_action:000000000000027e .LVL76
C:\Users\stapi\AppData\Local\Temp\ccNAGkjl.s:427    .text.ieee802_11_sa_query_action:000000000000002e .LVL44
C:\Users\stapi\AppData\Local\Temp\ccNAGkjl.s:503    .text.ieee802_11_sa_query_action:00000000000000a8 .LVL52
C:\Users\stapi\AppData\Local\Temp\ccNAGkjl.s:584    .text.ieee802_11_sa_query_action:0000000000000148 .LVL62
C:\Users\stapi\AppData\Local\Temp\ccNAGkjl.s:682    .text.ieee802_11_sa_query_action:0000000000000226 .LVL73
C:\Users\stapi\AppData\Local\Temp\ccNAGkjl.s:396    .text.ieee802_11_sa_query_action:0000000000000008 .LVL39
C:\Users\stapi\AppData\Local\Temp\ccNAGkjl.s:447    .text.ieee802_11_sa_query_action:000000000000003e .LVL48
C:\Users\stapi\AppData\Local\Temp\ccNAGkjl.s:517    .text.ieee802_11_sa_query_action:00000000000000ba .LVL53
C:\Users\stapi\AppData\Local\Temp\ccNAGkjl.s:570    .text.ieee802_11_sa_query_action:0000000000000130 .LVL57
C:\Users\stapi\AppData\Local\Temp\ccNAGkjl.s:575    .text.ieee802_11_sa_query_action:000000000000013a .LVL59
C:\Users\stapi\AppData\Local\Temp\ccNAGkjl.s:580    .text.ieee802_11_sa_query_action:000000000000013e .LVL60
C:\Users\stapi\AppData\Local\Temp\ccNAGkjl.s:189    .text.ieee802_11_send_sa_query_req:0000000000000000 .LVL18
C:\Users\stapi\AppData\Local\Temp\ccNAGkjl.s:227    .text.ieee802_11_send_sa_query_req:0000000000000032 .LVL22
C:\Users\stapi\AppData\Local\Temp\ccNAGkjl.s:217    .text.ieee802_11_send_sa_query_req:0000000000000028 .LVL21
C:\Users\stapi\AppData\Local\Temp\ccNAGkjl.s:212    .text.ieee802_11_send_sa_query_req:0000000000000022 .LVL20
C:\Users\stapi\AppData\Local\Temp\ccNAGkjl.s:250    .text.ieee802_11_send_sa_query_req:0000000000000068 .LVL26
C:\Users\stapi\AppData\Local\Temp\ccNAGkjl.s:270    .text.ieee802_11_send_sa_query_req:0000000000000084 .LVL29
C:\Users\stapi\AppData\Local\Temp\ccNAGkjl.s:284    .text.ieee802_11_send_sa_query_req:0000000000000098 .LVL30
C:\Users\stapi\AppData\Local\Temp\ccNAGkjl.s:18     .text.hostapd_eid_assoc_comeback_time:0000000000000000 .LVL0
C:\Users\stapi\AppData\Local\Temp\ccNAGkjl.s:52     .text.hostapd_eid_assoc_comeback_time:0000000000000022 .LVL4
C:\Users\stapi\AppData\Local\Temp\ccNAGkjl.s:26     .text.hostapd_eid_assoc_comeback_time:0000000000000008 .LVL1
C:\Users\stapi\AppData\Local\Temp\ccNAGkjl.s:34     .text.hostapd_eid_assoc_comeback_time:0000000000000010 .LVL2
C:\Users\stapi\AppData\Local\Temp\ccNAGkjl.s:43     .text.hostapd_eid_assoc_comeback_time:0000000000000018 .LVL3
C:\Users\stapi\AppData\Local\Temp\ccNAGkjl.s:149    .text.hostapd_eid_assoc_comeback_time:0000000000000096 .LVL16
C:\Users\stapi\AppData\Local\Temp\ccNAGkjl.s:156    .text.hostapd_eid_assoc_comeback_time:000000000000009a .LVL17
C:\Users\stapi\AppData\Local\Temp\ccNAGkjl.s:104    .text.hostapd_eid_assoc_comeback_time:0000000000000062 .LVL12
C:\Users\stapi\AppData\Local\Temp\ccNAGkjl.s:133    .text.hostapd_eid_assoc_comeback_time:000000000000007e .LVL15
C:\Users\stapi\AppData\Local\Temp\ccNAGkjl.s:71     .text.hostapd_eid_assoc_comeback_time:000000000000003a .LVL6
C:\Users\stapi\AppData\Local\Temp\ccNAGkjl.s:76     .text.hostapd_eid_assoc_comeback_time:000000000000003e .LVL7
C:\Users\stapi\AppData\Local\Temp\ccNAGkjl.s:86     .text.hostapd_eid_assoc_comeback_time:000000000000004c .LVL8
C:\Users\stapi\AppData\Local\Temp\ccNAGkjl.s:90     .text.hostapd_eid_assoc_comeback_time:000000000000004e .LVL9
C:\Users\stapi\AppData\Local\Temp\ccNAGkjl.s:99     .text.hostapd_eid_assoc_comeback_time:000000000000005a .LVL10
C:\Users\stapi\AppData\Local\Temp\ccNAGkjl.s:102    .text.hostapd_eid_assoc_comeback_time:000000000000005e .LVL11
C:\Users\stapi\AppData\Local\Temp\ccNAGkjl.s:2167   .debug_info:0000000000000000 .Ldebug_info0
C:\Users\stapi\AppData\Local\Temp\ccNAGkjl.s:124    .text.hostapd_eid_assoc_comeback_time:000000000000007a .LVL14
C:\Users\stapi\AppData\Local\Temp\ccNAGkjl.s:1347   .text.hostapd_eid_interworking:0000000000000000 .LVL118
C:\Users\stapi\AppData\Local\Temp\ccNAGkjl.s:1352   .text.hostapd_eid_interworking:0000000000000002 .LVL119
C:\Users\stapi\AppData\Local\Temp\ccNAGkjl.s:1466   .text.hostapd_update_time_adv:0000000000000000 .LVL126
C:\Users\stapi\AppData\Local\Temp\ccNAGkjl.s:1492   .text.hostapd_update_time_adv:000000000000001a .LVL128
C:\Users\stapi\AppData\Local\Temp\ccNAGkjl.s:1676   .text.hostapd_update_time_adv:00000000000000dc .LVL148
C:\Users\stapi\AppData\Local\Temp\ccNAGkjl.s:1688   .text.hostapd_update_time_adv:00000000000000de .LVL149
C:\Users\stapi\AppData\Local\Temp\ccNAGkjl.s:1486   .text.hostapd_update_time_adv:0000000000000018 .LVL127
C:\Users\stapi\AppData\Local\Temp\ccNAGkjl.s:1500   .text.hostapd_update_time_adv:0000000000000028 .LVL130
C:\Users\stapi\AppData\Local\Temp\ccNAGkjl.s:1512   .text.hostapd_update_time_adv:0000000000000032 .LVL131
C:\Users\stapi\AppData\Local\Temp\ccNAGkjl.s:1657   .text.hostapd_update_time_adv:00000000000000d6 .LVL145
C:\Users\stapi\AppData\Local\Temp\ccNAGkjl.s:1659   .text.hostapd_update_time_adv:00000000000000d8 .LVL146
C:\Users\stapi\AppData\Local\Temp\ccNAGkjl.s:1550   .text.hostapd_update_time_adv:000000000000006a .LVL135
C:\Users\stapi\AppData\Local\Temp\ccNAGkjl.s:1555   .text.hostapd_update_time_adv:0000000000000070 .LVL136
C:\Users\stapi\AppData\Local\Temp\ccNAGkjl.s:1574   .text.hostapd_update_time_adv:0000000000000086 .LVL138
C:\Users\stapi\AppData\Local\Temp\ccNAGkjl.s:1588   .text.hostapd_update_time_adv:0000000000000094 .LVL139
C:\Users\stapi\AppData\Local\Temp\ccNAGkjl.s:1598   .text.hostapd_update_time_adv:00000000000000a2 .LVL140
C:\Users\stapi\AppData\Local\Temp\ccNAGkjl.s:1612   .text.hostapd_update_time_adv:00000000000000b0 .LVL141
C:\Users\stapi\AppData\Local\Temp\ccNAGkjl.s:1626   .text.hostapd_update_time_adv:00000000000000be .LVL142
C:\Users\stapi\AppData\Local\Temp\ccNAGkjl.s:1631   .text.hostapd_update_time_adv:00000000000000c4 .LVL143
C:\Users\stapi\AppData\Local\Temp\ccNAGkjl.s:1651   .text.hostapd_update_time_adv:00000000000000d0 .LVL144
C:\Users\stapi\AppData\Local\Temp\ccNAGkjl.s:1674   .text.hostapd_update_time_adv:00000000000000da .LVL147
C:\Users\stapi\AppData\Local\Temp\ccNAGkjl.s:1562   .text.hostapd_update_time_adv:0000000000000078 .LVL137
C:\Users\stapi\AppData\Local\Temp\ccNAGkjl.s:1806   .text.hostapd_eid_owe_trans_len:0000000000000000 .LVL158
C:\Users\stapi\AppData\Local\Temp\ccNAGkjl.s:1810   .text.hostapd_eid_owe_trans_len:0000000000000002 .LVL159
C:\Users\stapi\AppData\Local\Temp\ccNAGkjl.s:1823   .text.hostapd_eid_owe_trans:0000000000000000 .LVL160
C:\Users\stapi\AppData\Local\Temp\ccNAGkjl.s:1827   .text.hostapd_eid_owe_trans:0000000000000002 .LVL161
C:\Users\stapi\AppData\Local\Temp\ccNAGkjl.s:430    .text.ieee802_11_sa_query_action:0000000000000030 .LBE44
C:\Users\stapi\AppData\Local\Temp\ccNAGkjl.s:433    .text.ieee802_11_sa_query_action:0000000000000030 .LBB47
C:\Users\stapi\AppData\Local\Temp\ccNAGkjl.s:437    .text.ieee802_11_sa_query_action:0000000000000030 .LBE47
C:\Users\stapi\AppData\Local\Temp\ccNAGkjl.s:823    .text.hostapd_eid_ext_capab:0000000000000016 .LBE55
C:\Users\stapi\AppData\Local\Temp\ccNAGkjl.s:846    .text.hostapd_eid_ext_capab:0000000000000038 .LBB69
C:\Users\stapi\AppData\Local\Temp\ccNAGkjl.s:867    .text.hostapd_eid_ext_capab:0000000000000048 .LBE69
C:\Users\stapi\AppData\Local\Temp\ccNAGkjl.s:911    .text.hostapd_eid_ext_capab:0000000000000070 .LBB70
C:\Users\stapi\AppData\Local\Temp\ccNAGkjl.s:1086   .text.hostapd_eid_ext_capab:0000000000000140 .LBE70
C:\Users\stapi\AppData\Local\Temp\ccNAGkjl.s:1149   .text.hostapd_eid_ext_capab:00000000000001a0 .LBB71
C:\Users\stapi\AppData\Local\Temp\ccNAGkjl.s:1255   .text.hostapd_eid_ext_capab:000000000000022a .LBE71
C:\Users\stapi\AppData\Local\Temp\ccNAGkjl.s:821    .text.hostapd_eid_ext_capab:0000000000000016 .LBE57
C:\Users\stapi\AppData\Local\Temp\ccNAGkjl.s:850    .text.hostapd_eid_ext_capab:000000000000003c .LBB61
C:\Users\stapi\AppData\Local\Temp\ccNAGkjl.s:855    .text.hostapd_eid_ext_capab:0000000000000040 .LBE61
C:\Users\stapi\AppData\Local\Temp\ccNAGkjl.s:1194   .text.hostapd_eid_ext_capab:00000000000001e2 .LBB63
C:\Users\stapi\AppData\Local\Temp\ccNAGkjl.s:1201   .text.hostapd_eid_ext_capab:00000000000001ea .LBE63
C:\Users\stapi\AppData\Local\Temp\ccNAGkjl.s:856    .text.hostapd_eid_ext_capab:0000000000000040 .LBB62
C:\Users\stapi\AppData\Local\Temp\ccNAGkjl.s:859    .text.hostapd_eid_ext_capab:0000000000000042 .LBE62
C:\Users\stapi\AppData\Local\Temp\ccNAGkjl.s:1204   .text.hostapd_eid_ext_capab:00000000000001ec .LBB64
C:\Users\stapi\AppData\Local\Temp\ccNAGkjl.s:1225   .text.hostapd_eid_ext_capab:0000000000000206 .LBE64
C:\Users\stapi\AppData\Local\Temp\ccNAGkjl.s:1246   .text.hostapd_eid_ext_capab:0000000000000224 .LBB65
C:\Users\stapi\AppData\Local\Temp\ccNAGkjl.s:1253   .text.hostapd_eid_ext_capab:000000000000022a .LBE65
C:\Users\stapi\AppData\Local\Temp\ccNAGkjl.s:1503   .text.hostapd_update_time_adv:0000000000000028 .LBE81
C:\Users\stapi\AppData\Local\Temp\ccNAGkjl.s:1515   .text.hostapd_update_time_adv:0000000000000032 .LBB96
C:\Users\stapi\AppData\Local\Temp\ccNAGkjl.s:1663   .text.hostapd_update_time_adv:00000000000000d8 .LBE96
C:\Users\stapi\AppData\Local\Temp\ccNAGkjl.s:1666   .text.hostapd_update_time_adv:00000000000000d8 .LBB97
C:\Users\stapi\AppData\Local\Temp\ccNAGkjl.s:1685   .text.hostapd_update_time_adv:00000000000000dc .LBE97
C:\Users\stapi\AppData\Local\Temp\ccNAGkjl.s:1608   .text.hostapd_update_time_adv:00000000000000ac .LBE85
C:\Users\stapi\AppData\Local\Temp\ccNAGkjl.s:1615   .text.hostapd_update_time_adv:00000000000000b2 .LBB89
C:\Users\stapi\AppData\Local\Temp\ccNAGkjl.s:1620   .text.hostapd_update_time_adv:00000000000000b6 .LBE89
C:\Users\stapi\AppData\Local\Temp\ccNAGkjl.s:1632   .text.hostapd_update_time_adv:00000000000000c4 .LBB90
C:\Users\stapi\AppData\Local\Temp\ccNAGkjl.s:1637   .text.hostapd_update_time_adv:00000000000000c4 .LBE90
C:\Users\stapi\AppData\Local\Temp\ccNAGkjl.s:1998   .text.hostapd_eid_rsnxe:000000000000002e .LBE104
C:\Users\stapi\AppData\Local\Temp\ccNAGkjl.s:2001   .text.hostapd_eid_rsnxe:000000000000002e .LBB107
C:\Users\stapi\AppData\Local\Temp\ccNAGkjl.s:2005   .text.hostapd_eid_rsnxe:000000000000002e .LBE107

UNDEFINED SYMBOLS
__riscv_save_3
os_get_reltime
__riscv_restore_3
__riscv_save_4
wpa_printf
wpa_hexdump
os_zalloc
os_free
__riscv_restore_4
os_memcpy
hostapd_drv_send_mlme
__riscv_save_5
__riscv_restore_5
ap_get_sta
os_memcmp
ap_sta_stop_sa_query
__riscv_save_12
__riscv_restore_12
hostapd_get_he_twt_responder
hostapd_sae_pw_id_in_use
__riscv_save_2
__riscv_restore_2
os_strlen
__riscv_save_1
os_get_time
__riscv_restore_1
os_gmtime
wpabuf_alloc
wpabuf_put
os_malloc
