   1              		.file	"ieee802_11_ht.c"
   2              		.option nopic
   3              		.attribute arch, "rv32i2p0_m2p0_a2p0_f2p0_c2p0_b_p0p94"
   4              		.attribute unaligned_access, 0
   5              		.attribute stack_align, 16
   6              		.text
   7              	.Ltext0:
   8              		.cfi_sections	.debug_frame
   9              		.section	.text.hostapd_eid_ht_capabilities,"ax",@progbits
  10              		.align	1
  11              		.globl	hostapd_eid_ht_capabilities
  13              	hostapd_eid_ht_capabilities:
  14              	.LFB167:
  15              		.file 1 "C:/Users/stapi/OneDrive/Desktop/GD32VW553/V1_MQTT_OK/GD32VW55X_Wifi_BLE_SDK/GD32VW55x_REL
   1:C:/Users/stapi/OneDrive/Desktop/GD32VW553/V1_MQTT_OK/GD32VW55X_Wifi_BLE_SDK/GD32VW55x_RELEASE_V1.0.2/MSDK/wpa_supplicant/src/ap\ieee802_11_ht.c **** /*
   2:C:/Users/stapi/OneDrive/Desktop/GD32VW553/V1_MQTT_OK/GD32VW55X_Wifi_BLE_SDK/GD32VW55x_RELEASE_V1.0.2/MSDK/wpa_supplicant/src/ap\ieee802_11_ht.c ****  * hostapd / IEEE 802.11n HT
   3:C:/Users/stapi/OneDrive/Desktop/GD32VW553/V1_MQTT_OK/GD32VW55X_Wifi_BLE_SDK/GD32VW55x_RELEASE_V1.0.2/MSDK/wpa_supplicant/src/ap\ieee802_11_ht.c ****  * Copyright (c) 2002-2009, Jouni Malinen <j@w1.fi>
   4:C:/Users/stapi/OneDrive/Desktop/GD32VW553/V1_MQTT_OK/GD32VW55X_Wifi_BLE_SDK/GD32VW55x_RELEASE_V1.0.2/MSDK/wpa_supplicant/src/ap\ieee802_11_ht.c ****  * Copyright (c) 2007-2008, Intel Corporation
   5:C:/Users/stapi/OneDrive/Desktop/GD32VW553/V1_MQTT_OK/GD32VW55X_Wifi_BLE_SDK/GD32VW55x_RELEASE_V1.0.2/MSDK/wpa_supplicant/src/ap\ieee802_11_ht.c ****  *
   6:C:/Users/stapi/OneDrive/Desktop/GD32VW553/V1_MQTT_OK/GD32VW55X_Wifi_BLE_SDK/GD32VW55x_RELEASE_V1.0.2/MSDK/wpa_supplicant/src/ap\ieee802_11_ht.c ****  * This software may be distributed under the terms of the BSD license.
   7:C:/Users/stapi/OneDrive/Desktop/GD32VW553/V1_MQTT_OK/GD32VW55X_Wifi_BLE_SDK/GD32VW55x_RELEASE_V1.0.2/MSDK/wpa_supplicant/src/ap\ieee802_11_ht.c ****  * See README for more details.
   8:C:/Users/stapi/OneDrive/Desktop/GD32VW553/V1_MQTT_OK/GD32VW55X_Wifi_BLE_SDK/GD32VW55x_RELEASE_V1.0.2/MSDK/wpa_supplicant/src/ap\ieee802_11_ht.c ****  */
   9:C:/Users/stapi/OneDrive/Desktop/GD32VW553/V1_MQTT_OK/GD32VW55X_Wifi_BLE_SDK/GD32VW55x_RELEASE_V1.0.2/MSDK/wpa_supplicant/src/ap\ieee802_11_ht.c **** 
  10:C:/Users/stapi/OneDrive/Desktop/GD32VW553/V1_MQTT_OK/GD32VW55X_Wifi_BLE_SDK/GD32VW55x_RELEASE_V1.0.2/MSDK/wpa_supplicant/src/ap\ieee802_11_ht.c **** #include "utils/includes.h"
  11:C:/Users/stapi/OneDrive/Desktop/GD32VW553/V1_MQTT_OK/GD32VW55X_Wifi_BLE_SDK/GD32VW55x_RELEASE_V1.0.2/MSDK/wpa_supplicant/src/ap\ieee802_11_ht.c **** 
  12:C:/Users/stapi/OneDrive/Desktop/GD32VW553/V1_MQTT_OK/GD32VW55X_Wifi_BLE_SDK/GD32VW55x_RELEASE_V1.0.2/MSDK/wpa_supplicant/src/ap\ieee802_11_ht.c **** #ifdef CONFIG_AP
  13:C:/Users/stapi/OneDrive/Desktop/GD32VW553/V1_MQTT_OK/GD32VW55X_Wifi_BLE_SDK/GD32VW55x_RELEASE_V1.0.2/MSDK/wpa_supplicant/src/ap\ieee802_11_ht.c **** #include "utils/common.h"
  14:C:/Users/stapi/OneDrive/Desktop/GD32VW553/V1_MQTT_OK/GD32VW55X_Wifi_BLE_SDK/GD32VW55x_RELEASE_V1.0.2/MSDK/wpa_supplicant/src/ap\ieee802_11_ht.c **** #include "utils/eloop.h"
  15:C:/Users/stapi/OneDrive/Desktop/GD32VW553/V1_MQTT_OK/GD32VW55X_Wifi_BLE_SDK/GD32VW55x_RELEASE_V1.0.2/MSDK/wpa_supplicant/src/ap\ieee802_11_ht.c **** #include "common/ieee802_11_defs.h"
  16:C:/Users/stapi/OneDrive/Desktop/GD32VW553/V1_MQTT_OK/GD32VW55X_Wifi_BLE_SDK/GD32VW55x_RELEASE_V1.0.2/MSDK/wpa_supplicant/src/ap\ieee802_11_ht.c **** #include "hostapd.h"
  17:C:/Users/stapi/OneDrive/Desktop/GD32VW553/V1_MQTT_OK/GD32VW55X_Wifi_BLE_SDK/GD32VW55x_RELEASE_V1.0.2/MSDK/wpa_supplicant/src/ap\ieee802_11_ht.c **** #include "ap_config.h"
  18:C:/Users/stapi/OneDrive/Desktop/GD32VW553/V1_MQTT_OK/GD32VW55X_Wifi_BLE_SDK/GD32VW55x_RELEASE_V1.0.2/MSDK/wpa_supplicant/src/ap\ieee802_11_ht.c **** #include "sta_info.h"
  19:C:/Users/stapi/OneDrive/Desktop/GD32VW553/V1_MQTT_OK/GD32VW55X_Wifi_BLE_SDK/GD32VW55x_RELEASE_V1.0.2/MSDK/wpa_supplicant/src/ap\ieee802_11_ht.c **** #include "beacon.h"
  20:C:/Users/stapi/OneDrive/Desktop/GD32VW553/V1_MQTT_OK/GD32VW55X_Wifi_BLE_SDK/GD32VW55x_RELEASE_V1.0.2/MSDK/wpa_supplicant/src/ap\ieee802_11_ht.c **** #include "ieee802_11.h"
  21:C:/Users/stapi/OneDrive/Desktop/GD32VW553/V1_MQTT_OK/GD32VW55X_Wifi_BLE_SDK/GD32VW55x_RELEASE_V1.0.2/MSDK/wpa_supplicant/src/ap\ieee802_11_ht.c **** #include "hw_features.h"
  22:C:/Users/stapi/OneDrive/Desktop/GD32VW553/V1_MQTT_OK/GD32VW55X_Wifi_BLE_SDK/GD32VW55x_RELEASE_V1.0.2/MSDK/wpa_supplicant/src/ap\ieee802_11_ht.c **** #include "ap_drv_ops.h"
  23:C:/Users/stapi/OneDrive/Desktop/GD32VW553/V1_MQTT_OK/GD32VW55X_Wifi_BLE_SDK/GD32VW55x_RELEASE_V1.0.2/MSDK/wpa_supplicant/src/ap\ieee802_11_ht.c **** 
  24:C:/Users/stapi/OneDrive/Desktop/GD32VW553/V1_MQTT_OK/GD32VW55X_Wifi_BLE_SDK/GD32VW55x_RELEASE_V1.0.2/MSDK/wpa_supplicant/src/ap\ieee802_11_ht.c **** 
  25:C:/Users/stapi/OneDrive/Desktop/GD32VW553/V1_MQTT_OK/GD32VW55X_Wifi_BLE_SDK/GD32VW55x_RELEASE_V1.0.2/MSDK/wpa_supplicant/src/ap\ieee802_11_ht.c **** u8 * hostapd_eid_ht_capabilities(struct hostapd_data *hapd, u8 *eid)
  26:C:/Users/stapi/OneDrive/Desktop/GD32VW553/V1_MQTT_OK/GD32VW55X_Wifi_BLE_SDK/GD32VW55x_RELEASE_V1.0.2/MSDK/wpa_supplicant/src/ap\ieee802_11_ht.c **** {
  16              		.loc 1 26 1
  17              		.cfi_startproc
  18              	.LVL0:
  19 0000 17030000 		call	t0,__riscv_save_2
  19      E7020300 
  20              		.cfi_offset 9, -12
  21              		.cfi_offset 8, -8
  22              		.cfi_offset 1, -4
  23              		.cfi_def_cfa_offset 16
  27:C:/Users/stapi/OneDrive/Desktop/GD32VW553/V1_MQTT_OK/GD32VW55X_Wifi_BLE_SDK/GD32VW55x_RELEASE_V1.0.2/MSDK/wpa_supplicant/src/ap\ieee802_11_ht.c **** 	struct ieee80211_ht_capabilities *cap;
  24              		.loc 1 27 2
  28:C:/Users/stapi/OneDrive/Desktop/GD32VW553/V1_MQTT_OK/GD32VW55X_Wifi_BLE_SDK/GD32VW55x_RELEASE_V1.0.2/MSDK/wpa_supplicant/src/ap\ieee802_11_ht.c **** 	u8 *pos = eid;
  25              		.loc 1 28 2
  29:C:/Users/stapi/OneDrive/Desktop/GD32VW553/V1_MQTT_OK/GD32VW55X_Wifi_BLE_SDK/GD32VW55x_RELEASE_V1.0.2/MSDK/wpa_supplicant/src/ap\ieee802_11_ht.c **** 
  30:C:/Users/stapi/OneDrive/Desktop/GD32VW553/V1_MQTT_OK/GD32VW55X_Wifi_BLE_SDK/GD32VW55x_RELEASE_V1.0.2/MSDK/wpa_supplicant/src/ap\ieee802_11_ht.c **** 	if (!hapd->iconf->ieee80211n || !hapd->iface->current_mode ||
  26              		.loc 1 30 11 is_stmt 0
  27 0008 5C41     		lw	a5,4(a0)
  26:C:/Users/stapi/OneDrive/Desktop/GD32VW553/V1_MQTT_OK/GD32VW55X_Wifi_BLE_SDK/GD32VW55x_RELEASE_V1.0.2/MSDK/wpa_supplicant/src/ap\ieee802_11_ht.c **** 	struct ieee80211_ht_capabilities *cap;
  28              		.loc 1 26 1
  29 000a 2E84     		mv	s0,a1
  30              	.LVL1:
  31              		.loc 1 30 2 is_stmt 1
  32              		.loc 1 30 5 is_stmt 0
  33 000c 03A70712 		lw	a4,288(a5)
  34 0010 2DCF     		beq	a4,zero,.L3
  35              		.loc 1 30 46 discriminator 1
  36 0012 1841     		lw	a4,0(a0)
  37 0014 AA84     		mv	s1,a0
  38              		.loc 1 30 31 discriminator 1
  39 0016 03274746 		lw	a4,1124(a4)
  40 001a 25CB     		beq	a4,zero,.L3
  31:C:/Users/stapi/OneDrive/Desktop/GD32VW553/V1_MQTT_OK/GD32VW55X_Wifi_BLE_SDK/GD32VW55x_RELEASE_V1.0.2/MSDK/wpa_supplicant/src/ap\ieee802_11_ht.c **** 	    hapd->conf->disable_11n || is_6ghz_op_class(hapd->iconf->op_class))
  41              		.loc 1 31 16 discriminator 2
  42 001c 1845     		lw	a4,8(a0)
  30:C:/Users/stapi/OneDrive/Desktop/GD32VW553/V1_MQTT_OK/GD32VW55X_Wifi_BLE_SDK/GD32VW55x_RELEASE_V1.0.2/MSDK/wpa_supplicant/src/ap\ieee802_11_ht.c **** 	    hapd->conf->disable_11n || is_6ghz_op_class(hapd->iconf->op_class))
  43              		.loc 1 30 61 discriminator 2
  44 001e 03478729 		lbu	a4,664(a4)
  45 0022 25E7     		bne	a4,zero,.L3
  46              		.loc 1 31 33
  47 0024 03C58701 		lbu	a0,24(a5)
  48              	.LVL2:
  49 0028 97000000 		call	is_6ghz_op_class
  49      E7800000 
  50              	.LVL3:
  51              		.loc 1 31 30
  52 0030 29ED     		bne	a0,zero,.L3
  32:C:/Users/stapi/OneDrive/Desktop/GD32VW553/V1_MQTT_OK/GD32VW55X_Wifi_BLE_SDK/GD32VW55x_RELEASE_V1.0.2/MSDK/wpa_supplicant/src/ap\ieee802_11_ht.c **** 		return eid;
  33:C:/Users/stapi/OneDrive/Desktop/GD32VW553/V1_MQTT_OK/GD32VW55X_Wifi_BLE_SDK/GD32VW55x_RELEASE_V1.0.2/MSDK/wpa_supplicant/src/ap\ieee802_11_ht.c **** 
  34:C:/Users/stapi/OneDrive/Desktop/GD32VW553/V1_MQTT_OK/GD32VW55X_Wifi_BLE_SDK/GD32VW55x_RELEASE_V1.0.2/MSDK/wpa_supplicant/src/ap\ieee802_11_ht.c **** 	*pos++ = WLAN_EID_HT_CAP;
  53              		.loc 1 34 2 is_stmt 1
  54              	.LVL4:
  55              		.loc 1 34 9 is_stmt 0
  56 0032 9307D002 		li	a5,45
  57 0036 2300F400 		sb	a5,0(s0)
  35:C:/Users/stapi/OneDrive/Desktop/GD32VW553/V1_MQTT_OK/GD32VW55X_Wifi_BLE_SDK/GD32VW55x_RELEASE_V1.0.2/MSDK/wpa_supplicant/src/ap\ieee802_11_ht.c **** 	*pos++ = sizeof(*cap);
  58              		.loc 1 35 2 is_stmt 1
  59              	.LVL5:
  60              		.loc 1 35 9 is_stmt 0
  61 003a E947     		li	a5,26
  62 003c A300F400 		sb	a5,1(s0)
  36:C:/Users/stapi/OneDrive/Desktop/GD32VW553/V1_MQTT_OK/GD32VW55X_Wifi_BLE_SDK/GD32VW55x_RELEASE_V1.0.2/MSDK/wpa_supplicant/src/ap\ieee802_11_ht.c **** 
  37:C:/Users/stapi/OneDrive/Desktop/GD32VW553/V1_MQTT_OK/GD32VW55X_Wifi_BLE_SDK/GD32VW55x_RELEASE_V1.0.2/MSDK/wpa_supplicant/src/ap\ieee802_11_ht.c **** 	cap = (struct ieee80211_ht_capabilities *) pos;
  63              		.loc 1 37 2 is_stmt 1
  64              	.LVL6:
  38:C:/Users/stapi/OneDrive/Desktop/GD32VW553/V1_MQTT_OK/GD32VW55X_Wifi_BLE_SDK/GD32VW55x_RELEASE_V1.0.2/MSDK/wpa_supplicant/src/ap\ieee802_11_ht.c **** 	os_memset(cap, 0, sizeof(*cap));
  65              		.loc 1 38 2
  66 0040 6946     		li	a2,26
  67 0042 8145     		li	a1,0
  68 0044 13052400 		addi	a0,s0,2
  69              	.LVL7:
  70 0048 97000000 		call	os_memset
  70      E7800000 
  71              	.LVL8:
  39:C:/Users/stapi/OneDrive/Desktop/GD32VW553/V1_MQTT_OK/GD32VW55X_Wifi_BLE_SDK/GD32VW55x_RELEASE_V1.0.2/MSDK/wpa_supplicant/src/ap\ieee802_11_ht.c **** 	cap->ht_capabilities_info = host_to_le16(hapd->iconf->ht_capab);
  72              		.loc 1 39 2
  73              		.loc 1 39 30 is_stmt 0
  74 0050 DC40     		lw	a5,4(s1)
  40:C:/Users/stapi/OneDrive/Desktop/GD32VW553/V1_MQTT_OK/GD32VW55X_Wifi_BLE_SDK/GD32VW55x_RELEASE_V1.0.2/MSDK/wpa_supplicant/src/ap\ieee802_11_ht.c **** 	cap->a_mpdu_params = hapd->iface->current_mode->a_mpdu_params;
  41:C:/Users/stapi/OneDrive/Desktop/GD32VW553/V1_MQTT_OK/GD32VW55X_Wifi_BLE_SDK/GD32VW55x_RELEASE_V1.0.2/MSDK/wpa_supplicant/src/ap\ieee802_11_ht.c **** 	os_memcpy(cap->supported_mcs_set, hapd->iface->current_mode->mcs_set,
  75              		.loc 1 41 2
  76 0052 4146     		li	a2,16
  77 0054 13055400 		addi	a0,s0,5
  39:C:/Users/stapi/OneDrive/Desktop/GD32VW553/V1_MQTT_OK/GD32VW55X_Wifi_BLE_SDK/GD32VW55x_RELEASE_V1.0.2/MSDK/wpa_supplicant/src/ap\ieee802_11_ht.c **** 	cap->ht_capabilities_info = host_to_le16(hapd->iconf->ht_capab);
  78              		.loc 1 39 28
  79 0058 03C7C711 		lbu	a4,284(a5)
  80 005c 2301E400 		sb	a4,2(s0)
  81 0060 83C7D711 		lbu	a5,285(a5)
  82 0064 A301F400 		sb	a5,3(s0)
  40:C:/Users/stapi/OneDrive/Desktop/GD32VW553/V1_MQTT_OK/GD32VW55X_Wifi_BLE_SDK/GD32VW55x_RELEASE_V1.0.2/MSDK/wpa_supplicant/src/ap\ieee802_11_ht.c **** 	cap->a_mpdu_params = hapd->iface->current_mode->a_mpdu_params;
  83              		.loc 1 40 2 is_stmt 1
  40:C:/Users/stapi/OneDrive/Desktop/GD32VW553/V1_MQTT_OK/GD32VW55X_Wifi_BLE_SDK/GD32VW55x_RELEASE_V1.0.2/MSDK/wpa_supplicant/src/ap\ieee802_11_ht.c **** 	cap->a_mpdu_params = hapd->iface->current_mode->a_mpdu_params;
  84              		.loc 1 40 34 is_stmt 0
  85 0068 9C40     		lw	a5,0(s1)
  86 006a 83A54746 		lw	a1,1124(a5)
  40:C:/Users/stapi/OneDrive/Desktop/GD32VW553/V1_MQTT_OK/GD32VW55X_Wifi_BLE_SDK/GD32VW55x_RELEASE_V1.0.2/MSDK/wpa_supplicant/src/ap\ieee802_11_ht.c **** 	cap->a_mpdu_params = hapd->iface->current_mode->a_mpdu_params;
  87              		.loc 1 40 21
  88 006e 83C76502 		lbu	a5,38(a1)
  89              		.loc 1 41 2
  90 0072 D905     		addi	a1,a1,22
  40:C:/Users/stapi/OneDrive/Desktop/GD32VW553/V1_MQTT_OK/GD32VW55X_Wifi_BLE_SDK/GD32VW55x_RELEASE_V1.0.2/MSDK/wpa_supplicant/src/ap\ieee802_11_ht.c **** 	cap->a_mpdu_params = hapd->iface->current_mode->a_mpdu_params;
  91              		.loc 1 40 21
  92 0074 2302F400 		sb	a5,4(s0)
  93              		.loc 1 41 2 is_stmt 1
  94 0078 97000000 		call	os_memcpy
  94      E7800000 
  95              	.LVL9:
  42:C:/Users/stapi/OneDrive/Desktop/GD32VW553/V1_MQTT_OK/GD32VW55X_Wifi_BLE_SDK/GD32VW55x_RELEASE_V1.0.2/MSDK/wpa_supplicant/src/ap\ieee802_11_ht.c **** 		  16);
  43:C:/Users/stapi/OneDrive/Desktop/GD32VW553/V1_MQTT_OK/GD32VW55X_Wifi_BLE_SDK/GD32VW55x_RELEASE_V1.0.2/MSDK/wpa_supplicant/src/ap\ieee802_11_ht.c **** 
  44:C:/Users/stapi/OneDrive/Desktop/GD32VW553/V1_MQTT_OK/GD32VW55X_Wifi_BLE_SDK/GD32VW55x_RELEASE_V1.0.2/MSDK/wpa_supplicant/src/ap\ieee802_11_ht.c **** 	/* TODO: ht_extended_capabilities (now fully disabled) */
  45:C:/Users/stapi/OneDrive/Desktop/GD32VW553/V1_MQTT_OK/GD32VW55X_Wifi_BLE_SDK/GD32VW55x_RELEASE_V1.0.2/MSDK/wpa_supplicant/src/ap\ieee802_11_ht.c **** 	/* TODO: tx_bf_capability_info (now fully disabled) */
  46:C:/Users/stapi/OneDrive/Desktop/GD32VW553/V1_MQTT_OK/GD32VW55X_Wifi_BLE_SDK/GD32VW55x_RELEASE_V1.0.2/MSDK/wpa_supplicant/src/ap\ieee802_11_ht.c **** 	/* TODO: asel_capabilities (now fully disabled) */
  47:C:/Users/stapi/OneDrive/Desktop/GD32VW553/V1_MQTT_OK/GD32VW55X_Wifi_BLE_SDK/GD32VW55x_RELEASE_V1.0.2/MSDK/wpa_supplicant/src/ap\ieee802_11_ht.c **** 
  48:C:/Users/stapi/OneDrive/Desktop/GD32VW553/V1_MQTT_OK/GD32VW55X_Wifi_BLE_SDK/GD32VW55x_RELEASE_V1.0.2/MSDK/wpa_supplicant/src/ap\ieee802_11_ht.c ****  	pos += sizeof(*cap);
  96              		.loc 1 48 3
  49:C:/Users/stapi/OneDrive/Desktop/GD32VW553/V1_MQTT_OK/GD32VW55X_Wifi_BLE_SDK/GD32VW55x_RELEASE_V1.0.2/MSDK/wpa_supplicant/src/ap\ieee802_11_ht.c **** 
  50:C:/Users/stapi/OneDrive/Desktop/GD32VW553/V1_MQTT_OK/GD32VW55X_Wifi_BLE_SDK/GD32VW55x_RELEASE_V1.0.2/MSDK/wpa_supplicant/src/ap\ieee802_11_ht.c **** 	if (hapd->iconf->obss_interval) {
  97              		.loc 1 50 2
  98              		.loc 1 50 17 is_stmt 0
  99 0080 DC40     		lw	a5,4(s1)
 100              		.loc 1 50 5
 101 0082 83A70713 		lw	a5,304(a5)
 102 0086 99E7     		bne	a5,zero,.L5
  48:C:/Users/stapi/OneDrive/Desktop/GD32VW553/V1_MQTT_OK/GD32VW55X_Wifi_BLE_SDK/GD32VW55x_RELEASE_V1.0.2/MSDK/wpa_supplicant/src/ap\ieee802_11_ht.c **** 
 103              		.loc 1 48 7
 104 0088 7104     		addi	s0,s0,28
 105              	.LVL10:
 106              	.L3:
  51:C:/Users/stapi/OneDrive/Desktop/GD32VW553/V1_MQTT_OK/GD32VW55X_Wifi_BLE_SDK/GD32VW55x_RELEASE_V1.0.2/MSDK/wpa_supplicant/src/ap\ieee802_11_ht.c **** 		struct ieee80211_obss_scan_parameters *scan_params;
  52:C:/Users/stapi/OneDrive/Desktop/GD32VW553/V1_MQTT_OK/GD32VW55X_Wifi_BLE_SDK/GD32VW55x_RELEASE_V1.0.2/MSDK/wpa_supplicant/src/ap\ieee802_11_ht.c **** 
  53:C:/Users/stapi/OneDrive/Desktop/GD32VW553/V1_MQTT_OK/GD32VW55X_Wifi_BLE_SDK/GD32VW55x_RELEASE_V1.0.2/MSDK/wpa_supplicant/src/ap\ieee802_11_ht.c **** 		*pos++ = WLAN_EID_OVERLAPPING_BSS_SCAN_PARAMS;
  54:C:/Users/stapi/OneDrive/Desktop/GD32VW553/V1_MQTT_OK/GD32VW55X_Wifi_BLE_SDK/GD32VW55x_RELEASE_V1.0.2/MSDK/wpa_supplicant/src/ap\ieee802_11_ht.c **** 		*pos++ = sizeof(*scan_params);
  55:C:/Users/stapi/OneDrive/Desktop/GD32VW553/V1_MQTT_OK/GD32VW55X_Wifi_BLE_SDK/GD32VW55x_RELEASE_V1.0.2/MSDK/wpa_supplicant/src/ap\ieee802_11_ht.c **** 
  56:C:/Users/stapi/OneDrive/Desktop/GD32VW553/V1_MQTT_OK/GD32VW55X_Wifi_BLE_SDK/GD32VW55x_RELEASE_V1.0.2/MSDK/wpa_supplicant/src/ap\ieee802_11_ht.c **** 		scan_params = (struct ieee80211_obss_scan_parameters *) pos;
  57:C:/Users/stapi/OneDrive/Desktop/GD32VW553/V1_MQTT_OK/GD32VW55X_Wifi_BLE_SDK/GD32VW55x_RELEASE_V1.0.2/MSDK/wpa_supplicant/src/ap\ieee802_11_ht.c **** 		os_memset(scan_params, 0, sizeof(*scan_params));
  58:C:/Users/stapi/OneDrive/Desktop/GD32VW553/V1_MQTT_OK/GD32VW55X_Wifi_BLE_SDK/GD32VW55x_RELEASE_V1.0.2/MSDK/wpa_supplicant/src/ap\ieee802_11_ht.c **** 		scan_params->width_trigger_scan_interval =
  59:C:/Users/stapi/OneDrive/Desktop/GD32VW553/V1_MQTT_OK/GD32VW55X_Wifi_BLE_SDK/GD32VW55x_RELEASE_V1.0.2/MSDK/wpa_supplicant/src/ap\ieee802_11_ht.c **** 			host_to_le16(hapd->iconf->obss_interval);
  60:C:/Users/stapi/OneDrive/Desktop/GD32VW553/V1_MQTT_OK/GD32VW55X_Wifi_BLE_SDK/GD32VW55x_RELEASE_V1.0.2/MSDK/wpa_supplicant/src/ap\ieee802_11_ht.c **** 
  61:C:/Users/stapi/OneDrive/Desktop/GD32VW553/V1_MQTT_OK/GD32VW55X_Wifi_BLE_SDK/GD32VW55x_RELEASE_V1.0.2/MSDK/wpa_supplicant/src/ap\ieee802_11_ht.c **** 		/* Fill in default values for remaining parameters
  62:C:/Users/stapi/OneDrive/Desktop/GD32VW553/V1_MQTT_OK/GD32VW55X_Wifi_BLE_SDK/GD32VW55x_RELEASE_V1.0.2/MSDK/wpa_supplicant/src/ap\ieee802_11_ht.c **** 		 * (IEEE Std 802.11-2012, 8.4.2.61 and MIB defval) */
  63:C:/Users/stapi/OneDrive/Desktop/GD32VW553/V1_MQTT_OK/GD32VW55X_Wifi_BLE_SDK/GD32VW55x_RELEASE_V1.0.2/MSDK/wpa_supplicant/src/ap\ieee802_11_ht.c **** 		scan_params->scan_passive_dwell =
  64:C:/Users/stapi/OneDrive/Desktop/GD32VW553/V1_MQTT_OK/GD32VW55X_Wifi_BLE_SDK/GD32VW55x_RELEASE_V1.0.2/MSDK/wpa_supplicant/src/ap\ieee802_11_ht.c **** 			host_to_le16(20);
  65:C:/Users/stapi/OneDrive/Desktop/GD32VW553/V1_MQTT_OK/GD32VW55X_Wifi_BLE_SDK/GD32VW55x_RELEASE_V1.0.2/MSDK/wpa_supplicant/src/ap\ieee802_11_ht.c **** 		scan_params->scan_active_dwell =
  66:C:/Users/stapi/OneDrive/Desktop/GD32VW553/V1_MQTT_OK/GD32VW55X_Wifi_BLE_SDK/GD32VW55x_RELEASE_V1.0.2/MSDK/wpa_supplicant/src/ap\ieee802_11_ht.c **** 			host_to_le16(10);
  67:C:/Users/stapi/OneDrive/Desktop/GD32VW553/V1_MQTT_OK/GD32VW55X_Wifi_BLE_SDK/GD32VW55x_RELEASE_V1.0.2/MSDK/wpa_supplicant/src/ap\ieee802_11_ht.c **** 		scan_params->scan_passive_total_per_channel =
  68:C:/Users/stapi/OneDrive/Desktop/GD32VW553/V1_MQTT_OK/GD32VW55X_Wifi_BLE_SDK/GD32VW55x_RELEASE_V1.0.2/MSDK/wpa_supplicant/src/ap\ieee802_11_ht.c **** 			host_to_le16(200);
  69:C:/Users/stapi/OneDrive/Desktop/GD32VW553/V1_MQTT_OK/GD32VW55X_Wifi_BLE_SDK/GD32VW55x_RELEASE_V1.0.2/MSDK/wpa_supplicant/src/ap\ieee802_11_ht.c **** 		scan_params->scan_active_total_per_channel =
  70:C:/Users/stapi/OneDrive/Desktop/GD32VW553/V1_MQTT_OK/GD32VW55X_Wifi_BLE_SDK/GD32VW55x_RELEASE_V1.0.2/MSDK/wpa_supplicant/src/ap\ieee802_11_ht.c **** 			host_to_le16(20);
  71:C:/Users/stapi/OneDrive/Desktop/GD32VW553/V1_MQTT_OK/GD32VW55X_Wifi_BLE_SDK/GD32VW55x_RELEASE_V1.0.2/MSDK/wpa_supplicant/src/ap\ieee802_11_ht.c **** 		scan_params->channel_transition_delay_factor =
  72:C:/Users/stapi/OneDrive/Desktop/GD32VW553/V1_MQTT_OK/GD32VW55X_Wifi_BLE_SDK/GD32VW55x_RELEASE_V1.0.2/MSDK/wpa_supplicant/src/ap\ieee802_11_ht.c **** 			host_to_le16(5);
  73:C:/Users/stapi/OneDrive/Desktop/GD32VW553/V1_MQTT_OK/GD32VW55X_Wifi_BLE_SDK/GD32VW55x_RELEASE_V1.0.2/MSDK/wpa_supplicant/src/ap\ieee802_11_ht.c **** 		scan_params->scan_activity_threshold =
  74:C:/Users/stapi/OneDrive/Desktop/GD32VW553/V1_MQTT_OK/GD32VW55X_Wifi_BLE_SDK/GD32VW55x_RELEASE_V1.0.2/MSDK/wpa_supplicant/src/ap\ieee802_11_ht.c **** 			host_to_le16(25);
  75:C:/Users/stapi/OneDrive/Desktop/GD32VW553/V1_MQTT_OK/GD32VW55X_Wifi_BLE_SDK/GD32VW55x_RELEASE_V1.0.2/MSDK/wpa_supplicant/src/ap\ieee802_11_ht.c **** 
  76:C:/Users/stapi/OneDrive/Desktop/GD32VW553/V1_MQTT_OK/GD32VW55X_Wifi_BLE_SDK/GD32VW55x_RELEASE_V1.0.2/MSDK/wpa_supplicant/src/ap\ieee802_11_ht.c **** 		pos += sizeof(*scan_params);
  77:C:/Users/stapi/OneDrive/Desktop/GD32VW553/V1_MQTT_OK/GD32VW55X_Wifi_BLE_SDK/GD32VW55x_RELEASE_V1.0.2/MSDK/wpa_supplicant/src/ap\ieee802_11_ht.c **** 	}
  78:C:/Users/stapi/OneDrive/Desktop/GD32VW553/V1_MQTT_OK/GD32VW55X_Wifi_BLE_SDK/GD32VW55x_RELEASE_V1.0.2/MSDK/wpa_supplicant/src/ap\ieee802_11_ht.c **** 
  79:C:/Users/stapi/OneDrive/Desktop/GD32VW553/V1_MQTT_OK/GD32VW55X_Wifi_BLE_SDK/GD32VW55x_RELEASE_V1.0.2/MSDK/wpa_supplicant/src/ap\ieee802_11_ht.c **** 	return pos;
  80:C:/Users/stapi/OneDrive/Desktop/GD32VW553/V1_MQTT_OK/GD32VW55X_Wifi_BLE_SDK/GD32VW55x_RELEASE_V1.0.2/MSDK/wpa_supplicant/src/ap\ieee802_11_ht.c **** }
 107              		.loc 1 80 1
 108 008a 2285     		mv	a0,s0
 109 008c 17030000 		tail	__riscv_restore_2
 109      67000300 
 110              		.cfi_remember_state
 111              		.cfi_restore 9
 112              		.cfi_restore 8
 113              		.cfi_restore 1
 114              		.cfi_def_cfa_offset 0
 115              	.LVL11:
 116              	.L5:
 117              		.cfi_restore_state
 118              	.LBB2:
  51:C:/Users/stapi/OneDrive/Desktop/GD32VW553/V1_MQTT_OK/GD32VW55X_Wifi_BLE_SDK/GD32VW55x_RELEASE_V1.0.2/MSDK/wpa_supplicant/src/ap\ieee802_11_ht.c **** 		struct ieee80211_obss_scan_parameters *scan_params;
 119              		.loc 1 51 3 is_stmt 1
  53:C:/Users/stapi/OneDrive/Desktop/GD32VW553/V1_MQTT_OK/GD32VW55X_Wifi_BLE_SDK/GD32VW55x_RELEASE_V1.0.2/MSDK/wpa_supplicant/src/ap\ieee802_11_ht.c **** 		*pos++ = sizeof(*scan_params);
 120              		.loc 1 53 3
  53:C:/Users/stapi/OneDrive/Desktop/GD32VW553/V1_MQTT_OK/GD32VW55X_Wifi_BLE_SDK/GD32VW55x_RELEASE_V1.0.2/MSDK/wpa_supplicant/src/ap\ieee802_11_ht.c **** 		*pos++ = sizeof(*scan_params);
 121              		.loc 1 53 10 is_stmt 0
 122 0094 9307A004 		li	a5,74
 123 0098 230EF400 		sb	a5,28(s0)
  54:C:/Users/stapi/OneDrive/Desktop/GD32VW553/V1_MQTT_OK/GD32VW55X_Wifi_BLE_SDK/GD32VW55x_RELEASE_V1.0.2/MSDK/wpa_supplicant/src/ap\ieee802_11_ht.c **** 
 124              		.loc 1 54 3 is_stmt 1
 125              	.LVL12:
  54:C:/Users/stapi/OneDrive/Desktop/GD32VW553/V1_MQTT_OK/GD32VW55X_Wifi_BLE_SDK/GD32VW55x_RELEASE_V1.0.2/MSDK/wpa_supplicant/src/ap\ieee802_11_ht.c **** 
 126              		.loc 1 54 10 is_stmt 0
 127 009c B947     		li	a5,14
 128 009e A30EF400 		sb	a5,29(s0)
  56:C:/Users/stapi/OneDrive/Desktop/GD32VW553/V1_MQTT_OK/GD32VW55X_Wifi_BLE_SDK/GD32VW55x_RELEASE_V1.0.2/MSDK/wpa_supplicant/src/ap\ieee802_11_ht.c **** 		os_memset(scan_params, 0, sizeof(*scan_params));
 129              		.loc 1 56 3 is_stmt 1
 130              	.LVL13:
  57:C:/Users/stapi/OneDrive/Desktop/GD32VW553/V1_MQTT_OK/GD32VW55X_Wifi_BLE_SDK/GD32VW55x_RELEASE_V1.0.2/MSDK/wpa_supplicant/src/ap\ieee802_11_ht.c **** 		scan_params->width_trigger_scan_interval =
 131              		.loc 1 57 3
 132 00a2 1305E401 		addi	a0,s0,30
 133              	.LVL14:
 134 00a6 3946     		li	a2,14
 135 00a8 8145     		li	a1,0
 136 00aa 97000000 		call	os_memset
 136      E7800000 
 137              	.LVL15:
  58:C:/Users/stapi/OneDrive/Desktop/GD32VW553/V1_MQTT_OK/GD32VW55X_Wifi_BLE_SDK/GD32VW55x_RELEASE_V1.0.2/MSDK/wpa_supplicant/src/ap\ieee802_11_ht.c **** 			host_to_le16(hapd->iconf->obss_interval);
 138              		.loc 1 58 3
  59:C:/Users/stapi/OneDrive/Desktop/GD32VW553/V1_MQTT_OK/GD32VW55X_Wifi_BLE_SDK/GD32VW55x_RELEASE_V1.0.2/MSDK/wpa_supplicant/src/ap\ieee802_11_ht.c **** 
 139              		.loc 1 59 4 is_stmt 0
 140 00b2 DC40     		lw	a5,4(s1)
  65:C:/Users/stapi/OneDrive/Desktop/GD32VW553/V1_MQTT_OK/GD32VW55X_Wifi_BLE_SDK/GD32VW55x_RELEASE_V1.0.2/MSDK/wpa_supplicant/src/ap\ieee802_11_ht.c **** 			host_to_le16(10);
 141              		.loc 1 65 34
 142 00b4 2947     		li	a4,10
  76:C:/Users/stapi/OneDrive/Desktop/GD32VW553/V1_MQTT_OK/GD32VW55X_Wifi_BLE_SDK/GD32VW55x_RELEASE_V1.0.2/MSDK/wpa_supplicant/src/ap\ieee802_11_ht.c **** 	}
 143              		.loc 1 76 7
 144 00b6 1304C402 		addi	s0,s0,44
 145              	.LVL16:
  58:C:/Users/stapi/OneDrive/Desktop/GD32VW553/V1_MQTT_OK/GD32VW55X_Wifi_BLE_SDK/GD32VW55x_RELEASE_V1.0.2/MSDK/wpa_supplicant/src/ap\ieee802_11_ht.c **** 			host_to_le16(hapd->iconf->obss_interval);
 146              		.loc 1 58 44
 147 00ba 83D70713 		lhu	a5,304(a5)
  65:C:/Users/stapi/OneDrive/Desktop/GD32VW553/V1_MQTT_OK/GD32VW55X_Wifi_BLE_SDK/GD32VW55x_RELEASE_V1.0.2/MSDK/wpa_supplicant/src/ap\ieee802_11_ht.c **** 			host_to_le16(10);
 148              		.loc 1 65 34
 149 00be 230AE4FE 		sb	a4,-12(s0)
  67:C:/Users/stapi/OneDrive/Desktop/GD32VW553/V1_MQTT_OK/GD32VW55X_Wifi_BLE_SDK/GD32VW55x_RELEASE_V1.0.2/MSDK/wpa_supplicant/src/ap\ieee802_11_ht.c **** 			host_to_le16(200);
 150              		.loc 1 67 47
 151 00c2 130780FC 		li	a4,-56
  58:C:/Users/stapi/OneDrive/Desktop/GD32VW553/V1_MQTT_OK/GD32VW55X_Wifi_BLE_SDK/GD32VW55x_RELEASE_V1.0.2/MSDK/wpa_supplicant/src/ap\ieee802_11_ht.c **** 			host_to_le16(hapd->iconf->obss_interval);
 152              		.loc 1 58 44
 153 00c6 230BF4FE 		sb	a5,-10(s0)
 154 00ca A183     		srli	a5,a5,8
 155 00cc A30BF4FE 		sb	a5,-9(s0)
  63:C:/Users/stapi/OneDrive/Desktop/GD32VW553/V1_MQTT_OK/GD32VW55X_Wifi_BLE_SDK/GD32VW55x_RELEASE_V1.0.2/MSDK/wpa_supplicant/src/ap\ieee802_11_ht.c **** 			host_to_le16(20);
 156              		.loc 1 63 3 is_stmt 1
  63:C:/Users/stapi/OneDrive/Desktop/GD32VW553/V1_MQTT_OK/GD32VW55X_Wifi_BLE_SDK/GD32VW55x_RELEASE_V1.0.2/MSDK/wpa_supplicant/src/ap\ieee802_11_ht.c **** 			host_to_le16(20);
 157              		.loc 1 63 35 is_stmt 0
 158 00d0 D147     		li	a5,20
 159 00d2 2309F4FE 		sb	a5,-14(s0)
  69:C:/Users/stapi/OneDrive/Desktop/GD32VW553/V1_MQTT_OK/GD32VW55X_Wifi_BLE_SDK/GD32VW55x_RELEASE_V1.0.2/MSDK/wpa_supplicant/src/ap\ieee802_11_ht.c **** 			host_to_le16(20);
 160              		.loc 1 69 46
 161 00d6 230DF4FE 		sb	a5,-6(s0)
  71:C:/Users/stapi/OneDrive/Desktop/GD32VW553/V1_MQTT_OK/GD32VW55X_Wifi_BLE_SDK/GD32VW55x_RELEASE_V1.0.2/MSDK/wpa_supplicant/src/ap\ieee802_11_ht.c **** 			host_to_le16(5);
 162              		.loc 1 71 48
 163 00da 9547     		li	a5,5
 164 00dc 230EF4FE 		sb	a5,-4(s0)
  73:C:/Users/stapi/OneDrive/Desktop/GD32VW553/V1_MQTT_OK/GD32VW55X_Wifi_BLE_SDK/GD32VW55x_RELEASE_V1.0.2/MSDK/wpa_supplicant/src/ap\ieee802_11_ht.c **** 			host_to_le16(25);
 165              		.loc 1 73 40
 166 00e0 E547     		li	a5,25
  63:C:/Users/stapi/OneDrive/Desktop/GD32VW553/V1_MQTT_OK/GD32VW55X_Wifi_BLE_SDK/GD32VW55x_RELEASE_V1.0.2/MSDK/wpa_supplicant/src/ap\ieee802_11_ht.c **** 			host_to_le16(20);
 167              		.loc 1 63 35
 168 00e2 A30904FE 		sb	zero,-13(s0)
  65:C:/Users/stapi/OneDrive/Desktop/GD32VW553/V1_MQTT_OK/GD32VW55X_Wifi_BLE_SDK/GD32VW55x_RELEASE_V1.0.2/MSDK/wpa_supplicant/src/ap\ieee802_11_ht.c **** 			host_to_le16(10);
 169              		.loc 1 65 3 is_stmt 1
  65:C:/Users/stapi/OneDrive/Desktop/GD32VW553/V1_MQTT_OK/GD32VW55X_Wifi_BLE_SDK/GD32VW55x_RELEASE_V1.0.2/MSDK/wpa_supplicant/src/ap\ieee802_11_ht.c **** 			host_to_le16(10);
 170              		.loc 1 65 34 is_stmt 0
 171 00e6 A30A04FE 		sb	zero,-11(s0)
  67:C:/Users/stapi/OneDrive/Desktop/GD32VW553/V1_MQTT_OK/GD32VW55X_Wifi_BLE_SDK/GD32VW55x_RELEASE_V1.0.2/MSDK/wpa_supplicant/src/ap\ieee802_11_ht.c **** 			host_to_le16(200);
 172              		.loc 1 67 3 is_stmt 1
  67:C:/Users/stapi/OneDrive/Desktop/GD32VW553/V1_MQTT_OK/GD32VW55X_Wifi_BLE_SDK/GD32VW55x_RELEASE_V1.0.2/MSDK/wpa_supplicant/src/ap\ieee802_11_ht.c **** 			host_to_le16(200);
 173              		.loc 1 67 47 is_stmt 0
 174 00ea 230CE4FE 		sb	a4,-8(s0)
 175 00ee A30C04FE 		sb	zero,-7(s0)
  69:C:/Users/stapi/OneDrive/Desktop/GD32VW553/V1_MQTT_OK/GD32VW55X_Wifi_BLE_SDK/GD32VW55x_RELEASE_V1.0.2/MSDK/wpa_supplicant/src/ap\ieee802_11_ht.c **** 			host_to_le16(20);
 176              		.loc 1 69 3 is_stmt 1
  69:C:/Users/stapi/OneDrive/Desktop/GD32VW553/V1_MQTT_OK/GD32VW55X_Wifi_BLE_SDK/GD32VW55x_RELEASE_V1.0.2/MSDK/wpa_supplicant/src/ap\ieee802_11_ht.c **** 			host_to_le16(20);
 177              		.loc 1 69 46 is_stmt 0
 178 00f2 A30D04FE 		sb	zero,-5(s0)
  71:C:/Users/stapi/OneDrive/Desktop/GD32VW553/V1_MQTT_OK/GD32VW55X_Wifi_BLE_SDK/GD32VW55x_RELEASE_V1.0.2/MSDK/wpa_supplicant/src/ap\ieee802_11_ht.c **** 			host_to_le16(5);
 179              		.loc 1 71 3 is_stmt 1
  71:C:/Users/stapi/OneDrive/Desktop/GD32VW553/V1_MQTT_OK/GD32VW55X_Wifi_BLE_SDK/GD32VW55x_RELEASE_V1.0.2/MSDK/wpa_supplicant/src/ap\ieee802_11_ht.c **** 			host_to_le16(5);
 180              		.loc 1 71 48 is_stmt 0
 181 00f6 A30E04FE 		sb	zero,-3(s0)
  73:C:/Users/stapi/OneDrive/Desktop/GD32VW553/V1_MQTT_OK/GD32VW55X_Wifi_BLE_SDK/GD32VW55x_RELEASE_V1.0.2/MSDK/wpa_supplicant/src/ap\ieee802_11_ht.c **** 			host_to_le16(25);
 182              		.loc 1 73 3 is_stmt 1
  73:C:/Users/stapi/OneDrive/Desktop/GD32VW553/V1_MQTT_OK/GD32VW55X_Wifi_BLE_SDK/GD32VW55x_RELEASE_V1.0.2/MSDK/wpa_supplicant/src/ap\ieee802_11_ht.c **** 			host_to_le16(25);
 183              		.loc 1 73 40 is_stmt 0
 184 00fa 230FF4FE 		sb	a5,-2(s0)
 185 00fe A30F04FE 		sb	zero,-1(s0)
  76:C:/Users/stapi/OneDrive/Desktop/GD32VW553/V1_MQTT_OK/GD32VW55X_Wifi_BLE_SDK/GD32VW55x_RELEASE_V1.0.2/MSDK/wpa_supplicant/src/ap\ieee802_11_ht.c **** 	}
 186              		.loc 1 76 3 is_stmt 1
 187              	.LVL17:
 188 0102 61B7     		j	.L3
 189              	.LBE2:
 190              		.cfi_endproc
 191              	.LFE167:
 193              		.section	.text.hostapd_eid_ht_operation,"ax",@progbits
 194              		.align	1
 195              		.globl	hostapd_eid_ht_operation
 197              	hostapd_eid_ht_operation:
 198              	.LFB168:
  81:C:/Users/stapi/OneDrive/Desktop/GD32VW553/V1_MQTT_OK/GD32VW55X_Wifi_BLE_SDK/GD32VW55x_RELEASE_V1.0.2/MSDK/wpa_supplicant/src/ap\ieee802_11_ht.c **** 
  82:C:/Users/stapi/OneDrive/Desktop/GD32VW553/V1_MQTT_OK/GD32VW55X_Wifi_BLE_SDK/GD32VW55x_RELEASE_V1.0.2/MSDK/wpa_supplicant/src/ap\ieee802_11_ht.c **** 
  83:C:/Users/stapi/OneDrive/Desktop/GD32VW553/V1_MQTT_OK/GD32VW55X_Wifi_BLE_SDK/GD32VW55x_RELEASE_V1.0.2/MSDK/wpa_supplicant/src/ap\ieee802_11_ht.c **** u8 * hostapd_eid_ht_operation(struct hostapd_data *hapd, u8 *eid)
  84:C:/Users/stapi/OneDrive/Desktop/GD32VW553/V1_MQTT_OK/GD32VW55X_Wifi_BLE_SDK/GD32VW55x_RELEASE_V1.0.2/MSDK/wpa_supplicant/src/ap\ieee802_11_ht.c **** {
 199              		.loc 1 84 1
 200              		.cfi_startproc
 201              	.LVL18:
 202 0000 17030000 		call	t0,__riscv_save_2
 202      E7020300 
 203              		.cfi_offset 9, -12
 204              		.cfi_offset 8, -8
 205              		.cfi_offset 1, -4
 206              		.cfi_def_cfa_offset 16
  85:C:/Users/stapi/OneDrive/Desktop/GD32VW553/V1_MQTT_OK/GD32VW55X_Wifi_BLE_SDK/GD32VW55x_RELEASE_V1.0.2/MSDK/wpa_supplicant/src/ap\ieee802_11_ht.c **** 	struct ieee80211_ht_operation *oper;
 207              		.loc 1 85 2
  86:C:/Users/stapi/OneDrive/Desktop/GD32VW553/V1_MQTT_OK/GD32VW55X_Wifi_BLE_SDK/GD32VW55x_RELEASE_V1.0.2/MSDK/wpa_supplicant/src/ap\ieee802_11_ht.c **** 	u8 *pos = eid;
 208              		.loc 1 86 2
  87:C:/Users/stapi/OneDrive/Desktop/GD32VW553/V1_MQTT_OK/GD32VW55X_Wifi_BLE_SDK/GD32VW55x_RELEASE_V1.0.2/MSDK/wpa_supplicant/src/ap\ieee802_11_ht.c **** 
  88:C:/Users/stapi/OneDrive/Desktop/GD32VW553/V1_MQTT_OK/GD32VW55X_Wifi_BLE_SDK/GD32VW55x_RELEASE_V1.0.2/MSDK/wpa_supplicant/src/ap\ieee802_11_ht.c **** 	if (!hapd->iconf->ieee80211n || hapd->conf->disable_11n ||
 209              		.loc 1 88 11 is_stmt 0
 210 0008 5C41     		lw	a5,4(a0)
  84:C:/Users/stapi/OneDrive/Desktop/GD32VW553/V1_MQTT_OK/GD32VW55X_Wifi_BLE_SDK/GD32VW55x_RELEASE_V1.0.2/MSDK/wpa_supplicant/src/ap\ieee802_11_ht.c **** 	struct ieee80211_ht_operation *oper;
 211              		.loc 1 84 1
 212 000a 2E84     		mv	s0,a1
 213              	.LVL19:
 214              		.loc 1 88 2 is_stmt 1
 215              		.loc 1 88 5 is_stmt 0
 216 000c 03A70712 		lw	a4,288(a5)
 217 0010 39CB     		beq	a4,zero,.L12
 218              		.loc 1 88 44 discriminator 1
 219 0012 1845     		lw	a4,8(a0)
 220 0014 AA84     		mv	s1,a0
 221              		.loc 1 88 31 discriminator 1
 222 0016 03478729 		lbu	a4,664(a4)
 223 001a 31E7     		bne	a4,zero,.L12
  89:C:/Users/stapi/OneDrive/Desktop/GD32VW553/V1_MQTT_OK/GD32VW55X_Wifi_BLE_SDK/GD32VW55x_RELEASE_V1.0.2/MSDK/wpa_supplicant/src/ap\ieee802_11_ht.c **** 	    is_6ghz_op_class(hapd->iconf->op_class))
 224              		.loc 1 89 6 discriminator 2
 225 001c 03C58701 		lbu	a0,24(a5)
 226              	.LVL20:
 227 0020 97000000 		call	is_6ghz_op_class
 227      E7800000 
 228              	.LVL21:
  88:C:/Users/stapi/OneDrive/Desktop/GD32VW553/V1_MQTT_OK/GD32VW55X_Wifi_BLE_SDK/GD32VW55x_RELEASE_V1.0.2/MSDK/wpa_supplicant/src/ap\ieee802_11_ht.c **** 	    is_6ghz_op_class(hapd->iconf->op_class))
 229              		.loc 1 88 58 discriminator 2
 230 0028 1DED     		bne	a0,zero,.L12
  90:C:/Users/stapi/OneDrive/Desktop/GD32VW553/V1_MQTT_OK/GD32VW55X_Wifi_BLE_SDK/GD32VW55x_RELEASE_V1.0.2/MSDK/wpa_supplicant/src/ap\ieee802_11_ht.c **** 		return eid;
  91:C:/Users/stapi/OneDrive/Desktop/GD32VW553/V1_MQTT_OK/GD32VW55X_Wifi_BLE_SDK/GD32VW55x_RELEASE_V1.0.2/MSDK/wpa_supplicant/src/ap\ieee802_11_ht.c **** 
  92:C:/Users/stapi/OneDrive/Desktop/GD32VW553/V1_MQTT_OK/GD32VW55X_Wifi_BLE_SDK/GD32VW55x_RELEASE_V1.0.2/MSDK/wpa_supplicant/src/ap\ieee802_11_ht.c **** 	*pos++ = WLAN_EID_HT_OPERATION;
 231              		.loc 1 92 2 is_stmt 1
 232              	.LVL22:
 233              		.loc 1 92 9 is_stmt 0
 234 002a 9307D003 		li	a5,61
 235 002e 2300F400 		sb	a5,0(s0)
  93:C:/Users/stapi/OneDrive/Desktop/GD32VW553/V1_MQTT_OK/GD32VW55X_Wifi_BLE_SDK/GD32VW55x_RELEASE_V1.0.2/MSDK/wpa_supplicant/src/ap\ieee802_11_ht.c **** 	*pos++ = sizeof(*oper);
 236              		.loc 1 93 2 is_stmt 1
 237              	.LVL23:
 238              		.loc 1 93 9 is_stmt 0
 239 0032 D947     		li	a5,22
 240 0034 A300F400 		sb	a5,1(s0)
  94:C:/Users/stapi/OneDrive/Desktop/GD32VW553/V1_MQTT_OK/GD32VW55X_Wifi_BLE_SDK/GD32VW55x_RELEASE_V1.0.2/MSDK/wpa_supplicant/src/ap\ieee802_11_ht.c **** 
  95:C:/Users/stapi/OneDrive/Desktop/GD32VW553/V1_MQTT_OK/GD32VW55X_Wifi_BLE_SDK/GD32VW55x_RELEASE_V1.0.2/MSDK/wpa_supplicant/src/ap\ieee802_11_ht.c **** 	oper = (struct ieee80211_ht_operation *) pos;
 241              		.loc 1 95 2 is_stmt 1
 242              	.LVL24:
  96:C:/Users/stapi/OneDrive/Desktop/GD32VW553/V1_MQTT_OK/GD32VW55X_Wifi_BLE_SDK/GD32VW55x_RELEASE_V1.0.2/MSDK/wpa_supplicant/src/ap\ieee802_11_ht.c **** 	os_memset(oper, 0, sizeof(*oper));
 243              		.loc 1 96 2
 244 0038 13052400 		addi	a0,s0,2
 245              	.LVL25:
 246 003c 5946     		li	a2,22
 247 003e 8145     		li	a1,0
 248 0040 97000000 		call	os_memset
 248      E7800000 
 249              	.LVL26:
  97:C:/Users/stapi/OneDrive/Desktop/GD32VW553/V1_MQTT_OK/GD32VW55X_Wifi_BLE_SDK/GD32VW55x_RELEASE_V1.0.2/MSDK/wpa_supplicant/src/ap\ieee802_11_ht.c **** 
  98:C:/Users/stapi/OneDrive/Desktop/GD32VW553/V1_MQTT_OK/GD32VW55X_Wifi_BLE_SDK/GD32VW55x_RELEASE_V1.0.2/MSDK/wpa_supplicant/src/ap\ieee802_11_ht.c **** 	oper->primary_chan = hapd->iconf->channel;
 250              		.loc 1 98 2
 251              		.loc 1 98 34 is_stmt 0
 252 0048 DC40     		lw	a5,4(s1)
  99:C:/Users/stapi/OneDrive/Desktop/GD32VW553/V1_MQTT_OK/GD32VW55X_Wifi_BLE_SDK/GD32VW55x_RELEASE_V1.0.2/MSDK/wpa_supplicant/src/ap\ieee802_11_ht.c **** 	oper->operation_mode = host_to_le16(hapd->iface->ht_op_mode);
 100:C:/Users/stapi/OneDrive/Desktop/GD32VW553/V1_MQTT_OK/GD32VW55X_Wifi_BLE_SDK/GD32VW55x_RELEASE_V1.0.2/MSDK/wpa_supplicant/src/ap\ieee802_11_ht.c **** #ifndef CONFIG_AP_NO_40MHZ_AND_MORE
 101:C:/Users/stapi/OneDrive/Desktop/GD32VW553/V1_MQTT_OK/GD32VW55X_Wifi_BLE_SDK/GD32VW55x_RELEASE_V1.0.2/MSDK/wpa_supplicant/src/ap\ieee802_11_ht.c **** 	if (hapd->iconf->secondary_channel == 1)
 102:C:/Users/stapi/OneDrive/Desktop/GD32VW553/V1_MQTT_OK/GD32VW55X_Wifi_BLE_SDK/GD32VW55x_RELEASE_V1.0.2/MSDK/wpa_supplicant/src/ap\ieee802_11_ht.c **** 		oper->ht_param |= HT_INFO_HT_PARAM_SECONDARY_CHNL_ABOVE |
 103:C:/Users/stapi/OneDrive/Desktop/GD32VW553/V1_MQTT_OK/GD32VW55X_Wifi_BLE_SDK/GD32VW55x_RELEASE_V1.0.2/MSDK/wpa_supplicant/src/ap\ieee802_11_ht.c **** 			HT_INFO_HT_PARAM_STA_CHNL_WIDTH;
 104:C:/Users/stapi/OneDrive/Desktop/GD32VW553/V1_MQTT_OK/GD32VW55X_Wifi_BLE_SDK/GD32VW55x_RELEASE_V1.0.2/MSDK/wpa_supplicant/src/ap\ieee802_11_ht.c **** 	if (hapd->iconf->secondary_channel == -1)
 105:C:/Users/stapi/OneDrive/Desktop/GD32VW553/V1_MQTT_OK/GD32VW55X_Wifi_BLE_SDK/GD32VW55x_RELEASE_V1.0.2/MSDK/wpa_supplicant/src/ap\ieee802_11_ht.c **** 		oper->ht_param |= HT_INFO_HT_PARAM_SECONDARY_CHNL_BELOW |
 106:C:/Users/stapi/OneDrive/Desktop/GD32VW553/V1_MQTT_OK/GD32VW55X_Wifi_BLE_SDK/GD32VW55x_RELEASE_V1.0.2/MSDK/wpa_supplicant/src/ap\ieee802_11_ht.c **** 			HT_INFO_HT_PARAM_STA_CHNL_WIDTH;
 107:C:/Users/stapi/OneDrive/Desktop/GD32VW553/V1_MQTT_OK/GD32VW55X_Wifi_BLE_SDK/GD32VW55x_RELEASE_V1.0.2/MSDK/wpa_supplicant/src/ap\ieee802_11_ht.c **** #endif /* CONFIG_AP_NO_40MHZ_AND_MORE */
 108:C:/Users/stapi/OneDrive/Desktop/GD32VW553/V1_MQTT_OK/GD32VW55X_Wifi_BLE_SDK/GD32VW55x_RELEASE_V1.0.2/MSDK/wpa_supplicant/src/ap\ieee802_11_ht.c **** 
 109:C:/Users/stapi/OneDrive/Desktop/GD32VW553/V1_MQTT_OK/GD32VW55X_Wifi_BLE_SDK/GD32VW55x_RELEASE_V1.0.2/MSDK/wpa_supplicant/src/ap\ieee802_11_ht.c **** 	pos += sizeof(*oper);
 253              		.loc 1 109 6
 254 004a 6104     		addi	s0,s0,24
 255              	.LVL27:
  98:C:/Users/stapi/OneDrive/Desktop/GD32VW553/V1_MQTT_OK/GD32VW55X_Wifi_BLE_SDK/GD32VW55x_RELEASE_V1.0.2/MSDK/wpa_supplicant/src/ap\ieee802_11_ht.c **** 	oper->operation_mode = host_to_le16(hapd->iface->ht_op_mode);
 256              		.loc 1 98 21
 257 004c 83C79701 		lbu	a5,25(a5)
 258 0050 2305F4FE 		sb	a5,-22(s0)
  99:C:/Users/stapi/OneDrive/Desktop/GD32VW553/V1_MQTT_OK/GD32VW55X_Wifi_BLE_SDK/GD32VW55x_RELEASE_V1.0.2/MSDK/wpa_supplicant/src/ap\ieee802_11_ht.c **** 	oper->operation_mode = host_to_le16(hapd->iface->ht_op_mode);
 259              		.loc 1 99 2 is_stmt 1
  99:C:/Users/stapi/OneDrive/Desktop/GD32VW553/V1_MQTT_OK/GD32VW55X_Wifi_BLE_SDK/GD32VW55x_RELEASE_V1.0.2/MSDK/wpa_supplicant/src/ap\ieee802_11_ht.c **** 	oper->operation_mode = host_to_le16(hapd->iface->ht_op_mode);
 260              		.loc 1 99 25 is_stmt 0
 261 0054 9C40     		lw	a5,0(s1)
  99:C:/Users/stapi/OneDrive/Desktop/GD32VW553/V1_MQTT_OK/GD32VW55X_Wifi_BLE_SDK/GD32VW55x_RELEASE_V1.0.2/MSDK/wpa_supplicant/src/ap\ieee802_11_ht.c **** 	oper->operation_mode = host_to_le16(hapd->iface->ht_op_mode);
 262              		.loc 1 99 23
 263 0056 03C7074A 		lbu	a4,1184(a5)
 264 005a 2306E4FE 		sb	a4,-20(s0)
 265 005e 83C7174A 		lbu	a5,1185(a5)
 266 0062 A306F4FE 		sb	a5,-19(s0)
 267              		.loc 1 109 2 is_stmt 1
 268              	.LVL28:
 110:C:/Users/stapi/OneDrive/Desktop/GD32VW553/V1_MQTT_OK/GD32VW55X_Wifi_BLE_SDK/GD32VW55x_RELEASE_V1.0.2/MSDK/wpa_supplicant/src/ap\ieee802_11_ht.c **** 
 111:C:/Users/stapi/OneDrive/Desktop/GD32VW553/V1_MQTT_OK/GD32VW55X_Wifi_BLE_SDK/GD32VW55x_RELEASE_V1.0.2/MSDK/wpa_supplicant/src/ap\ieee802_11_ht.c **** 	return pos;
 269              		.loc 1 111 2
 270              	.L12:
 112:C:/Users/stapi/OneDrive/Desktop/GD32VW553/V1_MQTT_OK/GD32VW55X_Wifi_BLE_SDK/GD32VW55x_RELEASE_V1.0.2/MSDK/wpa_supplicant/src/ap\ieee802_11_ht.c **** }
 271              		.loc 1 112 1 is_stmt 0
 272 0066 2285     		mv	a0,s0
 273 0068 17030000 		tail	__riscv_restore_2
 273      67000300 
 274              		.cfi_restore 9
 275              		.cfi_restore 8
 276              		.cfi_restore 1
 277              		.cfi_def_cfa_offset 0
 278              		.cfi_endproc
 279              	.LFE168:
 281              		.section	.rodata.hostapd_ht_operation_update.str1.4,"aMS",@progbits,1
 282              		.align	2
 283              	.LC0:
 284 0000 25732063 		.string	"%s current operation mode=0x%X"
 284      75727265 
 284      6E74206F 
 284      70657261 
 284      74696F6E 
 285 001f 00       		.align	2
 286              	.LC1:
 287 0020 2573206E 		.string	"%s new operation mode=0x%X changes=%d"
 287      6577206F 
 287      70657261 
 287      74696F6E 
 287      206D6F64 
 288              		.section	.text.hostapd_ht_operation_update,"ax",@progbits
 289              		.align	1
 290              		.globl	hostapd_ht_operation_update
 292              	hostapd_ht_operation_update:
 293              	.LFB169:
 113:C:/Users/stapi/OneDrive/Desktop/GD32VW553/V1_MQTT_OK/GD32VW55X_Wifi_BLE_SDK/GD32VW55x_RELEASE_V1.0.2/MSDK/wpa_supplicant/src/ap\ieee802_11_ht.c **** 
 114:C:/Users/stapi/OneDrive/Desktop/GD32VW553/V1_MQTT_OK/GD32VW55X_Wifi_BLE_SDK/GD32VW55x_RELEASE_V1.0.2/MSDK/wpa_supplicant/src/ap\ieee802_11_ht.c **** 
 115:C:/Users/stapi/OneDrive/Desktop/GD32VW553/V1_MQTT_OK/GD32VW55X_Wifi_BLE_SDK/GD32VW55x_RELEASE_V1.0.2/MSDK/wpa_supplicant/src/ap\ieee802_11_ht.c **** /*
 116:C:/Users/stapi/OneDrive/Desktop/GD32VW553/V1_MQTT_OK/GD32VW55X_Wifi_BLE_SDK/GD32VW55x_RELEASE_V1.0.2/MSDK/wpa_supplicant/src/ap\ieee802_11_ht.c **** op_mode
 117:C:/Users/stapi/OneDrive/Desktop/GD32VW553/V1_MQTT_OK/GD32VW55X_Wifi_BLE_SDK/GD32VW55x_RELEASE_V1.0.2/MSDK/wpa_supplicant/src/ap\ieee802_11_ht.c **** Set to 0 (HT pure) under the following conditions
 118:C:/Users/stapi/OneDrive/Desktop/GD32VW553/V1_MQTT_OK/GD32VW55X_Wifi_BLE_SDK/GD32VW55x_RELEASE_V1.0.2/MSDK/wpa_supplicant/src/ap\ieee802_11_ht.c **** 	- all STAs in the BSS are 20/40 MHz HT in 20/40 MHz BSS or
 119:C:/Users/stapi/OneDrive/Desktop/GD32VW553/V1_MQTT_OK/GD32VW55X_Wifi_BLE_SDK/GD32VW55x_RELEASE_V1.0.2/MSDK/wpa_supplicant/src/ap\ieee802_11_ht.c **** 	- all STAs in the BSS are 20 MHz HT in 20 MHz BSS
 120:C:/Users/stapi/OneDrive/Desktop/GD32VW553/V1_MQTT_OK/GD32VW55X_Wifi_BLE_SDK/GD32VW55x_RELEASE_V1.0.2/MSDK/wpa_supplicant/src/ap\ieee802_11_ht.c **** Set to 1 (HT non-member protection) if there may be non-HT STAs
 121:C:/Users/stapi/OneDrive/Desktop/GD32VW553/V1_MQTT_OK/GD32VW55X_Wifi_BLE_SDK/GD32VW55x_RELEASE_V1.0.2/MSDK/wpa_supplicant/src/ap\ieee802_11_ht.c **** 	in both the primary and the secondary channel
 122:C:/Users/stapi/OneDrive/Desktop/GD32VW553/V1_MQTT_OK/GD32VW55X_Wifi_BLE_SDK/GD32VW55x_RELEASE_V1.0.2/MSDK/wpa_supplicant/src/ap\ieee802_11_ht.c **** Set to 2 if only HT STAs are associated in BSS,
 123:C:/Users/stapi/OneDrive/Desktop/GD32VW553/V1_MQTT_OK/GD32VW55X_Wifi_BLE_SDK/GD32VW55x_RELEASE_V1.0.2/MSDK/wpa_supplicant/src/ap\ieee802_11_ht.c **** 	however and at least one 20 MHz HT STA is associated
 124:C:/Users/stapi/OneDrive/Desktop/GD32VW553/V1_MQTT_OK/GD32VW55X_Wifi_BLE_SDK/GD32VW55x_RELEASE_V1.0.2/MSDK/wpa_supplicant/src/ap\ieee802_11_ht.c **** Set to 3 (HT mixed mode) when one or more non-HT STAs are associated
 125:C:/Users/stapi/OneDrive/Desktop/GD32VW553/V1_MQTT_OK/GD32VW55X_Wifi_BLE_SDK/GD32VW55x_RELEASE_V1.0.2/MSDK/wpa_supplicant/src/ap\ieee802_11_ht.c **** */
 126:C:/Users/stapi/OneDrive/Desktop/GD32VW553/V1_MQTT_OK/GD32VW55X_Wifi_BLE_SDK/GD32VW55x_RELEASE_V1.0.2/MSDK/wpa_supplicant/src/ap\ieee802_11_ht.c **** int hostapd_ht_operation_update(struct hostapd_iface *iface)
 127:C:/Users/stapi/OneDrive/Desktop/GD32VW553/V1_MQTT_OK/GD32VW55X_Wifi_BLE_SDK/GD32VW55x_RELEASE_V1.0.2/MSDK/wpa_supplicant/src/ap\ieee802_11_ht.c **** {
 294              		.loc 1 127 1 is_stmt 1
 295              		.cfi_startproc
 296              	.LVL29:
 297 0000 17030000 		call	t0,__riscv_save_3
 297      E7020300 
 298              		.cfi_offset 18, -16
 299              		.cfi_offset 9, -12
 300              		.cfi_offset 8, -8
 301              		.cfi_offset 1, -4
 302              		.cfi_def_cfa_offset 16
 128:C:/Users/stapi/OneDrive/Desktop/GD32VW553/V1_MQTT_OK/GD32VW55X_Wifi_BLE_SDK/GD32VW55x_RELEASE_V1.0.2/MSDK/wpa_supplicant/src/ap\ieee802_11_ht.c **** 	u16 cur_op_mode, new_op_mode;
 303              		.loc 1 128 2
 129:C:/Users/stapi/OneDrive/Desktop/GD32VW553/V1_MQTT_OK/GD32VW55X_Wifi_BLE_SDK/GD32VW55x_RELEASE_V1.0.2/MSDK/wpa_supplicant/src/ap\ieee802_11_ht.c **** 	int op_mode_changes = 0;
 304              		.loc 1 129 2
 305              	.LVL30:
 130:C:/Users/stapi/OneDrive/Desktop/GD32VW553/V1_MQTT_OK/GD32VW55X_Wifi_BLE_SDK/GD32VW55x_RELEASE_V1.0.2/MSDK/wpa_supplicant/src/ap\ieee802_11_ht.c **** 
 131:C:/Users/stapi/OneDrive/Desktop/GD32VW553/V1_MQTT_OK/GD32VW55X_Wifi_BLE_SDK/GD32VW55x_RELEASE_V1.0.2/MSDK/wpa_supplicant/src/ap\ieee802_11_ht.c **** 	if (!iface->conf->ieee80211n || iface->conf->ht_op_mode_fixed)
 306              		.loc 1 131 2
 307              		.loc 1 131 12 is_stmt 0
 308 0008 5C45     		lw	a5,12(a0)
 309              		.loc 1 131 18
 310 000a 83A40712 		lw	s1,288(a5)
 311              		.loc 1 131 5
 312 000e D5C4     		beq	s1,zero,.L15
 313              		.loc 1 131 45 discriminator 1
 314 0010 83A48711 		lw	s1,280(a5)
 315              		.loc 1 131 31 discriminator 1
 316 0014 E1E8     		bne	s1,zero,.L26
 317              	.LBB5:
 318              	.LBB6:
 132:C:/Users/stapi/OneDrive/Desktop/GD32VW553/V1_MQTT_OK/GD32VW55X_Wifi_BLE_SDK/GD32VW55x_RELEASE_V1.0.2/MSDK/wpa_supplicant/src/ap\ieee802_11_ht.c **** 		return 0;
 133:C:/Users/stapi/OneDrive/Desktop/GD32VW553/V1_MQTT_OK/GD32VW55X_Wifi_BLE_SDK/GD32VW55x_RELEASE_V1.0.2/MSDK/wpa_supplicant/src/ap\ieee802_11_ht.c **** 
 134:C:/Users/stapi/OneDrive/Desktop/GD32VW553/V1_MQTT_OK/GD32VW55X_Wifi_BLE_SDK/GD32VW55x_RELEASE_V1.0.2/MSDK/wpa_supplicant/src/ap\ieee802_11_ht.c **** 	wpa_printf(MSG_DEBUG, "%s current operation mode=0x%X",
 319              		.loc 1 134 2
 320 0016 8356054A 		lhu	a3,1184(a0)
 321 001a 37090000 		lui	s2,%hi(.LANCHOR0)
 322 001e B7050000 		lui	a1,%hi(.LC0)
 323 0022 2A84     		mv	s0,a0
 324              	.LVL31:
 325              		.loc 1 134 2 is_stmt 1
 326 0024 13060900 		addi	a2,s2,%lo(.LANCHOR0)
 327 0028 93850500 		addi	a1,a1,%lo(.LC0)
 328 002c 0945     		li	a0,2
 329              	.LVL32:
 330 002e 97000000 		call	wpa_printf
 330      E7800000 
 331              	.LVL33:
 135:C:/Users/stapi/OneDrive/Desktop/GD32VW553/V1_MQTT_OK/GD32VW55X_Wifi_BLE_SDK/GD32VW55x_RELEASE_V1.0.2/MSDK/wpa_supplicant/src/ap\ieee802_11_ht.c **** 		   __func__, iface->ht_op_mode);
 136:C:/Users/stapi/OneDrive/Desktop/GD32VW553/V1_MQTT_OK/GD32VW55X_Wifi_BLE_SDK/GD32VW55x_RELEASE_V1.0.2/MSDK/wpa_supplicant/src/ap\ieee802_11_ht.c **** 
 137:C:/Users/stapi/OneDrive/Desktop/GD32VW553/V1_MQTT_OK/GD32VW55X_Wifi_BLE_SDK/GD32VW55x_RELEASE_V1.0.2/MSDK/wpa_supplicant/src/ap\ieee802_11_ht.c **** 	if (!(iface->ht_op_mode & HT_OPER_OP_MODE_NON_GF_HT_STAS_PRESENT)
 332              		.loc 1 137 2
 333              		.loc 1 137 13 is_stmt 0
 334 0036 8357044A 		lhu	a5,1184(s0)
 335 003a 0327C448 		lw	a4,1164(s0)
 336              		.loc 1 137 5
 337 003e 93F64700 		andi	a3,a5,4
 338 0042 C9E2     		bne	a3,zero,.L17
 138:C:/Users/stapi/OneDrive/Desktop/GD32VW553/V1_MQTT_OK/GD32VW55X_Wifi_BLE_SDK/GD32VW55x_RELEASE_V1.0.2/MSDK/wpa_supplicant/src/ap\ieee802_11_ht.c **** 	    && iface->num_sta_ht_no_gf) {
 339              		.loc 1 138 14
 340 0044 BA84     		mv	s1,a4
 139:C:/Users/stapi/OneDrive/Desktop/GD32VW553/V1_MQTT_OK/GD32VW55X_Wifi_BLE_SDK/GD32VW55x_RELEASE_V1.0.2/MSDK/wpa_supplicant/src/ap\ieee802_11_ht.c **** 		iface->ht_op_mode |= HT_OPER_OP_MODE_NON_GF_HT_STAS_PRESENT;
 341              		.loc 1 139 21
 342 0046 93E74700 		ori	a5,a5,4
 138:C:/Users/stapi/OneDrive/Desktop/GD32VW553/V1_MQTT_OK/GD32VW55X_Wifi_BLE_SDK/GD32VW55x_RELEASE_V1.0.2/MSDK/wpa_supplicant/src/ap\ieee802_11_ht.c **** 	    && iface->num_sta_ht_no_gf) {
 343              		.loc 1 138 6
 344 004a 3DEF     		bne	a4,zero,.L43
 345              	.L18:
 346              	.LVL34:
 140:C:/Users/stapi/OneDrive/Desktop/GD32VW553/V1_MQTT_OK/GD32VW55X_Wifi_BLE_SDK/GD32VW55x_RELEASE_V1.0.2/MSDK/wpa_supplicant/src/ap\ieee802_11_ht.c **** 		op_mode_changes++;
 141:C:/Users/stapi/OneDrive/Desktop/GD32VW553/V1_MQTT_OK/GD32VW55X_Wifi_BLE_SDK/GD32VW55x_RELEASE_V1.0.2/MSDK/wpa_supplicant/src/ap\ieee802_11_ht.c **** 	} else if ((iface->ht_op_mode &
 142:C:/Users/stapi/OneDrive/Desktop/GD32VW553/V1_MQTT_OK/GD32VW55X_Wifi_BLE_SDK/GD32VW55x_RELEASE_V1.0.2/MSDK/wpa_supplicant/src/ap\ieee802_11_ht.c **** 		    HT_OPER_OP_MODE_NON_GF_HT_STAS_PRESENT) &&
 143:C:/Users/stapi/OneDrive/Desktop/GD32VW553/V1_MQTT_OK/GD32VW55X_Wifi_BLE_SDK/GD32VW55x_RELEASE_V1.0.2/MSDK/wpa_supplicant/src/ap\ieee802_11_ht.c **** 		   iface->num_sta_ht_no_gf == 0) {
 144:C:/Users/stapi/OneDrive/Desktop/GD32VW553/V1_MQTT_OK/GD32VW55X_Wifi_BLE_SDK/GD32VW55x_RELEASE_V1.0.2/MSDK/wpa_supplicant/src/ap\ieee802_11_ht.c **** 		iface->ht_op_mode &= ~HT_OPER_OP_MODE_NON_GF_HT_STAS_PRESENT;
 145:C:/Users/stapi/OneDrive/Desktop/GD32VW553/V1_MQTT_OK/GD32VW55X_Wifi_BLE_SDK/GD32VW55x_RELEASE_V1.0.2/MSDK/wpa_supplicant/src/ap\ieee802_11_ht.c **** 		op_mode_changes++;
 146:C:/Users/stapi/OneDrive/Desktop/GD32VW553/V1_MQTT_OK/GD32VW55X_Wifi_BLE_SDK/GD32VW55x_RELEASE_V1.0.2/MSDK/wpa_supplicant/src/ap\ieee802_11_ht.c **** 	}
 147:C:/Users/stapi/OneDrive/Desktop/GD32VW553/V1_MQTT_OK/GD32VW55X_Wifi_BLE_SDK/GD32VW55x_RELEASE_V1.0.2/MSDK/wpa_supplicant/src/ap\ieee802_11_ht.c **** 
 148:C:/Users/stapi/OneDrive/Desktop/GD32VW553/V1_MQTT_OK/GD32VW55X_Wifi_BLE_SDK/GD32VW55x_RELEASE_V1.0.2/MSDK/wpa_supplicant/src/ap\ieee802_11_ht.c **** 	if (!(iface->ht_op_mode & HT_OPER_OP_MODE_OBSS_NON_HT_STAS_PRESENT) &&
 347              		.loc 1 148 2 is_stmt 1
 348              		.loc 1 148 13 is_stmt 0
 349 004c 0357044A 		lhu	a4,1184(s0)
 149:C:/Users/stapi/OneDrive/Desktop/GD32VW553/V1_MQTT_OK/GD32VW55X_Wifi_BLE_SDK/GD32VW55x_RELEASE_V1.0.2/MSDK/wpa_supplicant/src/ap\ieee802_11_ht.c **** 	    (iface->num_sta_no_ht || iface->olbc_ht)) {
 350              		.loc 1 149 12
 351 0050 83260449 		lw	a3,1168(s0)
 148:C:/Users/stapi/OneDrive/Desktop/GD32VW553/V1_MQTT_OK/GD32VW55X_Wifi_BLE_SDK/GD32VW55x_RELEASE_V1.0.2/MSDK/wpa_supplicant/src/ap\ieee802_11_ht.c **** 	    (iface->num_sta_no_ht || iface->olbc_ht)) {
 352              		.loc 1 148 5
 353 0054 93770701 		andi	a5,a4,16
 354 0058 A5EF     		bne	a5,zero,.L19
 148:C:/Users/stapi/OneDrive/Desktop/GD32VW553/V1_MQTT_OK/GD32VW55X_Wifi_BLE_SDK/GD32VW55x_RELEASE_V1.0.2/MSDK/wpa_supplicant/src/ap\ieee802_11_ht.c **** 	    (iface->num_sta_no_ht || iface->olbc_ht)) {
 355              		.loc 1 148 70
 356 005a 81E6     		bne	a3,zero,.L20
 357              		.loc 1 149 28
 358 005c 8327C449 		lw	a5,1180(s0)
 359 0060 81CB     		beq	a5,zero,.L23
 360              	.L20:
 150:C:/Users/stapi/OneDrive/Desktop/GD32VW553/V1_MQTT_OK/GD32VW55X_Wifi_BLE_SDK/GD32VW55x_RELEASE_V1.0.2/MSDK/wpa_supplicant/src/ap\ieee802_11_ht.c **** 		iface->ht_op_mode |= HT_OPER_OP_MODE_OBSS_NON_HT_STAS_PRESENT;
 361              		.loc 1 150 3 is_stmt 1
 362              		.loc 1 150 21 is_stmt 0
 363 0062 13670701 		ori	a4,a4,16
 364 0066 2310E44A 		sh	a4,1184(s0)
 151:C:/Users/stapi/OneDrive/Desktop/GD32VW553/V1_MQTT_OK/GD32VW55X_Wifi_BLE_SDK/GD32VW55x_RELEASE_V1.0.2/MSDK/wpa_supplicant/src/ap\ieee802_11_ht.c **** 		op_mode_changes++;
 365              		.loc 1 151 3 is_stmt 1
 366              		.loc 1 151 18 is_stmt 0
 367 006a 8504     		addi	s1,s1,1
 368              	.LVL35:
 152:C:/Users/stapi/OneDrive/Desktop/GD32VW553/V1_MQTT_OK/GD32VW55X_Wifi_BLE_SDK/GD32VW55x_RELEASE_V1.0.2/MSDK/wpa_supplicant/src/ap\ieee802_11_ht.c **** 	} else if ((iface->ht_op_mode &
 153:C:/Users/stapi/OneDrive/Desktop/GD32VW553/V1_MQTT_OK/GD32VW55X_Wifi_BLE_SDK/GD32VW55x_RELEASE_V1.0.2/MSDK/wpa_supplicant/src/ap\ieee802_11_ht.c **** 		    HT_OPER_OP_MODE_OBSS_NON_HT_STAS_PRESENT) &&
 154:C:/Users/stapi/OneDrive/Desktop/GD32VW553/V1_MQTT_OK/GD32VW55X_Wifi_BLE_SDK/GD32VW55x_RELEASE_V1.0.2/MSDK/wpa_supplicant/src/ap\ieee802_11_ht.c **** 		   (iface->num_sta_no_ht == 0 && !iface->olbc_ht)) {
 155:C:/Users/stapi/OneDrive/Desktop/GD32VW553/V1_MQTT_OK/GD32VW55X_Wifi_BLE_SDK/GD32VW55x_RELEASE_V1.0.2/MSDK/wpa_supplicant/src/ap\ieee802_11_ht.c **** 		iface->ht_op_mode &= ~HT_OPER_OP_MODE_OBSS_NON_HT_STAS_PRESENT;
 156:C:/Users/stapi/OneDrive/Desktop/GD32VW553/V1_MQTT_OK/GD32VW55X_Wifi_BLE_SDK/GD32VW55x_RELEASE_V1.0.2/MSDK/wpa_supplicant/src/ap\ieee802_11_ht.c **** 		op_mode_changes++;
 157:C:/Users/stapi/OneDrive/Desktop/GD32VW553/V1_MQTT_OK/GD32VW55X_Wifi_BLE_SDK/GD32VW55x_RELEASE_V1.0.2/MSDK/wpa_supplicant/src/ap\ieee802_11_ht.c **** 	}
 158:C:/Users/stapi/OneDrive/Desktop/GD32VW553/V1_MQTT_OK/GD32VW55X_Wifi_BLE_SDK/GD32VW55x_RELEASE_V1.0.2/MSDK/wpa_supplicant/src/ap\ieee802_11_ht.c **** 
 159:C:/Users/stapi/OneDrive/Desktop/GD32VW553/V1_MQTT_OK/GD32VW55X_Wifi_BLE_SDK/GD32VW55x_RELEASE_V1.0.2/MSDK/wpa_supplicant/src/ap\ieee802_11_ht.c **** 	if (iface->num_sta_no_ht)
 369              		.loc 1 159 2 is_stmt 1
 160:C:/Users/stapi/OneDrive/Desktop/GD32VW553/V1_MQTT_OK/GD32VW55X_Wifi_BLE_SDK/GD32VW55x_RELEASE_V1.0.2/MSDK/wpa_supplicant/src/ap\ieee802_11_ht.c **** 		new_op_mode = HT_PROT_NON_HT_MIXED;
 370              		.loc 1 160 15 is_stmt 0
 371 006c 8D47     		li	a5,3
 159:C:/Users/stapi/OneDrive/Desktop/GD32VW553/V1_MQTT_OK/GD32VW55X_Wifi_BLE_SDK/GD32VW55x_RELEASE_V1.0.2/MSDK/wpa_supplicant/src/ap\ieee802_11_ht.c **** 		new_op_mode = HT_PROT_NON_HT_MIXED;
 372              		.loc 1 159 5
 373 006e 89EE     		bne	a3,zero,.L22
 374              	.L23:
 161:C:/Users/stapi/OneDrive/Desktop/GD32VW553/V1_MQTT_OK/GD32VW55X_Wifi_BLE_SDK/GD32VW55x_RELEASE_V1.0.2/MSDK/wpa_supplicant/src/ap\ieee802_11_ht.c **** 	else if (iface->conf->secondary_channel && iface->num_sta_ht_20mhz)
 375              		.loc 1 161 7 is_stmt 1
 376              		.loc 1 161 22 is_stmt 0
 377 0070 5C44     		lw	a5,12(s0)
 378              		.loc 1 161 10
 379 0072 83A74712 		lw	a5,292(a5)
 380 0076 89C7     		beq	a5,zero,.L24
 381              		.loc 1 161 42
 382 0078 03274449 		lw	a4,1172(s0)
 162:C:/Users/stapi/OneDrive/Desktop/GD32VW553/V1_MQTT_OK/GD32VW55X_Wifi_BLE_SDK/GD32VW55x_RELEASE_V1.0.2/MSDK/wpa_supplicant/src/ap\ieee802_11_ht.c **** 		new_op_mode = HT_PROT_20MHZ_PROTECTION;
 383              		.loc 1 162 15
 384 007c 8947     		li	a5,2
 161:C:/Users/stapi/OneDrive/Desktop/GD32VW553/V1_MQTT_OK/GD32VW55X_Wifi_BLE_SDK/GD32VW55x_RELEASE_V1.0.2/MSDK/wpa_supplicant/src/ap\ieee802_11_ht.c **** 	else if (iface->conf->secondary_channel && iface->num_sta_ht_20mhz)
 385              		.loc 1 161 42
 386 007e 09E7     		bne	a4,zero,.L22
 387              	.L24:
 163:C:/Users/stapi/OneDrive/Desktop/GD32VW553/V1_MQTT_OK/GD32VW55X_Wifi_BLE_SDK/GD32VW55x_RELEASE_V1.0.2/MSDK/wpa_supplicant/src/ap\ieee802_11_ht.c **** 	else if (iface->olbc_ht)
 388              		.loc 1 163 7 is_stmt 1
 389              		.loc 1 163 10 is_stmt 0
 390 0080 8327C449 		lw	a5,1180(s0)
 160:C:/Users/stapi/OneDrive/Desktop/GD32VW553/V1_MQTT_OK/GD32VW55X_Wifi_BLE_SDK/GD32VW55x_RELEASE_V1.0.2/MSDK/wpa_supplicant/src/ap\ieee802_11_ht.c **** 	else if (iface->conf->secondary_channel && iface->num_sta_ht_20mhz)
 391              		.loc 1 160 15
 392 0084 B337F000 		snez	a5,a5
 393              	.L22:
 394              	.LVL36:
 164:C:/Users/stapi/OneDrive/Desktop/GD32VW553/V1_MQTT_OK/GD32VW55X_Wifi_BLE_SDK/GD32VW55x_RELEASE_V1.0.2/MSDK/wpa_supplicant/src/ap\ieee802_11_ht.c **** 		new_op_mode = HT_PROT_NONMEMBER_PROTECTION;
 165:C:/Users/stapi/OneDrive/Desktop/GD32VW553/V1_MQTT_OK/GD32VW55X_Wifi_BLE_SDK/GD32VW55x_RELEASE_V1.0.2/MSDK/wpa_supplicant/src/ap\ieee802_11_ht.c **** 	else
 166:C:/Users/stapi/OneDrive/Desktop/GD32VW553/V1_MQTT_OK/GD32VW55X_Wifi_BLE_SDK/GD32VW55x_RELEASE_V1.0.2/MSDK/wpa_supplicant/src/ap\ieee802_11_ht.c **** 		new_op_mode = HT_PROT_NO_PROTECTION;
 167:C:/Users/stapi/OneDrive/Desktop/GD32VW553/V1_MQTT_OK/GD32VW55X_Wifi_BLE_SDK/GD32VW55x_RELEASE_V1.0.2/MSDK/wpa_supplicant/src/ap\ieee802_11_ht.c **** 
 168:C:/Users/stapi/OneDrive/Desktop/GD32VW553/V1_MQTT_OK/GD32VW55X_Wifi_BLE_SDK/GD32VW55x_RELEASE_V1.0.2/MSDK/wpa_supplicant/src/ap\ieee802_11_ht.c **** 	cur_op_mode = iface->ht_op_mode & HT_OPER_OP_MODE_HT_PROT_MASK;
 395              		.loc 1 168 2 is_stmt 1
 396              		.loc 1 168 21 is_stmt 0
 397 0088 0357044A 		lhu	a4,1184(s0)
 398              	.LVL37:
 169:C:/Users/stapi/OneDrive/Desktop/GD32VW553/V1_MQTT_OK/GD32VW55X_Wifi_BLE_SDK/GD32VW55x_RELEASE_V1.0.2/MSDK/wpa_supplicant/src/ap\ieee802_11_ht.c **** 	if (cur_op_mode != new_op_mode) {
 399              		.loc 1 169 2 is_stmt 1
 400              		.loc 1 169 5 is_stmt 0
 401 008c 93763700 		andi	a3,a4,3
 402 0090 6387F600 		beq	a3,a5,.L25
 170:C:/Users/stapi/OneDrive/Desktop/GD32VW553/V1_MQTT_OK/GD32VW55X_Wifi_BLE_SDK/GD32VW55x_RELEASE_V1.0.2/MSDK/wpa_supplicant/src/ap\ieee802_11_ht.c **** 		iface->ht_op_mode &= ~HT_OPER_OP_MODE_HT_PROT_MASK;
 403              		.loc 1 170 3 is_stmt 1
 171:C:/Users/stapi/OneDrive/Desktop/GD32VW553/V1_MQTT_OK/GD32VW55X_Wifi_BLE_SDK/GD32VW55x_RELEASE_V1.0.2/MSDK/wpa_supplicant/src/ap\ieee802_11_ht.c **** 		iface->ht_op_mode |= new_op_mode;
 404              		.loc 1 171 3
 170:C:/Users/stapi/OneDrive/Desktop/GD32VW553/V1_MQTT_OK/GD32VW55X_Wifi_BLE_SDK/GD32VW55x_RELEASE_V1.0.2/MSDK/wpa_supplicant/src/ap\ieee802_11_ht.c **** 		iface->ht_op_mode &= ~HT_OPER_OP_MODE_HT_PROT_MASK;
 405              		.loc 1 170 21 is_stmt 0
 406 0094 719B     		andi	a4,a4,-4
 407              	.LVL38:
 408              		.loc 1 171 21
 409 0096 D98F     		or	a5,a5,a4
 410              	.LVL39:
 411 0098 2310F44A 		sh	a5,1184(s0)
 412              	.LVL40:
 172:C:/Users/stapi/OneDrive/Desktop/GD32VW553/V1_MQTT_OK/GD32VW55X_Wifi_BLE_SDK/GD32VW55x_RELEASE_V1.0.2/MSDK/wpa_supplicant/src/ap\ieee802_11_ht.c **** 		op_mode_changes++;
 413              		.loc 1 172 3 is_stmt 1
 414              		.loc 1 172 18 is_stmt 0
 415 009c 8504     		addi	s1,s1,1
 416              	.LVL41:
 417              	.L25:
 173:C:/Users/stapi/OneDrive/Desktop/GD32VW553/V1_MQTT_OK/GD32VW55X_Wifi_BLE_SDK/GD32VW55x_RELEASE_V1.0.2/MSDK/wpa_supplicant/src/ap\ieee802_11_ht.c **** 	}
 174:C:/Users/stapi/OneDrive/Desktop/GD32VW553/V1_MQTT_OK/GD32VW55X_Wifi_BLE_SDK/GD32VW55x_RELEASE_V1.0.2/MSDK/wpa_supplicant/src/ap\ieee802_11_ht.c **** 
 175:C:/Users/stapi/OneDrive/Desktop/GD32VW553/V1_MQTT_OK/GD32VW55X_Wifi_BLE_SDK/GD32VW55x_RELEASE_V1.0.2/MSDK/wpa_supplicant/src/ap\ieee802_11_ht.c **** 	wpa_printf(MSG_DEBUG, "%s new operation mode=0x%X changes=%d",
 418              		.loc 1 175 2 is_stmt 1
 419 009e 8356044A 		lhu	a3,1184(s0)
 420 00a2 B7050000 		lui	a1,%hi(.LC1)
 421 00a6 2687     		mv	a4,s1
 422 00a8 13060900 		addi	a2,s2,%lo(.LANCHOR0)
 423 00ac 93850500 		addi	a1,a1,%lo(.LC1)
 424 00b0 0945     		li	a0,2
 425 00b2 97000000 		call	wpa_printf
 425      E7800000 
 426              	.LVL42:
 176:C:/Users/stapi/OneDrive/Desktop/GD32VW553/V1_MQTT_OK/GD32VW55X_Wifi_BLE_SDK/GD32VW55x_RELEASE_V1.0.2/MSDK/wpa_supplicant/src/ap\ieee802_11_ht.c **** 		   __func__, iface->ht_op_mode, op_mode_changes);
 177:C:/Users/stapi/OneDrive/Desktop/GD32VW553/V1_MQTT_OK/GD32VW55X_Wifi_BLE_SDK/GD32VW55x_RELEASE_V1.0.2/MSDK/wpa_supplicant/src/ap\ieee802_11_ht.c **** 
 178:C:/Users/stapi/OneDrive/Desktop/GD32VW553/V1_MQTT_OK/GD32VW55X_Wifi_BLE_SDK/GD32VW55x_RELEASE_V1.0.2/MSDK/wpa_supplicant/src/ap\ieee802_11_ht.c **** 	return op_mode_changes;
 427              		.loc 1 178 2
 428              	.L15:
 429              	.LBE6:
 430              	.LBE5:
 179:C:/Users/stapi/OneDrive/Desktop/GD32VW553/V1_MQTT_OK/GD32VW55X_Wifi_BLE_SDK/GD32VW55x_RELEASE_V1.0.2/MSDK/wpa_supplicant/src/ap\ieee802_11_ht.c **** }
 431              		.loc 1 179 1 is_stmt 0
 432 00ba 2685     		mv	a0,s1
 433 00bc 17030000 		tail	__riscv_restore_3
 433      67000300 
 434              		.cfi_remember_state
 435              		.cfi_restore 18
 436              		.cfi_restore 9
 437              		.cfi_restore 8
 438              		.cfi_restore 1
 439              		.cfi_def_cfa_offset 0
 440              	.LVL43:
 441              	.L17:
 442              		.cfi_restore_state
 443              	.LBB8:
 444              	.LBB7:
 141:C:/Users/stapi/OneDrive/Desktop/GD32VW553/V1_MQTT_OK/GD32VW55X_Wifi_BLE_SDK/GD32VW55x_RELEASE_V1.0.2/MSDK/wpa_supplicant/src/ap\ieee802_11_ht.c **** 		    HT_OPER_OP_MODE_NON_GF_HT_STAS_PRESENT) &&
 445              		.loc 1 141 9 is_stmt 1
 142:C:/Users/stapi/OneDrive/Desktop/GD32VW553/V1_MQTT_OK/GD32VW55X_Wifi_BLE_SDK/GD32VW55x_RELEASE_V1.0.2/MSDK/wpa_supplicant/src/ap\ieee802_11_ht.c **** 		   iface->num_sta_ht_no_gf == 0) {
 446              		.loc 1 142 47 is_stmt 0
 447 00c4 41F7     		bne	a4,zero,.L18
 144:C:/Users/stapi/OneDrive/Desktop/GD32VW553/V1_MQTT_OK/GD32VW55X_Wifi_BLE_SDK/GD32VW55x_RELEASE_V1.0.2/MSDK/wpa_supplicant/src/ap\ieee802_11_ht.c **** 		op_mode_changes++;
 448              		.loc 1 144 3 is_stmt 1
 144:C:/Users/stapi/OneDrive/Desktop/GD32VW553/V1_MQTT_OK/GD32VW55X_Wifi_BLE_SDK/GD32VW55x_RELEASE_V1.0.2/MSDK/wpa_supplicant/src/ap\ieee802_11_ht.c **** 		op_mode_changes++;
 449              		.loc 1 144 21 is_stmt 0
 450 00c6 ED9B     		andi	a5,a5,-5
 451              	.L43:
 452 00c8 2310F44A 		sh	a5,1184(s0)
 145:C:/Users/stapi/OneDrive/Desktop/GD32VW553/V1_MQTT_OK/GD32VW55X_Wifi_BLE_SDK/GD32VW55x_RELEASE_V1.0.2/MSDK/wpa_supplicant/src/ap\ieee802_11_ht.c **** 	}
 453              		.loc 1 145 3 is_stmt 1
 454              	.LVL44:
 145:C:/Users/stapi/OneDrive/Desktop/GD32VW553/V1_MQTT_OK/GD32VW55X_Wifi_BLE_SDK/GD32VW55x_RELEASE_V1.0.2/MSDK/wpa_supplicant/src/ap\ieee802_11_ht.c **** 	}
 455              		.loc 1 145 18 is_stmt 0
 456 00cc 8544     		li	s1,1
 457 00ce BDBF     		j	.L18
 458              	.LVL45:
 459              	.L19:
 152:C:/Users/stapi/OneDrive/Desktop/GD32VW553/V1_MQTT_OK/GD32VW55X_Wifi_BLE_SDK/GD32VW55x_RELEASE_V1.0.2/MSDK/wpa_supplicant/src/ap\ieee802_11_ht.c **** 		    HT_OPER_OP_MODE_OBSS_NON_HT_STAS_PRESENT) &&
 460              		.loc 1 152 9 is_stmt 1
 160:C:/Users/stapi/OneDrive/Desktop/GD32VW553/V1_MQTT_OK/GD32VW55X_Wifi_BLE_SDK/GD32VW55x_RELEASE_V1.0.2/MSDK/wpa_supplicant/src/ap\ieee802_11_ht.c **** 	else if (iface->conf->secondary_channel && iface->num_sta_ht_20mhz)
 461              		.loc 1 160 15 is_stmt 0
 462 00d0 8D47     		li	a5,3
 153:C:/Users/stapi/OneDrive/Desktop/GD32VW553/V1_MQTT_OK/GD32VW55X_Wifi_BLE_SDK/GD32VW55x_RELEASE_V1.0.2/MSDK/wpa_supplicant/src/ap\ieee802_11_ht.c **** 		   (iface->num_sta_no_ht == 0 && !iface->olbc_ht)) {
 463              		.loc 1 153 49
 464 00d2 DDFA     		bne	a3,zero,.L22
 154:C:/Users/stapi/OneDrive/Desktop/GD32VW553/V1_MQTT_OK/GD32VW55X_Wifi_BLE_SDK/GD32VW55x_RELEASE_V1.0.2/MSDK/wpa_supplicant/src/ap\ieee802_11_ht.c **** 		iface->ht_op_mode &= ~HT_OPER_OP_MODE_OBSS_NON_HT_STAS_PRESENT;
 465              		.loc 1 154 33
 466 00d4 8327C449 		lw	a5,1180(s0)
 467 00d8 C1FF     		bne	a5,zero,.L23
 155:C:/Users/stapi/OneDrive/Desktop/GD32VW553/V1_MQTT_OK/GD32VW55X_Wifi_BLE_SDK/GD32VW55x_RELEASE_V1.0.2/MSDK/wpa_supplicant/src/ap\ieee802_11_ht.c **** 		op_mode_changes++;
 468              		.loc 1 155 3 is_stmt 1
 155:C:/Users/stapi/OneDrive/Desktop/GD32VW553/V1_MQTT_OK/GD32VW55X_Wifi_BLE_SDK/GD32VW55x_RELEASE_V1.0.2/MSDK/wpa_supplicant/src/ap\ieee802_11_ht.c **** 		op_mode_changes++;
 469              		.loc 1 155 21 is_stmt 0
 470 00da 3D9B     		andi	a4,a4,-17
 471 00dc 2310E44A 		sh	a4,1184(s0)
 156:C:/Users/stapi/OneDrive/Desktop/GD32VW553/V1_MQTT_OK/GD32VW55X_Wifi_BLE_SDK/GD32VW55x_RELEASE_V1.0.2/MSDK/wpa_supplicant/src/ap\ieee802_11_ht.c **** 	}
 472              		.loc 1 156 3 is_stmt 1
 156:C:/Users/stapi/OneDrive/Desktop/GD32VW553/V1_MQTT_OK/GD32VW55X_Wifi_BLE_SDK/GD32VW55x_RELEASE_V1.0.2/MSDK/wpa_supplicant/src/ap\ieee802_11_ht.c **** 	}
 473              		.loc 1 156 18 is_stmt 0
 474 00e0 8504     		addi	s1,s1,1
 475              	.LVL46:
 476 00e2 79B7     		j	.L23
 477              	.LVL47:
 478              	.L26:
 479              	.LBE7:
 480              	.LBE8:
 132:C:/Users/stapi/OneDrive/Desktop/GD32VW553/V1_MQTT_OK/GD32VW55X_Wifi_BLE_SDK/GD32VW55x_RELEASE_V1.0.2/MSDK/wpa_supplicant/src/ap\ieee802_11_ht.c **** 
 481              		.loc 1 132 10
 482 00e4 8144     		li	s1,0
 483 00e6 D1BF     		j	.L15
 484              		.cfi_endproc
 485              	.LFE169:
 487              		.section	.text.copy_sta_ht_capab,"ax",@progbits
 488              		.align	1
 489              		.globl	copy_sta_ht_capab
 491              	copy_sta_ht_capab:
 492              	.LFB171:
 180:C:/Users/stapi/OneDrive/Desktop/GD32VW553/V1_MQTT_OK/GD32VW55X_Wifi_BLE_SDK/GD32VW55x_RELEASE_V1.0.2/MSDK/wpa_supplicant/src/ap\ieee802_11_ht.c **** 
 181:C:/Users/stapi/OneDrive/Desktop/GD32VW553/V1_MQTT_OK/GD32VW55X_Wifi_BLE_SDK/GD32VW55x_RELEASE_V1.0.2/MSDK/wpa_supplicant/src/ap\ieee802_11_ht.c **** 
 182:C:/Users/stapi/OneDrive/Desktop/GD32VW553/V1_MQTT_OK/GD32VW55X_Wifi_BLE_SDK/GD32VW55x_RELEASE_V1.0.2/MSDK/wpa_supplicant/src/ap\ieee802_11_ht.c **** static int is_40_allowed(struct hostapd_iface *iface, int channel)
 183:C:/Users/stapi/OneDrive/Desktop/GD32VW553/V1_MQTT_OK/GD32VW55X_Wifi_BLE_SDK/GD32VW55x_RELEASE_V1.0.2/MSDK/wpa_supplicant/src/ap\ieee802_11_ht.c **** {
 184:C:/Users/stapi/OneDrive/Desktop/GD32VW553/V1_MQTT_OK/GD32VW55X_Wifi_BLE_SDK/GD32VW55x_RELEASE_V1.0.2/MSDK/wpa_supplicant/src/ap\ieee802_11_ht.c **** 	int pri_freq, sec_freq;
 185:C:/Users/stapi/OneDrive/Desktop/GD32VW553/V1_MQTT_OK/GD32VW55X_Wifi_BLE_SDK/GD32VW55x_RELEASE_V1.0.2/MSDK/wpa_supplicant/src/ap\ieee802_11_ht.c **** 	int affected_start, affected_end;
 186:C:/Users/stapi/OneDrive/Desktop/GD32VW553/V1_MQTT_OK/GD32VW55X_Wifi_BLE_SDK/GD32VW55x_RELEASE_V1.0.2/MSDK/wpa_supplicant/src/ap\ieee802_11_ht.c **** 	int pri = 2407 + 5 * channel;
 187:C:/Users/stapi/OneDrive/Desktop/GD32VW553/V1_MQTT_OK/GD32VW55X_Wifi_BLE_SDK/GD32VW55x_RELEASE_V1.0.2/MSDK/wpa_supplicant/src/ap\ieee802_11_ht.c **** 
 188:C:/Users/stapi/OneDrive/Desktop/GD32VW553/V1_MQTT_OK/GD32VW55X_Wifi_BLE_SDK/GD32VW55x_RELEASE_V1.0.2/MSDK/wpa_supplicant/src/ap\ieee802_11_ht.c **** 	if (iface->current_mode->mode != HOSTAPD_MODE_IEEE80211G)
 189:C:/Users/stapi/OneDrive/Desktop/GD32VW553/V1_MQTT_OK/GD32VW55X_Wifi_BLE_SDK/GD32VW55x_RELEASE_V1.0.2/MSDK/wpa_supplicant/src/ap\ieee802_11_ht.c **** 		return 1;
 190:C:/Users/stapi/OneDrive/Desktop/GD32VW553/V1_MQTT_OK/GD32VW55X_Wifi_BLE_SDK/GD32VW55x_RELEASE_V1.0.2/MSDK/wpa_supplicant/src/ap\ieee802_11_ht.c **** 
 191:C:/Users/stapi/OneDrive/Desktop/GD32VW553/V1_MQTT_OK/GD32VW55X_Wifi_BLE_SDK/GD32VW55x_RELEASE_V1.0.2/MSDK/wpa_supplicant/src/ap\ieee802_11_ht.c **** 	pri_freq = hostapd_hw_get_freq(iface->bss[0], iface->conf->channel);
 192:C:/Users/stapi/OneDrive/Desktop/GD32VW553/V1_MQTT_OK/GD32VW55X_Wifi_BLE_SDK/GD32VW55x_RELEASE_V1.0.2/MSDK/wpa_supplicant/src/ap\ieee802_11_ht.c **** 
 193:C:/Users/stapi/OneDrive/Desktop/GD32VW553/V1_MQTT_OK/GD32VW55X_Wifi_BLE_SDK/GD32VW55x_RELEASE_V1.0.2/MSDK/wpa_supplicant/src/ap\ieee802_11_ht.c **** 	if (iface->conf->secondary_channel > 0)
 194:C:/Users/stapi/OneDrive/Desktop/GD32VW553/V1_MQTT_OK/GD32VW55X_Wifi_BLE_SDK/GD32VW55x_RELEASE_V1.0.2/MSDK/wpa_supplicant/src/ap\ieee802_11_ht.c **** 		sec_freq = pri_freq + 20;
 195:C:/Users/stapi/OneDrive/Desktop/GD32VW553/V1_MQTT_OK/GD32VW55X_Wifi_BLE_SDK/GD32VW55x_RELEASE_V1.0.2/MSDK/wpa_supplicant/src/ap\ieee802_11_ht.c **** 	else
 196:C:/Users/stapi/OneDrive/Desktop/GD32VW553/V1_MQTT_OK/GD32VW55X_Wifi_BLE_SDK/GD32VW55x_RELEASE_V1.0.2/MSDK/wpa_supplicant/src/ap\ieee802_11_ht.c **** 		sec_freq = pri_freq - 20;
 197:C:/Users/stapi/OneDrive/Desktop/GD32VW553/V1_MQTT_OK/GD32VW55X_Wifi_BLE_SDK/GD32VW55x_RELEASE_V1.0.2/MSDK/wpa_supplicant/src/ap\ieee802_11_ht.c **** 
 198:C:/Users/stapi/OneDrive/Desktop/GD32VW553/V1_MQTT_OK/GD32VW55X_Wifi_BLE_SDK/GD32VW55x_RELEASE_V1.0.2/MSDK/wpa_supplicant/src/ap\ieee802_11_ht.c **** 	affected_start = (pri_freq + sec_freq) / 2 - 25;
 199:C:/Users/stapi/OneDrive/Desktop/GD32VW553/V1_MQTT_OK/GD32VW55X_Wifi_BLE_SDK/GD32VW55x_RELEASE_V1.0.2/MSDK/wpa_supplicant/src/ap\ieee802_11_ht.c **** 	affected_end = (pri_freq + sec_freq) / 2 + 25;
 200:C:/Users/stapi/OneDrive/Desktop/GD32VW553/V1_MQTT_OK/GD32VW55X_Wifi_BLE_SDK/GD32VW55x_RELEASE_V1.0.2/MSDK/wpa_supplicant/src/ap\ieee802_11_ht.c **** 	if ((pri < affected_start || pri > affected_end))
 201:C:/Users/stapi/OneDrive/Desktop/GD32VW553/V1_MQTT_OK/GD32VW55X_Wifi_BLE_SDK/GD32VW55x_RELEASE_V1.0.2/MSDK/wpa_supplicant/src/ap\ieee802_11_ht.c **** 		return 1; /* not within affected channel range */
 202:C:/Users/stapi/OneDrive/Desktop/GD32VW553/V1_MQTT_OK/GD32VW55X_Wifi_BLE_SDK/GD32VW55x_RELEASE_V1.0.2/MSDK/wpa_supplicant/src/ap\ieee802_11_ht.c **** 
 203:C:/Users/stapi/OneDrive/Desktop/GD32VW553/V1_MQTT_OK/GD32VW55X_Wifi_BLE_SDK/GD32VW55x_RELEASE_V1.0.2/MSDK/wpa_supplicant/src/ap\ieee802_11_ht.c **** 	wpa_printf(MSG_ERROR, "40 MHz affected channel range: [%d,%d] MHz",
 204:C:/Users/stapi/OneDrive/Desktop/GD32VW553/V1_MQTT_OK/GD32VW55X_Wifi_BLE_SDK/GD32VW55x_RELEASE_V1.0.2/MSDK/wpa_supplicant/src/ap\ieee802_11_ht.c **** 		   affected_start, affected_end);
 205:C:/Users/stapi/OneDrive/Desktop/GD32VW553/V1_MQTT_OK/GD32VW55X_Wifi_BLE_SDK/GD32VW55x_RELEASE_V1.0.2/MSDK/wpa_supplicant/src/ap\ieee802_11_ht.c **** 	wpa_printf(MSG_ERROR, "Neighboring BSS: freq=%d", pri);
 206:C:/Users/stapi/OneDrive/Desktop/GD32VW553/V1_MQTT_OK/GD32VW55X_Wifi_BLE_SDK/GD32VW55x_RELEASE_V1.0.2/MSDK/wpa_supplicant/src/ap\ieee802_11_ht.c **** 	return 0;
 207:C:/Users/stapi/OneDrive/Desktop/GD32VW553/V1_MQTT_OK/GD32VW55X_Wifi_BLE_SDK/GD32VW55x_RELEASE_V1.0.2/MSDK/wpa_supplicant/src/ap\ieee802_11_ht.c **** }
 208:C:/Users/stapi/OneDrive/Desktop/GD32VW553/V1_MQTT_OK/GD32VW55X_Wifi_BLE_SDK/GD32VW55x_RELEASE_V1.0.2/MSDK/wpa_supplicant/src/ap\ieee802_11_ht.c **** 
 209:C:/Users/stapi/OneDrive/Desktop/GD32VW553/V1_MQTT_OK/GD32VW55X_Wifi_BLE_SDK/GD32VW55x_RELEASE_V1.0.2/MSDK/wpa_supplicant/src/ap\ieee802_11_ht.c **** 
 210:C:/Users/stapi/OneDrive/Desktop/GD32VW553/V1_MQTT_OK/GD32VW55X_Wifi_BLE_SDK/GD32VW55x_RELEASE_V1.0.2/MSDK/wpa_supplicant/src/ap\ieee802_11_ht.c **** #ifndef CONFIG_AP_NO_40MHZ_AND_MORE
 211:C:/Users/stapi/OneDrive/Desktop/GD32VW553/V1_MQTT_OK/GD32VW55X_Wifi_BLE_SDK/GD32VW55x_RELEASE_V1.0.2/MSDK/wpa_supplicant/src/ap\ieee802_11_ht.c **** void hostapd_2040_coex_action(struct hostapd_data *hapd,
 212:C:/Users/stapi/OneDrive/Desktop/GD32VW553/V1_MQTT_OK/GD32VW55X_Wifi_BLE_SDK/GD32VW55x_RELEASE_V1.0.2/MSDK/wpa_supplicant/src/ap\ieee802_11_ht.c **** 			      const struct ieee80211_mgmt *mgmt, size_t len)
 213:C:/Users/stapi/OneDrive/Desktop/GD32VW553/V1_MQTT_OK/GD32VW55X_Wifi_BLE_SDK/GD32VW55x_RELEASE_V1.0.2/MSDK/wpa_supplicant/src/ap\ieee802_11_ht.c **** {
 214:C:/Users/stapi/OneDrive/Desktop/GD32VW553/V1_MQTT_OK/GD32VW55X_Wifi_BLE_SDK/GD32VW55x_RELEASE_V1.0.2/MSDK/wpa_supplicant/src/ap\ieee802_11_ht.c **** 	struct hostapd_iface *iface = hapd->iface;
 215:C:/Users/stapi/OneDrive/Desktop/GD32VW553/V1_MQTT_OK/GD32VW55X_Wifi_BLE_SDK/GD32VW55x_RELEASE_V1.0.2/MSDK/wpa_supplicant/src/ap\ieee802_11_ht.c **** 	struct ieee80211_2040_bss_coex_ie *bc_ie;
 216:C:/Users/stapi/OneDrive/Desktop/GD32VW553/V1_MQTT_OK/GD32VW55X_Wifi_BLE_SDK/GD32VW55x_RELEASE_V1.0.2/MSDK/wpa_supplicant/src/ap\ieee802_11_ht.c **** 	struct ieee80211_2040_intol_chan_report *ic_report;
 217:C:/Users/stapi/OneDrive/Desktop/GD32VW553/V1_MQTT_OK/GD32VW55X_Wifi_BLE_SDK/GD32VW55x_RELEASE_V1.0.2/MSDK/wpa_supplicant/src/ap\ieee802_11_ht.c **** 	int is_ht40_allowed = 1;
 218:C:/Users/stapi/OneDrive/Desktop/GD32VW553/V1_MQTT_OK/GD32VW55X_Wifi_BLE_SDK/GD32VW55x_RELEASE_V1.0.2/MSDK/wpa_supplicant/src/ap\ieee802_11_ht.c **** 	int i;
 219:C:/Users/stapi/OneDrive/Desktop/GD32VW553/V1_MQTT_OK/GD32VW55X_Wifi_BLE_SDK/GD32VW55x_RELEASE_V1.0.2/MSDK/wpa_supplicant/src/ap\ieee802_11_ht.c **** 	const u8 *start = (const u8 *) mgmt;
 220:C:/Users/stapi/OneDrive/Desktop/GD32VW553/V1_MQTT_OK/GD32VW55X_Wifi_BLE_SDK/GD32VW55x_RELEASE_V1.0.2/MSDK/wpa_supplicant/src/ap\ieee802_11_ht.c **** 	const u8 *data = start + IEEE80211_HDRLEN + 2;
 221:C:/Users/stapi/OneDrive/Desktop/GD32VW553/V1_MQTT_OK/GD32VW55X_Wifi_BLE_SDK/GD32VW55x_RELEASE_V1.0.2/MSDK/wpa_supplicant/src/ap\ieee802_11_ht.c **** 	struct sta_info *sta;
 222:C:/Users/stapi/OneDrive/Desktop/GD32VW553/V1_MQTT_OK/GD32VW55X_Wifi_BLE_SDK/GD32VW55x_RELEASE_V1.0.2/MSDK/wpa_supplicant/src/ap\ieee802_11_ht.c **** 
 223:C:/Users/stapi/OneDrive/Desktop/GD32VW553/V1_MQTT_OK/GD32VW55X_Wifi_BLE_SDK/GD32VW55x_RELEASE_V1.0.2/MSDK/wpa_supplicant/src/ap\ieee802_11_ht.c **** 	wpa_printf(MSG_DEBUG,
 224:C:/Users/stapi/OneDrive/Desktop/GD32VW553/V1_MQTT_OK/GD32VW55X_Wifi_BLE_SDK/GD32VW55x_RELEASE_V1.0.2/MSDK/wpa_supplicant/src/ap\ieee802_11_ht.c **** 		   "HT: Received 20/40 BSS Coexistence Management frame from "
 225:C:/Users/stapi/OneDrive/Desktop/GD32VW553/V1_MQTT_OK/GD32VW55X_Wifi_BLE_SDK/GD32VW55x_RELEASE_V1.0.2/MSDK/wpa_supplicant/src/ap\ieee802_11_ht.c **** 		   MACSTR, MAC2STR(mgmt->sa));
 226:C:/Users/stapi/OneDrive/Desktop/GD32VW553/V1_MQTT_OK/GD32VW55X_Wifi_BLE_SDK/GD32VW55x_RELEASE_V1.0.2/MSDK/wpa_supplicant/src/ap\ieee802_11_ht.c **** 
 227:C:/Users/stapi/OneDrive/Desktop/GD32VW553/V1_MQTT_OK/GD32VW55X_Wifi_BLE_SDK/GD32VW55x_RELEASE_V1.0.2/MSDK/wpa_supplicant/src/ap\ieee802_11_ht.c **** 	hostapd_logger(hapd, mgmt->sa, HOSTAPD_MODULE_IEEE80211,
 228:C:/Users/stapi/OneDrive/Desktop/GD32VW553/V1_MQTT_OK/GD32VW55X_Wifi_BLE_SDK/GD32VW55x_RELEASE_V1.0.2/MSDK/wpa_supplicant/src/ap\ieee802_11_ht.c **** 		       HOSTAPD_LEVEL_DEBUG, "hostapd_public_action - action=%d",
 229:C:/Users/stapi/OneDrive/Desktop/GD32VW553/V1_MQTT_OK/GD32VW55X_Wifi_BLE_SDK/GD32VW55x_RELEASE_V1.0.2/MSDK/wpa_supplicant/src/ap\ieee802_11_ht.c **** 		       mgmt->u.action.u.public_action.action);
 230:C:/Users/stapi/OneDrive/Desktop/GD32VW553/V1_MQTT_OK/GD32VW55X_Wifi_BLE_SDK/GD32VW55x_RELEASE_V1.0.2/MSDK/wpa_supplicant/src/ap\ieee802_11_ht.c **** 
 231:C:/Users/stapi/OneDrive/Desktop/GD32VW553/V1_MQTT_OK/GD32VW55X_Wifi_BLE_SDK/GD32VW55x_RELEASE_V1.0.2/MSDK/wpa_supplicant/src/ap\ieee802_11_ht.c **** 	if (!(iface->conf->ht_capab & HT_CAP_INFO_SUPP_CHANNEL_WIDTH_SET)) {
 232:C:/Users/stapi/OneDrive/Desktop/GD32VW553/V1_MQTT_OK/GD32VW55X_Wifi_BLE_SDK/GD32VW55x_RELEASE_V1.0.2/MSDK/wpa_supplicant/src/ap\ieee802_11_ht.c **** 		wpa_printf(MSG_DEBUG,
 233:C:/Users/stapi/OneDrive/Desktop/GD32VW553/V1_MQTT_OK/GD32VW55X_Wifi_BLE_SDK/GD32VW55x_RELEASE_V1.0.2/MSDK/wpa_supplicant/src/ap\ieee802_11_ht.c **** 			   "Ignore 20/40 BSS Coexistence Management frame since 40 MHz capability is not enabled");
 234:C:/Users/stapi/OneDrive/Desktop/GD32VW553/V1_MQTT_OK/GD32VW55X_Wifi_BLE_SDK/GD32VW55x_RELEASE_V1.0.2/MSDK/wpa_supplicant/src/ap\ieee802_11_ht.c **** 		return;
 235:C:/Users/stapi/OneDrive/Desktop/GD32VW553/V1_MQTT_OK/GD32VW55X_Wifi_BLE_SDK/GD32VW55x_RELEASE_V1.0.2/MSDK/wpa_supplicant/src/ap\ieee802_11_ht.c **** 	}
 236:C:/Users/stapi/OneDrive/Desktop/GD32VW553/V1_MQTT_OK/GD32VW55X_Wifi_BLE_SDK/GD32VW55x_RELEASE_V1.0.2/MSDK/wpa_supplicant/src/ap\ieee802_11_ht.c **** 
 237:C:/Users/stapi/OneDrive/Desktop/GD32VW553/V1_MQTT_OK/GD32VW55X_Wifi_BLE_SDK/GD32VW55x_RELEASE_V1.0.2/MSDK/wpa_supplicant/src/ap\ieee802_11_ht.c **** 	if (len < IEEE80211_HDRLEN + 2 + sizeof(*bc_ie)) {
 238:C:/Users/stapi/OneDrive/Desktop/GD32VW553/V1_MQTT_OK/GD32VW55X_Wifi_BLE_SDK/GD32VW55x_RELEASE_V1.0.2/MSDK/wpa_supplicant/src/ap\ieee802_11_ht.c **** 		wpa_printf(MSG_DEBUG,
 239:C:/Users/stapi/OneDrive/Desktop/GD32VW553/V1_MQTT_OK/GD32VW55X_Wifi_BLE_SDK/GD32VW55x_RELEASE_V1.0.2/MSDK/wpa_supplicant/src/ap\ieee802_11_ht.c **** 			   "Ignore too short 20/40 BSS Coexistence Management frame");
 240:C:/Users/stapi/OneDrive/Desktop/GD32VW553/V1_MQTT_OK/GD32VW55X_Wifi_BLE_SDK/GD32VW55x_RELEASE_V1.0.2/MSDK/wpa_supplicant/src/ap\ieee802_11_ht.c **** 		return;
 241:C:/Users/stapi/OneDrive/Desktop/GD32VW553/V1_MQTT_OK/GD32VW55X_Wifi_BLE_SDK/GD32VW55x_RELEASE_V1.0.2/MSDK/wpa_supplicant/src/ap\ieee802_11_ht.c **** 	}
 242:C:/Users/stapi/OneDrive/Desktop/GD32VW553/V1_MQTT_OK/GD32VW55X_Wifi_BLE_SDK/GD32VW55x_RELEASE_V1.0.2/MSDK/wpa_supplicant/src/ap\ieee802_11_ht.c **** 
 243:C:/Users/stapi/OneDrive/Desktop/GD32VW553/V1_MQTT_OK/GD32VW55X_Wifi_BLE_SDK/GD32VW55x_RELEASE_V1.0.2/MSDK/wpa_supplicant/src/ap\ieee802_11_ht.c **** 	/* 20/40 BSS Coexistence element */
 244:C:/Users/stapi/OneDrive/Desktop/GD32VW553/V1_MQTT_OK/GD32VW55X_Wifi_BLE_SDK/GD32VW55x_RELEASE_V1.0.2/MSDK/wpa_supplicant/src/ap\ieee802_11_ht.c **** 	bc_ie = (struct ieee80211_2040_bss_coex_ie *) data;
 245:C:/Users/stapi/OneDrive/Desktop/GD32VW553/V1_MQTT_OK/GD32VW55X_Wifi_BLE_SDK/GD32VW55x_RELEASE_V1.0.2/MSDK/wpa_supplicant/src/ap\ieee802_11_ht.c **** 	if (bc_ie->element_id != WLAN_EID_20_40_BSS_COEXISTENCE ||
 246:C:/Users/stapi/OneDrive/Desktop/GD32VW553/V1_MQTT_OK/GD32VW55X_Wifi_BLE_SDK/GD32VW55x_RELEASE_V1.0.2/MSDK/wpa_supplicant/src/ap\ieee802_11_ht.c **** 	    bc_ie->length < 1) {
 247:C:/Users/stapi/OneDrive/Desktop/GD32VW553/V1_MQTT_OK/GD32VW55X_Wifi_BLE_SDK/GD32VW55x_RELEASE_V1.0.2/MSDK/wpa_supplicant/src/ap\ieee802_11_ht.c **** 		wpa_printf(MSG_DEBUG, "Unexpected IE (%u,%u) in coex report",
 248:C:/Users/stapi/OneDrive/Desktop/GD32VW553/V1_MQTT_OK/GD32VW55X_Wifi_BLE_SDK/GD32VW55x_RELEASE_V1.0.2/MSDK/wpa_supplicant/src/ap\ieee802_11_ht.c **** 			   bc_ie->element_id, bc_ie->length);
 249:C:/Users/stapi/OneDrive/Desktop/GD32VW553/V1_MQTT_OK/GD32VW55X_Wifi_BLE_SDK/GD32VW55x_RELEASE_V1.0.2/MSDK/wpa_supplicant/src/ap\ieee802_11_ht.c **** 		return;
 250:C:/Users/stapi/OneDrive/Desktop/GD32VW553/V1_MQTT_OK/GD32VW55X_Wifi_BLE_SDK/GD32VW55x_RELEASE_V1.0.2/MSDK/wpa_supplicant/src/ap\ieee802_11_ht.c **** 	}
 251:C:/Users/stapi/OneDrive/Desktop/GD32VW553/V1_MQTT_OK/GD32VW55X_Wifi_BLE_SDK/GD32VW55x_RELEASE_V1.0.2/MSDK/wpa_supplicant/src/ap\ieee802_11_ht.c **** 	if (len < IEEE80211_HDRLEN + 2 + 2 + bc_ie->length) {
 252:C:/Users/stapi/OneDrive/Desktop/GD32VW553/V1_MQTT_OK/GD32VW55X_Wifi_BLE_SDK/GD32VW55x_RELEASE_V1.0.2/MSDK/wpa_supplicant/src/ap\ieee802_11_ht.c **** 		wpa_printf(MSG_DEBUG,
 253:C:/Users/stapi/OneDrive/Desktop/GD32VW553/V1_MQTT_OK/GD32VW55X_Wifi_BLE_SDK/GD32VW55x_RELEASE_V1.0.2/MSDK/wpa_supplicant/src/ap\ieee802_11_ht.c **** 			   "Truncated 20/40 BSS Coexistence element");
 254:C:/Users/stapi/OneDrive/Desktop/GD32VW553/V1_MQTT_OK/GD32VW55X_Wifi_BLE_SDK/GD32VW55x_RELEASE_V1.0.2/MSDK/wpa_supplicant/src/ap\ieee802_11_ht.c **** 		return;
 255:C:/Users/stapi/OneDrive/Desktop/GD32VW553/V1_MQTT_OK/GD32VW55X_Wifi_BLE_SDK/GD32VW55x_RELEASE_V1.0.2/MSDK/wpa_supplicant/src/ap\ieee802_11_ht.c **** 	}
 256:C:/Users/stapi/OneDrive/Desktop/GD32VW553/V1_MQTT_OK/GD32VW55X_Wifi_BLE_SDK/GD32VW55x_RELEASE_V1.0.2/MSDK/wpa_supplicant/src/ap\ieee802_11_ht.c **** 	data += 2 + bc_ie->length;
 257:C:/Users/stapi/OneDrive/Desktop/GD32VW553/V1_MQTT_OK/GD32VW55X_Wifi_BLE_SDK/GD32VW55x_RELEASE_V1.0.2/MSDK/wpa_supplicant/src/ap\ieee802_11_ht.c **** 
 258:C:/Users/stapi/OneDrive/Desktop/GD32VW553/V1_MQTT_OK/GD32VW55X_Wifi_BLE_SDK/GD32VW55x_RELEASE_V1.0.2/MSDK/wpa_supplicant/src/ap\ieee802_11_ht.c **** 	wpa_printf(MSG_DEBUG,
 259:C:/Users/stapi/OneDrive/Desktop/GD32VW553/V1_MQTT_OK/GD32VW55X_Wifi_BLE_SDK/GD32VW55x_RELEASE_V1.0.2/MSDK/wpa_supplicant/src/ap\ieee802_11_ht.c **** 		   "20/40 BSS Coexistence Information field: 0x%x (%s%s%s%s%s%s)",
 260:C:/Users/stapi/OneDrive/Desktop/GD32VW553/V1_MQTT_OK/GD32VW55X_Wifi_BLE_SDK/GD32VW55x_RELEASE_V1.0.2/MSDK/wpa_supplicant/src/ap\ieee802_11_ht.c **** 		   bc_ie->coex_param,
 261:C:/Users/stapi/OneDrive/Desktop/GD32VW553/V1_MQTT_OK/GD32VW55X_Wifi_BLE_SDK/GD32VW55x_RELEASE_V1.0.2/MSDK/wpa_supplicant/src/ap\ieee802_11_ht.c **** 		   (bc_ie->coex_param & BIT(0)) ? "[InfoReq]" : "",
 262:C:/Users/stapi/OneDrive/Desktop/GD32VW553/V1_MQTT_OK/GD32VW55X_Wifi_BLE_SDK/GD32VW55x_RELEASE_V1.0.2/MSDK/wpa_supplicant/src/ap\ieee802_11_ht.c **** 		   (bc_ie->coex_param & BIT(1)) ? "[40MHzIntolerant]" : "",
 263:C:/Users/stapi/OneDrive/Desktop/GD32VW553/V1_MQTT_OK/GD32VW55X_Wifi_BLE_SDK/GD32VW55x_RELEASE_V1.0.2/MSDK/wpa_supplicant/src/ap\ieee802_11_ht.c **** 		   (bc_ie->coex_param & BIT(2)) ? "[20MHzBSSWidthReq]" : "",
 264:C:/Users/stapi/OneDrive/Desktop/GD32VW553/V1_MQTT_OK/GD32VW55X_Wifi_BLE_SDK/GD32VW55x_RELEASE_V1.0.2/MSDK/wpa_supplicant/src/ap\ieee802_11_ht.c **** 		   (bc_ie->coex_param & BIT(3)) ? "[OBSSScanExemptionReq]" : "",
 265:C:/Users/stapi/OneDrive/Desktop/GD32VW553/V1_MQTT_OK/GD32VW55X_Wifi_BLE_SDK/GD32VW55x_RELEASE_V1.0.2/MSDK/wpa_supplicant/src/ap\ieee802_11_ht.c **** 		   (bc_ie->coex_param & BIT(4)) ?
 266:C:/Users/stapi/OneDrive/Desktop/GD32VW553/V1_MQTT_OK/GD32VW55X_Wifi_BLE_SDK/GD32VW55x_RELEASE_V1.0.2/MSDK/wpa_supplicant/src/ap\ieee802_11_ht.c **** 		   "[OBSSScanExemptionGrant]" : "",
 267:C:/Users/stapi/OneDrive/Desktop/GD32VW553/V1_MQTT_OK/GD32VW55X_Wifi_BLE_SDK/GD32VW55x_RELEASE_V1.0.2/MSDK/wpa_supplicant/src/ap\ieee802_11_ht.c **** 		   (bc_ie->coex_param & (BIT(5) | BIT(6) | BIT(7))) ?
 268:C:/Users/stapi/OneDrive/Desktop/GD32VW553/V1_MQTT_OK/GD32VW55X_Wifi_BLE_SDK/GD32VW55x_RELEASE_V1.0.2/MSDK/wpa_supplicant/src/ap\ieee802_11_ht.c **** 		   "[Reserved]" : "");
 269:C:/Users/stapi/OneDrive/Desktop/GD32VW553/V1_MQTT_OK/GD32VW55X_Wifi_BLE_SDK/GD32VW55x_RELEASE_V1.0.2/MSDK/wpa_supplicant/src/ap\ieee802_11_ht.c **** 
 270:C:/Users/stapi/OneDrive/Desktop/GD32VW553/V1_MQTT_OK/GD32VW55X_Wifi_BLE_SDK/GD32VW55x_RELEASE_V1.0.2/MSDK/wpa_supplicant/src/ap\ieee802_11_ht.c **** 	if (bc_ie->coex_param & WLAN_20_40_BSS_COEX_20MHZ_WIDTH_REQ) {
 271:C:/Users/stapi/OneDrive/Desktop/GD32VW553/V1_MQTT_OK/GD32VW55X_Wifi_BLE_SDK/GD32VW55x_RELEASE_V1.0.2/MSDK/wpa_supplicant/src/ap\ieee802_11_ht.c **** 		/* Intra-BSS communication prohibiting 20/40 MHz BSS operation
 272:C:/Users/stapi/OneDrive/Desktop/GD32VW553/V1_MQTT_OK/GD32VW55X_Wifi_BLE_SDK/GD32VW55x_RELEASE_V1.0.2/MSDK/wpa_supplicant/src/ap\ieee802_11_ht.c **** 		 */
 273:C:/Users/stapi/OneDrive/Desktop/GD32VW553/V1_MQTT_OK/GD32VW55X_Wifi_BLE_SDK/GD32VW55x_RELEASE_V1.0.2/MSDK/wpa_supplicant/src/ap\ieee802_11_ht.c **** 		sta = ap_get_sta(hapd, mgmt->sa);
 274:C:/Users/stapi/OneDrive/Desktop/GD32VW553/V1_MQTT_OK/GD32VW55X_Wifi_BLE_SDK/GD32VW55x_RELEASE_V1.0.2/MSDK/wpa_supplicant/src/ap\ieee802_11_ht.c **** 		if (!sta || !(sta->flags & WLAN_STA_ASSOC)) {
 275:C:/Users/stapi/OneDrive/Desktop/GD32VW553/V1_MQTT_OK/GD32VW55X_Wifi_BLE_SDK/GD32VW55x_RELEASE_V1.0.2/MSDK/wpa_supplicant/src/ap\ieee802_11_ht.c **** 			wpa_printf(MSG_DEBUG,
 276:C:/Users/stapi/OneDrive/Desktop/GD32VW553/V1_MQTT_OK/GD32VW55X_Wifi_BLE_SDK/GD32VW55x_RELEASE_V1.0.2/MSDK/wpa_supplicant/src/ap\ieee802_11_ht.c **** 				   "Ignore intra-BSS 20/40 BSS Coexistence Management frame from not-associated STA");
 277:C:/Users/stapi/OneDrive/Desktop/GD32VW553/V1_MQTT_OK/GD32VW55X_Wifi_BLE_SDK/GD32VW55x_RELEASE_V1.0.2/MSDK/wpa_supplicant/src/ap\ieee802_11_ht.c **** 			return;
 278:C:/Users/stapi/OneDrive/Desktop/GD32VW553/V1_MQTT_OK/GD32VW55X_Wifi_BLE_SDK/GD32VW55x_RELEASE_V1.0.2/MSDK/wpa_supplicant/src/ap\ieee802_11_ht.c **** 		}
 279:C:/Users/stapi/OneDrive/Desktop/GD32VW553/V1_MQTT_OK/GD32VW55X_Wifi_BLE_SDK/GD32VW55x_RELEASE_V1.0.2/MSDK/wpa_supplicant/src/ap\ieee802_11_ht.c **** 
 280:C:/Users/stapi/OneDrive/Desktop/GD32VW553/V1_MQTT_OK/GD32VW55X_Wifi_BLE_SDK/GD32VW55x_RELEASE_V1.0.2/MSDK/wpa_supplicant/src/ap\ieee802_11_ht.c **** 		hostapd_logger(hapd, mgmt->sa,
 281:C:/Users/stapi/OneDrive/Desktop/GD32VW553/V1_MQTT_OK/GD32VW55X_Wifi_BLE_SDK/GD32VW55x_RELEASE_V1.0.2/MSDK/wpa_supplicant/src/ap\ieee802_11_ht.c **** 			       HOSTAPD_MODULE_IEEE80211,
 282:C:/Users/stapi/OneDrive/Desktop/GD32VW553/V1_MQTT_OK/GD32VW55X_Wifi_BLE_SDK/GD32VW55x_RELEASE_V1.0.2/MSDK/wpa_supplicant/src/ap\ieee802_11_ht.c **** 			       HOSTAPD_LEVEL_DEBUG,
 283:C:/Users/stapi/OneDrive/Desktop/GD32VW553/V1_MQTT_OK/GD32VW55X_Wifi_BLE_SDK/GD32VW55x_RELEASE_V1.0.2/MSDK/wpa_supplicant/src/ap\ieee802_11_ht.c **** 			       "20 MHz BSS width request bit is set in BSS coexistence information field");
 284:C:/Users/stapi/OneDrive/Desktop/GD32VW553/V1_MQTT_OK/GD32VW55X_Wifi_BLE_SDK/GD32VW55x_RELEASE_V1.0.2/MSDK/wpa_supplicant/src/ap\ieee802_11_ht.c **** 		is_ht40_allowed = 0;
 285:C:/Users/stapi/OneDrive/Desktop/GD32VW553/V1_MQTT_OK/GD32VW55X_Wifi_BLE_SDK/GD32VW55x_RELEASE_V1.0.2/MSDK/wpa_supplicant/src/ap\ieee802_11_ht.c **** 	}
 286:C:/Users/stapi/OneDrive/Desktop/GD32VW553/V1_MQTT_OK/GD32VW55X_Wifi_BLE_SDK/GD32VW55x_RELEASE_V1.0.2/MSDK/wpa_supplicant/src/ap\ieee802_11_ht.c **** 
 287:C:/Users/stapi/OneDrive/Desktop/GD32VW553/V1_MQTT_OK/GD32VW55X_Wifi_BLE_SDK/GD32VW55x_RELEASE_V1.0.2/MSDK/wpa_supplicant/src/ap\ieee802_11_ht.c **** 	if (bc_ie->coex_param & WLAN_20_40_BSS_COEX_40MHZ_INTOL) {
 288:C:/Users/stapi/OneDrive/Desktop/GD32VW553/V1_MQTT_OK/GD32VW55X_Wifi_BLE_SDK/GD32VW55x_RELEASE_V1.0.2/MSDK/wpa_supplicant/src/ap\ieee802_11_ht.c **** 		/* Inter-BSS communication prohibiting 20/40 MHz BSS operation
 289:C:/Users/stapi/OneDrive/Desktop/GD32VW553/V1_MQTT_OK/GD32VW55X_Wifi_BLE_SDK/GD32VW55x_RELEASE_V1.0.2/MSDK/wpa_supplicant/src/ap\ieee802_11_ht.c **** 		 */
 290:C:/Users/stapi/OneDrive/Desktop/GD32VW553/V1_MQTT_OK/GD32VW55X_Wifi_BLE_SDK/GD32VW55x_RELEASE_V1.0.2/MSDK/wpa_supplicant/src/ap\ieee802_11_ht.c **** 		hostapd_logger(hapd, mgmt->sa,
 291:C:/Users/stapi/OneDrive/Desktop/GD32VW553/V1_MQTT_OK/GD32VW55X_Wifi_BLE_SDK/GD32VW55x_RELEASE_V1.0.2/MSDK/wpa_supplicant/src/ap\ieee802_11_ht.c **** 			       HOSTAPD_MODULE_IEEE80211,
 292:C:/Users/stapi/OneDrive/Desktop/GD32VW553/V1_MQTT_OK/GD32VW55X_Wifi_BLE_SDK/GD32VW55x_RELEASE_V1.0.2/MSDK/wpa_supplicant/src/ap\ieee802_11_ht.c **** 			       HOSTAPD_LEVEL_DEBUG,
 293:C:/Users/stapi/OneDrive/Desktop/GD32VW553/V1_MQTT_OK/GD32VW55X_Wifi_BLE_SDK/GD32VW55x_RELEASE_V1.0.2/MSDK/wpa_supplicant/src/ap\ieee802_11_ht.c **** 			       "40 MHz intolerant bit is set in BSS coexistence information field");
 294:C:/Users/stapi/OneDrive/Desktop/GD32VW553/V1_MQTT_OK/GD32VW55X_Wifi_BLE_SDK/GD32VW55x_RELEASE_V1.0.2/MSDK/wpa_supplicant/src/ap\ieee802_11_ht.c **** 		is_ht40_allowed = 0;
 295:C:/Users/stapi/OneDrive/Desktop/GD32VW553/V1_MQTT_OK/GD32VW55X_Wifi_BLE_SDK/GD32VW55x_RELEASE_V1.0.2/MSDK/wpa_supplicant/src/ap\ieee802_11_ht.c **** 	}
 296:C:/Users/stapi/OneDrive/Desktop/GD32VW553/V1_MQTT_OK/GD32VW55X_Wifi_BLE_SDK/GD32VW55x_RELEASE_V1.0.2/MSDK/wpa_supplicant/src/ap\ieee802_11_ht.c **** 
 297:C:/Users/stapi/OneDrive/Desktop/GD32VW553/V1_MQTT_OK/GD32VW55X_Wifi_BLE_SDK/GD32VW55x_RELEASE_V1.0.2/MSDK/wpa_supplicant/src/ap\ieee802_11_ht.c **** 	/* 20/40 BSS Intolerant Channel Report element (zero or more times) */
 298:C:/Users/stapi/OneDrive/Desktop/GD32VW553/V1_MQTT_OK/GD32VW55X_Wifi_BLE_SDK/GD32VW55x_RELEASE_V1.0.2/MSDK/wpa_supplicant/src/ap\ieee802_11_ht.c **** 	while (start + len - data >= 3 &&
 299:C:/Users/stapi/OneDrive/Desktop/GD32VW553/V1_MQTT_OK/GD32VW55X_Wifi_BLE_SDK/GD32VW55x_RELEASE_V1.0.2/MSDK/wpa_supplicant/src/ap\ieee802_11_ht.c **** 	       data[0] == WLAN_EID_20_40_BSS_INTOLERANT && data[1] >= 1) {
 300:C:/Users/stapi/OneDrive/Desktop/GD32VW553/V1_MQTT_OK/GD32VW55X_Wifi_BLE_SDK/GD32VW55x_RELEASE_V1.0.2/MSDK/wpa_supplicant/src/ap\ieee802_11_ht.c **** 		u8 ielen = data[1];
 301:C:/Users/stapi/OneDrive/Desktop/GD32VW553/V1_MQTT_OK/GD32VW55X_Wifi_BLE_SDK/GD32VW55x_RELEASE_V1.0.2/MSDK/wpa_supplicant/src/ap\ieee802_11_ht.c **** 
 302:C:/Users/stapi/OneDrive/Desktop/GD32VW553/V1_MQTT_OK/GD32VW55X_Wifi_BLE_SDK/GD32VW55x_RELEASE_V1.0.2/MSDK/wpa_supplicant/src/ap\ieee802_11_ht.c **** 		if (ielen > start + len - data - 2) {
 303:C:/Users/stapi/OneDrive/Desktop/GD32VW553/V1_MQTT_OK/GD32VW55X_Wifi_BLE_SDK/GD32VW55x_RELEASE_V1.0.2/MSDK/wpa_supplicant/src/ap\ieee802_11_ht.c **** 			wpa_printf(MSG_DEBUG,
 304:C:/Users/stapi/OneDrive/Desktop/GD32VW553/V1_MQTT_OK/GD32VW55X_Wifi_BLE_SDK/GD32VW55x_RELEASE_V1.0.2/MSDK/wpa_supplicant/src/ap\ieee802_11_ht.c **** 				   "Truncated 20/40 BSS Intolerant Channel Report element");
 305:C:/Users/stapi/OneDrive/Desktop/GD32VW553/V1_MQTT_OK/GD32VW55X_Wifi_BLE_SDK/GD32VW55x_RELEASE_V1.0.2/MSDK/wpa_supplicant/src/ap\ieee802_11_ht.c **** 			return;
 306:C:/Users/stapi/OneDrive/Desktop/GD32VW553/V1_MQTT_OK/GD32VW55X_Wifi_BLE_SDK/GD32VW55x_RELEASE_V1.0.2/MSDK/wpa_supplicant/src/ap\ieee802_11_ht.c **** 		}
 307:C:/Users/stapi/OneDrive/Desktop/GD32VW553/V1_MQTT_OK/GD32VW55X_Wifi_BLE_SDK/GD32VW55x_RELEASE_V1.0.2/MSDK/wpa_supplicant/src/ap\ieee802_11_ht.c **** 		ic_report = (struct ieee80211_2040_intol_chan_report *) data;
 308:C:/Users/stapi/OneDrive/Desktop/GD32VW553/V1_MQTT_OK/GD32VW55X_Wifi_BLE_SDK/GD32VW55x_RELEASE_V1.0.2/MSDK/wpa_supplicant/src/ap\ieee802_11_ht.c **** 		wpa_printf(MSG_DEBUG,
 309:C:/Users/stapi/OneDrive/Desktop/GD32VW553/V1_MQTT_OK/GD32VW55X_Wifi_BLE_SDK/GD32VW55x_RELEASE_V1.0.2/MSDK/wpa_supplicant/src/ap\ieee802_11_ht.c **** 			   "20/40 BSS Intolerant Channel Report: Operating Class %u",
 310:C:/Users/stapi/OneDrive/Desktop/GD32VW553/V1_MQTT_OK/GD32VW55X_Wifi_BLE_SDK/GD32VW55x_RELEASE_V1.0.2/MSDK/wpa_supplicant/src/ap\ieee802_11_ht.c **** 			   ic_report->op_class);
 311:C:/Users/stapi/OneDrive/Desktop/GD32VW553/V1_MQTT_OK/GD32VW55X_Wifi_BLE_SDK/GD32VW55x_RELEASE_V1.0.2/MSDK/wpa_supplicant/src/ap\ieee802_11_ht.c **** 
 312:C:/Users/stapi/OneDrive/Desktop/GD32VW553/V1_MQTT_OK/GD32VW55X_Wifi_BLE_SDK/GD32VW55x_RELEASE_V1.0.2/MSDK/wpa_supplicant/src/ap\ieee802_11_ht.c **** 		/* Go through the channel report to find any BSS there in the
 313:C:/Users/stapi/OneDrive/Desktop/GD32VW553/V1_MQTT_OK/GD32VW55X_Wifi_BLE_SDK/GD32VW55x_RELEASE_V1.0.2/MSDK/wpa_supplicant/src/ap\ieee802_11_ht.c **** 		 * affected channel range */
 314:C:/Users/stapi/OneDrive/Desktop/GD32VW553/V1_MQTT_OK/GD32VW55X_Wifi_BLE_SDK/GD32VW55x_RELEASE_V1.0.2/MSDK/wpa_supplicant/src/ap\ieee802_11_ht.c **** 		for (i = 0; i < ielen - 1; i++) {
 315:C:/Users/stapi/OneDrive/Desktop/GD32VW553/V1_MQTT_OK/GD32VW55X_Wifi_BLE_SDK/GD32VW55x_RELEASE_V1.0.2/MSDK/wpa_supplicant/src/ap\ieee802_11_ht.c **** 			u8 chan = ic_report->variable[i];
 316:C:/Users/stapi/OneDrive/Desktop/GD32VW553/V1_MQTT_OK/GD32VW55X_Wifi_BLE_SDK/GD32VW55x_RELEASE_V1.0.2/MSDK/wpa_supplicant/src/ap\ieee802_11_ht.c **** 
 317:C:/Users/stapi/OneDrive/Desktop/GD32VW553/V1_MQTT_OK/GD32VW55X_Wifi_BLE_SDK/GD32VW55x_RELEASE_V1.0.2/MSDK/wpa_supplicant/src/ap\ieee802_11_ht.c **** 			if (chan == iface->conf->channel)
 318:C:/Users/stapi/OneDrive/Desktop/GD32VW553/V1_MQTT_OK/GD32VW55X_Wifi_BLE_SDK/GD32VW55x_RELEASE_V1.0.2/MSDK/wpa_supplicant/src/ap\ieee802_11_ht.c **** 				continue; /* matching own primary channel */
 319:C:/Users/stapi/OneDrive/Desktop/GD32VW553/V1_MQTT_OK/GD32VW55X_Wifi_BLE_SDK/GD32VW55x_RELEASE_V1.0.2/MSDK/wpa_supplicant/src/ap\ieee802_11_ht.c **** 			if (is_40_allowed(iface, chan))
 320:C:/Users/stapi/OneDrive/Desktop/GD32VW553/V1_MQTT_OK/GD32VW55X_Wifi_BLE_SDK/GD32VW55x_RELEASE_V1.0.2/MSDK/wpa_supplicant/src/ap\ieee802_11_ht.c **** 				continue; /* not within affected channels */
 321:C:/Users/stapi/OneDrive/Desktop/GD32VW553/V1_MQTT_OK/GD32VW55X_Wifi_BLE_SDK/GD32VW55x_RELEASE_V1.0.2/MSDK/wpa_supplicant/src/ap\ieee802_11_ht.c **** 			hostapd_logger(hapd, mgmt->sa,
 322:C:/Users/stapi/OneDrive/Desktop/GD32VW553/V1_MQTT_OK/GD32VW55X_Wifi_BLE_SDK/GD32VW55x_RELEASE_V1.0.2/MSDK/wpa_supplicant/src/ap\ieee802_11_ht.c **** 				       HOSTAPD_MODULE_IEEE80211,
 323:C:/Users/stapi/OneDrive/Desktop/GD32VW553/V1_MQTT_OK/GD32VW55X_Wifi_BLE_SDK/GD32VW55x_RELEASE_V1.0.2/MSDK/wpa_supplicant/src/ap\ieee802_11_ht.c **** 				       HOSTAPD_LEVEL_DEBUG,
 324:C:/Users/stapi/OneDrive/Desktop/GD32VW553/V1_MQTT_OK/GD32VW55X_Wifi_BLE_SDK/GD32VW55x_RELEASE_V1.0.2/MSDK/wpa_supplicant/src/ap\ieee802_11_ht.c **** 				       "20_40_INTOLERANT channel %d reported",
 325:C:/Users/stapi/OneDrive/Desktop/GD32VW553/V1_MQTT_OK/GD32VW55X_Wifi_BLE_SDK/GD32VW55x_RELEASE_V1.0.2/MSDK/wpa_supplicant/src/ap\ieee802_11_ht.c **** 				       chan);
 326:C:/Users/stapi/OneDrive/Desktop/GD32VW553/V1_MQTT_OK/GD32VW55X_Wifi_BLE_SDK/GD32VW55x_RELEASE_V1.0.2/MSDK/wpa_supplicant/src/ap\ieee802_11_ht.c **** 			is_ht40_allowed = 0;
 327:C:/Users/stapi/OneDrive/Desktop/GD32VW553/V1_MQTT_OK/GD32VW55X_Wifi_BLE_SDK/GD32VW55x_RELEASE_V1.0.2/MSDK/wpa_supplicant/src/ap\ieee802_11_ht.c **** 		}
 328:C:/Users/stapi/OneDrive/Desktop/GD32VW553/V1_MQTT_OK/GD32VW55X_Wifi_BLE_SDK/GD32VW55x_RELEASE_V1.0.2/MSDK/wpa_supplicant/src/ap\ieee802_11_ht.c **** 
 329:C:/Users/stapi/OneDrive/Desktop/GD32VW553/V1_MQTT_OK/GD32VW55X_Wifi_BLE_SDK/GD32VW55x_RELEASE_V1.0.2/MSDK/wpa_supplicant/src/ap\ieee802_11_ht.c **** 		data += 2 + ielen;
 330:C:/Users/stapi/OneDrive/Desktop/GD32VW553/V1_MQTT_OK/GD32VW55X_Wifi_BLE_SDK/GD32VW55x_RELEASE_V1.0.2/MSDK/wpa_supplicant/src/ap\ieee802_11_ht.c **** 	}
 331:C:/Users/stapi/OneDrive/Desktop/GD32VW553/V1_MQTT_OK/GD32VW55X_Wifi_BLE_SDK/GD32VW55x_RELEASE_V1.0.2/MSDK/wpa_supplicant/src/ap\ieee802_11_ht.c **** 	wpa_printf(MSG_DEBUG, "is_ht40_allowed=%d num_sta_ht40_intolerant=%d",
 332:C:/Users/stapi/OneDrive/Desktop/GD32VW553/V1_MQTT_OK/GD32VW55X_Wifi_BLE_SDK/GD32VW55x_RELEASE_V1.0.2/MSDK/wpa_supplicant/src/ap\ieee802_11_ht.c **** 		   is_ht40_allowed, iface->num_sta_ht40_intolerant);
 333:C:/Users/stapi/OneDrive/Desktop/GD32VW553/V1_MQTT_OK/GD32VW55X_Wifi_BLE_SDK/GD32VW55x_RELEASE_V1.0.2/MSDK/wpa_supplicant/src/ap\ieee802_11_ht.c **** 
 334:C:/Users/stapi/OneDrive/Desktop/GD32VW553/V1_MQTT_OK/GD32VW55X_Wifi_BLE_SDK/GD32VW55x_RELEASE_V1.0.2/MSDK/wpa_supplicant/src/ap\ieee802_11_ht.c **** 	if (!is_ht40_allowed &&
 335:C:/Users/stapi/OneDrive/Desktop/GD32VW553/V1_MQTT_OK/GD32VW55X_Wifi_BLE_SDK/GD32VW55x_RELEASE_V1.0.2/MSDK/wpa_supplicant/src/ap\ieee802_11_ht.c **** 	    (iface->drv_flags & WPA_DRIVER_FLAGS_HT_2040_COEX)) {
 336:C:/Users/stapi/OneDrive/Desktop/GD32VW553/V1_MQTT_OK/GD32VW55X_Wifi_BLE_SDK/GD32VW55x_RELEASE_V1.0.2/MSDK/wpa_supplicant/src/ap\ieee802_11_ht.c **** 		if (iface->conf->secondary_channel) {
 337:C:/Users/stapi/OneDrive/Desktop/GD32VW553/V1_MQTT_OK/GD32VW55X_Wifi_BLE_SDK/GD32VW55x_RELEASE_V1.0.2/MSDK/wpa_supplicant/src/ap\ieee802_11_ht.c **** 			hostapd_logger(hapd, mgmt->sa,
 338:C:/Users/stapi/OneDrive/Desktop/GD32VW553/V1_MQTT_OK/GD32VW55X_Wifi_BLE_SDK/GD32VW55x_RELEASE_V1.0.2/MSDK/wpa_supplicant/src/ap\ieee802_11_ht.c **** 				       HOSTAPD_MODULE_IEEE80211,
 339:C:/Users/stapi/OneDrive/Desktop/GD32VW553/V1_MQTT_OK/GD32VW55X_Wifi_BLE_SDK/GD32VW55x_RELEASE_V1.0.2/MSDK/wpa_supplicant/src/ap\ieee802_11_ht.c **** 				       HOSTAPD_LEVEL_INFO,
 340:C:/Users/stapi/OneDrive/Desktop/GD32VW553/V1_MQTT_OK/GD32VW55X_Wifi_BLE_SDK/GD32VW55x_RELEASE_V1.0.2/MSDK/wpa_supplicant/src/ap\ieee802_11_ht.c **** 				       "Switching to 20 MHz operation");
 341:C:/Users/stapi/OneDrive/Desktop/GD32VW553/V1_MQTT_OK/GD32VW55X_Wifi_BLE_SDK/GD32VW55x_RELEASE_V1.0.2/MSDK/wpa_supplicant/src/ap\ieee802_11_ht.c **** 			iface->conf->secondary_channel = 0;
 342:C:/Users/stapi/OneDrive/Desktop/GD32VW553/V1_MQTT_OK/GD32VW55X_Wifi_BLE_SDK/GD32VW55x_RELEASE_V1.0.2/MSDK/wpa_supplicant/src/ap\ieee802_11_ht.c **** 			ieee802_11_set_beacons(iface);
 343:C:/Users/stapi/OneDrive/Desktop/GD32VW553/V1_MQTT_OK/GD32VW55X_Wifi_BLE_SDK/GD32VW55x_RELEASE_V1.0.2/MSDK/wpa_supplicant/src/ap\ieee802_11_ht.c **** 		}
 344:C:/Users/stapi/OneDrive/Desktop/GD32VW553/V1_MQTT_OK/GD32VW55X_Wifi_BLE_SDK/GD32VW55x_RELEASE_V1.0.2/MSDK/wpa_supplicant/src/ap\ieee802_11_ht.c **** 		if (!iface->num_sta_ht40_intolerant &&
 345:C:/Users/stapi/OneDrive/Desktop/GD32VW553/V1_MQTT_OK/GD32VW55X_Wifi_BLE_SDK/GD32VW55x_RELEASE_V1.0.2/MSDK/wpa_supplicant/src/ap\ieee802_11_ht.c **** 		    iface->conf->obss_interval) {
 346:C:/Users/stapi/OneDrive/Desktop/GD32VW553/V1_MQTT_OK/GD32VW55X_Wifi_BLE_SDK/GD32VW55x_RELEASE_V1.0.2/MSDK/wpa_supplicant/src/ap\ieee802_11_ht.c **** 			unsigned int delay_time;
 347:C:/Users/stapi/OneDrive/Desktop/GD32VW553/V1_MQTT_OK/GD32VW55X_Wifi_BLE_SDK/GD32VW55x_RELEASE_V1.0.2/MSDK/wpa_supplicant/src/ap\ieee802_11_ht.c **** 			delay_time = OVERLAPPING_BSS_TRANS_DELAY_FACTOR *
 348:C:/Users/stapi/OneDrive/Desktop/GD32VW553/V1_MQTT_OK/GD32VW55X_Wifi_BLE_SDK/GD32VW55x_RELEASE_V1.0.2/MSDK/wpa_supplicant/src/ap\ieee802_11_ht.c **** 				iface->conf->obss_interval;
 349:C:/Users/stapi/OneDrive/Desktop/GD32VW553/V1_MQTT_OK/GD32VW55X_Wifi_BLE_SDK/GD32VW55x_RELEASE_V1.0.2/MSDK/wpa_supplicant/src/ap\ieee802_11_ht.c **** 			eloop_cancel_timeout(ap_ht2040_timeout, hapd->iface,
 350:C:/Users/stapi/OneDrive/Desktop/GD32VW553/V1_MQTT_OK/GD32VW55X_Wifi_BLE_SDK/GD32VW55x_RELEASE_V1.0.2/MSDK/wpa_supplicant/src/ap\ieee802_11_ht.c **** 					     NULL);
 351:C:/Users/stapi/OneDrive/Desktop/GD32VW553/V1_MQTT_OK/GD32VW55X_Wifi_BLE_SDK/GD32VW55x_RELEASE_V1.0.2/MSDK/wpa_supplicant/src/ap\ieee802_11_ht.c **** 			eloop_register_timeout(delay_time, 0, ap_ht2040_timeout,
 352:C:/Users/stapi/OneDrive/Desktop/GD32VW553/V1_MQTT_OK/GD32VW55X_Wifi_BLE_SDK/GD32VW55x_RELEASE_V1.0.2/MSDK/wpa_supplicant/src/ap\ieee802_11_ht.c **** 					       hapd->iface, NULL);
 353:C:/Users/stapi/OneDrive/Desktop/GD32VW553/V1_MQTT_OK/GD32VW55X_Wifi_BLE_SDK/GD32VW55x_RELEASE_V1.0.2/MSDK/wpa_supplicant/src/ap\ieee802_11_ht.c **** 			wpa_printf(MSG_DEBUG,
 354:C:/Users/stapi/OneDrive/Desktop/GD32VW553/V1_MQTT_OK/GD32VW55X_Wifi_BLE_SDK/GD32VW55x_RELEASE_V1.0.2/MSDK/wpa_supplicant/src/ap\ieee802_11_ht.c **** 				   "Reschedule HT 20/40 timeout to occur in %u seconds",
 355:C:/Users/stapi/OneDrive/Desktop/GD32VW553/V1_MQTT_OK/GD32VW55X_Wifi_BLE_SDK/GD32VW55x_RELEASE_V1.0.2/MSDK/wpa_supplicant/src/ap\ieee802_11_ht.c **** 				   delay_time);
 356:C:/Users/stapi/OneDrive/Desktop/GD32VW553/V1_MQTT_OK/GD32VW55X_Wifi_BLE_SDK/GD32VW55x_RELEASE_V1.0.2/MSDK/wpa_supplicant/src/ap\ieee802_11_ht.c **** 		}
 357:C:/Users/stapi/OneDrive/Desktop/GD32VW553/V1_MQTT_OK/GD32VW55X_Wifi_BLE_SDK/GD32VW55x_RELEASE_V1.0.2/MSDK/wpa_supplicant/src/ap\ieee802_11_ht.c **** 	}
 358:C:/Users/stapi/OneDrive/Desktop/GD32VW553/V1_MQTT_OK/GD32VW55X_Wifi_BLE_SDK/GD32VW55x_RELEASE_V1.0.2/MSDK/wpa_supplicant/src/ap\ieee802_11_ht.c **** }
 359:C:/Users/stapi/OneDrive/Desktop/GD32VW553/V1_MQTT_OK/GD32VW55X_Wifi_BLE_SDK/GD32VW55x_RELEASE_V1.0.2/MSDK/wpa_supplicant/src/ap\ieee802_11_ht.c **** #endif /* CONFIG_AP_NO_40MHZ_AND_MORE */
 360:C:/Users/stapi/OneDrive/Desktop/GD32VW553/V1_MQTT_OK/GD32VW55X_Wifi_BLE_SDK/GD32VW55x_RELEASE_V1.0.2/MSDK/wpa_supplicant/src/ap\ieee802_11_ht.c **** 
 361:C:/Users/stapi/OneDrive/Desktop/GD32VW553/V1_MQTT_OK/GD32VW55X_Wifi_BLE_SDK/GD32VW55x_RELEASE_V1.0.2/MSDK/wpa_supplicant/src/ap\ieee802_11_ht.c **** 
 362:C:/Users/stapi/OneDrive/Desktop/GD32VW553/V1_MQTT_OK/GD32VW55X_Wifi_BLE_SDK/GD32VW55x_RELEASE_V1.0.2/MSDK/wpa_supplicant/src/ap\ieee802_11_ht.c **** u16 copy_sta_ht_capab(struct hostapd_data *hapd, struct sta_info *sta,
 363:C:/Users/stapi/OneDrive/Desktop/GD32VW553/V1_MQTT_OK/GD32VW55X_Wifi_BLE_SDK/GD32VW55x_RELEASE_V1.0.2/MSDK/wpa_supplicant/src/ap\ieee802_11_ht.c **** 		      const u8 *ht_capab)
 364:C:/Users/stapi/OneDrive/Desktop/GD32VW553/V1_MQTT_OK/GD32VW55X_Wifi_BLE_SDK/GD32VW55x_RELEASE_V1.0.2/MSDK/wpa_supplicant/src/ap\ieee802_11_ht.c **** {
 493              		.loc 1 364 1 is_stmt 1
 494              		.cfi_startproc
 495              	.LVL48:
 496 0000 17030000 		call	t0,__riscv_save_1
 496      E7020300 
 497              		.cfi_offset 8, -8
 498              		.cfi_offset 1, -4
 499              		.cfi_def_cfa_offset 16
 365:C:/Users/stapi/OneDrive/Desktop/GD32VW553/V1_MQTT_OK/GD32VW55X_Wifi_BLE_SDK/GD32VW55x_RELEASE_V1.0.2/MSDK/wpa_supplicant/src/ap\ieee802_11_ht.c **** 	/*
 366:C:/Users/stapi/OneDrive/Desktop/GD32VW553/V1_MQTT_OK/GD32VW55X_Wifi_BLE_SDK/GD32VW55x_RELEASE_V1.0.2/MSDK/wpa_supplicant/src/ap\ieee802_11_ht.c **** 	 * Disable HT caps for STAs associated to no-HT BSSes, or for stations
 367:C:/Users/stapi/OneDrive/Desktop/GD32VW553/V1_MQTT_OK/GD32VW55X_Wifi_BLE_SDK/GD32VW55x_RELEASE_V1.0.2/MSDK/wpa_supplicant/src/ap\ieee802_11_ht.c **** 	 * that did not specify a valid WMM IE in the (Re)Association Request
 368:C:/Users/stapi/OneDrive/Desktop/GD32VW553/V1_MQTT_OK/GD32VW55X_Wifi_BLE_SDK/GD32VW55x_RELEASE_V1.0.2/MSDK/wpa_supplicant/src/ap\ieee802_11_ht.c **** 	 * frame.
 369:C:/Users/stapi/OneDrive/Desktop/GD32VW553/V1_MQTT_OK/GD32VW55X_Wifi_BLE_SDK/GD32VW55x_RELEASE_V1.0.2/MSDK/wpa_supplicant/src/ap\ieee802_11_ht.c **** 	 */
 370:C:/Users/stapi/OneDrive/Desktop/GD32VW553/V1_MQTT_OK/GD32VW55X_Wifi_BLE_SDK/GD32VW55x_RELEASE_V1.0.2/MSDK/wpa_supplicant/src/ap\ieee802_11_ht.c **** 	if (!ht_capab || !(sta->flags & WLAN_STA_WMM) ||
 500              		.loc 1 370 2
 364:C:/Users/stapi/OneDrive/Desktop/GD32VW553/V1_MQTT_OK/GD32VW55X_Wifi_BLE_SDK/GD32VW55x_RELEASE_V1.0.2/MSDK/wpa_supplicant/src/ap\ieee802_11_ht.c **** 	/*
 501              		.loc 1 364 1 is_stmt 0
 502 0008 2A87     		mv	a4,a0
 503              		.loc 1 370 24
 504 000a 9C51     		lw	a5,32(a1)
 371:C:/Users/stapi/OneDrive/Desktop/GD32VW553/V1_MQTT_OK/GD32VW55X_Wifi_BLE_SDK/GD32VW55x_RELEASE_V1.0.2/MSDK/wpa_supplicant/src/ap\ieee802_11_ht.c **** 	    !hapd->iconf->ieee80211n || hapd->conf->disable_11n) {
 372:C:/Users/stapi/OneDrive/Desktop/GD32VW553/V1_MQTT_OK/GD32VW55X_Wifi_BLE_SDK/GD32VW55x_RELEASE_V1.0.2/MSDK/wpa_supplicant/src/ap\ieee802_11_ht.c **** 		sta->flags &= ~WLAN_STA_HT;
 373:C:/Users/stapi/OneDrive/Desktop/GD32VW553/V1_MQTT_OK/GD32VW55X_Wifi_BLE_SDK/GD32VW55x_RELEASE_V1.0.2/MSDK/wpa_supplicant/src/ap\ieee802_11_ht.c **** 		os_free(sta->ht_capabilities);
 374:C:/Users/stapi/OneDrive/Desktop/GD32VW553/V1_MQTT_OK/GD32VW55X_Wifi_BLE_SDK/GD32VW55x_RELEASE_V1.0.2/MSDK/wpa_supplicant/src/ap\ieee802_11_ht.c **** 		sta->ht_capabilities = NULL;
 375:C:/Users/stapi/OneDrive/Desktop/GD32VW553/V1_MQTT_OK/GD32VW55X_Wifi_BLE_SDK/GD32VW55x_RELEASE_V1.0.2/MSDK/wpa_supplicant/src/ap\ieee802_11_ht.c **** 		return WLAN_STATUS_SUCCESS;
 376:C:/Users/stapi/OneDrive/Desktop/GD32VW553/V1_MQTT_OK/GD32VW55X_Wifi_BLE_SDK/GD32VW55x_RELEASE_V1.0.2/MSDK/wpa_supplicant/src/ap\ieee802_11_ht.c **** 	}
 377:C:/Users/stapi/OneDrive/Desktop/GD32VW553/V1_MQTT_OK/GD32VW55X_Wifi_BLE_SDK/GD32VW55x_RELEASE_V1.0.2/MSDK/wpa_supplicant/src/ap\ieee802_11_ht.c **** 
 378:C:/Users/stapi/OneDrive/Desktop/GD32VW553/V1_MQTT_OK/GD32VW55X_Wifi_BLE_SDK/GD32VW55x_RELEASE_V1.0.2/MSDK/wpa_supplicant/src/ap\ieee802_11_ht.c **** 	if (sta->ht_capabilities == NULL) {
 505              		.loc 1 378 9
 506 000c 03A5C50B 		lw	a0,188(a1)
 507              	.LVL49:
 364:C:/Users/stapi/OneDrive/Desktop/GD32VW553/V1_MQTT_OK/GD32VW55X_Wifi_BLE_SDK/GD32VW55x_RELEASE_V1.0.2/MSDK/wpa_supplicant/src/ap\ieee802_11_ht.c **** 	/*
 508              		.loc 1 364 1
 509 0010 4111     		addi	sp,sp,-16
 510              		.cfi_def_cfa_offset 32
 364:C:/Users/stapi/OneDrive/Desktop/GD32VW553/V1_MQTT_OK/GD32VW55X_Wifi_BLE_SDK/GD32VW55x_RELEASE_V1.0.2/MSDK/wpa_supplicant/src/ap\ieee802_11_ht.c **** 	/*
 511              		.loc 1 364 1
 512 0012 2E84     		mv	s0,a1
 370:C:/Users/stapi/OneDrive/Desktop/GD32VW553/V1_MQTT_OK/GD32VW55X_Wifi_BLE_SDK/GD32VW55x_RELEASE_V1.0.2/MSDK/wpa_supplicant/src/ap\ieee802_11_ht.c **** 	    !hapd->iconf->ieee80211n || hapd->conf->disable_11n) {
 513              		.loc 1 370 5
 514 0014 01CE     		beq	a2,zero,.L45
 370:C:/Users/stapi/OneDrive/Desktop/GD32VW553/V1_MQTT_OK/GD32VW55X_Wifi_BLE_SDK/GD32VW55x_RELEASE_V1.0.2/MSDK/wpa_supplicant/src/ap\ieee802_11_ht.c **** 	    !hapd->iconf->ieee80211n || hapd->conf->disable_11n) {
 515              		.loc 1 370 32 discriminator 1
 516 0016 93F60720 		andi	a3,a5,512
 370:C:/Users/stapi/OneDrive/Desktop/GD32VW553/V1_MQTT_OK/GD32VW55X_Wifi_BLE_SDK/GD32VW55x_RELEASE_V1.0.2/MSDK/wpa_supplicant/src/ap\ieee802_11_ht.c **** 	    !hapd->iconf->ieee80211n || hapd->conf->disable_11n) {
 517              		.loc 1 370 16 discriminator 1
 518 001a 89CA     		beq	a3,zero,.L45
 371:C:/Users/stapi/OneDrive/Desktop/GD32VW553/V1_MQTT_OK/GD32VW55X_Wifi_BLE_SDK/GD32VW55x_RELEASE_V1.0.2/MSDK/wpa_supplicant/src/ap\ieee802_11_ht.c **** 	    !hapd->iconf->ieee80211n || hapd->conf->disable_11n) {
 519              		.loc 1 371 18 discriminator 2
 520 001c 5443     		lw	a3,4(a4)
 370:C:/Users/stapi/OneDrive/Desktop/GD32VW553/V1_MQTT_OK/GD32VW55X_Wifi_BLE_SDK/GD32VW55x_RELEASE_V1.0.2/MSDK/wpa_supplicant/src/ap\ieee802_11_ht.c **** 	    !hapd->iconf->ieee80211n || hapd->conf->disable_11n) {
 521              		.loc 1 370 48 discriminator 2
 522 001e 83A60612 		lw	a3,288(a3)
 523 0022 89C6     		beq	a3,zero,.L45
 371:C:/Users/stapi/OneDrive/Desktop/GD32VW553/V1_MQTT_OK/GD32VW55X_Wifi_BLE_SDK/GD32VW55x_RELEASE_V1.0.2/MSDK/wpa_supplicant/src/ap\ieee802_11_ht.c **** 	    !hapd->iconf->ieee80211n || hapd->conf->disable_11n) {
 524              		.loc 1 371 44
 525 0024 1847     		lw	a4,8(a4)
 526              	.LVL50:
 371:C:/Users/stapi/OneDrive/Desktop/GD32VW553/V1_MQTT_OK/GD32VW55X_Wifi_BLE_SDK/GD32VW55x_RELEASE_V1.0.2/MSDK/wpa_supplicant/src/ap\ieee802_11_ht.c **** 	    !hapd->iconf->ieee80211n || hapd->conf->disable_11n) {
 527              		.loc 1 371 31
 528 0026 03478729 		lbu	a4,664(a4)
 529 002a 05C3     		beq	a4,zero,.L46
 530              	.L45:
 372:C:/Users/stapi/OneDrive/Desktop/GD32VW553/V1_MQTT_OK/GD32VW55X_Wifi_BLE_SDK/GD32VW55x_RELEASE_V1.0.2/MSDK/wpa_supplicant/src/ap\ieee802_11_ht.c **** 		os_free(sta->ht_capabilities);
 531              		.loc 1 372 3 is_stmt 1
 372:C:/Users/stapi/OneDrive/Desktop/GD32VW553/V1_MQTT_OK/GD32VW55X_Wifi_BLE_SDK/GD32VW55x_RELEASE_V1.0.2/MSDK/wpa_supplicant/src/ap\ieee802_11_ht.c **** 		os_free(sta->ht_capabilities);
 532              		.loc 1 372 14 is_stmt 0
 533 002c 9397B748 		bclri	a5,a5,11
 534 0030 1CD0     		sw	a5,32(s0)
 373:C:/Users/stapi/OneDrive/Desktop/GD32VW553/V1_MQTT_OK/GD32VW55X_Wifi_BLE_SDK/GD32VW55x_RELEASE_V1.0.2/MSDK/wpa_supplicant/src/ap\ieee802_11_ht.c **** 		sta->ht_capabilities = NULL;
 535              		.loc 1 373 3 is_stmt 1
 536 0032 97000000 		call	os_free
 536      E7800000 
 537              	.LVL51:
 374:C:/Users/stapi/OneDrive/Desktop/GD32VW553/V1_MQTT_OK/GD32VW55X_Wifi_BLE_SDK/GD32VW55x_RELEASE_V1.0.2/MSDK/wpa_supplicant/src/ap\ieee802_11_ht.c **** 		return WLAN_STATUS_SUCCESS;
 538              		.loc 1 374 3
 374:C:/Users/stapi/OneDrive/Desktop/GD32VW553/V1_MQTT_OK/GD32VW55X_Wifi_BLE_SDK/GD32VW55x_RELEASE_V1.0.2/MSDK/wpa_supplicant/src/ap\ieee802_11_ht.c **** 		return WLAN_STATUS_SUCCESS;
 539              		.loc 1 374 24 is_stmt 0
 540 003a 232E040A 		sw	zero,188(s0)
 375:C:/Users/stapi/OneDrive/Desktop/GD32VW553/V1_MQTT_OK/GD32VW55X_Wifi_BLE_SDK/GD32VW55x_RELEASE_V1.0.2/MSDK/wpa_supplicant/src/ap\ieee802_11_ht.c **** 	}
 541              		.loc 1 375 3 is_stmt 1
 542              	.L60:
 379:C:/Users/stapi/OneDrive/Desktop/GD32VW553/V1_MQTT_OK/GD32VW55X_Wifi_BLE_SDK/GD32VW55x_RELEASE_V1.0.2/MSDK/wpa_supplicant/src/ap\ieee802_11_ht.c **** 		sta->ht_capabilities =
 380:C:/Users/stapi/OneDrive/Desktop/GD32VW553/V1_MQTT_OK/GD32VW55X_Wifi_BLE_SDK/GD32VW55x_RELEASE_V1.0.2/MSDK/wpa_supplicant/src/ap\ieee802_11_ht.c **** 			os_zalloc(sizeof(struct ieee80211_ht_capabilities));
 381:C:/Users/stapi/OneDrive/Desktop/GD32VW553/V1_MQTT_OK/GD32VW55X_Wifi_BLE_SDK/GD32VW55x_RELEASE_V1.0.2/MSDK/wpa_supplicant/src/ap\ieee802_11_ht.c **** 		if (sta->ht_capabilities == NULL)
 382:C:/Users/stapi/OneDrive/Desktop/GD32VW553/V1_MQTT_OK/GD32VW55X_Wifi_BLE_SDK/GD32VW55x_RELEASE_V1.0.2/MSDK/wpa_supplicant/src/ap\ieee802_11_ht.c **** 			return WLAN_STATUS_UNSPECIFIED_FAILURE;
 383:C:/Users/stapi/OneDrive/Desktop/GD32VW553/V1_MQTT_OK/GD32VW55X_Wifi_BLE_SDK/GD32VW55x_RELEASE_V1.0.2/MSDK/wpa_supplicant/src/ap\ieee802_11_ht.c **** 	}
 384:C:/Users/stapi/OneDrive/Desktop/GD32VW553/V1_MQTT_OK/GD32VW55X_Wifi_BLE_SDK/GD32VW55x_RELEASE_V1.0.2/MSDK/wpa_supplicant/src/ap\ieee802_11_ht.c **** 
 385:C:/Users/stapi/OneDrive/Desktop/GD32VW553/V1_MQTT_OK/GD32VW55X_Wifi_BLE_SDK/GD32VW55x_RELEASE_V1.0.2/MSDK/wpa_supplicant/src/ap\ieee802_11_ht.c **** 	sta->flags |= WLAN_STA_HT;
 386:C:/Users/stapi/OneDrive/Desktop/GD32VW553/V1_MQTT_OK/GD32VW55X_Wifi_BLE_SDK/GD32VW55x_RELEASE_V1.0.2/MSDK/wpa_supplicant/src/ap\ieee802_11_ht.c **** 	os_memcpy(sta->ht_capabilities, ht_capab,
 387:C:/Users/stapi/OneDrive/Desktop/GD32VW553/V1_MQTT_OK/GD32VW55X_Wifi_BLE_SDK/GD32VW55x_RELEASE_V1.0.2/MSDK/wpa_supplicant/src/ap\ieee802_11_ht.c **** 		  sizeof(struct ieee80211_ht_capabilities));
 388:C:/Users/stapi/OneDrive/Desktop/GD32VW553/V1_MQTT_OK/GD32VW55X_Wifi_BLE_SDK/GD32VW55x_RELEASE_V1.0.2/MSDK/wpa_supplicant/src/ap\ieee802_11_ht.c **** 
 389:C:/Users/stapi/OneDrive/Desktop/GD32VW553/V1_MQTT_OK/GD32VW55X_Wifi_BLE_SDK/GD32VW55x_RELEASE_V1.0.2/MSDK/wpa_supplicant/src/ap\ieee802_11_ht.c **** 	return WLAN_STATUS_SUCCESS;
 543              		.loc 1 389 2
 544              		.loc 1 389 9 is_stmt 0
 545 003e 0145     		li	a0,0
 546              	.L47:
 390:C:/Users/stapi/OneDrive/Desktop/GD32VW553/V1_MQTT_OK/GD32VW55X_Wifi_BLE_SDK/GD32VW55x_RELEASE_V1.0.2/MSDK/wpa_supplicant/src/ap\ieee802_11_ht.c **** }
 547              		.loc 1 390 1
 548 0040 4101     		addi	sp,sp,16
 549              		.cfi_remember_state
 550              		.cfi_def_cfa_offset 0
 551 0042 17030000 		tail	__riscv_restore_1
 551      67000300 
 552              		.cfi_restore 8
 553              		.cfi_restore 1
 554              		.cfi_def_cfa_offset -16
 555              	.LVL52:
 556              	.L46:
 557              		.cfi_restore_state
 558 004a B285     		mv	a1,a2
 378:C:/Users/stapi/OneDrive/Desktop/GD32VW553/V1_MQTT_OK/GD32VW55X_Wifi_BLE_SDK/GD32VW55x_RELEASE_V1.0.2/MSDK/wpa_supplicant/src/ap\ieee802_11_ht.c **** 		sta->ht_capabilities =
 559              		.loc 1 378 2 is_stmt 1
 378:C:/Users/stapi/OneDrive/Desktop/GD32VW553/V1_MQTT_OK/GD32VW55X_Wifi_BLE_SDK/GD32VW55x_RELEASE_V1.0.2/MSDK/wpa_supplicant/src/ap\ieee802_11_ht.c **** 		sta->ht_capabilities =
 560              		.loc 1 378 5 is_stmt 0
 561 004c 09CD     		beq	a0,zero,.L48
 562              	.LVL53:
 563              	.L49:
 385:C:/Users/stapi/OneDrive/Desktop/GD32VW553/V1_MQTT_OK/GD32VW55X_Wifi_BLE_SDK/GD32VW55x_RELEASE_V1.0.2/MSDK/wpa_supplicant/src/ap\ieee802_11_ht.c **** 	os_memcpy(sta->ht_capabilities, ht_capab,
 564              		.loc 1 385 2 is_stmt 1
 385:C:/Users/stapi/OneDrive/Desktop/GD32VW553/V1_MQTT_OK/GD32VW55X_Wifi_BLE_SDK/GD32VW55x_RELEASE_V1.0.2/MSDK/wpa_supplicant/src/ap\ieee802_11_ht.c **** 	os_memcpy(sta->ht_capabilities, ht_capab,
 565              		.loc 1 385 13 is_stmt 0
 566 004e 1C50     		lw	a5,32(s0)
 386:C:/Users/stapi/OneDrive/Desktop/GD32VW553/V1_MQTT_OK/GD32VW55X_Wifi_BLE_SDK/GD32VW55x_RELEASE_V1.0.2/MSDK/wpa_supplicant/src/ap\ieee802_11_ht.c **** 		  sizeof(struct ieee80211_ht_capabilities));
 567              		.loc 1 386 2
 568 0050 0325C40B 		lw	a0,188(s0)
 569 0054 6946     		li	a2,26
 385:C:/Users/stapi/OneDrive/Desktop/GD32VW553/V1_MQTT_OK/GD32VW55X_Wifi_BLE_SDK/GD32VW55x_RELEASE_V1.0.2/MSDK/wpa_supplicant/src/ap\ieee802_11_ht.c **** 	os_memcpy(sta->ht_capabilities, ht_capab,
 570              		.loc 1 385 13
 571 0056 9397B728 		bseti	a5,a5,11
 572 005a 1CD0     		sw	a5,32(s0)
 386:C:/Users/stapi/OneDrive/Desktop/GD32VW553/V1_MQTT_OK/GD32VW55X_Wifi_BLE_SDK/GD32VW55x_RELEASE_V1.0.2/MSDK/wpa_supplicant/src/ap\ieee802_11_ht.c **** 		  sizeof(struct ieee80211_ht_capabilities));
 573              		.loc 1 386 2 is_stmt 1
 574 005c 97000000 		call	os_memcpy
 574      E7800000 
 575              	.LVL54:
 576 0064 E9BF     		j	.L60
 577              	.LVL55:
 578              	.L48:
 380:C:/Users/stapi/OneDrive/Desktop/GD32VW553/V1_MQTT_OK/GD32VW55X_Wifi_BLE_SDK/GD32VW55x_RELEASE_V1.0.2/MSDK/wpa_supplicant/src/ap\ieee802_11_ht.c **** 		if (sta->ht_capabilities == NULL)
 579              		.loc 1 380 4 is_stmt 0
 580 0066 6945     		li	a0,26
 581 0068 32C6     		sw	a2,12(sp)
 379:C:/Users/stapi/OneDrive/Desktop/GD32VW553/V1_MQTT_OK/GD32VW55X_Wifi_BLE_SDK/GD32VW55x_RELEASE_V1.0.2/MSDK/wpa_supplicant/src/ap\ieee802_11_ht.c **** 			os_zalloc(sizeof(struct ieee80211_ht_capabilities));
 582              		.loc 1 379 3 is_stmt 1
 380:C:/Users/stapi/OneDrive/Desktop/GD32VW553/V1_MQTT_OK/GD32VW55X_Wifi_BLE_SDK/GD32VW55x_RELEASE_V1.0.2/MSDK/wpa_supplicant/src/ap\ieee802_11_ht.c **** 		if (sta->ht_capabilities == NULL)
 583              		.loc 1 380 4 is_stmt 0
 584 006a 97000000 		call	os_zalloc
 584      E7800000 
 585              	.LVL56:
 379:C:/Users/stapi/OneDrive/Desktop/GD32VW553/V1_MQTT_OK/GD32VW55X_Wifi_BLE_SDK/GD32VW55x_RELEASE_V1.0.2/MSDK/wpa_supplicant/src/ap\ieee802_11_ht.c **** 			os_zalloc(sizeof(struct ieee80211_ht_capabilities));
 586              		.loc 1 379 24
 587 0072 232EA40A 		sw	a0,188(s0)
 381:C:/Users/stapi/OneDrive/Desktop/GD32VW553/V1_MQTT_OK/GD32VW55X_Wifi_BLE_SDK/GD32VW55x_RELEASE_V1.0.2/MSDK/wpa_supplicant/src/ap\ieee802_11_ht.c **** 			return WLAN_STATUS_UNSPECIFIED_FAILURE;
 588              		.loc 1 381 3 is_stmt 1
 381:C:/Users/stapi/OneDrive/Desktop/GD32VW553/V1_MQTT_OK/GD32VW55X_Wifi_BLE_SDK/GD32VW55x_RELEASE_V1.0.2/MSDK/wpa_supplicant/src/ap\ieee802_11_ht.c **** 			return WLAN_STATUS_UNSPECIFIED_FAILURE;
 589              		.loc 1 381 6 is_stmt 0
 590 0076 B245     		lw	a1,12(sp)
 591 0078 79F9     		bne	a0,zero,.L49
 382:C:/Users/stapi/OneDrive/Desktop/GD32VW553/V1_MQTT_OK/GD32VW55X_Wifi_BLE_SDK/GD32VW55x_RELEASE_V1.0.2/MSDK/wpa_supplicant/src/ap\ieee802_11_ht.c **** 	}
 592              		.loc 1 382 11
 593 007a 0545     		li	a0,1
 594 007c D1B7     		j	.L47
 595              		.cfi_endproc
 596              	.LFE171:
 598              		.section	.rodata.update_ht_state.str1.4,"aMS",@progbits,1
 599              		.align	2
 600              	.LC2:
 601 0000 48543A20 		.string	"HT: STA %02x:%02x:%02x:%02x:%02x:%02x HT Capabilities Info: 0x%04x"
 601      53544120 
 601      25303278 
 601      3A253032 
 601      783A2530 
 602 0043 00       		.align	2
 603              	.LC3:
 604 0044 25732053 		.string	"%s STA %02x:%02x:%02x:%02x:%02x:%02x - no greenfield, num of non-gf stations %d"
 604      54412025 
 604      3032783A 
 604      25303278 
 604      3A253032 
 605              		.align	2
 606              	.LC4:
 607 0094 25732053 		.string	"%s STA %02x:%02x:%02x:%02x:%02x:%02x - 20 MHz HT, num of 20MHz HT STAs %d"
 607      54412025 
 607      3032783A 
 607      25303278 
 607      3A253032 
 608 00de 0000     		.align	2
 609              	.LC5:
 610 00e0 25732053 		.string	"%s STA %02x:%02x:%02x:%02x:%02x:%02x - no HT, num of non-HT stations %d"
 610      54412025 
 610      3032783A 
 610      25303278 
 610      3A253032 
 611              		.section	.text.update_ht_state,"ax",@progbits
 612              		.align	1
 613              		.globl	update_ht_state
 615              	update_ht_state:
 616              	.LFB174:
 391:C:/Users/stapi/OneDrive/Desktop/GD32VW553/V1_MQTT_OK/GD32VW55X_Wifi_BLE_SDK/GD32VW55x_RELEASE_V1.0.2/MSDK/wpa_supplicant/src/ap\ieee802_11_ht.c **** 
 392:C:/Users/stapi/OneDrive/Desktop/GD32VW553/V1_MQTT_OK/GD32VW55X_Wifi_BLE_SDK/GD32VW55x_RELEASE_V1.0.2/MSDK/wpa_supplicant/src/ap\ieee802_11_ht.c **** 
 393:C:/Users/stapi/OneDrive/Desktop/GD32VW553/V1_MQTT_OK/GD32VW55X_Wifi_BLE_SDK/GD32VW55x_RELEASE_V1.0.2/MSDK/wpa_supplicant/src/ap\ieee802_11_ht.c **** #ifndef CONFIG_AP_NO_40MHZ_AND_MORE
 394:C:/Users/stapi/OneDrive/Desktop/GD32VW553/V1_MQTT_OK/GD32VW55X_Wifi_BLE_SDK/GD32VW55x_RELEASE_V1.0.2/MSDK/wpa_supplicant/src/ap\ieee802_11_ht.c **** void ht40_intolerant_add(struct hostapd_iface *iface, struct sta_info *sta)
 395:C:/Users/stapi/OneDrive/Desktop/GD32VW553/V1_MQTT_OK/GD32VW55X_Wifi_BLE_SDK/GD32VW55x_RELEASE_V1.0.2/MSDK/wpa_supplicant/src/ap\ieee802_11_ht.c **** {
 396:C:/Users/stapi/OneDrive/Desktop/GD32VW553/V1_MQTT_OK/GD32VW55X_Wifi_BLE_SDK/GD32VW55x_RELEASE_V1.0.2/MSDK/wpa_supplicant/src/ap\ieee802_11_ht.c **** 	if (iface->current_mode->mode != HOSTAPD_MODE_IEEE80211G)
 397:C:/Users/stapi/OneDrive/Desktop/GD32VW553/V1_MQTT_OK/GD32VW55X_Wifi_BLE_SDK/GD32VW55x_RELEASE_V1.0.2/MSDK/wpa_supplicant/src/ap\ieee802_11_ht.c **** 		return;
 398:C:/Users/stapi/OneDrive/Desktop/GD32VW553/V1_MQTT_OK/GD32VW55X_Wifi_BLE_SDK/GD32VW55x_RELEASE_V1.0.2/MSDK/wpa_supplicant/src/ap\ieee802_11_ht.c **** 
 399:C:/Users/stapi/OneDrive/Desktop/GD32VW553/V1_MQTT_OK/GD32VW55X_Wifi_BLE_SDK/GD32VW55x_RELEASE_V1.0.2/MSDK/wpa_supplicant/src/ap\ieee802_11_ht.c **** 	wpa_printf(MSG_INFO, "HT: Forty MHz Intolerant is set by STA " MACSTR
 400:C:/Users/stapi/OneDrive/Desktop/GD32VW553/V1_MQTT_OK/GD32VW55X_Wifi_BLE_SDK/GD32VW55x_RELEASE_V1.0.2/MSDK/wpa_supplicant/src/ap\ieee802_11_ht.c **** 		   " in Association Request", MAC2STR(sta->addr));
 401:C:/Users/stapi/OneDrive/Desktop/GD32VW553/V1_MQTT_OK/GD32VW55X_Wifi_BLE_SDK/GD32VW55x_RELEASE_V1.0.2/MSDK/wpa_supplicant/src/ap\ieee802_11_ht.c **** 
 402:C:/Users/stapi/OneDrive/Desktop/GD32VW553/V1_MQTT_OK/GD32VW55X_Wifi_BLE_SDK/GD32VW55x_RELEASE_V1.0.2/MSDK/wpa_supplicant/src/ap\ieee802_11_ht.c **** 	if (sta->ht40_intolerant_set)
 403:C:/Users/stapi/OneDrive/Desktop/GD32VW553/V1_MQTT_OK/GD32VW55X_Wifi_BLE_SDK/GD32VW55x_RELEASE_V1.0.2/MSDK/wpa_supplicant/src/ap\ieee802_11_ht.c **** 		return;
 404:C:/Users/stapi/OneDrive/Desktop/GD32VW553/V1_MQTT_OK/GD32VW55X_Wifi_BLE_SDK/GD32VW55x_RELEASE_V1.0.2/MSDK/wpa_supplicant/src/ap\ieee802_11_ht.c **** 
 405:C:/Users/stapi/OneDrive/Desktop/GD32VW553/V1_MQTT_OK/GD32VW55X_Wifi_BLE_SDK/GD32VW55x_RELEASE_V1.0.2/MSDK/wpa_supplicant/src/ap\ieee802_11_ht.c **** 	sta->ht40_intolerant_set = 1;
 406:C:/Users/stapi/OneDrive/Desktop/GD32VW553/V1_MQTT_OK/GD32VW55X_Wifi_BLE_SDK/GD32VW55x_RELEASE_V1.0.2/MSDK/wpa_supplicant/src/ap\ieee802_11_ht.c **** 	iface->num_sta_ht40_intolerant++;
 407:C:/Users/stapi/OneDrive/Desktop/GD32VW553/V1_MQTT_OK/GD32VW55X_Wifi_BLE_SDK/GD32VW55x_RELEASE_V1.0.2/MSDK/wpa_supplicant/src/ap\ieee802_11_ht.c **** 	eloop_cancel_timeout(ap_ht2040_timeout, iface, NULL);
 408:C:/Users/stapi/OneDrive/Desktop/GD32VW553/V1_MQTT_OK/GD32VW55X_Wifi_BLE_SDK/GD32VW55x_RELEASE_V1.0.2/MSDK/wpa_supplicant/src/ap\ieee802_11_ht.c **** 
 409:C:/Users/stapi/OneDrive/Desktop/GD32VW553/V1_MQTT_OK/GD32VW55X_Wifi_BLE_SDK/GD32VW55x_RELEASE_V1.0.2/MSDK/wpa_supplicant/src/ap\ieee802_11_ht.c **** 	if (iface->conf->secondary_channel &&
 410:C:/Users/stapi/OneDrive/Desktop/GD32VW553/V1_MQTT_OK/GD32VW55X_Wifi_BLE_SDK/GD32VW55x_RELEASE_V1.0.2/MSDK/wpa_supplicant/src/ap\ieee802_11_ht.c **** 	    (iface->drv_flags & WPA_DRIVER_FLAGS_HT_2040_COEX)) {
 411:C:/Users/stapi/OneDrive/Desktop/GD32VW553/V1_MQTT_OK/GD32VW55X_Wifi_BLE_SDK/GD32VW55x_RELEASE_V1.0.2/MSDK/wpa_supplicant/src/ap\ieee802_11_ht.c **** 		iface->conf->secondary_channel = 0;
 412:C:/Users/stapi/OneDrive/Desktop/GD32VW553/V1_MQTT_OK/GD32VW55X_Wifi_BLE_SDK/GD32VW55x_RELEASE_V1.0.2/MSDK/wpa_supplicant/src/ap\ieee802_11_ht.c **** 		ieee802_11_set_beacons(iface);
 413:C:/Users/stapi/OneDrive/Desktop/GD32VW553/V1_MQTT_OK/GD32VW55X_Wifi_BLE_SDK/GD32VW55x_RELEASE_V1.0.2/MSDK/wpa_supplicant/src/ap\ieee802_11_ht.c **** 	}
 414:C:/Users/stapi/OneDrive/Desktop/GD32VW553/V1_MQTT_OK/GD32VW55X_Wifi_BLE_SDK/GD32VW55x_RELEASE_V1.0.2/MSDK/wpa_supplicant/src/ap\ieee802_11_ht.c **** }
 415:C:/Users/stapi/OneDrive/Desktop/GD32VW553/V1_MQTT_OK/GD32VW55X_Wifi_BLE_SDK/GD32VW55x_RELEASE_V1.0.2/MSDK/wpa_supplicant/src/ap\ieee802_11_ht.c **** 
 416:C:/Users/stapi/OneDrive/Desktop/GD32VW553/V1_MQTT_OK/GD32VW55X_Wifi_BLE_SDK/GD32VW55x_RELEASE_V1.0.2/MSDK/wpa_supplicant/src/ap\ieee802_11_ht.c **** 
 417:C:/Users/stapi/OneDrive/Desktop/GD32VW553/V1_MQTT_OK/GD32VW55X_Wifi_BLE_SDK/GD32VW55x_RELEASE_V1.0.2/MSDK/wpa_supplicant/src/ap\ieee802_11_ht.c **** void ht40_intolerant_remove(struct hostapd_iface *iface, struct sta_info *sta)
 418:C:/Users/stapi/OneDrive/Desktop/GD32VW553/V1_MQTT_OK/GD32VW55X_Wifi_BLE_SDK/GD32VW55x_RELEASE_V1.0.2/MSDK/wpa_supplicant/src/ap\ieee802_11_ht.c **** {
 419:C:/Users/stapi/OneDrive/Desktop/GD32VW553/V1_MQTT_OK/GD32VW55X_Wifi_BLE_SDK/GD32VW55x_RELEASE_V1.0.2/MSDK/wpa_supplicant/src/ap\ieee802_11_ht.c **** 	if (!sta->ht40_intolerant_set)
 420:C:/Users/stapi/OneDrive/Desktop/GD32VW553/V1_MQTT_OK/GD32VW55X_Wifi_BLE_SDK/GD32VW55x_RELEASE_V1.0.2/MSDK/wpa_supplicant/src/ap\ieee802_11_ht.c **** 		return;
 421:C:/Users/stapi/OneDrive/Desktop/GD32VW553/V1_MQTT_OK/GD32VW55X_Wifi_BLE_SDK/GD32VW55x_RELEASE_V1.0.2/MSDK/wpa_supplicant/src/ap\ieee802_11_ht.c **** 
 422:C:/Users/stapi/OneDrive/Desktop/GD32VW553/V1_MQTT_OK/GD32VW55X_Wifi_BLE_SDK/GD32VW55x_RELEASE_V1.0.2/MSDK/wpa_supplicant/src/ap\ieee802_11_ht.c **** 	sta->ht40_intolerant_set = 0;
 423:C:/Users/stapi/OneDrive/Desktop/GD32VW553/V1_MQTT_OK/GD32VW55X_Wifi_BLE_SDK/GD32VW55x_RELEASE_V1.0.2/MSDK/wpa_supplicant/src/ap\ieee802_11_ht.c **** 	iface->num_sta_ht40_intolerant--;
 424:C:/Users/stapi/OneDrive/Desktop/GD32VW553/V1_MQTT_OK/GD32VW55X_Wifi_BLE_SDK/GD32VW55x_RELEASE_V1.0.2/MSDK/wpa_supplicant/src/ap\ieee802_11_ht.c **** 
 425:C:/Users/stapi/OneDrive/Desktop/GD32VW553/V1_MQTT_OK/GD32VW55X_Wifi_BLE_SDK/GD32VW55x_RELEASE_V1.0.2/MSDK/wpa_supplicant/src/ap\ieee802_11_ht.c **** 	if (iface->num_sta_ht40_intolerant == 0 &&
 426:C:/Users/stapi/OneDrive/Desktop/GD32VW553/V1_MQTT_OK/GD32VW55X_Wifi_BLE_SDK/GD32VW55x_RELEASE_V1.0.2/MSDK/wpa_supplicant/src/ap\ieee802_11_ht.c **** 	    (iface->conf->ht_capab & HT_CAP_INFO_SUPP_CHANNEL_WIDTH_SET) &&
 427:C:/Users/stapi/OneDrive/Desktop/GD32VW553/V1_MQTT_OK/GD32VW55X_Wifi_BLE_SDK/GD32VW55x_RELEASE_V1.0.2/MSDK/wpa_supplicant/src/ap\ieee802_11_ht.c **** 	    (iface->drv_flags & WPA_DRIVER_FLAGS_HT_2040_COEX)) {
 428:C:/Users/stapi/OneDrive/Desktop/GD32VW553/V1_MQTT_OK/GD32VW55X_Wifi_BLE_SDK/GD32VW55x_RELEASE_V1.0.2/MSDK/wpa_supplicant/src/ap\ieee802_11_ht.c **** 		unsigned int delay_time = OVERLAPPING_BSS_TRANS_DELAY_FACTOR *
 429:C:/Users/stapi/OneDrive/Desktop/GD32VW553/V1_MQTT_OK/GD32VW55X_Wifi_BLE_SDK/GD32VW55x_RELEASE_V1.0.2/MSDK/wpa_supplicant/src/ap\ieee802_11_ht.c **** 			iface->conf->obss_interval;
 430:C:/Users/stapi/OneDrive/Desktop/GD32VW553/V1_MQTT_OK/GD32VW55X_Wifi_BLE_SDK/GD32VW55x_RELEASE_V1.0.2/MSDK/wpa_supplicant/src/ap\ieee802_11_ht.c **** 		wpa_printf(MSG_DEBUG,
 431:C:/Users/stapi/OneDrive/Desktop/GD32VW553/V1_MQTT_OK/GD32VW55X_Wifi_BLE_SDK/GD32VW55x_RELEASE_V1.0.2/MSDK/wpa_supplicant/src/ap\ieee802_11_ht.c **** 			   "HT: Start 20->40 MHz transition timer (%d seconds)",
 432:C:/Users/stapi/OneDrive/Desktop/GD32VW553/V1_MQTT_OK/GD32VW55X_Wifi_BLE_SDK/GD32VW55x_RELEASE_V1.0.2/MSDK/wpa_supplicant/src/ap\ieee802_11_ht.c **** 			   delay_time);
 433:C:/Users/stapi/OneDrive/Desktop/GD32VW553/V1_MQTT_OK/GD32VW55X_Wifi_BLE_SDK/GD32VW55x_RELEASE_V1.0.2/MSDK/wpa_supplicant/src/ap\ieee802_11_ht.c **** 		eloop_cancel_timeout(ap_ht2040_timeout, iface, NULL);
 434:C:/Users/stapi/OneDrive/Desktop/GD32VW553/V1_MQTT_OK/GD32VW55X_Wifi_BLE_SDK/GD32VW55x_RELEASE_V1.0.2/MSDK/wpa_supplicant/src/ap\ieee802_11_ht.c **** 		eloop_register_timeout(delay_time, 0, ap_ht2040_timeout,
 435:C:/Users/stapi/OneDrive/Desktop/GD32VW553/V1_MQTT_OK/GD32VW55X_Wifi_BLE_SDK/GD32VW55x_RELEASE_V1.0.2/MSDK/wpa_supplicant/src/ap\ieee802_11_ht.c **** 				       iface, NULL);
 436:C:/Users/stapi/OneDrive/Desktop/GD32VW553/V1_MQTT_OK/GD32VW55X_Wifi_BLE_SDK/GD32VW55x_RELEASE_V1.0.2/MSDK/wpa_supplicant/src/ap\ieee802_11_ht.c **** 	}
 437:C:/Users/stapi/OneDrive/Desktop/GD32VW553/V1_MQTT_OK/GD32VW55X_Wifi_BLE_SDK/GD32VW55x_RELEASE_V1.0.2/MSDK/wpa_supplicant/src/ap\ieee802_11_ht.c **** }
 438:C:/Users/stapi/OneDrive/Desktop/GD32VW553/V1_MQTT_OK/GD32VW55X_Wifi_BLE_SDK/GD32VW55x_RELEASE_V1.0.2/MSDK/wpa_supplicant/src/ap\ieee802_11_ht.c **** #endif /* CONFIG_AP_NO_40MHZ_AND_MORE */
 439:C:/Users/stapi/OneDrive/Desktop/GD32VW553/V1_MQTT_OK/GD32VW55X_Wifi_BLE_SDK/GD32VW55x_RELEASE_V1.0.2/MSDK/wpa_supplicant/src/ap\ieee802_11_ht.c **** 
 440:C:/Users/stapi/OneDrive/Desktop/GD32VW553/V1_MQTT_OK/GD32VW55X_Wifi_BLE_SDK/GD32VW55x_RELEASE_V1.0.2/MSDK/wpa_supplicant/src/ap\ieee802_11_ht.c **** 
 441:C:/Users/stapi/OneDrive/Desktop/GD32VW553/V1_MQTT_OK/GD32VW55X_Wifi_BLE_SDK/GD32VW55x_RELEASE_V1.0.2/MSDK/wpa_supplicant/src/ap\ieee802_11_ht.c **** static void update_sta_ht(struct hostapd_data *hapd, struct sta_info *sta)
 442:C:/Users/stapi/OneDrive/Desktop/GD32VW553/V1_MQTT_OK/GD32VW55X_Wifi_BLE_SDK/GD32VW55x_RELEASE_V1.0.2/MSDK/wpa_supplicant/src/ap\ieee802_11_ht.c **** {
 443:C:/Users/stapi/OneDrive/Desktop/GD32VW553/V1_MQTT_OK/GD32VW55X_Wifi_BLE_SDK/GD32VW55x_RELEASE_V1.0.2/MSDK/wpa_supplicant/src/ap\ieee802_11_ht.c **** 	u16 ht_capab;
 444:C:/Users/stapi/OneDrive/Desktop/GD32VW553/V1_MQTT_OK/GD32VW55X_Wifi_BLE_SDK/GD32VW55x_RELEASE_V1.0.2/MSDK/wpa_supplicant/src/ap\ieee802_11_ht.c **** 
 445:C:/Users/stapi/OneDrive/Desktop/GD32VW553/V1_MQTT_OK/GD32VW55X_Wifi_BLE_SDK/GD32VW55x_RELEASE_V1.0.2/MSDK/wpa_supplicant/src/ap\ieee802_11_ht.c **** 	ht_capab = le_to_host16(sta->ht_capabilities->ht_capabilities_info);
 446:C:/Users/stapi/OneDrive/Desktop/GD32VW553/V1_MQTT_OK/GD32VW55X_Wifi_BLE_SDK/GD32VW55x_RELEASE_V1.0.2/MSDK/wpa_supplicant/src/ap\ieee802_11_ht.c **** 	wpa_printf(MSG_DEBUG, "HT: STA " MACSTR " HT Capabilities Info: "
 447:C:/Users/stapi/OneDrive/Desktop/GD32VW553/V1_MQTT_OK/GD32VW55X_Wifi_BLE_SDK/GD32VW55x_RELEASE_V1.0.2/MSDK/wpa_supplicant/src/ap\ieee802_11_ht.c **** 		   "0x%04x", MAC2STR(sta->addr), ht_capab);
 448:C:/Users/stapi/OneDrive/Desktop/GD32VW553/V1_MQTT_OK/GD32VW55X_Wifi_BLE_SDK/GD32VW55x_RELEASE_V1.0.2/MSDK/wpa_supplicant/src/ap\ieee802_11_ht.c **** 	if ((ht_capab & HT_CAP_INFO_GREEN_FIELD) == 0) {
 449:C:/Users/stapi/OneDrive/Desktop/GD32VW553/V1_MQTT_OK/GD32VW55X_Wifi_BLE_SDK/GD32VW55x_RELEASE_V1.0.2/MSDK/wpa_supplicant/src/ap\ieee802_11_ht.c **** 		if (!sta->no_ht_gf_set) {
 450:C:/Users/stapi/OneDrive/Desktop/GD32VW553/V1_MQTT_OK/GD32VW55X_Wifi_BLE_SDK/GD32VW55x_RELEASE_V1.0.2/MSDK/wpa_supplicant/src/ap\ieee802_11_ht.c **** 			sta->no_ht_gf_set = 1;
 451:C:/Users/stapi/OneDrive/Desktop/GD32VW553/V1_MQTT_OK/GD32VW55X_Wifi_BLE_SDK/GD32VW55x_RELEASE_V1.0.2/MSDK/wpa_supplicant/src/ap\ieee802_11_ht.c **** 			hapd->iface->num_sta_ht_no_gf++;
 452:C:/Users/stapi/OneDrive/Desktop/GD32VW553/V1_MQTT_OK/GD32VW55X_Wifi_BLE_SDK/GD32VW55x_RELEASE_V1.0.2/MSDK/wpa_supplicant/src/ap\ieee802_11_ht.c **** 		}
 453:C:/Users/stapi/OneDrive/Desktop/GD32VW553/V1_MQTT_OK/GD32VW55X_Wifi_BLE_SDK/GD32VW55x_RELEASE_V1.0.2/MSDK/wpa_supplicant/src/ap\ieee802_11_ht.c **** 		wpa_printf(MSG_DEBUG, "%s STA " MACSTR " - no greenfield, num "
 454:C:/Users/stapi/OneDrive/Desktop/GD32VW553/V1_MQTT_OK/GD32VW55X_Wifi_BLE_SDK/GD32VW55x_RELEASE_V1.0.2/MSDK/wpa_supplicant/src/ap\ieee802_11_ht.c **** 			   "of non-gf stations %d",
 455:C:/Users/stapi/OneDrive/Desktop/GD32VW553/V1_MQTT_OK/GD32VW55X_Wifi_BLE_SDK/GD32VW55x_RELEASE_V1.0.2/MSDK/wpa_supplicant/src/ap\ieee802_11_ht.c **** 			   __func__, MAC2STR(sta->addr),
 456:C:/Users/stapi/OneDrive/Desktop/GD32VW553/V1_MQTT_OK/GD32VW55X_Wifi_BLE_SDK/GD32VW55x_RELEASE_V1.0.2/MSDK/wpa_supplicant/src/ap\ieee802_11_ht.c **** 			   hapd->iface->num_sta_ht_no_gf);
 457:C:/Users/stapi/OneDrive/Desktop/GD32VW553/V1_MQTT_OK/GD32VW55X_Wifi_BLE_SDK/GD32VW55x_RELEASE_V1.0.2/MSDK/wpa_supplicant/src/ap\ieee802_11_ht.c **** 	}
 458:C:/Users/stapi/OneDrive/Desktop/GD32VW553/V1_MQTT_OK/GD32VW55X_Wifi_BLE_SDK/GD32VW55x_RELEASE_V1.0.2/MSDK/wpa_supplicant/src/ap\ieee802_11_ht.c **** 	if ((ht_capab & HT_CAP_INFO_SUPP_CHANNEL_WIDTH_SET) == 0) {
 459:C:/Users/stapi/OneDrive/Desktop/GD32VW553/V1_MQTT_OK/GD32VW55X_Wifi_BLE_SDK/GD32VW55x_RELEASE_V1.0.2/MSDK/wpa_supplicant/src/ap\ieee802_11_ht.c **** 		if (!sta->ht_20mhz_set) {
 460:C:/Users/stapi/OneDrive/Desktop/GD32VW553/V1_MQTT_OK/GD32VW55X_Wifi_BLE_SDK/GD32VW55x_RELEASE_V1.0.2/MSDK/wpa_supplicant/src/ap\ieee802_11_ht.c **** 			sta->ht_20mhz_set = 1;
 461:C:/Users/stapi/OneDrive/Desktop/GD32VW553/V1_MQTT_OK/GD32VW55X_Wifi_BLE_SDK/GD32VW55x_RELEASE_V1.0.2/MSDK/wpa_supplicant/src/ap\ieee802_11_ht.c **** 			hapd->iface->num_sta_ht_20mhz++;
 462:C:/Users/stapi/OneDrive/Desktop/GD32VW553/V1_MQTT_OK/GD32VW55X_Wifi_BLE_SDK/GD32VW55x_RELEASE_V1.0.2/MSDK/wpa_supplicant/src/ap\ieee802_11_ht.c **** 		}
 463:C:/Users/stapi/OneDrive/Desktop/GD32VW553/V1_MQTT_OK/GD32VW55X_Wifi_BLE_SDK/GD32VW55x_RELEASE_V1.0.2/MSDK/wpa_supplicant/src/ap\ieee802_11_ht.c **** 		wpa_printf(MSG_DEBUG, "%s STA " MACSTR " - 20 MHz HT, num of "
 464:C:/Users/stapi/OneDrive/Desktop/GD32VW553/V1_MQTT_OK/GD32VW55X_Wifi_BLE_SDK/GD32VW55x_RELEASE_V1.0.2/MSDK/wpa_supplicant/src/ap\ieee802_11_ht.c **** 			   "20MHz HT STAs %d",
 465:C:/Users/stapi/OneDrive/Desktop/GD32VW553/V1_MQTT_OK/GD32VW55X_Wifi_BLE_SDK/GD32VW55x_RELEASE_V1.0.2/MSDK/wpa_supplicant/src/ap\ieee802_11_ht.c **** 			   __func__, MAC2STR(sta->addr),
 466:C:/Users/stapi/OneDrive/Desktop/GD32VW553/V1_MQTT_OK/GD32VW55X_Wifi_BLE_SDK/GD32VW55x_RELEASE_V1.0.2/MSDK/wpa_supplicant/src/ap\ieee802_11_ht.c **** 			   hapd->iface->num_sta_ht_20mhz);
 467:C:/Users/stapi/OneDrive/Desktop/GD32VW553/V1_MQTT_OK/GD32VW55X_Wifi_BLE_SDK/GD32VW55x_RELEASE_V1.0.2/MSDK/wpa_supplicant/src/ap\ieee802_11_ht.c **** 	}
 468:C:/Users/stapi/OneDrive/Desktop/GD32VW553/V1_MQTT_OK/GD32VW55X_Wifi_BLE_SDK/GD32VW55x_RELEASE_V1.0.2/MSDK/wpa_supplicant/src/ap\ieee802_11_ht.c **** 
 469:C:/Users/stapi/OneDrive/Desktop/GD32VW553/V1_MQTT_OK/GD32VW55X_Wifi_BLE_SDK/GD32VW55x_RELEASE_V1.0.2/MSDK/wpa_supplicant/src/ap\ieee802_11_ht.c **** #ifndef CONFIG_AP_NO_40MHZ_AND_MORE
 470:C:/Users/stapi/OneDrive/Desktop/GD32VW553/V1_MQTT_OK/GD32VW55X_Wifi_BLE_SDK/GD32VW55x_RELEASE_V1.0.2/MSDK/wpa_supplicant/src/ap\ieee802_11_ht.c **** 	if (ht_capab & HT_CAP_INFO_40MHZ_INTOLERANT)
 471:C:/Users/stapi/OneDrive/Desktop/GD32VW553/V1_MQTT_OK/GD32VW55X_Wifi_BLE_SDK/GD32VW55x_RELEASE_V1.0.2/MSDK/wpa_supplicant/src/ap\ieee802_11_ht.c **** 		ht40_intolerant_add(hapd->iface, sta);
 472:C:/Users/stapi/OneDrive/Desktop/GD32VW553/V1_MQTT_OK/GD32VW55X_Wifi_BLE_SDK/GD32VW55x_RELEASE_V1.0.2/MSDK/wpa_supplicant/src/ap\ieee802_11_ht.c **** #endif /* CONFIG_AP_NO_40MHZ_AND_MORE */
 473:C:/Users/stapi/OneDrive/Desktop/GD32VW553/V1_MQTT_OK/GD32VW55X_Wifi_BLE_SDK/GD32VW55x_RELEASE_V1.0.2/MSDK/wpa_supplicant/src/ap\ieee802_11_ht.c **** }
 474:C:/Users/stapi/OneDrive/Desktop/GD32VW553/V1_MQTT_OK/GD32VW55X_Wifi_BLE_SDK/GD32VW55x_RELEASE_V1.0.2/MSDK/wpa_supplicant/src/ap\ieee802_11_ht.c **** 
 475:C:/Users/stapi/OneDrive/Desktop/GD32VW553/V1_MQTT_OK/GD32VW55X_Wifi_BLE_SDK/GD32VW55x_RELEASE_V1.0.2/MSDK/wpa_supplicant/src/ap\ieee802_11_ht.c **** 
 476:C:/Users/stapi/OneDrive/Desktop/GD32VW553/V1_MQTT_OK/GD32VW55X_Wifi_BLE_SDK/GD32VW55x_RELEASE_V1.0.2/MSDK/wpa_supplicant/src/ap\ieee802_11_ht.c **** static void update_sta_no_ht(struct hostapd_data *hapd, struct sta_info *sta)
 477:C:/Users/stapi/OneDrive/Desktop/GD32VW553/V1_MQTT_OK/GD32VW55X_Wifi_BLE_SDK/GD32VW55x_RELEASE_V1.0.2/MSDK/wpa_supplicant/src/ap\ieee802_11_ht.c **** {
 478:C:/Users/stapi/OneDrive/Desktop/GD32VW553/V1_MQTT_OK/GD32VW55X_Wifi_BLE_SDK/GD32VW55x_RELEASE_V1.0.2/MSDK/wpa_supplicant/src/ap\ieee802_11_ht.c **** 	if (!sta->no_ht_set) {
 479:C:/Users/stapi/OneDrive/Desktop/GD32VW553/V1_MQTT_OK/GD32VW55X_Wifi_BLE_SDK/GD32VW55x_RELEASE_V1.0.2/MSDK/wpa_supplicant/src/ap\ieee802_11_ht.c **** 		sta->no_ht_set = 1;
 480:C:/Users/stapi/OneDrive/Desktop/GD32VW553/V1_MQTT_OK/GD32VW55X_Wifi_BLE_SDK/GD32VW55x_RELEASE_V1.0.2/MSDK/wpa_supplicant/src/ap\ieee802_11_ht.c **** 		hapd->iface->num_sta_no_ht++;
 481:C:/Users/stapi/OneDrive/Desktop/GD32VW553/V1_MQTT_OK/GD32VW55X_Wifi_BLE_SDK/GD32VW55x_RELEASE_V1.0.2/MSDK/wpa_supplicant/src/ap\ieee802_11_ht.c **** 	}
 482:C:/Users/stapi/OneDrive/Desktop/GD32VW553/V1_MQTT_OK/GD32VW55X_Wifi_BLE_SDK/GD32VW55x_RELEASE_V1.0.2/MSDK/wpa_supplicant/src/ap\ieee802_11_ht.c **** 	if (hapd->iconf->ieee80211n) {
 483:C:/Users/stapi/OneDrive/Desktop/GD32VW553/V1_MQTT_OK/GD32VW55X_Wifi_BLE_SDK/GD32VW55x_RELEASE_V1.0.2/MSDK/wpa_supplicant/src/ap\ieee802_11_ht.c **** 		wpa_printf(MSG_DEBUG, "%s STA " MACSTR " - no HT, num of "
 484:C:/Users/stapi/OneDrive/Desktop/GD32VW553/V1_MQTT_OK/GD32VW55X_Wifi_BLE_SDK/GD32VW55x_RELEASE_V1.0.2/MSDK/wpa_supplicant/src/ap\ieee802_11_ht.c **** 			   "non-HT stations %d",
 485:C:/Users/stapi/OneDrive/Desktop/GD32VW553/V1_MQTT_OK/GD32VW55X_Wifi_BLE_SDK/GD32VW55x_RELEASE_V1.0.2/MSDK/wpa_supplicant/src/ap\ieee802_11_ht.c **** 			   __func__, MAC2STR(sta->addr),
 486:C:/Users/stapi/OneDrive/Desktop/GD32VW553/V1_MQTT_OK/GD32VW55X_Wifi_BLE_SDK/GD32VW55x_RELEASE_V1.0.2/MSDK/wpa_supplicant/src/ap\ieee802_11_ht.c **** 			   hapd->iface->num_sta_no_ht);
 487:C:/Users/stapi/OneDrive/Desktop/GD32VW553/V1_MQTT_OK/GD32VW55X_Wifi_BLE_SDK/GD32VW55x_RELEASE_V1.0.2/MSDK/wpa_supplicant/src/ap\ieee802_11_ht.c **** 	}
 488:C:/Users/stapi/OneDrive/Desktop/GD32VW553/V1_MQTT_OK/GD32VW55X_Wifi_BLE_SDK/GD32VW55x_RELEASE_V1.0.2/MSDK/wpa_supplicant/src/ap\ieee802_11_ht.c **** }
 489:C:/Users/stapi/OneDrive/Desktop/GD32VW553/V1_MQTT_OK/GD32VW55X_Wifi_BLE_SDK/GD32VW55x_RELEASE_V1.0.2/MSDK/wpa_supplicant/src/ap\ieee802_11_ht.c **** 
 490:C:/Users/stapi/OneDrive/Desktop/GD32VW553/V1_MQTT_OK/GD32VW55X_Wifi_BLE_SDK/GD32VW55x_RELEASE_V1.0.2/MSDK/wpa_supplicant/src/ap\ieee802_11_ht.c **** 
 491:C:/Users/stapi/OneDrive/Desktop/GD32VW553/V1_MQTT_OK/GD32VW55X_Wifi_BLE_SDK/GD32VW55x_RELEASE_V1.0.2/MSDK/wpa_supplicant/src/ap\ieee802_11_ht.c **** void update_ht_state(struct hostapd_data *hapd, struct sta_info *sta)
 492:C:/Users/stapi/OneDrive/Desktop/GD32VW553/V1_MQTT_OK/GD32VW55X_Wifi_BLE_SDK/GD32VW55x_RELEASE_V1.0.2/MSDK/wpa_supplicant/src/ap\ieee802_11_ht.c **** {
 617              		.loc 1 492 1 is_stmt 1
 618              		.cfi_startproc
 619              	.LVL57:
 620 0000 17030000 		call	t0,__riscv_save_3
 620      E7020300 
 621              		.cfi_offset 18, -16
 622              		.cfi_offset 9, -12
 623              		.cfi_offset 8, -8
 624              		.cfi_offset 1, -4
 625              		.cfi_def_cfa_offset 16
 493:C:/Users/stapi/OneDrive/Desktop/GD32VW553/V1_MQTT_OK/GD32VW55X_Wifi_BLE_SDK/GD32VW55x_RELEASE_V1.0.2/MSDK/wpa_supplicant/src/ap\ieee802_11_ht.c **** 	if ((sta->flags & WLAN_STA_HT) && sta->ht_capabilities)
 626              		.loc 1 493 2
 627              		.loc 1 493 18 is_stmt 0
 628 0008 9C51     		lw	a5,32(a1)
 492:C:/Users/stapi/OneDrive/Desktop/GD32VW553/V1_MQTT_OK/GD32VW55X_Wifi_BLE_SDK/GD32VW55x_RELEASE_V1.0.2/MSDK/wpa_supplicant/src/ap\ieee802_11_ht.c **** 	if ((sta->flags & WLAN_STA_HT) && sta->ht_capabilities)
 629              		.loc 1 492 1
 630 000a 4111     		addi	sp,sp,-16
 631              		.cfi_def_cfa_offset 32
 492:C:/Users/stapi/OneDrive/Desktop/GD32VW553/V1_MQTT_OK/GD32VW55X_Wifi_BLE_SDK/GD32VW55x_RELEASE_V1.0.2/MSDK/wpa_supplicant/src/ap\ieee802_11_ht.c **** 	if ((sta->flags & WLAN_STA_HT) && sta->ht_capabilities)
 632              		.loc 1 492 1
 633 000c 2A89     		mv	s2,a0
 634 000e 2E84     		mv	s0,a1
 635              		.loc 1 493 18
 636 0010 93D7B748 		bexti	a5,a5,11
 637              		.loc 1 493 5
 638 0014 63860712 		beq	a5,zero,.L62
 639              		.loc 1 493 39 discriminator 1
 640 0018 83A7C50B 		lw	a5,188(a1)
 641              		.loc 1 493 33 discriminator 1
 642 001c 63820712 		beq	a5,zero,.L62
 494:C:/Users/stapi/OneDrive/Desktop/GD32VW553/V1_MQTT_OK/GD32VW55X_Wifi_BLE_SDK/GD32VW55x_RELEASE_V1.0.2/MSDK/wpa_supplicant/src/ap\ieee802_11_ht.c **** 		update_sta_ht(hapd, sta);
 643              		.loc 1 494 3 is_stmt 1
 644              	.LVL58:
 645              	.LBB13:
 646              	.LBB14:
 443:C:/Users/stapi/OneDrive/Desktop/GD32VW553/V1_MQTT_OK/GD32VW55X_Wifi_BLE_SDK/GD32VW55x_RELEASE_V1.0.2/MSDK/wpa_supplicant/src/ap\ieee802_11_ht.c **** 
 647              		.loc 1 443 2
 445:C:/Users/stapi/OneDrive/Desktop/GD32VW553/V1_MQTT_OK/GD32VW55X_Wifi_BLE_SDK/GD32VW55x_RELEASE_V1.0.2/MSDK/wpa_supplicant/src/ap\ieee802_11_ht.c **** 	wpa_printf(MSG_DEBUG, "HT: STA " MACSTR " HT Capabilities Info: "
 648              		.loc 1 445 2
 445:C:/Users/stapi/OneDrive/Desktop/GD32VW553/V1_MQTT_OK/GD32VW55X_Wifi_BLE_SDK/GD32VW55x_RELEASE_V1.0.2/MSDK/wpa_supplicant/src/ap\ieee802_11_ht.c **** 	wpa_printf(MSG_DEBUG, "HT: STA " MACSTR " HT Capabilities Info: "
 649              		.loc 1 445 11 is_stmt 0
 650 0020 83C41700 		lbu	s1,1(a5)
 651 0024 03C70700 		lbu	a4,0(a5)
 446:C:/Users/stapi/OneDrive/Desktop/GD32VW553/V1_MQTT_OK/GD32VW55X_Wifi_BLE_SDK/GD32VW55x_RELEASE_V1.0.2/MSDK/wpa_supplicant/src/ap\ieee802_11_ht.c **** 		   "0x%04x", MAC2STR(sta->addr), ht_capab);
 652              		.loc 1 446 2
 653 0028 0945     		li	a0,2
 654              	.LVL59:
 445:C:/Users/stapi/OneDrive/Desktop/GD32VW553/V1_MQTT_OK/GD32VW55X_Wifi_BLE_SDK/GD32VW55x_RELEASE_V1.0.2/MSDK/wpa_supplicant/src/ap\ieee802_11_ht.c **** 	wpa_printf(MSG_DEBUG, "HT: STA " MACSTR " HT Capabilities Info: "
 655              		.loc 1 445 11
 656 002a A204     		slli	s1,s1,8
 657 002c D98C     		or	s1,s1,a4
 658              	.LVL60:
 446:C:/Users/stapi/OneDrive/Desktop/GD32VW553/V1_MQTT_OK/GD32VW55X_Wifi_BLE_SDK/GD32VW55x_RELEASE_V1.0.2/MSDK/wpa_supplicant/src/ap\ieee802_11_ht.c **** 		   "0x%04x", MAC2STR(sta->addr), ht_capab);
 659              		.loc 1 446 2 is_stmt 1
 660 002e 26C0     		sw	s1,0(sp)
 661 0030 83C7B500 		lbu	a5,11(a1)
 662 0034 83C8D500 		lbu	a7,13(a1)
 663 0038 03C8C500 		lbu	a6,12(a1)
 664 003c 03C7A500 		lbu	a4,10(a1)
 665 0040 83C69500 		lbu	a3,9(a1)
 666 0044 03C68500 		lbu	a2,8(a1)
 667 0048 B7050000 		lui	a1,%hi(.LC2)
 668              	.LVL61:
 669 004c 93850500 		addi	a1,a1,%lo(.LC2)
 670 0050 97000000 		call	wpa_printf
 670      E7800000 
 671              	.LVL62:
 448:C:/Users/stapi/OneDrive/Desktop/GD32VW553/V1_MQTT_OK/GD32VW55X_Wifi_BLE_SDK/GD32VW55x_RELEASE_V1.0.2/MSDK/wpa_supplicant/src/ap\ieee802_11_ht.c **** 		if (!sta->no_ht_gf_set) {
 672              		.loc 1 448 2
 448:C:/Users/stapi/OneDrive/Desktop/GD32VW553/V1_MQTT_OK/GD32VW55X_Wifi_BLE_SDK/GD32VW55x_RELEASE_V1.0.2/MSDK/wpa_supplicant/src/ap\ieee802_11_ht.c **** 		if (!sta->no_ht_gf_set) {
 673              		.loc 1 448 5 is_stmt 0
 674 0058 93F70401 		andi	a5,s1,16
 675 005c B9EF     		bne	a5,zero,.L63
 449:C:/Users/stapi/OneDrive/Desktop/GD32VW553/V1_MQTT_OK/GD32VW55X_Wifi_BLE_SDK/GD32VW55x_RELEASE_V1.0.2/MSDK/wpa_supplicant/src/ap\ieee802_11_ht.c **** 			sta->no_ht_gf_set = 1;
 676              		.loc 1 449 3 is_stmt 1
 449:C:/Users/stapi/OneDrive/Desktop/GD32VW553/V1_MQTT_OK/GD32VW55X_Wifi_BLE_SDK/GD32VW55x_RELEASE_V1.0.2/MSDK/wpa_supplicant/src/ap\ieee802_11_ht.c **** 			sta->no_ht_gf_set = 1;
 677              		.loc 1 449 7 is_stmt 0
 678 005e 8347D404 		lbu	a5,77(s0)
 451:C:/Users/stapi/OneDrive/Desktop/GD32VW553/V1_MQTT_OK/GD32VW55X_Wifi_BLE_SDK/GD32VW55x_RELEASE_V1.0.2/MSDK/wpa_supplicant/src/ap\ieee802_11_ht.c **** 		}
 679              		.loc 1 451 8
 680 0062 03270900 		lw	a4,0(s2)
 449:C:/Users/stapi/OneDrive/Desktop/GD32VW553/V1_MQTT_OK/GD32VW55X_Wifi_BLE_SDK/GD32VW55x_RELEASE_V1.0.2/MSDK/wpa_supplicant/src/ap\ieee802_11_ht.c **** 			sta->no_ht_gf_set = 1;
 681              		.loc 1 449 6
 682 0066 93F68700 		andi	a3,a5,8
 683 006a 99EA     		bne	a3,zero,.L64
 451:C:/Users/stapi/OneDrive/Desktop/GD32VW553/V1_MQTT_OK/GD32VW55X_Wifi_BLE_SDK/GD32VW55x_RELEASE_V1.0.2/MSDK/wpa_supplicant/src/ap\ieee802_11_ht.c **** 		}
 684              		.loc 1 451 15
 685 006c 8326C748 		lw	a3,1164(a4)
 450:C:/Users/stapi/OneDrive/Desktop/GD32VW553/V1_MQTT_OK/GD32VW55X_Wifi_BLE_SDK/GD32VW55x_RELEASE_V1.0.2/MSDK/wpa_supplicant/src/ap\ieee802_11_ht.c **** 			hapd->iface->num_sta_ht_no_gf++;
 686              		.loc 1 450 4 is_stmt 1
 450:C:/Users/stapi/OneDrive/Desktop/GD32VW553/V1_MQTT_OK/GD32VW55X_Wifi_BLE_SDK/GD32VW55x_RELEASE_V1.0.2/MSDK/wpa_supplicant/src/ap\ieee802_11_ht.c **** 			hapd->iface->num_sta_ht_no_gf++;
 687              		.loc 1 450 22 is_stmt 0
 688 0070 93E78700 		ori	a5,a5,8
 689 0074 A306F404 		sb	a5,77(s0)
 451:C:/Users/stapi/OneDrive/Desktop/GD32VW553/V1_MQTT_OK/GD32VW55X_Wifi_BLE_SDK/GD32VW55x_RELEASE_V1.0.2/MSDK/wpa_supplicant/src/ap\ieee802_11_ht.c **** 		}
 690              		.loc 1 451 4 is_stmt 1
 451:C:/Users/stapi/OneDrive/Desktop/GD32VW553/V1_MQTT_OK/GD32VW55X_Wifi_BLE_SDK/GD32VW55x_RELEASE_V1.0.2/MSDK/wpa_supplicant/src/ap\ieee802_11_ht.c **** 		}
 691              		.loc 1 451 33 is_stmt 0
 692 0078 93871600 		addi	a5,a3,1
 693 007c 2326F748 		sw	a5,1164(a4)
 694              	.L64:
 453:C:/Users/stapi/OneDrive/Desktop/GD32VW553/V1_MQTT_OK/GD32VW55X_Wifi_BLE_SDK/GD32VW55x_RELEASE_V1.0.2/MSDK/wpa_supplicant/src/ap\ieee802_11_ht.c **** 			   "of non-gf stations %d",
 695              		.loc 1 453 3 is_stmt 1
 696 0080 8327C748 		lw	a5,1164(a4)
 697 0084 8348C400 		lbu	a7,12(s0)
 698 0088 0348B400 		lbu	a6,11(s0)
 699 008c 3EC2     		sw	a5,4(sp)
 700 008e 8347D400 		lbu	a5,13(s0)
 701 0092 03479400 		lbu	a4,9(s0)
 702 0096 83468400 		lbu	a3,8(s0)
 703 009a 3EC0     		sw	a5,0(sp)
 704 009c 8347A400 		lbu	a5,10(s0)
 705 00a0 37060000 		lui	a2,%hi(.LANCHOR1)
 706 00a4 B7050000 		lui	a1,%hi(.LC3)
 707 00a8 13060600 		addi	a2,a2,%lo(.LANCHOR1)
 708 00ac 93850500 		addi	a1,a1,%lo(.LC3)
 709 00b0 0945     		li	a0,2
 710 00b2 97000000 		call	wpa_printf
 710      E7800000 
 711              	.LVL63:
 712              	.L63:
 458:C:/Users/stapi/OneDrive/Desktop/GD32VW553/V1_MQTT_OK/GD32VW55X_Wifi_BLE_SDK/GD32VW55x_RELEASE_V1.0.2/MSDK/wpa_supplicant/src/ap\ieee802_11_ht.c **** 		if (!sta->ht_20mhz_set) {
 713              		.loc 1 458 2
 458:C:/Users/stapi/OneDrive/Desktop/GD32VW553/V1_MQTT_OK/GD32VW55X_Wifi_BLE_SDK/GD32VW55x_RELEASE_V1.0.2/MSDK/wpa_supplicant/src/ap\ieee802_11_ht.c **** 		if (!sta->ht_20mhz_set) {
 714              		.loc 1 458 5 is_stmt 0
 715 00ba 8988     		andi	s1,s1,2
 716              	.LVL64:
 717 00bc B9EC     		bne	s1,zero,.L66
 459:C:/Users/stapi/OneDrive/Desktop/GD32VW553/V1_MQTT_OK/GD32VW55X_Wifi_BLE_SDK/GD32VW55x_RELEASE_V1.0.2/MSDK/wpa_supplicant/src/ap\ieee802_11_ht.c **** 			sta->ht_20mhz_set = 1;
 718              		.loc 1 459 7
 719 00be 8347D404 		lbu	a5,77(s0)
 461:C:/Users/stapi/OneDrive/Desktop/GD32VW553/V1_MQTT_OK/GD32VW55X_Wifi_BLE_SDK/GD32VW55x_RELEASE_V1.0.2/MSDK/wpa_supplicant/src/ap\ieee802_11_ht.c **** 		}
 720              		.loc 1 461 8
 721 00c2 03270900 		lw	a4,0(s2)
 459:C:/Users/stapi/OneDrive/Desktop/GD32VW553/V1_MQTT_OK/GD32VW55X_Wifi_BLE_SDK/GD32VW55x_RELEASE_V1.0.2/MSDK/wpa_supplicant/src/ap\ieee802_11_ht.c **** 			sta->ht_20mhz_set = 1;
 722              		.loc 1 459 3 is_stmt 1
 459:C:/Users/stapi/OneDrive/Desktop/GD32VW553/V1_MQTT_OK/GD32VW55X_Wifi_BLE_SDK/GD32VW55x_RELEASE_V1.0.2/MSDK/wpa_supplicant/src/ap\ieee802_11_ht.c **** 			sta->ht_20mhz_set = 1;
 723              		.loc 1 459 6 is_stmt 0
 724 00c6 93F60704 		andi	a3,a5,64
 725 00ca 99EA     		bne	a3,zero,.L67
 461:C:/Users/stapi/OneDrive/Desktop/GD32VW553/V1_MQTT_OK/GD32VW55X_Wifi_BLE_SDK/GD32VW55x_RELEASE_V1.0.2/MSDK/wpa_supplicant/src/ap\ieee802_11_ht.c **** 		}
 726              		.loc 1 461 15
 727 00cc 83264749 		lw	a3,1172(a4)
 460:C:/Users/stapi/OneDrive/Desktop/GD32VW553/V1_MQTT_OK/GD32VW55X_Wifi_BLE_SDK/GD32VW55x_RELEASE_V1.0.2/MSDK/wpa_supplicant/src/ap\ieee802_11_ht.c **** 			hapd->iface->num_sta_ht_20mhz++;
 728              		.loc 1 460 4 is_stmt 1
 460:C:/Users/stapi/OneDrive/Desktop/GD32VW553/V1_MQTT_OK/GD32VW55X_Wifi_BLE_SDK/GD32VW55x_RELEASE_V1.0.2/MSDK/wpa_supplicant/src/ap\ieee802_11_ht.c **** 			hapd->iface->num_sta_ht_20mhz++;
 729              		.loc 1 460 22 is_stmt 0
 730 00d0 93E70704 		ori	a5,a5,64
 731 00d4 A306F404 		sb	a5,77(s0)
 461:C:/Users/stapi/OneDrive/Desktop/GD32VW553/V1_MQTT_OK/GD32VW55X_Wifi_BLE_SDK/GD32VW55x_RELEASE_V1.0.2/MSDK/wpa_supplicant/src/ap\ieee802_11_ht.c **** 		}
 732              		.loc 1 461 4 is_stmt 1
 461:C:/Users/stapi/OneDrive/Desktop/GD32VW553/V1_MQTT_OK/GD32VW55X_Wifi_BLE_SDK/GD32VW55x_RELEASE_V1.0.2/MSDK/wpa_supplicant/src/ap\ieee802_11_ht.c **** 		}
 733              		.loc 1 461 33 is_stmt 0
 734 00d8 93871600 		addi	a5,a3,1
 735 00dc 232AF748 		sw	a5,1172(a4)
 736              	.L67:
 463:C:/Users/stapi/OneDrive/Desktop/GD32VW553/V1_MQTT_OK/GD32VW55X_Wifi_BLE_SDK/GD32VW55x_RELEASE_V1.0.2/MSDK/wpa_supplicant/src/ap\ieee802_11_ht.c **** 			   "20MHz HT STAs %d",
 737              		.loc 1 463 3 is_stmt 1
 738 00e0 83274749 		lw	a5,1172(a4)
 739 00e4 8348C400 		lbu	a7,12(s0)
 740 00e8 0348B400 		lbu	a6,11(s0)
 741 00ec 3EC2     		sw	a5,4(sp)
 742 00ee 8347D400 		lbu	a5,13(s0)
 743 00f2 03479400 		lbu	a4,9(s0)
 744 00f6 83468400 		lbu	a3,8(s0)
 745 00fa 3EC0     		sw	a5,0(sp)
 746 00fc 8347A400 		lbu	a5,10(s0)
 747 0100 37060000 		lui	a2,%hi(.LANCHOR1)
 748 0104 B7050000 		lui	a1,%hi(.LC4)
 749 0108 13060600 		addi	a2,a2,%lo(.LANCHOR1)
 750 010c 93850500 		addi	a1,a1,%lo(.LC4)
 751              	.LVL65:
 752              	.L81:
 753              	.LBE14:
 754              	.LBE13:
 755              	.LBB15:
 756              	.LBB16:
 483:C:/Users/stapi/OneDrive/Desktop/GD32VW553/V1_MQTT_OK/GD32VW55X_Wifi_BLE_SDK/GD32VW55x_RELEASE_V1.0.2/MSDK/wpa_supplicant/src/ap\ieee802_11_ht.c **** 			   "non-HT stations %d",
 757              		.loc 1 483 3 is_stmt 0
 758 0110 0945     		li	a0,2
 759 0112 97000000 		call	wpa_printf
 759      E7800000 
 760              	.LVL66:
 761              	.L66:
 762              	.LBE16:
 763              	.LBE15:
 495:C:/Users/stapi/OneDrive/Desktop/GD32VW553/V1_MQTT_OK/GD32VW55X_Wifi_BLE_SDK/GD32VW55x_RELEASE_V1.0.2/MSDK/wpa_supplicant/src/ap\ieee802_11_ht.c **** 	else
 496:C:/Users/stapi/OneDrive/Desktop/GD32VW553/V1_MQTT_OK/GD32VW55X_Wifi_BLE_SDK/GD32VW55x_RELEASE_V1.0.2/MSDK/wpa_supplicant/src/ap\ieee802_11_ht.c **** 		update_sta_no_ht(hapd, sta);
 497:C:/Users/stapi/OneDrive/Desktop/GD32VW553/V1_MQTT_OK/GD32VW55X_Wifi_BLE_SDK/GD32VW55x_RELEASE_V1.0.2/MSDK/wpa_supplicant/src/ap\ieee802_11_ht.c **** 
 498:C:/Users/stapi/OneDrive/Desktop/GD32VW553/V1_MQTT_OK/GD32VW55X_Wifi_BLE_SDK/GD32VW55x_RELEASE_V1.0.2/MSDK/wpa_supplicant/src/ap\ieee802_11_ht.c **** 	if (hostapd_ht_operation_update(hapd->iface) > 0)
 764              		.loc 1 498 2 is_stmt 1
 765              		.loc 1 498 6 is_stmt 0
 766 011a 03250900 		lw	a0,0(s2)
 767 011e 97000000 		call	hostapd_ht_operation_update
 767      E7800000 
 768              	.LVL67:
 769              		.loc 1 498 5
 770 0126 6358A000 		ble	a0,zero,.L61
 499:C:/Users/stapi/OneDrive/Desktop/GD32VW553/V1_MQTT_OK/GD32VW55X_Wifi_BLE_SDK/GD32VW55x_RELEASE_V1.0.2/MSDK/wpa_supplicant/src/ap\ieee802_11_ht.c **** 		ieee802_11_set_beacons(hapd->iface);
 771              		.loc 1 499 3 is_stmt 1
 772 012a 03250900 		lw	a0,0(s2)
 773 012e 97000000 		call	ieee802_11_set_beacons
 773      E7800000 
 774              	.LVL68:
 775              	.L61:
 500:C:/Users/stapi/OneDrive/Desktop/GD32VW553/V1_MQTT_OK/GD32VW55X_Wifi_BLE_SDK/GD32VW55x_RELEASE_V1.0.2/MSDK/wpa_supplicant/src/ap\ieee802_11_ht.c **** }
 776              		.loc 1 500 1 is_stmt 0
 777 0136 4101     		addi	sp,sp,16
 778              		.cfi_remember_state
 779              		.cfi_def_cfa_offset 0
 780 0138 17030000 		tail	__riscv_restore_3
 780      67000300 
 781              		.cfi_restore 18
 782              		.cfi_restore 9
 783              		.cfi_restore 8
 784              		.cfi_restore 1
 785              		.cfi_def_cfa_offset -16
 786              	.LVL69:
 787              	.L62:
 788              		.cfi_restore_state
 496:C:/Users/stapi/OneDrive/Desktop/GD32VW553/V1_MQTT_OK/GD32VW55X_Wifi_BLE_SDK/GD32VW55x_RELEASE_V1.0.2/MSDK/wpa_supplicant/src/ap\ieee802_11_ht.c **** 
 789              		.loc 1 496 3 is_stmt 1
 790              	.LBB18:
 791              	.LBB17:
 478:C:/Users/stapi/OneDrive/Desktop/GD32VW553/V1_MQTT_OK/GD32VW55X_Wifi_BLE_SDK/GD32VW55x_RELEASE_V1.0.2/MSDK/wpa_supplicant/src/ap\ieee802_11_ht.c **** 		sta->no_ht_set = 1;
 792              		.loc 1 478 2
 478:C:/Users/stapi/OneDrive/Desktop/GD32VW553/V1_MQTT_OK/GD32VW55X_Wifi_BLE_SDK/GD32VW55x_RELEASE_V1.0.2/MSDK/wpa_supplicant/src/ap\ieee802_11_ht.c **** 		sta->no_ht_set = 1;
 793              		.loc 1 478 6 is_stmt 0
 794 0140 8347D404 		lbu	a5,77(s0)
 480:C:/Users/stapi/OneDrive/Desktop/GD32VW553/V1_MQTT_OK/GD32VW55X_Wifi_BLE_SDK/GD32VW55x_RELEASE_V1.0.2/MSDK/wpa_supplicant/src/ap\ieee802_11_ht.c **** 	}
 795              		.loc 1 480 7
 796 0144 03270900 		lw	a4,0(s2)
 478:C:/Users/stapi/OneDrive/Desktop/GD32VW553/V1_MQTT_OK/GD32VW55X_Wifi_BLE_SDK/GD32VW55x_RELEASE_V1.0.2/MSDK/wpa_supplicant/src/ap\ieee802_11_ht.c **** 		sta->no_ht_set = 1;
 797              		.loc 1 478 5
 798 0148 93F60701 		andi	a3,a5,16
 799 014c 91EA     		bne	a3,zero,.L68
 479:C:/Users/stapi/OneDrive/Desktop/GD32VW553/V1_MQTT_OK/GD32VW55X_Wifi_BLE_SDK/GD32VW55x_RELEASE_V1.0.2/MSDK/wpa_supplicant/src/ap\ieee802_11_ht.c **** 		hapd->iface->num_sta_no_ht++;
 800              		.loc 1 479 3 is_stmt 1
 479:C:/Users/stapi/OneDrive/Desktop/GD32VW553/V1_MQTT_OK/GD32VW55X_Wifi_BLE_SDK/GD32VW55x_RELEASE_V1.0.2/MSDK/wpa_supplicant/src/ap\ieee802_11_ht.c **** 		hapd->iface->num_sta_no_ht++;
 801              		.loc 1 479 18 is_stmt 0
 802 014e 93E70701 		ori	a5,a5,16
 803 0152 A306F404 		sb	a5,77(s0)
 480:C:/Users/stapi/OneDrive/Desktop/GD32VW553/V1_MQTT_OK/GD32VW55X_Wifi_BLE_SDK/GD32VW55x_RELEASE_V1.0.2/MSDK/wpa_supplicant/src/ap\ieee802_11_ht.c **** 	}
 804              		.loc 1 480 3 is_stmt 1
 480:C:/Users/stapi/OneDrive/Desktop/GD32VW553/V1_MQTT_OK/GD32VW55X_Wifi_BLE_SDK/GD32VW55x_RELEASE_V1.0.2/MSDK/wpa_supplicant/src/ap\ieee802_11_ht.c **** 	}
 805              		.loc 1 480 29 is_stmt 0
 806 0156 83270749 		lw	a5,1168(a4)
 807 015a 8507     		addi	a5,a5,1
 808 015c 2328F748 		sw	a5,1168(a4)
 809              	.L68:
 482:C:/Users/stapi/OneDrive/Desktop/GD32VW553/V1_MQTT_OK/GD32VW55X_Wifi_BLE_SDK/GD32VW55x_RELEASE_V1.0.2/MSDK/wpa_supplicant/src/ap\ieee802_11_ht.c **** 		wpa_printf(MSG_DEBUG, "%s STA " MACSTR " - no HT, num of "
 810              		.loc 1 482 2 is_stmt 1
 482:C:/Users/stapi/OneDrive/Desktop/GD32VW553/V1_MQTT_OK/GD32VW55X_Wifi_BLE_SDK/GD32VW55x_RELEASE_V1.0.2/MSDK/wpa_supplicant/src/ap\ieee802_11_ht.c **** 		wpa_printf(MSG_DEBUG, "%s STA " MACSTR " - no HT, num of "
 811              		.loc 1 482 17 is_stmt 0
 812 0160 83274900 		lw	a5,4(s2)
 482:C:/Users/stapi/OneDrive/Desktop/GD32VW553/V1_MQTT_OK/GD32VW55X_Wifi_BLE_SDK/GD32VW55x_RELEASE_V1.0.2/MSDK/wpa_supplicant/src/ap\ieee802_11_ht.c **** 		wpa_printf(MSG_DEBUG, "%s STA " MACSTR " - no HT, num of "
 813              		.loc 1 482 5
 814 0164 83A70712 		lw	a5,288(a5)
 815 0168 CDDB     		beq	a5,zero,.L66
 483:C:/Users/stapi/OneDrive/Desktop/GD32VW553/V1_MQTT_OK/GD32VW55X_Wifi_BLE_SDK/GD32VW55x_RELEASE_V1.0.2/MSDK/wpa_supplicant/src/ap\ieee802_11_ht.c **** 			   "non-HT stations %d",
 816              		.loc 1 483 3 is_stmt 1
 817 016a 83270749 		lw	a5,1168(a4)
 818 016e 37060000 		lui	a2,%hi(.LANCHOR2)
 819 0172 B7050000 		lui	a1,%hi(.LC5)
 820 0176 3EC2     		sw	a5,4(sp)
 821 0178 8347D400 		lbu	a5,13(s0)
 822 017c 8348C400 		lbu	a7,12(s0)
 823 0180 0348B400 		lbu	a6,11(s0)
 824 0184 3EC0     		sw	a5,0(sp)
 825 0186 03479400 		lbu	a4,9(s0)
 826 018a 8347A400 		lbu	a5,10(s0)
 827 018e 83468400 		lbu	a3,8(s0)
 828 0192 13060600 		addi	a2,a2,%lo(.LANCHOR2)
 829 0196 93850500 		addi	a1,a1,%lo(.LC5)
 830 019a 9DBF     		j	.L81
 831              	.LBE17:
 832              	.LBE18:
 833              		.cfi_endproc
 834              	.LFE174:
 836              		.section	.text.hostapd_get_ht_capab,"ax",@progbits
 837              		.align	1
 838              		.globl	hostapd_get_ht_capab
 840              	hostapd_get_ht_capab:
 841              	.LFB175:
 501:C:/Users/stapi/OneDrive/Desktop/GD32VW553/V1_MQTT_OK/GD32VW55X_Wifi_BLE_SDK/GD32VW55x_RELEASE_V1.0.2/MSDK/wpa_supplicant/src/ap\ieee802_11_ht.c **** 
 502:C:/Users/stapi/OneDrive/Desktop/GD32VW553/V1_MQTT_OK/GD32VW55X_Wifi_BLE_SDK/GD32VW55x_RELEASE_V1.0.2/MSDK/wpa_supplicant/src/ap\ieee802_11_ht.c **** 
 503:C:/Users/stapi/OneDrive/Desktop/GD32VW553/V1_MQTT_OK/GD32VW55X_Wifi_BLE_SDK/GD32VW55x_RELEASE_V1.0.2/MSDK/wpa_supplicant/src/ap\ieee802_11_ht.c **** void hostapd_get_ht_capab(struct hostapd_data *hapd,
 504:C:/Users/stapi/OneDrive/Desktop/GD32VW553/V1_MQTT_OK/GD32VW55X_Wifi_BLE_SDK/GD32VW55x_RELEASE_V1.0.2/MSDK/wpa_supplicant/src/ap\ieee802_11_ht.c **** 			  struct ieee80211_ht_capabilities *ht_cap,
 505:C:/Users/stapi/OneDrive/Desktop/GD32VW553/V1_MQTT_OK/GD32VW55X_Wifi_BLE_SDK/GD32VW55x_RELEASE_V1.0.2/MSDK/wpa_supplicant/src/ap\ieee802_11_ht.c **** 			  struct ieee80211_ht_capabilities *neg_ht_cap)
 506:C:/Users/stapi/OneDrive/Desktop/GD32VW553/V1_MQTT_OK/GD32VW55X_Wifi_BLE_SDK/GD32VW55x_RELEASE_V1.0.2/MSDK/wpa_supplicant/src/ap\ieee802_11_ht.c **** {
 842              		.loc 1 506 1
 843              		.cfi_startproc
 844              	.LVL70:
 507:C:/Users/stapi/OneDrive/Desktop/GD32VW553/V1_MQTT_OK/GD32VW55X_Wifi_BLE_SDK/GD32VW55x_RELEASE_V1.0.2/MSDK/wpa_supplicant/src/ap\ieee802_11_ht.c **** 	u16 cap;
 845              		.loc 1 507 2
 508:C:/Users/stapi/OneDrive/Desktop/GD32VW553/V1_MQTT_OK/GD32VW55X_Wifi_BLE_SDK/GD32VW55x_RELEASE_V1.0.2/MSDK/wpa_supplicant/src/ap\ieee802_11_ht.c **** 
 509:C:/Users/stapi/OneDrive/Desktop/GD32VW553/V1_MQTT_OK/GD32VW55X_Wifi_BLE_SDK/GD32VW55x_RELEASE_V1.0.2/MSDK/wpa_supplicant/src/ap\ieee802_11_ht.c **** 	if (ht_cap == NULL)
 846              		.loc 1 509 2
 847              		.loc 1 509 5 is_stmt 0
 848 0000 A5C1     		beq	a1,zero,.L90
 506:C:/Users/stapi/OneDrive/Desktop/GD32VW553/V1_MQTT_OK/GD32VW55X_Wifi_BLE_SDK/GD32VW55x_RELEASE_V1.0.2/MSDK/wpa_supplicant/src/ap\ieee802_11_ht.c **** 	u16 cap;
 849              		.loc 1 506 1
 850 0002 17030000 		call	t0,__riscv_save_2
 850      E7020300 
 851              		.cfi_offset 9, -12
 852              		.cfi_offset 8, -8
 853              		.cfi_offset 1, -4
 854              		.cfi_def_cfa_offset 16
 855 000a 3284     		mv	s0,a2
 510:C:/Users/stapi/OneDrive/Desktop/GD32VW553/V1_MQTT_OK/GD32VW55X_Wifi_BLE_SDK/GD32VW55x_RELEASE_V1.0.2/MSDK/wpa_supplicant/src/ap\ieee802_11_ht.c **** 		return;
 511:C:/Users/stapi/OneDrive/Desktop/GD32VW553/V1_MQTT_OK/GD32VW55X_Wifi_BLE_SDK/GD32VW55x_RELEASE_V1.0.2/MSDK/wpa_supplicant/src/ap\ieee802_11_ht.c **** 	os_memcpy(neg_ht_cap, ht_cap, sizeof(*neg_ht_cap));
 856              		.loc 1 511 2 is_stmt 1
 857 000c AA84     		mv	s1,a0
 858 000e 6946     		li	a2,26
 859              	.LVL71:
 860 0010 2285     		mv	a0,s0
 861              	.LVL72:
 862 0012 97000000 		call	os_memcpy
 862      E7800000 
 863              	.LVL73:
 512:C:/Users/stapi/OneDrive/Desktop/GD32VW553/V1_MQTT_OK/GD32VW55X_Wifi_BLE_SDK/GD32VW55x_RELEASE_V1.0.2/MSDK/wpa_supplicant/src/ap\ieee802_11_ht.c **** 	cap = le_to_host16(neg_ht_cap->ht_capabilities_info);
 864              		.loc 1 512 2
 865              		.loc 1 512 6 is_stmt 0
 866 001a 83471400 		lbu	a5,1(s0)
 867 001e 03470400 		lbu	a4,0(s0)
 868 0022 A207     		slli	a5,a5,8
 869 0024 D98F     		or	a5,a5,a4
 870              	.LVL74:
 513:C:/Users/stapi/OneDrive/Desktop/GD32VW553/V1_MQTT_OK/GD32VW55X_Wifi_BLE_SDK/GD32VW55x_RELEASE_V1.0.2/MSDK/wpa_supplicant/src/ap\ieee802_11_ht.c **** 
 514:C:/Users/stapi/OneDrive/Desktop/GD32VW553/V1_MQTT_OK/GD32VW55X_Wifi_BLE_SDK/GD32VW55x_RELEASE_V1.0.2/MSDK/wpa_supplicant/src/ap\ieee802_11_ht.c **** 	/*
 515:C:/Users/stapi/OneDrive/Desktop/GD32VW553/V1_MQTT_OK/GD32VW55X_Wifi_BLE_SDK/GD32VW55x_RELEASE_V1.0.2/MSDK/wpa_supplicant/src/ap\ieee802_11_ht.c **** 	 * Mask out HT features we don't support, but don't overwrite
 516:C:/Users/stapi/OneDrive/Desktop/GD32VW553/V1_MQTT_OK/GD32VW55X_Wifi_BLE_SDK/GD32VW55x_RELEASE_V1.0.2/MSDK/wpa_supplicant/src/ap\ieee802_11_ht.c **** 	 * non-symmetric features like STBC and SMPS. Just because
 517:C:/Users/stapi/OneDrive/Desktop/GD32VW553/V1_MQTT_OK/GD32VW55X_Wifi_BLE_SDK/GD32VW55x_RELEASE_V1.0.2/MSDK/wpa_supplicant/src/ap\ieee802_11_ht.c **** 	 * we're not in dynamic SMPS mode the STA might still be.
 518:C:/Users/stapi/OneDrive/Desktop/GD32VW553/V1_MQTT_OK/GD32VW55X_Wifi_BLE_SDK/GD32VW55x_RELEASE_V1.0.2/MSDK/wpa_supplicant/src/ap\ieee802_11_ht.c **** 	 */
 519:C:/Users/stapi/OneDrive/Desktop/GD32VW553/V1_MQTT_OK/GD32VW55X_Wifi_BLE_SDK/GD32VW55x_RELEASE_V1.0.2/MSDK/wpa_supplicant/src/ap\ieee802_11_ht.c **** 	cap &= (hapd->iconf->ht_capab | HT_CAP_INFO_RX_STBC_MASK |
 871              		.loc 1 519 2 is_stmt 1
 872              		.loc 1 519 21 is_stmt 0
 873 0026 D840     		lw	a4,4(s1)
 874 0028 0357C711 		lhu	a4,284(a4)
 875              		.loc 1 519 6
 876 002c 9366C738 		ori	a3,a4,908
 877 0030 F58F     		and	a5,a5,a3
 878              	.LVL75:
 520:C:/Users/stapi/OneDrive/Desktop/GD32VW553/V1_MQTT_OK/GD32VW55X_Wifi_BLE_SDK/GD32VW55x_RELEASE_V1.0.2/MSDK/wpa_supplicant/src/ap\ieee802_11_ht.c **** 		HT_CAP_INFO_TX_STBC | HT_CAP_INFO_SMPS_MASK);
 521:C:/Users/stapi/OneDrive/Desktop/GD32VW553/V1_MQTT_OK/GD32VW55X_Wifi_BLE_SDK/GD32VW55x_RELEASE_V1.0.2/MSDK/wpa_supplicant/src/ap\ieee802_11_ht.c **** 
 522:C:/Users/stapi/OneDrive/Desktop/GD32VW553/V1_MQTT_OK/GD32VW55X_Wifi_BLE_SDK/GD32VW55x_RELEASE_V1.0.2/MSDK/wpa_supplicant/src/ap\ieee802_11_ht.c **** 	/*
 523:C:/Users/stapi/OneDrive/Desktop/GD32VW553/V1_MQTT_OK/GD32VW55X_Wifi_BLE_SDK/GD32VW55x_RELEASE_V1.0.2/MSDK/wpa_supplicant/src/ap\ieee802_11_ht.c **** 	 * STBC needs to be handled specially
 524:C:/Users/stapi/OneDrive/Desktop/GD32VW553/V1_MQTT_OK/GD32VW55X_Wifi_BLE_SDK/GD32VW55x_RELEASE_V1.0.2/MSDK/wpa_supplicant/src/ap\ieee802_11_ht.c **** 	 * if we don't support RX STBC, mask out TX STBC in the STA's HT caps
 525:C:/Users/stapi/OneDrive/Desktop/GD32VW553/V1_MQTT_OK/GD32VW55X_Wifi_BLE_SDK/GD32VW55x_RELEASE_V1.0.2/MSDK/wpa_supplicant/src/ap\ieee802_11_ht.c **** 	 * if we don't support TX STBC, mask out RX STBC in the STA's HT caps
 526:C:/Users/stapi/OneDrive/Desktop/GD32VW553/V1_MQTT_OK/GD32VW55X_Wifi_BLE_SDK/GD32VW55x_RELEASE_V1.0.2/MSDK/wpa_supplicant/src/ap\ieee802_11_ht.c **** 	 */
 527:C:/Users/stapi/OneDrive/Desktop/GD32VW553/V1_MQTT_OK/GD32VW55X_Wifi_BLE_SDK/GD32VW55x_RELEASE_V1.0.2/MSDK/wpa_supplicant/src/ap\ieee802_11_ht.c **** 	if (!(hapd->iconf->ht_capab & HT_CAP_INFO_RX_STBC_MASK))
 879              		.loc 1 527 2 is_stmt 1
 880              		.loc 1 527 5 is_stmt 0
 881 0032 93760730 		andi	a3,a4,768
 882 0036 89E6     		bne	a3,zero,.L84
 528:C:/Users/stapi/OneDrive/Desktop/GD32VW553/V1_MQTT_OK/GD32VW55X_Wifi_BLE_SDK/GD32VW55x_RELEASE_V1.0.2/MSDK/wpa_supplicant/src/ap\ieee802_11_ht.c **** 		cap &= ~HT_CAP_INFO_TX_STBC;
 883              		.loc 1 528 3 is_stmt 1
 884              		.loc 1 528 7 is_stmt 0
 885 0038 93F7F7F7 		andi	a5,a5,-129
 886              	.LVL76:
 887 003c B3C70708 		zext.h	a5,a5
 888              	.LVL77:
 889              	.L84:
 529:C:/Users/stapi/OneDrive/Desktop/GD32VW553/V1_MQTT_OK/GD32VW55X_Wifi_BLE_SDK/GD32VW55x_RELEASE_V1.0.2/MSDK/wpa_supplicant/src/ap\ieee802_11_ht.c **** 	if (!(hapd->iconf->ht_capab & HT_CAP_INFO_TX_STBC))
 890              		.loc 1 529 2 is_stmt 1
 891              		.loc 1 529 5 is_stmt 0
 892 0040 13770708 		andi	a4,a4,128
 893 0044 09E7     		bne	a4,zero,.L85
 530:C:/Users/stapi/OneDrive/Desktop/GD32VW553/V1_MQTT_OK/GD32VW55X_Wifi_BLE_SDK/GD32VW55x_RELEASE_V1.0.2/MSDK/wpa_supplicant/src/ap\ieee802_11_ht.c **** 		cap &= ~HT_CAP_INFO_RX_STBC_MASK;
 894              		.loc 1 530 3 is_stmt 1
 895              		.loc 1 530 7 is_stmt 0
 896 0046 93F7F7CF 		andi	a5,a5,-769
 897              	.LVL78:
 898 004a B3C70708 		zext.h	a5,a5
 899              	.LVL79:
 900              	.L85:
 531:C:/Users/stapi/OneDrive/Desktop/GD32VW553/V1_MQTT_OK/GD32VW55X_Wifi_BLE_SDK/GD32VW55x_RELEASE_V1.0.2/MSDK/wpa_supplicant/src/ap\ieee802_11_ht.c **** 
 532:C:/Users/stapi/OneDrive/Desktop/GD32VW553/V1_MQTT_OK/GD32VW55X_Wifi_BLE_SDK/GD32VW55x_RELEASE_V1.0.2/MSDK/wpa_supplicant/src/ap\ieee802_11_ht.c **** 	neg_ht_cap->ht_capabilities_info = host_to_le16(cap);
 901              		.loc 1 532 2 is_stmt 1
 902              		.loc 1 532 35 is_stmt 0
 903 004e 2300F400 		sb	a5,0(s0)
 904 0052 A183     		srli	a5,a5,8
 905              	.LVL80:
 906 0054 A300F400 		sb	a5,1(s0)
 533:C:/Users/stapi/OneDrive/Desktop/GD32VW553/V1_MQTT_OK/GD32VW55X_Wifi_BLE_SDK/GD32VW55x_RELEASE_V1.0.2/MSDK/wpa_supplicant/src/ap\ieee802_11_ht.c **** }
 907              		.loc 1 533 1
 908 0058 17030000 		tail	__riscv_restore_2
 908      67000300 
 909              		.cfi_restore 9
 910              		.cfi_restore 8
 911              		.cfi_restore 1
 912              		.cfi_def_cfa_offset 0
 913              	.LVL81:
 914              	.L90:
 915 0060 8280     		ret
 916              		.cfi_endproc
 917              	.LFE175:
 919              		.section	.rodata.__func__.0,"a"
 920              		.align	2
 921              		.set	.LANCHOR2,. + 0
 924              	__func__.0:
 925 0000 75706461 		.string	"update_sta_no_ht"
 925      74655F73 
 925      74615F6E 
 925      6F5F6874 
 925      00
 926              		.section	.rodata.__func__.1,"a"
 927              		.align	2
 928              		.set	.LANCHOR1,. + 0
 931              	__func__.1:
 932 0000 75706461 		.string	"update_sta_ht"
 932      74655F73 
 932      74615F68 
 932      7400
 933              		.section	.rodata.__func__.2,"a"
 934              		.align	2
 935              		.set	.LANCHOR0,. + 0
 938              	__func__.2:
 939 0000 686F7374 		.string	"hostapd_ht_operation_update"
 939      6170645F 
 939      68745F6F 
 939      70657261 
 939      74696F6E 
 940              		.text
 941              	.Letext0:
 942              		.file 2 "c:\\users\\stapi\\onedrive\\desktop\\gd32vw553\\embeddedbuilder_v1.4.7.26843\\tools\\nucl
 943              		.file 3 "c:\\users\\stapi\\onedrive\\desktop\\gd32vw553\\embeddedbuilder_v1.4.7.26843\\tools\\nucl
 944              		.file 4 "c:\\users\\stapi\\onedrive\\desktop\\gd32vw553\\embeddedbuilder_v1.4.7.26843\\tools\\nucl
 945              		.file 5 "..\\..\\..\\..\\lwip\\lwip-2.1.2\\src\\include/lwip/arch.h"
 946              		.file 6 "..\\..\\..\\..\\lwip\\lwip-2.1.2\\src\\include/lwip/inet.h"
 947              		.file 7 "..\\..\\..\\..\\wpa_supplicant\\src/utils/os.h"
 948              		.file 8 "..\\..\\..\\..\\wpa_supplicant\\src/utils/common.h"
 949              		.file 9 "..\\..\\..\\..\\wpa_supplicant\\src/utils/wpabuf.h"
 950              		.file 10 "..\\..\\..\\..\\wpa_supplicant\\src/common/ieee802_11_defs.h"
 951              		.file 11 "..\\..\\..\\..\\wpa_supplicant\\src/utils/wpa_debug.h"
 952              		.file 12 "..\\..\\..\\..\\wpa_supplicant\\src/common/defs.h"
 953              		.file 13 "..\\..\\..\\..\\wpa_supplicant\\src/utils/list.h"
 954              		.file 14 "..\\..\\..\\..\\wpa_supplicant\\src/utils/ip_addr.h"
 955              		.file 15 "..\\..\\..\\..\\wpa_supplicant\\src/common/ieee802_11_common.h"
 956              		.file 16 "..\\..\\..\\..\\wpa_supplicant\\src/wps/wps_defs.h"
 957              		.file 17 "..\\..\\..\\..\\wpa_supplicant\\src/wps/wps.h"
 958              		.file 18 "C:/Users/stapi/OneDrive/Desktop/GD32VW553/V1_MQTT_OK/GD32VW55X_Wifi_BLE_SDK/GD32VW55x_RE
 959              		.file 19 "C:/Users/stapi/OneDrive/Desktop/GD32VW553/V1_MQTT_OK/GD32VW55X_Wifi_BLE_SDK/GD32VW55x_RE
 960              		.file 20 "..\\..\\..\\..\\wpa_supplicant\\src/common/sae.h"
 961              		.file 21 "..\\..\\..\\..\\wpa_supplicant\\src/drivers/driver.h"
 962              		.file 22 "C:/Users/stapi/OneDrive/Desktop/GD32VW553/V1_MQTT_OK/GD32VW55X_Wifi_BLE_SDK/GD32VW55x_RE
 963              		.file 23 "C:/Users/stapi/OneDrive/Desktop/GD32VW553/V1_MQTT_OK/GD32VW55X_Wifi_BLE_SDK/GD32VW55x_RE
 964              		.file 24 "C:/Users/stapi/OneDrive/Desktop/GD32VW553/V1_MQTT_OK/GD32VW55X_Wifi_BLE_SDK/GD32VW55x_RE
DEFINED SYMBOLS
                            *ABS*:0000000000000000 ieee802_11_ht.c
C:\Users\stapi\AppData\Local\Temp\ccVMe8Sf.s:13     .text.hostapd_eid_ht_capabilities:0000000000000000 hostapd_eid_ht_capabilities
C:\Users\stapi\AppData\Local\Temp\ccVMe8Sf.s:17     .text.hostapd_eid_ht_capabilities:0000000000000000 .L0 
C:\Users\stapi\AppData\Local\Temp\ccVMe8Sf.s:19     .text.hostapd_eid_ht_capabilities:0000000000000000 .L0 
C:\Users\stapi\AppData\Local\Temp\ccVMe8Sf.s:20     .text.hostapd_eid_ht_capabilities:0000000000000008 .L0 
C:\Users\stapi\AppData\Local\Temp\ccVMe8Sf.s:21     .text.hostapd_eid_ht_capabilities:0000000000000008 .L0 
C:\Users\stapi\AppData\Local\Temp\ccVMe8Sf.s:22     .text.hostapd_eid_ht_capabilities:0000000000000008 .L0 
C:\Users\stapi\AppData\Local\Temp\ccVMe8Sf.s:23     .text.hostapd_eid_ht_capabilities:0000000000000008 .L0 
C:\Users\stapi\AppData\Local\Temp\ccVMe8Sf.s:25     .text.hostapd_eid_ht_capabilities:0000000000000008 .L0 
C:\Users\stapi\AppData\Local\Temp\ccVMe8Sf.s:26     .text.hostapd_eid_ht_capabilities:0000000000000008 .L0 
C:\Users\stapi\AppData\Local\Temp\ccVMe8Sf.s:27     .text.hostapd_eid_ht_capabilities:0000000000000008 .L0 
C:\Users\stapi\AppData\Local\Temp\ccVMe8Sf.s:29     .text.hostapd_eid_ht_capabilities:000000000000000a .L0 
C:\Users\stapi\AppData\Local\Temp\ccVMe8Sf.s:32     .text.hostapd_eid_ht_capabilities:000000000000000c .L0 
C:\Users\stapi\AppData\Local\Temp\ccVMe8Sf.s:33     .text.hostapd_eid_ht_capabilities:000000000000000c .L0 
C:\Users\stapi\AppData\Local\Temp\ccVMe8Sf.s:36     .text.hostapd_eid_ht_capabilities:0000000000000012 .L0 
C:\Users\stapi\AppData\Local\Temp\ccVMe8Sf.s:39     .text.hostapd_eid_ht_capabilities:0000000000000016 .L0 
C:\Users\stapi\AppData\Local\Temp\ccVMe8Sf.s:42     .text.hostapd_eid_ht_capabilities:000000000000001c .L0 
C:\Users\stapi\AppData\Local\Temp\ccVMe8Sf.s:44     .text.hostapd_eid_ht_capabilities:000000000000001e .L0 
C:\Users\stapi\AppData\Local\Temp\ccVMe8Sf.s:47     .text.hostapd_eid_ht_capabilities:0000000000000024 .L0 
C:\Users\stapi\AppData\Local\Temp\ccVMe8Sf.s:52     .text.hostapd_eid_ht_capabilities:0000000000000030 .L0 
C:\Users\stapi\AppData\Local\Temp\ccVMe8Sf.s:55     .text.hostapd_eid_ht_capabilities:0000000000000032 .L0 
C:\Users\stapi\AppData\Local\Temp\ccVMe8Sf.s:56     .text.hostapd_eid_ht_capabilities:0000000000000032 .L0 
C:\Users\stapi\AppData\Local\Temp\ccVMe8Sf.s:60     .text.hostapd_eid_ht_capabilities:000000000000003a .L0 
C:\Users\stapi\AppData\Local\Temp\ccVMe8Sf.s:61     .text.hostapd_eid_ht_capabilities:000000000000003a .L0 
C:\Users\stapi\AppData\Local\Temp\ccVMe8Sf.s:65     .text.hostapd_eid_ht_capabilities:0000000000000040 .L0 
C:\Users\stapi\AppData\Local\Temp\ccVMe8Sf.s:66     .text.hostapd_eid_ht_capabilities:0000000000000040 .L0 
C:\Users\stapi\AppData\Local\Temp\ccVMe8Sf.s:73     .text.hostapd_eid_ht_capabilities:0000000000000050 .L0 
C:\Users\stapi\AppData\Local\Temp\ccVMe8Sf.s:74     .text.hostapd_eid_ht_capabilities:0000000000000050 .L0 
C:\Users\stapi\AppData\Local\Temp\ccVMe8Sf.s:76     .text.hostapd_eid_ht_capabilities:0000000000000052 .L0 
C:\Users\stapi\AppData\Local\Temp\ccVMe8Sf.s:79     .text.hostapd_eid_ht_capabilities:0000000000000058 .L0 
C:\Users\stapi\AppData\Local\Temp\ccVMe8Sf.s:84     .text.hostapd_eid_ht_capabilities:0000000000000068 .L0 
C:\Users\stapi\AppData\Local\Temp\ccVMe8Sf.s:85     .text.hostapd_eid_ht_capabilities:0000000000000068 .L0 
C:\Users\stapi\AppData\Local\Temp\ccVMe8Sf.s:88     .text.hostapd_eid_ht_capabilities:000000000000006e .L0 
C:\Users\stapi\AppData\Local\Temp\ccVMe8Sf.s:90     .text.hostapd_eid_ht_capabilities:0000000000000072 .L0 
C:\Users\stapi\AppData\Local\Temp\ccVMe8Sf.s:92     .text.hostapd_eid_ht_capabilities:0000000000000074 .L0 
C:\Users\stapi\AppData\Local\Temp\ccVMe8Sf.s:94     .text.hostapd_eid_ht_capabilities:0000000000000078 .L0 
C:\Users\stapi\AppData\Local\Temp\ccVMe8Sf.s:97     .text.hostapd_eid_ht_capabilities:0000000000000080 .L0 
C:\Users\stapi\AppData\Local\Temp\ccVMe8Sf.s:98     .text.hostapd_eid_ht_capabilities:0000000000000080 .L0 
C:\Users\stapi\AppData\Local\Temp\ccVMe8Sf.s:99     .text.hostapd_eid_ht_capabilities:0000000000000080 .L0 
C:\Users\stapi\AppData\Local\Temp\ccVMe8Sf.s:101    .text.hostapd_eid_ht_capabilities:0000000000000082 .L0 
C:\Users\stapi\AppData\Local\Temp\ccVMe8Sf.s:104    .text.hostapd_eid_ht_capabilities:0000000000000088 .L0 
C:\Users\stapi\AppData\Local\Temp\ccVMe8Sf.s:108    .text.hostapd_eid_ht_capabilities:000000000000008a .L0 
C:\Users\stapi\AppData\Local\Temp\ccVMe8Sf.s:110    .text.hostapd_eid_ht_capabilities:0000000000000094 .L0 
C:\Users\stapi\AppData\Local\Temp\ccVMe8Sf.s:111    .text.hostapd_eid_ht_capabilities:0000000000000094 .L0 
C:\Users\stapi\AppData\Local\Temp\ccVMe8Sf.s:112    .text.hostapd_eid_ht_capabilities:0000000000000094 .L0 
C:\Users\stapi\AppData\Local\Temp\ccVMe8Sf.s:113    .text.hostapd_eid_ht_capabilities:0000000000000094 .L0 
C:\Users\stapi\AppData\Local\Temp\ccVMe8Sf.s:114    .text.hostapd_eid_ht_capabilities:0000000000000094 .L0 
C:\Users\stapi\AppData\Local\Temp\ccVMe8Sf.s:117    .text.hostapd_eid_ht_capabilities:0000000000000094 .L0 
C:\Users\stapi\AppData\Local\Temp\ccVMe8Sf.s:120    .text.hostapd_eid_ht_capabilities:0000000000000094 .L0 
C:\Users\stapi\AppData\Local\Temp\ccVMe8Sf.s:121    .text.hostapd_eid_ht_capabilities:0000000000000094 .L0 
C:\Users\stapi\AppData\Local\Temp\ccVMe8Sf.s:122    .text.hostapd_eid_ht_capabilities:0000000000000094 .L0 
C:\Users\stapi\AppData\Local\Temp\ccVMe8Sf.s:126    .text.hostapd_eid_ht_capabilities:000000000000009c .L0 
C:\Users\stapi\AppData\Local\Temp\ccVMe8Sf.s:127    .text.hostapd_eid_ht_capabilities:000000000000009c .L0 
C:\Users\stapi\AppData\Local\Temp\ccVMe8Sf.s:131    .text.hostapd_eid_ht_capabilities:00000000000000a2 .L0 
C:\Users\stapi\AppData\Local\Temp\ccVMe8Sf.s:132    .text.hostapd_eid_ht_capabilities:00000000000000a2 .L0 
C:\Users\stapi\AppData\Local\Temp\ccVMe8Sf.s:139    .text.hostapd_eid_ht_capabilities:00000000000000b2 .L0 
C:\Users\stapi\AppData\Local\Temp\ccVMe8Sf.s:140    .text.hostapd_eid_ht_capabilities:00000000000000b2 .L0 
C:\Users\stapi\AppData\Local\Temp\ccVMe8Sf.s:142    .text.hostapd_eid_ht_capabilities:00000000000000b4 .L0 
C:\Users\stapi\AppData\Local\Temp\ccVMe8Sf.s:144    .text.hostapd_eid_ht_capabilities:00000000000000b6 .L0 
C:\Users\stapi\AppData\Local\Temp\ccVMe8Sf.s:147    .text.hostapd_eid_ht_capabilities:00000000000000ba .L0 
C:\Users\stapi\AppData\Local\Temp\ccVMe8Sf.s:149    .text.hostapd_eid_ht_capabilities:00000000000000be .L0 
C:\Users\stapi\AppData\Local\Temp\ccVMe8Sf.s:151    .text.hostapd_eid_ht_capabilities:00000000000000c2 .L0 
C:\Users\stapi\AppData\Local\Temp\ccVMe8Sf.s:153    .text.hostapd_eid_ht_capabilities:00000000000000c6 .L0 
C:\Users\stapi\AppData\Local\Temp\ccVMe8Sf.s:157    .text.hostapd_eid_ht_capabilities:00000000000000d0 .L0 
C:\Users\stapi\AppData\Local\Temp\ccVMe8Sf.s:158    .text.hostapd_eid_ht_capabilities:00000000000000d0 .L0 
C:\Users\stapi\AppData\Local\Temp\ccVMe8Sf.s:161    .text.hostapd_eid_ht_capabilities:00000000000000d6 .L0 
C:\Users\stapi\AppData\Local\Temp\ccVMe8Sf.s:163    .text.hostapd_eid_ht_capabilities:00000000000000da .L0 
C:\Users\stapi\AppData\Local\Temp\ccVMe8Sf.s:166    .text.hostapd_eid_ht_capabilities:00000000000000e0 .L0 
C:\Users\stapi\AppData\Local\Temp\ccVMe8Sf.s:168    .text.hostapd_eid_ht_capabilities:00000000000000e2 .L0 
C:\Users\stapi\AppData\Local\Temp\ccVMe8Sf.s:170    .text.hostapd_eid_ht_capabilities:00000000000000e6 .L0 
C:\Users\stapi\AppData\Local\Temp\ccVMe8Sf.s:171    .text.hostapd_eid_ht_capabilities:00000000000000e6 .L0 
C:\Users\stapi\AppData\Local\Temp\ccVMe8Sf.s:173    .text.hostapd_eid_ht_capabilities:00000000000000ea .L0 
C:\Users\stapi\AppData\Local\Temp\ccVMe8Sf.s:174    .text.hostapd_eid_ht_capabilities:00000000000000ea .L0 
C:\Users\stapi\AppData\Local\Temp\ccVMe8Sf.s:177    .text.hostapd_eid_ht_capabilities:00000000000000f2 .L0 
C:\Users\stapi\AppData\Local\Temp\ccVMe8Sf.s:178    .text.hostapd_eid_ht_capabilities:00000000000000f2 .L0 
C:\Users\stapi\AppData\Local\Temp\ccVMe8Sf.s:180    .text.hostapd_eid_ht_capabilities:00000000000000f6 .L0 
C:\Users\stapi\AppData\Local\Temp\ccVMe8Sf.s:181    .text.hostapd_eid_ht_capabilities:00000000000000f6 .L0 
C:\Users\stapi\AppData\Local\Temp\ccVMe8Sf.s:183    .text.hostapd_eid_ht_capabilities:00000000000000fa .L0 
C:\Users\stapi\AppData\Local\Temp\ccVMe8Sf.s:184    .text.hostapd_eid_ht_capabilities:00000000000000fa .L0 
C:\Users\stapi\AppData\Local\Temp\ccVMe8Sf.s:188    .text.hostapd_eid_ht_capabilities:0000000000000102 .L0 
C:\Users\stapi\AppData\Local\Temp\ccVMe8Sf.s:190    .text.hostapd_eid_ht_capabilities:0000000000000104 .L0 
C:\Users\stapi\AppData\Local\Temp\ccVMe8Sf.s:197    .text.hostapd_eid_ht_operation:0000000000000000 hostapd_eid_ht_operation
C:\Users\stapi\AppData\Local\Temp\ccVMe8Sf.s:200    .text.hostapd_eid_ht_operation:0000000000000000 .L0 
C:\Users\stapi\AppData\Local\Temp\ccVMe8Sf.s:202    .text.hostapd_eid_ht_operation:0000000000000000 .L0 
C:\Users\stapi\AppData\Local\Temp\ccVMe8Sf.s:203    .text.hostapd_eid_ht_operation:0000000000000008 .L0 
C:\Users\stapi\AppData\Local\Temp\ccVMe8Sf.s:204    .text.hostapd_eid_ht_operation:0000000000000008 .L0 
C:\Users\stapi\AppData\Local\Temp\ccVMe8Sf.s:205    .text.hostapd_eid_ht_operation:0000000000000008 .L0 
C:\Users\stapi\AppData\Local\Temp\ccVMe8Sf.s:206    .text.hostapd_eid_ht_operation:0000000000000008 .L0 
C:\Users\stapi\AppData\Local\Temp\ccVMe8Sf.s:208    .text.hostapd_eid_ht_operation:0000000000000008 .L0 
C:\Users\stapi\AppData\Local\Temp\ccVMe8Sf.s:209    .text.hostapd_eid_ht_operation:0000000000000008 .L0 
C:\Users\stapi\AppData\Local\Temp\ccVMe8Sf.s:210    .text.hostapd_eid_ht_operation:0000000000000008 .L0 
C:\Users\stapi\AppData\Local\Temp\ccVMe8Sf.s:212    .text.hostapd_eid_ht_operation:000000000000000a .L0 
C:\Users\stapi\AppData\Local\Temp\ccVMe8Sf.s:215    .text.hostapd_eid_ht_operation:000000000000000c .L0 
C:\Users\stapi\AppData\Local\Temp\ccVMe8Sf.s:216    .text.hostapd_eid_ht_operation:000000000000000c .L0 
C:\Users\stapi\AppData\Local\Temp\ccVMe8Sf.s:219    .text.hostapd_eid_ht_operation:0000000000000012 .L0 
C:\Users\stapi\AppData\Local\Temp\ccVMe8Sf.s:222    .text.hostapd_eid_ht_operation:0000000000000016 .L0 
C:\Users\stapi\AppData\Local\Temp\ccVMe8Sf.s:225    .text.hostapd_eid_ht_operation:000000000000001c .L0 
C:\Users\stapi\AppData\Local\Temp\ccVMe8Sf.s:230    .text.hostapd_eid_ht_operation:0000000000000028 .L0 
C:\Users\stapi\AppData\Local\Temp\ccVMe8Sf.s:233    .text.hostapd_eid_ht_operation:000000000000002a .L0 
C:\Users\stapi\AppData\Local\Temp\ccVMe8Sf.s:234    .text.hostapd_eid_ht_operation:000000000000002a .L0 
C:\Users\stapi\AppData\Local\Temp\ccVMe8Sf.s:238    .text.hostapd_eid_ht_operation:0000000000000032 .L0 
C:\Users\stapi\AppData\Local\Temp\ccVMe8Sf.s:239    .text.hostapd_eid_ht_operation:0000000000000032 .L0 
C:\Users\stapi\AppData\Local\Temp\ccVMe8Sf.s:243    .text.hostapd_eid_ht_operation:0000000000000038 .L0 
C:\Users\stapi\AppData\Local\Temp\ccVMe8Sf.s:244    .text.hostapd_eid_ht_operation:0000000000000038 .L0 
C:\Users\stapi\AppData\Local\Temp\ccVMe8Sf.s:251    .text.hostapd_eid_ht_operation:0000000000000048 .L0 
C:\Users\stapi\AppData\Local\Temp\ccVMe8Sf.s:252    .text.hostapd_eid_ht_operation:0000000000000048 .L0 
C:\Users\stapi\AppData\Local\Temp\ccVMe8Sf.s:254    .text.hostapd_eid_ht_operation:000000000000004a .L0 
C:\Users\stapi\AppData\Local\Temp\ccVMe8Sf.s:257    .text.hostapd_eid_ht_operation:000000000000004c .L0 
C:\Users\stapi\AppData\Local\Temp\ccVMe8Sf.s:260    .text.hostapd_eid_ht_operation:0000000000000054 .L0 
C:\Users\stapi\AppData\Local\Temp\ccVMe8Sf.s:261    .text.hostapd_eid_ht_operation:0000000000000054 .L0 
C:\Users\stapi\AppData\Local\Temp\ccVMe8Sf.s:263    .text.hostapd_eid_ht_operation:0000000000000056 .L0 
C:\Users\stapi\AppData\Local\Temp\ccVMe8Sf.s:269    .text.hostapd_eid_ht_operation:0000000000000066 .L0 
C:\Users\stapi\AppData\Local\Temp\ccVMe8Sf.s:271    .text.hostapd_eid_ht_operation:0000000000000066 .L0 
C:\Users\stapi\AppData\Local\Temp\ccVMe8Sf.s:272    .text.hostapd_eid_ht_operation:0000000000000066 .L0 
C:\Users\stapi\AppData\Local\Temp\ccVMe8Sf.s:274    .text.hostapd_eid_ht_operation:0000000000000070 .L0 
C:\Users\stapi\AppData\Local\Temp\ccVMe8Sf.s:275    .text.hostapd_eid_ht_operation:0000000000000070 .L0 
C:\Users\stapi\AppData\Local\Temp\ccVMe8Sf.s:276    .text.hostapd_eid_ht_operation:0000000000000070 .L0 
C:\Users\stapi\AppData\Local\Temp\ccVMe8Sf.s:277    .text.hostapd_eid_ht_operation:0000000000000070 .L0 
C:\Users\stapi\AppData\Local\Temp\ccVMe8Sf.s:278    .text.hostapd_eid_ht_operation:0000000000000070 .L0 
C:\Users\stapi\AppData\Local\Temp\ccVMe8Sf.s:292    .text.hostapd_ht_operation_update:0000000000000000 hostapd_ht_operation_update
C:\Users\stapi\AppData\Local\Temp\ccVMe8Sf.s:295    .text.hostapd_ht_operation_update:0000000000000000 .L0 
C:\Users\stapi\AppData\Local\Temp\ccVMe8Sf.s:297    .text.hostapd_ht_operation_update:0000000000000000 .L0 
C:\Users\stapi\AppData\Local\Temp\ccVMe8Sf.s:298    .text.hostapd_ht_operation_update:0000000000000008 .L0 
C:\Users\stapi\AppData\Local\Temp\ccVMe8Sf.s:299    .text.hostapd_ht_operation_update:0000000000000008 .L0 
C:\Users\stapi\AppData\Local\Temp\ccVMe8Sf.s:300    .text.hostapd_ht_operation_update:0000000000000008 .L0 
C:\Users\stapi\AppData\Local\Temp\ccVMe8Sf.s:301    .text.hostapd_ht_operation_update:0000000000000008 .L0 
C:\Users\stapi\AppData\Local\Temp\ccVMe8Sf.s:302    .text.hostapd_ht_operation_update:0000000000000008 .L0 
C:\Users\stapi\AppData\Local\Temp\ccVMe8Sf.s:304    .text.hostapd_ht_operation_update:0000000000000008 .L0 
C:\Users\stapi\AppData\Local\Temp\ccVMe8Sf.s:306    .text.hostapd_ht_operation_update:0000000000000008 .L0 
C:\Users\stapi\AppData\Local\Temp\ccVMe8Sf.s:307    .text.hostapd_ht_operation_update:0000000000000008 .L0 
C:\Users\stapi\AppData\Local\Temp\ccVMe8Sf.s:308    .text.hostapd_ht_operation_update:0000000000000008 .L0 
C:\Users\stapi\AppData\Local\Temp\ccVMe8Sf.s:310    .text.hostapd_ht_operation_update:000000000000000a .L0 
C:\Users\stapi\AppData\Local\Temp\ccVMe8Sf.s:312    .text.hostapd_ht_operation_update:000000000000000e .L0 
C:\Users\stapi\AppData\Local\Temp\ccVMe8Sf.s:314    .text.hostapd_ht_operation_update:0000000000000010 .L0 
C:\Users\stapi\AppData\Local\Temp\ccVMe8Sf.s:316    .text.hostapd_ht_operation_update:0000000000000014 .L0 
C:\Users\stapi\AppData\Local\Temp\ccVMe8Sf.s:320    .text.hostapd_ht_operation_update:0000000000000016 .L0 
C:\Users\stapi\AppData\Local\Temp\ccVMe8Sf.s:326    .text.hostapd_ht_operation_update:0000000000000024 .L0 
C:\Users\stapi\AppData\Local\Temp\ccVMe8Sf.s:333    .text.hostapd_ht_operation_update:0000000000000036 .L0 
C:\Users\stapi\AppData\Local\Temp\ccVMe8Sf.s:334    .text.hostapd_ht_operation_update:0000000000000036 .L0 
C:\Users\stapi\AppData\Local\Temp\ccVMe8Sf.s:337    .text.hostapd_ht_operation_update:000000000000003e .L0 
C:\Users\stapi\AppData\Local\Temp\ccVMe8Sf.s:340    .text.hostapd_ht_operation_update:0000000000000044 .L0 
C:\Users\stapi\AppData\Local\Temp\ccVMe8Sf.s:342    .text.hostapd_ht_operation_update:0000000000000046 .L0 
C:\Users\stapi\AppData\Local\Temp\ccVMe8Sf.s:344    .text.hostapd_ht_operation_update:000000000000004a .L0 
C:\Users\stapi\AppData\Local\Temp\ccVMe8Sf.s:348    .text.hostapd_ht_operation_update:000000000000004c .L0 
C:\Users\stapi\AppData\Local\Temp\ccVMe8Sf.s:349    .text.hostapd_ht_operation_update:000000000000004c .L0 
C:\Users\stapi\AppData\Local\Temp\ccVMe8Sf.s:351    .text.hostapd_ht_operation_update:0000000000000050 .L0 
C:\Users\stapi\AppData\Local\Temp\ccVMe8Sf.s:353    .text.hostapd_ht_operation_update:0000000000000054 .L0 
C:\Users\stapi\AppData\Local\Temp\ccVMe8Sf.s:356    .text.hostapd_ht_operation_update:000000000000005a .L0 
C:\Users\stapi\AppData\Local\Temp\ccVMe8Sf.s:358    .text.hostapd_ht_operation_update:000000000000005c .L0 
C:\Users\stapi\AppData\Local\Temp\ccVMe8Sf.s:362    .text.hostapd_ht_operation_update:0000000000000062 .L0 
C:\Users\stapi\AppData\Local\Temp\ccVMe8Sf.s:363    .text.hostapd_ht_operation_update:0000000000000062 .L0 
C:\Users\stapi\AppData\Local\Temp\ccVMe8Sf.s:366    .text.hostapd_ht_operation_update:000000000000006a .L0 
C:\Users\stapi\AppData\Local\Temp\ccVMe8Sf.s:367    .text.hostapd_ht_operation_update:000000000000006a .L0 
C:\Users\stapi\AppData\Local\Temp\ccVMe8Sf.s:370    .text.hostapd_ht_operation_update:000000000000006c .L0 
C:\Users\stapi\AppData\Local\Temp\ccVMe8Sf.s:371    .text.hostapd_ht_operation_update:000000000000006c .L0 
C:\Users\stapi\AppData\Local\Temp\ccVMe8Sf.s:373    .text.hostapd_ht_operation_update:000000000000006e .L0 
C:\Users\stapi\AppData\Local\Temp\ccVMe8Sf.s:376    .text.hostapd_ht_operation_update:0000000000000070 .L0 
C:\Users\stapi\AppData\Local\Temp\ccVMe8Sf.s:377    .text.hostapd_ht_operation_update:0000000000000070 .L0 
C:\Users\stapi\AppData\Local\Temp\ccVMe8Sf.s:379    .text.hostapd_ht_operation_update:0000000000000072 .L0 
C:\Users\stapi\AppData\Local\Temp\ccVMe8Sf.s:382    .text.hostapd_ht_operation_update:0000000000000078 .L0 
C:\Users\stapi\AppData\Local\Temp\ccVMe8Sf.s:384    .text.hostapd_ht_operation_update:000000000000007c .L0 
C:\Users\stapi\AppData\Local\Temp\ccVMe8Sf.s:386    .text.hostapd_ht_operation_update:000000000000007e .L0 
C:\Users\stapi\AppData\Local\Temp\ccVMe8Sf.s:389    .text.hostapd_ht_operation_update:0000000000000080 .L0 
C:\Users\stapi\AppData\Local\Temp\ccVMe8Sf.s:390    .text.hostapd_ht_operation_update:0000000000000080 .L0 
C:\Users\stapi\AppData\Local\Temp\ccVMe8Sf.s:392    .text.hostapd_ht_operation_update:0000000000000084 .L0 
C:\Users\stapi\AppData\Local\Temp\ccVMe8Sf.s:396    .text.hostapd_ht_operation_update:0000000000000088 .L0 
C:\Users\stapi\AppData\Local\Temp\ccVMe8Sf.s:397    .text.hostapd_ht_operation_update:0000000000000088 .L0 
C:\Users\stapi\AppData\Local\Temp\ccVMe8Sf.s:400    .text.hostapd_ht_operation_update:000000000000008c .L0 
C:\Users\stapi\AppData\Local\Temp\ccVMe8Sf.s:401    .text.hostapd_ht_operation_update:000000000000008c .L0 
C:\Users\stapi\AppData\Local\Temp\ccVMe8Sf.s:404    .text.hostapd_ht_operation_update:0000000000000094 .L0 
C:\Users\stapi\AppData\Local\Temp\ccVMe8Sf.s:405    .text.hostapd_ht_operation_update:0000000000000094 .L0 
C:\Users\stapi\AppData\Local\Temp\ccVMe8Sf.s:406    .text.hostapd_ht_operation_update:0000000000000094 .L0 
C:\Users\stapi\AppData\Local\Temp\ccVMe8Sf.s:409    .text.hostapd_ht_operation_update:0000000000000096 .L0 
C:\Users\stapi\AppData\Local\Temp\ccVMe8Sf.s:414    .text.hostapd_ht_operation_update:000000000000009c .L0 
C:\Users\stapi\AppData\Local\Temp\ccVMe8Sf.s:415    .text.hostapd_ht_operation_update:000000000000009c .L0 
C:\Users\stapi\AppData\Local\Temp\ccVMe8Sf.s:419    .text.hostapd_ht_operation_update:000000000000009e .L0 
C:\Users\stapi\AppData\Local\Temp\ccVMe8Sf.s:431    .text.hostapd_ht_operation_update:00000000000000ba .L0 
C:\Users\stapi\AppData\Local\Temp\ccVMe8Sf.s:432    .text.hostapd_ht_operation_update:00000000000000ba .L0 
C:\Users\stapi\AppData\Local\Temp\ccVMe8Sf.s:434    .text.hostapd_ht_operation_update:00000000000000c4 .L0 
C:\Users\stapi\AppData\Local\Temp\ccVMe8Sf.s:435    .text.hostapd_ht_operation_update:00000000000000c4 .L0 
C:\Users\stapi\AppData\Local\Temp\ccVMe8Sf.s:436    .text.hostapd_ht_operation_update:00000000000000c4 .L0 
C:\Users\stapi\AppData\Local\Temp\ccVMe8Sf.s:437    .text.hostapd_ht_operation_update:00000000000000c4 .L0 
C:\Users\stapi\AppData\Local\Temp\ccVMe8Sf.s:438    .text.hostapd_ht_operation_update:00000000000000c4 .L0 
C:\Users\stapi\AppData\Local\Temp\ccVMe8Sf.s:439    .text.hostapd_ht_operation_update:00000000000000c4 .L0 
C:\Users\stapi\AppData\Local\Temp\ccVMe8Sf.s:442    .text.hostapd_ht_operation_update:00000000000000c4 .L0 
C:\Users\stapi\AppData\Local\Temp\ccVMe8Sf.s:446    .text.hostapd_ht_operation_update:00000000000000c4 .L0 
C:\Users\stapi\AppData\Local\Temp\ccVMe8Sf.s:447    .text.hostapd_ht_operation_update:00000000000000c4 .L0 
C:\Users\stapi\AppData\Local\Temp\ccVMe8Sf.s:449    .text.hostapd_ht_operation_update:00000000000000c6 .L0 
C:\Users\stapi\AppData\Local\Temp\ccVMe8Sf.s:450    .text.hostapd_ht_operation_update:00000000000000c6 .L0 
C:\Users\stapi\AppData\Local\Temp\ccVMe8Sf.s:455    .text.hostapd_ht_operation_update:00000000000000cc .L0 
C:\Users\stapi\AppData\Local\Temp\ccVMe8Sf.s:456    .text.hostapd_ht_operation_update:00000000000000cc .L0 
C:\Users\stapi\AppData\Local\Temp\ccVMe8Sf.s:461    .text.hostapd_ht_operation_update:00000000000000d0 .L0 
C:\Users\stapi\AppData\Local\Temp\ccVMe8Sf.s:462    .text.hostapd_ht_operation_update:00000000000000d0 .L0 
C:\Users\stapi\AppData\Local\Temp\ccVMe8Sf.s:464    .text.hostapd_ht_operation_update:00000000000000d2 .L0 
C:\Users\stapi\AppData\Local\Temp\ccVMe8Sf.s:466    .text.hostapd_ht_operation_update:00000000000000d4 .L0 
C:\Users\stapi\AppData\Local\Temp\ccVMe8Sf.s:469    .text.hostapd_ht_operation_update:00000000000000da .L0 
C:\Users\stapi\AppData\Local\Temp\ccVMe8Sf.s:470    .text.hostapd_ht_operation_update:00000000000000da .L0 
C:\Users\stapi\AppData\Local\Temp\ccVMe8Sf.s:473    .text.hostapd_ht_operation_update:00000000000000e0 .L0 
C:\Users\stapi\AppData\Local\Temp\ccVMe8Sf.s:474    .text.hostapd_ht_operation_update:00000000000000e0 .L0 
C:\Users\stapi\AppData\Local\Temp\ccVMe8Sf.s:482    .text.hostapd_ht_operation_update:00000000000000e4 .L0 
C:\Users\stapi\AppData\Local\Temp\ccVMe8Sf.s:484    .text.hostapd_ht_operation_update:00000000000000e8 .L0 
C:\Users\stapi\AppData\Local\Temp\ccVMe8Sf.s:491    .text.copy_sta_ht_capab:0000000000000000 copy_sta_ht_capab
C:\Users\stapi\AppData\Local\Temp\ccVMe8Sf.s:494    .text.copy_sta_ht_capab:0000000000000000 .L0 
C:\Users\stapi\AppData\Local\Temp\ccVMe8Sf.s:496    .text.copy_sta_ht_capab:0000000000000000 .L0 
C:\Users\stapi\AppData\Local\Temp\ccVMe8Sf.s:497    .text.copy_sta_ht_capab:0000000000000008 .L0 
C:\Users\stapi\AppData\Local\Temp\ccVMe8Sf.s:498    .text.copy_sta_ht_capab:0000000000000008 .L0 
C:\Users\stapi\AppData\Local\Temp\ccVMe8Sf.s:499    .text.copy_sta_ht_capab:0000000000000008 .L0 
C:\Users\stapi\AppData\Local\Temp\ccVMe8Sf.s:501    .text.copy_sta_ht_capab:0000000000000008 .L0 
C:\Users\stapi\AppData\Local\Temp\ccVMe8Sf.s:502    .text.copy_sta_ht_capab:0000000000000008 .L0 
C:\Users\stapi\AppData\Local\Temp\ccVMe8Sf.s:504    .text.copy_sta_ht_capab:000000000000000a .L0 
C:\Users\stapi\AppData\Local\Temp\ccVMe8Sf.s:506    .text.copy_sta_ht_capab:000000000000000c .L0 
C:\Users\stapi\AppData\Local\Temp\ccVMe8Sf.s:509    .text.copy_sta_ht_capab:0000000000000010 .L0 
C:\Users\stapi\AppData\Local\Temp\ccVMe8Sf.s:510    .text.copy_sta_ht_capab:0000000000000012 .L0 
C:\Users\stapi\AppData\Local\Temp\ccVMe8Sf.s:512    .text.copy_sta_ht_capab:0000000000000012 .L0 
C:\Users\stapi\AppData\Local\Temp\ccVMe8Sf.s:514    .text.copy_sta_ht_capab:0000000000000014 .L0 
C:\Users\stapi\AppData\Local\Temp\ccVMe8Sf.s:516    .text.copy_sta_ht_capab:0000000000000016 .L0 
C:\Users\stapi\AppData\Local\Temp\ccVMe8Sf.s:518    .text.copy_sta_ht_capab:000000000000001a .L0 
C:\Users\stapi\AppData\Local\Temp\ccVMe8Sf.s:520    .text.copy_sta_ht_capab:000000000000001c .L0 
C:\Users\stapi\AppData\Local\Temp\ccVMe8Sf.s:522    .text.copy_sta_ht_capab:000000000000001e .L0 
C:\Users\stapi\AppData\Local\Temp\ccVMe8Sf.s:525    .text.copy_sta_ht_capab:0000000000000024 .L0 
C:\Users\stapi\AppData\Local\Temp\ccVMe8Sf.s:528    .text.copy_sta_ht_capab:0000000000000026 .L0 
C:\Users\stapi\AppData\Local\Temp\ccVMe8Sf.s:532    .text.copy_sta_ht_capab:000000000000002c .L0 
C:\Users\stapi\AppData\Local\Temp\ccVMe8Sf.s:533    .text.copy_sta_ht_capab:000000000000002c .L0 
C:\Users\stapi\AppData\Local\Temp\ccVMe8Sf.s:536    .text.copy_sta_ht_capab:0000000000000032 .L0 
C:\Users\stapi\AppData\Local\Temp\ccVMe8Sf.s:539    .text.copy_sta_ht_capab:000000000000003a .L0 
C:\Users\stapi\AppData\Local\Temp\ccVMe8Sf.s:540    .text.copy_sta_ht_capab:000000000000003a .L0 
C:\Users\stapi\AppData\Local\Temp\ccVMe8Sf.s:543    .text.copy_sta_ht_capab:000000000000003e .L0 
C:\Users\stapi\AppData\Local\Temp\ccVMe8Sf.s:544    .text.copy_sta_ht_capab:000000000000003e .L0 
C:\Users\stapi\AppData\Local\Temp\ccVMe8Sf.s:545    .text.copy_sta_ht_capab:000000000000003e .L0 
C:\Users\stapi\AppData\Local\Temp\ccVMe8Sf.s:548    .text.copy_sta_ht_capab:0000000000000040 .L0 
C:\Users\stapi\AppData\Local\Temp\ccVMe8Sf.s:549    .text.copy_sta_ht_capab:0000000000000042 .L0 
C:\Users\stapi\AppData\Local\Temp\ccVMe8Sf.s:550    .text.copy_sta_ht_capab:0000000000000042 .L0 
C:\Users\stapi\AppData\Local\Temp\ccVMe8Sf.s:552    .text.copy_sta_ht_capab:000000000000004a .L0 
C:\Users\stapi\AppData\Local\Temp\ccVMe8Sf.s:553    .text.copy_sta_ht_capab:000000000000004a .L0 
C:\Users\stapi\AppData\Local\Temp\ccVMe8Sf.s:554    .text.copy_sta_ht_capab:000000000000004a .L0 
C:\Users\stapi\AppData\Local\Temp\ccVMe8Sf.s:557    .text.copy_sta_ht_capab:000000000000004a .L0 
C:\Users\stapi\AppData\Local\Temp\ccVMe8Sf.s:560    .text.copy_sta_ht_capab:000000000000004c .L0 
C:\Users\stapi\AppData\Local\Temp\ccVMe8Sf.s:561    .text.copy_sta_ht_capab:000000000000004c .L0 
C:\Users\stapi\AppData\Local\Temp\ccVMe8Sf.s:565    .text.copy_sta_ht_capab:000000000000004e .L0 
C:\Users\stapi\AppData\Local\Temp\ccVMe8Sf.s:566    .text.copy_sta_ht_capab:000000000000004e .L0 
C:\Users\stapi\AppData\Local\Temp\ccVMe8Sf.s:568    .text.copy_sta_ht_capab:0000000000000050 .L0 
C:\Users\stapi\AppData\Local\Temp\ccVMe8Sf.s:571    .text.copy_sta_ht_capab:0000000000000056 .L0 
C:\Users\stapi\AppData\Local\Temp\ccVMe8Sf.s:574    .text.copy_sta_ht_capab:000000000000005c .L0 
C:\Users\stapi\AppData\Local\Temp\ccVMe8Sf.s:580    .text.copy_sta_ht_capab:0000000000000066 .L0 
C:\Users\stapi\AppData\Local\Temp\ccVMe8Sf.s:583    .text.copy_sta_ht_capab:000000000000006a .L0 
C:\Users\stapi\AppData\Local\Temp\ccVMe8Sf.s:584    .text.copy_sta_ht_capab:000000000000006a .L0 
C:\Users\stapi\AppData\Local\Temp\ccVMe8Sf.s:587    .text.copy_sta_ht_capab:0000000000000072 .L0 
C:\Users\stapi\AppData\Local\Temp\ccVMe8Sf.s:589    .text.copy_sta_ht_capab:0000000000000076 .L0 
C:\Users\stapi\AppData\Local\Temp\ccVMe8Sf.s:590    .text.copy_sta_ht_capab:0000000000000076 .L0 
C:\Users\stapi\AppData\Local\Temp\ccVMe8Sf.s:593    .text.copy_sta_ht_capab:000000000000007a .L0 
C:\Users\stapi\AppData\Local\Temp\ccVMe8Sf.s:595    .text.copy_sta_ht_capab:000000000000007e .L0 
C:\Users\stapi\AppData\Local\Temp\ccVMe8Sf.s:615    .text.update_ht_state:0000000000000000 update_ht_state
C:\Users\stapi\AppData\Local\Temp\ccVMe8Sf.s:618    .text.update_ht_state:0000000000000000 .L0 
C:\Users\stapi\AppData\Local\Temp\ccVMe8Sf.s:620    .text.update_ht_state:0000000000000000 .L0 
C:\Users\stapi\AppData\Local\Temp\ccVMe8Sf.s:621    .text.update_ht_state:0000000000000008 .L0 
C:\Users\stapi\AppData\Local\Temp\ccVMe8Sf.s:622    .text.update_ht_state:0000000000000008 .L0 
C:\Users\stapi\AppData\Local\Temp\ccVMe8Sf.s:623    .text.update_ht_state:0000000000000008 .L0 
C:\Users\stapi\AppData\Local\Temp\ccVMe8Sf.s:624    .text.update_ht_state:0000000000000008 .L0 
C:\Users\stapi\AppData\Local\Temp\ccVMe8Sf.s:625    .text.update_ht_state:0000000000000008 .L0 
C:\Users\stapi\AppData\Local\Temp\ccVMe8Sf.s:627    .text.update_ht_state:0000000000000008 .L0 
C:\Users\stapi\AppData\Local\Temp\ccVMe8Sf.s:628    .text.update_ht_state:0000000000000008 .L0 
C:\Users\stapi\AppData\Local\Temp\ccVMe8Sf.s:630    .text.update_ht_state:000000000000000a .L0 
C:\Users\stapi\AppData\Local\Temp\ccVMe8Sf.s:631    .text.update_ht_state:000000000000000c .L0 
C:\Users\stapi\AppData\Local\Temp\ccVMe8Sf.s:633    .text.update_ht_state:000000000000000c .L0 
C:\Users\stapi\AppData\Local\Temp\ccVMe8Sf.s:636    .text.update_ht_state:0000000000000010 .L0 
C:\Users\stapi\AppData\Local\Temp\ccVMe8Sf.s:638    .text.update_ht_state:0000000000000014 .L0 
C:\Users\stapi\AppData\Local\Temp\ccVMe8Sf.s:640    .text.update_ht_state:0000000000000018 .L0 
C:\Users\stapi\AppData\Local\Temp\ccVMe8Sf.s:642    .text.update_ht_state:000000000000001c .L0 
C:\Users\stapi\AppData\Local\Temp\ccVMe8Sf.s:647    .text.update_ht_state:0000000000000020 .L0 
C:\Users\stapi\AppData\Local\Temp\ccVMe8Sf.s:648    .text.update_ht_state:0000000000000020 .L0 
C:\Users\stapi\AppData\Local\Temp\ccVMe8Sf.s:649    .text.update_ht_state:0000000000000020 .L0 
C:\Users\stapi\AppData\Local\Temp\ccVMe8Sf.s:650    .text.update_ht_state:0000000000000020 .L0 
C:\Users\stapi\AppData\Local\Temp\ccVMe8Sf.s:653    .text.update_ht_state:0000000000000028 .L0 
C:\Users\stapi\AppData\Local\Temp\ccVMe8Sf.s:656    .text.update_ht_state:000000000000002a .L0 
C:\Users\stapi\AppData\Local\Temp\ccVMe8Sf.s:660    .text.update_ht_state:000000000000002e .L0 
C:\Users\stapi\AppData\Local\Temp\ccVMe8Sf.s:673    .text.update_ht_state:0000000000000058 .L0 
C:\Users\stapi\AppData\Local\Temp\ccVMe8Sf.s:674    .text.update_ht_state:0000000000000058 .L0 
C:\Users\stapi\AppData\Local\Temp\ccVMe8Sf.s:677    .text.update_ht_state:000000000000005e .L0 
C:\Users\stapi\AppData\Local\Temp\ccVMe8Sf.s:678    .text.update_ht_state:000000000000005e .L0 
C:\Users\stapi\AppData\Local\Temp\ccVMe8Sf.s:680    .text.update_ht_state:0000000000000062 .L0 
C:\Users\stapi\AppData\Local\Temp\ccVMe8Sf.s:682    .text.update_ht_state:0000000000000066 .L0 
C:\Users\stapi\AppData\Local\Temp\ccVMe8Sf.s:685    .text.update_ht_state:000000000000006c .L0 
C:\Users\stapi\AppData\Local\Temp\ccVMe8Sf.s:687    .text.update_ht_state:0000000000000070 .L0 
C:\Users\stapi\AppData\Local\Temp\ccVMe8Sf.s:688    .text.update_ht_state:0000000000000070 .L0 
C:\Users\stapi\AppData\Local\Temp\ccVMe8Sf.s:691    .text.update_ht_state:0000000000000078 .L0 
C:\Users\stapi\AppData\Local\Temp\ccVMe8Sf.s:692    .text.update_ht_state:0000000000000078 .L0 
C:\Users\stapi\AppData\Local\Temp\ccVMe8Sf.s:696    .text.update_ht_state:0000000000000080 .L0 
C:\Users\stapi\AppData\Local\Temp\ccVMe8Sf.s:714    .text.update_ht_state:00000000000000ba .L0 
C:\Users\stapi\AppData\Local\Temp\ccVMe8Sf.s:715    .text.update_ht_state:00000000000000ba .L0 
C:\Users\stapi\AppData\Local\Temp\ccVMe8Sf.s:719    .text.update_ht_state:00000000000000be .L0 
C:\Users\stapi\AppData\Local\Temp\ccVMe8Sf.s:721    .text.update_ht_state:00000000000000c2 .L0 
C:\Users\stapi\AppData\Local\Temp\ccVMe8Sf.s:723    .text.update_ht_state:00000000000000c6 .L0 
C:\Users\stapi\AppData\Local\Temp\ccVMe8Sf.s:724    .text.update_ht_state:00000000000000c6 .L0 
C:\Users\stapi\AppData\Local\Temp\ccVMe8Sf.s:727    .text.update_ht_state:00000000000000cc .L0 
C:\Users\stapi\AppData\Local\Temp\ccVMe8Sf.s:729    .text.update_ht_state:00000000000000d0 .L0 
C:\Users\stapi\AppData\Local\Temp\ccVMe8Sf.s:730    .text.update_ht_state:00000000000000d0 .L0 
C:\Users\stapi\AppData\Local\Temp\ccVMe8Sf.s:733    .text.update_ht_state:00000000000000d8 .L0 
C:\Users\stapi\AppData\Local\Temp\ccVMe8Sf.s:734    .text.update_ht_state:00000000000000d8 .L0 
C:\Users\stapi\AppData\Local\Temp\ccVMe8Sf.s:738    .text.update_ht_state:00000000000000e0 .L0 
C:\Users\stapi\AppData\Local\Temp\ccVMe8Sf.s:758    .text.update_ht_state:0000000000000110 .L0 
C:\Users\stapi\AppData\Local\Temp\ccVMe8Sf.s:765    .text.update_ht_state:000000000000011a .L0 
C:\Users\stapi\AppData\Local\Temp\ccVMe8Sf.s:766    .text.update_ht_state:000000000000011a .L0 
C:\Users\stapi\AppData\Local\Temp\ccVMe8Sf.s:770    .text.update_ht_state:0000000000000126 .L0 
C:\Users\stapi\AppData\Local\Temp\ccVMe8Sf.s:772    .text.update_ht_state:000000000000012a .L0 
C:\Users\stapi\AppData\Local\Temp\ccVMe8Sf.s:777    .text.update_ht_state:0000000000000136 .L0 
C:\Users\stapi\AppData\Local\Temp\ccVMe8Sf.s:778    .text.update_ht_state:0000000000000138 .L0 
C:\Users\stapi\AppData\Local\Temp\ccVMe8Sf.s:779    .text.update_ht_state:0000000000000138 .L0 
C:\Users\stapi\AppData\Local\Temp\ccVMe8Sf.s:781    .text.update_ht_state:0000000000000140 .L0 
C:\Users\stapi\AppData\Local\Temp\ccVMe8Sf.s:782    .text.update_ht_state:0000000000000140 .L0 
C:\Users\stapi\AppData\Local\Temp\ccVMe8Sf.s:783    .text.update_ht_state:0000000000000140 .L0 
C:\Users\stapi\AppData\Local\Temp\ccVMe8Sf.s:784    .text.update_ht_state:0000000000000140 .L0 
C:\Users\stapi\AppData\Local\Temp\ccVMe8Sf.s:785    .text.update_ht_state:0000000000000140 .L0 
C:\Users\stapi\AppData\Local\Temp\ccVMe8Sf.s:788    .text.update_ht_state:0000000000000140 .L0 
C:\Users\stapi\AppData\Local\Temp\ccVMe8Sf.s:792    .text.update_ht_state:0000000000000140 .L0 
C:\Users\stapi\AppData\Local\Temp\ccVMe8Sf.s:793    .text.update_ht_state:0000000000000140 .L0 
C:\Users\stapi\AppData\Local\Temp\ccVMe8Sf.s:794    .text.update_ht_state:0000000000000140 .L0 
C:\Users\stapi\AppData\Local\Temp\ccVMe8Sf.s:796    .text.update_ht_state:0000000000000144 .L0 
C:\Users\stapi\AppData\Local\Temp\ccVMe8Sf.s:798    .text.update_ht_state:0000000000000148 .L0 
C:\Users\stapi\AppData\Local\Temp\ccVMe8Sf.s:801    .text.update_ht_state:000000000000014e .L0 
C:\Users\stapi\AppData\Local\Temp\ccVMe8Sf.s:802    .text.update_ht_state:000000000000014e .L0 
C:\Users\stapi\AppData\Local\Temp\ccVMe8Sf.s:805    .text.update_ht_state:0000000000000156 .L0 
C:\Users\stapi\AppData\Local\Temp\ccVMe8Sf.s:806    .text.update_ht_state:0000000000000156 .L0 
C:\Users\stapi\AppData\Local\Temp\ccVMe8Sf.s:811    .text.update_ht_state:0000000000000160 .L0 
C:\Users\stapi\AppData\Local\Temp\ccVMe8Sf.s:812    .text.update_ht_state:0000000000000160 .L0 
C:\Users\stapi\AppData\Local\Temp\ccVMe8Sf.s:814    .text.update_ht_state:0000000000000164 .L0 
C:\Users\stapi\AppData\Local\Temp\ccVMe8Sf.s:817    .text.update_ht_state:000000000000016a .L0 
C:\Users\stapi\AppData\Local\Temp\ccVMe8Sf.s:833    .text.update_ht_state:000000000000019c .L0 
C:\Users\stapi\AppData\Local\Temp\ccVMe8Sf.s:840    .text.hostapd_get_ht_capab:0000000000000000 hostapd_get_ht_capab
C:\Users\stapi\AppData\Local\Temp\ccVMe8Sf.s:843    .text.hostapd_get_ht_capab:0000000000000000 .L0 
C:\Users\stapi\AppData\Local\Temp\ccVMe8Sf.s:845    .text.hostapd_get_ht_capab:0000000000000000 .L0 
C:\Users\stapi\AppData\Local\Temp\ccVMe8Sf.s:846    .text.hostapd_get_ht_capab:0000000000000000 .L0 
C:\Users\stapi\AppData\Local\Temp\ccVMe8Sf.s:847    .text.hostapd_get_ht_capab:0000000000000000 .L0 
C:\Users\stapi\AppData\Local\Temp\ccVMe8Sf.s:848    .text.hostapd_get_ht_capab:0000000000000000 .L0 
C:\Users\stapi\AppData\Local\Temp\ccVMe8Sf.s:850    .text.hostapd_get_ht_capab:0000000000000002 .L0 
C:\Users\stapi\AppData\Local\Temp\ccVMe8Sf.s:851    .text.hostapd_get_ht_capab:000000000000000a .L0 
C:\Users\stapi\AppData\Local\Temp\ccVMe8Sf.s:852    .text.hostapd_get_ht_capab:000000000000000a .L0 
C:\Users\stapi\AppData\Local\Temp\ccVMe8Sf.s:853    .text.hostapd_get_ht_capab:000000000000000a .L0 
C:\Users\stapi\AppData\Local\Temp\ccVMe8Sf.s:854    .text.hostapd_get_ht_capab:000000000000000a .L0 
C:\Users\stapi\AppData\Local\Temp\ccVMe8Sf.s:857    .text.hostapd_get_ht_capab:000000000000000c .L0 
C:\Users\stapi\AppData\Local\Temp\ccVMe8Sf.s:865    .text.hostapd_get_ht_capab:000000000000001a .L0 
C:\Users\stapi\AppData\Local\Temp\ccVMe8Sf.s:866    .text.hostapd_get_ht_capab:000000000000001a .L0 
C:\Users\stapi\AppData\Local\Temp\ccVMe8Sf.s:872    .text.hostapd_get_ht_capab:0000000000000026 .L0 
C:\Users\stapi\AppData\Local\Temp\ccVMe8Sf.s:873    .text.hostapd_get_ht_capab:0000000000000026 .L0 
C:\Users\stapi\AppData\Local\Temp\ccVMe8Sf.s:876    .text.hostapd_get_ht_capab:000000000000002c .L0 
C:\Users\stapi\AppData\Local\Temp\ccVMe8Sf.s:880    .text.hostapd_get_ht_capab:0000000000000032 .L0 
C:\Users\stapi\AppData\Local\Temp\ccVMe8Sf.s:881    .text.hostapd_get_ht_capab:0000000000000032 .L0 
C:\Users\stapi\AppData\Local\Temp\ccVMe8Sf.s:884    .text.hostapd_get_ht_capab:0000000000000038 .L0 
C:\Users\stapi\AppData\Local\Temp\ccVMe8Sf.s:885    .text.hostapd_get_ht_capab:0000000000000038 .L0 
C:\Users\stapi\AppData\Local\Temp\ccVMe8Sf.s:891    .text.hostapd_get_ht_capab:0000000000000040 .L0 
C:\Users\stapi\AppData\Local\Temp\ccVMe8Sf.s:892    .text.hostapd_get_ht_capab:0000000000000040 .L0 
C:\Users\stapi\AppData\Local\Temp\ccVMe8Sf.s:895    .text.hostapd_get_ht_capab:0000000000000046 .L0 
C:\Users\stapi\AppData\Local\Temp\ccVMe8Sf.s:896    .text.hostapd_get_ht_capab:0000000000000046 .L0 
C:\Users\stapi\AppData\Local\Temp\ccVMe8Sf.s:902    .text.hostapd_get_ht_capab:000000000000004e .L0 
C:\Users\stapi\AppData\Local\Temp\ccVMe8Sf.s:903    .text.hostapd_get_ht_capab:000000000000004e .L0 
C:\Users\stapi\AppData\Local\Temp\ccVMe8Sf.s:908    .text.hostapd_get_ht_capab:0000000000000058 .L0 
C:\Users\stapi\AppData\Local\Temp\ccVMe8Sf.s:909    .text.hostapd_get_ht_capab:0000000000000060 .L0 
C:\Users\stapi\AppData\Local\Temp\ccVMe8Sf.s:910    .text.hostapd_get_ht_capab:0000000000000060 .L0 
C:\Users\stapi\AppData\Local\Temp\ccVMe8Sf.s:911    .text.hostapd_get_ht_capab:0000000000000060 .L0 
C:\Users\stapi\AppData\Local\Temp\ccVMe8Sf.s:912    .text.hostapd_get_ht_capab:0000000000000060 .L0 
C:\Users\stapi\AppData\Local\Temp\ccVMe8Sf.s:916    .text.hostapd_get_ht_capab:0000000000000062 .L0 
C:\Users\stapi\AppData\Local\Temp\ccVMe8Sf.s:921    .rodata.__func__.0:0000000000000000 .LANCHOR2
C:\Users\stapi\AppData\Local\Temp\ccVMe8Sf.s:924    .rodata.__func__.0:0000000000000000 __func__.0
C:\Users\stapi\AppData\Local\Temp\ccVMe8Sf.s:928    .rodata.__func__.1:0000000000000000 .LANCHOR1
C:\Users\stapi\AppData\Local\Temp\ccVMe8Sf.s:931    .rodata.__func__.1:0000000000000000 __func__.1
C:\Users\stapi\AppData\Local\Temp\ccVMe8Sf.s:935    .rodata.__func__.2:0000000000000000 .LANCHOR0
C:\Users\stapi\AppData\Local\Temp\ccVMe8Sf.s:938    .rodata.__func__.2:0000000000000000 __func__.2
C:\Users\stapi\AppData\Local\Temp\ccVMe8Sf.s:193    .text.hostapd_eid_ht_capabilities:0000000000000104 .L0 
C:\Users\stapi\AppData\Local\Temp\ccVMe8Sf.s:281    .text.hostapd_eid_ht_operation:0000000000000070 .L0 
C:\Users\stapi\AppData\Local\Temp\ccVMe8Sf.s:487    .text.hostapd_ht_operation_update:00000000000000e8 .L0 
C:\Users\stapi\AppData\Local\Temp\ccVMe8Sf.s:598    .text.copy_sta_ht_capab:000000000000007e .L0 
C:\Users\stapi\AppData\Local\Temp\ccVMe8Sf.s:836    .text.update_ht_state:000000000000019c .L0 
C:\Users\stapi\AppData\Local\Temp\ccVMe8Sf.s:919    .text.hostapd_get_ht_capab:0000000000000062 .L0 
                     .debug_frame:0000000000000000 .L0 
C:\Users\stapi\AppData\Local\Temp\ccVMe8Sf.s:106    .text.hostapd_eid_ht_capabilities:000000000000008a .L3
C:\Users\stapi\AppData\Local\Temp\ccVMe8Sf.s:116    .text.hostapd_eid_ht_capabilities:0000000000000094 .L5
C:\Users\stapi\AppData\Local\Temp\ccVMe8Sf.s:270    .text.hostapd_eid_ht_operation:0000000000000066 .L12
C:\Users\stapi\AppData\Local\Temp\ccVMe8Sf.s:283    .rodata.hostapd_ht_operation_update.str1.4:0000000000000000 .LC0
C:\Users\stapi\AppData\Local\Temp\ccVMe8Sf.s:286    .rodata.hostapd_ht_operation_update.str1.4:0000000000000020 .LC1
C:\Users\stapi\AppData\Local\Temp\ccVMe8Sf.s:428    .text.hostapd_ht_operation_update:00000000000000ba .L15
C:\Users\stapi\AppData\Local\Temp\ccVMe8Sf.s:478    .text.hostapd_ht_operation_update:00000000000000e4 .L26
C:\Users\stapi\AppData\Local\Temp\ccVMe8Sf.s:441    .text.hostapd_ht_operation_update:00000000000000c4 .L17
C:\Users\stapi\AppData\Local\Temp\ccVMe8Sf.s:451    .text.hostapd_ht_operation_update:00000000000000c8 .L43
C:\Users\stapi\AppData\Local\Temp\ccVMe8Sf.s:459    .text.hostapd_ht_operation_update:00000000000000d0 .L19
C:\Users\stapi\AppData\Local\Temp\ccVMe8Sf.s:360    .text.hostapd_ht_operation_update:0000000000000062 .L20
C:\Users\stapi\AppData\Local\Temp\ccVMe8Sf.s:374    .text.hostapd_ht_operation_update:0000000000000070 .L23
C:\Users\stapi\AppData\Local\Temp\ccVMe8Sf.s:393    .text.hostapd_ht_operation_update:0000000000000088 .L22
C:\Users\stapi\AppData\Local\Temp\ccVMe8Sf.s:387    .text.hostapd_ht_operation_update:0000000000000080 .L24
C:\Users\stapi\AppData\Local\Temp\ccVMe8Sf.s:417    .text.hostapd_ht_operation_update:000000000000009e .L25
C:\Users\stapi\AppData\Local\Temp\ccVMe8Sf.s:345    .text.hostapd_ht_operation_update:000000000000004c .L18
C:\Users\stapi\AppData\Local\Temp\ccVMe8Sf.s:530    .text.copy_sta_ht_capab:000000000000002c .L45
C:\Users\stapi\AppData\Local\Temp\ccVMe8Sf.s:556    .text.copy_sta_ht_capab:000000000000004a .L46
C:\Users\stapi\AppData\Local\Temp\ccVMe8Sf.s:578    .text.copy_sta_ht_capab:0000000000000066 .L48
C:\Users\stapi\AppData\Local\Temp\ccVMe8Sf.s:542    .text.copy_sta_ht_capab:000000000000003e .L60
C:\Users\stapi\AppData\Local\Temp\ccVMe8Sf.s:563    .text.copy_sta_ht_capab:000000000000004e .L49
C:\Users\stapi\AppData\Local\Temp\ccVMe8Sf.s:546    .text.copy_sta_ht_capab:0000000000000040 .L47
C:\Users\stapi\AppData\Local\Temp\ccVMe8Sf.s:600    .rodata.update_ht_state.str1.4:0000000000000000 .LC2
C:\Users\stapi\AppData\Local\Temp\ccVMe8Sf.s:603    .rodata.update_ht_state.str1.4:0000000000000044 .LC3
C:\Users\stapi\AppData\Local\Temp\ccVMe8Sf.s:606    .rodata.update_ht_state.str1.4:0000000000000094 .LC4
C:\Users\stapi\AppData\Local\Temp\ccVMe8Sf.s:609    .rodata.update_ht_state.str1.4:00000000000000e0 .LC5
C:\Users\stapi\AppData\Local\Temp\ccVMe8Sf.s:787    .text.update_ht_state:0000000000000140 .L62
C:\Users\stapi\AppData\Local\Temp\ccVMe8Sf.s:712    .text.update_ht_state:00000000000000ba .L63
C:\Users\stapi\AppData\Local\Temp\ccVMe8Sf.s:694    .text.update_ht_state:0000000000000080 .L64
C:\Users\stapi\AppData\Local\Temp\ccVMe8Sf.s:761    .text.update_ht_state:000000000000011a .L66
C:\Users\stapi\AppData\Local\Temp\ccVMe8Sf.s:736    .text.update_ht_state:00000000000000e0 .L67
C:\Users\stapi\AppData\Local\Temp\ccVMe8Sf.s:775    .text.update_ht_state:0000000000000136 .L61
C:\Users\stapi\AppData\Local\Temp\ccVMe8Sf.s:809    .text.update_ht_state:0000000000000160 .L68
C:\Users\stapi\AppData\Local\Temp\ccVMe8Sf.s:752    .text.update_ht_state:0000000000000110 .L81
C:\Users\stapi\AppData\Local\Temp\ccVMe8Sf.s:914    .text.hostapd_get_ht_capab:0000000000000060 .L90
C:\Users\stapi\AppData\Local\Temp\ccVMe8Sf.s:889    .text.hostapd_get_ht_capab:0000000000000040 .L84
C:\Users\stapi\AppData\Local\Temp\ccVMe8Sf.s:900    .text.hostapd_get_ht_capab:000000000000004e .L85
C:\Users\stapi\AppData\Local\Temp\ccVMe8Sf.s:16166  .debug_abbrev:0000000000000000 .Ldebug_abbrev0
C:\Users\stapi\AppData\Local\Temp\ccVMe8Sf.s:19756  .debug_str:0000000000003252 .LASF1515
C:\Users\stapi\AppData\Local\Temp\ccVMe8Sf.s:18142  .debug_str:00000000000002c5 .LASF1516
C:\Users\stapi\AppData\Local\Temp\ccVMe8Sf.s:20888  .debug_str:0000000000005427 .LASF1517
C:\Users\stapi\AppData\Local\Temp\ccVMe8Sf.s:18022  .debug_ranges:0000000000000000 .Ldebug_ranges0
C:\Users\stapi\AppData\Local\Temp\ccVMe8Sf.s:18050  .debug_line:0000000000000000 .Ldebug_line0
C:\Users\stapi\AppData\Local\Temp\ccVMe8Sf.s:18480  .debug_str:0000000000000ce9 .LASF1
C:\Users\stapi\AppData\Local\Temp\ccVMe8Sf.s:21080  .debug_str:0000000000005a67 .LASF0
C:\Users\stapi\AppData\Local\Temp\ccVMe8Sf.s:19268  .debug_str:00000000000023a1 .LASF2
C:\Users\stapi\AppData\Local\Temp\ccVMe8Sf.s:20426  .debug_str:00000000000046a8 .LASF3
C:\Users\stapi\AppData\Local\Temp\ccVMe8Sf.s:18632  .debug_str:000000000000114d .LASF4
C:\Users\stapi\AppData\Local\Temp\ccVMe8Sf.s:19546  .debug_str:0000000000002bfe .LASF5
C:\Users\stapi\AppData\Local\Temp\ccVMe8Sf.s:20034  .debug_str:0000000000003bb9 .LASF6
C:\Users\stapi\AppData\Local\Temp\ccVMe8Sf.s:18986  .debug_str:0000000000001b7d .LASF7
C:\Users\stapi\AppData\Local\Temp\ccVMe8Sf.s:19408  .debug_str:0000000000002827 .LASF8
C:\Users\stapi\AppData\Local\Temp\ccVMe8Sf.s:20144  .debug_str:0000000000003ea3 .LASF9
C:\Users\stapi\AppData\Local\Temp\ccVMe8Sf.s:20140  .debug_str:0000000000003e8e .LASF10
C:\Users\stapi\AppData\Local\Temp\ccVMe8Sf.s:19714  .debug_str:000000000000310d .LASF11
C:\Users\stapi\AppData\Local\Temp\ccVMe8Sf.s:18088  .debug_str:000000000000010c .LASF12
C:\Users\stapi\AppData\Local\Temp\ccVMe8Sf.s:18058  .debug_str:0000000000000040 .LASF13
C:\Users\stapi\AppData\Local\Temp\ccVMe8Sf.s:20488  .debug_str:0000000000004881 .LASF14
C:\Users\stapi\AppData\Local\Temp\ccVMe8Sf.s:20564  .debug_str:0000000000004aa5 .LASF15
C:\Users\stapi\AppData\Local\Temp\ccVMe8Sf.s:20724  .debug_str:0000000000004f56 .LASF16
C:\Users\stapi\AppData\Local\Temp\ccVMe8Sf.s:20504  .debug_str:0000000000004903 .LASF17
C:\Users\stapi\AppData\Local\Temp\ccVMe8Sf.s:19468  .debug_str:00000000000029e0 .LASF18
C:\Users\stapi\AppData\Local\Temp\ccVMe8Sf.s:20542  .debug_str:0000000000004a0e .LASF19
C:\Users\stapi\AppData\Local\Temp\ccVMe8Sf.s:21028  .debug_str:00000000000058cc .LASF20
C:\Users\stapi\AppData\Local\Temp\ccVMe8Sf.s:18272  .debug_str:0000000000000701 .LASF21
C:\Users\stapi\AppData\Local\Temp\ccVMe8Sf.s:19030  .debug_str:0000000000001cc9 .LASF22
C:\Users\stapi\AppData\Local\Temp\ccVMe8Sf.s:19204  .debug_str:00000000000021bc .LASF23
C:\Users\stapi\AppData\Local\Temp\ccVMe8Sf.s:19082  .debug_str:0000000000001e1c .LASF24
C:\Users\stapi\AppData\Local\Temp\ccVMe8Sf.s:19620  .debug_str:0000000000002e30 .LASF25
C:\Users\stapi\AppData\Local\Temp\ccVMe8Sf.s:18788  .debug_str:00000000000015e1 .LASF27
C:\Users\stapi\AppData\Local\Temp\ccVMe8Sf.s:18420  .debug_str:0000000000000b02 .LASF29
C:\Users\stapi\AppData\Local\Temp\ccVMe8Sf.s:19200  .debug_str:000000000000219f .LASF26
C:\Users\stapi\AppData\Local\Temp\ccVMe8Sf.s:19344  .debug_str:00000000000025fc .LASF28
C:\Users\stapi\AppData\Local\Temp\ccVMe8Sf.s:20686  .debug_str:0000000000004e3f .LASF30
C:\Users\stapi\AppData\Local\Temp\ccVMe8Sf.s:18952  .debug_str:0000000000001aa3 .LASF31
C:\Users\stapi\AppData\Local\Temp\ccVMe8Sf.s:18450  .debug_str:0000000000000bf2 .LASF32
C:\Users\stapi\AppData\Local\Temp\ccVMe8Sf.s:19016  .debug_str:0000000000001c4f .LASF33
C:\Users\stapi\AppData\Local\Temp\ccVMe8Sf.s:18152  .debug_str:000000000000038f .LASF34
C:\Users\stapi\AppData\Local\Temp\ccVMe8Sf.s:18410  .debug_str:0000000000000aad .LASF35
C:\Users\stapi\AppData\Local\Temp\ccVMe8Sf.s:20688  .debug_str:0000000000004e44 .LASF36
C:\Users\stapi\AppData\Local\Temp\ccVMe8Sf.s:20684  .debug_str:0000000000004e39 .LASF37
C:\Users\stapi\AppData\Local\Temp\ccVMe8Sf.s:20012  .debug_str:0000000000003b21 .LASF38
C:\Users\stapi\AppData\Local\Temp\ccVMe8Sf.s:19526  .debug_str:0000000000002b6f .LASF39
C:\Users\stapi\AppData\Local\Temp\ccVMe8Sf.s:19626  .debug_str:0000000000002e68 .LASF40
C:\Users\stapi\AppData\Local\Temp\ccVMe8Sf.s:19584  .debug_str:0000000000002d3a .LASF41
C:\Users\stapi\AppData\Local\Temp\ccVMe8Sf.s:19042  .debug_str:0000000000001d0a .LASF42
C:\Users\stapi\AppData\Local\Temp\ccVMe8Sf.s:20272  .debug_str:000000000000420b .LASF43
C:\Users\stapi\AppData\Local\Temp\ccVMe8Sf.s:20800  .debug_str:000000000000519b .LASF97
C:\Users\stapi\AppData\Local\Temp\ccVMe8Sf.s:18518  .debug_str:0000000000000deb .LASF44
C:\Users\stapi\AppData\Local\Temp\ccVMe8Sf.s:20292  .debug_str:0000000000004296 .LASF45
C:\Users\stapi\AppData\Local\Temp\ccVMe8Sf.s:19482  .debug_str:0000000000002a34 .LASF46
C:\Users\stapi\AppData\Local\Temp\ccVMe8Sf.s:20942  .debug_str:000000000000562e .LASF47
C:\Users\stapi\AppData\Local\Temp\ccVMe8Sf.s:19452  .debug_str:000000000000295e .LASF48
C:\Users\stapi\AppData\Local\Temp\ccVMe8Sf.s:19394  .debug_str:00000000000027c4 .LASF49
C:\Users\stapi\AppData\Local\Temp\ccVMe8Sf.s:20632  .debug_str:0000000000004cbf .LASF50
C:\Users\stapi\AppData\Local\Temp\ccVMe8Sf.s:20870  .debug_str:00000000000053b5 .LASF51
C:\Users\stapi\AppData\Local\Temp\ccVMe8Sf.s:18498  .debug_str:0000000000000d60 .LASF52
C:\Users\stapi\AppData\Local\Temp\ccVMe8Sf.s:18576  .debug_str:0000000000000fae .LASF53
C:\Users\stapi\AppData\Local\Temp\ccVMe8Sf.s:20286  .debug_str:0000000000004268 .LASF54
C:\Users\stapi\AppData\Local\Temp\ccVMe8Sf.s:20060  .debug_str:0000000000003c51 .LASF55
C:\Users\stapi\AppData\Local\Temp\ccVMe8Sf.s:18136  .debug_str:0000000000000294 .LASF56
C:\Users\stapi\AppData\Local\Temp\ccVMe8Sf.s:19326  .debug_str:0000000000002583 .LASF57
C:\Users\stapi\AppData\Local\Temp\ccVMe8Sf.s:20862  .debug_str:0000000000005375 .LASF58
C:\Users\stapi\AppData\Local\Temp\ccVMe8Sf.s:19972  .debug_str:0000000000003a16 .LASF59
C:\Users\stapi\AppData\Local\Temp\ccVMe8Sf.s:20730  .debug_str:0000000000004f72 .LASF60
C:\Users\stapi\AppData\Local\Temp\ccVMe8Sf.s:19304  .debug_str:00000000000024cd .LASF61
C:\Users\stapi\AppData\Local\Temp\ccVMe8Sf.s:19182  .debug_str:000000000000211d .LASF62
C:\Users\stapi\AppData\Local\Temp\ccVMe8Sf.s:20364  .debug_str:00000000000044c7 .LASF63
C:\Users\stapi\AppData\Local\Temp\ccVMe8Sf.s:18486  .debug_str:0000000000000d02 .LASF64
C:\Users\stapi\AppData\Local\Temp\ccVMe8Sf.s:20810  .debug_str:00000000000051fa .LASF65
C:\Users\stapi\AppData\Local\Temp\ccVMe8Sf.s:21086  .debug_str:0000000000005a94 .LASF66
C:\Users\stapi\AppData\Local\Temp\ccVMe8Sf.s:18064  .debug_str:000000000000006a .LASF67
C:\Users\stapi\AppData\Local\Temp\ccVMe8Sf.s:18524  .debug_str:0000000000000e1b .LASF68
C:\Users\stapi\AppData\Local\Temp\ccVMe8Sf.s:20404  .debug_str:00000000000045d6 .LASF69
C:\Users\stapi\AppData\Local\Temp\ccVMe8Sf.s:19490  .debug_str:0000000000002a6a .LASF70
C:\Users\stapi\AppData\Local\Temp\ccVMe8Sf.s:18700  .debug_str:000000000000134b .LASF71
C:\Users\stapi\AppData\Local\Temp\ccVMe8Sf.s:20114  .debug_str:0000000000003dc9 .LASF72
C:\Users\stapi\AppData\Local\Temp\ccVMe8Sf.s:18434  .debug_str:0000000000000b61 .LASF73
C:\Users\stapi\AppData\Local\Temp\ccVMe8Sf.s:20774  .debug_str:00000000000050e9 .LASF74
C:\Users\stapi\AppData\Local\Temp\ccVMe8Sf.s:20340  .debug_str:0000000000004417 .LASF75
C:\Users\stapi\AppData\Local\Temp\ccVMe8Sf.s:19474  .debug_str:00000000000029ff .LASF76
C:\Users\stapi\AppData\Local\Temp\ccVMe8Sf.s:20420  .debug_str:000000000000466a .LASF77
C:\Users\stapi\AppData\Local\Temp\ccVMe8Sf.s:20720  .debug_str:0000000000004f3b .LASF78
C:\Users\stapi\AppData\Local\Temp\ccVMe8Sf.s:18584  .debug_str:0000000000000feb .LASF79
C:\Users\stapi\AppData\Local\Temp\ccVMe8Sf.s:20434  .debug_str:00000000000046d3 .LASF80
C:\Users\stapi\AppData\Local\Temp\ccVMe8Sf.s:18314  .debug_str:0000000000000805 .LASF81
C:\Users\stapi\AppData\Local\Temp\ccVMe8Sf.s:21046  .debug_str:000000000000594c .LASF82
C:\Users\stapi\AppData\Local\Temp\ccVMe8Sf.s:18468  .debug_str:0000000000000c79 .LASF83
C:\Users\stapi\AppData\Local\Temp\ccVMe8Sf.s:19140  .debug_str:0000000000001fb7 .LASF84
C:\Users\stapi\AppData\Local\Temp\ccVMe8Sf.s:19360  .debug_str:0000000000002687 .LASF85
C:\Users\stapi\AppData\Local\Temp\ccVMe8Sf.s:20978  .debug_str:0000000000005749 .LASF86
C:\Users\stapi\AppData\Local\Temp\ccVMe8Sf.s:20360  .debug_str:00000000000044ad .LASF87
C:\Users\stapi\AppData\Local\Temp\ccVMe8Sf.s:18140  .debug_str:00000000000002bc .LASF88
C:\Users\stapi\AppData\Local\Temp\ccVMe8Sf.s:19718  .debug_str:000000000000312a .LASF89
C:\Users\stapi\AppData\Local\Temp\ccVMe8Sf.s:20058  .debug_str:0000000000003c4b .LASF90
C:\Users\stapi\AppData\Local\Temp\ccVMe8Sf.s:19694  .debug_str:0000000000003071 .LASF91
C:\Users\stapi\AppData\Local\Temp\ccVMe8Sf.s:21056  .debug_str:00000000000059a4 .LASF92
C:\Users\stapi\AppData\Local\Temp\ccVMe8Sf.s:20858  .debug_str:0000000000005352 .LASF93
C:\Users\stapi\AppData\Local\Temp\ccVMe8Sf.s:19286  .debug_str:000000000000243a .LASF94
C:\Users\stapi\AppData\Local\Temp\ccVMe8Sf.s:18260  .debug_str:0000000000000697 .LASF95
C:\Users\stapi\AppData\Local\Temp\ccVMe8Sf.s:19716  .debug_str:0000000000003118 .LASF96
C:\Users\stapi\AppData\Local\Temp\ccVMe8Sf.s:18892  .debug_str:00000000000018ce .LASF98
C:\Users\stapi\AppData\Local\Temp\ccVMe8Sf.s:19764  .debug_str:0000000000003363 .LASF99
C:\Users\stapi\AppData\Local\Temp\ccVMe8Sf.s:19766  .debug_str:0000000000003374 .LASF100
C:\Users\stapi\AppData\Local\Temp\ccVMe8Sf.s:21008  .debug_str:000000000000583b .LASF101
C:\Users\stapi\AppData\Local\Temp\ccVMe8Sf.s:20264  .debug_str:00000000000041de .LASF102
C:\Users\stapi\AppData\Local\Temp\ccVMe8Sf.s:19672  .debug_str:0000000000002fc3 .LASF103
C:\Users\stapi\AppData\Local\Temp\ccVMe8Sf.s:20516  .debug_str:0000000000004966 .LASF104
C:\Users\stapi\AppData\Local\Temp\ccVMe8Sf.s:18790  .debug_str:00000000000015e9 .LASF105
C:\Users\stapi\AppData\Local\Temp\ccVMe8Sf.s:20146  .debug_str:0000000000003ead .LASF106
C:\Users\stapi\AppData\Local\Temp\ccVMe8Sf.s:18414  .debug_str:0000000000000ad5 .LASF107
C:\Users\stapi\AppData\Local\Temp\ccVMe8Sf.s:18864  .debug_str:00000000000017ff .LASF108
C:\Users\stapi\AppData\Local\Temp\ccVMe8Sf.s:18254  .debug_str:0000000000000663 .LASF109
C:\Users\stapi\AppData\Local\Temp\ccVMe8Sf.s:20670  .debug_str:0000000000004dcf .LASF110
C:\Users\stapi\AppData\Local\Temp\ccVMe8Sf.s:20352  .debug_str:0000000000004470 .LASF111
C:\Users\stapi\AppData\Local\Temp\ccVMe8Sf.s:20468  .debug_str:00000000000047cd .LASF112
C:\Users\stapi\AppData\Local\Temp\ccVMe8Sf.s:19194  .debug_str:0000000000002167 .LASF113
C:\Users\stapi\AppData\Local\Temp\ccVMe8Sf.s:20574  .debug_str:0000000000004af0 .LASF114
C:\Users\stapi\AppData\Local\Temp\ccVMe8Sf.s:20132  .debug_str:0000000000003e62 .LASF115
C:\Users\stapi\AppData\Local\Temp\ccVMe8Sf.s:18098  .debug_str:000000000000016a .LASF116
C:\Users\stapi\AppData\Local\Temp\ccVMe8Sf.s:19684  .debug_str:000000000000301e .LASF117
C:\Users\stapi\AppData\Local\Temp\ccVMe8Sf.s:18438  .debug_str:0000000000000b77 .LASF118
C:\Users\stapi\AppData\Local\Temp\ccVMe8Sf.s:18786  .debug_str:00000000000015d1 .LASF119
C:\Users\stapi\AppData\Local\Temp\ccVMe8Sf.s:19774  .debug_str:00000000000033d5 .LASF120
C:\Users\stapi\AppData\Local\Temp\ccVMe8Sf.s:19776  .debug_str:00000000000033ed .LASF121
C:\Users\stapi\AppData\Local\Temp\ccVMe8Sf.s:19772  .debug_str:00000000000033bd .LASF122
C:\Users\stapi\AppData\Local\Temp\ccVMe8Sf.s:19812  .debug_str:0000000000003506 .LASF123
C:\Users\stapi\AppData\Local\Temp\ccVMe8Sf.s:18252  .debug_str:0000000000000649 .LASF124
C:\Users\stapi\AppData\Local\Temp\ccVMe8Sf.s:20322  .debug_str:000000000000439d .LASF125
C:\Users\stapi\AppData\Local\Temp\ccVMe8Sf.s:18544  .debug_str:0000000000000ebf .LASF126
C:\Users\stapi\AppData\Local\Temp\ccVMe8Sf.s:19524  .debug_str:0000000000002b5e .LASF127
C:\Users\stapi\AppData\Local\Temp\ccVMe8Sf.s:20932  .debug_str:00000000000055e5 .LASF128
C:\Users\stapi\AppData\Local\Temp\ccVMe8Sf.s:20846  .debug_str:0000000000005306 .LASF129
C:\Users\stapi\AppData\Local\Temp\ccVMe8Sf.s:20956  .debug_str:000000000000568f .LASF130
C:\Users\stapi\AppData\Local\Temp\ccVMe8Sf.s:18558  .debug_str:0000000000000f23 .LASF131
C:\Users\stapi\AppData\Local\Temp\ccVMe8Sf.s:20448  .debug_str:000000000000472d .LASF132
C:\Users\stapi\AppData\Local\Temp\ccVMe8Sf.s:19228  .debug_str:000000000000226e .LASF133
C:\Users\stapi\AppData\Local\Temp\ccVMe8Sf.s:20412  .debug_str:0000000000004625 .LASF134
C:\Users\stapi\AppData\Local\Temp\ccVMe8Sf.s:19224  .debug_str:0000000000002248 .LASF135
C:\Users\stapi\AppData\Local\Temp\ccVMe8Sf.s:19910  .debug_str:000000000000382c .LASF136
C:\Users\stapi\AppData\Local\Temp\ccVMe8Sf.s:19248  .debug_str:000000000000230c .LASF137
C:\Users\stapi\AppData\Local\Temp\ccVMe8Sf.s:18914  .debug_str:0000000000001972 .LASF138
C:\Users\stapi\AppData\Local\Temp\ccVMe8Sf.s:18968  .debug_str:0000000000001b0a .LASF139
C:\Users\stapi\AppData\Local\Temp\ccVMe8Sf.s:19084  .debug_str:0000000000001e22 .LASF140
C:\Users\stapi\AppData\Local\Temp\ccVMe8Sf.s:18930  .debug_str:00000000000019fe .LASF141
C:\Users\stapi\AppData\Local\Temp\ccVMe8Sf.s:18466  .debug_str:0000000000000c6a .LASF142
C:\Users\stapi\AppData\Local\Temp\ccVMe8Sf.s:18388  .debug_str:00000000000009fc .LASF143
C:\Users\stapi\AppData\Local\Temp\ccVMe8Sf.s:19908  .debug_str:000000000000381c .LASF144
C:\Users\stapi\AppData\Local\Temp\ccVMe8Sf.s:20004  .debug_str:0000000000003ae8 .LASF145
C:\Users\stapi\AppData\Local\Temp\ccVMe8Sf.s:18508  .debug_str:0000000000000da8 .LASF146
C:\Users\stapi\AppData\Local\Temp\ccVMe8Sf.s:20482  .debug_str:0000000000004857 .LASF147
C:\Users\stapi\AppData\Local\Temp\ccVMe8Sf.s:19056  .debug_str:0000000000001d61 .LASF148
C:\Users\stapi\AppData\Local\Temp\ccVMe8Sf.s:20726  .debug_str:0000000000004f5b .LASF149
C:\Users\stapi\AppData\Local\Temp\ccVMe8Sf.s:18368  .debug_str:0000000000000983 .LASF150
C:\Users\stapi\AppData\Local\Temp\ccVMe8Sf.s:19074  .debug_str:0000000000001de5 .LASF151
C:\Users\stapi\AppData\Local\Temp\ccVMe8Sf.s:19130  .debug_str:0000000000001f79 .LASF152
C:\Users\stapi\AppData\Local\Temp\ccVMe8Sf.s:18374  .debug_str:00000000000009ae .LASF153
C:\Users\stapi\AppData\Local\Temp\ccVMe8Sf.s:20962  .debug_str:00000000000056c0 .LASF154
C:\Users\stapi\AppData\Local\Temp\ccVMe8Sf.s:19438  .debug_str:0000000000002909 .LASF155
C:\Users\stapi\AppData\Local\Temp\ccVMe8Sf.s:20712  .debug_str:0000000000004f05 .LASF156
C:\Users\stapi\AppData\Local\Temp\ccVMe8Sf.s:18796  .debug_str:000000000000161d .LASF157
C:\Users\stapi\AppData\Local\Temp\ccVMe8Sf.s:20804  .debug_str:00000000000051bd .LASF158
C:\Users\stapi\AppData\Local\Temp\ccVMe8Sf.s:19212  .debug_str:00000000000021ee .LASF159
C:\Users\stapi\AppData\Local\Temp\ccVMe8Sf.s:19808  .debug_str:00000000000034d2 .LASF160
C:\Users\stapi\AppData\Local\Temp\ccVMe8Sf.s:19282  .debug_str:0000000000002412 .LASF161
C:\Users\stapi\AppData\Local\Temp\ccVMe8Sf.s:20698  .debug_str:0000000000004e8d .LASF162
C:\Users\stapi\AppData\Local\Temp\ccVMe8Sf.s:19852  .debug_str:000000000000364a .LASF163
C:\Users\stapi\AppData\Local\Temp\ccVMe8Sf.s:18268  .debug_str:00000000000006df .LASF164
C:\Users\stapi\AppData\Local\Temp\ccVMe8Sf.s:19422  .debug_str:0000000000002882 .LASF165
C:\Users\stapi\AppData\Local\Temp\ccVMe8Sf.s:21054  .debug_str:0000000000005992 .LASF166
C:\Users\stapi\AppData\Local\Temp\ccVMe8Sf.s:19662  .debug_str:0000000000002f5d .LASF167
C:\Users\stapi\AppData\Local\Temp\ccVMe8Sf.s:19298  .debug_str:0000000000002497 .LASF168
C:\Users\stapi\AppData\Local\Temp\ccVMe8Sf.s:20452  .debug_str:0000000000004757 .LASF169
C:\Users\stapi\AppData\Local\Temp\ccVMe8Sf.s:19226  .debug_str:0000000000002257 .LASF170
C:\Users\stapi\AppData\Local\Temp\ccVMe8Sf.s:20524  .debug_str:0000000000004993 .LASF171
C:\Users\stapi\AppData\Local\Temp\ccVMe8Sf.s:19052  .debug_str:0000000000001d4c .LASF172
C:\Users\stapi\AppData\Local\Temp\ccVMe8Sf.s:20262  .debug_str:00000000000041d9 .LASF173
C:\Users\stapi\AppData\Local\Temp\ccVMe8Sf.s:20010  .debug_str:0000000000003b19 .LASF174
C:\Users\stapi\AppData\Local\Temp\ccVMe8Sf.s:19058  .debug_str:0000000000001d6a .LASF175
C:\Users\stapi\AppData\Local\Temp\ccVMe8Sf.s:19198  .debug_str:0000000000002189 .LASF176
C:\Users\stapi\AppData\Local\Temp\ccVMe8Sf.s:20788  .debug_str:0000000000005143 .LASF177
C:\Users\stapi\AppData\Local\Temp\ccVMe8Sf.s:20580  .debug_str:0000000000004b27 .LASF178
C:\Users\stapi\AppData\Local\Temp\ccVMe8Sf.s:18146  .debug_str:0000000000000369 .LASF179
C:\Users\stapi\AppData\Local\Temp\ccVMe8Sf.s:20642  .debug_str:0000000000004d05 .LASF180
C:\Users\stapi\AppData\Local\Temp\ccVMe8Sf.s:18936  .debug_str:0000000000001a27 .LASF181
C:\Users\stapi\AppData\Local\Temp\ccVMe8Sf.s:18870  .debug_str:000000000000181e .LASF182
C:\Users\stapi\AppData\Local\Temp\ccVMe8Sf.s:18462  .debug_str:0000000000000c56 .LASF183
C:\Users\stapi\AppData\Local\Temp\ccVMe8Sf.s:21084  .debug_str:0000000000005a87 .LASF184
C:\Users\stapi\AppData\Local\Temp\ccVMe8Sf.s:20026  .debug_str:0000000000003b89 .LASF185
C:\Users\stapi\AppData\Local\Temp\ccVMe8Sf.s:19210  .debug_str:00000000000021dd .LASF186
C:\Users\stapi\AppData\Local\Temp\ccVMe8Sf.s:20248  .debug_str:0000000000004173 .LASF187
C:\Users\stapi\AppData\Local\Temp\ccVMe8Sf.s:18292  .debug_str:0000000000000795 .LASF188
C:\Users\stapi\AppData\Local\Temp\ccVMe8Sf.s:18294  .debug_str:000000000000079c .LASF189
C:\Users\stapi\AppData\Local\Temp\ccVMe8Sf.s:18404  .debug_str:0000000000000a94 .LASF190
C:\Users\stapi\AppData\Local\Temp\ccVMe8Sf.s:18296  .debug_str:00000000000007a3 .LASF191
C:\Users\stapi\AppData\Local\Temp\ccVMe8Sf.s:18298  .debug_str:00000000000007aa .LASF192
C:\Users\stapi\AppData\Local\Temp\ccVMe8Sf.s:18300  .debug_str:00000000000007b1 .LASF193
C:\Users\stapi\AppData\Local\Temp\ccVMe8Sf.s:18302  .debug_str:00000000000007b8 .LASF194
C:\Users\stapi\AppData\Local\Temp\ccVMe8Sf.s:18304  .debug_str:00000000000007bf .LASF195
C:\Users\stapi\AppData\Local\Temp\ccVMe8Sf.s:18306  .debug_str:00000000000007c6 .LASF196
C:\Users\stapi\AppData\Local\Temp\ccVMe8Sf.s:19492  .debug_str:0000000000002a88 .LASF197
C:\Users\stapi\AppData\Local\Temp\ccVMe8Sf.s:19132  .debug_str:0000000000001f85 .LASF198
C:\Users\stapi\AppData\Local\Temp\ccVMe8Sf.s:20896  .debug_str:00000000000054ee .LASF199
C:\Users\stapi\AppData\Local\Temp\ccVMe8Sf.s:18352  .debug_str:0000000000000929 .LASF200
C:\Users\stapi\AppData\Local\Temp\ccVMe8Sf.s:19892  .debug_str:000000000000379b .LASF201
C:\Users\stapi\AppData\Local\Temp\ccVMe8Sf.s:18614  .debug_str:00000000000010ce .LASF202
C:\Users\stapi\AppData\Local\Temp\ccVMe8Sf.s:20660  .debug_str:0000000000004d73 .LASF203
C:\Users\stapi\AppData\Local\Temp\ccVMe8Sf.s:19436  .debug_str:0000000000002904 .LASF204
C:\Users\stapi\AppData\Local\Temp\ccVMe8Sf.s:18372  .debug_str:00000000000009a5 .LASF205
C:\Users\stapi\AppData\Local\Temp\ccVMe8Sf.s:18878  .debug_str:0000000000001876 .LASF206
C:\Users\stapi\AppData\Local\Temp\ccVMe8Sf.s:19708  .debug_str:00000000000030e9 .LASF207
C:\Users\stapi\AppData\Local\Temp\ccVMe8Sf.s:19784  .debug_str:0000000000003425 .LASF208
C:\Users\stapi\AppData\Local\Temp\ccVMe8Sf.s:18722  .debug_str:0000000000001409 .LASF209
C:\Users\stapi\AppData\Local\Temp\ccVMe8Sf.s:19250  .debug_str:000000000000231f .LASF210
C:\Users\stapi\AppData\Local\Temp\ccVMe8Sf.s:20920  .debug_str:0000000000005594 .LASF211
C:\Users\stapi\AppData\Local\Temp\ccVMe8Sf.s:19868  .debug_str:00000000000036e0 .LASF212
C:\Users\stapi\AppData\Local\Temp\ccVMe8Sf.s:18238  .debug_str:0000000000000605 .LASF213
C:\Users\stapi\AppData\Local\Temp\ccVMe8Sf.s:18362  .debug_str:0000000000000964 .LASF214
C:\Users\stapi\AppData\Local\Temp\ccVMe8Sf.s:18500  .debug_str:0000000000000d7a .LASF215
C:\Users\stapi\AppData\Local\Temp\ccVMe8Sf.s:18636  .debug_str:0000000000001160 .LASF216
C:\Users\stapi\AppData\Local\Temp\ccVMe8Sf.s:20954  .debug_str:0000000000005682 .LASF217
C:\Users\stapi\AppData\Local\Temp\ccVMe8Sf.s:18176  .debug_str:0000000000000436 .LASF218
C:\Users\stapi\AppData\Local\Temp\ccVMe8Sf.s:20566  .debug_str:0000000000004abc .LASF219
C:\Users\stapi\AppData\Local\Temp\ccVMe8Sf.s:20944  .debug_str:0000000000005643 .LASF220
C:\Users\stapi\AppData\Local\Temp\ccVMe8Sf.s:19106  .debug_str:0000000000001ec9 .LASF221
C:\Users\stapi\AppData\Local\Temp\ccVMe8Sf.s:18982  .debug_str:0000000000001b66 .LASF222
C:\Users\stapi\AppData\Local\Temp\ccVMe8Sf.s:18168  .debug_str:0000000000000402 .LASF223
C:\Users\stapi\AppData\Local\Temp\ccVMe8Sf.s:21002  .debug_str:000000000000580a .LASF224
C:\Users\stapi\AppData\Local\Temp\ccVMe8Sf.s:18720  .debug_str:00000000000013fb .LASF225
C:\Users\stapi\AppData\Local\Temp\ccVMe8Sf.s:20848  .debug_str:0000000000005315 .LASF226
C:\Users\stapi\AppData\Local\Temp\ccVMe8Sf.s:18074  .debug_str:00000000000000ac .LASF227
C:\Users\stapi\AppData\Local\Temp\ccVMe8Sf.s:18912  .debug_str:0000000000001965 .LASF228
C:\Users\stapi\AppData\Local\Temp\ccVMe8Sf.s:18568  .debug_str:0000000000000f78 .LASF229
C:\Users\stapi\AppData\Local\Temp\ccVMe8Sf.s:19116  .debug_str:0000000000001f16 .LASF230
C:\Users\stapi\AppData\Local\Temp\ccVMe8Sf.s:20400  .debug_str:00000000000045af .LASF231
C:\Users\stapi\AppData\Local\Temp\ccVMe8Sf.s:18052  .debug_str:0000000000000000 .LASF232
C:\Users\stapi\AppData\Local\Temp\ccVMe8Sf.s:21026  .debug_str:00000000000058c5 .LASF233
C:\Users\stapi\AppData\Local\Temp\ccVMe8Sf.s:18106  .debug_str:00000000000001ac .LASF234
C:\Users\stapi\AppData\Local\Temp\ccVMe8Sf.s:20814  .debug_str:000000000000522c .LASF235
C:\Users\stapi\AppData\Local\Temp\ccVMe8Sf.s:19076  .debug_str:0000000000001df1 .LASF236
C:\Users\stapi\AppData\Local\Temp\ccVMe8Sf.s:19380  .debug_str:0000000000002740 .LASF237
C:\Users\stapi\AppData\Local\Temp\ccVMe8Sf.s:18512  .debug_str:0000000000000dcd .LASF238
C:\Users\stapi\AppData\Local\Temp\ccVMe8Sf.s:19720  .debug_str:0000000000003145 .LASF239
C:\Users\stapi\AppData\Local\Temp\ccVMe8Sf.s:18770  .debug_str:0000000000001571 .LASF240
C:\Users\stapi\AppData\Local\Temp\ccVMe8Sf.s:20976  .debug_str:000000000000573c .LASF241
C:\Users\stapi\AppData\Local\Temp\ccVMe8Sf.s:20236  .debug_str:0000000000004122 .LASF242
C:\Users\stapi\AppData\Local\Temp\ccVMe8Sf.s:18738  .debug_str:0000000000001467 .LASF243
C:\Users\stapi\AppData\Local\Temp\ccVMe8Sf.s:20612  .debug_str:0000000000004c2c .LASF244
C:\Users\stapi\AppData\Local\Temp\ccVMe8Sf.s:20974  .debug_str:0000000000005730 .LASF245
C:\Users\stapi\AppData\Local\Temp\ccVMe8Sf.s:20782  .debug_str:0000000000005115 .LASF246
C:\Users\stapi\AppData\Local\Temp\ccVMe8Sf.s:19874  .debug_str:0000000000003707 .LASF247
C:\Users\stapi\AppData\Local\Temp\ccVMe8Sf.s:20336  .debug_str:0000000000004401 .LASF248
C:\Users\stapi\AppData\Local\Temp\ccVMe8Sf.s:20228  .debug_str:00000000000040f0 .LASF249
C:\Users\stapi\AppData\Local\Temp\ccVMe8Sf.s:20086  .debug_str:0000000000003cf8 .LASF250
C:\Users\stapi\AppData\Local\Temp\ccVMe8Sf.s:19072  .debug_str:0000000000001ddd .LASF251
C:\Users\stapi\AppData\Local\Temp\ccVMe8Sf.s:18772  .debug_str:000000000000157e .LASF252
C:\Users\stapi\AppData\Local\Temp\ccVMe8Sf.s:19170  .debug_str:00000000000020c0 .LASF253
C:\Users\stapi\AppData\Local\Temp\ccVMe8Sf.s:20270  .debug_str:0000000000004204 .LASF254
C:\Users\stapi\AppData\Local\Temp\ccVMe8Sf.s:20746  .debug_str:0000000000004ff5 .LASF255
C:\Users\stapi\AppData\Local\Temp\ccVMe8Sf.s:20052  .debug_str:0000000000003c23 .LASF256
C:\Users\stapi\AppData\Local\Temp\ccVMe8Sf.s:18496  .debug_str:0000000000000d4f .LASF257
C:\Users\stapi\AppData\Local\Temp\ccVMe8Sf.s:19454  .debug_str:0000000000002974 .LASF258
C:\Users\stapi\AppData\Local\Temp\ccVMe8Sf.s:19160  .debug_str:0000000000002061 .LASF259
C:\Users\stapi\AppData\Local\Temp\ccVMe8Sf.s:20568  .debug_str:0000000000004ac9 .LASF260
C:\Users\stapi\AppData\Local\Temp\ccVMe8Sf.s:20056  .debug_str:0000000000003c3c .LASF261
C:\Users\stapi\AppData\Local\Temp\ccVMe8Sf.s:19638  .debug_str:0000000000002ed7 .LASF262
C:\Users\stapi\AppData\Local\Temp\ccVMe8Sf.s:18896  .debug_str:00000000000018f1 .LASF263
C:\Users\stapi\AppData\Local\Temp\ccVMe8Sf.s:19098  .debug_str:0000000000001e74 .LASF264
C:\Users\stapi\AppData\Local\Temp\ccVMe8Sf.s:18880  .debug_str:0000000000001880 .LASF265
C:\Users\stapi\AppData\Local\Temp\ccVMe8Sf.s:19576  .debug_str:0000000000002cee .LASF266
C:\Users\stapi\AppData\Local\Temp\ccVMe8Sf.s:20416  .debug_str:0000000000004646 .LASF267
C:\Users\stapi\AppData\Local\Temp\ccVMe8Sf.s:21082  .debug_str:0000000000005a74 .LASF268
C:\Users\stapi\AppData\Local\Temp\ccVMe8Sf.s:19916  .debug_str:000000000000384b .LASF269
C:\Users\stapi\AppData\Local\Temp\ccVMe8Sf.s:18684  .debug_str:00000000000012cc .LASF270
C:\Users\stapi\AppData\Local\Temp\ccVMe8Sf.s:18086  .debug_str:00000000000000fb .LASF271
C:\Users\stapi\AppData\Local\Temp\ccVMe8Sf.s:19802  .debug_str:000000000000349f .LASF272
C:\Users\stapi\AppData\Local\Temp\ccVMe8Sf.s:21018  .debug_str:0000000000005889 .LASF273
C:\Users\stapi\AppData\Local\Temp\ccVMe8Sf.s:19810  .debug_str:00000000000034ec .LASF274
C:\Users\stapi\AppData\Local\Temp\ccVMe8Sf.s:18130  .debug_str:0000000000000260 .LASF275
C:\Users\stapi\AppData\Local\Temp\ccVMe8Sf.s:19104  .debug_str:0000000000001ea8 .LASF276
C:\Users\stapi\AppData\Local\Temp\ccVMe8Sf.s:19920  .debug_str:0000000000003870 .LASF277
C:\Users\stapi\AppData\Local\Temp\ccVMe8Sf.s:18118  .debug_str:0000000000000206 .LASF278
C:\Users\stapi\AppData\Local\Temp\ccVMe8Sf.s:20202  .debug_str:000000000000404e .LASF279
C:\Users\stapi\AppData\Local\Temp\ccVMe8Sf.s:19564  .debug_str:0000000000002c7c .LASF280
C:\Users\stapi\AppData\Local\Temp\ccVMe8Sf.s:19580  .debug_str:0000000000002d14 .LASF281
C:\Users\stapi\AppData\Local\Temp\ccVMe8Sf.s:18134  .debug_str:0000000000000282 .LASF282
C:\Users\stapi\AppData\Local\Temp\ccVMe8Sf.s:18882  .debug_str:000000000000188f .LASF283
C:\Users\stapi\AppData\Local\Temp\ccVMe8Sf.s:18378  .debug_str:00000000000009cc .LASF284
C:\Users\stapi\AppData\Local\Temp\ccVMe8Sf.s:20910  .debug_str:000000000000555b .LASF285
C:\Users\stapi\AppData\Local\Temp\ccVMe8Sf.s:20736  .debug_str:0000000000004fa4 .LASF286
C:\Users\stapi\AppData\Local\Temp\ccVMe8Sf.s:20490  .debug_str:000000000000488c .LASF287
C:\Users\stapi\AppData\Local\Temp\ccVMe8Sf.s:18674  .debug_str:0000000000001279 .LASF288
C:\Users\stapi\AppData\Local\Temp\ccVMe8Sf.s:18180  .debug_str:000000000000045a .LASF289
C:\Users\stapi\AppData\Local\Temp\ccVMe8Sf.s:18528  .debug_str:0000000000000e42 .LASF290
C:\Users\stapi\AppData\Local\Temp\ccVMe8Sf.s:20470  .debug_str:00000000000047e2 .LASF291
C:\Users\stapi\AppData\Local\Temp\ccVMe8Sf.s:20118  .debug_str:0000000000003df1 .LASF292
C:\Users\stapi\AppData\Local\Temp\ccVMe8Sf.s:19658  .debug_str:0000000000002f4c .LASF293
C:\Users\stapi\AppData\Local\Temp\ccVMe8Sf.s:19642  .debug_str:0000000000002ef3 .LASF294
C:\Users\stapi\AppData\Local\Temp\ccVMe8Sf.s:18424  .debug_str:0000000000000b16 .LASF295
C:\Users\stapi\AppData\Local\Temp\ccVMe8Sf.s:20604  .debug_str:0000000000004be5 .LASF296
C:\Users\stapi\AppData\Local\Temp\ccVMe8Sf.s:21000  .debug_str:00000000000057fe .LASF297
C:\Users\stapi\AppData\Local\Temp\ccVMe8Sf.s:19616  .debug_str:0000000000002e1c .LASF298
C:\Users\stapi\AppData\Local\Temp\ccVMe8Sf.s:19430  .debug_str:00000000000028d0 .LASF299
C:\Users\stapi\AppData\Local\Temp\ccVMe8Sf.s:19240  .debug_str:00000000000022dc .LASF300
C:\Users\stapi\AppData\Local\Temp\ccVMe8Sf.s:19906  .debug_str:0000000000003803 .LASF301
C:\Users\stapi\AppData\Local\Temp\ccVMe8Sf.s:19838  .debug_str:00000000000035dd .LASF302
C:\Users\stapi\AppData\Local\Temp\ccVMe8Sf.s:18432  .debug_str:0000000000000b47 .LASF303
C:\Users\stapi\AppData\Local\Temp\ccVMe8Sf.s:18446  .debug_str:0000000000000bc2 .LASF304
C:\Users\stapi\AppData\Local\Temp\ccVMe8Sf.s:20538  .debug_str:00000000000049f0 .LASF305
C:\Users\stapi\AppData\Local\Temp\ccVMe8Sf.s:20948  .debug_str:0000000000005659 .LASF306
C:\Users\stapi\AppData\Local\Temp\ccVMe8Sf.s:20190  .debug_str:0000000000003ff8 .LASF307
C:\Users\stapi\AppData\Local\Temp\ccVMe8Sf.s:20638  .debug_str:0000000000004ce3 .LASF1518
C:\Users\stapi\AppData\Local\Temp\ccVMe8Sf.s:18840  .debug_str:0000000000001771 .LASF308
C:\Users\stapi\AppData\Local\Temp\ccVMe8Sf.s:18942  .debug_str:0000000000001a56 .LASF309
C:\Users\stapi\AppData\Local\Temp\ccVMe8Sf.s:19178  .debug_str:00000000000020fd .LASF310
C:\Users\stapi\AppData\Local\Temp\ccVMe8Sf.s:18834  .debug_str:0000000000001742 .LASF311
C:\Users\stapi\AppData\Local\Temp\ccVMe8Sf.s:19252  .debug_str:0000000000002328 .LASF312
C:\Users\stapi\AppData\Local\Temp\ccVMe8Sf.s:18866  .debug_str:000000000000180c .LASF313
C:\Users\stapi\AppData\Local\Temp\ccVMe8Sf.s:19648  .debug_str:0000000000002f17 .LASF314
C:\Users\stapi\AppData\Local\Temp\ccVMe8Sf.s:21052  .debug_str:0000000000005984 .LASF315
C:\Users\stapi\AppData\Local\Temp\ccVMe8Sf.s:18600  .debug_str:0000000000001064 .LASF316
C:\Users\stapi\AppData\Local\Temp\ccVMe8Sf.s:19494  .debug_str:0000000000002a94 .LASF317
C:\Users\stapi\AppData\Local\Temp\ccVMe8Sf.s:18160  .debug_str:00000000000003d1 .LASF318
C:\Users\stapi\AppData\Local\Temp\ccVMe8Sf.s:18226  .debug_str:00000000000005aa .LASF319
C:\Users\stapi\AppData\Local\Temp\ccVMe8Sf.s:20172  .debug_str:0000000000003f7f .LASF320
C:\Users\stapi\AppData\Local\Temp\ccVMe8Sf.s:19136  .debug_str:0000000000001fa1 .LASF321
C:\Users\stapi\AppData\Local\Temp\ccVMe8Sf.s:19442  .debug_str:0000000000002921 .LASF322
C:\Users\stapi\AppData\Local\Temp\ccVMe8Sf.s:18748  .debug_str:00000000000014a8 .LASF323
C:\Users\stapi\AppData\Local\Temp\ccVMe8Sf.s:19562  .debug_str:0000000000002c74 .LASF324
C:\Users\stapi\AppData\Local\Temp\ccVMe8Sf.s:20618  .debug_str:0000000000004c55 .LASF325
C:\Users\stapi\AppData\Local\Temp\ccVMe8Sf.s:19424  .debug_str:0000000000002896 .LASF326
C:\Users\stapi\AppData\Local\Temp\ccVMe8Sf.s:18330  .debug_str:000000000000086c .LASF327
C:\Users\stapi\AppData\Local\Temp\ccVMe8Sf.s:19352  .debug_str:000000000000263d .LASF328
C:\Users\stapi\AppData\Local\Temp\ccVMe8Sf.s:18280  .debug_str:0000000000000733 .LASF329
C:\Users\stapi\AppData\Local\Temp\ccVMe8Sf.s:18172  .debug_str:0000000000000416 .LASF330
C:\Users\stapi\AppData\Local\Temp\ccVMe8Sf.s:18070  .debug_str:0000000000000096 .LASF331
C:\Users\stapi\AppData\Local\Temp\ccVMe8Sf.s:21068  .debug_str:0000000000005a09 .LASF332
C:\Users\stapi\AppData\Local\Temp\ccVMe8Sf.s:20816  .debug_str:0000000000005236 .LASF333
C:\Users\stapi\AppData\Local\Temp\ccVMe8Sf.s:20946  .debug_str:0000000000005650 .LASF334
C:\Users\stapi\AppData\Local\Temp\ccVMe8Sf.s:18934  .debug_str:0000000000001a1d .LASF335
C:\Users\stapi\AppData\Local\Temp\ccVMe8Sf.s:19102  .debug_str:0000000000001e95 .LASF336
C:\Users\stapi\AppData\Local\Temp\ccVMe8Sf.s:20940  .debug_str:0000000000005622 .LASF337
C:\Users\stapi\AppData\Local\Temp\ccVMe8Sf.s:20204  .debug_str:000000000000405f .LASF338
C:\Users\stapi\AppData\Local\Temp\ccVMe8Sf.s:20346  .debug_str:0000000000004438 .LASF339
C:\Users\stapi\AppData\Local\Temp\ccVMe8Sf.s:20380  .debug_str:0000000000004541 .LASF340
C:\Users\stapi\AppData\Local\Temp\ccVMe8Sf.s:18138  .debug_str:00000000000002ad .LASF341
C:\Users\stapi\AppData\Local\Temp\ccVMe8Sf.s:18108  .debug_str:00000000000001b7 .LASF342
C:\Users\stapi\AppData\Local\Temp\ccVMe8Sf.s:18856  .debug_str:00000000000017ca .LASF343
C:\Users\stapi\AppData\Local\Temp\ccVMe8Sf.s:19898  .debug_str:00000000000037c9 .LASF344
C:\Users\stapi\AppData\Local\Temp\ccVMe8Sf.s:20076  .debug_str:0000000000003cbc .LASF345
C:\Users\stapi\AppData\Local\Temp\ccVMe8Sf.s:20150  .debug_str:0000000000003ed5 .LASF346
C:\Users\stapi\AppData\Local\Temp\ccVMe8Sf.s:18406  .debug_str:0000000000000a9c .LASF347
C:\Users\stapi\AppData\Local\Temp\ccVMe8Sf.s:20388  .debug_str:000000000000456a .LASF348
C:\Users\stapi\AppData\Local\Temp\ccVMe8Sf.s:20780  .debug_str:0000000000005108 .LASF349
C:\Users\stapi\AppData\Local\Temp\ccVMe8Sf.s:20048  .debug_str:0000000000003c09 .LASF350
C:\Users\stapi\AppData\Local\Temp\ccVMe8Sf.s:18542  .debug_str:0000000000000eb8 .LASF351
C:\Users\stapi\AppData\Local\Temp\ccVMe8Sf.s:18780  .debug_str:00000000000015a9 .LASF352
C:\Users\stapi\AppData\Local\Temp\ccVMe8Sf.s:19306  .debug_str:00000000000024d6 .LASF353
C:\Users\stapi\AppData\Local\Temp\ccVMe8Sf.s:20622  .debug_str:0000000000004c7b .LASF354
C:\Users\stapi\AppData\Local\Temp\ccVMe8Sf.s:19606  .debug_str:0000000000002ddf .LASF355
C:\Users\stapi\AppData\Local\Temp\ccVMe8Sf.s:19710  .debug_str:00000000000030f3 .LASF356
C:\Users\stapi\AppData\Local\Temp\ccVMe8Sf.s:19954  .debug_str:0000000000003975 .LASF357
C:\Users\stapi\AppData\Local\Temp\ccVMe8Sf.s:19398  .debug_str:00000000000027d9 .LASF358
C:\Users\stapi\AppData\Local\Temp\ccVMe8Sf.s:20578  .debug_str:0000000000004b1c .LASF359
C:\Users\stapi\AppData\Local\Temp\ccVMe8Sf.s:20526  .debug_str:000000000000499b .LASF360
C:\Users\stapi\AppData\Local\Temp\ccVMe8Sf.s:18382  .debug_str:00000000000009e3 .LASF361
C:\Users\stapi\AppData\Local\Temp\ccVMe8Sf.s:19350  .debug_str:000000000000262c .LASF362
C:\Users\stapi\AppData\Local\Temp\ccVMe8Sf.s:19570  .debug_str:0000000000002cbc .LASF363
C:\Users\stapi\AppData\Local\Temp\ccVMe8Sf.s:18972  .debug_str:0000000000001b2e .LASF364
C:\Users\stapi\AppData\Local\Temp\ccVMe8Sf.s:19242  .debug_str:00000000000022e1 .LASF365
C:\Users\stapi\AppData\Local\Temp\ccVMe8Sf.s:18240  .debug_str:0000000000000615 .LASF366
C:\Users\stapi\AppData\Local\Temp\ccVMe8Sf.s:18694  .debug_str:0000000000001315 .LASF367
C:\Users\stapi\AppData\Local\Temp\ccVMe8Sf.s:19942  .debug_str:000000000000391a .LASF368
C:\Users\stapi\AppData\Local\Temp\ccVMe8Sf.s:18188  .debug_str:0000000000000494 .LASF369
C:\Users\stapi\AppData\Local\Temp\ccVMe8Sf.s:20438  .debug_str:00000000000046f5 .LASF370
C:\Users\stapi\AppData\Local\Temp\ccVMe8Sf.s:20244  .debug_str:0000000000004155 .LASF371
C:\Users\stapi\AppData\Local\Temp\ccVMe8Sf.s:19634  .debug_str:0000000000002eb3 .LASF372
C:\Users\stapi\AppData\Local\Temp\ccVMe8Sf.s:21088  .debug_str:0000000000005aa7 .LASF373
C:\Users\stapi\AppData\Local\Temp\ccVMe8Sf.s:20558  .debug_str:0000000000004a76 .LASF374
C:\Users\stapi\AppData\Local\Temp\ccVMe8Sf.s:19096  .debug_str:0000000000001e6d .LASF375
C:\Users\stapi\AppData\Local\Temp\ccVMe8Sf.s:18192  .debug_str:00000000000004af .LASF376
C:\Users\stapi\AppData\Local\Temp\ccVMe8Sf.s:19448  .debug_str:0000000000002946 .LASF377
C:\Users\stapi\AppData\Local\Temp\ccVMe8Sf.s:18504  .debug_str:0000000000000d8c .LASF378
C:\Users\stapi\AppData\Local\Temp\ccVMe8Sf.s:18894  .debug_str:00000000000018dd .LASF379
C:\Users\stapi\AppData\Local\Temp\ccVMe8Sf.s:20480  .debug_str:000000000000483c .LASF380
C:\Users\stapi\AppData\Local\Temp\ccVMe8Sf.s:19258  .debug_str:0000000000002358 .LASF381
C:\Users\stapi\AppData\Local\Temp\ccVMe8Sf.s:19912  .debug_str:0000000000003837 .LASF382
C:\Users\stapi\AppData\Local\Temp\ccVMe8Sf.s:20064  .debug_str:0000000000003c6e .LASF383
C:\Users\stapi\AppData\Local\Temp\ccVMe8Sf.s:18194  .debug_str:00000000000004b9 .LASF384
C:\Users\stapi\AppData\Local\Temp\ccVMe8Sf.s:19466  .debug_str:00000000000029ce .LASF385
C:\Users\stapi\AppData\Local\Temp\ccVMe8Sf.s:20682  .debug_str:0000000000004e2c .LASF386
C:\Users\stapi\AppData\Local\Temp\ccVMe8Sf.s:19330  .debug_str:00000000000025a5 .LASF387
C:\Users\stapi\AppData\Local\Temp\ccVMe8Sf.s:20760  .debug_str:000000000000507c .LASF388
C:\Users\stapi\AppData\Local\Temp\ccVMe8Sf.s:19260  .debug_str:000000000000236c .LASF389
C:\Users\stapi\AppData\Local\Temp\ccVMe8Sf.s:19800  .debug_str:0000000000003495 .LASF390
C:\Users\stapi\AppData\Local\Temp\ccVMe8Sf.s:20082  .debug_str:0000000000003ce1 .LASF391
C:\Users\stapi\AppData\Local\Temp\ccVMe8Sf.s:19512  .debug_str:0000000000002b16 .LASF392
C:\Users\stapi\AppData\Local\Temp\ccVMe8Sf.s:18104  .debug_str:0000000000000195 .LASF393
C:\Users\stapi\AppData\Local\Temp\ccVMe8Sf.s:19656  .debug_str:0000000000002f43 .LASF394
C:\Users\stapi\AppData\Local\Temp\ccVMe8Sf.s:18588  .debug_str:000000000000100a .LASF395
C:\Users\stapi\AppData\Local\Temp\ccVMe8Sf.s:20194  .debug_str:0000000000004011 .LASF396
C:\Users\stapi\AppData\Local\Temp\ccVMe8Sf.s:19068  .debug_str:0000000000001dbf .LASF397
C:\Users\stapi\AppData\Local\Temp\ccVMe8Sf.s:18082  .debug_str:00000000000000e0 .LASF398
C:\Users\stapi\AppData\Local\Temp\ccVMe8Sf.s:20094  .debug_str:0000000000003d2d .LASF399
C:\Users\stapi\AppData\Local\Temp\ccVMe8Sf.s:18440  .debug_str:0000000000000b96 .LASF400
C:\Users\stapi\AppData\Local\Temp\ccVMe8Sf.s:20046  .debug_str:0000000000003c02 .LASF401
C:\Users\stapi\AppData\Local\Temp\ccVMe8Sf.s:18482  .debug_str:0000000000000cf0 .LASF402
C:\Users\stapi\AppData\Local\Temp\ccVMe8Sf.s:19410  .debug_str:000000000000283a .LASF403
C:\Users\stapi\AppData\Local\Temp\ccVMe8Sf.s:18696  .debug_str:0000000000001322 .LASF404
C:\Users\stapi\AppData\Local\Temp\ccVMe8Sf.s:18510  .debug_str:0000000000000db8 .LASF405
C:\Users\stapi\AppData\Local\Temp\ccVMe8Sf.s:19020  .debug_str:0000000000001c70 .LASF406
C:\Users\stapi\AppData\Local\Temp\ccVMe8Sf.s:18334  .debug_str:0000000000000894 .LASF407
C:\Users\stapi\AppData\Local\Temp\ccVMe8Sf.s:20972  .debug_str:000000000000571c .LASF408
C:\Users\stapi\AppData\Local\Temp\ccVMe8Sf.s:18536  .debug_str:0000000000000e93 .LASF409
C:\Users\stapi\AppData\Local\Temp\ccVMe8Sf.s:18228  .debug_str:00000000000005b3 .LASF410
C:\Users\stapi\AppData\Local\Temp\ccVMe8Sf.s:21050  .debug_str:000000000000597e .LASF411
C:\Users\stapi\AppData\Local\Temp\ccVMe8Sf.s:20502  .debug_str:00000000000048f7 .LASF412
C:\Users\stapi\AppData\Local\Temp\ccVMe8Sf.s:18170  .debug_str:000000000000040b .LASF413
C:\Users\stapi\AppData\Local\Temp\ccVMe8Sf.s:19538  .debug_str:0000000000002bc0 .LASF414
C:\Users\stapi\AppData\Local\Temp\ccVMe8Sf.s:18348  .debug_str:0000000000000908 .LASF415
C:\Users\stapi\AppData\Local\Temp\ccVMe8Sf.s:19830  .debug_str:00000000000035a1 .LASF416
C:\Users\stapi\AppData\Local\Temp\ccVMe8Sf.s:20258  .debug_str:00000000000041c5 .LASF417
C:\Users\stapi\AppData\Local\Temp\ccVMe8Sf.s:18448  .debug_str:0000000000000be6 .LASF418
C:\Users\stapi\AppData\Local\Temp\ccVMe8Sf.s:18676  .debug_str:0000000000001288 .LASF419
C:\Users\stapi\AppData\Local\Temp\ccVMe8Sf.s:20590  .debug_str:0000000000004b56 .LASF420
C:\Users\stapi\AppData\Local\Temp\ccVMe8Sf.s:18924  .debug_str:00000000000019c9 .LASF421
C:\Users\stapi\AppData\Local\Temp\ccVMe8Sf.s:18270  .debug_str:00000000000006f6 .LASF422
C:\Users\stapi\AppData\Local\Temp\ccVMe8Sf.s:20128  .debug_str:0000000000003e45 .LASF423
C:\Users\stapi\AppData\Local\Temp\ccVMe8Sf.s:19334  .debug_str:00000000000025b9 .LASF424
C:\Users\stapi\AppData\Local\Temp\ccVMe8Sf.s:20644  .debug_str:0000000000004d10 .LASF425
C:\Users\stapi\AppData\Local\Temp\ccVMe8Sf.s:19300  .debug_str:00000000000024af .LASF426
C:\Users\stapi\AppData\Local\Temp\ccVMe8Sf.s:19316  .debug_str:0000000000002537 .LASF427
C:\Users\stapi\AppData\Local\Temp\ccVMe8Sf.s:19588  .debug_str:0000000000002d56 .LASF428
C:\Users\stapi\AppData\Local\Temp\ccVMe8Sf.s:20284  .debug_str:0000000000004259 .LASF429
C:\Users\stapi\AppData\Local\Temp\ccVMe8Sf.s:20530  .debug_str:00000000000049a7 .LASF430
C:\Users\stapi\AppData\Local\Temp\ccVMe8Sf.s:20620  .debug_str:0000000000004c6c .LASF431
C:\Users\stapi\AppData\Local\Temp\ccVMe8Sf.s:18520  .debug_str:0000000000000e07 .LASF432
C:\Users\stapi\AppData\Local\Temp\ccVMe8Sf.s:18970  .debug_str:0000000000001b18 .LASF433
C:\Users\stapi\AppData\Local\Temp\ccVMe8Sf.s:18812  .debug_str:00000000000016a7 .LASF434
C:\Users\stapi\AppData\Local\Temp\ccVMe8Sf.s:20924  .debug_str:00000000000055ab .LASF435
C:\Users\stapi\AppData\Local\Temp\ccVMe8Sf.s:18400  .debug_str:0000000000000a6e .LASF436
C:\Users\stapi\AppData\Local\Temp\ccVMe8Sf.s:19814  .debug_str:000000000000351f .LASF437
C:\Users\stapi\AppData\Local\Temp\ccVMe8Sf.s:19480  .debug_str:0000000000002a24 .LASF438
C:\Users\stapi\AppData\Local\Temp\ccVMe8Sf.s:18150  .debug_str:0000000000000378 .LASF439
C:\Users\stapi\AppData\Local\Temp\ccVMe8Sf.s:18762  .debug_str:0000000000001513 .LASF440
C:\Users\stapi\AppData\Local\Temp\ccVMe8Sf.s:20600  .debug_str:0000000000004bad .LASF441
C:\Users\stapi\AppData\Local\Temp\ccVMe8Sf.s:20614  .debug_str:0000000000004c34 .LASF442
C:\Users\stapi\AppData\Local\Temp\ccVMe8Sf.s:18718  .debug_str:00000000000013e2 .LASF443
C:\Users\stapi\AppData\Local\Temp\ccVMe8Sf.s:18054  .debug_str:0000000000000005 .LASF444
C:\Users\stapi\AppData\Local\Temp\ccVMe8Sf.s:19274  .debug_str:00000000000023c5 .LASF445
C:\Users\stapi\AppData\Local\Temp\ccVMe8Sf.s:18258  .debug_str:0000000000000683 .LASF446
C:\Users\stapi\AppData\Local\Temp\ccVMe8Sf.s:18966  .debug_str:0000000000001aef .LASF447
C:\Users\stapi\AppData\Local\Temp\ccVMe8Sf.s:19536  .debug_str:0000000000002bae .LASF448
C:\Users\stapi\AppData\Local\Temp\ccVMe8Sf.s:19362  .debug_str:00000000000026a1 .LASF449
C:\Users\stapi\AppData\Local\Temp\ccVMe8Sf.s:19092  .debug_str:0000000000001e5b .LASF450
C:\Users\stapi\AppData\Local\Temp\ccVMe8Sf.s:20334  .debug_str:00000000000043f6 .LASF451
C:\Users\stapi\AppData\Local\Temp\ccVMe8Sf.s:20998  .debug_str:00000000000057ef .LASF452
C:\Users\stapi\AppData\Local\Temp\ccVMe8Sf.s:19528  .debug_str:0000000000002b7b .LASF453
C:\Users\stapi\AppData\Local\Temp\ccVMe8Sf.s:19232  .debug_str:000000000000228f .LASF454
C:\Users\stapi\AppData\Local\Temp\ccVMe8Sf.s:20856  .debug_str:000000000000534a .LASF455
C:\Users\stapi\AppData\Local\Temp\ccVMe8Sf.s:20028  .debug_str:0000000000003b94 .LASF456
C:\Users\stapi\AppData\Local\Temp\ccVMe8Sf.s:19134  .debug_str:0000000000001f92 .LASF457
C:\Users\stapi\AppData\Local\Temp\ccVMe8Sf.s:19336  .debug_str:00000000000025c4 .LASF458
C:\Users\stapi\AppData\Local\Temp\ccVMe8Sf.s:19214  .debug_str:0000000000002200 .LASF459
C:\Users\stapi\AppData\Local\Temp\ccVMe8Sf.s:18522  .debug_str:0000000000000e0e .LASF460
C:\Users\stapi\AppData\Local\Temp\ccVMe8Sf.s:20658  .debug_str:0000000000004d68 .LASF461
C:\Users\stapi\AppData\Local\Temp\ccVMe8Sf.s:18290  .debug_str:0000000000000783 .LASF462
C:\Users\stapi\AppData\Local\Temp\ccVMe8Sf.s:20586  .debug_str:0000000000004b3f .LASF463
C:\Users\stapi\AppData\Local\Temp\ccVMe8Sf.s:18832  .debug_str:0000000000001727 .LASF464
C:\Users\stapi\AppData\Local\Temp\ccVMe8Sf.s:18534  .debug_str:0000000000000e76 .LASF465
C:\Users\stapi\AppData\Local\Temp\ccVMe8Sf.s:21004  .debug_str:0000000000005819 .LASF466
C:\Users\stapi\AppData\Local\Temp\ccVMe8Sf.s:18422  .debug_str:0000000000000b09 .LASF467
C:\Users\stapi\AppData\Local\Temp\ccVMe8Sf.s:18470  .debug_str:0000000000000c9f .LASF468
C:\Users\stapi\AppData\Local\Temp\ccVMe8Sf.s:18148  .debug_str:000000000000036e .LASF469
C:\Users\stapi\AppData\Local\Temp\ccVMe8Sf.s:20302  .debug_str:00000000000042dd .LASF470
C:\Users\stapi\AppData\Local\Temp\ccVMe8Sf.s:18730  .debug_str:0000000000001430 .LASF471
C:\Users\stapi\AppData\Local\Temp\ccVMe8Sf.s:20100  .debug_str:0000000000003d56 .LASF472
C:\Users\stapi\AppData\Local\Temp\ccVMe8Sf.s:20982  .debug_str:0000000000005765 .LASF473
C:\Users\stapi\AppData\Local\Temp\ccVMe8Sf.s:19688  .debug_str:0000000000003051 .LASF474
C:\Users\stapi\AppData\Local\Temp\ccVMe8Sf.s:18698  .debug_str:0000000000001337 .LASF475
C:\Users\stapi\AppData\Local\Temp\ccVMe8Sf.s:18282  .debug_str:0000000000000740 .LASF476
C:\Users\stapi\AppData\Local\Temp\ccVMe8Sf.s:18532  .debug_str:0000000000000e5c .LASF477
C:\Users\stapi\AppData\Local\Temp\ccVMe8Sf.s:19670  .debug_str:0000000000002fa5 .LASF478
C:\Users\stapi\AppData\Local\Temp\ccVMe8Sf.s:20216  .debug_str:0000000000004092 .LASF479
C:\Users\stapi\AppData\Local\Temp\ccVMe8Sf.s:21044  .debug_str:0000000000005940 .LASF480
C:\Users\stapi\AppData\Local\Temp\ccVMe8Sf.s:20170  .debug_str:0000000000003f68 .LASF481
C:\Users\stapi\AppData\Local\Temp\ccVMe8Sf.s:19668  .debug_str:0000000000002f96 .LASF482
C:\Users\stapi\AppData\Local\Temp\ccVMe8Sf.s:19704  .debug_str:00000000000030ca .LASF483
C:\Users\stapi\AppData\Local\Temp\ccVMe8Sf.s:20496  .debug_str:00000000000048ce .LASF484
C:\Users\stapi\AppData\Local\Temp\ccVMe8Sf.s:20446  .debug_str:0000000000004725 .LASF485
C:\Users\stapi\AppData\Local\Temp\ccVMe8Sf.s:20718  .debug_str:0000000000004f2f .LASF486
C:\Users\stapi\AppData\Local\Temp\ccVMe8Sf.s:19992  .debug_str:0000000000003aa0 .LASF487
C:\Users\stapi\AppData\Local\Temp\ccVMe8Sf.s:18732  .debug_str:0000000000001444 .LASF488
C:\Users\stapi\AppData\Local\Temp\ccVMe8Sf.s:18774  .debug_str:0000000000001587 .LASF489
C:\Users\stapi\AppData\Local\Temp\ccVMe8Sf.s:19486  .debug_str:0000000000002a50 .LASF490
C:\Users\stapi\AppData\Local\Temp\ccVMe8Sf.s:20796  .debug_str:000000000000517a .LASF491
C:\Users\stapi\AppData\Local\Temp\ccVMe8Sf.s:19630  .debug_str:0000000000002e86 .LASF492
C:\Users\stapi\AppData\Local\Temp\ccVMe8Sf.s:20980  .debug_str:000000000000575b .LASF493
C:\Users\stapi\AppData\Local\Temp\ccVMe8Sf.s:18974  .debug_str:0000000000001b3b .LASF494
C:\Users\stapi\AppData\Local\Temp\ccVMe8Sf.s:21016  .debug_str:0000000000005875 .LASF495
C:\Users\stapi\AppData\Local\Temp\ccVMe8Sf.s:19936  .debug_str:00000000000038ee .LASF496
C:\Users\stapi\AppData\Local\Temp\ccVMe8Sf.s:20874  .debug_str:00000000000053cd .LASF497
C:\Users\stapi\AppData\Local\Temp\ccVMe8Sf.s:18230  .debug_str:00000000000005c6 .LASF498
C:\Users\stapi\AppData\Local\Temp\ccVMe8Sf.s:18474  .debug_str:0000000000000cbe .LASF499
C:\Users\stapi\AppData\Local\Temp\ccVMe8Sf.s:19320  .debug_str:000000000000254b .LASF500
C:\Users\stapi\AppData\Local\Temp\ccVMe8Sf.s:20308  .debug_str:0000000000004318 .LASF501
C:\Users\stapi\AppData\Local\Temp\ccVMe8Sf.s:18644  .debug_str:00000000000011a2 .LASF502
C:\Users\stapi\AppData\Local\Temp\ccVMe8Sf.s:20466  .debug_str:00000000000047bd .LASF503
C:\Users\stapi\AppData\Local\Temp\ccVMe8Sf.s:18550  .debug_str:0000000000000ee0 .LASF504
C:\Users\stapi\AppData\Local\Temp\ccVMe8Sf.s:20968  .debug_str:00000000000056f9 .LASF505
C:\Users\stapi\AppData\Local\Temp\ccVMe8Sf.s:20218  .debug_str:000000000000409f .LASF506
C:\Users\stapi\AppData\Local\Temp\ccVMe8Sf.s:20300  .debug_str:00000000000042cb .LASF507
C:\Users\stapi\AppData\Local\Temp\ccVMe8Sf.s:20032  .debug_str:0000000000003ba6 .LASF508
C:\Users\stapi\AppData\Local\Temp\ccVMe8Sf.s:21038  .debug_str:0000000000005915 .LASF509
C:\Users\stapi\AppData\Local\Temp\ccVMe8Sf.s:18604  .debug_str:000000000000108a .LASF510
C:\Users\stapi\AppData\Local\Temp\ccVMe8Sf.s:20476  .debug_str:0000000000004812 .LASF511
C:\Users\stapi\AppData\Local\Temp\ccVMe8Sf.s:21022  .debug_str:00000000000058a8 .LASF512
C:\Users\stapi\AppData\Local\Temp\ccVMe8Sf.s:20220  .debug_str:00000000000040ad .LASF513
C:\Users\stapi\AppData\Local\Temp\ccVMe8Sf.s:20832  .debug_str:0000000000005290 .LASF514
C:\Users\stapi\AppData\Local\Temp\ccVMe8Sf.s:18746  .debug_str:000000000000149c .LASF515
C:\Users\stapi\AppData\Local\Temp\ccVMe8Sf.s:20402  .debug_str:00000000000045bf .LASF516
C:\Users\stapi\AppData\Local\Temp\ccVMe8Sf.s:20710  .debug_str:0000000000004efa .LASF517
C:\Users\stapi\AppData\Local\Temp\ccVMe8Sf.s:20906  .debug_str:0000000000005542 .LASF518
C:\Users\stapi\AppData\Local\Temp\ccVMe8Sf.s:20606  .debug_str:0000000000004bfb .LASF519
C:\Users\stapi\AppData\Local\Temp\ccVMe8Sf.s:19402  .debug_str:00000000000027f8 .LASF520
C:\Users\stapi\AppData\Local\Temp\ccVMe8Sf.s:19876  .debug_str:0000000000003715 .LASF521
C:\Users\stapi\AppData\Local\Temp\ccVMe8Sf.s:20662  .debug_str:0000000000004d82 .LASF522
C:\Users\stapi\AppData\Local\Temp\ccVMe8Sf.s:18090  .debug_str:000000000000011e .LASF523
C:\Users\stapi\AppData\Local\Temp\ccVMe8Sf.s:20608  .debug_str:0000000000004c05 .LASF524
C:\Users\stapi\AppData\Local\Temp\ccVMe8Sf.s:20022  .debug_str:0000000000003b5b .LASF525
C:\Users\stapi\AppData\Local\Temp\ccVMe8Sf.s:19496  .debug_str:0000000000002aa5 .LASF526
C:\Users\stapi\AppData\Local\Temp\ccVMe8Sf.s:21064  .debug_str:00000000000059d7 .LASF527
C:\Users\stapi\AppData\Local\Temp\ccVMe8Sf.s:18418  .debug_str:0000000000000af6 .LASF528
C:\Users\stapi\AppData\Local\Temp\ccVMe8Sf.s:20016  .debug_str:0000000000003b39 .LASF529
C:\Users\stapi\AppData\Local\Temp\ccVMe8Sf.s:18538  .debug_str:0000000000000ea7 .LASF530
C:\Users\stapi\AppData\Local\Temp\ccVMe8Sf.s:18144  .debug_str:0000000000000355 .LASF531
C:\Users\stapi\AppData\Local\Temp\ccVMe8Sf.s:19666  .debug_str:0000000000002f80 .LASF532
C:\Users\stapi\AppData\Local\Temp\ccVMe8Sf.s:20342  .debug_str:000000000000441e .LASF533
C:\Users\stapi\AppData\Local\Temp\ccVMe8Sf.s:20900  .debug_str:000000000000550b .LASF534
C:\Users\stapi\AppData\Local\Temp\ccVMe8Sf.s:20168  .debug_str:0000000000003f57 .LASF535
C:\Users\stapi\AppData\Local\Temp\ccVMe8Sf.s:19338  .debug_str:00000000000025ce .LASF536
C:\Users\stapi\AppData\Local\Temp\ccVMe8Sf.s:21062  .debug_str:00000000000059d2 .LASF537
C:\Users\stapi\AppData\Local\Temp\ccVMe8Sf.s:19416  .debug_str:0000000000002868 .LASF538
C:\Users\stapi\AppData\Local\Temp\ccVMe8Sf.s:18650  .debug_str:00000000000011c5 .LASF539
C:\Users\stapi\AppData\Local\Temp\ccVMe8Sf.s:18662  .debug_str:0000000000001216 .LASF540
C:\Users\stapi\AppData\Local\Temp\ccVMe8Sf.s:19586  .debug_str:0000000000002d43 .LASF541
C:\Users\stapi\AppData\Local\Temp\ccVMe8Sf.s:18658  .debug_str:00000000000011f8 .LASF542
C:\Users\stapi\AppData\Local\Temp\ccVMe8Sf.s:19236  .debug_str:00000000000022b9 .LASF543
C:\Users\stapi\AppData\Local\Temp\ccVMe8Sf.s:18760  .debug_str:00000000000014fc .LASF544
C:\Users\stapi\AppData\Local\Temp\ccVMe8Sf.s:19654  .debug_str:0000000000002f34 .LASF545
C:\Users\stapi\AppData\Local\Temp\ccVMe8Sf.s:20176  .debug_str:0000000000003f8f .LASF546
C:\Users\stapi\AppData\Local\Temp\ccVMe8Sf.s:19000  .debug_str:0000000000001bf0 .LASF547
C:\Users\stapi\AppData\Local\Temp\ccVMe8Sf.s:18428  .debug_str:0000000000000b32 .LASF548
C:\Users\stapi\AppData\Local\Temp\ccVMe8Sf.s:19886  .debug_str:0000000000003770 .LASF549
C:\Users\stapi\AppData\Local\Temp\ccVMe8Sf.s:18976  .debug_str:0000000000001b4c .LASF550
C:\Users\stapi\AppData\Local\Temp\ccVMe8Sf.s:20834  .debug_str:00000000000052a9 .LASF551
C:\Users\stapi\AppData\Local\Temp\ccVMe8Sf.s:19500  .debug_str:0000000000002ac9 .LASF552
C:\Users\stapi\AppData\Local\Temp\ccVMe8Sf.s:19270  .debug_str:00000000000023aa .LASF553
C:\Users\stapi\AppData\Local\Temp\ccVMe8Sf.s:20484  .debug_str:000000000000486a .LASF554
C:\Users\stapi\AppData\Local\Temp\ccVMe8Sf.s:19064  .debug_str:0000000000001d9d .LASF555
C:\Users\stapi\AppData\Local\Temp\ccVMe8Sf.s:19308  .debug_str:00000000000024e0 .LASF556
C:\Users\stapi\AppData\Local\Temp\ccVMe8Sf.s:19112  .debug_str:0000000000001efa .LASF557
C:\Users\stapi\AppData\Local\Temp\ccVMe8Sf.s:20830  .debug_str:0000000000005285 .LASF558
C:\Users\stapi\AppData\Local\Temp\ccVMe8Sf.s:19272  .debug_str:00000000000023b5 .LASF559
C:\Users\stapi\AppData\Local\Temp\ccVMe8Sf.s:20040  .debug_str:0000000000003bd9 .LASF560
C:\Users\stapi\AppData\Local\Temp\ccVMe8Sf.s:20872  .debug_str:00000000000053bb .LASF561
C:\Users\stapi\AppData\Local\Temp\ccVMe8Sf.s:19050  .debug_str:0000000000001d36 .LASF562
C:\Users\stapi\AppData\Local\Temp\ccVMe8Sf.s:20790  .debug_str:0000000000005149 .LASF563
C:\Users\stapi\AppData\Local\Temp\ccVMe8Sf.s:19952  .debug_str:000000000000395e .LASF564
C:\Users\stapi\AppData\Local\Temp\ccVMe8Sf.s:20640  .debug_str:0000000000004cf2 .LASF565
C:\Users\stapi\AppData\Local\Temp\ccVMe8Sf.s:18804  .debug_str:0000000000001665 .LASF566
C:\Users\stapi\AppData\Local\Temp\ccVMe8Sf.s:19312  .debug_str:0000000000002509 .LASF567
C:\Users\stapi\AppData\Local\Temp\ccVMe8Sf.s:20398  .debug_str:000000000000459f .LASF568
C:\Users\stapi\AppData\Local\Temp\ccVMe8Sf.s:18926  .debug_str:00000000000019de .LASF569
C:\Users\stapi\AppData\Local\Temp\ccVMe8Sf.s:19128  .debug_str:0000000000001f6a .LASF570
C:\Users\stapi\AppData\Local\Temp\ccVMe8Sf.s:18380  .debug_str:00000000000009d9 .LASF571
C:\Users\stapi\AppData\Local\Temp\ccVMe8Sf.s:20376  .debug_str:0000000000004520 .LASF572
C:\Users\stapi\AppData\Local\Temp\ccVMe8Sf.s:20054  .debug_str:0000000000003c2d .LASF573
C:\Users\stapi\AppData\Local\Temp\ccVMe8Sf.s:20256  .debug_str:00000000000041b8 .LASF574
C:\Users\stapi\AppData\Local\Temp\ccVMe8Sf.s:19698  .debug_str:0000000000003099 .LASF575
C:\Users\stapi\AppData\Local\Temp\ccVMe8Sf.s:19740  .debug_str:00000000000031cd .LASF576
C:\Users\stapi\AppData\Local\Temp\ccVMe8Sf.s:19738  .debug_str:00000000000031c8 .LASF577
C:\Users\stapi\AppData\Local\Temp\ccVMe8Sf.s:20332  .debug_str:00000000000043ec .LASF578
C:\Users\stapi\AppData\Local\Temp\ccVMe8Sf.s:20560  .debug_str:0000000000004a82 .LASF579
C:\Users\stapi\AppData\Local\Temp\ccVMe8Sf.s:20038  .debug_str:0000000000003bcc .LASF580
C:\Users\stapi\AppData\Local\Temp\ccVMe8Sf.s:19346  .debug_str:0000000000002607 .LASF581
C:\Users\stapi\AppData\Local\Temp\ccVMe8Sf.s:18354  .debug_str:0000000000000933 .LASF582
C:\Users\stapi\AppData\Local\Temp\ccVMe8Sf.s:19390  .debug_str:0000000000002798 .LASF583
C:\Users\stapi\AppData\Local\Temp\ccVMe8Sf.s:18634  .debug_str:0000000000001157 .LASF584
C:\Users\stapi\AppData\Local\Temp\ccVMe8Sf.s:20116  .debug_str:0000000000003de1 .LASF585
C:\Users\stapi\AppData\Local\Temp\ccVMe8Sf.s:19984  .debug_str:0000000000003a67 .LASF586
C:\Users\stapi\AppData\Local\Temp\ccVMe8Sf.s:19692  .debug_str:0000000000003069 .LASF587
C:\Users\stapi\AppData\Local\Temp\ccVMe8Sf.s:18690  .debug_str:00000000000012fa .LASF588
C:\Users\stapi\AppData\Local\Temp\ccVMe8Sf.s:18506  .debug_str:0000000000000d9a .LASF589
C:\Users\stapi\AppData\Local\Temp\ccVMe8Sf.s:19054  .debug_str:0000000000001d51 .LASF590
C:\Users\stapi\AppData\Local\Temp\ccVMe8Sf.s:19760  .debug_str:0000000000003356 .LASF591
C:\Users\stapi\AppData\Local\Temp\ccVMe8Sf.s:20880  .debug_str:00000000000053e9 .LASF592
C:\Users\stapi\AppData\Local\Temp\ccVMe8Sf.s:20716  .debug_str:0000000000004f1c .LASF593
C:\Users\stapi\AppData\Local\Temp\ccVMe8Sf.s:18366  .debug_str:0000000000000978 .LASF594
C:\Users\stapi\AppData\Local\Temp\ccVMe8Sf.s:20384  .debug_str:000000000000454f .LASF595
C:\Users\stapi\AppData\Local\Temp\ccVMe8Sf.s:19786  .debug_str:000000000000342d .LASF596
C:\Users\stapi\AppData\Local\Temp\ccVMe8Sf.s:19202  .debug_str:00000000000021a9 .LASF597
C:\Users\stapi\AppData\Local\Temp\ccVMe8Sf.s:18312  .debug_str:0000000000000800 .LASF598
C:\Users\stapi\AppData\Local\Temp\ccVMe8Sf.s:20680  .debug_str:0000000000004e1e .LASF599
C:\Users\stapi\AppData\Local\Temp\ccVMe8Sf.s:19168  .debug_str:00000000000020b2 .LASF600
C:\Users\stapi\AppData\Local\Temp\ccVMe8Sf.s:20310  .debug_str:0000000000004335 .LASF601
C:\Users\stapi\AppData\Local\Temp\ccVMe8Sf.s:20414  .debug_str:0000000000004635 .LASF602
C:\Users\stapi\AppData\Local\Temp\ccVMe8Sf.s:19476  .debug_str:0000000000002a0a .LASF603
C:\Users\stapi\AppData\Local\Temp\ccVMe8Sf.s:20702  .debug_str:0000000000004eac .LASF604
C:\Users\stapi\AppData\Local\Temp\ccVMe8Sf.s:20008  .debug_str:0000000000003b05 .LASF605
C:\Users\stapi\AppData\Local\Temp\ccVMe8Sf.s:18548  .debug_str:0000000000000ecd .LASF606
C:\Users\stapi\AppData\Local\Temp\ccVMe8Sf.s:20186  .debug_str:0000000000003fe4 .LASF607
C:\Users\stapi\AppData\Local\Temp\ccVMe8Sf.s:20274  .debug_str:0000000000004215 .LASF608
C:\Users\stapi\AppData\Local\Temp\ccVMe8Sf.s:18060  .debug_str:000000000000004e .LASF609
C:\Users\stapi\AppData\Local\Temp\ccVMe8Sf.s:19372  .debug_str:0000000000002703 .LASF610
C:\Users\stapi\AppData\Local\Temp\ccVMe8Sf.s:19386  .debug_str:0000000000002774 .LASF611
C:\Users\stapi\AppData\Local\Temp\ccVMe8Sf.s:19836  .debug_str:00000000000035c4 .LASF612
C:\Users\stapi\AppData\Local\Temp\ccVMe8Sf.s:18202  .debug_str:00000000000004f3 .LASF613
C:\Users\stapi\AppData\Local\Temp\ccVMe8Sf.s:18196  .debug_str:00000000000004be .LASF614
C:\Users\stapi\AppData\Local\Temp\ccVMe8Sf.s:18742  .debug_str:000000000000147d .LASF615
C:\Users\stapi\AppData\Local\Temp\ccVMe8Sf.s:18452  .debug_str:0000000000000bf7 .LASF616
C:\Users\stapi\AppData\Local\Temp\ccVMe8Sf.s:20764  .debug_str:00000000000050a3 .LASF617
C:\Users\stapi\AppData\Local\Temp\ccVMe8Sf.s:19750  .debug_str:000000000000321f .LASF618
C:\Users\stapi\AppData\Local\Temp\ccVMe8Sf.s:20532  .debug_str:00000000000049b3 .LASF619
C:\Users\stapi\AppData\Local\Temp\ccVMe8Sf.s:19090  .debug_str:0000000000001e44 .LASF620
C:\Users\stapi\AppData\Local\Temp\ccVMe8Sf.s:18162  .debug_str:00000000000003da .LASF621
C:\Users\stapi\AppData\Local\Temp\ccVMe8Sf.s:18666  .debug_str:0000000000001231 .LASF622
C:\Users\stapi\AppData\Local\Temp\ccVMe8Sf.s:19434  .debug_str:00000000000028f3 .LASF623
C:\Users\stapi\AppData\Local\Temp\ccVMe8Sf.s:18948  .debug_str:0000000000001a75 .LASF624
C:\Users\stapi\AppData\Local\Temp\ccVMe8Sf.s:18460  .debug_str:0000000000000c41 .LASF625
C:\Users\stapi\AppData\Local\Temp\ccVMe8Sf.s:19548  .debug_str:0000000000002c0c .LASF626
C:\Users\stapi\AppData\Local\Temp\ccVMe8Sf.s:20570  .debug_str:0000000000004ad7 .LASF627
C:\Users\stapi\AppData\Local\Temp\ccVMe8Sf.s:19358  .debug_str:000000000000266c .LASF628
C:\Users\stapi\AppData\Local\Temp\ccVMe8Sf.s:20536  .debug_str:00000000000049d9 .LASF629
C:\Users\stapi\AppData\Local\Temp\ccVMe8Sf.s:18998  .debug_str:0000000000001bd9 .LASF630
C:\Users\stapi\AppData\Local\Temp\ccVMe8Sf.s:19348  .debug_str:0000000000002617 .LASF631
C:\Users\stapi\AppData\Local\Temp\ccVMe8Sf.s:18872  .debug_str:0000000000001836 .LASF632
C:\Users\stapi\AppData\Local\Temp\ccVMe8Sf.s:19296  .debug_str:0000000000002489 .LASF633
C:\Users\stapi\AppData\Local\Temp\ccVMe8Sf.s:19292  .debug_str:0000000000002464 .LASF634
C:\Users\stapi\AppData\Local\Temp\ccVMe8Sf.s:20706  .debug_str:0000000000004ed8 .LASF635
C:\Users\stapi\AppData\Local\Temp\ccVMe8Sf.s:20918  .debug_str:000000000000558b .LASF636
C:\Users\stapi\AppData\Local\Temp\ccVMe8Sf.s:20296  .debug_str:00000000000042b5 .LASF637
C:\Users\stapi\AppData\Local\Temp\ccVMe8Sf.s:18540  .debug_str:0000000000000ead .LASF638
C:\Users\stapi\AppData\Local\Temp\ccVMe8Sf.s:19728  .debug_str:0000000000003184 .LASF639
C:\Users\stapi\AppData\Local\Temp\ccVMe8Sf.s:20120  .debug_str:0000000000003e09 .LASF640
C:\Users\stapi\AppData\Local\Temp\ccVMe8Sf.s:19318  .debug_str:0000000000002542 .LASF641
C:\Users\stapi\AppData\Local\Temp\ccVMe8Sf.s:18126  .debug_str:0000000000000242 .LASF642
C:\Users\stapi\AppData\Local\Temp\ccVMe8Sf.s:20916  .debug_str:000000000000557f .LASF643
C:\Users\stapi\AppData\Local\Temp\ccVMe8Sf.s:19530  .debug_str:0000000000002b84 .LASF644
C:\Users\stapi\AppData\Local\Temp\ccVMe8Sf.s:18338  .debug_str:00000000000008bd .LASF645
C:\Users\stapi\AppData\Local\Temp\ccVMe8Sf.s:20298  .debug_str:00000000000042bd .LASF646
C:\Users\stapi\AppData\Local\Temp\ccVMe8Sf.s:20540  .debug_str:00000000000049f8 .LASF647
C:\Users\stapi\AppData\Local\Temp\ccVMe8Sf.s:20596  .debug_str:0000000000004b92 .LASF648
C:\Users\stapi\AppData\Local\Temp\ccVMe8Sf.s:18346  .debug_str:00000000000008fb .LASF649
C:\Users\stapi\AppData\Local\Temp\ccVMe8Sf.s:20428  .debug_str:00000000000046b4 .LASF650
C:\Users\stapi\AppData\Local\Temp\ccVMe8Sf.s:19278  .debug_str:00000000000023e8 .LASF651
C:\Users\stapi\AppData\Local\Temp\ccVMe8Sf.s:18910  .debug_str:000000000000195c .LASF652
C:\Users\stapi\AppData\Local\Temp\ccVMe8Sf.s:19038  .debug_str:0000000000001cf0 .LASF653
C:\Users\stapi\AppData\Local\Temp\ccVMe8Sf.s:18552  .debug_str:0000000000000ef4 .LASF654
C:\Users\stapi\AppData\Local\Temp\ccVMe8Sf.s:18068  .debug_str:000000000000008a .LASF655
C:\Users\stapi\AppData\Local\Temp\ccVMe8Sf.s:20374  .debug_str:0000000000004516 .LASF656
C:\Users\stapi\AppData\Local\Temp\ccVMe8Sf.s:21078  .debug_str:0000000000005a60 .LASF657
C:\Users\stapi\AppData\Local\Temp\ccVMe8Sf.s:20766  .debug_str:00000000000050b0 .LASF658
C:\Users\stapi\AppData\Local\Temp\ccVMe8Sf.s:20326  .debug_str:00000000000043ba .LASF659
C:\Users\stapi\AppData\Local\Temp\ccVMe8Sf.s:20748  .debug_str:0000000000004ffe .LASF660
C:\Users\stapi\AppData\Local\Temp\ccVMe8Sf.s:19828  .debug_str:000000000000358f .LASF661
C:\Users\stapi\AppData\Local\Temp\ccVMe8Sf.s:19120  .debug_str:0000000000001f35 .LASF662
C:\Users\stapi\AppData\Local\Temp\ccVMe8Sf.s:20106  .debug_str:0000000000003d8c .LASF663
C:\Users\stapi\AppData\Local\Temp\ccVMe8Sf.s:20212  .debug_str:000000000000407c .LASF664
C:\Users\stapi\AppData\Local\Temp\ccVMe8Sf.s:20646  .debug_str:0000000000004d19 .LASF665
C:\Users\stapi\AppData\Local\Temp\ccVMe8Sf.s:18222  .debug_str:0000000000000584 .LASF666
C:\Users\stapi\AppData\Local\Temp\ccVMe8Sf.s:19858  .debug_str:0000000000003691 .LASF667
C:\Users\stapi\AppData\Local\Temp\ccVMe8Sf.s:20914  .debug_str:0000000000005576 .LASF668
C:\Users\stapi\AppData\Local\Temp\ccVMe8Sf.s:18822  .debug_str:00000000000016e7 .LASF669
C:\Users\stapi\AppData\Local\Temp\ccVMe8Sf.s:18838  .debug_str:0000000000001760 .LASF670
C:\Users\stapi\AppData\Local\Temp\ccVMe8Sf.s:19006  .debug_str:0000000000001c17 .LASF671
C:\Users\stapi\AppData\Local\Temp\ccVMe8Sf.s:20648  .debug_str:0000000000004d24 .LASF672
C:\Users\stapi\AppData\Local\Temp\ccVMe8Sf.s:18836  .debug_str:000000000000174e .LASF673
C:\Users\stapi\AppData\Local\Temp\ccVMe8Sf.s:18120  .debug_str:0000000000000214 .LASF674
C:\Users\stapi\AppData\Local\Temp\ccVMe8Sf.s:18526  .debug_str:0000000000000e37 .LASF675
C:\Users\stapi\AppData\Local\Temp\ccVMe8Sf.s:18464  .debug_str:0000000000000c5c .LASF676
C:\Users\stapi\AppData\Local\Temp\ccVMe8Sf.s:19126  .debug_str:0000000000001f60 .LASF677
C:\Users\stapi\AppData\Local\Temp\ccVMe8Sf.s:19792  .debug_str:000000000000346c .LASF678
C:\Users\stapi\AppData\Local\Temp\ccVMe8Sf.s:20554  .debug_str:0000000000004a59 .LASF679
C:\Users\stapi\AppData\Local\Temp\ccVMe8Sf.s:19174  .debug_str:00000000000020dc .LASF680
C:\Users\stapi\AppData\Local\Temp\ccVMe8Sf.s:19882  .debug_str:000000000000374a .LASF681
C:\Users\stapi\AppData\Local\Temp\ccVMe8Sf.s:20350  .debug_str:0000000000004453 .LASF682
C:\Users\stapi\AppData\Local\Temp\ccVMe8Sf.s:18764  .debug_str:0000000000001536 .LASF683
C:\Users\stapi\AppData\Local\Temp\ccVMe8Sf.s:20842  .debug_str:00000000000052df .LASF684
C:\Users\stapi\AppData\Local\Temp\ccVMe8Sf.s:20382  .debug_str:0000000000004549 .LASF685
C:\Users\stapi\AppData\Local\Temp\ccVMe8Sf.s:18598  .debug_str:0000000000001056 .LASF686
C:\Users\stapi\AppData\Local\Temp\ccVMe8Sf.s:19796  .debug_str:000000000000347e .LASF687
C:\Users\stapi\AppData\Local\Temp\ccVMe8Sf.s:18288  .debug_str:0000000000000776 .LASF688
C:\Users\stapi\AppData\Local\Temp\ccVMe8Sf.s:18386  .debug_str:00000000000009f6 .LASF689
C:\Users\stapi\AppData\Local\Temp\ccVMe8Sf.s:19650  .debug_str:0000000000002f1c .LASF690
C:\Users\stapi\AppData\Local\Temp\ccVMe8Sf.s:18442  .debug_str:0000000000000ba0 .LASF691
C:\Users\stapi\AppData\Local\Temp\ccVMe8Sf.s:19572  .debug_str:0000000000002cc5 .LASF692
C:\Users\stapi\AppData\Local\Temp\ccVMe8Sf.s:20024  .debug_str:0000000000003b6d .LASF693
C:\Users\stapi\AppData\Local\Temp\ccVMe8Sf.s:20860  .debug_str:0000000000005364 .LASF694
C:\Users\stapi\AppData\Local\Temp\ccVMe8Sf.s:18642  .debug_str:0000000000001188 .LASF695
C:\Users\stapi\AppData\Local\Temp\ccVMe8Sf.s:18332  .debug_str:0000000000000881 .LASF696
C:\Users\stapi\AppData\Local\Temp\ccVMe8Sf.s:20050  .debug_str:0000000000003c10 .LASF697
C:\Users\stapi\AppData\Local\Temp\ccVMe8Sf.s:19412  .debug_str:0000000000002846 .LASF698
C:\Users\stapi\AppData\Local\Temp\ccVMe8Sf.s:18322  .debug_str:0000000000000835 .LASF699
C:\Users\stapi\AppData\Local\Temp\ccVMe8Sf.s:19860  .debug_str:00000000000036a8 .LASF700
C:\Users\stapi\AppData\Local\Temp\ccVMe8Sf.s:18798  .debug_str:0000000000001632 .LASF701
C:\Users\stapi\AppData\Local\Temp\ccVMe8Sf.s:18706  .debug_str:000000000000138d .LASF702
C:\Users\stapi\AppData\Local\Temp\ccVMe8Sf.s:19840  .debug_str:00000000000035f5 .LASF703
C:\Users\stapi\AppData\Local\Temp\ccVMe8Sf.s:18360  .debug_str:000000000000095f .LASF704
C:\Users\stapi\AppData\Local\Temp\ccVMe8Sf.s:20818  .debug_str:0000000000005241 .LASF705
C:\Users\stapi\AppData\Local\Temp\ccVMe8Sf.s:20836  .debug_str:00000000000052b8 .LASF706
C:\Users\stapi\AppData\Local\Temp\ccVMe8Sf.s:18716  .debug_str:00000000000013da .LASF707
C:\Users\stapi\AppData\Local\Temp\ccVMe8Sf.s:18316  .debug_str:0000000000000819 .LASF708
C:\Users\stapi\AppData\Local\Temp\ccVMe8Sf.s:19978  .debug_str:0000000000003a4c .LASF709
C:\Users\stapi\AppData\Local\Temp\ccVMe8Sf.s:20206  .debug_str:0000000000004064 .LASF710
C:\Users\stapi\AppData\Local\Temp\ccVMe8Sf.s:18608  .debug_str:00000000000010a8 .LASF711
C:\Users\stapi\AppData\Local\Temp\ccVMe8Sf.s:19110  .debug_str:0000000000001eeb .LASF712
C:\Users\stapi\AppData\Local\Temp\ccVMe8Sf.s:19826  .debug_str:0000000000003585 .LASF713
C:\Users\stapi\AppData\Local\Temp\ccVMe8Sf.s:18110  .debug_str:00000000000001c4 .LASF714
C:\Users\stapi\AppData\Local\Temp\ccVMe8Sf.s:19124  .debug_str:0000000000001f53 .LASF715
C:\Users\stapi\AppData\Local\Temp\ccVMe8Sf.s:18394  .debug_str:0000000000000a2a .LASF716
C:\Users\stapi\AppData\Local\Temp\ccVMe8Sf.s:19884  .debug_str:0000000000003767 .LASF717
C:\Users\stapi\AppData\Local\Temp\ccVMe8Sf.s:18502  .debug_str:0000000000000d87 .LASF718
C:\Users\stapi\AppData\Local\Temp\ccVMe8Sf.s:19220  .debug_str:0000000000002229 .LASF719
C:\Users\stapi\AppData\Local\Temp\ccVMe8Sf.s:19404  .debug_str:000000000000280e .LASF720
C:\Users\stapi\AppData\Local\Temp\ccVMe8Sf.s:18350  .debug_str:000000000000091c .LASF721
C:\Users\stapi\AppData\Local\Temp\ccVMe8Sf.s:20694  .debug_str:0000000000004e68 .LASF722
C:\Users\stapi\AppData\Local\Temp\ccVMe8Sf.s:19374  .debug_str:000000000000270c .LASF723
C:\Users\stapi\AppData\Local\Temp\ccVMe8Sf.s:20104  .debug_str:0000000000003d78 .LASF724
C:\Users\stapi\AppData\Local\Temp\ccVMe8Sf.s:18922  .debug_str:00000000000019bf .LASF725
C:\Users\stapi\AppData\Local\Temp\ccVMe8Sf.s:20182  .debug_str:0000000000003fc1 .LASF726
C:\Users\stapi\AppData\Local\Temp\ccVMe8Sf.s:20156  .debug_str:0000000000003efd .LASF727
C:\Users\stapi\AppData\Local\Temp\ccVMe8Sf.s:18392  .debug_str:0000000000000a1e .LASF728
C:\Users\stapi\AppData\Local\Temp\ccVMe8Sf.s:19328  .debug_str:0000000000002599 .LASF729
C:\Users\stapi\AppData\Local\Temp\ccVMe8Sf.s:18430  .debug_str:0000000000000b3b .LASF730
C:\Users\stapi\AppData\Local\Temp\ccVMe8Sf.s:20838  .debug_str:00000000000052c1 .LASF731
C:\Users\stapi\AppData\Local\Temp\ccVMe8Sf.s:18800  .debug_str:000000000000164c .LASF732
C:\Users\stapi\AppData\Local\Temp\ccVMe8Sf.s:19446  .debug_str:0000000000002937 .LASF733
C:\Users\stapi\AppData\Local\Temp\ccVMe8Sf.s:19396  .debug_str:00000000000027d3 .LASF734
C:\Users\stapi\AppData\Local\Temp\ccVMe8Sf.s:20368  .debug_str:00000000000044ea .LASF735
C:\Users\stapi\AppData\Local\Temp\ccVMe8Sf.s:19488  .debug_str:0000000000002a63 .LASF736
C:\Users\stapi\AppData\Local\Temp\ccVMe8Sf.s:18084  .debug_str:00000000000000f3 .LASF737
C:\Users\stapi\AppData\Local\Temp\ccVMe8Sf.s:20278  .debug_str:0000000000004240 .LASF738
C:\Users\stapi\AppData\Local\Temp\ccVMe8Sf.s:20522  .debug_str:0000000000004987 .LASF739
C:\Users\stapi\AppData\Local\Temp\ccVMe8Sf.s:18318  .debug_str:000000000000081e .LASF740
C:\Users\stapi\AppData\Local\Temp\ccVMe8Sf.s:18994  .debug_str:0000000000001bbf .LASF741
C:\Users\stapi\AppData\Local\Temp\ccVMe8Sf.s:20348  .debug_str:0000000000004448 .LASF742
C:\Users\stapi\AppData\Local\Temp\ccVMe8Sf.s:20876  .debug_str:00000000000053d7 .LASF743
C:\Users\stapi\AppData\Local\Temp\ccVMe8Sf.s:20158  .debug_str:0000000000003f0f .LASF744
C:\Users\stapi\AppData\Local\Temp\ccVMe8Sf.s:18678  .debug_str:0000000000001294 .LASF745
C:\Users\stapi\AppData\Local\Temp\ccVMe8Sf.s:20444  .debug_str:0000000000004715 .LASF746
C:\Users\stapi\AppData\Local\Temp\ccVMe8Sf.s:21032  .debug_str:00000000000058e7 .LASF747
C:\Users\stapi\AppData\Local\Temp\ccVMe8Sf.s:20324  .debug_str:00000000000043af .LASF748
C:\Users\stapi\AppData\Local\Temp\ccVMe8Sf.s:18606  .debug_str:000000000000109b .LASF749
C:\Users\stapi\AppData\Local\Temp\ccVMe8Sf.s:19464  .debug_str:00000000000029c3 .LASF750
C:\Users\stapi\AppData\Local\Temp\ccVMe8Sf.s:19498  .debug_str:0000000000002abb .LASF751
C:\Users\stapi\AppData\Local\Temp\ccVMe8Sf.s:20386  .debug_str:000000000000455c .LASF752
C:\Users\stapi\AppData\Local\Temp\ccVMe8Sf.s:20992  .debug_str:00000000000057b4 .LASF753
C:\Users\stapi\AppData\Local\Temp\ccVMe8Sf.s:19550  .debug_str:0000000000002c1a .LASF754
C:\Users\stapi\AppData\Local\Temp\ccVMe8Sf.s:19406  .debug_str:0000000000002819 .LASF755
C:\Users\stapi\AppData\Local\Temp\ccVMe8Sf.s:19354  .debug_str:000000000000264e .LASF756
C:\Users\stapi\AppData\Local\Temp\ccVMe8Sf.s:18884  .debug_str:0000000000001898 .LASF757
C:\Users\stapi\AppData\Local\Temp\ccVMe8Sf.s:18590  .debug_str:0000000000001014 .LASF758
C:\Users\stapi\AppData\Local\Temp\ccVMe8Sf.s:18808  .debug_str:000000000000168d .LASF759
C:\Users\stapi\AppData\Local\Temp\ccVMe8Sf.s:19602  .debug_str:0000000000002dbf .LASF760
C:\Users\stapi\AppData\Local\Temp\ccVMe8Sf.s:20624  .debug_str:0000000000004c82 .LASF761
C:\Users\stapi\AppData\Local\Temp\ccVMe8Sf.s:20166  .debug_str:0000000000003f43 .LASF762
C:\Users\stapi\AppData\Local\Temp\ccVMe8Sf.s:21090  .debug_str:0000000000005ab5 .LASF763
C:\Users\stapi\AppData\Local\Temp\ccVMe8Sf.s:20436  .debug_str:00000000000046eb .LASF764
C:\Users\stapi\AppData\Local\Temp\ccVMe8Sf.s:19032  .debug_str:0000000000001cd2 .LASF765
C:\Users\stapi\AppData\Local\Temp\ccVMe8Sf.s:18620  .debug_str:00000000000010fc .LASF766
C:\Users\stapi\AppData\Local\Temp\ccVMe8Sf.s:19238  .debug_str:00000000000022c8 .LASF767
C:\Users\stapi\AppData\Local\Temp\ccVMe8Sf.s:20734  .debug_str:0000000000004f8e .LASF768
C:\Users\stapi\AppData\Local\Temp\ccVMe8Sf.s:19896  .debug_str:00000000000037bb .LASF769
C:\Users\stapi\AppData\Local\Temp\ccVMe8Sf.s:20318  .debug_str:000000000000437e .LASF770
C:\Users\stapi\AppData\Local\Temp\ccVMe8Sf.s:19138  .debug_str:0000000000001fab .LASF771
C:\Users\stapi\AppData\Local\Temp\ccVMe8Sf.s:19598  .debug_str:0000000000002da5 .LASF772
C:\Users\stapi\AppData\Local\Temp\ccVMe8Sf.s:18266  .debug_str:00000000000006c7 .LASF773
C:\Users\stapi\AppData\Local\Temp\ccVMe8Sf.s:18174  .debug_str:0000000000000424 .LASF774
C:\Users\stapi\AppData\Local\Temp\ccVMe8Sf.s:20112  .debug_str:0000000000003db0 .LASF775
C:\Users\stapi\AppData\Local\Temp\ccVMe8Sf.s:19816  .debug_str:0000000000003536 .LASF776
C:\Users\stapi\AppData\Local\Temp\ccVMe8Sf.s:19432  .debug_str:00000000000028e9 .LASF777
C:\Users\stapi\AppData\Local\Temp\ccVMe8Sf.s:19962  .debug_str:00000000000039c5 .LASF778
C:\Users\stapi\AppData\Local\Temp\ccVMe8Sf.s:18244  .debug_str:0000000000000628 .LASF779
C:\Users\stapi\AppData\Local\Temp\ccVMe8Sf.s:18610  .debug_str:00000000000010bc .LASF780
C:\Users\stapi\AppData\Local\Temp\ccVMe8Sf.s:19914  .debug_str:000000000000383c .LASF781
C:\Users\stapi\AppData\Local\Temp\ccVMe8Sf.s:21020  .debug_str:00000000000058a0 .LASF782
C:\Users\stapi\AppData\Local\Temp\ccVMe8Sf.s:20950  .debug_str:0000000000005670 .LASF783
C:\Users\stapi\AppData\Local\Temp\ccVMe8Sf.s:20316  .debug_str:000000000000436c .LASF784
C:\Users\stapi\AppData\Local\Temp\ccVMe8Sf.s:18100  .debug_str:0000000000000183 .LASF785
C:\Users\stapi\AppData\Local\Temp\ccVMe8Sf.s:20130  .debug_str:0000000000003e53 .LASF786
C:\Users\stapi\AppData\Local\Temp\ccVMe8Sf.s:18376  .debug_str:00000000000009bd .LASF787
C:\Users\stapi\AppData\Local\Temp\ccVMe8Sf.s:20616  .debug_str:0000000000004c4b .LASF788
C:\Users\stapi\AppData\Local\Temp\ccVMe8Sf.s:20460  .debug_str:00000000000047a2 .LASF789
C:\Users\stapi\AppData\Local\Temp\ccVMe8Sf.s:20656  .debug_str:0000000000004d5c .LASF790
C:\Users\stapi\AppData\Local\Temp\ccVMe8Sf.s:19624  .debug_str:0000000000002e58 .LASF791
C:\Users\stapi\AppData\Local\Temp\ccVMe8Sf.s:20664  .debug_str:0000000000004d9a .LASF792
C:\Users\stapi\AppData\Local\Temp\ccVMe8Sf.s:19376  .debug_str:000000000000271f .LASF793
C:\Users\stapi\AppData\Local\Temp\ccVMe8Sf.s:18224  .debug_str:0000000000000599 .LASF794
C:\Users\stapi\AppData\Local\Temp\ccVMe8Sf.s:19872  .debug_str:00000000000036fc .LASF795
C:\Users\stapi\AppData\Local\Temp\ccVMe8Sf.s:18232  .debug_str:00000000000005d6 .LASF796
C:\Users\stapi\AppData\Local\Temp\ccVMe8Sf.s:19834  .debug_str:00000000000035b8 .LASF797
C:\Users\stapi\AppData\Local\Temp\ccVMe8Sf.s:18616  .debug_str:00000000000010e3 .LASF798
C:\Users\stapi\AppData\Local\Temp\ccVMe8Sf.s:19070  .debug_str:0000000000001dd0 .LASF799
C:\Users\stapi\AppData\Local\Temp\ccVMe8Sf.s:20234  .debug_str:0000000000004117 .LASF800
C:\Users\stapi\AppData\Local\Temp\ccVMe8Sf.s:20854  .debug_str:000000000000533b .LASF801
C:\Users\stapi\AppData\Local\Temp\ccVMe8Sf.s:20072  .debug_str:0000000000003ca3 .LASF802
C:\Users\stapi\AppData\Local\Temp\ccVMe8Sf.s:18776  .debug_str:0000000000001594 .LASF803
C:\Users\stapi\AppData\Local\Temp\ccVMe8Sf.s:20014  .debug_str:0000000000003b2f .LASF804
C:\Users\stapi\AppData\Local\Temp\ccVMe8Sf.s:18858  .debug_str:00000000000017d7 .LASF805
C:\Users\stapi\AppData\Local\Temp\ccVMe8Sf.s:18756  .debug_str:00000000000014dc .LASF806
C:\Users\stapi\AppData\Local\Temp\ccVMe8Sf.s:19514  .debug_str:0000000000002b1f .LASF807
C:\Users\stapi\AppData\Local\Temp\ccVMe8Sf.s:20890  .debug_str:00000000000054b9 .LASF808
C:\Users\stapi\AppData\Local\Temp\ccVMe8Sf.s:19290  .debug_str:0000000000002456 .LASF809
C:\Users\stapi\AppData\Local\Temp\ccVMe8Sf.s:19382  .debug_str:000000000000274f .LASF810
C:\Users\stapi\AppData\Local\Temp\ccVMe8Sf.s:18214  .debug_str:000000000000054b .LASF811
C:\Users\stapi\AppData\Local\Temp\ccVMe8Sf.s:20700  .debug_str:0000000000004ea2 .LASF812
C:\Users\stapi\AppData\Local\Temp\ccVMe8Sf.s:20902  .debug_str:0000000000005515 .LASF813
C:\Users\stapi\AppData\Local\Temp\ccVMe8Sf.s:18310  .debug_str:00000000000007e4 .LASF814
C:\Users\stapi\AppData\Local\Temp\ccVMe8Sf.s:18062  .debug_str:000000000000005c .LASF815
C:\Users\stapi\AppData\Local\Temp\ccVMe8Sf.s:20282  .debug_str:0000000000004251 .LASF816
C:\Users\stapi\AppData\Local\Temp\ccVMe8Sf.s:18646  .debug_str:00000000000011aa .LASF817
C:\Users\stapi\AppData\Local\Temp\ccVMe8Sf.s:18842  .debug_str:0000000000001776 .LASF818
C:\Users\stapi\AppData\Local\Temp\ccVMe8Sf.s:19682  .debug_str:0000000000003016 .LASF819
C:\Users\stapi\AppData\Local\Temp\ccVMe8Sf.s:18278  .debug_str:0000000000000726 .LASF820
C:\Users\stapi\AppData\Local\Temp\ccVMe8Sf.s:19456  .debug_str:0000000000002985 .LASF821
C:\Users\stapi\AppData\Local\Temp\ccVMe8Sf.s:19046  .debug_str:0000000000001d22 .LASF822
C:\Users\stapi\AppData\Local\Temp\ccVMe8Sf.s:18478  .debug_str:0000000000000cdf .LASF823
C:\Users\stapi\AppData\Local\Temp\ccVMe8Sf.s:20776  .debug_str:00000000000050f4 .LASF824
C:\Users\stapi\AppData\Local\Temp\ccVMe8Sf.s:19284  .debug_str:000000000000242a .LASF825
C:\Users\stapi\AppData\Local\Temp\ccVMe8Sf.s:20520  .debug_str:0000000000004980 .LASF826
C:\Users\stapi\AppData\Local\Temp\ccVMe8Sf.s:20506  .debug_str:000000000000490a .LASF827
C:\Users\stapi\AppData\Local\Temp\ccVMe8Sf.s:19918  .debug_str:000000000000385d .LASF828
C:\Users\stapi\AppData\Local\Temp\ccVMe8Sf.s:19440  .debug_str:0000000000002916 .LASF829
C:\Users\stapi\AppData\Local\Temp\ccVMe8Sf.s:20366  .debug_str:00000000000044cd .LASF830
C:\Users\stapi\AppData\Local\Temp\ccVMe8Sf.s:20572  .debug_str:0000000000004ae2 .LASF831
C:\Users\stapi\AppData\Local\Temp\ccVMe8Sf.s:18714  .debug_str:00000000000013cd .LASF832
C:\Users\stapi\AppData\Local\Temp\ccVMe8Sf.s:18578  .debug_str:0000000000000fc3 .LASF833
C:\Users\stapi\AppData\Local\Temp\ccVMe8Sf.s:20478  .debug_str:0000000000004827 .LASF834
C:\Users\stapi\AppData\Local\Temp\ccVMe8Sf.s:19540  .debug_str:0000000000002bd4 .LASF835
C:\Users\stapi\AppData\Local\Temp\ccVMe8Sf.s:18456  .debug_str:0000000000000c1f .LASF836
C:\Users\stapi\AppData\Local\Temp\ccVMe8Sf.s:18668  .debug_str:0000000000001242 .LASF837
C:\Users\stapi\AppData\Local\Temp\ccVMe8Sf.s:18308  .debug_str:00000000000007cd .LASF838
C:\Users\stapi\AppData\Local\Temp\ccVMe8Sf.s:19310  .debug_str:00000000000024f3 .LASF839
C:\Users\stapi\AppData\Local\Temp\ccVMe8Sf.s:18850  .debug_str:0000000000001795 .LASF840
C:\Users\stapi\AppData\Local\Temp\ccVMe8Sf.s:20472  .debug_str:00000000000047f4 .LASF841
C:\Users\stapi\AppData\Local\Temp\ccVMe8Sf.s:20006  .debug_str:0000000000003af8 .LASF842
C:\Users\stapi\AppData\Local\Temp\ccVMe8Sf.s:18916  .debug_str:0000000000001980 .LASF843
C:\Users\stapi\AppData\Local\Temp\ccVMe8Sf.s:18938  .debug_str:0000000000001a43 .LASF844
C:\Users\stapi\AppData\Local\Temp\ccVMe8Sf.s:19280  .debug_str:0000000000002401 .LASF845
C:\Users\stapi\AppData\Local\Temp\ccVMe8Sf.s:20162  .debug_str:0000000000003f2c .LASF846
C:\Users\stapi\AppData\Local\Temp\ccVMe8Sf.s:19986  .debug_str:0000000000003a7d .LASF847
C:\Users\stapi\AppData\Local\Temp\ccVMe8Sf.s:20778  .debug_str:00000000000050ff .LASF848
C:\Users\stapi\AppData\Local\Temp\ccVMe8Sf.s:20036  .debug_str:0000000000003bc3 .LASF849
C:\Users\stapi\AppData\Local\Temp\ccVMe8Sf.s:20742  .debug_str:0000000000004fd2 .LASF850
C:\Users\stapi\AppData\Local\Temp\ccVMe8Sf.s:20722  .debug_str:0000000000004f51 .LASF851
C:\Users\stapi\AppData\Local\Temp\ccVMe8Sf.s:19696  .debug_str:0000000000003094 .LASF852
C:\Users\stapi\AppData\Local\Temp\ccVMe8Sf.s:18724  .debug_str:0000000000001411 .LASF853
C:\Users\stapi\AppData\Local\Temp\ccVMe8Sf.s:20598  .debug_str:0000000000004ba2 .LASF854
C:\Users\stapi\AppData\Local\Temp\ccVMe8Sf.s:19610  .debug_str:0000000000002df2 .LASF855
C:\Users\stapi\AppData\Local\Temp\ccVMe8Sf.s:19086  .debug_str:0000000000001e30 .LASF856
C:\Users\stapi\AppData\Local\Temp\ccVMe8Sf.s:19478  .debug_str:0000000000002a1d .LASF857
C:\Users\stapi\AppData\Local\Temp\ccVMe8Sf.s:18274  .debug_str:000000000000070a .LASF858
C:\Users\stapi\AppData\Local\Temp\ccVMe8Sf.s:20246  .debug_str:0000000000004163 .LASF859
C:\Users\stapi\AppData\Local\Temp\ccVMe8Sf.s:18830  .debug_str:000000000000171d .LASF860
C:\Users\stapi\AppData\Local\Temp\ccVMe8Sf.s:19024  .debug_str:0000000000001c9e .LASF861
C:\Users\stapi\AppData\Local\Temp\ccVMe8Sf.s:19652  .debug_str:0000000000002f27 .LASF862
C:\Users\stapi\AppData\Local\Temp\ccVMe8Sf.s:20362  .debug_str:00000000000044bf .LASF863
C:\Users\stapi\AppData\Local\Temp\ccVMe8Sf.s:19420  .debug_str:000000000000287a .LASF864
C:\Users\stapi\AppData\Local\Temp\ccVMe8Sf.s:19980  .debug_str:0000000000003a53 .LASF865
C:\Users\stapi\AppData\Local\Temp\ccVMe8Sf.s:18794  .debug_str:0000000000001610 .LASF866
C:\Users\stapi\AppData\Local\Temp\ccVMe8Sf.s:19856  .debug_str:000000000000367b .LASF867
C:\Users\stapi\AppData\Local\Temp\ccVMe8Sf.s:20136  .debug_str:0000000000003e77 .LASF868
C:\Users\stapi\AppData\Local\Temp\ccVMe8Sf.s:18494  .debug_str:0000000000000d45 .LASF869
C:\Users\stapi\AppData\Local\Temp\ccVMe8Sf.s:20102  .debug_str:0000000000003d67 .LASF870
C:\Users\stapi\AppData\Local\Temp\ccVMe8Sf.s:20882  .debug_str:00000000000053f5 .LASF871
C:\Users\stapi\AppData\Local\Temp\ccVMe8Sf.s:19864  .debug_str:00000000000036c8 .LASF872
C:\Users\stapi\AppData\Local\Temp\ccVMe8Sf.s:20462  .debug_str:00000000000047ab .LASF873
C:\Users\stapi\AppData\Local\Temp\ccVMe8Sf.s:20634  .debug_str:0000000000004cd3 .LASF874
C:\Users\stapi\AppData\Local\Temp\ccVMe8Sf.s:19080  .debug_str:0000000000001e14 .LASF875
C:\Users\stapi\AppData\Local\Temp\ccVMe8Sf.s:19734  .debug_str:00000000000031b4 .LASF876
C:\Users\stapi\AppData\Local\Temp\ccVMe8Sf.s:19848  .debug_str:0000000000003633 .LASF877
C:\Users\stapi\AppData\Local\Temp\ccVMe8Sf.s:18712  .debug_str:00000000000013c8 .LASF878
C:\Users\stapi\AppData\Local\Temp\ccVMe8Sf.s:18752  .debug_str:00000000000014be .LASF879
C:\Users\stapi\AppData\Local\Temp\ccVMe8Sf.s:18546  .debug_str:0000000000000ec8 .LASF880
C:\Users\stapi\AppData\Local\Temp\ccVMe8Sf.s:18220  .debug_str:000000000000057f .LASF881
C:\Users\stapi\AppData\Local\Temp\ccVMe8Sf.s:20260  .debug_str:00000000000041d3 .LASF882
C:\Users\stapi\AppData\Local\Temp\ccVMe8Sf.s:18814  .debug_str:00000000000016ba .LASF883
C:\Users\stapi\AppData\Local\Temp\ccVMe8Sf.s:19790  .debug_str:000000000000345d .LASF884
C:\Users\stapi\AppData\Local\Temp\ccVMe8Sf.s:20294  .debug_str:00000000000042aa .LASF885
C:\Users\stapi\AppData\Local\Temp\ccVMe8Sf.s:18818  .debug_str:00000000000016cb .LASF886
C:\Users\stapi\AppData\Local\Temp\ccVMe8Sf.s:20728  .debug_str:0000000000004f6b .LASF887
C:\Users\stapi\AppData\Local\Temp\ccVMe8Sf.s:19302  .debug_str:00000000000024bf .LASF888
C:\Users\stapi\AppData\Local\Temp\ccVMe8Sf.s:20666  .debug_str:0000000000004dad .LASF889
C:\Users\stapi\AppData\Local\Temp\ccVMe8Sf.s:18408  .debug_str:0000000000000aa2 .LASF890
C:\Users\stapi\AppData\Local\Temp\ccVMe8Sf.s:20148  .debug_str:0000000000003ec2 .LASF891
C:\Users\stapi\AppData\Local\Temp\ccVMe8Sf.s:18586  .debug_str:0000000000001001 .LASF892
C:\Users\stapi\AppData\Local\Temp\ccVMe8Sf.s:19966  .debug_str:00000000000039e4 .LASF893
C:\Users\stapi\AppData\Local\Temp\ccVMe8Sf.s:20576  .debug_str:0000000000004b05 .LASF894
C:\Users\stapi\AppData\Local\Temp\ccVMe8Sf.s:21070  .debug_str:0000000000005a16 .LASF895
C:\Users\stapi\AppData\Local\Temp\ccVMe8Sf.s:19484  .debug_str:0000000000002a47 .LASF896
C:\Users\stapi\AppData\Local\Temp\ccVMe8Sf.s:18612  .debug_str:00000000000010c3 .LASF897
C:\Users\stapi\AppData\Local\Temp\ccVMe8Sf.s:20126  .debug_str:0000000000003e2e .LASF898
C:\Users\stapi\AppData\Local\Temp\ccVMe8Sf.s:20224  .debug_str:00000000000040d6 .LASF899
C:\Users\stapi\AppData\Local\Temp\ccVMe8Sf.s:20636  .debug_str:0000000000004cd9 .LASF900
C:\Users\stapi\AppData\Local\Temp\ccVMe8Sf.s:19994  .debug_str:0000000000003aad .LASF901
C:\Users\stapi\AppData\Local\Temp\ccVMe8Sf.s:20744  .debug_str:0000000000004fe7 .LASF902
C:\Users\stapi\AppData\Local\Temp\ccVMe8Sf.s:19418  .debug_str:0000000000002874 .LASF903
C:\Users\stapi\AppData\Local\Temp\ccVMe8Sf.s:20518  .debug_str:0000000000004973 .LASF904
C:\Users\stapi\AppData\Local\Temp\ccVMe8Sf.s:18236  .debug_str:00000000000005f4 .LASF905
C:\Users\stapi\AppData\Local\Temp\ccVMe8Sf.s:19544  .debug_str:0000000000002bf2 .LASF906
C:\Users\stapi\AppData\Local\Temp\ccVMe8Sf.s:18356  .debug_str:0000000000000946 .LASF907
C:\Users\stapi\AppData\Local\Temp\ccVMe8Sf.s:18704  .debug_str:000000000000137c .LASF908
C:\Users\stapi\AppData\Local\Temp\ccVMe8Sf.s:20802  .debug_str:00000000000051b0 .LASF909
C:\Users\stapi\AppData\Local\Temp\ccVMe8Sf.s:19956  .debug_str:000000000000398f .LASF910
C:\Users\stapi\AppData\Local\Temp\ccVMe8Sf.s:20770  .debug_str:00000000000050d0 .LASF911
C:\Users\stapi\AppData\Local\Temp\ccVMe8Sf.s:18370  .debug_str:0000000000000994 .LASF912
C:\Users\stapi\AppData\Local\Temp\ccVMe8Sf.s:20356  .debug_str:000000000000448a .LASF913
C:\Users\stapi\AppData\Local\Temp\ccVMe8Sf.s:18488  .debug_str:0000000000000d10 .LASF914
C:\Users\stapi\AppData\Local\Temp\ccVMe8Sf.s:18984  .debug_str:0000000000001b71 .LASF915
C:\Users\stapi\AppData\Local\Temp\ccVMe8Sf.s:20134  .debug_str:0000000000003e6e .LASF916
C:\Users\stapi\AppData\Local\Temp\ccVMe8Sf.s:19146  .debug_str:0000000000001fe8 .LASF917
C:\Users\stapi\AppData\Local\Temp\ccVMe8Sf.s:19180  .debug_str:000000000000210b .LASF918
C:\Users\stapi\AppData\Local\Temp\ccVMe8Sf.s:19646  .debug_str:0000000000002f09 .LASF919
C:\Users\stapi\AppData\Local\Temp\ccVMe8Sf.s:20990  .debug_str:000000000000579f .LASF920
C:\Users\stapi\AppData\Local\Temp\ccVMe8Sf.s:19166  .debug_str:000000000000209d .LASF921
C:\Users\stapi\AppData\Local\Temp\ccVMe8Sf.s:20354  .debug_str:0000000000004481 .LASF922
C:\Users\stapi\AppData\Local\Temp\ccVMe8Sf.s:20844  .debug_str:00000000000052f5 .LASF923
C:\Users\stapi\AppData\Local\Temp\ccVMe8Sf.s:19370  .debug_str:00000000000026ec .LASF924
C:\Users\stapi\AppData\Local\Temp\ccVMe8Sf.s:18248  .debug_str:0000000000000638 .LASF925
C:\Users\stapi\AppData\Local\Temp\ccVMe8Sf.s:18846  .debug_str:0000000000001787 .LASF926
C:\Users\stapi\AppData\Local\Temp\ccVMe8Sf.s:18826  .debug_str:0000000000001704 .LASF927
C:\Users\stapi\AppData\Local\Temp\ccVMe8Sf.s:18582  .debug_str:0000000000000fdd .LASF928
C:\Users\stapi\AppData\Local\Temp\ccVMe8Sf.s:20850  .debug_str:0000000000005320 .LASF929
C:\Users\stapi\AppData\Local\Temp\ccVMe8Sf.s:20030  .debug_str:0000000000003b9c .LASF930
C:\Users\stapi\AppData\Local\Temp\ccVMe8Sf.s:19976  .debug_str:0000000000003a3e .LASF931
C:\Users\stapi\AppData\Local\Temp\ccVMe8Sf.s:19472  .debug_str:00000000000029f6 .LASF932
C:\Users\stapi\AppData\Local\Temp\ccVMe8Sf.s:18158  .debug_str:00000000000003c3 .LASF933
C:\Users\stapi\AppData\Local\Temp\ccVMe8Sf.s:18744  .debug_str:000000000000148e .LASF934
C:\Users\stapi\AppData\Local\Temp\ccVMe8Sf.s:19846  .debug_str:0000000000003622 .LASF935
C:\Users\stapi\AppData\Local\Temp\ccVMe8Sf.s:18898  .debug_str:00000000000018fc .LASF936
C:\Users\stapi\AppData\Local\Temp\ccVMe8Sf.s:20124  .debug_str:0000000000003e23 .LASF937
C:\Users\stapi\AppData\Local\Temp\ccVMe8Sf.s:20424  .debug_str:0000000000004695 .LASF938
C:\Users\stapi\AppData\Local\Temp\ccVMe8Sf.s:18726  .debug_str:0000000000001416 .LASF939
C:\Users\stapi\AppData\Local\Temp\ccVMe8Sf.s:19798  .debug_str:000000000000348a .LASF940
C:\Users\stapi\AppData\Local\Temp\ccVMe8Sf.s:19590  .debug_str:0000000000002d69 .LASF941
C:\Users\stapi\AppData\Local\Temp\ccVMe8Sf.s:19592  .debug_str:0000000000002d76 .LASF942
C:\Users\stapi\AppData\Local\Temp\ccVMe8Sf.s:20372  .debug_str:000000000000450c .LASF943
C:\Users\stapi\AppData\Local\Temp\ccVMe8Sf.s:18454  .debug_str:0000000000000c04 .LASF944
C:\Users\stapi\AppData\Local\Temp\ccVMe8Sf.s:19560  .debug_str:0000000000002c6b .LASF945
C:\Users\stapi\AppData\Local\Temp\ccVMe8Sf.s:19010  .debug_str:0000000000001c25 .LASF946
C:\Users\stapi\AppData\Local\Temp\ccVMe8Sf.s:20160  .debug_str:0000000000003f20 .LASF947
C:\Users\stapi\AppData\Local\Temp\ccVMe8Sf.s:19028  .debug_str:0000000000001cbd .LASF948
C:\Users\stapi\AppData\Local\Temp\ccVMe8Sf.s:18320  .debug_str:000000000000082c .LASF949
C:\Users\stapi\AppData\Local\Temp\ccVMe8Sf.s:18886  .debug_str:00000000000018a1 .LASF950
C:\Users\stapi\AppData\Local\Temp\ccVMe8Sf.s:20964  .debug_str:00000000000056d2 .LASF951
C:\Users\stapi\AppData\Local\Temp\ccVMe8Sf.s:18122  .debug_str:0000000000000226 .LASF952
C:\Users\stapi\AppData\Local\Temp\ccVMe8Sf.s:18560  .debug_str:0000000000000f34 .LASF953
C:\Users\stapi\AppData\Local\Temp\ccVMe8Sf.s:20474  .debug_str:0000000000004803 .LASF954
C:\Users\stapi\AppData\Local\Temp\ccVMe8Sf.s:19004  .debug_str:0000000000001c10 .LASF955
C:\Users\stapi\AppData\Local\Temp\ccVMe8Sf.s:19114  .debug_str:0000000000001f0b .LASF956
C:\Users\stapi\AppData\Local\Temp\ccVMe8Sf.s:19288  .debug_str:000000000000244c .LASF957
C:\Users\stapi\AppData\Local\Temp\ccVMe8Sf.s:19142  .debug_str:0000000000001fc9 .LASF958
C:\Users\stapi\AppData\Local\Temp\ccVMe8Sf.s:18622  .debug_str:0000000000001103 .LASF959
C:\Users\stapi\AppData\Local\Temp\ccVMe8Sf.s:18124  .debug_str:0000000000000231 .LASF960
C:\Users\stapi\AppData\Local\Temp\ccVMe8Sf.s:20074  .debug_str:0000000000003cad .LASF961
C:\Users\stapi\AppData\Local\Temp\ccVMe8Sf.s:19842  .debug_str:0000000000003604 .LASF962
C:\Users\stapi\AppData\Local\Temp\ccVMe8Sf.s:20864  .debug_str:0000000000005387 .LASF963
C:\Users\stapi\AppData\Local\Temp\ccVMe8Sf.s:20908  .debug_str:0000000000005550 .LASF964
C:\Users\stapi\AppData\Local\Temp\ccVMe8Sf.s:19794  .debug_str:0000000000003478 .LASF965
C:\Users\stapi\AppData\Local\Temp\ccVMe8Sf.s:19608  .debug_str:0000000000002de6 .LASF966
C:\Users\stapi\AppData\Local\Temp\ccVMe8Sf.s:18768  .debug_str:0000000000001566 .LASF967
C:\Users\stapi\AppData\Local\Temp\ccVMe8Sf.s:20772  .debug_str:00000000000050de .LASF968
C:\Users\stapi\AppData\Local\Temp\ccVMe8Sf.s:20500  .debug_str:00000000000048f0 .LASF969
C:\Users\stapi\AppData\Local\Temp\ccVMe8Sf.s:18978  .debug_str:0000000000001b51 .LASF970
C:\Users\stapi\AppData\Local\Temp\ccVMe8Sf.s:19582  .debug_str:0000000000002d25 .LASF971
C:\Users\stapi\AppData\Local\Temp\ccVMe8Sf.s:18206  .debug_str:0000000000000516 .LASF972
C:\Users\stapi\AppData\Local\Temp\ccVMe8Sf.s:19782  .debug_str:000000000000341c .LASF973
C:\Users\stapi\AppData\Local\Temp\ccVMe8Sf.s:18618  .debug_str:00000000000010f0 .LASF974
C:\Users\stapi\AppData\Local\Temp\ccVMe8Sf.s:18854  .debug_str:00000000000017ba .LASF975
C:\Users\stapi\AppData\Local\Temp\ccVMe8Sf.s:18992  .debug_str:0000000000001bad .LASF976
C:\Users\stapi\AppData\Local\Temp\ccVMe8Sf.s:19384  .debug_str:000000000000275e .LASF977
C:\Users\stapi\AppData\Local\Temp\ccVMe8Sf.s:19824  .debug_str:0000000000003576 .LASF978
C:\Users\stapi\AppData\Local\Temp\ccVMe8Sf.s:20222  .debug_str:00000000000040c3 .LASF979
C:\Users\stapi\AppData\Local\Temp\ccVMe8Sf.s:18182  .debug_str:000000000000046b .LASF980
C:\Users\stapi\AppData\Local\Temp\ccVMe8Sf.s:18112  .debug_str:00000000000001ce .LASF981
C:\Users\stapi\AppData\Local\Temp\ccVMe8Sf.s:18276  .debug_str:0000000000000715 .LASF982
C:\Users\stapi\AppData\Local\Temp\ccVMe8Sf.s:20122  .debug_str:0000000000003e19 .LASF983
C:\Users\stapi\AppData\Local\Temp\ccVMe8Sf.s:18264  .debug_str:00000000000006b8 .LASF984
C:\Users\stapi\AppData\Local\Temp\ccVMe8Sf.s:19890  .debug_str:0000000000003786 .LASF985
C:\Users\stapi\AppData\Local\Temp\ccVMe8Sf.s:21074  .debug_str:0000000000005a31 .LASF986
C:\Users\stapi\AppData\Local\Temp\ccVMe8Sf.s:20498  .debug_str:00000000000048e5 .LASF987
C:\Users\stapi\AppData\Local\Temp\ccVMe8Sf.s:19996  .debug_str:0000000000003ab7 .LASF988
C:\Users\stapi\AppData\Local\Temp\ccVMe8Sf.s:20886  .debug_str:0000000000005415 .LASF989
C:\Users\stapi\AppData\Local\Temp\ccVMe8Sf.s:19150  .debug_str:0000000000002011 .LASF990
C:\Users\stapi\AppData\Local\Temp\ccVMe8Sf.s:19970  .debug_str:0000000000003a03 .LASF991
C:\Users\stapi\AppData\Local\Temp\ccVMe8Sf.s:18262  .debug_str:00000000000006a9 .LASF992
C:\Users\stapi\AppData\Local\Temp\ccVMe8Sf.s:20184  .debug_str:0000000000003fcf .LASF993
C:\Users\stapi\AppData\Local\Temp\ccVMe8Sf.s:20548  .debug_str:0000000000004a37 .LASF994
C:\Users\stapi\AppData\Local\Temp\ccVMe8Sf.s:20394  .debug_str:0000000000004587 .LASF995
C:\Users\stapi\AppData\Local\Temp\ccVMe8Sf.s:19008  .debug_str:0000000000001c20 .LASF996
C:\Users\stapi\AppData\Local\Temp\ccVMe8Sf.s:18516  .debug_str:0000000000000de2 .LASF997
C:\Users\stapi\AppData\Local\Temp\ccVMe8Sf.s:18946  .debug_str:0000000000001a6b .LASF998
C:\Users\stapi\AppData\Local\Temp\ccVMe8Sf.s:19990  .debug_str:0000000000003a92 .LASF999
C:\Users\stapi\AppData\Local\Temp\ccVMe8Sf.s:19742  .debug_str:00000000000031dd .LASF1000
C:\Users\stapi\AppData\Local\Temp\ccVMe8Sf.s:20840  .debug_str:00000000000052cf .LASF1001
C:\Users\stapi\AppData\Local\Temp\ccVMe8Sf.s:18384  .debug_str:00000000000009ea .LASF1002
C:\Users\stapi\AppData\Local\Temp\ccVMe8Sf.s:20714  .debug_str:0000000000004f14 .LASF1003
C:\Users\stapi\AppData\Local\Temp\ccVMe8Sf.s:18326  .debug_str:0000000000000853 .LASF1004
C:\Users\stapi\AppData\Local\Temp\ccVMe8Sf.s:18066  .debug_str:000000000000007c .LASF1005
C:\Users\stapi\AppData\Local\Temp\ccVMe8Sf.s:20288  .debug_str:0000000000004276 .LASF1006
C:\Users\stapi\AppData\Local\Temp\ccVMe8Sf.s:21048  .debug_str:0000000000005972 .LASF1007
C:\Users\stapi\AppData\Local\Temp\ccVMe8Sf.s:20756  .debug_str:0000000000005062 .LASF1008
C:\Users\stapi\AppData\Local\Temp\ccVMe8Sf.s:20582  .debug_str:0000000000004b2d .LASF1009
C:\Users\stapi\AppData\Local\Temp\ccVMe8Sf.s:18648  .debug_str:00000000000011b5 .LASF1010
C:\Users\stapi\AppData\Local\Temp\ccVMe8Sf.s:19414  .debug_str:000000000000285b .LASF1011
C:\Users\stapi\AppData\Local\Temp\ccVMe8Sf.s:19062  .debug_str:0000000000001d94 .LASF1012
C:\Users\stapi\AppData\Local\Temp\ccVMe8Sf.s:18688  .debug_str:00000000000012ee .LASF1013
C:\Users\stapi\AppData\Local\Temp\ccVMe8Sf.s:19314  .debug_str:0000000000002515 .LASF1014
C:\Users\stapi\AppData\Local\Temp\ccVMe8Sf.s:18396  .debug_str:0000000000000a36 .LASF1015
C:\Users\stapi\AppData\Local\Temp\ccVMe8Sf.s:18056  .debug_str:0000000000000022 .LASF1016
C:\Users\stapi\AppData\Local\Temp\ccVMe8Sf.s:18114  .debug_str:00000000000001db .LASF1017
C:\Users\stapi\AppData\Local\Temp\ccVMe8Sf.s:18874  .debug_str:000000000000184f .LASF1018
C:\Users\stapi\AppData\Local\Temp\ccVMe8Sf.s:20378  .debug_str:0000000000004533 .LASF1019
C:\Users\stapi\AppData\Local\Temp\ccVMe8Sf.s:19938  .debug_str:0000000000003903 .LASF1020
C:\Users\stapi\AppData\Local\Temp\ccVMe8Sf.s:20062  .debug_str:0000000000003c63 .LASF1021
C:\Users\stapi\AppData\Local\Temp\ccVMe8Sf.s:19870  .debug_str:00000000000036ee .LASF1022
C:\Users\stapi\AppData\Local\Temp\ccVMe8Sf.s:19366  .debug_str:00000000000026cd .LASF1023
C:\Users\stapi\AppData\Local\Temp\ccVMe8Sf.s:20492  .debug_str:000000000000489c .LASF1024
C:\Users\stapi\AppData\Local\Temp\ccVMe8Sf.s:19770  .debug_str:000000000000339d .LASF1025
C:\Users\stapi\AppData\Local\Temp\ccVMe8Sf.s:20884  .debug_str:00000000000053fa .LASF1026
C:\Users\stapi\AppData\Local\Temp\ccVMe8Sf.s:20826  .debug_str:000000000000526e .LASF1027
C:\Users\stapi\AppData\Local\Temp\ccVMe8Sf.s:18190  .debug_str:000000000000049d .LASF1028
C:\Users\stapi\AppData\Local\Temp\ccVMe8Sf.s:20254  .debug_str:00000000000041a9 .LASF1029
C:\Users\stapi\AppData\Local\Temp\ccVMe8Sf.s:19804  .debug_str:00000000000034b3 .LASF1030
C:\Users\stapi\AppData\Local\Temp\ccVMe8Sf.s:18594  .debug_str:0000000000001036 .LASF1031
C:\Users\stapi\AppData\Local\Temp\ccVMe8Sf.s:19950  .debug_str:0000000000003942 .LASF1032
C:\Users\stapi\AppData\Local\Temp\ccVMe8Sf.s:19094  .debug_str:0000000000001e66 .LASF1033
C:\Users\stapi\AppData\Local\Temp\ccVMe8Sf.s:18076  .debug_str:00000000000000bc .LASF1034
C:\Users\stapi\AppData\Local\Temp\ccVMe8Sf.s:20528  .debug_str:00000000000049a2 .LASF1035
C:\Users\stapi\AppData\Local\Temp\ccVMe8Sf.s:19926  .debug_str:000000000000389f .LASF1036
C:\Users\stapi\AppData\Local\Temp\ccVMe8Sf.s:19060  .debug_str:0000000000001d7a .LASF1037
C:\Users\stapi\AppData\Local\Temp\ccVMe8Sf.s:18344  .debug_str:00000000000008f4 .LASF1038
C:\Users\stapi\AppData\Local\Temp\ccVMe8Sf.s:18962  .debug_str:0000000000001adb .LASF1039
C:\Users\stapi\AppData\Local\Temp\ccVMe8Sf.s:19726  .debug_str:0000000000003171 .LASF1040
C:\Users\stapi\AppData\Local\Temp\ccVMe8Sf.s:19928  .debug_str:00000000000038aa .LASF1041
C:\Users\stapi\AppData\Local\Temp\ccVMe8Sf.s:19554  .debug_str:0000000000002c30 .LASF1042
C:\Users\stapi\AppData\Local\Temp\ccVMe8Sf.s:20080  .debug_str:0000000000003cd3 .LASF1043
C:\Users\stapi\AppData\Local\Temp\ccVMe8Sf.s:20312  .debug_str:000000000000434a .LASF1044
C:\Users\stapi\AppData\Local\Temp\ccVMe8Sf.s:18902  .debug_str:0000000000001916 .LASF1045
C:\Users\stapi\AppData\Local\Temp\ccVMe8Sf.s:20806  .debug_str:00000000000051da .LASF1046
C:\Users\stapi\AppData\Local\Temp\ccVMe8Sf.s:20994  .debug_str:00000000000057cd .LASF1047
C:\Users\stapi\AppData\Local\Temp\ccVMe8Sf.s:19044  .debug_str:0000000000001d16 .LASF1048
C:\Users\stapi\AppData\Local\Temp\ccVMe8Sf.s:18778  .debug_str:000000000000159d .LASF1049
C:\Users\stapi\AppData\Local\Temp\ccVMe8Sf.s:19450  .debug_str:0000000000002952 .LASF1050
C:\Users\stapi\AppData\Local\Temp\ccVMe8Sf.s:20456  .debug_str:000000000000477b .LASF1051
C:\Users\stapi\AppData\Local\Temp\ccVMe8Sf.s:18816  .debug_str:00000000000016c0 .LASF1052
C:\Users\stapi\AppData\Local\Temp\ccVMe8Sf.s:20390  .debug_str:0000000000004570 .LASF1053
C:\Users\stapi\AppData\Local\Temp\ccVMe8Sf.s:20208  .debug_str:000000000000406e .LASF1054
C:\Users\stapi\AppData\Local\Temp\ccVMe8Sf.s:18736  .debug_str:0000000000001457 .LASF1055
C:\Users\stapi\AppData\Local\Temp\ccVMe8Sf.s:20210  .debug_str:0000000000004077 .LASF1056
C:\Users\stapi\AppData\Local\Temp\ccVMe8Sf.s:20544  .debug_str:0000000000004a17 .LASF1057
C:\Users\stapi\AppData\Local\Temp\ccVMe8Sf.s:20406  .debug_str:00000000000045f5 .LASF1058
C:\Users\stapi\AppData\Local\Temp\ccVMe8Sf.s:19700  .debug_str:00000000000030a5 .LASF1059
C:\Users\stapi\AppData\Local\Temp\ccVMe8Sf.s:18918  .debug_str:000000000000198b .LASF1060
C:\Users\stapi\AppData\Local\Temp\ccVMe8Sf.s:19556  .debug_str:0000000000002c3f .LASF1061
C:\Users\stapi\AppData\Local\Temp\ccVMe8Sf.s:21036  .debug_str:0000000000005900 .LASF1062
C:\Users\stapi\AppData\Local\Temp\ccVMe8Sf.s:18596  .debug_str:0000000000001041 .LASF1063
C:\Users\stapi\AppData\Local\Temp\ccVMe8Sf.s:19234  .debug_str:000000000000229c .LASF1064
C:\Users\stapi\AppData\Local\Temp\ccVMe8Sf.s:20752  .debug_str:000000000000502e .LASF1065
C:\Users\stapi\AppData\Local\Temp\ccVMe8Sf.s:21076  .debug_str:0000000000005a4b .LASF1066
C:\Users\stapi\AppData\Local\Temp\ccVMe8Sf.s:20396  .debug_str:0000000000004590 .LASF1067
C:\Users\stapi\AppData\Local\Temp\ccVMe8Sf.s:19924  .debug_str:000000000000388c .LASF1068
C:\Users\stapi\AppData\Local\Temp\ccVMe8Sf.s:18656  .debug_str:00000000000011eb .LASF1069
C:\Users\stapi\AppData\Local\Temp\ccVMe8Sf.s:21014  .debug_str:0000000000005861 .LASF1070
C:\Users\stapi\AppData\Local\Temp\ccVMe8Sf.s:19878  .debug_str:000000000000372d .LASF1071
C:\Users\stapi\AppData\Local\Temp\ccVMe8Sf.s:20546  .debug_str:0000000000004a1e .LASF1072
C:\Users\stapi\AppData\Local\Temp\ccVMe8Sf.s:20138  .debug_str:0000000000003e80 .LASF1073
C:\Users\stapi\AppData\Local\Temp\ccVMe8Sf.s:20192  .debug_str:0000000000003ffe .LASF1074
C:\Users\stapi\AppData\Local\Temp\ccVMe8Sf.s:20432  .debug_str:00000000000046c1 .LASF1075
C:\Users\stapi\AppData\Local\Temp\ccVMe8Sf.s:18844  .debug_str:000000000000177d .LASF1076
C:\Users\stapi\AppData\Local\Temp\ccVMe8Sf.s:19758  .debug_str:000000000000334b .LASF1077
C:\Users\stapi\AppData\Local\Temp\ccVMe8Sf.s:20768  .debug_str:00000000000050be .LASF1078
C:\Users\stapi\AppData\Local\Temp\ccVMe8Sf.s:19678  .debug_str:0000000000002feb .LASF1079
C:\Users\stapi\AppData\Local\Temp\ccVMe8Sf.s:19508  .debug_str:0000000000002afb .LASF1080
C:\Users\stapi\AppData\Local\Temp\ccVMe8Sf.s:20960  .debug_str:00000000000056a9 .LASF1081
C:\Users\stapi\AppData\Local\Temp\ccVMe8Sf.s:18852  .debug_str:00000000000017af .LASF1082
C:\Users\stapi\AppData\Local\Temp\ccVMe8Sf.s:20588  .debug_str:0000000000004b4b .LASF1083
C:\Users\stapi\AppData\Local\Temp\ccVMe8Sf.s:18200  .debug_str:00000000000004ea .LASF1084
C:\Users\stapi\AppData\Local\Temp\ccVMe8Sf.s:19832  .debug_str:00000000000035af .LASF1085
C:\Users\stapi\AppData\Local\Temp\ccVMe8Sf.s:20966  .debug_str:00000000000056ee .LASF1086
C:\Users\stapi\AppData\Local\Temp\ccVMe8Sf.s:18284  .debug_str:0000000000000757 .LASF1087
C:\Users\stapi\AppData\Local\Temp\ccVMe8Sf.s:21060  .debug_str:00000000000059c6 .LASF1088
C:\Users\stapi\AppData\Local\Temp\ccVMe8Sf.s:20344  .debug_str:0000000000004428 .LASF1089
C:\Users\stapi\AppData\Local\Temp\ccVMe8Sf.s:20898  .debug_str:00000000000054fb .LASF1090
C:\Users\stapi\AppData\Local\Temp\ccVMe8Sf.s:18996  .debug_str:0000000000001bcb .LASF1091
C:\Users\stapi\AppData\Local\Temp\ccVMe8Sf.s:19264  .debug_str:0000000000002386 .LASF1092
C:\Users\stapi\AppData\Local\Temp\ccVMe8Sf.s:18990  .debug_str:0000000000001b9b .LASF1093
C:\Users\stapi\AppData\Local\Temp\ccVMe8Sf.s:20422  .debug_str:0000000000004685 .LASF1094
C:\Users\stapi\AppData\Local\Temp\ccVMe8Sf.s:20676  .debug_str:0000000000004dfa .LASF1095
C:\Users\stapi\AppData\Local\Temp\ccVMe8Sf.s:20822  .debug_str:0000000000005252 .LASF1096
C:\Users\stapi\AppData\Local\Temp\ccVMe8Sf.s:19722  .debug_str:0000000000003150 .LASF1097
C:\Users\stapi\AppData\Local\Temp\ccVMe8Sf.s:20266  .debug_str:00000000000041eb .LASF1098
C:\Users\stapi\AppData\Local\Temp\ccVMe8Sf.s:19504  .debug_str:0000000000002ae0 .LASF1099
C:\Users\stapi\AppData\Local\Temp\ccVMe8Sf.s:20758  .debug_str:0000000000005072 .LASF1100
C:\Users\stapi\AppData\Local\Temp\ccVMe8Sf.s:18242  .debug_str:000000000000061e .LASF1101
C:\Users\stapi\AppData\Local\Temp\ccVMe8Sf.s:18492  .debug_str:0000000000000d3e .LASF1102
C:\Users\stapi\AppData\Local\Temp\ccVMe8Sf.s:20392  .debug_str:0000000000004580 .LASF1103
C:\Users\stapi\AppData\Local\Temp\ccVMe8Sf.s:20628  .debug_str:0000000000004caa .LASF1104
C:\Users\stapi\AppData\Local\Temp\ccVMe8Sf.s:19340  .debug_str:00000000000025e3 .LASF1105
C:\Users\stapi\AppData\Local\Temp\ccVMe8Sf.s:18490  .debug_str:0000000000000d27 .LASF1106
C:\Users\stapi\AppData\Local\Temp\ccVMe8Sf.s:20078  .debug_str:0000000000003cc8 .LASF1107
C:\Users\stapi\AppData\Local\Temp\ccVMe8Sf.s:19866  .debug_str:00000000000036d5 .LASF1108
C:\Users\stapi\AppData\Local\Temp\ccVMe8Sf.s:18686  .debug_str:00000000000012df .LASF1109
C:\Users\stapi\AppData\Local\Temp\ccVMe8Sf.s:19458  .debug_str:0000000000002992 .LASF1110
C:\Users\stapi\AppData\Local\Temp\ccVMe8Sf.s:18156  .debug_str:00000000000003b3 .LASF1111
C:\Users\stapi\AppData\Local\Temp\ccVMe8Sf.s:19724  .debug_str:0000000000003160 .LASF1112
C:\Users\stapi\AppData\Local\Temp\ccVMe8Sf.s:20154  .debug_str:0000000000003eea .LASF1113
C:\Users\stapi\AppData\Local\Temp\ccVMe8Sf.s:18876  .debug_str:000000000000186b .LASF1114
C:\Users\stapi\AppData\Local\Temp\ccVMe8Sf.s:19574  .debug_str:0000000000002ce1 .LASF1115
C:\Users\stapi\AppData\Local\Temp\ccVMe8Sf.s:19850  .debug_str:000000000000363c .LASF1116
C:\Users\stapi\AppData\Local\Temp\ccVMe8Sf.s:19502  .debug_str:0000000000002ad5 .LASF1117
C:\Users\stapi\AppData\Local\Temp\ccVMe8Sf.s:18652  .debug_str:00000000000011d2 .LASF1118
C:\Users\stapi\AppData\Local\Temp\ccVMe8Sf.s:19216  .debug_str:0000000000002210 .LASF1119
C:\Users\stapi\AppData\Local\Temp\ccVMe8Sf.s:19342  .debug_str:00000000000025ee .LASF1120
C:\Users\stapi\AppData\Local\Temp\ccVMe8Sf.s:19552  .debug_str:0000000000002c22 .LASF1121
C:\Users\stapi\AppData\Local\Temp\ccVMe8Sf.s:18906  .debug_str:0000000000001931 .LASF1122
C:\Users\stapi\AppData\Local\Temp\ccVMe8Sf.s:19254  .debug_str:000000000000233d .LASF1123
C:\Users\stapi\AppData\Local\Temp\ccVMe8Sf.s:20250  .debug_str:0000000000004185 .LASF1124
C:\Users\stapi\AppData\Local\Temp\ccVMe8Sf.s:20738  .debug_str:0000000000004fb1 .LASF1125
C:\Users\stapi\AppData\Local\Temp\ccVMe8Sf.s:21042  .debug_str:0000000000005934 .LASF1126
C:\Users\stapi\AppData\Local\Temp\ccVMe8Sf.s:19276  .debug_str:00000000000023d5 .LASF1127
C:\Users\stapi\AppData\Local\Temp\ccVMe8Sf.s:18484  .debug_str:0000000000000cf7 .LASF1128
C:\Users\stapi\AppData\Local\Temp\ccVMe8Sf.s:18132  .debug_str:0000000000000276 .LASF1129
C:\Users\stapi\AppData\Local\Temp\ccVMe8Sf.s:19186  .debug_str:0000000000002146 .LASF1130
C:\Users\stapi\AppData\Local\Temp\ccVMe8Sf.s:19732  .debug_str:00000000000031a4 .LASF1131
C:\Users\stapi\AppData\Local\Temp\ccVMe8Sf.s:19122  .debug_str:0000000000001f47 .LASF1132
C:\Users\stapi\AppData\Local\Temp\ccVMe8Sf.s:20214  .debug_str:0000000000004087 .LASF1133
C:\Users\stapi\AppData\Local\Temp\ccVMe8Sf.s:20808  .debug_str:00000000000051eb .LASF1134
C:\Users\stapi\AppData\Local\Temp\ccVMe8Sf.s:18458  .debug_str:0000000000000c39 .LASF1135
C:\Users\stapi\AppData\Local\Temp\ccVMe8Sf.s:19820  .debug_str:000000000000355d .LASF1136
C:\Users\stapi\AppData\Local\Temp\ccVMe8Sf.s:20230  .debug_str:0000000000004102 .LASF1137
C:\Users\stapi\AppData\Local\Temp\ccVMe8Sf.s:20824  .debug_str:0000000000005260 .LASF1138
C:\Users\stapi\AppData\Local\Temp\ccVMe8Sf.s:20762  .debug_str:0000000000005092 .LASF1139
C:\Users\stapi\AppData\Local\Temp\ccVMe8Sf.s:19640  .debug_str:0000000000002ee1 .LASF1140
C:\Users\stapi\AppData\Local\Temp\ccVMe8Sf.s:20000  .debug_str:0000000000003ad1 .LASF1141
C:\Users\stapi\AppData\Local\Temp\ccVMe8Sf.s:18630  .debug_str:0000000000001140 .LASF1142
C:\Users\stapi\AppData\Local\Temp\ccVMe8Sf.s:18766  .debug_str:000000000000154e .LASF1143
C:\Users\stapi\AppData\Local\Temp\ccVMe8Sf.s:20754  .debug_str:000000000000504d .LASF1144
C:\Users\stapi\AppData\Local\Temp\ccVMe8Sf.s:18566  .debug_str:0000000000000f61 .LASF1145
C:\Users\stapi\AppData\Local\Temp\ccVMe8Sf.s:18572  .debug_str:0000000000000f92 .LASF1146
C:\Users\stapi\AppData\Local\Temp\ccVMe8Sf.s:21066  .debug_str:00000000000059f0 .LASF1147
C:\Users\stapi\AppData\Local\Temp\ccVMe8Sf.s:20592  .debug_str:0000000000004b6d .LASF1148
C:\Users\stapi\AppData\Local\Temp\ccVMe8Sf.s:19680  .debug_str:0000000000002ffd .LASF1149
C:\Users\stapi\AppData\Local\Temp\ccVMe8Sf.s:19184  .debug_str:000000000000212c .LASF1150
C:\Users\stapi\AppData\Local\Temp\ccVMe8Sf.s:18628  .debug_str:0000000000001125 .LASF1151
C:\Users\stapi\AppData\Local\Temp\ccVMe8Sf.s:18792  .debug_str:00000000000015f6 .LASF1152
C:\Users\stapi\AppData\Local\Temp\ccVMe8Sf.s:18710  .debug_str:00000000000013b3 .LASF1153
C:\Users\stapi\AppData\Local\Temp\ccVMe8Sf.s:19900  .debug_str:00000000000037d5 .LASF1154
C:\Users\stapi\AppData\Local\Temp\ccVMe8Sf.s:18212  .debug_str:0000000000000541 .LASF1155
C:\Users\stapi\AppData\Local\Temp\ccVMe8Sf.s:19176  .debug_str:00000000000020ed .LASF1156
C:\Users\stapi\AppData\Local\Temp\ccVMe8Sf.s:21024  .debug_str:00000000000058b6 .LASF1157
C:\Users\stapi\AppData\Local\Temp\ccVMe8Sf.s:20002  .debug_str:0000000000003add .LASF1158
C:\Users\stapi\AppData\Local\Temp\ccVMe8Sf.s:19730  .debug_str:0000000000003192 .LASF1159
C:\Users\stapi\AppData\Local\Temp\ccVMe8Sf.s:19156  .debug_str:000000000000203e .LASF1160
C:\Users\stapi\AppData\Local\Temp\ccVMe8Sf.s:19664  .debug_str:0000000000002f71 .LASF1161
C:\Users\stapi\AppData\Local\Temp\ccVMe8Sf.s:19040  .debug_str:0000000000001d00 .LASF1162
C:\Users\stapi\AppData\Local\Temp\ccVMe8Sf.s:18164  .debug_str:00000000000003ea .LASF1163
C:\Users\stapi\AppData\Local\Temp\ccVMe8Sf.s:18166  .debug_str:00000000000003f6 .LASF1164
C:\Users\stapi\AppData\Local\Temp\ccVMe8Sf.s:18862  .debug_str:00000000000017ee .LASF1165
C:\Users\stapi\AppData\Local\Temp\ccVMe8Sf.s:19674  .debug_str:0000000000002fcf .LASF1166
C:\Users\stapi\AppData\Local\Temp\ccVMe8Sf.s:18564  .debug_str:0000000000000f58 .LASF1167
C:\Users\stapi\AppData\Local\Temp\ccVMe8Sf.s:20926  .debug_str:00000000000055c0 .LASF1168
C:\Users\stapi\AppData\Local\Temp\ccVMe8Sf.s:19534  .debug_str:0000000000002ba3 .LASF1169
C:\Users\stapi\AppData\Local\Temp\ccVMe8Sf.s:20092  .debug_str:0000000000003d1e .LASF1170
C:\Users\stapi\AppData\Local\Temp\ccVMe8Sf.s:20088  .debug_str:0000000000003d02 .LASF1171
C:\Users\stapi\AppData\Local\Temp\ccVMe8Sf.s:19854  .debug_str:0000000000003669 .LASF1172
C:\Users\stapi\AppData\Local\Temp\ccVMe8Sf.s:19218  .debug_str:000000000000221a .LASF1173
C:\Users\stapi\AppData\Local\Temp\ccVMe8Sf.s:19780  .debug_str:000000000000340f .LASF1174
C:\Users\stapi\AppData\Local\Temp\ccVMe8Sf.s:20938  .debug_str:0000000000005619 .LASF1175
C:\Users\stapi\AppData\Local\Temp\ccVMe8Sf.s:19188  .debug_str:000000000000214e .LASF1176
C:\Users\stapi\AppData\Local\Temp\ccVMe8Sf.s:20930  .debug_str:00000000000055d9 .LASF1177
C:\Users\stapi\AppData\Local\Temp\ccVMe8Sf.s:20828  .debug_str:000000000000527a .LASF1178
C:\Users\stapi\AppData\Local\Temp\ccVMe8Sf.s:18210  .debug_str:0000000000000534 .LASF1179
C:\Users\stapi\AppData\Local\Temp\ccVMe8Sf.s:18094  .debug_str:0000000000000141 .LASF1180
C:\Users\stapi\AppData\Local\Temp\ccVMe8Sf.s:19100  .debug_str:0000000000001e80 .LASF1181
C:\Users\stapi\AppData\Local\Temp\ccVMe8Sf.s:19400  .debug_str:00000000000027e7 .LASF1182
C:\Users\stapi\AppData\Local\Temp\ccVMe8Sf.s:18398  .debug_str:0000000000000a54 .LASF1183
C:\Users\stapi\AppData\Local\Temp\ccVMe8Sf.s:19622  .debug_str:0000000000002e3a .LASF1184
C:\Users\stapi\AppData\Local\Temp\ccVMe8Sf.s:19612  .debug_str:0000000000002dff .LASF1185
C:\Users\stapi\AppData\Local\Temp\ccVMe8Sf.s:19558  .debug_str:0000000000002c4e .LASF1186
C:\Users\stapi\AppData\Local\Temp\ccVMe8Sf.s:18562  .debug_str:0000000000000f3e .LASF1187
C:\Users\stapi\AppData\Local\Temp\ccVMe8Sf.s:18358  .debug_str:0000000000000950 .LASF1188
C:\Users\stapi\AppData\Local\Temp\ccVMe8Sf.s:19266  .debug_str:0000000000002394 .LASF1189
C:\Users\stapi\AppData\Local\Temp\ccVMe8Sf.s:19192  .debug_str:000000000000215e .LASF1190
C:\Users\stapi\AppData\Local\Temp\ccVMe8Sf.s:18324  .debug_str:0000000000000849 .LASF1191
C:\Users\stapi\AppData\Local\Temp\ccVMe8Sf.s:19462  .debug_str:00000000000029b6 .LASF1192
C:\Users\stapi\AppData\Local\Temp\ccVMe8Sf.s:18116  .debug_str:00000000000001f3 .LASF1193
C:\Users\stapi\AppData\Local\Temp\ccVMe8Sf.s:19294  .debug_str:0000000000002473 .LASF1194
C:\Users\stapi\AppData\Local\Temp\ccVMe8Sf.s:20794  .debug_str:000000000000516d .LASF1195
C:\Users\stapi\AppData\Local\Temp\ccVMe8Sf.s:20020  .debug_str:0000000000003b4c .LASF1196
C:\Users\stapi\AppData\Local\Temp\ccVMe8Sf.s:20952  .debug_str:0000000000005678 .LASF1197
C:\Users\stapi\AppData\Local\Temp\ccVMe8Sf.s:20650  .debug_str:0000000000004d2f .LASF1198
C:\Users\stapi\AppData\Local\Temp\ccVMe8Sf.s:19162  .debug_str:0000000000002073 .LASF1199
C:\Users\stapi\AppData\Local\Temp\ccVMe8Sf.s:18888  .debug_str:00000000000018ae .LASF1200
C:\Users\stapi\AppData\Local\Temp\ccVMe8Sf.s:19154  .debug_str:000000000000202d .LASF1201
C:\Users\stapi\AppData\Local\Temp\ccVMe8Sf.s:19600  .debug_str:0000000000002db1 .LASF1202
C:\Users\stapi\AppData\Local\Temp\ccVMe8Sf.s:19922  .debug_str:0000000000003886 .LASF1203
C:\Users\stapi\AppData\Local\Temp\ccVMe8Sf.s:19088  .debug_str:0000000000001e3c .LASF1204
C:\Users\stapi\AppData\Local\Temp\ccVMe8Sf.s:20674  .debug_str:0000000000004ded .LASF1205
C:\Users\stapi\AppData\Local\Temp\ccVMe8Sf.s:18890  .debug_str:00000000000018b9 .LASF1206
C:\Users\stapi\AppData\Local\Temp\ccVMe8Sf.s:18412  .debug_str:0000000000000ab2 .LASF1207
C:\Users\stapi\AppData\Local\Temp\ccVMe8Sf.s:20306  .debug_str:00000000000042ff .LASF1208
C:\Users\stapi\AppData\Local\Temp\ccVMe8Sf.s:18154  .debug_str:0000000000000396 .LASF1209
C:\Users\stapi\AppData\Local\Temp\ccVMe8Sf.s:18908  .debug_str:0000000000001943 .LASF1210
C:\Users\stapi\AppData\Local\Temp\ccVMe8Sf.s:20732  .debug_str:0000000000004f7f .LASF1211
C:\Users\stapi\AppData\Local\Temp\ccVMe8Sf.s:20602  .debug_str:0000000000004bd6 .LASF1212
C:\Users\stapi\AppData\Local\Temp\ccVMe8Sf.s:19444  .debug_str:0000000000002929 .LASF1213
C:\Users\stapi\AppData\Local\Temp\ccVMe8Sf.s:19894  .debug_str:00000000000037b4 .LASF1214
C:\Users\stapi\AppData\Local\Temp\ccVMe8Sf.s:19940  .debug_str:000000000000390e .LASF1215
C:\Users\stapi\AppData\Local\Temp\ccVMe8Sf.s:18958  .debug_str:0000000000001abd .LASF1216
C:\Users\stapi\AppData\Local\Temp\ccVMe8Sf.s:18920  .debug_str:00000000000019ae .LASF1217
C:\Users\stapi\AppData\Local\Temp\ccVMe8Sf.s:19768  .debug_str:0000000000003385 .LASF1218
C:\Users\stapi\AppData\Local\Temp\ccVMe8Sf.s:19368  .debug_str:00000000000026df .LASF1219
C:\Users\stapi\AppData\Local\Temp\ccVMe8Sf.s:19822  .debug_str:0000000000003570 .LASF1220
C:\Users\stapi\AppData\Local\Temp\ccVMe8Sf.s:19676  .debug_str:0000000000002fdb .LASF1221
C:\Users\stapi\AppData\Local\Temp\ccVMe8Sf.s:19762  .debug_str:000000000000335b .LASF1222
C:\Users\stapi\AppData\Local\Temp\ccVMe8Sf.s:20018  .debug_str:0000000000003b43 .LASF1223
C:\Users\stapi\AppData\Local\Temp\ccVMe8Sf.s:18218  .debug_str:000000000000056f .LASF1224
C:\Users\stapi\AppData\Local\Temp\ccVMe8Sf.s:20852  .debug_str:0000000000005333 .LASF1225
C:\Users\stapi\AppData\Local\Temp\ccVMe8Sf.s:19746  .debug_str:0000000000003203 .LASF1226
C:\Users\stapi\AppData\Local\Temp\ccVMe8Sf.s:18960  .debug_str:0000000000001ad2 .LASF1227
C:\Users\stapi\AppData\Local\Temp\ccVMe8Sf.s:19660  .debug_str:0000000000002f55 .LASF1228
C:\Users\stapi\AppData\Local\Temp\ccVMe8Sf.s:20784  .debug_str:0000000000005125 .LASF1229
C:\Users\stapi\AppData\Local\Temp\ccVMe8Sf.s:19888  .debug_str:0000000000003775 .LASF1230
C:\Users\stapi\AppData\Local\Temp\ccVMe8Sf.s:20584  .debug_str:0000000000004b37 .LASF1231
C:\Users\stapi\AppData\Local\Temp\ccVMe8Sf.s:18436  .debug_str:0000000000000b68 .LASF1232
C:\Users\stapi\AppData\Local\Temp\ccVMe8Sf.s:19108  .debug_str:0000000000001edb .LASF1233
C:\Users\stapi\AppData\Local\Temp\ccVMe8Sf.s:18784  .debug_str:00000000000015c6 .LASF1234
C:\Users\stapi\AppData\Local\Temp\ccVMe8Sf.s:18184  .debug_str:0000000000000481 .LASF1235
C:\Users\stapi\AppData\Local\Temp\ccVMe8Sf.s:20142  .debug_str:0000000000003e97 .LASF1236
C:\Users\stapi\AppData\Local\Temp\ccVMe8Sf.s:20108  .debug_str:0000000000003d94 .LASF1237
C:\Users\stapi\AppData\Local\Temp\ccVMe8Sf.s:18956  .debug_str:0000000000001ab2 .LASF1238
C:\Users\stapi\AppData\Local\Temp\ccVMe8Sf.s:18574  .debug_str:0000000000000fa6 .LASF1239
C:\Users\stapi\AppData\Local\Temp\ccVMe8Sf.s:20328  .debug_str:00000000000043cc .LASF1240
C:\Users\stapi\AppData\Local\Temp\ccVMe8Sf.s:18286  .debug_str:0000000000000762 .LASF1241
C:\Users\stapi\AppData\Local\Temp\ccVMe8Sf.s:20786  .debug_str:000000000000512e .LASF1242
C:\Users\stapi\AppData\Local\Temp\ccVMe8Sf.s:18342  .debug_str:00000000000008df .LASF1243
C:\Users\stapi\AppData\Local\Temp\ccVMe8Sf.s:20912  .debug_str:000000000000556c .LASF1244
C:\Users\stapi\AppData\Local\Temp\ccVMe8Sf.s:19256  .debug_str:000000000000234f .LASF1245
C:\Users\stapi\AppData\Local\Temp\ccVMe8Sf.s:18364  .debug_str:0000000000000970 .LASF1246
C:\Users\stapi\AppData\Local\Temp\ccVMe8Sf.s:18554  .debug_str:0000000000000f00 .LASF1247
C:\Users\stapi\AppData\Local\Temp\ccVMe8Sf.s:19880  .debug_str:000000000000373f .LASF1248
C:\Users\stapi\AppData\Local\Temp\ccVMe8Sf.s:20174  .debug_str:0000000000003f86 .LASF1249
C:\Users\stapi\AppData\Local\Temp\ccVMe8Sf.s:19628  .debug_str:0000000000002e72 .LASF1250
C:\Users\stapi\AppData\Local\Temp\ccVMe8Sf.s:20314  .debug_str:0000000000004358 .LASF1251
C:\Users\stapi\AppData\Local\Temp\ccVMe8Sf.s:19862  .debug_str:00000000000036bf .LASF1252
C:\Users\stapi\AppData\Local\Temp\ccVMe8Sf.s:19144  .debug_str:0000000000001fd8 .LASF1253
C:\Users\stapi\AppData\Local\Temp\ccVMe8Sf.s:20552  .debug_str:0000000000004a4b .LASF1254
C:\Users\stapi\AppData\Local\Temp\ccVMe8Sf.s:20740  .debug_str:0000000000004fc0 .LASF1255
C:\Users\stapi\AppData\Local\Temp\ccVMe8Sf.s:19706  .debug_str:00000000000030dd .LASF1256
C:\Users\stapi\AppData\Local\Temp\ccVMe8Sf.s:19322  .debug_str:0000000000002562 .LASF1257
C:\Users\stapi\AppData\Local\Temp\ccVMe8Sf.s:20418  .debug_str:0000000000004659 .LASF1258
C:\Users\stapi\AppData\Local\Temp\ccVMe8Sf.s:20678  .debug_str:0000000000004e09 .LASF1259
C:\Users\stapi\AppData\Local\Temp\ccVMe8Sf.s:18390  .debug_str:0000000000000a0c .LASF1260
C:\Users\stapi\AppData\Local\Temp\ccVMe8Sf.s:20044  .debug_str:0000000000003bec .LASF1261
C:\Users\stapi\AppData\Local\Temp\ccVMe8Sf.s:19578  .debug_str:0000000000002d03 .LASF1262
C:\Users\stapi\AppData\Local\Temp\ccVMe8Sf.s:19158  .debug_str:000000000000204c .LASF1263
C:\Users\stapi\AppData\Local\Temp\ccVMe8Sf.s:20198  .debug_str:000000000000402b .LASF1264
C:\Users\stapi\AppData\Local\Temp\ccVMe8Sf.s:20450  .debug_str:0000000000004740 .LASF1265
C:\Users\stapi\AppData\Local\Temp\ccVMe8Sf.s:20672  .debug_str:0000000000004de0 .LASF1266
C:\Users\stapi\AppData\Local\Temp\ccVMe8Sf.s:20562  .debug_str:0000000000004a94 .LASF1267
C:\Users\stapi\AppData\Local\Temp\ccVMe8Sf.s:20290  .debug_str:0000000000004284 .LASF1268
C:\Users\stapi\AppData\Local\Temp\ccVMe8Sf.s:18128  .debug_str:000000000000024a .LASF1269
C:\Users\stapi\AppData\Local\Temp\ccVMe8Sf.s:19532  .debug_str:0000000000002b91 .LASF1270
C:\Users\stapi\AppData\Local\Temp\ccVMe8Sf.s:20936  .debug_str:0000000000005603 .LASF1271
C:\Users\stapi\AppData\Local\Temp\ccVMe8Sf.s:18476  .debug_str:0000000000000cd4 .LASF1272
C:\Users\stapi\AppData\Local\Temp\ccVMe8Sf.s:19026  .debug_str:0000000000001cae .LASF1273
C:\Users\stapi\AppData\Local\Temp\ccVMe8Sf.s:20550  .debug_str:0000000000004a3c .LASF1274
C:\Users\stapi\AppData\Local\Temp\ccVMe8Sf.s:19002  .debug_str:0000000000001c04 .LASF1275
C:\Users\stapi\AppData\Local\Temp\ccVMe8Sf.s:19378  .debug_str:0000000000002730 .LASF1276
C:\Users\stapi\AppData\Local\Temp\ccVMe8Sf.s:19222  .debug_str:0000000000002235 .LASF1277
C:\Users\stapi\AppData\Local\Temp\ccVMe8Sf.s:20098  .debug_str:0000000000003d46 .LASF1278
C:\Users\stapi\AppData\Local\Temp\ccVMe8Sf.s:18758  .debug_str:00000000000014e7 .LASF1279
C:\Users\stapi\AppData\Local\Temp\ccVMe8Sf.s:19596  .debug_str:0000000000002d8d .LASF1280
C:\Users\stapi\AppData\Local\Temp\ccVMe8Sf.s:19206  .debug_str:00000000000021c2 .LASF1281
C:\Users\stapi\AppData\Local\Temp\ccVMe8Sf.s:21010  .debug_str:0000000000005843 .LASF1282
C:\Users\stapi\AppData\Local\Temp\ccVMe8Sf.s:18868  .debug_str:0000000000001811 .LASF1283
C:\Users\stapi\AppData\Local\Temp\ccVMe8Sf.s:19744  .debug_str:00000000000031ee .LASF1284
C:\Users\stapi\AppData\Local\Temp\ccVMe8Sf.s:19566  .debug_str:0000000000002c8b .LASF1285
C:\Users\stapi\AppData\Local\Temp\ccVMe8Sf.s:20534  .debug_str:00000000000049c8 .LASF1286
C:\Users\stapi\AppData\Local\Temp\ccVMe8Sf.s:18900  .debug_str:0000000000001910 .LASF1287
C:\Users\stapi\AppData\Local\Temp\ccVMe8Sf.s:19644  .debug_str:0000000000002ef8 .LASF1288
C:\Users\stapi\AppData\Local\Temp\ccVMe8Sf.s:18664  .debug_str:0000000000001223 .LASF1289
C:\Users\stapi\AppData\Local\Temp\ccVMe8Sf.s:20200  .debug_str:000000000000403e .LASF1290
C:\Users\stapi\AppData\Local\Temp\ccVMe8Sf.s:20084  .debug_str:0000000000003ce9 .LASF1291
C:\Users\stapi\AppData\Local\Temp\ccVMe8Sf.s:20692  .debug_str:0000000000004e57 .LASF1292
C:\Users\stapi\AppData\Local\Temp\ccVMe8Sf.s:19778  .debug_str:0000000000003405 .LASF1293
C:\Users\stapi\AppData\Local\Temp\ccVMe8Sf.s:20242  .debug_str:000000000000414f .LASF1294
C:\Users\stapi\AppData\Local\Temp\ccVMe8Sf.s:19960  .debug_str:00000000000039a4 .LASF1295
C:\Users\stapi\AppData\Local\Temp\ccVMe8Sf.s:19932  .debug_str:00000000000038cd .LASF1296
C:\Users\stapi\AppData\Local\Temp\ccVMe8Sf.s:18692  .debug_str:0000000000001305 .LASF1297
C:\Users\stapi\AppData\Local\Temp\ccVMe8Sf.s:18570  .debug_str:0000000000000f84 .LASF1298
C:\Users\stapi\AppData\Local\Temp\ccVMe8Sf.s:20970  .debug_str:000000000000570d .LASF1299
C:\Users\stapi\AppData\Local\Temp\ccVMe8Sf.s:19902  .debug_str:00000000000037e5 .LASF1300
C:\Users\stapi\AppData\Local\Temp\ccVMe8Sf.s:20238  .debug_str:000000000000412e .LASF1301
C:\Users\stapi\AppData\Local\Temp\ccVMe8Sf.s:18556  .debug_str:0000000000000f10 .LASF1302
C:\Users\stapi\AppData\Local\Temp\ccVMe8Sf.s:19614  .debug_str:0000000000002e10 .LASF1303
C:\Users\stapi\AppData\Local\Temp\ccVMe8Sf.s:20442  .debug_str:000000000000470f .LASF1304
C:\Users\stapi\AppData\Local\Temp\ccVMe8Sf.s:20320  .debug_str:000000000000438c .LASF1305
C:\Users\stapi\AppData\Local\Temp\ccVMe8Sf.s:18078  .debug_str:00000000000000c7 .LASF1306
C:\Users\stapi\AppData\Local\Temp\ccVMe8Sf.s:18204  .debug_str:0000000000000504 .LASF1307
C:\Users\stapi\AppData\Local\Temp\ccVMe8Sf.s:18820  .debug_str:00000000000016d5 .LASF1308
C:\Users\stapi\AppData\Local\Temp\ccVMe8Sf.s:20626  .debug_str:0000000000004c99 .LASF1309
C:\Users\stapi\AppData\Local\Temp\ccVMe8Sf.s:20110  .debug_str:0000000000003d9d .LASF1310
C:\Users\stapi\AppData\Local\Temp\ccVMe8Sf.s:20510  .debug_str:0000000000004936 .LASF1311
C:\Users\stapi\AppData\Local\Temp\ccVMe8Sf.s:20178  .debug_str:0000000000003f9c .LASF1312
C:\Users\stapi\AppData\Local\Temp\ccVMe8Sf.s:20068  .debug_str:0000000000003c8b .LASF1313
C:\Users\stapi\AppData\Local\Temp\ccVMe8Sf.s:18848  .debug_str:000000000000178f .LASF1314
C:\Users\stapi\AppData\Local\Temp\ccVMe8Sf.s:20164  .debug_str:0000000000003f36 .LASF1315
C:\Users\stapi\AppData\Local\Temp\ccVMe8Sf.s:20610  .debug_str:0000000000004c18 .LASF1316
C:\Users\stapi\AppData\Local\Temp\ccVMe8Sf.s:18072  .debug_str:00000000000000a0 .LASF1317
C:\Users\stapi\AppData\Local\Temp\ccVMe8Sf.s:19748  .debug_str:000000000000320c .LASF1318
C:\Users\stapi\AppData\Local\Temp\ccVMe8Sf.s:19818  .debug_str:0000000000003547 .LASF1319
C:\Users\stapi\AppData\Local\Temp\ccVMe8Sf.s:19568  .debug_str:0000000000002ca5 .LASF1320
C:\Users\stapi\AppData\Local\Temp\ccVMe8Sf.s:20280  .debug_str:000000000000424a .LASF1321
C:\Users\stapi\AppData\Local\Temp\ccVMe8Sf.s:19036  .debug_str:0000000000001ce8 .LASF1322
C:\Users\stapi\AppData\Local\Temp\ccVMe8Sf.s:18246  .debug_str:0000000000000630 .LASF1323
C:\Users\stapi\AppData\Local\Temp\ccVMe8Sf.s:20454  .debug_str:0000000000004771 .LASF1324
C:\Users\stapi\AppData\Local\Temp\ccVMe8Sf.s:19522  .debug_str:0000000000002b53 .LASF1325
C:\Users\stapi\AppData\Local\Temp\ccVMe8Sf.s:19148  .debug_str:0000000000001ffb .LASF1326
C:\Users\stapi\AppData\Local\Temp\ccVMe8Sf.s:19332  .debug_str:00000000000025ad .LASF1327
C:\Users\stapi\AppData\Local\Temp\ccVMe8Sf.s:18928  .debug_str:00000000000019ee .LASF1328
C:\Users\stapi\AppData\Local\Temp\ccVMe8Sf.s:19196  .debug_str:000000000000217c .LASF1329
C:\Users\stapi\AppData\Local\Temp\ccVMe8Sf.s:20358  .debug_str:000000000000449f .LASF1330
C:\Users\stapi\AppData\Local\Temp\ccVMe8Sf.s:19066  .debug_str:0000000000001db6 .LASF1331
C:\Users\stapi\AppData\Local\Temp\ccVMe8Sf.s:19964  .debug_str:00000000000039d4 .LASF1332
C:\Users\stapi\AppData\Local\Temp\ccVMe8Sf.s:18198  .debug_str:00000000000004cf .LASF1333
C:\Users\stapi\AppData\Local\Temp\ccVMe8Sf.s:19632  .debug_str:0000000000002e99 .LASF1334
C:\Users\stapi\AppData\Local\Temp\ccVMe8Sf.s:20152  .debug_str:0000000000003ee5 .LASF1335
C:\Users\stapi\AppData\Local\Temp\ccVMe8Sf.s:18806  .debug_str:000000000000167c .LASF1336
C:\Users\stapi\AppData\Local\Temp\ccVMe8Sf.s:18580  .debug_str:0000000000000fcf .LASF1337
C:\Users\stapi\AppData\Local\Temp\ccVMe8Sf.s:19324  .debug_str:0000000000002572 .LASF1338
C:\Users\stapi\AppData\Local\Temp\ccVMe8Sf.s:20868  .debug_str:000000000000539d .LASF1339
C:\Users\stapi\AppData\Local\Temp\ccVMe8Sf.s:18940  .debug_str:0000000000001a4e .LASF1340
C:\Users\stapi\AppData\Local\Temp\ccVMe8Sf.s:20594  .debug_str:0000000000004b87 .LASF1341
C:\Users\stapi\AppData\Local\Temp\ccVMe8Sf.s:19934  .debug_str:00000000000038df .LASF1342
C:\Users\stapi\AppData\Local\Temp\ccVMe8Sf.s:20232  .debug_str:000000000000410d .LASF1343
C:\Users\stapi\AppData\Local\Temp\ccVMe8Sf.s:20304  .debug_str:00000000000042ed .LASF1344
C:\Users\stapi\AppData\Local\Temp\ccVMe8Sf.s:19788  .debug_str:0000000000003446 .LASF1345
C:\Users\stapi\AppData\Local\Temp\ccVMe8Sf.s:20066  .debug_str:0000000000003c77 .LASF1346
C:\Users\stapi\AppData\Local\Temp\ccVMe8Sf.s:18336  .debug_str:00000000000008a7 .LASF1347
C:\Users\stapi\AppData\Local\Temp\ccVMe8Sf.s:18950  .debug_str:0000000000001a86 .LASF1348
C:\Users\stapi\AppData\Local\Temp\ccVMe8Sf.s:19230  .debug_str:000000000000227d .LASF1349
C:\Users\stapi\AppData\Local\Temp\ccVMe8Sf.s:18932  .debug_str:0000000000001a0f .LASF1350
C:\Users\stapi\AppData\Local\Temp\ccVMe8Sf.s:18328  .debug_str:000000000000085e .LASF1351
C:\Users\stapi\AppData\Local\Temp\ccVMe8Sf.s:20798  .debug_str:000000000000518e .LASF1352
C:\Users\stapi\AppData\Local\Temp\ccVMe8Sf.s:19702  .debug_str:00000000000030c2 .LASF1353
C:\Users\stapi\AppData\Local\Temp\ccVMe8Sf.s:20226  .debug_str:00000000000040dc .LASF1354
C:\Users\stapi\AppData\Local\Temp\ccVMe8Sf.s:18904  .debug_str:0000000000001928 .LASF1355
C:\Users\stapi\AppData\Local\Temp\ccVMe8Sf.s:18638  .debug_str:000000000000116b .LASF1356
C:\Users\stapi\AppData\Local\Temp\ccVMe8Sf.s:20410  .debug_str:000000000000461a .LASF1357
C:\Users\stapi\AppData\Local\Temp\ccVMe8Sf.s:21034  .debug_str:00000000000058f7 .LASF1358
C:\Users\stapi\AppData\Local\Temp\ccVMe8Sf.s:20996  .debug_str:00000000000057df .LASF1359
C:\Users\stapi\AppData\Local\Temp\ccVMe8Sf.s:19974  .debug_str:0000000000003a2d .LASF1360
C:\Users\stapi\AppData\Local\Temp\ccVMe8Sf.s:18660  .debug_str:0000000000001202 .LASF1361
C:\Users\stapi\AppData\Local\Temp\ccVMe8Sf.s:20986  .debug_str:0000000000005782 .LASF1362
C:\Users\stapi\AppData\Local\Temp\ccVMe8Sf.s:21012  .debug_str:000000000000585c .LASF1363
C:\Users\stapi\AppData\Local\Temp\ccVMe8Sf.s:18186  .debug_str:000000000000048b .LASF1364
C:\Users\stapi\AppData\Local\Temp\ccVMe8Sf.s:19618  .debug_str:0000000000002e2a .LASF1365
C:\Users\stapi\AppData\Local\Temp\ccVMe8Sf.s:19958  .debug_str:000000000000399d .LASF1366
C:\Users\stapi\AppData\Local\Temp\ccVMe8Sf.s:19736  .debug_str:00000000000031c0 .LASF1367
C:\Users\stapi\AppData\Local\Temp\ccVMe8Sf.s:20704  .debug_str:0000000000004ec1 .LASF1368
C:\Users\stapi\AppData\Local\Temp\ccVMe8Sf.s:18256  .debug_str:000000000000066f .LASF1369
C:\Users\stapi\AppData\Local\Temp\ccVMe8Sf.s:19988  .debug_str:0000000000003a87 .LASF1370
C:\Users\stapi\AppData\Local\Temp\ccVMe8Sf.s:20696  .debug_str:0000000000004e76 .LASF1371
C:\Users\stapi\AppData\Local\Temp\ccVMe8Sf.s:18340  .debug_str:00000000000008c9 .LASF1372
C:\Users\stapi\AppData\Local\Temp\ccVMe8Sf.s:18944  .debug_str:0000000000001a5e .LASF1373
C:\Users\stapi\AppData\Local\Temp\ccVMe8Sf.s:19510  .debug_str:0000000000002b0c .LASF1374
C:\Users\stapi\AppData\Local\Temp\ccVMe8Sf.s:19506  .debug_str:0000000000002ae7 .LASF1375
C:\Users\stapi\AppData\Local\Temp\ccVMe8Sf.s:20070  .debug_str:0000000000003c96 .LASF1376
C:\Users\stapi\AppData\Local\Temp\ccVMe8Sf.s:20276  .debug_str:0000000000004235 .LASF1377
C:\Users\stapi\AppData\Local\Temp\ccVMe8Sf.s:20486  .debug_str:0000000000004871 .LASF1378
C:\Users\stapi\AppData\Local\Temp\ccVMe8Sf.s:21058  .debug_str:00000000000059b0 .LASF1379
C:\Users\stapi\AppData\Local\Temp\ccVMe8Sf.s:19636  .debug_str:0000000000002ec3 .LASF1380
C:\Users\stapi\AppData\Local\Temp\ccVMe8Sf.s:18402  .debug_str:0000000000000a83 .LASF1381
C:\Users\stapi\AppData\Local\Temp\ccVMe8Sf.s:19518  .debug_str:0000000000002b37 .LASF1382
C:\Users\stapi\AppData\Local\Temp\ccVMe8Sf.s:19470  .debug_str:00000000000029e8 .LASF1383
C:\Users\stapi\AppData\Local\Temp\ccVMe8Sf.s:21006  .debug_str:0000000000005828 .LASF1384
C:\Users\stapi\AppData\Local\Temp\ccVMe8Sf.s:18708  .debug_str:00000000000013a7 .LASF1385
C:\Users\stapi\AppData\Local\Temp\ccVMe8Sf.s:19244  .debug_str:00000000000022e9 .LASF1386
C:\Users\stapi\AppData\Local\Temp\ccVMe8Sf.s:21030  .debug_str:00000000000058d4 .LASF1387
C:\Users\stapi\AppData\Local\Temp\ccVMe8Sf.s:20268  .debug_str:00000000000041f9 .LASF1388
C:\Users\stapi\AppData\Local\Temp\ccVMe8Sf.s:19014  .debug_str:0000000000001c3b .LASF1389
C:\Users\stapi\AppData\Local\Temp\ccVMe8Sf.s:18472  .debug_str:0000000000000cac .LASF1390
C:\Users\stapi\AppData\Local\Temp\ccVMe8Sf.s:20922  .debug_str:000000000000559e .LASF1391
C:\Users\stapi\AppData\Local\Temp\ccVMe8Sf.s:20252  .debug_str:000000000000419b .LASF1392
C:\Users\stapi\AppData\Local\Temp\ccVMe8Sf.s:18092  .debug_str:0000000000000131 .LASF1393
C:\Users\stapi\AppData\Local\Temp\ccVMe8Sf.s:18988  .debug_str:0000000000001b88 .LASF1394
C:\Users\stapi\AppData\Local\Temp\ccVMe8Sf.s:18080  .debug_str:00000000000000d7 .LASF1395
C:\Users\stapi\AppData\Local\Temp\ccVMe8Sf.s:19172  .debug_str:00000000000020cb .LASF1396
C:\Users\stapi\AppData\Local\Temp\ccVMe8Sf.s:18096  .debug_str:0000000000000157 .LASF1397
C:\Users\stapi\AppData\Local\Temp\ccVMe8Sf.s:19118  .debug_str:0000000000001f20 .LASF1398
C:\Users\stapi\AppData\Local\Temp\ccVMe8Sf.s:20370  .debug_str:00000000000044f7 .LASF1399
C:\Users\stapi\AppData\Local\Temp\ccVMe8Sf.s:18416  .debug_str:0000000000000ae2 .LASF1400
C:\Users\stapi\AppData\Local\Temp\ccVMe8Sf.s:18702  .debug_str:000000000000136b .LASF1401
C:\Users\stapi\AppData\Local\Temp\ccVMe8Sf.s:18810  .debug_str:0000000000001696 .LASF1402
C:\Users\stapi\AppData\Local\Temp\ccVMe8Sf.s:20556  .debug_str:0000000000004a65 .LASF1403
C:\Users\stapi\AppData\Local\Temp\ccVMe8Sf.s:20668  .debug_str:0000000000004dbe .LASF1404
C:\Users\stapi\AppData\Local\Temp\ccVMe8Sf.s:19594  .debug_str:0000000000002d83 .LASF1405
C:\Users\stapi\AppData\Local\Temp\ccVMe8Sf.s:19190  .debug_str:0000000000002157 .LASF1406
C:\Users\stapi\AppData\Local\Temp\ccVMe8Sf.s:18682  .debug_str:00000000000012be .LASF1407
C:\Users\stapi\AppData\Local\Temp\ccVMe8Sf.s:20652  .debug_str:0000000000004d3d .LASF1408
C:\Users\stapi\AppData\Local\Temp\ccVMe8Sf.s:19356  .debug_str:000000000000265e .LASF1409
C:\Users\stapi\AppData\Local\Temp\ccVMe8Sf.s:18824  .debug_str:00000000000016f5 .LASF1410
C:\Users\stapi\AppData\Local\Temp\ccVMe8Sf.s:19246  .debug_str:00000000000022f9 .LASF1411
C:\Users\stapi\AppData\Local\Temp\ccVMe8Sf.s:20330  .debug_str:00000000000043da .LASF1412
C:\Users\stapi\AppData\Local\Temp\ccVMe8Sf.s:20934  .debug_str:00000000000055f4 .LASF1413
C:\Users\stapi\AppData\Local\Temp\ccVMe8Sf.s:18734  .debug_str:0000000000001450 .LASF1414
C:\Users\stapi\AppData\Local\Temp\ccVMe8Sf.s:19948  .debug_str:000000000000393b .LASF1415
C:\Users\stapi\AppData\Local\Temp\ccVMe8Sf.s:18208  .debug_str:000000000000052c .LASF1416
C:\Users\stapi\AppData\Local\Temp\ccVMe8Sf.s:18802  .debug_str:0000000000001652 .LASF1417
C:\Users\stapi\AppData\Local\Temp\ccVMe8Sf.s:18782  .debug_str:00000000000015b6 .LASF1418
C:\Users\stapi\AppData\Local\Temp\ccVMe8Sf.s:18750  .debug_str:00000000000014b6 .LASF1419
C:\Users\stapi\AppData\Local\Temp\ccVMe8Sf.s:20892  .debug_str:00000000000054c5 .LASF1420
C:\Users\stapi\AppData\Local\Temp\ccVMe8Sf.s:20494  .debug_str:00000000000048b8 .LASF1421
C:\Users\stapi\AppData\Local\Temp\ccVMe8Sf.s:19686  .debug_str:000000000000303d .LASF1422
C:\Users\stapi\AppData\Local\Temp\ccVMe8Sf.s:20984  .debug_str:0000000000005773 .LASF1423
C:\Users\stapi\AppData\Local\Temp\ccVMe8Sf.s:20180  .debug_str:0000000000003faa .LASF1424
C:\Users\stapi\AppData\Local\Temp\ccVMe8Sf.s:18640  .debug_str:0000000000001178 .LASF1425
C:\Users\stapi\AppData\Local\Temp\ccVMe8Sf.s:19904  .debug_str:00000000000037f5 .LASF1426
C:\Users\stapi\AppData\Local\Temp\ccVMe8Sf.s:18530  .debug_str:0000000000000e4f .LASF1427
C:\Users\stapi\AppData\Local\Temp\ccVMe8Sf.s:20514  .debug_str:0000000000004956 .LASF1428
C:\Users\stapi\AppData\Local\Temp\ccVMe8Sf.s:18754  .debug_str:00000000000014cb .LASF1429
C:\Users\stapi\AppData\Local\Temp\ccVMe8Sf.s:19712  .debug_str:00000000000030fe .LASF1430
C:\Users\stapi\AppData\Local\Temp\ccVMe8Sf.s:20792  .debug_str:0000000000005162 .LASF1431
C:\Users\stapi\AppData\Local\Temp\ccVMe8Sf.s:20440  .debug_str:00000000000046fc .LASF1432
C:\Users\stapi\AppData\Local\Temp\ccVMe8Sf.s:18624  .debug_str:000000000000110f .LASF1433
C:\Users\stapi\AppData\Local\Temp\ccVMe8Sf.s:18592  .debug_str:000000000000101c .LASF1434
C:\Users\stapi\AppData\Local\Temp\ccVMe8Sf.s:18672  .debug_str:0000000000001262 .LASF1435
C:\Users\stapi\AppData\Local\Temp\ccVMe8Sf.s:19604  .debug_str:0000000000002dcd .LASF1436
C:\Users\stapi\AppData\Local\Temp\ccVMe8Sf.s:19392  .debug_str:00000000000027b0 .LASF1437
C:\Users\stapi\AppData\Local\Temp\ccVMe8Sf.s:19152  .debug_str:0000000000002022 .LASF1438
C:\Users\stapi\AppData\Local\Temp\ccVMe8Sf.s:18178  .debug_str:0000000000000444 .LASF1439
C:\Users\stapi\AppData\Local\Temp\ccVMe8Sf.s:18602  .debug_str:0000000000001077 .LASF1440
C:\Users\stapi\AppData\Local\Temp\ccVMe8Sf.s:19982  .debug_str:0000000000003a58 .LASF1441
C:\Users\stapi\AppData\Local\Temp\ccVMe8Sf.s:18102  .debug_str:0000000000000189 .LASF1442
C:\Users\stapi\AppData\Local\Temp\ccVMe8Sf.s:20196  .debug_str:0000000000004017 .LASF1443
C:\Users\stapi\AppData\Local\Temp\ccVMe8Sf.s:20508  .debug_str:000000000000491d .LASF1444
C:\Users\stapi\AppData\Local\Temp\ccVMe8Sf.s:20408  .debug_str:0000000000004606 .LASF1445
C:\Users\stapi\AppData\Local\Temp\ccVMe8Sf.s:18216  .debug_str:0000000000000555 .LASF1446
C:\Users\stapi\AppData\Local\Temp\ccVMe8Sf.s:20240  .debug_str:0000000000004140 .LASF1447
C:\Users\stapi\AppData\Local\Temp\ccVMe8Sf.s:19164  .debug_str:000000000000208a .LASF1448
C:\Users\stapi\AppData\Local\Temp\ccVMe8Sf.s:19262  .debug_str:0000000000002377 .LASF1449
C:\Users\stapi\AppData\Local\Temp\ccVMe8Sf.s:20708  .debug_str:0000000000004ee7 .LASF1450
C:\Users\stapi\AppData\Local\Temp\ccVMe8Sf.s:20464  .debug_str:00000000000047b5 .LASF1451
C:\Users\stapi\AppData\Local\Temp\ccVMe8Sf.s:20690  .debug_str:0000000000004e49 .LASF1452
C:\Users\stapi\AppData\Local\Temp\ccVMe8Sf.s:18234  .debug_str:00000000000005e1 .LASF1453
C:\Users\stapi\AppData\Local\Temp\ccVMe8Sf.s:19844  .debug_str:000000000000361a .LASF1454
C:\Users\stapi\AppData\Local\Temp\ccVMe8Sf.s:18444  .debug_str:0000000000000bb0 .LASF1455
C:\Users\stapi\AppData\Local\Temp\ccVMe8Sf.s:20750  .debug_str:0000000000005017 .LASF1456
C:\Users\stapi\AppData\Local\Temp\ccVMe8Sf.s:19078  .debug_str:0000000000001dfc .LASF1457
C:\Users\stapi\AppData\Local\Temp\ccVMe8Sf.s:19516  .debug_str:0000000000002b2f .LASF1458
C:\Users\stapi\AppData\Local\Temp\ccVMe8Sf.s:19034  .debug_str:0000000000001cdf .LASF1459
C:\Users\stapi\AppData\Local\Temp\ccVMe8Sf.s:20090  .debug_str:0000000000003d14 .LASF1460
C:\Users\stapi\AppData\Local\Temp\ccVMe8Sf.s:18670  .debug_str:0000000000001258 .LASF1461
C:\Users\stapi\AppData\Local\Temp\ccVMe8Sf.s:18514  .debug_str:0000000000000ddc .LASF1462
C:\Users\stapi\AppData\Local\Temp\ccVMe8Sf.s:18626  .debug_str:000000000000111f .LASF1463
C:\Users\stapi\AppData\Local\Temp\ccVMe8Sf.s:19048  .debug_str:0000000000001d2c .LASF1464
C:\Users\stapi\AppData\Local\Temp\ccVMe8Sf.s:20630  .debug_str:0000000000004cb5 .LASF1465
C:\Users\stapi\AppData\Local\Temp\ccVMe8Sf.s:19460  .debug_str:00000000000029a2 .LASF1466
C:\Users\stapi\AppData\Local\Temp\ccVMe8Sf.s:18740  .debug_str:0000000000001477 .LASF1467
C:\Users\stapi\AppData\Local\Temp\ccVMe8Sf.s:19930  .debug_str:00000000000038b9 .LASF1468
C:\Users\stapi\AppData\Local\Temp\ccVMe8Sf.s:19752  .debug_str:0000000000003235 .LASF1469
C:\Users\stapi\AppData\Local\Temp\ccVMe8Sf.s:19542  .debug_str:0000000000002be2 .LASF1470
C:\Users\stapi\AppData\Local\Temp\ccVMe8Sf.s:19208  .debug_str:00000000000021cf .LASF1471
C:\Users\stapi\AppData\Local\Temp\ccVMe8Sf.s:19806  .debug_str:00000000000034c2 .LASF1472
C:\Users\stapi\AppData\Local\Temp\ccVMe8Sf.s:19968  .debug_str:00000000000039f9 .LASF1473
C:\Users\stapi\AppData\Local\Temp\ccVMe8Sf.s:19690  .debug_str:000000000000305f .LASF1474
C:\Users\stapi\AppData\Local\Temp\ccVMe8Sf.s:18964  .debug_str:0000000000001ae3 .LASF1475
C:\Users\stapi\AppData\Local\Temp\ccVMe8Sf.s:18728  .debug_str:0000000000001422 .LASF1476
C:\Users\stapi\AppData\Local\Temp\ccVMe8Sf.s:20096  .debug_str:0000000000003d38 .LASF1477
C:\Users\stapi\AppData\Local\Temp\ccVMe8Sf.s:19388  .debug_str:000000000000278b .LASF1478
C:\Users\stapi\AppData\Local\Temp\ccVMe8Sf.s:18980  .debug_str:0000000000001b5d .LASF1479
C:\Users\stapi\AppData\Local\Temp\ccVMe8Sf.s:18828  .debug_str:0000000000001710 .LASF1480
C:\Users\stapi\AppData\Local\Temp\ccVMe8Sf.s:20812  .debug_str:0000000000005219 .LASF1481
C:\Users\stapi\AppData\Local\Temp\ccVMe8Sf.s:20458  .debug_str:0000000000004786 .LASF1482
C:\Users\stapi\AppData\Local\Temp\ccVMe8Sf.s:20430  .debug_str:00000000000046bc .LASF1483
C:\Users\stapi\AppData\Local\Temp\ccVMe8Sf.s:18250  .debug_str:0000000000000641 .LASF1484
C:\Users\stapi\AppData\Local\Temp\ccVMe8Sf.s:19520  .debug_str:0000000000002b46 .LASF1485
C:\Users\stapi\AppData\Local\Temp\ccVMe8Sf.s:20928  .debug_str:00000000000055cc .LASF1486
C:\Users\stapi\AppData\Local\Temp\ccVMe8Sf.s:21072  .debug_str:0000000000005a26 .LASF1487
C:\Users\stapi\AppData\Local\Temp\ccVMe8Sf.s:20188  .debug_str:0000000000003fed .LASF1488
C:\Users\stapi\AppData\Local\Temp\ccVMe8Sf.s:19364  .debug_str:00000000000026b7 .LASF1489
C:\Users\stapi\AppData\Local\Temp\ccVMe8Sf.s:20654  .debug_str:0000000000004d48 .LASF1490
C:\Users\stapi\AppData\Local\Temp\ccVMe8Sf.s:20904  .debug_str:0000000000005530 .LASF1491
C:\Users\stapi\AppData\Local\Temp\ccVMe8Sf.s:19022  .debug_str:0000000000001c89 .LASF1495
C:\Users\stapi\AppData\Local\Temp\ccVMe8Sf.s:841    .text.hostapd_get_ht_capab:0000000000000000 .LFB175
C:\Users\stapi\AppData\Local\Temp\ccVMe8Sf.s:917    .text.hostapd_get_ht_capab:0000000000000062 .LFE175
C:\Users\stapi\AppData\Local\Temp\ccVMe8Sf.s:20338  .debug_str:0000000000004412 .LASF1492
C:\Users\stapi\AppData\Local\Temp\ccVMe8Sf.s:17415  .debug_loc:0000000000000000 .LLST22
C:\Users\stapi\AppData\Local\Temp\ccVMe8Sf.s:20820  .debug_str:000000000000524b .LASF1493
C:\Users\stapi\AppData\Local\Temp\ccVMe8Sf.s:17430  .debug_loc:0000000000000029 .LLST23
C:\Users\stapi\AppData\Local\Temp\ccVMe8Sf.s:20958  .debug_str:000000000000569e .LASF1494
C:\Users\stapi\AppData\Local\Temp\ccVMe8Sf.s:17448  .debug_loc:0000000000000055 .LLST24
C:\Users\stapi\AppData\Local\Temp\ccVMe8Sf.s:17463  .debug_loc:000000000000007e .LLST25
C:\Users\stapi\AppData\Local\Temp\ccVMe8Sf.s:863    .text.hostapd_get_ht_capab:000000000000001a .LVL73
C:\Users\stapi\AppData\Local\Temp\ccVMe8Sf.s:19428  .debug_str:00000000000028c0 .LASF1496
C:\Users\stapi\AppData\Local\Temp\ccVMe8Sf.s:616    .text.update_ht_state:0000000000000000 .LFB174
C:\Users\stapi\AppData\Local\Temp\ccVMe8Sf.s:834    .text.update_ht_state:000000000000019c .LFE174
C:\Users\stapi\AppData\Local\Temp\ccVMe8Sf.s:17505  .debug_loc:00000000000000ca .LLST17
C:\Users\stapi\AppData\Local\Temp\ccVMe8Sf.s:17520  .debug_loc:00000000000000f3 .LLST18
C:\Users\stapi\AppData\Local\Temp\ccVMe8Sf.s:645    .text.update_ht_state:0000000000000020 .LBB13
C:\Users\stapi\AppData\Local\Temp\ccVMe8Sf.s:754    .text.update_ht_state:0000000000000110 .LBE13
C:\Users\stapi\AppData\Local\Temp\ccVMe8Sf.s:17531  .debug_loc:0000000000000111 .LLST19
C:\Users\stapi\AppData\Local\Temp\ccVMe8Sf.s:17542  .debug_loc:000000000000012f .LLST20
C:\Users\stapi\AppData\Local\Temp\ccVMe8Sf.s:17553  .debug_loc:000000000000014d .LLST21
C:\Users\stapi\AppData\Local\Temp\ccVMe8Sf.s:671    .text.update_ht_state:0000000000000058 .LVL62
C:\Users\stapi\AppData\Local\Temp\ccVMe8Sf.s:711    .text.update_ht_state:00000000000000ba .LVL63
C:\Users\stapi\AppData\Local\Temp\ccVMe8Sf.s:755    .text.update_ht_state:0000000000000110 .LBB15
C:\Users\stapi\AppData\Local\Temp\ccVMe8Sf.s:760    .text.update_ht_state:000000000000011a .LVL66
C:\Users\stapi\AppData\Local\Temp\ccVMe8Sf.s:768    .text.update_ht_state:0000000000000126 .LVL67
C:\Users\stapi\AppData\Local\Temp\ccVMe8Sf.s:774    .text.update_ht_state:0000000000000136 .LVL68
C:\Users\stapi\AppData\Local\Temp\ccVMe8Sf.s:18654  .debug_str:00000000000011da .LASF1497
C:\Users\stapi\AppData\Local\Temp\ccVMe8Sf.s:20042  .debug_str:0000000000003be3 .LASF1499
C:\Users\stapi\AppData\Local\Temp\ccVMe8Sf.s:20512  .debug_str:0000000000004948 .LASF1498
C:\Users\stapi\AppData\Local\Temp\ccVMe8Sf.s:19946  .debug_str:0000000000003929 .LASF1503
C:\Users\stapi\AppData\Local\Temp\ccVMe8Sf.s:492    .text.copy_sta_ht_capab:0000000000000000 .LFB171
C:\Users\stapi\AppData\Local\Temp\ccVMe8Sf.s:596    .text.copy_sta_ht_capab:000000000000007e .LFE171
C:\Users\stapi\AppData\Local\Temp\ccVMe8Sf.s:17560  .debug_loc:0000000000000160 .LLST14
C:\Users\stapi\AppData\Local\Temp\ccVMe8Sf.s:17578  .debug_loc:000000000000018c .LLST15
C:\Users\stapi\AppData\Local\Temp\ccVMe8Sf.s:17589  .debug_loc:00000000000001aa .LLST16
C:\Users\stapi\AppData\Local\Temp\ccVMe8Sf.s:537    .text.copy_sta_ht_capab:000000000000003a .LVL51
C:\Users\stapi\AppData\Local\Temp\ccVMe8Sf.s:575    .text.copy_sta_ht_capab:0000000000000064 .LVL54
C:\Users\stapi\AppData\Local\Temp\ccVMe8Sf.s:585    .text.copy_sta_ht_capab:0000000000000072 .LVL56
C:\Users\stapi\AppData\Local\Temp\ccVMe8Sf.s:19018  .debug_str:0000000000001c54 .LASF1519
C:\Users\stapi\AppData\Local\Temp\ccVMe8Sf.s:19012  .debug_str:0000000000001c2f .LASF1500
C:\Users\stapi\AppData\Local\Temp\ccVMe8Sf.s:18426  .debug_str:0000000000000b26 .LASF1501
C:\Users\stapi\AppData\Local\Temp\ccVMe8Sf.s:19998  .debug_str:0000000000003ac1 .LASF1502
C:\Users\stapi\AppData\Local\Temp\ccVMe8Sf.s:20894  .debug_str:00000000000054d5 .LASF1504
C:\Users\stapi\AppData\Local\Temp\ccVMe8Sf.s:198    .text.hostapd_eid_ht_operation:0000000000000000 .LFB168
C:\Users\stapi\AppData\Local\Temp\ccVMe8Sf.s:279    .text.hostapd_eid_ht_operation:0000000000000070 .LFE168
C:\Users\stapi\AppData\Local\Temp\ccVMe8Sf.s:17623  .debug_loc:00000000000001fb .LLST5
C:\Users\stapi\AppData\Local\Temp\ccVMe8Sf.s:17641  .debug_loc:0000000000000227 .LLST6
C:\Users\stapi\AppData\Local\Temp\ccVMe8Sf.s:20866  .debug_str:0000000000005398 .LASF1505
C:\Users\stapi\AppData\Local\Temp\ccVMe8Sf.s:17665  .debug_loc:0000000000000260 .LLST7
C:\Users\stapi\AppData\Local\Temp\ccVMe8Sf.s:17690  .debug_loc:000000000000029a .LLST8
C:\Users\stapi\AppData\Local\Temp\ccVMe8Sf.s:228    .text.hostapd_eid_ht_operation:0000000000000028 .LVL21
C:\Users\stapi\AppData\Local\Temp\ccVMe8Sf.s:249    .text.hostapd_eid_ht_operation:0000000000000048 .LVL26
C:\Users\stapi\AppData\Local\Temp\ccVMe8Sf.s:18680  .debug_str:00000000000012a2 .LASF1506
C:\Users\stapi\AppData\Local\Temp\ccVMe8Sf.s:14     .text.hostapd_eid_ht_capabilities:0000000000000000 .LFB167
C:\Users\stapi\AppData\Local\Temp\ccVMe8Sf.s:191    .text.hostapd_eid_ht_capabilities:0000000000000104 .LFE167
C:\Users\stapi\AppData\Local\Temp\ccVMe8Sf.s:17733  .debug_loc:0000000000000302 .LLST0
C:\Users\stapi\AppData\Local\Temp\ccVMe8Sf.s:17755  .debug_loc:0000000000000339 .LLST1
C:\Users\stapi\AppData\Local\Temp\ccVMe8Sf.s:17783  .debug_loc:000000000000037d .LLST2
C:\Users\stapi\AppData\Local\Temp\ccVMe8Sf.s:17814  .debug_loc:00000000000003c4 .LLST3
C:\Users\stapi\AppData\Local\Temp\ccVMe8Sf.s:118    .text.hostapd_eid_ht_capabilities:0000000000000094 .LBB2
C:\Users\stapi\AppData\Local\Temp\ccVMe8Sf.s:189    .text.hostapd_eid_ht_capabilities:0000000000000104 .LBE2
C:\Users\stapi\AppData\Local\Temp\ccVMe8Sf.s:20878  .debug_str:00000000000053dd .LASF1507
C:\Users\stapi\AppData\Local\Temp\ccVMe8Sf.s:17885  .debug_loc:000000000000046b .LLST4
C:\Users\stapi\AppData\Local\Temp\ccVMe8Sf.s:137    .text.hostapd_eid_ht_capabilities:00000000000000b2 .LVL15
C:\Users\stapi\AppData\Local\Temp\ccVMe8Sf.s:50     .text.hostapd_eid_ht_capabilities:0000000000000030 .LVL3
C:\Users\stapi\AppData\Local\Temp\ccVMe8Sf.s:71     .text.hostapd_eid_ht_capabilities:0000000000000050 .LVL8
C:\Users\stapi\AppData\Local\Temp\ccVMe8Sf.s:95     .text.hostapd_eid_ht_capabilities:0000000000000080 .LVL9
C:\Users\stapi\AppData\Local\Temp\ccVMe8Sf.s:293    .text.hostapd_ht_operation_update:0000000000000000 .LFB169
C:\Users\stapi\AppData\Local\Temp\ccVMe8Sf.s:485    .text.hostapd_ht_operation_update:00000000000000e8 .LFE169
C:\Users\stapi\AppData\Local\Temp\ccVMe8Sf.s:17910  .debug_loc:00000000000004a5 .LLST9
C:\Users\stapi\AppData\Local\Temp\ccVMe8Sf.s:317    .text.hostapd_ht_operation_update:0000000000000016 .LBB5
C:\Users\stapi\AppData\Local\Temp\ccVMe8Sf.s:17936  .debug_loc:00000000000004e7 .LLST10
C:\Users\stapi\AppData\Local\Temp\ccVMe8Sf.s:17951  .debug_loc:0000000000000510 .LLST11
C:\Users\stapi\AppData\Local\Temp\ccVMe8Sf.s:17972  .debug_loc:0000000000000539 .LLST12
C:\Users\stapi\AppData\Local\Temp\ccVMe8Sf.s:17979  .debug_loc:000000000000054c .LLST13
C:\Users\stapi\AppData\Local\Temp\ccVMe8Sf.s:331    .text.hostapd_ht_operation_update:0000000000000036 .LVL33
C:\Users\stapi\AppData\Local\Temp\ccVMe8Sf.s:426    .text.hostapd_ht_operation_update:00000000000000ba .LVL42
C:\Users\stapi\AppData\Local\Temp\ccVMe8Sf.s:19944  .debug_str:000000000000391f .LASF1508
C:\Users\stapi\AppData\Local\Temp\ccVMe8Sf.s:20988  .debug_str:0000000000005794 .LASF1509
C:\Users\stapi\AppData\Local\Temp\ccVMe8Sf.s:19426  .debug_str:00000000000028a9 .LASF1510
C:\Users\stapi\AppData\Local\Temp\ccVMe8Sf.s:19754  .debug_str:000000000000324a .LASF1511
C:\Users\stapi\AppData\Local\Temp\ccVMe8Sf.s:18860  .debug_str:00000000000017e4 .LASF1512
C:\Users\stapi\AppData\Local\Temp\ccVMe8Sf.s:21040  .debug_str:0000000000005923 .LASF1513
C:\Users\stapi\AppData\Local\Temp\ccVMe8Sf.s:18954  .debug_str:0000000000001aa8 .LASF1514
C:\Users\stapi\AppData\Local\Temp\ccVMe8Sf.s:844    .text.hostapd_get_ht_capab:0000000000000000 .LVL70
C:\Users\stapi\AppData\Local\Temp\ccVMe8Sf.s:861    .text.hostapd_get_ht_capab:0000000000000012 .LVL72
C:\Users\stapi\AppData\Local\Temp\ccVMe8Sf.s:913    .text.hostapd_get_ht_capab:0000000000000060 .LVL81
C:\Users\stapi\AppData\Local\Temp\ccVMe8Sf.s:859    .text.hostapd_get_ht_capab:0000000000000010 .LVL71
C:\Users\stapi\AppData\Local\Temp\ccVMe8Sf.s:870    .text.hostapd_get_ht_capab:0000000000000026 .LVL74
C:\Users\stapi\AppData\Local\Temp\ccVMe8Sf.s:886    .text.hostapd_get_ht_capab:000000000000003c .LVL76
C:\Users\stapi\AppData\Local\Temp\ccVMe8Sf.s:888    .text.hostapd_get_ht_capab:0000000000000040 .LVL77
C:\Users\stapi\AppData\Local\Temp\ccVMe8Sf.s:897    .text.hostapd_get_ht_capab:000000000000004a .LVL78
C:\Users\stapi\AppData\Local\Temp\ccVMe8Sf.s:899    .text.hostapd_get_ht_capab:000000000000004e .LVL79
C:\Users\stapi\AppData\Local\Temp\ccVMe8Sf.s:905    .text.hostapd_get_ht_capab:0000000000000054 .LVL80
C:\Users\stapi\AppData\Local\Temp\ccVMe8Sf.s:619    .text.update_ht_state:0000000000000000 .LVL57
C:\Users\stapi\AppData\Local\Temp\ccVMe8Sf.s:654    .text.update_ht_state:000000000000002a .LVL59
C:\Users\stapi\AppData\Local\Temp\ccVMe8Sf.s:786    .text.update_ht_state:0000000000000140 .LVL69
C:\Users\stapi\AppData\Local\Temp\ccVMe8Sf.s:668    .text.update_ht_state:000000000000004c .LVL61
C:\Users\stapi\AppData\Local\Temp\ccVMe8Sf.s:644    .text.update_ht_state:0000000000000020 .LVL58
C:\Users\stapi\AppData\Local\Temp\ccVMe8Sf.s:751    .text.update_ht_state:0000000000000110 .LVL65
C:\Users\stapi\AppData\Local\Temp\ccVMe8Sf.s:658    .text.update_ht_state:000000000000002e .LVL60
C:\Users\stapi\AppData\Local\Temp\ccVMe8Sf.s:716    .text.update_ht_state:00000000000000bc .LVL64
C:\Users\stapi\AppData\Local\Temp\ccVMe8Sf.s:495    .text.copy_sta_ht_capab:0000000000000000 .LVL48
C:\Users\stapi\AppData\Local\Temp\ccVMe8Sf.s:507    .text.copy_sta_ht_capab:0000000000000010 .LVL49
C:\Users\stapi\AppData\Local\Temp\ccVMe8Sf.s:526    .text.copy_sta_ht_capab:0000000000000026 .LVL50
C:\Users\stapi\AppData\Local\Temp\ccVMe8Sf.s:555    .text.copy_sta_ht_capab:000000000000004a .LVL52
C:\Users\stapi\AppData\Local\Temp\ccVMe8Sf.s:562    .text.copy_sta_ht_capab:000000000000004e .LVL53
C:\Users\stapi\AppData\Local\Temp\ccVMe8Sf.s:577    .text.copy_sta_ht_capab:0000000000000066 .LVL55
C:\Users\stapi\AppData\Local\Temp\ccVMe8Sf.s:201    .text.hostapd_eid_ht_operation:0000000000000000 .LVL18
C:\Users\stapi\AppData\Local\Temp\ccVMe8Sf.s:226    .text.hostapd_eid_ht_operation:0000000000000020 .LVL20
C:\Users\stapi\AppData\Local\Temp\ccVMe8Sf.s:268    .text.hostapd_eid_ht_operation:0000000000000066 .LVL28
C:\Users\stapi\AppData\Local\Temp\ccVMe8Sf.s:255    .text.hostapd_eid_ht_operation:000000000000004c .LVL27
C:\Users\stapi\AppData\Local\Temp\ccVMe8Sf.s:242    .text.hostapd_eid_ht_operation:0000000000000038 .LVL24
C:\Users\stapi\AppData\Local\Temp\ccVMe8Sf.s:245    .text.hostapd_eid_ht_operation:000000000000003c .LVL25
C:\Users\stapi\AppData\Local\Temp\ccVMe8Sf.s:213    .text.hostapd_eid_ht_operation:000000000000000c .LVL19
C:\Users\stapi\AppData\Local\Temp\ccVMe8Sf.s:232    .text.hostapd_eid_ht_operation:000000000000002a .LVL22
C:\Users\stapi\AppData\Local\Temp\ccVMe8Sf.s:237    .text.hostapd_eid_ht_operation:0000000000000032 .LVL23
C:\Users\stapi\AppData\Local\Temp\ccVMe8Sf.s:18     .text.hostapd_eid_ht_capabilities:0000000000000000 .LVL0
C:\Users\stapi\AppData\Local\Temp\ccVMe8Sf.s:48     .text.hostapd_eid_ht_capabilities:0000000000000028 .LVL2
C:\Users\stapi\AppData\Local\Temp\ccVMe8Sf.s:105    .text.hostapd_eid_ht_capabilities:000000000000008a .LVL10
C:\Users\stapi\AppData\Local\Temp\ccVMe8Sf.s:115    .text.hostapd_eid_ht_capabilities:0000000000000094 .LVL11
C:\Users\stapi\AppData\Local\Temp\ccVMe8Sf.s:145    .text.hostapd_eid_ht_capabilities:00000000000000ba .LVL16
C:\Users\stapi\AppData\Local\Temp\ccVMe8Sf.s:64     .text.hostapd_eid_ht_capabilities:0000000000000040 .LVL6
C:\Users\stapi\AppData\Local\Temp\ccVMe8Sf.s:69     .text.hostapd_eid_ht_capabilities:0000000000000048 .LVL7
C:\Users\stapi\AppData\Local\Temp\ccVMe8Sf.s:30     .text.hostapd_eid_ht_capabilities:000000000000000c .LVL1
C:\Users\stapi\AppData\Local\Temp\ccVMe8Sf.s:54     .text.hostapd_eid_ht_capabilities:0000000000000032 .LVL4
C:\Users\stapi\AppData\Local\Temp\ccVMe8Sf.s:59     .text.hostapd_eid_ht_capabilities:000000000000003a .LVL5
C:\Users\stapi\AppData\Local\Temp\ccVMe8Sf.s:125    .text.hostapd_eid_ht_capabilities:000000000000009c .LVL12
C:\Users\stapi\AppData\Local\Temp\ccVMe8Sf.s:133    .text.hostapd_eid_ht_capabilities:00000000000000a6 .LVL14
C:\Users\stapi\AppData\Local\Temp\ccVMe8Sf.s:187    .text.hostapd_eid_ht_capabilities:0000000000000102 .LVL17
C:\Users\stapi\AppData\Local\Temp\ccVMe8Sf.s:130    .text.hostapd_eid_ht_capabilities:00000000000000a2 .LVL13
C:\Users\stapi\AppData\Local\Temp\ccVMe8Sf.s:296    .text.hostapd_ht_operation_update:0000000000000000 .LVL29
C:\Users\stapi\AppData\Local\Temp\ccVMe8Sf.s:329    .text.hostapd_ht_operation_update:000000000000002e .LVL32
C:\Users\stapi\AppData\Local\Temp\ccVMe8Sf.s:440    .text.hostapd_ht_operation_update:00000000000000c4 .LVL43
C:\Users\stapi\AppData\Local\Temp\ccVMe8Sf.s:477    .text.hostapd_ht_operation_update:00000000000000e4 .LVL47
C:\Users\stapi\AppData\Local\Temp\ccVMe8Sf.s:324    .text.hostapd_ht_operation_update:0000000000000024 .LVL31
C:\Users\stapi\AppData\Local\Temp\ccVMe8Sf.s:398    .text.hostapd_ht_operation_update:000000000000008c .LVL37
C:\Users\stapi\AppData\Local\Temp\ccVMe8Sf.s:407    .text.hostapd_ht_operation_update:0000000000000096 .LVL38
C:\Users\stapi\AppData\Local\Temp\ccVMe8Sf.s:412    .text.hostapd_ht_operation_update:000000000000009c .LVL40
C:\Users\stapi\AppData\Local\Temp\ccVMe8Sf.s:394    .text.hostapd_ht_operation_update:0000000000000088 .LVL36
C:\Users\stapi\AppData\Local\Temp\ccVMe8Sf.s:410    .text.hostapd_ht_operation_update:0000000000000098 .LVL39
C:\Users\stapi\AppData\Local\Temp\ccVMe8Sf.s:346    .text.hostapd_ht_operation_update:000000000000004c .LVL34
C:\Users\stapi\AppData\Local\Temp\ccVMe8Sf.s:416    .text.hostapd_ht_operation_update:000000000000009e .LVL41
C:\Users\stapi\AppData\Local\Temp\ccVMe8Sf.s:454    .text.hostapd_ht_operation_update:00000000000000cc .LVL44
C:\Users\stapi\AppData\Local\Temp\ccVMe8Sf.s:458    .text.hostapd_ht_operation_update:00000000000000d0 .LVL45
C:\Users\stapi\AppData\Local\Temp\ccVMe8Sf.s:966    .debug_info:0000000000000000 .Ldebug_info0
C:\Users\stapi\AppData\Local\Temp\ccVMe8Sf.s:430    .text.hostapd_ht_operation_update:00000000000000ba .LBE5
C:\Users\stapi\AppData\Local\Temp\ccVMe8Sf.s:443    .text.hostapd_ht_operation_update:00000000000000c4 .LBB8
C:\Users\stapi\AppData\Local\Temp\ccVMe8Sf.s:480    .text.hostapd_ht_operation_update:00000000000000e4 .LBE8
C:\Users\stapi\AppData\Local\Temp\ccVMe8Sf.s:763    .text.update_ht_state:000000000000011a .LBE15
C:\Users\stapi\AppData\Local\Temp\ccVMe8Sf.s:790    .text.update_ht_state:0000000000000140 .LBB18
C:\Users\stapi\AppData\Local\Temp\ccVMe8Sf.s:832    .text.update_ht_state:000000000000019c .LBE18

UNDEFINED SYMBOLS
__riscv_save_2
is_6ghz_op_class
os_memset
os_memcpy
__riscv_restore_2
__riscv_save_3
wpa_printf
__riscv_restore_3
__riscv_save_1
os_free
__riscv_restore_1
os_zalloc
ieee802_11_set_beacons
