   1              		.file	"ieee802_11_vht.c"
   2              		.option nopic
   3              		.attribute arch, "rv32i2p0_m2p0_a2p0_f2p0_c2p0_b_p0p94"
   4              		.attribute unaligned_access, 0
   5              		.attribute stack_align, 16
   6              		.text
   7              	.Ltext0:
   8              		.cfi_sections	.debug_frame
   9              		.section	.text.hostapd_eid_vht_capabilities,"ax",@progbits
  10              		.align	1
  11              		.globl	hostapd_eid_vht_capabilities
  13              	hostapd_eid_vht_capabilities:
  14              	.LFB139:
  15              		.file 1 "C:/Users/stapi/OneDrive/Desktop/GD32VW553/V1_MQTT_OK/GD32VW55X_Wifi_BLE_SDK/GD32VW55x_REL
   1:C:/Users/stapi/OneDrive/Desktop/GD32VW553/V1_MQTT_OK/GD32VW55X_Wifi_BLE_SDK/GD32VW55x_RELEASE_V1.0.2/MSDK/wpa_supplicant/src/ap\ieee802_11_vht.c **** /*
   2:C:/Users/stapi/OneDrive/Desktop/GD32VW553/V1_MQTT_OK/GD32VW55X_Wifi_BLE_SDK/GD32VW55x_RELEASE_V1.0.2/MSDK/wpa_supplicant/src/ap\ieee802_11_vht.c ****  * hostapd / IEEE 802.11ac VHT
   3:C:/Users/stapi/OneDrive/Desktop/GD32VW553/V1_MQTT_OK/GD32VW55X_Wifi_BLE_SDK/GD32VW55x_RELEASE_V1.0.2/MSDK/wpa_supplicant/src/ap\ieee802_11_vht.c ****  * Copyright (c) 2002-2009, Jouni Malinen <j@w1.fi>
   4:C:/Users/stapi/OneDrive/Desktop/GD32VW553/V1_MQTT_OK/GD32VW55X_Wifi_BLE_SDK/GD32VW55x_RELEASE_V1.0.2/MSDK/wpa_supplicant/src/ap\ieee802_11_vht.c ****  *
   5:C:/Users/stapi/OneDrive/Desktop/GD32VW553/V1_MQTT_OK/GD32VW55X_Wifi_BLE_SDK/GD32VW55x_RELEASE_V1.0.2/MSDK/wpa_supplicant/src/ap\ieee802_11_vht.c ****  * This program is free software; you can redistribute it and/or modify
   6:C:/Users/stapi/OneDrive/Desktop/GD32VW553/V1_MQTT_OK/GD32VW55X_Wifi_BLE_SDK/GD32VW55x_RELEASE_V1.0.2/MSDK/wpa_supplicant/src/ap\ieee802_11_vht.c ****  * it under the terms of BSD license
   7:C:/Users/stapi/OneDrive/Desktop/GD32VW553/V1_MQTT_OK/GD32VW55X_Wifi_BLE_SDK/GD32VW55x_RELEASE_V1.0.2/MSDK/wpa_supplicant/src/ap\ieee802_11_vht.c ****  *
   8:C:/Users/stapi/OneDrive/Desktop/GD32VW553/V1_MQTT_OK/GD32VW55X_Wifi_BLE_SDK/GD32VW55x_RELEASE_V1.0.2/MSDK/wpa_supplicant/src/ap\ieee802_11_vht.c ****  * See README and COPYING for more details.
   9:C:/Users/stapi/OneDrive/Desktop/GD32VW553/V1_MQTT_OK/GD32VW55X_Wifi_BLE_SDK/GD32VW55x_RELEASE_V1.0.2/MSDK/wpa_supplicant/src/ap\ieee802_11_vht.c ****  */
  10:C:/Users/stapi/OneDrive/Desktop/GD32VW553/V1_MQTT_OK/GD32VW55X_Wifi_BLE_SDK/GD32VW55x_RELEASE_V1.0.2/MSDK/wpa_supplicant/src/ap\ieee802_11_vht.c **** 
  11:C:/Users/stapi/OneDrive/Desktop/GD32VW553/V1_MQTT_OK/GD32VW55X_Wifi_BLE_SDK/GD32VW55x_RELEASE_V1.0.2/MSDK/wpa_supplicant/src/ap\ieee802_11_vht.c **** #include "utils/includes.h"
  12:C:/Users/stapi/OneDrive/Desktop/GD32VW553/V1_MQTT_OK/GD32VW55X_Wifi_BLE_SDK/GD32VW55x_RELEASE_V1.0.2/MSDK/wpa_supplicant/src/ap\ieee802_11_vht.c **** 
  13:C:/Users/stapi/OneDrive/Desktop/GD32VW553/V1_MQTT_OK/GD32VW55X_Wifi_BLE_SDK/GD32VW55x_RELEASE_V1.0.2/MSDK/wpa_supplicant/src/ap\ieee802_11_vht.c **** #include "utils/common.h"
  14:C:/Users/stapi/OneDrive/Desktop/GD32VW553/V1_MQTT_OK/GD32VW55X_Wifi_BLE_SDK/GD32VW55x_RELEASE_V1.0.2/MSDK/wpa_supplicant/src/ap\ieee802_11_vht.c **** #include "common/ieee802_11_defs.h"
  15:C:/Users/stapi/OneDrive/Desktop/GD32VW553/V1_MQTT_OK/GD32VW55X_Wifi_BLE_SDK/GD32VW55x_RELEASE_V1.0.2/MSDK/wpa_supplicant/src/ap\ieee802_11_vht.c **** #include "hostapd.h"
  16:C:/Users/stapi/OneDrive/Desktop/GD32VW553/V1_MQTT_OK/GD32VW55X_Wifi_BLE_SDK/GD32VW55x_RELEASE_V1.0.2/MSDK/wpa_supplicant/src/ap\ieee802_11_vht.c **** #include "ap_config.h"
  17:C:/Users/stapi/OneDrive/Desktop/GD32VW553/V1_MQTT_OK/GD32VW55X_Wifi_BLE_SDK/GD32VW55x_RELEASE_V1.0.2/MSDK/wpa_supplicant/src/ap\ieee802_11_vht.c **** #include "sta_info.h"
  18:C:/Users/stapi/OneDrive/Desktop/GD32VW553/V1_MQTT_OK/GD32VW55X_Wifi_BLE_SDK/GD32VW55x_RELEASE_V1.0.2/MSDK/wpa_supplicant/src/ap\ieee802_11_vht.c **** #include "beacon.h"
  19:C:/Users/stapi/OneDrive/Desktop/GD32VW553/V1_MQTT_OK/GD32VW55X_Wifi_BLE_SDK/GD32VW55x_RELEASE_V1.0.2/MSDK/wpa_supplicant/src/ap\ieee802_11_vht.c **** #include "ieee802_11.h"
  20:C:/Users/stapi/OneDrive/Desktop/GD32VW553/V1_MQTT_OK/GD32VW55X_Wifi_BLE_SDK/GD32VW55x_RELEASE_V1.0.2/MSDK/wpa_supplicant/src/ap\ieee802_11_vht.c **** #include "dfs.h"
  21:C:/Users/stapi/OneDrive/Desktop/GD32VW553/V1_MQTT_OK/GD32VW55X_Wifi_BLE_SDK/GD32VW55x_RELEASE_V1.0.2/MSDK/wpa_supplicant/src/ap\ieee802_11_vht.c **** 
  22:C:/Users/stapi/OneDrive/Desktop/GD32VW553/V1_MQTT_OK/GD32VW55X_Wifi_BLE_SDK/GD32VW55x_RELEASE_V1.0.2/MSDK/wpa_supplicant/src/ap\ieee802_11_vht.c **** 
  23:C:/Users/stapi/OneDrive/Desktop/GD32VW553/V1_MQTT_OK/GD32VW55X_Wifi_BLE_SDK/GD32VW55x_RELEASE_V1.0.2/MSDK/wpa_supplicant/src/ap\ieee802_11_vht.c **** u8 * hostapd_eid_vht_capabilities(struct hostapd_data *hapd, u8 *eid, u32 nsts)
  24:C:/Users/stapi/OneDrive/Desktop/GD32VW553/V1_MQTT_OK/GD32VW55X_Wifi_BLE_SDK/GD32VW55x_RELEASE_V1.0.2/MSDK/wpa_supplicant/src/ap\ieee802_11_vht.c **** {
  16              		.loc 1 24 1
  17              		.cfi_startproc
  18              	.LVL0:
  19 0000 17030000 		call	t0,__riscv_save_4
  19      E7020300 
  20              		.cfi_offset 19, -20
  21              		.cfi_offset 18, -16
  22              		.cfi_offset 9, -12
  23              		.cfi_offset 8, -8
  24              		.cfi_offset 1, -4
  25              		.cfi_def_cfa_offset 32
  25:C:/Users/stapi/OneDrive/Desktop/GD32VW553/V1_MQTT_OK/GD32VW55X_Wifi_BLE_SDK/GD32VW55x_RELEASE_V1.0.2/MSDK/wpa_supplicant/src/ap\ieee802_11_vht.c **** 	struct ieee80211_vht_capabilities *cap;
  26              		.loc 1 25 2
  26:C:/Users/stapi/OneDrive/Desktop/GD32VW553/V1_MQTT_OK/GD32VW55X_Wifi_BLE_SDK/GD32VW55x_RELEASE_V1.0.2/MSDK/wpa_supplicant/src/ap\ieee802_11_vht.c **** 	struct hostapd_hw_modes *mode = hapd->iface->current_mode;
  27              		.loc 1 26 2
  28              		.loc 1 26 27 is_stmt 0
  29 0008 1C41     		lw	a5,0(a0)
  24:C:/Users/stapi/OneDrive/Desktop/GD32VW553/V1_MQTT_OK/GD32VW55X_Wifi_BLE_SDK/GD32VW55x_RELEASE_V1.0.2/MSDK/wpa_supplicant/src/ap\ieee802_11_vht.c **** 	struct ieee80211_vht_capabilities *cap;
  30              		.loc 1 24 1
  31 000a 2E84     		mv	s0,a1
  32              		.loc 1 26 27
  33 000c 83A94746 		lw	s3,1124(a5)
  34              	.LVL1:
  27:C:/Users/stapi/OneDrive/Desktop/GD32VW553/V1_MQTT_OK/GD32VW55X_Wifi_BLE_SDK/GD32VW55x_RELEASE_V1.0.2/MSDK/wpa_supplicant/src/ap\ieee802_11_vht.c **** 	u8 *pos = eid;
  35              		.loc 1 27 2 is_stmt 1
  28:C:/Users/stapi/OneDrive/Desktop/GD32VW553/V1_MQTT_OK/GD32VW55X_Wifi_BLE_SDK/GD32VW55x_RELEASE_V1.0.2/MSDK/wpa_supplicant/src/ap\ieee802_11_vht.c **** 
  29:C:/Users/stapi/OneDrive/Desktop/GD32VW553/V1_MQTT_OK/GD32VW55X_Wifi_BLE_SDK/GD32VW55x_RELEASE_V1.0.2/MSDK/wpa_supplicant/src/ap\ieee802_11_vht.c **** 	if (!mode || is_6ghz_op_class(hapd->iconf->op_class))
  36              		.loc 1 29 2
  37              		.loc 1 29 5 is_stmt 0
  38 0010 6380090A 		beq	s3,zero,.L3
  39              		.loc 1 29 15 discriminator 1
  40 0014 5C41     		lw	a5,4(a0)
  41 0016 2A89     		mv	s2,a0
  42 0018 B284     		mv	s1,a2
  43 001a 03C58701 		lbu	a0,24(a5)
  44              	.LVL2:
  45 001e 97000000 		call	is_6ghz_op_class
  45      E7800000 
  46              	.LVL3:
  47              		.loc 1 29 12 discriminator 1
  48 0026 49E5     		bne	a0,zero,.L3
  30:C:/Users/stapi/OneDrive/Desktop/GD32VW553/V1_MQTT_OK/GD32VW55X_Wifi_BLE_SDK/GD32VW55x_RELEASE_V1.0.2/MSDK/wpa_supplicant/src/ap\ieee802_11_vht.c **** 		return eid;
  31:C:/Users/stapi/OneDrive/Desktop/GD32VW553/V1_MQTT_OK/GD32VW55X_Wifi_BLE_SDK/GD32VW55x_RELEASE_V1.0.2/MSDK/wpa_supplicant/src/ap\ieee802_11_vht.c **** 
  32:C:/Users/stapi/OneDrive/Desktop/GD32VW553/V1_MQTT_OK/GD32VW55X_Wifi_BLE_SDK/GD32VW55x_RELEASE_V1.0.2/MSDK/wpa_supplicant/src/ap\ieee802_11_vht.c **** 	if (mode->mode == HOSTAPD_MODE_IEEE80211G && hapd->conf->vendor_vht &&
  49              		.loc 1 32 2 is_stmt 1
  50              		.loc 1 32 5 is_stmt 0
  51 0028 03A70900 		lw	a4,0(s3)
  52 002c 8547     		li	a5,1
  53 002e 6315F702 		bne	a4,a5,.L5
  54              		.loc 1 32 57 discriminator 1
  55 0032 83278900 		lw	a5,8(s2)
  56              		.loc 1 32 44 discriminator 1
  57 0036 83A7C73A 		lw	a5,940(a5)
  58 003a 99CF     		beq	a5,zero,.L5
  59              		.loc 1 32 70 discriminator 2
  60 003c 83A78902 		lw	a5,40(s3)
  61 0040 81EF     		bne	a5,zero,.L5
  33:C:/Users/stapi/OneDrive/Desktop/GD32VW553/V1_MQTT_OK/GD32VW55X_Wifi_BLE_SDK/GD32VW55x_RELEASE_V1.0.2/MSDK/wpa_supplicant/src/ap\ieee802_11_vht.c **** 	    mode->vht_capab == 0 && hapd->iface->hw_features) {
  62              		.loc 1 33 34
  63 0042 03270900 		lw	a4,0(s2)
  64              		.loc 1 33 41
  65 0046 8327C745 		lw	a5,1116(a4)
  66              		.loc 1 33 27
  67 004a 99C7     		beq	a5,zero,.L5
  68              	.LBB4:
  34:C:/Users/stapi/OneDrive/Desktop/GD32VW553/V1_MQTT_OK/GD32VW55X_Wifi_BLE_SDK/GD32VW55x_RELEASE_V1.0.2/MSDK/wpa_supplicant/src/ap\ieee802_11_vht.c **** 		int i;
  35:C:/Users/stapi/OneDrive/Desktop/GD32VW553/V1_MQTT_OK/GD32VW55X_Wifi_BLE_SDK/GD32VW55x_RELEASE_V1.0.2/MSDK/wpa_supplicant/src/ap\ieee802_11_vht.c **** 
  36:C:/Users/stapi/OneDrive/Desktop/GD32VW553/V1_MQTT_OK/GD32VW55X_Wifi_BLE_SDK/GD32VW55x_RELEASE_V1.0.2/MSDK/wpa_supplicant/src/ap\ieee802_11_vht.c **** 		for (i = 0; i < hapd->iface->num_hw_features; i++) {
  69              		.loc 1 36 30
  70 004c 03260746 		lw	a2,1120(a4)
  37:C:/Users/stapi/OneDrive/Desktop/GD32VW553/V1_MQTT_OK/GD32VW55X_Wifi_BLE_SDK/GD32VW55x_RELEASE_V1.0.2/MSDK/wpa_supplicant/src/ap\ieee802_11_vht.c **** 			if (hapd->iface->hw_features[i].mode ==
  71              		.loc 1 37 7
  72 0050 8945     		li	a1,2
  36:C:/Users/stapi/OneDrive/Desktop/GD32VW553/V1_MQTT_OK/GD32VW55X_Wifi_BLE_SDK/GD32VW55x_RELEASE_V1.0.2/MSDK/wpa_supplicant/src/ap\ieee802_11_vht.c **** 			if (hapd->iface->hw_features[i].mode ==
  73              		.loc 1 36 10
  74 0052 0147     		li	a4,0
  75              	.L6:
  76              	.LVL4:
  36:C:/Users/stapi/OneDrive/Desktop/GD32VW553/V1_MQTT_OK/GD32VW55X_Wifi_BLE_SDK/GD32VW55x_RELEASE_V1.0.2/MSDK/wpa_supplicant/src/ap\ieee802_11_vht.c **** 			if (hapd->iface->hw_features[i].mode ==
  77              		.loc 1 36 15 is_stmt 1 discriminator 1
  36:C:/Users/stapi/OneDrive/Desktop/GD32VW553/V1_MQTT_OK/GD32VW55X_Wifi_BLE_SDK/GD32VW55x_RELEASE_V1.0.2/MSDK/wpa_supplicant/src/ap\ieee802_11_vht.c **** 			if (hapd->iface->hw_features[i].mode ==
  78              		.loc 1 36 3 is_stmt 0 discriminator 1
  79 0054 6343C706 		bgt	a2,a4,.L7
  80              	.LVL5:
  81              	.L5:
  82              	.LBE4:
  38:C:/Users/stapi/OneDrive/Desktop/GD32VW553/V1_MQTT_OK/GD32VW55X_Wifi_BLE_SDK/GD32VW55x_RELEASE_V1.0.2/MSDK/wpa_supplicant/src/ap\ieee802_11_vht.c **** 			    HOSTAPD_MODE_IEEE80211A) {
  39:C:/Users/stapi/OneDrive/Desktop/GD32VW553/V1_MQTT_OK/GD32VW55X_Wifi_BLE_SDK/GD32VW55x_RELEASE_V1.0.2/MSDK/wpa_supplicant/src/ap\ieee802_11_vht.c **** 				mode = &hapd->iface->hw_features[i];
  40:C:/Users/stapi/OneDrive/Desktop/GD32VW553/V1_MQTT_OK/GD32VW55X_Wifi_BLE_SDK/GD32VW55x_RELEASE_V1.0.2/MSDK/wpa_supplicant/src/ap\ieee802_11_vht.c **** 				break;
  41:C:/Users/stapi/OneDrive/Desktop/GD32VW553/V1_MQTT_OK/GD32VW55X_Wifi_BLE_SDK/GD32VW55x_RELEASE_V1.0.2/MSDK/wpa_supplicant/src/ap\ieee802_11_vht.c **** 			}
  42:C:/Users/stapi/OneDrive/Desktop/GD32VW553/V1_MQTT_OK/GD32VW55X_Wifi_BLE_SDK/GD32VW55x_RELEASE_V1.0.2/MSDK/wpa_supplicant/src/ap\ieee802_11_vht.c **** 		}
  43:C:/Users/stapi/OneDrive/Desktop/GD32VW553/V1_MQTT_OK/GD32VW55X_Wifi_BLE_SDK/GD32VW55x_RELEASE_V1.0.2/MSDK/wpa_supplicant/src/ap\ieee802_11_vht.c **** 	}
  44:C:/Users/stapi/OneDrive/Desktop/GD32VW553/V1_MQTT_OK/GD32VW55X_Wifi_BLE_SDK/GD32VW55x_RELEASE_V1.0.2/MSDK/wpa_supplicant/src/ap\ieee802_11_vht.c **** 
  45:C:/Users/stapi/OneDrive/Desktop/GD32VW553/V1_MQTT_OK/GD32VW55X_Wifi_BLE_SDK/GD32VW55x_RELEASE_V1.0.2/MSDK/wpa_supplicant/src/ap\ieee802_11_vht.c **** 	*pos++ = WLAN_EID_VHT_CAP;
  83              		.loc 1 45 2 is_stmt 1
  84              		.loc 1 45 9 is_stmt 0
  85 0058 9307F0FB 		li	a5,-65
  86 005c 2300F400 		sb	a5,0(s0)
  46:C:/Users/stapi/OneDrive/Desktop/GD32VW553/V1_MQTT_OK/GD32VW55X_Wifi_BLE_SDK/GD32VW55x_RELEASE_V1.0.2/MSDK/wpa_supplicant/src/ap\ieee802_11_vht.c **** 	*pos++ = sizeof(*cap);
  87              		.loc 1 46 2 is_stmt 1
  88              	.LVL6:
  89              		.loc 1 46 9 is_stmt 0
  90 0060 B147     		li	a5,12
  91 0062 A300F400 		sb	a5,1(s0)
  47:C:/Users/stapi/OneDrive/Desktop/GD32VW553/V1_MQTT_OK/GD32VW55X_Wifi_BLE_SDK/GD32VW55x_RELEASE_V1.0.2/MSDK/wpa_supplicant/src/ap\ieee802_11_vht.c **** 
  48:C:/Users/stapi/OneDrive/Desktop/GD32VW553/V1_MQTT_OK/GD32VW55X_Wifi_BLE_SDK/GD32VW55x_RELEASE_V1.0.2/MSDK/wpa_supplicant/src/ap\ieee802_11_vht.c **** 	cap = (struct ieee80211_vht_capabilities *) pos;
  92              		.loc 1 48 2 is_stmt 1
  93              	.LVL7:
  49:C:/Users/stapi/OneDrive/Desktop/GD32VW553/V1_MQTT_OK/GD32VW55X_Wifi_BLE_SDK/GD32VW55x_RELEASE_V1.0.2/MSDK/wpa_supplicant/src/ap\ieee802_11_vht.c **** 	os_memset(cap, 0, sizeof(*cap));
  94              		.loc 1 49 2
  95 0066 3146     		li	a2,12
  96 0068 8145     		li	a1,0
  97 006a 13052400 		addi	a0,s0,2
  98              	.LVL8:
  99 006e 97000000 		call	os_memset
  99      E7800000 
 100              	.LVL9:
  50:C:/Users/stapi/OneDrive/Desktop/GD32VW553/V1_MQTT_OK/GD32VW55X_Wifi_BLE_SDK/GD32VW55x_RELEASE_V1.0.2/MSDK/wpa_supplicant/src/ap\ieee802_11_vht.c **** 	cap->vht_capabilities_info = host_to_le32(
 101              		.loc 1 50 2
 102              		.loc 1 50 31 is_stmt 0
 103 0076 83270900 		lw	a5,0(s2)
 104 007a DC47     		lw	a5,12(a5)
 105 007c 83A74713 		lw	a5,308(a5)
  51:C:/Users/stapi/OneDrive/Desktop/GD32VW553/V1_MQTT_OK/GD32VW55X_Wifi_BLE_SDK/GD32VW55x_RELEASE_V1.0.2/MSDK/wpa_supplicant/src/ap\ieee802_11_vht.c **** 		hapd->iface->conf->vht_capab);
  52:C:/Users/stapi/OneDrive/Desktop/GD32VW553/V1_MQTT_OK/GD32VW55X_Wifi_BLE_SDK/GD32VW55x_RELEASE_V1.0.2/MSDK/wpa_supplicant/src/ap\ieee802_11_vht.c **** 
  53:C:/Users/stapi/OneDrive/Desktop/GD32VW553/V1_MQTT_OK/GD32VW55X_Wifi_BLE_SDK/GD32VW55x_RELEASE_V1.0.2/MSDK/wpa_supplicant/src/ap\ieee802_11_vht.c **** 	if (nsts != 0) {
 106              		.loc 1 53 2 is_stmt 1
 107              		.loc 1 53 5 is_stmt 0
 108 0080 B9E4     		bne	s1,zero,.L8
  50:C:/Users/stapi/OneDrive/Desktop/GD32VW553/V1_MQTT_OK/GD32VW55X_Wifi_BLE_SDK/GD32VW55x_RELEASE_V1.0.2/MSDK/wpa_supplicant/src/ap\ieee802_11_vht.c **** 	cap->vht_capabilities_info = host_to_le32(
 109              		.loc 1 50 29
 110 0082 13D78700 		srli	a4,a5,8
 111 0086 2301F400 		sb	a5,2(s0)
 112 008a A301E400 		sb	a4,3(s0)
 113 008e 13D70701 		srli	a4,a5,16
 114 0092 E183     		srli	a5,a5,24
 115 0094 2302E400 		sb	a4,4(s0)
 116 0098 A302F400 		sb	a5,5(s0)
 117              	.L9:
  54:C:/Users/stapi/OneDrive/Desktop/GD32VW553/V1_MQTT_OK/GD32VW55X_Wifi_BLE_SDK/GD32VW55x_RELEASE_V1.0.2/MSDK/wpa_supplicant/src/ap\ieee802_11_vht.c **** 		u32 hapd_nsts;
  55:C:/Users/stapi/OneDrive/Desktop/GD32VW553/V1_MQTT_OK/GD32VW55X_Wifi_BLE_SDK/GD32VW55x_RELEASE_V1.0.2/MSDK/wpa_supplicant/src/ap\ieee802_11_vht.c **** 
  56:C:/Users/stapi/OneDrive/Desktop/GD32VW553/V1_MQTT_OK/GD32VW55X_Wifi_BLE_SDK/GD32VW55x_RELEASE_V1.0.2/MSDK/wpa_supplicant/src/ap\ieee802_11_vht.c **** 		hapd_nsts = le_to_host32(cap->vht_capabilities_info);
  57:C:/Users/stapi/OneDrive/Desktop/GD32VW553/V1_MQTT_OK/GD32VW55X_Wifi_BLE_SDK/GD32VW55x_RELEASE_V1.0.2/MSDK/wpa_supplicant/src/ap\ieee802_11_vht.c **** 		hapd_nsts = (hapd_nsts >> VHT_CAP_BEAMFORMEE_STS_OFFSET) & 7;
  58:C:/Users/stapi/OneDrive/Desktop/GD32VW553/V1_MQTT_OK/GD32VW55X_Wifi_BLE_SDK/GD32VW55x_RELEASE_V1.0.2/MSDK/wpa_supplicant/src/ap\ieee802_11_vht.c **** 		cap->vht_capabilities_info &=
  59:C:/Users/stapi/OneDrive/Desktop/GD32VW553/V1_MQTT_OK/GD32VW55X_Wifi_BLE_SDK/GD32VW55x_RELEASE_V1.0.2/MSDK/wpa_supplicant/src/ap\ieee802_11_vht.c **** 			~(host_to_le32(hapd_nsts <<
  60:C:/Users/stapi/OneDrive/Desktop/GD32VW553/V1_MQTT_OK/GD32VW55X_Wifi_BLE_SDK/GD32VW55x_RELEASE_V1.0.2/MSDK/wpa_supplicant/src/ap\ieee802_11_vht.c **** 				       VHT_CAP_BEAMFORMEE_STS_OFFSET));
  61:C:/Users/stapi/OneDrive/Desktop/GD32VW553/V1_MQTT_OK/GD32VW55X_Wifi_BLE_SDK/GD32VW55x_RELEASE_V1.0.2/MSDK/wpa_supplicant/src/ap\ieee802_11_vht.c **** 		cap->vht_capabilities_info |=
  62:C:/Users/stapi/OneDrive/Desktop/GD32VW553/V1_MQTT_OK/GD32VW55X_Wifi_BLE_SDK/GD32VW55x_RELEASE_V1.0.2/MSDK/wpa_supplicant/src/ap\ieee802_11_vht.c **** 			host_to_le32(nsts << VHT_CAP_BEAMFORMEE_STS_OFFSET);
  63:C:/Users/stapi/OneDrive/Desktop/GD32VW553/V1_MQTT_OK/GD32VW55X_Wifi_BLE_SDK/GD32VW55x_RELEASE_V1.0.2/MSDK/wpa_supplicant/src/ap\ieee802_11_vht.c **** 	}
  64:C:/Users/stapi/OneDrive/Desktop/GD32VW553/V1_MQTT_OK/GD32VW55X_Wifi_BLE_SDK/GD32VW55x_RELEASE_V1.0.2/MSDK/wpa_supplicant/src/ap\ieee802_11_vht.c **** 
  65:C:/Users/stapi/OneDrive/Desktop/GD32VW553/V1_MQTT_OK/GD32VW55X_Wifi_BLE_SDK/GD32VW55x_RELEASE_V1.0.2/MSDK/wpa_supplicant/src/ap\ieee802_11_vht.c **** 	/* Supported MCS set comes from hw */
  66:C:/Users/stapi/OneDrive/Desktop/GD32VW553/V1_MQTT_OK/GD32VW55X_Wifi_BLE_SDK/GD32VW55x_RELEASE_V1.0.2/MSDK/wpa_supplicant/src/ap\ieee802_11_vht.c **** 	os_memcpy(&cap->vht_supported_mcs_set, mode->vht_mcs_set, 8);
 118              		.loc 1 66 2 is_stmt 1
 119 009c 13056400 		addi	a0,s0,6
 120 00a0 2146     		li	a2,8
 121 00a2 9385C902 		addi	a1,s3,44
 122 00a6 97000000 		call	os_memcpy
 122      E7800000 
 123              	.LVL10:
  67:C:/Users/stapi/OneDrive/Desktop/GD32VW553/V1_MQTT_OK/GD32VW55X_Wifi_BLE_SDK/GD32VW55x_RELEASE_V1.0.2/MSDK/wpa_supplicant/src/ap\ieee802_11_vht.c **** 
  68:C:/Users/stapi/OneDrive/Desktop/GD32VW553/V1_MQTT_OK/GD32VW55X_Wifi_BLE_SDK/GD32VW55x_RELEASE_V1.0.2/MSDK/wpa_supplicant/src/ap\ieee802_11_vht.c **** 	pos += sizeof(*cap);
 124              		.loc 1 68 2
 125              		.loc 1 68 6 is_stmt 0
 126 00ae 3904     		addi	s0,s0,14
 127              	.LVL11:
  69:C:/Users/stapi/OneDrive/Desktop/GD32VW553/V1_MQTT_OK/GD32VW55X_Wifi_BLE_SDK/GD32VW55x_RELEASE_V1.0.2/MSDK/wpa_supplicant/src/ap\ieee802_11_vht.c **** 
  70:C:/Users/stapi/OneDrive/Desktop/GD32VW553/V1_MQTT_OK/GD32VW55X_Wifi_BLE_SDK/GD32VW55x_RELEASE_V1.0.2/MSDK/wpa_supplicant/src/ap\ieee802_11_vht.c **** 	return pos;
 128              		.loc 1 70 2 is_stmt 1
 129              	.L3:
  71:C:/Users/stapi/OneDrive/Desktop/GD32VW553/V1_MQTT_OK/GD32VW55X_Wifi_BLE_SDK/GD32VW55x_RELEASE_V1.0.2/MSDK/wpa_supplicant/src/ap\ieee802_11_vht.c **** }
 130              		.loc 1 71 1 is_stmt 0
 131 00b0 2285     		mv	a0,s0
 132 00b2 17030000 		tail	__riscv_restore_4
 132      67000300 
 133              		.cfi_remember_state
 134              		.cfi_restore 19
 135              		.cfi_restore 18
 136              		.cfi_restore 9
 137              		.cfi_restore 8
 138              		.cfi_restore 1
 139              		.cfi_def_cfa_offset 0
 140              	.LVL12:
 141              	.L7:
 142              		.cfi_restore_state
 143              	.LBB5:
  37:C:/Users/stapi/OneDrive/Desktop/GD32VW553/V1_MQTT_OK/GD32VW55X_Wifi_BLE_SDK/GD32VW55x_RELEASE_V1.0.2/MSDK/wpa_supplicant/src/ap\ieee802_11_vht.c **** 			    HOSTAPD_MODE_IEEE80211A) {
 144              		.loc 1 37 4 is_stmt 1
  37:C:/Users/stapi/OneDrive/Desktop/GD32VW553/V1_MQTT_OK/GD32VW55X_Wifi_BLE_SDK/GD32VW55x_RELEASE_V1.0.2/MSDK/wpa_supplicant/src/ap\ieee802_11_vht.c **** 			    HOSTAPD_MODE_IEEE80211A) {
 145              		.loc 1 37 32 is_stmt 0
 146 00ba BE86     		mv	a3,a5
  37:C:/Users/stapi/OneDrive/Desktop/GD32VW553/V1_MQTT_OK/GD32VW55X_Wifi_BLE_SDK/GD32VW55x_RELEASE_V1.0.2/MSDK/wpa_supplicant/src/ap\ieee802_11_vht.c **** 			    HOSTAPD_MODE_IEEE80211A) {
 147              		.loc 1 37 7
 148 00bc 8843     		lw	a0,0(a5)
 149 00be 9387C719 		addi	a5,a5,412
 150 00c2 6304B500 		beq	a0,a1,.L10
  36:C:/Users/stapi/OneDrive/Desktop/GD32VW553/V1_MQTT_OK/GD32VW55X_Wifi_BLE_SDK/GD32VW55x_RELEASE_V1.0.2/MSDK/wpa_supplicant/src/ap\ieee802_11_vht.c **** 			if (hapd->iface->hw_features[i].mode ==
 151              		.loc 1 36 49 is_stmt 1 discriminator 2
  36:C:/Users/stapi/OneDrive/Desktop/GD32VW553/V1_MQTT_OK/GD32VW55X_Wifi_BLE_SDK/GD32VW55x_RELEASE_V1.0.2/MSDK/wpa_supplicant/src/ap\ieee802_11_vht.c **** 			if (hapd->iface->hw_features[i].mode ==
 152              		.loc 1 36 50 is_stmt 0 discriminator 2
 153 00c6 0507     		addi	a4,a4,1
 154              	.LVL13:
 155 00c8 71B7     		j	.L6
 156              	.L10:
  37:C:/Users/stapi/OneDrive/Desktop/GD32VW553/V1_MQTT_OK/GD32VW55X_Wifi_BLE_SDK/GD32VW55x_RELEASE_V1.0.2/MSDK/wpa_supplicant/src/ap\ieee802_11_vht.c **** 			    HOSTAPD_MODE_IEEE80211A) {
 157              		.loc 1 37 32
 158 00ca B689     		mv	s3,a3
 159              	.LVL14:
 160 00cc 71B7     		j	.L5
 161              	.LVL15:
 162              	.L8:
 163              	.LBE5:
 164              	.LBB6:
  54:C:/Users/stapi/OneDrive/Desktop/GD32VW553/V1_MQTT_OK/GD32VW55X_Wifi_BLE_SDK/GD32VW55x_RELEASE_V1.0.2/MSDK/wpa_supplicant/src/ap\ieee802_11_vht.c **** 
 165              		.loc 1 54 3 is_stmt 1
  56:C:/Users/stapi/OneDrive/Desktop/GD32VW553/V1_MQTT_OK/GD32VW55X_Wifi_BLE_SDK/GD32VW55x_RELEASE_V1.0.2/MSDK/wpa_supplicant/src/ap\ieee802_11_vht.c **** 		hapd_nsts = (hapd_nsts >> VHT_CAP_BEAMFORMEE_STS_OFFSET) & 7;
 166              		.loc 1 56 3
  57:C:/Users/stapi/OneDrive/Desktop/GD32VW553/V1_MQTT_OK/GD32VW55X_Wifi_BLE_SDK/GD32VW55x_RELEASE_V1.0.2/MSDK/wpa_supplicant/src/ap\ieee802_11_vht.c **** 		cap->vht_capabilities_info &=
 167              		.loc 1 57 3
  58:C:/Users/stapi/OneDrive/Desktop/GD32VW553/V1_MQTT_OK/GD32VW55X_Wifi_BLE_SDK/GD32VW55x_RELEASE_V1.0.2/MSDK/wpa_supplicant/src/ap\ieee802_11_vht.c **** 			~(host_to_le32(hapd_nsts <<
 168              		.loc 1 58 3
  61:C:/Users/stapi/OneDrive/Desktop/GD32VW553/V1_MQTT_OK/GD32VW55X_Wifi_BLE_SDK/GD32VW55x_RELEASE_V1.0.2/MSDK/wpa_supplicant/src/ap\ieee802_11_vht.c **** 			host_to_le32(nsts << VHT_CAP_BEAMFORMEE_STS_OFFSET);
 169              		.loc 1 61 3
  58:C:/Users/stapi/OneDrive/Desktop/GD32VW553/V1_MQTT_OK/GD32VW55X_Wifi_BLE_SDK/GD32VW55x_RELEASE_V1.0.2/MSDK/wpa_supplicant/src/ap\ieee802_11_vht.c **** 			~(host_to_le32(hapd_nsts <<
 170              		.loc 1 58 30 is_stmt 0
 171 00ce 4977     		li	a4,-57344
 172 00d0 7D17     		addi	a4,a4,-1
 173 00d2 F98F     		and	a5,a5,a4
 174              	.LVL16:
  62:C:/Users/stapi/OneDrive/Desktop/GD32VW553/V1_MQTT_OK/GD32VW55X_Wifi_BLE_SDK/GD32VW55x_RELEASE_V1.0.2/MSDK/wpa_supplicant/src/ap\ieee802_11_vht.c **** 	}
 175              		.loc 1 62 4
 176 00d4 1396D400 		slli	a2,s1,13
  61:C:/Users/stapi/OneDrive/Desktop/GD32VW553/V1_MQTT_OK/GD32VW55X_Wifi_BLE_SDK/GD32VW55x_RELEASE_V1.0.2/MSDK/wpa_supplicant/src/ap\ieee802_11_vht.c **** 			host_to_le32(nsts << VHT_CAP_BEAMFORMEE_STS_OFFSET);
 177              		.loc 1 61 30
 178 00d8 5D8E     		or	a2,a5,a2
 179 00da 2301F400 		sb	a5,2(s0)
 180 00de 93578600 		srli	a5,a2,8
 181 00e2 A301F400 		sb	a5,3(s0)
 182 00e6 93570601 		srli	a5,a2,16
 183 00ea 6182     		srli	a2,a2,24
 184 00ec 2302F400 		sb	a5,4(s0)
 185 00f0 A302C400 		sb	a2,5(s0)
 186 00f4 65B7     		j	.L9
 187              	.LBE6:
 188              		.cfi_endproc
 189              	.LFE139:
 191              		.section	.text.hostapd_eid_vht_operation,"ax",@progbits
 192              		.align	1
 193              		.globl	hostapd_eid_vht_operation
 195              	hostapd_eid_vht_operation:
 196              	.LFB140:
  72:C:/Users/stapi/OneDrive/Desktop/GD32VW553/V1_MQTT_OK/GD32VW55X_Wifi_BLE_SDK/GD32VW55x_RELEASE_V1.0.2/MSDK/wpa_supplicant/src/ap\ieee802_11_vht.c **** 
  73:C:/Users/stapi/OneDrive/Desktop/GD32VW553/V1_MQTT_OK/GD32VW55X_Wifi_BLE_SDK/GD32VW55x_RELEASE_V1.0.2/MSDK/wpa_supplicant/src/ap\ieee802_11_vht.c **** 
  74:C:/Users/stapi/OneDrive/Desktop/GD32VW553/V1_MQTT_OK/GD32VW55X_Wifi_BLE_SDK/GD32VW55x_RELEASE_V1.0.2/MSDK/wpa_supplicant/src/ap\ieee802_11_vht.c **** u8 * hostapd_eid_vht_operation(struct hostapd_data *hapd, u8 *eid)
  75:C:/Users/stapi/OneDrive/Desktop/GD32VW553/V1_MQTT_OK/GD32VW55X_Wifi_BLE_SDK/GD32VW55x_RELEASE_V1.0.2/MSDK/wpa_supplicant/src/ap\ieee802_11_vht.c **** {
 197              		.loc 1 75 1 is_stmt 1
 198              		.cfi_startproc
 199              	.LVL17:
 200 0000 17030000 		call	t0,__riscv_save_2
 200      E7020300 
 201              		.cfi_offset 9, -12
 202              		.cfi_offset 8, -8
 203              		.cfi_offset 1, -4
 204              		.cfi_def_cfa_offset 16
  76:C:/Users/stapi/OneDrive/Desktop/GD32VW553/V1_MQTT_OK/GD32VW55X_Wifi_BLE_SDK/GD32VW55x_RELEASE_V1.0.2/MSDK/wpa_supplicant/src/ap\ieee802_11_vht.c **** 	struct ieee80211_vht_operation *oper;
 205              		.loc 1 76 2
  77:C:/Users/stapi/OneDrive/Desktop/GD32VW553/V1_MQTT_OK/GD32VW55X_Wifi_BLE_SDK/GD32VW55x_RELEASE_V1.0.2/MSDK/wpa_supplicant/src/ap\ieee802_11_vht.c **** 	u8 *pos = eid;
 206              		.loc 1 77 2
  78:C:/Users/stapi/OneDrive/Desktop/GD32VW553/V1_MQTT_OK/GD32VW55X_Wifi_BLE_SDK/GD32VW55x_RELEASE_V1.0.2/MSDK/wpa_supplicant/src/ap\ieee802_11_vht.c **** 
  79:C:/Users/stapi/OneDrive/Desktop/GD32VW553/V1_MQTT_OK/GD32VW55X_Wifi_BLE_SDK/GD32VW55x_RELEASE_V1.0.2/MSDK/wpa_supplicant/src/ap\ieee802_11_vht.c **** 	if (is_6ghz_op_class(hapd->iconf->op_class))
 207              		.loc 1 79 6 is_stmt 0
 208 0008 5C41     		lw	a5,4(a0)
  75:C:/Users/stapi/OneDrive/Desktop/GD32VW553/V1_MQTT_OK/GD32VW55X_Wifi_BLE_SDK/GD32VW55x_RELEASE_V1.0.2/MSDK/wpa_supplicant/src/ap\ieee802_11_vht.c **** 	struct ieee80211_vht_operation *oper;
 209              		.loc 1 75 1
 210 000a AA84     		mv	s1,a0
 211 000c 2E84     		mv	s0,a1
 212              	.LVL18:
 213              		.loc 1 79 2 is_stmt 1
 214              		.loc 1 79 6 is_stmt 0
 215 000e 03C58701 		lbu	a0,24(a5)
 216              	.LVL19:
 217 0012 97000000 		call	is_6ghz_op_class
 217      E7800000 
 218              	.LVL20:
 219              		.loc 1 79 5
 220 001a 2DE1     		bne	a0,zero,.L19
 221              	.LVL21:
 222              	.LBB9:
 223              	.LBB10:
  80:C:/Users/stapi/OneDrive/Desktop/GD32VW553/V1_MQTT_OK/GD32VW55X_Wifi_BLE_SDK/GD32VW55x_RELEASE_V1.0.2/MSDK/wpa_supplicant/src/ap\ieee802_11_vht.c **** 		return eid;
  81:C:/Users/stapi/OneDrive/Desktop/GD32VW553/V1_MQTT_OK/GD32VW55X_Wifi_BLE_SDK/GD32VW55x_RELEASE_V1.0.2/MSDK/wpa_supplicant/src/ap\ieee802_11_vht.c **** 
  82:C:/Users/stapi/OneDrive/Desktop/GD32VW553/V1_MQTT_OK/GD32VW55X_Wifi_BLE_SDK/GD32VW55x_RELEASE_V1.0.2/MSDK/wpa_supplicant/src/ap\ieee802_11_vht.c **** 	*pos++ = WLAN_EID_VHT_OPERATION;
 224              		.loc 1 82 2 is_stmt 1
 225              		.loc 1 82 9 is_stmt 0
 226 001c 930700FC 		li	a5,-64
 227 0020 2300F400 		sb	a5,0(s0)
  83:C:/Users/stapi/OneDrive/Desktop/GD32VW553/V1_MQTT_OK/GD32VW55X_Wifi_BLE_SDK/GD32VW55x_RELEASE_V1.0.2/MSDK/wpa_supplicant/src/ap\ieee802_11_vht.c **** 	*pos++ = sizeof(*oper);
 228              		.loc 1 83 2 is_stmt 1
 229              	.LVL22:
 230              		.loc 1 83 9 is_stmt 0
 231 0024 9547     		li	a5,5
 232 0026 A300F400 		sb	a5,1(s0)
  84:C:/Users/stapi/OneDrive/Desktop/GD32VW553/V1_MQTT_OK/GD32VW55X_Wifi_BLE_SDK/GD32VW55x_RELEASE_V1.0.2/MSDK/wpa_supplicant/src/ap\ieee802_11_vht.c **** 
  85:C:/Users/stapi/OneDrive/Desktop/GD32VW553/V1_MQTT_OK/GD32VW55X_Wifi_BLE_SDK/GD32VW55x_RELEASE_V1.0.2/MSDK/wpa_supplicant/src/ap\ieee802_11_vht.c **** 	oper = (struct ieee80211_vht_operation *) pos;
 233              		.loc 1 85 2 is_stmt 1
 234              	.LVL23:
  86:C:/Users/stapi/OneDrive/Desktop/GD32VW553/V1_MQTT_OK/GD32VW55X_Wifi_BLE_SDK/GD32VW55x_RELEASE_V1.0.2/MSDK/wpa_supplicant/src/ap\ieee802_11_vht.c **** 	os_memset(oper, 0, sizeof(*oper));
 235              		.loc 1 86 2
 236 002a 1546     		li	a2,5
 237 002c 8145     		li	a1,0
 238 002e 13052400 		addi	a0,s0,2
 239              	.LVL24:
 240 0032 97000000 		call	os_memset
 240      E7800000 
 241              	.LVL25:
  87:C:/Users/stapi/OneDrive/Desktop/GD32VW553/V1_MQTT_OK/GD32VW55X_Wifi_BLE_SDK/GD32VW55x_RELEASE_V1.0.2/MSDK/wpa_supplicant/src/ap\ieee802_11_vht.c **** 
  88:C:/Users/stapi/OneDrive/Desktop/GD32VW553/V1_MQTT_OK/GD32VW55X_Wifi_BLE_SDK/GD32VW55x_RELEASE_V1.0.2/MSDK/wpa_supplicant/src/ap\ieee802_11_vht.c **** 	/*
  89:C:/Users/stapi/OneDrive/Desktop/GD32VW553/V1_MQTT_OK/GD32VW55X_Wifi_BLE_SDK/GD32VW55x_RELEASE_V1.0.2/MSDK/wpa_supplicant/src/ap\ieee802_11_vht.c **** 	 * center freq = 5 GHz + (5 * index)
  90:C:/Users/stapi/OneDrive/Desktop/GD32VW553/V1_MQTT_OK/GD32VW55X_Wifi_BLE_SDK/GD32VW55x_RELEASE_V1.0.2/MSDK/wpa_supplicant/src/ap\ieee802_11_vht.c **** 	 * So index 42 gives center freq 5.210 GHz
  91:C:/Users/stapi/OneDrive/Desktop/GD32VW553/V1_MQTT_OK/GD32VW55X_Wifi_BLE_SDK/GD32VW55x_RELEASE_V1.0.2/MSDK/wpa_supplicant/src/ap\ieee802_11_vht.c **** 	 * which is channel 42 in 5G band
  92:C:/Users/stapi/OneDrive/Desktop/GD32VW553/V1_MQTT_OK/GD32VW55X_Wifi_BLE_SDK/GD32VW55x_RELEASE_V1.0.2/MSDK/wpa_supplicant/src/ap\ieee802_11_vht.c **** 	 */
  93:C:/Users/stapi/OneDrive/Desktop/GD32VW553/V1_MQTT_OK/GD32VW55X_Wifi_BLE_SDK/GD32VW55x_RELEASE_V1.0.2/MSDK/wpa_supplicant/src/ap\ieee802_11_vht.c **** 	oper->vht_op_info_chan_center_freq_seg0_idx =
 242              		.loc 1 93 2
  94:C:/Users/stapi/OneDrive/Desktop/GD32VW553/V1_MQTT_OK/GD32VW55X_Wifi_BLE_SDK/GD32VW55x_RELEASE_V1.0.2/MSDK/wpa_supplicant/src/ap\ieee802_11_vht.c **** 		hapd->iconf->vht_oper_centr_freq_seg0_idx;
 243              		.loc 1 94 7 is_stmt 0
 244 003a D840     		lw	a4,4(s1)
  95:C:/Users/stapi/OneDrive/Desktop/GD32VW553/V1_MQTT_OK/GD32VW55X_Wifi_BLE_SDK/GD32VW55x_RELEASE_V1.0.2/MSDK/wpa_supplicant/src/ap\ieee802_11_vht.c **** 	oper->vht_op_info_chan_center_freq_seg1_idx =
  96:C:/Users/stapi/OneDrive/Desktop/GD32VW553/V1_MQTT_OK/GD32VW55X_Wifi_BLE_SDK/GD32VW55x_RELEASE_V1.0.2/MSDK/wpa_supplicant/src/ap\ieee802_11_vht.c **** 		hapd->iconf->vht_oper_centr_freq_seg1_idx;
  97:C:/Users/stapi/OneDrive/Desktop/GD32VW553/V1_MQTT_OK/GD32VW55X_Wifi_BLE_SDK/GD32VW55x_RELEASE_V1.0.2/MSDK/wpa_supplicant/src/ap\ieee802_11_vht.c **** 
  98:C:/Users/stapi/OneDrive/Desktop/GD32VW553/V1_MQTT_OK/GD32VW55X_Wifi_BLE_SDK/GD32VW55x_RELEASE_V1.0.2/MSDK/wpa_supplicant/src/ap\ieee802_11_vht.c **** 	oper->vht_op_info_chwidth = hapd->iconf->vht_oper_chwidth;
  99:C:/Users/stapi/OneDrive/Desktop/GD32VW553/V1_MQTT_OK/GD32VW55X_Wifi_BLE_SDK/GD32VW55x_RELEASE_V1.0.2/MSDK/wpa_supplicant/src/ap\ieee802_11_vht.c **** 	if (hapd->iconf->vht_oper_chwidth == 2) {
 245              		.loc 1 99 5
 246 003c 0946     		li	a2,2
  94:C:/Users/stapi/OneDrive/Desktop/GD32VW553/V1_MQTT_OK/GD32VW55X_Wifi_BLE_SDK/GD32VW55x_RELEASE_V1.0.2/MSDK/wpa_supplicant/src/ap\ieee802_11_vht.c **** 		hapd->iconf->vht_oper_centr_freq_seg0_idx;
 247              		.loc 1 94 14
 248 003e 83471714 		lbu	a5,321(a4)
  93:C:/Users/stapi/OneDrive/Desktop/GD32VW553/V1_MQTT_OK/GD32VW55X_Wifi_BLE_SDK/GD32VW55x_RELEASE_V1.0.2/MSDK/wpa_supplicant/src/ap\ieee802_11_vht.c **** 		hapd->iconf->vht_oper_centr_freq_seg0_idx;
 249              		.loc 1 93 46
 250 0042 A301F400 		sb	a5,3(s0)
  95:C:/Users/stapi/OneDrive/Desktop/GD32VW553/V1_MQTT_OK/GD32VW55X_Wifi_BLE_SDK/GD32VW55x_RELEASE_V1.0.2/MSDK/wpa_supplicant/src/ap\ieee802_11_vht.c **** 	oper->vht_op_info_chan_center_freq_seg1_idx =
 251              		.loc 1 95 2 is_stmt 1
  95:C:/Users/stapi/OneDrive/Desktop/GD32VW553/V1_MQTT_OK/GD32VW55X_Wifi_BLE_SDK/GD32VW55x_RELEASE_V1.0.2/MSDK/wpa_supplicant/src/ap\ieee802_11_vht.c **** 	oper->vht_op_info_chan_center_freq_seg1_idx =
 252              		.loc 1 95 46 is_stmt 0
 253 0046 83462714 		lbu	a3,322(a4)
 254 004a 2302D400 		sb	a3,4(s0)
  98:C:/Users/stapi/OneDrive/Desktop/GD32VW553/V1_MQTT_OK/GD32VW55X_Wifi_BLE_SDK/GD32VW55x_RELEASE_V1.0.2/MSDK/wpa_supplicant/src/ap\ieee802_11_vht.c **** 	if (hapd->iconf->vht_oper_chwidth == 2) {
 255              		.loc 1 98 2 is_stmt 1
  98:C:/Users/stapi/OneDrive/Desktop/GD32VW553/V1_MQTT_OK/GD32VW55X_Wifi_BLE_SDK/GD32VW55x_RELEASE_V1.0.2/MSDK/wpa_supplicant/src/ap\ieee802_11_vht.c **** 	if (hapd->iconf->vht_oper_chwidth == 2) {
 256              		.loc 1 98 41 is_stmt 0
 257 004e 83460714 		lbu	a3,320(a4)
 258              		.loc 1 99 2 is_stmt 1
 259              		.loc 1 99 5 is_stmt 0
 260 0052 639CC602 		bne	a3,a2,.L20
 100:C:/Users/stapi/OneDrive/Desktop/GD32VW553/V1_MQTT_OK/GD32VW55X_Wifi_BLE_SDK/GD32VW55x_RELEASE_V1.0.2/MSDK/wpa_supplicant/src/ap\ieee802_11_vht.c **** 		/*
 101:C:/Users/stapi/OneDrive/Desktop/GD32VW553/V1_MQTT_OK/GD32VW55X_Wifi_BLE_SDK/GD32VW55x_RELEASE_V1.0.2/MSDK/wpa_supplicant/src/ap\ieee802_11_vht.c **** 		 * Convert 160 MHz channel width to new style as interop
 102:C:/Users/stapi/OneDrive/Desktop/GD32VW553/V1_MQTT_OK/GD32VW55X_Wifi_BLE_SDK/GD32VW55x_RELEASE_V1.0.2/MSDK/wpa_supplicant/src/ap\ieee802_11_vht.c **** 		 * workaround.
 103:C:/Users/stapi/OneDrive/Desktop/GD32VW553/V1_MQTT_OK/GD32VW55X_Wifi_BLE_SDK/GD32VW55x_RELEASE_V1.0.2/MSDK/wpa_supplicant/src/ap\ieee802_11_vht.c **** 		 */
 104:C:/Users/stapi/OneDrive/Desktop/GD32VW553/V1_MQTT_OK/GD32VW55X_Wifi_BLE_SDK/GD32VW55x_RELEASE_V1.0.2/MSDK/wpa_supplicant/src/ap\ieee802_11_vht.c **** 		oper->vht_op_info_chwidth = 1;
 261              		.loc 1 104 3 is_stmt 1
 262              		.loc 1 104 29 is_stmt 0
 263 0056 8546     		li	a3,1
 264 0058 2301D400 		sb	a3,2(s0)
 105:C:/Users/stapi/OneDrive/Desktop/GD32VW553/V1_MQTT_OK/GD32VW55X_Wifi_BLE_SDK/GD32VW55x_RELEASE_V1.0.2/MSDK/wpa_supplicant/src/ap\ieee802_11_vht.c **** 		oper->vht_op_info_chan_center_freq_seg1_idx =
 265              		.loc 1 105 3 is_stmt 1
 266              		.loc 1 105 47 is_stmt 0
 267 005c 2302F400 		sb	a5,4(s0)
 106:C:/Users/stapi/OneDrive/Desktop/GD32VW553/V1_MQTT_OK/GD32VW55X_Wifi_BLE_SDK/GD32VW55x_RELEASE_V1.0.2/MSDK/wpa_supplicant/src/ap\ieee802_11_vht.c **** 			oper->vht_op_info_chan_center_freq_seg0_idx;
 107:C:/Users/stapi/OneDrive/Desktop/GD32VW553/V1_MQTT_OK/GD32VW55X_Wifi_BLE_SDK/GD32VW55x_RELEASE_V1.0.2/MSDK/wpa_supplicant/src/ap\ieee802_11_vht.c **** 		if (hapd->iconf->channel <
 268              		.loc 1 107 3 is_stmt 1
 269              		.loc 1 107 6 is_stmt 0
 270 0060 03479701 		lbu	a4,25(a4)
 271 0064 6371F702 		bgeu	a4,a5,.L21
 108:C:/Users/stapi/OneDrive/Desktop/GD32VW553/V1_MQTT_OK/GD32VW55X_Wifi_BLE_SDK/GD32VW55x_RELEASE_V1.0.2/MSDK/wpa_supplicant/src/ap\ieee802_11_vht.c **** 		    hapd->iconf->vht_oper_centr_freq_seg0_idx)
 109:C:/Users/stapi/OneDrive/Desktop/GD32VW553/V1_MQTT_OK/GD32VW55X_Wifi_BLE_SDK/GD32VW55x_RELEASE_V1.0.2/MSDK/wpa_supplicant/src/ap\ieee802_11_vht.c **** 			oper->vht_op_info_chan_center_freq_seg0_idx -= 8;
 272              		.loc 1 109 4 is_stmt 1
 273              		.loc 1 109 48 is_stmt 0
 274 0068 E117     		addi	a5,a5,-8
 275              	.L25:
 110:C:/Users/stapi/OneDrive/Desktop/GD32VW553/V1_MQTT_OK/GD32VW55X_Wifi_BLE_SDK/GD32VW55x_RELEASE_V1.0.2/MSDK/wpa_supplicant/src/ap\ieee802_11_vht.c **** 		else
 111:C:/Users/stapi/OneDrive/Desktop/GD32VW553/V1_MQTT_OK/GD32VW55X_Wifi_BLE_SDK/GD32VW55x_RELEASE_V1.0.2/MSDK/wpa_supplicant/src/ap\ieee802_11_vht.c **** 			oper->vht_op_info_chan_center_freq_seg0_idx += 8;
 276              		.loc 1 111 48
 277 006a A301F400 		sb	a5,3(s0)
 278              	.L22:
 112:C:/Users/stapi/OneDrive/Desktop/GD32VW553/V1_MQTT_OK/GD32VW55X_Wifi_BLE_SDK/GD32VW55x_RELEASE_V1.0.2/MSDK/wpa_supplicant/src/ap\ieee802_11_vht.c **** 	} else if (hapd->iconf->vht_oper_chwidth == 3) {
 113:C:/Users/stapi/OneDrive/Desktop/GD32VW553/V1_MQTT_OK/GD32VW55X_Wifi_BLE_SDK/GD32VW55x_RELEASE_V1.0.2/MSDK/wpa_supplicant/src/ap\ieee802_11_vht.c **** 		/*
 114:C:/Users/stapi/OneDrive/Desktop/GD32VW553/V1_MQTT_OK/GD32VW55X_Wifi_BLE_SDK/GD32VW55x_RELEASE_V1.0.2/MSDK/wpa_supplicant/src/ap\ieee802_11_vht.c **** 		 * Convert 80+80 MHz channel width to new style as interop
 115:C:/Users/stapi/OneDrive/Desktop/GD32VW553/V1_MQTT_OK/GD32VW55X_Wifi_BLE_SDK/GD32VW55x_RELEASE_V1.0.2/MSDK/wpa_supplicant/src/ap\ieee802_11_vht.c **** 		 * workaround.
 116:C:/Users/stapi/OneDrive/Desktop/GD32VW553/V1_MQTT_OK/GD32VW55X_Wifi_BLE_SDK/GD32VW55x_RELEASE_V1.0.2/MSDK/wpa_supplicant/src/ap\ieee802_11_vht.c **** 		 */
 117:C:/Users/stapi/OneDrive/Desktop/GD32VW553/V1_MQTT_OK/GD32VW55X_Wifi_BLE_SDK/GD32VW55x_RELEASE_V1.0.2/MSDK/wpa_supplicant/src/ap\ieee802_11_vht.c **** 		oper->vht_op_info_chwidth = 1;
 118:C:/Users/stapi/OneDrive/Desktop/GD32VW553/V1_MQTT_OK/GD32VW55X_Wifi_BLE_SDK/GD32VW55x_RELEASE_V1.0.2/MSDK/wpa_supplicant/src/ap\ieee802_11_vht.c **** 	}
 119:C:/Users/stapi/OneDrive/Desktop/GD32VW553/V1_MQTT_OK/GD32VW55X_Wifi_BLE_SDK/GD32VW55x_RELEASE_V1.0.2/MSDK/wpa_supplicant/src/ap\ieee802_11_vht.c **** 
 120:C:/Users/stapi/OneDrive/Desktop/GD32VW553/V1_MQTT_OK/GD32VW55X_Wifi_BLE_SDK/GD32VW55x_RELEASE_V1.0.2/MSDK/wpa_supplicant/src/ap\ieee802_11_vht.c **** 	/* VHT Basic MCS set comes from hw */
 121:C:/Users/stapi/OneDrive/Desktop/GD32VW553/V1_MQTT_OK/GD32VW55X_Wifi_BLE_SDK/GD32VW55x_RELEASE_V1.0.2/MSDK/wpa_supplicant/src/ap\ieee802_11_vht.c **** 	/* Hard code 1 stream, MCS0-7 is a min Basic VHT MCS rates */
 122:C:/Users/stapi/OneDrive/Desktop/GD32VW553/V1_MQTT_OK/GD32VW55X_Wifi_BLE_SDK/GD32VW55x_RELEASE_V1.0.2/MSDK/wpa_supplicant/src/ap\ieee802_11_vht.c **** 	oper->vht_basic_mcs_set = host_to_le16(0xfffc);
 279              		.loc 1 122 2 is_stmt 1
 280              		.loc 1 122 26 is_stmt 0
 281 006e F157     		li	a5,-4
 282 0070 A302F400 		sb	a5,5(s0)
 283 0074 FD57     		li	a5,-1
 284 0076 2303F400 		sb	a5,6(s0)
 123:C:/Users/stapi/OneDrive/Desktop/GD32VW553/V1_MQTT_OK/GD32VW55X_Wifi_BLE_SDK/GD32VW55x_RELEASE_V1.0.2/MSDK/wpa_supplicant/src/ap\ieee802_11_vht.c **** 	pos += sizeof(*oper);
 285              		.loc 1 123 2 is_stmt 1
 286              		.loc 1 123 6 is_stmt 0
 287 007a 1D04     		addi	s0,s0,7
 288              	.LVL26:
 124:C:/Users/stapi/OneDrive/Desktop/GD32VW553/V1_MQTT_OK/GD32VW55X_Wifi_BLE_SDK/GD32VW55x_RELEASE_V1.0.2/MSDK/wpa_supplicant/src/ap\ieee802_11_vht.c **** 
 125:C:/Users/stapi/OneDrive/Desktop/GD32VW553/V1_MQTT_OK/GD32VW55X_Wifi_BLE_SDK/GD32VW55x_RELEASE_V1.0.2/MSDK/wpa_supplicant/src/ap\ieee802_11_vht.c **** 	return pos;
 289              		.loc 1 125 2 is_stmt 1
 290              	.L19:
 291              	.LBE10:
 292              	.LBE9:
 126:C:/Users/stapi/OneDrive/Desktop/GD32VW553/V1_MQTT_OK/GD32VW55X_Wifi_BLE_SDK/GD32VW55x_RELEASE_V1.0.2/MSDK/wpa_supplicant/src/ap\ieee802_11_vht.c **** }
 293              		.loc 1 126 1 is_stmt 0
 294 007c 2285     		mv	a0,s0
 295 007e 17030000 		tail	__riscv_restore_2
 295      67000300 
 296              		.cfi_remember_state
 297              		.cfi_restore 9
 298              		.cfi_restore 8
 299              		.cfi_restore 1
 300              		.cfi_def_cfa_offset 0
 301              	.LVL27:
 302              	.L21:
 303              		.cfi_restore_state
 304              	.LBB12:
 305              	.LBB11:
 111:C:/Users/stapi/OneDrive/Desktop/GD32VW553/V1_MQTT_OK/GD32VW55X_Wifi_BLE_SDK/GD32VW55x_RELEASE_V1.0.2/MSDK/wpa_supplicant/src/ap\ieee802_11_vht.c **** 	} else if (hapd->iconf->vht_oper_chwidth == 3) {
 306              		.loc 1 111 4 is_stmt 1
 111:C:/Users/stapi/OneDrive/Desktop/GD32VW553/V1_MQTT_OK/GD32VW55X_Wifi_BLE_SDK/GD32VW55x_RELEASE_V1.0.2/MSDK/wpa_supplicant/src/ap\ieee802_11_vht.c **** 	} else if (hapd->iconf->vht_oper_chwidth == 3) {
 307              		.loc 1 111 48 is_stmt 0
 308 0086 A107     		addi	a5,a5,8
 309 0088 CDB7     		j	.L25
 310              	.L20:
 112:C:/Users/stapi/OneDrive/Desktop/GD32VW553/V1_MQTT_OK/GD32VW55X_Wifi_BLE_SDK/GD32VW55x_RELEASE_V1.0.2/MSDK/wpa_supplicant/src/ap\ieee802_11_vht.c **** 		/*
 311              		.loc 1 112 9 is_stmt 1
 112:C:/Users/stapi/OneDrive/Desktop/GD32VW553/V1_MQTT_OK/GD32VW55X_Wifi_BLE_SDK/GD32VW55x_RELEASE_V1.0.2/MSDK/wpa_supplicant/src/ap\ieee802_11_vht.c **** 		/*
 312              		.loc 1 112 12 is_stmt 0
 313 008a 8D47     		li	a5,3
 314 008c 6385F600 		beq	a3,a5,.L23
  98:C:/Users/stapi/OneDrive/Desktop/GD32VW553/V1_MQTT_OK/GD32VW55X_Wifi_BLE_SDK/GD32VW55x_RELEASE_V1.0.2/MSDK/wpa_supplicant/src/ap\ieee802_11_vht.c **** 	if (hapd->iconf->vht_oper_chwidth == 2) {
 315              		.loc 1 98 28
 316 0090 2301D400 		sb	a3,2(s0)
 317 0094 E9BF     		j	.L22
 318              	.L23:
 117:C:/Users/stapi/OneDrive/Desktop/GD32VW553/V1_MQTT_OK/GD32VW55X_Wifi_BLE_SDK/GD32VW55x_RELEASE_V1.0.2/MSDK/wpa_supplicant/src/ap\ieee802_11_vht.c **** 	}
 319              		.loc 1 117 3 is_stmt 1
 117:C:/Users/stapi/OneDrive/Desktop/GD32VW553/V1_MQTT_OK/GD32VW55X_Wifi_BLE_SDK/GD32VW55x_RELEASE_V1.0.2/MSDK/wpa_supplicant/src/ap\ieee802_11_vht.c **** 	}
 320              		.loc 1 117 29 is_stmt 0
 321 0096 8547     		li	a5,1
 322 0098 2301F400 		sb	a5,2(s0)
 323 009c C9BF     		j	.L22
 324              	.LBE11:
 325              	.LBE12:
 326              		.cfi_endproc
 327              	.LFE140:
 329              		.section	.rodata.copy_sta_vht_capab.str1.4,"aMS",@progbits,1
 330              		.align	2
 331              	.LC0:
 332 0000 4E6F206D 		.string	"No matching VHT MCS found between AP TX and STA RX"
 332      61746368 
 332      696E6720 
 332      56485420 
 332      4D435320 
 333              		.section	.text.copy_sta_vht_capab,"ax",@progbits
 334              		.align	1
 335              		.globl	copy_sta_vht_capab
 337              	copy_sta_vht_capab:
 338              	.LFB142:
 127:C:/Users/stapi/OneDrive/Desktop/GD32VW553/V1_MQTT_OK/GD32VW55X_Wifi_BLE_SDK/GD32VW55x_RELEASE_V1.0.2/MSDK/wpa_supplicant/src/ap\ieee802_11_vht.c **** 
 128:C:/Users/stapi/OneDrive/Desktop/GD32VW553/V1_MQTT_OK/GD32VW55X_Wifi_BLE_SDK/GD32VW55x_RELEASE_V1.0.2/MSDK/wpa_supplicant/src/ap\ieee802_11_vht.c **** 
 129:C:/Users/stapi/OneDrive/Desktop/GD32VW553/V1_MQTT_OK/GD32VW55X_Wifi_BLE_SDK/GD32VW55x_RELEASE_V1.0.2/MSDK/wpa_supplicant/src/ap\ieee802_11_vht.c **** static int check_valid_vht_mcs(struct hostapd_hw_modes *mode,
 130:C:/Users/stapi/OneDrive/Desktop/GD32VW553/V1_MQTT_OK/GD32VW55X_Wifi_BLE_SDK/GD32VW55x_RELEASE_V1.0.2/MSDK/wpa_supplicant/src/ap\ieee802_11_vht.c **** 			       const u8 *sta_vht_capab)
 131:C:/Users/stapi/OneDrive/Desktop/GD32VW553/V1_MQTT_OK/GD32VW55X_Wifi_BLE_SDK/GD32VW55x_RELEASE_V1.0.2/MSDK/wpa_supplicant/src/ap\ieee802_11_vht.c **** {
 132:C:/Users/stapi/OneDrive/Desktop/GD32VW553/V1_MQTT_OK/GD32VW55X_Wifi_BLE_SDK/GD32VW55x_RELEASE_V1.0.2/MSDK/wpa_supplicant/src/ap\ieee802_11_vht.c **** 	const struct ieee80211_vht_capabilities *vht_cap;
 133:C:/Users/stapi/OneDrive/Desktop/GD32VW553/V1_MQTT_OK/GD32VW55X_Wifi_BLE_SDK/GD32VW55x_RELEASE_V1.0.2/MSDK/wpa_supplicant/src/ap\ieee802_11_vht.c **** 	struct ieee80211_vht_capabilities ap_vht_cap;
 134:C:/Users/stapi/OneDrive/Desktop/GD32VW553/V1_MQTT_OK/GD32VW55X_Wifi_BLE_SDK/GD32VW55x_RELEASE_V1.0.2/MSDK/wpa_supplicant/src/ap\ieee802_11_vht.c **** 	u16 sta_rx_mcs_set, ap_tx_mcs_set;
 135:C:/Users/stapi/OneDrive/Desktop/GD32VW553/V1_MQTT_OK/GD32VW55X_Wifi_BLE_SDK/GD32VW55x_RELEASE_V1.0.2/MSDK/wpa_supplicant/src/ap\ieee802_11_vht.c **** 	int i;
 136:C:/Users/stapi/OneDrive/Desktop/GD32VW553/V1_MQTT_OK/GD32VW55X_Wifi_BLE_SDK/GD32VW55x_RELEASE_V1.0.2/MSDK/wpa_supplicant/src/ap\ieee802_11_vht.c **** 
 137:C:/Users/stapi/OneDrive/Desktop/GD32VW553/V1_MQTT_OK/GD32VW55X_Wifi_BLE_SDK/GD32VW55x_RELEASE_V1.0.2/MSDK/wpa_supplicant/src/ap\ieee802_11_vht.c **** 	if (!mode)
 138:C:/Users/stapi/OneDrive/Desktop/GD32VW553/V1_MQTT_OK/GD32VW55X_Wifi_BLE_SDK/GD32VW55x_RELEASE_V1.0.2/MSDK/wpa_supplicant/src/ap\ieee802_11_vht.c **** 		return 1;
 139:C:/Users/stapi/OneDrive/Desktop/GD32VW553/V1_MQTT_OK/GD32VW55X_Wifi_BLE_SDK/GD32VW55x_RELEASE_V1.0.2/MSDK/wpa_supplicant/src/ap\ieee802_11_vht.c **** 
 140:C:/Users/stapi/OneDrive/Desktop/GD32VW553/V1_MQTT_OK/GD32VW55X_Wifi_BLE_SDK/GD32VW55x_RELEASE_V1.0.2/MSDK/wpa_supplicant/src/ap\ieee802_11_vht.c **** 	/*
 141:C:/Users/stapi/OneDrive/Desktop/GD32VW553/V1_MQTT_OK/GD32VW55X_Wifi_BLE_SDK/GD32VW55x_RELEASE_V1.0.2/MSDK/wpa_supplicant/src/ap\ieee802_11_vht.c **** 	 * Disable VHT caps for STAs for which there is not even a single
 142:C:/Users/stapi/OneDrive/Desktop/GD32VW553/V1_MQTT_OK/GD32VW55X_Wifi_BLE_SDK/GD32VW55x_RELEASE_V1.0.2/MSDK/wpa_supplicant/src/ap\ieee802_11_vht.c **** 	 * allowed MCS in any supported number of streams, i.e., STA is
 143:C:/Users/stapi/OneDrive/Desktop/GD32VW553/V1_MQTT_OK/GD32VW55X_Wifi_BLE_SDK/GD32VW55x_RELEASE_V1.0.2/MSDK/wpa_supplicant/src/ap\ieee802_11_vht.c **** 	 * advertising 3 (not supported) as VHT MCS rates for all supported
 144:C:/Users/stapi/OneDrive/Desktop/GD32VW553/V1_MQTT_OK/GD32VW55X_Wifi_BLE_SDK/GD32VW55x_RELEASE_V1.0.2/MSDK/wpa_supplicant/src/ap\ieee802_11_vht.c **** 	 * stream cases.
 145:C:/Users/stapi/OneDrive/Desktop/GD32VW553/V1_MQTT_OK/GD32VW55X_Wifi_BLE_SDK/GD32VW55x_RELEASE_V1.0.2/MSDK/wpa_supplicant/src/ap\ieee802_11_vht.c **** 	 */
 146:C:/Users/stapi/OneDrive/Desktop/GD32VW553/V1_MQTT_OK/GD32VW55X_Wifi_BLE_SDK/GD32VW55x_RELEASE_V1.0.2/MSDK/wpa_supplicant/src/ap\ieee802_11_vht.c **** 	os_memcpy(&ap_vht_cap.vht_supported_mcs_set, mode->vht_mcs_set,
 147:C:/Users/stapi/OneDrive/Desktop/GD32VW553/V1_MQTT_OK/GD32VW55X_Wifi_BLE_SDK/GD32VW55x_RELEASE_V1.0.2/MSDK/wpa_supplicant/src/ap\ieee802_11_vht.c **** 		  sizeof(ap_vht_cap.vht_supported_mcs_set));
 148:C:/Users/stapi/OneDrive/Desktop/GD32VW553/V1_MQTT_OK/GD32VW55X_Wifi_BLE_SDK/GD32VW55x_RELEASE_V1.0.2/MSDK/wpa_supplicant/src/ap\ieee802_11_vht.c **** 	vht_cap = (const struct ieee80211_vht_capabilities *) sta_vht_capab;
 149:C:/Users/stapi/OneDrive/Desktop/GD32VW553/V1_MQTT_OK/GD32VW55X_Wifi_BLE_SDK/GD32VW55x_RELEASE_V1.0.2/MSDK/wpa_supplicant/src/ap\ieee802_11_vht.c **** 
 150:C:/Users/stapi/OneDrive/Desktop/GD32VW553/V1_MQTT_OK/GD32VW55X_Wifi_BLE_SDK/GD32VW55x_RELEASE_V1.0.2/MSDK/wpa_supplicant/src/ap\ieee802_11_vht.c **** 	/* AP Tx MCS map vs. STA Rx MCS map */
 151:C:/Users/stapi/OneDrive/Desktop/GD32VW553/V1_MQTT_OK/GD32VW55X_Wifi_BLE_SDK/GD32VW55x_RELEASE_V1.0.2/MSDK/wpa_supplicant/src/ap\ieee802_11_vht.c **** 	sta_rx_mcs_set = le_to_host16(vht_cap->vht_supported_mcs_set.rx_map);
 152:C:/Users/stapi/OneDrive/Desktop/GD32VW553/V1_MQTT_OK/GD32VW55X_Wifi_BLE_SDK/GD32VW55x_RELEASE_V1.0.2/MSDK/wpa_supplicant/src/ap\ieee802_11_vht.c **** 	ap_tx_mcs_set = le_to_host16(ap_vht_cap.vht_supported_mcs_set.tx_map);
 153:C:/Users/stapi/OneDrive/Desktop/GD32VW553/V1_MQTT_OK/GD32VW55X_Wifi_BLE_SDK/GD32VW55x_RELEASE_V1.0.2/MSDK/wpa_supplicant/src/ap\ieee802_11_vht.c **** 
 154:C:/Users/stapi/OneDrive/Desktop/GD32VW553/V1_MQTT_OK/GD32VW55X_Wifi_BLE_SDK/GD32VW55x_RELEASE_V1.0.2/MSDK/wpa_supplicant/src/ap\ieee802_11_vht.c **** 	for (i = 0; i < VHT_RX_NSS_MAX_STREAMS; i++) {
 155:C:/Users/stapi/OneDrive/Desktop/GD32VW553/V1_MQTT_OK/GD32VW55X_Wifi_BLE_SDK/GD32VW55x_RELEASE_V1.0.2/MSDK/wpa_supplicant/src/ap\ieee802_11_vht.c **** 		if ((ap_tx_mcs_set & (0x3 << (i * 2))) == 3)
 156:C:/Users/stapi/OneDrive/Desktop/GD32VW553/V1_MQTT_OK/GD32VW55X_Wifi_BLE_SDK/GD32VW55x_RELEASE_V1.0.2/MSDK/wpa_supplicant/src/ap\ieee802_11_vht.c **** 			continue;
 157:C:/Users/stapi/OneDrive/Desktop/GD32VW553/V1_MQTT_OK/GD32VW55X_Wifi_BLE_SDK/GD32VW55x_RELEASE_V1.0.2/MSDK/wpa_supplicant/src/ap\ieee802_11_vht.c **** 
 158:C:/Users/stapi/OneDrive/Desktop/GD32VW553/V1_MQTT_OK/GD32VW55X_Wifi_BLE_SDK/GD32VW55x_RELEASE_V1.0.2/MSDK/wpa_supplicant/src/ap\ieee802_11_vht.c **** 		if ((sta_rx_mcs_set & (0x3 << (i * 2))) == 3)
 159:C:/Users/stapi/OneDrive/Desktop/GD32VW553/V1_MQTT_OK/GD32VW55X_Wifi_BLE_SDK/GD32VW55x_RELEASE_V1.0.2/MSDK/wpa_supplicant/src/ap\ieee802_11_vht.c **** 			continue;
 160:C:/Users/stapi/OneDrive/Desktop/GD32VW553/V1_MQTT_OK/GD32VW55X_Wifi_BLE_SDK/GD32VW55x_RELEASE_V1.0.2/MSDK/wpa_supplicant/src/ap\ieee802_11_vht.c **** 
 161:C:/Users/stapi/OneDrive/Desktop/GD32VW553/V1_MQTT_OK/GD32VW55X_Wifi_BLE_SDK/GD32VW55x_RELEASE_V1.0.2/MSDK/wpa_supplicant/src/ap\ieee802_11_vht.c **** 		return 1;
 162:C:/Users/stapi/OneDrive/Desktop/GD32VW553/V1_MQTT_OK/GD32VW55X_Wifi_BLE_SDK/GD32VW55x_RELEASE_V1.0.2/MSDK/wpa_supplicant/src/ap\ieee802_11_vht.c **** 	}
 163:C:/Users/stapi/OneDrive/Desktop/GD32VW553/V1_MQTT_OK/GD32VW55X_Wifi_BLE_SDK/GD32VW55x_RELEASE_V1.0.2/MSDK/wpa_supplicant/src/ap\ieee802_11_vht.c **** 
 164:C:/Users/stapi/OneDrive/Desktop/GD32VW553/V1_MQTT_OK/GD32VW55X_Wifi_BLE_SDK/GD32VW55x_RELEASE_V1.0.2/MSDK/wpa_supplicant/src/ap\ieee802_11_vht.c **** 	wpa_printf(MSG_DEBUG,
 165:C:/Users/stapi/OneDrive/Desktop/GD32VW553/V1_MQTT_OK/GD32VW55X_Wifi_BLE_SDK/GD32VW55x_RELEASE_V1.0.2/MSDK/wpa_supplicant/src/ap\ieee802_11_vht.c **** 		   "No matching VHT MCS found between AP TX and STA RX");
 166:C:/Users/stapi/OneDrive/Desktop/GD32VW553/V1_MQTT_OK/GD32VW55X_Wifi_BLE_SDK/GD32VW55x_RELEASE_V1.0.2/MSDK/wpa_supplicant/src/ap\ieee802_11_vht.c **** 	return 0;
 167:C:/Users/stapi/OneDrive/Desktop/GD32VW553/V1_MQTT_OK/GD32VW55X_Wifi_BLE_SDK/GD32VW55x_RELEASE_V1.0.2/MSDK/wpa_supplicant/src/ap\ieee802_11_vht.c **** }
 168:C:/Users/stapi/OneDrive/Desktop/GD32VW553/V1_MQTT_OK/GD32VW55X_Wifi_BLE_SDK/GD32VW55x_RELEASE_V1.0.2/MSDK/wpa_supplicant/src/ap\ieee802_11_vht.c **** 
 169:C:/Users/stapi/OneDrive/Desktop/GD32VW553/V1_MQTT_OK/GD32VW55X_Wifi_BLE_SDK/GD32VW55x_RELEASE_V1.0.2/MSDK/wpa_supplicant/src/ap\ieee802_11_vht.c **** 
 170:C:/Users/stapi/OneDrive/Desktop/GD32VW553/V1_MQTT_OK/GD32VW55X_Wifi_BLE_SDK/GD32VW55x_RELEASE_V1.0.2/MSDK/wpa_supplicant/src/ap\ieee802_11_vht.c **** u16 copy_sta_vht_capab(struct hostapd_data *hapd, struct sta_info *sta,
 171:C:/Users/stapi/OneDrive/Desktop/GD32VW553/V1_MQTT_OK/GD32VW55X_Wifi_BLE_SDK/GD32VW55x_RELEASE_V1.0.2/MSDK/wpa_supplicant/src/ap\ieee802_11_vht.c **** 		       const u8 *vht_capab)
 172:C:/Users/stapi/OneDrive/Desktop/GD32VW553/V1_MQTT_OK/GD32VW55X_Wifi_BLE_SDK/GD32VW55x_RELEASE_V1.0.2/MSDK/wpa_supplicant/src/ap\ieee802_11_vht.c **** {
 339              		.loc 1 172 1 is_stmt 1
 340              		.cfi_startproc
 341              	.LVL28:
 342 0000 17030000 		call	t0,__riscv_save_2
 342      E7020300 
 343              		.cfi_offset 9, -12
 344              		.cfi_offset 8, -8
 345              		.cfi_offset 1, -4
 346              		.cfi_def_cfa_offset 16
 173:C:/Users/stapi/OneDrive/Desktop/GD32VW553/V1_MQTT_OK/GD32VW55X_Wifi_BLE_SDK/GD32VW55x_RELEASE_V1.0.2/MSDK/wpa_supplicant/src/ap\ieee802_11_vht.c **** 	/* Disable VHT caps for STAs associated to no-VHT BSSes. */
 174:C:/Users/stapi/OneDrive/Desktop/GD32VW553/V1_MQTT_OK/GD32VW55X_Wifi_BLE_SDK/GD32VW55x_RELEASE_V1.0.2/MSDK/wpa_supplicant/src/ap\ieee802_11_vht.c **** 	if (!vht_capab || !(sta->flags & WLAN_STA_WMM) ||
 347              		.loc 1 174 2
 348              		.loc 1 174 25 is_stmt 0
 349 0008 9C51     		lw	a5,32(a1)
 172:C:/Users/stapi/OneDrive/Desktop/GD32VW553/V1_MQTT_OK/GD32VW55X_Wifi_BLE_SDK/GD32VW55x_RELEASE_V1.0.2/MSDK/wpa_supplicant/src/ap\ieee802_11_vht.c **** 	/* Disable VHT caps for STAs associated to no-VHT BSSes. */
 350              		.loc 1 172 1
 351 000a 4111     		addi	sp,sp,-16
 352              		.cfi_def_cfa_offset 32
 172:C:/Users/stapi/OneDrive/Desktop/GD32VW553/V1_MQTT_OK/GD32VW55X_Wifi_BLE_SDK/GD32VW55x_RELEASE_V1.0.2/MSDK/wpa_supplicant/src/ap\ieee802_11_vht.c **** 	/* Disable VHT caps for STAs associated to no-VHT BSSes. */
 353              		.loc 1 172 1
 354 000c 2E84     		mv	s0,a1
 355              		.loc 1 174 5
 356 000e 51C6     		beq	a2,zero,.L27
 357              		.loc 1 174 33 discriminator 1
 358 0010 93F70720 		andi	a5,a5,512
 359              		.loc 1 174 17 discriminator 1
 360 0014 D9C3     		beq	a5,zero,.L27
 175:C:/Users/stapi/OneDrive/Desktop/GD32VW553/V1_MQTT_OK/GD32VW55X_Wifi_BLE_SDK/GD32VW55x_RELEASE_V1.0.2/MSDK/wpa_supplicant/src/ap\ieee802_11_vht.c **** 	    !hapd->iconf->ieee80211ac || hapd->conf->disable_11ac ||
 361              		.loc 1 175 18 discriminator 2
 362 0016 5C41     		lw	a5,4(a0)
 174:C:/Users/stapi/OneDrive/Desktop/GD32VW553/V1_MQTT_OK/GD32VW55X_Wifi_BLE_SDK/GD32VW55x_RELEASE_V1.0.2/MSDK/wpa_supplicant/src/ap\ieee802_11_vht.c **** 	    !hapd->iconf->ieee80211ac || hapd->conf->disable_11ac ||
 363              		.loc 1 174 49 discriminator 2
 364 0018 83A78713 		lw	a5,312(a5)
 365 001c BDCF     		beq	a5,zero,.L27
 366              		.loc 1 175 45
 367 001e 1C45     		lw	a5,8(a0)
 368              		.loc 1 175 32
 369 0020 83C79729 		lbu	a5,665(a5)
 370 0024 BDEB     		bne	a5,zero,.L27
 176:C:/Users/stapi/OneDrive/Desktop/GD32VW553/V1_MQTT_OK/GD32VW55X_Wifi_BLE_SDK/GD32VW55x_RELEASE_V1.0.2/MSDK/wpa_supplicant/src/ap\ieee802_11_vht.c **** 	    !check_valid_vht_mcs(hapd->iface->current_mode, vht_capab)) {
 371              		.loc 1 176 7 discriminator 1
 372 0026 1C41     		lw	a5,0(a0)
 373 0028 B284     		mv	s1,a2
 374 002a 83A54746 		lw	a1,1124(a5)
 375              	.LVL29:
 376              	.LBB15:
 377              	.LBB16:
 132:C:/Users/stapi/OneDrive/Desktop/GD32VW553/V1_MQTT_OK/GD32VW55X_Wifi_BLE_SDK/GD32VW55x_RELEASE_V1.0.2/MSDK/wpa_supplicant/src/ap\ieee802_11_vht.c **** 	struct ieee80211_vht_capabilities ap_vht_cap;
 378              		.loc 1 132 2 is_stmt 1 discriminator 1
 133:C:/Users/stapi/OneDrive/Desktop/GD32VW553/V1_MQTT_OK/GD32VW55X_Wifi_BLE_SDK/GD32VW55x_RELEASE_V1.0.2/MSDK/wpa_supplicant/src/ap\ieee802_11_vht.c **** 	u16 sta_rx_mcs_set, ap_tx_mcs_set;
 379              		.loc 1 133 2 discriminator 1
 134:C:/Users/stapi/OneDrive/Desktop/GD32VW553/V1_MQTT_OK/GD32VW55X_Wifi_BLE_SDK/GD32VW55x_RELEASE_V1.0.2/MSDK/wpa_supplicant/src/ap\ieee802_11_vht.c **** 	int i;
 380              		.loc 1 134 2 discriminator 1
 135:C:/Users/stapi/OneDrive/Desktop/GD32VW553/V1_MQTT_OK/GD32VW55X_Wifi_BLE_SDK/GD32VW55x_RELEASE_V1.0.2/MSDK/wpa_supplicant/src/ap\ieee802_11_vht.c **** 
 381              		.loc 1 135 2 discriminator 1
 137:C:/Users/stapi/OneDrive/Desktop/GD32VW553/V1_MQTT_OK/GD32VW55X_Wifi_BLE_SDK/GD32VW55x_RELEASE_V1.0.2/MSDK/wpa_supplicant/src/ap\ieee802_11_vht.c **** 		return 1;
 382              		.loc 1 137 2 discriminator 1
 137:C:/Users/stapi/OneDrive/Desktop/GD32VW553/V1_MQTT_OK/GD32VW55X_Wifi_BLE_SDK/GD32VW55x_RELEASE_V1.0.2/MSDK/wpa_supplicant/src/ap\ieee802_11_vht.c **** 		return 1;
 383              		.loc 1 137 5 is_stmt 0 discriminator 1
 384 002e 91ED     		bne	a1,zero,.L28
 385              	.LVL30:
 386              	.L32:
 387              	.LBE16:
 388              	.LBE15:
 177:C:/Users/stapi/OneDrive/Desktop/GD32VW553/V1_MQTT_OK/GD32VW55X_Wifi_BLE_SDK/GD32VW55x_RELEASE_V1.0.2/MSDK/wpa_supplicant/src/ap\ieee802_11_vht.c **** 		sta->flags &= ~WLAN_STA_VHT;
 178:C:/Users/stapi/OneDrive/Desktop/GD32VW553/V1_MQTT_OK/GD32VW55X_Wifi_BLE_SDK/GD32VW55x_RELEASE_V1.0.2/MSDK/wpa_supplicant/src/ap\ieee802_11_vht.c **** 		os_free(sta->vht_capabilities);
 179:C:/Users/stapi/OneDrive/Desktop/GD32VW553/V1_MQTT_OK/GD32VW55X_Wifi_BLE_SDK/GD32VW55x_RELEASE_V1.0.2/MSDK/wpa_supplicant/src/ap\ieee802_11_vht.c **** 		sta->vht_capabilities = NULL;
 180:C:/Users/stapi/OneDrive/Desktop/GD32VW553/V1_MQTT_OK/GD32VW55X_Wifi_BLE_SDK/GD32VW55x_RELEASE_V1.0.2/MSDK/wpa_supplicant/src/ap\ieee802_11_vht.c **** 		return WLAN_STATUS_SUCCESS;
 181:C:/Users/stapi/OneDrive/Desktop/GD32VW553/V1_MQTT_OK/GD32VW55X_Wifi_BLE_SDK/GD32VW55x_RELEASE_V1.0.2/MSDK/wpa_supplicant/src/ap\ieee802_11_vht.c **** 	}
 182:C:/Users/stapi/OneDrive/Desktop/GD32VW553/V1_MQTT_OK/GD32VW55X_Wifi_BLE_SDK/GD32VW55x_RELEASE_V1.0.2/MSDK/wpa_supplicant/src/ap\ieee802_11_vht.c **** 
 183:C:/Users/stapi/OneDrive/Desktop/GD32VW553/V1_MQTT_OK/GD32VW55X_Wifi_BLE_SDK/GD32VW55x_RELEASE_V1.0.2/MSDK/wpa_supplicant/src/ap\ieee802_11_vht.c **** 	if (sta->vht_capabilities == NULL) {
 389              		.loc 1 183 2 is_stmt 1
 390              		.loc 1 183 5 is_stmt 0
 391 0030 8327040C 		lw	a5,192(s0)
 392 0034 C9E7     		bne	a5,zero,.L30
 184:C:/Users/stapi/OneDrive/Desktop/GD32VW553/V1_MQTT_OK/GD32VW55X_Wifi_BLE_SDK/GD32VW55x_RELEASE_V1.0.2/MSDK/wpa_supplicant/src/ap\ieee802_11_vht.c **** 		sta->vht_capabilities =
 393              		.loc 1 184 3 is_stmt 1
 185:C:/Users/stapi/OneDrive/Desktop/GD32VW553/V1_MQTT_OK/GD32VW55X_Wifi_BLE_SDK/GD32VW55x_RELEASE_V1.0.2/MSDK/wpa_supplicant/src/ap\ieee802_11_vht.c **** 			os_zalloc(sizeof(struct ieee80211_vht_capabilities));
 394              		.loc 1 185 4 is_stmt 0
 395 0036 3145     		li	a0,12
 396 0038 97000000 		call	os_zalloc
 396      E7800000 
 397              	.LVL31:
 184:C:/Users/stapi/OneDrive/Desktop/GD32VW553/V1_MQTT_OK/GD32VW55X_Wifi_BLE_SDK/GD32VW55x_RELEASE_V1.0.2/MSDK/wpa_supplicant/src/ap\ieee802_11_vht.c **** 		sta->vht_capabilities =
 398              		.loc 1 184 25
 399 0040 2320A40C 		sw	a0,192(s0)
 186:C:/Users/stapi/OneDrive/Desktop/GD32VW553/V1_MQTT_OK/GD32VW55X_Wifi_BLE_SDK/GD32VW55x_RELEASE_V1.0.2/MSDK/wpa_supplicant/src/ap\ieee802_11_vht.c **** 		if (sta->vht_capabilities == NULL)
 400              		.loc 1 186 3 is_stmt 1
 401              		.loc 1 186 6 is_stmt 0
 402 0044 2DED     		bne	a0,zero,.L30
 187:C:/Users/stapi/OneDrive/Desktop/GD32VW553/V1_MQTT_OK/GD32VW55X_Wifi_BLE_SDK/GD32VW55x_RELEASE_V1.0.2/MSDK/wpa_supplicant/src/ap\ieee802_11_vht.c **** 			return WLAN_STATUS_UNSPECIFIED_FAILURE;
 403              		.loc 1 187 11
 404 0046 0545     		li	a0,1
 405 0048 B5A0     		j	.L34
 406              	.LVL32:
 407              	.L28:
 408              	.LBB18:
 409              	.LBB17:
 146:C:/Users/stapi/OneDrive/Desktop/GD32VW553/V1_MQTT_OK/GD32VW55X_Wifi_BLE_SDK/GD32VW55x_RELEASE_V1.0.2/MSDK/wpa_supplicant/src/ap\ieee802_11_vht.c **** 		  sizeof(ap_vht_cap.vht_supported_mcs_set));
 410              		.loc 1 146 2 is_stmt 1
 411 004a 2146     		li	a2,8
 412 004c 9385C502 		addi	a1,a1,44
 413              	.LVL33:
 414 0050 2800     		addi	a0,sp,8
 415              	.LVL34:
 416 0052 97000000 		call	os_memcpy
 416      E7800000 
 417              	.LVL35:
 148:C:/Users/stapi/OneDrive/Desktop/GD32VW553/V1_MQTT_OK/GD32VW55X_Wifi_BLE_SDK/GD32VW55x_RELEASE_V1.0.2/MSDK/wpa_supplicant/src/ap\ieee802_11_vht.c **** 
 418              		.loc 1 148 2
 151:C:/Users/stapi/OneDrive/Desktop/GD32VW553/V1_MQTT_OK/GD32VW55X_Wifi_BLE_SDK/GD32VW55x_RELEASE_V1.0.2/MSDK/wpa_supplicant/src/ap\ieee802_11_vht.c **** 	ap_tx_mcs_set = le_to_host16(ap_vht_cap.vht_supported_mcs_set.tx_map);
 419              		.loc 1 151 2
 151:C:/Users/stapi/OneDrive/Desktop/GD32VW553/V1_MQTT_OK/GD32VW55X_Wifi_BLE_SDK/GD32VW55x_RELEASE_V1.0.2/MSDK/wpa_supplicant/src/ap\ieee802_11_vht.c **** 	ap_tx_mcs_set = le_to_host16(ap_vht_cap.vht_supported_mcs_set.tx_map);
 420              		.loc 1 151 17 is_stmt 0
 421 005a 83C75400 		lbu	a5,5(s1)
 422 005e 03C74400 		lbu	a4,4(s1)
 152:C:/Users/stapi/OneDrive/Desktop/GD32VW553/V1_MQTT_OK/GD32VW55X_Wifi_BLE_SDK/GD32VW55x_RELEASE_V1.0.2/MSDK/wpa_supplicant/src/ap\ieee802_11_vht.c **** 
 423              		.loc 1 152 16
 424 0062 0355C100 		lhu	a0,12(sp)
 151:C:/Users/stapi/OneDrive/Desktop/GD32VW553/V1_MQTT_OK/GD32VW55X_Wifi_BLE_SDK/GD32VW55x_RELEASE_V1.0.2/MSDK/wpa_supplicant/src/ap\ieee802_11_vht.c **** 	ap_tx_mcs_set = le_to_host16(ap_vht_cap.vht_supported_mcs_set.tx_map);
 425              		.loc 1 151 17
 426 0066 A207     		slli	a5,a5,8
 427 0068 D98F     		or	a5,a5,a4
 428              	.LVL36:
 152:C:/Users/stapi/OneDrive/Desktop/GD32VW553/V1_MQTT_OK/GD32VW55X_Wifi_BLE_SDK/GD32VW55x_RELEASE_V1.0.2/MSDK/wpa_supplicant/src/ap\ieee802_11_vht.c **** 
 429              		.loc 1 152 2 is_stmt 1
 154:C:/Users/stapi/OneDrive/Desktop/GD32VW553/V1_MQTT_OK/GD32VW55X_Wifi_BLE_SDK/GD32VW55x_RELEASE_V1.0.2/MSDK/wpa_supplicant/src/ap\ieee802_11_vht.c **** 		if ((ap_tx_mcs_set & (0x3 << (i * 2))) == 3)
 430              		.loc 1 154 2
 154:C:/Users/stapi/OneDrive/Desktop/GD32VW553/V1_MQTT_OK/GD32VW55X_Wifi_BLE_SDK/GD32VW55x_RELEASE_V1.0.2/MSDK/wpa_supplicant/src/ap\ieee802_11_vht.c **** 		if ((ap_tx_mcs_set & (0x3 << (i * 2))) == 3)
 431              		.loc 1 154 14
 155:C:/Users/stapi/OneDrive/Desktop/GD32VW553/V1_MQTT_OK/GD32VW55X_Wifi_BLE_SDK/GD32VW55x_RELEASE_V1.0.2/MSDK/wpa_supplicant/src/ap\ieee802_11_vht.c **** 			continue;
 432              		.loc 1 155 29 is_stmt 0
 433 006a 0D46     		li	a2,3
 152:C:/Users/stapi/OneDrive/Desktop/GD32VW553/V1_MQTT_OK/GD32VW55X_Wifi_BLE_SDK/GD32VW55x_RELEASE_V1.0.2/MSDK/wpa_supplicant/src/ap\ieee802_11_vht.c **** 
 434              		.loc 1 152 16
 435 006c 0147     		li	a4,0
 154:C:/Users/stapi/OneDrive/Desktop/GD32VW553/V1_MQTT_OK/GD32VW55X_Wifi_BLE_SDK/GD32VW55x_RELEASE_V1.0.2/MSDK/wpa_supplicant/src/ap\ieee802_11_vht.c **** 		if ((ap_tx_mcs_set & (0x3 << (i * 2))) == 3)
 436              		.loc 1 154 2
 437 006e C145     		li	a1,16
 438              	.LVL37:
 439              	.L33:
 155:C:/Users/stapi/OneDrive/Desktop/GD32VW553/V1_MQTT_OK/GD32VW55X_Wifi_BLE_SDK/GD32VW55x_RELEASE_V1.0.2/MSDK/wpa_supplicant/src/ap\ieee802_11_vht.c **** 			continue;
 440              		.loc 1 155 3 is_stmt 1
 155:C:/Users/stapi/OneDrive/Desktop/GD32VW553/V1_MQTT_OK/GD32VW55X_Wifi_BLE_SDK/GD32VW55x_RELEASE_V1.0.2/MSDK/wpa_supplicant/src/ap\ieee802_11_vht.c **** 			continue;
 441              		.loc 1 155 29 is_stmt 0
 442 0070 B316E600 		sll	a3,a2,a4
 155:C:/Users/stapi/OneDrive/Desktop/GD32VW553/V1_MQTT_OK/GD32VW55X_Wifi_BLE_SDK/GD32VW55x_RELEASE_V1.0.2/MSDK/wpa_supplicant/src/ap\ieee802_11_vht.c **** 			continue;
 443              		.loc 1 155 22
 444 0074 3378D500 		and	a6,a0,a3
 155:C:/Users/stapi/OneDrive/Desktop/GD32VW553/V1_MQTT_OK/GD32VW55X_Wifi_BLE_SDK/GD32VW55x_RELEASE_V1.0.2/MSDK/wpa_supplicant/src/ap\ieee802_11_vht.c **** 			continue;
 445              		.loc 1 155 6
 446 0078 6305C800 		beq	a6,a2,.L31
 158:C:/Users/stapi/OneDrive/Desktop/GD32VW553/V1_MQTT_OK/GD32VW55X_Wifi_BLE_SDK/GD32VW55x_RELEASE_V1.0.2/MSDK/wpa_supplicant/src/ap\ieee802_11_vht.c **** 			continue;
 447              		.loc 1 158 3 is_stmt 1
 158:C:/Users/stapi/OneDrive/Desktop/GD32VW553/V1_MQTT_OK/GD32VW55X_Wifi_BLE_SDK/GD32VW55x_RELEASE_V1.0.2/MSDK/wpa_supplicant/src/ap\ieee802_11_vht.c **** 			continue;
 448              		.loc 1 158 23 is_stmt 0
 449 007c FD8E     		and	a3,a5,a3
 158:C:/Users/stapi/OneDrive/Desktop/GD32VW553/V1_MQTT_OK/GD32VW55X_Wifi_BLE_SDK/GD32VW55x_RELEASE_V1.0.2/MSDK/wpa_supplicant/src/ap\ieee802_11_vht.c **** 			continue;
 450              		.loc 1 158 6
 451 007e E399C6FA 		bne	a3,a2,.L32
 452              	.L31:
 154:C:/Users/stapi/OneDrive/Desktop/GD32VW553/V1_MQTT_OK/GD32VW55X_Wifi_BLE_SDK/GD32VW55x_RELEASE_V1.0.2/MSDK/wpa_supplicant/src/ap\ieee802_11_vht.c **** 		if ((ap_tx_mcs_set & (0x3 << (i * 2))) == 3)
 453              		.loc 1 154 42 is_stmt 1
 154:C:/Users/stapi/OneDrive/Desktop/GD32VW553/V1_MQTT_OK/GD32VW55X_Wifi_BLE_SDK/GD32VW55x_RELEASE_V1.0.2/MSDK/wpa_supplicant/src/ap\ieee802_11_vht.c **** 		if ((ap_tx_mcs_set & (0x3 << (i * 2))) == 3)
 454              		.loc 1 154 14
 154:C:/Users/stapi/OneDrive/Desktop/GD32VW553/V1_MQTT_OK/GD32VW55X_Wifi_BLE_SDK/GD32VW55x_RELEASE_V1.0.2/MSDK/wpa_supplicant/src/ap\ieee802_11_vht.c **** 		if ((ap_tx_mcs_set & (0x3 << (i * 2))) == 3)
 455              		.loc 1 154 2 is_stmt 0
 456 0082 0907     		addi	a4,a4,2
 457 0084 E316B7FE 		bne	a4,a1,.L33
 164:C:/Users/stapi/OneDrive/Desktop/GD32VW553/V1_MQTT_OK/GD32VW55X_Wifi_BLE_SDK/GD32VW55x_RELEASE_V1.0.2/MSDK/wpa_supplicant/src/ap\ieee802_11_vht.c **** 		   "No matching VHT MCS found between AP TX and STA RX");
 458              		.loc 1 164 2 is_stmt 1
 459 0088 B7050000 		lui	a1,%hi(.LC0)
 460 008c 93850500 		addi	a1,a1,%lo(.LC0)
 461 0090 0945     		li	a0,2
 462              	.LVL38:
 463 0092 97000000 		call	wpa_printf
 463      E7800000 
 464              	.LVL39:
 166:C:/Users/stapi/OneDrive/Desktop/GD32VW553/V1_MQTT_OK/GD32VW55X_Wifi_BLE_SDK/GD32VW55x_RELEASE_V1.0.2/MSDK/wpa_supplicant/src/ap\ieee802_11_vht.c **** }
 465              		.loc 1 166 2
 466              	.L27:
 467              	.LBE17:
 468              	.LBE18:
 177:C:/Users/stapi/OneDrive/Desktop/GD32VW553/V1_MQTT_OK/GD32VW55X_Wifi_BLE_SDK/GD32VW55x_RELEASE_V1.0.2/MSDK/wpa_supplicant/src/ap\ieee802_11_vht.c **** 		os_free(sta->vht_capabilities);
 469              		.loc 1 177 3
 177:C:/Users/stapi/OneDrive/Desktop/GD32VW553/V1_MQTT_OK/GD32VW55X_Wifi_BLE_SDK/GD32VW55x_RELEASE_V1.0.2/MSDK/wpa_supplicant/src/ap\ieee802_11_vht.c **** 		os_free(sta->vht_capabilities);
 470              		.loc 1 177 14 is_stmt 0
 471 009a 1C50     		lw	a5,32(s0)
 178:C:/Users/stapi/OneDrive/Desktop/GD32VW553/V1_MQTT_OK/GD32VW55X_Wifi_BLE_SDK/GD32VW55x_RELEASE_V1.0.2/MSDK/wpa_supplicant/src/ap\ieee802_11_vht.c **** 		sta->vht_capabilities = NULL;
 472              		.loc 1 178 3
 473 009c 0325040C 		lw	a0,192(s0)
 177:C:/Users/stapi/OneDrive/Desktop/GD32VW553/V1_MQTT_OK/GD32VW55X_Wifi_BLE_SDK/GD32VW55x_RELEASE_V1.0.2/MSDK/wpa_supplicant/src/ap\ieee802_11_vht.c **** 		os_free(sta->vht_capabilities);
 474              		.loc 1 177 14
 475 00a0 93972749 		bclri	a5,a5,18
 476 00a4 1CD0     		sw	a5,32(s0)
 178:C:/Users/stapi/OneDrive/Desktop/GD32VW553/V1_MQTT_OK/GD32VW55X_Wifi_BLE_SDK/GD32VW55x_RELEASE_V1.0.2/MSDK/wpa_supplicant/src/ap\ieee802_11_vht.c **** 		sta->vht_capabilities = NULL;
 477              		.loc 1 178 3 is_stmt 1
 478 00a6 97000000 		call	os_free
 478      E7800000 
 479              	.LVL40:
 179:C:/Users/stapi/OneDrive/Desktop/GD32VW553/V1_MQTT_OK/GD32VW55X_Wifi_BLE_SDK/GD32VW55x_RELEASE_V1.0.2/MSDK/wpa_supplicant/src/ap\ieee802_11_vht.c **** 		return WLAN_STATUS_SUCCESS;
 480              		.loc 1 179 3
 179:C:/Users/stapi/OneDrive/Desktop/GD32VW553/V1_MQTT_OK/GD32VW55X_Wifi_BLE_SDK/GD32VW55x_RELEASE_V1.0.2/MSDK/wpa_supplicant/src/ap\ieee802_11_vht.c **** 		return WLAN_STATUS_SUCCESS;
 481              		.loc 1 179 25 is_stmt 0
 482 00ae 2320040C 		sw	zero,192(s0)
 180:C:/Users/stapi/OneDrive/Desktop/GD32VW553/V1_MQTT_OK/GD32VW55X_Wifi_BLE_SDK/GD32VW55x_RELEASE_V1.0.2/MSDK/wpa_supplicant/src/ap\ieee802_11_vht.c **** 	}
 483              		.loc 1 180 3 is_stmt 1
 484              	.L46:
 188:C:/Users/stapi/OneDrive/Desktop/GD32VW553/V1_MQTT_OK/GD32VW55X_Wifi_BLE_SDK/GD32VW55x_RELEASE_V1.0.2/MSDK/wpa_supplicant/src/ap\ieee802_11_vht.c **** 	}
 189:C:/Users/stapi/OneDrive/Desktop/GD32VW553/V1_MQTT_OK/GD32VW55X_Wifi_BLE_SDK/GD32VW55x_RELEASE_V1.0.2/MSDK/wpa_supplicant/src/ap\ieee802_11_vht.c **** 
 190:C:/Users/stapi/OneDrive/Desktop/GD32VW553/V1_MQTT_OK/GD32VW55X_Wifi_BLE_SDK/GD32VW55x_RELEASE_V1.0.2/MSDK/wpa_supplicant/src/ap\ieee802_11_vht.c **** 	sta->flags |= WLAN_STA_VHT;
 191:C:/Users/stapi/OneDrive/Desktop/GD32VW553/V1_MQTT_OK/GD32VW55X_Wifi_BLE_SDK/GD32VW55x_RELEASE_V1.0.2/MSDK/wpa_supplicant/src/ap\ieee802_11_vht.c **** 	os_memcpy(sta->vht_capabilities, vht_capab,
 192:C:/Users/stapi/OneDrive/Desktop/GD32VW553/V1_MQTT_OK/GD32VW55X_Wifi_BLE_SDK/GD32VW55x_RELEASE_V1.0.2/MSDK/wpa_supplicant/src/ap\ieee802_11_vht.c **** 		  sizeof(struct ieee80211_vht_capabilities));
 193:C:/Users/stapi/OneDrive/Desktop/GD32VW553/V1_MQTT_OK/GD32VW55X_Wifi_BLE_SDK/GD32VW55x_RELEASE_V1.0.2/MSDK/wpa_supplicant/src/ap\ieee802_11_vht.c **** 
 194:C:/Users/stapi/OneDrive/Desktop/GD32VW553/V1_MQTT_OK/GD32VW55X_Wifi_BLE_SDK/GD32VW55x_RELEASE_V1.0.2/MSDK/wpa_supplicant/src/ap\ieee802_11_vht.c **** 	return WLAN_STATUS_SUCCESS;
 485              		.loc 1 194 2
 486              		.loc 1 194 9 is_stmt 0
 487 00b2 0145     		li	a0,0
 488              	.L34:
 195:C:/Users/stapi/OneDrive/Desktop/GD32VW553/V1_MQTT_OK/GD32VW55X_Wifi_BLE_SDK/GD32VW55x_RELEASE_V1.0.2/MSDK/wpa_supplicant/src/ap\ieee802_11_vht.c **** }
 489              		.loc 1 195 1
 490 00b4 4101     		addi	sp,sp,16
 491              		.cfi_remember_state
 492              		.cfi_def_cfa_offset 0
 493 00b6 17030000 		tail	__riscv_restore_2
 493      67000300 
 494              		.cfi_restore 9
 495              		.cfi_restore 8
 496              		.cfi_restore 1
 497              		.cfi_def_cfa_offset -16
 498              	.LVL41:
 499              	.L30:
 500              		.cfi_restore_state
 190:C:/Users/stapi/OneDrive/Desktop/GD32VW553/V1_MQTT_OK/GD32VW55X_Wifi_BLE_SDK/GD32VW55x_RELEASE_V1.0.2/MSDK/wpa_supplicant/src/ap\ieee802_11_vht.c **** 	os_memcpy(sta->vht_capabilities, vht_capab,
 501              		.loc 1 190 2 is_stmt 1
 190:C:/Users/stapi/OneDrive/Desktop/GD32VW553/V1_MQTT_OK/GD32VW55X_Wifi_BLE_SDK/GD32VW55x_RELEASE_V1.0.2/MSDK/wpa_supplicant/src/ap\ieee802_11_vht.c **** 	os_memcpy(sta->vht_capabilities, vht_capab,
 502              		.loc 1 190 13 is_stmt 0
 503 00be 1C50     		lw	a5,32(s0)
 191:C:/Users/stapi/OneDrive/Desktop/GD32VW553/V1_MQTT_OK/GD32VW55X_Wifi_BLE_SDK/GD32VW55x_RELEASE_V1.0.2/MSDK/wpa_supplicant/src/ap\ieee802_11_vht.c **** 		  sizeof(struct ieee80211_vht_capabilities));
 504              		.loc 1 191 2
 505 00c0 0325040C 		lw	a0,192(s0)
 506 00c4 3146     		li	a2,12
 190:C:/Users/stapi/OneDrive/Desktop/GD32VW553/V1_MQTT_OK/GD32VW55X_Wifi_BLE_SDK/GD32VW55x_RELEASE_V1.0.2/MSDK/wpa_supplicant/src/ap\ieee802_11_vht.c **** 	os_memcpy(sta->vht_capabilities, vht_capab,
 507              		.loc 1 190 13
 508 00c6 93972729 		bseti	a5,a5,18
 191:C:/Users/stapi/OneDrive/Desktop/GD32VW553/V1_MQTT_OK/GD32VW55X_Wifi_BLE_SDK/GD32VW55x_RELEASE_V1.0.2/MSDK/wpa_supplicant/src/ap\ieee802_11_vht.c **** 		  sizeof(struct ieee80211_vht_capabilities));
 509              		.loc 1 191 2
 510 00ca A685     		mv	a1,s1
 190:C:/Users/stapi/OneDrive/Desktop/GD32VW553/V1_MQTT_OK/GD32VW55X_Wifi_BLE_SDK/GD32VW55x_RELEASE_V1.0.2/MSDK/wpa_supplicant/src/ap\ieee802_11_vht.c **** 	os_memcpy(sta->vht_capabilities, vht_capab,
 511              		.loc 1 190 13
 512 00cc 1CD0     		sw	a5,32(s0)
 191:C:/Users/stapi/OneDrive/Desktop/GD32VW553/V1_MQTT_OK/GD32VW55X_Wifi_BLE_SDK/GD32VW55x_RELEASE_V1.0.2/MSDK/wpa_supplicant/src/ap\ieee802_11_vht.c **** 		  sizeof(struct ieee80211_vht_capabilities));
 513              		.loc 1 191 2 is_stmt 1
 514 00ce 97000000 		call	os_memcpy
 514      E7800000 
 515              	.LVL42:
 516 00d6 F1BF     		j	.L46
 517              		.cfi_endproc
 518              	.LFE142:
 520              		.section	.text.copy_sta_vht_oper,"ax",@progbits
 521              		.align	1
 522              		.globl	copy_sta_vht_oper
 524              	copy_sta_vht_oper:
 525              	.LFB143:
 196:C:/Users/stapi/OneDrive/Desktop/GD32VW553/V1_MQTT_OK/GD32VW55X_Wifi_BLE_SDK/GD32VW55x_RELEASE_V1.0.2/MSDK/wpa_supplicant/src/ap\ieee802_11_vht.c **** 
 197:C:/Users/stapi/OneDrive/Desktop/GD32VW553/V1_MQTT_OK/GD32VW55X_Wifi_BLE_SDK/GD32VW55x_RELEASE_V1.0.2/MSDK/wpa_supplicant/src/ap\ieee802_11_vht.c **** 
 198:C:/Users/stapi/OneDrive/Desktop/GD32VW553/V1_MQTT_OK/GD32VW55X_Wifi_BLE_SDK/GD32VW55x_RELEASE_V1.0.2/MSDK/wpa_supplicant/src/ap\ieee802_11_vht.c **** u16 copy_sta_vht_oper(struct hostapd_data *hapd, struct sta_info *sta,
 199:C:/Users/stapi/OneDrive/Desktop/GD32VW553/V1_MQTT_OK/GD32VW55X_Wifi_BLE_SDK/GD32VW55x_RELEASE_V1.0.2/MSDK/wpa_supplicant/src/ap\ieee802_11_vht.c **** 		      const u8 *vht_oper)
 200:C:/Users/stapi/OneDrive/Desktop/GD32VW553/V1_MQTT_OK/GD32VW55X_Wifi_BLE_SDK/GD32VW55x_RELEASE_V1.0.2/MSDK/wpa_supplicant/src/ap\ieee802_11_vht.c **** {
 526              		.loc 1 200 1
 527              		.cfi_startproc
 528              	.LVL43:
 529 0000 17030000 		call	t0,__riscv_save_1
 529      E7020300 
 530              		.cfi_offset 8, -8
 531              		.cfi_offset 1, -4
 532              		.cfi_def_cfa_offset 16
 201:C:/Users/stapi/OneDrive/Desktop/GD32VW553/V1_MQTT_OK/GD32VW55X_Wifi_BLE_SDK/GD32VW55x_RELEASE_V1.0.2/MSDK/wpa_supplicant/src/ap\ieee802_11_vht.c **** 	if (!vht_oper) {
 533              		.loc 1 201 2
 202:C:/Users/stapi/OneDrive/Desktop/GD32VW553/V1_MQTT_OK/GD32VW55X_Wifi_BLE_SDK/GD32VW55x_RELEASE_V1.0.2/MSDK/wpa_supplicant/src/ap\ieee802_11_vht.c **** 		os_free(sta->vht_operation);
 534              		.loc 1 202 14 is_stmt 0
 535 0008 03A5450C 		lw	a0,196(a1)
 536              	.LVL44:
 200:C:/Users/stapi/OneDrive/Desktop/GD32VW553/V1_MQTT_OK/GD32VW55X_Wifi_BLE_SDK/GD32VW55x_RELEASE_V1.0.2/MSDK/wpa_supplicant/src/ap\ieee802_11_vht.c **** 	if (!vht_oper) {
 537              		.loc 1 200 1
 538 000c 4111     		addi	sp,sp,-16
 539              		.cfi_def_cfa_offset 32
 200:C:/Users/stapi/OneDrive/Desktop/GD32VW553/V1_MQTT_OK/GD32VW55X_Wifi_BLE_SDK/GD32VW55x_RELEASE_V1.0.2/MSDK/wpa_supplicant/src/ap\ieee802_11_vht.c **** 	if (!vht_oper) {
 540              		.loc 1 200 1
 541 000e 2E84     		mv	s0,a1
 201:C:/Users/stapi/OneDrive/Desktop/GD32VW553/V1_MQTT_OK/GD32VW55X_Wifi_BLE_SDK/GD32VW55x_RELEASE_V1.0.2/MSDK/wpa_supplicant/src/ap\ieee802_11_vht.c **** 	if (!vht_oper) {
 542              		.loc 1 201 5
 543 0010 09EE     		bne	a2,zero,.L48
 544              		.loc 1 202 3 is_stmt 1
 545 0012 97000000 		call	os_free
 545      E7800000 
 546              	.LVL45:
 203:C:/Users/stapi/OneDrive/Desktop/GD32VW553/V1_MQTT_OK/GD32VW55X_Wifi_BLE_SDK/GD32VW55x_RELEASE_V1.0.2/MSDK/wpa_supplicant/src/ap\ieee802_11_vht.c **** 		sta->vht_operation = NULL;
 547              		.loc 1 203 3
 548              		.loc 1 203 22 is_stmt 0
 549 001a 2322040C 		sw	zero,196(s0)
 204:C:/Users/stapi/OneDrive/Desktop/GD32VW553/V1_MQTT_OK/GD32VW55X_Wifi_BLE_SDK/GD32VW55x_RELEASE_V1.0.2/MSDK/wpa_supplicant/src/ap\ieee802_11_vht.c **** 		return WLAN_STATUS_SUCCESS;
 550              		.loc 1 204 3 is_stmt 1
 551              	.L53:
 205:C:/Users/stapi/OneDrive/Desktop/GD32VW553/V1_MQTT_OK/GD32VW55X_Wifi_BLE_SDK/GD32VW55x_RELEASE_V1.0.2/MSDK/wpa_supplicant/src/ap\ieee802_11_vht.c **** 	}
 206:C:/Users/stapi/OneDrive/Desktop/GD32VW553/V1_MQTT_OK/GD32VW55X_Wifi_BLE_SDK/GD32VW55x_RELEASE_V1.0.2/MSDK/wpa_supplicant/src/ap\ieee802_11_vht.c **** 
 207:C:/Users/stapi/OneDrive/Desktop/GD32VW553/V1_MQTT_OK/GD32VW55X_Wifi_BLE_SDK/GD32VW55x_RELEASE_V1.0.2/MSDK/wpa_supplicant/src/ap\ieee802_11_vht.c **** 	if (!sta->vht_operation) {
 208:C:/Users/stapi/OneDrive/Desktop/GD32VW553/V1_MQTT_OK/GD32VW55X_Wifi_BLE_SDK/GD32VW55x_RELEASE_V1.0.2/MSDK/wpa_supplicant/src/ap\ieee802_11_vht.c **** 		sta->vht_operation =
 209:C:/Users/stapi/OneDrive/Desktop/GD32VW553/V1_MQTT_OK/GD32VW55X_Wifi_BLE_SDK/GD32VW55x_RELEASE_V1.0.2/MSDK/wpa_supplicant/src/ap\ieee802_11_vht.c **** 			os_zalloc(sizeof(struct ieee80211_vht_operation));
 210:C:/Users/stapi/OneDrive/Desktop/GD32VW553/V1_MQTT_OK/GD32VW55X_Wifi_BLE_SDK/GD32VW55x_RELEASE_V1.0.2/MSDK/wpa_supplicant/src/ap\ieee802_11_vht.c **** 		if (!sta->vht_operation)
 211:C:/Users/stapi/OneDrive/Desktop/GD32VW553/V1_MQTT_OK/GD32VW55X_Wifi_BLE_SDK/GD32VW55x_RELEASE_V1.0.2/MSDK/wpa_supplicant/src/ap\ieee802_11_vht.c **** 			return WLAN_STATUS_UNSPECIFIED_FAILURE;
 212:C:/Users/stapi/OneDrive/Desktop/GD32VW553/V1_MQTT_OK/GD32VW55X_Wifi_BLE_SDK/GD32VW55x_RELEASE_V1.0.2/MSDK/wpa_supplicant/src/ap\ieee802_11_vht.c **** 	}
 213:C:/Users/stapi/OneDrive/Desktop/GD32VW553/V1_MQTT_OK/GD32VW55X_Wifi_BLE_SDK/GD32VW55x_RELEASE_V1.0.2/MSDK/wpa_supplicant/src/ap\ieee802_11_vht.c **** 
 214:C:/Users/stapi/OneDrive/Desktop/GD32VW553/V1_MQTT_OK/GD32VW55X_Wifi_BLE_SDK/GD32VW55x_RELEASE_V1.0.2/MSDK/wpa_supplicant/src/ap\ieee802_11_vht.c **** 	os_memcpy(sta->vht_operation, vht_oper,
 215:C:/Users/stapi/OneDrive/Desktop/GD32VW553/V1_MQTT_OK/GD32VW55X_Wifi_BLE_SDK/GD32VW55x_RELEASE_V1.0.2/MSDK/wpa_supplicant/src/ap\ieee802_11_vht.c **** 		  sizeof(struct ieee80211_vht_operation));
 216:C:/Users/stapi/OneDrive/Desktop/GD32VW553/V1_MQTT_OK/GD32VW55X_Wifi_BLE_SDK/GD32VW55x_RELEASE_V1.0.2/MSDK/wpa_supplicant/src/ap\ieee802_11_vht.c **** 
 217:C:/Users/stapi/OneDrive/Desktop/GD32VW553/V1_MQTT_OK/GD32VW55X_Wifi_BLE_SDK/GD32VW55x_RELEASE_V1.0.2/MSDK/wpa_supplicant/src/ap\ieee802_11_vht.c **** 	return WLAN_STATUS_SUCCESS;
 552              		.loc 1 217 2
 553              		.loc 1 217 9 is_stmt 0
 554 001e 0145     		li	a0,0
 555              	.L49:
 218:C:/Users/stapi/OneDrive/Desktop/GD32VW553/V1_MQTT_OK/GD32VW55X_Wifi_BLE_SDK/GD32VW55x_RELEASE_V1.0.2/MSDK/wpa_supplicant/src/ap\ieee802_11_vht.c **** }
 556              		.loc 1 218 1
 557 0020 4101     		addi	sp,sp,16
 558              		.cfi_remember_state
 559              		.cfi_def_cfa_offset 0
 560 0022 17030000 		tail	__riscv_restore_1
 560      67000300 
 561              		.cfi_restore 8
 562              		.cfi_restore 1
 563              		.cfi_def_cfa_offset -16
 564              	.LVL46:
 565              	.L48:
 566              		.cfi_restore_state
 567 002a B285     		mv	a1,a2
 207:C:/Users/stapi/OneDrive/Desktop/GD32VW553/V1_MQTT_OK/GD32VW55X_Wifi_BLE_SDK/GD32VW55x_RELEASE_V1.0.2/MSDK/wpa_supplicant/src/ap\ieee802_11_vht.c **** 		sta->vht_operation =
 568              		.loc 1 207 2 is_stmt 1
 207:C:/Users/stapi/OneDrive/Desktop/GD32VW553/V1_MQTT_OK/GD32VW55X_Wifi_BLE_SDK/GD32VW55x_RELEASE_V1.0.2/MSDK/wpa_supplicant/src/ap\ieee802_11_vht.c **** 		sta->vht_operation =
 569              		.loc 1 207 5 is_stmt 0
 570 002c 09C9     		beq	a0,zero,.L50
 571              	.LVL47:
 572              	.L51:
 214:C:/Users/stapi/OneDrive/Desktop/GD32VW553/V1_MQTT_OK/GD32VW55X_Wifi_BLE_SDK/GD32VW55x_RELEASE_V1.0.2/MSDK/wpa_supplicant/src/ap\ieee802_11_vht.c **** 		  sizeof(struct ieee80211_vht_operation));
 573              		.loc 1 214 2 is_stmt 1
 574 002e 0325440C 		lw	a0,196(s0)
 575 0032 1546     		li	a2,5
 576 0034 97000000 		call	os_memcpy
 576      E7800000 
 577              	.LVL48:
 578 003c CDB7     		j	.L53
 579              	.LVL49:
 580              	.L50:
 209:C:/Users/stapi/OneDrive/Desktop/GD32VW553/V1_MQTT_OK/GD32VW55X_Wifi_BLE_SDK/GD32VW55x_RELEASE_V1.0.2/MSDK/wpa_supplicant/src/ap\ieee802_11_vht.c **** 		if (!sta->vht_operation)
 581              		.loc 1 209 4 is_stmt 0
 582 003e 1545     		li	a0,5
 583 0040 32C6     		sw	a2,12(sp)
 208:C:/Users/stapi/OneDrive/Desktop/GD32VW553/V1_MQTT_OK/GD32VW55X_Wifi_BLE_SDK/GD32VW55x_RELEASE_V1.0.2/MSDK/wpa_supplicant/src/ap\ieee802_11_vht.c **** 			os_zalloc(sizeof(struct ieee80211_vht_operation));
 584              		.loc 1 208 3 is_stmt 1
 209:C:/Users/stapi/OneDrive/Desktop/GD32VW553/V1_MQTT_OK/GD32VW55X_Wifi_BLE_SDK/GD32VW55x_RELEASE_V1.0.2/MSDK/wpa_supplicant/src/ap\ieee802_11_vht.c **** 		if (!sta->vht_operation)
 585              		.loc 1 209 4 is_stmt 0
 586 0042 97000000 		call	os_zalloc
 586      E7800000 
 587              	.LVL50:
 208:C:/Users/stapi/OneDrive/Desktop/GD32VW553/V1_MQTT_OK/GD32VW55X_Wifi_BLE_SDK/GD32VW55x_RELEASE_V1.0.2/MSDK/wpa_supplicant/src/ap\ieee802_11_vht.c **** 			os_zalloc(sizeof(struct ieee80211_vht_operation));
 588              		.loc 1 208 22
 589 004a 2322A40C 		sw	a0,196(s0)
 210:C:/Users/stapi/OneDrive/Desktop/GD32VW553/V1_MQTT_OK/GD32VW55X_Wifi_BLE_SDK/GD32VW55x_RELEASE_V1.0.2/MSDK/wpa_supplicant/src/ap\ieee802_11_vht.c **** 			return WLAN_STATUS_UNSPECIFIED_FAILURE;
 590              		.loc 1 210 3 is_stmt 1
 210:C:/Users/stapi/OneDrive/Desktop/GD32VW553/V1_MQTT_OK/GD32VW55X_Wifi_BLE_SDK/GD32VW55x_RELEASE_V1.0.2/MSDK/wpa_supplicant/src/ap\ieee802_11_vht.c **** 			return WLAN_STATUS_UNSPECIFIED_FAILURE;
 591              		.loc 1 210 6 is_stmt 0
 592 004e B245     		lw	a1,12(sp)
 593 0050 79FD     		bne	a0,zero,.L51
 211:C:/Users/stapi/OneDrive/Desktop/GD32VW553/V1_MQTT_OK/GD32VW55X_Wifi_BLE_SDK/GD32VW55x_RELEASE_V1.0.2/MSDK/wpa_supplicant/src/ap\ieee802_11_vht.c **** 	}
 594              		.loc 1 211 11
 595 0052 0545     		li	a0,1
 596 0054 F1B7     		j	.L49
 597              		.cfi_endproc
 598              	.LFE143:
 600              		.section	.text.copy_sta_vendor_vht,"ax",@progbits
 601              		.align	1
 602              		.globl	copy_sta_vendor_vht
 604              	copy_sta_vendor_vht:
 605              	.LFB144:
 219:C:/Users/stapi/OneDrive/Desktop/GD32VW553/V1_MQTT_OK/GD32VW55X_Wifi_BLE_SDK/GD32VW55x_RELEASE_V1.0.2/MSDK/wpa_supplicant/src/ap\ieee802_11_vht.c **** 
 220:C:/Users/stapi/OneDrive/Desktop/GD32VW553/V1_MQTT_OK/GD32VW55X_Wifi_BLE_SDK/GD32VW55x_RELEASE_V1.0.2/MSDK/wpa_supplicant/src/ap\ieee802_11_vht.c **** 
 221:C:/Users/stapi/OneDrive/Desktop/GD32VW553/V1_MQTT_OK/GD32VW55X_Wifi_BLE_SDK/GD32VW55x_RELEASE_V1.0.2/MSDK/wpa_supplicant/src/ap\ieee802_11_vht.c **** u16 copy_sta_vendor_vht(struct hostapd_data *hapd, struct sta_info *sta,
 222:C:/Users/stapi/OneDrive/Desktop/GD32VW553/V1_MQTT_OK/GD32VW55X_Wifi_BLE_SDK/GD32VW55x_RELEASE_V1.0.2/MSDK/wpa_supplicant/src/ap\ieee802_11_vht.c **** 			const u8 *ie, size_t len)
 223:C:/Users/stapi/OneDrive/Desktop/GD32VW553/V1_MQTT_OK/GD32VW55X_Wifi_BLE_SDK/GD32VW55x_RELEASE_V1.0.2/MSDK/wpa_supplicant/src/ap\ieee802_11_vht.c **** {
 606              		.loc 1 223 1 is_stmt 1
 607              		.cfi_startproc
 608              	.LVL51:
 609 0000 17030000 		call	t0,__riscv_save_1
 609      E7020300 
 610              		.cfi_offset 8, -8
 611              		.cfi_offset 1, -4
 612              		.cfi_def_cfa_offset 16
 224:C:/Users/stapi/OneDrive/Desktop/GD32VW553/V1_MQTT_OK/GD32VW55X_Wifi_BLE_SDK/GD32VW55x_RELEASE_V1.0.2/MSDK/wpa_supplicant/src/ap\ieee802_11_vht.c **** 	const u8 *vht_capab;
 613              		.loc 1 224 2
 225:C:/Users/stapi/OneDrive/Desktop/GD32VW553/V1_MQTT_OK/GD32VW55X_Wifi_BLE_SDK/GD32VW55x_RELEASE_V1.0.2/MSDK/wpa_supplicant/src/ap\ieee802_11_vht.c **** 	unsigned int vht_capab_len;
 614              		.loc 1 225 2
 226:C:/Users/stapi/OneDrive/Desktop/GD32VW553/V1_MQTT_OK/GD32VW55X_Wifi_BLE_SDK/GD32VW55x_RELEASE_V1.0.2/MSDK/wpa_supplicant/src/ap\ieee802_11_vht.c **** 
 227:C:/Users/stapi/OneDrive/Desktop/GD32VW553/V1_MQTT_OK/GD32VW55X_Wifi_BLE_SDK/GD32VW55x_RELEASE_V1.0.2/MSDK/wpa_supplicant/src/ap\ieee802_11_vht.c **** 	if (!ie || len < 5 + 2 + sizeof(struct ieee80211_vht_capabilities) ||
 615              		.loc 1 227 2
 223:C:/Users/stapi/OneDrive/Desktop/GD32VW553/V1_MQTT_OK/GD32VW55X_Wifi_BLE_SDK/GD32VW55x_RELEASE_V1.0.2/MSDK/wpa_supplicant/src/ap\ieee802_11_vht.c **** 	const u8 *vht_capab;
 616              		.loc 1 223 1 is_stmt 0
 617 0008 4111     		addi	sp,sp,-16
 618              		.cfi_def_cfa_offset 32
 223:C:/Users/stapi/OneDrive/Desktop/GD32VW553/V1_MQTT_OK/GD32VW55X_Wifi_BLE_SDK/GD32VW55x_RELEASE_V1.0.2/MSDK/wpa_supplicant/src/ap\ieee802_11_vht.c **** 	const u8 *vht_capab;
 619              		.loc 1 223 1
 620 000a 2E84     		mv	s0,a1
 621              		.loc 1 227 5
 622 000c 35CA     		beq	a2,zero,.L55
 623              		.loc 1 227 10 discriminator 1
 624 000e C947     		li	a5,18
 625 0010 63F8D706 		bleu	a3,a5,.L55
 228:C:/Users/stapi/OneDrive/Desktop/GD32VW553/V1_MQTT_OK/GD32VW55X_Wifi_BLE_SDK/GD32VW55x_RELEASE_V1.0.2/MSDK/wpa_supplicant/src/ap\ieee802_11_vht.c **** 	    hapd->conf->disable_11ac)
 626              		.loc 1 228 16 discriminator 2
 627 0014 1C45     		lw	a5,8(a0)
 227:C:/Users/stapi/OneDrive/Desktop/GD32VW553/V1_MQTT_OK/GD32VW55X_Wifi_BLE_SDK/GD32VW55x_RELEASE_V1.0.2/MSDK/wpa_supplicant/src/ap\ieee802_11_vht.c **** 	    hapd->conf->disable_11ac)
 628              		.loc 1 227 69 discriminator 2
 629 0016 83C79729 		lbu	a5,665(a5)
 630 001a BDE3     		bne	a5,zero,.L55
 229:C:/Users/stapi/OneDrive/Desktop/GD32VW553/V1_MQTT_OK/GD32VW55X_Wifi_BLE_SDK/GD32VW55x_RELEASE_V1.0.2/MSDK/wpa_supplicant/src/ap\ieee802_11_vht.c **** 		goto no_capab;
 230:C:/Users/stapi/OneDrive/Desktop/GD32VW553/V1_MQTT_OK/GD32VW55X_Wifi_BLE_SDK/GD32VW55x_RELEASE_V1.0.2/MSDK/wpa_supplicant/src/ap\ieee802_11_vht.c **** 
 231:C:/Users/stapi/OneDrive/Desktop/GD32VW553/V1_MQTT_OK/GD32VW55X_Wifi_BLE_SDK/GD32VW55x_RELEASE_V1.0.2/MSDK/wpa_supplicant/src/ap\ieee802_11_vht.c **** 	/* The VHT Capabilities element embedded in vendor VHT */
 232:C:/Users/stapi/OneDrive/Desktop/GD32VW553/V1_MQTT_OK/GD32VW55X_Wifi_BLE_SDK/GD32VW55x_RELEASE_V1.0.2/MSDK/wpa_supplicant/src/ap\ieee802_11_vht.c **** 	vht_capab = ie + 5;
 631              		.loc 1 232 2 is_stmt 1
 632              	.LVL52:
 233:C:/Users/stapi/OneDrive/Desktop/GD32VW553/V1_MQTT_OK/GD32VW55X_Wifi_BLE_SDK/GD32VW55x_RELEASE_V1.0.2/MSDK/wpa_supplicant/src/ap\ieee802_11_vht.c **** 	if (vht_capab[0] != WLAN_EID_VHT_CAP)
 633              		.loc 1 233 2
 634              		.loc 1 233 5 is_stmt 0
 635 001c 03475600 		lbu	a4,5(a2)
 636 0020 9307F00B 		li	a5,191
 637 0024 631EF704 		bne	a4,a5,.L55
 234:C:/Users/stapi/OneDrive/Desktop/GD32VW553/V1_MQTT_OK/GD32VW55X_Wifi_BLE_SDK/GD32VW55x_RELEASE_V1.0.2/MSDK/wpa_supplicant/src/ap\ieee802_11_vht.c **** 		goto no_capab;
 235:C:/Users/stapi/OneDrive/Desktop/GD32VW553/V1_MQTT_OK/GD32VW55X_Wifi_BLE_SDK/GD32VW55x_RELEASE_V1.0.2/MSDK/wpa_supplicant/src/ap\ieee802_11_vht.c **** 	vht_capab_len = vht_capab[1];
 638              		.loc 1 235 2 is_stmt 1
 639              		.loc 1 235 27 is_stmt 0
 640 0028 83476600 		lbu	a5,6(a2)
 641              	.LVL53:
 236:C:/Users/stapi/OneDrive/Desktop/GD32VW553/V1_MQTT_OK/GD32VW55X_Wifi_BLE_SDK/GD32VW55x_RELEASE_V1.0.2/MSDK/wpa_supplicant/src/ap\ieee802_11_vht.c **** 	if (vht_capab_len < sizeof(struct ieee80211_vht_capabilities) ||
 642              		.loc 1 236 2 is_stmt 1
 643              		.loc 1 236 5 is_stmt 0
 644 002c 2D47     		li	a4,11
 645 002e 6379F704 		bleu	a5,a4,.L55
 237:C:/Users/stapi/OneDrive/Desktop/GD32VW553/V1_MQTT_OK/GD32VW55X_Wifi_BLE_SDK/GD32VW55x_RELEASE_V1.0.2/MSDK/wpa_supplicant/src/ap\ieee802_11_vht.c **** 	    (int) vht_capab_len > ie + len - vht_capab - 2)
 646              		.loc 1 237 26 discriminator 1
 647 0032 E916     		addi	a3,a3,-6
 648              	.LVL54:
 236:C:/Users/stapi/OneDrive/Desktop/GD32VW553/V1_MQTT_OK/GD32VW55X_Wifi_BLE_SDK/GD32VW55x_RELEASE_V1.0.2/MSDK/wpa_supplicant/src/ap\ieee802_11_vht.c **** 	if (vht_capab_len < sizeof(struct ieee80211_vht_capabilities) ||
 649              		.loc 1 236 64 discriminator 1
 650 0034 63D6D704 		ble	a3,a5,.L55
 238:C:/Users/stapi/OneDrive/Desktop/GD32VW553/V1_MQTT_OK/GD32VW55X_Wifi_BLE_SDK/GD32VW55x_RELEASE_V1.0.2/MSDK/wpa_supplicant/src/ap\ieee802_11_vht.c **** 		goto no_capab;
 239:C:/Users/stapi/OneDrive/Desktop/GD32VW553/V1_MQTT_OK/GD32VW55X_Wifi_BLE_SDK/GD32VW55x_RELEASE_V1.0.2/MSDK/wpa_supplicant/src/ap\ieee802_11_vht.c **** 	vht_capab += 2;
 651              		.loc 1 239 2 is_stmt 1
 240:C:/Users/stapi/OneDrive/Desktop/GD32VW553/V1_MQTT_OK/GD32VW55X_Wifi_BLE_SDK/GD32VW55x_RELEASE_V1.0.2/MSDK/wpa_supplicant/src/ap\ieee802_11_vht.c **** 
 241:C:/Users/stapi/OneDrive/Desktop/GD32VW553/V1_MQTT_OK/GD32VW55X_Wifi_BLE_SDK/GD32VW55x_RELEASE_V1.0.2/MSDK/wpa_supplicant/src/ap\ieee802_11_vht.c **** 	if (sta->vht_capabilities == NULL) {
 652              		.loc 1 241 5 is_stmt 0
 653 0038 8327040C 		lw	a5,192(s0)
 654              	.LVL55:
 239:C:/Users/stapi/OneDrive/Desktop/GD32VW553/V1_MQTT_OK/GD32VW55X_Wifi_BLE_SDK/GD32VW55x_RELEASE_V1.0.2/MSDK/wpa_supplicant/src/ap\ieee802_11_vht.c **** 
 655              		.loc 1 239 12
 656 003c 93057600 		addi	a1,a2,7
 657              	.LVL56:
 658              		.loc 1 241 2 is_stmt 1
 659              		.loc 1 241 5 is_stmt 0
 660 0040 99CF     		beq	a5,zero,.L56
 661              	.LVL57:
 662              	.L58:
 242:C:/Users/stapi/OneDrive/Desktop/GD32VW553/V1_MQTT_OK/GD32VW55X_Wifi_BLE_SDK/GD32VW55x_RELEASE_V1.0.2/MSDK/wpa_supplicant/src/ap\ieee802_11_vht.c **** 		sta->vht_capabilities =
 243:C:/Users/stapi/OneDrive/Desktop/GD32VW553/V1_MQTT_OK/GD32VW55X_Wifi_BLE_SDK/GD32VW55x_RELEASE_V1.0.2/MSDK/wpa_supplicant/src/ap\ieee802_11_vht.c **** 			os_zalloc(sizeof(struct ieee80211_vht_capabilities));
 244:C:/Users/stapi/OneDrive/Desktop/GD32VW553/V1_MQTT_OK/GD32VW55X_Wifi_BLE_SDK/GD32VW55x_RELEASE_V1.0.2/MSDK/wpa_supplicant/src/ap\ieee802_11_vht.c **** 		if (sta->vht_capabilities == NULL)
 245:C:/Users/stapi/OneDrive/Desktop/GD32VW553/V1_MQTT_OK/GD32VW55X_Wifi_BLE_SDK/GD32VW55x_RELEASE_V1.0.2/MSDK/wpa_supplicant/src/ap\ieee802_11_vht.c **** 			return WLAN_STATUS_UNSPECIFIED_FAILURE;
 246:C:/Users/stapi/OneDrive/Desktop/GD32VW553/V1_MQTT_OK/GD32VW55X_Wifi_BLE_SDK/GD32VW55x_RELEASE_V1.0.2/MSDK/wpa_supplicant/src/ap\ieee802_11_vht.c **** 	}
 247:C:/Users/stapi/OneDrive/Desktop/GD32VW553/V1_MQTT_OK/GD32VW55X_Wifi_BLE_SDK/GD32VW55x_RELEASE_V1.0.2/MSDK/wpa_supplicant/src/ap\ieee802_11_vht.c **** 
 248:C:/Users/stapi/OneDrive/Desktop/GD32VW553/V1_MQTT_OK/GD32VW55X_Wifi_BLE_SDK/GD32VW55x_RELEASE_V1.0.2/MSDK/wpa_supplicant/src/ap\ieee802_11_vht.c **** 	sta->flags |= WLAN_STA_VHT | WLAN_STA_VENDOR_VHT;
 663              		.loc 1 248 2 is_stmt 1
 664              		.loc 1 248 13 is_stmt 0
 665 0042 1C50     		lw	a5,32(s0)
 666 0044 37072400 		li	a4,2359296
 249:C:/Users/stapi/OneDrive/Desktop/GD32VW553/V1_MQTT_OK/GD32VW55X_Wifi_BLE_SDK/GD32VW55x_RELEASE_V1.0.2/MSDK/wpa_supplicant/src/ap\ieee802_11_vht.c **** 	os_memcpy(sta->vht_capabilities, vht_capab,
 667              		.loc 1 249 2
 668 0048 0325040C 		lw	a0,192(s0)
 248:C:/Users/stapi/OneDrive/Desktop/GD32VW553/V1_MQTT_OK/GD32VW55X_Wifi_BLE_SDK/GD32VW55x_RELEASE_V1.0.2/MSDK/wpa_supplicant/src/ap\ieee802_11_vht.c **** 	os_memcpy(sta->vht_capabilities, vht_capab,
 669              		.loc 1 248 13
 670 004c D98F     		or	a5,a5,a4
 671 004e 1CD0     		sw	a5,32(s0)
 672              		.loc 1 249 2 is_stmt 1
 673 0050 3146     		li	a2,12
 674 0052 97000000 		call	os_memcpy
 674      E7800000 
 675              	.LVL58:
 250:C:/Users/stapi/OneDrive/Desktop/GD32VW553/V1_MQTT_OK/GD32VW55X_Wifi_BLE_SDK/GD32VW55x_RELEASE_V1.0.2/MSDK/wpa_supplicant/src/ap\ieee802_11_vht.c **** 		  sizeof(struct ieee80211_vht_capabilities));
 251:C:/Users/stapi/OneDrive/Desktop/GD32VW553/V1_MQTT_OK/GD32VW55X_Wifi_BLE_SDK/GD32VW55x_RELEASE_V1.0.2/MSDK/wpa_supplicant/src/ap\ieee802_11_vht.c **** 	return WLAN_STATUS_SUCCESS;
 676              		.loc 1 251 2
 677              	.L64:
 252:C:/Users/stapi/OneDrive/Desktop/GD32VW553/V1_MQTT_OK/GD32VW55X_Wifi_BLE_SDK/GD32VW55x_RELEASE_V1.0.2/MSDK/wpa_supplicant/src/ap\ieee802_11_vht.c **** 
 253:C:/Users/stapi/OneDrive/Desktop/GD32VW553/V1_MQTT_OK/GD32VW55X_Wifi_BLE_SDK/GD32VW55x_RELEASE_V1.0.2/MSDK/wpa_supplicant/src/ap\ieee802_11_vht.c **** no_capab:
 254:C:/Users/stapi/OneDrive/Desktop/GD32VW553/V1_MQTT_OK/GD32VW55X_Wifi_BLE_SDK/GD32VW55x_RELEASE_V1.0.2/MSDK/wpa_supplicant/src/ap\ieee802_11_vht.c **** 	sta->flags &= ~WLAN_STA_VENDOR_VHT;
 255:C:/Users/stapi/OneDrive/Desktop/GD32VW553/V1_MQTT_OK/GD32VW55X_Wifi_BLE_SDK/GD32VW55x_RELEASE_V1.0.2/MSDK/wpa_supplicant/src/ap\ieee802_11_vht.c **** 	return WLAN_STATUS_SUCCESS;
 678              		.loc 1 255 2
 679              		.loc 1 255 9 is_stmt 0
 680 005a 0145     		li	a0,0
 681 005c 29A8     		j	.L57
 682              	.LVL59:
 683              	.L56:
 243:C:/Users/stapi/OneDrive/Desktop/GD32VW553/V1_MQTT_OK/GD32VW55X_Wifi_BLE_SDK/GD32VW55x_RELEASE_V1.0.2/MSDK/wpa_supplicant/src/ap\ieee802_11_vht.c **** 		if (sta->vht_capabilities == NULL)
 684              		.loc 1 243 4
 685 005e 3145     		li	a0,12
 686              	.LVL60:
 687 0060 2EC6     		sw	a1,12(sp)
 242:C:/Users/stapi/OneDrive/Desktop/GD32VW553/V1_MQTT_OK/GD32VW55X_Wifi_BLE_SDK/GD32VW55x_RELEASE_V1.0.2/MSDK/wpa_supplicant/src/ap\ieee802_11_vht.c **** 			os_zalloc(sizeof(struct ieee80211_vht_capabilities));
 688              		.loc 1 242 3 is_stmt 1
 243:C:/Users/stapi/OneDrive/Desktop/GD32VW553/V1_MQTT_OK/GD32VW55X_Wifi_BLE_SDK/GD32VW55x_RELEASE_V1.0.2/MSDK/wpa_supplicant/src/ap\ieee802_11_vht.c **** 		if (sta->vht_capabilities == NULL)
 689              		.loc 1 243 4 is_stmt 0
 690 0062 97000000 		call	os_zalloc
 690      E7800000 
 691              	.LVL61:
 692 006a AA87     		mv	a5,a0
 242:C:/Users/stapi/OneDrive/Desktop/GD32VW553/V1_MQTT_OK/GD32VW55X_Wifi_BLE_SDK/GD32VW55x_RELEASE_V1.0.2/MSDK/wpa_supplicant/src/ap\ieee802_11_vht.c **** 			os_zalloc(sizeof(struct ieee80211_vht_capabilities));
 693              		.loc 1 242 25
 694 006c 2320A40C 		sw	a0,192(s0)
 244:C:/Users/stapi/OneDrive/Desktop/GD32VW553/V1_MQTT_OK/GD32VW55X_Wifi_BLE_SDK/GD32VW55x_RELEASE_V1.0.2/MSDK/wpa_supplicant/src/ap\ieee802_11_vht.c **** 			return WLAN_STATUS_UNSPECIFIED_FAILURE;
 695              		.loc 1 244 3 is_stmt 1
 244:C:/Users/stapi/OneDrive/Desktop/GD32VW553/V1_MQTT_OK/GD32VW55X_Wifi_BLE_SDK/GD32VW55x_RELEASE_V1.0.2/MSDK/wpa_supplicant/src/ap\ieee802_11_vht.c **** 			return WLAN_STATUS_UNSPECIFIED_FAILURE;
 696              		.loc 1 244 6 is_stmt 0
 697 0070 B245     		lw	a1,12(sp)
 245:C:/Users/stapi/OneDrive/Desktop/GD32VW553/V1_MQTT_OK/GD32VW55X_Wifi_BLE_SDK/GD32VW55x_RELEASE_V1.0.2/MSDK/wpa_supplicant/src/ap\ieee802_11_vht.c **** 	}
 698              		.loc 1 245 11
 699 0072 0545     		li	a0,1
 244:C:/Users/stapi/OneDrive/Desktop/GD32VW553/V1_MQTT_OK/GD32VW55X_Wifi_BLE_SDK/GD32VW55x_RELEASE_V1.0.2/MSDK/wpa_supplicant/src/ap\ieee802_11_vht.c **** 			return WLAN_STATUS_UNSPECIFIED_FAILURE;
 700              		.loc 1 244 6
 701 0074 F9F7     		bne	a5,zero,.L58
 702              	.LVL62:
 703              	.L57:
 256:C:/Users/stapi/OneDrive/Desktop/GD32VW553/V1_MQTT_OK/GD32VW55X_Wifi_BLE_SDK/GD32VW55x_RELEASE_V1.0.2/MSDK/wpa_supplicant/src/ap\ieee802_11_vht.c **** }
 704              		.loc 1 256 1
 705 0076 4101     		addi	sp,sp,16
 706              		.cfi_remember_state
 707              		.cfi_def_cfa_offset 0
 708 0078 17030000 		tail	__riscv_restore_1
 708      67000300 
 709              		.cfi_restore 8
 710              		.cfi_restore 1
 711              		.cfi_def_cfa_offset -16
 712              	.LVL63:
 713              	.L55:
 714              		.cfi_restore_state
 254:C:/Users/stapi/OneDrive/Desktop/GD32VW553/V1_MQTT_OK/GD32VW55X_Wifi_BLE_SDK/GD32VW55x_RELEASE_V1.0.2/MSDK/wpa_supplicant/src/ap\ieee802_11_vht.c **** 	return WLAN_STATUS_SUCCESS;
 715              		.loc 1 254 2 is_stmt 1
 254:C:/Users/stapi/OneDrive/Desktop/GD32VW553/V1_MQTT_OK/GD32VW55X_Wifi_BLE_SDK/GD32VW55x_RELEASE_V1.0.2/MSDK/wpa_supplicant/src/ap\ieee802_11_vht.c **** 	return WLAN_STATUS_SUCCESS;
 716              		.loc 1 254 13 is_stmt 0
 717 0080 1C50     		lw	a5,32(s0)
 718 0082 93975749 		bclri	a5,a5,21
 719 0086 1CD0     		sw	a5,32(s0)
 720 0088 C9BF     		j	.L64
 721              		.cfi_endproc
 722              	.LFE144:
 724              		.section	.text.hostapd_eid_vendor_vht,"ax",@progbits
 725              		.align	1
 726              		.globl	hostapd_eid_vendor_vht
 728              	hostapd_eid_vendor_vht:
 729              	.LFB145:
 257:C:/Users/stapi/OneDrive/Desktop/GD32VW553/V1_MQTT_OK/GD32VW55X_Wifi_BLE_SDK/GD32VW55x_RELEASE_V1.0.2/MSDK/wpa_supplicant/src/ap\ieee802_11_vht.c **** 
 258:C:/Users/stapi/OneDrive/Desktop/GD32VW553/V1_MQTT_OK/GD32VW55X_Wifi_BLE_SDK/GD32VW55x_RELEASE_V1.0.2/MSDK/wpa_supplicant/src/ap\ieee802_11_vht.c **** 
 259:C:/Users/stapi/OneDrive/Desktop/GD32VW553/V1_MQTT_OK/GD32VW55X_Wifi_BLE_SDK/GD32VW55x_RELEASE_V1.0.2/MSDK/wpa_supplicant/src/ap\ieee802_11_vht.c **** u8 * hostapd_eid_vendor_vht(struct hostapd_data *hapd, u8 *eid)
 260:C:/Users/stapi/OneDrive/Desktop/GD32VW553/V1_MQTT_OK/GD32VW55X_Wifi_BLE_SDK/GD32VW55x_RELEASE_V1.0.2/MSDK/wpa_supplicant/src/ap\ieee802_11_vht.c **** {
 730              		.loc 1 260 1 is_stmt 1
 731              		.cfi_startproc
 732              	.LVL64:
 261:C:/Users/stapi/OneDrive/Desktop/GD32VW553/V1_MQTT_OK/GD32VW55X_Wifi_BLE_SDK/GD32VW55x_RELEASE_V1.0.2/MSDK/wpa_supplicant/src/ap\ieee802_11_vht.c **** 	u8 *pos = eid;
 733              		.loc 1 261 2
 262:C:/Users/stapi/OneDrive/Desktop/GD32VW553/V1_MQTT_OK/GD32VW55X_Wifi_BLE_SDK/GD32VW55x_RELEASE_V1.0.2/MSDK/wpa_supplicant/src/ap\ieee802_11_vht.c **** 
 263:C:/Users/stapi/OneDrive/Desktop/GD32VW553/V1_MQTT_OK/GD32VW55X_Wifi_BLE_SDK/GD32VW55x_RELEASE_V1.0.2/MSDK/wpa_supplicant/src/ap\ieee802_11_vht.c **** 	/* Vendor VHT is applicable only to 2.4 GHz */
 264:C:/Users/stapi/OneDrive/Desktop/GD32VW553/V1_MQTT_OK/GD32VW55X_Wifi_BLE_SDK/GD32VW55x_RELEASE_V1.0.2/MSDK/wpa_supplicant/src/ap\ieee802_11_vht.c **** 	if (!hapd->iface->current_mode ||
 734              		.loc 1 264 2
 735              		.loc 1 264 18 is_stmt 0
 736 0000 1C41     		lw	a5,0(a0)
 737 0002 83A74746 		lw	a5,1124(a5)
 738              		.loc 1 264 5
 739 0006 ADC3     		beq	a5,zero,.L71
 740              		.loc 1 264 33 discriminator 1
 741 0008 9843     		lw	a4,0(a5)
 742 000a 8547     		li	a5,1
 743 000c 631EF704 		bne	a4,a5,.L71
 260:C:/Users/stapi/OneDrive/Desktop/GD32VW553/V1_MQTT_OK/GD32VW55X_Wifi_BLE_SDK/GD32VW55x_RELEASE_V1.0.2/MSDK/wpa_supplicant/src/ap\ieee802_11_vht.c **** 	u8 *pos = eid;
 744              		.loc 1 260 1
 745 0010 17030000 		call	t0,__riscv_save_1
 745      E7020300 
 746              		.cfi_offset 8, -8
 747              		.cfi_offset 1, -4
 748              		.cfi_def_cfa_offset 16
 265:C:/Users/stapi/OneDrive/Desktop/GD32VW553/V1_MQTT_OK/GD32VW55X_Wifi_BLE_SDK/GD32VW55x_RELEASE_V1.0.2/MSDK/wpa_supplicant/src/ap\ieee802_11_vht.c **** 	    hapd->iface->current_mode->mode != HOSTAPD_MODE_IEEE80211G)
 266:C:/Users/stapi/OneDrive/Desktop/GD32VW553/V1_MQTT_OK/GD32VW55X_Wifi_BLE_SDK/GD32VW55x_RELEASE_V1.0.2/MSDK/wpa_supplicant/src/ap\ieee802_11_vht.c **** 		return eid;
 267:C:/Users/stapi/OneDrive/Desktop/GD32VW553/V1_MQTT_OK/GD32VW55X_Wifi_BLE_SDK/GD32VW55x_RELEASE_V1.0.2/MSDK/wpa_supplicant/src/ap\ieee802_11_vht.c **** 
 268:C:/Users/stapi/OneDrive/Desktop/GD32VW553/V1_MQTT_OK/GD32VW55X_Wifi_BLE_SDK/GD32VW55x_RELEASE_V1.0.2/MSDK/wpa_supplicant/src/ap\ieee802_11_vht.c **** 	*pos++ = WLAN_EID_VENDOR_SPECIFIC;
 749              		.loc 1 268 9
 750 0018 9307D0FD 		li	a5,-35
 751 001c 2380F500 		sb	a5,0(a1)
 269:C:/Users/stapi/OneDrive/Desktop/GD32VW553/V1_MQTT_OK/GD32VW55X_Wifi_BLE_SDK/GD32VW55x_RELEASE_V1.0.2/MSDK/wpa_supplicant/src/ap\ieee802_11_vht.c **** 	*pos++ = (5 +		/* The Vendor OUI, type and subtype */
 752              		.loc 1 269 9
 753 0020 E947     		li	a5,26
 754 0022 A380F500 		sb	a5,1(a1)
 755              	.LBB19:
 756              	.LBB20:
 757              		.file 2 "..\\..\\..\\..\\wpa_supplicant\\src/utils/common.h"
   1:..\..\..\..\wpa_supplicant\src/utils/common.h **** /*
   2:..\..\..\..\wpa_supplicant\src/utils/common.h ****  * wpa_supplicant/hostapd / common helper functions, etc.
   3:..\..\..\..\wpa_supplicant\src/utils/common.h ****  * Copyright (c) 2002-2007, Jouni Malinen <j@w1.fi>
   4:..\..\..\..\wpa_supplicant\src/utils/common.h ****  *
   5:..\..\..\..\wpa_supplicant\src/utils/common.h ****  * This software may be distributed under the terms of the BSD license.
   6:..\..\..\..\wpa_supplicant\src/utils/common.h ****  * See README for more details.
   7:..\..\..\..\wpa_supplicant\src/utils/common.h ****  */
   8:..\..\..\..\wpa_supplicant\src/utils/common.h **** 
   9:..\..\..\..\wpa_supplicant\src/utils/common.h **** #ifndef COMMON_H
  10:..\..\..\..\wpa_supplicant\src/utils/common.h **** #define COMMON_H
  11:..\..\..\..\wpa_supplicant\src/utils/common.h **** 
  12:..\..\..\..\wpa_supplicant\src/utils/common.h **** #include "os.h"
  13:..\..\..\..\wpa_supplicant\src/utils/common.h **** 
  14:..\..\..\..\wpa_supplicant\src/utils/common.h **** #if defined(__linux__) || defined(__GLIBC__)
  15:..\..\..\..\wpa_supplicant\src/utils/common.h **** #include <endian.h>
  16:..\..\..\..\wpa_supplicant\src/utils/common.h **** #include <byteswap.h>
  17:..\..\..\..\wpa_supplicant\src/utils/common.h **** #endif /* __linux__ */
  18:..\..\..\..\wpa_supplicant\src/utils/common.h **** 
  19:..\..\..\..\wpa_supplicant\src/utils/common.h **** #if defined(__FreeBSD__) || defined(__NetBSD__) || defined(__DragonFly__) || \
  20:..\..\..\..\wpa_supplicant\src/utils/common.h ****     defined(__OpenBSD__)
  21:..\..\..\..\wpa_supplicant\src/utils/common.h **** #include <sys/types.h>
  22:..\..\..\..\wpa_supplicant\src/utils/common.h **** #include <sys/endian.h>
  23:..\..\..\..\wpa_supplicant\src/utils/common.h **** #define __BYTE_ORDER	_BYTE_ORDER
  24:..\..\..\..\wpa_supplicant\src/utils/common.h **** #define	__LITTLE_ENDIAN	_LITTLE_ENDIAN
  25:..\..\..\..\wpa_supplicant\src/utils/common.h **** #define	__BIG_ENDIAN	_BIG_ENDIAN
  26:..\..\..\..\wpa_supplicant\src/utils/common.h **** #ifdef __OpenBSD__
  27:..\..\..\..\wpa_supplicant\src/utils/common.h **** #define bswap_16 swap16
  28:..\..\..\..\wpa_supplicant\src/utils/common.h **** #define bswap_32 swap32
  29:..\..\..\..\wpa_supplicant\src/utils/common.h **** #define bswap_64 swap64
  30:..\..\..\..\wpa_supplicant\src/utils/common.h **** #else /* __OpenBSD__ */
  31:..\..\..\..\wpa_supplicant\src/utils/common.h **** #define bswap_16 bswap16
  32:..\..\..\..\wpa_supplicant\src/utils/common.h **** #define bswap_32 bswap32
  33:..\..\..\..\wpa_supplicant\src/utils/common.h **** #define bswap_64 bswap64
  34:..\..\..\..\wpa_supplicant\src/utils/common.h **** #endif /* __OpenBSD__ */
  35:..\..\..\..\wpa_supplicant\src/utils/common.h **** #endif /* defined(__FreeBSD__) || defined(__NetBSD__) ||
  36:..\..\..\..\wpa_supplicant\src/utils/common.h **** 	* defined(__DragonFly__) || defined(__OpenBSD__) */
  37:..\..\..\..\wpa_supplicant\src/utils/common.h **** 
  38:..\..\..\..\wpa_supplicant\src/utils/common.h **** #ifdef __APPLE__
  39:..\..\..\..\wpa_supplicant\src/utils/common.h **** #include <sys/types.h>
  40:..\..\..\..\wpa_supplicant\src/utils/common.h **** #include <machine/endian.h>
  41:..\..\..\..\wpa_supplicant\src/utils/common.h **** #define __BYTE_ORDER	_BYTE_ORDER
  42:..\..\..\..\wpa_supplicant\src/utils/common.h **** #define __LITTLE_ENDIAN	_LITTLE_ENDIAN
  43:..\..\..\..\wpa_supplicant\src/utils/common.h **** #define __BIG_ENDIAN	_BIG_ENDIAN
  44:..\..\..\..\wpa_supplicant\src/utils/common.h **** static inline unsigned short bswap_16(unsigned short v)
  45:..\..\..\..\wpa_supplicant\src/utils/common.h **** {
  46:..\..\..\..\wpa_supplicant\src/utils/common.h **** 	return ((v & 0xff) << 8) | (v >> 8);
  47:..\..\..\..\wpa_supplicant\src/utils/common.h **** }
  48:..\..\..\..\wpa_supplicant\src/utils/common.h **** 
  49:..\..\..\..\wpa_supplicant\src/utils/common.h **** static inline unsigned int bswap_32(unsigned int v)
  50:..\..\..\..\wpa_supplicant\src/utils/common.h **** {
  51:..\..\..\..\wpa_supplicant\src/utils/common.h **** 	return ((v & 0xff) << 24) | ((v & 0xff00) << 8) |
  52:..\..\..\..\wpa_supplicant\src/utils/common.h **** 		((v & 0xff0000) >> 8) | (v >> 24);
  53:..\..\..\..\wpa_supplicant\src/utils/common.h **** }
  54:..\..\..\..\wpa_supplicant\src/utils/common.h **** #endif /* __APPLE__ */
  55:..\..\..\..\wpa_supplicant\src/utils/common.h **** 
  56:..\..\..\..\wpa_supplicant\src/utils/common.h **** #ifdef CONFIG_GDWIFI
  57:..\..\..\..\wpa_supplicant\src/utils/common.h **** // #include <sys/types.h>
  58:..\..\..\..\wpa_supplicant\src/utils/common.h **** // #include <machine/endian.h>
  59:..\..\..\..\wpa_supplicant\src/utils/common.h **** #define __BYTE_ORDER	BYTE_ORDER
  60:..\..\..\..\wpa_supplicant\src/utils/common.h **** #define __LITTLE_ENDIAN	LITTLE_ENDIAN
  61:..\..\..\..\wpa_supplicant\src/utils/common.h **** #define __BIG_ENDIAN	BIG_ENDIAN
  62:..\..\..\..\wpa_supplicant\src/utils/common.h **** #define ETHER_ADDR_LEN	6
  63:..\..\..\..\wpa_supplicant\src/utils/common.h **** #define ETH_P_802_3	0x0001		/* Dummy type for 802.3 frames  */
  64:..\..\..\..\wpa_supplicant\src/utils/common.h **** 
  65:..\..\..\..\wpa_supplicant\src/utils/common.h **** static inline unsigned short bswap_16(unsigned short v)
  66:..\..\..\..\wpa_supplicant\src/utils/common.h **** {
  67:..\..\..\..\wpa_supplicant\src/utils/common.h **** 	return ((v & 0xff) << 8) | (v >> 8);
  68:..\..\..\..\wpa_supplicant\src/utils/common.h **** }
  69:..\..\..\..\wpa_supplicant\src/utils/common.h **** 
  70:..\..\..\..\wpa_supplicant\src/utils/common.h **** static inline unsigned int bswap_32(unsigned int v)
  71:..\..\..\..\wpa_supplicant\src/utils/common.h **** {
  72:..\..\..\..\wpa_supplicant\src/utils/common.h **** 	return ((v & 0xff) << 24) | ((v & 0xff00) << 8) |
  73:..\..\..\..\wpa_supplicant\src/utils/common.h **** 		((v & 0xff0000) >> 8) | (v >> 24);
  74:..\..\..\..\wpa_supplicant\src/utils/common.h **** }
  75:..\..\..\..\wpa_supplicant\src/utils/common.h **** 
  76:..\..\..\..\wpa_supplicant\src/utils/common.h **** struct ether_header
  77:..\..\..\..\wpa_supplicant\src/utils/common.h **** {
  78:..\..\..\..\wpa_supplicant\src/utils/common.h **** 	uint8_t  ether_dhost[ETHER_ADDR_LEN];
  79:..\..\..\..\wpa_supplicant\src/utils/common.h **** 	uint8_t  ether_shost[ETHER_ADDR_LEN];
  80:..\..\..\..\wpa_supplicant\src/utils/common.h **** 	uint16_t ether_type;
  81:..\..\..\..\wpa_supplicant\src/utils/common.h **** } __PACKED;
  82:..\..\..\..\wpa_supplicant\src/utils/common.h **** #endif /* CONFIG_GDWIFI */
  83:..\..\..\..\wpa_supplicant\src/utils/common.h **** #ifdef __rtems__
  84:..\..\..\..\wpa_supplicant\src/utils/common.h **** #include <rtems/endian.h>
  85:..\..\..\..\wpa_supplicant\src/utils/common.h **** #define __BYTE_ORDER BYTE_ORDER
  86:..\..\..\..\wpa_supplicant\src/utils/common.h **** #define __LITTLE_ENDIAN LITTLE_ENDIAN
  87:..\..\..\..\wpa_supplicant\src/utils/common.h **** #define __BIG_ENDIAN BIG_ENDIAN
  88:..\..\..\..\wpa_supplicant\src/utils/common.h **** #define bswap_16 CPU_swap_u16
  89:..\..\..\..\wpa_supplicant\src/utils/common.h **** #define bswap_32 CPU_swap_u32
  90:..\..\..\..\wpa_supplicant\src/utils/common.h **** #endif /* __rtems__ */
  91:..\..\..\..\wpa_supplicant\src/utils/common.h **** 
  92:..\..\..\..\wpa_supplicant\src/utils/common.h **** #ifdef CONFIG_NATIVE_WINDOWS
  93:..\..\..\..\wpa_supplicant\src/utils/common.h **** #include <winsock.h>
  94:..\..\..\..\wpa_supplicant\src/utils/common.h **** 
  95:..\..\..\..\wpa_supplicant\src/utils/common.h **** typedef int socklen_t;
  96:..\..\..\..\wpa_supplicant\src/utils/common.h **** 
  97:..\..\..\..\wpa_supplicant\src/utils/common.h **** #ifndef MSG_DONTWAIT
  98:..\..\..\..\wpa_supplicant\src/utils/common.h **** #define MSG_DONTWAIT 0 /* not supported */
  99:..\..\..\..\wpa_supplicant\src/utils/common.h **** #endif
 100:..\..\..\..\wpa_supplicant\src/utils/common.h **** 
 101:..\..\..\..\wpa_supplicant\src/utils/common.h **** #endif /* CONFIG_NATIVE_WINDOWS */
 102:..\..\..\..\wpa_supplicant\src/utils/common.h **** 
 103:..\..\..\..\wpa_supplicant\src/utils/common.h **** #ifdef _MSC_VER
 104:..\..\..\..\wpa_supplicant\src/utils/common.h **** #define inline __inline
 105:..\..\..\..\wpa_supplicant\src/utils/common.h **** 
 106:..\..\..\..\wpa_supplicant\src/utils/common.h **** #undef vsnprintf
 107:..\..\..\..\wpa_supplicant\src/utils/common.h **** #define vsnprintf _vsnprintf
 108:..\..\..\..\wpa_supplicant\src/utils/common.h **** #undef close
 109:..\..\..\..\wpa_supplicant\src/utils/common.h **** #define close closesocket
 110:..\..\..\..\wpa_supplicant\src/utils/common.h **** #endif /* _MSC_VER */
 111:..\..\..\..\wpa_supplicant\src/utils/common.h **** 
 112:..\..\..\..\wpa_supplicant\src/utils/common.h **** 
 113:..\..\..\..\wpa_supplicant\src/utils/common.h **** /* Define platform specific integer types */
 114:..\..\..\..\wpa_supplicant\src/utils/common.h **** 
 115:..\..\..\..\wpa_supplicant\src/utils/common.h **** #ifdef _MSC_VER
 116:..\..\..\..\wpa_supplicant\src/utils/common.h **** typedef UINT64 u64;
 117:..\..\..\..\wpa_supplicant\src/utils/common.h **** typedef UINT32 u32;
 118:..\..\..\..\wpa_supplicant\src/utils/common.h **** typedef UINT16 u16;
 119:..\..\..\..\wpa_supplicant\src/utils/common.h **** typedef UINT8 u8;
 120:..\..\..\..\wpa_supplicant\src/utils/common.h **** typedef INT64 s64;
 121:..\..\..\..\wpa_supplicant\src/utils/common.h **** typedef INT32 s32;
 122:..\..\..\..\wpa_supplicant\src/utils/common.h **** typedef INT16 s16;
 123:..\..\..\..\wpa_supplicant\src/utils/common.h **** typedef INT8 s8;
 124:..\..\..\..\wpa_supplicant\src/utils/common.h **** #define WPA_TYPES_DEFINED
 125:..\..\..\..\wpa_supplicant\src/utils/common.h **** #endif /* _MSC_VER */
 126:..\..\..\..\wpa_supplicant\src/utils/common.h **** 
 127:..\..\..\..\wpa_supplicant\src/utils/common.h **** #ifdef __vxworks
 128:..\..\..\..\wpa_supplicant\src/utils/common.h **** typedef unsigned long long u64;
 129:..\..\..\..\wpa_supplicant\src/utils/common.h **** typedef UINT32 u32;
 130:..\..\..\..\wpa_supplicant\src/utils/common.h **** typedef UINT16 u16;
 131:..\..\..\..\wpa_supplicant\src/utils/common.h **** typedef UINT8 u8;
 132:..\..\..\..\wpa_supplicant\src/utils/common.h **** typedef long long s64;
 133:..\..\..\..\wpa_supplicant\src/utils/common.h **** typedef INT32 s32;
 134:..\..\..\..\wpa_supplicant\src/utils/common.h **** typedef INT16 s16;
 135:..\..\..\..\wpa_supplicant\src/utils/common.h **** typedef INT8 s8;
 136:..\..\..\..\wpa_supplicant\src/utils/common.h **** #define WPA_TYPES_DEFINED
 137:..\..\..\..\wpa_supplicant\src/utils/common.h **** #endif /* __vxworks */
 138:..\..\..\..\wpa_supplicant\src/utils/common.h **** 
 139:..\..\..\..\wpa_supplicant\src/utils/common.h **** #ifndef WPA_TYPES_DEFINED
 140:..\..\..\..\wpa_supplicant\src/utils/common.h **** #ifdef CONFIG_USE_INTTYPES_H
 141:..\..\..\..\wpa_supplicant\src/utils/common.h **** #include <inttypes.h>
 142:..\..\..\..\wpa_supplicant\src/utils/common.h **** #else
 143:..\..\..\..\wpa_supplicant\src/utils/common.h **** #include <stdint.h>
 144:..\..\..\..\wpa_supplicant\src/utils/common.h **** #endif
 145:..\..\..\..\wpa_supplicant\src/utils/common.h **** typedef uint64_t u64;
 146:..\..\..\..\wpa_supplicant\src/utils/common.h **** typedef uint32_t u32;
 147:..\..\..\..\wpa_supplicant\src/utils/common.h **** typedef uint16_t u16;
 148:..\..\..\..\wpa_supplicant\src/utils/common.h **** typedef uint8_t u8;
 149:..\..\..\..\wpa_supplicant\src/utils/common.h **** typedef int64_t s64;
 150:..\..\..\..\wpa_supplicant\src/utils/common.h **** typedef int32_t s32;
 151:..\..\..\..\wpa_supplicant\src/utils/common.h **** typedef int16_t s16;
 152:..\..\..\..\wpa_supplicant\src/utils/common.h **** typedef int8_t s8;
 153:..\..\..\..\wpa_supplicant\src/utils/common.h **** #define WPA_TYPES_DEFINED
 154:..\..\..\..\wpa_supplicant\src/utils/common.h **** #endif /* !WPA_TYPES_DEFINED */
 155:..\..\..\..\wpa_supplicant\src/utils/common.h **** 
 156:..\..\..\..\wpa_supplicant\src/utils/common.h **** 
 157:..\..\..\..\wpa_supplicant\src/utils/common.h **** /* Define platform specific byte swapping macros */
 158:..\..\..\..\wpa_supplicant\src/utils/common.h **** 
 159:..\..\..\..\wpa_supplicant\src/utils/common.h **** #if defined(__CYGWIN__) || defined(CONFIG_NATIVE_WINDOWS)
 160:..\..\..\..\wpa_supplicant\src/utils/common.h **** 
 161:..\..\..\..\wpa_supplicant\src/utils/common.h **** static inline unsigned short wpa_swap_16(unsigned short v)
 162:..\..\..\..\wpa_supplicant\src/utils/common.h **** {
 163:..\..\..\..\wpa_supplicant\src/utils/common.h **** 	return ((v & 0xff) << 8) | (v >> 8);
 164:..\..\..\..\wpa_supplicant\src/utils/common.h **** }
 165:..\..\..\..\wpa_supplicant\src/utils/common.h **** 
 166:..\..\..\..\wpa_supplicant\src/utils/common.h **** static inline unsigned int wpa_swap_32(unsigned int v)
 167:..\..\..\..\wpa_supplicant\src/utils/common.h **** {
 168:..\..\..\..\wpa_supplicant\src/utils/common.h **** 	return ((v & 0xff) << 24) | ((v & 0xff00) << 8) |
 169:..\..\..\..\wpa_supplicant\src/utils/common.h **** 		((v & 0xff0000) >> 8) | (v >> 24);
 170:..\..\..\..\wpa_supplicant\src/utils/common.h **** }
 171:..\..\..\..\wpa_supplicant\src/utils/common.h **** 
 172:..\..\..\..\wpa_supplicant\src/utils/common.h **** #define le_to_host16(n) (n)
 173:..\..\..\..\wpa_supplicant\src/utils/common.h **** #define host_to_le16(n) (n)
 174:..\..\..\..\wpa_supplicant\src/utils/common.h **** #define be_to_host16(n) wpa_swap_16(n)
 175:..\..\..\..\wpa_supplicant\src/utils/common.h **** #define host_to_be16(n) wpa_swap_16(n)
 176:..\..\..\..\wpa_supplicant\src/utils/common.h **** #define le_to_host32(n) (n)
 177:..\..\..\..\wpa_supplicant\src/utils/common.h **** #define host_to_le32(n) (n)
 178:..\..\..\..\wpa_supplicant\src/utils/common.h **** #define be_to_host32(n) wpa_swap_32(n)
 179:..\..\..\..\wpa_supplicant\src/utils/common.h **** #define host_to_be32(n) wpa_swap_32(n)
 180:..\..\..\..\wpa_supplicant\src/utils/common.h **** #define host_to_le64(n) (n)
 181:..\..\..\..\wpa_supplicant\src/utils/common.h **** 
 182:..\..\..\..\wpa_supplicant\src/utils/common.h **** #define WPA_BYTE_SWAP_DEFINED
 183:..\..\..\..\wpa_supplicant\src/utils/common.h **** 
 184:..\..\..\..\wpa_supplicant\src/utils/common.h **** #endif /* __CYGWIN__ || CONFIG_NATIVE_WINDOWS */
 185:..\..\..\..\wpa_supplicant\src/utils/common.h **** 
 186:..\..\..\..\wpa_supplicant\src/utils/common.h **** 
 187:..\..\..\..\wpa_supplicant\src/utils/common.h **** #ifndef WPA_BYTE_SWAP_DEFINED
 188:..\..\..\..\wpa_supplicant\src/utils/common.h **** 
 189:..\..\..\..\wpa_supplicant\src/utils/common.h **** #ifndef __BYTE_ORDER
 190:..\..\..\..\wpa_supplicant\src/utils/common.h **** #ifndef __LITTLE_ENDIAN
 191:..\..\..\..\wpa_supplicant\src/utils/common.h **** #ifndef __BIG_ENDIAN
 192:..\..\..\..\wpa_supplicant\src/utils/common.h **** #define __LITTLE_ENDIAN 1234
 193:..\..\..\..\wpa_supplicant\src/utils/common.h **** #define __BIG_ENDIAN 4321
 194:..\..\..\..\wpa_supplicant\src/utils/common.h **** #if defined(sparc)
 195:..\..\..\..\wpa_supplicant\src/utils/common.h **** #define __BYTE_ORDER __BIG_ENDIAN
 196:..\..\..\..\wpa_supplicant\src/utils/common.h **** #endif
 197:..\..\..\..\wpa_supplicant\src/utils/common.h **** #endif /* __BIG_ENDIAN */
 198:..\..\..\..\wpa_supplicant\src/utils/common.h **** #endif /* __LITTLE_ENDIAN */
 199:..\..\..\..\wpa_supplicant\src/utils/common.h **** #endif /* __BYTE_ORDER */
 200:..\..\..\..\wpa_supplicant\src/utils/common.h **** 
 201:..\..\..\..\wpa_supplicant\src/utils/common.h **** #if __BYTE_ORDER == __LITTLE_ENDIAN
 202:..\..\..\..\wpa_supplicant\src/utils/common.h **** #define le_to_host16(n) ((__force u16) (le16) (n))
 203:..\..\..\..\wpa_supplicant\src/utils/common.h **** #define host_to_le16(n) ((__force le16) (u16) (n))
 204:..\..\..\..\wpa_supplicant\src/utils/common.h **** #define be_to_host16(n) bswap_16((__force u16) (be16) (n))
 205:..\..\..\..\wpa_supplicant\src/utils/common.h **** #define host_to_be16(n) ((__force be16) bswap_16((n)))
 206:..\..\..\..\wpa_supplicant\src/utils/common.h **** #define le_to_host32(n) ((__force u32) (le32) (n))
 207:..\..\..\..\wpa_supplicant\src/utils/common.h **** #define host_to_le32(n) ((__force le32) (u32) (n))
 208:..\..\..\..\wpa_supplicant\src/utils/common.h **** #define be_to_host32(n) bswap_32((__force u32) (be32) (n))
 209:..\..\..\..\wpa_supplicant\src/utils/common.h **** #define host_to_be32(n) ((__force be32) bswap_32((n)))
 210:..\..\..\..\wpa_supplicant\src/utils/common.h **** #define le_to_host64(n) ((__force u64) (le64) (n))
 211:..\..\..\..\wpa_supplicant\src/utils/common.h **** #define host_to_le64(n) ((__force le64) (u64) (n))
 212:..\..\..\..\wpa_supplicant\src/utils/common.h **** #define be_to_host64(n) bswap_64((__force u64) (be64) (n))
 213:..\..\..\..\wpa_supplicant\src/utils/common.h **** #define host_to_be64(n) ((__force be64) bswap_64((n)))
 214:..\..\..\..\wpa_supplicant\src/utils/common.h **** #elif __BYTE_ORDER == __BIG_ENDIAN
 215:..\..\..\..\wpa_supplicant\src/utils/common.h **** #define le_to_host16(n) bswap_16(n)
 216:..\..\..\..\wpa_supplicant\src/utils/common.h **** #define host_to_le16(n) bswap_16(n)
 217:..\..\..\..\wpa_supplicant\src/utils/common.h **** #define be_to_host16(n) (n)
 218:..\..\..\..\wpa_supplicant\src/utils/common.h **** #define host_to_be16(n) (n)
 219:..\..\..\..\wpa_supplicant\src/utils/common.h **** #define le_to_host32(n) bswap_32(n)
 220:..\..\..\..\wpa_supplicant\src/utils/common.h **** #define host_to_le32(n) bswap_32(n)
 221:..\..\..\..\wpa_supplicant\src/utils/common.h **** #define be_to_host32(n) (n)
 222:..\..\..\..\wpa_supplicant\src/utils/common.h **** #define host_to_be32(n) (n)
 223:..\..\..\..\wpa_supplicant\src/utils/common.h **** #define le_to_host64(n) bswap_64(n)
 224:..\..\..\..\wpa_supplicant\src/utils/common.h **** #define host_to_le64(n) bswap_64(n)
 225:..\..\..\..\wpa_supplicant\src/utils/common.h **** #define be_to_host64(n) (n)
 226:..\..\..\..\wpa_supplicant\src/utils/common.h **** #define host_to_be64(n) (n)
 227:..\..\..\..\wpa_supplicant\src/utils/common.h **** #ifndef WORDS_BIGENDIAN
 228:..\..\..\..\wpa_supplicant\src/utils/common.h **** #define WORDS_BIGENDIAN
 229:..\..\..\..\wpa_supplicant\src/utils/common.h **** #endif
 230:..\..\..\..\wpa_supplicant\src/utils/common.h **** #else
 231:..\..\..\..\wpa_supplicant\src/utils/common.h **** #error Could not determine CPU byte order
 232:..\..\..\..\wpa_supplicant\src/utils/common.h **** #endif
 233:..\..\..\..\wpa_supplicant\src/utils/common.h **** 
 234:..\..\..\..\wpa_supplicant\src/utils/common.h **** #define WPA_BYTE_SWAP_DEFINED
 235:..\..\..\..\wpa_supplicant\src/utils/common.h **** #endif /* !WPA_BYTE_SWAP_DEFINED */
 236:..\..\..\..\wpa_supplicant\src/utils/common.h **** 
 237:..\..\..\..\wpa_supplicant\src/utils/common.h **** 
 238:..\..\..\..\wpa_supplicant\src/utils/common.h **** /* Macros for handling unaligned memory accesses */
 239:..\..\..\..\wpa_supplicant\src/utils/common.h **** 
 240:..\..\..\..\wpa_supplicant\src/utils/common.h **** static inline u16 WPA_GET_BE16(const u8 *a)
 241:..\..\..\..\wpa_supplicant\src/utils/common.h **** {
 242:..\..\..\..\wpa_supplicant\src/utils/common.h **** 	return (a[0] << 8) | a[1];
 243:..\..\..\..\wpa_supplicant\src/utils/common.h **** }
 244:..\..\..\..\wpa_supplicant\src/utils/common.h **** 
 245:..\..\..\..\wpa_supplicant\src/utils/common.h **** static inline void WPA_PUT_BE16(u8 *a, u16 val)
 246:..\..\..\..\wpa_supplicant\src/utils/common.h **** {
 247:..\..\..\..\wpa_supplicant\src/utils/common.h **** 	a[0] = val >> 8;
 248:..\..\..\..\wpa_supplicant\src/utils/common.h **** 	a[1] = val & 0xff;
 249:..\..\..\..\wpa_supplicant\src/utils/common.h **** }
 250:..\..\..\..\wpa_supplicant\src/utils/common.h **** 
 251:..\..\..\..\wpa_supplicant\src/utils/common.h **** static inline u16 WPA_GET_LE16(const u8 *a)
 252:..\..\..\..\wpa_supplicant\src/utils/common.h **** {
 253:..\..\..\..\wpa_supplicant\src/utils/common.h **** 	return (a[1] << 8) | a[0];
 254:..\..\..\..\wpa_supplicant\src/utils/common.h **** }
 255:..\..\..\..\wpa_supplicant\src/utils/common.h **** 
 256:..\..\..\..\wpa_supplicant\src/utils/common.h **** static inline void WPA_PUT_LE16(u8 *a, u16 val)
 257:..\..\..\..\wpa_supplicant\src/utils/common.h **** {
 258:..\..\..\..\wpa_supplicant\src/utils/common.h **** 	a[1] = val >> 8;
 259:..\..\..\..\wpa_supplicant\src/utils/common.h **** 	a[0] = val & 0xff;
 260:..\..\..\..\wpa_supplicant\src/utils/common.h **** }
 261:..\..\..\..\wpa_supplicant\src/utils/common.h **** 
 262:..\..\..\..\wpa_supplicant\src/utils/common.h **** static inline u32 WPA_GET_BE24(const u8 *a)
 263:..\..\..\..\wpa_supplicant\src/utils/common.h **** {
 264:..\..\..\..\wpa_supplicant\src/utils/common.h **** 	return (a[0] << 16) | (a[1] << 8) | a[2];
 265:..\..\..\..\wpa_supplicant\src/utils/common.h **** }
 266:..\..\..\..\wpa_supplicant\src/utils/common.h **** 
 267:..\..\..\..\wpa_supplicant\src/utils/common.h **** static inline void WPA_PUT_BE24(u8 *a, u32 val)
 268:..\..\..\..\wpa_supplicant\src/utils/common.h **** {
 269:..\..\..\..\wpa_supplicant\src/utils/common.h **** 	a[0] = (val >> 16) & 0xff;
 270:..\..\..\..\wpa_supplicant\src/utils/common.h **** 	a[1] = (val >> 8) & 0xff;
 271:..\..\..\..\wpa_supplicant\src/utils/common.h **** 	a[2] = val & 0xff;
 272:..\..\..\..\wpa_supplicant\src/utils/common.h **** }
 273:..\..\..\..\wpa_supplicant\src/utils/common.h **** 
 274:..\..\..\..\wpa_supplicant\src/utils/common.h **** static inline u32 WPA_GET_BE32(const u8 *a)
 275:..\..\..\..\wpa_supplicant\src/utils/common.h **** {
 276:..\..\..\..\wpa_supplicant\src/utils/common.h **** 	return ((u32) a[0] << 24) | (a[1] << 16) | (a[2] << 8) | a[3];
 277:..\..\..\..\wpa_supplicant\src/utils/common.h **** }
 278:..\..\..\..\wpa_supplicant\src/utils/common.h **** 
 279:..\..\..\..\wpa_supplicant\src/utils/common.h **** static inline void WPA_PUT_BE32(u8 *a, u32 val)
 280:..\..\..\..\wpa_supplicant\src/utils/common.h **** {
 281:..\..\..\..\wpa_supplicant\src/utils/common.h **** 	a[0] = (val >> 24) & 0xff;
 282:..\..\..\..\wpa_supplicant\src/utils/common.h **** 	a[1] = (val >> 16) & 0xff;
 758              		.loc 2 282 7
 759 0026 930700F9 		li	a5,-112
 760 002a A381F500 		sb	a5,3(a1)
 283:..\..\..\..\wpa_supplicant\src/utils/common.h **** 	a[2] = (val >> 8) & 0xff;
 761              		.loc 2 283 7
 762 002e 9307C004 		li	a5,76
 763 0032 2382F500 		sb	a5,4(a1)
 284:..\..\..\..\wpa_supplicant\src/utils/common.h **** 	a[3] = val & 0xff;
 764              		.loc 2 284 7
 765 0036 9147     		li	a5,4
 766 0038 A382F500 		sb	a5,5(a1)
 767              	.LBE20:
 768              	.LBE19:
 270:C:/Users/stapi/OneDrive/Desktop/GD32VW553/V1_MQTT_OK/GD32VW55X_Wifi_BLE_SDK/GD32VW55x_RELEASE_V1.0.2/MSDK/wpa_supplicant/src/ap\ieee802_11_vht.c **** 		  2 + sizeof(struct ieee80211_vht_capabilities) +
 271:C:/Users/stapi/OneDrive/Desktop/GD32VW553/V1_MQTT_OK/GD32VW55X_Wifi_BLE_SDK/GD32VW55x_RELEASE_V1.0.2/MSDK/wpa_supplicant/src/ap\ieee802_11_vht.c **** 		  2 + sizeof(struct ieee80211_vht_operation));
 272:C:/Users/stapi/OneDrive/Desktop/GD32VW553/V1_MQTT_OK/GD32VW55X_Wifi_BLE_SDK/GD32VW55x_RELEASE_V1.0.2/MSDK/wpa_supplicant/src/ap\ieee802_11_vht.c **** 
 273:C:/Users/stapi/OneDrive/Desktop/GD32VW553/V1_MQTT_OK/GD32VW55X_Wifi_BLE_SDK/GD32VW55x_RELEASE_V1.0.2/MSDK/wpa_supplicant/src/ap\ieee802_11_vht.c **** 	WPA_PUT_BE32(pos, (OUI_BROADCOM << 8) | VENDOR_VHT_TYPE);
 274:C:/Users/stapi/OneDrive/Desktop/GD32VW553/V1_MQTT_OK/GD32VW55X_Wifi_BLE_SDK/GD32VW55x_RELEASE_V1.0.2/MSDK/wpa_supplicant/src/ap\ieee802_11_vht.c **** 	pos += 4;
 275:C:/Users/stapi/OneDrive/Desktop/GD32VW553/V1_MQTT_OK/GD32VW55X_Wifi_BLE_SDK/GD32VW55x_RELEASE_V1.0.2/MSDK/wpa_supplicant/src/ap\ieee802_11_vht.c **** 	*pos++ = VENDOR_VHT_SUBTYPE;
 769              		.loc 1 275 9
 770 003c A147     		li	a5,8
 771 003e 2383F500 		sb	a5,6(a1)
 772              	.LBB23:
 773              	.LBB21:
 281:..\..\..\..\wpa_supplicant\src/utils/common.h **** 	a[1] = (val >> 16) & 0xff;
 774              		.loc 2 281 7
 775 0042 23810500 		sb	zero,2(a1)
 776              	.LBE21:
 777              	.LBE23:
 276:C:/Users/stapi/OneDrive/Desktop/GD32VW553/V1_MQTT_OK/GD32VW55X_Wifi_BLE_SDK/GD32VW55x_RELEASE_V1.0.2/MSDK/wpa_supplicant/src/ap\ieee802_11_vht.c **** 	pos = hostapd_eid_vht_capabilities(hapd, pos, 0);
 778              		.loc 1 276 8
 779 0046 0146     		li	a2,0
 780 0048 9D05     		addi	a1,a1,7
 781              	.LVL65:
 782 004a 2A84     		mv	s0,a0
 268:C:/Users/stapi/OneDrive/Desktop/GD32VW553/V1_MQTT_OK/GD32VW55X_Wifi_BLE_SDK/GD32VW55x_RELEASE_V1.0.2/MSDK/wpa_supplicant/src/ap\ieee802_11_vht.c **** 	*pos++ = (5 +		/* The Vendor OUI, type and subtype */
 783              		.loc 1 268 2 is_stmt 1
 784              	.LVL66:
 269:C:/Users/stapi/OneDrive/Desktop/GD32VW553/V1_MQTT_OK/GD32VW55X_Wifi_BLE_SDK/GD32VW55x_RELEASE_V1.0.2/MSDK/wpa_supplicant/src/ap\ieee802_11_vht.c **** 		  2 + sizeof(struct ieee80211_vht_capabilities) +
 785              		.loc 1 269 2
 273:C:/Users/stapi/OneDrive/Desktop/GD32VW553/V1_MQTT_OK/GD32VW55X_Wifi_BLE_SDK/GD32VW55x_RELEASE_V1.0.2/MSDK/wpa_supplicant/src/ap\ieee802_11_vht.c **** 	pos += 4;
 786              		.loc 1 273 2
 787              	.LBB24:
 788              	.LBB22:
 281:..\..\..\..\wpa_supplicant\src/utils/common.h **** 	a[1] = (val >> 16) & 0xff;
 789              		.loc 2 281 2
 282:..\..\..\..\wpa_supplicant\src/utils/common.h **** 	a[2] = (val >> 8) & 0xff;
 790              		.loc 2 282 2
 283:..\..\..\..\wpa_supplicant\src/utils/common.h **** 	a[3] = val & 0xff;
 791              		.loc 2 283 2
 792              		.loc 2 284 2
 793              	.LBE22:
 794              	.LBE24:
 274:C:/Users/stapi/OneDrive/Desktop/GD32VW553/V1_MQTT_OK/GD32VW55X_Wifi_BLE_SDK/GD32VW55x_RELEASE_V1.0.2/MSDK/wpa_supplicant/src/ap\ieee802_11_vht.c **** 	*pos++ = VENDOR_VHT_SUBTYPE;
 795              		.loc 1 274 2
 275:C:/Users/stapi/OneDrive/Desktop/GD32VW553/V1_MQTT_OK/GD32VW55X_Wifi_BLE_SDK/GD32VW55x_RELEASE_V1.0.2/MSDK/wpa_supplicant/src/ap\ieee802_11_vht.c **** 	pos = hostapd_eid_vht_capabilities(hapd, pos, 0);
 796              		.loc 1 275 2
 797              		.loc 1 276 2
 798              		.loc 1 276 8 is_stmt 0
 799 004c 97000000 		call	hostapd_eid_vht_capabilities
 799      E7800000 
 800              	.LVL67:
 801 0054 AA85     		mv	a1,a0
 802              	.LVL68:
 277:C:/Users/stapi/OneDrive/Desktop/GD32VW553/V1_MQTT_OK/GD32VW55X_Wifi_BLE_SDK/GD32VW55x_RELEASE_V1.0.2/MSDK/wpa_supplicant/src/ap\ieee802_11_vht.c **** 	pos = hostapd_eid_vht_operation(hapd, pos);
 803              		.loc 1 277 2 is_stmt 1
 804              		.loc 1 277 8 is_stmt 0
 805 0056 2285     		mv	a0,s0
 806              	.LVL69:
 807 0058 97000000 		call	hostapd_eid_vht_operation
 807      E7800000 
 808              	.LVL70:
 278:C:/Users/stapi/OneDrive/Desktop/GD32VW553/V1_MQTT_OK/GD32VW55X_Wifi_BLE_SDK/GD32VW55x_RELEASE_V1.0.2/MSDK/wpa_supplicant/src/ap\ieee802_11_vht.c **** 
 279:C:/Users/stapi/OneDrive/Desktop/GD32VW553/V1_MQTT_OK/GD32VW55X_Wifi_BLE_SDK/GD32VW55x_RELEASE_V1.0.2/MSDK/wpa_supplicant/src/ap\ieee802_11_vht.c **** 	return pos;
 809              		.loc 1 279 2 is_stmt 1
 280:C:/Users/stapi/OneDrive/Desktop/GD32VW553/V1_MQTT_OK/GD32VW55X_Wifi_BLE_SDK/GD32VW55x_RELEASE_V1.0.2/MSDK/wpa_supplicant/src/ap\ieee802_11_vht.c **** }
 810              		.loc 1 280 1 is_stmt 0
 811 0060 17030000 		tail	__riscv_restore_1
 811      67000300 
 812              		.cfi_restore 8
 813              		.cfi_restore 1
 814              		.cfi_def_cfa_offset 0
 815              	.LVL71:
 816              	.L71:
 817 0068 2E85     		mv	a0,a1
 818              	.LVL72:
 819 006a 8280     		ret
 820              		.cfi_endproc
 821              	.LFE145:
 823              		.section	.text.set_sta_vht_opmode,"ax",@progbits
 824              		.align	1
 825              		.globl	set_sta_vht_opmode
 827              	set_sta_vht_opmode:
 828              	.LFB146:
 281:C:/Users/stapi/OneDrive/Desktop/GD32VW553/V1_MQTT_OK/GD32VW55X_Wifi_BLE_SDK/GD32VW55x_RELEASE_V1.0.2/MSDK/wpa_supplicant/src/ap\ieee802_11_vht.c **** 
 282:C:/Users/stapi/OneDrive/Desktop/GD32VW553/V1_MQTT_OK/GD32VW55X_Wifi_BLE_SDK/GD32VW55x_RELEASE_V1.0.2/MSDK/wpa_supplicant/src/ap\ieee802_11_vht.c **** 
 283:C:/Users/stapi/OneDrive/Desktop/GD32VW553/V1_MQTT_OK/GD32VW55X_Wifi_BLE_SDK/GD32VW55x_RELEASE_V1.0.2/MSDK/wpa_supplicant/src/ap\ieee802_11_vht.c **** u16 set_sta_vht_opmode(struct hostapd_data *hapd, struct sta_info *sta,
 284:C:/Users/stapi/OneDrive/Desktop/GD32VW553/V1_MQTT_OK/GD32VW55X_Wifi_BLE_SDK/GD32VW55x_RELEASE_V1.0.2/MSDK/wpa_supplicant/src/ap\ieee802_11_vht.c **** 		       const u8 *vht_oper_notif)
 285:C:/Users/stapi/OneDrive/Desktop/GD32VW553/V1_MQTT_OK/GD32VW55X_Wifi_BLE_SDK/GD32VW55x_RELEASE_V1.0.2/MSDK/wpa_supplicant/src/ap\ieee802_11_vht.c **** {
 829              		.loc 1 285 1 is_stmt 1
 830              		.cfi_startproc
 831              	.LVL73:
 286:C:/Users/stapi/OneDrive/Desktop/GD32VW553/V1_MQTT_OK/GD32VW55X_Wifi_BLE_SDK/GD32VW55x_RELEASE_V1.0.2/MSDK/wpa_supplicant/src/ap\ieee802_11_vht.c **** 	if (!vht_oper_notif) {
 832              		.loc 1 286 2
 287:C:/Users/stapi/OneDrive/Desktop/GD32VW553/V1_MQTT_OK/GD32VW55X_Wifi_BLE_SDK/GD32VW55x_RELEASE_V1.0.2/MSDK/wpa_supplicant/src/ap\ieee802_11_vht.c **** 		sta->flags &= ~WLAN_STA_VHT_OPMODE_ENABLED;
 833              		.loc 1 287 14 is_stmt 0
 834 0000 9C51     		lw	a5,32(a1)
 286:C:/Users/stapi/OneDrive/Desktop/GD32VW553/V1_MQTT_OK/GD32VW55X_Wifi_BLE_SDK/GD32VW55x_RELEASE_V1.0.2/MSDK/wpa_supplicant/src/ap\ieee802_11_vht.c **** 	if (!vht_oper_notif) {
 835              		.loc 1 286 5
 836 0002 11E6     		bne	a2,zero,.L75
 837              		.loc 1 287 3 is_stmt 1
 838              		.loc 1 287 14 is_stmt 0
 839 0004 93974749 		bclri	a5,a5,20
 840 0008 9CD1     		sw	a5,32(a1)
 288:C:/Users/stapi/OneDrive/Desktop/GD32VW553/V1_MQTT_OK/GD32VW55X_Wifi_BLE_SDK/GD32VW55x_RELEASE_V1.0.2/MSDK/wpa_supplicant/src/ap\ieee802_11_vht.c **** 		return WLAN_STATUS_SUCCESS;
 841              		.loc 1 288 3 is_stmt 1
 842              	.L76:
 289:C:/Users/stapi/OneDrive/Desktop/GD32VW553/V1_MQTT_OK/GD32VW55X_Wifi_BLE_SDK/GD32VW55x_RELEASE_V1.0.2/MSDK/wpa_supplicant/src/ap\ieee802_11_vht.c **** 	}
 290:C:/Users/stapi/OneDrive/Desktop/GD32VW553/V1_MQTT_OK/GD32VW55X_Wifi_BLE_SDK/GD32VW55x_RELEASE_V1.0.2/MSDK/wpa_supplicant/src/ap\ieee802_11_vht.c **** 
 291:C:/Users/stapi/OneDrive/Desktop/GD32VW553/V1_MQTT_OK/GD32VW55X_Wifi_BLE_SDK/GD32VW55x_RELEASE_V1.0.2/MSDK/wpa_supplicant/src/ap\ieee802_11_vht.c **** 	sta->flags |= WLAN_STA_VHT_OPMODE_ENABLED;
 292:C:/Users/stapi/OneDrive/Desktop/GD32VW553/V1_MQTT_OK/GD32VW55X_Wifi_BLE_SDK/GD32VW55x_RELEASE_V1.0.2/MSDK/wpa_supplicant/src/ap\ieee802_11_vht.c **** 	sta->vht_opmode = *vht_oper_notif;
 293:C:/Users/stapi/OneDrive/Desktop/GD32VW553/V1_MQTT_OK/GD32VW55X_Wifi_BLE_SDK/GD32VW55x_RELEASE_V1.0.2/MSDK/wpa_supplicant/src/ap\ieee802_11_vht.c **** 	return WLAN_STATUS_SUCCESS;
 294:C:/Users/stapi/OneDrive/Desktop/GD32VW553/V1_MQTT_OK/GD32VW55X_Wifi_BLE_SDK/GD32VW55x_RELEASE_V1.0.2/MSDK/wpa_supplicant/src/ap\ieee802_11_vht.c **** }
 843              		.loc 1 294 1 is_stmt 0
 844 000a 0145     		li	a0,0
 845              	.LVL74:
 846 000c 8280     		ret
 847              	.LVL75:
 848              	.L75:
 291:C:/Users/stapi/OneDrive/Desktop/GD32VW553/V1_MQTT_OK/GD32VW55X_Wifi_BLE_SDK/GD32VW55x_RELEASE_V1.0.2/MSDK/wpa_supplicant/src/ap\ieee802_11_vht.c **** 	sta->vht_opmode = *vht_oper_notif;
 849              		.loc 1 291 2 is_stmt 1
 291:C:/Users/stapi/OneDrive/Desktop/GD32VW553/V1_MQTT_OK/GD32VW55X_Wifi_BLE_SDK/GD32VW55x_RELEASE_V1.0.2/MSDK/wpa_supplicant/src/ap\ieee802_11_vht.c **** 	sta->vht_opmode = *vht_oper_notif;
 850              		.loc 1 291 13 is_stmt 0
 851 000e 93974729 		bseti	a5,a5,20
 852 0012 9CD1     		sw	a5,32(a1)
 292:C:/Users/stapi/OneDrive/Desktop/GD32VW553/V1_MQTT_OK/GD32VW55X_Wifi_BLE_SDK/GD32VW55x_RELEASE_V1.0.2/MSDK/wpa_supplicant/src/ap\ieee802_11_vht.c **** 	return WLAN_STATUS_SUCCESS;
 853              		.loc 1 292 2 is_stmt 1
 292:C:/Users/stapi/OneDrive/Desktop/GD32VW553/V1_MQTT_OK/GD32VW55X_Wifi_BLE_SDK/GD32VW55x_RELEASE_V1.0.2/MSDK/wpa_supplicant/src/ap\ieee802_11_vht.c **** 	return WLAN_STATUS_SUCCESS;
 854              		.loc 1 292 20 is_stmt 0
 855 0014 83470600 		lbu	a5,0(a2)
 292:C:/Users/stapi/OneDrive/Desktop/GD32VW553/V1_MQTT_OK/GD32VW55X_Wifi_BLE_SDK/GD32VW55x_RELEASE_V1.0.2/MSDK/wpa_supplicant/src/ap\ieee802_11_vht.c **** 	return WLAN_STATUS_SUCCESS;
 856              		.loc 1 292 18
 857 0018 2384F50C 		sb	a5,200(a1)
 293:C:/Users/stapi/OneDrive/Desktop/GD32VW553/V1_MQTT_OK/GD32VW55X_Wifi_BLE_SDK/GD32VW55x_RELEASE_V1.0.2/MSDK/wpa_supplicant/src/ap\ieee802_11_vht.c **** }
 858              		.loc 1 293 2 is_stmt 1
 293:C:/Users/stapi/OneDrive/Desktop/GD32VW553/V1_MQTT_OK/GD32VW55X_Wifi_BLE_SDK/GD32VW55x_RELEASE_V1.0.2/MSDK/wpa_supplicant/src/ap\ieee802_11_vht.c **** }
 859              		.loc 1 293 9 is_stmt 0
 860 001c FDB7     		j	.L76
 861              		.cfi_endproc
 862              	.LFE146:
 864              		.section	.text.hostapd_get_vht_capab,"ax",@progbits
 865              		.align	1
 866              		.globl	hostapd_get_vht_capab
 868              	hostapd_get_vht_capab:
 869              	.LFB147:
 295:C:/Users/stapi/OneDrive/Desktop/GD32VW553/V1_MQTT_OK/GD32VW55X_Wifi_BLE_SDK/GD32VW55x_RELEASE_V1.0.2/MSDK/wpa_supplicant/src/ap\ieee802_11_vht.c **** 
 296:C:/Users/stapi/OneDrive/Desktop/GD32VW553/V1_MQTT_OK/GD32VW55X_Wifi_BLE_SDK/GD32VW55x_RELEASE_V1.0.2/MSDK/wpa_supplicant/src/ap\ieee802_11_vht.c **** 
 297:C:/Users/stapi/OneDrive/Desktop/GD32VW553/V1_MQTT_OK/GD32VW55X_Wifi_BLE_SDK/GD32VW55x_RELEASE_V1.0.2/MSDK/wpa_supplicant/src/ap\ieee802_11_vht.c **** void hostapd_get_vht_capab(struct hostapd_data *hapd,
 298:C:/Users/stapi/OneDrive/Desktop/GD32VW553/V1_MQTT_OK/GD32VW55X_Wifi_BLE_SDK/GD32VW55x_RELEASE_V1.0.2/MSDK/wpa_supplicant/src/ap\ieee802_11_vht.c **** 			   struct ieee80211_vht_capabilities *vht_cap,
 299:C:/Users/stapi/OneDrive/Desktop/GD32VW553/V1_MQTT_OK/GD32VW55X_Wifi_BLE_SDK/GD32VW55x_RELEASE_V1.0.2/MSDK/wpa_supplicant/src/ap\ieee802_11_vht.c **** 			   struct ieee80211_vht_capabilities *neg_vht_cap)
 300:C:/Users/stapi/OneDrive/Desktop/GD32VW553/V1_MQTT_OK/GD32VW55X_Wifi_BLE_SDK/GD32VW55x_RELEASE_V1.0.2/MSDK/wpa_supplicant/src/ap\ieee802_11_vht.c **** {
 870              		.loc 1 300 1 is_stmt 1
 871              		.cfi_startproc
 872              	.LVL76:
 301:C:/Users/stapi/OneDrive/Desktop/GD32VW553/V1_MQTT_OK/GD32VW55X_Wifi_BLE_SDK/GD32VW55x_RELEASE_V1.0.2/MSDK/wpa_supplicant/src/ap\ieee802_11_vht.c **** 	u32 cap, own_cap, sym_caps;
 873              		.loc 1 301 2
 302:C:/Users/stapi/OneDrive/Desktop/GD32VW553/V1_MQTT_OK/GD32VW55X_Wifi_BLE_SDK/GD32VW55x_RELEASE_V1.0.2/MSDK/wpa_supplicant/src/ap\ieee802_11_vht.c **** 
 303:C:/Users/stapi/OneDrive/Desktop/GD32VW553/V1_MQTT_OK/GD32VW55X_Wifi_BLE_SDK/GD32VW55x_RELEASE_V1.0.2/MSDK/wpa_supplicant/src/ap\ieee802_11_vht.c **** 	if (vht_cap == NULL)
 874              		.loc 1 303 2
 875              		.loc 1 303 5 is_stmt 0
 876 0000 F9C9     		beq	a1,zero,.L97
 300:C:/Users/stapi/OneDrive/Desktop/GD32VW553/V1_MQTT_OK/GD32VW55X_Wifi_BLE_SDK/GD32VW55x_RELEASE_V1.0.2/MSDK/wpa_supplicant/src/ap\ieee802_11_vht.c **** 	u32 cap, own_cap, sym_caps;
 877              		.loc 1 300 1
 878 0002 17030000 		call	t0,__riscv_save_2
 878      E7020300 
 879              		.cfi_offset 9, -12
 880              		.cfi_offset 8, -8
 881              		.cfi_offset 1, -4
 882              		.cfi_def_cfa_offset 16
 883 000a 3284     		mv	s0,a2
 304:C:/Users/stapi/OneDrive/Desktop/GD32VW553/V1_MQTT_OK/GD32VW55X_Wifi_BLE_SDK/GD32VW55x_RELEASE_V1.0.2/MSDK/wpa_supplicant/src/ap\ieee802_11_vht.c **** 		return;
 305:C:/Users/stapi/OneDrive/Desktop/GD32VW553/V1_MQTT_OK/GD32VW55X_Wifi_BLE_SDK/GD32VW55x_RELEASE_V1.0.2/MSDK/wpa_supplicant/src/ap\ieee802_11_vht.c **** 	os_memcpy(neg_vht_cap, vht_cap, sizeof(*neg_vht_cap));
 884              		.loc 1 305 2 is_stmt 1
 885 000c AA84     		mv	s1,a0
 886 000e 3146     		li	a2,12
 887              	.LVL77:
 888 0010 2285     		mv	a0,s0
 889              	.LVL78:
 890 0012 97000000 		call	os_memcpy
 890      E7800000 
 891              	.LVL79:
 306:C:/Users/stapi/OneDrive/Desktop/GD32VW553/V1_MQTT_OK/GD32VW55X_Wifi_BLE_SDK/GD32VW55x_RELEASE_V1.0.2/MSDK/wpa_supplicant/src/ap\ieee802_11_vht.c **** 
 307:C:/Users/stapi/OneDrive/Desktop/GD32VW553/V1_MQTT_OK/GD32VW55X_Wifi_BLE_SDK/GD32VW55x_RELEASE_V1.0.2/MSDK/wpa_supplicant/src/ap\ieee802_11_vht.c **** 	cap = le_to_host32(neg_vht_cap->vht_capabilities_info);
 892              		.loc 1 307 2
 893              		.loc 1 307 6 is_stmt 0
 894 001a 83461400 		lbu	a3,1(s0)
 895 001e 83470400 		lbu	a5,0(s0)
 896 0022 A206     		slli	a3,a3,8
 897 0024 D58F     		or	a5,a3,a5
 898 0026 83462400 		lbu	a3,2(s0)
 899 002a C206     		slli	a3,a3,16
 900 002c DD8E     		or	a3,a3,a5
 901 002e 83473400 		lbu	a5,3(s0)
 902 0032 E207     		slli	a5,a5,24
 903 0034 DD8E     		or	a3,a5,a3
 904              	.LVL80:
 308:C:/Users/stapi/OneDrive/Desktop/GD32VW553/V1_MQTT_OK/GD32VW55X_Wifi_BLE_SDK/GD32VW55x_RELEASE_V1.0.2/MSDK/wpa_supplicant/src/ap\ieee802_11_vht.c **** 	own_cap = hapd->iconf->vht_capab;
 905              		.loc 1 308 2 is_stmt 1
 906              		.loc 1 308 10 is_stmt 0
 907 0036 DC40     		lw	a5,4(s1)
 908 0038 03A74713 		lw	a4,308(a5)
 909              	.LVL81:
 309:C:/Users/stapi/OneDrive/Desktop/GD32VW553/V1_MQTT_OK/GD32VW55X_Wifi_BLE_SDK/GD32VW55x_RELEASE_V1.0.2/MSDK/wpa_supplicant/src/ap\ieee802_11_vht.c **** 
 310:C:/Users/stapi/OneDrive/Desktop/GD32VW553/V1_MQTT_OK/GD32VW55X_Wifi_BLE_SDK/GD32VW55x_RELEASE_V1.0.2/MSDK/wpa_supplicant/src/ap\ieee802_11_vht.c **** 	/* mask out symmetric VHT capabilities we don't support */
 311:C:/Users/stapi/OneDrive/Desktop/GD32VW553/V1_MQTT_OK/GD32VW55X_Wifi_BLE_SDK/GD32VW55x_RELEASE_V1.0.2/MSDK/wpa_supplicant/src/ap\ieee802_11_vht.c **** 	sym_caps = VHT_CAP_SHORT_GI_80 | VHT_CAP_SHORT_GI_160;
 910              		.loc 1 311 2 is_stmt 1
 312:C:/Users/stapi/OneDrive/Desktop/GD32VW553/V1_MQTT_OK/GD32VW55X_Wifi_BLE_SDK/GD32VW55x_RELEASE_V1.0.2/MSDK/wpa_supplicant/src/ap\ieee802_11_vht.c **** 	cap &= ~sym_caps | (own_cap & sym_caps);
 911              		.loc 1 312 2
 912              		.loc 1 312 19 is_stmt 0
 913 003c 9367F7F9 		ori	a5,a4,-97
 914              		.loc 1 312 6
 915 0040 F58F     		and	a5,a5,a3
 916              	.LVL82:
 313:C:/Users/stapi/OneDrive/Desktop/GD32VW553/V1_MQTT_OK/GD32VW55X_Wifi_BLE_SDK/GD32VW55x_RELEASE_V1.0.2/MSDK/wpa_supplicant/src/ap\ieee802_11_vht.c **** 
 314:C:/Users/stapi/OneDrive/Desktop/GD32VW553/V1_MQTT_OK/GD32VW55X_Wifi_BLE_SDK/GD32VW55x_RELEASE_V1.0.2/MSDK/wpa_supplicant/src/ap\ieee802_11_vht.c **** 	/* mask out beamformer/beamformee caps if not supported */
 315:C:/Users/stapi/OneDrive/Desktop/GD32VW553/V1_MQTT_OK/GD32VW55X_Wifi_BLE_SDK/GD32VW55x_RELEASE_V1.0.2/MSDK/wpa_supplicant/src/ap\ieee802_11_vht.c **** 	if (!(own_cap & VHT_CAP_SU_BEAMFORMER_CAPABLE))
 917              		.loc 1 315 2 is_stmt 1
 918              		.loc 1 315 16 is_stmt 0
 919 0042 9356B748 		bexti	a3,a4,11
 920              		.loc 1 315 5
 921 0046 81E6     		bne	a3,zero,.L79
 316:C:/Users/stapi/OneDrive/Desktop/GD32VW553/V1_MQTT_OK/GD32VW55X_Wifi_BLE_SDK/GD32VW55x_RELEASE_V1.0.2/MSDK/wpa_supplicant/src/ap\ieee802_11_vht.c **** 		cap &= ~(VHT_CAP_SU_BEAMFORMEE_CAPABLE |
 922              		.loc 1 316 3 is_stmt 1
 923              		.loc 1 316 7 is_stmt 0
 924 0048 C576     		li	a3,-61440
 925 004a FD16     		addi	a3,a3,-1
 926 004c F58F     		and	a5,a5,a3
 927              	.LVL83:
 928              	.L79:
 317:C:/Users/stapi/OneDrive/Desktop/GD32VW553/V1_MQTT_OK/GD32VW55X_Wifi_BLE_SDK/GD32VW55x_RELEASE_V1.0.2/MSDK/wpa_supplicant/src/ap\ieee802_11_vht.c **** 			 VHT_CAP_BEAMFORMEE_STS_MAX);
 318:C:/Users/stapi/OneDrive/Desktop/GD32VW553/V1_MQTT_OK/GD32VW55X_Wifi_BLE_SDK/GD32VW55x_RELEASE_V1.0.2/MSDK/wpa_supplicant/src/ap\ieee802_11_vht.c **** 
 319:C:/Users/stapi/OneDrive/Desktop/GD32VW553/V1_MQTT_OK/GD32VW55X_Wifi_BLE_SDK/GD32VW55x_RELEASE_V1.0.2/MSDK/wpa_supplicant/src/ap\ieee802_11_vht.c **** 	if (!(own_cap & VHT_CAP_SU_BEAMFORMEE_CAPABLE))
 929              		.loc 1 319 2 is_stmt 1
 930              		.loc 1 319 16 is_stmt 0
 931 004e 8566     		li	a3,4096
 932 0050 F98E     		and	a3,a4,a3
 933              		.loc 1 319 5
 934 0052 91E6     		bne	a3,zero,.L80
 320:C:/Users/stapi/OneDrive/Desktop/GD32VW553/V1_MQTT_OK/GD32VW55X_Wifi_BLE_SDK/GD32VW55x_RELEASE_V1.0.2/MSDK/wpa_supplicant/src/ap\ieee802_11_vht.c **** 		cap &= ~(VHT_CAP_SU_BEAMFORMER_CAPABLE |
 935              		.loc 1 320 3 is_stmt 1
 936              		.loc 1 320 7 is_stmt 0
 937 0054 B7F6F8FF 		li	a3,-462848
 938 0058 9386F67F 		addi	a3,a3,2047
 939 005c F58F     		and	a5,a5,a3
 940              	.LVL84:
 941              	.L80:
 321:C:/Users/stapi/OneDrive/Desktop/GD32VW553/V1_MQTT_OK/GD32VW55X_Wifi_BLE_SDK/GD32VW55x_RELEASE_V1.0.2/MSDK/wpa_supplicant/src/ap\ieee802_11_vht.c **** 			 VHT_CAP_SOUNDING_DIMENSION_MAX);
 322:C:/Users/stapi/OneDrive/Desktop/GD32VW553/V1_MQTT_OK/GD32VW55X_Wifi_BLE_SDK/GD32VW55x_RELEASE_V1.0.2/MSDK/wpa_supplicant/src/ap\ieee802_11_vht.c **** 
 323:C:/Users/stapi/OneDrive/Desktop/GD32VW553/V1_MQTT_OK/GD32VW55X_Wifi_BLE_SDK/GD32VW55x_RELEASE_V1.0.2/MSDK/wpa_supplicant/src/ap\ieee802_11_vht.c **** 	if (!(own_cap & VHT_CAP_MU_BEAMFORMER_CAPABLE))
 942              		.loc 1 323 2 is_stmt 1
 943              		.loc 1 323 16 is_stmt 0
 944 005e B7060800 		li	a3,524288
 945 0062 F98E     		and	a3,a4,a3
 946              		.loc 1 323 5
 947 0064 99E2     		bne	a3,zero,.L81
 324:C:/Users/stapi/OneDrive/Desktop/GD32VW553/V1_MQTT_OK/GD32VW55X_Wifi_BLE_SDK/GD32VW55x_RELEASE_V1.0.2/MSDK/wpa_supplicant/src/ap\ieee802_11_vht.c **** 		cap &= ~VHT_CAP_MU_BEAMFORMEE_CAPABLE;
 948              		.loc 1 324 3 is_stmt 1
 949              		.loc 1 324 7 is_stmt 0
 950 0066 93974749 		bclri	a5,a5,20
 951              	.LVL85:
 952              	.L81:
 325:C:/Users/stapi/OneDrive/Desktop/GD32VW553/V1_MQTT_OK/GD32VW55X_Wifi_BLE_SDK/GD32VW55x_RELEASE_V1.0.2/MSDK/wpa_supplicant/src/ap\ieee802_11_vht.c **** 
 326:C:/Users/stapi/OneDrive/Desktop/GD32VW553/V1_MQTT_OK/GD32VW55X_Wifi_BLE_SDK/GD32VW55x_RELEASE_V1.0.2/MSDK/wpa_supplicant/src/ap\ieee802_11_vht.c **** 	if (!(own_cap & VHT_CAP_MU_BEAMFORMEE_CAPABLE))
 953              		.loc 1 326 2 is_stmt 1
 954              		.loc 1 326 16 is_stmt 0
 955 006a B7061000 		li	a3,1048576
 956 006e F98E     		and	a3,a4,a3
 957              		.loc 1 326 5
 958 0070 99E2     		bne	a3,zero,.L82
 327:C:/Users/stapi/OneDrive/Desktop/GD32VW553/V1_MQTT_OK/GD32VW55X_Wifi_BLE_SDK/GD32VW55x_RELEASE_V1.0.2/MSDK/wpa_supplicant/src/ap\ieee802_11_vht.c **** 		cap &= ~VHT_CAP_MU_BEAMFORMER_CAPABLE;
 959              		.loc 1 327 3 is_stmt 1
 960              		.loc 1 327 7 is_stmt 0
 961 0072 93973749 		bclri	a5,a5,19
 962              	.LVL86:
 963              	.L82:
 328:C:/Users/stapi/OneDrive/Desktop/GD32VW553/V1_MQTT_OK/GD32VW55X_Wifi_BLE_SDK/GD32VW55x_RELEASE_V1.0.2/MSDK/wpa_supplicant/src/ap\ieee802_11_vht.c **** 
 329:C:/Users/stapi/OneDrive/Desktop/GD32VW553/V1_MQTT_OK/GD32VW55X_Wifi_BLE_SDK/GD32VW55x_RELEASE_V1.0.2/MSDK/wpa_supplicant/src/ap\ieee802_11_vht.c **** 	/* mask channel widths we don't support */
 330:C:/Users/stapi/OneDrive/Desktop/GD32VW553/V1_MQTT_OK/GD32VW55X_Wifi_BLE_SDK/GD32VW55x_RELEASE_V1.0.2/MSDK/wpa_supplicant/src/ap\ieee802_11_vht.c **** 	switch (own_cap & VHT_CAP_SUPP_CHAN_WIDTH_MASK) {
 964              		.loc 1 330 2 is_stmt 1
 965              		.loc 1 330 18 is_stmt 0
 966 0076 9376C700 		andi	a3,a4,12
 967              		.loc 1 330 2
 968 007a 1146     		li	a2,4
 969 007c 6387C600 		beq	a3,a2,.L83
 970 0080 2146     		li	a2,8
 971 0082 638AC600 		beq	a3,a2,.L84
 331:C:/Users/stapi/OneDrive/Desktop/GD32VW553/V1_MQTT_OK/GD32VW55X_Wifi_BLE_SDK/GD32VW55x_RELEASE_V1.0.2/MSDK/wpa_supplicant/src/ap\ieee802_11_vht.c **** 	case VHT_CAP_SUPP_CHAN_WIDTH_160_80PLUS80MHZ:
 332:C:/Users/stapi/OneDrive/Desktop/GD32VW553/V1_MQTT_OK/GD32VW55X_Wifi_BLE_SDK/GD32VW55x_RELEASE_V1.0.2/MSDK/wpa_supplicant/src/ap\ieee802_11_vht.c **** 		break;
 333:C:/Users/stapi/OneDrive/Desktop/GD32VW553/V1_MQTT_OK/GD32VW55X_Wifi_BLE_SDK/GD32VW55x_RELEASE_V1.0.2/MSDK/wpa_supplicant/src/ap\ieee802_11_vht.c **** 	case VHT_CAP_SUPP_CHAN_WIDTH_160MHZ:
 334:C:/Users/stapi/OneDrive/Desktop/GD32VW553/V1_MQTT_OK/GD32VW55X_Wifi_BLE_SDK/GD32VW55x_RELEASE_V1.0.2/MSDK/wpa_supplicant/src/ap\ieee802_11_vht.c **** 		if (cap & VHT_CAP_SUPP_CHAN_WIDTH_160_80PLUS80MHZ) {
 335:C:/Users/stapi/OneDrive/Desktop/GD32VW553/V1_MQTT_OK/GD32VW55X_Wifi_BLE_SDK/GD32VW55x_RELEASE_V1.0.2/MSDK/wpa_supplicant/src/ap\ieee802_11_vht.c **** 			cap &= ~VHT_CAP_SUPP_CHAN_WIDTH_160_80PLUS80MHZ;
 336:C:/Users/stapi/OneDrive/Desktop/GD32VW553/V1_MQTT_OK/GD32VW55X_Wifi_BLE_SDK/GD32VW55x_RELEASE_V1.0.2/MSDK/wpa_supplicant/src/ap\ieee802_11_vht.c **** 			cap |= VHT_CAP_SUPP_CHAN_WIDTH_160MHZ;
 337:C:/Users/stapi/OneDrive/Desktop/GD32VW553/V1_MQTT_OK/GD32VW55X_Wifi_BLE_SDK/GD32VW55x_RELEASE_V1.0.2/MSDK/wpa_supplicant/src/ap\ieee802_11_vht.c **** 		}
 338:C:/Users/stapi/OneDrive/Desktop/GD32VW553/V1_MQTT_OK/GD32VW55X_Wifi_BLE_SDK/GD32VW55x_RELEASE_V1.0.2/MSDK/wpa_supplicant/src/ap\ieee802_11_vht.c **** 		break;
 339:C:/Users/stapi/OneDrive/Desktop/GD32VW553/V1_MQTT_OK/GD32VW55X_Wifi_BLE_SDK/GD32VW55x_RELEASE_V1.0.2/MSDK/wpa_supplicant/src/ap\ieee802_11_vht.c **** 	default:
 340:C:/Users/stapi/OneDrive/Desktop/GD32VW553/V1_MQTT_OK/GD32VW55X_Wifi_BLE_SDK/GD32VW55x_RELEASE_V1.0.2/MSDK/wpa_supplicant/src/ap\ieee802_11_vht.c **** 		cap &= ~VHT_CAP_SUPP_CHAN_WIDTH_MASK;
 972              		.loc 1 340 3 is_stmt 1
 973              		.loc 1 340 7 is_stmt 0
 974 0086 CD9B     		andi	a5,a5,-13
 975              	.LVL87:
 341:C:/Users/stapi/OneDrive/Desktop/GD32VW553/V1_MQTT_OK/GD32VW55X_Wifi_BLE_SDK/GD32VW55x_RELEASE_V1.0.2/MSDK/wpa_supplicant/src/ap\ieee802_11_vht.c **** 		break;
 976              		.loc 1 341 3 is_stmt 1
 977 0088 39A0     		j	.L84
 978              	.L83:
 334:C:/Users/stapi/OneDrive/Desktop/GD32VW553/V1_MQTT_OK/GD32VW55X_Wifi_BLE_SDK/GD32VW55x_RELEASE_V1.0.2/MSDK/wpa_supplicant/src/ap\ieee802_11_vht.c **** 			cap &= ~VHT_CAP_SUPP_CHAN_WIDTH_160_80PLUS80MHZ;
 979              		.loc 1 334 3
 334:C:/Users/stapi/OneDrive/Desktop/GD32VW553/V1_MQTT_OK/GD32VW55X_Wifi_BLE_SDK/GD32VW55x_RELEASE_V1.0.2/MSDK/wpa_supplicant/src/ap\ieee802_11_vht.c **** 			cap &= ~VHT_CAP_SUPP_CHAN_WIDTH_160_80PLUS80MHZ;
 980              		.loc 1 334 11 is_stmt 0
 981 008a 93F68700 		andi	a3,a5,8
 334:C:/Users/stapi/OneDrive/Desktop/GD32VW553/V1_MQTT_OK/GD32VW55X_Wifi_BLE_SDK/GD32VW55x_RELEASE_V1.0.2/MSDK/wpa_supplicant/src/ap\ieee802_11_vht.c **** 			cap &= ~VHT_CAP_SUPP_CHAN_WIDTH_160_80PLUS80MHZ;
 982              		.loc 1 334 6
 983 008e 81C6     		beq	a3,zero,.L84
 335:C:/Users/stapi/OneDrive/Desktop/GD32VW553/V1_MQTT_OK/GD32VW55X_Wifi_BLE_SDK/GD32VW55x_RELEASE_V1.0.2/MSDK/wpa_supplicant/src/ap\ieee802_11_vht.c **** 			cap |= VHT_CAP_SUPP_CHAN_WIDTH_160MHZ;
 984              		.loc 1 335 4 is_stmt 1
 335:C:/Users/stapi/OneDrive/Desktop/GD32VW553/V1_MQTT_OK/GD32VW55X_Wifi_BLE_SDK/GD32VW55x_RELEASE_V1.0.2/MSDK/wpa_supplicant/src/ap\ieee802_11_vht.c **** 			cap |= VHT_CAP_SUPP_CHAN_WIDTH_160MHZ;
 985              		.loc 1 335 8 is_stmt 0
 986 0090 DD9B     		andi	a5,a5,-9
 987              	.LVL88:
 336:C:/Users/stapi/OneDrive/Desktop/GD32VW553/V1_MQTT_OK/GD32VW55X_Wifi_BLE_SDK/GD32VW55x_RELEASE_V1.0.2/MSDK/wpa_supplicant/src/ap\ieee802_11_vht.c **** 		}
 988              		.loc 1 336 4 is_stmt 1
 336:C:/Users/stapi/OneDrive/Desktop/GD32VW553/V1_MQTT_OK/GD32VW55X_Wifi_BLE_SDK/GD32VW55x_RELEASE_V1.0.2/MSDK/wpa_supplicant/src/ap\ieee802_11_vht.c **** 		}
 989              		.loc 1 336 8 is_stmt 0
 990 0092 93E74700 		ori	a5,a5,4
 991              	.LVL89:
 992              	.L84:
 342:C:/Users/stapi/OneDrive/Desktop/GD32VW553/V1_MQTT_OK/GD32VW55X_Wifi_BLE_SDK/GD32VW55x_RELEASE_V1.0.2/MSDK/wpa_supplicant/src/ap\ieee802_11_vht.c **** 	}
 343:C:/Users/stapi/OneDrive/Desktop/GD32VW553/V1_MQTT_OK/GD32VW55X_Wifi_BLE_SDK/GD32VW55x_RELEASE_V1.0.2/MSDK/wpa_supplicant/src/ap\ieee802_11_vht.c **** 
 344:C:/Users/stapi/OneDrive/Desktop/GD32VW553/V1_MQTT_OK/GD32VW55X_Wifi_BLE_SDK/GD32VW55x_RELEASE_V1.0.2/MSDK/wpa_supplicant/src/ap\ieee802_11_vht.c **** 	if (!(cap & VHT_CAP_SUPP_CHAN_WIDTH_MASK))
 993              		.loc 1 344 2 is_stmt 1
 994              		.loc 1 344 12 is_stmt 0
 995 0096 93F6C700 		andi	a3,a5,12
 996              		.loc 1 344 5
 997 009a 99E2     		bne	a3,zero,.L86
 345:C:/Users/stapi/OneDrive/Desktop/GD32VW553/V1_MQTT_OK/GD32VW55X_Wifi_BLE_SDK/GD32VW55x_RELEASE_V1.0.2/MSDK/wpa_supplicant/src/ap\ieee802_11_vht.c **** 		cap &= ~VHT_CAP_SHORT_GI_160;
 998              		.loc 1 345 3 is_stmt 1
 999              		.loc 1 345 7 is_stmt 0
 1000 009c 93F7F7FB 		andi	a5,a5,-65
 1001              	.LVL90:
 1002              	.L86:
 346:C:/Users/stapi/OneDrive/Desktop/GD32VW553/V1_MQTT_OK/GD32VW55X_Wifi_BLE_SDK/GD32VW55x_RELEASE_V1.0.2/MSDK/wpa_supplicant/src/ap\ieee802_11_vht.c **** 
 347:C:/Users/stapi/OneDrive/Desktop/GD32VW553/V1_MQTT_OK/GD32VW55X_Wifi_BLE_SDK/GD32VW55x_RELEASE_V1.0.2/MSDK/wpa_supplicant/src/ap\ieee802_11_vht.c **** 	/*
 348:C:/Users/stapi/OneDrive/Desktop/GD32VW553/V1_MQTT_OK/GD32VW55X_Wifi_BLE_SDK/GD32VW55x_RELEASE_V1.0.2/MSDK/wpa_supplicant/src/ap\ieee802_11_vht.c **** 	 * if we don't support RX STBC, mask out TX STBC in the STA's HT caps
 349:C:/Users/stapi/OneDrive/Desktop/GD32VW553/V1_MQTT_OK/GD32VW55X_Wifi_BLE_SDK/GD32VW55x_RELEASE_V1.0.2/MSDK/wpa_supplicant/src/ap\ieee802_11_vht.c **** 	 * if we don't support TX STBC, mask out RX STBC in the STA's HT caps
 350:C:/Users/stapi/OneDrive/Desktop/GD32VW553/V1_MQTT_OK/GD32VW55X_Wifi_BLE_SDK/GD32VW55x_RELEASE_V1.0.2/MSDK/wpa_supplicant/src/ap\ieee802_11_vht.c **** 	 */
 351:C:/Users/stapi/OneDrive/Desktop/GD32VW553/V1_MQTT_OK/GD32VW55X_Wifi_BLE_SDK/GD32VW55x_RELEASE_V1.0.2/MSDK/wpa_supplicant/src/ap\ieee802_11_vht.c **** 	if (!(own_cap & VHT_CAP_RXSTBC_MASK))
 1003              		.loc 1 351 2 is_stmt 1
 1004              		.loc 1 351 16 is_stmt 0
 1005 00a0 93760770 		andi	a3,a4,1792
 1006              		.loc 1 351 5
 1007 00a4 99E2     		bne	a3,zero,.L87
 352:C:/Users/stapi/OneDrive/Desktop/GD32VW553/V1_MQTT_OK/GD32VW55X_Wifi_BLE_SDK/GD32VW55x_RELEASE_V1.0.2/MSDK/wpa_supplicant/src/ap\ieee802_11_vht.c **** 		cap &= ~VHT_CAP_TXSTBC;
 1008              		.loc 1 352 3 is_stmt 1
 1009              		.loc 1 352 7 is_stmt 0
 1010 00a6 93F7F7F7 		andi	a5,a5,-129
 1011              	.LVL91:
 1012              	.L87:
 353:C:/Users/stapi/OneDrive/Desktop/GD32VW553/V1_MQTT_OK/GD32VW55X_Wifi_BLE_SDK/GD32VW55x_RELEASE_V1.0.2/MSDK/wpa_supplicant/src/ap\ieee802_11_vht.c **** 	if (!(own_cap & VHT_CAP_TXSTBC))
 1013              		.loc 1 353 2 is_stmt 1
 1014              		.loc 1 353 16 is_stmt 0
 1015 00aa 13770708 		andi	a4,a4,128
 1016              	.LVL92:
 1017              		.loc 1 353 5
 1018 00ae 19E3     		bne	a4,zero,.L88
 354:C:/Users/stapi/OneDrive/Desktop/GD32VW553/V1_MQTT_OK/GD32VW55X_Wifi_BLE_SDK/GD32VW55x_RELEASE_V1.0.2/MSDK/wpa_supplicant/src/ap\ieee802_11_vht.c **** 		cap &= ~VHT_CAP_RXSTBC_MASK;
 1019              		.loc 1 354 3 is_stmt 1
 1020              		.loc 1 354 7 is_stmt 0
 1021 00b0 93F7F78F 		andi	a5,a5,-1793
 1022              	.LVL93:
 1023              	.L88:
 355:C:/Users/stapi/OneDrive/Desktop/GD32VW553/V1_MQTT_OK/GD32VW55X_Wifi_BLE_SDK/GD32VW55x_RELEASE_V1.0.2/MSDK/wpa_supplicant/src/ap\ieee802_11_vht.c **** 
 356:C:/Users/stapi/OneDrive/Desktop/GD32VW553/V1_MQTT_OK/GD32VW55X_Wifi_BLE_SDK/GD32VW55x_RELEASE_V1.0.2/MSDK/wpa_supplicant/src/ap\ieee802_11_vht.c **** 	neg_vht_cap->vht_capabilities_info = host_to_le32(cap);
 1024              		.loc 1 356 2 is_stmt 1
 1025              		.loc 1 356 37 is_stmt 0
 1026 00b4 13D78700 		srli	a4,a5,8
 1027 00b8 2300F400 		sb	a5,0(s0)
 1028 00bc A300E400 		sb	a4,1(s0)
 1029 00c0 13D70701 		srli	a4,a5,16
 1030 00c4 E183     		srli	a5,a5,24
 1031              	.LVL94:
 1032 00c6 2301E400 		sb	a4,2(s0)
 1033 00ca A301F400 		sb	a5,3(s0)
 357:C:/Users/stapi/OneDrive/Desktop/GD32VW553/V1_MQTT_OK/GD32VW55X_Wifi_BLE_SDK/GD32VW55x_RELEASE_V1.0.2/MSDK/wpa_supplicant/src/ap\ieee802_11_vht.c **** }
 1034              		.loc 1 357 1
 1035 00ce 17030000 		tail	__riscv_restore_2
 1035      67000300 
 1036              		.cfi_restore 9
 1037              		.cfi_restore 8
 1038              		.cfi_restore 1
 1039              		.cfi_def_cfa_offset 0
 1040              	.LVL95:
 1041              	.L97:
 1042 00d6 8280     		ret
 1043              		.cfi_endproc
 1044              	.LFE147:
 1046              		.text
 1047              	.Letext0:
 1048              		.file 3 "c:\\users\\stapi\\onedrive\\desktop\\gd32vw553\\embeddedbuilder_v1.4.7.26843\\tools\\nucl
 1049              		.file 4 "c:\\users\\stapi\\onedrive\\desktop\\gd32vw553\\embeddedbuilder_v1.4.7.26843\\tools\\nucl
 1050              		.file 5 "c:\\users\\stapi\\onedrive\\desktop\\gd32vw553\\embeddedbuilder_v1.4.7.26843\\tools\\nucl
 1051              		.file 6 "..\\..\\..\\..\\lwip\\lwip-2.1.2\\src\\include/lwip/arch.h"
 1052              		.file 7 "..\\..\\..\\..\\lwip\\lwip-2.1.2\\src\\include/lwip/inet.h"
 1053              		.file 8 "..\\..\\..\\..\\wpa_supplicant\\src/utils/os.h"
 1054              		.file 9 "..\\..\\..\\..\\wpa_supplicant\\src/utils/wpabuf.h"
 1055              		.file 10 "..\\..\\..\\..\\wpa_supplicant\\src/common/ieee802_11_defs.h"
 1056              		.file 11 "..\\..\\..\\..\\wpa_supplicant\\src/utils/wpa_debug.h"
 1057              		.file 12 "..\\..\\..\\..\\wpa_supplicant\\src/common/defs.h"
 1058              		.file 13 "..\\..\\..\\..\\wpa_supplicant\\src/utils/list.h"
 1059              		.file 14 "..\\..\\..\\..\\wpa_supplicant\\src/utils/ip_addr.h"
 1060              		.file 15 "..\\..\\..\\..\\wpa_supplicant\\src/common/ieee802_11_common.h"
 1061              		.file 16 "..\\..\\..\\..\\wpa_supplicant\\src/wps/wps_defs.h"
 1062              		.file 17 "..\\..\\..\\..\\wpa_supplicant\\src/wps/wps.h"
 1063              		.file 18 "C:/Users/stapi/OneDrive/Desktop/GD32VW553/V1_MQTT_OK/GD32VW55X_Wifi_BLE_SDK/GD32VW55x_RE
 1064              		.file 19 "C:/Users/stapi/OneDrive/Desktop/GD32VW553/V1_MQTT_OK/GD32VW55X_Wifi_BLE_SDK/GD32VW55x_RE
 1065              		.file 20 "..\\..\\..\\..\\wpa_supplicant\\src/common/sae.h"
 1066              		.file 21 "..\\..\\..\\..\\wpa_supplicant\\src/drivers/driver.h"
 1067              		.file 22 "C:/Users/stapi/OneDrive/Desktop/GD32VW553/V1_MQTT_OK/GD32VW55X_Wifi_BLE_SDK/GD32VW55x_RE
 1068              		.file 23 "C:/Users/stapi/OneDrive/Desktop/GD32VW553/V1_MQTT_OK/GD32VW55X_Wifi_BLE_SDK/GD32VW55x_RE