   1              		.file	"neighbor_db.c"
   2              		.option nopic
   3              		.attribute arch, "rv32i2p0_m2p0_a2p0_f2p0_c2p0_b_p0p94"
   4              		.attribute unaligned_access, 0
   5              		.attribute stack_align, 16
   6              		.text
   7              	.Ltext0:
   8              		.cfi_sections	.debug_frame
   9              		.section	.text.hostapd_neighbor_clear_entry,"ax",@progbits
  10              		.align	1
  12              	hostapd_neighbor_clear_entry:
  13              	.LFB139:
  14              		.file 1 "C:/Users/stapi/OneDrive/Desktop/GD32VW553/V1_MQTT_OK/GD32VW55X_Wifi_BLE_SDK/GD32VW55x_REL
   1:C:/Users/stapi/OneDrive/Desktop/GD32VW553/V1_MQTT_OK/GD32VW55X_Wifi_BLE_SDK/GD32VW55x_RELEASE_V1.0.2/MSDK/wpa_supplicant/src/ap\neighbor_db.c **** /*
   2:C:/Users/stapi/OneDrive/Desktop/GD32VW553/V1_MQTT_OK/GD32VW55X_Wifi_BLE_SDK/GD32VW55x_RELEASE_V1.0.2/MSDK/wpa_supplicant/src/ap\neighbor_db.c ****  * hostapd / Neighboring APs DB
   3:C:/Users/stapi/OneDrive/Desktop/GD32VW553/V1_MQTT_OK/GD32VW55X_Wifi_BLE_SDK/GD32VW55x_RELEASE_V1.0.2/MSDK/wpa_supplicant/src/ap\neighbor_db.c ****  * Copyright(c) 2013 - 2016 Intel Mobile Communications GmbH.
   4:C:/Users/stapi/OneDrive/Desktop/GD32VW553/V1_MQTT_OK/GD32VW55X_Wifi_BLE_SDK/GD32VW55x_RELEASE_V1.0.2/MSDK/wpa_supplicant/src/ap\neighbor_db.c ****  * Copyright(c) 2011 - 2016 Intel Corporation. All rights reserved.
   5:C:/Users/stapi/OneDrive/Desktop/GD32VW553/V1_MQTT_OK/GD32VW55X_Wifi_BLE_SDK/GD32VW55x_RELEASE_V1.0.2/MSDK/wpa_supplicant/src/ap\neighbor_db.c ****  *
   6:C:/Users/stapi/OneDrive/Desktop/GD32VW553/V1_MQTT_OK/GD32VW55X_Wifi_BLE_SDK/GD32VW55x_RELEASE_V1.0.2/MSDK/wpa_supplicant/src/ap\neighbor_db.c ****  * This software may be distributed under the terms of the BSD license.
   7:C:/Users/stapi/OneDrive/Desktop/GD32VW553/V1_MQTT_OK/GD32VW55X_Wifi_BLE_SDK/GD32VW55x_RELEASE_V1.0.2/MSDK/wpa_supplicant/src/ap\neighbor_db.c ****  * See README for more details.
   8:C:/Users/stapi/OneDrive/Desktop/GD32VW553/V1_MQTT_OK/GD32VW55X_Wifi_BLE_SDK/GD32VW55x_RELEASE_V1.0.2/MSDK/wpa_supplicant/src/ap\neighbor_db.c ****  */
   9:C:/Users/stapi/OneDrive/Desktop/GD32VW553/V1_MQTT_OK/GD32VW55X_Wifi_BLE_SDK/GD32VW55x_RELEASE_V1.0.2/MSDK/wpa_supplicant/src/ap\neighbor_db.c **** 
  10:C:/Users/stapi/OneDrive/Desktop/GD32VW553/V1_MQTT_OK/GD32VW55X_Wifi_BLE_SDK/GD32VW55x_RELEASE_V1.0.2/MSDK/wpa_supplicant/src/ap\neighbor_db.c **** #include "utils/includes.h"
  11:C:/Users/stapi/OneDrive/Desktop/GD32VW553/V1_MQTT_OK/GD32VW55X_Wifi_BLE_SDK/GD32VW55x_RELEASE_V1.0.2/MSDK/wpa_supplicant/src/ap\neighbor_db.c **** 
  12:C:/Users/stapi/OneDrive/Desktop/GD32VW553/V1_MQTT_OK/GD32VW55X_Wifi_BLE_SDK/GD32VW55x_RELEASE_V1.0.2/MSDK/wpa_supplicant/src/ap\neighbor_db.c **** #include "utils/common.h"
  13:C:/Users/stapi/OneDrive/Desktop/GD32VW553/V1_MQTT_OK/GD32VW55X_Wifi_BLE_SDK/GD32VW55x_RELEASE_V1.0.2/MSDK/wpa_supplicant/src/ap\neighbor_db.c **** #include "utils/crc32.h"
  14:C:/Users/stapi/OneDrive/Desktop/GD32VW553/V1_MQTT_OK/GD32VW55X_Wifi_BLE_SDK/GD32VW55x_RELEASE_V1.0.2/MSDK/wpa_supplicant/src/ap\neighbor_db.c **** #include "hostapd.h"
  15:C:/Users/stapi/OneDrive/Desktop/GD32VW553/V1_MQTT_OK/GD32VW55X_Wifi_BLE_SDK/GD32VW55x_RELEASE_V1.0.2/MSDK/wpa_supplicant/src/ap\neighbor_db.c **** #include "ieee802_11.h"
  16:C:/Users/stapi/OneDrive/Desktop/GD32VW553/V1_MQTT_OK/GD32VW55X_Wifi_BLE_SDK/GD32VW55x_RELEASE_V1.0.2/MSDK/wpa_supplicant/src/ap\neighbor_db.c **** #include "neighbor_db.h"
  17:C:/Users/stapi/OneDrive/Desktop/GD32VW553/V1_MQTT_OK/GD32VW55X_Wifi_BLE_SDK/GD32VW55x_RELEASE_V1.0.2/MSDK/wpa_supplicant/src/ap\neighbor_db.c **** 
  18:C:/Users/stapi/OneDrive/Desktop/GD32VW553/V1_MQTT_OK/GD32VW55X_Wifi_BLE_SDK/GD32VW55x_RELEASE_V1.0.2/MSDK/wpa_supplicant/src/ap\neighbor_db.c **** 
  19:C:/Users/stapi/OneDrive/Desktop/GD32VW553/V1_MQTT_OK/GD32VW55X_Wifi_BLE_SDK/GD32VW55x_RELEASE_V1.0.2/MSDK/wpa_supplicant/src/ap\neighbor_db.c **** struct hostapd_neighbor_entry *
  20:C:/Users/stapi/OneDrive/Desktop/GD32VW553/V1_MQTT_OK/GD32VW55X_Wifi_BLE_SDK/GD32VW55x_RELEASE_V1.0.2/MSDK/wpa_supplicant/src/ap\neighbor_db.c **** hostapd_neighbor_get(struct hostapd_data *hapd, const u8 *bssid,
  21:C:/Users/stapi/OneDrive/Desktop/GD32VW553/V1_MQTT_OK/GD32VW55X_Wifi_BLE_SDK/GD32VW55x_RELEASE_V1.0.2/MSDK/wpa_supplicant/src/ap\neighbor_db.c **** 		     const struct wpa_ssid_value *ssid)
  22:C:/Users/stapi/OneDrive/Desktop/GD32VW553/V1_MQTT_OK/GD32VW55X_Wifi_BLE_SDK/GD32VW55x_RELEASE_V1.0.2/MSDK/wpa_supplicant/src/ap\neighbor_db.c **** {
  23:C:/Users/stapi/OneDrive/Desktop/GD32VW553/V1_MQTT_OK/GD32VW55X_Wifi_BLE_SDK/GD32VW55x_RELEASE_V1.0.2/MSDK/wpa_supplicant/src/ap\neighbor_db.c **** 	struct hostapd_neighbor_entry *nr;
  24:C:/Users/stapi/OneDrive/Desktop/GD32VW553/V1_MQTT_OK/GD32VW55X_Wifi_BLE_SDK/GD32VW55x_RELEASE_V1.0.2/MSDK/wpa_supplicant/src/ap\neighbor_db.c **** 
  25:C:/Users/stapi/OneDrive/Desktop/GD32VW553/V1_MQTT_OK/GD32VW55X_Wifi_BLE_SDK/GD32VW55x_RELEASE_V1.0.2/MSDK/wpa_supplicant/src/ap\neighbor_db.c **** 	dl_list_for_each(nr, &hapd->nr_db, struct hostapd_neighbor_entry,
  26:C:/Users/stapi/OneDrive/Desktop/GD32VW553/V1_MQTT_OK/GD32VW55X_Wifi_BLE_SDK/GD32VW55x_RELEASE_V1.0.2/MSDK/wpa_supplicant/src/ap\neighbor_db.c **** 			 list) {
  27:C:/Users/stapi/OneDrive/Desktop/GD32VW553/V1_MQTT_OK/GD32VW55X_Wifi_BLE_SDK/GD32VW55x_RELEASE_V1.0.2/MSDK/wpa_supplicant/src/ap\neighbor_db.c **** 		if (os_memcmp(bssid, nr->bssid, ETH_ALEN) == 0 &&
  28:C:/Users/stapi/OneDrive/Desktop/GD32VW553/V1_MQTT_OK/GD32VW55X_Wifi_BLE_SDK/GD32VW55x_RELEASE_V1.0.2/MSDK/wpa_supplicant/src/ap\neighbor_db.c **** 		    (!ssid ||
  29:C:/Users/stapi/OneDrive/Desktop/GD32VW553/V1_MQTT_OK/GD32VW55X_Wifi_BLE_SDK/GD32VW55x_RELEASE_V1.0.2/MSDK/wpa_supplicant/src/ap\neighbor_db.c **** 		     (ssid->ssid_len == nr->ssid.ssid_len &&
  30:C:/Users/stapi/OneDrive/Desktop/GD32VW553/V1_MQTT_OK/GD32VW55X_Wifi_BLE_SDK/GD32VW55x_RELEASE_V1.0.2/MSDK/wpa_supplicant/src/ap\neighbor_db.c **** 		      os_memcmp(ssid->ssid, nr->ssid.ssid,
  31:C:/Users/stapi/OneDrive/Desktop/GD32VW553/V1_MQTT_OK/GD32VW55X_Wifi_BLE_SDK/GD32VW55x_RELEASE_V1.0.2/MSDK/wpa_supplicant/src/ap\neighbor_db.c **** 				ssid->ssid_len) == 0)))
  32:C:/Users/stapi/OneDrive/Desktop/GD32VW553/V1_MQTT_OK/GD32VW55X_Wifi_BLE_SDK/GD32VW55x_RELEASE_V1.0.2/MSDK/wpa_supplicant/src/ap\neighbor_db.c **** 			return nr;
  33:C:/Users/stapi/OneDrive/Desktop/GD32VW553/V1_MQTT_OK/GD32VW55X_Wifi_BLE_SDK/GD32VW55x_RELEASE_V1.0.2/MSDK/wpa_supplicant/src/ap\neighbor_db.c **** 	}
  34:C:/Users/stapi/OneDrive/Desktop/GD32VW553/V1_MQTT_OK/GD32VW55X_Wifi_BLE_SDK/GD32VW55x_RELEASE_V1.0.2/MSDK/wpa_supplicant/src/ap\neighbor_db.c **** 	return NULL;
  35:C:/Users/stapi/OneDrive/Desktop/GD32VW553/V1_MQTT_OK/GD32VW55X_Wifi_BLE_SDK/GD32VW55x_RELEASE_V1.0.2/MSDK/wpa_supplicant/src/ap\neighbor_db.c **** }
  36:C:/Users/stapi/OneDrive/Desktop/GD32VW553/V1_MQTT_OK/GD32VW55X_Wifi_BLE_SDK/GD32VW55x_RELEASE_V1.0.2/MSDK/wpa_supplicant/src/ap\neighbor_db.c **** 
  37:C:/Users/stapi/OneDrive/Desktop/GD32VW553/V1_MQTT_OK/GD32VW55X_Wifi_BLE_SDK/GD32VW55x_RELEASE_V1.0.2/MSDK/wpa_supplicant/src/ap\neighbor_db.c **** 
  38:C:/Users/stapi/OneDrive/Desktop/GD32VW553/V1_MQTT_OK/GD32VW55X_Wifi_BLE_SDK/GD32VW55x_RELEASE_V1.0.2/MSDK/wpa_supplicant/src/ap\neighbor_db.c **** int hostapd_neighbor_show(struct hostapd_data *hapd, char *buf, size_t buflen)
  39:C:/Users/stapi/OneDrive/Desktop/GD32VW553/V1_MQTT_OK/GD32VW55X_Wifi_BLE_SDK/GD32VW55x_RELEASE_V1.0.2/MSDK/wpa_supplicant/src/ap\neighbor_db.c **** {
  40:C:/Users/stapi/OneDrive/Desktop/GD32VW553/V1_MQTT_OK/GD32VW55X_Wifi_BLE_SDK/GD32VW55x_RELEASE_V1.0.2/MSDK/wpa_supplicant/src/ap\neighbor_db.c **** 	struct hostapd_neighbor_entry *nr;
  41:C:/Users/stapi/OneDrive/Desktop/GD32VW553/V1_MQTT_OK/GD32VW55X_Wifi_BLE_SDK/GD32VW55x_RELEASE_V1.0.2/MSDK/wpa_supplicant/src/ap\neighbor_db.c **** 	char *pos, *end;
  42:C:/Users/stapi/OneDrive/Desktop/GD32VW553/V1_MQTT_OK/GD32VW55X_Wifi_BLE_SDK/GD32VW55x_RELEASE_V1.0.2/MSDK/wpa_supplicant/src/ap\neighbor_db.c **** 
  43:C:/Users/stapi/OneDrive/Desktop/GD32VW553/V1_MQTT_OK/GD32VW55X_Wifi_BLE_SDK/GD32VW55x_RELEASE_V1.0.2/MSDK/wpa_supplicant/src/ap\neighbor_db.c **** 	pos = buf;
  44:C:/Users/stapi/OneDrive/Desktop/GD32VW553/V1_MQTT_OK/GD32VW55X_Wifi_BLE_SDK/GD32VW55x_RELEASE_V1.0.2/MSDK/wpa_supplicant/src/ap\neighbor_db.c **** 	end = buf + buflen;
  45:C:/Users/stapi/OneDrive/Desktop/GD32VW553/V1_MQTT_OK/GD32VW55X_Wifi_BLE_SDK/GD32VW55x_RELEASE_V1.0.2/MSDK/wpa_supplicant/src/ap\neighbor_db.c **** 
  46:C:/Users/stapi/OneDrive/Desktop/GD32VW553/V1_MQTT_OK/GD32VW55X_Wifi_BLE_SDK/GD32VW55x_RELEASE_V1.0.2/MSDK/wpa_supplicant/src/ap\neighbor_db.c **** 	dl_list_for_each(nr, &hapd->nr_db, struct hostapd_neighbor_entry,
  47:C:/Users/stapi/OneDrive/Desktop/GD32VW553/V1_MQTT_OK/GD32VW55X_Wifi_BLE_SDK/GD32VW55x_RELEASE_V1.0.2/MSDK/wpa_supplicant/src/ap\neighbor_db.c **** 			 list) {
  48:C:/Users/stapi/OneDrive/Desktop/GD32VW553/V1_MQTT_OK/GD32VW55X_Wifi_BLE_SDK/GD32VW55x_RELEASE_V1.0.2/MSDK/wpa_supplicant/src/ap\neighbor_db.c **** 		int ret;
  49:C:/Users/stapi/OneDrive/Desktop/GD32VW553/V1_MQTT_OK/GD32VW55X_Wifi_BLE_SDK/GD32VW55x_RELEASE_V1.0.2/MSDK/wpa_supplicant/src/ap\neighbor_db.c **** 		char nrie[2 * 255 + 1];
  50:C:/Users/stapi/OneDrive/Desktop/GD32VW553/V1_MQTT_OK/GD32VW55X_Wifi_BLE_SDK/GD32VW55x_RELEASE_V1.0.2/MSDK/wpa_supplicant/src/ap\neighbor_db.c **** 		char lci[2 * 255 + 1];
  51:C:/Users/stapi/OneDrive/Desktop/GD32VW553/V1_MQTT_OK/GD32VW55X_Wifi_BLE_SDK/GD32VW55x_RELEASE_V1.0.2/MSDK/wpa_supplicant/src/ap\neighbor_db.c **** 		char civic[2 * 255 + 1];
  52:C:/Users/stapi/OneDrive/Desktop/GD32VW553/V1_MQTT_OK/GD32VW55X_Wifi_BLE_SDK/GD32VW55x_RELEASE_V1.0.2/MSDK/wpa_supplicant/src/ap\neighbor_db.c **** 		char ssid[SSID_MAX_LEN * 2 + 1];
  53:C:/Users/stapi/OneDrive/Desktop/GD32VW553/V1_MQTT_OK/GD32VW55X_Wifi_BLE_SDK/GD32VW55x_RELEASE_V1.0.2/MSDK/wpa_supplicant/src/ap\neighbor_db.c **** 
  54:C:/Users/stapi/OneDrive/Desktop/GD32VW553/V1_MQTT_OK/GD32VW55X_Wifi_BLE_SDK/GD32VW55x_RELEASE_V1.0.2/MSDK/wpa_supplicant/src/ap\neighbor_db.c **** 		ssid[0] = '\0';
  55:C:/Users/stapi/OneDrive/Desktop/GD32VW553/V1_MQTT_OK/GD32VW55X_Wifi_BLE_SDK/GD32VW55x_RELEASE_V1.0.2/MSDK/wpa_supplicant/src/ap\neighbor_db.c **** 		wpa_snprintf_hex(ssid, sizeof(ssid), nr->ssid.ssid,
  56:C:/Users/stapi/OneDrive/Desktop/GD32VW553/V1_MQTT_OK/GD32VW55X_Wifi_BLE_SDK/GD32VW55x_RELEASE_V1.0.2/MSDK/wpa_supplicant/src/ap\neighbor_db.c **** 				 nr->ssid.ssid_len);
  57:C:/Users/stapi/OneDrive/Desktop/GD32VW553/V1_MQTT_OK/GD32VW55X_Wifi_BLE_SDK/GD32VW55x_RELEASE_V1.0.2/MSDK/wpa_supplicant/src/ap\neighbor_db.c **** 
  58:C:/Users/stapi/OneDrive/Desktop/GD32VW553/V1_MQTT_OK/GD32VW55X_Wifi_BLE_SDK/GD32VW55x_RELEASE_V1.0.2/MSDK/wpa_supplicant/src/ap\neighbor_db.c **** 		nrie[0] = '\0';
  59:C:/Users/stapi/OneDrive/Desktop/GD32VW553/V1_MQTT_OK/GD32VW55X_Wifi_BLE_SDK/GD32VW55x_RELEASE_V1.0.2/MSDK/wpa_supplicant/src/ap\neighbor_db.c **** 		if (nr->nr)
  60:C:/Users/stapi/OneDrive/Desktop/GD32VW553/V1_MQTT_OK/GD32VW55X_Wifi_BLE_SDK/GD32VW55x_RELEASE_V1.0.2/MSDK/wpa_supplicant/src/ap\neighbor_db.c **** 			wpa_snprintf_hex(nrie, sizeof(nrie),
  61:C:/Users/stapi/OneDrive/Desktop/GD32VW553/V1_MQTT_OK/GD32VW55X_Wifi_BLE_SDK/GD32VW55x_RELEASE_V1.0.2/MSDK/wpa_supplicant/src/ap\neighbor_db.c **** 					 wpabuf_head(nr->nr),
  62:C:/Users/stapi/OneDrive/Desktop/GD32VW553/V1_MQTT_OK/GD32VW55X_Wifi_BLE_SDK/GD32VW55x_RELEASE_V1.0.2/MSDK/wpa_supplicant/src/ap\neighbor_db.c **** 					 wpabuf_len(nr->nr));
  63:C:/Users/stapi/OneDrive/Desktop/GD32VW553/V1_MQTT_OK/GD32VW55X_Wifi_BLE_SDK/GD32VW55x_RELEASE_V1.0.2/MSDK/wpa_supplicant/src/ap\neighbor_db.c **** 
  64:C:/Users/stapi/OneDrive/Desktop/GD32VW553/V1_MQTT_OK/GD32VW55X_Wifi_BLE_SDK/GD32VW55x_RELEASE_V1.0.2/MSDK/wpa_supplicant/src/ap\neighbor_db.c **** 		lci[0] = '\0';
  65:C:/Users/stapi/OneDrive/Desktop/GD32VW553/V1_MQTT_OK/GD32VW55X_Wifi_BLE_SDK/GD32VW55x_RELEASE_V1.0.2/MSDK/wpa_supplicant/src/ap\neighbor_db.c **** 		if (nr->lci)
  66:C:/Users/stapi/OneDrive/Desktop/GD32VW553/V1_MQTT_OK/GD32VW55X_Wifi_BLE_SDK/GD32VW55x_RELEASE_V1.0.2/MSDK/wpa_supplicant/src/ap\neighbor_db.c **** 			wpa_snprintf_hex(lci, sizeof(lci),
  67:C:/Users/stapi/OneDrive/Desktop/GD32VW553/V1_MQTT_OK/GD32VW55X_Wifi_BLE_SDK/GD32VW55x_RELEASE_V1.0.2/MSDK/wpa_supplicant/src/ap\neighbor_db.c **** 					 wpabuf_head(nr->lci),
  68:C:/Users/stapi/OneDrive/Desktop/GD32VW553/V1_MQTT_OK/GD32VW55X_Wifi_BLE_SDK/GD32VW55x_RELEASE_V1.0.2/MSDK/wpa_supplicant/src/ap\neighbor_db.c **** 					 wpabuf_len(nr->lci));
  69:C:/Users/stapi/OneDrive/Desktop/GD32VW553/V1_MQTT_OK/GD32VW55X_Wifi_BLE_SDK/GD32VW55x_RELEASE_V1.0.2/MSDK/wpa_supplicant/src/ap\neighbor_db.c **** 
  70:C:/Users/stapi/OneDrive/Desktop/GD32VW553/V1_MQTT_OK/GD32VW55X_Wifi_BLE_SDK/GD32VW55x_RELEASE_V1.0.2/MSDK/wpa_supplicant/src/ap\neighbor_db.c **** 		civic[0] = '\0';
  71:C:/Users/stapi/OneDrive/Desktop/GD32VW553/V1_MQTT_OK/GD32VW55X_Wifi_BLE_SDK/GD32VW55x_RELEASE_V1.0.2/MSDK/wpa_supplicant/src/ap\neighbor_db.c **** 		if (nr->civic)
  72:C:/Users/stapi/OneDrive/Desktop/GD32VW553/V1_MQTT_OK/GD32VW55X_Wifi_BLE_SDK/GD32VW55x_RELEASE_V1.0.2/MSDK/wpa_supplicant/src/ap\neighbor_db.c **** 			wpa_snprintf_hex(civic, sizeof(civic),
  73:C:/Users/stapi/OneDrive/Desktop/GD32VW553/V1_MQTT_OK/GD32VW55X_Wifi_BLE_SDK/GD32VW55x_RELEASE_V1.0.2/MSDK/wpa_supplicant/src/ap\neighbor_db.c **** 					 wpabuf_head(nr->civic),
  74:C:/Users/stapi/OneDrive/Desktop/GD32VW553/V1_MQTT_OK/GD32VW55X_Wifi_BLE_SDK/GD32VW55x_RELEASE_V1.0.2/MSDK/wpa_supplicant/src/ap\neighbor_db.c **** 					 wpabuf_len(nr->civic));
  75:C:/Users/stapi/OneDrive/Desktop/GD32VW553/V1_MQTT_OK/GD32VW55X_Wifi_BLE_SDK/GD32VW55x_RELEASE_V1.0.2/MSDK/wpa_supplicant/src/ap\neighbor_db.c **** 
  76:C:/Users/stapi/OneDrive/Desktop/GD32VW553/V1_MQTT_OK/GD32VW55X_Wifi_BLE_SDK/GD32VW55x_RELEASE_V1.0.2/MSDK/wpa_supplicant/src/ap\neighbor_db.c **** 		ret = os_snprintf(pos, end - pos, MACSTR
  77:C:/Users/stapi/OneDrive/Desktop/GD32VW553/V1_MQTT_OK/GD32VW55X_Wifi_BLE_SDK/GD32VW55x_RELEASE_V1.0.2/MSDK/wpa_supplicant/src/ap\neighbor_db.c **** 				  " ssid=%s%s%s%s%s%s%s%s\n",
  78:C:/Users/stapi/OneDrive/Desktop/GD32VW553/V1_MQTT_OK/GD32VW55X_Wifi_BLE_SDK/GD32VW55x_RELEASE_V1.0.2/MSDK/wpa_supplicant/src/ap\neighbor_db.c **** 				  MAC2STR(nr->bssid), ssid,
  79:C:/Users/stapi/OneDrive/Desktop/GD32VW553/V1_MQTT_OK/GD32VW55X_Wifi_BLE_SDK/GD32VW55x_RELEASE_V1.0.2/MSDK/wpa_supplicant/src/ap\neighbor_db.c **** 				  nr->nr ? " nr=" : "", nrie,
  80:C:/Users/stapi/OneDrive/Desktop/GD32VW553/V1_MQTT_OK/GD32VW55X_Wifi_BLE_SDK/GD32VW55x_RELEASE_V1.0.2/MSDK/wpa_supplicant/src/ap\neighbor_db.c **** 				  nr->lci ? " lci=" : "", lci,
  81:C:/Users/stapi/OneDrive/Desktop/GD32VW553/V1_MQTT_OK/GD32VW55X_Wifi_BLE_SDK/GD32VW55x_RELEASE_V1.0.2/MSDK/wpa_supplicant/src/ap\neighbor_db.c **** 				  nr->civic ? " civic=" : "", civic,
  82:C:/Users/stapi/OneDrive/Desktop/GD32VW553/V1_MQTT_OK/GD32VW55X_Wifi_BLE_SDK/GD32VW55x_RELEASE_V1.0.2/MSDK/wpa_supplicant/src/ap\neighbor_db.c **** 				  nr->stationary ? " stat" : "");
  83:C:/Users/stapi/OneDrive/Desktop/GD32VW553/V1_MQTT_OK/GD32VW55X_Wifi_BLE_SDK/GD32VW55x_RELEASE_V1.0.2/MSDK/wpa_supplicant/src/ap\neighbor_db.c **** 		if (os_snprintf_error(end - pos, ret))
  84:C:/Users/stapi/OneDrive/Desktop/GD32VW553/V1_MQTT_OK/GD32VW55X_Wifi_BLE_SDK/GD32VW55x_RELEASE_V1.0.2/MSDK/wpa_supplicant/src/ap\neighbor_db.c **** 			break;
  85:C:/Users/stapi/OneDrive/Desktop/GD32VW553/V1_MQTT_OK/GD32VW55X_Wifi_BLE_SDK/GD32VW55x_RELEASE_V1.0.2/MSDK/wpa_supplicant/src/ap\neighbor_db.c **** 		pos += ret;
  86:C:/Users/stapi/OneDrive/Desktop/GD32VW553/V1_MQTT_OK/GD32VW55X_Wifi_BLE_SDK/GD32VW55x_RELEASE_V1.0.2/MSDK/wpa_supplicant/src/ap\neighbor_db.c **** 	}
  87:C:/Users/stapi/OneDrive/Desktop/GD32VW553/V1_MQTT_OK/GD32VW55X_Wifi_BLE_SDK/GD32VW55x_RELEASE_V1.0.2/MSDK/wpa_supplicant/src/ap\neighbor_db.c **** 
  88:C:/Users/stapi/OneDrive/Desktop/GD32VW553/V1_MQTT_OK/GD32VW55X_Wifi_BLE_SDK/GD32VW55x_RELEASE_V1.0.2/MSDK/wpa_supplicant/src/ap\neighbor_db.c **** 	return pos - buf;
  89:C:/Users/stapi/OneDrive/Desktop/GD32VW553/V1_MQTT_OK/GD32VW55X_Wifi_BLE_SDK/GD32VW55x_RELEASE_V1.0.2/MSDK/wpa_supplicant/src/ap\neighbor_db.c **** }
  90:C:/Users/stapi/OneDrive/Desktop/GD32VW553/V1_MQTT_OK/GD32VW55X_Wifi_BLE_SDK/GD32VW55x_RELEASE_V1.0.2/MSDK/wpa_supplicant/src/ap\neighbor_db.c **** 
  91:C:/Users/stapi/OneDrive/Desktop/GD32VW553/V1_MQTT_OK/GD32VW55X_Wifi_BLE_SDK/GD32VW55x_RELEASE_V1.0.2/MSDK/wpa_supplicant/src/ap\neighbor_db.c **** 
  92:C:/Users/stapi/OneDrive/Desktop/GD32VW553/V1_MQTT_OK/GD32VW55X_Wifi_BLE_SDK/GD32VW55x_RELEASE_V1.0.2/MSDK/wpa_supplicant/src/ap\neighbor_db.c **** static void hostapd_neighbor_clear_entry(struct hostapd_neighbor_entry *nr)
  93:C:/Users/stapi/OneDrive/Desktop/GD32VW553/V1_MQTT_OK/GD32VW55X_Wifi_BLE_SDK/GD32VW55x_RELEASE_V1.0.2/MSDK/wpa_supplicant/src/ap\neighbor_db.c **** {
  15              		.loc 1 93 1
  16              		.cfi_startproc
  17              	.LVL0:
  18 0000 17030000 		call	t0,__riscv_save_1
  18      E7020300 
  19              		.cfi_offset 8, -8
  20              		.cfi_offset 1, -4
  21              		.cfi_def_cfa_offset 16
  94:C:/Users/stapi/OneDrive/Desktop/GD32VW553/V1_MQTT_OK/GD32VW55X_Wifi_BLE_SDK/GD32VW55x_RELEASE_V1.0.2/MSDK/wpa_supplicant/src/ap\neighbor_db.c **** 	wpabuf_free(nr->nr);
  22              		.loc 1 94 2
  93:C:/Users/stapi/OneDrive/Desktop/GD32VW553/V1_MQTT_OK/GD32VW55X_Wifi_BLE_SDK/GD32VW55x_RELEASE_V1.0.2/MSDK/wpa_supplicant/src/ap\neighbor_db.c **** 	wpabuf_free(nr->nr);
  23              		.loc 1 93 1 is_stmt 0
  24 0008 2A84     		mv	s0,a0
  25              		.loc 1 94 2
  26 000a 4859     		lw	a0,52(a0)
  27              	.LVL1:
  28 000c 97000000 		call	wpabuf_free
  28      E7800000 
  29              	.LVL2:
  95:C:/Users/stapi/OneDrive/Desktop/GD32VW553/V1_MQTT_OK/GD32VW55X_Wifi_BLE_SDK/GD32VW55x_RELEASE_V1.0.2/MSDK/wpa_supplicant/src/ap\neighbor_db.c **** 	nr->nr = NULL;
  30              		.loc 1 95 2 is_stmt 1
  96:C:/Users/stapi/OneDrive/Desktop/GD32VW553/V1_MQTT_OK/GD32VW55X_Wifi_BLE_SDK/GD32VW55x_RELEASE_V1.0.2/MSDK/wpa_supplicant/src/ap\neighbor_db.c **** 	wpabuf_free(nr->lci);
  31              		.loc 1 96 2 is_stmt 0
  32 0014 085C     		lw	a0,56(s0)
  95:C:/Users/stapi/OneDrive/Desktop/GD32VW553/V1_MQTT_OK/GD32VW55X_Wifi_BLE_SDK/GD32VW55x_RELEASE_V1.0.2/MSDK/wpa_supplicant/src/ap\neighbor_db.c **** 	nr->nr = NULL;
  33              		.loc 1 95 9
  34 0016 232A0402 		sw	zero,52(s0)
  35              		.loc 1 96 2 is_stmt 1
  36 001a 97000000 		call	wpabuf_free
  36      E7800000 
  37              	.LVL3:
  97:C:/Users/stapi/OneDrive/Desktop/GD32VW553/V1_MQTT_OK/GD32VW55X_Wifi_BLE_SDK/GD32VW55x_RELEASE_V1.0.2/MSDK/wpa_supplicant/src/ap\neighbor_db.c **** 	nr->lci = NULL;
  38              		.loc 1 97 2
  98:C:/Users/stapi/OneDrive/Desktop/GD32VW553/V1_MQTT_OK/GD32VW55X_Wifi_BLE_SDK/GD32VW55x_RELEASE_V1.0.2/MSDK/wpa_supplicant/src/ap\neighbor_db.c **** 	wpabuf_free(nr->civic);
  39              		.loc 1 98 2 is_stmt 0
  40 0022 485C     		lw	a0,60(s0)
  97:C:/Users/stapi/OneDrive/Desktop/GD32VW553/V1_MQTT_OK/GD32VW55X_Wifi_BLE_SDK/GD32VW55x_RELEASE_V1.0.2/MSDK/wpa_supplicant/src/ap\neighbor_db.c **** 	nr->lci = NULL;
  41              		.loc 1 97 10
  42 0024 232C0402 		sw	zero,56(s0)
  43              		.loc 1 98 2 is_stmt 1
  44 0028 97000000 		call	wpabuf_free
  44      E7800000 
  45              	.LVL4:
  99:C:/Users/stapi/OneDrive/Desktop/GD32VW553/V1_MQTT_OK/GD32VW55X_Wifi_BLE_SDK/GD32VW55x_RELEASE_V1.0.2/MSDK/wpa_supplicant/src/ap\neighbor_db.c **** 	nr->civic = NULL;
  46              		.loc 1 99 2
 100:C:/Users/stapi/OneDrive/Desktop/GD32VW553/V1_MQTT_OK/GD32VW55X_Wifi_BLE_SDK/GD32VW55x_RELEASE_V1.0.2/MSDK/wpa_supplicant/src/ap\neighbor_db.c **** 	os_memset(nr->bssid, 0, sizeof(nr->bssid));
  47              		.loc 1 100 2 is_stmt 0
  48 0030 1946     		li	a2,6
  99:C:/Users/stapi/OneDrive/Desktop/GD32VW553/V1_MQTT_OK/GD32VW55X_Wifi_BLE_SDK/GD32VW55x_RELEASE_V1.0.2/MSDK/wpa_supplicant/src/ap\neighbor_db.c **** 	nr->civic = NULL;
  49              		.loc 1 99 12
  50 0032 232E0402 		sw	zero,60(s0)
  51              		.loc 1 100 2 is_stmt 1
  52 0036 8145     		li	a1,0
  53 0038 13058400 		addi	a0,s0,8
  54 003c 97000000 		call	os_memset
  54      E7800000 
  55              	.LVL5:
 101:C:/Users/stapi/OneDrive/Desktop/GD32VW553/V1_MQTT_OK/GD32VW55X_Wifi_BLE_SDK/GD32VW55x_RELEASE_V1.0.2/MSDK/wpa_supplicant/src/ap\neighbor_db.c **** 	os_memset(&nr->ssid, 0, sizeof(nr->ssid));
  56              		.loc 1 101 2
  57 0044 13064002 		li	a2,36
  58 0048 8145     		li	a1,0
  59 004a 13050401 		addi	a0,s0,16
  60 004e 97000000 		call	os_memset
  60      E7800000 
  61              	.LVL6:
 102:C:/Users/stapi/OneDrive/Desktop/GD32VW553/V1_MQTT_OK/GD32VW55X_Wifi_BLE_SDK/GD32VW55x_RELEASE_V1.0.2/MSDK/wpa_supplicant/src/ap\neighbor_db.c **** 	nr->stationary = 0;
  62              		.loc 1 102 2
  63              		.loc 1 102 17 is_stmt 0
  64 0056 23240404 		sw	zero,72(s0)
 103:C:/Users/stapi/OneDrive/Desktop/GD32VW553/V1_MQTT_OK/GD32VW55X_Wifi_BLE_SDK/GD32VW55x_RELEASE_V1.0.2/MSDK/wpa_supplicant/src/ap\neighbor_db.c **** }
  65              		.loc 1 103 1
  66 005a 17030000 		tail	__riscv_restore_1
  66      67000300 
  67              		.cfi_restore 8
  68              		.cfi_restore 1
  69              		.cfi_def_cfa_offset 0
  70              		.cfi_endproc
  71              	.LFE139:
  73              		.section	.text.wpabuf_put_u8,"ax",@progbits
  74              		.align	1
  76              	wpabuf_put_u8:
  77              	.LFB53:
  78              		.file 2 "..\\..\\..\\..\\wpa_supplicant\\src/utils/wpabuf.h"
   1:..\..\..\..\wpa_supplicant\src/utils/wpabuf.h **** /*
   2:..\..\..\..\wpa_supplicant\src/utils/wpabuf.h ****  * Dynamic data buffer
   3:..\..\..\..\wpa_supplicant\src/utils/wpabuf.h ****  * Copyright (c) 2007-2012, Jouni Malinen <j@w1.fi>
   4:..\..\..\..\wpa_supplicant\src/utils/wpabuf.h ****  *
   5:..\..\..\..\wpa_supplicant\src/utils/wpabuf.h ****  * This software may be distributed under the terms of the BSD license.
   6:..\..\..\..\wpa_supplicant\src/utils/wpabuf.h ****  * See README for more details.
   7:..\..\..\..\wpa_supplicant\src/utils/wpabuf.h ****  */
   8:..\..\..\..\wpa_supplicant\src/utils/wpabuf.h **** 
   9:..\..\..\..\wpa_supplicant\src/utils/wpabuf.h **** #ifndef WPABUF_H
  10:..\..\..\..\wpa_supplicant\src/utils/wpabuf.h **** #define WPABUF_H
  11:..\..\..\..\wpa_supplicant\src/utils/wpabuf.h **** 
  12:..\..\..\..\wpa_supplicant\src/utils/wpabuf.h **** /* wpabuf::buf is a pointer to external data */
  13:..\..\..\..\wpa_supplicant\src/utils/wpabuf.h **** #define WPABUF_FLAG_EXT_DATA BIT(0)
  14:..\..\..\..\wpa_supplicant\src/utils/wpabuf.h **** 
  15:..\..\..\..\wpa_supplicant\src/utils/wpabuf.h **** /*
  16:..\..\..\..\wpa_supplicant\src/utils/wpabuf.h ****  * Internal data structure for wpabuf. Please do not touch this directly from
  17:..\..\..\..\wpa_supplicant\src/utils/wpabuf.h ****  * elsewhere. This is only defined in header file to allow inline functions
  18:..\..\..\..\wpa_supplicant\src/utils/wpabuf.h ****  * from this file to access data.
  19:..\..\..\..\wpa_supplicant\src/utils/wpabuf.h ****  */
  20:..\..\..\..\wpa_supplicant\src/utils/wpabuf.h **** struct wpabuf {
  21:..\..\..\..\wpa_supplicant\src/utils/wpabuf.h **** 	size_t size; /* total size of the allocated buffer */
  22:..\..\..\..\wpa_supplicant\src/utils/wpabuf.h **** 	size_t used; /* length of data in the buffer */
  23:..\..\..\..\wpa_supplicant\src/utils/wpabuf.h **** 	u8 *buf; /* pointer to the head of the buffer */
  24:..\..\..\..\wpa_supplicant\src/utils/wpabuf.h **** 	unsigned int flags;
  25:..\..\..\..\wpa_supplicant\src/utils/wpabuf.h **** 	/* optionally followed by the allocated buffer */
  26:..\..\..\..\wpa_supplicant\src/utils/wpabuf.h **** };
  27:..\..\..\..\wpa_supplicant\src/utils/wpabuf.h **** 
  28:..\..\..\..\wpa_supplicant\src/utils/wpabuf.h **** 
  29:..\..\..\..\wpa_supplicant\src/utils/wpabuf.h **** int wpabuf_resize(struct wpabuf **buf, size_t add_len);
  30:..\..\..\..\wpa_supplicant\src/utils/wpabuf.h **** struct wpabuf * wpabuf_alloc(size_t len);
  31:..\..\..\..\wpa_supplicant\src/utils/wpabuf.h **** struct wpabuf * wpabuf_alloc_ext_data(u8 *data, size_t len);
  32:..\..\..\..\wpa_supplicant\src/utils/wpabuf.h **** struct wpabuf * wpabuf_alloc_copy(const void *data, size_t len);
  33:..\..\..\..\wpa_supplicant\src/utils/wpabuf.h **** struct wpabuf * wpabuf_dup(const struct wpabuf *src);
  34:..\..\..\..\wpa_supplicant\src/utils/wpabuf.h **** void wpabuf_free(struct wpabuf *buf);
  35:..\..\..\..\wpa_supplicant\src/utils/wpabuf.h **** void wpabuf_clear_free(struct wpabuf *buf);
  36:..\..\..\..\wpa_supplicant\src/utils/wpabuf.h **** void * wpabuf_put(struct wpabuf *buf, size_t len);
  37:..\..\..\..\wpa_supplicant\src/utils/wpabuf.h **** struct wpabuf * wpabuf_concat(struct wpabuf *a, struct wpabuf *b);
  38:..\..\..\..\wpa_supplicant\src/utils/wpabuf.h **** struct wpabuf * wpabuf_zeropad(struct wpabuf *buf, size_t len);
  39:..\..\..\..\wpa_supplicant\src/utils/wpabuf.h **** void wpabuf_printf(struct wpabuf *buf, char *fmt, ...) PRINTF_FORMAT(2, 3);
  40:..\..\..\..\wpa_supplicant\src/utils/wpabuf.h **** struct wpabuf * wpabuf_parse_bin(const char *buf);
  41:..\..\..\..\wpa_supplicant\src/utils/wpabuf.h **** 
  42:..\..\..\..\wpa_supplicant\src/utils/wpabuf.h **** 
  43:..\..\..\..\wpa_supplicant\src/utils/wpabuf.h **** /**
  44:..\..\..\..\wpa_supplicant\src/utils/wpabuf.h ****  * wpabuf_size - Get the currently allocated size of a wpabuf buffer
  45:..\..\..\..\wpa_supplicant\src/utils/wpabuf.h ****  * @buf: wpabuf buffer
  46:..\..\..\..\wpa_supplicant\src/utils/wpabuf.h ****  * Returns: Currently allocated size of the buffer
  47:..\..\..\..\wpa_supplicant\src/utils/wpabuf.h ****  */
  48:..\..\..\..\wpa_supplicant\src/utils/wpabuf.h **** static inline size_t wpabuf_size(const struct wpabuf *buf)
  49:..\..\..\..\wpa_supplicant\src/utils/wpabuf.h **** {
  50:..\..\..\..\wpa_supplicant\src/utils/wpabuf.h **** 	return buf->size;
  51:..\..\..\..\wpa_supplicant\src/utils/wpabuf.h **** }
  52:..\..\..\..\wpa_supplicant\src/utils/wpabuf.h **** 
  53:..\..\..\..\wpa_supplicant\src/utils/wpabuf.h **** /**
  54:..\..\..\..\wpa_supplicant\src/utils/wpabuf.h ****  * wpabuf_len - Get the current length of a wpabuf buffer data
  55:..\..\..\..\wpa_supplicant\src/utils/wpabuf.h ****  * @buf: wpabuf buffer
  56:..\..\..\..\wpa_supplicant\src/utils/wpabuf.h ****  * Returns: Currently used length of the buffer
  57:..\..\..\..\wpa_supplicant\src/utils/wpabuf.h ****  */
  58:..\..\..\..\wpa_supplicant\src/utils/wpabuf.h **** static inline size_t wpabuf_len(const struct wpabuf *buf)
  59:..\..\..\..\wpa_supplicant\src/utils/wpabuf.h **** {
  60:..\..\..\..\wpa_supplicant\src/utils/wpabuf.h **** 	return buf->used;
  61:..\..\..\..\wpa_supplicant\src/utils/wpabuf.h **** }
  62:..\..\..\..\wpa_supplicant\src/utils/wpabuf.h **** 
  63:..\..\..\..\wpa_supplicant\src/utils/wpabuf.h **** /**
  64:..\..\..\..\wpa_supplicant\src/utils/wpabuf.h ****  * wpabuf_tailroom - Get size of available tail room in the end of the buffer
  65:..\..\..\..\wpa_supplicant\src/utils/wpabuf.h ****  * @buf: wpabuf buffer
  66:..\..\..\..\wpa_supplicant\src/utils/wpabuf.h ****  * Returns: Tail room (in bytes) of available space in the end of the buffer
  67:..\..\..\..\wpa_supplicant\src/utils/wpabuf.h ****  */
  68:..\..\..\..\wpa_supplicant\src/utils/wpabuf.h **** static inline size_t wpabuf_tailroom(const struct wpabuf *buf)
  69:..\..\..\..\wpa_supplicant\src/utils/wpabuf.h **** {
  70:..\..\..\..\wpa_supplicant\src/utils/wpabuf.h **** 	return buf->size - buf->used;
  71:..\..\..\..\wpa_supplicant\src/utils/wpabuf.h **** }
  72:..\..\..\..\wpa_supplicant\src/utils/wpabuf.h **** 
  73:..\..\..\..\wpa_supplicant\src/utils/wpabuf.h **** /**
  74:..\..\..\..\wpa_supplicant\src/utils/wpabuf.h ****  * wpabuf_cmp - Check if two buffers contain the same data
  75:..\..\..\..\wpa_supplicant\src/utils/wpabuf.h ****  * @a: wpabuf buffer
  76:..\..\..\..\wpa_supplicant\src/utils/wpabuf.h ****  * @b: wpabuf buffer
  77:..\..\..\..\wpa_supplicant\src/utils/wpabuf.h ****  * Returns: 0 if the two buffers contain the same data and non-zero otherwise
  78:..\..\..\..\wpa_supplicant\src/utils/wpabuf.h ****  */
  79:..\..\..\..\wpa_supplicant\src/utils/wpabuf.h **** static inline int wpabuf_cmp(const struct wpabuf *a, const struct wpabuf *b)
  80:..\..\..\..\wpa_supplicant\src/utils/wpabuf.h **** {
  81:..\..\..\..\wpa_supplicant\src/utils/wpabuf.h **** 	if (!a && !b)
  82:..\..\..\..\wpa_supplicant\src/utils/wpabuf.h **** 		return 0;
  83:..\..\..\..\wpa_supplicant\src/utils/wpabuf.h **** 	if (a && b && wpabuf_size(a) == wpabuf_size(b))
  84:..\..\..\..\wpa_supplicant\src/utils/wpabuf.h **** 		return os_memcmp(a->buf, b->buf, wpabuf_size(a));
  85:..\..\..\..\wpa_supplicant\src/utils/wpabuf.h **** 	return -1;
  86:..\..\..\..\wpa_supplicant\src/utils/wpabuf.h **** }
  87:..\..\..\..\wpa_supplicant\src/utils/wpabuf.h **** 
  88:..\..\..\..\wpa_supplicant\src/utils/wpabuf.h **** /**
  89:..\..\..\..\wpa_supplicant\src/utils/wpabuf.h ****  * wpabuf_head - Get pointer to the head of the buffer data
  90:..\..\..\..\wpa_supplicant\src/utils/wpabuf.h ****  * @buf: wpabuf buffer
  91:..\..\..\..\wpa_supplicant\src/utils/wpabuf.h ****  * Returns: Pointer to the head of the buffer data
  92:..\..\..\..\wpa_supplicant\src/utils/wpabuf.h ****  */
  93:..\..\..\..\wpa_supplicant\src/utils/wpabuf.h **** static inline const void * wpabuf_head(const struct wpabuf *buf)
  94:..\..\..\..\wpa_supplicant\src/utils/wpabuf.h **** {
  95:..\..\..\..\wpa_supplicant\src/utils/wpabuf.h **** 	return buf->buf;
  96:..\..\..\..\wpa_supplicant\src/utils/wpabuf.h **** }
  97:..\..\..\..\wpa_supplicant\src/utils/wpabuf.h **** 
  98:..\..\..\..\wpa_supplicant\src/utils/wpabuf.h **** static inline const u8 * wpabuf_head_u8(const struct wpabuf *buf)
  99:..\..\..\..\wpa_supplicant\src/utils/wpabuf.h **** {
 100:..\..\..\..\wpa_supplicant\src/utils/wpabuf.h **** 	return (const u8 *) wpabuf_head(buf);
 101:..\..\..\..\wpa_supplicant\src/utils/wpabuf.h **** }
 102:..\..\..\..\wpa_supplicant\src/utils/wpabuf.h **** 
 103:..\..\..\..\wpa_supplicant\src/utils/wpabuf.h **** /**
 104:..\..\..\..\wpa_supplicant\src/utils/wpabuf.h ****  * wpabuf_mhead - Get modifiable pointer to the head of the buffer data
 105:..\..\..\..\wpa_supplicant\src/utils/wpabuf.h ****  * @buf: wpabuf buffer
 106:..\..\..\..\wpa_supplicant\src/utils/wpabuf.h ****  * Returns: Pointer to the head of the buffer data
 107:..\..\..\..\wpa_supplicant\src/utils/wpabuf.h ****  */
 108:..\..\..\..\wpa_supplicant\src/utils/wpabuf.h **** static inline void * wpabuf_mhead(struct wpabuf *buf)
 109:..\..\..\..\wpa_supplicant\src/utils/wpabuf.h **** {
 110:..\..\..\..\wpa_supplicant\src/utils/wpabuf.h **** 	return buf->buf;
 111:..\..\..\..\wpa_supplicant\src/utils/wpabuf.h **** }
 112:..\..\..\..\wpa_supplicant\src/utils/wpabuf.h **** 
 113:..\..\..\..\wpa_supplicant\src/utils/wpabuf.h **** static inline u8 * wpabuf_mhead_u8(struct wpabuf *buf)
 114:..\..\..\..\wpa_supplicant\src/utils/wpabuf.h **** {
 115:..\..\..\..\wpa_supplicant\src/utils/wpabuf.h **** 	return (u8 *) wpabuf_mhead(buf);
 116:..\..\..\..\wpa_supplicant\src/utils/wpabuf.h **** }
 117:..\..\..\..\wpa_supplicant\src/utils/wpabuf.h **** 
 118:..\..\..\..\wpa_supplicant\src/utils/wpabuf.h **** static inline void wpabuf_put_u8(struct wpabuf *buf, u8 data)
 119:..\..\..\..\wpa_supplicant\src/utils/wpabuf.h **** {
  79              		.loc 2 119 1 is_stmt 1
  80              		.cfi_startproc
  81              	.LVL7:
  82 0000 17030000 		call	t0,__riscv_save_1
  82      E7020300 
  83              		.cfi_offset 8, -8
  84              		.cfi_offset 1, -4
  85              		.cfi_def_cfa_offset 16
 120:..\..\..\..\wpa_supplicant\src/utils/wpabuf.h **** 	u8 *pos = (u8 *) wpabuf_put(buf, 1);
  86              		.loc 2 120 2
 119:..\..\..\..\wpa_supplicant\src/utils/wpabuf.h **** 	u8 *pos = (u8 *) wpabuf_put(buf, 1);
  87              		.loc 2 119 1 is_stmt 0
  88 0008 2E84     		mv	s0,a1
  89              		.loc 2 120 19
  90 000a 8545     		li	a1,1
  91              	.LVL8:
  92 000c 97000000 		call	wpabuf_put
  92      E7800000 
  93              	.LVL9:
 121:..\..\..\..\wpa_supplicant\src/utils/wpabuf.h **** 	*pos = data;
  94              		.loc 2 121 2 is_stmt 1
  95              		.loc 2 121 7 is_stmt 0
  96 0014 23008500 		sb	s0,0(a0)
 122:..\..\..\..\wpa_supplicant\src/utils/wpabuf.h **** }
  97              		.loc 2 122 1
  98 0018 17030000 		tail	__riscv_restore_1
  98      67000300 
  99              		.cfi_restore 8
 100              		.cfi_restore 1
 101              		.cfi_def_cfa_offset 0
 102              		.cfi_endproc
 103              	.LFE53:
 105              		.section	.text.hostapd_neighbor_get,"ax",@progbits
 106              		.align	1
 107              		.globl	hostapd_neighbor_get
 109              	hostapd_neighbor_get:
 110              	.LFB137:
  22:C:/Users/stapi/OneDrive/Desktop/GD32VW553/V1_MQTT_OK/GD32VW55X_Wifi_BLE_SDK/GD32VW55x_RELEASE_V1.0.2/MSDK/wpa_supplicant/src/ap\neighbor_db.c **** 	struct hostapd_neighbor_entry *nr;
 111              		.loc 1 22 1 is_stmt 1
 112              		.cfi_startproc
 113              	.LVL10:
 114 0000 17030000 		call	t0,__riscv_save_4
 114      E7020300 
 115              		.cfi_offset 19, -20
 116              		.cfi_offset 18, -16
 117              		.cfi_offset 9, -12
 118              		.cfi_offset 8, -8
 119              		.cfi_offset 1, -4
 120              		.cfi_def_cfa_offset 32
  23:C:/Users/stapi/OneDrive/Desktop/GD32VW553/V1_MQTT_OK/GD32VW55X_Wifi_BLE_SDK/GD32VW55x_RELEASE_V1.0.2/MSDK/wpa_supplicant/src/ap\neighbor_db.c **** 
 121              		.loc 1 23 2
  25:C:/Users/stapi/OneDrive/Desktop/GD32VW553/V1_MQTT_OK/GD32VW55X_Wifi_BLE_SDK/GD32VW55x_RELEASE_V1.0.2/MSDK/wpa_supplicant/src/ap\neighbor_db.c **** 			 list) {
 122              		.loc 1 25 2
 123 0008 8564     		li	s1,4096
 124 000a B3079500 		add	a5,a0,s1
 125 000e 03A40786 		lw	s0,-1952(a5)
 126              	.LVL11:
 127 0012 93840486 		addi	s1,s1,-1952
  22:C:/Users/stapi/OneDrive/Desktop/GD32VW553/V1_MQTT_OK/GD32VW55X_Wifi_BLE_SDK/GD32VW55x_RELEASE_V1.0.2/MSDK/wpa_supplicant/src/ap\neighbor_db.c **** 	struct hostapd_neighbor_entry *nr;
 128              		.loc 1 22 1 is_stmt 0
 129 0016 AE89     		mv	s3,a1
 130 0018 3289     		mv	s2,a2
  25:C:/Users/stapi/OneDrive/Desktop/GD32VW553/V1_MQTT_OK/GD32VW55X_Wifi_BLE_SDK/GD32VW55x_RELEASE_V1.0.2/MSDK/wpa_supplicant/src/ap\neighbor_db.c **** 			 list) {
 131              		.loc 1 25 2
 132 001a AA94     		add	s1,a0,s1
 133              	.LVL12:
 134              	.L6:
  25:C:/Users/stapi/OneDrive/Desktop/GD32VW553/V1_MQTT_OK/GD32VW55X_Wifi_BLE_SDK/GD32VW55x_RELEASE_V1.0.2/MSDK/wpa_supplicant/src/ap\neighbor_db.c **** 			 list) {
 135              		.loc 1 25 2 is_stmt 1 discriminator 1
 136 001c 63149400 		bne	s0,s1,.L10
  34:C:/Users/stapi/OneDrive/Desktop/GD32VW553/V1_MQTT_OK/GD32VW55X_Wifi_BLE_SDK/GD32VW55x_RELEASE_V1.0.2/MSDK/wpa_supplicant/src/ap\neighbor_db.c **** }
 137              		.loc 1 34 9 is_stmt 0
 138 0020 0144     		li	s0,0
 139              	.LVL13:
 140 0022 1DA8     		j	.L5
 141              	.LVL14:
 142              	.L10:
  27:C:/Users/stapi/OneDrive/Desktop/GD32VW553/V1_MQTT_OK/GD32VW55X_Wifi_BLE_SDK/GD32VW55x_RELEASE_V1.0.2/MSDK/wpa_supplicant/src/ap\neighbor_db.c **** 		    (!ssid ||
 143              		.loc 1 27 3 is_stmt 1
  27:C:/Users/stapi/OneDrive/Desktop/GD32VW553/V1_MQTT_OK/GD32VW55X_Wifi_BLE_SDK/GD32VW55x_RELEASE_V1.0.2/MSDK/wpa_supplicant/src/ap\neighbor_db.c **** 		    (!ssid ||
 144              		.loc 1 27 7 is_stmt 0
 145 0024 1946     		li	a2,6
 146 0026 93058400 		addi	a1,s0,8
 147 002a 4E85     		mv	a0,s3
 148 002c 97000000 		call	os_memcmp
 148      E7800000 
 149              	.LVL15:
  27:C:/Users/stapi/OneDrive/Desktop/GD32VW553/V1_MQTT_OK/GD32VW55X_Wifi_BLE_SDK/GD32VW55x_RELEASE_V1.0.2/MSDK/wpa_supplicant/src/ap\neighbor_db.c **** 		    (!ssid ||
 150              		.loc 1 27 6
 151 0034 19C1     		beq	a0,zero,.L7
 152              	.L9:
  25:C:/Users/stapi/OneDrive/Desktop/GD32VW553/V1_MQTT_OK/GD32VW55X_Wifi_BLE_SDK/GD32VW55x_RELEASE_V1.0.2/MSDK/wpa_supplicant/src/ap\neighbor_db.c **** 			 list) {
 153              		.loc 1 25 2 is_stmt 1
 154 0036 0040     		lw	s0,0(s0)
 155              	.LVL16:
 156 0038 D5B7     		j	.L6
 157              	.L7:
  27:C:/Users/stapi/OneDrive/Desktop/GD32VW553/V1_MQTT_OK/GD32VW55X_Wifi_BLE_SDK/GD32VW55x_RELEASE_V1.0.2/MSDK/wpa_supplicant/src/ap\neighbor_db.c **** 		    (!ssid ||
 158              		.loc 1 27 50 is_stmt 0 discriminator 1
 159 003a 630F0900 		beq	s2,zero,.L5
  29:C:/Users/stapi/OneDrive/Desktop/GD32VW553/V1_MQTT_OK/GD32VW55X_Wifi_BLE_SDK/GD32VW55x_RELEASE_V1.0.2/MSDK/wpa_supplicant/src/ap\neighbor_db.c **** 		      os_memcmp(ssid->ssid, nr->ssid.ssid,
 160              		.loc 1 29 13
 161 003e 03260902 		lw	a2,32(s2)
  28:C:/Users/stapi/OneDrive/Desktop/GD32VW553/V1_MQTT_OK/GD32VW55X_Wifi_BLE_SDK/GD32VW55x_RELEASE_V1.0.2/MSDK/wpa_supplicant/src/ap\neighbor_db.c **** 		     (ssid->ssid_len == nr->ssid.ssid_len &&
 162              		.loc 1 28 14
 163 0042 1C58     		lw	a5,48(s0)
 164 0044 E319F6FE 		bne	a2,a5,.L9
  30:C:/Users/stapi/OneDrive/Desktop/GD32VW553/V1_MQTT_OK/GD32VW55X_Wifi_BLE_SDK/GD32VW55x_RELEASE_V1.0.2/MSDK/wpa_supplicant/src/ap\neighbor_db.c **** 				ssid->ssid_len) == 0)))
 165              		.loc 1 30 9
 166 0048 93050401 		addi	a1,s0,16
 167 004c 4A85     		mv	a0,s2
 168 004e 97000000 		call	os_memcmp
 168      E7800000 
 169              	.LVL17:
  29:C:/Users/stapi/OneDrive/Desktop/GD32VW553/V1_MQTT_OK/GD32VW55X_Wifi_BLE_SDK/GD32VW55x_RELEASE_V1.0.2/MSDK/wpa_supplicant/src/ap\neighbor_db.c **** 		      os_memcmp(ssid->ssid, nr->ssid.ssid,
 170              		.loc 1 29 45
 171 0056 65F1     		bne	a0,zero,.L9
 172              	.LVL18:
 173              	.L5:
  35:C:/Users/stapi/OneDrive/Desktop/GD32VW553/V1_MQTT_OK/GD32VW55X_Wifi_BLE_SDK/GD32VW55x_RELEASE_V1.0.2/MSDK/wpa_supplicant/src/ap\neighbor_db.c **** 
 174              		.loc 1 35 1
 175 0058 2285     		mv	a0,s0
 176 005a 17030000 		tail	__riscv_restore_4
 176      67000300 
 177              		.cfi_restore 19
 178              		.cfi_restore 18
 179              		.cfi_restore 9
 180              		.cfi_restore 8
 181              		.cfi_restore 1
 182              		.cfi_def_cfa_offset 0
 183              		.cfi_endproc
 184              	.LFE137:
 186              		.section	.rodata.hostapd_neighbor_show.str1.4,"aMS",@progbits,1
 187              		.align	2
 188              	.LC0:
 189 0000 206E723D 		.string	" nr="
 189      00
 190 0005 000000   		.align	2
 191              	.LC1:
 192 0008 00       		.string	""
 193 0009 000000   		.align	2
 194              	.LC2:
 195 000c 206C6369 		.string	" lci="
 195      3D00
 196 0012 0000     		.align	2
 197              	.LC3:
 198 0014 20636976 		.string	" civic="
 198      69633D00 
 199              		.align	2
 200              	.LC4:
 201 001c 20737461 		.string	" stat"
 201      7400
 202 0022 0000     		.align	2
 203              	.LC5:
 204 0024 25303278 		.string	"%02x:%02x:%02x:%02x:%02x:%02x ssid=%s%s%s%s%s%s%s%s\n"
 204      3A253032 
 204      783A2530 
 204      32783A25 
 204      3032783A 
 205              		.section	.text.hostapd_neighbor_show,"ax",@progbits
 206              		.align	1
 207              		.globl	hostapd_neighbor_show
 209              	hostapd_neighbor_show:
 210              	.LFB138:
  39:C:/Users/stapi/OneDrive/Desktop/GD32VW553/V1_MQTT_OK/GD32VW55X_Wifi_BLE_SDK/GD32VW55x_RELEASE_V1.0.2/MSDK/wpa_supplicant/src/ap\neighbor_db.c **** 	struct hostapd_neighbor_entry *nr;
 211              		.loc 1 39 1 is_stmt 1
 212              		.cfi_startproc
 213              	.LVL19:
 214 0000 17030000 		call	t0,__riscv_save_12
 214      E7020300 
 215              		.cfi_offset 27, -52
 216              		.cfi_offset 26, -48
 217              		.cfi_offset 25, -44
 218              		.cfi_offset 24, -40
 219              		.cfi_offset 23, -36
 220              		.cfi_offset 22, -32
 221              		.cfi_offset 21, -28
 222              		.cfi_offset 20, -24
 223              		.cfi_offset 19, -20
 224              		.cfi_offset 18, -16
 225              		.cfi_offset 9, -12
 226              		.cfi_offset 8, -8
 227              		.cfi_offset 1, -4
 228              		.cfi_def_cfa_offset 64
  40:C:/Users/stapi/OneDrive/Desktop/GD32VW553/V1_MQTT_OK/GD32VW55X_Wifi_BLE_SDK/GD32VW55x_RELEASE_V1.0.2/MSDK/wpa_supplicant/src/ap\neighbor_db.c **** 	char *pos, *end;
 229              		.loc 1 40 2
  41:C:/Users/stapi/OneDrive/Desktop/GD32VW553/V1_MQTT_OK/GD32VW55X_Wifi_BLE_SDK/GD32VW55x_RELEASE_V1.0.2/MSDK/wpa_supplicant/src/ap\neighbor_db.c **** 
 230              		.loc 1 41 2
  43:C:/Users/stapi/OneDrive/Desktop/GD32VW553/V1_MQTT_OK/GD32VW55X_Wifi_BLE_SDK/GD32VW55x_RELEASE_V1.0.2/MSDK/wpa_supplicant/src/ap\neighbor_db.c **** 	end = buf + buflen;
 231              		.loc 1 43 2
 232              	.LVL20:
  44:C:/Users/stapi/OneDrive/Desktop/GD32VW553/V1_MQTT_OK/GD32VW55X_Wifi_BLE_SDK/GD32VW55x_RELEASE_V1.0.2/MSDK/wpa_supplicant/src/ap\neighbor_db.c **** 
 233              		.loc 1 44 2
  46:C:/Users/stapi/OneDrive/Desktop/GD32VW553/V1_MQTT_OK/GD32VW55X_Wifi_BLE_SDK/GD32VW55x_RELEASE_V1.0.2/MSDK/wpa_supplicant/src/ap\neighbor_db.c **** 			 list) {
 234              		.loc 1 46 2 is_stmt 0
 235 0008 8567     		li	a5,4096
 236 000a 3307F500 		add	a4,a0,a5
 237 000e 03240786 		lw	s0,-1952(a4)
 238 0012 93870786 		addi	a5,a5,-1952
 239              	.LBB23:
  76:C:/Users/stapi/OneDrive/Desktop/GD32VW553/V1_MQTT_OK/GD32VW55X_Wifi_BLE_SDK/GD32VW55x_RELEASE_V1.0.2/MSDK/wpa_supplicant/src/ap\neighbor_db.c **** 				  " ssid=%s%s%s%s%s%s%s%s\n",
 240              		.loc 1 76 9
 241 0016 370B0000 		lui	s6,%hi(.LC0)
 242 001a 37090000 		lui	s2,%hi(.LC1)
 243 001e B70B0000 		lui	s7,%hi(.LC2)
 244              	.LBE23:
  39:C:/Users/stapi/OneDrive/Desktop/GD32VW553/V1_MQTT_OK/GD32VW55X_Wifi_BLE_SDK/GD32VW55x_RELEASE_V1.0.2/MSDK/wpa_supplicant/src/ap\neighbor_db.c **** 	struct hostapd_neighbor_entry *nr;
 245              		.loc 1 39 1
 246 0022 13010197 		addi	sp,sp,-1680
 247              		.cfi_def_cfa_offset 1744
  39:C:/Users/stapi/OneDrive/Desktop/GD32VW553/V1_MQTT_OK/GD32VW55X_Wifi_BLE_SDK/GD32VW55x_RELEASE_V1.0.2/MSDK/wpa_supplicant/src/ap\neighbor_db.c **** 	struct hostapd_neighbor_entry *nr;
 248              		.loc 1 39 1
 249 0026 AE89     		mv	s3,a1
  44:C:/Users/stapi/OneDrive/Desktop/GD32VW553/V1_MQTT_OK/GD32VW55X_Wifi_BLE_SDK/GD32VW55x_RELEASE_V1.0.2/MSDK/wpa_supplicant/src/ap\neighbor_db.c **** 
 250              		.loc 1 44 6
 251 0028 B38AC500 		add	s5,a1,a2
 252              	.LVL21:
  46:C:/Users/stapi/OneDrive/Desktop/GD32VW553/V1_MQTT_OK/GD32VW55X_Wifi_BLE_SDK/GD32VW55x_RELEASE_V1.0.2/MSDK/wpa_supplicant/src/ap\neighbor_db.c **** 			 list) {
 253              		.loc 1 46 2 is_stmt 1
  43:C:/Users/stapi/OneDrive/Desktop/GD32VW553/V1_MQTT_OK/GD32VW55X_Wifi_BLE_SDK/GD32VW55x_RELEASE_V1.0.2/MSDK/wpa_supplicant/src/ap\neighbor_db.c **** 	end = buf + buflen;
 254              		.loc 1 43 6 is_stmt 0
 255 002c 2E8A     		mv	s4,a1
  46:C:/Users/stapi/OneDrive/Desktop/GD32VW553/V1_MQTT_OK/GD32VW55X_Wifi_BLE_SDK/GD32VW55x_RELEASE_V1.0.2/MSDK/wpa_supplicant/src/ap\neighbor_db.c **** 			 list) {
 256              		.loc 1 46 2
 257 002e B304F500 		add	s1,a0,a5
 258              	.LBB38:
  76:C:/Users/stapi/OneDrive/Desktop/GD32VW553/V1_MQTT_OK/GD32VW55X_Wifi_BLE_SDK/GD32VW55x_RELEASE_V1.0.2/MSDK/wpa_supplicant/src/ap\neighbor_db.c **** 				  " ssid=%s%s%s%s%s%s%s%s\n",
 259              		.loc 1 76 9
 260 0032 130B0B00 		addi	s6,s6,%lo(.LC0)
 261 0036 13090900 		addi	s2,s2,%lo(.LC1)
 262 003a 938B0B00 		addi	s7,s7,%lo(.LC2)
 263 003e B70C0000 		lui	s9,%hi(.LC3)
 264              	.LVL22:
 265              	.L19:
 266              	.LBE38:
  46:C:/Users/stapi/OneDrive/Desktop/GD32VW553/V1_MQTT_OK/GD32VW55X_Wifi_BLE_SDK/GD32VW55x_RELEASE_V1.0.2/MSDK/wpa_supplicant/src/ap\neighbor_db.c **** 			 list) {
 267              		.loc 1 46 2 is_stmt 1 discriminator 1
 268 0042 631A9400 		bne	s0,s1,.L29
 269              	.L28:
  88:C:/Users/stapi/OneDrive/Desktop/GD32VW553/V1_MQTT_OK/GD32VW55X_Wifi_BLE_SDK/GD32VW55x_RELEASE_V1.0.2/MSDK/wpa_supplicant/src/ap\neighbor_db.c **** }
 270              		.loc 1 88 2
  89:C:/Users/stapi/OneDrive/Desktop/GD32VW553/V1_MQTT_OK/GD32VW55X_Wifi_BLE_SDK/GD32VW55x_RELEASE_V1.0.2/MSDK/wpa_supplicant/src/ap\neighbor_db.c **** 
 271              		.loc 1 89 1 is_stmt 0
 272 0046 33053A41 		sub	a0,s4,s3
 273 004a 13010169 		addi	sp,sp,1680
 274              		.cfi_remember_state
 275              		.cfi_def_cfa_offset 0
 276 004e 17030000 		tail	__riscv_restore_12
 276      67000300 
 277              		.cfi_restore 27
 278              		.cfi_restore 26
 279              		.cfi_restore 25
 280              		.cfi_restore 24
 281              		.cfi_restore 23
 282              		.cfi_restore 22
 283              		.cfi_restore 21
 284              		.cfi_restore 20
 285              		.cfi_restore 19
 286              		.cfi_restore 18
 287              		.cfi_restore 9
 288              		.cfi_restore 8
 289              		.cfi_restore 1
 290              		.cfi_def_cfa_offset -64
 291              	.L29:
 292              		.cfi_restore_state
 293              	.LBB39:
  48:C:/Users/stapi/OneDrive/Desktop/GD32VW553/V1_MQTT_OK/GD32VW55X_Wifi_BLE_SDK/GD32VW55x_RELEASE_V1.0.2/MSDK/wpa_supplicant/src/ap\neighbor_db.c **** 		char nrie[2 * 255 + 1];
 294              		.loc 1 48 3 is_stmt 1
  49:C:/Users/stapi/OneDrive/Desktop/GD32VW553/V1_MQTT_OK/GD32VW55X_Wifi_BLE_SDK/GD32VW55x_RELEASE_V1.0.2/MSDK/wpa_supplicant/src/ap\neighbor_db.c **** 		char lci[2 * 255 + 1];
 295              		.loc 1 49 3
  50:C:/Users/stapi/OneDrive/Desktop/GD32VW553/V1_MQTT_OK/GD32VW55X_Wifi_BLE_SDK/GD32VW55x_RELEASE_V1.0.2/MSDK/wpa_supplicant/src/ap\neighbor_db.c **** 		char civic[2 * 255 + 1];
 296              		.loc 1 50 3
  51:C:/Users/stapi/OneDrive/Desktop/GD32VW553/V1_MQTT_OK/GD32VW55X_Wifi_BLE_SDK/GD32VW55x_RELEASE_V1.0.2/MSDK/wpa_supplicant/src/ap\neighbor_db.c **** 		char ssid[SSID_MAX_LEN * 2 + 1];
 297              		.loc 1 51 3
  52:C:/Users/stapi/OneDrive/Desktop/GD32VW553/V1_MQTT_OK/GD32VW55X_Wifi_BLE_SDK/GD32VW55x_RELEASE_V1.0.2/MSDK/wpa_supplicant/src/ap\neighbor_db.c **** 
 298              		.loc 1 52 3
  54:C:/Users/stapi/OneDrive/Desktop/GD32VW553/V1_MQTT_OK/GD32VW55X_Wifi_BLE_SDK/GD32VW55x_RELEASE_V1.0.2/MSDK/wpa_supplicant/src/ap\neighbor_db.c **** 		wpa_snprintf_hex(ssid, sizeof(ssid), nr->ssid.ssid,
 299              		.loc 1 54 3
  55:C:/Users/stapi/OneDrive/Desktop/GD32VW553/V1_MQTT_OK/GD32VW55X_Wifi_BLE_SDK/GD32VW55x_RELEASE_V1.0.2/MSDK/wpa_supplicant/src/ap\neighbor_db.c **** 				 nr->ssid.ssid_len);
 300              		.loc 1 55 3 is_stmt 0
 301 0056 1458     		lw	a3,48(s0)
 302 0058 130CC104 		addi	s8,sp,76
 303 005c 13060401 		addi	a2,s0,16
 304 0060 93051004 		li	a1,65
 305 0064 6285     		mv	a0,s8
  54:C:/Users/stapi/OneDrive/Desktop/GD32VW553/V1_MQTT_OK/GD32VW55X_Wifi_BLE_SDK/GD32VW55x_RELEASE_V1.0.2/MSDK/wpa_supplicant/src/ap\neighbor_db.c **** 		wpa_snprintf_hex(ssid, sizeof(ssid), nr->ssid.ssid,
 306              		.loc 1 54 11
 307 0066 23060104 		sb	zero,76(sp)
  55:C:/Users/stapi/OneDrive/Desktop/GD32VW553/V1_MQTT_OK/GD32VW55X_Wifi_BLE_SDK/GD32VW55x_RELEASE_V1.0.2/MSDK/wpa_supplicant/src/ap\neighbor_db.c **** 				 nr->ssid.ssid_len);
 308              		.loc 1 55 3 is_stmt 1
 309 006a 97000000 		call	wpa_snprintf_hex
 309      E7800000 
 310              	.LVL23:
  58:C:/Users/stapi/OneDrive/Desktop/GD32VW553/V1_MQTT_OK/GD32VW55X_Wifi_BLE_SDK/GD32VW55x_RELEASE_V1.0.2/MSDK/wpa_supplicant/src/ap\neighbor_db.c **** 		if (nr->nr)
 311              		.loc 1 58 3
  59:C:/Users/stapi/OneDrive/Desktop/GD32VW553/V1_MQTT_OK/GD32VW55X_Wifi_BLE_SDK/GD32VW55x_RELEASE_V1.0.2/MSDK/wpa_supplicant/src/ap\neighbor_db.c **** 			wpa_snprintf_hex(nrie, sizeof(nrie),
 312              		.loc 1 59 9 is_stmt 0
 313 0072 5C58     		lw	a5,52(s0)
  58:C:/Users/stapi/OneDrive/Desktop/GD32VW553/V1_MQTT_OK/GD32VW55X_Wifi_BLE_SDK/GD32VW55x_RELEASE_V1.0.2/MSDK/wpa_supplicant/src/ap\neighbor_db.c **** 		if (nr->nr)
 314              		.loc 1 58 11
 315 0074 23080108 		sb	zero,144(sp)
  59:C:/Users/stapi/OneDrive/Desktop/GD32VW553/V1_MQTT_OK/GD32VW55X_Wifi_BLE_SDK/GD32VW55x_RELEASE_V1.0.2/MSDK/wpa_supplicant/src/ap\neighbor_db.c **** 			wpa_snprintf_hex(nrie, sizeof(nrie),
 316              		.loc 1 59 3 is_stmt 1
 317 0078 130D0109 		addi	s10,sp,144
  59:C:/Users/stapi/OneDrive/Desktop/GD32VW553/V1_MQTT_OK/GD32VW55X_Wifi_BLE_SDK/GD32VW55x_RELEASE_V1.0.2/MSDK/wpa_supplicant/src/ap\neighbor_db.c **** 			wpa_snprintf_hex(nrie, sizeof(nrie),
 318              		.loc 1 59 6 is_stmt 0
 319 007c 91CB     		beq	a5,zero,.L20
  60:C:/Users/stapi/OneDrive/Desktop/GD32VW553/V1_MQTT_OK/GD32VW55X_Wifi_BLE_SDK/GD32VW55x_RELEASE_V1.0.2/MSDK/wpa_supplicant/src/ap\neighbor_db.c **** 					 wpabuf_head(nr->nr),
 320              		.loc 1 60 4 is_stmt 1
 321              	.LVL24:
 322              	.LBB24:
 323              	.LBB25:
  95:..\..\..\..\wpa_supplicant\src/utils/wpabuf.h **** }
 324              		.loc 2 95 2
 325              	.LBE25:
 326              	.LBE24:
 327              	.LBB26:
 328              	.LBB27:
  60:..\..\..\..\wpa_supplicant\src/utils/wpabuf.h **** }
 329              		.loc 2 60 2
 330              	.LBE27:
 331              	.LBE26:
  60:C:/Users/stapi/OneDrive/Desktop/GD32VW553/V1_MQTT_OK/GD32VW55X_Wifi_BLE_SDK/GD32VW55x_RELEASE_V1.0.2/MSDK/wpa_supplicant/src/ap\neighbor_db.c **** 					 wpabuf_head(nr->nr),
 332              		.loc 1 60 4 is_stmt 0
 333 007e D443     		lw	a3,4(a5)
 334 0080 9047     		lw	a2,8(a5)
 335 0082 9305F01F 		li	a1,511
 336 0086 6A85     		mv	a0,s10
 337 0088 97000000 		call	wpa_snprintf_hex
 337      E7800000 
 338              	.LVL25:
 339              	.L20:
  64:C:/Users/stapi/OneDrive/Desktop/GD32VW553/V1_MQTT_OK/GD32VW55X_Wifi_BLE_SDK/GD32VW55x_RELEASE_V1.0.2/MSDK/wpa_supplicant/src/ap\neighbor_db.c **** 		if (nr->lci)
 340              		.loc 1 64 3 is_stmt 1
  65:C:/Users/stapi/OneDrive/Desktop/GD32VW553/V1_MQTT_OK/GD32VW55X_Wifi_BLE_SDK/GD32VW55x_RELEASE_V1.0.2/MSDK/wpa_supplicant/src/ap\neighbor_db.c **** 			wpa_snprintf_hex(lci, sizeof(lci),
 341              		.loc 1 65 9 is_stmt 0
 342 0090 1C5C     		lw	a5,56(s0)
  64:C:/Users/stapi/OneDrive/Desktop/GD32VW553/V1_MQTT_OK/GD32VW55X_Wifi_BLE_SDK/GD32VW55x_RELEASE_V1.0.2/MSDK/wpa_supplicant/src/ap\neighbor_db.c **** 		if (nr->lci)
 343              		.loc 1 64 10
 344 0092 23080128 		sb	zero,656(sp)
  65:C:/Users/stapi/OneDrive/Desktop/GD32VW553/V1_MQTT_OK/GD32VW55X_Wifi_BLE_SDK/GD32VW55x_RELEASE_V1.0.2/MSDK/wpa_supplicant/src/ap\neighbor_db.c **** 			wpa_snprintf_hex(lci, sizeof(lci),
 345              		.loc 1 65 3 is_stmt 1
 346 0096 930D0129 		addi	s11,sp,656
  65:C:/Users/stapi/OneDrive/Desktop/GD32VW553/V1_MQTT_OK/GD32VW55X_Wifi_BLE_SDK/GD32VW55x_RELEASE_V1.0.2/MSDK/wpa_supplicant/src/ap\neighbor_db.c **** 			wpa_snprintf_hex(lci, sizeof(lci),
 347              		.loc 1 65 6 is_stmt 0
 348 009a 91CB     		beq	a5,zero,.L21
  66:C:/Users/stapi/OneDrive/Desktop/GD32VW553/V1_MQTT_OK/GD32VW55X_Wifi_BLE_SDK/GD32VW55x_RELEASE_V1.0.2/MSDK/wpa_supplicant/src/ap\neighbor_db.c **** 					 wpabuf_head(nr->lci),
 349              		.loc 1 66 4 is_stmt 1
 350              	.LVL26:
 351              	.LBB28:
 352              	.LBB29:
  95:..\..\..\..\wpa_supplicant\src/utils/wpabuf.h **** }
 353              		.loc 2 95 2
 354              	.LBE29:
 355              	.LBE28:
 356              	.LBB30:
 357              	.LBB31:
  60:..\..\..\..\wpa_supplicant\src/utils/wpabuf.h **** }
 358              		.loc 2 60 2
 359              	.LBE31:
 360              	.LBE30:
  66:C:/Users/stapi/OneDrive/Desktop/GD32VW553/V1_MQTT_OK/GD32VW55X_Wifi_BLE_SDK/GD32VW55x_RELEASE_V1.0.2/MSDK/wpa_supplicant/src/ap\neighbor_db.c **** 					 wpabuf_head(nr->lci),
 361              		.loc 1 66 4 is_stmt 0
 362 009c D443     		lw	a3,4(a5)
 363 009e 9047     		lw	a2,8(a5)
 364 00a0 9305F01F 		li	a1,511
 365 00a4 6E85     		mv	a0,s11
 366 00a6 97000000 		call	wpa_snprintf_hex
 366      E7800000 
 367              	.LVL27:
 368              	.L21:
  70:C:/Users/stapi/OneDrive/Desktop/GD32VW553/V1_MQTT_OK/GD32VW55X_Wifi_BLE_SDK/GD32VW55x_RELEASE_V1.0.2/MSDK/wpa_supplicant/src/ap\neighbor_db.c **** 		if (nr->civic)
 369              		.loc 1 70 3 is_stmt 1
  71:C:/Users/stapi/OneDrive/Desktop/GD32VW553/V1_MQTT_OK/GD32VW55X_Wifi_BLE_SDK/GD32VW55x_RELEASE_V1.0.2/MSDK/wpa_supplicant/src/ap\neighbor_db.c **** 			wpa_snprintf_hex(civic, sizeof(civic),
 370              		.loc 1 71 9 is_stmt 0
 371 00ae 5C5C     		lw	a5,60(s0)
  70:C:/Users/stapi/OneDrive/Desktop/GD32VW553/V1_MQTT_OK/GD32VW55X_Wifi_BLE_SDK/GD32VW55x_RELEASE_V1.0.2/MSDK/wpa_supplicant/src/ap\neighbor_db.c **** 		if (nr->civic)
 372              		.loc 1 70 12
 373 00b0 23080148 		sb	zero,1168(sp)
  71:C:/Users/stapi/OneDrive/Desktop/GD32VW553/V1_MQTT_OK/GD32VW55X_Wifi_BLE_SDK/GD32VW55x_RELEASE_V1.0.2/MSDK/wpa_supplicant/src/ap\neighbor_db.c **** 			wpa_snprintf_hex(civic, sizeof(civic),
 374              		.loc 1 71 3 is_stmt 1
 375 00b4 930E0149 		addi	t4,sp,1168
  71:C:/Users/stapi/OneDrive/Desktop/GD32VW553/V1_MQTT_OK/GD32VW55X_Wifi_BLE_SDK/GD32VW55x_RELEASE_V1.0.2/MSDK/wpa_supplicant/src/ap\neighbor_db.c **** 			wpa_snprintf_hex(civic, sizeof(civic),
 376              		.loc 1 71 6 is_stmt 0
 377 00b8 81CF     		beq	a5,zero,.L22
  72:C:/Users/stapi/OneDrive/Desktop/GD32VW553/V1_MQTT_OK/GD32VW55X_Wifi_BLE_SDK/GD32VW55x_RELEASE_V1.0.2/MSDK/wpa_supplicant/src/ap\neighbor_db.c **** 					 wpabuf_head(nr->civic),
 378              		.loc 1 72 4 is_stmt 1
 379              	.LVL28:
 380              	.LBB32:
 381              	.LBB33:
  95:..\..\..\..\wpa_supplicant\src/utils/wpabuf.h **** }
 382              		.loc 2 95 2
 383              	.LBE33:
 384              	.LBE32:
 385              	.LBB34:
 386              	.LBB35:
  60:..\..\..\..\wpa_supplicant\src/utils/wpabuf.h **** }
 387              		.loc 2 60 2
 388              	.LBE35:
 389              	.LBE34:
  72:C:/Users/stapi/OneDrive/Desktop/GD32VW553/V1_MQTT_OK/GD32VW55X_Wifi_BLE_SDK/GD32VW55x_RELEASE_V1.0.2/MSDK/wpa_supplicant/src/ap\neighbor_db.c **** 					 wpabuf_head(nr->civic),
 390              		.loc 1 72 4 is_stmt 0
 391 00ba D443     		lw	a3,4(a5)
 392 00bc 9047     		lw	a2,8(a5)
 393 00be 7685     		mv	a0,t4
 394 00c0 9305F01F 		li	a1,511
 395 00c4 97000000 		call	wpa_snprintf_hex
 395      E7800000 
 396              	.LVL29:
 397 00cc 930E0149 		addi	t4,sp,1168
 398              	.L22:
  76:C:/Users/stapi/OneDrive/Desktop/GD32VW553/V1_MQTT_OK/GD32VW55X_Wifi_BLE_SDK/GD32VW55x_RELEASE_V1.0.2/MSDK/wpa_supplicant/src/ap\neighbor_db.c **** 				  " ssid=%s%s%s%s%s%s%s%s\n",
 399              		.loc 1 76 3 is_stmt 1
  76:C:/Users/stapi/OneDrive/Desktop/GD32VW553/V1_MQTT_OK/GD32VW55X_Wifi_BLE_SDK/GD32VW55x_RELEASE_V1.0.2/MSDK/wpa_supplicant/src/ap\neighbor_db.c **** 				  " ssid=%s%s%s%s%s%s%s%s\n",
 400              		.loc 1 76 9 is_stmt 0
 401 00d0 5058     		lw	a2,52(s0)
 402 00d2 83468400 		lbu	a3,8(s0)
 403 00d6 03479400 		lbu	a4,9(s0)
 404 00da 8347A400 		lbu	a5,10(s0)
 405 00de 0348B400 		lbu	a6,11(s0)
 406 00e2 8348C400 		lbu	a7,12(s0)
 407 00e6 034FD400 		lbu	t5,13(s0)
  76:C:/Users/stapi/OneDrive/Desktop/GD32VW553/V1_MQTT_OK/GD32VW55X_Wifi_BLE_SDK/GD32VW55x_RELEASE_V1.0.2/MSDK/wpa_supplicant/src/ap\neighbor_db.c **** 				  " ssid=%s%s%s%s%s%s%s%s\n",
 408              		.loc 1 76 30
 409 00ea B3854A41 		sub	a1,s5,s4
  76:C:/Users/stapi/OneDrive/Desktop/GD32VW553/V1_MQTT_OK/GD32VW55X_Wifi_BLE_SDK/GD32VW55x_RELEASE_V1.0.2/MSDK/wpa_supplicant/src/ap\neighbor_db.c **** 				  " ssid=%s%s%s%s%s%s%s%s\n",
 410              		.loc 1 76 9
 411 00ee 5A85     		mv	a0,s6
 412 00f0 11E2     		bne	a2,zero,.L23
 413 00f2 4A85     		mv	a0,s2
 414              	.L23:
  76:C:/Users/stapi/OneDrive/Desktop/GD32VW553/V1_MQTT_OK/GD32VW55X_Wifi_BLE_SDK/GD32VW55x_RELEASE_V1.0.2/MSDK/wpa_supplicant/src/ap\neighbor_db.c **** 				  " ssid=%s%s%s%s%s%s%s%s\n",
 415              		.loc 1 76 9 discriminator 4
 416 00f4 105C     		lw	a2,56(s0)
 417 00f6 5E83     		mv	t1,s7
 418 00f8 11E2     		bne	a2,zero,.L24
  76:C:/Users/stapi/OneDrive/Desktop/GD32VW553/V1_MQTT_OK/GD32VW55X_Wifi_BLE_SDK/GD32VW55x_RELEASE_V1.0.2/MSDK/wpa_supplicant/src/ap\neighbor_db.c **** 				  " ssid=%s%s%s%s%s%s%s%s\n",
 419              		.loc 1 76 9
 420 00fa 4A83     		mv	t1,s2
 421              	.L24:
  76:C:/Users/stapi/OneDrive/Desktop/GD32VW553/V1_MQTT_OK/GD32VW55X_Wifi_BLE_SDK/GD32VW55x_RELEASE_V1.0.2/MSDK/wpa_supplicant/src/ap\neighbor_db.c **** 				  " ssid=%s%s%s%s%s%s%s%s\n",
 422              		.loc 1 76 9 discriminator 8
 423 00fc 505C     		lw	a2,60(s0)
 424 00fe 138E0C00 		addi	t3,s9,%lo(.LC3)
 425 0102 11E2     		bne	a2,zero,.L25
  76:C:/Users/stapi/OneDrive/Desktop/GD32VW553/V1_MQTT_OK/GD32VW55X_Wifi_BLE_SDK/GD32VW55x_RELEASE_V1.0.2/MSDK/wpa_supplicant/src/ap\neighbor_db.c **** 				  " ssid=%s%s%s%s%s%s%s%s\n",
 426              		.loc 1 76 9
 427 0104 4A8E     		mv	t3,s2
 428              	.L25:
  76:C:/Users/stapi/OneDrive/Desktop/GD32VW553/V1_MQTT_OK/GD32VW55X_Wifi_BLE_SDK/GD32VW55x_RELEASE_V1.0.2/MSDK/wpa_supplicant/src/ap\neighbor_db.c **** 				  " ssid=%s%s%s%s%s%s%s%s\n",
 429              		.loc 1 76 9 discriminator 12
 430 0106 3044     		lw	a2,72(s0)
 431 0108 0DEE     		bne	a2,zero,.L33
  76:C:/Users/stapi/OneDrive/Desktop/GD32VW553/V1_MQTT_OK/GD32VW55X_Wifi_BLE_SDK/GD32VW55x_RELEASE_V1.0.2/MSDK/wpa_supplicant/src/ap\neighbor_db.c **** 				  " ssid=%s%s%s%s%s%s%s%s\n",
 432              		.loc 1 76 9
 433 010a 4A86     		mv	a2,s2
 434              	.L26:
  76:C:/Users/stapi/OneDrive/Desktop/GD32VW553/V1_MQTT_OK/GD32VW55X_Wifi_BLE_SDK/GD32VW55x_RELEASE_V1.0.2/MSDK/wpa_supplicant/src/ap\neighbor_db.c **** 				  " ssid=%s%s%s%s%s%s%s%s\n",
 435              		.loc 1 76 9 discriminator 16
 436 010c 32D0     		sw	a2,32(sp)
 437 010e 37060000 		lui	a2,%hi(.LC5)
 438 0112 2AC4     		sw	a0,8(sp)
 439 0114 76CE     		sw	t4,28(sp)
 440 0116 72CC     		sw	t3,24(sp)
 441 0118 6ECA     		sw	s11,20(sp)
 442 011a 1AC8     		sw	t1,16(sp)
 443 011c 6AC6     		sw	s10,12(sp)
 444 011e 62C2     		sw	s8,4(sp)
 445 0120 7AC0     		sw	t5,0(sp)
 446 0122 13060600 		addi	a2,a2,%lo(.LC5)
 447 0126 5285     		mv	a0,s4
 448 0128 2EDE     		sw	a1,60(sp)
 449 012a 97000000 		call	os_snprintf
 449      E7800000 
 450              	.LVL30:
  83:C:/Users/stapi/OneDrive/Desktop/GD32VW553/V1_MQTT_OK/GD32VW55X_Wifi_BLE_SDK/GD32VW55x_RELEASE_V1.0.2/MSDK/wpa_supplicant/src/ap\neighbor_db.c **** 			break;
 451              		.loc 1 83 3 is_stmt 1 discriminator 16
 452              	.LBB36:
 453              	.LBB37:
 454              		.file 3 "..\\..\\..\\..\\wpa_supplicant\\src/utils/os.h"
   1:..\..\..\..\wpa_supplicant\src/utils/os.h **** /*
   2:..\..\..\..\wpa_supplicant\src/utils/os.h ****  * OS specific functions
   3:..\..\..\..\wpa_supplicant\src/utils/os.h ****  * Copyright (c) 2005-2009, Jouni Malinen <j@w1.fi>
   4:..\..\..\..\wpa_supplicant\src/utils/os.h ****  *
   5:..\..\..\..\wpa_supplicant\src/utils/os.h ****  * This software may be distributed under the terms of the BSD license.
   6:..\..\..\..\wpa_supplicant\src/utils/os.h ****  * See README for more details.
   7:..\..\..\..\wpa_supplicant\src/utils/os.h ****  */
   8:..\..\..\..\wpa_supplicant\src/utils/os.h **** 
   9:..\..\..\..\wpa_supplicant\src/utils/os.h **** #ifndef OS_H
  10:..\..\..\..\wpa_supplicant\src/utils/os.h **** #define OS_H
  11:..\..\..\..\wpa_supplicant\src/utils/os.h **** 
  12:..\..\..\..\wpa_supplicant\src/utils/os.h **** typedef long os_time_t;
  13:..\..\..\..\wpa_supplicant\src/utils/os.h **** 
  14:..\..\..\..\wpa_supplicant\src/utils/os.h **** /**
  15:..\..\..\..\wpa_supplicant\src/utils/os.h ****  * os_sleep - Sleep (sec, usec)
  16:..\..\..\..\wpa_supplicant\src/utils/os.h ****  * @sec: Number of seconds to sleep
  17:..\..\..\..\wpa_supplicant\src/utils/os.h ****  * @usec: Number of microseconds to sleep
  18:..\..\..\..\wpa_supplicant\src/utils/os.h ****  */
  19:..\..\..\..\wpa_supplicant\src/utils/os.h **** void os_sleep(os_time_t sec, os_time_t usec);
  20:..\..\..\..\wpa_supplicant\src/utils/os.h **** 
  21:..\..\..\..\wpa_supplicant\src/utils/os.h **** struct os_time {
  22:..\..\..\..\wpa_supplicant\src/utils/os.h **** 	os_time_t sec;
  23:..\..\..\..\wpa_supplicant\src/utils/os.h **** 	os_time_t usec;
  24:..\..\..\..\wpa_supplicant\src/utils/os.h **** };
  25:..\..\..\..\wpa_supplicant\src/utils/os.h **** 
  26:..\..\..\..\wpa_supplicant\src/utils/os.h **** struct os_reltime {
  27:..\..\..\..\wpa_supplicant\src/utils/os.h **** 	os_time_t sec;
  28:..\..\..\..\wpa_supplicant\src/utils/os.h **** 	os_time_t usec;
  29:..\..\..\..\wpa_supplicant\src/utils/os.h **** };
  30:..\..\..\..\wpa_supplicant\src/utils/os.h **** 
  31:..\..\..\..\wpa_supplicant\src/utils/os.h **** /**
  32:..\..\..\..\wpa_supplicant\src/utils/os.h ****  * os_get_time - Get current time (sec, usec)
  33:..\..\..\..\wpa_supplicant\src/utils/os.h ****  * @t: Pointer to buffer for the time
  34:..\..\..\..\wpa_supplicant\src/utils/os.h ****  * Returns: 0 on success, -1 on failure
  35:..\..\..\..\wpa_supplicant\src/utils/os.h ****  */
  36:..\..\..\..\wpa_supplicant\src/utils/os.h **** int os_get_time(struct os_time *t);
  37:..\..\..\..\wpa_supplicant\src/utils/os.h **** 
  38:..\..\..\..\wpa_supplicant\src/utils/os.h **** /**
  39:..\..\..\..\wpa_supplicant\src/utils/os.h ****  * os_get_reltime - Get relative time (sec, usec)
  40:..\..\..\..\wpa_supplicant\src/utils/os.h ****  * @t: Pointer to buffer for the time
  41:..\..\..\..\wpa_supplicant\src/utils/os.h ****  * Returns: 0 on success, -1 on failure
  42:..\..\..\..\wpa_supplicant\src/utils/os.h ****  */
  43:..\..\..\..\wpa_supplicant\src/utils/os.h **** int os_get_reltime(struct os_reltime *t);
  44:..\..\..\..\wpa_supplicant\src/utils/os.h **** 
  45:..\..\..\..\wpa_supplicant\src/utils/os.h **** 
  46:..\..\..\..\wpa_supplicant\src/utils/os.h **** /* Helpers for handling struct os_time */
  47:..\..\..\..\wpa_supplicant\src/utils/os.h **** 
  48:..\..\..\..\wpa_supplicant\src/utils/os.h **** static inline int os_time_before(struct os_time *a, struct os_time *b)
  49:..\..\..\..\wpa_supplicant\src/utils/os.h **** {
  50:..\..\..\..\wpa_supplicant\src/utils/os.h **** 	return (a->sec < b->sec) ||
  51:..\..\..\..\wpa_supplicant\src/utils/os.h **** 	       (a->sec == b->sec && a->usec < b->usec);
  52:..\..\..\..\wpa_supplicant\src/utils/os.h **** }
  53:..\..\..\..\wpa_supplicant\src/utils/os.h **** 
  54:..\..\..\..\wpa_supplicant\src/utils/os.h **** 
  55:..\..\..\..\wpa_supplicant\src/utils/os.h **** static inline void os_time_sub(struct os_time *a, struct os_time *b,
  56:..\..\..\..\wpa_supplicant\src/utils/os.h **** 			       struct os_time *res)
  57:..\..\..\..\wpa_supplicant\src/utils/os.h **** {
  58:..\..\..\..\wpa_supplicant\src/utils/os.h **** 	res->sec = a->sec - b->sec;
  59:..\..\..\..\wpa_supplicant\src/utils/os.h **** 	res->usec = a->usec - b->usec;
  60:..\..\..\..\wpa_supplicant\src/utils/os.h **** 	if (res->usec < 0) {
  61:..\..\..\..\wpa_supplicant\src/utils/os.h **** 		res->sec--;
  62:..\..\..\..\wpa_supplicant\src/utils/os.h **** 		res->usec += 1000000;
  63:..\..\..\..\wpa_supplicant\src/utils/os.h **** 	}
  64:..\..\..\..\wpa_supplicant\src/utils/os.h **** }
  65:..\..\..\..\wpa_supplicant\src/utils/os.h **** 
  66:..\..\..\..\wpa_supplicant\src/utils/os.h **** 
  67:..\..\..\..\wpa_supplicant\src/utils/os.h **** /* Helpers for handling struct os_reltime */
  68:..\..\..\..\wpa_supplicant\src/utils/os.h **** 
  69:..\..\..\..\wpa_supplicant\src/utils/os.h **** static inline int os_reltime_before(struct os_reltime *a,
  70:..\..\..\..\wpa_supplicant\src/utils/os.h **** 				    struct os_reltime *b)
  71:..\..\..\..\wpa_supplicant\src/utils/os.h **** {
  72:..\..\..\..\wpa_supplicant\src/utils/os.h **** 	return (a->sec < b->sec) ||
  73:..\..\..\..\wpa_supplicant\src/utils/os.h **** 	       (a->sec == b->sec && a->usec < b->usec);
  74:..\..\..\..\wpa_supplicant\src/utils/os.h **** }
  75:..\..\..\..\wpa_supplicant\src/utils/os.h **** 
  76:..\..\..\..\wpa_supplicant\src/utils/os.h **** 
  77:..\..\..\..\wpa_supplicant\src/utils/os.h **** static inline void os_reltime_sub(struct os_reltime *a, struct os_reltime *b,
  78:..\..\..\..\wpa_supplicant\src/utils/os.h **** 				  struct os_reltime *res)
  79:..\..\..\..\wpa_supplicant\src/utils/os.h **** {
  80:..\..\..\..\wpa_supplicant\src/utils/os.h **** 	res->sec = a->sec - b->sec;
  81:..\..\..\..\wpa_supplicant\src/utils/os.h **** 	res->usec = a->usec - b->usec;
  82:..\..\..\..\wpa_supplicant\src/utils/os.h **** 	if (res->usec < 0) {
  83:..\..\..\..\wpa_supplicant\src/utils/os.h **** 		res->sec--;
  84:..\..\..\..\wpa_supplicant\src/utils/os.h **** 		res->usec += 1000000;
  85:..\..\..\..\wpa_supplicant\src/utils/os.h **** 	}
  86:..\..\..\..\wpa_supplicant\src/utils/os.h **** }
  87:..\..\..\..\wpa_supplicant\src/utils/os.h **** 
  88:..\..\..\..\wpa_supplicant\src/utils/os.h **** 
  89:..\..\..\..\wpa_supplicant\src/utils/os.h **** static inline void os_reltime_age(struct os_reltime *start,
  90:..\..\..\..\wpa_supplicant\src/utils/os.h **** 				  struct os_reltime *age)
  91:..\..\..\..\wpa_supplicant\src/utils/os.h **** {
  92:..\..\..\..\wpa_supplicant\src/utils/os.h **** 	struct os_reltime now;
  93:..\..\..\..\wpa_supplicant\src/utils/os.h **** 
  94:..\..\..\..\wpa_supplicant\src/utils/os.h **** 	os_get_reltime(&now);
  95:..\..\..\..\wpa_supplicant\src/utils/os.h **** 	os_reltime_sub(&now, start, age);
  96:..\..\..\..\wpa_supplicant\src/utils/os.h **** }
  97:..\..\..\..\wpa_supplicant\src/utils/os.h **** 
  98:..\..\..\..\wpa_supplicant\src/utils/os.h **** 
  99:..\..\..\..\wpa_supplicant\src/utils/os.h **** static inline int os_reltime_expired(struct os_reltime *now,
 100:..\..\..\..\wpa_supplicant\src/utils/os.h **** 				     struct os_reltime *ts,
 101:..\..\..\..\wpa_supplicant\src/utils/os.h **** 				     os_time_t timeout_secs)
 102:..\..\..\..\wpa_supplicant\src/utils/os.h **** {
 103:..\..\..\..\wpa_supplicant\src/utils/os.h **** 	struct os_reltime age;
 104:..\..\..\..\wpa_supplicant\src/utils/os.h **** 
 105:..\..\..\..\wpa_supplicant\src/utils/os.h **** 	os_reltime_sub(now, ts, &age);
 106:..\..\..\..\wpa_supplicant\src/utils/os.h **** 	return (age.sec > timeout_secs) ||
 107:..\..\..\..\wpa_supplicant\src/utils/os.h **** 	       (age.sec == timeout_secs && age.usec > 0);
 108:..\..\..\..\wpa_supplicant\src/utils/os.h **** }
 109:..\..\..\..\wpa_supplicant\src/utils/os.h **** 
 110:..\..\..\..\wpa_supplicant\src/utils/os.h **** 
 111:..\..\..\..\wpa_supplicant\src/utils/os.h **** static inline int os_reltime_initialized(struct os_reltime *t)
 112:..\..\..\..\wpa_supplicant\src/utils/os.h **** {
 113:..\..\..\..\wpa_supplicant\src/utils/os.h **** 	return t->sec != 0 || t->usec != 0;
 114:..\..\..\..\wpa_supplicant\src/utils/os.h **** }
 115:..\..\..\..\wpa_supplicant\src/utils/os.h **** 
 116:..\..\..\..\wpa_supplicant\src/utils/os.h **** 
 117:..\..\..\..\wpa_supplicant\src/utils/os.h **** /**
 118:..\..\..\..\wpa_supplicant\src/utils/os.h ****  * os_mktime - Convert broken-down time into seconds since 1970-01-01
 119:..\..\..\..\wpa_supplicant\src/utils/os.h ****  * @year: Four digit year
 120:..\..\..\..\wpa_supplicant\src/utils/os.h ****  * @month: Month (1 .. 12)
 121:..\..\..\..\wpa_supplicant\src/utils/os.h ****  * @day: Day of month (1 .. 31)
 122:..\..\..\..\wpa_supplicant\src/utils/os.h ****  * @hour: Hour (0 .. 23)
 123:..\..\..\..\wpa_supplicant\src/utils/os.h ****  * @min: Minute (0 .. 59)
 124:..\..\..\..\wpa_supplicant\src/utils/os.h ****  * @sec: Second (0 .. 60)
 125:..\..\..\..\wpa_supplicant\src/utils/os.h ****  * @t: Buffer for returning calendar time representation (seconds since
 126:..\..\..\..\wpa_supplicant\src/utils/os.h ****  * 1970-01-01 00:00:00)
 127:..\..\..\..\wpa_supplicant\src/utils/os.h ****  * Returns: 0 on success, -1 on failure
 128:..\..\..\..\wpa_supplicant\src/utils/os.h ****  *
 129:..\..\..\..\wpa_supplicant\src/utils/os.h ****  * Note: The result is in seconds from Epoch, i.e., in UTC, not in local time
 130:..\..\..\..\wpa_supplicant\src/utils/os.h ****  * which is used by POSIX mktime().
 131:..\..\..\..\wpa_supplicant\src/utils/os.h ****  */
 132:..\..\..\..\wpa_supplicant\src/utils/os.h **** int os_mktime(int year, int month, int day, int hour, int min, int sec,
 133:..\..\..\..\wpa_supplicant\src/utils/os.h **** 	      os_time_t *t);
 134:..\..\..\..\wpa_supplicant\src/utils/os.h **** 
 135:..\..\..\..\wpa_supplicant\src/utils/os.h **** struct os_tm {
 136:..\..\..\..\wpa_supplicant\src/utils/os.h **** 	int sec; /* 0..59 or 60 for leap seconds */
 137:..\..\..\..\wpa_supplicant\src/utils/os.h **** 	int min; /* 0..59 */
 138:..\..\..\..\wpa_supplicant\src/utils/os.h **** 	int hour; /* 0..23 */
 139:..\..\..\..\wpa_supplicant\src/utils/os.h **** 	int day; /* 1..31 */
 140:..\..\..\..\wpa_supplicant\src/utils/os.h **** 	int month; /* 1..12 */
 141:..\..\..\..\wpa_supplicant\src/utils/os.h **** 	int year; /* Four digit year */
 142:..\..\..\..\wpa_supplicant\src/utils/os.h **** };
 143:..\..\..\..\wpa_supplicant\src/utils/os.h **** 
 144:..\..\..\..\wpa_supplicant\src/utils/os.h **** int os_gmtime(os_time_t t, struct os_tm *tm);
 145:..\..\..\..\wpa_supplicant\src/utils/os.h **** 
 146:..\..\..\..\wpa_supplicant\src/utils/os.h **** /**
 147:..\..\..\..\wpa_supplicant\src/utils/os.h ****  * os_daemonize - Run in the background (detach from the controlling terminal)
 148:..\..\..\..\wpa_supplicant\src/utils/os.h ****  * @pid_file: File name to write the process ID to or %NULL to skip this
 149:..\..\..\..\wpa_supplicant\src/utils/os.h ****  * Returns: 0 on success, -1 on failure
 150:..\..\..\..\wpa_supplicant\src/utils/os.h ****  */
 151:..\..\..\..\wpa_supplicant\src/utils/os.h **** int os_daemonize(const char *pid_file);
 152:..\..\..\..\wpa_supplicant\src/utils/os.h **** 
 153:..\..\..\..\wpa_supplicant\src/utils/os.h **** /**
 154:..\..\..\..\wpa_supplicant\src/utils/os.h ****  * os_daemonize_terminate - Stop running in the background (remove pid file)
 155:..\..\..\..\wpa_supplicant\src/utils/os.h ****  * @pid_file: File name to write the process ID to or %NULL to skip this
 156:..\..\..\..\wpa_supplicant\src/utils/os.h ****  */
 157:..\..\..\..\wpa_supplicant\src/utils/os.h **** void os_daemonize_terminate(const char *pid_file);
 158:..\..\..\..\wpa_supplicant\src/utils/os.h **** 
 159:..\..\..\..\wpa_supplicant\src/utils/os.h **** /**
 160:..\..\..\..\wpa_supplicant\src/utils/os.h ****  * os_get_random - Get cryptographically strong pseudo random data
 161:..\..\..\..\wpa_supplicant\src/utils/os.h ****  * @buf: Buffer for pseudo random data
 162:..\..\..\..\wpa_supplicant\src/utils/os.h ****  * @len: Length of the buffer
 163:..\..\..\..\wpa_supplicant\src/utils/os.h ****  * Returns: 0 on success, -1 on failure
 164:..\..\..\..\wpa_supplicant\src/utils/os.h ****  */
 165:..\..\..\..\wpa_supplicant\src/utils/os.h **** int os_get_random(unsigned char *buf, size_t len);
 166:..\..\..\..\wpa_supplicant\src/utils/os.h **** 
 167:..\..\..\..\wpa_supplicant\src/utils/os.h **** /**
 168:..\..\..\..\wpa_supplicant\src/utils/os.h ****  * os_random - Get pseudo random value (not necessarily very strong)
 169:..\..\..\..\wpa_supplicant\src/utils/os.h ****  * Returns: Pseudo random value
 170:..\..\..\..\wpa_supplicant\src/utils/os.h ****  */
 171:..\..\..\..\wpa_supplicant\src/utils/os.h **** unsigned long os_random(void);
 172:..\..\..\..\wpa_supplicant\src/utils/os.h **** 
 173:..\..\..\..\wpa_supplicant\src/utils/os.h **** /**
 174:..\..\..\..\wpa_supplicant\src/utils/os.h ****  * os_rel2abs_path - Get an absolute path for a file
 175:..\..\..\..\wpa_supplicant\src/utils/os.h ****  * @rel_path: Relative path to a file
 176:..\..\..\..\wpa_supplicant\src/utils/os.h ****  * Returns: Absolute path for the file or %NULL on failure
 177:..\..\..\..\wpa_supplicant\src/utils/os.h ****  *
 178:..\..\..\..\wpa_supplicant\src/utils/os.h ****  * This function tries to convert a relative path of a file to an absolute path
 179:..\..\..\..\wpa_supplicant\src/utils/os.h ****  * in order for the file to be found even if current working directory has
 180:..\..\..\..\wpa_supplicant\src/utils/os.h ****  * changed. The returned value is allocated and caller is responsible for
 181:..\..\..\..\wpa_supplicant\src/utils/os.h ****  * freeing it. It is acceptable to just return the same path in an allocated
 182:..\..\..\..\wpa_supplicant\src/utils/os.h ****  * buffer, e.g., return strdup(rel_path). This function is only used to find
 183:..\..\..\..\wpa_supplicant\src/utils/os.h ****  * configuration files when os_daemonize() may have changed the current working
 184:..\..\..\..\wpa_supplicant\src/utils/os.h ****  * directory and relative path would be pointing to a different location.
 185:..\..\..\..\wpa_supplicant\src/utils/os.h ****  */
 186:..\..\..\..\wpa_supplicant\src/utils/os.h **** char * os_rel2abs_path(const char *rel_path);
 187:..\..\..\..\wpa_supplicant\src/utils/os.h **** 
 188:..\..\..\..\wpa_supplicant\src/utils/os.h **** /**
 189:..\..\..\..\wpa_supplicant\src/utils/os.h ****  * os_program_init - Program initialization (called at start)
 190:..\..\..\..\wpa_supplicant\src/utils/os.h ****  * Returns: 0 on success, -1 on failure
 191:..\..\..\..\wpa_supplicant\src/utils/os.h ****  *
 192:..\..\..\..\wpa_supplicant\src/utils/os.h ****  * This function is called when a programs starts. If there are any OS specific
 193:..\..\..\..\wpa_supplicant\src/utils/os.h ****  * processing that is needed, it can be placed here. It is also acceptable to
 194:..\..\..\..\wpa_supplicant\src/utils/os.h ****  * just return 0 if not special processing is needed.
 195:..\..\..\..\wpa_supplicant\src/utils/os.h ****  */
 196:..\..\..\..\wpa_supplicant\src/utils/os.h **** int os_program_init(void);
 197:..\..\..\..\wpa_supplicant\src/utils/os.h **** 
 198:..\..\..\..\wpa_supplicant\src/utils/os.h **** /**
 199:..\..\..\..\wpa_supplicant\src/utils/os.h ****  * os_program_deinit - Program deinitialization (called just before exit)
 200:..\..\..\..\wpa_supplicant\src/utils/os.h ****  *
 201:..\..\..\..\wpa_supplicant\src/utils/os.h ****  * This function is called just before a program exists. If there are any OS
 202:..\..\..\..\wpa_supplicant\src/utils/os.h ****  * specific processing, e.g., freeing resourced allocated in os_program_init(),
 203:..\..\..\..\wpa_supplicant\src/utils/os.h ****  * it should be done here. It is also acceptable for this function to do
 204:..\..\..\..\wpa_supplicant\src/utils/os.h ****  * nothing.
 205:..\..\..\..\wpa_supplicant\src/utils/os.h ****  */
 206:..\..\..\..\wpa_supplicant\src/utils/os.h **** void os_program_deinit(void);
 207:..\..\..\..\wpa_supplicant\src/utils/os.h **** 
 208:..\..\..\..\wpa_supplicant\src/utils/os.h **** /**
 209:..\..\..\..\wpa_supplicant\src/utils/os.h ****  * os_setenv - Set environment variable
 210:..\..\..\..\wpa_supplicant\src/utils/os.h ****  * @name: Name of the variable
 211:..\..\..\..\wpa_supplicant\src/utils/os.h ****  * @value: Value to set to the variable
 212:..\..\..\..\wpa_supplicant\src/utils/os.h ****  * @overwrite: Whether existing variable should be overwritten
 213:..\..\..\..\wpa_supplicant\src/utils/os.h ****  * Returns: 0 on success, -1 on error
 214:..\..\..\..\wpa_supplicant\src/utils/os.h ****  *
 215:..\..\..\..\wpa_supplicant\src/utils/os.h ****  * This function is only used for wpa_cli action scripts. OS wrapper does not
 216:..\..\..\..\wpa_supplicant\src/utils/os.h ****  * need to implement this if such functionality is not needed.
 217:..\..\..\..\wpa_supplicant\src/utils/os.h ****  */
 218:..\..\..\..\wpa_supplicant\src/utils/os.h **** int os_setenv(const char *name, const char *value, int overwrite);
 219:..\..\..\..\wpa_supplicant\src/utils/os.h **** 
 220:..\..\..\..\wpa_supplicant\src/utils/os.h **** /**
 221:..\..\..\..\wpa_supplicant\src/utils/os.h ****  * os_unsetenv - Delete environent variable
 222:..\..\..\..\wpa_supplicant\src/utils/os.h ****  * @name: Name of the variable
 223:..\..\..\..\wpa_supplicant\src/utils/os.h ****  * Returns: 0 on success, -1 on error
 224:..\..\..\..\wpa_supplicant\src/utils/os.h ****  *
 225:..\..\..\..\wpa_supplicant\src/utils/os.h ****  * This function is only used for wpa_cli action scripts. OS wrapper does not
 226:..\..\..\..\wpa_supplicant\src/utils/os.h ****  * need to implement this if such functionality is not needed.
 227:..\..\..\..\wpa_supplicant\src/utils/os.h ****  */
 228:..\..\..\..\wpa_supplicant\src/utils/os.h **** int os_unsetenv(const char *name);
 229:..\..\..\..\wpa_supplicant\src/utils/os.h **** 
 230:..\..\..\..\wpa_supplicant\src/utils/os.h **** /**
 231:..\..\..\..\wpa_supplicant\src/utils/os.h ****  * os_readfile - Read a file to an allocated memory buffer
 232:..\..\..\..\wpa_supplicant\src/utils/os.h ****  * @name: Name of the file to read
 233:..\..\..\..\wpa_supplicant\src/utils/os.h ****  * @len: For returning the length of the allocated buffer
 234:..\..\..\..\wpa_supplicant\src/utils/os.h ****  * Returns: Pointer to the allocated buffer or %NULL on failure
 235:..\..\..\..\wpa_supplicant\src/utils/os.h ****  *
 236:..\..\..\..\wpa_supplicant\src/utils/os.h ****  * This function allocates memory and reads the given file to this buffer. Both
 237:..\..\..\..\wpa_supplicant\src/utils/os.h ****  * binary and text files can be read with this function. The caller is
 238:..\..\..\..\wpa_supplicant\src/utils/os.h ****  * responsible for freeing the returned buffer with os_free().
 239:..\..\..\..\wpa_supplicant\src/utils/os.h ****  */
 240:..\..\..\..\wpa_supplicant\src/utils/os.h **** char * os_readfile(const char *name, size_t *len);
 241:..\..\..\..\wpa_supplicant\src/utils/os.h **** 
 242:..\..\..\..\wpa_supplicant\src/utils/os.h **** /**
 243:..\..\..\..\wpa_supplicant\src/utils/os.h ****  * os_file_exists - Check whether the specified file exists
 244:..\..\..\..\wpa_supplicant\src/utils/os.h ****  * @fname: Path and name of the file
 245:..\..\..\..\wpa_supplicant\src/utils/os.h ****  * Returns: 1 if the file exists or 0 if not
 246:..\..\..\..\wpa_supplicant\src/utils/os.h ****  */
 247:..\..\..\..\wpa_supplicant\src/utils/os.h **** int os_file_exists(const char *fname);
 248:..\..\..\..\wpa_supplicant\src/utils/os.h **** 
 249:..\..\..\..\wpa_supplicant\src/utils/os.h **** /**
 250:..\..\..\..\wpa_supplicant\src/utils/os.h ****  * os_fdatasync - Sync a file's (for a given stream) state with storage device
 251:..\..\..\..\wpa_supplicant\src/utils/os.h ****  * @stream: the stream to be flushed
 252:..\..\..\..\wpa_supplicant\src/utils/os.h ****  * Returns: 0 if the operation succeeded or -1 on failure
 253:..\..\..\..\wpa_supplicant\src/utils/os.h ****  */
 254:..\..\..\..\wpa_supplicant\src/utils/os.h **** int os_fdatasync(FILE *stream);
 255:..\..\..\..\wpa_supplicant\src/utils/os.h **** 
 256:..\..\..\..\wpa_supplicant\src/utils/os.h **** /**
 257:..\..\..\..\wpa_supplicant\src/utils/os.h ****  * os_zalloc - Allocate and zero memory
 258:..\..\..\..\wpa_supplicant\src/utils/os.h ****  * @size: Number of bytes to allocate
 259:..\..\..\..\wpa_supplicant\src/utils/os.h ****  * Returns: Pointer to allocated and zeroed memory or %NULL on failure
 260:..\..\..\..\wpa_supplicant\src/utils/os.h ****  *
 261:..\..\..\..\wpa_supplicant\src/utils/os.h ****  * Caller is responsible for freeing the returned buffer with os_free().
 262:..\..\..\..\wpa_supplicant\src/utils/os.h ****  */
 263:..\..\..\..\wpa_supplicant\src/utils/os.h **** void * os_zalloc(size_t size);
 264:..\..\..\..\wpa_supplicant\src/utils/os.h **** 
 265:..\..\..\..\wpa_supplicant\src/utils/os.h **** /**
 266:..\..\..\..\wpa_supplicant\src/utils/os.h ****  * os_calloc - Allocate and zero memory for an array
 267:..\..\..\..\wpa_supplicant\src/utils/os.h ****  * @nmemb: Number of members in the array
 268:..\..\..\..\wpa_supplicant\src/utils/os.h ****  * @size: Number of bytes in each member
 269:..\..\..\..\wpa_supplicant\src/utils/os.h ****  * Returns: Pointer to allocated and zeroed memory or %NULL on failure
 270:..\..\..\..\wpa_supplicant\src/utils/os.h ****  *
 271:..\..\..\..\wpa_supplicant\src/utils/os.h ****  * This function can be used as a wrapper for os_zalloc(nmemb * size) when an
 272:..\..\..\..\wpa_supplicant\src/utils/os.h ****  * allocation is used for an array. The main benefit over os_zalloc() is in
 273:..\..\..\..\wpa_supplicant\src/utils/os.h ****  * having an extra check to catch integer overflows in multiplication.
 274:..\..\..\..\wpa_supplicant\src/utils/os.h ****  *
 275:..\..\..\..\wpa_supplicant\src/utils/os.h ****  * Caller is responsible for freeing the returned buffer with os_free().
 276:..\..\..\..\wpa_supplicant\src/utils/os.h ****  */
 277:..\..\..\..\wpa_supplicant\src/utils/os.h **** static inline void * os_calloc(size_t nmemb, size_t size)
 278:..\..\..\..\wpa_supplicant\src/utils/os.h **** {
 279:..\..\..\..\wpa_supplicant\src/utils/os.h **** 	if (size && nmemb > (~(size_t) 0) / size)
 280:..\..\..\..\wpa_supplicant\src/utils/os.h **** 		return NULL;
 281:..\..\..\..\wpa_supplicant\src/utils/os.h **** 	return os_zalloc(nmemb * size);
 282:..\..\..\..\wpa_supplicant\src/utils/os.h **** }
 283:..\..\..\..\wpa_supplicant\src/utils/os.h **** 
 284:..\..\..\..\wpa_supplicant\src/utils/os.h **** 
 285:..\..\..\..\wpa_supplicant\src/utils/os.h **** /*
 286:..\..\..\..\wpa_supplicant\src/utils/os.h ****  * The following functions are wrapper for standard ANSI C or POSIX functions.
 287:..\..\..\..\wpa_supplicant\src/utils/os.h ****  * By default, they are just defined to use the standard function name and no
 288:..\..\..\..\wpa_supplicant\src/utils/os.h ****  * os_*.c implementation is needed for them. This avoids extra function calls
 289:..\..\..\..\wpa_supplicant\src/utils/os.h ****  * by allowing the C pre-processor take care of the function name mapping.
 290:..\..\..\..\wpa_supplicant\src/utils/os.h ****  *
 291:..\..\..\..\wpa_supplicant\src/utils/os.h ****  * If the target system uses a C library that does not provide these functions,
 292:..\..\..\..\wpa_supplicant\src/utils/os.h ****  * build_config.h can be used to define the wrappers to use a different
 293:..\..\..\..\wpa_supplicant\src/utils/os.h ****  * function name. This can be done on function-by-function basis since the
 294:..\..\..\..\wpa_supplicant\src/utils/os.h ****  * defines here are only used if build_config.h does not define the os_* name.
 295:..\..\..\..\wpa_supplicant\src/utils/os.h ****  * If needed, os_*.c file can be used to implement the functions that are not
 296:..\..\..\..\wpa_supplicant\src/utils/os.h ****  * included in the C library on the target system. Alternatively,
 297:..\..\..\..\wpa_supplicant\src/utils/os.h ****  * OS_NO_C_LIB_DEFINES can be defined to skip all defines here in which case
 298:..\..\..\..\wpa_supplicant\src/utils/os.h ****  * these functions need to be implemented in os_*.c file for the target system.
 299:..\..\..\..\wpa_supplicant\src/utils/os.h ****  */
 300:..\..\..\..\wpa_supplicant\src/utils/os.h **** 
 301:..\..\..\..\wpa_supplicant\src/utils/os.h **** #ifdef OS_NO_C_LIB_DEFINES
 302:..\..\..\..\wpa_supplicant\src/utils/os.h **** 
 303:..\..\..\..\wpa_supplicant\src/utils/os.h **** /**
 304:..\..\..\..\wpa_supplicant\src/utils/os.h ****  * os_malloc - Allocate dynamic memory
 305:..\..\..\..\wpa_supplicant\src/utils/os.h ****  * @size: Size of the buffer to allocate
 306:..\..\..\..\wpa_supplicant\src/utils/os.h ****  * Returns: Allocated buffer or %NULL on failure
 307:..\..\..\..\wpa_supplicant\src/utils/os.h ****  *
 308:..\..\..\..\wpa_supplicant\src/utils/os.h ****  * Caller is responsible for freeing the returned buffer with os_free().
 309:..\..\..\..\wpa_supplicant\src/utils/os.h ****  */
 310:..\..\..\..\wpa_supplicant\src/utils/os.h **** void * os_malloc(size_t size);
 311:..\..\..\..\wpa_supplicant\src/utils/os.h **** 
 312:..\..\..\..\wpa_supplicant\src/utils/os.h **** /**
 313:..\..\..\..\wpa_supplicant\src/utils/os.h ****  * os_realloc - Re-allocate dynamic memory
 314:..\..\..\..\wpa_supplicant\src/utils/os.h ****  * @ptr: Old buffer from os_malloc() or os_realloc()
 315:..\..\..\..\wpa_supplicant\src/utils/os.h ****  * @size: Size of the new buffer
 316:..\..\..\..\wpa_supplicant\src/utils/os.h ****  * Returns: Allocated buffer or %NULL on failure
 317:..\..\..\..\wpa_supplicant\src/utils/os.h ****  *
 318:..\..\..\..\wpa_supplicant\src/utils/os.h ****  * Caller is responsible for freeing the returned buffer with os_free().
 319:..\..\..\..\wpa_supplicant\src/utils/os.h ****  * If re-allocation fails, %NULL is returned and the original buffer (ptr) is
 320:..\..\..\..\wpa_supplicant\src/utils/os.h ****  * not freed and caller is still responsible for freeing it.
 321:..\..\..\..\wpa_supplicant\src/utils/os.h ****  */
 322:..\..\..\..\wpa_supplicant\src/utils/os.h **** void * os_realloc(void *ptr, size_t size);
 323:..\..\..\..\wpa_supplicant\src/utils/os.h **** 
 324:..\..\..\..\wpa_supplicant\src/utils/os.h **** /**
 325:..\..\..\..\wpa_supplicant\src/utils/os.h ****  * os_free - Free dynamic memory
 326:..\..\..\..\wpa_supplicant\src/utils/os.h ****  * @ptr: Old buffer from os_malloc() or os_realloc(); can be %NULL
 327:..\..\..\..\wpa_supplicant\src/utils/os.h ****  */
 328:..\..\..\..\wpa_supplicant\src/utils/os.h **** void os_free(void *ptr);
 329:..\..\..\..\wpa_supplicant\src/utils/os.h **** 
 330:..\..\..\..\wpa_supplicant\src/utils/os.h **** /**
 331:..\..\..\..\wpa_supplicant\src/utils/os.h ****  * os_memcpy - Copy memory area
 332:..\..\..\..\wpa_supplicant\src/utils/os.h ****  * @dest: Destination
 333:..\..\..\..\wpa_supplicant\src/utils/os.h ****  * @src: Source
 334:..\..\..\..\wpa_supplicant\src/utils/os.h ****  * @n: Number of bytes to copy
 335:..\..\..\..\wpa_supplicant\src/utils/os.h ****  * Returns: dest
 336:..\..\..\..\wpa_supplicant\src/utils/os.h ****  *
 337:..\..\..\..\wpa_supplicant\src/utils/os.h ****  * The memory areas src and dst must not overlap. os_memmove() can be used with
 338:..\..\..\..\wpa_supplicant\src/utils/os.h ****  * overlapping memory.
 339:..\..\..\..\wpa_supplicant\src/utils/os.h ****  */
 340:..\..\..\..\wpa_supplicant\src/utils/os.h **** void * os_memcpy(void *dest, const void *src, size_t n);
 341:..\..\..\..\wpa_supplicant\src/utils/os.h **** 
 342:..\..\..\..\wpa_supplicant\src/utils/os.h **** /**
 343:..\..\..\..\wpa_supplicant\src/utils/os.h ****  * os_memmove - Copy memory area
 344:..\..\..\..\wpa_supplicant\src/utils/os.h ****  * @dest: Destination
 345:..\..\..\..\wpa_supplicant\src/utils/os.h ****  * @src: Source
 346:..\..\..\..\wpa_supplicant\src/utils/os.h ****  * @n: Number of bytes to copy
 347:..\..\..\..\wpa_supplicant\src/utils/os.h ****  * Returns: dest
 348:..\..\..\..\wpa_supplicant\src/utils/os.h ****  *
 349:..\..\..\..\wpa_supplicant\src/utils/os.h ****  * The memory areas src and dst may overlap.
 350:..\..\..\..\wpa_supplicant\src/utils/os.h ****  */
 351:..\..\..\..\wpa_supplicant\src/utils/os.h **** void * os_memmove(void *dest, const void *src, size_t n);
 352:..\..\..\..\wpa_supplicant\src/utils/os.h **** 
 353:..\..\..\..\wpa_supplicant\src/utils/os.h **** /**
 354:..\..\..\..\wpa_supplicant\src/utils/os.h ****  * os_memset - Fill memory with a constant byte
 355:..\..\..\..\wpa_supplicant\src/utils/os.h ****  * @s: Memory area to be filled
 356:..\..\..\..\wpa_supplicant\src/utils/os.h ****  * @c: Constant byte
 357:..\..\..\..\wpa_supplicant\src/utils/os.h ****  * @n: Number of bytes started from s to fill with c
 358:..\..\..\..\wpa_supplicant\src/utils/os.h ****  * Returns: s
 359:..\..\..\..\wpa_supplicant\src/utils/os.h ****  */
 360:..\..\..\..\wpa_supplicant\src/utils/os.h **** void * os_memset(void *s, int c, size_t n);
 361:..\..\..\..\wpa_supplicant\src/utils/os.h **** 
 362:..\..\..\..\wpa_supplicant\src/utils/os.h **** /**
 363:..\..\..\..\wpa_supplicant\src/utils/os.h ****  * os_memcmp - Compare memory areas
 364:..\..\..\..\wpa_supplicant\src/utils/os.h ****  * @s1: First buffer
 365:..\..\..\..\wpa_supplicant\src/utils/os.h ****  * @s2: Second buffer
 366:..\..\..\..\wpa_supplicant\src/utils/os.h ****  * @n: Maximum numbers of octets to compare
 367:..\..\..\..\wpa_supplicant\src/utils/os.h ****  * Returns: An integer less than, equal to, or greater than zero if s1 is
 368:..\..\..\..\wpa_supplicant\src/utils/os.h ****  * found to be less than, to match, or be greater than s2. Only first n
 369:..\..\..\..\wpa_supplicant\src/utils/os.h ****  * characters will be compared.
 370:..\..\..\..\wpa_supplicant\src/utils/os.h ****  */
 371:..\..\..\..\wpa_supplicant\src/utils/os.h **** int os_memcmp(const void *s1, const void *s2, size_t n);
 372:..\..\..\..\wpa_supplicant\src/utils/os.h **** 
 373:..\..\..\..\wpa_supplicant\src/utils/os.h **** /**
 374:..\..\..\..\wpa_supplicant\src/utils/os.h ****  * os_strdup - Duplicate a string
 375:..\..\..\..\wpa_supplicant\src/utils/os.h ****  * @s: Source string
 376:..\..\..\..\wpa_supplicant\src/utils/os.h ****  * Returns: Allocated buffer with the string copied into it or %NULL on failure
 377:..\..\..\..\wpa_supplicant\src/utils/os.h ****  *
 378:..\..\..\..\wpa_supplicant\src/utils/os.h ****  * Caller is responsible for freeing the returned buffer with os_free().
 379:..\..\..\..\wpa_supplicant\src/utils/os.h ****  */
 380:..\..\..\..\wpa_supplicant\src/utils/os.h **** char * os_strdup(const char *s);
 381:..\..\..\..\wpa_supplicant\src/utils/os.h **** 
 382:..\..\..\..\wpa_supplicant\src/utils/os.h **** /**
 383:..\..\..\..\wpa_supplicant\src/utils/os.h ****  * os_strlen - Calculate the length of a string
 384:..\..\..\..\wpa_supplicant\src/utils/os.h ****  * @s: '\0' terminated string
 385:..\..\..\..\wpa_supplicant\src/utils/os.h ****  * Returns: Number of characters in s (not counting the '\0' terminator)
 386:..\..\..\..\wpa_supplicant\src/utils/os.h ****  */
 387:..\..\..\..\wpa_supplicant\src/utils/os.h **** size_t os_strlen(const char *s);
 388:..\..\..\..\wpa_supplicant\src/utils/os.h **** 
 389:..\..\..\..\wpa_supplicant\src/utils/os.h **** /**
 390:..\..\..\..\wpa_supplicant\src/utils/os.h ****  * os_strcasecmp - Compare two strings ignoring case
 391:..\..\..\..\wpa_supplicant\src/utils/os.h ****  * @s1: First string
 392:..\..\..\..\wpa_supplicant\src/utils/os.h ****  * @s2: Second string
 393:..\..\..\..\wpa_supplicant\src/utils/os.h ****  * Returns: An integer less than, equal to, or greater than zero if s1 is
 394:..\..\..\..\wpa_supplicant\src/utils/os.h ****  * found to be less than, to match, or be greatred than s2
 395:..\..\..\..\wpa_supplicant\src/utils/os.h ****  */
 396:..\..\..\..\wpa_supplicant\src/utils/os.h **** int os_strcasecmp(const char *s1, const char *s2);
 397:..\..\..\..\wpa_supplicant\src/utils/os.h **** 
 398:..\..\..\..\wpa_supplicant\src/utils/os.h **** /**
 399:..\..\..\..\wpa_supplicant\src/utils/os.h ****  * os_strncasecmp - Compare two strings ignoring case
 400:..\..\..\..\wpa_supplicant\src/utils/os.h ****  * @s1: First string
 401:..\..\..\..\wpa_supplicant\src/utils/os.h ****  * @s2: Second string
 402:..\..\..\..\wpa_supplicant\src/utils/os.h ****  * @n: Maximum numbers of characters to compare
 403:..\..\..\..\wpa_supplicant\src/utils/os.h ****  * Returns: An integer less than, equal to, or greater than zero if s1 is
 404:..\..\..\..\wpa_supplicant\src/utils/os.h ****  * found to be less than, to match, or be greater than s2. Only first n
 405:..\..\..\..\wpa_supplicant\src/utils/os.h ****  * characters will be compared.
 406:..\..\..\..\wpa_supplicant\src/utils/os.h ****  */
 407:..\..\..\..\wpa_supplicant\src/utils/os.h **** int os_strncasecmp(const char *s1, const char *s2, size_t n);
 408:..\..\..\..\wpa_supplicant\src/utils/os.h **** 
 409:..\..\..\..\wpa_supplicant\src/utils/os.h **** /**
 410:..\..\..\..\wpa_supplicant\src/utils/os.h ****  * os_strchr - Locate the first occurrence of a character in string
 411:..\..\..\..\wpa_supplicant\src/utils/os.h ****  * @s: String
 412:..\..\..\..\wpa_supplicant\src/utils/os.h ****  * @c: Character to search for
 413:..\..\..\..\wpa_supplicant\src/utils/os.h ****  * Returns: Pointer to the matched character or %NULL if not found
 414:..\..\..\..\wpa_supplicant\src/utils/os.h ****  */
 415:..\..\..\..\wpa_supplicant\src/utils/os.h **** char * os_strchr(const char *s, int c);
 416:..\..\..\..\wpa_supplicant\src/utils/os.h **** 
 417:..\..\..\..\wpa_supplicant\src/utils/os.h **** /**
 418:..\..\..\..\wpa_supplicant\src/utils/os.h ****  * os_strrchr - Locate the last occurrence of a character in string
 419:..\..\..\..\wpa_supplicant\src/utils/os.h ****  * @s: String
 420:..\..\..\..\wpa_supplicant\src/utils/os.h ****  * @c: Character to search for
 421:..\..\..\..\wpa_supplicant\src/utils/os.h ****  * Returns: Pointer to the matched character or %NULL if not found
 422:..\..\..\..\wpa_supplicant\src/utils/os.h ****  */
 423:..\..\..\..\wpa_supplicant\src/utils/os.h **** char * os_strrchr(const char *s, int c);
 424:..\..\..\..\wpa_supplicant\src/utils/os.h **** 
 425:..\..\..\..\wpa_supplicant\src/utils/os.h **** /**
 426:..\..\..\..\wpa_supplicant\src/utils/os.h ****  * os_strcmp - Compare two strings
 427:..\..\..\..\wpa_supplicant\src/utils/os.h ****  * @s1: First string
 428:..\..\..\..\wpa_supplicant\src/utils/os.h ****  * @s2: Second string
 429:..\..\..\..\wpa_supplicant\src/utils/os.h ****  * Returns: An integer less than, equal to, or greater than zero if s1 is
 430:..\..\..\..\wpa_supplicant\src/utils/os.h ****  * found to be less than, to match, or be greatred than s2
 431:..\..\..\..\wpa_supplicant\src/utils/os.h ****  */
 432:..\..\..\..\wpa_supplicant\src/utils/os.h **** int os_strcmp(const char *s1, const char *s2);
 433:..\..\..\..\wpa_supplicant\src/utils/os.h **** 
 434:..\..\..\..\wpa_supplicant\src/utils/os.h **** /**
 435:..\..\..\..\wpa_supplicant\src/utils/os.h ****  * os_strncmp - Compare two strings
 436:..\..\..\..\wpa_supplicant\src/utils/os.h ****  * @s1: First string
 437:..\..\..\..\wpa_supplicant\src/utils/os.h ****  * @s2: Second string
 438:..\..\..\..\wpa_supplicant\src/utils/os.h ****  * @n: Maximum numbers of characters to compare
 439:..\..\..\..\wpa_supplicant\src/utils/os.h ****  * Returns: An integer less than, equal to, or greater than zero if s1 is
 440:..\..\..\..\wpa_supplicant\src/utils/os.h ****  * found to be less than, to match, or be greater than s2. Only first n
 441:..\..\..\..\wpa_supplicant\src/utils/os.h ****  * characters will be compared.
 442:..\..\..\..\wpa_supplicant\src/utils/os.h ****  */
 443:..\..\..\..\wpa_supplicant\src/utils/os.h **** int os_strncmp(const char *s1, const char *s2, size_t n);
 444:..\..\..\..\wpa_supplicant\src/utils/os.h **** 
 445:..\..\..\..\wpa_supplicant\src/utils/os.h **** /**
 446:..\..\..\..\wpa_supplicant\src/utils/os.h ****  * os_strstr - Locate a substring
 447:..\..\..\..\wpa_supplicant\src/utils/os.h ****  * @haystack: String (haystack) to search from
 448:..\..\..\..\wpa_supplicant\src/utils/os.h ****  * @needle: Needle to search from haystack
 449:..\..\..\..\wpa_supplicant\src/utils/os.h ****  * Returns: Pointer to the beginning of the substring or %NULL if not found
 450:..\..\..\..\wpa_supplicant\src/utils/os.h ****  */
 451:..\..\..\..\wpa_supplicant\src/utils/os.h **** char * os_strstr(const char *haystack, const char *needle);
 452:..\..\..\..\wpa_supplicant\src/utils/os.h **** 
 453:..\..\..\..\wpa_supplicant\src/utils/os.h **** /**
 454:..\..\..\..\wpa_supplicant\src/utils/os.h ****  * os_snprintf - Print to a memory buffer
 455:..\..\..\..\wpa_supplicant\src/utils/os.h ****  * @str: Memory buffer to print into
 456:..\..\..\..\wpa_supplicant\src/utils/os.h ****  * @size: Maximum length of the str buffer
 457:..\..\..\..\wpa_supplicant\src/utils/os.h ****  * @format: printf format
 458:..\..\..\..\wpa_supplicant\src/utils/os.h ****  * Returns: Number of characters printed (not including trailing '\0').
 459:..\..\..\..\wpa_supplicant\src/utils/os.h ****  *
 460:..\..\..\..\wpa_supplicant\src/utils/os.h ****  * If the output buffer is truncated, number of characters which would have
 461:..\..\..\..\wpa_supplicant\src/utils/os.h ****  * been written is returned. Since some C libraries return -1 in such a case,
 462:..\..\..\..\wpa_supplicant\src/utils/os.h ****  * the caller must be prepared on that value, too, to indicate truncation.
 463:..\..\..\..\wpa_supplicant\src/utils/os.h ****  *
 464:..\..\..\..\wpa_supplicant\src/utils/os.h ****  * Note: Some C library implementations of snprintf() may not guarantee null
 465:..\..\..\..\wpa_supplicant\src/utils/os.h ****  * termination in case the output is truncated. The OS wrapper function of
 466:..\..\..\..\wpa_supplicant\src/utils/os.h ****  * os_snprintf() should provide this guarantee, i.e., to null terminate the
 467:..\..\..\..\wpa_supplicant\src/utils/os.h ****  * output buffer if a C library version of the function is used and if that
 468:..\..\..\..\wpa_supplicant\src/utils/os.h ****  * function does not guarantee null termination.
 469:..\..\..\..\wpa_supplicant\src/utils/os.h ****  *
 470:..\..\..\..\wpa_supplicant\src/utils/os.h ****  * If the target system does not include snprintf(), see, e.g.,
 471:..\..\..\..\wpa_supplicant\src/utils/os.h ****  * http://www.ijs.si/software/snprintf/ for an example of a portable
 472:..\..\..\..\wpa_supplicant\src/utils/os.h ****  * implementation of snprintf.
 473:..\..\..\..\wpa_supplicant\src/utils/os.h ****  */
 474:..\..\..\..\wpa_supplicant\src/utils/os.h **** int os_snprintf(char *str, size_t size, const char *format, ...);
 475:..\..\..\..\wpa_supplicant\src/utils/os.h **** 
 476:..\..\..\..\wpa_supplicant\src/utils/os.h **** #else /* OS_NO_C_LIB_DEFINES */
 477:..\..\..\..\wpa_supplicant\src/utils/os.h **** 
 478:..\..\..\..\wpa_supplicant\src/utils/os.h **** #ifdef WPA_TRACE
 479:..\..\..\..\wpa_supplicant\src/utils/os.h **** void * os_malloc(size_t size);
 480:..\..\..\..\wpa_supplicant\src/utils/os.h **** void * os_realloc(void *ptr, size_t size);
 481:..\..\..\..\wpa_supplicant\src/utils/os.h **** void os_free(void *ptr);
 482:..\..\..\..\wpa_supplicant\src/utils/os.h **** char * os_strdup(const char *s);
 483:..\..\..\..\wpa_supplicant\src/utils/os.h **** #else /* WPA_TRACE */
 484:..\..\..\..\wpa_supplicant\src/utils/os.h **** #ifndef os_malloc
 485:..\..\..\..\wpa_supplicant\src/utils/os.h **** #define os_malloc(s) malloc((s))
 486:..\..\..\..\wpa_supplicant\src/utils/os.h **** #endif
 487:..\..\..\..\wpa_supplicant\src/utils/os.h **** #ifndef os_realloc
 488:..\..\..\..\wpa_supplicant\src/utils/os.h **** #define os_realloc(p, s) realloc((p), (s))
 489:..\..\..\..\wpa_supplicant\src/utils/os.h **** #endif
 490:..\..\..\..\wpa_supplicant\src/utils/os.h **** #ifndef os_free
 491:..\..\..\..\wpa_supplicant\src/utils/os.h **** #define os_free(p) free((p))
 492:..\..\..\..\wpa_supplicant\src/utils/os.h **** #endif
 493:..\..\..\..\wpa_supplicant\src/utils/os.h **** #ifndef os_strdup
 494:..\..\..\..\wpa_supplicant\src/utils/os.h **** #ifdef _MSC_VER
 495:..\..\..\..\wpa_supplicant\src/utils/os.h **** #define os_strdup(s) _strdup(s)
 496:..\..\..\..\wpa_supplicant\src/utils/os.h **** #else
 497:..\..\..\..\wpa_supplicant\src/utils/os.h **** #define os_strdup(s) strdup(s)
 498:..\..\..\..\wpa_supplicant\src/utils/os.h **** #endif
 499:..\..\..\..\wpa_supplicant\src/utils/os.h **** #endif
 500:..\..\..\..\wpa_supplicant\src/utils/os.h **** #endif /* WPA_TRACE */
 501:..\..\..\..\wpa_supplicant\src/utils/os.h **** 
 502:..\..\..\..\wpa_supplicant\src/utils/os.h **** #ifndef os_memcpy
 503:..\..\..\..\wpa_supplicant\src/utils/os.h **** #define os_memcpy(d, s, n) memcpy((d), (s), (n))
 504:..\..\..\..\wpa_supplicant\src/utils/os.h **** #endif
 505:..\..\..\..\wpa_supplicant\src/utils/os.h **** #ifndef os_memmove
 506:..\..\..\..\wpa_supplicant\src/utils/os.h **** #define os_memmove(d, s, n) memmove((d), (s), (n))
 507:..\..\..\..\wpa_supplicant\src/utils/os.h **** #endif
 508:..\..\..\..\wpa_supplicant\src/utils/os.h **** #ifndef os_memset
 509:..\..\..\..\wpa_supplicant\src/utils/os.h **** #define os_memset(s, c, n) memset(s, c, n)
 510:..\..\..\..\wpa_supplicant\src/utils/os.h **** #endif
 511:..\..\..\..\wpa_supplicant\src/utils/os.h **** #ifndef os_memcmp
 512:..\..\..\..\wpa_supplicant\src/utils/os.h **** #define os_memcmp(s1, s2, n) memcmp((s1), (s2), (n))
 513:..\..\..\..\wpa_supplicant\src/utils/os.h **** #endif
 514:..\..\..\..\wpa_supplicant\src/utils/os.h **** 
 515:..\..\..\..\wpa_supplicant\src/utils/os.h **** #ifndef os_strlen
 516:..\..\..\..\wpa_supplicant\src/utils/os.h **** #define os_strlen(s) strlen(s)
 517:..\..\..\..\wpa_supplicant\src/utils/os.h **** #endif
 518:..\..\..\..\wpa_supplicant\src/utils/os.h **** #ifndef os_strcasecmp
 519:..\..\..\..\wpa_supplicant\src/utils/os.h **** #ifdef _MSC_VER
 520:..\..\..\..\wpa_supplicant\src/utils/os.h **** #define os_strcasecmp(s1, s2) _stricmp((s1), (s2))
 521:..\..\..\..\wpa_supplicant\src/utils/os.h **** #else
 522:..\..\..\..\wpa_supplicant\src/utils/os.h **** #define os_strcasecmp(s1, s2) strcasecmp((s1), (s2))
 523:..\..\..\..\wpa_supplicant\src/utils/os.h **** #endif
 524:..\..\..\..\wpa_supplicant\src/utils/os.h **** #endif
 525:..\..\..\..\wpa_supplicant\src/utils/os.h **** #ifndef os_strncasecmp
 526:..\..\..\..\wpa_supplicant\src/utils/os.h **** #ifdef _MSC_VER
 527:..\..\..\..\wpa_supplicant\src/utils/os.h **** #define os_strncasecmp(s1, s2, n) _strnicmp((s1), (s2), (n))
 528:..\..\..\..\wpa_supplicant\src/utils/os.h **** #else
 529:..\..\..\..\wpa_supplicant\src/utils/os.h **** #define os_strncasecmp(s1, s2, n) strncasecmp((s1), (s2), (n))
 530:..\..\..\..\wpa_supplicant\src/utils/os.h **** #endif
 531:..\..\..\..\wpa_supplicant\src/utils/os.h **** #endif
 532:..\..\..\..\wpa_supplicant\src/utils/os.h **** #ifndef os_strchr
 533:..\..\..\..\wpa_supplicant\src/utils/os.h **** #define os_strchr(s, c) strchr((s), (c))
 534:..\..\..\..\wpa_supplicant\src/utils/os.h **** #endif
 535:..\..\..\..\wpa_supplicant\src/utils/os.h **** #ifndef os_strcmp
 536:..\..\..\..\wpa_supplicant\src/utils/os.h **** #define os_strcmp(s1, s2) strcmp((s1), (s2))
 537:..\..\..\..\wpa_supplicant\src/utils/os.h **** #endif
 538:..\..\..\..\wpa_supplicant\src/utils/os.h **** #ifndef os_strncmp
 539:..\..\..\..\wpa_supplicant\src/utils/os.h **** #define os_strncmp(s1, s2, n) strncmp((s1), (s2), (n))
 540:..\..\..\..\wpa_supplicant\src/utils/os.h **** #endif
 541:..\..\..\..\wpa_supplicant\src/utils/os.h **** #ifndef os_strrchr
 542:..\..\..\..\wpa_supplicant\src/utils/os.h **** #define os_strrchr(s, c) strrchr((s), (c))
 543:..\..\..\..\wpa_supplicant\src/utils/os.h **** #endif
 544:..\..\..\..\wpa_supplicant\src/utils/os.h **** #ifndef os_strstr
 545:..\..\..\..\wpa_supplicant\src/utils/os.h **** #define os_strstr(h, n) strstr((h), (n))
 546:..\..\..\..\wpa_supplicant\src/utils/os.h **** #endif
 547:..\..\..\..\wpa_supplicant\src/utils/os.h **** 
 548:..\..\..\..\wpa_supplicant\src/utils/os.h **** #ifndef os_snprintf
 549:..\..\..\..\wpa_supplicant\src/utils/os.h **** #ifdef _MSC_VER
 550:..\..\..\..\wpa_supplicant\src/utils/os.h **** #define os_snprintf _snprintf
 551:..\..\..\..\wpa_supplicant\src/utils/os.h **** #else
 552:..\..\..\..\wpa_supplicant\src/utils/os.h **** #define os_snprintf snprintf
 553:..\..\..\..\wpa_supplicant\src/utils/os.h **** #endif
 554:..\..\..\..\wpa_supplicant\src/utils/os.h **** #endif
 555:..\..\..\..\wpa_supplicant\src/utils/os.h **** 
 556:..\..\..\..\wpa_supplicant\src/utils/os.h **** #endif /* OS_NO_C_LIB_DEFINES */
 557:..\..\..\..\wpa_supplicant\src/utils/os.h **** 
 558:..\..\..\..\wpa_supplicant\src/utils/os.h **** 
 559:..\..\..\..\wpa_supplicant\src/utils/os.h **** static inline int os_snprintf_error(size_t size, int res)
 560:..\..\..\..\wpa_supplicant\src/utils/os.h **** {
 561:..\..\..\..\wpa_supplicant\src/utils/os.h **** 	return res < 0 || (unsigned int) res >= size;
 455              		.loc 3 561 2 discriminator 16
 456              		.loc 3 561 17 is_stmt 0 discriminator 16
 457 0132 E34A05F0 		blt	a0,zero,.L28
 458              		.loc 3 561 17
 459 0136 F255     		lw	a1,60(sp)
 460 0138 E377B5F0 		bleu	a1,a0,.L28
 461              	.LVL31:
 462              	.LBE37:
 463              	.LBE36:
  85:C:/Users/stapi/OneDrive/Desktop/GD32VW553/V1_MQTT_OK/GD32VW55X_Wifi_BLE_SDK/GD32VW55x_RELEASE_V1.0.2/MSDK/wpa_supplicant/src/ap\neighbor_db.c **** 	}
 464              		.loc 1 85 3 is_stmt 1
 465              	.LBE39:
  46:C:/Users/stapi/OneDrive/Desktop/GD32VW553/V1_MQTT_OK/GD32VW55X_Wifi_BLE_SDK/GD32VW55x_RELEASE_V1.0.2/MSDK/wpa_supplicant/src/ap\neighbor_db.c **** 			 list) {
 466              		.loc 1 46 2 is_stmt 0
 467 013c 0040     		lw	s0,0(s0)
 468              	.LVL32:
 469              	.LBB40:
  85:C:/Users/stapi/OneDrive/Desktop/GD32VW553/V1_MQTT_OK/GD32VW55X_Wifi_BLE_SDK/GD32VW55x_RELEASE_V1.0.2/MSDK/wpa_supplicant/src/ap\neighbor_db.c **** 	}
 470              		.loc 1 85 7
 471 013e 2A9A     		add	s4,s4,a0
 472              	.LVL33:
 473              	.LBE40:
  46:C:/Users/stapi/OneDrive/Desktop/GD32VW553/V1_MQTT_OK/GD32VW55X_Wifi_BLE_SDK/GD32VW55x_RELEASE_V1.0.2/MSDK/wpa_supplicant/src/ap\neighbor_db.c **** 			 list) {
 474              		.loc 1 46 2 is_stmt 1
 475 0140 09B7     		j	.L19
 476              	.LVL34:
 477              	.L33:
 478              	.LBB41:
  76:C:/Users/stapi/OneDrive/Desktop/GD32VW553/V1_MQTT_OK/GD32VW55X_Wifi_BLE_SDK/GD32VW55x_RELEASE_V1.0.2/MSDK/wpa_supplicant/src/ap\neighbor_db.c **** 				  " ssid=%s%s%s%s%s%s%s%s\n",
 479              		.loc 1 76 9 is_stmt 0
 480 0142 37060000 		lui	a2,%hi(.LC4)
 481 0146 13060600 		addi	a2,a2,%lo(.LC4)
 482 014a C9B7     		j	.L26
 483              	.LBE41:
 484              		.cfi_endproc
 485              	.LFE138:
 487              		.section	.text.hostapd_neighbor_remove,"ax",@progbits
 488              		.align	1
 489              		.globl	hostapd_neighbor_remove
 491              	hostapd_neighbor_remove:
 492              	.LFB142:
 104:C:/Users/stapi/OneDrive/Desktop/GD32VW553/V1_MQTT_OK/GD32VW55X_Wifi_BLE_SDK/GD32VW55x_RELEASE_V1.0.2/MSDK/wpa_supplicant/src/ap\neighbor_db.c **** 
 105:C:/Users/stapi/OneDrive/Desktop/GD32VW553/V1_MQTT_OK/GD32VW55X_Wifi_BLE_SDK/GD32VW55x_RELEASE_V1.0.2/MSDK/wpa_supplicant/src/ap\neighbor_db.c **** 
 106:C:/Users/stapi/OneDrive/Desktop/GD32VW553/V1_MQTT_OK/GD32VW55X_Wifi_BLE_SDK/GD32VW55x_RELEASE_V1.0.2/MSDK/wpa_supplicant/src/ap\neighbor_db.c **** static struct hostapd_neighbor_entry *
 107:C:/Users/stapi/OneDrive/Desktop/GD32VW553/V1_MQTT_OK/GD32VW55X_Wifi_BLE_SDK/GD32VW55x_RELEASE_V1.0.2/MSDK/wpa_supplicant/src/ap\neighbor_db.c **** hostapd_neighbor_add(struct hostapd_data *hapd)
 108:C:/Users/stapi/OneDrive/Desktop/GD32VW553/V1_MQTT_OK/GD32VW55X_Wifi_BLE_SDK/GD32VW55x_RELEASE_V1.0.2/MSDK/wpa_supplicant/src/ap\neighbor_db.c **** {
 109:C:/Users/stapi/OneDrive/Desktop/GD32VW553/V1_MQTT_OK/GD32VW55X_Wifi_BLE_SDK/GD32VW55x_RELEASE_V1.0.2/MSDK/wpa_supplicant/src/ap\neighbor_db.c **** 	struct hostapd_neighbor_entry *nr;
 110:C:/Users/stapi/OneDrive/Desktop/GD32VW553/V1_MQTT_OK/GD32VW55X_Wifi_BLE_SDK/GD32VW55x_RELEASE_V1.0.2/MSDK/wpa_supplicant/src/ap\neighbor_db.c **** 
 111:C:/Users/stapi/OneDrive/Desktop/GD32VW553/V1_MQTT_OK/GD32VW55X_Wifi_BLE_SDK/GD32VW55x_RELEASE_V1.0.2/MSDK/wpa_supplicant/src/ap\neighbor_db.c **** 	nr = os_zalloc(sizeof(struct hostapd_neighbor_entry));
 112:C:/Users/stapi/OneDrive/Desktop/GD32VW553/V1_MQTT_OK/GD32VW55X_Wifi_BLE_SDK/GD32VW55x_RELEASE_V1.0.2/MSDK/wpa_supplicant/src/ap\neighbor_db.c **** 	if (!nr)
 113:C:/Users/stapi/OneDrive/Desktop/GD32VW553/V1_MQTT_OK/GD32VW55X_Wifi_BLE_SDK/GD32VW55x_RELEASE_V1.0.2/MSDK/wpa_supplicant/src/ap\neighbor_db.c **** 		return NULL;
 114:C:/Users/stapi/OneDrive/Desktop/GD32VW553/V1_MQTT_OK/GD32VW55X_Wifi_BLE_SDK/GD32VW55x_RELEASE_V1.0.2/MSDK/wpa_supplicant/src/ap\neighbor_db.c **** 
 115:C:/Users/stapi/OneDrive/Desktop/GD32VW553/V1_MQTT_OK/GD32VW55X_Wifi_BLE_SDK/GD32VW55x_RELEASE_V1.0.2/MSDK/wpa_supplicant/src/ap\neighbor_db.c **** 	dl_list_add(&hapd->nr_db, &nr->list);
 116:C:/Users/stapi/OneDrive/Desktop/GD32VW553/V1_MQTT_OK/GD32VW55X_Wifi_BLE_SDK/GD32VW55x_RELEASE_V1.0.2/MSDK/wpa_supplicant/src/ap\neighbor_db.c **** 
 117:C:/Users/stapi/OneDrive/Desktop/GD32VW553/V1_MQTT_OK/GD32VW55X_Wifi_BLE_SDK/GD32VW55x_RELEASE_V1.0.2/MSDK/wpa_supplicant/src/ap\neighbor_db.c **** 	return nr;
 118:C:/Users/stapi/OneDrive/Desktop/GD32VW553/V1_MQTT_OK/GD32VW55X_Wifi_BLE_SDK/GD32VW55x_RELEASE_V1.0.2/MSDK/wpa_supplicant/src/ap\neighbor_db.c **** }
 119:C:/Users/stapi/OneDrive/Desktop/GD32VW553/V1_MQTT_OK/GD32VW55X_Wifi_BLE_SDK/GD32VW55x_RELEASE_V1.0.2/MSDK/wpa_supplicant/src/ap\neighbor_db.c **** 
 120:C:/Users/stapi/OneDrive/Desktop/GD32VW553/V1_MQTT_OK/GD32VW55X_Wifi_BLE_SDK/GD32VW55x_RELEASE_V1.0.2/MSDK/wpa_supplicant/src/ap\neighbor_db.c **** 
 121:C:/Users/stapi/OneDrive/Desktop/GD32VW553/V1_MQTT_OK/GD32VW55X_Wifi_BLE_SDK/GD32VW55x_RELEASE_V1.0.2/MSDK/wpa_supplicant/src/ap\neighbor_db.c **** int hostapd_neighbor_set(struct hostapd_data *hapd, const u8 *bssid,
 122:C:/Users/stapi/OneDrive/Desktop/GD32VW553/V1_MQTT_OK/GD32VW55X_Wifi_BLE_SDK/GD32VW55x_RELEASE_V1.0.2/MSDK/wpa_supplicant/src/ap\neighbor_db.c **** 			 const struct wpa_ssid_value *ssid,
 123:C:/Users/stapi/OneDrive/Desktop/GD32VW553/V1_MQTT_OK/GD32VW55X_Wifi_BLE_SDK/GD32VW55x_RELEASE_V1.0.2/MSDK/wpa_supplicant/src/ap\neighbor_db.c **** 			 const struct wpabuf *nr, const struct wpabuf *lci,
 124:C:/Users/stapi/OneDrive/Desktop/GD32VW553/V1_MQTT_OK/GD32VW55X_Wifi_BLE_SDK/GD32VW55x_RELEASE_V1.0.2/MSDK/wpa_supplicant/src/ap\neighbor_db.c **** 			 const struct wpabuf *civic, int stationary,
 125:C:/Users/stapi/OneDrive/Desktop/GD32VW553/V1_MQTT_OK/GD32VW55X_Wifi_BLE_SDK/GD32VW55x_RELEASE_V1.0.2/MSDK/wpa_supplicant/src/ap\neighbor_db.c **** 			 u8 bss_parameters)
 126:C:/Users/stapi/OneDrive/Desktop/GD32VW553/V1_MQTT_OK/GD32VW55X_Wifi_BLE_SDK/GD32VW55x_RELEASE_V1.0.2/MSDK/wpa_supplicant/src/ap\neighbor_db.c **** {
 127:C:/Users/stapi/OneDrive/Desktop/GD32VW553/V1_MQTT_OK/GD32VW55X_Wifi_BLE_SDK/GD32VW55x_RELEASE_V1.0.2/MSDK/wpa_supplicant/src/ap\neighbor_db.c **** 	struct hostapd_neighbor_entry *entry;
 128:C:/Users/stapi/OneDrive/Desktop/GD32VW553/V1_MQTT_OK/GD32VW55X_Wifi_BLE_SDK/GD32VW55x_RELEASE_V1.0.2/MSDK/wpa_supplicant/src/ap\neighbor_db.c **** 
 129:C:/Users/stapi/OneDrive/Desktop/GD32VW553/V1_MQTT_OK/GD32VW55X_Wifi_BLE_SDK/GD32VW55x_RELEASE_V1.0.2/MSDK/wpa_supplicant/src/ap\neighbor_db.c **** 	entry = hostapd_neighbor_get(hapd, bssid, ssid);
 130:C:/Users/stapi/OneDrive/Desktop/GD32VW553/V1_MQTT_OK/GD32VW55X_Wifi_BLE_SDK/GD32VW55x_RELEASE_V1.0.2/MSDK/wpa_supplicant/src/ap\neighbor_db.c **** 	if (!entry)
 131:C:/Users/stapi/OneDrive/Desktop/GD32VW553/V1_MQTT_OK/GD32VW55X_Wifi_BLE_SDK/GD32VW55x_RELEASE_V1.0.2/MSDK/wpa_supplicant/src/ap\neighbor_db.c **** 		entry = hostapd_neighbor_add(hapd);
 132:C:/Users/stapi/OneDrive/Desktop/GD32VW553/V1_MQTT_OK/GD32VW55X_Wifi_BLE_SDK/GD32VW55x_RELEASE_V1.0.2/MSDK/wpa_supplicant/src/ap\neighbor_db.c **** 	if (!entry)
 133:C:/Users/stapi/OneDrive/Desktop/GD32VW553/V1_MQTT_OK/GD32VW55X_Wifi_BLE_SDK/GD32VW55x_RELEASE_V1.0.2/MSDK/wpa_supplicant/src/ap\neighbor_db.c **** 		return -1;
 134:C:/Users/stapi/OneDrive/Desktop/GD32VW553/V1_MQTT_OK/GD32VW55X_Wifi_BLE_SDK/GD32VW55x_RELEASE_V1.0.2/MSDK/wpa_supplicant/src/ap\neighbor_db.c **** 
 135:C:/Users/stapi/OneDrive/Desktop/GD32VW553/V1_MQTT_OK/GD32VW55X_Wifi_BLE_SDK/GD32VW55x_RELEASE_V1.0.2/MSDK/wpa_supplicant/src/ap\neighbor_db.c **** 	hostapd_neighbor_clear_entry(entry);
 136:C:/Users/stapi/OneDrive/Desktop/GD32VW553/V1_MQTT_OK/GD32VW55X_Wifi_BLE_SDK/GD32VW55x_RELEASE_V1.0.2/MSDK/wpa_supplicant/src/ap\neighbor_db.c **** 
 137:C:/Users/stapi/OneDrive/Desktop/GD32VW553/V1_MQTT_OK/GD32VW55X_Wifi_BLE_SDK/GD32VW55x_RELEASE_V1.0.2/MSDK/wpa_supplicant/src/ap\neighbor_db.c **** 	os_memcpy(entry->bssid, bssid, ETH_ALEN);
 138:C:/Users/stapi/OneDrive/Desktop/GD32VW553/V1_MQTT_OK/GD32VW55X_Wifi_BLE_SDK/GD32VW55x_RELEASE_V1.0.2/MSDK/wpa_supplicant/src/ap\neighbor_db.c **** 	os_memcpy(&entry->ssid, ssid, sizeof(entry->ssid));
 139:C:/Users/stapi/OneDrive/Desktop/GD32VW553/V1_MQTT_OK/GD32VW55X_Wifi_BLE_SDK/GD32VW55x_RELEASE_V1.0.2/MSDK/wpa_supplicant/src/ap\neighbor_db.c **** 	entry->short_ssid = crc32(ssid->ssid, ssid->ssid_len);
 140:C:/Users/stapi/OneDrive/Desktop/GD32VW553/V1_MQTT_OK/GD32VW55X_Wifi_BLE_SDK/GD32VW55x_RELEASE_V1.0.2/MSDK/wpa_supplicant/src/ap\neighbor_db.c **** 
 141:C:/Users/stapi/OneDrive/Desktop/GD32VW553/V1_MQTT_OK/GD32VW55X_Wifi_BLE_SDK/GD32VW55x_RELEASE_V1.0.2/MSDK/wpa_supplicant/src/ap\neighbor_db.c **** 	entry->nr = wpabuf_dup(nr);
 142:C:/Users/stapi/OneDrive/Desktop/GD32VW553/V1_MQTT_OK/GD32VW55X_Wifi_BLE_SDK/GD32VW55x_RELEASE_V1.0.2/MSDK/wpa_supplicant/src/ap\neighbor_db.c **** 	if (!entry->nr)
 143:C:/Users/stapi/OneDrive/Desktop/GD32VW553/V1_MQTT_OK/GD32VW55X_Wifi_BLE_SDK/GD32VW55x_RELEASE_V1.0.2/MSDK/wpa_supplicant/src/ap\neighbor_db.c **** 		goto fail;
 144:C:/Users/stapi/OneDrive/Desktop/GD32VW553/V1_MQTT_OK/GD32VW55X_Wifi_BLE_SDK/GD32VW55x_RELEASE_V1.0.2/MSDK/wpa_supplicant/src/ap\neighbor_db.c **** 
 145:C:/Users/stapi/OneDrive/Desktop/GD32VW553/V1_MQTT_OK/GD32VW55X_Wifi_BLE_SDK/GD32VW55x_RELEASE_V1.0.2/MSDK/wpa_supplicant/src/ap\neighbor_db.c **** 	if (lci && wpabuf_len(lci)) {
 146:C:/Users/stapi/OneDrive/Desktop/GD32VW553/V1_MQTT_OK/GD32VW55X_Wifi_BLE_SDK/GD32VW55x_RELEASE_V1.0.2/MSDK/wpa_supplicant/src/ap\neighbor_db.c **** 		entry->lci = wpabuf_dup(lci);
 147:C:/Users/stapi/OneDrive/Desktop/GD32VW553/V1_MQTT_OK/GD32VW55X_Wifi_BLE_SDK/GD32VW55x_RELEASE_V1.0.2/MSDK/wpa_supplicant/src/ap\neighbor_db.c **** 		if (!entry->lci || os_get_time(&entry->lci_date))
 148:C:/Users/stapi/OneDrive/Desktop/GD32VW553/V1_MQTT_OK/GD32VW55X_Wifi_BLE_SDK/GD32VW55x_RELEASE_V1.0.2/MSDK/wpa_supplicant/src/ap\neighbor_db.c **** 			goto fail;
 149:C:/Users/stapi/OneDrive/Desktop/GD32VW553/V1_MQTT_OK/GD32VW55X_Wifi_BLE_SDK/GD32VW55x_RELEASE_V1.0.2/MSDK/wpa_supplicant/src/ap\neighbor_db.c **** 	}
 150:C:/Users/stapi/OneDrive/Desktop/GD32VW553/V1_MQTT_OK/GD32VW55X_Wifi_BLE_SDK/GD32VW55x_RELEASE_V1.0.2/MSDK/wpa_supplicant/src/ap\neighbor_db.c **** 
 151:C:/Users/stapi/OneDrive/Desktop/GD32VW553/V1_MQTT_OK/GD32VW55X_Wifi_BLE_SDK/GD32VW55x_RELEASE_V1.0.2/MSDK/wpa_supplicant/src/ap\neighbor_db.c **** 	if (civic && wpabuf_len(civic)) {
 152:C:/Users/stapi/OneDrive/Desktop/GD32VW553/V1_MQTT_OK/GD32VW55X_Wifi_BLE_SDK/GD32VW55x_RELEASE_V1.0.2/MSDK/wpa_supplicant/src/ap\neighbor_db.c **** 		entry->civic = wpabuf_dup(civic);
 153:C:/Users/stapi/OneDrive/Desktop/GD32VW553/V1_MQTT_OK/GD32VW55X_Wifi_BLE_SDK/GD32VW55x_RELEASE_V1.0.2/MSDK/wpa_supplicant/src/ap\neighbor_db.c **** 		if (!entry->civic)
 154:C:/Users/stapi/OneDrive/Desktop/GD32VW553/V1_MQTT_OK/GD32VW55X_Wifi_BLE_SDK/GD32VW55x_RELEASE_V1.0.2/MSDK/wpa_supplicant/src/ap\neighbor_db.c **** 			goto fail;
 155:C:/Users/stapi/OneDrive/Desktop/GD32VW553/V1_MQTT_OK/GD32VW55X_Wifi_BLE_SDK/GD32VW55x_RELEASE_V1.0.2/MSDK/wpa_supplicant/src/ap\neighbor_db.c **** 	}
 156:C:/Users/stapi/OneDrive/Desktop/GD32VW553/V1_MQTT_OK/GD32VW55X_Wifi_BLE_SDK/GD32VW55x_RELEASE_V1.0.2/MSDK/wpa_supplicant/src/ap\neighbor_db.c **** 
 157:C:/Users/stapi/OneDrive/Desktop/GD32VW553/V1_MQTT_OK/GD32VW55X_Wifi_BLE_SDK/GD32VW55x_RELEASE_V1.0.2/MSDK/wpa_supplicant/src/ap\neighbor_db.c **** 	entry->stationary = stationary;
 158:C:/Users/stapi/OneDrive/Desktop/GD32VW553/V1_MQTT_OK/GD32VW55X_Wifi_BLE_SDK/GD32VW55x_RELEASE_V1.0.2/MSDK/wpa_supplicant/src/ap\neighbor_db.c **** 	entry->bss_parameters = bss_parameters;
 159:C:/Users/stapi/OneDrive/Desktop/GD32VW553/V1_MQTT_OK/GD32VW55X_Wifi_BLE_SDK/GD32VW55x_RELEASE_V1.0.2/MSDK/wpa_supplicant/src/ap\neighbor_db.c **** 
 160:C:/Users/stapi/OneDrive/Desktop/GD32VW553/V1_MQTT_OK/GD32VW55X_Wifi_BLE_SDK/GD32VW55x_RELEASE_V1.0.2/MSDK/wpa_supplicant/src/ap\neighbor_db.c **** 	return 0;
 161:C:/Users/stapi/OneDrive/Desktop/GD32VW553/V1_MQTT_OK/GD32VW55X_Wifi_BLE_SDK/GD32VW55x_RELEASE_V1.0.2/MSDK/wpa_supplicant/src/ap\neighbor_db.c **** 
 162:C:/Users/stapi/OneDrive/Desktop/GD32VW553/V1_MQTT_OK/GD32VW55X_Wifi_BLE_SDK/GD32VW55x_RELEASE_V1.0.2/MSDK/wpa_supplicant/src/ap\neighbor_db.c **** fail:
 163:C:/Users/stapi/OneDrive/Desktop/GD32VW553/V1_MQTT_OK/GD32VW55X_Wifi_BLE_SDK/GD32VW55x_RELEASE_V1.0.2/MSDK/wpa_supplicant/src/ap\neighbor_db.c **** 	hostapd_neighbor_remove(hapd, bssid, ssid);
 164:C:/Users/stapi/OneDrive/Desktop/GD32VW553/V1_MQTT_OK/GD32VW55X_Wifi_BLE_SDK/GD32VW55x_RELEASE_V1.0.2/MSDK/wpa_supplicant/src/ap\neighbor_db.c **** 	return -1;
 165:C:/Users/stapi/OneDrive/Desktop/GD32VW553/V1_MQTT_OK/GD32VW55X_Wifi_BLE_SDK/GD32VW55x_RELEASE_V1.0.2/MSDK/wpa_supplicant/src/ap\neighbor_db.c **** }
 166:C:/Users/stapi/OneDrive/Desktop/GD32VW553/V1_MQTT_OK/GD32VW55X_Wifi_BLE_SDK/GD32VW55x_RELEASE_V1.0.2/MSDK/wpa_supplicant/src/ap\neighbor_db.c **** 
 167:C:/Users/stapi/OneDrive/Desktop/GD32VW553/V1_MQTT_OK/GD32VW55X_Wifi_BLE_SDK/GD32VW55x_RELEASE_V1.0.2/MSDK/wpa_supplicant/src/ap\neighbor_db.c **** 
 168:C:/Users/stapi/OneDrive/Desktop/GD32VW553/V1_MQTT_OK/GD32VW55X_Wifi_BLE_SDK/GD32VW55x_RELEASE_V1.0.2/MSDK/wpa_supplicant/src/ap\neighbor_db.c **** int hostapd_neighbor_remove(struct hostapd_data *hapd, const u8 *bssid,
 169:C:/Users/stapi/OneDrive/Desktop/GD32VW553/V1_MQTT_OK/GD32VW55X_Wifi_BLE_SDK/GD32VW55x_RELEASE_V1.0.2/MSDK/wpa_supplicant/src/ap\neighbor_db.c **** 			    const struct wpa_ssid_value *ssid)
 170:C:/Users/stapi/OneDrive/Desktop/GD32VW553/V1_MQTT_OK/GD32VW55X_Wifi_BLE_SDK/GD32VW55x_RELEASE_V1.0.2/MSDK/wpa_supplicant/src/ap\neighbor_db.c **** {
 493              		.loc 1 170 1 is_stmt 1
 494              		.cfi_startproc
 495              	.LVL35:
 496 0000 17030000 		call	t0,__riscv_save_1
 496      E7020300 
 497              		.cfi_offset 8, -8
 498              		.cfi_offset 1, -4
 499              		.cfi_def_cfa_offset 16
 171:C:/Users/stapi/OneDrive/Desktop/GD32VW553/V1_MQTT_OK/GD32VW55X_Wifi_BLE_SDK/GD32VW55x_RELEASE_V1.0.2/MSDK/wpa_supplicant/src/ap\neighbor_db.c **** 	struct hostapd_neighbor_entry *nr;
 500              		.loc 1 171 2
 172:C:/Users/stapi/OneDrive/Desktop/GD32VW553/V1_MQTT_OK/GD32VW55X_Wifi_BLE_SDK/GD32VW55x_RELEASE_V1.0.2/MSDK/wpa_supplicant/src/ap\neighbor_db.c **** 
 173:C:/Users/stapi/OneDrive/Desktop/GD32VW553/V1_MQTT_OK/GD32VW55X_Wifi_BLE_SDK/GD32VW55x_RELEASE_V1.0.2/MSDK/wpa_supplicant/src/ap\neighbor_db.c **** 	nr = hostapd_neighbor_get(hapd, bssid, ssid);
 501              		.loc 1 173 2
 502              		.loc 1 173 7 is_stmt 0
 503 0008 97000000 		call	hostapd_neighbor_get
 503      E7800000 
 504              	.LVL36:
 174:C:/Users/stapi/OneDrive/Desktop/GD32VW553/V1_MQTT_OK/GD32VW55X_Wifi_BLE_SDK/GD32VW55x_RELEASE_V1.0.2/MSDK/wpa_supplicant/src/ap\neighbor_db.c **** 	if (!nr)
 505              		.loc 1 174 2 is_stmt 1
 506              		.loc 1 174 5 is_stmt 0
 507 0010 05C9     		beq	a0,zero,.L46
 508 0012 2A84     		mv	s0,a0
 175:C:/Users/stapi/OneDrive/Desktop/GD32VW553/V1_MQTT_OK/GD32VW55X_Wifi_BLE_SDK/GD32VW55x_RELEASE_V1.0.2/MSDK/wpa_supplicant/src/ap\neighbor_db.c **** 		return -1;
 176:C:/Users/stapi/OneDrive/Desktop/GD32VW553/V1_MQTT_OK/GD32VW55X_Wifi_BLE_SDK/GD32VW55x_RELEASE_V1.0.2/MSDK/wpa_supplicant/src/ap\neighbor_db.c **** 
 177:C:/Users/stapi/OneDrive/Desktop/GD32VW553/V1_MQTT_OK/GD32VW55X_Wifi_BLE_SDK/GD32VW55x_RELEASE_V1.0.2/MSDK/wpa_supplicant/src/ap\neighbor_db.c **** 	hostapd_neighbor_clear_entry(nr);
 509              		.loc 1 177 2 is_stmt 1
 510 0014 97000000 		call	hostapd_neighbor_clear_entry
 510      E7800000 
 511              	.LVL37:
 178:C:/Users/stapi/OneDrive/Desktop/GD32VW553/V1_MQTT_OK/GD32VW55X_Wifi_BLE_SDK/GD32VW55x_RELEASE_V1.0.2/MSDK/wpa_supplicant/src/ap\neighbor_db.c **** 	dl_list_del(&nr->list);
 512              		.loc 1 178 2
 513              	.LBB44:
 514              	.LBB45:
 515              		.file 4 "..\\..\\..\\..\\wpa_supplicant\\src/utils/list.h"
   1:..\..\..\..\wpa_supplicant\src/utils/list.h **** /*
   2:..\..\..\..\wpa_supplicant\src/utils/list.h ****  * Doubly-linked list
   3:..\..\..\..\wpa_supplicant\src/utils/list.h ****  * Copyright (c) 2009-2019, Jouni Malinen <j@w1.fi>
   4:..\..\..\..\wpa_supplicant\src/utils/list.h ****  *
   5:..\..\..\..\wpa_supplicant\src/utils/list.h ****  * This software may be distributed under the terms of the BSD license.
   6:..\..\..\..\wpa_supplicant\src/utils/list.h ****  * See README for more details.
   7:..\..\..\..\wpa_supplicant\src/utils/list.h ****  */
   8:..\..\..\..\wpa_supplicant\src/utils/list.h **** 
   9:..\..\..\..\wpa_supplicant\src/utils/list.h **** #ifndef DL_LIST_H
  10:..\..\..\..\wpa_supplicant\src/utils/list.h **** #define DL_LIST_H
  11:..\..\..\..\wpa_supplicant\src/utils/list.h **** 
  12:..\..\..\..\wpa_supplicant\src/utils/list.h **** /**
  13:..\..\..\..\wpa_supplicant\src/utils/list.h ****  * struct dl_list - Doubly-linked list
  14:..\..\..\..\wpa_supplicant\src/utils/list.h ****  */
  15:..\..\..\..\wpa_supplicant\src/utils/list.h **** struct dl_list {
  16:..\..\..\..\wpa_supplicant\src/utils/list.h **** 	struct dl_list *next;
  17:..\..\..\..\wpa_supplicant\src/utils/list.h **** 	struct dl_list *prev;
  18:..\..\..\..\wpa_supplicant\src/utils/list.h **** };
  19:..\..\..\..\wpa_supplicant\src/utils/list.h **** 
  20:..\..\..\..\wpa_supplicant\src/utils/list.h **** #define DL_LIST_HEAD_INIT(l) { &(l), &(l) }
  21:..\..\..\..\wpa_supplicant\src/utils/list.h **** 
  22:..\..\..\..\wpa_supplicant\src/utils/list.h **** static inline void dl_list_init(struct dl_list *list)
  23:..\..\..\..\wpa_supplicant\src/utils/list.h **** {
  24:..\..\..\..\wpa_supplicant\src/utils/list.h **** 	list->next = list;
  25:..\..\..\..\wpa_supplicant\src/utils/list.h **** 	list->prev = list;
  26:..\..\..\..\wpa_supplicant\src/utils/list.h **** }
  27:..\..\..\..\wpa_supplicant\src/utils/list.h **** 
  28:..\..\..\..\wpa_supplicant\src/utils/list.h **** static inline void dl_list_add(struct dl_list *list, struct dl_list *item)
  29:..\..\..\..\wpa_supplicant\src/utils/list.h **** {
  30:..\..\..\..\wpa_supplicant\src/utils/list.h **** 	item->next = list->next;
  31:..\..\..\..\wpa_supplicant\src/utils/list.h **** 	item->prev = list;
  32:..\..\..\..\wpa_supplicant\src/utils/list.h **** 	list->next->prev = item;
  33:..\..\..\..\wpa_supplicant\src/utils/list.h **** 	list->next = item;
  34:..\..\..\..\wpa_supplicant\src/utils/list.h **** }
  35:..\..\..\..\wpa_supplicant\src/utils/list.h **** 
  36:..\..\..\..\wpa_supplicant\src/utils/list.h **** static inline void dl_list_add_tail(struct dl_list *list, struct dl_list *item)
  37:..\..\..\..\wpa_supplicant\src/utils/list.h **** {
  38:..\..\..\..\wpa_supplicant\src/utils/list.h **** 	dl_list_add(list->prev, item);
  39:..\..\..\..\wpa_supplicant\src/utils/list.h **** }
  40:..\..\..\..\wpa_supplicant\src/utils/list.h **** 
  41:..\..\..\..\wpa_supplicant\src/utils/list.h **** static inline void dl_list_del(struct dl_list *item)
  42:..\..\..\..\wpa_supplicant\src/utils/list.h **** {
  43:..\..\..\..\wpa_supplicant\src/utils/list.h **** 	item->next->prev = item->prev;
 516              		.loc 4 43 2
 517              		.loc 4 43 6 is_stmt 0
 518 001c 1840     		lw	a4,0(s0)
 519              		.loc 4 43 25
 520 001e 5C40     		lw	a5,4(s0)
 521              	.LBE45:
 522              	.LBE44:
 179:C:/Users/stapi/OneDrive/Desktop/GD32VW553/V1_MQTT_OK/GD32VW55X_Wifi_BLE_SDK/GD32VW55x_RELEASE_V1.0.2/MSDK/wpa_supplicant/src/ap\neighbor_db.c **** 	os_free(nr);
 523              		.loc 1 179 2
 524 0020 2285     		mv	a0,s0
 525              	.LBB47:
 526              	.LBB46:
 527              		.loc 4 43 19
 528 0022 5CC3     		sw	a5,4(a4)
  44:..\..\..\..\wpa_supplicant\src/utils/list.h **** 	item->prev->next = item->next;
 529              		.loc 4 44 2 is_stmt 1
 530              		.loc 4 44 19 is_stmt 0
 531 0024 98C3     		sw	a4,0(a5)
  45:..\..\..\..\wpa_supplicant\src/utils/list.h **** 	item->next = NULL;
 532              		.loc 4 45 2 is_stmt 1
 533              		.loc 4 45 13 is_stmt 0
 534 0026 23200400 		sw	zero,0(s0)
  46:..\..\..\..\wpa_supplicant\src/utils/list.h **** 	item->prev = NULL;
 535              		.loc 4 46 2 is_stmt 1
 536              		.loc 4 46 13 is_stmt 0
 537 002a 23220400 		sw	zero,4(s0)
 538              	.LVL38:
 539              	.LBE46:
 540              	.LBE47:
 541              		.loc 1 179 2 is_stmt 1
 542 002e 97000000 		call	os_free
 542      E7800000 
 543              	.LVL39:
 180:C:/Users/stapi/OneDrive/Desktop/GD32VW553/V1_MQTT_OK/GD32VW55X_Wifi_BLE_SDK/GD32VW55x_RELEASE_V1.0.2/MSDK/wpa_supplicant/src/ap\neighbor_db.c **** 
 181:C:/Users/stapi/OneDrive/Desktop/GD32VW553/V1_MQTT_OK/GD32VW55X_Wifi_BLE_SDK/GD32VW55x_RELEASE_V1.0.2/MSDK/wpa_supplicant/src/ap\neighbor_db.c **** 	return 0;
 544              		.loc 1 181 2
 545              		.loc 1 181 9 is_stmt 0
 546 0036 0145     		li	a0,0
 547              	.LVL40:
 548              	.L44:
 182:C:/Users/stapi/OneDrive/Desktop/GD32VW553/V1_MQTT_OK/GD32VW55X_Wifi_BLE_SDK/GD32VW55x_RELEASE_V1.0.2/MSDK/wpa_supplicant/src/ap\neighbor_db.c **** }
 549              		.loc 1 182 1
 550 0038 17030000 		tail	__riscv_restore_1
 550      67000300 
 551              		.cfi_remember_state
 552              		.cfi_restore 8
 553              		.cfi_restore 1
 554              		.cfi_def_cfa_offset 0
 555              	.LVL41:
 556              	.L46:
 557              		.cfi_restore_state
 175:C:/Users/stapi/OneDrive/Desktop/GD32VW553/V1_MQTT_OK/GD32VW55X_Wifi_BLE_SDK/GD32VW55x_RELEASE_V1.0.2/MSDK/wpa_supplicant/src/ap\neighbor_db.c **** 
 558              		.loc 1 175 10
 559 0040 7D55     		li	a0,-1
 560              	.LVL42:
 561 0042 DDBF     		j	.L44
 562              		.cfi_endproc
 563              	.LFE142:
 565              		.section	.text.hostapd_neighbor_set,"ax",@progbits
 566              		.align	1
 567              		.globl	hostapd_neighbor_set
 569              	hostapd_neighbor_set:
 570              	.LFB141:
 126:C:/Users/stapi/OneDrive/Desktop/GD32VW553/V1_MQTT_OK/GD32VW55X_Wifi_BLE_SDK/GD32VW55x_RELEASE_V1.0.2/MSDK/wpa_supplicant/src/ap\neighbor_db.c **** 	struct hostapd_neighbor_entry *entry;
 571              		.loc 1 126 1 is_stmt 1
 572              		.cfi_startproc
 573              	.LVL43:
 574 0000 17030000 		call	t0,__riscv_save_9
 574      E7020300 
 575              		.cfi_offset 24, -40
 576              		.cfi_offset 23, -36
 577              		.cfi_offset 22, -32
 578              		.cfi_offset 21, -28
 579              		.cfi_offset 20, -24
 580              		.cfi_offset 19, -20
 581              		.cfi_offset 18, -16
 582              		.cfi_offset 9, -12
 583              		.cfi_offset 8, -8
 584              		.cfi_offset 1, -4
 585              		.cfi_def_cfa_offset 48
 127:C:/Users/stapi/OneDrive/Desktop/GD32VW553/V1_MQTT_OK/GD32VW55X_Wifi_BLE_SDK/GD32VW55x_RELEASE_V1.0.2/MSDK/wpa_supplicant/src/ap\neighbor_db.c **** 
 586              		.loc 1 127 2
 129:C:/Users/stapi/OneDrive/Desktop/GD32VW553/V1_MQTT_OK/GD32VW55X_Wifi_BLE_SDK/GD32VW55x_RELEASE_V1.0.2/MSDK/wpa_supplicant/src/ap\neighbor_db.c **** 	if (!entry)
 587              		.loc 1 129 2
 126:C:/Users/stapi/OneDrive/Desktop/GD32VW553/V1_MQTT_OK/GD32VW55X_Wifi_BLE_SDK/GD32VW55x_RELEASE_V1.0.2/MSDK/wpa_supplicant/src/ap\neighbor_db.c **** 	struct hostapd_neighbor_entry *entry;
 588              		.loc 1 126 1 is_stmt 0
 589 0008 2A89     		mv	s2,a0
 590 000a AE8A     		mv	s5,a1
 591 000c B284     		mv	s1,a2
 592 000e 368C     		mv	s8,a3
 593 0010 BA89     		mv	s3,a4
 594 0012 3E8A     		mv	s4,a5
 595 0014 428B     		mv	s6,a6
 596 0016 C68B     		mv	s7,a7
 129:C:/Users/stapi/OneDrive/Desktop/GD32VW553/V1_MQTT_OK/GD32VW55X_Wifi_BLE_SDK/GD32VW55x_RELEASE_V1.0.2/MSDK/wpa_supplicant/src/ap\neighbor_db.c **** 	if (!entry)
 597              		.loc 1 129 10
 598 0018 97000000 		call	hostapd_neighbor_get
 598      E7800000 
 599              	.LVL44:
 130:C:/Users/stapi/OneDrive/Desktop/GD32VW553/V1_MQTT_OK/GD32VW55X_Wifi_BLE_SDK/GD32VW55x_RELEASE_V1.0.2/MSDK/wpa_supplicant/src/ap\neighbor_db.c **** 		entry = hostapd_neighbor_add(hapd);
 600              		.loc 1 130 2 is_stmt 1
 601 0020 2A84     		mv	s0,a0
 130:C:/Users/stapi/OneDrive/Desktop/GD32VW553/V1_MQTT_OK/GD32VW55X_Wifi_BLE_SDK/GD32VW55x_RELEASE_V1.0.2/MSDK/wpa_supplicant/src/ap\neighbor_db.c **** 		entry = hostapd_neighbor_add(hapd);
 602              		.loc 1 130 5 is_stmt 0
 603 0022 1DE5     		bne	a0,zero,.L49
 131:C:/Users/stapi/OneDrive/Desktop/GD32VW553/V1_MQTT_OK/GD32VW55X_Wifi_BLE_SDK/GD32VW55x_RELEASE_V1.0.2/MSDK/wpa_supplicant/src/ap\neighbor_db.c **** 	if (!entry)
 604              		.loc 1 131 3 is_stmt 1
 605              	.LVL45:
 606              	.LBB56:
 607              	.LBB57:
 109:C:/Users/stapi/OneDrive/Desktop/GD32VW553/V1_MQTT_OK/GD32VW55X_Wifi_BLE_SDK/GD32VW55x_RELEASE_V1.0.2/MSDK/wpa_supplicant/src/ap\neighbor_db.c **** 
 608              		.loc 1 109 2
 111:C:/Users/stapi/OneDrive/Desktop/GD32VW553/V1_MQTT_OK/GD32VW55X_Wifi_BLE_SDK/GD32VW55x_RELEASE_V1.0.2/MSDK/wpa_supplicant/src/ap\neighbor_db.c **** 	if (!nr)
 609              		.loc 1 111 2
 111:C:/Users/stapi/OneDrive/Desktop/GD32VW553/V1_MQTT_OK/GD32VW55X_Wifi_BLE_SDK/GD32VW55x_RELEASE_V1.0.2/MSDK/wpa_supplicant/src/ap\neighbor_db.c **** 	if (!nr)
 610              		.loc 1 111 7 is_stmt 0
 611 0024 13054005 		li	a0,84
 612              	.LVL46:
 613 0028 97000000 		call	os_zalloc
 613      E7800000 
 614              	.LVL47:
 615 0030 2A84     		mv	s0,a0
 616              	.LVL48:
 112:C:/Users/stapi/OneDrive/Desktop/GD32VW553/V1_MQTT_OK/GD32VW55X_Wifi_BLE_SDK/GD32VW55x_RELEASE_V1.0.2/MSDK/wpa_supplicant/src/ap\neighbor_db.c **** 		return NULL;
 617              		.loc 1 112 2 is_stmt 1
 618              	.LBE57:
 619              	.LBE56:
 133:C:/Users/stapi/OneDrive/Desktop/GD32VW553/V1_MQTT_OK/GD32VW55X_Wifi_BLE_SDK/GD32VW55x_RELEASE_V1.0.2/MSDK/wpa_supplicant/src/ap\neighbor_db.c **** 
 620              		.loc 1 133 10 is_stmt 0
 621 0032 7D55     		li	a0,-1
 622              	.LBB63:
 623              	.LBB62:
 112:C:/Users/stapi/OneDrive/Desktop/GD32VW553/V1_MQTT_OK/GD32VW55X_Wifi_BLE_SDK/GD32VW55x_RELEASE_V1.0.2/MSDK/wpa_supplicant/src/ap\neighbor_db.c **** 		return NULL;
 624              		.loc 1 112 5
 625 0034 3DC8     		beq	s0,zero,.L48
 115:C:/Users/stapi/OneDrive/Desktop/GD32VW553/V1_MQTT_OK/GD32VW55X_Wifi_BLE_SDK/GD32VW55x_RELEASE_V1.0.2/MSDK/wpa_supplicant/src/ap\neighbor_db.c **** 
 626              		.loc 1 115 2 is_stmt 1
 627              	.LVL49:
 628              	.LBB58:
 629              	.LBB59:
  30:..\..\..\..\wpa_supplicant\src/utils/list.h **** 	item->prev = list;
 630              		.loc 4 30 2
  30:..\..\..\..\wpa_supplicant\src/utils/list.h **** 	item->prev = list;
 631              		.loc 4 30 19 is_stmt 0
 632 0036 0566     		li	a2,4096
 633 0038 B307C900 		add	a5,s2,a2
 634 003c 03A70786 		lw	a4,-1952(a5)
 635              	.LBE59:
 636              	.LBE58:
 115:C:/Users/stapi/OneDrive/Desktop/GD32VW553/V1_MQTT_OK/GD32VW55X_Wifi_BLE_SDK/GD32VW55x_RELEASE_V1.0.2/MSDK/wpa_supplicant/src/ap\neighbor_db.c **** 
 637              		.loc 1 115 2
 638 0040 13060686 		addi	a2,a2,-1952
 639 0044 4A96     		add	a2,s2,a2
 640              	.LBB61:
 641              	.LBB60:
  30:..\..\..\..\wpa_supplicant\src/utils/list.h **** 	item->prev = list;
 642              		.loc 4 30 13
 643 0046 18C0     		sw	a4,0(s0)
  31:..\..\..\..\wpa_supplicant\src/utils/list.h **** 	list->next->prev = item;
 644              		.loc 4 31 2 is_stmt 1
  31:..\..\..\..\wpa_supplicant\src/utils/list.h **** 	list->next->prev = item;
 645              		.loc 4 31 13 is_stmt 0
 646 0048 50C0     		sw	a2,4(s0)
  32:..\..\..\..\wpa_supplicant\src/utils/list.h **** 	list->next = item;
 647              		.loc 4 32 2 is_stmt 1
  32:..\..\..\..\wpa_supplicant\src/utils/list.h **** 	list->next = item;
 648              		.loc 4 32 19 is_stmt 0
 649 004a 40C3     		sw	s0,4(a4)
  33:..\..\..\..\wpa_supplicant\src/utils/list.h **** }
 650              		.loc 4 33 2 is_stmt 1
  33:..\..\..\..\wpa_supplicant\src/utils/list.h **** }
 651              		.loc 4 33 13 is_stmt 0
 652 004c 23A08786 		sw	s0,-1952(a5)
 653              	.LVL50:
 654              	.LBE60:
 655              	.LBE61:
 117:C:/Users/stapi/OneDrive/Desktop/GD32VW553/V1_MQTT_OK/GD32VW55X_Wifi_BLE_SDK/GD32VW55x_RELEASE_V1.0.2/MSDK/wpa_supplicant/src/ap\neighbor_db.c **** }
 656              		.loc 1 117 2 is_stmt 1
 657              	.L49:
 658              	.LBE62:
 659              	.LBE63:
 132:C:/Users/stapi/OneDrive/Desktop/GD32VW553/V1_MQTT_OK/GD32VW55X_Wifi_BLE_SDK/GD32VW55x_RELEASE_V1.0.2/MSDK/wpa_supplicant/src/ap\neighbor_db.c **** 		return -1;
 660              		.loc 1 132 2
 135:C:/Users/stapi/OneDrive/Desktop/GD32VW553/V1_MQTT_OK/GD32VW55X_Wifi_BLE_SDK/GD32VW55x_RELEASE_V1.0.2/MSDK/wpa_supplicant/src/ap\neighbor_db.c **** 
 661              		.loc 1 135 2
 662 0050 2285     		mv	a0,s0
 663 0052 97000000 		call	hostapd_neighbor_clear_entry
 663      E7800000 
 664              	.LVL51:
 137:C:/Users/stapi/OneDrive/Desktop/GD32VW553/V1_MQTT_OK/GD32VW55X_Wifi_BLE_SDK/GD32VW55x_RELEASE_V1.0.2/MSDK/wpa_supplicant/src/ap\neighbor_db.c **** 	os_memcpy(&entry->ssid, ssid, sizeof(entry->ssid));
 665              		.loc 1 137 2
 666 005a 1946     		li	a2,6
 667 005c D685     		mv	a1,s5
 668 005e 13058400 		addi	a0,s0,8
 669 0062 97000000 		call	os_memcpy
 669      E7800000 
 670              	.LVL52:
 138:C:/Users/stapi/OneDrive/Desktop/GD32VW553/V1_MQTT_OK/GD32VW55X_Wifi_BLE_SDK/GD32VW55x_RELEASE_V1.0.2/MSDK/wpa_supplicant/src/ap\neighbor_db.c **** 	entry->short_ssid = crc32(ssid->ssid, ssid->ssid_len);
 671              		.loc 1 138 2
 672 006a 13064002 		li	a2,36
 673 006e A685     		mv	a1,s1
 674 0070 13050401 		addi	a0,s0,16
 675 0074 97000000 		call	os_memcpy
 675      E7800000 
 676              	.LVL53:
 139:C:/Users/stapi/OneDrive/Desktop/GD32VW553/V1_MQTT_OK/GD32VW55X_Wifi_BLE_SDK/GD32VW55x_RELEASE_V1.0.2/MSDK/wpa_supplicant/src/ap\neighbor_db.c **** 
 677              		.loc 1 139 2
 139:C:/Users/stapi/OneDrive/Desktop/GD32VW553/V1_MQTT_OK/GD32VW55X_Wifi_BLE_SDK/GD32VW55x_RELEASE_V1.0.2/MSDK/wpa_supplicant/src/ap\neighbor_db.c **** 
 678              		.loc 1 139 22 is_stmt 0
 679 007c 8C50     		lw	a1,32(s1)
 680 007e 2685     		mv	a0,s1
 681 0080 97000000 		call	crc32
 681      E7800000 
 682              	.LVL54:
 139:C:/Users/stapi/OneDrive/Desktop/GD32VW553/V1_MQTT_OK/GD32VW55X_Wifi_BLE_SDK/GD32VW55x_RELEASE_V1.0.2/MSDK/wpa_supplicant/src/ap\neighbor_db.c **** 
 683              		.loc 1 139 20
 684 0088 68C4     		sw	a0,76(s0)
 141:C:/Users/stapi/OneDrive/Desktop/GD32VW553/V1_MQTT_OK/GD32VW55X_Wifi_BLE_SDK/GD32VW55x_RELEASE_V1.0.2/MSDK/wpa_supplicant/src/ap\neighbor_db.c **** 	if (!entry->nr)
 685              		.loc 1 141 2 is_stmt 1
 141:C:/Users/stapi/OneDrive/Desktop/GD32VW553/V1_MQTT_OK/GD32VW55X_Wifi_BLE_SDK/GD32VW55x_RELEASE_V1.0.2/MSDK/wpa_supplicant/src/ap\neighbor_db.c **** 	if (!entry->nr)
 686              		.loc 1 141 14 is_stmt 0
 687 008a 6285     		mv	a0,s8
 688 008c 97000000 		call	wpabuf_dup
 688      E7800000 
 689              	.LVL55:
 141:C:/Users/stapi/OneDrive/Desktop/GD32VW553/V1_MQTT_OK/GD32VW55X_Wifi_BLE_SDK/GD32VW55x_RELEASE_V1.0.2/MSDK/wpa_supplicant/src/ap\neighbor_db.c **** 	if (!entry->nr)
 690              		.loc 1 141 12
 691 0094 48D8     		sw	a0,52(s0)
 142:C:/Users/stapi/OneDrive/Desktop/GD32VW553/V1_MQTT_OK/GD32VW55X_Wifi_BLE_SDK/GD32VW55x_RELEASE_V1.0.2/MSDK/wpa_supplicant/src/ap\neighbor_db.c **** 		goto fail;
 692              		.loc 1 142 2 is_stmt 1
 142:C:/Users/stapi/OneDrive/Desktop/GD32VW553/V1_MQTT_OK/GD32VW55X_Wifi_BLE_SDK/GD32VW55x_RELEASE_V1.0.2/MSDK/wpa_supplicant/src/ap\neighbor_db.c **** 		goto fail;
 693              		.loc 1 142 5 is_stmt 0
 694 0096 1DCD     		beq	a0,zero,.L55
 145:C:/Users/stapi/OneDrive/Desktop/GD32VW553/V1_MQTT_OK/GD32VW55X_Wifi_BLE_SDK/GD32VW55x_RELEASE_V1.0.2/MSDK/wpa_supplicant/src/ap\neighbor_db.c **** 		entry->lci = wpabuf_dup(lci);
 695              		.loc 1 145 2 is_stmt 1
 145:C:/Users/stapi/OneDrive/Desktop/GD32VW553/V1_MQTT_OK/GD32VW55X_Wifi_BLE_SDK/GD32VW55x_RELEASE_V1.0.2/MSDK/wpa_supplicant/src/ap\neighbor_db.c **** 		entry->lci = wpabuf_dup(lci);
 696              		.loc 1 145 5 is_stmt 0
 697 0098 639D0900 		bne	s3,zero,.L51
 698              	.L54:
 151:C:/Users/stapi/OneDrive/Desktop/GD32VW553/V1_MQTT_OK/GD32VW55X_Wifi_BLE_SDK/GD32VW55x_RELEASE_V1.0.2/MSDK/wpa_supplicant/src/ap\neighbor_db.c **** 		entry->civic = wpabuf_dup(civic);
 699              		.loc 1 151 2 is_stmt 1
 151:C:/Users/stapi/OneDrive/Desktop/GD32VW553/V1_MQTT_OK/GD32VW55X_Wifi_BLE_SDK/GD32VW55x_RELEASE_V1.0.2/MSDK/wpa_supplicant/src/ap\neighbor_db.c **** 		entry->civic = wpabuf_dup(civic);
 700              		.loc 1 151 5 is_stmt 0
 701 009c 63150A04 		bne	s4,zero,.L52
 702              	.L53:
 157:C:/Users/stapi/OneDrive/Desktop/GD32VW553/V1_MQTT_OK/GD32VW55X_Wifi_BLE_SDK/GD32VW55x_RELEASE_V1.0.2/MSDK/wpa_supplicant/src/ap\neighbor_db.c **** 	entry->bss_parameters = bss_parameters;
 703              		.loc 1 157 2 is_stmt 1
 157:C:/Users/stapi/OneDrive/Desktop/GD32VW553/V1_MQTT_OK/GD32VW55X_Wifi_BLE_SDK/GD32VW55x_RELEASE_V1.0.2/MSDK/wpa_supplicant/src/ap\neighbor_db.c **** 	entry->bss_parameters = bss_parameters;
 704              		.loc 1 157 20 is_stmt 0
 705 00a0 23246405 		sw	s6,72(s0)
 158:C:/Users/stapi/OneDrive/Desktop/GD32VW553/V1_MQTT_OK/GD32VW55X_Wifi_BLE_SDK/GD32VW55x_RELEASE_V1.0.2/MSDK/wpa_supplicant/src/ap\neighbor_db.c **** 
 706              		.loc 1 158 2 is_stmt 1
 158:C:/Users/stapi/OneDrive/Desktop/GD32VW553/V1_MQTT_OK/GD32VW55X_Wifi_BLE_SDK/GD32VW55x_RELEASE_V1.0.2/MSDK/wpa_supplicant/src/ap\neighbor_db.c **** 
 707              		.loc 1 158 24 is_stmt 0
 708 00a4 23087405 		sb	s7,80(s0)
 160:C:/Users/stapi/OneDrive/Desktop/GD32VW553/V1_MQTT_OK/GD32VW55X_Wifi_BLE_SDK/GD32VW55x_RELEASE_V1.0.2/MSDK/wpa_supplicant/src/ap\neighbor_db.c **** 
 709              		.loc 1 160 2 is_stmt 1
 160:C:/Users/stapi/OneDrive/Desktop/GD32VW553/V1_MQTT_OK/GD32VW55X_Wifi_BLE_SDK/GD32VW55x_RELEASE_V1.0.2/MSDK/wpa_supplicant/src/ap\neighbor_db.c **** 
 710              		.loc 1 160 9 is_stmt 0
 711 00a8 0145     		li	a0,0
 712              	.LVL56:
 713              	.L48:
 165:C:/Users/stapi/OneDrive/Desktop/GD32VW553/V1_MQTT_OK/GD32VW55X_Wifi_BLE_SDK/GD32VW55x_RELEASE_V1.0.2/MSDK/wpa_supplicant/src/ap\neighbor_db.c **** 
 714              		.loc 1 165 1
 715 00aa 17030000 		tail	__riscv_restore_9
 715      67000300 
 716              		.cfi_remember_state
 717              		.cfi_restore 24
 718              		.cfi_restore 23
 719              		.cfi_restore 22
 720              		.cfi_restore 21
 721              		.cfi_restore 20
 722              		.cfi_restore 19
 723              		.cfi_restore 18
 724              		.cfi_restore 9
 725              		.cfi_restore 8
 726              		.cfi_restore 1
 727              		.cfi_def_cfa_offset 0
 728              	.LVL57:
 729              	.L51:
 730              		.cfi_restore_state
 731              	.LBB64:
 732              	.LBB65:
  60:..\..\..\..\wpa_supplicant\src/utils/wpabuf.h **** }
 733              		.loc 2 60 2 is_stmt 1
 734              	.LBE65:
 735              	.LBE64:
 145:C:/Users/stapi/OneDrive/Desktop/GD32VW553/V1_MQTT_OK/GD32VW55X_Wifi_BLE_SDK/GD32VW55x_RELEASE_V1.0.2/MSDK/wpa_supplicant/src/ap\neighbor_db.c **** 		entry->lci = wpabuf_dup(lci);
 736              		.loc 1 145 10 is_stmt 0
 737 00b2 83A74900 		lw	a5,4(s3)
 738 00b6 FDD3     		beq	a5,zero,.L54
 146:C:/Users/stapi/OneDrive/Desktop/GD32VW553/V1_MQTT_OK/GD32VW55X_Wifi_BLE_SDK/GD32VW55x_RELEASE_V1.0.2/MSDK/wpa_supplicant/src/ap\neighbor_db.c **** 		if (!entry->lci || os_get_time(&entry->lci_date))
 739              		.loc 1 146 3 is_stmt 1
 146:C:/Users/stapi/OneDrive/Desktop/GD32VW553/V1_MQTT_OK/GD32VW55X_Wifi_BLE_SDK/GD32VW55x_RELEASE_V1.0.2/MSDK/wpa_supplicant/src/ap\neighbor_db.c **** 		if (!entry->lci || os_get_time(&entry->lci_date))
 740              		.loc 1 146 16 is_stmt 0
 741 00b8 4E85     		mv	a0,s3
 742 00ba 97000000 		call	wpabuf_dup
 742      E7800000 
 743              	.LVL58:
 146:C:/Users/stapi/OneDrive/Desktop/GD32VW553/V1_MQTT_OK/GD32VW55X_Wifi_BLE_SDK/GD32VW55x_RELEASE_V1.0.2/MSDK/wpa_supplicant/src/ap\neighbor_db.c **** 		if (!entry->lci || os_get_time(&entry->lci_date))
 744              		.loc 1 146 14
 745 00c2 08DC     		sw	a0,56(s0)
 147:C:/Users/stapi/OneDrive/Desktop/GD32VW553/V1_MQTT_OK/GD32VW55X_Wifi_BLE_SDK/GD32VW55x_RELEASE_V1.0.2/MSDK/wpa_supplicant/src/ap\neighbor_db.c **** 			goto fail;
 746              		.loc 1 147 3 is_stmt 1
 147:C:/Users/stapi/OneDrive/Desktop/GD32VW553/V1_MQTT_OK/GD32VW55X_Wifi_BLE_SDK/GD32VW55x_RELEASE_V1.0.2/MSDK/wpa_supplicant/src/ap\neighbor_db.c **** 			goto fail;
 747              		.loc 1 147 6 is_stmt 0
 748 00c4 01C9     		beq	a0,zero,.L55
 147:C:/Users/stapi/OneDrive/Desktop/GD32VW553/V1_MQTT_OK/GD32VW55X_Wifi_BLE_SDK/GD32VW55x_RELEASE_V1.0.2/MSDK/wpa_supplicant/src/ap\neighbor_db.c **** 			goto fail;
 749              		.loc 1 147 22 discriminator 1
 750 00c6 13050404 		addi	a0,s0,64
 751 00ca 97000000 		call	os_get_time
 751      E7800000 
 752              	.LVL59:
 147:C:/Users/stapi/OneDrive/Desktop/GD32VW553/V1_MQTT_OK/GD32VW55X_Wifi_BLE_SDK/GD32VW55x_RELEASE_V1.0.2/MSDK/wpa_supplicant/src/ap\neighbor_db.c **** 			goto fail;
 753              		.loc 1 147 19 discriminator 1
 754 00d2 69D5     		beq	a0,zero,.L54
 755              	.L55:
 756              	.LDL1:
 163:C:/Users/stapi/OneDrive/Desktop/GD32VW553/V1_MQTT_OK/GD32VW55X_Wifi_BLE_SDK/GD32VW55x_RELEASE_V1.0.2/MSDK/wpa_supplicant/src/ap\neighbor_db.c **** 	return -1;
 757              		.loc 1 163 2 is_stmt 1
 758 00d4 2686     		mv	a2,s1
 759 00d6 D685     		mv	a1,s5
 760 00d8 4A85     		mv	a0,s2
 761 00da 97000000 		call	hostapd_neighbor_remove
 761      E7800000 
 762              	.LVL60:
 164:C:/Users/stapi/OneDrive/Desktop/GD32VW553/V1_MQTT_OK/GD32VW55X_Wifi_BLE_SDK/GD32VW55x_RELEASE_V1.0.2/MSDK/wpa_supplicant/src/ap\neighbor_db.c **** }
 763              		.loc 1 164 2
 164:C:/Users/stapi/OneDrive/Desktop/GD32VW553/V1_MQTT_OK/GD32VW55X_Wifi_BLE_SDK/GD32VW55x_RELEASE_V1.0.2/MSDK/wpa_supplicant/src/ap\neighbor_db.c **** }
 764              		.loc 1 164 9 is_stmt 0
 765 00e2 7D55     		li	a0,-1
 766 00e4 D9B7     		j	.L48
 767              	.L52:
 768              	.LVL61:
 769              	.LBB66:
 770              	.LBB67:
  60:..\..\..\..\wpa_supplicant\src/utils/wpabuf.h **** }
 771              		.loc 2 60 2 is_stmt 1
 772              	.LBE67:
 773              	.LBE66:
 151:C:/Users/stapi/OneDrive/Desktop/GD32VW553/V1_MQTT_OK/GD32VW55X_Wifi_BLE_SDK/GD32VW55x_RELEASE_V1.0.2/MSDK/wpa_supplicant/src/ap\neighbor_db.c **** 		entry->civic = wpabuf_dup(civic);
 774              		.loc 1 151 12 is_stmt 0
 775 00e6 83274A00 		lw	a5,4(s4)
 776 00ea DDDB     		beq	a5,zero,.L53
 152:C:/Users/stapi/OneDrive/Desktop/GD32VW553/V1_MQTT_OK/GD32VW55X_Wifi_BLE_SDK/GD32VW55x_RELEASE_V1.0.2/MSDK/wpa_supplicant/src/ap\neighbor_db.c **** 		if (!entry->civic)
 777              		.loc 1 152 3 is_stmt 1
 152:C:/Users/stapi/OneDrive/Desktop/GD32VW553/V1_MQTT_OK/GD32VW55X_Wifi_BLE_SDK/GD32VW55x_RELEASE_V1.0.2/MSDK/wpa_supplicant/src/ap\neighbor_db.c **** 		if (!entry->civic)
 778              		.loc 1 152 18 is_stmt 0
 779 00ec 5285     		mv	a0,s4
 780 00ee 97000000 		call	wpabuf_dup
 780      E7800000 
 781              	.LVL62:
 152:C:/Users/stapi/OneDrive/Desktop/GD32VW553/V1_MQTT_OK/GD32VW55X_Wifi_BLE_SDK/GD32VW55x_RELEASE_V1.0.2/MSDK/wpa_supplicant/src/ap\neighbor_db.c **** 		if (!entry->civic)
 782              		.loc 1 152 16
 783 00f6 48DC     		sw	a0,60(s0)
 153:C:/Users/stapi/OneDrive/Desktop/GD32VW553/V1_MQTT_OK/GD32VW55X_Wifi_BLE_SDK/GD32VW55x_RELEASE_V1.0.2/MSDK/wpa_supplicant/src/ap\neighbor_db.c **** 			goto fail;
 784              		.loc 1 153 3 is_stmt 1
 153:C:/Users/stapi/OneDrive/Desktop/GD32VW553/V1_MQTT_OK/GD32VW55X_Wifi_BLE_SDK/GD32VW55x_RELEASE_V1.0.2/MSDK/wpa_supplicant/src/ap\neighbor_db.c **** 			goto fail;
 785              		.loc 1 153 6 is_stmt 0
 786 00f8 45F5     		bne	a0,zero,.L53
 787 00fa E9BF     		j	.L55
 788              		.cfi_endproc
 789              	.LFE141:
 791              		.section	.text.hostapd_free_neighbor_db,"ax",@progbits
 792              		.align	1
 793              		.globl	hostapd_free_neighbor_db
 795              	hostapd_free_neighbor_db:
 796              	.LFB143:
 183:C:/Users/stapi/OneDrive/Desktop/GD32VW553/V1_MQTT_OK/GD32VW55X_Wifi_BLE_SDK/GD32VW55x_RELEASE_V1.0.2/MSDK/wpa_supplicant/src/ap\neighbor_db.c **** 
 184:C:/Users/stapi/OneDrive/Desktop/GD32VW553/V1_MQTT_OK/GD32VW55X_Wifi_BLE_SDK/GD32VW55x_RELEASE_V1.0.2/MSDK/wpa_supplicant/src/ap\neighbor_db.c **** 
 185:C:/Users/stapi/OneDrive/Desktop/GD32VW553/V1_MQTT_OK/GD32VW55X_Wifi_BLE_SDK/GD32VW55x_RELEASE_V1.0.2/MSDK/wpa_supplicant/src/ap\neighbor_db.c **** void hostapd_free_neighbor_db(struct hostapd_data *hapd)
 186:C:/Users/stapi/OneDrive/Desktop/GD32VW553/V1_MQTT_OK/GD32VW55X_Wifi_BLE_SDK/GD32VW55x_RELEASE_V1.0.2/MSDK/wpa_supplicant/src/ap\neighbor_db.c **** {
 797              		.loc 1 186 1 is_stmt 1
 798              		.cfi_startproc
 799              	.LVL63:
 800 0000 17030000 		call	t0,__riscv_save_2
 800      E7020300 
 801              		.cfi_offset 9, -12
 802              		.cfi_offset 8, -8
 803              		.cfi_offset 1, -4
 804              		.cfi_def_cfa_offset 16
 187:C:/Users/stapi/OneDrive/Desktop/GD32VW553/V1_MQTT_OK/GD32VW55X_Wifi_BLE_SDK/GD32VW55x_RELEASE_V1.0.2/MSDK/wpa_supplicant/src/ap\neighbor_db.c **** 	struct hostapd_neighbor_entry *nr, *prev;
 805              		.loc 1 187 2
 188:C:/Users/stapi/OneDrive/Desktop/GD32VW553/V1_MQTT_OK/GD32VW55X_Wifi_BLE_SDK/GD32VW55x_RELEASE_V1.0.2/MSDK/wpa_supplicant/src/ap\neighbor_db.c **** 
 189:C:/Users/stapi/OneDrive/Desktop/GD32VW553/V1_MQTT_OK/GD32VW55X_Wifi_BLE_SDK/GD32VW55x_RELEASE_V1.0.2/MSDK/wpa_supplicant/src/ap\neighbor_db.c **** 	dl_list_for_each_safe(nr, prev, &hapd->nr_db,
 806              		.loc 1 189 2
 807 0008 0564     		li	s0,4096
 808 000a 33078500 		add	a4,a0,s0
 186:C:/Users/stapi/OneDrive/Desktop/GD32VW553/V1_MQTT_OK/GD32VW55X_Wifi_BLE_SDK/GD32VW55x_RELEASE_V1.0.2/MSDK/wpa_supplicant/src/ap\neighbor_db.c **** 	struct hostapd_neighbor_entry *nr, *prev;
 809              		.loc 1 186 1 is_stmt 0
 810 000e AA87     		mv	a5,a0
 811              		.loc 1 189 2
 812 0010 03250786 		lw	a0,-1952(a4)
 813              	.LVL64:
 814 0014 13040486 		addi	s0,s0,-1952
 186:C:/Users/stapi/OneDrive/Desktop/GD32VW553/V1_MQTT_OK/GD32VW55X_Wifi_BLE_SDK/GD32VW55x_RELEASE_V1.0.2/MSDK/wpa_supplicant/src/ap\neighbor_db.c **** 	struct hostapd_neighbor_entry *nr, *prev;
 815              		.loc 1 186 1
 816 0018 4111     		addi	sp,sp,-16
 817              		.cfi_def_cfa_offset 32
 818              		.loc 1 189 2
 819 001a 0441     		lw	s1,0(a0)
 820              	.LVL65:
 821 001c 3E94     		add	s0,a5,s0
 822              	.LVL66:
 823              	.L74:
 824              		.loc 1 189 2 is_stmt 1 discriminator 1
 825 001e 63178500 		bne	a0,s0,.L75
 190:C:/Users/stapi/OneDrive/Desktop/GD32VW553/V1_MQTT_OK/GD32VW55X_Wifi_BLE_SDK/GD32VW55x_RELEASE_V1.0.2/MSDK/wpa_supplicant/src/ap\neighbor_db.c **** 			      struct hostapd_neighbor_entry, list) {
 191:C:/Users/stapi/OneDrive/Desktop/GD32VW553/V1_MQTT_OK/GD32VW55X_Wifi_BLE_SDK/GD32VW55x_RELEASE_V1.0.2/MSDK/wpa_supplicant/src/ap\neighbor_db.c **** 		hostapd_neighbor_clear_entry(nr);
 192:C:/Users/stapi/OneDrive/Desktop/GD32VW553/V1_MQTT_OK/GD32VW55X_Wifi_BLE_SDK/GD32VW55x_RELEASE_V1.0.2/MSDK/wpa_supplicant/src/ap\neighbor_db.c **** 		dl_list_del(&nr->list);
 193:C:/Users/stapi/OneDrive/Desktop/GD32VW553/V1_MQTT_OK/GD32VW55X_Wifi_BLE_SDK/GD32VW55x_RELEASE_V1.0.2/MSDK/wpa_supplicant/src/ap\neighbor_db.c **** 		os_free(nr);
 194:C:/Users/stapi/OneDrive/Desktop/GD32VW553/V1_MQTT_OK/GD32VW55X_Wifi_BLE_SDK/GD32VW55x_RELEASE_V1.0.2/MSDK/wpa_supplicant/src/ap\neighbor_db.c **** 	}
 195:C:/Users/stapi/OneDrive/Desktop/GD32VW553/V1_MQTT_OK/GD32VW55X_Wifi_BLE_SDK/GD32VW55x_RELEASE_V1.0.2/MSDK/wpa_supplicant/src/ap\neighbor_db.c **** }
 826              		.loc 1 195 1 is_stmt 0
 827 0022 4101     		addi	sp,sp,16
 828              		.cfi_remember_state
 829              		.cfi_def_cfa_offset 0
 830 0024 17030000 		tail	__riscv_restore_2
 830      67000300 
 831              		.cfi_restore 9
 832              		.cfi_restore 8
 833              		.cfi_restore 1
 834              		.cfi_def_cfa_offset -16
 835              	.L75:
 836              		.cfi_restore_state
 191:C:/Users/stapi/OneDrive/Desktop/GD32VW553/V1_MQTT_OK/GD32VW55X_Wifi_BLE_SDK/GD32VW55x_RELEASE_V1.0.2/MSDK/wpa_supplicant/src/ap\neighbor_db.c **** 		dl_list_del(&nr->list);
 837              		.loc 1 191 3 is_stmt 1 discriminator 3
 838 002c 2AC6     		sw	a0,12(sp)
 839 002e 97000000 		call	hostapd_neighbor_clear_entry
 839      E7800000 
 840              	.LVL67:
 192:C:/Users/stapi/OneDrive/Desktop/GD32VW553/V1_MQTT_OK/GD32VW55X_Wifi_BLE_SDK/GD32VW55x_RELEASE_V1.0.2/MSDK/wpa_supplicant/src/ap\neighbor_db.c **** 		os_free(nr);
 841              		.loc 1 192 3 discriminator 3
 842              	.LBB70:
 843              	.LBB71:
  43:..\..\..\..\wpa_supplicant\src/utils/list.h **** 	item->prev->next = item->next;
 844              		.loc 4 43 2 discriminator 3
  43:..\..\..\..\wpa_supplicant\src/utils/list.h **** 	item->prev->next = item->next;
 845              		.loc 4 43 6 is_stmt 0 discriminator 3
 846 0036 3245     		lw	a0,12(sp)
 847 0038 1841     		lw	a4,0(a0)
  43:..\..\..\..\wpa_supplicant\src/utils/list.h **** 	item->prev->next = item->next;
 848              		.loc 4 43 25 discriminator 3
 849 003a 5C41     		lw	a5,4(a0)
  43:..\..\..\..\wpa_supplicant\src/utils/list.h **** 	item->prev->next = item->next;
 850              		.loc 4 43 19 discriminator 3
 851 003c 5CC3     		sw	a5,4(a4)
  44:..\..\..\..\wpa_supplicant\src/utils/list.h **** 	item->next = NULL;
 852              		.loc 4 44 2 is_stmt 1 discriminator 3
  44:..\..\..\..\wpa_supplicant\src/utils/list.h **** 	item->next = NULL;
 853              		.loc 4 44 19 is_stmt 0 discriminator 3
 854 003e 98C3     		sw	a4,0(a5)
  45:..\..\..\..\wpa_supplicant\src/utils/list.h **** 	item->prev = NULL;
 855              		.loc 4 45 2 is_stmt 1 discriminator 3
  45:..\..\..\..\wpa_supplicant\src/utils/list.h **** 	item->prev = NULL;
 856              		.loc 4 45 13 is_stmt 0 discriminator 3
 857 0040 23200500 		sw	zero,0(a0)
 858              		.loc 4 46 2 is_stmt 1 discriminator 3
 859              		.loc 4 46 13 is_stmt 0 discriminator 3
 860 0044 23220500 		sw	zero,4(a0)
 861              	.LVL68:
 862              	.LBE71:
 863              	.LBE70:
 193:C:/Users/stapi/OneDrive/Desktop/GD32VW553/V1_MQTT_OK/GD32VW55X_Wifi_BLE_SDK/GD32VW55x_RELEASE_V1.0.2/MSDK/wpa_supplicant/src/ap\neighbor_db.c **** 	}
 864              		.loc 1 193 3 is_stmt 1 discriminator 3
 865 0048 97000000 		call	os_free
 865      E7800000 
 866              	.LVL69:
 189:C:/Users/stapi/OneDrive/Desktop/GD32VW553/V1_MQTT_OK/GD32VW55X_Wifi_BLE_SDK/GD32VW55x_RELEASE_V1.0.2/MSDK/wpa_supplicant/src/ap\neighbor_db.c **** 			      struct hostapd_neighbor_entry, list) {
 867              		.loc 1 189 2 discriminator 3
 868 0050 2685     		mv	a0,s1
 869 0052 8440     		lw	s1,0(s1)
 870              	.LVL70:
 871 0054 E9B7     		j	.L74
 872              		.cfi_endproc
 873              	.LFE143:
 875              		.section	.text.hostapd_neighbor_set_own_report,"ax",@progbits
 876              		.align	1
 877              		.globl	hostapd_neighbor_set_own_report
 879              	hostapd_neighbor_set_own_report:
 880              	.LFB145:
 196:C:/Users/stapi/OneDrive/Desktop/GD32VW553/V1_MQTT_OK/GD32VW55X_Wifi_BLE_SDK/GD32VW55x_RELEASE_V1.0.2/MSDK/wpa_supplicant/src/ap\neighbor_db.c **** 
 197:C:/Users/stapi/OneDrive/Desktop/GD32VW553/V1_MQTT_OK/GD32VW55X_Wifi_BLE_SDK/GD32VW55x_RELEASE_V1.0.2/MSDK/wpa_supplicant/src/ap\neighbor_db.c **** 
 198:C:/Users/stapi/OneDrive/Desktop/GD32VW553/V1_MQTT_OK/GD32VW55X_Wifi_BLE_SDK/GD32VW55x_RELEASE_V1.0.2/MSDK/wpa_supplicant/src/ap\neighbor_db.c **** #ifdef NEED_AP_MLME
 199:C:/Users/stapi/OneDrive/Desktop/GD32VW553/V1_MQTT_OK/GD32VW55X_Wifi_BLE_SDK/GD32VW55x_RELEASE_V1.0.2/MSDK/wpa_supplicant/src/ap\neighbor_db.c **** static enum nr_chan_width hostapd_get_nr_chan_width(struct hostapd_data *hapd,
 200:C:/Users/stapi/OneDrive/Desktop/GD32VW553/V1_MQTT_OK/GD32VW55X_Wifi_BLE_SDK/GD32VW55x_RELEASE_V1.0.2/MSDK/wpa_supplicant/src/ap\neighbor_db.c **** 						    int ht, int vht, int he)
 201:C:/Users/stapi/OneDrive/Desktop/GD32VW553/V1_MQTT_OK/GD32VW55X_Wifi_BLE_SDK/GD32VW55x_RELEASE_V1.0.2/MSDK/wpa_supplicant/src/ap\neighbor_db.c **** {
 202:C:/Users/stapi/OneDrive/Desktop/GD32VW553/V1_MQTT_OK/GD32VW55X_Wifi_BLE_SDK/GD32VW55x_RELEASE_V1.0.2/MSDK/wpa_supplicant/src/ap\neighbor_db.c **** 	u8 oper_chwidth = hostapd_get_oper_chwidth(hapd->iconf);
 203:C:/Users/stapi/OneDrive/Desktop/GD32VW553/V1_MQTT_OK/GD32VW55X_Wifi_BLE_SDK/GD32VW55x_RELEASE_V1.0.2/MSDK/wpa_supplicant/src/ap\neighbor_db.c **** 
 204:C:/Users/stapi/OneDrive/Desktop/GD32VW553/V1_MQTT_OK/GD32VW55X_Wifi_BLE_SDK/GD32VW55x_RELEASE_V1.0.2/MSDK/wpa_supplicant/src/ap\neighbor_db.c **** 	if (!ht && !vht && !he)
 205:C:/Users/stapi/OneDrive/Desktop/GD32VW553/V1_MQTT_OK/GD32VW55X_Wifi_BLE_SDK/GD32VW55x_RELEASE_V1.0.2/MSDK/wpa_supplicant/src/ap\neighbor_db.c **** 		return NR_CHAN_WIDTH_20;
 206:C:/Users/stapi/OneDrive/Desktop/GD32VW553/V1_MQTT_OK/GD32VW55X_Wifi_BLE_SDK/GD32VW55x_RELEASE_V1.0.2/MSDK/wpa_supplicant/src/ap\neighbor_db.c **** 	if (!hapd->iconf->secondary_channel)
 207:C:/Users/stapi/OneDrive/Desktop/GD32VW553/V1_MQTT_OK/GD32VW55X_Wifi_BLE_SDK/GD32VW55x_RELEASE_V1.0.2/MSDK/wpa_supplicant/src/ap\neighbor_db.c **** 		return NR_CHAN_WIDTH_20;
 208:C:/Users/stapi/OneDrive/Desktop/GD32VW553/V1_MQTT_OK/GD32VW55X_Wifi_BLE_SDK/GD32VW55x_RELEASE_V1.0.2/MSDK/wpa_supplicant/src/ap\neighbor_db.c **** 	if ((!vht && !he) || oper_chwidth == CHANWIDTH_USE_HT)
 209:C:/Users/stapi/OneDrive/Desktop/GD32VW553/V1_MQTT_OK/GD32VW55X_Wifi_BLE_SDK/GD32VW55x_RELEASE_V1.0.2/MSDK/wpa_supplicant/src/ap\neighbor_db.c **** 		return NR_CHAN_WIDTH_40;
 210:C:/Users/stapi/OneDrive/Desktop/GD32VW553/V1_MQTT_OK/GD32VW55X_Wifi_BLE_SDK/GD32VW55x_RELEASE_V1.0.2/MSDK/wpa_supplicant/src/ap\neighbor_db.c **** 	if (oper_chwidth == CHANWIDTH_80MHZ)
 211:C:/Users/stapi/OneDrive/Desktop/GD32VW553/V1_MQTT_OK/GD32VW55X_Wifi_BLE_SDK/GD32VW55x_RELEASE_V1.0.2/MSDK/wpa_supplicant/src/ap\neighbor_db.c **** 		return NR_CHAN_WIDTH_80;
 212:C:/Users/stapi/OneDrive/Desktop/GD32VW553/V1_MQTT_OK/GD32VW55X_Wifi_BLE_SDK/GD32VW55x_RELEASE_V1.0.2/MSDK/wpa_supplicant/src/ap\neighbor_db.c **** 	if (oper_chwidth == CHANWIDTH_160MHZ)
 213:C:/Users/stapi/OneDrive/Desktop/GD32VW553/V1_MQTT_OK/GD32VW55X_Wifi_BLE_SDK/GD32VW55x_RELEASE_V1.0.2/MSDK/wpa_supplicant/src/ap\neighbor_db.c **** 		return NR_CHAN_WIDTH_160;
 214:C:/Users/stapi/OneDrive/Desktop/GD32VW553/V1_MQTT_OK/GD32VW55X_Wifi_BLE_SDK/GD32VW55x_RELEASE_V1.0.2/MSDK/wpa_supplicant/src/ap\neighbor_db.c **** 	if (oper_chwidth == CHANWIDTH_80P80MHZ)
 215:C:/Users/stapi/OneDrive/Desktop/GD32VW553/V1_MQTT_OK/GD32VW55X_Wifi_BLE_SDK/GD32VW55x_RELEASE_V1.0.2/MSDK/wpa_supplicant/src/ap\neighbor_db.c **** 		return NR_CHAN_WIDTH_80P80;
 216:C:/Users/stapi/OneDrive/Desktop/GD32VW553/V1_MQTT_OK/GD32VW55X_Wifi_BLE_SDK/GD32VW55x_RELEASE_V1.0.2/MSDK/wpa_supplicant/src/ap\neighbor_db.c **** 	return NR_CHAN_WIDTH_20;
 217:C:/Users/stapi/OneDrive/Desktop/GD32VW553/V1_MQTT_OK/GD32VW55X_Wifi_BLE_SDK/GD32VW55x_RELEASE_V1.0.2/MSDK/wpa_supplicant/src/ap\neighbor_db.c **** }
 218:C:/Users/stapi/OneDrive/Desktop/GD32VW553/V1_MQTT_OK/GD32VW55X_Wifi_BLE_SDK/GD32VW55x_RELEASE_V1.0.2/MSDK/wpa_supplicant/src/ap\neighbor_db.c **** #endif /* NEED_AP_MLME */
 219:C:/Users/stapi/OneDrive/Desktop/GD32VW553/V1_MQTT_OK/GD32VW55X_Wifi_BLE_SDK/GD32VW55x_RELEASE_V1.0.2/MSDK/wpa_supplicant/src/ap\neighbor_db.c **** 
 220:C:/Users/stapi/OneDrive/Desktop/GD32VW553/V1_MQTT_OK/GD32VW55X_Wifi_BLE_SDK/GD32VW55x_RELEASE_V1.0.2/MSDK/wpa_supplicant/src/ap\neighbor_db.c **** 
 221:C:/Users/stapi/OneDrive/Desktop/GD32VW553/V1_MQTT_OK/GD32VW55X_Wifi_BLE_SDK/GD32VW55x_RELEASE_V1.0.2/MSDK/wpa_supplicant/src/ap\neighbor_db.c **** void hostapd_neighbor_set_own_report(struct hostapd_data *hapd)
 222:C:/Users/stapi/OneDrive/Desktop/GD32VW553/V1_MQTT_OK/GD32VW55X_Wifi_BLE_SDK/GD32VW55x_RELEASE_V1.0.2/MSDK/wpa_supplicant/src/ap\neighbor_db.c **** {
 881              		.loc 1 222 1
 882              		.cfi_startproc
 883              	.LVL71:
 884 0000 17030000 		call	t0,__riscv_save_8
 884      E7020300 
 885              		.cfi_offset 23, -36
 886              		.cfi_offset 22, -32
 887              		.cfi_offset 21, -28
 888              		.cfi_offset 20, -24
 889              		.cfi_offset 19, -20
 890              		.cfi_offset 18, -16
 891              		.cfi_offset 9, -12
 892              		.cfi_offset 8, -8
 893              		.cfi_offset 1, -4
 894              		.cfi_def_cfa_offset 48
 223:C:/Users/stapi/OneDrive/Desktop/GD32VW553/V1_MQTT_OK/GD32VW55X_Wifi_BLE_SDK/GD32VW55x_RELEASE_V1.0.2/MSDK/wpa_supplicant/src/ap\neighbor_db.c **** #ifdef NEED_AP_MLME
 224:C:/Users/stapi/OneDrive/Desktop/GD32VW553/V1_MQTT_OK/GD32VW55X_Wifi_BLE_SDK/GD32VW55x_RELEASE_V1.0.2/MSDK/wpa_supplicant/src/ap\neighbor_db.c **** 	u16 capab = hostapd_own_capab_info(hapd);
 895              		.loc 1 224 2
 222:C:/Users/stapi/OneDrive/Desktop/GD32VW553/V1_MQTT_OK/GD32VW55X_Wifi_BLE_SDK/GD32VW55x_RELEASE_V1.0.2/MSDK/wpa_supplicant/src/ap\neighbor_db.c **** #ifdef NEED_AP_MLME
 896              		.loc 1 222 1 is_stmt 0
 897 0008 7971     		addi	sp,sp,-48
 898              		.cfi_def_cfa_offset 96
 222:C:/Users/stapi/OneDrive/Desktop/GD32VW553/V1_MQTT_OK/GD32VW55X_Wifi_BLE_SDK/GD32VW55x_RELEASE_V1.0.2/MSDK/wpa_supplicant/src/ap\neighbor_db.c **** #ifdef NEED_AP_MLME
 899              		.loc 1 222 1
 900 000a 2A89     		mv	s2,a0
 901              		.loc 1 224 14
 902 000c 97000000 		call	hostapd_own_capab_info
 902      E7800000 
 903              	.LVL72:
 225:C:/Users/stapi/OneDrive/Desktop/GD32VW553/V1_MQTT_OK/GD32VW55X_Wifi_BLE_SDK/GD32VW55x_RELEASE_V1.0.2/MSDK/wpa_supplicant/src/ap\neighbor_db.c **** 	int ht = hapd->iconf->ieee80211n && !hapd->conf->disable_11n;
 904              		.loc 1 225 2 is_stmt 1
 905              		.loc 1 225 15 is_stmt 0
 906 0014 83274900 		lw	a5,4(s2)
 907 0018 03278900 		lw	a4,8(s2)
 908              		.loc 1 225 22
 909 001c 83AA0712 		lw	s5,288(a5)
 910              		.loc 1 225 35
 911 0020 63860A00 		beq	s5,zero,.L78
 912              		.loc 1 225 35 discriminator 1
 913 0024 834A8729 		lbu	s5,664(a4)
 914 0028 93CA1A00 		xori	s5,s5,1
 915              	.L78:
 916              	.LVL73:
 226:C:/Users/stapi/OneDrive/Desktop/GD32VW553/V1_MQTT_OK/GD32VW55X_Wifi_BLE_SDK/GD32VW55x_RELEASE_V1.0.2/MSDK/wpa_supplicant/src/ap\neighbor_db.c **** 	int vht = hapd->iconf->ieee80211ac && !hapd->conf->disable_11ac;
 917              		.loc 1 226 2 is_stmt 1 discriminator 6
 918              		.loc 1 226 23 is_stmt 0 discriminator 6
 919 002c 03AA8713 		lw	s4,312(a5)
 920              		.loc 1 226 37 discriminator 6
 921 0030 63060A00 		beq	s4,zero,.L79
 922              		.loc 1 226 37 discriminator 1
 923 0034 034A9729 		lbu	s4,665(a4)
 924 0038 134A1A00 		xori	s4,s4,1
 925              	.L79:
 926              	.LVL74:
 227:C:/Users/stapi/OneDrive/Desktop/GD32VW553/V1_MQTT_OK/GD32VW55X_Wifi_BLE_SDK/GD32VW55x_RELEASE_V1.0.2/MSDK/wpa_supplicant/src/ap\neighbor_db.c **** 	int he = hapd->iconf->ieee80211ax && !hapd->conf->disable_11ax;
 927              		.loc 1 227 2 is_stmt 1 discriminator 6
 928              		.loc 1 227 22 is_stmt 0 discriminator 6
 929 003c 03A64715 		lw	a2,340(a5)
 930              		.loc 1 227 36 discriminator 6
 931 0040 0144     		li	s0,0
 932 0042 09C6     		beq	a2,zero,.L80
 933              		.loc 1 227 36 discriminator 1
 934 0044 0344A729 		lbu	s0,666(a4)
 935 0048 13441400 		xori	s0,s0,1
 936              	.L80:
 937              	.LVL75:
 228:C:/Users/stapi/OneDrive/Desktop/GD32VW553/V1_MQTT_OK/GD32VW55X_Wifi_BLE_SDK/GD32VW55x_RELEASE_V1.0.2/MSDK/wpa_supplicant/src/ap\neighbor_db.c **** 	struct wpa_ssid_value ssid;
 938              		.loc 1 228 2 is_stmt 1 discriminator 6
 229:C:/Users/stapi/OneDrive/Desktop/GD32VW553/V1_MQTT_OK/GD32VW55X_Wifi_BLE_SDK/GD32VW55x_RELEASE_V1.0.2/MSDK/wpa_supplicant/src/ap\neighbor_db.c **** 	u8 channel, op_class;
 939              		.loc 1 229 2 discriminator 6
 230:C:/Users/stapi/OneDrive/Desktop/GD32VW553/V1_MQTT_OK/GD32VW55X_Wifi_BLE_SDK/GD32VW55x_RELEASE_V1.0.2/MSDK/wpa_supplicant/src/ap\neighbor_db.c **** 	u8 center_freq1_idx = 0, center_freq2_idx = 0;
 940              		.loc 1 230 2 discriminator 6
 231:C:/Users/stapi/OneDrive/Desktop/GD32VW553/V1_MQTT_OK/GD32VW55X_Wifi_BLE_SDK/GD32VW55x_RELEASE_V1.0.2/MSDK/wpa_supplicant/src/ap\neighbor_db.c **** 	enum nr_chan_width width;
 232:C:/Users/stapi/OneDrive/Desktop/GD32VW553/V1_MQTT_OK/GD32VW55X_Wifi_BLE_SDK/GD32VW55x_RELEASE_V1.0.2/MSDK/wpa_supplicant/src/ap\neighbor_db.c **** 	u32 bssid_info;
 233:C:/Users/stapi/OneDrive/Desktop/GD32VW553/V1_MQTT_OK/GD32VW55X_Wifi_BLE_SDK/GD32VW55x_RELEASE_V1.0.2/MSDK/wpa_supplicant/src/ap\neighbor_db.c **** 	struct wpabuf *nr;
 234:C:/Users/stapi/OneDrive/Desktop/GD32VW553/V1_MQTT_OK/GD32VW55X_Wifi_BLE_SDK/GD32VW55x_RELEASE_V1.0.2/MSDK/wpa_supplicant/src/ap\neighbor_db.c **** 
 235:C:/Users/stapi/OneDrive/Desktop/GD32VW553/V1_MQTT_OK/GD32VW55X_Wifi_BLE_SDK/GD32VW55x_RELEASE_V1.0.2/MSDK/wpa_supplicant/src/ap\neighbor_db.c **** 	if (!(hapd->conf->radio_measurements[0] &
 941              		.loc 1 235 5 is_stmt 0 discriminator 6
 942 004c 8346473A 		lbu	a3,932(a4)
 230:C:/Users/stapi/OneDrive/Desktop/GD32VW553/V1_MQTT_OK/GD32VW55X_Wifi_BLE_SDK/GD32VW55x_RELEASE_V1.0.2/MSDK/wpa_supplicant/src/ap\neighbor_db.c **** 	u8 center_freq1_idx = 0, center_freq2_idx = 0;
 943              		.loc 1 230 5 discriminator 6
 944 0050 A3050100 		sb	zero,11(sp)
 945              	.LVL76:
 231:C:/Users/stapi/OneDrive/Desktop/GD32VW553/V1_MQTT_OK/GD32VW55X_Wifi_BLE_SDK/GD32VW55x_RELEASE_V1.0.2/MSDK/wpa_supplicant/src/ap\neighbor_db.c **** 	enum nr_chan_width width;
 946              		.loc 1 231 2 is_stmt 1 discriminator 6
 232:C:/Users/stapi/OneDrive/Desktop/GD32VW553/V1_MQTT_OK/GD32VW55X_Wifi_BLE_SDK/GD32VW55x_RELEASE_V1.0.2/MSDK/wpa_supplicant/src/ap\neighbor_db.c **** 	struct wpabuf *nr;
 947              		.loc 1 232 2 discriminator 6
 233:C:/Users/stapi/OneDrive/Desktop/GD32VW553/V1_MQTT_OK/GD32VW55X_Wifi_BLE_SDK/GD32VW55x_RELEASE_V1.0.2/MSDK/wpa_supplicant/src/ap\neighbor_db.c **** 
 948              		.loc 1 233 2 discriminator 6
 949              		.loc 1 235 2 discriminator 6
 950              		.loc 1 235 5 is_stmt 0 discriminator 6
 951 0054 898A     		andi	a3,a3,2
 952 0056 63810624 		beq	a3,zero,.L77
 236:C:/Users/stapi/OneDrive/Desktop/GD32VW553/V1_MQTT_OK/GD32VW55X_Wifi_BLE_SDK/GD32VW55x_RELEASE_V1.0.2/MSDK/wpa_supplicant/src/ap\neighbor_db.c **** 	      WLAN_RRM_CAPS_NEIGHBOR_REPORT))
 237:C:/Users/stapi/OneDrive/Desktop/GD32VW553/V1_MQTT_OK/GD32VW55X_Wifi_BLE_SDK/GD32VW55x_RELEASE_V1.0.2/MSDK/wpa_supplicant/src/ap\neighbor_db.c **** 		return;
 238:C:/Users/stapi/OneDrive/Desktop/GD32VW553/V1_MQTT_OK/GD32VW55X_Wifi_BLE_SDK/GD32VW55x_RELEASE_V1.0.2/MSDK/wpa_supplicant/src/ap\neighbor_db.c **** 
 239:C:/Users/stapi/OneDrive/Desktop/GD32VW553/V1_MQTT_OK/GD32VW55X_Wifi_BLE_SDK/GD32VW55x_RELEASE_V1.0.2/MSDK/wpa_supplicant/src/ap\neighbor_db.c **** 	bssid_info = 3; /* AP is reachable */
 953              		.loc 1 239 2 is_stmt 1
 954              	.LVL77:
 240:C:/Users/stapi/OneDrive/Desktop/GD32VW553/V1_MQTT_OK/GD32VW55X_Wifi_BLE_SDK/GD32VW55x_RELEASE_V1.0.2/MSDK/wpa_supplicant/src/ap\neighbor_db.c **** 	bssid_info |= NEI_REP_BSSID_INFO_SECURITY; /* "same as the AP" */
 955              		.loc 1 240 2
 241:C:/Users/stapi/OneDrive/Desktop/GD32VW553/V1_MQTT_OK/GD32VW55X_Wifi_BLE_SDK/GD32VW55x_RELEASE_V1.0.2/MSDK/wpa_supplicant/src/ap\neighbor_db.c **** 	bssid_info |= NEI_REP_BSSID_INFO_KEY_SCOPE; /* "same as the AP" */
 956              		.loc 1 241 2
 242:C:/Users/stapi/OneDrive/Desktop/GD32VW553/V1_MQTT_OK/GD32VW55X_Wifi_BLE_SDK/GD32VW55x_RELEASE_V1.0.2/MSDK/wpa_supplicant/src/ap\neighbor_db.c **** 
 243:C:/Users/stapi/OneDrive/Desktop/GD32VW553/V1_MQTT_OK/GD32VW55X_Wifi_BLE_SDK/GD32VW55x_RELEASE_V1.0.2/MSDK/wpa_supplicant/src/ap\neighbor_db.c **** 	if (capab & WLAN_CAPABILITY_SPECTRUM_MGMT)
 957              		.loc 1 243 2
 958              		.loc 1 243 5 is_stmt 0
 959 005a 13750510 		andi	a0,a0,256
 960              	.LVL78:
 241:C:/Users/stapi/OneDrive/Desktop/GD32VW553/V1_MQTT_OK/GD32VW55X_Wifi_BLE_SDK/GD32VW55x_RELEASE_V1.0.2/MSDK/wpa_supplicant/src/ap\neighbor_db.c **** 	bssid_info |= NEI_REP_BSSID_INFO_KEY_SCOPE; /* "same as the AP" */
 961              		.loc 1 241 13
 962 005e BD46     		li	a3,15
 963              		.loc 1 243 5
 964 0060 11C1     		beq	a0,zero,.L82
 244:C:/Users/stapi/OneDrive/Desktop/GD32VW553/V1_MQTT_OK/GD32VW55X_Wifi_BLE_SDK/GD32VW55x_RELEASE_V1.0.2/MSDK/wpa_supplicant/src/ap\neighbor_db.c **** 		bssid_info |= NEI_REP_BSSID_INFO_SPECTRUM_MGMT;
 965              		.loc 1 244 14
 966 0062 FD46     		li	a3,31
 967              	.L82:
 968              	.LVL79:
 245:C:/Users/stapi/OneDrive/Desktop/GD32VW553/V1_MQTT_OK/GD32VW55X_Wifi_BLE_SDK/GD32VW55x_RELEASE_V1.0.2/MSDK/wpa_supplicant/src/ap\neighbor_db.c **** 
 246:C:/Users/stapi/OneDrive/Desktop/GD32VW553/V1_MQTT_OK/GD32VW55X_Wifi_BLE_SDK/GD32VW55x_RELEASE_V1.0.2/MSDK/wpa_supplicant/src/ap\neighbor_db.c **** 	bssid_info |= NEI_REP_BSSID_INFO_RM; /* RRM is supported */
 969              		.loc 1 246 2 is_stmt 1
 247:C:/Users/stapi/OneDrive/Desktop/GD32VW553/V1_MQTT_OK/GD32VW55X_Wifi_BLE_SDK/GD32VW55x_RELEASE_V1.0.2/MSDK/wpa_supplicant/src/ap\neighbor_db.c **** 
 248:C:/Users/stapi/OneDrive/Desktop/GD32VW553/V1_MQTT_OK/GD32VW55X_Wifi_BLE_SDK/GD32VW55x_RELEASE_V1.0.2/MSDK/wpa_supplicant/src/ap\neighbor_db.c **** 	if (hapd->conf->wmm_enabled) {
 970              		.loc 1 248 2
 971              		.loc 1 248 5 is_stmt 0
 972 0064 03250726 		lw	a0,608(a4)
 249:C:/Users/stapi/OneDrive/Desktop/GD32VW553/V1_MQTT_OK/GD32VW55X_Wifi_BLE_SDK/GD32VW55x_RELEASE_V1.0.2/MSDK/wpa_supplicant/src/ap\neighbor_db.c **** 		bssid_info |= NEI_REP_BSSID_INFO_QOS;
 250:C:/Users/stapi/OneDrive/Desktop/GD32VW553/V1_MQTT_OK/GD32VW55X_Wifi_BLE_SDK/GD32VW55x_RELEASE_V1.0.2/MSDK/wpa_supplicant/src/ap\neighbor_db.c **** 
 251:C:/Users/stapi/OneDrive/Desktop/GD32VW553/V1_MQTT_OK/GD32VW55X_Wifi_BLE_SDK/GD32VW55x_RELEASE_V1.0.2/MSDK/wpa_supplicant/src/ap\neighbor_db.c **** 		if (hapd->conf->wmm_uapsd &&
 252:C:/Users/stapi/OneDrive/Desktop/GD32VW553/V1_MQTT_OK/GD32VW55X_Wifi_BLE_SDK/GD32VW55x_RELEASE_V1.0.2/MSDK/wpa_supplicant/src/ap\neighbor_db.c **** 		    (hapd->iface->drv_flags & WPA_DRIVER_FLAGS_AP_UAPSD))
 973              		.loc 1 252 12
 974 0068 83250900 		lw	a1,0(s2)
 246:C:/Users/stapi/OneDrive/Desktop/GD32VW553/V1_MQTT_OK/GD32VW55X_Wifi_BLE_SDK/GD32VW55x_RELEASE_V1.0.2/MSDK/wpa_supplicant/src/ap\neighbor_db.c **** 
 975              		.loc 1 246 13
 976 006c 93E90608 		ori	s3,a3,128
 977              	.LVL80:
 248:C:/Users/stapi/OneDrive/Desktop/GD32VW553/V1_MQTT_OK/GD32VW55X_Wifi_BLE_SDK/GD32VW55x_RELEASE_V1.0.2/MSDK/wpa_supplicant/src/ap\neighbor_db.c **** 		bssid_info |= NEI_REP_BSSID_INFO_QOS;
 978              		.loc 1 248 5
 979 0070 11CD     		beq	a0,zero,.L84
 249:C:/Users/stapi/OneDrive/Desktop/GD32VW553/V1_MQTT_OK/GD32VW55X_Wifi_BLE_SDK/GD32VW55x_RELEASE_V1.0.2/MSDK/wpa_supplicant/src/ap\neighbor_db.c **** 		bssid_info |= NEI_REP_BSSID_INFO_QOS;
 980              		.loc 1 249 3 is_stmt 1
 251:C:/Users/stapi/OneDrive/Desktop/GD32VW553/V1_MQTT_OK/GD32VW55X_Wifi_BLE_SDK/GD32VW55x_RELEASE_V1.0.2/MSDK/wpa_supplicant/src/ap\neighbor_db.c **** 		    (hapd->iface->drv_flags & WPA_DRIVER_FLAGS_AP_UAPSD))
 981              		.loc 1 251 6 is_stmt 0
 982 0072 03274726 		lw	a4,612(a4)
 249:C:/Users/stapi/OneDrive/Desktop/GD32VW553/V1_MQTT_OK/GD32VW55X_Wifi_BLE_SDK/GD32VW55x_RELEASE_V1.0.2/MSDK/wpa_supplicant/src/ap\neighbor_db.c **** 
 983              		.loc 1 249 14
 984 0076 93E9060A 		ori	s3,a3,160
 985              	.LVL81:
 251:C:/Users/stapi/OneDrive/Desktop/GD32VW553/V1_MQTT_OK/GD32VW55X_Wifi_BLE_SDK/GD32VW55x_RELEASE_V1.0.2/MSDK/wpa_supplicant/src/ap\neighbor_db.c **** 		    (hapd->iface->drv_flags & WPA_DRIVER_FLAGS_AP_UAPSD))
 986              		.loc 1 251 3 is_stmt 1
 251:C:/Users/stapi/OneDrive/Desktop/GD32VW553/V1_MQTT_OK/GD32VW55X_Wifi_BLE_SDK/GD32VW55x_RELEASE_V1.0.2/MSDK/wpa_supplicant/src/ap\neighbor_db.c **** 		    (hapd->iface->drv_flags & WPA_DRIVER_FLAGS_AP_UAPSD))
 987              		.loc 1 251 6 is_stmt 0
 988 007a 09CB     		beq	a4,zero,.L84
 989              		.loc 1 252 31 discriminator 1
 990 007c 03A78543 		lw	a4,1080(a1)
 991 0080 37054000 		li	a0,4194304
 992 0084 698F     		and	a4,a4,a0
 251:C:/Users/stapi/OneDrive/Desktop/GD32VW553/V1_MQTT_OK/GD32VW55X_Wifi_BLE_SDK/GD32VW55x_RELEASE_V1.0.2/MSDK/wpa_supplicant/src/ap\neighbor_db.c **** 		    (hapd->iface->drv_flags & WPA_DRIVER_FLAGS_AP_UAPSD))
 993              		.loc 1 251 29 discriminator 1
 994 0086 19C3     		beq	a4,zero,.L84
 253:C:/Users/stapi/OneDrive/Desktop/GD32VW553/V1_MQTT_OK/GD32VW55X_Wifi_BLE_SDK/GD32VW55x_RELEASE_V1.0.2/MSDK/wpa_supplicant/src/ap\neighbor_db.c **** 			bssid_info |= NEI_REP_BSSID_INFO_APSD;
 995              		.loc 1 253 4 is_stmt 1 discriminator 1
 996              		.loc 1 253 15 is_stmt 0 discriminator 1
 997 0088 93E9060E 		ori	s3,a3,224
 998              	.LVL82:
 999              	.L84:
 254:C:/Users/stapi/OneDrive/Desktop/GD32VW553/V1_MQTT_OK/GD32VW55X_Wifi_BLE_SDK/GD32VW55x_RELEASE_V1.0.2/MSDK/wpa_supplicant/src/ap\neighbor_db.c **** 	}
 255:C:/Users/stapi/OneDrive/Desktop/GD32VW553/V1_MQTT_OK/GD32VW55X_Wifi_BLE_SDK/GD32VW55x_RELEASE_V1.0.2/MSDK/wpa_supplicant/src/ap\neighbor_db.c **** 
 256:C:/Users/stapi/OneDrive/Desktop/GD32VW553/V1_MQTT_OK/GD32VW55X_Wifi_BLE_SDK/GD32VW55x_RELEASE_V1.0.2/MSDK/wpa_supplicant/src/ap\neighbor_db.c **** 	if (ht) {
 1000              		.loc 1 256 2 is_stmt 1
 1001              		.loc 1 256 5 is_stmt 0
 1002 008c 638D0A00 		beq	s5,zero,.L86
 257:C:/Users/stapi/OneDrive/Desktop/GD32VW553/V1_MQTT_OK/GD32VW55X_Wifi_BLE_SDK/GD32VW55x_RELEASE_V1.0.2/MSDK/wpa_supplicant/src/ap\neighbor_db.c **** 		bssid_info |= NEI_REP_BSSID_INFO_HT |
 1003              		.loc 1 257 3 is_stmt 1
 1004              	.LVL83:
 258:C:/Users/stapi/OneDrive/Desktop/GD32VW553/V1_MQTT_OK/GD32VW55X_Wifi_BLE_SDK/GD32VW55x_RELEASE_V1.0.2/MSDK/wpa_supplicant/src/ap\neighbor_db.c **** 			NEI_REP_BSSID_INFO_DELAYED_BA;
 259:C:/Users/stapi/OneDrive/Desktop/GD32VW553/V1_MQTT_OK/GD32VW55X_Wifi_BLE_SDK/GD32VW55x_RELEASE_V1.0.2/MSDK/wpa_supplicant/src/ap\neighbor_db.c **** 
 260:C:/Users/stapi/OneDrive/Desktop/GD32VW553/V1_MQTT_OK/GD32VW55X_Wifi_BLE_SDK/GD32VW55x_RELEASE_V1.0.2/MSDK/wpa_supplicant/src/ap\neighbor_db.c **** 		/* VHT bit added in IEEE P802.11-REVmc/D4.3 */
 261:C:/Users/stapi/OneDrive/Desktop/GD32VW553/V1_MQTT_OK/GD32VW55X_Wifi_BLE_SDK/GD32VW55x_RELEASE_V1.0.2/MSDK/wpa_supplicant/src/ap\neighbor_db.c **** 		if (vht)
 1005              		.loc 1 261 3
 257:C:/Users/stapi/OneDrive/Desktop/GD32VW553/V1_MQTT_OK/GD32VW55X_Wifi_BLE_SDK/GD32VW55x_RELEASE_V1.0.2/MSDK/wpa_supplicant/src/ap\neighbor_db.c **** 		bssid_info |= NEI_REP_BSSID_INFO_HT |
 1006              		.loc 1 257 14 is_stmt 0
 1007 0090 0567     		li	a4,4096
 1008              		.loc 1 261 6
 1009 0092 63030A00 		beq	s4,zero,.L163
 262:C:/Users/stapi/OneDrive/Desktop/GD32VW553/V1_MQTT_OK/GD32VW55X_Wifi_BLE_SDK/GD32VW55x_RELEASE_V1.0.2/MSDK/wpa_supplicant/src/ap\neighbor_db.c **** 			bssid_info |= NEI_REP_BSSID_INFO_VHT;
 1010              		.loc 1 262 4 is_stmt 1
 1011              		.loc 1 262 15 is_stmt 0
 1012 0096 0967     		li	a4,8192
 1013              	.L163:
 1014 0098 13070790 		addi	a4,a4,-1792
 1015 009c B3E9E900 		or	s3,s3,a4
 1016              	.LVL84:
 263:C:/Users/stapi/OneDrive/Desktop/GD32VW553/V1_MQTT_OK/GD32VW55X_Wifi_BLE_SDK/GD32VW55x_RELEASE_V1.0.2/MSDK/wpa_supplicant/src/ap\neighbor_db.c **** 		if (he)
 1017              		.loc 1 263 3 is_stmt 1
 1018              		.loc 1 263 6 is_stmt 0
 1019 00a0 19C0     		beq	s0,zero,.L86
 264:C:/Users/stapi/OneDrive/Desktop/GD32VW553/V1_MQTT_OK/GD32VW55X_Wifi_BLE_SDK/GD32VW55x_RELEASE_V1.0.2/MSDK/wpa_supplicant/src/ap\neighbor_db.c **** 			bssid_info |= NEI_REP_BSSID_INFO_HE;
 1020              		.loc 1 264 4 is_stmt 1
 1021              		.loc 1 264 15 is_stmt 0
 1022 00a2 9399E928 		bseti	s3,s3,14
 1023              	.LVL85:
 1024              	.L86:
 265:C:/Users/stapi/OneDrive/Desktop/GD32VW553/V1_MQTT_OK/GD32VW55X_Wifi_BLE_SDK/GD32VW55x_RELEASE_V1.0.2/MSDK/wpa_supplicant/src/ap\neighbor_db.c **** 	}
 266:C:/Users/stapi/OneDrive/Desktop/GD32VW553/V1_MQTT_OK/GD32VW55X_Wifi_BLE_SDK/GD32VW55x_RELEASE_V1.0.2/MSDK/wpa_supplicant/src/ap\neighbor_db.c **** 
 267:C:/Users/stapi/OneDrive/Desktop/GD32VW553/V1_MQTT_OK/GD32VW55X_Wifi_BLE_SDK/GD32VW55x_RELEASE_V1.0.2/MSDK/wpa_supplicant/src/ap\neighbor_db.c **** 	/* TODO: Set NEI_REP_BSSID_INFO_MOBILITY_DOMAIN if MDE is set */
 268:C:/Users/stapi/OneDrive/Desktop/GD32VW553/V1_MQTT_OK/GD32VW55X_Wifi_BLE_SDK/GD32VW55x_RELEASE_V1.0.2/MSDK/wpa_supplicant/src/ap\neighbor_db.c **** 
 269:C:/Users/stapi/OneDrive/Desktop/GD32VW553/V1_MQTT_OK/GD32VW55X_Wifi_BLE_SDK/GD32VW55x_RELEASE_V1.0.2/MSDK/wpa_supplicant/src/ap\neighbor_db.c **** 	if (ieee80211_freq_to_channel_ext(hapd->iface->freq,
 1025              		.loc 1 269 2 is_stmt 1
 1026              		.loc 1 269 6 is_stmt 0
 1027 00a6 03A54547 		lw	a0,1140(a1)
 1028 00aa 83A54712 		lw	a1,292(a5)
 1029              	.LVL86:
 1030              	.LBB88:
 1031              	.LBB89:
 1032              		.file 5 "C:/Users/stapi/OneDrive/Desktop/GD32VW553/V1_MQTT_OK/GD32VW55X_Wifi_BLE_SDK/GD32VW55x_REL
   1:C:/Users/stapi/OneDrive/Desktop/GD32VW553/V1_MQTT_OK/GD32VW55X_Wifi_BLE_SDK/GD32VW55x_RELEASE_V1.0.2/MSDK/wpa_supplicant/src/ap\ap_config.h **** /*
   2:C:/Users/stapi/OneDrive/Desktop/GD32VW553/V1_MQTT_OK/GD32VW55X_Wifi_BLE_SDK/GD32VW55x_RELEASE_V1.0.2/MSDK/wpa_supplicant/src/ap\ap_config.h ****  * hostapd / Configuration definitions and helpers functions
   3:C:/Users/stapi/OneDrive/Desktop/GD32VW553/V1_MQTT_OK/GD32VW55X_Wifi_BLE_SDK/GD32VW55x_RELEASE_V1.0.2/MSDK/wpa_supplicant/src/ap\ap_config.h ****  * Copyright (c) 2003-2015, Jouni Malinen <j@w1.fi>
   4:C:/Users/stapi/OneDrive/Desktop/GD32VW553/V1_MQTT_OK/GD32VW55X_Wifi_BLE_SDK/GD32VW55x_RELEASE_V1.0.2/MSDK/wpa_supplicant/src/ap\ap_config.h ****  *
   5:C:/Users/stapi/OneDrive/Desktop/GD32VW553/V1_MQTT_OK/GD32VW55X_Wifi_BLE_SDK/GD32VW55x_RELEASE_V1.0.2/MSDK/wpa_supplicant/src/ap\ap_config.h ****  * This software may be distributed under the terms of the BSD license.
   6:C:/Users/stapi/OneDrive/Desktop/GD32VW553/V1_MQTT_OK/GD32VW55X_Wifi_BLE_SDK/GD32VW55x_RELEASE_V1.0.2/MSDK/wpa_supplicant/src/ap\ap_config.h ****  * See README for more details.
   7:C:/Users/stapi/OneDrive/Desktop/GD32VW553/V1_MQTT_OK/GD32VW55X_Wifi_BLE_SDK/GD32VW55x_RELEASE_V1.0.2/MSDK/wpa_supplicant/src/ap\ap_config.h ****  */
   8:C:/Users/stapi/OneDrive/Desktop/GD32VW553/V1_MQTT_OK/GD32VW55X_Wifi_BLE_SDK/GD32VW55x_RELEASE_V1.0.2/MSDK/wpa_supplicant/src/ap\ap_config.h **** 
   9:C:/Users/stapi/OneDrive/Desktop/GD32VW553/V1_MQTT_OK/GD32VW55X_Wifi_BLE_SDK/GD32VW55x_RELEASE_V1.0.2/MSDK/wpa_supplicant/src/ap\ap_config.h **** #ifndef HOSTAPD_CONFIG_H
  10:C:/Users/stapi/OneDrive/Desktop/GD32VW553/V1_MQTT_OK/GD32VW55X_Wifi_BLE_SDK/GD32VW55x_RELEASE_V1.0.2/MSDK/wpa_supplicant/src/ap\ap_config.h **** #define HOSTAPD_CONFIG_H
  11:C:/Users/stapi/OneDrive/Desktop/GD32VW553/V1_MQTT_OK/GD32VW55X_Wifi_BLE_SDK/GD32VW55x_RELEASE_V1.0.2/MSDK/wpa_supplicant/src/ap\ap_config.h **** 
  12:C:/Users/stapi/OneDrive/Desktop/GD32VW553/V1_MQTT_OK/GD32VW55X_Wifi_BLE_SDK/GD32VW55x_RELEASE_V1.0.2/MSDK/wpa_supplicant/src/ap\ap_config.h **** #include "common/defs.h"
  13:C:/Users/stapi/OneDrive/Desktop/GD32VW553/V1_MQTT_OK/GD32VW55X_Wifi_BLE_SDK/GD32VW55x_RELEASE_V1.0.2/MSDK/wpa_supplicant/src/ap\ap_config.h **** #include "utils/list.h"
  14:C:/Users/stapi/OneDrive/Desktop/GD32VW553/V1_MQTT_OK/GD32VW55X_Wifi_BLE_SDK/GD32VW55x_RELEASE_V1.0.2/MSDK/wpa_supplicant/src/ap\ap_config.h **** #include "utils/ip_addr.h"
  15:C:/Users/stapi/OneDrive/Desktop/GD32VW553/V1_MQTT_OK/GD32VW55X_Wifi_BLE_SDK/GD32VW55x_RELEASE_V1.0.2/MSDK/wpa_supplicant/src/ap\ap_config.h **** #include "common/wpa_common.h"
  16:C:/Users/stapi/OneDrive/Desktop/GD32VW553/V1_MQTT_OK/GD32VW55X_Wifi_BLE_SDK/GD32VW55x_RELEASE_V1.0.2/MSDK/wpa_supplicant/src/ap\ap_config.h **** #include "common/ieee802_11_defs.h"
  17:C:/Users/stapi/OneDrive/Desktop/GD32VW553/V1_MQTT_OK/GD32VW55X_Wifi_BLE_SDK/GD32VW55x_RELEASE_V1.0.2/MSDK/wpa_supplicant/src/ap\ap_config.h **** #include "common/ieee802_11_common.h"
  18:C:/Users/stapi/OneDrive/Desktop/GD32VW553/V1_MQTT_OK/GD32VW55X_Wifi_BLE_SDK/GD32VW55x_RELEASE_V1.0.2/MSDK/wpa_supplicant/src/ap\ap_config.h **** #include "crypto/sha256.h"
  19:C:/Users/stapi/OneDrive/Desktop/GD32VW553/V1_MQTT_OK/GD32VW55X_Wifi_BLE_SDK/GD32VW55x_RELEASE_V1.0.2/MSDK/wpa_supplicant/src/ap\ap_config.h **** #include "wps/wps.h"
  20:C:/Users/stapi/OneDrive/Desktop/GD32VW553/V1_MQTT_OK/GD32VW55X_Wifi_BLE_SDK/GD32VW55x_RELEASE_V1.0.2/MSDK/wpa_supplicant/src/ap\ap_config.h **** #include "fst/fst.h"
  21:C:/Users/stapi/OneDrive/Desktop/GD32VW553/V1_MQTT_OK/GD32VW55X_Wifi_BLE_SDK/GD32VW55x_RELEASE_V1.0.2/MSDK/wpa_supplicant/src/ap\ap_config.h **** #include "vlan.h"
  22:C:/Users/stapi/OneDrive/Desktop/GD32VW553/V1_MQTT_OK/GD32VW55X_Wifi_BLE_SDK/GD32VW55x_RELEASE_V1.0.2/MSDK/wpa_supplicant/src/ap\ap_config.h **** 
  23:C:/Users/stapi/OneDrive/Desktop/GD32VW553/V1_MQTT_OK/GD32VW55X_Wifi_BLE_SDK/GD32VW55x_RELEASE_V1.0.2/MSDK/wpa_supplicant/src/ap\ap_config.h **** typedef uint32_t wpa_gid_t;
  24:C:/Users/stapi/OneDrive/Desktop/GD32VW553/V1_MQTT_OK/GD32VW55X_Wifi_BLE_SDK/GD32VW55x_RELEASE_V1.0.2/MSDK/wpa_supplicant/src/ap\ap_config.h **** 
  25:C:/Users/stapi/OneDrive/Desktop/GD32VW553/V1_MQTT_OK/GD32VW55X_Wifi_BLE_SDK/GD32VW55x_RELEASE_V1.0.2/MSDK/wpa_supplicant/src/ap\ap_config.h **** /**
  26:C:/Users/stapi/OneDrive/Desktop/GD32VW553/V1_MQTT_OK/GD32VW55X_Wifi_BLE_SDK/GD32VW55x_RELEASE_V1.0.2/MSDK/wpa_supplicant/src/ap\ap_config.h ****  * mesh_conf - local MBSS state and settings
  27:C:/Users/stapi/OneDrive/Desktop/GD32VW553/V1_MQTT_OK/GD32VW55X_Wifi_BLE_SDK/GD32VW55x_RELEASE_V1.0.2/MSDK/wpa_supplicant/src/ap\ap_config.h ****  */
  28:C:/Users/stapi/OneDrive/Desktop/GD32VW553/V1_MQTT_OK/GD32VW55X_Wifi_BLE_SDK/GD32VW55x_RELEASE_V1.0.2/MSDK/wpa_supplicant/src/ap\ap_config.h **** struct mesh_conf {
  29:C:/Users/stapi/OneDrive/Desktop/GD32VW553/V1_MQTT_OK/GD32VW55X_Wifi_BLE_SDK/GD32VW55x_RELEASE_V1.0.2/MSDK/wpa_supplicant/src/ap\ap_config.h **** 	u8 meshid[32];
  30:C:/Users/stapi/OneDrive/Desktop/GD32VW553/V1_MQTT_OK/GD32VW55X_Wifi_BLE_SDK/GD32VW55x_RELEASE_V1.0.2/MSDK/wpa_supplicant/src/ap\ap_config.h **** 	u8 meshid_len;
  31:C:/Users/stapi/OneDrive/Desktop/GD32VW553/V1_MQTT_OK/GD32VW55X_Wifi_BLE_SDK/GD32VW55x_RELEASE_V1.0.2/MSDK/wpa_supplicant/src/ap\ap_config.h **** 	/* Active Path Selection Protocol Identifier */
  32:C:/Users/stapi/OneDrive/Desktop/GD32VW553/V1_MQTT_OK/GD32VW55X_Wifi_BLE_SDK/GD32VW55x_RELEASE_V1.0.2/MSDK/wpa_supplicant/src/ap\ap_config.h **** 	u8 mesh_pp_id;
  33:C:/Users/stapi/OneDrive/Desktop/GD32VW553/V1_MQTT_OK/GD32VW55X_Wifi_BLE_SDK/GD32VW55x_RELEASE_V1.0.2/MSDK/wpa_supplicant/src/ap\ap_config.h **** 	/* Active Path Selection Metric Identifier */
  34:C:/Users/stapi/OneDrive/Desktop/GD32VW553/V1_MQTT_OK/GD32VW55X_Wifi_BLE_SDK/GD32VW55x_RELEASE_V1.0.2/MSDK/wpa_supplicant/src/ap\ap_config.h **** 	u8 mesh_pm_id;
  35:C:/Users/stapi/OneDrive/Desktop/GD32VW553/V1_MQTT_OK/GD32VW55X_Wifi_BLE_SDK/GD32VW55x_RELEASE_V1.0.2/MSDK/wpa_supplicant/src/ap\ap_config.h **** 	/* Congestion Control Mode Identifier */
  36:C:/Users/stapi/OneDrive/Desktop/GD32VW553/V1_MQTT_OK/GD32VW55X_Wifi_BLE_SDK/GD32VW55x_RELEASE_V1.0.2/MSDK/wpa_supplicant/src/ap\ap_config.h **** 	u8 mesh_cc_id;
  37:C:/Users/stapi/OneDrive/Desktop/GD32VW553/V1_MQTT_OK/GD32VW55X_Wifi_BLE_SDK/GD32VW55x_RELEASE_V1.0.2/MSDK/wpa_supplicant/src/ap\ap_config.h **** 	/* Synchronization Protocol Identifier */
  38:C:/Users/stapi/OneDrive/Desktop/GD32VW553/V1_MQTT_OK/GD32VW55X_Wifi_BLE_SDK/GD32VW55x_RELEASE_V1.0.2/MSDK/wpa_supplicant/src/ap\ap_config.h **** 	u8 mesh_sp_id;
  39:C:/Users/stapi/OneDrive/Desktop/GD32VW553/V1_MQTT_OK/GD32VW55X_Wifi_BLE_SDK/GD32VW55x_RELEASE_V1.0.2/MSDK/wpa_supplicant/src/ap\ap_config.h **** 	/* Authentication Protocol Identifier */
  40:C:/Users/stapi/OneDrive/Desktop/GD32VW553/V1_MQTT_OK/GD32VW55X_Wifi_BLE_SDK/GD32VW55x_RELEASE_V1.0.2/MSDK/wpa_supplicant/src/ap\ap_config.h **** 	u8 mesh_auth_id;
  41:C:/Users/stapi/OneDrive/Desktop/GD32VW553/V1_MQTT_OK/GD32VW55X_Wifi_BLE_SDK/GD32VW55x_RELEASE_V1.0.2/MSDK/wpa_supplicant/src/ap\ap_config.h **** 	u8 *rsn_ie;
  42:C:/Users/stapi/OneDrive/Desktop/GD32VW553/V1_MQTT_OK/GD32VW55X_Wifi_BLE_SDK/GD32VW55x_RELEASE_V1.0.2/MSDK/wpa_supplicant/src/ap\ap_config.h **** 	int rsn_ie_len;
  43:C:/Users/stapi/OneDrive/Desktop/GD32VW553/V1_MQTT_OK/GD32VW55X_Wifi_BLE_SDK/GD32VW55x_RELEASE_V1.0.2/MSDK/wpa_supplicant/src/ap\ap_config.h **** #define MESH_CONF_SEC_NONE BIT(0)
  44:C:/Users/stapi/OneDrive/Desktop/GD32VW553/V1_MQTT_OK/GD32VW55X_Wifi_BLE_SDK/GD32VW55x_RELEASE_V1.0.2/MSDK/wpa_supplicant/src/ap\ap_config.h **** #define MESH_CONF_SEC_AUTH BIT(1)
  45:C:/Users/stapi/OneDrive/Desktop/GD32VW553/V1_MQTT_OK/GD32VW55X_Wifi_BLE_SDK/GD32VW55x_RELEASE_V1.0.2/MSDK/wpa_supplicant/src/ap\ap_config.h **** #define MESH_CONF_SEC_AMPE BIT(2)
  46:C:/Users/stapi/OneDrive/Desktop/GD32VW553/V1_MQTT_OK/GD32VW55X_Wifi_BLE_SDK/GD32VW55x_RELEASE_V1.0.2/MSDK/wpa_supplicant/src/ap\ap_config.h **** 	unsigned int security;
  47:C:/Users/stapi/OneDrive/Desktop/GD32VW553/V1_MQTT_OK/GD32VW55X_Wifi_BLE_SDK/GD32VW55x_RELEASE_V1.0.2/MSDK/wpa_supplicant/src/ap\ap_config.h **** 	enum mfp_options ieee80211w;
  48:C:/Users/stapi/OneDrive/Desktop/GD32VW553/V1_MQTT_OK/GD32VW55X_Wifi_BLE_SDK/GD32VW55x_RELEASE_V1.0.2/MSDK/wpa_supplicant/src/ap\ap_config.h **** 	int ocv;
  49:C:/Users/stapi/OneDrive/Desktop/GD32VW553/V1_MQTT_OK/GD32VW55X_Wifi_BLE_SDK/GD32VW55x_RELEASE_V1.0.2/MSDK/wpa_supplicant/src/ap\ap_config.h **** 	unsigned int pairwise_cipher;
  50:C:/Users/stapi/OneDrive/Desktop/GD32VW553/V1_MQTT_OK/GD32VW55X_Wifi_BLE_SDK/GD32VW55x_RELEASE_V1.0.2/MSDK/wpa_supplicant/src/ap\ap_config.h **** 	unsigned int group_cipher;
  51:C:/Users/stapi/OneDrive/Desktop/GD32VW553/V1_MQTT_OK/GD32VW55X_Wifi_BLE_SDK/GD32VW55x_RELEASE_V1.0.2/MSDK/wpa_supplicant/src/ap\ap_config.h **** 	unsigned int mgmt_group_cipher;
  52:C:/Users/stapi/OneDrive/Desktop/GD32VW553/V1_MQTT_OK/GD32VW55X_Wifi_BLE_SDK/GD32VW55x_RELEASE_V1.0.2/MSDK/wpa_supplicant/src/ap\ap_config.h **** 	int dot11MeshMaxRetries;
  53:C:/Users/stapi/OneDrive/Desktop/GD32VW553/V1_MQTT_OK/GD32VW55X_Wifi_BLE_SDK/GD32VW55x_RELEASE_V1.0.2/MSDK/wpa_supplicant/src/ap\ap_config.h **** 	int dot11MeshRetryTimeout; /* msec */
  54:C:/Users/stapi/OneDrive/Desktop/GD32VW553/V1_MQTT_OK/GD32VW55X_Wifi_BLE_SDK/GD32VW55x_RELEASE_V1.0.2/MSDK/wpa_supplicant/src/ap\ap_config.h **** 	int dot11MeshConfirmTimeout; /* msec */
  55:C:/Users/stapi/OneDrive/Desktop/GD32VW553/V1_MQTT_OK/GD32VW55X_Wifi_BLE_SDK/GD32VW55x_RELEASE_V1.0.2/MSDK/wpa_supplicant/src/ap\ap_config.h **** 	int dot11MeshHoldingTimeout; /* msec */
  56:C:/Users/stapi/OneDrive/Desktop/GD32VW553/V1_MQTT_OK/GD32VW55X_Wifi_BLE_SDK/GD32VW55x_RELEASE_V1.0.2/MSDK/wpa_supplicant/src/ap\ap_config.h **** 	int mesh_fwding;
  57:C:/Users/stapi/OneDrive/Desktop/GD32VW553/V1_MQTT_OK/GD32VW55X_Wifi_BLE_SDK/GD32VW55x_RELEASE_V1.0.2/MSDK/wpa_supplicant/src/ap\ap_config.h **** };
  58:C:/Users/stapi/OneDrive/Desktop/GD32VW553/V1_MQTT_OK/GD32VW55X_Wifi_BLE_SDK/GD32VW55x_RELEASE_V1.0.2/MSDK/wpa_supplicant/src/ap\ap_config.h **** 
  59:C:/Users/stapi/OneDrive/Desktop/GD32VW553/V1_MQTT_OK/GD32VW55X_Wifi_BLE_SDK/GD32VW55x_RELEASE_V1.0.2/MSDK/wpa_supplicant/src/ap\ap_config.h **** #define MAX_STA_COUNT 2007
  60:C:/Users/stapi/OneDrive/Desktop/GD32VW553/V1_MQTT_OK/GD32VW55X_Wifi_BLE_SDK/GD32VW55x_RELEASE_V1.0.2/MSDK/wpa_supplicant/src/ap\ap_config.h **** #define MAX_VLAN_ID 4094
  61:C:/Users/stapi/OneDrive/Desktop/GD32VW553/V1_MQTT_OK/GD32VW55X_Wifi_BLE_SDK/GD32VW55x_RELEASE_V1.0.2/MSDK/wpa_supplicant/src/ap\ap_config.h **** 
  62:C:/Users/stapi/OneDrive/Desktop/GD32VW553/V1_MQTT_OK/GD32VW55X_Wifi_BLE_SDK/GD32VW55x_RELEASE_V1.0.2/MSDK/wpa_supplicant/src/ap\ap_config.h **** typedef u8 macaddr[ETH_ALEN];
  63:C:/Users/stapi/OneDrive/Desktop/GD32VW553/V1_MQTT_OK/GD32VW55X_Wifi_BLE_SDK/GD32VW55x_RELEASE_V1.0.2/MSDK/wpa_supplicant/src/ap\ap_config.h **** 
  64:C:/Users/stapi/OneDrive/Desktop/GD32VW553/V1_MQTT_OK/GD32VW55X_Wifi_BLE_SDK/GD32VW55x_RELEASE_V1.0.2/MSDK/wpa_supplicant/src/ap\ap_config.h **** struct mac_acl_entry {
  65:C:/Users/stapi/OneDrive/Desktop/GD32VW553/V1_MQTT_OK/GD32VW55X_Wifi_BLE_SDK/GD32VW55x_RELEASE_V1.0.2/MSDK/wpa_supplicant/src/ap\ap_config.h **** 	macaddr addr;
  66:C:/Users/stapi/OneDrive/Desktop/GD32VW553/V1_MQTT_OK/GD32VW55X_Wifi_BLE_SDK/GD32VW55x_RELEASE_V1.0.2/MSDK/wpa_supplicant/src/ap\ap_config.h **** 	struct vlan_description vlan_id;
  67:C:/Users/stapi/OneDrive/Desktop/GD32VW553/V1_MQTT_OK/GD32VW55X_Wifi_BLE_SDK/GD32VW55x_RELEASE_V1.0.2/MSDK/wpa_supplicant/src/ap\ap_config.h **** };
  68:C:/Users/stapi/OneDrive/Desktop/GD32VW553/V1_MQTT_OK/GD32VW55X_Wifi_BLE_SDK/GD32VW55x_RELEASE_V1.0.2/MSDK/wpa_supplicant/src/ap\ap_config.h **** 
  69:C:/Users/stapi/OneDrive/Desktop/GD32VW553/V1_MQTT_OK/GD32VW55X_Wifi_BLE_SDK/GD32VW55x_RELEASE_V1.0.2/MSDK/wpa_supplicant/src/ap\ap_config.h **** struct hostapd_radius_servers;
  70:C:/Users/stapi/OneDrive/Desktop/GD32VW553/V1_MQTT_OK/GD32VW55X_Wifi_BLE_SDK/GD32VW55x_RELEASE_V1.0.2/MSDK/wpa_supplicant/src/ap\ap_config.h **** struct ft_remote_r0kh;
  71:C:/Users/stapi/OneDrive/Desktop/GD32VW553/V1_MQTT_OK/GD32VW55X_Wifi_BLE_SDK/GD32VW55x_RELEASE_V1.0.2/MSDK/wpa_supplicant/src/ap\ap_config.h **** struct ft_remote_r1kh;
  72:C:/Users/stapi/OneDrive/Desktop/GD32VW553/V1_MQTT_OK/GD32VW55X_Wifi_BLE_SDK/GD32VW55x_RELEASE_V1.0.2/MSDK/wpa_supplicant/src/ap\ap_config.h **** 
  73:C:/Users/stapi/OneDrive/Desktop/GD32VW553/V1_MQTT_OK/GD32VW55X_Wifi_BLE_SDK/GD32VW55x_RELEASE_V1.0.2/MSDK/wpa_supplicant/src/ap\ap_config.h **** #ifdef CONFIG_WEP
  74:C:/Users/stapi/OneDrive/Desktop/GD32VW553/V1_MQTT_OK/GD32VW55X_Wifi_BLE_SDK/GD32VW55x_RELEASE_V1.0.2/MSDK/wpa_supplicant/src/ap\ap_config.h **** #define NUM_WEP_KEYS 4
  75:C:/Users/stapi/OneDrive/Desktop/GD32VW553/V1_MQTT_OK/GD32VW55X_Wifi_BLE_SDK/GD32VW55x_RELEASE_V1.0.2/MSDK/wpa_supplicant/src/ap\ap_config.h **** struct hostapd_wep_keys {
  76:C:/Users/stapi/OneDrive/Desktop/GD32VW553/V1_MQTT_OK/GD32VW55X_Wifi_BLE_SDK/GD32VW55x_RELEASE_V1.0.2/MSDK/wpa_supplicant/src/ap\ap_config.h **** 	u8 idx;
  77:C:/Users/stapi/OneDrive/Desktop/GD32VW553/V1_MQTT_OK/GD32VW55X_Wifi_BLE_SDK/GD32VW55x_RELEASE_V1.0.2/MSDK/wpa_supplicant/src/ap\ap_config.h **** 	u8 *key[NUM_WEP_KEYS];
  78:C:/Users/stapi/OneDrive/Desktop/GD32VW553/V1_MQTT_OK/GD32VW55X_Wifi_BLE_SDK/GD32VW55x_RELEASE_V1.0.2/MSDK/wpa_supplicant/src/ap\ap_config.h **** 	size_t len[NUM_WEP_KEYS];
  79:C:/Users/stapi/OneDrive/Desktop/GD32VW553/V1_MQTT_OK/GD32VW55X_Wifi_BLE_SDK/GD32VW55x_RELEASE_V1.0.2/MSDK/wpa_supplicant/src/ap\ap_config.h **** 	int keys_set;
  80:C:/Users/stapi/OneDrive/Desktop/GD32VW553/V1_MQTT_OK/GD32VW55X_Wifi_BLE_SDK/GD32VW55x_RELEASE_V1.0.2/MSDK/wpa_supplicant/src/ap\ap_config.h **** 	size_t default_len; /* key length used for dynamic key generation */
  81:C:/Users/stapi/OneDrive/Desktop/GD32VW553/V1_MQTT_OK/GD32VW55X_Wifi_BLE_SDK/GD32VW55x_RELEASE_V1.0.2/MSDK/wpa_supplicant/src/ap\ap_config.h **** };
  82:C:/Users/stapi/OneDrive/Desktop/GD32VW553/V1_MQTT_OK/GD32VW55X_Wifi_BLE_SDK/GD32VW55x_RELEASE_V1.0.2/MSDK/wpa_supplicant/src/ap\ap_config.h **** #endif /* CONFIG_WEP */
  83:C:/Users/stapi/OneDrive/Desktop/GD32VW553/V1_MQTT_OK/GD32VW55X_Wifi_BLE_SDK/GD32VW55x_RELEASE_V1.0.2/MSDK/wpa_supplicant/src/ap\ap_config.h **** 
  84:C:/Users/stapi/OneDrive/Desktop/GD32VW553/V1_MQTT_OK/GD32VW55X_Wifi_BLE_SDK/GD32VW55x_RELEASE_V1.0.2/MSDK/wpa_supplicant/src/ap\ap_config.h **** typedef enum hostap_security_policy {
  85:C:/Users/stapi/OneDrive/Desktop/GD32VW553/V1_MQTT_OK/GD32VW55X_Wifi_BLE_SDK/GD32VW55x_RELEASE_V1.0.2/MSDK/wpa_supplicant/src/ap\ap_config.h **** 	SECURITY_PLAINTEXT = 0,
  86:C:/Users/stapi/OneDrive/Desktop/GD32VW553/V1_MQTT_OK/GD32VW55X_Wifi_BLE_SDK/GD32VW55x_RELEASE_V1.0.2/MSDK/wpa_supplicant/src/ap\ap_config.h **** #ifdef CONFIG_WEP
  87:C:/Users/stapi/OneDrive/Desktop/GD32VW553/V1_MQTT_OK/GD32VW55X_Wifi_BLE_SDK/GD32VW55x_RELEASE_V1.0.2/MSDK/wpa_supplicant/src/ap\ap_config.h **** 	SECURITY_STATIC_WEP = 1,
  88:C:/Users/stapi/OneDrive/Desktop/GD32VW553/V1_MQTT_OK/GD32VW55X_Wifi_BLE_SDK/GD32VW55x_RELEASE_V1.0.2/MSDK/wpa_supplicant/src/ap\ap_config.h **** #endif /* CONFIG_WEP */
  89:C:/Users/stapi/OneDrive/Desktop/GD32VW553/V1_MQTT_OK/GD32VW55X_Wifi_BLE_SDK/GD32VW55x_RELEASE_V1.0.2/MSDK/wpa_supplicant/src/ap\ap_config.h **** 	SECURITY_IEEE_802_1X = 2,
  90:C:/Users/stapi/OneDrive/Desktop/GD32VW553/V1_MQTT_OK/GD32VW55X_Wifi_BLE_SDK/GD32VW55x_RELEASE_V1.0.2/MSDK/wpa_supplicant/src/ap\ap_config.h **** 	SECURITY_WPA_PSK = 3,
  91:C:/Users/stapi/OneDrive/Desktop/GD32VW553/V1_MQTT_OK/GD32VW55X_Wifi_BLE_SDK/GD32VW55x_RELEASE_V1.0.2/MSDK/wpa_supplicant/src/ap\ap_config.h **** 	SECURITY_WPA = 4,
  92:C:/Users/stapi/OneDrive/Desktop/GD32VW553/V1_MQTT_OK/GD32VW55X_Wifi_BLE_SDK/GD32VW55x_RELEASE_V1.0.2/MSDK/wpa_supplicant/src/ap\ap_config.h **** 	SECURITY_OSEN = 5
  93:C:/Users/stapi/OneDrive/Desktop/GD32VW553/V1_MQTT_OK/GD32VW55X_Wifi_BLE_SDK/GD32VW55x_RELEASE_V1.0.2/MSDK/wpa_supplicant/src/ap\ap_config.h **** } secpolicy;
  94:C:/Users/stapi/OneDrive/Desktop/GD32VW553/V1_MQTT_OK/GD32VW55X_Wifi_BLE_SDK/GD32VW55x_RELEASE_V1.0.2/MSDK/wpa_supplicant/src/ap\ap_config.h **** 
  95:C:/Users/stapi/OneDrive/Desktop/GD32VW553/V1_MQTT_OK/GD32VW55X_Wifi_BLE_SDK/GD32VW55x_RELEASE_V1.0.2/MSDK/wpa_supplicant/src/ap\ap_config.h **** struct hostapd_ssid {
  96:C:/Users/stapi/OneDrive/Desktop/GD32VW553/V1_MQTT_OK/GD32VW55X_Wifi_BLE_SDK/GD32VW55x_RELEASE_V1.0.2/MSDK/wpa_supplicant/src/ap\ap_config.h **** 	u8 ssid[SSID_MAX_LEN];
  97:C:/Users/stapi/OneDrive/Desktop/GD32VW553/V1_MQTT_OK/GD32VW55X_Wifi_BLE_SDK/GD32VW55x_RELEASE_V1.0.2/MSDK/wpa_supplicant/src/ap\ap_config.h **** 	size_t ssid_len;
  98:C:/Users/stapi/OneDrive/Desktop/GD32VW553/V1_MQTT_OK/GD32VW55X_Wifi_BLE_SDK/GD32VW55x_RELEASE_V1.0.2/MSDK/wpa_supplicant/src/ap\ap_config.h **** 	u32 short_ssid;
  99:C:/Users/stapi/OneDrive/Desktop/GD32VW553/V1_MQTT_OK/GD32VW55X_Wifi_BLE_SDK/GD32VW55x_RELEASE_V1.0.2/MSDK/wpa_supplicant/src/ap\ap_config.h **** 	unsigned int ssid_set:1;
 100:C:/Users/stapi/OneDrive/Desktop/GD32VW553/V1_MQTT_OK/GD32VW55X_Wifi_BLE_SDK/GD32VW55x_RELEASE_V1.0.2/MSDK/wpa_supplicant/src/ap\ap_config.h **** 	unsigned int utf8_ssid:1;
 101:C:/Users/stapi/OneDrive/Desktop/GD32VW553/V1_MQTT_OK/GD32VW55X_Wifi_BLE_SDK/GD32VW55x_RELEASE_V1.0.2/MSDK/wpa_supplicant/src/ap\ap_config.h **** 	unsigned int wpa_passphrase_set:1;
 102:C:/Users/stapi/OneDrive/Desktop/GD32VW553/V1_MQTT_OK/GD32VW55X_Wifi_BLE_SDK/GD32VW55x_RELEASE_V1.0.2/MSDK/wpa_supplicant/src/ap\ap_config.h **** 	unsigned int wpa_psk_set:1;
 103:C:/Users/stapi/OneDrive/Desktop/GD32VW553/V1_MQTT_OK/GD32VW55X_Wifi_BLE_SDK/GD32VW55x_RELEASE_V1.0.2/MSDK/wpa_supplicant/src/ap\ap_config.h **** 
 104:C:/Users/stapi/OneDrive/Desktop/GD32VW553/V1_MQTT_OK/GD32VW55X_Wifi_BLE_SDK/GD32VW55x_RELEASE_V1.0.2/MSDK/wpa_supplicant/src/ap\ap_config.h **** 	char vlan[IFNAMSIZ + 1];
 105:C:/Users/stapi/OneDrive/Desktop/GD32VW553/V1_MQTT_OK/GD32VW55X_Wifi_BLE_SDK/GD32VW55x_RELEASE_V1.0.2/MSDK/wpa_supplicant/src/ap\ap_config.h **** 	secpolicy security_policy;
 106:C:/Users/stapi/OneDrive/Desktop/GD32VW553/V1_MQTT_OK/GD32VW55X_Wifi_BLE_SDK/GD32VW55x_RELEASE_V1.0.2/MSDK/wpa_supplicant/src/ap\ap_config.h **** 
 107:C:/Users/stapi/OneDrive/Desktop/GD32VW553/V1_MQTT_OK/GD32VW55X_Wifi_BLE_SDK/GD32VW55x_RELEASE_V1.0.2/MSDK/wpa_supplicant/src/ap\ap_config.h **** 	struct hostapd_wpa_psk *wpa_psk;
 108:C:/Users/stapi/OneDrive/Desktop/GD32VW553/V1_MQTT_OK/GD32VW55X_Wifi_BLE_SDK/GD32VW55x_RELEASE_V1.0.2/MSDK/wpa_supplicant/src/ap\ap_config.h **** 	char *wpa_passphrase;
 109:C:/Users/stapi/OneDrive/Desktop/GD32VW553/V1_MQTT_OK/GD32VW55X_Wifi_BLE_SDK/GD32VW55x_RELEASE_V1.0.2/MSDK/wpa_supplicant/src/ap\ap_config.h **** 	char *wpa_psk_file;
 110:C:/Users/stapi/OneDrive/Desktop/GD32VW553/V1_MQTT_OK/GD32VW55X_Wifi_BLE_SDK/GD32VW55x_RELEASE_V1.0.2/MSDK/wpa_supplicant/src/ap\ap_config.h **** 	struct sae_pt *pt;
 111:C:/Users/stapi/OneDrive/Desktop/GD32VW553/V1_MQTT_OK/GD32VW55X_Wifi_BLE_SDK/GD32VW55x_RELEASE_V1.0.2/MSDK/wpa_supplicant/src/ap\ap_config.h **** 
 112:C:/Users/stapi/OneDrive/Desktop/GD32VW553/V1_MQTT_OK/GD32VW55X_Wifi_BLE_SDK/GD32VW55x_RELEASE_V1.0.2/MSDK/wpa_supplicant/src/ap\ap_config.h **** #ifdef CONFIG_WEP
 113:C:/Users/stapi/OneDrive/Desktop/GD32VW553/V1_MQTT_OK/GD32VW55X_Wifi_BLE_SDK/GD32VW55x_RELEASE_V1.0.2/MSDK/wpa_supplicant/src/ap\ap_config.h **** 	struct hostapd_wep_keys wep;
 114:C:/Users/stapi/OneDrive/Desktop/GD32VW553/V1_MQTT_OK/GD32VW55X_Wifi_BLE_SDK/GD32VW55x_RELEASE_V1.0.2/MSDK/wpa_supplicant/src/ap\ap_config.h **** #endif /* CONFIG_WEP */
 115:C:/Users/stapi/OneDrive/Desktop/GD32VW553/V1_MQTT_OK/GD32VW55X_Wifi_BLE_SDK/GD32VW55x_RELEASE_V1.0.2/MSDK/wpa_supplicant/src/ap\ap_config.h **** 
 116:C:/Users/stapi/OneDrive/Desktop/GD32VW553/V1_MQTT_OK/GD32VW55X_Wifi_BLE_SDK/GD32VW55x_RELEASE_V1.0.2/MSDK/wpa_supplicant/src/ap\ap_config.h **** #define DYNAMIC_VLAN_DISABLED 0
 117:C:/Users/stapi/OneDrive/Desktop/GD32VW553/V1_MQTT_OK/GD32VW55X_Wifi_BLE_SDK/GD32VW55x_RELEASE_V1.0.2/MSDK/wpa_supplicant/src/ap\ap_config.h **** #define DYNAMIC_VLAN_OPTIONAL 1
 118:C:/Users/stapi/OneDrive/Desktop/GD32VW553/V1_MQTT_OK/GD32VW55X_Wifi_BLE_SDK/GD32VW55x_RELEASE_V1.0.2/MSDK/wpa_supplicant/src/ap\ap_config.h **** #define DYNAMIC_VLAN_REQUIRED 2
 119:C:/Users/stapi/OneDrive/Desktop/GD32VW553/V1_MQTT_OK/GD32VW55X_Wifi_BLE_SDK/GD32VW55x_RELEASE_V1.0.2/MSDK/wpa_supplicant/src/ap\ap_config.h **** 	int dynamic_vlan;
 120:C:/Users/stapi/OneDrive/Desktop/GD32VW553/V1_MQTT_OK/GD32VW55X_Wifi_BLE_SDK/GD32VW55x_RELEASE_V1.0.2/MSDK/wpa_supplicant/src/ap\ap_config.h **** #define DYNAMIC_VLAN_NAMING_WITHOUT_DEVICE 0
 121:C:/Users/stapi/OneDrive/Desktop/GD32VW553/V1_MQTT_OK/GD32VW55X_Wifi_BLE_SDK/GD32VW55x_RELEASE_V1.0.2/MSDK/wpa_supplicant/src/ap\ap_config.h **** #define DYNAMIC_VLAN_NAMING_WITH_DEVICE 1
 122:C:/Users/stapi/OneDrive/Desktop/GD32VW553/V1_MQTT_OK/GD32VW55X_Wifi_BLE_SDK/GD32VW55x_RELEASE_V1.0.2/MSDK/wpa_supplicant/src/ap\ap_config.h **** #define DYNAMIC_VLAN_NAMING_END 2
 123:C:/Users/stapi/OneDrive/Desktop/GD32VW553/V1_MQTT_OK/GD32VW55X_Wifi_BLE_SDK/GD32VW55x_RELEASE_V1.0.2/MSDK/wpa_supplicant/src/ap\ap_config.h **** 	int vlan_naming;
 124:C:/Users/stapi/OneDrive/Desktop/GD32VW553/V1_MQTT_OK/GD32VW55X_Wifi_BLE_SDK/GD32VW55x_RELEASE_V1.0.2/MSDK/wpa_supplicant/src/ap\ap_config.h **** 	int per_sta_vif;
 125:C:/Users/stapi/OneDrive/Desktop/GD32VW553/V1_MQTT_OK/GD32VW55X_Wifi_BLE_SDK/GD32VW55x_RELEASE_V1.0.2/MSDK/wpa_supplicant/src/ap\ap_config.h **** #ifdef CONFIG_FULL_DYNAMIC_VLAN
 126:C:/Users/stapi/OneDrive/Desktop/GD32VW553/V1_MQTT_OK/GD32VW55X_Wifi_BLE_SDK/GD32VW55x_RELEASE_V1.0.2/MSDK/wpa_supplicant/src/ap\ap_config.h **** 	char *vlan_tagged_interface;
 127:C:/Users/stapi/OneDrive/Desktop/GD32VW553/V1_MQTT_OK/GD32VW55X_Wifi_BLE_SDK/GD32VW55x_RELEASE_V1.0.2/MSDK/wpa_supplicant/src/ap\ap_config.h **** #endif /* CONFIG_FULL_DYNAMIC_VLAN */
 128:C:/Users/stapi/OneDrive/Desktop/GD32VW553/V1_MQTT_OK/GD32VW55X_Wifi_BLE_SDK/GD32VW55x_RELEASE_V1.0.2/MSDK/wpa_supplicant/src/ap\ap_config.h **** };
 129:C:/Users/stapi/OneDrive/Desktop/GD32VW553/V1_MQTT_OK/GD32VW55X_Wifi_BLE_SDK/GD32VW55x_RELEASE_V1.0.2/MSDK/wpa_supplicant/src/ap\ap_config.h **** 
 130:C:/Users/stapi/OneDrive/Desktop/GD32VW553/V1_MQTT_OK/GD32VW55X_Wifi_BLE_SDK/GD32VW55x_RELEASE_V1.0.2/MSDK/wpa_supplicant/src/ap\ap_config.h **** 
 131:C:/Users/stapi/OneDrive/Desktop/GD32VW553/V1_MQTT_OK/GD32VW55X_Wifi_BLE_SDK/GD32VW55x_RELEASE_V1.0.2/MSDK/wpa_supplicant/src/ap\ap_config.h **** #define VLAN_ID_WILDCARD -1
 132:C:/Users/stapi/OneDrive/Desktop/GD32VW553/V1_MQTT_OK/GD32VW55X_Wifi_BLE_SDK/GD32VW55x_RELEASE_V1.0.2/MSDK/wpa_supplicant/src/ap\ap_config.h **** 
 133:C:/Users/stapi/OneDrive/Desktop/GD32VW553/V1_MQTT_OK/GD32VW55X_Wifi_BLE_SDK/GD32VW55x_RELEASE_V1.0.2/MSDK/wpa_supplicant/src/ap\ap_config.h **** struct hostapd_vlan {
 134:C:/Users/stapi/OneDrive/Desktop/GD32VW553/V1_MQTT_OK/GD32VW55X_Wifi_BLE_SDK/GD32VW55x_RELEASE_V1.0.2/MSDK/wpa_supplicant/src/ap\ap_config.h **** 	struct hostapd_vlan *next;
 135:C:/Users/stapi/OneDrive/Desktop/GD32VW553/V1_MQTT_OK/GD32VW55X_Wifi_BLE_SDK/GD32VW55x_RELEASE_V1.0.2/MSDK/wpa_supplicant/src/ap\ap_config.h **** 	int vlan_id; /* VLAN ID or -1 (VLAN_ID_WILDCARD) for wildcard entry */
 136:C:/Users/stapi/OneDrive/Desktop/GD32VW553/V1_MQTT_OK/GD32VW55X_Wifi_BLE_SDK/GD32VW55x_RELEASE_V1.0.2/MSDK/wpa_supplicant/src/ap\ap_config.h **** 	struct vlan_description vlan_desc;
 137:C:/Users/stapi/OneDrive/Desktop/GD32VW553/V1_MQTT_OK/GD32VW55X_Wifi_BLE_SDK/GD32VW55x_RELEASE_V1.0.2/MSDK/wpa_supplicant/src/ap\ap_config.h **** 	char ifname[IFNAMSIZ + 1];
 138:C:/Users/stapi/OneDrive/Desktop/GD32VW553/V1_MQTT_OK/GD32VW55X_Wifi_BLE_SDK/GD32VW55x_RELEASE_V1.0.2/MSDK/wpa_supplicant/src/ap\ap_config.h **** 	char bridge[IFNAMSIZ + 1];
 139:C:/Users/stapi/OneDrive/Desktop/GD32VW553/V1_MQTT_OK/GD32VW55X_Wifi_BLE_SDK/GD32VW55x_RELEASE_V1.0.2/MSDK/wpa_supplicant/src/ap\ap_config.h **** 	int configured;
 140:C:/Users/stapi/OneDrive/Desktop/GD32VW553/V1_MQTT_OK/GD32VW55X_Wifi_BLE_SDK/GD32VW55x_RELEASE_V1.0.2/MSDK/wpa_supplicant/src/ap\ap_config.h **** 	int dynamic_vlan;
 141:C:/Users/stapi/OneDrive/Desktop/GD32VW553/V1_MQTT_OK/GD32VW55X_Wifi_BLE_SDK/GD32VW55x_RELEASE_V1.0.2/MSDK/wpa_supplicant/src/ap\ap_config.h **** #ifdef CONFIG_FULL_DYNAMIC_VLAN
 142:C:/Users/stapi/OneDrive/Desktop/GD32VW553/V1_MQTT_OK/GD32VW55X_Wifi_BLE_SDK/GD32VW55x_RELEASE_V1.0.2/MSDK/wpa_supplicant/src/ap\ap_config.h **** 
 143:C:/Users/stapi/OneDrive/Desktop/GD32VW553/V1_MQTT_OK/GD32VW55X_Wifi_BLE_SDK/GD32VW55x_RELEASE_V1.0.2/MSDK/wpa_supplicant/src/ap\ap_config.h **** #define DVLAN_CLEAN_WLAN_PORT	0x8
 144:C:/Users/stapi/OneDrive/Desktop/GD32VW553/V1_MQTT_OK/GD32VW55X_Wifi_BLE_SDK/GD32VW55x_RELEASE_V1.0.2/MSDK/wpa_supplicant/src/ap\ap_config.h **** 	int clean;
 145:C:/Users/stapi/OneDrive/Desktop/GD32VW553/V1_MQTT_OK/GD32VW55X_Wifi_BLE_SDK/GD32VW55x_RELEASE_V1.0.2/MSDK/wpa_supplicant/src/ap\ap_config.h **** #endif /* CONFIG_FULL_DYNAMIC_VLAN */
 146:C:/Users/stapi/OneDrive/Desktop/GD32VW553/V1_MQTT_OK/GD32VW55X_Wifi_BLE_SDK/GD32VW55x_RELEASE_V1.0.2/MSDK/wpa_supplicant/src/ap\ap_config.h **** };
 147:C:/Users/stapi/OneDrive/Desktop/GD32VW553/V1_MQTT_OK/GD32VW55X_Wifi_BLE_SDK/GD32VW55x_RELEASE_V1.0.2/MSDK/wpa_supplicant/src/ap\ap_config.h **** 
 148:C:/Users/stapi/OneDrive/Desktop/GD32VW553/V1_MQTT_OK/GD32VW55X_Wifi_BLE_SDK/GD32VW55x_RELEASE_V1.0.2/MSDK/wpa_supplicant/src/ap\ap_config.h **** #define PMK_LEN 32
 149:C:/Users/stapi/OneDrive/Desktop/GD32VW553/V1_MQTT_OK/GD32VW55X_Wifi_BLE_SDK/GD32VW55x_RELEASE_V1.0.2/MSDK/wpa_supplicant/src/ap\ap_config.h **** #define KEYID_LEN 32
 150:C:/Users/stapi/OneDrive/Desktop/GD32VW553/V1_MQTT_OK/GD32VW55X_Wifi_BLE_SDK/GD32VW55x_RELEASE_V1.0.2/MSDK/wpa_supplicant/src/ap\ap_config.h **** #define MIN_PASSPHRASE_LEN 8
 151:C:/Users/stapi/OneDrive/Desktop/GD32VW553/V1_MQTT_OK/GD32VW55X_Wifi_BLE_SDK/GD32VW55x_RELEASE_V1.0.2/MSDK/wpa_supplicant/src/ap\ap_config.h **** #define MAX_PASSPHRASE_LEN 63
 152:C:/Users/stapi/OneDrive/Desktop/GD32VW553/V1_MQTT_OK/GD32VW55X_Wifi_BLE_SDK/GD32VW55x_RELEASE_V1.0.2/MSDK/wpa_supplicant/src/ap\ap_config.h **** struct hostapd_sta_wpa_psk_short {
 153:C:/Users/stapi/OneDrive/Desktop/GD32VW553/V1_MQTT_OK/GD32VW55X_Wifi_BLE_SDK/GD32VW55x_RELEASE_V1.0.2/MSDK/wpa_supplicant/src/ap\ap_config.h **** 	struct hostapd_sta_wpa_psk_short *next;
 154:C:/Users/stapi/OneDrive/Desktop/GD32VW553/V1_MQTT_OK/GD32VW55X_Wifi_BLE_SDK/GD32VW55x_RELEASE_V1.0.2/MSDK/wpa_supplicant/src/ap\ap_config.h **** 	unsigned int is_passphrase:1;
 155:C:/Users/stapi/OneDrive/Desktop/GD32VW553/V1_MQTT_OK/GD32VW55X_Wifi_BLE_SDK/GD32VW55x_RELEASE_V1.0.2/MSDK/wpa_supplicant/src/ap\ap_config.h **** 	u8 psk[PMK_LEN];
 156:C:/Users/stapi/OneDrive/Desktop/GD32VW553/V1_MQTT_OK/GD32VW55X_Wifi_BLE_SDK/GD32VW55x_RELEASE_V1.0.2/MSDK/wpa_supplicant/src/ap\ap_config.h **** 	char passphrase[MAX_PASSPHRASE_LEN + 1];
 157:C:/Users/stapi/OneDrive/Desktop/GD32VW553/V1_MQTT_OK/GD32VW55X_Wifi_BLE_SDK/GD32VW55x_RELEASE_V1.0.2/MSDK/wpa_supplicant/src/ap\ap_config.h **** 	int ref; /* (number of references held) - 1 */
 158:C:/Users/stapi/OneDrive/Desktop/GD32VW553/V1_MQTT_OK/GD32VW55X_Wifi_BLE_SDK/GD32VW55x_RELEASE_V1.0.2/MSDK/wpa_supplicant/src/ap\ap_config.h **** };
 159:C:/Users/stapi/OneDrive/Desktop/GD32VW553/V1_MQTT_OK/GD32VW55X_Wifi_BLE_SDK/GD32VW55x_RELEASE_V1.0.2/MSDK/wpa_supplicant/src/ap\ap_config.h **** 
 160:C:/Users/stapi/OneDrive/Desktop/GD32VW553/V1_MQTT_OK/GD32VW55X_Wifi_BLE_SDK/GD32VW55x_RELEASE_V1.0.2/MSDK/wpa_supplicant/src/ap\ap_config.h **** struct hostapd_wpa_psk {
 161:C:/Users/stapi/OneDrive/Desktop/GD32VW553/V1_MQTT_OK/GD32VW55X_Wifi_BLE_SDK/GD32VW55x_RELEASE_V1.0.2/MSDK/wpa_supplicant/src/ap\ap_config.h **** 	struct hostapd_wpa_psk *next;
 162:C:/Users/stapi/OneDrive/Desktop/GD32VW553/V1_MQTT_OK/GD32VW55X_Wifi_BLE_SDK/GD32VW55x_RELEASE_V1.0.2/MSDK/wpa_supplicant/src/ap\ap_config.h **** 	int group;
 163:C:/Users/stapi/OneDrive/Desktop/GD32VW553/V1_MQTT_OK/GD32VW55X_Wifi_BLE_SDK/GD32VW55x_RELEASE_V1.0.2/MSDK/wpa_supplicant/src/ap\ap_config.h **** 	char keyid[KEYID_LEN];
 164:C:/Users/stapi/OneDrive/Desktop/GD32VW553/V1_MQTT_OK/GD32VW55X_Wifi_BLE_SDK/GD32VW55x_RELEASE_V1.0.2/MSDK/wpa_supplicant/src/ap\ap_config.h **** 	int wps;
 165:C:/Users/stapi/OneDrive/Desktop/GD32VW553/V1_MQTT_OK/GD32VW55X_Wifi_BLE_SDK/GD32VW55x_RELEASE_V1.0.2/MSDK/wpa_supplicant/src/ap\ap_config.h **** 	u8 psk[PMK_LEN];
 166:C:/Users/stapi/OneDrive/Desktop/GD32VW553/V1_MQTT_OK/GD32VW55X_Wifi_BLE_SDK/GD32VW55x_RELEASE_V1.0.2/MSDK/wpa_supplicant/src/ap\ap_config.h **** 	u8 addr[ETH_ALEN];
 167:C:/Users/stapi/OneDrive/Desktop/GD32VW553/V1_MQTT_OK/GD32VW55X_Wifi_BLE_SDK/GD32VW55x_RELEASE_V1.0.2/MSDK/wpa_supplicant/src/ap\ap_config.h **** 	u8 p2p_dev_addr[ETH_ALEN];
 168:C:/Users/stapi/OneDrive/Desktop/GD32VW553/V1_MQTT_OK/GD32VW55X_Wifi_BLE_SDK/GD32VW55x_RELEASE_V1.0.2/MSDK/wpa_supplicant/src/ap\ap_config.h **** 	int vlan_id;
 169:C:/Users/stapi/OneDrive/Desktop/GD32VW553/V1_MQTT_OK/GD32VW55X_Wifi_BLE_SDK/GD32VW55x_RELEASE_V1.0.2/MSDK/wpa_supplicant/src/ap\ap_config.h **** };
 170:C:/Users/stapi/OneDrive/Desktop/GD32VW553/V1_MQTT_OK/GD32VW55X_Wifi_BLE_SDK/GD32VW55x_RELEASE_V1.0.2/MSDK/wpa_supplicant/src/ap\ap_config.h **** 
 171:C:/Users/stapi/OneDrive/Desktop/GD32VW553/V1_MQTT_OK/GD32VW55X_Wifi_BLE_SDK/GD32VW55x_RELEASE_V1.0.2/MSDK/wpa_supplicant/src/ap\ap_config.h **** struct hostapd_eap_user {
 172:C:/Users/stapi/OneDrive/Desktop/GD32VW553/V1_MQTT_OK/GD32VW55X_Wifi_BLE_SDK/GD32VW55x_RELEASE_V1.0.2/MSDK/wpa_supplicant/src/ap\ap_config.h **** 	struct hostapd_eap_user *next;
 173:C:/Users/stapi/OneDrive/Desktop/GD32VW553/V1_MQTT_OK/GD32VW55X_Wifi_BLE_SDK/GD32VW55x_RELEASE_V1.0.2/MSDK/wpa_supplicant/src/ap\ap_config.h **** 	u8 *identity;
 174:C:/Users/stapi/OneDrive/Desktop/GD32VW553/V1_MQTT_OK/GD32VW55X_Wifi_BLE_SDK/GD32VW55x_RELEASE_V1.0.2/MSDK/wpa_supplicant/src/ap\ap_config.h **** 	size_t identity_len;
 175:C:/Users/stapi/OneDrive/Desktop/GD32VW553/V1_MQTT_OK/GD32VW55X_Wifi_BLE_SDK/GD32VW55x_RELEASE_V1.0.2/MSDK/wpa_supplicant/src/ap\ap_config.h **** 	struct {
 176:C:/Users/stapi/OneDrive/Desktop/GD32VW553/V1_MQTT_OK/GD32VW55X_Wifi_BLE_SDK/GD32VW55x_RELEASE_V1.0.2/MSDK/wpa_supplicant/src/ap\ap_config.h **** 		int vendor;
 177:C:/Users/stapi/OneDrive/Desktop/GD32VW553/V1_MQTT_OK/GD32VW55X_Wifi_BLE_SDK/GD32VW55x_RELEASE_V1.0.2/MSDK/wpa_supplicant/src/ap\ap_config.h **** 		u32 method;
 178:C:/Users/stapi/OneDrive/Desktop/GD32VW553/V1_MQTT_OK/GD32VW55X_Wifi_BLE_SDK/GD32VW55x_RELEASE_V1.0.2/MSDK/wpa_supplicant/src/ap\ap_config.h **** 	} methods[EAP_MAX_METHODS];
 179:C:/Users/stapi/OneDrive/Desktop/GD32VW553/V1_MQTT_OK/GD32VW55X_Wifi_BLE_SDK/GD32VW55x_RELEASE_V1.0.2/MSDK/wpa_supplicant/src/ap\ap_config.h **** 	u8 *password;
 180:C:/Users/stapi/OneDrive/Desktop/GD32VW553/V1_MQTT_OK/GD32VW55X_Wifi_BLE_SDK/GD32VW55x_RELEASE_V1.0.2/MSDK/wpa_supplicant/src/ap\ap_config.h **** 	size_t password_len;
 181:C:/Users/stapi/OneDrive/Desktop/GD32VW553/V1_MQTT_OK/GD32VW55X_Wifi_BLE_SDK/GD32VW55x_RELEASE_V1.0.2/MSDK/wpa_supplicant/src/ap\ap_config.h **** 	u8 *salt;
 182:C:/Users/stapi/OneDrive/Desktop/GD32VW553/V1_MQTT_OK/GD32VW55X_Wifi_BLE_SDK/GD32VW55x_RELEASE_V1.0.2/MSDK/wpa_supplicant/src/ap\ap_config.h **** 	size_t salt_len; /* non-zero when password is salted */
 183:C:/Users/stapi/OneDrive/Desktop/GD32VW553/V1_MQTT_OK/GD32VW55X_Wifi_BLE_SDK/GD32VW55x_RELEASE_V1.0.2/MSDK/wpa_supplicant/src/ap\ap_config.h **** 	int phase2;
 184:C:/Users/stapi/OneDrive/Desktop/GD32VW553/V1_MQTT_OK/GD32VW55X_Wifi_BLE_SDK/GD32VW55x_RELEASE_V1.0.2/MSDK/wpa_supplicant/src/ap\ap_config.h **** 	int force_version;
 185:C:/Users/stapi/OneDrive/Desktop/GD32VW553/V1_MQTT_OK/GD32VW55X_Wifi_BLE_SDK/GD32VW55x_RELEASE_V1.0.2/MSDK/wpa_supplicant/src/ap\ap_config.h **** 	unsigned int wildcard_prefix:1;
 186:C:/Users/stapi/OneDrive/Desktop/GD32VW553/V1_MQTT_OK/GD32VW55X_Wifi_BLE_SDK/GD32VW55x_RELEASE_V1.0.2/MSDK/wpa_supplicant/src/ap\ap_config.h **** 	unsigned int password_hash:1; /* whether password is hashed with
 187:C:/Users/stapi/OneDrive/Desktop/GD32VW553/V1_MQTT_OK/GD32VW55X_Wifi_BLE_SDK/GD32VW55x_RELEASE_V1.0.2/MSDK/wpa_supplicant/src/ap\ap_config.h **** 				       * nt_password_hash() */
 188:C:/Users/stapi/OneDrive/Desktop/GD32VW553/V1_MQTT_OK/GD32VW55X_Wifi_BLE_SDK/GD32VW55x_RELEASE_V1.0.2/MSDK/wpa_supplicant/src/ap\ap_config.h **** 	unsigned int remediation:1;
 189:C:/Users/stapi/OneDrive/Desktop/GD32VW553/V1_MQTT_OK/GD32VW55X_Wifi_BLE_SDK/GD32VW55x_RELEASE_V1.0.2/MSDK/wpa_supplicant/src/ap\ap_config.h **** 	unsigned int macacl:1;
 190:C:/Users/stapi/OneDrive/Desktop/GD32VW553/V1_MQTT_OK/GD32VW55X_Wifi_BLE_SDK/GD32VW55x_RELEASE_V1.0.2/MSDK/wpa_supplicant/src/ap\ap_config.h **** 	int ttls_auth; /* EAP_TTLS_AUTH_* bitfield */
 191:C:/Users/stapi/OneDrive/Desktop/GD32VW553/V1_MQTT_OK/GD32VW55X_Wifi_BLE_SDK/GD32VW55x_RELEASE_V1.0.2/MSDK/wpa_supplicant/src/ap\ap_config.h **** 	struct hostapd_radius_attr *accept_attr;
 192:C:/Users/stapi/OneDrive/Desktop/GD32VW553/V1_MQTT_OK/GD32VW55X_Wifi_BLE_SDK/GD32VW55x_RELEASE_V1.0.2/MSDK/wpa_supplicant/src/ap\ap_config.h **** 	u32 t_c_timestamp;
 193:C:/Users/stapi/OneDrive/Desktop/GD32VW553/V1_MQTT_OK/GD32VW55X_Wifi_BLE_SDK/GD32VW55x_RELEASE_V1.0.2/MSDK/wpa_supplicant/src/ap\ap_config.h **** };
 194:C:/Users/stapi/OneDrive/Desktop/GD32VW553/V1_MQTT_OK/GD32VW55X_Wifi_BLE_SDK/GD32VW55x_RELEASE_V1.0.2/MSDK/wpa_supplicant/src/ap\ap_config.h **** 
 195:C:/Users/stapi/OneDrive/Desktop/GD32VW553/V1_MQTT_OK/GD32VW55X_Wifi_BLE_SDK/GD32VW55x_RELEASE_V1.0.2/MSDK/wpa_supplicant/src/ap\ap_config.h **** struct hostapd_radius_attr {
 196:C:/Users/stapi/OneDrive/Desktop/GD32VW553/V1_MQTT_OK/GD32VW55X_Wifi_BLE_SDK/GD32VW55x_RELEASE_V1.0.2/MSDK/wpa_supplicant/src/ap\ap_config.h **** 	u8 type;
 197:C:/Users/stapi/OneDrive/Desktop/GD32VW553/V1_MQTT_OK/GD32VW55X_Wifi_BLE_SDK/GD32VW55x_RELEASE_V1.0.2/MSDK/wpa_supplicant/src/ap\ap_config.h **** 	struct wpabuf *val;
 198:C:/Users/stapi/OneDrive/Desktop/GD32VW553/V1_MQTT_OK/GD32VW55X_Wifi_BLE_SDK/GD32VW55x_RELEASE_V1.0.2/MSDK/wpa_supplicant/src/ap\ap_config.h **** 	struct hostapd_radius_attr *next;
 199:C:/Users/stapi/OneDrive/Desktop/GD32VW553/V1_MQTT_OK/GD32VW55X_Wifi_BLE_SDK/GD32VW55x_RELEASE_V1.0.2/MSDK/wpa_supplicant/src/ap\ap_config.h **** };
 200:C:/Users/stapi/OneDrive/Desktop/GD32VW553/V1_MQTT_OK/GD32VW55X_Wifi_BLE_SDK/GD32VW55x_RELEASE_V1.0.2/MSDK/wpa_supplicant/src/ap\ap_config.h **** 
 201:C:/Users/stapi/OneDrive/Desktop/GD32VW553/V1_MQTT_OK/GD32VW55X_Wifi_BLE_SDK/GD32VW55x_RELEASE_V1.0.2/MSDK/wpa_supplicant/src/ap\ap_config.h **** 
 202:C:/Users/stapi/OneDrive/Desktop/GD32VW553/V1_MQTT_OK/GD32VW55X_Wifi_BLE_SDK/GD32VW55x_RELEASE_V1.0.2/MSDK/wpa_supplicant/src/ap\ap_config.h **** #define NUM_TX_QUEUES 4
 203:C:/Users/stapi/OneDrive/Desktop/GD32VW553/V1_MQTT_OK/GD32VW55X_Wifi_BLE_SDK/GD32VW55x_RELEASE_V1.0.2/MSDK/wpa_supplicant/src/ap\ap_config.h **** #define MAX_ROAMING_CONSORTIUM_LEN 15
 204:C:/Users/stapi/OneDrive/Desktop/GD32VW553/V1_MQTT_OK/GD32VW55X_Wifi_BLE_SDK/GD32VW55x_RELEASE_V1.0.2/MSDK/wpa_supplicant/src/ap\ap_config.h **** 
 205:C:/Users/stapi/OneDrive/Desktop/GD32VW553/V1_MQTT_OK/GD32VW55X_Wifi_BLE_SDK/GD32VW55x_RELEASE_V1.0.2/MSDK/wpa_supplicant/src/ap\ap_config.h **** struct hostapd_roaming_consortium {
 206:C:/Users/stapi/OneDrive/Desktop/GD32VW553/V1_MQTT_OK/GD32VW55X_Wifi_BLE_SDK/GD32VW55x_RELEASE_V1.0.2/MSDK/wpa_supplicant/src/ap\ap_config.h **** 	u8 len;
 207:C:/Users/stapi/OneDrive/Desktop/GD32VW553/V1_MQTT_OK/GD32VW55X_Wifi_BLE_SDK/GD32VW55x_RELEASE_V1.0.2/MSDK/wpa_supplicant/src/ap\ap_config.h **** 	u8 oi[MAX_ROAMING_CONSORTIUM_LEN];
 208:C:/Users/stapi/OneDrive/Desktop/GD32VW553/V1_MQTT_OK/GD32VW55X_Wifi_BLE_SDK/GD32VW55x_RELEASE_V1.0.2/MSDK/wpa_supplicant/src/ap\ap_config.h **** };
 209:C:/Users/stapi/OneDrive/Desktop/GD32VW553/V1_MQTT_OK/GD32VW55X_Wifi_BLE_SDK/GD32VW55x_RELEASE_V1.0.2/MSDK/wpa_supplicant/src/ap\ap_config.h **** 
 210:C:/Users/stapi/OneDrive/Desktop/GD32VW553/V1_MQTT_OK/GD32VW55X_Wifi_BLE_SDK/GD32VW55x_RELEASE_V1.0.2/MSDK/wpa_supplicant/src/ap\ap_config.h **** struct hostapd_lang_string {
 211:C:/Users/stapi/OneDrive/Desktop/GD32VW553/V1_MQTT_OK/GD32VW55X_Wifi_BLE_SDK/GD32VW55x_RELEASE_V1.0.2/MSDK/wpa_supplicant/src/ap\ap_config.h **** 	u8 lang[3];
 212:C:/Users/stapi/OneDrive/Desktop/GD32VW553/V1_MQTT_OK/GD32VW55X_Wifi_BLE_SDK/GD32VW55x_RELEASE_V1.0.2/MSDK/wpa_supplicant/src/ap\ap_config.h **** 	u8 name_len;
 213:C:/Users/stapi/OneDrive/Desktop/GD32VW553/V1_MQTT_OK/GD32VW55X_Wifi_BLE_SDK/GD32VW55x_RELEASE_V1.0.2/MSDK/wpa_supplicant/src/ap\ap_config.h **** 	u8 name[252];
 214:C:/Users/stapi/OneDrive/Desktop/GD32VW553/V1_MQTT_OK/GD32VW55X_Wifi_BLE_SDK/GD32VW55x_RELEASE_V1.0.2/MSDK/wpa_supplicant/src/ap\ap_config.h **** };
 215:C:/Users/stapi/OneDrive/Desktop/GD32VW553/V1_MQTT_OK/GD32VW55X_Wifi_BLE_SDK/GD32VW55x_RELEASE_V1.0.2/MSDK/wpa_supplicant/src/ap\ap_config.h **** 
 216:C:/Users/stapi/OneDrive/Desktop/GD32VW553/V1_MQTT_OK/GD32VW55X_Wifi_BLE_SDK/GD32VW55x_RELEASE_V1.0.2/MSDK/wpa_supplicant/src/ap\ap_config.h **** struct hostapd_venue_url {
 217:C:/Users/stapi/OneDrive/Desktop/GD32VW553/V1_MQTT_OK/GD32VW55X_Wifi_BLE_SDK/GD32VW55x_RELEASE_V1.0.2/MSDK/wpa_supplicant/src/ap\ap_config.h **** 	u8 venue_number;
 218:C:/Users/stapi/OneDrive/Desktop/GD32VW553/V1_MQTT_OK/GD32VW55X_Wifi_BLE_SDK/GD32VW55x_RELEASE_V1.0.2/MSDK/wpa_supplicant/src/ap\ap_config.h **** 	u8 url_len;
 219:C:/Users/stapi/OneDrive/Desktop/GD32VW553/V1_MQTT_OK/GD32VW55X_Wifi_BLE_SDK/GD32VW55x_RELEASE_V1.0.2/MSDK/wpa_supplicant/src/ap\ap_config.h **** 	u8 url[254];
 220:C:/Users/stapi/OneDrive/Desktop/GD32VW553/V1_MQTT_OK/GD32VW55X_Wifi_BLE_SDK/GD32VW55x_RELEASE_V1.0.2/MSDK/wpa_supplicant/src/ap\ap_config.h **** };
 221:C:/Users/stapi/OneDrive/Desktop/GD32VW553/V1_MQTT_OK/GD32VW55X_Wifi_BLE_SDK/GD32VW55x_RELEASE_V1.0.2/MSDK/wpa_supplicant/src/ap\ap_config.h **** 
 222:C:/Users/stapi/OneDrive/Desktop/GD32VW553/V1_MQTT_OK/GD32VW55X_Wifi_BLE_SDK/GD32VW55x_RELEASE_V1.0.2/MSDK/wpa_supplicant/src/ap\ap_config.h **** #define MAX_NAI_REALMS 10
 223:C:/Users/stapi/OneDrive/Desktop/GD32VW553/V1_MQTT_OK/GD32VW55X_Wifi_BLE_SDK/GD32VW55x_RELEASE_V1.0.2/MSDK/wpa_supplicant/src/ap\ap_config.h **** #define MAX_NAI_REALMLEN 255
 224:C:/Users/stapi/OneDrive/Desktop/GD32VW553/V1_MQTT_OK/GD32VW55X_Wifi_BLE_SDK/GD32VW55x_RELEASE_V1.0.2/MSDK/wpa_supplicant/src/ap\ap_config.h **** #define MAX_NAI_EAP_METHODS 5
 225:C:/Users/stapi/OneDrive/Desktop/GD32VW553/V1_MQTT_OK/GD32VW55X_Wifi_BLE_SDK/GD32VW55x_RELEASE_V1.0.2/MSDK/wpa_supplicant/src/ap\ap_config.h **** #define MAX_NAI_AUTH_TYPES 4
 226:C:/Users/stapi/OneDrive/Desktop/GD32VW553/V1_MQTT_OK/GD32VW55X_Wifi_BLE_SDK/GD32VW55x_RELEASE_V1.0.2/MSDK/wpa_supplicant/src/ap\ap_config.h **** struct hostapd_nai_realm_data {
 227:C:/Users/stapi/OneDrive/Desktop/GD32VW553/V1_MQTT_OK/GD32VW55X_Wifi_BLE_SDK/GD32VW55x_RELEASE_V1.0.2/MSDK/wpa_supplicant/src/ap\ap_config.h **** 	u8 encoding;
 228:C:/Users/stapi/OneDrive/Desktop/GD32VW553/V1_MQTT_OK/GD32VW55X_Wifi_BLE_SDK/GD32VW55x_RELEASE_V1.0.2/MSDK/wpa_supplicant/src/ap\ap_config.h **** 	char realm_buf[MAX_NAI_REALMLEN + 1];
 229:C:/Users/stapi/OneDrive/Desktop/GD32VW553/V1_MQTT_OK/GD32VW55X_Wifi_BLE_SDK/GD32VW55x_RELEASE_V1.0.2/MSDK/wpa_supplicant/src/ap\ap_config.h **** 	char *realm[MAX_NAI_REALMS];
 230:C:/Users/stapi/OneDrive/Desktop/GD32VW553/V1_MQTT_OK/GD32VW55X_Wifi_BLE_SDK/GD32VW55x_RELEASE_V1.0.2/MSDK/wpa_supplicant/src/ap\ap_config.h **** 	u8 eap_method_count;
 231:C:/Users/stapi/OneDrive/Desktop/GD32VW553/V1_MQTT_OK/GD32VW55X_Wifi_BLE_SDK/GD32VW55x_RELEASE_V1.0.2/MSDK/wpa_supplicant/src/ap\ap_config.h **** 	struct hostapd_nai_realm_eap {
 232:C:/Users/stapi/OneDrive/Desktop/GD32VW553/V1_MQTT_OK/GD32VW55X_Wifi_BLE_SDK/GD32VW55x_RELEASE_V1.0.2/MSDK/wpa_supplicant/src/ap\ap_config.h **** 		u8 eap_method;
 233:C:/Users/stapi/OneDrive/Desktop/GD32VW553/V1_MQTT_OK/GD32VW55X_Wifi_BLE_SDK/GD32VW55x_RELEASE_V1.0.2/MSDK/wpa_supplicant/src/ap\ap_config.h **** 		u8 num_auths;
 234:C:/Users/stapi/OneDrive/Desktop/GD32VW553/V1_MQTT_OK/GD32VW55X_Wifi_BLE_SDK/GD32VW55x_RELEASE_V1.0.2/MSDK/wpa_supplicant/src/ap\ap_config.h **** 		u8 auth_id[MAX_NAI_AUTH_TYPES];
 235:C:/Users/stapi/OneDrive/Desktop/GD32VW553/V1_MQTT_OK/GD32VW55X_Wifi_BLE_SDK/GD32VW55x_RELEASE_V1.0.2/MSDK/wpa_supplicant/src/ap\ap_config.h **** 		u8 auth_val[MAX_NAI_AUTH_TYPES];
 236:C:/Users/stapi/OneDrive/Desktop/GD32VW553/V1_MQTT_OK/GD32VW55X_Wifi_BLE_SDK/GD32VW55x_RELEASE_V1.0.2/MSDK/wpa_supplicant/src/ap\ap_config.h **** 	} eap_method[MAX_NAI_EAP_METHODS];
 237:C:/Users/stapi/OneDrive/Desktop/GD32VW553/V1_MQTT_OK/GD32VW55X_Wifi_BLE_SDK/GD32VW55x_RELEASE_V1.0.2/MSDK/wpa_supplicant/src/ap\ap_config.h **** };
 238:C:/Users/stapi/OneDrive/Desktop/GD32VW553/V1_MQTT_OK/GD32VW55X_Wifi_BLE_SDK/GD32VW55x_RELEASE_V1.0.2/MSDK/wpa_supplicant/src/ap\ap_config.h **** 
 239:C:/Users/stapi/OneDrive/Desktop/GD32VW553/V1_MQTT_OK/GD32VW55X_Wifi_BLE_SDK/GD32VW55x_RELEASE_V1.0.2/MSDK/wpa_supplicant/src/ap\ap_config.h **** struct anqp_element {
 240:C:/Users/stapi/OneDrive/Desktop/GD32VW553/V1_MQTT_OK/GD32VW55X_Wifi_BLE_SDK/GD32VW55x_RELEASE_V1.0.2/MSDK/wpa_supplicant/src/ap\ap_config.h **** 	struct dl_list list;
 241:C:/Users/stapi/OneDrive/Desktop/GD32VW553/V1_MQTT_OK/GD32VW55X_Wifi_BLE_SDK/GD32VW55x_RELEASE_V1.0.2/MSDK/wpa_supplicant/src/ap\ap_config.h **** 	u16 infoid;
 242:C:/Users/stapi/OneDrive/Desktop/GD32VW553/V1_MQTT_OK/GD32VW55X_Wifi_BLE_SDK/GD32VW55x_RELEASE_V1.0.2/MSDK/wpa_supplicant/src/ap\ap_config.h **** 	struct wpabuf *payload;
 243:C:/Users/stapi/OneDrive/Desktop/GD32VW553/V1_MQTT_OK/GD32VW55X_Wifi_BLE_SDK/GD32VW55x_RELEASE_V1.0.2/MSDK/wpa_supplicant/src/ap\ap_config.h **** };
 244:C:/Users/stapi/OneDrive/Desktop/GD32VW553/V1_MQTT_OK/GD32VW55X_Wifi_BLE_SDK/GD32VW55x_RELEASE_V1.0.2/MSDK/wpa_supplicant/src/ap\ap_config.h **** 
 245:C:/Users/stapi/OneDrive/Desktop/GD32VW553/V1_MQTT_OK/GD32VW55X_Wifi_BLE_SDK/GD32VW55x_RELEASE_V1.0.2/MSDK/wpa_supplicant/src/ap\ap_config.h **** struct fils_realm {
 246:C:/Users/stapi/OneDrive/Desktop/GD32VW553/V1_MQTT_OK/GD32VW55X_Wifi_BLE_SDK/GD32VW55x_RELEASE_V1.0.2/MSDK/wpa_supplicant/src/ap\ap_config.h **** 	struct dl_list list;
 247:C:/Users/stapi/OneDrive/Desktop/GD32VW553/V1_MQTT_OK/GD32VW55X_Wifi_BLE_SDK/GD32VW55x_RELEASE_V1.0.2/MSDK/wpa_supplicant/src/ap\ap_config.h **** 	u8 hash[2];
 248:C:/Users/stapi/OneDrive/Desktop/GD32VW553/V1_MQTT_OK/GD32VW55X_Wifi_BLE_SDK/GD32VW55x_RELEASE_V1.0.2/MSDK/wpa_supplicant/src/ap\ap_config.h **** 	char realm[];
 249:C:/Users/stapi/OneDrive/Desktop/GD32VW553/V1_MQTT_OK/GD32VW55X_Wifi_BLE_SDK/GD32VW55x_RELEASE_V1.0.2/MSDK/wpa_supplicant/src/ap\ap_config.h **** };
 250:C:/Users/stapi/OneDrive/Desktop/GD32VW553/V1_MQTT_OK/GD32VW55X_Wifi_BLE_SDK/GD32VW55x_RELEASE_V1.0.2/MSDK/wpa_supplicant/src/ap\ap_config.h **** 
 251:C:/Users/stapi/OneDrive/Desktop/GD32VW553/V1_MQTT_OK/GD32VW55X_Wifi_BLE_SDK/GD32VW55x_RELEASE_V1.0.2/MSDK/wpa_supplicant/src/ap\ap_config.h **** struct sae_password_entry {
 252:C:/Users/stapi/OneDrive/Desktop/GD32VW553/V1_MQTT_OK/GD32VW55X_Wifi_BLE_SDK/GD32VW55x_RELEASE_V1.0.2/MSDK/wpa_supplicant/src/ap\ap_config.h **** 	struct sae_password_entry *next;
 253:C:/Users/stapi/OneDrive/Desktop/GD32VW553/V1_MQTT_OK/GD32VW55X_Wifi_BLE_SDK/GD32VW55x_RELEASE_V1.0.2/MSDK/wpa_supplicant/src/ap\ap_config.h **** 	char *password;
 254:C:/Users/stapi/OneDrive/Desktop/GD32VW553/V1_MQTT_OK/GD32VW55X_Wifi_BLE_SDK/GD32VW55x_RELEASE_V1.0.2/MSDK/wpa_supplicant/src/ap\ap_config.h **** 	char *identifier;
 255:C:/Users/stapi/OneDrive/Desktop/GD32VW553/V1_MQTT_OK/GD32VW55X_Wifi_BLE_SDK/GD32VW55x_RELEASE_V1.0.2/MSDK/wpa_supplicant/src/ap\ap_config.h **** 	u8 peer_addr[ETH_ALEN];
 256:C:/Users/stapi/OneDrive/Desktop/GD32VW553/V1_MQTT_OK/GD32VW55X_Wifi_BLE_SDK/GD32VW55x_RELEASE_V1.0.2/MSDK/wpa_supplicant/src/ap\ap_config.h **** 	int vlan_id;
 257:C:/Users/stapi/OneDrive/Desktop/GD32VW553/V1_MQTT_OK/GD32VW55X_Wifi_BLE_SDK/GD32VW55x_RELEASE_V1.0.2/MSDK/wpa_supplicant/src/ap\ap_config.h **** 	struct sae_pt *pt;
 258:C:/Users/stapi/OneDrive/Desktop/GD32VW553/V1_MQTT_OK/GD32VW55X_Wifi_BLE_SDK/GD32VW55x_RELEASE_V1.0.2/MSDK/wpa_supplicant/src/ap\ap_config.h **** 	struct sae_pk *pk;
 259:C:/Users/stapi/OneDrive/Desktop/GD32VW553/V1_MQTT_OK/GD32VW55X_Wifi_BLE_SDK/GD32VW55x_RELEASE_V1.0.2/MSDK/wpa_supplicant/src/ap\ap_config.h **** };
 260:C:/Users/stapi/OneDrive/Desktop/GD32VW553/V1_MQTT_OK/GD32VW55X_Wifi_BLE_SDK/GD32VW55x_RELEASE_V1.0.2/MSDK/wpa_supplicant/src/ap\ap_config.h **** 
 261:C:/Users/stapi/OneDrive/Desktop/GD32VW553/V1_MQTT_OK/GD32VW55X_Wifi_BLE_SDK/GD32VW55x_RELEASE_V1.0.2/MSDK/wpa_supplicant/src/ap\ap_config.h **** struct dpp_controller_conf {
 262:C:/Users/stapi/OneDrive/Desktop/GD32VW553/V1_MQTT_OK/GD32VW55X_Wifi_BLE_SDK/GD32VW55x_RELEASE_V1.0.2/MSDK/wpa_supplicant/src/ap\ap_config.h **** 	struct dpp_controller_conf *next;
 263:C:/Users/stapi/OneDrive/Desktop/GD32VW553/V1_MQTT_OK/GD32VW55X_Wifi_BLE_SDK/GD32VW55x_RELEASE_V1.0.2/MSDK/wpa_supplicant/src/ap\ap_config.h **** 	u8 pkhash[SHA256_MAC_LEN];
 264:C:/Users/stapi/OneDrive/Desktop/GD32VW553/V1_MQTT_OK/GD32VW55X_Wifi_BLE_SDK/GD32VW55x_RELEASE_V1.0.2/MSDK/wpa_supplicant/src/ap\ap_config.h **** 	struct hostapd_ip_addr ipaddr;
 265:C:/Users/stapi/OneDrive/Desktop/GD32VW553/V1_MQTT_OK/GD32VW55X_Wifi_BLE_SDK/GD32VW55x_RELEASE_V1.0.2/MSDK/wpa_supplicant/src/ap\ap_config.h **** };
 266:C:/Users/stapi/OneDrive/Desktop/GD32VW553/V1_MQTT_OK/GD32VW55X_Wifi_BLE_SDK/GD32VW55x_RELEASE_V1.0.2/MSDK/wpa_supplicant/src/ap\ap_config.h **** 
 267:C:/Users/stapi/OneDrive/Desktop/GD32VW553/V1_MQTT_OK/GD32VW55X_Wifi_BLE_SDK/GD32VW55x_RELEASE_V1.0.2/MSDK/wpa_supplicant/src/ap\ap_config.h **** struct airtime_sta_weight {
 268:C:/Users/stapi/OneDrive/Desktop/GD32VW553/V1_MQTT_OK/GD32VW55X_Wifi_BLE_SDK/GD32VW55x_RELEASE_V1.0.2/MSDK/wpa_supplicant/src/ap\ap_config.h **** 	struct airtime_sta_weight *next;
 269:C:/Users/stapi/OneDrive/Desktop/GD32VW553/V1_MQTT_OK/GD32VW55X_Wifi_BLE_SDK/GD32VW55x_RELEASE_V1.0.2/MSDK/wpa_supplicant/src/ap\ap_config.h **** 	unsigned int weight;
 270:C:/Users/stapi/OneDrive/Desktop/GD32VW553/V1_MQTT_OK/GD32VW55X_Wifi_BLE_SDK/GD32VW55x_RELEASE_V1.0.2/MSDK/wpa_supplicant/src/ap\ap_config.h **** 	u8 addr[ETH_ALEN];
 271:C:/Users/stapi/OneDrive/Desktop/GD32VW553/V1_MQTT_OK/GD32VW55X_Wifi_BLE_SDK/GD32VW55x_RELEASE_V1.0.2/MSDK/wpa_supplicant/src/ap\ap_config.h **** };
 272:C:/Users/stapi/OneDrive/Desktop/GD32VW553/V1_MQTT_OK/GD32VW55X_Wifi_BLE_SDK/GD32VW55x_RELEASE_V1.0.2/MSDK/wpa_supplicant/src/ap\ap_config.h **** 
 273:C:/Users/stapi/OneDrive/Desktop/GD32VW553/V1_MQTT_OK/GD32VW55X_Wifi_BLE_SDK/GD32VW55x_RELEASE_V1.0.2/MSDK/wpa_supplicant/src/ap\ap_config.h **** #define EXT_CAPA_MAX_LEN 15
 274:C:/Users/stapi/OneDrive/Desktop/GD32VW553/V1_MQTT_OK/GD32VW55X_Wifi_BLE_SDK/GD32VW55x_RELEASE_V1.0.2/MSDK/wpa_supplicant/src/ap\ap_config.h **** 
 275:C:/Users/stapi/OneDrive/Desktop/GD32VW553/V1_MQTT_OK/GD32VW55X_Wifi_BLE_SDK/GD32VW55x_RELEASE_V1.0.2/MSDK/wpa_supplicant/src/ap\ap_config.h **** /**
 276:C:/Users/stapi/OneDrive/Desktop/GD32VW553/V1_MQTT_OK/GD32VW55X_Wifi_BLE_SDK/GD32VW55x_RELEASE_V1.0.2/MSDK/wpa_supplicant/src/ap\ap_config.h ****  * struct hostapd_bss_config - Per-BSS configuration
 277:C:/Users/stapi/OneDrive/Desktop/GD32VW553/V1_MQTT_OK/GD32VW55X_Wifi_BLE_SDK/GD32VW55x_RELEASE_V1.0.2/MSDK/wpa_supplicant/src/ap\ap_config.h ****  */
 278:C:/Users/stapi/OneDrive/Desktop/GD32VW553/V1_MQTT_OK/GD32VW55X_Wifi_BLE_SDK/GD32VW55x_RELEASE_V1.0.2/MSDK/wpa_supplicant/src/ap\ap_config.h **** struct hostapd_bss_config {
 279:C:/Users/stapi/OneDrive/Desktop/GD32VW553/V1_MQTT_OK/GD32VW55X_Wifi_BLE_SDK/GD32VW55x_RELEASE_V1.0.2/MSDK/wpa_supplicant/src/ap\ap_config.h **** 	char iface[IFNAMSIZ + 1];
 280:C:/Users/stapi/OneDrive/Desktop/GD32VW553/V1_MQTT_OK/GD32VW55X_Wifi_BLE_SDK/GD32VW55x_RELEASE_V1.0.2/MSDK/wpa_supplicant/src/ap\ap_config.h **** 	char bridge[IFNAMSIZ + 1];
 281:C:/Users/stapi/OneDrive/Desktop/GD32VW553/V1_MQTT_OK/GD32VW55X_Wifi_BLE_SDK/GD32VW55x_RELEASE_V1.0.2/MSDK/wpa_supplicant/src/ap\ap_config.h **** 	char vlan_bridge[IFNAMSIZ + 1];
 282:C:/Users/stapi/OneDrive/Desktop/GD32VW553/V1_MQTT_OK/GD32VW55X_Wifi_BLE_SDK/GD32VW55x_RELEASE_V1.0.2/MSDK/wpa_supplicant/src/ap\ap_config.h **** 	char wds_bridge[IFNAMSIZ + 1];
 283:C:/Users/stapi/OneDrive/Desktop/GD32VW553/V1_MQTT_OK/GD32VW55X_Wifi_BLE_SDK/GD32VW55x_RELEASE_V1.0.2/MSDK/wpa_supplicant/src/ap\ap_config.h **** 
 284:C:/Users/stapi/OneDrive/Desktop/GD32VW553/V1_MQTT_OK/GD32VW55X_Wifi_BLE_SDK/GD32VW55x_RELEASE_V1.0.2/MSDK/wpa_supplicant/src/ap\ap_config.h **** 	enum hostapd_logger_level logger_syslog_level, logger_stdout_level;
 285:C:/Users/stapi/OneDrive/Desktop/GD32VW553/V1_MQTT_OK/GD32VW55X_Wifi_BLE_SDK/GD32VW55x_RELEASE_V1.0.2/MSDK/wpa_supplicant/src/ap\ap_config.h **** 
 286:C:/Users/stapi/OneDrive/Desktop/GD32VW553/V1_MQTT_OK/GD32VW55X_Wifi_BLE_SDK/GD32VW55x_RELEASE_V1.0.2/MSDK/wpa_supplicant/src/ap\ap_config.h **** 	unsigned int logger_syslog; /* module bitfield */
 287:C:/Users/stapi/OneDrive/Desktop/GD32VW553/V1_MQTT_OK/GD32VW55X_Wifi_BLE_SDK/GD32VW55x_RELEASE_V1.0.2/MSDK/wpa_supplicant/src/ap\ap_config.h **** 	unsigned int logger_stdout; /* module bitfield */
 288:C:/Users/stapi/OneDrive/Desktop/GD32VW553/V1_MQTT_OK/GD32VW55X_Wifi_BLE_SDK/GD32VW55x_RELEASE_V1.0.2/MSDK/wpa_supplicant/src/ap\ap_config.h **** 
 289:C:/Users/stapi/OneDrive/Desktop/GD32VW553/V1_MQTT_OK/GD32VW55X_Wifi_BLE_SDK/GD32VW55x_RELEASE_V1.0.2/MSDK/wpa_supplicant/src/ap\ap_config.h **** 	int max_num_sta; /* maximum number of STAs in station table */
 290:C:/Users/stapi/OneDrive/Desktop/GD32VW553/V1_MQTT_OK/GD32VW55X_Wifi_BLE_SDK/GD32VW55x_RELEASE_V1.0.2/MSDK/wpa_supplicant/src/ap\ap_config.h **** 
 291:C:/Users/stapi/OneDrive/Desktop/GD32VW553/V1_MQTT_OK/GD32VW55X_Wifi_BLE_SDK/GD32VW55x_RELEASE_V1.0.2/MSDK/wpa_supplicant/src/ap\ap_config.h **** 	int dtim_period;
 292:C:/Users/stapi/OneDrive/Desktop/GD32VW553/V1_MQTT_OK/GD32VW55X_Wifi_BLE_SDK/GD32VW55x_RELEASE_V1.0.2/MSDK/wpa_supplicant/src/ap\ap_config.h **** 	unsigned int bss_load_update_period;
 293:C:/Users/stapi/OneDrive/Desktop/GD32VW553/V1_MQTT_OK/GD32VW55X_Wifi_BLE_SDK/GD32VW55x_RELEASE_V1.0.2/MSDK/wpa_supplicant/src/ap\ap_config.h **** 	unsigned int chan_util_avg_period;
 294:C:/Users/stapi/OneDrive/Desktop/GD32VW553/V1_MQTT_OK/GD32VW55X_Wifi_BLE_SDK/GD32VW55x_RELEASE_V1.0.2/MSDK/wpa_supplicant/src/ap\ap_config.h **** 
 295:C:/Users/stapi/OneDrive/Desktop/GD32VW553/V1_MQTT_OK/GD32VW55X_Wifi_BLE_SDK/GD32VW55x_RELEASE_V1.0.2/MSDK/wpa_supplicant/src/ap\ap_config.h **** 	int ieee802_1x; /* use IEEE 802.1X */
 296:C:/Users/stapi/OneDrive/Desktop/GD32VW553/V1_MQTT_OK/GD32VW55X_Wifi_BLE_SDK/GD32VW55x_RELEASE_V1.0.2/MSDK/wpa_supplicant/src/ap\ap_config.h **** 	int eapol_version;
 297:C:/Users/stapi/OneDrive/Desktop/GD32VW553/V1_MQTT_OK/GD32VW55X_Wifi_BLE_SDK/GD32VW55x_RELEASE_V1.0.2/MSDK/wpa_supplicant/src/ap\ap_config.h **** 	int eap_server; /* Use internal EAP server instead of external
 298:C:/Users/stapi/OneDrive/Desktop/GD32VW553/V1_MQTT_OK/GD32VW55X_Wifi_BLE_SDK/GD32VW55x_RELEASE_V1.0.2/MSDK/wpa_supplicant/src/ap\ap_config.h **** 			 * RADIUS server */
 299:C:/Users/stapi/OneDrive/Desktop/GD32VW553/V1_MQTT_OK/GD32VW55X_Wifi_BLE_SDK/GD32VW55x_RELEASE_V1.0.2/MSDK/wpa_supplicant/src/ap\ap_config.h **** 	struct hostapd_eap_user *eap_user;
 300:C:/Users/stapi/OneDrive/Desktop/GD32VW553/V1_MQTT_OK/GD32VW55X_Wifi_BLE_SDK/GD32VW55x_RELEASE_V1.0.2/MSDK/wpa_supplicant/src/ap\ap_config.h **** 	char *eap_user_sqlite;
 301:C:/Users/stapi/OneDrive/Desktop/GD32VW553/V1_MQTT_OK/GD32VW55X_Wifi_BLE_SDK/GD32VW55x_RELEASE_V1.0.2/MSDK/wpa_supplicant/src/ap\ap_config.h **** 	char *eap_sim_db;
 302:C:/Users/stapi/OneDrive/Desktop/GD32VW553/V1_MQTT_OK/GD32VW55X_Wifi_BLE_SDK/GD32VW55x_RELEASE_V1.0.2/MSDK/wpa_supplicant/src/ap\ap_config.h **** 	unsigned int eap_sim_db_timeout;
 303:C:/Users/stapi/OneDrive/Desktop/GD32VW553/V1_MQTT_OK/GD32VW55X_Wifi_BLE_SDK/GD32VW55x_RELEASE_V1.0.2/MSDK/wpa_supplicant/src/ap\ap_config.h **** 	int eap_server_erp; /* Whether ERP is enabled on internal EAP server */
 304:C:/Users/stapi/OneDrive/Desktop/GD32VW553/V1_MQTT_OK/GD32VW55X_Wifi_BLE_SDK/GD32VW55x_RELEASE_V1.0.2/MSDK/wpa_supplicant/src/ap\ap_config.h **** 	struct hostapd_ip_addr own_ip_addr;
 305:C:/Users/stapi/OneDrive/Desktop/GD32VW553/V1_MQTT_OK/GD32VW55X_Wifi_BLE_SDK/GD32VW55x_RELEASE_V1.0.2/MSDK/wpa_supplicant/src/ap\ap_config.h **** 	char *nas_identifier;
 306:C:/Users/stapi/OneDrive/Desktop/GD32VW553/V1_MQTT_OK/GD32VW55X_Wifi_BLE_SDK/GD32VW55x_RELEASE_V1.0.2/MSDK/wpa_supplicant/src/ap\ap_config.h **** 	struct hostapd_radius_servers *radius;
 307:C:/Users/stapi/OneDrive/Desktop/GD32VW553/V1_MQTT_OK/GD32VW55X_Wifi_BLE_SDK/GD32VW55x_RELEASE_V1.0.2/MSDK/wpa_supplicant/src/ap\ap_config.h **** 	int acct_interim_interval;
 308:C:/Users/stapi/OneDrive/Desktop/GD32VW553/V1_MQTT_OK/GD32VW55X_Wifi_BLE_SDK/GD32VW55x_RELEASE_V1.0.2/MSDK/wpa_supplicant/src/ap\ap_config.h **** 	int radius_request_cui;
 309:C:/Users/stapi/OneDrive/Desktop/GD32VW553/V1_MQTT_OK/GD32VW55X_Wifi_BLE_SDK/GD32VW55x_RELEASE_V1.0.2/MSDK/wpa_supplicant/src/ap\ap_config.h **** 	struct hostapd_radius_attr *radius_auth_req_attr;
 310:C:/Users/stapi/OneDrive/Desktop/GD32VW553/V1_MQTT_OK/GD32VW55X_Wifi_BLE_SDK/GD32VW55x_RELEASE_V1.0.2/MSDK/wpa_supplicant/src/ap\ap_config.h **** 	struct hostapd_radius_attr *radius_acct_req_attr;
 311:C:/Users/stapi/OneDrive/Desktop/GD32VW553/V1_MQTT_OK/GD32VW55X_Wifi_BLE_SDK/GD32VW55x_RELEASE_V1.0.2/MSDK/wpa_supplicant/src/ap\ap_config.h **** 	char *radius_req_attr_sqlite;
 312:C:/Users/stapi/OneDrive/Desktop/GD32VW553/V1_MQTT_OK/GD32VW55X_Wifi_BLE_SDK/GD32VW55x_RELEASE_V1.0.2/MSDK/wpa_supplicant/src/ap\ap_config.h **** 	int radius_das_port;
 313:C:/Users/stapi/OneDrive/Desktop/GD32VW553/V1_MQTT_OK/GD32VW55X_Wifi_BLE_SDK/GD32VW55x_RELEASE_V1.0.2/MSDK/wpa_supplicant/src/ap\ap_config.h **** 	unsigned int radius_das_time_window;
 314:C:/Users/stapi/OneDrive/Desktop/GD32VW553/V1_MQTT_OK/GD32VW55X_Wifi_BLE_SDK/GD32VW55x_RELEASE_V1.0.2/MSDK/wpa_supplicant/src/ap\ap_config.h **** 	int radius_das_require_event_timestamp;
 315:C:/Users/stapi/OneDrive/Desktop/GD32VW553/V1_MQTT_OK/GD32VW55X_Wifi_BLE_SDK/GD32VW55x_RELEASE_V1.0.2/MSDK/wpa_supplicant/src/ap\ap_config.h **** 	int radius_das_require_message_authenticator;
 316:C:/Users/stapi/OneDrive/Desktop/GD32VW553/V1_MQTT_OK/GD32VW55X_Wifi_BLE_SDK/GD32VW55x_RELEASE_V1.0.2/MSDK/wpa_supplicant/src/ap\ap_config.h **** 	struct hostapd_ip_addr radius_das_client_addr;
 317:C:/Users/stapi/OneDrive/Desktop/GD32VW553/V1_MQTT_OK/GD32VW55X_Wifi_BLE_SDK/GD32VW55x_RELEASE_V1.0.2/MSDK/wpa_supplicant/src/ap\ap_config.h **** 	u8 *radius_das_shared_secret;
 318:C:/Users/stapi/OneDrive/Desktop/GD32VW553/V1_MQTT_OK/GD32VW55X_Wifi_BLE_SDK/GD32VW55x_RELEASE_V1.0.2/MSDK/wpa_supplicant/src/ap\ap_config.h **** 	size_t radius_das_shared_secret_len;
 319:C:/Users/stapi/OneDrive/Desktop/GD32VW553/V1_MQTT_OK/GD32VW55X_Wifi_BLE_SDK/GD32VW55x_RELEASE_V1.0.2/MSDK/wpa_supplicant/src/ap\ap_config.h **** 
 320:C:/Users/stapi/OneDrive/Desktop/GD32VW553/V1_MQTT_OK/GD32VW55X_Wifi_BLE_SDK/GD32VW55x_RELEASE_V1.0.2/MSDK/wpa_supplicant/src/ap\ap_config.h **** 	struct hostapd_ssid ssid;
 321:C:/Users/stapi/OneDrive/Desktop/GD32VW553/V1_MQTT_OK/GD32VW55X_Wifi_BLE_SDK/GD32VW55x_RELEASE_V1.0.2/MSDK/wpa_supplicant/src/ap\ap_config.h **** 
 322:C:/Users/stapi/OneDrive/Desktop/GD32VW553/V1_MQTT_OK/GD32VW55X_Wifi_BLE_SDK/GD32VW55x_RELEASE_V1.0.2/MSDK/wpa_supplicant/src/ap\ap_config.h **** 	char *eap_req_id_text; /* optional displayable message sent with
 323:C:/Users/stapi/OneDrive/Desktop/GD32VW553/V1_MQTT_OK/GD32VW55X_Wifi_BLE_SDK/GD32VW55x_RELEASE_V1.0.2/MSDK/wpa_supplicant/src/ap\ap_config.h **** 				* EAP Request-Identity */
 324:C:/Users/stapi/OneDrive/Desktop/GD32VW553/V1_MQTT_OK/GD32VW55X_Wifi_BLE_SDK/GD32VW55x_RELEASE_V1.0.2/MSDK/wpa_supplicant/src/ap\ap_config.h **** 	size_t eap_req_id_text_len;
 325:C:/Users/stapi/OneDrive/Desktop/GD32VW553/V1_MQTT_OK/GD32VW55X_Wifi_BLE_SDK/GD32VW55x_RELEASE_V1.0.2/MSDK/wpa_supplicant/src/ap\ap_config.h **** 	int eapol_key_index_workaround;
 326:C:/Users/stapi/OneDrive/Desktop/GD32VW553/V1_MQTT_OK/GD32VW55X_Wifi_BLE_SDK/GD32VW55x_RELEASE_V1.0.2/MSDK/wpa_supplicant/src/ap\ap_config.h **** 
 327:C:/Users/stapi/OneDrive/Desktop/GD32VW553/V1_MQTT_OK/GD32VW55X_Wifi_BLE_SDK/GD32VW55x_RELEASE_V1.0.2/MSDK/wpa_supplicant/src/ap\ap_config.h **** #ifdef CONFIG_WEP
 328:C:/Users/stapi/OneDrive/Desktop/GD32VW553/V1_MQTT_OK/GD32VW55X_Wifi_BLE_SDK/GD32VW55x_RELEASE_V1.0.2/MSDK/wpa_supplicant/src/ap\ap_config.h **** 	size_t default_wep_key_len;
 329:C:/Users/stapi/OneDrive/Desktop/GD32VW553/V1_MQTT_OK/GD32VW55X_Wifi_BLE_SDK/GD32VW55x_RELEASE_V1.0.2/MSDK/wpa_supplicant/src/ap\ap_config.h **** 	int individual_wep_key_len;
 330:C:/Users/stapi/OneDrive/Desktop/GD32VW553/V1_MQTT_OK/GD32VW55X_Wifi_BLE_SDK/GD32VW55x_RELEASE_V1.0.2/MSDK/wpa_supplicant/src/ap\ap_config.h **** 	int wep_rekeying_period;
 331:C:/Users/stapi/OneDrive/Desktop/GD32VW553/V1_MQTT_OK/GD32VW55X_Wifi_BLE_SDK/GD32VW55x_RELEASE_V1.0.2/MSDK/wpa_supplicant/src/ap\ap_config.h **** 	int broadcast_key_idx_min, broadcast_key_idx_max;
 332:C:/Users/stapi/OneDrive/Desktop/GD32VW553/V1_MQTT_OK/GD32VW55X_Wifi_BLE_SDK/GD32VW55x_RELEASE_V1.0.2/MSDK/wpa_supplicant/src/ap\ap_config.h **** #endif /* CONFIG_WEP */
 333:C:/Users/stapi/OneDrive/Desktop/GD32VW553/V1_MQTT_OK/GD32VW55X_Wifi_BLE_SDK/GD32VW55x_RELEASE_V1.0.2/MSDK/wpa_supplicant/src/ap\ap_config.h **** 	int eap_reauth_period;
 334:C:/Users/stapi/OneDrive/Desktop/GD32VW553/V1_MQTT_OK/GD32VW55X_Wifi_BLE_SDK/GD32VW55x_RELEASE_V1.0.2/MSDK/wpa_supplicant/src/ap\ap_config.h **** 	int erp_send_reauth_start;
 335:C:/Users/stapi/OneDrive/Desktop/GD32VW553/V1_MQTT_OK/GD32VW55X_Wifi_BLE_SDK/GD32VW55x_RELEASE_V1.0.2/MSDK/wpa_supplicant/src/ap\ap_config.h **** 	char *erp_domain;
 336:C:/Users/stapi/OneDrive/Desktop/GD32VW553/V1_MQTT_OK/GD32VW55X_Wifi_BLE_SDK/GD32VW55x_RELEASE_V1.0.2/MSDK/wpa_supplicant/src/ap\ap_config.h **** 
 337:C:/Users/stapi/OneDrive/Desktop/GD32VW553/V1_MQTT_OK/GD32VW55X_Wifi_BLE_SDK/GD32VW55x_RELEASE_V1.0.2/MSDK/wpa_supplicant/src/ap\ap_config.h **** 	enum macaddr_acl {
 338:C:/Users/stapi/OneDrive/Desktop/GD32VW553/V1_MQTT_OK/GD32VW55X_Wifi_BLE_SDK/GD32VW55x_RELEASE_V1.0.2/MSDK/wpa_supplicant/src/ap\ap_config.h **** 		ACCEPT_UNLESS_DENIED = 0,
 339:C:/Users/stapi/OneDrive/Desktop/GD32VW553/V1_MQTT_OK/GD32VW55X_Wifi_BLE_SDK/GD32VW55x_RELEASE_V1.0.2/MSDK/wpa_supplicant/src/ap\ap_config.h **** 		DENY_UNLESS_ACCEPTED = 1,
 340:C:/Users/stapi/OneDrive/Desktop/GD32VW553/V1_MQTT_OK/GD32VW55X_Wifi_BLE_SDK/GD32VW55x_RELEASE_V1.0.2/MSDK/wpa_supplicant/src/ap\ap_config.h **** 		USE_EXTERNAL_RADIUS_AUTH = 2
 341:C:/Users/stapi/OneDrive/Desktop/GD32VW553/V1_MQTT_OK/GD32VW55X_Wifi_BLE_SDK/GD32VW55x_RELEASE_V1.0.2/MSDK/wpa_supplicant/src/ap\ap_config.h **** 	} macaddr_acl;
 342:C:/Users/stapi/OneDrive/Desktop/GD32VW553/V1_MQTT_OK/GD32VW55X_Wifi_BLE_SDK/GD32VW55x_RELEASE_V1.0.2/MSDK/wpa_supplicant/src/ap\ap_config.h **** 	struct mac_acl_entry *accept_mac;
 343:C:/Users/stapi/OneDrive/Desktop/GD32VW553/V1_MQTT_OK/GD32VW55X_Wifi_BLE_SDK/GD32VW55x_RELEASE_V1.0.2/MSDK/wpa_supplicant/src/ap\ap_config.h **** 	int num_accept_mac;
 344:C:/Users/stapi/OneDrive/Desktop/GD32VW553/V1_MQTT_OK/GD32VW55X_Wifi_BLE_SDK/GD32VW55x_RELEASE_V1.0.2/MSDK/wpa_supplicant/src/ap\ap_config.h **** 	struct mac_acl_entry *deny_mac;
 345:C:/Users/stapi/OneDrive/Desktop/GD32VW553/V1_MQTT_OK/GD32VW55X_Wifi_BLE_SDK/GD32VW55x_RELEASE_V1.0.2/MSDK/wpa_supplicant/src/ap\ap_config.h **** 	int num_deny_mac;
 346:C:/Users/stapi/OneDrive/Desktop/GD32VW553/V1_MQTT_OK/GD32VW55X_Wifi_BLE_SDK/GD32VW55x_RELEASE_V1.0.2/MSDK/wpa_supplicant/src/ap\ap_config.h **** 	int wds_sta;
 347:C:/Users/stapi/OneDrive/Desktop/GD32VW553/V1_MQTT_OK/GD32VW55X_Wifi_BLE_SDK/GD32VW55x_RELEASE_V1.0.2/MSDK/wpa_supplicant/src/ap\ap_config.h **** 	int isolate;
 348:C:/Users/stapi/OneDrive/Desktop/GD32VW553/V1_MQTT_OK/GD32VW55X_Wifi_BLE_SDK/GD32VW55x_RELEASE_V1.0.2/MSDK/wpa_supplicant/src/ap\ap_config.h **** 	int start_disabled;
 349:C:/Users/stapi/OneDrive/Desktop/GD32VW553/V1_MQTT_OK/GD32VW55X_Wifi_BLE_SDK/GD32VW55x_RELEASE_V1.0.2/MSDK/wpa_supplicant/src/ap\ap_config.h **** 
 350:C:/Users/stapi/OneDrive/Desktop/GD32VW553/V1_MQTT_OK/GD32VW55X_Wifi_BLE_SDK/GD32VW55x_RELEASE_V1.0.2/MSDK/wpa_supplicant/src/ap\ap_config.h **** 	int auth_algs; /* bitfield of allowed IEEE 802.11 authentication
 351:C:/Users/stapi/OneDrive/Desktop/GD32VW553/V1_MQTT_OK/GD32VW55X_Wifi_BLE_SDK/GD32VW55x_RELEASE_V1.0.2/MSDK/wpa_supplicant/src/ap\ap_config.h **** 			* algorithms, WPA_AUTH_ALG_{OPEN,SHARED,LEAP} */
 352:C:/Users/stapi/OneDrive/Desktop/GD32VW553/V1_MQTT_OK/GD32VW55X_Wifi_BLE_SDK/GD32VW55x_RELEASE_V1.0.2/MSDK/wpa_supplicant/src/ap\ap_config.h **** 
 353:C:/Users/stapi/OneDrive/Desktop/GD32VW553/V1_MQTT_OK/GD32VW55X_Wifi_BLE_SDK/GD32VW55x_RELEASE_V1.0.2/MSDK/wpa_supplicant/src/ap\ap_config.h **** 	int wpa; /* bitfield of WPA_PROTO_WPA, WPA_PROTO_RSN */
 354:C:/Users/stapi/OneDrive/Desktop/GD32VW553/V1_MQTT_OK/GD32VW55X_Wifi_BLE_SDK/GD32VW55x_RELEASE_V1.0.2/MSDK/wpa_supplicant/src/ap\ap_config.h **** 	int extended_key_id;
 355:C:/Users/stapi/OneDrive/Desktop/GD32VW553/V1_MQTT_OK/GD32VW55X_Wifi_BLE_SDK/GD32VW55x_RELEASE_V1.0.2/MSDK/wpa_supplicant/src/ap\ap_config.h **** 	int wpa_key_mgmt;
 356:C:/Users/stapi/OneDrive/Desktop/GD32VW553/V1_MQTT_OK/GD32VW55X_Wifi_BLE_SDK/GD32VW55x_RELEASE_V1.0.2/MSDK/wpa_supplicant/src/ap\ap_config.h **** 	enum mfp_options ieee80211w;
 357:C:/Users/stapi/OneDrive/Desktop/GD32VW553/V1_MQTT_OK/GD32VW55X_Wifi_BLE_SDK/GD32VW55x_RELEASE_V1.0.2/MSDK/wpa_supplicant/src/ap\ap_config.h **** 	int group_mgmt_cipher;
 358:C:/Users/stapi/OneDrive/Desktop/GD32VW553/V1_MQTT_OK/GD32VW55X_Wifi_BLE_SDK/GD32VW55x_RELEASE_V1.0.2/MSDK/wpa_supplicant/src/ap\ap_config.h **** 	int beacon_prot;
 359:C:/Users/stapi/OneDrive/Desktop/GD32VW553/V1_MQTT_OK/GD32VW55X_Wifi_BLE_SDK/GD32VW55x_RELEASE_V1.0.2/MSDK/wpa_supplicant/src/ap\ap_config.h **** 	/* dot11AssociationSAQueryMaximumTimeout (in TUs) */
 360:C:/Users/stapi/OneDrive/Desktop/GD32VW553/V1_MQTT_OK/GD32VW55X_Wifi_BLE_SDK/GD32VW55x_RELEASE_V1.0.2/MSDK/wpa_supplicant/src/ap\ap_config.h **** 	unsigned int assoc_sa_query_max_timeout;
 361:C:/Users/stapi/OneDrive/Desktop/GD32VW553/V1_MQTT_OK/GD32VW55X_Wifi_BLE_SDK/GD32VW55x_RELEASE_V1.0.2/MSDK/wpa_supplicant/src/ap\ap_config.h **** 	/* dot11AssociationSAQueryRetryTimeout (in TUs) */
 362:C:/Users/stapi/OneDrive/Desktop/GD32VW553/V1_MQTT_OK/GD32VW55X_Wifi_BLE_SDK/GD32VW55x_RELEASE_V1.0.2/MSDK/wpa_supplicant/src/ap\ap_config.h **** 	int assoc_sa_query_retry_timeout;
 363:C:/Users/stapi/OneDrive/Desktop/GD32VW553/V1_MQTT_OK/GD32VW55X_Wifi_BLE_SDK/GD32VW55x_RELEASE_V1.0.2/MSDK/wpa_supplicant/src/ap\ap_config.h **** #ifdef CONFIG_OCV
 364:C:/Users/stapi/OneDrive/Desktop/GD32VW553/V1_MQTT_OK/GD32VW55X_Wifi_BLE_SDK/GD32VW55x_RELEASE_V1.0.2/MSDK/wpa_supplicant/src/ap\ap_config.h **** 	int ocv; /* Operating Channel Validation */
 365:C:/Users/stapi/OneDrive/Desktop/GD32VW553/V1_MQTT_OK/GD32VW55X_Wifi_BLE_SDK/GD32VW55x_RELEASE_V1.0.2/MSDK/wpa_supplicant/src/ap\ap_config.h **** #endif /* CONFIG_OCV */
 366:C:/Users/stapi/OneDrive/Desktop/GD32VW553/V1_MQTT_OK/GD32VW55X_Wifi_BLE_SDK/GD32VW55x_RELEASE_V1.0.2/MSDK/wpa_supplicant/src/ap\ap_config.h **** 	enum {
 367:C:/Users/stapi/OneDrive/Desktop/GD32VW553/V1_MQTT_OK/GD32VW55X_Wifi_BLE_SDK/GD32VW55x_RELEASE_V1.0.2/MSDK/wpa_supplicant/src/ap\ap_config.h **** 		PSK_RADIUS_IGNORED = 0,
 368:C:/Users/stapi/OneDrive/Desktop/GD32VW553/V1_MQTT_OK/GD32VW55X_Wifi_BLE_SDK/GD32VW55x_RELEASE_V1.0.2/MSDK/wpa_supplicant/src/ap\ap_config.h **** 		PSK_RADIUS_ACCEPTED = 1,
 369:C:/Users/stapi/OneDrive/Desktop/GD32VW553/V1_MQTT_OK/GD32VW55X_Wifi_BLE_SDK/GD32VW55x_RELEASE_V1.0.2/MSDK/wpa_supplicant/src/ap\ap_config.h **** 		PSK_RADIUS_REQUIRED = 2
 370:C:/Users/stapi/OneDrive/Desktop/GD32VW553/V1_MQTT_OK/GD32VW55X_Wifi_BLE_SDK/GD32VW55x_RELEASE_V1.0.2/MSDK/wpa_supplicant/src/ap\ap_config.h **** 	} wpa_psk_radius;
 371:C:/Users/stapi/OneDrive/Desktop/GD32VW553/V1_MQTT_OK/GD32VW55X_Wifi_BLE_SDK/GD32VW55x_RELEASE_V1.0.2/MSDK/wpa_supplicant/src/ap\ap_config.h **** 	int wpa_pairwise;
 372:C:/Users/stapi/OneDrive/Desktop/GD32VW553/V1_MQTT_OK/GD32VW55X_Wifi_BLE_SDK/GD32VW55x_RELEASE_V1.0.2/MSDK/wpa_supplicant/src/ap\ap_config.h **** 	int group_cipher; /* wpa_group value override from configuation */
 373:C:/Users/stapi/OneDrive/Desktop/GD32VW553/V1_MQTT_OK/GD32VW55X_Wifi_BLE_SDK/GD32VW55x_RELEASE_V1.0.2/MSDK/wpa_supplicant/src/ap\ap_config.h **** 	int wpa_group;
 374:C:/Users/stapi/OneDrive/Desktop/GD32VW553/V1_MQTT_OK/GD32VW55X_Wifi_BLE_SDK/GD32VW55x_RELEASE_V1.0.2/MSDK/wpa_supplicant/src/ap\ap_config.h **** 	int wpa_group_rekey;
 375:C:/Users/stapi/OneDrive/Desktop/GD32VW553/V1_MQTT_OK/GD32VW55X_Wifi_BLE_SDK/GD32VW55x_RELEASE_V1.0.2/MSDK/wpa_supplicant/src/ap\ap_config.h **** 	int wpa_group_rekey_set;
 376:C:/Users/stapi/OneDrive/Desktop/GD32VW553/V1_MQTT_OK/GD32VW55X_Wifi_BLE_SDK/GD32VW55x_RELEASE_V1.0.2/MSDK/wpa_supplicant/src/ap\ap_config.h **** 	int wpa_strict_rekey;
 377:C:/Users/stapi/OneDrive/Desktop/GD32VW553/V1_MQTT_OK/GD32VW55X_Wifi_BLE_SDK/GD32VW55x_RELEASE_V1.0.2/MSDK/wpa_supplicant/src/ap\ap_config.h **** 	int wpa_gmk_rekey;
 378:C:/Users/stapi/OneDrive/Desktop/GD32VW553/V1_MQTT_OK/GD32VW55X_Wifi_BLE_SDK/GD32VW55x_RELEASE_V1.0.2/MSDK/wpa_supplicant/src/ap\ap_config.h **** 	int wpa_ptk_rekey;
 379:C:/Users/stapi/OneDrive/Desktop/GD32VW553/V1_MQTT_OK/GD32VW55X_Wifi_BLE_SDK/GD32VW55x_RELEASE_V1.0.2/MSDK/wpa_supplicant/src/ap\ap_config.h **** 	enum ptk0_rekey_handling wpa_deny_ptk0_rekey;
 380:C:/Users/stapi/OneDrive/Desktop/GD32VW553/V1_MQTT_OK/GD32VW55X_Wifi_BLE_SDK/GD32VW55x_RELEASE_V1.0.2/MSDK/wpa_supplicant/src/ap\ap_config.h **** 	u32 wpa_group_update_count;
 381:C:/Users/stapi/OneDrive/Desktop/GD32VW553/V1_MQTT_OK/GD32VW55X_Wifi_BLE_SDK/GD32VW55x_RELEASE_V1.0.2/MSDK/wpa_supplicant/src/ap\ap_config.h **** 	u32 wpa_pairwise_update_count;
 382:C:/Users/stapi/OneDrive/Desktop/GD32VW553/V1_MQTT_OK/GD32VW55X_Wifi_BLE_SDK/GD32VW55x_RELEASE_V1.0.2/MSDK/wpa_supplicant/src/ap\ap_config.h **** 	int wpa_disable_eapol_key_retries;
 383:C:/Users/stapi/OneDrive/Desktop/GD32VW553/V1_MQTT_OK/GD32VW55X_Wifi_BLE_SDK/GD32VW55x_RELEASE_V1.0.2/MSDK/wpa_supplicant/src/ap\ap_config.h **** 	int rsn_pairwise;
 384:C:/Users/stapi/OneDrive/Desktop/GD32VW553/V1_MQTT_OK/GD32VW55X_Wifi_BLE_SDK/GD32VW55x_RELEASE_V1.0.2/MSDK/wpa_supplicant/src/ap\ap_config.h **** 	int rsn_preauth;
 385:C:/Users/stapi/OneDrive/Desktop/GD32VW553/V1_MQTT_OK/GD32VW55X_Wifi_BLE_SDK/GD32VW55x_RELEASE_V1.0.2/MSDK/wpa_supplicant/src/ap\ap_config.h **** 	char *rsn_preauth_interfaces;
 386:C:/Users/stapi/OneDrive/Desktop/GD32VW553/V1_MQTT_OK/GD32VW55X_Wifi_BLE_SDK/GD32VW55x_RELEASE_V1.0.2/MSDK/wpa_supplicant/src/ap\ap_config.h **** 
 387:C:/Users/stapi/OneDrive/Desktop/GD32VW553/V1_MQTT_OK/GD32VW55X_Wifi_BLE_SDK/GD32VW55x_RELEASE_V1.0.2/MSDK/wpa_supplicant/src/ap\ap_config.h **** #ifdef CONFIG_IEEE80211R_AP
 388:C:/Users/stapi/OneDrive/Desktop/GD32VW553/V1_MQTT_OK/GD32VW55X_Wifi_BLE_SDK/GD32VW55x_RELEASE_V1.0.2/MSDK/wpa_supplicant/src/ap\ap_config.h **** 	/* IEEE 802.11r - Fast BSS Transition */
 389:C:/Users/stapi/OneDrive/Desktop/GD32VW553/V1_MQTT_OK/GD32VW55X_Wifi_BLE_SDK/GD32VW55x_RELEASE_V1.0.2/MSDK/wpa_supplicant/src/ap\ap_config.h **** 	u8 mobility_domain[MOBILITY_DOMAIN_ID_LEN];
 390:C:/Users/stapi/OneDrive/Desktop/GD32VW553/V1_MQTT_OK/GD32VW55X_Wifi_BLE_SDK/GD32VW55x_RELEASE_V1.0.2/MSDK/wpa_supplicant/src/ap\ap_config.h **** 	u8 r1_key_holder[FT_R1KH_ID_LEN];
 391:C:/Users/stapi/OneDrive/Desktop/GD32VW553/V1_MQTT_OK/GD32VW55X_Wifi_BLE_SDK/GD32VW55x_RELEASE_V1.0.2/MSDK/wpa_supplicant/src/ap\ap_config.h **** 	u32 r0_key_lifetime; /* PMK-R0 lifetime seconds */
 392:C:/Users/stapi/OneDrive/Desktop/GD32VW553/V1_MQTT_OK/GD32VW55X_Wifi_BLE_SDK/GD32VW55x_RELEASE_V1.0.2/MSDK/wpa_supplicant/src/ap\ap_config.h **** 	int rkh_pos_timeout;
 393:C:/Users/stapi/OneDrive/Desktop/GD32VW553/V1_MQTT_OK/GD32VW55X_Wifi_BLE_SDK/GD32VW55x_RELEASE_V1.0.2/MSDK/wpa_supplicant/src/ap\ap_config.h **** 	int rkh_neg_timeout;
 394:C:/Users/stapi/OneDrive/Desktop/GD32VW553/V1_MQTT_OK/GD32VW55X_Wifi_BLE_SDK/GD32VW55x_RELEASE_V1.0.2/MSDK/wpa_supplicant/src/ap\ap_config.h **** 	int rkh_pull_timeout; /* ms */
 395:C:/Users/stapi/OneDrive/Desktop/GD32VW553/V1_MQTT_OK/GD32VW55X_Wifi_BLE_SDK/GD32VW55x_RELEASE_V1.0.2/MSDK/wpa_supplicant/src/ap\ap_config.h **** 	int rkh_pull_retries;
 396:C:/Users/stapi/OneDrive/Desktop/GD32VW553/V1_MQTT_OK/GD32VW55X_Wifi_BLE_SDK/GD32VW55x_RELEASE_V1.0.2/MSDK/wpa_supplicant/src/ap\ap_config.h **** 	u32 reassociation_deadline;
 397:C:/Users/stapi/OneDrive/Desktop/GD32VW553/V1_MQTT_OK/GD32VW55X_Wifi_BLE_SDK/GD32VW55x_RELEASE_V1.0.2/MSDK/wpa_supplicant/src/ap\ap_config.h **** 	struct ft_remote_r0kh *r0kh_list;
 398:C:/Users/stapi/OneDrive/Desktop/GD32VW553/V1_MQTT_OK/GD32VW55X_Wifi_BLE_SDK/GD32VW55x_RELEASE_V1.0.2/MSDK/wpa_supplicant/src/ap\ap_config.h **** 	struct ft_remote_r1kh *r1kh_list;
 399:C:/Users/stapi/OneDrive/Desktop/GD32VW553/V1_MQTT_OK/GD32VW55X_Wifi_BLE_SDK/GD32VW55x_RELEASE_V1.0.2/MSDK/wpa_supplicant/src/ap\ap_config.h **** 	int pmk_r1_push;
 400:C:/Users/stapi/OneDrive/Desktop/GD32VW553/V1_MQTT_OK/GD32VW55X_Wifi_BLE_SDK/GD32VW55x_RELEASE_V1.0.2/MSDK/wpa_supplicant/src/ap\ap_config.h **** 	int ft_over_ds;
 401:C:/Users/stapi/OneDrive/Desktop/GD32VW553/V1_MQTT_OK/GD32VW55X_Wifi_BLE_SDK/GD32VW55x_RELEASE_V1.0.2/MSDK/wpa_supplicant/src/ap\ap_config.h **** 	int ft_psk_generate_local;
 402:C:/Users/stapi/OneDrive/Desktop/GD32VW553/V1_MQTT_OK/GD32VW55X_Wifi_BLE_SDK/GD32VW55x_RELEASE_V1.0.2/MSDK/wpa_supplicant/src/ap\ap_config.h **** 	int r1_max_key_lifetime;
 403:C:/Users/stapi/OneDrive/Desktop/GD32VW553/V1_MQTT_OK/GD32VW55X_Wifi_BLE_SDK/GD32VW55x_RELEASE_V1.0.2/MSDK/wpa_supplicant/src/ap\ap_config.h **** #endif /* CONFIG_IEEE80211R_AP */
 404:C:/Users/stapi/OneDrive/Desktop/GD32VW553/V1_MQTT_OK/GD32VW55X_Wifi_BLE_SDK/GD32VW55x_RELEASE_V1.0.2/MSDK/wpa_supplicant/src/ap\ap_config.h **** 
 405:C:/Users/stapi/OneDrive/Desktop/GD32VW553/V1_MQTT_OK/GD32VW55X_Wifi_BLE_SDK/GD32VW55x_RELEASE_V1.0.2/MSDK/wpa_supplicant/src/ap\ap_config.h **** 	char *ctrl_interface; /* directory for UNIX domain sockets */
 406:C:/Users/stapi/OneDrive/Desktop/GD32VW553/V1_MQTT_OK/GD32VW55X_Wifi_BLE_SDK/GD32VW55x_RELEASE_V1.0.2/MSDK/wpa_supplicant/src/ap\ap_config.h **** #ifndef CONFIG_NATIVE_WINDOWS
 407:C:/Users/stapi/OneDrive/Desktop/GD32VW553/V1_MQTT_OK/GD32VW55X_Wifi_BLE_SDK/GD32VW55x_RELEASE_V1.0.2/MSDK/wpa_supplicant/src/ap\ap_config.h **** 	wpa_gid_t ctrl_interface_gid;
 408:C:/Users/stapi/OneDrive/Desktop/GD32VW553/V1_MQTT_OK/GD32VW55X_Wifi_BLE_SDK/GD32VW55x_RELEASE_V1.0.2/MSDK/wpa_supplicant/src/ap\ap_config.h **** #endif /* CONFIG_NATIVE_WINDOWS */
 409:C:/Users/stapi/OneDrive/Desktop/GD32VW553/V1_MQTT_OK/GD32VW55X_Wifi_BLE_SDK/GD32VW55x_RELEASE_V1.0.2/MSDK/wpa_supplicant/src/ap\ap_config.h **** 	int ctrl_interface_gid_set;
 410:C:/Users/stapi/OneDrive/Desktop/GD32VW553/V1_MQTT_OK/GD32VW55X_Wifi_BLE_SDK/GD32VW55x_RELEASE_V1.0.2/MSDK/wpa_supplicant/src/ap\ap_config.h **** 
 411:C:/Users/stapi/OneDrive/Desktop/GD32VW553/V1_MQTT_OK/GD32VW55X_Wifi_BLE_SDK/GD32VW55x_RELEASE_V1.0.2/MSDK/wpa_supplicant/src/ap\ap_config.h **** 	char *ca_cert;
 412:C:/Users/stapi/OneDrive/Desktop/GD32VW553/V1_MQTT_OK/GD32VW55X_Wifi_BLE_SDK/GD32VW55x_RELEASE_V1.0.2/MSDK/wpa_supplicant/src/ap\ap_config.h **** 	char *server_cert;
 413:C:/Users/stapi/OneDrive/Desktop/GD32VW553/V1_MQTT_OK/GD32VW55X_Wifi_BLE_SDK/GD32VW55x_RELEASE_V1.0.2/MSDK/wpa_supplicant/src/ap\ap_config.h **** 	char *server_cert2;
 414:C:/Users/stapi/OneDrive/Desktop/GD32VW553/V1_MQTT_OK/GD32VW55X_Wifi_BLE_SDK/GD32VW55x_RELEASE_V1.0.2/MSDK/wpa_supplicant/src/ap\ap_config.h **** 	char *private_key;
 415:C:/Users/stapi/OneDrive/Desktop/GD32VW553/V1_MQTT_OK/GD32VW55X_Wifi_BLE_SDK/GD32VW55x_RELEASE_V1.0.2/MSDK/wpa_supplicant/src/ap\ap_config.h **** 	char *private_key2;
 416:C:/Users/stapi/OneDrive/Desktop/GD32VW553/V1_MQTT_OK/GD32VW55X_Wifi_BLE_SDK/GD32VW55x_RELEASE_V1.0.2/MSDK/wpa_supplicant/src/ap\ap_config.h **** 	char *private_key_passwd;
 417:C:/Users/stapi/OneDrive/Desktop/GD32VW553/V1_MQTT_OK/GD32VW55X_Wifi_BLE_SDK/GD32VW55x_RELEASE_V1.0.2/MSDK/wpa_supplicant/src/ap\ap_config.h **** 	char *private_key_passwd2;
 418:C:/Users/stapi/OneDrive/Desktop/GD32VW553/V1_MQTT_OK/GD32VW55X_Wifi_BLE_SDK/GD32VW55x_RELEASE_V1.0.2/MSDK/wpa_supplicant/src/ap\ap_config.h **** 	char *check_cert_subject;
 419:C:/Users/stapi/OneDrive/Desktop/GD32VW553/V1_MQTT_OK/GD32VW55X_Wifi_BLE_SDK/GD32VW55x_RELEASE_V1.0.2/MSDK/wpa_supplicant/src/ap\ap_config.h **** 	int check_crl;
 420:C:/Users/stapi/OneDrive/Desktop/GD32VW553/V1_MQTT_OK/GD32VW55X_Wifi_BLE_SDK/GD32VW55x_RELEASE_V1.0.2/MSDK/wpa_supplicant/src/ap\ap_config.h **** 	int check_crl_strict;
 421:C:/Users/stapi/OneDrive/Desktop/GD32VW553/V1_MQTT_OK/GD32VW55X_Wifi_BLE_SDK/GD32VW55x_RELEASE_V1.0.2/MSDK/wpa_supplicant/src/ap\ap_config.h **** 	unsigned int crl_reload_interval;
 422:C:/Users/stapi/OneDrive/Desktop/GD32VW553/V1_MQTT_OK/GD32VW55X_Wifi_BLE_SDK/GD32VW55x_RELEASE_V1.0.2/MSDK/wpa_supplicant/src/ap\ap_config.h **** 	unsigned int tls_session_lifetime;
 423:C:/Users/stapi/OneDrive/Desktop/GD32VW553/V1_MQTT_OK/GD32VW55X_Wifi_BLE_SDK/GD32VW55x_RELEASE_V1.0.2/MSDK/wpa_supplicant/src/ap\ap_config.h **** 	unsigned int tls_flags;
 424:C:/Users/stapi/OneDrive/Desktop/GD32VW553/V1_MQTT_OK/GD32VW55X_Wifi_BLE_SDK/GD32VW55x_RELEASE_V1.0.2/MSDK/wpa_supplicant/src/ap\ap_config.h **** 	unsigned int max_auth_rounds;
 425:C:/Users/stapi/OneDrive/Desktop/GD32VW553/V1_MQTT_OK/GD32VW55X_Wifi_BLE_SDK/GD32VW55x_RELEASE_V1.0.2/MSDK/wpa_supplicant/src/ap\ap_config.h **** 	unsigned int max_auth_rounds_short;
 426:C:/Users/stapi/OneDrive/Desktop/GD32VW553/V1_MQTT_OK/GD32VW55X_Wifi_BLE_SDK/GD32VW55x_RELEASE_V1.0.2/MSDK/wpa_supplicant/src/ap\ap_config.h **** 	char *ocsp_stapling_response;
 427:C:/Users/stapi/OneDrive/Desktop/GD32VW553/V1_MQTT_OK/GD32VW55X_Wifi_BLE_SDK/GD32VW55x_RELEASE_V1.0.2/MSDK/wpa_supplicant/src/ap\ap_config.h **** 	char *ocsp_stapling_response_multi;
 428:C:/Users/stapi/OneDrive/Desktop/GD32VW553/V1_MQTT_OK/GD32VW55X_Wifi_BLE_SDK/GD32VW55x_RELEASE_V1.0.2/MSDK/wpa_supplicant/src/ap\ap_config.h **** 	char *dh_file;
 429:C:/Users/stapi/OneDrive/Desktop/GD32VW553/V1_MQTT_OK/GD32VW55X_Wifi_BLE_SDK/GD32VW55x_RELEASE_V1.0.2/MSDK/wpa_supplicant/src/ap\ap_config.h **** 	char *openssl_ciphers;
 430:C:/Users/stapi/OneDrive/Desktop/GD32VW553/V1_MQTT_OK/GD32VW55X_Wifi_BLE_SDK/GD32VW55x_RELEASE_V1.0.2/MSDK/wpa_supplicant/src/ap\ap_config.h **** 	char *openssl_ecdh_curves;
