   1              		.file	"neighbor_db.c"
   2              		.option nopic
   3              		.attribute arch, "rv32i2p0_m2p0_a2p0_f2p0_c2p0_b_p0p94"
   4              		.attribute unaligned_access, 0
   5              		.attribute stack_align, 16
   6              		.text
   7              	.Ltext0:
   8              		.cfi_sections	.debug_frame
   9              		.section	.text.hostapd_neighbor_clear_entry,"ax",@progbits
  10              		.align	1
  12              	hostapd_neighbor_clear_entry:
  13              	.LFB139:
  14              		.file 1 "C:/Users/stapi/OneDrive/Desktop/GD32VW553/V1_MQTT_OK/GD32VW55X_Wifi_BLE_SDK/GD32VW55x_REL
   1:C:/Users/stapi/OneDrive/Desktop/GD32VW553/V1_MQTT_OK/GD32VW55X_Wifi_BLE_SDK/GD32VW55x_RELEASE_V1.0.2/MSDK/wpa_supplicant/src/ap\neighbor_db.c **** /*
   2:C:/Users/stapi/OneDrive/Desktop/GD32VW553/V1_MQTT_OK/GD32VW55X_Wifi_BLE_SDK/GD32VW55x_RELEASE_V1.0.2/MSDK/wpa_supplicant/src/ap\neighbor_db.c ****  * hostapd / Neighboring APs DB
   3:C:/Users/stapi/OneDrive/Desktop/GD32VW553/V1_MQTT_OK/GD32VW55X_Wifi_BLE_SDK/GD32VW55x_RELEASE_V1.0.2/MSDK/wpa_supplicant/src/ap\neighbor_db.c ****  * Copyright(c) 2013 - 2016 Intel Mobile Communications GmbH.
   4:C:/Users/stapi/OneDrive/Desktop/GD32VW553/V1_MQTT_OK/GD32VW55X_Wifi_BLE_SDK/GD32VW55x_RELEASE_V1.0.2/MSDK/wpa_supplicant/src/ap\neighbor_db.c ****  * Copyright(c) 2011 - 2016 Intel Corporation. All rights reserved.
   5:C:/Users/stapi/OneDrive/Desktop/GD32VW553/V1_MQTT_OK/GD32VW55X_Wifi_BLE_SDK/GD32VW55x_RELEASE_V1.0.2/MSDK/wpa_supplicant/src/ap\neighbor_db.c ****  *
   6:C:/Users/stapi/OneDrive/Desktop/GD32VW553/V1_MQTT_OK/GD32VW55X_Wifi_BLE_SDK/GD32VW55x_RELEASE_V1.0.2/MSDK/wpa_supplicant/src/ap\neighbor_db.c ****  * This software may be distributed under the terms of the BSD license.
   7:C:/Users/stapi/OneDrive/Desktop/GD32VW553/V1_MQTT_OK/GD32VW55X_Wifi_BLE_SDK/GD32VW55x_RELEASE_V1.0.2/MSDK/wpa_supplicant/src/ap\neighbor_db.c ****  * See README for more details.
   8:C:/Users/stapi/OneDrive/Desktop/GD32VW553/V1_MQTT_OK/GD32VW55X_Wifi_BLE_SDK/GD32VW55x_RELEASE_V1.0.2/MSDK/wpa_supplicant/src/ap\neighbor_db.c ****  */
   9:C:/Users/stapi/OneDrive/Desktop/GD32VW553/V1_MQTT_OK/GD32VW55X_Wifi_BLE_SDK/GD32VW55x_RELEASE_V1.0.2/MSDK/wpa_supplicant/src/ap\neighbor_db.c **** 
  10:C:/Users/stapi/OneDrive/Desktop/GD32VW553/V1_MQTT_OK/GD32VW55X_Wifi_BLE_SDK/GD32VW55x_RELEASE_V1.0.2/MSDK/wpa_supplicant/src/ap\neighbor_db.c **** #include "utils/includes.h"
  11:C:/Users/stapi/OneDrive/Desktop/GD32VW553/V1_MQTT_OK/GD32VW55X_Wifi_BLE_SDK/GD32VW55x_RELEASE_V1.0.2/MSDK/wpa_supplicant/src/ap\neighbor_db.c **** 
  12:C:/Users/stapi/OneDrive/Desktop/GD32VW553/V1_MQTT_OK/GD32VW55X_Wifi_BLE_SDK/GD32VW55x_RELEASE_V1.0.2/MSDK/wpa_supplicant/src/ap\neighbor_db.c **** #include "utils/common.h"
  13:C:/Users/stapi/OneDrive/Desktop/GD32VW553/V1_MQTT_OK/GD32VW55X_Wifi_BLE_SDK/GD32VW55x_RELEASE_V1.0.2/MSDK/wpa_supplicant/src/ap\neighbor_db.c **** #include "utils/crc32.h"
  14:C:/Users/stapi/OneDrive/Desktop/GD32VW553/V1_MQTT_OK/GD32VW55X_Wifi_BLE_SDK/GD32VW55x_RELEASE_V1.0.2/MSDK/wpa_supplicant/src/ap\neighbor_db.c **** #include "hostapd.h"
  15:C:/Users/stapi/OneDrive/Desktop/GD32VW553/V1_MQTT_OK/GD32VW55X_Wifi_BLE_SDK/GD32VW55x_RELEASE_V1.0.2/MSDK/wpa_supplicant/src/ap\neighbor_db.c **** #include "ieee802_11.h"
  16:C:/Users/stapi/OneDrive/Desktop/GD32VW553/V1_MQTT_OK/GD32VW55X_Wifi_BLE_SDK/GD32VW55x_RELEASE_V1.0.2/MSDK/wpa_supplicant/src/ap\neighbor_db.c **** #include "neighbor_db.h"
  17:C:/Users/stapi/OneDrive/Desktop/GD32VW553/V1_MQTT_OK/GD32VW55X_Wifi_BLE_SDK/GD32VW55x_RELEASE_V1.0.2/MSDK/wpa_supplicant/src/ap\neighbor_db.c **** 
  18:C:/Users/stapi/OneDrive/Desktop/GD32VW553/V1_MQTT_OK/GD32VW55X_Wifi_BLE_SDK/GD32VW55x_RELEASE_V1.0.2/MSDK/wpa_supplicant/src/ap\neighbor_db.c **** 
  19:C:/Users/stapi/OneDrive/Desktop/GD32VW553/V1_MQTT_OK/GD32VW55X_Wifi_BLE_SDK/GD32VW55x_RELEASE_V1.0.2/MSDK/wpa_supplicant/src/ap\neighbor_db.c **** struct hostapd_neighbor_entry *
  20:C:/Users/stapi/OneDrive/Desktop/GD32VW553/V1_MQTT_OK/GD32VW55X_Wifi_BLE_SDK/GD32VW55x_RELEASE_V1.0.2/MSDK/wpa_supplicant/src/ap\neighbor_db.c **** hostapd_neighbor_get(struct hostapd_data *hapd, const u8 *bssid,
  21:C:/Users/stapi/OneDrive/Desktop/GD32VW553/V1_MQTT_OK/GD32VW55X_Wifi_BLE_SDK/GD32VW55x_RELEASE_V1.0.2/MSDK/wpa_supplicant/src/ap\neighbor_db.c **** 		     const struct wpa_ssid_value *ssid)
  22:C:/Users/stapi/OneDrive/Desktop/GD32VW553/V1_MQTT_OK/GD32VW55X_Wifi_BLE_SDK/GD32VW55x_RELEASE_V1.0.2/MSDK/wpa_supplicant/src/ap\neighbor_db.c **** {
  23:C:/Users/stapi/OneDrive/Desktop/GD32VW553/V1_MQTT_OK/GD32VW55X_Wifi_BLE_SDK/GD32VW55x_RELEASE_V1.0.2/MSDK/wpa_supplicant/src/ap\neighbor_db.c **** 	struct hostapd_neighbor_entry *nr;
  24:C:/Users/stapi/OneDrive/Desktop/GD32VW553/V1_MQTT_OK/GD32VW55X_Wifi_BLE_SDK/GD32VW55x_RELEASE_V1.0.2/MSDK/wpa_supplicant/src/ap\neighbor_db.c **** 
  25:C:/Users/stapi/OneDrive/Desktop/GD32VW553/V1_MQTT_OK/GD32VW55X_Wifi_BLE_SDK/GD32VW55x_RELEASE_V1.0.2/MSDK/wpa_supplicant/src/ap\neighbor_db.c **** 	dl_list_for_each(nr, &hapd->nr_db, struct hostapd_neighbor_entry,
  26:C:/Users/stapi/OneDrive/Desktop/GD32VW553/V1_MQTT_OK/GD32VW55X_Wifi_BLE_SDK/GD32VW55x_RELEASE_V1.0.2/MSDK/wpa_supplicant/src/ap\neighbor_db.c **** 			 list) {
  27:C:/Users/stapi/OneDrive/Desktop/GD32VW553/V1_MQTT_OK/GD32VW55X_Wifi_BLE_SDK/GD32VW55x_RELEASE_V1.0.2/MSDK/wpa_supplicant/src/ap\neighbor_db.c **** 		if (os_memcmp(bssid, nr->bssid, ETH_ALEN) == 0 &&
  28:C:/Users/stapi/OneDrive/Desktop/GD32VW553/V1_MQTT_OK/GD32VW55X_Wifi_BLE_SDK/GD32VW55x_RELEASE_V1.0.2/MSDK/wpa_supplicant/src/ap\neighbor_db.c **** 		    (!ssid ||
  29:C:/Users/stapi/OneDrive/Desktop/GD32VW553/V1_MQTT_OK/GD32VW55X_Wifi_BLE_SDK/GD32VW55x_RELEASE_V1.0.2/MSDK/wpa_supplicant/src/ap\neighbor_db.c **** 		     (ssid->ssid_len == nr->ssid.ssid_len &&
  30:C:/Users/stapi/OneDrive/Desktop/GD32VW553/V1_MQTT_OK/GD32VW55X_Wifi_BLE_SDK/GD32VW55x_RELEASE_V1.0.2/MSDK/wpa_supplicant/src/ap\neighbor_db.c **** 		      os_memcmp(ssid->ssid, nr->ssid.ssid,
  31:C:/Users/stapi/OneDrive/Desktop/GD32VW553/V1_MQTT_OK/GD32VW55X_Wifi_BLE_SDK/GD32VW55x_RELEASE_V1.0.2/MSDK/wpa_supplicant/src/ap\neighbor_db.c **** 				ssid->ssid_len) == 0)))
  32:C:/Users/stapi/OneDrive/Desktop/GD32VW553/V1_MQTT_OK/GD32VW55X_Wifi_BLE_SDK/GD32VW55x_RELEASE_V1.0.2/MSDK/wpa_supplicant/src/ap\neighbor_db.c **** 			return nr;
  33:C:/Users/stapi/OneDrive/Desktop/GD32VW553/V1_MQTT_OK/GD32VW55X_Wifi_BLE_SDK/GD32VW55x_RELEASE_V1.0.2/MSDK/wpa_supplicant/src/ap\neighbor_db.c **** 	}
  34:C:/Users/stapi/OneDrive/Desktop/GD32VW553/V1_MQTT_OK/GD32VW55X_Wifi_BLE_SDK/GD32VW55x_RELEASE_V1.0.2/MSDK/wpa_supplicant/src/ap\neighbor_db.c **** 	return NULL;
  35:C:/Users/stapi/OneDrive/Desktop/GD32VW553/V1_MQTT_OK/GD32VW55X_Wifi_BLE_SDK/GD32VW55x_RELEASE_V1.0.2/MSDK/wpa_supplicant/src/ap\neighbor_db.c **** }
  36:C:/Users/stapi/OneDrive/Desktop/GD32VW553/V1_MQTT_OK/GD32VW55X_Wifi_BLE_SDK/GD32VW55x_RELEASE_V1.0.2/MSDK/wpa_supplicant/src/ap\neighbor_db.c **** 
  37:C:/Users/stapi/OneDrive/Desktop/GD32VW553/V1_MQTT_OK/GD32VW55X_Wifi_BLE_SDK/GD32VW55x_RELEASE_V1.0.2/MSDK/wpa_supplicant/src/ap\neighbor_db.c **** 
  38:C:/Users/stapi/OneDrive/Desktop/GD32VW553/V1_MQTT_OK/GD32VW55X_Wifi_BLE_SDK/GD32VW55x_RELEASE_V1.0.2/MSDK/wpa_supplicant/src/ap\neighbor_db.c **** int hostapd_neighbor_show(struct hostapd_data *hapd, char *buf, size_t buflen)
  39:C:/Users/stapi/OneDrive/Desktop/GD32VW553/V1_MQTT_OK/GD32VW55X_Wifi_BLE_SDK/GD32VW55x_RELEASE_V1.0.2/MSDK/wpa_supplicant/src/ap\neighbor_db.c **** {
  40:C:/Users/stapi/OneDrive/Desktop/GD32VW553/V1_MQTT_OK/GD32VW55X_Wifi_BLE_SDK/GD32VW55x_RELEASE_V1.0.2/MSDK/wpa_supplicant/src/ap\neighbor_db.c **** 	struct hostapd_neighbor_entry *nr;
  41:C:/Users/stapi/OneDrive/Desktop/GD32VW553/V1_MQTT_OK/GD32VW55X_Wifi_BLE_SDK/GD32VW55x_RELEASE_V1.0.2/MSDK/wpa_supplicant/src/ap\neighbor_db.c **** 	char *pos, *end;
  42:C:/Users/stapi/OneDrive/Desktop/GD32VW553/V1_MQTT_OK/GD32VW55X_Wifi_BLE_SDK/GD32VW55x_RELEASE_V1.0.2/MSDK/wpa_supplicant/src/ap\neighbor_db.c **** 
  43:C:/Users/stapi/OneDrive/Desktop/GD32VW553/V1_MQTT_OK/GD32VW55X_Wifi_BLE_SDK/GD32VW55x_RELEASE_V1.0.2/MSDK/wpa_supplicant/src/ap\neighbor_db.c **** 	pos = buf;
  44:C:/Users/stapi/OneDrive/Desktop/GD32VW553/V1_MQTT_OK/GD32VW55X_Wifi_BLE_SDK/GD32VW55x_RELEASE_V1.0.2/MSDK/wpa_supplicant/src/ap\neighbor_db.c **** 	end = buf + buflen;
  45:C:/Users/stapi/OneDrive/Desktop/GD32VW553/V1_MQTT_OK/GD32VW55X_Wifi_BLE_SDK/GD32VW55x_RELEASE_V1.0.2/MSDK/wpa_supplicant/src/ap\neighbor_db.c **** 
  46:C:/Users/stapi/OneDrive/Desktop/GD32VW553/V1_MQTT_OK/GD32VW55X_Wifi_BLE_SDK/GD32VW55x_RELEASE_V1.0.2/MSDK/wpa_supplicant/src/ap\neighbor_db.c **** 	dl_list_for_each(nr, &hapd->nr_db, struct hostapd_neighbor_entry,
  47:C:/Users/stapi/OneDrive/Desktop/GD32VW553/V1_MQTT_OK/GD32VW55X_Wifi_BLE_SDK/GD32VW55x_RELEASE_V1.0.2/MSDK/wpa_supplicant/src/ap\neighbor_db.c **** 			 list) {
  48:C:/Users/stapi/OneDrive/Desktop/GD32VW553/V1_MQTT_OK/GD32VW55X_Wifi_BLE_SDK/GD32VW55x_RELEASE_V1.0.2/MSDK/wpa_supplicant/src/ap\neighbor_db.c **** 		int ret;
  49:C:/Users/stapi/OneDrive/Desktop/GD32VW553/V1_MQTT_OK/GD32VW55X_Wifi_BLE_SDK/GD32VW55x_RELEASE_V1.0.2/MSDK/wpa_supplicant/src/ap\neighbor_db.c **** 		char nrie[2 * 255 + 1];
  50:C:/Users/stapi/OneDrive/Desktop/GD32VW553/V1_MQTT_OK/GD32VW55X_Wifi_BLE_SDK/GD32VW55x_RELEASE_V1.0.2/MSDK/wpa_supplicant/src/ap\neighbor_db.c **** 		char lci[2 * 255 + 1];
  51:C:/Users/stapi/OneDrive/Desktop/GD32VW553/V1_MQTT_OK/GD32VW55X_Wifi_BLE_SDK/GD32VW55x_RELEASE_V1.0.2/MSDK/wpa_supplicant/src/ap\neighbor_db.c **** 		char civic[2 * 255 + 1];
  52:C:/Users/stapi/OneDrive/Desktop/GD32VW553/V1_MQTT_OK/GD32VW55X_Wifi_BLE_SDK/GD32VW55x_RELEASE_V1.0.2/MSDK/wpa_supplicant/src/ap\neighbor_db.c **** 		char ssid[SSID_MAX_LEN * 2 + 1];
  53:C:/Users/stapi/OneDrive/Desktop/GD32VW553/V1_MQTT_OK/GD32VW55X_Wifi_BLE_SDK/GD32VW55x_RELEASE_V1.0.2/MSDK/wpa_supplicant/src/ap\neighbor_db.c **** 
  54:C:/Users/stapi/OneDrive/Desktop/GD32VW553/V1_MQTT_OK/GD32VW55X_Wifi_BLE_SDK/GD32VW55x_RELEASE_V1.0.2/MSDK/wpa_supplicant/src/ap\neighbor_db.c **** 		ssid[0] = '\0';
  55:C:/Users/stapi/OneDrive/Desktop/GD32VW553/V1_MQTT_OK/GD32VW55X_Wifi_BLE_SDK/GD32VW55x_RELEASE_V1.0.2/MSDK/wpa_supplicant/src/ap\neighbor_db.c **** 		wpa_snprintf_hex(ssid, sizeof(ssid), nr->ssid.ssid,
  56:C:/Users/stapi/OneDrive/Desktop/GD32VW553/V1_MQTT_OK/GD32VW55X_Wifi_BLE_SDK/GD32VW55x_RELEASE_V1.0.2/MSDK/wpa_supplicant/src/ap\neighbor_db.c **** 				 nr->ssid.ssid_len);
  57:C:/Users/stapi/OneDrive/Desktop/GD32VW553/V1_MQTT_OK/GD32VW55X_Wifi_BLE_SDK/GD32VW55x_RELEASE_V1.0.2/MSDK/wpa_supplicant/src/ap\neighbor_db.c **** 
  58:C:/Users/stapi/OneDrive/Desktop/GD32VW553/V1_MQTT_OK/GD32VW55X_Wifi_BLE_SDK/GD32VW55x_RELEASE_V1.0.2/MSDK/wpa_supplicant/src/ap\neighbor_db.c **** 		nrie[0] = '\0';
  59:C:/Users/stapi/OneDrive/Desktop/GD32VW553/V1_MQTT_OK/GD32VW55X_Wifi_BLE_SDK/GD32VW55x_RELEASE_V1.0.2/MSDK/wpa_supplicant/src/ap\neighbor_db.c **** 		if (nr->nr)
  60:C:/Users/stapi/OneDrive/Desktop/GD32VW553/V1_MQTT_OK/GD32VW55X_Wifi_BLE_SDK/GD32VW55x_RELEASE_V1.0.2/MSDK/wpa_supplicant/src/ap\neighbor_db.c **** 			wpa_snprintf_hex(nrie, sizeof(nrie),
  61:C:/Users/stapi/OneDrive/Desktop/GD32VW553/V1_MQTT_OK/GD32VW55X_Wifi_BLE_SDK/GD32VW55x_RELEASE_V1.0.2/MSDK/wpa_supplicant/src/ap\neighbor_db.c **** 					 wpabuf_head(nr->nr),
  62:C:/Users/stapi/OneDrive/Desktop/GD32VW553/V1_MQTT_OK/GD32VW55X_Wifi_BLE_SDK/GD32VW55x_RELEASE_V1.0.2/MSDK/wpa_supplicant/src/ap\neighbor_db.c **** 					 wpabuf_len(nr->nr));
  63:C:/Users/stapi/OneDrive/Desktop/GD32VW553/V1_MQTT_OK/GD32VW55X_Wifi_BLE_SDK/GD32VW55x_RELEASE_V1.0.2/MSDK/wpa_supplicant/src/ap\neighbor_db.c **** 
  64:C:/Users/stapi/OneDrive/Desktop/GD32VW553/V1_MQTT_OK/GD32VW55X_Wifi_BLE_SDK/GD32VW55x_RELEASE_V1.0.2/MSDK/wpa_supplicant/src/ap\neighbor_db.c **** 		lci[0] = '\0';
  65:C:/Users/stapi/OneDrive/Desktop/GD32VW553/V1_MQTT_OK/GD32VW55X_Wifi_BLE_SDK/GD32VW55x_RELEASE_V1.0.2/MSDK/wpa_supplicant/src/ap\neighbor_db.c **** 		if (nr->lci)
  66:C:/Users/stapi/OneDrive/Desktop/GD32VW553/V1_MQTT_OK/GD32VW55X_Wifi_BLE_SDK/GD32VW55x_RELEASE_V1.0.2/MSDK/wpa_supplicant/src/ap\neighbor_db.c **** 			wpa_snprintf_hex(lci, sizeof(lci),
  67:C:/Users/stapi/OneDrive/Desktop/GD32VW553/V1_MQTT_OK/GD32VW55X_Wifi_BLE_SDK/GD32VW55x_RELEASE_V1.0.2/MSDK/wpa_supplicant/src/ap\neighbor_db.c **** 					 wpabuf_head(nr->lci),
  68:C:/Users/stapi/OneDrive/Desktop/GD32VW553/V1_MQTT_OK/GD32VW55X_Wifi_BLE_SDK/GD32VW55x_RELEASE_V1.0.2/MSDK/wpa_supplicant/src/ap\neighbor_db.c **** 					 wpabuf_len(nr->lci));
  69:C:/Users/stapi/OneDrive/Desktop/GD32VW553/V1_MQTT_OK/GD32VW55X_Wifi_BLE_SDK/GD32VW55x_RELEASE_V1.0.2/MSDK/wpa_supplicant/src/ap\neighbor_db.c **** 
  70:C:/Users/stapi/OneDrive/Desktop/GD32VW553/V1_MQTT_OK/GD32VW55X_Wifi_BLE_SDK/GD32VW55x_RELEASE_V1.0.2/MSDK/wpa_supplicant/src/ap\neighbor_db.c **** 		civic[0] = '\0';
  71:C:/Users/stapi/OneDrive/Desktop/GD32VW553/V1_MQTT_OK/GD32VW55X_Wifi_BLE_SDK/GD32VW55x_RELEASE_V1.0.2/MSDK/wpa_supplicant/src/ap\neighbor_db.c **** 		if (nr->civic)
  72:C:/Users/stapi/OneDrive/Desktop/GD32VW553/V1_MQTT_OK/GD32VW55X_Wifi_BLE_SDK/GD32VW55x_RELEASE_V1.0.2/MSDK/wpa_supplicant/src/ap\neighbor_db.c **** 			wpa_snprintf_hex(civic, sizeof(civic),
  73:C:/Users/stapi/OneDrive/Desktop/GD32VW553/V1_MQTT_OK/GD32VW55X_Wifi_BLE_SDK/GD32VW55x_RELEASE_V1.0.2/MSDK/wpa_supplicant/src/ap\neighbor_db.c **** 					 wpabuf_head(nr->civic),
  74:C:/Users/stapi/OneDrive/Desktop/GD32VW553/V1_MQTT_OK/GD32VW55X_Wifi_BLE_SDK/GD32VW55x_RELEASE_V1.0.2/MSDK/wpa_supplicant/src/ap\neighbor_db.c **** 					 wpabuf_len(nr->civic));
  75:C:/Users/stapi/OneDrive/Desktop/GD32VW553/V1_MQTT_OK/GD32VW55X_Wifi_BLE_SDK/GD32VW55x_RELEASE_V1.0.2/MSDK/wpa_supplicant/src/ap\neighbor_db.c **** 
  76:C:/Users/stapi/OneDrive/Desktop/GD32VW553/V1_MQTT_OK/GD32VW55X_Wifi_BLE_SDK/GD32VW55x_RELEASE_V1.0.2/MSDK/wpa_supplicant/src/ap\neighbor_db.c **** 		ret = os_snprintf(pos, end - pos, MACSTR
  77:C:/Users/stapi/OneDrive/Desktop/GD32VW553/V1_MQTT_OK/GD32VW55X_Wifi_BLE_SDK/GD32VW55x_RELEASE_V1.0.2/MSDK/wpa_supplicant/src/ap\neighbor_db.c **** 				  " ssid=%s%s%s%s%s%s%s%s\n",
  78:C:/Users/stapi/OneDrive/Desktop/GD32VW553/V1_MQTT_OK/GD32VW55X_Wifi_BLE_SDK/GD32VW55x_RELEASE_V1.0.2/MSDK/wpa_supplicant/src/ap\neighbor_db.c **** 				  MAC2STR(nr->bssid), ssid,
  79:C:/Users/stapi/OneDrive/Desktop/GD32VW553/V1_MQTT_OK/GD32VW55X_Wifi_BLE_SDK/GD32VW55x_RELEASE_V1.0.2/MSDK/wpa_supplicant/src/ap\neighbor_db.c **** 				  nr->nr ? " nr=" : "", nrie,
  80:C:/Users/stapi/OneDrive/Desktop/GD32VW553/V1_MQTT_OK/GD32VW55X_Wifi_BLE_SDK/GD32VW55x_RELEASE_V1.0.2/MSDK/wpa_supplicant/src/ap\neighbor_db.c **** 				  nr->lci ? " lci=" : "", lci,
  81:C:/Users/stapi/OneDrive/Desktop/GD32VW553/V1_MQTT_OK/GD32VW55X_Wifi_BLE_SDK/GD32VW55x_RELEASE_V1.0.2/MSDK/wpa_supplicant/src/ap\neighbor_db.c **** 				  nr->civic ? " civic=" : "", civic,
  82:C:/Users/stapi/OneDrive/Desktop/GD32VW553/V1_MQTT_OK/GD32VW55X_Wifi_BLE_SDK/GD32VW55x_RELEASE_V1.0.2/MSDK/wpa_supplicant/src/ap\neighbor_db.c **** 				  nr->stationary ? " stat" : "");
  83:C:/Users/stapi/OneDrive/Desktop/GD32VW553/V1_MQTT_OK/GD32VW55X_Wifi_BLE_SDK/GD32VW55x_RELEASE_V1.0.2/MSDK/wpa_supplicant/src/ap\neighbor_db.c **** 		if (os_snprintf_error(end - pos, ret))
  84:C:/Users/stapi/OneDrive/Desktop/GD32VW553/V1_MQTT_OK/GD32VW55X_Wifi_BLE_SDK/GD32VW55x_RELEASE_V1.0.2/MSDK/wpa_supplicant/src/ap\neighbor_db.c **** 			break;
  85:C:/Users/stapi/OneDrive/Desktop/GD32VW553/V1_MQTT_OK/GD32VW55X_Wifi_BLE_SDK/GD32VW55x_RELEASE_V1.0.2/MSDK/wpa_supplicant/src/ap\neighbor_db.c **** 		pos += ret;
  86:C:/Users/stapi/OneDrive/Desktop/GD32VW553/V1_MQTT_OK/GD32VW55X_Wifi_BLE_SDK/GD32VW55x_RELEASE_V1.0.2/MSDK/wpa_supplicant/src/ap\neighbor_db.c **** 	}
  87:C:/Users/stapi/OneDrive/Desktop/GD32VW553/V1_MQTT_OK/GD32VW55X_Wifi_BLE_SDK/GD32VW55x_RELEASE_V1.0.2/MSDK/wpa_supplicant/src/ap\neighbor_db.c **** 
  88:C:/Users/stapi/OneDrive/Desktop/GD32VW553/V1_MQTT_OK/GD32VW55X_Wifi_BLE_SDK/GD32VW55x_RELEASE_V1.0.2/MSDK/wpa_supplicant/src/ap\neighbor_db.c **** 	return pos - buf;
  89:C:/Users/stapi/OneDrive/Desktop/GD32VW553/V1_MQTT_OK/GD32VW55X_Wifi_BLE_SDK/GD32VW55x_RELEASE_V1.0.2/MSDK/wpa_supplicant/src/ap\neighbor_db.c **** }
  90:C:/Users/stapi/OneDrive/Desktop/GD32VW553/V1_MQTT_OK/GD32VW55X_Wifi_BLE_SDK/GD32VW55x_RELEASE_V1.0.2/MSDK/wpa_supplicant/src/ap\neighbor_db.c **** 
  91:C:/Users/stapi/OneDrive/Desktop/GD32VW553/V1_MQTT_OK/GD32VW55X_Wifi_BLE_SDK/GD32VW55x_RELEASE_V1.0.2/MSDK/wpa_supplicant/src/ap\neighbor_db.c **** 
  92:C:/Users/stapi/OneDrive/Desktop/GD32VW553/V1_MQTT_OK/GD32VW55X_Wifi_BLE_SDK/GD32VW55x_RELEASE_V1.0.2/MSDK/wpa_supplicant/src/ap\neighbor_db.c **** static void hostapd_neighbor_clear_entry(struct hostapd_neighbor_entry *nr)
  93:C:/Users/stapi/OneDrive/Desktop/GD32VW553/V1_MQTT_OK/GD32VW55X_Wifi_BLE_SDK/GD32VW55x_RELEASE_V1.0.2/MSDK/wpa_supplicant/src/ap\neighbor_db.c **** {
  15              		.loc 1 93 1
  16              		.cfi_startproc
  17              	.LVL0:
  18 0000 17030000 		call	t0,__riscv_save_1
  18      E7020300 
  19              		.cfi_offset 8, -8
  20              		.cfi_offset 1, -4
  21              		.cfi_def_cfa_offset 16
  94:C:/Users/stapi/OneDrive/Desktop/GD32VW553/V1_MQTT_OK/GD32VW55X_Wifi_BLE_SDK/GD32VW55x_RELEASE_V1.0.2/MSDK/wpa_supplicant/src/ap\neighbor_db.c **** 	wpabuf_free(nr->nr);
  22              		.loc 1 94 2
  93:C:/Users/stapi/OneDrive/Desktop/GD32VW553/V1_MQTT_OK/GD32VW55X_Wifi_BLE_SDK/GD32VW55x_RELEASE_V1.0.2/MSDK/wpa_supplicant/src/ap\neighbor_db.c **** 	wpabuf_free(nr->nr);
  23              		.loc 1 93 1 is_stmt 0
  24 0008 2A84     		mv	s0,a0
  25              		.loc 1 94 2
  26 000a 4859     		lw	a0,52(a0)
  27              	.LVL1:
  28 000c 97000000 		call	wpabuf_free
  28      E7800000 
  29              	.LVL2:
  95:C:/Users/stapi/OneDrive/Desktop/GD32VW553/V1_MQTT_OK/GD32VW55X_Wifi_BLE_SDK/GD32VW55x_RELEASE_V1.0.2/MSDK/wpa_supplicant/src/ap\neighbor_db.c **** 	nr->nr = NULL;
  30              		.loc 1 95 2 is_stmt 1
  96:C:/Users/stapi/OneDrive/Desktop/GD32VW553/V1_MQTT_OK/GD32VW55X_Wifi_BLE_SDK/GD32VW55x_RELEASE_V1.0.2/MSDK/wpa_supplicant/src/ap\neighbor_db.c **** 	wpabuf_free(nr->lci);
  31              		.loc 1 96 2 is_stmt 0
  32 0014 085C     		lw	a0,56(s0)
  95:C:/Users/stapi/OneDrive/Desktop/GD32VW553/V1_MQTT_OK/GD32VW55X_Wifi_BLE_SDK/GD32VW55x_RELEASE_V1.0.2/MSDK/wpa_supplicant/src/ap\neighbor_db.c **** 	nr->nr = NULL;
  33              		.loc 1 95 9
  34 0016 232A0402 		sw	zero,52(s0)
  35              		.loc 1 96 2 is_stmt 1
  36 001a 97000000 		call	wpabuf_free
  36      E7800000 
  37              	.LVL3:
  97:C:/Users/stapi/OneDrive/Desktop/GD32VW553/V1_MQTT_OK/GD32VW55X_Wifi_BLE_SDK/GD32VW55x_RELEASE_V1.0.2/MSDK/wpa_supplicant/src/ap\neighbor_db.c **** 	nr->lci = NULL;
  38              		.loc 1 97 2
  98:C:/Users/stapi/OneDrive/Desktop/GD32VW553/V1_MQTT_OK/GD32VW55X_Wifi_BLE_SDK/GD32VW55x_RELEASE_V1.0.2/MSDK/wpa_supplicant/src/ap\neighbor_db.c **** 	wpabuf_free(nr->civic);
  39              		.loc 1 98 2 is_stmt 0
  40 0022 485C     		lw	a0,60(s0)
  97:C:/Users/stapi/OneDrive/Desktop/GD32VW553/V1_MQTT_OK/GD32VW55X_Wifi_BLE_SDK/GD32VW55x_RELEASE_V1.0.2/MSDK/wpa_supplicant/src/ap\neighbor_db.c **** 	nr->lci = NULL;
  41              		.loc 1 97 10
  42 0024 232C0402 		sw	zero,56(s0)
  43              		.loc 1 98 2 is_stmt 1
  44 0028 97000000 		call	wpabuf_free
  44      E7800000 
  45              	.LVL4:
  99:C:/Users/stapi/OneDrive/Desktop/GD32VW553/V1_MQTT_OK/GD32VW55X_Wifi_BLE_SDK/GD32VW55x_RELEASE_V1.0.2/MSDK/wpa_supplicant/src/ap\neighbor_db.c **** 	nr->civic = NULL;
  46              		.loc 1 99 2
 100:C:/Users/stapi/OneDrive/Desktop/GD32VW553/V1_MQTT_OK/GD32VW55X_Wifi_BLE_SDK/GD32VW55x_RELEASE_V1.0.2/MSDK/wpa_supplicant/src/ap\neighbor_db.c **** 	os_memset(nr->bssid, 0, sizeof(nr->bssid));
  47              		.loc 1 100 2 is_stmt 0
  48 0030 1946     		li	a2,6
  99:C:/Users/stapi/OneDrive/Desktop/GD32VW553/V1_MQTT_OK/GD32VW55X_Wifi_BLE_SDK/GD32VW55x_RELEASE_V1.0.2/MSDK/wpa_supplicant/src/ap\neighbor_db.c **** 	nr->civic = NULL;
  49              		.loc 1 99 12
  50 0032 232E0402 		sw	zero,60(s0)
  51              		.loc 1 100 2 is_stmt 1
  52 0036 8145     		li	a1,0
  53 0038 13058400 		addi	a0,s0,8
  54 003c 97000000 		call	os_memset
  54      E7800000 
  55              	.LVL5:
 101:C:/Users/stapi/OneDrive/Desktop/GD32VW553/V1_MQTT_OK/GD32VW55X_Wifi_BLE_SDK/GD32VW55x_RELEASE_V1.0.2/MSDK/wpa_supplicant/src/ap\neighbor_db.c **** 	os_memset(&nr->ssid, 0, sizeof(nr->ssid));
  56              		.loc 1 101 2
  57 0044 13064002 		li	a2,36
  58 0048 8145     		li	a1,0
  59 004a 13050401 		addi	a0,s0,16
  60 004e 97000000 		call	os_memset
  60      E7800000 
  61              	.LVL6:
 102:C:/Users/stapi/OneDrive/Desktop/GD32VW553/V1_MQTT_OK/GD32VW55X_Wifi_BLE_SDK/GD32VW55x_RELEASE_V1.0.2/MSDK/wpa_supplicant/src/ap\neighbor_db.c **** 	nr->stationary = 0;
  62              		.loc 1 102 2
  63              		.loc 1 102 17 is_stmt 0
  64 0056 23240404 		sw	zero,72(s0)
 103:C:/Users/stapi/OneDrive/Desktop/GD32VW553/V1_MQTT_OK/GD32VW55X_Wifi_BLE_SDK/GD32VW55x_RELEASE_V1.0.2/MSDK/wpa_supplicant/src/ap\neighbor_db.c **** }
  65              		.loc 1 103 1
  66 005a 17030000 		tail	__riscv_restore_1
  66      67000300 
  67              		.cfi_restore 8
  68              		.cfi_restore 1
  69              		.cfi_def_cfa_offset 0
  70              		.cfi_endproc
  71              	.LFE139:
  73              		.section	.text.wpabuf_put_u8,"ax",@progbits
  74              		.align	1
  76              	wpabuf_put_u8:
  77              	.LFB53:
  78              		.file 2 "..\\..\\..\\..\\wpa_supplicant\\src/utils/wpabuf.h"
   1:..\..\..\..\wpa_supplicant\src/utils/wpabuf.h **** /*
   2:..\..\..\..\wpa_supplicant\src/utils/wpabuf.h ****  * Dynamic data buffer
   3:..\..\..\..\wpa_supplicant\src/utils/wpabuf.h ****  * Copyright (c) 2007-2012, Jouni Malinen <j@w1.fi>
   4:..\..\..\..\wpa_supplicant\src/utils/wpabuf.h ****  *
   5:..\..\..\..\wpa_supplicant\src/utils/wpabuf.h ****  * This software may be distributed under the terms of the BSD license.
   6:..\..\..\..\wpa_supplicant\src/utils/wpabuf.h ****  * See README for more details.
   7:..\..\..\..\wpa_supplicant\src/utils/wpabuf.h ****  */
   8:..\..\..\..\wpa_supplicant\src/utils/wpabuf.h **** 
   9:..\..\..\..\wpa_supplicant\src/utils/wpabuf.h **** #ifndef WPABUF_H
  10:..\..\..\..\wpa_supplicant\src/utils/wpabuf.h **** #define WPABUF_H
  11:..\..\..\..\wpa_supplicant\src/utils/wpabuf.h **** 
  12:..\..\..\..\wpa_supplicant\src/utils/wpabuf.h **** /* wpabuf::buf is a pointer to external data */
  13:..\..\..\..\wpa_supplicant\src/utils/wpabuf.h **** #define WPABUF_FLAG_EXT_DATA BIT(0)
  14:..\..\..\..\wpa_supplicant\src/utils/wpabuf.h **** 
  15:..\..\..\..\wpa_supplicant\src/utils/wpabuf.h **** /*
  16:..\..\..\..\wpa_supplicant\src/utils/wpabuf.h ****  * Internal data structure for wpabuf. Please do not touch this directly from
  17:..\..\..\..\wpa_supplicant\src/utils/wpabuf.h ****  * elsewhere. This is only defined in header file to allow inline functions
  18:..\..\..\..\wpa_supplicant\src/utils/wpabuf.h ****  * from this file to access data.
  19:..\..\..\..\wpa_supplicant\src/utils/wpabuf.h ****  */
  20:..\..\..\..\wpa_supplicant\src/utils/wpabuf.h **** struct wpabuf {
  21:..\..\..\..\wpa_supplicant\src/utils/wpabuf.h **** 	size_t size; /* total size of the allocated buffer */
  22:..\..\..\..\wpa_supplicant\src/utils/wpabuf.h **** 	size_t used; /* length of data in the buffer */
  23:..\..\..\..\wpa_supplicant\src/utils/wpabuf.h **** 	u8 *buf; /* pointer to the head of the buffer */
  24:..\..\..\..\wpa_supplicant\src/utils/wpabuf.h **** 	unsigned int flags;
  25:..\..\..\..\wpa_supplicant\src/utils/wpabuf.h **** 	/* optionally followed by the allocated buffer */
  26:..\..\..\..\wpa_supplicant\src/utils/wpabuf.h **** };
  27:..\..\..\..\wpa_supplicant\src/utils/wpabuf.h **** 
  28:..\..\..\..\wpa_supplicant\src/utils/wpabuf.h **** 
  29:..\..\..\..\wpa_supplicant\src/utils/wpabuf.h **** int wpabuf_resize(struct wpabuf **buf, size_t add_len);
  30:..\..\..\..\wpa_supplicant\src/utils/wpabuf.h **** struct wpabuf * wpabuf_alloc(size_t len);
  31:..\..\..\..\wpa_supplicant\src/utils/wpabuf.h **** struct wpabuf * wpabuf_alloc_ext_data(u8 *data, size_t len);
  32:..\..\..\..\wpa_supplicant\src/utils/wpabuf.h **** struct wpabuf * wpabuf_alloc_copy(const void *data, size_t len);
  33:..\..\..\..\wpa_supplicant\src/utils/wpabuf.h **** struct wpabuf * wpabuf_dup(const struct wpabuf *src);
  34:..\..\..\..\wpa_supplicant\src/utils/wpabuf.h **** void wpabuf_free(struct wpabuf *buf);
  35:..\..\..\..\wpa_supplicant\src/utils/wpabuf.h **** void wpabuf_clear_free(struct wpabuf *buf);
  36:..\..\..\..\wpa_supplicant\src/utils/wpabuf.h **** void * wpabuf_put(struct wpabuf *buf, size_t len);
  37:..\..\..\..\wpa_supplicant\src/utils/wpabuf.h **** struct wpabuf * wpabuf_concat(struct wpabuf *a, struct wpabuf *b);
  38:..\..\..\..\wpa_supplicant\src/utils/wpabuf.h **** struct wpabuf * wpabuf_zeropad(struct wpabuf *buf, size_t len);
  39:..\..\..\..\wpa_supplicant\src/utils/wpabuf.h **** void wpabuf_printf(struct wpabuf *buf, char *fmt, ...) PRINTF_FORMAT(2, 3);
  40:..\..\..\..\wpa_supplicant\src/utils/wpabuf.h **** struct wpabuf * wpabuf_parse_bin(const char *buf);
  41:..\..\..\..\wpa_supplicant\src/utils/wpabuf.h **** 
  42:..\..\..\..\wpa_supplicant\src/utils/wpabuf.h **** 
  43:..\..\..\..\wpa_supplicant\src/utils/wpabuf.h **** /**
  44:..\..\..\..\wpa_supplicant\src/utils/wpabuf.h ****  * wpabuf_size - Get the currently allocated size of a wpabuf buffer
  45:..\..\..\..\wpa_supplicant\src/utils/wpabuf.h ****  * @buf: wpabuf buffer
  46:..\..\..\..\wpa_supplicant\src/utils/wpabuf.h ****  * Returns: Currently allocated size of the buffer
  47:..\..\..\..\wpa_supplicant\src/utils/wpabuf.h ****  */
  48:..\..\..\..\wpa_supplicant\src/utils/wpabuf.h **** static inline size_t wpabuf_size(const struct wpabuf *buf)
  49:..\..\..\..\wpa_supplicant\src/utils/wpabuf.h **** {
  50:..\..\..\..\wpa_supplicant\src/utils/wpabuf.h **** 	return buf->size;
  51:..\..\..\..\wpa_supplicant\src/utils/wpabuf.h **** }
  52:..\..\..\..\wpa_supplicant\src/utils/wpabuf.h **** 
  53:..\..\..\..\wpa_supplicant\src/utils/wpabuf.h **** /**
  54:..\..\..\..\wpa_supplicant\src/utils/wpabuf.h ****  * wpabuf_len - Get the current length of a wpabuf buffer data
  55:..\..\..\..\wpa_supplicant\src/utils/wpabuf.h ****  * @buf: wpabuf buffer
  56:..\..\..\..\wpa_supplicant\src/utils/wpabuf.h ****  * Returns: Currently used length of the buffer
  57:..\..\..\..\wpa_supplicant\src/utils/wpabuf.h ****  */
  58:..\..\..\..\wpa_supplicant\src/utils/wpabuf.h **** static inline size_t wpabuf_len(const struct wpabuf *buf)
  59:..\..\..\..\wpa_supplicant\src/utils/wpabuf.h **** {
  60:..\..\..\..\wpa_supplicant\src/utils/wpabuf.h **** 	return buf->used;
  61:..\..\..\..\wpa_supplicant\src/utils/wpabuf.h **** }
  62:..\..\..\..\wpa_supplicant\src/utils/wpabuf.h **** 
  63:..\..\..\..\wpa_supplicant\src/utils/wpabuf.h **** /**
  64:..\..\..\..\wpa_supplicant\src/utils/wpabuf.h ****  * wpabuf_tailroom - Get size of available tail room in the end of the buffer
  65:..\..\..\..\wpa_supplicant\src/utils/wpabuf.h ****  * @buf: wpabuf buffer
  66:..\..\..\..\wpa_supplicant\src/utils/wpabuf.h ****  * Returns: Tail room (in bytes) of available space in the end of the buffer
  67:..\..\..\..\wpa_supplicant\src/utils/wpabuf.h ****  */
  68:..\..\..\..\wpa_supplicant\src/utils/wpabuf.h **** static inline size_t wpabuf_tailroom(const struct wpabuf *buf)
  69:..\..\..\..\wpa_supplicant\src/utils/wpabuf.h **** {
  70:..\..\..\..\wpa_supplicant\src/utils/wpabuf.h **** 	return buf->size - buf->used;
  71:..\..\..\..\wpa_supplicant\src/utils/wpabuf.h **** }
  72:..\..\..\..\wpa_supplicant\src/utils/wpabuf.h **** 
  73:..\..\..\..\wpa_supplicant\src/utils/wpabuf.h **** /**
  74:..\..\..\..\wpa_supplicant\src/utils/wpabuf.h ****  * wpabuf_cmp - Check if two buffers contain the same data
  75:..\..\..\..\wpa_supplicant\src/utils/wpabuf.h ****  * @a: wpabuf buffer
  76:..\..\..\..\wpa_supplicant\src/utils/wpabuf.h ****  * @b: wpabuf buffer
  77:..\..\..\..\wpa_supplicant\src/utils/wpabuf.h ****  * Returns: 0 if the two buffers contain the same data and non-zero otherwise
  78:..\..\..\..\wpa_supplicant\src/utils/wpabuf.h ****  */
  79:..\..\..\..\wpa_supplicant\src/utils/wpabuf.h **** static inline int wpabuf_cmp(const struct wpabuf *a, const struct wpabuf *b)
  80:..\..\..\..\wpa_supplicant\src/utils/wpabuf.h **** {
  81:..\..\..\..\wpa_supplicant\src/utils/wpabuf.h **** 	if (!a && !b)
  82:..\..\..\..\wpa_supplicant\src/utils/wpabuf.h **** 		return 0;
  83:..\..\..\..\wpa_supplicant\src/utils/wpabuf.h **** 	if (a && b && wpabuf_size(a) == wpabuf_size(b))
  84:..\..\..\..\wpa_supplicant\src/utils/wpabuf.h **** 		return os_memcmp(a->buf, b->buf, wpabuf_size(a));
  85:..\..\..\..\wpa_supplicant\src/utils/wpabuf.h **** 	return -1;
  86:..\..\..\..\wpa_supplicant\src/utils/wpabuf.h **** }
  87:..\..\..\..\wpa_supplicant\src/utils/wpabuf.h **** 
  88:..\..\..\..\wpa_supplicant\src/utils/wpabuf.h **** /**
  89:..\..\..\..\wpa_supplicant\src/utils/wpabuf.h ****  * wpabuf_head - Get pointer to the head of the buffer data
  90:..\..\..\..\wpa_supplicant\src/utils/wpabuf.h ****  * @buf: wpabuf buffer
  91:..\..\..\..\wpa_supplicant\src/utils/wpabuf.h ****  * Returns: Pointer to the head of the buffer data
  92:..\..\..\..\wpa_supplicant\src/utils/wpabuf.h ****  */
  93:..\..\..\..\wpa_supplicant\src/utils/wpabuf.h **** static inline const void * wpabuf_head(const struct wpabuf *buf)
  94:..\..\..\..\wpa_supplicant\src/utils/wpabuf.h **** {
  95:..\..\..\..\wpa_supplicant\src/utils/wpabuf.h **** 	return buf->buf;
  96:..\..\..\..\wpa_supplicant\src/utils/wpabuf.h **** }
  97:..\..\..\..\wpa_supplicant\src/utils/wpabuf.h **** 
  98:..\..\..\..\wpa_supplicant\src/utils/wpabuf.h **** static inline const u8 * wpabuf_head_u8(const struct wpabuf *buf)
  99:..\..\..\..\wpa_supplicant\src/utils/wpabuf.h **** {
 100:..\..\..\..\wpa_supplicant\src/utils/wpabuf.h **** 	return (const u8 *) wpabuf_head(buf);
 101:..\..\..\..\wpa_supplicant\src/utils/wpabuf.h **** }
 102:..\..\..\..\wpa_supplicant\src/utils/wpabuf.h **** 
 103:..\..\..\..\wpa_supplicant\src/utils/wpabuf.h **** /**
 104:..\..\..\..\wpa_supplicant\src/utils/wpabuf.h ****  * wpabuf_mhead - Get modifiable pointer to the head of the buffer data
 105:..\..\..\..\wpa_supplicant\src/utils/wpabuf.h ****  * @buf: wpabuf buffer
 106:..\..\..\..\wpa_supplicant\src/utils/wpabuf.h ****  * Returns: Pointer to the head of the buffer data
 107:..\..\..\..\wpa_supplicant\src/utils/wpabuf.h ****  */
 108:..\..\..\..\wpa_supplicant\src/utils/wpabuf.h **** static inline void * wpabuf_mhead(struct wpabuf *buf)
 109:..\..\..\..\wpa_supplicant\src/utils/wpabuf.h **** {
 110:..\..\..\..\wpa_supplicant\src/utils/wpabuf.h **** 	return buf->buf;
 111:..\..\..\..\wpa_supplicant\src/utils/wpabuf.h **** }
 112:..\..\..\..\wpa_supplicant\src/utils/wpabuf.h **** 
 113:..\..\..\..\wpa_supplicant\src/utils/wpabuf.h **** static inline u8 * wpabuf_mhead_u8(struct wpabuf *buf)
 114:..\..\..\..\wpa_supplicant\src/utils/wpabuf.h **** {
 115:..\..\..\..\wpa_supplicant\src/utils/wpabuf.h **** 	return (u8 *) wpabuf_mhead(buf);
 116:..\..\..\..\wpa_supplicant\src/utils/wpabuf.h **** }
 117:..\..\..\..\wpa_supplicant\src/utils/wpabuf.h **** 
 118:..\..\..\..\wpa_supplicant\src/utils/wpabuf.h **** static inline void wpabuf_put_u8(struct wpabuf *buf, u8 data)
 119:..\..\..\..\wpa_supplicant\src/utils/wpabuf.h **** {
  79              		.loc 2 119 1 is_stmt 1
  80              		.cfi_startproc
  81              	.LVL7:
  82 0000 17030000 		call	t0,__riscv_save_1
  82      E7020300 
  83              		.cfi_offset 8, -8
  84              		.cfi_offset 1, -4
  85              		.cfi_def_cfa_offset 16
 120:..\..\..\..\wpa_supplicant\src/utils/wpabuf.h **** 	u8 *pos = (u8 *) wpabuf_put(buf, 1);
  86              		.loc 2 120 2
 119:..\..\..\..\wpa_supplicant\src/utils/wpabuf.h **** 	u8 *pos = (u8 *) wpabuf_put(buf, 1);
  87              		.loc 2 119 1 is_stmt 0
  88 0008 2E84     		mv	s0,a1
  89              		.loc 2 120 19
  90 000a 8545     		li	a1,1
  91              	.LVL8:
  92 000c 97000000 		call	wpabuf_put
  92      E7800000 
  93              	.LVL9:
 121:..\..\..\..\wpa_supplicant\src/utils/wpabuf.h **** 	*pos = data;
  94              		.loc 2 121 2 is_stmt 1
  95              		.loc 2 121 7 is_stmt 0
  96 0014 23008500 		sb	s0,0(a0)
 122:..\..\..\..\wpa_supplicant\src/utils/wpabuf.h **** }
  97              		.loc 2 122 1
  98 0018 17030000 		tail	__riscv_restore_1
  98      67000300 
  99              		.cfi_restore 8
 100              		.cfi_restore 1
 101              		.cfi_def_cfa_offset 0
 102              		.cfi_endproc
 103              	.LFE53:
 105              		.section	.text.hostapd_neighbor_get,"ax",@progbits
 106              		.align	1
 107              		.globl	hostapd_neighbor_get
 109              	hostapd_neighbor_get:
 110              	.LFB137:
  22:C:/Users/stapi/OneDrive/Desktop/GD32VW553/V1_MQTT_OK/GD32VW55X_Wifi_BLE_SDK/GD32VW55x_RELEASE_V1.0.2/MSDK/wpa_supplicant/src/ap\neighbor_db.c **** 	struct hostapd_neighbor_entry *nr;
 111              		.loc 1 22 1 is_stmt 1
 112              		.cfi_startproc
 113              	.LVL10:
 114 0000 17030000 		call	t0,__riscv_save_4
 114      E7020300 
 115              		.cfi_offset 19, -20
 116              		.cfi_offset 18, -16
 117              		.cfi_offset 9, -12
 118              		.cfi_offset 8, -8
 119              		.cfi_offset 1, -4
 120              		.cfi_def_cfa_offset 32
  23:C:/Users/stapi/OneDrive/Desktop/GD32VW553/V1_MQTT_OK/GD32VW55X_Wifi_BLE_SDK/GD32VW55x_RELEASE_V1.0.2/MSDK/wpa_supplicant/src/ap\neighbor_db.c **** 
 121              		.loc 1 23 2
  25:C:/Users/stapi/OneDrive/Desktop/GD32VW553/V1_MQTT_OK/GD32VW55X_Wifi_BLE_SDK/GD32VW55x_RELEASE_V1.0.2/MSDK/wpa_supplicant/src/ap\neighbor_db.c **** 			 list) {
 122              		.loc 1 25 2
 123 0008 8564     		li	s1,4096
 124 000a B3079500 		add	a5,a0,s1
 125 000e 03A40786 		lw	s0,-1952(a5)
 126              	.LVL11:
 127 0012 93840486 		addi	s1,s1,-1952
  22:C:/Users/stapi/OneDrive/Desktop/GD32VW553/V1_MQTT_OK/GD32VW55X_Wifi_BLE_SDK/GD32VW55x_RELEASE_V1.0.2/MSDK/wpa_supplicant/src/ap\neighbor_db.c **** 	struct hostapd_neighbor_entry *nr;
 128              		.loc 1 22 1 is_stmt 0
 129 0016 AE89     		mv	s3,a1
 130 0018 3289     		mv	s2,a2
  25:C:/Users/stapi/OneDrive/Desktop/GD32VW553/V1_MQTT_OK/GD32VW55X_Wifi_BLE_SDK/GD32VW55x_RELEASE_V1.0.2/MSDK/wpa_supplicant/src/ap\neighbor_db.c **** 			 list) {
 131              		.loc 1 25 2
 132 001a AA94     		add	s1,a0,s1
 133              	.LVL12:
 134              	.L6:
  25:C:/Users/stapi/OneDrive/Desktop/GD32VW553/V1_MQTT_OK/GD32VW55X_Wifi_BLE_SDK/GD32VW55x_RELEASE_V1.0.2/MSDK/wpa_supplicant/src/ap\neighbor_db.c **** 			 list) {
 135              		.loc 1 25 2 is_stmt 1 discriminator 1
 136 001c 63149400 		bne	s0,s1,.L10
  34:C:/Users/stapi/OneDrive/Desktop/GD32VW553/V1_MQTT_OK/GD32VW55X_Wifi_BLE_SDK/GD32VW55x_RELEASE_V1.0.2/MSDK/wpa_supplicant/src/ap\neighbor_db.c **** }
 137              		.loc 1 34 9 is_stmt 0
 138 0020 0144     		li	s0,0
 139              	.LVL13:
 140 0022 1DA8     		j	.L5
 141              	.LVL14:
 142              	.L10:
  27:C:/Users/stapi/OneDrive/Desktop/GD32VW553/V1_MQTT_OK/GD32VW55X_Wifi_BLE_SDK/GD32VW55x_RELEASE_V1.0.2/MSDK/wpa_supplicant/src/ap\neighbor_db.c **** 		    (!ssid ||
 143              		.loc 1 27 3 is_stmt 1
  27:C:/Users/stapi/OneDrive/Desktop/GD32VW553/V1_MQTT_OK/GD32VW55X_Wifi_BLE_SDK/GD32VW55x_RELEASE_V1.0.2/MSDK/wpa_supplicant/src/ap\neighbor_db.c **** 		    (!ssid ||
 144              		.loc 1 27 7 is_stmt 0
 145 0024 1946     		li	a2,6
 146 0026 93058400 		addi	a1,s0,8
 147 002a 4E85     		mv	a0,s3
 148 002c 97000000 		call	os_memcmp
 148      E7800000 
 149              	.LVL15:
  27:C:/Users/stapi/OneDrive/Desktop/GD32VW553/V1_MQTT_OK/GD32VW55X_Wifi_BLE_SDK/GD32VW55x_RELEASE_V1.0.2/MSDK/wpa_supplicant/src/ap\neighbor_db.c **** 		    (!ssid ||
 150              		.loc 1 27 6
 151 0034 19C1     		beq	a0,zero,.L7
 152              	.L9:
  25:C:/Users/stapi/OneDrive/Desktop/GD32VW553/V1_MQTT_OK/GD32VW55X_Wifi_BLE_SDK/GD32VW55x_RELEASE_V1.0.2/MSDK/wpa_supplicant/src/ap\neighbor_db.c **** 			 list) {
 153              		.loc 1 25 2 is_stmt 1
 154 0036 0040     		lw	s0,0(s0)
 155              	.LVL16:
 156 0038 D5B7     		j	.L6
 157              	.L7:
  27:C:/Users/stapi/OneDrive/Desktop/GD32VW553/V1_MQTT_OK/GD32VW55X_Wifi_BLE_SDK/GD32VW55x_RELEASE_V1.0.2/MSDK/wpa_supplicant/src/ap\neighbor_db.c **** 		    (!ssid ||
 158              		.loc 1 27 50 is_stmt 0 discriminator 1
 159 003a 630F0900 		beq	s2,zero,.L5
  29:C:/Users/stapi/OneDrive/Desktop/GD32VW553/V1_MQTT_OK/GD32VW55X_Wifi_BLE_SDK/GD32VW55x_RELEASE_V1.0.2/MSDK/wpa_supplicant/src/ap\neighbor_db.c **** 		      os_memcmp(ssid->ssid, nr->ssid.ssid,
 160              		.loc 1 29 13
 161 003e 03260902 		lw	a2,32(s2)
  28:C:/Users/stapi/OneDrive/Desktop/GD32VW553/V1_MQTT_OK/GD32VW55X_Wifi_BLE_SDK/GD32VW55x_RELEASE_V1.0.2/MSDK/wpa_supplicant/src/ap\neighbor_db.c **** 		     (ssid->ssid_len == nr->ssid.ssid_len &&
 162              		.loc 1 28 14
 163 0042 1C58     		lw	a5,48(s0)
 164 0044 E319F6FE 		bne	a2,a5,.L9
  30:C:/Users/stapi/OneDrive/Desktop/GD32VW553/V1_MQTT_OK/GD32VW55X_Wifi_BLE_SDK/GD32VW55x_RELEASE_V1.0.2/MSDK/wpa_supplicant/src/ap\neighbor_db.c **** 				ssid->ssid_len) == 0)))
 165              		.loc 1 30 9
 166 0048 93050401 		addi	a1,s0,16
 167 004c 4A85     		mv	a0,s2
 168 004e 97000000 		call	os_memcmp
 168      E7800000 
 169              	.LVL17:
  29:C:/Users/stapi/OneDrive/Desktop/GD32VW553/V1_MQTT_OK/GD32VW55X_Wifi_BLE_SDK/GD32VW55x_RELEASE_V1.0.2/MSDK/wpa_supplicant/src/ap\neighbor_db.c **** 		      os_memcmp(ssid->ssid, nr->ssid.ssid,
 170              		.loc 1 29 45
 171 0056 65F1     		bne	a0,zero,.L9
 172              	.LVL18:
 173              	.L5:
  35:C:/Users/stapi/OneDrive/Desktop/GD32VW553/V1_MQTT_OK/GD32VW55X_Wifi_BLE_SDK/GD32VW55x_RELEASE_V1.0.2/MSDK/wpa_supplicant/src/ap\neighbor_db.c **** 
 174              		.loc 1 35 1
 175 0058 2285     		mv	a0,s0
 176 005a 17030000 		tail	__riscv_restore_4
 176      67000300 
 177              		.cfi_restore 19
 178              		.cfi_restore 18
 179              		.cfi_restore 9
 180              		.cfi_restore 8
 181              		.cfi_restore 1
 182              		.cfi_def_cfa_offset 0
 183              		.cfi_endproc
 184              	.LFE137:
 186              		.section	.rodata.hostapd_neighbor_show.str1.4,"aMS",@progbits,1
 187              		.align	2
 188              	.LC0:
 189 0000 206E723D 		.string	" nr="
 189      00
 190 0005 000000   		.align	2
 191              	.LC1:
 192 0008 00       		.string	""
 193 0009 000000   		.align	2
 194              	.LC2:
 195 000c 206C6369 		.string	" lci="
 195      3D00
 196 0012 0000     		.align	2
 197              	.LC3:
 198 0014 20636976 		.string	" civic="
 198      69633D00 
 199              		.align	2
 200              	.LC4:
 201 001c 20737461 		.string	" stat"
 201      7400
 202 0022 0000     		.align	2
 203              	.LC5:
 204 0024 25303278 		.string	"%02x:%02x:%02x:%02x:%02x:%02x ssid=%s%s%s%s%s%s%s%s\n"
 204      3A253032 
 204      783A2530 
 204      32783A25 
 204      3032783A 
 205              		.section	.text.hostapd_neighbor_show,"ax",@progbits
 206              		.align	1
 207              		.globl	hostapd_neighbor_show
 209              	hostapd_neighbor_show:
 210              	.LFB138:
  39:C:/Users/stapi/OneDrive/Desktop/GD32VW553/V1_MQTT_OK/GD32VW55X_Wifi_BLE_SDK/GD32VW55x_RELEASE_V1.0.2/MSDK/wpa_supplicant/src/ap\neighbor_db.c **** 	struct hostapd_neighbor_entry *nr;
 211              		.loc 1 39 1 is_stmt 1
 212              		.cfi_startproc
 213              	.LVL19:
 214 0000 17030000 		call	t0,__riscv_save_12
 214      E7020300 
 215              		.cfi_offset 27, -52
 216              		.cfi_offset 26, -48
 217              		.cfi_offset 25, -44
 218              		.cfi_offset 24, -40
 219              		.cfi_offset 23, -36
 220              		.cfi_offset 22, -32
 221              		.cfi_offset 21, -28
 222              		.cfi_offset 20, -24
 223              		.cfi_offset 19, -20
 224              		.cfi_offset 18, -16
 225              		.cfi_offset 9, -12
 226              		.cfi_offset 8, -8
 227              		.cfi_offset 1, -4
 228              		.cfi_def_cfa_offset 64
  40:C:/Users/stapi/OneDrive/Desktop/GD32VW553/V1_MQTT_OK/GD32VW55X_Wifi_BLE_SDK/GD32VW55x_RELEASE_V1.0.2/MSDK/wpa_supplicant/src/ap\neighbor_db.c **** 	char *pos, *end;
 229              		.loc 1 40 2
  41:C:/Users/stapi/OneDrive/Desktop/GD32VW553/V1_MQTT_OK/GD32VW55X_Wifi_BLE_SDK/GD32VW55x_RELEASE_V1.0.2/MSDK/wpa_supplicant/src/ap\neighbor_db.c **** 
 230              		.loc 1 41 2
  43:C:/Users/stapi/OneDrive/Desktop/GD32VW553/V1_MQTT_OK/GD32VW55X_Wifi_BLE_SDK/GD32VW55x_RELEASE_V1.0.2/MSDK/wpa_supplicant/src/ap\neighbor_db.c **** 	end = buf + buflen;
 231              		.loc 1 43 2
 232              	.LVL20:
  44:C:/Users/stapi/OneDrive/Desktop/GD32VW553/V1_MQTT_OK/GD32VW55X_Wifi_BLE_SDK/GD32VW55x_RELEASE_V1.0.2/MSDK/wpa_supplicant/src/ap\neighbor_db.c **** 
 233              		.loc 1 44 2
  46:C:/Users/stapi/OneDrive/Desktop/GD32VW553/V1_MQTT_OK/GD32VW55X_Wifi_BLE_SDK/GD32VW55x_RELEASE_V1.0.2/MSDK/wpa_supplicant/src/ap\neighbor_db.c **** 			 list) {
 234              		.loc 1 46 2 is_stmt 0
 235 0008 8567     		li	a5,4096
 236 000a 3307F500 		add	a4,a0,a5
 237 000e 03240786 		lw	s0,-1952(a4)
 238 0012 93870786 		addi	a5,a5,-1952
 239              	.LBB23:
  76:C:/Users/stapi/OneDrive/Desktop/GD32VW553/V1_MQTT_OK/GD32VW55X_Wifi_BLE_SDK/GD32VW55x_RELEASE_V1.0.2/MSDK/wpa_supplicant/src/ap\neighbor_db.c **** 				  " ssid=%s%s%s%s%s%s%s%s\n",
 240              		.loc 1 76 9
 241 0016 370B0000 		lui	s6,%hi(.LC0)
 242 001a 37090000 		lui	s2,%hi(.LC1)
 243 001e B70B0000 		lui	s7,%hi(.LC2)
 244              	.LBE23:
  39:C:/Users/stapi/OneDrive/Desktop/GD32VW553/V1_MQTT_OK/GD32VW55X_Wifi_BLE_SDK/GD32VW55x_RELEASE_V1.0.2/MSDK/wpa_supplicant/src/ap\neighbor_db.c **** 	struct hostapd_neighbor_entry *nr;
 245              		.loc 1 39 1
 246 0022 13010197 		addi	sp,sp,-1680
 247              		.cfi_def_cfa_offset 1744
  39:C:/Users/stapi/OneDrive/Desktop/GD32VW553/V1_MQTT_OK/GD32VW55X_Wifi_BLE_SDK/GD32VW55x_RELEASE_V1.0.2/MSDK/wpa_supplicant/src/ap\neighbor_db.c **** 	struct hostapd_neighbor_entry *nr;
 248              		.loc 1 39 1
 249 0026 AE89     		mv	s3,a1
  44:C:/Users/stapi/OneDrive/Desktop/GD32VW553/V1_MQTT_OK/GD32VW55X_Wifi_BLE_SDK/GD32VW55x_RELEASE_V1.0.2/MSDK/wpa_supplicant/src/ap\neighbor_db.c **** 
 250              		.loc 1 44 6
 251 0028 B38AC500 		add	s5,a1,a2
 252              	.LVL21:
  46:C:/Users/stapi/OneDrive/Desktop/GD32VW553/V1_MQTT_OK/GD32VW55X_Wifi_BLE_SDK/GD32VW55x_RELEASE_V1.0.2/MSDK/wpa_supplicant/src/ap\neighbor_db.c **** 			 list) {
 253              		.loc 1 46 2 is_stmt 1
  43:C:/Users/stapi/OneDrive/Desktop/GD32VW553/V1_MQTT_OK/GD32VW55X_Wifi_BLE_SDK/GD32VW55x_RELEASE_V1.0.2/MSDK/wpa_supplicant/src/ap\neighbor_db.c **** 	end = buf + buflen;
 254              		.loc 1 43 6 is_stmt 0
 255 002c 2E8A     		mv	s4,a1
  46:C:/Users/stapi/OneDrive/Desktop/GD32VW553/V1_MQTT_OK/GD32VW55X_Wifi_BLE_SDK/GD32VW55x_RELEASE_V1.0.2/MSDK/wpa_supplicant/src/ap\neighbor_db.c **** 			 list) {
 256              		.loc 1 46 2
 257 002e B304F500 		add	s1,a0,a5
 258              	.LBB38:
  76:C:/Users/stapi/OneDrive/Desktop/GD32VW553/V1_MQTT_OK/GD32VW55X_Wifi_BLE_SDK/GD32VW55x_RELEASE_V1.0.2/MSDK/wpa_supplicant/src/ap\neighbor_db.c **** 				  " ssid=%s%s%s%s%s%s%s%s\n",
 259              		.loc 1 76 9
 260 0032 130B0B00 		addi	s6,s6,%lo(.LC0)
 261 0036 13090900 		addi	s2,s2,%lo(.LC1)
 262 003a 938B0B00 		addi	s7,s7,%lo(.LC2)
 263 003e B70C0000 		lui	s9,%hi(.LC3)
 264              	.LVL22:
 265              	.L19:
 266              	.LBE38:
  46:C:/Users/stapi/OneDrive/Desktop/GD32VW553/V1_MQTT_OK/GD32VW55X_Wifi_BLE_SDK/GD32VW55x_RELEASE_V1.0.2/MSDK/wpa_supplicant/src/ap\neighbor_db.c **** 			 list) {
 267              		.loc 1 46 2 is_stmt 1 discriminator 1
 268 0042 631A9400 		bne	s0,s1,.L29
 269              	.L28:
  88:C:/Users/stapi/OneDrive/Desktop/GD32VW553/V1_MQTT_OK/GD32VW55X_Wifi_BLE_SDK/GD32VW55x_RELEASE_V1.0.2/MSDK/wpa_supplicant/src/ap\neighbor_db.c **** }
 270              		.loc 1 88 2
  89:C:/Users/stapi/OneDrive/Desktop/GD32VW553/V1_MQTT_OK/GD32VW55X_Wifi_BLE_SDK/GD32VW55x_RELEASE_V1.0.2/MSDK/wpa_supplicant/src/ap\neighbor_db.c **** 
 271              		.loc 1 89 1 is_stmt 0
 272 0046 33053A41 		sub	a0,s4,s3
 273 004a 13010169 		addi	sp,sp,1680
 274              		.cfi_remember_state
 275              		.cfi_def_cfa_offset 0
 276 004e 17030000 		tail	__riscv_restore_12
 276      67000300 
 277              		.cfi_restore 27
 278              		.cfi_restore 26
 279              		.cfi_restore 25
 280              		.cfi_restore 24
 281              		.cfi_restore 23
 282              		.cfi_restore 22
 283              		.cfi_restore 21
 284              		.cfi_restore 20
 285              		.cfi_restore 19
 286              		.cfi_restore 18
 287              		.cfi_restore 9
 288              		.cfi_restore 8
 289              		.cfi_restore 1
 290              		.cfi_def_cfa_offset -64
 291              	.L29:
 292              		.cfi_restore_state
 293              	.LBB39:
  48:C:/Users/stapi/OneDrive/Desktop/GD32VW553/V1_MQTT_OK/GD32VW55X_Wifi_BLE_SDK/GD32VW55x_RELEASE_V1.0.2/MSDK/wpa_supplicant/src/ap\neighbor_db.c **** 		char nrie[2 * 255 + 1];
 294              		.loc 1 48 3 is_stmt 1
  49:C:/Users/stapi/OneDrive/Desktop/GD32VW553/V1_MQTT_OK/GD32VW55X_Wifi_BLE_SDK/GD32VW55x_RELEASE_V1.0.2/MSDK/wpa_supplicant/src/ap\neighbor_db.c **** 		char lci[2 * 255 + 1];
 295              		.loc 1 49 3
  50:C:/Users/stapi/OneDrive/Desktop/GD32VW553/V1_MQTT_OK/GD32VW55X_Wifi_BLE_SDK/GD32VW55x_RELEASE_V1.0.2/MSDK/wpa_supplicant/src/ap\neighbor_db.c **** 		char civic[2 * 255 + 1];
 296              		.loc 1 50 3
  51:C:/Users/stapi/OneDrive/Desktop/GD32VW553/V1_MQTT_OK/GD32VW55X_Wifi_BLE_SDK/GD32VW55x_RELEASE_V1.0.2/MSDK/wpa_supplicant/src/ap\neighbor_db.c **** 		char ssid[SSID_MAX_LEN * 2 + 1];
 297              		.loc 1 51 3
  52:C:/Users/stapi/OneDrive/Desktop/GD32VW553/V1_MQTT_OK/GD32VW55X_Wifi_BLE_SDK/GD32VW55x_RELEASE_V1.0.2/MSDK/wpa_supplicant/src/ap\neighbor_db.c **** 
 298              		.loc 1 52 3
  54:C:/Users/stapi/OneDrive/Desktop/GD32VW553/V1_MQTT_OK/GD32VW55X_Wifi_BLE_SDK/GD32VW55x_RELEASE_V1.0.2/MSDK/wpa_supplicant/src/ap\neighbor_db.c **** 		wpa_snprintf_hex(ssid, sizeof(ssid), nr->ssid.ssid,
 299              		.loc 1 54 3
  55:C:/Users/stapi/OneDrive/Desktop/GD32VW553/V1_MQTT_OK/GD32VW55X_Wifi_BLE_SDK/GD32VW55x_RELEASE_V1.0.2/MSDK/wpa_supplicant/src/ap\neighbor_db.c **** 				 nr->ssid.ssid_len);
 300              		.loc 1 55 3 is_stmt 0
 301 0056 1458     		lw	a3,48(s0)
 302 0058 130CC104 		addi	s8,sp,76
 303 005c 13060401 		addi	a2,s0,16
 304 0060 93051004 		li	a1,65
 305 0064 6285     		mv	a0,s8
  54:C:/Users/stapi/OneDrive/Desktop/GD32VW553/V1_MQTT_OK/GD32VW55X_Wifi_BLE_SDK/GD32VW55x_RELEASE_V1.0.2/MSDK/wpa_supplicant/src/ap\neighbor_db.c **** 		wpa_snprintf_hex(ssid, sizeof(ssid), nr->ssid.ssid,
 306              		.loc 1 54 11
 307 0066 23060104 		sb	zero,76(sp)
  55:C:/Users/stapi/OneDrive/Desktop/GD32VW553/V1_MQTT_OK/GD32VW55X_Wifi_BLE_SDK/GD32VW55x_RELEASE_V1.0.2/MSDK/wpa_supplicant/src/ap\neighbor_db.c **** 				 nr->ssid.ssid_len);
 308              		.loc 1 55 3 is_stmt 1
 309 006a 97000000 		call	wpa_snprintf_hex
 309      E7800000 
 310              	.LVL23:
  58:C:/Users/stapi/OneDrive/Desktop/GD32VW553/V1_MQTT_OK/GD32VW55X_Wifi_BLE_SDK/GD32VW55x_RELEASE_V1.0.2/MSDK/wpa_supplicant/src/ap\neighbor_db.c **** 		if (nr->nr)
 311              		.loc 1 58 3
  59:C:/Users/stapi/OneDrive/Desktop/GD32VW553/V1_MQTT_OK/GD32VW55X_Wifi_BLE_SDK/GD32VW55x_RELEASE_V1.0.2/MSDK/wpa_supplicant/src/ap\neighbor_db.c **** 			wpa_snprintf_hex(nrie, sizeof(nrie),
 312              		.loc 1 59 9 is_stmt 0
 313 0072 5C58     		lw	a5,52(s0)
  58:C:/Users/stapi/OneDrive/Desktop/GD32VW553/V1_MQTT_OK/GD32VW55X_Wifi_BLE_SDK/GD32VW55x_RELEASE_V1.0.2/MSDK/wpa_supplicant/src/ap\neighbor_db.c **** 		if (nr->nr)
 314              		.loc 1 58 11
 315 0074 23080108 		sb	zero,144(sp)
  59:C:/Users/stapi/OneDrive/Desktop/GD32VW553/V1_MQTT_OK/GD32VW55X_Wifi_BLE_SDK/GD32VW55x_RELEASE_V1.0.2/MSDK/wpa_supplicant/src/ap\neighbor_db.c **** 			wpa_snprintf_hex(nrie, sizeof(nrie),
 316              		.loc 1 59 3 is_stmt 1
 317 0078 130D0109 		addi	s10,sp,144
  59:C:/Users/stapi/OneDrive/Desktop/GD32VW553/V1_MQTT_OK/GD32VW55X_Wifi_BLE_SDK/GD32VW55x_RELEASE_V1.0.2/MSDK/wpa_supplicant/src/ap\neighbor_db.c **** 			wpa_snprintf_hex(nrie, sizeof(nrie),
 318              		.loc 1 59 6 is_stmt 0
 319 007c 91CB     		beq	a5,zero,.L20
  60:C:/Users/stapi/OneDrive/Desktop/GD32VW553/V1_MQTT_OK/GD32VW55X_Wifi_BLE_SDK/GD32VW55x_RELEASE_V1.0.2/MSDK/wpa_supplicant/src/ap\neighbor_db.c **** 					 wpabuf_head(nr->nr),
 320              		.loc 1 60 4 is_stmt 1
 321              	.LVL24:
 322              	.LBB24:
 323              	.LBB25:
  95:..\..\..\..\wpa_supplicant\src/utils/wpabuf.h **** }
 324              		.loc 2 95 2
 325              	.LBE25:
 326              	.LBE24:
 327              	.LBB26:
 328              	.LBB27:
  60:..\..\..\..\wpa_supplicant\src/utils/wpabuf.h **** }
 329              		.loc 2 60 2
 330              	.LBE27:
 331              	.LBE26:
  60:C:/Users/stapi/OneDrive/Desktop/GD32VW553/V1_MQTT_OK/GD32VW55X_Wifi_BLE_SDK/GD32VW55x_RELEASE_V1.0.2/MSDK/wpa_supplicant/src/ap\neighbor_db.c **** 					 wpabuf_head(nr->nr),
 332              		.loc 1 60 4 is_stmt 0
 333 007e D443     		lw	a3,4(a5)
 334 0080 9047     		lw	a2,8(a5)
 335 0082 9305F01F 		li	a1,511
 336 0086 6A85     		mv	a0,s10
 337 0088 97000000 		call	wpa_snprintf_hex
 337      E7800000 
 338              	.LVL25:
 339              	.L20:
  64:C:/Users/stapi/OneDrive/Desktop/GD32VW553/V1_MQTT_OK/GD32VW55X_Wifi_BLE_SDK/GD32VW55x_RELEASE_V1.0.2/MSDK/wpa_supplicant/src/ap\neighbor_db.c **** 		if (nr->lci)
 340              		.loc 1 64 3 is_stmt 1
  65:C:/Users/stapi/OneDrive/Desktop/GD32VW553/V1_MQTT_OK/GD32VW55X_Wifi_BLE_SDK/GD32VW55x_RELEASE_V1.0.2/MSDK/wpa_supplicant/src/ap\neighbor_db.c **** 			wpa_snprintf_hex(lci, sizeof(lci),
 341              		.loc 1 65 9 is_stmt 0
 342 0090 1C5C     		lw	a5,56(s0)
  64:C:/Users/stapi/OneDrive/Desktop/GD32VW553/V1_MQTT_OK/GD32VW55X_Wifi_BLE_SDK/GD32VW55x_RELEASE_V1.0.2/MSDK/wpa_supplicant/src/ap\neighbor_db.c **** 		if (nr->lci)
 343              		.loc 1 64 10
 344 0092 23080128 		sb	zero,656(sp)
  65:C:/Users/stapi/OneDrive/Desktop/GD32VW553/V1_MQTT_OK/GD32VW55X_Wifi_BLE_SDK/GD32VW55x_RELEASE_V1.0.2/MSDK/wpa_supplicant/src/ap\neighbor_db.c **** 			wpa_snprintf_hex(lci, sizeof(lci),
 345              		.loc 1 65 3 is_stmt 1
 346 0096 930D0129 		addi	s11,sp,656
  65:C:/Users/stapi/OneDrive/Desktop/GD32VW553/V1_MQTT_OK/GD32VW55X_Wifi_BLE_SDK/GD32VW55x_RELEASE_V1.0.2/MSDK/wpa_supplicant/src/ap\neighbor_db.c **** 			wpa_snprintf_hex(lci, sizeof(lci),
 347              		.loc 1 65 6 is_stmt 0
 348 009a 91CB     		beq	a5,zero,.L21
  66:C:/Users/stapi/OneDrive/Desktop/GD32VW553/V1_MQTT_OK/GD32VW55X_Wifi_BLE_SDK/GD32VW55x_RELEASE_V1.0.2/MSDK/wpa_supplicant/src/ap\neighbor_db.c **** 					 wpabuf_head(nr->lci),
 349              		.loc 1 66 4 is_stmt 1
 350              	.LVL26:
 351              	.LBB28:
 352              	.LBB29:
  95:..\..\..\..\wpa_supplicant\src/utils/wpabuf.h **** }
 353              		.loc 2 95 2
 354              	.LBE29:
 355              	.LBE28:
 356              	.LBB30:
 357              	.LBB31:
  60:..\..\..\..\wpa_supplicant\src/utils/wpabuf.h **** }
 358              		.loc 2 60 2
 359              	.LBE31:
 360              	.LBE30:
  66:C:/Users/stapi/OneDrive/Desktop/GD32VW553/V1_MQTT_OK/GD32VW55X_Wifi_BLE_SDK/GD32VW55x_RELEASE_V1.0.2/MSDK/wpa_supplicant/src/ap\neighbor_db.c **** 					 wpabuf_head(nr->lci),
 361              		.loc 1 66 4 is_stmt 0
 362 009c D443     		lw	a3,4(a5)
 363 009e 9047     		lw	a2,8(a5)
 364 00a0 9305F01F 		li	a1,511
 365 00a4 6E85     		mv	a0,s11
 366 00a6 97000000 		call	wpa_snprintf_hex
 366      E7800000 
 367              	.LVL27:
 368              	.L21:
  70:C:/Users/stapi/OneDrive/Desktop/GD32VW553/V1_MQTT_OK/GD32VW55X_Wifi_BLE_SDK/GD32VW55x_RELEASE_V1.0.2/MSDK/wpa_supplicant/src/ap\neighbor_db.c **** 		if (nr->civic)
 369              		.loc 1 70 3 is_stmt 1
  71:C:/Users/stapi/OneDrive/Desktop/GD32VW553/V1_MQTT_OK/GD32VW55X_Wifi_BLE_SDK/GD32VW55x_RELEASE_V1.0.2/MSDK/wpa_supplicant/src/ap\neighbor_db.c **** 			wpa_snprintf_hex(civic, sizeof(civic),
 370              		.loc 1 71 9 is_stmt 0
 371 00ae 5C5C     		lw	a5,60(s0)
  70:C:/Users/stapi/OneDrive/Desktop/GD32VW553/V1_MQTT_OK/GD32VW55X_Wifi_BLE_SDK/GD32VW55x_RELEASE_V1.0.2/MSDK/wpa_supplicant/src/ap\neighbor_db.c **** 		if (nr->civic)
 372              		.loc 1 70 12
 373 00b0 23080148 		sb	zero,1168(sp)
  71:C:/Users/stapi/OneDrive/Desktop/GD32VW553/V1_MQTT_OK/GD32VW55X_Wifi_BLE_SDK/GD32VW55x_RELEASE_V1.0.2/MSDK/wpa_supplicant/src/ap\neighbor_db.c **** 			wpa_snprintf_hex(civic, sizeof(civic),
 374              		.loc 1 71 3 is_stmt 1
 375 00b4 930E0149 		addi	t4,sp,1168
  71:C:/Users/stapi/OneDrive/Desktop/GD32VW553/V1_MQTT_OK/GD32VW55X_Wifi_BLE_SDK/GD32VW55x_RELEASE_V1.0.2/MSDK/wpa_supplicant/src/ap\neighbor_db.c **** 			wpa_snprintf_hex(civic, sizeof(civic),
 376              		.loc 1 71 6 is_stmt 0
 377 00b8 81CF     		beq	a5,zero,.L22
  72:C:/Users/stapi/OneDrive/Desktop/GD32VW553/V1_MQTT_OK/GD32VW55X_Wifi_BLE_SDK/GD32VW55x_RELEASE_V1.0.2/MSDK/wpa_supplicant/src/ap\neighbor_db.c **** 					 wpabuf_head(nr->civic),
 378              		.loc 1 72 4 is_stmt 1
 379              	.LVL28:
 380              	.LBB32:
 381              	.LBB33:
  95:..\..\..\..\wpa_supplicant\src/utils/wpabuf.h **** }
 382              		.loc 2 95 2
 383              	.LBE33:
 384              	.LBE32:
 385              	.LBB34:
 386              	.LBB35:
  60:..\..\..\..\wpa_supplicant\src/utils/wpabuf.h **** }
 387              		.loc 2 60 2
 388              	.LBE35:
 389              	.LBE34:
  72:C:/Users/stapi/OneDrive/Desktop/GD32VW553/V1_MQTT_OK/GD32VW55X_Wifi_BLE_SDK/GD32VW55x_RELEASE_V1.0.2/MSDK/wpa_supplicant/src/ap\neighbor_db.c **** 					 wpabuf_head(nr->civic),
 390              		.loc 1 72 4 is_stmt 0
 391 00ba D443     		lw	a3,4(a5)
 392 00bc 9047     		lw	a2,8(a5)
 393 00be 7685     		mv	a0,t4
 394 00c0 9305F01F 		li	a1,511
 395 00c4 97000000 		call	wpa_snprintf_hex
 395      E7800000 
 396              	.LVL29:
 397 00cc 930E0149 		addi	t4,sp,1168
 398              	.L22:
  76:C:/Users/stapi/OneDrive/Desktop/GD32VW553/V1_MQTT_OK/GD32VW55X_Wifi_BLE_SDK/GD32VW55x_RELEASE_V1.0.2/MSDK/wpa_supplicant/src/ap\neighbor_db.c **** 				  " ssid=%s%s%s%s%s%s%s%s\n",
 399              		.loc 1 76 3 is_stmt 1
  76:C:/Users/stapi/OneDrive/Desktop/GD32VW553/V1_MQTT_OK/GD32VW55X_Wifi_BLE_SDK/GD32VW55x_RELEASE_V1.0.2/MSDK/wpa_supplicant/src/ap\neighbor_db.c **** 				  " ssid=%s%s%s%s%s%s%s%s\n",
 400              		.loc 1 76 9 is_stmt 0
 401 00d0 5058     		lw	a2,52(s0)
 402 00d2 83468400 		lbu	a3,8(s0)
 403 00d6 03479400 		lbu	a4,9(s0)
 404 00da 8347A400 		lbu	a5,10(s0)
 405 00de 0348B400 		lbu	a6,11(s0)
 406 00e2 8348C400 		lbu	a7,12(s0)
 407 00e6 034FD400 		lbu	t5,13(s0)
  76:C:/Users/stapi/OneDrive/Desktop/GD32VW553/V1_MQTT_OK/GD32VW55X_Wifi_BLE_SDK/GD32VW55x_RELEASE_V1.0.2/MSDK/wpa_supplicant/src/ap\neighbor_db.c **** 				  " ssid=%s%s%s%s%s%s%s%s\n",
 408              		.loc 1 76 30
 409 00ea B3854A41 		sub	a1,s5,s4
  76:C:/Users/stapi/OneDrive/Desktop/GD32VW553/V1_MQTT_OK/GD32VW55X_Wifi_BLE_SDK/GD32VW55x_RELEASE_V1.0.2/MSDK/wpa_supplicant/src/ap\neighbor_db.c **** 				  " ssid=%s%s%s%s%s%s%s%s\n",
 410              		.loc 1 76 9
 411 00ee 5A85     		mv	a0,s6
 412 00f0 11E2     		bne	a2,zero,.L23
 413 00f2 4A85     		mv	a0,s2
 414              	.L23:
  76:C:/Users/stapi/OneDrive/Desktop/GD32VW553/V1_MQTT_OK/GD32VW55X_Wifi_BLE_SDK/GD32VW55x_RELEASE_V1.0.2/MSDK/wpa_supplicant/src/ap\neighbor_db.c **** 				  " ssid=%s%s%s%s%s%s%s%s\n",
 415              		.loc 1 76 9 discriminator 4
 416 00f4 105C     		lw	a2,56(s0)
 417 00f6 5E83     		mv	t1,s7
 418 00f8 11E2     		bne	a2,zero,.L24
  76:C:/Users/stapi/OneDrive/Desktop/GD32VW553/V1_MQTT_OK/GD32VW55X_Wifi_BLE_SDK/GD32VW55x_RELEASE_V1.0.2/MSDK/wpa_supplicant/src/ap\neighbor_db.c **** 				  " ssid=%s%s%s%s%s%s%s%s\n",
 419              		.loc 1 76 9
 420 00fa 4A83     		mv	t1,s2
 421              	.L24:
  76:C:/Users/stapi/OneDrive/Desktop/GD32VW553/V1_MQTT_OK/GD32VW55X_Wifi_BLE_SDK/GD32VW55x_RELEASE_V1.0.2/MSDK/wpa_supplicant/src/ap\neighbor_db.c **** 				  " ssid=%s%s%s%s%s%s%s%s\n",
 422              		.loc 1 76 9 discriminator 8
 423 00fc 505C     		lw	a2,60(s0)
 424 00fe 138E0C00 		addi	t3,s9,%lo(.LC3)
 425 0102 11E2     		bne	a2,zero,.L25
  76:C:/Users/stapi/OneDrive/Desktop/GD32VW553/V1_MQTT_OK/GD32VW55X_Wifi_BLE_SDK/GD32VW55x_RELEASE_V1.0.2/MSDK/wpa_supplicant/src/ap\neighbor_db.c **** 				  " ssid=%s%s%s%s%s%s%s%s\n",
 426              		.loc 1 76 9
 427 0104 4A8E     		mv	t3,s2
 428              	.L25:
  76:C:/Users/stapi/OneDrive/Desktop/GD32VW553/V1_MQTT_OK/GD32VW55X_Wifi_BLE_SDK/GD32VW55x_RELEASE_V1.0.2/MSDK/wpa_supplicant/src/ap\neighbor_db.c **** 				  " ssid=%s%s%s%s%s%s%s%s\n",
 429              		.loc 1 76 9 discriminator 12
 430 0106 3044     		lw	a2,72(s0)
 431 0108 0DEE     		bne	a2,zero,.L33
  76:C:/Users/stapi/OneDrive/Desktop/GD32VW553/V1_MQTT_OK/GD32VW55X_Wifi_BLE_SDK/GD32VW55x_RELEASE_V1.0.2/MSDK/wpa_supplicant/src/ap\neighbor_db.c **** 				  " ssid=%s%s%s%s%s%s%s%s\n",
 432              		.loc 1 76 9
 433 010a 4A86     		mv	a2,s2
 434              	.L26:
  76:C:/Users/stapi/OneDrive/Desktop/GD32VW553/V1_MQTT_OK/GD32VW55X_Wifi_BLE_SDK/GD32VW55x_RELEASE_V1.0.2/MSDK/wpa_supplicant/src/ap\neighbor_db.c **** 				  " ssid=%s%s%s%s%s%s%s%s\n",
 435              		.loc 1 76 9 discriminator 16
 436 010c 32D0     		sw	a2,32(sp)
 437 010e 37060000 		lui	a2,%hi(.LC5)
 438 0112 2AC4     		sw	a0,8(sp)
 439 0114 76CE     		sw	t4,28(sp)
 440 0116 72CC     		sw	t3,24(sp)
 441 0118 6ECA     		sw	s11,20(sp)
 442 011a 1AC8     		sw	t1,16(sp)
 443 011c 6AC6     		sw	s10,12(sp)
 444 011e 62C2     		sw	s8,4(sp)
 445 0120 7AC0     		sw	t5,0(sp)
 446 0122 13060600 		addi	a2,a2,%lo(.LC5)
 447 0126 5285     		mv	a0,s4
 448 0128 2EDE     		sw	a1,60(sp)
 449 012a 97000000 		call	os_snprintf
 449      E7800000 
 450              	.LVL30:
  83:C:/Users/stapi/OneDrive/Desktop/GD32VW553/V1_MQTT_OK/GD32VW55X_Wifi_BLE_SDK/GD32VW55x_RELEASE_V1.0.2/MSDK/wpa_supplicant/src/ap\neighbor_db.c **** 			break;
 451              		.loc 1 83 3 is_stmt 1 discriminator 16
 452              	.LBB36:
 453              	.LBB37:
 454              		.file 3 "..\\..\\..\\..\\wpa_supplicant\\src/utils/os.h"
   1:..\..\..\..\wpa_supplicant\src/utils/os.h **** /*
   2:..\..\..\..\wpa_supplicant\src/utils/os.h ****  * OS specific functions
   3:..\..\..\..\wpa_supplicant\src/utils/os.h ****  * Copyright (c) 2005-2009, Jouni Malinen <j@w1.fi>
   4:..\..\..\..\wpa_supplicant\src/utils/os.h ****  *
   5:..\..\..\..\wpa_supplicant\src/utils/os.h ****  * This software may be distributed under the terms of the BSD license.
   6:..\..\..\..\wpa_supplicant\src/utils/os.h ****  * See README for more details.
   7:..\..\..\..\wpa_supplicant\src/utils/os.h ****  */
   8:..\..\..\..\wpa_supplicant\src/utils/os.h **** 
   9:..\..\..\..\wpa_supplicant\src/utils/os.h **** #ifndef OS_H
  10:..\..\..\..\wpa_supplicant\src/utils/os.h **** #define OS_H
  11:..\..\..\..\wpa_supplicant\src/utils/os.h **** 
  12:..\..\..\..\wpa_supplicant\src/utils/os.h **** typedef long os_time_t;
  13:..\..\..\..\wpa_supplicant\src/utils/os.h **** 
  14:..\..\..\..\wpa_supplicant\src/utils/os.h **** /**
  15:..\..\..\..\wpa_supplicant\src/utils/os.h ****  * os_sleep - Sleep (sec, usec)
  16:..\..\..\..\wpa_supplicant\src/utils/os.h ****  * @sec: Number of seconds to sleep
  17:..\..\..\..\wpa_supplicant\src/utils/os.h ****  * @usec: Number of microseconds to sleep
  18:..\..\..\..\wpa_supplicant\src/utils/os.h ****  */
  19:..\..\..\..\wpa_supplicant\src/utils/os.h **** void os_sleep(os_time_t sec, os_time_t usec);
  20:..\..\..\..\wpa_supplicant\src/utils/os.h **** 
  21:..\..\..\..\wpa_supplicant\src/utils/os.h **** struct os_time {
  22:..\..\..\..\wpa_supplicant\src/utils/os.h **** 	os_time_t sec;
  23:..\..\..\..\wpa_supplicant\src/utils/os.h **** 	os_time_t usec;
  24:..\..\..\..\wpa_supplicant\src/utils/os.h **** };
  25:..\..\..\..\wpa_supplicant\src/utils/os.h **** 
  26:..\..\..\..\wpa_supplicant\src/utils/os.h **** struct os_reltime {
  27:..\..\..\..\wpa_supplicant\src/utils/os.h **** 	os_time_t sec;
  28:..\..\..\..\wpa_supplicant\src/utils/os.h **** 	os_time_t usec;
  29:..\..\..\..\wpa_supplicant\src/utils/os.h **** };
  30:..\..\..\..\wpa_supplicant\src/utils/os.h **** 
  31:..\..\..\..\wpa_supplicant\src/utils/os.h **** /**
  32:..\..\..\..\wpa_supplicant\src/utils/os.h ****  * os_get_time - Get current time (sec, usec)
  33:..\..\..\..\wpa_supplicant\src/utils/os.h ****  * @t: Pointer to buffer for the time
  34:..\..\..\..\wpa_supplicant\src/utils/os.h ****  * Returns: 0 on success, -1 on failure
  35:..\..\..\..\wpa_supplicant\src/utils/os.h ****  */
  36:..\..\..\..\wpa_supplicant\src/utils/os.h **** int os_get_time(struct os_time *t);
  37:..\..\..\..\wpa_supplicant\src/utils/os.h **** 
  38:..\..\..\..\wpa_supplicant\src/utils/os.h **** /**
  39:..\..\..\..\wpa_supplicant\src/utils/os.h ****  * os_get_reltime - Get relative time (sec, usec)
  40:..\..\..\..\wpa_supplicant\src/utils/os.h ****  * @t: Pointer to buffer for the time
  41:..\..\..\..\wpa_supplicant\src/utils/os.h ****  * Returns: 0 on success, -1 on failure
  42:..\..\..\..\wpa_supplicant\src/utils/os.h ****  */
  43:..\..\..\..\wpa_supplicant\src/utils/os.h **** int os_get_reltime(struct os_reltime *t);
  44:..\..\..\..\wpa_supplicant\src/utils/os.h **** 
  45:..\..\..\..\wpa_supplicant\src/utils/os.h **** 
  46:..\..\..\..\wpa_supplicant\src/utils/os.h **** /* Helpers for handling struct os_time */
  47:..\..\..\..\wpa_supplicant\src/utils/os.h **** 
  48:..\..\..\..\wpa_supplicant\src/utils/os.h **** static inline int os_time_before(struct os_time *a, struct os_time *b)
  49:..\..\..\..\wpa_supplicant\src/utils/os.h **** {
  50:..\..\..\..\wpa_supplicant\src/utils/os.h **** 	return (a->sec < b->sec) ||
  51:..\..\..\..\wpa_supplicant\src/utils/os.h **** 	       (a->sec == b->sec && a->usec < b->usec);
  52:..\..\..\..\wpa_supplicant\src/utils/os.h **** }
  53:..\..\..\..\wpa_supplicant\src/utils/os.h **** 
  54:..\..\..\..\wpa_supplicant\src/utils/os.h **** 
  55:..\..\..\..\wpa_supplicant\src/utils/os.h **** static inline void os_time_sub(struct os_time *a, struct os_time *b,
  56:..\..\..\..\wpa_supplicant\src/utils/os.h **** 			       struct os_time *res)
  57:..\..\..\..\wpa_supplicant\src/utils/os.h **** {
  58:..\..\..\..\wpa_supplicant\src/utils/os.h **** 	res->sec = a->sec - b->sec;
  59:..\..\..\..\wpa_supplicant\src/utils/os.h **** 	res->usec = a->usec - b->usec;
  60:..\..\..\..\wpa_supplicant\src/utils/os.h **** 	if (res->usec < 0) {
  61:..\..\..\..\wpa_supplicant\src/utils/os.h **** 		res->sec--;
  62:..\..\..\..\wpa_supplicant\src/utils/os.h **** 		res->usec += 1000000;
  63:..\..\..\..\wpa_supplicant\src/utils/os.h **** 	}
  64:..\..\..\..\wpa_supplicant\src/utils/os.h **** }
  65:..\..\..\..\wpa_supplicant\src/utils/os.h **** 
  66:..\..\..\..\wpa_supplicant\src/utils/os.h **** 
  67:..\..\..\..\wpa_supplicant\src/utils/os.h **** /* Helpers for handling struct os_reltime */
  68:..\..\..\..\wpa_supplicant\src/utils/os.h **** 
  69:..\..\..\..\wpa_supplicant\src/utils/os.h **** static inline int os_reltime_before(struct os_reltime *a,
  70:..\..\..\..\wpa_supplicant\src/utils/os.h **** 				    struct os_reltime *b)
  71:..\..\..\..\wpa_supplicant\src/utils/os.h **** {
  72:..\..\..\..\wpa_supplicant\src/utils/os.h **** 	return (a->sec < b->sec) ||
  73:..\..\..\..\wpa_supplicant\src/utils/os.h **** 	       (a->sec == b->sec && a->usec < b->usec);
  74:..\..\..\..\wpa_supplicant\src/utils/os.h **** }
  75:..\..\..\..\wpa_supplicant\src/utils/os.h **** 
  76:..\..\..\..\wpa_supplicant\src/utils/os.h **** 
  77:..\..\..\..\wpa_supplicant\src/utils/os.h **** static inline void os_reltime_sub(struct os_reltime *a, struct os_reltime *b,
  78:..\..\..\..\wpa_supplicant\src/utils/os.h **** 				  struct os_reltime *res)
  79:..\..\..\..\wpa_supplicant\src/utils/os.h **** {
  80:..\..\..\..\wpa_supplicant\src/utils/os.h **** 	res->sec = a->sec - b->sec;
  81:..\..\..\..\wpa_supplicant\src/utils/os.h **** 	res->usec = a->usec - b->usec;
  82:..\..\..\..\wpa_supplicant\src/utils/os.h **** 	if (res->usec < 0) {
  83:..\..\..\..\wpa_supplicant\src/utils/os.h **** 		res->sec--;
  84:..\..\..\..\wpa_supplicant\src/utils/os.h **** 		res->usec += 1000000;
  85:..\..\..\..\wpa_supplicant\src/utils/os.h **** 	}
  86:..\..\..\..\wpa_supplicant\src/utils/os.h **** }
  87:..\..\..\..\wpa_supplicant\src/utils/os.h **** 
  88:..\..\..\..\wpa_supplicant\src/utils/os.h **** 
  89:..\..\..\..\wpa_supplicant\src/utils/os.h **** static inline void os_reltime_age(struct os_reltime *start,
  90:..\..\..\..\wpa_supplicant\src/utils/os.h **** 				  struct os_reltime *age)
  91:..\..\..\..\wpa_supplicant\src/utils/os.h **** {
  92:..\..\..\..\wpa_supplicant\src/utils/os.h **** 	struct os_reltime now;
  93:..\..\..\..\wpa_supplicant\src/utils/os.h **** 
  94:..\..\..\..\wpa_supplicant\src/utils/os.h **** 	os_get_reltime(&now);
  95:..\..\..\..\wpa_supplicant\src/utils/os.h **** 	os_reltime_sub(&now, start, age);
  96:..\..\..\..\wpa_supplicant\src/utils/os.h **** }
  97:..\..\..\..\wpa_supplicant\src/utils/os.h **** 
  98:..\..\..\..\wpa_supplicant\src/utils/os.h **** 
  99:..\..\..\..\wpa_supplicant\src/utils/os.h **** static inline int os_reltime_expired(struct os_reltime *now,
 100:..\..\..\..\wpa_supplicant\src/utils/os.h **** 				     struct os_reltime *ts,
 101:..\..\..\..\wpa_supplicant\src/utils/os.h **** 				     os_time_t timeout_secs)
 102:..\..\..\..\wpa_supplicant\src/utils/os.h **** {
 103:..\..\..\..\wpa_supplicant\src/utils/os.h **** 	struct os_reltime age;
 104:..\..\..\..\wpa_supplicant\src/utils/os.h **** 
 105:..\..\..\..\wpa_supplicant\src/utils/os.h **** 	os_reltime_sub(now, ts, &age);
 106:..\..\..\..\wpa_supplicant\src/utils/os.h **** 	return (age.sec > timeout_secs) ||
 107:..\..\..\..\wpa_supplicant\src/utils/os.h **** 	       (age.sec == timeout_secs && age.usec > 0);
 108:..\..\..\..\wpa_supplicant\src/utils/os.h **** }
 109:..\..\..\..\wpa_supplicant\src/utils/os.h **** 
 110:..\..\..\..\wpa_supplicant\src/utils/os.h **** 
 111:..\..\..\..\wpa_supplicant\src/utils/os.h **** static inline int os_reltime_initialized(struct os_reltime *t)
 112:..\..\..\..\wpa_supplicant\src/utils/os.h **** {
 113:..\..\..\..\wpa_supplicant\src/utils/os.h **** 	return t->sec != 0 || t->usec != 0;
 114:..\..\..\..\wpa_supplicant\src/utils/os.h **** }
 115:..\..\..\..\wpa_supplicant\src/utils/os.h **** 
 116:..\..\..\..\wpa_supplicant\src/utils/os.h **** 
 117:..\..\..\..\wpa_supplicant\src/utils/os.h **** /**
 118:..\..\..\..\wpa_supplicant\src/utils/os.h ****  * os_mktime - Convert broken-down time into seconds since 1970-01-01
 119:..\..\..\..\wpa_supplicant\src/utils/os.h ****  * @year: Four digit year
 120:..\..\..\..\wpa_supplicant\src/utils/os.h ****  * @month: Month (1 .. 12)
 121:..\..\..\..\wpa_supplicant\src/utils/os.h ****  * @day: Day of month (1 .. 31)
 122:..\..\..\..\wpa_supplicant\src/utils/os.h ****  * @hour: Hour (0 .. 23)
 123:..\..\..\..\wpa_supplicant\src/utils/os.h ****  * @min: Minute (0 .. 59)
 124:..\..\..\..\wpa_supplicant\src/utils/os.h ****  * @sec: Second (0 .. 60)
 125:..\..\..\..\wpa_supplicant\src/utils/os.h ****  * @t: Buffer for returning calendar time representation (seconds since
 126:..\..\..\..\wpa_supplicant\src/utils/os.h ****  * 1970-01-01 00:00:00)
 127:..\..\..\..\wpa_supplicant\src/utils/os.h ****  * Returns: 0 on success, -1 on failure
 128:..\..\..\..\wpa_supplicant\src/utils/os.h ****  *
 129:..\..\..\..\wpa_supplicant\src/utils/os.h ****  * Note: The result is in seconds from Epoch, i.e., in UTC, not in local time
 130:..\..\..\..\wpa_supplicant\src/utils/os.h ****  * which is used by POSIX mktime().
 131:..\..\..\..\wpa_supplicant\src/utils/os.h ****  */
 132:..\..\..\..\wpa_supplicant\src/utils/os.h **** int os_mktime(int year, int month, int day, int hour, int min, int sec,
 133:..\..\..\..\wpa_supplicant\src/utils/os.h **** 	      os_time_t *t);
 134:..\..\..\..\wpa_supplicant\src/utils/os.h **** 
 135:..\..\..\..\wpa_supplicant\src/utils/os.h **** struct os_tm {
 136:..\..\..\..\wpa_supplicant\src/utils/os.h **** 	int sec; /* 0..59 or 60 for leap seconds */
 137:..\..\..\..\wpa_supplicant\src/utils/os.h **** 	int min; /* 0..59 */
 138:..\..\..\..\wpa_supplicant\src/utils/os.h **** 	int hour; /* 0..23 */
 139:..\..\..\..\wpa_supplicant\src/utils/os.h **** 	int day; /* 1..31 */
 140:..\..\..\..\wpa_supplicant\src/utils/os.h **** 	int month; /* 1..12 */
 141:..\..\..\..\wpa_supplicant\src/utils/os.h **** 	int year; /* Four digit year */
 142:..\..\..\..\wpa_supplicant\src/utils/os.h **** };
 143:..\..\..\..\wpa_supplicant\src/utils/os.h **** 
 144:..\..\..\..\wpa_supplicant\src/utils/os.h **** int os_gmtime(os_time_t t, struct os_tm *tm);
 145:..\..\..\..\wpa_supplicant\src/utils/os.h **** 
 146:..\..\..\..\wpa_supplicant\src/utils/os.h **** /**
 147:..\..\..\..\wpa_supplicant\src/utils/os.h ****  * os_daemonize - Run in the background (detach from the controlling terminal)
 148:..\..\..\..\wpa_supplicant\src/utils/os.h ****  * @pid_file: File name to write the process ID to or %NULL to skip this
 149:..\..\..\..\wpa_supplicant\src/utils/os.h ****  * Returns: 0 on success, -1 on failure
 150:..\..\..\..\wpa_supplicant\src/utils/os.h ****  */
 151:..\..\..\..\wpa_supplicant\src/utils/os.h **** int os_daemonize(const char *pid_file);
 152:..\..\..\..\wpa_supplicant\src/utils/os.h **** 
 153:..\..\..\..\wpa_supplicant\src/utils/os.h **** /**
 154:..\..\..\..\wpa_supplicant\src/utils/os.h ****  * os_daemonize_terminate - Stop running in the background (remove pid file)
 155:..\..\..\..\wpa_supplicant\src/utils/os.h ****  * @pid_file: File name to write the process ID to or %NULL to skip this
 156:..\..\..\..\wpa_supplicant\src/utils/os.h ****  */
 157:..\..\..\..\wpa_supplicant\src/utils/os.h **** void os_daemonize_terminate(const char *pid_file);
 158:..\..\..\..\wpa_supplicant\src/utils/os.h **** 
 159:..\..\..\..\wpa_supplicant\src/utils/os.h **** /**
 160:..\..\..\..\wpa_supplicant\src/utils/os.h ****  * os_get_random - Get cryptographically strong pseudo random data
 161:..\..\..\..\wpa_supplicant\src/utils/os.h ****  * @buf: Buffer for pseudo random data
 162:..\..\..\..\wpa_supplicant\src/utils/os.h ****  * @len: Length of the buffer
 163:..\..\..\..\wpa_supplicant\src/utils/os.h ****  * Returns: 0 on success, -1 on failure
 164:..\..\..\..\wpa_supplicant\src/utils/os.h ****  */
 165:..\..\..\..\wpa_supplicant\src/utils/os.h **** int os_get_random(unsigned char *buf, size_t len);
 166:..\..\..\..\wpa_supplicant\src/utils/os.h **** 
 167:..\..\..\..\wpa_supplicant\src/utils/os.h **** /**
 168:..\..\..\..\wpa_supplicant\src/utils/os.h ****  * os_random - Get pseudo random value (not necessarily very strong)
 169:..\..\..\..\wpa_supplicant\src/utils/os.h ****  * Returns: Pseudo random value
 170:..\..\..\..\wpa_supplicant\src/utils/os.h ****  */
 171:..\..\..\..\wpa_supplicant\src/utils/os.h **** unsigned long os_random(void);
 172:..\..\..\..\wpa_supplicant\src/utils/os.h **** 
 173:..\..\..\..\wpa_supplicant\src/utils/os.h **** /**
 174:..\..\..\..\wpa_supplicant\src/utils/os.h ****  * os_rel2abs_path - Get an absolute path for a file
 175:..\..\..\..\wpa_supplicant\src/utils/os.h ****  * @rel_path: Relative path to a file
 176:..\..\..\..\wpa_supplicant\src/utils/os.h ****  * Returns: Absolute path for the file or %NULL on failure
 177:..\..\..\..\wpa_supplicant\src/utils/os.h ****  *
 178:..\..\..\..\wpa_supplicant\src/utils/os.h ****  * This function tries to convert a relative path of a file to an absolute path
 179:..\..\..\..\wpa_supplicant\src/utils/os.h ****  * in order for the file to be found even if current working directory has
 180:..\..\..\..\wpa_supplicant\src/utils/os.h ****  * changed. The returned value is allocated and caller is responsible for
 181:..\..\..\..\wpa_supplicant\src/utils/os.h ****  * freeing it. It is acceptable to just return the same path in an allocated
 182:..\..\..\..\wpa_supplicant\src/utils/os.h ****  * buffer, e.g., return strdup(rel_path). This function is only used to find
 183:..\..\..\..\wpa_supplicant\src/utils/os.h ****  * configuration files when os_daemonize() may have changed the current working
 184:..\..\..\..\wpa_supplicant\src/utils/os.h ****  * directory and relative path would be pointing to a different location.
 185:..\..\..\..\wpa_supplicant\src/utils/os.h ****  */
 186:..\..\..\..\wpa_supplicant\src/utils/os.h **** char * os_rel2abs_path(const char *rel_path);
 187:..\..\..\..\wpa_supplicant\src/utils/os.h **** 
 188:..\..\..\..\wpa_supplicant\src/utils/os.h **** /**
 189:..\..\..\..\wpa_supplicant\src/utils/os.h ****  * os_program_init - Program initialization (called at start)
 190:..\..\..\..\wpa_supplicant\src/utils/os.h ****  * Returns: 0 on success, -1 on failure
 191:..\..\..\..\wpa_supplicant\src/utils/os.h ****  *
 192:..\..\..\..\wpa_supplicant\src/utils/os.h ****  * This function is called when a programs starts. If there are any OS specific
 193:..\..\..\..\wpa_supplicant\src/utils/os.h ****  * processing that is needed, it can be placed here. It is also acceptable to
 194:..\..\..\..\wpa_supplicant\src/utils/os.h ****  * just return 0 if not special processing is needed.
 195:..\..\..\..\wpa_supplicant\src/utils/os.h ****  */
 196:..\..\..\..\wpa_supplicant\src/utils/os.h **** int os_program_init(void);
 197:..\..\..\..\wpa_supplicant\src/utils/os.h **** 
 198:..\..\..\..\wpa_supplicant\src/utils/os.h **** /**
 199:..\..\..\..\wpa_supplicant\src/utils/os.h ****  * os_program_deinit - Program deinitialization (called just before exit)
 200:..\..\..\..\wpa_supplicant\src/utils/os.h ****  *
 201:..\..\..\..\wpa_supplicant\src/utils/os.h ****  * This function is called just before a program exists. If there are any OS
 202:..\..\..\..\wpa_supplicant\src/utils/os.h ****  * specific processing, e.g., freeing resourced allocated in os_program_init(),
 203:..\..\..\..\wpa_supplicant\src/utils/os.h ****  * it should be done here. It is also acceptable for this function to do
 204:..\..\..\..\wpa_supplicant\src/utils/os.h ****  * nothing.
 205:..\..\..\..\wpa_supplicant\src/utils/os.h ****  */
 206:..\..\..\..\wpa_supplicant\src/utils/os.h **** void os_program_deinit(void);
 207:..\..\..\..\wpa_supplicant\src/utils/os.h **** 
 208:..\..\..\..\wpa_supplicant\src/utils/os.h **** /**
 209:..\..\..\..\wpa_supplicant\src/utils/os.h ****  * os_setenv - Set environment variable
 210:..\..\..\..\wpa_supplicant\src/utils/os.h ****  * @name: Name of the variable
 211:..\..\..\..\wpa_supplicant\src/utils/os.h ****  * @value: Value to set to the variable
 212:..\..\..\..\wpa_supplicant\src/utils/os.h ****  * @overwrite: Whether existing variable should be overwritten
 213:..\..\..\..\wpa_supplicant\src/utils/os.h ****  * Returns: 0 on success, -1 on error
 214:..\..\..\..\wpa_supplicant\src/utils/os.h ****  *
 215:..\..\..\..\wpa_supplicant\src/utils/os.h ****  * This function is only used for wpa_cli action scripts. OS wrapper does not
 216:..\..\..\..\wpa_supplicant\src/utils/os.h ****  * need to implement this if such functionality is not needed.
 217:..\..\..\..\wpa_supplicant\src/utils/os.h ****  */
 218:..\..\..\..\wpa_supplicant\src/utils/os.h **** int os_setenv(const char *name, const char *value, int overwrite);
 219:..\..\..\..\wpa_supplicant\src/utils/os.h **** 
 220:..\..\..\..\wpa_supplicant\src/utils/os.h **** /**
 221:..\..\..\..\wpa_supplicant\src/utils/os.h ****  * os_unsetenv - Delete environent variable
 222:..\..\..\..\wpa_supplicant\src/utils/os.h ****  * @name: Name of the variable
 223:..\..\..\..\wpa_supplicant\src/utils/os.h ****  * Returns: 0 on success, -1 on error
 224:..\..\..\..\wpa_supplicant\src/utils/os.h ****  *
 225:..\..\..\..\wpa_supplicant\src/utils/os.h ****  * This function is only used for wpa_cli action scripts. OS wrapper does not
 226:..\..\..\..\wpa_supplicant\src/utils/os.h ****  * need to implement this if such functionality is not needed.
 227:..\..\..\..\wpa_supplicant\src/utils/os.h ****  */
 228:..\..\..\..\wpa_supplicant\src/utils/os.h **** int os_unsetenv(const char *name);
 229:..\..\..\..\wpa_supplicant\src/utils/os.h **** 
 230:..\..\..\..\wpa_supplicant\src/utils/os.h **** /**
 231:..\..\..\..\wpa_supplicant\src/utils/os.h ****  * os_readfile - Read a file to an allocated memory buffer
 232:..\..\..\..\wpa_supplicant\src/utils/os.h ****  * @name: Name of the file to read
 233:..\..\..\..\wpa_supplicant\src/utils/os.h ****  * @len: For returning the length of the allocated buffer
 234:..\..\..\..\wpa_supplicant\src/utils/os.h ****  * Returns: Pointer to the allocated buffer or %NULL on failure
 235:..\..\..\..\wpa_supplicant\src/utils/os.h ****  *
 236:..\..\..\..\wpa_supplicant\src/utils/os.h ****  * This function allocates memory and reads the given file to this buffer. Both
 237:..\..\..\..\wpa_supplicant\src/utils/os.h ****  * binary and text files can be read with this function. The caller is
 238:..\..\..\..\wpa_supplicant\src/utils/os.h ****  * responsible for freeing the returned buffer with os_free().
 239:..\..\..\..\wpa_supplicant\src/utils/os.h ****  */
 240:..\..\..\..\wpa_supplicant\src/utils/os.h **** char * os_readfile(const char *name, size_t *len);
 241:..\..\..\..\wpa_supplicant\src/utils/os.h **** 
 242:..\..\..\..\wpa_supplicant\src/utils/os.h **** /**
 243:..\..\..\..\wpa_supplicant\src/utils/os.h ****  * os_file_exists - Check whether the specified file exists
 244:..\..\..\..\wpa_supplicant\src/utils/os.h ****  * @fname: Path and name of the file
 245:..\..\..\..\wpa_supplicant\src/utils/os.h ****  * Returns: 1 if the file exists or 0 if not
 246:..\..\..\..\wpa_supplicant\src/utils/os.h ****  */
 247:..\..\..\..\wpa_supplicant\src/utils/os.h **** int os_file_exists(const char *fname);
 248:..\..\..\..\wpa_supplicant\src/utils/os.h **** 
 249:..\..\..\..\wpa_supplicant\src/utils/os.h **** /**
 250:..\..\..\..\wpa_supplicant\src/utils/os.h ****  * os_fdatasync - Sync a file's (for a given stream) state with storage device
 251:..\..\..\..\wpa_supplicant\src/utils/os.h ****  * @stream: the stream to be flushed
 252:..\..\..\..\wpa_supplicant\src/utils/os.h ****  * Returns: 0 if the operation succeeded or -1 on failure
 253:..\..\..\..\wpa_supplicant\src/utils/os.h ****  */
 254:..\..\..\..\wpa_supplicant\src/utils/os.h **** int os_fdatasync(FILE *stream);
 255:..\..\..\..\wpa_supplicant\src/utils/os.h **** 
 256:..\..\..\..\wpa_supplicant\src/utils/os.h **** /**
 257:..\..\..\..\wpa_supplicant\src/utils/os.h ****  * os_zalloc - Allocate and zero memory
 258:..\..\..\..\wpa_supplicant\src/utils/os.h ****  * @size: Number of bytes to allocate
 259:..\..\..\..\wpa_supplicant\src/utils/os.h ****  * Returns: Pointer to allocated and zeroed memory or %NULL on failure
 260:..\..\..\..\wpa_supplicant\src/utils/os.h ****  *
 261:..\..\..\..\wpa_supplicant\src/utils/os.h ****  * Caller is responsible for freeing the returned buffer with os_free().
 262:..\..\..\..\wpa_supplicant\src/utils/os.h ****  */
 263:..\..\..\..\wpa_supplicant\src/utils/os.h **** void * os_zalloc(size_t size);
 264:..\..\..\..\wpa_supplicant\src/utils/os.h **** 
 265:..\..\..\..\wpa_supplicant\src/utils/os.h **** /**
 266:..\..\..\..\wpa_supplicant\src/utils/os.h ****  * os_calloc - Allocate and zero memory for an array
 267:..\..\..\..\wpa_supplicant\src/utils/os.h ****  * @nmemb: Number of members in the array
 268:..\..\..\..\wpa_supplicant\src/utils/os.h ****  * @size: Number of bytes in each member
 269:..\..\..\..\wpa_supplicant\src/utils/os.h ****  * Returns: Pointer to allocated and zeroed memory or %NULL on failure
 270:..\..\..\..\wpa_supplicant\src/utils/os.h ****  *
 271:..\..\..\..\wpa_supplicant\src/utils/os.h ****  * This function can be used as a wrapper for os_zalloc(nmemb * size) when an
 272:..\..\..\..\wpa_supplicant\src/utils/os.h ****  * allocation is used for an array. The main benefit over os_zalloc() is in
 273:..\..\..\..\wpa_supplicant\src/utils/os.h ****  * having an extra check to catch integer overflows in multiplication.
 274:..\..\..\..\wpa_supplicant\src/utils/os.h ****  *
 275:..\..\..\..\wpa_supplicant\src/utils/os.h ****  * Caller is responsible for freeing the returned buffer with os_free().
 276:..\..\..\..\wpa_supplicant\src/utils/os.h ****  */
 277:..\..\..\..\wpa_supplicant\src/utils/os.h **** static inline void * os_calloc(size_t nmemb, size_t size)
 278:..\..\..\..\wpa_supplicant\src/utils/os.h **** {
 279:..\..\..\..\wpa_supplicant\src/utils/os.h **** 	if (size && nmemb > (~(size_t) 0) / size)
 280:..\..\..\..\wpa_supplicant\src/utils/os.h **** 		return NULL;
 281:..\..\..\..\wpa_supplicant\src/utils/os.h **** 	return os_zalloc(nmemb * size);
 282:..\..\..\..\wpa_supplicant\src/utils/os.h **** }
 283:..\..\..\..\wpa_supplicant\src/utils/os.h **** 
 284:..\..\..\..\wpa_supplicant\src/utils/os.h **** 
 285:..\..\..\..\wpa_supplicant\src/utils/os.h **** /*
 286:..\..\..\..\wpa_supplicant\src/utils/os.h ****  * The following functions are wrapper for standard ANSI C or POSIX functions.
 287:..\..\..\..\wpa_supplicant\src/utils/os.h ****  * By default, they are just defined to use the standard function name and no
 288:..\..\..\..\wpa_supplicant\src/utils/os.h ****  * os_*.c implementation is needed for them. This avoids extra function calls
 289:..\..\..\..\wpa_supplicant\src/utils/os.h ****  * by allowing the C pre-processor take care of the function name mapping.
 290:..\..\..\..\wpa_supplicant\src/utils/os.h ****  *
 291:..\..\..\..\wpa_supplicant\src/utils/os.h ****  * If the target system uses a C library that does not provide these functions,
 292:..\..\..\..\wpa_supplicant\src/utils/os.h ****  * build_config.h can be used to define the wrappers to use a different
 293:..\..\..\..\wpa_supplicant\src/utils/os.h ****  * function name. This can be done on function-by-function basis since the
 294:..\..\..\..\wpa_supplicant\src/utils/os.h ****  * defines here are only used if build_config.h does not define the os_* name.
 295:..\..\..\..\wpa_supplicant\src/utils/os.h ****  * If needed, os_*.c file can be used to implement the functions that are not
 296:..\..\..\..\wpa_supplicant\src/utils/os.h ****  * included in the C library on the target system. Alternatively,
 297:..\..\..\..\wpa_supplicant\src/utils/os.h ****  * OS_NO_C_LIB_DEFINES can be defined to skip all defines here in which case
 298:..\..\..\..\wpa_supplicant\src/utils/os.h ****  * these functions need to be implemented in os_*.c file for the target system.
 299:..\..\..\..\wpa_supplicant\src/utils/os.h ****  */
 300:..\..\..\..\wpa_supplicant\src/utils/os.h **** 
 301:..\..\..\..\wpa_supplicant\src/utils/os.h **** #ifdef OS_NO_C_LIB_DEFINES
 302:..\..\..\..\wpa_supplicant\src/utils/os.h **** 
 303:..\..\..\..\wpa_supplicant\src/utils/os.h **** /**
 304:..\..\..\..\wpa_supplicant\src/utils/os.h ****  * os_malloc - Allocate dynamic memory
 305:..\..\..\..\wpa_supplicant\src/utils/os.h ****  * @size: Size of the buffer to allocate
 306:..\..\..\..\wpa_supplicant\src/utils/os.h ****  * Returns: Allocated buffer or %NULL on failure
 307:..\..\..\..\wpa_supplicant\src/utils/os.h ****  *
 308:..\..\..\..\wpa_supplicant\src/utils/os.h ****  * Caller is responsible for freeing the returned buffer with os_free().
 309:..\..\..\..\wpa_supplicant\src/utils/os.h ****  */
 310:..\..\..\..\wpa_supplicant\src/utils/os.h **** void * os_malloc(size_t size);
 311:..\..\..\..\wpa_supplicant\src/utils/os.h **** 
 312:..\..\..\..\wpa_supplicant\src/utils/os.h **** /**
 313:..\..\..\..\wpa_supplicant\src/utils/os.h ****  * os_realloc - Re-allocate dynamic memory
 314:..\..\..\..\wpa_supplicant\src/utils/os.h ****  * @ptr: Old buffer from os_malloc() or os_realloc()
 315:..\..\..\..\wpa_supplicant\src/utils/os.h ****  * @size: Size of the new buffer
 316:..\..\..\..\wpa_supplicant\src/utils/os.h ****  * Returns: Allocated buffer or %NULL on failure
 317:..\..\..\..\wpa_supplicant\src/utils/os.h ****  *
 318:..\..\..\..\wpa_supplicant\src/utils/os.h ****  * Caller is responsible for freeing the returned buffer with os_free().
 319:..\..\..\..\wpa_supplicant\src/utils/os.h ****  * If re-allocation fails, %NULL is returned and the original buffer (ptr) is
 320:..\..\..\..\wpa_supplicant\src/utils/os.h ****  * not freed and caller is still responsible for freeing it.
 321:..\..\..\..\wpa_supplicant\src/utils/os.h ****  */
 322:..\..\..\..\wpa_supplicant\src/utils/os.h **** void * os_realloc(void *ptr, size_t size);
 323:..\..\..\..\wpa_supplicant\src/utils/os.h **** 
 324:..\..\..\..\wpa_supplicant\src/utils/os.h **** /**
 325:..\..\..\..\wpa_supplicant\src/utils/os.h ****  * os_free - Free dynamic memory
 326:..\..\..\..\wpa_supplicant\src/utils/os.h ****  * @ptr: Old buffer from os_malloc() or os_realloc(); can be %NULL
 327:..\..\..\..\wpa_supplicant\src/utils/os.h ****  */
 328:..\..\..\..\wpa_supplicant\src/utils/os.h **** void os_free(void *ptr);
 329:..\..\..\..\wpa_supplicant\src/utils/os.h **** 
 330:..\..\..\..\wpa_supplicant\src/utils/os.h **** /**
 331:..\..\..\..\wpa_supplicant\src/utils/os.h ****  * os_memcpy - Copy memory area
 332:..\..\..\..\wpa_supplicant\src/utils/os.h ****  * @dest: Destination
 333:..\..\..\..\wpa_supplicant\src/utils/os.h ****  * @src: Source
 334:..\..\..\..\wpa_supplicant\src/utils/os.h ****  * @n: Number of bytes to copy
 335:..\..\..\..\wpa_supplicant\src/utils/os.h ****  * Returns: dest
 336:..\..\..\..\wpa_supplicant\src/utils/os.h ****  *
 337:..\..\..\..\wpa_supplicant\src/utils/os.h ****  * The memory areas src and dst must not overlap. os_memmove() can be used with
 338:..\..\..\..\wpa_supplicant\src/utils/os.h ****  * overlapping memory.
 339:..\..\..\..\wpa_supplicant\src/utils/os.h ****  */
 340:..\..\..\..\wpa_supplicant\src/utils/os.h **** void * os_memcpy(void *dest, const void *src, size_t n);
 341:..\..\..\..\wpa_supplicant\src/utils/os.h **** 
 342:..\..\..\..\wpa_supplicant\src/utils/os.h **** /**
 343:..\..\..\..\wpa_supplicant\src/utils/os.h ****  * os_memmove - Copy memory area
 344:..\..\..\..\wpa_supplicant\src/utils/os.h ****  * @dest: Destination
 345:..\..\..\..\wpa_supplicant\src/utils/os.h ****  * @src: Source
 346:..\..\..\..\wpa_supplicant\src/utils/os.h ****  * @n: Number of bytes to copy
 347:..\..\..\..\wpa_supplicant\src/utils/os.h ****  * Returns: dest
 348:..\..\..\..\wpa_supplicant\src/utils/os.h ****  *
 349:..\..\..\..\wpa_supplicant\src/utils/os.h ****  * The memory areas src and dst may overlap.
 350:..\..\..\..\wpa_supplicant\src/utils/os.h ****  */
 351:..\..\..\..\wpa_supplicant\src/utils/os.h **** void * os_memmove(void *dest, const void *src, size_t n);
 352:..\..\..\..\wpa_supplicant\src/utils/os.h **** 
 353:..\..\..\..\wpa_supplicant\src/utils/os.h **** /**
 354:..\..\..\..\wpa_supplicant\src/utils/os.h ****  * os_memset - Fill memory with a constant byte
 355:..\..\..\..\wpa_supplicant\src/utils/os.h ****  * @s: Memory area to be filled
 356:..\..\..\..\wpa_supplicant\src/utils/os.h ****  * @c: Constant byte
 357:..\..\..\..\wpa_supplicant\src/utils/os.h ****  * @n: Number of bytes started from s to fill with c
 358:..\..\..\..\wpa_supplicant\src/utils/os.h ****  * Returns: s
 359:..\..\..\..\wpa_supplicant\src/utils/os.h ****  */
 360:..\..\..\..\wpa_supplicant\src/utils/os.h **** void * os_memset(void *s, int c, size_t n);
 361:..\..\..\..\wpa_supplicant\src/utils/os.h **** 
 362:..\..\..\..\wpa_supplicant\src/utils/os.h **** /**
 363:..\..\..\..\wpa_supplicant\src/utils/os.h ****  * os_memcmp - Compare memory areas
 364:..\..\..\..\wpa_supplicant\src/utils/os.h ****  * @s1: First buffer
 365:..\..\..\..\wpa_supplicant\src/utils/os.h ****  * @s2: Second buffer
 366:..\..\..\..\wpa_supplicant\src/utils/os.h ****  * @n: Maximum numbers of octets to compare
 367:..\..\..\..\wpa_supplicant\src/utils/os.h ****  * Returns: An integer less than, equal to, or greater than zero if s1 is
 368:..\..\..\..\wpa_supplicant\src/utils/os.h ****  * found to be less than, to match, or be greater than s2. Only first n
 369:..\..\..\..\wpa_supplicant\src/utils/os.h ****  * characters will be compared.
 370:..\..\..\..\wpa_supplicant\src/utils/os.h ****  */
 371:..\..\..\..\wpa_supplicant\src/utils/os.h **** int os_memcmp(const void *s1, const void *s2, size_t n);
 372:..\..\..\..\wpa_supplicant\src/utils/os.h **** 
 373:..\..\..\..\wpa_supplicant\src/utils/os.h **** /**
 374:..\..\..\..\wpa_supplicant\src/utils/os.h ****  * os_strdup - Duplicate a string
 375:..\..\..\..\wpa_supplicant\src/utils/os.h ****  * @s: Source string
 376:..\..\..\..\wpa_supplicant\src/utils/os.h ****  * Returns: Allocated buffer with the string copied into it or %NULL on failure
 377:..\..\..\..\wpa_supplicant\src/utils/os.h ****  *
 378:..\..\..\..\wpa_supplicant\src/utils/os.h ****  * Caller is responsible for freeing the returned buffer with os_free().
 379:..\..\..\..\wpa_supplicant\src/utils/os.h ****  */
 380:..\..\..\..\wpa_supplicant\src/utils/os.h **** char * os_strdup(const char *s);
 381:..\..\..\..\wpa_supplicant\src/utils/os.h **** 
 382:..\..\..\..\wpa_supplicant\src/utils/os.h **** /**
 383:..\..\..\..\wpa_supplicant\src/utils/os.h ****  * os_strlen - Calculate the length of a string
 384:..\..\..\..\wpa_supplicant\src/utils/os.h ****  * @s: '\0' terminated string
 385:..\..\..\..\wpa_supplicant\src/utils/os.h ****  * Returns: Number of characters in s (not counting the '\0' terminator)
 386:..\..\..\..\wpa_supplicant\src/utils/os.h ****  */
 387:..\..\..\..\wpa_supplicant\src/utils/os.h **** size_t os_strlen(const char *s);
 388:..\..\..\..\wpa_supplicant\src/utils/os.h **** 
 389:..\..\..\..\wpa_supplicant\src/utils/os.h **** /**
 390:..\..\..\..\wpa_supplicant\src/utils/os.h ****  * os_strcasecmp - Compare two strings ignoring case
 391:..\..\..\..\wpa_supplicant\src/utils/os.h ****  * @s1: First string
 392:..\..\..\..\wpa_supplicant\src/utils/os.h ****  * @s2: Second string
 393:..\..\..\..\wpa_supplicant\src/utils/os.h ****  * Returns: An integer less than, equal to, or greater than zero if s1 is
 394:..\..\..\..\wpa_supplicant\src/utils/os.h ****  * found to be less than, to match, or be greatred than s2
 395:..\..\..\..\wpa_supplicant\src/utils/os.h ****  */
 396:..\..\..\..\wpa_supplicant\src/utils/os.h **** int os_strcasecmp(const char *s1, const char *s2);
 397:..\..\..\..\wpa_supplicant\src/utils/os.h **** 
 398:..\..\..\..\wpa_supplicant\src/utils/os.h **** /**
 399:..\..\..\..\wpa_supplicant\src/utils/os.h ****  * os_strncasecmp - Compare two strings ignoring case
 400:..\..\..\..\wpa_supplicant\src/utils/os.h ****  * @s1: First string
 401:..\..\..\..\wpa_supplicant\src/utils/os.h ****  * @s2: Second string
 402:..\..\..\..\wpa_supplicant\src/utils/os.h ****  * @n: Maximum numbers of characters to compare
 403:..\..\..\..\wpa_supplicant\src/utils/os.h ****  * Returns: An integer less than, equal to, or greater than zero if s1 is
 404:..\..\..\..\wpa_supplicant\src/utils/os.h ****  * found to be less than, to match, or be greater than s2. Only first n
 405:..\..\..\..\wpa_supplicant\src/utils/os.h ****  * characters will be compared.
 406:..\..\..\..\wpa_supplicant\src/utils/os.h ****  */
 407:..\..\..\..\wpa_supplicant\src/utils/os.h **** int os_strncasecmp(const char *s1, const char *s2, size_t n);
 408:..\..\..\..\wpa_supplicant\src/utils/os.h **** 
 409:..\..\..\..\wpa_supplicant\src/utils/os.h **** /**
 410:..\..\..\..\wpa_supplicant\src/utils/os.h ****  * os_strchr - Locate the first occurrence of a character in string
 411:..\..\..\..\wpa_supplicant\src/utils/os.h ****  * @s: String
 412:..\..\..\..\wpa_supplicant\src/utils/os.h ****  * @c: Character to search for
 413:..\..\..\..\wpa_supplicant\src/utils/os.h ****  * Returns: Pointer to the matched character or %NULL if not found
 414:..\..\..\..\wpa_supplicant\src/utils/os.h ****  */
 415:..\..\..\..\wpa_supplicant\src/utils/os.h **** char * os_strchr(const char *s, int c);
 416:..\..\..\..\wpa_supplicant\src/utils/os.h **** 
 417:..\..\..\..\wpa_supplicant\src/utils/os.h **** /**
 418:..\..\..\..\wpa_supplicant\src/utils/os.h ****  * os_strrchr - Locate the last occurrence of a character in string
 419:..\..\..\..\wpa_supplicant\src/utils/os.h ****  * @s: String
 420:..\..\..\..\wpa_supplicant\src/utils/os.h ****  * @c: Character to search for
 421:..\..\..\..\wpa_supplicant\src/utils/os.h ****  * Returns: Pointer to the matched character or %NULL if not found
 422:..\..\..\..\wpa_supplicant\src/utils/os.h ****  */
 423:..\..\..\..\wpa_supplicant\src/utils/os.h **** char * os_strrchr(const char *s, int c);
 424:..\..\..\..\wpa_supplicant\src/utils/os.h **** 
 425:..\..\..\..\wpa_supplicant\src/utils/os.h **** /**
 426:..\..\..\..\wpa_supplicant\src/utils/os.h ****  * os_strcmp - Compare two strings
 427:..\..\..\..\wpa_supplicant\src/utils/os.h ****  * @s1: First string
 428:..\..\..\..\wpa_supplicant\src/utils/os.h ****  * @s2: Second string
 429:..\..\..\..\wpa_supplicant\src/utils/os.h ****  * Returns: An integer less than, equal to, or greater than zero if s1 is
 430:..\..\..\..\wpa_supplicant\src/utils/os.h ****  * found to be less than, to match, or be greatred than s2
 431:..\..\..\..\wpa_supplicant\src/utils/os.h ****  */
 432:..\..\..\..\wpa_supplicant\src/utils/os.h **** int os_strcmp(const char *s1, const char *s2);
 433:..\..\..\..\wpa_supplicant\src/utils/os.h **** 
 434:..\..\..\..\wpa_supplicant\src/utils/os.h **** /**
 435:..\..\..\..\wpa_supplicant\src/utils/os.h ****  * os_strncmp - Compare two strings
 436:..\..\..\..\wpa_supplicant\src/utils/os.h ****  * @s1: First string
 437:..\..\..\..\wpa_supplicant\src/utils/os.h ****  * @s2: Second string
 438:..\..\..\..\wpa_supplicant\src/utils/os.h ****  * @n: Maximum numbers of characters to compare
 439:..\..\..\..\wpa_supplicant\src/utils/os.h ****  * Returns: An integer less than, equal to, or greater than zero if s1 is
 440:..\..\..\..\wpa_supplicant\src/utils/os.h ****  * found to be less than, to match, or be greater than s2. Only first n
 441:..\..\..\..\wpa_supplicant\src/utils/os.h ****  * characters will be compared.
 442:..\..\..\..\wpa_supplicant\src/utils/os.h ****  */
 443:..\..\..\..\wpa_supplicant\src/utils/os.h **** int os_strncmp(const char *s1, const char *s2, size_t n);
 444:..\..\..\..\wpa_supplicant\src/utils/os.h **** 
 445:..\..\..\..\wpa_supplicant\src/utils/os.h **** /**
 446:..\..\..\..\wpa_supplicant\src/utils/os.h ****  * os_strstr - Locate a substring
 447:..\..\..\..\wpa_supplicant\src/utils/os.h ****  * @haystack: String (haystack) to search from
 448:..\..\..\..\wpa_supplicant\src/utils/os.h ****  * @needle: Needle to search from haystack
 449:..\..\..\..\wpa_supplicant\src/utils/os.h ****  * Returns: Pointer to the beginning of the substring or %NULL if not found
 450:..\..\..\..\wpa_supplicant\src/utils/os.h ****  */
 451:..\..\..\..\wpa_supplicant\src/utils/os.h **** char * os_strstr(const char *haystack, const char *needle);
 452:..\..\..\..\wpa_supplicant\src/utils/os.h **** 
 453:..\..\..\..\wpa_supplicant\src/utils/os.h **** /**
 454:..\..\..\..\wpa_supplicant\src/utils/os.h ****  * os_snprintf - Print to a memory buffer
 455:..\..\..\..\wpa_supplicant\src/utils/os.h ****  * @str: Memory buffer to print into
 456:..\..\..\..\wpa_supplicant\src/utils/os.h ****  * @size: Maximum length of the str buffer
 457:..\..\..\..\wpa_supplicant\src/utils/os.h ****  * @format: printf format
 458:..\..\..\..\wpa_supplicant\src/utils/os.h ****  * Returns: Number of characters printed (not including trailing '\0').
 459:..\..\..\..\wpa_supplicant\src/utils/os.h ****  *
 460:..\..\..\..\wpa_supplicant\src/utils/os.h ****  * If the output buffer is truncated, number of characters which would have
 461:..\..\..\..\wpa_supplicant\src/utils/os.h ****  * been written is returned. Since some C libraries return -1 in such a case,
 462:..\..\..\..\wpa_supplicant\src/utils/os.h ****  * the caller must be prepared on that value, too, to indicate truncation.
 463:..\..\..\..\wpa_supplicant\src/utils/os.h ****  *
 464:..\..\..\..\wpa_supplicant\src/utils/os.h ****  * Note: Some C library implementations of snprintf() may not guarantee null
 465:..\..\..\..\wpa_supplicant\src/utils/os.h ****  * termination in case the output is truncated. The OS wrapper function of
 466:..\..\..\..\wpa_supplicant\src/utils/os.h ****  * os_snprintf() should provide this guarantee, i.e., to null terminate the
 467:..\..\..\..\wpa_supplicant\src/utils/os.h ****  * output buffer if a C library version of the function is used and if that
 468:..\..\..\..\wpa_supplicant\src/utils/os.h ****  * function does not guarantee null termination.
 469:..\..\..\..\wpa_supplicant\src/utils/os.h ****  *
 470:..\..\..\..\wpa_supplicant\src/utils/os.h ****  * If the target system does not include snprintf(), see, e.g.,
 471:..\..\..\..\wpa_supplicant\src/utils/os.h ****  * http://www.ijs.si/software/snprintf/ for an example of a portable
 472:..\..\..\..\wpa_supplicant\src/utils/os.h ****  * implementation of snprintf.
 473:..\..\..\..\wpa_supplicant\src/utils/os.h ****  */
 474:..\..\..\..\wpa_supplicant\src/utils/os.h **** int os_snprintf(char *str, size_t size, const char *format, ...);
 475:..\..\..\..\wpa_supplicant\src/utils/os.h **** 
 476:..\..\..\..\wpa_supplicant\src/utils/os.h **** #else /* OS_NO_C_LIB_DEFINES */
 477:..\..\..\..\wpa_supplicant\src/utils/os.h **** 
 478:..\..\..\..\wpa_supplicant\src/utils/os.h **** #ifdef WPA_TRACE
 479:..\..\..\..\wpa_supplicant\src/utils/os.h **** void * os_malloc(size_t size);
 480:..\..\..\..\wpa_supplicant\src/utils/os.h **** void * os_realloc(void *ptr, size_t size);
 481:..\..\..\..\wpa_supplicant\src/utils/os.h **** void os_free(void *ptr);
 482:..\..\..\..\wpa_supplicant\src/utils/os.h **** char * os_strdup(const char *s);
 483:..\..\..\..\wpa_supplicant\src/utils/os.h **** #else /* WPA_TRACE */
 484:..\..\..\..\wpa_supplicant\src/utils/os.h **** #ifndef os_malloc
 485:..\..\..\..\wpa_supplicant\src/utils/os.h **** #define os_malloc(s) malloc((s))
 486:..\..\..\..\wpa_supplicant\src/utils/os.h **** #endif
 487:..\..\..\..\wpa_supplicant\src/utils/os.h **** #ifndef os_realloc
 488:..\..\..\..\wpa_supplicant\src/utils/os.h **** #define os_realloc(p, s) realloc((p), (s))
 489:..\..\..\..\wpa_supplicant\src/utils/os.h **** #endif
 490:..\..\..\..\wpa_supplicant\src/utils/os.h **** #ifndef os_free
 491:..\..\..\..\wpa_supplicant\src/utils/os.h **** #define os_free(p) free((p))
 492:..\..\..\..\wpa_supplicant\src/utils/os.h **** #endif
 493:..\..\..\..\wpa_supplicant\src/utils/os.h **** #ifndef os_strdup
 494:..\..\..\..\wpa_supplicant\src/utils/os.h **** #ifdef _MSC_VER
 495:..\..\..\..\wpa_supplicant\src/utils/os.h **** #define os_strdup(s) _strdup(s)
 496:..\..\..\..\wpa_supplicant\src/utils/os.h **** #else
 497:..\..\..\..\wpa_supplicant\src/utils/os.h **** #define os_strdup(s) strdup(s)
 498:..\..\..\..\wpa_supplicant\src/utils/os.h **** #endif
 499:..\..\..\..\wpa_supplicant\src/utils/os.h **** #endif
 500:..\..\..\..\wpa_supplicant\src/utils/os.h **** #endif /* WPA_TRACE */
 501:..\..\..\..\wpa_supplicant\src/utils/os.h **** 
 502:..\..\..\..\wpa_supplicant\src/utils/os.h **** #ifndef os_memcpy
 503:..\..\..\..\wpa_supplicant\src/utils/os.h **** #define os_memcpy(d, s, n) memcpy((d), (s), (n))
 504:..\..\..\..\wpa_supplicant\src/utils/os.h **** #endif
 505:..\..\..\..\wpa_supplicant\src/utils/os.h **** #ifndef os_memmove
 506:..\..\..\..\wpa_supplicant\src/utils/os.h **** #define os_memmove(d, s, n) memmove((d), (s), (n))
 507:..\..\..\..\wpa_supplicant\src/utils/os.h **** #endif
 508:..\..\..\..\wpa_supplicant\src/utils/os.h **** #ifndef os_memset
 509:..\..\..\..\wpa_supplicant\src/utils/os.h **** #define os_memset(s, c, n) memset(s, c, n)
 510:..\..\..\..\wpa_supplicant\src/utils/os.h **** #endif
 511:..\..\..\..\wpa_supplicant\src/utils/os.h **** #ifndef os_memcmp
 512:..\..\..\..\wpa_supplicant\src/utils/os.h **** #define os_memcmp(s1, s2, n) memcmp((s1), (s2), (n))
 513:..\..\..\..\wpa_supplicant\src/utils/os.h **** #endif
 514:..\..\..\..\wpa_supplicant\src/utils/os.h **** 
 515:..\..\..\..\wpa_supplicant\src/utils/os.h **** #ifndef os_strlen
 516:..\..\..\..\wpa_supplicant\src/utils/os.h **** #define os_strlen(s) strlen(s)
 517:..\..\..\..\wpa_supplicant\src/utils/os.h **** #endif
 518:..\..\..\..\wpa_supplicant\src/utils/os.h **** #ifndef os_strcasecmp
 519:..\..\..\..\wpa_supplicant\src/utils/os.h **** #ifdef _MSC_VER
 520:..\..\..\..\wpa_supplicant\src/utils/os.h **** #define os_strcasecmp(s1, s2) _stricmp((s1), (s2))
 521:..\..\..\..\wpa_supplicant\src/utils/os.h **** #else
 522:..\..\..\..\wpa_supplicant\src/utils/os.h **** #define os_strcasecmp(s1, s2) strcasecmp((s1), (s2))
 523:..\..\..\..\wpa_supplicant\src/utils/os.h **** #endif
 524:..\..\..\..\wpa_supplicant\src/utils/os.h **** #endif
 525:..\..\..\..\wpa_supplicant\src/utils/os.h **** #ifndef os_strncasecmp
 526:..\..\..\..\wpa_supplicant\src/utils/os.h **** #ifdef _MSC_VER
 527:..\..\..\..\wpa_supplicant\src/utils/os.h **** #define os_strncasecmp(s1, s2, n) _strnicmp((s1), (s2), (n))
 528:..\..\..\..\wpa_supplicant\src/utils/os.h **** #else
 529:..\..\..\..\wpa_supplicant\src/utils/os.h **** #define os_strncasecmp(s1, s2, n) strncasecmp((s1), (s2), (n))
 530:..\..\..\..\wpa_supplicant\src/utils/os.h **** #endif
 531:..\..\..\..\wpa_supplicant\src/utils/os.h **** #endif
 532:..\..\..\..\wpa_supplicant\src/utils/os.h **** #ifndef os_strchr
 533:..\..\..\..\wpa_supplicant\src/utils/os.h **** #define os_strchr(s, c) strchr((s), (c))
 534:..\..\..\..\wpa_supplicant\src/utils/os.h **** #endif
 535:..\..\..\..\wpa_supplicant\src/utils/os.h **** #ifndef os_strcmp
 536:..\..\..\..\wpa_supplicant\src/utils/os.h **** #define os_strcmp(s1, s2) strcmp((s1), (s2))
 537:..\..\..\..\wpa_supplicant\src/utils/os.h **** #endif
 538:..\..\..\..\wpa_supplicant\src/utils/os.h **** #ifndef os_strncmp
 539:..\..\..\..\wpa_supplicant\src/utils/os.h **** #define os_strncmp(s1, s2, n) strncmp((s1), (s2), (n))
 540:..\..\..\..\wpa_supplicant\src/utils/os.h **** #endif
 541:..\..\..\..\wpa_supplicant\src/utils/os.h **** #ifndef os_strrchr
 542:..\..\..\..\wpa_supplicant\src/utils/os.h **** #define os_strrchr(s, c) strrchr((s), (c))
 543:..\..\..\..\wpa_supplicant\src/utils/os.h **** #endif
 544:..\..\..\..\wpa_supplicant\src/utils/os.h **** #ifndef os_strstr
 545:..\..\..\..\wpa_supplicant\src/utils/os.h **** #define os_strstr(h, n) strstr((h), (n))
 546:..\..\..\..\wpa_supplicant\src/utils/os.h **** #endif
 547:..\..\..\..\wpa_supplicant\src/utils/os.h **** 
 548:..\..\..\..\wpa_supplicant\src/utils/os.h **** #ifndef os_snprintf
 549:..\..\..\..\wpa_supplicant\src/utils/os.h **** #ifdef _MSC_VER
 550:..\..\..\..\wpa_supplicant\src/utils/os.h **** #define os_snprintf _snprintf
 551:..\..\..\..\wpa_supplicant\src/utils/os.h **** #else
 552:..\..\..\..\wpa_supplicant\src/utils/os.h **** #define os_snprintf snprintf
 553:..\..\..\..\wpa_supplicant\src/utils/os.h **** #endif
 554:..\..\..\..\wpa_supplicant\src/utils/os.h **** #endif
 555:..\..\..\..\wpa_supplicant\src/utils/os.h **** 
 556:..\..\..\..\wpa_supplicant\src/utils/os.h **** #endif /* OS_NO_C_LIB_DEFINES */
 557:..\..\..\..\wpa_supplicant\src/utils/os.h **** 
 558:..\..\..\..\wpa_supplicant\src/utils/os.h **** 
 559:..\..\..\..\wpa_supplicant\src/utils/os.h **** static inline int os_snprintf_error(size_t size, int res)
 560:..\..\..\..\wpa_supplicant\src/utils/os.h **** {
 561:..\..\..\..\wpa_supplicant\src/utils/os.h **** 	return res < 0 || (unsigned int) res >= size;
 455              		.loc 3 561 2 discriminator 16
 456              		.loc 3 561 17 is_stmt 0 discriminator 16
 457 0132 E34A05F0 		blt	a0,zero,.L28
 458              		.loc 3 561 17
 459 0136 F255     		lw	a1,60(sp)
 460 0138 E377B5F0 		bleu	a1,a0,.L28
 461              	.LVL31:
 462              	.LBE37:
 463              	.LBE36:
  85:C:/Users/stapi/OneDrive/Desktop/GD32VW553/V1_MQTT_OK/GD32VW55X_Wifi_BLE_SDK/GD32VW55x_RELEASE_V1.0.2/MSDK/wpa_supplicant/src/ap\neighbor_db.c **** 	}
 464              		.loc 1 85 3 is_stmt 1
 465              	.LBE39:
  46:C:/Users/stapi/OneDrive/Desktop/GD32VW553/V1_MQTT_OK/GD32VW55X_Wifi_BLE_SDK/GD32VW55x_RELEASE_V1.0.2/MSDK/wpa_supplicant/src/ap\neighbor_db.c **** 			 list) {
 466              		.loc 1 46 2 is_stmt 0
 467 013c 0040     		lw	s0,0(s0)
 468              	.LVL32:
 469              	.LBB40:
  85:C:/Users/stapi/OneDrive/Desktop/GD32VW553/V1_MQTT_OK/GD32VW55X_Wifi_BLE_SDK/GD32VW55x_RELEASE_V1.0.2/MSDK/wpa_supplicant/src/ap\neighbor_db.c **** 	}
 470              		.loc 1 85 7
 471 013e 2A9A     		add	s4,s4,a0
 472              	.LVL33:
 473              	.LBE40:
  46:C:/Users/stapi/OneDrive/Desktop/GD32VW553/V1_MQTT_OK/GD32VW55X_Wifi_BLE_SDK/GD32VW55x_RELEASE_V1.0.2/MSDK/wpa_supplicant/src/ap\neighbor_db.c **** 			 list) {
 474              		.loc 1 46 2 is_stmt 1
 475 0140 09B7     		j	.L19
 476              	.LVL34:
 477              	.L33:
 478              	.LBB41:
  76:C:/Users/stapi/OneDrive/Desktop/GD32VW553/V1_MQTT_OK/GD32VW55X_Wifi_BLE_SDK/GD32VW55x_RELEASE_V1.0.2/MSDK/wpa_supplicant/src/ap\neighbor_db.c **** 				  " ssid=%s%s%s%s%s%s%s%s\n",
 479              		.loc 1 76 9 is_stmt 0
 480 0142 37060000 		lui	a2,%hi(.LC4)
 481 0146 13060600 		addi	a2,a2,%lo(.LC4)
 482 014a C9B7     		j	.L26
 483              	.LBE41:
 484              		.cfi_endproc
 485              	.LFE138:
 487              		.section	.text.hostapd_neighbor_remove,"ax",@progbits
 488              		.align	1
 489              		.globl	hostapd_neighbor_remove
 491              	hostapd_neighbor_remove:
 492              	.LFB142:
 104:C:/Users/stapi/OneDrive/Desktop/GD32VW553/V1_MQTT_OK/GD32VW55X_Wifi_BLE_SDK/GD32VW55x_RELEASE_V1.0.2/MSDK/wpa_supplicant/src/ap\neighbor_db.c **** 
 105:C:/Users/stapi/OneDrive/Desktop/GD32VW553/V1_MQTT_OK/GD32VW55X_Wifi_BLE_SDK/GD32VW55x_RELEASE_V1.0.2/MSDK/wpa_supplicant/src/ap\neighbor_db.c **** 
 106:C:/Users/stapi/OneDrive/Desktop/GD32VW553/V1_MQTT_OK/GD32VW55X_Wifi_BLE_SDK/GD32VW55x_RELEASE_V1.0.2/MSDK/wpa_supplicant/src/ap\neighbor_db.c **** static struct hostapd_neighbor_entry *
 107:C:/Users/stapi/OneDrive/Desktop/GD32VW553/V1_MQTT_OK/GD32VW55X_Wifi_BLE_SDK/GD32VW55x_RELEASE_V1.0.2/MSDK/wpa_supplicant/src/ap\neighbor_db.c **** hostapd_neighbor_add(struct hostapd_data *hapd)
 108:C:/Users/stapi/OneDrive/Desktop/GD32VW553/V1_MQTT_OK/GD32VW55X_Wifi_BLE_SDK/GD32VW55x_RELEASE_V1.0.2/MSDK/wpa_supplicant/src/ap\neighbor_db.c **** {
 109:C:/Users/stapi/OneDrive/Desktop/GD32VW553/V1_MQTT_OK/GD32VW55X_Wifi_BLE_SDK/GD32VW55x_RELEASE_V1.0.2/MSDK/wpa_supplicant/src/ap\neighbor_db.c **** 	struct hostapd_neighbor_entry *nr;
 110:C:/Users/stapi/OneDrive/Desktop/GD32VW553/V1_MQTT_OK/GD32VW55X_Wifi_BLE_SDK/GD32VW55x_RELEASE_V1.0.2/MSDK/wpa_supplicant/src/ap\neighbor_db.c **** 
 111:C:/Users/stapi/OneDrive/Desktop/GD32VW553/V1_MQTT_OK/GD32VW55X_Wifi_BLE_SDK/GD32VW55x_RELEASE_V1.0.2/MSDK/wpa_supplicant/src/ap\neighbor_db.c **** 	nr = os_zalloc(sizeof(struct hostapd_neighbor_entry));
 112:C:/Users/stapi/OneDrive/Desktop/GD32VW553/V1_MQTT_OK/GD32VW55X_Wifi_BLE_SDK/GD32VW55x_RELEASE_V1.0.2/MSDK/wpa_supplicant/src/ap\neighbor_db.c **** 	if (!nr)
 113:C:/Users/stapi/OneDrive/Desktop/GD32VW553/V1_MQTT_OK/GD32VW55X_Wifi_BLE_SDK/GD32VW55x_RELEASE_V1.0.2/MSDK/wpa_supplicant/src/ap\neighbor_db.c **** 		return NULL;
 114:C:/Users/stapi/OneDrive/Desktop/GD32VW553/V1_MQTT_OK/GD32VW55X_Wifi_BLE_SDK/GD32VW55x_RELEASE_V1.0.2/MSDK/wpa_supplicant/src/ap\neighbor_db.c **** 
 115:C:/Users/stapi/OneDrive/Desktop/GD32VW553/V1_MQTT_OK/GD32VW55X_Wifi_BLE_SDK/GD32VW55x_RELEASE_V1.0.2/MSDK/wpa_supplicant/src/ap\neighbor_db.c **** 	dl_list_add(&hapd->nr_db, &nr->list);
 116:C:/Users/stapi/OneDrive/Desktop/GD32VW553/V1_MQTT_OK/GD32VW55X_Wifi_BLE_SDK/GD32VW55x_RELEASE_V1.0.2/MSDK/wpa_supplicant/src/ap\neighbor_db.c **** 
 117:C:/Users/stapi/OneDrive/Desktop/GD32VW553/V1_MQTT_OK/GD32VW55X_Wifi_BLE_SDK/GD32VW55x_RELEASE_V1.0.2/MSDK/wpa_supplicant/src/ap\neighbor_db.c **** 	return nr;
 118:C:/Users/stapi/OneDrive/Desktop/GD32VW553/V1_MQTT_OK/GD32VW55X_Wifi_BLE_SDK/GD32VW55x_RELEASE_V1.0.2/MSDK/wpa_supplicant/src/ap\neighbor_db.c **** }
 119:C:/Users/stapi/OneDrive/Desktop/GD32VW553/V1_MQTT_OK/GD32VW55X_Wifi_BLE_SDK/GD32VW55x_RELEASE_V1.0.2/MSDK/wpa_supplicant/src/ap\neighbor_db.c **** 
 120:C:/Users/stapi/OneDrive/Desktop/GD32VW553/V1_MQTT_OK/GD32VW55X_Wifi_BLE_SDK/GD32VW55x_RELEASE_V1.0.2/MSDK/wpa_supplicant/src/ap\neighbor_db.c **** 
 121:C:/Users/stapi/OneDrive/Desktop/GD32VW553/V1_MQTT_OK/GD32VW55X_Wifi_BLE_SDK/GD32VW55x_RELEASE_V1.0.2/MSDK/wpa_supplicant/src/ap\neighbor_db.c **** int hostapd_neighbor_set(struct hostapd_data *hapd, const u8 *bssid,
 122:C:/Users/stapi/OneDrive/Desktop/GD32VW553/V1_MQTT_OK/GD32VW55X_Wifi_BLE_SDK/GD32VW55x_RELEASE_V1.0.2/MSDK/wpa_supplicant/src/ap\neighbor_db.c **** 			 const struct wpa_ssid_value *ssid,
 123:C:/Users/stapi/OneDrive/Desktop/GD32VW553/V1_MQTT_OK/GD32VW55X_Wifi_BLE_SDK/GD32VW55x_RELEASE_V1.0.2/MSDK/wpa_supplicant/src/ap\neighbor_db.c **** 			 const struct wpabuf *nr, const struct wpabuf *lci,
 124:C:/Users/stapi/OneDrive/Desktop/GD32VW553/V1_MQTT_OK/GD32VW55X_Wifi_BLE_SDK/GD32VW55x_RELEASE_V1.0.2/MSDK/wpa_supplicant/src/ap\neighbor_db.c **** 			 const struct wpabuf *civic, int stationary,
 125:C:/Users/stapi/OneDrive/Desktop/GD32VW553/V1_MQTT_OK/GD32VW55X_Wifi_BLE_SDK/GD32VW55x_RELEASE_V1.0.2/MSDK/wpa_supplicant/src/ap\neighbor_db.c **** 			 u8 bss_parameters)
 126:C:/Users/stapi/OneDrive/Desktop/GD32VW553/V1_MQTT_OK/GD32VW55X_Wifi_BLE_SDK/GD32VW55x_RELEASE_V1.0.2/MSDK/wpa_supplicant/src/ap\neighbor_db.c **** {
 127:C:/Users/stapi/OneDrive/Desktop/GD32VW553/V1_MQTT_OK/GD32VW55X_Wifi_BLE_SDK/GD32VW55x_RELEASE_V1.0.2/MSDK/wpa_supplicant/src/ap\neighbor_db.c **** 	struct hostapd_neighbor_entry *entry;
 128:C:/Users/stapi/OneDrive/Desktop/GD32VW553/V1_MQTT_OK/GD32VW55X_Wifi_BLE_SDK/GD32VW55x_RELEASE_V1.0.2/MSDK/wpa_supplicant/src/ap\neighbor_db.c **** 
 129:C:/Users/stapi/OneDrive/Desktop/GD32VW553/V1_MQTT_OK/GD32VW55X_Wifi_BLE_SDK/GD32VW55x_RELEASE_V1.0.2/MSDK/wpa_supplicant/src/ap\neighbor_db.c **** 	entry = hostapd_neighbor_get(hapd, bssid, ssid);
 130:C:/Users/stapi/OneDrive/Desktop/GD32VW553/V1_MQTT_OK/GD32VW55X_Wifi_BLE_SDK/GD32VW55x_RELEASE_V1.0.2/MSDK/wpa_supplicant/src/ap\neighbor_db.c **** 	if (!entry)
 131:C:/Users/stapi/OneDrive/Desktop/GD32VW553/V1_MQTT_OK/GD32VW55X_Wifi_BLE_SDK/GD32VW55x_RELEASE_V1.0.2/MSDK/wpa_supplicant/src/ap\neighbor_db.c **** 		entry = hostapd_neighbor_add(hapd);
 132:C:/Users/stapi/OneDrive/Desktop/GD32VW553/V1_MQTT_OK/GD32VW55X_Wifi_BLE_SDK/GD32VW55x_RELEASE_V1.0.2/MSDK/wpa_supplicant/src/ap\neighbor_db.c **** 	if (!entry)
 133:C:/Users/stapi/OneDrive/Desktop/GD32VW553/V1_MQTT_OK/GD32VW55X_Wifi_BLE_SDK/GD32VW55x_RELEASE_V1.0.2/MSDK/wpa_supplicant/src/ap\neighbor_db.c **** 		return -1;
 134:C:/Users/stapi/OneDrive/Desktop/GD32VW553/V1_MQTT_OK/GD32VW55X_Wifi_BLE_SDK/GD32VW55x_RELEASE_V1.0.2/MSDK/wpa_supplicant/src/ap\neighbor_db.c **** 
 135:C:/Users/stapi/OneDrive/Desktop/GD32VW553/V1_MQTT_OK/GD32VW55X_Wifi_BLE_SDK/GD32VW55x_RELEASE_V1.0.2/MSDK/wpa_supplicant/src/ap\neighbor_db.c **** 	hostapd_neighbor_clear_entry(entry);
 136:C:/Users/stapi/OneDrive/Desktop/GD32VW553/V1_MQTT_OK/GD32VW55X_Wifi_BLE_SDK/GD32VW55x_RELEASE_V1.0.2/MSDK/wpa_supplicant/src/ap\neighbor_db.c **** 
 137:C:/Users/stapi/OneDrive/Desktop/GD32VW553/V1_MQTT_OK/GD32VW55X_Wifi_BLE_SDK/GD32VW55x_RELEASE_V1.0.2/MSDK/wpa_supplicant/src/ap\neighbor_db.c **** 	os_memcpy(entry->bssid, bssid, ETH_ALEN);
 138:C:/Users/stapi/OneDrive/Desktop/GD32VW553/V1_MQTT_OK/GD32VW55X_Wifi_BLE_SDK/GD32VW55x_RELEASE_V1.0.2/MSDK/wpa_supplicant/src/ap\neighbor_db.c **** 	os_memcpy(&entry->ssid, ssid, sizeof(entry->ssid));
 139:C:/Users/stapi/OneDrive/Desktop/GD32VW553/V1_MQTT_OK/GD32VW55X_Wifi_BLE_SDK/GD32VW55x_RELEASE_V1.0.2/MSDK/wpa_supplicant/src/ap\neighbor_db.c **** 	entry->short_ssid = crc32(ssid->ssid, ssid->ssid_len);
 140:C:/Users/stapi/OneDrive/Desktop/GD32VW553/V1_MQTT_OK/GD32VW55X_Wifi_BLE_SDK/GD32VW55x_RELEASE_V1.0.2/MSDK/wpa_supplicant/src/ap\neighbor_db.c **** 
 141:C:/Users/stapi/OneDrive/Desktop/GD32VW553/V1_MQTT_OK/GD32VW55X_Wifi_BLE_SDK/GD32VW55x_RELEASE_V1.0.2/MSDK/wpa_supplicant/src/ap\neighbor_db.c **** 	entry->nr = wpabuf_dup(nr);
 142:C:/Users/stapi/OneDrive/Desktop/GD32VW553/V1_MQTT_OK/GD32VW55X_Wifi_BLE_SDK/GD32VW55x_RELEASE_V1.0.2/MSDK/wpa_supplicant/src/ap\neighbor_db.c **** 	if (!entry->nr)
 143:C:/Users/stapi/OneDrive/Desktop/GD32VW553/V1_MQTT_OK/GD32VW55X_Wifi_BLE_SDK/GD32VW55x_RELEASE_V1.0.2/MSDK/wpa_supplicant/src/ap\neighbor_db.c **** 		goto fail;
 144:C:/Users/stapi/OneDrive/Desktop/GD32VW553/V1_MQTT_OK/GD32VW55X_Wifi_BLE_SDK/GD32VW55x_RELEASE_V1.0.2/MSDK/wpa_supplicant/src/ap\neighbor_db.c **** 
 145:C:/Users/stapi/OneDrive/Desktop/GD32VW553/V1_MQTT_OK/GD32VW55X_Wifi_BLE_SDK/GD32VW55x_RELEASE_V1.0.2/MSDK/wpa_supplicant/src/ap\neighbor_db.c **** 	if (lci && wpabuf_len(lci)) {
 146:C:/Users/stapi/OneDrive/Desktop/GD32VW553/V1_MQTT_OK/GD32VW55X_Wifi_BLE_SDK/GD32VW55x_RELEASE_V1.0.2/MSDK/wpa_supplicant/src/ap\neighbor_db.c **** 		entry->lci = wpabuf_dup(lci);
 147:C:/Users/stapi/OneDrive/Desktop/GD32VW553/V1_MQTT_OK/GD32VW55X_Wifi_BLE_SDK/GD32VW55x_RELEASE_V1.0.2/MSDK/wpa_supplicant/src/ap\neighbor_db.c **** 		if (!entry->lci || os_get_time(&entry->lci_date))
 148:C:/Users/stapi/OneDrive/Desktop/GD32VW553/V1_MQTT_OK/GD32VW55X_Wifi_BLE_SDK/GD32VW55x_RELEASE_V1.0.2/MSDK/wpa_supplicant/src/ap\neighbor_db.c **** 			goto fail;
 149:C:/Users/stapi/OneDrive/Desktop/GD32VW553/V1_MQTT_OK/GD32VW55X_Wifi_BLE_SDK/GD32VW55x_RELEASE_V1.0.2/MSDK/wpa_supplicant/src/ap\neighbor_db.c **** 	}
 150:C:/Users/stapi/OneDrive/Desktop/GD32VW553/V1_MQTT_OK/GD32VW55X_Wifi_BLE_SDK/GD32VW55x_RELEASE_V1.0.2/MSDK/wpa_supplicant/src/ap\neighbor_db.c **** 
 151:C:/Users/stapi/OneDrive/Desktop/GD32VW553/V1_MQTT_OK/GD32VW55X_Wifi_BLE_SDK/GD32VW55x_RELEASE_V1.0.2/MSDK/wpa_supplicant/src/ap\neighbor_db.c **** 	if (civic && wpabuf_len(civic)) {
 152:C:/Users/stapi/OneDrive/Desktop/GD32VW553/V1_MQTT_OK/GD32VW55X_Wifi_BLE_SDK/GD32VW55x_RELEASE_V1.0.2/MSDK/wpa_supplicant/src/ap\neighbor_db.c **** 		entry->civic = wpabuf_dup(civic);
 153:C:/Users/stapi/OneDrive/Desktop/GD32VW553/V1_MQTT_OK/GD32VW55X_Wifi_BLE_SDK/GD32VW55x_RELEASE_V1.0.2/MSDK/wpa_supplicant/src/ap\neighbor_db.c **** 		if (!entry->civic)
 154:C:/Users/stapi/OneDrive/Desktop/GD32VW553/V1_MQTT_OK/GD32VW55X_Wifi_BLE_SDK/GD32VW55x_RELEASE_V1.0.2/MSDK/wpa_supplicant/src/ap\neighbor_db.c **** 			goto fail;
 155:C:/Users/stapi/OneDrive/Desktop/GD32VW553/V1_MQTT_OK/GD32VW55X_Wifi_BLE_SDK/GD32VW55x_RELEASE_V1.0.2/MSDK/wpa_supplicant/src/ap\neighbor_db.c **** 	}
 156:C:/Users/stapi/OneDrive/Desktop/GD32VW553/V1_MQTT_OK/GD32VW55X_Wifi_BLE_SDK/GD32VW55x_RELEASE_V1.0.2/MSDK/wpa_supplicant/src/ap\neighbor_db.c **** 
 157:C:/Users/stapi/OneDrive/Desktop/GD32VW553/V1_MQTT_OK/GD32VW55X_Wifi_BLE_SDK/GD32VW55x_RELEASE_V1.0.2/MSDK/wpa_supplicant/src/ap\neighbor_db.c **** 	entry->stationary = stationary;
 158:C:/Users/stapi/OneDrive/Desktop/GD32VW553/V1_MQTT_OK/GD32VW55X_Wifi_BLE_SDK/GD32VW55x_RELEASE_V1.0.2/MSDK/wpa_supplicant/src/ap\neighbor_db.c **** 	entry->bss_parameters = bss_parameters;
 159:C:/Users/stapi/OneDrive/Desktop/GD32VW553/V1_MQTT_OK/GD32VW55X_Wifi_BLE_SDK/GD32VW55x_RELEASE_V1.0.2/MSDK/wpa_supplicant/src/ap\neighbor_db.c **** 
 160:C:/Users/stapi/OneDrive/Desktop/GD32VW553/V1_MQTT_OK/GD32VW55X_Wifi_BLE_SDK/GD32VW55x_RELEASE_V1.0.2/MSDK/wpa_supplicant/src/ap\neighbor_db.c **** 	return 0;
 161:C:/Users/stapi/OneDrive/Desktop/GD32VW553/V1_MQTT_OK/GD32VW55X_Wifi_BLE_SDK/GD32VW55x_RELEASE_V1.0.2/MSDK/wpa_supplicant/src/ap\neighbor_db.c **** 
 162:C:/Users/stapi/OneDrive/Desktop/GD32VW553/V1_MQTT_OK/GD32VW55X_Wifi_BLE_SDK/GD32VW55x_RELEASE_V1.0.2/MSDK/wpa_supplicant/src/ap\neighbor_db.c **** fail:
 163:C:/Users/stapi/OneDrive/Desktop/GD32VW553/V1_MQTT_OK/GD32VW55X_Wifi_BLE_SDK/GD32VW55x_RELEASE_V1.0.2/MSDK/wpa_supplicant/src/ap\neighbor_db.c **** 	hostapd_neighbor_remove(hapd, bssid, ssid);
 164:C:/Users/stapi/OneDrive/Desktop/GD32VW553/V1_MQTT_OK/GD32VW55X_Wifi_BLE_SDK/GD32VW55x_RELEASE_V1.0.2/MSDK/wpa_supplicant/src/ap\neighbor_db.c **** 	return -1;
 165:C:/Users/stapi/OneDrive/Desktop/GD32VW553/V1_MQTT_OK/GD32VW55X_Wifi_BLE_SDK/GD32VW55x_RELEASE_V1.0.2/MSDK/wpa_supplicant/src/ap\neighbor_db.c **** }
 166:C:/Users/stapi/OneDrive/Desktop/GD32VW553/V1_MQTT_OK/GD32VW55X_Wifi_BLE_SDK/GD32VW55x_RELEASE_V1.0.2/MSDK/wpa_supplicant/src/ap\neighbor_db.c **** 
 167:C:/Users/stapi/OneDrive/Desktop/GD32VW553/V1_MQTT_OK/GD32VW55X_Wifi_BLE_SDK/GD32VW55x_RELEASE_V1.0.2/MSDK/wpa_supplicant/src/ap\neighbor_db.c **** 
 168:C:/Users/stapi/OneDrive/Desktop/GD32VW553/V1_MQTT_OK/GD32VW55X_Wifi_BLE_SDK/GD32VW55x_RELEASE_V1.0.2/MSDK/wpa_supplicant/src/ap\neighbor_db.c **** int hostapd_neighbor_remove(struct hostapd_data *hapd, const u8 *bssid,
 169:C:/Users/stapi/OneDrive/Desktop/GD32VW553/V1_MQTT_OK/GD32VW55X_Wifi_BLE_SDK/GD32VW55x_RELEASE_V1.0.2/MSDK/wpa_supplicant/src/ap\neighbor_db.c **** 			    const struct wpa_ssid_value *ssid)
 170:C:/Users/stapi/OneDrive/Desktop/GD32VW553/V1_MQTT_OK/GD32VW55X_Wifi_BLE_SDK/GD32VW55x_RELEASE_V1.0.2/MSDK/wpa_supplicant/src/ap\neighbor_db.c **** {
 493              		.loc 1 170 1 is_stmt 1
 494              		.cfi_startproc
 495              	.LVL35:
 496 0000 17030000 		call	t0,__riscv_save_1
 496      E7020300 
 497              		.cfi_offset 8, -8
 498              		.cfi_offset 1, -4
 499              		.cfi_def_cfa_offset 16
 171:C:/Users/stapi/OneDrive/Desktop/GD32VW553/V1_MQTT_OK/GD32VW55X_Wifi_BLE_SDK/GD32VW55x_RELEASE_V1.0.2/MSDK/wpa_supplicant/src/ap\neighbor_db.c **** 	struct hostapd_neighbor_entry *nr;
 500              		.loc 1 171 2
 172:C:/Users/stapi/OneDrive/Desktop/GD32VW553/V1_MQTT_OK/GD32VW55X_Wifi_BLE_SDK/GD32VW55x_RELEASE_V1.0.2/MSDK/wpa_supplicant/src/ap\neighbor_db.c **** 
 173:C:/Users/stapi/OneDrive/Desktop/GD32VW553/V1_MQTT_OK/GD32VW55X_Wifi_BLE_SDK/GD32VW55x_RELEASE_V1.0.2/MSDK/wpa_supplicant/src/ap\neighbor_db.c **** 	nr = hostapd_neighbor_get(hapd, bssid, ssid);
 501              		.loc 1 173 2
 502              		.loc 1 173 7 is_stmt 0
 503 0008 97000000 		call	hostapd_neighbor_get
 503      E7800000 
 504              	.LVL36:
 174:C:/Users/stapi/OneDrive/Desktop/GD32VW553/V1_MQTT_OK/GD32VW55X_Wifi_BLE_SDK/GD32VW55x_RELEASE_V1.0.2/MSDK/wpa_supplicant/src/ap\neighbor_db.c **** 	if (!nr)
 505              		.loc 1 174 2 is_stmt 1
 506              		.loc 1 174 5 is_stmt 0
 507 0010 05C9     		beq	a0,zero,.L46
 508 0012 2A84     		mv	s0,a0
 175:C:/Users/stapi/OneDrive/Desktop/GD32VW553/V1_MQTT_OK/GD32VW55X_Wifi_BLE_SDK/GD32VW55x_RELEASE_V1.0.2/MSDK/wpa_supplicant/src/ap\neighbor_db.c **** 		return -1;
 176:C:/Users/stapi/OneDrive/Desktop/GD32VW553/V1_MQTT_OK/GD32VW55X_Wifi_BLE_SDK/GD32VW55x_RELEASE_V1.0.2/MSDK/wpa_supplicant/src/ap\neighbor_db.c **** 
 177:C:/Users/stapi/OneDrive/Desktop/GD32VW553/V1_MQTT_OK/GD32VW55X_Wifi_BLE_SDK/GD32VW55x_RELEASE_V1.0.2/MSDK/wpa_supplicant/src/ap\neighbor_db.c **** 	hostapd_neighbor_clear_entry(nr);
 509              		.loc 1 177 2 is_stmt 1
 510 0014 97000000 		call	hostapd_neighbor_clear_entry
 510      E7800000 
 511              	.LVL37:
 178:C:/Users/stapi/OneDrive/Desktop/GD32VW553/V1_MQTT_OK/GD32VW55X_Wifi_BLE_SDK/GD32VW55x_RELEASE_V1.0.2/MSDK/wpa_supplicant/src/ap\neighbor_db.c **** 	dl_list_del(&nr->list);
 512              		.loc 1 178 2
 513              	.LBB44:
 514              	.LBB45:
 515              		.file 4 "..\\..\\..\\..\\wpa_supplicant\\src/utils/list.h"
   1:..\..\..\..\wpa_supplicant\src/utils/list.h **** /*
   2:..\..\..\..\wpa_supplicant\src/utils/list.h ****  * Doubly-linked list
   3:..\..\..\..\wpa_supplicant\src/utils/list.h ****  * Copyright (c) 2009-2019, Jouni Malinen <j@w1.fi>
   4:..\..\..\..\wpa_supplicant\src/utils/list.h ****  *
   5:..\..\..\..\wpa_supplicant\src/utils/list.h ****  * This software may be distributed under the terms of the BSD license.
   6:..\..\..\..\wpa_supplicant\src/utils/list.h ****  * See README for more details.
   7:..\..\..\..\wpa_supplicant\src/utils/list.h ****  */
   8:..\..\..\..\wpa_supplicant\src/utils/list.h **** 
   9:..\..\..\..\wpa_supplicant\src/utils/list.h **** #ifndef DL_LIST_H
  10:..\..\..\..\wpa_supplicant\src/utils/list.h **** #define DL_LIST_H
  11:..\..\..\..\wpa_supplicant\src/utils/list.h **** 
  12:..\..\..\..\wpa_supplicant\src/utils/list.h **** /**
  13:..\..\..\..\wpa_supplicant\src/utils/list.h ****  * struct dl_list - Doubly-linked list
  14:..\..\..\..\wpa_supplicant\src/utils/list.h ****  */
  15:..\..\..\..\wpa_supplicant\src/utils/list.h **** struct dl_list {
  16:..\..\..\..\wpa_supplicant\src/utils/list.h **** 	struct dl_list *next;
  17:..\..\..\..\wpa_supplicant\src/utils/list.h **** 	struct dl_list *prev;
  18:..\..\..\..\wpa_supplicant\src/utils/list.h **** };
  19:..\..\..\..\wpa_supplicant\src/utils/list.h **** 
  20:..\..\..\..\wpa_supplicant\src/utils/list.h **** #define DL_LIST_HEAD_INIT(l) { &(l), &(l) }
  21:..\..\..\..\wpa_supplicant\src/utils/list.h **** 
  22:..\..\..\..\wpa_supplicant\src/utils/list.h **** static inline void dl_list_init(struct dl_list *list)
  23:..\..\..\..\wpa_supplicant\src/utils/list.h **** {
  24:..\..\..\..\wpa_supplicant\src/utils/list.h **** 	list->next = list;
  25:..\..\..\..\wpa_supplicant\src/utils/list.h **** 	list->prev = list;
  26:..\..\..\..\wpa_supplicant\src/utils/list.h **** }
  27:..\..\..\..\wpa_supplicant\src/utils/list.h **** 
  28:..\..\..\..\wpa_supplicant\src/utils/list.h **** static inline void dl_list_add(struct dl_list *list, struct dl_list *item)
  29:..\..\..\..\wpa_supplicant\src/utils/list.h **** {
  30:..\..\..\..\wpa_supplicant\src/utils/list.h **** 	item->next = list->next;
  31:..\..\..\..\wpa_supplicant\src/utils/list.h **** 	item->prev = list;
  32:..\..\..\..\wpa_supplicant\src/utils/list.h **** 	list->next->prev = item;
  33:..\..\..\..\wpa_supplicant\src/utils/list.h **** 	list->next = item;
  34:..\..\..\..\wpa_supplicant\src/utils/list.h **** }
  35:..\..\..\..\wpa_supplicant\src/utils/list.h **** 
  36:..\..\..\..\wpa_supplicant\src/utils/list.h **** static inline void dl_list_add_tail(struct dl_list *list, struct dl_list *item)
  37:..\..\..\..\wpa_supplicant\src/utils/list.h **** {
  38:..\..\..\..\wpa_supplicant\src/utils/list.h **** 	dl_list_add(list->prev, item);
  39:..\..\..\..\wpa_supplicant\src/utils/list.h **** }
  40:..\..\..\..\wpa_supplicant\src/utils/list.h **** 
  41:..\..\..\..\wpa_supplicant\src/utils/list.h **** static inline void dl_list_del(struct dl_list *item)
  42:..\..\..\..\wpa_supplicant\src/utils/list.h **** {
  43:..\..\..\..\wpa_supplicant\src/utils/list.h **** 	item->next->prev = item->prev;
 516              		.loc 4 43 2
 517              		.loc 4 43 6 is_stmt 0
 518 001c 1840     		lw	a4,0(s0)
 519              		.loc 4 43 25
 520 001e 5C40     		lw	a5,4(s0)
 521              	.LBE45:
 522              	.LBE44:
 179:C:/Users/stapi/OneDrive/Desktop/GD32VW553/V1_MQTT_OK/GD32VW55X_Wifi_BLE_SDK/GD32VW55x_RELEASE_V1.0.2/MSDK/wpa_supplicant/src/ap\neighbor_db.c **** 	os_free(nr);
 523              		.loc 1 179 2
 524 0020 2285     		mv	a0,s0
 525              	.LBB47:
 526              	.LBB46:
 527              		.loc 4 43 19
 528 0022 5CC3     		sw	a5,4(a4)
  44:..\..\..\..\wpa_supplicant\src/utils/list.h **** 	item->prev->next = item->next;
 529              		.loc 4 44 2 is_stmt 1
 530              		.loc 4 44 19 is_stmt 0
 531 0024 98C3     		sw	a4,0(a5)
  45:..\..\..\..\wpa_supplicant\src/utils/list.h **** 	item->next = NULL;
 532              		.loc 4 45 2 is_stmt 1
 533              		.loc 4 45 13 is_stmt 0
 534 0026 23200400 		sw	zero,0(s0)
  46:..\..\..\..\wpa_supplicant\src/utils/list.h **** 	item->prev = NULL;
 535              		.loc 4 46 2 is_stmt 1
 536              		.loc 4 46 13 is_stmt 0
 537 002a 23220400 		sw	zero,4(s0)
 538              	.LVL38:
 539              	.LBE46:
 540              	.LBE47:
 541              		.loc 1 179 2 is_stmt 1
 542 002e 97000000 		call	os_free
 542      E7800000 
 543              	.LVL39:
 180:C:/Users/stapi/OneDrive/Desktop/GD32VW553/V1_MQTT_OK/GD32VW55X_Wifi_BLE_SDK/GD32VW55x_RELEASE_V1.0.2/MSDK/wpa_supplicant/src/ap\neighbor_db.c **** 
 181:C:/Users/stapi/OneDrive/Desktop/GD32VW553/V1_MQTT_OK/GD32VW55X_Wifi_BLE_SDK/GD32VW55x_RELEASE_V1.0.2/MSDK/wpa_supplicant/src/ap\neighbor_db.c **** 	return 0;
 544              		.loc 1 181 2
 545              		.loc 1 181 9 is_stmt 0
 546 0036 0145     		li	a0,0
 547              	.LVL40:
 548              	.L44:
 182:C:/Users/stapi/OneDrive/Desktop/GD32VW553/V1_MQTT_OK/GD32VW55X_Wifi_BLE_SDK/GD32VW55x_RELEASE_V1.0.2/MSDK/wpa_supplicant/src/ap\neighbor_db.c **** }
 549              		.loc 1 182 1
 550 0038 17030000 		tail	__riscv_restore_1
 550      67000300 
 551              		.cfi_remember_state
 552              		.cfi_restore 8
 553              		.cfi_restore 1
 554              		.cfi_def_cfa_offset 0
 555              	.LVL41:
 556              	.L46:
 557              		.cfi_restore_state
 175:C:/Users/stapi/OneDrive/Desktop/GD32VW553/V1_MQTT_OK/GD32VW55X_Wifi_BLE_SDK/GD32VW55x_RELEASE_V1.0.2/MSDK/wpa_supplicant/src/ap\neighbor_db.c **** 
 558              		.loc 1 175 10
 559 0040 7D55     		li	a0,-1
 560              	.LVL42:
 561 0042 DDBF     		j	.L44
 562              		.cfi_endproc
 563              	.LFE142:
 565              		.section	.text.hostapd_neighbor_set,"ax",@progbits
 566              		.align	1
 567              		.globl	hostapd_neighbor_set
 569              	hostapd_neighbor_set:
 570              	.LFB141:
 126:C:/Users/stapi/OneDrive/Desktop/GD32VW553/V1_MQTT_OK/GD32VW55X_Wifi_BLE_SDK/GD32VW55x_RELEASE_V1.0.2/MSDK/wpa_supplicant/src/ap\neighbor_db.c **** 	struct hostapd_neighbor_entry *entry;
 571              		.loc 1 126 1 is_stmt 1
 572              		.cfi_startproc
 573              	.LVL43:
 574 0000 17030000 		call	t0,__riscv_save_9
 574      E7020300 
 575              		.cfi_offset 24, -40
 576              		.cfi_offset 23, -36
 577              		.cfi_offset 22, -32
 578              		.cfi_offset 21, -28
 579              		.cfi_offset 20, -24
 580              		.cfi_offset 19, -20
 581              		.cfi_offset 18, -16
 582              		.cfi_offset 9, -12
 583              		.cfi_offset 8, -8
 584              		.cfi_offset 1, -4
 585              		.cfi_def_cfa_offset 48
 127:C:/Users/stapi/OneDrive/Desktop/GD32VW553/V1_MQTT_OK/GD32VW55X_Wifi_BLE_SDK/GD32VW55x_RELEASE_V1.0.2/MSDK/wpa_supplicant/src/ap\neighbor_db.c **** 
 586              		.loc 1 127 2
 129:C:/Users/stapi/OneDrive/Desktop/GD32VW553/V1_MQTT_OK/GD32VW55X_Wifi_BLE_SDK/GD32VW55x_RELEASE_V1.0.2/MSDK/wpa_supplicant/src/ap\neighbor_db.c **** 	if (!entry)
 587              		.loc 1 129 2
 126:C:/Users/stapi/OneDrive/Desktop/GD32VW553/V1_MQTT_OK/GD32VW55X_Wifi_BLE_SDK/GD32VW55x_RELEASE_V1.0.2/MSDK/wpa_supplicant/src/ap\neighbor_db.c **** 	struct hostapd_neighbor_entry *entry;
 588              		.loc 1 126 1 is_stmt 0
 589 0008 2A89     		mv	s2,a0
 590 000a AE8A     		mv	s5,a1
 591 000c B284     		mv	s1,a2
 592 000e 368C     		mv	s8,a3
 593 0010 BA89     		mv	s3,a4
 594 0012 3E8A     		mv	s4,a5
 595 0014 428B     		mv	s6,a6
 596 0016 C68B     		mv	s7,a7
 129:C:/Users/stapi/OneDrive/Desktop/GD32VW553/V1_MQTT_OK/GD32VW55X_Wifi_BLE_SDK/GD32VW55x_RELEASE_V1.0.2/MSDK/wpa_supplicant/src/ap\neighbor_db.c **** 	if (!entry)
 597              		.loc 1 129 10
 598 0018 97000000 		call	hostapd_neighbor_get
 598      E7800000 
 599              	.LVL44:
 130:C:/Users/stapi/OneDrive/Desktop/GD32VW553/V1_MQTT_OK/GD32VW55X_Wifi_BLE_SDK/GD32VW55x_RELEASE_V1.0.2/MSDK/wpa_supplicant/src/ap\neighbor_db.c **** 		entry = hostapd_neighbor_add(hapd);
 600              		.loc 1 130 2 is_stmt 1
 601 0020 2A84     		mv	s0,a0
 130:C:/Users/stapi/OneDrive/Desktop/GD32VW553/V1_MQTT_OK/GD32VW55X_Wifi_BLE_SDK/GD32VW55x_RELEASE_V1.0.2/MSDK/wpa_supplicant/src/ap\neighbor_db.c **** 		entry = hostapd_neighbor_add(hapd);
 602              		.loc 1 130 5 is_stmt 0
 603 0022 1DE5     		bne	a0,zero,.L49
 131:C:/Users/stapi/OneDrive/Desktop/GD32VW553/V1_MQTT_OK/GD32VW55X_Wifi_BLE_SDK/GD32VW55x_RELEASE_V1.0.2/MSDK/wpa_supplicant/src/ap\neighbor_db.c **** 	if (!entry)
 604              		.loc 1 131 3 is_stmt 1
 605              	.LVL45:
 606              	.LBB56:
 607              	.LBB57:
 109:C:/Users/stapi/OneDrive/Desktop/GD32VW553/V1_MQTT_OK/GD32VW55X_Wifi_BLE_SDK/GD32VW55x_RELEASE_V1.0.2/MSDK/wpa_supplicant/src/ap\neighbor_db.c **** 
 608              		.loc 1 109 2
 111:C:/Users/stapi/OneDrive/Desktop/GD32VW553/V1_MQTT_OK/GD32VW55X_Wifi_BLE_SDK/GD32VW55x_RELEASE_V1.0.2/MSDK/wpa_supplicant/src/ap\neighbor_db.c **** 	if (!nr)
 609              		.loc 1 111 2
 111:C:/Users/stapi/OneDrive/Desktop/GD32VW553/V1_MQTT_OK/GD32VW55X_Wifi_BLE_SDK/GD32VW55x_RELEASE_V1.0.2/MSDK/wpa_supplicant/src/ap\neighbor_db.c **** 	if (!nr)
 610              		.loc 1 111 7 is_stmt 0
 611 0024 13054005 		li	a0,84
 612              	.LVL46:
 613 0028 97000000 		call	os_zalloc
 613      E7800000 
 614              	.LVL47:
 615 0030 2A84     		mv	s0,a0
 616              	.LVL48:
 112:C:/Users/stapi/OneDrive/Desktop/GD32VW553/V1_MQTT_OK/GD32VW55X_Wifi_BLE_SDK/GD32VW55x_RELEASE_V1.0.2/MSDK/wpa_supplicant/src/ap\neighbor_db.c **** 		return NULL;
 617              		.loc 1 112 2 is_stmt 1
 618              	.LBE57:
 619              	.LBE56:
 133:C:/Users/stapi/OneDrive/Desktop/GD32VW553/V1_MQTT_OK/GD32VW55X_Wifi_BLE_SDK/GD32VW55x_RELEASE_V1.0.2/MSDK/wpa_supplicant/src/ap\neighbor_db.c **** 
 620              		.loc 1 133 10 is_stmt 0
 621 0032 7D55     		li	a0,-1
 622              	.LBB63:
 623              	.LBB62:
 112:C:/Users/stapi/OneDrive/Desktop/GD32VW553/V1_MQTT_OK/GD32VW55X_Wifi_BLE_SDK/GD32VW55x_RELEASE_V1.0.2/MSDK/wpa_supplicant/src/ap\neighbor_db.c **** 		return NULL;
 624              		.loc 1 112 5
 625 0034 3DC8     		beq	s0,zero,.L48
 115:C:/Users/stapi/OneDrive/Desktop/GD32VW553/V1_MQTT_OK/GD32VW55X_Wifi_BLE_SDK/GD32VW55x_RELEASE_V1.0.2/MSDK/wpa_supplicant/src/ap\neighbor_db.c **** 
 626              		.loc 1 115 2 is_stmt 1
 627              	.LVL49:
 628              	.LBB58:
 629              	.LBB59:
  30:..\..\..\..\wpa_supplicant\src/utils/list.h **** 	item->prev = list;
 630              		.loc 4 30 2
  30:..\..\..\..\wpa_supplicant\src/utils/list.h **** 	item->prev = list;
 631              		.loc 4 30 19 is_stmt 0
 632 0036 0566     		li	a2,4096
 633 0038 B307C900 		add	a5,s2,a2
 634 003c 03A70786 		lw	a4,-1952(a5)
 635              	.LBE59:
 636              	.LBE58:
 115:C:/Users/stapi/OneDrive/Desktop/GD32VW553/V1_MQTT_OK/GD32VW55X_Wifi_BLE_SDK/GD32VW55x_RELEASE_V1.0.2/MSDK/wpa_supplicant/src/ap\neighbor_db.c **** 
 637              		.loc 1 115 2
 638 0040 13060686 		addi	a2,a2,-1952
 639 0044 4A96     		add	a2,s2,a2
 640              	.LBB61:
 641              	.LBB60:
  30:..\..\..\..\wpa_supplicant\src/utils/list.h **** 	item->prev = list;
 642              		.loc 4 30 13
 643 0046 18C0     		sw	a4,0(s0)
  31:..\..\..\..\wpa_supplicant\src/utils/list.h **** 	list->next->prev = item;
 644              		.loc 4 31 2 is_stmt 1
  31:..\..\..\..\wpa_supplicant\src/utils/list.h **** 	list->next->prev = item;
 645              		.loc 4 31 13 is_stmt 0
 646 0048 50C0     		sw	a2,4(s0)
  32:..\..\..\..\wpa_supplicant\src/utils/list.h **** 	list->next = item;
 647              		.loc 4 32 2 is_stmt 1
  32:..\..\..\..\wpa_supplicant\src/utils/list.h **** 	list->next = item;
 648              		.loc 4 32 19 is_stmt 0
 649 004a 40C3     		sw	s0,4(a4)
  33:..\..\..\..\wpa_supplicant\src/utils/list.h **** }
 650              		.loc 4 33 2 is_stmt 1
  33:..\..\..\..\wpa_supplicant\src/utils/list.h **** }
 651              		.loc 4 33 13 is_stmt 0
 652 004c 23A08786 		sw	s0,-1952(a5)
 653              	.LVL50:
 654              	.LBE60:
 655              	.LBE61:
 117:C:/Users/stapi/OneDrive/Desktop/GD32VW553/V1_MQTT_OK/GD32VW55X_Wifi_BLE_SDK/GD32VW55x_RELEASE_V1.0.2/MSDK/wpa_supplicant/src/ap\neighbor_db.c **** }
 656              		.loc 1 117 2 is_stmt 1
 657              	.L49:
 658              	.LBE62:
 659              	.LBE63:
 132:C:/Users/stapi/OneDrive/Desktop/GD32VW553/V1_MQTT_OK/GD32VW55X_Wifi_BLE_SDK/GD32VW55x_RELEASE_V1.0.2/MSDK/wpa_supplicant/src/ap\neighbor_db.c **** 		return -1;
 660              		.loc 1 132 2
 135:C:/Users/stapi/OneDrive/Desktop/GD32VW553/V1_MQTT_OK/GD32VW55X_Wifi_BLE_SDK/GD32VW55x_RELEASE_V1.0.2/MSDK/wpa_supplicant/src/ap\neighbor_db.c **** 
 661              		.loc 1 135 2
 662 0050 2285     		mv	a0,s0
 663 0052 97000000 		call	hostapd_neighbor_clear_entry
 663      E7800000 
 664              	.LVL51:
 137:C:/Users/stapi/OneDrive/Desktop/GD32VW553/V1_MQTT_OK/GD32VW55X_Wifi_BLE_SDK/GD32VW55x_RELEASE_V1.0.2/MSDK/wpa_supplicant/src/ap\neighbor_db.c **** 	os_memcpy(&entry->ssid, ssid, sizeof(entry->ssid));
 665              		.loc 1 137 2
 666 005a 1946     		li	a2,6
 667 005c D685     		mv	a1,s5
 668 005e 13058400 		addi	a0,s0,8
 669 0062 97000000 		call	os_memcpy
 669      E7800000 
 670              	.LVL52:
 138:C:/Users/stapi/OneDrive/Desktop/GD32VW553/V1_MQTT_OK/GD32VW55X_Wifi_BLE_SDK/GD32VW55x_RELEASE_V1.0.2/MSDK/wpa_supplicant/src/ap\neighbor_db.c **** 	entry->short_ssid = crc32(ssid->ssid, ssid->ssid_len);
 671              		.loc 1 138 2
 672 006a 13064002 		li	a2,36
 673 006e A685     		mv	a1,s1
 674 0070 13050401 		addi	a0,s0,16
 675 0074 97000000 		call	os_memcpy
 675      E7800000 
 676              	.LVL53:
 139:C:/Users/stapi/OneDrive/Desktop/GD32VW553/V1_MQTT_OK/GD32VW55X_Wifi_BLE_SDK/GD32VW55x_RELEASE_V1.0.2/MSDK/wpa_supplicant/src/ap\neighbor_db.c **** 
 677              		.loc 1 139 2
 139:C:/Users/stapi/OneDrive/Desktop/GD32VW553/V1_MQTT_OK/GD32VW55X_Wifi_BLE_SDK/GD32VW55x_RELEASE_V1.0.2/MSDK/wpa_supplicant/src/ap\neighbor_db.c **** 
 678              		.loc 1 139 22 is_stmt 0
 679 007c 8C50     		lw	a1,32(s1)
 680 007e 2685     		mv	a0,s1
 681 0080 97000000 		call	crc32
 681      E7800000 
 682              	.LVL54:
 139:C:/Users/stapi/OneDrive/Desktop/GD32VW553/V1_MQTT_OK/GD32VW55X_Wifi_BLE_SDK/GD32VW55x_RELEASE_V1.0.2/MSDK/wpa_supplicant/src/ap\neighbor_db.c **** 
 683              		.loc 1 139 20
 684 0088 68C4     		sw	a0,76(s0)
 141:C:/Users/stapi/OneDrive/Desktop/GD32VW553/V1_MQTT_OK/GD32VW55X_Wifi_BLE_SDK/GD32VW55x_RELEASE_V1.0.2/MSDK/wpa_supplicant/src/ap\neighbor_db.c **** 	if (!entry->nr)
 685              		.loc 1 141 2 is_stmt 1
 141:C:/Users/stapi/OneDrive/Desktop/GD32VW553/V1_MQTT_OK/GD32VW55X_Wifi_BLE_SDK/GD32VW55x_RELEASE_V1.0.2/MSDK/wpa_supplicant/src/ap\neighbor_db.c **** 	if (!entry->nr)
 686              		.loc 1 141 14 is_stmt 0
 687 008a 6285     		mv	a0,s8
 688 008c 97000000 		call	wpabuf_dup
 688      E7800000 
 689              	.LVL55:
 141:C:/Users/stapi/OneDrive/Desktop/GD32VW553/V1_MQTT_OK/GD32VW55X_Wifi_BLE_SDK/GD32VW55x_RELEASE_V1.0.2/MSDK/wpa_supplicant/src/ap\neighbor_db.c **** 	if (!entry->nr)
 690              		.loc 1 141 12
 691 0094 48D8     		sw	a0,52(s0)
 142:C:/Users/stapi/OneDrive/Desktop/GD32VW553/V1_MQTT_OK/GD32VW55X_Wifi_BLE_SDK/GD32VW55x_RELEASE_V1.0.2/MSDK/wpa_supplicant/src/ap\neighbor_db.c **** 		goto fail;
 692              		.loc 1 142 2 is_stmt 1
 142:C:/Users/stapi/OneDrive/Desktop/GD32VW553/V1_MQTT_OK/GD32VW55X_Wifi_BLE_SDK/GD32VW55x_RELEASE_V1.0.2/MSDK/wpa_supplicant/src/ap\neighbor_db.c **** 		goto fail;
 693              		.loc 1 142 5 is_stmt 0
 694 0096 1DCD     		beq	a0,zero,.L55
 145:C:/Users/stapi/OneDrive/Desktop/GD32VW553/V1_MQTT_OK/GD32VW55X_Wifi_BLE_SDK/GD32VW55x_RELEASE_V1.0.2/MSDK/wpa_supplicant/src/ap\neighbor_db.c **** 		entry->lci = wpabuf_dup(lci);
 695              		.loc 1 145 2 is_stmt 1
 145:C:/Users/stapi/OneDrive/Desktop/GD32VW553/V1_MQTT_OK/GD32VW55X_Wifi_BLE_SDK/GD32VW55x_RELEASE_V1.0.2/MSDK/wpa_supplicant/src/ap\neighbor_db.c **** 		entry->lci = wpabuf_dup(lci);
 696              		.loc 1 145 5 is_stmt 0
 697 0098 639D0900 		bne	s3,zero,.L51
 698              	.L54:
 151:C:/Users/stapi/OneDrive/Desktop/GD32VW553/V1_MQTT_OK/GD32VW55X_Wifi_BLE_SDK/GD32VW55x_RELEASE_V1.0.2/MSDK/wpa_supplicant/src/ap\neighbor_db.c **** 		entry->civic = wpabuf_dup(civic);
 699              		.loc 1 151 2 is_stmt 1
 151:C:/Users/stapi/OneDrive/Desktop/GD32VW553/V1_MQTT_OK/GD32VW55X_Wifi_BLE_SDK/GD32VW55x_RELEASE_V1.0.2/MSDK/wpa_supplicant/src/ap\neighbor_db.c **** 		entry->civic = wpabuf_dup(civic);
 700              		.loc 1 151 5 is_stmt 0
 701 009c 63150A04 		bne	s4,zero,.L52
 702              	.L53:
 157:C:/Users/stapi/OneDrive/Desktop/GD32VW553/V1_MQTT_OK/GD32VW55X_Wifi_BLE_SDK/GD32VW55x_RELEASE_V1.0.2/MSDK/wpa_supplicant/src/ap\neighbor_db.c **** 	entry->bss_parameters = bss_parameters;
 703              		.loc 1 157 2 is_stmt 1
 157:C:/Users/stapi/OneDrive/Desktop/GD32VW553/V1_MQTT_OK/GD32VW55X_Wifi_BLE_SDK/GD32VW55x_RELEASE_V1.0.2/MSDK/wpa_supplicant/src/ap\neighbor_db.c **** 	entry->bss_parameters = bss_parameters;
 704              		.loc 1 157 20 is_stmt 0
 705 00a0 23246405 		sw	s6,72(s0)
 158:C:/Users/stapi/OneDrive/Desktop/GD32VW553/V1_MQTT_OK/GD32VW55X_Wifi_BLE_SDK/GD32VW55x_RELEASE_V1.0.2/MSDK/wpa_supplicant/src/ap\neighbor_db.c **** 
 706              		.loc 1 158 2 is_stmt 1
 158:C:/Users/stapi/OneDrive/Desktop/GD32VW553/V1_MQTT_OK/GD32VW55X_Wifi_BLE_SDK/GD32VW55x_RELEASE_V1.0.2/MSDK/wpa_supplicant/src/ap\neighbor_db.c **** 
 707              		.loc 1 158 24 is_stmt 0
 708 00a4 23087405 		sb	s7,80(s0)
 160:C:/Users/stapi/OneDrive/Desktop/GD32VW553/V1_MQTT_OK/GD32VW55X_Wifi_BLE_SDK/GD32VW55x_RELEASE_V1.0.2/MSDK/wpa_supplicant/src/ap\neighbor_db.c **** 
 709              		.loc 1 160 2 is_stmt 1
 160:C:/Users/stapi/OneDrive/Desktop/GD32VW553/V1_MQTT_OK/GD32VW55X_Wifi_BLE_SDK/GD32VW55x_RELEASE_V1.0.2/MSDK/wpa_supplicant/src/ap\neighbor_db.c **** 
 710              		.loc 1 160 9 is_stmt 0
 711 00a8 0145     		li	a0,0
 712              	.LVL56:
 713              	.L48:
 165:C:/Users/stapi/OneDrive/Desktop/GD32VW553/V1_MQTT_OK/GD32VW55X_Wifi_BLE_SDK/GD32VW55x_RELEASE_V1.0.2/MSDK/wpa_supplicant/src/ap\neighbor_db.c **** 
 714              		.loc 1 165 1
 715 00aa 17030000 		tail	__riscv_restore_9
 715      67000300 
 716              		.cfi_remember_state
 717              		.cfi_restore 24
 718              		.cfi_restore 23
 719              		.cfi_restore 22
 720              		.cfi_restore 21
 721              		.cfi_restore 20
 722              		.cfi_restore 19
 723              		.cfi_restore 18
 724              		.cfi_restore 9
 725              		.cfi_restore 8
 726              		.cfi_restore 1
 727              		.cfi_def_cfa_offset 0
 728              	.LVL57:
 729              	.L51:
 730              		.cfi_restore_state
 731              	.LBB64:
 732              	.LBB65:
  60:..\..\..\..\wpa_supplicant\src/utils/wpabuf.h **** }
 733              		.loc 2 60 2 is_stmt 1
 734              	.LBE65:
 735              	.LBE64:
 145:C:/Users/stapi/OneDrive/Desktop/GD32VW553/V1_MQTT_OK/GD32VW55X_Wifi_BLE_SDK/GD32VW55x_RELEASE_V1.0.2/MSDK/wpa_supplicant/src/ap\neighbor_db.c **** 		entry->lci = wpabuf_dup(lci);
 736              		.loc 1 145 10 is_stmt 0
 737 00b2 83A74900 		lw	a5,4(s3)
 738 00b6 FDD3     		beq	a5,zero,.L54
 146:C:/Users/stapi/OneDrive/Desktop/GD32VW553/V1_MQTT_OK/GD32VW55X_Wifi_BLE_SDK/GD32VW55x_RELEASE_V1.0.2/MSDK/wpa_supplicant/src/ap\neighbor_db.c **** 		if (!entry->lci || os_get_time(&entry->lci_date))
 739              		.loc 1 146 3 is_stmt 1
 146:C:/Users/stapi/OneDrive/Desktop/GD32VW553/V1_MQTT_OK/GD32VW55X_Wifi_BLE_SDK/GD32VW55x_RELEASE_V1.0.2/MSDK/wpa_supplicant/src/ap\neighbor_db.c **** 		if (!entry->lci || os_get_time(&entry->lci_date))
 740              		.loc 1 146 16 is_stmt 0
 741 00b8 4E85     		mv	a0,s3
 742 00ba 97000000 		call	wpabuf_dup
 742      E7800000 
 743              	.LVL58:
 146:C:/Users/stapi/OneDrive/Desktop/GD32VW553/V1_MQTT_OK/GD32VW55X_Wifi_BLE_SDK/GD32VW55x_RELEASE_V1.0.2/MSDK/wpa_supplicant/src/ap\neighbor_db.c **** 		if (!entry->lci || os_get_time(&entry->lci_date))
 744              		.loc 1 146 14
 745 00c2 08DC     		sw	a0,56(s0)
 147:C:/Users/stapi/OneDrive/Desktop/GD32VW553/V1_MQTT_OK/GD32VW55X_Wifi_BLE_SDK/GD32VW55x_RELEASE_V1.0.2/MSDK/wpa_supplicant/src/ap\neighbor_db.c **** 			goto fail;
 746              		.loc 1 147 3 is_stmt 1
 147:C:/Users/stapi/OneDrive/Desktop/GD32VW553/V1_MQTT_OK/GD32VW55X_Wifi_BLE_SDK/GD32VW55x_RELEASE_V1.0.2/MSDK/wpa_supplicant/src/ap\neighbor_db.c **** 			goto fail;
 747              		.loc 1 147 6 is_stmt 0
 748 00c4 01C9     		beq	a0,zero,.L55
 147:C:/Users/stapi/OneDrive/Desktop/GD32VW553/V1_MQTT_OK/GD32VW55X_Wifi_BLE_SDK/GD32VW55x_RELEASE_V1.0.2/MSDK/wpa_supplicant/src/ap\neighbor_db.c **** 			goto fail;
 749              		.loc 1 147 22 discriminator 1
 750 00c6 13050404 		addi	a0,s0,64
 751 00ca 97000000 		call	os_get_time
 751      E7800000 
 752              	.LVL59:
 147:C:/Users/stapi/OneDrive/Desktop/GD32VW553/V1_MQTT_OK/GD32VW55X_Wifi_BLE_SDK/GD32VW55x_RELEASE_V1.0.2/MSDK/wpa_supplicant/src/ap\neighbor_db.c **** 			goto fail;
 753              		.loc 1 147 19 discriminator 1
 754 00d2 69D5     		beq	a0,zero,.L54
 755              	.L55:
 756              	.LDL1:
 163:C:/Users/stapi/OneDrive/Desktop/GD32VW553/V1_MQTT_OK/GD32VW55X_Wifi_BLE_SDK/GD32VW55x_RELEASE_V1.0.2/MSDK/wpa_supplicant/src/ap\neighbor_db.c **** 	return -1;
 757              		.loc 1 163 2 is_stmt 1
 758 00d4 2686     		mv	a2,s1
 759 00d6 D685     		mv	a1,s5
 760 00d8 4A85     		mv	a0,s2
 761 00da 97000000 		call	hostapd_neighbor_remove
 761      E7800000 
 762              	.LVL60:
 164:C:/Users/stapi/OneDrive/Desktop/GD32VW553/V1_MQTT_OK/GD32VW55X_Wifi_BLE_SDK/GD32VW55x_RELEASE_V1.0.2/MSDK/wpa_supplicant/src/ap\neighbor_db.c **** }
 763              		.loc 1 164 2
 164:C:/Users/stapi/OneDrive/Desktop/GD32VW553/V1_MQTT_OK/GD32VW55X_Wifi_BLE_SDK/GD32VW55x_RELEASE_V1.0.2/MSDK/wpa_supplicant/src/ap\neighbor_db.c **** }
 764              		.loc 1 164 9 is_stmt 0
 765 00e2 7D55     		li	a0,-1
 766 00e4 D9B7     		j	.L48
 767              	.L52:
 768              	.LVL61:
 769              	.LBB66:
 770              	.LBB67:
  60:..\..\..\..\wpa_supplicant\src/utils/wpabuf.h **** }
 771              		.loc 2 60 2 is_stmt 1
 772              	.LBE67:
 773              	.LBE66:
 151:C:/Users/stapi/OneDrive/Desktop/GD32VW553/V1_MQTT_OK/GD32VW55X_Wifi_BLE_SDK/GD32VW55x_RELEASE_V1.0.2/MSDK/wpa_supplicant/src/ap\neighbor_db.c **** 		entry->civic = wpabuf_dup(civic);
 774              		.loc 1 151 12 is_stmt 0
 775 00e6 83274A00 		lw	a5,4(s4)
 776 00ea DDDB     		beq	a5,zero,.L53
 152:C:/Users/stapi/OneDrive/Desktop/GD32VW553/V1_MQTT_OK/GD32VW55X_Wifi_BLE_SDK/GD32VW55x_RELEASE_V1.0.2/MSDK/wpa_supplicant/src/ap\neighbor_db.c **** 		if (!entry->civic)
 777              		.loc 1 152 3 is_stmt 1
 152:C:/Users/stapi/OneDrive/Desktop/GD32VW553/V1_MQTT_OK/GD32VW55X_Wifi_BLE_SDK/GD32VW55x_RELEASE_V1.0.2/MSDK/wpa_supplicant/src/ap\neighbor_db.c **** 		if (!entry->civic)
 778              		.loc 1 152 18 is_stmt 0
 779 00ec 5285     		mv	a0,s4
 780 00ee 97000000 		call	wpabuf_dup
 780      E7800000 
 781              	.LVL62:
 152:C:/Users/stapi/OneDrive/Desktop/GD32VW553/V1_MQTT_OK/GD32VW55X_Wifi_BLE_SDK/GD32VW55x_RELEASE_V1.0.2/MSDK/wpa_supplicant/src/ap\neighbor_db.c **** 		if (!entry->civic)
 782              		.loc 1 152 16
 783 00f6 48DC     		sw	a0,60(s0)
 153:C:/Users/stapi/OneDrive/Desktop/GD32VW553/V1_MQTT_OK/GD32VW55X_Wifi_BLE_SDK/GD32VW55x_RELEASE_V1.0.2/MSDK/wpa_supplicant/src/ap\neighbor_db.c **** 			goto fail;
 784              		.loc 1 153 3 is_stmt 1
 153:C:/Users/stapi/OneDrive/Desktop/GD32VW553/V1_MQTT_OK/GD32VW55X_Wifi_BLE_SDK/GD32VW55x_RELEASE_V1.0.2/MSDK/wpa_supplicant/src/ap\neighbor_db.c **** 			goto fail;
 785              		.loc 1 153 6 is_stmt 0
 786 00f8 45F5     		bne	a0,zero,.L53
 787 00fa E9BF     		j	.L55
 788              		.cfi_endproc
 789              	.LFE141:
 791              		.section	.text.hostapd_free_neighbor_db,"ax",@progbits
 792              		.align	1
 793              		.globl	hostapd_free_neighbor_db
 795              	hostapd_free_neighbor_db:
 796              	.LFB143:
 183:C:/Users/stapi/OneDrive/Desktop/GD32VW553/V1_MQTT_OK/GD32VW55X_Wifi_BLE_SDK/GD32VW55x_RELEASE_V1.0.2/MSDK/wpa_supplicant/src/ap\neighbor_db.c **** 
 184:C:/Users/stapi/OneDrive/Desktop/GD32VW553/V1_MQTT_OK/GD32VW55X_Wifi_BLE_SDK/GD32VW55x_RELEASE_V1.0.2/MSDK/wpa_supplicant/src/ap\neighbor_db.c **** 
 185:C:/Users/stapi/OneDrive/Desktop/GD32VW553/V1_MQTT_OK/GD32VW55X_Wifi_BLE_SDK/GD32VW55x_RELEASE_V1.0.2/MSDK/wpa_supplicant/src/ap\neighbor_db.c **** void hostapd_free_neighbor_db(struct hostapd_data *hapd)
 186:C:/Users/stapi/OneDrive/Desktop/GD32VW553/V1_MQTT_OK/GD32VW55X_Wifi_BLE_SDK/GD32VW55x_RELEASE_V1.0.2/MSDK/wpa_supplicant/src/ap\neighbor_db.c **** {
 797              		.loc 1 186 1 is_stmt 1
 798              		.cfi_startproc
 799              	.LVL63:
 800 0000 17030000 		call	t0,__riscv_save_2
 800      E7020300 
 801              		.cfi_offset 9, -12
 802              		.cfi_offset 8, -8
 803              		.cfi_offset 1, -4
 804              		.cfi_def_cfa_offset 16
 187:C:/Users/stapi/OneDrive/Desktop/GD32VW553/V1_MQTT_OK/GD32VW55X_Wifi_BLE_SDK/GD32VW55x_RELEASE_V1.0.2/MSDK/wpa_supplicant/src/ap\neighbor_db.c **** 	struct hostapd_neighbor_entry *nr, *prev;
 805              		.loc 1 187 2
 188:C:/Users/stapi/OneDrive/Desktop/GD32VW553/V1_MQTT_OK/GD32VW55X_Wifi_BLE_SDK/GD32VW55x_RELEASE_V1.0.2/MSDK/wpa_supplicant/src/ap\neighbor_db.c **** 
 189:C:/Users/stapi/OneDrive/Desktop/GD32VW553/V1_MQTT_OK/GD32VW55X_Wifi_BLE_SDK/GD32VW55x_RELEASE_V1.0.2/MSDK/wpa_supplicant/src/ap\neighbor_db.c **** 	dl_list_for_each_safe(nr, prev, &hapd->nr_db,
 806              		.loc 1 189 2
 807 0008 0564     		li	s0,4096
 808 000a 33078500 		add	a4,a0,s0
 186:C:/Users/stapi/OneDrive/Desktop/GD32VW553/V1_MQTT_OK/GD32VW55X_Wifi_BLE_SDK/GD32VW55x_RELEASE_V1.0.2/MSDK/wpa_supplicant/src/ap\neighbor_db.c **** 	struct hostapd_neighbor_entry *nr, *prev;
 809              		.loc 1 186 1 is_stmt 0
 810 000e AA87     		mv	a5,a0
 811              		.loc 1 189 2
 812 0010 03250786 		lw	a0,-1952(a4)
 813              	.LVL64:
 814 0014 13040486 		addi	s0,s0,-1952
 186:C:/Users/stapi/OneDrive/Desktop/GD32VW553/V1_MQTT_OK/GD32VW55X_Wifi_BLE_SDK/GD32VW55x_RELEASE_V1.0.2/MSDK/wpa_supplicant/src/ap\neighbor_db.c **** 	struct hostapd_neighbor_entry *nr, *prev;
 815              		.loc 1 186 1
 816 0018 4111     		addi	sp,sp,-16
 817              		.cfi_def_cfa_offset 32
 818              		.loc 1 189 2
 819 001a 0441     		lw	s1,0(a0)
 820              	.LVL65:
 821 001c 3E94     		add	s0,a5,s0
 822              	.LVL66:
 823              	.L74:
 824              		.loc 1 189 2 is_stmt 1 discriminator 1
 825 001e 63178500 		bne	a0,s0,.L75
 190:C:/Users/stapi/OneDrive/Desktop/GD32VW553/V1_MQTT_OK/GD32VW55X_Wifi_BLE_SDK/GD32VW55x_RELEASE_V1.0.2/MSDK/wpa_supplicant/src/ap\neighbor_db.c **** 			      struct hostapd_neighbor_entry, list) {
 191:C:/Users/stapi/OneDrive/Desktop/GD32VW553/V1_MQTT_OK/GD32VW55X_Wifi_BLE_SDK/GD32VW55x_RELEASE_V1.0.2/MSDK/wpa_supplicant/src/ap\neighbor_db.c **** 		hostapd_neighbor_clear_entry(nr);
 192:C:/Users/stapi/OneDrive/Desktop/GD32VW553/V1_MQTT_OK/GD32VW55X_Wifi_BLE_SDK/GD32VW55x_RELEASE_V1.0.2/MSDK/wpa_supplicant/src/ap\neighbor_db.c **** 		dl_list_del(&nr->list);
 193:C:/Users/stapi/OneDrive/Desktop/GD32VW553/V1_MQTT_OK/GD32VW55X_Wifi_BLE_SDK/GD32VW55x_RELEASE_V1.0.2/MSDK/wpa_supplicant/src/ap\neighbor_db.c **** 		os_free(nr);
 194:C:/Users/stapi/OneDrive/Desktop/GD32VW553/V1_MQTT_OK/GD32VW55X_Wifi_BLE_SDK/GD32VW55x_RELEASE_V1.0.2/MSDK/wpa_supplicant/src/ap\neighbor_db.c **** 	}
 195:C:/Users/stapi/OneDrive/Desktop/GD32VW553/V1_MQTT_OK/GD32VW55X_Wifi_BLE_SDK/GD32VW55x_RELEASE_V1.0.2/MSDK/wpa_supplicant/src/ap\neighbor_db.c **** }
 826              		.loc 1 195 1 is_stmt 0
 827 0022 4101     		addi	sp,sp,16
 828              		.cfi_remember_state
 829              		.cfi_def_cfa_offset 0
 830 0024 17030000 		tail	__riscv_restore_2
 830      67000300 
 831              		.cfi_restore 9
 832              		.cfi_restore 8
 833              		.cfi_restore 1
 834              		.cfi_def_cfa_offset -16
 835              	.L75:
 836              		.cfi_restore_state
 191:C:/Users/stapi/OneDrive/Desktop/GD32VW553/V1_MQTT_OK/GD32VW55X_Wifi_BLE_SDK/GD32VW55x_RELEASE_V1.0.2/MSDK/wpa_supplicant/src/ap\neighbor_db.c **** 		dl_list_del(&nr->list);
 837              		.loc 1 191 3 is_stmt 1 discriminator 3
 838 002c 2AC6     		sw	a0,12(sp)
 839 002e 97000000 		call	hostapd_neighbor_clear_entry
 839      E7800000 
 840              	.LVL67:
 192:C:/Users/stapi/OneDrive/Desktop/GD32VW553/V1_MQTT_OK/GD32VW55X_Wifi_BLE_SDK/GD32VW55x_RELEASE_V1.0.2/MSDK/wpa_supplicant/src/ap\neighbor_db.c **** 		os_free(nr);
 841              		.loc 1 192 3 discriminator 3
 842              	.LBB70:
 843              	.LBB71:
  43:..\..\..\..\wpa_supplicant\src/utils/list.h **** 	item->prev->next = item->next;
 844              		.loc 4 43 2 discriminator 3
  43:..\..\..\..\wpa_supplicant\src/utils/list.h **** 	item->prev->next = item->next;
 845              		.loc 4 43 6 is_stmt 0 discriminator 3
 846 0036 3245     		lw	a0,12(sp)
 847 0038 1841     		lw	a4,0(a0)
  43:..\..\..\..\wpa_supplicant\src/utils/list.h **** 	item->prev->next = item->next;
 848              		.loc 4 43 25 discriminator 3
 849 003a 5C41     		lw	a5,4(a0)
  43:..\..\..\..\wpa_supplicant\src/utils/list.h **** 	item->prev->next = item->next;
 850              		.loc 4 43 19 discriminator 3
 851 003c 5CC3     		sw	a5,4(a4)
  44:..\..\..\..\wpa_supplicant\src/utils/list.h **** 	item->next = NULL;
 852              		.loc 4 44 2 is_stmt 1 discriminator 3
  44:..\..\..\..\wpa_supplicant\src/utils/list.h **** 	item->next = NULL;
 853              		.loc 4 44 19 is_stmt 0 discriminator 3
 854 003e 98C3     		sw	a4,0(a5)
  45:..\..\..\..\wpa_supplicant\src/utils/list.h **** 	item->prev = NULL;
 855              		.loc 4 45 2 is_stmt 1 discriminator 3
  45:..\..\..\..\wpa_supplicant\src/utils/list.h **** 	item->prev = NULL;
 856              		.loc 4 45 13 is_stmt 0 discriminator 3
 857 0040 23200500 		sw	zero,0(a0)
 858              		.loc 4 46 2 is_stmt 1 discriminator 3
 859              		.loc 4 46 13 is_stmt 0 discriminator 3
 860 0044 23220500 		sw	zero,4(a0)
 861              	.LVL68:
 862              	.LBE71:
 863              	.LBE70:
 193:C:/Users/stapi/OneDrive/Desktop/GD32VW553/V1_MQTT_OK/GD32VW55X_Wifi_BLE_SDK/GD32VW55x_RELEASE_V1.0.2/MSDK/wpa_supplicant/src/ap\neighbor_db.c **** 	}
 864              		.loc 1 193 3 is_stmt 1 discriminator 3
 865 0048 97000000 		call	os_free
 865      E7800000 
 866              	.LVL69:
 189:C:/Users/stapi/OneDrive/Desktop/GD32VW553/V1_MQTT_OK/GD32VW55X_Wifi_BLE_SDK/GD32VW55x_RELEASE_V1.0.2/MSDK/wpa_supplicant/src/ap\neighbor_db.c **** 			      struct hostapd_neighbor_entry, list) {
 867              		.loc 1 189 2 discriminator 3
 868 0050 2685     		mv	a0,s1
 869 0052 8440     		lw	s1,0(s1)
 870              	.LVL70:
 871 0054 E9B7     		j	.L74
 872              		.cfi_endproc
 873              	.LFE143:
 875              		.section	.text.hostapd_neighbor_set_own_report,"ax",@progbits
 876              		.align	1
 877              		.globl	hostapd_neighbor_set_own_report
 879              	hostapd_neighbor_set_own_report:
 880              	.LFB145:
 196:C:/Users/stapi/OneDrive/Desktop/GD32VW553/V1_MQTT_OK/GD32VW55X_Wifi_BLE_SDK/GD32VW55x_RELEASE_V1.0.2/MSDK/wpa_supplicant/src/ap\neighbor_db.c **** 
 197:C:/Users/stapi/OneDrive/Desktop/GD32VW553/V1_MQTT_OK/GD32VW55X_Wifi_BLE_SDK/GD32VW55x_RELEASE_V1.0.2/MSDK/wpa_supplicant/src/ap\neighbor_db.c **** 
 198:C:/Users/stapi/OneDrive/Desktop/GD32VW553/V1_MQTT_OK/GD32VW55X_Wifi_BLE_SDK/GD32VW55x_RELEASE_V1.0.2/MSDK/wpa_supplicant/src/ap\neighbor_db.c **** #ifdef NEED_AP_MLME
 199:C:/Users/stapi/OneDrive/Desktop/GD32VW553/V1_MQTT_OK/GD32VW55X_Wifi_BLE_SDK/GD32VW55x_RELEASE_V1.0.2/MSDK/wpa_supplicant/src/ap\neighbor_db.c **** static enum nr_chan_width hostapd_get_nr_chan_width(struct hostapd_data *hapd,
 200:C:/Users/stapi/OneDrive/Desktop/GD32VW553/V1_MQTT_OK/GD32VW55X_Wifi_BLE_SDK/GD32VW55x_RELEASE_V1.0.2/MSDK/wpa_supplicant/src/ap\neighbor_db.c **** 						    int ht, int vht, int he)
 201:C:/Users/stapi/OneDrive/Desktop/GD32VW553/V1_MQTT_OK/GD32VW55X_Wifi_BLE_SDK/GD32VW55x_RELEASE_V1.0.2/MSDK/wpa_supplicant/src/ap\neighbor_db.c **** {
 202:C:/Users/stapi/OneDrive/Desktop/GD32VW553/V1_MQTT_OK/GD32VW55X_Wifi_BLE_SDK/GD32VW55x_RELEASE_V1.0.2/MSDK/wpa_supplicant/src/ap\neighbor_db.c **** 	u8 oper_chwidth = hostapd_get_oper_chwidth(hapd->iconf);
 203:C:/Users/stapi/OneDrive/Desktop/GD32VW553/V1_MQTT_OK/GD32VW55X_Wifi_BLE_SDK/GD32VW55x_RELEASE_V1.0.2/MSDK/wpa_supplicant/src/ap\neighbor_db.c **** 
 204:C:/Users/stapi/OneDrive/Desktop/GD32VW553/V1_MQTT_OK/GD32VW55X_Wifi_BLE_SDK/GD32VW55x_RELEASE_V1.0.2/MSDK/wpa_supplicant/src/ap\neighbor_db.c **** 	if (!ht && !vht && !he)
 205:C:/Users/stapi/OneDrive/Desktop/GD32VW553/V1_MQTT_OK/GD32VW55X_Wifi_BLE_SDK/GD32VW55x_RELEASE_V1.0.2/MSDK/wpa_supplicant/src/ap\neighbor_db.c **** 		return NR_CHAN_WIDTH_20;
 206:C:/Users/stapi/OneDrive/Desktop/GD32VW553/V1_MQTT_OK/GD32VW55X_Wifi_BLE_SDK/GD32VW55x_RELEASE_V1.0.2/MSDK/wpa_supplicant/src/ap\neighbor_db.c **** 	if (!hapd->iconf->secondary_channel)
 207:C:/Users/stapi/OneDrive/Desktop/GD32VW553/V1_MQTT_OK/GD32VW55X_Wifi_BLE_SDK/GD32VW55x_RELEASE_V1.0.2/MSDK/wpa_supplicant/src/ap\neighbor_db.c **** 		return NR_CHAN_WIDTH_20;
 208:C:/Users/stapi/OneDrive/Desktop/GD32VW553/V1_MQTT_OK/GD32VW55X_Wifi_BLE_SDK/GD32VW55x_RELEASE_V1.0.2/MSDK/wpa_supplicant/src/ap\neighbor_db.c **** 	if ((!vht && !he) || oper_chwidth == CHANWIDTH_USE_HT)
 209:C:/Users/stapi/OneDrive/Desktop/GD32VW553/V1_MQTT_OK/GD32VW55X_Wifi_BLE_SDK/GD32VW55x_RELEASE_V1.0.2/MSDK/wpa_supplicant/src/ap\neighbor_db.c **** 		return NR_CHAN_WIDTH_40;
 210:C:/Users/stapi/OneDrive/Desktop/GD32VW553/V1_MQTT_OK/GD32VW55X_Wifi_BLE_SDK/GD32VW55x_RELEASE_V1.0.2/MSDK/wpa_supplicant/src/ap\neighbor_db.c **** 	if (oper_chwidth == CHANWIDTH_80MHZ)
 211:C:/Users/stapi/OneDrive/Desktop/GD32VW553/V1_MQTT_OK/GD32VW55X_Wifi_BLE_SDK/GD32VW55x_RELEASE_V1.0.2/MSDK/wpa_supplicant/src/ap\neighbor_db.c **** 		return NR_CHAN_WIDTH_80;
 212:C:/Users/stapi/OneDrive/Desktop/GD32VW553/V1_MQTT_OK/GD32VW55X_Wifi_BLE_SDK/GD32VW55x_RELEASE_V1.0.2/MSDK/wpa_supplicant/src/ap\neighbor_db.c **** 	if (oper_chwidth == CHANWIDTH_160MHZ)
 213:C:/Users/stapi/OneDrive/Desktop/GD32VW553/V1_MQTT_OK/GD32VW55X_Wifi_BLE_SDK/GD32VW55x_RELEASE_V1.0.2/MSDK/wpa_supplicant/src/ap\neighbor_db.c **** 		return NR_CHAN_WIDTH_160;
 214:C:/Users/stapi/OneDrive/Desktop/GD32VW553/V1_MQTT_OK/GD32VW55X_Wifi_BLE_SDK/GD32VW55x_RELEASE_V1.0.2/MSDK/wpa_supplicant/src/ap\neighbor_db.c **** 	if (oper_chwidth == CHANWIDTH_80P80MHZ)
 215:C:/Users/stapi/OneDrive/Desktop/GD32VW553/V1_MQTT_OK/GD32VW55X_Wifi_BLE_SDK/GD32VW55x_RELEASE_V1.0.2/MSDK/wpa_supplicant/src/ap\neighbor_db.c **** 		return NR_CHAN_WIDTH_80P80;
 216:C:/Users/stapi/OneDrive/Desktop/GD32VW553/V1_MQTT_OK/GD32VW55X_Wifi_BLE_SDK/GD32VW55x_RELEASE_V1.0.2/MSDK/wpa_supplicant/src/ap\neighbor_db.c **** 	return NR_CHAN_WIDTH_20;
 217:C:/Users/stapi/OneDrive/Desktop/GD32VW553/V1_MQTT_OK/GD32VW55X_Wifi_BLE_SDK/GD32VW55x_RELEASE_V1.0.2/MSDK/wpa_supplicant/src/ap\neighbor_db.c **** }
 218:C:/Users/stapi/OneDrive/Desktop/GD32VW553/V1_MQTT_OK/GD32VW55X_Wifi_BLE_SDK/GD32VW55x_RELEASE_V1.0.2/MSDK/wpa_supplicant/src/ap\neighbor_db.c **** #endif /* NEED_AP_MLME */
 219:C:/Users/stapi/OneDrive/Desktop/GD32VW553/V1_MQTT_OK/GD32VW55X_Wifi_BLE_SDK/GD32VW55x_RELEASE_V1.0.2/MSDK/wpa_supplicant/src/ap\neighbor_db.c **** 
 220:C:/Users/stapi/OneDrive/Desktop/GD32VW553/V1_MQTT_OK/GD32VW55X_Wifi_BLE_SDK/GD32VW55x_RELEASE_V1.0.2/MSDK/wpa_supplicant/src/ap\neighbor_db.c **** 
 221:C:/Users/stapi/OneDrive/Desktop/GD32VW553/V1_MQTT_OK/GD32VW55X_Wifi_BLE_SDK/GD32VW55x_RELEASE_V1.0.2/MSDK/wpa_supplicant/src/ap\neighbor_db.c **** void hostapd_neighbor_set_own_report(struct hostapd_data *hapd)
 222:C:/Users/stapi/OneDrive/Desktop/GD32VW553/V1_MQTT_OK/GD32VW55X_Wifi_BLE_SDK/GD32VW55x_RELEASE_V1.0.2/MSDK/wpa_supplicant/src/ap\neighbor_db.c **** {
 881              		.loc 1 222 1
 882              		.cfi_startproc
 883              	.LVL71:
 884 0000 17030000 		call	t0,__riscv_save_8
 884      E7020300 
 885              		.cfi_offset 23, -36
 886              		.cfi_offset 22, -32
 887              		.cfi_offset 21, -28
 888              		.cfi_offset 20, -24
 889              		.cfi_offset 19, -20
 890              		.cfi_offset 18, -16
 891              		.cfi_offset 9, -12
 892              		.cfi_offset 8, -8
 893              		.cfi_offset 1, -4
 894              		.cfi_def_cfa_offset 48
 223:C:/Users/stapi/OneDrive/Desktop/GD32VW553/V1_MQTT_OK/GD32VW55X_Wifi_BLE_SDK/GD32VW55x_RELEASE_V1.0.2/MSDK/wpa_supplicant/src/ap\neighbor_db.c **** #ifdef NEED_AP_MLME
 224:C:/Users/stapi/OneDrive/Desktop/GD32VW553/V1_MQTT_OK/GD32VW55X_Wifi_BLE_SDK/GD32VW55x_RELEASE_V1.0.2/MSDK/wpa_supplicant/src/ap\neighbor_db.c **** 	u16 capab = hostapd_own_capab_info(hapd);
 895              		.loc 1 224 2
 222:C:/Users/stapi/OneDrive/Desktop/GD32VW553/V1_MQTT_OK/GD32VW55X_Wifi_BLE_SDK/GD32VW55x_RELEASE_V1.0.2/MSDK/wpa_supplicant/src/ap\neighbor_db.c **** #ifdef NEED_AP_MLME
 896              		.loc 1 222 1 is_stmt 0
 897 0008 7971     		addi	sp,sp,-48
 898              		.cfi_def_cfa_offset 96
 222:C:/Users/stapi/OneDrive/Desktop/GD32VW553/V1_MQTT_OK/GD32VW55X_Wifi_BLE_SDK/GD32VW55x_RELEASE_V1.0.2/MSDK/wpa_supplicant/src/ap\neighbor_db.c **** #ifdef NEED_AP_MLME
 899              		.loc 1 222 1
 900 000a 2A89     		mv	s2,a0
 901              		.loc 1 224 14
 902 000c 97000000 		call	hostapd_own_capab_info
 902      E7800000 
 903              	.LVL72:
 225:C:/Users/stapi/OneDrive/Desktop/GD32VW553/V1_MQTT_OK/GD32VW55X_Wifi_BLE_SDK/GD32VW55x_RELEASE_V1.0.2/MSDK/wpa_supplicant/src/ap\neighbor_db.c **** 	int ht = hapd->iconf->ieee80211n && !hapd->conf->disable_11n;
 904              		.loc 1 225 2 is_stmt 1
 905              		.loc 1 225 15 is_stmt 0
 906 0014 83274900 		lw	a5,4(s2)
 907 0018 03278900 		lw	a4,8(s2)
 908              		.loc 1 225 22
 909 001c 83AA0712 		lw	s5,288(a5)
 910              		.loc 1 225 35
 911 0020 63860A00 		beq	s5,zero,.L78
 912              		.loc 1 225 35 discriminator 1
 913 0024 834A8729 		lbu	s5,664(a4)
 914 0028 93CA1A00 		xori	s5,s5,1
 915              	.L78:
 916              	.LVL73:
 226:C:/Users/stapi/OneDrive/Desktop/GD32VW553/V1_MQTT_OK/GD32VW55X_Wifi_BLE_SDK/GD32VW55x_RELEASE_V1.0.2/MSDK/wpa_supplicant/src/ap\neighbor_db.c **** 	int vht = hapd->iconf->ieee80211ac && !hapd->conf->disable_11ac;
 917              		.loc 1 226 2 is_stmt 1 discriminator 6
 918              		.loc 1 226 23 is_stmt 0 discriminator 6
 919 002c 03AA8713 		lw	s4,312(a5)
 920              		.loc 1 226 37 discriminator 6
 921 0030 63060A00 		beq	s4,zero,.L79
 922              		.loc 1 226 37 discriminator 1
 923 0034 034A9729 		lbu	s4,665(a4)
 924 0038 134A1A00 		xori	s4,s4,1
 925              	.L79:
 926              	.LVL74:
 227:C:/Users/stapi/OneDrive/Desktop/GD32VW553/V1_MQTT_OK/GD32VW55X_Wifi_BLE_SDK/GD32VW55x_RELEASE_V1.0.2/MSDK/wpa_supplicant/src/ap\neighbor_db.c **** 	int he = hapd->iconf->ieee80211ax && !hapd->conf->disable_11ax;
 927              		.loc 1 227 2 is_stmt 1 discriminator 6
 928              		.loc 1 227 22 is_stmt 0 discriminator 6
 929 003c 03A64715 		lw	a2,340(a5)
 930              		.loc 1 227 36 discriminator 6
 931 0040 0144     		li	s0,0
 932 0042 09C6     		beq	a2,zero,.L80
 933              		.loc 1 227 36 discriminator 1
 934 0044 0344A729 		lbu	s0,666(a4)
 935 0048 13441400 		xori	s0,s0,1
 936              	.L80:
 937              	.LVL75:
 228:C:/Users/stapi/OneDrive/Desktop/GD32VW553/V1_MQTT_OK/GD32VW55X_Wifi_BLE_SDK/GD32VW55x_RELEASE_V1.0.2/MSDK/wpa_supplicant/src/ap\neighbor_db.c **** 	struct wpa_ssid_value ssid;
 938              		.loc 1 228 2 is_stmt 1 discriminator 6
 229:C:/Users/stapi/OneDrive/Desktop/GD32VW553/V1_MQTT_OK/GD32VW55X_Wifi_BLE_SDK/GD32VW55x_RELEASE_V1.0.2/MSDK/wpa_supplicant/src/ap\neighbor_db.c **** 	u8 channel, op_class;
 939              		.loc 1 229 2 discriminator 6
 230:C:/Users/stapi/OneDrive/Desktop/GD32VW553/V1_MQTT_OK/GD32VW55X_Wifi_BLE_SDK/GD32VW55x_RELEASE_V1.0.2/MSDK/wpa_supplicant/src/ap\neighbor_db.c **** 	u8 center_freq1_idx = 0, center_freq2_idx = 0;
 940              		.loc 1 230 2 discriminator 6
 231:C:/Users/stapi/OneDrive/Desktop/GD32VW553/V1_MQTT_OK/GD32VW55X_Wifi_BLE_SDK/GD32VW55x_RELEASE_V1.0.2/MSDK/wpa_supplicant/src/ap\neighbor_db.c **** 	enum nr_chan_width width;
 232:C:/Users/stapi/OneDrive/Desktop/GD32VW553/V1_MQTT_OK/GD32VW55X_Wifi_BLE_SDK/GD32VW55x_RELEASE_V1.0.2/MSDK/wpa_supplicant/src/ap\neighbor_db.c **** 	u32 bssid_info;
 233:C:/Users/stapi/OneDrive/Desktop/GD32VW553/V1_MQTT_OK/GD32VW55X_Wifi_BLE_SDK/GD32VW55x_RELEASE_V1.0.2/MSDK/wpa_supplicant/src/ap\neighbor_db.c **** 	struct wpabuf *nr;
 234:C:/Users/stapi/OneDrive/Desktop/GD32VW553/V1_MQTT_OK/GD32VW55X_Wifi_BLE_SDK/GD32VW55x_RELEASE_V1.0.2/MSDK/wpa_supplicant/src/ap\neighbor_db.c **** 
 235:C:/Users/stapi/OneDrive/Desktop/GD32VW553/V1_MQTT_OK/GD32VW55X_Wifi_BLE_SDK/GD32VW55x_RELEASE_V1.0.2/MSDK/wpa_supplicant/src/ap\neighbor_db.c **** 	if (!(hapd->conf->radio_measurements[0] &
 941              		.loc 1 235 5 is_stmt 0 discriminator 6
 942 004c 8346473A 		lbu	a3,932(a4)
 230:C:/Users/stapi/OneDrive/Desktop/GD32VW553/V1_MQTT_OK/GD32VW55X_Wifi_BLE_SDK/GD32VW55x_RELEASE_V1.0.2/MSDK/wpa_supplicant/src/ap\neighbor_db.c **** 	u8 center_freq1_idx = 0, center_freq2_idx = 0;
 943              		.loc 1 230 5 discriminator 6
 944 0050 A3050100 		sb	zero,11(sp)
 945              	.LVL76:
 231:C:/Users/stapi/OneDrive/Desktop/GD32VW553/V1_MQTT_OK/GD32VW55X_Wifi_BLE_SDK/GD32VW55x_RELEASE_V1.0.2/MSDK/wpa_supplicant/src/ap\neighbor_db.c **** 	enum nr_chan_width width;
 946              		.loc 1 231 2 is_stmt 1 discriminator 6
 232:C:/Users/stapi/OneDrive/Desktop/GD32VW553/V1_MQTT_OK/GD32VW55X_Wifi_BLE_SDK/GD32VW55x_RELEASE_V1.0.2/MSDK/wpa_supplicant/src/ap\neighbor_db.c **** 	struct wpabuf *nr;
 947              		.loc 1 232 2 discriminator 6
 233:C:/Users/stapi/OneDrive/Desktop/GD32VW553/V1_MQTT_OK/GD32VW55X_Wifi_BLE_SDK/GD32VW55x_RELEASE_V1.0.2/MSDK/wpa_supplicant/src/ap\neighbor_db.c **** 
 948              		.loc 1 233 2 discriminator 6
 949              		.loc 1 235 2 discriminator 6
 950              		.loc 1 235 5 is_stmt 0 discriminator 6
 951 0054 898A     		andi	a3,a3,2
 952 0056 63810624 		beq	a3,zero,.L77
 236:C:/Users/stapi/OneDrive/Desktop/GD32VW553/V1_MQTT_OK/GD32VW55X_Wifi_BLE_SDK/GD32VW55x_RELEASE_V1.0.2/MSDK/wpa_supplicant/src/ap\neighbor_db.c **** 	      WLAN_RRM_CAPS_NEIGHBOR_REPORT))
 237:C:/Users/stapi/OneDrive/Desktop/GD32VW553/V1_MQTT_OK/GD32VW55X_Wifi_BLE_SDK/GD32VW55x_RELEASE_V1.0.2/MSDK/wpa_supplicant/src/ap\neighbor_db.c **** 		return;
 238:C:/Users/stapi/OneDrive/Desktop/GD32VW553/V1_MQTT_OK/GD32VW55X_Wifi_BLE_SDK/GD32VW55x_RELEASE_V1.0.2/MSDK/wpa_supplicant/src/ap\neighbor_db.c **** 
 239:C:/Users/stapi/OneDrive/Desktop/GD32VW553/V1_MQTT_OK/GD32VW55X_Wifi_BLE_SDK/GD32VW55x_RELEASE_V1.0.2/MSDK/wpa_supplicant/src/ap\neighbor_db.c **** 	bssid_info = 3; /* AP is reachable */
 953              		.loc 1 239 2 is_stmt 1
 954              	.LVL77:
 240:C:/Users/stapi/OneDrive/Desktop/GD32VW553/V1_MQTT_OK/GD32VW55X_Wifi_BLE_SDK/GD32VW55x_RELEASE_V1.0.2/MSDK/wpa_supplicant/src/ap\neighbor_db.c **** 	bssid_info |= NEI_REP_BSSID_INFO_SECURITY; /* "same as the AP" */
 955              		.loc 1 240 2
 241:C:/Users/stapi/OneDrive/Desktop/GD32VW553/V1_MQTT_OK/GD32VW55X_Wifi_BLE_SDK/GD32VW55x_RELEASE_V1.0.2/MSDK/wpa_supplicant/src/ap\neighbor_db.c **** 	bssid_info |= NEI_REP_BSSID_INFO_KEY_SCOPE; /* "same as the AP" */
 956              		.loc 1 241 2
 242:C:/Users/stapi/OneDrive/Desktop/GD32VW553/V1_MQTT_OK/GD32VW55X_Wifi_BLE_SDK/GD32VW55x_RELEASE_V1.0.2/MSDK/wpa_supplicant/src/ap\neighbor_db.c **** 
 243:C:/Users/stapi/OneDrive/Desktop/GD32VW553/V1_MQTT_OK/GD32VW55X_Wifi_BLE_SDK/GD32VW55x_RELEASE_V1.0.2/MSDK/wpa_supplicant/src/ap\neighbor_db.c **** 	if (capab & WLAN_CAPABILITY_SPECTRUM_MGMT)
 957              		.loc 1 243 2
 958              		.loc 1 243 5 is_stmt 0
 959 005a 13750510 		andi	a0,a0,256
 960              	.LVL78:
 241:C:/Users/stapi/OneDrive/Desktop/GD32VW553/V1_MQTT_OK/GD32VW55X_Wifi_BLE_SDK/GD32VW55x_RELEASE_V1.0.2/MSDK/wpa_supplicant/src/ap\neighbor_db.c **** 	bssid_info |= NEI_REP_BSSID_INFO_KEY_SCOPE; /* "same as the AP" */
 961              		.loc 1 241 13
 962 005e BD46     		li	a3,15
 963              		.loc 1 243 5
 964 0060 11C1     		beq	a0,zero,.L82
 244:C:/Users/stapi/OneDrive/Desktop/GD32VW553/V1_MQTT_OK/GD32VW55X_Wifi_BLE_SDK/GD32VW55x_RELEASE_V1.0.2/MSDK/wpa_supplicant/src/ap\neighbor_db.c **** 		bssid_info |= NEI_REP_BSSID_INFO_SPECTRUM_MGMT;
 965              		.loc 1 244 14
 966 0062 FD46     		li	a3,31
 967              	.L82:
 968              	.LVL79:
 245:C:/Users/stapi/OneDrive/Desktop/GD32VW553/V1_MQTT_OK/GD32VW55X_Wifi_BLE_SDK/GD32VW55x_RELEASE_V1.0.2/MSDK/wpa_supplicant/src/ap\neighbor_db.c **** 
 246:C:/Users/stapi/OneDrive/Desktop/GD32VW553/V1_MQTT_OK/GD32VW55X_Wifi_BLE_SDK/GD32VW55x_RELEASE_V1.0.2/MSDK/wpa_supplicant/src/ap\neighbor_db.c **** 	bssid_info |= NEI_REP_BSSID_INFO_RM; /* RRM is supported */
 969              		.loc 1 246 2 is_stmt 1
 247:C:/Users/stapi/OneDrive/Desktop/GD32VW553/V1_MQTT_OK/GD32VW55X_Wifi_BLE_SDK/GD32VW55x_RELEASE_V1.0.2/MSDK/wpa_supplicant/src/ap\neighbor_db.c **** 
 248:C:/Users/stapi/OneDrive/Desktop/GD32VW553/V1_MQTT_OK/GD32VW55X_Wifi_BLE_SDK/GD32VW55x_RELEASE_V1.0.2/MSDK/wpa_supplicant/src/ap\neighbor_db.c **** 	if (hapd->conf->wmm_enabled) {
 970              		.loc 1 248 2
 971              		.loc 1 248 5 is_stmt 0
 972 0064 03250726 		lw	a0,608(a4)
 249:C:/Users/stapi/OneDrive/Desktop/GD32VW553/V1_MQTT_OK/GD32VW55X_Wifi_BLE_SDK/GD32VW55x_RELEASE_V1.0.2/MSDK/wpa_supplicant/src/ap\neighbor_db.c **** 		bssid_info |= NEI_REP_BSSID_INFO_QOS;
 250:C:/Users/stapi/OneDrive/Desktop/GD32VW553/V1_MQTT_OK/GD32VW55X_Wifi_BLE_SDK/GD32VW55x_RELEASE_V1.0.2/MSDK/wpa_supplicant/src/ap\neighbor_db.c **** 
 251:C:/Users/stapi/OneDrive/Desktop/GD32VW553/V1_MQTT_OK/GD32VW55X_Wifi_BLE_SDK/GD32VW55x_RELEASE_V1.0.2/MSDK/wpa_supplicant/src/ap\neighbor_db.c **** 		if (hapd->conf->wmm_uapsd &&
 252:C:/Users/stapi/OneDrive/Desktop/GD32VW553/V1_MQTT_OK/GD32VW55X_Wifi_BLE_SDK/GD32VW55x_RELEASE_V1.0.2/MSDK/wpa_supplicant/src/ap\neighbor_db.c **** 		    (hapd->iface->drv_flags & WPA_DRIVER_FLAGS_AP_UAPSD))
 973              		.loc 1 252 12
 974 0068 83250900 		lw	a1,0(s2)
 246:C:/Users/stapi/OneDrive/Desktop/GD32VW553/V1_MQTT_OK/GD32VW55X_Wifi_BLE_SDK/GD32VW55x_RELEASE_V1.0.2/MSDK/wpa_supplicant/src/ap\neighbor_db.c **** 
 975              		.loc 1 246 13
 976 006c 93E90608 		ori	s3,a3,128
 977              	.LVL80:
 248:C:/Users/stapi/OneDrive/Desktop/GD32VW553/V1_MQTT_OK/GD32VW55X_Wifi_BLE_SDK/GD32VW55x_RELEASE_V1.0.2/MSDK/wpa_supplicant/src/ap\neighbor_db.c **** 		bssid_info |= NEI_REP_BSSID_INFO_QOS;
 978              		.loc 1 248 5
 979 0070 11CD     		beq	a0,zero,.L84
 249:C:/Users/stapi/OneDrive/Desktop/GD32VW553/V1_MQTT_OK/GD32VW55X_Wifi_BLE_SDK/GD32VW55x_RELEASE_V1.0.2/MSDK/wpa_supplicant/src/ap\neighbor_db.c **** 		bssid_info |= NEI_REP_BSSID_INFO_QOS;
 980              		.loc 1 249 3 is_stmt 1
 251:C:/Users/stapi/OneDrive/Desktop/GD32VW553/V1_MQTT_OK/GD32VW55X_Wifi_BLE_SDK/GD32VW55x_RELEASE_V1.0.2/MSDK/wpa_supplicant/src/ap\neighbor_db.c **** 		    (hapd->iface->drv_flags & WPA_DRIVER_FLAGS_AP_UAPSD))
 981              		.loc 1 251 6 is_stmt 0
 982 0072 03274726 		lw	a4,612(a4)
 249:C:/Users/stapi/OneDrive/Desktop/GD32VW553/V1_MQTT_OK/GD32VW55X_Wifi_BLE_SDK/GD32VW55x_RELEASE_V1.0.2/MSDK/wpa_supplicant/src/ap\neighbor_db.c **** 
 983              		.loc 1 249 14
 984 0076 93E9060A 		ori	s3,a3,160
 985              	.LVL81:
 251:C:/Users/stapi/OneDrive/Desktop/GD32VW553/V1_MQTT_OK/GD32VW55X_Wifi_BLE_SDK/GD32VW55x_RELEASE_V1.0.2/MSDK/wpa_supplicant/src/ap\neighbor_db.c **** 		    (hapd->iface->drv_flags & WPA_DRIVER_FLAGS_AP_UAPSD))
 986              		.loc 1 251 3 is_stmt 1
 251:C:/Users/stapi/OneDrive/Desktop/GD32VW553/V1_MQTT_OK/GD32VW55X_Wifi_BLE_SDK/GD32VW55x_RELEASE_V1.0.2/MSDK/wpa_supplicant/src/ap\neighbor_db.c **** 		    (hapd->iface->drv_flags & WPA_DRIVER_FLAGS_AP_UAPSD))
 987              		.loc 1 251 6 is_stmt 0
 988 007a 09CB     		beq	a4,zero,.L84
 989              		.loc 1 252 31 discriminator 1
 990 007c 03A78543 		lw	a4,1080(a1)
 991 0080 37054000 		li	a0,4194304
 992 0084 698F     		and	a4,a4,a0
 251:C:/Users/stapi/OneDrive/Desktop/GD32VW553/V1_MQTT_OK/GD32VW55X_Wifi_BLE_SDK/GD32VW55x_RELEASE_V1.0.2/MSDK/wpa_supplicant/src/ap\neighbor_db.c **** 		    (hapd->iface->drv_flags & WPA_DRIVER_FLAGS_AP_UAPSD))
 993              		.loc 1 251 29 discriminator 1
 994 0086 19C3     		beq	a4,zero,.L84
 253:C:/Users/stapi/OneDrive/Desktop/GD32VW553/V1_MQTT_OK/GD32VW55X_Wifi_BLE_SDK/GD32VW55x_RELEASE_V1.0.2/MSDK/wpa_supplicant/src/ap\neighbor_db.c **** 			bssid_info |= NEI_REP_BSSID_INFO_APSD;
 995              		.loc 1 253 4 is_stmt 1 discriminator 1
 996              		.loc 1 253 15 is_stmt 0 discriminator 1
 997 0088 93E9060E 		ori	s3,a3,224
 998              	.LVL82:
 999              	.L84:
 254:C:/Users/stapi/OneDrive/Desktop/GD32VW553/V1_MQTT_OK/GD32VW55X_Wifi_BLE_SDK/GD32VW55x_RELEASE_V1.0.2/MSDK/wpa_supplicant/src/ap\neighbor_db.c **** 	}
 255:C:/Users/stapi/OneDrive/Desktop/GD32VW553/V1_MQTT_OK/GD32VW55X_Wifi_BLE_SDK/GD32VW55x_RELEASE_V1.0.2/MSDK/wpa_supplicant/src/ap\neighbor_db.c **** 
 256:C:/Users/stapi/OneDrive/Desktop/GD32VW553/V1_MQTT_OK/GD32VW55X_Wifi_BLE_SDK/GD32VW55x_RELEASE_V1.0.2/MSDK/wpa_supplicant/src/ap\neighbor_db.c **** 	if (ht) {
 1000              		.loc 1 256 2 is_stmt 1
 1001              		.loc 1 256 5 is_stmt 0
 1002 008c 638D0A00 		beq	s5,zero,.L86
 257:C:/Users/stapi/OneDrive/Desktop/GD32VW553/V1_MQTT_OK/GD32VW55X_Wifi_BLE_SDK/GD32VW55x_RELEASE_V1.0.2/MSDK/wpa_supplicant/src/ap\neighbor_db.c **** 		bssid_info |= NEI_REP_BSSID_INFO_HT |
 1003              		.loc 1 257 3 is_stmt 1
 1004              	.LVL83:
 258:C:/Users/stapi/OneDrive/Desktop/GD32VW553/V1_MQTT_OK/GD32VW55X_Wifi_BLE_SDK/GD32VW55x_RELEASE_V1.0.2/MSDK/wpa_supplicant/src/ap\neighbor_db.c **** 			NEI_REP_BSSID_INFO_DELAYED_BA;
 259:C:/Users/stapi/OneDrive/Desktop/GD32VW553/V1_MQTT_OK/GD32VW55X_Wifi_BLE_SDK/GD32VW55x_RELEASE_V1.0.2/MSDK/wpa_supplicant/src/ap\neighbor_db.c **** 
 260:C:/Users/stapi/OneDrive/Desktop/GD32VW553/V1_MQTT_OK/GD32VW55X_Wifi_BLE_SDK/GD32VW55x_RELEASE_V1.0.2/MSDK/wpa_supplicant/src/ap\neighbor_db.c **** 		/* VHT bit added in IEEE P802.11-REVmc/D4.3 */
 261:C:/Users/stapi/OneDrive/Desktop/GD32VW553/V1_MQTT_OK/GD32VW55X_Wifi_BLE_SDK/GD32VW55x_RELEASE_V1.0.2/MSDK/wpa_supplicant/src/ap\neighbor_db.c **** 		if (vht)
 1005              		.loc 1 261 3
 257:C:/Users/stapi/OneDrive/Desktop/GD32VW553/V1_MQTT_OK/GD32VW55X_Wifi_BLE_SDK/GD32VW55x_RELEASE_V1.0.2/MSDK/wpa_supplicant/src/ap\neighbor_db.c **** 		bssid_info |= NEI_REP_BSSID_INFO_HT |
 1006              		.loc 1 257 14 is_stmt 0
 1007 0090 0567     		li	a4,4096
 1008              		.loc 1 261 6
 1009 0092 63030A00 		beq	s4,zero,.L163
 262:C:/Users/stapi/OneDrive/Desktop/GD32VW553/V1_MQTT_OK/GD32VW55X_Wifi_BLE_SDK/GD32VW55x_RELEASE_V1.0.2/MSDK/wpa_supplicant/src/ap\neighbor_db.c **** 			bssid_info |= NEI_REP_BSSID_INFO_VHT;
 1010              		.loc 1 262 4 is_stmt 1
 1011              		.loc 1 262 15 is_stmt 0
 1012 0096 0967     		li	a4,8192
 1013              	.L163:
 1014 0098 13070790 		addi	a4,a4,-1792
 1015 009c B3E9E900 		or	s3,s3,a4
 1016              	.LVL84:
 263:C:/Users/stapi/OneDrive/Desktop/GD32VW553/V1_MQTT_OK/GD32VW55X_Wifi_BLE_SDK/GD32VW55x_RELEASE_V1.0.2/MSDK/wpa_supplicant/src/ap\neighbor_db.c **** 		if (he)
 1017              		.loc 1 263 3 is_stmt 1
 1018              		.loc 1 263 6 is_stmt 0
 1019 00a0 19C0     		beq	s0,zero,.L86
 264:C:/Users/stapi/OneDrive/Desktop/GD32VW553/V1_MQTT_OK/GD32VW55X_Wifi_BLE_SDK/GD32VW55x_RELEASE_V1.0.2/MSDK/wpa_supplicant/src/ap\neighbor_db.c **** 			bssid_info |= NEI_REP_BSSID_INFO_HE;
 1020              		.loc 1 264 4 is_stmt 1
 1021              		.loc 1 264 15 is_stmt 0
 1022 00a2 9399E928 		bseti	s3,s3,14
 1023              	.LVL85:
 1024              	.L86:
 265:C:/Users/stapi/OneDrive/Desktop/GD32VW553/V1_MQTT_OK/GD32VW55X_Wifi_BLE_SDK/GD32VW55x_RELEASE_V1.0.2/MSDK/wpa_supplicant/src/ap\neighbor_db.c **** 	}
 266:C:/Users/stapi/OneDrive/Desktop/GD32VW553/V1_MQTT_OK/GD32VW55X_Wifi_BLE_SDK/GD32VW55x_RELEASE_V1.0.2/MSDK/wpa_supplicant/src/ap\neighbor_db.c **** 
 267:C:/Users/stapi/OneDrive/Desktop/GD32VW553/V1_MQTT_OK/GD32VW55X_Wifi_BLE_SDK/GD32VW55x_RELEASE_V1.0.2/MSDK/wpa_supplicant/src/ap\neighbor_db.c **** 	/* TODO: Set NEI_REP_BSSID_INFO_MOBILITY_DOMAIN if MDE is set */
 268:C:/Users/stapi/OneDrive/Desktop/GD32VW553/V1_MQTT_OK/GD32VW55X_Wifi_BLE_SDK/GD32VW55x_RELEASE_V1.0.2/MSDK/wpa_supplicant/src/ap\neighbor_db.c **** 
 269:C:/Users/stapi/OneDrive/Desktop/GD32VW553/V1_MQTT_OK/GD32VW55X_Wifi_BLE_SDK/GD32VW55x_RELEASE_V1.0.2/MSDK/wpa_supplicant/src/ap\neighbor_db.c **** 	if (ieee80211_freq_to_channel_ext(hapd->iface->freq,
 1025              		.loc 1 269 2 is_stmt 1
 1026              		.loc 1 269 6 is_stmt 0
 1027 00a6 03A54547 		lw	a0,1140(a1)
 1028 00aa 83A54712 		lw	a1,292(a5)
 1029              	.LVL86:
 1030              	.LBB88:
 1031              	.LBB89:
 1032              		.file 5 "C:/Users/stapi/OneDrive/Desktop/GD32VW553/V1_MQTT_OK/GD32VW55X_Wifi_BLE_SDK/GD32VW55x_REL
   1:C:/Users/stapi/OneDrive/Desktop/GD32VW553/V1_MQTT_OK/GD32VW55X_Wifi_BLE_SDK/GD32VW55x_RELEASE_V1.0.2/MSDK/wpa_supplicant/src/ap\ap_config.h **** /*
   2:C:/Users/stapi/OneDrive/Desktop/GD32VW553/V1_MQTT_OK/GD32VW55X_Wifi_BLE_SDK/GD32VW55x_RELEASE_V1.0.2/MSDK/wpa_supplicant/src/ap\ap_config.h ****  * hostapd / Configuration definitions and helpers functions
   3:C:/Users/stapi/OneDrive/Desktop/GD32VW553/V1_MQTT_OK/GD32VW55X_Wifi_BLE_SDK/GD32VW55x_RELEASE_V1.0.2/MSDK/wpa_supplicant/src/ap\ap_config.h ****  * Copyright (c) 2003-2015, Jouni Malinen <j@w1.fi>
   4:C:/Users/stapi/OneDrive/Desktop/GD32VW553/V1_MQTT_OK/GD32VW55X_Wifi_BLE_SDK/GD32VW55x_RELEASE_V1.0.2/MSDK/wpa_supplicant/src/ap\ap_config.h ****  *
   5:C:/Users/stapi/OneDrive/Desktop/GD32VW553/V1_MQTT_OK/GD32VW55X_Wifi_BLE_SDK/GD32VW55x_RELEASE_V1.0.2/MSDK/wpa_supplicant/src/ap\ap_config.h ****  * This software may be distributed under the terms of the BSD license.
   6:C:/Users/stapi/OneDrive/Desktop/GD32VW553/V1_MQTT_OK/GD32VW55X_Wifi_BLE_SDK/GD32VW55x_RELEASE_V1.0.2/MSDK/wpa_supplicant/src/ap\ap_config.h ****  * See README for more details.
   7:C:/Users/stapi/OneDrive/Desktop/GD32VW553/V1_MQTT_OK/GD32VW55X_Wifi_BLE_SDK/GD32VW55x_RELEASE_V1.0.2/MSDK/wpa_supplicant/src/ap\ap_config.h ****  */
   8:C:/Users/stapi/OneDrive/Desktop/GD32VW553/V1_MQTT_OK/GD32VW55X_Wifi_BLE_SDK/GD32VW55x_RELEASE_V1.0.2/MSDK/wpa_supplicant/src/ap\ap_config.h **** 
   9:C:/Users/stapi/OneDrive/Desktop/GD32VW553/V1_MQTT_OK/GD32VW55X_Wifi_BLE_SDK/GD32VW55x_RELEASE_V1.0.2/MSDK/wpa_supplicant/src/ap\ap_config.h **** #ifndef HOSTAPD_CONFIG_H
  10:C:/Users/stapi/OneDrive/Desktop/GD32VW553/V1_MQTT_OK/GD32VW55X_Wifi_BLE_SDK/GD32VW55x_RELEASE_V1.0.2/MSDK/wpa_supplicant/src/ap\ap_config.h **** #define HOSTAPD_CONFIG_H
  11:C:/Users/stapi/OneDrive/Desktop/GD32VW553/V1_MQTT_OK/GD32VW55X_Wifi_BLE_SDK/GD32VW55x_RELEASE_V1.0.2/MSDK/wpa_supplicant/src/ap\ap_config.h **** 
  12:C:/Users/stapi/OneDrive/Desktop/GD32VW553/V1_MQTT_OK/GD32VW55X_Wifi_BLE_SDK/GD32VW55x_RELEASE_V1.0.2/MSDK/wpa_supplicant/src/ap\ap_config.h **** #include "common/defs.h"
  13:C:/Users/stapi/OneDrive/Desktop/GD32VW553/V1_MQTT_OK/GD32VW55X_Wifi_BLE_SDK/GD32VW55x_RELEASE_V1.0.2/MSDK/wpa_supplicant/src/ap\ap_config.h **** #include "utils/list.h"
  14:C:/Users/stapi/OneDrive/Desktop/GD32VW553/V1_MQTT_OK/GD32VW55X_Wifi_BLE_SDK/GD32VW55x_RELEASE_V1.0.2/MSDK/wpa_supplicant/src/ap\ap_config.h **** #include "utils/ip_addr.h"
  15:C:/Users/stapi/OneDrive/Desktop/GD32VW553/V1_MQTT_OK/GD32VW55X_Wifi_BLE_SDK/GD32VW55x_RELEASE_V1.0.2/MSDK/wpa_supplicant/src/ap\ap_config.h **** #include "common/wpa_common.h"
  16:C:/Users/stapi/OneDrive/Desktop/GD32VW553/V1_MQTT_OK/GD32VW55X_Wifi_BLE_SDK/GD32VW55x_RELEASE_V1.0.2/MSDK/wpa_supplicant/src/ap\ap_config.h **** #include "common/ieee802_11_defs.h"
  17:C:/Users/stapi/OneDrive/Desktop/GD32VW553/V1_MQTT_OK/GD32VW55X_Wifi_BLE_SDK/GD32VW55x_RELEASE_V1.0.2/MSDK/wpa_supplicant/src/ap\ap_config.h **** #include "common/ieee802_11_common.h"
  18:C:/Users/stapi/OneDrive/Desktop/GD32VW553/V1_MQTT_OK/GD32VW55X_Wifi_BLE_SDK/GD32VW55x_RELEASE_V1.0.2/MSDK/wpa_supplicant/src/ap\ap_config.h **** #include "crypto/sha256.h"
  19:C:/Users/stapi/OneDrive/Desktop/GD32VW553/V1_MQTT_OK/GD32VW55X_Wifi_BLE_SDK/GD32VW55x_RELEASE_V1.0.2/MSDK/wpa_supplicant/src/ap\ap_config.h **** #include "wps/wps.h"
  20:C:/Users/stapi/OneDrive/Desktop/GD32VW553/V1_MQTT_OK/GD32VW55X_Wifi_BLE_SDK/GD32VW55x_RELEASE_V1.0.2/MSDK/wpa_supplicant/src/ap\ap_config.h **** #include "fst/fst.h"
  21:C:/Users/stapi/OneDrive/Desktop/GD32VW553/V1_MQTT_OK/GD32VW55X_Wifi_BLE_SDK/GD32VW55x_RELEASE_V1.0.2/MSDK/wpa_supplicant/src/ap\ap_config.h **** #include "vlan.h"
  22:C:/Users/stapi/OneDrive/Desktop/GD32VW553/V1_MQTT_OK/GD32VW55X_Wifi_BLE_SDK/GD32VW55x_RELEASE_V1.0.2/MSDK/wpa_supplicant/src/ap\ap_config.h **** 
  23:C:/Users/stapi/OneDrive/Desktop/GD32VW553/V1_MQTT_OK/GD32VW55X_Wifi_BLE_SDK/GD32VW55x_RELEASE_V1.0.2/MSDK/wpa_supplicant/src/ap\ap_config.h **** typedef uint32_t wpa_gid_t;
  24:C:/Users/stapi/OneDrive/Desktop/GD32VW553/V1_MQTT_OK/GD32VW55X_Wifi_BLE_SDK/GD32VW55x_RELEASE_V1.0.2/MSDK/wpa_supplicant/src/ap\ap_config.h **** 
  25:C:/Users/stapi/OneDrive/Desktop/GD32VW553/V1_MQTT_OK/GD32VW55X_Wifi_BLE_SDK/GD32VW55x_RELEASE_V1.0.2/MSDK/wpa_supplicant/src/ap\ap_config.h **** /**
  26:C:/Users/stapi/OneDrive/Desktop/GD32VW553/V1_MQTT_OK/GD32VW55X_Wifi_BLE_SDK/GD32VW55x_RELEASE_V1.0.2/MSDK/wpa_supplicant/src/ap\ap_config.h ****  * mesh_conf - local MBSS state and settings
  27:C:/Users/stapi/OneDrive/Desktop/GD32VW553/V1_MQTT_OK/GD32VW55X_Wifi_BLE_SDK/GD32VW55x_RELEASE_V1.0.2/MSDK/wpa_supplicant/src/ap\ap_config.h ****  */
  28:C:/Users/stapi/OneDrive/Desktop/GD32VW553/V1_MQTT_OK/GD32VW55X_Wifi_BLE_SDK/GD32VW55x_RELEASE_V1.0.2/MSDK/wpa_supplicant/src/ap\ap_config.h **** struct mesh_conf {
  29:C:/Users/stapi/OneDrive/Desktop/GD32VW553/V1_MQTT_OK/GD32VW55X_Wifi_BLE_SDK/GD32VW55x_RELEASE_V1.0.2/MSDK/wpa_supplicant/src/ap\ap_config.h **** 	u8 meshid[32];
  30:C:/Users/stapi/OneDrive/Desktop/GD32VW553/V1_MQTT_OK/GD32VW55X_Wifi_BLE_SDK/GD32VW55x_RELEASE_V1.0.2/MSDK/wpa_supplicant/src/ap\ap_config.h **** 	u8 meshid_len;
  31:C:/Users/stapi/OneDrive/Desktop/GD32VW553/V1_MQTT_OK/GD32VW55X_Wifi_BLE_SDK/GD32VW55x_RELEASE_V1.0.2/MSDK/wpa_supplicant/src/ap\ap_config.h **** 	/* Active Path Selection Protocol Identifier */
  32:C:/Users/stapi/OneDrive/Desktop/GD32VW553/V1_MQTT_OK/GD32VW55X_Wifi_BLE_SDK/GD32VW55x_RELEASE_V1.0.2/MSDK/wpa_supplicant/src/ap\ap_config.h **** 	u8 mesh_pp_id;
  33:C:/Users/stapi/OneDrive/Desktop/GD32VW553/V1_MQTT_OK/GD32VW55X_Wifi_BLE_SDK/GD32VW55x_RELEASE_V1.0.2/MSDK/wpa_supplicant/src/ap\ap_config.h **** 	/* Active Path Selection Metric Identifier */
  34:C:/Users/stapi/OneDrive/Desktop/GD32VW553/V1_MQTT_OK/GD32VW55X_Wifi_BLE_SDK/GD32VW55x_RELEASE_V1.0.2/MSDK/wpa_supplicant/src/ap\ap_config.h **** 	u8 mesh_pm_id;
  35:C:/Users/stapi/OneDrive/Desktop/GD32VW553/V1_MQTT_OK/GD32VW55X_Wifi_BLE_SDK/GD32VW55x_RELEASE_V1.0.2/MSDK/wpa_supplicant/src/ap\ap_config.h **** 	/* Congestion Control Mode Identifier */
  36:C:/Users/stapi/OneDrive/Desktop/GD32VW553/V1_MQTT_OK/GD32VW55X_Wifi_BLE_SDK/GD32VW55x_RELEASE_V1.0.2/MSDK/wpa_supplicant/src/ap\ap_config.h **** 	u8 mesh_cc_id;
  37:C:/Users/stapi/OneDrive/Desktop/GD32VW553/V1_MQTT_OK/GD32VW55X_Wifi_BLE_SDK/GD32VW55x_RELEASE_V1.0.2/MSDK/wpa_supplicant/src/ap\ap_config.h **** 	/* Synchronization Protocol Identifier */
  38:C:/Users/stapi/OneDrive/Desktop/GD32VW553/V1_MQTT_OK/GD32VW55X_Wifi_BLE_SDK/GD32VW55x_RELEASE_V1.0.2/MSDK/wpa_supplicant/src/ap\ap_config.h **** 	u8 mesh_sp_id;
  39:C:/Users/stapi/OneDrive/Desktop/GD32VW553/V1_MQTT_OK/GD32VW55X_Wifi_BLE_SDK/GD32VW55x_RELEASE_V1.0.2/MSDK/wpa_supplicant/src/ap\ap_config.h **** 	/* Authentication Protocol Identifier */
  40:C:/Users/stapi/OneDrive/Desktop/GD32VW553/V1_MQTT_OK/GD32VW55X_Wifi_BLE_SDK/GD32VW55x_RELEASE_V1.0.2/MSDK/wpa_supplicant/src/ap\ap_config.h **** 	u8 mesh_auth_id;
  41:C:/Users/stapi/OneDrive/Desktop/GD32VW553/V1_MQTT_OK/GD32VW55X_Wifi_BLE_SDK/GD32VW55x_RELEASE_V1.0.2/MSDK/wpa_supplicant/src/ap\ap_config.h **** 	u8 *rsn_ie;
  42:C:/Users/stapi/OneDrive/Desktop/GD32VW553/V1_MQTT_OK/GD32VW55X_Wifi_BLE_SDK/GD32VW55x_RELEASE_V1.0.2/MSDK/wpa_supplicant/src/ap\ap_config.h **** 	int rsn_ie_len;
  43:C:/Users/stapi/OneDrive/Desktop/GD32VW553/V1_MQTT_OK/GD32VW55X_Wifi_BLE_SDK/GD32VW55x_RELEASE_V1.0.2/MSDK/wpa_supplicant/src/ap\ap_config.h **** #define MESH_CONF_SEC_NONE BIT(0)
  44:C:/Users/stapi/OneDrive/Desktop/GD32VW553/V1_MQTT_OK/GD32VW55X_Wifi_BLE_SDK/GD32VW55x_RELEASE_V1.0.2/MSDK/wpa_supplicant/src/ap\ap_config.h **** #define MESH_CONF_SEC_AUTH BIT(1)
  45:C:/Users/stapi/OneDrive/Desktop/GD32VW553/V1_MQTT_OK/GD32VW55X_Wifi_BLE_SDK/GD32VW55x_RELEASE_V1.0.2/MSDK/wpa_supplicant/src/ap\ap_config.h **** #define MESH_CONF_SEC_AMPE BIT(2)
  46:C:/Users/stapi/OneDrive/Desktop/GD32VW553/V1_MQTT_OK/GD32VW55X_Wifi_BLE_SDK/GD32VW55x_RELEASE_V1.0.2/MSDK/wpa_supplicant/src/ap\ap_config.h **** 	unsigned int security;
  47:C:/Users/stapi/OneDrive/Desktop/GD32VW553/V1_MQTT_OK/GD32VW55X_Wifi_BLE_SDK/GD32VW55x_RELEASE_V1.0.2/MSDK/wpa_supplicant/src/ap\ap_config.h **** 	enum mfp_options ieee80211w;
  48:C:/Users/stapi/OneDrive/Desktop/GD32VW553/V1_MQTT_OK/GD32VW55X_Wifi_BLE_SDK/GD32VW55x_RELEASE_V1.0.2/MSDK/wpa_supplicant/src/ap\ap_config.h **** 	int ocv;
  49:C:/Users/stapi/OneDrive/Desktop/GD32VW553/V1_MQTT_OK/GD32VW55X_Wifi_BLE_SDK/GD32VW55x_RELEASE_V1.0.2/MSDK/wpa_supplicant/src/ap\ap_config.h **** 	unsigned int pairwise_cipher;
  50:C:/Users/stapi/OneDrive/Desktop/GD32VW553/V1_MQTT_OK/GD32VW55X_Wifi_BLE_SDK/GD32VW55x_RELEASE_V1.0.2/MSDK/wpa_supplicant/src/ap\ap_config.h **** 	unsigned int group_cipher;
  51:C:/Users/stapi/OneDrive/Desktop/GD32VW553/V1_MQTT_OK/GD32VW55X_Wifi_BLE_SDK/GD32VW55x_RELEASE_V1.0.2/MSDK/wpa_supplicant/src/ap\ap_config.h **** 	unsigned int mgmt_group_cipher;
  52:C:/Users/stapi/OneDrive/Desktop/GD32VW553/V1_MQTT_OK/GD32VW55X_Wifi_BLE_SDK/GD32VW55x_RELEASE_V1.0.2/MSDK/wpa_supplicant/src/ap\ap_config.h **** 	int dot11MeshMaxRetries;
  53:C:/Users/stapi/OneDrive/Desktop/GD32VW553/V1_MQTT_OK/GD32VW55X_Wifi_BLE_SDK/GD32VW55x_RELEASE_V1.0.2/MSDK/wpa_supplicant/src/ap\ap_config.h **** 	int dot11MeshRetryTimeout; /* msec */
  54:C:/Users/stapi/OneDrive/Desktop/GD32VW553/V1_MQTT_OK/GD32VW55X_Wifi_BLE_SDK/GD32VW55x_RELEASE_V1.0.2/MSDK/wpa_supplicant/src/ap\ap_config.h **** 	int dot11MeshConfirmTimeout; /* msec */
  55:C:/Users/stapi/OneDrive/Desktop/GD32VW553/V1_MQTT_OK/GD32VW55X_Wifi_BLE_SDK/GD32VW55x_RELEASE_V1.0.2/MSDK/wpa_supplicant/src/ap\ap_config.h **** 	int dot11MeshHoldingTimeout; /* msec */
  56:C:/Users/stapi/OneDrive/Desktop/GD32VW553/V1_MQTT_OK/GD32VW55X_Wifi_BLE_SDK/GD32VW55x_RELEASE_V1.0.2/MSDK/wpa_supplicant/src/ap\ap_config.h **** 	int mesh_fwding;
  57:C:/Users/stapi/OneDrive/Desktop/GD32VW553/V1_MQTT_OK/GD32VW55X_Wifi_BLE_SDK/GD32VW55x_RELEASE_V1.0.2/MSDK/wpa_supplicant/src/ap\ap_config.h **** };
  58:C:/Users/stapi/OneDrive/Desktop/GD32VW553/V1_MQTT_OK/GD32VW55X_Wifi_BLE_SDK/GD32VW55x_RELEASE_V1.0.2/MSDK/wpa_supplicant/src/ap\ap_config.h **** 
  59:C:/Users/stapi/OneDrive/Desktop/GD32VW553/V1_MQTT_OK/GD32VW55X_Wifi_BLE_SDK/GD32VW55x_RELEASE_V1.0.2/MSDK/wpa_supplicant/src/ap\ap_config.h **** #define MAX_STA_COUNT 2007
  60:C:/Users/stapi/OneDrive/Desktop/GD32VW553/V1_MQTT_OK/GD32VW55X_Wifi_BLE_SDK/GD32VW55x_RELEASE_V1.0.2/MSDK/wpa_supplicant/src/ap\ap_config.h **** #define MAX_VLAN_ID 4094
  61:C:/Users/stapi/OneDrive/Desktop/GD32VW553/V1_MQTT_OK/GD32VW55X_Wifi_BLE_SDK/GD32VW55x_RELEASE_V1.0.2/MSDK/wpa_supplicant/src/ap\ap_config.h **** 
  62:C:/Users/stapi/OneDrive/Desktop/GD32VW553/V1_MQTT_OK/GD32VW55X_Wifi_BLE_SDK/GD32VW55x_RELEASE_V1.0.2/MSDK/wpa_supplicant/src/ap\ap_config.h **** typedef u8 macaddr[ETH_ALEN];
  63:C:/Users/stapi/OneDrive/Desktop/GD32VW553/V1_MQTT_OK/GD32VW55X_Wifi_BLE_SDK/GD32VW55x_RELEASE_V1.0.2/MSDK/wpa_supplicant/src/ap\ap_config.h **** 
  64:C:/Users/stapi/OneDrive/Desktop/GD32VW553/V1_MQTT_OK/GD32VW55X_Wifi_BLE_SDK/GD32VW55x_RELEASE_V1.0.2/MSDK/wpa_supplicant/src/ap\ap_config.h **** struct mac_acl_entry {
  65:C:/Users/stapi/OneDrive/Desktop/GD32VW553/V1_MQTT_OK/GD32VW55X_Wifi_BLE_SDK/GD32VW55x_RELEASE_V1.0.2/MSDK/wpa_supplicant/src/ap\ap_config.h **** 	macaddr addr;
  66:C:/Users/stapi/OneDrive/Desktop/GD32VW553/V1_MQTT_OK/GD32VW55X_Wifi_BLE_SDK/GD32VW55x_RELEASE_V1.0.2/MSDK/wpa_supplicant/src/ap\ap_config.h **** 	struct vlan_description vlan_id;
  67:C:/Users/stapi/OneDrive/Desktop/GD32VW553/V1_MQTT_OK/GD32VW55X_Wifi_BLE_SDK/GD32VW55x_RELEASE_V1.0.2/MSDK/wpa_supplicant/src/ap\ap_config.h **** };
  68:C:/Users/stapi/OneDrive/Desktop/GD32VW553/V1_MQTT_OK/GD32VW55X_Wifi_BLE_SDK/GD32VW55x_RELEASE_V1.0.2/MSDK/wpa_supplicant/src/ap\ap_config.h **** 
  69:C:/Users/stapi/OneDrive/Desktop/GD32VW553/V1_MQTT_OK/GD32VW55X_Wifi_BLE_SDK/GD32VW55x_RELEASE_V1.0.2/MSDK/wpa_supplicant/src/ap\ap_config.h **** struct hostapd_radius_servers;
  70:C:/Users/stapi/OneDrive/Desktop/GD32VW553/V1_MQTT_OK/GD32VW55X_Wifi_BLE_SDK/GD32VW55x_RELEASE_V1.0.2/MSDK/wpa_supplicant/src/ap\ap_config.h **** struct ft_remote_r0kh;
  71:C:/Users/stapi/OneDrive/Desktop/GD32VW553/V1_MQTT_OK/GD32VW55X_Wifi_BLE_SDK/GD32VW55x_RELEASE_V1.0.2/MSDK/wpa_supplicant/src/ap\ap_config.h **** struct ft_remote_r1kh;
  72:C:/Users/stapi/OneDrive/Desktop/GD32VW553/V1_MQTT_OK/GD32VW55X_Wifi_BLE_SDK/GD32VW55x_RELEASE_V1.0.2/MSDK/wpa_supplicant/src/ap\ap_config.h **** 
  73:C:/Users/stapi/OneDrive/Desktop/GD32VW553/V1_MQTT_OK/GD32VW55X_Wifi_BLE_SDK/GD32VW55x_RELEASE_V1.0.2/MSDK/wpa_supplicant/src/ap\ap_config.h **** #ifdef CONFIG_WEP
  74:C:/Users/stapi/OneDrive/Desktop/GD32VW553/V1_MQTT_OK/GD32VW55X_Wifi_BLE_SDK/GD32VW55x_RELEASE_V1.0.2/MSDK/wpa_supplicant/src/ap\ap_config.h **** #define NUM_WEP_KEYS 4
  75:C:/Users/stapi/OneDrive/Desktop/GD32VW553/V1_MQTT_OK/GD32VW55X_Wifi_BLE_SDK/GD32VW55x_RELEASE_V1.0.2/MSDK/wpa_supplicant/src/ap\ap_config.h **** struct hostapd_wep_keys {
  76:C:/Users/stapi/OneDrive/Desktop/GD32VW553/V1_MQTT_OK/GD32VW55X_Wifi_BLE_SDK/GD32VW55x_RELEASE_V1.0.2/MSDK/wpa_supplicant/src/ap\ap_config.h **** 	u8 idx;
  77:C:/Users/stapi/OneDrive/Desktop/GD32VW553/V1_MQTT_OK/GD32VW55X_Wifi_BLE_SDK/GD32VW55x_RELEASE_V1.0.2/MSDK/wpa_supplicant/src/ap\ap_config.h **** 	u8 *key[NUM_WEP_KEYS];
  78:C:/Users/stapi/OneDrive/Desktop/GD32VW553/V1_MQTT_OK/GD32VW55X_Wifi_BLE_SDK/GD32VW55x_RELEASE_V1.0.2/MSDK/wpa_supplicant/src/ap\ap_config.h **** 	size_t len[NUM_WEP_KEYS];
  79:C:/Users/stapi/OneDrive/Desktop/GD32VW553/V1_MQTT_OK/GD32VW55X_Wifi_BLE_SDK/GD32VW55x_RELEASE_V1.0.2/MSDK/wpa_supplicant/src/ap\ap_config.h **** 	int keys_set;
  80:C:/Users/stapi/OneDrive/Desktop/GD32VW553/V1_MQTT_OK/GD32VW55X_Wifi_BLE_SDK/GD32VW55x_RELEASE_V1.0.2/MSDK/wpa_supplicant/src/ap\ap_config.h **** 	size_t default_len; /* key length used for dynamic key generation */
  81:C:/Users/stapi/OneDrive/Desktop/GD32VW553/V1_MQTT_OK/GD32VW55X_Wifi_BLE_SDK/GD32VW55x_RELEASE_V1.0.2/MSDK/wpa_supplicant/src/ap\ap_config.h **** };
  82:C:/Users/stapi/OneDrive/Desktop/GD32VW553/V1_MQTT_OK/GD32VW55X_Wifi_BLE_SDK/GD32VW55x_RELEASE_V1.0.2/MSDK/wpa_supplicant/src/ap\ap_config.h **** #endif /* CONFIG_WEP */
  83:C:/Users/stapi/OneDrive/Desktop/GD32VW553/V1_MQTT_OK/GD32VW55X_Wifi_BLE_SDK/GD32VW55x_RELEASE_V1.0.2/MSDK/wpa_supplicant/src/ap\ap_config.h **** 
  84:C:/Users/stapi/OneDrive/Desktop/GD32VW553/V1_MQTT_OK/GD32VW55X_Wifi_BLE_SDK/GD32VW55x_RELEASE_V1.0.2/MSDK/wpa_supplicant/src/ap\ap_config.h **** typedef enum hostap_security_policy {
  85:C:/Users/stapi/OneDrive/Desktop/GD32VW553/V1_MQTT_OK/GD32VW55X_Wifi_BLE_SDK/GD32VW55x_RELEASE_V1.0.2/MSDK/wpa_supplicant/src/ap\ap_config.h **** 	SECURITY_PLAINTEXT = 0,
  86:C:/Users/stapi/OneDrive/Desktop/GD32VW553/V1_MQTT_OK/GD32VW55X_Wifi_BLE_SDK/GD32VW55x_RELEASE_V1.0.2/MSDK/wpa_supplicant/src/ap\ap_config.h **** #ifdef CONFIG_WEP
  87:C:/Users/stapi/OneDrive/Desktop/GD32VW553/V1_MQTT_OK/GD32VW55X_Wifi_BLE_SDK/GD32VW55x_RELEASE_V1.0.2/MSDK/wpa_supplicant/src/ap\ap_config.h **** 	SECURITY_STATIC_WEP = 1,
  88:C:/Users/stapi/OneDrive/Desktop/GD32VW553/V1_MQTT_OK/GD32VW55X_Wifi_BLE_SDK/GD32VW55x_RELEASE_V1.0.2/MSDK/wpa_supplicant/src/ap\ap_config.h **** #endif /* CONFIG_WEP */
  89:C:/Users/stapi/OneDrive/Desktop/GD32VW553/V1_MQTT_OK/GD32VW55X_Wifi_BLE_SDK/GD32VW55x_RELEASE_V1.0.2/MSDK/wpa_supplicant/src/ap\ap_config.h **** 	SECURITY_IEEE_802_1X = 2,
  90:C:/Users/stapi/OneDrive/Desktop/GD32VW553/V1_MQTT_OK/GD32VW55X_Wifi_BLE_SDK/GD32VW55x_RELEASE_V1.0.2/MSDK/wpa_supplicant/src/ap\ap_config.h **** 	SECURITY_WPA_PSK = 3,
  91:C:/Users/stapi/OneDrive/Desktop/GD32VW553/V1_MQTT_OK/GD32VW55X_Wifi_BLE_SDK/GD32VW55x_RELEASE_V1.0.2/MSDK/wpa_supplicant/src/ap\ap_config.h **** 	SECURITY_WPA = 4,
  92:C:/Users/stapi/OneDrive/Desktop/GD32VW553/V1_MQTT_OK/GD32VW55X_Wifi_BLE_SDK/GD32VW55x_RELEASE_V1.0.2/MSDK/wpa_supplicant/src/ap\ap_config.h **** 	SECURITY_OSEN = 5
  93:C:/Users/stapi/OneDrive/Desktop/GD32VW553/V1_MQTT_OK/GD32VW55X_Wifi_BLE_SDK/GD32VW55x_RELEASE_V1.0.2/MSDK/wpa_supplicant/src/ap\ap_config.h **** } secpolicy;
  94:C:/Users/stapi/OneDrive/Desktop/GD32VW553/V1_MQTT_OK/GD32VW55X_Wifi_BLE_SDK/GD32VW55x_RELEASE_V1.0.2/MSDK/wpa_supplicant/src/ap\ap_config.h **** 
  95:C:/Users/stapi/OneDrive/Desktop/GD32VW553/V1_MQTT_OK/GD32VW55X_Wifi_BLE_SDK/GD32VW55x_RELEASE_V1.0.2/MSDK/wpa_supplicant/src/ap\ap_config.h **** struct hostapd_ssid {
  96:C:/Users/stapi/OneDrive/Desktop/GD32VW553/V1_MQTT_OK/GD32VW55X_Wifi_BLE_SDK/GD32VW55x_RELEASE_V1.0.2/MSDK/wpa_supplicant/src/ap\ap_config.h **** 	u8 ssid[SSID_MAX_LEN];
  97:C:/Users/stapi/OneDrive/Desktop/GD32VW553/V1_MQTT_OK/GD32VW55X_Wifi_BLE_SDK/GD32VW55x_RELEASE_V1.0.2/MSDK/wpa_supplicant/src/ap\ap_config.h **** 	size_t ssid_len;
  98:C:/Users/stapi/OneDrive/Desktop/GD32VW553/V1_MQTT_OK/GD32VW55X_Wifi_BLE_SDK/GD32VW55x_RELEASE_V1.0.2/MSDK/wpa_supplicant/src/ap\ap_config.h **** 	u32 short_ssid;
  99:C:/Users/stapi/OneDrive/Desktop/GD32VW553/V1_MQTT_OK/GD32VW55X_Wifi_BLE_SDK/GD32VW55x_RELEASE_V1.0.2/MSDK/wpa_supplicant/src/ap\ap_config.h **** 	unsigned int ssid_set:1;
 100:C:/Users/stapi/OneDrive/Desktop/GD32VW553/V1_MQTT_OK/GD32VW55X_Wifi_BLE_SDK/GD32VW55x_RELEASE_V1.0.2/MSDK/wpa_supplicant/src/ap\ap_config.h **** 	unsigned int utf8_ssid:1;
 101:C:/Users/stapi/OneDrive/Desktop/GD32VW553/V1_MQTT_OK/GD32VW55X_Wifi_BLE_SDK/GD32VW55x_RELEASE_V1.0.2/MSDK/wpa_supplicant/src/ap\ap_config.h **** 	unsigned int wpa_passphrase_set:1;
 102:C:/Users/stapi/OneDrive/Desktop/GD32VW553/V1_MQTT_OK/GD32VW55X_Wifi_BLE_SDK/GD32VW55x_RELEASE_V1.0.2/MSDK/wpa_supplicant/src/ap\ap_config.h **** 	unsigned int wpa_psk_set:1;
 103:C:/Users/stapi/OneDrive/Desktop/GD32VW553/V1_MQTT_OK/GD32VW55X_Wifi_BLE_SDK/GD32VW55x_RELEASE_V1.0.2/MSDK/wpa_supplicant/src/ap\ap_config.h **** 
 104:C:/Users/stapi/OneDrive/Desktop/GD32VW553/V1_MQTT_OK/GD32VW55X_Wifi_BLE_SDK/GD32VW55x_RELEASE_V1.0.2/MSDK/wpa_supplicant/src/ap\ap_config.h **** 	char vlan[IFNAMSIZ + 1];
 105:C:/Users/stapi/OneDrive/Desktop/GD32VW553/V1_MQTT_OK/GD32VW55X_Wifi_BLE_SDK/GD32VW55x_RELEASE_V1.0.2/MSDK/wpa_supplicant/src/ap\ap_config.h **** 	secpolicy security_policy;
 106:C:/Users/stapi/OneDrive/Desktop/GD32VW553/V1_MQTT_OK/GD32VW55X_Wifi_BLE_SDK/GD32VW55x_RELEASE_V1.0.2/MSDK/wpa_supplicant/src/ap\ap_config.h **** 
 107:C:/Users/stapi/OneDrive/Desktop/GD32VW553/V1_MQTT_OK/GD32VW55X_Wifi_BLE_SDK/GD32VW55x_RELEASE_V1.0.2/MSDK/wpa_supplicant/src/ap\ap_config.h **** 	struct hostapd_wpa_psk *wpa_psk;
 108:C:/Users/stapi/OneDrive/Desktop/GD32VW553/V1_MQTT_OK/GD32VW55X_Wifi_BLE_SDK/GD32VW55x_RELEASE_V1.0.2/MSDK/wpa_supplicant/src/ap\ap_config.h **** 	char *wpa_passphrase;
 109:C:/Users/stapi/OneDrive/Desktop/GD32VW553/V1_MQTT_OK/GD32VW55X_Wifi_BLE_SDK/GD32VW55x_RELEASE_V1.0.2/MSDK/wpa_supplicant/src/ap\ap_config.h **** 	char *wpa_psk_file;
 110:C:/Users/stapi/OneDrive/Desktop/GD32VW553/V1_MQTT_OK/GD32VW55X_Wifi_BLE_SDK/GD32VW55x_RELEASE_V1.0.2/MSDK/wpa_supplicant/src/ap\ap_config.h **** 	struct sae_pt *pt;
 111:C:/Users/stapi/OneDrive/Desktop/GD32VW553/V1_MQTT_OK/GD32VW55X_Wifi_BLE_SDK/GD32VW55x_RELEASE_V1.0.2/MSDK/wpa_supplicant/src/ap\ap_config.h **** 
 112:C:/Users/stapi/OneDrive/Desktop/GD32VW553/V1_MQTT_OK/GD32VW55X_Wifi_BLE_SDK/GD32VW55x_RELEASE_V1.0.2/MSDK/wpa_supplicant/src/ap\ap_config.h **** #ifdef CONFIG_WEP
 113:C:/Users/stapi/OneDrive/Desktop/GD32VW553/V1_MQTT_OK/GD32VW55X_Wifi_BLE_SDK/GD32VW55x_RELEASE_V1.0.2/MSDK/wpa_supplicant/src/ap\ap_config.h **** 	struct hostapd_wep_keys wep;
 114:C:/Users/stapi/OneDrive/Desktop/GD32VW553/V1_MQTT_OK/GD32VW55X_Wifi_BLE_SDK/GD32VW55x_RELEASE_V1.0.2/MSDK/wpa_supplicant/src/ap\ap_config.h **** #endif /* CONFIG_WEP */
 115:C:/Users/stapi/OneDrive/Desktop/GD32VW553/V1_MQTT_OK/GD32VW55X_Wifi_BLE_SDK/GD32VW55x_RELEASE_V1.0.2/MSDK/wpa_supplicant/src/ap\ap_config.h **** 
 116:C:/Users/stapi/OneDrive/Desktop/GD32VW553/V1_MQTT_OK/GD32VW55X_Wifi_BLE_SDK/GD32VW55x_RELEASE_V1.0.2/MSDK/wpa_supplicant/src/ap\ap_config.h **** #define DYNAMIC_VLAN_DISABLED 0
 117:C:/Users/stapi/OneDrive/Desktop/GD32VW553/V1_MQTT_OK/GD32VW55X_Wifi_BLE_SDK/GD32VW55x_RELEASE_V1.0.2/MSDK/wpa_supplicant/src/ap\ap_config.h **** #define DYNAMIC_VLAN_OPTIONAL 1
 118:C:/Users/stapi/OneDrive/Desktop/GD32VW553/V1_MQTT_OK/GD32VW55X_Wifi_BLE_SDK/GD32VW55x_RELEASE_V1.0.2/MSDK/wpa_supplicant/src/ap\ap_config.h **** #define DYNAMIC_VLAN_REQUIRED 2
 119:C:/Users/stapi/OneDrive/Desktop/GD32VW553/V1_MQTT_OK/GD32VW55X_Wifi_BLE_SDK/GD32VW55x_RELEASE_V1.0.2/MSDK/wpa_supplicant/src/ap\ap_config.h **** 	int dynamic_vlan;
 120:C:/Users/stapi/OneDrive/Desktop/GD32VW553/V1_MQTT_OK/GD32VW55X_Wifi_BLE_SDK/GD32VW55x_RELEASE_V1.0.2/MSDK/wpa_supplicant/src/ap\ap_config.h **** #define DYNAMIC_VLAN_NAMING_WITHOUT_DEVICE 0
 121:C:/Users/stapi/OneDrive/Desktop/GD32VW553/V1_MQTT_OK/GD32VW55X_Wifi_BLE_SDK/GD32VW55x_RELEASE_V1.0.2/MSDK/wpa_supplicant/src/ap\ap_config.h **** #define DYNAMIC_VLAN_NAMING_WITH_DEVICE 1
 122:C:/Users/stapi/OneDrive/Desktop/GD32VW553/V1_MQTT_OK/GD32VW55X_Wifi_BLE_SDK/GD32VW55x_RELEASE_V1.0.2/MSDK/wpa_supplicant/src/ap\ap_config.h **** #define DYNAMIC_VLAN_NAMING_END 2
 123:C:/Users/stapi/OneDrive/Desktop/GD32VW553/V1_MQTT_OK/GD32VW55X_Wifi_BLE_SDK/GD32VW55x_RELEASE_V1.0.2/MSDK/wpa_supplicant/src/ap\ap_config.h **** 	int vlan_naming;
 124:C:/Users/stapi/OneDrive/Desktop/GD32VW553/V1_MQTT_OK/GD32VW55X_Wifi_BLE_SDK/GD32VW55x_RELEASE_V1.0.2/MSDK/wpa_supplicant/src/ap\ap_config.h **** 	int per_sta_vif;
 125:C:/Users/stapi/OneDrive/Desktop/GD32VW553/V1_MQTT_OK/GD32VW55X_Wifi_BLE_SDK/GD32VW55x_RELEASE_V1.0.2/MSDK/wpa_supplicant/src/ap\ap_config.h **** #ifdef CONFIG_FULL_DYNAMIC_VLAN
 126:C:/Users/stapi/OneDrive/Desktop/GD32VW553/V1_MQTT_OK/GD32VW55X_Wifi_BLE_SDK/GD32VW55x_RELEASE_V1.0.2/MSDK/wpa_supplicant/src/ap\ap_config.h **** 	char *vlan_tagged_interface;
 127:C:/Users/stapi/OneDrive/Desktop/GD32VW553/V1_MQTT_OK/GD32VW55X_Wifi_BLE_SDK/GD32VW55x_RELEASE_V1.0.2/MSDK/wpa_supplicant/src/ap\ap_config.h **** #endif /* CONFIG_FULL_DYNAMIC_VLAN */
 128:C:/Users/stapi/OneDrive/Desktop/GD32VW553/V1_MQTT_OK/GD32VW55X_Wifi_BLE_SDK/GD32VW55x_RELEASE_V1.0.2/MSDK/wpa_supplicant/src/ap\ap_config.h **** };
 129:C:/Users/stapi/OneDrive/Desktop/GD32VW553/V1_MQTT_OK/GD32VW55X_Wifi_BLE_SDK/GD32VW55x_RELEASE_V1.0.2/MSDK/wpa_supplicant/src/ap\ap_config.h **** 
 130:C:/Users/stapi/OneDrive/Desktop/GD32VW553/V1_MQTT_OK/GD32VW55X_Wifi_BLE_SDK/GD32VW55x_RELEASE_V1.0.2/MSDK/wpa_supplicant/src/ap\ap_config.h **** 
 131:C:/Users/stapi/OneDrive/Desktop/GD32VW553/V1_MQTT_OK/GD32VW55X_Wifi_BLE_SDK/GD32VW55x_RELEASE_V1.0.2/MSDK/wpa_supplicant/src/ap\ap_config.h **** #define VLAN_ID_WILDCARD -1
 132:C:/Users/stapi/OneDrive/Desktop/GD32VW553/V1_MQTT_OK/GD32VW55X_Wifi_BLE_SDK/GD32VW55x_RELEASE_V1.0.2/MSDK/wpa_supplicant/src/ap\ap_config.h **** 
 133:C:/Users/stapi/OneDrive/Desktop/GD32VW553/V1_MQTT_OK/GD32VW55X_Wifi_BLE_SDK/GD32VW55x_RELEASE_V1.0.2/MSDK/wpa_supplicant/src/ap\ap_config.h **** struct hostapd_vlan {
 134:C:/Users/stapi/OneDrive/Desktop/GD32VW553/V1_MQTT_OK/GD32VW55X_Wifi_BLE_SDK/GD32VW55x_RELEASE_V1.0.2/MSDK/wpa_supplicant/src/ap\ap_config.h **** 	struct hostapd_vlan *next;
 135:C:/Users/stapi/OneDrive/Desktop/GD32VW553/V1_MQTT_OK/GD32VW55X_Wifi_BLE_SDK/GD32VW55x_RELEASE_V1.0.2/MSDK/wpa_supplicant/src/ap\ap_config.h **** 	int vlan_id; /* VLAN ID or -1 (VLAN_ID_WILDCARD) for wildcard entry */
 136:C:/Users/stapi/OneDrive/Desktop/GD32VW553/V1_MQTT_OK/GD32VW55X_Wifi_BLE_SDK/GD32VW55x_RELEASE_V1.0.2/MSDK/wpa_supplicant/src/ap\ap_config.h **** 	struct vlan_description vlan_desc;
 137:C:/Users/stapi/OneDrive/Desktop/GD32VW553/V1_MQTT_OK/GD32VW55X_Wifi_BLE_SDK/GD32VW55x_RELEASE_V1.0.2/MSDK/wpa_supplicant/src/ap\ap_config.h **** 	char ifname[IFNAMSIZ + 1];
 138:C:/Users/stapi/OneDrive/Desktop/GD32VW553/V1_MQTT_OK/GD32VW55X_Wifi_BLE_SDK/GD32VW55x_RELEASE_V1.0.2/MSDK/wpa_supplicant/src/ap\ap_config.h **** 	char bridge[IFNAMSIZ + 1];
 139:C:/Users/stapi/OneDrive/Desktop/GD32VW553/V1_MQTT_OK/GD32VW55X_Wifi_BLE_SDK/GD32VW55x_RELEASE_V1.0.2/MSDK/wpa_supplicant/src/ap\ap_config.h **** 	int configured;
 140:C:/Users/stapi/OneDrive/Desktop/GD32VW553/V1_MQTT_OK/GD32VW55X_Wifi_BLE_SDK/GD32VW55x_RELEASE_V1.0.2/MSDK/wpa_supplicant/src/ap\ap_config.h **** 	int dynamic_vlan;
 141:C:/Users/stapi/OneDrive/Desktop/GD32VW553/V1_MQTT_OK/GD32VW55X_Wifi_BLE_SDK/GD32VW55x_RELEASE_V1.0.2/MSDK/wpa_supplicant/src/ap\ap_config.h **** #ifdef CONFIG_FULL_DYNAMIC_VLAN
 142:C:/Users/stapi/OneDrive/Desktop/GD32VW553/V1_MQTT_OK/GD32VW55X_Wifi_BLE_SDK/GD32VW55x_RELEASE_V1.0.2/MSDK/wpa_supplicant/src/ap\ap_config.h **** 
 143:C:/Users/stapi/OneDrive/Desktop/GD32VW553/V1_MQTT_OK/GD32VW55X_Wifi_BLE_SDK/GD32VW55x_RELEASE_V1.0.2/MSDK/wpa_supplicant/src/ap\ap_config.h **** #define DVLAN_CLEAN_WLAN_PORT	0x8
 144:C:/Users/stapi/OneDrive/Desktop/GD32VW553/V1_MQTT_OK/GD32VW55X_Wifi_BLE_SDK/GD32VW55x_RELEASE_V1.0.2/MSDK/wpa_supplicant/src/ap\ap_config.h **** 	int clean;
 145:C:/Users/stapi/OneDrive/Desktop/GD32VW553/V1_MQTT_OK/GD32VW55X_Wifi_BLE_SDK/GD32VW55x_RELEASE_V1.0.2/MSDK/wpa_supplicant/src/ap\ap_config.h **** #endif /* CONFIG_FULL_DYNAMIC_VLAN */
 146:C:/Users/stapi/OneDrive/Desktop/GD32VW553/V1_MQTT_OK/GD32VW55X_Wifi_BLE_SDK/GD32VW55x_RELEASE_V1.0.2/MSDK/wpa_supplicant/src/ap\ap_config.h **** };
 147:C:/Users/stapi/OneDrive/Desktop/GD32VW553/V1_MQTT_OK/GD32VW55X_Wifi_BLE_SDK/GD32VW55x_RELEASE_V1.0.2/MSDK/wpa_supplicant/src/ap\ap_config.h **** 
 148:C:/Users/stapi/OneDrive/Desktop/GD32VW553/V1_MQTT_OK/GD32VW55X_Wifi_BLE_SDK/GD32VW55x_RELEASE_V1.0.2/MSDK/wpa_supplicant/src/ap\ap_config.h **** #define PMK_LEN 32
 149:C:/Users/stapi/OneDrive/Desktop/GD32VW553/V1_MQTT_OK/GD32VW55X_Wifi_BLE_SDK/GD32VW55x_RELEASE_V1.0.2/MSDK/wpa_supplicant/src/ap\ap_config.h **** #define KEYID_LEN 32
 150:C:/Users/stapi/OneDrive/Desktop/GD32VW553/V1_MQTT_OK/GD32VW55X_Wifi_BLE_SDK/GD32VW55x_RELEASE_V1.0.2/MSDK/wpa_supplicant/src/ap\ap_config.h **** #define MIN_PASSPHRASE_LEN 8
 151:C:/Users/stapi/OneDrive/Desktop/GD32VW553/V1_MQTT_OK/GD32VW55X_Wifi_BLE_SDK/GD32VW55x_RELEASE_V1.0.2/MSDK/wpa_supplicant/src/ap\ap_config.h **** #define MAX_PASSPHRASE_LEN 63
 152:C:/Users/stapi/OneDrive/Desktop/GD32VW553/V1_MQTT_OK/GD32VW55X_Wifi_BLE_SDK/GD32VW55x_RELEASE_V1.0.2/MSDK/wpa_supplicant/src/ap\ap_config.h **** struct hostapd_sta_wpa_psk_short {
 153:C:/Users/stapi/OneDrive/Desktop/GD32VW553/V1_MQTT_OK/GD32VW55X_Wifi_BLE_SDK/GD32VW55x_RELEASE_V1.0.2/MSDK/wpa_supplicant/src/ap\ap_config.h **** 	struct hostapd_sta_wpa_psk_short *next;
 154:C:/Users/stapi/OneDrive/Desktop/GD32VW553/V1_MQTT_OK/GD32VW55X_Wifi_BLE_SDK/GD32VW55x_RELEASE_V1.0.2/MSDK/wpa_supplicant/src/ap\ap_config.h **** 	unsigned int is_passphrase:1;
 155:C:/Users/stapi/OneDrive/Desktop/GD32VW553/V1_MQTT_OK/GD32VW55X_Wifi_BLE_SDK/GD32VW55x_RELEASE_V1.0.2/MSDK/wpa_supplicant/src/ap\ap_config.h **** 	u8 psk[PMK_LEN];
 156:C:/Users/stapi/OneDrive/Desktop/GD32VW553/V1_MQTT_OK/GD32VW55X_Wifi_BLE_SDK/GD32VW55x_RELEASE_V1.0.2/MSDK/wpa_supplicant/src/ap\ap_config.h **** 	char passphrase[MAX_PASSPHRASE_LEN + 1];
 157:C:/Users/stapi/OneDrive/Desktop/GD32VW553/V1_MQTT_OK/GD32VW55X_Wifi_BLE_SDK/GD32VW55x_RELEASE_V1.0.2/MSDK/wpa_supplicant/src/ap\ap_config.h **** 	int ref; /* (number of references held) - 1 */
 158:C:/Users/stapi/OneDrive/Desktop/GD32VW553/V1_MQTT_OK/GD32VW55X_Wifi_BLE_SDK/GD32VW55x_RELEASE_V1.0.2/MSDK/wpa_supplicant/src/ap\ap_config.h **** };
 159:C:/Users/stapi/OneDrive/Desktop/GD32VW553/V1_MQTT_OK/GD32VW55X_Wifi_BLE_SDK/GD32VW55x_RELEASE_V1.0.2/MSDK/wpa_supplicant/src/ap\ap_config.h **** 
 160:C:/Users/stapi/OneDrive/Desktop/GD32VW553/V1_MQTT_OK/GD32VW55X_Wifi_BLE_SDK/GD32VW55x_RELEASE_V1.0.2/MSDK/wpa_supplicant/src/ap\ap_config.h **** struct hostapd_wpa_psk {
 161:C:/Users/stapi/OneDrive/Desktop/GD32VW553/V1_MQTT_OK/GD32VW55X_Wifi_BLE_SDK/GD32VW55x_RELEASE_V1.0.2/MSDK/wpa_supplicant/src/ap\ap_config.h **** 	struct hostapd_wpa_psk *next;
 162:C:/Users/stapi/OneDrive/Desktop/GD32VW553/V1_MQTT_OK/GD32VW55X_Wifi_BLE_SDK/GD32VW55x_RELEASE_V1.0.2/MSDK/wpa_supplicant/src/ap\ap_config.h **** 	int group;
 163:C:/Users/stapi/OneDrive/Desktop/GD32VW553/V1_MQTT_OK/GD32VW55X_Wifi_BLE_SDK/GD32VW55x_RELEASE_V1.0.2/MSDK/wpa_supplicant/src/ap\ap_config.h **** 	char keyid[KEYID_LEN];
 164:C:/Users/stapi/OneDrive/Desktop/GD32VW553/V1_MQTT_OK/GD32VW55X_Wifi_BLE_SDK/GD32VW55x_RELEASE_V1.0.2/MSDK/wpa_supplicant/src/ap\ap_config.h **** 	int wps;
 165:C:/Users/stapi/OneDrive/Desktop/GD32VW553/V1_MQTT_OK/GD32VW55X_Wifi_BLE_SDK/GD32VW55x_RELEASE_V1.0.2/MSDK/wpa_supplicant/src/ap\ap_config.h **** 	u8 psk[PMK_LEN];
 166:C:/Users/stapi/OneDrive/Desktop/GD32VW553/V1_MQTT_OK/GD32VW55X_Wifi_BLE_SDK/GD32VW55x_RELEASE_V1.0.2/MSDK/wpa_supplicant/src/ap\ap_config.h **** 	u8 addr[ETH_ALEN];
 167:C:/Users/stapi/OneDrive/Desktop/GD32VW553/V1_MQTT_OK/GD32VW55X_Wifi_BLE_SDK/GD32VW55x_RELEASE_V1.0.2/MSDK/wpa_supplicant/src/ap\ap_config.h **** 	u8 p2p_dev_addr[ETH_ALEN];
 168:C:/Users/stapi/OneDrive/Desktop/GD32VW553/V1_MQTT_OK/GD32VW55X_Wifi_BLE_SDK/GD32VW55x_RELEASE_V1.0.2/MSDK/wpa_supplicant/src/ap\ap_config.h **** 	int vlan_id;
 169:C:/Users/stapi/OneDrive/Desktop/GD32VW553/V1_MQTT_OK/GD32VW55X_Wifi_BLE_SDK/GD32VW55x_RELEASE_V1.0.2/MSDK/wpa_supplicant/src/ap\ap_config.h **** };
 170:C:/Users/stapi/OneDrive/Desktop/GD32VW553/V1_MQTT_OK/GD32VW55X_Wifi_BLE_SDK/GD32VW55x_RELEASE_V1.0.2/MSDK/wpa_supplicant/src/ap\ap_config.h **** 
 171:C:/Users/stapi/OneDrive/Desktop/GD32VW553/V1_MQTT_OK/GD32VW55X_Wifi_BLE_SDK/GD32VW55x_RELEASE_V1.0.2/MSDK/wpa_supplicant/src/ap\ap_config.h **** struct hostapd_eap_user {
 172:C:/Users/stapi/OneDrive/Desktop/GD32VW553/V1_MQTT_OK/GD32VW55X_Wifi_BLE_SDK/GD32VW55x_RELEASE_V1.0.2/MSDK/wpa_supplicant/src/ap\ap_config.h **** 	struct hostapd_eap_user *next;
 173:C:/Users/stapi/OneDrive/Desktop/GD32VW553/V1_MQTT_OK/GD32VW55X_Wifi_BLE_SDK/GD32VW55x_RELEASE_V1.0.2/MSDK/wpa_supplicant/src/ap\ap_config.h **** 	u8 *identity;
 174:C:/Users/stapi/OneDrive/Desktop/GD32VW553/V1_MQTT_OK/GD32VW55X_Wifi_BLE_SDK/GD32VW55x_RELEASE_V1.0.2/MSDK/wpa_supplicant/src/ap\ap_config.h **** 	size_t identity_len;
 175:C:/Users/stapi/OneDrive/Desktop/GD32VW553/V1_MQTT_OK/GD32VW55X_Wifi_BLE_SDK/GD32VW55x_RELEASE_V1.0.2/MSDK/wpa_supplicant/src/ap\ap_config.h **** 	struct {
 176:C:/Users/stapi/OneDrive/Desktop/GD32VW553/V1_MQTT_OK/GD32VW55X_Wifi_BLE_SDK/GD32VW55x_RELEASE_V1.0.2/MSDK/wpa_supplicant/src/ap\ap_config.h **** 		int vendor;
 177:C:/Users/stapi/OneDrive/Desktop/GD32VW553/V1_MQTT_OK/GD32VW55X_Wifi_BLE_SDK/GD32VW55x_RELEASE_V1.0.2/MSDK/wpa_supplicant/src/ap\ap_config.h **** 		u32 method;
 178:C:/Users/stapi/OneDrive/Desktop/GD32VW553/V1_MQTT_OK/GD32VW55X_Wifi_BLE_SDK/GD32VW55x_RELEASE_V1.0.2/MSDK/wpa_supplicant/src/ap\ap_config.h **** 	} methods[EAP_MAX_METHODS];
 179:C:/Users/stapi/OneDrive/Desktop/GD32VW553/V1_MQTT_OK/GD32VW55X_Wifi_BLE_SDK/GD32VW55x_RELEASE_V1.0.2/MSDK/wpa_supplicant/src/ap\ap_config.h **** 	u8 *password;
 180:C:/Users/stapi/OneDrive/Desktop/GD32VW553/V1_MQTT_OK/GD32VW55X_Wifi_BLE_SDK/GD32VW55x_RELEASE_V1.0.2/MSDK/wpa_supplicant/src/ap\ap_config.h **** 	size_t password_len;
 181:C:/Users/stapi/OneDrive/Desktop/GD32VW553/V1_MQTT_OK/GD32VW55X_Wifi_BLE_SDK/GD32VW55x_RELEASE_V1.0.2/MSDK/wpa_supplicant/src/ap\ap_config.h **** 	u8 *salt;
 182:C:/Users/stapi/OneDrive/Desktop/GD32VW553/V1_MQTT_OK/GD32VW55X_Wifi_BLE_SDK/GD32VW55x_RELEASE_V1.0.2/MSDK/wpa_supplicant/src/ap\ap_config.h **** 	size_t salt_len; /* non-zero when password is salted */
 183:C:/Users/stapi/OneDrive/Desktop/GD32VW553/V1_MQTT_OK/GD32VW55X_Wifi_BLE_SDK/GD32VW55x_RELEASE_V1.0.2/MSDK/wpa_supplicant/src/ap\ap_config.h **** 	int phase2;
 184:C:/Users/stapi/OneDrive/Desktop/GD32VW553/V1_MQTT_OK/GD32VW55X_Wifi_BLE_SDK/GD32VW55x_RELEASE_V1.0.2/MSDK/wpa_supplicant/src/ap\ap_config.h **** 	int force_version;
 185:C:/Users/stapi/OneDrive/Desktop/GD32VW553/V1_MQTT_OK/GD32VW55X_Wifi_BLE_SDK/GD32VW55x_RELEASE_V1.0.2/MSDK/wpa_supplicant/src/ap\ap_config.h **** 	unsigned int wildcard_prefix:1;
 186:C:/Users/stapi/OneDrive/Desktop/GD32VW553/V1_MQTT_OK/GD32VW55X_Wifi_BLE_SDK/GD32VW55x_RELEASE_V1.0.2/MSDK/wpa_supplicant/src/ap\ap_config.h **** 	unsigned int password_hash:1; /* whether password is hashed with
 187:C:/Users/stapi/OneDrive/Desktop/GD32VW553/V1_MQTT_OK/GD32VW55X_Wifi_BLE_SDK/GD32VW55x_RELEASE_V1.0.2/MSDK/wpa_supplicant/src/ap\ap_config.h **** 				       * nt_password_hash() */
 188:C:/Users/stapi/OneDrive/Desktop/GD32VW553/V1_MQTT_OK/GD32VW55X_Wifi_BLE_SDK/GD32VW55x_RELEASE_V1.0.2/MSDK/wpa_supplicant/src/ap\ap_config.h **** 	unsigned int remediation:1;
 189:C:/Users/stapi/OneDrive/Desktop/GD32VW553/V1_MQTT_OK/GD32VW55X_Wifi_BLE_SDK/GD32VW55x_RELEASE_V1.0.2/MSDK/wpa_supplicant/src/ap\ap_config.h **** 	unsigned int macacl:1;
 190:C:/Users/stapi/OneDrive/Desktop/GD32VW553/V1_MQTT_OK/GD32VW55X_Wifi_BLE_SDK/GD32VW55x_RELEASE_V1.0.2/MSDK/wpa_supplicant/src/ap\ap_config.h **** 	int ttls_auth; /* EAP_TTLS_AUTH_* bitfield */
 191:C:/Users/stapi/OneDrive/Desktop/GD32VW553/V1_MQTT_OK/GD32VW55X_Wifi_BLE_SDK/GD32VW55x_RELEASE_V1.0.2/MSDK/wpa_supplicant/src/ap\ap_config.h **** 	struct hostapd_radius_attr *accept_attr;
 192:C:/Users/stapi/OneDrive/Desktop/GD32VW553/V1_MQTT_OK/GD32VW55X_Wifi_BLE_SDK/GD32VW55x_RELEASE_V1.0.2/MSDK/wpa_supplicant/src/ap\ap_config.h **** 	u32 t_c_timestamp;
 193:C:/Users/stapi/OneDrive/Desktop/GD32VW553/V1_MQTT_OK/GD32VW55X_Wifi_BLE_SDK/GD32VW55x_RELEASE_V1.0.2/MSDK/wpa_supplicant/src/ap\ap_config.h **** };
 194:C:/Users/stapi/OneDrive/Desktop/GD32VW553/V1_MQTT_OK/GD32VW55X_Wifi_BLE_SDK/GD32VW55x_RELEASE_V1.0.2/MSDK/wpa_supplicant/src/ap\ap_config.h **** 
 195:C:/Users/stapi/OneDrive/Desktop/GD32VW553/V1_MQTT_OK/GD32VW55X_Wifi_BLE_SDK/GD32VW55x_RELEASE_V1.0.2/MSDK/wpa_supplicant/src/ap\ap_config.h **** struct hostapd_radius_attr {
 196:C:/Users/stapi/OneDrive/Desktop/GD32VW553/V1_MQTT_OK/GD32VW55X_Wifi_BLE_SDK/GD32VW55x_RELEASE_V1.0.2/MSDK/wpa_supplicant/src/ap\ap_config.h **** 	u8 type;
 197:C:/Users/stapi/OneDrive/Desktop/GD32VW553/V1_MQTT_OK/GD32VW55X_Wifi_BLE_SDK/GD32VW55x_RELEASE_V1.0.2/MSDK/wpa_supplicant/src/ap\ap_config.h **** 	struct wpabuf *val;
 198:C:/Users/stapi/OneDrive/Desktop/GD32VW553/V1_MQTT_OK/GD32VW55X_Wifi_BLE_SDK/GD32VW55x_RELEASE_V1.0.2/MSDK/wpa_supplicant/src/ap\ap_config.h **** 	struct hostapd_radius_attr *next;
 199:C:/Users/stapi/OneDrive/Desktop/GD32VW553/V1_MQTT_OK/GD32VW55X_Wifi_BLE_SDK/GD32VW55x_RELEASE_V1.0.2/MSDK/wpa_supplicant/src/ap\ap_config.h **** };
 200:C:/Users/stapi/OneDrive/Desktop/GD32VW553/V1_MQTT_OK/GD32VW55X_Wifi_BLE_SDK/GD32VW55x_RELEASE_V1.0.2/MSDK/wpa_supplicant/src/ap\ap_config.h **** 
 201:C:/Users/stapi/OneDrive/Desktop/GD32VW553/V1_MQTT_OK/GD32VW55X_Wifi_BLE_SDK/GD32VW55x_RELEASE_V1.0.2/MSDK/wpa_supplicant/src/ap\ap_config.h **** 
 202:C:/Users/stapi/OneDrive/Desktop/GD32VW553/V1_MQTT_OK/GD32VW55X_Wifi_BLE_SDK/GD32VW55x_RELEASE_V1.0.2/MSDK/wpa_supplicant/src/ap\ap_config.h **** #define NUM_TX_QUEUES 4
 203:C:/Users/stapi/OneDrive/Desktop/GD32VW553/V1_MQTT_OK/GD32VW55X_Wifi_BLE_SDK/GD32VW55x_RELEASE_V1.0.2/MSDK/wpa_supplicant/src/ap\ap_config.h **** #define MAX_ROAMING_CONSORTIUM_LEN 15
 204:C:/Users/stapi/OneDrive/Desktop/GD32VW553/V1_MQTT_OK/GD32VW55X_Wifi_BLE_SDK/GD32VW55x_RELEASE_V1.0.2/MSDK/wpa_supplicant/src/ap\ap_config.h **** 
 205:C:/Users/stapi/OneDrive/Desktop/GD32VW553/V1_MQTT_OK/GD32VW55X_Wifi_BLE_SDK/GD32VW55x_RELEASE_V1.0.2/MSDK/wpa_supplicant/src/ap\ap_config.h **** struct hostapd_roaming_consortium {
 206:C:/Users/stapi/OneDrive/Desktop/GD32VW553/V1_MQTT_OK/GD32VW55X_Wifi_BLE_SDK/GD32VW55x_RELEASE_V1.0.2/MSDK/wpa_supplicant/src/ap\ap_config.h **** 	u8 len;
 207:C:/Users/stapi/OneDrive/Desktop/GD32VW553/V1_MQTT_OK/GD32VW55X_Wifi_BLE_SDK/GD32VW55x_RELEASE_V1.0.2/MSDK/wpa_supplicant/src/ap\ap_config.h **** 	u8 oi[MAX_ROAMING_CONSORTIUM_LEN];
 208:C:/Users/stapi/OneDrive/Desktop/GD32VW553/V1_MQTT_OK/GD32VW55X_Wifi_BLE_SDK/GD32VW55x_RELEASE_V1.0.2/MSDK/wpa_supplicant/src/ap\ap_config.h **** };
 209:C:/Users/stapi/OneDrive/Desktop/GD32VW553/V1_MQTT_OK/GD32VW55X_Wifi_BLE_SDK/GD32VW55x_RELEASE_V1.0.2/MSDK/wpa_supplicant/src/ap\ap_config.h **** 
 210:C:/Users/stapi/OneDrive/Desktop/GD32VW553/V1_MQTT_OK/GD32VW55X_Wifi_BLE_SDK/GD32VW55x_RELEASE_V1.0.2/MSDK/wpa_supplicant/src/ap\ap_config.h **** struct hostapd_lang_string {
 211:C:/Users/stapi/OneDrive/Desktop/GD32VW553/V1_MQTT_OK/GD32VW55X_Wifi_BLE_SDK/GD32VW55x_RELEASE_V1.0.2/MSDK/wpa_supplicant/src/ap\ap_config.h **** 	u8 lang[3];
 212:C:/Users/stapi/OneDrive/Desktop/GD32VW553/V1_MQTT_OK/GD32VW55X_Wifi_BLE_SDK/GD32VW55x_RELEASE_V1.0.2/MSDK/wpa_supplicant/src/ap\ap_config.h **** 	u8 name_len;
 213:C:/Users/stapi/OneDrive/Desktop/GD32VW553/V1_MQTT_OK/GD32VW55X_Wifi_BLE_SDK/GD32VW55x_RELEASE_V1.0.2/MSDK/wpa_supplicant/src/ap\ap_config.h **** 	u8 name[252];
 214:C:/Users/stapi/OneDrive/Desktop/GD32VW553/V1_MQTT_OK/GD32VW55X_Wifi_BLE_SDK/GD32VW55x_RELEASE_V1.0.2/MSDK/wpa_supplicant/src/ap\ap_config.h **** };
 215:C:/Users/stapi/OneDrive/Desktop/GD32VW553/V1_MQTT_OK/GD32VW55X_Wifi_BLE_SDK/GD32VW55x_RELEASE_V1.0.2/MSDK/wpa_supplicant/src/ap\ap_config.h **** 
 216:C:/Users/stapi/OneDrive/Desktop/GD32VW553/V1_MQTT_OK/GD32VW55X_Wifi_BLE_SDK/GD32VW55x_RELEASE_V1.0.2/MSDK/wpa_supplicant/src/ap\ap_config.h **** struct hostapd_venue_url {
 217:C:/Users/stapi/OneDrive/Desktop/GD32VW553/V1_MQTT_OK/GD32VW55X_Wifi_BLE_SDK/GD32VW55x_RELEASE_V1.0.2/MSDK/wpa_supplicant/src/ap\ap_config.h **** 	u8 venue_number;
 218:C:/Users/stapi/OneDrive/Desktop/GD32VW553/V1_MQTT_OK/GD32VW55X_Wifi_BLE_SDK/GD32VW55x_RELEASE_V1.0.2/MSDK/wpa_supplicant/src/ap\ap_config.h **** 	u8 url_len;
 219:C:/Users/stapi/OneDrive/Desktop/GD32VW553/V1_MQTT_OK/GD32VW55X_Wifi_BLE_SDK/GD32VW55x_RELEASE_V1.0.2/MSDK/wpa_supplicant/src/ap\ap_config.h **** 	u8 url[254];
 220:C:/Users/stapi/OneDrive/Desktop/GD32VW553/V1_MQTT_OK/GD32VW55X_Wifi_BLE_SDK/GD32VW55x_RELEASE_V1.0.2/MSDK/wpa_supplicant/src/ap\ap_config.h **** };
 221:C:/Users/stapi/OneDrive/Desktop/GD32VW553/V1_MQTT_OK/GD32VW55X_Wifi_BLE_SDK/GD32VW55x_RELEASE_V1.0.2/MSDK/wpa_supplicant/src/ap\ap_config.h **** 
 222:C:/Users/stapi/OneDrive/Desktop/GD32VW553/V1_MQTT_OK/GD32VW55X_Wifi_BLE_SDK/GD32VW55x_RELEASE_V1.0.2/MSDK/wpa_supplicant/src/ap\ap_config.h **** #define MAX_NAI_REALMS 10
 223:C:/Users/stapi/OneDrive/Desktop/GD32VW553/V1_MQTT_OK/GD32VW55X_Wifi_BLE_SDK/GD32VW55x_RELEASE_V1.0.2/MSDK/wpa_supplicant/src/ap\ap_config.h **** #define MAX_NAI_REALMLEN 255
 224:C:/Users/stapi/OneDrive/Desktop/GD32VW553/V1_MQTT_OK/GD32VW55X_Wifi_BLE_SDK/GD32VW55x_RELEASE_V1.0.2/MSDK/wpa_supplicant/src/ap\ap_config.h **** #define MAX_NAI_EAP_METHODS 5
 225:C:/Users/stapi/OneDrive/Desktop/GD32VW553/V1_MQTT_OK/GD32VW55X_Wifi_BLE_SDK/GD32VW55x_RELEASE_V1.0.2/MSDK/wpa_supplicant/src/ap\ap_config.h **** #define MAX_NAI_AUTH_TYPES 4
 226:C:/Users/stapi/OneDrive/Desktop/GD32VW553/V1_MQTT_OK/GD32VW55X_Wifi_BLE_SDK/GD32VW55x_RELEASE_V1.0.2/MSDK/wpa_supplicant/src/ap\ap_config.h **** struct hostapd_nai_realm_data {
 227:C:/Users/stapi/OneDrive/Desktop/GD32VW553/V1_MQTT_OK/GD32VW55X_Wifi_BLE_SDK/GD32VW55x_RELEASE_V1.0.2/MSDK/wpa_supplicant/src/ap\ap_config.h **** 	u8 encoding;
 228:C:/Users/stapi/OneDrive/Desktop/GD32VW553/V1_MQTT_OK/GD32VW55X_Wifi_BLE_SDK/GD32VW55x_RELEASE_V1.0.2/MSDK/wpa_supplicant/src/ap\ap_config.h **** 	char realm_buf[MAX_NAI_REALMLEN + 1];
 229:C:/Users/stapi/OneDrive/Desktop/GD32VW553/V1_MQTT_OK/GD32VW55X_Wifi_BLE_SDK/GD32VW55x_RELEASE_V1.0.2/MSDK/wpa_supplicant/src/ap\ap_config.h **** 	char *realm[MAX_NAI_REALMS];
 230:C:/Users/stapi/OneDrive/Desktop/GD32VW553/V1_MQTT_OK/GD32VW55X_Wifi_BLE_SDK/GD32VW55x_RELEASE_V1.0.2/MSDK/wpa_supplicant/src/ap\ap_config.h **** 	u8 eap_method_count;
 231:C:/Users/stapi/OneDrive/Desktop/GD32VW553/V1_MQTT_OK/GD32VW55X_Wifi_BLE_SDK/GD32VW55x_RELEASE_V1.0.2/MSDK/wpa_supplicant/src/ap\ap_config.h **** 	struct hostapd_nai_realm_eap {
 232:C:/Users/stapi/OneDrive/Desktop/GD32VW553/V1_MQTT_OK/GD32VW55X_Wifi_BLE_SDK/GD32VW55x_RELEASE_V1.0.2/MSDK/wpa_supplicant/src/ap\ap_config.h **** 		u8 eap_method;
 233:C:/Users/stapi/OneDrive/Desktop/GD32VW553/V1_MQTT_OK/GD32VW55X_Wifi_BLE_SDK/GD32VW55x_RELEASE_V1.0.2/MSDK/wpa_supplicant/src/ap\ap_config.h **** 		u8 num_auths;
 234:C:/Users/stapi/OneDrive/Desktop/GD32VW553/V1_MQTT_OK/GD32VW55X_Wifi_BLE_SDK/GD32VW55x_RELEASE_V1.0.2/MSDK/wpa_supplicant/src/ap\ap_config.h **** 		u8 auth_id[MAX_NAI_AUTH_TYPES];
 235:C:/Users/stapi/OneDrive/Desktop/GD32VW553/V1_MQTT_OK/GD32VW55X_Wifi_BLE_SDK/GD32VW55x_RELEASE_V1.0.2/MSDK/wpa_supplicant/src/ap\ap_config.h **** 		u8 auth_val[MAX_NAI_AUTH_TYPES];
 236:C:/Users/stapi/OneDrive/Desktop/GD32VW553/V1_MQTT_OK/GD32VW55X_Wifi_BLE_SDK/GD32VW55x_RELEASE_V1.0.2/MSDK/wpa_supplicant/src/ap\ap_config.h **** 	} eap_method[MAX_NAI_EAP_METHODS];
 237:C:/Users/stapi/OneDrive/Desktop/GD32VW553/V1_MQTT_OK/GD32VW55X_Wifi_BLE_SDK/GD32VW55x_RELEASE_V1.0.2/MSDK/wpa_supplicant/src/ap\ap_config.h **** };
 238:C:/Users/stapi/OneDrive/Desktop/GD32VW553/V1_MQTT_OK/GD32VW55X_Wifi_BLE_SDK/GD32VW55x_RELEASE_V1.0.2/MSDK/wpa_supplicant/src/ap\ap_config.h **** 
 239:C:/Users/stapi/OneDrive/Desktop/GD32VW553/V1_MQTT_OK/GD32VW55X_Wifi_BLE_SDK/GD32VW55x_RELEASE_V1.0.2/MSDK/wpa_supplicant/src/ap\ap_config.h **** struct anqp_element {
 240:C:/Users/stapi/OneDrive/Desktop/GD32VW553/V1_MQTT_OK/GD32VW55X_Wifi_BLE_SDK/GD32VW55x_RELEASE_V1.0.2/MSDK/wpa_supplicant/src/ap\ap_config.h **** 	struct dl_list list;
 241:C:/Users/stapi/OneDrive/Desktop/GD32VW553/V1_MQTT_OK/GD32VW55X_Wifi_BLE_SDK/GD32VW55x_RELEASE_V1.0.2/MSDK/wpa_supplicant/src/ap\ap_config.h **** 	u16 infoid;
 242:C:/Users/stapi/OneDrive/Desktop/GD32VW553/V1_MQTT_OK/GD32VW55X_Wifi_BLE_SDK/GD32VW55x_RELEASE_V1.0.2/MSDK/wpa_supplicant/src/ap\ap_config.h **** 	struct wpabuf *payload;
 243:C:/Users/stapi/OneDrive/Desktop/GD32VW553/V1_MQTT_OK/GD32VW55X_Wifi_BLE_SDK/GD32VW55x_RELEASE_V1.0.2/MSDK/wpa_supplicant/src/ap\ap_config.h **** };
 244:C:/Users/stapi/OneDrive/Desktop/GD32VW553/V1_MQTT_OK/GD32VW55X_Wifi_BLE_SDK/GD32VW55x_RELEASE_V1.0.2/MSDK/wpa_supplicant/src/ap\ap_config.h **** 
 245:C:/Users/stapi/OneDrive/Desktop/GD32VW553/V1_MQTT_OK/GD32VW55X_Wifi_BLE_SDK/GD32VW55x_RELEASE_V1.0.2/MSDK/wpa_supplicant/src/ap\ap_config.h **** struct fils_realm {
 246:C:/Users/stapi/OneDrive/Desktop/GD32VW553/V1_MQTT_OK/GD32VW55X_Wifi_BLE_SDK/GD32VW55x_RELEASE_V1.0.2/MSDK/wpa_supplicant/src/ap\ap_config.h **** 	struct dl_list list;
 247:C:/Users/stapi/OneDrive/Desktop/GD32VW553/V1_MQTT_OK/GD32VW55X_Wifi_BLE_SDK/GD32VW55x_RELEASE_V1.0.2/MSDK/wpa_supplicant/src/ap\ap_config.h **** 	u8 hash[2];
 248:C:/Users/stapi/OneDrive/Desktop/GD32VW553/V1_MQTT_OK/GD32VW55X_Wifi_BLE_SDK/GD32VW55x_RELEASE_V1.0.2/MSDK/wpa_supplicant/src/ap\ap_config.h **** 	char realm[];
 249:C:/Users/stapi/OneDrive/Desktop/GD32VW553/V1_MQTT_OK/GD32VW55X_Wifi_BLE_SDK/GD32VW55x_RELEASE_V1.0.2/MSDK/wpa_supplicant/src/ap\ap_config.h **** };
 250:C:/Users/stapi/OneDrive/Desktop/GD32VW553/V1_MQTT_OK/GD32VW55X_Wifi_BLE_SDK/GD32VW55x_RELEASE_V1.0.2/MSDK/wpa_supplicant/src/ap\ap_config.h **** 
 251:C:/Users/stapi/OneDrive/Desktop/GD32VW553/V1_MQTT_OK/GD32VW55X_Wifi_BLE_SDK/GD32VW55x_RELEASE_V1.0.2/MSDK/wpa_supplicant/src/ap\ap_config.h **** struct sae_password_entry {
 252:C:/Users/stapi/OneDrive/Desktop/GD32VW553/V1_MQTT_OK/GD32VW55X_Wifi_BLE_SDK/GD32VW55x_RELEASE_V1.0.2/MSDK/wpa_supplicant/src/ap\ap_config.h **** 	struct sae_password_entry *next;
 253:C:/Users/stapi/OneDrive/Desktop/GD32VW553/V1_MQTT_OK/GD32VW55X_Wifi_BLE_SDK/GD32VW55x_RELEASE_V1.0.2/MSDK/wpa_supplicant/src/ap\ap_config.h **** 	char *password;
 254:C:/Users/stapi/OneDrive/Desktop/GD32VW553/V1_MQTT_OK/GD32VW55X_Wifi_BLE_SDK/GD32VW55x_RELEASE_V1.0.2/MSDK/wpa_supplicant/src/ap\ap_config.h **** 	char *identifier;
 255:C:/Users/stapi/OneDrive/Desktop/GD32VW553/V1_MQTT_OK/GD32VW55X_Wifi_BLE_SDK/GD32VW55x_RELEASE_V1.0.2/MSDK/wpa_supplicant/src/ap\ap_config.h **** 	u8 peer_addr[ETH_ALEN];
 256:C:/Users/stapi/OneDrive/Desktop/GD32VW553/V1_MQTT_OK/GD32VW55X_Wifi_BLE_SDK/GD32VW55x_RELEASE_V1.0.2/MSDK/wpa_supplicant/src/ap\ap_config.h **** 	int vlan_id;
 257:C:/Users/stapi/OneDrive/Desktop/GD32VW553/V1_MQTT_OK/GD32VW55X_Wifi_BLE_SDK/GD32VW55x_RELEASE_V1.0.2/MSDK/wpa_supplicant/src/ap\ap_config.h **** 	struct sae_pt *pt;
 258:C:/Users/stapi/OneDrive/Desktop/GD32VW553/V1_MQTT_OK/GD32VW55X_Wifi_BLE_SDK/GD32VW55x_RELEASE_V1.0.2/MSDK/wpa_supplicant/src/ap\ap_config.h **** 	struct sae_pk *pk;
 259:C:/Users/stapi/OneDrive/Desktop/GD32VW553/V1_MQTT_OK/GD32VW55X_Wifi_BLE_SDK/GD32VW55x_RELEASE_V1.0.2/MSDK/wpa_supplicant/src/ap\ap_config.h **** };
 260:C:/Users/stapi/OneDrive/Desktop/GD32VW553/V1_MQTT_OK/GD32VW55X_Wifi_BLE_SDK/GD32VW55x_RELEASE_V1.0.2/MSDK/wpa_supplicant/src/ap\ap_config.h **** 
 261:C:/Users/stapi/OneDrive/Desktop/GD32VW553/V1_MQTT_OK/GD32VW55X_Wifi_BLE_SDK/GD32VW55x_RELEASE_V1.0.2/MSDK/wpa_supplicant/src/ap\ap_config.h **** struct dpp_controller_conf {
 262:C:/Users/stapi/OneDrive/Desktop/GD32VW553/V1_MQTT_OK/GD32VW55X_Wifi_BLE_SDK/GD32VW55x_RELEASE_V1.0.2/MSDK/wpa_supplicant/src/ap\ap_config.h **** 	struct dpp_controller_conf *next;
 263:C:/Users/stapi/OneDrive/Desktop/GD32VW553/V1_MQTT_OK/GD32VW55X_Wifi_BLE_SDK/GD32VW55x_RELEASE_V1.0.2/MSDK/wpa_supplicant/src/ap\ap_config.h **** 	u8 pkhash[SHA256_MAC_LEN];
 264:C:/Users/stapi/OneDrive/Desktop/GD32VW553/V1_MQTT_OK/GD32VW55X_Wifi_BLE_SDK/GD32VW55x_RELEASE_V1.0.2/MSDK/wpa_supplicant/src/ap\ap_config.h **** 	struct hostapd_ip_addr ipaddr;
 265:C:/Users/stapi/OneDrive/Desktop/GD32VW553/V1_MQTT_OK/GD32VW55X_Wifi_BLE_SDK/GD32VW55x_RELEASE_V1.0.2/MSDK/wpa_supplicant/src/ap\ap_config.h **** };
 266:C:/Users/stapi/OneDrive/Desktop/GD32VW553/V1_MQTT_OK/GD32VW55X_Wifi_BLE_SDK/GD32VW55x_RELEASE_V1.0.2/MSDK/wpa_supplicant/src/ap\ap_config.h **** 
 267:C:/Users/stapi/OneDrive/Desktop/GD32VW553/V1_MQTT_OK/GD32VW55X_Wifi_BLE_SDK/GD32VW55x_RELEASE_V1.0.2/MSDK/wpa_supplicant/src/ap\ap_config.h **** struct airtime_sta_weight {
 268:C:/Users/stapi/OneDrive/Desktop/GD32VW553/V1_MQTT_OK/GD32VW55X_Wifi_BLE_SDK/GD32VW55x_RELEASE_V1.0.2/MSDK/wpa_supplicant/src/ap\ap_config.h **** 	struct airtime_sta_weight *next;
 269:C:/Users/stapi/OneDrive/Desktop/GD32VW553/V1_MQTT_OK/GD32VW55X_Wifi_BLE_SDK/GD32VW55x_RELEASE_V1.0.2/MSDK/wpa_supplicant/src/ap\ap_config.h **** 	unsigned int weight;
 270:C:/Users/stapi/OneDrive/Desktop/GD32VW553/V1_MQTT_OK/GD32VW55X_Wifi_BLE_SDK/GD32VW55x_RELEASE_V1.0.2/MSDK/wpa_supplicant/src/ap\ap_config.h **** 	u8 addr[ETH_ALEN];
 271:C:/Users/stapi/OneDrive/Desktop/GD32VW553/V1_MQTT_OK/GD32VW55X_Wifi_BLE_SDK/GD32VW55x_RELEASE_V1.0.2/MSDK/wpa_supplicant/src/ap\ap_config.h **** };
 272:C:/Users/stapi/OneDrive/Desktop/GD32VW553/V1_MQTT_OK/GD32VW55X_Wifi_BLE_SDK/GD32VW55x_RELEASE_V1.0.2/MSDK/wpa_supplicant/src/ap\ap_config.h **** 
 273:C:/Users/stapi/OneDrive/Desktop/GD32VW553/V1_MQTT_OK/GD32VW55X_Wifi_BLE_SDK/GD32VW55x_RELEASE_V1.0.2/MSDK/wpa_supplicant/src/ap\ap_config.h **** #define EXT_CAPA_MAX_LEN 15
 274:C:/Users/stapi/OneDrive/Desktop/GD32VW553/V1_MQTT_OK/GD32VW55X_Wifi_BLE_SDK/GD32VW55x_RELEASE_V1.0.2/MSDK/wpa_supplicant/src/ap\ap_config.h **** 
 275:C:/Users/stapi/OneDrive/Desktop/GD32VW553/V1_MQTT_OK/GD32VW55X_Wifi_BLE_SDK/GD32VW55x_RELEASE_V1.0.2/MSDK/wpa_supplicant/src/ap\ap_config.h **** /**
 276:C:/Users/stapi/OneDrive/Desktop/GD32VW553/V1_MQTT_OK/GD32VW55X_Wifi_BLE_SDK/GD32VW55x_RELEASE_V1.0.2/MSDK/wpa_supplicant/src/ap\ap_config.h ****  * struct hostapd_bss_config - Per-BSS configuration
 277:C:/Users/stapi/OneDrive/Desktop/GD32VW553/V1_MQTT_OK/GD32VW55X_Wifi_BLE_SDK/GD32VW55x_RELEASE_V1.0.2/MSDK/wpa_supplicant/src/ap\ap_config.h ****  */
 278:C:/Users/stapi/OneDrive/Desktop/GD32VW553/V1_MQTT_OK/GD32VW55X_Wifi_BLE_SDK/GD32VW55x_RELEASE_V1.0.2/MSDK/wpa_supplicant/src/ap\ap_config.h **** struct hostapd_bss_config {
 279:C:/Users/stapi/OneDrive/Desktop/GD32VW553/V1_MQTT_OK/GD32VW55X_Wifi_BLE_SDK/GD32VW55x_RELEASE_V1.0.2/MSDK/wpa_supplicant/src/ap\ap_config.h **** 	char iface[IFNAMSIZ + 1];
 280:C:/Users/stapi/OneDrive/Desktop/GD32VW553/V1_MQTT_OK/GD32VW55X_Wifi_BLE_SDK/GD32VW55x_RELEASE_V1.0.2/MSDK/wpa_supplicant/src/ap\ap_config.h **** 	char bridge[IFNAMSIZ + 1];
 281:C:/Users/stapi/OneDrive/Desktop/GD32VW553/V1_MQTT_OK/GD32VW55X_Wifi_BLE_SDK/GD32VW55x_RELEASE_V1.0.2/MSDK/wpa_supplicant/src/ap\ap_config.h **** 	char vlan_bridge[IFNAMSIZ + 1];
 282:C:/Users/stapi/OneDrive/Desktop/GD32VW553/V1_MQTT_OK/GD32VW55X_Wifi_BLE_SDK/GD32VW55x_RELEASE_V1.0.2/MSDK/wpa_supplicant/src/ap\ap_config.h **** 	char wds_bridge[IFNAMSIZ + 1];
 283:C:/Users/stapi/OneDrive/Desktop/GD32VW553/V1_MQTT_OK/GD32VW55X_Wifi_BLE_SDK/GD32VW55x_RELEASE_V1.0.2/MSDK/wpa_supplicant/src/ap\ap_config.h **** 
 284:C:/Users/stapi/OneDrive/Desktop/GD32VW553/V1_MQTT_OK/GD32VW55X_Wifi_BLE_SDK/GD32VW55x_RELEASE_V1.0.2/MSDK/wpa_supplicant/src/ap\ap_config.h **** 	enum hostapd_logger_level logger_syslog_level, logger_stdout_level;
 285:C:/Users/stapi/OneDrive/Desktop/GD32VW553/V1_MQTT_OK/GD32VW55X_Wifi_BLE_SDK/GD32VW55x_RELEASE_V1.0.2/MSDK/wpa_supplicant/src/ap\ap_config.h **** 
 286:C:/Users/stapi/OneDrive/Desktop/GD32VW553/V1_MQTT_OK/GD32VW55X_Wifi_BLE_SDK/GD32VW55x_RELEASE_V1.0.2/MSDK/wpa_supplicant/src/ap\ap_config.h **** 	unsigned int logger_syslog; /* module bitfield */
 287:C:/Users/stapi/OneDrive/Desktop/GD32VW553/V1_MQTT_OK/GD32VW55X_Wifi_BLE_SDK/GD32VW55x_RELEASE_V1.0.2/MSDK/wpa_supplicant/src/ap\ap_config.h **** 	unsigned int logger_stdout; /* module bitfield */
 288:C:/Users/stapi/OneDrive/Desktop/GD32VW553/V1_MQTT_OK/GD32VW55X_Wifi_BLE_SDK/GD32VW55x_RELEASE_V1.0.2/MSDK/wpa_supplicant/src/ap\ap_config.h **** 
 289:C:/Users/stapi/OneDrive/Desktop/GD32VW553/V1_MQTT_OK/GD32VW55X_Wifi_BLE_SDK/GD32VW55x_RELEASE_V1.0.2/MSDK/wpa_supplicant/src/ap\ap_config.h **** 	int max_num_sta; /* maximum number of STAs in station table */
 290:C:/Users/stapi/OneDrive/Desktop/GD32VW553/V1_MQTT_OK/GD32VW55X_Wifi_BLE_SDK/GD32VW55x_RELEASE_V1.0.2/MSDK/wpa_supplicant/src/ap\ap_config.h **** 
 291:C:/Users/stapi/OneDrive/Desktop/GD32VW553/V1_MQTT_OK/GD32VW55X_Wifi_BLE_SDK/GD32VW55x_RELEASE_V1.0.2/MSDK/wpa_supplicant/src/ap\ap_config.h **** 	int dtim_period;
 292:C:/Users/stapi/OneDrive/Desktop/GD32VW553/V1_MQTT_OK/GD32VW55X_Wifi_BLE_SDK/GD32VW55x_RELEASE_V1.0.2/MSDK/wpa_supplicant/src/ap\ap_config.h **** 	unsigned int bss_load_update_period;
 293:C:/Users/stapi/OneDrive/Desktop/GD32VW553/V1_MQTT_OK/GD32VW55X_Wifi_BLE_SDK/GD32VW55x_RELEASE_V1.0.2/MSDK/wpa_supplicant/src/ap\ap_config.h **** 	unsigned int chan_util_avg_period;
 294:C:/Users/stapi/OneDrive/Desktop/GD32VW553/V1_MQTT_OK/GD32VW55X_Wifi_BLE_SDK/GD32VW55x_RELEASE_V1.0.2/MSDK/wpa_supplicant/src/ap\ap_config.h **** 
 295:C:/Users/stapi/OneDrive/Desktop/GD32VW553/V1_MQTT_OK/GD32VW55X_Wifi_BLE_SDK/GD32VW55x_RELEASE_V1.0.2/MSDK/wpa_supplicant/src/ap\ap_config.h **** 	int ieee802_1x; /* use IEEE 802.1X */
 296:C:/Users/stapi/OneDrive/Desktop/GD32VW553/V1_MQTT_OK/GD32VW55X_Wifi_BLE_SDK/GD32VW55x_RELEASE_V1.0.2/MSDK/wpa_supplicant/src/ap\ap_config.h **** 	int eapol_version;
 297:C:/Users/stapi/OneDrive/Desktop/GD32VW553/V1_MQTT_OK/GD32VW55X_Wifi_BLE_SDK/GD32VW55x_RELEASE_V1.0.2/MSDK/wpa_supplicant/src/ap\ap_config.h **** 	int eap_server; /* Use internal EAP server instead of external
 298:C:/Users/stapi/OneDrive/Desktop/GD32VW553/V1_MQTT_OK/GD32VW55X_Wifi_BLE_SDK/GD32VW55x_RELEASE_V1.0.2/MSDK/wpa_supplicant/src/ap\ap_config.h **** 			 * RADIUS server */
 299:C:/Users/stapi/OneDrive/Desktop/GD32VW553/V1_MQTT_OK/GD32VW55X_Wifi_BLE_SDK/GD32VW55x_RELEASE_V1.0.2/MSDK/wpa_supplicant/src/ap\ap_config.h **** 	struct hostapd_eap_user *eap_user;
 300:C:/Users/stapi/OneDrive/Desktop/GD32VW553/V1_MQTT_OK/GD32VW55X_Wifi_BLE_SDK/GD32VW55x_RELEASE_V1.0.2/MSDK/wpa_supplicant/src/ap\ap_config.h **** 	char *eap_user_sqlite;
 301:C:/Users/stapi/OneDrive/Desktop/GD32VW553/V1_MQTT_OK/GD32VW55X_Wifi_BLE_SDK/GD32VW55x_RELEASE_V1.0.2/MSDK/wpa_supplicant/src/ap\ap_config.h **** 	char *eap_sim_db;
 302:C:/Users/stapi/OneDrive/Desktop/GD32VW553/V1_MQTT_OK/GD32VW55X_Wifi_BLE_SDK/GD32VW55x_RELEASE_V1.0.2/MSDK/wpa_supplicant/src/ap\ap_config.h **** 	unsigned int eap_sim_db_timeout;
 303:C:/Users/stapi/OneDrive/Desktop/GD32VW553/V1_MQTT_OK/GD32VW55X_Wifi_BLE_SDK/GD32VW55x_RELEASE_V1.0.2/MSDK/wpa_supplicant/src/ap\ap_config.h **** 	int eap_server_erp; /* Whether ERP is enabled on internal EAP server */
 304:C:/Users/stapi/OneDrive/Desktop/GD32VW553/V1_MQTT_OK/GD32VW55X_Wifi_BLE_SDK/GD32VW55x_RELEASE_V1.0.2/MSDK/wpa_supplicant/src/ap\ap_config.h **** 	struct hostapd_ip_addr own_ip_addr;
 305:C:/Users/stapi/OneDrive/Desktop/GD32VW553/V1_MQTT_OK/GD32VW55X_Wifi_BLE_SDK/GD32VW55x_RELEASE_V1.0.2/MSDK/wpa_supplicant/src/ap\ap_config.h **** 	char *nas_identifier;
 306:C:/Users/stapi/OneDrive/Desktop/GD32VW553/V1_MQTT_OK/GD32VW55X_Wifi_BLE_SDK/GD32VW55x_RELEASE_V1.0.2/MSDK/wpa_supplicant/src/ap\ap_config.h **** 	struct hostapd_radius_servers *radius;
 307:C:/Users/stapi/OneDrive/Desktop/GD32VW553/V1_MQTT_OK/GD32VW55X_Wifi_BLE_SDK/GD32VW55x_RELEASE_V1.0.2/MSDK/wpa_supplicant/src/ap\ap_config.h **** 	int acct_interim_interval;
 308:C:/Users/stapi/OneDrive/Desktop/GD32VW553/V1_MQTT_OK/GD32VW55X_Wifi_BLE_SDK/GD32VW55x_RELEASE_V1.0.2/MSDK/wpa_supplicant/src/ap\ap_config.h **** 	int radius_request_cui;
 309:C:/Users/stapi/OneDrive/Desktop/GD32VW553/V1_MQTT_OK/GD32VW55X_Wifi_BLE_SDK/GD32VW55x_RELEASE_V1.0.2/MSDK/wpa_supplicant/src/ap\ap_config.h **** 	struct hostapd_radius_attr *radius_auth_req_attr;
 310:C:/Users/stapi/OneDrive/Desktop/GD32VW553/V1_MQTT_OK/GD32VW55X_Wifi_BLE_SDK/GD32VW55x_RELEASE_V1.0.2/MSDK/wpa_supplicant/src/ap\ap_config.h **** 	struct hostapd_radius_attr *radius_acct_req_attr;
 311:C:/Users/stapi/OneDrive/Desktop/GD32VW553/V1_MQTT_OK/GD32VW55X_Wifi_BLE_SDK/GD32VW55x_RELEASE_V1.0.2/MSDK/wpa_supplicant/src/ap\ap_config.h **** 	char *radius_req_attr_sqlite;
 312:C:/Users/stapi/OneDrive/Desktop/GD32VW553/V1_MQTT_OK/GD32VW55X_Wifi_BLE_SDK/GD32VW55x_RELEASE_V1.0.2/MSDK/wpa_supplicant/src/ap\ap_config.h **** 	int radius_das_port;
 313:C:/Users/stapi/OneDrive/Desktop/GD32VW553/V1_MQTT_OK/GD32VW55X_Wifi_BLE_SDK/GD32VW55x_RELEASE_V1.0.2/MSDK/wpa_supplicant/src/ap\ap_config.h **** 	unsigned int radius_das_time_window;
 314:C:/Users/stapi/OneDrive/Desktop/GD32VW553/V1_MQTT_OK/GD32VW55X_Wifi_BLE_SDK/GD32VW55x_RELEASE_V1.0.2/MSDK/wpa_supplicant/src/ap\ap_config.h **** 	int radius_das_require_event_timestamp;
 315:C:/Users/stapi/OneDrive/Desktop/GD32VW553/V1_MQTT_OK/GD32VW55X_Wifi_BLE_SDK/GD32VW55x_RELEASE_V1.0.2/MSDK/wpa_supplicant/src/ap\ap_config.h **** 	int radius_das_require_message_authenticator;
 316:C:/Users/stapi/OneDrive/Desktop/GD32VW553/V1_MQTT_OK/GD32VW55X_Wifi_BLE_SDK/GD32VW55x_RELEASE_V1.0.2/MSDK/wpa_supplicant/src/ap\ap_config.h **** 	struct hostapd_ip_addr radius_das_client_addr;
 317:C:/Users/stapi/OneDrive/Desktop/GD32VW553/V1_MQTT_OK/GD32VW55X_Wifi_BLE_SDK/GD32VW55x_RELEASE_V1.0.2/MSDK/wpa_supplicant/src/ap\ap_config.h **** 	u8 *radius_das_shared_secret;
 318:C:/Users/stapi/OneDrive/Desktop/GD32VW553/V1_MQTT_OK/GD32VW55X_Wifi_BLE_SDK/GD32VW55x_RELEASE_V1.0.2/MSDK/wpa_supplicant/src/ap\ap_config.h **** 	size_t radius_das_shared_secret_len;
 319:C:/Users/stapi/OneDrive/Desktop/GD32VW553/V1_MQTT_OK/GD32VW55X_Wifi_BLE_SDK/GD32VW55x_RELEASE_V1.0.2/MSDK/wpa_supplicant/src/ap\ap_config.h **** 
 320:C:/Users/stapi/OneDrive/Desktop/GD32VW553/V1_MQTT_OK/GD32VW55X_Wifi_BLE_SDK/GD32VW55x_RELEASE_V1.0.2/MSDK/wpa_supplicant/src/ap\ap_config.h **** 	struct hostapd_ssid ssid;
 321:C:/Users/stapi/OneDrive/Desktop/GD32VW553/V1_MQTT_OK/GD32VW55X_Wifi_BLE_SDK/GD32VW55x_RELEASE_V1.0.2/MSDK/wpa_supplicant/src/ap\ap_config.h **** 
 322:C:/Users/stapi/OneDrive/Desktop/GD32VW553/V1_MQTT_OK/GD32VW55X_Wifi_BLE_SDK/GD32VW55x_RELEASE_V1.0.2/MSDK/wpa_supplicant/src/ap\ap_config.h **** 	char *eap_req_id_text; /* optional displayable message sent with
 323:C:/Users/stapi/OneDrive/Desktop/GD32VW553/V1_MQTT_OK/GD32VW55X_Wifi_BLE_SDK/GD32VW55x_RELEASE_V1.0.2/MSDK/wpa_supplicant/src/ap\ap_config.h **** 				* EAP Request-Identity */
 324:C:/Users/stapi/OneDrive/Desktop/GD32VW553/V1_MQTT_OK/GD32VW55X_Wifi_BLE_SDK/GD32VW55x_RELEASE_V1.0.2/MSDK/wpa_supplicant/src/ap\ap_config.h **** 	size_t eap_req_id_text_len;
 325:C:/Users/stapi/OneDrive/Desktop/GD32VW553/V1_MQTT_OK/GD32VW55X_Wifi_BLE_SDK/GD32VW55x_RELEASE_V1.0.2/MSDK/wpa_supplicant/src/ap\ap_config.h **** 	int eapol_key_index_workaround;
 326:C:/Users/stapi/OneDrive/Desktop/GD32VW553/V1_MQTT_OK/GD32VW55X_Wifi_BLE_SDK/GD32VW55x_RELEASE_V1.0.2/MSDK/wpa_supplicant/src/ap\ap_config.h **** 
 327:C:/Users/stapi/OneDrive/Desktop/GD32VW553/V1_MQTT_OK/GD32VW55X_Wifi_BLE_SDK/GD32VW55x_RELEASE_V1.0.2/MSDK/wpa_supplicant/src/ap\ap_config.h **** #ifdef CONFIG_WEP
 328:C:/Users/stapi/OneDrive/Desktop/GD32VW553/V1_MQTT_OK/GD32VW55X_Wifi_BLE_SDK/GD32VW55x_RELEASE_V1.0.2/MSDK/wpa_supplicant/src/ap\ap_config.h **** 	size_t default_wep_key_len;
 329:C:/Users/stapi/OneDrive/Desktop/GD32VW553/V1_MQTT_OK/GD32VW55X_Wifi_BLE_SDK/GD32VW55x_RELEASE_V1.0.2/MSDK/wpa_supplicant/src/ap\ap_config.h **** 	int individual_wep_key_len;
 330:C:/Users/stapi/OneDrive/Desktop/GD32VW553/V1_MQTT_OK/GD32VW55X_Wifi_BLE_SDK/GD32VW55x_RELEASE_V1.0.2/MSDK/wpa_supplicant/src/ap\ap_config.h **** 	int wep_rekeying_period;
 331:C:/Users/stapi/OneDrive/Desktop/GD32VW553/V1_MQTT_OK/GD32VW55X_Wifi_BLE_SDK/GD32VW55x_RELEASE_V1.0.2/MSDK/wpa_supplicant/src/ap\ap_config.h **** 	int broadcast_key_idx_min, broadcast_key_idx_max;
 332:C:/Users/stapi/OneDrive/Desktop/GD32VW553/V1_MQTT_OK/GD32VW55X_Wifi_BLE_SDK/GD32VW55x_RELEASE_V1.0.2/MSDK/wpa_supplicant/src/ap\ap_config.h **** #endif /* CONFIG_WEP */
 333:C:/Users/stapi/OneDrive/Desktop/GD32VW553/V1_MQTT_OK/GD32VW55X_Wifi_BLE_SDK/GD32VW55x_RELEASE_V1.0.2/MSDK/wpa_supplicant/src/ap\ap_config.h **** 	int eap_reauth_period;
 334:C:/Users/stapi/OneDrive/Desktop/GD32VW553/V1_MQTT_OK/GD32VW55X_Wifi_BLE_SDK/GD32VW55x_RELEASE_V1.0.2/MSDK/wpa_supplicant/src/ap\ap_config.h **** 	int erp_send_reauth_start;
 335:C:/Users/stapi/OneDrive/Desktop/GD32VW553/V1_MQTT_OK/GD32VW55X_Wifi_BLE_SDK/GD32VW55x_RELEASE_V1.0.2/MSDK/wpa_supplicant/src/ap\ap_config.h **** 	char *erp_domain;
 336:C:/Users/stapi/OneDrive/Desktop/GD32VW553/V1_MQTT_OK/GD32VW55X_Wifi_BLE_SDK/GD32VW55x_RELEASE_V1.0.2/MSDK/wpa_supplicant/src/ap\ap_config.h **** 
 337:C:/Users/stapi/OneDrive/Desktop/GD32VW553/V1_MQTT_OK/GD32VW55X_Wifi_BLE_SDK/GD32VW55x_RELEASE_V1.0.2/MSDK/wpa_supplicant/src/ap\ap_config.h **** 	enum macaddr_acl {
 338:C:/Users/stapi/OneDrive/Desktop/GD32VW553/V1_MQTT_OK/GD32VW55X_Wifi_BLE_SDK/GD32VW55x_RELEASE_V1.0.2/MSDK/wpa_supplicant/src/ap\ap_config.h **** 		ACCEPT_UNLESS_DENIED = 0,
 339:C:/Users/stapi/OneDrive/Desktop/GD32VW553/V1_MQTT_OK/GD32VW55X_Wifi_BLE_SDK/GD32VW55x_RELEASE_V1.0.2/MSDK/wpa_supplicant/src/ap\ap_config.h **** 		DENY_UNLESS_ACCEPTED = 1,
 340:C:/Users/stapi/OneDrive/Desktop/GD32VW553/V1_MQTT_OK/GD32VW55X_Wifi_BLE_SDK/GD32VW55x_RELEASE_V1.0.2/MSDK/wpa_supplicant/src/ap\ap_config.h **** 		USE_EXTERNAL_RADIUS_AUTH = 2
 341:C:/Users/stapi/OneDrive/Desktop/GD32VW553/V1_MQTT_OK/GD32VW55X_Wifi_BLE_SDK/GD32VW55x_RELEASE_V1.0.2/MSDK/wpa_supplicant/src/ap\ap_config.h **** 	} macaddr_acl;
 342:C:/Users/stapi/OneDrive/Desktop/GD32VW553/V1_MQTT_OK/GD32VW55X_Wifi_BLE_SDK/GD32VW55x_RELEASE_V1.0.2/MSDK/wpa_supplicant/src/ap\ap_config.h **** 	struct mac_acl_entry *accept_mac;
 343:C:/Users/stapi/OneDrive/Desktop/GD32VW553/V1_MQTT_OK/GD32VW55X_Wifi_BLE_SDK/GD32VW55x_RELEASE_V1.0.2/MSDK/wpa_supplicant/src/ap\ap_config.h **** 	int num_accept_mac;
 344:C:/Users/stapi/OneDrive/Desktop/GD32VW553/V1_MQTT_OK/GD32VW55X_Wifi_BLE_SDK/GD32VW55x_RELEASE_V1.0.2/MSDK/wpa_supplicant/src/ap\ap_config.h **** 	struct mac_acl_entry *deny_mac;
 345:C:/Users/stapi/OneDrive/Desktop/GD32VW553/V1_MQTT_OK/GD32VW55X_Wifi_BLE_SDK/GD32VW55x_RELEASE_V1.0.2/MSDK/wpa_supplicant/src/ap\ap_config.h **** 	int num_deny_mac;
 346:C:/Users/stapi/OneDrive/Desktop/GD32VW553/V1_MQTT_OK/GD32VW55X_Wifi_BLE_SDK/GD32VW55x_RELEASE_V1.0.2/MSDK/wpa_supplicant/src/ap\ap_config.h **** 	int wds_sta;
 347:C:/Users/stapi/OneDrive/Desktop/GD32VW553/V1_MQTT_OK/GD32VW55X_Wifi_BLE_SDK/GD32VW55x_RELEASE_V1.0.2/MSDK/wpa_supplicant/src/ap\ap_config.h **** 	int isolate;
 348:C:/Users/stapi/OneDrive/Desktop/GD32VW553/V1_MQTT_OK/GD32VW55X_Wifi_BLE_SDK/GD32VW55x_RELEASE_V1.0.2/MSDK/wpa_supplicant/src/ap\ap_config.h **** 	int start_disabled;
 349:C:/Users/stapi/OneDrive/Desktop/GD32VW553/V1_MQTT_OK/GD32VW55X_Wifi_BLE_SDK/GD32VW55x_RELEASE_V1.0.2/MSDK/wpa_supplicant/src/ap\ap_config.h **** 
 350:C:/Users/stapi/OneDrive/Desktop/GD32VW553/V1_MQTT_OK/GD32VW55X_Wifi_BLE_SDK/GD32VW55x_RELEASE_V1.0.2/MSDK/wpa_supplicant/src/ap\ap_config.h **** 	int auth_algs; /* bitfield of allowed IEEE 802.11 authentication
 351:C:/Users/stapi/OneDrive/Desktop/GD32VW553/V1_MQTT_OK/GD32VW55X_Wifi_BLE_SDK/GD32VW55x_RELEASE_V1.0.2/MSDK/wpa_supplicant/src/ap\ap_config.h **** 			* algorithms, WPA_AUTH_ALG_{OPEN,SHARED,LEAP} */
 352:C:/Users/stapi/OneDrive/Desktop/GD32VW553/V1_MQTT_OK/GD32VW55X_Wifi_BLE_SDK/GD32VW55x_RELEASE_V1.0.2/MSDK/wpa_supplicant/src/ap\ap_config.h **** 
 353:C:/Users/stapi/OneDrive/Desktop/GD32VW553/V1_MQTT_OK/GD32VW55X_Wifi_BLE_SDK/GD32VW55x_RELEASE_V1.0.2/MSDK/wpa_supplicant/src/ap\ap_config.h **** 	int wpa; /* bitfield of WPA_PROTO_WPA, WPA_PROTO_RSN */
 354:C:/Users/stapi/OneDrive/Desktop/GD32VW553/V1_MQTT_OK/GD32VW55X_Wifi_BLE_SDK/GD32VW55x_RELEASE_V1.0.2/MSDK/wpa_supplicant/src/ap\ap_config.h **** 	int extended_key_id;
 355:C:/Users/stapi/OneDrive/Desktop/GD32VW553/V1_MQTT_OK/GD32VW55X_Wifi_BLE_SDK/GD32VW55x_RELEASE_V1.0.2/MSDK/wpa_supplicant/src/ap\ap_config.h **** 	int wpa_key_mgmt;
 356:C:/Users/stapi/OneDrive/Desktop/GD32VW553/V1_MQTT_OK/GD32VW55X_Wifi_BLE_SDK/GD32VW55x_RELEASE_V1.0.2/MSDK/wpa_supplicant/src/ap\ap_config.h **** 	enum mfp_options ieee80211w;
 357:C:/Users/stapi/OneDrive/Desktop/GD32VW553/V1_MQTT_OK/GD32VW55X_Wifi_BLE_SDK/GD32VW55x_RELEASE_V1.0.2/MSDK/wpa_supplicant/src/ap\ap_config.h **** 	int group_mgmt_cipher;
 358:C:/Users/stapi/OneDrive/Desktop/GD32VW553/V1_MQTT_OK/GD32VW55X_Wifi_BLE_SDK/GD32VW55x_RELEASE_V1.0.2/MSDK/wpa_supplicant/src/ap\ap_config.h **** 	int beacon_prot;
 359:C:/Users/stapi/OneDrive/Desktop/GD32VW553/V1_MQTT_OK/GD32VW55X_Wifi_BLE_SDK/GD32VW55x_RELEASE_V1.0.2/MSDK/wpa_supplicant/src/ap\ap_config.h **** 	/* dot11AssociationSAQueryMaximumTimeout (in TUs) */
 360:C:/Users/stapi/OneDrive/Desktop/GD32VW553/V1_MQTT_OK/GD32VW55X_Wifi_BLE_SDK/GD32VW55x_RELEASE_V1.0.2/MSDK/wpa_supplicant/src/ap\ap_config.h **** 	unsigned int assoc_sa_query_max_timeout;
 361:C:/Users/stapi/OneDrive/Desktop/GD32VW553/V1_MQTT_OK/GD32VW55X_Wifi_BLE_SDK/GD32VW55x_RELEASE_V1.0.2/MSDK/wpa_supplicant/src/ap\ap_config.h **** 	/* dot11AssociationSAQueryRetryTimeout (in TUs) */
 362:C:/Users/stapi/OneDrive/Desktop/GD32VW553/V1_MQTT_OK/GD32VW55X_Wifi_BLE_SDK/GD32VW55x_RELEASE_V1.0.2/MSDK/wpa_supplicant/src/ap\ap_config.h **** 	int assoc_sa_query_retry_timeout;
 363:C:/Users/stapi/OneDrive/Desktop/GD32VW553/V1_MQTT_OK/GD32VW55X_Wifi_BLE_SDK/GD32VW55x_RELEASE_V1.0.2/MSDK/wpa_supplicant/src/ap\ap_config.h **** #ifdef CONFIG_OCV
 364:C:/Users/stapi/OneDrive/Desktop/GD32VW553/V1_MQTT_OK/GD32VW55X_Wifi_BLE_SDK/GD32VW55x_RELEASE_V1.0.2/MSDK/wpa_supplicant/src/ap\ap_config.h **** 	int ocv; /* Operating Channel Validation */
 365:C:/Users/stapi/OneDrive/Desktop/GD32VW553/V1_MQTT_OK/GD32VW55X_Wifi_BLE_SDK/GD32VW55x_RELEASE_V1.0.2/MSDK/wpa_supplicant/src/ap\ap_config.h **** #endif /* CONFIG_OCV */
 366:C:/Users/stapi/OneDrive/Desktop/GD32VW553/V1_MQTT_OK/GD32VW55X_Wifi_BLE_SDK/GD32VW55x_RELEASE_V1.0.2/MSDK/wpa_supplicant/src/ap\ap_config.h **** 	enum {
 367:C:/Users/stapi/OneDrive/Desktop/GD32VW553/V1_MQTT_OK/GD32VW55X_Wifi_BLE_SDK/GD32VW55x_RELEASE_V1.0.2/MSDK/wpa_supplicant/src/ap\ap_config.h **** 		PSK_RADIUS_IGNORED = 0,
 368:C:/Users/stapi/OneDrive/Desktop/GD32VW553/V1_MQTT_OK/GD32VW55X_Wifi_BLE_SDK/GD32VW55x_RELEASE_V1.0.2/MSDK/wpa_supplicant/src/ap\ap_config.h **** 		PSK_RADIUS_ACCEPTED = 1,
 369:C:/Users/stapi/OneDrive/Desktop/GD32VW553/V1_MQTT_OK/GD32VW55X_Wifi_BLE_SDK/GD32VW55x_RELEASE_V1.0.2/MSDK/wpa_supplicant/src/ap\ap_config.h **** 		PSK_RADIUS_REQUIRED = 2
 370:C:/Users/stapi/OneDrive/Desktop/GD32VW553/V1_MQTT_OK/GD32VW55X_Wifi_BLE_SDK/GD32VW55x_RELEASE_V1.0.2/MSDK/wpa_supplicant/src/ap\ap_config.h **** 	} wpa_psk_radius;
 371:C:/Users/stapi/OneDrive/Desktop/GD32VW553/V1_MQTT_OK/GD32VW55X_Wifi_BLE_SDK/GD32VW55x_RELEASE_V1.0.2/MSDK/wpa_supplicant/src/ap\ap_config.h **** 	int wpa_pairwise;
 372:C:/Users/stapi/OneDrive/Desktop/GD32VW553/V1_MQTT_OK/GD32VW55X_Wifi_BLE_SDK/GD32VW55x_RELEASE_V1.0.2/MSDK/wpa_supplicant/src/ap\ap_config.h **** 	int group_cipher; /* wpa_group value override from configuation */
 373:C:/Users/stapi/OneDrive/Desktop/GD32VW553/V1_MQTT_OK/GD32VW55X_Wifi_BLE_SDK/GD32VW55x_RELEASE_V1.0.2/MSDK/wpa_supplicant/src/ap\ap_config.h **** 	int wpa_group;
 374:C:/Users/stapi/OneDrive/Desktop/GD32VW553/V1_MQTT_OK/GD32VW55X_Wifi_BLE_SDK/GD32VW55x_RELEASE_V1.0.2/MSDK/wpa_supplicant/src/ap\ap_config.h **** 	int wpa_group_rekey;
 375:C:/Users/stapi/OneDrive/Desktop/GD32VW553/V1_MQTT_OK/GD32VW55X_Wifi_BLE_SDK/GD32VW55x_RELEASE_V1.0.2/MSDK/wpa_supplicant/src/ap\ap_config.h **** 	int wpa_group_rekey_set;
 376:C:/Users/stapi/OneDrive/Desktop/GD32VW553/V1_MQTT_OK/GD32VW55X_Wifi_BLE_SDK/GD32VW55x_RELEASE_V1.0.2/MSDK/wpa_supplicant/src/ap\ap_config.h **** 	int wpa_strict_rekey;
 377:C:/Users/stapi/OneDrive/Desktop/GD32VW553/V1_MQTT_OK/GD32VW55X_Wifi_BLE_SDK/GD32VW55x_RELEASE_V1.0.2/MSDK/wpa_supplicant/src/ap\ap_config.h **** 	int wpa_gmk_rekey;
 378:C:/Users/stapi/OneDrive/Desktop/GD32VW553/V1_MQTT_OK/GD32VW55X_Wifi_BLE_SDK/GD32VW55x_RELEASE_V1.0.2/MSDK/wpa_supplicant/src/ap\ap_config.h **** 	int wpa_ptk_rekey;
 379:C:/Users/stapi/OneDrive/Desktop/GD32VW553/V1_MQTT_OK/GD32VW55X_Wifi_BLE_SDK/GD32VW55x_RELEASE_V1.0.2/MSDK/wpa_supplicant/src/ap\ap_config.h **** 	enum ptk0_rekey_handling wpa_deny_ptk0_rekey;
 380:C:/Users/stapi/OneDrive/Desktop/GD32VW553/V1_MQTT_OK/GD32VW55X_Wifi_BLE_SDK/GD32VW55x_RELEASE_V1.0.2/MSDK/wpa_supplicant/src/ap\ap_config.h **** 	u32 wpa_group_update_count;
 381:C:/Users/stapi/OneDrive/Desktop/GD32VW553/V1_MQTT_OK/GD32VW55X_Wifi_BLE_SDK/GD32VW55x_RELEASE_V1.0.2/MSDK/wpa_supplicant/src/ap\ap_config.h **** 	u32 wpa_pairwise_update_count;
 382:C:/Users/stapi/OneDrive/Desktop/GD32VW553/V1_MQTT_OK/GD32VW55X_Wifi_BLE_SDK/GD32VW55x_RELEASE_V1.0.2/MSDK/wpa_supplicant/src/ap\ap_config.h **** 	int wpa_disable_eapol_key_retries;
 383:C:/Users/stapi/OneDrive/Desktop/GD32VW553/V1_MQTT_OK/GD32VW55X_Wifi_BLE_SDK/GD32VW55x_RELEASE_V1.0.2/MSDK/wpa_supplicant/src/ap\ap_config.h **** 	int rsn_pairwise;
 384:C:/Users/stapi/OneDrive/Desktop/GD32VW553/V1_MQTT_OK/GD32VW55X_Wifi_BLE_SDK/GD32VW55x_RELEASE_V1.0.2/MSDK/wpa_supplicant/src/ap\ap_config.h **** 	int rsn_preauth;
 385:C:/Users/stapi/OneDrive/Desktop/GD32VW553/V1_MQTT_OK/GD32VW55X_Wifi_BLE_SDK/GD32VW55x_RELEASE_V1.0.2/MSDK/wpa_supplicant/src/ap\ap_config.h **** 	char *rsn_preauth_interfaces;
 386:C:/Users/stapi/OneDrive/Desktop/GD32VW553/V1_MQTT_OK/GD32VW55X_Wifi_BLE_SDK/GD32VW55x_RELEASE_V1.0.2/MSDK/wpa_supplicant/src/ap\ap_config.h **** 
 387:C:/Users/stapi/OneDrive/Desktop/GD32VW553/V1_MQTT_OK/GD32VW55X_Wifi_BLE_SDK/GD32VW55x_RELEASE_V1.0.2/MSDK/wpa_supplicant/src/ap\ap_config.h **** #ifdef CONFIG_IEEE80211R_AP
 388:C:/Users/stapi/OneDrive/Desktop/GD32VW553/V1_MQTT_OK/GD32VW55X_Wifi_BLE_SDK/GD32VW55x_RELEASE_V1.0.2/MSDK/wpa_supplicant/src/ap\ap_config.h **** 	/* IEEE 802.11r - Fast BSS Transition */
 389:C:/Users/stapi/OneDrive/Desktop/GD32VW553/V1_MQTT_OK/GD32VW55X_Wifi_BLE_SDK/GD32VW55x_RELEASE_V1.0.2/MSDK/wpa_supplicant/src/ap\ap_config.h **** 	u8 mobility_domain[MOBILITY_DOMAIN_ID_LEN];
 390:C:/Users/stapi/OneDrive/Desktop/GD32VW553/V1_MQTT_OK/GD32VW55X_Wifi_BLE_SDK/GD32VW55x_RELEASE_V1.0.2/MSDK/wpa_supplicant/src/ap\ap_config.h **** 	u8 r1_key_holder[FT_R1KH_ID_LEN];
 391:C:/Users/stapi/OneDrive/Desktop/GD32VW553/V1_MQTT_OK/GD32VW55X_Wifi_BLE_SDK/GD32VW55x_RELEASE_V1.0.2/MSDK/wpa_supplicant/src/ap\ap_config.h **** 	u32 r0_key_lifetime; /* PMK-R0 lifetime seconds */
 392:C:/Users/stapi/OneDrive/Desktop/GD32VW553/V1_MQTT_OK/GD32VW55X_Wifi_BLE_SDK/GD32VW55x_RELEASE_V1.0.2/MSDK/wpa_supplicant/src/ap\ap_config.h **** 	int rkh_pos_timeout;
 393:C:/Users/stapi/OneDrive/Desktop/GD32VW553/V1_MQTT_OK/GD32VW55X_Wifi_BLE_SDK/GD32VW55x_RELEASE_V1.0.2/MSDK/wpa_supplicant/src/ap\ap_config.h **** 	int rkh_neg_timeout;
 394:C:/Users/stapi/OneDrive/Desktop/GD32VW553/V1_MQTT_OK/GD32VW55X_Wifi_BLE_SDK/GD32VW55x_RELEASE_V1.0.2/MSDK/wpa_supplicant/src/ap\ap_config.h **** 	int rkh_pull_timeout; /* ms */
 395:C:/Users/stapi/OneDrive/Desktop/GD32VW553/V1_MQTT_OK/GD32VW55X_Wifi_BLE_SDK/GD32VW55x_RELEASE_V1.0.2/MSDK/wpa_supplicant/src/ap\ap_config.h **** 	int rkh_pull_retries;
 396:C:/Users/stapi/OneDrive/Desktop/GD32VW553/V1_MQTT_OK/GD32VW55X_Wifi_BLE_SDK/GD32VW55x_RELEASE_V1.0.2/MSDK/wpa_supplicant/src/ap\ap_config.h **** 	u32 reassociation_deadline;
 397:C:/Users/stapi/OneDrive/Desktop/GD32VW553/V1_MQTT_OK/GD32VW55X_Wifi_BLE_SDK/GD32VW55x_RELEASE_V1.0.2/MSDK/wpa_supplicant/src/ap\ap_config.h **** 	struct ft_remote_r0kh *r0kh_list;
 398:C:/Users/stapi/OneDrive/Desktop/GD32VW553/V1_MQTT_OK/GD32VW55X_Wifi_BLE_SDK/GD32VW55x_RELEASE_V1.0.2/MSDK/wpa_supplicant/src/ap\ap_config.h **** 	struct ft_remote_r1kh *r1kh_list;
 399:C:/Users/stapi/OneDrive/Desktop/GD32VW553/V1_MQTT_OK/GD32VW55X_Wifi_BLE_SDK/GD32VW55x_RELEASE_V1.0.2/MSDK/wpa_supplicant/src/ap\ap_config.h **** 	int pmk_r1_push;
 400:C:/Users/stapi/OneDrive/Desktop/GD32VW553/V1_MQTT_OK/GD32VW55X_Wifi_BLE_SDK/GD32VW55x_RELEASE_V1.0.2/MSDK/wpa_supplicant/src/ap\ap_config.h **** 	int ft_over_ds;
 401:C:/Users/stapi/OneDrive/Desktop/GD32VW553/V1_MQTT_OK/GD32VW55X_Wifi_BLE_SDK/GD32VW55x_RELEASE_V1.0.2/MSDK/wpa_supplicant/src/ap\ap_config.h **** 	int ft_psk_generate_local;
 402:C:/Users/stapi/OneDrive/Desktop/GD32VW553/V1_MQTT_OK/GD32VW55X_Wifi_BLE_SDK/GD32VW55x_RELEASE_V1.0.2/MSDK/wpa_supplicant/src/ap\ap_config.h **** 	int r1_max_key_lifetime;
 403:C:/Users/stapi/OneDrive/Desktop/GD32VW553/V1_MQTT_OK/GD32VW55X_Wifi_BLE_SDK/GD32VW55x_RELEASE_V1.0.2/MSDK/wpa_supplicant/src/ap\ap_config.h **** #endif /* CONFIG_IEEE80211R_AP */
 404:C:/Users/stapi/OneDrive/Desktop/GD32VW553/V1_MQTT_OK/GD32VW55X_Wifi_BLE_SDK/GD32VW55x_RELEASE_V1.0.2/MSDK/wpa_supplicant/src/ap\ap_config.h **** 
 405:C:/Users/stapi/OneDrive/Desktop/GD32VW553/V1_MQTT_OK/GD32VW55X_Wifi_BLE_SDK/GD32VW55x_RELEASE_V1.0.2/MSDK/wpa_supplicant/src/ap\ap_config.h **** 	char *ctrl_interface; /* directory for UNIX domain sockets */
 406:C:/Users/stapi/OneDrive/Desktop/GD32VW553/V1_MQTT_OK/GD32VW55X_Wifi_BLE_SDK/GD32VW55x_RELEASE_V1.0.2/MSDK/wpa_supplicant/src/ap\ap_config.h **** #ifndef CONFIG_NATIVE_WINDOWS
 407:C:/Users/stapi/OneDrive/Desktop/GD32VW553/V1_MQTT_OK/GD32VW55X_Wifi_BLE_SDK/GD32VW55x_RELEASE_V1.0.2/MSDK/wpa_supplicant/src/ap\ap_config.h **** 	wpa_gid_t ctrl_interface_gid;
 408:C:/Users/stapi/OneDrive/Desktop/GD32VW553/V1_MQTT_OK/GD32VW55X_Wifi_BLE_SDK/GD32VW55x_RELEASE_V1.0.2/MSDK/wpa_supplicant/src/ap\ap_config.h **** #endif /* CONFIG_NATIVE_WINDOWS */
 409:C:/Users/stapi/OneDrive/Desktop/GD32VW553/V1_MQTT_OK/GD32VW55X_Wifi_BLE_SDK/GD32VW55x_RELEASE_V1.0.2/MSDK/wpa_supplicant/src/ap\ap_config.h **** 	int ctrl_interface_gid_set;
 410:C:/Users/stapi/OneDrive/Desktop/GD32VW553/V1_MQTT_OK/GD32VW55X_Wifi_BLE_SDK/GD32VW55x_RELEASE_V1.0.2/MSDK/wpa_supplicant/src/ap\ap_config.h **** 
 411:C:/Users/stapi/OneDrive/Desktop/GD32VW553/V1_MQTT_OK/GD32VW55X_Wifi_BLE_SDK/GD32VW55x_RELEASE_V1.0.2/MSDK/wpa_supplicant/src/ap\ap_config.h **** 	char *ca_cert;
 412:C:/Users/stapi/OneDrive/Desktop/GD32VW553/V1_MQTT_OK/GD32VW55X_Wifi_BLE_SDK/GD32VW55x_RELEASE_V1.0.2/MSDK/wpa_supplicant/src/ap\ap_config.h **** 	char *server_cert;
 413:C:/Users/stapi/OneDrive/Desktop/GD32VW553/V1_MQTT_OK/GD32VW55X_Wifi_BLE_SDK/GD32VW55x_RELEASE_V1.0.2/MSDK/wpa_supplicant/src/ap\ap_config.h **** 	char *server_cert2;
 414:C:/Users/stapi/OneDrive/Desktop/GD32VW553/V1_MQTT_OK/GD32VW55X_Wifi_BLE_SDK/GD32VW55x_RELEASE_V1.0.2/MSDK/wpa_supplicant/src/ap\ap_config.h **** 	char *private_key;
 415:C:/Users/stapi/OneDrive/Desktop/GD32VW553/V1_MQTT_OK/GD32VW55X_Wifi_BLE_SDK/GD32VW55x_RELEASE_V1.0.2/MSDK/wpa_supplicant/src/ap\ap_config.h **** 	char *private_key2;
 416:C:/Users/stapi/OneDrive/Desktop/GD32VW553/V1_MQTT_OK/GD32VW55X_Wifi_BLE_SDK/GD32VW55x_RELEASE_V1.0.2/MSDK/wpa_supplicant/src/ap\ap_config.h **** 	char *private_key_passwd;
 417:C:/Users/stapi/OneDrive/Desktop/GD32VW553/V1_MQTT_OK/GD32VW55X_Wifi_BLE_SDK/GD32VW55x_RELEASE_V1.0.2/MSDK/wpa_supplicant/src/ap\ap_config.h **** 	char *private_key_passwd2;
 418:C:/Users/stapi/OneDrive/Desktop/GD32VW553/V1_MQTT_OK/GD32VW55X_Wifi_BLE_SDK/GD32VW55x_RELEASE_V1.0.2/MSDK/wpa_supplicant/src/ap\ap_config.h **** 	char *check_cert_subject;
 419:C:/Users/stapi/OneDrive/Desktop/GD32VW553/V1_MQTT_OK/GD32VW55X_Wifi_BLE_SDK/GD32VW55x_RELEASE_V1.0.2/MSDK/wpa_supplicant/src/ap\ap_config.h **** 	int check_crl;
 420:C:/Users/stapi/OneDrive/Desktop/GD32VW553/V1_MQTT_OK/GD32VW55X_Wifi_BLE_SDK/GD32VW55x_RELEASE_V1.0.2/MSDK/wpa_supplicant/src/ap\ap_config.h **** 	int check_crl_strict;
 421:C:/Users/stapi/OneDrive/Desktop/GD32VW553/V1_MQTT_OK/GD32VW55X_Wifi_BLE_SDK/GD32VW55x_RELEASE_V1.0.2/MSDK/wpa_supplicant/src/ap\ap_config.h **** 	unsigned int crl_reload_interval;
 422:C:/Users/stapi/OneDrive/Desktop/GD32VW553/V1_MQTT_OK/GD32VW55X_Wifi_BLE_SDK/GD32VW55x_RELEASE_V1.0.2/MSDK/wpa_supplicant/src/ap\ap_config.h **** 	unsigned int tls_session_lifetime;
 423:C:/Users/stapi/OneDrive/Desktop/GD32VW553/V1_MQTT_OK/GD32VW55X_Wifi_BLE_SDK/GD32VW55x_RELEASE_V1.0.2/MSDK/wpa_supplicant/src/ap\ap_config.h **** 	unsigned int tls_flags;
 424:C:/Users/stapi/OneDrive/Desktop/GD32VW553/V1_MQTT_OK/GD32VW55X_Wifi_BLE_SDK/GD32VW55x_RELEASE_V1.0.2/MSDK/wpa_supplicant/src/ap\ap_config.h **** 	unsigned int max_auth_rounds;
 425:C:/Users/stapi/OneDrive/Desktop/GD32VW553/V1_MQTT_OK/GD32VW55X_Wifi_BLE_SDK/GD32VW55x_RELEASE_V1.0.2/MSDK/wpa_supplicant/src/ap\ap_config.h **** 	unsigned int max_auth_rounds_short;
 426:C:/Users/stapi/OneDrive/Desktop/GD32VW553/V1_MQTT_OK/GD32VW55X_Wifi_BLE_SDK/GD32VW55x_RELEASE_V1.0.2/MSDK/wpa_supplicant/src/ap\ap_config.h **** 	char *ocsp_stapling_response;
 427:C:/Users/stapi/OneDrive/Desktop/GD32VW553/V1_MQTT_OK/GD32VW55X_Wifi_BLE_SDK/GD32VW55x_RELEASE_V1.0.2/MSDK/wpa_supplicant/src/ap\ap_config.h **** 	char *ocsp_stapling_response_multi;
 428:C:/Users/stapi/OneDrive/Desktop/GD32VW553/V1_MQTT_OK/GD32VW55X_Wifi_BLE_SDK/GD32VW55x_RELEASE_V1.0.2/MSDK/wpa_supplicant/src/ap\ap_config.h **** 	char *dh_file;
 429:C:/Users/stapi/OneDrive/Desktop/GD32VW553/V1_MQTT_OK/GD32VW55X_Wifi_BLE_SDK/GD32VW55x_RELEASE_V1.0.2/MSDK/wpa_supplicant/src/ap\ap_config.h **** 	char *openssl_ciphers;
 430:C:/Users/stapi/OneDrive/Desktop/GD32VW553/V1_MQTT_OK/GD32VW55X_Wifi_BLE_SDK/GD32VW55x_RELEASE_V1.0.2/MSDK/wpa_supplicant/src/ap\ap_config.h **** 	char *openssl_ecdh_curves;
 431:C:/Users/stapi/OneDrive/Desktop/GD32VW553/V1_MQTT_OK/GD32VW55X_Wifi_BLE_SDK/GD32VW55x_RELEASE_V1.0.2/MSDK/wpa_supplicant/src/ap\ap_config.h **** 	u8 *pac_opaque_encr_key;
 432:C:/Users/stapi/OneDrive/Desktop/GD32VW553/V1_MQTT_OK/GD32VW55X_Wifi_BLE_SDK/GD32VW55x_RELEASE_V1.0.2/MSDK/wpa_supplicant/src/ap\ap_config.h **** 	u8 *eap_fast_a_id;
 433:C:/Users/stapi/OneDrive/Desktop/GD32VW553/V1_MQTT_OK/GD32VW55X_Wifi_BLE_SDK/GD32VW55x_RELEASE_V1.0.2/MSDK/wpa_supplicant/src/ap\ap_config.h **** 	size_t eap_fast_a_id_len;
 434:C:/Users/stapi/OneDrive/Desktop/GD32VW553/V1_MQTT_OK/GD32VW55X_Wifi_BLE_SDK/GD32VW55x_RELEASE_V1.0.2/MSDK/wpa_supplicant/src/ap\ap_config.h **** 	char *eap_fast_a_id_info;
 435:C:/Users/stapi/OneDrive/Desktop/GD32VW553/V1_MQTT_OK/GD32VW55X_Wifi_BLE_SDK/GD32VW55x_RELEASE_V1.0.2/MSDK/wpa_supplicant/src/ap\ap_config.h **** 	int eap_fast_prov;
 436:C:/Users/stapi/OneDrive/Desktop/GD32VW553/V1_MQTT_OK/GD32VW55X_Wifi_BLE_SDK/GD32VW55x_RELEASE_V1.0.2/MSDK/wpa_supplicant/src/ap\ap_config.h **** 	int pac_key_lifetime;
 437:C:/Users/stapi/OneDrive/Desktop/GD32VW553/V1_MQTT_OK/GD32VW55X_Wifi_BLE_SDK/GD32VW55x_RELEASE_V1.0.2/MSDK/wpa_supplicant/src/ap\ap_config.h **** 	int pac_key_refresh_time;
 438:C:/Users/stapi/OneDrive/Desktop/GD32VW553/V1_MQTT_OK/GD32VW55X_Wifi_BLE_SDK/GD32VW55x_RELEASE_V1.0.2/MSDK/wpa_supplicant/src/ap\ap_config.h **** 	int eap_teap_auth;
 439:C:/Users/stapi/OneDrive/Desktop/GD32VW553/V1_MQTT_OK/GD32VW55X_Wifi_BLE_SDK/GD32VW55x_RELEASE_V1.0.2/MSDK/wpa_supplicant/src/ap\ap_config.h **** 	int eap_teap_pac_no_inner;
 440:C:/Users/stapi/OneDrive/Desktop/GD32VW553/V1_MQTT_OK/GD32VW55X_Wifi_BLE_SDK/GD32VW55x_RELEASE_V1.0.2/MSDK/wpa_supplicant/src/ap\ap_config.h **** 	int eap_teap_separate_result;
 441:C:/Users/stapi/OneDrive/Desktop/GD32VW553/V1_MQTT_OK/GD32VW55X_Wifi_BLE_SDK/GD32VW55x_RELEASE_V1.0.2/MSDK/wpa_supplicant/src/ap\ap_config.h **** 	int eap_teap_id;
 442:C:/Users/stapi/OneDrive/Desktop/GD32VW553/V1_MQTT_OK/GD32VW55X_Wifi_BLE_SDK/GD32VW55x_RELEASE_V1.0.2/MSDK/wpa_supplicant/src/ap\ap_config.h **** 	int eap_sim_aka_result_ind;
 443:C:/Users/stapi/OneDrive/Desktop/GD32VW553/V1_MQTT_OK/GD32VW55X_Wifi_BLE_SDK/GD32VW55x_RELEASE_V1.0.2/MSDK/wpa_supplicant/src/ap\ap_config.h **** 	int eap_sim_id;
 444:C:/Users/stapi/OneDrive/Desktop/GD32VW553/V1_MQTT_OK/GD32VW55X_Wifi_BLE_SDK/GD32VW55x_RELEASE_V1.0.2/MSDK/wpa_supplicant/src/ap\ap_config.h **** 	int tnc;
 445:C:/Users/stapi/OneDrive/Desktop/GD32VW553/V1_MQTT_OK/GD32VW55X_Wifi_BLE_SDK/GD32VW55x_RELEASE_V1.0.2/MSDK/wpa_supplicant/src/ap\ap_config.h **** 	int fragment_size;
 446:C:/Users/stapi/OneDrive/Desktop/GD32VW553/V1_MQTT_OK/GD32VW55X_Wifi_BLE_SDK/GD32VW55x_RELEASE_V1.0.2/MSDK/wpa_supplicant/src/ap\ap_config.h **** 	u16 pwd_group;
 447:C:/Users/stapi/OneDrive/Desktop/GD32VW553/V1_MQTT_OK/GD32VW55X_Wifi_BLE_SDK/GD32VW55x_RELEASE_V1.0.2/MSDK/wpa_supplicant/src/ap\ap_config.h **** 
 448:C:/Users/stapi/OneDrive/Desktop/GD32VW553/V1_MQTT_OK/GD32VW55X_Wifi_BLE_SDK/GD32VW55x_RELEASE_V1.0.2/MSDK/wpa_supplicant/src/ap\ap_config.h **** 	char *radius_server_clients;
 449:C:/Users/stapi/OneDrive/Desktop/GD32VW553/V1_MQTT_OK/GD32VW55X_Wifi_BLE_SDK/GD32VW55x_RELEASE_V1.0.2/MSDK/wpa_supplicant/src/ap\ap_config.h **** 	int radius_server_auth_port;
 450:C:/Users/stapi/OneDrive/Desktop/GD32VW553/V1_MQTT_OK/GD32VW55X_Wifi_BLE_SDK/GD32VW55x_RELEASE_V1.0.2/MSDK/wpa_supplicant/src/ap\ap_config.h **** 	int radius_server_acct_port;
 451:C:/Users/stapi/OneDrive/Desktop/GD32VW553/V1_MQTT_OK/GD32VW55X_Wifi_BLE_SDK/GD32VW55x_RELEASE_V1.0.2/MSDK/wpa_supplicant/src/ap\ap_config.h **** 	int radius_server_ipv6;
 452:C:/Users/stapi/OneDrive/Desktop/GD32VW553/V1_MQTT_OK/GD32VW55X_Wifi_BLE_SDK/GD32VW55x_RELEASE_V1.0.2/MSDK/wpa_supplicant/src/ap\ap_config.h **** 
 453:C:/Users/stapi/OneDrive/Desktop/GD32VW553/V1_MQTT_OK/GD32VW55X_Wifi_BLE_SDK/GD32VW55x_RELEASE_V1.0.2/MSDK/wpa_supplicant/src/ap\ap_config.h **** 	int use_pae_group_addr; /* Whether to send EAPOL frames to PAE group
 454:C:/Users/stapi/OneDrive/Desktop/GD32VW553/V1_MQTT_OK/GD32VW55X_Wifi_BLE_SDK/GD32VW55x_RELEASE_V1.0.2/MSDK/wpa_supplicant/src/ap\ap_config.h **** 				 * address instead of individual address
 455:C:/Users/stapi/OneDrive/Desktop/GD32VW553/V1_MQTT_OK/GD32VW55X_Wifi_BLE_SDK/GD32VW55x_RELEASE_V1.0.2/MSDK/wpa_supplicant/src/ap\ap_config.h **** 				 * (for driver_wired.c).
 456:C:/Users/stapi/OneDrive/Desktop/GD32VW553/V1_MQTT_OK/GD32VW55X_Wifi_BLE_SDK/GD32VW55x_RELEASE_V1.0.2/MSDK/wpa_supplicant/src/ap\ap_config.h **** 				 */
 457:C:/Users/stapi/OneDrive/Desktop/GD32VW553/V1_MQTT_OK/GD32VW55X_Wifi_BLE_SDK/GD32VW55x_RELEASE_V1.0.2/MSDK/wpa_supplicant/src/ap\ap_config.h **** 
 458:C:/Users/stapi/OneDrive/Desktop/GD32VW553/V1_MQTT_OK/GD32VW55X_Wifi_BLE_SDK/GD32VW55x_RELEASE_V1.0.2/MSDK/wpa_supplicant/src/ap\ap_config.h **** 	int ap_max_inactivity;
 459:C:/Users/stapi/OneDrive/Desktop/GD32VW553/V1_MQTT_OK/GD32VW55X_Wifi_BLE_SDK/GD32VW55x_RELEASE_V1.0.2/MSDK/wpa_supplicant/src/ap\ap_config.h **** 	int ignore_broadcast_ssid;
 460:C:/Users/stapi/OneDrive/Desktop/GD32VW553/V1_MQTT_OK/GD32VW55X_Wifi_BLE_SDK/GD32VW55x_RELEASE_V1.0.2/MSDK/wpa_supplicant/src/ap\ap_config.h **** 	int no_probe_resp_if_max_sta;
 461:C:/Users/stapi/OneDrive/Desktop/GD32VW553/V1_MQTT_OK/GD32VW55X_Wifi_BLE_SDK/GD32VW55x_RELEASE_V1.0.2/MSDK/wpa_supplicant/src/ap\ap_config.h **** 
 462:C:/Users/stapi/OneDrive/Desktop/GD32VW553/V1_MQTT_OK/GD32VW55X_Wifi_BLE_SDK/GD32VW55x_RELEASE_V1.0.2/MSDK/wpa_supplicant/src/ap\ap_config.h **** 	int wmm_enabled;
 463:C:/Users/stapi/OneDrive/Desktop/GD32VW553/V1_MQTT_OK/GD32VW55X_Wifi_BLE_SDK/GD32VW55x_RELEASE_V1.0.2/MSDK/wpa_supplicant/src/ap\ap_config.h **** 	int wmm_uapsd;
 464:C:/Users/stapi/OneDrive/Desktop/GD32VW553/V1_MQTT_OK/GD32VW55X_Wifi_BLE_SDK/GD32VW55x_RELEASE_V1.0.2/MSDK/wpa_supplicant/src/ap\ap_config.h **** 
 465:C:/Users/stapi/OneDrive/Desktop/GD32VW553/V1_MQTT_OK/GD32VW55X_Wifi_BLE_SDK/GD32VW55x_RELEASE_V1.0.2/MSDK/wpa_supplicant/src/ap\ap_config.h **** 	struct hostapd_vlan *vlan;
 466:C:/Users/stapi/OneDrive/Desktop/GD32VW553/V1_MQTT_OK/GD32VW55X_Wifi_BLE_SDK/GD32VW55x_RELEASE_V1.0.2/MSDK/wpa_supplicant/src/ap\ap_config.h **** 
 467:C:/Users/stapi/OneDrive/Desktop/GD32VW553/V1_MQTT_OK/GD32VW55X_Wifi_BLE_SDK/GD32VW55x_RELEASE_V1.0.2/MSDK/wpa_supplicant/src/ap\ap_config.h **** 	macaddr bssid;
 468:C:/Users/stapi/OneDrive/Desktop/GD32VW553/V1_MQTT_OK/GD32VW55X_Wifi_BLE_SDK/GD32VW55x_RELEASE_V1.0.2/MSDK/wpa_supplicant/src/ap\ap_config.h **** 
 469:C:/Users/stapi/OneDrive/Desktop/GD32VW553/V1_MQTT_OK/GD32VW55X_Wifi_BLE_SDK/GD32VW55x_RELEASE_V1.0.2/MSDK/wpa_supplicant/src/ap\ap_config.h **** 	/*
 470:C:/Users/stapi/OneDrive/Desktop/GD32VW553/V1_MQTT_OK/GD32VW55X_Wifi_BLE_SDK/GD32VW55x_RELEASE_V1.0.2/MSDK/wpa_supplicant/src/ap\ap_config.h **** 	 * Maximum listen interval that STAs can use when associating with this
 471:C:/Users/stapi/OneDrive/Desktop/GD32VW553/V1_MQTT_OK/GD32VW55X_Wifi_BLE_SDK/GD32VW55x_RELEASE_V1.0.2/MSDK/wpa_supplicant/src/ap\ap_config.h **** 	 * BSS. If a STA tries to use larger value, the association will be
 472:C:/Users/stapi/OneDrive/Desktop/GD32VW553/V1_MQTT_OK/GD32VW55X_Wifi_BLE_SDK/GD32VW55x_RELEASE_V1.0.2/MSDK/wpa_supplicant/src/ap\ap_config.h **** 	 * denied with status code 51.
 473:C:/Users/stapi/OneDrive/Desktop/GD32VW553/V1_MQTT_OK/GD32VW55X_Wifi_BLE_SDK/GD32VW55x_RELEASE_V1.0.2/MSDK/wpa_supplicant/src/ap\ap_config.h **** 	 */
 474:C:/Users/stapi/OneDrive/Desktop/GD32VW553/V1_MQTT_OK/GD32VW55X_Wifi_BLE_SDK/GD32VW55x_RELEASE_V1.0.2/MSDK/wpa_supplicant/src/ap\ap_config.h **** 	u16 max_listen_interval;
 475:C:/Users/stapi/OneDrive/Desktop/GD32VW553/V1_MQTT_OK/GD32VW55X_Wifi_BLE_SDK/GD32VW55x_RELEASE_V1.0.2/MSDK/wpa_supplicant/src/ap\ap_config.h **** 
 476:C:/Users/stapi/OneDrive/Desktop/GD32VW553/V1_MQTT_OK/GD32VW55X_Wifi_BLE_SDK/GD32VW55x_RELEASE_V1.0.2/MSDK/wpa_supplicant/src/ap\ap_config.h **** 	int disable_pmksa_caching;
 477:C:/Users/stapi/OneDrive/Desktop/GD32VW553/V1_MQTT_OK/GD32VW55X_Wifi_BLE_SDK/GD32VW55x_RELEASE_V1.0.2/MSDK/wpa_supplicant/src/ap\ap_config.h **** 	int okc; /* Opportunistic Key Caching */
 478:C:/Users/stapi/OneDrive/Desktop/GD32VW553/V1_MQTT_OK/GD32VW55X_Wifi_BLE_SDK/GD32VW55x_RELEASE_V1.0.2/MSDK/wpa_supplicant/src/ap\ap_config.h **** 
 479:C:/Users/stapi/OneDrive/Desktop/GD32VW553/V1_MQTT_OK/GD32VW55X_Wifi_BLE_SDK/GD32VW55x_RELEASE_V1.0.2/MSDK/wpa_supplicant/src/ap\ap_config.h **** 	int wps_state;
 480:C:/Users/stapi/OneDrive/Desktop/GD32VW553/V1_MQTT_OK/GD32VW55X_Wifi_BLE_SDK/GD32VW55x_RELEASE_V1.0.2/MSDK/wpa_supplicant/src/ap\ap_config.h **** #ifdef CONFIG_WPS
 481:C:/Users/stapi/OneDrive/Desktop/GD32VW553/V1_MQTT_OK/GD32VW55X_Wifi_BLE_SDK/GD32VW55x_RELEASE_V1.0.2/MSDK/wpa_supplicant/src/ap\ap_config.h **** 	int wps_independent;
 482:C:/Users/stapi/OneDrive/Desktop/GD32VW553/V1_MQTT_OK/GD32VW55X_Wifi_BLE_SDK/GD32VW55x_RELEASE_V1.0.2/MSDK/wpa_supplicant/src/ap\ap_config.h **** 	int ap_setup_locked;
 483:C:/Users/stapi/OneDrive/Desktop/GD32VW553/V1_MQTT_OK/GD32VW55X_Wifi_BLE_SDK/GD32VW55x_RELEASE_V1.0.2/MSDK/wpa_supplicant/src/ap\ap_config.h **** 	u8 uuid[16];
 484:C:/Users/stapi/OneDrive/Desktop/GD32VW553/V1_MQTT_OK/GD32VW55X_Wifi_BLE_SDK/GD32VW55x_RELEASE_V1.0.2/MSDK/wpa_supplicant/src/ap\ap_config.h **** 	char *wps_pin_requests;
 485:C:/Users/stapi/OneDrive/Desktop/GD32VW553/V1_MQTT_OK/GD32VW55X_Wifi_BLE_SDK/GD32VW55x_RELEASE_V1.0.2/MSDK/wpa_supplicant/src/ap\ap_config.h **** 	char *device_name;
 486:C:/Users/stapi/OneDrive/Desktop/GD32VW553/V1_MQTT_OK/GD32VW55X_Wifi_BLE_SDK/GD32VW55x_RELEASE_V1.0.2/MSDK/wpa_supplicant/src/ap\ap_config.h **** 	char *manufacturer;
 487:C:/Users/stapi/OneDrive/Desktop/GD32VW553/V1_MQTT_OK/GD32VW55X_Wifi_BLE_SDK/GD32VW55x_RELEASE_V1.0.2/MSDK/wpa_supplicant/src/ap\ap_config.h **** 	char *model_name;
 488:C:/Users/stapi/OneDrive/Desktop/GD32VW553/V1_MQTT_OK/GD32VW55X_Wifi_BLE_SDK/GD32VW55x_RELEASE_V1.0.2/MSDK/wpa_supplicant/src/ap\ap_config.h **** 	char *model_number;
 489:C:/Users/stapi/OneDrive/Desktop/GD32VW553/V1_MQTT_OK/GD32VW55X_Wifi_BLE_SDK/GD32VW55x_RELEASE_V1.0.2/MSDK/wpa_supplicant/src/ap\ap_config.h **** 	char *serial_number;
 490:C:/Users/stapi/OneDrive/Desktop/GD32VW553/V1_MQTT_OK/GD32VW55X_Wifi_BLE_SDK/GD32VW55x_RELEASE_V1.0.2/MSDK/wpa_supplicant/src/ap\ap_config.h **** 	u8 device_type[WPS_DEV_TYPE_LEN];
 491:C:/Users/stapi/OneDrive/Desktop/GD32VW553/V1_MQTT_OK/GD32VW55X_Wifi_BLE_SDK/GD32VW55x_RELEASE_V1.0.2/MSDK/wpa_supplicant/src/ap\ap_config.h **** 	char *config_methods;
 492:C:/Users/stapi/OneDrive/Desktop/GD32VW553/V1_MQTT_OK/GD32VW55X_Wifi_BLE_SDK/GD32VW55x_RELEASE_V1.0.2/MSDK/wpa_supplicant/src/ap\ap_config.h **** 	u8 os_version[4];
 493:C:/Users/stapi/OneDrive/Desktop/GD32VW553/V1_MQTT_OK/GD32VW55X_Wifi_BLE_SDK/GD32VW55x_RELEASE_V1.0.2/MSDK/wpa_supplicant/src/ap\ap_config.h **** 	char *ap_pin;
 494:C:/Users/stapi/OneDrive/Desktop/GD32VW553/V1_MQTT_OK/GD32VW55X_Wifi_BLE_SDK/GD32VW55x_RELEASE_V1.0.2/MSDK/wpa_supplicant/src/ap\ap_config.h **** 	int skip_cred_build;
 495:C:/Users/stapi/OneDrive/Desktop/GD32VW553/V1_MQTT_OK/GD32VW55X_Wifi_BLE_SDK/GD32VW55x_RELEASE_V1.0.2/MSDK/wpa_supplicant/src/ap\ap_config.h **** 	u8 *extra_cred;
 496:C:/Users/stapi/OneDrive/Desktop/GD32VW553/V1_MQTT_OK/GD32VW55X_Wifi_BLE_SDK/GD32VW55x_RELEASE_V1.0.2/MSDK/wpa_supplicant/src/ap\ap_config.h **** 	size_t extra_cred_len;
 497:C:/Users/stapi/OneDrive/Desktop/GD32VW553/V1_MQTT_OK/GD32VW55X_Wifi_BLE_SDK/GD32VW55x_RELEASE_V1.0.2/MSDK/wpa_supplicant/src/ap\ap_config.h **** 	int wps_cred_processing;
 498:C:/Users/stapi/OneDrive/Desktop/GD32VW553/V1_MQTT_OK/GD32VW55X_Wifi_BLE_SDK/GD32VW55x_RELEASE_V1.0.2/MSDK/wpa_supplicant/src/ap\ap_config.h **** 	int wps_cred_add_sae;
 499:C:/Users/stapi/OneDrive/Desktop/GD32VW553/V1_MQTT_OK/GD32VW55X_Wifi_BLE_SDK/GD32VW55x_RELEASE_V1.0.2/MSDK/wpa_supplicant/src/ap\ap_config.h **** 	int force_per_enrollee_psk;
 500:C:/Users/stapi/OneDrive/Desktop/GD32VW553/V1_MQTT_OK/GD32VW55X_Wifi_BLE_SDK/GD32VW55x_RELEASE_V1.0.2/MSDK/wpa_supplicant/src/ap\ap_config.h **** 	u8 *ap_settings;
 501:C:/Users/stapi/OneDrive/Desktop/GD32VW553/V1_MQTT_OK/GD32VW55X_Wifi_BLE_SDK/GD32VW55x_RELEASE_V1.0.2/MSDK/wpa_supplicant/src/ap\ap_config.h **** 	size_t ap_settings_len;
 502:C:/Users/stapi/OneDrive/Desktop/GD32VW553/V1_MQTT_OK/GD32VW55X_Wifi_BLE_SDK/GD32VW55x_RELEASE_V1.0.2/MSDK/wpa_supplicant/src/ap\ap_config.h **** 	struct hostapd_ssid multi_ap_backhaul_ssid;
 503:C:/Users/stapi/OneDrive/Desktop/GD32VW553/V1_MQTT_OK/GD32VW55X_Wifi_BLE_SDK/GD32VW55x_RELEASE_V1.0.2/MSDK/wpa_supplicant/src/ap\ap_config.h **** 	char *upnp_iface;
 504:C:/Users/stapi/OneDrive/Desktop/GD32VW553/V1_MQTT_OK/GD32VW55X_Wifi_BLE_SDK/GD32VW55x_RELEASE_V1.0.2/MSDK/wpa_supplicant/src/ap\ap_config.h **** 	char *friendly_name;
 505:C:/Users/stapi/OneDrive/Desktop/GD32VW553/V1_MQTT_OK/GD32VW55X_Wifi_BLE_SDK/GD32VW55x_RELEASE_V1.0.2/MSDK/wpa_supplicant/src/ap\ap_config.h **** 	char *manufacturer_url;
 506:C:/Users/stapi/OneDrive/Desktop/GD32VW553/V1_MQTT_OK/GD32VW55X_Wifi_BLE_SDK/GD32VW55x_RELEASE_V1.0.2/MSDK/wpa_supplicant/src/ap\ap_config.h **** 	char *model_description;
 507:C:/Users/stapi/OneDrive/Desktop/GD32VW553/V1_MQTT_OK/GD32VW55X_Wifi_BLE_SDK/GD32VW55x_RELEASE_V1.0.2/MSDK/wpa_supplicant/src/ap\ap_config.h **** 	char *model_url;
 508:C:/Users/stapi/OneDrive/Desktop/GD32VW553/V1_MQTT_OK/GD32VW55X_Wifi_BLE_SDK/GD32VW55x_RELEASE_V1.0.2/MSDK/wpa_supplicant/src/ap\ap_config.h **** 	char *upc;
 509:C:/Users/stapi/OneDrive/Desktop/GD32VW553/V1_MQTT_OK/GD32VW55X_Wifi_BLE_SDK/GD32VW55x_RELEASE_V1.0.2/MSDK/wpa_supplicant/src/ap\ap_config.h **** 	struct wpabuf *wps_vendor_ext[MAX_WPS_VENDOR_EXTENSIONS];
 510:C:/Users/stapi/OneDrive/Desktop/GD32VW553/V1_MQTT_OK/GD32VW55X_Wifi_BLE_SDK/GD32VW55x_RELEASE_V1.0.2/MSDK/wpa_supplicant/src/ap\ap_config.h **** 	struct wpabuf *wps_application_ext;
 511:C:/Users/stapi/OneDrive/Desktop/GD32VW553/V1_MQTT_OK/GD32VW55X_Wifi_BLE_SDK/GD32VW55x_RELEASE_V1.0.2/MSDK/wpa_supplicant/src/ap\ap_config.h **** 	int wps_nfc_pw_from_config;
 512:C:/Users/stapi/OneDrive/Desktop/GD32VW553/V1_MQTT_OK/GD32VW55X_Wifi_BLE_SDK/GD32VW55x_RELEASE_V1.0.2/MSDK/wpa_supplicant/src/ap\ap_config.h **** 	int wps_nfc_dev_pw_id;
 513:C:/Users/stapi/OneDrive/Desktop/GD32VW553/V1_MQTT_OK/GD32VW55X_Wifi_BLE_SDK/GD32VW55x_RELEASE_V1.0.2/MSDK/wpa_supplicant/src/ap\ap_config.h **** 	struct wpabuf *wps_nfc_dh_pubkey;
 514:C:/Users/stapi/OneDrive/Desktop/GD32VW553/V1_MQTT_OK/GD32VW55X_Wifi_BLE_SDK/GD32VW55x_RELEASE_V1.0.2/MSDK/wpa_supplicant/src/ap\ap_config.h **** 	struct wpabuf *wps_nfc_dh_privkey;
 515:C:/Users/stapi/OneDrive/Desktop/GD32VW553/V1_MQTT_OK/GD32VW55X_Wifi_BLE_SDK/GD32VW55x_RELEASE_V1.0.2/MSDK/wpa_supplicant/src/ap\ap_config.h **** 	struct wpabuf *wps_nfc_dev_pw;
 516:C:/Users/stapi/OneDrive/Desktop/GD32VW553/V1_MQTT_OK/GD32VW55X_Wifi_BLE_SDK/GD32VW55x_RELEASE_V1.0.2/MSDK/wpa_supplicant/src/ap\ap_config.h **** #endif /* CONFIG_WPS */
 517:C:/Users/stapi/OneDrive/Desktop/GD32VW553/V1_MQTT_OK/GD32VW55X_Wifi_BLE_SDK/GD32VW55x_RELEASE_V1.0.2/MSDK/wpa_supplicant/src/ap\ap_config.h **** 	int pbc_in_m1;
 518:C:/Users/stapi/OneDrive/Desktop/GD32VW553/V1_MQTT_OK/GD32VW55X_Wifi_BLE_SDK/GD32VW55x_RELEASE_V1.0.2/MSDK/wpa_supplicant/src/ap\ap_config.h **** 	char *server_id;
 519:C:/Users/stapi/OneDrive/Desktop/GD32VW553/V1_MQTT_OK/GD32VW55X_Wifi_BLE_SDK/GD32VW55x_RELEASE_V1.0.2/MSDK/wpa_supplicant/src/ap\ap_config.h **** 
 520:C:/Users/stapi/OneDrive/Desktop/GD32VW553/V1_MQTT_OK/GD32VW55X_Wifi_BLE_SDK/GD32VW55x_RELEASE_V1.0.2/MSDK/wpa_supplicant/src/ap\ap_config.h **** #define P2P_ENABLED BIT(0)
 521:C:/Users/stapi/OneDrive/Desktop/GD32VW553/V1_MQTT_OK/GD32VW55X_Wifi_BLE_SDK/GD32VW55x_RELEASE_V1.0.2/MSDK/wpa_supplicant/src/ap\ap_config.h **** #define P2P_GROUP_OWNER BIT(1)
 522:C:/Users/stapi/OneDrive/Desktop/GD32VW553/V1_MQTT_OK/GD32VW55X_Wifi_BLE_SDK/GD32VW55x_RELEASE_V1.0.2/MSDK/wpa_supplicant/src/ap\ap_config.h **** #define P2P_GROUP_FORMATION BIT(2)
 523:C:/Users/stapi/OneDrive/Desktop/GD32VW553/V1_MQTT_OK/GD32VW55X_Wifi_BLE_SDK/GD32VW55x_RELEASE_V1.0.2/MSDK/wpa_supplicant/src/ap\ap_config.h **** #define P2P_MANAGE BIT(3)
 524:C:/Users/stapi/OneDrive/Desktop/GD32VW553/V1_MQTT_OK/GD32VW55X_Wifi_BLE_SDK/GD32VW55x_RELEASE_V1.0.2/MSDK/wpa_supplicant/src/ap\ap_config.h **** #define P2P_ALLOW_CROSS_CONNECTION BIT(4)
 525:C:/Users/stapi/OneDrive/Desktop/GD32VW553/V1_MQTT_OK/GD32VW55X_Wifi_BLE_SDK/GD32VW55x_RELEASE_V1.0.2/MSDK/wpa_supplicant/src/ap\ap_config.h **** 	int p2p;
 526:C:/Users/stapi/OneDrive/Desktop/GD32VW553/V1_MQTT_OK/GD32VW55X_Wifi_BLE_SDK/GD32VW55x_RELEASE_V1.0.2/MSDK/wpa_supplicant/src/ap\ap_config.h **** #ifdef CONFIG_P2P
 527:C:/Users/stapi/OneDrive/Desktop/GD32VW553/V1_MQTT_OK/GD32VW55X_Wifi_BLE_SDK/GD32VW55x_RELEASE_V1.0.2/MSDK/wpa_supplicant/src/ap\ap_config.h **** 	u8 ip_addr_go[4];
 528:C:/Users/stapi/OneDrive/Desktop/GD32VW553/V1_MQTT_OK/GD32VW55X_Wifi_BLE_SDK/GD32VW55x_RELEASE_V1.0.2/MSDK/wpa_supplicant/src/ap\ap_config.h **** 	u8 ip_addr_mask[4];
 529:C:/Users/stapi/OneDrive/Desktop/GD32VW553/V1_MQTT_OK/GD32VW55X_Wifi_BLE_SDK/GD32VW55x_RELEASE_V1.0.2/MSDK/wpa_supplicant/src/ap\ap_config.h **** 	u8 ip_addr_start[4];
 530:C:/Users/stapi/OneDrive/Desktop/GD32VW553/V1_MQTT_OK/GD32VW55X_Wifi_BLE_SDK/GD32VW55x_RELEASE_V1.0.2/MSDK/wpa_supplicant/src/ap\ap_config.h **** 	u8 ip_addr_end[4];
 531:C:/Users/stapi/OneDrive/Desktop/GD32VW553/V1_MQTT_OK/GD32VW55X_Wifi_BLE_SDK/GD32VW55x_RELEASE_V1.0.2/MSDK/wpa_supplicant/src/ap\ap_config.h **** #endif /* CONFIG_P2P */
 532:C:/Users/stapi/OneDrive/Desktop/GD32VW553/V1_MQTT_OK/GD32VW55X_Wifi_BLE_SDK/GD32VW55x_RELEASE_V1.0.2/MSDK/wpa_supplicant/src/ap\ap_config.h **** 
 533:C:/Users/stapi/OneDrive/Desktop/GD32VW553/V1_MQTT_OK/GD32VW55X_Wifi_BLE_SDK/GD32VW55x_RELEASE_V1.0.2/MSDK/wpa_supplicant/src/ap\ap_config.h **** 	int disassoc_low_ack;
 534:C:/Users/stapi/OneDrive/Desktop/GD32VW553/V1_MQTT_OK/GD32VW55X_Wifi_BLE_SDK/GD32VW55x_RELEASE_V1.0.2/MSDK/wpa_supplicant/src/ap\ap_config.h **** 	int skip_inactivity_poll;
 535:C:/Users/stapi/OneDrive/Desktop/GD32VW553/V1_MQTT_OK/GD32VW55X_Wifi_BLE_SDK/GD32VW55x_RELEASE_V1.0.2/MSDK/wpa_supplicant/src/ap\ap_config.h **** 
 536:C:/Users/stapi/OneDrive/Desktop/GD32VW553/V1_MQTT_OK/GD32VW55X_Wifi_BLE_SDK/GD32VW55x_RELEASE_V1.0.2/MSDK/wpa_supplicant/src/ap\ap_config.h **** #define TDLS_PROHIBIT BIT(0)
 537:C:/Users/stapi/OneDrive/Desktop/GD32VW553/V1_MQTT_OK/GD32VW55X_Wifi_BLE_SDK/GD32VW55x_RELEASE_V1.0.2/MSDK/wpa_supplicant/src/ap\ap_config.h **** #define TDLS_PROHIBIT_CHAN_SWITCH BIT(1)
 538:C:/Users/stapi/OneDrive/Desktop/GD32VW553/V1_MQTT_OK/GD32VW55X_Wifi_BLE_SDK/GD32VW55x_RELEASE_V1.0.2/MSDK/wpa_supplicant/src/ap\ap_config.h **** 	int tdls;
 539:C:/Users/stapi/OneDrive/Desktop/GD32VW553/V1_MQTT_OK/GD32VW55X_Wifi_BLE_SDK/GD32VW55x_RELEASE_V1.0.2/MSDK/wpa_supplicant/src/ap\ap_config.h **** 	bool disable_11n;
 540:C:/Users/stapi/OneDrive/Desktop/GD32VW553/V1_MQTT_OK/GD32VW55X_Wifi_BLE_SDK/GD32VW55x_RELEASE_V1.0.2/MSDK/wpa_supplicant/src/ap\ap_config.h **** 	bool disable_11ac;
 541:C:/Users/stapi/OneDrive/Desktop/GD32VW553/V1_MQTT_OK/GD32VW55X_Wifi_BLE_SDK/GD32VW55x_RELEASE_V1.0.2/MSDK/wpa_supplicant/src/ap\ap_config.h **** 	bool disable_11ax;
 542:C:/Users/stapi/OneDrive/Desktop/GD32VW553/V1_MQTT_OK/GD32VW55X_Wifi_BLE_SDK/GD32VW55x_RELEASE_V1.0.2/MSDK/wpa_supplicant/src/ap\ap_config.h **** 
 543:C:/Users/stapi/OneDrive/Desktop/GD32VW553/V1_MQTT_OK/GD32VW55X_Wifi_BLE_SDK/GD32VW55x_RELEASE_V1.0.2/MSDK/wpa_supplicant/src/ap\ap_config.h **** 	/* IEEE 802.11v */
 544:C:/Users/stapi/OneDrive/Desktop/GD32VW553/V1_MQTT_OK/GD32VW55X_Wifi_BLE_SDK/GD32VW55x_RELEASE_V1.0.2/MSDK/wpa_supplicant/src/ap\ap_config.h **** 	int time_advertisement;
 545:C:/Users/stapi/OneDrive/Desktop/GD32VW553/V1_MQTT_OK/GD32VW55X_Wifi_BLE_SDK/GD32VW55x_RELEASE_V1.0.2/MSDK/wpa_supplicant/src/ap\ap_config.h **** 	char *time_zone;
 546:C:/Users/stapi/OneDrive/Desktop/GD32VW553/V1_MQTT_OK/GD32VW55X_Wifi_BLE_SDK/GD32VW55x_RELEASE_V1.0.2/MSDK/wpa_supplicant/src/ap\ap_config.h **** 	int wnm_sleep_mode;
 547:C:/Users/stapi/OneDrive/Desktop/GD32VW553/V1_MQTT_OK/GD32VW55X_Wifi_BLE_SDK/GD32VW55x_RELEASE_V1.0.2/MSDK/wpa_supplicant/src/ap\ap_config.h **** 	int wnm_sleep_mode_no_keys;
 548:C:/Users/stapi/OneDrive/Desktop/GD32VW553/V1_MQTT_OK/GD32VW55X_Wifi_BLE_SDK/GD32VW55x_RELEASE_V1.0.2/MSDK/wpa_supplicant/src/ap\ap_config.h **** 	int bss_transition;
 549:C:/Users/stapi/OneDrive/Desktop/GD32VW553/V1_MQTT_OK/GD32VW55X_Wifi_BLE_SDK/GD32VW55x_RELEASE_V1.0.2/MSDK/wpa_supplicant/src/ap\ap_config.h **** 
 550:C:/Users/stapi/OneDrive/Desktop/GD32VW553/V1_MQTT_OK/GD32VW55X_Wifi_BLE_SDK/GD32VW55x_RELEASE_V1.0.2/MSDK/wpa_supplicant/src/ap\ap_config.h **** 	/* IEEE 802.11u - Interworking */
 551:C:/Users/stapi/OneDrive/Desktop/GD32VW553/V1_MQTT_OK/GD32VW55X_Wifi_BLE_SDK/GD32VW55x_RELEASE_V1.0.2/MSDK/wpa_supplicant/src/ap\ap_config.h **** 	int interworking;
 552:C:/Users/stapi/OneDrive/Desktop/GD32VW553/V1_MQTT_OK/GD32VW55X_Wifi_BLE_SDK/GD32VW55x_RELEASE_V1.0.2/MSDK/wpa_supplicant/src/ap\ap_config.h **** 	int access_network_type;
 553:C:/Users/stapi/OneDrive/Desktop/GD32VW553/V1_MQTT_OK/GD32VW55X_Wifi_BLE_SDK/GD32VW55x_RELEASE_V1.0.2/MSDK/wpa_supplicant/src/ap\ap_config.h **** 	int internet;
 554:C:/Users/stapi/OneDrive/Desktop/GD32VW553/V1_MQTT_OK/GD32VW55X_Wifi_BLE_SDK/GD32VW55x_RELEASE_V1.0.2/MSDK/wpa_supplicant/src/ap\ap_config.h **** 	int asra;
 555:C:/Users/stapi/OneDrive/Desktop/GD32VW553/V1_MQTT_OK/GD32VW55X_Wifi_BLE_SDK/GD32VW55x_RELEASE_V1.0.2/MSDK/wpa_supplicant/src/ap\ap_config.h **** 	int esr;
 556:C:/Users/stapi/OneDrive/Desktop/GD32VW553/V1_MQTT_OK/GD32VW55X_Wifi_BLE_SDK/GD32VW55x_RELEASE_V1.0.2/MSDK/wpa_supplicant/src/ap\ap_config.h **** 	int uesa;
 557:C:/Users/stapi/OneDrive/Desktop/GD32VW553/V1_MQTT_OK/GD32VW55X_Wifi_BLE_SDK/GD32VW55x_RELEASE_V1.0.2/MSDK/wpa_supplicant/src/ap\ap_config.h **** 	int venue_info_set;
 558:C:/Users/stapi/OneDrive/Desktop/GD32VW553/V1_MQTT_OK/GD32VW55X_Wifi_BLE_SDK/GD32VW55x_RELEASE_V1.0.2/MSDK/wpa_supplicant/src/ap\ap_config.h **** 	u8 venue_group;
 559:C:/Users/stapi/OneDrive/Desktop/GD32VW553/V1_MQTT_OK/GD32VW55X_Wifi_BLE_SDK/GD32VW55x_RELEASE_V1.0.2/MSDK/wpa_supplicant/src/ap\ap_config.h **** 	u8 venue_type;
 560:C:/Users/stapi/OneDrive/Desktop/GD32VW553/V1_MQTT_OK/GD32VW55X_Wifi_BLE_SDK/GD32VW55x_RELEASE_V1.0.2/MSDK/wpa_supplicant/src/ap\ap_config.h **** 	u8 hessid[ETH_ALEN];
 561:C:/Users/stapi/OneDrive/Desktop/GD32VW553/V1_MQTT_OK/GD32VW55X_Wifi_BLE_SDK/GD32VW55x_RELEASE_V1.0.2/MSDK/wpa_supplicant/src/ap\ap_config.h **** 
 562:C:/Users/stapi/OneDrive/Desktop/GD32VW553/V1_MQTT_OK/GD32VW55X_Wifi_BLE_SDK/GD32VW55x_RELEASE_V1.0.2/MSDK/wpa_supplicant/src/ap\ap_config.h **** 	/* IEEE 802.11u - Roaming Consortium list */
 563:C:/Users/stapi/OneDrive/Desktop/GD32VW553/V1_MQTT_OK/GD32VW55X_Wifi_BLE_SDK/GD32VW55x_RELEASE_V1.0.2/MSDK/wpa_supplicant/src/ap\ap_config.h **** 	unsigned int roaming_consortium_count;
 564:C:/Users/stapi/OneDrive/Desktop/GD32VW553/V1_MQTT_OK/GD32VW55X_Wifi_BLE_SDK/GD32VW55x_RELEASE_V1.0.2/MSDK/wpa_supplicant/src/ap\ap_config.h **** 	struct hostapd_roaming_consortium *roaming_consortium;
 565:C:/Users/stapi/OneDrive/Desktop/GD32VW553/V1_MQTT_OK/GD32VW55X_Wifi_BLE_SDK/GD32VW55x_RELEASE_V1.0.2/MSDK/wpa_supplicant/src/ap\ap_config.h **** 
 566:C:/Users/stapi/OneDrive/Desktop/GD32VW553/V1_MQTT_OK/GD32VW55X_Wifi_BLE_SDK/GD32VW55x_RELEASE_V1.0.2/MSDK/wpa_supplicant/src/ap\ap_config.h **** 	/* IEEE 802.11u - Venue Name duples */
 567:C:/Users/stapi/OneDrive/Desktop/GD32VW553/V1_MQTT_OK/GD32VW55X_Wifi_BLE_SDK/GD32VW55x_RELEASE_V1.0.2/MSDK/wpa_supplicant/src/ap\ap_config.h **** 	unsigned int venue_name_count;
 568:C:/Users/stapi/OneDrive/Desktop/GD32VW553/V1_MQTT_OK/GD32VW55X_Wifi_BLE_SDK/GD32VW55x_RELEASE_V1.0.2/MSDK/wpa_supplicant/src/ap\ap_config.h **** 	struct hostapd_lang_string *venue_name;
 569:C:/Users/stapi/OneDrive/Desktop/GD32VW553/V1_MQTT_OK/GD32VW55X_Wifi_BLE_SDK/GD32VW55x_RELEASE_V1.0.2/MSDK/wpa_supplicant/src/ap\ap_config.h **** 
 570:C:/Users/stapi/OneDrive/Desktop/GD32VW553/V1_MQTT_OK/GD32VW55X_Wifi_BLE_SDK/GD32VW55x_RELEASE_V1.0.2/MSDK/wpa_supplicant/src/ap\ap_config.h **** 	/* Venue URL duples */
 571:C:/Users/stapi/OneDrive/Desktop/GD32VW553/V1_MQTT_OK/GD32VW55X_Wifi_BLE_SDK/GD32VW55x_RELEASE_V1.0.2/MSDK/wpa_supplicant/src/ap\ap_config.h **** 	unsigned int venue_url_count;
 572:C:/Users/stapi/OneDrive/Desktop/GD32VW553/V1_MQTT_OK/GD32VW55X_Wifi_BLE_SDK/GD32VW55x_RELEASE_V1.0.2/MSDK/wpa_supplicant/src/ap\ap_config.h **** 	struct hostapd_venue_url *venue_url;
 573:C:/Users/stapi/OneDrive/Desktop/GD32VW553/V1_MQTT_OK/GD32VW55X_Wifi_BLE_SDK/GD32VW55x_RELEASE_V1.0.2/MSDK/wpa_supplicant/src/ap\ap_config.h **** 
 574:C:/Users/stapi/OneDrive/Desktop/GD32VW553/V1_MQTT_OK/GD32VW55X_Wifi_BLE_SDK/GD32VW55x_RELEASE_V1.0.2/MSDK/wpa_supplicant/src/ap\ap_config.h **** 	/* IEEE 802.11u - Network Authentication Type */
 575:C:/Users/stapi/OneDrive/Desktop/GD32VW553/V1_MQTT_OK/GD32VW55X_Wifi_BLE_SDK/GD32VW55x_RELEASE_V1.0.2/MSDK/wpa_supplicant/src/ap\ap_config.h **** 	u8 *network_auth_type;
 576:C:/Users/stapi/OneDrive/Desktop/GD32VW553/V1_MQTT_OK/GD32VW55X_Wifi_BLE_SDK/GD32VW55x_RELEASE_V1.0.2/MSDK/wpa_supplicant/src/ap\ap_config.h **** 	size_t network_auth_type_len;
 577:C:/Users/stapi/OneDrive/Desktop/GD32VW553/V1_MQTT_OK/GD32VW55X_Wifi_BLE_SDK/GD32VW55x_RELEASE_V1.0.2/MSDK/wpa_supplicant/src/ap\ap_config.h **** 
 578:C:/Users/stapi/OneDrive/Desktop/GD32VW553/V1_MQTT_OK/GD32VW55X_Wifi_BLE_SDK/GD32VW55x_RELEASE_V1.0.2/MSDK/wpa_supplicant/src/ap\ap_config.h **** 	/* IEEE 802.11u - IP Address Type Availability */
 579:C:/Users/stapi/OneDrive/Desktop/GD32VW553/V1_MQTT_OK/GD32VW55X_Wifi_BLE_SDK/GD32VW55x_RELEASE_V1.0.2/MSDK/wpa_supplicant/src/ap\ap_config.h **** 	u8 ipaddr_type_availability;
 580:C:/Users/stapi/OneDrive/Desktop/GD32VW553/V1_MQTT_OK/GD32VW55X_Wifi_BLE_SDK/GD32VW55x_RELEASE_V1.0.2/MSDK/wpa_supplicant/src/ap\ap_config.h **** 	u8 ipaddr_type_configured;
 581:C:/Users/stapi/OneDrive/Desktop/GD32VW553/V1_MQTT_OK/GD32VW55X_Wifi_BLE_SDK/GD32VW55x_RELEASE_V1.0.2/MSDK/wpa_supplicant/src/ap\ap_config.h **** 
 582:C:/Users/stapi/OneDrive/Desktop/GD32VW553/V1_MQTT_OK/GD32VW55X_Wifi_BLE_SDK/GD32VW55x_RELEASE_V1.0.2/MSDK/wpa_supplicant/src/ap\ap_config.h **** 	/* IEEE 802.11u - 3GPP Cellular Network */
 583:C:/Users/stapi/OneDrive/Desktop/GD32VW553/V1_MQTT_OK/GD32VW55X_Wifi_BLE_SDK/GD32VW55x_RELEASE_V1.0.2/MSDK/wpa_supplicant/src/ap\ap_config.h **** 	u8 *anqp_3gpp_cell_net;
 584:C:/Users/stapi/OneDrive/Desktop/GD32VW553/V1_MQTT_OK/GD32VW55X_Wifi_BLE_SDK/GD32VW55x_RELEASE_V1.0.2/MSDK/wpa_supplicant/src/ap\ap_config.h **** 	size_t anqp_3gpp_cell_net_len;
 585:C:/Users/stapi/OneDrive/Desktop/GD32VW553/V1_MQTT_OK/GD32VW55X_Wifi_BLE_SDK/GD32VW55x_RELEASE_V1.0.2/MSDK/wpa_supplicant/src/ap\ap_config.h **** 
 586:C:/Users/stapi/OneDrive/Desktop/GD32VW553/V1_MQTT_OK/GD32VW55X_Wifi_BLE_SDK/GD32VW55x_RELEASE_V1.0.2/MSDK/wpa_supplicant/src/ap\ap_config.h **** 	/* IEEE 802.11u - Domain Name */
 587:C:/Users/stapi/OneDrive/Desktop/GD32VW553/V1_MQTT_OK/GD32VW55X_Wifi_BLE_SDK/GD32VW55x_RELEASE_V1.0.2/MSDK/wpa_supplicant/src/ap\ap_config.h **** 	u8 *domain_name;
 588:C:/Users/stapi/OneDrive/Desktop/GD32VW553/V1_MQTT_OK/GD32VW55X_Wifi_BLE_SDK/GD32VW55x_RELEASE_V1.0.2/MSDK/wpa_supplicant/src/ap\ap_config.h **** 	size_t domain_name_len;
 589:C:/Users/stapi/OneDrive/Desktop/GD32VW553/V1_MQTT_OK/GD32VW55X_Wifi_BLE_SDK/GD32VW55x_RELEASE_V1.0.2/MSDK/wpa_supplicant/src/ap\ap_config.h **** 
 590:C:/Users/stapi/OneDrive/Desktop/GD32VW553/V1_MQTT_OK/GD32VW55X_Wifi_BLE_SDK/GD32VW55x_RELEASE_V1.0.2/MSDK/wpa_supplicant/src/ap\ap_config.h **** 	unsigned int nai_realm_count;
 591:C:/Users/stapi/OneDrive/Desktop/GD32VW553/V1_MQTT_OK/GD32VW55X_Wifi_BLE_SDK/GD32VW55x_RELEASE_V1.0.2/MSDK/wpa_supplicant/src/ap\ap_config.h **** 	struct hostapd_nai_realm_data *nai_realm_data;
 592:C:/Users/stapi/OneDrive/Desktop/GD32VW553/V1_MQTT_OK/GD32VW55X_Wifi_BLE_SDK/GD32VW55x_RELEASE_V1.0.2/MSDK/wpa_supplicant/src/ap\ap_config.h **** 
 593:C:/Users/stapi/OneDrive/Desktop/GD32VW553/V1_MQTT_OK/GD32VW55X_Wifi_BLE_SDK/GD32VW55x_RELEASE_V1.0.2/MSDK/wpa_supplicant/src/ap\ap_config.h **** 	struct dl_list anqp_elem; /* list of struct anqp_element */
 594:C:/Users/stapi/OneDrive/Desktop/GD32VW553/V1_MQTT_OK/GD32VW55X_Wifi_BLE_SDK/GD32VW55x_RELEASE_V1.0.2/MSDK/wpa_supplicant/src/ap\ap_config.h **** 
 595:C:/Users/stapi/OneDrive/Desktop/GD32VW553/V1_MQTT_OK/GD32VW55X_Wifi_BLE_SDK/GD32VW55x_RELEASE_V1.0.2/MSDK/wpa_supplicant/src/ap\ap_config.h **** 	u16 gas_comeback_delay;
 596:C:/Users/stapi/OneDrive/Desktop/GD32VW553/V1_MQTT_OK/GD32VW55X_Wifi_BLE_SDK/GD32VW55x_RELEASE_V1.0.2/MSDK/wpa_supplicant/src/ap\ap_config.h **** 	size_t gas_frag_limit;
 597:C:/Users/stapi/OneDrive/Desktop/GD32VW553/V1_MQTT_OK/GD32VW55X_Wifi_BLE_SDK/GD32VW55x_RELEASE_V1.0.2/MSDK/wpa_supplicant/src/ap\ap_config.h **** 	int gas_address3;
 598:C:/Users/stapi/OneDrive/Desktop/GD32VW553/V1_MQTT_OK/GD32VW55X_Wifi_BLE_SDK/GD32VW55x_RELEASE_V1.0.2/MSDK/wpa_supplicant/src/ap\ap_config.h **** 
 599:C:/Users/stapi/OneDrive/Desktop/GD32VW553/V1_MQTT_OK/GD32VW55X_Wifi_BLE_SDK/GD32VW55x_RELEASE_V1.0.2/MSDK/wpa_supplicant/src/ap\ap_config.h **** 	u8 qos_map_set[16 + 2 * 21];
 600:C:/Users/stapi/OneDrive/Desktop/GD32VW553/V1_MQTT_OK/GD32VW55X_Wifi_BLE_SDK/GD32VW55x_RELEASE_V1.0.2/MSDK/wpa_supplicant/src/ap\ap_config.h **** 	unsigned int qos_map_set_len;
 601:C:/Users/stapi/OneDrive/Desktop/GD32VW553/V1_MQTT_OK/GD32VW55X_Wifi_BLE_SDK/GD32VW55x_RELEASE_V1.0.2/MSDK/wpa_supplicant/src/ap\ap_config.h **** 
 602:C:/Users/stapi/OneDrive/Desktop/GD32VW553/V1_MQTT_OK/GD32VW55X_Wifi_BLE_SDK/GD32VW55x_RELEASE_V1.0.2/MSDK/wpa_supplicant/src/ap\ap_config.h **** 	int osen;
 603:C:/Users/stapi/OneDrive/Desktop/GD32VW553/V1_MQTT_OK/GD32VW55X_Wifi_BLE_SDK/GD32VW55x_RELEASE_V1.0.2/MSDK/wpa_supplicant/src/ap\ap_config.h **** 	int proxy_arp;
 604:C:/Users/stapi/OneDrive/Desktop/GD32VW553/V1_MQTT_OK/GD32VW55X_Wifi_BLE_SDK/GD32VW55x_RELEASE_V1.0.2/MSDK/wpa_supplicant/src/ap\ap_config.h **** 	int na_mcast_to_ucast;
 605:C:/Users/stapi/OneDrive/Desktop/GD32VW553/V1_MQTT_OK/GD32VW55X_Wifi_BLE_SDK/GD32VW55x_RELEASE_V1.0.2/MSDK/wpa_supplicant/src/ap\ap_config.h **** 
 606:C:/Users/stapi/OneDrive/Desktop/GD32VW553/V1_MQTT_OK/GD32VW55X_Wifi_BLE_SDK/GD32VW55x_RELEASE_V1.0.2/MSDK/wpa_supplicant/src/ap\ap_config.h **** #ifdef CONFIG_HS20
 607:C:/Users/stapi/OneDrive/Desktop/GD32VW553/V1_MQTT_OK/GD32VW55X_Wifi_BLE_SDK/GD32VW55x_RELEASE_V1.0.2/MSDK/wpa_supplicant/src/ap\ap_config.h **** 	int hs20;
 608:C:/Users/stapi/OneDrive/Desktop/GD32VW553/V1_MQTT_OK/GD32VW55X_Wifi_BLE_SDK/GD32VW55x_RELEASE_V1.0.2/MSDK/wpa_supplicant/src/ap\ap_config.h **** 	int hs20_release;
 609:C:/Users/stapi/OneDrive/Desktop/GD32VW553/V1_MQTT_OK/GD32VW55X_Wifi_BLE_SDK/GD32VW55x_RELEASE_V1.0.2/MSDK/wpa_supplicant/src/ap\ap_config.h **** 	int disable_dgaf;
 610:C:/Users/stapi/OneDrive/Desktop/GD32VW553/V1_MQTT_OK/GD32VW55X_Wifi_BLE_SDK/GD32VW55x_RELEASE_V1.0.2/MSDK/wpa_supplicant/src/ap\ap_config.h **** 	u16 anqp_domain_id;
 611:C:/Users/stapi/OneDrive/Desktop/GD32VW553/V1_MQTT_OK/GD32VW55X_Wifi_BLE_SDK/GD32VW55x_RELEASE_V1.0.2/MSDK/wpa_supplicant/src/ap\ap_config.h **** 	unsigned int hs20_oper_friendly_name_count;
 612:C:/Users/stapi/OneDrive/Desktop/GD32VW553/V1_MQTT_OK/GD32VW55X_Wifi_BLE_SDK/GD32VW55x_RELEASE_V1.0.2/MSDK/wpa_supplicant/src/ap\ap_config.h **** 	struct hostapd_lang_string *hs20_oper_friendly_name;
 613:C:/Users/stapi/OneDrive/Desktop/GD32VW553/V1_MQTT_OK/GD32VW55X_Wifi_BLE_SDK/GD32VW55x_RELEASE_V1.0.2/MSDK/wpa_supplicant/src/ap\ap_config.h **** 	u8 *hs20_wan_metrics;
 614:C:/Users/stapi/OneDrive/Desktop/GD32VW553/V1_MQTT_OK/GD32VW55X_Wifi_BLE_SDK/GD32VW55x_RELEASE_V1.0.2/MSDK/wpa_supplicant/src/ap\ap_config.h **** 	u8 *hs20_connection_capability;
 615:C:/Users/stapi/OneDrive/Desktop/GD32VW553/V1_MQTT_OK/GD32VW55X_Wifi_BLE_SDK/GD32VW55x_RELEASE_V1.0.2/MSDK/wpa_supplicant/src/ap\ap_config.h **** 	size_t hs20_connection_capability_len;
 616:C:/Users/stapi/OneDrive/Desktop/GD32VW553/V1_MQTT_OK/GD32VW55X_Wifi_BLE_SDK/GD32VW55x_RELEASE_V1.0.2/MSDK/wpa_supplicant/src/ap\ap_config.h **** 	u8 *hs20_operating_class;
 617:C:/Users/stapi/OneDrive/Desktop/GD32VW553/V1_MQTT_OK/GD32VW55X_Wifi_BLE_SDK/GD32VW55x_RELEASE_V1.0.2/MSDK/wpa_supplicant/src/ap\ap_config.h **** 	u8 hs20_operating_class_len;
 618:C:/Users/stapi/OneDrive/Desktop/GD32VW553/V1_MQTT_OK/GD32VW55X_Wifi_BLE_SDK/GD32VW55x_RELEASE_V1.0.2/MSDK/wpa_supplicant/src/ap\ap_config.h **** 	struct hs20_icon {
 619:C:/Users/stapi/OneDrive/Desktop/GD32VW553/V1_MQTT_OK/GD32VW55X_Wifi_BLE_SDK/GD32VW55x_RELEASE_V1.0.2/MSDK/wpa_supplicant/src/ap\ap_config.h **** 		u16 width;
 620:C:/Users/stapi/OneDrive/Desktop/GD32VW553/V1_MQTT_OK/GD32VW55X_Wifi_BLE_SDK/GD32VW55x_RELEASE_V1.0.2/MSDK/wpa_supplicant/src/ap\ap_config.h **** 		u16 height;
 621:C:/Users/stapi/OneDrive/Desktop/GD32VW553/V1_MQTT_OK/GD32VW55X_Wifi_BLE_SDK/GD32VW55x_RELEASE_V1.0.2/MSDK/wpa_supplicant/src/ap\ap_config.h **** 		char language[3];
 622:C:/Users/stapi/OneDrive/Desktop/GD32VW553/V1_MQTT_OK/GD32VW55X_Wifi_BLE_SDK/GD32VW55x_RELEASE_V1.0.2/MSDK/wpa_supplicant/src/ap\ap_config.h **** 		char type[256];
 623:C:/Users/stapi/OneDrive/Desktop/GD32VW553/V1_MQTT_OK/GD32VW55X_Wifi_BLE_SDK/GD32VW55x_RELEASE_V1.0.2/MSDK/wpa_supplicant/src/ap\ap_config.h **** 		char name[256];
 624:C:/Users/stapi/OneDrive/Desktop/GD32VW553/V1_MQTT_OK/GD32VW55X_Wifi_BLE_SDK/GD32VW55x_RELEASE_V1.0.2/MSDK/wpa_supplicant/src/ap\ap_config.h **** 		char file[256];
 625:C:/Users/stapi/OneDrive/Desktop/GD32VW553/V1_MQTT_OK/GD32VW55X_Wifi_BLE_SDK/GD32VW55x_RELEASE_V1.0.2/MSDK/wpa_supplicant/src/ap\ap_config.h **** 	} *hs20_icons;
 626:C:/Users/stapi/OneDrive/Desktop/GD32VW553/V1_MQTT_OK/GD32VW55X_Wifi_BLE_SDK/GD32VW55x_RELEASE_V1.0.2/MSDK/wpa_supplicant/src/ap\ap_config.h **** 	size_t hs20_icons_count;
 627:C:/Users/stapi/OneDrive/Desktop/GD32VW553/V1_MQTT_OK/GD32VW55X_Wifi_BLE_SDK/GD32VW55x_RELEASE_V1.0.2/MSDK/wpa_supplicant/src/ap\ap_config.h **** 	u8 osu_ssid[SSID_MAX_LEN];
 628:C:/Users/stapi/OneDrive/Desktop/GD32VW553/V1_MQTT_OK/GD32VW55X_Wifi_BLE_SDK/GD32VW55x_RELEASE_V1.0.2/MSDK/wpa_supplicant/src/ap\ap_config.h **** 	size_t osu_ssid_len;
 629:C:/Users/stapi/OneDrive/Desktop/GD32VW553/V1_MQTT_OK/GD32VW55X_Wifi_BLE_SDK/GD32VW55x_RELEASE_V1.0.2/MSDK/wpa_supplicant/src/ap\ap_config.h **** 	struct hs20_osu_provider {
 630:C:/Users/stapi/OneDrive/Desktop/GD32VW553/V1_MQTT_OK/GD32VW55X_Wifi_BLE_SDK/GD32VW55x_RELEASE_V1.0.2/MSDK/wpa_supplicant/src/ap\ap_config.h **** 		unsigned int friendly_name_count;
 631:C:/Users/stapi/OneDrive/Desktop/GD32VW553/V1_MQTT_OK/GD32VW55X_Wifi_BLE_SDK/GD32VW55x_RELEASE_V1.0.2/MSDK/wpa_supplicant/src/ap\ap_config.h **** 		struct hostapd_lang_string *friendly_name;
 632:C:/Users/stapi/OneDrive/Desktop/GD32VW553/V1_MQTT_OK/GD32VW55X_Wifi_BLE_SDK/GD32VW55x_RELEASE_V1.0.2/MSDK/wpa_supplicant/src/ap\ap_config.h **** 		char *server_uri;
 633:C:/Users/stapi/OneDrive/Desktop/GD32VW553/V1_MQTT_OK/GD32VW55X_Wifi_BLE_SDK/GD32VW55x_RELEASE_V1.0.2/MSDK/wpa_supplicant/src/ap\ap_config.h **** 		int *method_list;
 634:C:/Users/stapi/OneDrive/Desktop/GD32VW553/V1_MQTT_OK/GD32VW55X_Wifi_BLE_SDK/GD32VW55x_RELEASE_V1.0.2/MSDK/wpa_supplicant/src/ap\ap_config.h **** 		char **icons;
 635:C:/Users/stapi/OneDrive/Desktop/GD32VW553/V1_MQTT_OK/GD32VW55X_Wifi_BLE_SDK/GD32VW55x_RELEASE_V1.0.2/MSDK/wpa_supplicant/src/ap\ap_config.h **** 		size_t icons_count;
 636:C:/Users/stapi/OneDrive/Desktop/GD32VW553/V1_MQTT_OK/GD32VW55X_Wifi_BLE_SDK/GD32VW55x_RELEASE_V1.0.2/MSDK/wpa_supplicant/src/ap\ap_config.h **** 		char *osu_nai;
 637:C:/Users/stapi/OneDrive/Desktop/GD32VW553/V1_MQTT_OK/GD32VW55X_Wifi_BLE_SDK/GD32VW55x_RELEASE_V1.0.2/MSDK/wpa_supplicant/src/ap\ap_config.h **** 		char *osu_nai2;
 638:C:/Users/stapi/OneDrive/Desktop/GD32VW553/V1_MQTT_OK/GD32VW55X_Wifi_BLE_SDK/GD32VW55x_RELEASE_V1.0.2/MSDK/wpa_supplicant/src/ap\ap_config.h **** 		unsigned int service_desc_count;
 639:C:/Users/stapi/OneDrive/Desktop/GD32VW553/V1_MQTT_OK/GD32VW55X_Wifi_BLE_SDK/GD32VW55x_RELEASE_V1.0.2/MSDK/wpa_supplicant/src/ap\ap_config.h **** 		struct hostapd_lang_string *service_desc;
 640:C:/Users/stapi/OneDrive/Desktop/GD32VW553/V1_MQTT_OK/GD32VW55X_Wifi_BLE_SDK/GD32VW55x_RELEASE_V1.0.2/MSDK/wpa_supplicant/src/ap\ap_config.h **** 	} *hs20_osu_providers, *last_osu;
 641:C:/Users/stapi/OneDrive/Desktop/GD32VW553/V1_MQTT_OK/GD32VW55X_Wifi_BLE_SDK/GD32VW55x_RELEASE_V1.0.2/MSDK/wpa_supplicant/src/ap\ap_config.h **** 	size_t hs20_osu_providers_count;
 642:C:/Users/stapi/OneDrive/Desktop/GD32VW553/V1_MQTT_OK/GD32VW55X_Wifi_BLE_SDK/GD32VW55x_RELEASE_V1.0.2/MSDK/wpa_supplicant/src/ap\ap_config.h **** 	size_t hs20_osu_providers_nai_count;
 643:C:/Users/stapi/OneDrive/Desktop/GD32VW553/V1_MQTT_OK/GD32VW55X_Wifi_BLE_SDK/GD32VW55x_RELEASE_V1.0.2/MSDK/wpa_supplicant/src/ap\ap_config.h **** 	char **hs20_operator_icon;
 644:C:/Users/stapi/OneDrive/Desktop/GD32VW553/V1_MQTT_OK/GD32VW55X_Wifi_BLE_SDK/GD32VW55x_RELEASE_V1.0.2/MSDK/wpa_supplicant/src/ap\ap_config.h **** 	size_t hs20_operator_icon_count;
 645:C:/Users/stapi/OneDrive/Desktop/GD32VW553/V1_MQTT_OK/GD32VW55X_Wifi_BLE_SDK/GD32VW55x_RELEASE_V1.0.2/MSDK/wpa_supplicant/src/ap\ap_config.h **** 	unsigned int hs20_deauth_req_timeout;
 646:C:/Users/stapi/OneDrive/Desktop/GD32VW553/V1_MQTT_OK/GD32VW55X_Wifi_BLE_SDK/GD32VW55x_RELEASE_V1.0.2/MSDK/wpa_supplicant/src/ap\ap_config.h **** 	char *subscr_remediation_url;
 647:C:/Users/stapi/OneDrive/Desktop/GD32VW553/V1_MQTT_OK/GD32VW55X_Wifi_BLE_SDK/GD32VW55x_RELEASE_V1.0.2/MSDK/wpa_supplicant/src/ap\ap_config.h **** 	u8 subscr_remediation_method;
 648:C:/Users/stapi/OneDrive/Desktop/GD32VW553/V1_MQTT_OK/GD32VW55X_Wifi_BLE_SDK/GD32VW55x_RELEASE_V1.0.2/MSDK/wpa_supplicant/src/ap\ap_config.h **** 	char *hs20_sim_provisioning_url;
 649:C:/Users/stapi/OneDrive/Desktop/GD32VW553/V1_MQTT_OK/GD32VW55X_Wifi_BLE_SDK/GD32VW55x_RELEASE_V1.0.2/MSDK/wpa_supplicant/src/ap\ap_config.h **** 	char *t_c_filename;
 650:C:/Users/stapi/OneDrive/Desktop/GD32VW553/V1_MQTT_OK/GD32VW55X_Wifi_BLE_SDK/GD32VW55x_RELEASE_V1.0.2/MSDK/wpa_supplicant/src/ap\ap_config.h **** 	u32 t_c_timestamp;
 651:C:/Users/stapi/OneDrive/Desktop/GD32VW553/V1_MQTT_OK/GD32VW55X_Wifi_BLE_SDK/GD32VW55x_RELEASE_V1.0.2/MSDK/wpa_supplicant/src/ap\ap_config.h **** 	char *t_c_server_url;
 652:C:/Users/stapi/OneDrive/Desktop/GD32VW553/V1_MQTT_OK/GD32VW55X_Wifi_BLE_SDK/GD32VW55x_RELEASE_V1.0.2/MSDK/wpa_supplicant/src/ap\ap_config.h **** #endif /* CONFIG_HS20 */
 653:C:/Users/stapi/OneDrive/Desktop/GD32VW553/V1_MQTT_OK/GD32VW55X_Wifi_BLE_SDK/GD32VW55x_RELEASE_V1.0.2/MSDK/wpa_supplicant/src/ap\ap_config.h **** 
 654:C:/Users/stapi/OneDrive/Desktop/GD32VW553/V1_MQTT_OK/GD32VW55X_Wifi_BLE_SDK/GD32VW55x_RELEASE_V1.0.2/MSDK/wpa_supplicant/src/ap\ap_config.h **** 	u8 wps_rf_bands; /* RF bands for WPS (WPS_RF_*) */
 655:C:/Users/stapi/OneDrive/Desktop/GD32VW553/V1_MQTT_OK/GD32VW55X_Wifi_BLE_SDK/GD32VW55x_RELEASE_V1.0.2/MSDK/wpa_supplicant/src/ap\ap_config.h **** 
 656:C:/Users/stapi/OneDrive/Desktop/GD32VW553/V1_MQTT_OK/GD32VW55X_Wifi_BLE_SDK/GD32VW55x_RELEASE_V1.0.2/MSDK/wpa_supplicant/src/ap\ap_config.h **** #ifdef CONFIG_RADIUS_TEST
 657:C:/Users/stapi/OneDrive/Desktop/GD32VW553/V1_MQTT_OK/GD32VW55X_Wifi_BLE_SDK/GD32VW55x_RELEASE_V1.0.2/MSDK/wpa_supplicant/src/ap\ap_config.h **** 	char *dump_msk_file;
 658:C:/Users/stapi/OneDrive/Desktop/GD32VW553/V1_MQTT_OK/GD32VW55X_Wifi_BLE_SDK/GD32VW55x_RELEASE_V1.0.2/MSDK/wpa_supplicant/src/ap\ap_config.h **** #endif /* CONFIG_RADIUS_TEST */
 659:C:/Users/stapi/OneDrive/Desktop/GD32VW553/V1_MQTT_OK/GD32VW55X_Wifi_BLE_SDK/GD32VW55x_RELEASE_V1.0.2/MSDK/wpa_supplicant/src/ap\ap_config.h **** 
 660:C:/Users/stapi/OneDrive/Desktop/GD32VW553/V1_MQTT_OK/GD32VW55X_Wifi_BLE_SDK/GD32VW55x_RELEASE_V1.0.2/MSDK/wpa_supplicant/src/ap\ap_config.h **** 	struct wpabuf *vendor_elements;
 661:C:/Users/stapi/OneDrive/Desktop/GD32VW553/V1_MQTT_OK/GD32VW55X_Wifi_BLE_SDK/GD32VW55x_RELEASE_V1.0.2/MSDK/wpa_supplicant/src/ap\ap_config.h **** 	struct wpabuf *assocresp_elements;
 662:C:/Users/stapi/OneDrive/Desktop/GD32VW553/V1_MQTT_OK/GD32VW55X_Wifi_BLE_SDK/GD32VW55x_RELEASE_V1.0.2/MSDK/wpa_supplicant/src/ap\ap_config.h **** 
 663:C:/Users/stapi/OneDrive/Desktop/GD32VW553/V1_MQTT_OK/GD32VW55X_Wifi_BLE_SDK/GD32VW55x_RELEASE_V1.0.2/MSDK/wpa_supplicant/src/ap\ap_config.h **** 	unsigned int anti_clogging_threshold;
 664:C:/Users/stapi/OneDrive/Desktop/GD32VW553/V1_MQTT_OK/GD32VW55X_Wifi_BLE_SDK/GD32VW55x_RELEASE_V1.0.2/MSDK/wpa_supplicant/src/ap\ap_config.h **** 	unsigned int sae_sync;
 665:C:/Users/stapi/OneDrive/Desktop/GD32VW553/V1_MQTT_OK/GD32VW55X_Wifi_BLE_SDK/GD32VW55x_RELEASE_V1.0.2/MSDK/wpa_supplicant/src/ap\ap_config.h **** 	int sae_require_mfp;
 666:C:/Users/stapi/OneDrive/Desktop/GD32VW553/V1_MQTT_OK/GD32VW55X_Wifi_BLE_SDK/GD32VW55x_RELEASE_V1.0.2/MSDK/wpa_supplicant/src/ap\ap_config.h **** 	int sae_confirm_immediate;
 667:C:/Users/stapi/OneDrive/Desktop/GD32VW553/V1_MQTT_OK/GD32VW55X_Wifi_BLE_SDK/GD32VW55x_RELEASE_V1.0.2/MSDK/wpa_supplicant/src/ap\ap_config.h **** 	int sae_pwe;
 668:C:/Users/stapi/OneDrive/Desktop/GD32VW553/V1_MQTT_OK/GD32VW55X_Wifi_BLE_SDK/GD32VW55x_RELEASE_V1.0.2/MSDK/wpa_supplicant/src/ap\ap_config.h **** 	int *sae_groups;
 669:C:/Users/stapi/OneDrive/Desktop/GD32VW553/V1_MQTT_OK/GD32VW55X_Wifi_BLE_SDK/GD32VW55x_RELEASE_V1.0.2/MSDK/wpa_supplicant/src/ap\ap_config.h **** 	struct sae_password_entry *sae_passwords;
 670:C:/Users/stapi/OneDrive/Desktop/GD32VW553/V1_MQTT_OK/GD32VW55X_Wifi_BLE_SDK/GD32VW55x_RELEASE_V1.0.2/MSDK/wpa_supplicant/src/ap\ap_config.h **** 
 671:C:/Users/stapi/OneDrive/Desktop/GD32VW553/V1_MQTT_OK/GD32VW55X_Wifi_BLE_SDK/GD32VW55x_RELEASE_V1.0.2/MSDK/wpa_supplicant/src/ap\ap_config.h **** 	char *wowlan_triggers; /* Wake-on-WLAN triggers */
 672:C:/Users/stapi/OneDrive/Desktop/GD32VW553/V1_MQTT_OK/GD32VW55X_Wifi_BLE_SDK/GD32VW55x_RELEASE_V1.0.2/MSDK/wpa_supplicant/src/ap\ap_config.h **** 
 673:C:/Users/stapi/OneDrive/Desktop/GD32VW553/V1_MQTT_OK/GD32VW55X_Wifi_BLE_SDK/GD32VW55x_RELEASE_V1.0.2/MSDK/wpa_supplicant/src/ap\ap_config.h **** #ifdef CONFIG_TESTING_OPTIONS
 674:C:/Users/stapi/OneDrive/Desktop/GD32VW553/V1_MQTT_OK/GD32VW55X_Wifi_BLE_SDK/GD32VW55x_RELEASE_V1.0.2/MSDK/wpa_supplicant/src/ap\ap_config.h **** 	u8 bss_load_test[5];
 675:C:/Users/stapi/OneDrive/Desktop/GD32VW553/V1_MQTT_OK/GD32VW55X_Wifi_BLE_SDK/GD32VW55x_RELEASE_V1.0.2/MSDK/wpa_supplicant/src/ap\ap_config.h **** 	u8 bss_load_test_set;
 676:C:/Users/stapi/OneDrive/Desktop/GD32VW553/V1_MQTT_OK/GD32VW55X_Wifi_BLE_SDK/GD32VW55x_RELEASE_V1.0.2/MSDK/wpa_supplicant/src/ap\ap_config.h **** 	struct wpabuf *own_ie_override;
 677:C:/Users/stapi/OneDrive/Desktop/GD32VW553/V1_MQTT_OK/GD32VW55X_Wifi_BLE_SDK/GD32VW55x_RELEASE_V1.0.2/MSDK/wpa_supplicant/src/ap\ap_config.h **** 	int sae_reflection_attack;
 678:C:/Users/stapi/OneDrive/Desktop/GD32VW553/V1_MQTT_OK/GD32VW55X_Wifi_BLE_SDK/GD32VW55x_RELEASE_V1.0.2/MSDK/wpa_supplicant/src/ap\ap_config.h **** 	int sae_commit_status;
 679:C:/Users/stapi/OneDrive/Desktop/GD32VW553/V1_MQTT_OK/GD32VW55X_Wifi_BLE_SDK/GD32VW55x_RELEASE_V1.0.2/MSDK/wpa_supplicant/src/ap\ap_config.h **** 	int sae_pk_omit;
 680:C:/Users/stapi/OneDrive/Desktop/GD32VW553/V1_MQTT_OK/GD32VW55X_Wifi_BLE_SDK/GD32VW55x_RELEASE_V1.0.2/MSDK/wpa_supplicant/src/ap\ap_config.h **** 	int sae_pk_password_check_skip;
 681:C:/Users/stapi/OneDrive/Desktop/GD32VW553/V1_MQTT_OK/GD32VW55X_Wifi_BLE_SDK/GD32VW55x_RELEASE_V1.0.2/MSDK/wpa_supplicant/src/ap\ap_config.h **** 	struct wpabuf *sae_commit_override;
 682:C:/Users/stapi/OneDrive/Desktop/GD32VW553/V1_MQTT_OK/GD32VW55X_Wifi_BLE_SDK/GD32VW55x_RELEASE_V1.0.2/MSDK/wpa_supplicant/src/ap\ap_config.h **** 	struct wpabuf *rsne_override_eapol;
 683:C:/Users/stapi/OneDrive/Desktop/GD32VW553/V1_MQTT_OK/GD32VW55X_Wifi_BLE_SDK/GD32VW55x_RELEASE_V1.0.2/MSDK/wpa_supplicant/src/ap\ap_config.h **** 	struct wpabuf *rsnxe_override_eapol;
 684:C:/Users/stapi/OneDrive/Desktop/GD32VW553/V1_MQTT_OK/GD32VW55X_Wifi_BLE_SDK/GD32VW55x_RELEASE_V1.0.2/MSDK/wpa_supplicant/src/ap\ap_config.h **** 	struct wpabuf *rsne_override_ft;
 685:C:/Users/stapi/OneDrive/Desktop/GD32VW553/V1_MQTT_OK/GD32VW55X_Wifi_BLE_SDK/GD32VW55x_RELEASE_V1.0.2/MSDK/wpa_supplicant/src/ap\ap_config.h **** 	struct wpabuf *rsnxe_override_ft;
 686:C:/Users/stapi/OneDrive/Desktop/GD32VW553/V1_MQTT_OK/GD32VW55X_Wifi_BLE_SDK/GD32VW55x_RELEASE_V1.0.2/MSDK/wpa_supplicant/src/ap\ap_config.h **** 	struct wpabuf *gtk_rsc_override;
 687:C:/Users/stapi/OneDrive/Desktop/GD32VW553/V1_MQTT_OK/GD32VW55X_Wifi_BLE_SDK/GD32VW55x_RELEASE_V1.0.2/MSDK/wpa_supplicant/src/ap\ap_config.h **** 	struct wpabuf *igtk_rsc_override;
 688:C:/Users/stapi/OneDrive/Desktop/GD32VW553/V1_MQTT_OK/GD32VW55X_Wifi_BLE_SDK/GD32VW55x_RELEASE_V1.0.2/MSDK/wpa_supplicant/src/ap\ap_config.h **** 	int no_beacon_rsnxe;
 689:C:/Users/stapi/OneDrive/Desktop/GD32VW553/V1_MQTT_OK/GD32VW55X_Wifi_BLE_SDK/GD32VW55x_RELEASE_V1.0.2/MSDK/wpa_supplicant/src/ap\ap_config.h **** 	int skip_prune_assoc;
 690:C:/Users/stapi/OneDrive/Desktop/GD32VW553/V1_MQTT_OK/GD32VW55X_Wifi_BLE_SDK/GD32VW55x_RELEASE_V1.0.2/MSDK/wpa_supplicant/src/ap\ap_config.h **** 	int ft_rsnxe_used;
 691:C:/Users/stapi/OneDrive/Desktop/GD32VW553/V1_MQTT_OK/GD32VW55X_Wifi_BLE_SDK/GD32VW55x_RELEASE_V1.0.2/MSDK/wpa_supplicant/src/ap\ap_config.h **** 	unsigned int oci_freq_override_eapol_m3;
 692:C:/Users/stapi/OneDrive/Desktop/GD32VW553/V1_MQTT_OK/GD32VW55X_Wifi_BLE_SDK/GD32VW55x_RELEASE_V1.0.2/MSDK/wpa_supplicant/src/ap\ap_config.h **** 	unsigned int oci_freq_override_eapol_g1;
 693:C:/Users/stapi/OneDrive/Desktop/GD32VW553/V1_MQTT_OK/GD32VW55X_Wifi_BLE_SDK/GD32VW55x_RELEASE_V1.0.2/MSDK/wpa_supplicant/src/ap\ap_config.h **** 	unsigned int oci_freq_override_saquery_req;
 694:C:/Users/stapi/OneDrive/Desktop/GD32VW553/V1_MQTT_OK/GD32VW55X_Wifi_BLE_SDK/GD32VW55x_RELEASE_V1.0.2/MSDK/wpa_supplicant/src/ap\ap_config.h **** 	unsigned int oci_freq_override_saquery_resp;
 695:C:/Users/stapi/OneDrive/Desktop/GD32VW553/V1_MQTT_OK/GD32VW55X_Wifi_BLE_SDK/GD32VW55x_RELEASE_V1.0.2/MSDK/wpa_supplicant/src/ap\ap_config.h **** 	unsigned int oci_freq_override_ft_assoc;
 696:C:/Users/stapi/OneDrive/Desktop/GD32VW553/V1_MQTT_OK/GD32VW55X_Wifi_BLE_SDK/GD32VW55x_RELEASE_V1.0.2/MSDK/wpa_supplicant/src/ap\ap_config.h **** 	unsigned int oci_freq_override_fils_assoc;
 697:C:/Users/stapi/OneDrive/Desktop/GD32VW553/V1_MQTT_OK/GD32VW55X_Wifi_BLE_SDK/GD32VW55x_RELEASE_V1.0.2/MSDK/wpa_supplicant/src/ap\ap_config.h **** 	unsigned int oci_freq_override_wnm_sleep;
 698:C:/Users/stapi/OneDrive/Desktop/GD32VW553/V1_MQTT_OK/GD32VW55X_Wifi_BLE_SDK/GD32VW55x_RELEASE_V1.0.2/MSDK/wpa_supplicant/src/ap\ap_config.h **** #endif /* CONFIG_TESTING_OPTIONS */
 699:C:/Users/stapi/OneDrive/Desktop/GD32VW553/V1_MQTT_OK/GD32VW55X_Wifi_BLE_SDK/GD32VW55x_RELEASE_V1.0.2/MSDK/wpa_supplicant/src/ap\ap_config.h **** 
 700:C:/Users/stapi/OneDrive/Desktop/GD32VW553/V1_MQTT_OK/GD32VW55X_Wifi_BLE_SDK/GD32VW55x_RELEASE_V1.0.2/MSDK/wpa_supplicant/src/ap\ap_config.h **** #define MESH_ENABLED BIT(0)
 701:C:/Users/stapi/OneDrive/Desktop/GD32VW553/V1_MQTT_OK/GD32VW55X_Wifi_BLE_SDK/GD32VW55x_RELEASE_V1.0.2/MSDK/wpa_supplicant/src/ap\ap_config.h **** 	int mesh;
 702:C:/Users/stapi/OneDrive/Desktop/GD32VW553/V1_MQTT_OK/GD32VW55X_Wifi_BLE_SDK/GD32VW55x_RELEASE_V1.0.2/MSDK/wpa_supplicant/src/ap\ap_config.h **** 	int mesh_fwding;
 703:C:/Users/stapi/OneDrive/Desktop/GD32VW553/V1_MQTT_OK/GD32VW55X_Wifi_BLE_SDK/GD32VW55x_RELEASE_V1.0.2/MSDK/wpa_supplicant/src/ap\ap_config.h **** 
 704:C:/Users/stapi/OneDrive/Desktop/GD32VW553/V1_MQTT_OK/GD32VW55X_Wifi_BLE_SDK/GD32VW55x_RELEASE_V1.0.2/MSDK/wpa_supplicant/src/ap\ap_config.h **** 	u8 radio_measurements[RRM_CAPABILITIES_IE_LEN];
 705:C:/Users/stapi/OneDrive/Desktop/GD32VW553/V1_MQTT_OK/GD32VW55X_Wifi_BLE_SDK/GD32VW55x_RELEASE_V1.0.2/MSDK/wpa_supplicant/src/ap\ap_config.h **** 
 706:C:/Users/stapi/OneDrive/Desktop/GD32VW553/V1_MQTT_OK/GD32VW55X_Wifi_BLE_SDK/GD32VW55x_RELEASE_V1.0.2/MSDK/wpa_supplicant/src/ap\ap_config.h **** 	int vendor_vht;
 707:C:/Users/stapi/OneDrive/Desktop/GD32VW553/V1_MQTT_OK/GD32VW55X_Wifi_BLE_SDK/GD32VW55x_RELEASE_V1.0.2/MSDK/wpa_supplicant/src/ap\ap_config.h **** 	int use_sta_nsts;
 708:C:/Users/stapi/OneDrive/Desktop/GD32VW553/V1_MQTT_OK/GD32VW55X_Wifi_BLE_SDK/GD32VW55x_RELEASE_V1.0.2/MSDK/wpa_supplicant/src/ap\ap_config.h **** 
 709:C:/Users/stapi/OneDrive/Desktop/GD32VW553/V1_MQTT_OK/GD32VW55X_Wifi_BLE_SDK/GD32VW55x_RELEASE_V1.0.2/MSDK/wpa_supplicant/src/ap\ap_config.h **** 	char *no_probe_resp_if_seen_on;
 710:C:/Users/stapi/OneDrive/Desktop/GD32VW553/V1_MQTT_OK/GD32VW55X_Wifi_BLE_SDK/GD32VW55x_RELEASE_V1.0.2/MSDK/wpa_supplicant/src/ap\ap_config.h **** 	char *no_auth_if_seen_on;
 711:C:/Users/stapi/OneDrive/Desktop/GD32VW553/V1_MQTT_OK/GD32VW55X_Wifi_BLE_SDK/GD32VW55x_RELEASE_V1.0.2/MSDK/wpa_supplicant/src/ap\ap_config.h **** 
 712:C:/Users/stapi/OneDrive/Desktop/GD32VW553/V1_MQTT_OK/GD32VW55X_Wifi_BLE_SDK/GD32VW55x_RELEASE_V1.0.2/MSDK/wpa_supplicant/src/ap\ap_config.h **** 	int pbss;
 713:C:/Users/stapi/OneDrive/Desktop/GD32VW553/V1_MQTT_OK/GD32VW55X_Wifi_BLE_SDK/GD32VW55x_RELEASE_V1.0.2/MSDK/wpa_supplicant/src/ap\ap_config.h **** 
 714:C:/Users/stapi/OneDrive/Desktop/GD32VW553/V1_MQTT_OK/GD32VW55X_Wifi_BLE_SDK/GD32VW55x_RELEASE_V1.0.2/MSDK/wpa_supplicant/src/ap\ap_config.h **** #ifdef CONFIG_MBO
 715:C:/Users/stapi/OneDrive/Desktop/GD32VW553/V1_MQTT_OK/GD32VW55X_Wifi_BLE_SDK/GD32VW55x_RELEASE_V1.0.2/MSDK/wpa_supplicant/src/ap\ap_config.h **** 	int mbo_enabled;
 716:C:/Users/stapi/OneDrive/Desktop/GD32VW553/V1_MQTT_OK/GD32VW55X_Wifi_BLE_SDK/GD32VW55x_RELEASE_V1.0.2/MSDK/wpa_supplicant/src/ap\ap_config.h **** 	/**
 717:C:/Users/stapi/OneDrive/Desktop/GD32VW553/V1_MQTT_OK/GD32VW55X_Wifi_BLE_SDK/GD32VW55x_RELEASE_V1.0.2/MSDK/wpa_supplicant/src/ap\ap_config.h **** 	 * oce - Enable OCE in AP and/or STA-CFON mode
 718:C:/Users/stapi/OneDrive/Desktop/GD32VW553/V1_MQTT_OK/GD32VW55X_Wifi_BLE_SDK/GD32VW55x_RELEASE_V1.0.2/MSDK/wpa_supplicant/src/ap\ap_config.h **** 	 *  - BIT(0) is Reserved
 719:C:/Users/stapi/OneDrive/Desktop/GD32VW553/V1_MQTT_OK/GD32VW55X_Wifi_BLE_SDK/GD32VW55x_RELEASE_V1.0.2/MSDK/wpa_supplicant/src/ap\ap_config.h **** 	 *  - Set BIT(1) to enable OCE in STA-CFON mode
 720:C:/Users/stapi/OneDrive/Desktop/GD32VW553/V1_MQTT_OK/GD32VW55X_Wifi_BLE_SDK/GD32VW55x_RELEASE_V1.0.2/MSDK/wpa_supplicant/src/ap\ap_config.h **** 	 *  - Set BIT(2) to enable OCE in AP mode
 721:C:/Users/stapi/OneDrive/Desktop/GD32VW553/V1_MQTT_OK/GD32VW55X_Wifi_BLE_SDK/GD32VW55x_RELEASE_V1.0.2/MSDK/wpa_supplicant/src/ap\ap_config.h **** 	 */
 722:C:/Users/stapi/OneDrive/Desktop/GD32VW553/V1_MQTT_OK/GD32VW55X_Wifi_BLE_SDK/GD32VW55x_RELEASE_V1.0.2/MSDK/wpa_supplicant/src/ap\ap_config.h **** 	unsigned int oce;
 723:C:/Users/stapi/OneDrive/Desktop/GD32VW553/V1_MQTT_OK/GD32VW55X_Wifi_BLE_SDK/GD32VW55x_RELEASE_V1.0.2/MSDK/wpa_supplicant/src/ap\ap_config.h **** 	int mbo_cell_data_conn_pref;
 724:C:/Users/stapi/OneDrive/Desktop/GD32VW553/V1_MQTT_OK/GD32VW55X_Wifi_BLE_SDK/GD32VW55x_RELEASE_V1.0.2/MSDK/wpa_supplicant/src/ap\ap_config.h **** #endif /* CONFIG_MBO */
 725:C:/Users/stapi/OneDrive/Desktop/GD32VW553/V1_MQTT_OK/GD32VW55X_Wifi_BLE_SDK/GD32VW55x_RELEASE_V1.0.2/MSDK/wpa_supplicant/src/ap\ap_config.h **** 
 726:C:/Users/stapi/OneDrive/Desktop/GD32VW553/V1_MQTT_OK/GD32VW55X_Wifi_BLE_SDK/GD32VW55x_RELEASE_V1.0.2/MSDK/wpa_supplicant/src/ap\ap_config.h **** 	int ftm_responder;
 727:C:/Users/stapi/OneDrive/Desktop/GD32VW553/V1_MQTT_OK/GD32VW55X_Wifi_BLE_SDK/GD32VW55x_RELEASE_V1.0.2/MSDK/wpa_supplicant/src/ap\ap_config.h **** 	int ftm_initiator;
 728:C:/Users/stapi/OneDrive/Desktop/GD32VW553/V1_MQTT_OK/GD32VW55X_Wifi_BLE_SDK/GD32VW55x_RELEASE_V1.0.2/MSDK/wpa_supplicant/src/ap\ap_config.h **** 
 729:C:/Users/stapi/OneDrive/Desktop/GD32VW553/V1_MQTT_OK/GD32VW55X_Wifi_BLE_SDK/GD32VW55x_RELEASE_V1.0.2/MSDK/wpa_supplicant/src/ap\ap_config.h **** #ifdef CONFIG_FILS
 730:C:/Users/stapi/OneDrive/Desktop/GD32VW553/V1_MQTT_OK/GD32VW55X_Wifi_BLE_SDK/GD32VW55x_RELEASE_V1.0.2/MSDK/wpa_supplicant/src/ap\ap_config.h **** 	u8 fils_cache_id[FILS_CACHE_ID_LEN];
 731:C:/Users/stapi/OneDrive/Desktop/GD32VW553/V1_MQTT_OK/GD32VW55X_Wifi_BLE_SDK/GD32VW55x_RELEASE_V1.0.2/MSDK/wpa_supplicant/src/ap\ap_config.h **** 	int fils_cache_id_set;
 732:C:/Users/stapi/OneDrive/Desktop/GD32VW553/V1_MQTT_OK/GD32VW55X_Wifi_BLE_SDK/GD32VW55x_RELEASE_V1.0.2/MSDK/wpa_supplicant/src/ap\ap_config.h **** 	struct dl_list fils_realms; /* list of struct fils_realm */
 733:C:/Users/stapi/OneDrive/Desktop/GD32VW553/V1_MQTT_OK/GD32VW55X_Wifi_BLE_SDK/GD32VW55x_RELEASE_V1.0.2/MSDK/wpa_supplicant/src/ap\ap_config.h **** 	int fils_dh_group;
 734:C:/Users/stapi/OneDrive/Desktop/GD32VW553/V1_MQTT_OK/GD32VW55X_Wifi_BLE_SDK/GD32VW55x_RELEASE_V1.0.2/MSDK/wpa_supplicant/src/ap\ap_config.h **** 	struct hostapd_ip_addr dhcp_server;
 735:C:/Users/stapi/OneDrive/Desktop/GD32VW553/V1_MQTT_OK/GD32VW55X_Wifi_BLE_SDK/GD32VW55x_RELEASE_V1.0.2/MSDK/wpa_supplicant/src/ap\ap_config.h **** 	int dhcp_rapid_commit_proxy;
 736:C:/Users/stapi/OneDrive/Desktop/GD32VW553/V1_MQTT_OK/GD32VW55X_Wifi_BLE_SDK/GD32VW55x_RELEASE_V1.0.2/MSDK/wpa_supplicant/src/ap\ap_config.h **** 	unsigned int fils_hlp_wait_time;
 737:C:/Users/stapi/OneDrive/Desktop/GD32VW553/V1_MQTT_OK/GD32VW55X_Wifi_BLE_SDK/GD32VW55x_RELEASE_V1.0.2/MSDK/wpa_supplicant/src/ap\ap_config.h **** 	u16 dhcp_server_port;
 738:C:/Users/stapi/OneDrive/Desktop/GD32VW553/V1_MQTT_OK/GD32VW55X_Wifi_BLE_SDK/GD32VW55x_RELEASE_V1.0.2/MSDK/wpa_supplicant/src/ap\ap_config.h **** 	u16 dhcp_relay_port;
 739:C:/Users/stapi/OneDrive/Desktop/GD32VW553/V1_MQTT_OK/GD32VW55X_Wifi_BLE_SDK/GD32VW55x_RELEASE_V1.0.2/MSDK/wpa_supplicant/src/ap\ap_config.h **** 	u32 fils_discovery_min_int;
 740:C:/Users/stapi/OneDrive/Desktop/GD32VW553/V1_MQTT_OK/GD32VW55X_Wifi_BLE_SDK/GD32VW55x_RELEASE_V1.0.2/MSDK/wpa_supplicant/src/ap\ap_config.h **** 	u32 fils_discovery_max_int;
 741:C:/Users/stapi/OneDrive/Desktop/GD32VW553/V1_MQTT_OK/GD32VW55X_Wifi_BLE_SDK/GD32VW55x_RELEASE_V1.0.2/MSDK/wpa_supplicant/src/ap\ap_config.h **** #endif /* CONFIG_FILS */
 742:C:/Users/stapi/OneDrive/Desktop/GD32VW553/V1_MQTT_OK/GD32VW55X_Wifi_BLE_SDK/GD32VW55x_RELEASE_V1.0.2/MSDK/wpa_supplicant/src/ap\ap_config.h **** 
 743:C:/Users/stapi/OneDrive/Desktop/GD32VW553/V1_MQTT_OK/GD32VW55X_Wifi_BLE_SDK/GD32VW55x_RELEASE_V1.0.2/MSDK/wpa_supplicant/src/ap\ap_config.h **** 	int multicast_to_unicast;
 744:C:/Users/stapi/OneDrive/Desktop/GD32VW553/V1_MQTT_OK/GD32VW55X_Wifi_BLE_SDK/GD32VW55x_RELEASE_V1.0.2/MSDK/wpa_supplicant/src/ap\ap_config.h **** 
 745:C:/Users/stapi/OneDrive/Desktop/GD32VW553/V1_MQTT_OK/GD32VW55X_Wifi_BLE_SDK/GD32VW55x_RELEASE_V1.0.2/MSDK/wpa_supplicant/src/ap\ap_config.h **** 	int broadcast_deauth;
 746:C:/Users/stapi/OneDrive/Desktop/GD32VW553/V1_MQTT_OK/GD32VW55X_Wifi_BLE_SDK/GD32VW55x_RELEASE_V1.0.2/MSDK/wpa_supplicant/src/ap\ap_config.h **** 
 747:C:/Users/stapi/OneDrive/Desktop/GD32VW553/V1_MQTT_OK/GD32VW55X_Wifi_BLE_SDK/GD32VW55x_RELEASE_V1.0.2/MSDK/wpa_supplicant/src/ap\ap_config.h **** 	int notify_mgmt_frames;
 748:C:/Users/stapi/OneDrive/Desktop/GD32VW553/V1_MQTT_OK/GD32VW55X_Wifi_BLE_SDK/GD32VW55x_RELEASE_V1.0.2/MSDK/wpa_supplicant/src/ap\ap_config.h **** 
 749:C:/Users/stapi/OneDrive/Desktop/GD32VW553/V1_MQTT_OK/GD32VW55X_Wifi_BLE_SDK/GD32VW55x_RELEASE_V1.0.2/MSDK/wpa_supplicant/src/ap\ap_config.h **** #ifdef CONFIG_DPP
 750:C:/Users/stapi/OneDrive/Desktop/GD32VW553/V1_MQTT_OK/GD32VW55X_Wifi_BLE_SDK/GD32VW55x_RELEASE_V1.0.2/MSDK/wpa_supplicant/src/ap\ap_config.h **** 	char *dpp_name;
 751:C:/Users/stapi/OneDrive/Desktop/GD32VW553/V1_MQTT_OK/GD32VW55X_Wifi_BLE_SDK/GD32VW55x_RELEASE_V1.0.2/MSDK/wpa_supplicant/src/ap\ap_config.h **** 	char *dpp_mud_url;
 752:C:/Users/stapi/OneDrive/Desktop/GD32VW553/V1_MQTT_OK/GD32VW55X_Wifi_BLE_SDK/GD32VW55x_RELEASE_V1.0.2/MSDK/wpa_supplicant/src/ap\ap_config.h **** 	char *dpp_connector;
 753:C:/Users/stapi/OneDrive/Desktop/GD32VW553/V1_MQTT_OK/GD32VW55X_Wifi_BLE_SDK/GD32VW55x_RELEASE_V1.0.2/MSDK/wpa_supplicant/src/ap\ap_config.h **** 	struct wpabuf *dpp_netaccesskey;
 754:C:/Users/stapi/OneDrive/Desktop/GD32VW553/V1_MQTT_OK/GD32VW55X_Wifi_BLE_SDK/GD32VW55x_RELEASE_V1.0.2/MSDK/wpa_supplicant/src/ap\ap_config.h **** 	unsigned int dpp_netaccesskey_expiry;
 755:C:/Users/stapi/OneDrive/Desktop/GD32VW553/V1_MQTT_OK/GD32VW55X_Wifi_BLE_SDK/GD32VW55x_RELEASE_V1.0.2/MSDK/wpa_supplicant/src/ap\ap_config.h **** 	struct wpabuf *dpp_csign;
 756:C:/Users/stapi/OneDrive/Desktop/GD32VW553/V1_MQTT_OK/GD32VW55X_Wifi_BLE_SDK/GD32VW55x_RELEASE_V1.0.2/MSDK/wpa_supplicant/src/ap\ap_config.h **** #ifdef CONFIG_DPP2
 757:C:/Users/stapi/OneDrive/Desktop/GD32VW553/V1_MQTT_OK/GD32VW55X_Wifi_BLE_SDK/GD32VW55x_RELEASE_V1.0.2/MSDK/wpa_supplicant/src/ap\ap_config.h **** 	struct dpp_controller_conf *dpp_controller;
 758:C:/Users/stapi/OneDrive/Desktop/GD32VW553/V1_MQTT_OK/GD32VW55X_Wifi_BLE_SDK/GD32VW55x_RELEASE_V1.0.2/MSDK/wpa_supplicant/src/ap\ap_config.h **** 	int dpp_configurator_connectivity;
 759:C:/Users/stapi/OneDrive/Desktop/GD32VW553/V1_MQTT_OK/GD32VW55X_Wifi_BLE_SDK/GD32VW55x_RELEASE_V1.0.2/MSDK/wpa_supplicant/src/ap\ap_config.h **** 	int dpp_pfs;
 760:C:/Users/stapi/OneDrive/Desktop/GD32VW553/V1_MQTT_OK/GD32VW55X_Wifi_BLE_SDK/GD32VW55x_RELEASE_V1.0.2/MSDK/wpa_supplicant/src/ap\ap_config.h **** #endif /* CONFIG_DPP2 */
 761:C:/Users/stapi/OneDrive/Desktop/GD32VW553/V1_MQTT_OK/GD32VW55X_Wifi_BLE_SDK/GD32VW55x_RELEASE_V1.0.2/MSDK/wpa_supplicant/src/ap\ap_config.h **** #endif /* CONFIG_DPP */
 762:C:/Users/stapi/OneDrive/Desktop/GD32VW553/V1_MQTT_OK/GD32VW55X_Wifi_BLE_SDK/GD32VW55x_RELEASE_V1.0.2/MSDK/wpa_supplicant/src/ap\ap_config.h **** 
 763:C:/Users/stapi/OneDrive/Desktop/GD32VW553/V1_MQTT_OK/GD32VW55X_Wifi_BLE_SDK/GD32VW55x_RELEASE_V1.0.2/MSDK/wpa_supplicant/src/ap\ap_config.h **** #ifdef CONFIG_OWE
 764:C:/Users/stapi/OneDrive/Desktop/GD32VW553/V1_MQTT_OK/GD32VW55X_Wifi_BLE_SDK/GD32VW55x_RELEASE_V1.0.2/MSDK/wpa_supplicant/src/ap\ap_config.h **** 	macaddr owe_transition_bssid;
 765:C:/Users/stapi/OneDrive/Desktop/GD32VW553/V1_MQTT_OK/GD32VW55X_Wifi_BLE_SDK/GD32VW55x_RELEASE_V1.0.2/MSDK/wpa_supplicant/src/ap\ap_config.h **** 	u8 owe_transition_ssid[SSID_MAX_LEN];
 766:C:/Users/stapi/OneDrive/Desktop/GD32VW553/V1_MQTT_OK/GD32VW55X_Wifi_BLE_SDK/GD32VW55x_RELEASE_V1.0.2/MSDK/wpa_supplicant/src/ap\ap_config.h **** 	size_t owe_transition_ssid_len;
 767:C:/Users/stapi/OneDrive/Desktop/GD32VW553/V1_MQTT_OK/GD32VW55X_Wifi_BLE_SDK/GD32VW55x_RELEASE_V1.0.2/MSDK/wpa_supplicant/src/ap\ap_config.h **** 	char owe_transition_ifname[IFNAMSIZ + 1];
 768:C:/Users/stapi/OneDrive/Desktop/GD32VW553/V1_MQTT_OK/GD32VW55X_Wifi_BLE_SDK/GD32VW55x_RELEASE_V1.0.2/MSDK/wpa_supplicant/src/ap\ap_config.h **** 	int *owe_groups;
 769:C:/Users/stapi/OneDrive/Desktop/GD32VW553/V1_MQTT_OK/GD32VW55X_Wifi_BLE_SDK/GD32VW55x_RELEASE_V1.0.2/MSDK/wpa_supplicant/src/ap\ap_config.h **** 	int owe_ptk_workaround;
 770:C:/Users/stapi/OneDrive/Desktop/GD32VW553/V1_MQTT_OK/GD32VW55X_Wifi_BLE_SDK/GD32VW55x_RELEASE_V1.0.2/MSDK/wpa_supplicant/src/ap\ap_config.h **** #endif /* CONFIG_OWE */
 771:C:/Users/stapi/OneDrive/Desktop/GD32VW553/V1_MQTT_OK/GD32VW55X_Wifi_BLE_SDK/GD32VW55x_RELEASE_V1.0.2/MSDK/wpa_supplicant/src/ap\ap_config.h **** 
 772:C:/Users/stapi/OneDrive/Desktop/GD32VW553/V1_MQTT_OK/GD32VW55X_Wifi_BLE_SDK/GD32VW55x_RELEASE_V1.0.2/MSDK/wpa_supplicant/src/ap\ap_config.h **** 	int coloc_intf_reporting;
 773:C:/Users/stapi/OneDrive/Desktop/GD32VW553/V1_MQTT_OK/GD32VW55X_Wifi_BLE_SDK/GD32VW55x_RELEASE_V1.0.2/MSDK/wpa_supplicant/src/ap\ap_config.h **** 
 774:C:/Users/stapi/OneDrive/Desktop/GD32VW553/V1_MQTT_OK/GD32VW55X_Wifi_BLE_SDK/GD32VW55x_RELEASE_V1.0.2/MSDK/wpa_supplicant/src/ap\ap_config.h **** 	u8 send_probe_response;
 775:C:/Users/stapi/OneDrive/Desktop/GD32VW553/V1_MQTT_OK/GD32VW55X_Wifi_BLE_SDK/GD32VW55x_RELEASE_V1.0.2/MSDK/wpa_supplicant/src/ap\ap_config.h **** 
 776:C:/Users/stapi/OneDrive/Desktop/GD32VW553/V1_MQTT_OK/GD32VW55X_Wifi_BLE_SDK/GD32VW55x_RELEASE_V1.0.2/MSDK/wpa_supplicant/src/ap\ap_config.h **** 	u8 transition_disable;
 777:C:/Users/stapi/OneDrive/Desktop/GD32VW553/V1_MQTT_OK/GD32VW55X_Wifi_BLE_SDK/GD32VW55x_RELEASE_V1.0.2/MSDK/wpa_supplicant/src/ap\ap_config.h **** 
 778:C:/Users/stapi/OneDrive/Desktop/GD32VW553/V1_MQTT_OK/GD32VW55X_Wifi_BLE_SDK/GD32VW55x_RELEASE_V1.0.2/MSDK/wpa_supplicant/src/ap\ap_config.h **** #define BACKHAUL_BSS 1
 779:C:/Users/stapi/OneDrive/Desktop/GD32VW553/V1_MQTT_OK/GD32VW55X_Wifi_BLE_SDK/GD32VW55x_RELEASE_V1.0.2/MSDK/wpa_supplicant/src/ap\ap_config.h **** #define FRONTHAUL_BSS 2
 780:C:/Users/stapi/OneDrive/Desktop/GD32VW553/V1_MQTT_OK/GD32VW55X_Wifi_BLE_SDK/GD32VW55x_RELEASE_V1.0.2/MSDK/wpa_supplicant/src/ap\ap_config.h **** 	int multi_ap; /* bitmap of BACKHAUL_BSS, FRONTHAUL_BSS */
 781:C:/Users/stapi/OneDrive/Desktop/GD32VW553/V1_MQTT_OK/GD32VW55X_Wifi_BLE_SDK/GD32VW55x_RELEASE_V1.0.2/MSDK/wpa_supplicant/src/ap\ap_config.h **** 
 782:C:/Users/stapi/OneDrive/Desktop/GD32VW553/V1_MQTT_OK/GD32VW55X_Wifi_BLE_SDK/GD32VW55x_RELEASE_V1.0.2/MSDK/wpa_supplicant/src/ap\ap_config.h **** #ifdef CONFIG_AIRTIME_POLICY
 783:C:/Users/stapi/OneDrive/Desktop/GD32VW553/V1_MQTT_OK/GD32VW55X_Wifi_BLE_SDK/GD32VW55x_RELEASE_V1.0.2/MSDK/wpa_supplicant/src/ap\ap_config.h **** 	unsigned int airtime_weight;
 784:C:/Users/stapi/OneDrive/Desktop/GD32VW553/V1_MQTT_OK/GD32VW55X_Wifi_BLE_SDK/GD32VW55x_RELEASE_V1.0.2/MSDK/wpa_supplicant/src/ap\ap_config.h **** 	int airtime_limit;
 785:C:/Users/stapi/OneDrive/Desktop/GD32VW553/V1_MQTT_OK/GD32VW55X_Wifi_BLE_SDK/GD32VW55x_RELEASE_V1.0.2/MSDK/wpa_supplicant/src/ap\ap_config.h **** 	struct airtime_sta_weight *airtime_weight_list;
 786:C:/Users/stapi/OneDrive/Desktop/GD32VW553/V1_MQTT_OK/GD32VW55X_Wifi_BLE_SDK/GD32VW55x_RELEASE_V1.0.2/MSDK/wpa_supplicant/src/ap\ap_config.h **** #endif /* CONFIG_AIRTIME_POLICY */
 787:C:/Users/stapi/OneDrive/Desktop/GD32VW553/V1_MQTT_OK/GD32VW55X_Wifi_BLE_SDK/GD32VW55x_RELEASE_V1.0.2/MSDK/wpa_supplicant/src/ap\ap_config.h **** 
 788:C:/Users/stapi/OneDrive/Desktop/GD32VW553/V1_MQTT_OK/GD32VW55X_Wifi_BLE_SDK/GD32VW55x_RELEASE_V1.0.2/MSDK/wpa_supplicant/src/ap\ap_config.h **** #ifdef CONFIG_MACSEC
 789:C:/Users/stapi/OneDrive/Desktop/GD32VW553/V1_MQTT_OK/GD32VW55X_Wifi_BLE_SDK/GD32VW55x_RELEASE_V1.0.2/MSDK/wpa_supplicant/src/ap\ap_config.h **** 	/**
 790:C:/Users/stapi/OneDrive/Desktop/GD32VW553/V1_MQTT_OK/GD32VW55X_Wifi_BLE_SDK/GD32VW55x_RELEASE_V1.0.2/MSDK/wpa_supplicant/src/ap\ap_config.h **** 	 * macsec_policy - Determines the policy for MACsec secure session
 791:C:/Users/stapi/OneDrive/Desktop/GD32VW553/V1_MQTT_OK/GD32VW55X_Wifi_BLE_SDK/GD32VW55x_RELEASE_V1.0.2/MSDK/wpa_supplicant/src/ap\ap_config.h **** 	 *
 792:C:/Users/stapi/OneDrive/Desktop/GD32VW553/V1_MQTT_OK/GD32VW55X_Wifi_BLE_SDK/GD32VW55x_RELEASE_V1.0.2/MSDK/wpa_supplicant/src/ap\ap_config.h **** 	 * 0: MACsec not in use (default)
 793:C:/Users/stapi/OneDrive/Desktop/GD32VW553/V1_MQTT_OK/GD32VW55X_Wifi_BLE_SDK/GD32VW55x_RELEASE_V1.0.2/MSDK/wpa_supplicant/src/ap\ap_config.h **** 	 * 1: MACsec enabled - Should secure, accept key server's advice to
 794:C:/Users/stapi/OneDrive/Desktop/GD32VW553/V1_MQTT_OK/GD32VW55X_Wifi_BLE_SDK/GD32VW55x_RELEASE_V1.0.2/MSDK/wpa_supplicant/src/ap\ap_config.h **** 	 *    determine whether to use a secure session or not.
 795:C:/Users/stapi/OneDrive/Desktop/GD32VW553/V1_MQTT_OK/GD32VW55X_Wifi_BLE_SDK/GD32VW55x_RELEASE_V1.0.2/MSDK/wpa_supplicant/src/ap\ap_config.h **** 	 */
 796:C:/Users/stapi/OneDrive/Desktop/GD32VW553/V1_MQTT_OK/GD32VW55X_Wifi_BLE_SDK/GD32VW55x_RELEASE_V1.0.2/MSDK/wpa_supplicant/src/ap\ap_config.h **** 	int macsec_policy;
 797:C:/Users/stapi/OneDrive/Desktop/GD32VW553/V1_MQTT_OK/GD32VW55X_Wifi_BLE_SDK/GD32VW55x_RELEASE_V1.0.2/MSDK/wpa_supplicant/src/ap\ap_config.h **** 
 798:C:/Users/stapi/OneDrive/Desktop/GD32VW553/V1_MQTT_OK/GD32VW55X_Wifi_BLE_SDK/GD32VW55x_RELEASE_V1.0.2/MSDK/wpa_supplicant/src/ap\ap_config.h **** 	/**
 799:C:/Users/stapi/OneDrive/Desktop/GD32VW553/V1_MQTT_OK/GD32VW55X_Wifi_BLE_SDK/GD32VW55x_RELEASE_V1.0.2/MSDK/wpa_supplicant/src/ap\ap_config.h **** 	 * macsec_integ_only - Determines how MACsec are transmitted
 800:C:/Users/stapi/OneDrive/Desktop/GD32VW553/V1_MQTT_OK/GD32VW55X_Wifi_BLE_SDK/GD32VW55x_RELEASE_V1.0.2/MSDK/wpa_supplicant/src/ap\ap_config.h **** 	 *
 801:C:/Users/stapi/OneDrive/Desktop/GD32VW553/V1_MQTT_OK/GD32VW55X_Wifi_BLE_SDK/GD32VW55x_RELEASE_V1.0.2/MSDK/wpa_supplicant/src/ap\ap_config.h **** 	 * This setting applies only when MACsec is in use, i.e.,
 802:C:/Users/stapi/OneDrive/Desktop/GD32VW553/V1_MQTT_OK/GD32VW55X_Wifi_BLE_SDK/GD32VW55x_RELEASE_V1.0.2/MSDK/wpa_supplicant/src/ap\ap_config.h **** 	 *  - macsec_policy is enabled
 803:C:/Users/stapi/OneDrive/Desktop/GD32VW553/V1_MQTT_OK/GD32VW55X_Wifi_BLE_SDK/GD32VW55x_RELEASE_V1.0.2/MSDK/wpa_supplicant/src/ap\ap_config.h **** 	 *  - the key server has decided to enable MACsec
 804:C:/Users/stapi/OneDrive/Desktop/GD32VW553/V1_MQTT_OK/GD32VW55X_Wifi_BLE_SDK/GD32VW55x_RELEASE_V1.0.2/MSDK/wpa_supplicant/src/ap\ap_config.h **** 	 *
 805:C:/Users/stapi/OneDrive/Desktop/GD32VW553/V1_MQTT_OK/GD32VW55X_Wifi_BLE_SDK/GD32VW55x_RELEASE_V1.0.2/MSDK/wpa_supplicant/src/ap\ap_config.h **** 	 * 0: Encrypt traffic (default)
 806:C:/Users/stapi/OneDrive/Desktop/GD32VW553/V1_MQTT_OK/GD32VW55X_Wifi_BLE_SDK/GD32VW55x_RELEASE_V1.0.2/MSDK/wpa_supplicant/src/ap\ap_config.h **** 	 * 1: Integrity only
 807:C:/Users/stapi/OneDrive/Desktop/GD32VW553/V1_MQTT_OK/GD32VW55X_Wifi_BLE_SDK/GD32VW55x_RELEASE_V1.0.2/MSDK/wpa_supplicant/src/ap\ap_config.h **** 	 */
 808:C:/Users/stapi/OneDrive/Desktop/GD32VW553/V1_MQTT_OK/GD32VW55X_Wifi_BLE_SDK/GD32VW55x_RELEASE_V1.0.2/MSDK/wpa_supplicant/src/ap\ap_config.h **** 	int macsec_integ_only;
 809:C:/Users/stapi/OneDrive/Desktop/GD32VW553/V1_MQTT_OK/GD32VW55X_Wifi_BLE_SDK/GD32VW55x_RELEASE_V1.0.2/MSDK/wpa_supplicant/src/ap\ap_config.h **** 
 810:C:/Users/stapi/OneDrive/Desktop/GD32VW553/V1_MQTT_OK/GD32VW55X_Wifi_BLE_SDK/GD32VW55x_RELEASE_V1.0.2/MSDK/wpa_supplicant/src/ap\ap_config.h **** 	/**
 811:C:/Users/stapi/OneDrive/Desktop/GD32VW553/V1_MQTT_OK/GD32VW55X_Wifi_BLE_SDK/GD32VW55x_RELEASE_V1.0.2/MSDK/wpa_supplicant/src/ap\ap_config.h **** 	 * macsec_replay_protect - Enable MACsec replay protection
 812:C:/Users/stapi/OneDrive/Desktop/GD32VW553/V1_MQTT_OK/GD32VW55X_Wifi_BLE_SDK/GD32VW55x_RELEASE_V1.0.2/MSDK/wpa_supplicant/src/ap\ap_config.h **** 	 *
 813:C:/Users/stapi/OneDrive/Desktop/GD32VW553/V1_MQTT_OK/GD32VW55X_Wifi_BLE_SDK/GD32VW55x_RELEASE_V1.0.2/MSDK/wpa_supplicant/src/ap\ap_config.h **** 	 * This setting applies only when MACsec is in use, i.e.,
 814:C:/Users/stapi/OneDrive/Desktop/GD32VW553/V1_MQTT_OK/GD32VW55X_Wifi_BLE_SDK/GD32VW55x_RELEASE_V1.0.2/MSDK/wpa_supplicant/src/ap\ap_config.h **** 	 *  - macsec_policy is enabled
 815:C:/Users/stapi/OneDrive/Desktop/GD32VW553/V1_MQTT_OK/GD32VW55X_Wifi_BLE_SDK/GD32VW55x_RELEASE_V1.0.2/MSDK/wpa_supplicant/src/ap\ap_config.h **** 	 *  - the key server has decided to enable MACsec
 816:C:/Users/stapi/OneDrive/Desktop/GD32VW553/V1_MQTT_OK/GD32VW55X_Wifi_BLE_SDK/GD32VW55x_RELEASE_V1.0.2/MSDK/wpa_supplicant/src/ap\ap_config.h **** 	 *
 817:C:/Users/stapi/OneDrive/Desktop/GD32VW553/V1_MQTT_OK/GD32VW55X_Wifi_BLE_SDK/GD32VW55x_RELEASE_V1.0.2/MSDK/wpa_supplicant/src/ap\ap_config.h **** 	 * 0: Replay protection disabled (default)
 818:C:/Users/stapi/OneDrive/Desktop/GD32VW553/V1_MQTT_OK/GD32VW55X_Wifi_BLE_SDK/GD32VW55x_RELEASE_V1.0.2/MSDK/wpa_supplicant/src/ap\ap_config.h **** 	 * 1: Replay protection enabled
 819:C:/Users/stapi/OneDrive/Desktop/GD32VW553/V1_MQTT_OK/GD32VW55X_Wifi_BLE_SDK/GD32VW55x_RELEASE_V1.0.2/MSDK/wpa_supplicant/src/ap\ap_config.h **** 	 */
 820:C:/Users/stapi/OneDrive/Desktop/GD32VW553/V1_MQTT_OK/GD32VW55X_Wifi_BLE_SDK/GD32VW55x_RELEASE_V1.0.2/MSDK/wpa_supplicant/src/ap\ap_config.h **** 	int macsec_replay_protect;
 821:C:/Users/stapi/OneDrive/Desktop/GD32VW553/V1_MQTT_OK/GD32VW55X_Wifi_BLE_SDK/GD32VW55x_RELEASE_V1.0.2/MSDK/wpa_supplicant/src/ap\ap_config.h **** 
 822:C:/Users/stapi/OneDrive/Desktop/GD32VW553/V1_MQTT_OK/GD32VW55X_Wifi_BLE_SDK/GD32VW55x_RELEASE_V1.0.2/MSDK/wpa_supplicant/src/ap\ap_config.h **** 	/**
 823:C:/Users/stapi/OneDrive/Desktop/GD32VW553/V1_MQTT_OK/GD32VW55X_Wifi_BLE_SDK/GD32VW55x_RELEASE_V1.0.2/MSDK/wpa_supplicant/src/ap\ap_config.h **** 	 * macsec_replay_window - MACsec replay protection window
 824:C:/Users/stapi/OneDrive/Desktop/GD32VW553/V1_MQTT_OK/GD32VW55X_Wifi_BLE_SDK/GD32VW55x_RELEASE_V1.0.2/MSDK/wpa_supplicant/src/ap\ap_config.h **** 	 *
 825:C:/Users/stapi/OneDrive/Desktop/GD32VW553/V1_MQTT_OK/GD32VW55X_Wifi_BLE_SDK/GD32VW55x_RELEASE_V1.0.2/MSDK/wpa_supplicant/src/ap\ap_config.h **** 	 * A window in which replay is tolerated, to allow receipt of frames
 826:C:/Users/stapi/OneDrive/Desktop/GD32VW553/V1_MQTT_OK/GD32VW55X_Wifi_BLE_SDK/GD32VW55x_RELEASE_V1.0.2/MSDK/wpa_supplicant/src/ap\ap_config.h **** 	 * that have been misordered by the network.
 827:C:/Users/stapi/OneDrive/Desktop/GD32VW553/V1_MQTT_OK/GD32VW55X_Wifi_BLE_SDK/GD32VW55x_RELEASE_V1.0.2/MSDK/wpa_supplicant/src/ap\ap_config.h **** 	 *
 828:C:/Users/stapi/OneDrive/Desktop/GD32VW553/V1_MQTT_OK/GD32VW55X_Wifi_BLE_SDK/GD32VW55x_RELEASE_V1.0.2/MSDK/wpa_supplicant/src/ap\ap_config.h **** 	 * This setting applies only when MACsec replay protection active, i.e.,
 829:C:/Users/stapi/OneDrive/Desktop/GD32VW553/V1_MQTT_OK/GD32VW55X_Wifi_BLE_SDK/GD32VW55x_RELEASE_V1.0.2/MSDK/wpa_supplicant/src/ap\ap_config.h **** 	 *  - macsec_replay_protect is enabled
 830:C:/Users/stapi/OneDrive/Desktop/GD32VW553/V1_MQTT_OK/GD32VW55X_Wifi_BLE_SDK/GD32VW55x_RELEASE_V1.0.2/MSDK/wpa_supplicant/src/ap\ap_config.h **** 	 *  - the key server has decided to enable MACsec
 831:C:/Users/stapi/OneDrive/Desktop/GD32VW553/V1_MQTT_OK/GD32VW55X_Wifi_BLE_SDK/GD32VW55x_RELEASE_V1.0.2/MSDK/wpa_supplicant/src/ap\ap_config.h **** 	 *
 832:C:/Users/stapi/OneDrive/Desktop/GD32VW553/V1_MQTT_OK/GD32VW55X_Wifi_BLE_SDK/GD32VW55x_RELEASE_V1.0.2/MSDK/wpa_supplicant/src/ap\ap_config.h **** 	 * 0: No replay window, strict check (default)
 833:C:/Users/stapi/OneDrive/Desktop/GD32VW553/V1_MQTT_OK/GD32VW55X_Wifi_BLE_SDK/GD32VW55x_RELEASE_V1.0.2/MSDK/wpa_supplicant/src/ap\ap_config.h **** 	 * 1..2^32-1: number of packets that could be misordered
 834:C:/Users/stapi/OneDrive/Desktop/GD32VW553/V1_MQTT_OK/GD32VW55X_Wifi_BLE_SDK/GD32VW55x_RELEASE_V1.0.2/MSDK/wpa_supplicant/src/ap\ap_config.h **** 	 */
 835:C:/Users/stapi/OneDrive/Desktop/GD32VW553/V1_MQTT_OK/GD32VW55X_Wifi_BLE_SDK/GD32VW55x_RELEASE_V1.0.2/MSDK/wpa_supplicant/src/ap\ap_config.h **** 	u32 macsec_replay_window;
 836:C:/Users/stapi/OneDrive/Desktop/GD32VW553/V1_MQTT_OK/GD32VW55X_Wifi_BLE_SDK/GD32VW55x_RELEASE_V1.0.2/MSDK/wpa_supplicant/src/ap\ap_config.h **** 
 837:C:/Users/stapi/OneDrive/Desktop/GD32VW553/V1_MQTT_OK/GD32VW55X_Wifi_BLE_SDK/GD32VW55x_RELEASE_V1.0.2/MSDK/wpa_supplicant/src/ap\ap_config.h **** 	/**
 838:C:/Users/stapi/OneDrive/Desktop/GD32VW553/V1_MQTT_OK/GD32VW55X_Wifi_BLE_SDK/GD32VW55x_RELEASE_V1.0.2/MSDK/wpa_supplicant/src/ap\ap_config.h **** 	 * macsec_port - MACsec port (in SCI)
 839:C:/Users/stapi/OneDrive/Desktop/GD32VW553/V1_MQTT_OK/GD32VW55X_Wifi_BLE_SDK/GD32VW55x_RELEASE_V1.0.2/MSDK/wpa_supplicant/src/ap\ap_config.h **** 	 *
 840:C:/Users/stapi/OneDrive/Desktop/GD32VW553/V1_MQTT_OK/GD32VW55X_Wifi_BLE_SDK/GD32VW55x_RELEASE_V1.0.2/MSDK/wpa_supplicant/src/ap\ap_config.h **** 	 * Port component of the SCI.
 841:C:/Users/stapi/OneDrive/Desktop/GD32VW553/V1_MQTT_OK/GD32VW55X_Wifi_BLE_SDK/GD32VW55x_RELEASE_V1.0.2/MSDK/wpa_supplicant/src/ap\ap_config.h **** 	 *
 842:C:/Users/stapi/OneDrive/Desktop/GD32VW553/V1_MQTT_OK/GD32VW55X_Wifi_BLE_SDK/GD32VW55x_RELEASE_V1.0.2/MSDK/wpa_supplicant/src/ap\ap_config.h **** 	 * Range: 1-65534 (default: 1)
 843:C:/Users/stapi/OneDrive/Desktop/GD32VW553/V1_MQTT_OK/GD32VW55X_Wifi_BLE_SDK/GD32VW55x_RELEASE_V1.0.2/MSDK/wpa_supplicant/src/ap\ap_config.h **** 	 */
 844:C:/Users/stapi/OneDrive/Desktop/GD32VW553/V1_MQTT_OK/GD32VW55X_Wifi_BLE_SDK/GD32VW55x_RELEASE_V1.0.2/MSDK/wpa_supplicant/src/ap\ap_config.h **** 	int macsec_port;
 845:C:/Users/stapi/OneDrive/Desktop/GD32VW553/V1_MQTT_OK/GD32VW55X_Wifi_BLE_SDK/GD32VW55x_RELEASE_V1.0.2/MSDK/wpa_supplicant/src/ap\ap_config.h **** 
 846:C:/Users/stapi/OneDrive/Desktop/GD32VW553/V1_MQTT_OK/GD32VW55X_Wifi_BLE_SDK/GD32VW55x_RELEASE_V1.0.2/MSDK/wpa_supplicant/src/ap\ap_config.h **** 	/**
 847:C:/Users/stapi/OneDrive/Desktop/GD32VW553/V1_MQTT_OK/GD32VW55X_Wifi_BLE_SDK/GD32VW55x_RELEASE_V1.0.2/MSDK/wpa_supplicant/src/ap\ap_config.h **** 	 * mka_priority - Priority of MKA Actor
 848:C:/Users/stapi/OneDrive/Desktop/GD32VW553/V1_MQTT_OK/GD32VW55X_Wifi_BLE_SDK/GD32VW55x_RELEASE_V1.0.2/MSDK/wpa_supplicant/src/ap\ap_config.h **** 	 *
 849:C:/Users/stapi/OneDrive/Desktop/GD32VW553/V1_MQTT_OK/GD32VW55X_Wifi_BLE_SDK/GD32VW55x_RELEASE_V1.0.2/MSDK/wpa_supplicant/src/ap\ap_config.h **** 	 * Range: 0-255 (default: 255)
 850:C:/Users/stapi/OneDrive/Desktop/GD32VW553/V1_MQTT_OK/GD32VW55X_Wifi_BLE_SDK/GD32VW55x_RELEASE_V1.0.2/MSDK/wpa_supplicant/src/ap\ap_config.h **** 	 */
 851:C:/Users/stapi/OneDrive/Desktop/GD32VW553/V1_MQTT_OK/GD32VW55X_Wifi_BLE_SDK/GD32VW55x_RELEASE_V1.0.2/MSDK/wpa_supplicant/src/ap\ap_config.h **** 	int mka_priority;
 852:C:/Users/stapi/OneDrive/Desktop/GD32VW553/V1_MQTT_OK/GD32VW55X_Wifi_BLE_SDK/GD32VW55x_RELEASE_V1.0.2/MSDK/wpa_supplicant/src/ap\ap_config.h **** 
 853:C:/Users/stapi/OneDrive/Desktop/GD32VW553/V1_MQTT_OK/GD32VW55X_Wifi_BLE_SDK/GD32VW55x_RELEASE_V1.0.2/MSDK/wpa_supplicant/src/ap\ap_config.h **** 	/**
 854:C:/Users/stapi/OneDrive/Desktop/GD32VW553/V1_MQTT_OK/GD32VW55X_Wifi_BLE_SDK/GD32VW55x_RELEASE_V1.0.2/MSDK/wpa_supplicant/src/ap\ap_config.h **** 	 * mka_ckn - MKA pre-shared CKN
 855:C:/Users/stapi/OneDrive/Desktop/GD32VW553/V1_MQTT_OK/GD32VW55X_Wifi_BLE_SDK/GD32VW55x_RELEASE_V1.0.2/MSDK/wpa_supplicant/src/ap\ap_config.h **** 	 */
 856:C:/Users/stapi/OneDrive/Desktop/GD32VW553/V1_MQTT_OK/GD32VW55X_Wifi_BLE_SDK/GD32VW55x_RELEASE_V1.0.2/MSDK/wpa_supplicant/src/ap\ap_config.h **** #define MACSEC_CKN_MAX_LEN 32
 857:C:/Users/stapi/OneDrive/Desktop/GD32VW553/V1_MQTT_OK/GD32VW55X_Wifi_BLE_SDK/GD32VW55x_RELEASE_V1.0.2/MSDK/wpa_supplicant/src/ap\ap_config.h **** 	size_t mka_ckn_len;
 858:C:/Users/stapi/OneDrive/Desktop/GD32VW553/V1_MQTT_OK/GD32VW55X_Wifi_BLE_SDK/GD32VW55x_RELEASE_V1.0.2/MSDK/wpa_supplicant/src/ap\ap_config.h **** 	u8 mka_ckn[MACSEC_CKN_MAX_LEN];
 859:C:/Users/stapi/OneDrive/Desktop/GD32VW553/V1_MQTT_OK/GD32VW55X_Wifi_BLE_SDK/GD32VW55x_RELEASE_V1.0.2/MSDK/wpa_supplicant/src/ap\ap_config.h **** 
 860:C:/Users/stapi/OneDrive/Desktop/GD32VW553/V1_MQTT_OK/GD32VW55X_Wifi_BLE_SDK/GD32VW55x_RELEASE_V1.0.2/MSDK/wpa_supplicant/src/ap\ap_config.h **** 	/**
 861:C:/Users/stapi/OneDrive/Desktop/GD32VW553/V1_MQTT_OK/GD32VW55X_Wifi_BLE_SDK/GD32VW55x_RELEASE_V1.0.2/MSDK/wpa_supplicant/src/ap\ap_config.h **** 	 * mka_cak - MKA pre-shared CAK
 862:C:/Users/stapi/OneDrive/Desktop/GD32VW553/V1_MQTT_OK/GD32VW55X_Wifi_BLE_SDK/GD32VW55x_RELEASE_V1.0.2/MSDK/wpa_supplicant/src/ap\ap_config.h **** 	 */
 863:C:/Users/stapi/OneDrive/Desktop/GD32VW553/V1_MQTT_OK/GD32VW55X_Wifi_BLE_SDK/GD32VW55x_RELEASE_V1.0.2/MSDK/wpa_supplicant/src/ap\ap_config.h **** #define MACSEC_CAK_MAX_LEN 32
 864:C:/Users/stapi/OneDrive/Desktop/GD32VW553/V1_MQTT_OK/GD32VW55X_Wifi_BLE_SDK/GD32VW55x_RELEASE_V1.0.2/MSDK/wpa_supplicant/src/ap\ap_config.h **** 	size_t mka_cak_len;
 865:C:/Users/stapi/OneDrive/Desktop/GD32VW553/V1_MQTT_OK/GD32VW55X_Wifi_BLE_SDK/GD32VW55x_RELEASE_V1.0.2/MSDK/wpa_supplicant/src/ap\ap_config.h **** 	u8 mka_cak[MACSEC_CAK_MAX_LEN];
 866:C:/Users/stapi/OneDrive/Desktop/GD32VW553/V1_MQTT_OK/GD32VW55X_Wifi_BLE_SDK/GD32VW55x_RELEASE_V1.0.2/MSDK/wpa_supplicant/src/ap\ap_config.h **** 
 867:C:/Users/stapi/OneDrive/Desktop/GD32VW553/V1_MQTT_OK/GD32VW55X_Wifi_BLE_SDK/GD32VW55x_RELEASE_V1.0.2/MSDK/wpa_supplicant/src/ap\ap_config.h **** #define MKA_PSK_SET_CKN BIT(0)
 868:C:/Users/stapi/OneDrive/Desktop/GD32VW553/V1_MQTT_OK/GD32VW55X_Wifi_BLE_SDK/GD32VW55x_RELEASE_V1.0.2/MSDK/wpa_supplicant/src/ap\ap_config.h **** #define MKA_PSK_SET_CAK BIT(1)
 869:C:/Users/stapi/OneDrive/Desktop/GD32VW553/V1_MQTT_OK/GD32VW55X_Wifi_BLE_SDK/GD32VW55x_RELEASE_V1.0.2/MSDK/wpa_supplicant/src/ap\ap_config.h **** #define MKA_PSK_SET (MKA_PSK_SET_CKN | MKA_PSK_SET_CAK)
 870:C:/Users/stapi/OneDrive/Desktop/GD32VW553/V1_MQTT_OK/GD32VW55X_Wifi_BLE_SDK/GD32VW55x_RELEASE_V1.0.2/MSDK/wpa_supplicant/src/ap\ap_config.h **** 	/**
 871:C:/Users/stapi/OneDrive/Desktop/GD32VW553/V1_MQTT_OK/GD32VW55X_Wifi_BLE_SDK/GD32VW55x_RELEASE_V1.0.2/MSDK/wpa_supplicant/src/ap\ap_config.h **** 	 * mka_psk_set - Whether mka_ckn and mka_cak are set
 872:C:/Users/stapi/OneDrive/Desktop/GD32VW553/V1_MQTT_OK/GD32VW55X_Wifi_BLE_SDK/GD32VW55x_RELEASE_V1.0.2/MSDK/wpa_supplicant/src/ap\ap_config.h **** 	 */
 873:C:/Users/stapi/OneDrive/Desktop/GD32VW553/V1_MQTT_OK/GD32VW55X_Wifi_BLE_SDK/GD32VW55x_RELEASE_V1.0.2/MSDK/wpa_supplicant/src/ap\ap_config.h **** 	u8 mka_psk_set;
 874:C:/Users/stapi/OneDrive/Desktop/GD32VW553/V1_MQTT_OK/GD32VW55X_Wifi_BLE_SDK/GD32VW55x_RELEASE_V1.0.2/MSDK/wpa_supplicant/src/ap\ap_config.h **** #endif /* CONFIG_MACSEC */
 875:C:/Users/stapi/OneDrive/Desktop/GD32VW553/V1_MQTT_OK/GD32VW55X_Wifi_BLE_SDK/GD32VW55x_RELEASE_V1.0.2/MSDK/wpa_supplicant/src/ap\ap_config.h **** 
 876:C:/Users/stapi/OneDrive/Desktop/GD32VW553/V1_MQTT_OK/GD32VW55X_Wifi_BLE_SDK/GD32VW55x_RELEASE_V1.0.2/MSDK/wpa_supplicant/src/ap\ap_config.h **** #ifdef CONFIG_PASN
 877:C:/Users/stapi/OneDrive/Desktop/GD32VW553/V1_MQTT_OK/GD32VW55X_Wifi_BLE_SDK/GD32VW55x_RELEASE_V1.0.2/MSDK/wpa_supplicant/src/ap\ap_config.h **** #ifdef CONFIG_TESTING_OPTIONS
 878:C:/Users/stapi/OneDrive/Desktop/GD32VW553/V1_MQTT_OK/GD32VW55X_Wifi_BLE_SDK/GD32VW55x_RELEASE_V1.0.2/MSDK/wpa_supplicant/src/ap\ap_config.h **** 	/*
 879:C:/Users/stapi/OneDrive/Desktop/GD32VW553/V1_MQTT_OK/GD32VW55X_Wifi_BLE_SDK/GD32VW55x_RELEASE_V1.0.2/MSDK/wpa_supplicant/src/ap\ap_config.h **** 	 * Normally, KDK should be derived if and only if both sides support
 880:C:/Users/stapi/OneDrive/Desktop/GD32VW553/V1_MQTT_OK/GD32VW55X_Wifi_BLE_SDK/GD32VW55x_RELEASE_V1.0.2/MSDK/wpa_supplicant/src/ap\ap_config.h **** 	 * secure LTF. Allow forcing KDK derivation for testing purposes.
 881:C:/Users/stapi/OneDrive/Desktop/GD32VW553/V1_MQTT_OK/GD32VW55X_Wifi_BLE_SDK/GD32VW55x_RELEASE_V1.0.2/MSDK/wpa_supplicant/src/ap\ap_config.h **** 	 */
 882:C:/Users/stapi/OneDrive/Desktop/GD32VW553/V1_MQTT_OK/GD32VW55X_Wifi_BLE_SDK/GD32VW55x_RELEASE_V1.0.2/MSDK/wpa_supplicant/src/ap\ap_config.h **** 	int force_kdk_derivation;
 883:C:/Users/stapi/OneDrive/Desktop/GD32VW553/V1_MQTT_OK/GD32VW55X_Wifi_BLE_SDK/GD32VW55x_RELEASE_V1.0.2/MSDK/wpa_supplicant/src/ap\ap_config.h **** 
 884:C:/Users/stapi/OneDrive/Desktop/GD32VW553/V1_MQTT_OK/GD32VW55X_Wifi_BLE_SDK/GD32VW55x_RELEASE_V1.0.2/MSDK/wpa_supplicant/src/ap\ap_config.h **** 	/* If set, corrupt the MIC in the 2nd Authentication frame of PASN */
 885:C:/Users/stapi/OneDrive/Desktop/GD32VW553/V1_MQTT_OK/GD32VW55X_Wifi_BLE_SDK/GD32VW55x_RELEASE_V1.0.2/MSDK/wpa_supplicant/src/ap\ap_config.h **** 	int pasn_corrupt_mic;
 886:C:/Users/stapi/OneDrive/Desktop/GD32VW553/V1_MQTT_OK/GD32VW55X_Wifi_BLE_SDK/GD32VW55x_RELEASE_V1.0.2/MSDK/wpa_supplicant/src/ap\ap_config.h **** #endif /* CONFIG_TESTING_OPTIONS */
 887:C:/Users/stapi/OneDrive/Desktop/GD32VW553/V1_MQTT_OK/GD32VW55X_Wifi_BLE_SDK/GD32VW55x_RELEASE_V1.0.2/MSDK/wpa_supplicant/src/ap\ap_config.h **** 
 888:C:/Users/stapi/OneDrive/Desktop/GD32VW553/V1_MQTT_OK/GD32VW55X_Wifi_BLE_SDK/GD32VW55x_RELEASE_V1.0.2/MSDK/wpa_supplicant/src/ap\ap_config.h **** 	int *pasn_groups;
 889:C:/Users/stapi/OneDrive/Desktop/GD32VW553/V1_MQTT_OK/GD32VW55X_Wifi_BLE_SDK/GD32VW55x_RELEASE_V1.0.2/MSDK/wpa_supplicant/src/ap\ap_config.h **** 
 890:C:/Users/stapi/OneDrive/Desktop/GD32VW553/V1_MQTT_OK/GD32VW55X_Wifi_BLE_SDK/GD32VW55x_RELEASE_V1.0.2/MSDK/wpa_supplicant/src/ap\ap_config.h **** 	/*
 891:C:/Users/stapi/OneDrive/Desktop/GD32VW553/V1_MQTT_OK/GD32VW55X_Wifi_BLE_SDK/GD32VW55x_RELEASE_V1.0.2/MSDK/wpa_supplicant/src/ap\ap_config.h **** 	 * The time in TUs after which the non-AP STA is requested to retry the
 892:C:/Users/stapi/OneDrive/Desktop/GD32VW553/V1_MQTT_OK/GD32VW55X_Wifi_BLE_SDK/GD32VW55x_RELEASE_V1.0.2/MSDK/wpa_supplicant/src/ap\ap_config.h **** 	 * PASN authentication in case there are too many parallel operations.
 893:C:/Users/stapi/OneDrive/Desktop/GD32VW553/V1_MQTT_OK/GD32VW55X_Wifi_BLE_SDK/GD32VW55x_RELEASE_V1.0.2/MSDK/wpa_supplicant/src/ap\ap_config.h **** 	 */
 894:C:/Users/stapi/OneDrive/Desktop/GD32VW553/V1_MQTT_OK/GD32VW55X_Wifi_BLE_SDK/GD32VW55x_RELEASE_V1.0.2/MSDK/wpa_supplicant/src/ap\ap_config.h **** 	u16 pasn_comeback_after;
 895:C:/Users/stapi/OneDrive/Desktop/GD32VW553/V1_MQTT_OK/GD32VW55X_Wifi_BLE_SDK/GD32VW55x_RELEASE_V1.0.2/MSDK/wpa_supplicant/src/ap\ap_config.h **** #endif /* CONFIG_PASN */
 896:C:/Users/stapi/OneDrive/Desktop/GD32VW553/V1_MQTT_OK/GD32VW55X_Wifi_BLE_SDK/GD32VW55x_RELEASE_V1.0.2/MSDK/wpa_supplicant/src/ap\ap_config.h **** 
 897:C:/Users/stapi/OneDrive/Desktop/GD32VW553/V1_MQTT_OK/GD32VW55X_Wifi_BLE_SDK/GD32VW55x_RELEASE_V1.0.2/MSDK/wpa_supplicant/src/ap\ap_config.h **** 	unsigned int unsol_bcast_probe_resp_interval;
 898:C:/Users/stapi/OneDrive/Desktop/GD32VW553/V1_MQTT_OK/GD32VW55X_Wifi_BLE_SDK/GD32VW55x_RELEASE_V1.0.2/MSDK/wpa_supplicant/src/ap\ap_config.h **** 
 899:C:/Users/stapi/OneDrive/Desktop/GD32VW553/V1_MQTT_OK/GD32VW55X_Wifi_BLE_SDK/GD32VW55x_RELEASE_V1.0.2/MSDK/wpa_supplicant/src/ap\ap_config.h **** 	u8 ext_capa_mask[EXT_CAPA_MAX_LEN];
 900:C:/Users/stapi/OneDrive/Desktop/GD32VW553/V1_MQTT_OK/GD32VW55X_Wifi_BLE_SDK/GD32VW55x_RELEASE_V1.0.2/MSDK/wpa_supplicant/src/ap\ap_config.h **** 	u8 ext_capa[EXT_CAPA_MAX_LEN];
 901:C:/Users/stapi/OneDrive/Desktop/GD32VW553/V1_MQTT_OK/GD32VW55X_Wifi_BLE_SDK/GD32VW55x_RELEASE_V1.0.2/MSDK/wpa_supplicant/src/ap\ap_config.h **** 
 902:C:/Users/stapi/OneDrive/Desktop/GD32VW553/V1_MQTT_OK/GD32VW55X_Wifi_BLE_SDK/GD32VW55x_RELEASE_V1.0.2/MSDK/wpa_supplicant/src/ap\ap_config.h **** 	u8 rnr;
 903:C:/Users/stapi/OneDrive/Desktop/GD32VW553/V1_MQTT_OK/GD32VW55X_Wifi_BLE_SDK/GD32VW55x_RELEASE_V1.0.2/MSDK/wpa_supplicant/src/ap\ap_config.h **** };
 904:C:/Users/stapi/OneDrive/Desktop/GD32VW553/V1_MQTT_OK/GD32VW55X_Wifi_BLE_SDK/GD32VW55x_RELEASE_V1.0.2/MSDK/wpa_supplicant/src/ap\ap_config.h **** 
 905:C:/Users/stapi/OneDrive/Desktop/GD32VW553/V1_MQTT_OK/GD32VW55X_Wifi_BLE_SDK/GD32VW55x_RELEASE_V1.0.2/MSDK/wpa_supplicant/src/ap\ap_config.h **** /**
 906:C:/Users/stapi/OneDrive/Desktop/GD32VW553/V1_MQTT_OK/GD32VW55X_Wifi_BLE_SDK/GD32VW55x_RELEASE_V1.0.2/MSDK/wpa_supplicant/src/ap\ap_config.h ****  * struct he_phy_capabilities_info - HE PHY capabilities
 907:C:/Users/stapi/OneDrive/Desktop/GD32VW553/V1_MQTT_OK/GD32VW55X_Wifi_BLE_SDK/GD32VW55x_RELEASE_V1.0.2/MSDK/wpa_supplicant/src/ap\ap_config.h ****  */
 908:C:/Users/stapi/OneDrive/Desktop/GD32VW553/V1_MQTT_OK/GD32VW55X_Wifi_BLE_SDK/GD32VW55x_RELEASE_V1.0.2/MSDK/wpa_supplicant/src/ap\ap_config.h **** struct he_phy_capabilities_info {
 909:C:/Users/stapi/OneDrive/Desktop/GD32VW553/V1_MQTT_OK/GD32VW55X_Wifi_BLE_SDK/GD32VW55x_RELEASE_V1.0.2/MSDK/wpa_supplicant/src/ap\ap_config.h **** 	bool he_su_beamformer;
 910:C:/Users/stapi/OneDrive/Desktop/GD32VW553/V1_MQTT_OK/GD32VW55X_Wifi_BLE_SDK/GD32VW55x_RELEASE_V1.0.2/MSDK/wpa_supplicant/src/ap\ap_config.h **** 	bool he_su_beamformee;
 911:C:/Users/stapi/OneDrive/Desktop/GD32VW553/V1_MQTT_OK/GD32VW55X_Wifi_BLE_SDK/GD32VW55x_RELEASE_V1.0.2/MSDK/wpa_supplicant/src/ap\ap_config.h **** 	bool he_mu_beamformer;
 912:C:/Users/stapi/OneDrive/Desktop/GD32VW553/V1_MQTT_OK/GD32VW55X_Wifi_BLE_SDK/GD32VW55x_RELEASE_V1.0.2/MSDK/wpa_supplicant/src/ap\ap_config.h **** };
 913:C:/Users/stapi/OneDrive/Desktop/GD32VW553/V1_MQTT_OK/GD32VW55X_Wifi_BLE_SDK/GD32VW55x_RELEASE_V1.0.2/MSDK/wpa_supplicant/src/ap\ap_config.h **** 
 914:C:/Users/stapi/OneDrive/Desktop/GD32VW553/V1_MQTT_OK/GD32VW55X_Wifi_BLE_SDK/GD32VW55x_RELEASE_V1.0.2/MSDK/wpa_supplicant/src/ap\ap_config.h **** /**
 915:C:/Users/stapi/OneDrive/Desktop/GD32VW553/V1_MQTT_OK/GD32VW55X_Wifi_BLE_SDK/GD32VW55x_RELEASE_V1.0.2/MSDK/wpa_supplicant/src/ap\ap_config.h ****  * struct he_operation - HE operation
 916:C:/Users/stapi/OneDrive/Desktop/GD32VW553/V1_MQTT_OK/GD32VW55X_Wifi_BLE_SDK/GD32VW55x_RELEASE_V1.0.2/MSDK/wpa_supplicant/src/ap\ap_config.h ****  */
 917:C:/Users/stapi/OneDrive/Desktop/GD32VW553/V1_MQTT_OK/GD32VW55X_Wifi_BLE_SDK/GD32VW55x_RELEASE_V1.0.2/MSDK/wpa_supplicant/src/ap\ap_config.h **** struct he_operation {
 918:C:/Users/stapi/OneDrive/Desktop/GD32VW553/V1_MQTT_OK/GD32VW55X_Wifi_BLE_SDK/GD32VW55x_RELEASE_V1.0.2/MSDK/wpa_supplicant/src/ap\ap_config.h **** 	u8 he_bss_color;
 919:C:/Users/stapi/OneDrive/Desktop/GD32VW553/V1_MQTT_OK/GD32VW55X_Wifi_BLE_SDK/GD32VW55x_RELEASE_V1.0.2/MSDK/wpa_supplicant/src/ap\ap_config.h **** 	u8 he_bss_color_disabled;
 920:C:/Users/stapi/OneDrive/Desktop/GD32VW553/V1_MQTT_OK/GD32VW55X_Wifi_BLE_SDK/GD32VW55x_RELEASE_V1.0.2/MSDK/wpa_supplicant/src/ap\ap_config.h **** 	u8 he_bss_color_partial;
 921:C:/Users/stapi/OneDrive/Desktop/GD32VW553/V1_MQTT_OK/GD32VW55X_Wifi_BLE_SDK/GD32VW55x_RELEASE_V1.0.2/MSDK/wpa_supplicant/src/ap\ap_config.h **** 	u8 he_default_pe_duration;
 922:C:/Users/stapi/OneDrive/Desktop/GD32VW553/V1_MQTT_OK/GD32VW55X_Wifi_BLE_SDK/GD32VW55x_RELEASE_V1.0.2/MSDK/wpa_supplicant/src/ap\ap_config.h **** 	u8 he_twt_required;
 923:C:/Users/stapi/OneDrive/Desktop/GD32VW553/V1_MQTT_OK/GD32VW55X_Wifi_BLE_SDK/GD32VW55x_RELEASE_V1.0.2/MSDK/wpa_supplicant/src/ap\ap_config.h **** 	u8 he_twt_responder;
 924:C:/Users/stapi/OneDrive/Desktop/GD32VW553/V1_MQTT_OK/GD32VW55X_Wifi_BLE_SDK/GD32VW55x_RELEASE_V1.0.2/MSDK/wpa_supplicant/src/ap\ap_config.h **** 	u16 he_rts_threshold;
 925:C:/Users/stapi/OneDrive/Desktop/GD32VW553/V1_MQTT_OK/GD32VW55X_Wifi_BLE_SDK/GD32VW55x_RELEASE_V1.0.2/MSDK/wpa_supplicant/src/ap\ap_config.h **** 	u8 he_er_su_disable;
 926:C:/Users/stapi/OneDrive/Desktop/GD32VW553/V1_MQTT_OK/GD32VW55X_Wifi_BLE_SDK/GD32VW55x_RELEASE_V1.0.2/MSDK/wpa_supplicant/src/ap\ap_config.h **** 	u16 he_basic_mcs_nss_set;
 927:C:/Users/stapi/OneDrive/Desktop/GD32VW553/V1_MQTT_OK/GD32VW55X_Wifi_BLE_SDK/GD32VW55x_RELEASE_V1.0.2/MSDK/wpa_supplicant/src/ap\ap_config.h **** };
 928:C:/Users/stapi/OneDrive/Desktop/GD32VW553/V1_MQTT_OK/GD32VW55X_Wifi_BLE_SDK/GD32VW55x_RELEASE_V1.0.2/MSDK/wpa_supplicant/src/ap\ap_config.h **** 
 929:C:/Users/stapi/OneDrive/Desktop/GD32VW553/V1_MQTT_OK/GD32VW55X_Wifi_BLE_SDK/GD32VW55x_RELEASE_V1.0.2/MSDK/wpa_supplicant/src/ap\ap_config.h **** /**
 930:C:/Users/stapi/OneDrive/Desktop/GD32VW553/V1_MQTT_OK/GD32VW55X_Wifi_BLE_SDK/GD32VW55x_RELEASE_V1.0.2/MSDK/wpa_supplicant/src/ap\ap_config.h ****  * struct spatial_reuse - Spatial reuse
 931:C:/Users/stapi/OneDrive/Desktop/GD32VW553/V1_MQTT_OK/GD32VW55X_Wifi_BLE_SDK/GD32VW55x_RELEASE_V1.0.2/MSDK/wpa_supplicant/src/ap\ap_config.h ****  */
 932:C:/Users/stapi/OneDrive/Desktop/GD32VW553/V1_MQTT_OK/GD32VW55X_Wifi_BLE_SDK/GD32VW55x_RELEASE_V1.0.2/MSDK/wpa_supplicant/src/ap\ap_config.h **** struct spatial_reuse {
 933:C:/Users/stapi/OneDrive/Desktop/GD32VW553/V1_MQTT_OK/GD32VW55X_Wifi_BLE_SDK/GD32VW55x_RELEASE_V1.0.2/MSDK/wpa_supplicant/src/ap\ap_config.h **** 	u8 sr_control;
 934:C:/Users/stapi/OneDrive/Desktop/GD32VW553/V1_MQTT_OK/GD32VW55X_Wifi_BLE_SDK/GD32VW55x_RELEASE_V1.0.2/MSDK/wpa_supplicant/src/ap\ap_config.h **** 	u8 non_srg_obss_pd_max_offset;
 935:C:/Users/stapi/OneDrive/Desktop/GD32VW553/V1_MQTT_OK/GD32VW55X_Wifi_BLE_SDK/GD32VW55x_RELEASE_V1.0.2/MSDK/wpa_supplicant/src/ap\ap_config.h **** 	u8 srg_obss_pd_min_offset;
 936:C:/Users/stapi/OneDrive/Desktop/GD32VW553/V1_MQTT_OK/GD32VW55X_Wifi_BLE_SDK/GD32VW55x_RELEASE_V1.0.2/MSDK/wpa_supplicant/src/ap\ap_config.h **** 	u8 srg_obss_pd_max_offset;
 937:C:/Users/stapi/OneDrive/Desktop/GD32VW553/V1_MQTT_OK/GD32VW55X_Wifi_BLE_SDK/GD32VW55x_RELEASE_V1.0.2/MSDK/wpa_supplicant/src/ap\ap_config.h **** 	u8 srg_bss_color_bitmap[8];
 938:C:/Users/stapi/OneDrive/Desktop/GD32VW553/V1_MQTT_OK/GD32VW55X_Wifi_BLE_SDK/GD32VW55x_RELEASE_V1.0.2/MSDK/wpa_supplicant/src/ap\ap_config.h **** 	u8 srg_partial_bssid_bitmap[8];
 939:C:/Users/stapi/OneDrive/Desktop/GD32VW553/V1_MQTT_OK/GD32VW55X_Wifi_BLE_SDK/GD32VW55x_RELEASE_V1.0.2/MSDK/wpa_supplicant/src/ap\ap_config.h **** };
 940:C:/Users/stapi/OneDrive/Desktop/GD32VW553/V1_MQTT_OK/GD32VW55X_Wifi_BLE_SDK/GD32VW55x_RELEASE_V1.0.2/MSDK/wpa_supplicant/src/ap\ap_config.h **** 
 941:C:/Users/stapi/OneDrive/Desktop/GD32VW553/V1_MQTT_OK/GD32VW55X_Wifi_BLE_SDK/GD32VW55x_RELEASE_V1.0.2/MSDK/wpa_supplicant/src/ap\ap_config.h **** /**
 942:C:/Users/stapi/OneDrive/Desktop/GD32VW553/V1_MQTT_OK/GD32VW55X_Wifi_BLE_SDK/GD32VW55x_RELEASE_V1.0.2/MSDK/wpa_supplicant/src/ap\ap_config.h ****  * struct hostapd_config - Per-radio interface configuration
 943:C:/Users/stapi/OneDrive/Desktop/GD32VW553/V1_MQTT_OK/GD32VW55X_Wifi_BLE_SDK/GD32VW55x_RELEASE_V1.0.2/MSDK/wpa_supplicant/src/ap\ap_config.h ****  */
 944:C:/Users/stapi/OneDrive/Desktop/GD32VW553/V1_MQTT_OK/GD32VW55X_Wifi_BLE_SDK/GD32VW55x_RELEASE_V1.0.2/MSDK/wpa_supplicant/src/ap\ap_config.h **** struct hostapd_config {
 945:C:/Users/stapi/OneDrive/Desktop/GD32VW553/V1_MQTT_OK/GD32VW55X_Wifi_BLE_SDK/GD32VW55x_RELEASE_V1.0.2/MSDK/wpa_supplicant/src/ap\ap_config.h **** 	struct hostapd_bss_config **bss, *last_bss;
 946:C:/Users/stapi/OneDrive/Desktop/GD32VW553/V1_MQTT_OK/GD32VW55X_Wifi_BLE_SDK/GD32VW55x_RELEASE_V1.0.2/MSDK/wpa_supplicant/src/ap\ap_config.h **** 	size_t num_bss;
 947:C:/Users/stapi/OneDrive/Desktop/GD32VW553/V1_MQTT_OK/GD32VW55X_Wifi_BLE_SDK/GD32VW55x_RELEASE_V1.0.2/MSDK/wpa_supplicant/src/ap\ap_config.h **** 
 948:C:/Users/stapi/OneDrive/Desktop/GD32VW553/V1_MQTT_OK/GD32VW55X_Wifi_BLE_SDK/GD32VW55x_RELEASE_V1.0.2/MSDK/wpa_supplicant/src/ap\ap_config.h **** 	u16 beacon_int;
 949:C:/Users/stapi/OneDrive/Desktop/GD32VW553/V1_MQTT_OK/GD32VW55X_Wifi_BLE_SDK/GD32VW55x_RELEASE_V1.0.2/MSDK/wpa_supplicant/src/ap\ap_config.h **** 	int rts_threshold;
 950:C:/Users/stapi/OneDrive/Desktop/GD32VW553/V1_MQTT_OK/GD32VW55X_Wifi_BLE_SDK/GD32VW55x_RELEASE_V1.0.2/MSDK/wpa_supplicant/src/ap\ap_config.h **** 	int fragm_threshold;
 951:C:/Users/stapi/OneDrive/Desktop/GD32VW553/V1_MQTT_OK/GD32VW55X_Wifi_BLE_SDK/GD32VW55x_RELEASE_V1.0.2/MSDK/wpa_supplicant/src/ap\ap_config.h **** 	u8 op_class;
 952:C:/Users/stapi/OneDrive/Desktop/GD32VW553/V1_MQTT_OK/GD32VW55X_Wifi_BLE_SDK/GD32VW55x_RELEASE_V1.0.2/MSDK/wpa_supplicant/src/ap\ap_config.h **** 	u8 channel;
 953:C:/Users/stapi/OneDrive/Desktop/GD32VW553/V1_MQTT_OK/GD32VW55X_Wifi_BLE_SDK/GD32VW55x_RELEASE_V1.0.2/MSDK/wpa_supplicant/src/ap\ap_config.h **** 	int enable_edmg;
 954:C:/Users/stapi/OneDrive/Desktop/GD32VW553/V1_MQTT_OK/GD32VW55X_Wifi_BLE_SDK/GD32VW55x_RELEASE_V1.0.2/MSDK/wpa_supplicant/src/ap\ap_config.h **** 	u8 edmg_channel;
 955:C:/Users/stapi/OneDrive/Desktop/GD32VW553/V1_MQTT_OK/GD32VW55X_Wifi_BLE_SDK/GD32VW55x_RELEASE_V1.0.2/MSDK/wpa_supplicant/src/ap\ap_config.h **** 	u8 acs;
 956:C:/Users/stapi/OneDrive/Desktop/GD32VW553/V1_MQTT_OK/GD32VW55X_Wifi_BLE_SDK/GD32VW55x_RELEASE_V1.0.2/MSDK/wpa_supplicant/src/ap\ap_config.h **** 	struct wpa_freq_range_list acs_ch_list;
 957:C:/Users/stapi/OneDrive/Desktop/GD32VW553/V1_MQTT_OK/GD32VW55X_Wifi_BLE_SDK/GD32VW55x_RELEASE_V1.0.2/MSDK/wpa_supplicant/src/ap\ap_config.h **** 	struct wpa_freq_range_list acs_freq_list;
 958:C:/Users/stapi/OneDrive/Desktop/GD32VW553/V1_MQTT_OK/GD32VW55X_Wifi_BLE_SDK/GD32VW55x_RELEASE_V1.0.2/MSDK/wpa_supplicant/src/ap\ap_config.h **** 	u8 acs_freq_list_present;
 959:C:/Users/stapi/OneDrive/Desktop/GD32VW553/V1_MQTT_OK/GD32VW55X_Wifi_BLE_SDK/GD32VW55x_RELEASE_V1.0.2/MSDK/wpa_supplicant/src/ap\ap_config.h **** 	int acs_exclude_dfs;
 960:C:/Users/stapi/OneDrive/Desktop/GD32VW553/V1_MQTT_OK/GD32VW55X_Wifi_BLE_SDK/GD32VW55x_RELEASE_V1.0.2/MSDK/wpa_supplicant/src/ap\ap_config.h **** 	u8 min_tx_power;
 961:C:/Users/stapi/OneDrive/Desktop/GD32VW553/V1_MQTT_OK/GD32VW55X_Wifi_BLE_SDK/GD32VW55x_RELEASE_V1.0.2/MSDK/wpa_supplicant/src/ap\ap_config.h **** 	enum hostapd_hw_mode hw_mode; /* HOSTAPD_MODE_IEEE80211A, .. */
 962:C:/Users/stapi/OneDrive/Desktop/GD32VW553/V1_MQTT_OK/GD32VW55X_Wifi_BLE_SDK/GD32VW55x_RELEASE_V1.0.2/MSDK/wpa_supplicant/src/ap\ap_config.h **** 	int acs_exclude_6ghz_non_psc;
 963:C:/Users/stapi/OneDrive/Desktop/GD32VW553/V1_MQTT_OK/GD32VW55X_Wifi_BLE_SDK/GD32VW55x_RELEASE_V1.0.2/MSDK/wpa_supplicant/src/ap\ap_config.h **** 	enum {
 964:C:/Users/stapi/OneDrive/Desktop/GD32VW553/V1_MQTT_OK/GD32VW55X_Wifi_BLE_SDK/GD32VW55x_RELEASE_V1.0.2/MSDK/wpa_supplicant/src/ap\ap_config.h **** 		LONG_PREAMBLE = 0,
 965:C:/Users/stapi/OneDrive/Desktop/GD32VW553/V1_MQTT_OK/GD32VW55X_Wifi_BLE_SDK/GD32VW55x_RELEASE_V1.0.2/MSDK/wpa_supplicant/src/ap\ap_config.h **** 		SHORT_PREAMBLE = 1
 966:C:/Users/stapi/OneDrive/Desktop/GD32VW553/V1_MQTT_OK/GD32VW55X_Wifi_BLE_SDK/GD32VW55x_RELEASE_V1.0.2/MSDK/wpa_supplicant/src/ap\ap_config.h **** 	} preamble;
 967:C:/Users/stapi/OneDrive/Desktop/GD32VW553/V1_MQTT_OK/GD32VW55X_Wifi_BLE_SDK/GD32VW55x_RELEASE_V1.0.2/MSDK/wpa_supplicant/src/ap\ap_config.h **** 
 968:C:/Users/stapi/OneDrive/Desktop/GD32VW553/V1_MQTT_OK/GD32VW55X_Wifi_BLE_SDK/GD32VW55x_RELEASE_V1.0.2/MSDK/wpa_supplicant/src/ap\ap_config.h **** 	int *supported_rates;
 969:C:/Users/stapi/OneDrive/Desktop/GD32VW553/V1_MQTT_OK/GD32VW55X_Wifi_BLE_SDK/GD32VW55x_RELEASE_V1.0.2/MSDK/wpa_supplicant/src/ap\ap_config.h **** 	int *basic_rates;
 970:C:/Users/stapi/OneDrive/Desktop/GD32VW553/V1_MQTT_OK/GD32VW55X_Wifi_BLE_SDK/GD32VW55x_RELEASE_V1.0.2/MSDK/wpa_supplicant/src/ap\ap_config.h **** 	unsigned int beacon_rate;
 971:C:/Users/stapi/OneDrive/Desktop/GD32VW553/V1_MQTT_OK/GD32VW55X_Wifi_BLE_SDK/GD32VW55x_RELEASE_V1.0.2/MSDK/wpa_supplicant/src/ap\ap_config.h **** 	enum beacon_rate_type rate_type;
 972:C:/Users/stapi/OneDrive/Desktop/GD32VW553/V1_MQTT_OK/GD32VW55X_Wifi_BLE_SDK/GD32VW55x_RELEASE_V1.0.2/MSDK/wpa_supplicant/src/ap\ap_config.h **** 
 973:C:/Users/stapi/OneDrive/Desktop/GD32VW553/V1_MQTT_OK/GD32VW55X_Wifi_BLE_SDK/GD32VW55x_RELEASE_V1.0.2/MSDK/wpa_supplicant/src/ap\ap_config.h **** 	const struct wpa_driver_ops *driver;
 974:C:/Users/stapi/OneDrive/Desktop/GD32VW553/V1_MQTT_OK/GD32VW55X_Wifi_BLE_SDK/GD32VW55x_RELEASE_V1.0.2/MSDK/wpa_supplicant/src/ap\ap_config.h **** 	char *driver_params;
 975:C:/Users/stapi/OneDrive/Desktop/GD32VW553/V1_MQTT_OK/GD32VW55X_Wifi_BLE_SDK/GD32VW55x_RELEASE_V1.0.2/MSDK/wpa_supplicant/src/ap\ap_config.h **** 
 976:C:/Users/stapi/OneDrive/Desktop/GD32VW553/V1_MQTT_OK/GD32VW55X_Wifi_BLE_SDK/GD32VW55x_RELEASE_V1.0.2/MSDK/wpa_supplicant/src/ap\ap_config.h **** 	int ap_table_max_size;
 977:C:/Users/stapi/OneDrive/Desktop/GD32VW553/V1_MQTT_OK/GD32VW55X_Wifi_BLE_SDK/GD32VW55x_RELEASE_V1.0.2/MSDK/wpa_supplicant/src/ap\ap_config.h **** 	int ap_table_expiration_time;
 978:C:/Users/stapi/OneDrive/Desktop/GD32VW553/V1_MQTT_OK/GD32VW55X_Wifi_BLE_SDK/GD32VW55x_RELEASE_V1.0.2/MSDK/wpa_supplicant/src/ap\ap_config.h **** 
 979:C:/Users/stapi/OneDrive/Desktop/GD32VW553/V1_MQTT_OK/GD32VW55X_Wifi_BLE_SDK/GD32VW55x_RELEASE_V1.0.2/MSDK/wpa_supplicant/src/ap\ap_config.h **** 	unsigned int track_sta_max_num;
 980:C:/Users/stapi/OneDrive/Desktop/GD32VW553/V1_MQTT_OK/GD32VW55X_Wifi_BLE_SDK/GD32VW55x_RELEASE_V1.0.2/MSDK/wpa_supplicant/src/ap\ap_config.h **** 	unsigned int track_sta_max_age;
 981:C:/Users/stapi/OneDrive/Desktop/GD32VW553/V1_MQTT_OK/GD32VW55X_Wifi_BLE_SDK/GD32VW55x_RELEASE_V1.0.2/MSDK/wpa_supplicant/src/ap\ap_config.h **** 
 982:C:/Users/stapi/OneDrive/Desktop/GD32VW553/V1_MQTT_OK/GD32VW55X_Wifi_BLE_SDK/GD32VW55x_RELEASE_V1.0.2/MSDK/wpa_supplicant/src/ap\ap_config.h **** 	char country[3]; /* first two octets: country code as described in
 983:C:/Users/stapi/OneDrive/Desktop/GD32VW553/V1_MQTT_OK/GD32VW55X_Wifi_BLE_SDK/GD32VW55x_RELEASE_V1.0.2/MSDK/wpa_supplicant/src/ap\ap_config.h **** 			  * ISO/IEC 3166-1. Third octet:
 984:C:/Users/stapi/OneDrive/Desktop/GD32VW553/V1_MQTT_OK/GD32VW55X_Wifi_BLE_SDK/GD32VW55x_RELEASE_V1.0.2/MSDK/wpa_supplicant/src/ap\ap_config.h **** 			  * ' ' (ascii 32): all environments
 985:C:/Users/stapi/OneDrive/Desktop/GD32VW553/V1_MQTT_OK/GD32VW55X_Wifi_BLE_SDK/GD32VW55x_RELEASE_V1.0.2/MSDK/wpa_supplicant/src/ap\ap_config.h **** 			  * 'O': Outdoor environemnt only
 986:C:/Users/stapi/OneDrive/Desktop/GD32VW553/V1_MQTT_OK/GD32VW55X_Wifi_BLE_SDK/GD32VW55x_RELEASE_V1.0.2/MSDK/wpa_supplicant/src/ap\ap_config.h **** 			  * 'I': Indoor environment only
 987:C:/Users/stapi/OneDrive/Desktop/GD32VW553/V1_MQTT_OK/GD32VW55X_Wifi_BLE_SDK/GD32VW55x_RELEASE_V1.0.2/MSDK/wpa_supplicant/src/ap\ap_config.h **** 			  * 'X': Used with noncountry entity ("XXX")
 988:C:/Users/stapi/OneDrive/Desktop/GD32VW553/V1_MQTT_OK/GD32VW55X_Wifi_BLE_SDK/GD32VW55x_RELEASE_V1.0.2/MSDK/wpa_supplicant/src/ap\ap_config.h **** 			  * 0x00..0x31: identifying IEEE 802.11 standard
 989:C:/Users/stapi/OneDrive/Desktop/GD32VW553/V1_MQTT_OK/GD32VW55X_Wifi_BLE_SDK/GD32VW55x_RELEASE_V1.0.2/MSDK/wpa_supplicant/src/ap\ap_config.h **** 			  *	Annex E table (0x04 = global table)
 990:C:/Users/stapi/OneDrive/Desktop/GD32VW553/V1_MQTT_OK/GD32VW55X_Wifi_BLE_SDK/GD32VW55x_RELEASE_V1.0.2/MSDK/wpa_supplicant/src/ap\ap_config.h **** 			  */
 991:C:/Users/stapi/OneDrive/Desktop/GD32VW553/V1_MQTT_OK/GD32VW55X_Wifi_BLE_SDK/GD32VW55x_RELEASE_V1.0.2/MSDK/wpa_supplicant/src/ap\ap_config.h **** 
 992:C:/Users/stapi/OneDrive/Desktop/GD32VW553/V1_MQTT_OK/GD32VW55X_Wifi_BLE_SDK/GD32VW55x_RELEASE_V1.0.2/MSDK/wpa_supplicant/src/ap\ap_config.h **** 	int ieee80211d;
 993:C:/Users/stapi/OneDrive/Desktop/GD32VW553/V1_MQTT_OK/GD32VW55X_Wifi_BLE_SDK/GD32VW55x_RELEASE_V1.0.2/MSDK/wpa_supplicant/src/ap\ap_config.h **** 
 994:C:/Users/stapi/OneDrive/Desktop/GD32VW553/V1_MQTT_OK/GD32VW55X_Wifi_BLE_SDK/GD32VW55x_RELEASE_V1.0.2/MSDK/wpa_supplicant/src/ap\ap_config.h **** 	int ieee80211h; /* DFS */
 995:C:/Users/stapi/OneDrive/Desktop/GD32VW553/V1_MQTT_OK/GD32VW55X_Wifi_BLE_SDK/GD32VW55x_RELEASE_V1.0.2/MSDK/wpa_supplicant/src/ap\ap_config.h **** 
 996:C:/Users/stapi/OneDrive/Desktop/GD32VW553/V1_MQTT_OK/GD32VW55X_Wifi_BLE_SDK/GD32VW55x_RELEASE_V1.0.2/MSDK/wpa_supplicant/src/ap\ap_config.h **** 	/*
 997:C:/Users/stapi/OneDrive/Desktop/GD32VW553/V1_MQTT_OK/GD32VW55X_Wifi_BLE_SDK/GD32VW55x_RELEASE_V1.0.2/MSDK/wpa_supplicant/src/ap\ap_config.h **** 	 * Local power constraint is an octet encoded as an unsigned integer in
 998:C:/Users/stapi/OneDrive/Desktop/GD32VW553/V1_MQTT_OK/GD32VW55X_Wifi_BLE_SDK/GD32VW55x_RELEASE_V1.0.2/MSDK/wpa_supplicant/src/ap\ap_config.h **** 	 * units of decibels. Invalid value -1 indicates that Power Constraint
 999:C:/Users/stapi/OneDrive/Desktop/GD32VW553/V1_MQTT_OK/GD32VW55X_Wifi_BLE_SDK/GD32VW55x_RELEASE_V1.0.2/MSDK/wpa_supplicant/src/ap\ap_config.h **** 	 * element will not be added.
1000:C:/Users/stapi/OneDrive/Desktop/GD32VW553/V1_MQTT_OK/GD32VW55X_Wifi_BLE_SDK/GD32VW55x_RELEASE_V1.0.2/MSDK/wpa_supplicant/src/ap\ap_config.h **** 	 */
1001:C:/Users/stapi/OneDrive/Desktop/GD32VW553/V1_MQTT_OK/GD32VW55X_Wifi_BLE_SDK/GD32VW55x_RELEASE_V1.0.2/MSDK/wpa_supplicant/src/ap\ap_config.h **** 	int local_pwr_constraint;
1002:C:/Users/stapi/OneDrive/Desktop/GD32VW553/V1_MQTT_OK/GD32VW55X_Wifi_BLE_SDK/GD32VW55x_RELEASE_V1.0.2/MSDK/wpa_supplicant/src/ap\ap_config.h **** 
1003:C:/Users/stapi/OneDrive/Desktop/GD32VW553/V1_MQTT_OK/GD32VW55X_Wifi_BLE_SDK/GD32VW55x_RELEASE_V1.0.2/MSDK/wpa_supplicant/src/ap\ap_config.h **** 	/* Control Spectrum Management bit */
1004:C:/Users/stapi/OneDrive/Desktop/GD32VW553/V1_MQTT_OK/GD32VW55X_Wifi_BLE_SDK/GD32VW55x_RELEASE_V1.0.2/MSDK/wpa_supplicant/src/ap\ap_config.h **** 	int spectrum_mgmt_required;
1005:C:/Users/stapi/OneDrive/Desktop/GD32VW553/V1_MQTT_OK/GD32VW55X_Wifi_BLE_SDK/GD32VW55x_RELEASE_V1.0.2/MSDK/wpa_supplicant/src/ap\ap_config.h **** 
1006:C:/Users/stapi/OneDrive/Desktop/GD32VW553/V1_MQTT_OK/GD32VW55X_Wifi_BLE_SDK/GD32VW55x_RELEASE_V1.0.2/MSDK/wpa_supplicant/src/ap\ap_config.h **** 	struct hostapd_tx_queue_params tx_queue[NUM_TX_QUEUES];
1007:C:/Users/stapi/OneDrive/Desktop/GD32VW553/V1_MQTT_OK/GD32VW55X_Wifi_BLE_SDK/GD32VW55x_RELEASE_V1.0.2/MSDK/wpa_supplicant/src/ap\ap_config.h **** 
1008:C:/Users/stapi/OneDrive/Desktop/GD32VW553/V1_MQTT_OK/GD32VW55X_Wifi_BLE_SDK/GD32VW55x_RELEASE_V1.0.2/MSDK/wpa_supplicant/src/ap\ap_config.h **** 	/*
1009:C:/Users/stapi/OneDrive/Desktop/GD32VW553/V1_MQTT_OK/GD32VW55X_Wifi_BLE_SDK/GD32VW55x_RELEASE_V1.0.2/MSDK/wpa_supplicant/src/ap\ap_config.h **** 	 * WMM AC parameters, in same order as 802.1D, i.e.
1010:C:/Users/stapi/OneDrive/Desktop/GD32VW553/V1_MQTT_OK/GD32VW55X_Wifi_BLE_SDK/GD32VW55x_RELEASE_V1.0.2/MSDK/wpa_supplicant/src/ap\ap_config.h **** 	 * 0 = BE (best effort)
1011:C:/Users/stapi/OneDrive/Desktop/GD32VW553/V1_MQTT_OK/GD32VW55X_Wifi_BLE_SDK/GD32VW55x_RELEASE_V1.0.2/MSDK/wpa_supplicant/src/ap\ap_config.h **** 	 * 1 = BK (background)
1012:C:/Users/stapi/OneDrive/Desktop/GD32VW553/V1_MQTT_OK/GD32VW55X_Wifi_BLE_SDK/GD32VW55x_RELEASE_V1.0.2/MSDK/wpa_supplicant/src/ap\ap_config.h **** 	 * 2 = VI (video)
1013:C:/Users/stapi/OneDrive/Desktop/GD32VW553/V1_MQTT_OK/GD32VW55X_Wifi_BLE_SDK/GD32VW55x_RELEASE_V1.0.2/MSDK/wpa_supplicant/src/ap\ap_config.h **** 	 * 3 = VO (voice)
1014:C:/Users/stapi/OneDrive/Desktop/GD32VW553/V1_MQTT_OK/GD32VW55X_Wifi_BLE_SDK/GD32VW55x_RELEASE_V1.0.2/MSDK/wpa_supplicant/src/ap\ap_config.h **** 	 */
1015:C:/Users/stapi/OneDrive/Desktop/GD32VW553/V1_MQTT_OK/GD32VW55X_Wifi_BLE_SDK/GD32VW55x_RELEASE_V1.0.2/MSDK/wpa_supplicant/src/ap\ap_config.h **** 	struct hostapd_wmm_ac_params wmm_ac_params[4];
1016:C:/Users/stapi/OneDrive/Desktop/GD32VW553/V1_MQTT_OK/GD32VW55X_Wifi_BLE_SDK/GD32VW55x_RELEASE_V1.0.2/MSDK/wpa_supplicant/src/ap\ap_config.h **** 
1017:C:/Users/stapi/OneDrive/Desktop/GD32VW553/V1_MQTT_OK/GD32VW55X_Wifi_BLE_SDK/GD32VW55x_RELEASE_V1.0.2/MSDK/wpa_supplicant/src/ap\ap_config.h **** 	int ht_op_mode_fixed;
1018:C:/Users/stapi/OneDrive/Desktop/GD32VW553/V1_MQTT_OK/GD32VW55X_Wifi_BLE_SDK/GD32VW55x_RELEASE_V1.0.2/MSDK/wpa_supplicant/src/ap\ap_config.h **** 	u16 ht_capab;
1019:C:/Users/stapi/OneDrive/Desktop/GD32VW553/V1_MQTT_OK/GD32VW55X_Wifi_BLE_SDK/GD32VW55x_RELEASE_V1.0.2/MSDK/wpa_supplicant/src/ap\ap_config.h **** 	int ieee80211n;
1020:C:/Users/stapi/OneDrive/Desktop/GD32VW553/V1_MQTT_OK/GD32VW55X_Wifi_BLE_SDK/GD32VW55x_RELEASE_V1.0.2/MSDK/wpa_supplicant/src/ap\ap_config.h **** 	int secondary_channel;
1021:C:/Users/stapi/OneDrive/Desktop/GD32VW553/V1_MQTT_OK/GD32VW55X_Wifi_BLE_SDK/GD32VW55x_RELEASE_V1.0.2/MSDK/wpa_supplicant/src/ap\ap_config.h **** 	int no_pri_sec_switch;
1022:C:/Users/stapi/OneDrive/Desktop/GD32VW553/V1_MQTT_OK/GD32VW55X_Wifi_BLE_SDK/GD32VW55x_RELEASE_V1.0.2/MSDK/wpa_supplicant/src/ap\ap_config.h **** 	int require_ht;
1023:C:/Users/stapi/OneDrive/Desktop/GD32VW553/V1_MQTT_OK/GD32VW55X_Wifi_BLE_SDK/GD32VW55x_RELEASE_V1.0.2/MSDK/wpa_supplicant/src/ap\ap_config.h **** 	int obss_interval;
1024:C:/Users/stapi/OneDrive/Desktop/GD32VW553/V1_MQTT_OK/GD32VW55X_Wifi_BLE_SDK/GD32VW55x_RELEASE_V1.0.2/MSDK/wpa_supplicant/src/ap\ap_config.h **** 	u32 vht_capab;
1025:C:/Users/stapi/OneDrive/Desktop/GD32VW553/V1_MQTT_OK/GD32VW55X_Wifi_BLE_SDK/GD32VW55x_RELEASE_V1.0.2/MSDK/wpa_supplicant/src/ap\ap_config.h **** 	int ieee80211ac;
1026:C:/Users/stapi/OneDrive/Desktop/GD32VW553/V1_MQTT_OK/GD32VW55X_Wifi_BLE_SDK/GD32VW55x_RELEASE_V1.0.2/MSDK/wpa_supplicant/src/ap\ap_config.h **** 	int require_vht;
1027:C:/Users/stapi/OneDrive/Desktop/GD32VW553/V1_MQTT_OK/GD32VW55X_Wifi_BLE_SDK/GD32VW55x_RELEASE_V1.0.2/MSDK/wpa_supplicant/src/ap\ap_config.h **** 	u8 vht_oper_chwidth;
1028:C:/Users/stapi/OneDrive/Desktop/GD32VW553/V1_MQTT_OK/GD32VW55X_Wifi_BLE_SDK/GD32VW55x_RELEASE_V1.0.2/MSDK/wpa_supplicant/src/ap\ap_config.h **** 	u8 vht_oper_centr_freq_seg0_idx;
1029:C:/Users/stapi/OneDrive/Desktop/GD32VW553/V1_MQTT_OK/GD32VW55X_Wifi_BLE_SDK/GD32VW55x_RELEASE_V1.0.2/MSDK/wpa_supplicant/src/ap\ap_config.h **** 	u8 vht_oper_centr_freq_seg1_idx;
1030:C:/Users/stapi/OneDrive/Desktop/GD32VW553/V1_MQTT_OK/GD32VW55X_Wifi_BLE_SDK/GD32VW55x_RELEASE_V1.0.2/MSDK/wpa_supplicant/src/ap\ap_config.h **** 	u8 ht40_plus_minus_allowed;
1031:C:/Users/stapi/OneDrive/Desktop/GD32VW553/V1_MQTT_OK/GD32VW55X_Wifi_BLE_SDK/GD32VW55x_RELEASE_V1.0.2/MSDK/wpa_supplicant/src/ap\ap_config.h **** 
1032:C:/Users/stapi/OneDrive/Desktop/GD32VW553/V1_MQTT_OK/GD32VW55X_Wifi_BLE_SDK/GD32VW55x_RELEASE_V1.0.2/MSDK/wpa_supplicant/src/ap\ap_config.h **** 	/* Use driver-generated interface addresses when adding multiple BSSs */
1033:C:/Users/stapi/OneDrive/Desktop/GD32VW553/V1_MQTT_OK/GD32VW55X_Wifi_BLE_SDK/GD32VW55x_RELEASE_V1.0.2/MSDK/wpa_supplicant/src/ap\ap_config.h **** 	u8 use_driver_iface_addr;
1034:C:/Users/stapi/OneDrive/Desktop/GD32VW553/V1_MQTT_OK/GD32VW55X_Wifi_BLE_SDK/GD32VW55x_RELEASE_V1.0.2/MSDK/wpa_supplicant/src/ap\ap_config.h **** 
1035:C:/Users/stapi/OneDrive/Desktop/GD32VW553/V1_MQTT_OK/GD32VW55X_Wifi_BLE_SDK/GD32VW55x_RELEASE_V1.0.2/MSDK/wpa_supplicant/src/ap\ap_config.h **** #ifdef CONFIG_FST
1036:C:/Users/stapi/OneDrive/Desktop/GD32VW553/V1_MQTT_OK/GD32VW55X_Wifi_BLE_SDK/GD32VW55x_RELEASE_V1.0.2/MSDK/wpa_supplicant/src/ap\ap_config.h **** 	struct fst_iface_cfg fst_cfg;
1037:C:/Users/stapi/OneDrive/Desktop/GD32VW553/V1_MQTT_OK/GD32VW55X_Wifi_BLE_SDK/GD32VW55x_RELEASE_V1.0.2/MSDK/wpa_supplicant/src/ap\ap_config.h **** #endif /* CONFIG_FST */
1038:C:/Users/stapi/OneDrive/Desktop/GD32VW553/V1_MQTT_OK/GD32VW55X_Wifi_BLE_SDK/GD32VW55x_RELEASE_V1.0.2/MSDK/wpa_supplicant/src/ap\ap_config.h **** 
1039:C:/Users/stapi/OneDrive/Desktop/GD32VW553/V1_MQTT_OK/GD32VW55X_Wifi_BLE_SDK/GD32VW55x_RELEASE_V1.0.2/MSDK/wpa_supplicant/src/ap\ap_config.h **** #ifdef CONFIG_P2P
1040:C:/Users/stapi/OneDrive/Desktop/GD32VW553/V1_MQTT_OK/GD32VW55X_Wifi_BLE_SDK/GD32VW55x_RELEASE_V1.0.2/MSDK/wpa_supplicant/src/ap\ap_config.h **** 	u8 p2p_go_ctwindow;
1041:C:/Users/stapi/OneDrive/Desktop/GD32VW553/V1_MQTT_OK/GD32VW55X_Wifi_BLE_SDK/GD32VW55x_RELEASE_V1.0.2/MSDK/wpa_supplicant/src/ap\ap_config.h **** #endif /* CONFIG_P2P */
1042:C:/Users/stapi/OneDrive/Desktop/GD32VW553/V1_MQTT_OK/GD32VW55X_Wifi_BLE_SDK/GD32VW55x_RELEASE_V1.0.2/MSDK/wpa_supplicant/src/ap\ap_config.h **** 
1043:C:/Users/stapi/OneDrive/Desktop/GD32VW553/V1_MQTT_OK/GD32VW55X_Wifi_BLE_SDK/GD32VW55x_RELEASE_V1.0.2/MSDK/wpa_supplicant/src/ap\ap_config.h **** #ifdef CONFIG_TESTING_OPTIONS
1044:C:/Users/stapi/OneDrive/Desktop/GD32VW553/V1_MQTT_OK/GD32VW55X_Wifi_BLE_SDK/GD32VW55x_RELEASE_V1.0.2/MSDK/wpa_supplicant/src/ap\ap_config.h **** 	double ignore_probe_probability;
1045:C:/Users/stapi/OneDrive/Desktop/GD32VW553/V1_MQTT_OK/GD32VW55X_Wifi_BLE_SDK/GD32VW55x_RELEASE_V1.0.2/MSDK/wpa_supplicant/src/ap\ap_config.h **** 	double ignore_auth_probability;
1046:C:/Users/stapi/OneDrive/Desktop/GD32VW553/V1_MQTT_OK/GD32VW55X_Wifi_BLE_SDK/GD32VW55x_RELEASE_V1.0.2/MSDK/wpa_supplicant/src/ap\ap_config.h **** 	double ignore_assoc_probability;
1047:C:/Users/stapi/OneDrive/Desktop/GD32VW553/V1_MQTT_OK/GD32VW55X_Wifi_BLE_SDK/GD32VW55x_RELEASE_V1.0.2/MSDK/wpa_supplicant/src/ap\ap_config.h **** 	double ignore_reassoc_probability;
1048:C:/Users/stapi/OneDrive/Desktop/GD32VW553/V1_MQTT_OK/GD32VW55X_Wifi_BLE_SDK/GD32VW55x_RELEASE_V1.0.2/MSDK/wpa_supplicant/src/ap\ap_config.h **** 	double corrupt_gtk_rekey_mic_probability;
1049:C:/Users/stapi/OneDrive/Desktop/GD32VW553/V1_MQTT_OK/GD32VW55X_Wifi_BLE_SDK/GD32VW55x_RELEASE_V1.0.2/MSDK/wpa_supplicant/src/ap\ap_config.h **** 	int ecsa_ie_only;
1050:C:/Users/stapi/OneDrive/Desktop/GD32VW553/V1_MQTT_OK/GD32VW55X_Wifi_BLE_SDK/GD32VW55x_RELEASE_V1.0.2/MSDK/wpa_supplicant/src/ap\ap_config.h **** #endif /* CONFIG_TESTING_OPTIONS */
1051:C:/Users/stapi/OneDrive/Desktop/GD32VW553/V1_MQTT_OK/GD32VW55X_Wifi_BLE_SDK/GD32VW55x_RELEASE_V1.0.2/MSDK/wpa_supplicant/src/ap\ap_config.h **** 
1052:C:/Users/stapi/OneDrive/Desktop/GD32VW553/V1_MQTT_OK/GD32VW55X_Wifi_BLE_SDK/GD32VW55x_RELEASE_V1.0.2/MSDK/wpa_supplicant/src/ap\ap_config.h **** #ifdef CONFIG_ACS
1053:C:/Users/stapi/OneDrive/Desktop/GD32VW553/V1_MQTT_OK/GD32VW55X_Wifi_BLE_SDK/GD32VW55x_RELEASE_V1.0.2/MSDK/wpa_supplicant/src/ap\ap_config.h **** 	unsigned int acs_num_scans;
1054:C:/Users/stapi/OneDrive/Desktop/GD32VW553/V1_MQTT_OK/GD32VW55X_Wifi_BLE_SDK/GD32VW55x_RELEASE_V1.0.2/MSDK/wpa_supplicant/src/ap\ap_config.h **** 	struct acs_bias {
1055:C:/Users/stapi/OneDrive/Desktop/GD32VW553/V1_MQTT_OK/GD32VW55X_Wifi_BLE_SDK/GD32VW55x_RELEASE_V1.0.2/MSDK/wpa_supplicant/src/ap\ap_config.h **** 		int channel;
1056:C:/Users/stapi/OneDrive/Desktop/GD32VW553/V1_MQTT_OK/GD32VW55X_Wifi_BLE_SDK/GD32VW55x_RELEASE_V1.0.2/MSDK/wpa_supplicant/src/ap\ap_config.h **** 		double bias;
1057:C:/Users/stapi/OneDrive/Desktop/GD32VW553/V1_MQTT_OK/GD32VW55X_Wifi_BLE_SDK/GD32VW55x_RELEASE_V1.0.2/MSDK/wpa_supplicant/src/ap\ap_config.h **** 	} *acs_chan_bias;
1058:C:/Users/stapi/OneDrive/Desktop/GD32VW553/V1_MQTT_OK/GD32VW55X_Wifi_BLE_SDK/GD32VW55x_RELEASE_V1.0.2/MSDK/wpa_supplicant/src/ap\ap_config.h **** 	unsigned int num_acs_chan_bias;
1059:C:/Users/stapi/OneDrive/Desktop/GD32VW553/V1_MQTT_OK/GD32VW55X_Wifi_BLE_SDK/GD32VW55x_RELEASE_V1.0.2/MSDK/wpa_supplicant/src/ap\ap_config.h **** #endif /* CONFIG_ACS */
1060:C:/Users/stapi/OneDrive/Desktop/GD32VW553/V1_MQTT_OK/GD32VW55X_Wifi_BLE_SDK/GD32VW55x_RELEASE_V1.0.2/MSDK/wpa_supplicant/src/ap\ap_config.h **** 
1061:C:/Users/stapi/OneDrive/Desktop/GD32VW553/V1_MQTT_OK/GD32VW55X_Wifi_BLE_SDK/GD32VW55x_RELEASE_V1.0.2/MSDK/wpa_supplicant/src/ap\ap_config.h **** 	struct wpabuf *lci;
1062:C:/Users/stapi/OneDrive/Desktop/GD32VW553/V1_MQTT_OK/GD32VW55X_Wifi_BLE_SDK/GD32VW55x_RELEASE_V1.0.2/MSDK/wpa_supplicant/src/ap\ap_config.h **** 	struct wpabuf *civic;
1063:C:/Users/stapi/OneDrive/Desktop/GD32VW553/V1_MQTT_OK/GD32VW55X_Wifi_BLE_SDK/GD32VW55x_RELEASE_V1.0.2/MSDK/wpa_supplicant/src/ap\ap_config.h **** 	int stationary_ap;
1064:C:/Users/stapi/OneDrive/Desktop/GD32VW553/V1_MQTT_OK/GD32VW55X_Wifi_BLE_SDK/GD32VW55x_RELEASE_V1.0.2/MSDK/wpa_supplicant/src/ap\ap_config.h **** 
1065:C:/Users/stapi/OneDrive/Desktop/GD32VW553/V1_MQTT_OK/GD32VW55X_Wifi_BLE_SDK/GD32VW55x_RELEASE_V1.0.2/MSDK/wpa_supplicant/src/ap\ap_config.h **** 	int ieee80211ax;
1066:C:/Users/stapi/OneDrive/Desktop/GD32VW553/V1_MQTT_OK/GD32VW55X_Wifi_BLE_SDK/GD32VW55x_RELEASE_V1.0.2/MSDK/wpa_supplicant/src/ap\ap_config.h **** #ifdef CONFIG_IEEE80211AX
1067:C:/Users/stapi/OneDrive/Desktop/GD32VW553/V1_MQTT_OK/GD32VW55X_Wifi_BLE_SDK/GD32VW55x_RELEASE_V1.0.2/MSDK/wpa_supplicant/src/ap\ap_config.h **** 	struct he_phy_capabilities_info he_phy_capab;
1068:C:/Users/stapi/OneDrive/Desktop/GD32VW553/V1_MQTT_OK/GD32VW55X_Wifi_BLE_SDK/GD32VW55x_RELEASE_V1.0.2/MSDK/wpa_supplicant/src/ap\ap_config.h **** 	struct he_operation he_op;
1069:C:/Users/stapi/OneDrive/Desktop/GD32VW553/V1_MQTT_OK/GD32VW55X_Wifi_BLE_SDK/GD32VW55x_RELEASE_V1.0.2/MSDK/wpa_supplicant/src/ap\ap_config.h **** 	struct ieee80211_he_mu_edca_parameter_set he_mu_edca;
1070:C:/Users/stapi/OneDrive/Desktop/GD32VW553/V1_MQTT_OK/GD32VW55X_Wifi_BLE_SDK/GD32VW55x_RELEASE_V1.0.2/MSDK/wpa_supplicant/src/ap\ap_config.h **** 	struct spatial_reuse spr;
1071:C:/Users/stapi/OneDrive/Desktop/GD32VW553/V1_MQTT_OK/GD32VW55X_Wifi_BLE_SDK/GD32VW55x_RELEASE_V1.0.2/MSDK/wpa_supplicant/src/ap\ap_config.h **** 	u8 he_oper_chwidth;
1072:C:/Users/stapi/OneDrive/Desktop/GD32VW553/V1_MQTT_OK/GD32VW55X_Wifi_BLE_SDK/GD32VW55x_RELEASE_V1.0.2/MSDK/wpa_supplicant/src/ap\ap_config.h **** 	u8 he_oper_centr_freq_seg0_idx;
1073:C:/Users/stapi/OneDrive/Desktop/GD32VW553/V1_MQTT_OK/GD32VW55X_Wifi_BLE_SDK/GD32VW55x_RELEASE_V1.0.2/MSDK/wpa_supplicant/src/ap\ap_config.h **** 	u8 he_oper_centr_freq_seg1_idx;
1074:C:/Users/stapi/OneDrive/Desktop/GD32VW553/V1_MQTT_OK/GD32VW55X_Wifi_BLE_SDK/GD32VW55x_RELEASE_V1.0.2/MSDK/wpa_supplicant/src/ap\ap_config.h **** 	u8 he_6ghz_max_mpdu;
1075:C:/Users/stapi/OneDrive/Desktop/GD32VW553/V1_MQTT_OK/GD32VW55X_Wifi_BLE_SDK/GD32VW55x_RELEASE_V1.0.2/MSDK/wpa_supplicant/src/ap\ap_config.h **** 	u8 he_6ghz_max_ampdu_len_exp;
1076:C:/Users/stapi/OneDrive/Desktop/GD32VW553/V1_MQTT_OK/GD32VW55X_Wifi_BLE_SDK/GD32VW55x_RELEASE_V1.0.2/MSDK/wpa_supplicant/src/ap\ap_config.h **** 	u8 he_6ghz_rx_ant_pat;
1077:C:/Users/stapi/OneDrive/Desktop/GD32VW553/V1_MQTT_OK/GD32VW55X_Wifi_BLE_SDK/GD32VW55x_RELEASE_V1.0.2/MSDK/wpa_supplicant/src/ap\ap_config.h **** 	u8 he_6ghz_tx_ant_pat;
1078:C:/Users/stapi/OneDrive/Desktop/GD32VW553/V1_MQTT_OK/GD32VW55X_Wifi_BLE_SDK/GD32VW55x_RELEASE_V1.0.2/MSDK/wpa_supplicant/src/ap\ap_config.h **** #endif /* CONFIG_IEEE80211AX */
1079:C:/Users/stapi/OneDrive/Desktop/GD32VW553/V1_MQTT_OK/GD32VW55X_Wifi_BLE_SDK/GD32VW55x_RELEASE_V1.0.2/MSDK/wpa_supplicant/src/ap\ap_config.h **** 
1080:C:/Users/stapi/OneDrive/Desktop/GD32VW553/V1_MQTT_OK/GD32VW55X_Wifi_BLE_SDK/GD32VW55x_RELEASE_V1.0.2/MSDK/wpa_supplicant/src/ap\ap_config.h **** 	/* VHT enable/disable config from CHAN_SWITCH */
1081:C:/Users/stapi/OneDrive/Desktop/GD32VW553/V1_MQTT_OK/GD32VW55X_Wifi_BLE_SDK/GD32VW55x_RELEASE_V1.0.2/MSDK/wpa_supplicant/src/ap\ap_config.h **** #define CH_SWITCH_VHT_ENABLED BIT(0)
1082:C:/Users/stapi/OneDrive/Desktop/GD32VW553/V1_MQTT_OK/GD32VW55X_Wifi_BLE_SDK/GD32VW55x_RELEASE_V1.0.2/MSDK/wpa_supplicant/src/ap\ap_config.h **** #define CH_SWITCH_VHT_DISABLED BIT(1)
1083:C:/Users/stapi/OneDrive/Desktop/GD32VW553/V1_MQTT_OK/GD32VW55X_Wifi_BLE_SDK/GD32VW55x_RELEASE_V1.0.2/MSDK/wpa_supplicant/src/ap\ap_config.h **** 	unsigned int ch_switch_vht_config;
1084:C:/Users/stapi/OneDrive/Desktop/GD32VW553/V1_MQTT_OK/GD32VW55X_Wifi_BLE_SDK/GD32VW55x_RELEASE_V1.0.2/MSDK/wpa_supplicant/src/ap\ap_config.h **** 
1085:C:/Users/stapi/OneDrive/Desktop/GD32VW553/V1_MQTT_OK/GD32VW55X_Wifi_BLE_SDK/GD32VW55x_RELEASE_V1.0.2/MSDK/wpa_supplicant/src/ap\ap_config.h **** 	/* HE enable/disable config from CHAN_SWITCH */
1086:C:/Users/stapi/OneDrive/Desktop/GD32VW553/V1_MQTT_OK/GD32VW55X_Wifi_BLE_SDK/GD32VW55x_RELEASE_V1.0.2/MSDK/wpa_supplicant/src/ap\ap_config.h **** #define CH_SWITCH_HE_ENABLED BIT(0)
1087:C:/Users/stapi/OneDrive/Desktop/GD32VW553/V1_MQTT_OK/GD32VW55X_Wifi_BLE_SDK/GD32VW55x_RELEASE_V1.0.2/MSDK/wpa_supplicant/src/ap\ap_config.h **** #define CH_SWITCH_HE_DISABLED BIT(1)
1088:C:/Users/stapi/OneDrive/Desktop/GD32VW553/V1_MQTT_OK/GD32VW55X_Wifi_BLE_SDK/GD32VW55x_RELEASE_V1.0.2/MSDK/wpa_supplicant/src/ap\ap_config.h **** 	unsigned int ch_switch_he_config;
1089:C:/Users/stapi/OneDrive/Desktop/GD32VW553/V1_MQTT_OK/GD32VW55X_Wifi_BLE_SDK/GD32VW55x_RELEASE_V1.0.2/MSDK/wpa_supplicant/src/ap\ap_config.h **** 
1090:C:/Users/stapi/OneDrive/Desktop/GD32VW553/V1_MQTT_OK/GD32VW55X_Wifi_BLE_SDK/GD32VW55x_RELEASE_V1.0.2/MSDK/wpa_supplicant/src/ap\ap_config.h **** 	int rssi_reject_assoc_rssi;
1091:C:/Users/stapi/OneDrive/Desktop/GD32VW553/V1_MQTT_OK/GD32VW55X_Wifi_BLE_SDK/GD32VW55x_RELEASE_V1.0.2/MSDK/wpa_supplicant/src/ap\ap_config.h **** 	int rssi_reject_assoc_timeout;
1092:C:/Users/stapi/OneDrive/Desktop/GD32VW553/V1_MQTT_OK/GD32VW55X_Wifi_BLE_SDK/GD32VW55x_RELEASE_V1.0.2/MSDK/wpa_supplicant/src/ap\ap_config.h **** 	int rssi_ignore_probe_request;
1093:C:/Users/stapi/OneDrive/Desktop/GD32VW553/V1_MQTT_OK/GD32VW55X_Wifi_BLE_SDK/GD32VW55x_RELEASE_V1.0.2/MSDK/wpa_supplicant/src/ap\ap_config.h **** 
1094:C:/Users/stapi/OneDrive/Desktop/GD32VW553/V1_MQTT_OK/GD32VW55X_Wifi_BLE_SDK/GD32VW55x_RELEASE_V1.0.2/MSDK/wpa_supplicant/src/ap\ap_config.h **** #ifdef CONFIG_AIRTIME_POLICY
1095:C:/Users/stapi/OneDrive/Desktop/GD32VW553/V1_MQTT_OK/GD32VW55X_Wifi_BLE_SDK/GD32VW55x_RELEASE_V1.0.2/MSDK/wpa_supplicant/src/ap\ap_config.h **** 	enum {
1096:C:/Users/stapi/OneDrive/Desktop/GD32VW553/V1_MQTT_OK/GD32VW55X_Wifi_BLE_SDK/GD32VW55x_RELEASE_V1.0.2/MSDK/wpa_supplicant/src/ap\ap_config.h **** 		AIRTIME_MODE_OFF = 0,
1097:C:/Users/stapi/OneDrive/Desktop/GD32VW553/V1_MQTT_OK/GD32VW55X_Wifi_BLE_SDK/GD32VW55x_RELEASE_V1.0.2/MSDK/wpa_supplicant/src/ap\ap_config.h **** 		AIRTIME_MODE_STATIC = 1,
1098:C:/Users/stapi/OneDrive/Desktop/GD32VW553/V1_MQTT_OK/GD32VW55X_Wifi_BLE_SDK/GD32VW55x_RELEASE_V1.0.2/MSDK/wpa_supplicant/src/ap\ap_config.h **** 		AIRTIME_MODE_DYNAMIC = 2,
1099:C:/Users/stapi/OneDrive/Desktop/GD32VW553/V1_MQTT_OK/GD32VW55X_Wifi_BLE_SDK/GD32VW55x_RELEASE_V1.0.2/MSDK/wpa_supplicant/src/ap\ap_config.h **** 		AIRTIME_MODE_LIMIT = 3,
1100:C:/Users/stapi/OneDrive/Desktop/GD32VW553/V1_MQTT_OK/GD32VW55X_Wifi_BLE_SDK/GD32VW55x_RELEASE_V1.0.2/MSDK/wpa_supplicant/src/ap\ap_config.h **** 		__AIRTIME_MODE_MAX,
1101:C:/Users/stapi/OneDrive/Desktop/GD32VW553/V1_MQTT_OK/GD32VW55X_Wifi_BLE_SDK/GD32VW55x_RELEASE_V1.0.2/MSDK/wpa_supplicant/src/ap\ap_config.h **** 	} airtime_mode;
1102:C:/Users/stapi/OneDrive/Desktop/GD32VW553/V1_MQTT_OK/GD32VW55X_Wifi_BLE_SDK/GD32VW55x_RELEASE_V1.0.2/MSDK/wpa_supplicant/src/ap\ap_config.h **** 	unsigned int airtime_update_interval;
1103:C:/Users/stapi/OneDrive/Desktop/GD32VW553/V1_MQTT_OK/GD32VW55X_Wifi_BLE_SDK/GD32VW55x_RELEASE_V1.0.2/MSDK/wpa_supplicant/src/ap\ap_config.h **** #define AIRTIME_MODE_MAX (__AIRTIME_MODE_MAX - 1)
1104:C:/Users/stapi/OneDrive/Desktop/GD32VW553/V1_MQTT_OK/GD32VW55X_Wifi_BLE_SDK/GD32VW55x_RELEASE_V1.0.2/MSDK/wpa_supplicant/src/ap\ap_config.h **** #endif /* CONFIG_AIRTIME_POLICY */
1105:C:/Users/stapi/OneDrive/Desktop/GD32VW553/V1_MQTT_OK/GD32VW55X_Wifi_BLE_SDK/GD32VW55x_RELEASE_V1.0.2/MSDK/wpa_supplicant/src/ap\ap_config.h **** };
1106:C:/Users/stapi/OneDrive/Desktop/GD32VW553/V1_MQTT_OK/GD32VW55X_Wifi_BLE_SDK/GD32VW55x_RELEASE_V1.0.2/MSDK/wpa_supplicant/src/ap\ap_config.h **** 
1107:C:/Users/stapi/OneDrive/Desktop/GD32VW553/V1_MQTT_OK/GD32VW55X_Wifi_BLE_SDK/GD32VW55x_RELEASE_V1.0.2/MSDK/wpa_supplicant/src/ap\ap_config.h **** 
1108:C:/Users/stapi/OneDrive/Desktop/GD32VW553/V1_MQTT_OK/GD32VW55X_Wifi_BLE_SDK/GD32VW55x_RELEASE_V1.0.2/MSDK/wpa_supplicant/src/ap\ap_config.h **** static inline u8 hostapd_get_oper_chwidth(struct hostapd_config *conf)
1109:C:/Users/stapi/OneDrive/Desktop/GD32VW553/V1_MQTT_OK/GD32VW55X_Wifi_BLE_SDK/GD32VW55x_RELEASE_V1.0.2/MSDK/wpa_supplicant/src/ap\ap_config.h **** {
1110:C:/Users/stapi/OneDrive/Desktop/GD32VW553/V1_MQTT_OK/GD32VW55X_Wifi_BLE_SDK/GD32VW55x_RELEASE_V1.0.2/MSDK/wpa_supplicant/src/ap\ap_config.h **** #ifdef CONFIG_IEEE80211AX
1111:C:/Users/stapi/OneDrive/Desktop/GD32VW553/V1_MQTT_OK/GD32VW55X_Wifi_BLE_SDK/GD32VW55x_RELEASE_V1.0.2/MSDK/wpa_supplicant/src/ap\ap_config.h **** 	if (conf->ieee80211ax)
 1033              		.loc 5 1111 2 is_stmt 1
 1034              		.loc 5 1111 5 is_stmt 0
 1035 00ae 29C2     		beq	a2,zero,.L89
1112:C:/Users/stapi/OneDrive/Desktop/GD32VW553/V1_MQTT_OK/GD32VW55X_Wifi_BLE_SDK/GD32VW55x_RELEASE_V1.0.2/MSDK/wpa_supplicant/src/ap\ap_config.h **** 		return conf->he_oper_chwidth;
 1036              		.loc 5 1112 3 is_stmt 1
 1037              		.loc 5 1112 14 is_stmt 0
 1038 00b0 03C69718 		lbu	a2,393(a5)
 1039              	.L90:
 1040              	.LVL87:
 1041              	.LBE89:
 1042              	.LBE88:
 1043              		.loc 1 269 6
 1044 00b4 13079100 		addi	a4,sp,9
 1045 00b8 9306A100 		addi	a3,sp,10
 1046 00bc 97000000 		call	ieee80211_freq_to_channel_ext
 1046      E7800000 
 1047              	.LVL88:
 1048              		.loc 1 269 5
 1049 00c4 9547     		li	a5,5
 1050 00c6 6309F51C 		beq	a0,a5,.L77
 270:C:/Users/stapi/OneDrive/Desktop/GD32VW553/V1_MQTT_OK/GD32VW55X_Wifi_BLE_SDK/GD32VW55x_RELEASE_V1.0.2/MSDK/wpa_supplicant/src/ap\neighbor_db.c **** 					  hapd->iconf->secondary_channel,
 271:C:/Users/stapi/OneDrive/Desktop/GD32VW553/V1_MQTT_OK/GD32VW55X_Wifi_BLE_SDK/GD32VW55x_RELEASE_V1.0.2/MSDK/wpa_supplicant/src/ap\neighbor_db.c **** 					  hostapd_get_oper_chwidth(hapd->iconf),
 272:C:/Users/stapi/OneDrive/Desktop/GD32VW553/V1_MQTT_OK/GD32VW55X_Wifi_BLE_SDK/GD32VW55x_RELEASE_V1.0.2/MSDK/wpa_supplicant/src/ap\neighbor_db.c **** 					  &op_class, &channel) ==
 273:C:/Users/stapi/OneDrive/Desktop/GD32VW553/V1_MQTT_OK/GD32VW55X_Wifi_BLE_SDK/GD32VW55x_RELEASE_V1.0.2/MSDK/wpa_supplicant/src/ap\neighbor_db.c **** 	    NUM_HOSTAPD_MODES)
 274:C:/Users/stapi/OneDrive/Desktop/GD32VW553/V1_MQTT_OK/GD32VW55X_Wifi_BLE_SDK/GD32VW55x_RELEASE_V1.0.2/MSDK/wpa_supplicant/src/ap\neighbor_db.c **** 		return;
 275:C:/Users/stapi/OneDrive/Desktop/GD32VW553/V1_MQTT_OK/GD32VW55X_Wifi_BLE_SDK/GD32VW55x_RELEASE_V1.0.2/MSDK/wpa_supplicant/src/ap\neighbor_db.c **** 	width = hostapd_get_nr_chan_width(hapd, ht, vht, he);
 1051              		.loc 1 275 2 is_stmt 1
 1052 00ca 03274900 		lw	a4,4(s2)
 1053              	.LVL89:
 1054              	.LBB91:
 1055              	.LBB92:
 202:C:/Users/stapi/OneDrive/Desktop/GD32VW553/V1_MQTT_OK/GD32VW55X_Wifi_BLE_SDK/GD32VW55x_RELEASE_V1.0.2/MSDK/wpa_supplicant/src/ap\neighbor_db.c **** 
 1056              		.loc 1 202 2
 1057              	.LBB93:
 1058              	.LBB94:
1111:C:/Users/stapi/OneDrive/Desktop/GD32VW553/V1_MQTT_OK/GD32VW55X_Wifi_BLE_SDK/GD32VW55x_RELEASE_V1.0.2/MSDK/wpa_supplicant/src/ap\ap_config.h **** 		return conf->he_oper_chwidth;
 1059              		.loc 5 1111 2
1111:C:/Users/stapi/OneDrive/Desktop/GD32VW553/V1_MQTT_OK/GD32VW55X_Wifi_BLE_SDK/GD32VW55x_RELEASE_V1.0.2/MSDK/wpa_supplicant/src/ap\ap_config.h **** 		return conf->he_oper_chwidth;
 1060              		.loc 5 1111 10 is_stmt 0
 1061 00ce 83264715 		lw	a3,340(a4)
1111:C:/Users/stapi/OneDrive/Desktop/GD32VW553/V1_MQTT_OK/GD32VW55X_Wifi_BLE_SDK/GD32VW55x_RELEASE_V1.0.2/MSDK/wpa_supplicant/src/ap\ap_config.h **** 		return conf->he_oper_chwidth;
 1062              		.loc 5 1111 5
 1063 00d2 95C2     		beq	a3,zero,.L91
 1064              		.loc 5 1112 3 is_stmt 1
 1065              		.loc 5 1112 14 is_stmt 0
 1066 00d4 83479718 		lbu	a5,393(a4)
 1067              	.L92:
 1068              	.LVL90:
 1069              	.LBE94:
 1070              	.LBE93:
 204:C:/Users/stapi/OneDrive/Desktop/GD32VW553/V1_MQTT_OK/GD32VW55X_Wifi_BLE_SDK/GD32VW55x_RELEASE_V1.0.2/MSDK/wpa_supplicant/src/ap\neighbor_db.c **** 		return NR_CHAN_WIDTH_20;
 1071              		.loc 1 204 2 is_stmt 1
 204:C:/Users/stapi/OneDrive/Desktop/GD32VW553/V1_MQTT_OK/GD32VW55X_Wifi_BLE_SDK/GD32VW55x_RELEASE_V1.0.2/MSDK/wpa_supplicant/src/ap\neighbor_db.c **** 		return NR_CHAN_WIDTH_20;
 1072              		.loc 1 204 18 is_stmt 0
 1073 00d8 33E64A01 		or	a2,s5,s4
 1074 00dc 418E     		or	a2,a2,s0
 1075 00de 29CE     		beq	a2,zero,.L112
 206:C:/Users/stapi/OneDrive/Desktop/GD32VW553/V1_MQTT_OK/GD32VW55X_Wifi_BLE_SDK/GD32VW55x_RELEASE_V1.0.2/MSDK/wpa_supplicant/src/ap\neighbor_db.c **** 		return NR_CHAN_WIDTH_20;
 1076              		.loc 1 206 2 is_stmt 1
 206:C:/Users/stapi/OneDrive/Desktop/GD32VW553/V1_MQTT_OK/GD32VW55X_Wifi_BLE_SDK/GD32VW55x_RELEASE_V1.0.2/MSDK/wpa_supplicant/src/ap\neighbor_db.c **** 		return NR_CHAN_WIDTH_20;
 1077              		.loc 1 206 18 is_stmt 0
 1078 00e0 03264712 		lw	a2,292(a4)
 206:C:/Users/stapi/OneDrive/Desktop/GD32VW553/V1_MQTT_OK/GD32VW55X_Wifi_BLE_SDK/GD32VW55x_RELEASE_V1.0.2/MSDK/wpa_supplicant/src/ap\neighbor_db.c **** 		return NR_CHAN_WIDTH_20;
 1079              		.loc 1 206 5
 1080 00e4 01CE     		beq	a2,zero,.L94
 208:C:/Users/stapi/OneDrive/Desktop/GD32VW553/V1_MQTT_OK/GD32VW55X_Wifi_BLE_SDK/GD32VW55x_RELEASE_V1.0.2/MSDK/wpa_supplicant/src/ap\neighbor_db.c **** 		return NR_CHAN_WIDTH_40;
 1081              		.loc 1 208 2 is_stmt 1
 208:C:/Users/stapi/OneDrive/Desktop/GD32VW553/V1_MQTT_OK/GD32VW55X_Wifi_BLE_SDK/GD32VW55x_RELEASE_V1.0.2/MSDK/wpa_supplicant/src/ap\neighbor_db.c **** 		return NR_CHAN_WIDTH_40;
 1082              		.loc 1 208 5 is_stmt 0
 1083 00e6 631B0A04 		bne	s4,zero,.L95
 208:C:/Users/stapi/OneDrive/Desktop/GD32VW553/V1_MQTT_OK/GD32VW55X_Wifi_BLE_SDK/GD32VW55x_RELEASE_V1.0.2/MSDK/wpa_supplicant/src/ap\neighbor_db.c **** 		return NR_CHAN_WIDTH_40;
 1084              		.loc 1 208 12
 1085 00ea 21EC     		bne	s0,zero,.L157
 209:C:/Users/stapi/OneDrive/Desktop/GD32VW553/V1_MQTT_OK/GD32VW55X_Wifi_BLE_SDK/GD32VW55x_RELEASE_V1.0.2/MSDK/wpa_supplicant/src/ap\neighbor_db.c **** 	if (oper_chwidth == CHANWIDTH_80MHZ)
 1086              		.loc 1 209 10
 1087 00ec 8544     		li	s1,1
 1088 00ee 31A8     		j	.L96
 1089              	.LVL91:
 1090              	.L89:
 1091              	.LBE92:
 1092              	.LBE91:
 1093              	.LBB100:
 1094              	.LBB90:
1113:C:/Users/stapi/OneDrive/Desktop/GD32VW553/V1_MQTT_OK/GD32VW55X_Wifi_BLE_SDK/GD32VW55x_RELEASE_V1.0.2/MSDK/wpa_supplicant/src/ap\ap_config.h **** #endif /* CONFIG_IEEE80211AX */
1114:C:/Users/stapi/OneDrive/Desktop/GD32VW553/V1_MQTT_OK/GD32VW55X_Wifi_BLE_SDK/GD32VW55x_RELEASE_V1.0.2/MSDK/wpa_supplicant/src/ap\ap_config.h **** 	return conf->vht_oper_chwidth;
 1095              		.loc 5 1114 2 is_stmt 1
 1096              		.loc 5 1114 13 is_stmt 0
 1097 00f0 03C60714 		lbu	a2,320(a5)
 1098 00f4 C1B7     		j	.L90
 1099              	.LVL92:
 1100              	.L91:
 1101              	.LBE90:
 1102              	.LBE100:
 1103              	.LBB101:
 1104              	.LBB97:
 1105              	.LBB96:
 1106              	.LBB95:
 1107              		.loc 5 1114 2 is_stmt 1
 1108              		.loc 5 1114 13 is_stmt 0
 1109 00f6 83470714 		lbu	a5,320(a4)
 1110 00fa F9BF     		j	.L92
 1111              	.LVL93:
 1112              	.L94:
 1113              	.LBE95:
 1114              	.LBE96:
 1115              	.LBE97:
 1116              	.LBE101:
 276:C:/Users/stapi/OneDrive/Desktop/GD32VW553/V1_MQTT_OK/GD32VW55X_Wifi_BLE_SDK/GD32VW55x_RELEASE_V1.0.2/MSDK/wpa_supplicant/src/ap\neighbor_db.c **** 	if (vht) {
 1117              		.loc 1 276 2 is_stmt 1
 1118 00fc 8144     		li	s1,0
 1119              		.loc 1 276 5 is_stmt 0
 1120 00fe 631D0A06 		bne	s4,zero,.L103
 1121              	.LVL94:
 1122              	.L114:
 1123 0102 8144     		li	s1,0
 1124              	.L105:
 1125              	.LVL95:
 277:C:/Users/stapi/OneDrive/Desktop/GD32VW553/V1_MQTT_OK/GD32VW55X_Wifi_BLE_SDK/GD32VW55x_RELEASE_V1.0.2/MSDK/wpa_supplicant/src/ap\neighbor_db.c **** 		center_freq1_idx = hostapd_get_oper_centr_freq_seg0_idx(
 278:C:/Users/stapi/OneDrive/Desktop/GD32VW553/V1_MQTT_OK/GD32VW55X_Wifi_BLE_SDK/GD32VW55x_RELEASE_V1.0.2/MSDK/wpa_supplicant/src/ap\neighbor_db.c **** 			hapd->iconf);
 279:C:/Users/stapi/OneDrive/Desktop/GD32VW553/V1_MQTT_OK/GD32VW55X_Wifi_BLE_SDK/GD32VW55x_RELEASE_V1.0.2/MSDK/wpa_supplicant/src/ap\neighbor_db.c **** 		if (width == NR_CHAN_WIDTH_80P80)
 280:C:/Users/stapi/OneDrive/Desktop/GD32VW553/V1_MQTT_OK/GD32VW55X_Wifi_BLE_SDK/GD32VW55x_RELEASE_V1.0.2/MSDK/wpa_supplicant/src/ap\neighbor_db.c **** 			center_freq2_idx =
 281:C:/Users/stapi/OneDrive/Desktop/GD32VW553/V1_MQTT_OK/GD32VW55X_Wifi_BLE_SDK/GD32VW55x_RELEASE_V1.0.2/MSDK/wpa_supplicant/src/ap\neighbor_db.c **** 				hostapd_get_oper_centr_freq_seg1_idx(
 282:C:/Users/stapi/OneDrive/Desktop/GD32VW553/V1_MQTT_OK/GD32VW55X_Wifi_BLE_SDK/GD32VW55x_RELEASE_V1.0.2/MSDK/wpa_supplicant/src/ap\neighbor_db.c **** 					hapd->iconf);
 283:C:/Users/stapi/OneDrive/Desktop/GD32VW553/V1_MQTT_OK/GD32VW55X_Wifi_BLE_SDK/GD32VW55x_RELEASE_V1.0.2/MSDK/wpa_supplicant/src/ap\neighbor_db.c **** 	} else if (ht) {
 1126              		.loc 1 283 9 is_stmt 1
 230:C:/Users/stapi/OneDrive/Desktop/GD32VW553/V1_MQTT_OK/GD32VW55X_Wifi_BLE_SDK/GD32VW55x_RELEASE_V1.0.2/MSDK/wpa_supplicant/src/ap\neighbor_db.c **** 	enum nr_chan_width width;
 1127              		.loc 1 230 27 is_stmt 0
 1128 0104 014B     		li	s6,0
 1129              		.loc 1 283 12
 1130 0106 63850A08 		beq	s5,zero,.L93
 1131              	.LVL96:
 1132              	.L96:
 284:C:/Users/stapi/OneDrive/Desktop/GD32VW553/V1_MQTT_OK/GD32VW55X_Wifi_BLE_SDK/GD32VW55x_RELEASE_V1.0.2/MSDK/wpa_supplicant/src/ap\neighbor_db.c **** 		ieee80211_freq_to_chan(hapd->iface->freq +
 1133              		.loc 1 284 3 is_stmt 1
 1134              		.loc 1 284 37 is_stmt 0
 1135 010a 83270900 		lw	a5,0(s2)
 1136              		.loc 1 284 3
 1137 010e 9305B100 		addi	a1,sp,11
 1138 0112 03A54747 		lw	a0,1140(a5)
 1139 0116 A947     		li	a5,10
 1140 0118 7F15F6C4 		maddr32	a0, a2, a5
 1141 011c 97000000 		call	ieee80211_freq_to_chan
 1141      E7800000 
 1142              	.LVL97:
 1143              	.L164:
 230:C:/Users/stapi/OneDrive/Desktop/GD32VW553/V1_MQTT_OK/GD32VW55X_Wifi_BLE_SDK/GD32VW55x_RELEASE_V1.0.2/MSDK/wpa_supplicant/src/ap\neighbor_db.c **** 	enum nr_chan_width width;
 1144              		.loc 1 230 27
 1145 0124 014B     		li	s6,0
 1146 0126 ADA0     		j	.L93
 1147              	.LVL98:
 1148              	.L122:
 1149              	.LBB102:
 1150              	.LBB98:
 213:C:/Users/stapi/OneDrive/Desktop/GD32VW553/V1_MQTT_OK/GD32VW55X_Wifi_BLE_SDK/GD32VW55x_RELEASE_V1.0.2/MSDK/wpa_supplicant/src/ap\neighbor_db.c **** 	if (oper_chwidth == CHANWIDTH_80P80MHZ)
 1151              		.loc 1 213 10
 1152 0128 8D44     		li	s1,3
 1153 012a B9A0     		j	.L103
 1154              	.LVL99:
 1155              	.L99:
 1156              	.LBE98:
 1157              	.LBE102:
 1158              	.LBB103:
 1159              	.LBB104:
1115:C:/Users/stapi/OneDrive/Desktop/GD32VW553/V1_MQTT_OK/GD32VW55X_Wifi_BLE_SDK/GD32VW55x_RELEASE_V1.0.2/MSDK/wpa_supplicant/src/ap\ap_config.h **** }
1116:C:/Users/stapi/OneDrive/Desktop/GD32VW553/V1_MQTT_OK/GD32VW55X_Wifi_BLE_SDK/GD32VW55x_RELEASE_V1.0.2/MSDK/wpa_supplicant/src/ap\ap_config.h **** 
1117:C:/Users/stapi/OneDrive/Desktop/GD32VW553/V1_MQTT_OK/GD32VW55X_Wifi_BLE_SDK/GD32VW55x_RELEASE_V1.0.2/MSDK/wpa_supplicant/src/ap\ap_config.h **** static inline void
1118:C:/Users/stapi/OneDrive/Desktop/GD32VW553/V1_MQTT_OK/GD32VW55X_Wifi_BLE_SDK/GD32VW55x_RELEASE_V1.0.2/MSDK/wpa_supplicant/src/ap\ap_config.h **** hostapd_set_oper_chwidth(struct hostapd_config *conf, u8 oper_chwidth)
1119:C:/Users/stapi/OneDrive/Desktop/GD32VW553/V1_MQTT_OK/GD32VW55X_Wifi_BLE_SDK/GD32VW55x_RELEASE_V1.0.2/MSDK/wpa_supplicant/src/ap\ap_config.h **** {
1120:C:/Users/stapi/OneDrive/Desktop/GD32VW553/V1_MQTT_OK/GD32VW55X_Wifi_BLE_SDK/GD32VW55x_RELEASE_V1.0.2/MSDK/wpa_supplicant/src/ap\ap_config.h **** #ifdef CONFIG_IEEE80211AX
1121:C:/Users/stapi/OneDrive/Desktop/GD32VW553/V1_MQTT_OK/GD32VW55X_Wifi_BLE_SDK/GD32VW55x_RELEASE_V1.0.2/MSDK/wpa_supplicant/src/ap\ap_config.h **** 	if (conf->ieee80211ax)
1122:C:/Users/stapi/OneDrive/Desktop/GD32VW553/V1_MQTT_OK/GD32VW55X_Wifi_BLE_SDK/GD32VW55x_RELEASE_V1.0.2/MSDK/wpa_supplicant/src/ap\ap_config.h **** 		conf->he_oper_chwidth = oper_chwidth;
1123:C:/Users/stapi/OneDrive/Desktop/GD32VW553/V1_MQTT_OK/GD32VW55X_Wifi_BLE_SDK/GD32VW55x_RELEASE_V1.0.2/MSDK/wpa_supplicant/src/ap\ap_config.h **** #endif /* CONFIG_IEEE80211AX */
1124:C:/Users/stapi/OneDrive/Desktop/GD32VW553/V1_MQTT_OK/GD32VW55X_Wifi_BLE_SDK/GD32VW55x_RELEASE_V1.0.2/MSDK/wpa_supplicant/src/ap\ap_config.h **** 	conf->vht_oper_chwidth = oper_chwidth;
1125:C:/Users/stapi/OneDrive/Desktop/GD32VW553/V1_MQTT_OK/GD32VW55X_Wifi_BLE_SDK/GD32VW55x_RELEASE_V1.0.2/MSDK/wpa_supplicant/src/ap\ap_config.h **** }
1126:C:/Users/stapi/OneDrive/Desktop/GD32VW553/V1_MQTT_OK/GD32VW55X_Wifi_BLE_SDK/GD32VW55x_RELEASE_V1.0.2/MSDK/wpa_supplicant/src/ap\ap_config.h **** 
1127:C:/Users/stapi/OneDrive/Desktop/GD32VW553/V1_MQTT_OK/GD32VW55X_Wifi_BLE_SDK/GD32VW55x_RELEASE_V1.0.2/MSDK/wpa_supplicant/src/ap\ap_config.h **** static inline u8
1128:C:/Users/stapi/OneDrive/Desktop/GD32VW553/V1_MQTT_OK/GD32VW55X_Wifi_BLE_SDK/GD32VW55x_RELEASE_V1.0.2/MSDK/wpa_supplicant/src/ap\ap_config.h **** hostapd_get_oper_centr_freq_seg0_idx(struct hostapd_config *conf)
1129:C:/Users/stapi/OneDrive/Desktop/GD32VW553/V1_MQTT_OK/GD32VW55X_Wifi_BLE_SDK/GD32VW55x_RELEASE_V1.0.2/MSDK/wpa_supplicant/src/ap\ap_config.h **** {
1130:C:/Users/stapi/OneDrive/Desktop/GD32VW553/V1_MQTT_OK/GD32VW55X_Wifi_BLE_SDK/GD32VW55x_RELEASE_V1.0.2/MSDK/wpa_supplicant/src/ap\ap_config.h **** #ifdef CONFIG_IEEE80211AX
1131:C:/Users/stapi/OneDrive/Desktop/GD32VW553/V1_MQTT_OK/GD32VW55X_Wifi_BLE_SDK/GD32VW55x_RELEASE_V1.0.2/MSDK/wpa_supplicant/src/ap\ap_config.h **** 	if (conf->ieee80211ax)
1132:C:/Users/stapi/OneDrive/Desktop/GD32VW553/V1_MQTT_OK/GD32VW55X_Wifi_BLE_SDK/GD32VW55x_RELEASE_V1.0.2/MSDK/wpa_supplicant/src/ap\ap_config.h **** 		return conf->he_oper_centr_freq_seg0_idx;
1133:C:/Users/stapi/OneDrive/Desktop/GD32VW553/V1_MQTT_OK/GD32VW55X_Wifi_BLE_SDK/GD32VW55x_RELEASE_V1.0.2/MSDK/wpa_supplicant/src/ap\ap_config.h **** #endif /* CONFIG_IEEE80211AX */
1134:C:/Users/stapi/OneDrive/Desktop/GD32VW553/V1_MQTT_OK/GD32VW55X_Wifi_BLE_SDK/GD32VW55x_RELEASE_V1.0.2/MSDK/wpa_supplicant/src/ap\ap_config.h **** 	return conf->vht_oper_centr_freq_seg0_idx;
 1160              		.loc 5 1134 2 is_stmt 1
 1161              		.loc 5 1134 13 is_stmt 0
 1162 012c 83471714 		lbu	a5,321(a4)
 1163 0130 B9A0     		j	.L100
 1164              	.LVL100:
 1165              	.L101:
 1166              	.LBE104:
 1167              	.LBE103:
 1168              	.LBB106:
 1169              	.LBB107:
1135:C:/Users/stapi/OneDrive/Desktop/GD32VW553/V1_MQTT_OK/GD32VW55X_Wifi_BLE_SDK/GD32VW55x_RELEASE_V1.0.2/MSDK/wpa_supplicant/src/ap\ap_config.h **** }
1136:C:/Users/stapi/OneDrive/Desktop/GD32VW553/V1_MQTT_OK/GD32VW55X_Wifi_BLE_SDK/GD32VW55x_RELEASE_V1.0.2/MSDK/wpa_supplicant/src/ap\ap_config.h **** 
1137:C:/Users/stapi/OneDrive/Desktop/GD32VW553/V1_MQTT_OK/GD32VW55X_Wifi_BLE_SDK/GD32VW55x_RELEASE_V1.0.2/MSDK/wpa_supplicant/src/ap\ap_config.h **** static inline void
1138:C:/Users/stapi/OneDrive/Desktop/GD32VW553/V1_MQTT_OK/GD32VW55X_Wifi_BLE_SDK/GD32VW55x_RELEASE_V1.0.2/MSDK/wpa_supplicant/src/ap\ap_config.h **** hostapd_set_oper_centr_freq_seg0_idx(struct hostapd_config *conf,
1139:C:/Users/stapi/OneDrive/Desktop/GD32VW553/V1_MQTT_OK/GD32VW55X_Wifi_BLE_SDK/GD32VW55x_RELEASE_V1.0.2/MSDK/wpa_supplicant/src/ap\ap_config.h **** 				     u8 oper_centr_freq_seg0_idx)
1140:C:/Users/stapi/OneDrive/Desktop/GD32VW553/V1_MQTT_OK/GD32VW55X_Wifi_BLE_SDK/GD32VW55x_RELEASE_V1.0.2/MSDK/wpa_supplicant/src/ap\ap_config.h **** {
1141:C:/Users/stapi/OneDrive/Desktop/GD32VW553/V1_MQTT_OK/GD32VW55X_Wifi_BLE_SDK/GD32VW55x_RELEASE_V1.0.2/MSDK/wpa_supplicant/src/ap\ap_config.h **** #ifdef CONFIG_IEEE80211AX
1142:C:/Users/stapi/OneDrive/Desktop/GD32VW553/V1_MQTT_OK/GD32VW55X_Wifi_BLE_SDK/GD32VW55x_RELEASE_V1.0.2/MSDK/wpa_supplicant/src/ap\ap_config.h **** 	if (conf->ieee80211ax)
1143:C:/Users/stapi/OneDrive/Desktop/GD32VW553/V1_MQTT_OK/GD32VW55X_Wifi_BLE_SDK/GD32VW55x_RELEASE_V1.0.2/MSDK/wpa_supplicant/src/ap\ap_config.h **** 		conf->he_oper_centr_freq_seg0_idx = oper_centr_freq_seg0_idx;
1144:C:/Users/stapi/OneDrive/Desktop/GD32VW553/V1_MQTT_OK/GD32VW55X_Wifi_BLE_SDK/GD32VW55x_RELEASE_V1.0.2/MSDK/wpa_supplicant/src/ap\ap_config.h **** #endif /* CONFIG_IEEE80211AX */
1145:C:/Users/stapi/OneDrive/Desktop/GD32VW553/V1_MQTT_OK/GD32VW55X_Wifi_BLE_SDK/GD32VW55x_RELEASE_V1.0.2/MSDK/wpa_supplicant/src/ap\ap_config.h **** 	conf->vht_oper_centr_freq_seg0_idx = oper_centr_freq_seg0_idx;
1146:C:/Users/stapi/OneDrive/Desktop/GD32VW553/V1_MQTT_OK/GD32VW55X_Wifi_BLE_SDK/GD32VW55x_RELEASE_V1.0.2/MSDK/wpa_supplicant/src/ap\ap_config.h **** }
1147:C:/Users/stapi/OneDrive/Desktop/GD32VW553/V1_MQTT_OK/GD32VW55X_Wifi_BLE_SDK/GD32VW55x_RELEASE_V1.0.2/MSDK/wpa_supplicant/src/ap\ap_config.h **** 
1148:C:/Users/stapi/OneDrive/Desktop/GD32VW553/V1_MQTT_OK/GD32VW55X_Wifi_BLE_SDK/GD32VW55x_RELEASE_V1.0.2/MSDK/wpa_supplicant/src/ap\ap_config.h **** static inline u8
1149:C:/Users/stapi/OneDrive/Desktop/GD32VW553/V1_MQTT_OK/GD32VW55X_Wifi_BLE_SDK/GD32VW55x_RELEASE_V1.0.2/MSDK/wpa_supplicant/src/ap\ap_config.h **** hostapd_get_oper_centr_freq_seg1_idx(struct hostapd_config *conf)
1150:C:/Users/stapi/OneDrive/Desktop/GD32VW553/V1_MQTT_OK/GD32VW55X_Wifi_BLE_SDK/GD32VW55x_RELEASE_V1.0.2/MSDK/wpa_supplicant/src/ap\ap_config.h **** {
1151:C:/Users/stapi/OneDrive/Desktop/GD32VW553/V1_MQTT_OK/GD32VW55X_Wifi_BLE_SDK/GD32VW55x_RELEASE_V1.0.2/MSDK/wpa_supplicant/src/ap\ap_config.h **** #ifdef CONFIG_IEEE80211AX
1152:C:/Users/stapi/OneDrive/Desktop/GD32VW553/V1_MQTT_OK/GD32VW55X_Wifi_BLE_SDK/GD32VW55x_RELEASE_V1.0.2/MSDK/wpa_supplicant/src/ap\ap_config.h **** 	if (conf->ieee80211ax)
1153:C:/Users/stapi/OneDrive/Desktop/GD32VW553/V1_MQTT_OK/GD32VW55X_Wifi_BLE_SDK/GD32VW55x_RELEASE_V1.0.2/MSDK/wpa_supplicant/src/ap\ap_config.h **** 		return conf->he_oper_centr_freq_seg1_idx;
1154:C:/Users/stapi/OneDrive/Desktop/GD32VW553/V1_MQTT_OK/GD32VW55X_Wifi_BLE_SDK/GD32VW55x_RELEASE_V1.0.2/MSDK/wpa_supplicant/src/ap\ap_config.h **** #endif /* CONFIG_IEEE80211AX */
1155:C:/Users/stapi/OneDrive/Desktop/GD32VW553/V1_MQTT_OK/GD32VW55X_Wifi_BLE_SDK/GD32VW55x_RELEASE_V1.0.2/MSDK/wpa_supplicant/src/ap\ap_config.h **** 	return conf->vht_oper_centr_freq_seg1_idx;
 1170              		.loc 5 1155 2 is_stmt 1
 1171              		.loc 5 1155 13 is_stmt 0
 1172 0132 034B2714 		lbu	s6,322(a4)
 1173 0136 A9A8     		j	.L93
 1174              	.LVL101:
 1175              	.L112:
 1176              	.LBE107:
 1177              	.LBE106:
 1178              	.LBB109:
 1179              	.LBB99:
 205:C:/Users/stapi/OneDrive/Desktop/GD32VW553/V1_MQTT_OK/GD32VW55X_Wifi_BLE_SDK/GD32VW55x_RELEASE_V1.0.2/MSDK/wpa_supplicant/src/ap\neighbor_db.c **** 	if (!hapd->iconf->secondary_channel)
 1180              		.loc 1 205 10
 1181 0138 8144     		li	s1,0
 1182 013a EDB7     		j	.L164
 1183              	.L95:
 208:C:/Users/stapi/OneDrive/Desktop/GD32VW553/V1_MQTT_OK/GD32VW55X_Wifi_BLE_SDK/GD32VW55x_RELEASE_V1.0.2/MSDK/wpa_supplicant/src/ap\neighbor_db.c **** 		return NR_CHAN_WIDTH_40;
 1184              		.loc 1 208 20
 1185 013c 95E3     		bne	a5,zero,.L158
 209:C:/Users/stapi/OneDrive/Desktop/GD32VW553/V1_MQTT_OK/GD32VW55X_Wifi_BLE_SDK/GD32VW55x_RELEASE_V1.0.2/MSDK/wpa_supplicant/src/ap\neighbor_db.c **** 	if (oper_chwidth == CHANWIDTH_80MHZ)
 1186              		.loc 1 209 10
 1187 013e 8544     		li	s1,1
 1188 0140 25A8     		j	.L103
 1189              	.L157:
 1190 0142 8544     		li	s1,1
 208:C:/Users/stapi/OneDrive/Desktop/GD32VW553/V1_MQTT_OK/GD32VW55X_Wifi_BLE_SDK/GD32VW55x_RELEASE_V1.0.2/MSDK/wpa_supplicant/src/ap\neighbor_db.c **** 		return NR_CHAN_WIDTH_40;
 1191              		.loc 1 208 20
 1192 0144 E1D3     		beq	a5,zero,.L105
 210:C:/Users/stapi/OneDrive/Desktop/GD32VW553/V1_MQTT_OK/GD32VW55X_Wifi_BLE_SDK/GD32VW55x_RELEASE_V1.0.2/MSDK/wpa_supplicant/src/ap\neighbor_db.c **** 		return NR_CHAN_WIDTH_80;
 1193              		.loc 1 210 2 is_stmt 1
 210:C:/Users/stapi/OneDrive/Desktop/GD32VW553/V1_MQTT_OK/GD32VW55X_Wifi_BLE_SDK/GD32VW55x_RELEASE_V1.0.2/MSDK/wpa_supplicant/src/ap\neighbor_db.c **** 		return NR_CHAN_WIDTH_80;
 1194              		.loc 1 210 5 is_stmt 0
 1195 0146 0547     		li	a4,1
 211:C:/Users/stapi/OneDrive/Desktop/GD32VW553/V1_MQTT_OK/GD32VW55X_Wifi_BLE_SDK/GD32VW55x_RELEASE_V1.0.2/MSDK/wpa_supplicant/src/ap\neighbor_db.c **** 	if (oper_chwidth == CHANWIDTH_160MHZ)
 1196              		.loc 1 211 10
 1197 0148 8944     		li	s1,2
 210:C:/Users/stapi/OneDrive/Desktop/GD32VW553/V1_MQTT_OK/GD32VW55X_Wifi_BLE_SDK/GD32VW55x_RELEASE_V1.0.2/MSDK/wpa_supplicant/src/ap\neighbor_db.c **** 		return NR_CHAN_WIDTH_80;
 1198              		.loc 1 210 5
 1199 014a E38DE7FA 		beq	a5,a4,.L105
 212:C:/Users/stapi/OneDrive/Desktop/GD32VW553/V1_MQTT_OK/GD32VW55X_Wifi_BLE_SDK/GD32VW55x_RELEASE_V1.0.2/MSDK/wpa_supplicant/src/ap\neighbor_db.c **** 		return NR_CHAN_WIDTH_160;
 1200              		.loc 1 212 2 is_stmt 1
 212:C:/Users/stapi/OneDrive/Desktop/GD32VW553/V1_MQTT_OK/GD32VW55X_Wifi_BLE_SDK/GD32VW55x_RELEASE_V1.0.2/MSDK/wpa_supplicant/src/ap\neighbor_db.c **** 		return NR_CHAN_WIDTH_160;
 1201              		.loc 1 212 5 is_stmt 0
 1202 014e 0947     		li	a4,2
 213:C:/Users/stapi/OneDrive/Desktop/GD32VW553/V1_MQTT_OK/GD32VW55X_Wifi_BLE_SDK/GD32VW55x_RELEASE_V1.0.2/MSDK/wpa_supplicant/src/ap\neighbor_db.c **** 	if (oper_chwidth == CHANWIDTH_80P80MHZ)
 1203              		.loc 1 213 10
 1204 0150 8D44     		li	s1,3
 212:C:/Users/stapi/OneDrive/Desktop/GD32VW553/V1_MQTT_OK/GD32VW55X_Wifi_BLE_SDK/GD32VW55x_RELEASE_V1.0.2/MSDK/wpa_supplicant/src/ap\neighbor_db.c **** 		return NR_CHAN_WIDTH_160;
 1205              		.loc 1 212 5
 1206 0152 E389E7FA 		beq	a5,a4,.L105
 214:C:/Users/stapi/OneDrive/Desktop/GD32VW553/V1_MQTT_OK/GD32VW55X_Wifi_BLE_SDK/GD32VW55x_RELEASE_V1.0.2/MSDK/wpa_supplicant/src/ap\neighbor_db.c **** 		return NR_CHAN_WIDTH_80P80;
 1207              		.loc 1 214 2 is_stmt 1
 214:C:/Users/stapi/OneDrive/Desktop/GD32VW553/V1_MQTT_OK/GD32VW55X_Wifi_BLE_SDK/GD32VW55x_RELEASE_V1.0.2/MSDK/wpa_supplicant/src/ap\neighbor_db.c **** 		return NR_CHAN_WIDTH_80P80;
 1208              		.loc 1 214 5 is_stmt 0
 1209 0156 0D47     		li	a4,3
 215:C:/Users/stapi/OneDrive/Desktop/GD32VW553/V1_MQTT_OK/GD32VW55X_Wifi_BLE_SDK/GD32VW55x_RELEASE_V1.0.2/MSDK/wpa_supplicant/src/ap\neighbor_db.c **** 	return NR_CHAN_WIDTH_20;
 1210              		.loc 1 215 10
 1211 0158 9144     		li	s1,4
 214:C:/Users/stapi/OneDrive/Desktop/GD32VW553/V1_MQTT_OK/GD32VW55X_Wifi_BLE_SDK/GD32VW55x_RELEASE_V1.0.2/MSDK/wpa_supplicant/src/ap\neighbor_db.c **** 		return NR_CHAN_WIDTH_80P80;
 1212              		.loc 1 214 5
 1213 015a E394E7FA 		bne	a5,a4,.L114
 1214 015e 5DB7     		j	.L105
 1215              	.L158:
 210:C:/Users/stapi/OneDrive/Desktop/GD32VW553/V1_MQTT_OK/GD32VW55X_Wifi_BLE_SDK/GD32VW55x_RELEASE_V1.0.2/MSDK/wpa_supplicant/src/ap\neighbor_db.c **** 		return NR_CHAN_WIDTH_80;
 1216              		.loc 1 210 2 is_stmt 1
 210:C:/Users/stapi/OneDrive/Desktop/GD32VW553/V1_MQTT_OK/GD32VW55X_Wifi_BLE_SDK/GD32VW55x_RELEASE_V1.0.2/MSDK/wpa_supplicant/src/ap\neighbor_db.c **** 		return NR_CHAN_WIDTH_80;
 1217              		.loc 1 210 5 is_stmt 0
 1218 0160 8545     		li	a1,1
 1219 0162 6394B700 		bne	a5,a1,.L160
 211:C:/Users/stapi/OneDrive/Desktop/GD32VW553/V1_MQTT_OK/GD32VW55X_Wifi_BLE_SDK/GD32VW55x_RELEASE_V1.0.2/MSDK/wpa_supplicant/src/ap\neighbor_db.c **** 	if (oper_chwidth == CHANWIDTH_160MHZ)
 1220              		.loc 1 211 10
 1221 0166 8944     		li	s1,2
 1222 0168 01A8     		j	.L103
 1223              	.L160:
 212:C:/Users/stapi/OneDrive/Desktop/GD32VW553/V1_MQTT_OK/GD32VW55X_Wifi_BLE_SDK/GD32VW55x_RELEASE_V1.0.2/MSDK/wpa_supplicant/src/ap\neighbor_db.c **** 		return NR_CHAN_WIDTH_160;
 1224              		.loc 1 212 2 is_stmt 1
 212:C:/Users/stapi/OneDrive/Desktop/GD32VW553/V1_MQTT_OK/GD32VW55X_Wifi_BLE_SDK/GD32VW55x_RELEASE_V1.0.2/MSDK/wpa_supplicant/src/ap\neighbor_db.c **** 		return NR_CHAN_WIDTH_160;
 1225              		.loc 1 212 5 is_stmt 0
 1226 016a 8945     		li	a1,2
 1227 016c E38EB7FA 		beq	a5,a1,.L122
 214:C:/Users/stapi/OneDrive/Desktop/GD32VW553/V1_MQTT_OK/GD32VW55X_Wifi_BLE_SDK/GD32VW55x_RELEASE_V1.0.2/MSDK/wpa_supplicant/src/ap\neighbor_db.c **** 		return NR_CHAN_WIDTH_80P80;
 1228              		.loc 1 214 2 is_stmt 1
 214:C:/Users/stapi/OneDrive/Desktop/GD32VW553/V1_MQTT_OK/GD32VW55X_Wifi_BLE_SDK/GD32VW55x_RELEASE_V1.0.2/MSDK/wpa_supplicant/src/ap\neighbor_db.c **** 		return NR_CHAN_WIDTH_80P80;
 1229              		.loc 1 214 5 is_stmt 0
 1230 0170 8D45     		li	a1,3
 1231 0172 E395B7F8 		bne	a5,a1,.L94
 215:C:/Users/stapi/OneDrive/Desktop/GD32VW553/V1_MQTT_OK/GD32VW55X_Wifi_BLE_SDK/GD32VW55x_RELEASE_V1.0.2/MSDK/wpa_supplicant/src/ap\neighbor_db.c **** 	return NR_CHAN_WIDTH_20;
 1232              		.loc 1 215 10
 1233 0176 9144     		li	s1,4
 1234              	.LVL102:
 1235              	.L103:
 1236              	.LBE99:
 1237              	.LBE109:
 277:C:/Users/stapi/OneDrive/Desktop/GD32VW553/V1_MQTT_OK/GD32VW55X_Wifi_BLE_SDK/GD32VW55x_RELEASE_V1.0.2/MSDK/wpa_supplicant/src/ap\neighbor_db.c **** 			hapd->iconf);
 1238              		.loc 1 277 3 is_stmt 1
 1239              	.LBB110:
 1240              	.LBB105:
1131:C:/Users/stapi/OneDrive/Desktop/GD32VW553/V1_MQTT_OK/GD32VW55X_Wifi_BLE_SDK/GD32VW55x_RELEASE_V1.0.2/MSDK/wpa_supplicant/src/ap\ap_config.h **** 		return conf->he_oper_centr_freq_seg0_idx;
 1241              		.loc 5 1131 2
1131:C:/Users/stapi/OneDrive/Desktop/GD32VW553/V1_MQTT_OK/GD32VW55X_Wifi_BLE_SDK/GD32VW55x_RELEASE_V1.0.2/MSDK/wpa_supplicant/src/ap\ap_config.h **** 		return conf->he_oper_centr_freq_seg0_idx;
 1242              		.loc 5 1131 5 is_stmt 0
 1243 0178 D5DA     		beq	a3,zero,.L99
1132:C:/Users/stapi/OneDrive/Desktop/GD32VW553/V1_MQTT_OK/GD32VW55X_Wifi_BLE_SDK/GD32VW55x_RELEASE_V1.0.2/MSDK/wpa_supplicant/src/ap\ap_config.h **** #endif /* CONFIG_IEEE80211AX */
 1244              		.loc 5 1132 3 is_stmt 1
1132:C:/Users/stapi/OneDrive/Desktop/GD32VW553/V1_MQTT_OK/GD32VW55X_Wifi_BLE_SDK/GD32VW55x_RELEASE_V1.0.2/MSDK/wpa_supplicant/src/ap\ap_config.h **** #endif /* CONFIG_IEEE80211AX */
 1245              		.loc 5 1132 14 is_stmt 0
 1246 017a 8347A718 		lbu	a5,394(a4)
 1247              	.L100:
 1248              	.LVL103:
 1249              	.LBE105:
 1250              	.LBE110:
 277:C:/Users/stapi/OneDrive/Desktop/GD32VW553/V1_MQTT_OK/GD32VW55X_Wifi_BLE_SDK/GD32VW55x_RELEASE_V1.0.2/MSDK/wpa_supplicant/src/ap\neighbor_db.c **** 			hapd->iconf);
 1251              		.loc 1 277 20
 1252 017e A305F100 		sb	a5,11(sp)
 279:C:/Users/stapi/OneDrive/Desktop/GD32VW553/V1_MQTT_OK/GD32VW55X_Wifi_BLE_SDK/GD32VW55x_RELEASE_V1.0.2/MSDK/wpa_supplicant/src/ap\neighbor_db.c **** 			center_freq2_idx =
 1253              		.loc 1 279 3 is_stmt 1
 279:C:/Users/stapi/OneDrive/Desktop/GD32VW553/V1_MQTT_OK/GD32VW55X_Wifi_BLE_SDK/GD32VW55x_RELEASE_V1.0.2/MSDK/wpa_supplicant/src/ap\neighbor_db.c **** 			center_freq2_idx =
 1254              		.loc 1 279 6 is_stmt 0
 1255 0182 9147     		li	a5,4
 230:C:/Users/stapi/OneDrive/Desktop/GD32VW553/V1_MQTT_OK/GD32VW55X_Wifi_BLE_SDK/GD32VW55x_RELEASE_V1.0.2/MSDK/wpa_supplicant/src/ap\neighbor_db.c **** 	enum nr_chan_width width;
 1256              		.loc 1 230 27
 1257 0184 014B     		li	s6,0
 279:C:/Users/stapi/OneDrive/Desktop/GD32VW553/V1_MQTT_OK/GD32VW55X_Wifi_BLE_SDK/GD32VW55x_RELEASE_V1.0.2/MSDK/wpa_supplicant/src/ap\neighbor_db.c **** 			center_freq2_idx =
 1258              		.loc 1 279 6
 1259 0186 6395F400 		bne	s1,a5,.L93
 280:C:/Users/stapi/OneDrive/Desktop/GD32VW553/V1_MQTT_OK/GD32VW55X_Wifi_BLE_SDK/GD32VW55x_RELEASE_V1.0.2/MSDK/wpa_supplicant/src/ap\neighbor_db.c **** 				hostapd_get_oper_centr_freq_seg1_idx(
 1260              		.loc 1 280 4 is_stmt 1
 1261              	.LVL104:
 1262              	.LBB111:
 1263              	.LBB108:
1152:C:/Users/stapi/OneDrive/Desktop/GD32VW553/V1_MQTT_OK/GD32VW55X_Wifi_BLE_SDK/GD32VW55x_RELEASE_V1.0.2/MSDK/wpa_supplicant/src/ap\ap_config.h **** 		return conf->he_oper_centr_freq_seg1_idx;
 1264              		.loc 5 1152 2
1152:C:/Users/stapi/OneDrive/Desktop/GD32VW553/V1_MQTT_OK/GD32VW55X_Wifi_BLE_SDK/GD32VW55x_RELEASE_V1.0.2/MSDK/wpa_supplicant/src/ap\ap_config.h **** 		return conf->he_oper_centr_freq_seg1_idx;
 1265              		.loc 5 1152 5 is_stmt 0
 1266 018a C5D6     		beq	a3,zero,.L101
1153:C:/Users/stapi/OneDrive/Desktop/GD32VW553/V1_MQTT_OK/GD32VW55X_Wifi_BLE_SDK/GD32VW55x_RELEASE_V1.0.2/MSDK/wpa_supplicant/src/ap\ap_config.h **** #endif /* CONFIG_IEEE80211AX */
 1267              		.loc 5 1153 3 is_stmt 1
1153:C:/Users/stapi/OneDrive/Desktop/GD32VW553/V1_MQTT_OK/GD32VW55X_Wifi_BLE_SDK/GD32VW55x_RELEASE_V1.0.2/MSDK/wpa_supplicant/src/ap\ap_config.h **** #endif /* CONFIG_IEEE80211AX */
 1268              		.loc 5 1153 14 is_stmt 0
 1269 018c 034BB718 		lbu	s6,395(a4)
 1270              	.LVL105:
 1271              	.L93:
 1272              	.LBE108:
 1273              	.LBE111:
 285:C:/Users/stapi/OneDrive/Desktop/GD32VW553/V1_MQTT_OK/GD32VW55X_Wifi_BLE_SDK/GD32VW55x_RELEASE_V1.0.2/MSDK/wpa_supplicant/src/ap\neighbor_db.c **** 				       10 * hapd->iconf->secondary_channel,
 286:C:/Users/stapi/OneDrive/Desktop/GD32VW553/V1_MQTT_OK/GD32VW55X_Wifi_BLE_SDK/GD32VW55x_RELEASE_V1.0.2/MSDK/wpa_supplicant/src/ap\neighbor_db.c **** 				       &center_freq1_idx);
 287:C:/Users/stapi/OneDrive/Desktop/GD32VW553/V1_MQTT_OK/GD32VW55X_Wifi_BLE_SDK/GD32VW55x_RELEASE_V1.0.2/MSDK/wpa_supplicant/src/ap\neighbor_db.c **** 	}
 288:C:/Users/stapi/OneDrive/Desktop/GD32VW553/V1_MQTT_OK/GD32VW55X_Wifi_BLE_SDK/GD32VW55x_RELEASE_V1.0.2/MSDK/wpa_supplicant/src/ap\neighbor_db.c **** 
 289:C:/Users/stapi/OneDrive/Desktop/GD32VW553/V1_MQTT_OK/GD32VW55X_Wifi_BLE_SDK/GD32VW55x_RELEASE_V1.0.2/MSDK/wpa_supplicant/src/ap\neighbor_db.c **** 	ssid.ssid_len = hapd->conf->ssid.ssid_len;
 1274              		.loc 1 289 2 is_stmt 1
 1275              		.loc 1 289 22 is_stmt 0
 1276 0190 83258900 		lw	a1,8(s2)
 290:C:/Users/stapi/OneDrive/Desktop/GD32VW553/V1_MQTT_OK/GD32VW55X_Wifi_BLE_SDK/GD32VW55x_RELEASE_V1.0.2/MSDK/wpa_supplicant/src/ap\neighbor_db.c **** 	os_memcpy(ssid.ssid, hapd->conf->ssid.ssid, ssid.ssid_len);
 1277              		.loc 1 290 2
 1278 0194 6800     		addi	a0,sp,12
 289:C:/Users/stapi/OneDrive/Desktop/GD32VW553/V1_MQTT_OK/GD32VW55X_Wifi_BLE_SDK/GD32VW55x_RELEASE_V1.0.2/MSDK/wpa_supplicant/src/ap\neighbor_db.c **** 	os_memcpy(ssid.ssid, hapd->conf->ssid.ssid, ssid.ssid_len);
 1279              		.loc 1 289 34
 1280 0196 03A6850D 		lw	a2,216(a1)
 1281              		.loc 1 290 2
 1282 019a 9385850B 		addi	a1,a1,184
 289:C:/Users/stapi/OneDrive/Desktop/GD32VW553/V1_MQTT_OK/GD32VW55X_Wifi_BLE_SDK/GD32VW55x_RELEASE_V1.0.2/MSDK/wpa_supplicant/src/ap\neighbor_db.c **** 	os_memcpy(ssid.ssid, hapd->conf->ssid.ssid, ssid.ssid_len);
 1283              		.loc 1 289 16
 1284 019e 32D6     		sw	a2,44(sp)
 1285              		.loc 1 290 2 is_stmt 1
 1286 01a0 97000000 		call	os_memcpy
 1286      E7800000 
 1287              	.LVL106:
 291:C:/Users/stapi/OneDrive/Desktop/GD32VW553/V1_MQTT_OK/GD32VW55X_Wifi_BLE_SDK/GD32VW55x_RELEASE_V1.0.2/MSDK/wpa_supplicant/src/ap\neighbor_db.c **** 
 292:C:/Users/stapi/OneDrive/Desktop/GD32VW553/V1_MQTT_OK/GD32VW55X_Wifi_BLE_SDK/GD32VW55x_RELEASE_V1.0.2/MSDK/wpa_supplicant/src/ap\neighbor_db.c **** 	/*
 293:C:/Users/stapi/OneDrive/Desktop/GD32VW553/V1_MQTT_OK/GD32VW55X_Wifi_BLE_SDK/GD32VW55x_RELEASE_V1.0.2/MSDK/wpa_supplicant/src/ap\neighbor_db.c **** 	 * Neighbor Report element size = BSSID + BSSID info + op_class + chan +
 294:C:/Users/stapi/OneDrive/Desktop/GD32VW553/V1_MQTT_OK/GD32VW55X_Wifi_BLE_SDK/GD32VW55x_RELEASE_V1.0.2/MSDK/wpa_supplicant/src/ap\neighbor_db.c **** 	 * phy type + wide bandwidth channel subelement.
 295:C:/Users/stapi/OneDrive/Desktop/GD32VW553/V1_MQTT_OK/GD32VW55X_Wifi_BLE_SDK/GD32VW55x_RELEASE_V1.0.2/MSDK/wpa_supplicant/src/ap\neighbor_db.c **** 	 */
 296:C:/Users/stapi/OneDrive/Desktop/GD32VW553/V1_MQTT_OK/GD32VW55X_Wifi_BLE_SDK/GD32VW55x_RELEASE_V1.0.2/MSDK/wpa_supplicant/src/ap\neighbor_db.c **** 	nr = wpabuf_alloc(ETH_ALEN + 4 + 1 + 1 + 1 + 5);
 1288              		.loc 1 296 2
 1289              		.loc 1 296 7 is_stmt 0
 1290 01a8 4945     		li	a0,18
 1291 01aa 97000000 		call	wpabuf_alloc
 1291      E7800000 
 1292              	.LVL107:
 1293 01b2 2A84     		mv	s0,a0
 1294              	.LVL108:
 297:C:/Users/stapi/OneDrive/Desktop/GD32VW553/V1_MQTT_OK/GD32VW55X_Wifi_BLE_SDK/GD32VW55x_RELEASE_V1.0.2/MSDK/wpa_supplicant/src/ap\neighbor_db.c **** 	if (!nr)
 1295              		.loc 1 297 2 is_stmt 1
 1296              		.loc 1 297 5 is_stmt 0
 1297 01b4 75C1     		beq	a0,zero,.L77
 298:C:/Users/stapi/OneDrive/Desktop/GD32VW553/V1_MQTT_OK/GD32VW55X_Wifi_BLE_SDK/GD32VW55x_RELEASE_V1.0.2/MSDK/wpa_supplicant/src/ap\neighbor_db.c **** 		return;
 299:C:/Users/stapi/OneDrive/Desktop/GD32VW553/V1_MQTT_OK/GD32VW55X_Wifi_BLE_SDK/GD32VW55x_RELEASE_V1.0.2/MSDK/wpa_supplicant/src/ap\neighbor_db.c **** 
 300:C:/Users/stapi/OneDrive/Desktop/GD32VW553/V1_MQTT_OK/GD32VW55X_Wifi_BLE_SDK/GD32VW55x_RELEASE_V1.0.2/MSDK/wpa_supplicant/src/ap\neighbor_db.c **** 	wpabuf_put_data(nr, hapd->own_addr, ETH_ALEN);
 1298              		.loc 1 300 2 is_stmt 1
 1299              	.LBB112:
 1300              	.LBB113:
 123:..\..\..\..\wpa_supplicant\src/utils/wpabuf.h **** 
 124:..\..\..\..\wpa_supplicant\src/utils/wpabuf.h **** static inline void wpabuf_put_le16(struct wpabuf *buf, u16 data)
 125:..\..\..\..\wpa_supplicant\src/utils/wpabuf.h **** {
 126:..\..\..\..\wpa_supplicant\src/utils/wpabuf.h **** 	u8 *pos = (u8 *) wpabuf_put(buf, 2);
 127:..\..\..\..\wpa_supplicant\src/utils/wpabuf.h **** 	WPA_PUT_LE16(pos, data);
 128:..\..\..\..\wpa_supplicant\src/utils/wpabuf.h **** }
 129:..\..\..\..\wpa_supplicant\src/utils/wpabuf.h **** 
 130:..\..\..\..\wpa_supplicant\src/utils/wpabuf.h **** static inline void wpabuf_put_le32(struct wpabuf *buf, u32 data)
 131:..\..\..\..\wpa_supplicant\src/utils/wpabuf.h **** {
 132:..\..\..\..\wpa_supplicant\src/utils/wpabuf.h **** 	u8 *pos = (u8 *) wpabuf_put(buf, 4);
 133:..\..\..\..\wpa_supplicant\src/utils/wpabuf.h **** 	WPA_PUT_LE32(pos, data);
 134:..\..\..\..\wpa_supplicant\src/utils/wpabuf.h **** }
 135:..\..\..\..\wpa_supplicant\src/utils/wpabuf.h **** 
 136:..\..\..\..\wpa_supplicant\src/utils/wpabuf.h **** static inline void wpabuf_put_le64(struct wpabuf *buf, u64 data)
 137:..\..\..\..\wpa_supplicant\src/utils/wpabuf.h **** {
 138:..\..\..\..\wpa_supplicant\src/utils/wpabuf.h **** 	u8 *pos = (u8 *) wpabuf_put(buf, 8);
 139:..\..\..\..\wpa_supplicant\src/utils/wpabuf.h **** 	WPA_PUT_LE64(pos, data);
 140:..\..\..\..\wpa_supplicant\src/utils/wpabuf.h **** }
 141:..\..\..\..\wpa_supplicant\src/utils/wpabuf.h **** 
 142:..\..\..\..\wpa_supplicant\src/utils/wpabuf.h **** static inline void wpabuf_put_be16(struct wpabuf *buf, u16 data)
 143:..\..\..\..\wpa_supplicant\src/utils/wpabuf.h **** {
 144:..\..\..\..\wpa_supplicant\src/utils/wpabuf.h **** 	u8 *pos = (u8 *) wpabuf_put(buf, 2);
 145:..\..\..\..\wpa_supplicant\src/utils/wpabuf.h **** 	WPA_PUT_BE16(pos, data);
 146:..\..\..\..\wpa_supplicant\src/utils/wpabuf.h **** }
 147:..\..\..\..\wpa_supplicant\src/utils/wpabuf.h **** 
 148:..\..\..\..\wpa_supplicant\src/utils/wpabuf.h **** static inline void wpabuf_put_be24(struct wpabuf *buf, u32 data)
 149:..\..\..\..\wpa_supplicant\src/utils/wpabuf.h **** {
 150:..\..\..\..\wpa_supplicant\src/utils/wpabuf.h **** 	u8 *pos = (u8 *) wpabuf_put(buf, 3);
 151:..\..\..\..\wpa_supplicant\src/utils/wpabuf.h **** 	WPA_PUT_BE24(pos, data);
 152:..\..\..\..\wpa_supplicant\src/utils/wpabuf.h **** }
 153:..\..\..\..\wpa_supplicant\src/utils/wpabuf.h **** 
 154:..\..\..\..\wpa_supplicant\src/utils/wpabuf.h **** static inline void wpabuf_put_be32(struct wpabuf *buf, u32 data)
 155:..\..\..\..\wpa_supplicant\src/utils/wpabuf.h **** {
 156:..\..\..\..\wpa_supplicant\src/utils/wpabuf.h **** 	u8 *pos = (u8 *) wpabuf_put(buf, 4);
 157:..\..\..\..\wpa_supplicant\src/utils/wpabuf.h **** 	WPA_PUT_BE32(pos, data);
 158:..\..\..\..\wpa_supplicant\src/utils/wpabuf.h **** }
 159:..\..\..\..\wpa_supplicant\src/utils/wpabuf.h **** 
 160:..\..\..\..\wpa_supplicant\src/utils/wpabuf.h **** static inline void wpabuf_put_be64(struct wpabuf *buf, u64 data)
 161:..\..\..\..\wpa_supplicant\src/utils/wpabuf.h **** {
 162:..\..\..\..\wpa_supplicant\src/utils/wpabuf.h **** 	u8 *pos = (u8 *) wpabuf_put(buf, 8);
 163:..\..\..\..\wpa_supplicant\src/utils/wpabuf.h **** 	WPA_PUT_BE64(pos, data);
 164:..\..\..\..\wpa_supplicant\src/utils/wpabuf.h **** }
 165:..\..\..\..\wpa_supplicant\src/utils/wpabuf.h **** 
 166:..\..\..\..\wpa_supplicant\src/utils/wpabuf.h **** static inline void wpabuf_put_data(struct wpabuf *buf, const void *data,
 167:..\..\..\..\wpa_supplicant\src/utils/wpabuf.h **** 				   size_t len)
 168:..\..\..\..\wpa_supplicant\src/utils/wpabuf.h **** {
 169:..\..\..\..\wpa_supplicant\src/utils/wpabuf.h **** 	if (data)
 170:..\..\..\..\wpa_supplicant\src/utils/wpabuf.h **** 		os_memcpy(wpabuf_put(buf, len), data, len);
 1301              		.loc 2 170 3 is_stmt 0
 1302 01b6 9945     		li	a1,6
 1303 01b8 97000000 		call	wpabuf_put
 1303      E7800000 
 1304              	.LVL109:
 1305              	.LBE113:
 1306              	.LBE112:
 1307              		.loc 1 300 26
 1308 01c0 930B1901 		addi	s7,s2,17
 1309              	.LVL110:
 1310              	.LBB115:
 1311              	.LBB114:
 169:..\..\..\..\wpa_supplicant\src/utils/wpabuf.h **** 		os_memcpy(wpabuf_put(buf, len), data, len);
 1312              		.loc 2 169 2 is_stmt 1
 1313              		.loc 2 170 3
 1314 01c4 1946     		li	a2,6
 1315 01c6 DE85     		mv	a1,s7
 1316 01c8 97000000 		call	os_memcpy
 1316      E7800000 
 1317              	.LVL111:
 1318              	.LBE114:
 1319              	.LBE115:
 301:C:/Users/stapi/OneDrive/Desktop/GD32VW553/V1_MQTT_OK/GD32VW55X_Wifi_BLE_SDK/GD32VW55x_RELEASE_V1.0.2/MSDK/wpa_supplicant/src/ap\neighbor_db.c **** 	wpabuf_put_le32(nr, bssid_info);
 1320              		.loc 1 301 2
 1321              	.LBB116:
 1322              	.LBB117:
 132:..\..\..\..\wpa_supplicant\src/utils/wpabuf.h **** 	WPA_PUT_LE32(pos, data);
 1323              		.loc 2 132 2
 132:..\..\..\..\wpa_supplicant\src/utils/wpabuf.h **** 	WPA_PUT_LE32(pos, data);
 1324              		.loc 2 132 19 is_stmt 0
 1325 01d0 9145     		li	a1,4
 1326 01d2 2285     		mv	a0,s0
 1327 01d4 97000000 		call	wpabuf_put
 1327      E7800000 
 1328              	.LVL112:
 133:..\..\..\..\wpa_supplicant\src/utils/wpabuf.h **** }
 1329              		.loc 2 133 2 is_stmt 1
 1330              	.LBB118:
 1331              	.LBB119:
 1332              		.file 6 "..\\..\\..\\..\\wpa_supplicant\\src/utils/common.h"
   1:..\..\..\..\wpa_supplicant\src/utils/common.h **** /*
   2:..\..\..\..\wpa_supplicant\src/utils/common.h ****  * wpa_supplicant/hostapd / common helper functions, etc.
   3:..\..\..\..\wpa_supplicant\src/utils/common.h ****  * Copyright (c) 2002-2007, Jouni Malinen <j@w1.fi>
   4:..\..\..\..\wpa_supplicant\src/utils/common.h ****  *
   5:..\..\..\..\wpa_supplicant\src/utils/common.h ****  * This software may be distributed under the terms of the BSD license.
   6:..\..\..\..\wpa_supplicant\src/utils/common.h ****  * See README for more details.
   7:..\..\..\..\wpa_supplicant\src/utils/common.h ****  */
   8:..\..\..\..\wpa_supplicant\src/utils/common.h **** 
   9:..\..\..\..\wpa_supplicant\src/utils/common.h **** #ifndef COMMON_H
  10:..\..\..\..\wpa_supplicant\src/utils/common.h **** #define COMMON_H
  11:..\..\..\..\wpa_supplicant\src/utils/common.h **** 
  12:..\..\..\..\wpa_supplicant\src/utils/common.h **** #include "os.h"
  13:..\..\..\..\wpa_supplicant\src/utils/common.h **** 
  14:..\..\..\..\wpa_supplicant\src/utils/common.h **** #if defined(__linux__) || defined(__GLIBC__)
  15:..\..\..\..\wpa_supplicant\src/utils/common.h **** #include <endian.h>
  16:..\..\..\..\wpa_supplicant\src/utils/common.h **** #include <byteswap.h>
  17:..\..\..\..\wpa_supplicant\src/utils/common.h **** #endif /* __linux__ */
  18:..\..\..\..\wpa_supplicant\src/utils/common.h **** 
  19:..\..\..\..\wpa_supplicant\src/utils/common.h **** #if defined(__FreeBSD__) || defined(__NetBSD__) || defined(__DragonFly__) || \
  20:..\..\..\..\wpa_supplicant\src/utils/common.h ****     defined(__OpenBSD__)
  21:..\..\..\..\wpa_supplicant\src/utils/common.h **** #include <sys/types.h>
  22:..\..\..\..\wpa_supplicant\src/utils/common.h **** #include <sys/endian.h>
  23:..\..\..\..\wpa_supplicant\src/utils/common.h **** #define __BYTE_ORDER	_BYTE_ORDER
  24:..\..\..\..\wpa_supplicant\src/utils/common.h **** #define	__LITTLE_ENDIAN	_LITTLE_ENDIAN
  25:..\..\..\..\wpa_supplicant\src/utils/common.h **** #define	__BIG_ENDIAN	_BIG_ENDIAN
  26:..\..\..\..\wpa_supplicant\src/utils/common.h **** #ifdef __OpenBSD__
  27:..\..\..\..\wpa_supplicant\src/utils/common.h **** #define bswap_16 swap16
  28:..\..\..\..\wpa_supplicant\src/utils/common.h **** #define bswap_32 swap32
  29:..\..\..\..\wpa_supplicant\src/utils/common.h **** #define bswap_64 swap64
  30:..\..\..\..\wpa_supplicant\src/utils/common.h **** #else /* __OpenBSD__ */
  31:..\..\..\..\wpa_supplicant\src/utils/common.h **** #define bswap_16 bswap16
  32:..\..\..\..\wpa_supplicant\src/utils/common.h **** #define bswap_32 bswap32
  33:..\..\..\..\wpa_supplicant\src/utils/common.h **** #define bswap_64 bswap64
  34:..\..\..\..\wpa_supplicant\src/utils/common.h **** #endif /* __OpenBSD__ */
  35:..\..\..\..\wpa_supplicant\src/utils/common.h **** #endif /* defined(__FreeBSD__) || defined(__NetBSD__) ||
  36:..\..\..\..\wpa_supplicant\src/utils/common.h **** 	* defined(__DragonFly__) || defined(__OpenBSD__) */
  37:..\..\..\..\wpa_supplicant\src/utils/common.h **** 
  38:..\..\..\..\wpa_supplicant\src/utils/common.h **** #ifdef __APPLE__
  39:..\..\..\..\wpa_supplicant\src/utils/common.h **** #include <sys/types.h>
  40:..\..\..\..\wpa_supplicant\src/utils/common.h **** #include <machine/endian.h>
  41:..\..\..\..\wpa_supplicant\src/utils/common.h **** #define __BYTE_ORDER	_BYTE_ORDER
  42:..\..\..\..\wpa_supplicant\src/utils/common.h **** #define __LITTLE_ENDIAN	_LITTLE_ENDIAN
  43:..\..\..\..\wpa_supplicant\src/utils/common.h **** #define __BIG_ENDIAN	_BIG_ENDIAN
  44:..\..\..\..\wpa_supplicant\src/utils/common.h **** static inline unsigned short bswap_16(unsigned short v)
  45:..\..\..\..\wpa_supplicant\src/utils/common.h **** {
  46:..\..\..\..\wpa_supplicant\src/utils/common.h **** 	return ((v & 0xff) << 8) | (v >> 8);
  47:..\..\..\..\wpa_supplicant\src/utils/common.h **** }
  48:..\..\..\..\wpa_supplicant\src/utils/common.h **** 
  49:..\..\..\..\wpa_supplicant\src/utils/common.h **** static inline unsigned int bswap_32(unsigned int v)
  50:..\..\..\..\wpa_supplicant\src/utils/common.h **** {
  51:..\..\..\..\wpa_supplicant\src/utils/common.h **** 	return ((v & 0xff) << 24) | ((v & 0xff00) << 8) |
  52:..\..\..\..\wpa_supplicant\src/utils/common.h **** 		((v & 0xff0000) >> 8) | (v >> 24);
  53:..\..\..\..\wpa_supplicant\src/utils/common.h **** }
  54:..\..\..\..\wpa_supplicant\src/utils/common.h **** #endif /* __APPLE__ */
  55:..\..\..\..\wpa_supplicant\src/utils/common.h **** 
  56:..\..\..\..\wpa_supplicant\src/utils/common.h **** #ifdef CONFIG_GDWIFI
  57:..\..\..\..\wpa_supplicant\src/utils/common.h **** // #include <sys/types.h>
  58:..\..\..\..\wpa_supplicant\src/utils/common.h **** // #include <machine/endian.h>
  59:..\..\..\..\wpa_supplicant\src/utils/common.h **** #define __BYTE_ORDER	BYTE_ORDER
  60:..\..\..\..\wpa_supplicant\src/utils/common.h **** #define __LITTLE_ENDIAN	LITTLE_ENDIAN
  61:..\..\..\..\wpa_supplicant\src/utils/common.h **** #define __BIG_ENDIAN	BIG_ENDIAN
  62:..\..\..\..\wpa_supplicant\src/utils/common.h **** #define ETHER_ADDR_LEN	6
  63:..\..\..\..\wpa_supplicant\src/utils/common.h **** #define ETH_P_802_3	0x0001		/* Dummy type for 802.3 frames  */
  64:..\..\..\..\wpa_supplicant\src/utils/common.h **** 
  65:..\..\..\..\wpa_supplicant\src/utils/common.h **** static inline unsigned short bswap_16(unsigned short v)
  66:..\..\..\..\wpa_supplicant\src/utils/common.h **** {
  67:..\..\..\..\wpa_supplicant\src/utils/common.h **** 	return ((v & 0xff) << 8) | (v >> 8);
  68:..\..\..\..\wpa_supplicant\src/utils/common.h **** }
  69:..\..\..\..\wpa_supplicant\src/utils/common.h **** 
  70:..\..\..\..\wpa_supplicant\src/utils/common.h **** static inline unsigned int bswap_32(unsigned int v)
  71:..\..\..\..\wpa_supplicant\src/utils/common.h **** {
  72:..\..\..\..\wpa_supplicant\src/utils/common.h **** 	return ((v & 0xff) << 24) | ((v & 0xff00) << 8) |
  73:..\..\..\..\wpa_supplicant\src/utils/common.h **** 		((v & 0xff0000) >> 8) | (v >> 24);
  74:..\..\..\..\wpa_supplicant\src/utils/common.h **** }
  75:..\..\..\..\wpa_supplicant\src/utils/common.h **** 
  76:..\..\..\..\wpa_supplicant\src/utils/common.h **** struct ether_header
  77:..\..\..\..\wpa_supplicant\src/utils/common.h **** {
  78:..\..\..\..\wpa_supplicant\src/utils/common.h **** 	uint8_t  ether_dhost[ETHER_ADDR_LEN];
  79:..\..\..\..\wpa_supplicant\src/utils/common.h **** 	uint8_t  ether_shost[ETHER_ADDR_LEN];
  80:..\..\..\..\wpa_supplicant\src/utils/common.h **** 	uint16_t ether_type;
  81:..\..\..\..\wpa_supplicant\src/utils/common.h **** } __PACKED;
  82:..\..\..\..\wpa_supplicant\src/utils/common.h **** #endif /* CONFIG_GDWIFI */
  83:..\..\..\..\wpa_supplicant\src/utils/common.h **** #ifdef __rtems__
  84:..\..\..\..\wpa_supplicant\src/utils/common.h **** #include <rtems/endian.h>
  85:..\..\..\..\wpa_supplicant\src/utils/common.h **** #define __BYTE_ORDER BYTE_ORDER
  86:..\..\..\..\wpa_supplicant\src/utils/common.h **** #define __LITTLE_ENDIAN LITTLE_ENDIAN
  87:..\..\..\..\wpa_supplicant\src/utils/common.h **** #define __BIG_ENDIAN BIG_ENDIAN
  88:..\..\..\..\wpa_supplicant\src/utils/common.h **** #define bswap_16 CPU_swap_u16
  89:..\..\..\..\wpa_supplicant\src/utils/common.h **** #define bswap_32 CPU_swap_u32
  90:..\..\..\..\wpa_supplicant\src/utils/common.h **** #endif /* __rtems__ */
  91:..\..\..\..\wpa_supplicant\src/utils/common.h **** 
  92:..\..\..\..\wpa_supplicant\src/utils/common.h **** #ifdef CONFIG_NATIVE_WINDOWS
  93:..\..\..\..\wpa_supplicant\src/utils/common.h **** #include <winsock.h>
  94:..\..\..\..\wpa_supplicant\src/utils/common.h **** 
  95:..\..\..\..\wpa_supplicant\src/utils/common.h **** typedef int socklen_t;
  96:..\..\..\..\wpa_supplicant\src/utils/common.h **** 
  97:..\..\..\..\wpa_supplicant\src/utils/common.h **** #ifndef MSG_DONTWAIT
  98:..\..\..\..\wpa_supplicant\src/utils/common.h **** #define MSG_DONTWAIT 0 /* not supported */
  99:..\..\..\..\wpa_supplicant\src/utils/common.h **** #endif
 100:..\..\..\..\wpa_supplicant\src/utils/common.h **** 
 101:..\..\..\..\wpa_supplicant\src/utils/common.h **** #endif /* CONFIG_NATIVE_WINDOWS */
 102:..\..\..\..\wpa_supplicant\src/utils/common.h **** 
 103:..\..\..\..\wpa_supplicant\src/utils/common.h **** #ifdef _MSC_VER
 104:..\..\..\..\wpa_supplicant\src/utils/common.h **** #define inline __inline
 105:..\..\..\..\wpa_supplicant\src/utils/common.h **** 
 106:..\..\..\..\wpa_supplicant\src/utils/common.h **** #undef vsnprintf
 107:..\..\..\..\wpa_supplicant\src/utils/common.h **** #define vsnprintf _vsnprintf
 108:..\..\..\..\wpa_supplicant\src/utils/common.h **** #undef close
 109:..\..\..\..\wpa_supplicant\src/utils/common.h **** #define close closesocket
 110:..\..\..\..\wpa_supplicant\src/utils/common.h **** #endif /* _MSC_VER */
 111:..\..\..\..\wpa_supplicant\src/utils/common.h **** 
 112:..\..\..\..\wpa_supplicant\src/utils/common.h **** 
 113:..\..\..\..\wpa_supplicant\src/utils/common.h **** /* Define platform specific integer types */
 114:..\..\..\..\wpa_supplicant\src/utils/common.h **** 
 115:..\..\..\..\wpa_supplicant\src/utils/common.h **** #ifdef _MSC_VER
 116:..\..\..\..\wpa_supplicant\src/utils/common.h **** typedef UINT64 u64;
 117:..\..\..\..\wpa_supplicant\src/utils/common.h **** typedef UINT32 u32;
 118:..\..\..\..\wpa_supplicant\src/utils/common.h **** typedef UINT16 u16;
 119:..\..\..\..\wpa_supplicant\src/utils/common.h **** typedef UINT8 u8;
 120:..\..\..\..\wpa_supplicant\src/utils/common.h **** typedef INT64 s64;
 121:..\..\..\..\wpa_supplicant\src/utils/common.h **** typedef INT32 s32;
 122:..\..\..\..\wpa_supplicant\src/utils/common.h **** typedef INT16 s16;
 123:..\..\..\..\wpa_supplicant\src/utils/common.h **** typedef INT8 s8;
 124:..\..\..\..\wpa_supplicant\src/utils/common.h **** #define WPA_TYPES_DEFINED
 125:..\..\..\..\wpa_supplicant\src/utils/common.h **** #endif /* _MSC_VER */
 126:..\..\..\..\wpa_supplicant\src/utils/common.h **** 
 127:..\..\..\..\wpa_supplicant\src/utils/common.h **** #ifdef __vxworks
 128:..\..\..\..\wpa_supplicant\src/utils/common.h **** typedef unsigned long long u64;
 129:..\..\..\..\wpa_supplicant\src/utils/common.h **** typedef UINT32 u32;
 130:..\..\..\..\wpa_supplicant\src/utils/common.h **** typedef UINT16 u16;
 131:..\..\..\..\wpa_supplicant\src/utils/common.h **** typedef UINT8 u8;
 132:..\..\..\..\wpa_supplicant\src/utils/common.h **** typedef long long s64;
 133:..\..\..\..\wpa_supplicant\src/utils/common.h **** typedef INT32 s32;
 134:..\..\..\..\wpa_supplicant\src/utils/common.h **** typedef INT16 s16;
 135:..\..\..\..\wpa_supplicant\src/utils/common.h **** typedef INT8 s8;
 136:..\..\..\..\wpa_supplicant\src/utils/common.h **** #define WPA_TYPES_DEFINED
 137:..\..\..\..\wpa_supplicant\src/utils/common.h **** #endif /* __vxworks */
 138:..\..\..\..\wpa_supplicant\src/utils/common.h **** 
 139:..\..\..\..\wpa_supplicant\src/utils/common.h **** #ifndef WPA_TYPES_DEFINED
 140:..\..\..\..\wpa_supplicant\src/utils/common.h **** #ifdef CONFIG_USE_INTTYPES_H
 141:..\..\..\..\wpa_supplicant\src/utils/common.h **** #include <inttypes.h>
 142:..\..\..\..\wpa_supplicant\src/utils/common.h **** #else
 143:..\..\..\..\wpa_supplicant\src/utils/common.h **** #include <stdint.h>
 144:..\..\..\..\wpa_supplicant\src/utils/common.h **** #endif
 145:..\..\..\..\wpa_supplicant\src/utils/common.h **** typedef uint64_t u64;
 146:..\..\..\..\wpa_supplicant\src/utils/common.h **** typedef uint32_t u32;
 147:..\..\..\..\wpa_supplicant\src/utils/common.h **** typedef uint16_t u16;
 148:..\..\..\..\wpa_supplicant\src/utils/common.h **** typedef uint8_t u8;
 149:..\..\..\..\wpa_supplicant\src/utils/common.h **** typedef int64_t s64;
 150:..\..\..\..\wpa_supplicant\src/utils/common.h **** typedef int32_t s32;
 151:..\..\..\..\wpa_supplicant\src/utils/common.h **** typedef int16_t s16;
 152:..\..\..\..\wpa_supplicant\src/utils/common.h **** typedef int8_t s8;
 153:..\..\..\..\wpa_supplicant\src/utils/common.h **** #define WPA_TYPES_DEFINED
 154:..\..\..\..\wpa_supplicant\src/utils/common.h **** #endif /* !WPA_TYPES_DEFINED */
 155:..\..\..\..\wpa_supplicant\src/utils/common.h **** 
 156:..\..\..\..\wpa_supplicant\src/utils/common.h **** 
 157:..\..\..\..\wpa_supplicant\src/utils/common.h **** /* Define platform specific byte swapping macros */
 158:..\..\..\..\wpa_supplicant\src/utils/common.h **** 
 159:..\..\..\..\wpa_supplicant\src/utils/common.h **** #if defined(__CYGWIN__) || defined(CONFIG_NATIVE_WINDOWS)
 160:..\..\..\..\wpa_supplicant\src/utils/common.h **** 
 161:..\..\..\..\wpa_supplicant\src/utils/common.h **** static inline unsigned short wpa_swap_16(unsigned short v)
 162:..\..\..\..\wpa_supplicant\src/utils/common.h **** {
 163:..\..\..\..\wpa_supplicant\src/utils/common.h **** 	return ((v & 0xff) << 8) | (v >> 8);
 164:..\..\..\..\wpa_supplicant\src/utils/common.h **** }
 165:..\..\..\..\wpa_supplicant\src/utils/common.h **** 
 166:..\..\..\..\wpa_supplicant\src/utils/common.h **** static inline unsigned int wpa_swap_32(unsigned int v)
 167:..\..\..\..\wpa_supplicant\src/utils/common.h **** {
 168:..\..\..\..\wpa_supplicant\src/utils/common.h **** 	return ((v & 0xff) << 24) | ((v & 0xff00) << 8) |
 169:..\..\..\..\wpa_supplicant\src/utils/common.h **** 		((v & 0xff0000) >> 8) | (v >> 24);
 170:..\..\..\..\wpa_supplicant\src/utils/common.h **** }
 171:..\..\..\..\wpa_supplicant\src/utils/common.h **** 
 172:..\..\..\..\wpa_supplicant\src/utils/common.h **** #define le_to_host16(n) (n)
 173:..\..\..\..\wpa_supplicant\src/utils/common.h **** #define host_to_le16(n) (n)
 174:..\..\..\..\wpa_supplicant\src/utils/common.h **** #define be_to_host16(n) wpa_swap_16(n)
 175:..\..\..\..\wpa_supplicant\src/utils/common.h **** #define host_to_be16(n) wpa_swap_16(n)
 176:..\..\..\..\wpa_supplicant\src/utils/common.h **** #define le_to_host32(n) (n)
 177:..\..\..\..\wpa_supplicant\src/utils/common.h **** #define host_to_le32(n) (n)
 178:..\..\..\..\wpa_supplicant\src/utils/common.h **** #define be_to_host32(n) wpa_swap_32(n)
 179:..\..\..\..\wpa_supplicant\src/utils/common.h **** #define host_to_be32(n) wpa_swap_32(n)
 180:..\..\..\..\wpa_supplicant\src/utils/common.h **** #define host_to_le64(n) (n)
 181:..\..\..\..\wpa_supplicant\src/utils/common.h **** 
 182:..\..\..\..\wpa_supplicant\src/utils/common.h **** #define WPA_BYTE_SWAP_DEFINED
 183:..\..\..\..\wpa_supplicant\src/utils/common.h **** 
 184:..\..\..\..\wpa_supplicant\src/utils/common.h **** #endif /* __CYGWIN__ || CONFIG_NATIVE_WINDOWS */
 185:..\..\..\..\wpa_supplicant\src/utils/common.h **** 
 186:..\..\..\..\wpa_supplicant\src/utils/common.h **** 
 187:..\..\..\..\wpa_supplicant\src/utils/common.h **** #ifndef WPA_BYTE_SWAP_DEFINED
 188:..\..\..\..\wpa_supplicant\src/utils/common.h **** 
 189:..\..\..\..\wpa_supplicant\src/utils/common.h **** #ifndef __BYTE_ORDER
 190:..\..\..\..\wpa_supplicant\src/utils/common.h **** #ifndef __LITTLE_ENDIAN
 191:..\..\..\..\wpa_supplicant\src/utils/common.h **** #ifndef __BIG_ENDIAN
 192:..\..\..\..\wpa_supplicant\src/utils/common.h **** #define __LITTLE_ENDIAN 1234
 193:..\..\..\..\wpa_supplicant\src/utils/common.h **** #define __BIG_ENDIAN 4321
 194:..\..\..\..\wpa_supplicant\src/utils/common.h **** #if defined(sparc)
 195:..\..\..\..\wpa_supplicant\src/utils/common.h **** #define __BYTE_ORDER __BIG_ENDIAN
 196:..\..\..\..\wpa_supplicant\src/utils/common.h **** #endif
 197:..\..\..\..\wpa_supplicant\src/utils/common.h **** #endif /* __BIG_ENDIAN */
 198:..\..\..\..\wpa_supplicant\src/utils/common.h **** #endif /* __LITTLE_ENDIAN */
 199:..\..\..\..\wpa_supplicant\src/utils/common.h **** #endif /* __BYTE_ORDER */
 200:..\..\..\..\wpa_supplicant\src/utils/common.h **** 
 201:..\..\..\..\wpa_supplicant\src/utils/common.h **** #if __BYTE_ORDER == __LITTLE_ENDIAN
 202:..\..\..\..\wpa_supplicant\src/utils/common.h **** #define le_to_host16(n) ((__force u16) (le16) (n))
 203:..\..\..\..\wpa_supplicant\src/utils/common.h **** #define host_to_le16(n) ((__force le16) (u16) (n))
 204:..\..\..\..\wpa_supplicant\src/utils/common.h **** #define be_to_host16(n) bswap_16((__force u16) (be16) (n))
 205:..\..\..\..\wpa_supplicant\src/utils/common.h **** #define host_to_be16(n) ((__force be16) bswap_16((n)))
 206:..\..\..\..\wpa_supplicant\src/utils/common.h **** #define le_to_host32(n) ((__force u32) (le32) (n))
 207:..\..\..\..\wpa_supplicant\src/utils/common.h **** #define host_to_le32(n) ((__force le32) (u32) (n))
 208:..\..\..\..\wpa_supplicant\src/utils/common.h **** #define be_to_host32(n) bswap_32((__force u32) (be32) (n))
 209:..\..\..\..\wpa_supplicant\src/utils/common.h **** #define host_to_be32(n) ((__force be32) bswap_32((n)))
 210:..\..\..\..\wpa_supplicant\src/utils/common.h **** #define le_to_host64(n) ((__force u64) (le64) (n))
 211:..\..\..\..\wpa_supplicant\src/utils/common.h **** #define host_to_le64(n) ((__force le64) (u64) (n))
 212:..\..\..\..\wpa_supplicant\src/utils/common.h **** #define be_to_host64(n) bswap_64((__force u64) (be64) (n))
 213:..\..\..\..\wpa_supplicant\src/utils/common.h **** #define host_to_be64(n) ((__force be64) bswap_64((n)))
 214:..\..\..\..\wpa_supplicant\src/utils/common.h **** #elif __BYTE_ORDER == __BIG_ENDIAN
 215:..\..\..\..\wpa_supplicant\src/utils/common.h **** #define le_to_host16(n) bswap_16(n)
 216:..\..\..\..\wpa_supplicant\src/utils/common.h **** #define host_to_le16(n) bswap_16(n)
 217:..\..\..\..\wpa_supplicant\src/utils/common.h **** #define be_to_host16(n) (n)
 218:..\..\..\..\wpa_supplicant\src/utils/common.h **** #define host_to_be16(n) (n)
 219:..\..\..\..\wpa_supplicant\src/utils/common.h **** #define le_to_host32(n) bswap_32(n)
 220:..\..\..\..\wpa_supplicant\src/utils/common.h **** #define host_to_le32(n) bswap_32(n)
 221:..\..\..\..\wpa_supplicant\src/utils/common.h **** #define be_to_host32(n) (n)
 222:..\..\..\..\wpa_supplicant\src/utils/common.h **** #define host_to_be32(n) (n)
 223:..\..\..\..\wpa_supplicant\src/utils/common.h **** #define le_to_host64(n) bswap_64(n)
 224:..\..\..\..\wpa_supplicant\src/utils/common.h **** #define host_to_le64(n) bswap_64(n)
 225:..\..\..\..\wpa_supplicant\src/utils/common.h **** #define be_to_host64(n) (n)
 226:..\..\..\..\wpa_supplicant\src/utils/common.h **** #define host_to_be64(n) (n)
 227:..\..\..\..\wpa_supplicant\src/utils/common.h **** #ifndef WORDS_BIGENDIAN
 228:..\..\..\..\wpa_supplicant\src/utils/common.h **** #define WORDS_BIGENDIAN
 229:..\..\..\..\wpa_supplicant\src/utils/common.h **** #endif
 230:..\..\..\..\wpa_supplicant\src/utils/common.h **** #else
 231:..\..\..\..\wpa_supplicant\src/utils/common.h **** #error Could not determine CPU byte order
 232:..\..\..\..\wpa_supplicant\src/utils/common.h **** #endif
 233:..\..\..\..\wpa_supplicant\src/utils/common.h **** 
 234:..\..\..\..\wpa_supplicant\src/utils/common.h **** #define WPA_BYTE_SWAP_DEFINED
 235:..\..\..\..\wpa_supplicant\src/utils/common.h **** #endif /* !WPA_BYTE_SWAP_DEFINED */
 236:..\..\..\..\wpa_supplicant\src/utils/common.h **** 
 237:..\..\..\..\wpa_supplicant\src/utils/common.h **** 
 238:..\..\..\..\wpa_supplicant\src/utils/common.h **** /* Macros for handling unaligned memory accesses */
 239:..\..\..\..\wpa_supplicant\src/utils/common.h **** 
 240:..\..\..\..\wpa_supplicant\src/utils/common.h **** static inline u16 WPA_GET_BE16(const u8 *a)
 241:..\..\..\..\wpa_supplicant\src/utils/common.h **** {
 242:..\..\..\..\wpa_supplicant\src/utils/common.h **** 	return (a[0] << 8) | a[1];
 243:..\..\..\..\wpa_supplicant\src/utils/common.h **** }
 244:..\..\..\..\wpa_supplicant\src/utils/common.h **** 
 245:..\..\..\..\wpa_supplicant\src/utils/common.h **** static inline void WPA_PUT_BE16(u8 *a, u16 val)
 246:..\..\..\..\wpa_supplicant\src/utils/common.h **** {
 247:..\..\..\..\wpa_supplicant\src/utils/common.h **** 	a[0] = val >> 8;
 248:..\..\..\..\wpa_supplicant\src/utils/common.h **** 	a[1] = val & 0xff;
 249:..\..\..\..\wpa_supplicant\src/utils/common.h **** }
 250:..\..\..\..\wpa_supplicant\src/utils/common.h **** 
 251:..\..\..\..\wpa_supplicant\src/utils/common.h **** static inline u16 WPA_GET_LE16(const u8 *a)
 252:..\..\..\..\wpa_supplicant\src/utils/common.h **** {
 253:..\..\..\..\wpa_supplicant\src/utils/common.h **** 	return (a[1] << 8) | a[0];
 254:..\..\..\..\wpa_supplicant\src/utils/common.h **** }
 255:..\..\..\..\wpa_supplicant\src/utils/common.h **** 
 256:..\..\..\..\wpa_supplicant\src/utils/common.h **** static inline void WPA_PUT_LE16(u8 *a, u16 val)
 257:..\..\..\..\wpa_supplicant\src/utils/common.h **** {
 258:..\..\..\..\wpa_supplicant\src/utils/common.h **** 	a[1] = val >> 8;
 259:..\..\..\..\wpa_supplicant\src/utils/common.h **** 	a[0] = val & 0xff;
 260:..\..\..\..\wpa_supplicant\src/utils/common.h **** }
 261:..\..\..\..\wpa_supplicant\src/utils/common.h **** 
 262:..\..\..\..\wpa_supplicant\src/utils/common.h **** static inline u32 WPA_GET_BE24(const u8 *a)
 263:..\..\..\..\wpa_supplicant\src/utils/common.h **** {
 264:..\..\..\..\wpa_supplicant\src/utils/common.h **** 	return (a[0] << 16) | (a[1] << 8) | a[2];
 265:..\..\..\..\wpa_supplicant\src/utils/common.h **** }
 266:..\..\..\..\wpa_supplicant\src/utils/common.h **** 
 267:..\..\..\..\wpa_supplicant\src/utils/common.h **** static inline void WPA_PUT_BE24(u8 *a, u32 val)
 268:..\..\..\..\wpa_supplicant\src/utils/common.h **** {
 269:..\..\..\..\wpa_supplicant\src/utils/common.h **** 	a[0] = (val >> 16) & 0xff;
 270:..\..\..\..\wpa_supplicant\src/utils/common.h **** 	a[1] = (val >> 8) & 0xff;
 271:..\..\..\..\wpa_supplicant\src/utils/common.h **** 	a[2] = val & 0xff;
 272:..\..\..\..\wpa_supplicant\src/utils/common.h **** }
 273:..\..\..\..\wpa_supplicant\src/utils/common.h **** 
 274:..\..\..\..\wpa_supplicant\src/utils/common.h **** static inline u32 WPA_GET_BE32(const u8 *a)
 275:..\..\..\..\wpa_supplicant\src/utils/common.h **** {
 276:..\..\..\..\wpa_supplicant\src/utils/common.h **** 	return ((u32) a[0] << 24) | (a[1] << 16) | (a[2] << 8) | a[3];
 277:..\..\..\..\wpa_supplicant\src/utils/common.h **** }
 278:..\..\..\..\wpa_supplicant\src/utils/common.h **** 
 279:..\..\..\..\wpa_supplicant\src/utils/common.h **** static inline void WPA_PUT_BE32(u8 *a, u32 val)
 280:..\..\..\..\wpa_supplicant\src/utils/common.h **** {
 281:..\..\..\..\wpa_supplicant\src/utils/common.h **** 	a[0] = (val >> 24) & 0xff;
 282:..\..\..\..\wpa_supplicant\src/utils/common.h **** 	a[1] = (val >> 16) & 0xff;
 283:..\..\..\..\wpa_supplicant\src/utils/common.h **** 	a[2] = (val >> 8) & 0xff;
 284:..\..\..\..\wpa_supplicant\src/utils/common.h **** 	a[3] = val & 0xff;
 285:..\..\..\..\wpa_supplicant\src/utils/common.h **** }
 286:..\..\..\..\wpa_supplicant\src/utils/common.h **** 
 287:..\..\..\..\wpa_supplicant\src/utils/common.h **** static inline u32 WPA_GET_LE32(const u8 *a)
 288:..\..\..\..\wpa_supplicant\src/utils/common.h **** {
 289:..\..\..\..\wpa_supplicant\src/utils/common.h **** 	return ((u32) a[3] << 24) | (a[2] << 16) | (a[1] << 8) | a[0];
 290:..\..\..\..\wpa_supplicant\src/utils/common.h **** }
 291:..\..\..\..\wpa_supplicant\src/utils/common.h **** 
 292:..\..\..\..\wpa_supplicant\src/utils/common.h **** static inline void WPA_PUT_LE32(u8 *a, u32 val)
 293:..\..\..\..\wpa_supplicant\src/utils/common.h **** {
 294:..\..\..\..\wpa_supplicant\src/utils/common.h **** 	a[3] = (val >> 24) & 0xff;
 1333              		.loc 6 294 2
 295:..\..\..\..\wpa_supplicant\src/utils/common.h **** 	a[2] = (val >> 16) & 0xff;
 296:..\..\..\..\wpa_supplicant\src/utils/common.h **** 	a[1] = (val >> 8) & 0xff;
 297:..\..\..\..\wpa_supplicant\src/utils/common.h **** 	a[0] = val & 0xff;
 1334              		.loc 6 297 7 is_stmt 0
 1335 01dc 23003501 		sb	s3,0(a0)
 1336              	.LBE119:
 1337              	.LBE118:
 1338              	.LBE117:
 1339              	.LBE116:
 302:C:/Users/stapi/OneDrive/Desktop/GD32VW553/V1_MQTT_OK/GD32VW55X_Wifi_BLE_SDK/GD32VW55x_RELEASE_V1.0.2/MSDK/wpa_supplicant/src/ap\neighbor_db.c **** 	wpabuf_put_u8(nr, op_class);
 1340              		.loc 1 302 2
 1341 01e0 8345A100 		lbu	a1,10(sp)
 1342              	.LBB123:
 1343              	.LBB122:
 1344              	.LBB121:
 1345              	.LBB120:
 296:..\..\..\..\wpa_supplicant\src/utils/common.h **** 	a[0] = val & 0xff;
 1346              		.loc 6 296 14
 1347 01e4 93D78900 		srli	a5,s3,8
 296:..\..\..\..\wpa_supplicant\src/utils/common.h **** 	a[0] = val & 0xff;
 1348              		.loc 6 296 7
 1349 01e8 A300F500 		sb	a5,1(a0)
 294:..\..\..\..\wpa_supplicant\src/utils/common.h **** 	a[2] = (val >> 16) & 0xff;
 1350              		.loc 6 294 7
 1351 01ec A3010500 		sb	zero,3(a0)
 295:..\..\..\..\wpa_supplicant\src/utils/common.h **** 	a[1] = (val >> 8) & 0xff;
 1352              		.loc 6 295 2 is_stmt 1
 295:..\..\..\..\wpa_supplicant\src/utils/common.h **** 	a[1] = (val >> 8) & 0xff;
 1353              		.loc 6 295 7 is_stmt 0
 1354 01f0 23010500 		sb	zero,2(a0)
 296:..\..\..\..\wpa_supplicant\src/utils/common.h **** 	a[0] = val & 0xff;
 1355              		.loc 6 296 2 is_stmt 1
 1356              		.loc 6 297 2
 1357              	.LVL113:
 1358              	.LBE120:
 1359              	.LBE121:
 1360              	.LBE122:
 1361              	.LBE123:
 1362              		.loc 1 302 2
 1363 01f4 2285     		mv	a0,s0
 1364 01f6 97000000 		call	wpabuf_put_u8
 1364      E7800000 
 1365              	.LVL114:
 303:C:/Users/stapi/OneDrive/Desktop/GD32VW553/V1_MQTT_OK/GD32VW55X_Wifi_BLE_SDK/GD32VW55x_RELEASE_V1.0.2/MSDK/wpa_supplicant/src/ap\neighbor_db.c **** 	wpabuf_put_u8(nr, channel);
 1366              		.loc 1 303 2
 1367 01fe 83459100 		lbu	a1,9(sp)
 1368 0202 2285     		mv	a0,s0
 1369 0204 97000000 		call	wpabuf_put_u8
 1369      E7800000 
 1370              	.LVL115:
 304:C:/Users/stapi/OneDrive/Desktop/GD32VW553/V1_MQTT_OK/GD32VW55X_Wifi_BLE_SDK/GD32VW55x_RELEASE_V1.0.2/MSDK/wpa_supplicant/src/ap\neighbor_db.c **** 	wpabuf_put_u8(nr, ieee80211_get_phy_type(hapd->iface->freq, ht, vht));
 1371              		.loc 1 304 2
 1372              		.loc 1 304 20 is_stmt 0
 1373 020c 83270900 		lw	a5,0(s2)
 1374 0210 5286     		mv	a2,s4
 1375 0212 D685     		mv	a1,s5
 1376 0214 03A54747 		lw	a0,1140(a5)
 1377 0218 97000000 		call	ieee80211_get_phy_type
 1377      E7800000 
 1378              	.LVL116:
 1379              		.loc 1 304 2
 1380 0220 9375F50F 		andi	a1,a0,0xff
 1381 0224 2285     		mv	a0,s0
 1382 0226 97000000 		call	wpabuf_put_u8
 1382      E7800000 
 1383              	.LVL117:
 305:C:/Users/stapi/OneDrive/Desktop/GD32VW553/V1_MQTT_OK/GD32VW55X_Wifi_BLE_SDK/GD32VW55x_RELEASE_V1.0.2/MSDK/wpa_supplicant/src/ap\neighbor_db.c **** 
 306:C:/Users/stapi/OneDrive/Desktop/GD32VW553/V1_MQTT_OK/GD32VW55X_Wifi_BLE_SDK/GD32VW55x_RELEASE_V1.0.2/MSDK/wpa_supplicant/src/ap\neighbor_db.c **** 	/*
 307:C:/Users/stapi/OneDrive/Desktop/GD32VW553/V1_MQTT_OK/GD32VW55X_Wifi_BLE_SDK/GD32VW55x_RELEASE_V1.0.2/MSDK/wpa_supplicant/src/ap\neighbor_db.c **** 	 * Wide Bandwidth Channel subelement may be needed to allow the
 308:C:/Users/stapi/OneDrive/Desktop/GD32VW553/V1_MQTT_OK/GD32VW55X_Wifi_BLE_SDK/GD32VW55x_RELEASE_V1.0.2/MSDK/wpa_supplicant/src/ap\neighbor_db.c **** 	 * receiving STA to send packets to the AP. See IEEE P802.11-REVmc/D5.0
 309:C:/Users/stapi/OneDrive/Desktop/GD32VW553/V1_MQTT_OK/GD32VW55X_Wifi_BLE_SDK/GD32VW55x_RELEASE_V1.0.2/MSDK/wpa_supplicant/src/ap\neighbor_db.c **** 	 * Figure 9-301.
 310:C:/Users/stapi/OneDrive/Desktop/GD32VW553/V1_MQTT_OK/GD32VW55X_Wifi_BLE_SDK/GD32VW55x_RELEASE_V1.0.2/MSDK/wpa_supplicant/src/ap\neighbor_db.c **** 	 */
 311:C:/Users/stapi/OneDrive/Desktop/GD32VW553/V1_MQTT_OK/GD32VW55X_Wifi_BLE_SDK/GD32VW55x_RELEASE_V1.0.2/MSDK/wpa_supplicant/src/ap\neighbor_db.c **** 	wpabuf_put_u8(nr, WNM_NEIGHBOR_WIDE_BW_CHAN);
 1384              		.loc 1 311 2 is_stmt 1
 1385 022e 9945     		li	a1,6
 1386 0230 2285     		mv	a0,s0
 1387 0232 97000000 		call	wpabuf_put_u8
 1387      E7800000 
 1388              	.LVL118:
 312:C:/Users/stapi/OneDrive/Desktop/GD32VW553/V1_MQTT_OK/GD32VW55X_Wifi_BLE_SDK/GD32VW55x_RELEASE_V1.0.2/MSDK/wpa_supplicant/src/ap\neighbor_db.c **** 	wpabuf_put_u8(nr, 3);
 1389              		.loc 1 312 2
 1390 023a 8D45     		li	a1,3
 1391 023c 2285     		mv	a0,s0
 1392 023e 97000000 		call	wpabuf_put_u8
 1392      E7800000 
 1393              	.LVL119:
 313:C:/Users/stapi/OneDrive/Desktop/GD32VW553/V1_MQTT_OK/GD32VW55X_Wifi_BLE_SDK/GD32VW55x_RELEASE_V1.0.2/MSDK/wpa_supplicant/src/ap\neighbor_db.c **** 	wpabuf_put_u8(nr, width);
 1394              		.loc 1 313 2
 1395 0246 A685     		mv	a1,s1
 1396 0248 2285     		mv	a0,s0
 1397 024a 97000000 		call	wpabuf_put_u8
 1397      E7800000 
 1398              	.LVL120:
 314:C:/Users/stapi/OneDrive/Desktop/GD32VW553/V1_MQTT_OK/GD32VW55X_Wifi_BLE_SDK/GD32VW55x_RELEASE_V1.0.2/MSDK/wpa_supplicant/src/ap\neighbor_db.c **** 	wpabuf_put_u8(nr, center_freq1_idx);
 1399              		.loc 1 314 2
 1400 0252 8345B100 		lbu	a1,11(sp)
 1401 0256 2285     		mv	a0,s0
 1402 0258 97000000 		call	wpabuf_put_u8
 1402      E7800000 
 1403              	.LVL121:
 315:C:/Users/stapi/OneDrive/Desktop/GD32VW553/V1_MQTT_OK/GD32VW55X_Wifi_BLE_SDK/GD32VW55x_RELEASE_V1.0.2/MSDK/wpa_supplicant/src/ap\neighbor_db.c **** 	wpabuf_put_u8(nr, center_freq2_idx);
 1404              		.loc 1 315 2
 1405 0260 DA85     		mv	a1,s6
 1406 0262 2285     		mv	a0,s0
 1407 0264 97000000 		call	wpabuf_put_u8
 1407      E7800000 
 1408              	.LVL122:
 316:C:/Users/stapi/OneDrive/Desktop/GD32VW553/V1_MQTT_OK/GD32VW55X_Wifi_BLE_SDK/GD32VW55x_RELEASE_V1.0.2/MSDK/wpa_supplicant/src/ap\neighbor_db.c **** 
 317:C:/Users/stapi/OneDrive/Desktop/GD32VW553/V1_MQTT_OK/GD32VW55X_Wifi_BLE_SDK/GD32VW55x_RELEASE_V1.0.2/MSDK/wpa_supplicant/src/ap\neighbor_db.c **** 	hostapd_neighbor_set(hapd, hapd->own_addr, &ssid, nr, hapd->iconf->lci,
 1409              		.loc 1 317 2
 1410              		.loc 1 317 60 is_stmt 0
 1411 026c 03274900 		lw	a4,4(s2)
 1412              		.loc 1 317 2
 1413 0270 8148     		li	a7,0
 1414 0272 A286     		mv	a3,s0
 1415 0274 03280715 		lw	a6,336(a4)
 1416 0278 8327C714 		lw	a5,332(a4)
 1417 027c 03278714 		lw	a4,328(a4)
 1418 0280 7000     		addi	a2,sp,12
 1419 0282 DE85     		mv	a1,s7
 1420 0284 4A85     		mv	a0,s2
 1421 0286 97000000 		call	hostapd_neighbor_set
 1421      E7800000 
 1422              	.LVL123:
 318:C:/Users/stapi/OneDrive/Desktop/GD32VW553/V1_MQTT_OK/GD32VW55X_Wifi_BLE_SDK/GD32VW55x_RELEASE_V1.0.2/MSDK/wpa_supplicant/src/ap\neighbor_db.c **** 			     hapd->iconf->civic, hapd->iconf->stationary_ap, 0);
 319:C:/Users/stapi/OneDrive/Desktop/GD32VW553/V1_MQTT_OK/GD32VW55X_Wifi_BLE_SDK/GD32VW55x_RELEASE_V1.0.2/MSDK/wpa_supplicant/src/ap\neighbor_db.c **** 
 320:C:/Users/stapi/OneDrive/Desktop/GD32VW553/V1_MQTT_OK/GD32VW55X_Wifi_BLE_SDK/GD32VW55x_RELEASE_V1.0.2/MSDK/wpa_supplicant/src/ap\neighbor_db.c **** 	wpabuf_free(nr);
 1423              		.loc 1 320 2 is_stmt 1
 1424 028e 2285     		mv	a0,s0
 1425 0290 97000000 		call	wpabuf_free
 1425      E7800000 
 1426              	.LVL124:
 1427              	.L77:
 321:C:/Users/stapi/OneDrive/Desktop/GD32VW553/V1_MQTT_OK/GD32VW55X_Wifi_BLE_SDK/GD32VW55x_RELEASE_V1.0.2/MSDK/wpa_supplicant/src/ap\neighbor_db.c **** #endif /* NEED_AP_MLME */
 322:C:/Users/stapi/OneDrive/Desktop/GD32VW553/V1_MQTT_OK/GD32VW55X_Wifi_BLE_SDK/GD32VW55x_RELEASE_V1.0.2/MSDK/wpa_supplicant/src/ap\neighbor_db.c **** }
 1428              		.loc 1 322 1 is_stmt 0
 1429 0298 4561     		addi	sp,sp,48
 1430              		.cfi_def_cfa_offset 0
 1431 029a 17030000 		tail	__riscv_restore_8
 1431      67000300 
 1432              		.cfi_restore 23
 1433              		.cfi_restore 22
 1434              		.cfi_restore 21
 1435              		.cfi_restore 20
 1436              		.cfi_restore 19
 1437              		.cfi_restore 18
 1438              		.cfi_restore 9
 1439              		.cfi_restore 8
 1440              		.cfi_restore 1
 1441              		.cfi_def_cfa_offset -48
 1442              		.cfi_endproc
 1443              	.LFE145:
 1445              		.text
 1446              	.Letext0:
 1447              		.file 7 "c:\\users\\stapi\\onedrive\\desktop\\gd32vw553\\embeddedbuilder_v1.4.7.26843\\tools\\nucl
 1448              		.file 8 "c:\\users\\stapi\\onedrive\\desktop\\gd32vw553\\embeddedbuilder_v1.4.7.26843\\tools\\nucl
 1449              		.file 9 "c:\\users\\stapi\\onedrive\\desktop\\gd32vw553\\embeddedbuilder_v1.4.7.26843\\tools\\nucl
 1450              		.file 10 "..\\..\\..\\..\\lwip\\lwip-2.1.2\\src\\include/lwip/arch.h"
 1451              		.file 11 "..\\..\\..\\..\\lwip\\lwip-2.1.2\\src\\include/lwip/inet.h"
 1452              		.file 12 "..\\..\\..\\..\\wpa_supplicant\\src/utils/wpa_debug.h"
 1453              		.file 13 "..\\..\\..\\..\\wpa_supplicant\\src/common/defs.h"
 1454              		.file 14 "..\\..\\..\\..\\wpa_supplicant\\src/utils/ip_addr.h"
 1455              		.file 15 "..\\..\\..\\..\\wpa_supplicant\\src/common/ieee802_11_defs.h"
 1456              		.file 16 "..\\..\\..\\..\\wpa_supplicant\\src/common/ieee802_11_common.h"
 1457              		.file 17 "..\\..\\..\\..\\wpa_supplicant\\src/wps/wps_defs.h"
 1458              		.file 18 "..\\..\\..\\..\\wpa_supplicant\\src/wps/wps.h"
 1459              		.file 19 "C:/Users/stapi/OneDrive/Desktop/GD32VW553/V1_MQTT_OK/GD32VW55X_Wifi_BLE_SDK/GD32VW55x_RE
 1460              		.file 20 "..\\..\\..\\..\\wpa_supplicant\\src/drivers/driver.h"
 1461              		.file 21 "C:/Users/stapi/OneDrive/Desktop/GD32VW553/V1_MQTT_OK/GD32VW55X_Wifi_BLE_SDK/GD32VW55x_RE
 1462              		.file 22 "C:/Users/stapi/OneDrive/Desktop/GD32VW553/V1_MQTT_OK/GD32VW55X_Wifi_BLE_SDK/GD32VW55x_RE
 1463              		.file 23 "..\\..\\..\\..\\wpa_supplicant\\src/utils/crc32.h"
DEFINED SYMBOLS
                            *ABS*:0000000000000000 neighbor_db.c
C:\Users\stapi\AppData\Local\Temp\cc2hhySa.s:12     .text.hostapd_neighbor_clear_entry:0000000000000000 hostapd_neighbor_clear_entry
C:\Users\stapi\AppData\Local\Temp\cc2hhySa.s:16     .text.hostapd_neighbor_clear_entry:0000000000000000 .L0 
C:\Users\stapi\AppData\Local\Temp\cc2hhySa.s:18     .text.hostapd_neighbor_clear_entry:0000000000000000 .L0 
C:\Users\stapi\AppData\Local\Temp\cc2hhySa.s:19     .text.hostapd_neighbor_clear_entry:0000000000000008 .L0 
C:\Users\stapi\AppData\Local\Temp\cc2hhySa.s:20     .text.hostapd_neighbor_clear_entry:0000000000000008 .L0 
C:\Users\stapi\AppData\Local\Temp\cc2hhySa.s:21     .text.hostapd_neighbor_clear_entry:0000000000000008 .L0 
C:\Users\stapi\AppData\Local\Temp\cc2hhySa.s:23     .text.hostapd_neighbor_clear_entry:0000000000000008 .L0 
C:\Users\stapi\AppData\Local\Temp\cc2hhySa.s:24     .text.hostapd_neighbor_clear_entry:0000000000000008 .L0 
C:\Users\stapi\AppData\Local\Temp\cc2hhySa.s:26     .text.hostapd_neighbor_clear_entry:000000000000000a .L0 
C:\Users\stapi\AppData\Local\Temp\cc2hhySa.s:31     .text.hostapd_neighbor_clear_entry:0000000000000014 .L0 
C:\Users\stapi\AppData\Local\Temp\cc2hhySa.s:32     .text.hostapd_neighbor_clear_entry:0000000000000014 .L0 
C:\Users\stapi\AppData\Local\Temp\cc2hhySa.s:34     .text.hostapd_neighbor_clear_entry:0000000000000016 .L0 
C:\Users\stapi\AppData\Local\Temp\cc2hhySa.s:36     .text.hostapd_neighbor_clear_entry:000000000000001a .L0 
C:\Users\stapi\AppData\Local\Temp\cc2hhySa.s:39     .text.hostapd_neighbor_clear_entry:0000000000000022 .L0 
C:\Users\stapi\AppData\Local\Temp\cc2hhySa.s:40     .text.hostapd_neighbor_clear_entry:0000000000000022 .L0 
C:\Users\stapi\AppData\Local\Temp\cc2hhySa.s:42     .text.hostapd_neighbor_clear_entry:0000000000000024 .L0 
C:\Users\stapi\AppData\Local\Temp\cc2hhySa.s:44     .text.hostapd_neighbor_clear_entry:0000000000000028 .L0 
C:\Users\stapi\AppData\Local\Temp\cc2hhySa.s:47     .text.hostapd_neighbor_clear_entry:0000000000000030 .L0 
C:\Users\stapi\AppData\Local\Temp\cc2hhySa.s:48     .text.hostapd_neighbor_clear_entry:0000000000000030 .L0 
C:\Users\stapi\AppData\Local\Temp\cc2hhySa.s:50     .text.hostapd_neighbor_clear_entry:0000000000000032 .L0 
C:\Users\stapi\AppData\Local\Temp\cc2hhySa.s:52     .text.hostapd_neighbor_clear_entry:0000000000000036 .L0 
C:\Users\stapi\AppData\Local\Temp\cc2hhySa.s:57     .text.hostapd_neighbor_clear_entry:0000000000000044 .L0 
C:\Users\stapi\AppData\Local\Temp\cc2hhySa.s:63     .text.hostapd_neighbor_clear_entry:0000000000000056 .L0 
C:\Users\stapi\AppData\Local\Temp\cc2hhySa.s:64     .text.hostapd_neighbor_clear_entry:0000000000000056 .L0 
C:\Users\stapi\AppData\Local\Temp\cc2hhySa.s:66     .text.hostapd_neighbor_clear_entry:000000000000005a .L0 
C:\Users\stapi\AppData\Local\Temp\cc2hhySa.s:67     .text.hostapd_neighbor_clear_entry:0000000000000062 .L0 
C:\Users\stapi\AppData\Local\Temp\cc2hhySa.s:68     .text.hostapd_neighbor_clear_entry:0000000000000062 .L0 
C:\Users\stapi\AppData\Local\Temp\cc2hhySa.s:69     .text.hostapd_neighbor_clear_entry:0000000000000062 .L0 
C:\Users\stapi\AppData\Local\Temp\cc2hhySa.s:70     .text.hostapd_neighbor_clear_entry:0000000000000062 .L0 
C:\Users\stapi\AppData\Local\Temp\cc2hhySa.s:76     .text.wpabuf_put_u8:0000000000000000 wpabuf_put_u8
C:\Users\stapi\AppData\Local\Temp\cc2hhySa.s:80     .text.wpabuf_put_u8:0000000000000000 .L0 
C:\Users\stapi\AppData\Local\Temp\cc2hhySa.s:82     .text.wpabuf_put_u8:0000000000000000 .L0 
C:\Users\stapi\AppData\Local\Temp\cc2hhySa.s:83     .text.wpabuf_put_u8:0000000000000008 .L0 
C:\Users\stapi\AppData\Local\Temp\cc2hhySa.s:84     .text.wpabuf_put_u8:0000000000000008 .L0 
C:\Users\stapi\AppData\Local\Temp\cc2hhySa.s:85     .text.wpabuf_put_u8:0000000000000008 .L0 
C:\Users\stapi\AppData\Local\Temp\cc2hhySa.s:87     .text.wpabuf_put_u8:0000000000000008 .L0 
C:\Users\stapi\AppData\Local\Temp\cc2hhySa.s:88     .text.wpabuf_put_u8:0000000000000008 .L0 
C:\Users\stapi\AppData\Local\Temp\cc2hhySa.s:90     .text.wpabuf_put_u8:000000000000000a .L0 
C:\Users\stapi\AppData\Local\Temp\cc2hhySa.s:95     .text.wpabuf_put_u8:0000000000000014 .L0 
C:\Users\stapi\AppData\Local\Temp\cc2hhySa.s:96     .text.wpabuf_put_u8:0000000000000014 .L0 
C:\Users\stapi\AppData\Local\Temp\cc2hhySa.s:98     .text.wpabuf_put_u8:0000000000000018 .L0 
C:\Users\stapi\AppData\Local\Temp\cc2hhySa.s:99     .text.wpabuf_put_u8:0000000000000020 .L0 
C:\Users\stapi\AppData\Local\Temp\cc2hhySa.s:100    .text.wpabuf_put_u8:0000000000000020 .L0 
C:\Users\stapi\AppData\Local\Temp\cc2hhySa.s:101    .text.wpabuf_put_u8:0000000000000020 .L0 
C:\Users\stapi\AppData\Local\Temp\cc2hhySa.s:102    .text.wpabuf_put_u8:0000000000000020 .L0 
C:\Users\stapi\AppData\Local\Temp\cc2hhySa.s:109    .text.hostapd_neighbor_get:0000000000000000 hostapd_neighbor_get
C:\Users\stapi\AppData\Local\Temp\cc2hhySa.s:112    .text.hostapd_neighbor_get:0000000000000000 .L0 
C:\Users\stapi\AppData\Local\Temp\cc2hhySa.s:114    .text.hostapd_neighbor_get:0000000000000000 .L0 
C:\Users\stapi\AppData\Local\Temp\cc2hhySa.s:115    .text.hostapd_neighbor_get:0000000000000008 .L0 
C:\Users\stapi\AppData\Local\Temp\cc2hhySa.s:116    .text.hostapd_neighbor_get:0000000000000008 .L0 
C:\Users\stapi\AppData\Local\Temp\cc2hhySa.s:117    .text.hostapd_neighbor_get:0000000000000008 .L0 
C:\Users\stapi\AppData\Local\Temp\cc2hhySa.s:118    .text.hostapd_neighbor_get:0000000000000008 .L0 
C:\Users\stapi\AppData\Local\Temp\cc2hhySa.s:119    .text.hostapd_neighbor_get:0000000000000008 .L0 
C:\Users\stapi\AppData\Local\Temp\cc2hhySa.s:120    .text.hostapd_neighbor_get:0000000000000008 .L0 
C:\Users\stapi\AppData\Local\Temp\cc2hhySa.s:122    .text.hostapd_neighbor_get:0000000000000008 .L0 
C:\Users\stapi\AppData\Local\Temp\cc2hhySa.s:123    .text.hostapd_neighbor_get:0000000000000008 .L0 
C:\Users\stapi\AppData\Local\Temp\cc2hhySa.s:129    .text.hostapd_neighbor_get:0000000000000016 .L0 
C:\Users\stapi\AppData\Local\Temp\cc2hhySa.s:132    .text.hostapd_neighbor_get:000000000000001a .L0 
C:\Users\stapi\AppData\Local\Temp\cc2hhySa.s:136    .text.hostapd_neighbor_get:000000000000001c .L0 
C:\Users\stapi\AppData\Local\Temp\cc2hhySa.s:138    .text.hostapd_neighbor_get:0000000000000020 .L0 
C:\Users\stapi\AppData\Local\Temp\cc2hhySa.s:144    .text.hostapd_neighbor_get:0000000000000024 .L0 
C:\Users\stapi\AppData\Local\Temp\cc2hhySa.s:145    .text.hostapd_neighbor_get:0000000000000024 .L0 
C:\Users\stapi\AppData\Local\Temp\cc2hhySa.s:151    .text.hostapd_neighbor_get:0000000000000034 .L0 
C:\Users\stapi\AppData\Local\Temp\cc2hhySa.s:154    .text.hostapd_neighbor_get:0000000000000036 .L0 
C:\Users\stapi\AppData\Local\Temp\cc2hhySa.s:159    .text.hostapd_neighbor_get:000000000000003a .L0 
C:\Users\stapi\AppData\Local\Temp\cc2hhySa.s:161    .text.hostapd_neighbor_get:000000000000003e .L0 
C:\Users\stapi\AppData\Local\Temp\cc2hhySa.s:163    .text.hostapd_neighbor_get:0000000000000042 .L0 
C:\Users\stapi\AppData\Local\Temp\cc2hhySa.s:166    .text.hostapd_neighbor_get:0000000000000048 .L0 
C:\Users\stapi\AppData\Local\Temp\cc2hhySa.s:171    .text.hostapd_neighbor_get:0000000000000056 .L0 
C:\Users\stapi\AppData\Local\Temp\cc2hhySa.s:175    .text.hostapd_neighbor_get:0000000000000058 .L0 
C:\Users\stapi\AppData\Local\Temp\cc2hhySa.s:177    .text.hostapd_neighbor_get:0000000000000062 .L0 
C:\Users\stapi\AppData\Local\Temp\cc2hhySa.s:178    .text.hostapd_neighbor_get:0000000000000062 .L0 
C:\Users\stapi\AppData\Local\Temp\cc2hhySa.s:179    .text.hostapd_neighbor_get:0000000000000062 .L0 
C:\Users\stapi\AppData\Local\Temp\cc2hhySa.s:180    .text.hostapd_neighbor_get:0000000000000062 .L0 
C:\Users\stapi\AppData\Local\Temp\cc2hhySa.s:181    .text.hostapd_neighbor_get:0000000000000062 .L0 
C:\Users\stapi\AppData\Local\Temp\cc2hhySa.s:182    .text.hostapd_neighbor_get:0000000000000062 .L0 
C:\Users\stapi\AppData\Local\Temp\cc2hhySa.s:183    .text.hostapd_neighbor_get:0000000000000062 .L0 
C:\Users\stapi\AppData\Local\Temp\cc2hhySa.s:209    .text.hostapd_neighbor_show:0000000000000000 hostapd_neighbor_show
C:\Users\stapi\AppData\Local\Temp\cc2hhySa.s:212    .text.hostapd_neighbor_show:0000000000000000 .L0 
C:\Users\stapi\AppData\Local\Temp\cc2hhySa.s:214    .text.hostapd_neighbor_show:0000000000000000 .L0 
C:\Users\stapi\AppData\Local\Temp\cc2hhySa.s:215    .text.hostapd_neighbor_show:0000000000000008 .L0 
C:\Users\stapi\AppData\Local\Temp\cc2hhySa.s:216    .text.hostapd_neighbor_show:0000000000000008 .L0 
C:\Users\stapi\AppData\Local\Temp\cc2hhySa.s:217    .text.hostapd_neighbor_show:0000000000000008 .L0 
C:\Users\stapi\AppData\Local\Temp\cc2hhySa.s:218    .text.hostapd_neighbor_show:0000000000000008 .L0 
C:\Users\stapi\AppData\Local\Temp\cc2hhySa.s:219    .text.hostapd_neighbor_show:0000000000000008 .L0 
C:\Users\stapi\AppData\Local\Temp\cc2hhySa.s:220    .text.hostapd_neighbor_show:0000000000000008 .L0 
C:\Users\stapi\AppData\Local\Temp\cc2hhySa.s:221    .text.hostapd_neighbor_show:0000000000000008 .L0 
C:\Users\stapi\AppData\Local\Temp\cc2hhySa.s:222    .text.hostapd_neighbor_show:0000000000000008 .L0 
C:\Users\stapi\AppData\Local\Temp\cc2hhySa.s:223    .text.hostapd_neighbor_show:0000000000000008 .L0 
C:\Users\stapi\AppData\Local\Temp\cc2hhySa.s:224    .text.hostapd_neighbor_show:0000000000000008 .L0 
C:\Users\stapi\AppData\Local\Temp\cc2hhySa.s:225    .text.hostapd_neighbor_show:0000000000000008 .L0 
C:\Users\stapi\AppData\Local\Temp\cc2hhySa.s:226    .text.hostapd_neighbor_show:0000000000000008 .L0 
C:\Users\stapi\AppData\Local\Temp\cc2hhySa.s:227    .text.hostapd_neighbor_show:0000000000000008 .L0 
C:\Users\stapi\AppData\Local\Temp\cc2hhySa.s:228    .text.hostapd_neighbor_show:0000000000000008 .L0 
C:\Users\stapi\AppData\Local\Temp\cc2hhySa.s:230    .text.hostapd_neighbor_show:0000000000000008 .L0 
C:\Users\stapi\AppData\Local\Temp\cc2hhySa.s:231    .text.hostapd_neighbor_show:0000000000000008 .L0 
C:\Users\stapi\AppData\Local\Temp\cc2hhySa.s:233    .text.hostapd_neighbor_show:0000000000000008 .L0 
C:\Users\stapi\AppData\Local\Temp\cc2hhySa.s:234    .text.hostapd_neighbor_show:0000000000000008 .L0 
C:\Users\stapi\AppData\Local\Temp\cc2hhySa.s:235    .text.hostapd_neighbor_show:0000000000000008 .L0 
C:\Users\stapi\AppData\Local\Temp\cc2hhySa.s:241    .text.hostapd_neighbor_show:0000000000000016 .L0 
C:\Users\stapi\AppData\Local\Temp\cc2hhySa.s:246    .text.hostapd_neighbor_show:0000000000000022 .L0 
C:\Users\stapi\AppData\Local\Temp\cc2hhySa.s:247    .text.hostapd_neighbor_show:0000000000000026 .L0 
C:\Users\stapi\AppData\Local\Temp\cc2hhySa.s:249    .text.hostapd_neighbor_show:0000000000000026 .L0 
C:\Users\stapi\AppData\Local\Temp\cc2hhySa.s:251    .text.hostapd_neighbor_show:0000000000000028 .L0 
C:\Users\stapi\AppData\Local\Temp\cc2hhySa.s:254    .text.hostapd_neighbor_show:000000000000002c .L0 
C:\Users\stapi\AppData\Local\Temp\cc2hhySa.s:255    .text.hostapd_neighbor_show:000000000000002c .L0 
C:\Users\stapi\AppData\Local\Temp\cc2hhySa.s:257    .text.hostapd_neighbor_show:000000000000002e .L0 
C:\Users\stapi\AppData\Local\Temp\cc2hhySa.s:260    .text.hostapd_neighbor_show:0000000000000032 .L0 
C:\Users\stapi\AppData\Local\Temp\cc2hhySa.s:268    .text.hostapd_neighbor_show:0000000000000042 .L0 
C:\Users\stapi\AppData\Local\Temp\cc2hhySa.s:271    .text.hostapd_neighbor_show:0000000000000046 .L0 
C:\Users\stapi\AppData\Local\Temp\cc2hhySa.s:272    .text.hostapd_neighbor_show:0000000000000046 .L0 
C:\Users\stapi\AppData\Local\Temp\cc2hhySa.s:274    .text.hostapd_neighbor_show:000000000000004e .L0 
C:\Users\stapi\AppData\Local\Temp\cc2hhySa.s:275    .text.hostapd_neighbor_show:000000000000004e .L0 
C:\Users\stapi\AppData\Local\Temp\cc2hhySa.s:277    .text.hostapd_neighbor_show:0000000000000056 .L0 
C:\Users\stapi\AppData\Local\Temp\cc2hhySa.s:278    .text.hostapd_neighbor_show:0000000000000056 .L0 
C:\Users\stapi\AppData\Local\Temp\cc2hhySa.s:279    .text.hostapd_neighbor_show:0000000000000056 .L0 
C:\Users\stapi\AppData\Local\Temp\cc2hhySa.s:280    .text.hostapd_neighbor_show:0000000000000056 .L0 
C:\Users\stapi\AppData\Local\Temp\cc2hhySa.s:281    .text.hostapd_neighbor_show:0000000000000056 .L0 
C:\Users\stapi\AppData\Local\Temp\cc2hhySa.s:282    .text.hostapd_neighbor_show:0000000000000056 .L0 
C:\Users\stapi\AppData\Local\Temp\cc2hhySa.s:283    .text.hostapd_neighbor_show:0000000000000056 .L0 
C:\Users\stapi\AppData\Local\Temp\cc2hhySa.s:284    .text.hostapd_neighbor_show:0000000000000056 .L0 
C:\Users\stapi\AppData\Local\Temp\cc2hhySa.s:285    .text.hostapd_neighbor_show:0000000000000056 .L0 
C:\Users\stapi\AppData\Local\Temp\cc2hhySa.s:286    .text.hostapd_neighbor_show:0000000000000056 .L0 
C:\Users\stapi\AppData\Local\Temp\cc2hhySa.s:287    .text.hostapd_neighbor_show:0000000000000056 .L0 
C:\Users\stapi\AppData\Local\Temp\cc2hhySa.s:288    .text.hostapd_neighbor_show:0000000000000056 .L0 
C:\Users\stapi\AppData\Local\Temp\cc2hhySa.s:289    .text.hostapd_neighbor_show:0000000000000056 .L0 
C:\Users\stapi\AppData\Local\Temp\cc2hhySa.s:290    .text.hostapd_neighbor_show:0000000000000056 .L0 
C:\Users\stapi\AppData\Local\Temp\cc2hhySa.s:292    .text.hostapd_neighbor_show:0000000000000056 .L0 
C:\Users\stapi\AppData\Local\Temp\cc2hhySa.s:295    .text.hostapd_neighbor_show:0000000000000056 .L0 
C:\Users\stapi\AppData\Local\Temp\cc2hhySa.s:296    .text.hostapd_neighbor_show:0000000000000056 .L0 
C:\Users\stapi\AppData\Local\Temp\cc2hhySa.s:297    .text.hostapd_neighbor_show:0000000000000056 .L0 
C:\Users\stapi\AppData\Local\Temp\cc2hhySa.s:298    .text.hostapd_neighbor_show:0000000000000056 .L0 
C:\Users\stapi\AppData\Local\Temp\cc2hhySa.s:299    .text.hostapd_neighbor_show:0000000000000056 .L0 
C:\Users\stapi\AppData\Local\Temp\cc2hhySa.s:300    .text.hostapd_neighbor_show:0000000000000056 .L0 
C:\Users\stapi\AppData\Local\Temp\cc2hhySa.s:301    .text.hostapd_neighbor_show:0000000000000056 .L0 
C:\Users\stapi\AppData\Local\Temp\cc2hhySa.s:307    .text.hostapd_neighbor_show:0000000000000066 .L0 
C:\Users\stapi\AppData\Local\Temp\cc2hhySa.s:309    .text.hostapd_neighbor_show:000000000000006a .L0 
C:\Users\stapi\AppData\Local\Temp\cc2hhySa.s:312    .text.hostapd_neighbor_show:0000000000000072 .L0 
C:\Users\stapi\AppData\Local\Temp\cc2hhySa.s:313    .text.hostapd_neighbor_show:0000000000000072 .L0 
C:\Users\stapi\AppData\Local\Temp\cc2hhySa.s:315    .text.hostapd_neighbor_show:0000000000000074 .L0 
C:\Users\stapi\AppData\Local\Temp\cc2hhySa.s:317    .text.hostapd_neighbor_show:0000000000000078 .L0 
C:\Users\stapi\AppData\Local\Temp\cc2hhySa.s:319    .text.hostapd_neighbor_show:000000000000007c .L0 
C:\Users\stapi\AppData\Local\Temp\cc2hhySa.s:324    .text.hostapd_neighbor_show:000000000000007e .L0 
C:\Users\stapi\AppData\Local\Temp\cc2hhySa.s:329    .text.hostapd_neighbor_show:000000000000007e .L0 
C:\Users\stapi\AppData\Local\Temp\cc2hhySa.s:332    .text.hostapd_neighbor_show:000000000000007e .L0 
C:\Users\stapi\AppData\Local\Temp\cc2hhySa.s:333    .text.hostapd_neighbor_show:000000000000007e .L0 
C:\Users\stapi\AppData\Local\Temp\cc2hhySa.s:341    .text.hostapd_neighbor_show:0000000000000090 .L0 
C:\Users\stapi\AppData\Local\Temp\cc2hhySa.s:342    .text.hostapd_neighbor_show:0000000000000090 .L0 
C:\Users\stapi\AppData\Local\Temp\cc2hhySa.s:344    .text.hostapd_neighbor_show:0000000000000092 .L0 
C:\Users\stapi\AppData\Local\Temp\cc2hhySa.s:346    .text.hostapd_neighbor_show:0000000000000096 .L0 
C:\Users\stapi\AppData\Local\Temp\cc2hhySa.s:348    .text.hostapd_neighbor_show:000000000000009a .L0 
C:\Users\stapi\AppData\Local\Temp\cc2hhySa.s:353    .text.hostapd_neighbor_show:000000000000009c .L0 
C:\Users\stapi\AppData\Local\Temp\cc2hhySa.s:358    .text.hostapd_neighbor_show:000000000000009c .L0 
C:\Users\stapi\AppData\Local\Temp\cc2hhySa.s:361    .text.hostapd_neighbor_show:000000000000009c .L0 
C:\Users\stapi\AppData\Local\Temp\cc2hhySa.s:362    .text.hostapd_neighbor_show:000000000000009c .L0 
C:\Users\stapi\AppData\Local\Temp\cc2hhySa.s:370    .text.hostapd_neighbor_show:00000000000000ae .L0 
C:\Users\stapi\AppData\Local\Temp\cc2hhySa.s:371    .text.hostapd_neighbor_show:00000000000000ae .L0 
C:\Users\stapi\AppData\Local\Temp\cc2hhySa.s:373    .text.hostapd_neighbor_show:00000000000000b0 .L0 
C:\Users\stapi\AppData\Local\Temp\cc2hhySa.s:375    .text.hostapd_neighbor_show:00000000000000b4 .L0 
C:\Users\stapi\AppData\Local\Temp\cc2hhySa.s:377    .text.hostapd_neighbor_show:00000000000000b8 .L0 
C:\Users\stapi\AppData\Local\Temp\cc2hhySa.s:382    .text.hostapd_neighbor_show:00000000000000ba .L0 
C:\Users\stapi\AppData\Local\Temp\cc2hhySa.s:387    .text.hostapd_neighbor_show:00000000000000ba .L0 
C:\Users\stapi\AppData\Local\Temp\cc2hhySa.s:390    .text.hostapd_neighbor_show:00000000000000ba .L0 
C:\Users\stapi\AppData\Local\Temp\cc2hhySa.s:391    .text.hostapd_neighbor_show:00000000000000ba .L0 
C:\Users\stapi\AppData\Local\Temp\cc2hhySa.s:400    .text.hostapd_neighbor_show:00000000000000d0 .L0 
C:\Users\stapi\AppData\Local\Temp\cc2hhySa.s:401    .text.hostapd_neighbor_show:00000000000000d0 .L0 
C:\Users\stapi\AppData\Local\Temp\cc2hhySa.s:409    .text.hostapd_neighbor_show:00000000000000ea .L0 
C:\Users\stapi\AppData\Local\Temp\cc2hhySa.s:411    .text.hostapd_neighbor_show:00000000000000ee .L0 
C:\Users\stapi\AppData\Local\Temp\cc2hhySa.s:416    .text.hostapd_neighbor_show:00000000000000f4 .L0 
C:\Users\stapi\AppData\Local\Temp\cc2hhySa.s:420    .text.hostapd_neighbor_show:00000000000000fa .L0 
C:\Users\stapi\AppData\Local\Temp\cc2hhySa.s:423    .text.hostapd_neighbor_show:00000000000000fc .L0 
C:\Users\stapi\AppData\Local\Temp\cc2hhySa.s:427    .text.hostapd_neighbor_show:0000000000000104 .L0 
C:\Users\stapi\AppData\Local\Temp\cc2hhySa.s:430    .text.hostapd_neighbor_show:0000000000000106 .L0 
C:\Users\stapi\AppData\Local\Temp\cc2hhySa.s:433    .text.hostapd_neighbor_show:000000000000010a .L0 
C:\Users\stapi\AppData\Local\Temp\cc2hhySa.s:436    .text.hostapd_neighbor_show:000000000000010c .L0 
C:\Users\stapi\AppData\Local\Temp\cc2hhySa.s:455    .text.hostapd_neighbor_show:0000000000000132 .L0 
C:\Users\stapi\AppData\Local\Temp\cc2hhySa.s:456    .text.hostapd_neighbor_show:0000000000000132 .L0 
C:\Users\stapi\AppData\Local\Temp\cc2hhySa.s:457    .text.hostapd_neighbor_show:0000000000000132 .L0 
C:\Users\stapi\AppData\Local\Temp\cc2hhySa.s:459    .text.hostapd_neighbor_show:0000000000000136 .L0 
C:\Users\stapi\AppData\Local\Temp\cc2hhySa.s:466    .text.hostapd_neighbor_show:000000000000013c .L0 
C:\Users\stapi\AppData\Local\Temp\cc2hhySa.s:467    .text.hostapd_neighbor_show:000000000000013c .L0 
C:\Users\stapi\AppData\Local\Temp\cc2hhySa.s:471    .text.hostapd_neighbor_show:000000000000013e .L0 
C:\Users\stapi\AppData\Local\Temp\cc2hhySa.s:475    .text.hostapd_neighbor_show:0000000000000140 .L0 
C:\Users\stapi\AppData\Local\Temp\cc2hhySa.s:480    .text.hostapd_neighbor_show:0000000000000142 .L0 
C:\Users\stapi\AppData\Local\Temp\cc2hhySa.s:484    .text.hostapd_neighbor_show:000000000000014c .L0 
C:\Users\stapi\AppData\Local\Temp\cc2hhySa.s:491    .text.hostapd_neighbor_remove:0000000000000000 hostapd_neighbor_remove
C:\Users\stapi\AppData\Local\Temp\cc2hhySa.s:494    .text.hostapd_neighbor_remove:0000000000000000 .L0 
C:\Users\stapi\AppData\Local\Temp\cc2hhySa.s:496    .text.hostapd_neighbor_remove:0000000000000000 .L0 
C:\Users\stapi\AppData\Local\Temp\cc2hhySa.s:497    .text.hostapd_neighbor_remove:0000000000000008 .L0 
C:\Users\stapi\AppData\Local\Temp\cc2hhySa.s:498    .text.hostapd_neighbor_remove:0000000000000008 .L0 
C:\Users\stapi\AppData\Local\Temp\cc2hhySa.s:499    .text.hostapd_neighbor_remove:0000000000000008 .L0 
C:\Users\stapi\AppData\Local\Temp\cc2hhySa.s:501    .text.hostapd_neighbor_remove:0000000000000008 .L0 
C:\Users\stapi\AppData\Local\Temp\cc2hhySa.s:502    .text.hostapd_neighbor_remove:0000000000000008 .L0 
C:\Users\stapi\AppData\Local\Temp\cc2hhySa.s:503    .text.hostapd_neighbor_remove:0000000000000008 .L0 
C:\Users\stapi\AppData\Local\Temp\cc2hhySa.s:506    .text.hostapd_neighbor_remove:0000000000000010 .L0 
C:\Users\stapi\AppData\Local\Temp\cc2hhySa.s:507    .text.hostapd_neighbor_remove:0000000000000010 .L0 
C:\Users\stapi\AppData\Local\Temp\cc2hhySa.s:510    .text.hostapd_neighbor_remove:0000000000000014 .L0 
C:\Users\stapi\AppData\Local\Temp\cc2hhySa.s:516    .text.hostapd_neighbor_remove:000000000000001c .L0 
C:\Users\stapi\AppData\Local\Temp\cc2hhySa.s:517    .text.hostapd_neighbor_remove:000000000000001c .L0 
C:\Users\stapi\AppData\Local\Temp\cc2hhySa.s:518    .text.hostapd_neighbor_remove:000000000000001c .L0 
C:\Users\stapi\AppData\Local\Temp\cc2hhySa.s:520    .text.hostapd_neighbor_remove:000000000000001e .L0 
C:\Users\stapi\AppData\Local\Temp\cc2hhySa.s:524    .text.hostapd_neighbor_remove:0000000000000020 .L0 
C:\Users\stapi\AppData\Local\Temp\cc2hhySa.s:528    .text.hostapd_neighbor_remove:0000000000000022 .L0 
C:\Users\stapi\AppData\Local\Temp\cc2hhySa.s:530    .text.hostapd_neighbor_remove:0000000000000024 .L0 
C:\Users\stapi\AppData\Local\Temp\cc2hhySa.s:531    .text.hostapd_neighbor_remove:0000000000000024 .L0 
C:\Users\stapi\AppData\Local\Temp\cc2hhySa.s:533    .text.hostapd_neighbor_remove:0000000000000026 .L0 
C:\Users\stapi\AppData\Local\Temp\cc2hhySa.s:534    .text.hostapd_neighbor_remove:0000000000000026 .L0 
C:\Users\stapi\AppData\Local\Temp\cc2hhySa.s:536    .text.hostapd_neighbor_remove:000000000000002a .L0 
C:\Users\stapi\AppData\Local\Temp\cc2hhySa.s:537    .text.hostapd_neighbor_remove:000000000000002a .L0 
C:\Users\stapi\AppData\Local\Temp\cc2hhySa.s:542    .text.hostapd_neighbor_remove:000000000000002e .L0 
C:\Users\stapi\AppData\Local\Temp\cc2hhySa.s:545    .text.hostapd_neighbor_remove:0000000000000036 .L0 
C:\Users\stapi\AppData\Local\Temp\cc2hhySa.s:546    .text.hostapd_neighbor_remove:0000000000000036 .L0 
C:\Users\stapi\AppData\Local\Temp\cc2hhySa.s:550    .text.hostapd_neighbor_remove:0000000000000038 .L0 
C:\Users\stapi\AppData\Local\Temp\cc2hhySa.s:551    .text.hostapd_neighbor_remove:0000000000000040 .L0 
C:\Users\stapi\AppData\Local\Temp\cc2hhySa.s:552    .text.hostapd_neighbor_remove:0000000000000040 .L0 
C:\Users\stapi\AppData\Local\Temp\cc2hhySa.s:553    .text.hostapd_neighbor_remove:0000000000000040 .L0 
C:\Users\stapi\AppData\Local\Temp\cc2hhySa.s:554    .text.hostapd_neighbor_remove:0000000000000040 .L0 
C:\Users\stapi\AppData\Local\Temp\cc2hhySa.s:557    .text.hostapd_neighbor_remove:0000000000000040 .L0 
C:\Users\stapi\AppData\Local\Temp\cc2hhySa.s:559    .text.hostapd_neighbor_remove:0000000000000040 .L0 
C:\Users\stapi\AppData\Local\Temp\cc2hhySa.s:562    .text.hostapd_neighbor_remove:0000000000000044 .L0 
C:\Users\stapi\AppData\Local\Temp\cc2hhySa.s:569    .text.hostapd_neighbor_set:0000000000000000 hostapd_neighbor_set
C:\Users\stapi\AppData\Local\Temp\cc2hhySa.s:572    .text.hostapd_neighbor_set:0000000000000000 .L0 
C:\Users\stapi\AppData\Local\Temp\cc2hhySa.s:574    .text.hostapd_neighbor_set:0000000000000000 .L0 
C:\Users\stapi\AppData\Local\Temp\cc2hhySa.s:575    .text.hostapd_neighbor_set:0000000000000008 .L0 
C:\Users\stapi\AppData\Local\Temp\cc2hhySa.s:576    .text.hostapd_neighbor_set:0000000000000008 .L0 
C:\Users\stapi\AppData\Local\Temp\cc2hhySa.s:577    .text.hostapd_neighbor_set:0000000000000008 .L0 
C:\Users\stapi\AppData\Local\Temp\cc2hhySa.s:578    .text.hostapd_neighbor_set:0000000000000008 .L0 
C:\Users\stapi\AppData\Local\Temp\cc2hhySa.s:579    .text.hostapd_neighbor_set:0000000000000008 .L0 
C:\Users\stapi\AppData\Local\Temp\cc2hhySa.s:580    .text.hostapd_neighbor_set:0000000000000008 .L0 
C:\Users\stapi\AppData\Local\Temp\cc2hhySa.s:581    .text.hostapd_neighbor_set:0000000000000008 .L0 
C:\Users\stapi\AppData\Local\Temp\cc2hhySa.s:582    .text.hostapd_neighbor_set:0000000000000008 .L0 
C:\Users\stapi\AppData\Local\Temp\cc2hhySa.s:583    .text.hostapd_neighbor_set:0000000000000008 .L0 
C:\Users\stapi\AppData\Local\Temp\cc2hhySa.s:584    .text.hostapd_neighbor_set:0000000000000008 .L0 
C:\Users\stapi\AppData\Local\Temp\cc2hhySa.s:585    .text.hostapd_neighbor_set:0000000000000008 .L0 
C:\Users\stapi\AppData\Local\Temp\cc2hhySa.s:587    .text.hostapd_neighbor_set:0000000000000008 .L0 
C:\Users\stapi\AppData\Local\Temp\cc2hhySa.s:588    .text.hostapd_neighbor_set:0000000000000008 .L0 
C:\Users\stapi\AppData\Local\Temp\cc2hhySa.s:589    .text.hostapd_neighbor_set:0000000000000008 .L0 
C:\Users\stapi\AppData\Local\Temp\cc2hhySa.s:598    .text.hostapd_neighbor_set:0000000000000018 .L0 
C:\Users\stapi\AppData\Local\Temp\cc2hhySa.s:601    .text.hostapd_neighbor_set:0000000000000020 .L0 
C:\Users\stapi\AppData\Local\Temp\cc2hhySa.s:603    .text.hostapd_neighbor_set:0000000000000022 .L0 
C:\Users\stapi\AppData\Local\Temp\cc2hhySa.s:608    .text.hostapd_neighbor_set:0000000000000024 .L0 
C:\Users\stapi\AppData\Local\Temp\cc2hhySa.s:609    .text.hostapd_neighbor_set:0000000000000024 .L0 
C:\Users\stapi\AppData\Local\Temp\cc2hhySa.s:610    .text.hostapd_neighbor_set:0000000000000024 .L0 
C:\Users\stapi\AppData\Local\Temp\cc2hhySa.s:611    .text.hostapd_neighbor_set:0000000000000024 .L0 
C:\Users\stapi\AppData\Local\Temp\cc2hhySa.s:620    .text.hostapd_neighbor_set:0000000000000032 .L0 
C:\Users\stapi\AppData\Local\Temp\cc2hhySa.s:621    .text.hostapd_neighbor_set:0000000000000032 .L0 
C:\Users\stapi\AppData\Local\Temp\cc2hhySa.s:625    .text.hostapd_neighbor_set:0000000000000034 .L0 
C:\Users\stapi\AppData\Local\Temp\cc2hhySa.s:630    .text.hostapd_neighbor_set:0000000000000036 .L0 
C:\Users\stapi\AppData\Local\Temp\cc2hhySa.s:631    .text.hostapd_neighbor_set:0000000000000036 .L0 
C:\Users\stapi\AppData\Local\Temp\cc2hhySa.s:632    .text.hostapd_neighbor_set:0000000000000036 .L0 
C:\Users\stapi\AppData\Local\Temp\cc2hhySa.s:638    .text.hostapd_neighbor_set:0000000000000040 .L0 
C:\Users\stapi\AppData\Local\Temp\cc2hhySa.s:643    .text.hostapd_neighbor_set:0000000000000046 .L0 
C:\Users\stapi\AppData\Local\Temp\cc2hhySa.s:645    .text.hostapd_neighbor_set:0000000000000048 .L0 
C:\Users\stapi\AppData\Local\Temp\cc2hhySa.s:646    .text.hostapd_neighbor_set:0000000000000048 .L0 
C:\Users\stapi\AppData\Local\Temp\cc2hhySa.s:648    .text.hostapd_neighbor_set:000000000000004a .L0 
C:\Users\stapi\AppData\Local\Temp\cc2hhySa.s:649    .text.hostapd_neighbor_set:000000000000004a .L0 
C:\Users\stapi\AppData\Local\Temp\cc2hhySa.s:651    .text.hostapd_neighbor_set:000000000000004c .L0 
C:\Users\stapi\AppData\Local\Temp\cc2hhySa.s:652    .text.hostapd_neighbor_set:000000000000004c .L0 
C:\Users\stapi\AppData\Local\Temp\cc2hhySa.s:660    .text.hostapd_neighbor_set:0000000000000050 .L0 
C:\Users\stapi\AppData\Local\Temp\cc2hhySa.s:661    .text.hostapd_neighbor_set:0000000000000050 .L0 
C:\Users\stapi\AppData\Local\Temp\cc2hhySa.s:662    .text.hostapd_neighbor_set:0000000000000050 .L0 
C:\Users\stapi\AppData\Local\Temp\cc2hhySa.s:666    .text.hostapd_neighbor_set:000000000000005a .L0 
C:\Users\stapi\AppData\Local\Temp\cc2hhySa.s:672    .text.hostapd_neighbor_set:000000000000006a .L0 
C:\Users\stapi\AppData\Local\Temp\cc2hhySa.s:678    .text.hostapd_neighbor_set:000000000000007c .L0 
C:\Users\stapi\AppData\Local\Temp\cc2hhySa.s:679    .text.hostapd_neighbor_set:000000000000007c .L0 
C:\Users\stapi\AppData\Local\Temp\cc2hhySa.s:684    .text.hostapd_neighbor_set:0000000000000088 .L0 
C:\Users\stapi\AppData\Local\Temp\cc2hhySa.s:686    .text.hostapd_neighbor_set:000000000000008a .L0 
C:\Users\stapi\AppData\Local\Temp\cc2hhySa.s:687    .text.hostapd_neighbor_set:000000000000008a .L0 
C:\Users\stapi\AppData\Local\Temp\cc2hhySa.s:691    .text.hostapd_neighbor_set:0000000000000094 .L0 
C:\Users\stapi\AppData\Local\Temp\cc2hhySa.s:693    .text.hostapd_neighbor_set:0000000000000096 .L0 
C:\Users\stapi\AppData\Local\Temp\cc2hhySa.s:694    .text.hostapd_neighbor_set:0000000000000096 .L0 
C:\Users\stapi\AppData\Local\Temp\cc2hhySa.s:696    .text.hostapd_neighbor_set:0000000000000098 .L0 
C:\Users\stapi\AppData\Local\Temp\cc2hhySa.s:697    .text.hostapd_neighbor_set:0000000000000098 .L0 
C:\Users\stapi\AppData\Local\Temp\cc2hhySa.s:700    .text.hostapd_neighbor_set:000000000000009c .L0 
C:\Users\stapi\AppData\Local\Temp\cc2hhySa.s:701    .text.hostapd_neighbor_set:000000000000009c .L0 
C:\Users\stapi\AppData\Local\Temp\cc2hhySa.s:704    .text.hostapd_neighbor_set:00000000000000a0 .L0 
C:\Users\stapi\AppData\Local\Temp\cc2hhySa.s:705    .text.hostapd_neighbor_set:00000000000000a0 .L0 
C:\Users\stapi\AppData\Local\Temp\cc2hhySa.s:707    .text.hostapd_neighbor_set:00000000000000a4 .L0 
C:\Users\stapi\AppData\Local\Temp\cc2hhySa.s:708    .text.hostapd_neighbor_set:00000000000000a4 .L0 
C:\Users\stapi\AppData\Local\Temp\cc2hhySa.s:710    .text.hostapd_neighbor_set:00000000000000a8 .L0 
C:\Users\stapi\AppData\Local\Temp\cc2hhySa.s:711    .text.hostapd_neighbor_set:00000000000000a8 .L0 
C:\Users\stapi\AppData\Local\Temp\cc2hhySa.s:715    .text.hostapd_neighbor_set:00000000000000aa .L0 
C:\Users\stapi\AppData\Local\Temp\cc2hhySa.s:716    .text.hostapd_neighbor_set:00000000000000b2 .L0 
C:\Users\stapi\AppData\Local\Temp\cc2hhySa.s:717    .text.hostapd_neighbor_set:00000000000000b2 .L0 
C:\Users\stapi\AppData\Local\Temp\cc2hhySa.s:718    .text.hostapd_neighbor_set:00000000000000b2 .L0 
C:\Users\stapi\AppData\Local\Temp\cc2hhySa.s:719    .text.hostapd_neighbor_set:00000000000000b2 .L0 
C:\Users\stapi\AppData\Local\Temp\cc2hhySa.s:720    .text.hostapd_neighbor_set:00000000000000b2 .L0 
C:\Users\stapi\AppData\Local\Temp\cc2hhySa.s:721    .text.hostapd_neighbor_set:00000000000000b2 .L0 
C:\Users\stapi\AppData\Local\Temp\cc2hhySa.s:722    .text.hostapd_neighbor_set:00000000000000b2 .L0 
C:\Users\stapi\AppData\Local\Temp\cc2hhySa.s:723    .text.hostapd_neighbor_set:00000000000000b2 .L0 
C:\Users\stapi\AppData\Local\Temp\cc2hhySa.s:724    .text.hostapd_neighbor_set:00000000000000b2 .L0 
C:\Users\stapi\AppData\Local\Temp\cc2hhySa.s:725    .text.hostapd_neighbor_set:00000000000000b2 .L0 
C:\Users\stapi\AppData\Local\Temp\cc2hhySa.s:726    .text.hostapd_neighbor_set:00000000000000b2 .L0 
C:\Users\stapi\AppData\Local\Temp\cc2hhySa.s:727    .text.hostapd_neighbor_set:00000000000000b2 .L0 
C:\Users\stapi\AppData\Local\Temp\cc2hhySa.s:730    .text.hostapd_neighbor_set:00000000000000b2 .L0 
C:\Users\stapi\AppData\Local\Temp\cc2hhySa.s:736    .text.hostapd_neighbor_set:00000000000000b2 .L0 
C:\Users\stapi\AppData\Local\Temp\cc2hhySa.s:737    .text.hostapd_neighbor_set:00000000000000b2 .L0 
C:\Users\stapi\AppData\Local\Temp\cc2hhySa.s:740    .text.hostapd_neighbor_set:00000000000000b8 .L0 
C:\Users\stapi\AppData\Local\Temp\cc2hhySa.s:741    .text.hostapd_neighbor_set:00000000000000b8 .L0 
C:\Users\stapi\AppData\Local\Temp\cc2hhySa.s:745    .text.hostapd_neighbor_set:00000000000000c2 .L0 
C:\Users\stapi\AppData\Local\Temp\cc2hhySa.s:747    .text.hostapd_neighbor_set:00000000000000c4 .L0 
C:\Users\stapi\AppData\Local\Temp\cc2hhySa.s:748    .text.hostapd_neighbor_set:00000000000000c4 .L0 
C:\Users\stapi\AppData\Local\Temp\cc2hhySa.s:750    .text.hostapd_neighbor_set:00000000000000c6 .L0 
C:\Users\stapi\AppData\Local\Temp\cc2hhySa.s:754    .text.hostapd_neighbor_set:00000000000000d2 .L0 
C:\Users\stapi\AppData\Local\Temp\cc2hhySa.s:758    .text.hostapd_neighbor_set:00000000000000d4 .L0 
C:\Users\stapi\AppData\Local\Temp\cc2hhySa.s:764    .text.hostapd_neighbor_set:00000000000000e2 .L0 
C:\Users\stapi\AppData\Local\Temp\cc2hhySa.s:765    .text.hostapd_neighbor_set:00000000000000e2 .L0 
C:\Users\stapi\AppData\Local\Temp\cc2hhySa.s:774    .text.hostapd_neighbor_set:00000000000000e6 .L0 
C:\Users\stapi\AppData\Local\Temp\cc2hhySa.s:775    .text.hostapd_neighbor_set:00000000000000e6 .L0 
C:\Users\stapi\AppData\Local\Temp\cc2hhySa.s:778    .text.hostapd_neighbor_set:00000000000000ec .L0 
C:\Users\stapi\AppData\Local\Temp\cc2hhySa.s:779    .text.hostapd_neighbor_set:00000000000000ec .L0 
C:\Users\stapi\AppData\Local\Temp\cc2hhySa.s:783    .text.hostapd_neighbor_set:00000000000000f6 .L0 
C:\Users\stapi\AppData\Local\Temp\cc2hhySa.s:785    .text.hostapd_neighbor_set:00000000000000f8 .L0 
C:\Users\stapi\AppData\Local\Temp\cc2hhySa.s:786    .text.hostapd_neighbor_set:00000000000000f8 .L0 
C:\Users\stapi\AppData\Local\Temp\cc2hhySa.s:788    .text.hostapd_neighbor_set:00000000000000fc .L0 
C:\Users\stapi\AppData\Local\Temp\cc2hhySa.s:795    .text.hostapd_free_neighbor_db:0000000000000000 hostapd_free_neighbor_db
C:\Users\stapi\AppData\Local\Temp\cc2hhySa.s:798    .text.hostapd_free_neighbor_db:0000000000000000 .L0 
C:\Users\stapi\AppData\Local\Temp\cc2hhySa.s:800    .text.hostapd_free_neighbor_db:0000000000000000 .L0 
C:\Users\stapi\AppData\Local\Temp\cc2hhySa.s:801    .text.hostapd_free_neighbor_db:0000000000000008 .L0 
C:\Users\stapi\AppData\Local\Temp\cc2hhySa.s:802    .text.hostapd_free_neighbor_db:0000000000000008 .L0 
C:\Users\stapi\AppData\Local\Temp\cc2hhySa.s:803    .text.hostapd_free_neighbor_db:0000000000000008 .L0 
C:\Users\stapi\AppData\Local\Temp\cc2hhySa.s:804    .text.hostapd_free_neighbor_db:0000000000000008 .L0 
C:\Users\stapi\AppData\Local\Temp\cc2hhySa.s:806    .text.hostapd_free_neighbor_db:0000000000000008 .L0 
C:\Users\stapi\AppData\Local\Temp\cc2hhySa.s:807    .text.hostapd_free_neighbor_db:0000000000000008 .L0 
C:\Users\stapi\AppData\Local\Temp\cc2hhySa.s:810    .text.hostapd_free_neighbor_db:000000000000000e .L0 
C:\Users\stapi\AppData\Local\Temp\cc2hhySa.s:812    .text.hostapd_free_neighbor_db:0000000000000010 .L0 
C:\Users\stapi\AppData\Local\Temp\cc2hhySa.s:816    .text.hostapd_free_neighbor_db:0000000000000018 .L0 
C:\Users\stapi\AppData\Local\Temp\cc2hhySa.s:817    .text.hostapd_free_neighbor_db:000000000000001a .L0 
C:\Users\stapi\AppData\Local\Temp\cc2hhySa.s:819    .text.hostapd_free_neighbor_db:000000000000001a .L0 
C:\Users\stapi\AppData\Local\Temp\cc2hhySa.s:825    .text.hostapd_free_neighbor_db:000000000000001e .L0 
C:\Users\stapi\AppData\Local\Temp\cc2hhySa.s:827    .text.hostapd_free_neighbor_db:0000000000000022 .L0 
C:\Users\stapi\AppData\Local\Temp\cc2hhySa.s:828    .text.hostapd_free_neighbor_db:0000000000000024 .L0 
C:\Users\stapi\AppData\Local\Temp\cc2hhySa.s:829    .text.hostapd_free_neighbor_db:0000000000000024 .L0 
C:\Users\stapi\AppData\Local\Temp\cc2hhySa.s:831    .text.hostapd_free_neighbor_db:000000000000002c .L0 
C:\Users\stapi\AppData\Local\Temp\cc2hhySa.s:832    .text.hostapd_free_neighbor_db:000000000000002c .L0 
C:\Users\stapi\AppData\Local\Temp\cc2hhySa.s:833    .text.hostapd_free_neighbor_db:000000000000002c .L0 
C:\Users\stapi\AppData\Local\Temp\cc2hhySa.s:834    .text.hostapd_free_neighbor_db:000000000000002c .L0 
C:\Users\stapi\AppData\Local\Temp\cc2hhySa.s:836    .text.hostapd_free_neighbor_db:000000000000002c .L0 
C:\Users\stapi\AppData\Local\Temp\cc2hhySa.s:838    .text.hostapd_free_neighbor_db:000000000000002c .L0 
C:\Users\stapi\AppData\Local\Temp\cc2hhySa.s:844    .text.hostapd_free_neighbor_db:0000000000000036 .L0 
C:\Users\stapi\AppData\Local\Temp\cc2hhySa.s:845    .text.hostapd_free_neighbor_db:0000000000000036 .L0 
C:\Users\stapi\AppData\Local\Temp\cc2hhySa.s:846    .text.hostapd_free_neighbor_db:0000000000000036 .L0 
C:\Users\stapi\AppData\Local\Temp\cc2hhySa.s:849    .text.hostapd_free_neighbor_db:000000000000003a .L0 
C:\Users\stapi\AppData\Local\Temp\cc2hhySa.s:851    .text.hostapd_free_neighbor_db:000000000000003c .L0 
C:\Users\stapi\AppData\Local\Temp\cc2hhySa.s:853    .text.hostapd_free_neighbor_db:000000000000003e .L0 
C:\Users\stapi\AppData\Local\Temp\cc2hhySa.s:854    .text.hostapd_free_neighbor_db:000000000000003e .L0 
C:\Users\stapi\AppData\Local\Temp\cc2hhySa.s:856    .text.hostapd_free_neighbor_db:0000000000000040 .L0 
C:\Users\stapi\AppData\Local\Temp\cc2hhySa.s:857    .text.hostapd_free_neighbor_db:0000000000000040 .L0 
C:\Users\stapi\AppData\Local\Temp\cc2hhySa.s:859    .text.hostapd_free_neighbor_db:0000000000000044 .L0 
C:\Users\stapi\AppData\Local\Temp\cc2hhySa.s:860    .text.hostapd_free_neighbor_db:0000000000000044 .L0 
C:\Users\stapi\AppData\Local\Temp\cc2hhySa.s:865    .text.hostapd_free_neighbor_db:0000000000000048 .L0 
C:\Users\stapi\AppData\Local\Temp\cc2hhySa.s:868    .text.hostapd_free_neighbor_db:0000000000000050 .L0 
C:\Users\stapi\AppData\Local\Temp\cc2hhySa.s:872    .text.hostapd_free_neighbor_db:0000000000000056 .L0 
C:\Users\stapi\AppData\Local\Temp\cc2hhySa.s:879    .text.hostapd_neighbor_set_own_report:0000000000000000 hostapd_neighbor_set_own_report
C:\Users\stapi\AppData\Local\Temp\cc2hhySa.s:882    .text.hostapd_neighbor_set_own_report:0000000000000000 .L0 
C:\Users\stapi\AppData\Local\Temp\cc2hhySa.s:884    .text.hostapd_neighbor_set_own_report:0000000000000000 .L0 
C:\Users\stapi\AppData\Local\Temp\cc2hhySa.s:885    .text.hostapd_neighbor_set_own_report:0000000000000008 .L0 
C:\Users\stapi\AppData\Local\Temp\cc2hhySa.s:886    .text.hostapd_neighbor_set_own_report:0000000000000008 .L0 
C:\Users\stapi\AppData\Local\Temp\cc2hhySa.s:887    .text.hostapd_neighbor_set_own_report:0000000000000008 .L0 
C:\Users\stapi\AppData\Local\Temp\cc2hhySa.s:888    .text.hostapd_neighbor_set_own_report:0000000000000008 .L0 
C:\Users\stapi\AppData\Local\Temp\cc2hhySa.s:889    .text.hostapd_neighbor_set_own_report:0000000000000008 .L0 
C:\Users\stapi\AppData\Local\Temp\cc2hhySa.s:890    .text.hostapd_neighbor_set_own_report:0000000000000008 .L0 
C:\Users\stapi\AppData\Local\Temp\cc2hhySa.s:891    .text.hostapd_neighbor_set_own_report:0000000000000008 .L0 
C:\Users\stapi\AppData\Local\Temp\cc2hhySa.s:892    .text.hostapd_neighbor_set_own_report:0000000000000008 .L0 
C:\Users\stapi\AppData\Local\Temp\cc2hhySa.s:893    .text.hostapd_neighbor_set_own_report:0000000000000008 .L0 
C:\Users\stapi\AppData\Local\Temp\cc2hhySa.s:894    .text.hostapd_neighbor_set_own_report:0000000000000008 .L0 
C:\Users\stapi\AppData\Local\Temp\cc2hhySa.s:896    .text.hostapd_neighbor_set_own_report:0000000000000008 .L0 
C:\Users\stapi\AppData\Local\Temp\cc2hhySa.s:897    .text.hostapd_neighbor_set_own_report:0000000000000008 .L0 
C:\Users\stapi\AppData\Local\Temp\cc2hhySa.s:898    .text.hostapd_neighbor_set_own_report:000000000000000a .L0 
C:\Users\stapi\AppData\Local\Temp\cc2hhySa.s:900    .text.hostapd_neighbor_set_own_report:000000000000000a .L0 
C:\Users\stapi\AppData\Local\Temp\cc2hhySa.s:902    .text.hostapd_neighbor_set_own_report:000000000000000c .L0 
C:\Users\stapi\AppData\Local\Temp\cc2hhySa.s:905    .text.hostapd_neighbor_set_own_report:0000000000000014 .L0 
C:\Users\stapi\AppData\Local\Temp\cc2hhySa.s:906    .text.hostapd_neighbor_set_own_report:0000000000000014 .L0 
C:\Users\stapi\AppData\Local\Temp\cc2hhySa.s:909    .text.hostapd_neighbor_set_own_report:000000000000001c .L0 
C:\Users\stapi\AppData\Local\Temp\cc2hhySa.s:911    .text.hostapd_neighbor_set_own_report:0000000000000020 .L0 
C:\Users\stapi\AppData\Local\Temp\cc2hhySa.s:913    .text.hostapd_neighbor_set_own_report:0000000000000024 .L0 
C:\Users\stapi\AppData\Local\Temp\cc2hhySa.s:918    .text.hostapd_neighbor_set_own_report:000000000000002c .L0 
C:\Users\stapi\AppData\Local\Temp\cc2hhySa.s:919    .text.hostapd_neighbor_set_own_report:000000000000002c .L0 
C:\Users\stapi\AppData\Local\Temp\cc2hhySa.s:921    .text.hostapd_neighbor_set_own_report:0000000000000030 .L0 
C:\Users\stapi\AppData\Local\Temp\cc2hhySa.s:923    .text.hostapd_neighbor_set_own_report:0000000000000034 .L0 
C:\Users\stapi\AppData\Local\Temp\cc2hhySa.s:928    .text.hostapd_neighbor_set_own_report:000000000000003c .L0 
C:\Users\stapi\AppData\Local\Temp\cc2hhySa.s:929    .text.hostapd_neighbor_set_own_report:000000000000003c .L0 
C:\Users\stapi\AppData\Local\Temp\cc2hhySa.s:931    .text.hostapd_neighbor_set_own_report:0000000000000040 .L0 
C:\Users\stapi\AppData\Local\Temp\cc2hhySa.s:934    .text.hostapd_neighbor_set_own_report:0000000000000044 .L0 
C:\Users\stapi\AppData\Local\Temp\cc2hhySa.s:939    .text.hostapd_neighbor_set_own_report:000000000000004c .L0 
C:\Users\stapi\AppData\Local\Temp\cc2hhySa.s:940    .text.hostapd_neighbor_set_own_report:000000000000004c .L0 
C:\Users\stapi\AppData\Local\Temp\cc2hhySa.s:941    .text.hostapd_neighbor_set_own_report:000000000000004c .L0 
C:\Users\stapi\AppData\Local\Temp\cc2hhySa.s:942    .text.hostapd_neighbor_set_own_report:000000000000004c .L0 
C:\Users\stapi\AppData\Local\Temp\cc2hhySa.s:944    .text.hostapd_neighbor_set_own_report:0000000000000050 .L0 
C:\Users\stapi\AppData\Local\Temp\cc2hhySa.s:947    .text.hostapd_neighbor_set_own_report:0000000000000054 .L0 
C:\Users\stapi\AppData\Local\Temp\cc2hhySa.s:948    .text.hostapd_neighbor_set_own_report:0000000000000054 .L0 
C:\Users\stapi\AppData\Local\Temp\cc2hhySa.s:949    .text.hostapd_neighbor_set_own_report:0000000000000054 .L0 
C:\Users\stapi\AppData\Local\Temp\cc2hhySa.s:950    .text.hostapd_neighbor_set_own_report:0000000000000054 .L0 
C:\Users\stapi\AppData\Local\Temp\cc2hhySa.s:951    .text.hostapd_neighbor_set_own_report:0000000000000054 .L0 
C:\Users\stapi\AppData\Local\Temp\cc2hhySa.s:955    .text.hostapd_neighbor_set_own_report:000000000000005a .L0 
C:\Users\stapi\AppData\Local\Temp\cc2hhySa.s:956    .text.hostapd_neighbor_set_own_report:000000000000005a .L0 
C:\Users\stapi\AppData\Local\Temp\cc2hhySa.s:957    .text.hostapd_neighbor_set_own_report:000000000000005a .L0 
C:\Users\stapi\AppData\Local\Temp\cc2hhySa.s:958    .text.hostapd_neighbor_set_own_report:000000000000005a .L0 
C:\Users\stapi\AppData\Local\Temp\cc2hhySa.s:959    .text.hostapd_neighbor_set_own_report:000000000000005a .L0 
C:\Users\stapi\AppData\Local\Temp\cc2hhySa.s:962    .text.hostapd_neighbor_set_own_report:000000000000005e .L0 
C:\Users\stapi\AppData\Local\Temp\cc2hhySa.s:964    .text.hostapd_neighbor_set_own_report:0000000000000060 .L0 
C:\Users\stapi\AppData\Local\Temp\cc2hhySa.s:966    .text.hostapd_neighbor_set_own_report:0000000000000062 .L0 
C:\Users\stapi\AppData\Local\Temp\cc2hhySa.s:970    .text.hostapd_neighbor_set_own_report:0000000000000064 .L0 
C:\Users\stapi\AppData\Local\Temp\cc2hhySa.s:971    .text.hostapd_neighbor_set_own_report:0000000000000064 .L0 
C:\Users\stapi\AppData\Local\Temp\cc2hhySa.s:972    .text.hostapd_neighbor_set_own_report:0000000000000064 .L0 
C:\Users\stapi\AppData\Local\Temp\cc2hhySa.s:974    .text.hostapd_neighbor_set_own_report:0000000000000068 .L0 
C:\Users\stapi\AppData\Local\Temp\cc2hhySa.s:976    .text.hostapd_neighbor_set_own_report:000000000000006c .L0 
C:\Users\stapi\AppData\Local\Temp\cc2hhySa.s:979    .text.hostapd_neighbor_set_own_report:0000000000000070 .L0 
C:\Users\stapi\AppData\Local\Temp\cc2hhySa.s:981    .text.hostapd_neighbor_set_own_report:0000000000000072 .L0 
C:\Users\stapi\AppData\Local\Temp\cc2hhySa.s:982    .text.hostapd_neighbor_set_own_report:0000000000000072 .L0 
C:\Users\stapi\AppData\Local\Temp\cc2hhySa.s:984    .text.hostapd_neighbor_set_own_report:0000000000000076 .L0 
C:\Users\stapi\AppData\Local\Temp\cc2hhySa.s:987    .text.hostapd_neighbor_set_own_report:000000000000007a .L0 
C:\Users\stapi\AppData\Local\Temp\cc2hhySa.s:988    .text.hostapd_neighbor_set_own_report:000000000000007a .L0 
C:\Users\stapi\AppData\Local\Temp\cc2hhySa.s:990    .text.hostapd_neighbor_set_own_report:000000000000007c .L0 
C:\Users\stapi\AppData\Local\Temp\cc2hhySa.s:994    .text.hostapd_neighbor_set_own_report:0000000000000086 .L0 
C:\Users\stapi\AppData\Local\Temp\cc2hhySa.s:996    .text.hostapd_neighbor_set_own_report:0000000000000088 .L0 
C:\Users\stapi\AppData\Local\Temp\cc2hhySa.s:997    .text.hostapd_neighbor_set_own_report:0000000000000088 .L0 
C:\Users\stapi\AppData\Local\Temp\cc2hhySa.s:1001   .text.hostapd_neighbor_set_own_report:000000000000008c .L0 
C:\Users\stapi\AppData\Local\Temp\cc2hhySa.s:1002   .text.hostapd_neighbor_set_own_report:000000000000008c .L0 
C:\Users\stapi\AppData\Local\Temp\cc2hhySa.s:1005   .text.hostapd_neighbor_set_own_report:0000000000000090 .L0 
C:\Users\stapi\AppData\Local\Temp\cc2hhySa.s:1006   .text.hostapd_neighbor_set_own_report:0000000000000090 .L0 
C:\Users\stapi\AppData\Local\Temp\cc2hhySa.s:1007   .text.hostapd_neighbor_set_own_report:0000000000000090 .L0 
C:\Users\stapi\AppData\Local\Temp\cc2hhySa.s:1009   .text.hostapd_neighbor_set_own_report:0000000000000092 .L0 
C:\Users\stapi\AppData\Local\Temp\cc2hhySa.s:1011   .text.hostapd_neighbor_set_own_report:0000000000000096 .L0 
C:\Users\stapi\AppData\Local\Temp\cc2hhySa.s:1012   .text.hostapd_neighbor_set_own_report:0000000000000096 .L0 
C:\Users\stapi\AppData\Local\Temp\cc2hhySa.s:1018   .text.hostapd_neighbor_set_own_report:00000000000000a0 .L0 
C:\Users\stapi\AppData\Local\Temp\cc2hhySa.s:1019   .text.hostapd_neighbor_set_own_report:00000000000000a0 .L0 
C:\Users\stapi\AppData\Local\Temp\cc2hhySa.s:1021   .text.hostapd_neighbor_set_own_report:00000000000000a2 .L0 
C:\Users\stapi\AppData\Local\Temp\cc2hhySa.s:1022   .text.hostapd_neighbor_set_own_report:00000000000000a2 .L0 
C:\Users\stapi\AppData\Local\Temp\cc2hhySa.s:1026   .text.hostapd_neighbor_set_own_report:00000000000000a6 .L0 
C:\Users\stapi\AppData\Local\Temp\cc2hhySa.s:1027   .text.hostapd_neighbor_set_own_report:00000000000000a6 .L0 
C:\Users\stapi\AppData\Local\Temp\cc2hhySa.s:1034   .text.hostapd_neighbor_set_own_report:00000000000000ae .L0 
C:\Users\stapi\AppData\Local\Temp\cc2hhySa.s:1035   .text.hostapd_neighbor_set_own_report:00000000000000ae .L0 
C:\Users\stapi\AppData\Local\Temp\cc2hhySa.s:1037   .text.hostapd_neighbor_set_own_report:00000000000000b0 .L0 
C:\Users\stapi\AppData\Local\Temp\cc2hhySa.s:1038   .text.hostapd_neighbor_set_own_report:00000000000000b0 .L0 
C:\Users\stapi\AppData\Local\Temp\cc2hhySa.s:1044   .text.hostapd_neighbor_set_own_report:00000000000000b4 .L0 
C:\Users\stapi\AppData\Local\Temp\cc2hhySa.s:1049   .text.hostapd_neighbor_set_own_report:00000000000000c4 .L0 
C:\Users\stapi\AppData\Local\Temp\cc2hhySa.s:1052   .text.hostapd_neighbor_set_own_report:00000000000000ca .L0 
C:\Users\stapi\AppData\Local\Temp\cc2hhySa.s:1059   .text.hostapd_neighbor_set_own_report:00000000000000ce .L0 
C:\Users\stapi\AppData\Local\Temp\cc2hhySa.s:1060   .text.hostapd_neighbor_set_own_report:00000000000000ce .L0 
C:\Users\stapi\AppData\Local\Temp\cc2hhySa.s:1061   .text.hostapd_neighbor_set_own_report:00000000000000ce .L0 
C:\Users\stapi\AppData\Local\Temp\cc2hhySa.s:1063   .text.hostapd_neighbor_set_own_report:00000000000000d2 .L0 
C:\Users\stapi\AppData\Local\Temp\cc2hhySa.s:1065   .text.hostapd_neighbor_set_own_report:00000000000000d4 .L0 
C:\Users\stapi\AppData\Local\Temp\cc2hhySa.s:1066   .text.hostapd_neighbor_set_own_report:00000000000000d4 .L0 
C:\Users\stapi\AppData\Local\Temp\cc2hhySa.s:1072   .text.hostapd_neighbor_set_own_report:00000000000000d8 .L0 
C:\Users\stapi\AppData\Local\Temp\cc2hhySa.s:1073   .text.hostapd_neighbor_set_own_report:00000000000000d8 .L0 
C:\Users\stapi\AppData\Local\Temp\cc2hhySa.s:1077   .text.hostapd_neighbor_set_own_report:00000000000000e0 .L0 
C:\Users\stapi\AppData\Local\Temp\cc2hhySa.s:1078   .text.hostapd_neighbor_set_own_report:00000000000000e0 .L0 
C:\Users\stapi\AppData\Local\Temp\cc2hhySa.s:1080   .text.hostapd_neighbor_set_own_report:00000000000000e4 .L0 
C:\Users\stapi\AppData\Local\Temp\cc2hhySa.s:1082   .text.hostapd_neighbor_set_own_report:00000000000000e6 .L0 
C:\Users\stapi\AppData\Local\Temp\cc2hhySa.s:1083   .text.hostapd_neighbor_set_own_report:00000000000000e6 .L0 
C:\Users\stapi\AppData\Local\Temp\cc2hhySa.s:1085   .text.hostapd_neighbor_set_own_report:00000000000000ea .L0 
C:\Users\stapi\AppData\Local\Temp\cc2hhySa.s:1087   .text.hostapd_neighbor_set_own_report:00000000000000ec .L0 
C:\Users\stapi\AppData\Local\Temp\cc2hhySa.s:1096   .text.hostapd_neighbor_set_own_report:00000000000000f0 .L0 
C:\Users\stapi\AppData\Local\Temp\cc2hhySa.s:1097   .text.hostapd_neighbor_set_own_report:00000000000000f0 .L0 
C:\Users\stapi\AppData\Local\Temp\cc2hhySa.s:1108   .text.hostapd_neighbor_set_own_report:00000000000000f6 .L0 
C:\Users\stapi\AppData\Local\Temp\cc2hhySa.s:1109   .text.hostapd_neighbor_set_own_report:00000000000000f6 .L0 
C:\Users\stapi\AppData\Local\Temp\cc2hhySa.s:1118   .text.hostapd_neighbor_set_own_report:00000000000000fc .L0 
C:\Users\stapi\AppData\Local\Temp\cc2hhySa.s:1120   .text.hostapd_neighbor_set_own_report:00000000000000fe .L0 
C:\Users\stapi\AppData\Local\Temp\cc2hhySa.s:1127   .text.hostapd_neighbor_set_own_report:0000000000000104 .L0 
C:\Users\stapi\AppData\Local\Temp\cc2hhySa.s:1128   .text.hostapd_neighbor_set_own_report:0000000000000104 .L0 
C:\Users\stapi\AppData\Local\Temp\cc2hhySa.s:1130   .text.hostapd_neighbor_set_own_report:0000000000000106 .L0 
C:\Users\stapi\AppData\Local\Temp\cc2hhySa.s:1134   .text.hostapd_neighbor_set_own_report:000000000000010a .L0 
C:\Users\stapi\AppData\Local\Temp\cc2hhySa.s:1135   .text.hostapd_neighbor_set_own_report:000000000000010a .L0 
C:\Users\stapi\AppData\Local\Temp\cc2hhySa.s:1137   .text.hostapd_neighbor_set_own_report:000000000000010e .L0 
C:\Users\stapi\AppData\Local\Temp\cc2hhySa.s:1145   .text.hostapd_neighbor_set_own_report:0000000000000124 .L0 
C:\Users\stapi\AppData\Local\Temp\cc2hhySa.s:1152   .text.hostapd_neighbor_set_own_report:0000000000000128 .L0 
C:\Users\stapi\AppData\Local\Temp\cc2hhySa.s:1161   .text.hostapd_neighbor_set_own_report:000000000000012c .L0 
C:\Users\stapi\AppData\Local\Temp\cc2hhySa.s:1162   .text.hostapd_neighbor_set_own_report:000000000000012c .L0 
C:\Users\stapi\AppData\Local\Temp\cc2hhySa.s:1171   .text.hostapd_neighbor_set_own_report:0000000000000132 .L0 
C:\Users\stapi\AppData\Local\Temp\cc2hhySa.s:1172   .text.hostapd_neighbor_set_own_report:0000000000000132 .L0 
C:\Users\stapi\AppData\Local\Temp\cc2hhySa.s:1181   .text.hostapd_neighbor_set_own_report:0000000000000138 .L0 
C:\Users\stapi\AppData\Local\Temp\cc2hhySa.s:1185   .text.hostapd_neighbor_set_own_report:000000000000013c .L0 
C:\Users\stapi\AppData\Local\Temp\cc2hhySa.s:1187   .text.hostapd_neighbor_set_own_report:000000000000013e .L0 
C:\Users\stapi\AppData\Local\Temp\cc2hhySa.s:1192   .text.hostapd_neighbor_set_own_report:0000000000000144 .L0 
C:\Users\stapi\AppData\Local\Temp\cc2hhySa.s:1194   .text.hostapd_neighbor_set_own_report:0000000000000146 .L0 
C:\Users\stapi\AppData\Local\Temp\cc2hhySa.s:1195   .text.hostapd_neighbor_set_own_report:0000000000000146 .L0 
C:\Users\stapi\AppData\Local\Temp\cc2hhySa.s:1197   .text.hostapd_neighbor_set_own_report:0000000000000148 .L0 
C:\Users\stapi\AppData\Local\Temp\cc2hhySa.s:1199   .text.hostapd_neighbor_set_own_report:000000000000014a .L0 
C:\Users\stapi\AppData\Local\Temp\cc2hhySa.s:1201   .text.hostapd_neighbor_set_own_report:000000000000014e .L0 
C:\Users\stapi\AppData\Local\Temp\cc2hhySa.s:1202   .text.hostapd_neighbor_set_own_report:000000000000014e .L0 
C:\Users\stapi\AppData\Local\Temp\cc2hhySa.s:1204   .text.hostapd_neighbor_set_own_report:0000000000000150 .L0 
C:\Users\stapi\AppData\Local\Temp\cc2hhySa.s:1206   .text.hostapd_neighbor_set_own_report:0000000000000152 .L0 
C:\Users\stapi\AppData\Local\Temp\cc2hhySa.s:1208   .text.hostapd_neighbor_set_own_report:0000000000000156 .L0 
C:\Users\stapi\AppData\Local\Temp\cc2hhySa.s:1209   .text.hostapd_neighbor_set_own_report:0000000000000156 .L0 
C:\Users\stapi\AppData\Local\Temp\cc2hhySa.s:1211   .text.hostapd_neighbor_set_own_report:0000000000000158 .L0 
C:\Users\stapi\AppData\Local\Temp\cc2hhySa.s:1213   .text.hostapd_neighbor_set_own_report:000000000000015a .L0 
C:\Users\stapi\AppData\Local\Temp\cc2hhySa.s:1217   .text.hostapd_neighbor_set_own_report:0000000000000160 .L0 
C:\Users\stapi\AppData\Local\Temp\cc2hhySa.s:1218   .text.hostapd_neighbor_set_own_report:0000000000000160 .L0 
C:\Users\stapi\AppData\Local\Temp\cc2hhySa.s:1221   .text.hostapd_neighbor_set_own_report:0000000000000166 .L0 
C:\Users\stapi\AppData\Local\Temp\cc2hhySa.s:1225   .text.hostapd_neighbor_set_own_report:000000000000016a .L0 
C:\Users\stapi\AppData\Local\Temp\cc2hhySa.s:1226   .text.hostapd_neighbor_set_own_report:000000000000016a .L0 
C:\Users\stapi\AppData\Local\Temp\cc2hhySa.s:1229   .text.hostapd_neighbor_set_own_report:0000000000000170 .L0 
C:\Users\stapi\AppData\Local\Temp\cc2hhySa.s:1230   .text.hostapd_neighbor_set_own_report:0000000000000170 .L0 
C:\Users\stapi\AppData\Local\Temp\cc2hhySa.s:1233   .text.hostapd_neighbor_set_own_report:0000000000000176 .L0 
C:\Users\stapi\AppData\Local\Temp\cc2hhySa.s:1241   .text.hostapd_neighbor_set_own_report:0000000000000178 .L0 
C:\Users\stapi\AppData\Local\Temp\cc2hhySa.s:1242   .text.hostapd_neighbor_set_own_report:0000000000000178 .L0 
C:\Users\stapi\AppData\Local\Temp\cc2hhySa.s:1243   .text.hostapd_neighbor_set_own_report:0000000000000178 .L0 
C:\Users\stapi\AppData\Local\Temp\cc2hhySa.s:1245   .text.hostapd_neighbor_set_own_report:000000000000017a .L0 
C:\Users\stapi\AppData\Local\Temp\cc2hhySa.s:1246   .text.hostapd_neighbor_set_own_report:000000000000017a .L0 
C:\Users\stapi\AppData\Local\Temp\cc2hhySa.s:1252   .text.hostapd_neighbor_set_own_report:000000000000017e .L0 
C:\Users\stapi\AppData\Local\Temp\cc2hhySa.s:1254   .text.hostapd_neighbor_set_own_report:0000000000000182 .L0 
C:\Users\stapi\AppData\Local\Temp\cc2hhySa.s:1255   .text.hostapd_neighbor_set_own_report:0000000000000182 .L0 
C:\Users\stapi\AppData\Local\Temp\cc2hhySa.s:1257   .text.hostapd_neighbor_set_own_report:0000000000000184 .L0 
C:\Users\stapi\AppData\Local\Temp\cc2hhySa.s:1259   .text.hostapd_neighbor_set_own_report:0000000000000186 .L0 
C:\Users\stapi\AppData\Local\Temp\cc2hhySa.s:1264   .text.hostapd_neighbor_set_own_report:000000000000018a .L0 
C:\Users\stapi\AppData\Local\Temp\cc2hhySa.s:1265   .text.hostapd_neighbor_set_own_report:000000000000018a .L0 
C:\Users\stapi\AppData\Local\Temp\cc2hhySa.s:1266   .text.hostapd_neighbor_set_own_report:000000000000018a .L0 
C:\Users\stapi\AppData\Local\Temp\cc2hhySa.s:1268   .text.hostapd_neighbor_set_own_report:000000000000018c .L0 
C:\Users\stapi\AppData\Local\Temp\cc2hhySa.s:1269   .text.hostapd_neighbor_set_own_report:000000000000018c .L0 
C:\Users\stapi\AppData\Local\Temp\cc2hhySa.s:1275   .text.hostapd_neighbor_set_own_report:0000000000000190 .L0 
C:\Users\stapi\AppData\Local\Temp\cc2hhySa.s:1276   .text.hostapd_neighbor_set_own_report:0000000000000190 .L0 
C:\Users\stapi\AppData\Local\Temp\cc2hhySa.s:1278   .text.hostapd_neighbor_set_own_report:0000000000000194 .L0 
C:\Users\stapi\AppData\Local\Temp\cc2hhySa.s:1280   .text.hostapd_neighbor_set_own_report:0000000000000196 .L0 
C:\Users\stapi\AppData\Local\Temp\cc2hhySa.s:1282   .text.hostapd_neighbor_set_own_report:000000000000019a .L0 
C:\Users\stapi\AppData\Local\Temp\cc2hhySa.s:1284   .text.hostapd_neighbor_set_own_report:000000000000019e .L0 
C:\Users\stapi\AppData\Local\Temp\cc2hhySa.s:1286   .text.hostapd_neighbor_set_own_report:00000000000001a0 .L0 
C:\Users\stapi\AppData\Local\Temp\cc2hhySa.s:1289   .text.hostapd_neighbor_set_own_report:00000000000001a8 .L0 
C:\Users\stapi\AppData\Local\Temp\cc2hhySa.s:1290   .text.hostapd_neighbor_set_own_report:00000000000001a8 .L0 
C:\Users\stapi\AppData\Local\Temp\cc2hhySa.s:1296   .text.hostapd_neighbor_set_own_report:00000000000001b4 .L0 
C:\Users\stapi\AppData\Local\Temp\cc2hhySa.s:1297   .text.hostapd_neighbor_set_own_report:00000000000001b4 .L0 
C:\Users\stapi\AppData\Local\Temp\cc2hhySa.s:1301   .text.hostapd_neighbor_set_own_report:00000000000001b6 .L0 
C:\Users\stapi\AppData\Local\Temp\cc2hhySa.s:1302   .text.hostapd_neighbor_set_own_report:00000000000001b6 .L0 
C:\Users\stapi\AppData\Local\Temp\cc2hhySa.s:1308   .text.hostapd_neighbor_set_own_report:00000000000001c0 .L0 
C:\Users\stapi\AppData\Local\Temp\cc2hhySa.s:1313   .text.hostapd_neighbor_set_own_report:00000000000001c4 .L0 
C:\Users\stapi\AppData\Local\Temp\cc2hhySa.s:1314   .text.hostapd_neighbor_set_own_report:00000000000001c4 .L0 
C:\Users\stapi\AppData\Local\Temp\cc2hhySa.s:1323   .text.hostapd_neighbor_set_own_report:00000000000001d0 .L0 
C:\Users\stapi\AppData\Local\Temp\cc2hhySa.s:1324   .text.hostapd_neighbor_set_own_report:00000000000001d0 .L0 
C:\Users\stapi\AppData\Local\Temp\cc2hhySa.s:1325   .text.hostapd_neighbor_set_own_report:00000000000001d0 .L0 
C:\Users\stapi\AppData\Local\Temp\cc2hhySa.s:1333   .text.hostapd_neighbor_set_own_report:00000000000001dc .L0 
C:\Users\stapi\AppData\Local\Temp\cc2hhySa.s:1334   .text.hostapd_neighbor_set_own_report:00000000000001dc .L0 
C:\Users\stapi\AppData\Local\Temp\cc2hhySa.s:1335   .text.hostapd_neighbor_set_own_report:00000000000001dc .L0 
C:\Users\stapi\AppData\Local\Temp\cc2hhySa.s:1341   .text.hostapd_neighbor_set_own_report:00000000000001e0 .L0 
C:\Users\stapi\AppData\Local\Temp\cc2hhySa.s:1347   .text.hostapd_neighbor_set_own_report:00000000000001e4 .L0 
C:\Users\stapi\AppData\Local\Temp\cc2hhySa.s:1349   .text.hostapd_neighbor_set_own_report:00000000000001e8 .L0 
C:\Users\stapi\AppData\Local\Temp\cc2hhySa.s:1351   .text.hostapd_neighbor_set_own_report:00000000000001ec .L0 
C:\Users\stapi\AppData\Local\Temp\cc2hhySa.s:1353   .text.hostapd_neighbor_set_own_report:00000000000001f0 .L0 
C:\Users\stapi\AppData\Local\Temp\cc2hhySa.s:1354   .text.hostapd_neighbor_set_own_report:00000000000001f0 .L0 
C:\Users\stapi\AppData\Local\Temp\cc2hhySa.s:1356   .text.hostapd_neighbor_set_own_report:00000000000001f4 .L0 
C:\Users\stapi\AppData\Local\Temp\cc2hhySa.s:1362   .text.hostapd_neighbor_set_own_report:00000000000001f4 .L0 
C:\Users\stapi\AppData\Local\Temp\cc2hhySa.s:1363   .text.hostapd_neighbor_set_own_report:00000000000001f4 .L0 
C:\Users\stapi\AppData\Local\Temp\cc2hhySa.s:1367   .text.hostapd_neighbor_set_own_report:00000000000001fe .L0 
C:\Users\stapi\AppData\Local\Temp\cc2hhySa.s:1372   .text.hostapd_neighbor_set_own_report:000000000000020c .L0 
C:\Users\stapi\AppData\Local\Temp\cc2hhySa.s:1373   .text.hostapd_neighbor_set_own_report:000000000000020c .L0 
C:\Users\stapi\AppData\Local\Temp\cc2hhySa.s:1380   .text.hostapd_neighbor_set_own_report:0000000000000220 .L0 
C:\Users\stapi\AppData\Local\Temp\cc2hhySa.s:1385   .text.hostapd_neighbor_set_own_report:000000000000022e .L0 
C:\Users\stapi\AppData\Local\Temp\cc2hhySa.s:1390   .text.hostapd_neighbor_set_own_report:000000000000023a .L0 
C:\Users\stapi\AppData\Local\Temp\cc2hhySa.s:1395   .text.hostapd_neighbor_set_own_report:0000000000000246 .L0 
C:\Users\stapi\AppData\Local\Temp\cc2hhySa.s:1400   .text.hostapd_neighbor_set_own_report:0000000000000252 .L0 
C:\Users\stapi\AppData\Local\Temp\cc2hhySa.s:1405   .text.hostapd_neighbor_set_own_report:0000000000000260 .L0 
C:\Users\stapi\AppData\Local\Temp\cc2hhySa.s:1410   .text.hostapd_neighbor_set_own_report:000000000000026c .L0 
C:\Users\stapi\AppData\Local\Temp\cc2hhySa.s:1411   .text.hostapd_neighbor_set_own_report:000000000000026c .L0 
C:\Users\stapi\AppData\Local\Temp\cc2hhySa.s:1413   .text.hostapd_neighbor_set_own_report:0000000000000270 .L0 
C:\Users\stapi\AppData\Local\Temp\cc2hhySa.s:1424   .text.hostapd_neighbor_set_own_report:000000000000028e .L0 
C:\Users\stapi\AppData\Local\Temp\cc2hhySa.s:1429   .text.hostapd_neighbor_set_own_report:0000000000000298 .L0 
C:\Users\stapi\AppData\Local\Temp\cc2hhySa.s:1430   .text.hostapd_neighbor_set_own_report:000000000000029a .L0 
C:\Users\stapi\AppData\Local\Temp\cc2hhySa.s:1432   .text.hostapd_neighbor_set_own_report:00000000000002a2 .L0 
C:\Users\stapi\AppData\Local\Temp\cc2hhySa.s:1433   .text.hostapd_neighbor_set_own_report:00000000000002a2 .L0 
C:\Users\stapi\AppData\Local\Temp\cc2hhySa.s:1434   .text.hostapd_neighbor_set_own_report:00000000000002a2 .L0 
C:\Users\stapi\AppData\Local\Temp\cc2hhySa.s:1435   .text.hostapd_neighbor_set_own_report:00000000000002a2 .L0 
C:\Users\stapi\AppData\Local\Temp\cc2hhySa.s:1436   .text.hostapd_neighbor_set_own_report:00000000000002a2 .L0 
C:\Users\stapi\AppData\Local\Temp\cc2hhySa.s:1437   .text.hostapd_neighbor_set_own_report:00000000000002a2 .L0 
C:\Users\stapi\AppData\Local\Temp\cc2hhySa.s:1438   .text.hostapd_neighbor_set_own_report:00000000000002a2 .L0 
C:\Users\stapi\AppData\Local\Temp\cc2hhySa.s:1439   .text.hostapd_neighbor_set_own_report:00000000000002a2 .L0 
C:\Users\stapi\AppData\Local\Temp\cc2hhySa.s:1440   .text.hostapd_neighbor_set_own_report:00000000000002a2 .L0 
C:\Users\stapi\AppData\Local\Temp\cc2hhySa.s:1441   .text.hostapd_neighbor_set_own_report:00000000000002a2 .L0 
C:\Users\stapi\AppData\Local\Temp\cc2hhySa.s:1442   .text.hostapd_neighbor_set_own_report:00000000000002a2 .L0 
C:\Users\stapi\AppData\Local\Temp\cc2hhySa.s:73     .text.hostapd_neighbor_clear_entry:0000000000000062 .L0 
C:\Users\stapi\AppData\Local\Temp\cc2hhySa.s:105    .text.wpabuf_put_u8:0000000000000020 .L0 
C:\Users\stapi\AppData\Local\Temp\cc2hhySa.s:186    .text.hostapd_neighbor_get:0000000000000062 .L0 
C:\Users\stapi\AppData\Local\Temp\cc2hhySa.s:487    .text.hostapd_neighbor_show:000000000000014c .L0 
C:\Users\stapi\AppData\Local\Temp\cc2hhySa.s:565    .text.hostapd_neighbor_remove:0000000000000044 .L0 
C:\Users\stapi\AppData\Local\Temp\cc2hhySa.s:791    .text.hostapd_neighbor_set:00000000000000fc .L0 
C:\Users\stapi\AppData\Local\Temp\cc2hhySa.s:875    .text.hostapd_free_neighbor_db:0000000000000056 .L0 
C:\Users\stapi\AppData\Local\Temp\cc2hhySa.s:1445   .text.hostapd_neighbor_set_own_report:00000000000002a2 .L0 
                     .debug_frame:0000000000000000 .L0 
C:\Users\stapi\AppData\Local\Temp\cc2hhySa.s:142    .text.hostapd_neighbor_get:0000000000000024 .L10
C:\Users\stapi\AppData\Local\Temp\cc2hhySa.s:173    .text.hostapd_neighbor_get:0000000000000058 .L5
C:\Users\stapi\AppData\Local\Temp\cc2hhySa.s:157    .text.hostapd_neighbor_get:000000000000003a .L7
C:\Users\stapi\AppData\Local\Temp\cc2hhySa.s:134    .text.hostapd_neighbor_get:000000000000001c .L6
C:\Users\stapi\AppData\Local\Temp\cc2hhySa.s:152    .text.hostapd_neighbor_get:0000000000000036 .L9
C:\Users\stapi\AppData\Local\Temp\cc2hhySa.s:188    .rodata.hostapd_neighbor_show.str1.4:0000000000000000 .LC0
C:\Users\stapi\AppData\Local\Temp\cc2hhySa.s:191    .rodata.hostapd_neighbor_show.str1.4:0000000000000008 .LC1
C:\Users\stapi\AppData\Local\Temp\cc2hhySa.s:194    .rodata.hostapd_neighbor_show.str1.4:000000000000000c .LC2
C:\Users\stapi\AppData\Local\Temp\cc2hhySa.s:197    .rodata.hostapd_neighbor_show.str1.4:0000000000000014 .LC3
C:\Users\stapi\AppData\Local\Temp\cc2hhySa.s:203    .rodata.hostapd_neighbor_show.str1.4:0000000000000024 .LC5
C:\Users\stapi\AppData\Local\Temp\cc2hhySa.s:200    .rodata.hostapd_neighbor_show.str1.4:000000000000001c .LC4
C:\Users\stapi\AppData\Local\Temp\cc2hhySa.s:291    .text.hostapd_neighbor_show:0000000000000056 .L29
C:\Users\stapi\AppData\Local\Temp\cc2hhySa.s:339    .text.hostapd_neighbor_show:0000000000000090 .L20
C:\Users\stapi\AppData\Local\Temp\cc2hhySa.s:368    .text.hostapd_neighbor_show:00000000000000ae .L21
C:\Users\stapi\AppData\Local\Temp\cc2hhySa.s:398    .text.hostapd_neighbor_show:00000000000000d0 .L22
C:\Users\stapi\AppData\Local\Temp\cc2hhySa.s:414    .text.hostapd_neighbor_show:00000000000000f4 .L23
C:\Users\stapi\AppData\Local\Temp\cc2hhySa.s:421    .text.hostapd_neighbor_show:00000000000000fc .L24
C:\Users\stapi\AppData\Local\Temp\cc2hhySa.s:428    .text.hostapd_neighbor_show:0000000000000106 .L25
C:\Users\stapi\AppData\Local\Temp\cc2hhySa.s:477    .text.hostapd_neighbor_show:0000000000000142 .L33
C:\Users\stapi\AppData\Local\Temp\cc2hhySa.s:269    .text.hostapd_neighbor_show:0000000000000046 .L28
C:\Users\stapi\AppData\Local\Temp\cc2hhySa.s:265    .text.hostapd_neighbor_show:0000000000000042 .L19
C:\Users\stapi\AppData\Local\Temp\cc2hhySa.s:434    .text.hostapd_neighbor_show:000000000000010c .L26
C:\Users\stapi\AppData\Local\Temp\cc2hhySa.s:556    .text.hostapd_neighbor_remove:0000000000000040 .L46
C:\Users\stapi\AppData\Local\Temp\cc2hhySa.s:548    .text.hostapd_neighbor_remove:0000000000000038 .L44
C:\Users\stapi\AppData\Local\Temp\cc2hhySa.s:657    .text.hostapd_neighbor_set:0000000000000050 .L49
C:\Users\stapi\AppData\Local\Temp\cc2hhySa.s:713    .text.hostapd_neighbor_set:00000000000000aa .L48
C:\Users\stapi\AppData\Local\Temp\cc2hhySa.s:755    .text.hostapd_neighbor_set:00000000000000d4 .L55
C:\Users\stapi\AppData\Local\Temp\cc2hhySa.s:729    .text.hostapd_neighbor_set:00000000000000b2 .L51
C:\Users\stapi\AppData\Local\Temp\cc2hhySa.s:767    .text.hostapd_neighbor_set:00000000000000e6 .L52
C:\Users\stapi\AppData\Local\Temp\cc2hhySa.s:698    .text.hostapd_neighbor_set:000000000000009c .L54
C:\Users\stapi\AppData\Local\Temp\cc2hhySa.s:702    .text.hostapd_neighbor_set:00000000000000a0 .L53
C:\Users\stapi\AppData\Local\Temp\cc2hhySa.s:835    .text.hostapd_free_neighbor_db:000000000000002c .L75
C:\Users\stapi\AppData\Local\Temp\cc2hhySa.s:823    .text.hostapd_free_neighbor_db:000000000000001e .L74
C:\Users\stapi\AppData\Local\Temp\cc2hhySa.s:915    .text.hostapd_neighbor_set_own_report:000000000000002c .L78
C:\Users\stapi\AppData\Local\Temp\cc2hhySa.s:925    .text.hostapd_neighbor_set_own_report:000000000000003c .L79
C:\Users\stapi\AppData\Local\Temp\cc2hhySa.s:936    .text.hostapd_neighbor_set_own_report:000000000000004c .L80
C:\Users\stapi\AppData\Local\Temp\cc2hhySa.s:1427   .text.hostapd_neighbor_set_own_report:0000000000000298 .L77
C:\Users\stapi\AppData\Local\Temp\cc2hhySa.s:967    .text.hostapd_neighbor_set_own_report:0000000000000064 .L82
C:\Users\stapi\AppData\Local\Temp\cc2hhySa.s:999    .text.hostapd_neighbor_set_own_report:000000000000008c .L84
C:\Users\stapi\AppData\Local\Temp\cc2hhySa.s:1024   .text.hostapd_neighbor_set_own_report:00000000000000a6 .L86
C:\Users\stapi\AppData\Local\Temp\cc2hhySa.s:1013   .text.hostapd_neighbor_set_own_report:0000000000000098 .L163
C:\Users\stapi\AppData\Local\Temp\cc2hhySa.s:1090   .text.hostapd_neighbor_set_own_report:00000000000000f0 .L89
C:\Users\stapi\AppData\Local\Temp\cc2hhySa.s:1100   .text.hostapd_neighbor_set_own_report:00000000000000f6 .L91
C:\Users\stapi\AppData\Local\Temp\cc2hhySa.s:1175   .text.hostapd_neighbor_set_own_report:0000000000000138 .L112
C:\Users\stapi\AppData\Local\Temp\cc2hhySa.s:1112   .text.hostapd_neighbor_set_own_report:00000000000000fc .L94
C:\Users\stapi\AppData\Local\Temp\cc2hhySa.s:1183   .text.hostapd_neighbor_set_own_report:000000000000013c .L95
C:\Users\stapi\AppData\Local\Temp\cc2hhySa.s:1189   .text.hostapd_neighbor_set_own_report:0000000000000142 .L157
C:\Users\stapi\AppData\Local\Temp\cc2hhySa.s:1132   .text.hostapd_neighbor_set_own_report:000000000000010a .L96
C:\Users\stapi\AppData\Local\Temp\cc2hhySa.s:1039   .text.hostapd_neighbor_set_own_report:00000000000000b4 .L90
C:\Users\stapi\AppData\Local\Temp\cc2hhySa.s:1067   .text.hostapd_neighbor_set_own_report:00000000000000d8 .L92
C:\Users\stapi\AppData\Local\Temp\cc2hhySa.s:1235   .text.hostapd_neighbor_set_own_report:0000000000000178 .L103
C:\Users\stapi\AppData\Local\Temp\cc2hhySa.s:1271   .text.hostapd_neighbor_set_own_report:0000000000000190 .L93
C:\Users\stapi\AppData\Local\Temp\cc2hhySa.s:1247   .text.hostapd_neighbor_set_own_report:000000000000017e .L100
C:\Users\stapi\AppData\Local\Temp\cc2hhySa.s:1143   .text.hostapd_neighbor_set_own_report:0000000000000124 .L164
C:\Users\stapi\AppData\Local\Temp\cc2hhySa.s:1215   .text.hostapd_neighbor_set_own_report:0000000000000160 .L158
C:\Users\stapi\AppData\Local\Temp\cc2hhySa.s:1124   .text.hostapd_neighbor_set_own_report:0000000000000104 .L105
C:\Users\stapi\AppData\Local\Temp\cc2hhySa.s:1122   .text.hostapd_neighbor_set_own_report:0000000000000102 .L114
C:\Users\stapi\AppData\Local\Temp\cc2hhySa.s:1223   .text.hostapd_neighbor_set_own_report:000000000000016a .L160
C:\Users\stapi\AppData\Local\Temp\cc2hhySa.s:1148   .text.hostapd_neighbor_set_own_report:0000000000000128 .L122
C:\Users\stapi\AppData\Local\Temp\cc2hhySa.s:1155   .text.hostapd_neighbor_set_own_report:000000000000012c .L99
C:\Users\stapi\AppData\Local\Temp\cc2hhySa.s:1165   .text.hostapd_neighbor_set_own_report:0000000000000132 .L101
C:\Users\stapi\AppData\Local\Temp\cc2hhySa.s:16606  .debug_abbrev:0000000000000000 .Ldebug_abbrev0
C:\Users\stapi\AppData\Local\Temp\cc2hhySa.s:20248  .debug_str:0000000000002f03 .LASF1417
C:\Users\stapi\AppData\Local\Temp\cc2hhySa.s:18742  .debug_str:000000000000029e .LASF1418
C:\Users\stapi\AppData\Local\Temp\cc2hhySa.s:21322  .debug_str:0000000000004f28 .LASF1419
C:\Users\stapi\AppData\Local\Temp\cc2hhySa.s:18554  .debug_ranges:0000000000000000 .Ldebug_ranges0
C:\Users\stapi\AppData\Local\Temp\cc2hhySa.s:18656  .debug_line:0000000000000000 .Ldebug_line0
C:\Users\stapi\AppData\Local\Temp\cc2hhySa.s:19076  .debug_str:0000000000000c72 .LASF1
C:\Users\stapi\AppData\Local\Temp\cc2hhySa.s:21488  .debug_str:0000000000005479 .LASF0
C:\Users\stapi\AppData\Local\Temp\cc2hhySa.s:19796  .debug_str:000000000000213e .LASF2
C:\Users\stapi\AppData\Local\Temp\cc2hhySa.s:20882  .debug_str:000000000000425a .LASF3
C:\Users\stapi\AppData\Local\Temp\cc2hhySa.s:19222  .debug_str:00000000000010c9 .LASF4
C:\Users\stapi\AppData\Local\Temp\cc2hhySa.s:20048  .debug_str:00000000000028d3 .LASF5
C:\Users\stapi\AppData\Local\Temp\cc2hhySa.s:20508  .debug_str:00000000000037f0 .LASF6
C:\Users\stapi\AppData\Local\Temp\cc2hhySa.s:19546  .debug_str:0000000000001a16 .LASF7
C:\Users\stapi\AppData\Local\Temp\cc2hhySa.s:19932  .debug_str:000000000000259c .LASF8
C:\Users\stapi\AppData\Local\Temp\cc2hhySa.s:20612  .debug_str:0000000000003ab8 .LASF9
C:\Users\stapi\AppData\Local\Temp\cc2hhySa.s:20608  .debug_str:0000000000003aa3 .LASF10
C:\Users\stapi\AppData\Local\Temp\cc2hhySa.s:20210  .debug_str:0000000000002ddb .LASF11
C:\Users\stapi\AppData\Local\Temp\cc2hhySa.s:18694  .debug_str:000000000000010f .LASF12
C:\Users\stapi\AppData\Local\Temp\cc2hhySa.s:18664  .debug_str:0000000000000040 .LASF13
C:\Users\stapi\AppData\Local\Temp\cc2hhySa.s:20938  .debug_str:00000000000043ef .LASF14
C:\Users\stapi\AppData\Local\Temp\cc2hhySa.s:21010  .debug_str:00000000000045f7 .LASF15
C:\Users\stapi\AppData\Local\Temp\cc2hhySa.s:21162  .debug_str:0000000000004a6c .LASF16
C:\Users\stapi\AppData\Local\Temp\cc2hhySa.s:20952  .debug_str:000000000000445b .LASF17
C:\Users\stapi\AppData\Local\Temp\cc2hhySa.s:19990  .debug_str:0000000000002748 .LASF18
C:\Users\stapi\AppData\Local\Temp\cc2hhySa.s:20990  .debug_str:0000000000004571 .LASF19
C:\Users\stapi\AppData\Local\Temp\cc2hhySa.s:21444  .debug_str:000000000000533e .LASF20
C:\Users\stapi\AppData\Local\Temp\cc2hhySa.s:18880  .debug_str:0000000000000709 .LASF21
C:\Users\stapi\AppData\Local\Temp\cc2hhySa.s:19580  .debug_str:0000000000001afe .LASF22
C:\Users\stapi\AppData\Local\Temp\cc2hhySa.s:19736  .debug_str:0000000000001f84 .LASF23
C:\Users\stapi\AppData\Local\Temp\cc2hhySa.s:19626  .debug_str:0000000000001c2b .LASF24
C:\Users\stapi\AppData\Local\Temp\cc2hhySa.s:20122  .debug_str:0000000000002b1c .LASF25
C:\Users\stapi\AppData\Local\Temp\cc2hhySa.s:19354  .debug_str:00000000000014a0 .LASF27
C:\Users\stapi\AppData\Local\Temp\cc2hhySa.s:19024  .debug_str:0000000000000ad5 .LASF29
C:\Users\stapi\AppData\Local\Temp\cc2hhySa.s:19734  .debug_str:0000000000001f7a .LASF26
C:\Users\stapi\AppData\Local\Temp\cc2hhySa.s:20816  .debug_str:000000000000406e .LASF28
C:\Users\stapi\AppData\Local\Temp\cc2hhySa.s:21130  .debug_str:0000000000004991 .LASF30
C:\Users\stapi\AppData\Local\Temp\cc2hhySa.s:19876  .debug_str:00000000000023bc .LASF31
C:\Users\stapi\AppData\Local\Temp\cc2hhySa.s:19516  .debug_str:0000000000001951 .LASF32
C:\Users\stapi\AppData\Local\Temp\cc2hhySa.s:19570  .debug_str:0000000000001ab5 .LASF33
C:\Users\stapi\AppData\Local\Temp\cc2hhySa.s:19904  .debug_str:00000000000024b6 .LASF34
C:\Users\stapi\AppData\Local\Temp\cc2hhySa.s:19956  .debug_str:000000000000265f .LASF35
C:\Users\stapi\AppData\Local\Temp\cc2hhySa.s:18980  .debug_str:000000000000099d .LASF36
C:\Users\stapi\AppData\Local\Temp\cc2hhySa.s:18756  .debug_str:000000000000037b .LASF37
C:\Users\stapi\AppData\Local\Temp\cc2hhySa.s:19016  .debug_str:0000000000000a94 .LASF38
C:\Users\stapi\AppData\Local\Temp\cc2hhySa.s:21132  .debug_str:0000000000004996 .LASF39
C:\Users\stapi\AppData\Local\Temp\cc2hhySa.s:21128  .debug_str:000000000000498b .LASF40
C:\Users\stapi\AppData\Local\Temp\cc2hhySa.s:21238  .debug_str:0000000000004cc0 .LASF49
C:\Users\stapi\AppData\Local\Temp\cc2hhySa.s:19114  .debug_str:0000000000000d96 .LASF41
C:\Users\stapi\AppData\Local\Temp\cc2hhySa.s:20752  .debug_str:0000000000003e77 .LASF42
C:\Users\stapi\AppData\Local\Temp\cc2hhySa.s:20000  .debug_str:0000000000002785 .LASF43
C:\Users\stapi\AppData\Local\Temp\cc2hhySa.s:21366  .debug_str:00000000000050d8 .LASF44
C:\Users\stapi\AppData\Local\Temp\cc2hhySa.s:19970  .debug_str:00000000000026ae .LASF45
C:\Users\stapi\AppData\Local\Temp\cc2hhySa.s:19918  .debug_str:000000000000253c .LASF46
C:\Users\stapi\AppData\Local\Temp\cc2hhySa.s:21082  .debug_str:0000000000004841 .LASF47
C:\Users\stapi\AppData\Local\Temp\cc2hhySa.s:21306  .debug_str:0000000000004ec2 .LASF48
C:\Users\stapi\AppData\Local\Temp\cc2hhySa.s:21424  .debug_str:00000000000052ad .LASF50
C:\Users\stapi\AppData\Local\Temp\cc2hhySa.s:20728  .debug_str:0000000000003dd4 .LASF51
C:\Users\stapi\AppData\Local\Temp\cc2hhySa.s:20174  .debug_str:0000000000002cbe .LASF52
C:\Users\stapi\AppData\Local\Temp\cc2hhySa.s:20960  .debug_str:00000000000044a0 .LASF53
C:\Users\stapi\AppData\Local\Temp\cc2hhySa.s:19356  .debug_str:00000000000014a8 .LASF54
C:\Users\stapi\AppData\Local\Temp\cc2hhySa.s:20614  .debug_str:0000000000003ac2 .LASF55
C:\Users\stapi\AppData\Local\Temp\cc2hhySa.s:19020  .debug_str:0000000000000abc .LASF56
C:\Users\stapi\AppData\Local\Temp\cc2hhySa.s:19428  .debug_str:00000000000016ac .LASF57
C:\Users\stapi\AppData\Local\Temp\cc2hhySa.s:18860  .debug_str:0000000000000674 .LASF58
C:\Users\stapi\AppData\Local\Temp\cc2hhySa.s:21114  .debug_str:0000000000004921 .LASF59
C:\Users\stapi\AppData\Local\Temp\cc2hhySa.s:20810  .debug_str:000000000000403f .LASF60
C:\Users\stapi\AppData\Local\Temp\cc2hhySa.s:20920  .debug_str:000000000000434b .LASF61
C:\Users\stapi\AppData\Local\Temp\cc2hhySa.s:19728  .debug_str:0000000000001f42 .LASF62
C:\Users\stapi\AppData\Local\Temp\cc2hhySa.s:21020  .debug_str:0000000000004642 .LASF63
C:\Users\stapi\AppData\Local\Temp\cc2hhySa.s:20600  .debug_str:0000000000003a77 .LASF64
C:\Users\stapi\AppData\Local\Temp\cc2hhySa.s:18700  .debug_str:000000000000014a .LASF65
C:\Users\stapi\AppData\Local\Temp\cc2hhySa.s:20186  .debug_str:0000000000002d19 .LASF66
C:\Users\stapi\AppData\Local\Temp\cc2hhySa.s:19040  .debug_str:0000000000000b3e .LASF67
C:\Users\stapi\AppData\Local\Temp\cc2hhySa.s:19352  .debug_str:0000000000001490 .LASF68
C:\Users\stapi\AppData\Local\Temp\cc2hhySa.s:20266  .debug_str:0000000000003086 .LASF69
C:\Users\stapi\AppData\Local\Temp\cc2hhySa.s:20268  .debug_str:000000000000309e .LASF70
C:\Users\stapi\AppData\Local\Temp\cc2hhySa.s:20264  .debug_str:000000000000306e .LASF71
C:\Users\stapi\AppData\Local\Temp\cc2hhySa.s:20304  .debug_str:00000000000031b6 .LASF72
C:\Users\stapi\AppData\Local\Temp\cc2hhySa.s:18858  .debug_str:000000000000065a .LASF73
C:\Users\stapi\AppData\Local\Temp\cc2hhySa.s:20782  .debug_str:0000000000003f7e .LASF74
C:\Users\stapi\AppData\Local\Temp\cc2hhySa.s:19134  .debug_str:0000000000000e3a .LASF75
C:\Users\stapi\AppData\Local\Temp\cc2hhySa.s:20030  .debug_str:000000000000284f .LASF76
C:\Users\stapi\AppData\Local\Temp\cc2hhySa.s:21358  .debug_str:000000000000509e .LASF77
C:\Users\stapi\AppData\Local\Temp\cc2hhySa.s:21282  .debug_str:0000000000004e0c .LASF78
C:\Users\stapi\AppData\Local\Temp\cc2hhySa.s:21380  .debug_str:0000000000005139 .LASF79
C:\Users\stapi\AppData\Local\Temp\cc2hhySa.s:19148  .debug_str:0000000000000e9e .LASF80
C:\Users\stapi\AppData\Local\Temp\cc2hhySa.s:20900  .debug_str:00000000000042c2 .LASF81
C:\Users\stapi\AppData\Local\Temp\cc2hhySa.s:19760  .debug_str:000000000000202e .LASF82
C:\Users\stapi\AppData\Local\Temp\cc2hhySa.s:20866  .debug_str:00000000000041c2 .LASF83
C:\Users\stapi\AppData\Local\Temp\cc2hhySa.s:19756  .debug_str:0000000000002008 .LASF84
C:\Users\stapi\AppData\Local\Temp\cc2hhySa.s:20402  .debug_str:00000000000034f5 .LASF85
C:\Users\stapi\AppData\Local\Temp\cc2hhySa.s:19776  .debug_str:00000000000020a9 .LASF86
C:\Users\stapi\AppData\Local\Temp\cc2hhySa.s:19480  .debug_str:000000000000182d .LASF87
C:\Users\stapi\AppData\Local\Temp\cc2hhySa.s:19530  .debug_str:00000000000019ac .LASF88
C:\Users\stapi\AppData\Local\Temp\cc2hhySa.s:19628  .debug_str:0000000000001c31 .LASF89
C:\Users\stapi\AppData\Local\Temp\cc2hhySa.s:19496  .debug_str:00000000000018b9 .LASF90
C:\Users\stapi\AppData\Local\Temp\cc2hhySa.s:19066  .debug_str:0000000000000c2b .LASF91
C:\Users\stapi\AppData\Local\Temp\cc2hhySa.s:18996  .debug_str:00000000000009f4 .LASF92
C:\Users\stapi\AppData\Local\Temp\cc2hhySa.s:20400  .debug_str:00000000000034e5 .LASF93
C:\Users\stapi\AppData\Local\Temp\cc2hhySa.s:20478  .debug_str:0000000000003727 .LASF94
C:\Users\stapi\AppData\Local\Temp\cc2hhySa.s:19106  .debug_str:0000000000000d59 .LASF95
C:\Users\stapi\AppData\Local\Temp\cc2hhySa.s:20934  .debug_str:00000000000043d5 .LASF96
C:\Users\stapi\AppData\Local\Temp\cc2hhySa.s:19600  .debug_str:0000000000001b77 .LASF97
C:\Users\stapi\AppData\Local\Temp\cc2hhySa.s:21164  .debug_str:0000000000004a71 .LASF98
C:\Users\stapi\AppData\Local\Temp\cc2hhySa.s:18976  .debug_str:000000000000097b .LASF99
C:\Users\stapi\AppData\Local\Temp\cc2hhySa.s:19620  .debug_str:0000000000001c0c .LASF100
C:\Users\stapi\AppData\Local\Temp\cc2hhySa.s:19672  .debug_str:0000000000001d8d .LASF101
C:\Users\stapi\AppData\Local\Temp\cc2hhySa.s:18982  .debug_str:00000000000009a6 .LASF102
C:\Users\stapi\AppData\Local\Temp\cc2hhySa.s:21384  .debug_str:000000000000515f .LASF103
C:\Users\stapi\AppData\Local\Temp\cc2hhySa.s:19958  .debug_str:0000000000002664 .LASF104
C:\Users\stapi\AppData\Local\Temp\cc2hhySa.s:21150  .debug_str:0000000000004a1b .LASF105
C:\Users\stapi\AppData\Local\Temp\cc2hhySa.s:19362  .debug_str:00000000000014dc .LASF106
C:\Users\stapi\AppData\Local\Temp\cc2hhySa.s:21242  .debug_str:0000000000004ce2 .LASF107
C:\Users\stapi\AppData\Local\Temp\cc2hhySa.s:19742  .debug_str:0000000000001fa8 .LASF108
C:\Users\stapi\AppData\Local\Temp\cc2hhySa.s:20300  .debug_str:0000000000003182 .LASF109
C:\Users\stapi\AppData\Local\Temp\cc2hhySa.s:19810  .debug_str:00000000000021af .LASF110
C:\Users\stapi\AppData\Local\Temp\cc2hhySa.s:21138  .debug_str:00000000000049ba .LASF111
C:\Users\stapi\AppData\Local\Temp\cc2hhySa.s:20344  .debug_str:0000000000003317 .LASF112
C:\Users\stapi\AppData\Local\Temp\cc2hhySa.s:18876  .debug_str:00000000000006e7 .LASF113
C:\Users\stapi\AppData\Local\Temp\cc2hhySa.s:19946  .debug_str:00000000000025f7 .LASF114
C:\Users\stapi\AppData\Local\Temp\cc2hhySa.s:21464  .debug_str:00000000000053ba .LASF115
C:\Users\stapi\AppData\Local\Temp\cc2hhySa.s:20164  .debug_str:0000000000002c58 .LASF116
C:\Users\stapi\AppData\Local\Temp\cc2hhySa.s:19826  .debug_str:0000000000002234 .LASF117
C:\Users\stapi\AppData\Local\Temp\cc2hhySa.s:20904  .debug_str:00000000000042ec .LASF118
C:\Users\stapi\AppData\Local\Temp\cc2hhySa.s:19758  .debug_str:0000000000002017 .LASF119
C:\Users\stapi\AppData\Local\Temp\cc2hhySa.s:20968  .debug_str:00000000000044cd .LASF120
C:\Users\stapi\AppData\Local\Temp\cc2hhySa.s:19596  .debug_str:0000000000001b62 .LASF121
C:\Users\stapi\AppData\Local\Temp\cc2hhySa.s:20726  .debug_str:0000000000003dcf .LASF122
C:\Users\stapi\AppData\Local\Temp\cc2hhySa.s:20484  .debug_str:0000000000003758 .LASF123
C:\Users\stapi\AppData\Local\Temp\cc2hhySa.s:19602  .debug_str:0000000000001b80 .LASF124
C:\Users\stapi\AppData\Local\Temp\cc2hhySa.s:19096  .debug_str:0000000000000d11 .LASF125
C:\Users\stapi\AppData\Local\Temp\cc2hhySa.s:19166  .debug_str:0000000000000f29 .LASF126
C:\Users\stapi\AppData\Local\Temp\cc2hhySa.s:20746  .debug_str:0000000000003e49 .LASF127
C:\Users\stapi\AppData\Local\Temp\cc2hhySa.s:20532  .debug_str:000000000000387f .LASF128
C:\Users\stapi\AppData\Local\Temp\cc2hhySa.s:18740  .debug_str:0000000000000285 .LASF129
C:\Users\stapi\AppData\Local\Temp\cc2hhySa.s:19856  .debug_str:0000000000002338 .LASF130
C:\Users\stapi\AppData\Local\Temp\cc2hhySa.s:21298  .debug_str:0000000000004e7b .LASF131
C:\Users\stapi\AppData\Local\Temp\cc2hhySa.s:19036  .debug_str:0000000000000b28 .LASF132
C:\Users\stapi\AppData\Local\Temp\cc2hhySa.s:21212  .debug_str:0000000000004c03 .LASF133
C:\Users\stapi\AppData\Local\Temp\cc2hhySa.s:20798  .debug_str:0000000000003fe6 .LASF134
C:\Users\stapi\AppData\Local\Temp\cc2hhySa.s:19992  .debug_str:0000000000002750 .LASF135
C:\Users\stapi\AppData\Local\Temp\cc2hhySa.s:20876  .debug_str:000000000000421c .LASF136
C:\Users\stapi\AppData\Local\Temp\cc2hhySa.s:21158  .debug_str:0000000000004a51 .LASF137
C:\Users\stapi\AppData\Local\Temp\cc2hhySa.s:19174  .debug_str:0000000000000f66 .LASF138
C:\Users\stapi\AppData\Local\Temp\cc2hhySa.s:19448  .debug_str:0000000000001745 .LASF139
C:\Users\stapi\AppData\Local\Temp\cc2hhySa.s:18678  .debug_str:000000000000009b .LASF140
C:\Users\stapi\AppData\Local\Temp\cc2hhySa.s:18720  .debug_str:00000000000001e6 .LASF141
C:\Users\stapi\AppData\Local\Temp\cc2hhySa.s:18816  .debug_str:000000000000052a .LASF142
C:\Users\stapi\AppData\Local\Temp\cc2hhySa.s:20978  .debug_str:0000000000004502 .LASF143
C:\Users\stapi\AppData\Local\Temp\cc2hhySa.s:20582  .debug_str:00000000000039e2 .LASF144
C:\Users\stapi\AppData\Local\Temp\cc2hhySa.s:19890  .debug_str:0000000000002439 .LASF145
C:\Users\stapi\AppData\Local\Temp\cc2hhySa.s:21400  .debug_str:00000000000051e8 .LASF146
C:\Users\stapi\AppData\Local\Temp\cc2hhySa.s:20820  .debug_str:0000000000004084 .LASF147
C:\Users\stapi\AppData\Local\Temp\cc2hhySa.s:18746  .debug_str:0000000000000338 .LASF148
C:\Users\stapi\AppData\Local\Temp\cc2hhySa.s:20214  .debug_str:0000000000002df8 .LASF149
C:\Users\stapi\AppData\Local\Temp\cc2hhySa.s:20530  .debug_str:0000000000003879 .LASF150
C:\Users\stapi\AppData\Local\Temp\cc2hhySa.s:20192  .debug_str:0000000000002d4e .LASF151
C:\Users\stapi\AppData\Local\Temp\cc2hhySa.s:21466  .debug_str:00000000000053cc .LASF152
C:\Users\stapi\AppData\Local\Temp\cc2hhySa.s:21294  .debug_str:0000000000004e58 .LASF153
C:\Users\stapi\AppData\Local\Temp\cc2hhySa.s:19814  .debug_str:00000000000021d7 .LASF154
C:\Users\stapi\AppData\Local\Temp\cc2hhySa.s:18866  .debug_str:0000000000000699 .LASF155
C:\Users\stapi\AppData\Local\Temp\cc2hhySa.s:20212  .debug_str:0000000000002de6 .LASF156
C:\Users\stapi\AppData\Local\Temp\cc2hhySa.s:19458  .debug_str:0000000000001789 .LASF157
C:\Users\stapi\AppData\Local\Temp\cc2hhySa.s:20256  .debug_str:0000000000003014 .LASF158
C:\Users\stapi\AppData\Local\Temp\cc2hhySa.s:20258  .debug_str:0000000000003025 .LASF159
C:\Users\stapi\AppData\Local\Temp\cc2hhySa.s:19732  .debug_str:0000000000001f64 .LASF160
C:\Users\stapi\AppData\Local\Temp\cc2hhySa.s:21226  .debug_str:0000000000004c5d .LASF161
C:\Users\stapi\AppData\Local\Temp\cc2hhySa.s:21026  .debug_str:0000000000004679 .LASF162
C:\Users\stapi\AppData\Local\Temp\cc2hhySa.s:18750  .debug_str:0000000000000355 .LASF163
C:\Users\stapi\AppData\Local\Temp\cc2hhySa.s:21092  .debug_str:0000000000004887 .LASF164
C:\Users\stapi\AppData\Local\Temp\cc2hhySa.s:19502  .debug_str:00000000000018e2 .LASF165
C:\Users\stapi\AppData\Local\Temp\cc2hhySa.s:19434  .debug_str:00000000000016cb .LASF166
C:\Users\stapi\AppData\Local\Temp\cc2hhySa.s:19062  .debug_str:0000000000000c17 .LASF167
C:\Users\stapi\AppData\Local\Temp\cc2hhySa.s:21492  .debug_str:0000000000005499 .LASF168
C:\Users\stapi\AppData\Local\Temp\cc2hhySa.s:20500  .debug_str:00000000000037c0 .LASF169
C:\Users\stapi\AppData\Local\Temp\cc2hhySa.s:19740  .debug_str:0000000000001f97 .LASF170
C:\Users\stapi\AppData\Local\Temp\cc2hhySa.s:20714  .debug_str:0000000000003d77 .LASF171
C:\Users\stapi\AppData\Local\Temp\cc2hhySa.s:18902  .debug_str:00000000000007ad .LASF172
C:\Users\stapi\AppData\Local\Temp\cc2hhySa.s:18904  .debug_str:00000000000007b4 .LASF173
C:\Users\stapi\AppData\Local\Temp\cc2hhySa.s:19010  .debug_str:0000000000000a7b .LASF174
C:\Users\stapi\AppData\Local\Temp\cc2hhySa.s:18906  .debug_str:00000000000007bb .LASF175
C:\Users\stapi\AppData\Local\Temp\cc2hhySa.s:18908  .debug_str:00000000000007c2 .LASF176
C:\Users\stapi\AppData\Local\Temp\cc2hhySa.s:18910  .debug_str:00000000000007c9 .LASF177
C:\Users\stapi\AppData\Local\Temp\cc2hhySa.s:18912  .debug_str:00000000000007d0 .LASF178
C:\Users\stapi\AppData\Local\Temp\cc2hhySa.s:18914  .debug_str:00000000000007d7 .LASF179
C:\Users\stapi\AppData\Local\Temp\cc2hhySa.s:18916  .debug_str:00000000000007de .LASF180
C:\Users\stapi\AppData\Local\Temp\cc2hhySa.s:20008  .debug_str:00000000000027bb .LASF181
C:\Users\stapi\AppData\Local\Temp\cc2hhySa.s:19674  .debug_str:0000000000001d99 .LASF182
C:\Users\stapi\AppData\Local\Temp\cc2hhySa.s:21328  .debug_str:0000000000004fd3 .LASF183
C:\Users\stapi\AppData\Local\Temp\cc2hhySa.s:18960  .debug_str:0000000000000921 .LASF184
C:\Users\stapi\AppData\Local\Temp\cc2hhySa.s:20386  .debug_str:0000000000003472 .LASF185
C:\Users\stapi\AppData\Local\Temp\cc2hhySa.s:19206  .debug_str:0000000000001050 .LASF186
C:\Users\stapi\AppData\Local\Temp\cc2hhySa.s:21106  .debug_str:00000000000048d6 .LASF187
C:\Users\stapi\AppData\Local\Temp\cc2hhySa.s:19442  .debug_str:0000000000001723 .LASF188
C:\Users\stapi\AppData\Local\Temp\cc2hhySa.s:20206  .debug_str:0000000000002dc6 .LASF189
C:\Users\stapi\AppData\Local\Temp\cc2hhySa.s:20276  .debug_str:00000000000030d6 .LASF190
C:\Users\stapi\AppData\Local\Temp\cc2hhySa.s:19300  .debug_str:000000000000130c .LASF191
C:\Users\stapi\AppData\Local\Temp\cc2hhySa.s:19778  .debug_str:00000000000020bc .LASF192
C:\Users\stapi\AppData\Local\Temp\cc2hhySa.s:21350  .debug_str:0000000000005067 .LASF193
C:\Users\stapi\AppData\Local\Temp\cc2hhySa.s:20362  .debug_str:00000000000033b7 .LASF194
C:\Users\stapi\AppData\Local\Temp\cc2hhySa.s:18844  .debug_str:000000000000060c .LASF195
C:\Users\stapi\AppData\Local\Temp\cc2hhySa.s:18970  .debug_str:000000000000095c .LASF196
C:\Users\stapi\AppData\Local\Temp\cc2hhySa.s:19098  .debug_str:0000000000000d2b .LASF197
C:\Users\stapi\AppData\Local\Temp\cc2hhySa.s:19226  .debug_str:00000000000010dc .LASF198
C:\Users\stapi\AppData\Local\Temp\cc2hhySa.s:21378  .debug_str:000000000000512c .LASF199
C:\Users\stapi\AppData\Local\Temp\cc2hhySa.s:18780  .debug_str:0000000000000422 .LASF200
C:\Users\stapi\AppData\Local\Temp\cc2hhySa.s:21012  .debug_str:000000000000460e .LASF201
C:\Users\stapi\AppData\Local\Temp\cc2hhySa.s:21368  .debug_str:00000000000050ed .LASF202
C:\Users\stapi\AppData\Local\Temp\cc2hhySa.s:19648  .debug_str:0000000000001ccd .LASF203
C:\Users\stapi\AppData\Local\Temp\cc2hhySa.s:19542  .debug_str:00000000000019ff .LASF204
C:\Users\stapi\AppData\Local\Temp\cc2hhySa.s:18772  .debug_str:00000000000003ee .LASF205
C:\Users\stapi\AppData\Local\Temp\cc2hhySa.s:21420  .debug_str:000000000000528f .LASF206
C:\Users\stapi\AppData\Local\Temp\cc2hhySa.s:19298  .debug_str:00000000000012fe .LASF207
C:\Users\stapi\AppData\Local\Temp\cc2hhySa.s:21284  .debug_str:0000000000004e1b .LASF208
C:\Users\stapi\AppData\Local\Temp\cc2hhySa.s:18682  .debug_str:00000000000000b8 .LASF209
C:\Users\stapi\AppData\Local\Temp\cc2hhySa.s:19478  .debug_str:0000000000001820 .LASF210
C:\Users\stapi\AppData\Local\Temp\cc2hhySa.s:19158  .debug_str:0000000000000ef3 .LASF211
C:\Users\stapi\AppData\Local\Temp\cc2hhySa.s:19658  .debug_str:0000000000001d1a .LASF212
C:\Users\stapi\AppData\Local\Temp\cc2hhySa.s:20856  .debug_str:000000000000416b .LASF213
C:\Users\stapi\AppData\Local\Temp\cc2hhySa.s:18658  .debug_str:0000000000000000 .LASF214
C:\Users\stapi\AppData\Local\Temp\cc2hhySa.s:21442  .debug_str:0000000000005337 .LASF215
C:\Users\stapi\AppData\Local\Temp\cc2hhySa.s:18708  .debug_str:000000000000018c .LASF216
C:\Users\stapi\AppData\Local\Temp\cc2hhySa.s:21248  .debug_str:0000000000004d1f .LASF217
C:\Users\stapi\AppData\Local\Temp\cc2hhySa.s:19622  .debug_str:0000000000001c18 .LASF218
C:\Users\stapi\AppData\Local\Temp\cc2hhySa.s:19906  .debug_str:00000000000024c5 .LASF219
C:\Users\stapi\AppData\Local\Temp\cc2hhySa.s:19110  .debug_str:0000000000000d7e .LASF220
C:\Users\stapi\AppData\Local\Temp\cc2hhySa.s:20216  .debug_str:0000000000002e13 .LASF221
C:\Users\stapi\AppData\Local\Temp\cc2hhySa.s:19338  .debug_str:0000000000001440 .LASF222
C:\Users\stapi\AppData\Local\Temp\cc2hhySa.s:21398  .debug_str:00000000000051db .LASF223
C:\Users\stapi\AppData\Local\Temp\cc2hhySa.s:20702  .debug_str:0000000000003d26 .LASF224
C:\Users\stapi\AppData\Local\Temp\cc2hhySa.s:19312  .debug_str:0000000000001355 .LASF225
C:\Users\stapi\AppData\Local\Temp\cc2hhySa.s:21062  .debug_str:00000000000047ac .LASF226
C:\Users\stapi\AppData\Local\Temp\cc2hhySa.s:21396  .debug_str:00000000000051cf .LASF227
C:\Users\stapi\AppData\Local\Temp\cc2hhySa.s:21220  .debug_str:0000000000004c2f .LASF228
C:\Users\stapi\AppData\Local\Temp\cc2hhySa.s:20368  .debug_str:00000000000033de .LASF229
C:\Users\stapi\AppData\Local\Temp\cc2hhySa.s:20794  .debug_str:0000000000003fd0 .LASF230
C:\Users\stapi\AppData\Local\Temp\cc2hhySa.s:20694  .debug_str:0000000000003cf4 .LASF231
C:\Users\stapi\AppData\Local\Temp\cc2hhySa.s:20558  .debug_str:0000000000003929 .LASF232
C:\Users\stapi\AppData\Local\Temp\cc2hhySa.s:19616  .debug_str:0000000000001bf3 .LASF233
C:\Users\stapi\AppData\Local\Temp\cc2hhySa.s:19340  .debug_str:000000000000144d .LASF234
C:\Users\stapi\AppData\Local\Temp\cc2hhySa.s:19710  .debug_str:0000000000001ec2 .LASF235
C:\Users\stapi\AppData\Local\Temp\cc2hhySa.s:20732  .debug_str:0000000000003def .LASF236
C:\Users\stapi\AppData\Local\Temp\cc2hhySa.s:21184  .debug_str:0000000000004b17 .LASF237
C:\Users\stapi\AppData\Local\Temp\cc2hhySa.s:20524  .debug_str:0000000000003851 .LASF238
C:\Users\stapi\AppData\Local\Temp\cc2hhySa.s:19094  .debug_str:0000000000000d00 .LASF239
C:\Users\stapi\AppData\Local\Temp\cc2hhySa.s:19976  .debug_str:00000000000026e7 .LASF240
C:\Users\stapi\AppData\Local\Temp\cc2hhySa.s:19700  .debug_str:0000000000001e63 .LASF241
C:\Users\stapi\AppData\Local\Temp\cc2hhySa.s:21014  .debug_str:000000000000461b .LASF242
C:\Users\stapi\AppData\Local\Temp\cc2hhySa.s:20528  .debug_str:000000000000386a .LASF243
C:\Users\stapi\AppData\Local\Temp\cc2hhySa.s:20138  .debug_str:0000000000002bb8 .LASF244
C:\Users\stapi\AppData\Local\Temp\cc2hhySa.s:19462  .debug_str:00000000000017ac .LASF245
C:\Users\stapi\AppData\Local\Temp\cc2hhySa.s:19640  .debug_str:0000000000001c78 .LASF246
C:\Users\stapi\AppData\Local\Temp\cc2hhySa.s:19444  .debug_str:000000000000172d .LASF247
C:\Users\stapi\AppData\Local\Temp\cc2hhySa.s:20080  .debug_str:00000000000029dc .LASF248
C:\Users\stapi\AppData\Local\Temp\cc2hhySa.s:20872  .debug_str:00000000000041f8 .LASF249
C:\Users\stapi\AppData\Local\Temp\cc2hhySa.s:21490  .debug_str:0000000000005486 .LASF250
C:\Users\stapi\AppData\Local\Temp\cc2hhySa.s:20408  .debug_str:0000000000003514 .LASF251
C:\Users\stapi\AppData\Local\Temp\cc2hhySa.s:19264  .debug_str:00000000000011eb .LASF252
C:\Users\stapi\AppData\Local\Temp\cc2hhySa.s:18692  .debug_str:00000000000000fe .LASF253
C:\Users\stapi\AppData\Local\Temp\cc2hhySa.s:20296  .debug_str:000000000000315f .LASF254
C:\Users\stapi\AppData\Local\Temp\cc2hhySa.s:21434  .debug_str:00000000000052fb .LASF255
C:\Users\stapi\AppData\Local\Temp\cc2hhySa.s:20302  .debug_str:000000000000319c .LASF256
C:\Users\stapi\AppData\Local\Temp\cc2hhySa.s:18734  .debug_str:0000000000000251 .LASF257
C:\Users\stapi\AppData\Local\Temp\cc2hhySa.s:19646  .debug_str:0000000000001cac .LASF258
C:\Users\stapi\AppData\Local\Temp\cc2hhySa.s:20412  .debug_str:0000000000003539 .LASF259
C:\Users\stapi\AppData\Local\Temp\cc2hhySa.s:18722  .debug_str:00000000000001f7 .LASF260
C:\Users\stapi\AppData\Local\Temp\cc2hhySa.s:20668  .debug_str:0000000000003c52 .LASF261
C:\Users\stapi\AppData\Local\Temp\cc2hhySa.s:20066  .debug_str:0000000000002951 .LASF262
C:\Users\stapi\AppData\Local\Temp\cc2hhySa.s:20084  .debug_str:0000000000002a02 .LASF263
C:\Users\stapi\AppData\Local\Temp\cc2hhySa.s:18738  .debug_str:0000000000000273 .LASF264
C:\Users\stapi\AppData\Local\Temp\cc2hhySa.s:19446  .debug_str:000000000000173c .LASF265
C:\Users\stapi\AppData\Local\Temp\cc2hhySa.s:18986  .debug_str:00000000000009c4 .LASF266
C:\Users\stapi\AppData\Local\Temp\cc2hhySa.s:21340  .debug_str:000000000000502e .LASF267
C:\Users\stapi\AppData\Local\Temp\cc2hhySa.s:21172  .debug_str:0000000000004aad .LASF268
C:\Users\stapi\AppData\Local\Temp\cc2hhySa.s:20940  .debug_str:00000000000043fa .LASF269
C:\Users\stapi\AppData\Local\Temp\cc2hhySa.s:19258  .debug_str:00000000000011c2 .LASF270
C:\Users\stapi\AppData\Local\Temp\cc2hhySa.s:18784  .debug_str:0000000000000446 .LASF271
C:\Users\stapi\AppData\Local\Temp\cc2hhySa.s:19122  .debug_str:0000000000000dd1 .LASF272
C:\Users\stapi\AppData\Local\Temp\cc2hhySa.s:20922  .debug_str:0000000000004360 .LASF273
C:\Users\stapi\AppData\Local\Temp\cc2hhySa.s:20586  .debug_str:0000000000003a06 .LASF274
C:\Users\stapi\AppData\Local\Temp\cc2hhySa.s:20158  .debug_str:0000000000002c2d .LASF275
C:\Users\stapi\AppData\Local\Temp\cc2hhySa.s:20142  .debug_str:0000000000002bd4 .LASF276
C:\Users\stapi\AppData\Local\Temp\cc2hhySa.s:19028  .debug_str:0000000000000ae9 .LASF277
C:\Users\stapi\AppData\Local\Temp\cc2hhySa.s:21054  .debug_str:0000000000004765 .LASF278
C:\Users\stapi\AppData\Local\Temp\cc2hhySa.s:21418  .debug_str:0000000000005283 .LASF279
C:\Users\stapi\AppData\Local\Temp\cc2hhySa.s:20120  .debug_str:0000000000002b0e .LASF280
C:\Users\stapi\AppData\Local\Temp\cc2hhySa.s:19950  .debug_str:000000000000261e .LASF281
C:\Users\stapi\AppData\Local\Temp\cc2hhySa.s:19772  .debug_str:000000000000209c .LASF282
C:\Users\stapi\AppData\Local\Temp\cc2hhySa.s:20398  .debug_str:00000000000034cc .LASF283
C:\Users\stapi\AppData\Local\Temp\cc2hhySa.s:20330  .debug_str:000000000000328d .LASF284
C:\Users\stapi\AppData\Local\Temp\cc2hhySa.s:19034  .debug_str:0000000000000b0e .LASF285
C:\Users\stapi\AppData\Local\Temp\cc2hhySa.s:19046  .debug_str:0000000000000b77 .LASF286
C:\Users\stapi\AppData\Local\Temp\cc2hhySa.s:20986  .debug_str:0000000000004553 .LASF287
C:\Users\stapi\AppData\Local\Temp\cc2hhySa.s:21372  .debug_str:0000000000005103 .LASF288
C:\Users\stapi\AppData\Local\Temp\cc2hhySa.s:20656  .debug_str:0000000000003bfc .LASF289
C:\Users\stapi\AppData\Local\Temp\cc2hhySa.s:21088  .debug_str:0000000000004865 .LASF1420
C:\Users\stapi\AppData\Local\Temp\cc2hhySa.s:19400  .debug_str:0000000000001606 .LASF290
C:\Users\stapi\AppData\Local\Temp\cc2hhySa.s:19508  .debug_str:0000000000001911 .LASF291
C:\Users\stapi\AppData\Local\Temp\cc2hhySa.s:19716  .debug_str:0000000000001eee .LASF292
C:\Users\stapi\AppData\Local\Temp\cc2hhySa.s:19394  .debug_str:00000000000015d8 .LASF293
C:\Users\stapi\AppData\Local\Temp\cc2hhySa.s:19780  .debug_str:00000000000020c5 .LASF294
C:\Users\stapi\AppData\Local\Temp\cc2hhySa.s:19430  .debug_str:00000000000016b9 .LASF295
C:\Users\stapi\AppData\Local\Temp\cc2hhySa.s:20148  .debug_str:0000000000002bf8 .LASF296
C:\Users\stapi\AppData\Local\Temp\cc2hhySa.s:21462  .debug_str:00000000000053ac .LASF297
C:\Users\stapi\AppData\Local\Temp\cc2hhySa.s:19190  .debug_str:0000000000000fdf .LASF298
C:\Users\stapi\AppData\Local\Temp\cc2hhySa.s:20010  .debug_str:00000000000027c7 .LASF299
C:\Users\stapi\AppData\Local\Temp\cc2hhySa.s:18764  .debug_str:00000000000003bd .LASF300
C:\Users\stapi\AppData\Local\Temp\cc2hhySa.s:18834  .debug_str:00000000000005c4 .LASF301
C:\Users\stapi\AppData\Local\Temp\cc2hhySa.s:20640  .debug_str:0000000000003b94 .LASF302
C:\Users\stapi\AppData\Local\Temp\cc2hhySa.s:19678  .debug_str:0000000000001db5 .LASF303
C:\Users\stapi\AppData\Local\Temp\cc2hhySa.s:19960  .debug_str:0000000000002671 .LASF304
C:\Users\stapi\AppData\Local\Temp\cc2hhySa.s:19320  .debug_str:0000000000001390 .LASF305
C:\Users\stapi\AppData\Local\Temp\cc2hhySa.s:20064  .debug_str:0000000000002949 .LASF306
C:\Users\stapi\AppData\Local\Temp\cc2hhySa.s:21068  .debug_str:00000000000047d5 .LASF307
C:\Users\stapi\AppData\Local\Temp\cc2hhySa.s:19948  .debug_str:000000000000260b .LASF308
C:\Users\stapi\AppData\Local\Temp\cc2hhySa.s:18940  .debug_str:000000000000087a .LASF309
C:\Users\stapi\AppData\Local\Temp\cc2hhySa.s:19884  .debug_str:00000000000023fd .LASF310
C:\Users\stapi\AppData\Local\Temp\cc2hhySa.s:18888  .debug_str:000000000000073b .LASF311
C:\Users\stapi\AppData\Local\Temp\cc2hhySa.s:18776  .debug_str:0000000000000402 .LASF312
C:\Users\stapi\AppData\Local\Temp\cc2hhySa.s:18676  .debug_str:0000000000000091 .LASF313
C:\Users\stapi\AppData\Local\Temp\cc2hhySa.s:21476  .debug_str:000000000000541b .LASF314
C:\Users\stapi\AppData\Local\Temp\cc2hhySa.s:21250  .debug_str:0000000000004d29 .LASF315
C:\Users\stapi\AppData\Local\Temp\cc2hhySa.s:21370  .debug_str:00000000000050fa .LASF316
C:\Users\stapi\AppData\Local\Temp\cc2hhySa.s:19500  .debug_str:00000000000018d8 .LASF317
C:\Users\stapi\AppData\Local\Temp\cc2hhySa.s:19644  .debug_str:0000000000001c99 .LASF318
C:\Users\stapi\AppData\Local\Temp\cc2hhySa.s:21364  .debug_str:00000000000050cc .LASF319
C:\Users\stapi\AppData\Local\Temp\cc2hhySa.s:20670  .debug_str:0000000000003c63 .LASF320
C:\Users\stapi\AppData\Local\Temp\cc2hhySa.s:20804  .debug_str:0000000000004007 .LASF321
C:\Users\stapi\AppData\Local\Temp\cc2hhySa.s:20836  .debug_str:00000000000040fd .LASF322
C:\Users\stapi\AppData\Local\Temp\cc2hhySa.s:21210  .debug_str:0000000000004bf4 .LASF323
C:\Users\stapi\AppData\Local\Temp\cc2hhySa.s:18710  .debug_str:0000000000000197 .LASF324
C:\Users\stapi\AppData\Local\Temp\cc2hhySa.s:19420  .debug_str:0000000000001677 .LASF325
C:\Users\stapi\AppData\Local\Temp\cc2hhySa.s:20392  .debug_str:00000000000034a0 .LASF326
C:\Users\stapi\AppData\Local\Temp\cc2hhySa.s:20548  .debug_str:00000000000038ed .LASF327
C:\Users\stapi\AppData\Local\Temp\cc2hhySa.s:20618  .debug_str:0000000000003aea .LASF328
C:\Users\stapi\AppData\Local\Temp\cc2hhySa.s:19012  .debug_str:0000000000000a83 .LASF329
C:\Users\stapi\AppData\Local\Temp\cc2hhySa.s:20844  .debug_str:0000000000004126 .LASF330
C:\Users\stapi\AppData\Local\Temp\cc2hhySa.s:21218  .debug_str:0000000000004c22 .LASF331
C:\Users\stapi\AppData\Local\Temp\cc2hhySa.s:20520  .debug_str:0000000000003837 .LASF332
C:\Users\stapi\AppData\Local\Temp\cc2hhySa.s:19348  .debug_str:0000000000001478 .LASF333
C:\Users\stapi\AppData\Local\Temp\cc2hhySa.s:19836  .debug_str:000000000000228b .LASF334
C:\Users\stapi\AppData\Local\Temp\cc2hhySa.s:21072  .debug_str:00000000000047fb .LASF335
C:\Users\stapi\AppData\Local\Temp\cc2hhySa.s:20110  .debug_str:0000000000002ad1 .LASF336
C:\Users\stapi\AppData\Local\Temp\cc2hhySa.s:20208  .debug_str:0000000000002dd0 .LASF337
C:\Users\stapi\AppData\Local\Temp\cc2hhySa.s:20970  .debug_str:00000000000044d5 .LASF338
C:\Users\stapi\AppData\Local\Temp\cc2hhySa.s:18990  .debug_str:00000000000009db .LASF339
C:\Users\stapi\AppData\Local\Temp\cc2hhySa.s:19882  .debug_str:00000000000023ec .LASF340
C:\Users\stapi\AppData\Local\Temp\cc2hhySa.s:20074  .debug_str:00000000000029aa .LASF341
C:\Users\stapi\AppData\Local\Temp\cc2hhySa.s:19534  .debug_str:00000000000019d0 .LASF342
C:\Users\stapi\AppData\Local\Temp\cc2hhySa.s:19774  .debug_str:00000000000020a1 .LASF343
C:\Users\stapi\AppData\Local\Temp\cc2hhySa.s:18846  .debug_str:000000000000061c .LASF344
C:\Users\stapi\AppData\Local\Temp\cc2hhySa.s:19276  .debug_str:0000000000001249 .LASF345
C:\Users\stapi\AppData\Local\Temp\cc2hhySa.s:20432  .debug_str:00000000000035cf .LASF346
C:\Users\stapi\AppData\Local\Temp\cc2hhySa.s:18794  .debug_str:0000000000000485 .LASF347
C:\Users\stapi\AppData\Local\Temp\cc2hhySa.s:20890  .debug_str:000000000000428a .LASF348
C:\Users\stapi\AppData\Local\Temp\cc2hhySa.s:20710  .debug_str:0000000000003d59 .LASF349
C:\Users\stapi\AppData\Local\Temp\cc2hhySa.s:20136  .debug_str:0000000000002ba8 .LASF350
C:\Users\stapi\AppData\Local\Temp\cc2hhySa.s:21494  .debug_str:00000000000054a6 .LASF351
C:\Users\stapi\AppData\Local\Temp\cc2hhySa.s:21004  .debug_str:00000000000045c8 .LASF352
C:\Users\stapi\AppData\Local\Temp\cc2hhySa.s:19638  .debug_str:0000000000001c71 .LASF353
C:\Users\stapi\AppData\Local\Temp\cc2hhySa.s:18798  .debug_str:00000000000004a0 .LASF354
C:\Users\stapi\AppData\Local\Temp\cc2hhySa.s:19966  .debug_str:0000000000002696 .LASF355
C:\Users\stapi\AppData\Local\Temp\cc2hhySa.s:19102  .debug_str:0000000000000d3d .LASF356
C:\Users\stapi\AppData\Local\Temp\cc2hhySa.s:19460  .debug_str:0000000000001798 .LASF357
C:\Users\stapi\AppData\Local\Temp\cc2hhySa.s:20932  .debug_str:00000000000043ba .LASF358
C:\Users\stapi\AppData\Local\Temp\cc2hhySa.s:19786  .debug_str:00000000000020f5 .LASF359
C:\Users\stapi\AppData\Local\Temp\cc2hhySa.s:20404  .debug_str:0000000000003500 .LASF360
C:\Users\stapi\AppData\Local\Temp\cc2hhySa.s:20536  .debug_str:000000000000389c .LASF361
C:\Users\stapi\AppData\Local\Temp\cc2hhySa.s:18800  .debug_str:00000000000004aa .LASF362
C:\Users\stapi\AppData\Local\Temp\cc2hhySa.s:19988  .debug_str:0000000000002736 .LASF363
C:\Users\stapi\AppData\Local\Temp\cc2hhySa.s:21126  .debug_str:000000000000497e .LASF364
C:\Users\stapi\AppData\Local\Temp\cc2hhySa.s:19860  .debug_str:000000000000235a .LASF365
C:\Users\stapi\AppData\Local\Temp\cc2hhySa.s:21196  .debug_str:0000000000004b87 .LASF366
C:\Users\stapi\AppData\Local\Temp\cc2hhySa.s:19788  .debug_str:0000000000002109 .LASF367
C:\Users\stapi\AppData\Local\Temp\cc2hhySa.s:20294  .debug_str:0000000000003155 .LASF368
C:\Users\stapi\AppData\Local\Temp\cc2hhySa.s:20554  .debug_str:0000000000003912 .LASF369
C:\Users\stapi\AppData\Local\Temp\cc2hhySa.s:20024  .debug_str:000000000000282b .LASF370
C:\Users\stapi\AppData\Local\Temp\cc2hhySa.s:18706  .debug_str:0000000000000175 .LASF371
C:\Users\stapi\AppData\Local\Temp\cc2hhySa.s:20156  .debug_str:0000000000002c24 .LASF372
C:\Users\stapi\AppData\Local\Temp\cc2hhySa.s:19178  .debug_str:0000000000000f85 .LASF373
C:\Users\stapi\AppData\Local\Temp\cc2hhySa.s:20660  .debug_str:0000000000003c15 .LASF374
C:\Users\stapi\AppData\Local\Temp\cc2hhySa.s:19612  .debug_str:0000000000001bd5 .LASF375
C:\Users\stapi\AppData\Local\Temp\cc2hhySa.s:18688  .debug_str:00000000000000e3 .LASF376
C:\Users\stapi\AppData\Local\Temp\cc2hhySa.s:20564  .debug_str:0000000000003954 .LASF377
C:\Users\stapi\AppData\Local\Temp\cc2hhySa.s:19042  .debug_str:0000000000000b5d .LASF378
C:\Users\stapi\AppData\Local\Temp\cc2hhySa.s:20518  .debug_str:0000000000003830 .LASF379
C:\Users\stapi\AppData\Local\Temp\cc2hhySa.s:19934  .debug_str:00000000000025af .LASF380
C:\Users\stapi\AppData\Local\Temp\cc2hhySa.s:19278  .debug_str:0000000000001256 .LASF381
C:\Users\stapi\AppData\Local\Temp\cc2hhySa.s:19108  .debug_str:0000000000000d69 .LASF382
C:\Users\stapi\AppData\Local\Temp\cc2hhySa.s:19572  .debug_str:0000000000001aba .LASF383
C:\Users\stapi\AppData\Local\Temp\cc2hhySa.s:18944  .debug_str:00000000000008a2 .LASF384
C:\Users\stapi\AppData\Local\Temp\cc2hhySa.s:21394  .debug_str:00000000000051bb .LASF385
C:\Users\stapi\AppData\Local\Temp\cc2hhySa.s:19128  .debug_str:0000000000000e15 .LASF386
C:\Users\stapi\AppData\Local\Temp\cc2hhySa.s:18836  .debug_str:00000000000005cd .LASF387
C:\Users\stapi\AppData\Local\Temp\cc2hhySa.s:21460  .debug_str:00000000000053a6 .LASF388
C:\Users\stapi\AppData\Local\Temp\cc2hhySa.s:20950  .debug_str:000000000000444f .LASF389
C:\Users\stapi\AppData\Local\Temp\cc2hhySa.s:18774  .debug_str:00000000000003f7 .LASF390
C:\Users\stapi\AppData\Local\Temp\cc2hhySa.s:20042  .debug_str:00000000000028a5 .LASF391
C:\Users\stapi\AppData\Local\Temp\cc2hhySa.s:18956  .debug_str:0000000000000900 .LASF392
C:\Users\stapi\AppData\Local\Temp\cc2hhySa.s:20322  .debug_str:0000000000003251 .LASF393
C:\Users\stapi\AppData\Local\Temp\cc2hhySa.s:20722  .debug_str:0000000000003dbb .LASF394
C:\Users\stapi\AppData\Local\Temp\cc2hhySa.s:19048  .debug_str:0000000000000b9b .LASF395
C:\Users\stapi\AppData\Local\Temp\cc2hhySa.s:19260  .debug_str:00000000000011d1 .LASF396
C:\Users\stapi\AppData\Local\Temp\cc2hhySa.s:21040  .debug_str:00000000000046d6 .LASF397
C:\Users\stapi\AppData\Local\Temp\cc2hhySa.s:19490  .debug_str:0000000000001884 .LASF398
C:\Users\stapi\AppData\Local\Temp\cc2hhySa.s:18878  .debug_str:00000000000006fe .LASF399
C:\Users\stapi\AppData\Local\Temp\cc2hhySa.s:20596  .debug_str:0000000000003a5a .LASF400
C:\Users\stapi\AppData\Local\Temp\cc2hhySa.s:19866  .debug_str:0000000000002379 .LASF401
C:\Users\stapi\AppData\Local\Temp\cc2hhySa.s:21094  .debug_str:0000000000004892 .LASF402
C:\Users\stapi\AppData\Local\Temp\cc2hhySa.s:19830  .debug_str:0000000000002262 .LASF403
C:\Users\stapi\AppData\Local\Temp\cc2hhySa.s:19846  .debug_str:00000000000022ec .LASF404
C:\Users\stapi\AppData\Local\Temp\cc2hhySa.s:20092  .debug_str:0000000000002a44 .LASF405
C:\Users\stapi\AppData\Local\Temp\cc2hhySa.s:20744  .debug_str:0000000000003e3a .LASF406
C:\Users\stapi\AppData\Local\Temp\cc2hhySa.s:20974  .debug_str:00000000000044e1 .LASF407
C:\Users\stapi\AppData\Local\Temp\cc2hhySa.s:21070  .debug_str:00000000000047ec .LASF408
C:\Users\stapi\AppData\Local\Temp\cc2hhySa.s:19116  .debug_str:0000000000000db2 .LASF409
C:\Users\stapi\AppData\Local\Temp\cc2hhySa.s:19532  .debug_str:00000000000019ba .LASF410
C:\Users\stapi\AppData\Local\Temp\cc2hhySa.s:19374  .debug_str:0000000000001542 .LASF411
C:\Users\stapi\AppData\Local\Temp\cc2hhySa.s:21352  .debug_str:0000000000005071 .LASF412
C:\Users\stapi\AppData\Local\Temp\cc2hhySa.s:19008  .debug_str:0000000000000a66 .LASF413
C:\Users\stapi\AppData\Local\Temp\cc2hhySa.s:20306  .debug_str:00000000000031cf .LASF414
C:\Users\stapi\AppData\Local\Temp\cc2hhySa.s:19998  .debug_str:0000000000002775 .LASF415
C:\Users\stapi\AppData\Local\Temp\cc2hhySa.s:18754  .debug_str:0000000000000364 .LASF416
C:\Users\stapi\AppData\Local\Temp\cc2hhySa.s:19330  .debug_str:00000000000013e2 .LASF417
C:\Users\stapi\AppData\Local\Temp\cc2hhySa.s:21050  .debug_str:000000000000472d .LASF418
C:\Users\stapi\AppData\Local\Temp\cc2hhySa.s:21064  .debug_str:00000000000047b4 .LASF419
C:\Users\stapi\AppData\Local\Temp\cc2hhySa.s:19296  .debug_str:00000000000012e5 .LASF420
C:\Users\stapi\AppData\Local\Temp\cc2hhySa.s:18660  .debug_str:0000000000000005 .LASF421
C:\Users\stapi\AppData\Local\Temp\cc2hhySa.s:19802  .debug_str:0000000000002162 .LASF422
C:\Users\stapi\AppData\Local\Temp\cc2hhySa.s:18864  .debug_str:0000000000000685 .LASF423
C:\Users\stapi\AppData\Local\Temp\cc2hhySa.s:19528  .debug_str:0000000000001991 .LASF424
C:\Users\stapi\AppData\Local\Temp\cc2hhySa.s:20040  .debug_str:0000000000002893 .LASF425
C:\Users\stapi\AppData\Local\Temp\cc2hhySa.s:21230  .debug_str:0000000000004c7c .LASF426
C:\Users\stapi\AppData\Local\Temp\cc2hhySa.s:19078  .debug_str:0000000000000c79 .LASF427
C:\Users\stapi\AppData\Local\Temp\cc2hhySa.s:20792  .debug_str:0000000000003fc5 .LASF428
C:\Users\stapi\AppData\Local\Temp\cc2hhySa.s:21416  .debug_str:0000000000005274 .LASF429
C:\Users\stapi\AppData\Local\Temp\cc2hhySa.s:20032  .debug_str:0000000000002860 .LASF430
C:\Users\stapi\AppData\Local\Temp\cc2hhySa.s:19764  .debug_str:000000000000204f .LASF431
C:\Users\stapi\AppData\Local\Temp\cc2hhySa.s:21292  .debug_str:0000000000004e50 .LASF432
C:\Users\stapi\AppData\Local\Temp\cc2hhySa.s:20502  .debug_str:00000000000037cb .LASF433
C:\Users\stapi\AppData\Local\Temp\cc2hhySa.s:19676  .debug_str:0000000000001da6 .LASF434
C:\Users\stapi\AppData\Local\Temp\cc2hhySa.s:19868  .debug_str:0000000000002384 .LASF435
C:\Users\stapi\AppData\Local\Temp\cc2hhySa.s:19746  .debug_str:0000000000001fc0 .LASF436
C:\Users\stapi\AppData\Local\Temp\cc2hhySa.s:19118  .debug_str:0000000000000db9 .LASF437
C:\Users\stapi\AppData\Local\Temp\cc2hhySa.s:21104  .debug_str:00000000000048cb .LASF438
C:\Users\stapi\AppData\Local\Temp\cc2hhySa.s:18898  .debug_str:000000000000078b .LASF439
C:\Users\stapi\AppData\Local\Temp\cc2hhySa.s:21036  .debug_str:00000000000046bf .LASF440
C:\Users\stapi\AppData\Local\Temp\cc2hhySa.s:19390  .debug_str:00000000000015a6 .LASF441
C:\Users\stapi\AppData\Local\Temp\cc2hhySa.s:19126  .debug_str:0000000000000df8 .LASF442
C:\Users\stapi\AppData\Local\Temp\cc2hhySa.s:21422  .debug_str:000000000000529e .LASF443
C:\Users\stapi\AppData\Local\Temp\cc2hhySa.s:19026  .debug_str:0000000000000adc .LASF444
C:\Users\stapi\AppData\Local\Temp\cc2hhySa.s:19068  .debug_str:0000000000000c3a .LASF445
C:\Users\stapi\AppData\Local\Temp\cc2hhySa.s:18752  .debug_str:000000000000035a .LASF446
C:\Users\stapi\AppData\Local\Temp\cc2hhySa.s:20762  .debug_str:0000000000003ebe .LASF447
C:\Users\stapi\AppData\Local\Temp\cc2hhySa.s:19306  .debug_str:0000000000001325 .LASF448
C:\Users\stapi\AppData\Local\Temp\cc2hhySa.s:20568  .debug_str:000000000000396f .LASF449
C:\Users\stapi\AppData\Local\Temp\cc2hhySa.s:21404  .debug_str:0000000000005204 .LASF450
C:\Users\stapi\AppData\Local\Temp\cc2hhySa.s:20188  .debug_str:0000000000002d38 .LASF451
C:\Users\stapi\AppData\Local\Temp\cc2hhySa.s:19282  .debug_str:0000000000001277 .LASF452
C:\Users\stapi\AppData\Local\Temp\cc2hhySa.s:18890  .debug_str:0000000000000748 .LASF453
C:\Users\stapi\AppData\Local\Temp\cc2hhySa.s:19124  .debug_str:0000000000000dde .LASF454
C:\Users\stapi\AppData\Local\Temp\cc2hhySa.s:20172  .debug_str:0000000000002ca0 .LASF455
C:\Users\stapi\AppData\Local\Temp\cc2hhySa.s:20682  .debug_str:0000000000003c96 .LASF456
C:\Users\stapi\AppData\Local\Temp\cc2hhySa.s:21456  .debug_str:000000000000538e .LASF457
C:\Users\stapi\AppData\Local\Temp\cc2hhySa.s:20638  .debug_str:0000000000003b7d .LASF458
C:\Users\stapi\AppData\Local\Temp\cc2hhySa.s:20170  .debug_str:0000000000002c91 .LASF459
C:\Users\stapi\AppData\Local\Temp\cc2hhySa.s:20202  .debug_str:0000000000002da7 .LASF460
C:\Users\stapi\AppData\Local\Temp\cc2hhySa.s:20944  .debug_str:0000000000004426 .LASF461
C:\Users\stapi\AppData\Local\Temp\cc2hhySa.s:20898  .debug_str:00000000000042ba .LASF462
C:\Users\stapi\AppData\Local\Temp\cc2hhySa.s:21156  .debug_str:0000000000004a45 .LASF463
C:\Users\stapi\AppData\Local\Temp\cc2hhySa.s:20468  .debug_str:00000000000036ef .LASF464
C:\Users\stapi\AppData\Local\Temp\cc2hhySa.s:19308  .debug_str:0000000000001339 .LASF465
C:\Users\stapi\AppData\Local\Temp\cc2hhySa.s:19342  .debug_str:0000000000001456 .LASF466
C:\Users\stapi\AppData\Local\Temp\cc2hhySa.s:20004  .debug_str:00000000000027a1 .LASF467
C:\Users\stapi\AppData\Local\Temp\cc2hhySa.s:21234  .debug_str:0000000000004c9f .LASF468
C:\Users\stapi\AppData\Local\Temp\cc2hhySa.s:20132  .debug_str:0000000000002b7b .LASF469
C:\Users\stapi\AppData\Local\Temp\cc2hhySa.s:21402  .debug_str:00000000000051fa .LASF470
C:\Users\stapi\AppData\Local\Temp\cc2hhySa.s:19536  .debug_str:00000000000019dd .LASF471
C:\Users\stapi\AppData\Local\Temp\cc2hhySa.s:21432  .debug_str:00000000000052e7 .LASF472
C:\Users\stapi\AppData\Local\Temp\cc2hhySa.s:20426  .debug_str:00000000000035a3 .LASF473
C:\Users\stapi\AppData\Local\Temp\cc2hhySa.s:21310  .debug_str:0000000000004eda .LASF474
C:\Users\stapi\AppData\Local\Temp\cc2hhySa.s:18838  .debug_str:00000000000005e0 .LASF475
C:\Users\stapi\AppData\Local\Temp\cc2hhySa.s:19070  .debug_str:0000000000000c47 .LASF476
C:\Users\stapi\AppData\Local\Temp\cc2hhySa.s:19850  .debug_str:0000000000002300 .LASF477
C:\Users\stapi\AppData\Local\Temp\cc2hhySa.s:20768  .debug_str:0000000000003ef9 .LASF478
C:\Users\stapi\AppData\Local\Temp\cc2hhySa.s:19232  .debug_str:000000000000110e .LASF479
C:\Users\stapi\AppData\Local\Temp\cc2hhySa.s:20918  .debug_str:000000000000433b .LASF480
C:\Users\stapi\AppData\Local\Temp\cc2hhySa.s:19140  .debug_str:0000000000000e5b .LASF481
C:\Users\stapi\AppData\Local\Temp\cc2hhySa.s:21390  .debug_str:0000000000005198 .LASF482
C:\Users\stapi\AppData\Local\Temp\cc2hhySa.s:20684  .debug_str:0000000000003ca3 .LASF483
C:\Users\stapi\AppData\Local\Temp\cc2hhySa.s:20760  .debug_str:0000000000003eac .LASF484
C:\Users\stapi\AppData\Local\Temp\cc2hhySa.s:20506  .debug_str:00000000000037dd .LASF485
C:\Users\stapi\AppData\Local\Temp\cc2hhySa.s:21452  .debug_str:0000000000005374 .LASF486
C:\Users\stapi\AppData\Local\Temp\cc2hhySa.s:19194  .debug_str:0000000000001005 .LASF487
C:\Users\stapi\AppData\Local\Temp\cc2hhySa.s:20928  .debug_str:0000000000004390 .LASF488
C:\Users\stapi\AppData\Local\Temp\cc2hhySa.s:21438  .debug_str:000000000000531a .LASF489
C:\Users\stapi\AppData\Local\Temp\cc2hhySa.s:20686  .debug_str:0000000000003cb1 .LASF490
C:\Users\stapi\AppData\Local\Temp\cc2hhySa.s:21266  .debug_str:0000000000004d91 .LASF491
C:\Users\stapi\AppData\Local\Temp\cc2hhySa.s:19318  .debug_str:0000000000001384 .LASF492
C:\Users\stapi\AppData\Local\Temp\cc2hhySa.s:20858  .debug_str:000000000000417b .LASF493
C:\Users\stapi\AppData\Local\Temp\cc2hhySa.s:21148  .debug_str:0000000000004a10 .LASF494
C:\Users\stapi\AppData\Local\Temp\cc2hhySa.s:21336  .debug_str:0000000000005015 .LASF495
C:\Users\stapi\AppData\Local\Temp\cc2hhySa.s:21056  .debug_str:000000000000477b .LASF496
C:\Users\stapi\AppData\Local\Temp\cc2hhySa.s:19926  .debug_str:000000000000256d .LASF497
C:\Users\stapi\AppData\Local\Temp\cc2hhySa.s:20370  .debug_str:00000000000033ec .LASF498
C:\Users\stapi\AppData\Local\Temp\cc2hhySa.s:21108  .debug_str:00000000000048e5 .LASF499
C:\Users\stapi\AppData\Local\Temp\cc2hhySa.s:18696  .debug_str:0000000000000121 .LASF500
C:\Users\stapi\AppData\Local\Temp\cc2hhySa.s:21058  .debug_str:0000000000004785 .LASF501
C:\Users\stapi\AppData\Local\Temp\cc2hhySa.s:20496  .debug_str:0000000000003792 .LASF502
C:\Users\stapi\AppData\Local\Temp\cc2hhySa.s:20012  .debug_str:00000000000027d8 .LASF503
C:\Users\stapi\AppData\Local\Temp\cc2hhySa.s:21472  .debug_str:00000000000053e9 .LASF504
C:\Users\stapi\AppData\Local\Temp\cc2hhySa.s:19022  .debug_str:0000000000000ac9 .LASF505
C:\Users\stapi\AppData\Local\Temp\cc2hhySa.s:20488  .debug_str:000000000000376a .LASF506
C:\Users\stapi\AppData\Local\Temp\cc2hhySa.s:19130  .debug_str:0000000000000e29 .LASF507
C:\Users\stapi\AppData\Local\Temp\cc2hhySa.s:18748  .debug_str:0000000000000341 .LASF508
C:\Users\stapi\AppData\Local\Temp\cc2hhySa.s:20168  .debug_str:0000000000002c7b .LASF509
C:\Users\stapi\AppData\Local\Temp\cc2hhySa.s:20800  .debug_str:0000000000003fed .LASF510
C:\Users\stapi\AppData\Local\Temp\cc2hhySa.s:21332  .debug_str:0000000000004ff0 .LASF511
C:\Users\stapi\AppData\Local\Temp\cc2hhySa.s:20636  .debug_str:0000000000003b6c .LASF512
C:\Users\stapi\AppData\Local\Temp\cc2hhySa.s:19870  .debug_str:000000000000238e .LASF513
C:\Users\stapi\AppData\Local\Temp\cc2hhySa.s:21470  .debug_str:00000000000053e4 .LASF514
C:\Users\stapi\AppData\Local\Temp\cc2hhySa.s:19940  .debug_str:00000000000025dd .LASF515
C:\Users\stapi\AppData\Local\Temp\cc2hhySa.s:19238  .debug_str:0000000000001131 .LASF516
C:\Users\stapi\AppData\Local\Temp\cc2hhySa.s:19248  .debug_str:0000000000001169 .LASF517
C:\Users\stapi\AppData\Local\Temp\cc2hhySa.s:20090  .debug_str:0000000000002a31 .LASF518
C:\Users\stapi\AppData\Local\Temp\cc2hhySa.s:19244  .debug_str:0000000000001153 .LASF519
C:\Users\stapi\AppData\Local\Temp\cc2hhySa.s:19768  .debug_str:0000000000002079 .LASF520
C:\Users\stapi\AppData\Local\Temp\cc2hhySa.s:19328  .debug_str:00000000000013cb .LASF521
C:\Users\stapi\AppData\Local\Temp\cc2hhySa.s:20154  .debug_str:0000000000002c15 .LASF522
C:\Users\stapi\AppData\Local\Temp\cc2hhySa.s:20644  .debug_str:0000000000003ba4 .LASF523
C:\Users\stapi\AppData\Local\Temp\cc2hhySa.s:19558  .debug_str:0000000000001a76 .LASF524
C:\Users\stapi\AppData\Local\Temp\cc2hhySa.s:19030  .debug_str:0000000000000af9 .LASF525
C:\Users\stapi\AppData\Local\Temp\cc2hhySa.s:20380  .debug_str:0000000000003447 .LASF526
C:\Users\stapi\AppData\Local\Temp\cc2hhySa.s:19538  .debug_str:00000000000019ee .LASF527
C:\Users\stapi\AppData\Local\Temp\cc2hhySa.s:21268  .debug_str:0000000000004daa .LASF528
C:\Users\stapi\AppData\Local\Temp\cc2hhySa.s:20016  .debug_str:00000000000027fc .LASF529
C:\Users\stapi\AppData\Local\Temp\cc2hhySa.s:19798  .debug_str:0000000000002147 .LASF530
C:\Users\stapi\AppData\Local\Temp\cc2hhySa.s:20936  .debug_str:00000000000043e8 .LASF531
C:\Users\stapi\AppData\Local\Temp\cc2hhySa.s:19608  .debug_str:0000000000001bb3 .LASF532
C:\Users\stapi\AppData\Local\Temp\cc2hhySa.s:19838  .debug_str:0000000000002295 .LASF533
C:\Users\stapi\AppData\Local\Temp\cc2hhySa.s:19654  .debug_str:0000000000001cfe .LASF534
C:\Users\stapi\AppData\Local\Temp\cc2hhySa.s:21264  .debug_str:0000000000004d86 .LASF535
C:\Users\stapi\AppData\Local\Temp\cc2hhySa.s:19800  .debug_str:0000000000002152 .LASF536
C:\Users\stapi\AppData\Local\Temp\cc2hhySa.s:20514  .debug_str:0000000000003810 .LASF537
C:\Users\stapi\AppData\Local\Temp\cc2hhySa.s:21308  .debug_str:0000000000004ec8 .LASF538
C:\Users\stapi\AppData\Local\Temp\cc2hhySa.s:19594  .debug_str:0000000000001b4c .LASF539
C:\Users\stapi\AppData\Local\Temp\cc2hhySa.s:21228  .debug_str:0000000000004c63 .LASF540
C:\Users\stapi\AppData\Local\Temp\cc2hhySa.s:20438  .debug_str:00000000000035fa .LASF541
C:\Users\stapi\AppData\Local\Temp\cc2hhySa.s:21090  .debug_str:0000000000004874 .LASF542
C:\Users\stapi\AppData\Local\Temp\cc2hhySa.s:19368  .debug_str:0000000000001511 .LASF543
C:\Users\stapi\AppData\Local\Temp\cc2hhySa.s:19842  .debug_str:00000000000022be .LASF544
C:\Users\stapi\AppData\Local\Temp\cc2hhySa.s:20854  .debug_str:000000000000415b .LASF545
C:\Users\stapi\AppData\Local\Temp\cc2hhySa.s:19492  .debug_str:0000000000001899 .LASF546
C:\Users\stapi\AppData\Local\Temp\cc2hhySa.s:19670  .debug_str:0000000000001d7e .LASF547
C:\Users\stapi\AppData\Local\Temp\cc2hhySa.s:18988  .debug_str:00000000000009d1 .LASF548
C:\Users\stapi\AppData\Local\Temp\cc2hhySa.s:20832  .debug_str:00000000000040dc .LASF549
C:\Users\stapi\AppData\Local\Temp\cc2hhySa.s:20526  .debug_str:000000000000385b .LASF550
C:\Users\stapi\AppData\Local\Temp\cc2hhySa.s:20720  .debug_str:0000000000003dae .LASF551
C:\Users\stapi\AppData\Local\Temp\cc2hhySa.s:20196  .debug_str:0000000000002d76 .LASF552
C:\Users\stapi\AppData\Local\Temp\cc2hhySa.s:20234  .debug_str:0000000000002e93 .LASF553
C:\Users\stapi\AppData\Local\Temp\cc2hhySa.s:20232  .debug_str:0000000000002e8e .LASF554
C:\Users\stapi\AppData\Local\Temp\cc2hhySa.s:20790  .debug_str:0000000000003fbb .LASF555
C:\Users\stapi\AppData\Local\Temp\cc2hhySa.s:21006  .debug_str:00000000000045d4 .LASF556
C:\Users\stapi\AppData\Local\Temp\cc2hhySa.s:20512  .debug_str:0000000000003803 .LASF557
C:\Users\stapi\AppData\Local\Temp\cc2hhySa.s:19878  .debug_str:00000000000023c7 .LASF558
C:\Users\stapi\AppData\Local\Temp\cc2hhySa.s:18962  .debug_str:000000000000092b .LASF559
C:\Users\stapi\AppData\Local\Temp\cc2hhySa.s:19914  .debug_str:0000000000002510 .LASF560
C:\Users\stapi\AppData\Local\Temp\cc2hhySa.s:19224  .debug_str:00000000000010d3 .LASF561
C:\Users\stapi\AppData\Local\Temp\cc2hhySa.s:20584  .debug_str:00000000000039f6 .LASF562
C:\Users\stapi\AppData\Local\Temp\cc2hhySa.s:20462  .debug_str:00000000000036c1 .LASF563
C:\Users\stapi\AppData\Local\Temp\cc2hhySa.s:20190  .debug_str:0000000000002d46 .LASF564
C:\Users\stapi\AppData\Local\Temp\cc2hhySa.s:19272  .debug_str:000000000000122e .LASF565
C:\Users\stapi\AppData\Local\Temp\cc2hhySa.s:19104  .debug_str:0000000000000d4b .LASF566
C:\Users\stapi\AppData\Local\Temp\cc2hhySa.s:19598  .debug_str:0000000000001b67 .LASF567
C:\Users\stapi\AppData\Local\Temp\cc2hhySa.s:20252  .debug_str:0000000000003007 .LASF568
C:\Users\stapi\AppData\Local\Temp\cc2hhySa.s:21314  .debug_str:0000000000004eea .LASF569
C:\Users\stapi\AppData\Local\Temp\cc2hhySa.s:21154  .debug_str:0000000000004a32 .LASF570
C:\Users\stapi\AppData\Local\Temp\cc2hhySa.s:18974  .debug_str:0000000000000970 .LASF571
C:\Users\stapi\AppData\Local\Temp\cc2hhySa.s:20840  .debug_str:000000000000410b .LASF572
C:\Users\stapi\AppData\Local\Temp\cc2hhySa.s:20278  .debug_str:00000000000030de .LASF573
C:\Users\stapi\AppData\Local\Temp\cc2hhySa.s:20128  .debug_str:0000000000002b54 .LASF574
C:\Users\stapi\AppData\Local\Temp\cc2hhySa.s:18922  .debug_str:0000000000000818 .LASF575
C:\Users\stapi\AppData\Local\Temp\cc2hhySa.s:21124  .debug_str:0000000000004970 .LASF576
C:\Users\stapi\AppData\Local\Temp\cc2hhySa.s:19708  .debug_str:0000000000001eb4 .LASF577
C:\Users\stapi\AppData\Local\Temp\cc2hhySa.s:20770  .debug_str:0000000000003f16 .LASF578
C:\Users\stapi\AppData\Local\Temp\cc2hhySa.s:20868  .debug_str:00000000000041d2 .LASF579
C:\Users\stapi\AppData\Local\Temp\cc2hhySa.s:19994  .debug_str:000000000000275b .LASF580
C:\Users\stapi\AppData\Local\Temp\cc2hhySa.s:21142  .debug_str:00000000000049d9 .LASF581
C:\Users\stapi\AppData\Local\Temp\cc2hhySa.s:20482  .debug_str:0000000000003744 .LASF582
C:\Users\stapi\AppData\Local\Temp\cc2hhySa.s:19138  .debug_str:0000000000000e48 .LASF583
C:\Users\stapi\AppData\Local\Temp\cc2hhySa.s:20652  .debug_str:0000000000003be2 .LASF584
C:\Users\stapi\AppData\Local\Temp\cc2hhySa.s:20736  .debug_str:0000000000003e01 .LASF585
C:\Users\stapi\AppData\Local\Temp\cc2hhySa.s:18666  .debug_str:000000000000004e .LASF586
C:\Users\stapi\AppData\Local\Temp\cc2hhySa.s:19898  .debug_str:0000000000002489 .LASF587
C:\Users\stapi\AppData\Local\Temp\cc2hhySa.s:19912  .debug_str:00000000000024f9 .LASF588
C:\Users\stapi\AppData\Local\Temp\cc2hhySa.s:20328  .debug_str:0000000000003274 .LASF589
C:\Users\stapi\AppData\Local\Temp\cc2hhySa.s:18808  .debug_str:00000000000004e4 .LASF590
C:\Users\stapi\AppData\Local\Temp\cc2hhySa.s:18802  .debug_str:00000000000004af .LASF591
C:\Users\stapi\AppData\Local\Temp\cc2hhySa.s:19314  .debug_str:0000000000001365 .LASF592
C:\Users\stapi\AppData\Local\Temp\cc2hhySa.s:19052  .debug_str:0000000000000bb8 .LASF593
C:\Users\stapi\AppData\Local\Temp\cc2hhySa.s:21200  .debug_str:0000000000004bae .LASF594
C:\Users\stapi\AppData\Local\Temp\cc2hhySa.s:20244  .debug_str:0000000000002ee5 .LASF595
C:\Users\stapi\AppData\Local\Temp\cc2hhySa.s:20976  .debug_str:00000000000044ed .LASF596
C:\Users\stapi\AppData\Local\Temp\cc2hhySa.s:19634  .debug_str:0000000000001c53 .LASF597
C:\Users\stapi\AppData\Local\Temp\cc2hhySa.s:18766  .debug_str:00000000000003c6 .LASF598
C:\Users\stapi\AppData\Local\Temp\cc2hhySa.s:19252  .debug_str:0000000000001184 .LASF599
C:\Users\stapi\AppData\Local\Temp\cc2hhySa.s:19954  .debug_str:000000000000264e .LASF600
C:\Users\stapi\AppData\Local\Temp\cc2hhySa.s:19512  .debug_str:0000000000001923 .LASF601
C:\Users\stapi\AppData\Local\Temp\cc2hhySa.s:19060  .debug_str:0000000000000c02 .LASF602
C:\Users\stapi\AppData\Local\Temp\cc2hhySa.s:20050  .debug_str:00000000000028e1 .LASF603
C:\Users\stapi\AppData\Local\Temp\cc2hhySa.s:21016  .debug_str:0000000000004629 .LASF604
C:\Users\stapi\AppData\Local\Temp\cc2hhySa.s:19888  .debug_str:000000000000241e .LASF605
C:\Users\stapi\AppData\Local\Temp\cc2hhySa.s:20984  .debug_str:000000000000453c .LASF606
C:\Users\stapi\AppData\Local\Temp\cc2hhySa.s:19556  .debug_str:0000000000001a5f .LASF607
C:\Users\stapi\AppData\Local\Temp\cc2hhySa.s:19880  .debug_str:00000000000023d7 .LASF608
C:\Users\stapi\AppData\Local\Temp\cc2hhySa.s:19436  .debug_str:00000000000016e3 .LASF609
C:\Users\stapi\AppData\Local\Temp\cc2hhySa.s:19824  .debug_str:0000000000002226 .LASF610
C:\Users\stapi\AppData\Local\Temp\cc2hhySa.s:19820  .debug_str:0000000000002201 .LASF611
C:\Users\stapi\AppData\Local\Temp\cc2hhySa.s:21144  .debug_str:00000000000049ee .LASF612
C:\Users\stapi\AppData\Local\Temp\cc2hhySa.s:21348  .debug_str:000000000000505e .LASF613
C:\Users\stapi\AppData\Local\Temp\cc2hhySa.s:20756  .debug_str:0000000000003e96 .LASF614
C:\Users\stapi\AppData\Local\Temp\cc2hhySa.s:19132  .debug_str:0000000000000e2f .LASF615
C:\Users\stapi\AppData\Local\Temp\cc2hhySa.s:20224  .debug_str:0000000000002e52 .LASF616
C:\Users\stapi\AppData\Local\Temp\cc2hhySa.s:20588  .debug_str:0000000000003a1e .LASF617
C:\Users\stapi\AppData\Local\Temp\cc2hhySa.s:19848  .debug_str:00000000000022f7 .LASF618
C:\Users\stapi\AppData\Local\Temp\cc2hhySa.s:18730  .debug_str:0000000000000233 .LASF619
C:\Users\stapi\AppData\Local\Temp\cc2hhySa.s:21346  .debug_str:0000000000005052 .LASF620
C:\Users\stapi\AppData\Local\Temp\cc2hhySa.s:20034  .debug_str:0000000000002869 .LASF621
C:\Users\stapi\AppData\Local\Temp\cc2hhySa.s:18948  .debug_str:00000000000008cb .LASF622
C:\Users\stapi\AppData\Local\Temp\cc2hhySa.s:20758  .debug_str:0000000000003e9e .LASF623
C:\Users\stapi\AppData\Local\Temp\cc2hhySa.s:20988  .debug_str:000000000000455b .LASF624
C:\Users\stapi\AppData\Local\Temp\cc2hhySa.s:21046  .debug_str:0000000000004712 .LASF625
C:\Users\stapi\AppData\Local\Temp\cc2hhySa.s:18954  .debug_str:00000000000008f3 .LASF626
C:\Users\stapi\AppData\Local\Temp\cc2hhySa.s:20884  .debug_str:0000000000004266 .LASF627
C:\Users\stapi\AppData\Local\Temp\cc2hhySa.s:19806  .debug_str:0000000000002185 .LASF628
C:\Users\stapi\AppData\Local\Temp\cc2hhySa.s:19476  .debug_str:0000000000001817 .LASF629
C:\Users\stapi\AppData\Local\Temp\cc2hhySa.s:19586  .debug_str:0000000000001b1c .LASF630
C:\Users\stapi\AppData\Local\Temp\cc2hhySa.s:19142  .debug_str:0000000000000e6f .LASF631
C:\Users\stapi\AppData\Local\Temp\cc2hhySa.s:18674  .debug_str:0000000000000085 .LASF632
C:\Users\stapi\AppData\Local\Temp\cc2hhySa.s:20830  .debug_str:00000000000040d2 .LASF633
C:\Users\stapi\AppData\Local\Temp\cc2hhySa.s:21486  .debug_str:0000000000005472 .LASF634
C:\Users\stapi\AppData\Local\Temp\cc2hhySa.s:21202  .debug_str:0000000000004bbb .LASF635
C:\Users\stapi\AppData\Local\Temp\cc2hhySa.s:20786  .debug_str:0000000000003f9b .LASF636
C:\Users\stapi\AppData\Local\Temp\cc2hhySa.s:21186  .debug_str:0000000000004b20 .LASF637
C:\Users\stapi\AppData\Local\Temp\cc2hhySa.s:20320  .debug_str:000000000000323f .LASF638
C:\Users\stapi\AppData\Local\Temp\cc2hhySa.s:19660  .debug_str:0000000000001d24 .LASF639
C:\Users\stapi\AppData\Local\Temp\cc2hhySa.s:20574  .debug_str:00000000000039a5 .LASF640
C:\Users\stapi\AppData\Local\Temp\cc2hhySa.s:20678  .debug_str:0000000000003c80 .LASF641
C:\Users\stapi\AppData\Local\Temp\cc2hhySa.s:21096  .debug_str:000000000000489b .LASF642
C:\Users\stapi\AppData\Local\Temp\cc2hhySa.s:18830  .debug_str:000000000000059e .LASF643
C:\Users\stapi\AppData\Local\Temp\cc2hhySa.s:20352  .debug_str:0000000000003368 .LASF644
C:\Users\stapi\AppData\Local\Temp\cc2hhySa.s:21344  .debug_str:0000000000005049 .LASF645
C:\Users\stapi\AppData\Local\Temp\cc2hhySa.s:19384  .debug_str:0000000000001582 .LASF646
C:\Users\stapi\AppData\Local\Temp\cc2hhySa.s:19050  .debug_str:0000000000000ba7 .LASF647
C:\Users\stapi\AppData\Local\Temp\cc2hhySa.s:19564  .debug_str:0000000000001a9d .LASF648
C:\Users\stapi\AppData\Local\Temp\cc2hhySa.s:21098  .debug_str:00000000000048a6 .LASF649
C:\Users\stapi\AppData\Local\Temp\cc2hhySa.s:19396  .debug_str:00000000000015e4 .LASF650
C:\Users\stapi\AppData\Local\Temp\cc2hhySa.s:18724  .debug_str:0000000000000205 .LASF651
C:\Users\stapi\AppData\Local\Temp\cc2hhySa.s:19120  .debug_str:0000000000000dc6 .LASF652
C:\Users\stapi\AppData\Local\Temp\cc2hhySa.s:19064  .debug_str:0000000000000c1d .LASF653
C:\Users\stapi\AppData\Local\Temp\cc2hhySa.s:19668  .debug_str:0000000000001d74 .LASF654
C:\Users\stapi\AppData\Local\Temp\cc2hhySa.s:20286  .debug_str:000000000000312c .LASF655
C:\Users\stapi\AppData\Local\Temp\cc2hhySa.s:21002  .debug_str:00000000000045bc .LASF656
C:\Users\stapi\AppData\Local\Temp\cc2hhySa.s:19712  .debug_str:0000000000001ecd .LASF657
C:\Users\stapi\AppData\Local\Temp\cc2hhySa.s:20376  .debug_str:0000000000003421 .LASF658
C:\Users\stapi\AppData\Local\Temp\cc2hhySa.s:20808  .debug_str:0000000000004022 .LASF659
C:\Users\stapi\AppData\Local\Temp\cc2hhySa.s:19332  .debug_str:0000000000001405 .LASF660
C:\Users\stapi\AppData\Local\Temp\cc2hhySa.s:21278  .debug_str:0000000000004de5 .LASF661
C:\Users\stapi\AppData\Local\Temp\cc2hhySa.s:20838  .debug_str:0000000000004105 .LASF662
C:\Users\stapi\AppData\Local\Temp\cc2hhySa.s:19188  .debug_str:0000000000000fd1 .LASF663
C:\Users\stapi\AppData\Local\Temp\cc2hhySa.s:20290  .debug_str:000000000000313e .LASF664
C:\Users\stapi\AppData\Local\Temp\cc2hhySa.s:18896  .debug_str:000000000000077e .LASF665
C:\Users\stapi\AppData\Local\Temp\cc2hhySa.s:18994  .debug_str:00000000000009ee .LASF666
C:\Users\stapi\AppData\Local\Temp\cc2hhySa.s:20150  .debug_str:0000000000002bfd .LASF667
C:\Users\stapi\AppData\Local\Temp\cc2hhySa.s:19044  .debug_str:0000000000000b67 .LASF668
C:\Users\stapi\AppData\Local\Temp\cc2hhySa.s:20076  .debug_str:00000000000029b3 .LASF669
C:\Users\stapi\AppData\Local\Temp\cc2hhySa.s:20498  .debug_str:00000000000037a4 .LASF670
C:\Users\stapi\AppData\Local\Temp\cc2hhySa.s:21296  .debug_str:0000000000004e6a .LASF671
C:\Users\stapi\AppData\Local\Temp\cc2hhySa.s:19230  .debug_str:00000000000010f4 .LASF672
C:\Users\stapi\AppData\Local\Temp\cc2hhySa.s:18942  .debug_str:000000000000088f .LASF673
C:\Users\stapi\AppData\Local\Temp\cc2hhySa.s:20522  .debug_str:000000000000383e .LASF674
C:\Users\stapi\AppData\Local\Temp\cc2hhySa.s:19936  .debug_str:00000000000025bb .LASF675
C:\Users\stapi\AppData\Local\Temp\cc2hhySa.s:18932  .debug_str:0000000000000843 .LASF676
C:\Users\stapi\AppData\Local\Temp\cc2hhySa.s:20354  .debug_str:000000000000337f .LASF677
C:\Users\stapi\AppData\Local\Temp\cc2hhySa.s:19364  .debug_str:00000000000014f1 .LASF678
C:\Users\stapi\AppData\Local\Temp\cc2hhySa.s:19286  .debug_str:000000000000129c .LASF679
C:\Users\stapi\AppData\Local\Temp\cc2hhySa.s:20332  .debug_str:00000000000032a5 .LASF680
C:\Users\stapi\AppData\Local\Temp\cc2hhySa.s:18968  .debug_str:0000000000000957 .LASF681
C:\Users\stapi\AppData\Local\Temp\cc2hhySa.s:21252  .debug_str:0000000000004d34 .LASF682
C:\Users\stapi\AppData\Local\Temp\cc2hhySa.s:21270  .debug_str:0000000000004db9 .LASF683
C:\Users\stapi\AppData\Local\Temp\cc2hhySa.s:19294  .debug_str:00000000000012dd .LASF684
C:\Users\stapi\AppData\Local\Temp\cc2hhySa.s:18926  .debug_str:0000000000000827 .LASF685
C:\Users\stapi\AppData\Local\Temp\cc2hhySa.s:20456  .debug_str:00000000000036a6 .LASF686
C:\Users\stapi\AppData\Local\Temp\cc2hhySa.s:20672  .debug_str:0000000000003c68 .LASF687
C:\Users\stapi\AppData\Local\Temp\cc2hhySa.s:19198  .debug_str:0000000000001023 .LASF688
C:\Users\stapi\AppData\Local\Temp\cc2hhySa.s:19652  .debug_str:0000000000001cef .LASF689
C:\Users\stapi\AppData\Local\Temp\cc2hhySa.s:20318  .debug_str:0000000000003235 .LASF690
C:\Users\stapi\AppData\Local\Temp\cc2hhySa.s:18712  .debug_str:00000000000001a4 .LASF691
C:\Users\stapi\AppData\Local\Temp\cc2hhySa.s:19664  .debug_str:0000000000001d42 .LASF692
C:\Users\stapi\AppData\Local\Temp\cc2hhySa.s:19002  .debug_str:0000000000000a22 .LASF693
C:\Users\stapi\AppData\Local\Temp\cc2hhySa.s:20378  .debug_str:000000000000343e .LASF694
C:\Users\stapi\AppData\Local\Temp\cc2hhySa.s:19100  .debug_str:0000000000000d38 .LASF695
C:\Users\stapi\AppData\Local\Temp\cc2hhySa.s:19752  .debug_str:0000000000001fe9 .LASF696
C:\Users\stapi\AppData\Local\Temp\cc2hhySa.s:19928  .debug_str:0000000000002583 .LASF697
C:\Users\stapi\AppData\Local\Temp\cc2hhySa.s:18958  .debug_str:0000000000000914 .LASF698
C:\Users\stapi\AppData\Local\Temp\cc2hhySa.s:21136  .debug_str:00000000000049ac .LASF699
C:\Users\stapi\AppData\Local\Temp\cc2hhySa.s:19900  .debug_str:0000000000002492 .LASF700
C:\Users\stapi\AppData\Local\Temp\cc2hhySa.s:20572  .debug_str:0000000000003991 .LASF701
C:\Users\stapi\AppData\Local\Temp\cc2hhySa.s:19488  .debug_str:000000000000187a .LASF702
C:\Users\stapi\AppData\Local\Temp\cc2hhySa.s:20648  .debug_str:0000000000003bbf .LASF703
C:\Users\stapi\AppData\Local\Temp\cc2hhySa.s:20624  .debug_str:0000000000003b12 .LASF704
C:\Users\stapi\AppData\Local\Temp\cc2hhySa.s:19000  .debug_str:0000000000000a16 .LASF705
C:\Users\stapi\AppData\Local\Temp\cc2hhySa.s:19858  .debug_str:000000000000234e .LASF706
C:\Users\stapi\AppData\Local\Temp\cc2hhySa.s:19032  .debug_str:0000000000000b02 .LASF707
C:\Users\stapi\AppData\Local\Temp\cc2hhySa.s:21272  .debug_str:0000000000004dc2 .LASF708
C:\Users\stapi\AppData\Local\Temp\cc2hhySa.s:19366  .debug_str:000000000000150b .LASF709
C:\Users\stapi\AppData\Local\Temp\cc2hhySa.s:19964  .debug_str:0000000000002687 .LASF710
C:\Users\stapi\AppData\Local\Temp\cc2hhySa.s:19920  .debug_str:000000000000254b .LASF711
C:\Users\stapi\AppData\Local\Temp\cc2hhySa.s:20826  .debug_str:00000000000040bb .LASF712
C:\Users\stapi\AppData\Local\Temp\cc2hhySa.s:20006  .debug_str:00000000000027b4 .LASF713
C:\Users\stapi\AppData\Local\Temp\cc2hhySa.s:18690  .debug_str:00000000000000f6 .LASF714
C:\Users\stapi\AppData\Local\Temp\cc2hhySa.s:20738  .debug_str:0000000000003e21 .LASF715
C:\Users\stapi\AppData\Local\Temp\cc2hhySa.s:20966  .debug_str:00000000000044c1 .LASF716
C:\Users\stapi\AppData\Local\Temp\cc2hhySa.s:18928  .debug_str:000000000000082c .LASF717
C:\Users\stapi\AppData\Local\Temp\cc2hhySa.s:19552  .debug_str:0000000000001a45 .LASF718
C:\Users\stapi\AppData\Local\Temp\cc2hhySa.s:20806  .debug_str:0000000000004017 .LASF719
C:\Users\stapi\AppData\Local\Temp\cc2hhySa.s:21312  .debug_str:0000000000004ee4 .LASF720
C:\Users\stapi\AppData\Local\Temp\cc2hhySa.s:20626  .debug_str:0000000000003b24 .LASF721
C:\Users\stapi\AppData\Local\Temp\cc2hhySa.s:19262  .debug_str:00000000000011dd .LASF722
C:\Users\stapi\AppData\Local\Temp\cc2hhySa.s:20896  .debug_str:00000000000042aa .LASF723
C:\Users\stapi\AppData\Local\Temp\cc2hhySa.s:21446  .debug_str:0000000000005346 .LASF724
C:\Users\stapi\AppData\Local\Temp\cc2hhySa.s:20784  .debug_str:0000000000003f90 .LASF725
C:\Users\stapi\AppData\Local\Temp\cc2hhySa.s:19196  .debug_str:0000000000001016 .LASF726
C:\Users\stapi\AppData\Local\Temp\cc2hhySa.s:19986  .debug_str:000000000000272b .LASF727
C:\Users\stapi\AppData\Local\Temp\cc2hhySa.s:20014  .debug_str:00000000000027ee .LASF728
C:\Users\stapi\AppData\Local\Temp\cc2hhySa.s:20842  .debug_str:0000000000004118 .LASF729
C:\Users\stapi\AppData\Local\Temp\cc2hhySa.s:21410  .debug_str:0000000000005239 .LASF730
C:\Users\stapi\AppData\Local\Temp\cc2hhySa.s:20052  .debug_str:00000000000028ef .LASF731
C:\Users\stapi\AppData\Local\Temp\cc2hhySa.s:19930  .debug_str:000000000000258e .LASF732
C:\Users\stapi\AppData\Local\Temp\cc2hhySa.s:19886  .debug_str:000000000000240e .LASF733
C:\Users\stapi\AppData\Local\Temp\cc2hhySa.s:19450  .debug_str:0000000000001753 .LASF734
C:\Users\stapi\AppData\Local\Temp\cc2hhySa.s:19180  .debug_str:0000000000000f8f .LASF735
C:\Users\stapi\AppData\Local\Temp\cc2hhySa.s:19372  .debug_str:0000000000001539 .LASF736
C:\Users\stapi\AppData\Local\Temp\cc2hhySa.s:20106  .debug_str:0000000000002ab1 .LASF737
C:\Users\stapi\AppData\Local\Temp\cc2hhySa.s:21076  .debug_str:000000000000480e .LASF738
C:\Users\stapi\AppData\Local\Temp\cc2hhySa.s:20634  .debug_str:0000000000003b58 .LASF739
C:\Users\stapi\AppData\Local\Temp\cc2hhySa.s:21498  .debug_str:00000000000054cc .LASF740
C:\Users\stapi\AppData\Local\Temp\cc2hhySa.s:20888  .debug_str:0000000000004280 .LASF741
C:\Users\stapi\AppData\Local\Temp\cc2hhySa.s:19582  .debug_str:0000000000001b07 .LASF742
C:\Users\stapi\AppData\Local\Temp\cc2hhySa.s:19212  .debug_str:000000000000107e .LASF743
C:\Users\stapi\AppData\Local\Temp\cc2hhySa.s:19770  .debug_str:0000000000002088 .LASF744
C:\Users\stapi\AppData\Local\Temp\cc2hhySa.s:21170  .debug_str:0000000000004a97 .LASF745
C:\Users\stapi\AppData\Local\Temp\cc2hhySa.s:20390  .debug_str:0000000000003492 .LASF746
C:\Users\stapi\AppData\Local\Temp\cc2hhySa.s:20778  .debug_str:0000000000003f5f .LASF747
C:\Users\stapi\AppData\Local\Temp\cc2hhySa.s:19680  .debug_str:0000000000001dbf .LASF748
C:\Users\stapi\AppData\Local\Temp\cc2hhySa.s:20100  .debug_str:0000000000002a89 .LASF749
C:\Users\stapi\AppData\Local\Temp\cc2hhySa.s:18872  .debug_str:00000000000006c9 .LASF750
C:\Users\stapi\AppData\Local\Temp\cc2hhySa.s:18778  .debug_str:0000000000000410 .LASF751
C:\Users\stapi\AppData\Local\Temp\cc2hhySa.s:20580  .debug_str:00000000000039c9 .LASF752
C:\Users\stapi\AppData\Local\Temp\cc2hhySa.s:20308  .debug_str:00000000000031e6 .LASF753
C:\Users\stapi\AppData\Local\Temp\cc2hhySa.s:18924  .debug_str:000000000000081d .LASF754
C:\Users\stapi\AppData\Local\Temp\cc2hhySa.s:20444  .debug_str:0000000000003640 .LASF755
C:\Users\stapi\AppData\Local\Temp\cc2hhySa.s:18850  .debug_str:000000000000062f .LASF756
C:\Users\stapi\AppData\Local\Temp\cc2hhySa.s:19200  .debug_str:0000000000001037 .LASF757
C:\Users\stapi\AppData\Local\Temp\cc2hhySa.s:20406  .debug_str:0000000000003505 .LASF758
C:\Users\stapi\AppData\Local\Temp\cc2hhySa.s:21436  .debug_str:0000000000005312 .LASF759
C:\Users\stapi\AppData\Local\Temp\cc2hhySa.s:21374  .debug_str:000000000000511a .LASF760
C:\Users\stapi\AppData\Local\Temp\cc2hhySa.s:20776  .debug_str:0000000000003f4d .LASF761
C:\Users\stapi\AppData\Local\Temp\cc2hhySa.s:18702  .debug_str:0000000000000163 .LASF762
C:\Users\stapi\AppData\Local\Temp\cc2hhySa.s:20598  .debug_str:0000000000003a68 .LASF763
C:\Users\stapi\AppData\Local\Temp\cc2hhySa.s:18984  .debug_str:00000000000009b5 .LASF764
C:\Users\stapi\AppData\Local\Temp\cc2hhySa.s:21066  .debug_str:00000000000047cb .LASF765
C:\Users\stapi\AppData\Local\Temp\cc2hhySa.s:20912  .debug_str:0000000000004320 .LASF766
C:\Users\stapi\AppData\Local\Temp\cc2hhySa.s:21102  .debug_str:00000000000048bf .LASF767
C:\Users\stapi\AppData\Local\Temp\cc2hhySa.s:20126  .debug_str:0000000000002b44 .LASF768
C:\Users\stapi\AppData\Local\Temp\cc2hhySa.s:21110  .debug_str:00000000000048fd .LASF769
C:\Users\stapi\AppData\Local\Temp\cc2hhySa.s:19902  .debug_str:00000000000024a5 .LASF770
C:\Users\stapi\AppData\Local\Temp\cc2hhySa.s:18832  .debug_str:00000000000005b3 .LASF771
C:\Users\stapi\AppData\Local\Temp\cc2hhySa.s:20366  .debug_str:00000000000033d3 .LASF772
C:\Users\stapi\AppData\Local\Temp\cc2hhySa.s:18840  .debug_str:00000000000005f0 .LASF773
C:\Users\stapi\AppData\Local\Temp\cc2hhySa.s:20326  .debug_str:0000000000003268 .LASF774
C:\Users\stapi\AppData\Local\Temp\cc2hhySa.s:19208  .debug_str:0000000000001065 .LASF775
C:\Users\stapi\AppData\Local\Temp\cc2hhySa.s:19614  .debug_str:0000000000001be6 .LASF776
C:\Users\stapi\AppData\Local\Temp\cc2hhySa.s:20700  .debug_str:0000000000003d1b .LASF777
C:\Users\stapi\AppData\Local\Temp\cc2hhySa.s:21290  .debug_str:0000000000004e41 .LASF778
C:\Users\stapi\AppData\Local\Temp\cc2hhySa.s:20544  .debug_str:00000000000038d4 .LASF779
C:\Users\stapi\AppData\Local\Temp\cc2hhySa.s:19344  .debug_str:0000000000001463 .LASF780
C:\Users\stapi\AppData\Local\Temp\cc2hhySa.s:20486  .debug_str:0000000000003760 .LASF781
C:\Users\stapi\AppData\Local\Temp\cc2hhySa.s:19422  .debug_str:0000000000001684 .LASF782
C:\Users\stapi\AppData\Local\Temp\cc2hhySa.s:19324  .debug_str:00000000000013ab .LASF783
C:\Users\stapi\AppData\Local\Temp\cc2hhySa.s:20026  .debug_str:0000000000002834 .LASF784
C:\Users\stapi\AppData\Local\Temp\cc2hhySa.s:21324  .debug_str:0000000000004fba .LASF785
C:\Users\stapi\AppData\Local\Temp\cc2hhySa.s:19818  .debug_str:00000000000021f3 .LASF786
C:\Users\stapi\AppData\Local\Temp\cc2hhySa.s:19908  .debug_str:00000000000024d4 .LASF787
C:\Users\stapi\AppData\Local\Temp\cc2hhySa.s:18820  .debug_str:0000000000000545 .LASF788
C:\Users\stapi\AppData\Local\Temp\cc2hhySa.s:21140  .debug_str:00000000000049cf .LASF789
C:\Users\stapi\AppData\Local\Temp\cc2hhySa.s:21334  .debug_str:0000000000004ffa .LASF790
C:\Users\stapi\AppData\Local\Temp\cc2hhySa.s:18920  .debug_str:00000000000007fc .LASF791
C:\Users\stapi\AppData\Local\Temp\cc2hhySa.s:18668  .debug_str:000000000000005c .LASF792
C:\Users\stapi\AppData\Local\Temp\cc2hhySa.s:20742  .debug_str:0000000000003e32 .LASF793
C:\Users\stapi\AppData\Local\Temp\cc2hhySa.s:19234  .debug_str:0000000000001116 .LASF794
C:\Users\stapi\AppData\Local\Temp\cc2hhySa.s:19404  .debug_str:0000000000001616 .LASF795
C:\Users\stapi\AppData\Local\Temp\cc2hhySa.s:20184  .debug_str:0000000000002d11 .LASF796
C:\Users\stapi\AppData\Local\Temp\cc2hhySa.s:18886  .debug_str:000000000000072e .LASF797
C:\Users\stapi\AppData\Local\Temp\cc2hhySa.s:19978  .debug_str:00000000000026f8 .LASF798
C:\Users\stapi\AppData\Local\Temp\cc2hhySa.s:19592  .debug_str:0000000000001b42 .LASF799
C:\Users\stapi\AppData\Local\Temp\cc2hhySa.s:19074  .debug_str:0000000000000c68 .LASF800
C:\Users\stapi\AppData\Local\Temp\cc2hhySa.s:21214  .debug_str:0000000000004c0e .LASF801
C:\Users\stapi\AppData\Local\Temp\cc2hhySa.s:19812  .debug_str:00000000000021c7 .LASF802
C:\Users\stapi\AppData\Local\Temp\cc2hhySa.s:20964  .debug_str:00000000000044ba .LASF803
C:\Users\stapi\AppData\Local\Temp\cc2hhySa.s:20954  .debug_str:0000000000004462 .LASF804
C:\Users\stapi\AppData\Local\Temp\cc2hhySa.s:20410  .debug_str:0000000000003526 .LASF805
C:\Users\stapi\AppData\Local\Temp\cc2hhySa.s:19922  .debug_str:0000000000002551 .LASF806
C:\Users\stapi\AppData\Local\Temp\cc2hhySa.s:20824  .debug_str:000000000000409e .LASF807
C:\Users\stapi\AppData\Local\Temp\cc2hhySa.s:21018  .debug_str:0000000000004634 .LASF808
C:\Users\stapi\AppData\Local\Temp\cc2hhySa.s:19292  .debug_str:00000000000012d0 .LASF809
C:\Users\stapi\AppData\Local\Temp\cc2hhySa.s:19168  .debug_str:0000000000000f3e .LASF810
C:\Users\stapi\AppData\Local\Temp\cc2hhySa.s:20930  .debug_str:00000000000043a5 .LASF811
C:\Users\stapi\AppData\Local\Temp\cc2hhySa.s:20044  .debug_str:00000000000028b9 .LASF812
C:\Users\stapi\AppData\Local\Temp\cc2hhySa.s:19056  .debug_str:0000000000000be0 .LASF813
C:\Users\stapi\AppData\Local\Temp\cc2hhySa.s:19254  .debug_str:0000000000001195 .LASF814
C:\Users\stapi\AppData\Local\Temp\cc2hhySa.s:18918  .debug_str:00000000000007e5 .LASF815
C:\Users\stapi\AppData\Local\Temp\cc2hhySa.s:19840  .debug_str:00000000000022a8 .LASF816
C:\Users\stapi\AppData\Local\Temp\cc2hhySa.s:19414  .debug_str:0000000000001642 .LASF817
C:\Users\stapi\AppData\Local\Temp\cc2hhySa.s:20924  .debug_str:0000000000004372 .LASF818
C:\Users\stapi\AppData\Local\Temp\cc2hhySa.s:20480  .debug_str:0000000000003737 .LASF819
C:\Users\stapi\AppData\Local\Temp\cc2hhySa.s:19482  .debug_str:000000000000183b .LASF820
C:\Users\stapi\AppData\Local\Temp\cc2hhySa.s:19504  .debug_str:00000000000018fe .LASF821
C:\Users\stapi\AppData\Local\Temp\cc2hhySa.s:19808  .debug_str:000000000000219e .LASF822
C:\Users\stapi\AppData\Local\Temp\cc2hhySa.s:20630  .debug_str:0000000000003b41 .LASF823
C:\Users\stapi\AppData\Local\Temp\cc2hhySa.s:20464  .debug_str:00000000000036d7 .LASF824
C:\Users\stapi\AppData\Local\Temp\cc2hhySa.s:21216  .debug_str:0000000000004c19 .LASF825
C:\Users\stapi\AppData\Local\Temp\cc2hhySa.s:20510  .debug_str:00000000000037fa .LASF826
C:\Users\stapi\AppData\Local\Temp\cc2hhySa.s:21180  .debug_str:0000000000004af4 .LASF827
C:\Users\stapi\AppData\Local\Temp\cc2hhySa.s:21160  .debug_str:0000000000004a67 .LASF828
C:\Users\stapi\AppData\Local\Temp\cc2hhySa.s:20194  .debug_str:0000000000002d71 .LASF829
C:\Users\stapi\AppData\Local\Temp\cc2hhySa.s:19302  .debug_str:0000000000001314 .LASF830
C:\Users\stapi\AppData\Local\Temp\cc2hhySa.s:21048  .debug_str:0000000000004722 .LASF831
C:\Users\stapi\AppData\Local\Temp\cc2hhySa.s:20114  .debug_str:0000000000002ae4 .LASF832
C:\Users\stapi\AppData\Local\Temp\cc2hhySa.s:19630  .debug_str:0000000000001c3f .LASF833
C:\Users\stapi\AppData\Local\Temp\cc2hhySa.s:19996  .debug_str:000000000000276e .LASF834
C:\Users\stapi\AppData\Local\Temp\cc2hhySa.s:18882  .debug_str:0000000000000712 .LASF835
C:\Users\stapi\AppData\Local\Temp\cc2hhySa.s:20712  .debug_str:0000000000003d67 .LASF836
C:\Users\stapi\AppData\Local\Temp\cc2hhySa.s:19388  .debug_str:000000000000159c .LASF837
C:\Users\stapi\AppData\Local\Temp\cc2hhySa.s:19574  .debug_str:0000000000001ad3 .LASF838
C:\Users\stapi\AppData\Local\Temp\cc2hhySa.s:20152  .debug_str:0000000000002c08 .LASF839
C:\Users\stapi\AppData\Local\Temp\cc2hhySa.s:20822  .debug_str:0000000000004096 .LASF840
C:\Users\stapi\AppData\Local\Temp\cc2hhySa.s:19944  .debug_str:00000000000025ef .LASF841
C:\Users\stapi\AppData\Local\Temp\cc2hhySa.s:20458  .debug_str:00000000000036ad .LASF842
C:\Users\stapi\AppData\Local\Temp\cc2hhySa.s:19360  .debug_str:00000000000014cf .LASF843
C:\Users\stapi\AppData\Local\Temp\cc2hhySa.s:20350  .debug_str:0000000000003352 .LASF844
C:\Users\stapi\AppData\Local\Temp\cc2hhySa.s:20604  .debug_str:0000000000003a8c .LASF845
C:\Users\stapi\AppData\Local\Temp\cc2hhySa.s:19092  .debug_str:0000000000000cf6 .LASF846
C:\Users\stapi\AppData\Local\Temp\cc2hhySa.s:20570  .debug_str:0000000000003980 .LASF847
C:\Users\stapi\AppData\Local\Temp\cc2hhySa.s:21316  .debug_str:0000000000004ef6 .LASF848
C:\Users\stapi\AppData\Local\Temp\cc2hhySa.s:20358  .debug_str:000000000000339f .LASF849
C:\Users\stapi\AppData\Local\Temp\cc2hhySa.s:20914  .debug_str:0000000000004329 .LASF850
C:\Users\stapi\AppData\Local\Temp\cc2hhySa.s:21084  .debug_str:0000000000004855 .LASF851
C:\Users\stapi\AppData\Local\Temp\cc2hhySa.s:19624  .debug_str:0000000000001c23 .LASF852
C:\Users\stapi\AppData\Local\Temp\cc2hhySa.s:20230  .debug_str:0000000000002e82 .LASF853
C:\Users\stapi\AppData\Local\Temp\cc2hhySa.s:20340  .debug_str:0000000000003300 .LASF854
C:\Users\stapi\AppData\Local\Temp\cc2hhySa.s:19290  .debug_str:00000000000012cb .LASF855
C:\Users\stapi\AppData\Local\Temp\cc2hhySa.s:19322  .debug_str:000000000000139e .LASF856
C:\Users\stapi\AppData\Local\Temp\cc2hhySa.s:19136  .debug_str:0000000000000e43 .LASF857
C:\Users\stapi\AppData\Local\Temp\cc2hhySa.s:18828  .debug_str:0000000000000599 .LASF858
C:\Users\stapi\AppData\Local\Temp\cc2hhySa.s:20724  .debug_str:0000000000003dc9 .LASF859
C:\Users\stapi\AppData\Local\Temp\cc2hhySa.s:19376  .debug_str:0000000000001555 .LASF860
C:\Users\stapi\AppData\Local\Temp\cc2hhySa.s:20282  .debug_str:000000000000310e .LASF861
C:\Users\stapi\AppData\Local\Temp\cc2hhySa.s:20754  .debug_str:0000000000003e8b .LASF862
C:\Users\stapi\AppData\Local\Temp\cc2hhySa.s:19380  .debug_str:0000000000001566 .LASF863
C:\Users\stapi\AppData\Local\Temp\cc2hhySa.s:21166  .debug_str:0000000000004a81 .LASF864
C:\Users\stapi\AppData\Local\Temp\cc2hhySa.s:19832  .debug_str:0000000000002272 .LASF865
C:\Users\stapi\AppData\Local\Temp\cc2hhySa.s:21112  .debug_str:0000000000004910 .LASF866
C:\Users\stapi\AppData\Local\Temp\cc2hhySa.s:19014  .debug_str:0000000000000a89 .LASF867
C:\Users\stapi\AppData\Local\Temp\cc2hhySa.s:20616  .debug_str:0000000000003ad7 .LASF868
C:\Users\stapi\AppData\Local\Temp\cc2hhySa.s:19176  .debug_str:0000000000000f7c .LASF869
C:\Users\stapi\AppData\Local\Temp\cc2hhySa.s:20448  .debug_str:000000000000365f .LASF870
C:\Users\stapi\AppData\Local\Temp\cc2hhySa.s:21022  .debug_str:0000000000004657 .LASF871
C:\Users\stapi\AppData\Local\Temp\cc2hhySa.s:21478  .debug_str:0000000000005428 .LASF872
C:\Users\stapi\AppData\Local\Temp\cc2hhySa.s:20002  .debug_str:0000000000002798 .LASF873
C:\Users\stapi\AppData\Local\Temp\cc2hhySa.s:19204  .debug_str:0000000000001045 .LASF874
C:\Users\stapi\AppData\Local\Temp\cc2hhySa.s:20594  .debug_str:0000000000003a43 .LASF875
C:\Users\stapi\AppData\Local\Temp\cc2hhySa.s:20690  .debug_str:0000000000003cda .LASF876
C:\Users\stapi\AppData\Local\Temp\cc2hhySa.s:21086  .debug_str:000000000000485b .LASF877
C:\Users\stapi\AppData\Local\Temp\cc2hhySa.s:20470  .debug_str:00000000000036fc .LASF878
C:\Users\stapi\AppData\Local\Temp\cc2hhySa.s:21182  .debug_str:0000000000004b09 .LASF879
C:\Users\stapi\AppData\Local\Temp\cc2hhySa.s:19942  .debug_str:00000000000025e9 .LASF880
C:\Users\stapi\AppData\Local\Temp\cc2hhySa.s:20962  .debug_str:00000000000044ad .LASF881
C:\Users\stapi\AppData\Local\Temp\cc2hhySa.s:18842  .debug_str:00000000000005fb .LASF882
C:\Users\stapi\AppData\Local\Temp\cc2hhySa.s:20046  .debug_str:00000000000028c7 .LASF883
C:\Users\stapi\AppData\Local\Temp\cc2hhySa.s:18964  .debug_str:000000000000093e .LASF884
C:\Users\stapi\AppData\Local\Temp\cc2hhySa.s:19284  .debug_str:000000000000128b .LASF885
C:\Users\stapi\AppData\Local\Temp\cc2hhySa.s:21240  .debug_str:0000000000004cd5 .LASF886
C:\Users\stapi\AppData\Local\Temp\cc2hhySa.s:20440  .debug_str:0000000000003611 .LASF887
C:\Users\stapi\AppData\Local\Temp\cc2hhySa.s:21206  .debug_str:0000000000004bdb .LASF888
C:\Users\stapi\AppData\Local\Temp\cc2hhySa.s:18978  .debug_str:000000000000098c .LASF889
C:\Users\stapi\AppData\Local\Temp\cc2hhySa.s:20814  .debug_str:0000000000004059 .LASF890
C:\Users\stapi\AppData\Local\Temp\cc2hhySa.s:19084  .debug_str:0000000000000ca3 .LASF891
C:\Users\stapi\AppData\Local\Temp\cc2hhySa.s:19544  .debug_str:0000000000001a0a .LASF892
C:\Users\stapi\AppData\Local\Temp\cc2hhySa.s:20602  .debug_str:0000000000003a83 .LASF893
C:\Users\stapi\AppData\Local\Temp\cc2hhySa.s:19686  .debug_str:0000000000001dea .LASF894
C:\Users\stapi\AppData\Local\Temp\cc2hhySa.s:19718  .debug_str:0000000000001efc .LASF895
C:\Users\stapi\AppData\Local\Temp\cc2hhySa.s:20146  .debug_str:0000000000002bea .LASF896
C:\Users\stapi\AppData\Local\Temp\cc2hhySa.s:21408  .debug_str:0000000000005224 .LASF897
C:\Users\stapi\AppData\Local\Temp\cc2hhySa.s:19706  .debug_str:0000000000001e9f .LASF898
C:\Users\stapi\AppData\Local\Temp\cc2hhySa.s:20812  .debug_str:0000000000004050 .LASF899
C:\Users\stapi\AppData\Local\Temp\cc2hhySa.s:21280  .debug_str:0000000000004dfb .LASF900
C:\Users\stapi\AppData\Local\Temp\cc2hhySa.s:19896  .debug_str:0000000000002472 .LASF901
C:\Users\stapi\AppData\Local\Temp\cc2hhySa.s:18856  .debug_str:0000000000000651 .LASF902
C:\Users\stapi\AppData\Local\Temp\cc2hhySa.s:19410  .debug_str:0000000000001634 .LASF903
C:\Users\stapi\AppData\Local\Temp\cc2hhySa.s:19386  .debug_str:0000000000001590 .LASF904
C:\Users\stapi\AppData\Local\Temp\cc2hhySa.s:19172  .debug_str:0000000000000f58 .LASF905
C:\Users\stapi\AppData\Local\Temp\cc2hhySa.s:21286  .debug_str:0000000000004e26 .LASF906
C:\Users\stapi\AppData\Local\Temp\cc2hhySa.s:20504  .debug_str:00000000000037d3 .LASF907
C:\Users\stapi\AppData\Local\Temp\cc2hhySa.s:20454  .debug_str:0000000000003698 .LASF908
C:\Users\stapi\AppData\Local\Temp\cc2hhySa.s:20088  .debug_str:0000000000002a28 .LASF909
C:\Users\stapi\AppData\Local\Temp\cc2hhySa.s:18762  .debug_str:00000000000003af .LASF910
C:\Users\stapi\AppData\Local\Temp\cc2hhySa.s:19316  .debug_str:0000000000001376 .LASF911
C:\Users\stapi\AppData\Local\Temp\cc2hhySa.s:20338  .debug_str:00000000000032ef .LASF912
C:\Users\stapi\AppData\Local\Temp\cc2hhySa.s:19464  .debug_str:00000000000017b7 .LASF913
C:\Users\stapi\AppData\Local\Temp\cc2hhySa.s:20592  .debug_str:0000000000003a38 .LASF914
C:\Users\stapi\AppData\Local\Temp\cc2hhySa.s:20880  .debug_str:0000000000004247 .LASF915
C:\Users\stapi\AppData\Local\Temp\cc2hhySa.s:19304  .debug_str:0000000000001319 .LASF916
C:\Users\stapi\AppData\Local\Temp\cc2hhySa.s:20292  .debug_str:000000000000314a .LASF917
C:\Users\stapi\AppData\Local\Temp\cc2hhySa.s:20094  .debug_str:0000000000002a57 .LASF918
C:\Users\stapi\AppData\Local\Temp\cc2hhySa.s:20096  .debug_str:0000000000002a64 .LASF919
C:\Users\stapi\AppData\Local\Temp\cc2hhySa.s:20828  .debug_str:00000000000040c8 .LASF920
C:\Users\stapi\AppData\Local\Temp\cc2hhySa.s:19054  .debug_str:0000000000000bc5 .LASF921
C:\Users\stapi\AppData\Local\Temp\cc2hhySa.s:20062  .debug_str:0000000000002940 .LASF922
C:\Users\stapi\AppData\Local\Temp\cc2hhySa.s:19568  .debug_str:0000000000001aab .LASF923
C:\Users\stapi\AppData\Local\Temp\cc2hhySa.s:20628  .debug_str:0000000000003b35 .LASF924
C:\Users\stapi\AppData\Local\Temp\cc2hhySa.s:19578  .debug_str:0000000000001af2 .LASF925
C:\Users\stapi\AppData\Local\Temp\cc2hhySa.s:18930  .debug_str:000000000000083a .LASF926
C:\Users\stapi\AppData\Local\Temp\cc2hhySa.s:19452  .debug_str:000000000000175c .LASF927
C:\Users\stapi\AppData\Local\Temp\cc2hhySa.s:21386  .debug_str:0000000000005171 .LASF928
C:\Users\stapi\AppData\Local\Temp\cc2hhySa.s:18726  .debug_str:0000000000000217 .LASF929
C:\Users\stapi\AppData\Local\Temp\cc2hhySa.s:19150  .debug_str:0000000000000eaf .LASF930
C:\Users\stapi\AppData\Local\Temp\cc2hhySa.s:20926  .debug_str:0000000000004381 .LASF931
C:\Users\stapi\AppData\Local\Temp\cc2hhySa.s:19562  .debug_str:0000000000001a96 .LASF932
C:\Users\stapi\AppData\Local\Temp\cc2hhySa.s:19656  .debug_str:0000000000001d0f .LASF933
C:\Users\stapi\AppData\Local\Temp\cc2hhySa.s:19816  .debug_str:00000000000021e9 .LASF934
C:\Users\stapi\AppData\Local\Temp\cc2hhySa.s:19682  .debug_str:0000000000001dcb .LASF935
C:\Users\stapi\AppData\Local\Temp\cc2hhySa.s:19214  .debug_str:0000000000001085 .LASF936
C:\Users\stapi\AppData\Local\Temp\cc2hhySa.s:18728  .debug_str:0000000000000222 .LASF937
C:\Users\stapi\AppData\Local\Temp\cc2hhySa.s:20546  .debug_str:00000000000038de .LASF938
C:\Users\stapi\AppData\Local\Temp\cc2hhySa.s:20336  .debug_str:00000000000032d9 .LASF939
C:\Users\stapi\AppData\Local\Temp\cc2hhySa.s:21024  .debug_str:000000000000466e .LASF940
C:\Users\stapi\AppData\Local\Temp\cc2hhySa.s:21300  .debug_str:0000000000004e8d .LASF941
C:\Users\stapi\AppData\Local\Temp\cc2hhySa.s:21338  .debug_str:0000000000005023 .LASF942
C:\Users\stapi\AppData\Local\Temp\cc2hhySa.s:20288  .debug_str:0000000000003138 .LASF943
C:\Users\stapi\AppData\Local\Temp\cc2hhySa.s:20112  .debug_str:0000000000002ad8 .LASF944
C:\Users\stapi\AppData\Local\Temp\cc2hhySa.s:19336  .debug_str:0000000000001435 .LASF945
C:\Users\stapi\AppData\Local\Temp\cc2hhySa.s:21208  .debug_str:0000000000004be9 .LASF946
C:\Users\stapi\AppData\Local\Temp\cc2hhySa.s:20948  .debug_str:0000000000004448 .LASF947
C:\Users\stapi\AppData\Local\Temp\cc2hhySa.s:19540  .debug_str:00000000000019f3 .LASF948
C:\Users\stapi\AppData\Local\Temp\cc2hhySa.s:20086  .debug_str:0000000000002a13 .LASF949
C:\Users\stapi\AppData\Local\Temp\cc2hhySa.s:18812  .debug_str:0000000000000507 .LASF950
C:\Users\stapi\AppData\Local\Temp\cc2hhySa.s:20274  .debug_str:00000000000030cd .LASF951
C:\Users\stapi\AppData\Local\Temp\cc2hhySa.s:19210  .debug_str:0000000000001072 .LASF952
C:\Users\stapi\AppData\Local\Temp\cc2hhySa.s:19418  .debug_str:0000000000001667 .LASF953
C:\Users\stapi\AppData\Local\Temp\cc2hhySa.s:19550  .debug_str:0000000000001a33 .LASF954
C:\Users\stapi\AppData\Local\Temp\cc2hhySa.s:19910  .debug_str:00000000000024e3 .LASF955
C:\Users\stapi\AppData\Local\Temp\cc2hhySa.s:20316  .debug_str:0000000000003226 .LASF956
C:\Users\stapi\AppData\Local\Temp\cc2hhySa.s:20688  .debug_str:0000000000003cc7 .LASF957
C:\Users\stapi\AppData\Local\Temp\cc2hhySa.s:18786  .debug_str:0000000000000457 .LASF958
C:\Users\stapi\AppData\Local\Temp\cc2hhySa.s:18714  .debug_str:00000000000001ae .LASF959
C:\Users\stapi\AppData\Local\Temp\cc2hhySa.s:18884  .debug_str:000000000000071d .LASF960
C:\Users\stapi\AppData\Local\Temp\cc2hhySa.s:20590  .debug_str:0000000000003a2e .LASF961
C:\Users\stapi\AppData\Local\Temp\cc2hhySa.s:18870  .debug_str:00000000000006ba .LASF962
C:\Users\stapi\AppData\Local\Temp\cc2hhySa.s:20384  .debug_str:000000000000345d .LASF963
C:\Users\stapi\AppData\Local\Temp\cc2hhySa.s:21482  .debug_str:0000000000005443 .LASF964
C:\Users\stapi\AppData\Local\Temp\cc2hhySa.s:20946  .debug_str:000000000000443d .LASF965
C:\Users\stapi\AppData\Local\Temp\cc2hhySa.s:20472  .debug_str:0000000000003706 .LASF966
C:\Users\stapi\AppData\Local\Temp\cc2hhySa.s:21320  .debug_str:0000000000004f16 .LASF967
C:\Users\stapi\AppData\Local\Temp\cc2hhySa.s:19690  .debug_str:0000000000001e13 .LASF968
C:\Users\stapi\AppData\Local\Temp\cc2hhySa.s:20450  .debug_str:0000000000003674 .LASF969
C:\Users\stapi\AppData\Local\Temp\cc2hhySa.s:18868  .debug_str:00000000000006ab .LASF970
C:\Users\stapi\AppData\Local\Temp\cc2hhySa.s:20650  .debug_str:0000000000003bcd .LASF971
C:\Users\stapi\AppData\Local\Temp\cc2hhySa.s:20996  .debug_str:000000000000459a .LASF972
C:\Users\stapi\AppData\Local\Temp\cc2hhySa.s:20850  .debug_str:0000000000004143 .LASF973
C:\Users\stapi\AppData\Local\Temp\cc2hhySa.s:19566  .debug_str:0000000000001aa6 .LASF974
C:\Users\stapi\AppData\Local\Temp\cc2hhySa.s:19112  .debug_str:0000000000000d8d .LASF975
C:\Users\stapi\AppData\Local\Temp\cc2hhySa.s:19510  .debug_str:0000000000001919 .LASF976
C:\Users\stapi\AppData\Local\Temp\cc2hhySa.s:20466  .debug_str:00000000000036e1 .LASF977
C:\Users\stapi\AppData\Local\Temp\cc2hhySa.s:20236  .debug_str:0000000000002ea3 .LASF978
C:\Users\stapi\AppData\Local\Temp\cc2hhySa.s:21274  .debug_str:0000000000004dd0 .LASF979
C:\Users\stapi\AppData\Local\Temp\cc2hhySa.s:18992  .debug_str:00000000000009e2 .LASF980
C:\Users\stapi\AppData\Local\Temp\cc2hhySa.s:21152  .debug_str:0000000000004a2a .LASF981
C:\Users\stapi\AppData\Local\Temp\cc2hhySa.s:18936  .debug_str:0000000000000861 .LASF982
C:\Users\stapi\AppData\Local\Temp\cc2hhySa.s:18672  .debug_str:0000000000000077 .LASF983
C:\Users\stapi\AppData\Local\Temp\cc2hhySa.s:20748  .debug_str:0000000000003e57 .LASF984
C:\Users\stapi\AppData\Local\Temp\cc2hhySa.s:21458  .debug_str:000000000000539a .LASF985
C:\Users\stapi\AppData\Local\Temp\cc2hhySa.s:21192  .debug_str:0000000000004b6d .LASF986
C:\Users\stapi\AppData\Local\Temp\cc2hhySa.s:21030  .debug_str:000000000000469c .LASF987
C:\Users\stapi\AppData\Local\Temp\cc2hhySa.s:19236  .debug_str:0000000000001121 .LASF988
C:\Users\stapi\AppData\Local\Temp\cc2hhySa.s:19938  .debug_str:00000000000025d0 .LASF989
C:\Users\stapi\AppData\Local\Temp\cc2hhySa.s:19606  .debug_str:0000000000001baa .LASF990
C:\Users\stapi\AppData\Local\Temp\cc2hhySa.s:19270  .debug_str:0000000000001222 .LASF991
C:\Users\stapi\AppData\Local\Temp\cc2hhySa.s:19844  .debug_str:00000000000022ca .LASF992
C:\Users\stapi\AppData\Local\Temp\cc2hhySa.s:19004  .debug_str:0000000000000a2e .LASF993
C:\Users\stapi\AppData\Local\Temp\cc2hhySa.s:18662  .debug_str:0000000000000022 .LASF994
C:\Users\stapi\AppData\Local\Temp\cc2hhySa.s:18716  .debug_str:00000000000001bb .LASF995
C:\Users\stapi\AppData\Local\Temp\cc2hhySa.s:19438  .debug_str:00000000000016fc .LASF996
C:\Users\stapi\AppData\Local\Temp\cc2hhySa.s:20834  .debug_str:00000000000040ef .LASF997
C:\Users\stapi\AppData\Local\Temp\cc2hhySa.s:20428  .debug_str:00000000000035b8 .LASF998
C:\Users\stapi\AppData\Local\Temp\cc2hhySa.s:20534  .debug_str:0000000000003891 .LASF999
C:\Users\stapi\AppData\Local\Temp\cc2hhySa.s:20364  .debug_str:00000000000033c5 .LASF1000
C:\Users\stapi\AppData\Local\Temp\cc2hhySa.s:19892  .debug_str:0000000000002453 .LASF1001
C:\Users\stapi\AppData\Local\Temp\cc2hhySa.s:20942  .debug_str:000000000000440a .LASF1002
C:\Users\stapi\AppData\Local\Temp\cc2hhySa.s:20262  .debug_str:000000000000304e .LASF1003
C:\Users\stapi\AppData\Local\Temp\cc2hhySa.s:21318  .debug_str:0000000000004efb .LASF1004
C:\Users\stapi\AppData\Local\Temp\cc2hhySa.s:21260  .debug_str:0000000000004d6f .LASF1005
C:\Users\stapi\AppData\Local\Temp\cc2hhySa.s:18796  .debug_str:000000000000048e .LASF1006
C:\Users\stapi\AppData\Local\Temp\cc2hhySa.s:20718  .debug_str:0000000000003d9f .LASF1007
C:\Users\stapi\AppData\Local\Temp\cc2hhySa.s:20298  .debug_str:0000000000003173 .LASF1008
C:\Users\stapi\AppData\Local\Temp\cc2hhySa.s:19184  .debug_str:0000000000000fb1 .LASF1009
C:\Users\stapi\AppData\Local\Temp\cc2hhySa.s:20436  .debug_str:00000000000035de .LASF1010
C:\Users\stapi\AppData\Local\Temp\cc2hhySa.s:19636  .debug_str:0000000000001c6a .LASF1011
C:\Users\stapi\AppData\Local\Temp\cc2hhySa.s:18684  .debug_str:00000000000000c8 .LASF1012
C:\Users\stapi\AppData\Local\Temp\cc2hhySa.s:20972  .debug_str:00000000000044dc .LASF1013
C:\Users\stapi\AppData\Local\Temp\cc2hhySa.s:20418  .debug_str:0000000000003568 .LASF1014
C:\Users\stapi\AppData\Local\Temp\cc2hhySa.s:19604  .debug_str:0000000000001b90 .LASF1015
C:\Users\stapi\AppData\Local\Temp\cc2hhySa.s:18952  .debug_str:00000000000008ec .LASF1016
C:\Users\stapi\AppData\Local\Temp\cc2hhySa.s:19526  .debug_str:0000000000001989 .LASF1017
C:\Users\stapi\AppData\Local\Temp\cc2hhySa.s:20222  .debug_str:0000000000002e3f .LASF1018
C:\Users\stapi\AppData\Local\Temp\cc2hhySa.s:20420  .debug_str:0000000000003573 .LASF1019
C:\Users\stapi\AppData\Local\Temp\cc2hhySa.s:20056  .debug_str:0000000000002905 .LASF1020
C:\Users\stapi\AppData\Local\Temp\cc2hhySa.s:20552  .debug_str:0000000000003904 .LASF1021
C:\Users\stapi\AppData\Local\Temp\cc2hhySa.s:20772  .debug_str:0000000000003f2b .LASF1022
C:\Users\stapi\AppData\Local\Temp\cc2hhySa.s:19468  .debug_str:00000000000017d1 .LASF1023
C:\Users\stapi\AppData\Local\Temp\cc2hhySa.s:21244  .debug_str:0000000000004cff .LASF1024
C:\Users\stapi\AppData\Local\Temp\cc2hhySa.s:21412  .debug_str:0000000000005252 .LASF1025
C:\Users\stapi\AppData\Local\Temp\cc2hhySa.s:19590  .debug_str:0000000000001b36 .LASF1026
C:\Users\stapi\AppData\Local\Temp\cc2hhySa.s:19346  .debug_str:000000000000146c .LASF1027
C:\Users\stapi\AppData\Local\Temp\cc2hhySa.s:19968  .debug_str:00000000000026a2 .LASF1028
C:\Users\stapi\AppData\Local\Temp\cc2hhySa.s:20908  .debug_str:0000000000004310 .LASF1029
C:\Users\stapi\AppData\Local\Temp\cc2hhySa.s:19378  .debug_str:000000000000155b .LASF1030
C:\Users\stapi\AppData\Local\Temp\cc2hhySa.s:20846  .debug_str:000000000000412c .LASF1031
C:\Users\stapi\AppData\Local\Temp\cc2hhySa.s:20674  .debug_str:0000000000003c72 .LASF1032
C:\Users\stapi\AppData\Local\Temp\cc2hhySa.s:19310  .debug_str:0000000000001345 .LASF1033
C:\Users\stapi\AppData\Local\Temp\cc2hhySa.s:20676  .debug_str:0000000000003c7b .LASF1034
C:\Users\stapi\AppData\Local\Temp\cc2hhySa.s:20992  .debug_str:000000000000457a .LASF1035
C:\Users\stapi\AppData\Local\Temp\cc2hhySa.s:20860  .debug_str:0000000000004192 .LASF1036
C:\Users\stapi\AppData\Local\Temp\cc2hhySa.s:20198  .debug_str:0000000000002d82 .LASF1037
C:\Users\stapi\AppData\Local\Temp\cc2hhySa.s:19484  .debug_str:0000000000001846 .LASF1038
C:\Users\stapi\AppData\Local\Temp\cc2hhySa.s:20058  .debug_str:0000000000002914 .LASF1039
C:\Users\stapi\AppData\Local\Temp\cc2hhySa.s:21450  .debug_str:000000000000535f .LASF1040
C:\Users\stapi\AppData\Local\Temp\cc2hhySa.s:19186  .debug_str:0000000000000fbc .LASF1041
C:\Users\stapi\AppData\Local\Temp\cc2hhySa.s:19766  .debug_str:000000000000205c .LASF1042
C:\Users\stapi\AppData\Local\Temp\cc2hhySa.s:21188  .debug_str:0000000000004b39 .LASF1043
C:\Users\stapi\AppData\Local\Temp\cc2hhySa.s:21484  .debug_str:000000000000545d .LASF1044
C:\Users\stapi\AppData\Local\Temp\cc2hhySa.s:20852  .debug_str:000000000000414c .LASF1045
C:\Users\stapi\AppData\Local\Temp\cc2hhySa.s:20416  .debug_str:0000000000003555 .LASF1046
C:\Users\stapi\AppData\Local\Temp\cc2hhySa.s:19242  .debug_str:0000000000001146 .LASF1047
C:\Users\stapi\AppData\Local\Temp\cc2hhySa.s:21430  .debug_str:00000000000052d3 .LASF1048
C:\Users\stapi\AppData\Local\Temp\cc2hhySa.s:20372  .debug_str:0000000000003404 .LASF1049
C:\Users\stapi\AppData\Local\Temp\cc2hhySa.s:20994  .debug_str:0000000000004581 .LASF1050
C:\Users\stapi\AppData\Local\Temp\cc2hhySa.s:20606  .debug_str:0000000000003a95 .LASF1051
C:\Users\stapi\AppData\Local\Temp\cc2hhySa.s:20658  .debug_str:0000000000003c02 .LASF1052
C:\Users\stapi\AppData\Local\Temp\cc2hhySa.s:20886  .debug_str:000000000000426e .LASF1053
C:\Users\stapi\AppData\Local\Temp\cc2hhySa.s:19408  .debug_str:000000000000162a .LASF1054
C:\Users\stapi\AppData\Local\Temp\cc2hhySa.s:20250  .debug_str:0000000000002ffc .LASF1055
C:\Users\stapi\AppData\Local\Temp\cc2hhySa.s:21204  .debug_str:0000000000004bc9 .LASF1056
C:\Users\stapi\AppData\Local\Temp\cc2hhySa.s:20180  .debug_str:0000000000002ce6 .LASF1057
C:\Users\stapi\AppData\Local\Temp\cc2hhySa.s:20022  .debug_str:000000000000281a .LASF1058
C:\Users\stapi\AppData\Local\Temp\cc2hhySa.s:21382  .debug_str:0000000000005148 .LASF1059
C:\Users\stapi\AppData\Local\Temp\cc2hhySa.s:19416  .debug_str:000000000000165c .LASF1060
C:\Users\stapi\AppData\Local\Temp\cc2hhySa.s:21038  .debug_str:00000000000046cb .LASF1061
C:\Users\stapi\AppData\Local\Temp\cc2hhySa.s:18806  .debug_str:00000000000004db .LASF1062
C:\Users\stapi\AppData\Local\Temp\cc2hhySa.s:20324  .debug_str:000000000000325f .LASF1063
C:\Users\stapi\AppData\Local\Temp\cc2hhySa.s:21388  .debug_str:000000000000518d .LASF1064
C:\Users\stapi\AppData\Local\Temp\cc2hhySa.s:18892  .debug_str:000000000000075f .LASF1065
C:\Users\stapi\AppData\Local\Temp\cc2hhySa.s:21468  .debug_str:00000000000053d8 .LASF1066
C:\Users\stapi\AppData\Local\Temp\cc2hhySa.s:20802  .debug_str:0000000000003ff7 .LASF1067
C:\Users\stapi\AppData\Local\Temp\cc2hhySa.s:21330  .debug_str:0000000000004fe0 .LASF1068
C:\Users\stapi\AppData\Local\Temp\cc2hhySa.s:19554  .debug_str:0000000000001a51 .LASF1069
C:\Users\stapi\AppData\Local\Temp\cc2hhySa.s:19792  .debug_str:0000000000002123 .LASF1070
C:\Users\stapi\AppData\Local\Temp\cc2hhySa.s:19548  .debug_str:0000000000001a21 .LASF1071
C:\Users\stapi\AppData\Local\Temp\cc2hhySa.s:20878  .debug_str:0000000000004237 .LASF1072
C:\Users\stapi\AppData\Local\Temp\cc2hhySa.s:21120  .debug_str:000000000000494c .LASF1073
C:\Users\stapi\AppData\Local\Temp\cc2hhySa.s:21256  .debug_str:0000000000004d53 .LASF1074
C:\Users\stapi\AppData\Local\Temp\cc2hhySa.s:20218  .debug_str:0000000000002e1e .LASF1075
C:\Users\stapi\AppData\Local\Temp\cc2hhySa.s:20730  .debug_str:0000000000003de1 .LASF1076
C:\Users\stapi\AppData\Local\Temp\cc2hhySa.s:20020  .debug_str:0000000000002813 .LASF1077
C:\Users\stapi\AppData\Local\Temp\cc2hhySa.s:21194  .debug_str:0000000000004b7d .LASF1078
C:\Users\stapi\AppData\Local\Temp\cc2hhySa.s:18848  .debug_str:0000000000000625 .LASF1079
C:\Users\stapi\AppData\Local\Temp\cc2hhySa.s:19090  .debug_str:0000000000000cef .LASF1080
C:\Users\stapi\AppData\Local\Temp\cc2hhySa.s:20848  .debug_str:000000000000413c .LASF1081
C:\Users\stapi\AppData\Local\Temp\cc2hhySa.s:21080  .debug_str:0000000000004836 .LASF1082
C:\Users\stapi\AppData\Local\Temp\cc2hhySa.s:19872  .debug_str:00000000000023a3 .LASF1083
C:\Users\stapi\AppData\Local\Temp\cc2hhySa.s:19086  .debug_str:0000000000000cba .LASF1084
C:\Users\stapi\AppData\Local\Temp\cc2hhySa.s:20550  .debug_str:00000000000038f9 .LASF1085
C:\Users\stapi\AppData\Local\Temp\cc2hhySa.s:20360  .debug_str:00000000000033ac .LASF1086
C:\Users\stapi\AppData\Local\Temp\cc2hhySa.s:19268  .debug_str:0000000000001213 .LASF1087
C:\Users\stapi\AppData\Local\Temp\cc2hhySa.s:19980  .debug_str:0000000000002705 .LASF1088
C:\Users\stapi\AppData\Local\Temp\cc2hhySa.s:18760  .debug_str:000000000000039f .LASF1089
C:\Users\stapi\AppData\Local\Temp\cc2hhySa.s:20220  .debug_str:0000000000002e2e .LASF1090
C:\Users\stapi\AppData\Local\Temp\cc2hhySa.s:20622  .debug_str:0000000000003aff .LASF1091
C:\Users\stapi\AppData\Local\Temp\cc2hhySa.s:19440  .debug_str:0000000000001718 .LASF1092
C:\Users\stapi\AppData\Local\Temp\cc2hhySa.s:20078  .debug_str:00000000000029cf .LASF1093
C:\Users\stapi\AppData\Local\Temp\cc2hhySa.s:20342  .debug_str:0000000000003309 .LASF1094
C:\Users\stapi\AppData\Local\Temp\cc2hhySa.s:20018  .debug_str:0000000000002808 .LASF1095
C:\Users\stapi\AppData\Local\Temp\cc2hhySa.s:19240  .debug_str:000000000000113e .LASF1096
C:\Users\stapi\AppData\Local\Temp\cc2hhySa.s:19748  .debug_str:0000000000001fd0 .LASF1097
C:\Users\stapi\AppData\Local\Temp\cc2hhySa.s:19874  .debug_str:00000000000023ae .LASF1098
C:\Users\stapi\AppData\Local\Temp\cc2hhySa.s:20054  .debug_str:00000000000028f7 .LASF1099
C:\Users\stapi\AppData\Local\Temp\cc2hhySa.s:19472  .debug_str:00000000000017ec .LASF1100
C:\Users\stapi\AppData\Local\Temp\cc2hhySa.s:19782  .debug_str:00000000000020da .LASF1101
C:\Users\stapi\AppData\Local\Temp\cc2hhySa.s:20716  .debug_str:0000000000003d89 .LASF1102
C:\Users\stapi\AppData\Local\Temp\cc2hhySa.s:21176  .debug_str:0000000000004ad3 .LASF1103
C:\Users\stapi\AppData\Local\Temp\cc2hhySa.s:21454  .debug_str:0000000000005382 .LASF1104
C:\Users\stapi\AppData\Local\Temp\cc2hhySa.s:19804  .debug_str:0000000000002172 .LASF1105
C:\Users\stapi\AppData\Local\Temp\cc2hhySa.s:19080  .debug_str:0000000000000c84 .LASF1106
C:\Users\stapi\AppData\Local\Temp\cc2hhySa.s:18736  .debug_str:0000000000000267 .LASF1107
C:\Users\stapi\AppData\Local\Temp\cc2hhySa.s:19722  .debug_str:0000000000001f28 .LASF1108
C:\Users\stapi\AppData\Local\Temp\cc2hhySa.s:20228  .debug_str:0000000000002e72 .LASF1109
C:\Users\stapi\AppData\Local\Temp\cc2hhySa.s:19662  .debug_str:0000000000001d36 .LASF1110
C:\Users\stapi\AppData\Local\Temp\cc2hhySa.s:20680  .debug_str:0000000000003c8b .LASF1111
C:\Users\stapi\AppData\Local\Temp\cc2hhySa.s:21246  .debug_str:0000000000004d10 .LASF1112
C:\Users\stapi\AppData\Local\Temp\cc2hhySa.s:19058  .debug_str:0000000000000bfa .LASF1113
C:\Users\stapi\AppData\Local\Temp\cc2hhySa.s:20312  .debug_str:000000000000320d .LASF1114
C:\Users\stapi\AppData\Local\Temp\cc2hhySa.s:20696  .debug_str:0000000000003d06 .LASF1115
C:\Users\stapi\AppData\Local\Temp\cc2hhySa.s:21258  .debug_str:0000000000004d61 .LASF1116
C:\Users\stapi\AppData\Local\Temp\cc2hhySa.s:21198  .debug_str:0000000000004b9d .LASF1117
C:\Users\stapi\AppData\Local\Temp\cc2hhySa.s:20140  .debug_str:0000000000002bc2 .LASF1118
C:\Users\stapi\AppData\Local\Temp\cc2hhySa.s:20474  .debug_str:0000000000003710 .LASF1119
C:\Users\stapi\AppData\Local\Temp\cc2hhySa.s:19220  .debug_str:00000000000010bc .LASF1120
C:\Users\stapi\AppData\Local\Temp\cc2hhySa.s:19334  .debug_str:000000000000141d .LASF1121
C:\Users\stapi\AppData\Local\Temp\cc2hhySa.s:21190  .debug_str:0000000000004b58 .LASF1122
C:\Users\stapi\AppData\Local\Temp\cc2hhySa.s:19156  .debug_str:0000000000000edc .LASF1123
C:\Users\stapi\AppData\Local\Temp\cc2hhySa.s:19162  .debug_str:0000000000000f0d .LASF1124
C:\Users\stapi\AppData\Local\Temp\cc2hhySa.s:21474  .debug_str:0000000000005402 .LASF1125
C:\Users\stapi\AppData\Local\Temp\cc2hhySa.s:21042  .debug_str:00000000000046ed .LASF1126
C:\Users\stapi\AppData\Local\Temp\cc2hhySa.s:20182  .debug_str:0000000000002cf8 .LASF1127
C:\Users\stapi\AppData\Local\Temp\cc2hhySa.s:19720  .debug_str:0000000000001f0e .LASF1128
C:\Users\stapi\AppData\Local\Temp\cc2hhySa.s:19218  .debug_str:00000000000010a1 .LASF1129
C:\Users\stapi\AppData\Local\Temp\cc2hhySa.s:19358  .debug_str:00000000000014b5 .LASF1130
C:\Users\stapi\AppData\Local\Temp\cc2hhySa.s:19288  .debug_str:00000000000012b6 .LASF1131
C:\Users\stapi\AppData\Local\Temp\cc2hhySa.s:20394  .debug_str:00000000000034ac .LASF1132
C:\Users\stapi\AppData\Local\Temp\cc2hhySa.s:18818  .debug_str:000000000000053b .LASF1133
C:\Users\stapi\AppData\Local\Temp\cc2hhySa.s:19714  .debug_str:0000000000001ede .LASF1134
C:\Users\stapi\AppData\Local\Temp\cc2hhySa.s:21440  .debug_str:0000000000005328 .LASF1135
C:\Users\stapi\AppData\Local\Temp\cc2hhySa.s:20476  .debug_str:000000000000371c .LASF1136
C:\Users\stapi\AppData\Local\Temp\cc2hhySa.s:20226  .debug_str:0000000000002e60 .LASF1137
C:\Users\stapi\AppData\Local\Temp\cc2hhySa.s:19696  .debug_str:0000000000001e40 .LASF1138
C:\Users\stapi\AppData\Local\Temp\cc2hhySa.s:20166  .debug_str:0000000000002c6c .LASF1139
C:\Users\stapi\AppData\Local\Temp\cc2hhySa.s:19588  .debug_str:0000000000001b2c .LASF1140
C:\Users\stapi\AppData\Local\Temp\cc2hhySa.s:18768  .debug_str:00000000000003d6 .LASF1141
C:\Users\stapi\AppData\Local\Temp\cc2hhySa.s:18770  .debug_str:00000000000003e2 .LASF1142
C:\Users\stapi\AppData\Local\Temp\cc2hhySa.s:19426  .debug_str:000000000000169b .LASF1143
C:\Users\stapi\AppData\Local\Temp\cc2hhySa.s:20176  .debug_str:0000000000002cca .LASF1144
C:\Users\stapi\AppData\Local\Temp\cc2hhySa.s:19154  .debug_str:0000000000000ed3 .LASF1145
C:\Users\stapi\AppData\Local\Temp\cc2hhySa.s:21354  .debug_str:0000000000005086 .LASF1146
C:\Users\stapi\AppData\Local\Temp\cc2hhySa.s:20038  .debug_str:0000000000002888 .LASF1147
C:\Users\stapi\AppData\Local\Temp\cc2hhySa.s:20562  .debug_str:0000000000003945 .LASF1148
C:\Users\stapi\AppData\Local\Temp\cc2hhySa.s:20560  .debug_str:0000000000003933 .LASF1149
C:\Users\stapi\AppData\Local\Temp\cc2hhySa.s:20348  .debug_str:0000000000003340 .LASF1150
C:\Users\stapi\AppData\Local\Temp\cc2hhySa.s:19750  .debug_str:0000000000001fda .LASF1151
C:\Users\stapi\AppData\Local\Temp\cc2hhySa.s:20272  .debug_str:00000000000030c0 .LASF1152
C:\Users\stapi\AppData\Local\Temp\cc2hhySa.s:21362  .debug_str:00000000000050c3 .LASF1153
C:\Users\stapi\AppData\Local\Temp\cc2hhySa.s:19724  .debug_str:0000000000001f30 .LASF1154
C:\Users\stapi\AppData\Local\Temp\cc2hhySa.s:21356  .debug_str:0000000000005092 .LASF1155
C:\Users\stapi\AppData\Local\Temp\cc2hhySa.s:21262  .debug_str:0000000000004d7b .LASF1156
C:\Users\stapi\AppData\Local\Temp\cc2hhySa.s:18814  .debug_str:000000000000051d .LASF1157
C:\Users\stapi\AppData\Local\Temp\cc2hhySa.s:18698  .debug_str:0000000000000134 .LASF1158
C:\Users\stapi\AppData\Local\Temp\cc2hhySa.s:19642  .debug_str:0000000000001c84 .LASF1159
C:\Users\stapi\AppData\Local\Temp\cc2hhySa.s:19924  .debug_str:000000000000255c .LASF1160
C:\Users\stapi\AppData\Local\Temp\cc2hhySa.s:19006  .debug_str:0000000000000a4c .LASF1161
C:\Users\stapi\AppData\Local\Temp\cc2hhySa.s:20124  .debug_str:0000000000002b26 .LASF1162
C:\Users\stapi\AppData\Local\Temp\cc2hhySa.s:20116  .debug_str:0000000000002af1 .LASF1163
C:\Users\stapi\AppData\Local\Temp\cc2hhySa.s:20060  .debug_str:0000000000002923 .LASF1164
C:\Users\stapi\AppData\Local\Temp\cc2hhySa.s:19152  .debug_str:0000000000000eb9 .LASF1165
C:\Users\stapi\AppData\Local\Temp\cc2hhySa.s:18966  .debug_str:0000000000000948 .LASF1166
C:\Users\stapi\AppData\Local\Temp\cc2hhySa.s:19794  .debug_str:0000000000002131 .LASF1167
C:\Users\stapi\AppData\Local\Temp\cc2hhySa.s:19726  .debug_str:0000000000001f39 .LASF1168
C:\Users\stapi\AppData\Local\Temp\cc2hhySa.s:18934  .debug_str:0000000000000857 .LASF1169
C:\Users\stapi\AppData\Local\Temp\cc2hhySa.s:19984  .debug_str:000000000000271e .LASF1170
C:\Users\stapi\AppData\Local\Temp\cc2hhySa.s:18718  .debug_str:00000000000001d3 .LASF1171
C:\Users\stapi\AppData\Local\Temp\cc2hhySa.s:19822  .debug_str:0000000000002210 .LASF1172
C:\Users\stapi\AppData\Local\Temp\cc2hhySa.s:21232  .debug_str:0000000000004c92 .LASF1173
C:\Users\stapi\AppData\Local\Temp\cc2hhySa.s:20492  .debug_str:000000000000377d .LASF1174
C:\Users\stapi\AppData\Local\Temp\cc2hhySa.s:21376  .debug_str:0000000000005122 .LASF1175
C:\Users\stapi\AppData\Local\Temp\cc2hhySa.s:21100  .debug_str:00000000000048b1 .LASF1176
C:\Users\stapi\AppData\Local\Temp\cc2hhySa.s:19702  .debug_str:0000000000001e75 .LASF1177
C:\Users\stapi\AppData\Local\Temp\cc2hhySa.s:19454  .debug_str:0000000000001769 .LASF1178
C:\Users\stapi\AppData\Local\Temp\cc2hhySa.s:19694  .debug_str:0000000000001e2f .LASF1179
C:\Users\stapi\AppData\Local\Temp\cc2hhySa.s:20102  .debug_str:0000000000002a95 .LASF1180
C:\Users\stapi\AppData\Local\Temp\cc2hhySa.s:20414  .debug_str:000000000000354f .LASF1181
C:\Users\stapi\AppData\Local\Temp\cc2hhySa.s:19632  .debug_str:0000000000001c4b .LASF1182
C:\Users\stapi\AppData\Local\Temp\cc2hhySa.s:21118  .debug_str:000000000000493f .LASF1183
C:\Users\stapi\AppData\Local\Temp\cc2hhySa.s:19456  .debug_str:0000000000001774 .LASF1184
C:\Users\stapi\AppData\Local\Temp\cc2hhySa.s:19018  .debug_str:0000000000000a99 .LASF1185
C:\Users\stapi\AppData\Local\Temp\cc2hhySa.s:20766  .debug_str:0000000000003ee0 .LASF1186
C:\Users\stapi\AppData\Local\Temp\cc2hhySa.s:18758  .debug_str:0000000000000382 .LASF1187
C:\Users\stapi\AppData\Local\Temp\cc2hhySa.s:19474  .debug_str:00000000000017fe .LASF1188
C:\Users\stapi\AppData\Local\Temp\cc2hhySa.s:21168  .debug_str:0000000000004a88 .LASF1189
C:\Users\stapi\AppData\Local\Temp\cc2hhySa.s:21052  .debug_str:0000000000004756 .LASF1190
C:\Users\stapi\AppData\Local\Temp\cc2hhySa.s:19962  .debug_str:0000000000002679 .LASF1191
C:\Users\stapi\AppData\Local\Temp\cc2hhySa.s:20388  .debug_str:000000000000348b .LASF1192
C:\Users\stapi\AppData\Local\Temp\cc2hhySa.s:20430  .debug_str:00000000000035c3 .LASF1193
C:\Users\stapi\AppData\Local\Temp\cc2hhySa.s:19522  .debug_str:000000000000196b .LASF1194
C:\Users\stapi\AppData\Local\Temp\cc2hhySa.s:19486  .debug_str:0000000000001869 .LASF1195
C:\Users\stapi\AppData\Local\Temp\cc2hhySa.s:20260  .debug_str:0000000000003036 .LASF1196
C:\Users\stapi\AppData\Local\Temp\cc2hhySa.s:19894  .debug_str:0000000000002465 .LASF1197
C:\Users\stapi\AppData\Local\Temp\cc2hhySa.s:20314  .debug_str:0000000000003220 .LASF1198
C:\Users\stapi\AppData\Local\Temp\cc2hhySa.s:20178  .debug_str:0000000000002cd6 .LASF1199
C:\Users\stapi\AppData\Local\Temp\cc2hhySa.s:20254  .debug_str:000000000000300c .LASF1200
C:\Users\stapi\AppData\Local\Temp\cc2hhySa.s:20490  .debug_str:0000000000003774 .LASF1201
C:\Users\stapi\AppData\Local\Temp\cc2hhySa.s:18826  .debug_str:0000000000000589 .LASF1202
C:\Users\stapi\AppData\Local\Temp\cc2hhySa.s:21288  .debug_str:0000000000004e39 .LASF1203
C:\Users\stapi\AppData\Local\Temp\cc2hhySa.s:20240  .debug_str:0000000000002ec9 .LASF1204
C:\Users\stapi\AppData\Local\Temp\cc2hhySa.s:19524  .debug_str:0000000000001980 .LASF1205
C:\Users\stapi\AppData\Local\Temp\cc2hhySa.s:20162  .debug_str:0000000000002c50 .LASF1206
C:\Users\stapi\AppData\Local\Temp\cc2hhySa.s:21222  .debug_str:0000000000004c3f .LASF1207
C:\Users\stapi\AppData\Local\Temp\cc2hhySa.s:20382  .debug_str:000000000000344c .LASF1208
C:\Users\stapi\AppData\Local\Temp\cc2hhySa.s:21034  .debug_str:00000000000046b7 .LASF1209
C:\Users\stapi\AppData\Local\Temp\cc2hhySa.s:19038  .debug_str:0000000000000b2f .LASF1210
C:\Users\stapi\AppData\Local\Temp\cc2hhySa.s:19650  .debug_str:0000000000001cdf .LASF1211
C:\Users\stapi\AppData\Local\Temp\cc2hhySa.s:19350  .debug_str:0000000000001485 .LASF1212
C:\Users\stapi\AppData\Local\Temp\cc2hhySa.s:18788  .debug_str:000000000000046d .LASF1213
C:\Users\stapi\AppData\Local\Temp\cc2hhySa.s:20610  .debug_str:0000000000003aac .LASF1214
C:\Users\stapi\AppData\Local\Temp\cc2hhySa.s:20576  .debug_str:00000000000039ad .LASF1215
C:\Users\stapi\AppData\Local\Temp\cc2hhySa.s:19520  .debug_str:0000000000001960 .LASF1216
C:\Users\stapi\AppData\Local\Temp\cc2hhySa.s:19164  .debug_str:0000000000000f21 .LASF1217
C:\Users\stapi\AppData\Local\Temp\cc2hhySa.s:20788  .debug_str:0000000000003fad .LASF1218
C:\Users\stapi\AppData\Local\Temp\cc2hhySa.s:18894  .debug_str:000000000000076a .LASF1219
C:\Users\stapi\AppData\Local\Temp\cc2hhySa.s:21224  .debug_str:0000000000004c48 .LASF1220
C:\Users\stapi\AppData\Local\Temp\cc2hhySa.s:18950  .debug_str:00000000000008d7 .LASF1221
C:\Users\stapi\AppData\Local\Temp\cc2hhySa.s:21342  .debug_str:000000000000503f .LASF1222
C:\Users\stapi\AppData\Local\Temp\cc2hhySa.s:19784  .debug_str:00000000000020ec .LASF1223
C:\Users\stapi\AppData\Local\Temp\cc2hhySa.s:18972  .debug_str:0000000000000968 .LASF1224
C:\Users\stapi\AppData\Local\Temp\cc2hhySa.s:19144  .debug_str:0000000000000e7b .LASF1225
C:\Users\stapi\AppData\Local\Temp\cc2hhySa.s:20374  .debug_str:0000000000003416 .LASF1226
C:\Users\stapi\AppData\Local\Temp\cc2hhySa.s:20642  .debug_str:0000000000003b9b .LASF1227
C:\Users\stapi\AppData\Local\Temp\cc2hhySa.s:20130  .debug_str:0000000000002b67 .LASF1228
C:\Users\stapi\AppData\Local\Temp\cc2hhySa.s:20774  .debug_str:0000000000003f39 .LASF1229
C:\Users\stapi\AppData\Local\Temp\cc2hhySa.s:20356  .debug_str:0000000000003396 .LASF1230
C:\Users\stapi\AppData\Local\Temp\cc2hhySa.s:19684  .debug_str:0000000000001dda .LASF1231
C:\Users\stapi\AppData\Local\Temp\cc2hhySa.s:21000  .debug_str:00000000000045ae .LASF1232
C:\Users\stapi\AppData\Local\Temp\cc2hhySa.s:21178  .debug_str:0000000000004ae2 .LASF1233
C:\Users\stapi\AppData\Local\Temp\cc2hhySa.s:20204  .debug_str:0000000000002dba .LASF1234
C:\Users\stapi\AppData\Local\Temp\cc2hhySa.s:19852  .debug_str:0000000000002317 .LASF1235
C:\Users\stapi\AppData\Local\Temp\cc2hhySa.s:20874  .debug_str:000000000000420b .LASF1236
C:\Users\stapi\AppData\Local\Temp\cc2hhySa.s:21122  .debug_str:000000000000495b .LASF1237
C:\Users\stapi\AppData\Local\Temp\cc2hhySa.s:18998  .debug_str:0000000000000a04 .LASF1238
C:\Users\stapi\AppData\Local\Temp\cc2hhySa.s:20516  .debug_str:000000000000381a .LASF1239
C:\Users\stapi\AppData\Local\Temp\cc2hhySa.s:20082  .debug_str:00000000000029f1 .LASF1240
C:\Users\stapi\AppData\Local\Temp\cc2hhySa.s:19698  .debug_str:0000000000001e4e .LASF1241
C:\Users\stapi\AppData\Local\Temp\cc2hhySa.s:20664  .debug_str:0000000000003c2f .LASF1242
C:\Users\stapi\AppData\Local\Temp\cc2hhySa.s:20902  .debug_str:00000000000042d5 .LASF1243
C:\Users\stapi\AppData\Local\Temp\cc2hhySa.s:21116  .debug_str:0000000000004932 .LASF1244
C:\Users\stapi\AppData\Local\Temp\cc2hhySa.s:21008  .debug_str:00000000000045e6 .LASF1245
C:\Users\stapi\AppData\Local\Temp\cc2hhySa.s:20750  .debug_str:0000000000003e65 .LASF1246
C:\Users\stapi\AppData\Local\Temp\cc2hhySa.s:18732  .debug_str:000000000000023b .LASF1247
C:\Users\stapi\AppData\Local\Temp\cc2hhySa.s:20036  .debug_str:0000000000002876 .LASF1248
C:\Users\stapi\AppData\Local\Temp\cc2hhySa.s:21360  .debug_str:00000000000050ad .LASF1249
C:\Users\stapi\AppData\Local\Temp\cc2hhySa.s:19072  .debug_str:0000000000000c5d .LASF1250
C:\Users\stapi\AppData\Local\Temp\cc2hhySa.s:19576  .debug_str:0000000000001ae3 .LASF1251
C:\Users\stapi\AppData\Local\Temp\cc2hhySa.s:20998  .debug_str:000000000000459f .LASF1252
C:\Users\stapi\AppData\Local\Temp\cc2hhySa.s:19560  .debug_str:0000000000001a8a .LASF1253
C:\Users\stapi\AppData\Local\Temp\cc2hhySa.s:19398  .debug_str:00000000000015f6 .LASF1254
C:\Users\stapi\AppData\Local\Temp\cc2hhySa.s:19754  .debug_str:0000000000001ff5 .LASF1255
C:\Users\stapi\AppData\Local\Temp\cc2hhySa.s:20566  .debug_str:000000000000395f .LASF1256
C:\Users\stapi\AppData\Local\Temp\cc2hhySa.s:19326  .debug_str:00000000000013b6 .LASF1257
C:\Users\stapi\AppData\Local\Temp\cc2hhySa.s:20098  .debug_str:0000000000002a71 .LASF1258
C:\Users\stapi\AppData\Local\Temp\cc2hhySa.s:19738  .debug_str:0000000000001f8a .LASF1259
C:\Users\stapi\AppData\Local\Temp\cc2hhySa.s:21426  .debug_str:00000000000052b5 .LASF1260
C:\Users\stapi\AppData\Local\Temp\cc2hhySa.s:19432  .debug_str:00000000000016be .LASF1261
C:\Users\stapi\AppData\Local\Temp\cc2hhySa.s:20238  .debug_str:0000000000002eb4 .LASF1262
C:\Users\stapi\AppData\Local\Temp\cc2hhySa.s:20068  .debug_str:0000000000002960 .LASF1263
C:\Users\stapi\AppData\Local\Temp\cc2hhySa.s:20982  .debug_str:000000000000452b .LASF1264
C:\Users\stapi\AppData\Local\Temp\cc2hhySa.s:19466  .debug_str:00000000000017cb .LASF1265
C:\Users\stapi\AppData\Local\Temp\cc2hhySa.s:20144  .debug_str:0000000000002bd9 .LASF1266
C:\Users\stapi\AppData\Local\Temp\cc2hhySa.s:19250  .debug_str:0000000000001176 .LASF1267
C:\Users\stapi\AppData\Local\Temp\cc2hhySa.s:20666  .debug_str:0000000000003c42 .LASF1268
C:\Users\stapi\AppData\Local\Temp\cc2hhySa.s:20556  .debug_str:000000000000391a .LASF1269
C:\Users\stapi\AppData\Local\Temp\cc2hhySa.s:21134  .debug_str:000000000000499b .LASF1270
C:\Users\stapi\AppData\Local\Temp\cc2hhySa.s:20270  .debug_str:00000000000030b6 .LASF1271
C:\Users\stapi\AppData\Local\Temp\cc2hhySa.s:20708  .debug_str:0000000000003d53 .LASF1272
C:\Users\stapi\AppData\Local\Temp\cc2hhySa.s:20442  .debug_str:000000000000361f .LASF1273
C:\Users\stapi\AppData\Local\Temp\cc2hhySa.s:20422  .debug_str:0000000000003582 .LASF1274
C:\Users\stapi\AppData\Local\Temp\cc2hhySa.s:19274  .debug_str:0000000000001239 .LASF1275
C:\Users\stapi\AppData\Local\Temp\cc2hhySa.s:19160  .debug_str:0000000000000eff .LASF1276
C:\Users\stapi\AppData\Local\Temp\cc2hhySa.s:21392  .debug_str:00000000000051ac .LASF1277
C:\Users\stapi\AppData\Local\Temp\cc2hhySa.s:20396  .debug_str:00000000000034bc .LASF1278
C:\Users\stapi\AppData\Local\Temp\cc2hhySa.s:20704  .debug_str:0000000000003d32 .LASF1279
C:\Users\stapi\AppData\Local\Temp\cc2hhySa.s:19146  .debug_str:0000000000000e8b .LASF1280
C:\Users\stapi\AppData\Local\Temp\cc2hhySa.s:20118  .debug_str:0000000000002b02 .LASF1281
C:\Users\stapi\AppData\Local\Temp\cc2hhySa.s:20894  .debug_str:00000000000042a4 .LASF1282
C:\Users\stapi\AppData\Local\Temp\cc2hhySa.s:20780  .debug_str:0000000000003f6d .LASF1283
C:\Users\stapi\AppData\Local\Temp\cc2hhySa.s:18686  .debug_str:00000000000000d3 .LASF1284
C:\Users\stapi\AppData\Local\Temp\cc2hhySa.s:18810  .debug_str:00000000000004f5 .LASF1285
C:\Users\stapi\AppData\Local\Temp\cc2hhySa.s:19382  .debug_str:0000000000001570 .LASF1286
C:\Users\stapi\AppData\Local\Temp\cc2hhySa.s:21078  .debug_str:0000000000004825 .LASF1287
C:\Users\stapi\AppData\Local\Temp\cc2hhySa.s:20578  .debug_str:00000000000039b6 .LASF1288
C:\Users\stapi\AppData\Local\Temp\cc2hhySa.s:20958  .debug_str:000000000000448e .LASF1289
C:\Users\stapi\AppData\Local\Temp\cc2hhySa.s:20646  .debug_str:0000000000003bb1 .LASF1290
C:\Users\stapi\AppData\Local\Temp\cc2hhySa.s:20540  .debug_str:00000000000038b9 .LASF1291
C:\Users\stapi\AppData\Local\Temp\cc2hhySa.s:19412  .debug_str:000000000000163c .LASF1292
C:\Users\stapi\AppData\Local\Temp\cc2hhySa.s:20632  .debug_str:0000000000003b4b .LASF1293
C:\Users\stapi\AppData\Local\Temp\cc2hhySa.s:21060  .debug_str:0000000000004798 .LASF1294
C:\Users\stapi\AppData\Local\Temp\cc2hhySa.s:18680  .debug_str:00000000000000ac .LASF1295
C:\Users\stapi\AppData\Local\Temp\cc2hhySa.s:20242  .debug_str:0000000000002ed2 .LASF1296
C:\Users\stapi\AppData\Local\Temp\cc2hhySa.s:20310  .debug_str:00000000000031f7 .LASF1297
C:\Users\stapi\AppData\Local\Temp\cc2hhySa.s:20070  .debug_str:000000000000297a .LASF1298
C:\Users\stapi\AppData\Local\Temp\cc2hhySa.s:20740  .debug_str:0000000000003e2b .LASF1299
C:\Users\stapi\AppData\Local\Temp\cc2hhySa.s:19584  .debug_str:0000000000001b14 .LASF1300
C:\Users\stapi\AppData\Local\Temp\cc2hhySa.s:18852  .debug_str:0000000000000637 .LASF1301
C:\Users\stapi\AppData\Local\Temp\cc2hhySa.s:20906  .debug_str:0000000000004306 .LASF1302
C:\Users\stapi\AppData\Local\Temp\cc2hhySa.s:20028  .debug_str:0000000000002844 .LASF1303
C:\Users\stapi\AppData\Local\Temp\cc2hhySa.s:19688  .debug_str:0000000000001dfd .LASF1304
C:\Users\stapi\AppData\Local\Temp\cc2hhySa.s:19862  .debug_str:0000000000002362 .LASF1305
C:\Users\stapi\AppData\Local\Temp\cc2hhySa.s:19494  .debug_str:00000000000018a9 .LASF1306
C:\Users\stapi\AppData\Local\Temp\cc2hhySa.s:19730  .debug_str:0000000000001f57 .LASF1307
C:\Users\stapi\AppData\Local\Temp\cc2hhySa.s:20818  .debug_str:0000000000004076 .LASF1308
C:\Users\stapi\AppData\Local\Temp\cc2hhySa.s:19610  .debug_str:0000000000001bcc .LASF1309
C:\Users\stapi\AppData\Local\Temp\cc2hhySa.s:20446  .debug_str:000000000000364f .LASF1310
C:\Users\stapi\AppData\Local\Temp\cc2hhySa.s:18804  .debug_str:00000000000004c0 .LASF1311
C:\Users\stapi\AppData\Local\Temp\cc2hhySa.s:20134  .debug_str:0000000000002b8e .LASF1312
C:\Users\stapi\AppData\Local\Temp\cc2hhySa.s:20620  .debug_str:0000000000003afa .LASF1313
C:\Users\stapi\AppData\Local\Temp\cc2hhySa.s:19370  .debug_str:0000000000001528 .LASF1314
C:\Users\stapi\AppData\Local\Temp\cc2hhySa.s:19170  .debug_str:0000000000000f4a .LASF1315
C:\Users\stapi\AppData\Local\Temp\cc2hhySa.s:19854  .debug_str:0000000000002327 .LASF1316
C:\Users\stapi\AppData\Local\Temp\cc2hhySa.s:21304  .debug_str:0000000000004eaa .LASF1317
C:\Users\stapi\AppData\Local\Temp\cc2hhySa.s:19506  .debug_str:0000000000001909 .LASF1318
C:\Users\stapi\AppData\Local\Temp\cc2hhySa.s:21044  .debug_str:0000000000004707 .LASF1319
C:\Users\stapi\AppData\Local\Temp\cc2hhySa.s:20424  .debug_str:0000000000003594 .LASF1320
C:\Users\stapi\AppData\Local\Temp\cc2hhySa.s:20698  .debug_str:0000000000003d11 .LASF1321
C:\Users\stapi\AppData\Local\Temp\cc2hhySa.s:20764  .debug_str:0000000000003ece .LASF1322
C:\Users\stapi\AppData\Local\Temp\cc2hhySa.s:20280  .debug_str:00000000000030f7 .LASF1323
C:\Users\stapi\AppData\Local\Temp\cc2hhySa.s:20538  .debug_str:00000000000038a5 .LASF1324
C:\Users\stapi\AppData\Local\Temp\cc2hhySa.s:18946  .debug_str:00000000000008b5 .LASF1325
C:\Users\stapi\AppData\Local\Temp\cc2hhySa.s:19514  .debug_str:0000000000001934 .LASF1326
C:\Users\stapi\AppData\Local\Temp\cc2hhySa.s:19762  .debug_str:000000000000203d .LASF1327
C:\Users\stapi\AppData\Local\Temp\cc2hhySa.s:19498  .debug_str:00000000000018ca .LASF1328
C:\Users\stapi\AppData\Local\Temp\cc2hhySa.s:18938  .debug_str:000000000000086c .LASF1329
C:\Users\stapi\AppData\Local\Temp\cc2hhySa.s:21236  .debug_str:0000000000004cb3 .LASF1330
C:\Users\stapi\AppData\Local\Temp\cc2hhySa.s:20200  .debug_str:0000000000002d9f .LASF1331
C:\Users\stapi\AppData\Local\Temp\cc2hhySa.s:20692  .debug_str:0000000000003ce0 .LASF1332
C:\Users\stapi\AppData\Local\Temp\cc2hhySa.s:19470  .debug_str:00000000000017e3 .LASF1333
C:\Users\stapi\AppData\Local\Temp\cc2hhySa.s:19228  .debug_str:00000000000010e7 .LASF1334
C:\Users\stapi\AppData\Local\Temp\cc2hhySa.s:20864  .debug_str:00000000000041b7 .LASF1335
C:\Users\stapi\AppData\Local\Temp\cc2hhySa.s:21448  .debug_str:0000000000005356 .LASF1336
C:\Users\stapi\AppData\Local\Temp\cc2hhySa.s:21414  .debug_str:0000000000005264 .LASF1337
C:\Users\stapi\AppData\Local\Temp\cc2hhySa.s:20452  .debug_str:0000000000003687 .LASF1338
C:\Users\stapi\AppData\Local\Temp\cc2hhySa.s:19082  .debug_str:0000000000000c8f .LASF1339
C:\Users\stapi\AppData\Local\Temp\cc2hhySa.s:21406  .debug_str:0000000000005212 .LASF1340
C:\Users\stapi\AppData\Local\Temp\cc2hhySa.s:21428  .debug_str:00000000000052ce .LASF1341
C:\Users\stapi\AppData\Local\Temp\cc2hhySa.s:20980  .debug_str:0000000000004514 .LASF1342
C:\Users\stapi\AppData\Local\Temp\cc2hhySa.s:18792  .debug_str:0000000000000480 .LASF1343
C:\Users\stapi\AppData\Local\Temp\cc2hhySa.s:19982  .debug_str:0000000000002715 .LASF1344
C:\Users\stapi\AppData\Local\Temp\cc2hhySa.s:19864  .debug_str:000000000000236e .LASF1345
C:\Users\stapi\AppData\Local\Temp\cc2hhySa.s:20284  .debug_str:000000000000311d .LASF1346
C:\Users\stapi\AppData\Local\Temp\cc2hhySa.s:18790  .debug_str:0000000000000477 .LASF1347
C:\Users\stapi\AppData\Local\Temp\cc2hhySa.s:20892  .debug_str:0000000000004291 .LASF1348
C:\Users\stapi\AppData\Local\Temp\cc2hhySa.s:19216  .debug_str:0000000000001091 .LASF1349
C:\Users\stapi\AppData\Local\Temp\cc2hhySa.s:19182  .debug_str:0000000000000f97 .LASF1350
C:\Users\stapi\AppData\Local\Temp\cc2hhySa.s:19256  .debug_str:00000000000011ab .LASF1351
C:\Users\stapi\AppData\Local\Temp\cc2hhySa.s:20108  .debug_str:0000000000002abf .LASF1352
C:\Users\stapi\AppData\Local\Temp\cc2hhySa.s:19916  .debug_str:0000000000002528 .LASF1353
C:\Users\stapi\AppData\Local\Temp\cc2hhySa.s:19692  .debug_str:0000000000001e24 .LASF1354
C:\Users\stapi\AppData\Local\Temp\cc2hhySa.s:18782  .debug_str:0000000000000430 .LASF1355
C:\Users\stapi\AppData\Local\Temp\cc2hhySa.s:19192  .debug_str:0000000000000ff2 .LASF1356
C:\Users\stapi\AppData\Local\Temp\cc2hhySa.s:20460  .debug_str:00000000000036b2 .LASF1357
C:\Users\stapi\AppData\Local\Temp\cc2hhySa.s:18704  .debug_str:0000000000000169 .LASF1358
C:\Users\stapi\AppData\Local\Temp\cc2hhySa.s:20662  .debug_str:0000000000003c1b .LASF1359
C:\Users\stapi\AppData\Local\Temp\cc2hhySa.s:20956  .debug_str:0000000000004475 .LASF1360
C:\Users\stapi\AppData\Local\Temp\cc2hhySa.s:20862  .debug_str:00000000000041a3 .LASF1361
C:\Users\stapi\AppData\Local\Temp\cc2hhySa.s:18822  .debug_str:000000000000054f .LASF1362
C:\Users\stapi\AppData\Local\Temp\cc2hhySa.s:20706  .debug_str:0000000000003d44 .LASF1363
C:\Users\stapi\AppData\Local\Temp\cc2hhySa.s:19704  .debug_str:0000000000001e8c .LASF1364
C:\Users\stapi\AppData\Local\Temp\cc2hhySa.s:19790  .debug_str:0000000000002114 .LASF1365
C:\Users\stapi\AppData\Local\Temp\cc2hhySa.s:21146  .debug_str:00000000000049fd .LASF1366
C:\Users\stapi\AppData\Local\Temp\cc2hhySa.s:20916  .debug_str:0000000000004333 .LASF1367
C:\Users\stapi\AppData\Local\Temp\cc2hhySa.s:18824  .debug_str:0000000000000569 .LASF1373
C:\Users\stapi\AppData\Local\Temp\cc2hhySa.s:880    .text.hostapd_neighbor_set_own_report:0000000000000000 .LFB145
C:\Users\stapi\AppData\Local\Temp\cc2hhySa.s:1443   .text.hostapd_neighbor_set_own_report:00000000000002a2 .LFE145
C:\Users\stapi\AppData\Local\Temp\cc2hhySa.s:20796  .debug_str:0000000000003fe1 .LASF1372
C:\Users\stapi\AppData\Local\Temp\cc2hhySa.s:17811  .debug_loc:0000000000000000 .LLST37
C:\Users\stapi\AppData\Local\Temp\cc2hhySa.s:17822  .debug_loc:000000000000001e .LLST38
C:\Users\stapi\AppData\Local\Temp\cc2hhySa.s:17829  .debug_loc:0000000000000031 .LLST39
C:\Users\stapi\AppData\Local\Temp\cc2hhySa.s:19618  .debug_str:0000000000001bfb .LASF1368
C:\Users\stapi\AppData\Local\Temp\cc2hhySa.s:20654  .debug_str:0000000000003beb .LASF1369
C:\Users\stapi\AppData\Local\Temp\cc2hhySa.s:17836  .debug_loc:0000000000000044 .LLST40
C:\Users\stapi\AppData\Local\Temp\cc2hhySa.s:18874  .debug_str:00000000000006e1 .LASF1370
C:\Users\stapi\AppData\Local\Temp\cc2hhySa.s:17848  .debug_loc:0000000000000063 .LLST41
C:\Users\stapi\AppData\Local\Temp\cc2hhySa.s:19834  .debug_str:0000000000002280 .LASF1371
C:\Users\stapi\AppData\Local\Temp\cc2hhySa.s:17868  .debug_loc:0000000000000098 .LLST42
C:\Users\stapi\AppData\Local\Temp\cc2hhySa.s:17902  .debug_loc:00000000000000e3 .LLST43
C:\Users\stapi\AppData\Local\Temp\cc2hhySa.s:1030   .text.hostapd_neighbor_set_own_report:00000000000000ae .LBB88
C:\Users\stapi\AppData\Local\Temp\cc2hhySa.s:17909  .debug_loc:00000000000000f6 .LLST44
C:\Users\stapi\AppData\Local\Temp\cc2hhySa.s:1054   .text.hostapd_neighbor_set_own_report:00000000000000ce .LBB91
C:\Users\stapi\AppData\Local\Temp\cc2hhySa.s:17920  .debug_loc:0000000000000114 .LLST45
C:\Users\stapi\AppData\Local\Temp\cc2hhySa.s:17939  .debug_loc:0000000000000148 .LLST46
C:\Users\stapi\AppData\Local\Temp\cc2hhySa.s:17958  .debug_loc:000000000000017c .LLST47
C:\Users\stapi\AppData\Local\Temp\cc2hhySa.s:17977  .debug_loc:00000000000001b0 .LLST48
C:\Users\stapi\AppData\Local\Temp\cc2hhySa.s:17996  .debug_loc:00000000000001e4 .LLST49
C:\Users\stapi\AppData\Local\Temp\cc2hhySa.s:1057   .text.hostapd_neighbor_set_own_report:00000000000000ce .LBB93
C:\Users\stapi\AppData\Local\Temp\cc2hhySa.s:18011  .debug_loc:000000000000020d .LLST50
C:\Users\stapi\AppData\Local\Temp\cc2hhySa.s:1158   .text.hostapd_neighbor_set_own_report:000000000000012c .LBB103
C:\Users\stapi\AppData\Local\Temp\cc2hhySa.s:18022  .debug_loc:000000000000022b .LLST51
C:\Users\stapi\AppData\Local\Temp\cc2hhySa.s:1168   .text.hostapd_neighbor_set_own_report:0000000000000132 .LBB106
C:\Users\stapi\AppData\Local\Temp\cc2hhySa.s:18033  .debug_loc:0000000000000249 .LLST52
C:\Users\stapi\AppData\Local\Temp\cc2hhySa.s:1299   .text.hostapd_neighbor_set_own_report:00000000000001b6 .LBB112
C:\Users\stapi\AppData\Local\Temp\cc2hhySa.s:18044  .debug_loc:0000000000000267 .LLST53
C:\Users\stapi\AppData\Local\Temp\cc2hhySa.s:18052  .debug_loc:000000000000027b .LLST54
C:\Users\stapi\AppData\Local\Temp\cc2hhySa.s:18059  .debug_loc:000000000000028e .LLST55
C:\Users\stapi\AppData\Local\Temp\cc2hhySa.s:1304   .text.hostapd_neighbor_set_own_report:00000000000001c0 .LVL109
C:\Users\stapi\AppData\Local\Temp\cc2hhySa.s:1317   .text.hostapd_neighbor_set_own_report:00000000000001d0 .LVL111
C:\Users\stapi\AppData\Local\Temp\cc2hhySa.s:1321   .text.hostapd_neighbor_set_own_report:00000000000001d0 .LBB116
C:\Users\stapi\AppData\Local\Temp\cc2hhySa.s:18066  .debug_loc:00000000000002a1 .LLST56
C:\Users\stapi\AppData\Local\Temp\cc2hhySa.s:18073  .debug_loc:00000000000002b4 .LLST57
C:\Users\stapi\AppData\Local\Temp\cc2hhySa.s:18080  .debug_loc:00000000000002c7 .LLST58
C:\Users\stapi\AppData\Local\Temp\cc2hhySa.s:1330   .text.hostapd_neighbor_set_own_report:00000000000001dc .LBB118
C:\Users\stapi\AppData\Local\Temp\cc2hhySa.s:18087  .debug_loc:00000000000002da .LLST59
C:\Users\stapi\AppData\Local\Temp\cc2hhySa.s:1328   .text.hostapd_neighbor_set_own_report:00000000000001dc .LVL112
C:\Users\stapi\AppData\Local\Temp\cc2hhySa.s:903    .text.hostapd_neighbor_set_own_report:0000000000000014 .LVL72
C:\Users\stapi\AppData\Local\Temp\cc2hhySa.s:1047   .text.hostapd_neighbor_set_own_report:00000000000000c4 .LVL88
C:\Users\stapi\AppData\Local\Temp\cc2hhySa.s:1142   .text.hostapd_neighbor_set_own_report:0000000000000124 .LVL97
C:\Users\stapi\AppData\Local\Temp\cc2hhySa.s:1287   .text.hostapd_neighbor_set_own_report:00000000000001a8 .LVL106
C:\Users\stapi\AppData\Local\Temp\cc2hhySa.s:1292   .text.hostapd_neighbor_set_own_report:00000000000001b2 .LVL107
C:\Users\stapi\AppData\Local\Temp\cc2hhySa.s:1365   .text.hostapd_neighbor_set_own_report:00000000000001fe .LVL114
C:\Users\stapi\AppData\Local\Temp\cc2hhySa.s:1370   .text.hostapd_neighbor_set_own_report:000000000000020c .LVL115
C:\Users\stapi\AppData\Local\Temp\cc2hhySa.s:1378   .text.hostapd_neighbor_set_own_report:0000000000000220 .LVL116
C:\Users\stapi\AppData\Local\Temp\cc2hhySa.s:1383   .text.hostapd_neighbor_set_own_report:000000000000022e .LVL117
C:\Users\stapi\AppData\Local\Temp\cc2hhySa.s:1388   .text.hostapd_neighbor_set_own_report:000000000000023a .LVL118
C:\Users\stapi\AppData\Local\Temp\cc2hhySa.s:1393   .text.hostapd_neighbor_set_own_report:0000000000000246 .LVL119
C:\Users\stapi\AppData\Local\Temp\cc2hhySa.s:1398   .text.hostapd_neighbor_set_own_report:0000000000000252 .LVL120
C:\Users\stapi\AppData\Local\Temp\cc2hhySa.s:1403   .text.hostapd_neighbor_set_own_report:0000000000000260 .LVL121
C:\Users\stapi\AppData\Local\Temp\cc2hhySa.s:1408   .text.hostapd_neighbor_set_own_report:000000000000026c .LVL122
C:\Users\stapi\AppData\Local\Temp\cc2hhySa.s:1422   .text.hostapd_neighbor_set_own_report:000000000000028e .LVL123
C:\Users\stapi\AppData\Local\Temp\cc2hhySa.s:1426   .text.hostapd_neighbor_set_own_report:0000000000000298 .LVL124
C:\Users\stapi\AppData\Local\Temp\cc2hhySa.s:20160  .debug_str:0000000000002c36 .LASF1378
C:\Users\stapi\AppData\Local\Temp\cc2hhySa.s:21326  .debug_str:0000000000004fc6 .LASF1380
C:\Users\stapi\AppData\Local\Temp\cc2hhySa.s:21174  .debug_str:0000000000004aba .LASF1374
C:\Users\stapi\AppData\Local\Temp\cc2hhySa.s:796    .text.hostapd_free_neighbor_db:0000000000000000 .LFB143
C:\Users\stapi\AppData\Local\Temp\cc2hhySa.s:873    .text.hostapd_free_neighbor_db:0000000000000056 .LFE143
C:\Users\stapi\AppData\Local\Temp\cc2hhySa.s:18094  .debug_loc:00000000000002ed .LLST33
C:\Users\stapi\AppData\Local\Temp\cc2hhySa.s:18112  .debug_loc:0000000000000319 .LLST34
C:\Users\stapi\AppData\Local\Temp\cc2hhySa.s:18132  .debug_loc:000000000000034e .LLST35
C:\Users\stapi\AppData\Local\Temp\cc2hhySa.s:842    .text.hostapd_free_neighbor_db:0000000000000036 .LBB70
C:\Users\stapi\AppData\Local\Temp\cc2hhySa.s:863    .text.hostapd_free_neighbor_db:0000000000000048 .LBE70
C:\Users\stapi\AppData\Local\Temp\cc2hhySa.s:18148  .debug_loc:0000000000000378 .LLST36
C:\Users\stapi\AppData\Local\Temp\cc2hhySa.s:840    .text.hostapd_free_neighbor_db:0000000000000036 .LVL67
C:\Users\stapi\AppData\Local\Temp\cc2hhySa.s:866    .text.hostapd_free_neighbor_db:0000000000000050 .LVL69
C:\Users\stapi\AppData\Local\Temp\cc2hhySa.s:21496  .debug_str:00000000000054b4 .LASF1375
C:\Users\stapi\AppData\Local\Temp\cc2hhySa.s:492    .text.hostapd_neighbor_remove:0000000000000000 .LFB142
C:\Users\stapi\AppData\Local\Temp\cc2hhySa.s:563    .text.hostapd_neighbor_remove:0000000000000044 .LFE142
C:\Users\stapi\AppData\Local\Temp\cc2hhySa.s:18156  .debug_loc:000000000000038c .LLST15
C:\Users\stapi\AppData\Local\Temp\cc2hhySa.s:18170  .debug_loc:00000000000003ad .LLST16
C:\Users\stapi\AppData\Local\Temp\cc2hhySa.s:18184  .debug_loc:00000000000003ce .LLST17
C:\Users\stapi\AppData\Local\Temp\cc2hhySa.s:18198  .debug_loc:00000000000003ef .LLST18
C:\Users\stapi\AppData\Local\Temp\cc2hhySa.s:513    .text.hostapd_neighbor_remove:000000000000001c .LBB44
C:\Users\stapi\AppData\Local\Temp\cc2hhySa.s:18213  .debug_loc:0000000000000418 .LLST19
C:\Users\stapi\AppData\Local\Temp\cc2hhySa.s:504    .text.hostapd_neighbor_remove:0000000000000010 .LVL36
C:\Users\stapi\AppData\Local\Temp\cc2hhySa.s:511    .text.hostapd_neighbor_remove:000000000000001c .LVL37
C:\Users\stapi\AppData\Local\Temp\cc2hhySa.s:543    .text.hostapd_neighbor_remove:0000000000000036 .LVL39
C:\Users\stapi\AppData\Local\Temp\cc2hhySa.s:20870  .debug_str:00000000000041e3 .LASF1376
C:\Users\stapi\AppData\Local\Temp\cc2hhySa.s:570    .text.hostapd_neighbor_set:0000000000000000 .LFB141
C:\Users\stapi\AppData\Local\Temp\cc2hhySa.s:789    .text.hostapd_neighbor_set:00000000000000fc .LFE141
C:\Users\stapi\AppData\Local\Temp\cc2hhySa.s:18220  .debug_loc:000000000000042b .LLST20
C:\Users\stapi\AppData\Local\Temp\cc2hhySa.s:18231  .debug_loc:0000000000000449 .LLST21
C:\Users\stapi\AppData\Local\Temp\cc2hhySa.s:18242  .debug_loc:0000000000000467 .LLST22
C:\Users\stapi\AppData\Local\Temp\cc2hhySa.s:18253  .debug_loc:0000000000000485 .LLST23
C:\Users\stapi\AppData\Local\Temp\cc2hhySa.s:18264  .debug_loc:00000000000004a3 .LLST24
C:\Users\stapi\AppData\Local\Temp\cc2hhySa.s:18275  .debug_loc:00000000000004c1 .LLST25
C:\Users\stapi\AppData\Local\Temp\cc2hhySa.s:18286  .debug_loc:00000000000004df .LLST26
C:\Users\stapi\AppData\Local\Temp\cc2hhySa.s:18297  .debug_loc:00000000000004fd .LLST27
C:\Users\stapi\AppData\Local\Temp\cc2hhySa.s:20494  .debug_str:000000000000378c .LASF1377
C:\Users\stapi\AppData\Local\Temp\cc2hhySa.s:18311  .debug_loc:000000000000051e .LLST28
C:\Users\stapi\AppData\Local\Temp\cc2hhySa.s:756    .text.hostapd_neighbor_set:00000000000000d4 .LDL1
C:\Users\stapi\AppData\Local\Temp\cc2hhySa.s:606    .text.hostapd_neighbor_set:0000000000000024 .LBB56
C:\Users\stapi\AppData\Local\Temp\cc2hhySa.s:18330  .debug_loc:0000000000000552 .LLST29
C:\Users\stapi\AppData\Local\Temp\cc2hhySa.s:18337  .debug_loc:0000000000000565 .LLST30
C:\Users\stapi\AppData\Local\Temp\cc2hhySa.s:628    .text.hostapd_neighbor_set:0000000000000036 .LBB58
C:\Users\stapi\AppData\Local\Temp\cc2hhySa.s:18344  .debug_loc:0000000000000578 .LLST31
C:\Users\stapi\AppData\Local\Temp\cc2hhySa.s:18351  .debug_loc:000000000000058b .LLST32
C:\Users\stapi\AppData\Local\Temp\cc2hhySa.s:614    .text.hostapd_neighbor_set:0000000000000030 .LVL47
C:\Users\stapi\AppData\Local\Temp\cc2hhySa.s:731    .text.hostapd_neighbor_set:00000000000000b2 .LBB64
C:\Users\stapi\AppData\Local\Temp\cc2hhySa.s:735    .text.hostapd_neighbor_set:00000000000000b2 .LBE64
C:\Users\stapi\AppData\Local\Temp\cc2hhySa.s:769    .text.hostapd_neighbor_set:00000000000000e6 .LBB66
C:\Users\stapi\AppData\Local\Temp\cc2hhySa.s:773    .text.hostapd_neighbor_set:00000000000000e6 .LBE66
C:\Users\stapi\AppData\Local\Temp\cc2hhySa.s:599    .text.hostapd_neighbor_set:0000000000000020 .LVL44
C:\Users\stapi\AppData\Local\Temp\cc2hhySa.s:664    .text.hostapd_neighbor_set:000000000000005a .LVL51
C:\Users\stapi\AppData\Local\Temp\cc2hhySa.s:670    .text.hostapd_neighbor_set:000000000000006a .LVL52
C:\Users\stapi\AppData\Local\Temp\cc2hhySa.s:676    .text.hostapd_neighbor_set:000000000000007c .LVL53
C:\Users\stapi\AppData\Local\Temp\cc2hhySa.s:682    .text.hostapd_neighbor_set:0000000000000088 .LVL54
C:\Users\stapi\AppData\Local\Temp\cc2hhySa.s:689    .text.hostapd_neighbor_set:0000000000000094 .LVL55
C:\Users\stapi\AppData\Local\Temp\cc2hhySa.s:743    .text.hostapd_neighbor_set:00000000000000c2 .LVL58
C:\Users\stapi\AppData\Local\Temp\cc2hhySa.s:752    .text.hostapd_neighbor_set:00000000000000d2 .LVL59
C:\Users\stapi\AppData\Local\Temp\cc2hhySa.s:762    .text.hostapd_neighbor_set:00000000000000e2 .LVL60
C:\Users\stapi\AppData\Local\Temp\cc2hhySa.s:781    .text.hostapd_neighbor_set:00000000000000f6 .LVL62
C:\Users\stapi\AppData\Local\Temp\cc2hhySa.s:21254  .debug_str:0000000000004d3e .LASF1379
C:\Users\stapi\AppData\Local\Temp\cc2hhySa.s:21028  .debug_str:000000000000467f .LASF1394
C:\Users\stapi\AppData\Local\Temp\cc2hhySa.s:13     .text.hostapd_neighbor_clear_entry:0000000000000000 .LFB139
C:\Users\stapi\AppData\Local\Temp\cc2hhySa.s:71     .text.hostapd_neighbor_clear_entry:0000000000000062 .LFE139
C:\Users\stapi\AppData\Local\Temp\cc2hhySa.s:18360  .debug_loc:00000000000005a1 .LLST0
C:\Users\stapi\AppData\Local\Temp\cc2hhySa.s:29     .text.hostapd_neighbor_clear_entry:0000000000000014 .LVL2
C:\Users\stapi\AppData\Local\Temp\cc2hhySa.s:37     .text.hostapd_neighbor_clear_entry:0000000000000022 .LVL3
C:\Users\stapi\AppData\Local\Temp\cc2hhySa.s:45     .text.hostapd_neighbor_clear_entry:0000000000000030 .LVL4
C:\Users\stapi\AppData\Local\Temp\cc2hhySa.s:55     .text.hostapd_neighbor_clear_entry:0000000000000044 .LVL5
C:\Users\stapi\AppData\Local\Temp\cc2hhySa.s:61     .text.hostapd_neighbor_clear_entry:0000000000000056 .LVL6
C:\Users\stapi\AppData\Local\Temp\cc2hhySa.s:19828  .debug_str:000000000000224c .LASF1381
C:\Users\stapi\AppData\Local\Temp\cc2hhySa.s:210    .text.hostapd_neighbor_show:0000000000000000 .LFB138
C:\Users\stapi\AppData\Local\Temp\cc2hhySa.s:485    .text.hostapd_neighbor_show:000000000000014c .LFE138
C:\Users\stapi\AppData\Local\Temp\cc2hhySa.s:18371  .debug_loc:00000000000005bf .LLST7
C:\Users\stapi\AppData\Local\Temp\cc2hhySa.s:18384  .debug_loc:00000000000005e0 .LLST8
C:\Users\stapi\AppData\Local\Temp\cc2hhySa.s:19202  .debug_str:000000000000103e .LASF1382
C:\Users\stapi\AppData\Local\Temp\cc2hhySa.s:18395  .debug_loc:00000000000005fe .LLST9
C:\Users\stapi\AppData\Local\Temp\cc2hhySa.s:18409  .debug_loc:000000000000061f .LLST10
C:\Users\stapi\AppData\Local\Temp\cc2hhySa.s:18420  .debug_loc:000000000000063d .LLST11
C:\Users\stapi\AppData\Local\Temp\cc2hhySa.s:18431  .debug_loc:000000000000065b .LLST12
C:\Users\stapi\AppData\Local\Temp\cc2hhySa.s:18862  .debug_str:0000000000000680 .LASF1383
C:\Users\stapi\AppData\Local\Temp\cc2hhySa.s:322    .text.hostapd_neighbor_show:000000000000007e .LBB24
C:\Users\stapi\AppData\Local\Temp\cc2hhySa.s:326    .text.hostapd_neighbor_show:000000000000007e .LBE24
C:\Users\stapi\AppData\Local\Temp\cc2hhySa.s:327    .text.hostapd_neighbor_show:000000000000007e .LBB26
C:\Users\stapi\AppData\Local\Temp\cc2hhySa.s:331    .text.hostapd_neighbor_show:000000000000007e .LBE26
C:\Users\stapi\AppData\Local\Temp\cc2hhySa.s:351    .text.hostapd_neighbor_show:000000000000009c .LBB28
C:\Users\stapi\AppData\Local\Temp\cc2hhySa.s:355    .text.hostapd_neighbor_show:000000000000009c .LBE28
C:\Users\stapi\AppData\Local\Temp\cc2hhySa.s:356    .text.hostapd_neighbor_show:000000000000009c .LBB30
C:\Users\stapi\AppData\Local\Temp\cc2hhySa.s:360    .text.hostapd_neighbor_show:000000000000009c .LBE30
C:\Users\stapi\AppData\Local\Temp\cc2hhySa.s:380    .text.hostapd_neighbor_show:00000000000000ba .LBB32
C:\Users\stapi\AppData\Local\Temp\cc2hhySa.s:384    .text.hostapd_neighbor_show:00000000000000ba .LBE32
C:\Users\stapi\AppData\Local\Temp\cc2hhySa.s:385    .text.hostapd_neighbor_show:00000000000000ba .LBB34
C:\Users\stapi\AppData\Local\Temp\cc2hhySa.s:389    .text.hostapd_neighbor_show:00000000000000ba .LBE34
C:\Users\stapi\AppData\Local\Temp\cc2hhySa.s:452    .text.hostapd_neighbor_show:0000000000000132 .LBB36
C:\Users\stapi\AppData\Local\Temp\cc2hhySa.s:463    .text.hostapd_neighbor_show:000000000000013c .LBE36
C:\Users\stapi\AppData\Local\Temp\cc2hhySa.s:18438  .debug_loc:000000000000066e .LLST13
C:\Users\stapi\AppData\Local\Temp\cc2hhySa.s:18445  .debug_loc:0000000000000681 .LLST14
C:\Users\stapi\AppData\Local\Temp\cc2hhySa.s:310    .text.hostapd_neighbor_show:0000000000000072 .LVL23
C:\Users\stapi\AppData\Local\Temp\cc2hhySa.s:338    .text.hostapd_neighbor_show:0000000000000090 .LVL25
C:\Users\stapi\AppData\Local\Temp\cc2hhySa.s:367    .text.hostapd_neighbor_show:00000000000000ae .LVL27
C:\Users\stapi\AppData\Local\Temp\cc2hhySa.s:396    .text.hostapd_neighbor_show:00000000000000cc .LVL29
C:\Users\stapi\AppData\Local\Temp\cc2hhySa.s:450    .text.hostapd_neighbor_show:0000000000000132 .LVL30
C:\Users\stapi\AppData\Local\Temp\cc2hhySa.s:19266  .debug_str:00000000000011fe .LASF1384
C:\Users\stapi\AppData\Local\Temp\cc2hhySa.s:110    .text.hostapd_neighbor_get:0000000000000000 .LFB137
C:\Users\stapi\AppData\Local\Temp\cc2hhySa.s:184    .text.hostapd_neighbor_get:0000000000000062 .LFE137
C:\Users\stapi\AppData\Local\Temp\cc2hhySa.s:18453  .debug_loc:0000000000000696 .LLST3
C:\Users\stapi\AppData\Local\Temp\cc2hhySa.s:18466  .debug_loc:00000000000006b7 .LLST4
C:\Users\stapi\AppData\Local\Temp\cc2hhySa.s:18477  .debug_loc:00000000000006d5 .LLST5
C:\Users\stapi\AppData\Local\Temp\cc2hhySa.s:18488  .debug_loc:00000000000006f3 .LLST6
C:\Users\stapi\AppData\Local\Temp\cc2hhySa.s:149    .text.hostapd_neighbor_get:0000000000000034 .LVL15
C:\Users\stapi\AppData\Local\Temp\cc2hhySa.s:169    .text.hostapd_neighbor_get:0000000000000056 .LVL17
C:\Users\stapi\AppData\Local\Temp\cc2hhySa.s:19666  .debug_str:0000000000001d4f .LASF1385
C:\Users\stapi\AppData\Local\Temp\cc2hhySa.s:20334  .debug_str:00000000000032b4 .LASF1386
C:\Users\stapi\AppData\Local\Temp\cc2hhySa.s:20072  .debug_str:0000000000002991 .LASF1387
C:\Users\stapi\AppData\Local\Temp\cc2hhySa.s:19974  .debug_str:00000000000026db .LASF1389
C:\Users\stapi\AppData\Local\Temp\cc2hhySa.s:20910  .debug_str:000000000000431b .LASF1388
C:\Users\stapi\AppData\Local\Temp\cc2hhySa.s:19280  .debug_str:000000000000126b .LASF1390
C:\Users\stapi\AppData\Local\Temp\cc2hhySa.s:20542  .debug_str:00000000000038c4 .LASF1391
C:\Users\stapi\AppData\Local\Temp\cc2hhySa.s:21276  .debug_str:0000000000004de0 .LASF1392
C:\Users\stapi\AppData\Local\Temp\cc2hhySa.s:18900  .debug_str:000000000000079d .LASF1393
C:\Users\stapi\AppData\Local\Temp\cc2hhySa.s:20104  .debug_str:0000000000002aa3 .LASF1395
C:\Users\stapi\AppData\Local\Temp\cc2hhySa.s:77     .text.wpabuf_put_u8:0000000000000000 .LFB53
C:\Users\stapi\AppData\Local\Temp\cc2hhySa.s:103    .text.wpabuf_put_u8:0000000000000020 .LFE53
C:\Users\stapi\AppData\Local\Temp\cc2hhySa.s:18499  .debug_loc:0000000000000711 .LLST1
C:\Users\stapi\AppData\Local\Temp\cc2hhySa.s:18513  .debug_loc:0000000000000732 .LLST2
C:\Users\stapi\AppData\Local\Temp\cc2hhySa.s:93     .text.wpabuf_put_u8:0000000000000014 .LVL9
C:\Users\stapi\AppData\Local\Temp\cc2hhySa.s:19246  .debug_str:000000000000115d .LASF1396
C:\Users\stapi\AppData\Local\Temp\cc2hhySa.s:21480  .debug_str:0000000000005438 .LASF1397
C:\Users\stapi\AppData\Local\Temp\cc2hhySa.s:18670  .debug_str:000000000000006a .LASF1398
C:\Users\stapi\AppData\Local\Temp\cc2hhySa.s:18854  .debug_str:000000000000063f .LASF1399
C:\Users\stapi\AppData\Local\Temp\cc2hhySa.s:19402  .debug_str:000000000000160b .LASF1400
C:\Users\stapi\AppData\Local\Temp\cc2hhySa.s:20434  .debug_str:00000000000035d4 .LASF1401
C:\Users\stapi\AppData\Local\Temp\cc2hhySa.s:19972  .debug_str:00000000000026c4 .LASF1402
C:\Users\stapi\AppData\Local\Temp\cc2hhySa.s:19088  .debug_str:0000000000000cd1 .LASF1403
C:\Users\stapi\AppData\Local\Temp\cc2hhySa.s:19392  .debug_str:00000000000015c1 .LASF1404
C:\Users\stapi\AppData\Local\Temp\cc2hhySa.s:19406  .debug_str:000000000000161d .LASF1405
C:\Users\stapi\AppData\Local\Temp\cc2hhySa.s:19952  .debug_str:0000000000002637 .LASF1406
C:\Users\stapi\AppData\Local\Temp\cc2hhySa.s:21302  .debug_str:0000000000004e9e .LASF1407
C:\Users\stapi\AppData\Local\Temp\cc2hhySa.s:20246  .debug_str:0000000000002efb .LASF1408
C:\Users\stapi\AppData\Local\Temp\cc2hhySa.s:19424  .debug_str:0000000000001691 .LASF1409
C:\Users\stapi\AppData\Local\Temp\cc2hhySa.s:19744  .debug_str:0000000000001fba .LASF1410
C:\Users\stapi\AppData\Local\Temp\cc2hhySa.s:20734  .debug_str:0000000000003df6 .LASF1411
C:\Users\stapi\AppData\Local\Temp\cc2hhySa.s:18744  .debug_str:000000000000032c .LASF1412
C:\Users\stapi\AppData\Local\Temp\cc2hhySa.s:19518  .debug_str:0000000000001956 .LASF1413
C:\Users\stapi\AppData\Local\Temp\cc2hhySa.s:21032  .debug_str:00000000000046a6 .LASF1414
C:\Users\stapi\AppData\Local\Temp\cc2hhySa.s:21074  .debug_str:0000000000004802 .LASF1415
C:\Users\stapi\AppData\Local\Temp\cc2hhySa.s:20346  .debug_str:0000000000003336 .LASF1416
C:\Users\stapi\AppData\Local\Temp\cc2hhySa.s:883    .text.hostapd_neighbor_set_own_report:0000000000000000 .LVL71
C:\Users\stapi\AppData\Local\Temp\cc2hhySa.s:960    .text.hostapd_neighbor_set_own_report:000000000000005e .LVL78
C:\Users\stapi\AppData\Local\Temp\cc2hhySa.s:937    .text.hostapd_neighbor_set_own_report:000000000000004c .LVL75
C:\Users\stapi\AppData\Local\Temp\cc2hhySa.s:1294   .text.hostapd_neighbor_set_own_report:00000000000001b4 .LVL108
C:\Users\stapi\AppData\Local\Temp\cc2hhySa.s:945    .text.hostapd_neighbor_set_own_report:0000000000000054 .LVL76
C:\Users\stapi\AppData\Local\Temp\cc2hhySa.s:1270   .text.hostapd_neighbor_set_own_report:0000000000000190 .LVL105
C:\Users\stapi\AppData\Local\Temp\cc2hhySa.s:1111   .text.hostapd_neighbor_set_own_report:00000000000000fc .LVL93
C:\Users\stapi\AppData\Local\Temp\cc2hhySa.s:1121   .text.hostapd_neighbor_set_own_report:0000000000000102 .LVL94
C:\Users\stapi\AppData\Local\Temp\cc2hhySa.s:1125   .text.hostapd_neighbor_set_own_report:0000000000000104 .LVL95
C:\Users\stapi\AppData\Local\Temp\cc2hhySa.s:1154   .text.hostapd_neighbor_set_own_report:000000000000012c .LVL99
C:\Users\stapi\AppData\Local\Temp\cc2hhySa.s:1174   .text.hostapd_neighbor_set_own_report:0000000000000138 .LVL101
C:\Users\stapi\AppData\Local\Temp\cc2hhySa.s:1234   .text.hostapd_neighbor_set_own_report:0000000000000178 .LVL102
C:\Users\stapi\AppData\Local\Temp\cc2hhySa.s:954    .text.hostapd_neighbor_set_own_report:000000000000005a .LVL77
C:\Users\stapi\AppData\Local\Temp\cc2hhySa.s:968    .text.hostapd_neighbor_set_own_report:0000000000000064 .LVL79
C:\Users\stapi\AppData\Local\Temp\cc2hhySa.s:977    .text.hostapd_neighbor_set_own_report:0000000000000070 .LVL80
C:\Users\stapi\AppData\Local\Temp\cc2hhySa.s:1004   .text.hostapd_neighbor_set_own_report:0000000000000090 .LVL83
C:\Users\stapi\AppData\Local\Temp\cc2hhySa.s:1016   .text.hostapd_neighbor_set_own_report:00000000000000a0 .LVL84
C:\Users\stapi\AppData\Local\Temp\cc2hhySa.s:1029   .text.hostapd_neighbor_set_own_report:00000000000000ae .LVL86
C:\Users\stapi\AppData\Local\Temp\cc2hhySa.s:1040   .text.hostapd_neighbor_set_own_report:00000000000000b4 .LVL87
C:\Users\stapi\AppData\Local\Temp\cc2hhySa.s:1089   .text.hostapd_neighbor_set_own_report:00000000000000f0 .LVL91
C:\Users\stapi\AppData\Local\Temp\cc2hhySa.s:1099   .text.hostapd_neighbor_set_own_report:00000000000000f6 .LVL92
C:\Users\stapi\AppData\Local\Temp\cc2hhySa.s:1053   .text.hostapd_neighbor_set_own_report:00000000000000ce .LVL89
C:\Users\stapi\AppData\Local\Temp\cc2hhySa.s:1147   .text.hostapd_neighbor_set_own_report:0000000000000128 .LVL98
C:\Users\stapi\AppData\Local\Temp\cc2hhySa.s:1068   .text.hostapd_neighbor_set_own_report:00000000000000d8 .LVL90
C:\Users\stapi\AppData\Local\Temp\cc2hhySa.s:1164   .text.hostapd_neighbor_set_own_report:0000000000000132 .LVL100
C:\Users\stapi\AppData\Local\Temp\cc2hhySa.s:1248   .text.hostapd_neighbor_set_own_report:000000000000017e .LVL103
C:\Users\stapi\AppData\Local\Temp\cc2hhySa.s:1261   .text.hostapd_neighbor_set_own_report:000000000000018a .LVL104
C:\Users\stapi\AppData\Local\Temp\cc2hhySa.s:1309   .text.hostapd_neighbor_set_own_report:00000000000001c4 .LVL110
C:\Users\stapi\AppData\Local\Temp\cc2hhySa.s:1357   .text.hostapd_neighbor_set_own_report:00000000000001f4 .LVL113
C:\Users\stapi\AppData\Local\Temp\cc2hhySa.s:799    .text.hostapd_free_neighbor_db:0000000000000000 .LVL63
C:\Users\stapi\AppData\Local\Temp\cc2hhySa.s:813    .text.hostapd_free_neighbor_db:0000000000000014 .LVL64
C:\Users\stapi\AppData\Local\Temp\cc2hhySa.s:822    .text.hostapd_free_neighbor_db:000000000000001e .LVL66
C:\Users\stapi\AppData\Local\Temp\cc2hhySa.s:870    .text.hostapd_free_neighbor_db:0000000000000054 .LVL70
C:\Users\stapi\AppData\Local\Temp\cc2hhySa.s:820    .text.hostapd_free_neighbor_db:000000000000001c .LVL65
C:\Users\stapi\AppData\Local\Temp\cc2hhySa.s:861    .text.hostapd_free_neighbor_db:0000000000000048 .LVL68
C:\Users\stapi\AppData\Local\Temp\cc2hhySa.s:495    .text.hostapd_neighbor_remove:0000000000000000 .LVL35
C:\Users\stapi\AppData\Local\Temp\cc2hhySa.s:547    .text.hostapd_neighbor_remove:0000000000000038 .LVL40
C:\Users\stapi\AppData\Local\Temp\cc2hhySa.s:555    .text.hostapd_neighbor_remove:0000000000000040 .LVL41
C:\Users\stapi\AppData\Local\Temp\cc2hhySa.s:560    .text.hostapd_neighbor_remove:0000000000000042 .LVL42
C:\Users\stapi\AppData\Local\Temp\cc2hhySa.s:538    .text.hostapd_neighbor_remove:000000000000002e .LVL38
C:\Users\stapi\AppData\Local\Temp\cc2hhySa.s:573    .text.hostapd_neighbor_set:0000000000000000 .LVL43
C:\Users\stapi\AppData\Local\Temp\cc2hhySa.s:612    .text.hostapd_neighbor_set:0000000000000028 .LVL46
C:\Users\stapi\AppData\Local\Temp\cc2hhySa.s:616    .text.hostapd_neighbor_set:0000000000000032 .LVL48
C:\Users\stapi\AppData\Local\Temp\cc2hhySa.s:653    .text.hostapd_neighbor_set:0000000000000050 .LVL50
C:\Users\stapi\AppData\Local\Temp\cc2hhySa.s:712    .text.hostapd_neighbor_set:00000000000000aa .LVL56
C:\Users\stapi\AppData\Local\Temp\cc2hhySa.s:728    .text.hostapd_neighbor_set:00000000000000b2 .LVL57
C:\Users\stapi\AppData\Local\Temp\cc2hhySa.s:605    .text.hostapd_neighbor_set:0000000000000024 .LVL45
C:\Users\stapi\AppData\Local\Temp\cc2hhySa.s:627    .text.hostapd_neighbor_set:0000000000000036 .LVL49
C:\Users\stapi\AppData\Local\Temp\cc2hhySa.s:17     .text.hostapd_neighbor_clear_entry:0000000000000000 .LVL0
C:\Users\stapi\AppData\Local\Temp\cc2hhySa.s:27     .text.hostapd_neighbor_clear_entry:000000000000000c .LVL1
C:\Users\stapi\AppData\Local\Temp\cc2hhySa.s:213    .text.hostapd_neighbor_show:0000000000000000 .LVL19
C:\Users\stapi\AppData\Local\Temp\cc2hhySa.s:264    .text.hostapd_neighbor_show:0000000000000042 .LVL22
C:\Users\stapi\AppData\Local\Temp\cc2hhySa.s:252    .text.hostapd_neighbor_show:000000000000002c .LVL21
C:\Users\stapi\AppData\Local\Temp\cc2hhySa.s:468    .text.hostapd_neighbor_show:000000000000013e .LVL32
C:\Users\stapi\AppData\Local\Temp\cc2hhySa.s:472    .text.hostapd_neighbor_show:0000000000000140 .LVL33
C:\Users\stapi\AppData\Local\Temp\cc2hhySa.s:232    .text.hostapd_neighbor_show:0000000000000008 .LVL20
C:\Users\stapi\AppData\Local\Temp\cc2hhySa.s:476    .text.hostapd_neighbor_show:0000000000000142 .LVL34
C:\Users\stapi\AppData\Local\Temp\cc2hhySa.s:461    .text.hostapd_neighbor_show:000000000000013c .LVL31
C:\Users\stapi\AppData\Local\Temp\cc2hhySa.s:113    .text.hostapd_neighbor_get:0000000000000000 .LVL10
C:\Users\stapi\AppData\Local\Temp\cc2hhySa.s:133    .text.hostapd_neighbor_get:000000000000001c .LVL12
C:\Users\stapi\AppData\Local\Temp\cc2hhySa.s:126    .text.hostapd_neighbor_get:0000000000000012 .LVL11
C:\Users\stapi\AppData\Local\Temp\cc2hhySa.s:139    .text.hostapd_neighbor_get:0000000000000022 .LVL13
C:\Users\stapi\AppData\Local\Temp\cc2hhySa.s:141    .text.hostapd_neighbor_get:0000000000000024 .LVL14
C:\Users\stapi\AppData\Local\Temp\cc2hhySa.s:172    .text.hostapd_neighbor_get:0000000000000058 .LVL18
C:\Users\stapi\AppData\Local\Temp\cc2hhySa.s:81     .text.wpabuf_put_u8:0000000000000000 .LVL7
C:\Users\stapi\AppData\Local\Temp\cc2hhySa.s:91     .text.wpabuf_put_u8:000000000000000c .LVL8
C:\Users\stapi\AppData\Local\Temp\cc2hhySa.s:1465   .debug_info:0000000000000000 .Ldebug_info0
C:\Users\stapi\AppData\Local\Temp\cc2hhySa.s:239    .text.hostapd_neighbor_show:0000000000000016 .LBB23
C:\Users\stapi\AppData\Local\Temp\cc2hhySa.s:244    .text.hostapd_neighbor_show:0000000000000022 .LBE23
C:\Users\stapi\AppData\Local\Temp\cc2hhySa.s:258    .text.hostapd_neighbor_show:0000000000000032 .LBB38
C:\Users\stapi\AppData\Local\Temp\cc2hhySa.s:266    .text.hostapd_neighbor_show:0000000000000042 .LBE38
C:\Users\stapi\AppData\Local\Temp\cc2hhySa.s:293    .text.hostapd_neighbor_show:0000000000000056 .LBB39
C:\Users\stapi\AppData\Local\Temp\cc2hhySa.s:465    .text.hostapd_neighbor_show:000000000000013c .LBE39
C:\Users\stapi\AppData\Local\Temp\cc2hhySa.s:469    .text.hostapd_neighbor_show:000000000000013e .LBB40
C:\Users\stapi\AppData\Local\Temp\cc2hhySa.s:473    .text.hostapd_neighbor_show:0000000000000140 .LBE40
C:\Users\stapi\AppData\Local\Temp\cc2hhySa.s:478    .text.hostapd_neighbor_show:0000000000000142 .LBB41
C:\Users\stapi\AppData\Local\Temp\cc2hhySa.s:483    .text.hostapd_neighbor_show:000000000000014c .LBE41
C:\Users\stapi\AppData\Local\Temp\cc2hhySa.s:522    .text.hostapd_neighbor_remove:0000000000000020 .LBE44
C:\Users\stapi\AppData\Local\Temp\cc2hhySa.s:525    .text.hostapd_neighbor_remove:0000000000000022 .LBB47
C:\Users\stapi\AppData\Local\Temp\cc2hhySa.s:540    .text.hostapd_neighbor_remove:000000000000002e .LBE47
C:\Users\stapi\AppData\Local\Temp\cc2hhySa.s:619    .text.hostapd_neighbor_set:0000000000000032 .LBE56
C:\Users\stapi\AppData\Local\Temp\cc2hhySa.s:622    .text.hostapd_neighbor_set:0000000000000034 .LBB63
C:\Users\stapi\AppData\Local\Temp\cc2hhySa.s:659    .text.hostapd_neighbor_set:0000000000000050 .LBE63
C:\Users\stapi\AppData\Local\Temp\cc2hhySa.s:636    .text.hostapd_neighbor_set:0000000000000040 .LBE58
C:\Users\stapi\AppData\Local\Temp\cc2hhySa.s:640    .text.hostapd_neighbor_set:0000000000000046 .LBB61
C:\Users\stapi\AppData\Local\Temp\cc2hhySa.s:655    .text.hostapd_neighbor_set:0000000000000050 .LBE61
C:\Users\stapi\AppData\Local\Temp\cc2hhySa.s:1042   .text.hostapd_neighbor_set_own_report:00000000000000b4 .LBE88
C:\Users\stapi\AppData\Local\Temp\cc2hhySa.s:1093   .text.hostapd_neighbor_set_own_report:00000000000000f0 .LBB100
C:\Users\stapi\AppData\Local\Temp\cc2hhySa.s:1102   .text.hostapd_neighbor_set_own_report:00000000000000f6 .LBE100
C:\Users\stapi\AppData\Local\Temp\cc2hhySa.s:1092   .text.hostapd_neighbor_set_own_report:00000000000000f0 .LBE91
C:\Users\stapi\AppData\Local\Temp\cc2hhySa.s:1103   .text.hostapd_neighbor_set_own_report:00000000000000f6 .LBB101
C:\Users\stapi\AppData\Local\Temp\cc2hhySa.s:1116   .text.hostapd_neighbor_set_own_report:00000000000000fc .LBE101
C:\Users\stapi\AppData\Local\Temp\cc2hhySa.s:1149   .text.hostapd_neighbor_set_own_report:0000000000000128 .LBB102
C:\Users\stapi\AppData\Local\Temp\cc2hhySa.s:1157   .text.hostapd_neighbor_set_own_report:000000000000012c .LBE102
C:\Users\stapi\AppData\Local\Temp\cc2hhySa.s:1178   .text.hostapd_neighbor_set_own_report:0000000000000138 .LBB109
C:\Users\stapi\AppData\Local\Temp\cc2hhySa.s:1237   .text.hostapd_neighbor_set_own_report:0000000000000178 .LBE109
C:\Users\stapi\AppData\Local\Temp\cc2hhySa.s:1070   .text.hostapd_neighbor_set_own_report:00000000000000d8 .LBE93
C:\Users\stapi\AppData\Local\Temp\cc2hhySa.s:1105   .text.hostapd_neighbor_set_own_report:00000000000000f6 .LBB96
C:\Users\stapi\AppData\Local\Temp\cc2hhySa.s:1114   .text.hostapd_neighbor_set_own_report:00000000000000fc .LBE96
C:\Users\stapi\AppData\Local\Temp\cc2hhySa.s:1167   .text.hostapd_neighbor_set_own_report:0000000000000132 .LBE103
C:\Users\stapi\AppData\Local\Temp\cc2hhySa.s:1239   .text.hostapd_neighbor_set_own_report:0000000000000178 .LBB110
C:\Users\stapi\AppData\Local\Temp\cc2hhySa.s:1250   .text.hostapd_neighbor_set_own_report:000000000000017e .LBE110
C:\Users\stapi\AppData\Local\Temp\cc2hhySa.s:1177   .text.hostapd_neighbor_set_own_report:0000000000000138 .LBE106
C:\Users\stapi\AppData\Local\Temp\cc2hhySa.s:1262   .text.hostapd_neighbor_set_own_report:000000000000018a .LBB111
C:\Users\stapi\AppData\Local\Temp\cc2hhySa.s:1273   .text.hostapd_neighbor_set_own_report:0000000000000190 .LBE111
C:\Users\stapi\AppData\Local\Temp\cc2hhySa.s:1306   .text.hostapd_neighbor_set_own_report:00000000000001c0 .LBE112
C:\Users\stapi\AppData\Local\Temp\cc2hhySa.s:1310   .text.hostapd_neighbor_set_own_report:00000000000001c4 .LBB115
C:\Users\stapi\AppData\Local\Temp\cc2hhySa.s:1319   .text.hostapd_neighbor_set_own_report:00000000000001d0 .LBE115
C:\Users\stapi\AppData\Local\Temp\cc2hhySa.s:1339   .text.hostapd_neighbor_set_own_report:00000000000001e0 .LBE116
C:\Users\stapi\AppData\Local\Temp\cc2hhySa.s:1342   .text.hostapd_neighbor_set_own_report:00000000000001e4 .LBB123
C:\Users\stapi\AppData\Local\Temp\cc2hhySa.s:1361   .text.hostapd_neighbor_set_own_report:00000000000001f4 .LBE123
C:\Users\stapi\AppData\Local\Temp\cc2hhySa.s:1337   .text.hostapd_neighbor_set_own_report:00000000000001e0 .LBE118
C:\Users\stapi\AppData\Local\Temp\cc2hhySa.s:1344   .text.hostapd_neighbor_set_own_report:00000000000001e4 .LBB121
C:\Users\stapi\AppData\Local\Temp\cc2hhySa.s:1359   .text.hostapd_neighbor_set_own_report:00000000000001f4 .LBE121

UNDEFINED SYMBOLS
__riscv_save_1
wpabuf_free
os_memset
__riscv_restore_1
wpabuf_put
__riscv_save_4
os_memcmp
__riscv_restore_4
__riscv_save_12
__riscv_restore_12
wpa_snprintf_hex
os_snprintf
os_free
__riscv_save_9
os_zalloc
os_memcpy
crc32
wpabuf_dup
__riscv_restore_9
os_get_time
__riscv_save_2
__riscv_restore_2
__riscv_save_8
hostapd_own_capab_info
ieee80211_freq_to_channel_ext
ieee80211_freq_to_chan
wpabuf_alloc
ieee80211_get_phy_type
__riscv_restore_8
