   1              		.file	"pmksa_cache_auth.c"
   2              		.option nopic
   3              		.attribute arch, "rv32i2p0_m2p0_a2p0_f2p0_c2p0_b_p0p94"
   4              		.attribute unaligned_access, 0
   5              		.attribute stack_align, 16
   6              		.text
   7              	.Ltext0:
   8              		.cfi_sections	.debug_frame
   9              		.section	.text._pmksa_cache_free_entry,"ax",@progbits
  10              		.align	1
  12              	_pmksa_cache_free_entry:
  13              	.LFB136:
  14              		.file 1 "C:/Users/stapi/OneDrive/Desktop/GD32VW553/V1_MQTT_OK/GD32VW55X_Wifi_BLE_SDK/GD32VW55x_REL
   1:C:/Users/stapi/OneDrive/Desktop/GD32VW553/V1_MQTT_OK/GD32VW55X_Wifi_BLE_SDK/GD32VW55x_RELEASE_V1.0.2/MSDK/wpa_supplicant/src/ap\pmksa_cache_auth.c **** /*
   2:C:/Users/stapi/OneDrive/Desktop/GD32VW553/V1_MQTT_OK/GD32VW55X_Wifi_BLE_SDK/GD32VW55x_RELEASE_V1.0.2/MSDK/wpa_supplicant/src/ap\pmksa_cache_auth.c ****  * hostapd - PMKSA cache for IEEE 802.11i RSN
   3:C:/Users/stapi/OneDrive/Desktop/GD32VW553/V1_MQTT_OK/GD32VW55X_Wifi_BLE_SDK/GD32VW55x_RELEASE_V1.0.2/MSDK/wpa_supplicant/src/ap\pmksa_cache_auth.c ****  * Copyright (c) 2004-2008, 2012-2015, Jouni Malinen <j@w1.fi>
   4:C:/Users/stapi/OneDrive/Desktop/GD32VW553/V1_MQTT_OK/GD32VW55X_Wifi_BLE_SDK/GD32VW55x_RELEASE_V1.0.2/MSDK/wpa_supplicant/src/ap\pmksa_cache_auth.c ****  *
   5:C:/Users/stapi/OneDrive/Desktop/GD32VW553/V1_MQTT_OK/GD32VW55X_Wifi_BLE_SDK/GD32VW55x_RELEASE_V1.0.2/MSDK/wpa_supplicant/src/ap\pmksa_cache_auth.c ****  * This software may be distributed under the terms of the BSD license.
   6:C:/Users/stapi/OneDrive/Desktop/GD32VW553/V1_MQTT_OK/GD32VW55X_Wifi_BLE_SDK/GD32VW55x_RELEASE_V1.0.2/MSDK/wpa_supplicant/src/ap\pmksa_cache_auth.c ****  * See README for more details.
   7:C:/Users/stapi/OneDrive/Desktop/GD32VW553/V1_MQTT_OK/GD32VW55X_Wifi_BLE_SDK/GD32VW55x_RELEASE_V1.0.2/MSDK/wpa_supplicant/src/ap\pmksa_cache_auth.c ****  */
   8:C:/Users/stapi/OneDrive/Desktop/GD32VW553/V1_MQTT_OK/GD32VW55X_Wifi_BLE_SDK/GD32VW55x_RELEASE_V1.0.2/MSDK/wpa_supplicant/src/ap\pmksa_cache_auth.c **** 
   9:C:/Users/stapi/OneDrive/Desktop/GD32VW553/V1_MQTT_OK/GD32VW55X_Wifi_BLE_SDK/GD32VW55x_RELEASE_V1.0.2/MSDK/wpa_supplicant/src/ap\pmksa_cache_auth.c **** #include "utils/includes.h"
  10:C:/Users/stapi/OneDrive/Desktop/GD32VW553/V1_MQTT_OK/GD32VW55X_Wifi_BLE_SDK/GD32VW55x_RELEASE_V1.0.2/MSDK/wpa_supplicant/src/ap\pmksa_cache_auth.c **** 
  11:C:/Users/stapi/OneDrive/Desktop/GD32VW553/V1_MQTT_OK/GD32VW55X_Wifi_BLE_SDK/GD32VW55x_RELEASE_V1.0.2/MSDK/wpa_supplicant/src/ap\pmksa_cache_auth.c **** #ifdef CONFIG_AP
  12:C:/Users/stapi/OneDrive/Desktop/GD32VW553/V1_MQTT_OK/GD32VW55X_Wifi_BLE_SDK/GD32VW55x_RELEASE_V1.0.2/MSDK/wpa_supplicant/src/ap\pmksa_cache_auth.c **** #include "utils/common.h"
  13:C:/Users/stapi/OneDrive/Desktop/GD32VW553/V1_MQTT_OK/GD32VW55X_Wifi_BLE_SDK/GD32VW55x_RELEASE_V1.0.2/MSDK/wpa_supplicant/src/ap\pmksa_cache_auth.c **** #include "utils/eloop.h"
  14:C:/Users/stapi/OneDrive/Desktop/GD32VW553/V1_MQTT_OK/GD32VW55X_Wifi_BLE_SDK/GD32VW55x_RELEASE_V1.0.2/MSDK/wpa_supplicant/src/ap\pmksa_cache_auth.c **** #include "eapol_auth/eapol_auth_sm.h"
  15:C:/Users/stapi/OneDrive/Desktop/GD32VW553/V1_MQTT_OK/GD32VW55X_Wifi_BLE_SDK/GD32VW55x_RELEASE_V1.0.2/MSDK/wpa_supplicant/src/ap\pmksa_cache_auth.c **** #include "eapol_auth/eapol_auth_sm_i.h"
  16:C:/Users/stapi/OneDrive/Desktop/GD32VW553/V1_MQTT_OK/GD32VW55X_Wifi_BLE_SDK/GD32VW55x_RELEASE_V1.0.2/MSDK/wpa_supplicant/src/ap\pmksa_cache_auth.c **** #include "radius/radius_das.h"
  17:C:/Users/stapi/OneDrive/Desktop/GD32VW553/V1_MQTT_OK/GD32VW55X_Wifi_BLE_SDK/GD32VW55x_RELEASE_V1.0.2/MSDK/wpa_supplicant/src/ap\pmksa_cache_auth.c **** #include "sta_info.h"
  18:C:/Users/stapi/OneDrive/Desktop/GD32VW553/V1_MQTT_OK/GD32VW55X_Wifi_BLE_SDK/GD32VW55x_RELEASE_V1.0.2/MSDK/wpa_supplicant/src/ap\pmksa_cache_auth.c **** #include "ap_config.h"
  19:C:/Users/stapi/OneDrive/Desktop/GD32VW553/V1_MQTT_OK/GD32VW55X_Wifi_BLE_SDK/GD32VW55x_RELEASE_V1.0.2/MSDK/wpa_supplicant/src/ap\pmksa_cache_auth.c **** #include "pmksa_cache_auth.h"
  20:C:/Users/stapi/OneDrive/Desktop/GD32VW553/V1_MQTT_OK/GD32VW55X_Wifi_BLE_SDK/GD32VW55x_RELEASE_V1.0.2/MSDK/wpa_supplicant/src/ap\pmksa_cache_auth.c **** 
  21:C:/Users/stapi/OneDrive/Desktop/GD32VW553/V1_MQTT_OK/GD32VW55X_Wifi_BLE_SDK/GD32VW55x_RELEASE_V1.0.2/MSDK/wpa_supplicant/src/ap\pmksa_cache_auth.c **** 
  22:C:/Users/stapi/OneDrive/Desktop/GD32VW553/V1_MQTT_OK/GD32VW55X_Wifi_BLE_SDK/GD32VW55x_RELEASE_V1.0.2/MSDK/wpa_supplicant/src/ap\pmksa_cache_auth.c **** static const int pmksa_cache_max_entries = 1024;
  23:C:/Users/stapi/OneDrive/Desktop/GD32VW553/V1_MQTT_OK/GD32VW55X_Wifi_BLE_SDK/GD32VW55x_RELEASE_V1.0.2/MSDK/wpa_supplicant/src/ap\pmksa_cache_auth.c **** static const int dot11RSNAConfigPMKLifetime = 43200;
  24:C:/Users/stapi/OneDrive/Desktop/GD32VW553/V1_MQTT_OK/GD32VW55X_Wifi_BLE_SDK/GD32VW55x_RELEASE_V1.0.2/MSDK/wpa_supplicant/src/ap\pmksa_cache_auth.c **** 
  25:C:/Users/stapi/OneDrive/Desktop/GD32VW553/V1_MQTT_OK/GD32VW55X_Wifi_BLE_SDK/GD32VW55x_RELEASE_V1.0.2/MSDK/wpa_supplicant/src/ap\pmksa_cache_auth.c **** struct rsn_pmksa_cache {
  26:C:/Users/stapi/OneDrive/Desktop/GD32VW553/V1_MQTT_OK/GD32VW55X_Wifi_BLE_SDK/GD32VW55x_RELEASE_V1.0.2/MSDK/wpa_supplicant/src/ap\pmksa_cache_auth.c **** #define PMKID_HASH_SIZE 128
  27:C:/Users/stapi/OneDrive/Desktop/GD32VW553/V1_MQTT_OK/GD32VW55X_Wifi_BLE_SDK/GD32VW55x_RELEASE_V1.0.2/MSDK/wpa_supplicant/src/ap\pmksa_cache_auth.c **** #define PMKID_HASH(pmkid) (unsigned int) ((pmkid)[0] & 0x7f)
  28:C:/Users/stapi/OneDrive/Desktop/GD32VW553/V1_MQTT_OK/GD32VW55X_Wifi_BLE_SDK/GD32VW55x_RELEASE_V1.0.2/MSDK/wpa_supplicant/src/ap\pmksa_cache_auth.c **** 	struct rsn_pmksa_cache_entry *pmkid[PMKID_HASH_SIZE];
  29:C:/Users/stapi/OneDrive/Desktop/GD32VW553/V1_MQTT_OK/GD32VW55X_Wifi_BLE_SDK/GD32VW55x_RELEASE_V1.0.2/MSDK/wpa_supplicant/src/ap\pmksa_cache_auth.c **** 	struct rsn_pmksa_cache_entry *pmksa;
  30:C:/Users/stapi/OneDrive/Desktop/GD32VW553/V1_MQTT_OK/GD32VW55X_Wifi_BLE_SDK/GD32VW55x_RELEASE_V1.0.2/MSDK/wpa_supplicant/src/ap\pmksa_cache_auth.c **** 	int pmksa_count;
  31:C:/Users/stapi/OneDrive/Desktop/GD32VW553/V1_MQTT_OK/GD32VW55X_Wifi_BLE_SDK/GD32VW55x_RELEASE_V1.0.2/MSDK/wpa_supplicant/src/ap\pmksa_cache_auth.c **** 
  32:C:/Users/stapi/OneDrive/Desktop/GD32VW553/V1_MQTT_OK/GD32VW55X_Wifi_BLE_SDK/GD32VW55x_RELEASE_V1.0.2/MSDK/wpa_supplicant/src/ap\pmksa_cache_auth.c **** 	void (*free_cb)(struct rsn_pmksa_cache_entry *entry, void *ctx);
  33:C:/Users/stapi/OneDrive/Desktop/GD32VW553/V1_MQTT_OK/GD32VW55X_Wifi_BLE_SDK/GD32VW55x_RELEASE_V1.0.2/MSDK/wpa_supplicant/src/ap\pmksa_cache_auth.c **** 	void *ctx;
  34:C:/Users/stapi/OneDrive/Desktop/GD32VW553/V1_MQTT_OK/GD32VW55X_Wifi_BLE_SDK/GD32VW55x_RELEASE_V1.0.2/MSDK/wpa_supplicant/src/ap\pmksa_cache_auth.c **** };
  35:C:/Users/stapi/OneDrive/Desktop/GD32VW553/V1_MQTT_OK/GD32VW55X_Wifi_BLE_SDK/GD32VW55x_RELEASE_V1.0.2/MSDK/wpa_supplicant/src/ap\pmksa_cache_auth.c **** 
  36:C:/Users/stapi/OneDrive/Desktop/GD32VW553/V1_MQTT_OK/GD32VW55X_Wifi_BLE_SDK/GD32VW55x_RELEASE_V1.0.2/MSDK/wpa_supplicant/src/ap\pmksa_cache_auth.c **** 
  37:C:/Users/stapi/OneDrive/Desktop/GD32VW553/V1_MQTT_OK/GD32VW55X_Wifi_BLE_SDK/GD32VW55x_RELEASE_V1.0.2/MSDK/wpa_supplicant/src/ap\pmksa_cache_auth.c **** static void pmksa_cache_set_expiration(struct rsn_pmksa_cache *pmksa);
  38:C:/Users/stapi/OneDrive/Desktop/GD32VW553/V1_MQTT_OK/GD32VW55X_Wifi_BLE_SDK/GD32VW55x_RELEASE_V1.0.2/MSDK/wpa_supplicant/src/ap\pmksa_cache_auth.c **** 
  39:C:/Users/stapi/OneDrive/Desktop/GD32VW553/V1_MQTT_OK/GD32VW55X_Wifi_BLE_SDK/GD32VW55x_RELEASE_V1.0.2/MSDK/wpa_supplicant/src/ap\pmksa_cache_auth.c **** 
  40:C:/Users/stapi/OneDrive/Desktop/GD32VW553/V1_MQTT_OK/GD32VW55X_Wifi_BLE_SDK/GD32VW55x_RELEASE_V1.0.2/MSDK/wpa_supplicant/src/ap\pmksa_cache_auth.c **** static void _pmksa_cache_free_entry(struct rsn_pmksa_cache_entry *entry)
  41:C:/Users/stapi/OneDrive/Desktop/GD32VW553/V1_MQTT_OK/GD32VW55X_Wifi_BLE_SDK/GD32VW55x_RELEASE_V1.0.2/MSDK/wpa_supplicant/src/ap\pmksa_cache_auth.c **** {
  15              		.loc 1 41 1
  16              		.cfi_startproc
  17              	.LVL0:
  18 0000 17030000 		call	t0,__riscv_save_1
  18      E7020300 
  19              		.cfi_offset 8, -8
  20              		.cfi_offset 1, -4
  21              		.cfi_def_cfa_offset 16
  42:C:/Users/stapi/OneDrive/Desktop/GD32VW553/V1_MQTT_OK/GD32VW55X_Wifi_BLE_SDK/GD32VW55x_RELEASE_V1.0.2/MSDK/wpa_supplicant/src/ap\pmksa_cache_auth.c **** 	os_free(entry->vlan_desc);
  22              		.loc 1 42 2
  41:C:/Users/stapi/OneDrive/Desktop/GD32VW553/V1_MQTT_OK/GD32VW55X_Wifi_BLE_SDK/GD32VW55x_RELEASE_V1.0.2/MSDK/wpa_supplicant/src/ap\pmksa_cache_auth.c **** 	os_free(entry->vlan_desc);
  23              		.loc 1 41 1 is_stmt 0
  24 0008 2A84     		mv	s0,a0
  25              		.loc 1 42 2
  26 000a 03254508 		lw	a0,132(a0)
  27              	.LVL1:
  28 000e 97000000 		call	os_free
  28      E7800000 
  29              	.LVL2:
  43:C:/Users/stapi/OneDrive/Desktop/GD32VW553/V1_MQTT_OK/GD32VW55X_Wifi_BLE_SDK/GD32VW55x_RELEASE_V1.0.2/MSDK/wpa_supplicant/src/ap\pmksa_cache_auth.c **** 	os_free(entry->identity);
  30              		.loc 1 43 2 is_stmt 1
  31 0016 6854     		lw	a0,108(s0)
  32 0018 97000000 		call	os_free
  32      E7800000 
  33              	.LVL3:
  44:C:/Users/stapi/OneDrive/Desktop/GD32VW553/V1_MQTT_OK/GD32VW55X_Wifi_BLE_SDK/GD32VW55x_RELEASE_V1.0.2/MSDK/wpa_supplicant/src/ap\pmksa_cache_auth.c **** 	wpabuf_free(entry->cui);
  34              		.loc 1 44 2
  35 0020 6858     		lw	a0,116(s0)
  36 0022 97000000 		call	wpabuf_free
  36      E7800000 
  37              	.LVL4:
  45:C:/Users/stapi/OneDrive/Desktop/GD32VW553/V1_MQTT_OK/GD32VW55X_Wifi_BLE_SDK/GD32VW55x_RELEASE_V1.0.2/MSDK/wpa_supplicant/src/ap\pmksa_cache_auth.c **** #ifndef CONFIG_NO_RADIUS
  46:C:/Users/stapi/OneDrive/Desktop/GD32VW553/V1_MQTT_OK/GD32VW55X_Wifi_BLE_SDK/GD32VW55x_RELEASE_V1.0.2/MSDK/wpa_supplicant/src/ap\pmksa_cache_auth.c **** 	radius_free_class(&entry->radius_class);
  47:C:/Users/stapi/OneDrive/Desktop/GD32VW553/V1_MQTT_OK/GD32VW55X_Wifi_BLE_SDK/GD32VW55x_RELEASE_V1.0.2/MSDK/wpa_supplicant/src/ap\pmksa_cache_auth.c **** #endif /* CONFIG_NO_RADIUS */
  48:C:/Users/stapi/OneDrive/Desktop/GD32VW553/V1_MQTT_OK/GD32VW55X_Wifi_BLE_SDK/GD32VW55x_RELEASE_V1.0.2/MSDK/wpa_supplicant/src/ap\pmksa_cache_auth.c **** 	bin_clear_free(entry, sizeof(*entry));
  38              		.loc 1 48 2
  39 002a 93058009 		li	a1,152
  40 002e 2285     		mv	a0,s0
  41 0030 97000000 		call	bin_clear_free
  41      E7800000 
  42              	.LVL5:
  49:C:/Users/stapi/OneDrive/Desktop/GD32VW553/V1_MQTT_OK/GD32VW55X_Wifi_BLE_SDK/GD32VW55x_RELEASE_V1.0.2/MSDK/wpa_supplicant/src/ap\pmksa_cache_auth.c **** }
  43              		.loc 1 49 1 is_stmt 0
  44 0038 17030000 		tail	__riscv_restore_1
  44      67000300 
  45              		.cfi_restore 8
  46              		.cfi_restore 1
  47              		.cfi_def_cfa_offset 0
  48              		.cfi_endproc
  49              	.LFE136:
  51              		.section	.text.pmksa_cache_set_expiration,"ax",@progbits
  52              		.align	1
  54              	pmksa_cache_set_expiration:
  55              	.LFB140:
  50:C:/Users/stapi/OneDrive/Desktop/GD32VW553/V1_MQTT_OK/GD32VW55X_Wifi_BLE_SDK/GD32VW55x_RELEASE_V1.0.2/MSDK/wpa_supplicant/src/ap\pmksa_cache_auth.c **** 
  51:C:/Users/stapi/OneDrive/Desktop/GD32VW553/V1_MQTT_OK/GD32VW55X_Wifi_BLE_SDK/GD32VW55x_RELEASE_V1.0.2/MSDK/wpa_supplicant/src/ap\pmksa_cache_auth.c **** 
  52:C:/Users/stapi/OneDrive/Desktop/GD32VW553/V1_MQTT_OK/GD32VW55X_Wifi_BLE_SDK/GD32VW55x_RELEASE_V1.0.2/MSDK/wpa_supplicant/src/ap\pmksa_cache_auth.c **** void pmksa_cache_free_entry(struct rsn_pmksa_cache *pmksa,
  53:C:/Users/stapi/OneDrive/Desktop/GD32VW553/V1_MQTT_OK/GD32VW55X_Wifi_BLE_SDK/GD32VW55x_RELEASE_V1.0.2/MSDK/wpa_supplicant/src/ap\pmksa_cache_auth.c **** 			    struct rsn_pmksa_cache_entry *entry)
  54:C:/Users/stapi/OneDrive/Desktop/GD32VW553/V1_MQTT_OK/GD32VW55X_Wifi_BLE_SDK/GD32VW55x_RELEASE_V1.0.2/MSDK/wpa_supplicant/src/ap\pmksa_cache_auth.c **** {
  55:C:/Users/stapi/OneDrive/Desktop/GD32VW553/V1_MQTT_OK/GD32VW55X_Wifi_BLE_SDK/GD32VW55x_RELEASE_V1.0.2/MSDK/wpa_supplicant/src/ap\pmksa_cache_auth.c **** 	struct rsn_pmksa_cache_entry *pos, *prev;
  56:C:/Users/stapi/OneDrive/Desktop/GD32VW553/V1_MQTT_OK/GD32VW55X_Wifi_BLE_SDK/GD32VW55x_RELEASE_V1.0.2/MSDK/wpa_supplicant/src/ap\pmksa_cache_auth.c **** 	unsigned int hash;
  57:C:/Users/stapi/OneDrive/Desktop/GD32VW553/V1_MQTT_OK/GD32VW55X_Wifi_BLE_SDK/GD32VW55x_RELEASE_V1.0.2/MSDK/wpa_supplicant/src/ap\pmksa_cache_auth.c **** 
  58:C:/Users/stapi/OneDrive/Desktop/GD32VW553/V1_MQTT_OK/GD32VW55X_Wifi_BLE_SDK/GD32VW55x_RELEASE_V1.0.2/MSDK/wpa_supplicant/src/ap\pmksa_cache_auth.c **** 	pmksa->pmksa_count--;
  59:C:/Users/stapi/OneDrive/Desktop/GD32VW553/V1_MQTT_OK/GD32VW55X_Wifi_BLE_SDK/GD32VW55x_RELEASE_V1.0.2/MSDK/wpa_supplicant/src/ap\pmksa_cache_auth.c **** 	pmksa->free_cb(entry, pmksa->ctx);
  60:C:/Users/stapi/OneDrive/Desktop/GD32VW553/V1_MQTT_OK/GD32VW55X_Wifi_BLE_SDK/GD32VW55x_RELEASE_V1.0.2/MSDK/wpa_supplicant/src/ap\pmksa_cache_auth.c **** 
  61:C:/Users/stapi/OneDrive/Desktop/GD32VW553/V1_MQTT_OK/GD32VW55X_Wifi_BLE_SDK/GD32VW55x_RELEASE_V1.0.2/MSDK/wpa_supplicant/src/ap\pmksa_cache_auth.c **** 	/* unlink from hash list */
  62:C:/Users/stapi/OneDrive/Desktop/GD32VW553/V1_MQTT_OK/GD32VW55X_Wifi_BLE_SDK/GD32VW55x_RELEASE_V1.0.2/MSDK/wpa_supplicant/src/ap\pmksa_cache_auth.c **** 	hash = PMKID_HASH(entry->pmkid);
  63:C:/Users/stapi/OneDrive/Desktop/GD32VW553/V1_MQTT_OK/GD32VW55X_Wifi_BLE_SDK/GD32VW55x_RELEASE_V1.0.2/MSDK/wpa_supplicant/src/ap\pmksa_cache_auth.c **** 	pos = pmksa->pmkid[hash];
  64:C:/Users/stapi/OneDrive/Desktop/GD32VW553/V1_MQTT_OK/GD32VW55X_Wifi_BLE_SDK/GD32VW55x_RELEASE_V1.0.2/MSDK/wpa_supplicant/src/ap\pmksa_cache_auth.c **** 	prev = NULL;
  65:C:/Users/stapi/OneDrive/Desktop/GD32VW553/V1_MQTT_OK/GD32VW55X_Wifi_BLE_SDK/GD32VW55x_RELEASE_V1.0.2/MSDK/wpa_supplicant/src/ap\pmksa_cache_auth.c **** 	while (pos) {
  66:C:/Users/stapi/OneDrive/Desktop/GD32VW553/V1_MQTT_OK/GD32VW55X_Wifi_BLE_SDK/GD32VW55x_RELEASE_V1.0.2/MSDK/wpa_supplicant/src/ap\pmksa_cache_auth.c **** 		if (pos == entry) {
  67:C:/Users/stapi/OneDrive/Desktop/GD32VW553/V1_MQTT_OK/GD32VW55X_Wifi_BLE_SDK/GD32VW55x_RELEASE_V1.0.2/MSDK/wpa_supplicant/src/ap\pmksa_cache_auth.c **** 			if (prev != NULL)
  68:C:/Users/stapi/OneDrive/Desktop/GD32VW553/V1_MQTT_OK/GD32VW55X_Wifi_BLE_SDK/GD32VW55x_RELEASE_V1.0.2/MSDK/wpa_supplicant/src/ap\pmksa_cache_auth.c **** 				prev->hnext = entry->hnext;
  69:C:/Users/stapi/OneDrive/Desktop/GD32VW553/V1_MQTT_OK/GD32VW55X_Wifi_BLE_SDK/GD32VW55x_RELEASE_V1.0.2/MSDK/wpa_supplicant/src/ap\pmksa_cache_auth.c **** 			else
  70:C:/Users/stapi/OneDrive/Desktop/GD32VW553/V1_MQTT_OK/GD32VW55X_Wifi_BLE_SDK/GD32VW55x_RELEASE_V1.0.2/MSDK/wpa_supplicant/src/ap\pmksa_cache_auth.c **** 				pmksa->pmkid[hash] = entry->hnext;
  71:C:/Users/stapi/OneDrive/Desktop/GD32VW553/V1_MQTT_OK/GD32VW55X_Wifi_BLE_SDK/GD32VW55x_RELEASE_V1.0.2/MSDK/wpa_supplicant/src/ap\pmksa_cache_auth.c **** 			break;
  72:C:/Users/stapi/OneDrive/Desktop/GD32VW553/V1_MQTT_OK/GD32VW55X_Wifi_BLE_SDK/GD32VW55x_RELEASE_V1.0.2/MSDK/wpa_supplicant/src/ap\pmksa_cache_auth.c **** 		}
  73:C:/Users/stapi/OneDrive/Desktop/GD32VW553/V1_MQTT_OK/GD32VW55X_Wifi_BLE_SDK/GD32VW55x_RELEASE_V1.0.2/MSDK/wpa_supplicant/src/ap\pmksa_cache_auth.c **** 		prev = pos;
  74:C:/Users/stapi/OneDrive/Desktop/GD32VW553/V1_MQTT_OK/GD32VW55X_Wifi_BLE_SDK/GD32VW55x_RELEASE_V1.0.2/MSDK/wpa_supplicant/src/ap\pmksa_cache_auth.c **** 		pos = pos->hnext;
  75:C:/Users/stapi/OneDrive/Desktop/GD32VW553/V1_MQTT_OK/GD32VW55X_Wifi_BLE_SDK/GD32VW55x_RELEASE_V1.0.2/MSDK/wpa_supplicant/src/ap\pmksa_cache_auth.c **** 	}
  76:C:/Users/stapi/OneDrive/Desktop/GD32VW553/V1_MQTT_OK/GD32VW55X_Wifi_BLE_SDK/GD32VW55x_RELEASE_V1.0.2/MSDK/wpa_supplicant/src/ap\pmksa_cache_auth.c **** 
  77:C:/Users/stapi/OneDrive/Desktop/GD32VW553/V1_MQTT_OK/GD32VW55X_Wifi_BLE_SDK/GD32VW55x_RELEASE_V1.0.2/MSDK/wpa_supplicant/src/ap\pmksa_cache_auth.c **** 	/* unlink from entry list */
  78:C:/Users/stapi/OneDrive/Desktop/GD32VW553/V1_MQTT_OK/GD32VW55X_Wifi_BLE_SDK/GD32VW55x_RELEASE_V1.0.2/MSDK/wpa_supplicant/src/ap\pmksa_cache_auth.c **** 	pos = pmksa->pmksa;
  79:C:/Users/stapi/OneDrive/Desktop/GD32VW553/V1_MQTT_OK/GD32VW55X_Wifi_BLE_SDK/GD32VW55x_RELEASE_V1.0.2/MSDK/wpa_supplicant/src/ap\pmksa_cache_auth.c **** 	prev = NULL;
  80:C:/Users/stapi/OneDrive/Desktop/GD32VW553/V1_MQTT_OK/GD32VW55X_Wifi_BLE_SDK/GD32VW55x_RELEASE_V1.0.2/MSDK/wpa_supplicant/src/ap\pmksa_cache_auth.c **** 	while (pos) {
  81:C:/Users/stapi/OneDrive/Desktop/GD32VW553/V1_MQTT_OK/GD32VW55X_Wifi_BLE_SDK/GD32VW55x_RELEASE_V1.0.2/MSDK/wpa_supplicant/src/ap\pmksa_cache_auth.c **** 		if (pos == entry) {
  82:C:/Users/stapi/OneDrive/Desktop/GD32VW553/V1_MQTT_OK/GD32VW55X_Wifi_BLE_SDK/GD32VW55x_RELEASE_V1.0.2/MSDK/wpa_supplicant/src/ap\pmksa_cache_auth.c **** 			if (prev != NULL)
  83:C:/Users/stapi/OneDrive/Desktop/GD32VW553/V1_MQTT_OK/GD32VW55X_Wifi_BLE_SDK/GD32VW55x_RELEASE_V1.0.2/MSDK/wpa_supplicant/src/ap\pmksa_cache_auth.c **** 				prev->next = entry->next;
  84:C:/Users/stapi/OneDrive/Desktop/GD32VW553/V1_MQTT_OK/GD32VW55X_Wifi_BLE_SDK/GD32VW55x_RELEASE_V1.0.2/MSDK/wpa_supplicant/src/ap\pmksa_cache_auth.c **** 			else
  85:C:/Users/stapi/OneDrive/Desktop/GD32VW553/V1_MQTT_OK/GD32VW55X_Wifi_BLE_SDK/GD32VW55x_RELEASE_V1.0.2/MSDK/wpa_supplicant/src/ap\pmksa_cache_auth.c **** 				pmksa->pmksa = entry->next;
  86:C:/Users/stapi/OneDrive/Desktop/GD32VW553/V1_MQTT_OK/GD32VW55X_Wifi_BLE_SDK/GD32VW55x_RELEASE_V1.0.2/MSDK/wpa_supplicant/src/ap\pmksa_cache_auth.c **** 			break;
  87:C:/Users/stapi/OneDrive/Desktop/GD32VW553/V1_MQTT_OK/GD32VW55X_Wifi_BLE_SDK/GD32VW55x_RELEASE_V1.0.2/MSDK/wpa_supplicant/src/ap\pmksa_cache_auth.c **** 		}
  88:C:/Users/stapi/OneDrive/Desktop/GD32VW553/V1_MQTT_OK/GD32VW55X_Wifi_BLE_SDK/GD32VW55x_RELEASE_V1.0.2/MSDK/wpa_supplicant/src/ap\pmksa_cache_auth.c **** 		prev = pos;
  89:C:/Users/stapi/OneDrive/Desktop/GD32VW553/V1_MQTT_OK/GD32VW55X_Wifi_BLE_SDK/GD32VW55x_RELEASE_V1.0.2/MSDK/wpa_supplicant/src/ap\pmksa_cache_auth.c **** 		pos = pos->next;
  90:C:/Users/stapi/OneDrive/Desktop/GD32VW553/V1_MQTT_OK/GD32VW55X_Wifi_BLE_SDK/GD32VW55x_RELEASE_V1.0.2/MSDK/wpa_supplicant/src/ap\pmksa_cache_auth.c **** 	}
  91:C:/Users/stapi/OneDrive/Desktop/GD32VW553/V1_MQTT_OK/GD32VW55X_Wifi_BLE_SDK/GD32VW55x_RELEASE_V1.0.2/MSDK/wpa_supplicant/src/ap\pmksa_cache_auth.c **** 
  92:C:/Users/stapi/OneDrive/Desktop/GD32VW553/V1_MQTT_OK/GD32VW55X_Wifi_BLE_SDK/GD32VW55x_RELEASE_V1.0.2/MSDK/wpa_supplicant/src/ap\pmksa_cache_auth.c **** 	_pmksa_cache_free_entry(entry);
  93:C:/Users/stapi/OneDrive/Desktop/GD32VW553/V1_MQTT_OK/GD32VW55X_Wifi_BLE_SDK/GD32VW55x_RELEASE_V1.0.2/MSDK/wpa_supplicant/src/ap\pmksa_cache_auth.c **** }
  94:C:/Users/stapi/OneDrive/Desktop/GD32VW553/V1_MQTT_OK/GD32VW55X_Wifi_BLE_SDK/GD32VW55x_RELEASE_V1.0.2/MSDK/wpa_supplicant/src/ap\pmksa_cache_auth.c **** 
  95:C:/Users/stapi/OneDrive/Desktop/GD32VW553/V1_MQTT_OK/GD32VW55X_Wifi_BLE_SDK/GD32VW55x_RELEASE_V1.0.2/MSDK/wpa_supplicant/src/ap\pmksa_cache_auth.c **** 
  96:C:/Users/stapi/OneDrive/Desktop/GD32VW553/V1_MQTT_OK/GD32VW55X_Wifi_BLE_SDK/GD32VW55x_RELEASE_V1.0.2/MSDK/wpa_supplicant/src/ap\pmksa_cache_auth.c **** /**
  97:C:/Users/stapi/OneDrive/Desktop/GD32VW553/V1_MQTT_OK/GD32VW55X_Wifi_BLE_SDK/GD32VW55x_RELEASE_V1.0.2/MSDK/wpa_supplicant/src/ap\pmksa_cache_auth.c ****  * pmksa_cache_auth_flush - Flush all PMKSA cache entries
  98:C:/Users/stapi/OneDrive/Desktop/GD32VW553/V1_MQTT_OK/GD32VW55X_Wifi_BLE_SDK/GD32VW55x_RELEASE_V1.0.2/MSDK/wpa_supplicant/src/ap\pmksa_cache_auth.c ****  * @pmksa: Pointer to PMKSA cache data from pmksa_cache_auth_init()
  99:C:/Users/stapi/OneDrive/Desktop/GD32VW553/V1_MQTT_OK/GD32VW55X_Wifi_BLE_SDK/GD32VW55x_RELEASE_V1.0.2/MSDK/wpa_supplicant/src/ap\pmksa_cache_auth.c ****  */
 100:C:/Users/stapi/OneDrive/Desktop/GD32VW553/V1_MQTT_OK/GD32VW55X_Wifi_BLE_SDK/GD32VW55x_RELEASE_V1.0.2/MSDK/wpa_supplicant/src/ap\pmksa_cache_auth.c **** void pmksa_cache_auth_flush(struct rsn_pmksa_cache *pmksa)
 101:C:/Users/stapi/OneDrive/Desktop/GD32VW553/V1_MQTT_OK/GD32VW55X_Wifi_BLE_SDK/GD32VW55x_RELEASE_V1.0.2/MSDK/wpa_supplicant/src/ap\pmksa_cache_auth.c **** {
 102:C:/Users/stapi/OneDrive/Desktop/GD32VW553/V1_MQTT_OK/GD32VW55X_Wifi_BLE_SDK/GD32VW55x_RELEASE_V1.0.2/MSDK/wpa_supplicant/src/ap\pmksa_cache_auth.c **** 	while (pmksa->pmksa) {
 103:C:/Users/stapi/OneDrive/Desktop/GD32VW553/V1_MQTT_OK/GD32VW55X_Wifi_BLE_SDK/GD32VW55x_RELEASE_V1.0.2/MSDK/wpa_supplicant/src/ap\pmksa_cache_auth.c **** 		wpa_printf(MSG_DEBUG, "RSN: Flush PMKSA cache entry for "
 104:C:/Users/stapi/OneDrive/Desktop/GD32VW553/V1_MQTT_OK/GD32VW55X_Wifi_BLE_SDK/GD32VW55x_RELEASE_V1.0.2/MSDK/wpa_supplicant/src/ap\pmksa_cache_auth.c **** 			   MACSTR, MAC2STR(pmksa->pmksa->spa));
 105:C:/Users/stapi/OneDrive/Desktop/GD32VW553/V1_MQTT_OK/GD32VW55X_Wifi_BLE_SDK/GD32VW55x_RELEASE_V1.0.2/MSDK/wpa_supplicant/src/ap\pmksa_cache_auth.c **** 		pmksa_cache_free_entry(pmksa, pmksa->pmksa);
 106:C:/Users/stapi/OneDrive/Desktop/GD32VW553/V1_MQTT_OK/GD32VW55X_Wifi_BLE_SDK/GD32VW55x_RELEASE_V1.0.2/MSDK/wpa_supplicant/src/ap\pmksa_cache_auth.c **** 	}
 107:C:/Users/stapi/OneDrive/Desktop/GD32VW553/V1_MQTT_OK/GD32VW55X_Wifi_BLE_SDK/GD32VW55x_RELEASE_V1.0.2/MSDK/wpa_supplicant/src/ap\pmksa_cache_auth.c **** }
 108:C:/Users/stapi/OneDrive/Desktop/GD32VW553/V1_MQTT_OK/GD32VW55X_Wifi_BLE_SDK/GD32VW55x_RELEASE_V1.0.2/MSDK/wpa_supplicant/src/ap\pmksa_cache_auth.c **** 
 109:C:/Users/stapi/OneDrive/Desktop/GD32VW553/V1_MQTT_OK/GD32VW55X_Wifi_BLE_SDK/GD32VW55x_RELEASE_V1.0.2/MSDK/wpa_supplicant/src/ap\pmksa_cache_auth.c **** 
 110:C:/Users/stapi/OneDrive/Desktop/GD32VW553/V1_MQTT_OK/GD32VW55X_Wifi_BLE_SDK/GD32VW55x_RELEASE_V1.0.2/MSDK/wpa_supplicant/src/ap\pmksa_cache_auth.c **** static void pmksa_cache_expire(void *eloop_ctx, void *timeout_ctx)
 111:C:/Users/stapi/OneDrive/Desktop/GD32VW553/V1_MQTT_OK/GD32VW55X_Wifi_BLE_SDK/GD32VW55x_RELEASE_V1.0.2/MSDK/wpa_supplicant/src/ap\pmksa_cache_auth.c **** {
 112:C:/Users/stapi/OneDrive/Desktop/GD32VW553/V1_MQTT_OK/GD32VW55X_Wifi_BLE_SDK/GD32VW55x_RELEASE_V1.0.2/MSDK/wpa_supplicant/src/ap\pmksa_cache_auth.c **** 	struct rsn_pmksa_cache *pmksa = eloop_ctx;
 113:C:/Users/stapi/OneDrive/Desktop/GD32VW553/V1_MQTT_OK/GD32VW55X_Wifi_BLE_SDK/GD32VW55x_RELEASE_V1.0.2/MSDK/wpa_supplicant/src/ap\pmksa_cache_auth.c **** 	struct os_reltime now;
 114:C:/Users/stapi/OneDrive/Desktop/GD32VW553/V1_MQTT_OK/GD32VW55X_Wifi_BLE_SDK/GD32VW55x_RELEASE_V1.0.2/MSDK/wpa_supplicant/src/ap\pmksa_cache_auth.c **** 
 115:C:/Users/stapi/OneDrive/Desktop/GD32VW553/V1_MQTT_OK/GD32VW55X_Wifi_BLE_SDK/GD32VW55x_RELEASE_V1.0.2/MSDK/wpa_supplicant/src/ap\pmksa_cache_auth.c **** 	os_get_reltime(&now);
 116:C:/Users/stapi/OneDrive/Desktop/GD32VW553/V1_MQTT_OK/GD32VW55X_Wifi_BLE_SDK/GD32VW55x_RELEASE_V1.0.2/MSDK/wpa_supplicant/src/ap\pmksa_cache_auth.c **** 	while (pmksa->pmksa && pmksa->pmksa->expiration <= now.sec) {
 117:C:/Users/stapi/OneDrive/Desktop/GD32VW553/V1_MQTT_OK/GD32VW55X_Wifi_BLE_SDK/GD32VW55x_RELEASE_V1.0.2/MSDK/wpa_supplicant/src/ap\pmksa_cache_auth.c **** 		wpa_printf(MSG_DEBUG, "RSN: expired PMKSA cache entry for "
 118:C:/Users/stapi/OneDrive/Desktop/GD32VW553/V1_MQTT_OK/GD32VW55X_Wifi_BLE_SDK/GD32VW55x_RELEASE_V1.0.2/MSDK/wpa_supplicant/src/ap\pmksa_cache_auth.c **** 			   MACSTR, MAC2STR(pmksa->pmksa->spa));
 119:C:/Users/stapi/OneDrive/Desktop/GD32VW553/V1_MQTT_OK/GD32VW55X_Wifi_BLE_SDK/GD32VW55x_RELEASE_V1.0.2/MSDK/wpa_supplicant/src/ap\pmksa_cache_auth.c **** 		pmksa_cache_free_entry(pmksa, pmksa->pmksa);
 120:C:/Users/stapi/OneDrive/Desktop/GD32VW553/V1_MQTT_OK/GD32VW55X_Wifi_BLE_SDK/GD32VW55x_RELEASE_V1.0.2/MSDK/wpa_supplicant/src/ap\pmksa_cache_auth.c **** 	}
 121:C:/Users/stapi/OneDrive/Desktop/GD32VW553/V1_MQTT_OK/GD32VW55X_Wifi_BLE_SDK/GD32VW55x_RELEASE_V1.0.2/MSDK/wpa_supplicant/src/ap\pmksa_cache_auth.c **** 
 122:C:/Users/stapi/OneDrive/Desktop/GD32VW553/V1_MQTT_OK/GD32VW55X_Wifi_BLE_SDK/GD32VW55x_RELEASE_V1.0.2/MSDK/wpa_supplicant/src/ap\pmksa_cache_auth.c **** 	pmksa_cache_set_expiration(pmksa);
 123:C:/Users/stapi/OneDrive/Desktop/GD32VW553/V1_MQTT_OK/GD32VW55X_Wifi_BLE_SDK/GD32VW55x_RELEASE_V1.0.2/MSDK/wpa_supplicant/src/ap\pmksa_cache_auth.c **** }
 124:C:/Users/stapi/OneDrive/Desktop/GD32VW553/V1_MQTT_OK/GD32VW55X_Wifi_BLE_SDK/GD32VW55x_RELEASE_V1.0.2/MSDK/wpa_supplicant/src/ap\pmksa_cache_auth.c **** 
 125:C:/Users/stapi/OneDrive/Desktop/GD32VW553/V1_MQTT_OK/GD32VW55X_Wifi_BLE_SDK/GD32VW55x_RELEASE_V1.0.2/MSDK/wpa_supplicant/src/ap\pmksa_cache_auth.c **** 
 126:C:/Users/stapi/OneDrive/Desktop/GD32VW553/V1_MQTT_OK/GD32VW55X_Wifi_BLE_SDK/GD32VW55x_RELEASE_V1.0.2/MSDK/wpa_supplicant/src/ap\pmksa_cache_auth.c **** static void pmksa_cache_set_expiration(struct rsn_pmksa_cache *pmksa)
 127:C:/Users/stapi/OneDrive/Desktop/GD32VW553/V1_MQTT_OK/GD32VW55X_Wifi_BLE_SDK/GD32VW55x_RELEASE_V1.0.2/MSDK/wpa_supplicant/src/ap\pmksa_cache_auth.c **** {
  56              		.loc 1 127 1 is_stmt 1
  57              		.cfi_startproc
  58              	.LVL6:
  59 0000 17030000 		call	t0,__riscv_save_2
  59      E7020300 
  60              		.cfi_offset 9, -12
  61              		.cfi_offset 8, -8
  62              		.cfi_offset 1, -4
  63              		.cfi_def_cfa_offset 16
 128:C:/Users/stapi/OneDrive/Desktop/GD32VW553/V1_MQTT_OK/GD32VW55X_Wifi_BLE_SDK/GD32VW55x_RELEASE_V1.0.2/MSDK/wpa_supplicant/src/ap\pmksa_cache_auth.c **** 	int sec;
  64              		.loc 1 128 2
 129:C:/Users/stapi/OneDrive/Desktop/GD32VW553/V1_MQTT_OK/GD32VW55X_Wifi_BLE_SDK/GD32VW55x_RELEASE_V1.0.2/MSDK/wpa_supplicant/src/ap\pmksa_cache_auth.c **** 	struct os_reltime now;
  65              		.loc 1 129 2
 130:C:/Users/stapi/OneDrive/Desktop/GD32VW553/V1_MQTT_OK/GD32VW55X_Wifi_BLE_SDK/GD32VW55x_RELEASE_V1.0.2/MSDK/wpa_supplicant/src/ap\pmksa_cache_auth.c **** 
 131:C:/Users/stapi/OneDrive/Desktop/GD32VW553/V1_MQTT_OK/GD32VW55X_Wifi_BLE_SDK/GD32VW55x_RELEASE_V1.0.2/MSDK/wpa_supplicant/src/ap\pmksa_cache_auth.c **** 	eloop_cancel_timeout(pmksa_cache_expire, pmksa, NULL);
  66              		.loc 1 131 2
  67 0008 B7040000 		lui	s1,%hi(pmksa_cache_expire)
 127:C:/Users/stapi/OneDrive/Desktop/GD32VW553/V1_MQTT_OK/GD32VW55X_Wifi_BLE_SDK/GD32VW55x_RELEASE_V1.0.2/MSDK/wpa_supplicant/src/ap\pmksa_cache_auth.c **** 	int sec;
  68              		.loc 1 127 1 is_stmt 0
  69 000c 2A84     		mv	s0,a0
  70              		.loc 1 131 2
  71 000e AA85     		mv	a1,a0
 127:C:/Users/stapi/OneDrive/Desktop/GD32VW553/V1_MQTT_OK/GD32VW55X_Wifi_BLE_SDK/GD32VW55x_RELEASE_V1.0.2/MSDK/wpa_supplicant/src/ap\pmksa_cache_auth.c **** 	int sec;
  72              		.loc 1 127 1
  73 0010 4111     		addi	sp,sp,-16
  74              		.cfi_def_cfa_offset 32
  75              		.loc 1 131 2
  76 0012 0146     		li	a2,0
  77 0014 13850400 		addi	a0,s1,%lo(pmksa_cache_expire)
  78              	.LVL7:
  79 0018 97000000 		call	eloop_cancel_timeout
  79      E7800000 
  80              	.LVL8:
 132:C:/Users/stapi/OneDrive/Desktop/GD32VW553/V1_MQTT_OK/GD32VW55X_Wifi_BLE_SDK/GD32VW55x_RELEASE_V1.0.2/MSDK/wpa_supplicant/src/ap\pmksa_cache_auth.c **** 	if (pmksa->pmksa == NULL)
  81              		.loc 1 132 2 is_stmt 1
  82              		.loc 1 132 5 is_stmt 0
  83 0020 83270420 		lw	a5,512(s0)
  84 0024 85CB     		beq	a5,zero,.L3
  85              	.LVL9:
  86              	.LBB27:
  87              	.LBB28:
 133:C:/Users/stapi/OneDrive/Desktop/GD32VW553/V1_MQTT_OK/GD32VW55X_Wifi_BLE_SDK/GD32VW55x_RELEASE_V1.0.2/MSDK/wpa_supplicant/src/ap\pmksa_cache_auth.c **** 		return;
 134:C:/Users/stapi/OneDrive/Desktop/GD32VW553/V1_MQTT_OK/GD32VW55X_Wifi_BLE_SDK/GD32VW55x_RELEASE_V1.0.2/MSDK/wpa_supplicant/src/ap\pmksa_cache_auth.c **** 	os_get_reltime(&now);
  88              		.loc 1 134 2 is_stmt 1
  89 0026 2800     		addi	a0,sp,8
  90 0028 97000000 		call	os_get_reltime
  90      E7800000 
  91              	.LVL10:
 135:C:/Users/stapi/OneDrive/Desktop/GD32VW553/V1_MQTT_OK/GD32VW55X_Wifi_BLE_SDK/GD32VW55x_RELEASE_V1.0.2/MSDK/wpa_supplicant/src/ap\pmksa_cache_auth.c **** 	sec = pmksa->pmksa->expiration - now.sec;
  92              		.loc 1 135 2
  93              		.loc 1 135 20 is_stmt 0
  94 0030 83270420 		lw	a5,512(s0)
 136:C:/Users/stapi/OneDrive/Desktop/GD32VW553/V1_MQTT_OK/GD32VW55X_Wifi_BLE_SDK/GD32VW55x_RELEASE_V1.0.2/MSDK/wpa_supplicant/src/ap\pmksa_cache_auth.c **** 	if (sec < 0)
 137:C:/Users/stapi/OneDrive/Desktop/GD32VW553/V1_MQTT_OK/GD32VW55X_Wifi_BLE_SDK/GD32VW55x_RELEASE_V1.0.2/MSDK/wpa_supplicant/src/ap\pmksa_cache_auth.c **** 		sec = 0;
 138:C:/Users/stapi/OneDrive/Desktop/GD32VW553/V1_MQTT_OK/GD32VW55X_Wifi_BLE_SDK/GD32VW55x_RELEASE_V1.0.2/MSDK/wpa_supplicant/src/ap\pmksa_cache_auth.c **** 	eloop_register_timeout(sec + 1, 0, pmksa_cache_expire, pmksa, NULL);
  95              		.loc 1 138 2
  96 0034 0147     		li	a4,0
  97 0036 A286     		mv	a3,s0
 135:C:/Users/stapi/OneDrive/Desktop/GD32VW553/V1_MQTT_OK/GD32VW55X_Wifi_BLE_SDK/GD32VW55x_RELEASE_V1.0.2/MSDK/wpa_supplicant/src/ap\pmksa_cache_auth.c **** 	sec = pmksa->pmksa->expiration - now.sec;
  98              		.loc 1 135 6
  99 0038 E84F     		lw	a0,92(a5)
 100 003a A247     		lw	a5,8(sp)
 101              		.loc 1 138 2
 102 003c 13860400 		addi	a2,s1,%lo(pmksa_cache_expire)
 103 0040 8145     		li	a1,0
 135:C:/Users/stapi/OneDrive/Desktop/GD32VW553/V1_MQTT_OK/GD32VW55X_Wifi_BLE_SDK/GD32VW55x_RELEASE_V1.0.2/MSDK/wpa_supplicant/src/ap\pmksa_cache_auth.c **** 	sec = pmksa->pmksa->expiration - now.sec;
 104              		.loc 1 135 6
 105 0042 1D8D     		sub	a0,a0,a5
 106              	.LVL11:
 136:C:/Users/stapi/OneDrive/Desktop/GD32VW553/V1_MQTT_OK/GD32VW55X_Wifi_BLE_SDK/GD32VW55x_RELEASE_V1.0.2/MSDK/wpa_supplicant/src/ap\pmksa_cache_auth.c **** 	if (sec < 0)
 107              		.loc 1 136 2 is_stmt 1
 108              		.loc 1 138 2
 109              		.loc 1 138 29 is_stmt 0
 110 0044 8147     		li	a5,0
 111 0046 3365F50A 		max	a0,a0,a5
 112              	.LVL12:
 113              		.loc 1 138 2
 114 004a 0505     		addi	a0,a0,1
 115              	.LVL13:
 116 004c 97000000 		call	eloop_register_timeout
 116      E7800000 
 117              	.LVL14:
 118              	.L3:
 119              	.LBE28:
 120              	.LBE27:
 139:C:/Users/stapi/OneDrive/Desktop/GD32VW553/V1_MQTT_OK/GD32VW55X_Wifi_BLE_SDK/GD32VW55x_RELEASE_V1.0.2/MSDK/wpa_supplicant/src/ap\pmksa_cache_auth.c **** }
 121              		.loc 1 139 1
 122 0054 4101     		addi	sp,sp,16
 123              		.cfi_def_cfa_offset 0
 124 0056 17030000 		tail	__riscv_restore_2
 124      67000300 
 125              		.cfi_restore 9
 126              		.cfi_restore 8
 127              		.cfi_restore 1
 128              		.cfi_def_cfa_offset -16
 129              		.cfi_endproc
 130              	.LFE140:
 132              		.section	.rodata.pmksa_cache_link_entry.str1.4,"aMS",@progbits,1
 133              		.align	2
 134              	.LC0:
 135 0000 52534E3A 		.string	"RSN: added PMKSA cache entry for %02x:%02x:%02x:%02x:%02x:%02x"
 135      20616464 
 135      65642050 
 135      4D4B5341 
 135      20636163 
 136 003f 00       		.align	2
 137              	.LC1:
 138 0040 52534E3A 		.string	"RSN: added PMKID"
 138      20616464 
 138      65642050 
 138      4D4B4944 
 138      00
 139              		.section	.text.pmksa_cache_link_entry,"ax",@progbits
 140              		.align	1
 142              	pmksa_cache_link_entry:
 143              	.LFB143:
 140:C:/Users/stapi/OneDrive/Desktop/GD32VW553/V1_MQTT_OK/GD32VW55X_Wifi_BLE_SDK/GD32VW55x_RELEASE_V1.0.2/MSDK/wpa_supplicant/src/ap\pmksa_cache_auth.c **** 
 141:C:/Users/stapi/OneDrive/Desktop/GD32VW553/V1_MQTT_OK/GD32VW55X_Wifi_BLE_SDK/GD32VW55x_RELEASE_V1.0.2/MSDK/wpa_supplicant/src/ap\pmksa_cache_auth.c **** 
 142:C:/Users/stapi/OneDrive/Desktop/GD32VW553/V1_MQTT_OK/GD32VW55X_Wifi_BLE_SDK/GD32VW55x_RELEASE_V1.0.2/MSDK/wpa_supplicant/src/ap\pmksa_cache_auth.c **** static void pmksa_cache_from_eapol_data(struct rsn_pmksa_cache_entry *entry,
 143:C:/Users/stapi/OneDrive/Desktop/GD32VW553/V1_MQTT_OK/GD32VW55X_Wifi_BLE_SDK/GD32VW55x_RELEASE_V1.0.2/MSDK/wpa_supplicant/src/ap\pmksa_cache_auth.c **** 					struct eapol_state_machine *eapol)
 144:C:/Users/stapi/OneDrive/Desktop/GD32VW553/V1_MQTT_OK/GD32VW55X_Wifi_BLE_SDK/GD32VW55x_RELEASE_V1.0.2/MSDK/wpa_supplicant/src/ap\pmksa_cache_auth.c **** {
 145:C:/Users/stapi/OneDrive/Desktop/GD32VW553/V1_MQTT_OK/GD32VW55X_Wifi_BLE_SDK/GD32VW55x_RELEASE_V1.0.2/MSDK/wpa_supplicant/src/ap\pmksa_cache_auth.c **** 	struct vlan_description *vlan_desc;
 146:C:/Users/stapi/OneDrive/Desktop/GD32VW553/V1_MQTT_OK/GD32VW55X_Wifi_BLE_SDK/GD32VW55x_RELEASE_V1.0.2/MSDK/wpa_supplicant/src/ap\pmksa_cache_auth.c **** 
 147:C:/Users/stapi/OneDrive/Desktop/GD32VW553/V1_MQTT_OK/GD32VW55X_Wifi_BLE_SDK/GD32VW55x_RELEASE_V1.0.2/MSDK/wpa_supplicant/src/ap\pmksa_cache_auth.c **** 	if (eapol == NULL)
 148:C:/Users/stapi/OneDrive/Desktop/GD32VW553/V1_MQTT_OK/GD32VW55X_Wifi_BLE_SDK/GD32VW55x_RELEASE_V1.0.2/MSDK/wpa_supplicant/src/ap\pmksa_cache_auth.c **** 		return;
 149:C:/Users/stapi/OneDrive/Desktop/GD32VW553/V1_MQTT_OK/GD32VW55X_Wifi_BLE_SDK/GD32VW55x_RELEASE_V1.0.2/MSDK/wpa_supplicant/src/ap\pmksa_cache_auth.c **** 
 150:C:/Users/stapi/OneDrive/Desktop/GD32VW553/V1_MQTT_OK/GD32VW55X_Wifi_BLE_SDK/GD32VW55x_RELEASE_V1.0.2/MSDK/wpa_supplicant/src/ap\pmksa_cache_auth.c **** 	if (eapol->identity) {
 151:C:/Users/stapi/OneDrive/Desktop/GD32VW553/V1_MQTT_OK/GD32VW55X_Wifi_BLE_SDK/GD32VW55x_RELEASE_V1.0.2/MSDK/wpa_supplicant/src/ap\pmksa_cache_auth.c **** 		entry->identity = os_malloc(eapol->identity_len);
 152:C:/Users/stapi/OneDrive/Desktop/GD32VW553/V1_MQTT_OK/GD32VW55X_Wifi_BLE_SDK/GD32VW55x_RELEASE_V1.0.2/MSDK/wpa_supplicant/src/ap\pmksa_cache_auth.c **** 		if (entry->identity) {
 153:C:/Users/stapi/OneDrive/Desktop/GD32VW553/V1_MQTT_OK/GD32VW55X_Wifi_BLE_SDK/GD32VW55x_RELEASE_V1.0.2/MSDK/wpa_supplicant/src/ap\pmksa_cache_auth.c **** 			entry->identity_len = eapol->identity_len;
 154:C:/Users/stapi/OneDrive/Desktop/GD32VW553/V1_MQTT_OK/GD32VW55X_Wifi_BLE_SDK/GD32VW55x_RELEASE_V1.0.2/MSDK/wpa_supplicant/src/ap\pmksa_cache_auth.c **** 			os_memcpy(entry->identity, eapol->identity,
 155:C:/Users/stapi/OneDrive/Desktop/GD32VW553/V1_MQTT_OK/GD32VW55X_Wifi_BLE_SDK/GD32VW55x_RELEASE_V1.0.2/MSDK/wpa_supplicant/src/ap\pmksa_cache_auth.c **** 				  eapol->identity_len);
 156:C:/Users/stapi/OneDrive/Desktop/GD32VW553/V1_MQTT_OK/GD32VW55X_Wifi_BLE_SDK/GD32VW55x_RELEASE_V1.0.2/MSDK/wpa_supplicant/src/ap\pmksa_cache_auth.c **** 		}
 157:C:/Users/stapi/OneDrive/Desktop/GD32VW553/V1_MQTT_OK/GD32VW55X_Wifi_BLE_SDK/GD32VW55x_RELEASE_V1.0.2/MSDK/wpa_supplicant/src/ap\pmksa_cache_auth.c **** 	}
 158:C:/Users/stapi/OneDrive/Desktop/GD32VW553/V1_MQTT_OK/GD32VW55X_Wifi_BLE_SDK/GD32VW55x_RELEASE_V1.0.2/MSDK/wpa_supplicant/src/ap\pmksa_cache_auth.c **** 
 159:C:/Users/stapi/OneDrive/Desktop/GD32VW553/V1_MQTT_OK/GD32VW55X_Wifi_BLE_SDK/GD32VW55x_RELEASE_V1.0.2/MSDK/wpa_supplicant/src/ap\pmksa_cache_auth.c **** 	if (eapol->radius_cui)
 160:C:/Users/stapi/OneDrive/Desktop/GD32VW553/V1_MQTT_OK/GD32VW55X_Wifi_BLE_SDK/GD32VW55x_RELEASE_V1.0.2/MSDK/wpa_supplicant/src/ap\pmksa_cache_auth.c **** 		entry->cui = wpabuf_dup(eapol->radius_cui);
 161:C:/Users/stapi/OneDrive/Desktop/GD32VW553/V1_MQTT_OK/GD32VW55X_Wifi_BLE_SDK/GD32VW55x_RELEASE_V1.0.2/MSDK/wpa_supplicant/src/ap\pmksa_cache_auth.c **** 
 162:C:/Users/stapi/OneDrive/Desktop/GD32VW553/V1_MQTT_OK/GD32VW55X_Wifi_BLE_SDK/GD32VW55x_RELEASE_V1.0.2/MSDK/wpa_supplicant/src/ap\pmksa_cache_auth.c **** #ifndef CONFIG_NO_RADIUS
 163:C:/Users/stapi/OneDrive/Desktop/GD32VW553/V1_MQTT_OK/GD32VW55X_Wifi_BLE_SDK/GD32VW55x_RELEASE_V1.0.2/MSDK/wpa_supplicant/src/ap\pmksa_cache_auth.c **** 	radius_copy_class(&entry->radius_class, &eapol->radius_class);
 164:C:/Users/stapi/OneDrive/Desktop/GD32VW553/V1_MQTT_OK/GD32VW55X_Wifi_BLE_SDK/GD32VW55x_RELEASE_V1.0.2/MSDK/wpa_supplicant/src/ap\pmksa_cache_auth.c **** #endif /* CONFIG_NO_RADIUS */
 165:C:/Users/stapi/OneDrive/Desktop/GD32VW553/V1_MQTT_OK/GD32VW55X_Wifi_BLE_SDK/GD32VW55x_RELEASE_V1.0.2/MSDK/wpa_supplicant/src/ap\pmksa_cache_auth.c **** 
 166:C:/Users/stapi/OneDrive/Desktop/GD32VW553/V1_MQTT_OK/GD32VW55X_Wifi_BLE_SDK/GD32VW55x_RELEASE_V1.0.2/MSDK/wpa_supplicant/src/ap\pmksa_cache_auth.c **** 	entry->eap_type_authsrv = eapol->eap_type_authsrv;
 167:C:/Users/stapi/OneDrive/Desktop/GD32VW553/V1_MQTT_OK/GD32VW55X_Wifi_BLE_SDK/GD32VW55x_RELEASE_V1.0.2/MSDK/wpa_supplicant/src/ap\pmksa_cache_auth.c **** 
 168:C:/Users/stapi/OneDrive/Desktop/GD32VW553/V1_MQTT_OK/GD32VW55X_Wifi_BLE_SDK/GD32VW55x_RELEASE_V1.0.2/MSDK/wpa_supplicant/src/ap\pmksa_cache_auth.c **** 	vlan_desc = ((struct sta_info *) eapol->sta)->vlan_desc;
 169:C:/Users/stapi/OneDrive/Desktop/GD32VW553/V1_MQTT_OK/GD32VW55X_Wifi_BLE_SDK/GD32VW55x_RELEASE_V1.0.2/MSDK/wpa_supplicant/src/ap\pmksa_cache_auth.c **** 	if (vlan_desc && vlan_desc->notempty) {
 170:C:/Users/stapi/OneDrive/Desktop/GD32VW553/V1_MQTT_OK/GD32VW55X_Wifi_BLE_SDK/GD32VW55x_RELEASE_V1.0.2/MSDK/wpa_supplicant/src/ap\pmksa_cache_auth.c **** 		entry->vlan_desc = os_zalloc(sizeof(struct vlan_description));
 171:C:/Users/stapi/OneDrive/Desktop/GD32VW553/V1_MQTT_OK/GD32VW55X_Wifi_BLE_SDK/GD32VW55x_RELEASE_V1.0.2/MSDK/wpa_supplicant/src/ap\pmksa_cache_auth.c **** 		if (entry->vlan_desc)
 172:C:/Users/stapi/OneDrive/Desktop/GD32VW553/V1_MQTT_OK/GD32VW55X_Wifi_BLE_SDK/GD32VW55x_RELEASE_V1.0.2/MSDK/wpa_supplicant/src/ap\pmksa_cache_auth.c **** 			*entry->vlan_desc = *vlan_desc;
 173:C:/Users/stapi/OneDrive/Desktop/GD32VW553/V1_MQTT_OK/GD32VW55X_Wifi_BLE_SDK/GD32VW55x_RELEASE_V1.0.2/MSDK/wpa_supplicant/src/ap\pmksa_cache_auth.c **** 	} else {
 174:C:/Users/stapi/OneDrive/Desktop/GD32VW553/V1_MQTT_OK/GD32VW55X_Wifi_BLE_SDK/GD32VW55x_RELEASE_V1.0.2/MSDK/wpa_supplicant/src/ap\pmksa_cache_auth.c **** 		entry->vlan_desc = NULL;
 175:C:/Users/stapi/OneDrive/Desktop/GD32VW553/V1_MQTT_OK/GD32VW55X_Wifi_BLE_SDK/GD32VW55x_RELEASE_V1.0.2/MSDK/wpa_supplicant/src/ap\pmksa_cache_auth.c **** 	}
 176:C:/Users/stapi/OneDrive/Desktop/GD32VW553/V1_MQTT_OK/GD32VW55X_Wifi_BLE_SDK/GD32VW55x_RELEASE_V1.0.2/MSDK/wpa_supplicant/src/ap\pmksa_cache_auth.c **** 
 177:C:/Users/stapi/OneDrive/Desktop/GD32VW553/V1_MQTT_OK/GD32VW55X_Wifi_BLE_SDK/GD32VW55x_RELEASE_V1.0.2/MSDK/wpa_supplicant/src/ap\pmksa_cache_auth.c **** 	entry->acct_multi_session_id = eapol->acct_multi_session_id;
 178:C:/Users/stapi/OneDrive/Desktop/GD32VW553/V1_MQTT_OK/GD32VW55X_Wifi_BLE_SDK/GD32VW55x_RELEASE_V1.0.2/MSDK/wpa_supplicant/src/ap\pmksa_cache_auth.c **** }
 179:C:/Users/stapi/OneDrive/Desktop/GD32VW553/V1_MQTT_OK/GD32VW55X_Wifi_BLE_SDK/GD32VW55x_RELEASE_V1.0.2/MSDK/wpa_supplicant/src/ap\pmksa_cache_auth.c **** 
 180:C:/Users/stapi/OneDrive/Desktop/GD32VW553/V1_MQTT_OK/GD32VW55X_Wifi_BLE_SDK/GD32VW55x_RELEASE_V1.0.2/MSDK/wpa_supplicant/src/ap\pmksa_cache_auth.c **** 
 181:C:/Users/stapi/OneDrive/Desktop/GD32VW553/V1_MQTT_OK/GD32VW55X_Wifi_BLE_SDK/GD32VW55x_RELEASE_V1.0.2/MSDK/wpa_supplicant/src/ap\pmksa_cache_auth.c **** void pmksa_cache_to_eapol_data(struct hostapd_data *hapd,
 182:C:/Users/stapi/OneDrive/Desktop/GD32VW553/V1_MQTT_OK/GD32VW55X_Wifi_BLE_SDK/GD32VW55x_RELEASE_V1.0.2/MSDK/wpa_supplicant/src/ap\pmksa_cache_auth.c **** 			       struct rsn_pmksa_cache_entry *entry,
 183:C:/Users/stapi/OneDrive/Desktop/GD32VW553/V1_MQTT_OK/GD32VW55X_Wifi_BLE_SDK/GD32VW55x_RELEASE_V1.0.2/MSDK/wpa_supplicant/src/ap\pmksa_cache_auth.c **** 			       struct eapol_state_machine *eapol)
 184:C:/Users/stapi/OneDrive/Desktop/GD32VW553/V1_MQTT_OK/GD32VW55X_Wifi_BLE_SDK/GD32VW55x_RELEASE_V1.0.2/MSDK/wpa_supplicant/src/ap\pmksa_cache_auth.c **** {
 185:C:/Users/stapi/OneDrive/Desktop/GD32VW553/V1_MQTT_OK/GD32VW55X_Wifi_BLE_SDK/GD32VW55x_RELEASE_V1.0.2/MSDK/wpa_supplicant/src/ap\pmksa_cache_auth.c **** 	if (entry == NULL || eapol == NULL)
 186:C:/Users/stapi/OneDrive/Desktop/GD32VW553/V1_MQTT_OK/GD32VW55X_Wifi_BLE_SDK/GD32VW55x_RELEASE_V1.0.2/MSDK/wpa_supplicant/src/ap\pmksa_cache_auth.c **** 		return;
 187:C:/Users/stapi/OneDrive/Desktop/GD32VW553/V1_MQTT_OK/GD32VW55X_Wifi_BLE_SDK/GD32VW55x_RELEASE_V1.0.2/MSDK/wpa_supplicant/src/ap\pmksa_cache_auth.c **** 
 188:C:/Users/stapi/OneDrive/Desktop/GD32VW553/V1_MQTT_OK/GD32VW55X_Wifi_BLE_SDK/GD32VW55x_RELEASE_V1.0.2/MSDK/wpa_supplicant/src/ap\pmksa_cache_auth.c **** 	if (entry->identity) {
 189:C:/Users/stapi/OneDrive/Desktop/GD32VW553/V1_MQTT_OK/GD32VW55X_Wifi_BLE_SDK/GD32VW55x_RELEASE_V1.0.2/MSDK/wpa_supplicant/src/ap\pmksa_cache_auth.c **** 		os_free(eapol->identity);
 190:C:/Users/stapi/OneDrive/Desktop/GD32VW553/V1_MQTT_OK/GD32VW55X_Wifi_BLE_SDK/GD32VW55x_RELEASE_V1.0.2/MSDK/wpa_supplicant/src/ap\pmksa_cache_auth.c **** 		eapol->identity = os_malloc(entry->identity_len);
 191:C:/Users/stapi/OneDrive/Desktop/GD32VW553/V1_MQTT_OK/GD32VW55X_Wifi_BLE_SDK/GD32VW55x_RELEASE_V1.0.2/MSDK/wpa_supplicant/src/ap\pmksa_cache_auth.c **** 		if (eapol->identity) {
 192:C:/Users/stapi/OneDrive/Desktop/GD32VW553/V1_MQTT_OK/GD32VW55X_Wifi_BLE_SDK/GD32VW55x_RELEASE_V1.0.2/MSDK/wpa_supplicant/src/ap\pmksa_cache_auth.c **** 			eapol->identity_len = entry->identity_len;
 193:C:/Users/stapi/OneDrive/Desktop/GD32VW553/V1_MQTT_OK/GD32VW55X_Wifi_BLE_SDK/GD32VW55x_RELEASE_V1.0.2/MSDK/wpa_supplicant/src/ap\pmksa_cache_auth.c **** 			os_memcpy(eapol->identity, entry->identity,
 194:C:/Users/stapi/OneDrive/Desktop/GD32VW553/V1_MQTT_OK/GD32VW55X_Wifi_BLE_SDK/GD32VW55x_RELEASE_V1.0.2/MSDK/wpa_supplicant/src/ap\pmksa_cache_auth.c **** 				  entry->identity_len);
 195:C:/Users/stapi/OneDrive/Desktop/GD32VW553/V1_MQTT_OK/GD32VW55X_Wifi_BLE_SDK/GD32VW55x_RELEASE_V1.0.2/MSDK/wpa_supplicant/src/ap\pmksa_cache_auth.c **** 		}
 196:C:/Users/stapi/OneDrive/Desktop/GD32VW553/V1_MQTT_OK/GD32VW55X_Wifi_BLE_SDK/GD32VW55x_RELEASE_V1.0.2/MSDK/wpa_supplicant/src/ap\pmksa_cache_auth.c **** 		wpa_hexdump_ascii(MSG_DEBUG, "STA identity from PMKSA",
 197:C:/Users/stapi/OneDrive/Desktop/GD32VW553/V1_MQTT_OK/GD32VW55X_Wifi_BLE_SDK/GD32VW55x_RELEASE_V1.0.2/MSDK/wpa_supplicant/src/ap\pmksa_cache_auth.c **** 				  eapol->identity, eapol->identity_len);
 198:C:/Users/stapi/OneDrive/Desktop/GD32VW553/V1_MQTT_OK/GD32VW55X_Wifi_BLE_SDK/GD32VW55x_RELEASE_V1.0.2/MSDK/wpa_supplicant/src/ap\pmksa_cache_auth.c **** 	}
 199:C:/Users/stapi/OneDrive/Desktop/GD32VW553/V1_MQTT_OK/GD32VW55X_Wifi_BLE_SDK/GD32VW55x_RELEASE_V1.0.2/MSDK/wpa_supplicant/src/ap\pmksa_cache_auth.c **** 
 200:C:/Users/stapi/OneDrive/Desktop/GD32VW553/V1_MQTT_OK/GD32VW55X_Wifi_BLE_SDK/GD32VW55x_RELEASE_V1.0.2/MSDK/wpa_supplicant/src/ap\pmksa_cache_auth.c **** 	if (entry->cui) {
 201:C:/Users/stapi/OneDrive/Desktop/GD32VW553/V1_MQTT_OK/GD32VW55X_Wifi_BLE_SDK/GD32VW55x_RELEASE_V1.0.2/MSDK/wpa_supplicant/src/ap\pmksa_cache_auth.c **** 		wpabuf_free(eapol->radius_cui);
 202:C:/Users/stapi/OneDrive/Desktop/GD32VW553/V1_MQTT_OK/GD32VW55X_Wifi_BLE_SDK/GD32VW55x_RELEASE_V1.0.2/MSDK/wpa_supplicant/src/ap\pmksa_cache_auth.c **** 		eapol->radius_cui = wpabuf_dup(entry->cui);
 203:C:/Users/stapi/OneDrive/Desktop/GD32VW553/V1_MQTT_OK/GD32VW55X_Wifi_BLE_SDK/GD32VW55x_RELEASE_V1.0.2/MSDK/wpa_supplicant/src/ap\pmksa_cache_auth.c **** 	}
 204:C:/Users/stapi/OneDrive/Desktop/GD32VW553/V1_MQTT_OK/GD32VW55X_Wifi_BLE_SDK/GD32VW55x_RELEASE_V1.0.2/MSDK/wpa_supplicant/src/ap\pmksa_cache_auth.c **** 
 205:C:/Users/stapi/OneDrive/Desktop/GD32VW553/V1_MQTT_OK/GD32VW55X_Wifi_BLE_SDK/GD32VW55x_RELEASE_V1.0.2/MSDK/wpa_supplicant/src/ap\pmksa_cache_auth.c **** #ifndef CONFIG_NO_RADIUS
 206:C:/Users/stapi/OneDrive/Desktop/GD32VW553/V1_MQTT_OK/GD32VW55X_Wifi_BLE_SDK/GD32VW55x_RELEASE_V1.0.2/MSDK/wpa_supplicant/src/ap\pmksa_cache_auth.c **** 	radius_free_class(&eapol->radius_class);
 207:C:/Users/stapi/OneDrive/Desktop/GD32VW553/V1_MQTT_OK/GD32VW55X_Wifi_BLE_SDK/GD32VW55x_RELEASE_V1.0.2/MSDK/wpa_supplicant/src/ap\pmksa_cache_auth.c **** 	radius_copy_class(&eapol->radius_class, &entry->radius_class);
 208:C:/Users/stapi/OneDrive/Desktop/GD32VW553/V1_MQTT_OK/GD32VW55X_Wifi_BLE_SDK/GD32VW55x_RELEASE_V1.0.2/MSDK/wpa_supplicant/src/ap\pmksa_cache_auth.c **** #endif /* CONFIG_NO_RADIUS */
 209:C:/Users/stapi/OneDrive/Desktop/GD32VW553/V1_MQTT_OK/GD32VW55X_Wifi_BLE_SDK/GD32VW55x_RELEASE_V1.0.2/MSDK/wpa_supplicant/src/ap\pmksa_cache_auth.c **** 	if (eapol->radius_class.attr) {
 210:C:/Users/stapi/OneDrive/Desktop/GD32VW553/V1_MQTT_OK/GD32VW55X_Wifi_BLE_SDK/GD32VW55x_RELEASE_V1.0.2/MSDK/wpa_supplicant/src/ap\pmksa_cache_auth.c **** 		wpa_printf(MSG_DEBUG, "Copied %lu Class attribute(s) from "
 211:C:/Users/stapi/OneDrive/Desktop/GD32VW553/V1_MQTT_OK/GD32VW55X_Wifi_BLE_SDK/GD32VW55x_RELEASE_V1.0.2/MSDK/wpa_supplicant/src/ap\pmksa_cache_auth.c **** 			   "PMKSA", (unsigned long) eapol->radius_class.count);
 212:C:/Users/stapi/OneDrive/Desktop/GD32VW553/V1_MQTT_OK/GD32VW55X_Wifi_BLE_SDK/GD32VW55x_RELEASE_V1.0.2/MSDK/wpa_supplicant/src/ap\pmksa_cache_auth.c **** 	}
 213:C:/Users/stapi/OneDrive/Desktop/GD32VW553/V1_MQTT_OK/GD32VW55X_Wifi_BLE_SDK/GD32VW55x_RELEASE_V1.0.2/MSDK/wpa_supplicant/src/ap\pmksa_cache_auth.c **** 
 214:C:/Users/stapi/OneDrive/Desktop/GD32VW553/V1_MQTT_OK/GD32VW55X_Wifi_BLE_SDK/GD32VW55x_RELEASE_V1.0.2/MSDK/wpa_supplicant/src/ap\pmksa_cache_auth.c **** 	eapol->eap_type_authsrv = entry->eap_type_authsrv;
 215:C:/Users/stapi/OneDrive/Desktop/GD32VW553/V1_MQTT_OK/GD32VW55X_Wifi_BLE_SDK/GD32VW55x_RELEASE_V1.0.2/MSDK/wpa_supplicant/src/ap\pmksa_cache_auth.c **** #ifndef CONFIG_NO_VLAN
 216:C:/Users/stapi/OneDrive/Desktop/GD32VW553/V1_MQTT_OK/GD32VW55X_Wifi_BLE_SDK/GD32VW55x_RELEASE_V1.0.2/MSDK/wpa_supplicant/src/ap\pmksa_cache_auth.c **** 	ap_sta_set_vlan(hapd, eapol->sta, entry->vlan_desc);
 217:C:/Users/stapi/OneDrive/Desktop/GD32VW553/V1_MQTT_OK/GD32VW55X_Wifi_BLE_SDK/GD32VW55x_RELEASE_V1.0.2/MSDK/wpa_supplicant/src/ap\pmksa_cache_auth.c **** #endif /* CONFIG_NO_VLAN */
 218:C:/Users/stapi/OneDrive/Desktop/GD32VW553/V1_MQTT_OK/GD32VW55X_Wifi_BLE_SDK/GD32VW55x_RELEASE_V1.0.2/MSDK/wpa_supplicant/src/ap\pmksa_cache_auth.c **** 
 219:C:/Users/stapi/OneDrive/Desktop/GD32VW553/V1_MQTT_OK/GD32VW55X_Wifi_BLE_SDK/GD32VW55x_RELEASE_V1.0.2/MSDK/wpa_supplicant/src/ap\pmksa_cache_auth.c **** 	eapol->acct_multi_session_id = entry->acct_multi_session_id;
 220:C:/Users/stapi/OneDrive/Desktop/GD32VW553/V1_MQTT_OK/GD32VW55X_Wifi_BLE_SDK/GD32VW55x_RELEASE_V1.0.2/MSDK/wpa_supplicant/src/ap\pmksa_cache_auth.c **** }
 221:C:/Users/stapi/OneDrive/Desktop/GD32VW553/V1_MQTT_OK/GD32VW55X_Wifi_BLE_SDK/GD32VW55x_RELEASE_V1.0.2/MSDK/wpa_supplicant/src/ap\pmksa_cache_auth.c **** 
 222:C:/Users/stapi/OneDrive/Desktop/GD32VW553/V1_MQTT_OK/GD32VW55X_Wifi_BLE_SDK/GD32VW55x_RELEASE_V1.0.2/MSDK/wpa_supplicant/src/ap\pmksa_cache_auth.c **** 
 223:C:/Users/stapi/OneDrive/Desktop/GD32VW553/V1_MQTT_OK/GD32VW55X_Wifi_BLE_SDK/GD32VW55x_RELEASE_V1.0.2/MSDK/wpa_supplicant/src/ap\pmksa_cache_auth.c **** static void pmksa_cache_link_entry(struct rsn_pmksa_cache *pmksa,
 224:C:/Users/stapi/OneDrive/Desktop/GD32VW553/V1_MQTT_OK/GD32VW55X_Wifi_BLE_SDK/GD32VW55x_RELEASE_V1.0.2/MSDK/wpa_supplicant/src/ap\pmksa_cache_auth.c **** 				   struct rsn_pmksa_cache_entry *entry)
 225:C:/Users/stapi/OneDrive/Desktop/GD32VW553/V1_MQTT_OK/GD32VW55X_Wifi_BLE_SDK/GD32VW55x_RELEASE_V1.0.2/MSDK/wpa_supplicant/src/ap\pmksa_cache_auth.c **** {
 144              		.loc 1 225 1 is_stmt 1
 145              		.cfi_startproc
 146              	.LVL15:
 147 0000 17030000 		call	t0,__riscv_save_1
 147      E7020300 
 148              		.cfi_offset 8, -8
 149              		.cfi_offset 1, -4
 150              		.cfi_def_cfa_offset 16
 226:C:/Users/stapi/OneDrive/Desktop/GD32VW553/V1_MQTT_OK/GD32VW55X_Wifi_BLE_SDK/GD32VW55x_RELEASE_V1.0.2/MSDK/wpa_supplicant/src/ap\pmksa_cache_auth.c **** 	struct rsn_pmksa_cache_entry *pos, *prev;
 151              		.loc 1 226 2
 227:C:/Users/stapi/OneDrive/Desktop/GD32VW553/V1_MQTT_OK/GD32VW55X_Wifi_BLE_SDK/GD32VW55x_RELEASE_V1.0.2/MSDK/wpa_supplicant/src/ap\pmksa_cache_auth.c **** 	int hash;
 152              		.loc 1 227 2
 228:C:/Users/stapi/OneDrive/Desktop/GD32VW553/V1_MQTT_OK/GD32VW55X_Wifi_BLE_SDK/GD32VW55x_RELEASE_V1.0.2/MSDK/wpa_supplicant/src/ap\pmksa_cache_auth.c **** 
 229:C:/Users/stapi/OneDrive/Desktop/GD32VW553/V1_MQTT_OK/GD32VW55X_Wifi_BLE_SDK/GD32VW55x_RELEASE_V1.0.2/MSDK/wpa_supplicant/src/ap\pmksa_cache_auth.c **** 	/* Add the new entry; order by expiration time */
 230:C:/Users/stapi/OneDrive/Desktop/GD32VW553/V1_MQTT_OK/GD32VW55X_Wifi_BLE_SDK/GD32VW55x_RELEASE_V1.0.2/MSDK/wpa_supplicant/src/ap\pmksa_cache_auth.c **** 	pos = pmksa->pmksa;
 153              		.loc 1 230 2
 154              		.loc 1 230 6 is_stmt 0
 155 0008 83260520 		lw	a3,512(a0)
 156              	.LVL16:
 231:C:/Users/stapi/OneDrive/Desktop/GD32VW553/V1_MQTT_OK/GD32VW55X_Wifi_BLE_SDK/GD32VW55x_RELEASE_V1.0.2/MSDK/wpa_supplicant/src/ap\pmksa_cache_auth.c **** 	prev = NULL;
 157              		.loc 1 231 2 is_stmt 1
 232:C:/Users/stapi/OneDrive/Desktop/GD32VW553/V1_MQTT_OK/GD32VW55X_Wifi_BLE_SDK/GD32VW55x_RELEASE_V1.0.2/MSDK/wpa_supplicant/src/ap\pmksa_cache_auth.c **** 	while (pos) {
 158              		.loc 1 232 2
 225:C:/Users/stapi/OneDrive/Desktop/GD32VW553/V1_MQTT_OK/GD32VW55X_Wifi_BLE_SDK/GD32VW55x_RELEASE_V1.0.2/MSDK/wpa_supplicant/src/ap\pmksa_cache_auth.c **** 	struct rsn_pmksa_cache_entry *pos, *prev;
 159              		.loc 1 225 1 is_stmt 0
 160 000c 2E84     		mv	s0,a1
 231:C:/Users/stapi/OneDrive/Desktop/GD32VW553/V1_MQTT_OK/GD32VW55X_Wifi_BLE_SDK/GD32VW55x_RELEASE_V1.0.2/MSDK/wpa_supplicant/src/ap\pmksa_cache_auth.c **** 	prev = NULL;
 161              		.loc 1 231 7
 162 000e 0147     		li	a4,0
 230:C:/Users/stapi/OneDrive/Desktop/GD32VW553/V1_MQTT_OK/GD32VW55X_Wifi_BLE_SDK/GD32VW55x_RELEASE_V1.0.2/MSDK/wpa_supplicant/src/ap\pmksa_cache_auth.c **** 	prev = NULL;
 163              		.loc 1 230 6
 164 0010 B687     		mv	a5,a3
 165              	.LVL17:
 166              	.L10:
 167              		.loc 1 232 8 is_stmt 1
 168 0012 89C7     		beq	a5,zero,.L15
 233:C:/Users/stapi/OneDrive/Desktop/GD32VW553/V1_MQTT_OK/GD32VW55X_Wifi_BLE_SDK/GD32VW55x_RELEASE_V1.0.2/MSDK/wpa_supplicant/src/ap\pmksa_cache_auth.c **** 		if (pos->expiration > entry->expiration)
 169              		.loc 1 233 3
 170              		.loc 1 233 6 is_stmt 0
 171 0014 EC4F     		lw	a1,92(a5)
 172 0016 704C     		lw	a2,92(s0)
 173 0018 635EB606 		ble	a1,a2,.L11
 174              	.L15:
 234:C:/Users/stapi/OneDrive/Desktop/GD32VW553/V1_MQTT_OK/GD32VW55X_Wifi_BLE_SDK/GD32VW55x_RELEASE_V1.0.2/MSDK/wpa_supplicant/src/ap\pmksa_cache_auth.c **** 			break;
 235:C:/Users/stapi/OneDrive/Desktop/GD32VW553/V1_MQTT_OK/GD32VW55X_Wifi_BLE_SDK/GD32VW55x_RELEASE_V1.0.2/MSDK/wpa_supplicant/src/ap\pmksa_cache_auth.c **** 		prev = pos;
 236:C:/Users/stapi/OneDrive/Desktop/GD32VW553/V1_MQTT_OK/GD32VW55X_Wifi_BLE_SDK/GD32VW55x_RELEASE_V1.0.2/MSDK/wpa_supplicant/src/ap\pmksa_cache_auth.c **** 		pos = pos->next;
 237:C:/Users/stapi/OneDrive/Desktop/GD32VW553/V1_MQTT_OK/GD32VW55X_Wifi_BLE_SDK/GD32VW55x_RELEASE_V1.0.2/MSDK/wpa_supplicant/src/ap\pmksa_cache_auth.c **** 	}
 238:C:/Users/stapi/OneDrive/Desktop/GD32VW553/V1_MQTT_OK/GD32VW55X_Wifi_BLE_SDK/GD32VW55x_RELEASE_V1.0.2/MSDK/wpa_supplicant/src/ap\pmksa_cache_auth.c **** 	if (prev == NULL) {
 175              		.loc 1 238 2 is_stmt 1
 176              		.loc 1 238 5 is_stmt 0
 177 001c 3DEF     		bne	a4,zero,.L18
 239:C:/Users/stapi/OneDrive/Desktop/GD32VW553/V1_MQTT_OK/GD32VW55X_Wifi_BLE_SDK/GD32VW55x_RELEASE_V1.0.2/MSDK/wpa_supplicant/src/ap\pmksa_cache_auth.c **** 		entry->next = pmksa->pmksa;
 178              		.loc 1 239 3 is_stmt 1
 179              		.loc 1 239 15 is_stmt 0
 180 001e 14C0     		sw	a3,0(s0)
 240:C:/Users/stapi/OneDrive/Desktop/GD32VW553/V1_MQTT_OK/GD32VW55X_Wifi_BLE_SDK/GD32VW55x_RELEASE_V1.0.2/MSDK/wpa_supplicant/src/ap\pmksa_cache_auth.c **** 		pmksa->pmksa = entry;
 181              		.loc 1 240 3 is_stmt 1
 182              		.loc 1 240 16 is_stmt 0
 183 0020 23208520 		sw	s0,512(a0)
 184              	.LVL18:
 185              	.L16:
 241:C:/Users/stapi/OneDrive/Desktop/GD32VW553/V1_MQTT_OK/GD32VW55X_Wifi_BLE_SDK/GD32VW55x_RELEASE_V1.0.2/MSDK/wpa_supplicant/src/ap\pmksa_cache_auth.c **** 	} else {
 242:C:/Users/stapi/OneDrive/Desktop/GD32VW553/V1_MQTT_OK/GD32VW55X_Wifi_BLE_SDK/GD32VW55x_RELEASE_V1.0.2/MSDK/wpa_supplicant/src/ap\pmksa_cache_auth.c **** 		entry->next = prev->next;
 243:C:/Users/stapi/OneDrive/Desktop/GD32VW553/V1_MQTT_OK/GD32VW55X_Wifi_BLE_SDK/GD32VW55x_RELEASE_V1.0.2/MSDK/wpa_supplicant/src/ap\pmksa_cache_auth.c **** 		prev->next = entry;
 244:C:/Users/stapi/OneDrive/Desktop/GD32VW553/V1_MQTT_OK/GD32VW55X_Wifi_BLE_SDK/GD32VW55x_RELEASE_V1.0.2/MSDK/wpa_supplicant/src/ap\pmksa_cache_auth.c **** 	}
 245:C:/Users/stapi/OneDrive/Desktop/GD32VW553/V1_MQTT_OK/GD32VW55X_Wifi_BLE_SDK/GD32VW55x_RELEASE_V1.0.2/MSDK/wpa_supplicant/src/ap\pmksa_cache_auth.c **** 
 246:C:/Users/stapi/OneDrive/Desktop/GD32VW553/V1_MQTT_OK/GD32VW55X_Wifi_BLE_SDK/GD32VW55x_RELEASE_V1.0.2/MSDK/wpa_supplicant/src/ap\pmksa_cache_auth.c **** 	hash = PMKID_HASH(entry->pmkid);
 186              		.loc 1 246 2 is_stmt 1
 247:C:/Users/stapi/OneDrive/Desktop/GD32VW553/V1_MQTT_OK/GD32VW55X_Wifi_BLE_SDK/GD32VW55x_RELEASE_V1.0.2/MSDK/wpa_supplicant/src/ap\pmksa_cache_auth.c **** 	entry->hnext = pmksa->pmkid[hash];
 187              		.loc 1 247 2
 188 0024 83478400 		lbu	a5,8(s0)
 189 0028 93F7F707 		andi	a5,a5,127
 190 002c B3C7A720 		sh2add	a5,a5,a0
 191              		.loc 1 247 15 is_stmt 0
 192 0030 9443     		lw	a3,0(a5)
 193 0032 54C0     		sw	a3,4(s0)
 248:C:/Users/stapi/OneDrive/Desktop/GD32VW553/V1_MQTT_OK/GD32VW55X_Wifi_BLE_SDK/GD32VW55x_RELEASE_V1.0.2/MSDK/wpa_supplicant/src/ap\pmksa_cache_auth.c **** 	pmksa->pmkid[hash] = entry;
 194              		.loc 1 248 2 is_stmt 1
 195              		.loc 1 248 21 is_stmt 0
 196 0034 80C3     		sw	s0,0(a5)
 197              	.LVL19:
 249:C:/Users/stapi/OneDrive/Desktop/GD32VW553/V1_MQTT_OK/GD32VW55X_Wifi_BLE_SDK/GD32VW55x_RELEASE_V1.0.2/MSDK/wpa_supplicant/src/ap\pmksa_cache_auth.c **** 
 250:C:/Users/stapi/OneDrive/Desktop/GD32VW553/V1_MQTT_OK/GD32VW55X_Wifi_BLE_SDK/GD32VW55x_RELEASE_V1.0.2/MSDK/wpa_supplicant/src/ap\pmksa_cache_auth.c **** 	pmksa->pmksa_count++;
 198              		.loc 1 250 2 is_stmt 1
 199              		.loc 1 250 20 is_stmt 0
 200 0036 83274520 		lw	a5,516(a0)
 201 003a 8507     		addi	a5,a5,1
 202 003c 2322F520 		sw	a5,516(a0)
 251:C:/Users/stapi/OneDrive/Desktop/GD32VW553/V1_MQTT_OK/GD32VW55X_Wifi_BLE_SDK/GD32VW55x_RELEASE_V1.0.2/MSDK/wpa_supplicant/src/ap\pmksa_cache_auth.c **** 	if (prev == NULL)
 203              		.loc 1 251 2 is_stmt 1
 204              		.loc 1 251 5 is_stmt 0
 205 0040 09E7     		bne	a4,zero,.L17
 252:C:/Users/stapi/OneDrive/Desktop/GD32VW553/V1_MQTT_OK/GD32VW55X_Wifi_BLE_SDK/GD32VW55x_RELEASE_V1.0.2/MSDK/wpa_supplicant/src/ap\pmksa_cache_auth.c **** 		pmksa_cache_set_expiration(pmksa);
 206              		.loc 1 252 3 is_stmt 1
 207 0042 97000000 		call	pmksa_cache_set_expiration
 207      E7800000 
 208              	.LVL20:
 209              	.L17:
 253:C:/Users/stapi/OneDrive/Desktop/GD32VW553/V1_MQTT_OK/GD32VW55X_Wifi_BLE_SDK/GD32VW55x_RELEASE_V1.0.2/MSDK/wpa_supplicant/src/ap\pmksa_cache_auth.c **** 	wpa_printf(MSG_DEBUG, "RSN: added PMKSA cache entry for " MACSTR,
 210              		.loc 1 253 2
 211 004a 83489406 		lbu	a7,105(s0)
 212 004e 03488406 		lbu	a6,104(s0)
 213 0052 83477406 		lbu	a5,103(s0)
 214 0056 03476406 		lbu	a4,102(s0)
 215 005a 83465406 		lbu	a3,101(s0)
 216 005e 03464406 		lbu	a2,100(s0)
 217 0062 B7050000 		lui	a1,%hi(.LC0)
 218 0066 93850500 		addi	a1,a1,%lo(.LC0)
 219 006a 0945     		li	a0,2
 220 006c 97000000 		call	wpa_printf
 220      E7800000 
 221              	.LVL21:
 254:C:/Users/stapi/OneDrive/Desktop/GD32VW553/V1_MQTT_OK/GD32VW55X_Wifi_BLE_SDK/GD32VW55x_RELEASE_V1.0.2/MSDK/wpa_supplicant/src/ap\pmksa_cache_auth.c **** 		   MAC2STR(entry->spa));
 255:C:/Users/stapi/OneDrive/Desktop/GD32VW553/V1_MQTT_OK/GD32VW55X_Wifi_BLE_SDK/GD32VW55x_RELEASE_V1.0.2/MSDK/wpa_supplicant/src/ap\pmksa_cache_auth.c **** 	wpa_hexdump(MSG_DEBUG, "RSN: added PMKID", entry->pmkid, PMKID_LEN);
 222              		.loc 1 255 2
 223 0074 B7050000 		lui	a1,%hi(.LC1)
 224 0078 C146     		li	a3,16
 225 007a 13068400 		addi	a2,s0,8
 226 007e 93850500 		addi	a1,a1,%lo(.LC1)
 227 0082 0945     		li	a0,2
 228 0084 97000000 		call	wpa_hexdump
 228      E7800000 
 229              	.LVL22:
 256:C:/Users/stapi/OneDrive/Desktop/GD32VW553/V1_MQTT_OK/GD32VW55X_Wifi_BLE_SDK/GD32VW55x_RELEASE_V1.0.2/MSDK/wpa_supplicant/src/ap\pmksa_cache_auth.c **** }
 230              		.loc 1 256 1 is_stmt 0
 231 008c 17030000 		tail	__riscv_restore_1
 231      67000300 
 232              		.cfi_remember_state
 233              		.cfi_restore 8
 234              		.cfi_restore 1
 235              		.cfi_def_cfa_offset 0
 236              	.LVL23:
 237              	.L11:
 238              		.cfi_restore_state
 235:C:/Users/stapi/OneDrive/Desktop/GD32VW553/V1_MQTT_OK/GD32VW55X_Wifi_BLE_SDK/GD32VW55x_RELEASE_V1.0.2/MSDK/wpa_supplicant/src/ap\pmksa_cache_auth.c **** 		pos = pos->next;
 239              		.loc 1 235 3 is_stmt 1
 236:C:/Users/stapi/OneDrive/Desktop/GD32VW553/V1_MQTT_OK/GD32VW55X_Wifi_BLE_SDK/GD32VW55x_RELEASE_V1.0.2/MSDK/wpa_supplicant/src/ap\pmksa_cache_auth.c **** 	}
 240              		.loc 1 236 3
 236:C:/Users/stapi/OneDrive/Desktop/GD32VW553/V1_MQTT_OK/GD32VW55X_Wifi_BLE_SDK/GD32VW55x_RELEASE_V1.0.2/MSDK/wpa_supplicant/src/ap\pmksa_cache_auth.c **** 	}
 241              		.loc 1 236 7 is_stmt 0
 242 0094 3E87     		mv	a4,a5
 243 0096 9C43     		lw	a5,0(a5)
 244              	.LVL24:
 245 0098 ADBF     		j	.L10
 246              	.L18:
 242:C:/Users/stapi/OneDrive/Desktop/GD32VW553/V1_MQTT_OK/GD32VW55X_Wifi_BLE_SDK/GD32VW55x_RELEASE_V1.0.2/MSDK/wpa_supplicant/src/ap\pmksa_cache_auth.c **** 		prev->next = entry;
 247              		.loc 1 242 3 is_stmt 1
 242:C:/Users/stapi/OneDrive/Desktop/GD32VW553/V1_MQTT_OK/GD32VW55X_Wifi_BLE_SDK/GD32VW55x_RELEASE_V1.0.2/MSDK/wpa_supplicant/src/ap\pmksa_cache_auth.c **** 		prev->next = entry;
 248              		.loc 1 242 21 is_stmt 0
 249 009a 1C43     		lw	a5,0(a4)
 250              	.LVL25:
 242:C:/Users/stapi/OneDrive/Desktop/GD32VW553/V1_MQTT_OK/GD32VW55X_Wifi_BLE_SDK/GD32VW55x_RELEASE_V1.0.2/MSDK/wpa_supplicant/src/ap\pmksa_cache_auth.c **** 		prev->next = entry;
 251              		.loc 1 242 15
 252 009c 1CC0     		sw	a5,0(s0)
 243:C:/Users/stapi/OneDrive/Desktop/GD32VW553/V1_MQTT_OK/GD32VW55X_Wifi_BLE_SDK/GD32VW55x_RELEASE_V1.0.2/MSDK/wpa_supplicant/src/ap\pmksa_cache_auth.c **** 	}
 253              		.loc 1 243 3 is_stmt 1
 243:C:/Users/stapi/OneDrive/Desktop/GD32VW553/V1_MQTT_OK/GD32VW55X_Wifi_BLE_SDK/GD32VW55x_RELEASE_V1.0.2/MSDK/wpa_supplicant/src/ap\pmksa_cache_auth.c **** 	}
 254              		.loc 1 243 14 is_stmt 0
 255 009e 00C3     		sw	s0,0(a4)
 256 00a0 51B7     		j	.L16
 257              		.cfi_endproc
 258              	.LFE143:
 260              		.section	.text.pmksa_cache_free_entry,"ax",@progbits
 261              		.align	1
 262              		.globl	pmksa_cache_free_entry
 264              	pmksa_cache_free_entry:
 265              	.LFB137:
  54:C:/Users/stapi/OneDrive/Desktop/GD32VW553/V1_MQTT_OK/GD32VW55X_Wifi_BLE_SDK/GD32VW55x_RELEASE_V1.0.2/MSDK/wpa_supplicant/src/ap\pmksa_cache_auth.c **** 	struct rsn_pmksa_cache_entry *pos, *prev;
 266              		.loc 1 54 1 is_stmt 1
 267              		.cfi_startproc
 268              	.LVL26:
 269 0000 17030000 		call	t0,__riscv_save_1
 269      E7020300 
 270              		.cfi_offset 8, -8
 271              		.cfi_offset 1, -4
 272              		.cfi_def_cfa_offset 16
  55:C:/Users/stapi/OneDrive/Desktop/GD32VW553/V1_MQTT_OK/GD32VW55X_Wifi_BLE_SDK/GD32VW55x_RELEASE_V1.0.2/MSDK/wpa_supplicant/src/ap\pmksa_cache_auth.c **** 	unsigned int hash;
 273              		.loc 1 55 2
  56:C:/Users/stapi/OneDrive/Desktop/GD32VW553/V1_MQTT_OK/GD32VW55X_Wifi_BLE_SDK/GD32VW55x_RELEASE_V1.0.2/MSDK/wpa_supplicant/src/ap\pmksa_cache_auth.c **** 
 274              		.loc 1 56 2
  58:C:/Users/stapi/OneDrive/Desktop/GD32VW553/V1_MQTT_OK/GD32VW55X_Wifi_BLE_SDK/GD32VW55x_RELEASE_V1.0.2/MSDK/wpa_supplicant/src/ap\pmksa_cache_auth.c **** 	pmksa->free_cb(entry, pmksa->ctx);
 275              		.loc 1 58 2
  54:C:/Users/stapi/OneDrive/Desktop/GD32VW553/V1_MQTT_OK/GD32VW55X_Wifi_BLE_SDK/GD32VW55x_RELEASE_V1.0.2/MSDK/wpa_supplicant/src/ap\pmksa_cache_auth.c **** 	struct rsn_pmksa_cache_entry *pos, *prev;
 276              		.loc 1 54 1 is_stmt 0
 277 0008 2A84     		mv	s0,a0
  58:C:/Users/stapi/OneDrive/Desktop/GD32VW553/V1_MQTT_OK/GD32VW55X_Wifi_BLE_SDK/GD32VW55x_RELEASE_V1.0.2/MSDK/wpa_supplicant/src/ap\pmksa_cache_auth.c **** 	pmksa->free_cb(entry, pmksa->ctx);
 278              		.loc 1 58 20
 279 000a 93070420 		addi	a5,s0,512
 280 000e D843     		lw	a4,4(a5)
  54:C:/Users/stapi/OneDrive/Desktop/GD32VW553/V1_MQTT_OK/GD32VW55X_Wifi_BLE_SDK/GD32VW55x_RELEASE_V1.0.2/MSDK/wpa_supplicant/src/ap\pmksa_cache_auth.c **** 	struct rsn_pmksa_cache_entry *pos, *prev;
 281              		.loc 1 54 1
 282 0010 2E85     		mv	a0,a1
 283              	.LVL27:
  59:C:/Users/stapi/OneDrive/Desktop/GD32VW553/V1_MQTT_OK/GD32VW55X_Wifi_BLE_SDK/GD32VW55x_RELEASE_V1.0.2/MSDK/wpa_supplicant/src/ap\pmksa_cache_auth.c **** 
 284              		.loc 1 59 2
 285 0012 CC47     		lw	a1,12(a5)
 286              	.LVL28:
  58:C:/Users/stapi/OneDrive/Desktop/GD32VW553/V1_MQTT_OK/GD32VW55X_Wifi_BLE_SDK/GD32VW55x_RELEASE_V1.0.2/MSDK/wpa_supplicant/src/ap\pmksa_cache_auth.c **** 	pmksa->free_cb(entry, pmksa->ctx);
 287              		.loc 1 58 20
 288 0014 7D17     		addi	a4,a4,-1
 289 0016 D8C3     		sw	a4,4(a5)
  59:C:/Users/stapi/OneDrive/Desktop/GD32VW553/V1_MQTT_OK/GD32VW55X_Wifi_BLE_SDK/GD32VW55x_RELEASE_V1.0.2/MSDK/wpa_supplicant/src/ap\pmksa_cache_auth.c **** 
 290              		.loc 1 59 2 is_stmt 1
 291 0018 9847     		lw	a4,8(a5)
  54:C:/Users/stapi/OneDrive/Desktop/GD32VW553/V1_MQTT_OK/GD32VW55X_Wifi_BLE_SDK/GD32VW55x_RELEASE_V1.0.2/MSDK/wpa_supplicant/src/ap\pmksa_cache_auth.c **** 	struct rsn_pmksa_cache_entry *pos, *prev;
 292              		.loc 1 54 1 is_stmt 0
 293 001a 4111     		addi	sp,sp,-16
 294              		.cfi_def_cfa_offset 32
  59:C:/Users/stapi/OneDrive/Desktop/GD32VW553/V1_MQTT_OK/GD32VW55X_Wifi_BLE_SDK/GD32VW55x_RELEASE_V1.0.2/MSDK/wpa_supplicant/src/ap\pmksa_cache_auth.c **** 
 295              		.loc 1 59 2
 296 001c 2AC6     		sw	a0,12(sp)
 297 001e 0297     		jalr	a4
 298              	.LVL29:
  62:C:/Users/stapi/OneDrive/Desktop/GD32VW553/V1_MQTT_OK/GD32VW55X_Wifi_BLE_SDK/GD32VW55x_RELEASE_V1.0.2/MSDK/wpa_supplicant/src/ap\pmksa_cache_auth.c **** 	pos = pmksa->pmkid[hash];
 299              		.loc 1 62 2 is_stmt 1
  63:C:/Users/stapi/OneDrive/Desktop/GD32VW553/V1_MQTT_OK/GD32VW55X_Wifi_BLE_SDK/GD32VW55x_RELEASE_V1.0.2/MSDK/wpa_supplicant/src/ap\pmksa_cache_auth.c **** 	prev = NULL;
 300              		.loc 1 63 2
  62:C:/Users/stapi/OneDrive/Desktop/GD32VW553/V1_MQTT_OK/GD32VW55X_Wifi_BLE_SDK/GD32VW55x_RELEASE_V1.0.2/MSDK/wpa_supplicant/src/ap\pmksa_cache_auth.c **** 	pos = pmksa->pmkid[hash];
 301              		.loc 1 62 7 is_stmt 0
 302 0020 3245     		lw	a0,12(sp)
  64:C:/Users/stapi/OneDrive/Desktop/GD32VW553/V1_MQTT_OK/GD32VW55X_Wifi_BLE_SDK/GD32VW55x_RELEASE_V1.0.2/MSDK/wpa_supplicant/src/ap\pmksa_cache_auth.c **** 	while (pos) {
 303              		.loc 1 64 7
 304 0022 8146     		li	a3,0
  62:C:/Users/stapi/OneDrive/Desktop/GD32VW553/V1_MQTT_OK/GD32VW55X_Wifi_BLE_SDK/GD32VW55x_RELEASE_V1.0.2/MSDK/wpa_supplicant/src/ap\pmksa_cache_auth.c **** 	pos = pmksa->pmkid[hash];
 305              		.loc 1 62 7
 306 0024 83478500 		lbu	a5,8(a0)
 307 0028 93F7F707 		andi	a5,a5,127
 308 002c B3C78720 		sh2add	a5,a5,s0
  63:C:/Users/stapi/OneDrive/Desktop/GD32VW553/V1_MQTT_OK/GD32VW55X_Wifi_BLE_SDK/GD32VW55x_RELEASE_V1.0.2/MSDK/wpa_supplicant/src/ap\pmksa_cache_auth.c **** 	prev = NULL;
 309              		.loc 1 63 6
 310 0030 9843     		lw	a4,0(a5)
 311              	.LVL30:
  64:C:/Users/stapi/OneDrive/Desktop/GD32VW553/V1_MQTT_OK/GD32VW55X_Wifi_BLE_SDK/GD32VW55x_RELEASE_V1.0.2/MSDK/wpa_supplicant/src/ap\pmksa_cache_auth.c **** 	while (pos) {
 312              		.loc 1 64 2 is_stmt 1
  65:C:/Users/stapi/OneDrive/Desktop/GD32VW553/V1_MQTT_OK/GD32VW55X_Wifi_BLE_SDK/GD32VW55x_RELEASE_V1.0.2/MSDK/wpa_supplicant/src/ap\pmksa_cache_auth.c **** 		if (pos == entry) {
 313              		.loc 1 65 2
 314              	.L21:
  65:C:/Users/stapi/OneDrive/Desktop/GD32VW553/V1_MQTT_OK/GD32VW55X_Wifi_BLE_SDK/GD32VW55x_RELEASE_V1.0.2/MSDK/wpa_supplicant/src/ap\pmksa_cache_auth.c **** 		if (pos == entry) {
 315              		.loc 1 65 8
 316 0032 11C7     		beq	a4,zero,.L24
  66:C:/Users/stapi/OneDrive/Desktop/GD32VW553/V1_MQTT_OK/GD32VW55X_Wifi_BLE_SDK/GD32VW55x_RELEASE_V1.0.2/MSDK/wpa_supplicant/src/ap\pmksa_cache_auth.c **** 			if (prev != NULL)
 317              		.loc 1 66 3
  66:C:/Users/stapi/OneDrive/Desktop/GD32VW553/V1_MQTT_OK/GD32VW55X_Wifi_BLE_SDK/GD32VW55x_RELEASE_V1.0.2/MSDK/wpa_supplicant/src/ap\pmksa_cache_auth.c **** 			if (prev != NULL)
 318              		.loc 1 66 6 is_stmt 0
 319 0034 6319A702 		bne	a4,a0,.L22
  67:C:/Users/stapi/OneDrive/Desktop/GD32VW553/V1_MQTT_OK/GD32VW55X_Wifi_BLE_SDK/GD32VW55x_RELEASE_V1.0.2/MSDK/wpa_supplicant/src/ap\pmksa_cache_auth.c **** 				prev->hnext = entry->hnext;
 320              		.loc 1 67 4 is_stmt 1
  68:C:/Users/stapi/OneDrive/Desktop/GD32VW553/V1_MQTT_OK/GD32VW55X_Wifi_BLE_SDK/GD32VW55x_RELEASE_V1.0.2/MSDK/wpa_supplicant/src/ap\pmksa_cache_auth.c **** 			else
 321              		.loc 1 68 24 is_stmt 0
 322 0038 5841     		lw	a4,4(a0)
 323              	.LVL31:
  67:C:/Users/stapi/OneDrive/Desktop/GD32VW553/V1_MQTT_OK/GD32VW55X_Wifi_BLE_SDK/GD32VW55x_RELEASE_V1.0.2/MSDK/wpa_supplicant/src/ap\pmksa_cache_auth.c **** 				prev->hnext = entry->hnext;
 324              		.loc 1 67 7
 325 003a 85C6     		beq	a3,zero,.L23
  68:C:/Users/stapi/OneDrive/Desktop/GD32VW553/V1_MQTT_OK/GD32VW55X_Wifi_BLE_SDK/GD32VW55x_RELEASE_V1.0.2/MSDK/wpa_supplicant/src/ap\pmksa_cache_auth.c **** 			else
 326              		.loc 1 68 5 is_stmt 1
  68:C:/Users/stapi/OneDrive/Desktop/GD32VW553/V1_MQTT_OK/GD32VW55X_Wifi_BLE_SDK/GD32VW55x_RELEASE_V1.0.2/MSDK/wpa_supplicant/src/ap\pmksa_cache_auth.c **** 			else
 327              		.loc 1 68 17 is_stmt 0
 328 003c D8C2     		sw	a4,4(a3)
 329              	.LVL32:
 330              	.L24:
  78:C:/Users/stapi/OneDrive/Desktop/GD32VW553/V1_MQTT_OK/GD32VW55X_Wifi_BLE_SDK/GD32VW55x_RELEASE_V1.0.2/MSDK/wpa_supplicant/src/ap\pmksa_cache_auth.c **** 	prev = NULL;
 331              		.loc 1 78 2 is_stmt 1
  78:C:/Users/stapi/OneDrive/Desktop/GD32VW553/V1_MQTT_OK/GD32VW55X_Wifi_BLE_SDK/GD32VW55x_RELEASE_V1.0.2/MSDK/wpa_supplicant/src/ap\pmksa_cache_auth.c **** 	prev = NULL;
 332              		.loc 1 78 6 is_stmt 0
 333 003e 83270420 		lw	a5,512(s0)
 334              	.LVL33:
  79:C:/Users/stapi/OneDrive/Desktop/GD32VW553/V1_MQTT_OK/GD32VW55X_Wifi_BLE_SDK/GD32VW55x_RELEASE_V1.0.2/MSDK/wpa_supplicant/src/ap\pmksa_cache_auth.c **** 	while (pos) {
 335              		.loc 1 79 2 is_stmt 1
  80:C:/Users/stapi/OneDrive/Desktop/GD32VW553/V1_MQTT_OK/GD32VW55X_Wifi_BLE_SDK/GD32VW55x_RELEASE_V1.0.2/MSDK/wpa_supplicant/src/ap\pmksa_cache_auth.c **** 		if (pos == entry) {
 336              		.loc 1 80 2
  79:C:/Users/stapi/OneDrive/Desktop/GD32VW553/V1_MQTT_OK/GD32VW55X_Wifi_BLE_SDK/GD32VW55x_RELEASE_V1.0.2/MSDK/wpa_supplicant/src/ap\pmksa_cache_auth.c **** 	while (pos) {
 337              		.loc 1 79 7 is_stmt 0
 338 0042 0147     		li	a4,0
 339              	.LVL34:
 340              	.L26:
  80:C:/Users/stapi/OneDrive/Desktop/GD32VW553/V1_MQTT_OK/GD32VW55X_Wifi_BLE_SDK/GD32VW55x_RELEASE_V1.0.2/MSDK/wpa_supplicant/src/ap\pmksa_cache_auth.c **** 		if (pos == entry) {
 341              		.loc 1 80 8 is_stmt 1
 342 0044 91C7     		beq	a5,zero,.L29
  81:C:/Users/stapi/OneDrive/Desktop/GD32VW553/V1_MQTT_OK/GD32VW55X_Wifi_BLE_SDK/GD32VW55x_RELEASE_V1.0.2/MSDK/wpa_supplicant/src/ap\pmksa_cache_auth.c **** 			if (prev != NULL)
 343              		.loc 1 81 3
  81:C:/Users/stapi/OneDrive/Desktop/GD32VW553/V1_MQTT_OK/GD32VW55X_Wifi_BLE_SDK/GD32VW55x_RELEASE_V1.0.2/MSDK/wpa_supplicant/src/ap\pmksa_cache_auth.c **** 			if (prev != NULL)
 344              		.loc 1 81 6 is_stmt 0
 345 0046 6396A702 		bne	a5,a0,.L27
  82:C:/Users/stapi/OneDrive/Desktop/GD32VW553/V1_MQTT_OK/GD32VW55X_Wifi_BLE_SDK/GD32VW55x_RELEASE_V1.0.2/MSDK/wpa_supplicant/src/ap\pmksa_cache_auth.c **** 				prev->next = entry->next;
 346              		.loc 1 82 4 is_stmt 1
  83:C:/Users/stapi/OneDrive/Desktop/GD32VW553/V1_MQTT_OK/GD32VW55X_Wifi_BLE_SDK/GD32VW55x_RELEASE_V1.0.2/MSDK/wpa_supplicant/src/ap\pmksa_cache_auth.c **** 			else
 347              		.loc 1 83 23 is_stmt 0
 348 004a 1C41     		lw	a5,0(a0)
 349              	.LVL35:
  82:C:/Users/stapi/OneDrive/Desktop/GD32VW553/V1_MQTT_OK/GD32VW55X_Wifi_BLE_SDK/GD32VW55x_RELEASE_V1.0.2/MSDK/wpa_supplicant/src/ap\pmksa_cache_auth.c **** 				prev->next = entry->next;
 350              		.loc 1 82 7
 351 004c 05C3     		beq	a4,zero,.L28
  83:C:/Users/stapi/OneDrive/Desktop/GD32VW553/V1_MQTT_OK/GD32VW55X_Wifi_BLE_SDK/GD32VW55x_RELEASE_V1.0.2/MSDK/wpa_supplicant/src/ap\pmksa_cache_auth.c **** 			else
 352              		.loc 1 83 5 is_stmt 1
  83:C:/Users/stapi/OneDrive/Desktop/GD32VW553/V1_MQTT_OK/GD32VW55X_Wifi_BLE_SDK/GD32VW55x_RELEASE_V1.0.2/MSDK/wpa_supplicant/src/ap\pmksa_cache_auth.c **** 			else
 353              		.loc 1 83 16 is_stmt 0
 354 004e 1CC3     		sw	a5,0(a4)
 355              	.L29:
  92:C:/Users/stapi/OneDrive/Desktop/GD32VW553/V1_MQTT_OK/GD32VW55X_Wifi_BLE_SDK/GD32VW55x_RELEASE_V1.0.2/MSDK/wpa_supplicant/src/ap\pmksa_cache_auth.c **** }
 356              		.loc 1 92 2 is_stmt 1
 357 0050 97000000 		call	_pmksa_cache_free_entry
 357      E7800000 
 358              	.LVL36:
  93:C:/Users/stapi/OneDrive/Desktop/GD32VW553/V1_MQTT_OK/GD32VW55X_Wifi_BLE_SDK/GD32VW55x_RELEASE_V1.0.2/MSDK/wpa_supplicant/src/ap\pmksa_cache_auth.c **** 
 359              		.loc 1 93 1 is_stmt 0
 360 0058 4101     		addi	sp,sp,16
 361              		.cfi_remember_state
 362              		.cfi_def_cfa_offset 0
 363              	.LVL37:
 364 005a 17030000 		tail	__riscv_restore_1
 364      67000300 
 365              		.cfi_restore 8
 366              		.cfi_restore 1
 367              		.cfi_def_cfa_offset -16
 368              	.LVL38:
 369              	.L23:
 370              		.cfi_restore_state
  70:C:/Users/stapi/OneDrive/Desktop/GD32VW553/V1_MQTT_OK/GD32VW55X_Wifi_BLE_SDK/GD32VW55x_RELEASE_V1.0.2/MSDK/wpa_supplicant/src/ap\pmksa_cache_auth.c **** 			break;
 371              		.loc 1 70 5 is_stmt 1
  70:C:/Users/stapi/OneDrive/Desktop/GD32VW553/V1_MQTT_OK/GD32VW55X_Wifi_BLE_SDK/GD32VW55x_RELEASE_V1.0.2/MSDK/wpa_supplicant/src/ap\pmksa_cache_auth.c **** 			break;
 372              		.loc 1 70 24 is_stmt 0
 373 0062 98C3     		sw	a4,0(a5)
 374              	.LVL39:
 375 0064 E9BF     		j	.L24
 376              	.LVL40:
 377              	.L22:
  73:C:/Users/stapi/OneDrive/Desktop/GD32VW553/V1_MQTT_OK/GD32VW55X_Wifi_BLE_SDK/GD32VW55x_RELEASE_V1.0.2/MSDK/wpa_supplicant/src/ap\pmksa_cache_auth.c **** 		pos = pos->hnext;
 378              		.loc 1 73 3 is_stmt 1
  74:C:/Users/stapi/OneDrive/Desktop/GD32VW553/V1_MQTT_OK/GD32VW55X_Wifi_BLE_SDK/GD32VW55x_RELEASE_V1.0.2/MSDK/wpa_supplicant/src/ap\pmksa_cache_auth.c **** 	}
 379              		.loc 1 74 3
  74:C:/Users/stapi/OneDrive/Desktop/GD32VW553/V1_MQTT_OK/GD32VW55X_Wifi_BLE_SDK/GD32VW55x_RELEASE_V1.0.2/MSDK/wpa_supplicant/src/ap\pmksa_cache_auth.c **** 	}
 380              		.loc 1 74 7 is_stmt 0
 381 0066 BA86     		mv	a3,a4
 382 0068 5843     		lw	a4,4(a4)
 383              	.LVL41:
 384 006a E1B7     		j	.L21
 385              	.LVL42:
 386              	.L28:
  85:C:/Users/stapi/OneDrive/Desktop/GD32VW553/V1_MQTT_OK/GD32VW55X_Wifi_BLE_SDK/GD32VW55x_RELEASE_V1.0.2/MSDK/wpa_supplicant/src/ap\pmksa_cache_auth.c **** 			break;
 387              		.loc 1 85 5 is_stmt 1
  85:C:/Users/stapi/OneDrive/Desktop/GD32VW553/V1_MQTT_OK/GD32VW55X_Wifi_BLE_SDK/GD32VW55x_RELEASE_V1.0.2/MSDK/wpa_supplicant/src/ap\pmksa_cache_auth.c **** 			break;
 388              		.loc 1 85 18 is_stmt 0
 389 006c 2320F420 		sw	a5,512(s0)
 390 0070 C5B7     		j	.L29
 391              	.LVL43:
 392              	.L27:
  88:C:/Users/stapi/OneDrive/Desktop/GD32VW553/V1_MQTT_OK/GD32VW55X_Wifi_BLE_SDK/GD32VW55x_RELEASE_V1.0.2/MSDK/wpa_supplicant/src/ap\pmksa_cache_auth.c **** 		pos = pos->next;
 393              		.loc 1 88 3 is_stmt 1
  89:C:/Users/stapi/OneDrive/Desktop/GD32VW553/V1_MQTT_OK/GD32VW55X_Wifi_BLE_SDK/GD32VW55x_RELEASE_V1.0.2/MSDK/wpa_supplicant/src/ap\pmksa_cache_auth.c **** 	}
 394              		.loc 1 89 3
  89:C:/Users/stapi/OneDrive/Desktop/GD32VW553/V1_MQTT_OK/GD32VW55X_Wifi_BLE_SDK/GD32VW55x_RELEASE_V1.0.2/MSDK/wpa_supplicant/src/ap\pmksa_cache_auth.c **** 	}
 395              		.loc 1 89 7 is_stmt 0
 396 0072 3E87     		mv	a4,a5
 397 0074 9C43     		lw	a5,0(a5)
 398              	.LVL44:
 399 0076 F9B7     		j	.L26
 400              		.cfi_endproc
 401              	.LFE137:
 403              		.section	.rodata.pmksa_cache_expire.str1.4,"aMS",@progbits,1
 404              		.align	2
 405              	.LC2:
 406 0000 52534E3A 		.string	"RSN: expired PMKSA cache entry for %02x:%02x:%02x:%02x:%02x:%02x"
 406      20657870 
 406      69726564 
 406      20504D4B 
 406      53412063 
 407              		.section	.text.pmksa_cache_expire,"ax",@progbits
 408              		.align	1
 410              	pmksa_cache_expire:
 411              	.LFB139:
 111:C:/Users/stapi/OneDrive/Desktop/GD32VW553/V1_MQTT_OK/GD32VW55X_Wifi_BLE_SDK/GD32VW55x_RELEASE_V1.0.2/MSDK/wpa_supplicant/src/ap\pmksa_cache_auth.c **** 	struct rsn_pmksa_cache *pmksa = eloop_ctx;
 412              		.loc 1 111 1 is_stmt 1
 413              		.cfi_startproc
 414              	.LVL45:
 415 0000 17030000 		call	t0,__riscv_save_2
 415      E7020300 
 416              		.cfi_offset 9, -12
 417              		.cfi_offset 8, -8
 418              		.cfi_offset 1, -4
 419              		.cfi_def_cfa_offset 16
 112:C:/Users/stapi/OneDrive/Desktop/GD32VW553/V1_MQTT_OK/GD32VW55X_Wifi_BLE_SDK/GD32VW55x_RELEASE_V1.0.2/MSDK/wpa_supplicant/src/ap\pmksa_cache_auth.c **** 	struct os_reltime now;
 420              		.loc 1 112 2
 111:C:/Users/stapi/OneDrive/Desktop/GD32VW553/V1_MQTT_OK/GD32VW55X_Wifi_BLE_SDK/GD32VW55x_RELEASE_V1.0.2/MSDK/wpa_supplicant/src/ap\pmksa_cache_auth.c **** 	struct rsn_pmksa_cache *pmksa = eloop_ctx;
 421              		.loc 1 111 1 is_stmt 0
 422 0008 4111     		addi	sp,sp,-16
 423              		.cfi_def_cfa_offset 32
 111:C:/Users/stapi/OneDrive/Desktop/GD32VW553/V1_MQTT_OK/GD32VW55X_Wifi_BLE_SDK/GD32VW55x_RELEASE_V1.0.2/MSDK/wpa_supplicant/src/ap\pmksa_cache_auth.c **** 	struct rsn_pmksa_cache *pmksa = eloop_ctx;
 424              		.loc 1 111 1
 425 000a 2A84     		mv	s0,a0
 426              	.LVL46:
 113:C:/Users/stapi/OneDrive/Desktop/GD32VW553/V1_MQTT_OK/GD32VW55X_Wifi_BLE_SDK/GD32VW55x_RELEASE_V1.0.2/MSDK/wpa_supplicant/src/ap\pmksa_cache_auth.c **** 
 427              		.loc 1 113 2 is_stmt 1
 115:C:/Users/stapi/OneDrive/Desktop/GD32VW553/V1_MQTT_OK/GD32VW55X_Wifi_BLE_SDK/GD32VW55x_RELEASE_V1.0.2/MSDK/wpa_supplicant/src/ap\pmksa_cache_auth.c **** 	while (pmksa->pmksa && pmksa->pmksa->expiration <= now.sec) {
 428              		.loc 1 115 2
 429 000c 2800     		addi	a0,sp,8
 430              	.LVL47:
 431 000e 97000000 		call	os_get_reltime
 431      E7800000 
 432              	.LVL48:
 116:C:/Users/stapi/OneDrive/Desktop/GD32VW553/V1_MQTT_OK/GD32VW55X_Wifi_BLE_SDK/GD32VW55x_RELEASE_V1.0.2/MSDK/wpa_supplicant/src/ap\pmksa_cache_auth.c **** 		wpa_printf(MSG_DEBUG, "RSN: expired PMKSA cache entry for "
 433              		.loc 1 116 2
 117:C:/Users/stapi/OneDrive/Desktop/GD32VW553/V1_MQTT_OK/GD32VW55X_Wifi_BLE_SDK/GD32VW55x_RELEASE_V1.0.2/MSDK/wpa_supplicant/src/ap\pmksa_cache_auth.c **** 			   MACSTR, MAC2STR(pmksa->pmksa->spa));
 434              		.loc 1 117 3 is_stmt 0
 435 0016 B7040000 		lui	s1,%hi(.LC2)
 436              	.L33:
 116:C:/Users/stapi/OneDrive/Desktop/GD32VW553/V1_MQTT_OK/GD32VW55X_Wifi_BLE_SDK/GD32VW55x_RELEASE_V1.0.2/MSDK/wpa_supplicant/src/ap\pmksa_cache_auth.c **** 		wpa_printf(MSG_DEBUG, "RSN: expired PMKSA cache entry for "
 437              		.loc 1 116 8 is_stmt 1
 116:C:/Users/stapi/OneDrive/Desktop/GD32VW553/V1_MQTT_OK/GD32VW55X_Wifi_BLE_SDK/GD32VW55x_RELEASE_V1.0.2/MSDK/wpa_supplicant/src/ap\pmksa_cache_auth.c **** 		wpa_printf(MSG_DEBUG, "RSN: expired PMKSA cache entry for "
 438              		.loc 1 116 14 is_stmt 0
 439 001a 03260420 		lw	a2,512(s0)
 116:C:/Users/stapi/OneDrive/Desktop/GD32VW553/V1_MQTT_OK/GD32VW55X_Wifi_BLE_SDK/GD32VW55x_RELEASE_V1.0.2/MSDK/wpa_supplicant/src/ap\pmksa_cache_auth.c **** 		wpa_printf(MSG_DEBUG, "RSN: expired PMKSA cache entry for "
 440              		.loc 1 116 8
 441 001e 09C6     		beq	a2,zero,.L34
 116:C:/Users/stapi/OneDrive/Desktop/GD32VW553/V1_MQTT_OK/GD32VW55X_Wifi_BLE_SDK/GD32VW55x_RELEASE_V1.0.2/MSDK/wpa_supplicant/src/ap\pmksa_cache_auth.c **** 		wpa_printf(MSG_DEBUG, "RSN: expired PMKSA cache entry for "
 442              		.loc 1 116 22 discriminator 1
 443 0020 784E     		lw	a4,92(a2)
 444 0022 A247     		lw	a5,8(sp)
 445 0024 63DCE700 		ble	a4,a5,.L35
 446              	.L34:
 122:C:/Users/stapi/OneDrive/Desktop/GD32VW553/V1_MQTT_OK/GD32VW55X_Wifi_BLE_SDK/GD32VW55x_RELEASE_V1.0.2/MSDK/wpa_supplicant/src/ap\pmksa_cache_auth.c **** }
 447              		.loc 1 122 2 is_stmt 1
 448 0028 2285     		mv	a0,s0
 449 002a 97000000 		call	pmksa_cache_set_expiration
 449      E7800000 
 450              	.LVL49:
 123:C:/Users/stapi/OneDrive/Desktop/GD32VW553/V1_MQTT_OK/GD32VW55X_Wifi_BLE_SDK/GD32VW55x_RELEASE_V1.0.2/MSDK/wpa_supplicant/src/ap\pmksa_cache_auth.c **** 
 451              		.loc 1 123 1 is_stmt 0
 452 0032 4101     		addi	sp,sp,16
 453              		.cfi_remember_state
 454              		.cfi_def_cfa_offset 0
 455 0034 17030000 		tail	__riscv_restore_2
 455      67000300 
 456              		.cfi_restore 9
 457              		.cfi_restore 8
 458              		.cfi_restore 1
 459              		.cfi_def_cfa_offset -16
 460              	.L35:
 461              		.cfi_restore_state
 117:C:/Users/stapi/OneDrive/Desktop/GD32VW553/V1_MQTT_OK/GD32VW55X_Wifi_BLE_SDK/GD32VW55x_RELEASE_V1.0.2/MSDK/wpa_supplicant/src/ap\pmksa_cache_auth.c **** 			   MACSTR, MAC2STR(pmksa->pmksa->spa));
 462              		.loc 1 117 3 is_stmt 1
 463 003c 83489606 		lbu	a7,105(a2)
 464 0040 03488606 		lbu	a6,104(a2)
 465 0044 83477606 		lbu	a5,103(a2)
 466 0048 03476606 		lbu	a4,102(a2)
 467 004c 83465606 		lbu	a3,101(a2)
 468 0050 03464606 		lbu	a2,100(a2)
 469 0054 93850400 		addi	a1,s1,%lo(.LC2)
 470 0058 0945     		li	a0,2
 471 005a 97000000 		call	wpa_printf
 471      E7800000 
 472              	.LVL50:
 119:C:/Users/stapi/OneDrive/Desktop/GD32VW553/V1_MQTT_OK/GD32VW55X_Wifi_BLE_SDK/GD32VW55x_RELEASE_V1.0.2/MSDK/wpa_supplicant/src/ap\pmksa_cache_auth.c **** 	}
 473              		.loc 1 119 3
 474 0062 83250420 		lw	a1,512(s0)
 475 0066 2285     		mv	a0,s0
 476 0068 97000000 		call	pmksa_cache_free_entry
 476      E7800000 
 477              	.LVL51:
 478 0070 6DB7     		j	.L33
 479              		.cfi_endproc
 480              	.LFE139:
 482              		.section	.rodata.pmksa_cache_auth_flush.str1.4,"aMS",@progbits,1
 483              		.align	2
 484              	.LC3:
 485 0000 52534E3A 		.string	"RSN: Flush PMKSA cache entry for %02x:%02x:%02x:%02x:%02x:%02x"
 485      20466C75 
 485      73682050 
 485      4D4B5341 
 485      20636163 
 486              		.section	.text.pmksa_cache_auth_flush,"ax",@progbits
 487              		.align	1
 488              		.globl	pmksa_cache_auth_flush
 490              	pmksa_cache_auth_flush:
 491              	.LFB138:
 101:C:/Users/stapi/OneDrive/Desktop/GD32VW553/V1_MQTT_OK/GD32VW55X_Wifi_BLE_SDK/GD32VW55x_RELEASE_V1.0.2/MSDK/wpa_supplicant/src/ap\pmksa_cache_auth.c **** 	while (pmksa->pmksa) {
 492              		.loc 1 101 1
 493              		.cfi_startproc
 494              	.LVL52:
 495 0000 17030000 		call	t0,__riscv_save_2
 495      E7020300 
 496              		.cfi_offset 9, -12
 497              		.cfi_offset 8, -8
 498              		.cfi_offset 1, -4
 499              		.cfi_def_cfa_offset 16
 102:C:/Users/stapi/OneDrive/Desktop/GD32VW553/V1_MQTT_OK/GD32VW55X_Wifi_BLE_SDK/GD32VW55x_RELEASE_V1.0.2/MSDK/wpa_supplicant/src/ap\pmksa_cache_auth.c **** 		wpa_printf(MSG_DEBUG, "RSN: Flush PMKSA cache entry for "
 500              		.loc 1 102 2
 101:C:/Users/stapi/OneDrive/Desktop/GD32VW553/V1_MQTT_OK/GD32VW55X_Wifi_BLE_SDK/GD32VW55x_RELEASE_V1.0.2/MSDK/wpa_supplicant/src/ap\pmksa_cache_auth.c **** 	while (pmksa->pmksa) {
 501              		.loc 1 101 1 is_stmt 0
 502 0008 2A84     		mv	s0,a0
 103:C:/Users/stapi/OneDrive/Desktop/GD32VW553/V1_MQTT_OK/GD32VW55X_Wifi_BLE_SDK/GD32VW55x_RELEASE_V1.0.2/MSDK/wpa_supplicant/src/ap\pmksa_cache_auth.c **** 			   MACSTR, MAC2STR(pmksa->pmksa->spa));
 503              		.loc 1 103 3
 504 000a B7040000 		lui	s1,%hi(.LC3)
 505              	.LVL53:
 506              	.L41:
 102:C:/Users/stapi/OneDrive/Desktop/GD32VW553/V1_MQTT_OK/GD32VW55X_Wifi_BLE_SDK/GD32VW55x_RELEASE_V1.0.2/MSDK/wpa_supplicant/src/ap\pmksa_cache_auth.c **** 		wpa_printf(MSG_DEBUG, "RSN: Flush PMKSA cache entry for "
 507              		.loc 1 102 8 is_stmt 1
 102:C:/Users/stapi/OneDrive/Desktop/GD32VW553/V1_MQTT_OK/GD32VW55X_Wifi_BLE_SDK/GD32VW55x_RELEASE_V1.0.2/MSDK/wpa_supplicant/src/ap\pmksa_cache_auth.c **** 		wpa_printf(MSG_DEBUG, "RSN: Flush PMKSA cache entry for "
 508              		.loc 1 102 14 is_stmt 0
 509 000e 03260420 		lw	a2,512(s0)
 102:C:/Users/stapi/OneDrive/Desktop/GD32VW553/V1_MQTT_OK/GD32VW55X_Wifi_BLE_SDK/GD32VW55x_RELEASE_V1.0.2/MSDK/wpa_supplicant/src/ap\pmksa_cache_auth.c **** 		wpa_printf(MSG_DEBUG, "RSN: Flush PMKSA cache entry for "
 510              		.loc 1 102 8
 511 0012 09E6     		bne	a2,zero,.L42
 107:C:/Users/stapi/OneDrive/Desktop/GD32VW553/V1_MQTT_OK/GD32VW55X_Wifi_BLE_SDK/GD32VW55x_RELEASE_V1.0.2/MSDK/wpa_supplicant/src/ap\pmksa_cache_auth.c **** 
 512              		.loc 1 107 1
 513 0014 17030000 		tail	__riscv_restore_2
 513      67000300 
 514              		.cfi_remember_state
 515              		.cfi_restore 9
 516              		.cfi_restore 8
 517              		.cfi_restore 1
 518              		.cfi_def_cfa_offset 0
 519              	.L42:
 520              		.cfi_restore_state
 103:C:/Users/stapi/OneDrive/Desktop/GD32VW553/V1_MQTT_OK/GD32VW55X_Wifi_BLE_SDK/GD32VW55x_RELEASE_V1.0.2/MSDK/wpa_supplicant/src/ap\pmksa_cache_auth.c **** 			   MACSTR, MAC2STR(pmksa->pmksa->spa));
 521              		.loc 1 103 3 is_stmt 1
 522 001c 83489606 		lbu	a7,105(a2)
 523 0020 03488606 		lbu	a6,104(a2)
 524 0024 83477606 		lbu	a5,103(a2)
 525 0028 03476606 		lbu	a4,102(a2)
 526 002c 83465606 		lbu	a3,101(a2)
 527 0030 03464606 		lbu	a2,100(a2)
 528 0034 93850400 		addi	a1,s1,%lo(.LC3)
 529 0038 0945     		li	a0,2
 530 003a 97000000 		call	wpa_printf
 530      E7800000 
 531              	.LVL54:
 105:C:/Users/stapi/OneDrive/Desktop/GD32VW553/V1_MQTT_OK/GD32VW55X_Wifi_BLE_SDK/GD32VW55x_RELEASE_V1.0.2/MSDK/wpa_supplicant/src/ap\pmksa_cache_auth.c **** 	}
 532              		.loc 1 105 3
 533 0042 83250420 		lw	a1,512(s0)
 534 0046 2285     		mv	a0,s0
 535 0048 97000000 		call	pmksa_cache_free_entry
 535      E7800000 
 536              	.LVL55:
 537 0050 7DBF     		j	.L41
 538              		.cfi_endproc
 539              	.LFE138:
 541              		.section	.rodata.pmksa_cache_to_eapol_data.str1.4,"aMS",@progbits,1
 542              		.align	2
 543              	.LC4:
 544 0000 53544120 		.string	"STA identity from PMKSA"
 544      6964656E 
 544      74697479 
 544      2066726F 
 544      6D20504D 
 545              		.align	2
 546              	.LC5:
 547 0018 436F7069 		.string	"Copied %lu Class attribute(s) from PMKSA"
 547      65642025 
 547      6C752043 
 547      6C617373 
 547      20617474 
 548              		.section	.text.pmksa_cache_to_eapol_data,"ax",@progbits
 549              		.align	1
 550              		.globl	pmksa_cache_to_eapol_data
 552              	pmksa_cache_to_eapol_data:
 553              	.LFB142:
 184:C:/Users/stapi/OneDrive/Desktop/GD32VW553/V1_MQTT_OK/GD32VW55X_Wifi_BLE_SDK/GD32VW55x_RELEASE_V1.0.2/MSDK/wpa_supplicant/src/ap\pmksa_cache_auth.c **** 	if (entry == NULL || eapol == NULL)
 554              		.loc 1 184 1
 555              		.cfi_startproc
 556              	.LVL56:
 185:C:/Users/stapi/OneDrive/Desktop/GD32VW553/V1_MQTT_OK/GD32VW55X_Wifi_BLE_SDK/GD32VW55x_RELEASE_V1.0.2/MSDK/wpa_supplicant/src/ap\pmksa_cache_auth.c **** 		return;
 557              		.loc 1 185 2
 185:C:/Users/stapi/OneDrive/Desktop/GD32VW553/V1_MQTT_OK/GD32VW55X_Wifi_BLE_SDK/GD32VW55x_RELEASE_V1.0.2/MSDK/wpa_supplicant/src/ap\pmksa_cache_auth.c **** 		return;
 558              		.loc 1 185 5 is_stmt 0
 559 0000 D5C9     		beq	a1,zero,.L69
 184:C:/Users/stapi/OneDrive/Desktop/GD32VW553/V1_MQTT_OK/GD32VW55X_Wifi_BLE_SDK/GD32VW55x_RELEASE_V1.0.2/MSDK/wpa_supplicant/src/ap\pmksa_cache_auth.c **** 	if (entry == NULL || eapol == NULL)
 560              		.loc 1 184 1 discriminator 1
 561 0002 17030000 		call	t0,__riscv_save_2
 561      E7020300 
 562              		.cfi_offset 9, -12
 563              		.cfi_offset 8, -8
 564              		.cfi_offset 1, -4
 565              		.cfi_def_cfa_offset 16
 566 000a 3284     		mv	s0,a2
 185:C:/Users/stapi/OneDrive/Desktop/GD32VW553/V1_MQTT_OK/GD32VW55X_Wifi_BLE_SDK/GD32VW55x_RELEASE_V1.0.2/MSDK/wpa_supplicant/src/ap\pmksa_cache_auth.c **** 		return;
 567              		.loc 1 185 20 discriminator 1
 568 000c 45C2     		beq	a2,zero,.L44
 188:C:/Users/stapi/OneDrive/Desktop/GD32VW553/V1_MQTT_OK/GD32VW55X_Wifi_BLE_SDK/GD32VW55x_RELEASE_V1.0.2/MSDK/wpa_supplicant/src/ap\pmksa_cache_auth.c **** 		os_free(eapol->identity);
 569              		.loc 1 188 5
 570 000e FC55     		lw	a5,108(a1)
 571 0010 AE84     		mv	s1,a1
 188:C:/Users/stapi/OneDrive/Desktop/GD32VW553/V1_MQTT_OK/GD32VW55X_Wifi_BLE_SDK/GD32VW55x_RELEASE_V1.0.2/MSDK/wpa_supplicant/src/ap\pmksa_cache_auth.c **** 		os_free(eapol->identity);
 572              		.loc 1 188 2 is_stmt 1
 188:C:/Users/stapi/OneDrive/Desktop/GD32VW553/V1_MQTT_OK/GD32VW55X_Wifi_BLE_SDK/GD32VW55x_RELEASE_V1.0.2/MSDK/wpa_supplicant/src/ap\pmksa_cache_auth.c **** 		os_free(eapol->identity);
 573              		.loc 1 188 5 is_stmt 0
 574 0012 A1C7     		beq	a5,zero,.L46
 189:C:/Users/stapi/OneDrive/Desktop/GD32VW553/V1_MQTT_OK/GD32VW55X_Wifi_BLE_SDK/GD32VW55x_RELEASE_V1.0.2/MSDK/wpa_supplicant/src/ap\pmksa_cache_auth.c **** 		eapol->identity = os_malloc(entry->identity_len);
 575              		.loc 1 189 3 is_stmt 1
 576 0014 0325460F 		lw	a0,244(a2)
 577              	.LVL57:
 578 0018 97000000 		call	os_free
 578      E7800000 
 579              	.LVL58:
 190:C:/Users/stapi/OneDrive/Desktop/GD32VW553/V1_MQTT_OK/GD32VW55X_Wifi_BLE_SDK/GD32VW55x_RELEASE_V1.0.2/MSDK/wpa_supplicant/src/ap\pmksa_cache_auth.c **** 		if (eapol->identity) {
 580              		.loc 1 190 3
 190:C:/Users/stapi/OneDrive/Desktop/GD32VW553/V1_MQTT_OK/GD32VW55X_Wifi_BLE_SDK/GD32VW55x_RELEASE_V1.0.2/MSDK/wpa_supplicant/src/ap\pmksa_cache_auth.c **** 		if (eapol->identity) {
 581              		.loc 1 190 21 is_stmt 0
 582 0020 A858     		lw	a0,112(s1)
 583 0022 97000000 		call	os_malloc
 583      E7800000 
 584              	.LVL59:
 190:C:/Users/stapi/OneDrive/Desktop/GD32VW553/V1_MQTT_OK/GD32VW55X_Wifi_BLE_SDK/GD32VW55x_RELEASE_V1.0.2/MSDK/wpa_supplicant/src/ap\pmksa_cache_auth.c **** 		if (eapol->identity) {
 585              		.loc 1 190 19
 586 002a 232AA40E 		sw	a0,244(s0)
 191:C:/Users/stapi/OneDrive/Desktop/GD32VW553/V1_MQTT_OK/GD32VW55X_Wifi_BLE_SDK/GD32VW55x_RELEASE_V1.0.2/MSDK/wpa_supplicant/src/ap\pmksa_cache_auth.c **** 			eapol->identity_len = entry->identity_len;
 587              		.loc 1 191 3 is_stmt 1
 191:C:/Users/stapi/OneDrive/Desktop/GD32VW553/V1_MQTT_OK/GD32VW55X_Wifi_BLE_SDK/GD32VW55x_RELEASE_V1.0.2/MSDK/wpa_supplicant/src/ap\pmksa_cache_auth.c **** 			eapol->identity_len = entry->identity_len;
 588              		.loc 1 191 6 is_stmt 0
 589 002e 09C9     		beq	a0,zero,.L47
 192:C:/Users/stapi/OneDrive/Desktop/GD32VW553/V1_MQTT_OK/GD32VW55X_Wifi_BLE_SDK/GD32VW55x_RELEASE_V1.0.2/MSDK/wpa_supplicant/src/ap\pmksa_cache_auth.c **** 			os_memcpy(eapol->identity, entry->identity,
 590              		.loc 1 192 4 is_stmt 1
 192:C:/Users/stapi/OneDrive/Desktop/GD32VW553/V1_MQTT_OK/GD32VW55X_Wifi_BLE_SDK/GD32VW55x_RELEASE_V1.0.2/MSDK/wpa_supplicant/src/ap\pmksa_cache_auth.c **** 			os_memcpy(eapol->identity, entry->identity,
 591              		.loc 1 192 31 is_stmt 0
 592 0030 B058     		lw	a2,112(s1)
 193:C:/Users/stapi/OneDrive/Desktop/GD32VW553/V1_MQTT_OK/GD32VW55X_Wifi_BLE_SDK/GD32VW55x_RELEASE_V1.0.2/MSDK/wpa_supplicant/src/ap\pmksa_cache_auth.c **** 				  entry->identity_len);
 593              		.loc 1 193 4
 594 0032 EC54     		lw	a1,108(s1)
 192:C:/Users/stapi/OneDrive/Desktop/GD32VW553/V1_MQTT_OK/GD32VW55X_Wifi_BLE_SDK/GD32VW55x_RELEASE_V1.0.2/MSDK/wpa_supplicant/src/ap\pmksa_cache_auth.c **** 			os_memcpy(eapol->identity, entry->identity,
 595              		.loc 1 192 24
 596 0034 232CC40E 		sw	a2,248(s0)
 193:C:/Users/stapi/OneDrive/Desktop/GD32VW553/V1_MQTT_OK/GD32VW55X_Wifi_BLE_SDK/GD32VW55x_RELEASE_V1.0.2/MSDK/wpa_supplicant/src/ap\pmksa_cache_auth.c **** 				  entry->identity_len);
 597              		.loc 1 193 4 is_stmt 1
 598 0038 97000000 		call	os_memcpy
 598      E7800000 
 599              	.LVL60:
 600              	.L47:
 196:C:/Users/stapi/OneDrive/Desktop/GD32VW553/V1_MQTT_OK/GD32VW55X_Wifi_BLE_SDK/GD32VW55x_RELEASE_V1.0.2/MSDK/wpa_supplicant/src/ap\pmksa_cache_auth.c **** 				  eapol->identity, eapol->identity_len);
 601              		.loc 1 196 3
 602 0040 8326840F 		lw	a3,248(s0)
 603 0044 0326440F 		lw	a2,244(s0)
 604 0048 B7050000 		lui	a1,%hi(.LC4)
 605 004c 93850500 		addi	a1,a1,%lo(.LC4)
 606 0050 0945     		li	a0,2
 607 0052 97000000 		call	wpa_hexdump_ascii
 607      E7800000 
 608              	.LVL61:
 609              	.L46:
 200:C:/Users/stapi/OneDrive/Desktop/GD32VW553/V1_MQTT_OK/GD32VW55X_Wifi_BLE_SDK/GD32VW55x_RELEASE_V1.0.2/MSDK/wpa_supplicant/src/ap\pmksa_cache_auth.c **** 		wpabuf_free(eapol->radius_cui);
 610              		.loc 1 200 2
 200:C:/Users/stapi/OneDrive/Desktop/GD32VW553/V1_MQTT_OK/GD32VW55X_Wifi_BLE_SDK/GD32VW55x_RELEASE_V1.0.2/MSDK/wpa_supplicant/src/ap\pmksa_cache_auth.c **** 		wpabuf_free(eapol->radius_cui);
 611              		.loc 1 200 5 is_stmt 0
 612 005a FC58     		lw	a5,116(s1)
 613 005c 91CF     		beq	a5,zero,.L48
 201:C:/Users/stapi/OneDrive/Desktop/GD32VW553/V1_MQTT_OK/GD32VW55X_Wifi_BLE_SDK/GD32VW55x_RELEASE_V1.0.2/MSDK/wpa_supplicant/src/ap\pmksa_cache_auth.c **** 		eapol->radius_cui = wpabuf_dup(entry->cui);
 614              		.loc 1 201 3 is_stmt 1
 615 005e 03258410 		lw	a0,264(s0)
 616 0062 97000000 		call	wpabuf_free
 616      E7800000 
 617              	.LVL62:
 202:C:/Users/stapi/OneDrive/Desktop/GD32VW553/V1_MQTT_OK/GD32VW55X_Wifi_BLE_SDK/GD32VW55x_RELEASE_V1.0.2/MSDK/wpa_supplicant/src/ap\pmksa_cache_auth.c **** 	}
 618              		.loc 1 202 3
 202:C:/Users/stapi/OneDrive/Desktop/GD32VW553/V1_MQTT_OK/GD32VW55X_Wifi_BLE_SDK/GD32VW55x_RELEASE_V1.0.2/MSDK/wpa_supplicant/src/ap\pmksa_cache_auth.c **** 	}
 619              		.loc 1 202 23 is_stmt 0
 620 006a E858     		lw	a0,116(s1)
 621 006c 97000000 		call	wpabuf_dup
 621      E7800000 
 622              	.LVL63:
 202:C:/Users/stapi/OneDrive/Desktop/GD32VW553/V1_MQTT_OK/GD32VW55X_Wifi_BLE_SDK/GD32VW55x_RELEASE_V1.0.2/MSDK/wpa_supplicant/src/ap\pmksa_cache_auth.c **** 	}
 623              		.loc 1 202 21
 624 0074 2324A410 		sw	a0,264(s0)
 625              	.L48:
 209:C:/Users/stapi/OneDrive/Desktop/GD32VW553/V1_MQTT_OK/GD32VW55X_Wifi_BLE_SDK/GD32VW55x_RELEASE_V1.0.2/MSDK/wpa_supplicant/src/ap\pmksa_cache_auth.c **** 		wpa_printf(MSG_DEBUG, "Copied %lu Class attribute(s) from "
 626              		.loc 1 209 2 is_stmt 1
 209:C:/Users/stapi/OneDrive/Desktop/GD32VW553/V1_MQTT_OK/GD32VW55X_Wifi_BLE_SDK/GD32VW55x_RELEASE_V1.0.2/MSDK/wpa_supplicant/src/ap\pmksa_cache_auth.c **** 		wpa_printf(MSG_DEBUG, "Copied %lu Class attribute(s) from "
 627              		.loc 1 209 5 is_stmt 0
 628 0078 83270410 		lw	a5,256(s0)
 629 007c 81CF     		beq	a5,zero,.L49
 210:C:/Users/stapi/OneDrive/Desktop/GD32VW553/V1_MQTT_OK/GD32VW55X_Wifi_BLE_SDK/GD32VW55x_RELEASE_V1.0.2/MSDK/wpa_supplicant/src/ap\pmksa_cache_auth.c **** 			   "PMKSA", (unsigned long) eapol->radius_class.count);
 630              		.loc 1 210 3 is_stmt 1
 631 007e 03264410 		lw	a2,260(s0)
 632 0082 B7050000 		lui	a1,%hi(.LC5)
 633 0086 93850500 		addi	a1,a1,%lo(.LC5)
 634 008a 0945     		li	a0,2
 635 008c 97000000 		call	wpa_printf
 635      E7800000 
 636              	.LVL64:
 637              	.L49:
 214:C:/Users/stapi/OneDrive/Desktop/GD32VW553/V1_MQTT_OK/GD32VW55X_Wifi_BLE_SDK/GD32VW55x_RELEASE_V1.0.2/MSDK/wpa_supplicant/src/ap\pmksa_cache_auth.c **** #ifndef CONFIG_NO_VLAN
 638              		.loc 1 214 2
 214:C:/Users/stapi/OneDrive/Desktop/GD32VW553/V1_MQTT_OK/GD32VW55X_Wifi_BLE_SDK/GD32VW55x_RELEASE_V1.0.2/MSDK/wpa_supplicant/src/ap\pmksa_cache_auth.c **** #ifndef CONFIG_NO_VLAN
 639              		.loc 1 214 26 is_stmt 0
 640 0094 83C70408 		lbu	a5,128(s1)
 641 0098 230EF40E 		sb	a5,252(s0)
 219:C:/Users/stapi/OneDrive/Desktop/GD32VW553/V1_MQTT_OK/GD32VW55X_Wifi_BLE_SDK/GD32VW55x_RELEASE_V1.0.2/MSDK/wpa_supplicant/src/ap\pmksa_cache_auth.c **** }
 642              		.loc 1 219 2 is_stmt 1
 219:C:/Users/stapi/OneDrive/Desktop/GD32VW553/V1_MQTT_OK/GD32VW55X_Wifi_BLE_SDK/GD32VW55x_RELEASE_V1.0.2/MSDK/wpa_supplicant/src/ap\pmksa_cache_auth.c **** }
 643              		.loc 1 219 31 is_stmt 0
 644 009c 03A70409 		lw	a4,144(s1)
 645 00a0 83A74409 		lw	a5,148(s1)
 646 00a4 2320E412 		sw	a4,288(s0)
 647 00a8 2322F412 		sw	a5,292(s0)
 648              	.LVL65:
 649              	.L44:
 220:C:/Users/stapi/OneDrive/Desktop/GD32VW553/V1_MQTT_OK/GD32VW55X_Wifi_BLE_SDK/GD32VW55x_RELEASE_V1.0.2/MSDK/wpa_supplicant/src/ap\pmksa_cache_auth.c **** 
 650              		.loc 1 220 1
 651 00ac 17030000 		tail	__riscv_restore_2
 651      67000300 
 652              		.cfi_restore 9
 653              		.cfi_restore 8
 654              		.cfi_restore 1
 655              		.cfi_def_cfa_offset 0
 656              	.LVL66:
 657              	.L69:
 658 00b4 8280     		ret
 659              		.cfi_endproc
 660              	.LFE142:
 662              		.section	.text.pmksa_cache_auth_create_entry,"ax",@progbits
 663              		.align	1
 664              		.globl	pmksa_cache_auth_create_entry
 666              	pmksa_cache_auth_create_entry:
 667              	.LFB145:
 257:C:/Users/stapi/OneDrive/Desktop/GD32VW553/V1_MQTT_OK/GD32VW55X_Wifi_BLE_SDK/GD32VW55x_RELEASE_V1.0.2/MSDK/wpa_supplicant/src/ap\pmksa_cache_auth.c **** 
 258:C:/Users/stapi/OneDrive/Desktop/GD32VW553/V1_MQTT_OK/GD32VW55X_Wifi_BLE_SDK/GD32VW55x_RELEASE_V1.0.2/MSDK/wpa_supplicant/src/ap\pmksa_cache_auth.c **** 
 259:C:/Users/stapi/OneDrive/Desktop/GD32VW553/V1_MQTT_OK/GD32VW55X_Wifi_BLE_SDK/GD32VW55x_RELEASE_V1.0.2/MSDK/wpa_supplicant/src/ap\pmksa_cache_auth.c **** /**
 260:C:/Users/stapi/OneDrive/Desktop/GD32VW553/V1_MQTT_OK/GD32VW55X_Wifi_BLE_SDK/GD32VW55x_RELEASE_V1.0.2/MSDK/wpa_supplicant/src/ap\pmksa_cache_auth.c ****  * pmksa_cache_auth_add - Add a PMKSA cache entry
 261:C:/Users/stapi/OneDrive/Desktop/GD32VW553/V1_MQTT_OK/GD32VW55X_Wifi_BLE_SDK/GD32VW55x_RELEASE_V1.0.2/MSDK/wpa_supplicant/src/ap\pmksa_cache_auth.c ****  * @pmksa: Pointer to PMKSA cache data from pmksa_cache_auth_init()
 262:C:/Users/stapi/OneDrive/Desktop/GD32VW553/V1_MQTT_OK/GD32VW55X_Wifi_BLE_SDK/GD32VW55x_RELEASE_V1.0.2/MSDK/wpa_supplicant/src/ap\pmksa_cache_auth.c ****  * @pmk: The new pairwise master key
 263:C:/Users/stapi/OneDrive/Desktop/GD32VW553/V1_MQTT_OK/GD32VW55X_Wifi_BLE_SDK/GD32VW55x_RELEASE_V1.0.2/MSDK/wpa_supplicant/src/ap\pmksa_cache_auth.c ****  * @pmk_len: PMK length in bytes, usually PMK_LEN (32)
 264:C:/Users/stapi/OneDrive/Desktop/GD32VW553/V1_MQTT_OK/GD32VW55X_Wifi_BLE_SDK/GD32VW55x_RELEASE_V1.0.2/MSDK/wpa_supplicant/src/ap\pmksa_cache_auth.c ****  * @pmkid: Calculated PMKID
 265:C:/Users/stapi/OneDrive/Desktop/GD32VW553/V1_MQTT_OK/GD32VW55X_Wifi_BLE_SDK/GD32VW55x_RELEASE_V1.0.2/MSDK/wpa_supplicant/src/ap\pmksa_cache_auth.c ****  * @kck: Key confirmation key or %NULL if not yet derived
 266:C:/Users/stapi/OneDrive/Desktop/GD32VW553/V1_MQTT_OK/GD32VW55X_Wifi_BLE_SDK/GD32VW55x_RELEASE_V1.0.2/MSDK/wpa_supplicant/src/ap\pmksa_cache_auth.c ****  * @kck_len: KCK length in bytes
 267:C:/Users/stapi/OneDrive/Desktop/GD32VW553/V1_MQTT_OK/GD32VW55X_Wifi_BLE_SDK/GD32VW55x_RELEASE_V1.0.2/MSDK/wpa_supplicant/src/ap\pmksa_cache_auth.c ****  * @aa: Authenticator address
 268:C:/Users/stapi/OneDrive/Desktop/GD32VW553/V1_MQTT_OK/GD32VW55X_Wifi_BLE_SDK/GD32VW55x_RELEASE_V1.0.2/MSDK/wpa_supplicant/src/ap\pmksa_cache_auth.c ****  * @spa: Supplicant address
 269:C:/Users/stapi/OneDrive/Desktop/GD32VW553/V1_MQTT_OK/GD32VW55X_Wifi_BLE_SDK/GD32VW55x_RELEASE_V1.0.2/MSDK/wpa_supplicant/src/ap\pmksa_cache_auth.c ****  * @session_timeout: Session timeout
 270:C:/Users/stapi/OneDrive/Desktop/GD32VW553/V1_MQTT_OK/GD32VW55X_Wifi_BLE_SDK/GD32VW55x_RELEASE_V1.0.2/MSDK/wpa_supplicant/src/ap\pmksa_cache_auth.c ****  * @eapol: Pointer to EAPOL state machine data
 271:C:/Users/stapi/OneDrive/Desktop/GD32VW553/V1_MQTT_OK/GD32VW55X_Wifi_BLE_SDK/GD32VW55x_RELEASE_V1.0.2/MSDK/wpa_supplicant/src/ap\pmksa_cache_auth.c ****  * @akmp: WPA_KEY_MGMT_* used in key derivation
 272:C:/Users/stapi/OneDrive/Desktop/GD32VW553/V1_MQTT_OK/GD32VW55X_Wifi_BLE_SDK/GD32VW55x_RELEASE_V1.0.2/MSDK/wpa_supplicant/src/ap\pmksa_cache_auth.c ****  * Returns: Pointer to the added PMKSA cache entry or %NULL on error
 273:C:/Users/stapi/OneDrive/Desktop/GD32VW553/V1_MQTT_OK/GD32VW55X_Wifi_BLE_SDK/GD32VW55x_RELEASE_V1.0.2/MSDK/wpa_supplicant/src/ap\pmksa_cache_auth.c ****  *
 274:C:/Users/stapi/OneDrive/Desktop/GD32VW553/V1_MQTT_OK/GD32VW55X_Wifi_BLE_SDK/GD32VW55x_RELEASE_V1.0.2/MSDK/wpa_supplicant/src/ap\pmksa_cache_auth.c ****  * This function create a PMKSA entry for a new PMK and adds it to the PMKSA
 275:C:/Users/stapi/OneDrive/Desktop/GD32VW553/V1_MQTT_OK/GD32VW55X_Wifi_BLE_SDK/GD32VW55x_RELEASE_V1.0.2/MSDK/wpa_supplicant/src/ap\pmksa_cache_auth.c ****  * cache. If an old entry is already in the cache for the same Supplicant,
 276:C:/Users/stapi/OneDrive/Desktop/GD32VW553/V1_MQTT_OK/GD32VW55X_Wifi_BLE_SDK/GD32VW55x_RELEASE_V1.0.2/MSDK/wpa_supplicant/src/ap\pmksa_cache_auth.c ****  * this entry will be replaced with the new entry. PMKID will be calculated
 277:C:/Users/stapi/OneDrive/Desktop/GD32VW553/V1_MQTT_OK/GD32VW55X_Wifi_BLE_SDK/GD32VW55x_RELEASE_V1.0.2/MSDK/wpa_supplicant/src/ap\pmksa_cache_auth.c ****  * based on the PMK.
 278:C:/Users/stapi/OneDrive/Desktop/GD32VW553/V1_MQTT_OK/GD32VW55X_Wifi_BLE_SDK/GD32VW55x_RELEASE_V1.0.2/MSDK/wpa_supplicant/src/ap\pmksa_cache_auth.c ****  */
 279:C:/Users/stapi/OneDrive/Desktop/GD32VW553/V1_MQTT_OK/GD32VW55X_Wifi_BLE_SDK/GD32VW55x_RELEASE_V1.0.2/MSDK/wpa_supplicant/src/ap\pmksa_cache_auth.c **** struct rsn_pmksa_cache_entry *
 280:C:/Users/stapi/OneDrive/Desktop/GD32VW553/V1_MQTT_OK/GD32VW55X_Wifi_BLE_SDK/GD32VW55x_RELEASE_V1.0.2/MSDK/wpa_supplicant/src/ap\pmksa_cache_auth.c **** pmksa_cache_auth_add(struct rsn_pmksa_cache *pmksa,
 281:C:/Users/stapi/OneDrive/Desktop/GD32VW553/V1_MQTT_OK/GD32VW55X_Wifi_BLE_SDK/GD32VW55x_RELEASE_V1.0.2/MSDK/wpa_supplicant/src/ap\pmksa_cache_auth.c **** 		     const u8 *pmk, size_t pmk_len, const u8 *pmkid,
 282:C:/Users/stapi/OneDrive/Desktop/GD32VW553/V1_MQTT_OK/GD32VW55X_Wifi_BLE_SDK/GD32VW55x_RELEASE_V1.0.2/MSDK/wpa_supplicant/src/ap\pmksa_cache_auth.c **** 		     const u8 *kck, size_t kck_len,
 283:C:/Users/stapi/OneDrive/Desktop/GD32VW553/V1_MQTT_OK/GD32VW55X_Wifi_BLE_SDK/GD32VW55x_RELEASE_V1.0.2/MSDK/wpa_supplicant/src/ap\pmksa_cache_auth.c **** 		     const u8 *aa, const u8 *spa, int session_timeout,
 284:C:/Users/stapi/OneDrive/Desktop/GD32VW553/V1_MQTT_OK/GD32VW55X_Wifi_BLE_SDK/GD32VW55x_RELEASE_V1.0.2/MSDK/wpa_supplicant/src/ap\pmksa_cache_auth.c **** 		     struct eapol_state_machine *eapol, int akmp)
 285:C:/Users/stapi/OneDrive/Desktop/GD32VW553/V1_MQTT_OK/GD32VW55X_Wifi_BLE_SDK/GD32VW55x_RELEASE_V1.0.2/MSDK/wpa_supplicant/src/ap\pmksa_cache_auth.c **** {
 286:C:/Users/stapi/OneDrive/Desktop/GD32VW553/V1_MQTT_OK/GD32VW55X_Wifi_BLE_SDK/GD32VW55x_RELEASE_V1.0.2/MSDK/wpa_supplicant/src/ap\pmksa_cache_auth.c **** 	struct rsn_pmksa_cache_entry *entry;
 287:C:/Users/stapi/OneDrive/Desktop/GD32VW553/V1_MQTT_OK/GD32VW55X_Wifi_BLE_SDK/GD32VW55x_RELEASE_V1.0.2/MSDK/wpa_supplicant/src/ap\pmksa_cache_auth.c **** 
 288:C:/Users/stapi/OneDrive/Desktop/GD32VW553/V1_MQTT_OK/GD32VW55X_Wifi_BLE_SDK/GD32VW55x_RELEASE_V1.0.2/MSDK/wpa_supplicant/src/ap\pmksa_cache_auth.c **** 	entry = pmksa_cache_auth_create_entry(pmk, pmk_len, pmkid, kck, kck_len,
 289:C:/Users/stapi/OneDrive/Desktop/GD32VW553/V1_MQTT_OK/GD32VW55X_Wifi_BLE_SDK/GD32VW55x_RELEASE_V1.0.2/MSDK/wpa_supplicant/src/ap\pmksa_cache_auth.c **** 					      aa, spa, session_timeout, eapol,
 290:C:/Users/stapi/OneDrive/Desktop/GD32VW553/V1_MQTT_OK/GD32VW55X_Wifi_BLE_SDK/GD32VW55x_RELEASE_V1.0.2/MSDK/wpa_supplicant/src/ap\pmksa_cache_auth.c **** 					      akmp);
 291:C:/Users/stapi/OneDrive/Desktop/GD32VW553/V1_MQTT_OK/GD32VW55X_Wifi_BLE_SDK/GD32VW55x_RELEASE_V1.0.2/MSDK/wpa_supplicant/src/ap\pmksa_cache_auth.c **** 
 292:C:/Users/stapi/OneDrive/Desktop/GD32VW553/V1_MQTT_OK/GD32VW55X_Wifi_BLE_SDK/GD32VW55x_RELEASE_V1.0.2/MSDK/wpa_supplicant/src/ap\pmksa_cache_auth.c **** 	if (pmksa_cache_auth_add_entry(pmksa, entry) < 0)
 293:C:/Users/stapi/OneDrive/Desktop/GD32VW553/V1_MQTT_OK/GD32VW55X_Wifi_BLE_SDK/GD32VW55x_RELEASE_V1.0.2/MSDK/wpa_supplicant/src/ap\pmksa_cache_auth.c **** 		return NULL;
 294:C:/Users/stapi/OneDrive/Desktop/GD32VW553/V1_MQTT_OK/GD32VW55X_Wifi_BLE_SDK/GD32VW55x_RELEASE_V1.0.2/MSDK/wpa_supplicant/src/ap\pmksa_cache_auth.c **** 
 295:C:/Users/stapi/OneDrive/Desktop/GD32VW553/V1_MQTT_OK/GD32VW55X_Wifi_BLE_SDK/GD32VW55x_RELEASE_V1.0.2/MSDK/wpa_supplicant/src/ap\pmksa_cache_auth.c **** 	return entry;
 296:C:/Users/stapi/OneDrive/Desktop/GD32VW553/V1_MQTT_OK/GD32VW55X_Wifi_BLE_SDK/GD32VW55x_RELEASE_V1.0.2/MSDK/wpa_supplicant/src/ap\pmksa_cache_auth.c **** }
 297:C:/Users/stapi/OneDrive/Desktop/GD32VW553/V1_MQTT_OK/GD32VW55X_Wifi_BLE_SDK/GD32VW55x_RELEASE_V1.0.2/MSDK/wpa_supplicant/src/ap\pmksa_cache_auth.c **** 
 298:C:/Users/stapi/OneDrive/Desktop/GD32VW553/V1_MQTT_OK/GD32VW55X_Wifi_BLE_SDK/GD32VW55x_RELEASE_V1.0.2/MSDK/wpa_supplicant/src/ap\pmksa_cache_auth.c **** 
 299:C:/Users/stapi/OneDrive/Desktop/GD32VW553/V1_MQTT_OK/GD32VW55X_Wifi_BLE_SDK/GD32VW55x_RELEASE_V1.0.2/MSDK/wpa_supplicant/src/ap\pmksa_cache_auth.c **** /**
 300:C:/Users/stapi/OneDrive/Desktop/GD32VW553/V1_MQTT_OK/GD32VW55X_Wifi_BLE_SDK/GD32VW55x_RELEASE_V1.0.2/MSDK/wpa_supplicant/src/ap\pmksa_cache_auth.c ****  * pmksa_cache_auth_create_entry - Create a PMKSA cache entry
 301:C:/Users/stapi/OneDrive/Desktop/GD32VW553/V1_MQTT_OK/GD32VW55X_Wifi_BLE_SDK/GD32VW55x_RELEASE_V1.0.2/MSDK/wpa_supplicant/src/ap\pmksa_cache_auth.c ****  * @pmk: The new pairwise master key
 302:C:/Users/stapi/OneDrive/Desktop/GD32VW553/V1_MQTT_OK/GD32VW55X_Wifi_BLE_SDK/GD32VW55x_RELEASE_V1.0.2/MSDK/wpa_supplicant/src/ap\pmksa_cache_auth.c ****  * @pmk_len: PMK length in bytes, usually PMK_LEN (32)
 303:C:/Users/stapi/OneDrive/Desktop/GD32VW553/V1_MQTT_OK/GD32VW55X_Wifi_BLE_SDK/GD32VW55x_RELEASE_V1.0.2/MSDK/wpa_supplicant/src/ap\pmksa_cache_auth.c ****  * @pmkid: Calculated PMKID
 304:C:/Users/stapi/OneDrive/Desktop/GD32VW553/V1_MQTT_OK/GD32VW55X_Wifi_BLE_SDK/GD32VW55x_RELEASE_V1.0.2/MSDK/wpa_supplicant/src/ap\pmksa_cache_auth.c ****  * @kck: Key confirmation key or %NULL if not yet derived
 305:C:/Users/stapi/OneDrive/Desktop/GD32VW553/V1_MQTT_OK/GD32VW55X_Wifi_BLE_SDK/GD32VW55x_RELEASE_V1.0.2/MSDK/wpa_supplicant/src/ap\pmksa_cache_auth.c ****  * @kck_len: KCK length in bytes
 306:C:/Users/stapi/OneDrive/Desktop/GD32VW553/V1_MQTT_OK/GD32VW55X_Wifi_BLE_SDK/GD32VW55x_RELEASE_V1.0.2/MSDK/wpa_supplicant/src/ap\pmksa_cache_auth.c ****  * @aa: Authenticator address
 307:C:/Users/stapi/OneDrive/Desktop/GD32VW553/V1_MQTT_OK/GD32VW55X_Wifi_BLE_SDK/GD32VW55x_RELEASE_V1.0.2/MSDK/wpa_supplicant/src/ap\pmksa_cache_auth.c ****  * @spa: Supplicant address
 308:C:/Users/stapi/OneDrive/Desktop/GD32VW553/V1_MQTT_OK/GD32VW55X_Wifi_BLE_SDK/GD32VW55x_RELEASE_V1.0.2/MSDK/wpa_supplicant/src/ap\pmksa_cache_auth.c ****  * @session_timeout: Session timeout
 309:C:/Users/stapi/OneDrive/Desktop/GD32VW553/V1_MQTT_OK/GD32VW55X_Wifi_BLE_SDK/GD32VW55x_RELEASE_V1.0.2/MSDK/wpa_supplicant/src/ap\pmksa_cache_auth.c ****  * @eapol: Pointer to EAPOL state machine data
 310:C:/Users/stapi/OneDrive/Desktop/GD32VW553/V1_MQTT_OK/GD32VW55X_Wifi_BLE_SDK/GD32VW55x_RELEASE_V1.0.2/MSDK/wpa_supplicant/src/ap\pmksa_cache_auth.c ****  * @akmp: WPA_KEY_MGMT_* used in key derivation
 311:C:/Users/stapi/OneDrive/Desktop/GD32VW553/V1_MQTT_OK/GD32VW55X_Wifi_BLE_SDK/GD32VW55x_RELEASE_V1.0.2/MSDK/wpa_supplicant/src/ap\pmksa_cache_auth.c ****  * Returns: Pointer to the added PMKSA cache entry or %NULL on error
 312:C:/Users/stapi/OneDrive/Desktop/GD32VW553/V1_MQTT_OK/GD32VW55X_Wifi_BLE_SDK/GD32VW55x_RELEASE_V1.0.2/MSDK/wpa_supplicant/src/ap\pmksa_cache_auth.c ****  *
 313:C:/Users/stapi/OneDrive/Desktop/GD32VW553/V1_MQTT_OK/GD32VW55X_Wifi_BLE_SDK/GD32VW55x_RELEASE_V1.0.2/MSDK/wpa_supplicant/src/ap\pmksa_cache_auth.c ****  * This function creates a PMKSA entry.
 314:C:/Users/stapi/OneDrive/Desktop/GD32VW553/V1_MQTT_OK/GD32VW55X_Wifi_BLE_SDK/GD32VW55x_RELEASE_V1.0.2/MSDK/wpa_supplicant/src/ap\pmksa_cache_auth.c ****  */
 315:C:/Users/stapi/OneDrive/Desktop/GD32VW553/V1_MQTT_OK/GD32VW55X_Wifi_BLE_SDK/GD32VW55x_RELEASE_V1.0.2/MSDK/wpa_supplicant/src/ap\pmksa_cache_auth.c **** struct rsn_pmksa_cache_entry *
 316:C:/Users/stapi/OneDrive/Desktop/GD32VW553/V1_MQTT_OK/GD32VW55X_Wifi_BLE_SDK/GD32VW55x_RELEASE_V1.0.2/MSDK/wpa_supplicant/src/ap\pmksa_cache_auth.c **** pmksa_cache_auth_create_entry(const u8 *pmk, size_t pmk_len, const u8 *pmkid,
 317:C:/Users/stapi/OneDrive/Desktop/GD32VW553/V1_MQTT_OK/GD32VW55X_Wifi_BLE_SDK/GD32VW55x_RELEASE_V1.0.2/MSDK/wpa_supplicant/src/ap\pmksa_cache_auth.c **** 			      const u8 *kck, size_t kck_len, const u8 *aa,
 318:C:/Users/stapi/OneDrive/Desktop/GD32VW553/V1_MQTT_OK/GD32VW55X_Wifi_BLE_SDK/GD32VW55x_RELEASE_V1.0.2/MSDK/wpa_supplicant/src/ap\pmksa_cache_auth.c **** 			      const u8 *spa, int session_timeout,
 319:C:/Users/stapi/OneDrive/Desktop/GD32VW553/V1_MQTT_OK/GD32VW55X_Wifi_BLE_SDK/GD32VW55x_RELEASE_V1.0.2/MSDK/wpa_supplicant/src/ap\pmksa_cache_auth.c **** 			      struct eapol_state_machine *eapol, int akmp)
 320:C:/Users/stapi/OneDrive/Desktop/GD32VW553/V1_MQTT_OK/GD32VW55X_Wifi_BLE_SDK/GD32VW55x_RELEASE_V1.0.2/MSDK/wpa_supplicant/src/ap\pmksa_cache_auth.c **** {
 668              		.loc 1 320 1 is_stmt 1
 669              		.cfi_startproc
 670              	.LVL67:
 671 0000 17030000 		call	t0,__riscv_save_10
 671      E7020300 
 672              		.cfi_offset 25, -44
 673              		.cfi_offset 24, -40
 674              		.cfi_offset 23, -36
 675              		.cfi_offset 22, -32
 676              		.cfi_offset 21, -28
 677              		.cfi_offset 20, -24
 678              		.cfi_offset 19, -20
 679              		.cfi_offset 18, -16
 680              		.cfi_offset 9, -12
 681              		.cfi_offset 8, -8
 682              		.cfi_offset 1, -4
 683              		.cfi_def_cfa_offset 48
 321:C:/Users/stapi/OneDrive/Desktop/GD32VW553/V1_MQTT_OK/GD32VW55X_Wifi_BLE_SDK/GD32VW55x_RELEASE_V1.0.2/MSDK/wpa_supplicant/src/ap\pmksa_cache_auth.c **** 	struct rsn_pmksa_cache_entry *entry;
 684              		.loc 1 321 2
 322:C:/Users/stapi/OneDrive/Desktop/GD32VW553/V1_MQTT_OK/GD32VW55X_Wifi_BLE_SDK/GD32VW55x_RELEASE_V1.0.2/MSDK/wpa_supplicant/src/ap\pmksa_cache_auth.c **** 	struct os_reltime now;
 685              		.loc 1 322 2
 323:C:/Users/stapi/OneDrive/Desktop/GD32VW553/V1_MQTT_OK/GD32VW55X_Wifi_BLE_SDK/GD32VW55x_RELEASE_V1.0.2/MSDK/wpa_supplicant/src/ap\pmksa_cache_auth.c **** 
 324:C:/Users/stapi/OneDrive/Desktop/GD32VW553/V1_MQTT_OK/GD32VW55X_Wifi_BLE_SDK/GD32VW55x_RELEASE_V1.0.2/MSDK/wpa_supplicant/src/ap\pmksa_cache_auth.c **** 	if (pmk_len > PMK_LEN_MAX)
 686              		.loc 1 324 2
 320:C:/Users/stapi/OneDrive/Desktop/GD32VW553/V1_MQTT_OK/GD32VW55X_Wifi_BLE_SDK/GD32VW55x_RELEASE_V1.0.2/MSDK/wpa_supplicant/src/ap\pmksa_cache_auth.c **** 	struct rsn_pmksa_cache_entry *entry;
 687              		.loc 1 320 1 is_stmt 0
 688 0008 0111     		addi	sp,sp,-32
 689              		.cfi_def_cfa_offset 80
 320:C:/Users/stapi/OneDrive/Desktop/GD32VW553/V1_MQTT_OK/GD32VW55X_Wifi_BLE_SDK/GD32VW55x_RELEASE_V1.0.2/MSDK/wpa_supplicant/src/ap\pmksa_cache_auth.c **** 	struct rsn_pmksa_cache_entry *entry;
 690              		.loc 1 320 1
 691 000a BE8C     		mv	s9,a5
 692              		.loc 1 324 5
 693 000c 93070004 		li	a5,64
 694              	.LVL68:
 320:C:/Users/stapi/OneDrive/Desktop/GD32VW553/V1_MQTT_OK/GD32VW55X_Wifi_BLE_SDK/GD32VW55x_RELEASE_V1.0.2/MSDK/wpa_supplicant/src/ap\pmksa_cache_auth.c **** 	struct rsn_pmksa_cache_entry *entry;
 695              		.loc 1 320 1
 696 0010 C644     		lw	s1,80(sp)
 697 0012 564A     		lw	s4,84(sp)
 698              		.loc 1 324 5
 699 0014 63F9B700 		bleu	a1,a5,.L73
 700              	.LVL69:
 701              	.L76:
 325:C:/Users/stapi/OneDrive/Desktop/GD32VW553/V1_MQTT_OK/GD32VW55X_Wifi_BLE_SDK/GD32VW55x_RELEASE_V1.0.2/MSDK/wpa_supplicant/src/ap\pmksa_cache_auth.c **** 		return NULL;
 702              		.loc 1 325 10
 703 0018 0144     		li	s0,0
 704              	.L72:
 326:C:/Users/stapi/OneDrive/Desktop/GD32VW553/V1_MQTT_OK/GD32VW55X_Wifi_BLE_SDK/GD32VW55x_RELEASE_V1.0.2/MSDK/wpa_supplicant/src/ap\pmksa_cache_auth.c **** 
 327:C:/Users/stapi/OneDrive/Desktop/GD32VW553/V1_MQTT_OK/GD32VW55X_Wifi_BLE_SDK/GD32VW55x_RELEASE_V1.0.2/MSDK/wpa_supplicant/src/ap\pmksa_cache_auth.c **** 	if (wpa_key_mgmt_suite_b(akmp) && !kck)
 328:C:/Users/stapi/OneDrive/Desktop/GD32VW553/V1_MQTT_OK/GD32VW55X_Wifi_BLE_SDK/GD32VW55x_RELEASE_V1.0.2/MSDK/wpa_supplicant/src/ap\pmksa_cache_auth.c **** 		return NULL;
 329:C:/Users/stapi/OneDrive/Desktop/GD32VW553/V1_MQTT_OK/GD32VW55X_Wifi_BLE_SDK/GD32VW55x_RELEASE_V1.0.2/MSDK/wpa_supplicant/src/ap\pmksa_cache_auth.c **** 
 330:C:/Users/stapi/OneDrive/Desktop/GD32VW553/V1_MQTT_OK/GD32VW55X_Wifi_BLE_SDK/GD32VW55x_RELEASE_V1.0.2/MSDK/wpa_supplicant/src/ap\pmksa_cache_auth.c **** 	entry = os_zalloc(sizeof(*entry));
 331:C:/Users/stapi/OneDrive/Desktop/GD32VW553/V1_MQTT_OK/GD32VW55X_Wifi_BLE_SDK/GD32VW55x_RELEASE_V1.0.2/MSDK/wpa_supplicant/src/ap\pmksa_cache_auth.c **** 	if (entry == NULL)
 332:C:/Users/stapi/OneDrive/Desktop/GD32VW553/V1_MQTT_OK/GD32VW55X_Wifi_BLE_SDK/GD32VW55x_RELEASE_V1.0.2/MSDK/wpa_supplicant/src/ap\pmksa_cache_auth.c **** 		return NULL;
 333:C:/Users/stapi/OneDrive/Desktop/GD32VW553/V1_MQTT_OK/GD32VW55X_Wifi_BLE_SDK/GD32VW55x_RELEASE_V1.0.2/MSDK/wpa_supplicant/src/ap\pmksa_cache_auth.c **** 	os_memcpy(entry->pmk, pmk, pmk_len);
 334:C:/Users/stapi/OneDrive/Desktop/GD32VW553/V1_MQTT_OK/GD32VW55X_Wifi_BLE_SDK/GD32VW55x_RELEASE_V1.0.2/MSDK/wpa_supplicant/src/ap\pmksa_cache_auth.c **** 	entry->pmk_len = pmk_len;
 335:C:/Users/stapi/OneDrive/Desktop/GD32VW553/V1_MQTT_OK/GD32VW55X_Wifi_BLE_SDK/GD32VW55x_RELEASE_V1.0.2/MSDK/wpa_supplicant/src/ap\pmksa_cache_auth.c **** 	if (pmkid)
 336:C:/Users/stapi/OneDrive/Desktop/GD32VW553/V1_MQTT_OK/GD32VW55X_Wifi_BLE_SDK/GD32VW55x_RELEASE_V1.0.2/MSDK/wpa_supplicant/src/ap\pmksa_cache_auth.c **** 		os_memcpy(entry->pmkid, pmkid, PMKID_LEN);
 337:C:/Users/stapi/OneDrive/Desktop/GD32VW553/V1_MQTT_OK/GD32VW55X_Wifi_BLE_SDK/GD32VW55x_RELEASE_V1.0.2/MSDK/wpa_supplicant/src/ap\pmksa_cache_auth.c **** 	else if (akmp == WPA_KEY_MGMT_IEEE8021X_SUITE_B_192)
 338:C:/Users/stapi/OneDrive/Desktop/GD32VW553/V1_MQTT_OK/GD32VW55X_Wifi_BLE_SDK/GD32VW55x_RELEASE_V1.0.2/MSDK/wpa_supplicant/src/ap\pmksa_cache_auth.c **** 		rsn_pmkid_suite_b_192(kck, kck_len, aa, spa, entry->pmkid);
 339:C:/Users/stapi/OneDrive/Desktop/GD32VW553/V1_MQTT_OK/GD32VW55X_Wifi_BLE_SDK/GD32VW55x_RELEASE_V1.0.2/MSDK/wpa_supplicant/src/ap\pmksa_cache_auth.c **** 	else if (wpa_key_mgmt_suite_b(akmp))
 340:C:/Users/stapi/OneDrive/Desktop/GD32VW553/V1_MQTT_OK/GD32VW55X_Wifi_BLE_SDK/GD32VW55x_RELEASE_V1.0.2/MSDK/wpa_supplicant/src/ap\pmksa_cache_auth.c **** 		rsn_pmkid_suite_b(kck, kck_len, aa, spa, entry->pmkid);
 341:C:/Users/stapi/OneDrive/Desktop/GD32VW553/V1_MQTT_OK/GD32VW55X_Wifi_BLE_SDK/GD32VW55x_RELEASE_V1.0.2/MSDK/wpa_supplicant/src/ap\pmksa_cache_auth.c **** 	else
 342:C:/Users/stapi/OneDrive/Desktop/GD32VW553/V1_MQTT_OK/GD32VW55X_Wifi_BLE_SDK/GD32VW55x_RELEASE_V1.0.2/MSDK/wpa_supplicant/src/ap\pmksa_cache_auth.c **** 		rsn_pmkid(pmk, pmk_len, aa, spa, entry->pmkid, akmp);
 343:C:/Users/stapi/OneDrive/Desktop/GD32VW553/V1_MQTT_OK/GD32VW55X_Wifi_BLE_SDK/GD32VW55x_RELEASE_V1.0.2/MSDK/wpa_supplicant/src/ap\pmksa_cache_auth.c **** 	os_get_reltime(&now);
 344:C:/Users/stapi/OneDrive/Desktop/GD32VW553/V1_MQTT_OK/GD32VW55X_Wifi_BLE_SDK/GD32VW55x_RELEASE_V1.0.2/MSDK/wpa_supplicant/src/ap\pmksa_cache_auth.c **** 	entry->expiration = now.sec;
 345:C:/Users/stapi/OneDrive/Desktop/GD32VW553/V1_MQTT_OK/GD32VW55X_Wifi_BLE_SDK/GD32VW55x_RELEASE_V1.0.2/MSDK/wpa_supplicant/src/ap\pmksa_cache_auth.c **** 	if (session_timeout > 0)
 346:C:/Users/stapi/OneDrive/Desktop/GD32VW553/V1_MQTT_OK/GD32VW55X_Wifi_BLE_SDK/GD32VW55x_RELEASE_V1.0.2/MSDK/wpa_supplicant/src/ap\pmksa_cache_auth.c **** 		entry->expiration += session_timeout;
 347:C:/Users/stapi/OneDrive/Desktop/GD32VW553/V1_MQTT_OK/GD32VW55X_Wifi_BLE_SDK/GD32VW55x_RELEASE_V1.0.2/MSDK/wpa_supplicant/src/ap\pmksa_cache_auth.c **** 	else
 348:C:/Users/stapi/OneDrive/Desktop/GD32VW553/V1_MQTT_OK/GD32VW55X_Wifi_BLE_SDK/GD32VW55x_RELEASE_V1.0.2/MSDK/wpa_supplicant/src/ap\pmksa_cache_auth.c **** 		entry->expiration += dot11RSNAConfigPMKLifetime;
 349:C:/Users/stapi/OneDrive/Desktop/GD32VW553/V1_MQTT_OK/GD32VW55X_Wifi_BLE_SDK/GD32VW55x_RELEASE_V1.0.2/MSDK/wpa_supplicant/src/ap\pmksa_cache_auth.c **** 	entry->akmp = akmp;
 350:C:/Users/stapi/OneDrive/Desktop/GD32VW553/V1_MQTT_OK/GD32VW55X_Wifi_BLE_SDK/GD32VW55x_RELEASE_V1.0.2/MSDK/wpa_supplicant/src/ap\pmksa_cache_auth.c **** 	os_memcpy(entry->spa, spa, ETH_ALEN);
 351:C:/Users/stapi/OneDrive/Desktop/GD32VW553/V1_MQTT_OK/GD32VW55X_Wifi_BLE_SDK/GD32VW55x_RELEASE_V1.0.2/MSDK/wpa_supplicant/src/ap\pmksa_cache_auth.c **** 	pmksa_cache_from_eapol_data(entry, eapol);
 352:C:/Users/stapi/OneDrive/Desktop/GD32VW553/V1_MQTT_OK/GD32VW55X_Wifi_BLE_SDK/GD32VW55x_RELEASE_V1.0.2/MSDK/wpa_supplicant/src/ap\pmksa_cache_auth.c **** 
 353:C:/Users/stapi/OneDrive/Desktop/GD32VW553/V1_MQTT_OK/GD32VW55X_Wifi_BLE_SDK/GD32VW55x_RELEASE_V1.0.2/MSDK/wpa_supplicant/src/ap\pmksa_cache_auth.c **** 	return entry;
 354:C:/Users/stapi/OneDrive/Desktop/GD32VW553/V1_MQTT_OK/GD32VW55X_Wifi_BLE_SDK/GD32VW55x_RELEASE_V1.0.2/MSDK/wpa_supplicant/src/ap\pmksa_cache_auth.c **** }
 705              		.loc 1 354 1
 706 001a 2285     		mv	a0,s0
 707 001c 0561     		addi	sp,sp,32
 708              		.cfi_remember_state
 709              		.cfi_def_cfa_offset 0
 710              	.LVL70:
 711 001e 17030000 		tail	__riscv_restore_10
 711      67000300 
 712              		.cfi_restore 25
 713              		.cfi_restore 24
 714              		.cfi_restore 23
 715              		.cfi_restore 22
 716              		.cfi_restore 21
 717              		.cfi_restore 20
 718              		.cfi_restore 19
 719              		.cfi_restore 18
 720              		.cfi_restore 9
 721              		.cfi_restore 8
 722              		.cfi_restore 1
 723              		.cfi_def_cfa_offset -48
 724              	.LVL71:
 725              	.L73:
 726              		.cfi_restore_state
 727              	.LBB33:
 728              	.LBB34:
 729              		.file 2 "..\\..\\..\\..\\wpa_supplicant\\src/common/defs.h"
   1:..\..\..\..\wpa_supplicant\src/common/defs.h **** /*
   2:..\..\..\..\wpa_supplicant\src/common/defs.h ****  * WPA Supplicant - Common definitions
   3:..\..\..\..\wpa_supplicant\src/common/defs.h ****  * Copyright (c) 2004-2018, Jouni Malinen <j@w1.fi>
   4:..\..\..\..\wpa_supplicant\src/common/defs.h ****  *
   5:..\..\..\..\wpa_supplicant\src/common/defs.h ****  * This software may be distributed under the terms of the BSD license.
   6:..\..\..\..\wpa_supplicant\src/common/defs.h ****  * See README for more details.
   7:..\..\..\..\wpa_supplicant\src/common/defs.h ****  */
   8:..\..\..\..\wpa_supplicant\src/common/defs.h **** 
   9:..\..\..\..\wpa_supplicant\src/common/defs.h **** #ifndef DEFS_H
  10:..\..\..\..\wpa_supplicant\src/common/defs.h **** #define DEFS_H
  11:..\..\..\..\wpa_supplicant\src/common/defs.h **** 
  12:..\..\..\..\wpa_supplicant\src/common/defs.h **** #define WPA_CIPHER_NONE BIT(0)
  13:..\..\..\..\wpa_supplicant\src/common/defs.h **** #define WPA_CIPHER_WEP40 BIT(1)
  14:..\..\..\..\wpa_supplicant\src/common/defs.h **** #define WPA_CIPHER_WEP104 BIT(2)
  15:..\..\..\..\wpa_supplicant\src/common/defs.h **** #define WPA_CIPHER_TKIP BIT(3)
  16:..\..\..\..\wpa_supplicant\src/common/defs.h **** #define WPA_CIPHER_CCMP BIT(4)
  17:..\..\..\..\wpa_supplicant\src/common/defs.h **** #define WPA_CIPHER_AES_128_CMAC BIT(5)
  18:..\..\..\..\wpa_supplicant\src/common/defs.h **** #define WPA_CIPHER_GCMP BIT(6)
  19:..\..\..\..\wpa_supplicant\src/common/defs.h **** #define WPA_CIPHER_SMS4 BIT(7)
  20:..\..\..\..\wpa_supplicant\src/common/defs.h **** #define WPA_CIPHER_GCMP_256 BIT(8)
  21:..\..\..\..\wpa_supplicant\src/common/defs.h **** #define WPA_CIPHER_CCMP_256 BIT(9)
  22:..\..\..\..\wpa_supplicant\src/common/defs.h **** #define WPA_CIPHER_BIP_GMAC_128 BIT(11)
  23:..\..\..\..\wpa_supplicant\src/common/defs.h **** #define WPA_CIPHER_BIP_GMAC_256 BIT(12)
  24:..\..\..\..\wpa_supplicant\src/common/defs.h **** #define WPA_CIPHER_BIP_CMAC_256 BIT(13)
  25:..\..\..\..\wpa_supplicant\src/common/defs.h **** #define WPA_CIPHER_GTK_NOT_USED BIT(14)
  26:..\..\..\..\wpa_supplicant\src/common/defs.h **** 
  27:..\..\..\..\wpa_supplicant\src/common/defs.h **** #define WPA_KEY_MGMT_IEEE8021X BIT(0)
  28:..\..\..\..\wpa_supplicant\src/common/defs.h **** #define WPA_KEY_MGMT_PSK BIT(1)
  29:..\..\..\..\wpa_supplicant\src/common/defs.h **** #define WPA_KEY_MGMT_NONE BIT(2)
  30:..\..\..\..\wpa_supplicant\src/common/defs.h **** #define WPA_KEY_MGMT_IEEE8021X_NO_WPA BIT(3)
  31:..\..\..\..\wpa_supplicant\src/common/defs.h **** #define WPA_KEY_MGMT_WPA_NONE BIT(4)
  32:..\..\..\..\wpa_supplicant\src/common/defs.h **** #define WPA_KEY_MGMT_FT_IEEE8021X BIT(5)
  33:..\..\..\..\wpa_supplicant\src/common/defs.h **** #define WPA_KEY_MGMT_FT_PSK BIT(6)
  34:..\..\..\..\wpa_supplicant\src/common/defs.h **** #define WPA_KEY_MGMT_IEEE8021X_SHA256 BIT(7)
  35:..\..\..\..\wpa_supplicant\src/common/defs.h **** #define WPA_KEY_MGMT_PSK_SHA256 BIT(8)
  36:..\..\..\..\wpa_supplicant\src/common/defs.h **** #define WPA_KEY_MGMT_WPS BIT(9)
  37:..\..\..\..\wpa_supplicant\src/common/defs.h **** #define WPA_KEY_MGMT_SAE BIT(10)
  38:..\..\..\..\wpa_supplicant\src/common/defs.h **** #define WPA_KEY_MGMT_FT_SAE BIT(11)
  39:..\..\..\..\wpa_supplicant\src/common/defs.h **** #define WPA_KEY_MGMT_WAPI_PSK BIT(12)
  40:..\..\..\..\wpa_supplicant\src/common/defs.h **** #define WPA_KEY_MGMT_WAPI_CERT BIT(13)
  41:..\..\..\..\wpa_supplicant\src/common/defs.h **** #define WPA_KEY_MGMT_CCKM BIT(14)
  42:..\..\..\..\wpa_supplicant\src/common/defs.h **** #define WPA_KEY_MGMT_OSEN BIT(15)
  43:..\..\..\..\wpa_supplicant\src/common/defs.h **** #define WPA_KEY_MGMT_IEEE8021X_SUITE_B BIT(16)
  44:..\..\..\..\wpa_supplicant\src/common/defs.h **** #define WPA_KEY_MGMT_IEEE8021X_SUITE_B_192 BIT(17)
  45:..\..\..\..\wpa_supplicant\src/common/defs.h **** #define WPA_KEY_MGMT_FILS_SHA256 BIT(18)
  46:..\..\..\..\wpa_supplicant\src/common/defs.h **** #define WPA_KEY_MGMT_FILS_SHA384 BIT(19)
  47:..\..\..\..\wpa_supplicant\src/common/defs.h **** #define WPA_KEY_MGMT_FT_FILS_SHA256 BIT(20)
  48:..\..\..\..\wpa_supplicant\src/common/defs.h **** #define WPA_KEY_MGMT_FT_FILS_SHA384 BIT(21)
  49:..\..\..\..\wpa_supplicant\src/common/defs.h **** #define WPA_KEY_MGMT_OWE BIT(22)
  50:..\..\..\..\wpa_supplicant\src/common/defs.h **** #define WPA_KEY_MGMT_DPP BIT(23)
  51:..\..\..\..\wpa_supplicant\src/common/defs.h **** #define WPA_KEY_MGMT_FT_IEEE8021X_SHA384 BIT(24)
  52:..\..\..\..\wpa_supplicant\src/common/defs.h **** #define WPA_KEY_MGMT_PASN BIT(25)
  53:..\..\..\..\wpa_supplicant\src/common/defs.h **** 
  54:..\..\..\..\wpa_supplicant\src/common/defs.h **** 
  55:..\..\..\..\wpa_supplicant\src/common/defs.h **** #define WPA_KEY_MGMT_FT (WPA_KEY_MGMT_FT_PSK | \
  56:..\..\..\..\wpa_supplicant\src/common/defs.h **** 			 WPA_KEY_MGMT_FT_IEEE8021X | \
  57:..\..\..\..\wpa_supplicant\src/common/defs.h **** 			 WPA_KEY_MGMT_FT_IEEE8021X_SHA384 | \
  58:..\..\..\..\wpa_supplicant\src/common/defs.h **** 			 WPA_KEY_MGMT_FT_SAE | \
  59:..\..\..\..\wpa_supplicant\src/common/defs.h **** 			 WPA_KEY_MGMT_FT_FILS_SHA256 | \
  60:..\..\..\..\wpa_supplicant\src/common/defs.h **** 			 WPA_KEY_MGMT_FT_FILS_SHA384)
  61:..\..\..\..\wpa_supplicant\src/common/defs.h **** 
  62:..\..\..\..\wpa_supplicant\src/common/defs.h **** static inline int wpa_key_mgmt_wpa_ieee8021x(int akm)
  63:..\..\..\..\wpa_supplicant\src/common/defs.h **** {
  64:..\..\..\..\wpa_supplicant\src/common/defs.h **** 	return !!(akm & (WPA_KEY_MGMT_IEEE8021X |
  65:..\..\..\..\wpa_supplicant\src/common/defs.h **** 			 WPA_KEY_MGMT_FT_IEEE8021X |
  66:..\..\..\..\wpa_supplicant\src/common/defs.h **** 			 WPA_KEY_MGMT_FT_IEEE8021X_SHA384 |
  67:..\..\..\..\wpa_supplicant\src/common/defs.h **** 			 WPA_KEY_MGMT_CCKM |
  68:..\..\..\..\wpa_supplicant\src/common/defs.h **** 			 WPA_KEY_MGMT_OSEN |
  69:..\..\..\..\wpa_supplicant\src/common/defs.h **** 			 WPA_KEY_MGMT_IEEE8021X_SHA256 |
  70:..\..\..\..\wpa_supplicant\src/common/defs.h **** 			 WPA_KEY_MGMT_IEEE8021X_SUITE_B |
  71:..\..\..\..\wpa_supplicant\src/common/defs.h **** 			 WPA_KEY_MGMT_IEEE8021X_SUITE_B_192 |
  72:..\..\..\..\wpa_supplicant\src/common/defs.h **** 			 WPA_KEY_MGMT_FILS_SHA256 |
  73:..\..\..\..\wpa_supplicant\src/common/defs.h **** 			 WPA_KEY_MGMT_FILS_SHA384 |
  74:..\..\..\..\wpa_supplicant\src/common/defs.h **** 			 WPA_KEY_MGMT_FT_FILS_SHA256 |
  75:..\..\..\..\wpa_supplicant\src/common/defs.h **** 			 WPA_KEY_MGMT_FT_FILS_SHA384));
  76:..\..\..\..\wpa_supplicant\src/common/defs.h **** }
  77:..\..\..\..\wpa_supplicant\src/common/defs.h **** 
  78:..\..\..\..\wpa_supplicant\src/common/defs.h **** static inline int wpa_key_mgmt_wpa_psk_no_sae(int akm)
  79:..\..\..\..\wpa_supplicant\src/common/defs.h **** {
  80:..\..\..\..\wpa_supplicant\src/common/defs.h **** 	return !!(akm & (WPA_KEY_MGMT_PSK |
  81:..\..\..\..\wpa_supplicant\src/common/defs.h **** 			 WPA_KEY_MGMT_FT_PSK |
  82:..\..\..\..\wpa_supplicant\src/common/defs.h **** 			 WPA_KEY_MGMT_PSK_SHA256));
  83:..\..\..\..\wpa_supplicant\src/common/defs.h **** }
  84:..\..\..\..\wpa_supplicant\src/common/defs.h **** 
  85:..\..\..\..\wpa_supplicant\src/common/defs.h **** static inline int wpa_key_mgmt_wpa_psk(int akm)
  86:..\..\..\..\wpa_supplicant\src/common/defs.h **** {
  87:..\..\..\..\wpa_supplicant\src/common/defs.h **** 	return !!(akm & (WPA_KEY_MGMT_PSK |
  88:..\..\..\..\wpa_supplicant\src/common/defs.h **** 			 WPA_KEY_MGMT_FT_PSK |
  89:..\..\..\..\wpa_supplicant\src/common/defs.h **** 			 WPA_KEY_MGMT_PSK_SHA256 |
  90:..\..\..\..\wpa_supplicant\src/common/defs.h **** 			 WPA_KEY_MGMT_SAE |
  91:..\..\..\..\wpa_supplicant\src/common/defs.h **** 			 WPA_KEY_MGMT_FT_SAE));
  92:..\..\..\..\wpa_supplicant\src/common/defs.h **** }
  93:..\..\..\..\wpa_supplicant\src/common/defs.h **** 
  94:..\..\..\..\wpa_supplicant\src/common/defs.h **** static inline int wpa_key_mgmt_ft(int akm)
  95:..\..\..\..\wpa_supplicant\src/common/defs.h **** {
  96:..\..\..\..\wpa_supplicant\src/common/defs.h **** 	return !!(akm & WPA_KEY_MGMT_FT);
  97:..\..\..\..\wpa_supplicant\src/common/defs.h **** }
  98:..\..\..\..\wpa_supplicant\src/common/defs.h **** 
  99:..\..\..\..\wpa_supplicant\src/common/defs.h **** static inline int wpa_key_mgmt_only_ft(int akm)
 100:..\..\..\..\wpa_supplicant\src/common/defs.h **** {
 101:..\..\..\..\wpa_supplicant\src/common/defs.h **** 	int ft = wpa_key_mgmt_ft(akm);
 102:..\..\..\..\wpa_supplicant\src/common/defs.h **** 	akm &= ~WPA_KEY_MGMT_FT;
 103:..\..\..\..\wpa_supplicant\src/common/defs.h **** 	return ft && !akm;
 104:..\..\..\..\wpa_supplicant\src/common/defs.h **** }
 105:..\..\..\..\wpa_supplicant\src/common/defs.h **** 
 106:..\..\..\..\wpa_supplicant\src/common/defs.h **** static inline int wpa_key_mgmt_ft_psk(int akm)
 107:..\..\..\..\wpa_supplicant\src/common/defs.h **** {
 108:..\..\..\..\wpa_supplicant\src/common/defs.h **** 	return !!(akm & WPA_KEY_MGMT_FT_PSK);
 109:..\..\..\..\wpa_supplicant\src/common/defs.h **** }
 110:..\..\..\..\wpa_supplicant\src/common/defs.h **** 
 111:..\..\..\..\wpa_supplicant\src/common/defs.h **** static inline int wpa_key_mgmt_sae(int akm)
 112:..\..\..\..\wpa_supplicant\src/common/defs.h **** {
 113:..\..\..\..\wpa_supplicant\src/common/defs.h **** 	return !!(akm & (WPA_KEY_MGMT_SAE |
 114:..\..\..\..\wpa_supplicant\src/common/defs.h **** 			 WPA_KEY_MGMT_FT_SAE));
 115:..\..\..\..\wpa_supplicant\src/common/defs.h **** }
 116:..\..\..\..\wpa_supplicant\src/common/defs.h **** 
 117:..\..\..\..\wpa_supplicant\src/common/defs.h **** static inline int wpa_key_mgmt_fils(int akm)
 118:..\..\..\..\wpa_supplicant\src/common/defs.h **** {
 119:..\..\..\..\wpa_supplicant\src/common/defs.h **** 	return !!(akm & (WPA_KEY_MGMT_FILS_SHA256 |
 120:..\..\..\..\wpa_supplicant\src/common/defs.h **** 			 WPA_KEY_MGMT_FILS_SHA384 |
 121:..\..\..\..\wpa_supplicant\src/common/defs.h **** 			 WPA_KEY_MGMT_FT_FILS_SHA256 |
 122:..\..\..\..\wpa_supplicant\src/common/defs.h **** 			 WPA_KEY_MGMT_FT_FILS_SHA384));
 123:..\..\..\..\wpa_supplicant\src/common/defs.h **** }
 124:..\..\..\..\wpa_supplicant\src/common/defs.h **** 
 125:..\..\..\..\wpa_supplicant\src/common/defs.h **** static inline int wpa_key_mgmt_sha256(int akm)
 126:..\..\..\..\wpa_supplicant\src/common/defs.h **** {
 127:..\..\..\..\wpa_supplicant\src/common/defs.h **** 	return !!(akm & (WPA_KEY_MGMT_PSK_SHA256 |
 128:..\..\..\..\wpa_supplicant\src/common/defs.h **** 			 WPA_KEY_MGMT_IEEE8021X_SHA256 |
 129:..\..\..\..\wpa_supplicant\src/common/defs.h **** 			 WPA_KEY_MGMT_SAE |
 130:..\..\..\..\wpa_supplicant\src/common/defs.h **** 			 WPA_KEY_MGMT_FT_SAE |
 131:..\..\..\..\wpa_supplicant\src/common/defs.h **** 			 WPA_KEY_MGMT_OSEN |
 132:..\..\..\..\wpa_supplicant\src/common/defs.h **** 			 WPA_KEY_MGMT_IEEE8021X_SUITE_B |
 133:..\..\..\..\wpa_supplicant\src/common/defs.h **** 			 WPA_KEY_MGMT_FILS_SHA256 |
 134:..\..\..\..\wpa_supplicant\src/common/defs.h **** 			 WPA_KEY_MGMT_FT_FILS_SHA256));
 135:..\..\..\..\wpa_supplicant\src/common/defs.h **** }
 136:..\..\..\..\wpa_supplicant\src/common/defs.h **** 
 137:..\..\..\..\wpa_supplicant\src/common/defs.h **** static inline int wpa_key_mgmt_sha384(int akm)
 138:..\..\..\..\wpa_supplicant\src/common/defs.h **** {
 139:..\..\..\..\wpa_supplicant\src/common/defs.h **** 	return !!(akm & (WPA_KEY_MGMT_IEEE8021X_SUITE_B_192 |
 140:..\..\..\..\wpa_supplicant\src/common/defs.h **** 			 WPA_KEY_MGMT_FT_IEEE8021X_SHA384 |
 141:..\..\..\..\wpa_supplicant\src/common/defs.h **** 			 WPA_KEY_MGMT_FILS_SHA384 |
 142:..\..\..\..\wpa_supplicant\src/common/defs.h **** 			 WPA_KEY_MGMT_FT_FILS_SHA384));
 143:..\..\..\..\wpa_supplicant\src/common/defs.h **** }
 144:..\..\..\..\wpa_supplicant\src/common/defs.h **** 
 145:..\..\..\..\wpa_supplicant\src/common/defs.h **** static inline int wpa_key_mgmt_suite_b(int akm)
 146:..\..\..\..\wpa_supplicant\src/common/defs.h **** {
 147:..\..\..\..\wpa_supplicant\src/common/defs.h **** 	return !!(akm & (WPA_KEY_MGMT_IEEE8021X_SUITE_B |
 730              		.loc 2 147 16
 731 0026 B70B0300 		li	s7,196608
 732 002a B37B7A01 		and	s7,s4,s7
 733 002e 2A8B     		mv	s6,a0
 734 0030 2E89     		mv	s2,a1
 735 0032 328C     		mv	s8,a2
 736 0034 C289     		mv	s3,a6
 737 0036 C68A     		mv	s5,a7
 738              	.LBE34:
 739              	.LBE33:
 327:C:/Users/stapi/OneDrive/Desktop/GD32VW553/V1_MQTT_OK/GD32VW55X_Wifi_BLE_SDK/GD32VW55x_RELEASE_V1.0.2/MSDK/wpa_supplicant/src/ap\pmksa_cache_auth.c **** 		return NULL;
 740              		.loc 1 327 2 is_stmt 1
 741              	.LVL72:
 742              	.LBB36:
 743              	.LBB35:
 744              		.loc 2 147 2
 745              	.LBE35:
 746              	.LBE36:
 327:C:/Users/stapi/OneDrive/Desktop/GD32VW553/V1_MQTT_OK/GD32VW55X_Wifi_BLE_SDK/GD32VW55x_RELEASE_V1.0.2/MSDK/wpa_supplicant/src/ap\pmksa_cache_auth.c **** 		return NULL;
 747              		.loc 1 327 5 is_stmt 0
 748 0038 63830B00 		beq	s7,zero,.L75
 327:C:/Users/stapi/OneDrive/Desktop/GD32VW553/V1_MQTT_OK/GD32VW55X_Wifi_BLE_SDK/GD32VW55x_RELEASE_V1.0.2/MSDK/wpa_supplicant/src/ap\pmksa_cache_auth.c **** 		return NULL;
 749              		.loc 1 327 33 discriminator 1
 750 003c F1DE     		beq	a3,zero,.L76
 751              	.L75:
 330:C:/Users/stapi/OneDrive/Desktop/GD32VW553/V1_MQTT_OK/GD32VW55X_Wifi_BLE_SDK/GD32VW55x_RELEASE_V1.0.2/MSDK/wpa_supplicant/src/ap\pmksa_cache_auth.c **** 	if (entry == NULL)
 752              		.loc 1 330 2 is_stmt 1
 330:C:/Users/stapi/OneDrive/Desktop/GD32VW553/V1_MQTT_OK/GD32VW55X_Wifi_BLE_SDK/GD32VW55x_RELEASE_V1.0.2/MSDK/wpa_supplicant/src/ap\pmksa_cache_auth.c **** 	if (entry == NULL)
 753              		.loc 1 330 10 is_stmt 0
 754 003e 13058009 		li	a0,152
 755              	.LVL73:
 756 0042 97000000 		call	os_zalloc
 756      E7800000 
 757              	.LVL74:
 758 004a 2A84     		mv	s0,a0
 759              	.LVL75:
 331:C:/Users/stapi/OneDrive/Desktop/GD32VW553/V1_MQTT_OK/GD32VW55X_Wifi_BLE_SDK/GD32VW55x_RELEASE_V1.0.2/MSDK/wpa_supplicant/src/ap\pmksa_cache_auth.c **** 		return NULL;
 760              		.loc 1 331 2 is_stmt 1
 331:C:/Users/stapi/OneDrive/Desktop/GD32VW553/V1_MQTT_OK/GD32VW55X_Wifi_BLE_SDK/GD32VW55x_RELEASE_V1.0.2/MSDK/wpa_supplicant/src/ap\pmksa_cache_auth.c **** 		return NULL;
 761              		.loc 1 331 5 is_stmt 0
 762 004c 71D5     		beq	a0,zero,.L76
 333:C:/Users/stapi/OneDrive/Desktop/GD32VW553/V1_MQTT_OK/GD32VW55X_Wifi_BLE_SDK/GD32VW55x_RELEASE_V1.0.2/MSDK/wpa_supplicant/src/ap\pmksa_cache_auth.c **** 	entry->pmk_len = pmk_len;
 763              		.loc 1 333 2 is_stmt 1
 764 004e 4A86     		mv	a2,s2
 765 0050 DA85     		mv	a1,s6
 766 0052 6105     		addi	a0,a0,24
 767 0054 97000000 		call	os_memcpy
 767      E7800000 
 768              	.LVL76:
 334:C:/Users/stapi/OneDrive/Desktop/GD32VW553/V1_MQTT_OK/GD32VW55X_Wifi_BLE_SDK/GD32VW55x_RELEASE_V1.0.2/MSDK/wpa_supplicant/src/ap\pmksa_cache_auth.c **** 	if (pmkid)
 769              		.loc 1 334 2
 334:C:/Users/stapi/OneDrive/Desktop/GD32VW553/V1_MQTT_OK/GD32VW55X_Wifi_BLE_SDK/GD32VW55x_RELEASE_V1.0.2/MSDK/wpa_supplicant/src/ap\pmksa_cache_auth.c **** 	if (pmkid)
 770              		.loc 1 334 17 is_stmt 0
 771 005c 232C2405 		sw	s2,88(s0)
 335:C:/Users/stapi/OneDrive/Desktop/GD32VW553/V1_MQTT_OK/GD32VW55X_Wifi_BLE_SDK/GD32VW55x_RELEASE_V1.0.2/MSDK/wpa_supplicant/src/ap\pmksa_cache_auth.c **** 		os_memcpy(entry->pmkid, pmkid, PMKID_LEN);
 772              		.loc 1 335 2 is_stmt 1
 335:C:/Users/stapi/OneDrive/Desktop/GD32VW553/V1_MQTT_OK/GD32VW55X_Wifi_BLE_SDK/GD32VW55x_RELEASE_V1.0.2/MSDK/wpa_supplicant/src/ap\pmksa_cache_auth.c **** 		os_memcpy(entry->pmkid, pmkid, PMKID_LEN);
 773              		.loc 1 335 5 is_stmt 0
 774 0060 63060C0C 		beq	s8,zero,.L77
 336:C:/Users/stapi/OneDrive/Desktop/GD32VW553/V1_MQTT_OK/GD32VW55X_Wifi_BLE_SDK/GD32VW55x_RELEASE_V1.0.2/MSDK/wpa_supplicant/src/ap\pmksa_cache_auth.c **** 	else if (akmp == WPA_KEY_MGMT_IEEE8021X_SUITE_B_192)
 775              		.loc 1 336 3 is_stmt 1
 776 0064 4146     		li	a2,16
 777 0066 E285     		mv	a1,s8
 778 0068 13058400 		addi	a0,s0,8
 779 006c 97000000 		call	os_memcpy
 779      E7800000 
 780              	.LVL77:
 781              	.L78:
 343:C:/Users/stapi/OneDrive/Desktop/GD32VW553/V1_MQTT_OK/GD32VW55X_Wifi_BLE_SDK/GD32VW55x_RELEASE_V1.0.2/MSDK/wpa_supplicant/src/ap\pmksa_cache_auth.c **** 	entry->expiration = now.sec;
 782              		.loc 1 343 2
 783 0074 2808     		addi	a0,sp,24
 784 0076 97000000 		call	os_get_reltime
 784      E7800000 
 785              	.LVL78:
 344:C:/Users/stapi/OneDrive/Desktop/GD32VW553/V1_MQTT_OK/GD32VW55X_Wifi_BLE_SDK/GD32VW55x_RELEASE_V1.0.2/MSDK/wpa_supplicant/src/ap\pmksa_cache_auth.c **** 	if (session_timeout > 0)
 786              		.loc 1 344 2
 344:C:/Users/stapi/OneDrive/Desktop/GD32VW553/V1_MQTT_OK/GD32VW55X_Wifi_BLE_SDK/GD32VW55x_RELEASE_V1.0.2/MSDK/wpa_supplicant/src/ap\pmksa_cache_auth.c **** 	if (session_timeout > 0)
 787              		.loc 1 344 25 is_stmt 0
 788 007e E247     		lw	a5,24(sp)
 345:C:/Users/stapi/OneDrive/Desktop/GD32VW553/V1_MQTT_OK/GD32VW55X_Wifi_BLE_SDK/GD32VW55x_RELEASE_V1.0.2/MSDK/wpa_supplicant/src/ap\pmksa_cache_auth.c **** 		entry->expiration += session_timeout;
 789              		.loc 1 345 2 is_stmt 1
 346:C:/Users/stapi/OneDrive/Desktop/GD32VW553/V1_MQTT_OK/GD32VW55X_Wifi_BLE_SDK/GD32VW55x_RELEASE_V1.0.2/MSDK/wpa_supplicant/src/ap\pmksa_cache_auth.c **** 	else
 790              		.loc 1 346 21 is_stmt 0
 791 0080 B3885701 		add	a7,a5,s5
 345:C:/Users/stapi/OneDrive/Desktop/GD32VW553/V1_MQTT_OK/GD32VW55X_Wifi_BLE_SDK/GD32VW55x_RELEASE_V1.0.2/MSDK/wpa_supplicant/src/ap\pmksa_cache_auth.c **** 		entry->expiration += session_timeout;
 792              		.loc 1 345 5
 793 0084 63465001 		bgt	s5,zero,.L80
 348:C:/Users/stapi/OneDrive/Desktop/GD32VW553/V1_MQTT_OK/GD32VW55X_Wifi_BLE_SDK/GD32VW55x_RELEASE_V1.0.2/MSDK/wpa_supplicant/src/ap\pmksa_cache_auth.c **** 	entry->akmp = akmp;
 794              		.loc 1 348 3 is_stmt 1
 348:C:/Users/stapi/OneDrive/Desktop/GD32VW553/V1_MQTT_OK/GD32VW55X_Wifi_BLE_SDK/GD32VW55x_RELEASE_V1.0.2/MSDK/wpa_supplicant/src/ap\pmksa_cache_auth.c **** 	entry->akmp = akmp;
 795              		.loc 1 348 21 is_stmt 0
 796 0088 AD68     		li	a7,45056
 797 008a 9388088C 		addi	a7,a7,-1856
 798 008e BE98     		add	a7,a5,a7
 799              	.L80:
 800 0090 232E1405 		sw	a7,92(s0)
 349:C:/Users/stapi/OneDrive/Desktop/GD32VW553/V1_MQTT_OK/GD32VW55X_Wifi_BLE_SDK/GD32VW55x_RELEASE_V1.0.2/MSDK/wpa_supplicant/src/ap\pmksa_cache_auth.c **** 	os_memcpy(entry->spa, spa, ETH_ALEN);
 801              		.loc 1 349 2 is_stmt 1
 349:C:/Users/stapi/OneDrive/Desktop/GD32VW553/V1_MQTT_OK/GD32VW55X_Wifi_BLE_SDK/GD32VW55x_RELEASE_V1.0.2/MSDK/wpa_supplicant/src/ap\pmksa_cache_auth.c **** 	os_memcpy(entry->spa, spa, ETH_ALEN);
 802              		.loc 1 349 14 is_stmt 0
 803 0094 23204407 		sw	s4,96(s0)
 350:C:/Users/stapi/OneDrive/Desktop/GD32VW553/V1_MQTT_OK/GD32VW55X_Wifi_BLE_SDK/GD32VW55x_RELEASE_V1.0.2/MSDK/wpa_supplicant/src/ap\pmksa_cache_auth.c **** 	pmksa_cache_from_eapol_data(entry, eapol);
 804              		.loc 1 350 2 is_stmt 1
 805 0098 1946     		li	a2,6
 806 009a CE85     		mv	a1,s3
 807 009c 13054406 		addi	a0,s0,100
 808 00a0 97000000 		call	os_memcpy
 808      E7800000 
 809              	.LVL79:
 351:C:/Users/stapi/OneDrive/Desktop/GD32VW553/V1_MQTT_OK/GD32VW55X_Wifi_BLE_SDK/GD32VW55x_RELEASE_V1.0.2/MSDK/wpa_supplicant/src/ap\pmksa_cache_auth.c **** 
 810              		.loc 1 351 2
 811              	.LBB37:
 812              	.LBB38:
 145:C:/Users/stapi/OneDrive/Desktop/GD32VW553/V1_MQTT_OK/GD32VW55X_Wifi_BLE_SDK/GD32VW55x_RELEASE_V1.0.2/MSDK/wpa_supplicant/src/ap\pmksa_cache_auth.c **** 
 813              		.loc 1 145 2
 147:C:/Users/stapi/OneDrive/Desktop/GD32VW553/V1_MQTT_OK/GD32VW55X_Wifi_BLE_SDK/GD32VW55x_RELEASE_V1.0.2/MSDK/wpa_supplicant/src/ap\pmksa_cache_auth.c **** 		return;
 814              		.loc 1 147 2
 147:C:/Users/stapi/OneDrive/Desktop/GD32VW553/V1_MQTT_OK/GD32VW55X_Wifi_BLE_SDK/GD32VW55x_RELEASE_V1.0.2/MSDK/wpa_supplicant/src/ap\pmksa_cache_auth.c **** 		return;
 815              		.loc 1 147 5 is_stmt 0
 816 00a8 ADD8     		beq	s1,zero,.L72
 150:C:/Users/stapi/OneDrive/Desktop/GD32VW553/V1_MQTT_OK/GD32VW55X_Wifi_BLE_SDK/GD32VW55x_RELEASE_V1.0.2/MSDK/wpa_supplicant/src/ap\pmksa_cache_auth.c **** 		entry->identity = os_malloc(eapol->identity_len);
 817              		.loc 1 150 2 is_stmt 1
 150:C:/Users/stapi/OneDrive/Desktop/GD32VW553/V1_MQTT_OK/GD32VW55X_Wifi_BLE_SDK/GD32VW55x_RELEASE_V1.0.2/MSDK/wpa_supplicant/src/ap\pmksa_cache_auth.c **** 		entry->identity = os_malloc(eapol->identity_len);
 818              		.loc 1 150 5 is_stmt 0
 819 00aa 83A7440F 		lw	a5,244(s1)
 820 00ae 95C3     		beq	a5,zero,.L82
 151:C:/Users/stapi/OneDrive/Desktop/GD32VW553/V1_MQTT_OK/GD32VW55X_Wifi_BLE_SDK/GD32VW55x_RELEASE_V1.0.2/MSDK/wpa_supplicant/src/ap\pmksa_cache_auth.c **** 		if (entry->identity) {
 821              		.loc 1 151 3 is_stmt 1
 151:C:/Users/stapi/OneDrive/Desktop/GD32VW553/V1_MQTT_OK/GD32VW55X_Wifi_BLE_SDK/GD32VW55x_RELEASE_V1.0.2/MSDK/wpa_supplicant/src/ap\pmksa_cache_auth.c **** 		if (entry->identity) {
 822              		.loc 1 151 21 is_stmt 0
 823 00b0 03A5840F 		lw	a0,248(s1)
 824 00b4 97000000 		call	os_malloc
 824      E7800000 
 825              	.LVL80:
 151:C:/Users/stapi/OneDrive/Desktop/GD32VW553/V1_MQTT_OK/GD32VW55X_Wifi_BLE_SDK/GD32VW55x_RELEASE_V1.0.2/MSDK/wpa_supplicant/src/ap\pmksa_cache_auth.c **** 		if (entry->identity) {
 826              		.loc 1 151 19
 827 00bc 68D4     		sw	a0,108(s0)
 152:C:/Users/stapi/OneDrive/Desktop/GD32VW553/V1_MQTT_OK/GD32VW55X_Wifi_BLE_SDK/GD32VW55x_RELEASE_V1.0.2/MSDK/wpa_supplicant/src/ap\pmksa_cache_auth.c **** 			entry->identity_len = eapol->identity_len;
 828              		.loc 1 152 3 is_stmt 1
 152:C:/Users/stapi/OneDrive/Desktop/GD32VW553/V1_MQTT_OK/GD32VW55X_Wifi_BLE_SDK/GD32VW55x_RELEASE_V1.0.2/MSDK/wpa_supplicant/src/ap\pmksa_cache_auth.c **** 			entry->identity_len = eapol->identity_len;
 829              		.loc 1 152 6 is_stmt 0
 830 00be 11C9     		beq	a0,zero,.L82
 153:C:/Users/stapi/OneDrive/Desktop/GD32VW553/V1_MQTT_OK/GD32VW55X_Wifi_BLE_SDK/GD32VW55x_RELEASE_V1.0.2/MSDK/wpa_supplicant/src/ap\pmksa_cache_auth.c **** 			os_memcpy(entry->identity, eapol->identity,
 831              		.loc 1 153 4 is_stmt 1
 153:C:/Users/stapi/OneDrive/Desktop/GD32VW553/V1_MQTT_OK/GD32VW55X_Wifi_BLE_SDK/GD32VW55x_RELEASE_V1.0.2/MSDK/wpa_supplicant/src/ap\pmksa_cache_auth.c **** 			os_memcpy(entry->identity, eapol->identity,
 832              		.loc 1 153 31 is_stmt 0
 833 00c0 03A6840F 		lw	a2,248(s1)
 154:C:/Users/stapi/OneDrive/Desktop/GD32VW553/V1_MQTT_OK/GD32VW55X_Wifi_BLE_SDK/GD32VW55x_RELEASE_V1.0.2/MSDK/wpa_supplicant/src/ap\pmksa_cache_auth.c **** 				  eapol->identity_len);
 834              		.loc 1 154 4
 835 00c4 83A5440F 		lw	a1,244(s1)
 153:C:/Users/stapi/OneDrive/Desktop/GD32VW553/V1_MQTT_OK/GD32VW55X_Wifi_BLE_SDK/GD32VW55x_RELEASE_V1.0.2/MSDK/wpa_supplicant/src/ap\pmksa_cache_auth.c **** 			os_memcpy(entry->identity, eapol->identity,
 836              		.loc 1 153 24
 837 00c8 30D8     		sw	a2,112(s0)
 154:C:/Users/stapi/OneDrive/Desktop/GD32VW553/V1_MQTT_OK/GD32VW55X_Wifi_BLE_SDK/GD32VW55x_RELEASE_V1.0.2/MSDK/wpa_supplicant/src/ap\pmksa_cache_auth.c **** 				  eapol->identity_len);
 838              		.loc 1 154 4 is_stmt 1
 839 00ca 97000000 		call	os_memcpy
 839      E7800000 
 840              	.LVL81:
 841              	.L82:
 159:C:/Users/stapi/OneDrive/Desktop/GD32VW553/V1_MQTT_OK/GD32VW55X_Wifi_BLE_SDK/GD32VW55x_RELEASE_V1.0.2/MSDK/wpa_supplicant/src/ap\pmksa_cache_auth.c **** 		entry->cui = wpabuf_dup(eapol->radius_cui);
 842              		.loc 1 159 2
 159:C:/Users/stapi/OneDrive/Desktop/GD32VW553/V1_MQTT_OK/GD32VW55X_Wifi_BLE_SDK/GD32VW55x_RELEASE_V1.0.2/MSDK/wpa_supplicant/src/ap\pmksa_cache_auth.c **** 		entry->cui = wpabuf_dup(eapol->radius_cui);
 843              		.loc 1 159 11 is_stmt 0
 844 00d2 03A58410 		lw	a0,264(s1)
 159:C:/Users/stapi/OneDrive/Desktop/GD32VW553/V1_MQTT_OK/GD32VW55X_Wifi_BLE_SDK/GD32VW55x_RELEASE_V1.0.2/MSDK/wpa_supplicant/src/ap\pmksa_cache_auth.c **** 		entry->cui = wpabuf_dup(eapol->radius_cui);
 845              		.loc 1 159 5
 846 00d6 11C5     		beq	a0,zero,.L84
 160:C:/Users/stapi/OneDrive/Desktop/GD32VW553/V1_MQTT_OK/GD32VW55X_Wifi_BLE_SDK/GD32VW55x_RELEASE_V1.0.2/MSDK/wpa_supplicant/src/ap\pmksa_cache_auth.c **** 
 847              		.loc 1 160 3 is_stmt 1
 160:C:/Users/stapi/OneDrive/Desktop/GD32VW553/V1_MQTT_OK/GD32VW55X_Wifi_BLE_SDK/GD32VW55x_RELEASE_V1.0.2/MSDK/wpa_supplicant/src/ap\pmksa_cache_auth.c **** 
 848              		.loc 1 160 16 is_stmt 0
 849 00d8 97000000 		call	wpabuf_dup
 849      E7800000 
 850              	.LVL82:
 160:C:/Users/stapi/OneDrive/Desktop/GD32VW553/V1_MQTT_OK/GD32VW55X_Wifi_BLE_SDK/GD32VW55x_RELEASE_V1.0.2/MSDK/wpa_supplicant/src/ap\pmksa_cache_auth.c **** 
 851              		.loc 1 160 14
 852 00e0 68D8     		sw	a0,116(s0)
 853              	.L84:
 166:C:/Users/stapi/OneDrive/Desktop/GD32VW553/V1_MQTT_OK/GD32VW55X_Wifi_BLE_SDK/GD32VW55x_RELEASE_V1.0.2/MSDK/wpa_supplicant/src/ap\pmksa_cache_auth.c **** 
 854              		.loc 1 166 2 is_stmt 1
 166:C:/Users/stapi/OneDrive/Desktop/GD32VW553/V1_MQTT_OK/GD32VW55X_Wifi_BLE_SDK/GD32VW55x_RELEASE_V1.0.2/MSDK/wpa_supplicant/src/ap\pmksa_cache_auth.c **** 
 855              		.loc 1 166 26 is_stmt 0
 856 00e2 83C7C40F 		lbu	a5,252(s1)
 857 00e6 2300F408 		sb	a5,128(s0)
 168:C:/Users/stapi/OneDrive/Desktop/GD32VW553/V1_MQTT_OK/GD32VW55X_Wifi_BLE_SDK/GD32VW55x_RELEASE_V1.0.2/MSDK/wpa_supplicant/src/ap\pmksa_cache_auth.c **** 	if (vlan_desc && vlan_desc->notempty) {
 858              		.loc 1 168 2 is_stmt 1
 168:C:/Users/stapi/OneDrive/Desktop/GD32VW553/V1_MQTT_OK/GD32VW55X_Wifi_BLE_SDK/GD32VW55x_RELEASE_V1.0.2/MSDK/wpa_supplicant/src/ap\pmksa_cache_auth.c **** 	if (vlan_desc && vlan_desc->notempty) {
 859              		.loc 1 168 12 is_stmt 0
 860 00ea 83A78411 		lw	a5,280(s1)
 861 00ee 83A5870A 		lw	a1,168(a5)
 862              	.LVL83:
 169:C:/Users/stapi/OneDrive/Desktop/GD32VW553/V1_MQTT_OK/GD32VW55X_Wifi_BLE_SDK/GD32VW55x_RELEASE_V1.0.2/MSDK/wpa_supplicant/src/ap\pmksa_cache_auth.c **** 		entry->vlan_desc = os_zalloc(sizeof(struct vlan_description));
 863              		.loc 1 169 2 is_stmt 1
 169:C:/Users/stapi/OneDrive/Desktop/GD32VW553/V1_MQTT_OK/GD32VW55X_Wifi_BLE_SDK/GD32VW55x_RELEASE_V1.0.2/MSDK/wpa_supplicant/src/ap\pmksa_cache_auth.c **** 		entry->vlan_desc = os_zalloc(sizeof(struct vlan_description));
 864              		.loc 1 169 5 is_stmt 0
 865 00f2 B9CD     		beq	a1,zero,.L85
 169:C:/Users/stapi/OneDrive/Desktop/GD32VW553/V1_MQTT_OK/GD32VW55X_Wifi_BLE_SDK/GD32VW55x_RELEASE_V1.0.2/MSDK/wpa_supplicant/src/ap\pmksa_cache_auth.c **** 		entry->vlan_desc = os_zalloc(sizeof(struct vlan_description));
 866              		.loc 1 169 16
 867 00f4 9C41     		lw	a5,0(a1)
 868 00f6 A9CF     		beq	a5,zero,.L85
 170:C:/Users/stapi/OneDrive/Desktop/GD32VW553/V1_MQTT_OK/GD32VW55X_Wifi_BLE_SDK/GD32VW55x_RELEASE_V1.0.2/MSDK/wpa_supplicant/src/ap\pmksa_cache_auth.c **** 		if (entry->vlan_desc)
 869              		.loc 1 170 22
 870 00f8 13058008 		li	a0,136
 871 00fc 2EC6     		sw	a1,12(sp)
 170:C:/Users/stapi/OneDrive/Desktop/GD32VW553/V1_MQTT_OK/GD32VW55X_Wifi_BLE_SDK/GD32VW55x_RELEASE_V1.0.2/MSDK/wpa_supplicant/src/ap\pmksa_cache_auth.c **** 		if (entry->vlan_desc)
 872              		.loc 1 170 3 is_stmt 1
 170:C:/Users/stapi/OneDrive/Desktop/GD32VW553/V1_MQTT_OK/GD32VW55X_Wifi_BLE_SDK/GD32VW55x_RELEASE_V1.0.2/MSDK/wpa_supplicant/src/ap\pmksa_cache_auth.c **** 		if (entry->vlan_desc)
 873              		.loc 1 170 22 is_stmt 0
 874 00fe 97000000 		call	os_zalloc
 874      E7800000 
 875              	.LVL84:
 170:C:/Users/stapi/OneDrive/Desktop/GD32VW553/V1_MQTT_OK/GD32VW55X_Wifi_BLE_SDK/GD32VW55x_RELEASE_V1.0.2/MSDK/wpa_supplicant/src/ap\pmksa_cache_auth.c **** 		if (entry->vlan_desc)
 876              		.loc 1 170 20
 877 0106 2322A408 		sw	a0,132(s0)
 171:C:/Users/stapi/OneDrive/Desktop/GD32VW553/V1_MQTT_OK/GD32VW55X_Wifi_BLE_SDK/GD32VW55x_RELEASE_V1.0.2/MSDK/wpa_supplicant/src/ap\pmksa_cache_auth.c **** 			*entry->vlan_desc = *vlan_desc;
 878              		.loc 1 171 3 is_stmt 1
 171:C:/Users/stapi/OneDrive/Desktop/GD32VW553/V1_MQTT_OK/GD32VW55X_Wifi_BLE_SDK/GD32VW55x_RELEASE_V1.0.2/MSDK/wpa_supplicant/src/ap\pmksa_cache_auth.c **** 			*entry->vlan_desc = *vlan_desc;
 879              		.loc 1 171 6 is_stmt 0
 880 010a 01C9     		beq	a0,zero,.L86
 172:C:/Users/stapi/OneDrive/Desktop/GD32VW553/V1_MQTT_OK/GD32VW55X_Wifi_BLE_SDK/GD32VW55x_RELEASE_V1.0.2/MSDK/wpa_supplicant/src/ap\pmksa_cache_auth.c **** 	} else {
 881              		.loc 1 172 4 is_stmt 1
 172:C:/Users/stapi/OneDrive/Desktop/GD32VW553/V1_MQTT_OK/GD32VW55X_Wifi_BLE_SDK/GD32VW55x_RELEASE_V1.0.2/MSDK/wpa_supplicant/src/ap\pmksa_cache_auth.c **** 	} else {
 882              		.loc 1 172 22 is_stmt 0
 883 010c B245     		lw	a1,12(sp)
 884 010e 13068008 		li	a2,136
 885 0112 97000000 		call	memcpy
 885      E7800000 
 886              	.LVL85:
 887              	.L86:
 177:C:/Users/stapi/OneDrive/Desktop/GD32VW553/V1_MQTT_OK/GD32VW55X_Wifi_BLE_SDK/GD32VW55x_RELEASE_V1.0.2/MSDK/wpa_supplicant/src/ap\pmksa_cache_auth.c **** }
 888              		.loc 1 177 2 is_stmt 1
 177:C:/Users/stapi/OneDrive/Desktop/GD32VW553/V1_MQTT_OK/GD32VW55X_Wifi_BLE_SDK/GD32VW55x_RELEASE_V1.0.2/MSDK/wpa_supplicant/src/ap\pmksa_cache_auth.c **** }
 889              		.loc 1 177 31 is_stmt 0
 890 011a 03A70412 		lw	a4,288(s1)
 891 011e 83A74412 		lw	a5,292(s1)
 892 0122 2328E408 		sw	a4,144(s0)
 893 0126 232AF408 		sw	a5,148(s0)
 894              	.LVL86:
 895 012a C5BD     		j	.L72
 896              	.L77:
 897              	.LBE38:
 898              	.LBE37:
 337:C:/Users/stapi/OneDrive/Desktop/GD32VW553/V1_MQTT_OK/GD32VW55X_Wifi_BLE_SDK/GD32VW55x_RELEASE_V1.0.2/MSDK/wpa_supplicant/src/ap\pmksa_cache_auth.c **** 		rsn_pmkid_suite_b_192(kck, kck_len, aa, spa, entry->pmkid);
 899              		.loc 1 337 7 is_stmt 1
 337:C:/Users/stapi/OneDrive/Desktop/GD32VW553/V1_MQTT_OK/GD32VW55X_Wifi_BLE_SDK/GD32VW55x_RELEASE_V1.0.2/MSDK/wpa_supplicant/src/ap\pmksa_cache_auth.c **** 		rsn_pmkid_suite_b_192(kck, kck_len, aa, spa, entry->pmkid);
 900              		.loc 1 337 10 is_stmt 0
 901 012c B7070200 		li	a5,131072
 902 0130 E302FAF4 		beq	s4,a5,.L78
 339:C:/Users/stapi/OneDrive/Desktop/GD32VW553/V1_MQTT_OK/GD32VW55X_Wifi_BLE_SDK/GD32VW55x_RELEASE_V1.0.2/MSDK/wpa_supplicant/src/ap\pmksa_cache_auth.c **** 		rsn_pmkid_suite_b(kck, kck_len, aa, spa, entry->pmkid);
 903              		.loc 1 339 7 is_stmt 1
 904              	.LVL87:
 905              		.loc 2 147 2
 339:C:/Users/stapi/OneDrive/Desktop/GD32VW553/V1_MQTT_OK/GD32VW55X_Wifi_BLE_SDK/GD32VW55x_RELEASE_V1.0.2/MSDK/wpa_supplicant/src/ap\pmksa_cache_auth.c **** 		rsn_pmkid_suite_b(kck, kck_len, aa, spa, entry->pmkid);
 906              		.loc 1 339 10 is_stmt 0
 907 0134 E3900BF4 		bne	s7,zero,.L78
 342:C:/Users/stapi/OneDrive/Desktop/GD32VW553/V1_MQTT_OK/GD32VW55X_Wifi_BLE_SDK/GD32VW55x_RELEASE_V1.0.2/MSDK/wpa_supplicant/src/ap\pmksa_cache_auth.c **** 	os_get_reltime(&now);
 908              		.loc 1 342 3 is_stmt 1
 909 0138 D287     		mv	a5,s4
 910 013a 13078400 		addi	a4,s0,8
 911 013e CE86     		mv	a3,s3
 912 0140 6686     		mv	a2,s9
 913 0142 CA85     		mv	a1,s2
 914 0144 5A85     		mv	a0,s6
 915 0146 97000000 		call	rsn_pmkid
 915      E7800000 
 916              	.LVL88:
 917 014e 1DB7     		j	.L78
 918              	.LVL89:
 919              	.L85:
 920              	.LBB40:
 921              	.LBB39:
 174:C:/Users/stapi/OneDrive/Desktop/GD32VW553/V1_MQTT_OK/GD32VW55X_Wifi_BLE_SDK/GD32VW55x_RELEASE_V1.0.2/MSDK/wpa_supplicant/src/ap\pmksa_cache_auth.c **** 	}
 922              		.loc 1 174 3
 174:C:/Users/stapi/OneDrive/Desktop/GD32VW553/V1_MQTT_OK/GD32VW55X_Wifi_BLE_SDK/GD32VW55x_RELEASE_V1.0.2/MSDK/wpa_supplicant/src/ap\pmksa_cache_auth.c **** 	}
 923              		.loc 1 174 20 is_stmt 0
 924 0150 23220408 		sw	zero,132(s0)
 925 0154 D9B7     		j	.L86
 926              	.LBE39:
 927              	.LBE40:
 928              		.cfi_endproc
 929              	.LFE145:
 931              		.section	.text.pmksa_cache_add_okc,"ax",@progbits
 932              		.align	1
 933              		.globl	pmksa_cache_add_okc
 935              	pmksa_cache_add_okc:
 936              	.LFB147:
 355:C:/Users/stapi/OneDrive/Desktop/GD32VW553/V1_MQTT_OK/GD32VW55X_Wifi_BLE_SDK/GD32VW55x_RELEASE_V1.0.2/MSDK/wpa_supplicant/src/ap\pmksa_cache_auth.c **** 
 356:C:/Users/stapi/OneDrive/Desktop/GD32VW553/V1_MQTT_OK/GD32VW55X_Wifi_BLE_SDK/GD32VW55x_RELEASE_V1.0.2/MSDK/wpa_supplicant/src/ap\pmksa_cache_auth.c **** 
 357:C:/Users/stapi/OneDrive/Desktop/GD32VW553/V1_MQTT_OK/GD32VW55X_Wifi_BLE_SDK/GD32VW55x_RELEASE_V1.0.2/MSDK/wpa_supplicant/src/ap\pmksa_cache_auth.c **** /**
 358:C:/Users/stapi/OneDrive/Desktop/GD32VW553/V1_MQTT_OK/GD32VW55X_Wifi_BLE_SDK/GD32VW55x_RELEASE_V1.0.2/MSDK/wpa_supplicant/src/ap\pmksa_cache_auth.c ****  * pmksa_cache_auth_add_entry - Add a PMKSA cache entry
 359:C:/Users/stapi/OneDrive/Desktop/GD32VW553/V1_MQTT_OK/GD32VW55X_Wifi_BLE_SDK/GD32VW55x_RELEASE_V1.0.2/MSDK/wpa_supplicant/src/ap\pmksa_cache_auth.c ****  * @pmksa: Pointer to PMKSA cache data from pmksa_cache_auth_init()
 360:C:/Users/stapi/OneDrive/Desktop/GD32VW553/V1_MQTT_OK/GD32VW55X_Wifi_BLE_SDK/GD32VW55x_RELEASE_V1.0.2/MSDK/wpa_supplicant/src/ap\pmksa_cache_auth.c ****  * @entry: Pointer to PMKSA cache entry
 361:C:/Users/stapi/OneDrive/Desktop/GD32VW553/V1_MQTT_OK/GD32VW55X_Wifi_BLE_SDK/GD32VW55x_RELEASE_V1.0.2/MSDK/wpa_supplicant/src/ap\pmksa_cache_auth.c ****  *
 362:C:/Users/stapi/OneDrive/Desktop/GD32VW553/V1_MQTT_OK/GD32VW55X_Wifi_BLE_SDK/GD32VW55x_RELEASE_V1.0.2/MSDK/wpa_supplicant/src/ap\pmksa_cache_auth.c ****  * This function adds PMKSA cache entry to the PMKSA cache. If an old entry is
 363:C:/Users/stapi/OneDrive/Desktop/GD32VW553/V1_MQTT_OK/GD32VW55X_Wifi_BLE_SDK/GD32VW55x_RELEASE_V1.0.2/MSDK/wpa_supplicant/src/ap\pmksa_cache_auth.c ****  * already in the cache for the same Supplicant, this entry will be replaced
 364:C:/Users/stapi/OneDrive/Desktop/GD32VW553/V1_MQTT_OK/GD32VW55X_Wifi_BLE_SDK/GD32VW55x_RELEASE_V1.0.2/MSDK/wpa_supplicant/src/ap\pmksa_cache_auth.c ****  * with the new entry. PMKID will be calculated based on the PMK.
 365:C:/Users/stapi/OneDrive/Desktop/GD32VW553/V1_MQTT_OK/GD32VW55X_Wifi_BLE_SDK/GD32VW55x_RELEASE_V1.0.2/MSDK/wpa_supplicant/src/ap\pmksa_cache_auth.c ****  */
 366:C:/Users/stapi/OneDrive/Desktop/GD32VW553/V1_MQTT_OK/GD32VW55X_Wifi_BLE_SDK/GD32VW55x_RELEASE_V1.0.2/MSDK/wpa_supplicant/src/ap\pmksa_cache_auth.c **** int pmksa_cache_auth_add_entry(struct rsn_pmksa_cache *pmksa,
 367:C:/Users/stapi/OneDrive/Desktop/GD32VW553/V1_MQTT_OK/GD32VW55X_Wifi_BLE_SDK/GD32VW55x_RELEASE_V1.0.2/MSDK/wpa_supplicant/src/ap\pmksa_cache_auth.c **** 			       struct rsn_pmksa_cache_entry *entry)
 368:C:/Users/stapi/OneDrive/Desktop/GD32VW553/V1_MQTT_OK/GD32VW55X_Wifi_BLE_SDK/GD32VW55x_RELEASE_V1.0.2/MSDK/wpa_supplicant/src/ap\pmksa_cache_auth.c **** {
 369:C:/Users/stapi/OneDrive/Desktop/GD32VW553/V1_MQTT_OK/GD32VW55X_Wifi_BLE_SDK/GD32VW55x_RELEASE_V1.0.2/MSDK/wpa_supplicant/src/ap\pmksa_cache_auth.c **** 	struct rsn_pmksa_cache_entry *pos;
 370:C:/Users/stapi/OneDrive/Desktop/GD32VW553/V1_MQTT_OK/GD32VW55X_Wifi_BLE_SDK/GD32VW55x_RELEASE_V1.0.2/MSDK/wpa_supplicant/src/ap\pmksa_cache_auth.c **** 
 371:C:/Users/stapi/OneDrive/Desktop/GD32VW553/V1_MQTT_OK/GD32VW55X_Wifi_BLE_SDK/GD32VW55x_RELEASE_V1.0.2/MSDK/wpa_supplicant/src/ap\pmksa_cache_auth.c **** 	if (entry == NULL)
 372:C:/Users/stapi/OneDrive/Desktop/GD32VW553/V1_MQTT_OK/GD32VW55X_Wifi_BLE_SDK/GD32VW55x_RELEASE_V1.0.2/MSDK/wpa_supplicant/src/ap\pmksa_cache_auth.c **** 		return -1;
 373:C:/Users/stapi/OneDrive/Desktop/GD32VW553/V1_MQTT_OK/GD32VW55X_Wifi_BLE_SDK/GD32VW55x_RELEASE_V1.0.2/MSDK/wpa_supplicant/src/ap\pmksa_cache_auth.c **** 
 374:C:/Users/stapi/OneDrive/Desktop/GD32VW553/V1_MQTT_OK/GD32VW55X_Wifi_BLE_SDK/GD32VW55x_RELEASE_V1.0.2/MSDK/wpa_supplicant/src/ap\pmksa_cache_auth.c **** 	/* Replace an old entry for the same STA (if found) with the new entry
 375:C:/Users/stapi/OneDrive/Desktop/GD32VW553/V1_MQTT_OK/GD32VW55X_Wifi_BLE_SDK/GD32VW55x_RELEASE_V1.0.2/MSDK/wpa_supplicant/src/ap\pmksa_cache_auth.c **** 	 */
 376:C:/Users/stapi/OneDrive/Desktop/GD32VW553/V1_MQTT_OK/GD32VW55X_Wifi_BLE_SDK/GD32VW55x_RELEASE_V1.0.2/MSDK/wpa_supplicant/src/ap\pmksa_cache_auth.c **** 	pos = pmksa_cache_auth_get(pmksa, entry->spa, NULL);
 377:C:/Users/stapi/OneDrive/Desktop/GD32VW553/V1_MQTT_OK/GD32VW55X_Wifi_BLE_SDK/GD32VW55x_RELEASE_V1.0.2/MSDK/wpa_supplicant/src/ap\pmksa_cache_auth.c **** 	if (pos)
 378:C:/Users/stapi/OneDrive/Desktop/GD32VW553/V1_MQTT_OK/GD32VW55X_Wifi_BLE_SDK/GD32VW55x_RELEASE_V1.0.2/MSDK/wpa_supplicant/src/ap\pmksa_cache_auth.c **** 		pmksa_cache_free_entry(pmksa, pos);
 379:C:/Users/stapi/OneDrive/Desktop/GD32VW553/V1_MQTT_OK/GD32VW55X_Wifi_BLE_SDK/GD32VW55x_RELEASE_V1.0.2/MSDK/wpa_supplicant/src/ap\pmksa_cache_auth.c **** 
 380:C:/Users/stapi/OneDrive/Desktop/GD32VW553/V1_MQTT_OK/GD32VW55X_Wifi_BLE_SDK/GD32VW55x_RELEASE_V1.0.2/MSDK/wpa_supplicant/src/ap\pmksa_cache_auth.c **** 	if (pmksa->pmksa_count >= pmksa_cache_max_entries && pmksa->pmksa) {
 381:C:/Users/stapi/OneDrive/Desktop/GD32VW553/V1_MQTT_OK/GD32VW55X_Wifi_BLE_SDK/GD32VW55x_RELEASE_V1.0.2/MSDK/wpa_supplicant/src/ap\pmksa_cache_auth.c **** 		/* Remove the oldest entry to make room for the new entry */
 382:C:/Users/stapi/OneDrive/Desktop/GD32VW553/V1_MQTT_OK/GD32VW55X_Wifi_BLE_SDK/GD32VW55x_RELEASE_V1.0.2/MSDK/wpa_supplicant/src/ap\pmksa_cache_auth.c **** 		wpa_printf(MSG_DEBUG, "RSN: removed the oldest PMKSA cache "
 383:C:/Users/stapi/OneDrive/Desktop/GD32VW553/V1_MQTT_OK/GD32VW55X_Wifi_BLE_SDK/GD32VW55x_RELEASE_V1.0.2/MSDK/wpa_supplicant/src/ap\pmksa_cache_auth.c **** 			   "entry (for " MACSTR ") to make room for new one",
 384:C:/Users/stapi/OneDrive/Desktop/GD32VW553/V1_MQTT_OK/GD32VW55X_Wifi_BLE_SDK/GD32VW55x_RELEASE_V1.0.2/MSDK/wpa_supplicant/src/ap\pmksa_cache_auth.c **** 			   MAC2STR(pmksa->pmksa->spa));
 385:C:/Users/stapi/OneDrive/Desktop/GD32VW553/V1_MQTT_OK/GD32VW55X_Wifi_BLE_SDK/GD32VW55x_RELEASE_V1.0.2/MSDK/wpa_supplicant/src/ap\pmksa_cache_auth.c **** 		pmksa_cache_free_entry(pmksa, pmksa->pmksa);
 386:C:/Users/stapi/OneDrive/Desktop/GD32VW553/V1_MQTT_OK/GD32VW55X_Wifi_BLE_SDK/GD32VW55x_RELEASE_V1.0.2/MSDK/wpa_supplicant/src/ap\pmksa_cache_auth.c **** 	}
 387:C:/Users/stapi/OneDrive/Desktop/GD32VW553/V1_MQTT_OK/GD32VW55X_Wifi_BLE_SDK/GD32VW55x_RELEASE_V1.0.2/MSDK/wpa_supplicant/src/ap\pmksa_cache_auth.c **** 
 388:C:/Users/stapi/OneDrive/Desktop/GD32VW553/V1_MQTT_OK/GD32VW55X_Wifi_BLE_SDK/GD32VW55x_RELEASE_V1.0.2/MSDK/wpa_supplicant/src/ap\pmksa_cache_auth.c **** 	pmksa_cache_link_entry(pmksa, entry);
 389:C:/Users/stapi/OneDrive/Desktop/GD32VW553/V1_MQTT_OK/GD32VW55X_Wifi_BLE_SDK/GD32VW55x_RELEASE_V1.0.2/MSDK/wpa_supplicant/src/ap\pmksa_cache_auth.c **** 
 390:C:/Users/stapi/OneDrive/Desktop/GD32VW553/V1_MQTT_OK/GD32VW55X_Wifi_BLE_SDK/GD32VW55x_RELEASE_V1.0.2/MSDK/wpa_supplicant/src/ap\pmksa_cache_auth.c **** 	return 0;
 391:C:/Users/stapi/OneDrive/Desktop/GD32VW553/V1_MQTT_OK/GD32VW55X_Wifi_BLE_SDK/GD32VW55x_RELEASE_V1.0.2/MSDK/wpa_supplicant/src/ap\pmksa_cache_auth.c **** }
 392:C:/Users/stapi/OneDrive/Desktop/GD32VW553/V1_MQTT_OK/GD32VW55X_Wifi_BLE_SDK/GD32VW55x_RELEASE_V1.0.2/MSDK/wpa_supplicant/src/ap\pmksa_cache_auth.c **** 
 393:C:/Users/stapi/OneDrive/Desktop/GD32VW553/V1_MQTT_OK/GD32VW55X_Wifi_BLE_SDK/GD32VW55x_RELEASE_V1.0.2/MSDK/wpa_supplicant/src/ap\pmksa_cache_auth.c **** 
 394:C:/Users/stapi/OneDrive/Desktop/GD32VW553/V1_MQTT_OK/GD32VW55X_Wifi_BLE_SDK/GD32VW55x_RELEASE_V1.0.2/MSDK/wpa_supplicant/src/ap\pmksa_cache_auth.c **** struct rsn_pmksa_cache_entry *
 395:C:/Users/stapi/OneDrive/Desktop/GD32VW553/V1_MQTT_OK/GD32VW55X_Wifi_BLE_SDK/GD32VW55x_RELEASE_V1.0.2/MSDK/wpa_supplicant/src/ap\pmksa_cache_auth.c **** pmksa_cache_add_okc(struct rsn_pmksa_cache *pmksa,
 396:C:/Users/stapi/OneDrive/Desktop/GD32VW553/V1_MQTT_OK/GD32VW55X_Wifi_BLE_SDK/GD32VW55x_RELEASE_V1.0.2/MSDK/wpa_supplicant/src/ap\pmksa_cache_auth.c **** 		    const struct rsn_pmksa_cache_entry *old_entry,
 397:C:/Users/stapi/OneDrive/Desktop/GD32VW553/V1_MQTT_OK/GD32VW55X_Wifi_BLE_SDK/GD32VW55x_RELEASE_V1.0.2/MSDK/wpa_supplicant/src/ap\pmksa_cache_auth.c **** 		    const u8 *aa, const u8 *pmkid)
 398:C:/Users/stapi/OneDrive/Desktop/GD32VW553/V1_MQTT_OK/GD32VW55X_Wifi_BLE_SDK/GD32VW55x_RELEASE_V1.0.2/MSDK/wpa_supplicant/src/ap\pmksa_cache_auth.c **** {
 937              		.loc 1 398 1 is_stmt 1
 938              		.cfi_startproc
 939              	.LVL90:
 940 0000 17030000 		call	t0,__riscv_save_3
 940      E7020300 
 941              		.cfi_offset 18, -16
 942              		.cfi_offset 9, -12
 943              		.cfi_offset 8, -8
 944              		.cfi_offset 1, -4
 945              		.cfi_def_cfa_offset 16
 399:C:/Users/stapi/OneDrive/Desktop/GD32VW553/V1_MQTT_OK/GD32VW55X_Wifi_BLE_SDK/GD32VW55x_RELEASE_V1.0.2/MSDK/wpa_supplicant/src/ap\pmksa_cache_auth.c **** 	struct rsn_pmksa_cache_entry *entry;
 946              		.loc 1 399 2
 400:C:/Users/stapi/OneDrive/Desktop/GD32VW553/V1_MQTT_OK/GD32VW55X_Wifi_BLE_SDK/GD32VW55x_RELEASE_V1.0.2/MSDK/wpa_supplicant/src/ap\pmksa_cache_auth.c **** 
 401:C:/Users/stapi/OneDrive/Desktop/GD32VW553/V1_MQTT_OK/GD32VW55X_Wifi_BLE_SDK/GD32VW55x_RELEASE_V1.0.2/MSDK/wpa_supplicant/src/ap\pmksa_cache_auth.c **** 	entry = os_zalloc(sizeof(*entry));
 947              		.loc 1 401 2
 398:C:/Users/stapi/OneDrive/Desktop/GD32VW553/V1_MQTT_OK/GD32VW55X_Wifi_BLE_SDK/GD32VW55x_RELEASE_V1.0.2/MSDK/wpa_supplicant/src/ap\pmksa_cache_auth.c **** 	struct rsn_pmksa_cache_entry *entry;
 948              		.loc 1 398 1 is_stmt 0
 949 0008 4111     		addi	sp,sp,-16
 950              		.cfi_def_cfa_offset 32
 398:C:/Users/stapi/OneDrive/Desktop/GD32VW553/V1_MQTT_OK/GD32VW55X_Wifi_BLE_SDK/GD32VW55x_RELEASE_V1.0.2/MSDK/wpa_supplicant/src/ap\pmksa_cache_auth.c **** 	struct rsn_pmksa_cache_entry *entry;
 951              		.loc 1 398 1
 952 000a 2A89     		mv	s2,a0
 953              		.loc 1 401 10
 954 000c 13058009 		li	a0,152
 955              	.LVL91:
 398:C:/Users/stapi/OneDrive/Desktop/GD32VW553/V1_MQTT_OK/GD32VW55X_Wifi_BLE_SDK/GD32VW55x_RELEASE_V1.0.2/MSDK/wpa_supplicant/src/ap\pmksa_cache_auth.c **** 	struct rsn_pmksa_cache_entry *entry;
 956              		.loc 1 398 1
 957 0010 AE84     		mv	s1,a1
 958 0012 36C6     		sw	a3,12(sp)
 959              		.loc 1 401 10
 960 0014 97000000 		call	os_zalloc
 960      E7800000 
 961              	.LVL92:
 962 001c 2A84     		mv	s0,a0
 963              	.LVL93:
 402:C:/Users/stapi/OneDrive/Desktop/GD32VW553/V1_MQTT_OK/GD32VW55X_Wifi_BLE_SDK/GD32VW55x_RELEASE_V1.0.2/MSDK/wpa_supplicant/src/ap\pmksa_cache_auth.c **** 	if (entry == NULL)
 964              		.loc 1 402 2 is_stmt 1
 965              		.loc 1 402 5 is_stmt 0
 966 001e 45CD     		beq	a0,zero,.L115
 403:C:/Users/stapi/OneDrive/Desktop/GD32VW553/V1_MQTT_OK/GD32VW55X_Wifi_BLE_SDK/GD32VW55x_RELEASE_V1.0.2/MSDK/wpa_supplicant/src/ap\pmksa_cache_auth.c **** 		return NULL;
 404:C:/Users/stapi/OneDrive/Desktop/GD32VW553/V1_MQTT_OK/GD32VW55X_Wifi_BLE_SDK/GD32VW55x_RELEASE_V1.0.2/MSDK/wpa_supplicant/src/ap\pmksa_cache_auth.c **** 	os_memcpy(entry->pmkid, pmkid, PMKID_LEN);
 967              		.loc 1 404 2 is_stmt 1
 968 0020 B245     		lw	a1,12(sp)
 969 0022 4146     		li	a2,16
 970 0024 2105     		addi	a0,a0,8
 971 0026 97000000 		call	os_memcpy
 971      E7800000 
 972              	.LVL94:
 405:C:/Users/stapi/OneDrive/Desktop/GD32VW553/V1_MQTT_OK/GD32VW55X_Wifi_BLE_SDK/GD32VW55x_RELEASE_V1.0.2/MSDK/wpa_supplicant/src/ap\pmksa_cache_auth.c **** 	os_memcpy(entry->pmk, old_entry->pmk, old_entry->pmk_len);
 973              		.loc 1 405 2
 974 002e B04C     		lw	a2,88(s1)
 975 0030 93858401 		addi	a1,s1,24
 976 0034 13058401 		addi	a0,s0,24
 977 0038 97000000 		call	os_memcpy
 977      E7800000 
 978              	.LVL95:
 406:C:/Users/stapi/OneDrive/Desktop/GD32VW553/V1_MQTT_OK/GD32VW55X_Wifi_BLE_SDK/GD32VW55x_RELEASE_V1.0.2/MSDK/wpa_supplicant/src/ap\pmksa_cache_auth.c **** 	entry->pmk_len = old_entry->pmk_len;
 979              		.loc 1 406 2
 980              		.loc 1 406 28 is_stmt 0
 981 0040 BC4C     		lw	a5,88(s1)
 407:C:/Users/stapi/OneDrive/Desktop/GD32VW553/V1_MQTT_OK/GD32VW55X_Wifi_BLE_SDK/GD32VW55x_RELEASE_V1.0.2/MSDK/wpa_supplicant/src/ap\pmksa_cache_auth.c **** 	entry->expiration = old_entry->expiration;
 408:C:/Users/stapi/OneDrive/Desktop/GD32VW553/V1_MQTT_OK/GD32VW55X_Wifi_BLE_SDK/GD32VW55x_RELEASE_V1.0.2/MSDK/wpa_supplicant/src/ap\pmksa_cache_auth.c **** 	entry->akmp = old_entry->akmp;
 409:C:/Users/stapi/OneDrive/Desktop/GD32VW553/V1_MQTT_OK/GD32VW55X_Wifi_BLE_SDK/GD32VW55x_RELEASE_V1.0.2/MSDK/wpa_supplicant/src/ap\pmksa_cache_auth.c **** 	os_memcpy(entry->spa, old_entry->spa, ETH_ALEN);
 982              		.loc 1 409 2
 983 0042 1946     		li	a2,6
 984 0044 93854406 		addi	a1,s1,100
 406:C:/Users/stapi/OneDrive/Desktop/GD32VW553/V1_MQTT_OK/GD32VW55X_Wifi_BLE_SDK/GD32VW55x_RELEASE_V1.0.2/MSDK/wpa_supplicant/src/ap\pmksa_cache_auth.c **** 	entry->pmk_len = old_entry->pmk_len;
 985              		.loc 1 406 17
 986 0048 3CCC     		sw	a5,88(s0)
 407:C:/Users/stapi/OneDrive/Desktop/GD32VW553/V1_MQTT_OK/GD32VW55X_Wifi_BLE_SDK/GD32VW55x_RELEASE_V1.0.2/MSDK/wpa_supplicant/src/ap\pmksa_cache_auth.c **** 	entry->expiration = old_entry->expiration;
 987              		.loc 1 407 2 is_stmt 1
 407:C:/Users/stapi/OneDrive/Desktop/GD32VW553/V1_MQTT_OK/GD32VW55X_Wifi_BLE_SDK/GD32VW55x_RELEASE_V1.0.2/MSDK/wpa_supplicant/src/ap\pmksa_cache_auth.c **** 	entry->expiration = old_entry->expiration;
 988              		.loc 1 407 31 is_stmt 0
 989 004a FC4C     		lw	a5,92(s1)
 990              		.loc 1 409 2
 991 004c 13054406 		addi	a0,s0,100
 407:C:/Users/stapi/OneDrive/Desktop/GD32VW553/V1_MQTT_OK/GD32VW55X_Wifi_BLE_SDK/GD32VW55x_RELEASE_V1.0.2/MSDK/wpa_supplicant/src/ap\pmksa_cache_auth.c **** 	entry->expiration = old_entry->expiration;
 992              		.loc 1 407 20
 993 0050 7CCC     		sw	a5,92(s0)
 408:C:/Users/stapi/OneDrive/Desktop/GD32VW553/V1_MQTT_OK/GD32VW55X_Wifi_BLE_SDK/GD32VW55x_RELEASE_V1.0.2/MSDK/wpa_supplicant/src/ap\pmksa_cache_auth.c **** 	os_memcpy(entry->spa, old_entry->spa, ETH_ALEN);
 994              		.loc 1 408 2 is_stmt 1
 408:C:/Users/stapi/OneDrive/Desktop/GD32VW553/V1_MQTT_OK/GD32VW55X_Wifi_BLE_SDK/GD32VW55x_RELEASE_V1.0.2/MSDK/wpa_supplicant/src/ap\pmksa_cache_auth.c **** 	os_memcpy(entry->spa, old_entry->spa, ETH_ALEN);
 995              		.loc 1 408 25 is_stmt 0
 996 0052 BC50     		lw	a5,96(s1)
 408:C:/Users/stapi/OneDrive/Desktop/GD32VW553/V1_MQTT_OK/GD32VW55X_Wifi_BLE_SDK/GD32VW55x_RELEASE_V1.0.2/MSDK/wpa_supplicant/src/ap\pmksa_cache_auth.c **** 	os_memcpy(entry->spa, old_entry->spa, ETH_ALEN);
 997              		.loc 1 408 14
 998 0054 3CD0     		sw	a5,96(s0)
 999              		.loc 1 409 2 is_stmt 1
 1000 0056 97000000 		call	os_memcpy
 1000      E7800000 
 1001              	.LVL96:
 410:C:/Users/stapi/OneDrive/Desktop/GD32VW553/V1_MQTT_OK/GD32VW55X_Wifi_BLE_SDK/GD32VW55x_RELEASE_V1.0.2/MSDK/wpa_supplicant/src/ap\pmksa_cache_auth.c **** 	entry->opportunistic = 1;
 1002              		.loc 1 410 2
 1003              		.loc 1 410 23 is_stmt 0
 1004 005e 8547     		li	a5,1
 1005 0060 2324F408 		sw	a5,136(s0)
 411:C:/Users/stapi/OneDrive/Desktop/GD32VW553/V1_MQTT_OK/GD32VW55X_Wifi_BLE_SDK/GD32VW55x_RELEASE_V1.0.2/MSDK/wpa_supplicant/src/ap\pmksa_cache_auth.c **** 	if (old_entry->identity) {
 1006              		.loc 1 411 2 is_stmt 1
 1007              		.loc 1 411 5 is_stmt 0
 1008 0064 FC54     		lw	a5,108(s1)
 1009 0066 85C3     		beq	a5,zero,.L118
 412:C:/Users/stapi/OneDrive/Desktop/GD32VW553/V1_MQTT_OK/GD32VW55X_Wifi_BLE_SDK/GD32VW55x_RELEASE_V1.0.2/MSDK/wpa_supplicant/src/ap\pmksa_cache_auth.c **** 		entry->identity = os_malloc(old_entry->identity_len);
 1010              		.loc 1 412 3 is_stmt 1
 1011              		.loc 1 412 21 is_stmt 0
 1012 0068 A858     		lw	a0,112(s1)
 1013 006a 97000000 		call	os_malloc
 1013      E7800000 
 1014              	.LVL97:
 1015              		.loc 1 412 19
 1016 0072 68D4     		sw	a0,108(s0)
 413:C:/Users/stapi/OneDrive/Desktop/GD32VW553/V1_MQTT_OK/GD32VW55X_Wifi_BLE_SDK/GD32VW55x_RELEASE_V1.0.2/MSDK/wpa_supplicant/src/ap\pmksa_cache_auth.c **** 		if (entry->identity) {
 1017              		.loc 1 413 3 is_stmt 1
 1018              		.loc 1 413 6 is_stmt 0
 1019 0074 09C9     		beq	a0,zero,.L118
 414:C:/Users/stapi/OneDrive/Desktop/GD32VW553/V1_MQTT_OK/GD32VW55X_Wifi_BLE_SDK/GD32VW55x_RELEASE_V1.0.2/MSDK/wpa_supplicant/src/ap\pmksa_cache_auth.c **** 			entry->identity_len = old_entry->identity_len;
 1020              		.loc 1 414 4 is_stmt 1
 1021              		.loc 1 414 35 is_stmt 0
 1022 0076 BC58     		lw	a5,112(s1)
 415:C:/Users/stapi/OneDrive/Desktop/GD32VW553/V1_MQTT_OK/GD32VW55X_Wifi_BLE_SDK/GD32VW55x_RELEASE_V1.0.2/MSDK/wpa_supplicant/src/ap\pmksa_cache_auth.c **** 			os_memcpy(entry->identity, old_entry->identity,
 1023              		.loc 1 415 4
 1024 0078 EC54     		lw	a1,108(s1)
 414:C:/Users/stapi/OneDrive/Desktop/GD32VW553/V1_MQTT_OK/GD32VW55X_Wifi_BLE_SDK/GD32VW55x_RELEASE_V1.0.2/MSDK/wpa_supplicant/src/ap\pmksa_cache_auth.c **** 			entry->identity_len = old_entry->identity_len;
 1025              		.loc 1 414 24
 1026 007a 3CD8     		sw	a5,112(s0)
 1027              		.loc 1 415 4 is_stmt 1
 1028 007c B058     		lw	a2,112(s1)
 1029 007e 97000000 		call	os_memcpy
 1029      E7800000 
 1030              	.LVL98:
 1031              	.L118:
 416:C:/Users/stapi/OneDrive/Desktop/GD32VW553/V1_MQTT_OK/GD32VW55X_Wifi_BLE_SDK/GD32VW55x_RELEASE_V1.0.2/MSDK/wpa_supplicant/src/ap\pmksa_cache_auth.c **** 				  old_entry->identity_len);
 417:C:/Users/stapi/OneDrive/Desktop/GD32VW553/V1_MQTT_OK/GD32VW55X_Wifi_BLE_SDK/GD32VW55x_RELEASE_V1.0.2/MSDK/wpa_supplicant/src/ap\pmksa_cache_auth.c **** 		}
 418:C:/Users/stapi/OneDrive/Desktop/GD32VW553/V1_MQTT_OK/GD32VW55X_Wifi_BLE_SDK/GD32VW55x_RELEASE_V1.0.2/MSDK/wpa_supplicant/src/ap\pmksa_cache_auth.c **** 	}
 419:C:/Users/stapi/OneDrive/Desktop/GD32VW553/V1_MQTT_OK/GD32VW55X_Wifi_BLE_SDK/GD32VW55x_RELEASE_V1.0.2/MSDK/wpa_supplicant/src/ap\pmksa_cache_auth.c **** 	if (old_entry->cui)
 1032              		.loc 1 419 2
 1033              		.loc 1 419 15 is_stmt 0
 1034 0086 E858     		lw	a0,116(s1)
 1035              		.loc 1 419 5
 1036 0088 11C5     		beq	a0,zero,.L120
 420:C:/Users/stapi/OneDrive/Desktop/GD32VW553/V1_MQTT_OK/GD32VW55X_Wifi_BLE_SDK/GD32VW55x_RELEASE_V1.0.2/MSDK/wpa_supplicant/src/ap\pmksa_cache_auth.c **** 		entry->cui = wpabuf_dup(old_entry->cui);
 1037              		.loc 1 420 3 is_stmt 1
 1038              		.loc 1 420 16 is_stmt 0
 1039 008a 97000000 		call	wpabuf_dup
 1039      E7800000 
 1040              	.LVL99:
 1041              		.loc 1 420 14
 1042 0092 68D8     		sw	a0,116(s0)
 1043              	.L120:
 421:C:/Users/stapi/OneDrive/Desktop/GD32VW553/V1_MQTT_OK/GD32VW55X_Wifi_BLE_SDK/GD32VW55x_RELEASE_V1.0.2/MSDK/wpa_supplicant/src/ap\pmksa_cache_auth.c **** #ifndef CONFIG_NO_RADIUS
 422:C:/Users/stapi/OneDrive/Desktop/GD32VW553/V1_MQTT_OK/GD32VW55X_Wifi_BLE_SDK/GD32VW55x_RELEASE_V1.0.2/MSDK/wpa_supplicant/src/ap\pmksa_cache_auth.c **** 	radius_copy_class(&entry->radius_class, &old_entry->radius_class);
 423:C:/Users/stapi/OneDrive/Desktop/GD32VW553/V1_MQTT_OK/GD32VW55X_Wifi_BLE_SDK/GD32VW55x_RELEASE_V1.0.2/MSDK/wpa_supplicant/src/ap\pmksa_cache_auth.c **** #endif /* CONFIG_NO_RADIUS */
 424:C:/Users/stapi/OneDrive/Desktop/GD32VW553/V1_MQTT_OK/GD32VW55X_Wifi_BLE_SDK/GD32VW55x_RELEASE_V1.0.2/MSDK/wpa_supplicant/src/ap\pmksa_cache_auth.c **** 	entry->eap_type_authsrv = old_entry->eap_type_authsrv;
 1044              		.loc 1 424 2 is_stmt 1
 1045              		.loc 1 424 37 is_stmt 0
 1046 0094 83C70408 		lbu	a5,128(s1)
 1047              		.loc 1 424 26
 1048 0098 2300F408 		sb	a5,128(s0)
 425:C:/Users/stapi/OneDrive/Desktop/GD32VW553/V1_MQTT_OK/GD32VW55X_Wifi_BLE_SDK/GD32VW55x_RELEASE_V1.0.2/MSDK/wpa_supplicant/src/ap\pmksa_cache_auth.c **** 	if (old_entry->vlan_desc) {
 1049              		.loc 1 425 2 is_stmt 1
 1050              		.loc 1 425 5 is_stmt 0
 1051 009c 83A74408 		lw	a5,132(s1)
 1052 00a0 A9C3     		beq	a5,zero,.L121
 426:C:/Users/stapi/OneDrive/Desktop/GD32VW553/V1_MQTT_OK/GD32VW55X_Wifi_BLE_SDK/GD32VW55x_RELEASE_V1.0.2/MSDK/wpa_supplicant/src/ap\pmksa_cache_auth.c **** 		entry->vlan_desc = os_zalloc(sizeof(struct vlan_description));
 1053              		.loc 1 426 3 is_stmt 1
 1054              		.loc 1 426 22 is_stmt 0
 1055 00a2 13058008 		li	a0,136
 1056 00a6 97000000 		call	os_zalloc
 1056      E7800000 
 1057              	.LVL100:
 1058              		.loc 1 426 20
 1059 00ae 2322A408 		sw	a0,132(s0)
 427:C:/Users/stapi/OneDrive/Desktop/GD32VW553/V1_MQTT_OK/GD32VW55X_Wifi_BLE_SDK/GD32VW55x_RELEASE_V1.0.2/MSDK/wpa_supplicant/src/ap\pmksa_cache_auth.c **** 		if (entry->vlan_desc)
 1060              		.loc 1 427 3 is_stmt 1
 1061              		.loc 1 427 6 is_stmt 0
 1062 00b2 09C9     		beq	a0,zero,.L122
 428:C:/Users/stapi/OneDrive/Desktop/GD32VW553/V1_MQTT_OK/GD32VW55X_Wifi_BLE_SDK/GD32VW55x_RELEASE_V1.0.2/MSDK/wpa_supplicant/src/ap\pmksa_cache_auth.c **** 			*entry->vlan_desc = *old_entry->vlan_desc;
 1063              		.loc 1 428 4 is_stmt 1
 1064              		.loc 1 428 22 is_stmt 0
 1065 00b4 83A54408 		lw	a1,132(s1)
 1066 00b8 13068008 		li	a2,136
 1067 00bc 97000000 		call	memcpy
 1067      E7800000 
 1068              	.LVL101:
 1069              	.L122:
 429:C:/Users/stapi/OneDrive/Desktop/GD32VW553/V1_MQTT_OK/GD32VW55X_Wifi_BLE_SDK/GD32VW55x_RELEASE_V1.0.2/MSDK/wpa_supplicant/src/ap\pmksa_cache_auth.c **** 	} else {
 430:C:/Users/stapi/OneDrive/Desktop/GD32VW553/V1_MQTT_OK/GD32VW55X_Wifi_BLE_SDK/GD32VW55x_RELEASE_V1.0.2/MSDK/wpa_supplicant/src/ap\pmksa_cache_auth.c **** 		entry->vlan_desc = NULL;
 431:C:/Users/stapi/OneDrive/Desktop/GD32VW553/V1_MQTT_OK/GD32VW55X_Wifi_BLE_SDK/GD32VW55x_RELEASE_V1.0.2/MSDK/wpa_supplicant/src/ap\pmksa_cache_auth.c **** 	}
 432:C:/Users/stapi/OneDrive/Desktop/GD32VW553/V1_MQTT_OK/GD32VW55X_Wifi_BLE_SDK/GD32VW55x_RELEASE_V1.0.2/MSDK/wpa_supplicant/src/ap\pmksa_cache_auth.c **** 	entry->opportunistic = 1;
 1070              		.loc 1 432 2 is_stmt 1
 1071              		.loc 1 432 23 is_stmt 0
 1072 00c4 8547     		li	a5,1
 1073 00c6 2324F408 		sw	a5,136(s0)
 433:C:/Users/stapi/OneDrive/Desktop/GD32VW553/V1_MQTT_OK/GD32VW55X_Wifi_BLE_SDK/GD32VW55x_RELEASE_V1.0.2/MSDK/wpa_supplicant/src/ap\pmksa_cache_auth.c **** 
 434:C:/Users/stapi/OneDrive/Desktop/GD32VW553/V1_MQTT_OK/GD32VW55X_Wifi_BLE_SDK/GD32VW55x_RELEASE_V1.0.2/MSDK/wpa_supplicant/src/ap\pmksa_cache_auth.c **** 	pmksa_cache_link_entry(pmksa, entry);
 1074              		.loc 1 434 2 is_stmt 1
 1075 00ca A285     		mv	a1,s0
 1076 00cc 4A85     		mv	a0,s2
 1077 00ce 97000000 		call	pmksa_cache_link_entry
 1077      E7800000 
 1078              	.LVL102:
 435:C:/Users/stapi/OneDrive/Desktop/GD32VW553/V1_MQTT_OK/GD32VW55X_Wifi_BLE_SDK/GD32VW55x_RELEASE_V1.0.2/MSDK/wpa_supplicant/src/ap\pmksa_cache_auth.c **** 
 436:C:/Users/stapi/OneDrive/Desktop/GD32VW553/V1_MQTT_OK/GD32VW55X_Wifi_BLE_SDK/GD32VW55x_RELEASE_V1.0.2/MSDK/wpa_supplicant/src/ap\pmksa_cache_auth.c **** 	return entry;
 1079              		.loc 1 436 2
 1080              	.L115:
 437:C:/Users/stapi/OneDrive/Desktop/GD32VW553/V1_MQTT_OK/GD32VW55X_Wifi_BLE_SDK/GD32VW55x_RELEASE_V1.0.2/MSDK/wpa_supplicant/src/ap\pmksa_cache_auth.c **** }
 1081              		.loc 1 437 1 is_stmt 0
 1082 00d6 2285     		mv	a0,s0
 1083 00d8 4101     		addi	sp,sp,16
 1084              		.cfi_remember_state
 1085              		.cfi_def_cfa_offset 0
 1086              	.LVL103:
 1087 00da 17030000 		tail	__riscv_restore_3
 1087      67000300 
 1088              		.cfi_restore 18
 1089              		.cfi_restore 9
 1090              		.cfi_restore 8
 1091              		.cfi_restore 1
 1092              		.cfi_def_cfa_offset -16
 1093              	.LVL104:
 1094              	.L121:
 1095              		.cfi_restore_state
 430:C:/Users/stapi/OneDrive/Desktop/GD32VW553/V1_MQTT_OK/GD32VW55X_Wifi_BLE_SDK/GD32VW55x_RELEASE_V1.0.2/MSDK/wpa_supplicant/src/ap\pmksa_cache_auth.c **** 	}
 1096              		.loc 1 430 3 is_stmt 1
 430:C:/Users/stapi/OneDrive/Desktop/GD32VW553/V1_MQTT_OK/GD32VW55X_Wifi_BLE_SDK/GD32VW55x_RELEASE_V1.0.2/MSDK/wpa_supplicant/src/ap\pmksa_cache_auth.c **** 	}
 1097              		.loc 1 430 20 is_stmt 0
 1098 00e2 23220408 		sw	zero,132(s0)
 1099 00e6 F9BF     		j	.L122
 1100              		.cfi_endproc
 1101              	.LFE147:
 1103              		.section	.text.pmksa_cache_auth_deinit,"ax",@progbits
 1104              		.align	1
 1105              		.globl	pmksa_cache_auth_deinit
 1107              	pmksa_cache_auth_deinit:
 1108              	.LFB148:
 438:C:/Users/stapi/OneDrive/Desktop/GD32VW553/V1_MQTT_OK/GD32VW55X_Wifi_BLE_SDK/GD32VW55x_RELEASE_V1.0.2/MSDK/wpa_supplicant/src/ap\pmksa_cache_auth.c **** 
 439:C:/Users/stapi/OneDrive/Desktop/GD32VW553/V1_MQTT_OK/GD32VW55X_Wifi_BLE_SDK/GD32VW55x_RELEASE_V1.0.2/MSDK/wpa_supplicant/src/ap\pmksa_cache_auth.c **** 
 440:C:/Users/stapi/OneDrive/Desktop/GD32VW553/V1_MQTT_OK/GD32VW55X_Wifi_BLE_SDK/GD32VW55x_RELEASE_V1.0.2/MSDK/wpa_supplicant/src/ap\pmksa_cache_auth.c **** /**
 441:C:/Users/stapi/OneDrive/Desktop/GD32VW553/V1_MQTT_OK/GD32VW55X_Wifi_BLE_SDK/GD32VW55x_RELEASE_V1.0.2/MSDK/wpa_supplicant/src/ap\pmksa_cache_auth.c ****  * pmksa_cache_auth_deinit - Free all entries in PMKSA cache
 442:C:/Users/stapi/OneDrive/Desktop/GD32VW553/V1_MQTT_OK/GD32VW55X_Wifi_BLE_SDK/GD32VW55x_RELEASE_V1.0.2/MSDK/wpa_supplicant/src/ap\pmksa_cache_auth.c ****  * @pmksa: Pointer to PMKSA cache data from pmksa_cache_auth_init()
 443:C:/Users/stapi/OneDrive/Desktop/GD32VW553/V1_MQTT_OK/GD32VW55X_Wifi_BLE_SDK/GD32VW55x_RELEASE_V1.0.2/MSDK/wpa_supplicant/src/ap\pmksa_cache_auth.c ****  */
 444:C:/Users/stapi/OneDrive/Desktop/GD32VW553/V1_MQTT_OK/GD32VW55X_Wifi_BLE_SDK/GD32VW55x_RELEASE_V1.0.2/MSDK/wpa_supplicant/src/ap\pmksa_cache_auth.c **** void pmksa_cache_auth_deinit(struct rsn_pmksa_cache *pmksa)
 445:C:/Users/stapi/OneDrive/Desktop/GD32VW553/V1_MQTT_OK/GD32VW55X_Wifi_BLE_SDK/GD32VW55x_RELEASE_V1.0.2/MSDK/wpa_supplicant/src/ap\pmksa_cache_auth.c **** {
 1109              		.loc 1 445 1 is_stmt 1
 1110              		.cfi_startproc
 1111              	.LVL105:
 446:C:/Users/stapi/OneDrive/Desktop/GD32VW553/V1_MQTT_OK/GD32VW55X_Wifi_BLE_SDK/GD32VW55x_RELEASE_V1.0.2/MSDK/wpa_supplicant/src/ap\pmksa_cache_auth.c **** 	struct rsn_pmksa_cache_entry *entry, *prev;
 1112              		.loc 1 446 2
 447:C:/Users/stapi/OneDrive/Desktop/GD32VW553/V1_MQTT_OK/GD32VW55X_Wifi_BLE_SDK/GD32VW55x_RELEASE_V1.0.2/MSDK/wpa_supplicant/src/ap\pmksa_cache_auth.c **** 	int i;
 1113              		.loc 1 447 2
 448:C:/Users/stapi/OneDrive/Desktop/GD32VW553/V1_MQTT_OK/GD32VW55X_Wifi_BLE_SDK/GD32VW55x_RELEASE_V1.0.2/MSDK/wpa_supplicant/src/ap\pmksa_cache_auth.c **** 
 449:C:/Users/stapi/OneDrive/Desktop/GD32VW553/V1_MQTT_OK/GD32VW55X_Wifi_BLE_SDK/GD32VW55x_RELEASE_V1.0.2/MSDK/wpa_supplicant/src/ap\pmksa_cache_auth.c **** 	if (pmksa == NULL)
 1114              		.loc 1 449 2
 1115              		.loc 1 449 5 is_stmt 0
 1116 0000 39CD     		beq	a0,zero,.L144
 445:C:/Users/stapi/OneDrive/Desktop/GD32VW553/V1_MQTT_OK/GD32VW55X_Wifi_BLE_SDK/GD32VW55x_RELEASE_V1.0.2/MSDK/wpa_supplicant/src/ap\pmksa_cache_auth.c **** 	struct rsn_pmksa_cache_entry *entry, *prev;
 1117              		.loc 1 445 1
 1118 0002 17030000 		call	t0,__riscv_save_2
 1118      E7020300 
 1119              		.cfi_offset 9, -12
 1120              		.cfi_offset 8, -8
 1121              		.cfi_offset 1, -4
 1122              		.cfi_def_cfa_offset 16
 1123 000a 2A84     		mv	s0,a0
 450:C:/Users/stapi/OneDrive/Desktop/GD32VW553/V1_MQTT_OK/GD32VW55X_Wifi_BLE_SDK/GD32VW55x_RELEASE_V1.0.2/MSDK/wpa_supplicant/src/ap\pmksa_cache_auth.c **** 		return;
 451:C:/Users/stapi/OneDrive/Desktop/GD32VW553/V1_MQTT_OK/GD32VW55X_Wifi_BLE_SDK/GD32VW55x_RELEASE_V1.0.2/MSDK/wpa_supplicant/src/ap\pmksa_cache_auth.c **** 
 452:C:/Users/stapi/OneDrive/Desktop/GD32VW553/V1_MQTT_OK/GD32VW55X_Wifi_BLE_SDK/GD32VW55x_RELEASE_V1.0.2/MSDK/wpa_supplicant/src/ap\pmksa_cache_auth.c **** 	entry = pmksa->pmksa;
 1124              		.loc 1 452 2 is_stmt 1
 1125              		.loc 1 452 8 is_stmt 0
 1126 000c 03250520 		lw	a0,512(a0)
 1127              	.LVL106:
 453:C:/Users/stapi/OneDrive/Desktop/GD32VW553/V1_MQTT_OK/GD32VW55X_Wifi_BLE_SDK/GD32VW55x_RELEASE_V1.0.2/MSDK/wpa_supplicant/src/ap\pmksa_cache_auth.c **** 	while (entry) {
 1128              		.loc 1 453 2 is_stmt 1
 1129              	.L138:
 1130              		.loc 1 453 8
 1131 0010 21E1     		bne	a0,zero,.L139
 454:C:/Users/stapi/OneDrive/Desktop/GD32VW553/V1_MQTT_OK/GD32VW55X_Wifi_BLE_SDK/GD32VW55x_RELEASE_V1.0.2/MSDK/wpa_supplicant/src/ap\pmksa_cache_auth.c **** 		prev = entry;
 455:C:/Users/stapi/OneDrive/Desktop/GD32VW553/V1_MQTT_OK/GD32VW55X_Wifi_BLE_SDK/GD32VW55x_RELEASE_V1.0.2/MSDK/wpa_supplicant/src/ap\pmksa_cache_auth.c **** 		entry = entry->next;
 456:C:/Users/stapi/OneDrive/Desktop/GD32VW553/V1_MQTT_OK/GD32VW55X_Wifi_BLE_SDK/GD32VW55x_RELEASE_V1.0.2/MSDK/wpa_supplicant/src/ap\pmksa_cache_auth.c **** 		_pmksa_cache_free_entry(prev);
 457:C:/Users/stapi/OneDrive/Desktop/GD32VW553/V1_MQTT_OK/GD32VW55X_Wifi_BLE_SDK/GD32VW55x_RELEASE_V1.0.2/MSDK/wpa_supplicant/src/ap\pmksa_cache_auth.c **** 	}
 458:C:/Users/stapi/OneDrive/Desktop/GD32VW553/V1_MQTT_OK/GD32VW55X_Wifi_BLE_SDK/GD32VW55x_RELEASE_V1.0.2/MSDK/wpa_supplicant/src/ap\pmksa_cache_auth.c **** 	eloop_cancel_timeout(pmksa_cache_expire, pmksa, NULL);
 1132              		.loc 1 458 2
 1133 0012 37050000 		lui	a0,%hi(pmksa_cache_expire)
 1134              	.LVL107:
 1135 0016 A285     		mv	a1,s0
 1136 0018 0146     		li	a2,0
 1137 001a 13050500 		addi	a0,a0,%lo(pmksa_cache_expire)
 1138 001e 97000000 		call	eloop_cancel_timeout
 1138      E7800000 
 1139              	.LVL108:
 459:C:/Users/stapi/OneDrive/Desktop/GD32VW553/V1_MQTT_OK/GD32VW55X_Wifi_BLE_SDK/GD32VW55x_RELEASE_V1.0.2/MSDK/wpa_supplicant/src/ap\pmksa_cache_auth.c **** 	pmksa->pmksa_count = 0;
 1140              		.loc 1 459 2
 460:C:/Users/stapi/OneDrive/Desktop/GD32VW553/V1_MQTT_OK/GD32VW55X_Wifi_BLE_SDK/GD32VW55x_RELEASE_V1.0.2/MSDK/wpa_supplicant/src/ap\pmksa_cache_auth.c **** 	pmksa->pmksa = NULL;
 461:C:/Users/stapi/OneDrive/Desktop/GD32VW553/V1_MQTT_OK/GD32VW55X_Wifi_BLE_SDK/GD32VW55x_RELEASE_V1.0.2/MSDK/wpa_supplicant/src/ap\pmksa_cache_auth.c **** 	for (i = 0; i < PMKID_HASH_SIZE; i++)
 462:C:/Users/stapi/OneDrive/Desktop/GD32VW553/V1_MQTT_OK/GD32VW55X_Wifi_BLE_SDK/GD32VW55x_RELEASE_V1.0.2/MSDK/wpa_supplicant/src/ap\pmksa_cache_auth.c **** 		pmksa->pmkid[i] = NULL;
 1141              		.loc 1 462 19 is_stmt 0
 1142 0026 13060020 		li	a2,512
 1143 002a 8145     		li	a1,0
 459:C:/Users/stapi/OneDrive/Desktop/GD32VW553/V1_MQTT_OK/GD32VW55X_Wifi_BLE_SDK/GD32VW55x_RELEASE_V1.0.2/MSDK/wpa_supplicant/src/ap\pmksa_cache_auth.c **** 	pmksa->pmksa_count = 0;
 1144              		.loc 1 459 21
 1145 002c 23220420 		sw	zero,516(s0)
 460:C:/Users/stapi/OneDrive/Desktop/GD32VW553/V1_MQTT_OK/GD32VW55X_Wifi_BLE_SDK/GD32VW55x_RELEASE_V1.0.2/MSDK/wpa_supplicant/src/ap\pmksa_cache_auth.c **** 	pmksa->pmksa = NULL;
 1146              		.loc 1 460 2 is_stmt 1
 460:C:/Users/stapi/OneDrive/Desktop/GD32VW553/V1_MQTT_OK/GD32VW55X_Wifi_BLE_SDK/GD32VW55x_RELEASE_V1.0.2/MSDK/wpa_supplicant/src/ap\pmksa_cache_auth.c **** 	pmksa->pmksa = NULL;
 1147              		.loc 1 460 15 is_stmt 0
 1148 0030 23200420 		sw	zero,512(s0)
 461:C:/Users/stapi/OneDrive/Desktop/GD32VW553/V1_MQTT_OK/GD32VW55X_Wifi_BLE_SDK/GD32VW55x_RELEASE_V1.0.2/MSDK/wpa_supplicant/src/ap\pmksa_cache_auth.c **** 		pmksa->pmkid[i] = NULL;
 1149              		.loc 1 461 2 is_stmt 1
 1150              	.LVL109:
 461:C:/Users/stapi/OneDrive/Desktop/GD32VW553/V1_MQTT_OK/GD32VW55X_Wifi_BLE_SDK/GD32VW55x_RELEASE_V1.0.2/MSDK/wpa_supplicant/src/ap\pmksa_cache_auth.c **** 		pmksa->pmkid[i] = NULL;
 1151              		.loc 1 461 14
 1152              		.loc 1 462 19 is_stmt 0
 1153 0034 2285     		mv	a0,s0
 1154 0036 97000000 		call	memset
 1154      E7800000 
 1155              	.LVL110:
 463:C:/Users/stapi/OneDrive/Desktop/GD32VW553/V1_MQTT_OK/GD32VW55X_Wifi_BLE_SDK/GD32VW55x_RELEASE_V1.0.2/MSDK/wpa_supplicant/src/ap\pmksa_cache_auth.c **** 	os_free(pmksa);
 1156              		.loc 1 463 2 is_stmt 1
 1157 003e 2285     		mv	a0,s0
 1158 0040 97000000 		call	os_free
 1158      E7800000 
 1159              	.LVL111:
 464:C:/Users/stapi/OneDrive/Desktop/GD32VW553/V1_MQTT_OK/GD32VW55X_Wifi_BLE_SDK/GD32VW55x_RELEASE_V1.0.2/MSDK/wpa_supplicant/src/ap\pmksa_cache_auth.c **** }
 1160              		.loc 1 464 1 is_stmt 0
 1161 0048 17030000 		tail	__riscv_restore_2
 1161      67000300 
 1162              		.cfi_remember_state
 1163              		.cfi_restore 9
 1164              		.cfi_restore 8
 1165              		.cfi_restore 1
 1166              		.cfi_def_cfa_offset 0
 1167              	.LVL112:
 1168              	.L139:
 1169              		.cfi_restore_state
 454:C:/Users/stapi/OneDrive/Desktop/GD32VW553/V1_MQTT_OK/GD32VW55X_Wifi_BLE_SDK/GD32VW55x_RELEASE_V1.0.2/MSDK/wpa_supplicant/src/ap\pmksa_cache_auth.c **** 		entry = entry->next;
 1170              		.loc 1 454 3 is_stmt 1
 455:C:/Users/stapi/OneDrive/Desktop/GD32VW553/V1_MQTT_OK/GD32VW55X_Wifi_BLE_SDK/GD32VW55x_RELEASE_V1.0.2/MSDK/wpa_supplicant/src/ap\pmksa_cache_auth.c **** 		_pmksa_cache_free_entry(prev);
 1171              		.loc 1 455 3
 455:C:/Users/stapi/OneDrive/Desktop/GD32VW553/V1_MQTT_OK/GD32VW55X_Wifi_BLE_SDK/GD32VW55x_RELEASE_V1.0.2/MSDK/wpa_supplicant/src/ap\pmksa_cache_auth.c **** 		_pmksa_cache_free_entry(prev);
 1172              		.loc 1 455 9 is_stmt 0
 1173 0050 0441     		lw	s1,0(a0)
 1174              	.LVL113:
 456:C:/Users/stapi/OneDrive/Desktop/GD32VW553/V1_MQTT_OK/GD32VW55X_Wifi_BLE_SDK/GD32VW55x_RELEASE_V1.0.2/MSDK/wpa_supplicant/src/ap\pmksa_cache_auth.c **** 	}
 1175              		.loc 1 456 3 is_stmt 1
 1176 0052 97000000 		call	_pmksa_cache_free_entry
 1176      E7800000 
 1177              	.LVL114:
 455:C:/Users/stapi/OneDrive/Desktop/GD32VW553/V1_MQTT_OK/GD32VW55X_Wifi_BLE_SDK/GD32VW55x_RELEASE_V1.0.2/MSDK/wpa_supplicant/src/ap\pmksa_cache_auth.c **** 		_pmksa_cache_free_entry(prev);
 1178              		.loc 1 455 9 is_stmt 0
 1179 005a 2685     		mv	a0,s1
 1180 005c 55BF     		j	.L138
 1181              	.LVL115:
 1182              	.L144:
 1183              		.cfi_def_cfa_offset 0
 1184              		.cfi_restore 1
 1185              		.cfi_restore 8
 1186              		.cfi_restore 9
 1187 005e 8280     		ret
 1188              		.cfi_endproc
 1189              	.LFE148:
 1191              		.section	.text.pmksa_cache_auth_get,"ax",@progbits
 1192              		.align	1
 1193              		.globl	pmksa_cache_auth_get
 1195              	pmksa_cache_auth_get:
 1196              	.LFB149:
 465:C:/Users/stapi/OneDrive/Desktop/GD32VW553/V1_MQTT_OK/GD32VW55X_Wifi_BLE_SDK/GD32VW55x_RELEASE_V1.0.2/MSDK/wpa_supplicant/src/ap\pmksa_cache_auth.c **** 
 466:C:/Users/stapi/OneDrive/Desktop/GD32VW553/V1_MQTT_OK/GD32VW55X_Wifi_BLE_SDK/GD32VW55x_RELEASE_V1.0.2/MSDK/wpa_supplicant/src/ap\pmksa_cache_auth.c **** 
 467:C:/Users/stapi/OneDrive/Desktop/GD32VW553/V1_MQTT_OK/GD32VW55X_Wifi_BLE_SDK/GD32VW55x_RELEASE_V1.0.2/MSDK/wpa_supplicant/src/ap\pmksa_cache_auth.c **** /**
 468:C:/Users/stapi/OneDrive/Desktop/GD32VW553/V1_MQTT_OK/GD32VW55X_Wifi_BLE_SDK/GD32VW55x_RELEASE_V1.0.2/MSDK/wpa_supplicant/src/ap\pmksa_cache_auth.c ****  * pmksa_cache_auth_get - Fetch a PMKSA cache entry
 469:C:/Users/stapi/OneDrive/Desktop/GD32VW553/V1_MQTT_OK/GD32VW55X_Wifi_BLE_SDK/GD32VW55x_RELEASE_V1.0.2/MSDK/wpa_supplicant/src/ap\pmksa_cache_auth.c ****  * @pmksa: Pointer to PMKSA cache data from pmksa_cache_auth_init()
 470:C:/Users/stapi/OneDrive/Desktop/GD32VW553/V1_MQTT_OK/GD32VW55X_Wifi_BLE_SDK/GD32VW55x_RELEASE_V1.0.2/MSDK/wpa_supplicant/src/ap\pmksa_cache_auth.c ****  * @spa: Supplicant address or %NULL to match any
 471:C:/Users/stapi/OneDrive/Desktop/GD32VW553/V1_MQTT_OK/GD32VW55X_Wifi_BLE_SDK/GD32VW55x_RELEASE_V1.0.2/MSDK/wpa_supplicant/src/ap\pmksa_cache_auth.c ****  * @pmkid: PMKID or %NULL to match any
 472:C:/Users/stapi/OneDrive/Desktop/GD32VW553/V1_MQTT_OK/GD32VW55X_Wifi_BLE_SDK/GD32VW55x_RELEASE_V1.0.2/MSDK/wpa_supplicant/src/ap\pmksa_cache_auth.c ****  * Returns: Pointer to PMKSA cache entry or %NULL if no match was found
 473:C:/Users/stapi/OneDrive/Desktop/GD32VW553/V1_MQTT_OK/GD32VW55X_Wifi_BLE_SDK/GD32VW55x_RELEASE_V1.0.2/MSDK/wpa_supplicant/src/ap\pmksa_cache_auth.c ****  */
 474:C:/Users/stapi/OneDrive/Desktop/GD32VW553/V1_MQTT_OK/GD32VW55X_Wifi_BLE_SDK/GD32VW55x_RELEASE_V1.0.2/MSDK/wpa_supplicant/src/ap\pmksa_cache_auth.c **** struct rsn_pmksa_cache_entry *
 475:C:/Users/stapi/OneDrive/Desktop/GD32VW553/V1_MQTT_OK/GD32VW55X_Wifi_BLE_SDK/GD32VW55x_RELEASE_V1.0.2/MSDK/wpa_supplicant/src/ap\pmksa_cache_auth.c **** pmksa_cache_auth_get(struct rsn_pmksa_cache *pmksa,
 476:C:/Users/stapi/OneDrive/Desktop/GD32VW553/V1_MQTT_OK/GD32VW55X_Wifi_BLE_SDK/GD32VW55x_RELEASE_V1.0.2/MSDK/wpa_supplicant/src/ap\pmksa_cache_auth.c **** 		     const u8 *spa, const u8 *pmkid)
 477:C:/Users/stapi/OneDrive/Desktop/GD32VW553/V1_MQTT_OK/GD32VW55X_Wifi_BLE_SDK/GD32VW55x_RELEASE_V1.0.2/MSDK/wpa_supplicant/src/ap\pmksa_cache_auth.c **** {
 1197              		.loc 1 477 1 is_stmt 1
 1198              		.cfi_startproc
 1199              	.LVL116:
 1200 0000 17030000 		call	t0,__riscv_save_3
 1200      E7020300 
 1201              		.cfi_offset 18, -16
 1202              		.cfi_offset 9, -12
 1203              		.cfi_offset 8, -8
 1204              		.cfi_offset 1, -4
 1205              		.cfi_def_cfa_offset 16
 478:C:/Users/stapi/OneDrive/Desktop/GD32VW553/V1_MQTT_OK/GD32VW55X_Wifi_BLE_SDK/GD32VW55x_RELEASE_V1.0.2/MSDK/wpa_supplicant/src/ap\pmksa_cache_auth.c **** 	struct rsn_pmksa_cache_entry *entry;
 1206              		.loc 1 478 2
 479:C:/Users/stapi/OneDrive/Desktop/GD32VW553/V1_MQTT_OK/GD32VW55X_Wifi_BLE_SDK/GD32VW55x_RELEASE_V1.0.2/MSDK/wpa_supplicant/src/ap\pmksa_cache_auth.c **** 
 480:C:/Users/stapi/OneDrive/Desktop/GD32VW553/V1_MQTT_OK/GD32VW55X_Wifi_BLE_SDK/GD32VW55x_RELEASE_V1.0.2/MSDK/wpa_supplicant/src/ap\pmksa_cache_auth.c **** 	if (pmkid) {
 1207              		.loc 1 480 2
 477:C:/Users/stapi/OneDrive/Desktop/GD32VW553/V1_MQTT_OK/GD32VW55X_Wifi_BLE_SDK/GD32VW55x_RELEASE_V1.0.2/MSDK/wpa_supplicant/src/ap\pmksa_cache_auth.c **** 	struct rsn_pmksa_cache_entry *entry;
 1208              		.loc 1 477 1 is_stmt 0
 1209 0008 AE84     		mv	s1,a1
 1210              		.loc 1 480 5
 1211 000a 31C6     		beq	a2,zero,.L148
 481:C:/Users/stapi/OneDrive/Desktop/GD32VW553/V1_MQTT_OK/GD32VW55X_Wifi_BLE_SDK/GD32VW55x_RELEASE_V1.0.2/MSDK/wpa_supplicant/src/ap\pmksa_cache_auth.c **** 		for (entry = pmksa->pmkid[PMKID_HASH(pmkid)]; entry;
 1212              		.loc 1 481 29
 1213 000c 83470600 		lbu	a5,0(a2)
 1214 0010 3289     		mv	s2,a2
 1215              		.loc 1 481 3 is_stmt 1
 1216              		.loc 1 481 29 is_stmt 0
 1217 0012 93F7F707 		andi	a5,a5,127
 1218              		.loc 1 481 14
 1219 0016 33C5A720 		sh2add	a0,a5,a0
 1220              	.LVL117:
 1221 001a 0041     		lw	s0,0(a0)
 1222              	.LVL118:
 1223              	.L149:
 1224              		.loc 1 481 49 is_stmt 1 discriminator 1
 1225              		.loc 1 481 3 is_stmt 0 discriminator 1
 1226 001c 19E0     		bne	s0,zero,.L154
 1227              	.LVL119:
 1228              	.L157:
 482:C:/Users/stapi/OneDrive/Desktop/GD32VW553/V1_MQTT_OK/GD32VW55X_Wifi_BLE_SDK/GD32VW55x_RELEASE_V1.0.2/MSDK/wpa_supplicant/src/ap\pmksa_cache_auth.c **** 		     entry = entry->hnext) {
 483:C:/Users/stapi/OneDrive/Desktop/GD32VW553/V1_MQTT_OK/GD32VW55X_Wifi_BLE_SDK/GD32VW55x_RELEASE_V1.0.2/MSDK/wpa_supplicant/src/ap\pmksa_cache_auth.c **** 			if ((spa == NULL ||
 484:C:/Users/stapi/OneDrive/Desktop/GD32VW553/V1_MQTT_OK/GD32VW55X_Wifi_BLE_SDK/GD32VW55x_RELEASE_V1.0.2/MSDK/wpa_supplicant/src/ap\pmksa_cache_auth.c **** 			     os_memcmp(entry->spa, spa, ETH_ALEN) == 0) &&
 485:C:/Users/stapi/OneDrive/Desktop/GD32VW553/V1_MQTT_OK/GD32VW55X_Wifi_BLE_SDK/GD32VW55x_RELEASE_V1.0.2/MSDK/wpa_supplicant/src/ap\pmksa_cache_auth.c **** 			    os_memcmp(entry->pmkid, pmkid, PMKID_LEN) == 0)
 486:C:/Users/stapi/OneDrive/Desktop/GD32VW553/V1_MQTT_OK/GD32VW55X_Wifi_BLE_SDK/GD32VW55x_RELEASE_V1.0.2/MSDK/wpa_supplicant/src/ap\pmksa_cache_auth.c **** 				return entry;
 487:C:/Users/stapi/OneDrive/Desktop/GD32VW553/V1_MQTT_OK/GD32VW55X_Wifi_BLE_SDK/GD32VW55x_RELEASE_V1.0.2/MSDK/wpa_supplicant/src/ap\pmksa_cache_auth.c **** 		}
 488:C:/Users/stapi/OneDrive/Desktop/GD32VW553/V1_MQTT_OK/GD32VW55X_Wifi_BLE_SDK/GD32VW55x_RELEASE_V1.0.2/MSDK/wpa_supplicant/src/ap\pmksa_cache_auth.c **** 	} else {
 489:C:/Users/stapi/OneDrive/Desktop/GD32VW553/V1_MQTT_OK/GD32VW55X_Wifi_BLE_SDK/GD32VW55x_RELEASE_V1.0.2/MSDK/wpa_supplicant/src/ap\pmksa_cache_auth.c **** 		for (entry = pmksa->pmksa; entry; entry = entry->next) {
 490:C:/Users/stapi/OneDrive/Desktop/GD32VW553/V1_MQTT_OK/GD32VW55X_Wifi_BLE_SDK/GD32VW55x_RELEASE_V1.0.2/MSDK/wpa_supplicant/src/ap\pmksa_cache_auth.c **** 			if (spa == NULL ||
 491:C:/Users/stapi/OneDrive/Desktop/GD32VW553/V1_MQTT_OK/GD32VW55X_Wifi_BLE_SDK/GD32VW55x_RELEASE_V1.0.2/MSDK/wpa_supplicant/src/ap\pmksa_cache_auth.c **** 			    os_memcmp(entry->spa, spa, ETH_ALEN) == 0)
 492:C:/Users/stapi/OneDrive/Desktop/GD32VW553/V1_MQTT_OK/GD32VW55X_Wifi_BLE_SDK/GD32VW55x_RELEASE_V1.0.2/MSDK/wpa_supplicant/src/ap\pmksa_cache_auth.c **** 				return entry;
 493:C:/Users/stapi/OneDrive/Desktop/GD32VW553/V1_MQTT_OK/GD32VW55X_Wifi_BLE_SDK/GD32VW55x_RELEASE_V1.0.2/MSDK/wpa_supplicant/src/ap\pmksa_cache_auth.c **** 		}
 494:C:/Users/stapi/OneDrive/Desktop/GD32VW553/V1_MQTT_OK/GD32VW55X_Wifi_BLE_SDK/GD32VW55x_RELEASE_V1.0.2/MSDK/wpa_supplicant/src/ap\pmksa_cache_auth.c **** 	}
 495:C:/Users/stapi/OneDrive/Desktop/GD32VW553/V1_MQTT_OK/GD32VW55X_Wifi_BLE_SDK/GD32VW55x_RELEASE_V1.0.2/MSDK/wpa_supplicant/src/ap\pmksa_cache_auth.c **** 
 496:C:/Users/stapi/OneDrive/Desktop/GD32VW553/V1_MQTT_OK/GD32VW55X_Wifi_BLE_SDK/GD32VW55x_RELEASE_V1.0.2/MSDK/wpa_supplicant/src/ap\pmksa_cache_auth.c **** 	return NULL;
 1229              		.loc 1 496 9
 1230 001e 0144     		li	s0,0
 1231              	.LVL120:
 1232 0020 19A8     		j	.L147
 1233              	.LVL121:
 1234              	.L154:
 483:C:/Users/stapi/OneDrive/Desktop/GD32VW553/V1_MQTT_OK/GD32VW55X_Wifi_BLE_SDK/GD32VW55x_RELEASE_V1.0.2/MSDK/wpa_supplicant/src/ap\pmksa_cache_auth.c **** 			     os_memcmp(entry->spa, spa, ETH_ALEN) == 0) &&
 1235              		.loc 1 483 4 is_stmt 1
 483:C:/Users/stapi/OneDrive/Desktop/GD32VW553/V1_MQTT_OK/GD32VW55X_Wifi_BLE_SDK/GD32VW55x_RELEASE_V1.0.2/MSDK/wpa_supplicant/src/ap\pmksa_cache_auth.c **** 			     os_memcmp(entry->spa, spa, ETH_ALEN) == 0) &&
 1236              		.loc 1 483 7 is_stmt 0
 1237 0022 99EC     		bne	s1,zero,.L150
 1238              	.L153:
 485:C:/Users/stapi/OneDrive/Desktop/GD32VW553/V1_MQTT_OK/GD32VW55X_Wifi_BLE_SDK/GD32VW55x_RELEASE_V1.0.2/MSDK/wpa_supplicant/src/ap\pmksa_cache_auth.c **** 				return entry;
 1239              		.loc 1 485 8
 1240 0024 4146     		li	a2,16
 1241 0026 CA85     		mv	a1,s2
 1242 0028 13058400 		addi	a0,s0,8
 1243 002c 97000000 		call	os_memcmp
 1243      E7800000 
 1244              	.LVL122:
 484:C:/Users/stapi/OneDrive/Desktop/GD32VW553/V1_MQTT_OK/GD32VW55X_Wifi_BLE_SDK/GD32VW55x_RELEASE_V1.0.2/MSDK/wpa_supplicant/src/ap\pmksa_cache_auth.c **** 			    os_memcmp(entry->pmkid, pmkid, PMKID_LEN) == 0)
 1245              		.loc 1 484 52
 1246 0034 19ED     		bne	a0,zero,.L152
 1247              	.LVL123:
 1248              	.L147:
 497:C:/Users/stapi/OneDrive/Desktop/GD32VW553/V1_MQTT_OK/GD32VW55X_Wifi_BLE_SDK/GD32VW55x_RELEASE_V1.0.2/MSDK/wpa_supplicant/src/ap\pmksa_cache_auth.c **** }
 1249              		.loc 1 497 1
 1250 0036 2285     		mv	a0,s0
 1251 0038 17030000 		tail	__riscv_restore_3
 1251      67000300 
 1252              		.cfi_remember_state
 1253              		.cfi_restore 18
 1254              		.cfi_restore 9
 1255              		.cfi_restore 8
 1256              		.cfi_restore 1
 1257              		.cfi_def_cfa_offset 0
 1258              	.LVL124:
 1259              	.L150:
 1260              		.cfi_restore_state
 484:C:/Users/stapi/OneDrive/Desktop/GD32VW553/V1_MQTT_OK/GD32VW55X_Wifi_BLE_SDK/GD32VW55x_RELEASE_V1.0.2/MSDK/wpa_supplicant/src/ap\pmksa_cache_auth.c **** 			    os_memcmp(entry->pmkid, pmkid, PMKID_LEN) == 0)
 1261              		.loc 1 484 9 discriminator 1
 1262 0040 1946     		li	a2,6
 1263 0042 A685     		mv	a1,s1
 1264 0044 13054406 		addi	a0,s0,100
 1265 0048 97000000 		call	os_memcmp
 1265      E7800000 
 1266              	.LVL125:
 483:C:/Users/stapi/OneDrive/Desktop/GD32VW553/V1_MQTT_OK/GD32VW55X_Wifi_BLE_SDK/GD32VW55x_RELEASE_V1.0.2/MSDK/wpa_supplicant/src/ap\pmksa_cache_auth.c **** 			     os_memcmp(entry->spa, spa, ETH_ALEN) == 0) &&
 1267              		.loc 1 483 21 discriminator 1
 1268 0050 71D9     		beq	a0,zero,.L153
 1269              	.L152:
 482:C:/Users/stapi/OneDrive/Desktop/GD32VW553/V1_MQTT_OK/GD32VW55X_Wifi_BLE_SDK/GD32VW55x_RELEASE_V1.0.2/MSDK/wpa_supplicant/src/ap\pmksa_cache_auth.c **** 			if ((spa == NULL ||
 1270              		.loc 1 482 8 is_stmt 1
 482:C:/Users/stapi/OneDrive/Desktop/GD32VW553/V1_MQTT_OK/GD32VW55X_Wifi_BLE_SDK/GD32VW55x_RELEASE_V1.0.2/MSDK/wpa_supplicant/src/ap\pmksa_cache_auth.c **** 			if ((spa == NULL ||
 1271              		.loc 1 482 14 is_stmt 0
 1272 0052 4040     		lw	s0,4(s0)
 1273              	.LVL126:
 1274 0054 E1B7     		j	.L149
 1275              	.LVL127:
 1276              	.L148:
 489:C:/Users/stapi/OneDrive/Desktop/GD32VW553/V1_MQTT_OK/GD32VW55X_Wifi_BLE_SDK/GD32VW55x_RELEASE_V1.0.2/MSDK/wpa_supplicant/src/ap\pmksa_cache_auth.c **** 			if (spa == NULL ||
 1277              		.loc 1 489 3 is_stmt 1
 489:C:/Users/stapi/OneDrive/Desktop/GD32VW553/V1_MQTT_OK/GD32VW55X_Wifi_BLE_SDK/GD32VW55x_RELEASE_V1.0.2/MSDK/wpa_supplicant/src/ap\pmksa_cache_auth.c **** 			if (spa == NULL ||
 1278              		.loc 1 489 14 is_stmt 0
 1279 0056 03240520 		lw	s0,512(a0)
 1280              	.LVL128:
 1281              	.L155:
 489:C:/Users/stapi/OneDrive/Desktop/GD32VW553/V1_MQTT_OK/GD32VW55X_Wifi_BLE_SDK/GD32VW55x_RELEASE_V1.0.2/MSDK/wpa_supplicant/src/ap\pmksa_cache_auth.c **** 			if (spa == NULL ||
 1282              		.loc 1 489 30 is_stmt 1 discriminator 1
 489:C:/Users/stapi/OneDrive/Desktop/GD32VW553/V1_MQTT_OK/GD32VW55X_Wifi_BLE_SDK/GD32VW55x_RELEASE_V1.0.2/MSDK/wpa_supplicant/src/ap\pmksa_cache_auth.c **** 			if (spa == NULL ||
 1283              		.loc 1 489 3 is_stmt 0 discriminator 1
 1284 005a 71D0     		beq	s0,zero,.L157
 490:C:/Users/stapi/OneDrive/Desktop/GD32VW553/V1_MQTT_OK/GD32VW55X_Wifi_BLE_SDK/GD32VW55x_RELEASE_V1.0.2/MSDK/wpa_supplicant/src/ap\pmksa_cache_auth.c **** 			    os_memcmp(entry->spa, spa, ETH_ALEN) == 0)
 1285              		.loc 1 490 4 is_stmt 1
 490:C:/Users/stapi/OneDrive/Desktop/GD32VW553/V1_MQTT_OK/GD32VW55X_Wifi_BLE_SDK/GD32VW55x_RELEASE_V1.0.2/MSDK/wpa_supplicant/src/ap\pmksa_cache_auth.c **** 			    os_memcmp(entry->spa, spa, ETH_ALEN) == 0)
 1286              		.loc 1 490 7 is_stmt 0
 1287 005c E9DC     		beq	s1,zero,.L147
 491:C:/Users/stapi/OneDrive/Desktop/GD32VW553/V1_MQTT_OK/GD32VW55X_Wifi_BLE_SDK/GD32VW55x_RELEASE_V1.0.2/MSDK/wpa_supplicant/src/ap\pmksa_cache_auth.c **** 				return entry;
 1288              		.loc 1 491 8 discriminator 1
 1289 005e 1946     		li	a2,6
 1290 0060 A685     		mv	a1,s1
 1291 0062 13054406 		addi	a0,s0,100
 1292 0066 97000000 		call	os_memcmp
 1292      E7800000 
 1293              	.LVL129:
 490:C:/Users/stapi/OneDrive/Desktop/GD32VW553/V1_MQTT_OK/GD32VW55X_Wifi_BLE_SDK/GD32VW55x_RELEASE_V1.0.2/MSDK/wpa_supplicant/src/ap\pmksa_cache_auth.c **** 			    os_memcmp(entry->spa, spa, ETH_ALEN) == 0)
 1294              		.loc 1 490 20 discriminator 1
 1295 006e 61D5     		beq	a0,zero,.L147
 489:C:/Users/stapi/OneDrive/Desktop/GD32VW553/V1_MQTT_OK/GD32VW55X_Wifi_BLE_SDK/GD32VW55x_RELEASE_V1.0.2/MSDK/wpa_supplicant/src/ap\pmksa_cache_auth.c **** 			if (spa == NULL ||
 1296              		.loc 1 489 37 is_stmt 1 discriminator 2
 489:C:/Users/stapi/OneDrive/Desktop/GD32VW553/V1_MQTT_OK/GD32VW55X_Wifi_BLE_SDK/GD32VW55x_RELEASE_V1.0.2/MSDK/wpa_supplicant/src/ap\pmksa_cache_auth.c **** 			if (spa == NULL ||
 1297              		.loc 1 489 43 is_stmt 0 discriminator 2
 1298 0070 0040     		lw	s0,0(s0)
 1299              	.LVL130:
 1300 0072 E5B7     		j	.L155
 1301              		.cfi_endproc
 1302              	.LFE149:
 1304              		.section	.rodata.pmksa_cache_auth_add_entry.str1.4,"aMS",@progbits,1
 1305              		.align	2
 1306              	.LC6:
 1307 0000 52534E3A 		.string	"RSN: removed the oldest PMKSA cache entry (for %02x:%02x:%02x:%02x:%02x:%02x) to make roo
 1307      2072656D 
 1307      6F766564 
 1307      20746865 
 1307      206F6C64 
 1308              		.section	.text.pmksa_cache_auth_add_entry,"ax",@progbits
 1309              		.align	1
 1310              		.globl	pmksa_cache_auth_add_entry
 1312              	pmksa_cache_auth_add_entry:
 1313              	.LFB146:
 368:C:/Users/stapi/OneDrive/Desktop/GD32VW553/V1_MQTT_OK/GD32VW55X_Wifi_BLE_SDK/GD32VW55x_RELEASE_V1.0.2/MSDK/wpa_supplicant/src/ap\pmksa_cache_auth.c **** 	struct rsn_pmksa_cache_entry *pos;
 1314              		.loc 1 368 1 is_stmt 1
 1315              		.cfi_startproc
 1316              	.LVL131:
 369:C:/Users/stapi/OneDrive/Desktop/GD32VW553/V1_MQTT_OK/GD32VW55X_Wifi_BLE_SDK/GD32VW55x_RELEASE_V1.0.2/MSDK/wpa_supplicant/src/ap\pmksa_cache_auth.c **** 
 1317              		.loc 1 369 2
 371:C:/Users/stapi/OneDrive/Desktop/GD32VW553/V1_MQTT_OK/GD32VW55X_Wifi_BLE_SDK/GD32VW55x_RELEASE_V1.0.2/MSDK/wpa_supplicant/src/ap\pmksa_cache_auth.c **** 		return -1;
 1318              		.loc 1 371 2
 371:C:/Users/stapi/OneDrive/Desktop/GD32VW553/V1_MQTT_OK/GD32VW55X_Wifi_BLE_SDK/GD32VW55x_RELEASE_V1.0.2/MSDK/wpa_supplicant/src/ap\pmksa_cache_auth.c **** 		return -1;
 1319              		.loc 1 371 5 is_stmt 0
 1320 0000 C9C5     		beq	a1,zero,.L175
 368:C:/Users/stapi/OneDrive/Desktop/GD32VW553/V1_MQTT_OK/GD32VW55X_Wifi_BLE_SDK/GD32VW55x_RELEASE_V1.0.2/MSDK/wpa_supplicant/src/ap\pmksa_cache_auth.c **** 	struct rsn_pmksa_cache_entry *pos;
 1321              		.loc 1 368 1
 1322 0002 17030000 		call	t0,__riscv_save_2
 1322      E7020300 
 1323              		.cfi_offset 9, -12
 1324              		.cfi_offset 8, -8
 1325              		.cfi_offset 1, -4
 1326              		.cfi_def_cfa_offset 16
 1327 000a AE84     		mv	s1,a1
 376:C:/Users/stapi/OneDrive/Desktop/GD32VW553/V1_MQTT_OK/GD32VW55X_Wifi_BLE_SDK/GD32VW55x_RELEASE_V1.0.2/MSDK/wpa_supplicant/src/ap\pmksa_cache_auth.c **** 	if (pos)
 1328              		.loc 1 376 2 is_stmt 1
 376:C:/Users/stapi/OneDrive/Desktop/GD32VW553/V1_MQTT_OK/GD32VW55X_Wifi_BLE_SDK/GD32VW55x_RELEASE_V1.0.2/MSDK/wpa_supplicant/src/ap\pmksa_cache_auth.c **** 	if (pos)
 1329              		.loc 1 376 8 is_stmt 0
 1330 000c 0146     		li	a2,0
 1331 000e 93854506 		addi	a1,a1,100
 1332              	.LVL132:
 1333 0012 2A84     		mv	s0,a0
 1334 0014 97000000 		call	pmksa_cache_auth_get
 1334      E7800000 
 1335              	.LVL133:
 1336 001c AA85     		mv	a1,a0
 1337              	.LVL134:
 377:C:/Users/stapi/OneDrive/Desktop/GD32VW553/V1_MQTT_OK/GD32VW55X_Wifi_BLE_SDK/GD32VW55x_RELEASE_V1.0.2/MSDK/wpa_supplicant/src/ap\pmksa_cache_auth.c **** 		pmksa_cache_free_entry(pmksa, pos);
 1338              		.loc 1 377 2 is_stmt 1
 377:C:/Users/stapi/OneDrive/Desktop/GD32VW553/V1_MQTT_OK/GD32VW55X_Wifi_BLE_SDK/GD32VW55x_RELEASE_V1.0.2/MSDK/wpa_supplicant/src/ap\pmksa_cache_auth.c **** 		pmksa_cache_free_entry(pmksa, pos);
 1339              		.loc 1 377 5 is_stmt 0
 1340 001e 11C5     		beq	a0,zero,.L173
 378:C:/Users/stapi/OneDrive/Desktop/GD32VW553/V1_MQTT_OK/GD32VW55X_Wifi_BLE_SDK/GD32VW55x_RELEASE_V1.0.2/MSDK/wpa_supplicant/src/ap\pmksa_cache_auth.c **** 
 1341              		.loc 1 378 3 is_stmt 1
 1342 0020 2285     		mv	a0,s0
 1343              	.LVL135:
 1344 0022 97000000 		call	pmksa_cache_free_entry
 1344      E7800000 
 1345              	.LVL136:
 1346              	.L173:
 380:C:/Users/stapi/OneDrive/Desktop/GD32VW553/V1_MQTT_OK/GD32VW55X_Wifi_BLE_SDK/GD32VW55x_RELEASE_V1.0.2/MSDK/wpa_supplicant/src/ap\pmksa_cache_auth.c **** 		/* Remove the oldest entry to make room for the new entry */
 1347              		.loc 1 380 2
 380:C:/Users/stapi/OneDrive/Desktop/GD32VW553/V1_MQTT_OK/GD32VW55X_Wifi_BLE_SDK/GD32VW55x_RELEASE_V1.0.2/MSDK/wpa_supplicant/src/ap\pmksa_cache_auth.c **** 		/* Remove the oldest entry to make room for the new entry */
 1348              		.loc 1 380 5 is_stmt 0
 1349 002a 03274420 		lw	a4,516(s0)
 1350 002e 9307F03F 		li	a5,1023
 1351 0032 63D1E704 		ble	a4,a5,.L174
 380:C:/Users/stapi/OneDrive/Desktop/GD32VW553/V1_MQTT_OK/GD32VW55X_Wifi_BLE_SDK/GD32VW55x_RELEASE_V1.0.2/MSDK/wpa_supplicant/src/ap\pmksa_cache_auth.c **** 		/* Remove the oldest entry to make room for the new entry */
 1352              		.loc 1 380 60 discriminator 1
 1353 0036 03260420 		lw	a2,512(s0)
 380:C:/Users/stapi/OneDrive/Desktop/GD32VW553/V1_MQTT_OK/GD32VW55X_Wifi_BLE_SDK/GD32VW55x_RELEASE_V1.0.2/MSDK/wpa_supplicant/src/ap\pmksa_cache_auth.c **** 		/* Remove the oldest entry to make room for the new entry */
 1354              		.loc 1 380 52 discriminator 1
 1355 003a 0DCE     		beq	a2,zero,.L174
 382:C:/Users/stapi/OneDrive/Desktop/GD32VW553/V1_MQTT_OK/GD32VW55X_Wifi_BLE_SDK/GD32VW55x_RELEASE_V1.0.2/MSDK/wpa_supplicant/src/ap\pmksa_cache_auth.c **** 			   "entry (for " MACSTR ") to make room for new one",
 1356              		.loc 1 382 3 is_stmt 1
 1357 003c 83489606 		lbu	a7,105(a2)
 1358 0040 03488606 		lbu	a6,104(a2)
 1359 0044 83477606 		lbu	a5,103(a2)
 1360 0048 03476606 		lbu	a4,102(a2)
 1361 004c 83465606 		lbu	a3,101(a2)
 1362 0050 03464606 		lbu	a2,100(a2)
 1363 0054 B7050000 		lui	a1,%hi(.LC6)
 1364 0058 93850500 		addi	a1,a1,%lo(.LC6)
 1365 005c 0945     		li	a0,2
 1366 005e 97000000 		call	wpa_printf
 1366      E7800000 
 1367              	.LVL137:
 385:C:/Users/stapi/OneDrive/Desktop/GD32VW553/V1_MQTT_OK/GD32VW55X_Wifi_BLE_SDK/GD32VW55x_RELEASE_V1.0.2/MSDK/wpa_supplicant/src/ap\pmksa_cache_auth.c **** 	}
 1368              		.loc 1 385 3
 1369 0066 83250420 		lw	a1,512(s0)
 1370 006a 2285     		mv	a0,s0
 1371 006c 97000000 		call	pmksa_cache_free_entry
 1371      E7800000 
 1372              	.LVL138:
 1373              	.L174:
 388:C:/Users/stapi/OneDrive/Desktop/GD32VW553/V1_MQTT_OK/GD32VW55X_Wifi_BLE_SDK/GD32VW55x_RELEASE_V1.0.2/MSDK/wpa_supplicant/src/ap\pmksa_cache_auth.c **** 
 1374              		.loc 1 388 2
 1375 0074 2285     		mv	a0,s0
 1376 0076 A685     		mv	a1,s1
 1377 0078 97000000 		call	pmksa_cache_link_entry
 1377      E7800000 
 1378              	.LVL139:
 390:C:/Users/stapi/OneDrive/Desktop/GD32VW553/V1_MQTT_OK/GD32VW55X_Wifi_BLE_SDK/GD32VW55x_RELEASE_V1.0.2/MSDK/wpa_supplicant/src/ap\pmksa_cache_auth.c **** }
 1379              		.loc 1 390 2
 390:C:/Users/stapi/OneDrive/Desktop/GD32VW553/V1_MQTT_OK/GD32VW55X_Wifi_BLE_SDK/GD32VW55x_RELEASE_V1.0.2/MSDK/wpa_supplicant/src/ap\pmksa_cache_auth.c **** }
 1380              		.loc 1 390 9 is_stmt 0
 1381 0080 0145     		li	a0,0
 391:C:/Users/stapi/OneDrive/Desktop/GD32VW553/V1_MQTT_OK/GD32VW55X_Wifi_BLE_SDK/GD32VW55x_RELEASE_V1.0.2/MSDK/wpa_supplicant/src/ap\pmksa_cache_auth.c **** 
 1382              		.loc 1 391 1
 1383 0082 17030000 		tail	__riscv_restore_2
 1383      67000300 
 1384              		.cfi_restore 9
 1385              		.cfi_restore 8
 1386              		.cfi_restore 1
 1387              		.cfi_def_cfa_offset 0
 1388              	.LVL140:
 1389              	.L175:
 372:C:/Users/stapi/OneDrive/Desktop/GD32VW553/V1_MQTT_OK/GD32VW55X_Wifi_BLE_SDK/GD32VW55x_RELEASE_V1.0.2/MSDK/wpa_supplicant/src/ap\pmksa_cache_auth.c **** 
 1390              		.loc 1 372 10
 1391 008a 7D55     		li	a0,-1
 1392              	.LVL141:
 391:C:/Users/stapi/OneDrive/Desktop/GD32VW553/V1_MQTT_OK/GD32VW55X_Wifi_BLE_SDK/GD32VW55x_RELEASE_V1.0.2/MSDK/wpa_supplicant/src/ap\pmksa_cache_auth.c **** 
 1393              		.loc 1 391 1
 1394 008c 8280     		ret
 1395              		.cfi_endproc
 1396              	.LFE146:
 1398              		.section	.text.pmksa_cache_auth_add,"ax",@progbits
 1399              		.align	1
 1400              		.globl	pmksa_cache_auth_add
 1402              	pmksa_cache_auth_add:
 1403              	.LFB144:
 285:C:/Users/stapi/OneDrive/Desktop/GD32VW553/V1_MQTT_OK/GD32VW55X_Wifi_BLE_SDK/GD32VW55x_RELEASE_V1.0.2/MSDK/wpa_supplicant/src/ap\pmksa_cache_auth.c **** 	struct rsn_pmksa_cache_entry *entry;
 1404              		.loc 1 285 1 is_stmt 1
 1405              		.cfi_startproc
 1406              	.LVL142:
 1407 0000 17030000 		call	t0,__riscv_save_2
 1407      E7020300 
 1408              		.cfi_offset 9, -12
 1409              		.cfi_offset 8, -8
 1410              		.cfi_offset 1, -4
 1411              		.cfi_def_cfa_offset 16
 286:C:/Users/stapi/OneDrive/Desktop/GD32VW553/V1_MQTT_OK/GD32VW55X_Wifi_BLE_SDK/GD32VW55x_RELEASE_V1.0.2/MSDK/wpa_supplicant/src/ap\pmksa_cache_auth.c **** 
 1412              		.loc 1 286 2
 288:C:/Users/stapi/OneDrive/Desktop/GD32VW553/V1_MQTT_OK/GD32VW55X_Wifi_BLE_SDK/GD32VW55x_RELEASE_V1.0.2/MSDK/wpa_supplicant/src/ap\pmksa_cache_auth.c **** 					      aa, spa, session_timeout, eapol,
 1413              		.loc 1 288 2
 285:C:/Users/stapi/OneDrive/Desktop/GD32VW553/V1_MQTT_OK/GD32VW55X_Wifi_BLE_SDK/GD32VW55x_RELEASE_V1.0.2/MSDK/wpa_supplicant/src/ap\pmksa_cache_auth.c **** 	struct rsn_pmksa_cache_entry *entry;
 1414              		.loc 1 285 1 is_stmt 0
 1415 0008 4111     		addi	sp,sp,-16
 1416              		.cfi_def_cfa_offset 32
 285:C:/Users/stapi/OneDrive/Desktop/GD32VW553/V1_MQTT_OK/GD32VW55X_Wifi_BLE_SDK/GD32VW55x_RELEASE_V1.0.2/MSDK/wpa_supplicant/src/ap\pmksa_cache_auth.c **** 	struct rsn_pmksa_cache_entry *entry;
 1417              		.loc 1 285 1
 1418 000a AA84     		mv	s1,a0
 1419 000c 2E85     		mv	a0,a1
 1420              	.LVL143:
 1421 000e B285     		mv	a1,a2
 1422              	.LVL144:
 1423 0010 3686     		mv	a2,a3
 1424              	.LVL145:
 1425 0012 BA86     		mv	a3,a4
 1426              	.LVL146:
 1427 0014 3E87     		mv	a4,a5
 1428              	.LVL147:
 1429 0016 C287     		mv	a5,a6
 1430              	.LVL148:
 1431 0018 4688     		mv	a6,a7
 1432              	.LVL149:
 288:C:/Users/stapi/OneDrive/Desktop/GD32VW553/V1_MQTT_OK/GD32VW55X_Wifi_BLE_SDK/GD32VW55x_RELEASE_V1.0.2/MSDK/wpa_supplicant/src/ap\pmksa_cache_auth.c **** 					      aa, spa, session_timeout, eapol,
 1433              		.loc 1 288 10
 1434 001a A258     		lw	a7,40(sp)
 1435              	.LVL150:
 1436 001c 46C2     		sw	a7,4(sp)
 1437 001e 9258     		lw	a7,36(sp)
 1438 0020 46C0     		sw	a7,0(sp)
 1439 0022 8258     		lw	a7,32(sp)
 1440 0024 97000000 		call	pmksa_cache_auth_create_entry
 1440      E7800000 
 1441              	.LVL151:
 1442 002c 2A84     		mv	s0,a0
 1443              	.LVL152:
 292:C:/Users/stapi/OneDrive/Desktop/GD32VW553/V1_MQTT_OK/GD32VW55X_Wifi_BLE_SDK/GD32VW55x_RELEASE_V1.0.2/MSDK/wpa_supplicant/src/ap\pmksa_cache_auth.c **** 		return NULL;
 1444              		.loc 1 292 2 is_stmt 1
 292:C:/Users/stapi/OneDrive/Desktop/GD32VW553/V1_MQTT_OK/GD32VW55X_Wifi_BLE_SDK/GD32VW55x_RELEASE_V1.0.2/MSDK/wpa_supplicant/src/ap\pmksa_cache_auth.c **** 		return NULL;
 1445              		.loc 1 292 6 is_stmt 0
 1446 002e AA85     		mv	a1,a0
 1447 0030 2685     		mv	a0,s1
 1448 0032 97000000 		call	pmksa_cache_auth_add_entry
 1448      E7800000 
 1449              	.LVL153:
 292:C:/Users/stapi/OneDrive/Desktop/GD32VW553/V1_MQTT_OK/GD32VW55X_Wifi_BLE_SDK/GD32VW55x_RELEASE_V1.0.2/MSDK/wpa_supplicant/src/ap\pmksa_cache_auth.c **** 		return NULL;
 1450              		.loc 1 292 5
 1451 003a 63530500 		bge	a0,zero,.L186
 293:C:/Users/stapi/OneDrive/Desktop/GD32VW553/V1_MQTT_OK/GD32VW55X_Wifi_BLE_SDK/GD32VW55x_RELEASE_V1.0.2/MSDK/wpa_supplicant/src/ap\pmksa_cache_auth.c **** 
 1452              		.loc 1 293 10
 1453 003e 0144     		li	s0,0
 1454              	.LVL154:
 1455              	.L186:
 296:C:/Users/stapi/OneDrive/Desktop/GD32VW553/V1_MQTT_OK/GD32VW55X_Wifi_BLE_SDK/GD32VW55x_RELEASE_V1.0.2/MSDK/wpa_supplicant/src/ap\pmksa_cache_auth.c **** 
 1456              		.loc 1 296 1
 1457 0040 2285     		mv	a0,s0
 1458 0042 4101     		addi	sp,sp,16
 1459              		.cfi_def_cfa_offset 0
 1460              	.LVL155:
 1461 0044 17030000 		tail	__riscv_restore_2
 1461      67000300 
 1462              		.cfi_restore 9
 1463              		.cfi_restore 8
 1464              		.cfi_restore 1
 1465              		.cfi_def_cfa_offset -16
 1466              		.cfi_endproc
 1467              	.LFE144:
 1469              		.section	.text.pmksa_cache_get_okc,"ax",@progbits
 1470              		.align	1
 1471              		.globl	pmksa_cache_get_okc
 1473              	pmksa_cache_get_okc:
 1474              	.LFB150:
 498:C:/Users/stapi/OneDrive/Desktop/GD32VW553/V1_MQTT_OK/GD32VW55X_Wifi_BLE_SDK/GD32VW55x_RELEASE_V1.0.2/MSDK/wpa_supplicant/src/ap\pmksa_cache_auth.c **** 
 499:C:/Users/stapi/OneDrive/Desktop/GD32VW553/V1_MQTT_OK/GD32VW55X_Wifi_BLE_SDK/GD32VW55x_RELEASE_V1.0.2/MSDK/wpa_supplicant/src/ap\pmksa_cache_auth.c **** 
 500:C:/Users/stapi/OneDrive/Desktop/GD32VW553/V1_MQTT_OK/GD32VW55X_Wifi_BLE_SDK/GD32VW55x_RELEASE_V1.0.2/MSDK/wpa_supplicant/src/ap\pmksa_cache_auth.c **** /**
 501:C:/Users/stapi/OneDrive/Desktop/GD32VW553/V1_MQTT_OK/GD32VW55X_Wifi_BLE_SDK/GD32VW55x_RELEASE_V1.0.2/MSDK/wpa_supplicant/src/ap\pmksa_cache_auth.c ****  * pmksa_cache_get_okc - Fetch a PMKSA cache entry using OKC
 502:C:/Users/stapi/OneDrive/Desktop/GD32VW553/V1_MQTT_OK/GD32VW55X_Wifi_BLE_SDK/GD32VW55x_RELEASE_V1.0.2/MSDK/wpa_supplicant/src/ap\pmksa_cache_auth.c ****  * @pmksa: Pointer to PMKSA cache data from pmksa_cache_auth_init()
 503:C:/Users/stapi/OneDrive/Desktop/GD32VW553/V1_MQTT_OK/GD32VW55X_Wifi_BLE_SDK/GD32VW55x_RELEASE_V1.0.2/MSDK/wpa_supplicant/src/ap\pmksa_cache_auth.c ****  * @aa: Authenticator address
 504:C:/Users/stapi/OneDrive/Desktop/GD32VW553/V1_MQTT_OK/GD32VW55X_Wifi_BLE_SDK/GD32VW55x_RELEASE_V1.0.2/MSDK/wpa_supplicant/src/ap\pmksa_cache_auth.c ****  * @spa: Supplicant address
 505:C:/Users/stapi/OneDrive/Desktop/GD32VW553/V1_MQTT_OK/GD32VW55X_Wifi_BLE_SDK/GD32VW55x_RELEASE_V1.0.2/MSDK/wpa_supplicant/src/ap\pmksa_cache_auth.c ****  * @pmkid: PMKID
 506:C:/Users/stapi/OneDrive/Desktop/GD32VW553/V1_MQTT_OK/GD32VW55X_Wifi_BLE_SDK/GD32VW55x_RELEASE_V1.0.2/MSDK/wpa_supplicant/src/ap\pmksa_cache_auth.c ****  * Returns: Pointer to PMKSA cache entry or %NULL if no match was found
 507:C:/Users/stapi/OneDrive/Desktop/GD32VW553/V1_MQTT_OK/GD32VW55X_Wifi_BLE_SDK/GD32VW55x_RELEASE_V1.0.2/MSDK/wpa_supplicant/src/ap\pmksa_cache_auth.c ****  *
 508:C:/Users/stapi/OneDrive/Desktop/GD32VW553/V1_MQTT_OK/GD32VW55X_Wifi_BLE_SDK/GD32VW55x_RELEASE_V1.0.2/MSDK/wpa_supplicant/src/ap\pmksa_cache_auth.c ****  * Use opportunistic key caching (OKC) to find a PMK for a supplicant.
 509:C:/Users/stapi/OneDrive/Desktop/GD32VW553/V1_MQTT_OK/GD32VW55X_Wifi_BLE_SDK/GD32VW55x_RELEASE_V1.0.2/MSDK/wpa_supplicant/src/ap\pmksa_cache_auth.c ****  */
 510:C:/Users/stapi/OneDrive/Desktop/GD32VW553/V1_MQTT_OK/GD32VW55X_Wifi_BLE_SDK/GD32VW55x_RELEASE_V1.0.2/MSDK/wpa_supplicant/src/ap\pmksa_cache_auth.c **** struct rsn_pmksa_cache_entry * pmksa_cache_get_okc(
 511:C:/Users/stapi/OneDrive/Desktop/GD32VW553/V1_MQTT_OK/GD32VW55X_Wifi_BLE_SDK/GD32VW55x_RELEASE_V1.0.2/MSDK/wpa_supplicant/src/ap\pmksa_cache_auth.c **** 	struct rsn_pmksa_cache *pmksa, const u8 *aa, const u8 *spa,
 512:C:/Users/stapi/OneDrive/Desktop/GD32VW553/V1_MQTT_OK/GD32VW55X_Wifi_BLE_SDK/GD32VW55x_RELEASE_V1.0.2/MSDK/wpa_supplicant/src/ap\pmksa_cache_auth.c **** 	const u8 *pmkid)
 513:C:/Users/stapi/OneDrive/Desktop/GD32VW553/V1_MQTT_OK/GD32VW55X_Wifi_BLE_SDK/GD32VW55x_RELEASE_V1.0.2/MSDK/wpa_supplicant/src/ap\pmksa_cache_auth.c **** {
 1475              		.loc 1 513 1 is_stmt 1
 1476              		.cfi_startproc
 1477              	.LVL156:
 1478 0000 17030000 		call	t0,__riscv_save_5
 1478      E7020300 
 1479              		.cfi_offset 20, -24
 1480              		.cfi_offset 19, -20
 1481              		.cfi_offset 18, -16
 1482              		.cfi_offset 9, -12
 1483              		.cfi_offset 8, -8
 1484              		.cfi_offset 1, -4
 1485              		.cfi_def_cfa_offset 32
 514:C:/Users/stapi/OneDrive/Desktop/GD32VW553/V1_MQTT_OK/GD32VW55X_Wifi_BLE_SDK/GD32VW55x_RELEASE_V1.0.2/MSDK/wpa_supplicant/src/ap\pmksa_cache_auth.c **** 	struct rsn_pmksa_cache_entry *entry;
 1486              		.loc 1 514 2
 515:C:/Users/stapi/OneDrive/Desktop/GD32VW553/V1_MQTT_OK/GD32VW55X_Wifi_BLE_SDK/GD32VW55x_RELEASE_V1.0.2/MSDK/wpa_supplicant/src/ap\pmksa_cache_auth.c **** 	u8 new_pmkid[PMKID_LEN];
 1487              		.loc 1 515 2
 516:C:/Users/stapi/OneDrive/Desktop/GD32VW553/V1_MQTT_OK/GD32VW55X_Wifi_BLE_SDK/GD32VW55x_RELEASE_V1.0.2/MSDK/wpa_supplicant/src/ap\pmksa_cache_auth.c **** 
 517:C:/Users/stapi/OneDrive/Desktop/GD32VW553/V1_MQTT_OK/GD32VW55X_Wifi_BLE_SDK/GD32VW55x_RELEASE_V1.0.2/MSDK/wpa_supplicant/src/ap\pmksa_cache_auth.c **** 	for (entry = pmksa->pmksa; entry; entry = entry->next) {
 1488              		.loc 1 517 2
 1489              		.loc 1 517 13 is_stmt 0
 1490 0008 03240520 		lw	s0,512(a0)
 1491              	.LVL157:
 518:C:/Users/stapi/OneDrive/Desktop/GD32VW553/V1_MQTT_OK/GD32VW55X_Wifi_BLE_SDK/GD32VW55x_RELEASE_V1.0.2/MSDK/wpa_supplicant/src/ap\pmksa_cache_auth.c **** 		if (os_memcmp(entry->spa, spa, ETH_ALEN) != 0)
 519:C:/Users/stapi/OneDrive/Desktop/GD32VW553/V1_MQTT_OK/GD32VW55X_Wifi_BLE_SDK/GD32VW55x_RELEASE_V1.0.2/MSDK/wpa_supplicant/src/ap\pmksa_cache_auth.c **** 			continue;
 520:C:/Users/stapi/OneDrive/Desktop/GD32VW553/V1_MQTT_OK/GD32VW55X_Wifi_BLE_SDK/GD32VW55x_RELEASE_V1.0.2/MSDK/wpa_supplicant/src/ap\pmksa_cache_auth.c **** 		if (wpa_key_mgmt_sae(entry->akmp) ||
 1492              		.loc 1 520 37
 1493 000c 371A3C00 		li	s4,3936256
 513:C:/Users/stapi/OneDrive/Desktop/GD32VW553/V1_MQTT_OK/GD32VW55X_Wifi_BLE_SDK/GD32VW55x_RELEASE_V1.0.2/MSDK/wpa_supplicant/src/ap\pmksa_cache_auth.c **** 	struct rsn_pmksa_cache_entry *entry;
 1494              		.loc 1 513 1
 1495 0010 4111     		addi	sp,sp,-16
 1496              		.cfi_def_cfa_offset 48
 513:C:/Users/stapi/OneDrive/Desktop/GD32VW553/V1_MQTT_OK/GD32VW55X_Wifi_BLE_SDK/GD32VW55x_RELEASE_V1.0.2/MSDK/wpa_supplicant/src/ap\pmksa_cache_auth.c **** 	struct rsn_pmksa_cache_entry *entry;
 1497              		.loc 1 513 1
 1498 0012 AE89     		mv	s3,a1
 1499 0014 B284     		mv	s1,a2
 1500 0016 3689     		mv	s2,a3
 1501              		.loc 1 520 37
 1502 0018 130A0AC0 		addi	s4,s4,-1024
 1503              	.LVL158:
 1504              	.L190:
 517:C:/Users/stapi/OneDrive/Desktop/GD32VW553/V1_MQTT_OK/GD32VW55X_Wifi_BLE_SDK/GD32VW55x_RELEASE_V1.0.2/MSDK/wpa_supplicant/src/ap\pmksa_cache_auth.c **** 		if (os_memcmp(entry->spa, spa, ETH_ALEN) != 0)
 1505              		.loc 1 517 29 is_stmt 1 discriminator 1
 517:C:/Users/stapi/OneDrive/Desktop/GD32VW553/V1_MQTT_OK/GD32VW55X_Wifi_BLE_SDK/GD32VW55x_RELEASE_V1.0.2/MSDK/wpa_supplicant/src/ap\pmksa_cache_auth.c **** 		if (os_memcmp(entry->spa, spa, ETH_ALEN) != 0)
 1506              		.loc 1 517 2 is_stmt 0 discriminator 1
 1507 001c 0DC8     		beq	s0,zero,.L189
 518:C:/Users/stapi/OneDrive/Desktop/GD32VW553/V1_MQTT_OK/GD32VW55X_Wifi_BLE_SDK/GD32VW55x_RELEASE_V1.0.2/MSDK/wpa_supplicant/src/ap\pmksa_cache_auth.c **** 		if (os_memcmp(entry->spa, spa, ETH_ALEN) != 0)
 1508              		.loc 1 518 3 is_stmt 1
 518:C:/Users/stapi/OneDrive/Desktop/GD32VW553/V1_MQTT_OK/GD32VW55X_Wifi_BLE_SDK/GD32VW55x_RELEASE_V1.0.2/MSDK/wpa_supplicant/src/ap\pmksa_cache_auth.c **** 		if (os_memcmp(entry->spa, spa, ETH_ALEN) != 0)
 1509              		.loc 1 518 7 is_stmt 0
 1510 001e 1946     		li	a2,6
 1511 0020 A685     		mv	a1,s1
 1512 0022 13054406 		addi	a0,s0,100
 1513 0026 97000000 		call	os_memcmp
 1513      E7800000 
 1514              	.LVL159:
 518:C:/Users/stapi/OneDrive/Desktop/GD32VW553/V1_MQTT_OK/GD32VW55X_Wifi_BLE_SDK/GD32VW55x_RELEASE_V1.0.2/MSDK/wpa_supplicant/src/ap\pmksa_cache_auth.c **** 		if (os_memcmp(entry->spa, spa, ETH_ALEN) != 0)
 1515              		.loc 1 518 6
 1516 002e 19C1     		beq	a0,zero,.L191
 1517              	.L194:
 517:C:/Users/stapi/OneDrive/Desktop/GD32VW553/V1_MQTT_OK/GD32VW55X_Wifi_BLE_SDK/GD32VW55x_RELEASE_V1.0.2/MSDK/wpa_supplicant/src/ap\pmksa_cache_auth.c **** 		if (os_memcmp(entry->spa, spa, ETH_ALEN) != 0)
 1518              		.loc 1 517 36 is_stmt 1
 517:C:/Users/stapi/OneDrive/Desktop/GD32VW553/V1_MQTT_OK/GD32VW55X_Wifi_BLE_SDK/GD32VW55x_RELEASE_V1.0.2/MSDK/wpa_supplicant/src/ap\pmksa_cache_auth.c **** 		if (os_memcmp(entry->spa, spa, ETH_ALEN) != 0)
 1519              		.loc 1 517 42 is_stmt 0
 1520 0030 0040     		lw	s0,0(s0)
 1521              	.LVL160:
 1522 0032 EDB7     		j	.L190
 1523              	.L191:
 1524              		.loc 1 520 3 is_stmt 1
 1525              		.loc 1 520 7 is_stmt 0
 1526 0034 3C50     		lw	a5,96(s0)
 1527              	.LVL161:
 1528              	.LBB41:
 1529              	.LBB42:
 113:..\..\..\..\wpa_supplicant\src/common/defs.h **** 			 WPA_KEY_MGMT_FT_SAE));
 1530              		.loc 2 113 2 is_stmt 1
 1531              	.LBE42:
 1532              	.LBE41:
 119:..\..\..\..\wpa_supplicant\src/common/defs.h **** 			 WPA_KEY_MGMT_FILS_SHA384 |
 1533              		.loc 2 119 2
 1534              		.loc 1 520 37 is_stmt 0
 1535 0036 33F74701 		and	a4,a5,s4
 1536 003a 05C3     		beq	a4,zero,.L192
 521:C:/Users/stapi/OneDrive/Desktop/GD32VW553/V1_MQTT_OK/GD32VW55X_Wifi_BLE_SDK/GD32VW55x_RELEASE_V1.0.2/MSDK/wpa_supplicant/src/ap\pmksa_cache_auth.c **** 		    wpa_key_mgmt_fils(entry->akmp)) {
 522:C:/Users/stapi/OneDrive/Desktop/GD32VW553/V1_MQTT_OK/GD32VW55X_Wifi_BLE_SDK/GD32VW55x_RELEASE_V1.0.2/MSDK/wpa_supplicant/src/ap\pmksa_cache_auth.c **** 			if (os_memcmp(entry->pmkid, pmkid, PMKID_LEN) == 0)
 1537              		.loc 1 522 4 is_stmt 1
 1538              		.loc 1 522 8 is_stmt 0
 1539 003c 4146     		li	a2,16
 1540 003e CA85     		mv	a1,s2
 1541 0040 13058400 		addi	a0,s0,8
 1542              	.LVL162:
 1543              	.L204:
 523:C:/Users/stapi/OneDrive/Desktop/GD32VW553/V1_MQTT_OK/GD32VW55X_Wifi_BLE_SDK/GD32VW55x_RELEASE_V1.0.2/MSDK/wpa_supplicant/src/ap\pmksa_cache_auth.c **** 				return entry;
 524:C:/Users/stapi/OneDrive/Desktop/GD32VW553/V1_MQTT_OK/GD32VW55X_Wifi_BLE_SDK/GD32VW55x_RELEASE_V1.0.2/MSDK/wpa_supplicant/src/ap\pmksa_cache_auth.c **** 			continue;
 525:C:/Users/stapi/OneDrive/Desktop/GD32VW553/V1_MQTT_OK/GD32VW55X_Wifi_BLE_SDK/GD32VW55x_RELEASE_V1.0.2/MSDK/wpa_supplicant/src/ap\pmksa_cache_auth.c **** 		}
 526:C:/Users/stapi/OneDrive/Desktop/GD32VW553/V1_MQTT_OK/GD32VW55X_Wifi_BLE_SDK/GD32VW55x_RELEASE_V1.0.2/MSDK/wpa_supplicant/src/ap\pmksa_cache_auth.c **** 		rsn_pmkid(entry->pmk, entry->pmk_len, aa, spa, new_pmkid,
 527:C:/Users/stapi/OneDrive/Desktop/GD32VW553/V1_MQTT_OK/GD32VW55X_Wifi_BLE_SDK/GD32VW55x_RELEASE_V1.0.2/MSDK/wpa_supplicant/src/ap\pmksa_cache_auth.c **** 			  entry->akmp);
 528:C:/Users/stapi/OneDrive/Desktop/GD32VW553/V1_MQTT_OK/GD32VW55X_Wifi_BLE_SDK/GD32VW55x_RELEASE_V1.0.2/MSDK/wpa_supplicant/src/ap\pmksa_cache_auth.c **** 		if (os_memcmp(new_pmkid, pmkid, PMKID_LEN) == 0)
 1544              		.loc 1 528 7
 1545 0044 97000000 		call	os_memcmp
 1545      E7800000 
 1546              	.LVL163:
 1547              		.loc 1 528 6
 1548 004c 75F1     		bne	a0,zero,.L194
 1549              	.L189:
 529:C:/Users/stapi/OneDrive/Desktop/GD32VW553/V1_MQTT_OK/GD32VW55X_Wifi_BLE_SDK/GD32VW55x_RELEASE_V1.0.2/MSDK/wpa_supplicant/src/ap\pmksa_cache_auth.c **** 			return entry;
 530:C:/Users/stapi/OneDrive/Desktop/GD32VW553/V1_MQTT_OK/GD32VW55X_Wifi_BLE_SDK/GD32VW55x_RELEASE_V1.0.2/MSDK/wpa_supplicant/src/ap\pmksa_cache_auth.c **** 	}
 531:C:/Users/stapi/OneDrive/Desktop/GD32VW553/V1_MQTT_OK/GD32VW55X_Wifi_BLE_SDK/GD32VW55x_RELEASE_V1.0.2/MSDK/wpa_supplicant/src/ap\pmksa_cache_auth.c **** 	return NULL;
 532:C:/Users/stapi/OneDrive/Desktop/GD32VW553/V1_MQTT_OK/GD32VW55X_Wifi_BLE_SDK/GD32VW55x_RELEASE_V1.0.2/MSDK/wpa_supplicant/src/ap\pmksa_cache_auth.c **** }
 1550              		.loc 1 532 1
 1551 004e 2285     		mv	a0,s0
 1552 0050 4101     		addi	sp,sp,16
 1553              		.cfi_remember_state
 1554              		.cfi_def_cfa_offset 0
 1555 0052 17030000 		tail	__riscv_restore_5
 1555      67000300 
 1556              		.cfi_restore 20
 1557              		.cfi_restore 19
 1558              		.cfi_restore 18
 1559              		.cfi_restore 9
 1560              		.cfi_restore 8
 1561              		.cfi_restore 1
 1562              		.cfi_def_cfa_offset -32
 1563              	.L192:
 1564              		.cfi_restore_state
 526:C:/Users/stapi/OneDrive/Desktop/GD32VW553/V1_MQTT_OK/GD32VW55X_Wifi_BLE_SDK/GD32VW55x_RELEASE_V1.0.2/MSDK/wpa_supplicant/src/ap\pmksa_cache_auth.c **** 			  entry->akmp);
 1565              		.loc 1 526 3 is_stmt 1
 1566 005a 2C4C     		lw	a1,88(s0)
 1567 005c 4E86     		mv	a2,s3
 1568 005e 13058401 		addi	a0,s0,24
 1569 0062 0A87     		mv	a4,sp
 1570 0064 A686     		mv	a3,s1
 1571 0066 97000000 		call	rsn_pmkid
 1571      E7800000 
 1572              	.LVL164:
 528:C:/Users/stapi/OneDrive/Desktop/GD32VW553/V1_MQTT_OK/GD32VW55X_Wifi_BLE_SDK/GD32VW55x_RELEASE_V1.0.2/MSDK/wpa_supplicant/src/ap\pmksa_cache_auth.c **** 			return entry;
 1573              		.loc 1 528 3
 528:C:/Users/stapi/OneDrive/Desktop/GD32VW553/V1_MQTT_OK/GD32VW55X_Wifi_BLE_SDK/GD32VW55x_RELEASE_V1.0.2/MSDK/wpa_supplicant/src/ap\pmksa_cache_auth.c **** 			return entry;
 1574              		.loc 1 528 7 is_stmt 0
 1575 006e 4146     		li	a2,16
 1576 0070 CA85     		mv	a1,s2
 1577 0072 0A85     		mv	a0,sp
 1578 0074 C1BF     		j	.L204
 1579              		.cfi_endproc
 1580              	.LFE150:
 1582              		.section	.text.pmksa_cache_auth_init,"ax",@progbits
 1583              		.align	1
 1584              		.globl	pmksa_cache_auth_init
 1586              	pmksa_cache_auth_init:
 1587              	.LFB151:
 533:C:/Users/stapi/OneDrive/Desktop/GD32VW553/V1_MQTT_OK/GD32VW55X_Wifi_BLE_SDK/GD32VW55x_RELEASE_V1.0.2/MSDK/wpa_supplicant/src/ap\pmksa_cache_auth.c **** 
 534:C:/Users/stapi/OneDrive/Desktop/GD32VW553/V1_MQTT_OK/GD32VW55X_Wifi_BLE_SDK/GD32VW55x_RELEASE_V1.0.2/MSDK/wpa_supplicant/src/ap\pmksa_cache_auth.c **** 
 535:C:/Users/stapi/OneDrive/Desktop/GD32VW553/V1_MQTT_OK/GD32VW55X_Wifi_BLE_SDK/GD32VW55x_RELEASE_V1.0.2/MSDK/wpa_supplicant/src/ap\pmksa_cache_auth.c **** /**
 536:C:/Users/stapi/OneDrive/Desktop/GD32VW553/V1_MQTT_OK/GD32VW55X_Wifi_BLE_SDK/GD32VW55x_RELEASE_V1.0.2/MSDK/wpa_supplicant/src/ap\pmksa_cache_auth.c ****  * pmksa_cache_auth_init - Initialize PMKSA cache
 537:C:/Users/stapi/OneDrive/Desktop/GD32VW553/V1_MQTT_OK/GD32VW55X_Wifi_BLE_SDK/GD32VW55x_RELEASE_V1.0.2/MSDK/wpa_supplicant/src/ap\pmksa_cache_auth.c ****  * @free_cb: Callback function to be called when a PMKSA cache entry is freed
 538:C:/Users/stapi/OneDrive/Desktop/GD32VW553/V1_MQTT_OK/GD32VW55X_Wifi_BLE_SDK/GD32VW55x_RELEASE_V1.0.2/MSDK/wpa_supplicant/src/ap\pmksa_cache_auth.c ****  * @ctx: Context pointer for free_cb function
 539:C:/Users/stapi/OneDrive/Desktop/GD32VW553/V1_MQTT_OK/GD32VW55X_Wifi_BLE_SDK/GD32VW55x_RELEASE_V1.0.2/MSDK/wpa_supplicant/src/ap\pmksa_cache_auth.c ****  * Returns: Pointer to PMKSA cache data or %NULL on failure
 540:C:/Users/stapi/OneDrive/Desktop/GD32VW553/V1_MQTT_OK/GD32VW55X_Wifi_BLE_SDK/GD32VW55x_RELEASE_V1.0.2/MSDK/wpa_supplicant/src/ap\pmksa_cache_auth.c ****  */
 541:C:/Users/stapi/OneDrive/Desktop/GD32VW553/V1_MQTT_OK/GD32VW55X_Wifi_BLE_SDK/GD32VW55x_RELEASE_V1.0.2/MSDK/wpa_supplicant/src/ap\pmksa_cache_auth.c **** struct rsn_pmksa_cache *
 542:C:/Users/stapi/OneDrive/Desktop/GD32VW553/V1_MQTT_OK/GD32VW55X_Wifi_BLE_SDK/GD32VW55x_RELEASE_V1.0.2/MSDK/wpa_supplicant/src/ap\pmksa_cache_auth.c **** pmksa_cache_auth_init(void (*free_cb)(struct rsn_pmksa_cache_entry *entry,
 543:C:/Users/stapi/OneDrive/Desktop/GD32VW553/V1_MQTT_OK/GD32VW55X_Wifi_BLE_SDK/GD32VW55x_RELEASE_V1.0.2/MSDK/wpa_supplicant/src/ap\pmksa_cache_auth.c **** 				      void *ctx), void *ctx)
 544:C:/Users/stapi/OneDrive/Desktop/GD32VW553/V1_MQTT_OK/GD32VW55X_Wifi_BLE_SDK/GD32VW55x_RELEASE_V1.0.2/MSDK/wpa_supplicant/src/ap\pmksa_cache_auth.c **** {
 1588              		.loc 1 544 1 is_stmt 1
 1589              		.cfi_startproc
 1590              	.LVL165:
 1591 0000 17030000 		call	t0,__riscv_save_2
 1591      E7020300 
 1592              		.cfi_offset 9, -12
 1593              		.cfi_offset 8, -8
 1594              		.cfi_offset 1, -4
 1595              		.cfi_def_cfa_offset 16
 545:C:/Users/stapi/OneDrive/Desktop/GD32VW553/V1_MQTT_OK/GD32VW55X_Wifi_BLE_SDK/GD32VW55x_RELEASE_V1.0.2/MSDK/wpa_supplicant/src/ap\pmksa_cache_auth.c **** 	struct rsn_pmksa_cache *pmksa;
 1596              		.loc 1 545 2
 546:C:/Users/stapi/OneDrive/Desktop/GD32VW553/V1_MQTT_OK/GD32VW55X_Wifi_BLE_SDK/GD32VW55x_RELEASE_V1.0.2/MSDK/wpa_supplicant/src/ap\pmksa_cache_auth.c **** 
 547:C:/Users/stapi/OneDrive/Desktop/GD32VW553/V1_MQTT_OK/GD32VW55X_Wifi_BLE_SDK/GD32VW55x_RELEASE_V1.0.2/MSDK/wpa_supplicant/src/ap\pmksa_cache_auth.c **** 	pmksa = os_zalloc(sizeof(*pmksa));
 1597              		.loc 1 547 2
 544:C:/Users/stapi/OneDrive/Desktop/GD32VW553/V1_MQTT_OK/GD32VW55X_Wifi_BLE_SDK/GD32VW55x_RELEASE_V1.0.2/MSDK/wpa_supplicant/src/ap\pmksa_cache_auth.c **** 	struct rsn_pmksa_cache *pmksa;
 1598              		.loc 1 544 1 is_stmt 0
 1599 0008 AA84     		mv	s1,a0
 1600              		.loc 1 547 10
 1601 000a 13050021 		li	a0,528
 1602              	.LVL166:
 544:C:/Users/stapi/OneDrive/Desktop/GD32VW553/V1_MQTT_OK/GD32VW55X_Wifi_BLE_SDK/GD32VW55x_RELEASE_V1.0.2/MSDK/wpa_supplicant/src/ap\pmksa_cache_auth.c **** 	struct rsn_pmksa_cache *pmksa;
 1603              		.loc 1 544 1
 1604 000e 2E84     		mv	s0,a1
 1605              		.loc 1 547 10
 1606 0010 97000000 		call	os_zalloc
 1606      E7800000 
 1607              	.LVL167:
 548:C:/Users/stapi/OneDrive/Desktop/GD32VW553/V1_MQTT_OK/GD32VW55X_Wifi_BLE_SDK/GD32VW55x_RELEASE_V1.0.2/MSDK/wpa_supplicant/src/ap\pmksa_cache_auth.c **** 	if (pmksa) {
 1608              		.loc 1 548 2 is_stmt 1
 1609              		.loc 1 548 5 is_stmt 0
 1610 0018 09C5     		beq	a0,zero,.L205
 549:C:/Users/stapi/OneDrive/Desktop/GD32VW553/V1_MQTT_OK/GD32VW55X_Wifi_BLE_SDK/GD32VW55x_RELEASE_V1.0.2/MSDK/wpa_supplicant/src/ap\pmksa_cache_auth.c **** 		pmksa->free_cb = free_cb;
 1611              		.loc 1 549 3 is_stmt 1
 1612              		.loc 1 549 18 is_stmt 0
 1613 001a 23249520 		sw	s1,520(a0)
 550:C:/Users/stapi/OneDrive/Desktop/GD32VW553/V1_MQTT_OK/GD32VW55X_Wifi_BLE_SDK/GD32VW55x_RELEASE_V1.0.2/MSDK/wpa_supplicant/src/ap\pmksa_cache_auth.c **** 		pmksa->ctx = ctx;
 1614              		.loc 1 550 3 is_stmt 1
 1615              		.loc 1 550 14 is_stmt 0
 1616 001e 23268520 		sw	s0,524(a0)
 551:C:/Users/stapi/OneDrive/Desktop/GD32VW553/V1_MQTT_OK/GD32VW55X_Wifi_BLE_SDK/GD32VW55x_RELEASE_V1.0.2/MSDK/wpa_supplicant/src/ap\pmksa_cache_auth.c **** 	}
 552:C:/Users/stapi/OneDrive/Desktop/GD32VW553/V1_MQTT_OK/GD32VW55X_Wifi_BLE_SDK/GD32VW55x_RELEASE_V1.0.2/MSDK/wpa_supplicant/src/ap\pmksa_cache_auth.c **** 
 553:C:/Users/stapi/OneDrive/Desktop/GD32VW553/V1_MQTT_OK/GD32VW55X_Wifi_BLE_SDK/GD32VW55x_RELEASE_V1.0.2/MSDK/wpa_supplicant/src/ap\pmksa_cache_auth.c **** 	return pmksa;
 1617              		.loc 1 553 2 is_stmt 1
 1618              	.L205:
 554:C:/Users/stapi/OneDrive/Desktop/GD32VW553/V1_MQTT_OK/GD32VW55X_Wifi_BLE_SDK/GD32VW55x_RELEASE_V1.0.2/MSDK/wpa_supplicant/src/ap\pmksa_cache_auth.c **** }
 1619              		.loc 1 554 1 is_stmt 0
 1620 0022 17030000 		tail	__riscv_restore_2
 1620      67000300 
 1621              		.cfi_restore 9
 1622              		.cfi_restore 8
 1623              		.cfi_restore 1
 1624              		.cfi_def_cfa_offset 0
 1625              		.cfi_endproc
 1626              	.LFE151:
 1628              		.section	.rodata.pmksa_cache_auth_radius_das_disconnect.str1.4,"aMS",@progbits,1
 1629              		.align	2
 1630              	.LC7:
 1631 0000 25303136 		.string	"%016llX"
 1631      6C6C5800 
 1632              		.section	.text.pmksa_cache_auth_radius_das_disconnect,"ax",@progbits
 1633              		.align	1
 1634              		.globl	pmksa_cache_auth_radius_das_disconnect
 1636              	pmksa_cache_auth_radius_das_disconnect:
 1637              	.LFB153:
 555:C:/Users/stapi/OneDrive/Desktop/GD32VW553/V1_MQTT_OK/GD32VW55X_Wifi_BLE_SDK/GD32VW55x_RELEASE_V1.0.2/MSDK/wpa_supplicant/src/ap\pmksa_cache_auth.c **** 
 556:C:/Users/stapi/OneDrive/Desktop/GD32VW553/V1_MQTT_OK/GD32VW55X_Wifi_BLE_SDK/GD32VW55x_RELEASE_V1.0.2/MSDK/wpa_supplicant/src/ap\pmksa_cache_auth.c **** 
 557:C:/Users/stapi/OneDrive/Desktop/GD32VW553/V1_MQTT_OK/GD32VW55X_Wifi_BLE_SDK/GD32VW55x_RELEASE_V1.0.2/MSDK/wpa_supplicant/src/ap\pmksa_cache_auth.c **** static int das_attr_match(struct rsn_pmksa_cache_entry *entry,
 558:C:/Users/stapi/OneDrive/Desktop/GD32VW553/V1_MQTT_OK/GD32VW55X_Wifi_BLE_SDK/GD32VW55x_RELEASE_V1.0.2/MSDK/wpa_supplicant/src/ap\pmksa_cache_auth.c **** 			  struct radius_das_attrs *attr)
 559:C:/Users/stapi/OneDrive/Desktop/GD32VW553/V1_MQTT_OK/GD32VW55X_Wifi_BLE_SDK/GD32VW55x_RELEASE_V1.0.2/MSDK/wpa_supplicant/src/ap\pmksa_cache_auth.c **** {
 560:C:/Users/stapi/OneDrive/Desktop/GD32VW553/V1_MQTT_OK/GD32VW55X_Wifi_BLE_SDK/GD32VW55x_RELEASE_V1.0.2/MSDK/wpa_supplicant/src/ap\pmksa_cache_auth.c **** 	int match = 0;
 561:C:/Users/stapi/OneDrive/Desktop/GD32VW553/V1_MQTT_OK/GD32VW55X_Wifi_BLE_SDK/GD32VW55x_RELEASE_V1.0.2/MSDK/wpa_supplicant/src/ap\pmksa_cache_auth.c **** 
 562:C:/Users/stapi/OneDrive/Desktop/GD32VW553/V1_MQTT_OK/GD32VW55X_Wifi_BLE_SDK/GD32VW55x_RELEASE_V1.0.2/MSDK/wpa_supplicant/src/ap\pmksa_cache_auth.c **** 	if (attr->sta_addr) {
 563:C:/Users/stapi/OneDrive/Desktop/GD32VW553/V1_MQTT_OK/GD32VW55X_Wifi_BLE_SDK/GD32VW55x_RELEASE_V1.0.2/MSDK/wpa_supplicant/src/ap\pmksa_cache_auth.c **** 		if (os_memcmp(attr->sta_addr, entry->spa, ETH_ALEN) != 0)
 564:C:/Users/stapi/OneDrive/Desktop/GD32VW553/V1_MQTT_OK/GD32VW55X_Wifi_BLE_SDK/GD32VW55x_RELEASE_V1.0.2/MSDK/wpa_supplicant/src/ap\pmksa_cache_auth.c **** 			return 0;
 565:C:/Users/stapi/OneDrive/Desktop/GD32VW553/V1_MQTT_OK/GD32VW55X_Wifi_BLE_SDK/GD32VW55x_RELEASE_V1.0.2/MSDK/wpa_supplicant/src/ap\pmksa_cache_auth.c **** 		match++;
 566:C:/Users/stapi/OneDrive/Desktop/GD32VW553/V1_MQTT_OK/GD32VW55X_Wifi_BLE_SDK/GD32VW55x_RELEASE_V1.0.2/MSDK/wpa_supplicant/src/ap\pmksa_cache_auth.c **** 	}
 567:C:/Users/stapi/OneDrive/Desktop/GD32VW553/V1_MQTT_OK/GD32VW55X_Wifi_BLE_SDK/GD32VW55x_RELEASE_V1.0.2/MSDK/wpa_supplicant/src/ap\pmksa_cache_auth.c **** 
 568:C:/Users/stapi/OneDrive/Desktop/GD32VW553/V1_MQTT_OK/GD32VW55X_Wifi_BLE_SDK/GD32VW55x_RELEASE_V1.0.2/MSDK/wpa_supplicant/src/ap\pmksa_cache_auth.c **** 	if (attr->acct_multi_session_id) {
 569:C:/Users/stapi/OneDrive/Desktop/GD32VW553/V1_MQTT_OK/GD32VW55X_Wifi_BLE_SDK/GD32VW55x_RELEASE_V1.0.2/MSDK/wpa_supplicant/src/ap\pmksa_cache_auth.c **** 		char buf[20];
 570:C:/Users/stapi/OneDrive/Desktop/GD32VW553/V1_MQTT_OK/GD32VW55X_Wifi_BLE_SDK/GD32VW55x_RELEASE_V1.0.2/MSDK/wpa_supplicant/src/ap\pmksa_cache_auth.c **** 
 571:C:/Users/stapi/OneDrive/Desktop/GD32VW553/V1_MQTT_OK/GD32VW55X_Wifi_BLE_SDK/GD32VW55x_RELEASE_V1.0.2/MSDK/wpa_supplicant/src/ap\pmksa_cache_auth.c **** 		if (attr->acct_multi_session_id_len != 16)
 572:C:/Users/stapi/OneDrive/Desktop/GD32VW553/V1_MQTT_OK/GD32VW55X_Wifi_BLE_SDK/GD32VW55x_RELEASE_V1.0.2/MSDK/wpa_supplicant/src/ap\pmksa_cache_auth.c **** 			return 0;
 573:C:/Users/stapi/OneDrive/Desktop/GD32VW553/V1_MQTT_OK/GD32VW55X_Wifi_BLE_SDK/GD32VW55x_RELEASE_V1.0.2/MSDK/wpa_supplicant/src/ap\pmksa_cache_auth.c **** 		os_snprintf(buf, sizeof(buf), "%016llX",
 574:C:/Users/stapi/OneDrive/Desktop/GD32VW553/V1_MQTT_OK/GD32VW55X_Wifi_BLE_SDK/GD32VW55x_RELEASE_V1.0.2/MSDK/wpa_supplicant/src/ap\pmksa_cache_auth.c **** 			    (unsigned long long) entry->acct_multi_session_id);
 575:C:/Users/stapi/OneDrive/Desktop/GD32VW553/V1_MQTT_OK/GD32VW55X_Wifi_BLE_SDK/GD32VW55x_RELEASE_V1.0.2/MSDK/wpa_supplicant/src/ap\pmksa_cache_auth.c **** 		if (os_memcmp(attr->acct_multi_session_id, buf, 16) != 0)
 576:C:/Users/stapi/OneDrive/Desktop/GD32VW553/V1_MQTT_OK/GD32VW55X_Wifi_BLE_SDK/GD32VW55x_RELEASE_V1.0.2/MSDK/wpa_supplicant/src/ap\pmksa_cache_auth.c **** 			return 0;
 577:C:/Users/stapi/OneDrive/Desktop/GD32VW553/V1_MQTT_OK/GD32VW55X_Wifi_BLE_SDK/GD32VW55x_RELEASE_V1.0.2/MSDK/wpa_supplicant/src/ap\pmksa_cache_auth.c **** 		match++;
 578:C:/Users/stapi/OneDrive/Desktop/GD32VW553/V1_MQTT_OK/GD32VW55X_Wifi_BLE_SDK/GD32VW55x_RELEASE_V1.0.2/MSDK/wpa_supplicant/src/ap\pmksa_cache_auth.c **** 	}
 579:C:/Users/stapi/OneDrive/Desktop/GD32VW553/V1_MQTT_OK/GD32VW55X_Wifi_BLE_SDK/GD32VW55x_RELEASE_V1.0.2/MSDK/wpa_supplicant/src/ap\pmksa_cache_auth.c **** 
 580:C:/Users/stapi/OneDrive/Desktop/GD32VW553/V1_MQTT_OK/GD32VW55X_Wifi_BLE_SDK/GD32VW55x_RELEASE_V1.0.2/MSDK/wpa_supplicant/src/ap\pmksa_cache_auth.c **** 	if (attr->cui) {
 581:C:/Users/stapi/OneDrive/Desktop/GD32VW553/V1_MQTT_OK/GD32VW55X_Wifi_BLE_SDK/GD32VW55x_RELEASE_V1.0.2/MSDK/wpa_supplicant/src/ap\pmksa_cache_auth.c **** 		if (!entry->cui ||
 582:C:/Users/stapi/OneDrive/Desktop/GD32VW553/V1_MQTT_OK/GD32VW55X_Wifi_BLE_SDK/GD32VW55x_RELEASE_V1.0.2/MSDK/wpa_supplicant/src/ap\pmksa_cache_auth.c **** 		    attr->cui_len != wpabuf_len(entry->cui) ||
 583:C:/Users/stapi/OneDrive/Desktop/GD32VW553/V1_MQTT_OK/GD32VW55X_Wifi_BLE_SDK/GD32VW55x_RELEASE_V1.0.2/MSDK/wpa_supplicant/src/ap\pmksa_cache_auth.c **** 		    os_memcmp(attr->cui, wpabuf_head(entry->cui),
 584:C:/Users/stapi/OneDrive/Desktop/GD32VW553/V1_MQTT_OK/GD32VW55X_Wifi_BLE_SDK/GD32VW55x_RELEASE_V1.0.2/MSDK/wpa_supplicant/src/ap\pmksa_cache_auth.c **** 			      attr->cui_len) != 0)
 585:C:/Users/stapi/OneDrive/Desktop/GD32VW553/V1_MQTT_OK/GD32VW55X_Wifi_BLE_SDK/GD32VW55x_RELEASE_V1.0.2/MSDK/wpa_supplicant/src/ap\pmksa_cache_auth.c **** 			return 0;
 586:C:/Users/stapi/OneDrive/Desktop/GD32VW553/V1_MQTT_OK/GD32VW55X_Wifi_BLE_SDK/GD32VW55x_RELEASE_V1.0.2/MSDK/wpa_supplicant/src/ap\pmksa_cache_auth.c **** 		match++;
 587:C:/Users/stapi/OneDrive/Desktop/GD32VW553/V1_MQTT_OK/GD32VW55X_Wifi_BLE_SDK/GD32VW55x_RELEASE_V1.0.2/MSDK/wpa_supplicant/src/ap\pmksa_cache_auth.c **** 	}
 588:C:/Users/stapi/OneDrive/Desktop/GD32VW553/V1_MQTT_OK/GD32VW55X_Wifi_BLE_SDK/GD32VW55x_RELEASE_V1.0.2/MSDK/wpa_supplicant/src/ap\pmksa_cache_auth.c **** 
 589:C:/Users/stapi/OneDrive/Desktop/GD32VW553/V1_MQTT_OK/GD32VW55X_Wifi_BLE_SDK/GD32VW55x_RELEASE_V1.0.2/MSDK/wpa_supplicant/src/ap\pmksa_cache_auth.c **** 	if (attr->user_name) {
 590:C:/Users/stapi/OneDrive/Desktop/GD32VW553/V1_MQTT_OK/GD32VW55X_Wifi_BLE_SDK/GD32VW55x_RELEASE_V1.0.2/MSDK/wpa_supplicant/src/ap\pmksa_cache_auth.c **** 		if (!entry->identity ||
 591:C:/Users/stapi/OneDrive/Desktop/GD32VW553/V1_MQTT_OK/GD32VW55X_Wifi_BLE_SDK/GD32VW55x_RELEASE_V1.0.2/MSDK/wpa_supplicant/src/ap\pmksa_cache_auth.c **** 		    attr->user_name_len != entry->identity_len ||
 592:C:/Users/stapi/OneDrive/Desktop/GD32VW553/V1_MQTT_OK/GD32VW55X_Wifi_BLE_SDK/GD32VW55x_RELEASE_V1.0.2/MSDK/wpa_supplicant/src/ap\pmksa_cache_auth.c **** 		    os_memcmp(attr->user_name, entry->identity,
 593:C:/Users/stapi/OneDrive/Desktop/GD32VW553/V1_MQTT_OK/GD32VW55X_Wifi_BLE_SDK/GD32VW55x_RELEASE_V1.0.2/MSDK/wpa_supplicant/src/ap\pmksa_cache_auth.c **** 			      attr->user_name_len) != 0)
 594:C:/Users/stapi/OneDrive/Desktop/GD32VW553/V1_MQTT_OK/GD32VW55X_Wifi_BLE_SDK/GD32VW55x_RELEASE_V1.0.2/MSDK/wpa_supplicant/src/ap\pmksa_cache_auth.c **** 			return 0;
 595:C:/Users/stapi/OneDrive/Desktop/GD32VW553/V1_MQTT_OK/GD32VW55X_Wifi_BLE_SDK/GD32VW55x_RELEASE_V1.0.2/MSDK/wpa_supplicant/src/ap\pmksa_cache_auth.c **** 		match++;
 596:C:/Users/stapi/OneDrive/Desktop/GD32VW553/V1_MQTT_OK/GD32VW55X_Wifi_BLE_SDK/GD32VW55x_RELEASE_V1.0.2/MSDK/wpa_supplicant/src/ap\pmksa_cache_auth.c **** 	}
 597:C:/Users/stapi/OneDrive/Desktop/GD32VW553/V1_MQTT_OK/GD32VW55X_Wifi_BLE_SDK/GD32VW55x_RELEASE_V1.0.2/MSDK/wpa_supplicant/src/ap\pmksa_cache_auth.c **** 
 598:C:/Users/stapi/OneDrive/Desktop/GD32VW553/V1_MQTT_OK/GD32VW55X_Wifi_BLE_SDK/GD32VW55x_RELEASE_V1.0.2/MSDK/wpa_supplicant/src/ap\pmksa_cache_auth.c **** 	return match;
 599:C:/Users/stapi/OneDrive/Desktop/GD32VW553/V1_MQTT_OK/GD32VW55X_Wifi_BLE_SDK/GD32VW55x_RELEASE_V1.0.2/MSDK/wpa_supplicant/src/ap\pmksa_cache_auth.c **** }
 600:C:/Users/stapi/OneDrive/Desktop/GD32VW553/V1_MQTT_OK/GD32VW55X_Wifi_BLE_SDK/GD32VW55x_RELEASE_V1.0.2/MSDK/wpa_supplicant/src/ap\pmksa_cache_auth.c **** 
 601:C:/Users/stapi/OneDrive/Desktop/GD32VW553/V1_MQTT_OK/GD32VW55X_Wifi_BLE_SDK/GD32VW55x_RELEASE_V1.0.2/MSDK/wpa_supplicant/src/ap\pmksa_cache_auth.c **** 
 602:C:/Users/stapi/OneDrive/Desktop/GD32VW553/V1_MQTT_OK/GD32VW55X_Wifi_BLE_SDK/GD32VW55x_RELEASE_V1.0.2/MSDK/wpa_supplicant/src/ap\pmksa_cache_auth.c **** int pmksa_cache_auth_radius_das_disconnect(struct rsn_pmksa_cache *pmksa,
 603:C:/Users/stapi/OneDrive/Desktop/GD32VW553/V1_MQTT_OK/GD32VW55X_Wifi_BLE_SDK/GD32VW55x_RELEASE_V1.0.2/MSDK/wpa_supplicant/src/ap\pmksa_cache_auth.c **** 					   struct radius_das_attrs *attr)
 604:C:/Users/stapi/OneDrive/Desktop/GD32VW553/V1_MQTT_OK/GD32VW55X_Wifi_BLE_SDK/GD32VW55x_RELEASE_V1.0.2/MSDK/wpa_supplicant/src/ap\pmksa_cache_auth.c **** {
 1638              		.loc 1 604 1 is_stmt 1
 1639              		.cfi_startproc
 1640              	.LVL168:
 605:C:/Users/stapi/OneDrive/Desktop/GD32VW553/V1_MQTT_OK/GD32VW55X_Wifi_BLE_SDK/GD32VW55x_RELEASE_V1.0.2/MSDK/wpa_supplicant/src/ap\pmksa_cache_auth.c **** 	int found = 0;
 1641              		.loc 1 605 2
 606:C:/Users/stapi/OneDrive/Desktop/GD32VW553/V1_MQTT_OK/GD32VW55X_Wifi_BLE_SDK/GD32VW55x_RELEASE_V1.0.2/MSDK/wpa_supplicant/src/ap\pmksa_cache_auth.c **** 	struct rsn_pmksa_cache_entry *entry, *prev;
 1642              		.loc 1 606 2
 607:C:/Users/stapi/OneDrive/Desktop/GD32VW553/V1_MQTT_OK/GD32VW55X_Wifi_BLE_SDK/GD32VW55x_RELEASE_V1.0.2/MSDK/wpa_supplicant/src/ap\pmksa_cache_auth.c **** 
 608:C:/Users/stapi/OneDrive/Desktop/GD32VW553/V1_MQTT_OK/GD32VW55X_Wifi_BLE_SDK/GD32VW55x_RELEASE_V1.0.2/MSDK/wpa_supplicant/src/ap\pmksa_cache_auth.c **** 	if (attr->acct_session_id)
 1643              		.loc 1 608 2
 1644              		.loc 1 608 5 is_stmt 0
 1645 0000 DC4D     		lw	a5,28(a1)
 1646 0002 F1EB     		bne	a5,zero,.L224
 604:C:/Users/stapi/OneDrive/Desktop/GD32VW553/V1_MQTT_OK/GD32VW55X_Wifi_BLE_SDK/GD32VW55x_RELEASE_V1.0.2/MSDK/wpa_supplicant/src/ap\pmksa_cache_auth.c **** 	int found = 0;
 1647              		.loc 1 604 1
 1648 0004 17030000 		call	t0,__riscv_save_7
 1648      E7020300 
 1649              		.cfi_offset 22, -32
 1650              		.cfi_offset 21, -28
 1651              		.cfi_offset 20, -24
 1652              		.cfi_offset 19, -20
 1653              		.cfi_offset 18, -16
 1654              		.cfi_offset 9, -12
 1655              		.cfi_offset 8, -8
 1656              		.cfi_offset 1, -4
 1657              		.cfi_def_cfa_offset 32
 609:C:/Users/stapi/OneDrive/Desktop/GD32VW553/V1_MQTT_OK/GD32VW55X_Wifi_BLE_SDK/GD32VW55x_RELEASE_V1.0.2/MSDK/wpa_supplicant/src/ap\pmksa_cache_auth.c **** 		return -1;
 610:C:/Users/stapi/OneDrive/Desktop/GD32VW553/V1_MQTT_OK/GD32VW55X_Wifi_BLE_SDK/GD32VW55x_RELEASE_V1.0.2/MSDK/wpa_supplicant/src/ap\pmksa_cache_auth.c **** 
 611:C:/Users/stapi/OneDrive/Desktop/GD32VW553/V1_MQTT_OK/GD32VW55X_Wifi_BLE_SDK/GD32VW55x_RELEASE_V1.0.2/MSDK/wpa_supplicant/src/ap\pmksa_cache_auth.c **** 	entry = pmksa->pmksa;
 1658              		.loc 1 611 8
 1659 000c 03240520 		lw	s0,512(a0)
 604:C:/Users/stapi/OneDrive/Desktop/GD32VW553/V1_MQTT_OK/GD32VW55X_Wifi_BLE_SDK/GD32VW55x_RELEASE_V1.0.2/MSDK/wpa_supplicant/src/ap\pmksa_cache_auth.c **** 	int found = 0;
 1660              		.loc 1 604 1
 1661 0010 0111     		addi	sp,sp,-32
 1662              		.cfi_def_cfa_offset 64
 1663 0012 2A8A     		mv	s4,a0
 1664 0014 AE84     		mv	s1,a1
 1665              		.loc 1 611 2 is_stmt 1
 1666              	.LVL169:
 612:C:/Users/stapi/OneDrive/Desktop/GD32VW553/V1_MQTT_OK/GD32VW55X_Wifi_BLE_SDK/GD32VW55x_RELEASE_V1.0.2/MSDK/wpa_supplicant/src/ap\pmksa_cache_auth.c **** 	while (entry) {
 1667              		.loc 1 612 2
 605:C:/Users/stapi/OneDrive/Desktop/GD32VW553/V1_MQTT_OK/GD32VW55X_Wifi_BLE_SDK/GD32VW55x_RELEASE_V1.0.2/MSDK/wpa_supplicant/src/ap\pmksa_cache_auth.c **** 	struct rsn_pmksa_cache_entry *entry, *prev;
 1668              		.loc 1 605 6 is_stmt 0
 1669 0016 0149     		li	s2,0
 1670              	.LBB50:
 1671              	.LBB51:
 1672              	.LBB52:
 571:C:/Users/stapi/OneDrive/Desktop/GD32VW553/V1_MQTT_OK/GD32VW55X_Wifi_BLE_SDK/GD32VW55x_RELEASE_V1.0.2/MSDK/wpa_supplicant/src/ap\pmksa_cache_auth.c **** 			return 0;
 1673              		.loc 1 571 6
 1674 0018 C14A     		li	s5,16
 573:C:/Users/stapi/OneDrive/Desktop/GD32VW553/V1_MQTT_OK/GD32VW55X_Wifi_BLE_SDK/GD32VW55x_RELEASE_V1.0.2/MSDK/wpa_supplicant/src/ap\pmksa_cache_auth.c **** 			    (unsigned long long) entry->acct_multi_session_id);
 1675              		.loc 1 573 3
 1676 001a 370B0000 		lui	s6,%hi(.LC7)
 1677              	.LVL170:
 1678              	.L213:
 1679              	.LBE52:
 1680              	.LBE51:
 1681              	.LBE50:
 1682              		.loc 1 612 8 is_stmt 1
 1683 001e 11E8     		bne	s0,zero,.L223
 613:C:/Users/stapi/OneDrive/Desktop/GD32VW553/V1_MQTT_OK/GD32VW55X_Wifi_BLE_SDK/GD32VW55x_RELEASE_V1.0.2/MSDK/wpa_supplicant/src/ap\pmksa_cache_auth.c **** 		if (das_attr_match(entry, attr)) {
 614:C:/Users/stapi/OneDrive/Desktop/GD32VW553/V1_MQTT_OK/GD32VW55X_Wifi_BLE_SDK/GD32VW55x_RELEASE_V1.0.2/MSDK/wpa_supplicant/src/ap\pmksa_cache_auth.c **** 			found++;
 615:C:/Users/stapi/OneDrive/Desktop/GD32VW553/V1_MQTT_OK/GD32VW55X_Wifi_BLE_SDK/GD32VW55x_RELEASE_V1.0.2/MSDK/wpa_supplicant/src/ap\pmksa_cache_auth.c **** 			prev = entry;
 616:C:/Users/stapi/OneDrive/Desktop/GD32VW553/V1_MQTT_OK/GD32VW55X_Wifi_BLE_SDK/GD32VW55x_RELEASE_V1.0.2/MSDK/wpa_supplicant/src/ap\pmksa_cache_auth.c **** 			entry = entry->next;
 617:C:/Users/stapi/OneDrive/Desktop/GD32VW553/V1_MQTT_OK/GD32VW55X_Wifi_BLE_SDK/GD32VW55x_RELEASE_V1.0.2/MSDK/wpa_supplicant/src/ap\pmksa_cache_auth.c **** 			pmksa_cache_free_entry(pmksa, prev);
 618:C:/Users/stapi/OneDrive/Desktop/GD32VW553/V1_MQTT_OK/GD32VW55X_Wifi_BLE_SDK/GD32VW55x_RELEASE_V1.0.2/MSDK/wpa_supplicant/src/ap\pmksa_cache_auth.c **** 			continue;
 619:C:/Users/stapi/OneDrive/Desktop/GD32VW553/V1_MQTT_OK/GD32VW55X_Wifi_BLE_SDK/GD32VW55x_RELEASE_V1.0.2/MSDK/wpa_supplicant/src/ap\pmksa_cache_auth.c **** 		}
 620:C:/Users/stapi/OneDrive/Desktop/GD32VW553/V1_MQTT_OK/GD32VW55X_Wifi_BLE_SDK/GD32VW55x_RELEASE_V1.0.2/MSDK/wpa_supplicant/src/ap\pmksa_cache_auth.c **** 		entry = entry->next;
 621:C:/Users/stapi/OneDrive/Desktop/GD32VW553/V1_MQTT_OK/GD32VW55X_Wifi_BLE_SDK/GD32VW55x_RELEASE_V1.0.2/MSDK/wpa_supplicant/src/ap\pmksa_cache_auth.c **** 	}
 622:C:/Users/stapi/OneDrive/Desktop/GD32VW553/V1_MQTT_OK/GD32VW55X_Wifi_BLE_SDK/GD32VW55x_RELEASE_V1.0.2/MSDK/wpa_supplicant/src/ap\pmksa_cache_auth.c **** 
 623:C:/Users/stapi/OneDrive/Desktop/GD32VW553/V1_MQTT_OK/GD32VW55X_Wifi_BLE_SDK/GD32VW55x_RELEASE_V1.0.2/MSDK/wpa_supplicant/src/ap\pmksa_cache_auth.c **** 	return found ? 0 : -1;
 1684              		.loc 1 623 2
 1685              		.loc 1 623 19 is_stmt 0
 1686 0020 13351900 		seqz	a0,s2
 1687 0024 3305A040 		neg	a0,a0
 624:C:/Users/stapi/OneDrive/Desktop/GD32VW553/V1_MQTT_OK/GD32VW55X_Wifi_BLE_SDK/GD32VW55x_RELEASE_V1.0.2/MSDK/wpa_supplicant/src/ap\pmksa_cache_auth.c **** }
 1688              		.loc 1 624 1
 1689 0028 0561     		addi	sp,sp,32
 1690              		.cfi_remember_state
 1691              		.cfi_def_cfa_offset 0
 1692 002a 17030000 		tail	__riscv_restore_7
 1692      67000300 
 1693              		.cfi_restore 22
 1694              		.cfi_restore 21
 1695              		.cfi_restore 20
 1696              		.cfi_restore 19
 1697              		.cfi_restore 18
 1698              		.cfi_restore 9
 1699              		.cfi_restore 8
 1700              		.cfi_restore 1
 1701              		.cfi_def_cfa_offset -32
 1702              	.L223:
 1703              		.cfi_restore_state
 613:C:/Users/stapi/OneDrive/Desktop/GD32VW553/V1_MQTT_OK/GD32VW55X_Wifi_BLE_SDK/GD32VW55x_RELEASE_V1.0.2/MSDK/wpa_supplicant/src/ap\pmksa_cache_auth.c **** 		if (das_attr_match(entry, attr)) {
 1704              		.loc 1 613 3 is_stmt 1
 1705              	.LVL171:
 1706              	.LBB60:
 1707              	.LBB58:
 560:C:/Users/stapi/OneDrive/Desktop/GD32VW553/V1_MQTT_OK/GD32VW55X_Wifi_BLE_SDK/GD32VW55x_RELEASE_V1.0.2/MSDK/wpa_supplicant/src/ap\pmksa_cache_auth.c **** 
 1708              		.loc 1 560 2
 562:C:/Users/stapi/OneDrive/Desktop/GD32VW553/V1_MQTT_OK/GD32VW55X_Wifi_BLE_SDK/GD32VW55x_RELEASE_V1.0.2/MSDK/wpa_supplicant/src/ap\pmksa_cache_auth.c **** 		if (os_memcmp(attr->sta_addr, entry->spa, ETH_ALEN) != 0)
 1709              		.loc 1 562 2
 562:C:/Users/stapi/OneDrive/Desktop/GD32VW553/V1_MQTT_OK/GD32VW55X_Wifi_BLE_SDK/GD32VW55x_RELEASE_V1.0.2/MSDK/wpa_supplicant/src/ap\pmksa_cache_auth.c **** 		if (os_memcmp(attr->sta_addr, entry->spa, ETH_ALEN) != 0)
 1710              		.loc 1 562 10 is_stmt 0
 1711 0032 8848     		lw	a0,16(s1)
 562:C:/Users/stapi/OneDrive/Desktop/GD32VW553/V1_MQTT_OK/GD32VW55X_Wifi_BLE_SDK/GD32VW55x_RELEASE_V1.0.2/MSDK/wpa_supplicant/src/ap\pmksa_cache_auth.c **** 		if (os_memcmp(attr->sta_addr, entry->spa, ETH_ALEN) != 0)
 1712              		.loc 1 562 5
 1713 0034 59C9     		beq	a0,zero,.L225
 563:C:/Users/stapi/OneDrive/Desktop/GD32VW553/V1_MQTT_OK/GD32VW55X_Wifi_BLE_SDK/GD32VW55x_RELEASE_V1.0.2/MSDK/wpa_supplicant/src/ap\pmksa_cache_auth.c **** 			return 0;
 1714              		.loc 1 563 3 is_stmt 1
 563:C:/Users/stapi/OneDrive/Desktop/GD32VW553/V1_MQTT_OK/GD32VW55X_Wifi_BLE_SDK/GD32VW55x_RELEASE_V1.0.2/MSDK/wpa_supplicant/src/ap\pmksa_cache_auth.c **** 			return 0;
 1715              		.loc 1 563 7 is_stmt 0
 1716 0036 1946     		li	a2,6
 1717 0038 93054406 		addi	a1,s0,100
 1718 003c 97000000 		call	os_memcmp
 1718      E7800000 
 1719              	.LVL172:
 563:C:/Users/stapi/OneDrive/Desktop/GD32VW553/V1_MQTT_OK/GD32VW55X_Wifi_BLE_SDK/GD32VW55x_RELEASE_V1.0.2/MSDK/wpa_supplicant/src/ap\pmksa_cache_auth.c **** 			return 0;
 1720              		.loc 1 563 6
 1721 0044 59E5     		bne	a0,zero,.L218
 565:C:/Users/stapi/OneDrive/Desktop/GD32VW553/V1_MQTT_OK/GD32VW55X_Wifi_BLE_SDK/GD32VW55x_RELEASE_V1.0.2/MSDK/wpa_supplicant/src/ap\pmksa_cache_auth.c **** 	}
 1722              		.loc 1 565 8
 1723 0046 8549     		li	s3,1
 1724              	.L214:
 1725              	.LVL173:
 568:C:/Users/stapi/OneDrive/Desktop/GD32VW553/V1_MQTT_OK/GD32VW55X_Wifi_BLE_SDK/GD32VW55x_RELEASE_V1.0.2/MSDK/wpa_supplicant/src/ap\pmksa_cache_auth.c **** 		char buf[20];
 1726              		.loc 1 568 2 is_stmt 1
 568:C:/Users/stapi/OneDrive/Desktop/GD32VW553/V1_MQTT_OK/GD32VW55X_Wifi_BLE_SDK/GD32VW55x_RELEASE_V1.0.2/MSDK/wpa_supplicant/src/ap\pmksa_cache_auth.c **** 		char buf[20];
 1727              		.loc 1 568 5 is_stmt 0
 1728 0048 DC50     		lw	a5,36(s1)
 1729 004a 8DCB     		beq	a5,zero,.L216
 1730              	.LBB53:
 569:C:/Users/stapi/OneDrive/Desktop/GD32VW553/V1_MQTT_OK/GD32VW55X_Wifi_BLE_SDK/GD32VW55x_RELEASE_V1.0.2/MSDK/wpa_supplicant/src/ap\pmksa_cache_auth.c **** 
 1731              		.loc 1 569 3 is_stmt 1
 571:C:/Users/stapi/OneDrive/Desktop/GD32VW553/V1_MQTT_OK/GD32VW55X_Wifi_BLE_SDK/GD32VW55x_RELEASE_V1.0.2/MSDK/wpa_supplicant/src/ap\pmksa_cache_auth.c **** 			return 0;
 1732              		.loc 1 571 3
 571:C:/Users/stapi/OneDrive/Desktop/GD32VW553/V1_MQTT_OK/GD32VW55X_Wifi_BLE_SDK/GD32VW55x_RELEASE_V1.0.2/MSDK/wpa_supplicant/src/ap\pmksa_cache_auth.c **** 			return 0;
 1733              		.loc 1 571 6 is_stmt 0
 1734 004c 9C54     		lw	a5,40(s1)
 1735 004e 63925709 		bne	a5,s5,.L218
 573:C:/Users/stapi/OneDrive/Desktop/GD32VW553/V1_MQTT_OK/GD32VW55X_Wifi_BLE_SDK/GD32VW55x_RELEASE_V1.0.2/MSDK/wpa_supplicant/src/ap\pmksa_cache_auth.c **** 			    (unsigned long long) entry->acct_multi_session_id);
 1736              		.loc 1 573 3 is_stmt 1
 1737 0052 03270409 		lw	a4,144(s0)
 1738 0056 83274409 		lw	a5,148(s0)
 1739 005a 13060B00 		addi	a2,s6,%lo(.LC7)
 1740 005e D145     		li	a1,20
 1741 0060 6800     		addi	a0,sp,12
 1742 0062 97000000 		call	os_snprintf
 1742      E7800000 
 1743              	.LVL174:
 575:C:/Users/stapi/OneDrive/Desktop/GD32VW553/V1_MQTT_OK/GD32VW55X_Wifi_BLE_SDK/GD32VW55x_RELEASE_V1.0.2/MSDK/wpa_supplicant/src/ap\pmksa_cache_auth.c **** 			return 0;
 1744              		.loc 1 575 3
 575:C:/Users/stapi/OneDrive/Desktop/GD32VW553/V1_MQTT_OK/GD32VW55X_Wifi_BLE_SDK/GD32VW55x_RELEASE_V1.0.2/MSDK/wpa_supplicant/src/ap\pmksa_cache_auth.c **** 			return 0;
 1745              		.loc 1 575 7 is_stmt 0
 1746 006a C850     		lw	a0,36(s1)
 1747 006c 4146     		li	a2,16
 1748 006e 6C00     		addi	a1,sp,12
 1749 0070 97000000 		call	os_memcmp
 1749      E7800000 
 1750              	.LVL175:
 575:C:/Users/stapi/OneDrive/Desktop/GD32VW553/V1_MQTT_OK/GD32VW55X_Wifi_BLE_SDK/GD32VW55x_RELEASE_V1.0.2/MSDK/wpa_supplicant/src/ap\pmksa_cache_auth.c **** 			return 0;
 1751              		.loc 1 575 6
 1752 0078 29ED     		bne	a0,zero,.L218
 577:C:/Users/stapi/OneDrive/Desktop/GD32VW553/V1_MQTT_OK/GD32VW55X_Wifi_BLE_SDK/GD32VW55x_RELEASE_V1.0.2/MSDK/wpa_supplicant/src/ap\pmksa_cache_auth.c **** 	}
 1753              		.loc 1 577 3 is_stmt 1
 577:C:/Users/stapi/OneDrive/Desktop/GD32VW553/V1_MQTT_OK/GD32VW55X_Wifi_BLE_SDK/GD32VW55x_RELEASE_V1.0.2/MSDK/wpa_supplicant/src/ap\pmksa_cache_auth.c **** 	}
 1754              		.loc 1 577 8 is_stmt 0
 1755 007a 8509     		addi	s3,s3,1
 1756              	.LVL176:
 1757              	.L216:
 1758              	.LBE53:
 580:C:/Users/stapi/OneDrive/Desktop/GD32VW553/V1_MQTT_OK/GD32VW55X_Wifi_BLE_SDK/GD32VW55x_RELEASE_V1.0.2/MSDK/wpa_supplicant/src/ap\pmksa_cache_auth.c **** 		if (!entry->cui ||
 1759              		.loc 1 580 2 is_stmt 1
 580:C:/Users/stapi/OneDrive/Desktop/GD32VW553/V1_MQTT_OK/GD32VW55X_Wifi_BLE_SDK/GD32VW55x_RELEASE_V1.0.2/MSDK/wpa_supplicant/src/ap\pmksa_cache_auth.c **** 		if (!entry->cui ||
 1760              		.loc 1 580 10 is_stmt 0
 1761 007c C854     		lw	a0,44(s1)
 580:C:/Users/stapi/OneDrive/Desktop/GD32VW553/V1_MQTT_OK/GD32VW55X_Wifi_BLE_SDK/GD32VW55x_RELEASE_V1.0.2/MSDK/wpa_supplicant/src/ap\pmksa_cache_auth.c **** 		if (!entry->cui ||
 1762              		.loc 1 580 5
 1763 007e 11CD     		beq	a0,zero,.L219
 581:C:/Users/stapi/OneDrive/Desktop/GD32VW553/V1_MQTT_OK/GD32VW55X_Wifi_BLE_SDK/GD32VW55x_RELEASE_V1.0.2/MSDK/wpa_supplicant/src/ap\pmksa_cache_auth.c **** 		    attr->cui_len != wpabuf_len(entry->cui) ||
 1764              		.loc 1 581 3 is_stmt 1
 581:C:/Users/stapi/OneDrive/Desktop/GD32VW553/V1_MQTT_OK/GD32VW55X_Wifi_BLE_SDK/GD32VW55x_RELEASE_V1.0.2/MSDK/wpa_supplicant/src/ap\pmksa_cache_auth.c **** 		    attr->cui_len != wpabuf_len(entry->cui) ||
 1765              		.loc 1 581 13 is_stmt 0
 1766 0080 7C58     		lw	a5,116(s0)
 581:C:/Users/stapi/OneDrive/Desktop/GD32VW553/V1_MQTT_OK/GD32VW55X_Wifi_BLE_SDK/GD32VW55x_RELEASE_V1.0.2/MSDK/wpa_supplicant/src/ap\pmksa_cache_auth.c **** 		    attr->cui_len != wpabuf_len(entry->cui) ||
 1767              		.loc 1 581 6
 1768 0082 A1CB     		beq	a5,zero,.L218
 582:C:/Users/stapi/OneDrive/Desktop/GD32VW553/V1_MQTT_OK/GD32VW55X_Wifi_BLE_SDK/GD32VW55x_RELEASE_V1.0.2/MSDK/wpa_supplicant/src/ap\pmksa_cache_auth.c **** 		    os_memcmp(attr->cui, wpabuf_head(entry->cui),
 1769              		.loc 1 582 11
 1770 0084 9058     		lw	a2,48(s1)
 1771              	.LVL177:
 1772              	.LBB54:
 1773              	.LBB55:
 1774              		.file 3 "..\\..\\..\\..\\wpa_supplicant\\src/utils/wpabuf.h"
   1:..\..\..\..\wpa_supplicant\src/utils/wpabuf.h **** /*
   2:..\..\..\..\wpa_supplicant\src/utils/wpabuf.h ****  * Dynamic data buffer
   3:..\..\..\..\wpa_supplicant\src/utils/wpabuf.h ****  * Copyright (c) 2007-2012, Jouni Malinen <j@w1.fi>
   4:..\..\..\..\wpa_supplicant\src/utils/wpabuf.h ****  *
   5:..\..\..\..\wpa_supplicant\src/utils/wpabuf.h ****  * This software may be distributed under the terms of the BSD license.
   6:..\..\..\..\wpa_supplicant\src/utils/wpabuf.h ****  * See README for more details.
   7:..\..\..\..\wpa_supplicant\src/utils/wpabuf.h ****  */
   8:..\..\..\..\wpa_supplicant\src/utils/wpabuf.h **** 
   9:..\..\..\..\wpa_supplicant\src/utils/wpabuf.h **** #ifndef WPABUF_H
  10:..\..\..\..\wpa_supplicant\src/utils/wpabuf.h **** #define WPABUF_H
  11:..\..\..\..\wpa_supplicant\src/utils/wpabuf.h **** 
  12:..\..\..\..\wpa_supplicant\src/utils/wpabuf.h **** /* wpabuf::buf is a pointer to external data */
  13:..\..\..\..\wpa_supplicant\src/utils/wpabuf.h **** #define WPABUF_FLAG_EXT_DATA BIT(0)
  14:..\..\..\..\wpa_supplicant\src/utils/wpabuf.h **** 
  15:..\..\..\..\wpa_supplicant\src/utils/wpabuf.h **** /*
  16:..\..\..\..\wpa_supplicant\src/utils/wpabuf.h ****  * Internal data structure for wpabuf. Please do not touch this directly from
  17:..\..\..\..\wpa_supplicant\src/utils/wpabuf.h ****  * elsewhere. This is only defined in header file to allow inline functions
  18:..\..\..\..\wpa_supplicant\src/utils/wpabuf.h ****  * from this file to access data.
  19:..\..\..\..\wpa_supplicant\src/utils/wpabuf.h ****  */
  20:..\..\..\..\wpa_supplicant\src/utils/wpabuf.h **** struct wpabuf {
  21:..\..\..\..\wpa_supplicant\src/utils/wpabuf.h **** 	size_t size; /* total size of the allocated buffer */
  22:..\..\..\..\wpa_supplicant\src/utils/wpabuf.h **** 	size_t used; /* length of data in the buffer */
  23:..\..\..\..\wpa_supplicant\src/utils/wpabuf.h **** 	u8 *buf; /* pointer to the head of the buffer */
  24:..\..\..\..\wpa_supplicant\src/utils/wpabuf.h **** 	unsigned int flags;
  25:..\..\..\..\wpa_supplicant\src/utils/wpabuf.h **** 	/* optionally followed by the allocated buffer */
  26:..\..\..\..\wpa_supplicant\src/utils/wpabuf.h **** };
  27:..\..\..\..\wpa_supplicant\src/utils/wpabuf.h **** 
  28:..\..\..\..\wpa_supplicant\src/utils/wpabuf.h **** 
  29:..\..\..\..\wpa_supplicant\src/utils/wpabuf.h **** int wpabuf_resize(struct wpabuf **buf, size_t add_len);
  30:..\..\..\..\wpa_supplicant\src/utils/wpabuf.h **** struct wpabuf * wpabuf_alloc(size_t len);
  31:..\..\..\..\wpa_supplicant\src/utils/wpabuf.h **** struct wpabuf * wpabuf_alloc_ext_data(u8 *data, size_t len);
  32:..\..\..\..\wpa_supplicant\src/utils/wpabuf.h **** struct wpabuf * wpabuf_alloc_copy(const void *data, size_t len);
  33:..\..\..\..\wpa_supplicant\src/utils/wpabuf.h **** struct wpabuf * wpabuf_dup(const struct wpabuf *src);
  34:..\..\..\..\wpa_supplicant\src/utils/wpabuf.h **** void wpabuf_free(struct wpabuf *buf);
  35:..\..\..\..\wpa_supplicant\src/utils/wpabuf.h **** void wpabuf_clear_free(struct wpabuf *buf);
  36:..\..\..\..\wpa_supplicant\src/utils/wpabuf.h **** void * wpabuf_put(struct wpabuf *buf, size_t len);
  37:..\..\..\..\wpa_supplicant\src/utils/wpabuf.h **** struct wpabuf * wpabuf_concat(struct wpabuf *a, struct wpabuf *b);
  38:..\..\..\..\wpa_supplicant\src/utils/wpabuf.h **** struct wpabuf * wpabuf_zeropad(struct wpabuf *buf, size_t len);
  39:..\..\..\..\wpa_supplicant\src/utils/wpabuf.h **** void wpabuf_printf(struct wpabuf *buf, char *fmt, ...) PRINTF_FORMAT(2, 3);
  40:..\..\..\..\wpa_supplicant\src/utils/wpabuf.h **** struct wpabuf * wpabuf_parse_bin(const char *buf);
  41:..\..\..\..\wpa_supplicant\src/utils/wpabuf.h **** 
  42:..\..\..\..\wpa_supplicant\src/utils/wpabuf.h **** 
  43:..\..\..\..\wpa_supplicant\src/utils/wpabuf.h **** /**
  44:..\..\..\..\wpa_supplicant\src/utils/wpabuf.h ****  * wpabuf_size - Get the currently allocated size of a wpabuf buffer
  45:..\..\..\..\wpa_supplicant\src/utils/wpabuf.h ****  * @buf: wpabuf buffer
  46:..\..\..\..\wpa_supplicant\src/utils/wpabuf.h ****  * Returns: Currently allocated size of the buffer
  47:..\..\..\..\wpa_supplicant\src/utils/wpabuf.h ****  */
  48:..\..\..\..\wpa_supplicant\src/utils/wpabuf.h **** static inline size_t wpabuf_size(const struct wpabuf *buf)
  49:..\..\..\..\wpa_supplicant\src/utils/wpabuf.h **** {
  50:..\..\..\..\wpa_supplicant\src/utils/wpabuf.h **** 	return buf->size;
  51:..\..\..\..\wpa_supplicant\src/utils/wpabuf.h **** }
  52:..\..\..\..\wpa_supplicant\src/utils/wpabuf.h **** 
  53:..\..\..\..\wpa_supplicant\src/utils/wpabuf.h **** /**
  54:..\..\..\..\wpa_supplicant\src/utils/wpabuf.h ****  * wpabuf_len - Get the current length of a wpabuf buffer data
  55:..\..\..\..\wpa_supplicant\src/utils/wpabuf.h ****  * @buf: wpabuf buffer
  56:..\..\..\..\wpa_supplicant\src/utils/wpabuf.h ****  * Returns: Currently used length of the buffer
  57:..\..\..\..\wpa_supplicant\src/utils/wpabuf.h ****  */
  58:..\..\..\..\wpa_supplicant\src/utils/wpabuf.h **** static inline size_t wpabuf_len(const struct wpabuf *buf)
  59:..\..\..\..\wpa_supplicant\src/utils/wpabuf.h **** {
  60:..\..\..\..\wpa_supplicant\src/utils/wpabuf.h **** 	return buf->used;
 1775              		.loc 3 60 2 is_stmt 1
 1776              	.LBE55:
 1777              	.LBE54:
 581:C:/Users/stapi/OneDrive/Desktop/GD32VW553/V1_MQTT_OK/GD32VW55X_Wifi_BLE_SDK/GD32VW55x_RELEASE_V1.0.2/MSDK/wpa_supplicant/src/ap\pmksa_cache_auth.c **** 		    attr->cui_len != wpabuf_len(entry->cui) ||
 1778              		.loc 1 581 19 is_stmt 0
 1779 0086 D843     		lw	a4,4(a5)
 1780 0088 6315E604 		bne	a2,a4,.L218
 1781              	.LVL178:
 1782              	.LBB56:
 1783              	.LBB57:
  61:..\..\..\..\wpa_supplicant\src/utils/wpabuf.h **** }
  62:..\..\..\..\wpa_supplicant\src/utils/wpabuf.h **** 
  63:..\..\..\..\wpa_supplicant\src/utils/wpabuf.h **** /**
  64:..\..\..\..\wpa_supplicant\src/utils/wpabuf.h ****  * wpabuf_tailroom - Get size of available tail room in the end of the buffer
  65:..\..\..\..\wpa_supplicant\src/utils/wpabuf.h ****  * @buf: wpabuf buffer
  66:..\..\..\..\wpa_supplicant\src/utils/wpabuf.h ****  * Returns: Tail room (in bytes) of available space in the end of the buffer
  67:..\..\..\..\wpa_supplicant\src/utils/wpabuf.h ****  */
  68:..\..\..\..\wpa_supplicant\src/utils/wpabuf.h **** static inline size_t wpabuf_tailroom(const struct wpabuf *buf)
  69:..\..\..\..\wpa_supplicant\src/utils/wpabuf.h **** {
  70:..\..\..\..\wpa_supplicant\src/utils/wpabuf.h **** 	return buf->size - buf->used;
  71:..\..\..\..\wpa_supplicant\src/utils/wpabuf.h **** }
  72:..\..\..\..\wpa_supplicant\src/utils/wpabuf.h **** 
  73:..\..\..\..\wpa_supplicant\src/utils/wpabuf.h **** /**
  74:..\..\..\..\wpa_supplicant\src/utils/wpabuf.h ****  * wpabuf_cmp - Check if two buffers contain the same data
  75:..\..\..\..\wpa_supplicant\src/utils/wpabuf.h ****  * @a: wpabuf buffer
  76:..\..\..\..\wpa_supplicant\src/utils/wpabuf.h ****  * @b: wpabuf buffer
  77:..\..\..\..\wpa_supplicant\src/utils/wpabuf.h ****  * Returns: 0 if the two buffers contain the same data and non-zero otherwise
  78:..\..\..\..\wpa_supplicant\src/utils/wpabuf.h ****  */
  79:..\..\..\..\wpa_supplicant\src/utils/wpabuf.h **** static inline int wpabuf_cmp(const struct wpabuf *a, const struct wpabuf *b)
  80:..\..\..\..\wpa_supplicant\src/utils/wpabuf.h **** {
  81:..\..\..\..\wpa_supplicant\src/utils/wpabuf.h **** 	if (!a && !b)
  82:..\..\..\..\wpa_supplicant\src/utils/wpabuf.h **** 		return 0;
  83:..\..\..\..\wpa_supplicant\src/utils/wpabuf.h **** 	if (a && b && wpabuf_size(a) == wpabuf_size(b))
  84:..\..\..\..\wpa_supplicant\src/utils/wpabuf.h **** 		return os_memcmp(a->buf, b->buf, wpabuf_size(a));
  85:..\..\..\..\wpa_supplicant\src/utils/wpabuf.h **** 	return -1;
  86:..\..\..\..\wpa_supplicant\src/utils/wpabuf.h **** }
  87:..\..\..\..\wpa_supplicant\src/utils/wpabuf.h **** 
  88:..\..\..\..\wpa_supplicant\src/utils/wpabuf.h **** /**
  89:..\..\..\..\wpa_supplicant\src/utils/wpabuf.h ****  * wpabuf_head - Get pointer to the head of the buffer data
  90:..\..\..\..\wpa_supplicant\src/utils/wpabuf.h ****  * @buf: wpabuf buffer
  91:..\..\..\..\wpa_supplicant\src/utils/wpabuf.h ****  * Returns: Pointer to the head of the buffer data
  92:..\..\..\..\wpa_supplicant\src/utils/wpabuf.h ****  */
  93:..\..\..\..\wpa_supplicant\src/utils/wpabuf.h **** static inline const void * wpabuf_head(const struct wpabuf *buf)
  94:..\..\..\..\wpa_supplicant\src/utils/wpabuf.h **** {
  95:..\..\..\..\wpa_supplicant\src/utils/wpabuf.h **** 	return buf->buf;
 1784              		.loc 3 95 2 is_stmt 1
 1785              	.LBE57:
 1786              	.LBE56:
 583:C:/Users/stapi/OneDrive/Desktop/GD32VW553/V1_MQTT_OK/GD32VW55X_Wifi_BLE_SDK/GD32VW55x_RELEASE_V1.0.2/MSDK/wpa_supplicant/src/ap\pmksa_cache_auth.c **** 			      attr->cui_len) != 0)
 1787              		.loc 1 583 7 is_stmt 0
 1788 008c 8C47     		lw	a1,8(a5)
 1789 008e 97000000 		call	os_memcmp
 1789      E7800000 
 1790              	.LVL179:
 582:C:/Users/stapi/OneDrive/Desktop/GD32VW553/V1_MQTT_OK/GD32VW55X_Wifi_BLE_SDK/GD32VW55x_RELEASE_V1.0.2/MSDK/wpa_supplicant/src/ap\pmksa_cache_auth.c **** 		    os_memcmp(attr->cui, wpabuf_head(entry->cui),
 1791              		.loc 1 582 47
 1792 0096 15ED     		bne	a0,zero,.L218
 586:C:/Users/stapi/OneDrive/Desktop/GD32VW553/V1_MQTT_OK/GD32VW55X_Wifi_BLE_SDK/GD32VW55x_RELEASE_V1.0.2/MSDK/wpa_supplicant/src/ap\pmksa_cache_auth.c **** 	}
 1793              		.loc 1 586 3 is_stmt 1
 586:C:/Users/stapi/OneDrive/Desktop/GD32VW553/V1_MQTT_OK/GD32VW55X_Wifi_BLE_SDK/GD32VW55x_RELEASE_V1.0.2/MSDK/wpa_supplicant/src/ap\pmksa_cache_auth.c **** 	}
 1794              		.loc 1 586 8 is_stmt 0
 1795 0098 8509     		addi	s3,s3,1
 1796              	.LVL180:
 1797              	.L219:
 589:C:/Users/stapi/OneDrive/Desktop/GD32VW553/V1_MQTT_OK/GD32VW55X_Wifi_BLE_SDK/GD32VW55x_RELEASE_V1.0.2/MSDK/wpa_supplicant/src/ap\pmksa_cache_auth.c **** 		if (!entry->identity ||
 1798              		.loc 1 589 2 is_stmt 1
 589:C:/Users/stapi/OneDrive/Desktop/GD32VW553/V1_MQTT_OK/GD32VW55X_Wifi_BLE_SDK/GD32VW55x_RELEASE_V1.0.2/MSDK/wpa_supplicant/src/ap\pmksa_cache_auth.c **** 		if (!entry->identity ||
 1799              		.loc 1 589 10 is_stmt 0
 1800 009a C848     		lw	a0,20(s1)
 589:C:/Users/stapi/OneDrive/Desktop/GD32VW553/V1_MQTT_OK/GD32VW55X_Wifi_BLE_SDK/GD32VW55x_RELEASE_V1.0.2/MSDK/wpa_supplicant/src/ap\pmksa_cache_auth.c **** 		if (!entry->identity ||
 1801              		.loc 1 589 5
 1802 009c 0DC9     		beq	a0,zero,.L220
 590:C:/Users/stapi/OneDrive/Desktop/GD32VW553/V1_MQTT_OK/GD32VW55X_Wifi_BLE_SDK/GD32VW55x_RELEASE_V1.0.2/MSDK/wpa_supplicant/src/ap\pmksa_cache_auth.c **** 		    attr->user_name_len != entry->identity_len ||
 1803              		.loc 1 590 3 is_stmt 1
 590:C:/Users/stapi/OneDrive/Desktop/GD32VW553/V1_MQTT_OK/GD32VW55X_Wifi_BLE_SDK/GD32VW55x_RELEASE_V1.0.2/MSDK/wpa_supplicant/src/ap\pmksa_cache_auth.c **** 		    attr->user_name_len != entry->identity_len ||
 1804              		.loc 1 590 13 is_stmt 0
 1805 009e 6C54     		lw	a1,108(s0)
 590:C:/Users/stapi/OneDrive/Desktop/GD32VW553/V1_MQTT_OK/GD32VW55X_Wifi_BLE_SDK/GD32VW55x_RELEASE_V1.0.2/MSDK/wpa_supplicant/src/ap\pmksa_cache_auth.c **** 		    attr->user_name_len != entry->identity_len ||
 1806              		.loc 1 590 6
 1807 00a0 8DC9     		beq	a1,zero,.L218
 591:C:/Users/stapi/OneDrive/Desktop/GD32VW553/V1_MQTT_OK/GD32VW55X_Wifi_BLE_SDK/GD32VW55x_RELEASE_V1.0.2/MSDK/wpa_supplicant/src/ap\pmksa_cache_auth.c **** 		    os_memcmp(attr->user_name, entry->identity,
 1808              		.loc 1 591 11
 1809 00a2 904C     		lw	a2,24(s1)
 590:C:/Users/stapi/OneDrive/Desktop/GD32VW553/V1_MQTT_OK/GD32VW55X_Wifi_BLE_SDK/GD32VW55x_RELEASE_V1.0.2/MSDK/wpa_supplicant/src/ap\pmksa_cache_auth.c **** 		    attr->user_name_len != entry->identity_len ||
 1810              		.loc 1 590 24
 1811 00a4 3C58     		lw	a5,112(s0)
 1812 00a6 6316F602 		bne	a2,a5,.L218
 592:C:/Users/stapi/OneDrive/Desktop/GD32VW553/V1_MQTT_OK/GD32VW55X_Wifi_BLE_SDK/GD32VW55x_RELEASE_V1.0.2/MSDK/wpa_supplicant/src/ap\pmksa_cache_auth.c **** 			      attr->user_name_len) != 0)
 1813              		.loc 1 592 7
 1814 00aa 97000000 		call	os_memcmp
 1814      E7800000 
 1815              	.LVL181:
 591:C:/Users/stapi/OneDrive/Desktop/GD32VW553/V1_MQTT_OK/GD32VW55X_Wifi_BLE_SDK/GD32VW55x_RELEASE_V1.0.2/MSDK/wpa_supplicant/src/ap\pmksa_cache_auth.c **** 		    os_memcmp(attr->user_name, entry->identity,
 1816              		.loc 1 591 50
 1817 00b2 05E1     		bne	a0,zero,.L218
 1818              	.LVL182:
 1819              	.L222:
 1820              	.LBE58:
 1821              	.LBE60:
 614:C:/Users/stapi/OneDrive/Desktop/GD32VW553/V1_MQTT_OK/GD32VW55X_Wifi_BLE_SDK/GD32VW55x_RELEASE_V1.0.2/MSDK/wpa_supplicant/src/ap\pmksa_cache_auth.c **** 			prev = entry;
 1822              		.loc 1 614 4 is_stmt 1
 616:C:/Users/stapi/OneDrive/Desktop/GD32VW553/V1_MQTT_OK/GD32VW55X_Wifi_BLE_SDK/GD32VW55x_RELEASE_V1.0.2/MSDK/wpa_supplicant/src/ap\pmksa_cache_auth.c **** 			pmksa_cache_free_entry(pmksa, prev);
 1823              		.loc 1 616 10 is_stmt 0
 1824 00b4 83290400 		lw	s3,0(s0)
 617:C:/Users/stapi/OneDrive/Desktop/GD32VW553/V1_MQTT_OK/GD32VW55X_Wifi_BLE_SDK/GD32VW55x_RELEASE_V1.0.2/MSDK/wpa_supplicant/src/ap\pmksa_cache_auth.c **** 			continue;
 1825              		.loc 1 617 4
 1826 00b8 A285     		mv	a1,s0
 1827 00ba 5285     		mv	a0,s4
 614:C:/Users/stapi/OneDrive/Desktop/GD32VW553/V1_MQTT_OK/GD32VW55X_Wifi_BLE_SDK/GD32VW55x_RELEASE_V1.0.2/MSDK/wpa_supplicant/src/ap\pmksa_cache_auth.c **** 			prev = entry;
 1828              		.loc 1 614 9
 1829 00bc 0509     		addi	s2,s2,1
 1830              	.LVL183:
 615:C:/Users/stapi/OneDrive/Desktop/GD32VW553/V1_MQTT_OK/GD32VW55X_Wifi_BLE_SDK/GD32VW55x_RELEASE_V1.0.2/MSDK/wpa_supplicant/src/ap\pmksa_cache_auth.c **** 			entry = entry->next;
 1831              		.loc 1 615 4 is_stmt 1
 616:C:/Users/stapi/OneDrive/Desktop/GD32VW553/V1_MQTT_OK/GD32VW55X_Wifi_BLE_SDK/GD32VW55x_RELEASE_V1.0.2/MSDK/wpa_supplicant/src/ap\pmksa_cache_auth.c **** 			pmksa_cache_free_entry(pmksa, prev);
 1832              		.loc 1 616 4
 617:C:/Users/stapi/OneDrive/Desktop/GD32VW553/V1_MQTT_OK/GD32VW55X_Wifi_BLE_SDK/GD32VW55x_RELEASE_V1.0.2/MSDK/wpa_supplicant/src/ap\pmksa_cache_auth.c **** 			continue;
 1833              		.loc 1 617 4
 1834 00be 97000000 		call	pmksa_cache_free_entry
 1834      E7800000 
 1835              	.LVL184:
 618:C:/Users/stapi/OneDrive/Desktop/GD32VW553/V1_MQTT_OK/GD32VW55X_Wifi_BLE_SDK/GD32VW55x_RELEASE_V1.0.2/MSDK/wpa_supplicant/src/ap\pmksa_cache_auth.c **** 		}
 1836              		.loc 1 618 4
 616:C:/Users/stapi/OneDrive/Desktop/GD32VW553/V1_MQTT_OK/GD32VW55X_Wifi_BLE_SDK/GD32VW55x_RELEASE_V1.0.2/MSDK/wpa_supplicant/src/ap\pmksa_cache_auth.c **** 			pmksa_cache_free_entry(pmksa, prev);
 1837              		.loc 1 616 10 is_stmt 0
 1838 00c6 4E84     		mv	s0,s3
 1839              	.LVL185:
 618:C:/Users/stapi/OneDrive/Desktop/GD32VW553/V1_MQTT_OK/GD32VW55X_Wifi_BLE_SDK/GD32VW55x_RELEASE_V1.0.2/MSDK/wpa_supplicant/src/ap\pmksa_cache_auth.c **** 		}
 1840              		.loc 1 618 4
 1841 00c8 99BF     		j	.L213
 1842              	.LVL186:
 1843              	.L225:
 1844              	.LBB61:
 1845              	.LBB59:
 560:C:/Users/stapi/OneDrive/Desktop/GD32VW553/V1_MQTT_OK/GD32VW55X_Wifi_BLE_SDK/GD32VW55x_RELEASE_V1.0.2/MSDK/wpa_supplicant/src/ap\pmksa_cache_auth.c **** 
 1846              		.loc 1 560 6
 1847 00ca 8149     		li	s3,0
 1848 00cc B5BF     		j	.L214
 1849              	.LVL187:
 1850              	.L220:
 1851              	.LBE59:
 1852              	.LBE61:
 613:C:/Users/stapi/OneDrive/Desktop/GD32VW553/V1_MQTT_OK/GD32VW55X_Wifi_BLE_SDK/GD32VW55x_RELEASE_V1.0.2/MSDK/wpa_supplicant/src/ap\pmksa_cache_auth.c **** 			found++;
 1853              		.loc 1 613 6
 1854 00ce E39309FE 		bne	s3,zero,.L222
 1855              	.L218:
 620:C:/Users/stapi/OneDrive/Desktop/GD32VW553/V1_MQTT_OK/GD32VW55X_Wifi_BLE_SDK/GD32VW55x_RELEASE_V1.0.2/MSDK/wpa_supplicant/src/ap\pmksa_cache_auth.c **** 	}
 1856              		.loc 1 620 3 is_stmt 1
 620:C:/Users/stapi/OneDrive/Desktop/GD32VW553/V1_MQTT_OK/GD32VW55X_Wifi_BLE_SDK/GD32VW55x_RELEASE_V1.0.2/MSDK/wpa_supplicant/src/ap\pmksa_cache_auth.c **** 	}
 1857              		.loc 1 620 9 is_stmt 0
 1858 00d2 0040     		lw	s0,0(s0)
 1859              	.LVL188:
 1860 00d4 A9B7     		j	.L213
 1861              	.LVL189:
 1862              	.L224:
 1863              		.cfi_def_cfa_offset 0
 1864              		.cfi_restore 1
 1865              		.cfi_restore 8
 1866              		.cfi_restore 9
 1867              		.cfi_restore 18
 1868              		.cfi_restore 19
 1869              		.cfi_restore 20
 1870              		.cfi_restore 21
 1871              		.cfi_restore 22
 609:C:/Users/stapi/OneDrive/Desktop/GD32VW553/V1_MQTT_OK/GD32VW55X_Wifi_BLE_SDK/GD32VW55x_RELEASE_V1.0.2/MSDK/wpa_supplicant/src/ap\pmksa_cache_auth.c **** 
 1872              		.loc 1 609 10
 1873 00d6 7D55     		li	a0,-1
 1874              	.LVL190:
 1875              		.loc 1 624 1
 1876 00d8 8280     		ret
 1877              		.cfi_endproc
 1878              	.LFE153:
 1880              		.section	.rodata.pmksa_cache_auth_list.str1.4,"aMS",@progbits,1
 1881              		.align	2
 1882              	.LC8:
 1883 0000 496E6465 		.string	"Index / SPA / PMKID / expiration (in seconds) / opportunistic\n"
 1883      78202F20 
 1883      53504120 
 1883      2F20504D 
 1883      4B494420 
 1884 003f 00       		.align	2
 1885              	.LC9:
 1886 0040 25642025 		.string	"%d %02x:%02x:%02x:%02x:%02x:%02x "
 1886      3032783A 
 1886      25303278 
 1886      3A253032 
 1886      783A2530 
 1887 0062 0000     		.align	2
 1888              	.LC10:
 1889 0064 20256420 		.string	" %d %d\n"
 1889      25640A00 
 1890              		.section	.text.pmksa_cache_auth_list,"ax",@progbits
 1891              		.align	1
 1892              		.globl	pmksa_cache_auth_list
 1894              	pmksa_cache_auth_list:
 1895              	.LFB154:
 625:C:/Users/stapi/OneDrive/Desktop/GD32VW553/V1_MQTT_OK/GD32VW55X_Wifi_BLE_SDK/GD32VW55x_RELEASE_V1.0.2/MSDK/wpa_supplicant/src/ap\pmksa_cache_auth.c **** 
 626:C:/Users/stapi/OneDrive/Desktop/GD32VW553/V1_MQTT_OK/GD32VW55X_Wifi_BLE_SDK/GD32VW55x_RELEASE_V1.0.2/MSDK/wpa_supplicant/src/ap\pmksa_cache_auth.c **** 
 627:C:/Users/stapi/OneDrive/Desktop/GD32VW553/V1_MQTT_OK/GD32VW55X_Wifi_BLE_SDK/GD32VW55x_RELEASE_V1.0.2/MSDK/wpa_supplicant/src/ap\pmksa_cache_auth.c **** /**
 628:C:/Users/stapi/OneDrive/Desktop/GD32VW553/V1_MQTT_OK/GD32VW55X_Wifi_BLE_SDK/GD32VW55x_RELEASE_V1.0.2/MSDK/wpa_supplicant/src/ap\pmksa_cache_auth.c ****  * pmksa_cache_auth_list - Dump text list of entries in PMKSA cache
 629:C:/Users/stapi/OneDrive/Desktop/GD32VW553/V1_MQTT_OK/GD32VW55X_Wifi_BLE_SDK/GD32VW55x_RELEASE_V1.0.2/MSDK/wpa_supplicant/src/ap\pmksa_cache_auth.c ****  * @pmksa: Pointer to PMKSA cache data from pmksa_cache_auth_init()
 630:C:/Users/stapi/OneDrive/Desktop/GD32VW553/V1_MQTT_OK/GD32VW55X_Wifi_BLE_SDK/GD32VW55x_RELEASE_V1.0.2/MSDK/wpa_supplicant/src/ap\pmksa_cache_auth.c ****  * @buf: Buffer for the list
 631:C:/Users/stapi/OneDrive/Desktop/GD32VW553/V1_MQTT_OK/GD32VW55X_Wifi_BLE_SDK/GD32VW55x_RELEASE_V1.0.2/MSDK/wpa_supplicant/src/ap\pmksa_cache_auth.c ****  * @len: Length of the buffer
 632:C:/Users/stapi/OneDrive/Desktop/GD32VW553/V1_MQTT_OK/GD32VW55X_Wifi_BLE_SDK/GD32VW55x_RELEASE_V1.0.2/MSDK/wpa_supplicant/src/ap\pmksa_cache_auth.c ****  * Returns: Number of bytes written to buffer
 633:C:/Users/stapi/OneDrive/Desktop/GD32VW553/V1_MQTT_OK/GD32VW55X_Wifi_BLE_SDK/GD32VW55x_RELEASE_V1.0.2/MSDK/wpa_supplicant/src/ap\pmksa_cache_auth.c ****  *
 634:C:/Users/stapi/OneDrive/Desktop/GD32VW553/V1_MQTT_OK/GD32VW55X_Wifi_BLE_SDK/GD32VW55x_RELEASE_V1.0.2/MSDK/wpa_supplicant/src/ap\pmksa_cache_auth.c ****  * This function is used to generate a text format representation of the
 635:C:/Users/stapi/OneDrive/Desktop/GD32VW553/V1_MQTT_OK/GD32VW55X_Wifi_BLE_SDK/GD32VW55x_RELEASE_V1.0.2/MSDK/wpa_supplicant/src/ap\pmksa_cache_auth.c ****  * current PMKSA cache contents for the ctrl_iface PMKSA command.
 636:C:/Users/stapi/OneDrive/Desktop/GD32VW553/V1_MQTT_OK/GD32VW55X_Wifi_BLE_SDK/GD32VW55x_RELEASE_V1.0.2/MSDK/wpa_supplicant/src/ap\pmksa_cache_auth.c ****  */
 637:C:/Users/stapi/OneDrive/Desktop/GD32VW553/V1_MQTT_OK/GD32VW55X_Wifi_BLE_SDK/GD32VW55x_RELEASE_V1.0.2/MSDK/wpa_supplicant/src/ap\pmksa_cache_auth.c **** int pmksa_cache_auth_list(struct rsn_pmksa_cache *pmksa, char *buf, size_t len)
 638:C:/Users/stapi/OneDrive/Desktop/GD32VW553/V1_MQTT_OK/GD32VW55X_Wifi_BLE_SDK/GD32VW55x_RELEASE_V1.0.2/MSDK/wpa_supplicant/src/ap\pmksa_cache_auth.c **** {
 1896              		.loc 1 638 1 is_stmt 1
 1897              		.cfi_startproc
 1898              	.LVL191:
 1899 0000 17030000 		call	t0,__riscv_save_7
 1899      E7020300 
 1900              		.cfi_offset 22, -32
 1901              		.cfi_offset 21, -28
 1902              		.cfi_offset 20, -24
 1903              		.cfi_offset 19, -20
 1904              		.cfi_offset 18, -16
 1905              		.cfi_offset 9, -12
 1906              		.cfi_offset 8, -8
 1907              		.cfi_offset 1, -4
 1908              		.cfi_def_cfa_offset 32
 639:C:/Users/stapi/OneDrive/Desktop/GD32VW553/V1_MQTT_OK/GD32VW55X_Wifi_BLE_SDK/GD32VW55x_RELEASE_V1.0.2/MSDK/wpa_supplicant/src/ap\pmksa_cache_auth.c **** 	int i, ret;
 1909              		.loc 1 639 2
 640:C:/Users/stapi/OneDrive/Desktop/GD32VW553/V1_MQTT_OK/GD32VW55X_Wifi_BLE_SDK/GD32VW55x_RELEASE_V1.0.2/MSDK/wpa_supplicant/src/ap\pmksa_cache_auth.c **** 	char *pos = buf;
 1910              		.loc 1 640 2
 638:C:/Users/stapi/OneDrive/Desktop/GD32VW553/V1_MQTT_OK/GD32VW55X_Wifi_BLE_SDK/GD32VW55x_RELEASE_V1.0.2/MSDK/wpa_supplicant/src/ap\pmksa_cache_auth.c **** 	int i, ret;
 1911              		.loc 1 638 1 is_stmt 0
 1912 0008 0111     		addi	sp,sp,-32
 1913              		.cfi_def_cfa_offset 64
 638:C:/Users/stapi/OneDrive/Desktop/GD32VW553/V1_MQTT_OK/GD32VW55X_Wifi_BLE_SDK/GD32VW55x_RELEASE_V1.0.2/MSDK/wpa_supplicant/src/ap\pmksa_cache_auth.c **** 	int i, ret;
 1914              		.loc 1 638 1
 1915 000a AA84     		mv	s1,a0
 641:C:/Users/stapi/OneDrive/Desktop/GD32VW553/V1_MQTT_OK/GD32VW55X_Wifi_BLE_SDK/GD32VW55x_RELEASE_V1.0.2/MSDK/wpa_supplicant/src/ap\pmksa_cache_auth.c **** 	struct rsn_pmksa_cache_entry *entry;
 642:C:/Users/stapi/OneDrive/Desktop/GD32VW553/V1_MQTT_OK/GD32VW55X_Wifi_BLE_SDK/GD32VW55x_RELEASE_V1.0.2/MSDK/wpa_supplicant/src/ap\pmksa_cache_auth.c **** 	struct os_reltime now;
 643:C:/Users/stapi/OneDrive/Desktop/GD32VW553/V1_MQTT_OK/GD32VW55X_Wifi_BLE_SDK/GD32VW55x_RELEASE_V1.0.2/MSDK/wpa_supplicant/src/ap\pmksa_cache_auth.c **** 
 644:C:/Users/stapi/OneDrive/Desktop/GD32VW553/V1_MQTT_OK/GD32VW55X_Wifi_BLE_SDK/GD32VW55x_RELEASE_V1.0.2/MSDK/wpa_supplicant/src/ap\pmksa_cache_auth.c **** 	os_get_reltime(&now);
 1916              		.loc 1 644 2
 1917 000c 2808     		addi	a0,sp,24
 1918              	.LVL192:
 638:C:/Users/stapi/OneDrive/Desktop/GD32VW553/V1_MQTT_OK/GD32VW55X_Wifi_BLE_SDK/GD32VW55x_RELEASE_V1.0.2/MSDK/wpa_supplicant/src/ap\pmksa_cache_auth.c **** 	int i, ret;
 1919              		.loc 1 638 1
 1920 000e AE89     		mv	s3,a1
 1921              	.LVL193:
 641:C:/Users/stapi/OneDrive/Desktop/GD32VW553/V1_MQTT_OK/GD32VW55X_Wifi_BLE_SDK/GD32VW55x_RELEASE_V1.0.2/MSDK/wpa_supplicant/src/ap\pmksa_cache_auth.c **** 	struct rsn_pmksa_cache_entry *entry;
 1922              		.loc 1 641 2 is_stmt 1
 642:C:/Users/stapi/OneDrive/Desktop/GD32VW553/V1_MQTT_OK/GD32VW55X_Wifi_BLE_SDK/GD32VW55x_RELEASE_V1.0.2/MSDK/wpa_supplicant/src/ap\pmksa_cache_auth.c **** 
 1923              		.loc 1 642 2
 1924              		.loc 1 644 2
 638:C:/Users/stapi/OneDrive/Desktop/GD32VW553/V1_MQTT_OK/GD32VW55X_Wifi_BLE_SDK/GD32VW55x_RELEASE_V1.0.2/MSDK/wpa_supplicant/src/ap\pmksa_cache_auth.c **** 	int i, ret;
 1925              		.loc 1 638 1 is_stmt 0
 1926 0010 3289     		mv	s2,a2
 1927              		.loc 1 644 2
 1928 0012 97000000 		call	os_get_reltime
 1928      E7800000 
 1929              	.LVL194:
 645:C:/Users/stapi/OneDrive/Desktop/GD32VW553/V1_MQTT_OK/GD32VW55X_Wifi_BLE_SDK/GD32VW55x_RELEASE_V1.0.2/MSDK/wpa_supplicant/src/ap\pmksa_cache_auth.c **** 	ret = os_snprintf(pos, buf + len - pos,
 1930              		.loc 1 645 2 is_stmt 1
 1931              		.loc 1 645 8 is_stmt 0
 1932 001a 37060000 		lui	a2,%hi(.LC8)
 1933 001e 13060600 		addi	a2,a2,%lo(.LC8)
 1934 0022 CA85     		mv	a1,s2
 1935 0024 4E85     		mv	a0,s3
 1936 0026 97000000 		call	os_snprintf
 1936      E7800000 
 1937              	.LVL195:
 646:C:/Users/stapi/OneDrive/Desktop/GD32VW553/V1_MQTT_OK/GD32VW55X_Wifi_BLE_SDK/GD32VW55x_RELEASE_V1.0.2/MSDK/wpa_supplicant/src/ap\pmksa_cache_auth.c **** 			  "Index / SPA / PMKID / expiration (in seconds) / opportunistic\n");
 647:C:/Users/stapi/OneDrive/Desktop/GD32VW553/V1_MQTT_OK/GD32VW55X_Wifi_BLE_SDK/GD32VW55x_RELEASE_V1.0.2/MSDK/wpa_supplicant/src/ap\pmksa_cache_auth.c **** 	if (os_snprintf_error(buf + len - pos, ret))
 1938              		.loc 1 647 2 is_stmt 1
 1939              	.LBB62:
 1940              	.LBB63:
 1941              		.file 4 "..\\..\\..\\..\\wpa_supplicant\\src/utils/os.h"
   1:..\..\..\..\wpa_supplicant\src/utils/os.h **** /*
   2:..\..\..\..\wpa_supplicant\src/utils/os.h ****  * OS specific functions
   3:..\..\..\..\wpa_supplicant\src/utils/os.h ****  * Copyright (c) 2005-2009, Jouni Malinen <j@w1.fi>
   4:..\..\..\..\wpa_supplicant\src/utils/os.h ****  *
   5:..\..\..\..\wpa_supplicant\src/utils/os.h ****  * This software may be distributed under the terms of the BSD license.
   6:..\..\..\..\wpa_supplicant\src/utils/os.h ****  * See README for more details.
   7:..\..\..\..\wpa_supplicant\src/utils/os.h ****  */
   8:..\..\..\..\wpa_supplicant\src/utils/os.h **** 
   9:..\..\..\..\wpa_supplicant\src/utils/os.h **** #ifndef OS_H
  10:..\..\..\..\wpa_supplicant\src/utils/os.h **** #define OS_H
  11:..\..\..\..\wpa_supplicant\src/utils/os.h **** 
  12:..\..\..\..\wpa_supplicant\src/utils/os.h **** typedef long os_time_t;
  13:..\..\..\..\wpa_supplicant\src/utils/os.h **** 
  14:..\..\..\..\wpa_supplicant\src/utils/os.h **** /**
  15:..\..\..\..\wpa_supplicant\src/utils/os.h ****  * os_sleep - Sleep (sec, usec)
  16:..\..\..\..\wpa_supplicant\src/utils/os.h ****  * @sec: Number of seconds to sleep
  17:..\..\..\..\wpa_supplicant\src/utils/os.h ****  * @usec: Number of microseconds to sleep
  18:..\..\..\..\wpa_supplicant\src/utils/os.h ****  */
  19:..\..\..\..\wpa_supplicant\src/utils/os.h **** void os_sleep(os_time_t sec, os_time_t usec);
  20:..\..\..\..\wpa_supplicant\src/utils/os.h **** 
  21:..\..\..\..\wpa_supplicant\src/utils/os.h **** struct os_time {
  22:..\..\..\..\wpa_supplicant\src/utils/os.h **** 	os_time_t sec;
  23:..\..\..\..\wpa_supplicant\src/utils/os.h **** 	os_time_t usec;
  24:..\..\..\..\wpa_supplicant\src/utils/os.h **** };
  25:..\..\..\..\wpa_supplicant\src/utils/os.h **** 
  26:..\..\..\..\wpa_supplicant\src/utils/os.h **** struct os_reltime {
  27:..\..\..\..\wpa_supplicant\src/utils/os.h **** 	os_time_t sec;
  28:..\..\..\..\wpa_supplicant\src/utils/os.h **** 	os_time_t usec;
  29:..\..\..\..\wpa_supplicant\src/utils/os.h **** };
  30:..\..\..\..\wpa_supplicant\src/utils/os.h **** 
  31:..\..\..\..\wpa_supplicant\src/utils/os.h **** /**
  32:..\..\..\..\wpa_supplicant\src/utils/os.h ****  * os_get_time - Get current time (sec, usec)
  33:..\..\..\..\wpa_supplicant\src/utils/os.h ****  * @t: Pointer to buffer for the time
  34:..\..\..\..\wpa_supplicant\src/utils/os.h ****  * Returns: 0 on success, -1 on failure
  35:..\..\..\..\wpa_supplicant\src/utils/os.h ****  */
  36:..\..\..\..\wpa_supplicant\src/utils/os.h **** int os_get_time(struct os_time *t);
  37:..\..\..\..\wpa_supplicant\src/utils/os.h **** 
  38:..\..\..\..\wpa_supplicant\src/utils/os.h **** /**
  39:..\..\..\..\wpa_supplicant\src/utils/os.h ****  * os_get_reltime - Get relative time (sec, usec)
  40:..\..\..\..\wpa_supplicant\src/utils/os.h ****  * @t: Pointer to buffer for the time
  41:..\..\..\..\wpa_supplicant\src/utils/os.h ****  * Returns: 0 on success, -1 on failure
  42:..\..\..\..\wpa_supplicant\src/utils/os.h ****  */
  43:..\..\..\..\wpa_supplicant\src/utils/os.h **** int os_get_reltime(struct os_reltime *t);
  44:..\..\..\..\wpa_supplicant\src/utils/os.h **** 
  45:..\..\..\..\wpa_supplicant\src/utils/os.h **** 
  46:..\..\..\..\wpa_supplicant\src/utils/os.h **** /* Helpers for handling struct os_time */
  47:..\..\..\..\wpa_supplicant\src/utils/os.h **** 
  48:..\..\..\..\wpa_supplicant\src/utils/os.h **** static inline int os_time_before(struct os_time *a, struct os_time *b)
  49:..\..\..\..\wpa_supplicant\src/utils/os.h **** {
  50:..\..\..\..\wpa_supplicant\src/utils/os.h **** 	return (a->sec < b->sec) ||
  51:..\..\..\..\wpa_supplicant\src/utils/os.h **** 	       (a->sec == b->sec && a->usec < b->usec);
  52:..\..\..\..\wpa_supplicant\src/utils/os.h **** }
  53:..\..\..\..\wpa_supplicant\src/utils/os.h **** 
  54:..\..\..\..\wpa_supplicant\src/utils/os.h **** 
  55:..\..\..\..\wpa_supplicant\src/utils/os.h **** static inline void os_time_sub(struct os_time *a, struct os_time *b,
  56:..\..\..\..\wpa_supplicant\src/utils/os.h **** 			       struct os_time *res)
  57:..\..\..\..\wpa_supplicant\src/utils/os.h **** {
  58:..\..\..\..\wpa_supplicant\src/utils/os.h **** 	res->sec = a->sec - b->sec;
  59:..\..\..\..\wpa_supplicant\src/utils/os.h **** 	res->usec = a->usec - b->usec;
  60:..\..\..\..\wpa_supplicant\src/utils/os.h **** 	if (res->usec < 0) {
  61:..\..\..\..\wpa_supplicant\src/utils/os.h **** 		res->sec--;
  62:..\..\..\..\wpa_supplicant\src/utils/os.h **** 		res->usec += 1000000;
  63:..\..\..\..\wpa_supplicant\src/utils/os.h **** 	}
  64:..\..\..\..\wpa_supplicant\src/utils/os.h **** }
  65:..\..\..\..\wpa_supplicant\src/utils/os.h **** 
  66:..\..\..\..\wpa_supplicant\src/utils/os.h **** 
  67:..\..\..\..\wpa_supplicant\src/utils/os.h **** /* Helpers for handling struct os_reltime */
  68:..\..\..\..\wpa_supplicant\src/utils/os.h **** 
  69:..\..\..\..\wpa_supplicant\src/utils/os.h **** static inline int os_reltime_before(struct os_reltime *a,
  70:..\..\..\..\wpa_supplicant\src/utils/os.h **** 				    struct os_reltime *b)
  71:..\..\..\..\wpa_supplicant\src/utils/os.h **** {
  72:..\..\..\..\wpa_supplicant\src/utils/os.h **** 	return (a->sec < b->sec) ||
  73:..\..\..\..\wpa_supplicant\src/utils/os.h **** 	       (a->sec == b->sec && a->usec < b->usec);
  74:..\..\..\..\wpa_supplicant\src/utils/os.h **** }
  75:..\..\..\..\wpa_supplicant\src/utils/os.h **** 
  76:..\..\..\..\wpa_supplicant\src/utils/os.h **** 
  77:..\..\..\..\wpa_supplicant\src/utils/os.h **** static inline void os_reltime_sub(struct os_reltime *a, struct os_reltime *b,
  78:..\..\..\..\wpa_supplicant\src/utils/os.h **** 				  struct os_reltime *res)
  79:..\..\..\..\wpa_supplicant\src/utils/os.h **** {
  80:..\..\..\..\wpa_supplicant\src/utils/os.h **** 	res->sec = a->sec - b->sec;
  81:..\..\..\..\wpa_supplicant\src/utils/os.h **** 	res->usec = a->usec - b->usec;
  82:..\..\..\..\wpa_supplicant\src/utils/os.h **** 	if (res->usec < 0) {
  83:..\..\..\..\wpa_supplicant\src/utils/os.h **** 		res->sec--;
  84:..\..\..\..\wpa_supplicant\src/utils/os.h **** 		res->usec += 1000000;
  85:..\..\..\..\wpa_supplicant\src/utils/os.h **** 	}
  86:..\..\..\..\wpa_supplicant\src/utils/os.h **** }
  87:..\..\..\..\wpa_supplicant\src/utils/os.h **** 
  88:..\..\..\..\wpa_supplicant\src/utils/os.h **** 
  89:..\..\..\..\wpa_supplicant\src/utils/os.h **** static inline void os_reltime_age(struct os_reltime *start,
  90:..\..\..\..\wpa_supplicant\src/utils/os.h **** 				  struct os_reltime *age)
  91:..\..\..\..\wpa_supplicant\src/utils/os.h **** {
  92:..\..\..\..\wpa_supplicant\src/utils/os.h **** 	struct os_reltime now;
  93:..\..\..\..\wpa_supplicant\src/utils/os.h **** 
  94:..\..\..\..\wpa_supplicant\src/utils/os.h **** 	os_get_reltime(&now);
  95:..\..\..\..\wpa_supplicant\src/utils/os.h **** 	os_reltime_sub(&now, start, age);
  96:..\..\..\..\wpa_supplicant\src/utils/os.h **** }
  97:..\..\..\..\wpa_supplicant\src/utils/os.h **** 
  98:..\..\..\..\wpa_supplicant\src/utils/os.h **** 
  99:..\..\..\..\wpa_supplicant\src/utils/os.h **** static inline int os_reltime_expired(struct os_reltime *now,
 100:..\..\..\..\wpa_supplicant\src/utils/os.h **** 				     struct os_reltime *ts,
 101:..\..\..\..\wpa_supplicant\src/utils/os.h **** 				     os_time_t timeout_secs)
 102:..\..\..\..\wpa_supplicant\src/utils/os.h **** {
 103:..\..\..\..\wpa_supplicant\src/utils/os.h **** 	struct os_reltime age;
 104:..\..\..\..\wpa_supplicant\src/utils/os.h **** 
 105:..\..\..\..\wpa_supplicant\src/utils/os.h **** 	os_reltime_sub(now, ts, &age);
 106:..\..\..\..\wpa_supplicant\src/utils/os.h **** 	return (age.sec > timeout_secs) ||
 107:..\..\..\..\wpa_supplicant\src/utils/os.h **** 	       (age.sec == timeout_secs && age.usec > 0);
 108:..\..\..\..\wpa_supplicant\src/utils/os.h **** }
 109:..\..\..\..\wpa_supplicant\src/utils/os.h **** 
 110:..\..\..\..\wpa_supplicant\src/utils/os.h **** 
 111:..\..\..\..\wpa_supplicant\src/utils/os.h **** static inline int os_reltime_initialized(struct os_reltime *t)
 112:..\..\..\..\wpa_supplicant\src/utils/os.h **** {
 113:..\..\..\..\wpa_supplicant\src/utils/os.h **** 	return t->sec != 0 || t->usec != 0;
 114:..\..\..\..\wpa_supplicant\src/utils/os.h **** }
 115:..\..\..\..\wpa_supplicant\src/utils/os.h **** 
 116:..\..\..\..\wpa_supplicant\src/utils/os.h **** 
 117:..\..\..\..\wpa_supplicant\src/utils/os.h **** /**
 118:..\..\..\..\wpa_supplicant\src/utils/os.h ****  * os_mktime - Convert broken-down time into seconds since 1970-01-01
 119:..\..\..\..\wpa_supplicant\src/utils/os.h ****  * @year: Four digit year
 120:..\..\..\..\wpa_supplicant\src/utils/os.h ****  * @month: Month (1 .. 12)
 121:..\..\..\..\wpa_supplicant\src/utils/os.h ****  * @day: Day of month (1 .. 31)
 122:..\..\..\..\wpa_supplicant\src/utils/os.h ****  * @hour: Hour (0 .. 23)
 123:..\..\..\..\wpa_supplicant\src/utils/os.h ****  * @min: Minute (0 .. 59)
 124:..\..\..\..\wpa_supplicant\src/utils/os.h ****  * @sec: Second (0 .. 60)
 125:..\..\..\..\wpa_supplicant\src/utils/os.h ****  * @t: Buffer for returning calendar time representation (seconds since
 126:..\..\..\..\wpa_supplicant\src/utils/os.h ****  * 1970-01-01 00:00:00)
 127:..\..\..\..\wpa_supplicant\src/utils/os.h ****  * Returns: 0 on success, -1 on failure
 128:..\..\..\..\wpa_supplicant\src/utils/os.h ****  *
 129:..\..\..\..\wpa_supplicant\src/utils/os.h ****  * Note: The result is in seconds from Epoch, i.e., in UTC, not in local time
 130:..\..\..\..\wpa_supplicant\src/utils/os.h ****  * which is used by POSIX mktime().
 131:..\..\..\..\wpa_supplicant\src/utils/os.h ****  */
 132:..\..\..\..\wpa_supplicant\src/utils/os.h **** int os_mktime(int year, int month, int day, int hour, int min, int sec,
 133:..\..\..\..\wpa_supplicant\src/utils/os.h **** 	      os_time_t *t);
 134:..\..\..\..\wpa_supplicant\src/utils/os.h **** 
 135:..\..\..\..\wpa_supplicant\src/utils/os.h **** struct os_tm {
 136:..\..\..\..\wpa_supplicant\src/utils/os.h **** 	int sec; /* 0..59 or 60 for leap seconds */
 137:..\..\..\..\wpa_supplicant\src/utils/os.h **** 	int min; /* 0..59 */
 138:..\..\..\..\wpa_supplicant\src/utils/os.h **** 	int hour; /* 0..23 */
 139:..\..\..\..\wpa_supplicant\src/utils/os.h **** 	int day; /* 1..31 */
 140:..\..\..\..\wpa_supplicant\src/utils/os.h **** 	int month; /* 1..12 */
 141:..\..\..\..\wpa_supplicant\src/utils/os.h **** 	int year; /* Four digit year */
 142:..\..\..\..\wpa_supplicant\src/utils/os.h **** };
 143:..\..\..\..\wpa_supplicant\src/utils/os.h **** 
 144:..\..\..\..\wpa_supplicant\src/utils/os.h **** int os_gmtime(os_time_t t, struct os_tm *tm);
 145:..\..\..\..\wpa_supplicant\src/utils/os.h **** 
 146:..\..\..\..\wpa_supplicant\src/utils/os.h **** /**
 147:..\..\..\..\wpa_supplicant\src/utils/os.h ****  * os_daemonize - Run in the background (detach from the controlling terminal)
 148:..\..\..\..\wpa_supplicant\src/utils/os.h ****  * @pid_file: File name to write the process ID to or %NULL to skip this
 149:..\..\..\..\wpa_supplicant\src/utils/os.h ****  * Returns: 0 on success, -1 on failure
 150:..\..\..\..\wpa_supplicant\src/utils/os.h ****  */
 151:..\..\..\..\wpa_supplicant\src/utils/os.h **** int os_daemonize(const char *pid_file);
 152:..\..\..\..\wpa_supplicant\src/utils/os.h **** 
 153:..\..\..\..\wpa_supplicant\src/utils/os.h **** /**
 154:..\..\..\..\wpa_supplicant\src/utils/os.h ****  * os_daemonize_terminate - Stop running in the background (remove pid file)
 155:..\..\..\..\wpa_supplicant\src/utils/os.h ****  * @pid_file: File name to write the process ID to or %NULL to skip this
 156:..\..\..\..\wpa_supplicant\src/utils/os.h ****  */
 157:..\..\..\..\wpa_supplicant\src/utils/os.h **** void os_daemonize_terminate(const char *pid_file);
 158:..\..\..\..\wpa_supplicant\src/utils/os.h **** 
 159:..\..\..\..\wpa_supplicant\src/utils/os.h **** /**
 160:..\..\..\..\wpa_supplicant\src/utils/os.h ****  * os_get_random - Get cryptographically strong pseudo random data
 161:..\..\..\..\wpa_supplicant\src/utils/os.h ****  * @buf: Buffer for pseudo random data
 162:..\..\..\..\wpa_supplicant\src/utils/os.h ****  * @len: Length of the buffer
 163:..\..\..\..\wpa_supplicant\src/utils/os.h ****  * Returns: 0 on success, -1 on failure
 164:..\..\..\..\wpa_supplicant\src/utils/os.h ****  */
 165:..\..\..\..\wpa_supplicant\src/utils/os.h **** int os_get_random(unsigned char *buf, size_t len);
 166:..\..\..\..\wpa_supplicant\src/utils/os.h **** 
 167:..\..\..\..\wpa_supplicant\src/utils/os.h **** /**
 168:..\..\..\..\wpa_supplicant\src/utils/os.h ****  * os_random - Get pseudo random value (not necessarily very strong)
 169:..\..\..\..\wpa_supplicant\src/utils/os.h ****  * Returns: Pseudo random value
 170:..\..\..\..\wpa_supplicant\src/utils/os.h ****  */
 171:..\..\..\..\wpa_supplicant\src/utils/os.h **** unsigned long os_random(void);
 172:..\..\..\..\wpa_supplicant\src/utils/os.h **** 
 173:..\..\..\..\wpa_supplicant\src/utils/os.h **** /**
 174:..\..\..\..\wpa_supplicant\src/utils/os.h ****  * os_rel2abs_path - Get an absolute path for a file
 175:..\..\..\..\wpa_supplicant\src/utils/os.h ****  * @rel_path: Relative path to a file
 176:..\..\..\..\wpa_supplicant\src/utils/os.h ****  * Returns: Absolute path for the file or %NULL on failure
 177:..\..\..\..\wpa_supplicant\src/utils/os.h ****  *
 178:..\..\..\..\wpa_supplicant\src/utils/os.h ****  * This function tries to convert a relative path of a file to an absolute path
 179:..\..\..\..\wpa_supplicant\src/utils/os.h ****  * in order for the file to be found even if current working directory has
 180:..\..\..\..\wpa_supplicant\src/utils/os.h ****  * changed. The returned value is allocated and caller is responsible for
 181:..\..\..\..\wpa_supplicant\src/utils/os.h ****  * freeing it. It is acceptable to just return the same path in an allocated
 182:..\..\..\..\wpa_supplicant\src/utils/os.h ****  * buffer, e.g., return strdup(rel_path). This function is only used to find
 183:..\..\..\..\wpa_supplicant\src/utils/os.h ****  * configuration files when os_daemonize() may have changed the current working
 184:..\..\..\..\wpa_supplicant\src/utils/os.h ****  * directory and relative path would be pointing to a different location.
 185:..\..\..\..\wpa_supplicant\src/utils/os.h ****  */
 186:..\..\..\..\wpa_supplicant\src/utils/os.h **** char * os_rel2abs_path(const char *rel_path);
 187:..\..\..\..\wpa_supplicant\src/utils/os.h **** 
 188:..\..\..\..\wpa_supplicant\src/utils/os.h **** /**
 189:..\..\..\..\wpa_supplicant\src/utils/os.h ****  * os_program_init - Program initialization (called at start)
 190:..\..\..\..\wpa_supplicant\src/utils/os.h ****  * Returns: 0 on success, -1 on failure
 191:..\..\..\..\wpa_supplicant\src/utils/os.h ****  *
 192:..\..\..\..\wpa_supplicant\src/utils/os.h ****  * This function is called when a programs starts. If there are any OS specific
 193:..\..\..\..\wpa_supplicant\src/utils/os.h ****  * processing that is needed, it can be placed here. It is also acceptable to
 194:..\..\..\..\wpa_supplicant\src/utils/os.h ****  * just return 0 if not special processing is needed.
 195:..\..\..\..\wpa_supplicant\src/utils/os.h ****  */
 196:..\..\..\..\wpa_supplicant\src/utils/os.h **** int os_program_init(void);
 197:..\..\..\..\wpa_supplicant\src/utils/os.h **** 
 198:..\..\..\..\wpa_supplicant\src/utils/os.h **** /**
 199:..\..\..\..\wpa_supplicant\src/utils/os.h ****  * os_program_deinit - Program deinitialization (called just before exit)
 200:..\..\..\..\wpa_supplicant\src/utils/os.h ****  *
 201:..\..\..\..\wpa_supplicant\src/utils/os.h ****  * This function is called just before a program exists. If there are any OS
 202:..\..\..\..\wpa_supplicant\src/utils/os.h ****  * specific processing, e.g., freeing resourced allocated in os_program_init(),
 203:..\..\..\..\wpa_supplicant\src/utils/os.h ****  * it should be done here. It is also acceptable for this function to do
 204:..\..\..\..\wpa_supplicant\src/utils/os.h ****  * nothing.
 205:..\..\..\..\wpa_supplicant\src/utils/os.h ****  */
 206:..\..\..\..\wpa_supplicant\src/utils/os.h **** void os_program_deinit(void);
 207:..\..\..\..\wpa_supplicant\src/utils/os.h **** 
 208:..\..\..\..\wpa_supplicant\src/utils/os.h **** /**
 209:..\..\..\..\wpa_supplicant\src/utils/os.h ****  * os_setenv - Set environment variable
 210:..\..\..\..\wpa_supplicant\src/utils/os.h ****  * @name: Name of the variable
 211:..\..\..\..\wpa_supplicant\src/utils/os.h ****  * @value: Value to set to the variable
 212:..\..\..\..\wpa_supplicant\src/utils/os.h ****  * @overwrite: Whether existing variable should be overwritten
 213:..\..\..\..\wpa_supplicant\src/utils/os.h ****  * Returns: 0 on success, -1 on error
 214:..\..\..\..\wpa_supplicant\src/utils/os.h ****  *
 215:..\..\..\..\wpa_supplicant\src/utils/os.h ****  * This function is only used for wpa_cli action scripts. OS wrapper does not
 216:..\..\..\..\wpa_supplicant\src/utils/os.h ****  * need to implement this if such functionality is not needed.
 217:..\..\..\..\wpa_supplicant\src/utils/os.h ****  */
 218:..\..\..\..\wpa_supplicant\src/utils/os.h **** int os_setenv(const char *name, const char *value, int overwrite);
 219:..\..\..\..\wpa_supplicant\src/utils/os.h **** 
 220:..\..\..\..\wpa_supplicant\src/utils/os.h **** /**
 221:..\..\..\..\wpa_supplicant\src/utils/os.h ****  * os_unsetenv - Delete environent variable
 222:..\..\..\..\wpa_supplicant\src/utils/os.h ****  * @name: Name of the variable
 223:..\..\..\..\wpa_supplicant\src/utils/os.h ****  * Returns: 0 on success, -1 on error
 224:..\..\..\..\wpa_supplicant\src/utils/os.h ****  *
 225:..\..\..\..\wpa_supplicant\src/utils/os.h ****  * This function is only used for wpa_cli action scripts. OS wrapper does not
 226:..\..\..\..\wpa_supplicant\src/utils/os.h ****  * need to implement this if such functionality is not needed.
 227:..\..\..\..\wpa_supplicant\src/utils/os.h ****  */
 228:..\..\..\..\wpa_supplicant\src/utils/os.h **** int os_unsetenv(const char *name);
 229:..\..\..\..\wpa_supplicant\src/utils/os.h **** 
 230:..\..\..\..\wpa_supplicant\src/utils/os.h **** /**
 231:..\..\..\..\wpa_supplicant\src/utils/os.h ****  * os_readfile - Read a file to an allocated memory buffer
 232:..\..\..\..\wpa_supplicant\src/utils/os.h ****  * @name: Name of the file to read
 233:..\..\..\..\wpa_supplicant\src/utils/os.h ****  * @len: For returning the length of the allocated buffer
 234:..\..\..\..\wpa_supplicant\src/utils/os.h ****  * Returns: Pointer to the allocated buffer or %NULL on failure
 235:..\..\..\..\wpa_supplicant\src/utils/os.h ****  *
 236:..\..\..\..\wpa_supplicant\src/utils/os.h ****  * This function allocates memory and reads the given file to this buffer. Both
 237:..\..\..\..\wpa_supplicant\src/utils/os.h ****  * binary and text files can be read with this function. The caller is
 238:..\..\..\..\wpa_supplicant\src/utils/os.h ****  * responsible for freeing the returned buffer with os_free().
 239:..\..\..\..\wpa_supplicant\src/utils/os.h ****  */
 240:..\..\..\..\wpa_supplicant\src/utils/os.h **** char * os_readfile(const char *name, size_t *len);
 241:..\..\..\..\wpa_supplicant\src/utils/os.h **** 
 242:..\..\..\..\wpa_supplicant\src/utils/os.h **** /**
 243:..\..\..\..\wpa_supplicant\src/utils/os.h ****  * os_file_exists - Check whether the specified file exists
 244:..\..\..\..\wpa_supplicant\src/utils/os.h ****  * @fname: Path and name of the file
 245:..\..\..\..\wpa_supplicant\src/utils/os.h ****  * Returns: 1 if the file exists or 0 if not
 246:..\..\..\..\wpa_supplicant\src/utils/os.h ****  */
 247:..\..\..\..\wpa_supplicant\src/utils/os.h **** int os_file_exists(const char *fname);
 248:..\..\..\..\wpa_supplicant\src/utils/os.h **** 
 249:..\..\..\..\wpa_supplicant\src/utils/os.h **** /**
 250:..\..\..\..\wpa_supplicant\src/utils/os.h ****  * os_fdatasync - Sync a file's (for a given stream) state with storage device
 251:..\..\..\..\wpa_supplicant\src/utils/os.h ****  * @stream: the stream to be flushed
 252:..\..\..\..\wpa_supplicant\src/utils/os.h ****  * Returns: 0 if the operation succeeded or -1 on failure
 253:..\..\..\..\wpa_supplicant\src/utils/os.h ****  */
 254:..\..\..\..\wpa_supplicant\src/utils/os.h **** int os_fdatasync(FILE *stream);
 255:..\..\..\..\wpa_supplicant\src/utils/os.h **** 
 256:..\..\..\..\wpa_supplicant\src/utils/os.h **** /**
 257:..\..\..\..\wpa_supplicant\src/utils/os.h ****  * os_zalloc - Allocate and zero memory
 258:..\..\..\..\wpa_supplicant\src/utils/os.h ****  * @size: Number of bytes to allocate
 259:..\..\..\..\wpa_supplicant\src/utils/os.h ****  * Returns: Pointer to allocated and zeroed memory or %NULL on failure
 260:..\..\..\..\wpa_supplicant\src/utils/os.h ****  *
 261:..\..\..\..\wpa_supplicant\src/utils/os.h ****  * Caller is responsible for freeing the returned buffer with os_free().
 262:..\..\..\..\wpa_supplicant\src/utils/os.h ****  */
 263:..\..\..\..\wpa_supplicant\src/utils/os.h **** void * os_zalloc(size_t size);
 264:..\..\..\..\wpa_supplicant\src/utils/os.h **** 
 265:..\..\..\..\wpa_supplicant\src/utils/os.h **** /**
 266:..\..\..\..\wpa_supplicant\src/utils/os.h ****  * os_calloc - Allocate and zero memory for an array
 267:..\..\..\..\wpa_supplicant\src/utils/os.h ****  * @nmemb: Number of members in the array
 268:..\..\..\..\wpa_supplicant\src/utils/os.h ****  * @size: Number of bytes in each member
 269:..\..\..\..\wpa_supplicant\src/utils/os.h ****  * Returns: Pointer to allocated and zeroed memory or %NULL on failure
 270:..\..\..\..\wpa_supplicant\src/utils/os.h ****  *
 271:..\..\..\..\wpa_supplicant\src/utils/os.h ****  * This function can be used as a wrapper for os_zalloc(nmemb * size) when an
 272:..\..\..\..\wpa_supplicant\src/utils/os.h ****  * allocation is used for an array. The main benefit over os_zalloc() is in
 273:..\..\..\..\wpa_supplicant\src/utils/os.h ****  * having an extra check to catch integer overflows in multiplication.
 274:..\..\..\..\wpa_supplicant\src/utils/os.h ****  *
 275:..\..\..\..\wpa_supplicant\src/utils/os.h ****  * Caller is responsible for freeing the returned buffer with os_free().
 276:..\..\..\..\wpa_supplicant\src/utils/os.h ****  */
 277:..\..\..\..\wpa_supplicant\src/utils/os.h **** static inline void * os_calloc(size_t nmemb, size_t size)
 278:..\..\..\..\wpa_supplicant\src/utils/os.h **** {
 279:..\..\..\..\wpa_supplicant\src/utils/os.h **** 	if (size && nmemb > (~(size_t) 0) / size)
 280:..\..\..\..\wpa_supplicant\src/utils/os.h **** 		return NULL;
 281:..\..\..\..\wpa_supplicant\src/utils/os.h **** 	return os_zalloc(nmemb * size);
 282:..\..\..\..\wpa_supplicant\src/utils/os.h **** }
 283:..\..\..\..\wpa_supplicant\src/utils/os.h **** 
 284:..\..\..\..\wpa_supplicant\src/utils/os.h **** 
 285:..\..\..\..\wpa_supplicant\src/utils/os.h **** /*
 286:..\..\..\..\wpa_supplicant\src/utils/os.h ****  * The following functions are wrapper for standard ANSI C or POSIX functions.
 287:..\..\..\..\wpa_supplicant\src/utils/os.h ****  * By default, they are just defined to use the standard function name and no
 288:..\..\..\..\wpa_supplicant\src/utils/os.h ****  * os_*.c implementation is needed for them. This avoids extra function calls
 289:..\..\..\..\wpa_supplicant\src/utils/os.h ****  * by allowing the C pre-processor take care of the function name mapping.
 290:..\..\..\..\wpa_supplicant\src/utils/os.h ****  *
 291:..\..\..\..\wpa_supplicant\src/utils/os.h ****  * If the target system uses a C library that does not provide these functions,
 292:..\..\..\..\wpa_supplicant\src/utils/os.h ****  * build_config.h can be used to define the wrappers to use a different
 293:..\..\..\..\wpa_supplicant\src/utils/os.h ****  * function name. This can be done on function-by-function basis since the
 294:..\..\..\..\wpa_supplicant\src/utils/os.h ****  * defines here are only used if build_config.h does not define the os_* name.
 295:..\..\..\..\wpa_supplicant\src/utils/os.h ****  * If needed, os_*.c file can be used to implement the functions that are not
 296:..\..\..\..\wpa_supplicant\src/utils/os.h ****  * included in the C library on the target system. Alternatively,
 297:..\..\..\..\wpa_supplicant\src/utils/os.h ****  * OS_NO_C_LIB_DEFINES can be defined to skip all defines here in which case
 298:..\..\..\..\wpa_supplicant\src/utils/os.h ****  * these functions need to be implemented in os_*.c file for the target system.
 299:..\..\..\..\wpa_supplicant\src/utils/os.h ****  */
 300:..\..\..\..\wpa_supplicant\src/utils/os.h **** 
 301:..\..\..\..\wpa_supplicant\src/utils/os.h **** #ifdef OS_NO_C_LIB_DEFINES
 302:..\..\..\..\wpa_supplicant\src/utils/os.h **** 
 303:..\..\..\..\wpa_supplicant\src/utils/os.h **** /**
 304:..\..\..\..\wpa_supplicant\src/utils/os.h ****  * os_malloc - Allocate dynamic memory
 305:..\..\..\..\wpa_supplicant\src/utils/os.h ****  * @size: Size of the buffer to allocate
 306:..\..\..\..\wpa_supplicant\src/utils/os.h ****  * Returns: Allocated buffer or %NULL on failure
 307:..\..\..\..\wpa_supplicant\src/utils/os.h ****  *
 308:..\..\..\..\wpa_supplicant\src/utils/os.h ****  * Caller is responsible for freeing the returned buffer with os_free().
 309:..\..\..\..\wpa_supplicant\src/utils/os.h ****  */
 310:..\..\..\..\wpa_supplicant\src/utils/os.h **** void * os_malloc(size_t size);
 311:..\..\..\..\wpa_supplicant\src/utils/os.h **** 
 312:..\..\..\..\wpa_supplicant\src/utils/os.h **** /**
 313:..\..\..\..\wpa_supplicant\src/utils/os.h ****  * os_realloc - Re-allocate dynamic memory
 314:..\..\..\..\wpa_supplicant\src/utils/os.h ****  * @ptr: Old buffer from os_malloc() or os_realloc()
 315:..\..\..\..\wpa_supplicant\src/utils/os.h ****  * @size: Size of the new buffer
 316:..\..\..\..\wpa_supplicant\src/utils/os.h ****  * Returns: Allocated buffer or %NULL on failure
 317:..\..\..\..\wpa_supplicant\src/utils/os.h ****  *
 318:..\..\..\..\wpa_supplicant\src/utils/os.h ****  * Caller is responsible for freeing the returned buffer with os_free().
 319:..\..\..\..\wpa_supplicant\src/utils/os.h ****  * If re-allocation fails, %NULL is returned and the original buffer (ptr) is
 320:..\..\..\..\wpa_supplicant\src/utils/os.h ****  * not freed and caller is still responsible for freeing it.
 321:..\..\..\..\wpa_supplicant\src/utils/os.h ****  */
 322:..\..\..\..\wpa_supplicant\src/utils/os.h **** void * os_realloc(void *ptr, size_t size);
 323:..\..\..\..\wpa_supplicant\src/utils/os.h **** 
 324:..\..\..\..\wpa_supplicant\src/utils/os.h **** /**
 325:..\..\..\..\wpa_supplicant\src/utils/os.h ****  * os_free - Free dynamic memory
 326:..\..\..\..\wpa_supplicant\src/utils/os.h ****  * @ptr: Old buffer from os_malloc() or os_realloc(); can be %NULL
 327:..\..\..\..\wpa_supplicant\src/utils/os.h ****  */
 328:..\..\..\..\wpa_supplicant\src/utils/os.h **** void os_free(void *ptr);
 329:..\..\..\..\wpa_supplicant\src/utils/os.h **** 
 330:..\..\..\..\wpa_supplicant\src/utils/os.h **** /**
 331:..\..\..\..\wpa_supplicant\src/utils/os.h ****  * os_memcpy - Copy memory area
 332:..\..\..\..\wpa_supplicant\src/utils/os.h ****  * @dest: Destination
 333:..\..\..\..\wpa_supplicant\src/utils/os.h ****  * @src: Source
 334:..\..\..\..\wpa_supplicant\src/utils/os.h ****  * @n: Number of bytes to copy
 335:..\..\..\..\wpa_supplicant\src/utils/os.h ****  * Returns: dest
 336:..\..\..\..\wpa_supplicant\src/utils/os.h ****  *
 337:..\..\..\..\wpa_supplicant\src/utils/os.h ****  * The memory areas src and dst must not overlap. os_memmove() can be used with
 338:..\..\..\..\wpa_supplicant\src/utils/os.h ****  * overlapping memory.
 339:..\..\..\..\wpa_supplicant\src/utils/os.h ****  */
 340:..\..\..\..\wpa_supplicant\src/utils/os.h **** void * os_memcpy(void *dest, const void *src, size_t n);
 341:..\..\..\..\wpa_supplicant\src/utils/os.h **** 
 342:..\..\..\..\wpa_supplicant\src/utils/os.h **** /**
 343:..\..\..\..\wpa_supplicant\src/utils/os.h ****  * os_memmove - Copy memory area
 344:..\..\..\..\wpa_supplicant\src/utils/os.h ****  * @dest: Destination
 345:..\..\..\..\wpa_supplicant\src/utils/os.h ****  * @src: Source
 346:..\..\..\..\wpa_supplicant\src/utils/os.h ****  * @n: Number of bytes to copy
 347:..\..\..\..\wpa_supplicant\src/utils/os.h ****  * Returns: dest
 348:..\..\..\..\wpa_supplicant\src/utils/os.h ****  *
 349:..\..\..\..\wpa_supplicant\src/utils/os.h ****  * The memory areas src and dst may overlap.
 350:..\..\..\..\wpa_supplicant\src/utils/os.h ****  */
 351:..\..\..\..\wpa_supplicant\src/utils/os.h **** void * os_memmove(void *dest, const void *src, size_t n);
 352:..\..\..\..\wpa_supplicant\src/utils/os.h **** 
 353:..\..\..\..\wpa_supplicant\src/utils/os.h **** /**
 354:..\..\..\..\wpa_supplicant\src/utils/os.h ****  * os_memset - Fill memory with a constant byte
 355:..\..\..\..\wpa_supplicant\src/utils/os.h ****  * @s: Memory area to be filled
 356:..\..\..\..\wpa_supplicant\src/utils/os.h ****  * @c: Constant byte
 357:..\..\..\..\wpa_supplicant\src/utils/os.h ****  * @n: Number of bytes started from s to fill with c
 358:..\..\..\..\wpa_supplicant\src/utils/os.h ****  * Returns: s
 359:..\..\..\..\wpa_supplicant\src/utils/os.h ****  */
 360:..\..\..\..\wpa_supplicant\src/utils/os.h **** void * os_memset(void *s, int c, size_t n);
 361:..\..\..\..\wpa_supplicant\src/utils/os.h **** 
 362:..\..\..\..\wpa_supplicant\src/utils/os.h **** /**
 363:..\..\..\..\wpa_supplicant\src/utils/os.h ****  * os_memcmp - Compare memory areas
 364:..\..\..\..\wpa_supplicant\src/utils/os.h ****  * @s1: First buffer
 365:..\..\..\..\wpa_supplicant\src/utils/os.h ****  * @s2: Second buffer
 366:..\..\..\..\wpa_supplicant\src/utils/os.h ****  * @n: Maximum numbers of octets to compare
 367:..\..\..\..\wpa_supplicant\src/utils/os.h ****  * Returns: An integer less than, equal to, or greater than zero if s1 is
 368:..\..\..\..\wpa_supplicant\src/utils/os.h ****  * found to be less than, to match, or be greater than s2. Only first n
 369:..\..\..\..\wpa_supplicant\src/utils/os.h ****  * characters will be compared.
 370:..\..\..\..\wpa_supplicant\src/utils/os.h ****  */
 371:..\..\..\..\wpa_supplicant\src/utils/os.h **** int os_memcmp(const void *s1, const void *s2, size_t n);
 372:..\..\..\..\wpa_supplicant\src/utils/os.h **** 
 373:..\..\..\..\wpa_supplicant\src/utils/os.h **** /**
 374:..\..\..\..\wpa_supplicant\src/utils/os.h ****  * os_strdup - Duplicate a string
 375:..\..\..\..\wpa_supplicant\src/utils/os.h ****  * @s: Source string
 376:..\..\..\..\wpa_supplicant\src/utils/os.h ****  * Returns: Allocated buffer with the string copied into it or %NULL on failure
 377:..\..\..\..\wpa_supplicant\src/utils/os.h ****  *
 378:..\..\..\..\wpa_supplicant\src/utils/os.h ****  * Caller is responsible for freeing the returned buffer with os_free().
 379:..\..\..\..\wpa_supplicant\src/utils/os.h ****  */
 380:..\..\..\..\wpa_supplicant\src/utils/os.h **** char * os_strdup(const char *s);
 381:..\..\..\..\wpa_supplicant\src/utils/os.h **** 
 382:..\..\..\..\wpa_supplicant\src/utils/os.h **** /**
 383:..\..\..\..\wpa_supplicant\src/utils/os.h ****  * os_strlen - Calculate the length of a string
 384:..\..\..\..\wpa_supplicant\src/utils/os.h ****  * @s: '\0' terminated string
 385:..\..\..\..\wpa_supplicant\src/utils/os.h ****  * Returns: Number of characters in s (not counting the '\0' terminator)
 386:..\..\..\..\wpa_supplicant\src/utils/os.h ****  */
 387:..\..\..\..\wpa_supplicant\src/utils/os.h **** size_t os_strlen(const char *s);
 388:..\..\..\..\wpa_supplicant\src/utils/os.h **** 
 389:..\..\..\..\wpa_supplicant\src/utils/os.h **** /**
 390:..\..\..\..\wpa_supplicant\src/utils/os.h ****  * os_strcasecmp - Compare two strings ignoring case
 391:..\..\..\..\wpa_supplicant\src/utils/os.h ****  * @s1: First string
 392:..\..\..\..\wpa_supplicant\src/utils/os.h ****  * @s2: Second string
 393:..\..\..\..\wpa_supplicant\src/utils/os.h ****  * Returns: An integer less than, equal to, or greater than zero if s1 is
 394:..\..\..\..\wpa_supplicant\src/utils/os.h ****  * found to be less than, to match, or be greatred than s2
 395:..\..\..\..\wpa_supplicant\src/utils/os.h ****  */
 396:..\..\..\..\wpa_supplicant\src/utils/os.h **** int os_strcasecmp(const char *s1, const char *s2);
 397:..\..\..\..\wpa_supplicant\src/utils/os.h **** 
 398:..\..\..\..\wpa_supplicant\src/utils/os.h **** /**
 399:..\..\..\..\wpa_supplicant\src/utils/os.h ****  * os_strncasecmp - Compare two strings ignoring case
 400:..\..\..\..\wpa_supplicant\src/utils/os.h ****  * @s1: First string
 401:..\..\..\..\wpa_supplicant\src/utils/os.h ****  * @s2: Second string
 402:..\..\..\..\wpa_supplicant\src/utils/os.h ****  * @n: Maximum numbers of characters to compare
 403:..\..\..\..\wpa_supplicant\src/utils/os.h ****  * Returns: An integer less than, equal to, or greater than zero if s1 is
 404:..\..\..\..\wpa_supplicant\src/utils/os.h ****  * found to be less than, to match, or be greater than s2. Only first n
 405:..\..\..\..\wpa_supplicant\src/utils/os.h ****  * characters will be compared.
 406:..\..\..\..\wpa_supplicant\src/utils/os.h ****  */
 407:..\..\..\..\wpa_supplicant\src/utils/os.h **** int os_strncasecmp(const char *s1, const char *s2, size_t n);
 408:..\..\..\..\wpa_supplicant\src/utils/os.h **** 
 409:..\..\..\..\wpa_supplicant\src/utils/os.h **** /**
 410:..\..\..\..\wpa_supplicant\src/utils/os.h ****  * os_strchr - Locate the first occurrence of a character in string
 411:..\..\..\..\wpa_supplicant\src/utils/os.h ****  * @s: String
 412:..\..\..\..\wpa_supplicant\src/utils/os.h ****  * @c: Character to search for
 413:..\..\..\..\wpa_supplicant\src/utils/os.h ****  * Returns: Pointer to the matched character or %NULL if not found
 414:..\..\..\..\wpa_supplicant\src/utils/os.h ****  */
 415:..\..\..\..\wpa_supplicant\src/utils/os.h **** char * os_strchr(const char *s, int c);
 416:..\..\..\..\wpa_supplicant\src/utils/os.h **** 
 417:..\..\..\..\wpa_supplicant\src/utils/os.h **** /**
 418:..\..\..\..\wpa_supplicant\src/utils/os.h ****  * os_strrchr - Locate the last occurrence of a character in string
 419:..\..\..\..\wpa_supplicant\src/utils/os.h ****  * @s: String
 420:..\..\..\..\wpa_supplicant\src/utils/os.h ****  * @c: Character to search for
 421:..\..\..\..\wpa_supplicant\src/utils/os.h ****  * Returns: Pointer to the matched character or %NULL if not found
 422:..\..\..\..\wpa_supplicant\src/utils/os.h ****  */
 423:..\..\..\..\wpa_supplicant\src/utils/os.h **** char * os_strrchr(const char *s, int c);
 424:..\..\..\..\wpa_supplicant\src/utils/os.h **** 
 425:..\..\..\..\wpa_supplicant\src/utils/os.h **** /**
 426:..\..\..\..\wpa_supplicant\src/utils/os.h ****  * os_strcmp - Compare two strings
 427:..\..\..\..\wpa_supplicant\src/utils/os.h ****  * @s1: First string
 428:..\..\..\..\wpa_supplicant\src/utils/os.h ****  * @s2: Second string
 429:..\..\..\..\wpa_supplicant\src/utils/os.h ****  * Returns: An integer less than, equal to, or greater than zero if s1 is
 430:..\..\..\..\wpa_supplicant\src/utils/os.h ****  * found to be less than, to match, or be greatred than s2
 431:..\..\..\..\wpa_supplicant\src/utils/os.h ****  */
 432:..\..\..\..\wpa_supplicant\src/utils/os.h **** int os_strcmp(const char *s1, const char *s2);
 433:..\..\..\..\wpa_supplicant\src/utils/os.h **** 
 434:..\..\..\..\wpa_supplicant\src/utils/os.h **** /**
 435:..\..\..\..\wpa_supplicant\src/utils/os.h ****  * os_strncmp - Compare two strings
 436:..\..\..\..\wpa_supplicant\src/utils/os.h ****  * @s1: First string
 437:..\..\..\..\wpa_supplicant\src/utils/os.h ****  * @s2: Second string
 438:..\..\..\..\wpa_supplicant\src/utils/os.h ****  * @n: Maximum numbers of characters to compare
 439:..\..\..\..\wpa_supplicant\src/utils/os.h ****  * Returns: An integer less than, equal to, or greater than zero if s1 is
 440:..\..\..\..\wpa_supplicant\src/utils/os.h ****  * found to be less than, to match, or be greater than s2. Only first n
 441:..\..\..\..\wpa_supplicant\src/utils/os.h ****  * characters will be compared.
 442:..\..\..\..\wpa_supplicant\src/utils/os.h ****  */
 443:..\..\..\..\wpa_supplicant\src/utils/os.h **** int os_strncmp(const char *s1, const char *s2, size_t n);
 444:..\..\..\..\wpa_supplicant\src/utils/os.h **** 
 445:..\..\..\..\wpa_supplicant\src/utils/os.h **** /**
 446:..\..\..\..\wpa_supplicant\src/utils/os.h ****  * os_strstr - Locate a substring
 447:..\..\..\..\wpa_supplicant\src/utils/os.h ****  * @haystack: String (haystack) to search from
 448:..\..\..\..\wpa_supplicant\src/utils/os.h ****  * @needle: Needle to search from haystack
 449:..\..\..\..\wpa_supplicant\src/utils/os.h ****  * Returns: Pointer to the beginning of the substring or %NULL if not found
 450:..\..\..\..\wpa_supplicant\src/utils/os.h ****  */
 451:..\..\..\..\wpa_supplicant\src/utils/os.h **** char * os_strstr(const char *haystack, const char *needle);
 452:..\..\..\..\wpa_supplicant\src/utils/os.h **** 
 453:..\..\..\..\wpa_supplicant\src/utils/os.h **** /**
 454:..\..\..\..\wpa_supplicant\src/utils/os.h ****  * os_snprintf - Print to a memory buffer
 455:..\..\..\..\wpa_supplicant\src/utils/os.h ****  * @str: Memory buffer to print into
 456:..\..\..\..\wpa_supplicant\src/utils/os.h ****  * @size: Maximum length of the str buffer
 457:..\..\..\..\wpa_supplicant\src/utils/os.h ****  * @format: printf format
 458:..\..\..\..\wpa_supplicant\src/utils/os.h ****  * Returns: Number of characters printed (not including trailing '\0').
 459:..\..\..\..\wpa_supplicant\src/utils/os.h ****  *
 460:..\..\..\..\wpa_supplicant\src/utils/os.h ****  * If the output buffer is truncated, number of characters which would have
 461:..\..\..\..\wpa_supplicant\src/utils/os.h ****  * been written is returned. Since some C libraries return -1 in such a case,
 462:..\..\..\..\wpa_supplicant\src/utils/os.h ****  * the caller must be prepared on that value, too, to indicate truncation.
 463:..\..\..\..\wpa_supplicant\src/utils/os.h ****  *
 464:..\..\..\..\wpa_supplicant\src/utils/os.h ****  * Note: Some C library implementations of snprintf() may not guarantee null
 465:..\..\..\..\wpa_supplicant\src/utils/os.h ****  * termination in case the output is truncated. The OS wrapper function of
 466:..\..\..\..\wpa_supplicant\src/utils/os.h ****  * os_snprintf() should provide this guarantee, i.e., to null terminate the
 467:..\..\..\..\wpa_supplicant\src/utils/os.h ****  * output buffer if a C library version of the function is used and if that
 468:..\..\..\..\wpa_supplicant\src/utils/os.h ****  * function does not guarantee null termination.
 469:..\..\..\..\wpa_supplicant\src/utils/os.h ****  *
 470:..\..\..\..\wpa_supplicant\src/utils/os.h ****  * If the target system does not include snprintf(), see, e.g.,
 471:..\..\..\..\wpa_supplicant\src/utils/os.h ****  * http://www.ijs.si/software/snprintf/ for an example of a portable
 472:..\..\..\..\wpa_supplicant\src/utils/os.h ****  * implementation of snprintf.
 473:..\..\..\..\wpa_supplicant\src/utils/os.h ****  */
 474:..\..\..\..\wpa_supplicant\src/utils/os.h **** int os_snprintf(char *str, size_t size, const char *format, ...);
 475:..\..\..\..\wpa_supplicant\src/utils/os.h **** 
 476:..\..\..\..\wpa_supplicant\src/utils/os.h **** #else /* OS_NO_C_LIB_DEFINES */
 477:..\..\..\..\wpa_supplicant\src/utils/os.h **** 
 478:..\..\..\..\wpa_supplicant\src/utils/os.h **** #ifdef WPA_TRACE
 479:..\..\..\..\wpa_supplicant\src/utils/os.h **** void * os_malloc(size_t size);
 480:..\..\..\..\wpa_supplicant\src/utils/os.h **** void * os_realloc(void *ptr, size_t size);
 481:..\..\..\..\wpa_supplicant\src/utils/os.h **** void os_free(void *ptr);
 482:..\..\..\..\wpa_supplicant\src/utils/os.h **** char * os_strdup(const char *s);
 483:..\..\..\..\wpa_supplicant\src/utils/os.h **** #else /* WPA_TRACE */
 484:..\..\..\..\wpa_supplicant\src/utils/os.h **** #ifndef os_malloc
 485:..\..\..\..\wpa_supplicant\src/utils/os.h **** #define os_malloc(s) malloc((s))
 486:..\..\..\..\wpa_supplicant\src/utils/os.h **** #endif
 487:..\..\..\..\wpa_supplicant\src/utils/os.h **** #ifndef os_realloc
 488:..\..\..\..\wpa_supplicant\src/utils/os.h **** #define os_realloc(p, s) realloc((p), (s))
 489:..\..\..\..\wpa_supplicant\src/utils/os.h **** #endif
 490:..\..\..\..\wpa_supplicant\src/utils/os.h **** #ifndef os_free
 491:..\..\..\..\wpa_supplicant\src/utils/os.h **** #define os_free(p) free((p))
 492:..\..\..\..\wpa_supplicant\src/utils/os.h **** #endif
 493:..\..\..\..\wpa_supplicant\src/utils/os.h **** #ifndef os_strdup
 494:..\..\..\..\wpa_supplicant\src/utils/os.h **** #ifdef _MSC_VER
 495:..\..\..\..\wpa_supplicant\src/utils/os.h **** #define os_strdup(s) _strdup(s)
 496:..\..\..\..\wpa_supplicant\src/utils/os.h **** #else
 497:..\..\..\..\wpa_supplicant\src/utils/os.h **** #define os_strdup(s) strdup(s)
 498:..\..\..\..\wpa_supplicant\src/utils/os.h **** #endif
 499:..\..\..\..\wpa_supplicant\src/utils/os.h **** #endif
 500:..\..\..\..\wpa_supplicant\src/utils/os.h **** #endif /* WPA_TRACE */
 501:..\..\..\..\wpa_supplicant\src/utils/os.h **** 
 502:..\..\..\..\wpa_supplicant\src/utils/os.h **** #ifndef os_memcpy
 503:..\..\..\..\wpa_supplicant\src/utils/os.h **** #define os_memcpy(d, s, n) memcpy((d), (s), (n))
 504:..\..\..\..\wpa_supplicant\src/utils/os.h **** #endif
 505:..\..\..\..\wpa_supplicant\src/utils/os.h **** #ifndef os_memmove
 506:..\..\..\..\wpa_supplicant\src/utils/os.h **** #define os_memmove(d, s, n) memmove((d), (s), (n))
 507:..\..\..\..\wpa_supplicant\src/utils/os.h **** #endif
 508:..\..\..\..\wpa_supplicant\src/utils/os.h **** #ifndef os_memset
 509:..\..\..\..\wpa_supplicant\src/utils/os.h **** #define os_memset(s, c, n) memset(s, c, n)
 510:..\..\..\..\wpa_supplicant\src/utils/os.h **** #endif
 511:..\..\..\..\wpa_supplicant\src/utils/os.h **** #ifndef os_memcmp
 512:..\..\..\..\wpa_supplicant\src/utils/os.h **** #define os_memcmp(s1, s2, n) memcmp((s1), (s2), (n))
 513:..\..\..\..\wpa_supplicant\src/utils/os.h **** #endif
 514:..\..\..\..\wpa_supplicant\src/utils/os.h **** 
 515:..\..\..\..\wpa_supplicant\src/utils/os.h **** #ifndef os_strlen
 516:..\..\..\..\wpa_supplicant\src/utils/os.h **** #define os_strlen(s) strlen(s)
 517:..\..\..\..\wpa_supplicant\src/utils/os.h **** #endif
 518:..\..\..\..\wpa_supplicant\src/utils/os.h **** #ifndef os_strcasecmp
 519:..\..\..\..\wpa_supplicant\src/utils/os.h **** #ifdef _MSC_VER
 520:..\..\..\..\wpa_supplicant\src/utils/os.h **** #define os_strcasecmp(s1, s2) _stricmp((s1), (s2))
 521:..\..\..\..\wpa_supplicant\src/utils/os.h **** #else
 522:..\..\..\..\wpa_supplicant\src/utils/os.h **** #define os_strcasecmp(s1, s2) strcasecmp((s1), (s2))
 523:..\..\..\..\wpa_supplicant\src/utils/os.h **** #endif
 524:..\..\..\..\wpa_supplicant\src/utils/os.h **** #endif
 525:..\..\..\..\wpa_supplicant\src/utils/os.h **** #ifndef os_strncasecmp
 526:..\..\..\..\wpa_supplicant\src/utils/os.h **** #ifdef _MSC_VER
 527:..\..\..\..\wpa_supplicant\src/utils/os.h **** #define os_strncasecmp(s1, s2, n) _strnicmp((s1), (s2), (n))
 528:..\..\..\..\wpa_supplicant\src/utils/os.h **** #else
 529:..\..\..\..\wpa_supplicant\src/utils/os.h **** #define os_strncasecmp(s1, s2, n) strncasecmp((s1), (s2), (n))
 530:..\..\..\..\wpa_supplicant\src/utils/os.h **** #endif
 531:..\..\..\..\wpa_supplicant\src/utils/os.h **** #endif
 532:..\..\..\..\wpa_supplicant\src/utils/os.h **** #ifndef os_strchr
 533:..\..\..\..\wpa_supplicant\src/utils/os.h **** #define os_strchr(s, c) strchr((s), (c))
 534:..\..\..\..\wpa_supplicant\src/utils/os.h **** #endif
 535:..\..\..\..\wpa_supplicant\src/utils/os.h **** #ifndef os_strcmp
 536:..\..\..\..\wpa_supplicant\src/utils/os.h **** #define os_strcmp(s1, s2) strcmp((s1), (s2))
 537:..\..\..\..\wpa_supplicant\src/utils/os.h **** #endif
 538:..\..\..\..\wpa_supplicant\src/utils/os.h **** #ifndef os_strncmp
 539:..\..\..\..\wpa_supplicant\src/utils/os.h **** #define os_strncmp(s1, s2, n) strncmp((s1), (s2), (n))
 540:..\..\..\..\wpa_supplicant\src/utils/os.h **** #endif
 541:..\..\..\..\wpa_supplicant\src/utils/os.h **** #ifndef os_strrchr
 542:..\..\..\..\wpa_supplicant\src/utils/os.h **** #define os_strrchr(s, c) strrchr((s), (c))
 543:..\..\..\..\wpa_supplicant\src/utils/os.h **** #endif
 544:..\..\..\..\wpa_supplicant\src/utils/os.h **** #ifndef os_strstr
 545:..\..\..\..\wpa_supplicant\src/utils/os.h **** #define os_strstr(h, n) strstr((h), (n))
 546:..\..\..\..\wpa_supplicant\src/utils/os.h **** #endif
 547:..\..\..\..\wpa_supplicant\src/utils/os.h **** 
 548:..\..\..\..\wpa_supplicant\src/utils/os.h **** #ifndef os_snprintf
 549:..\..\..\..\wpa_supplicant\src/utils/os.h **** #ifdef _MSC_VER
 550:..\..\..\..\wpa_supplicant\src/utils/os.h **** #define os_snprintf _snprintf
 551:..\..\..\..\wpa_supplicant\src/utils/os.h **** #else
 552:..\..\..\..\wpa_supplicant\src/utils/os.h **** #define os_snprintf snprintf
 553:..\..\..\..\wpa_supplicant\src/utils/os.h **** #endif
 554:..\..\..\..\wpa_supplicant\src/utils/os.h **** #endif
 555:..\..\..\..\wpa_supplicant\src/utils/os.h **** 
 556:..\..\..\..\wpa_supplicant\src/utils/os.h **** #endif /* OS_NO_C_LIB_DEFINES */
 557:..\..\..\..\wpa_supplicant\src/utils/os.h **** 
 558:..\..\..\..\wpa_supplicant\src/utils/os.h **** 
 559:..\..\..\..\wpa_supplicant\src/utils/os.h **** static inline int os_snprintf_error(size_t size, int res)
 560:..\..\..\..\wpa_supplicant\src/utils/os.h **** {
 561:..\..\..\..\wpa_supplicant\src/utils/os.h **** 	return res < 0 || (unsigned int) res >= size;
 1942              		.loc 4 561 2
 1943              		.loc 4 561 17 is_stmt 0
 1944 002e 6345050A 		blt	a0,zero,.L249
 1945 0032 2A84     		mv	s0,a0
 1946              	.LBE63:
 1947              	.LBE62:
 648:C:/Users/stapi/OneDrive/Desktop/GD32VW553/V1_MQTT_OK/GD32VW55X_Wifi_BLE_SDK/GD32VW55x_RELEASE_V1.0.2/MSDK/wpa_supplicant/src/ap\pmksa_cache_auth.c **** 		return pos - buf;
 1948              		.loc 1 648 14
 1949 0034 0145     		li	a0,0
 1950              	.LVL196:
 1951              	.LBB65:
 1952              	.LBB64:
 1953              		.loc 4 561 17
 1954 0036 63772409 		bleu	s2,s0,.L242
 1955              	.LBE64:
 1956              	.LBE65:
 649:C:/Users/stapi/OneDrive/Desktop/GD32VW553/V1_MQTT_OK/GD32VW55X_Wifi_BLE_SDK/GD32VW55x_RELEASE_V1.0.2/MSDK/wpa_supplicant/src/ap\pmksa_cache_auth.c **** 	pos += ret;
 650:C:/Users/stapi/OneDrive/Desktop/GD32VW553/V1_MQTT_OK/GD32VW55X_Wifi_BLE_SDK/GD32VW55x_RELEASE_V1.0.2/MSDK/wpa_supplicant/src/ap\pmksa_cache_auth.c **** 	i = 0;
 651:C:/Users/stapi/OneDrive/Desktop/GD32VW553/V1_MQTT_OK/GD32VW55X_Wifi_BLE_SDK/GD32VW55x_RELEASE_V1.0.2/MSDK/wpa_supplicant/src/ap\pmksa_cache_auth.c **** 	entry = pmksa->pmksa;
 1957              		.loc 1 651 8
 1958 003a 83A40420 		lw	s1,512(s1)
 1959              	.LVL197:
 645:C:/Users/stapi/OneDrive/Desktop/GD32VW553/V1_MQTT_OK/GD32VW55X_Wifi_BLE_SDK/GD32VW55x_RELEASE_V1.0.2/MSDK/wpa_supplicant/src/ap\pmksa_cache_auth.c **** 			  "Index / SPA / PMKID / expiration (in seconds) / opportunistic\n");
 1960              		.loc 1 645 29
 1961 003e 4E99     		add	s2,s3,s2
 1962              	.LVL198:
 649:C:/Users/stapi/OneDrive/Desktop/GD32VW553/V1_MQTT_OK/GD32VW55X_Wifi_BLE_SDK/GD32VW55x_RELEASE_V1.0.2/MSDK/wpa_supplicant/src/ap\pmksa_cache_auth.c **** 	pos += ret;
 1963              		.loc 1 649 2 is_stmt 1
 649:C:/Users/stapi/OneDrive/Desktop/GD32VW553/V1_MQTT_OK/GD32VW55X_Wifi_BLE_SDK/GD32VW55x_RELEASE_V1.0.2/MSDK/wpa_supplicant/src/ap\pmksa_cache_auth.c **** 	pos += ret;
 1964              		.loc 1 649 6 is_stmt 0
 1965 0040 4E94     		add	s0,s3,s0
 1966              	.LVL199:
 650:C:/Users/stapi/OneDrive/Desktop/GD32VW553/V1_MQTT_OK/GD32VW55X_Wifi_BLE_SDK/GD32VW55x_RELEASE_V1.0.2/MSDK/wpa_supplicant/src/ap\pmksa_cache_auth.c **** 	entry = pmksa->pmksa;
 1967              		.loc 1 650 2 is_stmt 1
 1968              		.loc 1 651 2
 652:C:/Users/stapi/OneDrive/Desktop/GD32VW553/V1_MQTT_OK/GD32VW55X_Wifi_BLE_SDK/GD32VW55x_RELEASE_V1.0.2/MSDK/wpa_supplicant/src/ap\pmksa_cache_auth.c **** 	while (entry) {
 1969              		.loc 1 652 2
 653:C:/Users/stapi/OneDrive/Desktop/GD32VW553/V1_MQTT_OK/GD32VW55X_Wifi_BLE_SDK/GD32VW55x_RELEASE_V1.0.2/MSDK/wpa_supplicant/src/ap\pmksa_cache_auth.c **** 		ret = os_snprintf(pos, buf + len - pos, "%d " MACSTR " ",
 1970              		.loc 1 653 9 is_stmt 0
 1971 0042 370A0000 		lui	s4,%hi(.LC9)
 654:C:/Users/stapi/OneDrive/Desktop/GD32VW553/V1_MQTT_OK/GD32VW55X_Wifi_BLE_SDK/GD32VW55x_RELEASE_V1.0.2/MSDK/wpa_supplicant/src/ap\pmksa_cache_auth.c **** 				  i, MAC2STR(entry->spa));
 655:C:/Users/stapi/OneDrive/Desktop/GD32VW553/V1_MQTT_OK/GD32VW55X_Wifi_BLE_SDK/GD32VW55x_RELEASE_V1.0.2/MSDK/wpa_supplicant/src/ap\pmksa_cache_auth.c **** 		if (os_snprintf_error(buf + len - pos, ret))
 656:C:/Users/stapi/OneDrive/Desktop/GD32VW553/V1_MQTT_OK/GD32VW55X_Wifi_BLE_SDK/GD32VW55x_RELEASE_V1.0.2/MSDK/wpa_supplicant/src/ap\pmksa_cache_auth.c **** 			return pos - buf;
 657:C:/Users/stapi/OneDrive/Desktop/GD32VW553/V1_MQTT_OK/GD32VW55X_Wifi_BLE_SDK/GD32VW55x_RELEASE_V1.0.2/MSDK/wpa_supplicant/src/ap\pmksa_cache_auth.c **** 		pos += ret;
 658:C:/Users/stapi/OneDrive/Desktop/GD32VW553/V1_MQTT_OK/GD32VW55X_Wifi_BLE_SDK/GD32VW55x_RELEASE_V1.0.2/MSDK/wpa_supplicant/src/ap\pmksa_cache_auth.c **** 		pos += wpa_snprintf_hex(pos, buf + len - pos, entry->pmkid,
 659:C:/Users/stapi/OneDrive/Desktop/GD32VW553/V1_MQTT_OK/GD32VW55X_Wifi_BLE_SDK/GD32VW55x_RELEASE_V1.0.2/MSDK/wpa_supplicant/src/ap\pmksa_cache_auth.c **** 					PMKID_LEN);
 660:C:/Users/stapi/OneDrive/Desktop/GD32VW553/V1_MQTT_OK/GD32VW55X_Wifi_BLE_SDK/GD32VW55x_RELEASE_V1.0.2/MSDK/wpa_supplicant/src/ap\pmksa_cache_auth.c **** 		ret = os_snprintf(pos, buf + len - pos, " %d %d\n",
 1972              		.loc 1 660 9
 1973 0046 B70A0000 		lui	s5,%hi(.LC10)
 1974              	.L244:
 652:C:/Users/stapi/OneDrive/Desktop/GD32VW553/V1_MQTT_OK/GD32VW55X_Wifi_BLE_SDK/GD32VW55x_RELEASE_V1.0.2/MSDK/wpa_supplicant/src/ap\pmksa_cache_auth.c **** 		ret = os_snprintf(pos, buf + len - pos, "%d " MACSTR " ",
 1975              		.loc 1 652 8 is_stmt 1
 1976 004a BDC8     		beq	s1,zero,.L253
 653:C:/Users/stapi/OneDrive/Desktop/GD32VW553/V1_MQTT_OK/GD32VW55X_Wifi_BLE_SDK/GD32VW55x_RELEASE_V1.0.2/MSDK/wpa_supplicant/src/ap\pmksa_cache_auth.c **** 		ret = os_snprintf(pos, buf + len - pos, "%d " MACSTR " ",
 1977              		.loc 1 653 3
 653:C:/Users/stapi/OneDrive/Desktop/GD32VW553/V1_MQTT_OK/GD32VW55X_Wifi_BLE_SDK/GD32VW55x_RELEASE_V1.0.2/MSDK/wpa_supplicant/src/ap\pmksa_cache_auth.c **** 		ret = os_snprintf(pos, buf + len - pos, "%d " MACSTR " ",
 1978              		.loc 1 653 9 is_stmt 0
 1979 004c 83C69406 		lbu	a3,105(s1)
 1980 0050 83C87406 		lbu	a7,103(s1)
 1981 0054 03C86406 		lbu	a6,102(s1)
 1982 0058 83C75406 		lbu	a5,101(s1)
 1983 005c 03C74406 		lbu	a4,100(s1)
 1984 0060 36C2     		sw	a3,4(sp)
 1985 0062 83C68406 		lbu	a3,104(s1)
 653:C:/Users/stapi/OneDrive/Desktop/GD32VW553/V1_MQTT_OK/GD32VW55X_Wifi_BLE_SDK/GD32VW55x_RELEASE_V1.0.2/MSDK/wpa_supplicant/src/ap\pmksa_cache_auth.c **** 		ret = os_snprintf(pos, buf + len - pos, "%d " MACSTR " ",
 1986              		.loc 1 653 36
 1987 0066 330B8940 		sub	s6,s2,s0
 653:C:/Users/stapi/OneDrive/Desktop/GD32VW553/V1_MQTT_OK/GD32VW55X_Wifi_BLE_SDK/GD32VW55x_RELEASE_V1.0.2/MSDK/wpa_supplicant/src/ap\pmksa_cache_auth.c **** 		ret = os_snprintf(pos, buf + len - pos, "%d " MACSTR " ",
 1988              		.loc 1 653 9
 1989 006a 13060A00 		addi	a2,s4,%lo(.LC9)
 1990 006e 36C0     		sw	a3,0(sp)
 1991 0070 DA85     		mv	a1,s6
 1992 0072 8146     		li	a3,0
 1993 0074 2285     		mv	a0,s0
 1994 0076 97000000 		call	os_snprintf
 1994      E7800000 
 1995              	.LVL200:
 655:C:/Users/stapi/OneDrive/Desktop/GD32VW553/V1_MQTT_OK/GD32VW55X_Wifi_BLE_SDK/GD32VW55x_RELEASE_V1.0.2/MSDK/wpa_supplicant/src/ap\pmksa_cache_auth.c **** 			return pos - buf;
 1996              		.loc 1 655 3 is_stmt 1
 1997              	.LBB66:
 1998              	.LBB67:
 1999              		.loc 4 561 2
 2000              		.loc 4 561 17 is_stmt 0
 2001 007e 63410504 		blt	a0,zero,.L253
 2002 0082 637F6503 		bleu	s6,a0,.L253
 2003              	.LVL201:
 2004              	.LBE67:
 2005              	.LBE66:
 657:C:/Users/stapi/OneDrive/Desktop/GD32VW553/V1_MQTT_OK/GD32VW55X_Wifi_BLE_SDK/GD32VW55x_RELEASE_V1.0.2/MSDK/wpa_supplicant/src/ap\pmksa_cache_auth.c **** 		pos += wpa_snprintf_hex(pos, buf + len - pos, entry->pmkid,
 2006              		.loc 1 657 3 is_stmt 1
 657:C:/Users/stapi/OneDrive/Desktop/GD32VW553/V1_MQTT_OK/GD32VW55X_Wifi_BLE_SDK/GD32VW55x_RELEASE_V1.0.2/MSDK/wpa_supplicant/src/ap\pmksa_cache_auth.c **** 		pos += wpa_snprintf_hex(pos, buf + len - pos, entry->pmkid,
 2007              		.loc 1 657 7 is_stmt 0
 2008 0086 2A94     		add	s0,s0,a0
 2009              	.LVL202:
 658:C:/Users/stapi/OneDrive/Desktop/GD32VW553/V1_MQTT_OK/GD32VW55X_Wifi_BLE_SDK/GD32VW55x_RELEASE_V1.0.2/MSDK/wpa_supplicant/src/ap\pmksa_cache_auth.c **** 					PMKID_LEN);
 2010              		.loc 1 658 3 is_stmt 1
 658:C:/Users/stapi/OneDrive/Desktop/GD32VW553/V1_MQTT_OK/GD32VW55X_Wifi_BLE_SDK/GD32VW55x_RELEASE_V1.0.2/MSDK/wpa_supplicant/src/ap\pmksa_cache_auth.c **** 					PMKID_LEN);
 2011              		.loc 1 658 10 is_stmt 0
 2012 0088 B3058940 		sub	a1,s2,s0
 2013 008c C146     		li	a3,16
 2014 008e 13868400 		addi	a2,s1,8
 2015 0092 2285     		mv	a0,s0
 2016              	.LVL203:
 2017 0094 97000000 		call	wpa_snprintf_hex
 2017      E7800000 
 2018              	.LVL204:
 661:C:/Users/stapi/OneDrive/Desktop/GD32VW553/V1_MQTT_OK/GD32VW55X_Wifi_BLE_SDK/GD32VW55x_RELEASE_V1.0.2/MSDK/wpa_supplicant/src/ap\pmksa_cache_auth.c **** 				  (int) (entry->expiration - now.sec),
 2019              		.loc 1 661 32
 2020 009c F44C     		lw	a3,92(s1)
 660:C:/Users/stapi/OneDrive/Desktop/GD32VW553/V1_MQTT_OK/GD32VW55X_Wifi_BLE_SDK/GD32VW55x_RELEASE_V1.0.2/MSDK/wpa_supplicant/src/ap\pmksa_cache_auth.c **** 				  (int) (entry->expiration - now.sec),
 2021              		.loc 1 660 9
 2022 009e E247     		lw	a5,24(sp)
 658:C:/Users/stapi/OneDrive/Desktop/GD32VW553/V1_MQTT_OK/GD32VW55X_Wifi_BLE_SDK/GD32VW55x_RELEASE_V1.0.2/MSDK/wpa_supplicant/src/ap\pmksa_cache_auth.c **** 					PMKID_LEN);
 2023              		.loc 1 658 7
 2024 00a0 2A94     		add	s0,s0,a0
 2025              	.LVL205:
 660:C:/Users/stapi/OneDrive/Desktop/GD32VW553/V1_MQTT_OK/GD32VW55X_Wifi_BLE_SDK/GD32VW55x_RELEASE_V1.0.2/MSDK/wpa_supplicant/src/ap\pmksa_cache_auth.c **** 				  (int) (entry->expiration - now.sec),
 2026              		.loc 1 660 3 is_stmt 1
 660:C:/Users/stapi/OneDrive/Desktop/GD32VW553/V1_MQTT_OK/GD32VW55X_Wifi_BLE_SDK/GD32VW55x_RELEASE_V1.0.2/MSDK/wpa_supplicant/src/ap\pmksa_cache_auth.c **** 				  (int) (entry->expiration - now.sec),
 2027              		.loc 1 660 9 is_stmt 0
 2028 00a2 03A78408 		lw	a4,136(s1)
 660:C:/Users/stapi/OneDrive/Desktop/GD32VW553/V1_MQTT_OK/GD32VW55X_Wifi_BLE_SDK/GD32VW55x_RELEASE_V1.0.2/MSDK/wpa_supplicant/src/ap\pmksa_cache_auth.c **** 				  (int) (entry->expiration - now.sec),
 2029              		.loc 1 660 36
 2030 00a6 330B8940 		sub	s6,s2,s0
 660:C:/Users/stapi/OneDrive/Desktop/GD32VW553/V1_MQTT_OK/GD32VW55X_Wifi_BLE_SDK/GD32VW55x_RELEASE_V1.0.2/MSDK/wpa_supplicant/src/ap\pmksa_cache_auth.c **** 				  (int) (entry->expiration - now.sec),
 2031              		.loc 1 660 9
 2032 00aa 9D8E     		sub	a3,a3,a5
 2033 00ac 13860A00 		addi	a2,s5,%lo(.LC10)
 2034 00b0 DA85     		mv	a1,s6
 2035 00b2 2285     		mv	a0,s0
 2036 00b4 97000000 		call	os_snprintf
 2036      E7800000 
 2037              	.LVL206:
 662:C:/Users/stapi/OneDrive/Desktop/GD32VW553/V1_MQTT_OK/GD32VW55X_Wifi_BLE_SDK/GD32VW55x_RELEASE_V1.0.2/MSDK/wpa_supplicant/src/ap\pmksa_cache_auth.c **** 				  entry->opportunistic);
 663:C:/Users/stapi/OneDrive/Desktop/GD32VW553/V1_MQTT_OK/GD32VW55X_Wifi_BLE_SDK/GD32VW55x_RELEASE_V1.0.2/MSDK/wpa_supplicant/src/ap\pmksa_cache_auth.c **** 		if (os_snprintf_error(buf + len - pos, ret))
 2038              		.loc 1 663 3 is_stmt 1
 2039              	.LBB68:
 2040              	.LBB69:
 2041              		.loc 4 561 2
 2042              		.loc 4 561 17 is_stmt 0
 2043 00bc 63590500 		bge	a0,zero,.L251
 2044              	.LVL207:
 2045              	.L253:
 2046              	.LBE69:
 2047              	.LBE68:
 664:C:/Users/stapi/OneDrive/Desktop/GD32VW553/V1_MQTT_OK/GD32VW55X_Wifi_BLE_SDK/GD32VW55x_RELEASE_V1.0.2/MSDK/wpa_supplicant/src/ap\pmksa_cache_auth.c **** 			return pos - buf;
 665:C:/Users/stapi/OneDrive/Desktop/GD32VW553/V1_MQTT_OK/GD32VW55X_Wifi_BLE_SDK/GD32VW55x_RELEASE_V1.0.2/MSDK/wpa_supplicant/src/ap\pmksa_cache_auth.c **** 		pos += ret;
 666:C:/Users/stapi/OneDrive/Desktop/GD32VW553/V1_MQTT_OK/GD32VW55X_Wifi_BLE_SDK/GD32VW55x_RELEASE_V1.0.2/MSDK/wpa_supplicant/src/ap\pmksa_cache_auth.c **** 		entry = entry->next;
 667:C:/Users/stapi/OneDrive/Desktop/GD32VW553/V1_MQTT_OK/GD32VW55X_Wifi_BLE_SDK/GD32VW55x_RELEASE_V1.0.2/MSDK/wpa_supplicant/src/ap\pmksa_cache_auth.c **** 	}
 668:C:/Users/stapi/OneDrive/Desktop/GD32VW553/V1_MQTT_OK/GD32VW55X_Wifi_BLE_SDK/GD32VW55x_RELEASE_V1.0.2/MSDK/wpa_supplicant/src/ap\pmksa_cache_auth.c **** 	return pos - buf;
 2048              		.loc 1 668 2 is_stmt 1
 2049              		.loc 1 668 13 is_stmt 0
 2050 00c0 33053441 		sub	a0,s0,s3
 2051              	.LVL208:
 2052              	.L242:
 669:C:/Users/stapi/OneDrive/Desktop/GD32VW553/V1_MQTT_OK/GD32VW55X_Wifi_BLE_SDK/GD32VW55x_RELEASE_V1.0.2/MSDK/wpa_supplicant/src/ap\pmksa_cache_auth.c **** }
 2053              		.loc 1 669 1
 2054 00c4 0561     		addi	sp,sp,32
 2055              		.cfi_remember_state
 2056              		.cfi_def_cfa_offset 0
 2057 00c6 17030000 		tail	__riscv_restore_7
 2057      67000300 
 2058              		.cfi_restore 22
 2059              		.cfi_restore 21
 2060              		.cfi_restore 20
 2061              		.cfi_restore 19
 2062              		.cfi_restore 18
 2063              		.cfi_restore 9
 2064              		.cfi_restore 8
 2065              		.cfi_restore 1
 2066              		.cfi_def_cfa_offset -32
 2067              	.LVL209:
 2068              	.L251:
 2069              		.cfi_restore_state
 2070              	.LBB71:
 2071              	.LBB70:
 2072              		.loc 4 561 17
 2073 00ce E37965FF 		bleu	s6,a0,.L253
 2074              	.LVL210:
 2075              	.LBE70:
 2076              	.LBE71:
 665:C:/Users/stapi/OneDrive/Desktop/GD32VW553/V1_MQTT_OK/GD32VW55X_Wifi_BLE_SDK/GD32VW55x_RELEASE_V1.0.2/MSDK/wpa_supplicant/src/ap\pmksa_cache_auth.c **** 		entry = entry->next;
 2077              		.loc 1 665 3 is_stmt 1
 666:C:/Users/stapi/OneDrive/Desktop/GD32VW553/V1_MQTT_OK/GD32VW55X_Wifi_BLE_SDK/GD32VW55x_RELEASE_V1.0.2/MSDK/wpa_supplicant/src/ap\pmksa_cache_auth.c **** 	}
 2078              		.loc 1 666 9 is_stmt 0
 2079 00d2 8440     		lw	s1,0(s1)
 2080              	.LVL211:
 665:C:/Users/stapi/OneDrive/Desktop/GD32VW553/V1_MQTT_OK/GD32VW55X_Wifi_BLE_SDK/GD32VW55x_RELEASE_V1.0.2/MSDK/wpa_supplicant/src/ap\pmksa_cache_auth.c **** 		entry = entry->next;
 2081              		.loc 1 665 7
 2082 00d4 2A94     		add	s0,s0,a0
 2083              	.LVL212:
 666:C:/Users/stapi/OneDrive/Desktop/GD32VW553/V1_MQTT_OK/GD32VW55X_Wifi_BLE_SDK/GD32VW55x_RELEASE_V1.0.2/MSDK/wpa_supplicant/src/ap\pmksa_cache_auth.c **** 	}
 2084              		.loc 1 666 3 is_stmt 1
 2085 00d6 95BF     		j	.L244
 2086              	.LVL213:
 2087              	.L249:
 648:C:/Users/stapi/OneDrive/Desktop/GD32VW553/V1_MQTT_OK/GD32VW55X_Wifi_BLE_SDK/GD32VW55x_RELEASE_V1.0.2/MSDK/wpa_supplicant/src/ap\pmksa_cache_auth.c **** 	pos += ret;
 2088              		.loc 1 648 14 is_stmt 0
 2089 00d8 0145     		li	a0,0
 2090              	.LVL214:
 2091 00da EDB7     		j	.L242
 2092              		.cfi_endproc
 2093              	.LFE154:
 2095              		.text
 2096              	.Letext0:
 2097              		.file 5 "c:\\users\\stapi\\onedrive\\desktop\\gd32vw553\\embeddedbuilder_v1.4.7.26843\\tools\\nucl
 2098              		.file 6 "c:\\users\\stapi\\onedrive\\desktop\\gd32vw553\\embeddedbuilder_v1.4.7.26843\\tools\\nucl
 2099              		.file 7 "c:\\users\\stapi\\onedrive\\desktop\\gd32vw553\\embeddedbuilder_v1.4.7.26843\\tools\\nucl
 2100              		.file 8 "..\\..\\..\\..\\wpa_supplicant\\src/utils/common.h"
 2101              		.file 9 "..\\..\\..\\..\\wpa_supplicant\\src/eapol_auth/eapol_auth_sm.h"
 2102              		.file 10 "..\\..\\..\\..\\wpa_supplicant\\src/utils/wpa_debug.h"
 2103              		.file 11 "..\\..\\..\\..\\wpa_supplicant\\src/radius/radius.h"
 2104              		.file 12 "..\\..\\..\\..\\wpa_supplicant\\src/eapol_auth/eapol_auth_sm_i.h"
 2105              		.file 13 "..\\..\\..\\..\\wpa_supplicant\\src/radius/radius_das.h"
 2106              		.file 14 "..\\..\\..\\..\\wpa_supplicant\\src/utils/list.h"
 2107              		.file 15 "C:/Users/stapi/OneDrive/Desktop/GD32VW553/V1_MQTT_OK/GD32VW55X_Wifi_BLE_SDK/GD32VW55x_RE
 2108              		.file 16 "..\\..\\..\\..\\wpa_supplicant\\src/common/ieee802_11_defs.h"
 2109              		.file 17 "..\\..\\..\\..\\wpa_supplicant\\src/common/sae.h"
 2110              		.file 18 "C:/Users/stapi/OneDrive/Desktop/GD32VW553/V1_MQTT_OK/GD32VW55X_Wifi_BLE_SDK/GD32VW55x_RE
 2111              		.file 19 "C:/Users/stapi/OneDrive/Desktop/GD32VW553/V1_MQTT_OK/GD32VW55X_Wifi_BLE_SDK/GD32VW55x_RE
 2112              		.file 20 "C:/Users/stapi/OneDrive/Desktop/GD32VW553/V1_MQTT_OK/GD32VW55X_Wifi_BLE_SDK/GD32VW55x_RE
 2113              		.file 21 "..\\..\\..\\..\\wpa_supplicant\\src/common/wpa_common.h"
 2114              		.file 22 "..\\..\\..\\..\\wpa_supplicant\\src/utils/eloop.h"
 2115              		.file 23 "<built-in>"
DEFINED SYMBOLS
                            *ABS*:0000000000000000 pmksa_cache_auth.c
C:\Users\stapi\AppData\Local\Temp\cciwadCd.s:12     .text._pmksa_cache_free_entry:0000000000000000 _pmksa_cache_free_entry
C:\Users\stapi\AppData\Local\Temp\cciwadCd.s:16     .text._pmksa_cache_free_entry:0000000000000000 .L0 
C:\Users\stapi\AppData\Local\Temp\cciwadCd.s:18     .text._pmksa_cache_free_entry:0000000000000000 .L0 
C:\Users\stapi\AppData\Local\Temp\cciwadCd.s:19     .text._pmksa_cache_free_entry:0000000000000008 .L0 
C:\Users\stapi\AppData\Local\Temp\cciwadCd.s:20     .text._pmksa_cache_free_entry:0000000000000008 .L0 
C:\Users\stapi\AppData\Local\Temp\cciwadCd.s:21     .text._pmksa_cache_free_entry:0000000000000008 .L0 
C:\Users\stapi\AppData\Local\Temp\cciwadCd.s:23     .text._pmksa_cache_free_entry:0000000000000008 .L0 
C:\Users\stapi\AppData\Local\Temp\cciwadCd.s:24     .text._pmksa_cache_free_entry:0000000000000008 .L0 
C:\Users\stapi\AppData\Local\Temp\cciwadCd.s:26     .text._pmksa_cache_free_entry:000000000000000a .L0 
C:\Users\stapi\AppData\Local\Temp\cciwadCd.s:31     .text._pmksa_cache_free_entry:0000000000000016 .L0 
C:\Users\stapi\AppData\Local\Temp\cciwadCd.s:35     .text._pmksa_cache_free_entry:0000000000000020 .L0 
C:\Users\stapi\AppData\Local\Temp\cciwadCd.s:39     .text._pmksa_cache_free_entry:000000000000002a .L0 
C:\Users\stapi\AppData\Local\Temp\cciwadCd.s:44     .text._pmksa_cache_free_entry:0000000000000038 .L0 
C:\Users\stapi\AppData\Local\Temp\cciwadCd.s:45     .text._pmksa_cache_free_entry:0000000000000040 .L0 
C:\Users\stapi\AppData\Local\Temp\cciwadCd.s:46     .text._pmksa_cache_free_entry:0000000000000040 .L0 
C:\Users\stapi\AppData\Local\Temp\cciwadCd.s:47     .text._pmksa_cache_free_entry:0000000000000040 .L0 
C:\Users\stapi\AppData\Local\Temp\cciwadCd.s:48     .text._pmksa_cache_free_entry:0000000000000040 .L0 
C:\Users\stapi\AppData\Local\Temp\cciwadCd.s:54     .text.pmksa_cache_set_expiration:0000000000000000 pmksa_cache_set_expiration
C:\Users\stapi\AppData\Local\Temp\cciwadCd.s:57     .text.pmksa_cache_set_expiration:0000000000000000 .L0 
C:\Users\stapi\AppData\Local\Temp\cciwadCd.s:59     .text.pmksa_cache_set_expiration:0000000000000000 .L0 
C:\Users\stapi\AppData\Local\Temp\cciwadCd.s:60     .text.pmksa_cache_set_expiration:0000000000000008 .L0 
C:\Users\stapi\AppData\Local\Temp\cciwadCd.s:61     .text.pmksa_cache_set_expiration:0000000000000008 .L0 
C:\Users\stapi\AppData\Local\Temp\cciwadCd.s:62     .text.pmksa_cache_set_expiration:0000000000000008 .L0 
C:\Users\stapi\AppData\Local\Temp\cciwadCd.s:63     .text.pmksa_cache_set_expiration:0000000000000008 .L0 
C:\Users\stapi\AppData\Local\Temp\cciwadCd.s:65     .text.pmksa_cache_set_expiration:0000000000000008 .L0 
C:\Users\stapi\AppData\Local\Temp\cciwadCd.s:66     .text.pmksa_cache_set_expiration:0000000000000008 .L0 
C:\Users\stapi\AppData\Local\Temp\cciwadCd.s:410    .text.pmksa_cache_expire:0000000000000000 pmksa_cache_expire
C:\Users\stapi\AppData\Local\Temp\cciwadCd.s:67     .text.pmksa_cache_set_expiration:0000000000000008 .L0 
C:\Users\stapi\AppData\Local\Temp\cciwadCd.s:69     .text.pmksa_cache_set_expiration:000000000000000c .L0 
C:\Users\stapi\AppData\Local\Temp\cciwadCd.s:71     .text.pmksa_cache_set_expiration:000000000000000e .L0 
C:\Users\stapi\AppData\Local\Temp\cciwadCd.s:73     .text.pmksa_cache_set_expiration:0000000000000010 .L0 
C:\Users\stapi\AppData\Local\Temp\cciwadCd.s:74     .text.pmksa_cache_set_expiration:0000000000000012 .L0 
C:\Users\stapi\AppData\Local\Temp\cciwadCd.s:76     .text.pmksa_cache_set_expiration:0000000000000012 .L0 
C:\Users\stapi\AppData\Local\Temp\cciwadCd.s:82     .text.pmksa_cache_set_expiration:0000000000000020 .L0 
C:\Users\stapi\AppData\Local\Temp\cciwadCd.s:83     .text.pmksa_cache_set_expiration:0000000000000020 .L0 
C:\Users\stapi\AppData\Local\Temp\cciwadCd.s:89     .text.pmksa_cache_set_expiration:0000000000000026 .L0 
C:\Users\stapi\AppData\Local\Temp\cciwadCd.s:93     .text.pmksa_cache_set_expiration:0000000000000030 .L0 
C:\Users\stapi\AppData\Local\Temp\cciwadCd.s:94     .text.pmksa_cache_set_expiration:0000000000000030 .L0 
C:\Users\stapi\AppData\Local\Temp\cciwadCd.s:96     .text.pmksa_cache_set_expiration:0000000000000034 .L0 
C:\Users\stapi\AppData\Local\Temp\cciwadCd.s:99     .text.pmksa_cache_set_expiration:0000000000000038 .L0 
C:\Users\stapi\AppData\Local\Temp\cciwadCd.s:102    .text.pmksa_cache_set_expiration:000000000000003c .L0 
C:\Users\stapi\AppData\Local\Temp\cciwadCd.s:105    .text.pmksa_cache_set_expiration:0000000000000042 .L0 
C:\Users\stapi\AppData\Local\Temp\cciwadCd.s:108    .text.pmksa_cache_set_expiration:0000000000000044 .L0 
C:\Users\stapi\AppData\Local\Temp\cciwadCd.s:109    .text.pmksa_cache_set_expiration:0000000000000044 .L0 
C:\Users\stapi\AppData\Local\Temp\cciwadCd.s:110    .text.pmksa_cache_set_expiration:0000000000000044 .L0 
C:\Users\stapi\AppData\Local\Temp\cciwadCd.s:114    .text.pmksa_cache_set_expiration:000000000000004a .L0 
C:\Users\stapi\AppData\Local\Temp\cciwadCd.s:122    .text.pmksa_cache_set_expiration:0000000000000054 .L0 
C:\Users\stapi\AppData\Local\Temp\cciwadCd.s:123    .text.pmksa_cache_set_expiration:0000000000000056 .L0 
C:\Users\stapi\AppData\Local\Temp\cciwadCd.s:125    .text.pmksa_cache_set_expiration:000000000000005e .L0 
C:\Users\stapi\AppData\Local\Temp\cciwadCd.s:126    .text.pmksa_cache_set_expiration:000000000000005e .L0 
C:\Users\stapi\AppData\Local\Temp\cciwadCd.s:127    .text.pmksa_cache_set_expiration:000000000000005e .L0 
C:\Users\stapi\AppData\Local\Temp\cciwadCd.s:128    .text.pmksa_cache_set_expiration:000000000000005e .L0 
C:\Users\stapi\AppData\Local\Temp\cciwadCd.s:129    .text.pmksa_cache_set_expiration:000000000000005e .L0 
C:\Users\stapi\AppData\Local\Temp\cciwadCd.s:142    .text.pmksa_cache_link_entry:0000000000000000 pmksa_cache_link_entry
C:\Users\stapi\AppData\Local\Temp\cciwadCd.s:145    .text.pmksa_cache_link_entry:0000000000000000 .L0 
C:\Users\stapi\AppData\Local\Temp\cciwadCd.s:147    .text.pmksa_cache_link_entry:0000000000000000 .L0 
C:\Users\stapi\AppData\Local\Temp\cciwadCd.s:148    .text.pmksa_cache_link_entry:0000000000000008 .L0 
C:\Users\stapi\AppData\Local\Temp\cciwadCd.s:149    .text.pmksa_cache_link_entry:0000000000000008 .L0 
C:\Users\stapi\AppData\Local\Temp\cciwadCd.s:150    .text.pmksa_cache_link_entry:0000000000000008 .L0 
C:\Users\stapi\AppData\Local\Temp\cciwadCd.s:152    .text.pmksa_cache_link_entry:0000000000000008 .L0 
C:\Users\stapi\AppData\Local\Temp\cciwadCd.s:153    .text.pmksa_cache_link_entry:0000000000000008 .L0 
C:\Users\stapi\AppData\Local\Temp\cciwadCd.s:154    .text.pmksa_cache_link_entry:0000000000000008 .L0 
C:\Users\stapi\AppData\Local\Temp\cciwadCd.s:155    .text.pmksa_cache_link_entry:0000000000000008 .L0 
C:\Users\stapi\AppData\Local\Temp\cciwadCd.s:158    .text.pmksa_cache_link_entry:000000000000000c .L0 
C:\Users\stapi\AppData\Local\Temp\cciwadCd.s:159    .text.pmksa_cache_link_entry:000000000000000c .L0 
C:\Users\stapi\AppData\Local\Temp\cciwadCd.s:160    .text.pmksa_cache_link_entry:000000000000000c .L0 
C:\Users\stapi\AppData\Local\Temp\cciwadCd.s:162    .text.pmksa_cache_link_entry:000000000000000e .L0 
C:\Users\stapi\AppData\Local\Temp\cciwadCd.s:164    .text.pmksa_cache_link_entry:0000000000000010 .L0 
C:\Users\stapi\AppData\Local\Temp\cciwadCd.s:168    .text.pmksa_cache_link_entry:0000000000000012 .L0 
C:\Users\stapi\AppData\Local\Temp\cciwadCd.s:170    .text.pmksa_cache_link_entry:0000000000000014 .L0 
C:\Users\stapi\AppData\Local\Temp\cciwadCd.s:171    .text.pmksa_cache_link_entry:0000000000000014 .L0 
C:\Users\stapi\AppData\Local\Temp\cciwadCd.s:176    .text.pmksa_cache_link_entry:000000000000001c .L0 
C:\Users\stapi\AppData\Local\Temp\cciwadCd.s:177    .text.pmksa_cache_link_entry:000000000000001c .L0 
C:\Users\stapi\AppData\Local\Temp\cciwadCd.s:179    .text.pmksa_cache_link_entry:000000000000001e .L0 
C:\Users\stapi\AppData\Local\Temp\cciwadCd.s:180    .text.pmksa_cache_link_entry:000000000000001e .L0 
C:\Users\stapi\AppData\Local\Temp\cciwadCd.s:182    .text.pmksa_cache_link_entry:0000000000000020 .L0 
C:\Users\stapi\AppData\Local\Temp\cciwadCd.s:183    .text.pmksa_cache_link_entry:0000000000000020 .L0 
C:\Users\stapi\AppData\Local\Temp\cciwadCd.s:187    .text.pmksa_cache_link_entry:0000000000000024 .L0 
C:\Users\stapi\AppData\Local\Temp\cciwadCd.s:188    .text.pmksa_cache_link_entry:0000000000000024 .L0 
C:\Users\stapi\AppData\Local\Temp\cciwadCd.s:192    .text.pmksa_cache_link_entry:0000000000000030 .L0 
C:\Users\stapi\AppData\Local\Temp\cciwadCd.s:195    .text.pmksa_cache_link_entry:0000000000000034 .L0 
C:\Users\stapi\AppData\Local\Temp\cciwadCd.s:196    .text.pmksa_cache_link_entry:0000000000000034 .L0 
C:\Users\stapi\AppData\Local\Temp\cciwadCd.s:199    .text.pmksa_cache_link_entry:0000000000000036 .L0 
C:\Users\stapi\AppData\Local\Temp\cciwadCd.s:200    .text.pmksa_cache_link_entry:0000000000000036 .L0 
C:\Users\stapi\AppData\Local\Temp\cciwadCd.s:204    .text.pmksa_cache_link_entry:0000000000000040 .L0 
C:\Users\stapi\AppData\Local\Temp\cciwadCd.s:205    .text.pmksa_cache_link_entry:0000000000000040 .L0 
C:\Users\stapi\AppData\Local\Temp\cciwadCd.s:207    .text.pmksa_cache_link_entry:0000000000000042 .L0 
C:\Users\stapi\AppData\Local\Temp\cciwadCd.s:211    .text.pmksa_cache_link_entry:000000000000004a .L0 
C:\Users\stapi\AppData\Local\Temp\cciwadCd.s:223    .text.pmksa_cache_link_entry:0000000000000074 .L0 
C:\Users\stapi\AppData\Local\Temp\cciwadCd.s:231    .text.pmksa_cache_link_entry:000000000000008c .L0 
C:\Users\stapi\AppData\Local\Temp\cciwadCd.s:232    .text.pmksa_cache_link_entry:0000000000000094 .L0 
C:\Users\stapi\AppData\Local\Temp\cciwadCd.s:233    .text.pmksa_cache_link_entry:0000000000000094 .L0 
C:\Users\stapi\AppData\Local\Temp\cciwadCd.s:234    .text.pmksa_cache_link_entry:0000000000000094 .L0 
C:\Users\stapi\AppData\Local\Temp\cciwadCd.s:235    .text.pmksa_cache_link_entry:0000000000000094 .L0 
C:\Users\stapi\AppData\Local\Temp\cciwadCd.s:238    .text.pmksa_cache_link_entry:0000000000000094 .L0 
C:\Users\stapi\AppData\Local\Temp\cciwadCd.s:240    .text.pmksa_cache_link_entry:0000000000000094 .L0 
C:\Users\stapi\AppData\Local\Temp\cciwadCd.s:241    .text.pmksa_cache_link_entry:0000000000000094 .L0 
C:\Users\stapi\AppData\Local\Temp\cciwadCd.s:242    .text.pmksa_cache_link_entry:0000000000000094 .L0 
C:\Users\stapi\AppData\Local\Temp\cciwadCd.s:248    .text.pmksa_cache_link_entry:000000000000009a .L0 
C:\Users\stapi\AppData\Local\Temp\cciwadCd.s:249    .text.pmksa_cache_link_entry:000000000000009a .L0 
C:\Users\stapi\AppData\Local\Temp\cciwadCd.s:252    .text.pmksa_cache_link_entry:000000000000009c .L0 
C:\Users\stapi\AppData\Local\Temp\cciwadCd.s:254    .text.pmksa_cache_link_entry:000000000000009e .L0 
C:\Users\stapi\AppData\Local\Temp\cciwadCd.s:255    .text.pmksa_cache_link_entry:000000000000009e .L0 
C:\Users\stapi\AppData\Local\Temp\cciwadCd.s:257    .text.pmksa_cache_link_entry:00000000000000a2 .L0 
C:\Users\stapi\AppData\Local\Temp\cciwadCd.s:264    .text.pmksa_cache_free_entry:0000000000000000 pmksa_cache_free_entry
C:\Users\stapi\AppData\Local\Temp\cciwadCd.s:267    .text.pmksa_cache_free_entry:0000000000000000 .L0 
C:\Users\stapi\AppData\Local\Temp\cciwadCd.s:269    .text.pmksa_cache_free_entry:0000000000000000 .L0 
C:\Users\stapi\AppData\Local\Temp\cciwadCd.s:270    .text.pmksa_cache_free_entry:0000000000000008 .L0 
C:\Users\stapi\AppData\Local\Temp\cciwadCd.s:271    .text.pmksa_cache_free_entry:0000000000000008 .L0 
C:\Users\stapi\AppData\Local\Temp\cciwadCd.s:272    .text.pmksa_cache_free_entry:0000000000000008 .L0 
C:\Users\stapi\AppData\Local\Temp\cciwadCd.s:274    .text.pmksa_cache_free_entry:0000000000000008 .L0 
C:\Users\stapi\AppData\Local\Temp\cciwadCd.s:275    .text.pmksa_cache_free_entry:0000000000000008 .L0 
C:\Users\stapi\AppData\Local\Temp\cciwadCd.s:276    .text.pmksa_cache_free_entry:0000000000000008 .L0 
C:\Users\stapi\AppData\Local\Temp\cciwadCd.s:277    .text.pmksa_cache_free_entry:0000000000000008 .L0 
C:\Users\stapi\AppData\Local\Temp\cciwadCd.s:279    .text.pmksa_cache_free_entry:000000000000000a .L0 
C:\Users\stapi\AppData\Local\Temp\cciwadCd.s:282    .text.pmksa_cache_free_entry:0000000000000010 .L0 
C:\Users\stapi\AppData\Local\Temp\cciwadCd.s:285    .text.pmksa_cache_free_entry:0000000000000012 .L0 
C:\Users\stapi\AppData\Local\Temp\cciwadCd.s:288    .text.pmksa_cache_free_entry:0000000000000014 .L0 
C:\Users\stapi\AppData\Local\Temp\cciwadCd.s:291    .text.pmksa_cache_free_entry:0000000000000018 .L0 
C:\Users\stapi\AppData\Local\Temp\cciwadCd.s:293    .text.pmksa_cache_free_entry:000000000000001a .L0 
C:\Users\stapi\AppData\Local\Temp\cciwadCd.s:294    .text.pmksa_cache_free_entry:000000000000001c .L0 
C:\Users\stapi\AppData\Local\Temp\cciwadCd.s:296    .text.pmksa_cache_free_entry:000000000000001c .L0 
C:\Users\stapi\AppData\Local\Temp\cciwadCd.s:300    .text.pmksa_cache_free_entry:0000000000000020 .L0 
C:\Users\stapi\AppData\Local\Temp\cciwadCd.s:301    .text.pmksa_cache_free_entry:0000000000000020 .L0 
C:\Users\stapi\AppData\Local\Temp\cciwadCd.s:302    .text.pmksa_cache_free_entry:0000000000000020 .L0 
C:\Users\stapi\AppData\Local\Temp\cciwadCd.s:304    .text.pmksa_cache_free_entry:0000000000000022 .L0 
C:\Users\stapi\AppData\Local\Temp\cciwadCd.s:306    .text.pmksa_cache_free_entry:0000000000000024 .L0 
C:\Users\stapi\AppData\Local\Temp\cciwadCd.s:310    .text.pmksa_cache_free_entry:0000000000000030 .L0 
C:\Users\stapi\AppData\Local\Temp\cciwadCd.s:313    .text.pmksa_cache_free_entry:0000000000000032 .L0 
C:\Users\stapi\AppData\Local\Temp\cciwadCd.s:315    .text.pmksa_cache_free_entry:0000000000000032 .L0 
C:\Users\stapi\AppData\Local\Temp\cciwadCd.s:316    .text.pmksa_cache_free_entry:0000000000000032 .L0 
C:\Users\stapi\AppData\Local\Temp\cciwadCd.s:318    .text.pmksa_cache_free_entry:0000000000000034 .L0 
C:\Users\stapi\AppData\Local\Temp\cciwadCd.s:319    .text.pmksa_cache_free_entry:0000000000000034 .L0 
C:\Users\stapi\AppData\Local\Temp\cciwadCd.s:321    .text.pmksa_cache_free_entry:0000000000000038 .L0 
C:\Users\stapi\AppData\Local\Temp\cciwadCd.s:322    .text.pmksa_cache_free_entry:0000000000000038 .L0 
C:\Users\stapi\AppData\Local\Temp\cciwadCd.s:325    .text.pmksa_cache_free_entry:000000000000003a .L0 
C:\Users\stapi\AppData\Local\Temp\cciwadCd.s:327    .text.pmksa_cache_free_entry:000000000000003c .L0 
C:\Users\stapi\AppData\Local\Temp\cciwadCd.s:328    .text.pmksa_cache_free_entry:000000000000003c .L0 
C:\Users\stapi\AppData\Local\Temp\cciwadCd.s:332    .text.pmksa_cache_free_entry:000000000000003e .L0 
C:\Users\stapi\AppData\Local\Temp\cciwadCd.s:333    .text.pmksa_cache_free_entry:000000000000003e .L0 
C:\Users\stapi\AppData\Local\Temp\cciwadCd.s:336    .text.pmksa_cache_free_entry:0000000000000042 .L0 
C:\Users\stapi\AppData\Local\Temp\cciwadCd.s:337    .text.pmksa_cache_free_entry:0000000000000042 .L0 
C:\Users\stapi\AppData\Local\Temp\cciwadCd.s:338    .text.pmksa_cache_free_entry:0000000000000042 .L0 
C:\Users\stapi\AppData\Local\Temp\cciwadCd.s:342    .text.pmksa_cache_free_entry:0000000000000044 .L0 
C:\Users\stapi\AppData\Local\Temp\cciwadCd.s:344    .text.pmksa_cache_free_entry:0000000000000046 .L0 
C:\Users\stapi\AppData\Local\Temp\cciwadCd.s:345    .text.pmksa_cache_free_entry:0000000000000046 .L0 
C:\Users\stapi\AppData\Local\Temp\cciwadCd.s:347    .text.pmksa_cache_free_entry:000000000000004a .L0 
C:\Users\stapi\AppData\Local\Temp\cciwadCd.s:348    .text.pmksa_cache_free_entry:000000000000004a .L0 
C:\Users\stapi\AppData\Local\Temp\cciwadCd.s:351    .text.pmksa_cache_free_entry:000000000000004c .L0 
C:\Users\stapi\AppData\Local\Temp\cciwadCd.s:353    .text.pmksa_cache_free_entry:000000000000004e .L0 
C:\Users\stapi\AppData\Local\Temp\cciwadCd.s:354    .text.pmksa_cache_free_entry:000000000000004e .L0 
C:\Users\stapi\AppData\Local\Temp\cciwadCd.s:357    .text.pmksa_cache_free_entry:0000000000000050 .L0 
C:\Users\stapi\AppData\Local\Temp\cciwadCd.s:360    .text.pmksa_cache_free_entry:0000000000000058 .L0 
C:\Users\stapi\AppData\Local\Temp\cciwadCd.s:361    .text.pmksa_cache_free_entry:000000000000005a .L0 
C:\Users\stapi\AppData\Local\Temp\cciwadCd.s:362    .text.pmksa_cache_free_entry:000000000000005a .L0 
C:\Users\stapi\AppData\Local\Temp\cciwadCd.s:365    .text.pmksa_cache_free_entry:0000000000000062 .L0 
C:\Users\stapi\AppData\Local\Temp\cciwadCd.s:366    .text.pmksa_cache_free_entry:0000000000000062 .L0 
C:\Users\stapi\AppData\Local\Temp\cciwadCd.s:367    .text.pmksa_cache_free_entry:0000000000000062 .L0 
C:\Users\stapi\AppData\Local\Temp\cciwadCd.s:370    .text.pmksa_cache_free_entry:0000000000000062 .L0 
C:\Users\stapi\AppData\Local\Temp\cciwadCd.s:372    .text.pmksa_cache_free_entry:0000000000000062 .L0 
C:\Users\stapi\AppData\Local\Temp\cciwadCd.s:373    .text.pmksa_cache_free_entry:0000000000000062 .L0 
C:\Users\stapi\AppData\Local\Temp\cciwadCd.s:379    .text.pmksa_cache_free_entry:0000000000000066 .L0 
C:\Users\stapi\AppData\Local\Temp\cciwadCd.s:380    .text.pmksa_cache_free_entry:0000000000000066 .L0 
C:\Users\stapi\AppData\Local\Temp\cciwadCd.s:381    .text.pmksa_cache_free_entry:0000000000000066 .L0 
C:\Users\stapi\AppData\Local\Temp\cciwadCd.s:388    .text.pmksa_cache_free_entry:000000000000006c .L0 
C:\Users\stapi\AppData\Local\Temp\cciwadCd.s:389    .text.pmksa_cache_free_entry:000000000000006c .L0 
C:\Users\stapi\AppData\Local\Temp\cciwadCd.s:394    .text.pmksa_cache_free_entry:0000000000000072 .L0 
C:\Users\stapi\AppData\Local\Temp\cciwadCd.s:395    .text.pmksa_cache_free_entry:0000000000000072 .L0 
C:\Users\stapi\AppData\Local\Temp\cciwadCd.s:396    .text.pmksa_cache_free_entry:0000000000000072 .L0 
C:\Users\stapi\AppData\Local\Temp\cciwadCd.s:400    .text.pmksa_cache_free_entry:0000000000000078 .L0 
C:\Users\stapi\AppData\Local\Temp\cciwadCd.s:413    .text.pmksa_cache_expire:0000000000000000 .L0 
C:\Users\stapi\AppData\Local\Temp\cciwadCd.s:415    .text.pmksa_cache_expire:0000000000000000 .L0 
C:\Users\stapi\AppData\Local\Temp\cciwadCd.s:416    .text.pmksa_cache_expire:0000000000000008 .L0 
C:\Users\stapi\AppData\Local\Temp\cciwadCd.s:417    .text.pmksa_cache_expire:0000000000000008 .L0 
C:\Users\stapi\AppData\Local\Temp\cciwadCd.s:418    .text.pmksa_cache_expire:0000000000000008 .L0 
C:\Users\stapi\AppData\Local\Temp\cciwadCd.s:419    .text.pmksa_cache_expire:0000000000000008 .L0 
C:\Users\stapi\AppData\Local\Temp\cciwadCd.s:421    .text.pmksa_cache_expire:0000000000000008 .L0 
C:\Users\stapi\AppData\Local\Temp\cciwadCd.s:422    .text.pmksa_cache_expire:0000000000000008 .L0 
C:\Users\stapi\AppData\Local\Temp\cciwadCd.s:423    .text.pmksa_cache_expire:000000000000000a .L0 
C:\Users\stapi\AppData\Local\Temp\cciwadCd.s:425    .text.pmksa_cache_expire:000000000000000a .L0 
C:\Users\stapi\AppData\Local\Temp\cciwadCd.s:428    .text.pmksa_cache_expire:000000000000000c .L0 
C:\Users\stapi\AppData\Local\Temp\cciwadCd.s:429    .text.pmksa_cache_expire:000000000000000c .L0 
C:\Users\stapi\AppData\Local\Temp\cciwadCd.s:434    .text.pmksa_cache_expire:0000000000000016 .L0 
C:\Users\stapi\AppData\Local\Temp\cciwadCd.s:435    .text.pmksa_cache_expire:0000000000000016 .L0 
C:\Users\stapi\AppData\Local\Temp\cciwadCd.s:438    .text.pmksa_cache_expire:000000000000001a .L0 
C:\Users\stapi\AppData\Local\Temp\cciwadCd.s:439    .text.pmksa_cache_expire:000000000000001a .L0 
C:\Users\stapi\AppData\Local\Temp\cciwadCd.s:441    .text.pmksa_cache_expire:000000000000001e .L0 
C:\Users\stapi\AppData\Local\Temp\cciwadCd.s:443    .text.pmksa_cache_expire:0000000000000020 .L0 
C:\Users\stapi\AppData\Local\Temp\cciwadCd.s:448    .text.pmksa_cache_expire:0000000000000028 .L0 
C:\Users\stapi\AppData\Local\Temp\cciwadCd.s:452    .text.pmksa_cache_expire:0000000000000032 .L0 
C:\Users\stapi\AppData\Local\Temp\cciwadCd.s:453    .text.pmksa_cache_expire:0000000000000034 .L0 
C:\Users\stapi\AppData\Local\Temp\cciwadCd.s:454    .text.pmksa_cache_expire:0000000000000034 .L0 
C:\Users\stapi\AppData\Local\Temp\cciwadCd.s:456    .text.pmksa_cache_expire:000000000000003c .L0 
C:\Users\stapi\AppData\Local\Temp\cciwadCd.s:457    .text.pmksa_cache_expire:000000000000003c .L0 
C:\Users\stapi\AppData\Local\Temp\cciwadCd.s:458    .text.pmksa_cache_expire:000000000000003c .L0 
C:\Users\stapi\AppData\Local\Temp\cciwadCd.s:459    .text.pmksa_cache_expire:000000000000003c .L0 
C:\Users\stapi\AppData\Local\Temp\cciwadCd.s:461    .text.pmksa_cache_expire:000000000000003c .L0 
C:\Users\stapi\AppData\Local\Temp\cciwadCd.s:463    .text.pmksa_cache_expire:000000000000003c .L0 
C:\Users\stapi\AppData\Local\Temp\cciwadCd.s:474    .text.pmksa_cache_expire:0000000000000062 .L0 
C:\Users\stapi\AppData\Local\Temp\cciwadCd.s:479    .text.pmksa_cache_expire:0000000000000072 .L0 
C:\Users\stapi\AppData\Local\Temp\cciwadCd.s:490    .text.pmksa_cache_auth_flush:0000000000000000 pmksa_cache_auth_flush
C:\Users\stapi\AppData\Local\Temp\cciwadCd.s:493    .text.pmksa_cache_auth_flush:0000000000000000 .L0 
C:\Users\stapi\AppData\Local\Temp\cciwadCd.s:495    .text.pmksa_cache_auth_flush:0000000000000000 .L0 
C:\Users\stapi\AppData\Local\Temp\cciwadCd.s:496    .text.pmksa_cache_auth_flush:0000000000000008 .L0 
C:\Users\stapi\AppData\Local\Temp\cciwadCd.s:497    .text.pmksa_cache_auth_flush:0000000000000008 .L0 
C:\Users\stapi\AppData\Local\Temp\cciwadCd.s:498    .text.pmksa_cache_auth_flush:0000000000000008 .L0 
C:\Users\stapi\AppData\Local\Temp\cciwadCd.s:499    .text.pmksa_cache_auth_flush:0000000000000008 .L0 
C:\Users\stapi\AppData\Local\Temp\cciwadCd.s:501    .text.pmksa_cache_auth_flush:0000000000000008 .L0 
C:\Users\stapi\AppData\Local\Temp\cciwadCd.s:502    .text.pmksa_cache_auth_flush:0000000000000008 .L0 
C:\Users\stapi\AppData\Local\Temp\cciwadCd.s:504    .text.pmksa_cache_auth_flush:000000000000000a .L0 
C:\Users\stapi\AppData\Local\Temp\cciwadCd.s:508    .text.pmksa_cache_auth_flush:000000000000000e .L0 
C:\Users\stapi\AppData\Local\Temp\cciwadCd.s:509    .text.pmksa_cache_auth_flush:000000000000000e .L0 
C:\Users\stapi\AppData\Local\Temp\cciwadCd.s:511    .text.pmksa_cache_auth_flush:0000000000000012 .L0 
C:\Users\stapi\AppData\Local\Temp\cciwadCd.s:513    .text.pmksa_cache_auth_flush:0000000000000014 .L0 
C:\Users\stapi\AppData\Local\Temp\cciwadCd.s:514    .text.pmksa_cache_auth_flush:000000000000001c .L0 
C:\Users\stapi\AppData\Local\Temp\cciwadCd.s:515    .text.pmksa_cache_auth_flush:000000000000001c .L0 
C:\Users\stapi\AppData\Local\Temp\cciwadCd.s:516    .text.pmksa_cache_auth_flush:000000000000001c .L0 
C:\Users\stapi\AppData\Local\Temp\cciwadCd.s:517    .text.pmksa_cache_auth_flush:000000000000001c .L0 
C:\Users\stapi\AppData\Local\Temp\cciwadCd.s:518    .text.pmksa_cache_auth_flush:000000000000001c .L0 
C:\Users\stapi\AppData\Local\Temp\cciwadCd.s:520    .text.pmksa_cache_auth_flush:000000000000001c .L0 
C:\Users\stapi\AppData\Local\Temp\cciwadCd.s:522    .text.pmksa_cache_auth_flush:000000000000001c .L0 
C:\Users\stapi\AppData\Local\Temp\cciwadCd.s:533    .text.pmksa_cache_auth_flush:0000000000000042 .L0 
C:\Users\stapi\AppData\Local\Temp\cciwadCd.s:538    .text.pmksa_cache_auth_flush:0000000000000052 .L0 
C:\Users\stapi\AppData\Local\Temp\cciwadCd.s:552    .text.pmksa_cache_to_eapol_data:0000000000000000 pmksa_cache_to_eapol_data
C:\Users\stapi\AppData\Local\Temp\cciwadCd.s:555    .text.pmksa_cache_to_eapol_data:0000000000000000 .L0 
C:\Users\stapi\AppData\Local\Temp\cciwadCd.s:557    .text.pmksa_cache_to_eapol_data:0000000000000000 .L0 
C:\Users\stapi\AppData\Local\Temp\cciwadCd.s:558    .text.pmksa_cache_to_eapol_data:0000000000000000 .L0 
C:\Users\stapi\AppData\Local\Temp\cciwadCd.s:559    .text.pmksa_cache_to_eapol_data:0000000000000000 .L0 
C:\Users\stapi\AppData\Local\Temp\cciwadCd.s:561    .text.pmksa_cache_to_eapol_data:0000000000000002 .L0 
C:\Users\stapi\AppData\Local\Temp\cciwadCd.s:562    .text.pmksa_cache_to_eapol_data:000000000000000a .L0 
C:\Users\stapi\AppData\Local\Temp\cciwadCd.s:563    .text.pmksa_cache_to_eapol_data:000000000000000a .L0 
C:\Users\stapi\AppData\Local\Temp\cciwadCd.s:564    .text.pmksa_cache_to_eapol_data:000000000000000a .L0 
C:\Users\stapi\AppData\Local\Temp\cciwadCd.s:565    .text.pmksa_cache_to_eapol_data:000000000000000a .L0 
C:\Users\stapi\AppData\Local\Temp\cciwadCd.s:568    .text.pmksa_cache_to_eapol_data:000000000000000c .L0 
C:\Users\stapi\AppData\Local\Temp\cciwadCd.s:570    .text.pmksa_cache_to_eapol_data:000000000000000e .L0 
C:\Users\stapi\AppData\Local\Temp\cciwadCd.s:573    .text.pmksa_cache_to_eapol_data:0000000000000012 .L0 
C:\Users\stapi\AppData\Local\Temp\cciwadCd.s:574    .text.pmksa_cache_to_eapol_data:0000000000000012 .L0 
C:\Users\stapi\AppData\Local\Temp\cciwadCd.s:576    .text.pmksa_cache_to_eapol_data:0000000000000014 .L0 
C:\Users\stapi\AppData\Local\Temp\cciwadCd.s:581    .text.pmksa_cache_to_eapol_data:0000000000000020 .L0 
C:\Users\stapi\AppData\Local\Temp\cciwadCd.s:582    .text.pmksa_cache_to_eapol_data:0000000000000020 .L0 
C:\Users\stapi\AppData\Local\Temp\cciwadCd.s:586    .text.pmksa_cache_to_eapol_data:000000000000002a .L0 
C:\Users\stapi\AppData\Local\Temp\cciwadCd.s:588    .text.pmksa_cache_to_eapol_data:000000000000002e .L0 
C:\Users\stapi\AppData\Local\Temp\cciwadCd.s:589    .text.pmksa_cache_to_eapol_data:000000000000002e .L0 
C:\Users\stapi\AppData\Local\Temp\cciwadCd.s:591    .text.pmksa_cache_to_eapol_data:0000000000000030 .L0 
C:\Users\stapi\AppData\Local\Temp\cciwadCd.s:592    .text.pmksa_cache_to_eapol_data:0000000000000030 .L0 
C:\Users\stapi\AppData\Local\Temp\cciwadCd.s:594    .text.pmksa_cache_to_eapol_data:0000000000000032 .L0 
C:\Users\stapi\AppData\Local\Temp\cciwadCd.s:596    .text.pmksa_cache_to_eapol_data:0000000000000034 .L0 
C:\Users\stapi\AppData\Local\Temp\cciwadCd.s:598    .text.pmksa_cache_to_eapol_data:0000000000000038 .L0 
C:\Users\stapi\AppData\Local\Temp\cciwadCd.s:602    .text.pmksa_cache_to_eapol_data:0000000000000040 .L0 
C:\Users\stapi\AppData\Local\Temp\cciwadCd.s:611    .text.pmksa_cache_to_eapol_data:000000000000005a .L0 
C:\Users\stapi\AppData\Local\Temp\cciwadCd.s:612    .text.pmksa_cache_to_eapol_data:000000000000005a .L0 
C:\Users\stapi\AppData\Local\Temp\cciwadCd.s:615    .text.pmksa_cache_to_eapol_data:000000000000005e .L0 
C:\Users\stapi\AppData\Local\Temp\cciwadCd.s:619    .text.pmksa_cache_to_eapol_data:000000000000006a .L0 
C:\Users\stapi\AppData\Local\Temp\cciwadCd.s:620    .text.pmksa_cache_to_eapol_data:000000000000006a .L0 
C:\Users\stapi\AppData\Local\Temp\cciwadCd.s:624    .text.pmksa_cache_to_eapol_data:0000000000000074 .L0 
C:\Users\stapi\AppData\Local\Temp\cciwadCd.s:627    .text.pmksa_cache_to_eapol_data:0000000000000078 .L0 
C:\Users\stapi\AppData\Local\Temp\cciwadCd.s:628    .text.pmksa_cache_to_eapol_data:0000000000000078 .L0 
C:\Users\stapi\AppData\Local\Temp\cciwadCd.s:631    .text.pmksa_cache_to_eapol_data:000000000000007e .L0 
C:\Users\stapi\AppData\Local\Temp\cciwadCd.s:639    .text.pmksa_cache_to_eapol_data:0000000000000094 .L0 
C:\Users\stapi\AppData\Local\Temp\cciwadCd.s:640    .text.pmksa_cache_to_eapol_data:0000000000000094 .L0 
C:\Users\stapi\AppData\Local\Temp\cciwadCd.s:643    .text.pmksa_cache_to_eapol_data:000000000000009c .L0 
C:\Users\stapi\AppData\Local\Temp\cciwadCd.s:644    .text.pmksa_cache_to_eapol_data:000000000000009c .L0 
C:\Users\stapi\AppData\Local\Temp\cciwadCd.s:651    .text.pmksa_cache_to_eapol_data:00000000000000ac .L0 
C:\Users\stapi\AppData\Local\Temp\cciwadCd.s:652    .text.pmksa_cache_to_eapol_data:00000000000000b4 .L0 
C:\Users\stapi\AppData\Local\Temp\cciwadCd.s:653    .text.pmksa_cache_to_eapol_data:00000000000000b4 .L0 
C:\Users\stapi\AppData\Local\Temp\cciwadCd.s:654    .text.pmksa_cache_to_eapol_data:00000000000000b4 .L0 
C:\Users\stapi\AppData\Local\Temp\cciwadCd.s:655    .text.pmksa_cache_to_eapol_data:00000000000000b4 .L0 
C:\Users\stapi\AppData\Local\Temp\cciwadCd.s:659    .text.pmksa_cache_to_eapol_data:00000000000000b6 .L0 
C:\Users\stapi\AppData\Local\Temp\cciwadCd.s:666    .text.pmksa_cache_auth_create_entry:0000000000000000 pmksa_cache_auth_create_entry
C:\Users\stapi\AppData\Local\Temp\cciwadCd.s:669    .text.pmksa_cache_auth_create_entry:0000000000000000 .L0 
C:\Users\stapi\AppData\Local\Temp\cciwadCd.s:671    .text.pmksa_cache_auth_create_entry:0000000000000000 .L0 
C:\Users\stapi\AppData\Local\Temp\cciwadCd.s:672    .text.pmksa_cache_auth_create_entry:0000000000000008 .L0 
C:\Users\stapi\AppData\Local\Temp\cciwadCd.s:673    .text.pmksa_cache_auth_create_entry:0000000000000008 .L0 
C:\Users\stapi\AppData\Local\Temp\cciwadCd.s:674    .text.pmksa_cache_auth_create_entry:0000000000000008 .L0 
C:\Users\stapi\AppData\Local\Temp\cciwadCd.s:675    .text.pmksa_cache_auth_create_entry:0000000000000008 .L0 
C:\Users\stapi\AppData\Local\Temp\cciwadCd.s:676    .text.pmksa_cache_auth_create_entry:0000000000000008 .L0 
C:\Users\stapi\AppData\Local\Temp\cciwadCd.s:677    .text.pmksa_cache_auth_create_entry:0000000000000008 .L0 
C:\Users\stapi\AppData\Local\Temp\cciwadCd.s:678    .text.pmksa_cache_auth_create_entry:0000000000000008 .L0 
C:\Users\stapi\AppData\Local\Temp\cciwadCd.s:679    .text.pmksa_cache_auth_create_entry:0000000000000008 .L0 
C:\Users\stapi\AppData\Local\Temp\cciwadCd.s:680    .text.pmksa_cache_auth_create_entry:0000000000000008 .L0 
C:\Users\stapi\AppData\Local\Temp\cciwadCd.s:681    .text.pmksa_cache_auth_create_entry:0000000000000008 .L0 
C:\Users\stapi\AppData\Local\Temp\cciwadCd.s:682    .text.pmksa_cache_auth_create_entry:0000000000000008 .L0 
C:\Users\stapi\AppData\Local\Temp\cciwadCd.s:683    .text.pmksa_cache_auth_create_entry:0000000000000008 .L0 
C:\Users\stapi\AppData\Local\Temp\cciwadCd.s:685    .text.pmksa_cache_auth_create_entry:0000000000000008 .L0 
C:\Users\stapi\AppData\Local\Temp\cciwadCd.s:686    .text.pmksa_cache_auth_create_entry:0000000000000008 .L0 
C:\Users\stapi\AppData\Local\Temp\cciwadCd.s:687    .text.pmksa_cache_auth_create_entry:0000000000000008 .L0 
C:\Users\stapi\AppData\Local\Temp\cciwadCd.s:688    .text.pmksa_cache_auth_create_entry:0000000000000008 .L0 
C:\Users\stapi\AppData\Local\Temp\cciwadCd.s:689    .text.pmksa_cache_auth_create_entry:000000000000000a .L0 
C:\Users\stapi\AppData\Local\Temp\cciwadCd.s:691    .text.pmksa_cache_auth_create_entry:000000000000000a .L0 
C:\Users\stapi\AppData\Local\Temp\cciwadCd.s:693    .text.pmksa_cache_auth_create_entry:000000000000000c .L0 
C:\Users\stapi\AppData\Local\Temp\cciwadCd.s:696    .text.pmksa_cache_auth_create_entry:0000000000000010 .L0 
C:\Users\stapi\AppData\Local\Temp\cciwadCd.s:699    .text.pmksa_cache_auth_create_entry:0000000000000014 .L0 
C:\Users\stapi\AppData\Local\Temp\cciwadCd.s:703    .text.pmksa_cache_auth_create_entry:0000000000000018 .L0 
C:\Users\stapi\AppData\Local\Temp\cciwadCd.s:706    .text.pmksa_cache_auth_create_entry:000000000000001a .L0 
C:\Users\stapi\AppData\Local\Temp\cciwadCd.s:708    .text.pmksa_cache_auth_create_entry:000000000000001e .L0 
C:\Users\stapi\AppData\Local\Temp\cciwadCd.s:709    .text.pmksa_cache_auth_create_entry:000000000000001e .L0 
C:\Users\stapi\AppData\Local\Temp\cciwadCd.s:712    .text.pmksa_cache_auth_create_entry:0000000000000026 .L0 
C:\Users\stapi\AppData\Local\Temp\cciwadCd.s:713    .text.pmksa_cache_auth_create_entry:0000000000000026 .L0 
C:\Users\stapi\AppData\Local\Temp\cciwadCd.s:714    .text.pmksa_cache_auth_create_entry:0000000000000026 .L0 
C:\Users\stapi\AppData\Local\Temp\cciwadCd.s:715    .text.pmksa_cache_auth_create_entry:0000000000000026 .L0 
C:\Users\stapi\AppData\Local\Temp\cciwadCd.s:716    .text.pmksa_cache_auth_create_entry:0000000000000026 .L0 
C:\Users\stapi\AppData\Local\Temp\cciwadCd.s:717    .text.pmksa_cache_auth_create_entry:0000000000000026 .L0 
C:\Users\stapi\AppData\Local\Temp\cciwadCd.s:718    .text.pmksa_cache_auth_create_entry:0000000000000026 .L0 
C:\Users\stapi\AppData\Local\Temp\cciwadCd.s:719    .text.pmksa_cache_auth_create_entry:0000000000000026 .L0 
C:\Users\stapi\AppData\Local\Temp\cciwadCd.s:720    .text.pmksa_cache_auth_create_entry:0000000000000026 .L0 
C:\Users\stapi\AppData\Local\Temp\cciwadCd.s:721    .text.pmksa_cache_auth_create_entry:0000000000000026 .L0 
C:\Users\stapi\AppData\Local\Temp\cciwadCd.s:722    .text.pmksa_cache_auth_create_entry:0000000000000026 .L0 
C:\Users\stapi\AppData\Local\Temp\cciwadCd.s:723    .text.pmksa_cache_auth_create_entry:0000000000000026 .L0 
C:\Users\stapi\AppData\Local\Temp\cciwadCd.s:726    .text.pmksa_cache_auth_create_entry:0000000000000026 .L0 
C:\Users\stapi\AppData\Local\Temp\cciwadCd.s:731    .text.pmksa_cache_auth_create_entry:0000000000000026 .L0 
C:\Users\stapi\AppData\Local\Temp\cciwadCd.s:744    .text.pmksa_cache_auth_create_entry:0000000000000038 .L0 
C:\Users\stapi\AppData\Local\Temp\cciwadCd.s:747    .text.pmksa_cache_auth_create_entry:0000000000000038 .L0 
C:\Users\stapi\AppData\Local\Temp\cciwadCd.s:748    .text.pmksa_cache_auth_create_entry:0000000000000038 .L0 
C:\Users\stapi\AppData\Local\Temp\cciwadCd.s:750    .text.pmksa_cache_auth_create_entry:000000000000003c .L0 
C:\Users\stapi\AppData\Local\Temp\cciwadCd.s:753    .text.pmksa_cache_auth_create_entry:000000000000003e .L0 
C:\Users\stapi\AppData\Local\Temp\cciwadCd.s:754    .text.pmksa_cache_auth_create_entry:000000000000003e .L0 
C:\Users\stapi\AppData\Local\Temp\cciwadCd.s:761    .text.pmksa_cache_auth_create_entry:000000000000004c .L0 
C:\Users\stapi\AppData\Local\Temp\cciwadCd.s:762    .text.pmksa_cache_auth_create_entry:000000000000004c .L0 
C:\Users\stapi\AppData\Local\Temp\cciwadCd.s:764    .text.pmksa_cache_auth_create_entry:000000000000004e .L0 
C:\Users\stapi\AppData\Local\Temp\cciwadCd.s:770    .text.pmksa_cache_auth_create_entry:000000000000005c .L0 
C:\Users\stapi\AppData\Local\Temp\cciwadCd.s:771    .text.pmksa_cache_auth_create_entry:000000000000005c .L0 
C:\Users\stapi\AppData\Local\Temp\cciwadCd.s:773    .text.pmksa_cache_auth_create_entry:0000000000000060 .L0 
C:\Users\stapi\AppData\Local\Temp\cciwadCd.s:774    .text.pmksa_cache_auth_create_entry:0000000000000060 .L0 
C:\Users\stapi\AppData\Local\Temp\cciwadCd.s:776    .text.pmksa_cache_auth_create_entry:0000000000000064 .L0 
C:\Users\stapi\AppData\Local\Temp\cciwadCd.s:783    .text.pmksa_cache_auth_create_entry:0000000000000074 .L0 
C:\Users\stapi\AppData\Local\Temp\cciwadCd.s:787    .text.pmksa_cache_auth_create_entry:000000000000007e .L0 
C:\Users\stapi\AppData\Local\Temp\cciwadCd.s:788    .text.pmksa_cache_auth_create_entry:000000000000007e .L0 
C:\Users\stapi\AppData\Local\Temp\cciwadCd.s:790    .text.pmksa_cache_auth_create_entry:0000000000000080 .L0 
C:\Users\stapi\AppData\Local\Temp\cciwadCd.s:791    .text.pmksa_cache_auth_create_entry:0000000000000080 .L0 
C:\Users\stapi\AppData\Local\Temp\cciwadCd.s:793    .text.pmksa_cache_auth_create_entry:0000000000000084 .L0 
C:\Users\stapi\AppData\Local\Temp\cciwadCd.s:795    .text.pmksa_cache_auth_create_entry:0000000000000088 .L0 
C:\Users\stapi\AppData\Local\Temp\cciwadCd.s:796    .text.pmksa_cache_auth_create_entry:0000000000000088 .L0 
C:\Users\stapi\AppData\Local\Temp\cciwadCd.s:802    .text.pmksa_cache_auth_create_entry:0000000000000094 .L0 
C:\Users\stapi\AppData\Local\Temp\cciwadCd.s:803    .text.pmksa_cache_auth_create_entry:0000000000000094 .L0 
C:\Users\stapi\AppData\Local\Temp\cciwadCd.s:805    .text.pmksa_cache_auth_create_entry:0000000000000098 .L0 
C:\Users\stapi\AppData\Local\Temp\cciwadCd.s:813    .text.pmksa_cache_auth_create_entry:00000000000000a8 .L0 
C:\Users\stapi\AppData\Local\Temp\cciwadCd.s:814    .text.pmksa_cache_auth_create_entry:00000000000000a8 .L0 
C:\Users\stapi\AppData\Local\Temp\cciwadCd.s:815    .text.pmksa_cache_auth_create_entry:00000000000000a8 .L0 
C:\Users\stapi\AppData\Local\Temp\cciwadCd.s:816    .text.pmksa_cache_auth_create_entry:00000000000000a8 .L0 
C:\Users\stapi\AppData\Local\Temp\cciwadCd.s:818    .text.pmksa_cache_auth_create_entry:00000000000000aa .L0 
C:\Users\stapi\AppData\Local\Temp\cciwadCd.s:819    .text.pmksa_cache_auth_create_entry:00000000000000aa .L0 
C:\Users\stapi\AppData\Local\Temp\cciwadCd.s:822    .text.pmksa_cache_auth_create_entry:00000000000000b0 .L0 
C:\Users\stapi\AppData\Local\Temp\cciwadCd.s:823    .text.pmksa_cache_auth_create_entry:00000000000000b0 .L0 
C:\Users\stapi\AppData\Local\Temp\cciwadCd.s:827    .text.pmksa_cache_auth_create_entry:00000000000000bc .L0 
C:\Users\stapi\AppData\Local\Temp\cciwadCd.s:829    .text.pmksa_cache_auth_create_entry:00000000000000be .L0 
C:\Users\stapi\AppData\Local\Temp\cciwadCd.s:830    .text.pmksa_cache_auth_create_entry:00000000000000be .L0 
C:\Users\stapi\AppData\Local\Temp\cciwadCd.s:832    .text.pmksa_cache_auth_create_entry:00000000000000c0 .L0 
C:\Users\stapi\AppData\Local\Temp\cciwadCd.s:833    .text.pmksa_cache_auth_create_entry:00000000000000c0 .L0 
C:\Users\stapi\AppData\Local\Temp\cciwadCd.s:835    .text.pmksa_cache_auth_create_entry:00000000000000c4 .L0 
C:\Users\stapi\AppData\Local\Temp\cciwadCd.s:837    .text.pmksa_cache_auth_create_entry:00000000000000c8 .L0 
C:\Users\stapi\AppData\Local\Temp\cciwadCd.s:839    .text.pmksa_cache_auth_create_entry:00000000000000ca .L0 
C:\Users\stapi\AppData\Local\Temp\cciwadCd.s:843    .text.pmksa_cache_auth_create_entry:00000000000000d2 .L0 
C:\Users\stapi\AppData\Local\Temp\cciwadCd.s:844    .text.pmksa_cache_auth_create_entry:00000000000000d2 .L0 
C:\Users\stapi\AppData\Local\Temp\cciwadCd.s:846    .text.pmksa_cache_auth_create_entry:00000000000000d6 .L0 
C:\Users\stapi\AppData\Local\Temp\cciwadCd.s:848    .text.pmksa_cache_auth_create_entry:00000000000000d8 .L0 
C:\Users\stapi\AppData\Local\Temp\cciwadCd.s:849    .text.pmksa_cache_auth_create_entry:00000000000000d8 .L0 
C:\Users\stapi\AppData\Local\Temp\cciwadCd.s:852    .text.pmksa_cache_auth_create_entry:00000000000000e0 .L0 
C:\Users\stapi\AppData\Local\Temp\cciwadCd.s:855    .text.pmksa_cache_auth_create_entry:00000000000000e2 .L0 
C:\Users\stapi\AppData\Local\Temp\cciwadCd.s:856    .text.pmksa_cache_auth_create_entry:00000000000000e2 .L0 
C:\Users\stapi\AppData\Local\Temp\cciwadCd.s:859    .text.pmksa_cache_auth_create_entry:00000000000000ea .L0 
C:\Users\stapi\AppData\Local\Temp\cciwadCd.s:860    .text.pmksa_cache_auth_create_entry:00000000000000ea .L0 
C:\Users\stapi\AppData\Local\Temp\cciwadCd.s:864    .text.pmksa_cache_auth_create_entry:00000000000000f2 .L0 
C:\Users\stapi\AppData\Local\Temp\cciwadCd.s:865    .text.pmksa_cache_auth_create_entry:00000000000000f2 .L0 
C:\Users\stapi\AppData\Local\Temp\cciwadCd.s:867    .text.pmksa_cache_auth_create_entry:00000000000000f4 .L0 
C:\Users\stapi\AppData\Local\Temp\cciwadCd.s:870    .text.pmksa_cache_auth_create_entry:00000000000000f8 .L0 
C:\Users\stapi\AppData\Local\Temp\cciwadCd.s:873    .text.pmksa_cache_auth_create_entry:00000000000000fe .L0 
C:\Users\stapi\AppData\Local\Temp\cciwadCd.s:874    .text.pmksa_cache_auth_create_entry:00000000000000fe .L0 
C:\Users\stapi\AppData\Local\Temp\cciwadCd.s:877    .text.pmksa_cache_auth_create_entry:0000000000000106 .L0 
C:\Users\stapi\AppData\Local\Temp\cciwadCd.s:879    .text.pmksa_cache_auth_create_entry:000000000000010a .L0 
C:\Users\stapi\AppData\Local\Temp\cciwadCd.s:880    .text.pmksa_cache_auth_create_entry:000000000000010a .L0 
C:\Users\stapi\AppData\Local\Temp\cciwadCd.s:882    .text.pmksa_cache_auth_create_entry:000000000000010c .L0 
C:\Users\stapi\AppData\Local\Temp\cciwadCd.s:883    .text.pmksa_cache_auth_create_entry:000000000000010c .L0 
C:\Users\stapi\AppData\Local\Temp\cciwadCd.s:889    .text.pmksa_cache_auth_create_entry:000000000000011a .L0 
C:\Users\stapi\AppData\Local\Temp\cciwadCd.s:890    .text.pmksa_cache_auth_create_entry:000000000000011a .L0 
C:\Users\stapi\AppData\Local\Temp\cciwadCd.s:900    .text.pmksa_cache_auth_create_entry:000000000000012c .L0 
C:\Users\stapi\AppData\Local\Temp\cciwadCd.s:901    .text.pmksa_cache_auth_create_entry:000000000000012c .L0 
C:\Users\stapi\AppData\Local\Temp\cciwadCd.s:905    .text.pmksa_cache_auth_create_entry:0000000000000134 .L0 
C:\Users\stapi\AppData\Local\Temp\cciwadCd.s:906    .text.pmksa_cache_auth_create_entry:0000000000000134 .L0 
C:\Users\stapi\AppData\Local\Temp\cciwadCd.s:907    .text.pmksa_cache_auth_create_entry:0000000000000134 .L0 
C:\Users\stapi\AppData\Local\Temp\cciwadCd.s:909    .text.pmksa_cache_auth_create_entry:0000000000000138 .L0 
C:\Users\stapi\AppData\Local\Temp\cciwadCd.s:923    .text.pmksa_cache_auth_create_entry:0000000000000150 .L0 
C:\Users\stapi\AppData\Local\Temp\cciwadCd.s:924    .text.pmksa_cache_auth_create_entry:0000000000000150 .L0 
C:\Users\stapi\AppData\Local\Temp\cciwadCd.s:928    .text.pmksa_cache_auth_create_entry:0000000000000156 .L0 
C:\Users\stapi\AppData\Local\Temp\cciwadCd.s:935    .text.pmksa_cache_add_okc:0000000000000000 pmksa_cache_add_okc
C:\Users\stapi\AppData\Local\Temp\cciwadCd.s:938    .text.pmksa_cache_add_okc:0000000000000000 .L0 
C:\Users\stapi\AppData\Local\Temp\cciwadCd.s:940    .text.pmksa_cache_add_okc:0000000000000000 .L0 
C:\Users\stapi\AppData\Local\Temp\cciwadCd.s:941    .text.pmksa_cache_add_okc:0000000000000008 .L0 
C:\Users\stapi\AppData\Local\Temp\cciwadCd.s:942    .text.pmksa_cache_add_okc:0000000000000008 .L0 
C:\Users\stapi\AppData\Local\Temp\cciwadCd.s:943    .text.pmksa_cache_add_okc:0000000000000008 .L0 
C:\Users\stapi\AppData\Local\Temp\cciwadCd.s:944    .text.pmksa_cache_add_okc:0000000000000008 .L0 
C:\Users\stapi\AppData\Local\Temp\cciwadCd.s:945    .text.pmksa_cache_add_okc:0000000000000008 .L0 
C:\Users\stapi\AppData\Local\Temp\cciwadCd.s:947    .text.pmksa_cache_add_okc:0000000000000008 .L0 
C:\Users\stapi\AppData\Local\Temp\cciwadCd.s:948    .text.pmksa_cache_add_okc:0000000000000008 .L0 
C:\Users\stapi\AppData\Local\Temp\cciwadCd.s:949    .text.pmksa_cache_add_okc:0000000000000008 .L0 
C:\Users\stapi\AppData\Local\Temp\cciwadCd.s:950    .text.pmksa_cache_add_okc:000000000000000a .L0 
C:\Users\stapi\AppData\Local\Temp\cciwadCd.s:952    .text.pmksa_cache_add_okc:000000000000000a .L0 
C:\Users\stapi\AppData\Local\Temp\cciwadCd.s:954    .text.pmksa_cache_add_okc:000000000000000c .L0 
C:\Users\stapi\AppData\Local\Temp\cciwadCd.s:957    .text.pmksa_cache_add_okc:0000000000000010 .L0 
C:\Users\stapi\AppData\Local\Temp\cciwadCd.s:960    .text.pmksa_cache_add_okc:0000000000000014 .L0 
C:\Users\stapi\AppData\Local\Temp\cciwadCd.s:965    .text.pmksa_cache_add_okc:000000000000001e .L0 
C:\Users\stapi\AppData\Local\Temp\cciwadCd.s:966    .text.pmksa_cache_add_okc:000000000000001e .L0 
C:\Users\stapi\AppData\Local\Temp\cciwadCd.s:968    .text.pmksa_cache_add_okc:0000000000000020 .L0 
C:\Users\stapi\AppData\Local\Temp\cciwadCd.s:974    .text.pmksa_cache_add_okc:000000000000002e .L0 
C:\Users\stapi\AppData\Local\Temp\cciwadCd.s:980    .text.pmksa_cache_add_okc:0000000000000040 .L0 
C:\Users\stapi\AppData\Local\Temp\cciwadCd.s:981    .text.pmksa_cache_add_okc:0000000000000040 .L0 
C:\Users\stapi\AppData\Local\Temp\cciwadCd.s:983    .text.pmksa_cache_add_okc:0000000000000042 .L0 
C:\Users\stapi\AppData\Local\Temp\cciwadCd.s:986    .text.pmksa_cache_add_okc:0000000000000048 .L0 
C:\Users\stapi\AppData\Local\Temp\cciwadCd.s:988    .text.pmksa_cache_add_okc:000000000000004a .L0 
C:\Users\stapi\AppData\Local\Temp\cciwadCd.s:989    .text.pmksa_cache_add_okc:000000000000004a .L0 
C:\Users\stapi\AppData\Local\Temp\cciwadCd.s:991    .text.pmksa_cache_add_okc:000000000000004c .L0 
C:\Users\stapi\AppData\Local\Temp\cciwadCd.s:993    .text.pmksa_cache_add_okc:0000000000000050 .L0 
C:\Users\stapi\AppData\Local\Temp\cciwadCd.s:995    .text.pmksa_cache_add_okc:0000000000000052 .L0 
C:\Users\stapi\AppData\Local\Temp\cciwadCd.s:996    .text.pmksa_cache_add_okc:0000000000000052 .L0 
C:\Users\stapi\AppData\Local\Temp\cciwadCd.s:998    .text.pmksa_cache_add_okc:0000000000000054 .L0 
C:\Users\stapi\AppData\Local\Temp\cciwadCd.s:1000   .text.pmksa_cache_add_okc:0000000000000056 .L0 
C:\Users\stapi\AppData\Local\Temp\cciwadCd.s:1003   .text.pmksa_cache_add_okc:000000000000005e .L0 
C:\Users\stapi\AppData\Local\Temp\cciwadCd.s:1004   .text.pmksa_cache_add_okc:000000000000005e .L0 
C:\Users\stapi\AppData\Local\Temp\cciwadCd.s:1007   .text.pmksa_cache_add_okc:0000000000000064 .L0 
C:\Users\stapi\AppData\Local\Temp\cciwadCd.s:1008   .text.pmksa_cache_add_okc:0000000000000064 .L0 
C:\Users\stapi\AppData\Local\Temp\cciwadCd.s:1011   .text.pmksa_cache_add_okc:0000000000000068 .L0 
C:\Users\stapi\AppData\Local\Temp\cciwadCd.s:1012   .text.pmksa_cache_add_okc:0000000000000068 .L0 
C:\Users\stapi\AppData\Local\Temp\cciwadCd.s:1016   .text.pmksa_cache_add_okc:0000000000000072 .L0 
C:\Users\stapi\AppData\Local\Temp\cciwadCd.s:1018   .text.pmksa_cache_add_okc:0000000000000074 .L0 
C:\Users\stapi\AppData\Local\Temp\cciwadCd.s:1019   .text.pmksa_cache_add_okc:0000000000000074 .L0 
C:\Users\stapi\AppData\Local\Temp\cciwadCd.s:1021   .text.pmksa_cache_add_okc:0000000000000076 .L0 
C:\Users\stapi\AppData\Local\Temp\cciwadCd.s:1022   .text.pmksa_cache_add_okc:0000000000000076 .L0 
C:\Users\stapi\AppData\Local\Temp\cciwadCd.s:1024   .text.pmksa_cache_add_okc:0000000000000078 .L0 
C:\Users\stapi\AppData\Local\Temp\cciwadCd.s:1026   .text.pmksa_cache_add_okc:000000000000007a .L0 
C:\Users\stapi\AppData\Local\Temp\cciwadCd.s:1028   .text.pmksa_cache_add_okc:000000000000007c .L0 
C:\Users\stapi\AppData\Local\Temp\cciwadCd.s:1033   .text.pmksa_cache_add_okc:0000000000000086 .L0 
C:\Users\stapi\AppData\Local\Temp\cciwadCd.s:1034   .text.pmksa_cache_add_okc:0000000000000086 .L0 
C:\Users\stapi\AppData\Local\Temp\cciwadCd.s:1036   .text.pmksa_cache_add_okc:0000000000000088 .L0 
C:\Users\stapi\AppData\Local\Temp\cciwadCd.s:1038   .text.pmksa_cache_add_okc:000000000000008a .L0 
C:\Users\stapi\AppData\Local\Temp\cciwadCd.s:1039   .text.pmksa_cache_add_okc:000000000000008a .L0 
C:\Users\stapi\AppData\Local\Temp\cciwadCd.s:1042   .text.pmksa_cache_add_okc:0000000000000092 .L0 
C:\Users\stapi\AppData\Local\Temp\cciwadCd.s:1045   .text.pmksa_cache_add_okc:0000000000000094 .L0 
C:\Users\stapi\AppData\Local\Temp\cciwadCd.s:1046   .text.pmksa_cache_add_okc:0000000000000094 .L0 
C:\Users\stapi\AppData\Local\Temp\cciwadCd.s:1048   .text.pmksa_cache_add_okc:0000000000000098 .L0 
C:\Users\stapi\AppData\Local\Temp\cciwadCd.s:1050   .text.pmksa_cache_add_okc:000000000000009c .L0 
C:\Users\stapi\AppData\Local\Temp\cciwadCd.s:1051   .text.pmksa_cache_add_okc:000000000000009c .L0 
C:\Users\stapi\AppData\Local\Temp\cciwadCd.s:1054   .text.pmksa_cache_add_okc:00000000000000a2 .L0 
C:\Users\stapi\AppData\Local\Temp\cciwadCd.s:1055   .text.pmksa_cache_add_okc:00000000000000a2 .L0 
C:\Users\stapi\AppData\Local\Temp\cciwadCd.s:1059   .text.pmksa_cache_add_okc:00000000000000ae .L0 
C:\Users\stapi\AppData\Local\Temp\cciwadCd.s:1061   .text.pmksa_cache_add_okc:00000000000000b2 .L0 
C:\Users\stapi\AppData\Local\Temp\cciwadCd.s:1062   .text.pmksa_cache_add_okc:00000000000000b2 .L0 
C:\Users\stapi\AppData\Local\Temp\cciwadCd.s:1064   .text.pmksa_cache_add_okc:00000000000000b4 .L0 
C:\Users\stapi\AppData\Local\Temp\cciwadCd.s:1065   .text.pmksa_cache_add_okc:00000000000000b4 .L0 
C:\Users\stapi\AppData\Local\Temp\cciwadCd.s:1071   .text.pmksa_cache_add_okc:00000000000000c4 .L0 
C:\Users\stapi\AppData\Local\Temp\cciwadCd.s:1072   .text.pmksa_cache_add_okc:00000000000000c4 .L0 
C:\Users\stapi\AppData\Local\Temp\cciwadCd.s:1075   .text.pmksa_cache_add_okc:00000000000000ca .L0 
C:\Users\stapi\AppData\Local\Temp\cciwadCd.s:1081   .text.pmksa_cache_add_okc:00000000000000d6 .L0 
C:\Users\stapi\AppData\Local\Temp\cciwadCd.s:1082   .text.pmksa_cache_add_okc:00000000000000d6 .L0 
C:\Users\stapi\AppData\Local\Temp\cciwadCd.s:1084   .text.pmksa_cache_add_okc:00000000000000da .L0 
C:\Users\stapi\AppData\Local\Temp\cciwadCd.s:1085   .text.pmksa_cache_add_okc:00000000000000da .L0 
C:\Users\stapi\AppData\Local\Temp\cciwadCd.s:1088   .text.pmksa_cache_add_okc:00000000000000e2 .L0 
C:\Users\stapi\AppData\Local\Temp\cciwadCd.s:1089   .text.pmksa_cache_add_okc:00000000000000e2 .L0 
C:\Users\stapi\AppData\Local\Temp\cciwadCd.s:1090   .text.pmksa_cache_add_okc:00000000000000e2 .L0 
C:\Users\stapi\AppData\Local\Temp\cciwadCd.s:1091   .text.pmksa_cache_add_okc:00000000000000e2 .L0 
C:\Users\stapi\AppData\Local\Temp\cciwadCd.s:1092   .text.pmksa_cache_add_okc:00000000000000e2 .L0 
C:\Users\stapi\AppData\Local\Temp\cciwadCd.s:1095   .text.pmksa_cache_add_okc:00000000000000e2 .L0 
C:\Users\stapi\AppData\Local\Temp\cciwadCd.s:1097   .text.pmksa_cache_add_okc:00000000000000e2 .L0 
C:\Users\stapi\AppData\Local\Temp\cciwadCd.s:1098   .text.pmksa_cache_add_okc:00000000000000e2 .L0 
C:\Users\stapi\AppData\Local\Temp\cciwadCd.s:1100   .text.pmksa_cache_add_okc:00000000000000e8 .L0 
C:\Users\stapi\AppData\Local\Temp\cciwadCd.s:1107   .text.pmksa_cache_auth_deinit:0000000000000000 pmksa_cache_auth_deinit
C:\Users\stapi\AppData\Local\Temp\cciwadCd.s:1110   .text.pmksa_cache_auth_deinit:0000000000000000 .L0 
C:\Users\stapi\AppData\Local\Temp\cciwadCd.s:1112   .text.pmksa_cache_auth_deinit:0000000000000000 .L0 
C:\Users\stapi\AppData\Local\Temp\cciwadCd.s:1113   .text.pmksa_cache_auth_deinit:0000000000000000 .L0 
C:\Users\stapi\AppData\Local\Temp\cciwadCd.s:1114   .text.pmksa_cache_auth_deinit:0000000000000000 .L0 
C:\Users\stapi\AppData\Local\Temp\cciwadCd.s:1115   .text.pmksa_cache_auth_deinit:0000000000000000 .L0 
C:\Users\stapi\AppData\Local\Temp\cciwadCd.s:1116   .text.pmksa_cache_auth_deinit:0000000000000000 .L0 
C:\Users\stapi\AppData\Local\Temp\cciwadCd.s:1118   .text.pmksa_cache_auth_deinit:0000000000000002 .L0 
C:\Users\stapi\AppData\Local\Temp\cciwadCd.s:1119   .text.pmksa_cache_auth_deinit:000000000000000a .L0 
C:\Users\stapi\AppData\Local\Temp\cciwadCd.s:1120   .text.pmksa_cache_auth_deinit:000000000000000a .L0 
C:\Users\stapi\AppData\Local\Temp\cciwadCd.s:1121   .text.pmksa_cache_auth_deinit:000000000000000a .L0 
C:\Users\stapi\AppData\Local\Temp\cciwadCd.s:1122   .text.pmksa_cache_auth_deinit:000000000000000a .L0 
C:\Users\stapi\AppData\Local\Temp\cciwadCd.s:1125   .text.pmksa_cache_auth_deinit:000000000000000c .L0 
C:\Users\stapi\AppData\Local\Temp\cciwadCd.s:1126   .text.pmksa_cache_auth_deinit:000000000000000c .L0 
C:\Users\stapi\AppData\Local\Temp\cciwadCd.s:1130   .text.pmksa_cache_auth_deinit:0000000000000010 .L0 
C:\Users\stapi\AppData\Local\Temp\cciwadCd.s:1131   .text.pmksa_cache_auth_deinit:0000000000000010 .L0 
C:\Users\stapi\AppData\Local\Temp\cciwadCd.s:1133   .text.pmksa_cache_auth_deinit:0000000000000012 .L0 
C:\Users\stapi\AppData\Local\Temp\cciwadCd.s:1141   .text.pmksa_cache_auth_deinit:0000000000000026 .L0 
C:\Users\stapi\AppData\Local\Temp\cciwadCd.s:1142   .text.pmksa_cache_auth_deinit:0000000000000026 .L0 
C:\Users\stapi\AppData\Local\Temp\cciwadCd.s:1145   .text.pmksa_cache_auth_deinit:000000000000002c .L0 
C:\Users\stapi\AppData\Local\Temp\cciwadCd.s:1147   .text.pmksa_cache_auth_deinit:0000000000000030 .L0 
C:\Users\stapi\AppData\Local\Temp\cciwadCd.s:1148   .text.pmksa_cache_auth_deinit:0000000000000030 .L0 
C:\Users\stapi\AppData\Local\Temp\cciwadCd.s:1151   .text.pmksa_cache_auth_deinit:0000000000000034 .L0 
C:\Users\stapi\AppData\Local\Temp\cciwadCd.s:1152   .text.pmksa_cache_auth_deinit:0000000000000034 .L0 
C:\Users\stapi\AppData\Local\Temp\cciwadCd.s:1153   .text.pmksa_cache_auth_deinit:0000000000000034 .L0 
C:\Users\stapi\AppData\Local\Temp\cciwadCd.s:1157   .text.pmksa_cache_auth_deinit:000000000000003e .L0 
C:\Users\stapi\AppData\Local\Temp\cciwadCd.s:1161   .text.pmksa_cache_auth_deinit:0000000000000048 .L0 
C:\Users\stapi\AppData\Local\Temp\cciwadCd.s:1162   .text.pmksa_cache_auth_deinit:0000000000000050 .L0 
C:\Users\stapi\AppData\Local\Temp\cciwadCd.s:1163   .text.pmksa_cache_auth_deinit:0000000000000050 .L0 
C:\Users\stapi\AppData\Local\Temp\cciwadCd.s:1164   .text.pmksa_cache_auth_deinit:0000000000000050 .L0 
C:\Users\stapi\AppData\Local\Temp\cciwadCd.s:1165   .text.pmksa_cache_auth_deinit:0000000000000050 .L0 
C:\Users\stapi\AppData\Local\Temp\cciwadCd.s:1166   .text.pmksa_cache_auth_deinit:0000000000000050 .L0 
C:\Users\stapi\AppData\Local\Temp\cciwadCd.s:1169   .text.pmksa_cache_auth_deinit:0000000000000050 .L0 
C:\Users\stapi\AppData\Local\Temp\cciwadCd.s:1171   .text.pmksa_cache_auth_deinit:0000000000000050 .L0 
C:\Users\stapi\AppData\Local\Temp\cciwadCd.s:1172   .text.pmksa_cache_auth_deinit:0000000000000050 .L0 
C:\Users\stapi\AppData\Local\Temp\cciwadCd.s:1173   .text.pmksa_cache_auth_deinit:0000000000000050 .L0 
C:\Users\stapi\AppData\Local\Temp\cciwadCd.s:1176   .text.pmksa_cache_auth_deinit:0000000000000052 .L0 
C:\Users\stapi\AppData\Local\Temp\cciwadCd.s:1179   .text.pmksa_cache_auth_deinit:000000000000005a .L0 
C:\Users\stapi\AppData\Local\Temp\cciwadCd.s:1183   .text.pmksa_cache_auth_deinit:000000000000005e .L0 
C:\Users\stapi\AppData\Local\Temp\cciwadCd.s:1184   .text.pmksa_cache_auth_deinit:000000000000005e .L0 
C:\Users\stapi\AppData\Local\Temp\cciwadCd.s:1185   .text.pmksa_cache_auth_deinit:000000000000005e .L0 
C:\Users\stapi\AppData\Local\Temp\cciwadCd.s:1186   .text.pmksa_cache_auth_deinit:000000000000005e .L0 
C:\Users\stapi\AppData\Local\Temp\cciwadCd.s:1188   .text.pmksa_cache_auth_deinit:0000000000000060 .L0 
C:\Users\stapi\AppData\Local\Temp\cciwadCd.s:1195   .text.pmksa_cache_auth_get:0000000000000000 pmksa_cache_auth_get
C:\Users\stapi\AppData\Local\Temp\cciwadCd.s:1198   .text.pmksa_cache_auth_get:0000000000000000 .L0 
C:\Users\stapi\AppData\Local\Temp\cciwadCd.s:1200   .text.pmksa_cache_auth_get:0000000000000000 .L0 
C:\Users\stapi\AppData\Local\Temp\cciwadCd.s:1201   .text.pmksa_cache_auth_get:0000000000000008 .L0 
C:\Users\stapi\AppData\Local\Temp\cciwadCd.s:1202   .text.pmksa_cache_auth_get:0000000000000008 .L0 
C:\Users\stapi\AppData\Local\Temp\cciwadCd.s:1203   .text.pmksa_cache_auth_get:0000000000000008 .L0 
C:\Users\stapi\AppData\Local\Temp\cciwadCd.s:1204   .text.pmksa_cache_auth_get:0000000000000008 .L0 
C:\Users\stapi\AppData\Local\Temp\cciwadCd.s:1205   .text.pmksa_cache_auth_get:0000000000000008 .L0 
C:\Users\stapi\AppData\Local\Temp\cciwadCd.s:1207   .text.pmksa_cache_auth_get:0000000000000008 .L0 
C:\Users\stapi\AppData\Local\Temp\cciwadCd.s:1208   .text.pmksa_cache_auth_get:0000000000000008 .L0 
C:\Users\stapi\AppData\Local\Temp\cciwadCd.s:1209   .text.pmksa_cache_auth_get:0000000000000008 .L0 
C:\Users\stapi\AppData\Local\Temp\cciwadCd.s:1211   .text.pmksa_cache_auth_get:000000000000000a .L0 
C:\Users\stapi\AppData\Local\Temp\cciwadCd.s:1213   .text.pmksa_cache_auth_get:000000000000000c .L0 
C:\Users\stapi\AppData\Local\Temp\cciwadCd.s:1216   .text.pmksa_cache_auth_get:0000000000000012 .L0 
C:\Users\stapi\AppData\Local\Temp\cciwadCd.s:1217   .text.pmksa_cache_auth_get:0000000000000012 .L0 
C:\Users\stapi\AppData\Local\Temp\cciwadCd.s:1219   .text.pmksa_cache_auth_get:0000000000000016 .L0 
C:\Users\stapi\AppData\Local\Temp\cciwadCd.s:1225   .text.pmksa_cache_auth_get:000000000000001c .L0 
C:\Users\stapi\AppData\Local\Temp\cciwadCd.s:1226   .text.pmksa_cache_auth_get:000000000000001c .L0 
C:\Users\stapi\AppData\Local\Temp\cciwadCd.s:1230   .text.pmksa_cache_auth_get:000000000000001e .L0 
C:\Users\stapi\AppData\Local\Temp\cciwadCd.s:1236   .text.pmksa_cache_auth_get:0000000000000022 .L0 
C:\Users\stapi\AppData\Local\Temp\cciwadCd.s:1237   .text.pmksa_cache_auth_get:0000000000000022 .L0 
C:\Users\stapi\AppData\Local\Temp\cciwadCd.s:1240   .text.pmksa_cache_auth_get:0000000000000024 .L0 
C:\Users\stapi\AppData\Local\Temp\cciwadCd.s:1246   .text.pmksa_cache_auth_get:0000000000000034 .L0 
C:\Users\stapi\AppData\Local\Temp\cciwadCd.s:1250   .text.pmksa_cache_auth_get:0000000000000036 .L0 
C:\Users\stapi\AppData\Local\Temp\cciwadCd.s:1252   .text.pmksa_cache_auth_get:0000000000000040 .L0 
C:\Users\stapi\AppData\Local\Temp\cciwadCd.s:1253   .text.pmksa_cache_auth_get:0000000000000040 .L0 
C:\Users\stapi\AppData\Local\Temp\cciwadCd.s:1254   .text.pmksa_cache_auth_get:0000000000000040 .L0 
C:\Users\stapi\AppData\Local\Temp\cciwadCd.s:1255   .text.pmksa_cache_auth_get:0000000000000040 .L0 
C:\Users\stapi\AppData\Local\Temp\cciwadCd.s:1256   .text.pmksa_cache_auth_get:0000000000000040 .L0 
C:\Users\stapi\AppData\Local\Temp\cciwadCd.s:1257   .text.pmksa_cache_auth_get:0000000000000040 .L0 
C:\Users\stapi\AppData\Local\Temp\cciwadCd.s:1260   .text.pmksa_cache_auth_get:0000000000000040 .L0 
C:\Users\stapi\AppData\Local\Temp\cciwadCd.s:1262   .text.pmksa_cache_auth_get:0000000000000040 .L0 
C:\Users\stapi\AppData\Local\Temp\cciwadCd.s:1268   .text.pmksa_cache_auth_get:0000000000000050 .L0 
C:\Users\stapi\AppData\Local\Temp\cciwadCd.s:1271   .text.pmksa_cache_auth_get:0000000000000052 .L0 
C:\Users\stapi\AppData\Local\Temp\cciwadCd.s:1272   .text.pmksa_cache_auth_get:0000000000000052 .L0 
C:\Users\stapi\AppData\Local\Temp\cciwadCd.s:1278   .text.pmksa_cache_auth_get:0000000000000056 .L0 
C:\Users\stapi\AppData\Local\Temp\cciwadCd.s:1279   .text.pmksa_cache_auth_get:0000000000000056 .L0 
C:\Users\stapi\AppData\Local\Temp\cciwadCd.s:1283   .text.pmksa_cache_auth_get:000000000000005a .L0 
C:\Users\stapi\AppData\Local\Temp\cciwadCd.s:1284   .text.pmksa_cache_auth_get:000000000000005a .L0 
C:\Users\stapi\AppData\Local\Temp\cciwadCd.s:1286   .text.pmksa_cache_auth_get:000000000000005c .L0 
C:\Users\stapi\AppData\Local\Temp\cciwadCd.s:1287   .text.pmksa_cache_auth_get:000000000000005c .L0 
C:\Users\stapi\AppData\Local\Temp\cciwadCd.s:1289   .text.pmksa_cache_auth_get:000000000000005e .L0 
C:\Users\stapi\AppData\Local\Temp\cciwadCd.s:1295   .text.pmksa_cache_auth_get:000000000000006e .L0 
C:\Users\stapi\AppData\Local\Temp\cciwadCd.s:1297   .text.pmksa_cache_auth_get:0000000000000070 .L0 
C:\Users\stapi\AppData\Local\Temp\cciwadCd.s:1298   .text.pmksa_cache_auth_get:0000000000000070 .L0 
C:\Users\stapi\AppData\Local\Temp\cciwadCd.s:1301   .text.pmksa_cache_auth_get:0000000000000074 .L0 
C:\Users\stapi\AppData\Local\Temp\cciwadCd.s:1312   .text.pmksa_cache_auth_add_entry:0000000000000000 pmksa_cache_auth_add_entry
C:\Users\stapi\AppData\Local\Temp\cciwadCd.s:1315   .text.pmksa_cache_auth_add_entry:0000000000000000 .L0 
C:\Users\stapi\AppData\Local\Temp\cciwadCd.s:1317   .text.pmksa_cache_auth_add_entry:0000000000000000 .L0 
C:\Users\stapi\AppData\Local\Temp\cciwadCd.s:1318   .text.pmksa_cache_auth_add_entry:0000000000000000 .L0 
C:\Users\stapi\AppData\Local\Temp\cciwadCd.s:1319   .text.pmksa_cache_auth_add_entry:0000000000000000 .L0 
C:\Users\stapi\AppData\Local\Temp\cciwadCd.s:1320   .text.pmksa_cache_auth_add_entry:0000000000000000 .L0 
C:\Users\stapi\AppData\Local\Temp\cciwadCd.s:1322   .text.pmksa_cache_auth_add_entry:0000000000000002 .L0 
C:\Users\stapi\AppData\Local\Temp\cciwadCd.s:1323   .text.pmksa_cache_auth_add_entry:000000000000000a .L0 
C:\Users\stapi\AppData\Local\Temp\cciwadCd.s:1324   .text.pmksa_cache_auth_add_entry:000000000000000a .L0 
C:\Users\stapi\AppData\Local\Temp\cciwadCd.s:1325   .text.pmksa_cache_auth_add_entry:000000000000000a .L0 
C:\Users\stapi\AppData\Local\Temp\cciwadCd.s:1326   .text.pmksa_cache_auth_add_entry:000000000000000a .L0 
C:\Users\stapi\AppData\Local\Temp\cciwadCd.s:1329   .text.pmksa_cache_auth_add_entry:000000000000000c .L0 
C:\Users\stapi\AppData\Local\Temp\cciwadCd.s:1330   .text.pmksa_cache_auth_add_entry:000000000000000c .L0 
C:\Users\stapi\AppData\Local\Temp\cciwadCd.s:1339   .text.pmksa_cache_auth_add_entry:000000000000001e .L0 
C:\Users\stapi\AppData\Local\Temp\cciwadCd.s:1340   .text.pmksa_cache_auth_add_entry:000000000000001e .L0 
C:\Users\stapi\AppData\Local\Temp\cciwadCd.s:1342   .text.pmksa_cache_auth_add_entry:0000000000000020 .L0 
C:\Users\stapi\AppData\Local\Temp\cciwadCd.s:1348   .text.pmksa_cache_auth_add_entry:000000000000002a .L0 
C:\Users\stapi\AppData\Local\Temp\cciwadCd.s:1349   .text.pmksa_cache_auth_add_entry:000000000000002a .L0 
C:\Users\stapi\AppData\Local\Temp\cciwadCd.s:1353   .text.pmksa_cache_auth_add_entry:0000000000000036 .L0 
C:\Users\stapi\AppData\Local\Temp\cciwadCd.s:1355   .text.pmksa_cache_auth_add_entry:000000000000003a .L0 
C:\Users\stapi\AppData\Local\Temp\cciwadCd.s:1357   .text.pmksa_cache_auth_add_entry:000000000000003c .L0 
C:\Users\stapi\AppData\Local\Temp\cciwadCd.s:1369   .text.pmksa_cache_auth_add_entry:0000000000000066 .L0 
C:\Users\stapi\AppData\Local\Temp\cciwadCd.s:1375   .text.pmksa_cache_auth_add_entry:0000000000000074 .L0 
C:\Users\stapi\AppData\Local\Temp\cciwadCd.s:1380   .text.pmksa_cache_auth_add_entry:0000000000000080 .L0 
C:\Users\stapi\AppData\Local\Temp\cciwadCd.s:1381   .text.pmksa_cache_auth_add_entry:0000000000000080 .L0 
C:\Users\stapi\AppData\Local\Temp\cciwadCd.s:1383   .text.pmksa_cache_auth_add_entry:0000000000000082 .L0 
C:\Users\stapi\AppData\Local\Temp\cciwadCd.s:1384   .text.pmksa_cache_auth_add_entry:000000000000008a .L0 
C:\Users\stapi\AppData\Local\Temp\cciwadCd.s:1385   .text.pmksa_cache_auth_add_entry:000000000000008a .L0 
C:\Users\stapi\AppData\Local\Temp\cciwadCd.s:1386   .text.pmksa_cache_auth_add_entry:000000000000008a .L0 
C:\Users\stapi\AppData\Local\Temp\cciwadCd.s:1387   .text.pmksa_cache_auth_add_entry:000000000000008a .L0 
C:\Users\stapi\AppData\Local\Temp\cciwadCd.s:1391   .text.pmksa_cache_auth_add_entry:000000000000008a .L0 
C:\Users\stapi\AppData\Local\Temp\cciwadCd.s:1394   .text.pmksa_cache_auth_add_entry:000000000000008c .L0 
C:\Users\stapi\AppData\Local\Temp\cciwadCd.s:1395   .text.pmksa_cache_auth_add_entry:000000000000008e .L0 
C:\Users\stapi\AppData\Local\Temp\cciwadCd.s:1402   .text.pmksa_cache_auth_add:0000000000000000 pmksa_cache_auth_add
C:\Users\stapi\AppData\Local\Temp\cciwadCd.s:1405   .text.pmksa_cache_auth_add:0000000000000000 .L0 
C:\Users\stapi\AppData\Local\Temp\cciwadCd.s:1407   .text.pmksa_cache_auth_add:0000000000000000 .L0 
C:\Users\stapi\AppData\Local\Temp\cciwadCd.s:1408   .text.pmksa_cache_auth_add:0000000000000008 .L0 
C:\Users\stapi\AppData\Local\Temp\cciwadCd.s:1409   .text.pmksa_cache_auth_add:0000000000000008 .L0 
C:\Users\stapi\AppData\Local\Temp\cciwadCd.s:1410   .text.pmksa_cache_auth_add:0000000000000008 .L0 
C:\Users\stapi\AppData\Local\Temp\cciwadCd.s:1411   .text.pmksa_cache_auth_add:0000000000000008 .L0 
C:\Users\stapi\AppData\Local\Temp\cciwadCd.s:1413   .text.pmksa_cache_auth_add:0000000000000008 .L0 
C:\Users\stapi\AppData\Local\Temp\cciwadCd.s:1414   .text.pmksa_cache_auth_add:0000000000000008 .L0 
C:\Users\stapi\AppData\Local\Temp\cciwadCd.s:1415   .text.pmksa_cache_auth_add:0000000000000008 .L0 
C:\Users\stapi\AppData\Local\Temp\cciwadCd.s:1416   .text.pmksa_cache_auth_add:000000000000000a .L0 
C:\Users\stapi\AppData\Local\Temp\cciwadCd.s:1418   .text.pmksa_cache_auth_add:000000000000000a .L0 
C:\Users\stapi\AppData\Local\Temp\cciwadCd.s:1434   .text.pmksa_cache_auth_add:000000000000001a .L0 
C:\Users\stapi\AppData\Local\Temp\cciwadCd.s:1445   .text.pmksa_cache_auth_add:000000000000002e .L0 
C:\Users\stapi\AppData\Local\Temp\cciwadCd.s:1446   .text.pmksa_cache_auth_add:000000000000002e .L0 
C:\Users\stapi\AppData\Local\Temp\cciwadCd.s:1451   .text.pmksa_cache_auth_add:000000000000003a .L0 
C:\Users\stapi\AppData\Local\Temp\cciwadCd.s:1453   .text.pmksa_cache_auth_add:000000000000003e .L0 
C:\Users\stapi\AppData\Local\Temp\cciwadCd.s:1457   .text.pmksa_cache_auth_add:0000000000000040 .L0 
C:\Users\stapi\AppData\Local\Temp\cciwadCd.s:1459   .text.pmksa_cache_auth_add:0000000000000044 .L0 
C:\Users\stapi\AppData\Local\Temp\cciwadCd.s:1462   .text.pmksa_cache_auth_add:000000000000004c .L0 
C:\Users\stapi\AppData\Local\Temp\cciwadCd.s:1463   .text.pmksa_cache_auth_add:000000000000004c .L0 
C:\Users\stapi\AppData\Local\Temp\cciwadCd.s:1464   .text.pmksa_cache_auth_add:000000000000004c .L0 
C:\Users\stapi\AppData\Local\Temp\cciwadCd.s:1465   .text.pmksa_cache_auth_add:000000000000004c .L0 
C:\Users\stapi\AppData\Local\Temp\cciwadCd.s:1466   .text.pmksa_cache_auth_add:000000000000004c .L0 
C:\Users\stapi\AppData\Local\Temp\cciwadCd.s:1473   .text.pmksa_cache_get_okc:0000000000000000 pmksa_cache_get_okc
C:\Users\stapi\AppData\Local\Temp\cciwadCd.s:1476   .text.pmksa_cache_get_okc:0000000000000000 .L0 
C:\Users\stapi\AppData\Local\Temp\cciwadCd.s:1478   .text.pmksa_cache_get_okc:0000000000000000 .L0 
C:\Users\stapi\AppData\Local\Temp\cciwadCd.s:1479   .text.pmksa_cache_get_okc:0000000000000008 .L0 
C:\Users\stapi\AppData\Local\Temp\cciwadCd.s:1480   .text.pmksa_cache_get_okc:0000000000000008 .L0 
C:\Users\stapi\AppData\Local\Temp\cciwadCd.s:1481   .text.pmksa_cache_get_okc:0000000000000008 .L0 
C:\Users\stapi\AppData\Local\Temp\cciwadCd.s:1482   .text.pmksa_cache_get_okc:0000000000000008 .L0 
C:\Users\stapi\AppData\Local\Temp\cciwadCd.s:1483   .text.pmksa_cache_get_okc:0000000000000008 .L0 
C:\Users\stapi\AppData\Local\Temp\cciwadCd.s:1484   .text.pmksa_cache_get_okc:0000000000000008 .L0 
C:\Users\stapi\AppData\Local\Temp\cciwadCd.s:1485   .text.pmksa_cache_get_okc:0000000000000008 .L0 
C:\Users\stapi\AppData\Local\Temp\cciwadCd.s:1487   .text.pmksa_cache_get_okc:0000000000000008 .L0 
C:\Users\stapi\AppData\Local\Temp\cciwadCd.s:1488   .text.pmksa_cache_get_okc:0000000000000008 .L0 
C:\Users\stapi\AppData\Local\Temp\cciwadCd.s:1489   .text.pmksa_cache_get_okc:0000000000000008 .L0 
C:\Users\stapi\AppData\Local\Temp\cciwadCd.s:1490   .text.pmksa_cache_get_okc:0000000000000008 .L0 
C:\Users\stapi\AppData\Local\Temp\cciwadCd.s:1493   .text.pmksa_cache_get_okc:000000000000000c .L0 
C:\Users\stapi\AppData\Local\Temp\cciwadCd.s:1495   .text.pmksa_cache_get_okc:0000000000000010 .L0 
C:\Users\stapi\AppData\Local\Temp\cciwadCd.s:1496   .text.pmksa_cache_get_okc:0000000000000012 .L0 
C:\Users\stapi\AppData\Local\Temp\cciwadCd.s:1498   .text.pmksa_cache_get_okc:0000000000000012 .L0 
C:\Users\stapi\AppData\Local\Temp\cciwadCd.s:1502   .text.pmksa_cache_get_okc:0000000000000018 .L0 
C:\Users\stapi\AppData\Local\Temp\cciwadCd.s:1506   .text.pmksa_cache_get_okc:000000000000001c .L0 
C:\Users\stapi\AppData\Local\Temp\cciwadCd.s:1507   .text.pmksa_cache_get_okc:000000000000001c .L0 
C:\Users\stapi\AppData\Local\Temp\cciwadCd.s:1509   .text.pmksa_cache_get_okc:000000000000001e .L0 
C:\Users\stapi\AppData\Local\Temp\cciwadCd.s:1510   .text.pmksa_cache_get_okc:000000000000001e .L0 
C:\Users\stapi\AppData\Local\Temp\cciwadCd.s:1516   .text.pmksa_cache_get_okc:000000000000002e .L0 
C:\Users\stapi\AppData\Local\Temp\cciwadCd.s:1519   .text.pmksa_cache_get_okc:0000000000000030 .L0 
C:\Users\stapi\AppData\Local\Temp\cciwadCd.s:1520   .text.pmksa_cache_get_okc:0000000000000030 .L0 
C:\Users\stapi\AppData\Local\Temp\cciwadCd.s:1525   .text.pmksa_cache_get_okc:0000000000000034 .L0 
C:\Users\stapi\AppData\Local\Temp\cciwadCd.s:1526   .text.pmksa_cache_get_okc:0000000000000034 .L0 
C:\Users\stapi\AppData\Local\Temp\cciwadCd.s:1533   .text.pmksa_cache_get_okc:0000000000000036 .L0 
C:\Users\stapi\AppData\Local\Temp\cciwadCd.s:1534   .text.pmksa_cache_get_okc:0000000000000036 .L0 
C:\Users\stapi\AppData\Local\Temp\cciwadCd.s:1535   .text.pmksa_cache_get_okc:0000000000000036 .L0 
C:\Users\stapi\AppData\Local\Temp\cciwadCd.s:1538   .text.pmksa_cache_get_okc:000000000000003c .L0 
C:\Users\stapi\AppData\Local\Temp\cciwadCd.s:1539   .text.pmksa_cache_get_okc:000000000000003c .L0 
C:\Users\stapi\AppData\Local\Temp\cciwadCd.s:1545   .text.pmksa_cache_get_okc:0000000000000044 .L0 
C:\Users\stapi\AppData\Local\Temp\cciwadCd.s:1548   .text.pmksa_cache_get_okc:000000000000004c .L0 
C:\Users\stapi\AppData\Local\Temp\cciwadCd.s:1551   .text.pmksa_cache_get_okc:000000000000004e .L0 
C:\Users\stapi\AppData\Local\Temp\cciwadCd.s:1553   .text.pmksa_cache_get_okc:0000000000000052 .L0 
C:\Users\stapi\AppData\Local\Temp\cciwadCd.s:1554   .text.pmksa_cache_get_okc:0000000000000052 .L0 
C:\Users\stapi\AppData\Local\Temp\cciwadCd.s:1556   .text.pmksa_cache_get_okc:000000000000005a .L0 
C:\Users\stapi\AppData\Local\Temp\cciwadCd.s:1557   .text.pmksa_cache_get_okc:000000000000005a .L0 
C:\Users\stapi\AppData\Local\Temp\cciwadCd.s:1558   .text.pmksa_cache_get_okc:000000000000005a .L0 
C:\Users\stapi\AppData\Local\Temp\cciwadCd.s:1559   .text.pmksa_cache_get_okc:000000000000005a .L0 
C:\Users\stapi\AppData\Local\Temp\cciwadCd.s:1560   .text.pmksa_cache_get_okc:000000000000005a .L0 
C:\Users\stapi\AppData\Local\Temp\cciwadCd.s:1561   .text.pmksa_cache_get_okc:000000000000005a .L0 
C:\Users\stapi\AppData\Local\Temp\cciwadCd.s:1562   .text.pmksa_cache_get_okc:000000000000005a .L0 
C:\Users\stapi\AppData\Local\Temp\cciwadCd.s:1564   .text.pmksa_cache_get_okc:000000000000005a .L0 
C:\Users\stapi\AppData\Local\Temp\cciwadCd.s:1566   .text.pmksa_cache_get_okc:000000000000005a .L0 
C:\Users\stapi\AppData\Local\Temp\cciwadCd.s:1574   .text.pmksa_cache_get_okc:000000000000006e .L0 
C:\Users\stapi\AppData\Local\Temp\cciwadCd.s:1575   .text.pmksa_cache_get_okc:000000000000006e .L0 
C:\Users\stapi\AppData\Local\Temp\cciwadCd.s:1579   .text.pmksa_cache_get_okc:0000000000000076 .L0 
C:\Users\stapi\AppData\Local\Temp\cciwadCd.s:1586   .text.pmksa_cache_auth_init:0000000000000000 pmksa_cache_auth_init
C:\Users\stapi\AppData\Local\Temp\cciwadCd.s:1589   .text.pmksa_cache_auth_init:0000000000000000 .L0 
C:\Users\stapi\AppData\Local\Temp\cciwadCd.s:1591   .text.pmksa_cache_auth_init:0000000000000000 .L0 
C:\Users\stapi\AppData\Local\Temp\cciwadCd.s:1592   .text.pmksa_cache_auth_init:0000000000000008 .L0 
C:\Users\stapi\AppData\Local\Temp\cciwadCd.s:1593   .text.pmksa_cache_auth_init:0000000000000008 .L0 
C:\Users\stapi\AppData\Local\Temp\cciwadCd.s:1594   .text.pmksa_cache_auth_init:0000000000000008 .L0 
C:\Users\stapi\AppData\Local\Temp\cciwadCd.s:1595   .text.pmksa_cache_auth_init:0000000000000008 .L0 
C:\Users\stapi\AppData\Local\Temp\cciwadCd.s:1597   .text.pmksa_cache_auth_init:0000000000000008 .L0 
C:\Users\stapi\AppData\Local\Temp\cciwadCd.s:1598   .text.pmksa_cache_auth_init:0000000000000008 .L0 
C:\Users\stapi\AppData\Local\Temp\cciwadCd.s:1599   .text.pmksa_cache_auth_init:0000000000000008 .L0 
C:\Users\stapi\AppData\Local\Temp\cciwadCd.s:1601   .text.pmksa_cache_auth_init:000000000000000a .L0 
C:\Users\stapi\AppData\Local\Temp\cciwadCd.s:1604   .text.pmksa_cache_auth_init:000000000000000e .L0 
C:\Users\stapi\AppData\Local\Temp\cciwadCd.s:1606   .text.pmksa_cache_auth_init:0000000000000010 .L0 
C:\Users\stapi\AppData\Local\Temp\cciwadCd.s:1609   .text.pmksa_cache_auth_init:0000000000000018 .L0 
C:\Users\stapi\AppData\Local\Temp\cciwadCd.s:1610   .text.pmksa_cache_auth_init:0000000000000018 .L0 
C:\Users\stapi\AppData\Local\Temp\cciwadCd.s:1612   .text.pmksa_cache_auth_init:000000000000001a .L0 
C:\Users\stapi\AppData\Local\Temp\cciwadCd.s:1613   .text.pmksa_cache_auth_init:000000000000001a .L0 
C:\Users\stapi\AppData\Local\Temp\cciwadCd.s:1615   .text.pmksa_cache_auth_init:000000000000001e .L0 
C:\Users\stapi\AppData\Local\Temp\cciwadCd.s:1616   .text.pmksa_cache_auth_init:000000000000001e .L0 
C:\Users\stapi\AppData\Local\Temp\cciwadCd.s:1619   .text.pmksa_cache_auth_init:0000000000000022 .L0 
C:\Users\stapi\AppData\Local\Temp\cciwadCd.s:1620   .text.pmksa_cache_auth_init:0000000000000022 .L0 
C:\Users\stapi\AppData\Local\Temp\cciwadCd.s:1621   .text.pmksa_cache_auth_init:000000000000002a .L0 
C:\Users\stapi\AppData\Local\Temp\cciwadCd.s:1622   .text.pmksa_cache_auth_init:000000000000002a .L0 
C:\Users\stapi\AppData\Local\Temp\cciwadCd.s:1623   .text.pmksa_cache_auth_init:000000000000002a .L0 
C:\Users\stapi\AppData\Local\Temp\cciwadCd.s:1624   .text.pmksa_cache_auth_init:000000000000002a .L0 
C:\Users\stapi\AppData\Local\Temp\cciwadCd.s:1625   .text.pmksa_cache_auth_init:000000000000002a .L0 
C:\Users\stapi\AppData\Local\Temp\cciwadCd.s:1636   .text.pmksa_cache_auth_radius_das_disconnect:0000000000000000 pmksa_cache_auth_radius_das_disconnect
C:\Users\stapi\AppData\Local\Temp\cciwadCd.s:1639   .text.pmksa_cache_auth_radius_das_disconnect:0000000000000000 .L0 
C:\Users\stapi\AppData\Local\Temp\cciwadCd.s:1641   .text.pmksa_cache_auth_radius_das_disconnect:0000000000000000 .L0 
C:\Users\stapi\AppData\Local\Temp\cciwadCd.s:1642   .text.pmksa_cache_auth_radius_das_disconnect:0000000000000000 .L0 
C:\Users\stapi\AppData\Local\Temp\cciwadCd.s:1643   .text.pmksa_cache_auth_radius_das_disconnect:0000000000000000 .L0 
C:\Users\stapi\AppData\Local\Temp\cciwadCd.s:1644   .text.pmksa_cache_auth_radius_das_disconnect:0000000000000000 .L0 
C:\Users\stapi\AppData\Local\Temp\cciwadCd.s:1645   .text.pmksa_cache_auth_radius_das_disconnect:0000000000000000 .L0 
C:\Users\stapi\AppData\Local\Temp\cciwadCd.s:1648   .text.pmksa_cache_auth_radius_das_disconnect:0000000000000004 .L0 
C:\Users\stapi\AppData\Local\Temp\cciwadCd.s:1649   .text.pmksa_cache_auth_radius_das_disconnect:000000000000000c .L0 
C:\Users\stapi\AppData\Local\Temp\cciwadCd.s:1650   .text.pmksa_cache_auth_radius_das_disconnect:000000000000000c .L0 
C:\Users\stapi\AppData\Local\Temp\cciwadCd.s:1651   .text.pmksa_cache_auth_radius_das_disconnect:000000000000000c .L0 
C:\Users\stapi\AppData\Local\Temp\cciwadCd.s:1652   .text.pmksa_cache_auth_radius_das_disconnect:000000000000000c .L0 
C:\Users\stapi\AppData\Local\Temp\cciwadCd.s:1653   .text.pmksa_cache_auth_radius_das_disconnect:000000000000000c .L0 
C:\Users\stapi\AppData\Local\Temp\cciwadCd.s:1654   .text.pmksa_cache_auth_radius_das_disconnect:000000000000000c .L0 
C:\Users\stapi\AppData\Local\Temp\cciwadCd.s:1655   .text.pmksa_cache_auth_radius_das_disconnect:000000000000000c .L0 
C:\Users\stapi\AppData\Local\Temp\cciwadCd.s:1656   .text.pmksa_cache_auth_radius_das_disconnect:000000000000000c .L0 
C:\Users\stapi\AppData\Local\Temp\cciwadCd.s:1657   .text.pmksa_cache_auth_radius_das_disconnect:000000000000000c .L0 
C:\Users\stapi\AppData\Local\Temp\cciwadCd.s:1659   .text.pmksa_cache_auth_radius_das_disconnect:000000000000000c .L0 
C:\Users\stapi\AppData\Local\Temp\cciwadCd.s:1661   .text.pmksa_cache_auth_radius_das_disconnect:0000000000000010 .L0 
C:\Users\stapi\AppData\Local\Temp\cciwadCd.s:1662   .text.pmksa_cache_auth_radius_das_disconnect:0000000000000012 .L0 
C:\Users\stapi\AppData\Local\Temp\cciwadCd.s:1667   .text.pmksa_cache_auth_radius_das_disconnect:0000000000000016 .L0 
C:\Users\stapi\AppData\Local\Temp\cciwadCd.s:1668   .text.pmksa_cache_auth_radius_das_disconnect:0000000000000016 .L0 
C:\Users\stapi\AppData\Local\Temp\cciwadCd.s:1669   .text.pmksa_cache_auth_radius_das_disconnect:0000000000000016 .L0 
C:\Users\stapi\AppData\Local\Temp\cciwadCd.s:1674   .text.pmksa_cache_auth_radius_das_disconnect:0000000000000018 .L0 
C:\Users\stapi\AppData\Local\Temp\cciwadCd.s:1676   .text.pmksa_cache_auth_radius_das_disconnect:000000000000001a .L0 
C:\Users\stapi\AppData\Local\Temp\cciwadCd.s:1683   .text.pmksa_cache_auth_radius_das_disconnect:000000000000001e .L0 
C:\Users\stapi\AppData\Local\Temp\cciwadCd.s:1685   .text.pmksa_cache_auth_radius_das_disconnect:0000000000000020 .L0 
C:\Users\stapi\AppData\Local\Temp\cciwadCd.s:1686   .text.pmksa_cache_auth_radius_das_disconnect:0000000000000020 .L0 
C:\Users\stapi\AppData\Local\Temp\cciwadCd.s:1689   .text.pmksa_cache_auth_radius_das_disconnect:0000000000000028 .L0 
C:\Users\stapi\AppData\Local\Temp\cciwadCd.s:1690   .text.pmksa_cache_auth_radius_das_disconnect:000000000000002a .L0 
C:\Users\stapi\AppData\Local\Temp\cciwadCd.s:1691   .text.pmksa_cache_auth_radius_das_disconnect:000000000000002a .L0 
C:\Users\stapi\AppData\Local\Temp\cciwadCd.s:1693   .text.pmksa_cache_auth_radius_das_disconnect:0000000000000032 .L0 
C:\Users\stapi\AppData\Local\Temp\cciwadCd.s:1694   .text.pmksa_cache_auth_radius_das_disconnect:0000000000000032 .L0 
C:\Users\stapi\AppData\Local\Temp\cciwadCd.s:1695   .text.pmksa_cache_auth_radius_das_disconnect:0000000000000032 .L0 
C:\Users\stapi\AppData\Local\Temp\cciwadCd.s:1696   .text.pmksa_cache_auth_radius_das_disconnect:0000000000000032 .L0 
C:\Users\stapi\AppData\Local\Temp\cciwadCd.s:1697   .text.pmksa_cache_auth_radius_das_disconnect:0000000000000032 .L0 
C:\Users\stapi\AppData\Local\Temp\cciwadCd.s:1698   .text.pmksa_cache_auth_radius_das_disconnect:0000000000000032 .L0 
C:\Users\stapi\AppData\Local\Temp\cciwadCd.s:1699   .text.pmksa_cache_auth_radius_das_disconnect:0000000000000032 .L0 
C:\Users\stapi\AppData\Local\Temp\cciwadCd.s:1700   .text.pmksa_cache_auth_radius_das_disconnect:0000000000000032 .L0 
C:\Users\stapi\AppData\Local\Temp\cciwadCd.s:1701   .text.pmksa_cache_auth_radius_das_disconnect:0000000000000032 .L0 
C:\Users\stapi\AppData\Local\Temp\cciwadCd.s:1703   .text.pmksa_cache_auth_radius_das_disconnect:0000000000000032 .L0 
C:\Users\stapi\AppData\Local\Temp\cciwadCd.s:1708   .text.pmksa_cache_auth_radius_das_disconnect:0000000000000032 .L0 
C:\Users\stapi\AppData\Local\Temp\cciwadCd.s:1709   .text.pmksa_cache_auth_radius_das_disconnect:0000000000000032 .L0 
C:\Users\stapi\AppData\Local\Temp\cciwadCd.s:1710   .text.pmksa_cache_auth_radius_das_disconnect:0000000000000032 .L0 
C:\Users\stapi\AppData\Local\Temp\cciwadCd.s:1711   .text.pmksa_cache_auth_radius_das_disconnect:0000000000000032 .L0 
C:\Users\stapi\AppData\Local\Temp\cciwadCd.s:1713   .text.pmksa_cache_auth_radius_das_disconnect:0000000000000034 .L0 
C:\Users\stapi\AppData\Local\Temp\cciwadCd.s:1715   .text.pmksa_cache_auth_radius_das_disconnect:0000000000000036 .L0 
C:\Users\stapi\AppData\Local\Temp\cciwadCd.s:1716   .text.pmksa_cache_auth_radius_das_disconnect:0000000000000036 .L0 
C:\Users\stapi\AppData\Local\Temp\cciwadCd.s:1721   .text.pmksa_cache_auth_radius_das_disconnect:0000000000000044 .L0 
C:\Users\stapi\AppData\Local\Temp\cciwadCd.s:1723   .text.pmksa_cache_auth_radius_das_disconnect:0000000000000046 .L0 
C:\Users\stapi\AppData\Local\Temp\cciwadCd.s:1727   .text.pmksa_cache_auth_radius_das_disconnect:0000000000000048 .L0 
C:\Users\stapi\AppData\Local\Temp\cciwadCd.s:1728   .text.pmksa_cache_auth_radius_das_disconnect:0000000000000048 .L0 
C:\Users\stapi\AppData\Local\Temp\cciwadCd.s:1732   .text.pmksa_cache_auth_radius_das_disconnect:000000000000004c .L0 
C:\Users\stapi\AppData\Local\Temp\cciwadCd.s:1733   .text.pmksa_cache_auth_radius_das_disconnect:000000000000004c .L0 
C:\Users\stapi\AppData\Local\Temp\cciwadCd.s:1734   .text.pmksa_cache_auth_radius_das_disconnect:000000000000004c .L0 
C:\Users\stapi\AppData\Local\Temp\cciwadCd.s:1737   .text.pmksa_cache_auth_radius_das_disconnect:0000000000000052 .L0 
C:\Users\stapi\AppData\Local\Temp\cciwadCd.s:1745   .text.pmksa_cache_auth_radius_das_disconnect:000000000000006a .L0 
C:\Users\stapi\AppData\Local\Temp\cciwadCd.s:1746   .text.pmksa_cache_auth_radius_das_disconnect:000000000000006a .L0 
C:\Users\stapi\AppData\Local\Temp\cciwadCd.s:1752   .text.pmksa_cache_auth_radius_das_disconnect:0000000000000078 .L0 
C:\Users\stapi\AppData\Local\Temp\cciwadCd.s:1754   .text.pmksa_cache_auth_radius_das_disconnect:000000000000007a .L0 
C:\Users\stapi\AppData\Local\Temp\cciwadCd.s:1755   .text.pmksa_cache_auth_radius_das_disconnect:000000000000007a .L0 
C:\Users\stapi\AppData\Local\Temp\cciwadCd.s:1760   .text.pmksa_cache_auth_radius_das_disconnect:000000000000007c .L0 
C:\Users\stapi\AppData\Local\Temp\cciwadCd.s:1761   .text.pmksa_cache_auth_radius_das_disconnect:000000000000007c .L0 
C:\Users\stapi\AppData\Local\Temp\cciwadCd.s:1763   .text.pmksa_cache_auth_radius_das_disconnect:000000000000007e .L0 
C:\Users\stapi\AppData\Local\Temp\cciwadCd.s:1765   .text.pmksa_cache_auth_radius_das_disconnect:0000000000000080 .L0 
C:\Users\stapi\AppData\Local\Temp\cciwadCd.s:1766   .text.pmksa_cache_auth_radius_das_disconnect:0000000000000080 .L0 
C:\Users\stapi\AppData\Local\Temp\cciwadCd.s:1768   .text.pmksa_cache_auth_radius_das_disconnect:0000000000000082 .L0 
C:\Users\stapi\AppData\Local\Temp\cciwadCd.s:1770   .text.pmksa_cache_auth_radius_das_disconnect:0000000000000084 .L0 
C:\Users\stapi\AppData\Local\Temp\cciwadCd.s:1778   .text.pmksa_cache_auth_radius_das_disconnect:0000000000000086 .L0 
C:\Users\stapi\AppData\Local\Temp\cciwadCd.s:1779   .text.pmksa_cache_auth_radius_das_disconnect:0000000000000086 .L0 
C:\Users\stapi\AppData\Local\Temp\cciwadCd.s:1787   .text.pmksa_cache_auth_radius_das_disconnect:000000000000008c .L0 
C:\Users\stapi\AppData\Local\Temp\cciwadCd.s:1788   .text.pmksa_cache_auth_radius_das_disconnect:000000000000008c .L0 
C:\Users\stapi\AppData\Local\Temp\cciwadCd.s:1792   .text.pmksa_cache_auth_radius_das_disconnect:0000000000000096 .L0 
C:\Users\stapi\AppData\Local\Temp\cciwadCd.s:1794   .text.pmksa_cache_auth_radius_das_disconnect:0000000000000098 .L0 
C:\Users\stapi\AppData\Local\Temp\cciwadCd.s:1795   .text.pmksa_cache_auth_radius_das_disconnect:0000000000000098 .L0 
C:\Users\stapi\AppData\Local\Temp\cciwadCd.s:1799   .text.pmksa_cache_auth_radius_das_disconnect:000000000000009a .L0 
C:\Users\stapi\AppData\Local\Temp\cciwadCd.s:1800   .text.pmksa_cache_auth_radius_das_disconnect:000000000000009a .L0 
C:\Users\stapi\AppData\Local\Temp\cciwadCd.s:1802   .text.pmksa_cache_auth_radius_das_disconnect:000000000000009c .L0 
C:\Users\stapi\AppData\Local\Temp\cciwadCd.s:1804   .text.pmksa_cache_auth_radius_das_disconnect:000000000000009e .L0 
C:\Users\stapi\AppData\Local\Temp\cciwadCd.s:1805   .text.pmksa_cache_auth_radius_das_disconnect:000000000000009e .L0 
C:\Users\stapi\AppData\Local\Temp\cciwadCd.s:1807   .text.pmksa_cache_auth_radius_das_disconnect:00000000000000a0 .L0 
C:\Users\stapi\AppData\Local\Temp\cciwadCd.s:1809   .text.pmksa_cache_auth_radius_das_disconnect:00000000000000a2 .L0 
C:\Users\stapi\AppData\Local\Temp\cciwadCd.s:1811   .text.pmksa_cache_auth_radius_das_disconnect:00000000000000a4 .L0 
C:\Users\stapi\AppData\Local\Temp\cciwadCd.s:1814   .text.pmksa_cache_auth_radius_das_disconnect:00000000000000aa .L0 
C:\Users\stapi\AppData\Local\Temp\cciwadCd.s:1817   .text.pmksa_cache_auth_radius_das_disconnect:00000000000000b2 .L0 
C:\Users\stapi\AppData\Local\Temp\cciwadCd.s:1823   .text.pmksa_cache_auth_radius_das_disconnect:00000000000000b4 .L0 
C:\Users\stapi\AppData\Local\Temp\cciwadCd.s:1824   .text.pmksa_cache_auth_radius_das_disconnect:00000000000000b4 .L0 
C:\Users\stapi\AppData\Local\Temp\cciwadCd.s:1826   .text.pmksa_cache_auth_radius_das_disconnect:00000000000000b8 .L0 
C:\Users\stapi\AppData\Local\Temp\cciwadCd.s:1829   .text.pmksa_cache_auth_radius_das_disconnect:00000000000000bc .L0 
C:\Users\stapi\AppData\Local\Temp\cciwadCd.s:1832   .text.pmksa_cache_auth_radius_das_disconnect:00000000000000be .L0 
C:\Users\stapi\AppData\Local\Temp\cciwadCd.s:1833   .text.pmksa_cache_auth_radius_das_disconnect:00000000000000be .L0 
C:\Users\stapi\AppData\Local\Temp\cciwadCd.s:1834   .text.pmksa_cache_auth_radius_das_disconnect:00000000000000be .L0 
C:\Users\stapi\AppData\Local\Temp\cciwadCd.s:1837   .text.pmksa_cache_auth_radius_das_disconnect:00000000000000c6 .L0 
C:\Users\stapi\AppData\Local\Temp\cciwadCd.s:1838   .text.pmksa_cache_auth_radius_das_disconnect:00000000000000c6 .L0 
C:\Users\stapi\AppData\Local\Temp\cciwadCd.s:1841   .text.pmksa_cache_auth_radius_das_disconnect:00000000000000c8 .L0 
C:\Users\stapi\AppData\Local\Temp\cciwadCd.s:1847   .text.pmksa_cache_auth_radius_das_disconnect:00000000000000ca .L0 
C:\Users\stapi\AppData\Local\Temp\cciwadCd.s:1854   .text.pmksa_cache_auth_radius_das_disconnect:00000000000000ce .L0 
C:\Users\stapi\AppData\Local\Temp\cciwadCd.s:1857   .text.pmksa_cache_auth_radius_das_disconnect:00000000000000d2 .L0 
C:\Users\stapi\AppData\Local\Temp\cciwadCd.s:1858   .text.pmksa_cache_auth_radius_das_disconnect:00000000000000d2 .L0 
C:\Users\stapi\AppData\Local\Temp\cciwadCd.s:1863   .text.pmksa_cache_auth_radius_das_disconnect:00000000000000d6 .L0 
C:\Users\stapi\AppData\Local\Temp\cciwadCd.s:1864   .text.pmksa_cache_auth_radius_das_disconnect:00000000000000d6 .L0 
C:\Users\stapi\AppData\Local\Temp\cciwadCd.s:1865   .text.pmksa_cache_auth_radius_das_disconnect:00000000000000d6 .L0 
C:\Users\stapi\AppData\Local\Temp\cciwadCd.s:1866   .text.pmksa_cache_auth_radius_das_disconnect:00000000000000d6 .L0 
C:\Users\stapi\AppData\Local\Temp\cciwadCd.s:1867   .text.pmksa_cache_auth_radius_das_disconnect:00000000000000d6 .L0 
C:\Users\stapi\AppData\Local\Temp\cciwadCd.s:1868   .text.pmksa_cache_auth_radius_das_disconnect:00000000000000d6 .L0 
C:\Users\stapi\AppData\Local\Temp\cciwadCd.s:1869   .text.pmksa_cache_auth_radius_das_disconnect:00000000000000d6 .L0 
C:\Users\stapi\AppData\Local\Temp\cciwadCd.s:1870   .text.pmksa_cache_auth_radius_das_disconnect:00000000000000d6 .L0 
C:\Users\stapi\AppData\Local\Temp\cciwadCd.s:1871   .text.pmksa_cache_auth_radius_das_disconnect:00000000000000d6 .L0 
C:\Users\stapi\AppData\Local\Temp\cciwadCd.s:1873   .text.pmksa_cache_auth_radius_das_disconnect:00000000000000d6 .L0 
C:\Users\stapi\AppData\Local\Temp\cciwadCd.s:1876   .text.pmksa_cache_auth_radius_das_disconnect:00000000000000d8 .L0 
C:\Users\stapi\AppData\Local\Temp\cciwadCd.s:1877   .text.pmksa_cache_auth_radius_das_disconnect:00000000000000da .L0 
C:\Users\stapi\AppData\Local\Temp\cciwadCd.s:1894   .text.pmksa_cache_auth_list:0000000000000000 pmksa_cache_auth_list
C:\Users\stapi\AppData\Local\Temp\cciwadCd.s:1897   .text.pmksa_cache_auth_list:0000000000000000 .L0 
C:\Users\stapi\AppData\Local\Temp\cciwadCd.s:1899   .text.pmksa_cache_auth_list:0000000000000000 .L0 
C:\Users\stapi\AppData\Local\Temp\cciwadCd.s:1900   .text.pmksa_cache_auth_list:0000000000000008 .L0 
C:\Users\stapi\AppData\Local\Temp\cciwadCd.s:1901   .text.pmksa_cache_auth_list:0000000000000008 .L0 
C:\Users\stapi\AppData\Local\Temp\cciwadCd.s:1902   .text.pmksa_cache_auth_list:0000000000000008 .L0 
C:\Users\stapi\AppData\Local\Temp\cciwadCd.s:1903   .text.pmksa_cache_auth_list:0000000000000008 .L0 
C:\Users\stapi\AppData\Local\Temp\cciwadCd.s:1904   .text.pmksa_cache_auth_list:0000000000000008 .L0 
C:\Users\stapi\AppData\Local\Temp\cciwadCd.s:1905   .text.pmksa_cache_auth_list:0000000000000008 .L0 
C:\Users\stapi\AppData\Local\Temp\cciwadCd.s:1906   .text.pmksa_cache_auth_list:0000000000000008 .L0 
C:\Users\stapi\AppData\Local\Temp\cciwadCd.s:1907   .text.pmksa_cache_auth_list:0000000000000008 .L0 
C:\Users\stapi\AppData\Local\Temp\cciwadCd.s:1908   .text.pmksa_cache_auth_list:0000000000000008 .L0 
C:\Users\stapi\AppData\Local\Temp\cciwadCd.s:1910   .text.pmksa_cache_auth_list:0000000000000008 .L0 
C:\Users\stapi\AppData\Local\Temp\cciwadCd.s:1911   .text.pmksa_cache_auth_list:0000000000000008 .L0 
C:\Users\stapi\AppData\Local\Temp\cciwadCd.s:1912   .text.pmksa_cache_auth_list:0000000000000008 .L0 
C:\Users\stapi\AppData\Local\Temp\cciwadCd.s:1913   .text.pmksa_cache_auth_list:000000000000000a .L0 
C:\Users\stapi\AppData\Local\Temp\cciwadCd.s:1915   .text.pmksa_cache_auth_list:000000000000000a .L0 
C:\Users\stapi\AppData\Local\Temp\cciwadCd.s:1917   .text.pmksa_cache_auth_list:000000000000000c .L0 
C:\Users\stapi\AppData\Local\Temp\cciwadCd.s:1920   .text.pmksa_cache_auth_list:000000000000000e .L0 
C:\Users\stapi\AppData\Local\Temp\cciwadCd.s:1923   .text.pmksa_cache_auth_list:0000000000000010 .L0 
C:\Users\stapi\AppData\Local\Temp\cciwadCd.s:1924   .text.pmksa_cache_auth_list:0000000000000010 .L0 
C:\Users\stapi\AppData\Local\Temp\cciwadCd.s:1925   .text.pmksa_cache_auth_list:0000000000000010 .L0 
C:\Users\stapi\AppData\Local\Temp\cciwadCd.s:1926   .text.pmksa_cache_auth_list:0000000000000010 .L0 
C:\Users\stapi\AppData\Local\Temp\cciwadCd.s:1928   .text.pmksa_cache_auth_list:0000000000000012 .L0 
C:\Users\stapi\AppData\Local\Temp\cciwadCd.s:1931   .text.pmksa_cache_auth_list:000000000000001a .L0 
C:\Users\stapi\AppData\Local\Temp\cciwadCd.s:1932   .text.pmksa_cache_auth_list:000000000000001a .L0 
C:\Users\stapi\AppData\Local\Temp\cciwadCd.s:1942   .text.pmksa_cache_auth_list:000000000000002e .L0 
C:\Users\stapi\AppData\Local\Temp\cciwadCd.s:1943   .text.pmksa_cache_auth_list:000000000000002e .L0 
C:\Users\stapi\AppData\Local\Temp\cciwadCd.s:1944   .text.pmksa_cache_auth_list:000000000000002e .L0 
C:\Users\stapi\AppData\Local\Temp\cciwadCd.s:1949   .text.pmksa_cache_auth_list:0000000000000034 .L0 
C:\Users\stapi\AppData\Local\Temp\cciwadCd.s:1954   .text.pmksa_cache_auth_list:0000000000000036 .L0 
C:\Users\stapi\AppData\Local\Temp\cciwadCd.s:1958   .text.pmksa_cache_auth_list:000000000000003a .L0 
C:\Users\stapi\AppData\Local\Temp\cciwadCd.s:1961   .text.pmksa_cache_auth_list:000000000000003e .L0 
C:\Users\stapi\AppData\Local\Temp\cciwadCd.s:1964   .text.pmksa_cache_auth_list:0000000000000040 .L0 
C:\Users\stapi\AppData\Local\Temp\cciwadCd.s:1965   .text.pmksa_cache_auth_list:0000000000000040 .L0 
C:\Users\stapi\AppData\Local\Temp\cciwadCd.s:1968   .text.pmksa_cache_auth_list:0000000000000042 .L0 
C:\Users\stapi\AppData\Local\Temp\cciwadCd.s:1969   .text.pmksa_cache_auth_list:0000000000000042 .L0 
C:\Users\stapi\AppData\Local\Temp\cciwadCd.s:1970   .text.pmksa_cache_auth_list:0000000000000042 .L0 
C:\Users\stapi\AppData\Local\Temp\cciwadCd.s:1971   .text.pmksa_cache_auth_list:0000000000000042 .L0 
C:\Users\stapi\AppData\Local\Temp\cciwadCd.s:1973   .text.pmksa_cache_auth_list:0000000000000046 .L0 
C:\Users\stapi\AppData\Local\Temp\cciwadCd.s:1976   .text.pmksa_cache_auth_list:000000000000004a .L0 
C:\Users\stapi\AppData\Local\Temp\cciwadCd.s:1978   .text.pmksa_cache_auth_list:000000000000004c .L0 
C:\Users\stapi\AppData\Local\Temp\cciwadCd.s:1979   .text.pmksa_cache_auth_list:000000000000004c .L0 
C:\Users\stapi\AppData\Local\Temp\cciwadCd.s:1987   .text.pmksa_cache_auth_list:0000000000000066 .L0 
C:\Users\stapi\AppData\Local\Temp\cciwadCd.s:1989   .text.pmksa_cache_auth_list:000000000000006a .L0 
C:\Users\stapi\AppData\Local\Temp\cciwadCd.s:1999   .text.pmksa_cache_auth_list:000000000000007e .L0 
C:\Users\stapi\AppData\Local\Temp\cciwadCd.s:2000   .text.pmksa_cache_auth_list:000000000000007e .L0 
C:\Users\stapi\AppData\Local\Temp\cciwadCd.s:2001   .text.pmksa_cache_auth_list:000000000000007e .L0 
C:\Users\stapi\AppData\Local\Temp\cciwadCd.s:2007   .text.pmksa_cache_auth_list:0000000000000086 .L0 
C:\Users\stapi\AppData\Local\Temp\cciwadCd.s:2008   .text.pmksa_cache_auth_list:0000000000000086 .L0 
C:\Users\stapi\AppData\Local\Temp\cciwadCd.s:2011   .text.pmksa_cache_auth_list:0000000000000088 .L0 
C:\Users\stapi\AppData\Local\Temp\cciwadCd.s:2012   .text.pmksa_cache_auth_list:0000000000000088 .L0 
C:\Users\stapi\AppData\Local\Temp\cciwadCd.s:2020   .text.pmksa_cache_auth_list:000000000000009c .L0 
C:\Users\stapi\AppData\Local\Temp\cciwadCd.s:2022   .text.pmksa_cache_auth_list:000000000000009e .L0 
C:\Users\stapi\AppData\Local\Temp\cciwadCd.s:2024   .text.pmksa_cache_auth_list:00000000000000a0 .L0 
C:\Users\stapi\AppData\Local\Temp\cciwadCd.s:2027   .text.pmksa_cache_auth_list:00000000000000a2 .L0 
C:\Users\stapi\AppData\Local\Temp\cciwadCd.s:2028   .text.pmksa_cache_auth_list:00000000000000a2 .L0 
C:\Users\stapi\AppData\Local\Temp\cciwadCd.s:2030   .text.pmksa_cache_auth_list:00000000000000a6 .L0 
C:\Users\stapi\AppData\Local\Temp\cciwadCd.s:2032   .text.pmksa_cache_auth_list:00000000000000aa .L0 
C:\Users\stapi\AppData\Local\Temp\cciwadCd.s:2041   .text.pmksa_cache_auth_list:00000000000000bc .L0 
C:\Users\stapi\AppData\Local\Temp\cciwadCd.s:2042   .text.pmksa_cache_auth_list:00000000000000bc .L0 
C:\Users\stapi\AppData\Local\Temp\cciwadCd.s:2043   .text.pmksa_cache_auth_list:00000000000000bc .L0 
C:\Users\stapi\AppData\Local\Temp\cciwadCd.s:2049   .text.pmksa_cache_auth_list:00000000000000c0 .L0 
C:\Users\stapi\AppData\Local\Temp\cciwadCd.s:2050   .text.pmksa_cache_auth_list:00000000000000c0 .L0 
C:\Users\stapi\AppData\Local\Temp\cciwadCd.s:2054   .text.pmksa_cache_auth_list:00000000000000c4 .L0 
C:\Users\stapi\AppData\Local\Temp\cciwadCd.s:2055   .text.pmksa_cache_auth_list:00000000000000c6 .L0 
C:\Users\stapi\AppData\Local\Temp\cciwadCd.s:2056   .text.pmksa_cache_auth_list:00000000000000c6 .L0 
C:\Users\stapi\AppData\Local\Temp\cciwadCd.s:2058   .text.pmksa_cache_auth_list:00000000000000ce .L0 
C:\Users\stapi\AppData\Local\Temp\cciwadCd.s:2059   .text.pmksa_cache_auth_list:00000000000000ce .L0 
C:\Users\stapi\AppData\Local\Temp\cciwadCd.s:2060   .text.pmksa_cache_auth_list:00000000000000ce .L0 
C:\Users\stapi\AppData\Local\Temp\cciwadCd.s:2061   .text.pmksa_cache_auth_list:00000000000000ce .L0 
C:\Users\stapi\AppData\Local\Temp\cciwadCd.s:2062   .text.pmksa_cache_auth_list:00000000000000ce .L0 
C:\Users\stapi\AppData\Local\Temp\cciwadCd.s:2063   .text.pmksa_cache_auth_list:00000000000000ce .L0 
C:\Users\stapi\AppData\Local\Temp\cciwadCd.s:2064   .text.pmksa_cache_auth_list:00000000000000ce .L0 
C:\Users\stapi\AppData\Local\Temp\cciwadCd.s:2065   .text.pmksa_cache_auth_list:00000000000000ce .L0 
C:\Users\stapi\AppData\Local\Temp\cciwadCd.s:2066   .text.pmksa_cache_auth_list:00000000000000ce .L0 
C:\Users\stapi\AppData\Local\Temp\cciwadCd.s:2069   .text.pmksa_cache_auth_list:00000000000000ce .L0 
C:\Users\stapi\AppData\Local\Temp\cciwadCd.s:2073   .text.pmksa_cache_auth_list:00000000000000ce .L0 
C:\Users\stapi\AppData\Local\Temp\cciwadCd.s:2078   .text.pmksa_cache_auth_list:00000000000000d2 .L0 
C:\Users\stapi\AppData\Local\Temp\cciwadCd.s:2079   .text.pmksa_cache_auth_list:00000000000000d2 .L0 
C:\Users\stapi\AppData\Local\Temp\cciwadCd.s:2082   .text.pmksa_cache_auth_list:00000000000000d4 .L0 
C:\Users\stapi\AppData\Local\Temp\cciwadCd.s:2085   .text.pmksa_cache_auth_list:00000000000000d6 .L0 
C:\Users\stapi\AppData\Local\Temp\cciwadCd.s:2089   .text.pmksa_cache_auth_list:00000000000000d8 .L0 
C:\Users\stapi\AppData\Local\Temp\cciwadCd.s:2092   .text.pmksa_cache_auth_list:00000000000000dc .L0 
C:\Users\stapi\AppData\Local\Temp\cciwadCd.s:51     .text._pmksa_cache_free_entry:0000000000000040 .L0 
C:\Users\stapi\AppData\Local\Temp\cciwadCd.s:132    .text.pmksa_cache_set_expiration:000000000000005e .L0 
C:\Users\stapi\AppData\Local\Temp\cciwadCd.s:260    .text.pmksa_cache_link_entry:00000000000000a2 .L0 
C:\Users\stapi\AppData\Local\Temp\cciwadCd.s:403    .text.pmksa_cache_free_entry:0000000000000078 .L0 
C:\Users\stapi\AppData\Local\Temp\cciwadCd.s:482    .text.pmksa_cache_expire:0000000000000072 .L0 
C:\Users\stapi\AppData\Local\Temp\cciwadCd.s:541    .text.pmksa_cache_auth_flush:0000000000000052 .L0 
C:\Users\stapi\AppData\Local\Temp\cciwadCd.s:662    .text.pmksa_cache_to_eapol_data:00000000000000b6 .L0 
C:\Users\stapi\AppData\Local\Temp\cciwadCd.s:931    .text.pmksa_cache_auth_create_entry:0000000000000156 .L0 
C:\Users\stapi\AppData\Local\Temp\cciwadCd.s:1103   .text.pmksa_cache_add_okc:00000000000000e8 .L0 
C:\Users\stapi\AppData\Local\Temp\cciwadCd.s:1191   .text.pmksa_cache_auth_deinit:0000000000000060 .L0 
C:\Users\stapi\AppData\Local\Temp\cciwadCd.s:1304   .text.pmksa_cache_auth_get:0000000000000074 .L0 
C:\Users\stapi\AppData\Local\Temp\cciwadCd.s:1398   .text.pmksa_cache_auth_add_entry:000000000000008e .L0 
C:\Users\stapi\AppData\Local\Temp\cciwadCd.s:1469   .text.pmksa_cache_auth_add:000000000000004c .L0 
C:\Users\stapi\AppData\Local\Temp\cciwadCd.s:1582   .text.pmksa_cache_get_okc:0000000000000076 .L0 
C:\Users\stapi\AppData\Local\Temp\cciwadCd.s:1628   .text.pmksa_cache_auth_init:000000000000002a .L0 
C:\Users\stapi\AppData\Local\Temp\cciwadCd.s:1880   .text.pmksa_cache_auth_radius_das_disconnect:00000000000000da .L0 
C:\Users\stapi\AppData\Local\Temp\cciwadCd.s:2095   .text.pmksa_cache_auth_list:00000000000000dc .L0 
                     .debug_frame:0000000000000000 .L0 
C:\Users\stapi\AppData\Local\Temp\cciwadCd.s:118    .text.pmksa_cache_set_expiration:0000000000000054 .L3
C:\Users\stapi\AppData\Local\Temp\cciwadCd.s:134    .rodata.pmksa_cache_link_entry.str1.4:0000000000000000 .LC0
C:\Users\stapi\AppData\Local\Temp\cciwadCd.s:137    .rodata.pmksa_cache_link_entry.str1.4:0000000000000040 .LC1
C:\Users\stapi\AppData\Local\Temp\cciwadCd.s:174    .text.pmksa_cache_link_entry:000000000000001c .L15
C:\Users\stapi\AppData\Local\Temp\cciwadCd.s:237    .text.pmksa_cache_link_entry:0000000000000094 .L11
C:\Users\stapi\AppData\Local\Temp\cciwadCd.s:246    .text.pmksa_cache_link_entry:000000000000009a .L18
C:\Users\stapi\AppData\Local\Temp\cciwadCd.s:209    .text.pmksa_cache_link_entry:000000000000004a .L17
C:\Users\stapi\AppData\Local\Temp\cciwadCd.s:166    .text.pmksa_cache_link_entry:0000000000000012 .L10
C:\Users\stapi\AppData\Local\Temp\cciwadCd.s:185    .text.pmksa_cache_link_entry:0000000000000024 .L16
C:\Users\stapi\AppData\Local\Temp\cciwadCd.s:330    .text.pmksa_cache_free_entry:000000000000003e .L24
C:\Users\stapi\AppData\Local\Temp\cciwadCd.s:377    .text.pmksa_cache_free_entry:0000000000000066 .L22
C:\Users\stapi\AppData\Local\Temp\cciwadCd.s:369    .text.pmksa_cache_free_entry:0000000000000062 .L23
C:\Users\stapi\AppData\Local\Temp\cciwadCd.s:355    .text.pmksa_cache_free_entry:0000000000000050 .L29
C:\Users\stapi\AppData\Local\Temp\cciwadCd.s:392    .text.pmksa_cache_free_entry:0000000000000072 .L27
C:\Users\stapi\AppData\Local\Temp\cciwadCd.s:386    .text.pmksa_cache_free_entry:000000000000006c .L28
C:\Users\stapi\AppData\Local\Temp\cciwadCd.s:314    .text.pmksa_cache_free_entry:0000000000000032 .L21
C:\Users\stapi\AppData\Local\Temp\cciwadCd.s:340    .text.pmksa_cache_free_entry:0000000000000044 .L26
C:\Users\stapi\AppData\Local\Temp\cciwadCd.s:405    .rodata.pmksa_cache_expire.str1.4:0000000000000000 .LC2
C:\Users\stapi\AppData\Local\Temp\cciwadCd.s:446    .text.pmksa_cache_expire:0000000000000028 .L34
C:\Users\stapi\AppData\Local\Temp\cciwadCd.s:460    .text.pmksa_cache_expire:000000000000003c .L35
C:\Users\stapi\AppData\Local\Temp\cciwadCd.s:436    .text.pmksa_cache_expire:000000000000001a .L33
C:\Users\stapi\AppData\Local\Temp\cciwadCd.s:484    .rodata.pmksa_cache_auth_flush.str1.4:0000000000000000 .LC3
C:\Users\stapi\AppData\Local\Temp\cciwadCd.s:519    .text.pmksa_cache_auth_flush:000000000000001c .L42
C:\Users\stapi\AppData\Local\Temp\cciwadCd.s:506    .text.pmksa_cache_auth_flush:000000000000000e .L41
C:\Users\stapi\AppData\Local\Temp\cciwadCd.s:543    .rodata.pmksa_cache_to_eapol_data.str1.4:0000000000000000 .LC4
C:\Users\stapi\AppData\Local\Temp\cciwadCd.s:546    .rodata.pmksa_cache_to_eapol_data.str1.4:0000000000000018 .LC5
C:\Users\stapi\AppData\Local\Temp\cciwadCd.s:657    .text.pmksa_cache_to_eapol_data:00000000000000b4 .L69
C:\Users\stapi\AppData\Local\Temp\cciwadCd.s:649    .text.pmksa_cache_to_eapol_data:00000000000000ac .L44
C:\Users\stapi\AppData\Local\Temp\cciwadCd.s:609    .text.pmksa_cache_to_eapol_data:000000000000005a .L46
C:\Users\stapi\AppData\Local\Temp\cciwadCd.s:600    .text.pmksa_cache_to_eapol_data:0000000000000040 .L47
C:\Users\stapi\AppData\Local\Temp\cciwadCd.s:625    .text.pmksa_cache_to_eapol_data:0000000000000078 .L48
C:\Users\stapi\AppData\Local\Temp\cciwadCd.s:637    .text.pmksa_cache_to_eapol_data:0000000000000094 .L49
C:\Users\stapi\AppData\Local\Temp\cciwadCd.s:725    .text.pmksa_cache_auth_create_entry:0000000000000026 .L73
C:\Users\stapi\AppData\Local\Temp\cciwadCd.s:751    .text.pmksa_cache_auth_create_entry:000000000000003e .L75
C:\Users\stapi\AppData\Local\Temp\cciwadCd.s:701    .text.pmksa_cache_auth_create_entry:0000000000000018 .L76
C:\Users\stapi\AppData\Local\Temp\cciwadCd.s:896    .text.pmksa_cache_auth_create_entry:000000000000012c .L77
C:\Users\stapi\AppData\Local\Temp\cciwadCd.s:799    .text.pmksa_cache_auth_create_entry:0000000000000090 .L80
C:\Users\stapi\AppData\Local\Temp\cciwadCd.s:704    .text.pmksa_cache_auth_create_entry:000000000000001a .L72
C:\Users\stapi\AppData\Local\Temp\cciwadCd.s:841    .text.pmksa_cache_auth_create_entry:00000000000000d2 .L82
C:\Users\stapi\AppData\Local\Temp\cciwadCd.s:853    .text.pmksa_cache_auth_create_entry:00000000000000e2 .L84
C:\Users\stapi\AppData\Local\Temp\cciwadCd.s:919    .text.pmksa_cache_auth_create_entry:0000000000000150 .L85
C:\Users\stapi\AppData\Local\Temp\cciwadCd.s:887    .text.pmksa_cache_auth_create_entry:000000000000011a .L86
C:\Users\stapi\AppData\Local\Temp\cciwadCd.s:781    .text.pmksa_cache_auth_create_entry:0000000000000074 .L78
C:\Users\stapi\AppData\Local\Temp\cciwadCd.s:1080   .text.pmksa_cache_add_okc:00000000000000d6 .L115
C:\Users\stapi\AppData\Local\Temp\cciwadCd.s:1031   .text.pmksa_cache_add_okc:0000000000000086 .L118
C:\Users\stapi\AppData\Local\Temp\cciwadCd.s:1043   .text.pmksa_cache_add_okc:0000000000000094 .L120
C:\Users\stapi\AppData\Local\Temp\cciwadCd.s:1094   .text.pmksa_cache_add_okc:00000000000000e2 .L121
C:\Users\stapi\AppData\Local\Temp\cciwadCd.s:1069   .text.pmksa_cache_add_okc:00000000000000c4 .L122
C:\Users\stapi\AppData\Local\Temp\cciwadCd.s:1182   .text.pmksa_cache_auth_deinit:000000000000005e .L144
C:\Users\stapi\AppData\Local\Temp\cciwadCd.s:1168   .text.pmksa_cache_auth_deinit:0000000000000050 .L139
C:\Users\stapi\AppData\Local\Temp\cciwadCd.s:1129   .text.pmksa_cache_auth_deinit:0000000000000010 .L138
C:\Users\stapi\AppData\Local\Temp\cciwadCd.s:1276   .text.pmksa_cache_auth_get:0000000000000056 .L148
C:\Users\stapi\AppData\Local\Temp\cciwadCd.s:1234   .text.pmksa_cache_auth_get:0000000000000022 .L154
C:\Users\stapi\AppData\Local\Temp\cciwadCd.s:1248   .text.pmksa_cache_auth_get:0000000000000036 .L147
C:\Users\stapi\AppData\Local\Temp\cciwadCd.s:1259   .text.pmksa_cache_auth_get:0000000000000040 .L150
C:\Users\stapi\AppData\Local\Temp\cciwadCd.s:1269   .text.pmksa_cache_auth_get:0000000000000052 .L152
C:\Users\stapi\AppData\Local\Temp\cciwadCd.s:1238   .text.pmksa_cache_auth_get:0000000000000024 .L153
C:\Users\stapi\AppData\Local\Temp\cciwadCd.s:1223   .text.pmksa_cache_auth_get:000000000000001c .L149
C:\Users\stapi\AppData\Local\Temp\cciwadCd.s:1228   .text.pmksa_cache_auth_get:000000000000001e .L157
C:\Users\stapi\AppData\Local\Temp\cciwadCd.s:1281   .text.pmksa_cache_auth_get:000000000000005a .L155
C:\Users\stapi\AppData\Local\Temp\cciwadCd.s:1306   .rodata.pmksa_cache_auth_add_entry.str1.4:0000000000000000 .LC6
C:\Users\stapi\AppData\Local\Temp\cciwadCd.s:1389   .text.pmksa_cache_auth_add_entry:000000000000008a .L175
C:\Users\stapi\AppData\Local\Temp\cciwadCd.s:1346   .text.pmksa_cache_auth_add_entry:000000000000002a .L173
C:\Users\stapi\AppData\Local\Temp\cciwadCd.s:1373   .text.pmksa_cache_auth_add_entry:0000000000000074 .L174
C:\Users\stapi\AppData\Local\Temp\cciwadCd.s:1455   .text.pmksa_cache_auth_add:0000000000000040 .L186
C:\Users\stapi\AppData\Local\Temp\cciwadCd.s:1549   .text.pmksa_cache_get_okc:000000000000004e .L189
C:\Users\stapi\AppData\Local\Temp\cciwadCd.s:1523   .text.pmksa_cache_get_okc:0000000000000034 .L191
C:\Users\stapi\AppData\Local\Temp\cciwadCd.s:1504   .text.pmksa_cache_get_okc:000000000000001c .L190
C:\Users\stapi\AppData\Local\Temp\cciwadCd.s:1563   .text.pmksa_cache_get_okc:000000000000005a .L192
C:\Users\stapi\AppData\Local\Temp\cciwadCd.s:1517   .text.pmksa_cache_get_okc:0000000000000030 .L194
C:\Users\stapi\AppData\Local\Temp\cciwadCd.s:1543   .text.pmksa_cache_get_okc:0000000000000044 .L204
C:\Users\stapi\AppData\Local\Temp\cciwadCd.s:1618   .text.pmksa_cache_auth_init:0000000000000022 .L205
C:\Users\stapi\AppData\Local\Temp\cciwadCd.s:1630   .rodata.pmksa_cache_auth_radius_das_disconnect.str1.4:0000000000000000 .LC7
C:\Users\stapi\AppData\Local\Temp\cciwadCd.s:1862   .text.pmksa_cache_auth_radius_das_disconnect:00000000000000d6 .L224
C:\Users\stapi\AppData\Local\Temp\cciwadCd.s:1702   .text.pmksa_cache_auth_radius_das_disconnect:0000000000000032 .L223
C:\Users\stapi\AppData\Local\Temp\cciwadCd.s:1843   .text.pmksa_cache_auth_radius_das_disconnect:00000000000000ca .L225
C:\Users\stapi\AppData\Local\Temp\cciwadCd.s:1855   .text.pmksa_cache_auth_radius_das_disconnect:00000000000000d2 .L218
C:\Users\stapi\AppData\Local\Temp\cciwadCd.s:1757   .text.pmksa_cache_auth_radius_das_disconnect:000000000000007c .L216
C:\Users\stapi\AppData\Local\Temp\cciwadCd.s:1797   .text.pmksa_cache_auth_radius_das_disconnect:000000000000009a .L219
C:\Users\stapi\AppData\Local\Temp\cciwadCd.s:1850   .text.pmksa_cache_auth_radius_das_disconnect:00000000000000ce .L220
C:\Users\stapi\AppData\Local\Temp\cciwadCd.s:1678   .text.pmksa_cache_auth_radius_das_disconnect:000000000000001e .L213
C:\Users\stapi\AppData\Local\Temp\cciwadCd.s:1724   .text.pmksa_cache_auth_radius_das_disconnect:0000000000000048 .L214
C:\Users\stapi\AppData\Local\Temp\cciwadCd.s:1819   .text.pmksa_cache_auth_radius_das_disconnect:00000000000000b4 .L222
C:\Users\stapi\AppData\Local\Temp\cciwadCd.s:1882   .rodata.pmksa_cache_auth_list.str1.4:0000000000000000 .LC8
C:\Users\stapi\AppData\Local\Temp\cciwadCd.s:1885   .rodata.pmksa_cache_auth_list.str1.4:0000000000000040 .LC9
C:\Users\stapi\AppData\Local\Temp\cciwadCd.s:1888   .rodata.pmksa_cache_auth_list.str1.4:0000000000000064 .LC10
C:\Users\stapi\AppData\Local\Temp\cciwadCd.s:2087   .text.pmksa_cache_auth_list:00000000000000d8 .L249
C:\Users\stapi\AppData\Local\Temp\cciwadCd.s:2052   .text.pmksa_cache_auth_list:00000000000000c4 .L242
C:\Users\stapi\AppData\Local\Temp\cciwadCd.s:2045   .text.pmksa_cache_auth_list:00000000000000c0 .L253
C:\Users\stapi\AppData\Local\Temp\cciwadCd.s:2068   .text.pmksa_cache_auth_list:00000000000000ce .L251
C:\Users\stapi\AppData\Local\Temp\cciwadCd.s:1974   .text.pmksa_cache_auth_list:000000000000004a .L244
C:\Users\stapi\AppData\Local\Temp\cciwadCd.s:7885   .debug_abbrev:0000000000000000 .Ldebug_abbrev0
C:\Users\stapi\AppData\Local\Temp\cciwadCd.s:11252  .debug_str:000000000000116e .LASF440
C:\Users\stapi\AppData\Local\Temp\cciwadCd.s:11542  .debug_str:0000000000001b81 .LASF441
C:\Users\stapi\AppData\Local\Temp\cciwadCd.s:10898  .debug_str:0000000000000685 .LASF442
C:\Users\stapi\AppData\Local\Temp\cciwadCd.s:10594  .debug_ranges:0000000000000000 .Ldebug_ranges0
C:\Users\stapi\AppData\Local\Temp\cciwadCd.s:10670  .debug_line:0000000000000000 .Ldebug_line0
C:\Users\stapi\AppData\Local\Temp\cciwadCd.s:10930  .debug_str:00000000000007ef .LASF1
C:\Users\stapi\AppData\Local\Temp\cciwadCd.s:11338  .debug_str:000000000000150a .LASF0
C:\Users\stapi\AppData\Local\Temp\cciwadCd.s:11200  .debug_str:0000000000000fbe .LASF2
C:\Users\stapi\AppData\Local\Temp\cciwadCd.s:11486  .debug_str:00000000000019d9 .LASF3
C:\Users\stapi\AppData\Local\Temp\cciwadCd.s:11322  .debug_str:000000000000148e .LASF4
C:\Users\stapi\AppData\Local\Temp\cciwadCd.s:11410  .debug_str:0000000000001756 .LASF5
C:\Users\stapi\AppData\Local\Temp\cciwadCd.s:11256  .debug_str:000000000000127e .LASF6
C:\Users\stapi\AppData\Local\Temp\cciwadCd.s:10890  .debug_str:0000000000000658 .LASF7
C:\Users\stapi\AppData\Local\Temp\cciwadCd.s:11494  .debug_str:0000000000001a11 .LASF8
C:\Users\stapi\AppData\Local\Temp\cciwadCd.s:11268  .debug_str:00000000000012df .LASF9
C:\Users\stapi\AppData\Local\Temp\cciwadCd.s:11060  .debug_str:0000000000000ba6 .LASF10
C:\Users\stapi\AppData\Local\Temp\cciwadCd.s:11364  .debug_str:00000000000015ca .LASF11
C:\Users\stapi\AppData\Local\Temp\cciwadCd.s:11094  .debug_str:0000000000000c95 .LASF12
C:\Users\stapi\AppData\Local\Temp\cciwadCd.s:10972  .debug_str:00000000000008ff .LASF13
C:\Users\stapi\AppData\Local\Temp\cciwadCd.s:10870  .debug_str:00000000000005c0 .LASF14
C:\Users\stapi\AppData\Local\Temp\cciwadCd.s:11018  .debug_str:0000000000000a58 .LASF15
C:\Users\stapi\AppData\Local\Temp\cciwadCd.s:10996  .debug_str:00000000000009c8 .LASF16
C:\Users\stapi\AppData\Local\Temp\cciwadCd.s:11062  .debug_str:0000000000000bb1 .LASF17
C:\Users\stapi\AppData\Local\Temp\cciwadCd.s:11218  .debug_str:000000000000104c .LASF18
C:\Users\stapi\AppData\Local\Temp\cciwadCd.s:10824  .debug_str:0000000000000486 .LASF19
C:\Users\stapi\AppData\Local\Temp\cciwadCd.s:11292  .debug_str:00000000000013d8 .LASF20
C:\Users\stapi\AppData\Local\Temp\cciwadCd.s:10950  .debug_str:0000000000000873 .LASF21
C:\Users\stapi\AppData\Local\Temp\cciwadCd.s:11086  .debug_str:0000000000000c6f .LASF22
C:\Users\stapi\AppData\Local\Temp\cciwadCd.s:10712  .debug_str:000000000000011d .LASF27
C:\Users\stapi\AppData\Local\Temp\cciwadCd.s:11502  .debug_str:0000000000001a63 .LASF23
C:\Users\stapi\AppData\Local\Temp\cciwadCd.s:10832  .debug_str:00000000000004b3 .LASF24
C:\Users\stapi\AppData\Local\Temp\cciwadCd.s:11158  .debug_str:0000000000000e7b .LASF25
C:\Users\stapi\AppData\Local\Temp\cciwadCd.s:10704  .debug_str:00000000000000ed .LASF26
C:\Users\stapi\AppData\Local\Temp\cciwadCd.s:10782  .debug_str:000000000000034c .LASF28
C:\Users\stapi\AppData\Local\Temp\cciwadCd.s:11154  .debug_str:0000000000000e64 .LASF29
C:\Users\stapi\AppData\Local\Temp\cciwadCd.s:10920  .debug_str:00000000000007b6 .LASF30
C:\Users\stapi\AppData\Local\Temp\cciwadCd.s:10970  .debug_str:00000000000008f9 .LASF31
C:\Users\stapi\AppData\Local\Temp\cciwadCd.s:11250  .debug_str:0000000000001160 .LASF32
C:\Users\stapi\AppData\Local\Temp\cciwadCd.s:11196  .debug_str:0000000000000fa4 .LASF33
C:\Users\stapi\AppData\Local\Temp\cciwadCd.s:10900  .debug_str:0000000000000717 .LASF34
C:\Users\stapi\AppData\Local\Temp\cciwadCd.s:11092  .debug_str:0000000000000c8c .LASF35
C:\Users\stapi\AppData\Local\Temp\cciwadCd.s:11112  .debug_str:0000000000000d29 .LASF36
C:\Users\stapi\AppData\Local\Temp\cciwadCd.s:11040  .debug_str:0000000000000b12 .LASF37
C:\Users\stapi\AppData\Local\Temp\cciwadCd.s:11430  .debug_str:00000000000017f1 .LASF38
C:\Users\stapi\AppData\Local\Temp\cciwadCd.s:10940  .debug_str:0000000000000838 .LASF39
C:\Users\stapi\AppData\Local\Temp\cciwadCd.s:11488  .debug_str:00000000000019e5 .LASF40
C:\Users\stapi\AppData\Local\Temp\cciwadCd.s:11220  .debug_str:0000000000001055 .LASF41
C:\Users\stapi\AppData\Local\Temp\cciwadCd.s:11010  .debug_str:0000000000000a16 .LASF42
C:\Users\stapi\AppData\Local\Temp\cciwadCd.s:11296  .debug_str:00000000000013ef .LASF43
C:\Users\stapi\AppData\Local\Temp\cciwadCd.s:10718  .debug_str:0000000000000148 .LASF44
C:\Users\stapi\AppData\Local\Temp\cciwadCd.s:11354  .debug_str:000000000000158c .LASF45
C:\Users\stapi\AppData\Local\Temp\cciwadCd.s:11382  .debug_str:000000000000165c .LASF65
C:\Users\stapi\AppData\Local\Temp\cciwadCd.s:11524  .debug_str:0000000000001afb .LASF46
C:\Users\stapi\AppData\Local\Temp\cciwadCd.s:11130  .debug_str:0000000000000d97 .LASF47
C:\Users\stapi\AppData\Local\Temp\cciwadCd.s:10848  .debug_str:0000000000000530 .LASF48
C:\Users\stapi\AppData\Local\Temp\cciwadCd.s:10792  .debug_str:000000000000039a .LASF49
C:\Users\stapi\AppData\Local\Temp\cciwadCd.s:11352  .debug_str:0000000000001580 .LASF62
C:\Users\stapi\AppData\Local\Temp\cciwadCd.s:11106  .debug_str:0000000000000cec .LASF50
C:\Users\stapi\AppData\Local\Temp\cciwadCd.s:11480  .debug_str:0000000000001999 .LASF51
C:\Users\stapi\AppData\Local\Temp\cciwadCd.s:11016  .debug_str:0000000000000a4a .LASF52
C:\Users\stapi\AppData\Local\Temp\cciwadCd.s:10710  .debug_str:0000000000000112 .LASF53
C:\Users\stapi\AppData\Local\Temp\cciwadCd.s:10804  .debug_str:00000000000003f1 .LASF54
C:\Users\stapi\AppData\Local\Temp\cciwadCd.s:10896  .debug_str:000000000000067c .LASF55
C:\Users\stapi\AppData\Local\Temp\cciwadCd.s:11446  .debug_str:000000000000186d .LASF56
C:\Users\stapi\AppData\Local\Temp\cciwadCd.s:11300  .debug_str:000000000000140b .LASF57
C:\Users\stapi\AppData\Local\Temp\cciwadCd.s:10822  .debug_str:000000000000047f .LASF58
C:\Users\stapi\AppData\Local\Temp\cciwadCd.s:10956  .debug_str:000000000000089d .LASF59
C:\Users\stapi\AppData\Local\Temp\cciwadCd.s:11006  .debug_str:00000000000009f9 .LASF60
C:\Users\stapi\AppData\Local\Temp\cciwadCd.s:11508  .debug_str:0000000000001a89 .LASF61
C:\Users\stapi\AppData\Local\Temp\cciwadCd.s:10788  .debug_str:000000000000037e .LASF63
C:\Users\stapi\AppData\Local\Temp\cciwadCd.s:11386  .debug_str:0000000000001676 .LASF64
C:\Users\stapi\AppData\Local\Temp\cciwadCd.s:11316  .debug_str:0000000000001476 .LASF66
C:\Users\stapi\AppData\Local\Temp\cciwadCd.s:10872  .debug_str:00000000000005d7 .LASF67
C:\Users\stapi\AppData\Local\Temp\cciwadCd.s:10888  .debug_str:0000000000000647 .LASF68
C:\Users\stapi\AppData\Local\Temp\cciwadCd.s:11204  .debug_str:0000000000000fd1 .LASF69
C:\Users\stapi\AppData\Local\Temp\cciwadCd.s:10844  .debug_str:000000000000050a .LASF70
C:\Users\stapi\AppData\Local\Temp\cciwadCd.s:10886  .debug_str:0000000000000642 .LASF71
C:\Users\stapi\AppData\Local\Temp\cciwadCd.s:10850  .debug_str:0000000000000545 .LASF72
C:\Users\stapi\AppData\Local\Temp\cciwadCd.s:11452  .debug_str:0000000000001896 .LASF73
C:\Users\stapi\AppData\Local\Temp\cciwadCd.s:11226  .debug_str:0000000000001089 .LASF74
C:\Users\stapi\AppData\Local\Temp\cciwadCd.s:10826  .debug_str:000000000000048f .LASF75
C:\Users\stapi\AppData\Local\Temp\cciwadCd.s:11074  .debug_str:0000000000000c22 .LASF76
C:\Users\stapi\AppData\Local\Temp\cciwadCd.s:11350  .debug_str:0000000000001573 .LASF77
C:\Users\stapi\AppData\Local\Temp\cciwadCd.s:11102  .debug_str:0000000000000cd8 .LASF78
C:\Users\stapi\AppData\Local\Temp\cciwadCd.s:11024  .debug_str:0000000000000a88 .LASF79
C:\Users\stapi\AppData\Local\Temp\cciwadCd.s:11532  .debug_str:0000000000001b3d .LASF80
C:\Users\stapi\AppData\Local\Temp\cciwadCd.s:11208  .debug_str:0000000000000fe9 .LASF81
C:\Users\stapi\AppData\Local\Temp\cciwadCd.s:11076  .debug_str:0000000000000c2c .LASF82
C:\Users\stapi\AppData\Local\Temp\cciwadCd.s:11186  .debug_str:0000000000000f60 .LASF83
C:\Users\stapi\AppData\Local\Temp\cciwadCd.s:10692  .debug_str:0000000000000090 .LASF84
C:\Users\stapi\AppData\Local\Temp\cciwadCd.s:10918  .debug_str:00000000000007a6 .LASF85
C:\Users\stapi\AppData\Local\Temp\cciwadCd.s:10806  .debug_str:00000000000003fa .LASF86
C:\Users\stapi\AppData\Local\Temp\cciwadCd.s:11110  .debug_str:0000000000000d15 .LASF87
C:\Users\stapi\AppData\Local\Temp\cciwadCd.s:11052  .debug_str:0000000000000b70 .LASF88
C:\Users\stapi\AppData\Local\Temp\cciwadCd.s:11096  .debug_str:0000000000000ca3 .LASF89
C:\Users\stapi\AppData\Local\Temp\cciwadCd.s:11066  .debug_str:0000000000000bc2 .LASF90
C:\Users\stapi\AppData\Local\Temp\cciwadCd.s:11346  .debug_str:000000000000154b .LASF91
C:\Users\stapi\AppData\Local\Temp\cciwadCd.s:11156  .debug_str:0000000000000e69 .LASF92
C:\Users\stapi\AppData\Local\Temp\cciwadCd.s:10760  .debug_str:00000000000002a0 .LASF93
C:\Users\stapi\AppData\Local\Temp\cciwadCd.s:11478  .debug_str:0000000000001985 .LASF94
C:\Users\stapi\AppData\Local\Temp\cciwadCd.s:10714  .debug_str:0000000000000128 .LASF95
C:\Users\stapi\AppData\Local\Temp\cciwadCd.s:11472  .debug_str:0000000000001957 .LASF96
C:\Users\stapi\AppData\Local\Temp\cciwadCd.s:10742  .debug_str:00000000000001ff .LASF97
C:\Users\stapi\AppData\Local\Temp\cciwadCd.s:10834  .debug_str:00000000000004b8 .LASF98
C:\Users\stapi\AppData\Local\Temp\cciwadCd.s:11426  .debug_str:00000000000017c7 .LASF99
C:\Users\stapi\AppData\Local\Temp\cciwadCd.s:11394  .debug_str:00000000000016c9 .LASF100
C:\Users\stapi\AppData\Local\Temp\cciwadCd.s:11408  .debug_str:0000000000001746 .LASF101
C:\Users\stapi\AppData\Local\Temp\cciwadCd.s:11504  .debug_str:0000000000001a68 .LASF102
C:\Users\stapi\AppData\Local\Temp\cciwadCd.s:10746  .debug_str:0000000000000219 .LASF103
C:\Users\stapi\AppData\Local\Temp\cciwadCd.s:11140  .debug_str:0000000000000e02 .LASF104
C:\Users\stapi\AppData\Local\Temp\cciwadCd.s:11166  .debug_str:0000000000000ec1 .LASF105
C:\Users\stapi\AppData\Local\Temp\cciwadCd.s:11304  .debug_str:0000000000001423 .LASF106
C:\Users\stapi\AppData\Local\Temp\cciwadCd.s:11534  .debug_str:0000000000001b42 .LASF107
C:\Users\stapi\AppData\Local\Temp\cciwadCd.s:11290  .debug_str:00000000000013bf .LASF108
C:\Users\stapi\AppData\Local\Temp\cciwadCd.s:10978  .debug_str:000000000000091e .LASF109
C:\Users\stapi\AppData\Local\Temp\cciwadCd.s:11012  .debug_str:0000000000000a26 .LASF110
C:\Users\stapi\AppData\Local\Temp\cciwadCd.s:10846  .debug_str:000000000000051c .LASF111
C:\Users\stapi\AppData\Local\Temp\cciwadCd.s:11506  .debug_str:0000000000001a75 .LASF112
C:\Users\stapi\AppData\Local\Temp\cciwadCd.s:11234  .debug_str:00000000000010d7 .LASF113
C:\Users\stapi\AppData\Local\Temp\cciwadCd.s:11358  .debug_str:00000000000015a7 .LASF114
C:\Users\stapi\AppData\Local\Temp\cciwadCd.s:11336  .debug_str:00000000000014ff .LASF115
C:\Users\stapi\AppData\Local\Temp\cciwadCd.s:10882  .debug_str:000000000000062d .LASF116
C:\Users\stapi\AppData\Local\Temp\cciwadCd.s:11122  .debug_str:0000000000000d68 .LASF117
C:\Users\stapi\AppData\Local\Temp\cciwadCd.s:11306  .debug_str:000000000000143f .LASF118
C:\Users\stapi\AppData\Local\Temp\cciwadCd.s:11210  .debug_str:0000000000000ffd .LASF119
C:\Users\stapi\AppData\Local\Temp\cciwadCd.s:10728  .debug_str:000000000000019a .LASF120
C:\Users\stapi\AppData\Local\Temp\cciwadCd.s:11368  .debug_str:00000000000015e9 .LASF121
C:\Users\stapi\AppData\Local\Temp\cciwadCd.s:10922  .debug_str:00000000000007bb .LASF122
C:\Users\stapi\AppData\Local\Temp\cciwadCd.s:11064  .debug_str:0000000000000bb9 .LASF123
C:\Users\stapi\AppData\Local\Temp\cciwadCd.s:10932  .debug_str:00000000000007f6 .LASF124
C:\Users\stapi\AppData\Local\Temp\cciwadCd.s:11302  .debug_str:000000000000141b .LASF125
C:\Users\stapi\AppData\Local\Temp\cciwadCd.s:10778  .debug_str:0000000000000340 .LASF126
C:\Users\stapi\AppData\Local\Temp\cciwadCd.s:11540  .debug_str:0000000000001b74 .LASF127
C:\Users\stapi\AppData\Local\Temp\cciwadCd.s:11360  .debug_str:00000000000015ae .LASF128
C:\Users\stapi\AppData\Local\Temp\cciwadCd.s:10748  .debug_str:000000000000022c .LASF129
C:\Users\stapi\AppData\Local\Temp\cciwadCd.s:10732  .debug_str:00000000000001ab .LASF130
C:\Users\stapi\AppData\Local\Temp\cciwadCd.s:11384  .debug_str:0000000000001667 .LASF131
C:\Users\stapi\AppData\Local\Temp\cciwadCd.s:10794  .debug_str:00000000000003ad .LASF132
C:\Users\stapi\AppData\Local\Temp\cciwadCd.s:10672  .debug_str:0000000000000000 .LASF133
C:\Users\stapi\AppData\Local\Temp\cciwadCd.s:11242  .debug_str:0000000000001114 .LASF134
C:\Users\stapi\AppData\Local\Temp\cciwadCd.s:10816  .debug_str:0000000000000447 .LASF135
C:\Users\stapi\AppData\Local\Temp\cciwadCd.s:11146  .debug_str:0000000000000e20 .LASF136
C:\Users\stapi\AppData\Local\Temp\cciwadCd.s:10762  .debug_str:00000000000002ae .LASF137
C:\Users\stapi\AppData\Local\Temp\cciwadCd.s:10942  .debug_str:0000000000000840 .LASF138
C:\Users\stapi\AppData\Local\Temp\cciwadCd.s:11414  .debug_str:000000000000176b .LASF139
C:\Users\stapi\AppData\Local\Temp\cciwadCd.s:10772  .debug_str:0000000000000310 .LASF140
C:\Users\stapi\AppData\Local\Temp\cciwadCd.s:11276  .debug_str:0000000000001315 .LASF141
C:\Users\stapi\AppData\Local\Temp\cciwadCd.s:11228  .debug_str:0000000000001099 .LASF142
C:\Users\stapi\AppData\Local\Temp\cciwadCd.s:11468  .debug_str:000000000000191d .LASF143
C:\Users\stapi\AppData\Local\Temp\cciwadCd.s:11392  .debug_str:00000000000016a4 .LASF144
C:\Users\stapi\AppData\Local\Temp\cciwadCd.s:10862  .debug_str:000000000000057c .LASF145
C:\Users\stapi\AppData\Local\Temp\cciwadCd.s:11036  .debug_str:0000000000000ada .LASF146
C:\Users\stapi\AppData\Local\Temp\cciwadCd.s:11288  .debug_str:000000000000139b .LASF147
C:\Users\stapi\AppData\Local\Temp\cciwadCd.s:10694  .debug_str:0000000000000095 .LASF148
C:\Users\stapi\AppData\Local\Temp\cciwadCd.s:11520  .debug_str:0000000000001ae2 .LASF149
C:\Users\stapi\AppData\Local\Temp\cciwadCd.s:11294  .debug_str:00000000000013e1 .LASF150
C:\Users\stapi\AppData\Local\Temp\cciwadCd.s:10700  .debug_str:00000000000000d1 .LASF151
C:\Users\stapi\AppData\Local\Temp\cciwadCd.s:11370  .debug_str:00000000000015f5 .LASF152
C:\Users\stapi\AppData\Local\Temp\cciwadCd.s:11150  .debug_str:0000000000000e33 .LASF153
C:\Users\stapi\AppData\Local\Temp\cciwadCd.s:10798  .debug_str:00000000000003cf .LASF154
C:\Users\stapi\AppData\Local\Temp\cciwadCd.s:11518  .debug_str:0000000000001ad1 .LASF155
C:\Users\stapi\AppData\Local\Temp\cciwadCd.s:10880  .debug_str:000000000000061a .LASF156
C:\Users\stapi\AppData\Local\Temp\cciwadCd.s:11424  .debug_str:00000000000017ba .LASF157
C:\Users\stapi\AppData\Local\Temp\cciwadCd.s:11170  .debug_str:0000000000000ee8 .LASF158
C:\Users\stapi\AppData\Local\Temp\cciwadCd.s:11374  .debug_str:0000000000001617 .LASF159
C:\Users\stapi\AppData\Local\Temp\cciwadCd.s:10688  .debug_str:000000000000007b .LASF160
C:\Users\stapi\AppData\Local\Temp\cciwadCd.s:11416  .debug_str:0000000000001789 .LASF161
C:\Users\stapi\AppData\Local\Temp\cciwadCd.s:11168  .debug_str:0000000000000ed9 .LASF162
C:\Users\stapi\AppData\Local\Temp\cciwadCd.s:10910  .debug_str:000000000000075a .LASF163
C:\Users\stapi\AppData\Local\Temp\cciwadCd.s:10878  .debug_str:0000000000000601 .LASF164
C:\Users\stapi\AppData\Local\Temp\cciwadCd.s:11554  .debug_str:0000000000001c6f .LASF165
C:\Users\stapi\AppData\Local\Temp\cciwadCd.s:11254  .debug_str:0000000000001267 .LASF166
C:\Users\stapi\AppData\Local\Temp\cciwadCd.s:11376  .debug_str:0000000000001629 .LASF167
C:\Users\stapi\AppData\Local\Temp\cciwadCd.s:11216  .debug_str:0000000000001030 .LASF168
C:\Users\stapi\AppData\Local\Temp\cciwadCd.s:10758  .debug_str:0000000000000283 .LASF169
C:\Users\stapi\AppData\Local\Temp\cciwadCd.s:11244  .debug_str:000000000000111d .LASF170
C:\Users\stapi\AppData\Local\Temp\cciwadCd.s:11552  .debug_str:0000000000001c54 .LASF171
C:\Users\stapi\AppData\Local\Temp\cciwadCd.s:11530  .debug_str:0000000000001b21 .LASF172
C:\Users\stapi\AppData\Local\Temp\cciwadCd.s:11470  .debug_str:000000000000193d .LASF173
C:\Users\stapi\AppData\Local\Temp\cciwadCd.s:10982  .debug_str:0000000000000949 .LASF174
C:\Users\stapi\AppData\Local\Temp\cciwadCd.s:11070  .debug_str:0000000000000bf0 .LASF175
C:\Users\stapi\AppData\Local\Temp\cciwadCd.s:11134  .debug_str:0000000000000dc0 .LASF176
C:\Users\stapi\AppData\Local\Temp\cciwadCd.s:11442  .debug_str:000000000000185a .LASF177
C:\Users\stapi\AppData\Local\Temp\cciwadCd.s:10730  .debug_str:00000000000001a4 .LASF178
C:\Users\stapi\AppData\Local\Temp\cciwadCd.s:11270  .debug_str:00000000000012e8 .LASF179
C:\Users\stapi\AppData\Local\Temp\cciwadCd.s:11014  .debug_str:0000000000000a39 .LASF180
C:\Users\stapi\AppData\Local\Temp\cciwadCd.s:11378  .debug_str:0000000000001640 .LASF181
C:\Users\stapi\AppData\Local\Temp\cciwadCd.s:11054  .debug_str:0000000000000b86 .LASF182
C:\Users\stapi\AppData\Local\Temp\cciwadCd.s:11274  .debug_str:0000000000001308 .LASF183
C:\Users\stapi\AppData\Local\Temp\cciwadCd.s:11080  .debug_str:0000000000000c3a .LASF184
C:\Users\stapi\AppData\Local\Temp\cciwadCd.s:10944  .debug_str:0000000000000855 .LASF185
C:\Users\stapi\AppData\Local\Temp\cciwadCd.s:10926  .debug_str:00000000000007db .LASF186
C:\Users\stapi\AppData\Local\Temp\cciwadCd.s:11116  .debug_str:0000000000000d3d .LASF187
C:\Users\stapi\AppData\Local\Temp\cciwadCd.s:11126  .debug_str:0000000000000d84 .LASF188
C:\Users\stapi\AppData\Local\Temp\cciwadCd.s:10852  .debug_str:000000000000054b .LASF189
C:\Users\stapi\AppData\Local\Temp\cciwadCd.s:10946  .debug_str:0000000000000863 .LASF190
C:\Users\stapi\AppData\Local\Temp\cciwadCd.s:11484  .debug_str:00000000000019cd .LASF191
C:\Users\stapi\AppData\Local\Temp\cciwadCd.s:11236  .debug_str:00000000000010eb .LASF192
C:\Users\stapi\AppData\Local\Temp\cciwadCd.s:11246  .debug_str:000000000000113a .LASF193
C:\Users\stapi\AppData\Local\Temp\cciwadCd.s:10974  .debug_str:000000000000090a .LASF194
C:\Users\stapi\AppData\Local\Temp\cciwadCd.s:11326  .debug_str:00000000000014af .LASF195
C:\Users\stapi\AppData\Local\Temp\cciwadCd.s:11118  .debug_str:0000000000000d48 .LASF196
C:\Users\stapi\AppData\Local\Temp\cciwadCd.s:11388  .debug_str:0000000000001682 .LASF197
C:\Users\stapi\AppData\Local\Temp\cciwadCd.s:11332  .debug_str:00000000000014dc .LASF198
C:\Users\stapi\AppData\Local\Temp\cciwadCd.s:10990  .debug_str:000000000000098e .LASF199
C:\Users\stapi\AppData\Local\Temp\cciwadCd.s:11444  .debug_str:000000000000185f .LASF200
C:\Users\stapi\AppData\Local\Temp\cciwadCd.s:11318  .debug_str:000000000000147f .LASF201
C:\Users\stapi\AppData\Local\Temp\cciwadCd.s:11372  .debug_str:000000000000160d .LASF202
C:\Users\stapi\AppData\Local\Temp\cciwadCd.s:11088  .debug_str:0000000000000c79 .LASF203
C:\Users\stapi\AppData\Local\Temp\cciwadCd.s:11380  .debug_str:000000000000164c .LASF204
C:\Users\stapi\AppData\Local\Temp\cciwadCd.s:10986  .debug_str:0000000000000972 .LASF205
C:\Users\stapi\AppData\Local\Temp\cciwadCd.s:11330  .debug_str:00000000000014c2 .LASF206
C:\Users\stapi\AppData\Local\Temp\cciwadCd.s:10908  .debug_str:0000000000000752 .LASF207
C:\Users\stapi\AppData\Local\Temp\cciwadCd.s:11138  .debug_str:0000000000000def .LASF208
C:\Users\stapi\AppData\Local\Temp\cciwadCd.s:11144  .debug_str:0000000000000e18 .LASF209
C:\Users\stapi\AppData\Local\Temp\cciwadCd.s:10722  .debug_str:000000000000016b .LASF210
C:\Users\stapi\AppData\Local\Temp\cciwadCd.s:10780  .debug_str:0000000000000347 .LASF211
C:\Users\stapi\AppData\Local\Temp\cciwadCd.s:10936  .debug_str:0000000000000811 .LASF212
C:\Users\stapi\AppData\Local\Temp\cciwadCd.s:10962  .debug_str:00000000000008c4 .LASF213
C:\Users\stapi\AppData\Local\Temp\cciwadCd.s:11240  .debug_str:000000000000110b .LASF214
C:\Users\stapi\AppData\Local\Temp\cciwadCd.s:11526  .debug_str:0000000000001b0e .LASF215
C:\Users\stapi\AppData\Local\Temp\cciwadCd.s:11482  .debug_str:00000000000019b3 .LASF216
C:\Users\stapi\AppData\Local\Temp\cciwadCd.s:11454  .debug_str:00000000000018a8 .LASF217
C:\Users\stapi\AppData\Local\Temp\cciwadCd.s:11544  .debug_str:0000000000001c14 .LASF218
C:\Users\stapi\AppData\Local\Temp\cciwadCd.s:11124  .debug_str:0000000000000d72 .LASF219
C:\Users\stapi\AppData\Local\Temp\cciwadCd.s:10820  .debug_str:0000000000000466 .LASF220
C:\Users\stapi\AppData\Local\Temp\cciwadCd.s:11068  .debug_str:0000000000000bda .LASF221
C:\Users\stapi\AppData\Local\Temp\cciwadCd.s:10770  .debug_str:00000000000002fe .LASF222
C:\Users\stapi\AppData\Local\Temp\cciwadCd.s:10808  .debug_str:000000000000040e .LASF223
C:\Users\stapi\AppData\Local\Temp\cciwadCd.s:11192  .debug_str:0000000000000f91 .LASF224
C:\Users\stapi\AppData\Local\Temp\cciwadCd.s:11398  .debug_str:00000000000016e4 .LASF225
C:\Users\stapi\AppData\Local\Temp\cciwadCd.s:10708  .debug_str:0000000000000107 .LASF226
C:\Users\stapi\AppData\Local\Temp\cciwadCd.s:10752  .debug_str:0000000000000250 .LASF227
C:\Users\stapi\AppData\Local\Temp\cciwadCd.s:10796  .debug_str:00000000000003b9 .LASF228
C:\Users\stapi\AppData\Local\Temp\cciwadCd.s:11308  .debug_str:0000000000001448 .LASF229
C:\Users\stapi\AppData\Local\Temp\cciwadCd.s:10686  .debug_str:0000000000000063 .LASF230
C:\Users\stapi\AppData\Local\Temp\cciwadCd.s:11404  .debug_str:0000000000001728 .LASF231
C:\Users\stapi\AppData\Local\Temp\cciwadCd.s:10766  .debug_str:00000000000002c9 .LASF232
C:\Users\stapi\AppData\Local\Temp\cciwadCd.s:11164  .debug_str:0000000000000e9b .LASF233
C:\Users\stapi\AppData\Local\Temp\cciwadCd.s:11248  .debug_str:000000000000114e .LASF234
C:\Users\stapi\AppData\Local\Temp\cciwadCd.s:10786  .debug_str:0000000000000364 .LASF235
C:\Users\stapi\AppData\Local\Temp\cciwadCd.s:10954  .debug_str:000000000000088b .LASF236
C:\Users\stapi\AppData\Local\Temp\cciwadCd.s:11030  .debug_str:0000000000000aae .LASF237
C:\Users\stapi\AppData\Local\Temp\cciwadCd.s:11550  .debug_str:0000000000001c4b .LASF238
C:\Users\stapi\AppData\Local\Temp\cciwadCd.s:11286  .debug_str:0000000000001380 .LASF239
C:\Users\stapi\AppData\Local\Temp\cciwadCd.s:11002  .debug_str:00000000000009ea .LASF240
C:\Users\stapi\AppData\Local\Temp\cciwadCd.s:11206  .debug_str:0000000000000fd6 .LASF241
C:\Users\stapi\AppData\Local\Temp\cciwadCd.s:10776  .debug_str:0000000000000338 .LASF242
C:\Users\stapi\AppData\Local\Temp\cciwadCd.s:10812  .debug_str:0000000000000426 .LASF243
C:\Users\stapi\AppData\Local\Temp\cciwadCd.s:11264  .debug_str:00000000000012b2 .LASF244
C:\Users\stapi\AppData\Local\Temp\cciwadCd.s:11214  .debug_str:0000000000001018 .LASF245
C:\Users\stapi\AppData\Local\Temp\cciwadCd.s:10892  .debug_str:0000000000000663 .LASF246
C:\Users\stapi\AppData\Local\Temp\cciwadCd.s:10976  .debug_str:0000000000000915 .LASF247
C:\Users\stapi\AppData\Local\Temp\cciwadCd.s:10884  .debug_str:0000000000000638 .LASF248
C:\Users\stapi\AppData\Local\Temp\cciwadCd.s:11406  .debug_str:000000000000173c .LASF249
C:\Users\stapi\AppData\Local\Temp\cciwadCd.s:11172  .debug_str:0000000000000ef6 .LASF250
C:\Users\stapi\AppData\Local\Temp\cciwadCd.s:11044  .debug_str:0000000000000b37 .LASF251
C:\Users\stapi\AppData\Local\Temp\cciwadCd.s:10948  .debug_str:0000000000000869 .LASF252
C:\Users\stapi\AppData\Local\Temp\cciwadCd.s:11160  .debug_str:0000000000000e80 .LASF253
C:\Users\stapi\AppData\Local\Temp\cciwadCd.s:11500  .debug_str:0000000000001a4f .LASF254
C:\Users\stapi\AppData\Local\Temp\cciwadCd.s:10868  .debug_str:00000000000005ba .LASF255
C:\Users\stapi\AppData\Local\Temp\cciwadCd.s:10678  .debug_str:000000000000002d .LASF256
C:\Users\stapi\AppData\Local\Temp\cciwadCd.s:11320  .debug_str:0000000000001488 .LASF257
C:\Users\stapi\AppData\Local\Temp\cciwadCd.s:11258  .debug_str:0000000000001288 .LASF258
C:\Users\stapi\AppData\Local\Temp\cciwadCd.s:10706  .debug_str:00000000000000f2 .LASF259
C:\Users\stapi\AppData\Local\Temp\cciwadCd.s:10676  .debug_str:000000000000001d .LASF276
C:\Users\stapi\AppData\Local\Temp\cciwadCd.s:11536  .debug_str:0000000000001b5e .LASF260
C:\Users\stapi\AppData\Local\Temp\cciwadCd.s:11556  .debug_str:0000000000001c78 .LASF261
C:\Users\stapi\AppData\Local\Temp\cciwadCd.s:10736  .debug_str:00000000000001d6 .LASF262
C:\Users\stapi\AppData\Local\Temp\cciwadCd.s:10958  .debug_str:00000000000008b1 .LASF263
C:\Users\stapi\AppData\Local\Temp\cciwadCd.s:11528  .debug_str:0000000000001b15 .LASF264
C:\Users\stapi\AppData\Local\Temp\cciwadCd.s:10856  .debug_str:000000000000055d .LASF265
C:\Users\stapi\AppData\Local\Temp\cciwadCd.s:11198  .debug_str:0000000000000fb0 .LASF266
C:\Users\stapi\AppData\Local\Temp\cciwadCd.s:11418  .debug_str:000000000000178f .LASF267
C:\Users\stapi\AppData\Local\Temp\cciwadCd.s:10828  .debug_str:0000000000000494 .LASF268
C:\Users\stapi\AppData\Local\Temp\cciwadCd.s:11448  .debug_str:000000000000187a .LASF269
C:\Users\stapi\AppData\Local\Temp\cciwadCd.s:11056  .debug_str:0000000000000b8f .LASF270
C:\Users\stapi\AppData\Local\Temp\cciwadCd.s:11314  .debug_str:0000000000001470 .LASF271
C:\Users\stapi\AppData\Local\Temp\cciwadCd.s:10818  .debug_str:0000000000000453 .LASF272
C:\Users\stapi\AppData\Local\Temp\cciwadCd.s:10734  .debug_str:00000000000001ba .LASF273
C:\Users\stapi\AppData\Local\Temp\cciwadCd.s:11224  .debug_str:0000000000001083 .LASF274
C:\Users\stapi\AppData\Local\Temp\cciwadCd.s:10754  .debug_str:000000000000026b .LASF275
C:\Users\stapi\AppData\Local\Temp\cciwadCd.s:10810  .debug_str:0000000000000415 .LASF277
C:\Users\stapi\AppData\Local\Temp\cciwadCd.s:10988  .debug_str:0000000000000986 .LASF278
C:\Users\stapi\AppData\Local\Temp\cciwadCd.s:10698  .debug_str:00000000000000c4 .LASF279
C:\Users\stapi\AppData\Local\Temp\cciwadCd.s:11182  .debug_str:0000000000000f49 .LASF280
C:\Users\stapi\AppData\Local\Temp\cciwadCd.s:10984  .debug_str:0000000000000967 .LASF281
C:\Users\stapi\AppData\Local\Temp\cciwadCd.s:11344  .debug_str:0000000000001540 .LASF282
C:\Users\stapi\AppData\Local\Temp\cciwadCd.s:11390  .debug_str:000000000000168e .LASF283
C:\Users\stapi\AppData\Local\Temp\cciwadCd.s:11104  .debug_str:0000000000000ce3 .LASF284
C:\Users\stapi\AppData\Local\Temp\cciwadCd.s:10842  .debug_str:0000000000000504 .LASF285
C:\Users\stapi\AppData\Local\Temp\cciwadCd.s:10928  .debug_str:00000000000007e8 .LASF286
C:\Users\stapi\AppData\Local\Temp\cciwadCd.s:11000  .debug_str:00000000000009e2 .LASF287
C:\Users\stapi\AppData\Local\Temp\cciwadCd.s:11132  .debug_str:0000000000000da9 .LASF288
C:\Users\stapi\AppData\Local\Temp\cciwadCd.s:10866  .debug_str:00000000000005af .LASF289
C:\Users\stapi\AppData\Local\Temp\cciwadCd.s:11278  .debug_str:000000000000133a .LASF290
C:\Users\stapi\AppData\Local\Temp\cciwadCd.s:11362  .debug_str:00000000000015ba .LASF291
C:\Users\stapi\AppData\Local\Temp\cciwadCd.s:11460  .debug_str:00000000000018cd .LASF292
C:\Users\stapi\AppData\Local\Temp\cciwadCd.s:11194  .debug_str:0000000000000f9c .LASF293
C:\Users\stapi\AppData\Local\Temp\cciwadCd.s:11034  .debug_str:0000000000000acf .LASF294
C:\Users\stapi\AppData\Local\Temp\cciwadCd.s:11026  .debug_str:0000000000000a92 .LASF295
C:\Users\stapi\AppData\Local\Temp\cciwadCd.s:11450  .debug_str:0000000000001880 .LASF296
C:\Users\stapi\AppData\Local\Temp\cciwadCd.s:11284  .debug_str:0000000000001373 .LASF297
C:\Users\stapi\AppData\Local\Temp\cciwadCd.s:11184  .debug_str:0000000000000f56 .LASF298
C:\Users\stapi\AppData\Local\Temp\cciwadCd.s:10924  .debug_str:00000000000007c7 .LASF299
C:\Users\stapi\AppData\Local\Temp\cciwadCd.s:10906  .debug_str:0000000000000745 .LASF300
C:\Users\stapi\AppData\Local\Temp\cciwadCd.s:11098  .debug_str:0000000000000cb7 .LASF301
C:\Users\stapi\AppData\Local\Temp\cciwadCd.s:11152  .debug_str:0000000000000e54 .LASF302
C:\Users\stapi\AppData\Local\Temp\cciwadCd.s:10992  .debug_str:00000000000009a1 .LASF303
C:\Users\stapi\AppData\Local\Temp\cciwadCd.s:11546  .debug_str:0000000000001c22 .LASF304
C:\Users\stapi\AppData\Local\Temp\cciwadCd.s:10994  .debug_str:00000000000009b7 .LASF305
C:\Users\stapi\AppData\Local\Temp\cciwadCd.s:10768  .debug_str:00000000000002ef .LASF306
C:\Users\stapi\AppData\Local\Temp\cciwadCd.s:11272  .debug_str:00000000000012fa .LASF307
C:\Users\stapi\AppData\Local\Temp\cciwadCd.s:10756  .debug_str:0000000000000270 .LASF308
C:\Users\stapi\AppData\Local\Temp\cciwadCd.s:10682  .debug_str:000000000000004a .LASF309
C:\Users\stapi\AppData\Local\Temp\cciwadCd.s:11356  .debug_str:0000000000001597 .LASF310
C:\Users\stapi\AppData\Local\Temp\cciwadCd.s:11522  .debug_str:0000000000001af0 .LASF311
C:\Users\stapi\AppData\Local\Temp\cciwadCd.s:11462  .debug_str:00000000000018e1 .LASF312
C:\Users\stapi\AppData\Local\Temp\cciwadCd.s:10674  .debug_str:000000000000000b .LASF313
C:\Users\stapi\AppData\Local\Temp\cciwadCd.s:10960  .debug_str:00000000000008bb .LASF314
C:\Users\stapi\AppData\Local\Temp\cciwadCd.s:10874  .debug_str:00000000000005ea .LASF315
C:\Users\stapi\AppData\Local\Temp\cciwadCd.s:11342  .debug_str:0000000000001532 .LASF316
C:\Users\stapi\AppData\Local\Temp\cciwadCd.s:11490  .debug_str:00000000000019f7 .LASF317
C:\Users\stapi\AppData\Local\Temp\cciwadCd.s:11422  .debug_str:00000000000017a7 .LASF318
C:\Users\stapi\AppData\Local\Temp\cciwadCd.s:11514  .debug_str:0000000000001ab8 .LASF319
C:\Users\stapi\AppData\Local\Temp\cciwadCd.s:11020  .debug_str:0000000000000a5d .LASF320
C:\Users\stapi\AppData\Local\Temp\cciwadCd.s:10980  .debug_str:0000000000000934 .LASF321
C:\Users\stapi\AppData\Local\Temp\cciwadCd.s:11176  .debug_str:0000000000000f0d .LASF322
C:\Users\stapi\AppData\Local\Temp\cciwadCd.s:11100  .debug_str:0000000000000cc2 .LASF323
C:\Users\stapi\AppData\Local\Temp\cciwadCd.s:11436  .debug_str:0000000000001824 .LASF324
C:\Users\stapi\AppData\Local\Temp\cciwadCd.s:11174  .debug_str:0000000000000efc .LASF325
C:\Users\stapi\AppData\Local\Temp\cciwadCd.s:10764  .debug_str:00000000000002b8 .LASF326
C:\Users\stapi\AppData\Local\Temp\cciwadCd.s:10894  .debug_str:000000000000066b .LASF327
C:\Users\stapi\AppData\Local\Temp\cciwadCd.s:10904  .debug_str:0000000000000734 .LASF328
C:\Users\stapi\AppData\Local\Temp\cciwadCd.s:11238  .debug_str:0000000000001101 .LASF329
C:\Users\stapi\AppData\Local\Temp\cciwadCd.s:11412  .debug_str:0000000000001764 .LASF330
C:\Users\stapi\AppData\Local\Temp\cciwadCd.s:11260  .debug_str:000000000000129c .LASF331
C:\Users\stapi\AppData\Local\Temp\cciwadCd.s:10716  .debug_str:000000000000013e .LASF332
C:\Users\stapi\AppData\Local\Temp\cciwadCd.s:10740  .debug_str:00000000000001f1 .LASF333
C:\Users\stapi\AppData\Local\Temp\cciwadCd.s:10934  .debug_str:0000000000000801 .LASF334
C:\Users\stapi\AppData\Local\Temp\cciwadCd.s:11162  .debug_str:0000000000000e8a .LASF335
C:\Users\stapi\AppData\Local\Temp\cciwadCd.s:10864  .debug_str:00000000000005a1 .LASF336
C:\Users\stapi\AppData\Local\Temp\cciwadCd.s:11420  .debug_str:000000000000179c .LASF337
C:\Users\stapi\AppData\Local\Temp\cciwadCd.s:11004  .debug_str:00000000000009f0 .LASF338
C:\Users\stapi\AppData\Local\Temp\cciwadCd.s:10914  .debug_str:0000000000000782 .LASF339
C:\Users\stapi\AppData\Local\Temp\cciwadCd.s:10912  .debug_str:0000000000000774 .LASF340
C:\Users\stapi\AppData\Local\Temp\cciwadCd.s:10964  .debug_str:00000000000008cd .LASF341
C:\Users\stapi\AppData\Local\Temp\cciwadCd.s:10968  .debug_str:00000000000008e6 .LASF342
C:\Users\stapi\AppData\Local\Temp\cciwadCd.s:11072  .debug_str:0000000000000c10 .LASF343
C:\Users\stapi\AppData\Local\Temp\cciwadCd.s:10724  .debug_str:0000000000000170 .LASF344
C:\Users\stapi\AppData\Local\Temp\cciwadCd.s:11148  .debug_str:0000000000000e2c .LASF345
C:\Users\stapi\AppData\Local\Temp\cciwadCd.s:10800  .debug_str:00000000000003e4 .LASF346
C:\Users\stapi\AppData\Local\Temp\cciwadCd.s:11114  .debug_str:0000000000000d35 .LASF347
C:\Users\stapi\AppData\Local\Temp\cciwadCd.s:10998  .debug_str:00000000000009cf .LASF348
C:\Users\stapi\AppData\Local\Temp\cciwadCd.s:11432  .debug_str:0000000000001803 .LASF349
C:\Users\stapi\AppData\Local\Temp\cciwadCd.s:11136  .debug_str:0000000000000ddf .LASF350
C:\Users\stapi\AppData\Local\Temp\cciwadCd.s:11538  .debug_str:0000000000001b6c .LASF351
C:\Users\stapi\AppData\Local\Temp\cciwadCd.s:11516  .debug_str:0000000000001ac1 .LASF352
C:\Users\stapi\AppData\Local\Temp\cciwadCd.s:10830  .debug_str:000000000000049d .LASF353
C:\Users\stapi\AppData\Local\Temp\cciwadCd.s:10840  .debug_str:00000000000004f0 .LASF354
C:\Users\stapi\AppData\Local\Temp\cciwadCd.s:11180  .debug_str:0000000000000f3a .LASF355
C:\Users\stapi\AppData\Local\Temp\cciwadCd.s:11324  .debug_str:0000000000001498 .LASF356
C:\Users\stapi\AppData\Local\Temp\cciwadCd.s:10790  .debug_str:000000000000038a .LASF357
C:\Users\stapi\AppData\Local\Temp\cciwadCd.s:11230  .debug_str:00000000000010bd .LASF358
C:\Users\stapi\AppData\Local\Temp\cciwadCd.s:11050  .debug_str:0000000000000b63 .LASF359
C:\Users\stapi\AppData\Local\Temp\cciwadCd.s:11512  .debug_str:0000000000001aa8 .LASF360
C:\Users\stapi\AppData\Local\Temp\cciwadCd.s:10738  .debug_str:00000000000001e0 .LASF361
C:\Users\stapi\AppData\Local\Temp\cciwadCd.s:10720  .debug_str:000000000000015e .LASF362
C:\Users\stapi\AppData\Local\Temp\cciwadCd.s:11366  .debug_str:00000000000015dc .LASF363
C:\Users\stapi\AppData\Local\Temp\cciwadCd.s:10774  .debug_str:0000000000000329 .LASF364
C:\Users\stapi\AppData\Local\Temp\cciwadCd.s:11280  .debug_str:000000000000134a .LASF365
C:\Users\stapi\AppData\Local\Temp\cciwadCd.s:11082  .debug_str:0000000000000c4b .LASF366
C:\Users\stapi\AppData\Local\Temp\cciwadCd.s:11266  .debug_str:00000000000012c9 .LASF367
C:\Users\stapi\AppData\Local\Temp\cciwadCd.s:10750  .debug_str:0000000000000236 .LASF368
C:\Users\stapi\AppData\Local\Temp\cciwadCd.s:11396  .debug_str:00000000000016d6 .LASF369
C:\Users\stapi\AppData\Local\Temp\cciwadCd.s:11476  .debug_str:000000000000197a .LASF370
C:\Users\stapi\AppData\Local\Temp\cciwadCd.s:11402  .debug_str:0000000000001712 .LASF371
C:\Users\stapi\AppData\Local\Temp\cciwadCd.s:10690  .debug_str:0000000000000088 .LASF372
C:\Users\stapi\AppData\Local\Temp\cciwadCd.s:10696  .debug_str:00000000000000b9 .LASF373
C:\Users\stapi\AppData\Local\Temp\cciwadCd.s:10858  .debug_str:000000000000056b .LASF374
C:\Users\stapi\AppData\Local\Temp\cciwadCd.s:11434  .debug_str:0000000000001816 .LASF375
C:\Users\stapi\AppData\Local\Temp\cciwadCd.s:11178  .debug_str:0000000000000f22 .LASF376
C:\Users\stapi\AppData\Local\Temp\cciwadCd.s:11340  .debug_str:0000000000001517 .LASF377
C:\Users\stapi\AppData\Local\Temp\cciwadCd.s:10836  .debug_str:00000000000004c9 .LASF378
C:\Users\stapi\AppData\Local\Temp\cciwadCd.s:11458  .debug_str:00000000000018c7 .LASF379
C:\Users\stapi\AppData\Local\Temp\cciwadCd.s:11190  .debug_str:0000000000000f85 .LASF380
C:\Users\stapi\AppData\Local\Temp\cciwadCd.s:11298  .debug_str:0000000000001403 .LASF381
C:\Users\stapi\AppData\Local\Temp\cciwadCd.s:10938  .debug_str:0000000000000822 .LASF383
C:\Users\stapi\AppData\Local\Temp\cciwadCd.s:1895   .text.pmksa_cache_auth_list:0000000000000000 .LFB154
C:\Users\stapi\AppData\Local\Temp\cciwadCd.s:2093   .text.pmksa_cache_auth_list:00000000000000dc .LFE154
C:\Users\stapi\AppData\Local\Temp\cciwadCd.s:9085   .debug_loc:0000000000000000 .LLST75
C:\Users\stapi\AppData\Local\Temp\cciwadCd.s:9107   .debug_loc:0000000000000037 .LLST76
C:\Users\stapi\AppData\Local\Temp\cciwadCd.s:9118   .debug_loc:0000000000000055 .LLST77
C:\Users\stapi\AppData\Local\Temp\cciwadCd.s:9140   .debug_loc:000000000000008c .LLST78
C:\Users\stapi\AppData\Local\Temp\cciwadCd.s:9153   .debug_loc:00000000000000ac .LLST79
C:\Users\stapi\AppData\Local\Temp\cciwadCd.s:9176   .debug_loc:00000000000000eb .LLST80
C:\Users\stapi\AppData\Local\Temp\cciwadCd.s:11078  .debug_str:0000000000000c34 .LASF382
C:\Users\stapi\AppData\Local\Temp\cciwadCd.s:9199   .debug_loc:000000000000012a .LLST81
C:\Users\stapi\AppData\Local\Temp\cciwadCd.s:1939   .text.pmksa_cache_auth_list:000000000000002e .LBB62
C:\Users\stapi\AppData\Local\Temp\cciwadCd.s:9214   .debug_loc:0000000000000153 .LLST82
C:\Users\stapi\AppData\Local\Temp\cciwadCd.s:9229   .debug_loc:000000000000017c .LLST83
C:\Users\stapi\AppData\Local\Temp\cciwadCd.s:1997   .text.pmksa_cache_auth_list:000000000000007e .LBB66
C:\Users\stapi\AppData\Local\Temp\cciwadCd.s:2005   .text.pmksa_cache_auth_list:0000000000000086 .LBE66
C:\Users\stapi\AppData\Local\Temp\cciwadCd.s:9240   .debug_loc:000000000000019a .LLST84
C:\Users\stapi\AppData\Local\Temp\cciwadCd.s:9247   .debug_loc:00000000000001ad .LLST85
C:\Users\stapi\AppData\Local\Temp\cciwadCd.s:2039   .text.pmksa_cache_auth_list:00000000000000bc .LBB68
C:\Users\stapi\AppData\Local\Temp\cciwadCd.s:9254   .debug_loc:00000000000001c0 .LLST86
C:\Users\stapi\AppData\Local\Temp\cciwadCd.s:9265   .debug_loc:00000000000001de .LLST87
C:\Users\stapi\AppData\Local\Temp\cciwadCd.s:1929   .text.pmksa_cache_auth_list:000000000000001a .LVL194
C:\Users\stapi\AppData\Local\Temp\cciwadCd.s:1937   .text.pmksa_cache_auth_list:000000000000002e .LVL195
C:\Users\stapi\AppData\Local\Temp\cciwadCd.s:1995   .text.pmksa_cache_auth_list:000000000000007e .LVL200
C:\Users\stapi\AppData\Local\Temp\cciwadCd.s:2018   .text.pmksa_cache_auth_list:000000000000009c .LVL204
C:\Users\stapi\AppData\Local\Temp\cciwadCd.s:2037   .text.pmksa_cache_auth_list:00000000000000bc .LVL206
C:\Users\stapi\AppData\Local\Temp\cciwadCd.s:11400  .debug_str:00000000000016eb .LASF384
C:\Users\stapi\AppData\Local\Temp\cciwadCd.s:1637   .text.pmksa_cache_auth_radius_das_disconnect:0000000000000000 .LFB153
C:\Users\stapi\AppData\Local\Temp\cciwadCd.s:1878   .text.pmksa_cache_auth_radius_das_disconnect:00000000000000da .LFE153
C:\Users\stapi\AppData\Local\Temp\cciwadCd.s:9276   .debug_loc:00000000000001fc .LLST67
C:\Users\stapi\AppData\Local\Temp\cciwadCd.s:9298   .debug_loc:0000000000000233 .LLST68
C:\Users\stapi\AppData\Local\Temp\cciwadCd.s:10802  .debug_str:00000000000003eb .LASF385
C:\Users\stapi\AppData\Local\Temp\cciwadCd.s:9313   .debug_loc:000000000000025c .LLST69
C:\Users\stapi\AppData\Local\Temp\cciwadCd.s:9330   .debug_loc:0000000000000287 .LLST70
C:\Users\stapi\AppData\Local\Temp\cciwadCd.s:9345   .debug_loc:00000000000002b0 .LLST71
C:\Users\stapi\AppData\Local\Temp\cciwadCd.s:1670   .text.pmksa_cache_auth_radius_das_disconnect:0000000000000018 .LBB50
C:\Users\stapi\AppData\Local\Temp\cciwadCd.s:9356   .debug_loc:00000000000002ce .LLST72
C:\Users\stapi\AppData\Local\Temp\cciwadCd.s:9367   .debug_loc:00000000000002ec .LLST73
C:\Users\stapi\AppData\Local\Temp\cciwadCd.s:9378   .debug_loc:000000000000030a .LLST74
C:\Users\stapi\AppData\Local\Temp\cciwadCd.s:1743   .text.pmksa_cache_auth_radius_das_disconnect:000000000000006a .LVL174
C:\Users\stapi\AppData\Local\Temp\cciwadCd.s:1750   .text.pmksa_cache_auth_radius_das_disconnect:0000000000000078 .LVL175
C:\Users\stapi\AppData\Local\Temp\cciwadCd.s:1772   .text.pmksa_cache_auth_radius_das_disconnect:0000000000000086 .LBB54
C:\Users\stapi\AppData\Local\Temp\cciwadCd.s:1777   .text.pmksa_cache_auth_radius_das_disconnect:0000000000000086 .LBE54
C:\Users\stapi\AppData\Local\Temp\cciwadCd.s:1782   .text.pmksa_cache_auth_radius_das_disconnect:000000000000008c .LBB56
C:\Users\stapi\AppData\Local\Temp\cciwadCd.s:1786   .text.pmksa_cache_auth_radius_das_disconnect:000000000000008c .LBE56
C:\Users\stapi\AppData\Local\Temp\cciwadCd.s:1719   .text.pmksa_cache_auth_radius_das_disconnect:0000000000000044 .LVL172
C:\Users\stapi\AppData\Local\Temp\cciwadCd.s:1790   .text.pmksa_cache_auth_radius_das_disconnect:0000000000000096 .LVL179
C:\Users\stapi\AppData\Local\Temp\cciwadCd.s:1815   .text.pmksa_cache_auth_radius_das_disconnect:00000000000000b2 .LVL181
C:\Users\stapi\AppData\Local\Temp\cciwadCd.s:1835   .text.pmksa_cache_auth_radius_das_disconnect:00000000000000c6 .LVL184
C:\Users\stapi\AppData\Local\Temp\cciwadCd.s:11032  .debug_str:0000000000000ac0 .LASF410
C:\Users\stapi\AppData\Local\Temp\cciwadCd.s:11128  .debug_str:0000000000000d91 .LASF386
C:\Users\stapi\AppData\Local\Temp\cciwadCd.s:11496  .debug_str:0000000000001a24 .LASF387
C:\Users\stapi\AppData\Local\Temp\cciwadCd.s:1587   .text.pmksa_cache_auth_init:0000000000000000 .LFB151
C:\Users\stapi\AppData\Local\Temp\cciwadCd.s:1626   .text.pmksa_cache_auth_init:000000000000002a .LFE151
C:\Users\stapi\AppData\Local\Temp\cciwadCd.s:9395   .debug_loc:0000000000000335 .LLST65
C:\Users\stapi\AppData\Local\Temp\cciwadCd.s:9406   .debug_loc:0000000000000353 .LLST66
C:\Users\stapi\AppData\Local\Temp\cciwadCd.s:1607   .text.pmksa_cache_auth_init:0000000000000018 .LVL167
C:\Users\stapi\AppData\Local\Temp\cciwadCd.s:11108  .debug_str:0000000000000d01 .LASF388
C:\Users\stapi\AppData\Local\Temp\cciwadCd.s:1474   .text.pmksa_cache_get_okc:0000000000000000 .LFB150
C:\Users\stapi\AppData\Local\Temp\cciwadCd.s:1580   .text.pmksa_cache_get_okc:0000000000000076 .LFE150
C:\Users\stapi\AppData\Local\Temp\cciwadCd.s:9417   .debug_loc:0000000000000371 .LLST61
C:\Users\stapi\AppData\Local\Temp\cciwadCd.s:9431   .debug_loc:0000000000000392 .LLST62
C:\Users\stapi\AppData\Local\Temp\cciwadCd.s:9442   .debug_loc:00000000000003b0 .LLST63
C:\Users\stapi\AppData\Local\Temp\cciwadCd.s:9453   .debug_loc:00000000000003ce .LLST64
C:\Users\stapi\AppData\Local\Temp\cciwadCd.s:11058  .debug_str:0000000000000b9c .LASF389
C:\Users\stapi\AppData\Local\Temp\cciwadCd.s:1528   .text.pmksa_cache_get_okc:0000000000000036 .LBB41
C:\Users\stapi\AppData\Local\Temp\cciwadCd.s:1532   .text.pmksa_cache_get_okc:0000000000000036 .LBE41
C:\Users\stapi\AppData\Local\Temp\cciwadCd.s:1514   .text.pmksa_cache_get_okc:000000000000002e .LVL159
C:\Users\stapi\AppData\Local\Temp\cciwadCd.s:1546   .text.pmksa_cache_get_okc:000000000000004c .LVL163
C:\Users\stapi\AppData\Local\Temp\cciwadCd.s:1572   .text.pmksa_cache_get_okc:000000000000006e .LVL164
C:\Users\stapi\AppData\Local\Temp\cciwadCd.s:10680  .debug_str:0000000000000035 .LASF390
C:\Users\stapi\AppData\Local\Temp\cciwadCd.s:1196   .text.pmksa_cache_auth_get:0000000000000000 .LFB149
C:\Users\stapi\AppData\Local\Temp\cciwadCd.s:1302   .text.pmksa_cache_auth_get:0000000000000074 .LFE149
C:\Users\stapi\AppData\Local\Temp\cciwadCd.s:9472   .debug_loc:0000000000000402 .LLST42
C:\Users\stapi\AppData\Local\Temp\cciwadCd.s:9497   .debug_loc:000000000000043c .LLST43
C:\Users\stapi\AppData\Local\Temp\cciwadCd.s:9508   .debug_loc:000000000000045a .LLST44
C:\Users\stapi\AppData\Local\Temp\cciwadCd.s:9552   .debug_loc:00000000000004c3 .LLST45
C:\Users\stapi\AppData\Local\Temp\cciwadCd.s:1244   .text.pmksa_cache_auth_get:0000000000000034 .LVL122
C:\Users\stapi\AppData\Local\Temp\cciwadCd.s:1266   .text.pmksa_cache_auth_get:0000000000000050 .LVL125
C:\Users\stapi\AppData\Local\Temp\cciwadCd.s:1293   .text.pmksa_cache_auth_get:000000000000006e .LVL129
C:\Users\stapi\AppData\Local\Temp\cciwadCd.s:11022  .debug_str:0000000000000a70 .LASF397
C:\Users\stapi\AppData\Local\Temp\cciwadCd.s:1108   .text.pmksa_cache_auth_deinit:0000000000000000 .LFB148
C:\Users\stapi\AppData\Local\Temp\cciwadCd.s:1189   .text.pmksa_cache_auth_deinit:0000000000000060 .LFE148
C:\Users\stapi\AppData\Local\Temp\cciwadCd.s:9571   .debug_loc:00000000000004f7 .LLST38
C:\Users\stapi\AppData\Local\Temp\cciwadCd.s:9586   .debug_loc:0000000000000520 .LLST39
C:\Users\stapi\AppData\Local\Temp\cciwadCd.s:9601   .debug_loc:0000000000000549 .LLST40
C:\Users\stapi\AppData\Local\Temp\cciwadCd.s:9608   .debug_loc:000000000000055c .LLST41
C:\Users\stapi\AppData\Local\Temp\cciwadCd.s:1139   .text.pmksa_cache_auth_deinit:0000000000000026 .LVL108
C:\Users\stapi\AppData\Local\Temp\cciwadCd.s:1155   .text.pmksa_cache_auth_deinit:000000000000003e .LVL110
C:\Users\stapi\AppData\Local\Temp\cciwadCd.s:1159   .text.pmksa_cache_auth_deinit:0000000000000048 .LVL111
C:\Users\stapi\AppData\Local\Temp\cciwadCd.s:1177   .text.pmksa_cache_auth_deinit:000000000000005a .LVL114
C:\Users\stapi\AppData\Local\Temp\cciwadCd.s:11334  .debug_str:00000000000014eb .LASF391
C:\Users\stapi\AppData\Local\Temp\cciwadCd.s:936    .text.pmksa_cache_add_okc:0000000000000000 .LFB147
C:\Users\stapi\AppData\Local\Temp\cciwadCd.s:1101   .text.pmksa_cache_add_okc:00000000000000e8 .LFE147
C:\Users\stapi\AppData\Local\Temp\cciwadCd.s:9616   .debug_loc:0000000000000570 .LLST34
C:\Users\stapi\AppData\Local\Temp\cciwadCd.s:10876  .debug_str:00000000000005f7 .LASF392
C:\Users\stapi\AppData\Local\Temp\cciwadCd.s:9627   .debug_loc:000000000000058e .LLST35
C:\Users\stapi\AppData\Local\Temp\cciwadCd.s:9638   .debug_loc:00000000000005ac .LLST36
C:\Users\stapi\AppData\Local\Temp\cciwadCd.s:9652   .debug_loc:00000000000005cd .LLST37
C:\Users\stapi\AppData\Local\Temp\cciwadCd.s:961    .text.pmksa_cache_add_okc:000000000000001c .LVL92
C:\Users\stapi\AppData\Local\Temp\cciwadCd.s:972    .text.pmksa_cache_add_okc:000000000000002e .LVL94
C:\Users\stapi\AppData\Local\Temp\cciwadCd.s:978    .text.pmksa_cache_add_okc:0000000000000040 .LVL95
C:\Users\stapi\AppData\Local\Temp\cciwadCd.s:1001   .text.pmksa_cache_add_okc:000000000000005e .LVL96
C:\Users\stapi\AppData\Local\Temp\cciwadCd.s:1014   .text.pmksa_cache_add_okc:0000000000000072 .LVL97
C:\Users\stapi\AppData\Local\Temp\cciwadCd.s:1030   .text.pmksa_cache_add_okc:0000000000000086 .LVL98
C:\Users\stapi\AppData\Local\Temp\cciwadCd.s:1040   .text.pmksa_cache_add_okc:0000000000000092 .LVL99
C:\Users\stapi\AppData\Local\Temp\cciwadCd.s:1057   .text.pmksa_cache_add_okc:00000000000000ae .LVL100
C:\Users\stapi\AppData\Local\Temp\cciwadCd.s:1068   .text.pmksa_cache_add_okc:00000000000000c4 .LVL101
C:\Users\stapi\AppData\Local\Temp\cciwadCd.s:1078   .text.pmksa_cache_add_okc:00000000000000d6 .LVL102
C:\Users\stapi\AppData\Local\Temp\cciwadCd.s:10726  .debug_str:000000000000017f .LASF393
C:\Users\stapi\AppData\Local\Temp\cciwadCd.s:1313   .text.pmksa_cache_auth_add_entry:0000000000000000 .LFB146
C:\Users\stapi\AppData\Local\Temp\cciwadCd.s:1396   .text.pmksa_cache_auth_add_entry:000000000000008e .LFE146
C:\Users\stapi\AppData\Local\Temp\cciwadCd.s:9674   .debug_loc:0000000000000604 .LLST46
C:\Users\stapi\AppData\Local\Temp\cciwadCd.s:9696   .debug_loc:000000000000063b .LLST47
C:\Users\stapi\AppData\Local\Temp\cciwadCd.s:9711   .debug_loc:0000000000000664 .LLST48
C:\Users\stapi\AppData\Local\Temp\cciwadCd.s:1335   .text.pmksa_cache_auth_add_entry:000000000000001c .LVL133
C:\Users\stapi\AppData\Local\Temp\cciwadCd.s:1345   .text.pmksa_cache_auth_add_entry:000000000000002a .LVL136
C:\Users\stapi\AppData\Local\Temp\cciwadCd.s:1367   .text.pmksa_cache_auth_add_entry:0000000000000066 .LVL137
C:\Users\stapi\AppData\Local\Temp\cciwadCd.s:1372   .text.pmksa_cache_auth_add_entry:0000000000000074 .LVL138
C:\Users\stapi\AppData\Local\Temp\cciwadCd.s:1378   .text.pmksa_cache_auth_add_entry:0000000000000080 .LVL139
C:\Users\stapi\AppData\Local\Temp\cciwadCd.s:11282  .debug_str:0000000000001355 .LASF394
C:\Users\stapi\AppData\Local\Temp\cciwadCd.s:667    .text.pmksa_cache_auth_create_entry:0000000000000000 .LFB145
C:\Users\stapi\AppData\Local\Temp\cciwadCd.s:929    .text.pmksa_cache_auth_create_entry:0000000000000156 .LFE145
C:\Users\stapi\AppData\Local\Temp\cciwadCd.s:9722   .debug_loc:0000000000000682 .LLST21
C:\Users\stapi\AppData\Local\Temp\cciwadCd.s:9744   .debug_loc:00000000000006b9 .LLST22
C:\Users\stapi\AppData\Local\Temp\cciwadCd.s:9766   .debug_loc:00000000000006f0 .LLST23
C:\Users\stapi\AppData\Local\Temp\cciwadCd.s:9788   .debug_loc:0000000000000727 .LLST24
C:\Users\stapi\AppData\Local\Temp\cciwadCd.s:9813   .debug_loc:0000000000000761 .LLST25
C:\Users\stapi\AppData\Local\Temp\cciwadCd.s:9838   .debug_loc:000000000000079b .LLST26
C:\Users\stapi\AppData\Local\Temp\cciwadCd.s:9849   .debug_loc:00000000000007b9 .LLST27
C:\Users\stapi\AppData\Local\Temp\cciwadCd.s:9871   .debug_loc:00000000000007f0 .LLST28
C:\Users\stapi\AppData\Local\Temp\cciwadCd.s:9893   .debug_loc:0000000000000827 .LLST29
C:\Users\stapi\AppData\Local\Temp\cciwadCd.s:9911   .debug_loc:0000000000000853 .LLST30
C:\Users\stapi\AppData\Local\Temp\cciwadCd.s:727    .text.pmksa_cache_auth_create_entry:0000000000000026 .LBB33
C:\Users\stapi\AppData\Local\Temp\cciwadCd.s:811    .text.pmksa_cache_auth_create_entry:00000000000000a8 .LBB37
C:\Users\stapi\AppData\Local\Temp\cciwadCd.s:9929   .debug_loc:000000000000087f .LLST31
C:\Users\stapi\AppData\Local\Temp\cciwadCd.s:9940   .debug_loc:000000000000089d .LLST32
C:\Users\stapi\AppData\Local\Temp\cciwadCd.s:9951   .debug_loc:00000000000008bb .LLST33
C:\Users\stapi\AppData\Local\Temp\cciwadCd.s:825    .text.pmksa_cache_auth_create_entry:00000000000000bc .LVL80
C:\Users\stapi\AppData\Local\Temp\cciwadCd.s:840    .text.pmksa_cache_auth_create_entry:00000000000000d2 .LVL81
C:\Users\stapi\AppData\Local\Temp\cciwadCd.s:850    .text.pmksa_cache_auth_create_entry:00000000000000e0 .LVL82
C:\Users\stapi\AppData\Local\Temp\cciwadCd.s:875    .text.pmksa_cache_auth_create_entry:0000000000000106 .LVL84
C:\Users\stapi\AppData\Local\Temp\cciwadCd.s:886    .text.pmksa_cache_auth_create_entry:000000000000011a .LVL85
C:\Users\stapi\AppData\Local\Temp\cciwadCd.s:757    .text.pmksa_cache_auth_create_entry:000000000000004a .LVL74
C:\Users\stapi\AppData\Local\Temp\cciwadCd.s:768    .text.pmksa_cache_auth_create_entry:000000000000005c .LVL76
C:\Users\stapi\AppData\Local\Temp\cciwadCd.s:780    .text.pmksa_cache_auth_create_entry:0000000000000074 .LVL77
C:\Users\stapi\AppData\Local\Temp\cciwadCd.s:785    .text.pmksa_cache_auth_create_entry:000000000000007e .LVL78
C:\Users\stapi\AppData\Local\Temp\cciwadCd.s:809    .text.pmksa_cache_auth_create_entry:00000000000000a8 .LVL79
C:\Users\stapi\AppData\Local\Temp\cciwadCd.s:916    .text.pmksa_cache_auth_create_entry:000000000000014e .LVL88
C:\Users\stapi\AppData\Local\Temp\cciwadCd.s:11046  .debug_str:0000000000000b3d .LASF395
C:\Users\stapi\AppData\Local\Temp\cciwadCd.s:1403   .text.pmksa_cache_auth_add:0000000000000000 .LFB144
C:\Users\stapi\AppData\Local\Temp\cciwadCd.s:1467   .text.pmksa_cache_auth_add:000000000000004c .LFE144
C:\Users\stapi\AppData\Local\Temp\cciwadCd.s:9967   .debug_loc:00000000000008e5 .LLST49
C:\Users\stapi\AppData\Local\Temp\cciwadCd.s:9978   .debug_loc:0000000000000903 .LLST50
C:\Users\stapi\AppData\Local\Temp\cciwadCd.s:9996   .debug_loc:000000000000092f .LLST51
C:\Users\stapi\AppData\Local\Temp\cciwadCd.s:10014  .debug_loc:000000000000095b .LLST52
C:\Users\stapi\AppData\Local\Temp\cciwadCd.s:10032  .debug_loc:0000000000000987 .LLST53
C:\Users\stapi\AppData\Local\Temp\cciwadCd.s:10050  .debug_loc:00000000000009b3 .LLST54
C:\Users\stapi\AppData\Local\Temp\cciwadCd.s:10068  .debug_loc:00000000000009df .LLST55
C:\Users\stapi\AppData\Local\Temp\cciwadCd.s:10086  .debug_loc:0000000000000a0b .LLST56
C:\Users\stapi\AppData\Local\Temp\cciwadCd.s:10104  .debug_loc:0000000000000a37 .LLST57
C:\Users\stapi\AppData\Local\Temp\cciwadCd.s:10117  .debug_loc:0000000000000a57 .LLST58
C:\Users\stapi\AppData\Local\Temp\cciwadCd.s:10130  .debug_loc:0000000000000a77 .LLST59
C:\Users\stapi\AppData\Local\Temp\cciwadCd.s:10143  .debug_loc:0000000000000a97 .LLST60
C:\Users\stapi\AppData\Local\Temp\cciwadCd.s:1441   .text.pmksa_cache_auth_add:000000000000002c .LVL151
C:\Users\stapi\AppData\Local\Temp\cciwadCd.s:1449   .text.pmksa_cache_auth_add:000000000000003a .LVL153
C:\Users\stapi\AppData\Local\Temp\cciwadCd.s:10916  .debug_str:000000000000078f .LASF403
C:\Users\stapi\AppData\Local\Temp\cciwadCd.s:143    .text.pmksa_cache_link_entry:0000000000000000 .LFB143
C:\Users\stapi\AppData\Local\Temp\cciwadCd.s:258    .text.pmksa_cache_link_entry:00000000000000a2 .LFE143
C:\Users\stapi\AppData\Local\Temp\cciwadCd.s:10150  .debug_loc:0000000000000aaa .LLST4
C:\Users\stapi\AppData\Local\Temp\cciwadCd.s:10168  .debug_loc:0000000000000ad6 .LLST5
C:\Users\stapi\AppData\Local\Temp\cciwadCd.s:10179  .debug_loc:0000000000000af4 .LLST6
C:\Users\stapi\AppData\Local\Temp\cciwadCd.s:10199  .debug_loc:0000000000000b29 .LLST7
C:\Users\stapi\AppData\Local\Temp\cciwadCd.s:11028  .debug_str:0000000000000aa9 .LASF396
C:\Users\stapi\AppData\Local\Temp\cciwadCd.s:10219  .debug_loc:0000000000000b5e .LLST8
C:\Users\stapi\AppData\Local\Temp\cciwadCd.s:208    .text.pmksa_cache_link_entry:000000000000004a .LVL20
C:\Users\stapi\AppData\Local\Temp\cciwadCd.s:221    .text.pmksa_cache_link_entry:0000000000000074 .LVL21
C:\Users\stapi\AppData\Local\Temp\cciwadCd.s:229    .text.pmksa_cache_link_entry:000000000000008c .LVL22
C:\Users\stapi\AppData\Local\Temp\cciwadCd.s:11428  .debug_str:00000000000017d7 .LASF398
C:\Users\stapi\AppData\Local\Temp\cciwadCd.s:553    .text.pmksa_cache_to_eapol_data:0000000000000000 .LFB142
C:\Users\stapi\AppData\Local\Temp\cciwadCd.s:660    .text.pmksa_cache_to_eapol_data:00000000000000b6 .LFE142
C:\Users\stapi\AppData\Local\Temp\cciwadCd.s:11090  .debug_str:0000000000000c87 .LASF399
C:\Users\stapi\AppData\Local\Temp\cciwadCd.s:10236  .debug_loc:0000000000000b7b .LLST18
C:\Users\stapi\AppData\Local\Temp\cciwadCd.s:10254  .debug_loc:0000000000000ba7 .LLST19
C:\Users\stapi\AppData\Local\Temp\cciwadCd.s:10276  .debug_loc:0000000000000bde .LLST20
C:\Users\stapi\AppData\Local\Temp\cciwadCd.s:579    .text.pmksa_cache_to_eapol_data:0000000000000020 .LVL58
C:\Users\stapi\AppData\Local\Temp\cciwadCd.s:584    .text.pmksa_cache_to_eapol_data:000000000000002a .LVL59
C:\Users\stapi\AppData\Local\Temp\cciwadCd.s:599    .text.pmksa_cache_to_eapol_data:0000000000000040 .LVL60
C:\Users\stapi\AppData\Local\Temp\cciwadCd.s:608    .text.pmksa_cache_to_eapol_data:000000000000005a .LVL61
C:\Users\stapi\AppData\Local\Temp\cciwadCd.s:617    .text.pmksa_cache_to_eapol_data:000000000000006a .LVL62
C:\Users\stapi\AppData\Local\Temp\cciwadCd.s:622    .text.pmksa_cache_to_eapol_data:0000000000000074 .LVL63
C:\Users\stapi\AppData\Local\Temp\cciwadCd.s:636    .text.pmksa_cache_to_eapol_data:0000000000000094 .LVL64
C:\Users\stapi\AppData\Local\Temp\cciwadCd.s:10684  .debug_str:0000000000000056 .LASF400
C:\Users\stapi\AppData\Local\Temp\cciwadCd.s:11464  .debug_str:00000000000018f5 .LASF401
C:\Users\stapi\AppData\Local\Temp\cciwadCd.s:11042  .debug_str:0000000000000b1c .LASF402
C:\Users\stapi\AppData\Local\Temp\cciwadCd.s:10902  .debug_str:0000000000000721 .LASF404
C:\Users\stapi\AppData\Local\Temp\cciwadCd.s:411    .text.pmksa_cache_expire:0000000000000000 .LFB139
C:\Users\stapi\AppData\Local\Temp\cciwadCd.s:480    .text.pmksa_cache_expire:0000000000000072 .LFE139
C:\Users\stapi\AppData\Local\Temp\cciwadCd.s:10744  .debug_str:000000000000020f .LASF405
C:\Users\stapi\AppData\Local\Temp\cciwadCd.s:10291  .debug_loc:0000000000000c07 .LLST14
C:\Users\stapi\AppData\Local\Temp\cciwadCd.s:11232  .debug_str:00000000000010cb .LASF406
C:\Users\stapi\AppData\Local\Temp\cciwadCd.s:10302  .debug_loc:0000000000000c25 .LLST15
C:\Users\stapi\AppData\Local\Temp\cciwadCd.s:10316  .debug_loc:0000000000000c46 .LLST16
C:\Users\stapi\AppData\Local\Temp\cciwadCd.s:432    .text.pmksa_cache_expire:0000000000000016 .LVL48
C:\Users\stapi\AppData\Local\Temp\cciwadCd.s:450    .text.pmksa_cache_expire:0000000000000032 .LVL49
C:\Users\stapi\AppData\Local\Temp\cciwadCd.s:472    .text.pmksa_cache_expire:0000000000000062 .LVL50
C:\Users\stapi\AppData\Local\Temp\cciwadCd.s:477    .text.pmksa_cache_expire:0000000000000070 .LVL51
C:\Users\stapi\AppData\Local\Temp\cciwadCd.s:11222  .debug_str:000000000000106c .LASF407
C:\Users\stapi\AppData\Local\Temp\cciwadCd.s:491    .text.pmksa_cache_auth_flush:0000000000000000 .LFB138
C:\Users\stapi\AppData\Local\Temp\cciwadCd.s:539    .text.pmksa_cache_auth_flush:0000000000000052 .LFE138
C:\Users\stapi\AppData\Local\Temp\cciwadCd.s:10327  .debug_loc:0000000000000c64 .LLST17
C:\Users\stapi\AppData\Local\Temp\cciwadCd.s:531    .text.pmksa_cache_auth_flush:0000000000000042 .LVL54
C:\Users\stapi\AppData\Local\Temp\cciwadCd.s:536    .text.pmksa_cache_auth_flush:0000000000000050 .LVL55
C:\Users\stapi\AppData\Local\Temp\cciwadCd.s:11438  .debug_str:0000000000001838 .LASF408
C:\Users\stapi\AppData\Local\Temp\cciwadCd.s:265    .text.pmksa_cache_free_entry:0000000000000000 .LFB137
C:\Users\stapi\AppData\Local\Temp\cciwadCd.s:401    .text.pmksa_cache_free_entry:0000000000000078 .LFE137
C:\Users\stapi\AppData\Local\Temp\cciwadCd.s:10338  .debug_loc:0000000000000c82 .LLST9
C:\Users\stapi\AppData\Local\Temp\cciwadCd.s:10349  .debug_loc:0000000000000ca0 .LLST10
C:\Users\stapi\AppData\Local\Temp\cciwadCd.s:10375  .debug_loc:0000000000000ce2 .LLST11
C:\Users\stapi\AppData\Local\Temp\cciwadCd.s:10404  .debug_loc:0000000000000d2e .LLST12
C:\Users\stapi\AppData\Local\Temp\cciwadCd.s:10444  .debug_loc:0000000000000d9a .LLST13
C:\Users\stapi\AppData\Local\Temp\cciwadCd.s:298    .text.pmksa_cache_free_entry:0000000000000020 .LVL29
C:\Users\stapi\AppData\Local\Temp\cciwadCd.s:358    .text.pmksa_cache_free_entry:0000000000000058 .LVL36
C:\Users\stapi\AppData\Local\Temp\cciwadCd.s:11510  .debug_str:0000000000001a90 .LASF409
C:\Users\stapi\AppData\Local\Temp\cciwadCd.s:13     .text._pmksa_cache_free_entry:0000000000000000 .LFB136
C:\Users\stapi\AppData\Local\Temp\cciwadCd.s:49     .text._pmksa_cache_free_entry:0000000000000040 .LFE136
C:\Users\stapi\AppData\Local\Temp\cciwadCd.s:10492  .debug_loc:0000000000000de4 .LLST0
C:\Users\stapi\AppData\Local\Temp\cciwadCd.s:29     .text._pmksa_cache_free_entry:0000000000000016 .LVL2
C:\Users\stapi\AppData\Local\Temp\cciwadCd.s:33     .text._pmksa_cache_free_entry:0000000000000020 .LVL3
C:\Users\stapi\AppData\Local\Temp\cciwadCd.s:37     .text._pmksa_cache_free_entry:000000000000002a .LVL4
C:\Users\stapi\AppData\Local\Temp\cciwadCd.s:42     .text._pmksa_cache_free_entry:0000000000000038 .LVL5
C:\Users\stapi\AppData\Local\Temp\cciwadCd.s:11038  .debug_str:0000000000000afc .LASF411
C:\Users\stapi\AppData\Local\Temp\cciwadCd.s:10952  .debug_str:0000000000000879 .LASF412
C:\Users\stapi\AppData\Local\Temp\cciwadCd.s:11548  .debug_str:0000000000001c36 .LASF413
C:\Users\stapi\AppData\Local\Temp\cciwadCd.s:11474  .debug_str:0000000000001968 .LASF414
C:\Users\stapi\AppData\Local\Temp\cciwadCd.s:11048  .debug_str:0000000000000b52 .LASF415
C:\Users\stapi\AppData\Local\Temp\cciwadCd.s:11212  .debug_str:000000000000100c .LASF416
C:\Users\stapi\AppData\Local\Temp\cciwadCd.s:11440  .debug_str:000000000000184f .LASF417
C:\Users\stapi\AppData\Local\Temp\cciwadCd.s:11008  .debug_str:0000000000000a04 .LASF418
C:\Users\stapi\AppData\Local\Temp\cciwadCd.s:55     .text.pmksa_cache_set_expiration:0000000000000000 .LFB140
C:\Users\stapi\AppData\Local\Temp\cciwadCd.s:130    .text.pmksa_cache_set_expiration:000000000000005e .LFE140
C:\Users\stapi\AppData\Local\Temp\cciwadCd.s:10503  .debug_loc:0000000000000e02 .LLST1
C:\Users\stapi\AppData\Local\Temp\cciwadCd.s:86     .text.pmksa_cache_set_expiration:0000000000000026 .LBB27
C:\Users\stapi\AppData\Local\Temp\cciwadCd.s:120    .text.pmksa_cache_set_expiration:0000000000000054 .LBE27
C:\Users\stapi\AppData\Local\Temp\cciwadCd.s:10514  .debug_loc:0000000000000e20 .LLST2
C:\Users\stapi\AppData\Local\Temp\cciwadCd.s:10521  .debug_loc:0000000000000e33 .LLST3
C:\Users\stapi\AppData\Local\Temp\cciwadCd.s:91     .text.pmksa_cache_set_expiration:0000000000000030 .LVL10
C:\Users\stapi\AppData\Local\Temp\cciwadCd.s:117    .text.pmksa_cache_set_expiration:0000000000000054 .LVL14
C:\Users\stapi\AppData\Local\Temp\cciwadCd.s:80     .text.pmksa_cache_set_expiration:0000000000000020 .LVL8
C:\Users\stapi\AppData\Local\Temp\cciwadCd.s:10814  .debug_str:0000000000000438 .LASF419
C:\Users\stapi\AppData\Local\Temp\cciwadCd.s:10860  .debug_str:0000000000000570 .LASF420
C:\Users\stapi\AppData\Local\Temp\cciwadCd.s:11188  .debug_str:0000000000000f74 .LASF421
C:\Users\stapi\AppData\Local\Temp\cciwadCd.s:11492  .debug_str:0000000000001a07 .LASF422
C:\Users\stapi\AppData\Local\Temp\cciwadCd.s:10854  .debug_str:0000000000000553 .LASF423
C:\Users\stapi\AppData\Local\Temp\cciwadCd.s:11202  .debug_str:0000000000000fc7 .LASF424
C:\Users\stapi\AppData\Local\Temp\cciwadCd.s:11498  .debug_str:0000000000001a3a .LASF425
C:\Users\stapi\AppData\Local\Temp\cciwadCd.s:11142  .debug_str:0000000000000e11 .LASF430
C:\Users\stapi\AppData\Local\Temp\cciwadCd.s:11348  .debug_str:0000000000001562 .LASF432
C:\Users\stapi\AppData\Local\Temp\cciwadCd.s:11262  .debug_str:00000000000012aa .LASF426
C:\Users\stapi\AppData\Local\Temp\cciwadCd.s:11456  .debug_str:00000000000018bd .LASF427
C:\Users\stapi\AppData\Local\Temp\cciwadCd.s:10966  .debug_str:00000000000008dc .LASF428
C:\Users\stapi\AppData\Local\Temp\cciwadCd.s:10702  .debug_str:00000000000000e2 .LASF429
C:\Users\stapi\AppData\Local\Temp\cciwadCd.s:11312  .debug_str:0000000000001469 .LASF431
C:\Users\stapi\AppData\Local\Temp\cciwadCd.s:10784  .debug_str:0000000000000353 .LASF433
C:\Users\stapi\AppData\Local\Temp\cciwadCd.s:11310  .debug_str:000000000000145e .LASF434
C:\Users\stapi\AppData\Local\Temp\cciwadCd.s:11328  .debug_str:00000000000014b6 .LASF435
C:\Users\stapi\AppData\Local\Temp\cciwadCd.s:11084  .debug_str:0000000000000c5d .LASF436
C:\Users\stapi\AppData\Local\Temp\cciwadCd.s:11466  .debug_str:0000000000001911 .LASF437
C:\Users\stapi\AppData\Local\Temp\cciwadCd.s:11120  .debug_str:0000000000000d59 .LASF438
C:\Users\stapi\AppData\Local\Temp\cciwadCd.s:10838  .debug_str:00000000000004d9 .LASF439
C:\Users\stapi\AppData\Local\Temp\cciwadCd.s:1898   .text.pmksa_cache_auth_list:0000000000000000 .LVL191
C:\Users\stapi\AppData\Local\Temp\cciwadCd.s:1918   .text.pmksa_cache_auth_list:000000000000000e .LVL192
C:\Users\stapi\AppData\Local\Temp\cciwadCd.s:1959   .text.pmksa_cache_auth_list:000000000000003e .LVL197
C:\Users\stapi\AppData\Local\Temp\cciwadCd.s:2086   .text.pmksa_cache_auth_list:00000000000000d8 .LVL213
C:\Users\stapi\AppData\Local\Temp\cciwadCd.s:1962   .text.pmksa_cache_auth_list:0000000000000040 .LVL198
C:\Users\stapi\AppData\Local\Temp\cciwadCd.s:1966   .text.pmksa_cache_auth_list:0000000000000042 .LVL199
C:\Users\stapi\AppData\Local\Temp\cciwadCd.s:2051   .text.pmksa_cache_auth_list:00000000000000c4 .LVL208
C:\Users\stapi\AppData\Local\Temp\cciwadCd.s:2067   .text.pmksa_cache_auth_list:00000000000000ce .LVL209
C:\Users\stapi\AppData\Local\Temp\cciwadCd.s:1950   .text.pmksa_cache_auth_list:0000000000000036 .LVL196
C:\Users\stapi\AppData\Local\Temp\cciwadCd.s:2016   .text.pmksa_cache_auth_list:0000000000000094 .LVL203
C:\Users\stapi\AppData\Local\Temp\cciwadCd.s:2044   .text.pmksa_cache_auth_list:00000000000000c0 .LVL207
C:\Users\stapi\AppData\Local\Temp\cciwadCd.s:2090   .text.pmksa_cache_auth_list:00000000000000da .LVL214
C:\Users\stapi\AppData\Local\Temp\cciwadCd.s:1921   .text.pmksa_cache_auth_list:0000000000000010 .LVL193
C:\Users\stapi\AppData\Local\Temp\cciwadCd.s:2080   .text.pmksa_cache_auth_list:00000000000000d4 .LVL211
C:\Users\stapi\AppData\Local\Temp\cciwadCd.s:2083   .text.pmksa_cache_auth_list:00000000000000d6 .LVL212
C:\Users\stapi\AppData\Local\Temp\cciwadCd.s:2003   .text.pmksa_cache_auth_list:0000000000000086 .LVL201
C:\Users\stapi\AppData\Local\Temp\cciwadCd.s:2074   .text.pmksa_cache_auth_list:00000000000000d2 .LVL210
C:\Users\stapi\AppData\Local\Temp\cciwadCd.s:1640   .text.pmksa_cache_auth_radius_das_disconnect:0000000000000000 .LVL168
C:\Users\stapi\AppData\Local\Temp\cciwadCd.s:1677   .text.pmksa_cache_auth_radius_das_disconnect:000000000000001e .LVL170
C:\Users\stapi\AppData\Local\Temp\cciwadCd.s:1861   .text.pmksa_cache_auth_radius_das_disconnect:00000000000000d6 .LVL189
C:\Users\stapi\AppData\Local\Temp\cciwadCd.s:1874   .text.pmksa_cache_auth_radius_das_disconnect:00000000000000d8 .LVL190
C:\Users\stapi\AppData\Local\Temp\cciwadCd.s:1666   .text.pmksa_cache_auth_radius_das_disconnect:0000000000000016 .LVL169
C:\Users\stapi\AppData\Local\Temp\cciwadCd.s:1830   .text.pmksa_cache_auth_radius_das_disconnect:00000000000000be .LVL183
C:\Users\stapi\AppData\Local\Temp\cciwadCd.s:1842   .text.pmksa_cache_auth_radius_das_disconnect:00000000000000ca .LVL186
C:\Users\stapi\AppData\Local\Temp\cciwadCd.s:1839   .text.pmksa_cache_auth_radius_das_disconnect:00000000000000c8 .LVL185
C:\Users\stapi\AppData\Local\Temp\cciwadCd.s:1705   .text.pmksa_cache_auth_radius_das_disconnect:0000000000000032 .LVL171
C:\Users\stapi\AppData\Local\Temp\cciwadCd.s:1818   .text.pmksa_cache_auth_radius_das_disconnect:00000000000000b4 .LVL182
C:\Users\stapi\AppData\Local\Temp\cciwadCd.s:1849   .text.pmksa_cache_auth_radius_das_disconnect:00000000000000ce .LVL187
C:\Users\stapi\AppData\Local\Temp\cciwadCd.s:1725   .text.pmksa_cache_auth_radius_das_disconnect:0000000000000048 .LVL173
C:\Users\stapi\AppData\Local\Temp\cciwadCd.s:1590   .text.pmksa_cache_auth_init:0000000000000000 .LVL165
C:\Users\stapi\AppData\Local\Temp\cciwadCd.s:1602   .text.pmksa_cache_auth_init:000000000000000e .LVL166
C:\Users\stapi\AppData\Local\Temp\cciwadCd.s:1477   .text.pmksa_cache_get_okc:0000000000000000 .LVL156
C:\Users\stapi\AppData\Local\Temp\cciwadCd.s:1503   .text.pmksa_cache_get_okc:000000000000001c .LVL158
C:\Users\stapi\AppData\Local\Temp\cciwadCd.s:1542   .text.pmksa_cache_get_okc:0000000000000044 .LVL162
C:\Users\stapi\AppData\Local\Temp\cciwadCd.s:1199   .text.pmksa_cache_auth_get:0000000000000000 .LVL116
C:\Users\stapi\AppData\Local\Temp\cciwadCd.s:1220   .text.pmksa_cache_auth_get:000000000000001a .LVL117
C:\Users\stapi\AppData\Local\Temp\cciwadCd.s:1275   .text.pmksa_cache_auth_get:0000000000000056 .LVL127
C:\Users\stapi\AppData\Local\Temp\cciwadCd.s:1280   .text.pmksa_cache_auth_get:000000000000005a .LVL128
C:\Users\stapi\AppData\Local\Temp\cciwadCd.s:1222   .text.pmksa_cache_auth_get:000000000000001c .LVL118
C:\Users\stapi\AppData\Local\Temp\cciwadCd.s:1227   .text.pmksa_cache_auth_get:000000000000001e .LVL119
C:\Users\stapi\AppData\Local\Temp\cciwadCd.s:1233   .text.pmksa_cache_auth_get:0000000000000022 .LVL121
C:\Users\stapi\AppData\Local\Temp\cciwadCd.s:1247   .text.pmksa_cache_auth_get:0000000000000036 .LVL123
C:\Users\stapi\AppData\Local\Temp\cciwadCd.s:1258   .text.pmksa_cache_auth_get:0000000000000040 .LVL124
C:\Users\stapi\AppData\Local\Temp\cciwadCd.s:1231   .text.pmksa_cache_auth_get:0000000000000020 .LVL120
C:\Users\stapi\AppData\Local\Temp\cciwadCd.s:1111   .text.pmksa_cache_auth_deinit:0000000000000000 .LVL105
C:\Users\stapi\AppData\Local\Temp\cciwadCd.s:1127   .text.pmksa_cache_auth_deinit:0000000000000010 .LVL106
C:\Users\stapi\AppData\Local\Temp\cciwadCd.s:1181   .text.pmksa_cache_auth_deinit:000000000000005e .LVL115
C:\Users\stapi\AppData\Local\Temp\cciwadCd.s:1134   .text.pmksa_cache_auth_deinit:0000000000000016 .LVL107
C:\Users\stapi\AppData\Local\Temp\cciwadCd.s:1167   .text.pmksa_cache_auth_deinit:0000000000000050 .LVL112
C:\Users\stapi\AppData\Local\Temp\cciwadCd.s:1174   .text.pmksa_cache_auth_deinit:0000000000000052 .LVL113
C:\Users\stapi\AppData\Local\Temp\cciwadCd.s:1150   .text.pmksa_cache_auth_deinit:0000000000000034 .LVL109
C:\Users\stapi\AppData\Local\Temp\cciwadCd.s:939    .text.pmksa_cache_add_okc:0000000000000000 .LVL90
C:\Users\stapi\AppData\Local\Temp\cciwadCd.s:955    .text.pmksa_cache_add_okc:0000000000000010 .LVL91
C:\Users\stapi\AppData\Local\Temp\cciwadCd.s:1086   .text.pmksa_cache_add_okc:00000000000000da .LVL103
C:\Users\stapi\AppData\Local\Temp\cciwadCd.s:1093   .text.pmksa_cache_add_okc:00000000000000e2 .LVL104
C:\Users\stapi\AppData\Local\Temp\cciwadCd.s:1316   .text.pmksa_cache_auth_add_entry:0000000000000000 .LVL131
C:\Users\stapi\AppData\Local\Temp\cciwadCd.s:1388   .text.pmksa_cache_auth_add_entry:000000000000008a .LVL140
C:\Users\stapi\AppData\Local\Temp\cciwadCd.s:1392   .text.pmksa_cache_auth_add_entry:000000000000008c .LVL141
C:\Users\stapi\AppData\Local\Temp\cciwadCd.s:1332   .text.pmksa_cache_auth_add_entry:0000000000000012 .LVL132
C:\Users\stapi\AppData\Local\Temp\cciwadCd.s:1337   .text.pmksa_cache_auth_add_entry:000000000000001e .LVL134
C:\Users\stapi\AppData\Local\Temp\cciwadCd.s:1343   .text.pmksa_cache_auth_add_entry:0000000000000022 .LVL135
C:\Users\stapi\AppData\Local\Temp\cciwadCd.s:670    .text.pmksa_cache_auth_create_entry:0000000000000000 .LVL67
C:\Users\stapi\AppData\Local\Temp\cciwadCd.s:700    .text.pmksa_cache_auth_create_entry:0000000000000018 .LVL69
C:\Users\stapi\AppData\Local\Temp\cciwadCd.s:724    .text.pmksa_cache_auth_create_entry:0000000000000026 .LVL71
C:\Users\stapi\AppData\Local\Temp\cciwadCd.s:755    .text.pmksa_cache_auth_create_entry:0000000000000042 .LVL73
C:\Users\stapi\AppData\Local\Temp\cciwadCd.s:694    .text.pmksa_cache_auth_create_entry:0000000000000010 .LVL68
C:\Users\stapi\AppData\Local\Temp\cciwadCd.s:710    .text.pmksa_cache_auth_create_entry:000000000000001e .LVL70
C:\Users\stapi\AppData\Local\Temp\cciwadCd.s:894    .text.pmksa_cache_auth_create_entry:000000000000012a .LVL86
C:\Users\stapi\AppData\Local\Temp\cciwadCd.s:918    .text.pmksa_cache_auth_create_entry:0000000000000150 .LVL89
C:\Users\stapi\AppData\Local\Temp\cciwadCd.s:862    .text.pmksa_cache_auth_create_entry:00000000000000f2 .LVL83
C:\Users\stapi\AppData\Local\Temp\cciwadCd.s:1406   .text.pmksa_cache_auth_add:0000000000000000 .LVL142
C:\Users\stapi\AppData\Local\Temp\cciwadCd.s:1420   .text.pmksa_cache_auth_add:000000000000000e .LVL143
C:\Users\stapi\AppData\Local\Temp\cciwadCd.s:1422   .text.pmksa_cache_auth_add:0000000000000010 .LVL144
C:\Users\stapi\AppData\Local\Temp\cciwadCd.s:1424   .text.pmksa_cache_auth_add:0000000000000012 .LVL145
C:\Users\stapi\AppData\Local\Temp\cciwadCd.s:1426   .text.pmksa_cache_auth_add:0000000000000014 .LVL146
C:\Users\stapi\AppData\Local\Temp\cciwadCd.s:1428   .text.pmksa_cache_auth_add:0000000000000016 .LVL147
C:\Users\stapi\AppData\Local\Temp\cciwadCd.s:1430   .text.pmksa_cache_auth_add:0000000000000018 .LVL148
C:\Users\stapi\AppData\Local\Temp\cciwadCd.s:1432   .text.pmksa_cache_auth_add:000000000000001a .LVL149
C:\Users\stapi\AppData\Local\Temp\cciwadCd.s:1435   .text.pmksa_cache_auth_add:000000000000001c .LVL150
C:\Users\stapi\AppData\Local\Temp\cciwadCd.s:1460   .text.pmksa_cache_auth_add:0000000000000044 .LVL155
C:\Users\stapi\AppData\Local\Temp\cciwadCd.s:1443   .text.pmksa_cache_auth_add:000000000000002e .LVL152
C:\Users\stapi\AppData\Local\Temp\cciwadCd.s:1454   .text.pmksa_cache_auth_add:0000000000000040 .LVL154
C:\Users\stapi\AppData\Local\Temp\cciwadCd.s:146    .text.pmksa_cache_link_entry:0000000000000000 .LVL15
C:\Users\stapi\AppData\Local\Temp\cciwadCd.s:236    .text.pmksa_cache_link_entry:0000000000000094 .LVL23
C:\Users\stapi\AppData\Local\Temp\cciwadCd.s:165    .text.pmksa_cache_link_entry:0000000000000012 .LVL17
C:\Users\stapi\AppData\Local\Temp\cciwadCd.s:156    .text.pmksa_cache_link_entry:000000000000000c .LVL16
C:\Users\stapi\AppData\Local\Temp\cciwadCd.s:184    .text.pmksa_cache_link_entry:0000000000000024 .LVL18
C:\Users\stapi\AppData\Local\Temp\cciwadCd.s:244    .text.pmksa_cache_link_entry:0000000000000098 .LVL24
C:\Users\stapi\AppData\Local\Temp\cciwadCd.s:250    .text.pmksa_cache_link_entry:000000000000009c .LVL25
C:\Users\stapi\AppData\Local\Temp\cciwadCd.s:197    .text.pmksa_cache_link_entry:0000000000000036 .LVL19
C:\Users\stapi\AppData\Local\Temp\cciwadCd.s:556    .text.pmksa_cache_to_eapol_data:0000000000000000 .LVL56
C:\Users\stapi\AppData\Local\Temp\cciwadCd.s:577    .text.pmksa_cache_to_eapol_data:0000000000000018 .LVL57
C:\Users\stapi\AppData\Local\Temp\cciwadCd.s:656    .text.pmksa_cache_to_eapol_data:00000000000000b4 .LVL66
C:\Users\stapi\AppData\Local\Temp\cciwadCd.s:648    .text.pmksa_cache_to_eapol_data:00000000000000ac .LVL65
C:\Users\stapi\AppData\Local\Temp\cciwadCd.s:414    .text.pmksa_cache_expire:0000000000000000 .LVL45
C:\Users\stapi\AppData\Local\Temp\cciwadCd.s:430    .text.pmksa_cache_expire:000000000000000e .LVL47
C:\Users\stapi\AppData\Local\Temp\cciwadCd.s:426    .text.pmksa_cache_expire:000000000000000c .LVL46
C:\Users\stapi\AppData\Local\Temp\cciwadCd.s:494    .text.pmksa_cache_auth_flush:0000000000000000 .LVL52
C:\Users\stapi\AppData\Local\Temp\cciwadCd.s:505    .text.pmksa_cache_auth_flush:000000000000000e .LVL53
C:\Users\stapi\AppData\Local\Temp\cciwadCd.s:268    .text.pmksa_cache_free_entry:0000000000000000 .LVL26
C:\Users\stapi\AppData\Local\Temp\cciwadCd.s:283    .text.pmksa_cache_free_entry:0000000000000012 .LVL27
C:\Users\stapi\AppData\Local\Temp\cciwadCd.s:286    .text.pmksa_cache_free_entry:0000000000000014 .LVL28
C:\Users\stapi\AppData\Local\Temp\cciwadCd.s:363    .text.pmksa_cache_free_entry:000000000000005a .LVL37
C:\Users\stapi\AppData\Local\Temp\cciwadCd.s:368    .text.pmksa_cache_free_entry:0000000000000062 .LVL38
C:\Users\stapi\AppData\Local\Temp\cciwadCd.s:311    .text.pmksa_cache_free_entry:0000000000000032 .LVL30
C:\Users\stapi\AppData\Local\Temp\cciwadCd.s:323    .text.pmksa_cache_free_entry:000000000000003a .LVL31
C:\Users\stapi\AppData\Local\Temp\cciwadCd.s:334    .text.pmksa_cache_free_entry:0000000000000042 .LVL33
C:\Users\stapi\AppData\Local\Temp\cciwadCd.s:349    .text.pmksa_cache_free_entry:000000000000004c .LVL35
C:\Users\stapi\AppData\Local\Temp\cciwadCd.s:376    .text.pmksa_cache_free_entry:0000000000000066 .LVL40
C:\Users\stapi\AppData\Local\Temp\cciwadCd.s:383    .text.pmksa_cache_free_entry:000000000000006a .LVL41
C:\Users\stapi\AppData\Local\Temp\cciwadCd.s:385    .text.pmksa_cache_free_entry:000000000000006c .LVL42
C:\Users\stapi\AppData\Local\Temp\cciwadCd.s:391    .text.pmksa_cache_free_entry:0000000000000072 .LVL43
C:\Users\stapi\AppData\Local\Temp\cciwadCd.s:398    .text.pmksa_cache_free_entry:0000000000000076 .LVL44
C:\Users\stapi\AppData\Local\Temp\cciwadCd.s:339    .text.pmksa_cache_free_entry:0000000000000044 .LVL34
C:\Users\stapi\AppData\Local\Temp\cciwadCd.s:329    .text.pmksa_cache_free_entry:000000000000003e .LVL32
C:\Users\stapi\AppData\Local\Temp\cciwadCd.s:374    .text.pmksa_cache_free_entry:0000000000000064 .LVL39
C:\Users\stapi\AppData\Local\Temp\cciwadCd.s:17     .text._pmksa_cache_free_entry:0000000000000000 .LVL0
C:\Users\stapi\AppData\Local\Temp\cciwadCd.s:27     .text._pmksa_cache_free_entry:000000000000000e .LVL1
C:\Users\stapi\AppData\Local\Temp\cciwadCd.s:58     .text.pmksa_cache_set_expiration:0000000000000000 .LVL6
C:\Users\stapi\AppData\Local\Temp\cciwadCd.s:78     .text.pmksa_cache_set_expiration:0000000000000018 .LVL7
C:\Users\stapi\AppData\Local\Temp\cciwadCd.s:85     .text.pmksa_cache_set_expiration:0000000000000026 .LVL9
C:\Users\stapi\AppData\Local\Temp\cciwadCd.s:106    .text.pmksa_cache_set_expiration:0000000000000044 .LVL11
C:\Users\stapi\AppData\Local\Temp\cciwadCd.s:112    .text.pmksa_cache_set_expiration:000000000000004a .LVL12
C:\Users\stapi\AppData\Local\Temp\cciwadCd.s:115    .text.pmksa_cache_set_expiration:000000000000004c .LVL13
C:\Users\stapi\AppData\Local\Temp\cciwadCd.s:2117   .debug_info:0000000000000000 .Ldebug_info0
C:\Users\stapi\AppData\Local\Temp\cciwadCd.s:739    .text.pmksa_cache_auth_create_entry:0000000000000038 .LBE33
C:\Users\stapi\AppData\Local\Temp\cciwadCd.s:742    .text.pmksa_cache_auth_create_entry:0000000000000038 .LBB36
C:\Users\stapi\AppData\Local\Temp\cciwadCd.s:746    .text.pmksa_cache_auth_create_entry:0000000000000038 .LBE36
C:\Users\stapi\AppData\Local\Temp\cciwadCd.s:898    .text.pmksa_cache_auth_create_entry:000000000000012c .LBE37
C:\Users\stapi\AppData\Local\Temp\cciwadCd.s:920    .text.pmksa_cache_auth_create_entry:0000000000000150 .LBB40
C:\Users\stapi\AppData\Local\Temp\cciwadCd.s:927    .text.pmksa_cache_auth_create_entry:0000000000000156 .LBE40
C:\Users\stapi\AppData\Local\Temp\cciwadCd.s:1681   .text.pmksa_cache_auth_radius_das_disconnect:000000000000001e .LBE50
C:\Users\stapi\AppData\Local\Temp\cciwadCd.s:1706   .text.pmksa_cache_auth_radius_das_disconnect:0000000000000032 .LBB60
C:\Users\stapi\AppData\Local\Temp\cciwadCd.s:1821   .text.pmksa_cache_auth_radius_das_disconnect:00000000000000b4 .LBE60
C:\Users\stapi\AppData\Local\Temp\cciwadCd.s:1844   .text.pmksa_cache_auth_radius_das_disconnect:00000000000000ca .LBB61
C:\Users\stapi\AppData\Local\Temp\cciwadCd.s:1852   .text.pmksa_cache_auth_radius_das_disconnect:00000000000000ce .LBE61
C:\Users\stapi\AppData\Local\Temp\cciwadCd.s:1672   .text.pmksa_cache_auth_radius_das_disconnect:0000000000000018 .LBB52
C:\Users\stapi\AppData\Local\Temp\cciwadCd.s:1679   .text.pmksa_cache_auth_radius_das_disconnect:000000000000001e .LBE52
C:\Users\stapi\AppData\Local\Temp\cciwadCd.s:1730   .text.pmksa_cache_auth_radius_das_disconnect:000000000000004c .LBB53
C:\Users\stapi\AppData\Local\Temp\cciwadCd.s:1758   .text.pmksa_cache_auth_radius_das_disconnect:000000000000007c .LBE53
C:\Users\stapi\AppData\Local\Temp\cciwadCd.s:1947   .text.pmksa_cache_auth_list:0000000000000034 .LBE62
C:\Users\stapi\AppData\Local\Temp\cciwadCd.s:1951   .text.pmksa_cache_auth_list:0000000000000036 .LBB65
C:\Users\stapi\AppData\Local\Temp\cciwadCd.s:1956   .text.pmksa_cache_auth_list:000000000000003a .LBE65
C:\Users\stapi\AppData\Local\Temp\cciwadCd.s:2047   .text.pmksa_cache_auth_list:00000000000000c0 .LBE68
C:\Users\stapi\AppData\Local\Temp\cciwadCd.s:2070   .text.pmksa_cache_auth_list:00000000000000ce .LBB71
C:\Users\stapi\AppData\Local\Temp\cciwadCd.s:2076   .text.pmksa_cache_auth_list:00000000000000d2 .LBE71

UNDEFINED SYMBOLS
__riscv_save_1
os_free
wpabuf_free
bin_clear_free
__riscv_restore_1
__riscv_save_2
eloop_cancel_timeout
os_get_reltime
eloop_register_timeout
__riscv_restore_2
wpa_printf
wpa_hexdump
os_malloc
os_memcpy
wpa_hexdump_ascii
wpabuf_dup
__riscv_save_10
__riscv_restore_10
os_zalloc
memcpy
rsn_pmkid
__riscv_save_3
__riscv_restore_3
memset
os_memcmp
__riscv_save_5
__riscv_restore_5
__riscv_save_7
__riscv_restore_7
os_snprintf
wpa_snprintf_hex
