   1              		.file	"tkip_countermeasures.c"
   2              		.option nopic
   3              		.attribute arch, "rv32i2p0_m2p0_a2p0_f2p0_c2p0_b_p0p94"
   4              		.attribute unaligned_access, 0
   5              		.attribute stack_align, 16
   6              		.text
   7              	.Ltext0:
   8              		.cfi_sections	.debug_frame
   9              		.section	.text.hostapd_drv_set_countermeasures.isra.0,"ax",@progbits
  10              		.align	1
  12              	hostapd_drv_set_countermeasures.isra.0:
  13              	.LFB171:
  14              		.file 1 "C:/Users/stapi/OneDrive/Desktop/GD32VW553/V1_MQTT_OK/GD32VW55X_Wifi_BLE_SDK/GD32VW55x_REL
   1:C:/Users/stapi/OneDrive/Desktop/GD32VW553/V1_MQTT_OK/GD32VW55X_Wifi_BLE_SDK/GD32VW55x_RELEASE_V1.0.2/MSDK/wpa_supplicant/src/ap\ap_drv_ops.h **** /*
   2:C:/Users/stapi/OneDrive/Desktop/GD32VW553/V1_MQTT_OK/GD32VW55X_Wifi_BLE_SDK/GD32VW55x_RELEASE_V1.0.2/MSDK/wpa_supplicant/src/ap\ap_drv_ops.h ****  * hostapd - Driver operations
   3:C:/Users/stapi/OneDrive/Desktop/GD32VW553/V1_MQTT_OK/GD32VW55X_Wifi_BLE_SDK/GD32VW55x_RELEASE_V1.0.2/MSDK/wpa_supplicant/src/ap\ap_drv_ops.h ****  * Copyright (c) 2009-2014, Jouni Malinen <j@w1.fi>
   4:C:/Users/stapi/OneDrive/Desktop/GD32VW553/V1_MQTT_OK/GD32VW55X_Wifi_BLE_SDK/GD32VW55x_RELEASE_V1.0.2/MSDK/wpa_supplicant/src/ap\ap_drv_ops.h ****  *
   5:C:/Users/stapi/OneDrive/Desktop/GD32VW553/V1_MQTT_OK/GD32VW55X_Wifi_BLE_SDK/GD32VW55x_RELEASE_V1.0.2/MSDK/wpa_supplicant/src/ap\ap_drv_ops.h ****  * This software may be distributed under the terms of the BSD license.
   6:C:/Users/stapi/OneDrive/Desktop/GD32VW553/V1_MQTT_OK/GD32VW55X_Wifi_BLE_SDK/GD32VW55x_RELEASE_V1.0.2/MSDK/wpa_supplicant/src/ap\ap_drv_ops.h ****  * See README for more details.
   7:C:/Users/stapi/OneDrive/Desktop/GD32VW553/V1_MQTT_OK/GD32VW55X_Wifi_BLE_SDK/GD32VW55x_RELEASE_V1.0.2/MSDK/wpa_supplicant/src/ap\ap_drv_ops.h ****  */
   8:C:/Users/stapi/OneDrive/Desktop/GD32VW553/V1_MQTT_OK/GD32VW55X_Wifi_BLE_SDK/GD32VW55x_RELEASE_V1.0.2/MSDK/wpa_supplicant/src/ap\ap_drv_ops.h **** 
   9:C:/Users/stapi/OneDrive/Desktop/GD32VW553/V1_MQTT_OK/GD32VW55X_Wifi_BLE_SDK/GD32VW55x_RELEASE_V1.0.2/MSDK/wpa_supplicant/src/ap\ap_drv_ops.h **** #ifndef AP_DRV_OPS
  10:C:/Users/stapi/OneDrive/Desktop/GD32VW553/V1_MQTT_OK/GD32VW55X_Wifi_BLE_SDK/GD32VW55x_RELEASE_V1.0.2/MSDK/wpa_supplicant/src/ap\ap_drv_ops.h **** #define AP_DRV_OPS
  11:C:/Users/stapi/OneDrive/Desktop/GD32VW553/V1_MQTT_OK/GD32VW55X_Wifi_BLE_SDK/GD32VW55x_RELEASE_V1.0.2/MSDK/wpa_supplicant/src/ap\ap_drv_ops.h **** 
  12:C:/Users/stapi/OneDrive/Desktop/GD32VW553/V1_MQTT_OK/GD32VW55X_Wifi_BLE_SDK/GD32VW55x_RELEASE_V1.0.2/MSDK/wpa_supplicant/src/ap\ap_drv_ops.h **** enum wpa_driver_if_type;
  13:C:/Users/stapi/OneDrive/Desktop/GD32VW553/V1_MQTT_OK/GD32VW55X_Wifi_BLE_SDK/GD32VW55x_RELEASE_V1.0.2/MSDK/wpa_supplicant/src/ap\ap_drv_ops.h **** struct wpa_bss_params;
  14:C:/Users/stapi/OneDrive/Desktop/GD32VW553/V1_MQTT_OK/GD32VW55X_Wifi_BLE_SDK/GD32VW55x_RELEASE_V1.0.2/MSDK/wpa_supplicant/src/ap\ap_drv_ops.h **** struct wpa_driver_scan_params;
  15:C:/Users/stapi/OneDrive/Desktop/GD32VW553/V1_MQTT_OK/GD32VW55X_Wifi_BLE_SDK/GD32VW55x_RELEASE_V1.0.2/MSDK/wpa_supplicant/src/ap\ap_drv_ops.h **** struct ieee80211_ht_capabilities;
  16:C:/Users/stapi/OneDrive/Desktop/GD32VW553/V1_MQTT_OK/GD32VW55X_Wifi_BLE_SDK/GD32VW55x_RELEASE_V1.0.2/MSDK/wpa_supplicant/src/ap\ap_drv_ops.h **** struct ieee80211_vht_capabilities;
  17:C:/Users/stapi/OneDrive/Desktop/GD32VW553/V1_MQTT_OK/GD32VW55X_Wifi_BLE_SDK/GD32VW55x_RELEASE_V1.0.2/MSDK/wpa_supplicant/src/ap\ap_drv_ops.h **** struct hostapd_freq_params;
  18:C:/Users/stapi/OneDrive/Desktop/GD32VW553/V1_MQTT_OK/GD32VW55X_Wifi_BLE_SDK/GD32VW55x_RELEASE_V1.0.2/MSDK/wpa_supplicant/src/ap\ap_drv_ops.h **** 
  19:C:/Users/stapi/OneDrive/Desktop/GD32VW553/V1_MQTT_OK/GD32VW55X_Wifi_BLE_SDK/GD32VW55x_RELEASE_V1.0.2/MSDK/wpa_supplicant/src/ap\ap_drv_ops.h **** u32 hostapd_sta_flags_to_drv(u32 flags);
  20:C:/Users/stapi/OneDrive/Desktop/GD32VW553/V1_MQTT_OK/GD32VW55X_Wifi_BLE_SDK/GD32VW55x_RELEASE_V1.0.2/MSDK/wpa_supplicant/src/ap\ap_drv_ops.h **** int hostapd_build_ap_extra_ies(struct hostapd_data *hapd,
  21:C:/Users/stapi/OneDrive/Desktop/GD32VW553/V1_MQTT_OK/GD32VW55X_Wifi_BLE_SDK/GD32VW55x_RELEASE_V1.0.2/MSDK/wpa_supplicant/src/ap\ap_drv_ops.h **** 			       struct wpabuf **beacon,
  22:C:/Users/stapi/OneDrive/Desktop/GD32VW553/V1_MQTT_OK/GD32VW55X_Wifi_BLE_SDK/GD32VW55x_RELEASE_V1.0.2/MSDK/wpa_supplicant/src/ap\ap_drv_ops.h **** 			       struct wpabuf **proberesp,
  23:C:/Users/stapi/OneDrive/Desktop/GD32VW553/V1_MQTT_OK/GD32VW55X_Wifi_BLE_SDK/GD32VW55x_RELEASE_V1.0.2/MSDK/wpa_supplicant/src/ap\ap_drv_ops.h **** 			       struct wpabuf **assocresp);
  24:C:/Users/stapi/OneDrive/Desktop/GD32VW553/V1_MQTT_OK/GD32VW55X_Wifi_BLE_SDK/GD32VW55x_RELEASE_V1.0.2/MSDK/wpa_supplicant/src/ap\ap_drv_ops.h **** void hostapd_free_ap_extra_ies(struct hostapd_data *hapd, struct wpabuf *beacon,
  25:C:/Users/stapi/OneDrive/Desktop/GD32VW553/V1_MQTT_OK/GD32VW55X_Wifi_BLE_SDK/GD32VW55x_RELEASE_V1.0.2/MSDK/wpa_supplicant/src/ap\ap_drv_ops.h **** 			       struct wpabuf *proberesp,
  26:C:/Users/stapi/OneDrive/Desktop/GD32VW553/V1_MQTT_OK/GD32VW55X_Wifi_BLE_SDK/GD32VW55x_RELEASE_V1.0.2/MSDK/wpa_supplicant/src/ap\ap_drv_ops.h **** 			       struct wpabuf *assocresp);
  27:C:/Users/stapi/OneDrive/Desktop/GD32VW553/V1_MQTT_OK/GD32VW55X_Wifi_BLE_SDK/GD32VW55x_RELEASE_V1.0.2/MSDK/wpa_supplicant/src/ap\ap_drv_ops.h **** int hostapd_reset_ap_wps_ie(struct hostapd_data *hapd);
  28:C:/Users/stapi/OneDrive/Desktop/GD32VW553/V1_MQTT_OK/GD32VW55X_Wifi_BLE_SDK/GD32VW55x_RELEASE_V1.0.2/MSDK/wpa_supplicant/src/ap\ap_drv_ops.h **** int hostapd_set_ap_wps_ie(struct hostapd_data *hapd);
  29:C:/Users/stapi/OneDrive/Desktop/GD32VW553/V1_MQTT_OK/GD32VW55X_Wifi_BLE_SDK/GD32VW55x_RELEASE_V1.0.2/MSDK/wpa_supplicant/src/ap\ap_drv_ops.h **** int hostapd_set_authorized(struct hostapd_data *hapd,
  30:C:/Users/stapi/OneDrive/Desktop/GD32VW553/V1_MQTT_OK/GD32VW55X_Wifi_BLE_SDK/GD32VW55x_RELEASE_V1.0.2/MSDK/wpa_supplicant/src/ap\ap_drv_ops.h **** 			   struct sta_info *sta, int authorized);
  31:C:/Users/stapi/OneDrive/Desktop/GD32VW553/V1_MQTT_OK/GD32VW55X_Wifi_BLE_SDK/GD32VW55x_RELEASE_V1.0.2/MSDK/wpa_supplicant/src/ap\ap_drv_ops.h **** int hostapd_set_sta_flags(struct hostapd_data *hapd, struct sta_info *sta);
  32:C:/Users/stapi/OneDrive/Desktop/GD32VW553/V1_MQTT_OK/GD32VW55X_Wifi_BLE_SDK/GD32VW55x_RELEASE_V1.0.2/MSDK/wpa_supplicant/src/ap\ap_drv_ops.h **** int hostapd_set_drv_ieee8021x(struct hostapd_data *hapd, const char *ifname,
  33:C:/Users/stapi/OneDrive/Desktop/GD32VW553/V1_MQTT_OK/GD32VW55X_Wifi_BLE_SDK/GD32VW55x_RELEASE_V1.0.2/MSDK/wpa_supplicant/src/ap\ap_drv_ops.h **** 			      int enabled);
  34:C:/Users/stapi/OneDrive/Desktop/GD32VW553/V1_MQTT_OK/GD32VW55X_Wifi_BLE_SDK/GD32VW55x_RELEASE_V1.0.2/MSDK/wpa_supplicant/src/ap\ap_drv_ops.h **** int hostapd_vlan_if_add(struct hostapd_data *hapd, const char *ifname);
  35:C:/Users/stapi/OneDrive/Desktop/GD32VW553/V1_MQTT_OK/GD32VW55X_Wifi_BLE_SDK/GD32VW55x_RELEASE_V1.0.2/MSDK/wpa_supplicant/src/ap\ap_drv_ops.h **** int hostapd_vlan_if_remove(struct hostapd_data *hapd, const char *ifname);
  36:C:/Users/stapi/OneDrive/Desktop/GD32VW553/V1_MQTT_OK/GD32VW55X_Wifi_BLE_SDK/GD32VW55x_RELEASE_V1.0.2/MSDK/wpa_supplicant/src/ap\ap_drv_ops.h **** int hostapd_set_wds_sta(struct hostapd_data *hapd, char *ifname_wds,
  37:C:/Users/stapi/OneDrive/Desktop/GD32VW553/V1_MQTT_OK/GD32VW55X_Wifi_BLE_SDK/GD32VW55x_RELEASE_V1.0.2/MSDK/wpa_supplicant/src/ap\ap_drv_ops.h **** 			const u8 *addr, int aid, int val);
  38:C:/Users/stapi/OneDrive/Desktop/GD32VW553/V1_MQTT_OK/GD32VW55X_Wifi_BLE_SDK/GD32VW55x_RELEASE_V1.0.2/MSDK/wpa_supplicant/src/ap\ap_drv_ops.h **** int hostapd_sta_add(struct hostapd_data *hapd,
  39:C:/Users/stapi/OneDrive/Desktop/GD32VW553/V1_MQTT_OK/GD32VW55X_Wifi_BLE_SDK/GD32VW55x_RELEASE_V1.0.2/MSDK/wpa_supplicant/src/ap\ap_drv_ops.h **** 		    const u8 *addr, u16 aid, u16 capability,
  40:C:/Users/stapi/OneDrive/Desktop/GD32VW553/V1_MQTT_OK/GD32VW55X_Wifi_BLE_SDK/GD32VW55x_RELEASE_V1.0.2/MSDK/wpa_supplicant/src/ap\ap_drv_ops.h **** 		    const u8 *supp_rates, size_t supp_rates_len,
  41:C:/Users/stapi/OneDrive/Desktop/GD32VW553/V1_MQTT_OK/GD32VW55X_Wifi_BLE_SDK/GD32VW55x_RELEASE_V1.0.2/MSDK/wpa_supplicant/src/ap\ap_drv_ops.h **** 		    u16 listen_interval,
  42:C:/Users/stapi/OneDrive/Desktop/GD32VW553/V1_MQTT_OK/GD32VW55X_Wifi_BLE_SDK/GD32VW55x_RELEASE_V1.0.2/MSDK/wpa_supplicant/src/ap\ap_drv_ops.h **** 		    const struct ieee80211_ht_capabilities *ht_capab,
  43:C:/Users/stapi/OneDrive/Desktop/GD32VW553/V1_MQTT_OK/GD32VW55X_Wifi_BLE_SDK/GD32VW55x_RELEASE_V1.0.2/MSDK/wpa_supplicant/src/ap\ap_drv_ops.h **** 		    const struct ieee80211_vht_capabilities *vht_capab,
  44:C:/Users/stapi/OneDrive/Desktop/GD32VW553/V1_MQTT_OK/GD32VW55X_Wifi_BLE_SDK/GD32VW55x_RELEASE_V1.0.2/MSDK/wpa_supplicant/src/ap\ap_drv_ops.h **** 		    const struct ieee80211_he_capabilities *he_capab,
  45:C:/Users/stapi/OneDrive/Desktop/GD32VW553/V1_MQTT_OK/GD32VW55X_Wifi_BLE_SDK/GD32VW55x_RELEASE_V1.0.2/MSDK/wpa_supplicant/src/ap\ap_drv_ops.h **** 		    size_t he_capab_len,
  46:C:/Users/stapi/OneDrive/Desktop/GD32VW553/V1_MQTT_OK/GD32VW55X_Wifi_BLE_SDK/GD32VW55x_RELEASE_V1.0.2/MSDK/wpa_supplicant/src/ap\ap_drv_ops.h **** 		    const struct ieee80211_he_6ghz_band_cap *he_6ghz_capab,
  47:C:/Users/stapi/OneDrive/Desktop/GD32VW553/V1_MQTT_OK/GD32VW55X_Wifi_BLE_SDK/GD32VW55x_RELEASE_V1.0.2/MSDK/wpa_supplicant/src/ap\ap_drv_ops.h **** 		    u32 flags, u8 qosinfo, u8 vht_opmode, int supp_p2p_ps,
  48:C:/Users/stapi/OneDrive/Desktop/GD32VW553/V1_MQTT_OK/GD32VW55X_Wifi_BLE_SDK/GD32VW55x_RELEASE_V1.0.2/MSDK/wpa_supplicant/src/ap\ap_drv_ops.h **** 		    int set);
  49:C:/Users/stapi/OneDrive/Desktop/GD32VW553/V1_MQTT_OK/GD32VW55X_Wifi_BLE_SDK/GD32VW55x_RELEASE_V1.0.2/MSDK/wpa_supplicant/src/ap\ap_drv_ops.h **** int hostapd_set_privacy(struct hostapd_data *hapd, int enabled);
  50:C:/Users/stapi/OneDrive/Desktop/GD32VW553/V1_MQTT_OK/GD32VW55X_Wifi_BLE_SDK/GD32VW55x_RELEASE_V1.0.2/MSDK/wpa_supplicant/src/ap\ap_drv_ops.h **** int hostapd_set_generic_elem(struct hostapd_data *hapd, const u8 *elem,
  51:C:/Users/stapi/OneDrive/Desktop/GD32VW553/V1_MQTT_OK/GD32VW55X_Wifi_BLE_SDK/GD32VW55x_RELEASE_V1.0.2/MSDK/wpa_supplicant/src/ap\ap_drv_ops.h **** 			     size_t elem_len);
  52:C:/Users/stapi/OneDrive/Desktop/GD32VW553/V1_MQTT_OK/GD32VW55X_Wifi_BLE_SDK/GD32VW55x_RELEASE_V1.0.2/MSDK/wpa_supplicant/src/ap\ap_drv_ops.h **** int hostapd_get_ssid(struct hostapd_data *hapd, u8 *buf, size_t len);
  53:C:/Users/stapi/OneDrive/Desktop/GD32VW553/V1_MQTT_OK/GD32VW55X_Wifi_BLE_SDK/GD32VW55x_RELEASE_V1.0.2/MSDK/wpa_supplicant/src/ap\ap_drv_ops.h **** int hostapd_set_ssid(struct hostapd_data *hapd, const u8 *buf, size_t len);
  54:C:/Users/stapi/OneDrive/Desktop/GD32VW553/V1_MQTT_OK/GD32VW55X_Wifi_BLE_SDK/GD32VW55x_RELEASE_V1.0.2/MSDK/wpa_supplicant/src/ap\ap_drv_ops.h **** int hostapd_if_add(struct hostapd_data *hapd, enum wpa_driver_if_type type,
  55:C:/Users/stapi/OneDrive/Desktop/GD32VW553/V1_MQTT_OK/GD32VW55X_Wifi_BLE_SDK/GD32VW55x_RELEASE_V1.0.2/MSDK/wpa_supplicant/src/ap\ap_drv_ops.h **** 		   const char *ifname, const u8 *addr, void *bss_ctx,
  56:C:/Users/stapi/OneDrive/Desktop/GD32VW553/V1_MQTT_OK/GD32VW55X_Wifi_BLE_SDK/GD32VW55x_RELEASE_V1.0.2/MSDK/wpa_supplicant/src/ap\ap_drv_ops.h **** 		   void **drv_priv, char *force_ifname, u8 *if_addr,
  57:C:/Users/stapi/OneDrive/Desktop/GD32VW553/V1_MQTT_OK/GD32VW55X_Wifi_BLE_SDK/GD32VW55x_RELEASE_V1.0.2/MSDK/wpa_supplicant/src/ap\ap_drv_ops.h **** 		   const char *bridge, int use_existing);
  58:C:/Users/stapi/OneDrive/Desktop/GD32VW553/V1_MQTT_OK/GD32VW55X_Wifi_BLE_SDK/GD32VW55x_RELEASE_V1.0.2/MSDK/wpa_supplicant/src/ap\ap_drv_ops.h **** int hostapd_if_remove(struct hostapd_data *hapd, enum wpa_driver_if_type type,
  59:C:/Users/stapi/OneDrive/Desktop/GD32VW553/V1_MQTT_OK/GD32VW55X_Wifi_BLE_SDK/GD32VW55x_RELEASE_V1.0.2/MSDK/wpa_supplicant/src/ap\ap_drv_ops.h **** 		      const char *ifname);
  60:C:/Users/stapi/OneDrive/Desktop/GD32VW553/V1_MQTT_OK/GD32VW55X_Wifi_BLE_SDK/GD32VW55x_RELEASE_V1.0.2/MSDK/wpa_supplicant/src/ap\ap_drv_ops.h **** int hostapd_set_ieee8021x(struct hostapd_data *hapd,
  61:C:/Users/stapi/OneDrive/Desktop/GD32VW553/V1_MQTT_OK/GD32VW55X_Wifi_BLE_SDK/GD32VW55x_RELEASE_V1.0.2/MSDK/wpa_supplicant/src/ap\ap_drv_ops.h **** 			  struct wpa_bss_params *params);
  62:C:/Users/stapi/OneDrive/Desktop/GD32VW553/V1_MQTT_OK/GD32VW55X_Wifi_BLE_SDK/GD32VW55x_RELEASE_V1.0.2/MSDK/wpa_supplicant/src/ap\ap_drv_ops.h **** int hostapd_get_seqnum(const char *ifname, struct hostapd_data *hapd,
  63:C:/Users/stapi/OneDrive/Desktop/GD32VW553/V1_MQTT_OK/GD32VW55X_Wifi_BLE_SDK/GD32VW55x_RELEASE_V1.0.2/MSDK/wpa_supplicant/src/ap\ap_drv_ops.h **** 		       const u8 *addr, int idx, u8 *seq);
  64:C:/Users/stapi/OneDrive/Desktop/GD32VW553/V1_MQTT_OK/GD32VW55X_Wifi_BLE_SDK/GD32VW55x_RELEASE_V1.0.2/MSDK/wpa_supplicant/src/ap\ap_drv_ops.h **** int hostapd_flush(struct hostapd_data *hapd);
  65:C:/Users/stapi/OneDrive/Desktop/GD32VW553/V1_MQTT_OK/GD32VW55X_Wifi_BLE_SDK/GD32VW55x_RELEASE_V1.0.2/MSDK/wpa_supplicant/src/ap\ap_drv_ops.h **** int hostapd_set_freq(struct hostapd_data *hapd, enum hostapd_hw_mode mode,
  66:C:/Users/stapi/OneDrive/Desktop/GD32VW553/V1_MQTT_OK/GD32VW55X_Wifi_BLE_SDK/GD32VW55x_RELEASE_V1.0.2/MSDK/wpa_supplicant/src/ap\ap_drv_ops.h **** 		     int freq, int channel, int edmg, u8 edmg_channel,
  67:C:/Users/stapi/OneDrive/Desktop/GD32VW553/V1_MQTT_OK/GD32VW55X_Wifi_BLE_SDK/GD32VW55x_RELEASE_V1.0.2/MSDK/wpa_supplicant/src/ap\ap_drv_ops.h **** 		     int ht_enabled, int vht_enabled,
  68:C:/Users/stapi/OneDrive/Desktop/GD32VW553/V1_MQTT_OK/GD32VW55X_Wifi_BLE_SDK/GD32VW55x_RELEASE_V1.0.2/MSDK/wpa_supplicant/src/ap\ap_drv_ops.h **** 		     int he_enabled, int sec_channel_offset, int oper_chwidth,
  69:C:/Users/stapi/OneDrive/Desktop/GD32VW553/V1_MQTT_OK/GD32VW55X_Wifi_BLE_SDK/GD32VW55x_RELEASE_V1.0.2/MSDK/wpa_supplicant/src/ap\ap_drv_ops.h **** 		     int center_segment0, int center_segment1);
  70:C:/Users/stapi/OneDrive/Desktop/GD32VW553/V1_MQTT_OK/GD32VW55X_Wifi_BLE_SDK/GD32VW55x_RELEASE_V1.0.2/MSDK/wpa_supplicant/src/ap\ap_drv_ops.h **** int hostapd_set_rts(struct hostapd_data *hapd, int rts);
  71:C:/Users/stapi/OneDrive/Desktop/GD32VW553/V1_MQTT_OK/GD32VW55X_Wifi_BLE_SDK/GD32VW55x_RELEASE_V1.0.2/MSDK/wpa_supplicant/src/ap\ap_drv_ops.h **** int hostapd_set_frag(struct hostapd_data *hapd, int frag);
  72:C:/Users/stapi/OneDrive/Desktop/GD32VW553/V1_MQTT_OK/GD32VW55X_Wifi_BLE_SDK/GD32VW55x_RELEASE_V1.0.2/MSDK/wpa_supplicant/src/ap\ap_drv_ops.h **** int hostapd_sta_set_flags(struct hostapd_data *hapd, u8 *addr,
  73:C:/Users/stapi/OneDrive/Desktop/GD32VW553/V1_MQTT_OK/GD32VW55X_Wifi_BLE_SDK/GD32VW55x_RELEASE_V1.0.2/MSDK/wpa_supplicant/src/ap\ap_drv_ops.h **** 			  int total_flags, int flags_or, int flags_and);
  74:C:/Users/stapi/OneDrive/Desktop/GD32VW553/V1_MQTT_OK/GD32VW55X_Wifi_BLE_SDK/GD32VW55x_RELEASE_V1.0.2/MSDK/wpa_supplicant/src/ap\ap_drv_ops.h **** int hostapd_sta_set_airtime_weight(struct hostapd_data *hapd, const u8 *addr,
  75:C:/Users/stapi/OneDrive/Desktop/GD32VW553/V1_MQTT_OK/GD32VW55X_Wifi_BLE_SDK/GD32VW55x_RELEASE_V1.0.2/MSDK/wpa_supplicant/src/ap\ap_drv_ops.h **** 				   unsigned int weight);
  76:C:/Users/stapi/OneDrive/Desktop/GD32VW553/V1_MQTT_OK/GD32VW55X_Wifi_BLE_SDK/GD32VW55x_RELEASE_V1.0.2/MSDK/wpa_supplicant/src/ap\ap_drv_ops.h **** int hostapd_set_country(struct hostapd_data *hapd, const char *country);
  77:C:/Users/stapi/OneDrive/Desktop/GD32VW553/V1_MQTT_OK/GD32VW55X_Wifi_BLE_SDK/GD32VW55x_RELEASE_V1.0.2/MSDK/wpa_supplicant/src/ap\ap_drv_ops.h **** int hostapd_set_tx_queue_params(struct hostapd_data *hapd, int queue, int aifs,
  78:C:/Users/stapi/OneDrive/Desktop/GD32VW553/V1_MQTT_OK/GD32VW55X_Wifi_BLE_SDK/GD32VW55x_RELEASE_V1.0.2/MSDK/wpa_supplicant/src/ap\ap_drv_ops.h **** 				int cw_min, int cw_max, int burst_time);
  79:C:/Users/stapi/OneDrive/Desktop/GD32VW553/V1_MQTT_OK/GD32VW55X_Wifi_BLE_SDK/GD32VW55x_RELEASE_V1.0.2/MSDK/wpa_supplicant/src/ap\ap_drv_ops.h **** struct hostapd_hw_modes *
  80:C:/Users/stapi/OneDrive/Desktop/GD32VW553/V1_MQTT_OK/GD32VW55X_Wifi_BLE_SDK/GD32VW55x_RELEASE_V1.0.2/MSDK/wpa_supplicant/src/ap\ap_drv_ops.h **** hostapd_get_hw_feature_data(struct hostapd_data *hapd, u16 *num_modes,
  81:C:/Users/stapi/OneDrive/Desktop/GD32VW553/V1_MQTT_OK/GD32VW55X_Wifi_BLE_SDK/GD32VW55x_RELEASE_V1.0.2/MSDK/wpa_supplicant/src/ap\ap_drv_ops.h **** 			    u16 *flags, u8 *dfs_domain);
  82:C:/Users/stapi/OneDrive/Desktop/GD32VW553/V1_MQTT_OK/GD32VW55X_Wifi_BLE_SDK/GD32VW55x_RELEASE_V1.0.2/MSDK/wpa_supplicant/src/ap\ap_drv_ops.h **** int hostapd_driver_commit(struct hostapd_data *hapd);
  83:C:/Users/stapi/OneDrive/Desktop/GD32VW553/V1_MQTT_OK/GD32VW55X_Wifi_BLE_SDK/GD32VW55x_RELEASE_V1.0.2/MSDK/wpa_supplicant/src/ap\ap_drv_ops.h **** int hostapd_drv_none(struct hostapd_data *hapd);
  84:C:/Users/stapi/OneDrive/Desktop/GD32VW553/V1_MQTT_OK/GD32VW55X_Wifi_BLE_SDK/GD32VW55x_RELEASE_V1.0.2/MSDK/wpa_supplicant/src/ap\ap_drv_ops.h **** bool hostapd_drv_nl80211(struct hostapd_data *hapd);
  85:C:/Users/stapi/OneDrive/Desktop/GD32VW553/V1_MQTT_OK/GD32VW55X_Wifi_BLE_SDK/GD32VW55x_RELEASE_V1.0.2/MSDK/wpa_supplicant/src/ap\ap_drv_ops.h **** int hostapd_driver_scan(struct hostapd_data *hapd,
  86:C:/Users/stapi/OneDrive/Desktop/GD32VW553/V1_MQTT_OK/GD32VW55X_Wifi_BLE_SDK/GD32VW55x_RELEASE_V1.0.2/MSDK/wpa_supplicant/src/ap\ap_drv_ops.h **** 			struct wpa_driver_scan_params *params);
  87:C:/Users/stapi/OneDrive/Desktop/GD32VW553/V1_MQTT_OK/GD32VW55X_Wifi_BLE_SDK/GD32VW55x_RELEASE_V1.0.2/MSDK/wpa_supplicant/src/ap\ap_drv_ops.h **** struct wpa_scan_results * hostapd_driver_get_scan_results(
  88:C:/Users/stapi/OneDrive/Desktop/GD32VW553/V1_MQTT_OK/GD32VW55X_Wifi_BLE_SDK/GD32VW55x_RELEASE_V1.0.2/MSDK/wpa_supplicant/src/ap\ap_drv_ops.h **** 	struct hostapd_data *hapd);
  89:C:/Users/stapi/OneDrive/Desktop/GD32VW553/V1_MQTT_OK/GD32VW55X_Wifi_BLE_SDK/GD32VW55x_RELEASE_V1.0.2/MSDK/wpa_supplicant/src/ap\ap_drv_ops.h **** int hostapd_driver_set_noa(struct hostapd_data *hapd, u8 count, int start,
  90:C:/Users/stapi/OneDrive/Desktop/GD32VW553/V1_MQTT_OK/GD32VW55X_Wifi_BLE_SDK/GD32VW55x_RELEASE_V1.0.2/MSDK/wpa_supplicant/src/ap\ap_drv_ops.h **** 			   int duration);
  91:C:/Users/stapi/OneDrive/Desktop/GD32VW553/V1_MQTT_OK/GD32VW55X_Wifi_BLE_SDK/GD32VW55x_RELEASE_V1.0.2/MSDK/wpa_supplicant/src/ap\ap_drv_ops.h **** int hostapd_drv_set_key(const char *ifname,
  92:C:/Users/stapi/OneDrive/Desktop/GD32VW553/V1_MQTT_OK/GD32VW55X_Wifi_BLE_SDK/GD32VW55x_RELEASE_V1.0.2/MSDK/wpa_supplicant/src/ap\ap_drv_ops.h **** 			struct hostapd_data *hapd,
  93:C:/Users/stapi/OneDrive/Desktop/GD32VW553/V1_MQTT_OK/GD32VW55X_Wifi_BLE_SDK/GD32VW55x_RELEASE_V1.0.2/MSDK/wpa_supplicant/src/ap\ap_drv_ops.h **** 			enum wpa_alg alg, const u8 *addr,
  94:C:/Users/stapi/OneDrive/Desktop/GD32VW553/V1_MQTT_OK/GD32VW55X_Wifi_BLE_SDK/GD32VW55x_RELEASE_V1.0.2/MSDK/wpa_supplicant/src/ap\ap_drv_ops.h **** 			int key_idx, int vlan_id, int set_tx,
  95:C:/Users/stapi/OneDrive/Desktop/GD32VW553/V1_MQTT_OK/GD32VW55X_Wifi_BLE_SDK/GD32VW55x_RELEASE_V1.0.2/MSDK/wpa_supplicant/src/ap\ap_drv_ops.h **** 			const u8 *seq, size_t seq_len,
  96:C:/Users/stapi/OneDrive/Desktop/GD32VW553/V1_MQTT_OK/GD32VW55X_Wifi_BLE_SDK/GD32VW55x_RELEASE_V1.0.2/MSDK/wpa_supplicant/src/ap\ap_drv_ops.h **** 			const u8 *key, size_t key_len, enum key_flag key_flag);
  97:C:/Users/stapi/OneDrive/Desktop/GD32VW553/V1_MQTT_OK/GD32VW55X_Wifi_BLE_SDK/GD32VW55x_RELEASE_V1.0.2/MSDK/wpa_supplicant/src/ap\ap_drv_ops.h **** int hostapd_drv_send_mlme(struct hostapd_data *hapd,
  98:C:/Users/stapi/OneDrive/Desktop/GD32VW553/V1_MQTT_OK/GD32VW55X_Wifi_BLE_SDK/GD32VW55x_RELEASE_V1.0.2/MSDK/wpa_supplicant/src/ap\ap_drv_ops.h **** 			  const void *msg, size_t len, int noack,
  99:C:/Users/stapi/OneDrive/Desktop/GD32VW553/V1_MQTT_OK/GD32VW55X_Wifi_BLE_SDK/GD32VW55x_RELEASE_V1.0.2/MSDK/wpa_supplicant/src/ap\ap_drv_ops.h **** 			  const u16 *csa_offs, size_t csa_offs_len,
 100:C:/Users/stapi/OneDrive/Desktop/GD32VW553/V1_MQTT_OK/GD32VW55X_Wifi_BLE_SDK/GD32VW55x_RELEASE_V1.0.2/MSDK/wpa_supplicant/src/ap\ap_drv_ops.h **** 			  int no_encrypt);
 101:C:/Users/stapi/OneDrive/Desktop/GD32VW553/V1_MQTT_OK/GD32VW55X_Wifi_BLE_SDK/GD32VW55x_RELEASE_V1.0.2/MSDK/wpa_supplicant/src/ap\ap_drv_ops.h **** int hostapd_drv_sta_deauth(struct hostapd_data *hapd,
 102:C:/Users/stapi/OneDrive/Desktop/GD32VW553/V1_MQTT_OK/GD32VW55X_Wifi_BLE_SDK/GD32VW55x_RELEASE_V1.0.2/MSDK/wpa_supplicant/src/ap\ap_drv_ops.h **** 			   const u8 *addr, int reason);
 103:C:/Users/stapi/OneDrive/Desktop/GD32VW553/V1_MQTT_OK/GD32VW55X_Wifi_BLE_SDK/GD32VW55x_RELEASE_V1.0.2/MSDK/wpa_supplicant/src/ap\ap_drv_ops.h **** int hostapd_drv_sta_disassoc(struct hostapd_data *hapd,
 104:C:/Users/stapi/OneDrive/Desktop/GD32VW553/V1_MQTT_OK/GD32VW55X_Wifi_BLE_SDK/GD32VW55x_RELEASE_V1.0.2/MSDK/wpa_supplicant/src/ap\ap_drv_ops.h **** 			     const u8 *addr, int reason);
 105:C:/Users/stapi/OneDrive/Desktop/GD32VW553/V1_MQTT_OK/GD32VW55X_Wifi_BLE_SDK/GD32VW55x_RELEASE_V1.0.2/MSDK/wpa_supplicant/src/ap\ap_drv_ops.h **** int hostapd_drv_send_action(struct hostapd_data *hapd, unsigned int freq,
 106:C:/Users/stapi/OneDrive/Desktop/GD32VW553/V1_MQTT_OK/GD32VW55X_Wifi_BLE_SDK/GD32VW55x_RELEASE_V1.0.2/MSDK/wpa_supplicant/src/ap\ap_drv_ops.h **** 			    unsigned int wait, const u8 *dst, const u8 *data,
 107:C:/Users/stapi/OneDrive/Desktop/GD32VW553/V1_MQTT_OK/GD32VW55X_Wifi_BLE_SDK/GD32VW55x_RELEASE_V1.0.2/MSDK/wpa_supplicant/src/ap\ap_drv_ops.h **** 			    size_t len);
 108:C:/Users/stapi/OneDrive/Desktop/GD32VW553/V1_MQTT_OK/GD32VW55X_Wifi_BLE_SDK/GD32VW55x_RELEASE_V1.0.2/MSDK/wpa_supplicant/src/ap\ap_drv_ops.h **** int hostapd_drv_send_action_addr3_ap(struct hostapd_data *hapd,
 109:C:/Users/stapi/OneDrive/Desktop/GD32VW553/V1_MQTT_OK/GD32VW55X_Wifi_BLE_SDK/GD32VW55x_RELEASE_V1.0.2/MSDK/wpa_supplicant/src/ap\ap_drv_ops.h **** 				     unsigned int freq,
 110:C:/Users/stapi/OneDrive/Desktop/GD32VW553/V1_MQTT_OK/GD32VW55X_Wifi_BLE_SDK/GD32VW55x_RELEASE_V1.0.2/MSDK/wpa_supplicant/src/ap\ap_drv_ops.h **** 				     unsigned int wait, const u8 *dst,
 111:C:/Users/stapi/OneDrive/Desktop/GD32VW553/V1_MQTT_OK/GD32VW55X_Wifi_BLE_SDK/GD32VW55x_RELEASE_V1.0.2/MSDK/wpa_supplicant/src/ap\ap_drv_ops.h **** 				     const u8 *data, size_t len);
 112:C:/Users/stapi/OneDrive/Desktop/GD32VW553/V1_MQTT_OK/GD32VW55X_Wifi_BLE_SDK/GD32VW55x_RELEASE_V1.0.2/MSDK/wpa_supplicant/src/ap\ap_drv_ops.h **** static inline void
 113:C:/Users/stapi/OneDrive/Desktop/GD32VW553/V1_MQTT_OK/GD32VW55X_Wifi_BLE_SDK/GD32VW55x_RELEASE_V1.0.2/MSDK/wpa_supplicant/src/ap\ap_drv_ops.h **** hostapd_drv_send_action_cancel_wait(struct hostapd_data *hapd)
 114:C:/Users/stapi/OneDrive/Desktop/GD32VW553/V1_MQTT_OK/GD32VW55X_Wifi_BLE_SDK/GD32VW55x_RELEASE_V1.0.2/MSDK/wpa_supplicant/src/ap\ap_drv_ops.h **** {
 115:C:/Users/stapi/OneDrive/Desktop/GD32VW553/V1_MQTT_OK/GD32VW55X_Wifi_BLE_SDK/GD32VW55x_RELEASE_V1.0.2/MSDK/wpa_supplicant/src/ap\ap_drv_ops.h **** 	if (!hapd->driver || !hapd->driver->send_action_cancel_wait ||
 116:C:/Users/stapi/OneDrive/Desktop/GD32VW553/V1_MQTT_OK/GD32VW55X_Wifi_BLE_SDK/GD32VW55x_RELEASE_V1.0.2/MSDK/wpa_supplicant/src/ap\ap_drv_ops.h **** 	    !hapd->drv_priv)
 117:C:/Users/stapi/OneDrive/Desktop/GD32VW553/V1_MQTT_OK/GD32VW55X_Wifi_BLE_SDK/GD32VW55x_RELEASE_V1.0.2/MSDK/wpa_supplicant/src/ap\ap_drv_ops.h **** 		return;
 118:C:/Users/stapi/OneDrive/Desktop/GD32VW553/V1_MQTT_OK/GD32VW55X_Wifi_BLE_SDK/GD32VW55x_RELEASE_V1.0.2/MSDK/wpa_supplicant/src/ap\ap_drv_ops.h **** 	hapd->driver->send_action_cancel_wait(hapd->drv_priv);
 119:C:/Users/stapi/OneDrive/Desktop/GD32VW553/V1_MQTT_OK/GD32VW55X_Wifi_BLE_SDK/GD32VW55x_RELEASE_V1.0.2/MSDK/wpa_supplicant/src/ap\ap_drv_ops.h **** }
 120:C:/Users/stapi/OneDrive/Desktop/GD32VW553/V1_MQTT_OK/GD32VW55X_Wifi_BLE_SDK/GD32VW55x_RELEASE_V1.0.2/MSDK/wpa_supplicant/src/ap\ap_drv_ops.h **** int hostapd_add_sta_node(struct hostapd_data *hapd, const u8 *addr,
 121:C:/Users/stapi/OneDrive/Desktop/GD32VW553/V1_MQTT_OK/GD32VW55X_Wifi_BLE_SDK/GD32VW55x_RELEASE_V1.0.2/MSDK/wpa_supplicant/src/ap\ap_drv_ops.h **** 			 u16 auth_alg);
 122:C:/Users/stapi/OneDrive/Desktop/GD32VW553/V1_MQTT_OK/GD32VW55X_Wifi_BLE_SDK/GD32VW55x_RELEASE_V1.0.2/MSDK/wpa_supplicant/src/ap\ap_drv_ops.h **** int hostapd_sta_auth(struct hostapd_data *hapd, const u8 *addr,
 123:C:/Users/stapi/OneDrive/Desktop/GD32VW553/V1_MQTT_OK/GD32VW55X_Wifi_BLE_SDK/GD32VW55x_RELEASE_V1.0.2/MSDK/wpa_supplicant/src/ap\ap_drv_ops.h **** 		     u16 seq, u16 status, const u8 *ie, size_t len);
 124:C:/Users/stapi/OneDrive/Desktop/GD32VW553/V1_MQTT_OK/GD32VW55X_Wifi_BLE_SDK/GD32VW55x_RELEASE_V1.0.2/MSDK/wpa_supplicant/src/ap\ap_drv_ops.h **** int hostapd_sta_assoc(struct hostapd_data *hapd, const u8 *addr,
 125:C:/Users/stapi/OneDrive/Desktop/GD32VW553/V1_MQTT_OK/GD32VW55X_Wifi_BLE_SDK/GD32VW55x_RELEASE_V1.0.2/MSDK/wpa_supplicant/src/ap\ap_drv_ops.h **** 		      int reassoc, u16 status, const u8 *ie, size_t len);
 126:C:/Users/stapi/OneDrive/Desktop/GD32VW553/V1_MQTT_OK/GD32VW55X_Wifi_BLE_SDK/GD32VW55x_RELEASE_V1.0.2/MSDK/wpa_supplicant/src/ap\ap_drv_ops.h **** int hostapd_add_tspec(struct hostapd_data *hapd, const u8 *addr,
 127:C:/Users/stapi/OneDrive/Desktop/GD32VW553/V1_MQTT_OK/GD32VW55X_Wifi_BLE_SDK/GD32VW55x_RELEASE_V1.0.2/MSDK/wpa_supplicant/src/ap\ap_drv_ops.h **** 		      u8 *tspec_ie, size_t tspec_ielen);
 128:C:/Users/stapi/OneDrive/Desktop/GD32VW553/V1_MQTT_OK/GD32VW55X_Wifi_BLE_SDK/GD32VW55x_RELEASE_V1.0.2/MSDK/wpa_supplicant/src/ap\ap_drv_ops.h **** int hostapd_start_dfs_cac(struct hostapd_iface *iface,
 129:C:/Users/stapi/OneDrive/Desktop/GD32VW553/V1_MQTT_OK/GD32VW55X_Wifi_BLE_SDK/GD32VW55x_RELEASE_V1.0.2/MSDK/wpa_supplicant/src/ap\ap_drv_ops.h **** 			  enum hostapd_hw_mode mode, int freq,
 130:C:/Users/stapi/OneDrive/Desktop/GD32VW553/V1_MQTT_OK/GD32VW55X_Wifi_BLE_SDK/GD32VW55x_RELEASE_V1.0.2/MSDK/wpa_supplicant/src/ap\ap_drv_ops.h **** 			  int channel, int ht_enabled, int vht_enabled,
 131:C:/Users/stapi/OneDrive/Desktop/GD32VW553/V1_MQTT_OK/GD32VW55X_Wifi_BLE_SDK/GD32VW55x_RELEASE_V1.0.2/MSDK/wpa_supplicant/src/ap\ap_drv_ops.h **** 			  int he_enabled,
 132:C:/Users/stapi/OneDrive/Desktop/GD32VW553/V1_MQTT_OK/GD32VW55X_Wifi_BLE_SDK/GD32VW55x_RELEASE_V1.0.2/MSDK/wpa_supplicant/src/ap\ap_drv_ops.h **** 			  int sec_channel_offset, int oper_chwidth,
 133:C:/Users/stapi/OneDrive/Desktop/GD32VW553/V1_MQTT_OK/GD32VW55X_Wifi_BLE_SDK/GD32VW55x_RELEASE_V1.0.2/MSDK/wpa_supplicant/src/ap\ap_drv_ops.h **** 			  int center_segment0, int center_segment1);
 134:C:/Users/stapi/OneDrive/Desktop/GD32VW553/V1_MQTT_OK/GD32VW55X_Wifi_BLE_SDK/GD32VW55x_RELEASE_V1.0.2/MSDK/wpa_supplicant/src/ap\ap_drv_ops.h **** int hostapd_drv_do_acs(struct hostapd_data *hapd);
 135:C:/Users/stapi/OneDrive/Desktop/GD32VW553/V1_MQTT_OK/GD32VW55X_Wifi_BLE_SDK/GD32VW55x_RELEASE_V1.0.2/MSDK/wpa_supplicant/src/ap\ap_drv_ops.h **** int hostapd_drv_update_dh_ie(struct hostapd_data *hapd, const u8 *peer,
 136:C:/Users/stapi/OneDrive/Desktop/GD32VW553/V1_MQTT_OK/GD32VW55X_Wifi_BLE_SDK/GD32VW55x_RELEASE_V1.0.2/MSDK/wpa_supplicant/src/ap\ap_drv_ops.h **** 			     u16 reason_code, const u8 *ie, size_t ielen);
 137:C:/Users/stapi/OneDrive/Desktop/GD32VW553/V1_MQTT_OK/GD32VW55X_Wifi_BLE_SDK/GD32VW55x_RELEASE_V1.0.2/MSDK/wpa_supplicant/src/ap\ap_drv_ops.h **** int hostapd_drv_dpp_listen(struct hostapd_data *hapd, bool enable);
 138:C:/Users/stapi/OneDrive/Desktop/GD32VW553/V1_MQTT_OK/GD32VW55X_Wifi_BLE_SDK/GD32VW55x_RELEASE_V1.0.2/MSDK/wpa_supplicant/src/ap\ap_drv_ops.h **** 
 139:C:/Users/stapi/OneDrive/Desktop/GD32VW553/V1_MQTT_OK/GD32VW55X_Wifi_BLE_SDK/GD32VW55x_RELEASE_V1.0.2/MSDK/wpa_supplicant/src/ap\ap_drv_ops.h **** 
 140:C:/Users/stapi/OneDrive/Desktop/GD32VW553/V1_MQTT_OK/GD32VW55X_Wifi_BLE_SDK/GD32VW55x_RELEASE_V1.0.2/MSDK/wpa_supplicant/src/ap\ap_drv_ops.h **** #include "drivers/driver.h"
 141:C:/Users/stapi/OneDrive/Desktop/GD32VW553/V1_MQTT_OK/GD32VW55X_Wifi_BLE_SDK/GD32VW55x_RELEASE_V1.0.2/MSDK/wpa_supplicant/src/ap\ap_drv_ops.h **** 
 142:C:/Users/stapi/OneDrive/Desktop/GD32VW553/V1_MQTT_OK/GD32VW55X_Wifi_BLE_SDK/GD32VW55x_RELEASE_V1.0.2/MSDK/wpa_supplicant/src/ap\ap_drv_ops.h **** int hostapd_drv_wnm_oper(struct hostapd_data *hapd,
 143:C:/Users/stapi/OneDrive/Desktop/GD32VW553/V1_MQTT_OK/GD32VW55X_Wifi_BLE_SDK/GD32VW55x_RELEASE_V1.0.2/MSDK/wpa_supplicant/src/ap\ap_drv_ops.h **** 			 enum wnm_oper oper, const u8 *peer,
 144:C:/Users/stapi/OneDrive/Desktop/GD32VW553/V1_MQTT_OK/GD32VW55X_Wifi_BLE_SDK/GD32VW55x_RELEASE_V1.0.2/MSDK/wpa_supplicant/src/ap\ap_drv_ops.h **** 			 u8 *buf, u16 *buf_len);
 145:C:/Users/stapi/OneDrive/Desktop/GD32VW553/V1_MQTT_OK/GD32VW55X_Wifi_BLE_SDK/GD32VW55x_RELEASE_V1.0.2/MSDK/wpa_supplicant/src/ap\ap_drv_ops.h **** 
 146:C:/Users/stapi/OneDrive/Desktop/GD32VW553/V1_MQTT_OK/GD32VW55X_Wifi_BLE_SDK/GD32VW55x_RELEASE_V1.0.2/MSDK/wpa_supplicant/src/ap\ap_drv_ops.h **** int hostapd_drv_set_qos_map(struct hostapd_data *hapd, const u8 *qos_map_set,
 147:C:/Users/stapi/OneDrive/Desktop/GD32VW553/V1_MQTT_OK/GD32VW55X_Wifi_BLE_SDK/GD32VW55x_RELEASE_V1.0.2/MSDK/wpa_supplicant/src/ap\ap_drv_ops.h **** 			    u8 qos_map_set_len);
 148:C:/Users/stapi/OneDrive/Desktop/GD32VW553/V1_MQTT_OK/GD32VW55X_Wifi_BLE_SDK/GD32VW55x_RELEASE_V1.0.2/MSDK/wpa_supplicant/src/ap\ap_drv_ops.h **** 
 149:C:/Users/stapi/OneDrive/Desktop/GD32VW553/V1_MQTT_OK/GD32VW55X_Wifi_BLE_SDK/GD32VW55x_RELEASE_V1.0.2/MSDK/wpa_supplicant/src/ap\ap_drv_ops.h **** void hostapd_get_ext_capa(struct hostapd_iface *iface);
 150:C:/Users/stapi/OneDrive/Desktop/GD32VW553/V1_MQTT_OK/GD32VW55X_Wifi_BLE_SDK/GD32VW55x_RELEASE_V1.0.2/MSDK/wpa_supplicant/src/ap\ap_drv_ops.h **** 
 151:C:/Users/stapi/OneDrive/Desktop/GD32VW553/V1_MQTT_OK/GD32VW55X_Wifi_BLE_SDK/GD32VW55x_RELEASE_V1.0.2/MSDK/wpa_supplicant/src/ap\ap_drv_ops.h **** static inline int hostapd_drv_set_countermeasures(struct hostapd_data *hapd,
  15              		.loc 1 151 19
  16              		.cfi_startproc
  17              	.LVL0:
 152:C:/Users/stapi/OneDrive/Desktop/GD32VW553/V1_MQTT_OK/GD32VW55X_Wifi_BLE_SDK/GD32VW55x_RELEASE_V1.0.2/MSDK/wpa_supplicant/src/ap\ap_drv_ops.h **** 						  int enabled)
 153:C:/Users/stapi/OneDrive/Desktop/GD32VW553/V1_MQTT_OK/GD32VW55X_Wifi_BLE_SDK/GD32VW55x_RELEASE_V1.0.2/MSDK/wpa_supplicant/src/ap\ap_drv_ops.h **** {
 154:C:/Users/stapi/OneDrive/Desktop/GD32VW553/V1_MQTT_OK/GD32VW55X_Wifi_BLE_SDK/GD32VW55x_RELEASE_V1.0.2/MSDK/wpa_supplicant/src/ap\ap_drv_ops.h **** 	if (hapd->driver == NULL ||
  18              		.loc 1 154 2
  19              		.loc 1 154 10 is_stmt 0
  20 0000 8327C551 		lw	a5,1308(a0)
  21              		.loc 1 154 5
  22 0004 99C7     		beq	a5,zero,.L10
 155:C:/Users/stapi/OneDrive/Desktop/GD32VW553/V1_MQTT_OK/GD32VW55X_Wifi_BLE_SDK/GD32VW55x_RELEASE_V1.0.2/MSDK/wpa_supplicant/src/ap\ap_drv_ops.h **** 	    hapd->driver->hapd_set_countermeasures == NULL)
  23              		.loc 1 155 18
  24 0006 83A7870C 		lw	a5,200(a5)
 154:C:/Users/stapi/OneDrive/Desktop/GD32VW553/V1_MQTT_OK/GD32VW55X_Wifi_BLE_SDK/GD32VW55x_RELEASE_V1.0.2/MSDK/wpa_supplicant/src/ap\ap_drv_ops.h **** 	    hapd->driver->hapd_set_countermeasures == NULL)
  25              		.loc 1 154 27
  26 000a 81C7     		beq	a5,zero,.L10
 156:C:/Users/stapi/OneDrive/Desktop/GD32VW553/V1_MQTT_OK/GD32VW55X_Wifi_BLE_SDK/GD32VW55x_RELEASE_V1.0.2/MSDK/wpa_supplicant/src/ap\ap_drv_ops.h **** 		return 0;
 157:C:/Users/stapi/OneDrive/Desktop/GD32VW553/V1_MQTT_OK/GD32VW55X_Wifi_BLE_SDK/GD32VW55x_RELEASE_V1.0.2/MSDK/wpa_supplicant/src/ap\ap_drv_ops.h **** 	return hapd->driver->hapd_set_countermeasures(hapd->drv_priv, enabled);
  27              		.loc 1 157 2 is_stmt 1
  28              		.loc 1 157 9 is_stmt 0
  29 000c 03250552 		lw	a0,1312(a0)
  30              	.LVL1:
  31 0010 8287     		jr	a5
  32              	.LVL2:
  33              	.L10:
  34 0012 8280     		ret
  35              		.cfi_endproc
  36              	.LFE171:
  38              		.section	.text.ieee80211_tkip_countermeasures_stop,"ax",@progbits
  39              		.align	1
  41              	ieee80211_tkip_countermeasures_stop:
  42              	.LFB167:
  43              		.file 2 "C:/Users/stapi/OneDrive/Desktop/GD32VW553/V1_MQTT_OK/GD32VW55X_Wifi_BLE_SDK/GD32VW55x_REL
   1:C:/Users/stapi/OneDrive/Desktop/GD32VW553/V1_MQTT_OK/GD32VW55X_Wifi_BLE_SDK/GD32VW55x_RELEASE_V1.0.2/MSDK/wpa_supplicant/src/ap\tkip_countermeasures.c **** /*
   2:C:/Users/stapi/OneDrive/Desktop/GD32VW553/V1_MQTT_OK/GD32VW55X_Wifi_BLE_SDK/GD32VW55x_RELEASE_V1.0.2/MSDK/wpa_supplicant/src/ap\tkip_countermeasures.c ****  * hostapd / TKIP countermeasures
   3:C:/Users/stapi/OneDrive/Desktop/GD32VW553/V1_MQTT_OK/GD32VW55X_Wifi_BLE_SDK/GD32VW55x_RELEASE_V1.0.2/MSDK/wpa_supplicant/src/ap\tkip_countermeasures.c ****  * Copyright (c) 2002-2012, Jouni Malinen <j@w1.fi>
   4:C:/Users/stapi/OneDrive/Desktop/GD32VW553/V1_MQTT_OK/GD32VW55X_Wifi_BLE_SDK/GD32VW55x_RELEASE_V1.0.2/MSDK/wpa_supplicant/src/ap\tkip_countermeasures.c ****  *
   5:C:/Users/stapi/OneDrive/Desktop/GD32VW553/V1_MQTT_OK/GD32VW55X_Wifi_BLE_SDK/GD32VW55x_RELEASE_V1.0.2/MSDK/wpa_supplicant/src/ap\tkip_countermeasures.c ****  * This software may be distributed under the terms of the BSD license.
   6:C:/Users/stapi/OneDrive/Desktop/GD32VW553/V1_MQTT_OK/GD32VW55X_Wifi_BLE_SDK/GD32VW55x_RELEASE_V1.0.2/MSDK/wpa_supplicant/src/ap\tkip_countermeasures.c ****  * See README for more details.
   7:C:/Users/stapi/OneDrive/Desktop/GD32VW553/V1_MQTT_OK/GD32VW55X_Wifi_BLE_SDK/GD32VW55x_RELEASE_V1.0.2/MSDK/wpa_supplicant/src/ap\tkip_countermeasures.c ****  */
   8:C:/Users/stapi/OneDrive/Desktop/GD32VW553/V1_MQTT_OK/GD32VW55X_Wifi_BLE_SDK/GD32VW55x_RELEASE_V1.0.2/MSDK/wpa_supplicant/src/ap\tkip_countermeasures.c **** 
   9:C:/Users/stapi/OneDrive/Desktop/GD32VW553/V1_MQTT_OK/GD32VW55X_Wifi_BLE_SDK/GD32VW55x_RELEASE_V1.0.2/MSDK/wpa_supplicant/src/ap\tkip_countermeasures.c **** #include "utils/includes.h"
  10:C:/Users/stapi/OneDrive/Desktop/GD32VW553/V1_MQTT_OK/GD32VW55X_Wifi_BLE_SDK/GD32VW55x_RELEASE_V1.0.2/MSDK/wpa_supplicant/src/ap\tkip_countermeasures.c **** 
  11:C:/Users/stapi/OneDrive/Desktop/GD32VW553/V1_MQTT_OK/GD32VW55X_Wifi_BLE_SDK/GD32VW55x_RELEASE_V1.0.2/MSDK/wpa_supplicant/src/ap\tkip_countermeasures.c **** #ifdef CONFIG_AP
  12:C:/Users/stapi/OneDrive/Desktop/GD32VW553/V1_MQTT_OK/GD32VW55X_Wifi_BLE_SDK/GD32VW55x_RELEASE_V1.0.2/MSDK/wpa_supplicant/src/ap\tkip_countermeasures.c **** #include "utils/common.h"
  13:C:/Users/stapi/OneDrive/Desktop/GD32VW553/V1_MQTT_OK/GD32VW55X_Wifi_BLE_SDK/GD32VW55x_RELEASE_V1.0.2/MSDK/wpa_supplicant/src/ap\tkip_countermeasures.c **** #include "utils/eloop.h"
  14:C:/Users/stapi/OneDrive/Desktop/GD32VW553/V1_MQTT_OK/GD32VW55X_Wifi_BLE_SDK/GD32VW55x_RELEASE_V1.0.2/MSDK/wpa_supplicant/src/ap\tkip_countermeasures.c **** #include "common/ieee802_11_defs.h"
  15:C:/Users/stapi/OneDrive/Desktop/GD32VW553/V1_MQTT_OK/GD32VW55X_Wifi_BLE_SDK/GD32VW55x_RELEASE_V1.0.2/MSDK/wpa_supplicant/src/ap\tkip_countermeasures.c **** #include "radius/radius.h"
  16:C:/Users/stapi/OneDrive/Desktop/GD32VW553/V1_MQTT_OK/GD32VW55X_Wifi_BLE_SDK/GD32VW55x_RELEASE_V1.0.2/MSDK/wpa_supplicant/src/ap\tkip_countermeasures.c **** #include "hostapd.h"
  17:C:/Users/stapi/OneDrive/Desktop/GD32VW553/V1_MQTT_OK/GD32VW55X_Wifi_BLE_SDK/GD32VW55x_RELEASE_V1.0.2/MSDK/wpa_supplicant/src/ap\tkip_countermeasures.c **** #include "sta_info.h"
  18:C:/Users/stapi/OneDrive/Desktop/GD32VW553/V1_MQTT_OK/GD32VW55X_Wifi_BLE_SDK/GD32VW55x_RELEASE_V1.0.2/MSDK/wpa_supplicant/src/ap\tkip_countermeasures.c **** #include "ap_mlme.h"
  19:C:/Users/stapi/OneDrive/Desktop/GD32VW553/V1_MQTT_OK/GD32VW55X_Wifi_BLE_SDK/GD32VW55x_RELEASE_V1.0.2/MSDK/wpa_supplicant/src/ap\tkip_countermeasures.c **** #include "wpa_auth.h"
  20:C:/Users/stapi/OneDrive/Desktop/GD32VW553/V1_MQTT_OK/GD32VW55X_Wifi_BLE_SDK/GD32VW55x_RELEASE_V1.0.2/MSDK/wpa_supplicant/src/ap\tkip_countermeasures.c **** #include "ap_drv_ops.h"
  21:C:/Users/stapi/OneDrive/Desktop/GD32VW553/V1_MQTT_OK/GD32VW55X_Wifi_BLE_SDK/GD32VW55x_RELEASE_V1.0.2/MSDK/wpa_supplicant/src/ap\tkip_countermeasures.c **** #include "tkip_countermeasures.h"
  22:C:/Users/stapi/OneDrive/Desktop/GD32VW553/V1_MQTT_OK/GD32VW55X_Wifi_BLE_SDK/GD32VW55x_RELEASE_V1.0.2/MSDK/wpa_supplicant/src/ap\tkip_countermeasures.c **** 
  23:C:/Users/stapi/OneDrive/Desktop/GD32VW553/V1_MQTT_OK/GD32VW55X_Wifi_BLE_SDK/GD32VW55x_RELEASE_V1.0.2/MSDK/wpa_supplicant/src/ap\tkip_countermeasures.c **** 
  24:C:/Users/stapi/OneDrive/Desktop/GD32VW553/V1_MQTT_OK/GD32VW55X_Wifi_BLE_SDK/GD32VW55x_RELEASE_V1.0.2/MSDK/wpa_supplicant/src/ap\tkip_countermeasures.c **** static void ieee80211_tkip_countermeasures_stop(void *eloop_ctx,
  25:C:/Users/stapi/OneDrive/Desktop/GD32VW553/V1_MQTT_OK/GD32VW55X_Wifi_BLE_SDK/GD32VW55x_RELEASE_V1.0.2/MSDK/wpa_supplicant/src/ap\tkip_countermeasures.c **** 						void *timeout_ctx)
  26:C:/Users/stapi/OneDrive/Desktop/GD32VW553/V1_MQTT_OK/GD32VW55X_Wifi_BLE_SDK/GD32VW55x_RELEASE_V1.0.2/MSDK/wpa_supplicant/src/ap\tkip_countermeasures.c **** {
  44              		.loc 2 26 1 is_stmt 1
  45              		.cfi_startproc
  46              	.LVL3:
  27:C:/Users/stapi/OneDrive/Desktop/GD32VW553/V1_MQTT_OK/GD32VW55X_Wifi_BLE_SDK/GD32VW55x_RELEASE_V1.0.2/MSDK/wpa_supplicant/src/ap\tkip_countermeasures.c **** 	struct hostapd_data *hapd = eloop_ctx;
  47              		.loc 2 27 2
  28:C:/Users/stapi/OneDrive/Desktop/GD32VW553/V1_MQTT_OK/GD32VW55X_Wifi_BLE_SDK/GD32VW55x_RELEASE_V1.0.2/MSDK/wpa_supplicant/src/ap\tkip_countermeasures.c **** 	hapd->tkip_countermeasures = 0;
  48              		.loc 2 28 2
  49              		.loc 2 28 29 is_stmt 0
  50 0000 23240556 		sw	zero,1384(a0)
  29:C:/Users/stapi/OneDrive/Desktop/GD32VW553/V1_MQTT_OK/GD32VW55X_Wifi_BLE_SDK/GD32VW55x_RELEASE_V1.0.2/MSDK/wpa_supplicant/src/ap\tkip_countermeasures.c **** 	hostapd_drv_set_countermeasures(hapd, 0);
  51              		.loc 2 29 2 is_stmt 1
  52 0004 8145     		li	a1,0
  53              	.LVL4:
  54 0006 17030000 		tail	hostapd_drv_set_countermeasures.isra.0
  54      67000300 
  55              	.LVL5:
  30:C:/Users/stapi/OneDrive/Desktop/GD32VW553/V1_MQTT_OK/GD32VW55X_Wifi_BLE_SDK/GD32VW55x_RELEASE_V1.0.2/MSDK/wpa_supplicant/src/ap\tkip_countermeasures.c **** 	hostapd_logger(hapd, NULL, HOSTAPD_MODULE_IEEE80211,
  56              		.loc 2 30 2
  57              		.loc 2 30 2
  58              		.loc 2 30 2
  59              		.cfi_endproc
  60              	.LFE167:
  62              		.section	.text.ieee80211_tkip_countermeasures_deinit,"ax",@progbits
  63              		.align	1
  64              		.globl	ieee80211_tkip_countermeasures_deinit
  66              	ieee80211_tkip_countermeasures_deinit:
  67              	.LFB169:
  31:C:/Users/stapi/OneDrive/Desktop/GD32VW553/V1_MQTT_OK/GD32VW55X_Wifi_BLE_SDK/GD32VW55x_RELEASE_V1.0.2/MSDK/wpa_supplicant/src/ap\tkip_countermeasures.c **** 		       HOSTAPD_LEVEL_INFO, "TKIP countermeasures ended");
  32:C:/Users/stapi/OneDrive/Desktop/GD32VW553/V1_MQTT_OK/GD32VW55X_Wifi_BLE_SDK/GD32VW55x_RELEASE_V1.0.2/MSDK/wpa_supplicant/src/ap\tkip_countermeasures.c **** }
  33:C:/Users/stapi/OneDrive/Desktop/GD32VW553/V1_MQTT_OK/GD32VW55X_Wifi_BLE_SDK/GD32VW55x_RELEASE_V1.0.2/MSDK/wpa_supplicant/src/ap\tkip_countermeasures.c **** 
  34:C:/Users/stapi/OneDrive/Desktop/GD32VW553/V1_MQTT_OK/GD32VW55X_Wifi_BLE_SDK/GD32VW55x_RELEASE_V1.0.2/MSDK/wpa_supplicant/src/ap\tkip_countermeasures.c **** 
  35:C:/Users/stapi/OneDrive/Desktop/GD32VW553/V1_MQTT_OK/GD32VW55X_Wifi_BLE_SDK/GD32VW55x_RELEASE_V1.0.2/MSDK/wpa_supplicant/src/ap\tkip_countermeasures.c **** static void ieee80211_tkip_countermeasures_start(struct hostapd_data *hapd)
  36:C:/Users/stapi/OneDrive/Desktop/GD32VW553/V1_MQTT_OK/GD32VW55X_Wifi_BLE_SDK/GD32VW55x_RELEASE_V1.0.2/MSDK/wpa_supplicant/src/ap\tkip_countermeasures.c **** {
  37:C:/Users/stapi/OneDrive/Desktop/GD32VW553/V1_MQTT_OK/GD32VW55X_Wifi_BLE_SDK/GD32VW55x_RELEASE_V1.0.2/MSDK/wpa_supplicant/src/ap\tkip_countermeasures.c **** 	struct sta_info *sta;
  38:C:/Users/stapi/OneDrive/Desktop/GD32VW553/V1_MQTT_OK/GD32VW55X_Wifi_BLE_SDK/GD32VW55x_RELEASE_V1.0.2/MSDK/wpa_supplicant/src/ap\tkip_countermeasures.c **** 
  39:C:/Users/stapi/OneDrive/Desktop/GD32VW553/V1_MQTT_OK/GD32VW55X_Wifi_BLE_SDK/GD32VW55x_RELEASE_V1.0.2/MSDK/wpa_supplicant/src/ap\tkip_countermeasures.c **** 	hostapd_logger(hapd, NULL, HOSTAPD_MODULE_IEEE80211,
  40:C:/Users/stapi/OneDrive/Desktop/GD32VW553/V1_MQTT_OK/GD32VW55X_Wifi_BLE_SDK/GD32VW55x_RELEASE_V1.0.2/MSDK/wpa_supplicant/src/ap\tkip_countermeasures.c **** 		       HOSTAPD_LEVEL_INFO, "TKIP countermeasures initiated");
  41:C:/Users/stapi/OneDrive/Desktop/GD32VW553/V1_MQTT_OK/GD32VW55X_Wifi_BLE_SDK/GD32VW55x_RELEASE_V1.0.2/MSDK/wpa_supplicant/src/ap\tkip_countermeasures.c **** 
  42:C:/Users/stapi/OneDrive/Desktop/GD32VW553/V1_MQTT_OK/GD32VW55X_Wifi_BLE_SDK/GD32VW55x_RELEASE_V1.0.2/MSDK/wpa_supplicant/src/ap\tkip_countermeasures.c **** 	wpa_auth_countermeasures_start(hapd->wpa_auth);
  43:C:/Users/stapi/OneDrive/Desktop/GD32VW553/V1_MQTT_OK/GD32VW55X_Wifi_BLE_SDK/GD32VW55x_RELEASE_V1.0.2/MSDK/wpa_supplicant/src/ap\tkip_countermeasures.c **** 	hapd->tkip_countermeasures = 1;
  44:C:/Users/stapi/OneDrive/Desktop/GD32VW553/V1_MQTT_OK/GD32VW55X_Wifi_BLE_SDK/GD32VW55x_RELEASE_V1.0.2/MSDK/wpa_supplicant/src/ap\tkip_countermeasures.c **** 	hostapd_drv_set_countermeasures(hapd, 1);
  45:C:/Users/stapi/OneDrive/Desktop/GD32VW553/V1_MQTT_OK/GD32VW55X_Wifi_BLE_SDK/GD32VW55x_RELEASE_V1.0.2/MSDK/wpa_supplicant/src/ap\tkip_countermeasures.c **** 	wpa_gtk_rekey(hapd->wpa_auth);
  46:C:/Users/stapi/OneDrive/Desktop/GD32VW553/V1_MQTT_OK/GD32VW55X_Wifi_BLE_SDK/GD32VW55x_RELEASE_V1.0.2/MSDK/wpa_supplicant/src/ap\tkip_countermeasures.c **** 	eloop_cancel_timeout(ieee80211_tkip_countermeasures_stop, hapd, NULL);
  47:C:/Users/stapi/OneDrive/Desktop/GD32VW553/V1_MQTT_OK/GD32VW55X_Wifi_BLE_SDK/GD32VW55x_RELEASE_V1.0.2/MSDK/wpa_supplicant/src/ap\tkip_countermeasures.c **** 	eloop_register_timeout(60, 0, ieee80211_tkip_countermeasures_stop,
  48:C:/Users/stapi/OneDrive/Desktop/GD32VW553/V1_MQTT_OK/GD32VW55X_Wifi_BLE_SDK/GD32VW55x_RELEASE_V1.0.2/MSDK/wpa_supplicant/src/ap\tkip_countermeasures.c **** 			       hapd, NULL);
  49:C:/Users/stapi/OneDrive/Desktop/GD32VW553/V1_MQTT_OK/GD32VW55X_Wifi_BLE_SDK/GD32VW55x_RELEASE_V1.0.2/MSDK/wpa_supplicant/src/ap\tkip_countermeasures.c **** 	while ((sta = hapd->sta_list)) {
  50:C:/Users/stapi/OneDrive/Desktop/GD32VW553/V1_MQTT_OK/GD32VW55X_Wifi_BLE_SDK/GD32VW55x_RELEASE_V1.0.2/MSDK/wpa_supplicant/src/ap\tkip_countermeasures.c **** 		sta->acct_terminate_cause =
  51:C:/Users/stapi/OneDrive/Desktop/GD32VW553/V1_MQTT_OK/GD32VW55X_Wifi_BLE_SDK/GD32VW55x_RELEASE_V1.0.2/MSDK/wpa_supplicant/src/ap\tkip_countermeasures.c **** 			RADIUS_ACCT_TERMINATE_CAUSE_ADMIN_RESET;
  52:C:/Users/stapi/OneDrive/Desktop/GD32VW553/V1_MQTT_OK/GD32VW55X_Wifi_BLE_SDK/GD32VW55x_RELEASE_V1.0.2/MSDK/wpa_supplicant/src/ap\tkip_countermeasures.c **** 		if (sta->flags & WLAN_STA_AUTH) {
  53:C:/Users/stapi/OneDrive/Desktop/GD32VW553/V1_MQTT_OK/GD32VW55X_Wifi_BLE_SDK/GD32VW55x_RELEASE_V1.0.2/MSDK/wpa_supplicant/src/ap\tkip_countermeasures.c **** 			mlme_deauthenticate_indication(
  54:C:/Users/stapi/OneDrive/Desktop/GD32VW553/V1_MQTT_OK/GD32VW55X_Wifi_BLE_SDK/GD32VW55x_RELEASE_V1.0.2/MSDK/wpa_supplicant/src/ap\tkip_countermeasures.c **** 				hapd, sta,
  55:C:/Users/stapi/OneDrive/Desktop/GD32VW553/V1_MQTT_OK/GD32VW55X_Wifi_BLE_SDK/GD32VW55x_RELEASE_V1.0.2/MSDK/wpa_supplicant/src/ap\tkip_countermeasures.c **** 				WLAN_REASON_MICHAEL_MIC_FAILURE);
  56:C:/Users/stapi/OneDrive/Desktop/GD32VW553/V1_MQTT_OK/GD32VW55X_Wifi_BLE_SDK/GD32VW55x_RELEASE_V1.0.2/MSDK/wpa_supplicant/src/ap\tkip_countermeasures.c **** 		}
  57:C:/Users/stapi/OneDrive/Desktop/GD32VW553/V1_MQTT_OK/GD32VW55X_Wifi_BLE_SDK/GD32VW55x_RELEASE_V1.0.2/MSDK/wpa_supplicant/src/ap\tkip_countermeasures.c **** 		hostapd_drv_sta_deauth(hapd, sta->addr,
  58:C:/Users/stapi/OneDrive/Desktop/GD32VW553/V1_MQTT_OK/GD32VW55X_Wifi_BLE_SDK/GD32VW55x_RELEASE_V1.0.2/MSDK/wpa_supplicant/src/ap\tkip_countermeasures.c **** 				       WLAN_REASON_MICHAEL_MIC_FAILURE);
  59:C:/Users/stapi/OneDrive/Desktop/GD32VW553/V1_MQTT_OK/GD32VW55X_Wifi_BLE_SDK/GD32VW55x_RELEASE_V1.0.2/MSDK/wpa_supplicant/src/ap\tkip_countermeasures.c **** 		ap_free_sta(hapd, sta);
  60:C:/Users/stapi/OneDrive/Desktop/GD32VW553/V1_MQTT_OK/GD32VW55X_Wifi_BLE_SDK/GD32VW55x_RELEASE_V1.0.2/MSDK/wpa_supplicant/src/ap\tkip_countermeasures.c **** 	}
  61:C:/Users/stapi/OneDrive/Desktop/GD32VW553/V1_MQTT_OK/GD32VW55X_Wifi_BLE_SDK/GD32VW55x_RELEASE_V1.0.2/MSDK/wpa_supplicant/src/ap\tkip_countermeasures.c **** }
  62:C:/Users/stapi/OneDrive/Desktop/GD32VW553/V1_MQTT_OK/GD32VW55X_Wifi_BLE_SDK/GD32VW55x_RELEASE_V1.0.2/MSDK/wpa_supplicant/src/ap\tkip_countermeasures.c **** 
  63:C:/Users/stapi/OneDrive/Desktop/GD32VW553/V1_MQTT_OK/GD32VW55X_Wifi_BLE_SDK/GD32VW55x_RELEASE_V1.0.2/MSDK/wpa_supplicant/src/ap\tkip_countermeasures.c **** 
  64:C:/Users/stapi/OneDrive/Desktop/GD32VW553/V1_MQTT_OK/GD32VW55X_Wifi_BLE_SDK/GD32VW55x_RELEASE_V1.0.2/MSDK/wpa_supplicant/src/ap\tkip_countermeasures.c **** void ieee80211_tkip_countermeasures_deinit(struct hostapd_data *hapd)
  65:C:/Users/stapi/OneDrive/Desktop/GD32VW553/V1_MQTT_OK/GD32VW55X_Wifi_BLE_SDK/GD32VW55x_RELEASE_V1.0.2/MSDK/wpa_supplicant/src/ap\tkip_countermeasures.c **** {
  68              		.loc 2 65 1
  69              		.cfi_startproc
  70              	.LVL6:
  66:C:/Users/stapi/OneDrive/Desktop/GD32VW553/V1_MQTT_OK/GD32VW55X_Wifi_BLE_SDK/GD32VW55x_RELEASE_V1.0.2/MSDK/wpa_supplicant/src/ap\tkip_countermeasures.c **** 	eloop_cancel_timeout(ieee80211_tkip_countermeasures_stop, hapd, NULL);
  71              		.loc 2 66 2
  65:C:/Users/stapi/OneDrive/Desktop/GD32VW553/V1_MQTT_OK/GD32VW55X_Wifi_BLE_SDK/GD32VW55x_RELEASE_V1.0.2/MSDK/wpa_supplicant/src/ap\tkip_countermeasures.c **** 	eloop_cancel_timeout(ieee80211_tkip_countermeasures_stop, hapd, NULL);
  72              		.loc 2 65 1 is_stmt 0
  73 0000 AA85     		mv	a1,a0
  74              		.loc 2 66 2
  75 0002 37050000 		lui	a0,%hi(ieee80211_tkip_countermeasures_stop)
  76              	.LVL7:
  77 0006 0146     		li	a2,0
  78 0008 13050500 		addi	a0,a0,%lo(ieee80211_tkip_countermeasures_stop)
  79 000c 17030000 		tail	eloop_cancel_timeout
  79      67000300 
  80              	.LVL8:
  81              		.cfi_endproc
  82              	.LFE169:
  84              		.section	.rodata.michael_mic_failure.str1.4,"aMS",@progbits,1
  85              		.align	2
  86              	.LC0:
  87 0000 4D4C4D45 		.string	"MLME-MICHAELMICFAILURE.indication for not associated STA (%02x:%02x:%02x:%02x:%02x:%02x) 
  87      2D4D4943 
  87      4841454C 
  87      4D494346 
  87      41494C55 
  88              		.section	.text.michael_mic_failure,"ax",@progbits
  89              		.align	1
  90              		.globl	michael_mic_failure
  92              	michael_mic_failure:
  93              	.LFB170:
  67:C:/Users/stapi/OneDrive/Desktop/GD32VW553/V1_MQTT_OK/GD32VW55X_Wifi_BLE_SDK/GD32VW55x_RELEASE_V1.0.2/MSDK/wpa_supplicant/src/ap\tkip_countermeasures.c **** }
  68:C:/Users/stapi/OneDrive/Desktop/GD32VW553/V1_MQTT_OK/GD32VW55X_Wifi_BLE_SDK/GD32VW55x_RELEASE_V1.0.2/MSDK/wpa_supplicant/src/ap\tkip_countermeasures.c **** 
  69:C:/Users/stapi/OneDrive/Desktop/GD32VW553/V1_MQTT_OK/GD32VW55X_Wifi_BLE_SDK/GD32VW55x_RELEASE_V1.0.2/MSDK/wpa_supplicant/src/ap\tkip_countermeasures.c **** 
  70:C:/Users/stapi/OneDrive/Desktop/GD32VW553/V1_MQTT_OK/GD32VW55X_Wifi_BLE_SDK/GD32VW55x_RELEASE_V1.0.2/MSDK/wpa_supplicant/src/ap\tkip_countermeasures.c **** int michael_mic_failure(struct hostapd_data *hapd, const u8 *addr, int local)
  71:C:/Users/stapi/OneDrive/Desktop/GD32VW553/V1_MQTT_OK/GD32VW55X_Wifi_BLE_SDK/GD32VW55x_RELEASE_V1.0.2/MSDK/wpa_supplicant/src/ap\tkip_countermeasures.c **** {
  94              		.loc 2 71 1 is_stmt 1
  95              		.cfi_startproc
  96              	.LVL9:
  97 0000 17030000 		call	t0,__riscv_save_3
  97      E7020300 
  98              		.cfi_offset 18, -16
  99              		.cfi_offset 9, -12
 100              		.cfi_offset 8, -8
 101              		.cfi_offset 1, -4
 102              		.cfi_def_cfa_offset 16
  72:C:/Users/stapi/OneDrive/Desktop/GD32VW553/V1_MQTT_OK/GD32VW55X_Wifi_BLE_SDK/GD32VW55x_RELEASE_V1.0.2/MSDK/wpa_supplicant/src/ap\tkip_countermeasures.c **** 	struct os_reltime now;
 103              		.loc 2 72 2
  73:C:/Users/stapi/OneDrive/Desktop/GD32VW553/V1_MQTT_OK/GD32VW55X_Wifi_BLE_SDK/GD32VW55x_RELEASE_V1.0.2/MSDK/wpa_supplicant/src/ap\tkip_countermeasures.c **** 	int ret = 0;
 104              		.loc 2 73 2
 105              	.LVL10:
  74:C:/Users/stapi/OneDrive/Desktop/GD32VW553/V1_MQTT_OK/GD32VW55X_Wifi_BLE_SDK/GD32VW55x_RELEASE_V1.0.2/MSDK/wpa_supplicant/src/ap\tkip_countermeasures.c **** 
  75:C:/Users/stapi/OneDrive/Desktop/GD32VW553/V1_MQTT_OK/GD32VW55X_Wifi_BLE_SDK/GD32VW55x_RELEASE_V1.0.2/MSDK/wpa_supplicant/src/ap\tkip_countermeasures.c **** 	hostapd_logger(hapd, addr, HOSTAPD_MODULE_IEEE80211,
 106              		.loc 2 75 2
 107              		.loc 2 75 2
 108              		.loc 2 75 2
  76:C:/Users/stapi/OneDrive/Desktop/GD32VW553/V1_MQTT_OK/GD32VW55X_Wifi_BLE_SDK/GD32VW55x_RELEASE_V1.0.2/MSDK/wpa_supplicant/src/ap\tkip_countermeasures.c **** 		       HOSTAPD_LEVEL_INFO,
  77:C:/Users/stapi/OneDrive/Desktop/GD32VW553/V1_MQTT_OK/GD32VW55X_Wifi_BLE_SDK/GD32VW55x_RELEASE_V1.0.2/MSDK/wpa_supplicant/src/ap\tkip_countermeasures.c **** 		       "Michael MIC failure detected in received frame%s",
  78:C:/Users/stapi/OneDrive/Desktop/GD32VW553/V1_MQTT_OK/GD32VW55X_Wifi_BLE_SDK/GD32VW55x_RELEASE_V1.0.2/MSDK/wpa_supplicant/src/ap\tkip_countermeasures.c **** 		       local ? " (local)" : "");
  79:C:/Users/stapi/OneDrive/Desktop/GD32VW553/V1_MQTT_OK/GD32VW55X_Wifi_BLE_SDK/GD32VW55x_RELEASE_V1.0.2/MSDK/wpa_supplicant/src/ap\tkip_countermeasures.c **** 
  80:C:/Users/stapi/OneDrive/Desktop/GD32VW553/V1_MQTT_OK/GD32VW55X_Wifi_BLE_SDK/GD32VW55x_RELEASE_V1.0.2/MSDK/wpa_supplicant/src/ap\tkip_countermeasures.c **** 	if (addr && local) {
 109              		.loc 2 80 2
  71:C:/Users/stapi/OneDrive/Desktop/GD32VW553/V1_MQTT_OK/GD32VW55X_Wifi_BLE_SDK/GD32VW55x_RELEASE_V1.0.2/MSDK/wpa_supplicant/src/ap\tkip_countermeasures.c **** 	struct os_reltime now;
 110              		.loc 2 71 1 is_stmt 0
 111 0008 4111     		addi	sp,sp,-16
 112              		.cfi_def_cfa_offset 32
  71:C:/Users/stapi/OneDrive/Desktop/GD32VW553/V1_MQTT_OK/GD32VW55X_Wifi_BLE_SDK/GD32VW55x_RELEASE_V1.0.2/MSDK/wpa_supplicant/src/ap\tkip_countermeasures.c **** 	struct os_reltime now;
 113              		.loc 2 71 1
 114 000a 2A84     		mv	s0,a0
 115              		.loc 2 80 5
 116 000c 85C5     		beq	a1,zero,.L18
 117              		.loc 2 80 11 discriminator 1
 118 000e 1DC2     		beq	a2,zero,.L18
 119 0010 AE84     		mv	s1,a1
 120              	.LBB9:
  81:C:/Users/stapi/OneDrive/Desktop/GD32VW553/V1_MQTT_OK/GD32VW55X_Wifi_BLE_SDK/GD32VW55x_RELEASE_V1.0.2/MSDK/wpa_supplicant/src/ap\tkip_countermeasures.c **** 		struct sta_info *sta = ap_get_sta(hapd, addr);
 121              		.loc 2 81 3 is_stmt 1
 122              		.loc 2 81 26 is_stmt 0
 123 0012 97000000 		call	ap_get_sta
 123      E7800000 
 124              	.LVL11:
  82:C:/Users/stapi/OneDrive/Desktop/GD32VW553/V1_MQTT_OK/GD32VW55X_Wifi_BLE_SDK/GD32VW55x_RELEASE_V1.0.2/MSDK/wpa_supplicant/src/ap\tkip_countermeasures.c **** 		if (sta != NULL) {
 125              		.loc 2 82 3 is_stmt 1
 126              		.loc 2 82 6 is_stmt 0
 127 001a 2DC1     		beq	a0,zero,.L19
  83:C:/Users/stapi/OneDrive/Desktop/GD32VW553/V1_MQTT_OK/GD32VW55X_Wifi_BLE_SDK/GD32VW55x_RELEASE_V1.0.2/MSDK/wpa_supplicant/src/ap\tkip_countermeasures.c **** 			wpa_auth_sta_local_mic_failure_report(sta->wpa_sm);
 128              		.loc 2 83 4 is_stmt 1
 129 001c 0325C509 		lw	a0,156(a0)
 130              	.LVL12:
 131 0020 97000000 		call	wpa_auth_sta_local_mic_failure_report
 131      E7800000 
 132              	.LVL13:
  84:C:/Users/stapi/OneDrive/Desktop/GD32VW553/V1_MQTT_OK/GD32VW55X_Wifi_BLE_SDK/GD32VW55x_RELEASE_V1.0.2/MSDK/wpa_supplicant/src/ap\tkip_countermeasures.c **** 			hostapd_logger(hapd, addr, HOSTAPD_MODULE_IEEE80211,
 133              		.loc 2 84 4
 134              		.loc 2 84 4
 135              		.loc 2 84 4
  85:C:/Users/stapi/OneDrive/Desktop/GD32VW553/V1_MQTT_OK/GD32VW55X_Wifi_BLE_SDK/GD32VW55x_RELEASE_V1.0.2/MSDK/wpa_supplicant/src/ap\tkip_countermeasures.c **** 				       HOSTAPD_LEVEL_INFO,
  86:C:/Users/stapi/OneDrive/Desktop/GD32VW553/V1_MQTT_OK/GD32VW55X_Wifi_BLE_SDK/GD32VW55x_RELEASE_V1.0.2/MSDK/wpa_supplicant/src/ap\tkip_countermeasures.c **** 				       "Michael MIC failure detected in "
  87:C:/Users/stapi/OneDrive/Desktop/GD32VW553/V1_MQTT_OK/GD32VW55X_Wifi_BLE_SDK/GD32VW55x_RELEASE_V1.0.2/MSDK/wpa_supplicant/src/ap\tkip_countermeasures.c **** 				       "received frame");
  88:C:/Users/stapi/OneDrive/Desktop/GD32VW553/V1_MQTT_OK/GD32VW55X_Wifi_BLE_SDK/GD32VW55x_RELEASE_V1.0.2/MSDK/wpa_supplicant/src/ap\tkip_countermeasures.c **** 			mlme_michaelmicfailure_indication(hapd, addr);
 136              		.loc 2 88 4
 137 0028 A685     		mv	a1,s1
 138 002a 2285     		mv	a0,s0
 139 002c 97000000 		call	mlme_michaelmicfailure_indication
 139      E7800000 
 140              	.LVL14:
 141              	.L18:
 142              	.LBE9:
  89:C:/Users/stapi/OneDrive/Desktop/GD32VW553/V1_MQTT_OK/GD32VW55X_Wifi_BLE_SDK/GD32VW55x_RELEASE_V1.0.2/MSDK/wpa_supplicant/src/ap\tkip_countermeasures.c **** 		} else {
  90:C:/Users/stapi/OneDrive/Desktop/GD32VW553/V1_MQTT_OK/GD32VW55X_Wifi_BLE_SDK/GD32VW55x_RELEASE_V1.0.2/MSDK/wpa_supplicant/src/ap\tkip_countermeasures.c **** 			wpa_printf(MSG_DEBUG,
  91:C:/Users/stapi/OneDrive/Desktop/GD32VW553/V1_MQTT_OK/GD32VW55X_Wifi_BLE_SDK/GD32VW55x_RELEASE_V1.0.2/MSDK/wpa_supplicant/src/ap\tkip_countermeasures.c **** 				   "MLME-MICHAELMICFAILURE.indication "
  92:C:/Users/stapi/OneDrive/Desktop/GD32VW553/V1_MQTT_OK/GD32VW55X_Wifi_BLE_SDK/GD32VW55x_RELEASE_V1.0.2/MSDK/wpa_supplicant/src/ap\tkip_countermeasures.c **** 				   "for not associated STA (" MACSTR
  93:C:/Users/stapi/OneDrive/Desktop/GD32VW553/V1_MQTT_OK/GD32VW55X_Wifi_BLE_SDK/GD32VW55x_RELEASE_V1.0.2/MSDK/wpa_supplicant/src/ap\tkip_countermeasures.c **** 				   ") ignored", MAC2STR(addr));
  94:C:/Users/stapi/OneDrive/Desktop/GD32VW553/V1_MQTT_OK/GD32VW55X_Wifi_BLE_SDK/GD32VW55x_RELEASE_V1.0.2/MSDK/wpa_supplicant/src/ap\tkip_countermeasures.c **** 			return ret;
  95:C:/Users/stapi/OneDrive/Desktop/GD32VW553/V1_MQTT_OK/GD32VW55X_Wifi_BLE_SDK/GD32VW55x_RELEASE_V1.0.2/MSDK/wpa_supplicant/src/ap\tkip_countermeasures.c **** 		}
  96:C:/Users/stapi/OneDrive/Desktop/GD32VW553/V1_MQTT_OK/GD32VW55X_Wifi_BLE_SDK/GD32VW55x_RELEASE_V1.0.2/MSDK/wpa_supplicant/src/ap\tkip_countermeasures.c **** 	}
  97:C:/Users/stapi/OneDrive/Desktop/GD32VW553/V1_MQTT_OK/GD32VW55X_Wifi_BLE_SDK/GD32VW55x_RELEASE_V1.0.2/MSDK/wpa_supplicant/src/ap\tkip_countermeasures.c **** 
  98:C:/Users/stapi/OneDrive/Desktop/GD32VW553/V1_MQTT_OK/GD32VW55X_Wifi_BLE_SDK/GD32VW55x_RELEASE_V1.0.2/MSDK/wpa_supplicant/src/ap\tkip_countermeasures.c **** 	os_get_reltime(&now);
 143              		.loc 2 98 2
 144 0034 2800     		addi	a0,sp,8
 145 0036 97000000 		call	os_get_reltime
 145      E7800000 
 146              	.LVL15:
  99:C:/Users/stapi/OneDrive/Desktop/GD32VW553/V1_MQTT_OK/GD32VW55X_Wifi_BLE_SDK/GD32VW55x_RELEASE_V1.0.2/MSDK/wpa_supplicant/src/ap\tkip_countermeasures.c **** 	if (os_reltime_expired(&now, &hapd->michael_mic_failure, 60)) {
 147              		.loc 2 99 2
 148              	.LBB10:
 149              	.LBB11:
 150              		.file 3 "..\\..\\..\\..\\wpa_supplicant\\src/utils/os.h"
   1:..\..\..\..\wpa_supplicant\src/utils/os.h **** /*
   2:..\..\..\..\wpa_supplicant\src/utils/os.h ****  * OS specific functions
   3:..\..\..\..\wpa_supplicant\src/utils/os.h ****  * Copyright (c) 2005-2009, Jouni Malinen <j@w1.fi>
   4:..\..\..\..\wpa_supplicant\src/utils/os.h ****  *
   5:..\..\..\..\wpa_supplicant\src/utils/os.h ****  * This software may be distributed under the terms of the BSD license.
   6:..\..\..\..\wpa_supplicant\src/utils/os.h ****  * See README for more details.
   7:..\..\..\..\wpa_supplicant\src/utils/os.h ****  */
   8:..\..\..\..\wpa_supplicant\src/utils/os.h **** 
   9:..\..\..\..\wpa_supplicant\src/utils/os.h **** #ifndef OS_H
  10:..\..\..\..\wpa_supplicant\src/utils/os.h **** #define OS_H
  11:..\..\..\..\wpa_supplicant\src/utils/os.h **** 
  12:..\..\..\..\wpa_supplicant\src/utils/os.h **** typedef long os_time_t;
  13:..\..\..\..\wpa_supplicant\src/utils/os.h **** 
  14:..\..\..\..\wpa_supplicant\src/utils/os.h **** /**
  15:..\..\..\..\wpa_supplicant\src/utils/os.h ****  * os_sleep - Sleep (sec, usec)
  16:..\..\..\..\wpa_supplicant\src/utils/os.h ****  * @sec: Number of seconds to sleep
  17:..\..\..\..\wpa_supplicant\src/utils/os.h ****  * @usec: Number of microseconds to sleep
  18:..\..\..\..\wpa_supplicant\src/utils/os.h ****  */
  19:..\..\..\..\wpa_supplicant\src/utils/os.h **** void os_sleep(os_time_t sec, os_time_t usec);
  20:..\..\..\..\wpa_supplicant\src/utils/os.h **** 
  21:..\..\..\..\wpa_supplicant\src/utils/os.h **** struct os_time {
  22:..\..\..\..\wpa_supplicant\src/utils/os.h **** 	os_time_t sec;
  23:..\..\..\..\wpa_supplicant\src/utils/os.h **** 	os_time_t usec;
  24:..\..\..\..\wpa_supplicant\src/utils/os.h **** };
  25:..\..\..\..\wpa_supplicant\src/utils/os.h **** 
  26:..\..\..\..\wpa_supplicant\src/utils/os.h **** struct os_reltime {
  27:..\..\..\..\wpa_supplicant\src/utils/os.h **** 	os_time_t sec;
  28:..\..\..\..\wpa_supplicant\src/utils/os.h **** 	os_time_t usec;
  29:..\..\..\..\wpa_supplicant\src/utils/os.h **** };
  30:..\..\..\..\wpa_supplicant\src/utils/os.h **** 
  31:..\..\..\..\wpa_supplicant\src/utils/os.h **** /**
  32:..\..\..\..\wpa_supplicant\src/utils/os.h ****  * os_get_time - Get current time (sec, usec)
  33:..\..\..\..\wpa_supplicant\src/utils/os.h ****  * @t: Pointer to buffer for the time
  34:..\..\..\..\wpa_supplicant\src/utils/os.h ****  * Returns: 0 on success, -1 on failure
  35:..\..\..\..\wpa_supplicant\src/utils/os.h ****  */
  36:..\..\..\..\wpa_supplicant\src/utils/os.h **** int os_get_time(struct os_time *t);
  37:..\..\..\..\wpa_supplicant\src/utils/os.h **** 
  38:..\..\..\..\wpa_supplicant\src/utils/os.h **** /**
  39:..\..\..\..\wpa_supplicant\src/utils/os.h ****  * os_get_reltime - Get relative time (sec, usec)
  40:..\..\..\..\wpa_supplicant\src/utils/os.h ****  * @t: Pointer to buffer for the time
  41:..\..\..\..\wpa_supplicant\src/utils/os.h ****  * Returns: 0 on success, -1 on failure
  42:..\..\..\..\wpa_supplicant\src/utils/os.h ****  */
  43:..\..\..\..\wpa_supplicant\src/utils/os.h **** int os_get_reltime(struct os_reltime *t);
  44:..\..\..\..\wpa_supplicant\src/utils/os.h **** 
  45:..\..\..\..\wpa_supplicant\src/utils/os.h **** 
  46:..\..\..\..\wpa_supplicant\src/utils/os.h **** /* Helpers for handling struct os_time */
  47:..\..\..\..\wpa_supplicant\src/utils/os.h **** 
  48:..\..\..\..\wpa_supplicant\src/utils/os.h **** static inline int os_time_before(struct os_time *a, struct os_time *b)
  49:..\..\..\..\wpa_supplicant\src/utils/os.h **** {
  50:..\..\..\..\wpa_supplicant\src/utils/os.h **** 	return (a->sec < b->sec) ||
  51:..\..\..\..\wpa_supplicant\src/utils/os.h **** 	       (a->sec == b->sec && a->usec < b->usec);
  52:..\..\..\..\wpa_supplicant\src/utils/os.h **** }
  53:..\..\..\..\wpa_supplicant\src/utils/os.h **** 
  54:..\..\..\..\wpa_supplicant\src/utils/os.h **** 
  55:..\..\..\..\wpa_supplicant\src/utils/os.h **** static inline void os_time_sub(struct os_time *a, struct os_time *b,
  56:..\..\..\..\wpa_supplicant\src/utils/os.h **** 			       struct os_time *res)
  57:..\..\..\..\wpa_supplicant\src/utils/os.h **** {
  58:..\..\..\..\wpa_supplicant\src/utils/os.h **** 	res->sec = a->sec - b->sec;
  59:..\..\..\..\wpa_supplicant\src/utils/os.h **** 	res->usec = a->usec - b->usec;
  60:..\..\..\..\wpa_supplicant\src/utils/os.h **** 	if (res->usec < 0) {
  61:..\..\..\..\wpa_supplicant\src/utils/os.h **** 		res->sec--;
  62:..\..\..\..\wpa_supplicant\src/utils/os.h **** 		res->usec += 1000000;
  63:..\..\..\..\wpa_supplicant\src/utils/os.h **** 	}
  64:..\..\..\..\wpa_supplicant\src/utils/os.h **** }
  65:..\..\..\..\wpa_supplicant\src/utils/os.h **** 
  66:..\..\..\..\wpa_supplicant\src/utils/os.h **** 
  67:..\..\..\..\wpa_supplicant\src/utils/os.h **** /* Helpers for handling struct os_reltime */
  68:..\..\..\..\wpa_supplicant\src/utils/os.h **** 
  69:..\..\..\..\wpa_supplicant\src/utils/os.h **** static inline int os_reltime_before(struct os_reltime *a,
  70:..\..\..\..\wpa_supplicant\src/utils/os.h **** 				    struct os_reltime *b)
  71:..\..\..\..\wpa_supplicant\src/utils/os.h **** {
  72:..\..\..\..\wpa_supplicant\src/utils/os.h **** 	return (a->sec < b->sec) ||
  73:..\..\..\..\wpa_supplicant\src/utils/os.h **** 	       (a->sec == b->sec && a->usec < b->usec);
  74:..\..\..\..\wpa_supplicant\src/utils/os.h **** }
  75:..\..\..\..\wpa_supplicant\src/utils/os.h **** 
  76:..\..\..\..\wpa_supplicant\src/utils/os.h **** 
  77:..\..\..\..\wpa_supplicant\src/utils/os.h **** static inline void os_reltime_sub(struct os_reltime *a, struct os_reltime *b,
  78:..\..\..\..\wpa_supplicant\src/utils/os.h **** 				  struct os_reltime *res)
  79:..\..\..\..\wpa_supplicant\src/utils/os.h **** {
  80:..\..\..\..\wpa_supplicant\src/utils/os.h **** 	res->sec = a->sec - b->sec;
  81:..\..\..\..\wpa_supplicant\src/utils/os.h **** 	res->usec = a->usec - b->usec;
  82:..\..\..\..\wpa_supplicant\src/utils/os.h **** 	if (res->usec < 0) {
  83:..\..\..\..\wpa_supplicant\src/utils/os.h **** 		res->sec--;
  84:..\..\..\..\wpa_supplicant\src/utils/os.h **** 		res->usec += 1000000;
  85:..\..\..\..\wpa_supplicant\src/utils/os.h **** 	}
  86:..\..\..\..\wpa_supplicant\src/utils/os.h **** }
  87:..\..\..\..\wpa_supplicant\src/utils/os.h **** 
  88:..\..\..\..\wpa_supplicant\src/utils/os.h **** 
  89:..\..\..\..\wpa_supplicant\src/utils/os.h **** static inline void os_reltime_age(struct os_reltime *start,
  90:..\..\..\..\wpa_supplicant\src/utils/os.h **** 				  struct os_reltime *age)
  91:..\..\..\..\wpa_supplicant\src/utils/os.h **** {
  92:..\..\..\..\wpa_supplicant\src/utils/os.h **** 	struct os_reltime now;
  93:..\..\..\..\wpa_supplicant\src/utils/os.h **** 
  94:..\..\..\..\wpa_supplicant\src/utils/os.h **** 	os_get_reltime(&now);
  95:..\..\..\..\wpa_supplicant\src/utils/os.h **** 	os_reltime_sub(&now, start, age);
  96:..\..\..\..\wpa_supplicant\src/utils/os.h **** }
  97:..\..\..\..\wpa_supplicant\src/utils/os.h **** 
  98:..\..\..\..\wpa_supplicant\src/utils/os.h **** 
  99:..\..\..\..\wpa_supplicant\src/utils/os.h **** static inline int os_reltime_expired(struct os_reltime *now,
 100:..\..\..\..\wpa_supplicant\src/utils/os.h **** 				     struct os_reltime *ts,
 101:..\..\..\..\wpa_supplicant\src/utils/os.h **** 				     os_time_t timeout_secs)
 102:..\..\..\..\wpa_supplicant\src/utils/os.h **** {
 103:..\..\..\..\wpa_supplicant\src/utils/os.h **** 	struct os_reltime age;
 151              		.loc 3 103 2
 104:..\..\..\..\wpa_supplicant\src/utils/os.h **** 
 105:..\..\..\..\wpa_supplicant\src/utils/os.h **** 	os_reltime_sub(now, ts, &age);
 152              		.loc 3 105 2
 153              	.LBB12:
 154              	.LBB13:
  80:..\..\..\..\wpa_supplicant\src/utils/os.h **** 	res->usec = a->usec - b->usec;
 155              		.loc 3 80 2
  80:..\..\..\..\wpa_supplicant\src/utils/os.h **** 	res->usec = a->usec - b->usec;
 156              		.loc 3 80 20 is_stmt 0
 157 003e 8327C455 		lw	a5,1372(s0)
 158 0042 2247     		lw	a4,8(sp)
  81:..\..\..\..\wpa_supplicant\src/utils/os.h **** 	if (res->usec < 0) {
 159              		.loc 3 81 22
 160 0044 83260456 		lw	a3,1376(s0)
  80:..\..\..\..\wpa_supplicant\src/utils/os.h **** 	res->usec = a->usec - b->usec;
 161              		.loc 3 80 20
 162 0048 1D8F     		sub	a4,a4,a5
 163              	.LVL16:
  81:..\..\..\..\wpa_supplicant\src/utils/os.h **** 	if (res->usec < 0) {
 164              		.loc 3 81 2 is_stmt 1
  81:..\..\..\..\wpa_supplicant\src/utils/os.h **** 	if (res->usec < 0) {
 165              		.loc 3 81 22 is_stmt 0
 166 004a B247     		lw	a5,12(sp)
 167 004c 958F     		sub	a5,a5,a3
 168              	.LVL17:
  82:..\..\..\..\wpa_supplicant\src/utils/os.h **** 		res->sec--;
 169              		.loc 3 82 2 is_stmt 1
  82:..\..\..\..\wpa_supplicant\src/utils/os.h **** 		res->sec--;
 170              		.loc 3 82 5 is_stmt 0
 171 004e 63D80700 		bge	a5,zero,.L21
  83:..\..\..\..\wpa_supplicant\src/utils/os.h **** 		res->usec += 1000000;
 172              		.loc 3 83 3 is_stmt 1
  84:..\..\..\..\wpa_supplicant\src/utils/os.h **** 	}
 173              		.loc 3 84 13 is_stmt 0
 174 0052 B7460F00 		li	a3,999424
 175 0056 93860624 		addi	a3,a3,576
  83:..\..\..\..\wpa_supplicant\src/utils/os.h **** 		res->usec += 1000000;
 176              		.loc 3 83 11
 177 005a 7D17     		addi	a4,a4,-1
 178              	.LVL18:
  84:..\..\..\..\wpa_supplicant\src/utils/os.h **** 	}
 179              		.loc 3 84 3 is_stmt 1
  84:..\..\..\..\wpa_supplicant\src/utils/os.h **** 	}
 180              		.loc 3 84 13 is_stmt 0
 181 005c B697     		add	a5,a5,a3
 182              	.LVL19:
 183              	.L21:
 184              	.LBE13:
 185              	.LBE12:
 106:..\..\..\..\wpa_supplicant\src/utils/os.h **** 	return (age.sec > timeout_secs) ||
 186              		.loc 3 106 2 is_stmt 1
 187              		.loc 3 106 34 is_stmt 0
 188 005e 9306C003 		li	a3,60
 189 0062 63D8E604 		ble	a4,a3,.L22
 190              	.L25:
 191              	.LVL20:
 192              	.LBE11:
 193              	.LBE10:
 100:C:/Users/stapi/OneDrive/Desktop/GD32VW553/V1_MQTT_OK/GD32VW55X_Wifi_BLE_SDK/GD32VW55x_RELEASE_V1.0.2/MSDK/wpa_supplicant/src/ap\tkip_countermeasures.c **** 		hapd->michael_mic_failures = 1;
 194              		.loc 2 100 3 is_stmt 1
 195              		.loc 2 100 30 is_stmt 0
 196 0066 8547     		li	a5,1
 197              	.LVL21:
 198 0068 2322F456 		sw	a5,1380(s0)
  73:C:/Users/stapi/OneDrive/Desktop/GD32VW553/V1_MQTT_OK/GD32VW55X_Wifi_BLE_SDK/GD32VW55x_RELEASE_V1.0.2/MSDK/wpa_supplicant/src/ap\tkip_countermeasures.c **** 
 199              		.loc 2 73 6
 200 006c 0145     		li	a0,0
 201              	.LVL22:
 202              	.L23:
 101:C:/Users/stapi/OneDrive/Desktop/GD32VW553/V1_MQTT_OK/GD32VW55X_Wifi_BLE_SDK/GD32VW55x_RELEASE_V1.0.2/MSDK/wpa_supplicant/src/ap\tkip_countermeasures.c **** 	} else {
 102:C:/Users/stapi/OneDrive/Desktop/GD32VW553/V1_MQTT_OK/GD32VW55X_Wifi_BLE_SDK/GD32VW55x_RELEASE_V1.0.2/MSDK/wpa_supplicant/src/ap\tkip_countermeasures.c **** 		hapd->michael_mic_failures++;
 103:C:/Users/stapi/OneDrive/Desktop/GD32VW553/V1_MQTT_OK/GD32VW55X_Wifi_BLE_SDK/GD32VW55x_RELEASE_V1.0.2/MSDK/wpa_supplicant/src/ap\tkip_countermeasures.c **** 		if (hapd->michael_mic_failures > 1) {
 104:C:/Users/stapi/OneDrive/Desktop/GD32VW553/V1_MQTT_OK/GD32VW55X_Wifi_BLE_SDK/GD32VW55x_RELEASE_V1.0.2/MSDK/wpa_supplicant/src/ap\tkip_countermeasures.c **** 			ieee80211_tkip_countermeasures_start(hapd);
 105:C:/Users/stapi/OneDrive/Desktop/GD32VW553/V1_MQTT_OK/GD32VW55X_Wifi_BLE_SDK/GD32VW55x_RELEASE_V1.0.2/MSDK/wpa_supplicant/src/ap\tkip_countermeasures.c **** 			ret = 1;
 106:C:/Users/stapi/OneDrive/Desktop/GD32VW553/V1_MQTT_OK/GD32VW55X_Wifi_BLE_SDK/GD32VW55x_RELEASE_V1.0.2/MSDK/wpa_supplicant/src/ap\tkip_countermeasures.c **** 		}
 107:C:/Users/stapi/OneDrive/Desktop/GD32VW553/V1_MQTT_OK/GD32VW55X_Wifi_BLE_SDK/GD32VW55x_RELEASE_V1.0.2/MSDK/wpa_supplicant/src/ap\tkip_countermeasures.c **** 	}
 108:C:/Users/stapi/OneDrive/Desktop/GD32VW553/V1_MQTT_OK/GD32VW55X_Wifi_BLE_SDK/GD32VW55x_RELEASE_V1.0.2/MSDK/wpa_supplicant/src/ap\tkip_countermeasures.c **** 	hapd->michael_mic_failure = now;
 203              		.loc 2 108 2 is_stmt 1
 204              		.loc 2 108 28 is_stmt 0
 205 006e A247     		lw	a5,8(sp)
 206 0070 232EF454 		sw	a5,1372(s0)
 207 0074 B247     		lw	a5,12(sp)
 208 0076 2320F456 		sw	a5,1376(s0)
 109:C:/Users/stapi/OneDrive/Desktop/GD32VW553/V1_MQTT_OK/GD32VW55X_Wifi_BLE_SDK/GD32VW55x_RELEASE_V1.0.2/MSDK/wpa_supplicant/src/ap\tkip_countermeasures.c **** 
 110:C:/Users/stapi/OneDrive/Desktop/GD32VW553/V1_MQTT_OK/GD32VW55X_Wifi_BLE_SDK/GD32VW55x_RELEASE_V1.0.2/MSDK/wpa_supplicant/src/ap\tkip_countermeasures.c **** 	return ret;
 209              		.loc 2 110 2 is_stmt 1
 210              		.loc 2 110 9 is_stmt 0
 211 007a 3DA0     		j	.L17
 212              	.LVL23:
 213              	.L19:
 214              	.LBB15:
  90:C:/Users/stapi/OneDrive/Desktop/GD32VW553/V1_MQTT_OK/GD32VW55X_Wifi_BLE_SDK/GD32VW55x_RELEASE_V1.0.2/MSDK/wpa_supplicant/src/ap\tkip_countermeasures.c **** 				   "MLME-MICHAELMICFAILURE.indication "
 215              		.loc 2 90 4 is_stmt 1
 216 007c 83C85400 		lbu	a7,5(s1)
 217 0080 03C84400 		lbu	a6,4(s1)
 218 0084 83C73400 		lbu	a5,3(s1)
 219 0088 03C72400 		lbu	a4,2(s1)
 220 008c 83C61400 		lbu	a3,1(s1)
 221 0090 03C60400 		lbu	a2,0(s1)
 222 0094 B7050000 		lui	a1,%hi(.LC0)
 223 0098 0945     		li	a0,2
 224              	.LVL24:
 225 009a 93850500 		addi	a1,a1,%lo(.LC0)
 226 009e 97000000 		call	wpa_printf
 226      E7800000 
 227              	.LVL25:
  94:C:/Users/stapi/OneDrive/Desktop/GD32VW553/V1_MQTT_OK/GD32VW55X_Wifi_BLE_SDK/GD32VW55x_RELEASE_V1.0.2/MSDK/wpa_supplicant/src/ap\tkip_countermeasures.c **** 		}
 228              		.loc 2 94 4
  94:C:/Users/stapi/OneDrive/Desktop/GD32VW553/V1_MQTT_OK/GD32VW55X_Wifi_BLE_SDK/GD32VW55x_RELEASE_V1.0.2/MSDK/wpa_supplicant/src/ap\tkip_countermeasures.c **** 		}
 229              		.loc 2 94 11 is_stmt 0
 230 00a6 0145     		li	a0,0
 231              	.LVL26:
 232              	.L17:
 233              	.LBE15:
 111:C:/Users/stapi/OneDrive/Desktop/GD32VW553/V1_MQTT_OK/GD32VW55X_Wifi_BLE_SDK/GD32VW55x_RELEASE_V1.0.2/MSDK/wpa_supplicant/src/ap\tkip_countermeasures.c **** }
 234              		.loc 2 111 1
 235 00a8 4101     		addi	sp,sp,16
 236              		.cfi_remember_state
 237              		.cfi_def_cfa_offset 0
 238 00aa 17030000 		tail	__riscv_restore_3
 238      67000300 
 239              		.cfi_restore 18
 240              		.cfi_restore 9
 241              		.cfi_restore 8
 242              		.cfi_restore 1
 243              		.cfi_def_cfa_offset -16
 244              	.LVL27:
 245              	.L22:
 246              		.cfi_restore_state
 247              	.LBB16:
 248              	.LBB14:
 249              		.loc 3 106 34
 250 00b2 6314D700 		bne	a4,a3,.L24
 107:..\..\..\..\wpa_supplicant\src/utils/os.h **** 	       (age.sec == timeout_secs && age.usec > 0);
 251              		.loc 3 107 34
 252 00b6 E348F0FA 		bgt	a5,zero,.L25
 253              	.L24:
 254              	.LVL28:
 255              	.LBE14:
 256              	.LBE16:
 102:C:/Users/stapi/OneDrive/Desktop/GD32VW553/V1_MQTT_OK/GD32VW55X_Wifi_BLE_SDK/GD32VW55x_RELEASE_V1.0.2/MSDK/wpa_supplicant/src/ap\tkip_countermeasures.c **** 		if (hapd->michael_mic_failures > 1) {
 257              		.loc 2 102 3 is_stmt 1
 102:C:/Users/stapi/OneDrive/Desktop/GD32VW553/V1_MQTT_OK/GD32VW55X_Wifi_BLE_SDK/GD32VW55x_RELEASE_V1.0.2/MSDK/wpa_supplicant/src/ap\tkip_countermeasures.c **** 		if (hapd->michael_mic_failures > 1) {
 258              		.loc 2 102 29 is_stmt 0
 259 00ba 83274456 		lw	a5,1380(s0)
 260              	.LVL29:
 103:C:/Users/stapi/OneDrive/Desktop/GD32VW553/V1_MQTT_OK/GD32VW55X_Wifi_BLE_SDK/GD32VW55x_RELEASE_V1.0.2/MSDK/wpa_supplicant/src/ap\tkip_countermeasures.c **** 			ieee80211_tkip_countermeasures_start(hapd);
 261              		.loc 2 103 6
 262 00be 8544     		li	s1,1
  73:C:/Users/stapi/OneDrive/Desktop/GD32VW553/V1_MQTT_OK/GD32VW55X_Wifi_BLE_SDK/GD32VW55x_RELEASE_V1.0.2/MSDK/wpa_supplicant/src/ap\tkip_countermeasures.c **** 
 263              		.loc 2 73 6
 264 00c0 0145     		li	a0,0
 102:C:/Users/stapi/OneDrive/Desktop/GD32VW553/V1_MQTT_OK/GD32VW55X_Wifi_BLE_SDK/GD32VW55x_RELEASE_V1.0.2/MSDK/wpa_supplicant/src/ap\tkip_countermeasures.c **** 		if (hapd->michael_mic_failures > 1) {
 265              		.loc 2 102 29
 266 00c2 8507     		addi	a5,a5,1
 267 00c4 2322F456 		sw	a5,1380(s0)
 103:C:/Users/stapi/OneDrive/Desktop/GD32VW553/V1_MQTT_OK/GD32VW55X_Wifi_BLE_SDK/GD32VW55x_RELEASE_V1.0.2/MSDK/wpa_supplicant/src/ap\tkip_countermeasures.c **** 			ieee80211_tkip_countermeasures_start(hapd);
 268              		.loc 2 103 3 is_stmt 1
 103:C:/Users/stapi/OneDrive/Desktop/GD32VW553/V1_MQTT_OK/GD32VW55X_Wifi_BLE_SDK/GD32VW55x_RELEASE_V1.0.2/MSDK/wpa_supplicant/src/ap\tkip_countermeasures.c **** 			ieee80211_tkip_countermeasures_start(hapd);
 269              		.loc 2 103 6 is_stmt 0
 270 00c8 E3D3F4FA 		ble	a5,s1,.L23
 104:C:/Users/stapi/OneDrive/Desktop/GD32VW553/V1_MQTT_OK/GD32VW55X_Wifi_BLE_SDK/GD32VW55x_RELEASE_V1.0.2/MSDK/wpa_supplicant/src/ap\tkip_countermeasures.c **** 			ret = 1;
 271              		.loc 2 104 4 is_stmt 1
 272              	.LVL30:
 273              	.LBB17:
 274              	.LBB18:
  37:C:/Users/stapi/OneDrive/Desktop/GD32VW553/V1_MQTT_OK/GD32VW55X_Wifi_BLE_SDK/GD32VW55x_RELEASE_V1.0.2/MSDK/wpa_supplicant/src/ap\tkip_countermeasures.c **** 
 275              		.loc 2 37 2
  39:C:/Users/stapi/OneDrive/Desktop/GD32VW553/V1_MQTT_OK/GD32VW55X_Wifi_BLE_SDK/GD32VW55x_RELEASE_V1.0.2/MSDK/wpa_supplicant/src/ap\tkip_countermeasures.c **** 		       HOSTAPD_LEVEL_INFO, "TKIP countermeasures initiated");
 276              		.loc 2 39 2
  39:C:/Users/stapi/OneDrive/Desktop/GD32VW553/V1_MQTT_OK/GD32VW55X_Wifi_BLE_SDK/GD32VW55x_RELEASE_V1.0.2/MSDK/wpa_supplicant/src/ap\tkip_countermeasures.c **** 		       HOSTAPD_LEVEL_INFO, "TKIP countermeasures initiated");
 277              		.loc 2 39 2
  39:C:/Users/stapi/OneDrive/Desktop/GD32VW553/V1_MQTT_OK/GD32VW55X_Wifi_BLE_SDK/GD32VW55x_RELEASE_V1.0.2/MSDK/wpa_supplicant/src/ap\tkip_countermeasures.c **** 		       HOSTAPD_LEVEL_INFO, "TKIP countermeasures initiated");
 278              		.loc 2 39 2
  42:C:/Users/stapi/OneDrive/Desktop/GD32VW553/V1_MQTT_OK/GD32VW55X_Wifi_BLE_SDK/GD32VW55x_RELEASE_V1.0.2/MSDK/wpa_supplicant/src/ap\tkip_countermeasures.c **** 	hapd->tkip_countermeasures = 1;
 279              		.loc 2 42 2
 280 00cc 0325C454 		lw	a0,1356(s0)
  50:C:/Users/stapi/OneDrive/Desktop/GD32VW553/V1_MQTT_OK/GD32VW55X_Wifi_BLE_SDK/GD32VW55x_RELEASE_V1.0.2/MSDK/wpa_supplicant/src/ap\tkip_countermeasures.c **** 			RADIUS_ACCT_TERMINATE_CAUSE_ADMIN_RESET;
 281              		.loc 2 50 29 is_stmt 0
 282 00d0 1949     		li	s2,6
  42:C:/Users/stapi/OneDrive/Desktop/GD32VW553/V1_MQTT_OK/GD32VW55X_Wifi_BLE_SDK/GD32VW55x_RELEASE_V1.0.2/MSDK/wpa_supplicant/src/ap\tkip_countermeasures.c **** 	hapd->tkip_countermeasures = 1;
 283              		.loc 2 42 2
 284 00d2 97000000 		call	wpa_auth_countermeasures_start
 284      E7800000 
 285              	.LVL31:
  43:C:/Users/stapi/OneDrive/Desktop/GD32VW553/V1_MQTT_OK/GD32VW55X_Wifi_BLE_SDK/GD32VW55x_RELEASE_V1.0.2/MSDK/wpa_supplicant/src/ap\tkip_countermeasures.c **** 	hostapd_drv_set_countermeasures(hapd, 1);
 286              		.loc 2 43 2 is_stmt 1
  44:C:/Users/stapi/OneDrive/Desktop/GD32VW553/V1_MQTT_OK/GD32VW55X_Wifi_BLE_SDK/GD32VW55x_RELEASE_V1.0.2/MSDK/wpa_supplicant/src/ap\tkip_countermeasures.c **** 	wpa_gtk_rekey(hapd->wpa_auth);
 287              		.loc 2 44 2 is_stmt 0
 288 00da 8545     		li	a1,1
  43:C:/Users/stapi/OneDrive/Desktop/GD32VW553/V1_MQTT_OK/GD32VW55X_Wifi_BLE_SDK/GD32VW55x_RELEASE_V1.0.2/MSDK/wpa_supplicant/src/ap\tkip_countermeasures.c **** 	hostapd_drv_set_countermeasures(hapd, 1);
 289              		.loc 2 43 29
 290 00dc 23249456 		sw	s1,1384(s0)
  44:C:/Users/stapi/OneDrive/Desktop/GD32VW553/V1_MQTT_OK/GD32VW55X_Wifi_BLE_SDK/GD32VW55x_RELEASE_V1.0.2/MSDK/wpa_supplicant/src/ap\tkip_countermeasures.c **** 	wpa_gtk_rekey(hapd->wpa_auth);
 291              		.loc 2 44 2 is_stmt 1
 292 00e0 2285     		mv	a0,s0
 293 00e2 97000000 		call	hostapd_drv_set_countermeasures.isra.0
 293      E7800000 
 294              	.LVL32:
  45:C:/Users/stapi/OneDrive/Desktop/GD32VW553/V1_MQTT_OK/GD32VW55X_Wifi_BLE_SDK/GD32VW55x_RELEASE_V1.0.2/MSDK/wpa_supplicant/src/ap\tkip_countermeasures.c **** 	eloop_cancel_timeout(ieee80211_tkip_countermeasures_stop, hapd, NULL);
 295              		.loc 2 45 2
 296 00ea 0325C454 		lw	a0,1356(s0)
  46:C:/Users/stapi/OneDrive/Desktop/GD32VW553/V1_MQTT_OK/GD32VW55X_Wifi_BLE_SDK/GD32VW55x_RELEASE_V1.0.2/MSDK/wpa_supplicant/src/ap\tkip_countermeasures.c **** 	eloop_register_timeout(60, 0, ieee80211_tkip_countermeasures_stop,
 297              		.loc 2 46 2 is_stmt 0
 298 00ee B7040000 		lui	s1,%hi(ieee80211_tkip_countermeasures_stop)
  45:C:/Users/stapi/OneDrive/Desktop/GD32VW553/V1_MQTT_OK/GD32VW55X_Wifi_BLE_SDK/GD32VW55x_RELEASE_V1.0.2/MSDK/wpa_supplicant/src/ap\tkip_countermeasures.c **** 	eloop_cancel_timeout(ieee80211_tkip_countermeasures_stop, hapd, NULL);
 299              		.loc 2 45 2
 300 00f2 97000000 		call	wpa_gtk_rekey
 300      E7800000 
 301              	.LVL33:
  46:C:/Users/stapi/OneDrive/Desktop/GD32VW553/V1_MQTT_OK/GD32VW55X_Wifi_BLE_SDK/GD32VW55x_RELEASE_V1.0.2/MSDK/wpa_supplicant/src/ap\tkip_countermeasures.c **** 	eloop_register_timeout(60, 0, ieee80211_tkip_countermeasures_stop,
 302              		.loc 2 46 2 is_stmt 1
 303 00fa 0146     		li	a2,0
 304 00fc A285     		mv	a1,s0
 305 00fe 13850400 		addi	a0,s1,%lo(ieee80211_tkip_countermeasures_stop)
 306 0102 97000000 		call	eloop_cancel_timeout
 306      E7800000 
 307              	.LVL34:
  47:C:/Users/stapi/OneDrive/Desktop/GD32VW553/V1_MQTT_OK/GD32VW55X_Wifi_BLE_SDK/GD32VW55x_RELEASE_V1.0.2/MSDK/wpa_supplicant/src/ap\tkip_countermeasures.c **** 			       hapd, NULL);
 308              		.loc 2 47 2
 309 010a 0147     		li	a4,0
 310 010c A286     		mv	a3,s0
 311 010e 13860400 		addi	a2,s1,%lo(ieee80211_tkip_countermeasures_stop)
 312 0112 8145     		li	a1,0
 313 0114 1305C003 		li	a0,60
 314 0118 97000000 		call	eloop_register_timeout
 314      E7800000 
 315              	.LVL35:
  49:C:/Users/stapi/OneDrive/Desktop/GD32VW553/V1_MQTT_OK/GD32VW55X_Wifi_BLE_SDK/GD32VW55x_RELEASE_V1.0.2/MSDK/wpa_supplicant/src/ap\tkip_countermeasures.c **** 		sta->acct_terminate_cause =
 316              		.loc 2 49 2
 317              	.L26:
  49:C:/Users/stapi/OneDrive/Desktop/GD32VW553/V1_MQTT_OK/GD32VW55X_Wifi_BLE_SDK/GD32VW55x_RELEASE_V1.0.2/MSDK/wpa_supplicant/src/ap\tkip_countermeasures.c **** 		sta->acct_terminate_cause =
 318              		.loc 2 49 8
  49:C:/Users/stapi/OneDrive/Desktop/GD32VW553/V1_MQTT_OK/GD32VW55X_Wifi_BLE_SDK/GD32VW55x_RELEASE_V1.0.2/MSDK/wpa_supplicant/src/ap\tkip_countermeasures.c **** 		sta->acct_terminate_cause =
 319              		.loc 2 49 14 is_stmt 0
 320 0120 444C     		lw	s1,28(s0)
 321              	.LVL36:
  49:C:/Users/stapi/OneDrive/Desktop/GD32VW553/V1_MQTT_OK/GD32VW55X_Wifi_BLE_SDK/GD32VW55x_RELEASE_V1.0.2/MSDK/wpa_supplicant/src/ap\tkip_countermeasures.c **** 		sta->acct_terminate_cause =
 322              		.loc 2 49 8
 323 0122 99E0     		bne	s1,zero,.L28
 324              	.LBE18:
 325              	.LBE17:
 105:C:/Users/stapi/OneDrive/Desktop/GD32VW553/V1_MQTT_OK/GD32VW55X_Wifi_BLE_SDK/GD32VW55x_RELEASE_V1.0.2/MSDK/wpa_supplicant/src/ap\tkip_countermeasures.c **** 		}
 326              		.loc 2 105 8
 327 0124 0545     		li	a0,1
 328              	.LBB20:
 329              	.LBB19:
 330 0126 A1B7     		j	.L23
 331              	.L28:
  50:C:/Users/stapi/OneDrive/Desktop/GD32VW553/V1_MQTT_OK/GD32VW55X_Wifi_BLE_SDK/GD32VW55x_RELEASE_V1.0.2/MSDK/wpa_supplicant/src/ap\tkip_countermeasures.c **** 			RADIUS_ACCT_TERMINATE_CAUSE_ADMIN_RESET;
 332              		.loc 2 50 3 is_stmt 1
  52:C:/Users/stapi/OneDrive/Desktop/GD32VW553/V1_MQTT_OK/GD32VW55X_Wifi_BLE_SDK/GD32VW55x_RELEASE_V1.0.2/MSDK/wpa_supplicant/src/ap\tkip_countermeasures.c **** 			mlme_deauthenticate_indication(
 333              		.loc 2 52 18 is_stmt 0
 334 0128 9C50     		lw	a5,32(s1)
  50:C:/Users/stapi/OneDrive/Desktop/GD32VW553/V1_MQTT_OK/GD32VW55X_Wifi_BLE_SDK/GD32VW55x_RELEASE_V1.0.2/MSDK/wpa_supplicant/src/ap\tkip_countermeasures.c **** 			RADIUS_ACCT_TERMINATE_CAUSE_ADMIN_RESET;
 335              		.loc 2 50 29
 336 012a 23AE2407 		sw	s2,124(s1)
  52:C:/Users/stapi/OneDrive/Desktop/GD32VW553/V1_MQTT_OK/GD32VW55X_Wifi_BLE_SDK/GD32VW55x_RELEASE_V1.0.2/MSDK/wpa_supplicant/src/ap\tkip_countermeasures.c **** 			mlme_deauthenticate_indication(
 337              		.loc 2 52 3 is_stmt 1
  52:C:/Users/stapi/OneDrive/Desktop/GD32VW553/V1_MQTT_OK/GD32VW55X_Wifi_BLE_SDK/GD32VW55x_RELEASE_V1.0.2/MSDK/wpa_supplicant/src/ap\tkip_countermeasures.c **** 			mlme_deauthenticate_indication(
 338              		.loc 2 52 18 is_stmt 0
 339 012e 858B     		andi	a5,a5,1
  52:C:/Users/stapi/OneDrive/Desktop/GD32VW553/V1_MQTT_OK/GD32VW55X_Wifi_BLE_SDK/GD32VW55x_RELEASE_V1.0.2/MSDK/wpa_supplicant/src/ap\tkip_countermeasures.c **** 			mlme_deauthenticate_indication(
 340              		.loc 2 52 6
 341 0130 81CB     		beq	a5,zero,.L27
  53:C:/Users/stapi/OneDrive/Desktop/GD32VW553/V1_MQTT_OK/GD32VW55X_Wifi_BLE_SDK/GD32VW55x_RELEASE_V1.0.2/MSDK/wpa_supplicant/src/ap\tkip_countermeasures.c **** 				hapd, sta,
 342              		.loc 2 53 4 is_stmt 1
 343 0132 3946     		li	a2,14
 344 0134 A685     		mv	a1,s1
 345 0136 2285     		mv	a0,s0
 346 0138 97000000 		call	mlme_deauthenticate_indication
 346      E7800000 
 347              	.LVL37:
 348              	.L27:
  57:C:/Users/stapi/OneDrive/Desktop/GD32VW553/V1_MQTT_OK/GD32VW55X_Wifi_BLE_SDK/GD32VW55x_RELEASE_V1.0.2/MSDK/wpa_supplicant/src/ap\tkip_countermeasures.c **** 				       WLAN_REASON_MICHAEL_MIC_FAILURE);
 349              		.loc 2 57 3
 350 0140 93858400 		addi	a1,s1,8
 351 0144 3946     		li	a2,14
 352 0146 2285     		mv	a0,s0
 353 0148 97000000 		call	hostapd_drv_sta_deauth
 353      E7800000 
 354              	.LVL38:
  59:C:/Users/stapi/OneDrive/Desktop/GD32VW553/V1_MQTT_OK/GD32VW55X_Wifi_BLE_SDK/GD32VW55x_RELEASE_V1.0.2/MSDK/wpa_supplicant/src/ap\tkip_countermeasures.c **** 	}
 355              		.loc 2 59 3
 356 0150 A685     		mv	a1,s1
 357 0152 2285     		mv	a0,s0
 358 0154 97000000 		call	ap_free_sta
 358      E7800000 
 359              	.LVL39:
 360 015c D1B7     		j	.L26
 361              	.LBE19:
 362              	.LBE20:
 363              		.cfi_endproc
 364              	.LFE170:
 366              		.text
 367              	.Letext0:
 368              		.file 4 "c:\\users\\stapi\\onedrive\\desktop\\gd32vw553\\embeddedbuilder_v1.4.7.26843\\tools\\nucl
 369              		.file 5 "c:\\users\\stapi\\onedrive\\desktop\\gd32vw553\\embeddedbuilder_v1.4.7.26843\\tools\\nucl
 370              		.file 6 "c:\\users\\stapi\\onedrive\\desktop\\gd32vw553\\embeddedbuilder_v1.4.7.26843\\tools\\nucl
 371              		.file 7 "..\\..\\..\\..\\lwip\\lwip-2.1.2\\src\\include/lwip/arch.h"
 372              		.file 8 "..\\..\\..\\..\\lwip\\lwip-2.1.2\\src\\include/lwip/inet.h"
 373              		.file 9 "..\\..\\..\\..\\wpa_supplicant\\src/utils/common.h"
 374              		.file 10 "..\\..\\..\\..\\wpa_supplicant\\src/utils/wpabuf.h"
 375              		.file 11 "..\\..\\..\\..\\wpa_supplicant\\src/common/ieee802_11_defs.h"
 376              		.file 12 "..\\..\\..\\..\\wpa_supplicant\\src/utils/wpa_debug.h"
 377              		.file 13 "..\\..\\..\\..\\wpa_supplicant\\src/common/defs.h"
 378              		.file 14 "..\\..\\..\\..\\wpa_supplicant\\src/utils/list.h"
 379              		.file 15 "..\\..\\..\\..\\wpa_supplicant\\src/utils/ip_addr.h"
 380              		.file 16 "..\\..\\..\\..\\wpa_supplicant\\src/common/ieee802_11_common.h"
 381              		.file 17 "..\\..\\..\\..\\wpa_supplicant\\src/wps/wps_defs.h"
 382              		.file 18 "..\\..\\..\\..\\wpa_supplicant\\src/wps/wps.h"
 383              		.file 19 "C:/Users/stapi/OneDrive/Desktop/GD32VW553/V1_MQTT_OK/GD32VW55X_Wifi_BLE_SDK/GD32VW55x_RE
 384              		.file 20 "C:/Users/stapi/OneDrive/Desktop/GD32VW553/V1_MQTT_OK/GD32VW55X_Wifi_BLE_SDK/GD32VW55x_RE
 385              		.file 21 "..\\..\\..\\..\\wpa_supplicant\\src/common/sae.h"
 386              		.file 22 "..\\..\\..\\..\\wpa_supplicant\\src/drivers/driver.h"
 387              		.file 23 "C:/Users/stapi/OneDrive/Desktop/GD32VW553/V1_MQTT_OK/GD32VW55X_Wifi_BLE_SDK/GD32VW55x_RE
 388              		.file 24 "C:/Users/stapi/OneDrive/Desktop/GD32VW553/V1_MQTT_OK/GD32VW55X_Wifi_BLE_SDK/GD32VW55x_RE
 389              		.file 25 "C:/Users/stapi/OneDrive/Desktop/GD32VW553/V1_MQTT_OK/GD32VW55X_Wifi_BLE_SDK/GD32VW55x_RE
 390              		.file 26 "C:/Users/stapi/OneDrive/Desktop/GD32VW553/V1_MQTT_OK/GD32VW55X_Wifi_BLE_SDK/GD32VW55x_RE
 391              		.file 27 "..\\..\\..\\..\\wpa_supplicant\\src/utils/eloop.h"