   1              		.file	"utils.c"
   2              		.option nopic
   3              		.attribute arch, "rv32i2p0_m2p0_a2p0_f2p0_c2p0_b_p0p94"
   4              		.attribute unaligned_access, 0
   5              		.attribute stack_align, 16
   6              		.text
   7              	.Ltext0:
   8              		.cfi_sections	.debug_frame
   9              		.section	.rodata.prune_associations.str1.4,"aMS",@progbits,1
  10              		.align	2
  11              	.LC0:
  12 0000 25733A20 		.string	"%s: Prune association for %02x:%02x:%02x:%02x:%02x:%02x"
  12      5072756E 
  12      65206173 
  12      736F6369 
  12      6174696F 
  13              		.section	.text.prune_associations,"ax",@progbits
  14              		.align	1
  16              	prune_associations:
  17              	.LFB138:
  18              		.file 1 "C:/Users/stapi/OneDrive/Desktop/GD32VW553/V1_MQTT_OK/GD32VW55X_Wifi_BLE_SDK/GD32VW55x_REL
   1:C:/Users/stapi/OneDrive/Desktop/GD32VW553/V1_MQTT_OK/GD32VW55X_Wifi_BLE_SDK/GD32VW55x_RELEASE_V1.0.2/MSDK/wpa_supplicant/src/ap\utils.c **** /*
   2:C:/Users/stapi/OneDrive/Desktop/GD32VW553/V1_MQTT_OK/GD32VW55X_Wifi_BLE_SDK/GD32VW55x_RELEASE_V1.0.2/MSDK/wpa_supplicant/src/ap\utils.c ****  * AP mode helper functions
   3:C:/Users/stapi/OneDrive/Desktop/GD32VW553/V1_MQTT_OK/GD32VW55X_Wifi_BLE_SDK/GD32VW55x_RELEASE_V1.0.2/MSDK/wpa_supplicant/src/ap\utils.c ****  * Copyright (c) 2009, Jouni Malinen <j@w1.fi>
   4:C:/Users/stapi/OneDrive/Desktop/GD32VW553/V1_MQTT_OK/GD32VW55X_Wifi_BLE_SDK/GD32VW55x_RELEASE_V1.0.2/MSDK/wpa_supplicant/src/ap\utils.c ****  *
   5:C:/Users/stapi/OneDrive/Desktop/GD32VW553/V1_MQTT_OK/GD32VW55X_Wifi_BLE_SDK/GD32VW55x_RELEASE_V1.0.2/MSDK/wpa_supplicant/src/ap\utils.c ****  * This software may be distributed under the terms of the BSD license.
   6:C:/Users/stapi/OneDrive/Desktop/GD32VW553/V1_MQTT_OK/GD32VW55X_Wifi_BLE_SDK/GD32VW55x_RELEASE_V1.0.2/MSDK/wpa_supplicant/src/ap\utils.c ****  * See README for more details.
   7:C:/Users/stapi/OneDrive/Desktop/GD32VW553/V1_MQTT_OK/GD32VW55X_Wifi_BLE_SDK/GD32VW55x_RELEASE_V1.0.2/MSDK/wpa_supplicant/src/ap\utils.c ****  */
   8:C:/Users/stapi/OneDrive/Desktop/GD32VW553/V1_MQTT_OK/GD32VW55X_Wifi_BLE_SDK/GD32VW55x_RELEASE_V1.0.2/MSDK/wpa_supplicant/src/ap\utils.c **** 
   9:C:/Users/stapi/OneDrive/Desktop/GD32VW553/V1_MQTT_OK/GD32VW55X_Wifi_BLE_SDK/GD32VW55x_RELEASE_V1.0.2/MSDK/wpa_supplicant/src/ap\utils.c **** #include "includes.h"
  10:C:/Users/stapi/OneDrive/Desktop/GD32VW553/V1_MQTT_OK/GD32VW55X_Wifi_BLE_SDK/GD32VW55x_RELEASE_V1.0.2/MSDK/wpa_supplicant/src/ap\utils.c **** 
  11:C:/Users/stapi/OneDrive/Desktop/GD32VW553/V1_MQTT_OK/GD32VW55X_Wifi_BLE_SDK/GD32VW55x_RELEASE_V1.0.2/MSDK/wpa_supplicant/src/ap\utils.c **** #ifdef CONFIG_AP
  12:C:/Users/stapi/OneDrive/Desktop/GD32VW553/V1_MQTT_OK/GD32VW55X_Wifi_BLE_SDK/GD32VW55x_RELEASE_V1.0.2/MSDK/wpa_supplicant/src/ap\utils.c **** #include "common.h"
  13:C:/Users/stapi/OneDrive/Desktop/GD32VW553/V1_MQTT_OK/GD32VW55X_Wifi_BLE_SDK/GD32VW55x_RELEASE_V1.0.2/MSDK/wpa_supplicant/src/ap\utils.c **** #include "common/ieee802_11_defs.h"
  14:C:/Users/stapi/OneDrive/Desktop/GD32VW553/V1_MQTT_OK/GD32VW55X_Wifi_BLE_SDK/GD32VW55x_RELEASE_V1.0.2/MSDK/wpa_supplicant/src/ap\utils.c **** #include "fst/fst.h"
  15:C:/Users/stapi/OneDrive/Desktop/GD32VW553/V1_MQTT_OK/GD32VW55X_Wifi_BLE_SDK/GD32VW55x_RELEASE_V1.0.2/MSDK/wpa_supplicant/src/ap\utils.c **** #include "sta_info.h"
  16:C:/Users/stapi/OneDrive/Desktop/GD32VW553/V1_MQTT_OK/GD32VW55X_Wifi_BLE_SDK/GD32VW55x_RELEASE_V1.0.2/MSDK/wpa_supplicant/src/ap\utils.c **** #include "hostapd.h"
  17:C:/Users/stapi/OneDrive/Desktop/GD32VW553/V1_MQTT_OK/GD32VW55X_Wifi_BLE_SDK/GD32VW55x_RELEASE_V1.0.2/MSDK/wpa_supplicant/src/ap\utils.c **** 
  18:C:/Users/stapi/OneDrive/Desktop/GD32VW553/V1_MQTT_OK/GD32VW55X_Wifi_BLE_SDK/GD32VW55x_RELEASE_V1.0.2/MSDK/wpa_supplicant/src/ap\utils.c **** 
  19:C:/Users/stapi/OneDrive/Desktop/GD32VW553/V1_MQTT_OK/GD32VW55X_Wifi_BLE_SDK/GD32VW55x_RELEASE_V1.0.2/MSDK/wpa_supplicant/src/ap\utils.c **** int hostapd_register_probereq_cb(struct hostapd_data *hapd,
  20:C:/Users/stapi/OneDrive/Desktop/GD32VW553/V1_MQTT_OK/GD32VW55X_Wifi_BLE_SDK/GD32VW55x_RELEASE_V1.0.2/MSDK/wpa_supplicant/src/ap\utils.c **** 				 int (*cb)(void *ctx, const u8 *sa,
  21:C:/Users/stapi/OneDrive/Desktop/GD32VW553/V1_MQTT_OK/GD32VW55X_Wifi_BLE_SDK/GD32VW55x_RELEASE_V1.0.2/MSDK/wpa_supplicant/src/ap\utils.c **** 					   const u8 *da, const u8 *bssid,
  22:C:/Users/stapi/OneDrive/Desktop/GD32VW553/V1_MQTT_OK/GD32VW55X_Wifi_BLE_SDK/GD32VW55x_RELEASE_V1.0.2/MSDK/wpa_supplicant/src/ap\utils.c **** 					   const u8 *ie, size_t ie_len,
  23:C:/Users/stapi/OneDrive/Desktop/GD32VW553/V1_MQTT_OK/GD32VW55X_Wifi_BLE_SDK/GD32VW55x_RELEASE_V1.0.2/MSDK/wpa_supplicant/src/ap\utils.c **** 					   int ssi_signal),
  24:C:/Users/stapi/OneDrive/Desktop/GD32VW553/V1_MQTT_OK/GD32VW55X_Wifi_BLE_SDK/GD32VW55x_RELEASE_V1.0.2/MSDK/wpa_supplicant/src/ap\utils.c **** 				 void *ctx)
  25:C:/Users/stapi/OneDrive/Desktop/GD32VW553/V1_MQTT_OK/GD32VW55X_Wifi_BLE_SDK/GD32VW55x_RELEASE_V1.0.2/MSDK/wpa_supplicant/src/ap\utils.c **** {
  26:C:/Users/stapi/OneDrive/Desktop/GD32VW553/V1_MQTT_OK/GD32VW55X_Wifi_BLE_SDK/GD32VW55x_RELEASE_V1.0.2/MSDK/wpa_supplicant/src/ap\utils.c **** 	struct hostapd_probereq_cb *n;
  27:C:/Users/stapi/OneDrive/Desktop/GD32VW553/V1_MQTT_OK/GD32VW55X_Wifi_BLE_SDK/GD32VW55x_RELEASE_V1.0.2/MSDK/wpa_supplicant/src/ap\utils.c **** 
  28:C:/Users/stapi/OneDrive/Desktop/GD32VW553/V1_MQTT_OK/GD32VW55X_Wifi_BLE_SDK/GD32VW55x_RELEASE_V1.0.2/MSDK/wpa_supplicant/src/ap\utils.c **** 	n = os_realloc_array(hapd->probereq_cb, hapd->num_probereq_cb + 1,
  29:C:/Users/stapi/OneDrive/Desktop/GD32VW553/V1_MQTT_OK/GD32VW55X_Wifi_BLE_SDK/GD32VW55x_RELEASE_V1.0.2/MSDK/wpa_supplicant/src/ap\utils.c **** 			     sizeof(struct hostapd_probereq_cb));
  30:C:/Users/stapi/OneDrive/Desktop/GD32VW553/V1_MQTT_OK/GD32VW55X_Wifi_BLE_SDK/GD32VW55x_RELEASE_V1.0.2/MSDK/wpa_supplicant/src/ap\utils.c **** 	if (n == NULL)
  31:C:/Users/stapi/OneDrive/Desktop/GD32VW553/V1_MQTT_OK/GD32VW55X_Wifi_BLE_SDK/GD32VW55x_RELEASE_V1.0.2/MSDK/wpa_supplicant/src/ap\utils.c **** 		return -1;
  32:C:/Users/stapi/OneDrive/Desktop/GD32VW553/V1_MQTT_OK/GD32VW55X_Wifi_BLE_SDK/GD32VW55x_RELEASE_V1.0.2/MSDK/wpa_supplicant/src/ap\utils.c **** 
  33:C:/Users/stapi/OneDrive/Desktop/GD32VW553/V1_MQTT_OK/GD32VW55X_Wifi_BLE_SDK/GD32VW55x_RELEASE_V1.0.2/MSDK/wpa_supplicant/src/ap\utils.c **** 	hapd->probereq_cb = n;
  34:C:/Users/stapi/OneDrive/Desktop/GD32VW553/V1_MQTT_OK/GD32VW55X_Wifi_BLE_SDK/GD32VW55x_RELEASE_V1.0.2/MSDK/wpa_supplicant/src/ap\utils.c **** 	n = &hapd->probereq_cb[hapd->num_probereq_cb];
  35:C:/Users/stapi/OneDrive/Desktop/GD32VW553/V1_MQTT_OK/GD32VW55X_Wifi_BLE_SDK/GD32VW55x_RELEASE_V1.0.2/MSDK/wpa_supplicant/src/ap\utils.c **** 	hapd->num_probereq_cb++;
  36:C:/Users/stapi/OneDrive/Desktop/GD32VW553/V1_MQTT_OK/GD32VW55X_Wifi_BLE_SDK/GD32VW55x_RELEASE_V1.0.2/MSDK/wpa_supplicant/src/ap\utils.c **** 
  37:C:/Users/stapi/OneDrive/Desktop/GD32VW553/V1_MQTT_OK/GD32VW55X_Wifi_BLE_SDK/GD32VW55x_RELEASE_V1.0.2/MSDK/wpa_supplicant/src/ap\utils.c **** 	n->cb = cb;
  38:C:/Users/stapi/OneDrive/Desktop/GD32VW553/V1_MQTT_OK/GD32VW55X_Wifi_BLE_SDK/GD32VW55x_RELEASE_V1.0.2/MSDK/wpa_supplicant/src/ap\utils.c **** 	n->ctx = ctx;
  39:C:/Users/stapi/OneDrive/Desktop/GD32VW553/V1_MQTT_OK/GD32VW55X_Wifi_BLE_SDK/GD32VW55x_RELEASE_V1.0.2/MSDK/wpa_supplicant/src/ap\utils.c **** 
  40:C:/Users/stapi/OneDrive/Desktop/GD32VW553/V1_MQTT_OK/GD32VW55X_Wifi_BLE_SDK/GD32VW55x_RELEASE_V1.0.2/MSDK/wpa_supplicant/src/ap\utils.c **** 	return 0;
  41:C:/Users/stapi/OneDrive/Desktop/GD32VW553/V1_MQTT_OK/GD32VW55X_Wifi_BLE_SDK/GD32VW55x_RELEASE_V1.0.2/MSDK/wpa_supplicant/src/ap\utils.c **** }
  42:C:/Users/stapi/OneDrive/Desktop/GD32VW553/V1_MQTT_OK/GD32VW55X_Wifi_BLE_SDK/GD32VW55x_RELEASE_V1.0.2/MSDK/wpa_supplicant/src/ap\utils.c **** 
  43:C:/Users/stapi/OneDrive/Desktop/GD32VW553/V1_MQTT_OK/GD32VW55X_Wifi_BLE_SDK/GD32VW55x_RELEASE_V1.0.2/MSDK/wpa_supplicant/src/ap\utils.c **** 
  44:C:/Users/stapi/OneDrive/Desktop/GD32VW553/V1_MQTT_OK/GD32VW55X_Wifi_BLE_SDK/GD32VW55x_RELEASE_V1.0.2/MSDK/wpa_supplicant/src/ap\utils.c **** struct prune_data {
  45:C:/Users/stapi/OneDrive/Desktop/GD32VW553/V1_MQTT_OK/GD32VW55X_Wifi_BLE_SDK/GD32VW55x_RELEASE_V1.0.2/MSDK/wpa_supplicant/src/ap\utils.c **** 	struct hostapd_data *hapd;
  46:C:/Users/stapi/OneDrive/Desktop/GD32VW553/V1_MQTT_OK/GD32VW55X_Wifi_BLE_SDK/GD32VW55x_RELEASE_V1.0.2/MSDK/wpa_supplicant/src/ap\utils.c **** 	const u8 *addr;
  47:C:/Users/stapi/OneDrive/Desktop/GD32VW553/V1_MQTT_OK/GD32VW55X_Wifi_BLE_SDK/GD32VW55x_RELEASE_V1.0.2/MSDK/wpa_supplicant/src/ap\utils.c **** };
  48:C:/Users/stapi/OneDrive/Desktop/GD32VW553/V1_MQTT_OK/GD32VW55X_Wifi_BLE_SDK/GD32VW55x_RELEASE_V1.0.2/MSDK/wpa_supplicant/src/ap\utils.c **** 
  49:C:/Users/stapi/OneDrive/Desktop/GD32VW553/V1_MQTT_OK/GD32VW55X_Wifi_BLE_SDK/GD32VW55x_RELEASE_V1.0.2/MSDK/wpa_supplicant/src/ap\utils.c **** static int prune_associations(struct hostapd_iface *iface, void *ctx)
  50:C:/Users/stapi/OneDrive/Desktop/GD32VW553/V1_MQTT_OK/GD32VW55X_Wifi_BLE_SDK/GD32VW55x_RELEASE_V1.0.2/MSDK/wpa_supplicant/src/ap\utils.c **** {
  19              		.loc 1 50 1
  20              		.cfi_startproc
  21              	.LVL0:
  22 0000 17030000 		call	t0,__riscv_save_6
  22      E7020300 
  23              		.cfi_offset 21, -28
  24              		.cfi_offset 20, -24
  25              		.cfi_offset 19, -20
  26              		.cfi_offset 18, -16
  27              		.cfi_offset 9, -12
  28              		.cfi_offset 8, -8
  29              		.cfi_offset 1, -4
  30              		.cfi_def_cfa_offset 32
  51:C:/Users/stapi/OneDrive/Desktop/GD32VW553/V1_MQTT_OK/GD32VW55X_Wifi_BLE_SDK/GD32VW55x_RELEASE_V1.0.2/MSDK/wpa_supplicant/src/ap\utils.c **** 	struct prune_data *data = ctx;
  31              		.loc 1 51 2
  50:C:/Users/stapi/OneDrive/Desktop/GD32VW553/V1_MQTT_OK/GD32VW55X_Wifi_BLE_SDK/GD32VW55x_RELEASE_V1.0.2/MSDK/wpa_supplicant/src/ap\utils.c **** 	struct prune_data *data = ctx;
  32              		.loc 1 50 1 is_stmt 0
  33 0008 4111     		addi	sp,sp,-16
  34              		.cfi_def_cfa_offset 48
  50:C:/Users/stapi/OneDrive/Desktop/GD32VW553/V1_MQTT_OK/GD32VW55X_Wifi_BLE_SDK/GD32VW55x_RELEASE_V1.0.2/MSDK/wpa_supplicant/src/ap\utils.c **** 	struct prune_data *data = ctx;
  35              		.loc 1 50 1
  36 000a 2A89     		mv	s2,a0
  37 000c AE89     		mv	s3,a1
  38              	.LVL1:
  52:C:/Users/stapi/OneDrive/Desktop/GD32VW553/V1_MQTT_OK/GD32VW55X_Wifi_BLE_SDK/GD32VW55x_RELEASE_V1.0.2/MSDK/wpa_supplicant/src/ap\utils.c **** 	struct sta_info *osta;
  39              		.loc 1 52 2 is_stmt 1
  53:C:/Users/stapi/OneDrive/Desktop/GD32VW553/V1_MQTT_OK/GD32VW55X_Wifi_BLE_SDK/GD32VW55x_RELEASE_V1.0.2/MSDK/wpa_supplicant/src/ap\utils.c **** 	struct hostapd_data *ohapd;
  40              		.loc 1 53 2
  54:C:/Users/stapi/OneDrive/Desktop/GD32VW553/V1_MQTT_OK/GD32VW55X_Wifi_BLE_SDK/GD32VW55x_RELEASE_V1.0.2/MSDK/wpa_supplicant/src/ap\utils.c **** 	size_t j;
  41              		.loc 1 54 2
  55:C:/Users/stapi/OneDrive/Desktop/GD32VW553/V1_MQTT_OK/GD32VW55X_Wifi_BLE_SDK/GD32VW55x_RELEASE_V1.0.2/MSDK/wpa_supplicant/src/ap\utils.c **** 
  56:C:/Users/stapi/OneDrive/Desktop/GD32VW553/V1_MQTT_OK/GD32VW55X_Wifi_BLE_SDK/GD32VW55x_RELEASE_V1.0.2/MSDK/wpa_supplicant/src/ap\utils.c **** 	for (j = 0; j < iface->num_bss; j++) {
  42              		.loc 1 56 2
  43              		.loc 1 56 9 is_stmt 0
  44 000e 8144     		li	s1,0
  57:C:/Users/stapi/OneDrive/Desktop/GD32VW553/V1_MQTT_OK/GD32VW55X_Wifi_BLE_SDK/GD32VW55x_RELEASE_V1.0.2/MSDK/wpa_supplicant/src/ap\utils.c **** 		ohapd = iface->bss[j];
  58:C:/Users/stapi/OneDrive/Desktop/GD32VW553/V1_MQTT_OK/GD32VW55X_Wifi_BLE_SDK/GD32VW55x_RELEASE_V1.0.2/MSDK/wpa_supplicant/src/ap\utils.c **** 		if (ohapd == data->hapd)
  59:C:/Users/stapi/OneDrive/Desktop/GD32VW553/V1_MQTT_OK/GD32VW55X_Wifi_BLE_SDK/GD32VW55x_RELEASE_V1.0.2/MSDK/wpa_supplicant/src/ap\utils.c **** 			continue;
  60:C:/Users/stapi/OneDrive/Desktop/GD32VW553/V1_MQTT_OK/GD32VW55X_Wifi_BLE_SDK/GD32VW55x_RELEASE_V1.0.2/MSDK/wpa_supplicant/src/ap\utils.c **** #ifdef CONFIG_TESTING_OPTIONS
  61:C:/Users/stapi/OneDrive/Desktop/GD32VW553/V1_MQTT_OK/GD32VW55X_Wifi_BLE_SDK/GD32VW55x_RELEASE_V1.0.2/MSDK/wpa_supplicant/src/ap\utils.c **** 		if (ohapd->conf->skip_prune_assoc)
  62:C:/Users/stapi/OneDrive/Desktop/GD32VW553/V1_MQTT_OK/GD32VW55X_Wifi_BLE_SDK/GD32VW55x_RELEASE_V1.0.2/MSDK/wpa_supplicant/src/ap\utils.c **** 			continue;
  63:C:/Users/stapi/OneDrive/Desktop/GD32VW553/V1_MQTT_OK/GD32VW55X_Wifi_BLE_SDK/GD32VW55x_RELEASE_V1.0.2/MSDK/wpa_supplicant/src/ap\utils.c **** #endif /* CONFIG_TESTING_OPTIONS */
  64:C:/Users/stapi/OneDrive/Desktop/GD32VW553/V1_MQTT_OK/GD32VW55X_Wifi_BLE_SDK/GD32VW55x_RELEASE_V1.0.2/MSDK/wpa_supplicant/src/ap\utils.c **** #ifdef CONFIG_FST
  65:C:/Users/stapi/OneDrive/Desktop/GD32VW553/V1_MQTT_OK/GD32VW55X_Wifi_BLE_SDK/GD32VW55x_RELEASE_V1.0.2/MSDK/wpa_supplicant/src/ap\utils.c **** 		/* Don't prune STAs belong to same FST */
  66:C:/Users/stapi/OneDrive/Desktop/GD32VW553/V1_MQTT_OK/GD32VW55X_Wifi_BLE_SDK/GD32VW55x_RELEASE_V1.0.2/MSDK/wpa_supplicant/src/ap\utils.c **** 		if (ohapd->iface->fst &&
  67:C:/Users/stapi/OneDrive/Desktop/GD32VW553/V1_MQTT_OK/GD32VW55X_Wifi_BLE_SDK/GD32VW55x_RELEASE_V1.0.2/MSDK/wpa_supplicant/src/ap\utils.c **** 		    data->hapd->iface->fst &&
  68:C:/Users/stapi/OneDrive/Desktop/GD32VW553/V1_MQTT_OK/GD32VW55X_Wifi_BLE_SDK/GD32VW55x_RELEASE_V1.0.2/MSDK/wpa_supplicant/src/ap\utils.c **** 		    fst_are_ifaces_aggregated(ohapd->iface->fst,
  69:C:/Users/stapi/OneDrive/Desktop/GD32VW553/V1_MQTT_OK/GD32VW55X_Wifi_BLE_SDK/GD32VW55x_RELEASE_V1.0.2/MSDK/wpa_supplicant/src/ap\utils.c **** 					      data->hapd->iface->fst))
  70:C:/Users/stapi/OneDrive/Desktop/GD32VW553/V1_MQTT_OK/GD32VW55X_Wifi_BLE_SDK/GD32VW55x_RELEASE_V1.0.2/MSDK/wpa_supplicant/src/ap\utils.c **** 			continue;
  71:C:/Users/stapi/OneDrive/Desktop/GD32VW553/V1_MQTT_OK/GD32VW55X_Wifi_BLE_SDK/GD32VW55x_RELEASE_V1.0.2/MSDK/wpa_supplicant/src/ap\utils.c **** #endif /* CONFIG_FST */
  72:C:/Users/stapi/OneDrive/Desktop/GD32VW553/V1_MQTT_OK/GD32VW55X_Wifi_BLE_SDK/GD32VW55x_RELEASE_V1.0.2/MSDK/wpa_supplicant/src/ap\utils.c **** 		osta = ap_get_sta(ohapd, data->addr);
  73:C:/Users/stapi/OneDrive/Desktop/GD32VW553/V1_MQTT_OK/GD32VW55X_Wifi_BLE_SDK/GD32VW55x_RELEASE_V1.0.2/MSDK/wpa_supplicant/src/ap\utils.c **** 		if (!osta)
  74:C:/Users/stapi/OneDrive/Desktop/GD32VW553/V1_MQTT_OK/GD32VW55X_Wifi_BLE_SDK/GD32VW55x_RELEASE_V1.0.2/MSDK/wpa_supplicant/src/ap\utils.c **** 			continue;
  75:C:/Users/stapi/OneDrive/Desktop/GD32VW553/V1_MQTT_OK/GD32VW55X_Wifi_BLE_SDK/GD32VW55x_RELEASE_V1.0.2/MSDK/wpa_supplicant/src/ap\utils.c **** 
  76:C:/Users/stapi/OneDrive/Desktop/GD32VW553/V1_MQTT_OK/GD32VW55X_Wifi_BLE_SDK/GD32VW55x_RELEASE_V1.0.2/MSDK/wpa_supplicant/src/ap\utils.c **** 		wpa_printf(MSG_INFO, "%s: Prune association for " MACSTR,
  45              		.loc 1 76 3
  46 0010 B70A0000 		lui	s5,%hi(.LC0)
  47              	.LVL2:
  48              	.L2:
  56:C:/Users/stapi/OneDrive/Desktop/GD32VW553/V1_MQTT_OK/GD32VW55X_Wifi_BLE_SDK/GD32VW55x_RELEASE_V1.0.2/MSDK/wpa_supplicant/src/ap\utils.c **** 		ohapd = iface->bss[j];
  49              		.loc 1 56 14 is_stmt 1 discriminator 1
  56:C:/Users/stapi/OneDrive/Desktop/GD32VW553/V1_MQTT_OK/GD32VW55X_Wifi_BLE_SDK/GD32VW55x_RELEASE_V1.0.2/MSDK/wpa_supplicant/src/ap\utils.c **** 		ohapd = iface->bss[j];
  50              		.loc 1 56 2 is_stmt 0 discriminator 1
  51 0014 83274902 		lw	a5,36(s2)
  52 0018 63E8F400 		bgtu	a5,s1,.L6
  77:C:/Users/stapi/OneDrive/Desktop/GD32VW553/V1_MQTT_OK/GD32VW55X_Wifi_BLE_SDK/GD32VW55x_RELEASE_V1.0.2/MSDK/wpa_supplicant/src/ap\utils.c **** 			   ohapd->conf->iface, MAC2STR(osta->addr));
  78:C:/Users/stapi/OneDrive/Desktop/GD32VW553/V1_MQTT_OK/GD32VW55X_Wifi_BLE_SDK/GD32VW55x_RELEASE_V1.0.2/MSDK/wpa_supplicant/src/ap\utils.c **** 		ap_sta_disassociate(ohapd, osta, WLAN_REASON_UNSPECIFIED);
  79:C:/Users/stapi/OneDrive/Desktop/GD32VW553/V1_MQTT_OK/GD32VW55X_Wifi_BLE_SDK/GD32VW55x_RELEASE_V1.0.2/MSDK/wpa_supplicant/src/ap\utils.c **** 	}
  80:C:/Users/stapi/OneDrive/Desktop/GD32VW553/V1_MQTT_OK/GD32VW55X_Wifi_BLE_SDK/GD32VW55x_RELEASE_V1.0.2/MSDK/wpa_supplicant/src/ap\utils.c **** 
  81:C:/Users/stapi/OneDrive/Desktop/GD32VW553/V1_MQTT_OK/GD32VW55X_Wifi_BLE_SDK/GD32VW55x_RELEASE_V1.0.2/MSDK/wpa_supplicant/src/ap\utils.c **** 	return 0;
  53              		.loc 1 81 2 is_stmt 1
  82:C:/Users/stapi/OneDrive/Desktop/GD32VW553/V1_MQTT_OK/GD32VW55X_Wifi_BLE_SDK/GD32VW55x_RELEASE_V1.0.2/MSDK/wpa_supplicant/src/ap\utils.c **** }
  54              		.loc 1 82 1 is_stmt 0
  55 001c 0145     		li	a0,0
  56 001e 4101     		addi	sp,sp,16
  57              		.cfi_remember_state
  58              		.cfi_def_cfa_offset 0
  59 0020 17030000 		tail	__riscv_restore_6
  59      67000300 
  60              		.cfi_restore 21
  61              		.cfi_restore 20
  62              		.cfi_restore 19
  63              		.cfi_restore 18
  64              		.cfi_restore 9
  65              		.cfi_restore 8
  66              		.cfi_restore 1
  67              		.cfi_def_cfa_offset -32
  68              	.L6:
  69              		.cfi_restore_state
  57:C:/Users/stapi/OneDrive/Desktop/GD32VW553/V1_MQTT_OK/GD32VW55X_Wifi_BLE_SDK/GD32VW55x_RELEASE_V1.0.2/MSDK/wpa_supplicant/src/ap\utils.c **** 		if (ohapd == data->hapd)
  70              		.loc 1 57 3 is_stmt 1
  57:C:/Users/stapi/OneDrive/Desktop/GD32VW553/V1_MQTT_OK/GD32VW55X_Wifi_BLE_SDK/GD32VW55x_RELEASE_V1.0.2/MSDK/wpa_supplicant/src/ap\utils.c **** 		if (ohapd == data->hapd)
  71              		.loc 1 57 9 is_stmt 0
  72 0028 83278902 		lw	a5,40(s2)
  73 002c B3C7F420 		sh2add	a5,s1,a5
  74 0030 03AA0700 		lw	s4,0(a5)
  75              	.LVL3:
  58:C:/Users/stapi/OneDrive/Desktop/GD32VW553/V1_MQTT_OK/GD32VW55X_Wifi_BLE_SDK/GD32VW55x_RELEASE_V1.0.2/MSDK/wpa_supplicant/src/ap\utils.c **** 			continue;
  76              		.loc 1 58 3 is_stmt 1
  58:C:/Users/stapi/OneDrive/Desktop/GD32VW553/V1_MQTT_OK/GD32VW55X_Wifi_BLE_SDK/GD32VW55x_RELEASE_V1.0.2/MSDK/wpa_supplicant/src/ap\utils.c **** 			continue;
  77              		.loc 1 58 6 is_stmt 0
  78 0034 83A70900 		lw	a5,0(s3)
  79 0038 63884705 		beq	a5,s4,.L4
  72:C:/Users/stapi/OneDrive/Desktop/GD32VW553/V1_MQTT_OK/GD32VW55X_Wifi_BLE_SDK/GD32VW55x_RELEASE_V1.0.2/MSDK/wpa_supplicant/src/ap\utils.c **** 		if (!osta)
  80              		.loc 1 72 3 is_stmt 1
  72:C:/Users/stapi/OneDrive/Desktop/GD32VW553/V1_MQTT_OK/GD32VW55X_Wifi_BLE_SDK/GD32VW55x_RELEASE_V1.0.2/MSDK/wpa_supplicant/src/ap\utils.c **** 		if (!osta)
  81              		.loc 1 72 10 is_stmt 0
  82 003c 83A54900 		lw	a1,4(s3)
  83 0040 5285     		mv	a0,s4
  84 0042 97000000 		call	ap_get_sta
  84      E7800000 
  85              	.LVL4:
  86 004a 2A84     		mv	s0,a0
  87              	.LVL5:
  73:C:/Users/stapi/OneDrive/Desktop/GD32VW553/V1_MQTT_OK/GD32VW55X_Wifi_BLE_SDK/GD32VW55x_RELEASE_V1.0.2/MSDK/wpa_supplicant/src/ap\utils.c **** 			continue;
  88              		.loc 1 73 3 is_stmt 1
  73:C:/Users/stapi/OneDrive/Desktop/GD32VW553/V1_MQTT_OK/GD32VW55X_Wifi_BLE_SDK/GD32VW55x_RELEASE_V1.0.2/MSDK/wpa_supplicant/src/ap\utils.c **** 			continue;
  89              		.loc 1 73 6 is_stmt 0
  90 004c 15CD     		beq	a0,zero,.L4
  76:C:/Users/stapi/OneDrive/Desktop/GD32VW553/V1_MQTT_OK/GD32VW55X_Wifi_BLE_SDK/GD32VW55x_RELEASE_V1.0.2/MSDK/wpa_supplicant/src/ap\utils.c **** 			   ohapd->conf->iface, MAC2STR(osta->addr));
  91              		.loc 1 76 3 is_stmt 1
  92 004e 8345D500 		lbu	a1,13(a0)
  93 0052 8348C500 		lbu	a7,12(a0)
  94 0056 0348B500 		lbu	a6,11(a0)
  95 005a 8347A500 		lbu	a5,10(a0)
  96 005e 03479500 		lbu	a4,9(a0)
  97 0062 83468500 		lbu	a3,8(a0)
  98 0066 03268A00 		lw	a2,8(s4)
  99 006a 0D45     		li	a0,3
 100 006c 2EC0     		sw	a1,0(sp)
 101 006e 93850A00 		addi	a1,s5,%lo(.LC0)
 102 0072 97000000 		call	wpa_printf
 102      E7800000 
 103              	.LVL6:
  78:C:/Users/stapi/OneDrive/Desktop/GD32VW553/V1_MQTT_OK/GD32VW55X_Wifi_BLE_SDK/GD32VW55x_RELEASE_V1.0.2/MSDK/wpa_supplicant/src/ap\utils.c **** 	}
 104              		.loc 1 78 3
 105 007a 0546     		li	a2,1
 106 007c A285     		mv	a1,s0
 107 007e 5285     		mv	a0,s4
 108 0080 97000000 		call	ap_sta_disassociate
 108      E7800000 
 109              	.LVL7:
 110              	.L4:
  56:C:/Users/stapi/OneDrive/Desktop/GD32VW553/V1_MQTT_OK/GD32VW55X_Wifi_BLE_SDK/GD32VW55x_RELEASE_V1.0.2/MSDK/wpa_supplicant/src/ap\utils.c **** 		ohapd = iface->bss[j];
 111              		.loc 1 56 34 discriminator 2
  56:C:/Users/stapi/OneDrive/Desktop/GD32VW553/V1_MQTT_OK/GD32VW55X_Wifi_BLE_SDK/GD32VW55x_RELEASE_V1.0.2/MSDK/wpa_supplicant/src/ap\utils.c **** 		ohapd = iface->bss[j];
 112              		.loc 1 56 35 is_stmt 0 discriminator 2
 113 0088 8504     		addi	s1,s1,1
 114              	.LVL8:
 115 008a 69B7     		j	.L2
 116              		.cfi_endproc
 117              	.LFE138:
 119              		.section	.text.hostapd_register_probereq_cb,"ax",@progbits
 120              		.align	1
 121              		.globl	hostapd_register_probereq_cb
 123              	hostapd_register_probereq_cb:
 124              	.LFB137:
  25:C:/Users/stapi/OneDrive/Desktop/GD32VW553/V1_MQTT_OK/GD32VW55X_Wifi_BLE_SDK/GD32VW55x_RELEASE_V1.0.2/MSDK/wpa_supplicant/src/ap\utils.c **** 	struct hostapd_probereq_cb *n;
 125              		.loc 1 25 1 is_stmt 1
 126              		.cfi_startproc
 127              	.LVL9:
 128 0000 17030000 		call	t0,__riscv_save_3
 128      E7020300 
 129              		.cfi_offset 18, -16
 130              		.cfi_offset 9, -12
 131              		.cfi_offset 8, -8
 132              		.cfi_offset 1, -4
 133              		.cfi_def_cfa_offset 16
  26:C:/Users/stapi/OneDrive/Desktop/GD32VW553/V1_MQTT_OK/GD32VW55X_Wifi_BLE_SDK/GD32VW55x_RELEASE_V1.0.2/MSDK/wpa_supplicant/src/ap\utils.c **** 
 134              		.loc 1 26 2
  28:C:/Users/stapi/OneDrive/Desktop/GD32VW553/V1_MQTT_OK/GD32VW55X_Wifi_BLE_SDK/GD32VW55x_RELEASE_V1.0.2/MSDK/wpa_supplicant/src/ap\utils.c **** 			     sizeof(struct hostapd_probereq_cb));
 135              		.loc 1 28 2
  25:C:/Users/stapi/OneDrive/Desktop/GD32VW553/V1_MQTT_OK/GD32VW55X_Wifi_BLE_SDK/GD32VW55x_RELEASE_V1.0.2/MSDK/wpa_supplicant/src/ap\utils.c **** 	struct hostapd_probereq_cb *n;
 136              		.loc 1 25 1 is_stmt 0
 137 0008 2A84     		mv	s0,a0
  28:C:/Users/stapi/OneDrive/Desktop/GD32VW553/V1_MQTT_OK/GD32VW55X_Wifi_BLE_SDK/GD32VW55x_RELEASE_V1.0.2/MSDK/wpa_supplicant/src/ap\utils.c **** 			     sizeof(struct hostapd_probereq_cb));
 138              		.loc 1 28 6
 139 000a 8327045B 		lw	a5,1456(s0)
  28:C:/Users/stapi/OneDrive/Desktop/GD32VW553/V1_MQTT_OK/GD32VW55X_Wifi_BLE_SDK/GD32VW55x_RELEASE_V1.0.2/MSDK/wpa_supplicant/src/ap\utils.c **** 			     sizeof(struct hostapd_probereq_cb));
 140              		.loc 1 28 27
 141 000e 0325C55A 		lw	a0,1452(a0)
 142              	.LVL10:
  28:C:/Users/stapi/OneDrive/Desktop/GD32VW553/V1_MQTT_OK/GD32VW55X_Wifi_BLE_SDK/GD32VW55x_RELEASE_V1.0.2/MSDK/wpa_supplicant/src/ap\utils.c **** 			     sizeof(struct hostapd_probereq_cb));
 143              		.loc 1 28 6
 144 0012 8507     		addi	a5,a5,1
 145              	.LVL11:
 146              	.LBB4:
 147              	.LBB5:
 148              		.file 2 "..\\..\\..\\..\\wpa_supplicant\\src\\utils/os.h"
   1:..\..\..\..\wpa_supplicant\src\utils/os.h **** /*
   2:..\..\..\..\wpa_supplicant\src\utils/os.h ****  * OS specific functions
   3:..\..\..\..\wpa_supplicant\src\utils/os.h ****  * Copyright (c) 2005-2009, Jouni Malinen <j@w1.fi>
   4:..\..\..\..\wpa_supplicant\src\utils/os.h ****  *
   5:..\..\..\..\wpa_supplicant\src\utils/os.h ****  * This software may be distributed under the terms of the BSD license.
   6:..\..\..\..\wpa_supplicant\src\utils/os.h ****  * See README for more details.
   7:..\..\..\..\wpa_supplicant\src\utils/os.h ****  */
   8:..\..\..\..\wpa_supplicant\src\utils/os.h **** 
   9:..\..\..\..\wpa_supplicant\src\utils/os.h **** #ifndef OS_H
  10:..\..\..\..\wpa_supplicant\src\utils/os.h **** #define OS_H
  11:..\..\..\..\wpa_supplicant\src\utils/os.h **** 
  12:..\..\..\..\wpa_supplicant\src\utils/os.h **** typedef long os_time_t;
  13:..\..\..\..\wpa_supplicant\src\utils/os.h **** 
  14:..\..\..\..\wpa_supplicant\src\utils/os.h **** /**
  15:..\..\..\..\wpa_supplicant\src\utils/os.h ****  * os_sleep - Sleep (sec, usec)
  16:..\..\..\..\wpa_supplicant\src\utils/os.h ****  * @sec: Number of seconds to sleep
  17:..\..\..\..\wpa_supplicant\src\utils/os.h ****  * @usec: Number of microseconds to sleep
  18:..\..\..\..\wpa_supplicant\src\utils/os.h ****  */
  19:..\..\..\..\wpa_supplicant\src\utils/os.h **** void os_sleep(os_time_t sec, os_time_t usec);
  20:..\..\..\..\wpa_supplicant\src\utils/os.h **** 
  21:..\..\..\..\wpa_supplicant\src\utils/os.h **** struct os_time {
  22:..\..\..\..\wpa_supplicant\src\utils/os.h **** 	os_time_t sec;
  23:..\..\..\..\wpa_supplicant\src\utils/os.h **** 	os_time_t usec;
  24:..\..\..\..\wpa_supplicant\src\utils/os.h **** };
  25:..\..\..\..\wpa_supplicant\src\utils/os.h **** 
  26:..\..\..\..\wpa_supplicant\src\utils/os.h **** struct os_reltime {
  27:..\..\..\..\wpa_supplicant\src\utils/os.h **** 	os_time_t sec;
  28:..\..\..\..\wpa_supplicant\src\utils/os.h **** 	os_time_t usec;
  29:..\..\..\..\wpa_supplicant\src\utils/os.h **** };
  30:..\..\..\..\wpa_supplicant\src\utils/os.h **** 
  31:..\..\..\..\wpa_supplicant\src\utils/os.h **** /**
  32:..\..\..\..\wpa_supplicant\src\utils/os.h ****  * os_get_time - Get current time (sec, usec)
  33:..\..\..\..\wpa_supplicant\src\utils/os.h ****  * @t: Pointer to buffer for the time
  34:..\..\..\..\wpa_supplicant\src\utils/os.h ****  * Returns: 0 on success, -1 on failure
  35:..\..\..\..\wpa_supplicant\src\utils/os.h ****  */
  36:..\..\..\..\wpa_supplicant\src\utils/os.h **** int os_get_time(struct os_time *t);
  37:..\..\..\..\wpa_supplicant\src\utils/os.h **** 
  38:..\..\..\..\wpa_supplicant\src\utils/os.h **** /**
  39:..\..\..\..\wpa_supplicant\src\utils/os.h ****  * os_get_reltime - Get relative time (sec, usec)
  40:..\..\..\..\wpa_supplicant\src\utils/os.h ****  * @t: Pointer to buffer for the time
  41:..\..\..\..\wpa_supplicant\src\utils/os.h ****  * Returns: 0 on success, -1 on failure
  42:..\..\..\..\wpa_supplicant\src\utils/os.h ****  */
  43:..\..\..\..\wpa_supplicant\src\utils/os.h **** int os_get_reltime(struct os_reltime *t);
  44:..\..\..\..\wpa_supplicant\src\utils/os.h **** 
  45:..\..\..\..\wpa_supplicant\src\utils/os.h **** 
  46:..\..\..\..\wpa_supplicant\src\utils/os.h **** /* Helpers for handling struct os_time */
  47:..\..\..\..\wpa_supplicant\src\utils/os.h **** 
  48:..\..\..\..\wpa_supplicant\src\utils/os.h **** static inline int os_time_before(struct os_time *a, struct os_time *b)
  49:..\..\..\..\wpa_supplicant\src\utils/os.h **** {
  50:..\..\..\..\wpa_supplicant\src\utils/os.h **** 	return (a->sec < b->sec) ||
  51:..\..\..\..\wpa_supplicant\src\utils/os.h **** 	       (a->sec == b->sec && a->usec < b->usec);
  52:..\..\..\..\wpa_supplicant\src\utils/os.h **** }
  53:..\..\..\..\wpa_supplicant\src\utils/os.h **** 
  54:..\..\..\..\wpa_supplicant\src\utils/os.h **** 
  55:..\..\..\..\wpa_supplicant\src\utils/os.h **** static inline void os_time_sub(struct os_time *a, struct os_time *b,
  56:..\..\..\..\wpa_supplicant\src\utils/os.h **** 			       struct os_time *res)
  57:..\..\..\..\wpa_supplicant\src\utils/os.h **** {
  58:..\..\..\..\wpa_supplicant\src\utils/os.h **** 	res->sec = a->sec - b->sec;
  59:..\..\..\..\wpa_supplicant\src\utils/os.h **** 	res->usec = a->usec - b->usec;
  60:..\..\..\..\wpa_supplicant\src\utils/os.h **** 	if (res->usec < 0) {
  61:..\..\..\..\wpa_supplicant\src\utils/os.h **** 		res->sec--;
  62:..\..\..\..\wpa_supplicant\src\utils/os.h **** 		res->usec += 1000000;
  63:..\..\..\..\wpa_supplicant\src\utils/os.h **** 	}
  64:..\..\..\..\wpa_supplicant\src\utils/os.h **** }
  65:..\..\..\..\wpa_supplicant\src\utils/os.h **** 
  66:..\..\..\..\wpa_supplicant\src\utils/os.h **** 
  67:..\..\..\..\wpa_supplicant\src\utils/os.h **** /* Helpers for handling struct os_reltime */
  68:..\..\..\..\wpa_supplicant\src\utils/os.h **** 
  69:..\..\..\..\wpa_supplicant\src\utils/os.h **** static inline int os_reltime_before(struct os_reltime *a,
  70:..\..\..\..\wpa_supplicant\src\utils/os.h **** 				    struct os_reltime *b)
  71:..\..\..\..\wpa_supplicant\src\utils/os.h **** {
  72:..\..\..\..\wpa_supplicant\src\utils/os.h **** 	return (a->sec < b->sec) ||
  73:..\..\..\..\wpa_supplicant\src\utils/os.h **** 	       (a->sec == b->sec && a->usec < b->usec);
  74:..\..\..\..\wpa_supplicant\src\utils/os.h **** }
  75:..\..\..\..\wpa_supplicant\src\utils/os.h **** 
  76:..\..\..\..\wpa_supplicant\src\utils/os.h **** 
  77:..\..\..\..\wpa_supplicant\src\utils/os.h **** static inline void os_reltime_sub(struct os_reltime *a, struct os_reltime *b,
  78:..\..\..\..\wpa_supplicant\src\utils/os.h **** 				  struct os_reltime *res)
  79:..\..\..\..\wpa_supplicant\src\utils/os.h **** {
  80:..\..\..\..\wpa_supplicant\src\utils/os.h **** 	res->sec = a->sec - b->sec;
  81:..\..\..\..\wpa_supplicant\src\utils/os.h **** 	res->usec = a->usec - b->usec;
  82:..\..\..\..\wpa_supplicant\src\utils/os.h **** 	if (res->usec < 0) {
  83:..\..\..\..\wpa_supplicant\src\utils/os.h **** 		res->sec--;
  84:..\..\..\..\wpa_supplicant\src\utils/os.h **** 		res->usec += 1000000;
  85:..\..\..\..\wpa_supplicant\src\utils/os.h **** 	}
  86:..\..\..\..\wpa_supplicant\src\utils/os.h **** }
  87:..\..\..\..\wpa_supplicant\src\utils/os.h **** 
  88:..\..\..\..\wpa_supplicant\src\utils/os.h **** 
  89:..\..\..\..\wpa_supplicant\src\utils/os.h **** static inline void os_reltime_age(struct os_reltime *start,
  90:..\..\..\..\wpa_supplicant\src\utils/os.h **** 				  struct os_reltime *age)
  91:..\..\..\..\wpa_supplicant\src\utils/os.h **** {
  92:..\..\..\..\wpa_supplicant\src\utils/os.h **** 	struct os_reltime now;
  93:..\..\..\..\wpa_supplicant\src\utils/os.h **** 
  94:..\..\..\..\wpa_supplicant\src\utils/os.h **** 	os_get_reltime(&now);
  95:..\..\..\..\wpa_supplicant\src\utils/os.h **** 	os_reltime_sub(&now, start, age);
  96:..\..\..\..\wpa_supplicant\src\utils/os.h **** }
  97:..\..\..\..\wpa_supplicant\src\utils/os.h **** 
  98:..\..\..\..\wpa_supplicant\src\utils/os.h **** 
  99:..\..\..\..\wpa_supplicant\src\utils/os.h **** static inline int os_reltime_expired(struct os_reltime *now,
 100:..\..\..\..\wpa_supplicant\src\utils/os.h **** 				     struct os_reltime *ts,
 101:..\..\..\..\wpa_supplicant\src\utils/os.h **** 				     os_time_t timeout_secs)
 102:..\..\..\..\wpa_supplicant\src\utils/os.h **** {
 103:..\..\..\..\wpa_supplicant\src\utils/os.h **** 	struct os_reltime age;
 104:..\..\..\..\wpa_supplicant\src\utils/os.h **** 
 105:..\..\..\..\wpa_supplicant\src\utils/os.h **** 	os_reltime_sub(now, ts, &age);
 106:..\..\..\..\wpa_supplicant\src\utils/os.h **** 	return (age.sec > timeout_secs) ||
 107:..\..\..\..\wpa_supplicant\src\utils/os.h **** 	       (age.sec == timeout_secs && age.usec > 0);
 108:..\..\..\..\wpa_supplicant\src\utils/os.h **** }
 109:..\..\..\..\wpa_supplicant\src\utils/os.h **** 
 110:..\..\..\..\wpa_supplicant\src\utils/os.h **** 
 111:..\..\..\..\wpa_supplicant\src\utils/os.h **** static inline int os_reltime_initialized(struct os_reltime *t)
 112:..\..\..\..\wpa_supplicant\src\utils/os.h **** {
 113:..\..\..\..\wpa_supplicant\src\utils/os.h **** 	return t->sec != 0 || t->usec != 0;
 114:..\..\..\..\wpa_supplicant\src\utils/os.h **** }
 115:..\..\..\..\wpa_supplicant\src\utils/os.h **** 
 116:..\..\..\..\wpa_supplicant\src\utils/os.h **** 
 117:..\..\..\..\wpa_supplicant\src\utils/os.h **** /**
 118:..\..\..\..\wpa_supplicant\src\utils/os.h ****  * os_mktime - Convert broken-down time into seconds since 1970-01-01
 119:..\..\..\..\wpa_supplicant\src\utils/os.h ****  * @year: Four digit year
 120:..\..\..\..\wpa_supplicant\src\utils/os.h ****  * @month: Month (1 .. 12)
 121:..\..\..\..\wpa_supplicant\src\utils/os.h ****  * @day: Day of month (1 .. 31)
 122:..\..\..\..\wpa_supplicant\src\utils/os.h ****  * @hour: Hour (0 .. 23)
 123:..\..\..\..\wpa_supplicant\src\utils/os.h ****  * @min: Minute (0 .. 59)
 124:..\..\..\..\wpa_supplicant\src\utils/os.h ****  * @sec: Second (0 .. 60)
 125:..\..\..\..\wpa_supplicant\src\utils/os.h ****  * @t: Buffer for returning calendar time representation (seconds since
 126:..\..\..\..\wpa_supplicant\src\utils/os.h ****  * 1970-01-01 00:00:00)
 127:..\..\..\..\wpa_supplicant\src\utils/os.h ****  * Returns: 0 on success, -1 on failure
 128:..\..\..\..\wpa_supplicant\src\utils/os.h ****  *
 129:..\..\..\..\wpa_supplicant\src\utils/os.h ****  * Note: The result is in seconds from Epoch, i.e., in UTC, not in local time
 130:..\..\..\..\wpa_supplicant\src\utils/os.h ****  * which is used by POSIX mktime().
 131:..\..\..\..\wpa_supplicant\src\utils/os.h ****  */
 132:..\..\..\..\wpa_supplicant\src\utils/os.h **** int os_mktime(int year, int month, int day, int hour, int min, int sec,
 133:..\..\..\..\wpa_supplicant\src\utils/os.h **** 	      os_time_t *t);
 134:..\..\..\..\wpa_supplicant\src\utils/os.h **** 
 135:..\..\..\..\wpa_supplicant\src\utils/os.h **** struct os_tm {
 136:..\..\..\..\wpa_supplicant\src\utils/os.h **** 	int sec; /* 0..59 or 60 for leap seconds */
 137:..\..\..\..\wpa_supplicant\src\utils/os.h **** 	int min; /* 0..59 */
 138:..\..\..\..\wpa_supplicant\src\utils/os.h **** 	int hour; /* 0..23 */
 139:..\..\..\..\wpa_supplicant\src\utils/os.h **** 	int day; /* 1..31 */
 140:..\..\..\..\wpa_supplicant\src\utils/os.h **** 	int month; /* 1..12 */
 141:..\..\..\..\wpa_supplicant\src\utils/os.h **** 	int year; /* Four digit year */
 142:..\..\..\..\wpa_supplicant\src\utils/os.h **** };
 143:..\..\..\..\wpa_supplicant\src\utils/os.h **** 
 144:..\..\..\..\wpa_supplicant\src\utils/os.h **** int os_gmtime(os_time_t t, struct os_tm *tm);
 145:..\..\..\..\wpa_supplicant\src\utils/os.h **** 
 146:..\..\..\..\wpa_supplicant\src\utils/os.h **** /**
 147:..\..\..\..\wpa_supplicant\src\utils/os.h ****  * os_daemonize - Run in the background (detach from the controlling terminal)
 148:..\..\..\..\wpa_supplicant\src\utils/os.h ****  * @pid_file: File name to write the process ID to or %NULL to skip this
 149:..\..\..\..\wpa_supplicant\src\utils/os.h ****  * Returns: 0 on success, -1 on failure
 150:..\..\..\..\wpa_supplicant\src\utils/os.h ****  */
 151:..\..\..\..\wpa_supplicant\src\utils/os.h **** int os_daemonize(const char *pid_file);
 152:..\..\..\..\wpa_supplicant\src\utils/os.h **** 
 153:..\..\..\..\wpa_supplicant\src\utils/os.h **** /**
 154:..\..\..\..\wpa_supplicant\src\utils/os.h ****  * os_daemonize_terminate - Stop running in the background (remove pid file)
 155:..\..\..\..\wpa_supplicant\src\utils/os.h ****  * @pid_file: File name to write the process ID to or %NULL to skip this
 156:..\..\..\..\wpa_supplicant\src\utils/os.h ****  */
 157:..\..\..\..\wpa_supplicant\src\utils/os.h **** void os_daemonize_terminate(const char *pid_file);
 158:..\..\..\..\wpa_supplicant\src\utils/os.h **** 
 159:..\..\..\..\wpa_supplicant\src\utils/os.h **** /**
 160:..\..\..\..\wpa_supplicant\src\utils/os.h ****  * os_get_random - Get cryptographically strong pseudo random data
 161:..\..\..\..\wpa_supplicant\src\utils/os.h ****  * @buf: Buffer for pseudo random data
 162:..\..\..\..\wpa_supplicant\src\utils/os.h ****  * @len: Length of the buffer
 163:..\..\..\..\wpa_supplicant\src\utils/os.h ****  * Returns: 0 on success, -1 on failure
 164:..\..\..\..\wpa_supplicant\src\utils/os.h ****  */
 165:..\..\..\..\wpa_supplicant\src\utils/os.h **** int os_get_random(unsigned char *buf, size_t len);
 166:..\..\..\..\wpa_supplicant\src\utils/os.h **** 
 167:..\..\..\..\wpa_supplicant\src\utils/os.h **** /**
 168:..\..\..\..\wpa_supplicant\src\utils/os.h ****  * os_random - Get pseudo random value (not necessarily very strong)
 169:..\..\..\..\wpa_supplicant\src\utils/os.h ****  * Returns: Pseudo random value
 170:..\..\..\..\wpa_supplicant\src\utils/os.h ****  */
 171:..\..\..\..\wpa_supplicant\src\utils/os.h **** unsigned long os_random(void);
 172:..\..\..\..\wpa_supplicant\src\utils/os.h **** 
 173:..\..\..\..\wpa_supplicant\src\utils/os.h **** /**
 174:..\..\..\..\wpa_supplicant\src\utils/os.h ****  * os_rel2abs_path - Get an absolute path for a file
 175:..\..\..\..\wpa_supplicant\src\utils/os.h ****  * @rel_path: Relative path to a file
 176:..\..\..\..\wpa_supplicant\src\utils/os.h ****  * Returns: Absolute path for the file or %NULL on failure
 177:..\..\..\..\wpa_supplicant\src\utils/os.h ****  *
 178:..\..\..\..\wpa_supplicant\src\utils/os.h ****  * This function tries to convert a relative path of a file to an absolute path
 179:..\..\..\..\wpa_supplicant\src\utils/os.h ****  * in order for the file to be found even if current working directory has
 180:..\..\..\..\wpa_supplicant\src\utils/os.h ****  * changed. The returned value is allocated and caller is responsible for
 181:..\..\..\..\wpa_supplicant\src\utils/os.h ****  * freeing it. It is acceptable to just return the same path in an allocated
 182:..\..\..\..\wpa_supplicant\src\utils/os.h ****  * buffer, e.g., return strdup(rel_path). This function is only used to find
 183:..\..\..\..\wpa_supplicant\src\utils/os.h ****  * configuration files when os_daemonize() may have changed the current working
 184:..\..\..\..\wpa_supplicant\src\utils/os.h ****  * directory and relative path would be pointing to a different location.
 185:..\..\..\..\wpa_supplicant\src\utils/os.h ****  */
 186:..\..\..\..\wpa_supplicant\src\utils/os.h **** char * os_rel2abs_path(const char *rel_path);
 187:..\..\..\..\wpa_supplicant\src\utils/os.h **** 
 188:..\..\..\..\wpa_supplicant\src\utils/os.h **** /**
 189:..\..\..\..\wpa_supplicant\src\utils/os.h ****  * os_program_init - Program initialization (called at start)
 190:..\..\..\..\wpa_supplicant\src\utils/os.h ****  * Returns: 0 on success, -1 on failure
 191:..\..\..\..\wpa_supplicant\src\utils/os.h ****  *
 192:..\..\..\..\wpa_supplicant\src\utils/os.h ****  * This function is called when a programs starts. If there are any OS specific
 193:..\..\..\..\wpa_supplicant\src\utils/os.h ****  * processing that is needed, it can be placed here. It is also acceptable to
 194:..\..\..\..\wpa_supplicant\src\utils/os.h ****  * just return 0 if not special processing is needed.
 195:..\..\..\..\wpa_supplicant\src\utils/os.h ****  */
 196:..\..\..\..\wpa_supplicant\src\utils/os.h **** int os_program_init(void);
 197:..\..\..\..\wpa_supplicant\src\utils/os.h **** 
 198:..\..\..\..\wpa_supplicant\src\utils/os.h **** /**
 199:..\..\..\..\wpa_supplicant\src\utils/os.h ****  * os_program_deinit - Program deinitialization (called just before exit)
 200:..\..\..\..\wpa_supplicant\src\utils/os.h ****  *
 201:..\..\..\..\wpa_supplicant\src\utils/os.h ****  * This function is called just before a program exists. If there are any OS
 202:..\..\..\..\wpa_supplicant\src\utils/os.h ****  * specific processing, e.g., freeing resourced allocated in os_program_init(),
 203:..\..\..\..\wpa_supplicant\src\utils/os.h ****  * it should be done here. It is also acceptable for this function to do
 204:..\..\..\..\wpa_supplicant\src\utils/os.h ****  * nothing.
 205:..\..\..\..\wpa_supplicant\src\utils/os.h ****  */
 206:..\..\..\..\wpa_supplicant\src\utils/os.h **** void os_program_deinit(void);
 207:..\..\..\..\wpa_supplicant\src\utils/os.h **** 
 208:..\..\..\..\wpa_supplicant\src\utils/os.h **** /**
 209:..\..\..\..\wpa_supplicant\src\utils/os.h ****  * os_setenv - Set environment variable
 210:..\..\..\..\wpa_supplicant\src\utils/os.h ****  * @name: Name of the variable
 211:..\..\..\..\wpa_supplicant\src\utils/os.h ****  * @value: Value to set to the variable
 212:..\..\..\..\wpa_supplicant\src\utils/os.h ****  * @overwrite: Whether existing variable should be overwritten
 213:..\..\..\..\wpa_supplicant\src\utils/os.h ****  * Returns: 0 on success, -1 on error
 214:..\..\..\..\wpa_supplicant\src\utils/os.h ****  *
 215:..\..\..\..\wpa_supplicant\src\utils/os.h ****  * This function is only used for wpa_cli action scripts. OS wrapper does not
 216:..\..\..\..\wpa_supplicant\src\utils/os.h ****  * need to implement this if such functionality is not needed.
 217:..\..\..\..\wpa_supplicant\src\utils/os.h ****  */
 218:..\..\..\..\wpa_supplicant\src\utils/os.h **** int os_setenv(const char *name, const char *value, int overwrite);
 219:..\..\..\..\wpa_supplicant\src\utils/os.h **** 
 220:..\..\..\..\wpa_supplicant\src\utils/os.h **** /**
 221:..\..\..\..\wpa_supplicant\src\utils/os.h ****  * os_unsetenv - Delete environent variable
 222:..\..\..\..\wpa_supplicant\src\utils/os.h ****  * @name: Name of the variable
 223:..\..\..\..\wpa_supplicant\src\utils/os.h ****  * Returns: 0 on success, -1 on error
 224:..\..\..\..\wpa_supplicant\src\utils/os.h ****  *
 225:..\..\..\..\wpa_supplicant\src\utils/os.h ****  * This function is only used for wpa_cli action scripts. OS wrapper does not
 226:..\..\..\..\wpa_supplicant\src\utils/os.h ****  * need to implement this if such functionality is not needed.
 227:..\..\..\..\wpa_supplicant\src\utils/os.h ****  */
 228:..\..\..\..\wpa_supplicant\src\utils/os.h **** int os_unsetenv(const char *name);
 229:..\..\..\..\wpa_supplicant\src\utils/os.h **** 
 230:..\..\..\..\wpa_supplicant\src\utils/os.h **** /**
 231:..\..\..\..\wpa_supplicant\src\utils/os.h ****  * os_readfile - Read a file to an allocated memory buffer
 232:..\..\..\..\wpa_supplicant\src\utils/os.h ****  * @name: Name of the file to read
 233:..\..\..\..\wpa_supplicant\src\utils/os.h ****  * @len: For returning the length of the allocated buffer
 234:..\..\..\..\wpa_supplicant\src\utils/os.h ****  * Returns: Pointer to the allocated buffer or %NULL on failure
 235:..\..\..\..\wpa_supplicant\src\utils/os.h ****  *
 236:..\..\..\..\wpa_supplicant\src\utils/os.h ****  * This function allocates memory and reads the given file to this buffer. Both
 237:..\..\..\..\wpa_supplicant\src\utils/os.h ****  * binary and text files can be read with this function. The caller is
 238:..\..\..\..\wpa_supplicant\src\utils/os.h ****  * responsible for freeing the returned buffer with os_free().
 239:..\..\..\..\wpa_supplicant\src\utils/os.h ****  */
 240:..\..\..\..\wpa_supplicant\src\utils/os.h **** char * os_readfile(const char *name, size_t *len);
 241:..\..\..\..\wpa_supplicant\src\utils/os.h **** 
 242:..\..\..\..\wpa_supplicant\src\utils/os.h **** /**
 243:..\..\..\..\wpa_supplicant\src\utils/os.h ****  * os_file_exists - Check whether the specified file exists
 244:..\..\..\..\wpa_supplicant\src\utils/os.h ****  * @fname: Path and name of the file
 245:..\..\..\..\wpa_supplicant\src\utils/os.h ****  * Returns: 1 if the file exists or 0 if not
 246:..\..\..\..\wpa_supplicant\src\utils/os.h ****  */
 247:..\..\..\..\wpa_supplicant\src\utils/os.h **** int os_file_exists(const char *fname);
 248:..\..\..\..\wpa_supplicant\src\utils/os.h **** 
 249:..\..\..\..\wpa_supplicant\src\utils/os.h **** /**
 250:..\..\..\..\wpa_supplicant\src\utils/os.h ****  * os_fdatasync - Sync a file's (for a given stream) state with storage device
 251:..\..\..\..\wpa_supplicant\src\utils/os.h ****  * @stream: the stream to be flushed
 252:..\..\..\..\wpa_supplicant\src\utils/os.h ****  * Returns: 0 if the operation succeeded or -1 on failure
 253:..\..\..\..\wpa_supplicant\src\utils/os.h ****  */
 254:..\..\..\..\wpa_supplicant\src\utils/os.h **** int os_fdatasync(FILE *stream);
 255:..\..\..\..\wpa_supplicant\src\utils/os.h **** 
 256:..\..\..\..\wpa_supplicant\src\utils/os.h **** /**
 257:..\..\..\..\wpa_supplicant\src\utils/os.h ****  * os_zalloc - Allocate and zero memory
 258:..\..\..\..\wpa_supplicant\src\utils/os.h ****  * @size: Number of bytes to allocate
 259:..\..\..\..\wpa_supplicant\src\utils/os.h ****  * Returns: Pointer to allocated and zeroed memory or %NULL on failure
 260:..\..\..\..\wpa_supplicant\src\utils/os.h ****  *
 261:..\..\..\..\wpa_supplicant\src\utils/os.h ****  * Caller is responsible for freeing the returned buffer with os_free().
 262:..\..\..\..\wpa_supplicant\src\utils/os.h ****  */
 263:..\..\..\..\wpa_supplicant\src\utils/os.h **** void * os_zalloc(size_t size);
 264:..\..\..\..\wpa_supplicant\src\utils/os.h **** 
 265:..\..\..\..\wpa_supplicant\src\utils/os.h **** /**
 266:..\..\..\..\wpa_supplicant\src\utils/os.h ****  * os_calloc - Allocate and zero memory for an array
 267:..\..\..\..\wpa_supplicant\src\utils/os.h ****  * @nmemb: Number of members in the array
 268:..\..\..\..\wpa_supplicant\src\utils/os.h ****  * @size: Number of bytes in each member
 269:..\..\..\..\wpa_supplicant\src\utils/os.h ****  * Returns: Pointer to allocated and zeroed memory or %NULL on failure
 270:..\..\..\..\wpa_supplicant\src\utils/os.h ****  *
 271:..\..\..\..\wpa_supplicant\src\utils/os.h ****  * This function can be used as a wrapper for os_zalloc(nmemb * size) when an
 272:..\..\..\..\wpa_supplicant\src\utils/os.h ****  * allocation is used for an array. The main benefit over os_zalloc() is in
 273:..\..\..\..\wpa_supplicant\src\utils/os.h ****  * having an extra check to catch integer overflows in multiplication.
 274:..\..\..\..\wpa_supplicant\src\utils/os.h ****  *
 275:..\..\..\..\wpa_supplicant\src\utils/os.h ****  * Caller is responsible for freeing the returned buffer with os_free().
 276:..\..\..\..\wpa_supplicant\src\utils/os.h ****  */
 277:..\..\..\..\wpa_supplicant\src\utils/os.h **** static inline void * os_calloc(size_t nmemb, size_t size)
 278:..\..\..\..\wpa_supplicant\src\utils/os.h **** {
 279:..\..\..\..\wpa_supplicant\src\utils/os.h **** 	if (size && nmemb > (~(size_t) 0) / size)
 280:..\..\..\..\wpa_supplicant\src\utils/os.h **** 		return NULL;
 281:..\..\..\..\wpa_supplicant\src\utils/os.h **** 	return os_zalloc(nmemb * size);
 282:..\..\..\..\wpa_supplicant\src\utils/os.h **** }
 283:..\..\..\..\wpa_supplicant\src\utils/os.h **** 
 284:..\..\..\..\wpa_supplicant\src\utils/os.h **** 
 285:..\..\..\..\wpa_supplicant\src\utils/os.h **** /*
 286:..\..\..\..\wpa_supplicant\src\utils/os.h ****  * The following functions are wrapper for standard ANSI C or POSIX functions.
 287:..\..\..\..\wpa_supplicant\src\utils/os.h ****  * By default, they are just defined to use the standard function name and no
 288:..\..\..\..\wpa_supplicant\src\utils/os.h ****  * os_*.c implementation is needed for them. This avoids extra function calls
 289:..\..\..\..\wpa_supplicant\src\utils/os.h ****  * by allowing the C pre-processor take care of the function name mapping.
 290:..\..\..\..\wpa_supplicant\src\utils/os.h ****  *
 291:..\..\..\..\wpa_supplicant\src\utils/os.h ****  * If the target system uses a C library that does not provide these functions,
 292:..\..\..\..\wpa_supplicant\src\utils/os.h ****  * build_config.h can be used to define the wrappers to use a different
 293:..\..\..\..\wpa_supplicant\src\utils/os.h ****  * function name. This can be done on function-by-function basis since the
 294:..\..\..\..\wpa_supplicant\src\utils/os.h ****  * defines here are only used if build_config.h does not define the os_* name.
 295:..\..\..\..\wpa_supplicant\src\utils/os.h ****  * If needed, os_*.c file can be used to implement the functions that are not
 296:..\..\..\..\wpa_supplicant\src\utils/os.h ****  * included in the C library on the target system. Alternatively,
 297:..\..\..\..\wpa_supplicant\src\utils/os.h ****  * OS_NO_C_LIB_DEFINES can be defined to skip all defines here in which case
 298:..\..\..\..\wpa_supplicant\src\utils/os.h ****  * these functions need to be implemented in os_*.c file for the target system.
 299:..\..\..\..\wpa_supplicant\src\utils/os.h ****  */
 300:..\..\..\..\wpa_supplicant\src\utils/os.h **** 
 301:..\..\..\..\wpa_supplicant\src\utils/os.h **** #ifdef OS_NO_C_LIB_DEFINES
 302:..\..\..\..\wpa_supplicant\src\utils/os.h **** 
 303:..\..\..\..\wpa_supplicant\src\utils/os.h **** /**
 304:..\..\..\..\wpa_supplicant\src\utils/os.h ****  * os_malloc - Allocate dynamic memory
 305:..\..\..\..\wpa_supplicant\src\utils/os.h ****  * @size: Size of the buffer to allocate
 306:..\..\..\..\wpa_supplicant\src\utils/os.h ****  * Returns: Allocated buffer or %NULL on failure
 307:..\..\..\..\wpa_supplicant\src\utils/os.h ****  *
 308:..\..\..\..\wpa_supplicant\src\utils/os.h ****  * Caller is responsible for freeing the returned buffer with os_free().
 309:..\..\..\..\wpa_supplicant\src\utils/os.h ****  */
 310:..\..\..\..\wpa_supplicant\src\utils/os.h **** void * os_malloc(size_t size);
 311:..\..\..\..\wpa_supplicant\src\utils/os.h **** 
 312:..\..\..\..\wpa_supplicant\src\utils/os.h **** /**
 313:..\..\..\..\wpa_supplicant\src\utils/os.h ****  * os_realloc - Re-allocate dynamic memory
 314:..\..\..\..\wpa_supplicant\src\utils/os.h ****  * @ptr: Old buffer from os_malloc() or os_realloc()
 315:..\..\..\..\wpa_supplicant\src\utils/os.h ****  * @size: Size of the new buffer
 316:..\..\..\..\wpa_supplicant\src\utils/os.h ****  * Returns: Allocated buffer or %NULL on failure
 317:..\..\..\..\wpa_supplicant\src\utils/os.h ****  *
 318:..\..\..\..\wpa_supplicant\src\utils/os.h ****  * Caller is responsible for freeing the returned buffer with os_free().
 319:..\..\..\..\wpa_supplicant\src\utils/os.h ****  * If re-allocation fails, %NULL is returned and the original buffer (ptr) is
 320:..\..\..\..\wpa_supplicant\src\utils/os.h ****  * not freed and caller is still responsible for freeing it.
 321:..\..\..\..\wpa_supplicant\src\utils/os.h ****  */
 322:..\..\..\..\wpa_supplicant\src\utils/os.h **** void * os_realloc(void *ptr, size_t size);
 323:..\..\..\..\wpa_supplicant\src\utils/os.h **** 
 324:..\..\..\..\wpa_supplicant\src\utils/os.h **** /**
 325:..\..\..\..\wpa_supplicant\src\utils/os.h ****  * os_free - Free dynamic memory
 326:..\..\..\..\wpa_supplicant\src\utils/os.h ****  * @ptr: Old buffer from os_malloc() or os_realloc(); can be %NULL
 327:..\..\..\..\wpa_supplicant\src\utils/os.h ****  */
 328:..\..\..\..\wpa_supplicant\src\utils/os.h **** void os_free(void *ptr);
 329:..\..\..\..\wpa_supplicant\src\utils/os.h **** 
 330:..\..\..\..\wpa_supplicant\src\utils/os.h **** /**
 331:..\..\..\..\wpa_supplicant\src\utils/os.h ****  * os_memcpy - Copy memory area
 332:..\..\..\..\wpa_supplicant\src\utils/os.h ****  * @dest: Destination
 333:..\..\..\..\wpa_supplicant\src\utils/os.h ****  * @src: Source
 334:..\..\..\..\wpa_supplicant\src\utils/os.h ****  * @n: Number of bytes to copy
 335:..\..\..\..\wpa_supplicant\src\utils/os.h ****  * Returns: dest
 336:..\..\..\..\wpa_supplicant\src\utils/os.h ****  *
 337:..\..\..\..\wpa_supplicant\src\utils/os.h ****  * The memory areas src and dst must not overlap. os_memmove() can be used with
 338:..\..\..\..\wpa_supplicant\src\utils/os.h ****  * overlapping memory.
 339:..\..\..\..\wpa_supplicant\src\utils/os.h ****  */
 340:..\..\..\..\wpa_supplicant\src\utils/os.h **** void * os_memcpy(void *dest, const void *src, size_t n);
 341:..\..\..\..\wpa_supplicant\src\utils/os.h **** 
 342:..\..\..\..\wpa_supplicant\src\utils/os.h **** /**
 343:..\..\..\..\wpa_supplicant\src\utils/os.h ****  * os_memmove - Copy memory area
 344:..\..\..\..\wpa_supplicant\src\utils/os.h ****  * @dest: Destination
 345:..\..\..\..\wpa_supplicant\src\utils/os.h ****  * @src: Source
 346:..\..\..\..\wpa_supplicant\src\utils/os.h ****  * @n: Number of bytes to copy
 347:..\..\..\..\wpa_supplicant\src\utils/os.h ****  * Returns: dest
 348:..\..\..\..\wpa_supplicant\src\utils/os.h ****  *
 349:..\..\..\..\wpa_supplicant\src\utils/os.h ****  * The memory areas src and dst may overlap.
 350:..\..\..\..\wpa_supplicant\src\utils/os.h ****  */
 351:..\..\..\..\wpa_supplicant\src\utils/os.h **** void * os_memmove(void *dest, const void *src, size_t n);
 352:..\..\..\..\wpa_supplicant\src\utils/os.h **** 
 353:..\..\..\..\wpa_supplicant\src\utils/os.h **** /**
 354:..\..\..\..\wpa_supplicant\src\utils/os.h ****  * os_memset - Fill memory with a constant byte
 355:..\..\..\..\wpa_supplicant\src\utils/os.h ****  * @s: Memory area to be filled
 356:..\..\..\..\wpa_supplicant\src\utils/os.h ****  * @c: Constant byte
 357:..\..\..\..\wpa_supplicant\src\utils/os.h ****  * @n: Number of bytes started from s to fill with c
 358:..\..\..\..\wpa_supplicant\src\utils/os.h ****  * Returns: s
 359:..\..\..\..\wpa_supplicant\src\utils/os.h ****  */
 360:..\..\..\..\wpa_supplicant\src\utils/os.h **** void * os_memset(void *s, int c, size_t n);
 361:..\..\..\..\wpa_supplicant\src\utils/os.h **** 
 362:..\..\..\..\wpa_supplicant\src\utils/os.h **** /**
 363:..\..\..\..\wpa_supplicant\src\utils/os.h ****  * os_memcmp - Compare memory areas
 364:..\..\..\..\wpa_supplicant\src\utils/os.h ****  * @s1: First buffer
 365:..\..\..\..\wpa_supplicant\src\utils/os.h ****  * @s2: Second buffer
 366:..\..\..\..\wpa_supplicant\src\utils/os.h ****  * @n: Maximum numbers of octets to compare
 367:..\..\..\..\wpa_supplicant\src\utils/os.h ****  * Returns: An integer less than, equal to, or greater than zero if s1 is
 368:..\..\..\..\wpa_supplicant\src\utils/os.h ****  * found to be less than, to match, or be greater than s2. Only first n
 369:..\..\..\..\wpa_supplicant\src\utils/os.h ****  * characters will be compared.
 370:..\..\..\..\wpa_supplicant\src\utils/os.h ****  */
 371:..\..\..\..\wpa_supplicant\src\utils/os.h **** int os_memcmp(const void *s1, const void *s2, size_t n);
 372:..\..\..\..\wpa_supplicant\src\utils/os.h **** 
 373:..\..\..\..\wpa_supplicant\src\utils/os.h **** /**
 374:..\..\..\..\wpa_supplicant\src\utils/os.h ****  * os_strdup - Duplicate a string
 375:..\..\..\..\wpa_supplicant\src\utils/os.h ****  * @s: Source string
 376:..\..\..\..\wpa_supplicant\src\utils/os.h ****  * Returns: Allocated buffer with the string copied into it or %NULL on failure
 377:..\..\..\..\wpa_supplicant\src\utils/os.h ****  *
 378:..\..\..\..\wpa_supplicant\src\utils/os.h ****  * Caller is responsible for freeing the returned buffer with os_free().
 379:..\..\..\..\wpa_supplicant\src\utils/os.h ****  */
 380:..\..\..\..\wpa_supplicant\src\utils/os.h **** char * os_strdup(const char *s);
 381:..\..\..\..\wpa_supplicant\src\utils/os.h **** 
 382:..\..\..\..\wpa_supplicant\src\utils/os.h **** /**
 383:..\..\..\..\wpa_supplicant\src\utils/os.h ****  * os_strlen - Calculate the length of a string
 384:..\..\..\..\wpa_supplicant\src\utils/os.h ****  * @s: '\0' terminated string
 385:..\..\..\..\wpa_supplicant\src\utils/os.h ****  * Returns: Number of characters in s (not counting the '\0' terminator)
 386:..\..\..\..\wpa_supplicant\src\utils/os.h ****  */
 387:..\..\..\..\wpa_supplicant\src\utils/os.h **** size_t os_strlen(const char *s);
 388:..\..\..\..\wpa_supplicant\src\utils/os.h **** 
 389:..\..\..\..\wpa_supplicant\src\utils/os.h **** /**
 390:..\..\..\..\wpa_supplicant\src\utils/os.h ****  * os_strcasecmp - Compare two strings ignoring case
 391:..\..\..\..\wpa_supplicant\src\utils/os.h ****  * @s1: First string
 392:..\..\..\..\wpa_supplicant\src\utils/os.h ****  * @s2: Second string
 393:..\..\..\..\wpa_supplicant\src\utils/os.h ****  * Returns: An integer less than, equal to, or greater than zero if s1 is
 394:..\..\..\..\wpa_supplicant\src\utils/os.h ****  * found to be less than, to match, or be greatred than s2
 395:..\..\..\..\wpa_supplicant\src\utils/os.h ****  */
 396:..\..\..\..\wpa_supplicant\src\utils/os.h **** int os_strcasecmp(const char *s1, const char *s2);
 397:..\..\..\..\wpa_supplicant\src\utils/os.h **** 
 398:..\..\..\..\wpa_supplicant\src\utils/os.h **** /**
 399:..\..\..\..\wpa_supplicant\src\utils/os.h ****  * os_strncasecmp - Compare two strings ignoring case
 400:..\..\..\..\wpa_supplicant\src\utils/os.h ****  * @s1: First string
 401:..\..\..\..\wpa_supplicant\src\utils/os.h ****  * @s2: Second string
 402:..\..\..\..\wpa_supplicant\src\utils/os.h ****  * @n: Maximum numbers of characters to compare
 403:..\..\..\..\wpa_supplicant\src\utils/os.h ****  * Returns: An integer less than, equal to, or greater than zero if s1 is
 404:..\..\..\..\wpa_supplicant\src\utils/os.h ****  * found to be less than, to match, or be greater than s2. Only first n
 405:..\..\..\..\wpa_supplicant\src\utils/os.h ****  * characters will be compared.
 406:..\..\..\..\wpa_supplicant\src\utils/os.h ****  */
 407:..\..\..\..\wpa_supplicant\src\utils/os.h **** int os_strncasecmp(const char *s1, const char *s2, size_t n);
 408:..\..\..\..\wpa_supplicant\src\utils/os.h **** 
 409:..\..\..\..\wpa_supplicant\src\utils/os.h **** /**
 410:..\..\..\..\wpa_supplicant\src\utils/os.h ****  * os_strchr - Locate the first occurrence of a character in string
 411:..\..\..\..\wpa_supplicant\src\utils/os.h ****  * @s: String
 412:..\..\..\..\wpa_supplicant\src\utils/os.h ****  * @c: Character to search for
 413:..\..\..\..\wpa_supplicant\src\utils/os.h ****  * Returns: Pointer to the matched character or %NULL if not found
 414:..\..\..\..\wpa_supplicant\src\utils/os.h ****  */
 415:..\..\..\..\wpa_supplicant\src\utils/os.h **** char * os_strchr(const char *s, int c);
 416:..\..\..\..\wpa_supplicant\src\utils/os.h **** 
 417:..\..\..\..\wpa_supplicant\src\utils/os.h **** /**
 418:..\..\..\..\wpa_supplicant\src\utils/os.h ****  * os_strrchr - Locate the last occurrence of a character in string
 419:..\..\..\..\wpa_supplicant\src\utils/os.h ****  * @s: String
 420:..\..\..\..\wpa_supplicant\src\utils/os.h ****  * @c: Character to search for
 421:..\..\..\..\wpa_supplicant\src\utils/os.h ****  * Returns: Pointer to the matched character or %NULL if not found
 422:..\..\..\..\wpa_supplicant\src\utils/os.h ****  */
 423:..\..\..\..\wpa_supplicant\src\utils/os.h **** char * os_strrchr(const char *s, int c);
 424:..\..\..\..\wpa_supplicant\src\utils/os.h **** 
 425:..\..\..\..\wpa_supplicant\src\utils/os.h **** /**
 426:..\..\..\..\wpa_supplicant\src\utils/os.h ****  * os_strcmp - Compare two strings
 427:..\..\..\..\wpa_supplicant\src\utils/os.h ****  * @s1: First string
 428:..\..\..\..\wpa_supplicant\src\utils/os.h ****  * @s2: Second string
 429:..\..\..\..\wpa_supplicant\src\utils/os.h ****  * Returns: An integer less than, equal to, or greater than zero if s1 is
 430:..\..\..\..\wpa_supplicant\src\utils/os.h ****  * found to be less than, to match, or be greatred than s2
 431:..\..\..\..\wpa_supplicant\src\utils/os.h ****  */
 432:..\..\..\..\wpa_supplicant\src\utils/os.h **** int os_strcmp(const char *s1, const char *s2);
 433:..\..\..\..\wpa_supplicant\src\utils/os.h **** 
 434:..\..\..\..\wpa_supplicant\src\utils/os.h **** /**
 435:..\..\..\..\wpa_supplicant\src\utils/os.h ****  * os_strncmp - Compare two strings
 436:..\..\..\..\wpa_supplicant\src\utils/os.h ****  * @s1: First string
 437:..\..\..\..\wpa_supplicant\src\utils/os.h ****  * @s2: Second string
 438:..\..\..\..\wpa_supplicant\src\utils/os.h ****  * @n: Maximum numbers of characters to compare
 439:..\..\..\..\wpa_supplicant\src\utils/os.h ****  * Returns: An integer less than, equal to, or greater than zero if s1 is
 440:..\..\..\..\wpa_supplicant\src\utils/os.h ****  * found to be less than, to match, or be greater than s2. Only first n
 441:..\..\..\..\wpa_supplicant\src\utils/os.h ****  * characters will be compared.
 442:..\..\..\..\wpa_supplicant\src\utils/os.h ****  */
 443:..\..\..\..\wpa_supplicant\src\utils/os.h **** int os_strncmp(const char *s1, const char *s2, size_t n);
 444:..\..\..\..\wpa_supplicant\src\utils/os.h **** 
 445:..\..\..\..\wpa_supplicant\src\utils/os.h **** /**
 446:..\..\..\..\wpa_supplicant\src\utils/os.h ****  * os_strstr - Locate a substring
 447:..\..\..\..\wpa_supplicant\src\utils/os.h ****  * @haystack: String (haystack) to search from
 448:..\..\..\..\wpa_supplicant\src\utils/os.h ****  * @needle: Needle to search from haystack
 449:..\..\..\..\wpa_supplicant\src\utils/os.h ****  * Returns: Pointer to the beginning of the substring or %NULL if not found
 450:..\..\..\..\wpa_supplicant\src\utils/os.h ****  */
 451:..\..\..\..\wpa_supplicant\src\utils/os.h **** char * os_strstr(const char *haystack, const char *needle);
 452:..\..\..\..\wpa_supplicant\src\utils/os.h **** 
 453:..\..\..\..\wpa_supplicant\src\utils/os.h **** /**
 454:..\..\..\..\wpa_supplicant\src\utils/os.h ****  * os_snprintf - Print to a memory buffer
 455:..\..\..\..\wpa_supplicant\src\utils/os.h ****  * @str: Memory buffer to print into
 456:..\..\..\..\wpa_supplicant\src\utils/os.h ****  * @size: Maximum length of the str buffer
 457:..\..\..\..\wpa_supplicant\src\utils/os.h ****  * @format: printf format
 458:..\..\..\..\wpa_supplicant\src\utils/os.h ****  * Returns: Number of characters printed (not including trailing '\0').
 459:..\..\..\..\wpa_supplicant\src\utils/os.h ****  *
 460:..\..\..\..\wpa_supplicant\src\utils/os.h ****  * If the output buffer is truncated, number of characters which would have
 461:..\..\..\..\wpa_supplicant\src\utils/os.h ****  * been written is returned. Since some C libraries return -1 in such a case,
 462:..\..\..\..\wpa_supplicant\src\utils/os.h ****  * the caller must be prepared on that value, too, to indicate truncation.
 463:..\..\..\..\wpa_supplicant\src\utils/os.h ****  *
 464:..\..\..\..\wpa_supplicant\src\utils/os.h ****  * Note: Some C library implementations of snprintf() may not guarantee null
 465:..\..\..\..\wpa_supplicant\src\utils/os.h ****  * termination in case the output is truncated. The OS wrapper function of
 466:..\..\..\..\wpa_supplicant\src\utils/os.h ****  * os_snprintf() should provide this guarantee, i.e., to null terminate the
 467:..\..\..\..\wpa_supplicant\src\utils/os.h ****  * output buffer if a C library version of the function is used and if that
 468:..\..\..\..\wpa_supplicant\src\utils/os.h ****  * function does not guarantee null termination.
 469:..\..\..\..\wpa_supplicant\src\utils/os.h ****  *
 470:..\..\..\..\wpa_supplicant\src\utils/os.h ****  * If the target system does not include snprintf(), see, e.g.,
 471:..\..\..\..\wpa_supplicant\src\utils/os.h ****  * http://www.ijs.si/software/snprintf/ for an example of a portable
 472:..\..\..\..\wpa_supplicant\src\utils/os.h ****  * implementation of snprintf.
 473:..\..\..\..\wpa_supplicant\src\utils/os.h ****  */
 474:..\..\..\..\wpa_supplicant\src\utils/os.h **** int os_snprintf(char *str, size_t size, const char *format, ...);
 475:..\..\..\..\wpa_supplicant\src\utils/os.h **** 
 476:..\..\..\..\wpa_supplicant\src\utils/os.h **** #else /* OS_NO_C_LIB_DEFINES */
 477:..\..\..\..\wpa_supplicant\src\utils/os.h **** 
 478:..\..\..\..\wpa_supplicant\src\utils/os.h **** #ifdef WPA_TRACE
 479:..\..\..\..\wpa_supplicant\src\utils/os.h **** void * os_malloc(size_t size);
 480:..\..\..\..\wpa_supplicant\src\utils/os.h **** void * os_realloc(void *ptr, size_t size);
 481:..\..\..\..\wpa_supplicant\src\utils/os.h **** void os_free(void *ptr);
 482:..\..\..\..\wpa_supplicant\src\utils/os.h **** char * os_strdup(const char *s);
 483:..\..\..\..\wpa_supplicant\src\utils/os.h **** #else /* WPA_TRACE */
 484:..\..\..\..\wpa_supplicant\src\utils/os.h **** #ifndef os_malloc
 485:..\..\..\..\wpa_supplicant\src\utils/os.h **** #define os_malloc(s) malloc((s))
 486:..\..\..\..\wpa_supplicant\src\utils/os.h **** #endif
 487:..\..\..\..\wpa_supplicant\src\utils/os.h **** #ifndef os_realloc
 488:..\..\..\..\wpa_supplicant\src\utils/os.h **** #define os_realloc(p, s) realloc((p), (s))
 489:..\..\..\..\wpa_supplicant\src\utils/os.h **** #endif
 490:..\..\..\..\wpa_supplicant\src\utils/os.h **** #ifndef os_free
 491:..\..\..\..\wpa_supplicant\src\utils/os.h **** #define os_free(p) free((p))
 492:..\..\..\..\wpa_supplicant\src\utils/os.h **** #endif
 493:..\..\..\..\wpa_supplicant\src\utils/os.h **** #ifndef os_strdup
 494:..\..\..\..\wpa_supplicant\src\utils/os.h **** #ifdef _MSC_VER
 495:..\..\..\..\wpa_supplicant\src\utils/os.h **** #define os_strdup(s) _strdup(s)
 496:..\..\..\..\wpa_supplicant\src\utils/os.h **** #else
 497:..\..\..\..\wpa_supplicant\src\utils/os.h **** #define os_strdup(s) strdup(s)
 498:..\..\..\..\wpa_supplicant\src\utils/os.h **** #endif
 499:..\..\..\..\wpa_supplicant\src\utils/os.h **** #endif
 500:..\..\..\..\wpa_supplicant\src\utils/os.h **** #endif /* WPA_TRACE */
 501:..\..\..\..\wpa_supplicant\src\utils/os.h **** 
 502:..\..\..\..\wpa_supplicant\src\utils/os.h **** #ifndef os_memcpy
 503:..\..\..\..\wpa_supplicant\src\utils/os.h **** #define os_memcpy(d, s, n) memcpy((d), (s), (n))
 504:..\..\..\..\wpa_supplicant\src\utils/os.h **** #endif
 505:..\..\..\..\wpa_supplicant\src\utils/os.h **** #ifndef os_memmove
 506:..\..\..\..\wpa_supplicant\src\utils/os.h **** #define os_memmove(d, s, n) memmove((d), (s), (n))
 507:..\..\..\..\wpa_supplicant\src\utils/os.h **** #endif
 508:..\..\..\..\wpa_supplicant\src\utils/os.h **** #ifndef os_memset
 509:..\..\..\..\wpa_supplicant\src\utils/os.h **** #define os_memset(s, c, n) memset(s, c, n)
 510:..\..\..\..\wpa_supplicant\src\utils/os.h **** #endif
 511:..\..\..\..\wpa_supplicant\src\utils/os.h **** #ifndef os_memcmp
 512:..\..\..\..\wpa_supplicant\src\utils/os.h **** #define os_memcmp(s1, s2, n) memcmp((s1), (s2), (n))
 513:..\..\..\..\wpa_supplicant\src\utils/os.h **** #endif
 514:..\..\..\..\wpa_supplicant\src\utils/os.h **** 
 515:..\..\..\..\wpa_supplicant\src\utils/os.h **** #ifndef os_strlen
 516:..\..\..\..\wpa_supplicant\src\utils/os.h **** #define os_strlen(s) strlen(s)
 517:..\..\..\..\wpa_supplicant\src\utils/os.h **** #endif
 518:..\..\..\..\wpa_supplicant\src\utils/os.h **** #ifndef os_strcasecmp
 519:..\..\..\..\wpa_supplicant\src\utils/os.h **** #ifdef _MSC_VER
 520:..\..\..\..\wpa_supplicant\src\utils/os.h **** #define os_strcasecmp(s1, s2) _stricmp((s1), (s2))
 521:..\..\..\..\wpa_supplicant\src\utils/os.h **** #else
 522:..\..\..\..\wpa_supplicant\src\utils/os.h **** #define os_strcasecmp(s1, s2) strcasecmp((s1), (s2))
 523:..\..\..\..\wpa_supplicant\src\utils/os.h **** #endif
 524:..\..\..\..\wpa_supplicant\src\utils/os.h **** #endif
 525:..\..\..\..\wpa_supplicant\src\utils/os.h **** #ifndef os_strncasecmp
 526:..\..\..\..\wpa_supplicant\src\utils/os.h **** #ifdef _MSC_VER
 527:..\..\..\..\wpa_supplicant\src\utils/os.h **** #define os_strncasecmp(s1, s2, n) _strnicmp((s1), (s2), (n))
 528:..\..\..\..\wpa_supplicant\src\utils/os.h **** #else
 529:..\..\..\..\wpa_supplicant\src\utils/os.h **** #define os_strncasecmp(s1, s2, n) strncasecmp((s1), (s2), (n))
 530:..\..\..\..\wpa_supplicant\src\utils/os.h **** #endif
 531:..\..\..\..\wpa_supplicant\src\utils/os.h **** #endif
 532:..\..\..\..\wpa_supplicant\src\utils/os.h **** #ifndef os_strchr
 533:..\..\..\..\wpa_supplicant\src\utils/os.h **** #define os_strchr(s, c) strchr((s), (c))
 534:..\..\..\..\wpa_supplicant\src\utils/os.h **** #endif
 535:..\..\..\..\wpa_supplicant\src\utils/os.h **** #ifndef os_strcmp
 536:..\..\..\..\wpa_supplicant\src\utils/os.h **** #define os_strcmp(s1, s2) strcmp((s1), (s2))
 537:..\..\..\..\wpa_supplicant\src\utils/os.h **** #endif
 538:..\..\..\..\wpa_supplicant\src\utils/os.h **** #ifndef os_strncmp
 539:..\..\..\..\wpa_supplicant\src\utils/os.h **** #define os_strncmp(s1, s2, n) strncmp((s1), (s2), (n))
 540:..\..\..\..\wpa_supplicant\src\utils/os.h **** #endif
 541:..\..\..\..\wpa_supplicant\src\utils/os.h **** #ifndef os_strrchr
 542:..\..\..\..\wpa_supplicant\src\utils/os.h **** #define os_strrchr(s, c) strrchr((s), (c))
 543:..\..\..\..\wpa_supplicant\src\utils/os.h **** #endif
 544:..\..\..\..\wpa_supplicant\src\utils/os.h **** #ifndef os_strstr
 545:..\..\..\..\wpa_supplicant\src\utils/os.h **** #define os_strstr(h, n) strstr((h), (n))
 546:..\..\..\..\wpa_supplicant\src\utils/os.h **** #endif
 547:..\..\..\..\wpa_supplicant\src\utils/os.h **** 
 548:..\..\..\..\wpa_supplicant\src\utils/os.h **** #ifndef os_snprintf
 549:..\..\..\..\wpa_supplicant\src\utils/os.h **** #ifdef _MSC_VER
 550:..\..\..\..\wpa_supplicant\src\utils/os.h **** #define os_snprintf _snprintf
 551:..\..\..\..\wpa_supplicant\src\utils/os.h **** #else
 552:..\..\..\..\wpa_supplicant\src\utils/os.h **** #define os_snprintf snprintf
 553:..\..\..\..\wpa_supplicant\src\utils/os.h **** #endif
 554:..\..\..\..\wpa_supplicant\src\utils/os.h **** #endif
 555:..\..\..\..\wpa_supplicant\src\utils/os.h **** 
 556:..\..\..\..\wpa_supplicant\src\utils/os.h **** #endif /* OS_NO_C_LIB_DEFINES */
 557:..\..\..\..\wpa_supplicant\src\utils/os.h **** 
 558:..\..\..\..\wpa_supplicant\src\utils/os.h **** 
 559:..\..\..\..\wpa_supplicant\src\utils/os.h **** static inline int os_snprintf_error(size_t size, int res)
 560:..\..\..\..\wpa_supplicant\src\utils/os.h **** {
 561:..\..\..\..\wpa_supplicant\src\utils/os.h **** 	return res < 0 || (unsigned int) res >= size;
 562:..\..\..\..\wpa_supplicant\src\utils/os.h **** }
 563:..\..\..\..\wpa_supplicant\src\utils/os.h **** 
 564:..\..\..\..\wpa_supplicant\src\utils/os.h **** 
 565:..\..\..\..\wpa_supplicant\src\utils/os.h **** static inline void * os_realloc_array(void *ptr, size_t nmemb, size_t size)
 566:..\..\..\..\wpa_supplicant\src\utils/os.h **** {
 567:..\..\..\..\wpa_supplicant\src\utils/os.h **** 	if (size && nmemb > (~(size_t) 0) / size)
 149              		.loc 2 567 2 is_stmt 1
 150 0014 13D7D701 		srli	a4,a5,29
 151 0018 11C7     		beq	a4,zero,.L14
 152              	.LVL12:
 153              	.L16:
 154              	.LBE5:
 155              	.LBE4:
  31:C:/Users/stapi/OneDrive/Desktop/GD32VW553/V1_MQTT_OK/GD32VW55X_Wifi_BLE_SDK/GD32VW55x_RELEASE_V1.0.2/MSDK/wpa_supplicant/src/ap\utils.c **** 
 156              		.loc 1 31 10 is_stmt 0
 157 001a 7D55     		li	a0,-1
 158              	.L11:
  41:C:/Users/stapi/OneDrive/Desktop/GD32VW553/V1_MQTT_OK/GD32VW55X_Wifi_BLE_SDK/GD32VW55x_RELEASE_V1.0.2/MSDK/wpa_supplicant/src/ap\utils.c **** 
 159              		.loc 1 41 1
 160 001c 17030000 		tail	__riscv_restore_3
 160      67000300 
 161              		.cfi_remember_state
 162              		.cfi_restore 18
 163              		.cfi_restore 9
 164              		.cfi_restore 8
 165              		.cfi_restore 1
 166              		.cfi_def_cfa_offset 0
 167              	.LVL13:
 168              	.L14:
 169              		.cfi_restore_state
 170 0024 2E89     		mv	s2,a1
 171              	.LBB7:
 172              	.LBB6:
 568:..\..\..\..\wpa_supplicant\src\utils/os.h **** 		return NULL;
 569:..\..\..\..\wpa_supplicant\src\utils/os.h **** 	return os_realloc(ptr, nmemb * size);
 173              		.loc 2 569 9
 174 0026 93953700 		slli	a1,a5,3
 175              	.LVL14:
 176 002a B284     		mv	s1,a2
 177              		.loc 2 569 2 is_stmt 1
 178              		.loc 2 569 9 is_stmt 0
 179 002c 97000000 		call	os_realloc
 179      E7800000 
 180              	.LVL15:
 181              	.LBE6:
 182              	.LBE7:
  30:C:/Users/stapi/OneDrive/Desktop/GD32VW553/V1_MQTT_OK/GD32VW55X_Wifi_BLE_SDK/GD32VW55x_RELEASE_V1.0.2/MSDK/wpa_supplicant/src/ap\utils.c **** 		return -1;
 183              		.loc 1 30 2 is_stmt 1
  30:C:/Users/stapi/OneDrive/Desktop/GD32VW553/V1_MQTT_OK/GD32VW55X_Wifi_BLE_SDK/GD32VW55x_RELEASE_V1.0.2/MSDK/wpa_supplicant/src/ap\utils.c **** 		return -1;
 184              		.loc 1 30 5 is_stmt 0
 185 0034 7DD1     		beq	a0,zero,.L16
  33:C:/Users/stapi/OneDrive/Desktop/GD32VW553/V1_MQTT_OK/GD32VW55X_Wifi_BLE_SDK/GD32VW55x_RELEASE_V1.0.2/MSDK/wpa_supplicant/src/ap\utils.c **** 	n = &hapd->probereq_cb[hapd->num_probereq_cb];
 186              		.loc 1 33 2 is_stmt 1
  34:C:/Users/stapi/OneDrive/Desktop/GD32VW553/V1_MQTT_OK/GD32VW55X_Wifi_BLE_SDK/GD32VW55x_RELEASE_V1.0.2/MSDK/wpa_supplicant/src/ap\utils.c **** 	hapd->num_probereq_cb++;
 187              		.loc 1 34 29 is_stmt 0
 188 0036 0327045B 		lw	a4,1456(s0)
  33:C:/Users/stapi/OneDrive/Desktop/GD32VW553/V1_MQTT_OK/GD32VW55X_Wifi_BLE_SDK/GD32VW55x_RELEASE_V1.0.2/MSDK/wpa_supplicant/src/ap\utils.c **** 	n = &hapd->probereq_cb[hapd->num_probereq_cb];
 189              		.loc 1 33 20
 190 003a 2326A45A 		sw	a0,1452(s0)
  34:C:/Users/stapi/OneDrive/Desktop/GD32VW553/V1_MQTT_OK/GD32VW55X_Wifi_BLE_SDK/GD32VW55x_RELEASE_V1.0.2/MSDK/wpa_supplicant/src/ap\utils.c **** 	hapd->num_probereq_cb++;
 191              		.loc 1 34 2 is_stmt 1
  34:C:/Users/stapi/OneDrive/Desktop/GD32VW553/V1_MQTT_OK/GD32VW55X_Wifi_BLE_SDK/GD32VW55x_RELEASE_V1.0.2/MSDK/wpa_supplicant/src/ap\utils.c **** 	hapd->num_probereq_cb++;
 192              		.loc 1 34 4 is_stmt 0
 193 003e B367A720 		sh3add	a5,a4,a0
 194              	.LVL16:
  35:C:/Users/stapi/OneDrive/Desktop/GD32VW553/V1_MQTT_OK/GD32VW55X_Wifi_BLE_SDK/GD32VW55x_RELEASE_V1.0.2/MSDK/wpa_supplicant/src/ap\utils.c **** 
 195              		.loc 1 35 2 is_stmt 1
  35:C:/Users/stapi/OneDrive/Desktop/GD32VW553/V1_MQTT_OK/GD32VW55X_Wifi_BLE_SDK/GD32VW55x_RELEASE_V1.0.2/MSDK/wpa_supplicant/src/ap\utils.c **** 
 196              		.loc 1 35 23 is_stmt 0
 197 0042 0507     		addi	a4,a4,1
 198 0044 2328E45A 		sw	a4,1456(s0)
  37:C:/Users/stapi/OneDrive/Desktop/GD32VW553/V1_MQTT_OK/GD32VW55X_Wifi_BLE_SDK/GD32VW55x_RELEASE_V1.0.2/MSDK/wpa_supplicant/src/ap\utils.c **** 	n->ctx = ctx;
 199              		.loc 1 37 2 is_stmt 1
  37:C:/Users/stapi/OneDrive/Desktop/GD32VW553/V1_MQTT_OK/GD32VW55X_Wifi_BLE_SDK/GD32VW55x_RELEASE_V1.0.2/MSDK/wpa_supplicant/src/ap\utils.c **** 	n->ctx = ctx;
 200              		.loc 1 37 8 is_stmt 0
 201 0048 23A02701 		sw	s2,0(a5)
  38:C:/Users/stapi/OneDrive/Desktop/GD32VW553/V1_MQTT_OK/GD32VW55X_Wifi_BLE_SDK/GD32VW55x_RELEASE_V1.0.2/MSDK/wpa_supplicant/src/ap\utils.c **** 
 202              		.loc 1 38 2 is_stmt 1
  38:C:/Users/stapi/OneDrive/Desktop/GD32VW553/V1_MQTT_OK/GD32VW55X_Wifi_BLE_SDK/GD32VW55x_RELEASE_V1.0.2/MSDK/wpa_supplicant/src/ap\utils.c **** 
 203              		.loc 1 38 9 is_stmt 0
 204 004c C4C3     		sw	s1,4(a5)
  40:C:/Users/stapi/OneDrive/Desktop/GD32VW553/V1_MQTT_OK/GD32VW55X_Wifi_BLE_SDK/GD32VW55x_RELEASE_V1.0.2/MSDK/wpa_supplicant/src/ap\utils.c **** }
 205              		.loc 1 40 2 is_stmt 1
  40:C:/Users/stapi/OneDrive/Desktop/GD32VW553/V1_MQTT_OK/GD32VW55X_Wifi_BLE_SDK/GD32VW55x_RELEASE_V1.0.2/MSDK/wpa_supplicant/src/ap\utils.c **** }
 206              		.loc 1 40 9 is_stmt 0
 207 004e 0145     		li	a0,0
 208              	.LVL17:
 209 0050 F1B7     		j	.L11
 210              		.cfi_endproc
 211              	.LFE137:
 213              		.section	.text.hostapd_prune_associations,"ax",@progbits
 214              		.align	1
 215              		.globl	hostapd_prune_associations
 217              	hostapd_prune_associations:
 218              	.LFB139:
  83:C:/Users/stapi/OneDrive/Desktop/GD32VW553/V1_MQTT_OK/GD32VW55X_Wifi_BLE_SDK/GD32VW55x_RELEASE_V1.0.2/MSDK/wpa_supplicant/src/ap\utils.c **** 
  84:C:/Users/stapi/OneDrive/Desktop/GD32VW553/V1_MQTT_OK/GD32VW55X_Wifi_BLE_SDK/GD32VW55x_RELEASE_V1.0.2/MSDK/wpa_supplicant/src/ap\utils.c **** /**
  85:C:/Users/stapi/OneDrive/Desktop/GD32VW553/V1_MQTT_OK/GD32VW55X_Wifi_BLE_SDK/GD32VW55x_RELEASE_V1.0.2/MSDK/wpa_supplicant/src/ap\utils.c ****  * hostapd_prune_associations - Remove extraneous associations
  86:C:/Users/stapi/OneDrive/Desktop/GD32VW553/V1_MQTT_OK/GD32VW55X_Wifi_BLE_SDK/GD32VW55x_RELEASE_V1.0.2/MSDK/wpa_supplicant/src/ap\utils.c ****  * @hapd: Pointer to BSS data for the most recent association
  87:C:/Users/stapi/OneDrive/Desktop/GD32VW553/V1_MQTT_OK/GD32VW55X_Wifi_BLE_SDK/GD32VW55x_RELEASE_V1.0.2/MSDK/wpa_supplicant/src/ap\utils.c ****  * @addr: Associated STA address
  88:C:/Users/stapi/OneDrive/Desktop/GD32VW553/V1_MQTT_OK/GD32VW55X_Wifi_BLE_SDK/GD32VW55x_RELEASE_V1.0.2/MSDK/wpa_supplicant/src/ap\utils.c ****  *
  89:C:/Users/stapi/OneDrive/Desktop/GD32VW553/V1_MQTT_OK/GD32VW55X_Wifi_BLE_SDK/GD32VW55x_RELEASE_V1.0.2/MSDK/wpa_supplicant/src/ap\utils.c ****  * This function looks through all radios and BSS's for previous
  90:C:/Users/stapi/OneDrive/Desktop/GD32VW553/V1_MQTT_OK/GD32VW55X_Wifi_BLE_SDK/GD32VW55x_RELEASE_V1.0.2/MSDK/wpa_supplicant/src/ap\utils.c ****  * (stale) associations of STA. If any are found they are removed.
  91:C:/Users/stapi/OneDrive/Desktop/GD32VW553/V1_MQTT_OK/GD32VW55X_Wifi_BLE_SDK/GD32VW55x_RELEASE_V1.0.2/MSDK/wpa_supplicant/src/ap\utils.c ****  */
  92:C:/Users/stapi/OneDrive/Desktop/GD32VW553/V1_MQTT_OK/GD32VW55X_Wifi_BLE_SDK/GD32VW55x_RELEASE_V1.0.2/MSDK/wpa_supplicant/src/ap\utils.c **** void hostapd_prune_associations(struct hostapd_data *hapd, const u8 *addr)
  93:C:/Users/stapi/OneDrive/Desktop/GD32VW553/V1_MQTT_OK/GD32VW55X_Wifi_BLE_SDK/GD32VW55x_RELEASE_V1.0.2/MSDK/wpa_supplicant/src/ap\utils.c **** {
 219              		.loc 1 93 1 is_stmt 1
 220              		.cfi_startproc
 221              	.LVL18:
 222 0000 17030000 		call	t0,__riscv_save_0
 222      E7020300 
 223              		.cfi_offset 1, -4
 224              		.cfi_def_cfa_offset 16
  94:C:/Users/stapi/OneDrive/Desktop/GD32VW553/V1_MQTT_OK/GD32VW55X_Wifi_BLE_SDK/GD32VW55x_RELEASE_V1.0.2/MSDK/wpa_supplicant/src/ap\utils.c **** 	struct prune_data data;
 225              		.loc 1 94 2
  95:C:/Users/stapi/OneDrive/Desktop/GD32VW553/V1_MQTT_OK/GD32VW55X_Wifi_BLE_SDK/GD32VW55x_RELEASE_V1.0.2/MSDK/wpa_supplicant/src/ap\utils.c **** 	data.hapd = hapd;
 226              		.loc 1 95 2
  96:C:/Users/stapi/OneDrive/Desktop/GD32VW553/V1_MQTT_OK/GD32VW55X_Wifi_BLE_SDK/GD32VW55x_RELEASE_V1.0.2/MSDK/wpa_supplicant/src/ap\utils.c **** 	data.addr = addr;
  97:C:/Users/stapi/OneDrive/Desktop/GD32VW553/V1_MQTT_OK/GD32VW55X_Wifi_BLE_SDK/GD32VW55x_RELEASE_V1.0.2/MSDK/wpa_supplicant/src/ap\utils.c **** 	if (hapd->iface->interfaces &&
 227              		.loc 1 97 17 is_stmt 0
 228 0008 1C41     		lw	a5,0(a0)
  93:C:/Users/stapi/OneDrive/Desktop/GD32VW553/V1_MQTT_OK/GD32VW55X_Wifi_BLE_SDK/GD32VW55x_RELEASE_V1.0.2/MSDK/wpa_supplicant/src/ap\utils.c **** 	struct prune_data data;
 229              		.loc 1 93 1
 230 000a 4111     		addi	sp,sp,-16
 231              		.cfi_def_cfa_offset 32
  95:C:/Users/stapi/OneDrive/Desktop/GD32VW553/V1_MQTT_OK/GD32VW55X_Wifi_BLE_SDK/GD32VW55x_RELEASE_V1.0.2/MSDK/wpa_supplicant/src/ap\utils.c **** 	data.hapd = hapd;
 232              		.loc 1 95 12
 233 000c 2AC4     		sw	a0,8(sp)
  96:C:/Users/stapi/OneDrive/Desktop/GD32VW553/V1_MQTT_OK/GD32VW55X_Wifi_BLE_SDK/GD32VW55x_RELEASE_V1.0.2/MSDK/wpa_supplicant/src/ap\utils.c **** 	data.addr = addr;
 234              		.loc 1 96 2 is_stmt 1
 235              		.loc 1 97 17 is_stmt 0
 236 000e 8843     		lw	a0,0(a5)
 237              	.LVL19:
  96:C:/Users/stapi/OneDrive/Desktop/GD32VW553/V1_MQTT_OK/GD32VW55X_Wifi_BLE_SDK/GD32VW55x_RELEASE_V1.0.2/MSDK/wpa_supplicant/src/ap\utils.c **** 	data.addr = addr;
 238              		.loc 1 96 12
 239 0010 2EC6     		sw	a1,12(sp)
 240              		.loc 1 97 2 is_stmt 1
 241              		.loc 1 97 5 is_stmt 0
 242 0012 09C9     		beq	a0,zero,.L22
  98:C:/Users/stapi/OneDrive/Desktop/GD32VW553/V1_MQTT_OK/GD32VW55X_Wifi_BLE_SDK/GD32VW55x_RELEASE_V1.0.2/MSDK/wpa_supplicant/src/ap\utils.c **** 	    hapd->iface->interfaces->for_each_interface)
 243              		.loc 1 98 29 discriminator 1
 244 0014 1C49     		lw	a5,16(a0)
  97:C:/Users/stapi/OneDrive/Desktop/GD32VW553/V1_MQTT_OK/GD32VW55X_Wifi_BLE_SDK/GD32VW55x_RELEASE_V1.0.2/MSDK/wpa_supplicant/src/ap\utils.c **** 	    hapd->iface->interfaces->for_each_interface)
 245              		.loc 1 97 30 discriminator 1
 246 0016 99C7     		beq	a5,zero,.L22
  99:C:/Users/stapi/OneDrive/Desktop/GD32VW553/V1_MQTT_OK/GD32VW55X_Wifi_BLE_SDK/GD32VW55x_RELEASE_V1.0.2/MSDK/wpa_supplicant/src/ap\utils.c **** 		hapd->iface->interfaces->for_each_interface(
 247              		.loc 1 99 3 is_stmt 1
 248 0018 B7050000 		lui	a1,%hi(prune_associations)
 249              	.LVL20:
 250 001c 3000     		addi	a2,sp,8
 251              	.LVL21:
 252 001e 93850500 		addi	a1,a1,%lo(prune_associations)
 253 0022 8297     		jalr	a5
 254              	.LVL22:
 255              	.L22:
 100:C:/Users/stapi/OneDrive/Desktop/GD32VW553/V1_MQTT_OK/GD32VW55X_Wifi_BLE_SDK/GD32VW55x_RELEASE_V1.0.2/MSDK/wpa_supplicant/src/ap\utils.c **** 			hapd->iface->interfaces, prune_associations, &data);
 101:C:/Users/stapi/OneDrive/Desktop/GD32VW553/V1_MQTT_OK/GD32VW55X_Wifi_BLE_SDK/GD32VW55x_RELEASE_V1.0.2/MSDK/wpa_supplicant/src/ap\utils.c **** }
 256              		.loc 1 101 1 is_stmt 0
 257 0024 4101     		addi	sp,sp,16
 258              		.cfi_def_cfa_offset 0
 259 0026 17030000 		tail	__riscv_restore_0
 259      67000300 
 260              		.cfi_restore 1
 261              		.cfi_def_cfa_offset -16
 262              		.cfi_endproc
 263              	.LFE139:
 265              		.text
 266              	.Letext0:
 267              		.file 3 "c:\\users\\stapi\\onedrive\\desktop\\gd32vw553\\embeddedbuilder_v1.4.7.26843\\tools\\nucl
 268              		.file 4 "c:\\users\\stapi\\onedrive\\desktop\\gd32vw553\\embeddedbuilder_v1.4.7.26843\\tools\\nucl
 269              		.file 5 "c:\\users\\stapi\\onedrive\\desktop\\gd32vw553\\embeddedbuilder_v1.4.7.26843\\tools\\nucl
 270              		.file 6 "..\\..\\..\\..\\lwip\\lwip-2.1.2\\src\\include/lwip/arch.h"
 271              		.file 7 "..\\..\\..\\..\\lwip\\lwip-2.1.2\\src\\include/lwip/inet.h"
 272              		.file 8 "..\\..\\..\\..\\wpa_supplicant\\src\\utils/common.h"
 273              		.file 9 "..\\..\\..\\..\\wpa_supplicant\\src\\utils/wpabuf.h"
 274              		.file 10 "..\\..\\..\\..\\wpa_supplicant\\src/common/ieee802_11_defs.h"
 275              		.file 11 "..\\..\\..\\..\\wpa_supplicant\\src\\utils/wpa_debug.h"
 276              		.file 12 "..\\..\\..\\..\\wpa_supplicant\\src/common/defs.h"
 277              		.file 13 "..\\..\\..\\..\\wpa_supplicant\\src/utils/list.h"
 278              		.file 14 "C:/Users/stapi/OneDrive/Desktop/GD32VW553/V1_MQTT_OK/GD32VW55X_Wifi_BLE_SDK/GD32VW55x_RE
 279              		.file 15 "..\\..\\..\\..\\wpa_supplicant\\src/common/sae.h"
 280              		.file 16 "C:/Users/stapi/OneDrive/Desktop/GD32VW553/V1_MQTT_OK/GD32VW55X_Wifi_BLE_SDK/GD32VW55x_RE
 281              		.file 17 "C:/Users/stapi/OneDrive/Desktop/GD32VW553/V1_MQTT_OK/GD32VW55X_Wifi_BLE_SDK/GD32VW55x_RE
 282              		.file 18 "..\\..\\..\\..\\wpa_supplicant\\src/utils/ip_addr.h"
 283              		.file 19 "..\\..\\..\\..\\wpa_supplicant\\src/common/ieee802_11_common.h"
 284              		.file 20 "..\\..\\..\\..\\wpa_supplicant\\src/wps/wps_defs.h"
 285              		.file 21 "..\\..\\..\\..\\wpa_supplicant\\src/wps/wps.h"
 286              		.file 22 "..\\..\\..\\..\\wpa_supplicant\\src/drivers/driver.h"
 287              		.file 23 "C:/Users/stapi/OneDrive/Desktop/GD32VW553/V1_MQTT_OK/GD32VW55X_Wifi_BLE_SDK/GD32VW55x_RE