   1              		.file	"wmm.c"
   2              		.option nopic
   3              		.attribute arch, "rv32i2p0_m2p0_a2p0_f2p0_c2p0_b_p0p94"
   4              		.attribute unaligned_access, 0
   5              		.attribute stack_align, 16
   6              		.text
   7              	.Ltext0:
   8              		.cfi_sections	.debug_frame
   9              		.section	.text.hostapd_eid_wmm,"ax",@progbits
  10              		.align	1
  11              		.globl	hostapd_eid_wmm
  13              	hostapd_eid_wmm:
  14              	.LFB171:
  15              		.file 1 "C:/Users/stapi/OneDrive/Desktop/GD32VW553/V1_MQTT_OK/GD32VW55X_Wifi_BLE_SDK/GD32VW55x_REL
   1:C:/Users/stapi/OneDrive/Desktop/GD32VW553/V1_MQTT_OK/GD32VW55X_Wifi_BLE_SDK/GD32VW55x_RELEASE_V1.0.2/MSDK/wpa_supplicant/src/ap\wmm.c **** /*
   2:C:/Users/stapi/OneDrive/Desktop/GD32VW553/V1_MQTT_OK/GD32VW55X_Wifi_BLE_SDK/GD32VW55x_RELEASE_V1.0.2/MSDK/wpa_supplicant/src/ap\wmm.c ****  * hostapd / WMM (Wi-Fi Multimedia)
   3:C:/Users/stapi/OneDrive/Desktop/GD32VW553/V1_MQTT_OK/GD32VW55X_Wifi_BLE_SDK/GD32VW55x_RELEASE_V1.0.2/MSDK/wpa_supplicant/src/ap\wmm.c ****  * Copyright 2002-2003, Instant802 Networks, Inc.
   4:C:/Users/stapi/OneDrive/Desktop/GD32VW553/V1_MQTT_OK/GD32VW55X_Wifi_BLE_SDK/GD32VW55x_RELEASE_V1.0.2/MSDK/wpa_supplicant/src/ap\wmm.c ****  * Copyright 2005-2006, Devicescape Software, Inc.
   5:C:/Users/stapi/OneDrive/Desktop/GD32VW553/V1_MQTT_OK/GD32VW55X_Wifi_BLE_SDK/GD32VW55x_RELEASE_V1.0.2/MSDK/wpa_supplicant/src/ap\wmm.c ****  * Copyright (c) 2009, Jouni Malinen <j@w1.fi>
   6:C:/Users/stapi/OneDrive/Desktop/GD32VW553/V1_MQTT_OK/GD32VW55X_Wifi_BLE_SDK/GD32VW55x_RELEASE_V1.0.2/MSDK/wpa_supplicant/src/ap\wmm.c ****  *
   7:C:/Users/stapi/OneDrive/Desktop/GD32VW553/V1_MQTT_OK/GD32VW55X_Wifi_BLE_SDK/GD32VW55x_RELEASE_V1.0.2/MSDK/wpa_supplicant/src/ap\wmm.c ****  * This software may be distributed under the terms of the BSD license.
   8:C:/Users/stapi/OneDrive/Desktop/GD32VW553/V1_MQTT_OK/GD32VW55X_Wifi_BLE_SDK/GD32VW55x_RELEASE_V1.0.2/MSDK/wpa_supplicant/src/ap\wmm.c ****  * See README for more details.
   9:C:/Users/stapi/OneDrive/Desktop/GD32VW553/V1_MQTT_OK/GD32VW55X_Wifi_BLE_SDK/GD32VW55x_RELEASE_V1.0.2/MSDK/wpa_supplicant/src/ap\wmm.c ****  */
  10:C:/Users/stapi/OneDrive/Desktop/GD32VW553/V1_MQTT_OK/GD32VW55X_Wifi_BLE_SDK/GD32VW55x_RELEASE_V1.0.2/MSDK/wpa_supplicant/src/ap\wmm.c **** 
  11:C:/Users/stapi/OneDrive/Desktop/GD32VW553/V1_MQTT_OK/GD32VW55X_Wifi_BLE_SDK/GD32VW55x_RELEASE_V1.0.2/MSDK/wpa_supplicant/src/ap\wmm.c **** #include "utils/includes.h"
  12:C:/Users/stapi/OneDrive/Desktop/GD32VW553/V1_MQTT_OK/GD32VW55X_Wifi_BLE_SDK/GD32VW55x_RELEASE_V1.0.2/MSDK/wpa_supplicant/src/ap\wmm.c **** 
  13:C:/Users/stapi/OneDrive/Desktop/GD32VW553/V1_MQTT_OK/GD32VW55X_Wifi_BLE_SDK/GD32VW55x_RELEASE_V1.0.2/MSDK/wpa_supplicant/src/ap\wmm.c **** #ifdef CONFIG_AP
  14:C:/Users/stapi/OneDrive/Desktop/GD32VW553/V1_MQTT_OK/GD32VW55X_Wifi_BLE_SDK/GD32VW55x_RELEASE_V1.0.2/MSDK/wpa_supplicant/src/ap\wmm.c **** #include "utils/common.h"
  15:C:/Users/stapi/OneDrive/Desktop/GD32VW553/V1_MQTT_OK/GD32VW55X_Wifi_BLE_SDK/GD32VW55x_RELEASE_V1.0.2/MSDK/wpa_supplicant/src/ap\wmm.c **** #include "common/ieee802_11_defs.h"
  16:C:/Users/stapi/OneDrive/Desktop/GD32VW553/V1_MQTT_OK/GD32VW55X_Wifi_BLE_SDK/GD32VW55x_RELEASE_V1.0.2/MSDK/wpa_supplicant/src/ap\wmm.c **** #include "common/ieee802_11_common.h"
  17:C:/Users/stapi/OneDrive/Desktop/GD32VW553/V1_MQTT_OK/GD32VW55X_Wifi_BLE_SDK/GD32VW55x_RELEASE_V1.0.2/MSDK/wpa_supplicant/src/ap\wmm.c **** #include "hostapd.h"
  18:C:/Users/stapi/OneDrive/Desktop/GD32VW553/V1_MQTT_OK/GD32VW55X_Wifi_BLE_SDK/GD32VW55x_RELEASE_V1.0.2/MSDK/wpa_supplicant/src/ap\wmm.c **** #include "ieee802_11.h"
  19:C:/Users/stapi/OneDrive/Desktop/GD32VW553/V1_MQTT_OK/GD32VW55X_Wifi_BLE_SDK/GD32VW55x_RELEASE_V1.0.2/MSDK/wpa_supplicant/src/ap\wmm.c **** #include "sta_info.h"
  20:C:/Users/stapi/OneDrive/Desktop/GD32VW553/V1_MQTT_OK/GD32VW55X_Wifi_BLE_SDK/GD32VW55x_RELEASE_V1.0.2/MSDK/wpa_supplicant/src/ap\wmm.c **** #include "ap_config.h"
  21:C:/Users/stapi/OneDrive/Desktop/GD32VW553/V1_MQTT_OK/GD32VW55X_Wifi_BLE_SDK/GD32VW55x_RELEASE_V1.0.2/MSDK/wpa_supplicant/src/ap\wmm.c **** #include "ap_drv_ops.h"
  22:C:/Users/stapi/OneDrive/Desktop/GD32VW553/V1_MQTT_OK/GD32VW55X_Wifi_BLE_SDK/GD32VW55x_RELEASE_V1.0.2/MSDK/wpa_supplicant/src/ap\wmm.c **** #include "wmm.h"
  23:C:/Users/stapi/OneDrive/Desktop/GD32VW553/V1_MQTT_OK/GD32VW55X_Wifi_BLE_SDK/GD32VW55x_RELEASE_V1.0.2/MSDK/wpa_supplicant/src/ap\wmm.c **** 
  24:C:/Users/stapi/OneDrive/Desktop/GD32VW553/V1_MQTT_OK/GD32VW55X_Wifi_BLE_SDK/GD32VW55x_RELEASE_V1.0.2/MSDK/wpa_supplicant/src/ap\wmm.c **** #ifndef MIN
  25:C:/Users/stapi/OneDrive/Desktop/GD32VW553/V1_MQTT_OK/GD32VW55X_Wifi_BLE_SDK/GD32VW55x_RELEASE_V1.0.2/MSDK/wpa_supplicant/src/ap\wmm.c **** #define MIN(a, b) (((a) < (b)) ? (a) : (b))
  26:C:/Users/stapi/OneDrive/Desktop/GD32VW553/V1_MQTT_OK/GD32VW55X_Wifi_BLE_SDK/GD32VW55x_RELEASE_V1.0.2/MSDK/wpa_supplicant/src/ap\wmm.c **** #endif
  27:C:/Users/stapi/OneDrive/Desktop/GD32VW553/V1_MQTT_OK/GD32VW55X_Wifi_BLE_SDK/GD32VW55x_RELEASE_V1.0.2/MSDK/wpa_supplicant/src/ap\wmm.c **** #ifndef MAX
  28:C:/Users/stapi/OneDrive/Desktop/GD32VW553/V1_MQTT_OK/GD32VW55X_Wifi_BLE_SDK/GD32VW55x_RELEASE_V1.0.2/MSDK/wpa_supplicant/src/ap\wmm.c **** #define MAX(a, b) (((a) > (b)) ? (a) : (b))
  29:C:/Users/stapi/OneDrive/Desktop/GD32VW553/V1_MQTT_OK/GD32VW55X_Wifi_BLE_SDK/GD32VW55x_RELEASE_V1.0.2/MSDK/wpa_supplicant/src/ap\wmm.c **** #endif
  30:C:/Users/stapi/OneDrive/Desktop/GD32VW553/V1_MQTT_OK/GD32VW55X_Wifi_BLE_SDK/GD32VW55x_RELEASE_V1.0.2/MSDK/wpa_supplicant/src/ap\wmm.c **** 
  31:C:/Users/stapi/OneDrive/Desktop/GD32VW553/V1_MQTT_OK/GD32VW55X_Wifi_BLE_SDK/GD32VW55x_RELEASE_V1.0.2/MSDK/wpa_supplicant/src/ap\wmm.c **** 
  32:C:/Users/stapi/OneDrive/Desktop/GD32VW553/V1_MQTT_OK/GD32VW55X_Wifi_BLE_SDK/GD32VW55x_RELEASE_V1.0.2/MSDK/wpa_supplicant/src/ap\wmm.c **** static inline u8 wmm_aci_aifsn(int aifsn, int acm, int aci)
  33:C:/Users/stapi/OneDrive/Desktop/GD32VW553/V1_MQTT_OK/GD32VW55X_Wifi_BLE_SDK/GD32VW55x_RELEASE_V1.0.2/MSDK/wpa_supplicant/src/ap\wmm.c **** {
  34:C:/Users/stapi/OneDrive/Desktop/GD32VW553/V1_MQTT_OK/GD32VW55X_Wifi_BLE_SDK/GD32VW55x_RELEASE_V1.0.2/MSDK/wpa_supplicant/src/ap\wmm.c **** 	u8 ret;
  35:C:/Users/stapi/OneDrive/Desktop/GD32VW553/V1_MQTT_OK/GD32VW55X_Wifi_BLE_SDK/GD32VW55x_RELEASE_V1.0.2/MSDK/wpa_supplicant/src/ap\wmm.c **** 	ret = (aifsn << WMM_AC_AIFNS_SHIFT) & WMM_AC_AIFSN_MASK;
  36:C:/Users/stapi/OneDrive/Desktop/GD32VW553/V1_MQTT_OK/GD32VW55X_Wifi_BLE_SDK/GD32VW55x_RELEASE_V1.0.2/MSDK/wpa_supplicant/src/ap\wmm.c **** 	if (acm)
  37:C:/Users/stapi/OneDrive/Desktop/GD32VW553/V1_MQTT_OK/GD32VW55X_Wifi_BLE_SDK/GD32VW55x_RELEASE_V1.0.2/MSDK/wpa_supplicant/src/ap\wmm.c **** 		ret |= WMM_AC_ACM;
  38:C:/Users/stapi/OneDrive/Desktop/GD32VW553/V1_MQTT_OK/GD32VW55X_Wifi_BLE_SDK/GD32VW55x_RELEASE_V1.0.2/MSDK/wpa_supplicant/src/ap\wmm.c **** 	ret |= (aci << WMM_AC_ACI_SHIFT) & WMM_AC_ACI_MASK;
  39:C:/Users/stapi/OneDrive/Desktop/GD32VW553/V1_MQTT_OK/GD32VW55X_Wifi_BLE_SDK/GD32VW55x_RELEASE_V1.0.2/MSDK/wpa_supplicant/src/ap\wmm.c **** 	return ret;
  40:C:/Users/stapi/OneDrive/Desktop/GD32VW553/V1_MQTT_OK/GD32VW55X_Wifi_BLE_SDK/GD32VW55x_RELEASE_V1.0.2/MSDK/wpa_supplicant/src/ap\wmm.c **** }
  41:C:/Users/stapi/OneDrive/Desktop/GD32VW553/V1_MQTT_OK/GD32VW55X_Wifi_BLE_SDK/GD32VW55x_RELEASE_V1.0.2/MSDK/wpa_supplicant/src/ap\wmm.c **** 
  42:C:/Users/stapi/OneDrive/Desktop/GD32VW553/V1_MQTT_OK/GD32VW55X_Wifi_BLE_SDK/GD32VW55x_RELEASE_V1.0.2/MSDK/wpa_supplicant/src/ap\wmm.c **** 
  43:C:/Users/stapi/OneDrive/Desktop/GD32VW553/V1_MQTT_OK/GD32VW55X_Wifi_BLE_SDK/GD32VW55x_RELEASE_V1.0.2/MSDK/wpa_supplicant/src/ap\wmm.c **** static inline u8 wmm_ecw(int ecwmin, int ecwmax)
  44:C:/Users/stapi/OneDrive/Desktop/GD32VW553/V1_MQTT_OK/GD32VW55X_Wifi_BLE_SDK/GD32VW55x_RELEASE_V1.0.2/MSDK/wpa_supplicant/src/ap\wmm.c **** {
  45:C:/Users/stapi/OneDrive/Desktop/GD32VW553/V1_MQTT_OK/GD32VW55X_Wifi_BLE_SDK/GD32VW55x_RELEASE_V1.0.2/MSDK/wpa_supplicant/src/ap\wmm.c **** 	return ((ecwmin << WMM_AC_ECWMIN_SHIFT) & WMM_AC_ECWMIN_MASK) |
  46:C:/Users/stapi/OneDrive/Desktop/GD32VW553/V1_MQTT_OK/GD32VW55X_Wifi_BLE_SDK/GD32VW55x_RELEASE_V1.0.2/MSDK/wpa_supplicant/src/ap\wmm.c **** 		((ecwmax << WMM_AC_ECWMAX_SHIFT) & WMM_AC_ECWMAX_MASK);
  47:C:/Users/stapi/OneDrive/Desktop/GD32VW553/V1_MQTT_OK/GD32VW55X_Wifi_BLE_SDK/GD32VW55x_RELEASE_V1.0.2/MSDK/wpa_supplicant/src/ap\wmm.c **** }
  48:C:/Users/stapi/OneDrive/Desktop/GD32VW553/V1_MQTT_OK/GD32VW55X_Wifi_BLE_SDK/GD32VW55x_RELEASE_V1.0.2/MSDK/wpa_supplicant/src/ap\wmm.c **** 
  49:C:/Users/stapi/OneDrive/Desktop/GD32VW553/V1_MQTT_OK/GD32VW55X_Wifi_BLE_SDK/GD32VW55x_RELEASE_V1.0.2/MSDK/wpa_supplicant/src/ap\wmm.c **** 
  50:C:/Users/stapi/OneDrive/Desktop/GD32VW553/V1_MQTT_OK/GD32VW55X_Wifi_BLE_SDK/GD32VW55x_RELEASE_V1.0.2/MSDK/wpa_supplicant/src/ap\wmm.c **** static void
  51:C:/Users/stapi/OneDrive/Desktop/GD32VW553/V1_MQTT_OK/GD32VW55X_Wifi_BLE_SDK/GD32VW55x_RELEASE_V1.0.2/MSDK/wpa_supplicant/src/ap\wmm.c **** wmm_set_regulatory_limit(const struct hostapd_wmm_ac_params *wmm_conf,
  52:C:/Users/stapi/OneDrive/Desktop/GD32VW553/V1_MQTT_OK/GD32VW55X_Wifi_BLE_SDK/GD32VW55x_RELEASE_V1.0.2/MSDK/wpa_supplicant/src/ap\wmm.c **** 			 struct hostapd_wmm_ac_params *wmm,
  53:C:/Users/stapi/OneDrive/Desktop/GD32VW553/V1_MQTT_OK/GD32VW55X_Wifi_BLE_SDK/GD32VW55x_RELEASE_V1.0.2/MSDK/wpa_supplicant/src/ap\wmm.c **** 			 const struct hostapd_wmm_rule *wmm_reg)
  54:C:/Users/stapi/OneDrive/Desktop/GD32VW553/V1_MQTT_OK/GD32VW55X_Wifi_BLE_SDK/GD32VW55x_RELEASE_V1.0.2/MSDK/wpa_supplicant/src/ap\wmm.c **** {
  55:C:/Users/stapi/OneDrive/Desktop/GD32VW553/V1_MQTT_OK/GD32VW55X_Wifi_BLE_SDK/GD32VW55x_RELEASE_V1.0.2/MSDK/wpa_supplicant/src/ap\wmm.c **** 	int ac;
  56:C:/Users/stapi/OneDrive/Desktop/GD32VW553/V1_MQTT_OK/GD32VW55X_Wifi_BLE_SDK/GD32VW55x_RELEASE_V1.0.2/MSDK/wpa_supplicant/src/ap\wmm.c **** 
  57:C:/Users/stapi/OneDrive/Desktop/GD32VW553/V1_MQTT_OK/GD32VW55X_Wifi_BLE_SDK/GD32VW55x_RELEASE_V1.0.2/MSDK/wpa_supplicant/src/ap\wmm.c **** 	for (ac = 0; ac < WMM_AC_NUM; ac++) {
  58:C:/Users/stapi/OneDrive/Desktop/GD32VW553/V1_MQTT_OK/GD32VW55X_Wifi_BLE_SDK/GD32VW55x_RELEASE_V1.0.2/MSDK/wpa_supplicant/src/ap\wmm.c **** 		wmm[ac].cwmin = MAX(wmm_conf[ac].cwmin, wmm_reg[ac].min_cwmin);
  59:C:/Users/stapi/OneDrive/Desktop/GD32VW553/V1_MQTT_OK/GD32VW55X_Wifi_BLE_SDK/GD32VW55x_RELEASE_V1.0.2/MSDK/wpa_supplicant/src/ap\wmm.c **** 		wmm[ac].cwmax = MAX(wmm_conf[ac].cwmax, wmm_reg[ac].min_cwmax);
  60:C:/Users/stapi/OneDrive/Desktop/GD32VW553/V1_MQTT_OK/GD32VW55X_Wifi_BLE_SDK/GD32VW55x_RELEASE_V1.0.2/MSDK/wpa_supplicant/src/ap\wmm.c **** 		wmm[ac].aifs = MAX(wmm_conf[ac].aifs, wmm_reg[ac].min_aifs);
  61:C:/Users/stapi/OneDrive/Desktop/GD32VW553/V1_MQTT_OK/GD32VW55X_Wifi_BLE_SDK/GD32VW55x_RELEASE_V1.0.2/MSDK/wpa_supplicant/src/ap\wmm.c **** 		wmm[ac].txop_limit =
  62:C:/Users/stapi/OneDrive/Desktop/GD32VW553/V1_MQTT_OK/GD32VW55X_Wifi_BLE_SDK/GD32VW55x_RELEASE_V1.0.2/MSDK/wpa_supplicant/src/ap\wmm.c **** 			MIN(wmm_conf[ac].txop_limit, wmm_reg[ac].max_txop);
  63:C:/Users/stapi/OneDrive/Desktop/GD32VW553/V1_MQTT_OK/GD32VW55X_Wifi_BLE_SDK/GD32VW55x_RELEASE_V1.0.2/MSDK/wpa_supplicant/src/ap\wmm.c **** 		wmm[ac].admission_control_mandatory =
  64:C:/Users/stapi/OneDrive/Desktop/GD32VW553/V1_MQTT_OK/GD32VW55X_Wifi_BLE_SDK/GD32VW55x_RELEASE_V1.0.2/MSDK/wpa_supplicant/src/ap\wmm.c **** 			wmm_conf[ac].admission_control_mandatory;
  65:C:/Users/stapi/OneDrive/Desktop/GD32VW553/V1_MQTT_OK/GD32VW55X_Wifi_BLE_SDK/GD32VW55x_RELEASE_V1.0.2/MSDK/wpa_supplicant/src/ap\wmm.c **** 	}
  66:C:/Users/stapi/OneDrive/Desktop/GD32VW553/V1_MQTT_OK/GD32VW55X_Wifi_BLE_SDK/GD32VW55x_RELEASE_V1.0.2/MSDK/wpa_supplicant/src/ap\wmm.c **** }
  67:C:/Users/stapi/OneDrive/Desktop/GD32VW553/V1_MQTT_OK/GD32VW55X_Wifi_BLE_SDK/GD32VW55x_RELEASE_V1.0.2/MSDK/wpa_supplicant/src/ap\wmm.c **** 
  68:C:/Users/stapi/OneDrive/Desktop/GD32VW553/V1_MQTT_OK/GD32VW55X_Wifi_BLE_SDK/GD32VW55x_RELEASE_V1.0.2/MSDK/wpa_supplicant/src/ap\wmm.c **** 
  69:C:/Users/stapi/OneDrive/Desktop/GD32VW553/V1_MQTT_OK/GD32VW55X_Wifi_BLE_SDK/GD32VW55x_RELEASE_V1.0.2/MSDK/wpa_supplicant/src/ap\wmm.c **** /*
  70:C:/Users/stapi/OneDrive/Desktop/GD32VW553/V1_MQTT_OK/GD32VW55X_Wifi_BLE_SDK/GD32VW55x_RELEASE_V1.0.2/MSDK/wpa_supplicant/src/ap\wmm.c ****  * Calculate WMM regulatory limit if any.
  71:C:/Users/stapi/OneDrive/Desktop/GD32VW553/V1_MQTT_OK/GD32VW55X_Wifi_BLE_SDK/GD32VW55x_RELEASE_V1.0.2/MSDK/wpa_supplicant/src/ap\wmm.c ****  */
  72:C:/Users/stapi/OneDrive/Desktop/GD32VW553/V1_MQTT_OK/GD32VW55X_Wifi_BLE_SDK/GD32VW55x_RELEASE_V1.0.2/MSDK/wpa_supplicant/src/ap\wmm.c **** static void wmm_calc_regulatory_limit(struct hostapd_data *hapd,
  73:C:/Users/stapi/OneDrive/Desktop/GD32VW553/V1_MQTT_OK/GD32VW55X_Wifi_BLE_SDK/GD32VW55x_RELEASE_V1.0.2/MSDK/wpa_supplicant/src/ap\wmm.c **** 				      struct hostapd_wmm_ac_params *acp)
  74:C:/Users/stapi/OneDrive/Desktop/GD32VW553/V1_MQTT_OK/GD32VW55X_Wifi_BLE_SDK/GD32VW55x_RELEASE_V1.0.2/MSDK/wpa_supplicant/src/ap\wmm.c **** {
  75:C:/Users/stapi/OneDrive/Desktop/GD32VW553/V1_MQTT_OK/GD32VW55X_Wifi_BLE_SDK/GD32VW55x_RELEASE_V1.0.2/MSDK/wpa_supplicant/src/ap\wmm.c **** 	struct hostapd_hw_modes *mode = hapd->iface->current_mode;
  76:C:/Users/stapi/OneDrive/Desktop/GD32VW553/V1_MQTT_OK/GD32VW55X_Wifi_BLE_SDK/GD32VW55x_RELEASE_V1.0.2/MSDK/wpa_supplicant/src/ap\wmm.c **** 	int c;
  77:C:/Users/stapi/OneDrive/Desktop/GD32VW553/V1_MQTT_OK/GD32VW55X_Wifi_BLE_SDK/GD32VW55x_RELEASE_V1.0.2/MSDK/wpa_supplicant/src/ap\wmm.c **** 
  78:C:/Users/stapi/OneDrive/Desktop/GD32VW553/V1_MQTT_OK/GD32VW55X_Wifi_BLE_SDK/GD32VW55x_RELEASE_V1.0.2/MSDK/wpa_supplicant/src/ap\wmm.c **** 	os_memcpy(acp, hapd->iconf->wmm_ac_params,
  79:C:/Users/stapi/OneDrive/Desktop/GD32VW553/V1_MQTT_OK/GD32VW55X_Wifi_BLE_SDK/GD32VW55x_RELEASE_V1.0.2/MSDK/wpa_supplicant/src/ap\wmm.c **** 		  sizeof(hapd->iconf->wmm_ac_params));
  80:C:/Users/stapi/OneDrive/Desktop/GD32VW553/V1_MQTT_OK/GD32VW55X_Wifi_BLE_SDK/GD32VW55x_RELEASE_V1.0.2/MSDK/wpa_supplicant/src/ap\wmm.c **** 
  81:C:/Users/stapi/OneDrive/Desktop/GD32VW553/V1_MQTT_OK/GD32VW55X_Wifi_BLE_SDK/GD32VW55x_RELEASE_V1.0.2/MSDK/wpa_supplicant/src/ap\wmm.c **** 	for (c = 0; mode && c < mode->num_channels; c++) {
  82:C:/Users/stapi/OneDrive/Desktop/GD32VW553/V1_MQTT_OK/GD32VW55X_Wifi_BLE_SDK/GD32VW55x_RELEASE_V1.0.2/MSDK/wpa_supplicant/src/ap\wmm.c **** 		struct hostapd_channel_data *chan = &mode->channels[c];
  83:C:/Users/stapi/OneDrive/Desktop/GD32VW553/V1_MQTT_OK/GD32VW55X_Wifi_BLE_SDK/GD32VW55x_RELEASE_V1.0.2/MSDK/wpa_supplicant/src/ap\wmm.c **** 
  84:C:/Users/stapi/OneDrive/Desktop/GD32VW553/V1_MQTT_OK/GD32VW55X_Wifi_BLE_SDK/GD32VW55x_RELEASE_V1.0.2/MSDK/wpa_supplicant/src/ap\wmm.c **** 		if (chan->freq != hapd->iface->freq)
  85:C:/Users/stapi/OneDrive/Desktop/GD32VW553/V1_MQTT_OK/GD32VW55X_Wifi_BLE_SDK/GD32VW55x_RELEASE_V1.0.2/MSDK/wpa_supplicant/src/ap\wmm.c **** 			continue;
  86:C:/Users/stapi/OneDrive/Desktop/GD32VW553/V1_MQTT_OK/GD32VW55X_Wifi_BLE_SDK/GD32VW55x_RELEASE_V1.0.2/MSDK/wpa_supplicant/src/ap\wmm.c **** 
  87:C:/Users/stapi/OneDrive/Desktop/GD32VW553/V1_MQTT_OK/GD32VW55X_Wifi_BLE_SDK/GD32VW55x_RELEASE_V1.0.2/MSDK/wpa_supplicant/src/ap\wmm.c **** 		if (chan->wmm_rules_valid)
  88:C:/Users/stapi/OneDrive/Desktop/GD32VW553/V1_MQTT_OK/GD32VW55X_Wifi_BLE_SDK/GD32VW55x_RELEASE_V1.0.2/MSDK/wpa_supplicant/src/ap\wmm.c **** 			wmm_set_regulatory_limit(hapd->iconf->wmm_ac_params,
  89:C:/Users/stapi/OneDrive/Desktop/GD32VW553/V1_MQTT_OK/GD32VW55X_Wifi_BLE_SDK/GD32VW55x_RELEASE_V1.0.2/MSDK/wpa_supplicant/src/ap\wmm.c **** 						 acp, chan->wmm_rules);
  90:C:/Users/stapi/OneDrive/Desktop/GD32VW553/V1_MQTT_OK/GD32VW55X_Wifi_BLE_SDK/GD32VW55x_RELEASE_V1.0.2/MSDK/wpa_supplicant/src/ap\wmm.c **** 		break;
  91:C:/Users/stapi/OneDrive/Desktop/GD32VW553/V1_MQTT_OK/GD32VW55X_Wifi_BLE_SDK/GD32VW55x_RELEASE_V1.0.2/MSDK/wpa_supplicant/src/ap\wmm.c **** 	}
  92:C:/Users/stapi/OneDrive/Desktop/GD32VW553/V1_MQTT_OK/GD32VW55X_Wifi_BLE_SDK/GD32VW55x_RELEASE_V1.0.2/MSDK/wpa_supplicant/src/ap\wmm.c **** 
  93:C:/Users/stapi/OneDrive/Desktop/GD32VW553/V1_MQTT_OK/GD32VW55X_Wifi_BLE_SDK/GD32VW55x_RELEASE_V1.0.2/MSDK/wpa_supplicant/src/ap\wmm.c **** 	/*
  94:C:/Users/stapi/OneDrive/Desktop/GD32VW553/V1_MQTT_OK/GD32VW55X_Wifi_BLE_SDK/GD32VW55x_RELEASE_V1.0.2/MSDK/wpa_supplicant/src/ap\wmm.c **** 	 * Check if we need to update set count. Since both were initialized to
  95:C:/Users/stapi/OneDrive/Desktop/GD32VW553/V1_MQTT_OK/GD32VW55X_Wifi_BLE_SDK/GD32VW55x_RELEASE_V1.0.2/MSDK/wpa_supplicant/src/ap\wmm.c **** 	 * zero we can compare the whole array in one shot.
  96:C:/Users/stapi/OneDrive/Desktop/GD32VW553/V1_MQTT_OK/GD32VW55X_Wifi_BLE_SDK/GD32VW55x_RELEASE_V1.0.2/MSDK/wpa_supplicant/src/ap\wmm.c **** 	 */
  97:C:/Users/stapi/OneDrive/Desktop/GD32VW553/V1_MQTT_OK/GD32VW55X_Wifi_BLE_SDK/GD32VW55x_RELEASE_V1.0.2/MSDK/wpa_supplicant/src/ap\wmm.c **** 	if (os_memcmp(acp, hapd->iface->prev_wmm,
  98:C:/Users/stapi/OneDrive/Desktop/GD32VW553/V1_MQTT_OK/GD32VW55X_Wifi_BLE_SDK/GD32VW55x_RELEASE_V1.0.2/MSDK/wpa_supplicant/src/ap\wmm.c **** 		      sizeof(hapd->iconf->wmm_ac_params)) != 0) {
  99:C:/Users/stapi/OneDrive/Desktop/GD32VW553/V1_MQTT_OK/GD32VW55X_Wifi_BLE_SDK/GD32VW55x_RELEASE_V1.0.2/MSDK/wpa_supplicant/src/ap\wmm.c **** 		os_memcpy(hapd->iface->prev_wmm, acp,
 100:C:/Users/stapi/OneDrive/Desktop/GD32VW553/V1_MQTT_OK/GD32VW55X_Wifi_BLE_SDK/GD32VW55x_RELEASE_V1.0.2/MSDK/wpa_supplicant/src/ap\wmm.c **** 			  sizeof(hapd->iconf->wmm_ac_params));
 101:C:/Users/stapi/OneDrive/Desktop/GD32VW553/V1_MQTT_OK/GD32VW55X_Wifi_BLE_SDK/GD32VW55x_RELEASE_V1.0.2/MSDK/wpa_supplicant/src/ap\wmm.c **** 		hapd->parameter_set_count++;
 102:C:/Users/stapi/OneDrive/Desktop/GD32VW553/V1_MQTT_OK/GD32VW55X_Wifi_BLE_SDK/GD32VW55x_RELEASE_V1.0.2/MSDK/wpa_supplicant/src/ap\wmm.c **** 	}
 103:C:/Users/stapi/OneDrive/Desktop/GD32VW553/V1_MQTT_OK/GD32VW55X_Wifi_BLE_SDK/GD32VW55x_RELEASE_V1.0.2/MSDK/wpa_supplicant/src/ap\wmm.c **** }
 104:C:/Users/stapi/OneDrive/Desktop/GD32VW553/V1_MQTT_OK/GD32VW55X_Wifi_BLE_SDK/GD32VW55x_RELEASE_V1.0.2/MSDK/wpa_supplicant/src/ap\wmm.c **** 
 105:C:/Users/stapi/OneDrive/Desktop/GD32VW553/V1_MQTT_OK/GD32VW55X_Wifi_BLE_SDK/GD32VW55x_RELEASE_V1.0.2/MSDK/wpa_supplicant/src/ap\wmm.c **** 
 106:C:/Users/stapi/OneDrive/Desktop/GD32VW553/V1_MQTT_OK/GD32VW55X_Wifi_BLE_SDK/GD32VW55x_RELEASE_V1.0.2/MSDK/wpa_supplicant/src/ap\wmm.c **** /*
 107:C:/Users/stapi/OneDrive/Desktop/GD32VW553/V1_MQTT_OK/GD32VW55X_Wifi_BLE_SDK/GD32VW55x_RELEASE_V1.0.2/MSDK/wpa_supplicant/src/ap\wmm.c ****  * Add WMM Parameter Element to Beacon, Probe Response, and (Re)Association
 108:C:/Users/stapi/OneDrive/Desktop/GD32VW553/V1_MQTT_OK/GD32VW55X_Wifi_BLE_SDK/GD32VW55x_RELEASE_V1.0.2/MSDK/wpa_supplicant/src/ap\wmm.c ****  * Response frames.
 109:C:/Users/stapi/OneDrive/Desktop/GD32VW553/V1_MQTT_OK/GD32VW55X_Wifi_BLE_SDK/GD32VW55x_RELEASE_V1.0.2/MSDK/wpa_supplicant/src/ap\wmm.c ****  */
 110:C:/Users/stapi/OneDrive/Desktop/GD32VW553/V1_MQTT_OK/GD32VW55X_Wifi_BLE_SDK/GD32VW55x_RELEASE_V1.0.2/MSDK/wpa_supplicant/src/ap\wmm.c **** u8 * hostapd_eid_wmm(struct hostapd_data *hapd, u8 *eid)
 111:C:/Users/stapi/OneDrive/Desktop/GD32VW553/V1_MQTT_OK/GD32VW55X_Wifi_BLE_SDK/GD32VW55x_RELEASE_V1.0.2/MSDK/wpa_supplicant/src/ap\wmm.c **** {
  16              		.loc 1 111 1
  17              		.cfi_startproc
  18              	.LVL0:
  19 0000 17030000 		call	t0,__riscv_save_3
  19      E7020300 
  20              		.cfi_offset 18, -16
  21              		.cfi_offset 9, -12
  22              		.cfi_offset 8, -8
  23              		.cfi_offset 1, -4
  24              		.cfi_def_cfa_offset 16
 112:C:/Users/stapi/OneDrive/Desktop/GD32VW553/V1_MQTT_OK/GD32VW55X_Wifi_BLE_SDK/GD32VW55x_RELEASE_V1.0.2/MSDK/wpa_supplicant/src/ap\wmm.c **** 	u8 *pos = eid;
  25              		.loc 1 112 2
 111:C:/Users/stapi/OneDrive/Desktop/GD32VW553/V1_MQTT_OK/GD32VW55X_Wifi_BLE_SDK/GD32VW55x_RELEASE_V1.0.2/MSDK/wpa_supplicant/src/ap\wmm.c **** 	u8 *pos = eid;
  26              		.loc 1 111 1 is_stmt 0
  27 0008 5D71     		addi	sp,sp,-80
  28              		.cfi_def_cfa_offset 96
 111:C:/Users/stapi/OneDrive/Desktop/GD32VW553/V1_MQTT_OK/GD32VW55X_Wifi_BLE_SDK/GD32VW55x_RELEASE_V1.0.2/MSDK/wpa_supplicant/src/ap\wmm.c **** 	u8 *pos = eid;
  29              		.loc 1 111 1
  30 000a AA84     		mv	s1,a0
  31 000c 2E84     		mv	s0,a1
  32              	.LVL1:
 113:C:/Users/stapi/OneDrive/Desktop/GD32VW553/V1_MQTT_OK/GD32VW55X_Wifi_BLE_SDK/GD32VW55x_RELEASE_V1.0.2/MSDK/wpa_supplicant/src/ap\wmm.c **** 	struct wmm_parameter_element *wmm =
  33              		.loc 1 113 2 is_stmt 1
 114:C:/Users/stapi/OneDrive/Desktop/GD32VW553/V1_MQTT_OK/GD32VW55X_Wifi_BLE_SDK/GD32VW55x_RELEASE_V1.0.2/MSDK/wpa_supplicant/src/ap\wmm.c **** 		(struct wmm_parameter_element *) (pos + 2);
 115:C:/Users/stapi/OneDrive/Desktop/GD32VW553/V1_MQTT_OK/GD32VW55X_Wifi_BLE_SDK/GD32VW55x_RELEASE_V1.0.2/MSDK/wpa_supplicant/src/ap\wmm.c **** 	struct hostapd_wmm_ac_params wmmp[WMM_AC_NUM];
  34              		.loc 1 115 2
 116:C:/Users/stapi/OneDrive/Desktop/GD32VW553/V1_MQTT_OK/GD32VW55X_Wifi_BLE_SDK/GD32VW55x_RELEASE_V1.0.2/MSDK/wpa_supplicant/src/ap\wmm.c **** 	int e;
  35              		.loc 1 116 2
 117:C:/Users/stapi/OneDrive/Desktop/GD32VW553/V1_MQTT_OK/GD32VW55X_Wifi_BLE_SDK/GD32VW55x_RELEASE_V1.0.2/MSDK/wpa_supplicant/src/ap\wmm.c **** 
 118:C:/Users/stapi/OneDrive/Desktop/GD32VW553/V1_MQTT_OK/GD32VW55X_Wifi_BLE_SDK/GD32VW55x_RELEASE_V1.0.2/MSDK/wpa_supplicant/src/ap\wmm.c **** 	os_memset(wmmp, 0, sizeof(wmmp));
  36              		.loc 1 118 2
  37 000e 13060005 		li	a2,80
  38 0012 8145     		li	a1,0
  39              	.LVL2:
  40 0014 0A85     		mv	a0,sp
  41              	.LVL3:
  42 0016 97000000 		call	os_memset
  42      E7800000 
  43              	.LVL4:
 119:C:/Users/stapi/OneDrive/Desktop/GD32VW553/V1_MQTT_OK/GD32VW55X_Wifi_BLE_SDK/GD32VW55x_RELEASE_V1.0.2/MSDK/wpa_supplicant/src/ap\wmm.c **** 
 120:C:/Users/stapi/OneDrive/Desktop/GD32VW553/V1_MQTT_OK/GD32VW55X_Wifi_BLE_SDK/GD32VW55x_RELEASE_V1.0.2/MSDK/wpa_supplicant/src/ap\wmm.c **** 	if (!hapd->conf->wmm_enabled)
  44              		.loc 1 120 2
  45              		.loc 1 120 17 is_stmt 0
  46 001e 9C44     		lw	a5,8(s1)
  47              		.loc 1 120 5
  48 0020 83A70726 		lw	a5,608(a5)
  49 0024 63830712 		beq	a5,zero,.L2
 121:C:/Users/stapi/OneDrive/Desktop/GD32VW553/V1_MQTT_OK/GD32VW55X_Wifi_BLE_SDK/GD32VW55x_RELEASE_V1.0.2/MSDK/wpa_supplicant/src/ap\wmm.c **** 		return eid;
 122:C:/Users/stapi/OneDrive/Desktop/GD32VW553/V1_MQTT_OK/GD32VW55X_Wifi_BLE_SDK/GD32VW55x_RELEASE_V1.0.2/MSDK/wpa_supplicant/src/ap\wmm.c **** 	wmm_calc_regulatory_limit(hapd, wmmp);
  50              		.loc 1 122 2 is_stmt 1
  51              	.LVL5:
  52              	.LBB15:
  53              	.LBB16:
  75:C:/Users/stapi/OneDrive/Desktop/GD32VW553/V1_MQTT_OK/GD32VW55X_Wifi_BLE_SDK/GD32VW55x_RELEASE_V1.0.2/MSDK/wpa_supplicant/src/ap\wmm.c **** 	int c;
  54              		.loc 1 75 2
  78:C:/Users/stapi/OneDrive/Desktop/GD32VW553/V1_MQTT_OK/GD32VW55X_Wifi_BLE_SDK/GD32VW55x_RELEASE_V1.0.2/MSDK/wpa_supplicant/src/ap\wmm.c **** 		  sizeof(hapd->iconf->wmm_ac_params));
  55              		.loc 1 78 28 is_stmt 0
  56 0028 CC40     		lw	a1,4(s1)
  75:C:/Users/stapi/OneDrive/Desktop/GD32VW553/V1_MQTT_OK/GD32VW55X_Wifi_BLE_SDK/GD32VW55x_RELEASE_V1.0.2/MSDK/wpa_supplicant/src/ap\wmm.c **** 	int c;
  57              		.loc 1 75 27
  58 002a 9C40     		lw	a5,0(s1)
  78:C:/Users/stapi/OneDrive/Desktop/GD32VW553/V1_MQTT_OK/GD32VW55X_Wifi_BLE_SDK/GD32VW55x_RELEASE_V1.0.2/MSDK/wpa_supplicant/src/ap\wmm.c **** 		  sizeof(hapd->iconf->wmm_ac_params));
  59              		.loc 1 78 2
  60 002c 13060005 		li	a2,80
  61 0030 9385850C 		addi	a1,a1,200
  62 0034 0A85     		mv	a0,sp
  75:C:/Users/stapi/OneDrive/Desktop/GD32VW553/V1_MQTT_OK/GD32VW55X_Wifi_BLE_SDK/GD32VW55x_RELEASE_V1.0.2/MSDK/wpa_supplicant/src/ap\wmm.c **** 	int c;
  63              		.loc 1 75 27
  64 0036 03A94746 		lw	s2,1124(a5)
  65              	.LVL6:
  76:C:/Users/stapi/OneDrive/Desktop/GD32VW553/V1_MQTT_OK/GD32VW55X_Wifi_BLE_SDK/GD32VW55x_RELEASE_V1.0.2/MSDK/wpa_supplicant/src/ap\wmm.c **** 
  66              		.loc 1 76 2 is_stmt 1
  78:C:/Users/stapi/OneDrive/Desktop/GD32VW553/V1_MQTT_OK/GD32VW55X_Wifi_BLE_SDK/GD32VW55x_RELEASE_V1.0.2/MSDK/wpa_supplicant/src/ap\wmm.c **** 		  sizeof(hapd->iconf->wmm_ac_params));
  67              		.loc 1 78 2
  68 003a 97000000 		call	os_memcpy
  68      E7800000 
  69              	.LVL7:
  81:C:/Users/stapi/OneDrive/Desktop/GD32VW553/V1_MQTT_OK/GD32VW55X_Wifi_BLE_SDK/GD32VW55x_RELEASE_V1.0.2/MSDK/wpa_supplicant/src/ap\wmm.c **** 		struct hostapd_channel_data *chan = &mode->channels[c];
  70              		.loc 1 81 2
  71              	.LBB17:
  84:C:/Users/stapi/OneDrive/Desktop/GD32VW553/V1_MQTT_OK/GD32VW55X_Wifi_BLE_SDK/GD32VW55x_RELEASE_V1.0.2/MSDK/wpa_supplicant/src/ap\wmm.c **** 			continue;
  72              		.loc 1 84 25 is_stmt 0
  73 0042 8C40     		lw	a1,0(s1)
  74              	.LBE17:
  81:C:/Users/stapi/OneDrive/Desktop/GD32VW553/V1_MQTT_OK/GD32VW55X_Wifi_BLE_SDK/GD32VW55x_RELEASE_V1.0.2/MSDK/wpa_supplicant/src/ap\wmm.c **** 		struct hostapd_channel_data *chan = &mode->channels[c];
  75              		.loc 1 81 9
  76 0044 0147     		li	a4,0
  77              	.LBB20:
  82:C:/Users/stapi/OneDrive/Desktop/GD32VW553/V1_MQTT_OK/GD32VW55X_Wifi_BLE_SDK/GD32VW55x_RELEASE_V1.0.2/MSDK/wpa_supplicant/src/ap\wmm.c **** 
  78              		.loc 1 82 32
  79 0046 93068006 		li	a3,104
  80              	.LVL8:
  81              	.L3:
  82              	.LBE20:
  81:C:/Users/stapi/OneDrive/Desktop/GD32VW553/V1_MQTT_OK/GD32VW55X_Wifi_BLE_SDK/GD32VW55x_RELEASE_V1.0.2/MSDK/wpa_supplicant/src/ap\wmm.c **** 		struct hostapd_channel_data *chan = &mode->channels[c];
  83              		.loc 1 81 14 is_stmt 1
  81:C:/Users/stapi/OneDrive/Desktop/GD32VW553/V1_MQTT_OK/GD32VW55X_Wifi_BLE_SDK/GD32VW55x_RELEASE_V1.0.2/MSDK/wpa_supplicant/src/ap\wmm.c **** 		struct hostapd_channel_data *chan = &mode->channels[c];
  84              		.loc 1 81 2 is_stmt 0
  85 004a 63030902 		beq	s2,zero,.L9
  81:C:/Users/stapi/OneDrive/Desktop/GD32VW553/V1_MQTT_OK/GD32VW55X_Wifi_BLE_SDK/GD32VW55x_RELEASE_V1.0.2/MSDK/wpa_supplicant/src/ap\wmm.c **** 		struct hostapd_channel_data *chan = &mode->channels[c];
  86              		.loc 1 81 19
  87 004e 83274900 		lw	a5,4(s2)
  88 0052 635FF700 		bge	a4,a5,.L9
  89              	.LBB21:
  82:C:/Users/stapi/OneDrive/Desktop/GD32VW553/V1_MQTT_OK/GD32VW55X_Wifi_BLE_SDK/GD32VW55x_RELEASE_V1.0.2/MSDK/wpa_supplicant/src/ap\wmm.c **** 
  90              		.loc 1 82 3 is_stmt 1
  82:C:/Users/stapi/OneDrive/Desktop/GD32VW553/V1_MQTT_OK/GD32VW55X_Wifi_BLE_SDK/GD32VW55x_RELEASE_V1.0.2/MSDK/wpa_supplicant/src/ap\wmm.c **** 
  91              		.loc 1 82 32 is_stmt 0
  92 0056 83278900 		lw	a5,8(s2)
  84:C:/Users/stapi/OneDrive/Desktop/GD32VW553/V1_MQTT_OK/GD32VW55X_Wifi_BLE_SDK/GD32VW55x_RELEASE_V1.0.2/MSDK/wpa_supplicant/src/ap\wmm.c **** 			continue;
  93              		.loc 1 84 6
  94 005a 03A64547 		lw	a2,1140(a1)
  82:C:/Users/stapi/OneDrive/Desktop/GD32VW553/V1_MQTT_OK/GD32VW55X_Wifi_BLE_SDK/GD32VW55x_RELEASE_V1.0.2/MSDK/wpa_supplicant/src/ap\wmm.c **** 
  95              		.loc 1 82 32
  96 005e FF17D7C4 		maddr32	a5, a4, a3
  97              	.LVL9:
  84:C:/Users/stapi/OneDrive/Desktop/GD32VW553/V1_MQTT_OK/GD32VW55X_Wifi_BLE_SDK/GD32VW55x_RELEASE_V1.0.2/MSDK/wpa_supplicant/src/ap\wmm.c **** 			continue;
  98              		.loc 1 84 3 is_stmt 1
  84:C:/Users/stapi/OneDrive/Desktop/GD32VW553/V1_MQTT_OK/GD32VW55X_Wifi_BLE_SDK/GD32VW55x_RELEASE_V1.0.2/MSDK/wpa_supplicant/src/ap\wmm.c **** 			continue;
  99              		.loc 1 84 6 is_stmt 0
 100 0062 C843     		lw	a0,4(a5)
 101 0064 6304C500 		beq	a0,a2,.L4
  85:C:/Users/stapi/OneDrive/Desktop/GD32VW553/V1_MQTT_OK/GD32VW55X_Wifi_BLE_SDK/GD32VW55x_RELEASE_V1.0.2/MSDK/wpa_supplicant/src/ap\wmm.c **** 
 102              		.loc 1 85 4 is_stmt 1
 103              	.LBE21:
  81:C:/Users/stapi/OneDrive/Desktop/GD32VW553/V1_MQTT_OK/GD32VW55X_Wifi_BLE_SDK/GD32VW55x_RELEASE_V1.0.2/MSDK/wpa_supplicant/src/ap\wmm.c **** 		struct hostapd_channel_data *chan = &mode->channels[c];
 104              		.loc 1 81 46
  81:C:/Users/stapi/OneDrive/Desktop/GD32VW553/V1_MQTT_OK/GD32VW55X_Wifi_BLE_SDK/GD32VW55x_RELEASE_V1.0.2/MSDK/wpa_supplicant/src/ap\wmm.c **** 		struct hostapd_channel_data *chan = &mode->channels[c];
 105              		.loc 1 81 47 is_stmt 0
 106 0068 0507     		addi	a4,a4,1
 107              	.LVL10:
 108 006a C5B7     		j	.L3
 109              	.L4:
 110              	.LBB22:
  87:C:/Users/stapi/OneDrive/Desktop/GD32VW553/V1_MQTT_OK/GD32VW55X_Wifi_BLE_SDK/GD32VW55x_RELEASE_V1.0.2/MSDK/wpa_supplicant/src/ap\wmm.c **** 			wmm_set_regulatory_limit(hapd->iconf->wmm_ac_params,
 111              		.loc 1 87 3 is_stmt 1
  87:C:/Users/stapi/OneDrive/Desktop/GD32VW553/V1_MQTT_OK/GD32VW55X_Wifi_BLE_SDK/GD32VW55x_RELEASE_V1.0.2/MSDK/wpa_supplicant/src/ap\wmm.c **** 			wmm_set_regulatory_limit(hapd->iconf->wmm_ac_params,
 112              		.loc 1 87 6 is_stmt 0
 113 006c D853     		lw	a4,36(a5)
 114              	.LVL11:
 115 006e 65E7     		bne	a4,zero,.L5
 116              	.LVL12:
 117              	.L9:
 118              	.LBE22:
  97:C:/Users/stapi/OneDrive/Desktop/GD32VW553/V1_MQTT_OK/GD32VW55X_Wifi_BLE_SDK/GD32VW55x_RELEASE_V1.0.2/MSDK/wpa_supplicant/src/ap\wmm.c **** 		      sizeof(hapd->iconf->wmm_ac_params)) != 0) {
 119              		.loc 1 97 2 is_stmt 1
  97:C:/Users/stapi/OneDrive/Desktop/GD32VW553/V1_MQTT_OK/GD32VW55X_Wifi_BLE_SDK/GD32VW55x_RELEASE_V1.0.2/MSDK/wpa_supplicant/src/ap\wmm.c **** 		      sizeof(hapd->iconf->wmm_ac_params)) != 0) {
 120              		.loc 1 97 6 is_stmt 0
 121 0070 13060005 		li	a2,80
 122 0074 9385C54F 		addi	a1,a1,1276
 123 0078 0A85     		mv	a0,sp
 124 007a 97000000 		call	os_memcmp
 124      E7800000 
 125              	.LVL13:
  97:C:/Users/stapi/OneDrive/Desktop/GD32VW553/V1_MQTT_OK/GD32VW55X_Wifi_BLE_SDK/GD32VW55x_RELEASE_V1.0.2/MSDK/wpa_supplicant/src/ap\wmm.c **** 		      sizeof(hapd->iconf->wmm_ac_params)) != 0) {
 126              		.loc 1 97 5
 127 0082 05C1     		beq	a0,zero,.L7
  99:C:/Users/stapi/OneDrive/Desktop/GD32VW553/V1_MQTT_OK/GD32VW55X_Wifi_BLE_SDK/GD32VW55x_RELEASE_V1.0.2/MSDK/wpa_supplicant/src/ap\wmm.c **** 			  sizeof(hapd->iconf->wmm_ac_params));
 128              		.loc 1 99 3 is_stmt 1
  99:C:/Users/stapi/OneDrive/Desktop/GD32VW553/V1_MQTT_OK/GD32VW55X_Wifi_BLE_SDK/GD32VW55x_RELEASE_V1.0.2/MSDK/wpa_supplicant/src/ap\wmm.c **** 			  sizeof(hapd->iconf->wmm_ac_params));
 129              		.loc 1 99 24 is_stmt 0
 130 0084 8840     		lw	a0,0(s1)
  99:C:/Users/stapi/OneDrive/Desktop/GD32VW553/V1_MQTT_OK/GD32VW55X_Wifi_BLE_SDK/GD32VW55x_RELEASE_V1.0.2/MSDK/wpa_supplicant/src/ap\wmm.c **** 			  sizeof(hapd->iconf->wmm_ac_params));
 131              		.loc 1 99 3
 132 0086 13060005 		li	a2,80
 133 008a 8A85     		mv	a1,sp
 134 008c 1305C54F 		addi	a0,a0,1276
 135 0090 97000000 		call	os_memcpy
 135      E7800000 
 136              	.LVL14:
 101:C:/Users/stapi/OneDrive/Desktop/GD32VW553/V1_MQTT_OK/GD32VW55X_Wifi_BLE_SDK/GD32VW55x_RELEASE_V1.0.2/MSDK/wpa_supplicant/src/ap\wmm.c **** 	}
 137              		.loc 1 101 3 is_stmt 1
 101:C:/Users/stapi/OneDrive/Desktop/GD32VW553/V1_MQTT_OK/GD32VW55X_Wifi_BLE_SDK/GD32VW55x_RELEASE_V1.0.2/MSDK/wpa_supplicant/src/ap\wmm.c **** 	}
 138              		.loc 1 101 28 is_stmt 0
 139 0098 83A7C458 		lw	a5,1420(s1)
 140 009c 8507     		addi	a5,a5,1
 141 009e 23A6F458 		sw	a5,1420(s1)
 142              	.L7:
 143              	.LVL15:
 144              	.LBE16:
 145              	.LBE15:
 123:C:/Users/stapi/OneDrive/Desktop/GD32VW553/V1_MQTT_OK/GD32VW55X_Wifi_BLE_SDK/GD32VW55x_RELEASE_V1.0.2/MSDK/wpa_supplicant/src/ap\wmm.c **** 	eid[0] = WLAN_EID_VENDOR_SPECIFIC;
 146              		.loc 1 123 2 is_stmt 1
 147              		.loc 1 123 9 is_stmt 0
 148 00a2 9307D0FD 		li	a5,-35
 149 00a6 2300F400 		sb	a5,0(s0)
 124:C:/Users/stapi/OneDrive/Desktop/GD32VW553/V1_MQTT_OK/GD32VW55X_Wifi_BLE_SDK/GD32VW55x_RELEASE_V1.0.2/MSDK/wpa_supplicant/src/ap\wmm.c **** 	wmm->oui[0] = 0x00;
 150              		.loc 1 124 2 is_stmt 1
 125:C:/Users/stapi/OneDrive/Desktop/GD32VW553/V1_MQTT_OK/GD32VW55X_Wifi_BLE_SDK/GD32VW55x_RELEASE_V1.0.2/MSDK/wpa_supplicant/src/ap\wmm.c **** 	wmm->oui[1] = 0x50;
 151              		.loc 1 125 14 is_stmt 0
 152 00aa 93070005 		li	a5,80
 153 00ae A301F400 		sb	a5,3(s0)
 126:C:/Users/stapi/OneDrive/Desktop/GD32VW553/V1_MQTT_OK/GD32VW55X_Wifi_BLE_SDK/GD32VW55x_RELEASE_V1.0.2/MSDK/wpa_supplicant/src/ap\wmm.c **** 	wmm->oui[2] = 0xf2;
 154              		.loc 1 126 14
 155 00b2 C957     		li	a5,-14
 156 00b4 2302F400 		sb	a5,4(s0)
 127:C:/Users/stapi/OneDrive/Desktop/GD32VW553/V1_MQTT_OK/GD32VW55X_Wifi_BLE_SDK/GD32VW55x_RELEASE_V1.0.2/MSDK/wpa_supplicant/src/ap\wmm.c **** 	wmm->oui_type = WMM_OUI_TYPE;
 157              		.loc 1 127 16
 158 00b8 8947     		li	a5,2
 159 00ba A302F400 		sb	a5,5(s0)
 128:C:/Users/stapi/OneDrive/Desktop/GD32VW553/V1_MQTT_OK/GD32VW55X_Wifi_BLE_SDK/GD32VW55x_RELEASE_V1.0.2/MSDK/wpa_supplicant/src/ap\wmm.c **** 	wmm->oui_subtype = WMM_OUI_SUBTYPE_PARAMETER_ELEMENT;
 160              		.loc 1 128 19
 161 00be 8547     		li	a5,1
 124:C:/Users/stapi/OneDrive/Desktop/GD32VW553/V1_MQTT_OK/GD32VW55X_Wifi_BLE_SDK/GD32VW55x_RELEASE_V1.0.2/MSDK/wpa_supplicant/src/ap\wmm.c **** 	wmm->oui[1] = 0x50;
 162              		.loc 1 124 14
 163 00c0 23010400 		sb	zero,2(s0)
 125:C:/Users/stapi/OneDrive/Desktop/GD32VW553/V1_MQTT_OK/GD32VW55X_Wifi_BLE_SDK/GD32VW55x_RELEASE_V1.0.2/MSDK/wpa_supplicant/src/ap\wmm.c **** 	wmm->oui[2] = 0xf2;
 164              		.loc 1 125 2 is_stmt 1
 126:C:/Users/stapi/OneDrive/Desktop/GD32VW553/V1_MQTT_OK/GD32VW55X_Wifi_BLE_SDK/GD32VW55x_RELEASE_V1.0.2/MSDK/wpa_supplicant/src/ap\wmm.c **** 	wmm->oui_type = WMM_OUI_TYPE;
 165              		.loc 1 126 2
 127:C:/Users/stapi/OneDrive/Desktop/GD32VW553/V1_MQTT_OK/GD32VW55X_Wifi_BLE_SDK/GD32VW55x_RELEASE_V1.0.2/MSDK/wpa_supplicant/src/ap\wmm.c **** 	wmm->oui_subtype = WMM_OUI_SUBTYPE_PARAMETER_ELEMENT;
 166              		.loc 1 127 2
 167              		.loc 1 128 2
 168              		.loc 1 128 19 is_stmt 0
 169 00c4 2303F400 		sb	a5,6(s0)
 129:C:/Users/stapi/OneDrive/Desktop/GD32VW553/V1_MQTT_OK/GD32VW55X_Wifi_BLE_SDK/GD32VW55x_RELEASE_V1.0.2/MSDK/wpa_supplicant/src/ap\wmm.c **** 	wmm->version = WMM_VERSION;
 170              		.loc 1 129 2 is_stmt 1
 171              		.loc 1 129 15 is_stmt 0
 172 00c8 A303F400 		sb	a5,7(s0)
 130:C:/Users/stapi/OneDrive/Desktop/GD32VW553/V1_MQTT_OK/GD32VW55X_Wifi_BLE_SDK/GD32VW55x_RELEASE_V1.0.2/MSDK/wpa_supplicant/src/ap\wmm.c **** 	wmm->qos_info = hapd->parameter_set_count & 0xf;
 173              		.loc 1 130 2 is_stmt 1
 174              		.loc 1 130 44 is_stmt 0
 175 00cc 83A7C458 		lw	a5,1420(s1)
 176 00d0 BD8B     		andi	a5,a5,15
 177              		.loc 1 130 16
 178 00d2 2304F400 		sb	a5,8(s0)
 131:C:/Users/stapi/OneDrive/Desktop/GD32VW553/V1_MQTT_OK/GD32VW55X_Wifi_BLE_SDK/GD32VW55x_RELEASE_V1.0.2/MSDK/wpa_supplicant/src/ap\wmm.c **** 
 132:C:/Users/stapi/OneDrive/Desktop/GD32VW553/V1_MQTT_OK/GD32VW55X_Wifi_BLE_SDK/GD32VW55x_RELEASE_V1.0.2/MSDK/wpa_supplicant/src/ap\wmm.c **** 	if (hapd->conf->wmm_uapsd &&
 179              		.loc 1 132 2 is_stmt 1
 180              		.loc 1 132 16 is_stmt 0
 181 00d6 9844     		lw	a4,8(s1)
 182              		.loc 1 132 5
 183 00d8 03274726 		lw	a4,612(a4)
 184 00dc 01CF     		beq	a4,zero,.L11
 133:C:/Users/stapi/OneDrive/Desktop/GD32VW553/V1_MQTT_OK/GD32VW55X_Wifi_BLE_SDK/GD32VW55x_RELEASE_V1.0.2/MSDK/wpa_supplicant/src/ap\wmm.c **** 	    (hapd->iface->drv_flags & WPA_DRIVER_FLAGS_AP_UAPSD))
 185              		.loc 1 133 18 discriminator 1
 186 00de 9840     		lw	a4,0(s1)
 187              		.loc 1 133 30 discriminator 1
 188 00e0 B7064000 		li	a3,4194304
 189 00e4 03278743 		lw	a4,1080(a4)
 190 00e8 758F     		and	a4,a4,a3
 132:C:/Users/stapi/OneDrive/Desktop/GD32VW553/V1_MQTT_OK/GD32VW55X_Wifi_BLE_SDK/GD32VW55x_RELEASE_V1.0.2/MSDK/wpa_supplicant/src/ap\wmm.c **** 	    (hapd->iface->drv_flags & WPA_DRIVER_FLAGS_AP_UAPSD))
 191              		.loc 1 132 28 discriminator 1
 192 00ea 09C7     		beq	a4,zero,.L11
 134:C:/Users/stapi/OneDrive/Desktop/GD32VW553/V1_MQTT_OK/GD32VW55X_Wifi_BLE_SDK/GD32VW55x_RELEASE_V1.0.2/MSDK/wpa_supplicant/src/ap\wmm.c **** 		wmm->qos_info |= 0x80;
 193              		.loc 1 134 3 is_stmt 1 discriminator 1
 194              		.loc 1 134 17 is_stmt 0 discriminator 1
 195 00ec 93E707F8 		ori	a5,a5,-128
 196 00f0 2304F400 		sb	a5,8(s0)
 197              	.L11:
 135:C:/Users/stapi/OneDrive/Desktop/GD32VW553/V1_MQTT_OK/GD32VW55X_Wifi_BLE_SDK/GD32VW55x_RELEASE_V1.0.2/MSDK/wpa_supplicant/src/ap\wmm.c **** 
 136:C:/Users/stapi/OneDrive/Desktop/GD32VW553/V1_MQTT_OK/GD32VW55X_Wifi_BLE_SDK/GD32VW55x_RELEASE_V1.0.2/MSDK/wpa_supplicant/src/ap\wmm.c **** 	wmm->reserved = 0;
 198              		.loc 1 136 2 is_stmt 1
 199              		.loc 1 136 16 is_stmt 0
 200 00f4 A3040400 		sb	zero,9(s0)
 137:C:/Users/stapi/OneDrive/Desktop/GD32VW553/V1_MQTT_OK/GD32VW55X_Wifi_BLE_SDK/GD32VW55x_RELEASE_V1.0.2/MSDK/wpa_supplicant/src/ap\wmm.c **** 
 138:C:/Users/stapi/OneDrive/Desktop/GD32VW553/V1_MQTT_OK/GD32VW55X_Wifi_BLE_SDK/GD32VW55x_RELEASE_V1.0.2/MSDK/wpa_supplicant/src/ap\wmm.c **** 	/* fill in a parameter set record for each AC */
 139:C:/Users/stapi/OneDrive/Desktop/GD32VW553/V1_MQTT_OK/GD32VW55X_Wifi_BLE_SDK/GD32VW55x_RELEASE_V1.0.2/MSDK/wpa_supplicant/src/ap\wmm.c **** 	for (e = 0; e < 4; e++) {
 201              		.loc 1 139 2 is_stmt 1
 202              	.LVL16:
 203              		.loc 1 139 14
 204 00f8 8A87     		mv	a5,sp
 205 00fa 1306A400 		addi	a2,s0,10
 206              		.loc 1 139 9 is_stmt 0
 207 00fe 0147     		li	a4,0
 208              		.loc 1 139 2
 209 0100 1145     		li	a0,4
 210              	.LVL17:
 211              	.L14:
 212              	.LBB25:
 140:C:/Users/stapi/OneDrive/Desktop/GD32VW553/V1_MQTT_OK/GD32VW55X_Wifi_BLE_SDK/GD32VW55x_RELEASE_V1.0.2/MSDK/wpa_supplicant/src/ap\wmm.c **** 		struct wmm_ac_parameter *ac = &wmm->ac[e];
 213              		.loc 1 140 3 is_stmt 1 discriminator 3
 141:C:/Users/stapi/OneDrive/Desktop/GD32VW553/V1_MQTT_OK/GD32VW55X_Wifi_BLE_SDK/GD32VW55x_RELEASE_V1.0.2/MSDK/wpa_supplicant/src/ap\wmm.c **** 		struct hostapd_wmm_ac_params *acp = &wmmp[e];
 214              		.loc 1 141 3 discriminator 3
 142:C:/Users/stapi/OneDrive/Desktop/GD32VW553/V1_MQTT_OK/GD32VW55X_Wifi_BLE_SDK/GD32VW55x_RELEASE_V1.0.2/MSDK/wpa_supplicant/src/ap\wmm.c **** 
 143:C:/Users/stapi/OneDrive/Desktop/GD32VW553/V1_MQTT_OK/GD32VW55X_Wifi_BLE_SDK/GD32VW55x_RELEASE_V1.0.2/MSDK/wpa_supplicant/src/ap\wmm.c **** 		ac->aci_aifsn = wmm_aci_aifsn(acp->aifs,
 215              		.loc 1 143 3 discriminator 3
 216              	.LBB26:
 217              	.LBB27:
  34:C:/Users/stapi/OneDrive/Desktop/GD32VW553/V1_MQTT_OK/GD32VW55X_Wifi_BLE_SDK/GD32VW55x_RELEASE_V1.0.2/MSDK/wpa_supplicant/src/ap\wmm.c **** 	ret = (aifsn << WMM_AC_AIFNS_SHIFT) & WMM_AC_AIFSN_MASK;
 218              		.loc 1 34 2 discriminator 3
  35:C:/Users/stapi/OneDrive/Desktop/GD32VW553/V1_MQTT_OK/GD32VW55X_Wifi_BLE_SDK/GD32VW55x_RELEASE_V1.0.2/MSDK/wpa_supplicant/src/ap\wmm.c **** 	if (acm)
 219              		.loc 1 35 2 discriminator 3
  35:C:/Users/stapi/OneDrive/Desktop/GD32VW553/V1_MQTT_OK/GD32VW55X_Wifi_BLE_SDK/GD32VW55x_RELEASE_V1.0.2/MSDK/wpa_supplicant/src/ap\wmm.c **** 	if (acm)
 220              		.loc 1 35 38 is_stmt 0 discriminator 3
 221 0102 9447     		lw	a3,8(a5)
  36:C:/Users/stapi/OneDrive/Desktop/GD32VW553/V1_MQTT_OK/GD32VW55X_Wifi_BLE_SDK/GD32VW55x_RELEASE_V1.0.2/MSDK/wpa_supplicant/src/ap\wmm.c **** 		ret |= WMM_AC_ACM;
 222              		.loc 1 36 5 discriminator 3
 223 0104 8C4B     		lw	a1,16(a5)
  35:C:/Users/stapi/OneDrive/Desktop/GD32VW553/V1_MQTT_OK/GD32VW55X_Wifi_BLE_SDK/GD32VW55x_RELEASE_V1.0.2/MSDK/wpa_supplicant/src/ap\wmm.c **** 	if (acm)
 224              		.loc 1 35 6 discriminator 3
 225 0106 BD8A     		andi	a3,a3,15
 226              	.LVL18:
  36:C:/Users/stapi/OneDrive/Desktop/GD32VW553/V1_MQTT_OK/GD32VW55X_Wifi_BLE_SDK/GD32VW55x_RELEASE_V1.0.2/MSDK/wpa_supplicant/src/ap\wmm.c **** 		ret |= WMM_AC_ACM;
 227              		.loc 1 36 2 is_stmt 1 discriminator 3
  36:C:/Users/stapi/OneDrive/Desktop/GD32VW553/V1_MQTT_OK/GD32VW55X_Wifi_BLE_SDK/GD32VW55x_RELEASE_V1.0.2/MSDK/wpa_supplicant/src/ap\wmm.c **** 		ret |= WMM_AC_ACM;
 228              		.loc 1 36 5 is_stmt 0 discriminator 3
 229 0108 99C1     		beq	a1,zero,.L13
  37:C:/Users/stapi/OneDrive/Desktop/GD32VW553/V1_MQTT_OK/GD32VW55X_Wifi_BLE_SDK/GD32VW55x_RELEASE_V1.0.2/MSDK/wpa_supplicant/src/ap\wmm.c **** 	ret |= (aci << WMM_AC_ACI_SHIFT) & WMM_AC_ACI_MASK;
 230              		.loc 1 37 3 is_stmt 1
  37:C:/Users/stapi/OneDrive/Desktop/GD32VW553/V1_MQTT_OK/GD32VW55X_Wifi_BLE_SDK/GD32VW55x_RELEASE_V1.0.2/MSDK/wpa_supplicant/src/ap\wmm.c **** 	ret |= (aci << WMM_AC_ACI_SHIFT) & WMM_AC_ACI_MASK;
 231              		.loc 1 37 7 is_stmt 0
 232 010a 93E60601 		ori	a3,a3,16
 233              	.LVL19:
 234              	.L13:
  38:C:/Users/stapi/OneDrive/Desktop/GD32VW553/V1_MQTT_OK/GD32VW55X_Wifi_BLE_SDK/GD32VW55x_RELEASE_V1.0.2/MSDK/wpa_supplicant/src/ap\wmm.c **** 	return ret;
 235              		.loc 1 38 2 is_stmt 1
  38:C:/Users/stapi/OneDrive/Desktop/GD32VW553/V1_MQTT_OK/GD32VW55X_Wifi_BLE_SDK/GD32VW55x_RELEASE_V1.0.2/MSDK/wpa_supplicant/src/ap\wmm.c **** 	return ret;
 236              		.loc 1 38 35 is_stmt 0
 237 010e 93155700 		slli	a1,a4,5
  38:C:/Users/stapi/OneDrive/Desktop/GD32VW553/V1_MQTT_OK/GD32VW55X_Wifi_BLE_SDK/GD32VW55x_RELEASE_V1.0.2/MSDK/wpa_supplicant/src/ap\wmm.c **** 	return ret;
 238              		.loc 1 38 6
 239 0112 CD8E     		or	a3,a1,a3
 240              	.LVL20:
  39:C:/Users/stapi/OneDrive/Desktop/GD32VW553/V1_MQTT_OK/GD32VW55X_Wifi_BLE_SDK/GD32VW55x_RELEASE_V1.0.2/MSDK/wpa_supplicant/src/ap\wmm.c **** }
 241              		.loc 1 39 2 is_stmt 1
 242              	.LBE27:
 243              	.LBE26:
 244              		.loc 1 143 17 is_stmt 0
 245 0114 2300D600 		sb	a3,0(a2)
 144:C:/Users/stapi/OneDrive/Desktop/GD32VW553/V1_MQTT_OK/GD32VW55X_Wifi_BLE_SDK/GD32VW55x_RELEASE_V1.0.2/MSDK/wpa_supplicant/src/ap\wmm.c **** 					      acp->admission_control_mandatory,
 145:C:/Users/stapi/OneDrive/Desktop/GD32VW553/V1_MQTT_OK/GD32VW55X_Wifi_BLE_SDK/GD32VW55x_RELEASE_V1.0.2/MSDK/wpa_supplicant/src/ap\wmm.c **** 					      e);
 146:C:/Users/stapi/OneDrive/Desktop/GD32VW553/V1_MQTT_OK/GD32VW55X_Wifi_BLE_SDK/GD32VW55x_RELEASE_V1.0.2/MSDK/wpa_supplicant/src/ap\wmm.c **** 		ac->cw = wmm_ecw(acp->cwmin, acp->cwmax);
 246              		.loc 1 146 3 is_stmt 1
 247              	.LVL21:
 248              	.LBB28:
 249              	.LBB29:
  45:C:/Users/stapi/OneDrive/Desktop/GD32VW553/V1_MQTT_OK/GD32VW55X_Wifi_BLE_SDK/GD32VW55x_RELEASE_V1.0.2/MSDK/wpa_supplicant/src/ap\wmm.c **** 		((ecwmax << WMM_AC_ECWMAX_SHIFT) & WMM_AC_ECWMAX_MASK);
 250              		.loc 1 45 2
  46:C:/Users/stapi/OneDrive/Desktop/GD32VW553/V1_MQTT_OK/GD32VW55X_Wifi_BLE_SDK/GD32VW55x_RELEASE_V1.0.2/MSDK/wpa_supplicant/src/ap\wmm.c **** }
 251              		.loc 1 46 12 is_stmt 0
 252 0118 CC43     		lw	a1,4(a5)
  45:C:/Users/stapi/OneDrive/Desktop/GD32VW553/V1_MQTT_OK/GD32VW55X_Wifi_BLE_SDK/GD32VW55x_RELEASE_V1.0.2/MSDK/wpa_supplicant/src/ap\wmm.c **** 		((ecwmax << WMM_AC_ECWMAX_SHIFT) & WMM_AC_ECWMAX_MASK);
 253              		.loc 1 45 42
 254 011a 9443     		lw	a3,0(a5)
 255              	.LBE29:
 256              	.LBE28:
 257              	.LBE25:
 139:C:/Users/stapi/OneDrive/Desktop/GD32VW553/V1_MQTT_OK/GD32VW55X_Wifi_BLE_SDK/GD32VW55x_RELEASE_V1.0.2/MSDK/wpa_supplicant/src/ap\wmm.c **** 		struct wmm_ac_parameter *ac = &wmm->ac[e];
 258              		.loc 1 139 2
 259 011c 1106     		addi	a2,a2,4
 260              	.LBB32:
 261              	.LBB31:
 262              	.LBB30:
  46:C:/Users/stapi/OneDrive/Desktop/GD32VW553/V1_MQTT_OK/GD32VW55X_Wifi_BLE_SDK/GD32VW55x_RELEASE_V1.0.2/MSDK/wpa_supplicant/src/ap\wmm.c **** }
 263              		.loc 1 46 12
 264 011e 9205     		slli	a1,a1,4
  45:C:/Users/stapi/OneDrive/Desktop/GD32VW553/V1_MQTT_OK/GD32VW55X_Wifi_BLE_SDK/GD32VW55x_RELEASE_V1.0.2/MSDK/wpa_supplicant/src/ap\wmm.c **** 		((ecwmax << WMM_AC_ECWMAX_SHIFT) & WMM_AC_ECWMAX_MASK);
 265              		.loc 1 45 42
 266 0120 BD8A     		andi	a3,a3,15
  45:C:/Users/stapi/OneDrive/Desktop/GD32VW553/V1_MQTT_OK/GD32VW55X_Wifi_BLE_SDK/GD32VW55x_RELEASE_V1.0.2/MSDK/wpa_supplicant/src/ap\wmm.c **** 		((ecwmax << WMM_AC_ECWMAX_SHIFT) & WMM_AC_ECWMAX_MASK);
 267              		.loc 1 45 64
 268 0122 CD8E     		or	a3,a3,a1
 269              	.LBE30:
 270              	.LBE31:
 271              		.loc 1 146 10
 272 0124 A30ED6FE 		sb	a3,-3(a2)
 147:C:/Users/stapi/OneDrive/Desktop/GD32VW553/V1_MQTT_OK/GD32VW55X_Wifi_BLE_SDK/GD32VW55x_RELEASE_V1.0.2/MSDK/wpa_supplicant/src/ap\wmm.c **** 		ac->txop_limit = host_to_le16(acp->txop_limit);
 273              		.loc 1 147 3 is_stmt 1
 274              		.loc 1 147 18 is_stmt 0
 275 0128 83D6C700 		lhu	a3,12(a5)
 276 012c B3458720 		sh2add	a1,a4,s0
 277              	.LBE32:
 139:C:/Users/stapi/OneDrive/Desktop/GD32VW553/V1_MQTT_OK/GD32VW55X_Wifi_BLE_SDK/GD32VW55x_RELEASE_V1.0.2/MSDK/wpa_supplicant/src/ap\wmm.c **** 		struct wmm_ac_parameter *ac = &wmm->ac[e];
 278              		.loc 1 139 22
 279 0130 0507     		addi	a4,a4,1
 280              	.LVL22:
 281              	.LBB33:
 282              		.loc 1 147 18
 283 0132 2386D500 		sb	a3,12(a1)
 284 0136 A182     		srli	a3,a3,8
 285 0138 A386D500 		sb	a3,13(a1)
 286              	.LBE33:
 139:C:/Users/stapi/OneDrive/Desktop/GD32VW553/V1_MQTT_OK/GD32VW55X_Wifi_BLE_SDK/GD32VW55x_RELEASE_V1.0.2/MSDK/wpa_supplicant/src/ap\wmm.c **** 		struct wmm_ac_parameter *ac = &wmm->ac[e];
 287              		.loc 1 139 21 is_stmt 1
 288              	.LVL23:
 139:C:/Users/stapi/OneDrive/Desktop/GD32VW553/V1_MQTT_OK/GD32VW55X_Wifi_BLE_SDK/GD32VW55x_RELEASE_V1.0.2/MSDK/wpa_supplicant/src/ap\wmm.c **** 		struct wmm_ac_parameter *ac = &wmm->ac[e];
 289              		.loc 1 139 14
 139:C:/Users/stapi/OneDrive/Desktop/GD32VW553/V1_MQTT_OK/GD32VW55X_Wifi_BLE_SDK/GD32VW55x_RELEASE_V1.0.2/MSDK/wpa_supplicant/src/ap\wmm.c **** 		struct wmm_ac_parameter *ac = &wmm->ac[e];
 290              		.loc 1 139 2 is_stmt 0
 291 013c D107     		addi	a5,a5,20
 292 013e E312A7FC 		bne	a4,a0,.L14
 148:C:/Users/stapi/OneDrive/Desktop/GD32VW553/V1_MQTT_OK/GD32VW55X_Wifi_BLE_SDK/GD32VW55x_RELEASE_V1.0.2/MSDK/wpa_supplicant/src/ap\wmm.c **** 	}
 149:C:/Users/stapi/OneDrive/Desktop/GD32VW553/V1_MQTT_OK/GD32VW55X_Wifi_BLE_SDK/GD32VW55x_RELEASE_V1.0.2/MSDK/wpa_supplicant/src/ap\wmm.c **** 
 150:C:/Users/stapi/OneDrive/Desktop/GD32VW553/V1_MQTT_OK/GD32VW55X_Wifi_BLE_SDK/GD32VW55x_RELEASE_V1.0.2/MSDK/wpa_supplicant/src/ap\wmm.c **** 	pos = (u8 *) (wmm + 1);
 293              		.loc 1 150 2 is_stmt 1
 294              	.LVL24:
 151:C:/Users/stapi/OneDrive/Desktop/GD32VW553/V1_MQTT_OK/GD32VW55X_Wifi_BLE_SDK/GD32VW55x_RELEASE_V1.0.2/MSDK/wpa_supplicant/src/ap\wmm.c **** 	eid[1] = pos - eid - 2; /* element length */
 295              		.loc 1 151 2
 296              		.loc 1 151 21 is_stmt 0
 297 0142 E147     		li	a5,24
 298              		.loc 1 151 9
 299 0144 A300F400 		sb	a5,1(s0)
 152:C:/Users/stapi/OneDrive/Desktop/GD32VW553/V1_MQTT_OK/GD32VW55X_Wifi_BLE_SDK/GD32VW55x_RELEASE_V1.0.2/MSDK/wpa_supplicant/src/ap\wmm.c **** 
 153:C:/Users/stapi/OneDrive/Desktop/GD32VW553/V1_MQTT_OK/GD32VW55X_Wifi_BLE_SDK/GD32VW55x_RELEASE_V1.0.2/MSDK/wpa_supplicant/src/ap\wmm.c **** 	return pos;
 300              		.loc 1 153 2 is_stmt 1
 301              		.loc 1 153 9 is_stmt 0
 302 0148 6904     		addi	s0,s0,26
 303              	.LVL25:
 304              	.L2:
 154:C:/Users/stapi/OneDrive/Desktop/GD32VW553/V1_MQTT_OK/GD32VW55X_Wifi_BLE_SDK/GD32VW55x_RELEASE_V1.0.2/MSDK/wpa_supplicant/src/ap\wmm.c **** }
 305              		.loc 1 154 1
 306 014a 2285     		mv	a0,s0
 307 014c 6161     		addi	sp,sp,80
 308              		.cfi_remember_state
 309              		.cfi_def_cfa_offset 0
 310 014e 17030000 		tail	__riscv_restore_3
 310      67000300 
 311              		.cfi_restore 18
 312              		.cfi_restore 9
 313              		.cfi_restore 8
 314              		.cfi_restore 1
 315              		.cfi_def_cfa_offset -16
 316              	.LVL26:
 317              	.L5:
 318              		.cfi_restore_state
 319              	.LBB34:
 320              	.LBB24:
 321              	.LBB23:
  88:C:/Users/stapi/OneDrive/Desktop/GD32VW553/V1_MQTT_OK/GD32VW55X_Wifi_BLE_SDK/GD32VW55x_RELEASE_V1.0.2/MSDK/wpa_supplicant/src/ap\wmm.c **** 						 acp, chan->wmm_rules);
 322              		.loc 1 88 4 is_stmt 1
  88:C:/Users/stapi/OneDrive/Desktop/GD32VW553/V1_MQTT_OK/GD32VW55X_Wifi_BLE_SDK/GD32VW55x_RELEASE_V1.0.2/MSDK/wpa_supplicant/src/ap\wmm.c **** 						 acp, chan->wmm_rules);
 323              		.loc 1 88 33 is_stmt 0
 324 0156 D040     		lw	a2,4(s1)
 325              	.LVL27:
 326              	.LBB18:
 327              	.LBB19:
  55:C:/Users/stapi/OneDrive/Desktop/GD32VW553/V1_MQTT_OK/GD32VW55X_Wifi_BLE_SDK/GD32VW55x_RELEASE_V1.0.2/MSDK/wpa_supplicant/src/ap\wmm.c **** 
 328              		.loc 1 55 2 is_stmt 1
  57:C:/Users/stapi/OneDrive/Desktop/GD32VW553/V1_MQTT_OK/GD32VW55X_Wifi_BLE_SDK/GD32VW55x_RELEASE_V1.0.2/MSDK/wpa_supplicant/src/ap\wmm.c **** 		wmm[ac].cwmin = MAX(wmm_conf[ac].cwmin, wmm_reg[ac].min_cwmin);
 329              		.loc 1 57 2
  57:C:/Users/stapi/OneDrive/Desktop/GD32VW553/V1_MQTT_OK/GD32VW55X_Wifi_BLE_SDK/GD32VW55x_RELEASE_V1.0.2/MSDK/wpa_supplicant/src/ap\wmm.c **** 		wmm[ac].cwmin = MAX(wmm_conf[ac].cwmin, wmm_reg[ac].min_cwmin);
 330              		.loc 1 57 15
 331 0158 93878702 		addi	a5,a5,40
 332              	.LVL28:
 333 015c 8A86     		mv	a3,sp
 334 015e 1307860C 		addi	a4,a2,200
 335              	.LVL29:
 336 0162 13068611 		addi	a2,a2,280
 337              	.LVL30:
 338              	.L8:
  58:C:/Users/stapi/OneDrive/Desktop/GD32VW553/V1_MQTT_OK/GD32VW55X_Wifi_BLE_SDK/GD32VW55x_RELEASE_V1.0.2/MSDK/wpa_supplicant/src/ap\wmm.c **** 		wmm[ac].cwmax = MAX(wmm_conf[ac].cwmax, wmm_reg[ac].min_cwmax);
 339              		.loc 1 58 3
  58:C:/Users/stapi/OneDrive/Desktop/GD32VW553/V1_MQTT_OK/GD32VW55X_Wifi_BLE_SDK/GD32VW55x_RELEASE_V1.0.2/MSDK/wpa_supplicant/src/ap\wmm.c **** 		wmm[ac].cwmax = MAX(wmm_conf[ac].cwmax, wmm_reg[ac].min_cwmax);
 340              		.loc 1 58 19 is_stmt 0
 341 0166 03280700 		lw	a6,0(a4)
 342 016a 8843     		lw	a0,0(a5)
 343 016c 3365050B 		max	a0,a0,a6
  58:C:/Users/stapi/OneDrive/Desktop/GD32VW553/V1_MQTT_OK/GD32VW55X_Wifi_BLE_SDK/GD32VW55x_RELEASE_V1.0.2/MSDK/wpa_supplicant/src/ap\wmm.c **** 		wmm[ac].cwmax = MAX(wmm_conf[ac].cwmax, wmm_reg[ac].min_cwmax);
 344              		.loc 1 58 17
 345 0170 88C2     		sw	a0,0(a3)
  59:C:/Users/stapi/OneDrive/Desktop/GD32VW553/V1_MQTT_OK/GD32VW55X_Wifi_BLE_SDK/GD32VW55x_RELEASE_V1.0.2/MSDK/wpa_supplicant/src/ap\wmm.c **** 		wmm[ac].aifs = MAX(wmm_conf[ac].aifs, wmm_reg[ac].min_aifs);
 346              		.loc 1 59 3 is_stmt 1
  59:C:/Users/stapi/OneDrive/Desktop/GD32VW553/V1_MQTT_OK/GD32VW55X_Wifi_BLE_SDK/GD32VW55x_RELEASE_V1.0.2/MSDK/wpa_supplicant/src/ap\wmm.c **** 		wmm[ac].aifs = MAX(wmm_conf[ac].aifs, wmm_reg[ac].min_aifs);
 347              		.loc 1 59 19 is_stmt 0
 348 0172 03284700 		lw	a6,4(a4)
 349 0176 C843     		lw	a0,4(a5)
 350 0178 3365050B 		max	a0,a0,a6
  59:C:/Users/stapi/OneDrive/Desktop/GD32VW553/V1_MQTT_OK/GD32VW55X_Wifi_BLE_SDK/GD32VW55x_RELEASE_V1.0.2/MSDK/wpa_supplicant/src/ap\wmm.c **** 		wmm[ac].aifs = MAX(wmm_conf[ac].aifs, wmm_reg[ac].min_aifs);
 351              		.loc 1 59 17
 352 017c C8C2     		sw	a0,4(a3)
  60:C:/Users/stapi/OneDrive/Desktop/GD32VW553/V1_MQTT_OK/GD32VW55X_Wifi_BLE_SDK/GD32VW55x_RELEASE_V1.0.2/MSDK/wpa_supplicant/src/ap\wmm.c **** 		wmm[ac].txop_limit =
 353              		.loc 1 60 3 is_stmt 1
  60:C:/Users/stapi/OneDrive/Desktop/GD32VW553/V1_MQTT_OK/GD32VW55X_Wifi_BLE_SDK/GD32VW55x_RELEASE_V1.0.2/MSDK/wpa_supplicant/src/ap\wmm.c **** 		wmm[ac].txop_limit =
 354              		.loc 1 60 18 is_stmt 0
 355 017e 03288700 		lw	a6,8(a4)
 356 0182 8847     		lw	a0,8(a5)
 357 0184 3365050B 		max	a0,a0,a6
  60:C:/Users/stapi/OneDrive/Desktop/GD32VW553/V1_MQTT_OK/GD32VW55X_Wifi_BLE_SDK/GD32VW55x_RELEASE_V1.0.2/MSDK/wpa_supplicant/src/ap\wmm.c **** 		wmm[ac].txop_limit =
 358              		.loc 1 60 16
 359 0188 88C6     		sw	a0,8(a3)
  61:C:/Users/stapi/OneDrive/Desktop/GD32VW553/V1_MQTT_OK/GD32VW55X_Wifi_BLE_SDK/GD32VW55x_RELEASE_V1.0.2/MSDK/wpa_supplicant/src/ap\wmm.c **** 			MIN(wmm_conf[ac].txop_limit, wmm_reg[ac].max_txop);
 360              		.loc 1 61 3 is_stmt 1
  62:C:/Users/stapi/OneDrive/Desktop/GD32VW553/V1_MQTT_OK/GD32VW55X_Wifi_BLE_SDK/GD32VW55x_RELEASE_V1.0.2/MSDK/wpa_supplicant/src/ap\wmm.c **** 		wmm[ac].admission_control_mandatory =
 361              		.loc 1 62 4 is_stmt 0
 362 018a C847     		lw	a0,12(a5)
 363 018c 0328C700 		lw	a6,12(a4)
  57:C:/Users/stapi/OneDrive/Desktop/GD32VW553/V1_MQTT_OK/GD32VW55X_Wifi_BLE_SDK/GD32VW55x_RELEASE_V1.0.2/MSDK/wpa_supplicant/src/ap\wmm.c **** 		wmm[ac].cwmin = MAX(wmm_conf[ac].cwmin, wmm_reg[ac].min_cwmin);
 364              		.loc 1 57 2
 365 0190 C107     		addi	a5,a5,16
  62:C:/Users/stapi/OneDrive/Desktop/GD32VW553/V1_MQTT_OK/GD32VW55X_Wifi_BLE_SDK/GD32VW55x_RELEASE_V1.0.2/MSDK/wpa_supplicant/src/ap\wmm.c **** 		wmm[ac].admission_control_mandatory =
 366              		.loc 1 62 4
 367 0192 3345050B 		min	a0,a0,a6
  61:C:/Users/stapi/OneDrive/Desktop/GD32VW553/V1_MQTT_OK/GD32VW55X_Wifi_BLE_SDK/GD32VW55x_RELEASE_V1.0.2/MSDK/wpa_supplicant/src/ap\wmm.c **** 			MIN(wmm_conf[ac].txop_limit, wmm_reg[ac].max_txop);
 368              		.loc 1 61 22
 369 0196 C8C6     		sw	a0,12(a3)
  63:C:/Users/stapi/OneDrive/Desktop/GD32VW553/V1_MQTT_OK/GD32VW55X_Wifi_BLE_SDK/GD32VW55x_RELEASE_V1.0.2/MSDK/wpa_supplicant/src/ap\wmm.c **** 			wmm_conf[ac].admission_control_mandatory;
 370              		.loc 1 63 3 is_stmt 1
  64:C:/Users/stapi/OneDrive/Desktop/GD32VW553/V1_MQTT_OK/GD32VW55X_Wifi_BLE_SDK/GD32VW55x_RELEASE_V1.0.2/MSDK/wpa_supplicant/src/ap\wmm.c **** 	}
 371              		.loc 1 64 16 is_stmt 0
 372 0198 084B     		lw	a0,16(a4)
  57:C:/Users/stapi/OneDrive/Desktop/GD32VW553/V1_MQTT_OK/GD32VW55X_Wifi_BLE_SDK/GD32VW55x_RELEASE_V1.0.2/MSDK/wpa_supplicant/src/ap\wmm.c **** 		wmm[ac].cwmin = MAX(wmm_conf[ac].cwmin, wmm_reg[ac].min_cwmin);
 373              		.loc 1 57 2
 374 019a 5107     		addi	a4,a4,20
  63:C:/Users/stapi/OneDrive/Desktop/GD32VW553/V1_MQTT_OK/GD32VW55X_Wifi_BLE_SDK/GD32VW55x_RELEASE_V1.0.2/MSDK/wpa_supplicant/src/ap\wmm.c **** 			wmm_conf[ac].admission_control_mandatory;
 375              		.loc 1 63 39
 376 019c 88CA     		sw	a0,16(a3)
  57:C:/Users/stapi/OneDrive/Desktop/GD32VW553/V1_MQTT_OK/GD32VW55X_Wifi_BLE_SDK/GD32VW55x_RELEASE_V1.0.2/MSDK/wpa_supplicant/src/ap\wmm.c **** 		wmm[ac].cwmin = MAX(wmm_conf[ac].cwmin, wmm_reg[ac].min_cwmin);
 377              		.loc 1 57 32 is_stmt 1
  57:C:/Users/stapi/OneDrive/Desktop/GD32VW553/V1_MQTT_OK/GD32VW55X_Wifi_BLE_SDK/GD32VW55x_RELEASE_V1.0.2/MSDK/wpa_supplicant/src/ap\wmm.c **** 		wmm[ac].cwmin = MAX(wmm_conf[ac].cwmin, wmm_reg[ac].min_cwmin);
 378              		.loc 1 57 15
  57:C:/Users/stapi/OneDrive/Desktop/GD32VW553/V1_MQTT_OK/GD32VW55X_Wifi_BLE_SDK/GD32VW55x_RELEASE_V1.0.2/MSDK/wpa_supplicant/src/ap\wmm.c **** 		wmm[ac].cwmin = MAX(wmm_conf[ac].cwmin, wmm_reg[ac].min_cwmin);
 379              		.loc 1 57 2 is_stmt 0
 380 019e D106     		addi	a3,a3,20
 381 01a0 E313E6FC 		bne	a2,a4,.L8
 382 01a4 F1B5     		j	.L9
 383              	.LBE19:
 384              	.LBE18:
 385              	.LBE23:
 386              	.LBE24:
 387              	.LBE34:
 388              		.cfi_endproc
 389              	.LFE171:
 391              		.section	.rodata.hostapd_eid_wmm_valid.str1.4,"aMS",@progbits,1
 392              		.align	2
 393              	.LC0:
 394 0000 574D4D20 		.string	"WMM IE"
 394      494500
 395 0007 00       		.align	2
 396              	.LC1:
 397 0008 546F6F20 		.string	"Too short WMM IE (len=%lu)"
 397      73686F72 
 397      7420574D 
 397      4D204945 
 397      20286C65 
 398 0023 00       		.align	2
 399              	.LC2:
 400 0024 56616C69 		.string	"Validating WMM IE: OUI %02x:%02x:%02x  OUI type %d  OUI sub-type %d  version %d  QoS info
 400      64617469 
 400      6E672057 
 400      4D4D2049 
 400      453A204F 
 401 0083 00       		.align	2
 402              	.LC3:
 403 0084 556E7375 		.string	"Unsupported WMM IE Subtype/Version"
 403      70706F72 
 403      74656420 
 403      574D4D20 
 403      49452053 
 404              		.section	.text.hostapd_eid_wmm_valid,"ax",@progbits
 405              		.align	1
 406              		.globl	hostapd_eid_wmm_valid
 408              	hostapd_eid_wmm_valid:
 409              	.LFB172:
 155:C:/Users/stapi/OneDrive/Desktop/GD32VW553/V1_MQTT_OK/GD32VW55X_Wifi_BLE_SDK/GD32VW55x_RELEASE_V1.0.2/MSDK/wpa_supplicant/src/ap\wmm.c **** 
 156:C:/Users/stapi/OneDrive/Desktop/GD32VW553/V1_MQTT_OK/GD32VW55X_Wifi_BLE_SDK/GD32VW55x_RELEASE_V1.0.2/MSDK/wpa_supplicant/src/ap\wmm.c **** 
 157:C:/Users/stapi/OneDrive/Desktop/GD32VW553/V1_MQTT_OK/GD32VW55X_Wifi_BLE_SDK/GD32VW55x_RELEASE_V1.0.2/MSDK/wpa_supplicant/src/ap\wmm.c **** /*
 158:C:/Users/stapi/OneDrive/Desktop/GD32VW553/V1_MQTT_OK/GD32VW55X_Wifi_BLE_SDK/GD32VW55x_RELEASE_V1.0.2/MSDK/wpa_supplicant/src/ap\wmm.c ****  * This function is called when a station sends an association request with
 159:C:/Users/stapi/OneDrive/Desktop/GD32VW553/V1_MQTT_OK/GD32VW55X_Wifi_BLE_SDK/GD32VW55x_RELEASE_V1.0.2/MSDK/wpa_supplicant/src/ap\wmm.c ****  * WMM info element. The function returns 1 on success or 0 on any error in WMM
 160:C:/Users/stapi/OneDrive/Desktop/GD32VW553/V1_MQTT_OK/GD32VW55X_Wifi_BLE_SDK/GD32VW55x_RELEASE_V1.0.2/MSDK/wpa_supplicant/src/ap\wmm.c ****  * element. eid does not include Element ID and Length octets.
 161:C:/Users/stapi/OneDrive/Desktop/GD32VW553/V1_MQTT_OK/GD32VW55X_Wifi_BLE_SDK/GD32VW55x_RELEASE_V1.0.2/MSDK/wpa_supplicant/src/ap\wmm.c ****  */
 162:C:/Users/stapi/OneDrive/Desktop/GD32VW553/V1_MQTT_OK/GD32VW55X_Wifi_BLE_SDK/GD32VW55x_RELEASE_V1.0.2/MSDK/wpa_supplicant/src/ap\wmm.c **** int hostapd_eid_wmm_valid(struct hostapd_data *hapd, const u8 *eid, size_t len)
 163:C:/Users/stapi/OneDrive/Desktop/GD32VW553/V1_MQTT_OK/GD32VW55X_Wifi_BLE_SDK/GD32VW55x_RELEASE_V1.0.2/MSDK/wpa_supplicant/src/ap\wmm.c **** {
 410              		.loc 1 163 1 is_stmt 1
 411              		.cfi_startproc
 412              	.LVL31:
 413 0000 17030000 		call	t0,__riscv_save_2
 413      E7020300 
 414              		.cfi_offset 9, -12
 415              		.cfi_offset 8, -8
 416              		.cfi_offset 1, -4
 417              		.cfi_def_cfa_offset 16
 164:C:/Users/stapi/OneDrive/Desktop/GD32VW553/V1_MQTT_OK/GD32VW55X_Wifi_BLE_SDK/GD32VW55x_RELEASE_V1.0.2/MSDK/wpa_supplicant/src/ap\wmm.c **** 	struct wmm_information_element *wmm;
 418              		.loc 1 164 2
 165:C:/Users/stapi/OneDrive/Desktop/GD32VW553/V1_MQTT_OK/GD32VW55X_Wifi_BLE_SDK/GD32VW55x_RELEASE_V1.0.2/MSDK/wpa_supplicant/src/ap\wmm.c **** 
 166:C:/Users/stapi/OneDrive/Desktop/GD32VW553/V1_MQTT_OK/GD32VW55X_Wifi_BLE_SDK/GD32VW55x_RELEASE_V1.0.2/MSDK/wpa_supplicant/src/ap\wmm.c **** 	wpa_hexdump(MSG_MSGDUMP, "WMM IE", eid, len);
 419              		.loc 1 166 2
 420 0008 B286     		mv	a3,a2
 163:C:/Users/stapi/OneDrive/Desktop/GD32VW553/V1_MQTT_OK/GD32VW55X_Wifi_BLE_SDK/GD32VW55x_RELEASE_V1.0.2/MSDK/wpa_supplicant/src/ap\wmm.c **** 	struct wmm_information_element *wmm;
 421              		.loc 1 163 1 is_stmt 0
 422 000a 2E84     		mv	s0,a1
 423 000c B284     		mv	s1,a2
 424              		.loc 1 166 2
 425 000e 2E86     		mv	a2,a1
 426              	.LVL32:
 427 0010 B7050000 		lui	a1,%hi(.LC0)
 428              	.LVL33:
 163:C:/Users/stapi/OneDrive/Desktop/GD32VW553/V1_MQTT_OK/GD32VW55X_Wifi_BLE_SDK/GD32VW55x_RELEASE_V1.0.2/MSDK/wpa_supplicant/src/ap\wmm.c **** 	struct wmm_information_element *wmm;
 429              		.loc 1 163 1
 430 0014 4111     		addi	sp,sp,-16
 431              		.cfi_def_cfa_offset 32
 432              		.loc 1 166 2
 433 0016 93850500 		addi	a1,a1,%lo(.LC0)
 434 001a 0545     		li	a0,1
 435              	.LVL34:
 436 001c 97000000 		call	wpa_hexdump
 436      E7800000 
 437              	.LVL35:
 167:C:/Users/stapi/OneDrive/Desktop/GD32VW553/V1_MQTT_OK/GD32VW55X_Wifi_BLE_SDK/GD32VW55x_RELEASE_V1.0.2/MSDK/wpa_supplicant/src/ap\wmm.c **** 
 168:C:/Users/stapi/OneDrive/Desktop/GD32VW553/V1_MQTT_OK/GD32VW55X_Wifi_BLE_SDK/GD32VW55x_RELEASE_V1.0.2/MSDK/wpa_supplicant/src/ap\wmm.c **** 	if (len < sizeof(struct wmm_information_element)) {
 438              		.loc 1 168 2 is_stmt 1
 439              		.loc 1 168 5 is_stmt 0
 440 0024 9947     		li	a5,6
 441 0026 63E29702 		bgtu	s1,a5,.L34
 169:C:/Users/stapi/OneDrive/Desktop/GD32VW553/V1_MQTT_OK/GD32VW55X_Wifi_BLE_SDK/GD32VW55x_RELEASE_V1.0.2/MSDK/wpa_supplicant/src/ap\wmm.c **** 		wpa_printf(MSG_DEBUG, "Too short WMM IE (len=%lu)",
 442              		.loc 1 169 3 is_stmt 1
 443 002a B7050000 		lui	a1,%hi(.LC1)
 444 002e 2686     		mv	a2,s1
 445 0030 93850500 		addi	a1,a1,%lo(.LC1)
 446 0034 0945     		li	a0,2
 447 0036 97000000 		call	wpa_printf
 447      E7800000 
 448              	.LVL36:
 170:C:/Users/stapi/OneDrive/Desktop/GD32VW553/V1_MQTT_OK/GD32VW55X_Wifi_BLE_SDK/GD32VW55x_RELEASE_V1.0.2/MSDK/wpa_supplicant/src/ap\wmm.c **** 			   (unsigned long) len);
 171:C:/Users/stapi/OneDrive/Desktop/GD32VW553/V1_MQTT_OK/GD32VW55X_Wifi_BLE_SDK/GD32VW55x_RELEASE_V1.0.2/MSDK/wpa_supplicant/src/ap\wmm.c **** 		return 0;
 449              		.loc 1 171 3
 450              	.L39:
 172:C:/Users/stapi/OneDrive/Desktop/GD32VW553/V1_MQTT_OK/GD32VW55X_Wifi_BLE_SDK/GD32VW55x_RELEASE_V1.0.2/MSDK/wpa_supplicant/src/ap\wmm.c **** 	}
 173:C:/Users/stapi/OneDrive/Desktop/GD32VW553/V1_MQTT_OK/GD32VW55X_Wifi_BLE_SDK/GD32VW55x_RELEASE_V1.0.2/MSDK/wpa_supplicant/src/ap\wmm.c **** 
 174:C:/Users/stapi/OneDrive/Desktop/GD32VW553/V1_MQTT_OK/GD32VW55X_Wifi_BLE_SDK/GD32VW55x_RELEASE_V1.0.2/MSDK/wpa_supplicant/src/ap\wmm.c **** 	wmm = (struct wmm_information_element *) eid;
 175:C:/Users/stapi/OneDrive/Desktop/GD32VW553/V1_MQTT_OK/GD32VW55X_Wifi_BLE_SDK/GD32VW55x_RELEASE_V1.0.2/MSDK/wpa_supplicant/src/ap\wmm.c **** 	wpa_printf(MSG_DEBUG, "Validating WMM IE: OUI %02x:%02x:%02x  "
 176:C:/Users/stapi/OneDrive/Desktop/GD32VW553/V1_MQTT_OK/GD32VW55X_Wifi_BLE_SDK/GD32VW55x_RELEASE_V1.0.2/MSDK/wpa_supplicant/src/ap\wmm.c **** 		   "OUI type %d  OUI sub-type %d  version %d  QoS info 0x%x",
 177:C:/Users/stapi/OneDrive/Desktop/GD32VW553/V1_MQTT_OK/GD32VW55X_Wifi_BLE_SDK/GD32VW55x_RELEASE_V1.0.2/MSDK/wpa_supplicant/src/ap\wmm.c **** 		   wmm->oui[0], wmm->oui[1], wmm->oui[2], wmm->oui_type,
 178:C:/Users/stapi/OneDrive/Desktop/GD32VW553/V1_MQTT_OK/GD32VW55X_Wifi_BLE_SDK/GD32VW55x_RELEASE_V1.0.2/MSDK/wpa_supplicant/src/ap\wmm.c **** 		   wmm->oui_subtype, wmm->version, wmm->qos_info);
 179:C:/Users/stapi/OneDrive/Desktop/GD32VW553/V1_MQTT_OK/GD32VW55X_Wifi_BLE_SDK/GD32VW55x_RELEASE_V1.0.2/MSDK/wpa_supplicant/src/ap\wmm.c **** 	if (wmm->oui_subtype != WMM_OUI_SUBTYPE_INFORMATION_ELEMENT ||
 180:C:/Users/stapi/OneDrive/Desktop/GD32VW553/V1_MQTT_OK/GD32VW55X_Wifi_BLE_SDK/GD32VW55x_RELEASE_V1.0.2/MSDK/wpa_supplicant/src/ap\wmm.c **** 	    wmm->version != WMM_VERSION) {
 181:C:/Users/stapi/OneDrive/Desktop/GD32VW553/V1_MQTT_OK/GD32VW55X_Wifi_BLE_SDK/GD32VW55x_RELEASE_V1.0.2/MSDK/wpa_supplicant/src/ap\wmm.c **** 		wpa_printf(MSG_DEBUG, "Unsupported WMM IE Subtype/Version");
 182:C:/Users/stapi/OneDrive/Desktop/GD32VW553/V1_MQTT_OK/GD32VW55X_Wifi_BLE_SDK/GD32VW55x_RELEASE_V1.0.2/MSDK/wpa_supplicant/src/ap\wmm.c **** 		return 0;
 451              		.loc 1 182 3
 452              		.loc 1 182 10 is_stmt 0
 453 003e 0145     		li	a0,0
 454              	.L33:
 183:C:/Users/stapi/OneDrive/Desktop/GD32VW553/V1_MQTT_OK/GD32VW55X_Wifi_BLE_SDK/GD32VW55x_RELEASE_V1.0.2/MSDK/wpa_supplicant/src/ap\wmm.c **** 	}
 184:C:/Users/stapi/OneDrive/Desktop/GD32VW553/V1_MQTT_OK/GD32VW55X_Wifi_BLE_SDK/GD32VW55x_RELEASE_V1.0.2/MSDK/wpa_supplicant/src/ap\wmm.c **** 
 185:C:/Users/stapi/OneDrive/Desktop/GD32VW553/V1_MQTT_OK/GD32VW55X_Wifi_BLE_SDK/GD32VW55x_RELEASE_V1.0.2/MSDK/wpa_supplicant/src/ap\wmm.c **** 	return 1;
 186:C:/Users/stapi/OneDrive/Desktop/GD32VW553/V1_MQTT_OK/GD32VW55X_Wifi_BLE_SDK/GD32VW55x_RELEASE_V1.0.2/MSDK/wpa_supplicant/src/ap\wmm.c **** }
 455              		.loc 1 186 1
 456 0040 4101     		addi	sp,sp,16
 457              		.cfi_remember_state
 458              		.cfi_def_cfa_offset 0
 459 0042 17030000 		tail	__riscv_restore_2
 459      67000300 
 460              		.cfi_restore 9
 461              		.cfi_restore 8
 462              		.cfi_restore 1
 463              		.cfi_def_cfa_offset -16
 464              	.L34:
 465              		.cfi_restore_state
 174:C:/Users/stapi/OneDrive/Desktop/GD32VW553/V1_MQTT_OK/GD32VW55X_Wifi_BLE_SDK/GD32VW55x_RELEASE_V1.0.2/MSDK/wpa_supplicant/src/ap\wmm.c **** 	wpa_printf(MSG_DEBUG, "Validating WMM IE: OUI %02x:%02x:%02x  "
 466              		.loc 1 174 2 is_stmt 1
 467              	.LVL37:
 175:C:/Users/stapi/OneDrive/Desktop/GD32VW553/V1_MQTT_OK/GD32VW55X_Wifi_BLE_SDK/GD32VW55x_RELEASE_V1.0.2/MSDK/wpa_supplicant/src/ap\wmm.c **** 		   "OUI type %d  OUI sub-type %d  version %d  QoS info 0x%x",
 468              		.loc 1 175 2
 469 004a 83476400 		lbu	a5,6(s0)
 470 004e 83485400 		lbu	a7,5(s0)
 471 0052 03484400 		lbu	a6,4(s0)
 472 0056 3EC0     		sw	a5,0(sp)
 473 0058 03472400 		lbu	a4,2(s0)
 474 005c 83473400 		lbu	a5,3(s0)
 475 0060 83461400 		lbu	a3,1(s0)
 476 0064 03460400 		lbu	a2,0(s0)
 477 0068 B7050000 		lui	a1,%hi(.LC2)
 478 006c 93850500 		addi	a1,a1,%lo(.LC2)
 479 0070 0945     		li	a0,2
 480 0072 97000000 		call	wpa_printf
 480      E7800000 
 481              	.LVL38:
 179:C:/Users/stapi/OneDrive/Desktop/GD32VW553/V1_MQTT_OK/GD32VW55X_Wifi_BLE_SDK/GD32VW55x_RELEASE_V1.0.2/MSDK/wpa_supplicant/src/ap\wmm.c **** 	    wmm->version != WMM_VERSION) {
 482              		.loc 1 179 2
 179:C:/Users/stapi/OneDrive/Desktop/GD32VW553/V1_MQTT_OK/GD32VW55X_Wifi_BLE_SDK/GD32VW55x_RELEASE_V1.0.2/MSDK/wpa_supplicant/src/ap\wmm.c **** 	    wmm->version != WMM_VERSION) {
 483              		.loc 1 179 5 is_stmt 0
 484 007a 83474400 		lbu	a5,4(s0)
 485 007e 91E7     		bne	a5,zero,.L36
 179:C:/Users/stapi/OneDrive/Desktop/GD32VW553/V1_MQTT_OK/GD32VW55X_Wifi_BLE_SDK/GD32VW55x_RELEASE_V1.0.2/MSDK/wpa_supplicant/src/ap\wmm.c **** 	    wmm->version != WMM_VERSION) {
 486              		.loc 1 179 62 discriminator 1
 487 0080 83475400 		lbu	a5,5(s0)
 185:C:/Users/stapi/OneDrive/Desktop/GD32VW553/V1_MQTT_OK/GD32VW55X_Wifi_BLE_SDK/GD32VW55x_RELEASE_V1.0.2/MSDK/wpa_supplicant/src/ap\wmm.c **** }
 488              		.loc 1 185 9 discriminator 1
 489 0084 0545     		li	a0,1
 179:C:/Users/stapi/OneDrive/Desktop/GD32VW553/V1_MQTT_OK/GD32VW55X_Wifi_BLE_SDK/GD32VW55x_RELEASE_V1.0.2/MSDK/wpa_supplicant/src/ap\wmm.c **** 	    wmm->version != WMM_VERSION) {
 490              		.loc 1 179 62 discriminator 1
 491 0086 E38DA7FA 		beq	a5,a0,.L33
 492              	.L36:
 181:C:/Users/stapi/OneDrive/Desktop/GD32VW553/V1_MQTT_OK/GD32VW55X_Wifi_BLE_SDK/GD32VW55x_RELEASE_V1.0.2/MSDK/wpa_supplicant/src/ap\wmm.c **** 		return 0;
 493              		.loc 1 181 3 is_stmt 1
 494 008a B7050000 		lui	a1,%hi(.LC3)
 495 008e 93850500 		addi	a1,a1,%lo(.LC3)
 496 0092 0945     		li	a0,2
 497 0094 97000000 		call	wpa_printf
 497      E7800000 
 498              	.LVL39:
 499 009c 4DB7     		j	.L39
 500              		.cfi_endproc
 501              	.LFE172:
 503              		.section	.rodata.wmm_process_tspec.str1.4,"aMS",@progbits,1
 504              		.align	2
 505              	.LC4:
 506 0000 20286669 		.string	" (fixed)"
 506      78656429 
 506      00
 507 0009 000000   		.align	2
 508              	.LC5:
 509 000c 00       		.string	""
 510 000d 000000   		.align	2
 511              	.LC6:
 512 0010 574D4D3A 		.string	"WMM: TS Info: UP=%d PSB=%d Direction=%d TID=%d"
 512      20545320 
 512      496E666F 
 512      3A205550 
 512      3D256420 
 513 003f 00       		.align	2
 514              	.LC7:
 515 0040 574D4D3A 		.string	"WMM: Nominal MSDU Size: %d%s"
 515      204E6F6D 
 515      696E616C 
 515      204D5344 
 515      55205369 
 516 005d 000000   		.align	2
 517              	.LC8:
 518 0060 574D4D3A 		.string	"WMM: Mean Data Rate: %u bps"
 518      204D6561 
 518      6E204461 
 518      74612052 
 518      6174653A 
 519              		.align	2
 520              	.LC9:
 521 007c 574D4D3A 		.string	"WMM: Minimum PHY Rate: %u bps"
 521      204D696E 
 521      696D756D 
 521      20504859 
 521      20526174 
 522 009a 0000     		.align	2
 523              	.LC10:
 524 009c 574D4D3A 		.string	"WMM: Surplus Bandwidth Allowance: %u.%04u"
 524      20537572 
 524      706C7573 
 524      2042616E 
 524      64776964 
 525 00c6 0000     		.align	2
 526              	.LC11:
 527 00c8 574D4D3A 		.string	"WMM: Invalid Nominal MSDU Size (0)"
 527      20496E76 
 527      616C6964 
 527      204E6F6D 
 527      696E616C 
 528 00eb 00       		.align	2
 529              	.LC12:
 530 00ec 574D4D3A 		.string	"WMM: Packets-per-second estimate for TSPEC: %d"
 530      20506163 
 530      6B657473 
 530      2D706572 
 530      2D736563 
 531 011b 00       		.align	2
 532              	.LC13:
 533 011c 574D4D3A 		.string	"WMM: Too small Minimum PHY Rate"
 533      20546F6F 
 533      20736D61 
 533      6C6C204D 
 533      696E696D 
 534              		.align	2
 535              	.LC14:
 536 013c 574D4D3A 		.string	"WMM: Surplus Bandwidth Allowance not greater than unity"
 536      20537572 
 536      706C7573 
 536      2042616E 
 536      64776964 
 537              		.align	2
 538              	.LC15:
 539 0174 574D4D3A 		.string	"WMM: Estimated medium time: %lu"
 539      20457374 
 539      696D6174 
 539      6564206D 
 539      65646975 
 540              		.align	2
 541              	.LC16:
 542 0194 574D4D3A 		.string	"WMM: Refuse TSPEC request for over 75%% of available bandwidth"
 542      20526566 
 542      75736520 
 542      54535045 
 542      43207265 
 543              		.section	.text.wmm_process_tspec,"ax",@progbits
 544              		.align	1
 545              		.globl	wmm_process_tspec
 547              	wmm_process_tspec:
 548              	.LFB174:
 187:C:/Users/stapi/OneDrive/Desktop/GD32VW553/V1_MQTT_OK/GD32VW55X_Wifi_BLE_SDK/GD32VW55x_RELEASE_V1.0.2/MSDK/wpa_supplicant/src/ap\wmm.c **** 
 188:C:/Users/stapi/OneDrive/Desktop/GD32VW553/V1_MQTT_OK/GD32VW55X_Wifi_BLE_SDK/GD32VW55x_RELEASE_V1.0.2/MSDK/wpa_supplicant/src/ap\wmm.c **** 
 189:C:/Users/stapi/OneDrive/Desktop/GD32VW553/V1_MQTT_OK/GD32VW55X_Wifi_BLE_SDK/GD32VW55x_RELEASE_V1.0.2/MSDK/wpa_supplicant/src/ap\wmm.c **** static void wmm_send_action(struct hostapd_data *hapd, const u8 *addr,
 190:C:/Users/stapi/OneDrive/Desktop/GD32VW553/V1_MQTT_OK/GD32VW55X_Wifi_BLE_SDK/GD32VW55x_RELEASE_V1.0.2/MSDK/wpa_supplicant/src/ap\wmm.c **** 			    const struct wmm_tspec_element *tspec,
 191:C:/Users/stapi/OneDrive/Desktop/GD32VW553/V1_MQTT_OK/GD32VW55X_Wifi_BLE_SDK/GD32VW55x_RELEASE_V1.0.2/MSDK/wpa_supplicant/src/ap\wmm.c **** 			    u8 action_code, u8 dialogue_token, u8 status_code)
 192:C:/Users/stapi/OneDrive/Desktop/GD32VW553/V1_MQTT_OK/GD32VW55X_Wifi_BLE_SDK/GD32VW55x_RELEASE_V1.0.2/MSDK/wpa_supplicant/src/ap\wmm.c **** {
 193:C:/Users/stapi/OneDrive/Desktop/GD32VW553/V1_MQTT_OK/GD32VW55X_Wifi_BLE_SDK/GD32VW55x_RELEASE_V1.0.2/MSDK/wpa_supplicant/src/ap\wmm.c **** 	u8 buf[256];
 194:C:/Users/stapi/OneDrive/Desktop/GD32VW553/V1_MQTT_OK/GD32VW55X_Wifi_BLE_SDK/GD32VW55x_RELEASE_V1.0.2/MSDK/wpa_supplicant/src/ap\wmm.c **** 	struct ieee80211_mgmt *m = (struct ieee80211_mgmt *) buf;
 195:C:/Users/stapi/OneDrive/Desktop/GD32VW553/V1_MQTT_OK/GD32VW55X_Wifi_BLE_SDK/GD32VW55x_RELEASE_V1.0.2/MSDK/wpa_supplicant/src/ap\wmm.c **** 	struct wmm_tspec_element *t = (struct wmm_tspec_element *)
 196:C:/Users/stapi/OneDrive/Desktop/GD32VW553/V1_MQTT_OK/GD32VW55X_Wifi_BLE_SDK/GD32VW55x_RELEASE_V1.0.2/MSDK/wpa_supplicant/src/ap\wmm.c **** 		m->u.action.u.wmm_action.variable;
 197:C:/Users/stapi/OneDrive/Desktop/GD32VW553/V1_MQTT_OK/GD32VW55X_Wifi_BLE_SDK/GD32VW55x_RELEASE_V1.0.2/MSDK/wpa_supplicant/src/ap\wmm.c **** 	int len;
 198:C:/Users/stapi/OneDrive/Desktop/GD32VW553/V1_MQTT_OK/GD32VW55X_Wifi_BLE_SDK/GD32VW55x_RELEASE_V1.0.2/MSDK/wpa_supplicant/src/ap\wmm.c **** 
 199:C:/Users/stapi/OneDrive/Desktop/GD32VW553/V1_MQTT_OK/GD32VW55X_Wifi_BLE_SDK/GD32VW55x_RELEASE_V1.0.2/MSDK/wpa_supplicant/src/ap\wmm.c **** 	hostapd_logger(hapd, addr, HOSTAPD_MODULE_IEEE80211,
 200:C:/Users/stapi/OneDrive/Desktop/GD32VW553/V1_MQTT_OK/GD32VW55X_Wifi_BLE_SDK/GD32VW55x_RELEASE_V1.0.2/MSDK/wpa_supplicant/src/ap\wmm.c **** 		       HOSTAPD_LEVEL_DEBUG,
 201:C:/Users/stapi/OneDrive/Desktop/GD32VW553/V1_MQTT_OK/GD32VW55X_Wifi_BLE_SDK/GD32VW55x_RELEASE_V1.0.2/MSDK/wpa_supplicant/src/ap\wmm.c **** 		       "action response - reason %d", status_code);
 202:C:/Users/stapi/OneDrive/Desktop/GD32VW553/V1_MQTT_OK/GD32VW55X_Wifi_BLE_SDK/GD32VW55x_RELEASE_V1.0.2/MSDK/wpa_supplicant/src/ap\wmm.c **** 	os_memset(buf, 0, sizeof(buf));
 203:C:/Users/stapi/OneDrive/Desktop/GD32VW553/V1_MQTT_OK/GD32VW55X_Wifi_BLE_SDK/GD32VW55x_RELEASE_V1.0.2/MSDK/wpa_supplicant/src/ap\wmm.c **** 	m->frame_control = IEEE80211_FC(WLAN_FC_TYPE_MGMT,
 204:C:/Users/stapi/OneDrive/Desktop/GD32VW553/V1_MQTT_OK/GD32VW55X_Wifi_BLE_SDK/GD32VW55x_RELEASE_V1.0.2/MSDK/wpa_supplicant/src/ap\wmm.c **** 					WLAN_FC_STYPE_ACTION);
 205:C:/Users/stapi/OneDrive/Desktop/GD32VW553/V1_MQTT_OK/GD32VW55X_Wifi_BLE_SDK/GD32VW55x_RELEASE_V1.0.2/MSDK/wpa_supplicant/src/ap\wmm.c **** 	os_memcpy(m->da, addr, ETH_ALEN);
 206:C:/Users/stapi/OneDrive/Desktop/GD32VW553/V1_MQTT_OK/GD32VW55X_Wifi_BLE_SDK/GD32VW55x_RELEASE_V1.0.2/MSDK/wpa_supplicant/src/ap\wmm.c **** 	os_memcpy(m->sa, hapd->own_addr, ETH_ALEN);
 207:C:/Users/stapi/OneDrive/Desktop/GD32VW553/V1_MQTT_OK/GD32VW55X_Wifi_BLE_SDK/GD32VW55x_RELEASE_V1.0.2/MSDK/wpa_supplicant/src/ap\wmm.c **** 	os_memcpy(m->bssid, hapd->own_addr, ETH_ALEN);
 208:C:/Users/stapi/OneDrive/Desktop/GD32VW553/V1_MQTT_OK/GD32VW55X_Wifi_BLE_SDK/GD32VW55x_RELEASE_V1.0.2/MSDK/wpa_supplicant/src/ap\wmm.c **** 	m->u.action.category = WLAN_ACTION_WMM;
 209:C:/Users/stapi/OneDrive/Desktop/GD32VW553/V1_MQTT_OK/GD32VW55X_Wifi_BLE_SDK/GD32VW55x_RELEASE_V1.0.2/MSDK/wpa_supplicant/src/ap\wmm.c **** 	m->u.action.u.wmm_action.action_code = action_code;
 210:C:/Users/stapi/OneDrive/Desktop/GD32VW553/V1_MQTT_OK/GD32VW55X_Wifi_BLE_SDK/GD32VW55x_RELEASE_V1.0.2/MSDK/wpa_supplicant/src/ap\wmm.c **** 	m->u.action.u.wmm_action.dialog_token = dialogue_token;
 211:C:/Users/stapi/OneDrive/Desktop/GD32VW553/V1_MQTT_OK/GD32VW55X_Wifi_BLE_SDK/GD32VW55x_RELEASE_V1.0.2/MSDK/wpa_supplicant/src/ap\wmm.c **** 	m->u.action.u.wmm_action.status_code = status_code;
 212:C:/Users/stapi/OneDrive/Desktop/GD32VW553/V1_MQTT_OK/GD32VW55X_Wifi_BLE_SDK/GD32VW55x_RELEASE_V1.0.2/MSDK/wpa_supplicant/src/ap\wmm.c **** 	os_memcpy(t, tspec, sizeof(struct wmm_tspec_element));
 213:C:/Users/stapi/OneDrive/Desktop/GD32VW553/V1_MQTT_OK/GD32VW55X_Wifi_BLE_SDK/GD32VW55x_RELEASE_V1.0.2/MSDK/wpa_supplicant/src/ap\wmm.c **** 	len = ((u8 *) (t + 1)) - buf;
 214:C:/Users/stapi/OneDrive/Desktop/GD32VW553/V1_MQTT_OK/GD32VW55X_Wifi_BLE_SDK/GD32VW55x_RELEASE_V1.0.2/MSDK/wpa_supplicant/src/ap\wmm.c **** 
 215:C:/Users/stapi/OneDrive/Desktop/GD32VW553/V1_MQTT_OK/GD32VW55X_Wifi_BLE_SDK/GD32VW55x_RELEASE_V1.0.2/MSDK/wpa_supplicant/src/ap\wmm.c **** 	if (hostapd_drv_send_mlme(hapd, m, len, 0, NULL, 0, 0) < 0)
 216:C:/Users/stapi/OneDrive/Desktop/GD32VW553/V1_MQTT_OK/GD32VW55X_Wifi_BLE_SDK/GD32VW55x_RELEASE_V1.0.2/MSDK/wpa_supplicant/src/ap\wmm.c **** 		wpa_printf(MSG_INFO, "wmm_send_action: send failed");
 217:C:/Users/stapi/OneDrive/Desktop/GD32VW553/V1_MQTT_OK/GD32VW55X_Wifi_BLE_SDK/GD32VW55x_RELEASE_V1.0.2/MSDK/wpa_supplicant/src/ap\wmm.c **** }
 218:C:/Users/stapi/OneDrive/Desktop/GD32VW553/V1_MQTT_OK/GD32VW55X_Wifi_BLE_SDK/GD32VW55x_RELEASE_V1.0.2/MSDK/wpa_supplicant/src/ap\wmm.c **** 
 219:C:/Users/stapi/OneDrive/Desktop/GD32VW553/V1_MQTT_OK/GD32VW55X_Wifi_BLE_SDK/GD32VW55x_RELEASE_V1.0.2/MSDK/wpa_supplicant/src/ap\wmm.c **** 
 220:C:/Users/stapi/OneDrive/Desktop/GD32VW553/V1_MQTT_OK/GD32VW55X_Wifi_BLE_SDK/GD32VW55x_RELEASE_V1.0.2/MSDK/wpa_supplicant/src/ap\wmm.c **** int wmm_process_tspec(struct wmm_tspec_element *tspec)
 221:C:/Users/stapi/OneDrive/Desktop/GD32VW553/V1_MQTT_OK/GD32VW55X_Wifi_BLE_SDK/GD32VW55x_RELEASE_V1.0.2/MSDK/wpa_supplicant/src/ap\wmm.c **** {
 549              		.loc 1 221 1
 550              		.cfi_startproc
 551              	.LVL40:
 552 0000 17030000 		call	t0,__riscv_save_4
 552      E7020300 
 553              		.cfi_offset 19, -20
 554              		.cfi_offset 18, -16
 555              		.cfi_offset 9, -12
 556              		.cfi_offset 8, -8
 557              		.cfi_offset 1, -4
 558              		.cfi_def_cfa_offset 32
 222:C:/Users/stapi/OneDrive/Desktop/GD32VW553/V1_MQTT_OK/GD32VW55X_Wifi_BLE_SDK/GD32VW55x_RELEASE_V1.0.2/MSDK/wpa_supplicant/src/ap\wmm.c **** 	u64 medium_time;
 559              		.loc 1 222 2
 223:C:/Users/stapi/OneDrive/Desktop/GD32VW553/V1_MQTT_OK/GD32VW55X_Wifi_BLE_SDK/GD32VW55x_RELEASE_V1.0.2/MSDK/wpa_supplicant/src/ap\wmm.c **** 	unsigned int pps, duration;
 560              		.loc 1 223 2
 224:C:/Users/stapi/OneDrive/Desktop/GD32VW553/V1_MQTT_OK/GD32VW55X_Wifi_BLE_SDK/GD32VW55x_RELEASE_V1.0.2/MSDK/wpa_supplicant/src/ap\wmm.c **** 	unsigned int up, psb, dir, tid;
 561              		.loc 1 224 2
 225:C:/Users/stapi/OneDrive/Desktop/GD32VW553/V1_MQTT_OK/GD32VW55X_Wifi_BLE_SDK/GD32VW55x_RELEASE_V1.0.2/MSDK/wpa_supplicant/src/ap\wmm.c **** 	u16 val, surplus;
 562              		.loc 1 225 2
 226:C:/Users/stapi/OneDrive/Desktop/GD32VW553/V1_MQTT_OK/GD32VW55X_Wifi_BLE_SDK/GD32VW55x_RELEASE_V1.0.2/MSDK/wpa_supplicant/src/ap\wmm.c **** 
 227:C:/Users/stapi/OneDrive/Desktop/GD32VW553/V1_MQTT_OK/GD32VW55X_Wifi_BLE_SDK/GD32VW55x_RELEASE_V1.0.2/MSDK/wpa_supplicant/src/ap\wmm.c **** 	up = (tspec->ts_info[1] >> 3) & 0x07;
 563              		.loc 1 227 2
 564              		.loc 1 227 22 is_stmt 0
 565 0008 83469500 		lbu	a3,9(a0)
 566              	.LVL41:
 228:C:/Users/stapi/OneDrive/Desktop/GD32VW553/V1_MQTT_OK/GD32VW55X_Wifi_BLE_SDK/GD32VW55x_RELEASE_V1.0.2/MSDK/wpa_supplicant/src/ap\wmm.c **** 	psb = (tspec->ts_info[1] >> 2) & 0x01;
 567              		.loc 1 228 2 is_stmt 1
 229:C:/Users/stapi/OneDrive/Desktop/GD32VW553/V1_MQTT_OK/GD32VW55X_Wifi_BLE_SDK/GD32VW55x_RELEASE_V1.0.2/MSDK/wpa_supplicant/src/ap\wmm.c **** 	dir = (tspec->ts_info[0] >> 5) & 0x03;
 568              		.loc 1 229 2
 569              		.loc 1 229 23 is_stmt 0
 570 000c 03478500 		lbu	a4,8(a0)
 571              	.LVL42:
 230:C:/Users/stapi/OneDrive/Desktop/GD32VW553/V1_MQTT_OK/GD32VW55X_Wifi_BLE_SDK/GD32VW55x_RELEASE_V1.0.2/MSDK/wpa_supplicant/src/ap\wmm.c **** 	tid = (tspec->ts_info[0] >> 1) & 0x0f;
 572              		.loc 1 230 2 is_stmt 1
 231:C:/Users/stapi/OneDrive/Desktop/GD32VW553/V1_MQTT_OK/GD32VW55X_Wifi_BLE_SDK/GD32VW55x_RELEASE_V1.0.2/MSDK/wpa_supplicant/src/ap\wmm.c **** 	wpa_printf(MSG_DEBUG, "WMM: TS Info: UP=%d PSB=%d Direction=%d TID=%d",
 573              		.loc 1 231 2
 574 0010 B7050000 		lui	a1,%hi(.LC6)
 227:C:/Users/stapi/OneDrive/Desktop/GD32VW553/V1_MQTT_OK/GD32VW55X_Wifi_BLE_SDK/GD32VW55x_RELEASE_V1.0.2/MSDK/wpa_supplicant/src/ap\wmm.c **** 	psb = (tspec->ts_info[1] >> 2) & 0x01;
 575              		.loc 1 227 32 is_stmt 0
 576 0014 13D63600 		srli	a2,a3,3
 230:C:/Users/stapi/OneDrive/Desktop/GD32VW553/V1_MQTT_OK/GD32VW55X_Wifi_BLE_SDK/GD32VW55x_RELEASE_V1.0.2/MSDK/wpa_supplicant/src/ap\wmm.c **** 	tid = (tspec->ts_info[0] >> 1) & 0x0f;
 577              		.loc 1 230 33
 578 0018 93571700 		srli	a5,a4,1
 229:C:/Users/stapi/OneDrive/Desktop/GD32VW553/V1_MQTT_OK/GD32VW55X_Wifi_BLE_SDK/GD32VW55x_RELEASE_V1.0.2/MSDK/wpa_supplicant/src/ap\wmm.c **** 	tid = (tspec->ts_info[0] >> 1) & 0x0f;
 579              		.loc 1 229 33
 580 001c 1583     		srli	a4,a4,5
 581              	.LVL43:
 221:C:/Users/stapi/OneDrive/Desktop/GD32VW553/V1_MQTT_OK/GD32VW55X_Wifi_BLE_SDK/GD32VW55x_RELEASE_V1.0.2/MSDK/wpa_supplicant/src/ap\wmm.c **** 	u64 medium_time;
 582              		.loc 1 221 1
 583 001e 2A84     		mv	s0,a0
 584              		.loc 1 231 2
 585 0020 BD8B     		andi	a5,a5,15
 586 0022 0D8B     		andi	a4,a4,3
 587 0024 1D8A     		andi	a2,a2,7
 588 0026 93850500 		addi	a1,a1,%lo(.LC6)
 589 002a 0945     		li	a0,2
 590              	.LVL44:
 591 002c 93D62648 		bexti	a3,a3,2
 592              	.LVL45:
 593 0030 97000000 		call	wpa_printf
 593      E7800000 
 594              	.LVL46:
 232:C:/Users/stapi/OneDrive/Desktop/GD32VW553/V1_MQTT_OK/GD32VW55X_Wifi_BLE_SDK/GD32VW55x_RELEASE_V1.0.2/MSDK/wpa_supplicant/src/ap\wmm.c **** 		   up, psb, dir, tid);
 233:C:/Users/stapi/OneDrive/Desktop/GD32VW553/V1_MQTT_OK/GD32VW55X_Wifi_BLE_SDK/GD32VW55x_RELEASE_V1.0.2/MSDK/wpa_supplicant/src/ap\wmm.c **** 	val = le_to_host16(tspec->nominal_msdu_size);
 595              		.loc 1 233 2 is_stmt 1
 596              		.loc 1 233 6 is_stmt 0
 597 0038 8347C400 		lbu	a5,12(s0)
 598 003c 0347B400 		lbu	a4,11(s0)
 599 0040 A207     		slli	a5,a5,8
 600 0042 D98F     		or	a5,a5,a4
 601              	.LVL47:
 234:C:/Users/stapi/OneDrive/Desktop/GD32VW553/V1_MQTT_OK/GD32VW55X_Wifi_BLE_SDK/GD32VW55x_RELEASE_V1.0.2/MSDK/wpa_supplicant/src/ap\wmm.c **** 	wpa_printf(MSG_DEBUG, "WMM: Nominal MSDU Size: %d%s",
 602              		.loc 1 234 2 is_stmt 1
 603 0044 13961701 		slli	a2,a5,17
 604 0048 4582     		srli	a2,a2,17
 605 004a 93975760 		sext.h	a5,a5
 606 004e 63CB070C 		blt	a5,zero,.L48
 607 0052 B7060000 		lui	a3,%hi(.LC5)
 608 0056 93860600 		addi	a3,a3,%lo(.LC5)
 609              	.L41:
 610              		.loc 1 234 2 is_stmt 0 discriminator 4
 611 005a B7050000 		lui	a1,%hi(.LC7)
 612 005e 93850500 		addi	a1,a1,%lo(.LC7)
 613 0062 0945     		li	a0,2
 614 0064 97000000 		call	wpa_printf
 614      E7800000 
 615              	.LVL48:
 235:C:/Users/stapi/OneDrive/Desktop/GD32VW553/V1_MQTT_OK/GD32VW55X_Wifi_BLE_SDK/GD32VW55x_RELEASE_V1.0.2/MSDK/wpa_supplicant/src/ap\wmm.c **** 		   val & 0x7fff, val & 0x8000 ? " (fixed)" : "");
 236:C:/Users/stapi/OneDrive/Desktop/GD32VW553/V1_MQTT_OK/GD32VW55X_Wifi_BLE_SDK/GD32VW55x_RELEASE_V1.0.2/MSDK/wpa_supplicant/src/ap\wmm.c **** 	wpa_printf(MSG_DEBUG, "WMM: Mean Data Rate: %u bps",
 616              		.loc 1 236 2 is_stmt 1 discriminator 4
 237:C:/Users/stapi/OneDrive/Desktop/GD32VW553/V1_MQTT_OK/GD32VW55X_Wifi_BLE_SDK/GD32VW55x_RELEASE_V1.0.2/MSDK/wpa_supplicant/src/ap\wmm.c **** 		   le_to_host32(tspec->mean_data_rate));
 617              		.loc 1 237 6 is_stmt 0 discriminator 4
 618 006c 03468402 		lbu	a2,40(s0)
 619 0070 83477402 		lbu	a5,39(s0)
 236:C:/Users/stapi/OneDrive/Desktop/GD32VW553/V1_MQTT_OK/GD32VW55X_Wifi_BLE_SDK/GD32VW55x_RELEASE_V1.0.2/MSDK/wpa_supplicant/src/ap\wmm.c **** 		   le_to_host32(tspec->mean_data_rate));
 620              		.loc 1 236 2 discriminator 4
 621 0074 B7050000 		lui	a1,%hi(.LC8)
 622              		.loc 1 237 6 discriminator 4
 623 0078 2206     		slli	a2,a2,8
 624 007a 5D8E     		or	a2,a2,a5
 625 007c 83479402 		lbu	a5,41(s0)
 236:C:/Users/stapi/OneDrive/Desktop/GD32VW553/V1_MQTT_OK/GD32VW55X_Wifi_BLE_SDK/GD32VW55x_RELEASE_V1.0.2/MSDK/wpa_supplicant/src/ap\wmm.c **** 		   le_to_host32(tspec->mean_data_rate));
 626              		.loc 1 236 2 discriminator 4
 627 0080 93850500 		addi	a1,a1,%lo(.LC8)
 628 0084 0945     		li	a0,2
 629              		.loc 1 237 6 discriminator 4
 630 0086 C207     		slli	a5,a5,16
 631 0088 D18F     		or	a5,a5,a2
 632 008a 0346A402 		lbu	a2,42(s0)
 238:C:/Users/stapi/OneDrive/Desktop/GD32VW553/V1_MQTT_OK/GD32VW55X_Wifi_BLE_SDK/GD32VW55x_RELEASE_V1.0.2/MSDK/wpa_supplicant/src/ap\wmm.c **** 	wpa_printf(MSG_DEBUG, "WMM: Minimum PHY Rate: %u bps",
 239:C:/Users/stapi/OneDrive/Desktop/GD32VW553/V1_MQTT_OK/GD32VW55X_Wifi_BLE_SDK/GD32VW55x_RELEASE_V1.0.2/MSDK/wpa_supplicant/src/ap\wmm.c **** 		   le_to_host32(tspec->minimum_phy_rate));
 240:C:/Users/stapi/OneDrive/Desktop/GD32VW553/V1_MQTT_OK/GD32VW55X_Wifi_BLE_SDK/GD32VW55x_RELEASE_V1.0.2/MSDK/wpa_supplicant/src/ap\wmm.c **** 	val = le_to_host16(tspec->surplus_bandwidth_allowance);
 241:C:/Users/stapi/OneDrive/Desktop/GD32VW553/V1_MQTT_OK/GD32VW55X_Wifi_BLE_SDK/GD32VW55x_RELEASE_V1.0.2/MSDK/wpa_supplicant/src/ap\wmm.c **** 	wpa_printf(MSG_DEBUG, "WMM: Surplus Bandwidth Allowance: %u.%04u",
 242:C:/Users/stapi/OneDrive/Desktop/GD32VW553/V1_MQTT_OK/GD32VW55X_Wifi_BLE_SDK/GD32VW55x_RELEASE_V1.0.2/MSDK/wpa_supplicant/src/ap\wmm.c **** 		   val >> 13, 10000 * (val & 0x1fff) / 0x2000);
 633              		.loc 1 242 30 discriminator 4
 634 008e 0969     		li	s2,8192
 237:C:/Users/stapi/OneDrive/Desktop/GD32VW553/V1_MQTT_OK/GD32VW55X_Wifi_BLE_SDK/GD32VW55x_RELEASE_V1.0.2/MSDK/wpa_supplicant/src/ap\wmm.c **** 	wpa_printf(MSG_DEBUG, "WMM: Minimum PHY Rate: %u bps",
 635              		.loc 1 237 6 discriminator 4
 636 0090 6206     		slli	a2,a2,24
 236:C:/Users/stapi/OneDrive/Desktop/GD32VW553/V1_MQTT_OK/GD32VW55X_Wifi_BLE_SDK/GD32VW55x_RELEASE_V1.0.2/MSDK/wpa_supplicant/src/ap\wmm.c **** 		   le_to_host32(tspec->mean_data_rate));
 637              		.loc 1 236 2 discriminator 4
 638 0092 5D8E     		or	a2,a2,a5
 639 0094 97000000 		call	wpa_printf
 639      E7800000 
 640              	.LVL49:
 238:C:/Users/stapi/OneDrive/Desktop/GD32VW553/V1_MQTT_OK/GD32VW55X_Wifi_BLE_SDK/GD32VW55x_RELEASE_V1.0.2/MSDK/wpa_supplicant/src/ap\wmm.c **** 	wpa_printf(MSG_DEBUG, "WMM: Minimum PHY Rate: %u bps",
 641              		.loc 1 238 2 is_stmt 1 discriminator 4
 239:C:/Users/stapi/OneDrive/Desktop/GD32VW553/V1_MQTT_OK/GD32VW55X_Wifi_BLE_SDK/GD32VW55x_RELEASE_V1.0.2/MSDK/wpa_supplicant/src/ap\wmm.c **** 	val = le_to_host16(tspec->surplus_bandwidth_allowance);
 642              		.loc 1 239 6 is_stmt 0 discriminator 4
 643 009c 03468403 		lbu	a2,56(s0)
 644 00a0 83477403 		lbu	a5,55(s0)
 238:C:/Users/stapi/OneDrive/Desktop/GD32VW553/V1_MQTT_OK/GD32VW55X_Wifi_BLE_SDK/GD32VW55x_RELEASE_V1.0.2/MSDK/wpa_supplicant/src/ap\wmm.c **** 	wpa_printf(MSG_DEBUG, "WMM: Minimum PHY Rate: %u bps",
 645              		.loc 1 238 2 discriminator 4
 646 00a4 B7050000 		lui	a1,%hi(.LC9)
 239:C:/Users/stapi/OneDrive/Desktop/GD32VW553/V1_MQTT_OK/GD32VW55X_Wifi_BLE_SDK/GD32VW55x_RELEASE_V1.0.2/MSDK/wpa_supplicant/src/ap\wmm.c **** 	val = le_to_host16(tspec->surplus_bandwidth_allowance);
 647              		.loc 1 239 6 discriminator 4
 648 00a8 2206     		slli	a2,a2,8
 649 00aa 5D8E     		or	a2,a2,a5
 650 00ac 83479403 		lbu	a5,57(s0)
 238:C:/Users/stapi/OneDrive/Desktop/GD32VW553/V1_MQTT_OK/GD32VW55X_Wifi_BLE_SDK/GD32VW55x_RELEASE_V1.0.2/MSDK/wpa_supplicant/src/ap\wmm.c **** 	wpa_printf(MSG_DEBUG, "WMM: Minimum PHY Rate: %u bps",
 651              		.loc 1 238 2 discriminator 4
 652 00b0 93850500 		addi	a1,a1,%lo(.LC9)
 653 00b4 0945     		li	a0,2
 239:C:/Users/stapi/OneDrive/Desktop/GD32VW553/V1_MQTT_OK/GD32VW55X_Wifi_BLE_SDK/GD32VW55x_RELEASE_V1.0.2/MSDK/wpa_supplicant/src/ap\wmm.c **** 	val = le_to_host16(tspec->surplus_bandwidth_allowance);
 654              		.loc 1 239 6 discriminator 4
 655 00b6 C207     		slli	a5,a5,16
 656 00b8 D18F     		or	a5,a5,a2
 657 00ba 0346A403 		lbu	a2,58(s0)
 658 00be 6206     		slli	a2,a2,24
 238:C:/Users/stapi/OneDrive/Desktop/GD32VW553/V1_MQTT_OK/GD32VW55X_Wifi_BLE_SDK/GD32VW55x_RELEASE_V1.0.2/MSDK/wpa_supplicant/src/ap\wmm.c **** 	wpa_printf(MSG_DEBUG, "WMM: Minimum PHY Rate: %u bps",
 659              		.loc 1 238 2 discriminator 4
 660 00c0 5D8E     		or	a2,a2,a5
 661 00c2 97000000 		call	wpa_printf
 661      E7800000 
 662              	.LVL50:
 240:C:/Users/stapi/OneDrive/Desktop/GD32VW553/V1_MQTT_OK/GD32VW55X_Wifi_BLE_SDK/GD32VW55x_RELEASE_V1.0.2/MSDK/wpa_supplicant/src/ap\wmm.c **** 	wpa_printf(MSG_DEBUG, "WMM: Surplus Bandwidth Allowance: %u.%04u",
 663              		.loc 1 240 2 is_stmt 1 discriminator 4
 240:C:/Users/stapi/OneDrive/Desktop/GD32VW553/V1_MQTT_OK/GD32VW55X_Wifi_BLE_SDK/GD32VW55x_RELEASE_V1.0.2/MSDK/wpa_supplicant/src/ap\wmm.c **** 	wpa_printf(MSG_DEBUG, "WMM: Surplus Bandwidth Allowance: %u.%04u",
 664              		.loc 1 240 6 is_stmt 0 discriminator 4
 665 00ca 0346C403 		lbu	a2,60(s0)
 666 00ce 8347B403 		lbu	a5,59(s0)
 667              		.loc 1 242 30 discriminator 4
 668 00d2 9306F9FF 		addi	a3,s2,-1
 240:C:/Users/stapi/OneDrive/Desktop/GD32VW553/V1_MQTT_OK/GD32VW55X_Wifi_BLE_SDK/GD32VW55x_RELEASE_V1.0.2/MSDK/wpa_supplicant/src/ap\wmm.c **** 	wpa_printf(MSG_DEBUG, "WMM: Surplus Bandwidth Allowance: %u.%04u",
 669              		.loc 1 240 6 discriminator 4
 670 00d6 2206     		slli	a2,a2,8
 671 00d8 5D8E     		or	a2,a2,a5
 672              	.LVL51:
 241:C:/Users/stapi/OneDrive/Desktop/GD32VW553/V1_MQTT_OK/GD32VW55X_Wifi_BLE_SDK/GD32VW55x_RELEASE_V1.0.2/MSDK/wpa_supplicant/src/ap\wmm.c **** 		   val >> 13, 10000 * (val & 0x1fff) / 0x2000);
 673              		.loc 1 241 2 is_stmt 1 discriminator 4
 674              		.loc 1 242 30 is_stmt 0 discriminator 4
 675 00da F18E     		and	a3,a2,a3
 676              		.loc 1 242 23 discriminator 4
 677 00dc 93070971 		addi	a5,s2,1808
 678 00e0 B386F602 		mul	a3,a3,a5
 241:C:/Users/stapi/OneDrive/Desktop/GD32VW553/V1_MQTT_OK/GD32VW55X_Wifi_BLE_SDK/GD32VW55x_RELEASE_V1.0.2/MSDK/wpa_supplicant/src/ap\wmm.c **** 		   val >> 13, 10000 * (val & 0x1fff) / 0x2000);
 679              		.loc 1 241 2 discriminator 4
 680 00e4 B7050000 		lui	a1,%hi(.LC10)
 681 00e8 3582     		srli	a2,a2,13
 682              	.LVL52:
 683 00ea 93850500 		addi	a1,a1,%lo(.LC10)
 684 00ee 0945     		li	a0,2
 685 00f0 B582     		srli	a3,a3,13
 686 00f2 97000000 		call	wpa_printf
 686      E7800000 
 687              	.LVL53:
 243:C:/Users/stapi/OneDrive/Desktop/GD32VW553/V1_MQTT_OK/GD32VW55X_Wifi_BLE_SDK/GD32VW55x_RELEASE_V1.0.2/MSDK/wpa_supplicant/src/ap\wmm.c **** 
 244:C:/Users/stapi/OneDrive/Desktop/GD32VW553/V1_MQTT_OK/GD32VW55X_Wifi_BLE_SDK/GD32VW55x_RELEASE_V1.0.2/MSDK/wpa_supplicant/src/ap\wmm.c **** 	val = le_to_host16(tspec->nominal_msdu_size);
 688              		.loc 1 244 2 is_stmt 1 discriminator 4
 689              		.loc 1 244 6 is_stmt 0 discriminator 4
 690 00fa 0346C400 		lbu	a2,12(s0)
 691 00fe 8344B400 		lbu	s1,11(s0)
 692 0102 2206     		slli	a2,a2,8
 693 0104 458E     		or	a2,a2,s1
 694              	.LVL54:
 245:C:/Users/stapi/OneDrive/Desktop/GD32VW553/V1_MQTT_OK/GD32VW55X_Wifi_BLE_SDK/GD32VW55x_RELEASE_V1.0.2/MSDK/wpa_supplicant/src/ap\wmm.c **** 	if (val == 0) {
 695              		.loc 1 245 2 is_stmt 1 discriminator 4
 696              		.loc 1 245 5 is_stmt 0 discriminator 4
 697 0106 05E6     		bne	a2,zero,.L42
 246:C:/Users/stapi/OneDrive/Desktop/GD32VW553/V1_MQTT_OK/GD32VW55X_Wifi_BLE_SDK/GD32VW55x_RELEASE_V1.0.2/MSDK/wpa_supplicant/src/ap\wmm.c **** 		wpa_printf(MSG_DEBUG, "WMM: Invalid Nominal MSDU Size (0)");
 698              		.loc 1 246 3 is_stmt 1
 699 0108 B7050000 		lui	a1,%hi(.LC11)
 700 010c 93850500 		addi	a1,a1,%lo(.LC11)
 701              	.LVL55:
 702              	.L51:
 247:C:/Users/stapi/OneDrive/Desktop/GD32VW553/V1_MQTT_OK/GD32VW55X_Wifi_BLE_SDK/GD32VW55x_RELEASE_V1.0.2/MSDK/wpa_supplicant/src/ap\wmm.c **** 		return WMM_ADDTS_STATUS_INVALID_PARAMETERS;
 248:C:/Users/stapi/OneDrive/Desktop/GD32VW553/V1_MQTT_OK/GD32VW55X_Wifi_BLE_SDK/GD32VW55x_RELEASE_V1.0.2/MSDK/wpa_supplicant/src/ap\wmm.c **** 	}
 249:C:/Users/stapi/OneDrive/Desktop/GD32VW553/V1_MQTT_OK/GD32VW55X_Wifi_BLE_SDK/GD32VW55x_RELEASE_V1.0.2/MSDK/wpa_supplicant/src/ap\wmm.c **** 	/* pps = Ceiling((Mean Data Rate / 8) / Nominal MSDU Size) */
 250:C:/Users/stapi/OneDrive/Desktop/GD32VW553/V1_MQTT_OK/GD32VW55X_Wifi_BLE_SDK/GD32VW55x_RELEASE_V1.0.2/MSDK/wpa_supplicant/src/ap\wmm.c **** 	pps = ((le_to_host32(tspec->mean_data_rate) / 8) + val - 1) / val;
 251:C:/Users/stapi/OneDrive/Desktop/GD32VW553/V1_MQTT_OK/GD32VW55X_Wifi_BLE_SDK/GD32VW55x_RELEASE_V1.0.2/MSDK/wpa_supplicant/src/ap\wmm.c **** 	wpa_printf(MSG_DEBUG, "WMM: Packets-per-second estimate for TSPEC: %d",
 252:C:/Users/stapi/OneDrive/Desktop/GD32VW553/V1_MQTT_OK/GD32VW55X_Wifi_BLE_SDK/GD32VW55x_RELEASE_V1.0.2/MSDK/wpa_supplicant/src/ap\wmm.c **** 		   pps);
 253:C:/Users/stapi/OneDrive/Desktop/GD32VW553/V1_MQTT_OK/GD32VW55X_Wifi_BLE_SDK/GD32VW55x_RELEASE_V1.0.2/MSDK/wpa_supplicant/src/ap\wmm.c **** 
 254:C:/Users/stapi/OneDrive/Desktop/GD32VW553/V1_MQTT_OK/GD32VW55X_Wifi_BLE_SDK/GD32VW55x_RELEASE_V1.0.2/MSDK/wpa_supplicant/src/ap\wmm.c **** 	if (le_to_host32(tspec->minimum_phy_rate) < 1000000) {
 255:C:/Users/stapi/OneDrive/Desktop/GD32VW553/V1_MQTT_OK/GD32VW55X_Wifi_BLE_SDK/GD32VW55x_RELEASE_V1.0.2/MSDK/wpa_supplicant/src/ap\wmm.c **** 		wpa_printf(MSG_DEBUG, "WMM: Too small Minimum PHY Rate");
 256:C:/Users/stapi/OneDrive/Desktop/GD32VW553/V1_MQTT_OK/GD32VW55X_Wifi_BLE_SDK/GD32VW55x_RELEASE_V1.0.2/MSDK/wpa_supplicant/src/ap\wmm.c **** 		return WMM_ADDTS_STATUS_INVALID_PARAMETERS;
 257:C:/Users/stapi/OneDrive/Desktop/GD32VW553/V1_MQTT_OK/GD32VW55X_Wifi_BLE_SDK/GD32VW55x_RELEASE_V1.0.2/MSDK/wpa_supplicant/src/ap\wmm.c **** 	}
 258:C:/Users/stapi/OneDrive/Desktop/GD32VW553/V1_MQTT_OK/GD32VW55X_Wifi_BLE_SDK/GD32VW55x_RELEASE_V1.0.2/MSDK/wpa_supplicant/src/ap\wmm.c **** 
 259:C:/Users/stapi/OneDrive/Desktop/GD32VW553/V1_MQTT_OK/GD32VW55X_Wifi_BLE_SDK/GD32VW55x_RELEASE_V1.0.2/MSDK/wpa_supplicant/src/ap\wmm.c **** 	duration = (le_to_host16(tspec->nominal_msdu_size) & 0x7fff) * 8 /
 260:C:/Users/stapi/OneDrive/Desktop/GD32VW553/V1_MQTT_OK/GD32VW55X_Wifi_BLE_SDK/GD32VW55x_RELEASE_V1.0.2/MSDK/wpa_supplicant/src/ap\wmm.c **** 		(le_to_host32(tspec->minimum_phy_rate) / 1000000) +
 261:C:/Users/stapi/OneDrive/Desktop/GD32VW553/V1_MQTT_OK/GD32VW55X_Wifi_BLE_SDK/GD32VW55x_RELEASE_V1.0.2/MSDK/wpa_supplicant/src/ap\wmm.c **** 		50 /* FIX: proper SIFS + ACK duration */;
 262:C:/Users/stapi/OneDrive/Desktop/GD32VW553/V1_MQTT_OK/GD32VW55X_Wifi_BLE_SDK/GD32VW55x_RELEASE_V1.0.2/MSDK/wpa_supplicant/src/ap\wmm.c **** 
 263:C:/Users/stapi/OneDrive/Desktop/GD32VW553/V1_MQTT_OK/GD32VW55X_Wifi_BLE_SDK/GD32VW55x_RELEASE_V1.0.2/MSDK/wpa_supplicant/src/ap\wmm.c **** 	/* unsigned binary number with an implicit binary point after the
 264:C:/Users/stapi/OneDrive/Desktop/GD32VW553/V1_MQTT_OK/GD32VW55X_Wifi_BLE_SDK/GD32VW55x_RELEASE_V1.0.2/MSDK/wpa_supplicant/src/ap\wmm.c **** 	 * leftmost 3 bits, i.e., 0x2000 = 1.0 */
 265:C:/Users/stapi/OneDrive/Desktop/GD32VW553/V1_MQTT_OK/GD32VW55X_Wifi_BLE_SDK/GD32VW55x_RELEASE_V1.0.2/MSDK/wpa_supplicant/src/ap\wmm.c **** 	surplus = le_to_host16(tspec->surplus_bandwidth_allowance);
 266:C:/Users/stapi/OneDrive/Desktop/GD32VW553/V1_MQTT_OK/GD32VW55X_Wifi_BLE_SDK/GD32VW55x_RELEASE_V1.0.2/MSDK/wpa_supplicant/src/ap\wmm.c **** 	if (surplus <= 0x2000) {
 267:C:/Users/stapi/OneDrive/Desktop/GD32VW553/V1_MQTT_OK/GD32VW55X_Wifi_BLE_SDK/GD32VW55x_RELEASE_V1.0.2/MSDK/wpa_supplicant/src/ap\wmm.c **** 		wpa_printf(MSG_DEBUG, "WMM: Surplus Bandwidth Allowance not "
 703              		.loc 1 267 3 is_stmt 0
 704 0110 0945     		li	a0,2
 705 0112 97000000 		call	wpa_printf
 705      E7800000 
 706              	.LVL56:
 268:C:/Users/stapi/OneDrive/Desktop/GD32VW553/V1_MQTT_OK/GD32VW55X_Wifi_BLE_SDK/GD32VW55x_RELEASE_V1.0.2/MSDK/wpa_supplicant/src/ap\wmm.c **** 			   "greater than unity");
 269:C:/Users/stapi/OneDrive/Desktop/GD32VW553/V1_MQTT_OK/GD32VW55X_Wifi_BLE_SDK/GD32VW55x_RELEASE_V1.0.2/MSDK/wpa_supplicant/src/ap\wmm.c **** 		return WMM_ADDTS_STATUS_INVALID_PARAMETERS;
 707              		.loc 1 269 3 is_stmt 1
 708              		.loc 1 269 10 is_stmt 0
 709 011a 0545     		li	a0,1
 710              	.L40:
 270:C:/Users/stapi/OneDrive/Desktop/GD32VW553/V1_MQTT_OK/GD32VW55X_Wifi_BLE_SDK/GD32VW55x_RELEASE_V1.0.2/MSDK/wpa_supplicant/src/ap\wmm.c **** 	}
 271:C:/Users/stapi/OneDrive/Desktop/GD32VW553/V1_MQTT_OK/GD32VW55X_Wifi_BLE_SDK/GD32VW55x_RELEASE_V1.0.2/MSDK/wpa_supplicant/src/ap\wmm.c **** 
 272:C:/Users/stapi/OneDrive/Desktop/GD32VW553/V1_MQTT_OK/GD32VW55X_Wifi_BLE_SDK/GD32VW55x_RELEASE_V1.0.2/MSDK/wpa_supplicant/src/ap\wmm.c **** 	medium_time = (u64) surplus * pps * duration / 0x2000;
 273:C:/Users/stapi/OneDrive/Desktop/GD32VW553/V1_MQTT_OK/GD32VW55X_Wifi_BLE_SDK/GD32VW55x_RELEASE_V1.0.2/MSDK/wpa_supplicant/src/ap\wmm.c **** 	wpa_printf(MSG_DEBUG, "WMM: Estimated medium time: %lu",
 274:C:/Users/stapi/OneDrive/Desktop/GD32VW553/V1_MQTT_OK/GD32VW55X_Wifi_BLE_SDK/GD32VW55x_RELEASE_V1.0.2/MSDK/wpa_supplicant/src/ap\wmm.c **** 		   (unsigned long) medium_time);
 275:C:/Users/stapi/OneDrive/Desktop/GD32VW553/V1_MQTT_OK/GD32VW55X_Wifi_BLE_SDK/GD32VW55x_RELEASE_V1.0.2/MSDK/wpa_supplicant/src/ap\wmm.c **** 
 276:C:/Users/stapi/OneDrive/Desktop/GD32VW553/V1_MQTT_OK/GD32VW55X_Wifi_BLE_SDK/GD32VW55x_RELEASE_V1.0.2/MSDK/wpa_supplicant/src/ap\wmm.c **** 	/*
 277:C:/Users/stapi/OneDrive/Desktop/GD32VW553/V1_MQTT_OK/GD32VW55X_Wifi_BLE_SDK/GD32VW55x_RELEASE_V1.0.2/MSDK/wpa_supplicant/src/ap\wmm.c **** 	 * TODO: store list of granted (and still active) TSPECs and check
 278:C:/Users/stapi/OneDrive/Desktop/GD32VW553/V1_MQTT_OK/GD32VW55X_Wifi_BLE_SDK/GD32VW55x_RELEASE_V1.0.2/MSDK/wpa_supplicant/src/ap\wmm.c **** 	 * whether there is available medium time for this request. For now,
 279:C:/Users/stapi/OneDrive/Desktop/GD32VW553/V1_MQTT_OK/GD32VW55X_Wifi_BLE_SDK/GD32VW55x_RELEASE_V1.0.2/MSDK/wpa_supplicant/src/ap\wmm.c **** 	 * just refuse requests that would by themselves take very large
 280:C:/Users/stapi/OneDrive/Desktop/GD32VW553/V1_MQTT_OK/GD32VW55X_Wifi_BLE_SDK/GD32VW55x_RELEASE_V1.0.2/MSDK/wpa_supplicant/src/ap\wmm.c **** 	 * portion of the available bandwidth.
 281:C:/Users/stapi/OneDrive/Desktop/GD32VW553/V1_MQTT_OK/GD32VW55X_Wifi_BLE_SDK/GD32VW55x_RELEASE_V1.0.2/MSDK/wpa_supplicant/src/ap\wmm.c **** 	 */
 282:C:/Users/stapi/OneDrive/Desktop/GD32VW553/V1_MQTT_OK/GD32VW55X_Wifi_BLE_SDK/GD32VW55x_RELEASE_V1.0.2/MSDK/wpa_supplicant/src/ap\wmm.c **** 	if (medium_time > 750000) {
 283:C:/Users/stapi/OneDrive/Desktop/GD32VW553/V1_MQTT_OK/GD32VW55X_Wifi_BLE_SDK/GD32VW55x_RELEASE_V1.0.2/MSDK/wpa_supplicant/src/ap\wmm.c **** 		wpa_printf(MSG_DEBUG, "WMM: Refuse TSPEC request for over "
 284:C:/Users/stapi/OneDrive/Desktop/GD32VW553/V1_MQTT_OK/GD32VW55X_Wifi_BLE_SDK/GD32VW55x_RELEASE_V1.0.2/MSDK/wpa_supplicant/src/ap\wmm.c **** 			   "75%% of available bandwidth");
 285:C:/Users/stapi/OneDrive/Desktop/GD32VW553/V1_MQTT_OK/GD32VW55X_Wifi_BLE_SDK/GD32VW55x_RELEASE_V1.0.2/MSDK/wpa_supplicant/src/ap\wmm.c **** 		return WMM_ADDTS_STATUS_REFUSED;
 286:C:/Users/stapi/OneDrive/Desktop/GD32VW553/V1_MQTT_OK/GD32VW55X_Wifi_BLE_SDK/GD32VW55x_RELEASE_V1.0.2/MSDK/wpa_supplicant/src/ap\wmm.c **** 	}
 287:C:/Users/stapi/OneDrive/Desktop/GD32VW553/V1_MQTT_OK/GD32VW55X_Wifi_BLE_SDK/GD32VW55x_RELEASE_V1.0.2/MSDK/wpa_supplicant/src/ap\wmm.c **** 
 288:C:/Users/stapi/OneDrive/Desktop/GD32VW553/V1_MQTT_OK/GD32VW55X_Wifi_BLE_SDK/GD32VW55x_RELEASE_V1.0.2/MSDK/wpa_supplicant/src/ap\wmm.c **** 	/* Convert to 32 microseconds per second unit */
 289:C:/Users/stapi/OneDrive/Desktop/GD32VW553/V1_MQTT_OK/GD32VW55X_Wifi_BLE_SDK/GD32VW55x_RELEASE_V1.0.2/MSDK/wpa_supplicant/src/ap\wmm.c **** 	tspec->medium_time = host_to_le16(medium_time / 32);
 290:C:/Users/stapi/OneDrive/Desktop/GD32VW553/V1_MQTT_OK/GD32VW55X_Wifi_BLE_SDK/GD32VW55x_RELEASE_V1.0.2/MSDK/wpa_supplicant/src/ap\wmm.c **** 
 291:C:/Users/stapi/OneDrive/Desktop/GD32VW553/V1_MQTT_OK/GD32VW55X_Wifi_BLE_SDK/GD32VW55x_RELEASE_V1.0.2/MSDK/wpa_supplicant/src/ap\wmm.c **** 	return WMM_ADDTS_STATUS_ADMISSION_ACCEPTED;
 292:C:/Users/stapi/OneDrive/Desktop/GD32VW553/V1_MQTT_OK/GD32VW55X_Wifi_BLE_SDK/GD32VW55x_RELEASE_V1.0.2/MSDK/wpa_supplicant/src/ap\wmm.c **** }
 711              		.loc 1 292 1
 712 011c 17030000 		tail	__riscv_restore_4
 712      67000300 
 713              		.cfi_remember_state
 714              		.cfi_restore 19
 715              		.cfi_restore 18
 716              		.cfi_restore 9
 717              		.cfi_restore 8
 718              		.cfi_restore 1
 719              		.cfi_def_cfa_offset 0
 720              	.LVL57:
 721              	.L48:
 722              		.cfi_restore_state
 234:C:/Users/stapi/OneDrive/Desktop/GD32VW553/V1_MQTT_OK/GD32VW55X_Wifi_BLE_SDK/GD32VW55x_RELEASE_V1.0.2/MSDK/wpa_supplicant/src/ap\wmm.c **** 		   val & 0x7fff, val & 0x8000 ? " (fixed)" : "");
 723              		.loc 1 234 2
 724 0124 B7060000 		lui	a3,%hi(.LC4)
 725 0128 93860600 		addi	a3,a3,%lo(.LC4)
 726 012c 3DB7     		j	.L41
 727              	.LVL58:
 728              	.L42:
 250:C:/Users/stapi/OneDrive/Desktop/GD32VW553/V1_MQTT_OK/GD32VW55X_Wifi_BLE_SDK/GD32VW55x_RELEASE_V1.0.2/MSDK/wpa_supplicant/src/ap\wmm.c **** 	wpa_printf(MSG_DEBUG, "WMM: Packets-per-second estimate for TSPEC: %d",
 729              		.loc 1 250 2 is_stmt 1
 250:C:/Users/stapi/OneDrive/Desktop/GD32VW553/V1_MQTT_OK/GD32VW55X_Wifi_BLE_SDK/GD32VW55x_RELEASE_V1.0.2/MSDK/wpa_supplicant/src/ap\wmm.c **** 	wpa_printf(MSG_DEBUG, "WMM: Packets-per-second estimate for TSPEC: %d",
 730              		.loc 1 250 10 is_stmt 0
 731 012e 83478402 		lbu	a5,40(s0)
 732 0132 83447402 		lbu	s1,39(s0)
 251:C:/Users/stapi/OneDrive/Desktop/GD32VW553/V1_MQTT_OK/GD32VW55X_Wifi_BLE_SDK/GD32VW55x_RELEASE_V1.0.2/MSDK/wpa_supplicant/src/ap\wmm.c **** 		   pps);
 733              		.loc 1 251 2
 734 0136 B7050000 		lui	a1,%hi(.LC12)
 250:C:/Users/stapi/OneDrive/Desktop/GD32VW553/V1_MQTT_OK/GD32VW55X_Wifi_BLE_SDK/GD32VW55x_RELEASE_V1.0.2/MSDK/wpa_supplicant/src/ap\wmm.c **** 	wpa_printf(MSG_DEBUG, "WMM: Packets-per-second estimate for TSPEC: %d",
 735              		.loc 1 250 10
 736 013a A207     		slli	a5,a5,8
 737 013c C58F     		or	a5,a5,s1
 738 013e 83449402 		lbu	s1,41(s0)
 251:C:/Users/stapi/OneDrive/Desktop/GD32VW553/V1_MQTT_OK/GD32VW55X_Wifi_BLE_SDK/GD32VW55x_RELEASE_V1.0.2/MSDK/wpa_supplicant/src/ap\wmm.c **** 		   pps);
 739              		.loc 1 251 2
 740 0142 93850500 		addi	a1,a1,%lo(.LC12)
 741 0146 0945     		li	a0,2
 250:C:/Users/stapi/OneDrive/Desktop/GD32VW553/V1_MQTT_OK/GD32VW55X_Wifi_BLE_SDK/GD32VW55x_RELEASE_V1.0.2/MSDK/wpa_supplicant/src/ap\wmm.c **** 	wpa_printf(MSG_DEBUG, "WMM: Packets-per-second estimate for TSPEC: %d",
 742              		.loc 1 250 10
 743 0148 C204     		slli	s1,s1,16
 744 014a C58F     		or	a5,s1,a5
 745 014c 8344A402 		lbu	s1,42(s0)
 746 0150 E204     		slli	s1,s1,24
 747 0152 DD8C     		or	s1,s1,a5
 250:C:/Users/stapi/OneDrive/Desktop/GD32VW553/V1_MQTT_OK/GD32VW55X_Wifi_BLE_SDK/GD32VW55x_RELEASE_V1.0.2/MSDK/wpa_supplicant/src/ap\wmm.c **** 	wpa_printf(MSG_DEBUG, "WMM: Packets-per-second estimate for TSPEC: %d",
 748              		.loc 1 250 46
 749 0154 8D80     		srli	s1,s1,3
 250:C:/Users/stapi/OneDrive/Desktop/GD32VW553/V1_MQTT_OK/GD32VW55X_Wifi_BLE_SDK/GD32VW55x_RELEASE_V1.0.2/MSDK/wpa_supplicant/src/ap\wmm.c **** 	wpa_printf(MSG_DEBUG, "WMM: Packets-per-second estimate for TSPEC: %d",
 750              		.loc 1 250 51
 751 0156 B294     		add	s1,s1,a2
 250:C:/Users/stapi/OneDrive/Desktop/GD32VW553/V1_MQTT_OK/GD32VW55X_Wifi_BLE_SDK/GD32VW55x_RELEASE_V1.0.2/MSDK/wpa_supplicant/src/ap\wmm.c **** 	wpa_printf(MSG_DEBUG, "WMM: Packets-per-second estimate for TSPEC: %d",
 752              		.loc 1 250 57
 753 0158 FD14     		addi	s1,s1,-1
 250:C:/Users/stapi/OneDrive/Desktop/GD32VW553/V1_MQTT_OK/GD32VW55X_Wifi_BLE_SDK/GD32VW55x_RELEASE_V1.0.2/MSDK/wpa_supplicant/src/ap\wmm.c **** 	wpa_printf(MSG_DEBUG, "WMM: Packets-per-second estimate for TSPEC: %d",
 754              		.loc 1 250 6
 755 015a B3D4C402 		divu	s1,s1,a2
 756              	.LVL59:
 251:C:/Users/stapi/OneDrive/Desktop/GD32VW553/V1_MQTT_OK/GD32VW55X_Wifi_BLE_SDK/GD32VW55x_RELEASE_V1.0.2/MSDK/wpa_supplicant/src/ap\wmm.c **** 		   pps);
 757              		.loc 1 251 2 is_stmt 1
 758 015e 2686     		mv	a2,s1
 759              	.LVL60:
 760 0160 97000000 		call	wpa_printf
 760      E7800000 
 761              	.LVL61:
 254:C:/Users/stapi/OneDrive/Desktop/GD32VW553/V1_MQTT_OK/GD32VW55X_Wifi_BLE_SDK/GD32VW55x_RELEASE_V1.0.2/MSDK/wpa_supplicant/src/ap\wmm.c **** 		wpa_printf(MSG_DEBUG, "WMM: Too small Minimum PHY Rate");
 762              		.loc 1 254 2
 254:C:/Users/stapi/OneDrive/Desktop/GD32VW553/V1_MQTT_OK/GD32VW55X_Wifi_BLE_SDK/GD32VW55x_RELEASE_V1.0.2/MSDK/wpa_supplicant/src/ap\wmm.c **** 		wpa_printf(MSG_DEBUG, "WMM: Too small Minimum PHY Rate");
 763              		.loc 1 254 6 is_stmt 0
 764 0168 83478403 		lbu	a5,56(s0)
 765 016c 83467403 		lbu	a3,55(s0)
 254:C:/Users/stapi/OneDrive/Desktop/GD32VW553/V1_MQTT_OK/GD32VW55X_Wifi_BLE_SDK/GD32VW55x_RELEASE_V1.0.2/MSDK/wpa_supplicant/src/ap\wmm.c **** 		wpa_printf(MSG_DEBUG, "WMM: Too small Minimum PHY Rate");
 766              		.loc 1 254 5
 767 0170 37460F00 		li	a2,999424
 254:C:/Users/stapi/OneDrive/Desktop/GD32VW553/V1_MQTT_OK/GD32VW55X_Wifi_BLE_SDK/GD32VW55x_RELEASE_V1.0.2/MSDK/wpa_supplicant/src/ap\wmm.c **** 		wpa_printf(MSG_DEBUG, "WMM: Too small Minimum PHY Rate");
 768              		.loc 1 254 6
 769 0174 A207     		slli	a5,a5,8
 770 0176 D58F     		or	a5,a5,a3
 771 0178 83469403 		lbu	a3,57(s0)
 772 017c C206     		slli	a3,a3,16
 773 017e D58F     		or	a5,a3,a5
 774 0180 8346A403 		lbu	a3,58(s0)
 775 0184 E206     		slli	a3,a3,24
 776 0186 DD8E     		or	a3,a3,a5
 254:C:/Users/stapi/OneDrive/Desktop/GD32VW553/V1_MQTT_OK/GD32VW55X_Wifi_BLE_SDK/GD32VW55x_RELEASE_V1.0.2/MSDK/wpa_supplicant/src/ap\wmm.c **** 		wpa_printf(MSG_DEBUG, "WMM: Too small Minimum PHY Rate");
 777              		.loc 1 254 5
 778 0188 9307F623 		addi	a5,a2,575
 779 018c 63E7D700 		bgtu	a3,a5,.L44
 255:C:/Users/stapi/OneDrive/Desktop/GD32VW553/V1_MQTT_OK/GD32VW55X_Wifi_BLE_SDK/GD32VW55x_RELEASE_V1.0.2/MSDK/wpa_supplicant/src/ap\wmm.c **** 		return WMM_ADDTS_STATUS_INVALID_PARAMETERS;
 780              		.loc 1 255 3 is_stmt 1
 781 0190 B7050000 		lui	a1,%hi(.LC13)
 782 0194 93850500 		addi	a1,a1,%lo(.LC13)
 783 0198 A5BF     		j	.L51
 784              	.L44:
 259:C:/Users/stapi/OneDrive/Desktop/GD32VW553/V1_MQTT_OK/GD32VW55X_Wifi_BLE_SDK/GD32VW55x_RELEASE_V1.0.2/MSDK/wpa_supplicant/src/ap\wmm.c **** 		(le_to_host32(tspec->minimum_phy_rate) / 1000000) +
 785              		.loc 1 259 2
 786              	.LVL62:
 265:C:/Users/stapi/OneDrive/Desktop/GD32VW553/V1_MQTT_OK/GD32VW55X_Wifi_BLE_SDK/GD32VW55x_RELEASE_V1.0.2/MSDK/wpa_supplicant/src/ap\wmm.c **** 	if (surplus <= 0x2000) {
 787              		.loc 1 265 2
 265:C:/Users/stapi/OneDrive/Desktop/GD32VW553/V1_MQTT_OK/GD32VW55X_Wifi_BLE_SDK/GD32VW55x_RELEASE_V1.0.2/MSDK/wpa_supplicant/src/ap\wmm.c **** 	if (surplus <= 0x2000) {
 788              		.loc 1 265 10 is_stmt 0
 789 019a 0347C403 		lbu	a4,60(s0)
 790 019e 8347B403 		lbu	a5,59(s0)
 791 01a2 2207     		slli	a4,a4,8
 792 01a4 5D8F     		or	a4,a4,a5
 793              	.LVL63:
 266:C:/Users/stapi/OneDrive/Desktop/GD32VW553/V1_MQTT_OK/GD32VW55X_Wifi_BLE_SDK/GD32VW55x_RELEASE_V1.0.2/MSDK/wpa_supplicant/src/ap\wmm.c **** 		wpa_printf(MSG_DEBUG, "WMM: Surplus Bandwidth Allowance not "
 794              		.loc 1 266 2 is_stmt 1
 266:C:/Users/stapi/OneDrive/Desktop/GD32VW553/V1_MQTT_OK/GD32VW55X_Wifi_BLE_SDK/GD32VW55x_RELEASE_V1.0.2/MSDK/wpa_supplicant/src/ap\wmm.c **** 		wpa_printf(MSG_DEBUG, "WMM: Surplus Bandwidth Allowance not "
 795              		.loc 1 266 5 is_stmt 0
 796 01a6 6367E900 		bgtu	a4,s2,.L45
 267:C:/Users/stapi/OneDrive/Desktop/GD32VW553/V1_MQTT_OK/GD32VW55X_Wifi_BLE_SDK/GD32VW55x_RELEASE_V1.0.2/MSDK/wpa_supplicant/src/ap\wmm.c **** 			   "greater than unity");
 797              		.loc 1 267 3 is_stmt 1
 798 01aa B7050000 		lui	a1,%hi(.LC14)
 799 01ae 93850500 		addi	a1,a1,%lo(.LC14)
 800 01b2 B9BF     		j	.L51
 801              	.L45:
 272:C:/Users/stapi/OneDrive/Desktop/GD32VW553/V1_MQTT_OK/GD32VW55X_Wifi_BLE_SDK/GD32VW55x_RELEASE_V1.0.2/MSDK/wpa_supplicant/src/ap\wmm.c **** 	wpa_printf(MSG_DEBUG, "WMM: Estimated medium time: %lu",
 802              		.loc 1 272 2
 260:C:/Users/stapi/OneDrive/Desktop/GD32VW553/V1_MQTT_OK/GD32VW55X_Wifi_BLE_SDK/GD32VW55x_RELEASE_V1.0.2/MSDK/wpa_supplicant/src/ap\wmm.c **** 		50 /* FIX: proper SIFS + ACK duration */;
 803              		.loc 1 260 42 is_stmt 0
 804 01b4 13060624 		addi	a2,a2,576
 805 01b8 B3D6C602 		divu	a3,a3,a2
 806              	.LVL64:
 259:C:/Users/stapi/OneDrive/Desktop/GD32VW553/V1_MQTT_OK/GD32VW55X_Wifi_BLE_SDK/GD32VW55x_RELEASE_V1.0.2/MSDK/wpa_supplicant/src/ap\wmm.c **** 		(le_to_host32(tspec->minimum_phy_rate) / 1000000) +
 807              		.loc 1 259 14
 808 01bc 8347C400 		lbu	a5,12(s0)
 809 01c0 8345B400 		lbu	a1,11(s0)
 273:C:/Users/stapi/OneDrive/Desktop/GD32VW553/V1_MQTT_OK/GD32VW55X_Wifi_BLE_SDK/GD32VW55x_RELEASE_V1.0.2/MSDK/wpa_supplicant/src/ap\wmm.c **** 		   (unsigned long) medium_time);
 810              		.loc 1 273 2
 811 01c4 0945     		li	a0,2
 259:C:/Users/stapi/OneDrive/Desktop/GD32VW553/V1_MQTT_OK/GD32VW55X_Wifi_BLE_SDK/GD32VW55x_RELEASE_V1.0.2/MSDK/wpa_supplicant/src/ap\wmm.c **** 		(le_to_host32(tspec->minimum_phy_rate) / 1000000) +
 812              		.loc 1 259 14
 813 01c6 A207     		slli	a5,a5,8
 814 01c8 CD8F     		or	a5,a5,a1
 259:C:/Users/stapi/OneDrive/Desktop/GD32VW553/V1_MQTT_OK/GD32VW55X_Wifi_BLE_SDK/GD32VW55x_RELEASE_V1.0.2/MSDK/wpa_supplicant/src/ap\wmm.c **** 		(le_to_host32(tspec->minimum_phy_rate) / 1000000) +
 815              		.loc 1 259 53
 816 01ca C607     		slli	a5,a5,17
 259:C:/Users/stapi/OneDrive/Desktop/GD32VW553/V1_MQTT_OK/GD32VW55X_Wifi_BLE_SDK/GD32VW55x_RELEASE_V1.0.2/MSDK/wpa_supplicant/src/ap\wmm.c **** 		(le_to_host32(tspec->minimum_phy_rate) / 1000000) +
 817              		.loc 1 259 63
 818 01cc B983     		srli	a5,a5,14
 273:C:/Users/stapi/OneDrive/Desktop/GD32VW553/V1_MQTT_OK/GD32VW55X_Wifi_BLE_SDK/GD32VW55x_RELEASE_V1.0.2/MSDK/wpa_supplicant/src/ap\wmm.c **** 		   (unsigned long) medium_time);
 819              		.loc 1 273 2
 820 01ce B7050000 		lui	a1,%hi(.LC15)
 821 01d2 93850500 		addi	a1,a1,%lo(.LC15)
 259:C:/Users/stapi/OneDrive/Desktop/GD32VW553/V1_MQTT_OK/GD32VW55X_Wifi_BLE_SDK/GD32VW55x_RELEASE_V1.0.2/MSDK/wpa_supplicant/src/ap\wmm.c **** 		(le_to_host32(tspec->minimum_phy_rate) / 1000000) +
 822              		.loc 1 259 67
 823 01d6 B3D7D702 		divu	a5,a5,a3
 272:C:/Users/stapi/OneDrive/Desktop/GD32VW553/V1_MQTT_OK/GD32VW55X_Wifi_BLE_SDK/GD32VW55x_RELEASE_V1.0.2/MSDK/wpa_supplicant/src/ap\wmm.c **** 	wpa_printf(MSG_DEBUG, "WMM: Estimated medium time: %lu",
 824              		.loc 1 272 30
 825 01da 7F1697F0 		mulr64	a2, a4, s1
 259:C:/Users/stapi/OneDrive/Desktop/GD32VW553/V1_MQTT_OK/GD32VW55X_Wifi_BLE_SDK/GD32VW55x_RELEASE_V1.0.2/MSDK/wpa_supplicant/src/ap\wmm.c **** 		(le_to_host32(tspec->minimum_phy_rate) / 1000000) +
 826              		.loc 1 259 11
 827 01de 93872703 		addi	a5,a5,50
 272:C:/Users/stapi/OneDrive/Desktop/GD32VW553/V1_MQTT_OK/GD32VW55X_Wifi_BLE_SDK/GD32VW55x_RELEASE_V1.0.2/MSDK/wpa_supplicant/src/ap\wmm.c **** 	wpa_printf(MSG_DEBUG, "WMM: Estimated medium time: %lu",
 828              		.loc 1 272 36
 829 01e2 7F99C7F0 		mulr64	s2, a5, a2
 830 01e6 CE84     		mv	s1,s3
 831              	.LVL65:
 832 01e8 FF94D7C4 		maddr32	s1, a5, a3
 272:C:/Users/stapi/OneDrive/Desktop/GD32VW553/V1_MQTT_OK/GD32VW55X_Wifi_BLE_SDK/GD32VW55x_RELEASE_V1.0.2/MSDK/wpa_supplicant/src/ap\wmm.c **** 	wpa_printf(MSG_DEBUG, "WMM: Estimated medium time: %lu",
 833              		.loc 1 272 14
 834 01ec 9357D900 		srli	a5,s2,13
 835 01f0 13963401 		slli	a2,s1,19
 273:C:/Users/stapi/OneDrive/Desktop/GD32VW553/V1_MQTT_OK/GD32VW55X_Wifi_BLE_SDK/GD32VW55x_RELEASE_V1.0.2/MSDK/wpa_supplicant/src/ap\wmm.c **** 		   (unsigned long) medium_time);
 836              		.loc 1 273 2
 837 01f4 5D8E     		or	a2,a2,a5
 838 01f6 97000000 		call	wpa_printf
 838      E7800000 
 839              	.LVL66:
 282:C:/Users/stapi/OneDrive/Desktop/GD32VW553/V1_MQTT_OK/GD32VW55X_Wifi_BLE_SDK/GD32VW55x_RELEASE_V1.0.2/MSDK/wpa_supplicant/src/ap\wmm.c **** 		wpa_printf(MSG_DEBUG, "WMM: Refuse TSPEC request for over "
 840              		.loc 1 282 5
 841 01fe 8547     		li	a5,1
 272:C:/Users/stapi/OneDrive/Desktop/GD32VW553/V1_MQTT_OK/GD32VW55X_Wifi_BLE_SDK/GD32VW55x_RELEASE_V1.0.2/MSDK/wpa_supplicant/src/ap\wmm.c **** 	wpa_printf(MSG_DEBUG, "WMM: Estimated medium time: %lu",
 842              		.loc 1 272 36
 843 0200 A689     		mv	s3,s1
 844              	.LVL67:
 273:C:/Users/stapi/OneDrive/Desktop/GD32VW553/V1_MQTT_OK/GD32VW55X_Wifi_BLE_SDK/GD32VW55x_RELEASE_V1.0.2/MSDK/wpa_supplicant/src/ap\wmm.c **** 		   (unsigned long) medium_time);
 845              		.loc 1 273 2 is_stmt 1
 282:C:/Users/stapi/OneDrive/Desktop/GD32VW553/V1_MQTT_OK/GD32VW55X_Wifi_BLE_SDK/GD32VW55x_RELEASE_V1.0.2/MSDK/wpa_supplicant/src/ap\wmm.c **** 		wpa_printf(MSG_DEBUG, "WMM: Refuse TSPEC request for over "
 846              		.loc 1 282 2
 282:C:/Users/stapi/OneDrive/Desktop/GD32VW553/V1_MQTT_OK/GD32VW55X_Wifi_BLE_SDK/GD32VW55x_RELEASE_V1.0.2/MSDK/wpa_supplicant/src/ap\wmm.c **** 		wpa_printf(MSG_DEBUG, "WMM: Refuse TSPEC request for over "
 847              		.loc 1 282 5 is_stmt 0
 848 0202 63E89700 		bgtu	s1,a5,.L49
 849 0206 6391F402 		bne	s1,a5,.L46
 850 020a B727366E 		li	a5,1849040896
 851 020e 636DF900 		bgtu	a5,s2,.L46
 852              	.L49:
 283:C:/Users/stapi/OneDrive/Desktop/GD32VW553/V1_MQTT_OK/GD32VW55X_Wifi_BLE_SDK/GD32VW55x_RELEASE_V1.0.2/MSDK/wpa_supplicant/src/ap\wmm.c **** 			   "75%% of available bandwidth");
 853              		.loc 1 283 3 is_stmt 1
 854 0212 B7050000 		lui	a1,%hi(.LC16)
 855 0216 0945     		li	a0,2
 856 0218 93850500 		addi	a1,a1,%lo(.LC16)
 857 021c 97000000 		call	wpa_printf
 857      E7800000 
 858              	.LVL68:
 285:C:/Users/stapi/OneDrive/Desktop/GD32VW553/V1_MQTT_OK/GD32VW55X_Wifi_BLE_SDK/GD32VW55x_RELEASE_V1.0.2/MSDK/wpa_supplicant/src/ap\wmm.c **** 	}
 859              		.loc 1 285 3
 285:C:/Users/stapi/OneDrive/Desktop/GD32VW553/V1_MQTT_OK/GD32VW55X_Wifi_BLE_SDK/GD32VW55x_RELEASE_V1.0.2/MSDK/wpa_supplicant/src/ap\wmm.c **** 	}
 860              		.loc 1 285 10 is_stmt 0
 861 0224 0D45     		li	a0,3
 862 0226 DDBD     		j	.L40
 863              	.L46:
 289:C:/Users/stapi/OneDrive/Desktop/GD32VW553/V1_MQTT_OK/GD32VW55X_Wifi_BLE_SDK/GD32VW55x_RELEASE_V1.0.2/MSDK/wpa_supplicant/src/ap\wmm.c **** 
 864              		.loc 1 289 2 is_stmt 1
 289:C:/Users/stapi/OneDrive/Desktop/GD32VW553/V1_MQTT_OK/GD32VW55X_Wifi_BLE_SDK/GD32VW55x_RELEASE_V1.0.2/MSDK/wpa_supplicant/src/ap\wmm.c **** 
 865              		.loc 1 289 23 is_stmt 0
 866 0228 1397E900 		slli	a4,s3,14
 867 022c 93572901 		srli	a5,s2,18
 868 0230 D98F     		or	a5,a4,a5
 289:C:/Users/stapi/OneDrive/Desktop/GD32VW553/V1_MQTT_OK/GD32VW55X_Wifi_BLE_SDK/GD32VW55x_RELEASE_V1.0.2/MSDK/wpa_supplicant/src/ap\wmm.c **** 
 869              		.loc 1 289 21
 870 0232 A30EF402 		sb	a5,61(s0)
 871 0236 33C70708 		zext.h	a4,a5
 872 023a 93578700 		srli	a5,a4,8
 873 023e 230FF402 		sb	a5,62(s0)
 291:C:/Users/stapi/OneDrive/Desktop/GD32VW553/V1_MQTT_OK/GD32VW55X_Wifi_BLE_SDK/GD32VW55x_RELEASE_V1.0.2/MSDK/wpa_supplicant/src/ap\wmm.c **** }
 874              		.loc 1 291 2 is_stmt 1
 291:C:/Users/stapi/OneDrive/Desktop/GD32VW553/V1_MQTT_OK/GD32VW55X_Wifi_BLE_SDK/GD32VW55x_RELEASE_V1.0.2/MSDK/wpa_supplicant/src/ap\wmm.c **** }
 875              		.loc 1 291 9 is_stmt 0
 876 0242 0145     		li	a0,0
 877 0244 E1BD     		j	.L40
 878              		.cfi_endproc
 879              	.LFE174:
 881              		.section	.rodata.hostapd_wmm_action.str1.4,"aMS",@progbits,1
 882              		.align	2
 883              	.LC17:
 884 0000 574D4D3A 		.string	"WMM: TSPEC overflow in ADDTS Request"
 884      20545350 
 884      4543206F 
 884      76657266 
 884      6C6F7720 
 885 0025 000000   		.align	2
 886              	.LC18:
 887 0028 574D4D3A 		.string	"WMM: ADDTS Request (Dialog Token %d) for TSPEC from %02x:%02x:%02x:%02x:%02x:%02x"
 887      20414444 
 887      54532052 
 887      65717565 
 887      73742028 
 888 007a 0000     		.align	2
 889              	.LC19:
 890 007c 574D4D3A 		.string	"WMM: ADDTS processing result: %d"
 890      20414444 
 890      54532070 
 890      726F6365 
 890      7373696E 
 891 009d 000000   		.align	2
 892              	.LC20:
 893 00a0 776D6D5F 		.string	"wmm_send_action: send failed"
 893      73656E64 
 893      5F616374 
 893      696F6E3A 
 893      2073656E 
 894              		.section	.text.hostapd_wmm_action,"ax",@progbits
 895              		.align	1
 896              		.globl	hostapd_wmm_action
 898              	hostapd_wmm_action:
 899              	.LFB176:
 293:C:/Users/stapi/OneDrive/Desktop/GD32VW553/V1_MQTT_OK/GD32VW55X_Wifi_BLE_SDK/GD32VW55x_RELEASE_V1.0.2/MSDK/wpa_supplicant/src/ap\wmm.c **** 
 294:C:/Users/stapi/OneDrive/Desktop/GD32VW553/V1_MQTT_OK/GD32VW55X_Wifi_BLE_SDK/GD32VW55x_RELEASE_V1.0.2/MSDK/wpa_supplicant/src/ap\wmm.c **** 
 295:C:/Users/stapi/OneDrive/Desktop/GD32VW553/V1_MQTT_OK/GD32VW55X_Wifi_BLE_SDK/GD32VW55x_RELEASE_V1.0.2/MSDK/wpa_supplicant/src/ap\wmm.c **** static void wmm_addts_req(struct hostapd_data *hapd,
 296:C:/Users/stapi/OneDrive/Desktop/GD32VW553/V1_MQTT_OK/GD32VW55X_Wifi_BLE_SDK/GD32VW55x_RELEASE_V1.0.2/MSDK/wpa_supplicant/src/ap\wmm.c **** 			  const struct ieee80211_mgmt *mgmt,
 297:C:/Users/stapi/OneDrive/Desktop/GD32VW553/V1_MQTT_OK/GD32VW55X_Wifi_BLE_SDK/GD32VW55x_RELEASE_V1.0.2/MSDK/wpa_supplicant/src/ap\wmm.c **** 			  const struct wmm_tspec_element *tspec, size_t len)
 298:C:/Users/stapi/OneDrive/Desktop/GD32VW553/V1_MQTT_OK/GD32VW55X_Wifi_BLE_SDK/GD32VW55x_RELEASE_V1.0.2/MSDK/wpa_supplicant/src/ap\wmm.c **** {
 299:C:/Users/stapi/OneDrive/Desktop/GD32VW553/V1_MQTT_OK/GD32VW55X_Wifi_BLE_SDK/GD32VW55x_RELEASE_V1.0.2/MSDK/wpa_supplicant/src/ap\wmm.c **** 	const u8 *end = ((const u8 *) mgmt) + len;
 300:C:/Users/stapi/OneDrive/Desktop/GD32VW553/V1_MQTT_OK/GD32VW55X_Wifi_BLE_SDK/GD32VW55x_RELEASE_V1.0.2/MSDK/wpa_supplicant/src/ap\wmm.c **** 	int res;
 301:C:/Users/stapi/OneDrive/Desktop/GD32VW553/V1_MQTT_OK/GD32VW55X_Wifi_BLE_SDK/GD32VW55x_RELEASE_V1.0.2/MSDK/wpa_supplicant/src/ap\wmm.c **** 	struct wmm_tspec_element tspec_resp;
 302:C:/Users/stapi/OneDrive/Desktop/GD32VW553/V1_MQTT_OK/GD32VW55X_Wifi_BLE_SDK/GD32VW55x_RELEASE_V1.0.2/MSDK/wpa_supplicant/src/ap\wmm.c **** 
 303:C:/Users/stapi/OneDrive/Desktop/GD32VW553/V1_MQTT_OK/GD32VW55X_Wifi_BLE_SDK/GD32VW55x_RELEASE_V1.0.2/MSDK/wpa_supplicant/src/ap\wmm.c **** 	if ((const u8 *) (tspec + 1) > end) {
 304:C:/Users/stapi/OneDrive/Desktop/GD32VW553/V1_MQTT_OK/GD32VW55X_Wifi_BLE_SDK/GD32VW55x_RELEASE_V1.0.2/MSDK/wpa_supplicant/src/ap\wmm.c **** 		wpa_printf(MSG_DEBUG, "WMM: TSPEC overflow in ADDTS Request");
 305:C:/Users/stapi/OneDrive/Desktop/GD32VW553/V1_MQTT_OK/GD32VW55X_Wifi_BLE_SDK/GD32VW55x_RELEASE_V1.0.2/MSDK/wpa_supplicant/src/ap\wmm.c **** 		return;
 306:C:/Users/stapi/OneDrive/Desktop/GD32VW553/V1_MQTT_OK/GD32VW55X_Wifi_BLE_SDK/GD32VW55x_RELEASE_V1.0.2/MSDK/wpa_supplicant/src/ap\wmm.c **** 	}
 307:C:/Users/stapi/OneDrive/Desktop/GD32VW553/V1_MQTT_OK/GD32VW55X_Wifi_BLE_SDK/GD32VW55x_RELEASE_V1.0.2/MSDK/wpa_supplicant/src/ap\wmm.c **** 
 308:C:/Users/stapi/OneDrive/Desktop/GD32VW553/V1_MQTT_OK/GD32VW55X_Wifi_BLE_SDK/GD32VW55x_RELEASE_V1.0.2/MSDK/wpa_supplicant/src/ap\wmm.c **** 	wpa_printf(MSG_DEBUG, "WMM: ADDTS Request (Dialog Token %d) for TSPEC "
 309:C:/Users/stapi/OneDrive/Desktop/GD32VW553/V1_MQTT_OK/GD32VW55X_Wifi_BLE_SDK/GD32VW55x_RELEASE_V1.0.2/MSDK/wpa_supplicant/src/ap\wmm.c **** 		   "from " MACSTR,
 310:C:/Users/stapi/OneDrive/Desktop/GD32VW553/V1_MQTT_OK/GD32VW55X_Wifi_BLE_SDK/GD32VW55x_RELEASE_V1.0.2/MSDK/wpa_supplicant/src/ap\wmm.c **** 		   mgmt->u.action.u.wmm_action.dialog_token,
 311:C:/Users/stapi/OneDrive/Desktop/GD32VW553/V1_MQTT_OK/GD32VW55X_Wifi_BLE_SDK/GD32VW55x_RELEASE_V1.0.2/MSDK/wpa_supplicant/src/ap\wmm.c **** 		   MAC2STR(mgmt->sa));
 312:C:/Users/stapi/OneDrive/Desktop/GD32VW553/V1_MQTT_OK/GD32VW55X_Wifi_BLE_SDK/GD32VW55x_RELEASE_V1.0.2/MSDK/wpa_supplicant/src/ap\wmm.c **** 
 313:C:/Users/stapi/OneDrive/Desktop/GD32VW553/V1_MQTT_OK/GD32VW55X_Wifi_BLE_SDK/GD32VW55x_RELEASE_V1.0.2/MSDK/wpa_supplicant/src/ap\wmm.c **** 	os_memcpy(&tspec_resp, tspec, sizeof(struct wmm_tspec_element));
 314:C:/Users/stapi/OneDrive/Desktop/GD32VW553/V1_MQTT_OK/GD32VW55X_Wifi_BLE_SDK/GD32VW55x_RELEASE_V1.0.2/MSDK/wpa_supplicant/src/ap\wmm.c **** 	res = wmm_process_tspec(&tspec_resp);
 315:C:/Users/stapi/OneDrive/Desktop/GD32VW553/V1_MQTT_OK/GD32VW55X_Wifi_BLE_SDK/GD32VW55x_RELEASE_V1.0.2/MSDK/wpa_supplicant/src/ap\wmm.c **** 	wpa_printf(MSG_DEBUG, "WMM: ADDTS processing result: %d", res);
 316:C:/Users/stapi/OneDrive/Desktop/GD32VW553/V1_MQTT_OK/GD32VW55X_Wifi_BLE_SDK/GD32VW55x_RELEASE_V1.0.2/MSDK/wpa_supplicant/src/ap\wmm.c **** 
 317:C:/Users/stapi/OneDrive/Desktop/GD32VW553/V1_MQTT_OK/GD32VW55X_Wifi_BLE_SDK/GD32VW55x_RELEASE_V1.0.2/MSDK/wpa_supplicant/src/ap\wmm.c **** 	wmm_send_action(hapd, mgmt->sa, &tspec_resp, WMM_ACTION_CODE_ADDTS_RESP,
 318:C:/Users/stapi/OneDrive/Desktop/GD32VW553/V1_MQTT_OK/GD32VW55X_Wifi_BLE_SDK/GD32VW55x_RELEASE_V1.0.2/MSDK/wpa_supplicant/src/ap\wmm.c **** 			mgmt->u.action.u.wmm_action.dialog_token, res);
 319:C:/Users/stapi/OneDrive/Desktop/GD32VW553/V1_MQTT_OK/GD32VW55X_Wifi_BLE_SDK/GD32VW55x_RELEASE_V1.0.2/MSDK/wpa_supplicant/src/ap\wmm.c **** }
 320:C:/Users/stapi/OneDrive/Desktop/GD32VW553/V1_MQTT_OK/GD32VW55X_Wifi_BLE_SDK/GD32VW55x_RELEASE_V1.0.2/MSDK/wpa_supplicant/src/ap\wmm.c **** 
 321:C:/Users/stapi/OneDrive/Desktop/GD32VW553/V1_MQTT_OK/GD32VW55X_Wifi_BLE_SDK/GD32VW55x_RELEASE_V1.0.2/MSDK/wpa_supplicant/src/ap\wmm.c **** 
 322:C:/Users/stapi/OneDrive/Desktop/GD32VW553/V1_MQTT_OK/GD32VW55X_Wifi_BLE_SDK/GD32VW55x_RELEASE_V1.0.2/MSDK/wpa_supplicant/src/ap\wmm.c **** void hostapd_wmm_action(struct hostapd_data *hapd,
 323:C:/Users/stapi/OneDrive/Desktop/GD32VW553/V1_MQTT_OK/GD32VW55X_Wifi_BLE_SDK/GD32VW55x_RELEASE_V1.0.2/MSDK/wpa_supplicant/src/ap\wmm.c **** 			const struct ieee80211_mgmt *mgmt, size_t len)
 324:C:/Users/stapi/OneDrive/Desktop/GD32VW553/V1_MQTT_OK/GD32VW55X_Wifi_BLE_SDK/GD32VW55x_RELEASE_V1.0.2/MSDK/wpa_supplicant/src/ap\wmm.c **** {
 900              		.loc 1 324 1 is_stmt 1
 901              		.cfi_startproc
 902              	.LVL69:
 903 0000 17030000 		call	t0,__riscv_save_5
 903      E7020300 
 904              		.cfi_offset 20, -24
 905              		.cfi_offset 19, -20
 906              		.cfi_offset 18, -16
 907              		.cfi_offset 9, -12
 908              		.cfi_offset 8, -8
 909              		.cfi_offset 1, -4
 910              		.cfi_def_cfa_offset 32
 325:C:/Users/stapi/OneDrive/Desktop/GD32VW553/V1_MQTT_OK/GD32VW55X_Wifi_BLE_SDK/GD32VW55x_RELEASE_V1.0.2/MSDK/wpa_supplicant/src/ap\wmm.c **** 	int action_code;
 911              		.loc 1 325 2
 326:C:/Users/stapi/OneDrive/Desktop/GD32VW553/V1_MQTT_OK/GD32VW55X_Wifi_BLE_SDK/GD32VW55x_RELEASE_V1.0.2/MSDK/wpa_supplicant/src/ap\wmm.c **** 	int left = len - IEEE80211_HDRLEN - 4;
 912              		.loc 1 326 2
 327:C:/Users/stapi/OneDrive/Desktop/GD32VW553/V1_MQTT_OK/GD32VW55X_Wifi_BLE_SDK/GD32VW55x_RELEASE_V1.0.2/MSDK/wpa_supplicant/src/ap\wmm.c **** 	const u8 *pos = ((const u8 *) mgmt) + IEEE80211_HDRLEN + 4;
 328:C:/Users/stapi/OneDrive/Desktop/GD32VW553/V1_MQTT_OK/GD32VW55X_Wifi_BLE_SDK/GD32VW55x_RELEASE_V1.0.2/MSDK/wpa_supplicant/src/ap\wmm.c **** 	struct ieee802_11_elems elems;
 329:C:/Users/stapi/OneDrive/Desktop/GD32VW553/V1_MQTT_OK/GD32VW55X_Wifi_BLE_SDK/GD32VW55x_RELEASE_V1.0.2/MSDK/wpa_supplicant/src/ap\wmm.c **** 	struct sta_info *sta = ap_get_sta(hapd, mgmt->sa);
 913              		.loc 1 329 46 is_stmt 0
 914 0008 138AA500 		addi	s4,a1,10
 324:C:/Users/stapi/OneDrive/Desktop/GD32VW553/V1_MQTT_OK/GD32VW55X_Wifi_BLE_SDK/GD32VW55x_RELEASE_V1.0.2/MSDK/wpa_supplicant/src/ap\wmm.c **** 	int action_code;
 915              		.loc 1 324 1
 916 000c 130101D0 		addi	sp,sp,-768
 917              		.cfi_def_cfa_offset 800
 324:C:/Users/stapi/OneDrive/Desktop/GD32VW553/V1_MQTT_OK/GD32VW55X_Wifi_BLE_SDK/GD32VW55x_RELEASE_V1.0.2/MSDK/wpa_supplicant/src/ap\wmm.c **** 	int action_code;
 918              		.loc 1 324 1
 919 0010 2E84     		mv	s0,a1
 920              		.loc 1 329 25
 921 0012 D285     		mv	a1,s4
 922              	.LVL70:
 324:C:/Users/stapi/OneDrive/Desktop/GD32VW553/V1_MQTT_OK/GD32VW55X_Wifi_BLE_SDK/GD32VW55x_RELEASE_V1.0.2/MSDK/wpa_supplicant/src/ap\wmm.c **** 	int action_code;
 923              		.loc 1 324 1
 924 0014 2A89     		mv	s2,a0
 925 0016 B284     		mv	s1,a2
 926              	.LVL71:
 327:C:/Users/stapi/OneDrive/Desktop/GD32VW553/V1_MQTT_OK/GD32VW55X_Wifi_BLE_SDK/GD32VW55x_RELEASE_V1.0.2/MSDK/wpa_supplicant/src/ap\wmm.c **** 	const u8 *pos = ((const u8 *) mgmt) + IEEE80211_HDRLEN + 4;
 927              		.loc 1 327 2 is_stmt 1
 328:C:/Users/stapi/OneDrive/Desktop/GD32VW553/V1_MQTT_OK/GD32VW55X_Wifi_BLE_SDK/GD32VW55x_RELEASE_V1.0.2/MSDK/wpa_supplicant/src/ap\wmm.c **** 	struct sta_info *sta = ap_get_sta(hapd, mgmt->sa);
 928              		.loc 1 328 2
 929              		.loc 1 329 2
 930              		.loc 1 329 25 is_stmt 0
 931 0018 97000000 		call	ap_get_sta
 931      E7800000 
 932              	.LVL72:
 330:C:/Users/stapi/OneDrive/Desktop/GD32VW553/V1_MQTT_OK/GD32VW55X_Wifi_BLE_SDK/GD32VW55x_RELEASE_V1.0.2/MSDK/wpa_supplicant/src/ap\wmm.c **** 
 331:C:/Users/stapi/OneDrive/Desktop/GD32VW553/V1_MQTT_OK/GD32VW55X_Wifi_BLE_SDK/GD32VW55x_RELEASE_V1.0.2/MSDK/wpa_supplicant/src/ap\wmm.c **** 	/* check that the request comes from a valid station */
 332:C:/Users/stapi/OneDrive/Desktop/GD32VW553/V1_MQTT_OK/GD32VW55X_Wifi_BLE_SDK/GD32VW55x_RELEASE_V1.0.2/MSDK/wpa_supplicant/src/ap\wmm.c **** 	if (!sta ||
 933              		.loc 1 332 2 is_stmt 1
 934              		.loc 1 332 5 is_stmt 0
 935 0020 35C1     		beq	a0,zero,.L52
 333:C:/Users/stapi/OneDrive/Desktop/GD32VW553/V1_MQTT_OK/GD32VW55X_Wifi_BLE_SDK/GD32VW55x_RELEASE_V1.0.2/MSDK/wpa_supplicant/src/ap\wmm.c **** 	    (sta->flags & (WLAN_STA_ASSOC | WLAN_STA_WMM)) !=
 936              		.loc 1 333 18 discriminator 1
 937 0022 1C51     		lw	a5,32(a0)
 332:C:/Users/stapi/OneDrive/Desktop/GD32VW553/V1_MQTT_OK/GD32VW55X_Wifi_BLE_SDK/GD32VW55x_RELEASE_V1.0.2/MSDK/wpa_supplicant/src/ap\wmm.c **** 	    (sta->flags & (WLAN_STA_ASSOC | WLAN_STA_WMM)) !=
 938              		.loc 1 332 11 discriminator 1
 939 0024 13072020 		li	a4,514
 940              		.loc 1 333 18 discriminator 1
 941 0028 93F72720 		andi	a5,a5,514
 332:C:/Users/stapi/OneDrive/Desktop/GD32VW553/V1_MQTT_OK/GD32VW55X_Wifi_BLE_SDK/GD32VW55x_RELEASE_V1.0.2/MSDK/wpa_supplicant/src/ap\wmm.c **** 	    (sta->flags & (WLAN_STA_ASSOC | WLAN_STA_WMM)) !=
 942              		.loc 1 332 11 discriminator 1
 943 002c 639CE704 		bne	a5,a4,.L52
 326:C:/Users/stapi/OneDrive/Desktop/GD32VW553/V1_MQTT_OK/GD32VW55X_Wifi_BLE_SDK/GD32VW55x_RELEASE_V1.0.2/MSDK/wpa_supplicant/src/ap\wmm.c **** 	const u8 *pos = ((const u8 *) mgmt) + IEEE80211_HDRLEN + 4;
 944              		.loc 1 326 36
 945 0030 938544FE 		addi	a1,s1,-28
 946              	.LVL73:
 334:C:/Users/stapi/OneDrive/Desktop/GD32VW553/V1_MQTT_OK/GD32VW55X_Wifi_BLE_SDK/GD32VW55x_RELEASE_V1.0.2/MSDK/wpa_supplicant/src/ap\wmm.c **** 	    (WLAN_STA_ASSOC | WLAN_STA_WMM)) {
 335:C:/Users/stapi/OneDrive/Desktop/GD32VW553/V1_MQTT_OK/GD32VW55X_Wifi_BLE_SDK/GD32VW55x_RELEASE_V1.0.2/MSDK/wpa_supplicant/src/ap\wmm.c **** 		hostapd_logger(hapd, mgmt->sa, HOSTAPD_MODULE_IEEE80211,
 336:C:/Users/stapi/OneDrive/Desktop/GD32VW553/V1_MQTT_OK/GD32VW55X_Wifi_BLE_SDK/GD32VW55x_RELEASE_V1.0.2/MSDK/wpa_supplicant/src/ap\wmm.c **** 			       HOSTAPD_LEVEL_DEBUG,
 337:C:/Users/stapi/OneDrive/Desktop/GD32VW553/V1_MQTT_OK/GD32VW55X_Wifi_BLE_SDK/GD32VW55x_RELEASE_V1.0.2/MSDK/wpa_supplicant/src/ap\wmm.c **** 			       "wmm action received is not from associated wmm"
 338:C:/Users/stapi/OneDrive/Desktop/GD32VW553/V1_MQTT_OK/GD32VW55X_Wifi_BLE_SDK/GD32VW55x_RELEASE_V1.0.2/MSDK/wpa_supplicant/src/ap\wmm.c **** 			       " station");
 339:C:/Users/stapi/OneDrive/Desktop/GD32VW553/V1_MQTT_OK/GD32VW55X_Wifi_BLE_SDK/GD32VW55x_RELEASE_V1.0.2/MSDK/wpa_supplicant/src/ap\wmm.c **** 		/* TODO: respond with action frame refused status code */
 340:C:/Users/stapi/OneDrive/Desktop/GD32VW553/V1_MQTT_OK/GD32VW55X_Wifi_BLE_SDK/GD32VW55x_RELEASE_V1.0.2/MSDK/wpa_supplicant/src/ap\wmm.c **** 		return;
 341:C:/Users/stapi/OneDrive/Desktop/GD32VW553/V1_MQTT_OK/GD32VW55X_Wifi_BLE_SDK/GD32VW55x_RELEASE_V1.0.2/MSDK/wpa_supplicant/src/ap\wmm.c **** 	}
 342:C:/Users/stapi/OneDrive/Desktop/GD32VW553/V1_MQTT_OK/GD32VW55X_Wifi_BLE_SDK/GD32VW55x_RELEASE_V1.0.2/MSDK/wpa_supplicant/src/ap\wmm.c **** 
 343:C:/Users/stapi/OneDrive/Desktop/GD32VW553/V1_MQTT_OK/GD32VW55X_Wifi_BLE_SDK/GD32VW55x_RELEASE_V1.0.2/MSDK/wpa_supplicant/src/ap\wmm.c **** 	if (left < 0)
 947              		.loc 1 343 2 is_stmt 1
 948              		.loc 1 343 5 is_stmt 0
 949 0034 63C80504 		blt	a1,zero,.L52
 344:C:/Users/stapi/OneDrive/Desktop/GD32VW553/V1_MQTT_OK/GD32VW55X_Wifi_BLE_SDK/GD32VW55x_RELEASE_V1.0.2/MSDK/wpa_supplicant/src/ap\wmm.c **** 		return; /* not a valid WMM Action frame */
 345:C:/Users/stapi/OneDrive/Desktop/GD32VW553/V1_MQTT_OK/GD32VW55X_Wifi_BLE_SDK/GD32VW55x_RELEASE_V1.0.2/MSDK/wpa_supplicant/src/ap\wmm.c **** 
 346:C:/Users/stapi/OneDrive/Desktop/GD32VW553/V1_MQTT_OK/GD32VW55X_Wifi_BLE_SDK/GD32VW55x_RELEASE_V1.0.2/MSDK/wpa_supplicant/src/ap\wmm.c **** 	/* extract the tspec info element */
 347:C:/Users/stapi/OneDrive/Desktop/GD32VW553/V1_MQTT_OK/GD32VW55X_Wifi_BLE_SDK/GD32VW55x_RELEASE_V1.0.2/MSDK/wpa_supplicant/src/ap\wmm.c **** 	if (ieee802_11_parse_elems(pos, left, &elems, 1) == ParseFailed) {
 950              		.loc 1 347 2 is_stmt 1
 951              		.loc 1 347 6 is_stmt 0
 952 0038 8546     		li	a3,1
 953 003a 9012     		addi	a2,sp,352
 954 003c 1305C401 		addi	a0,s0,28
 955              	.LVL74:
 956 0040 97000000 		call	ieee802_11_parse_elems
 956      E7800000 
 957              	.LVL75:
 958              		.loc 1 347 5
 959 0048 FD57     		li	a5,-1
 960 004a 630DF502 		beq	a0,a5,.L52
 348:C:/Users/stapi/OneDrive/Desktop/GD32VW553/V1_MQTT_OK/GD32VW55X_Wifi_BLE_SDK/GD32VW55x_RELEASE_V1.0.2/MSDK/wpa_supplicant/src/ap\wmm.c **** 		hostapd_logger(hapd, mgmt->sa, HOSTAPD_MODULE_IEEE80211,
 349:C:/Users/stapi/OneDrive/Desktop/GD32VW553/V1_MQTT_OK/GD32VW55X_Wifi_BLE_SDK/GD32VW55x_RELEASE_V1.0.2/MSDK/wpa_supplicant/src/ap\wmm.c **** 			       HOSTAPD_LEVEL_DEBUG,
 350:C:/Users/stapi/OneDrive/Desktop/GD32VW553/V1_MQTT_OK/GD32VW55X_Wifi_BLE_SDK/GD32VW55x_RELEASE_V1.0.2/MSDK/wpa_supplicant/src/ap\wmm.c **** 			       "hostapd_wmm_action - could not parse wmm "
 351:C:/Users/stapi/OneDrive/Desktop/GD32VW553/V1_MQTT_OK/GD32VW55X_Wifi_BLE_SDK/GD32VW55x_RELEASE_V1.0.2/MSDK/wpa_supplicant/src/ap\wmm.c **** 			       "action");
 352:C:/Users/stapi/OneDrive/Desktop/GD32VW553/V1_MQTT_OK/GD32VW55X_Wifi_BLE_SDK/GD32VW55x_RELEASE_V1.0.2/MSDK/wpa_supplicant/src/ap\wmm.c **** 		/* TODO: respond with action frame invalid parameters status
 353:C:/Users/stapi/OneDrive/Desktop/GD32VW553/V1_MQTT_OK/GD32VW55X_Wifi_BLE_SDK/GD32VW55x_RELEASE_V1.0.2/MSDK/wpa_supplicant/src/ap\wmm.c **** 		 * code */
 354:C:/Users/stapi/OneDrive/Desktop/GD32VW553/V1_MQTT_OK/GD32VW55X_Wifi_BLE_SDK/GD32VW55x_RELEASE_V1.0.2/MSDK/wpa_supplicant/src/ap\wmm.c **** 		return;
 355:C:/Users/stapi/OneDrive/Desktop/GD32VW553/V1_MQTT_OK/GD32VW55X_Wifi_BLE_SDK/GD32VW55x_RELEASE_V1.0.2/MSDK/wpa_supplicant/src/ap\wmm.c **** 	}
 356:C:/Users/stapi/OneDrive/Desktop/GD32VW553/V1_MQTT_OK/GD32VW55X_Wifi_BLE_SDK/GD32VW55x_RELEASE_V1.0.2/MSDK/wpa_supplicant/src/ap\wmm.c **** 
 357:C:/Users/stapi/OneDrive/Desktop/GD32VW553/V1_MQTT_OK/GD32VW55X_Wifi_BLE_SDK/GD32VW55x_RELEASE_V1.0.2/MSDK/wpa_supplicant/src/ap\wmm.c **** 	if (!elems.wmm_tspec ||
 961              		.loc 1 357 2 is_stmt 1
 962              		.loc 1 357 12 is_stmt 0
 963 004e 83298118 		lw	s3,392(sp)
 964              		.loc 1 357 5
 965 0052 63890902 		beq	s3,zero,.L52
 966              		.loc 1 357 23 discriminator 1
 967 0056 0347C127 		lbu	a4,636(sp)
 968 005a 9307D003 		li	a5,61
 969 005e 6313F702 		bne	a4,a5,.L52
 358:C:/Users/stapi/OneDrive/Desktop/GD32VW553/V1_MQTT_OK/GD32VW55X_Wifi_BLE_SDK/GD32VW55x_RELEASE_V1.0.2/MSDK/wpa_supplicant/src/ap\wmm.c **** 	    elems.wmm_tspec_len != (sizeof(struct wmm_tspec_element) - 2)) {
 359:C:/Users/stapi/OneDrive/Desktop/GD32VW553/V1_MQTT_OK/GD32VW55X_Wifi_BLE_SDK/GD32VW55x_RELEASE_V1.0.2/MSDK/wpa_supplicant/src/ap\wmm.c **** 		hostapd_logger(hapd, mgmt->sa, HOSTAPD_MODULE_IEEE80211,
 360:C:/Users/stapi/OneDrive/Desktop/GD32VW553/V1_MQTT_OK/GD32VW55X_Wifi_BLE_SDK/GD32VW55x_RELEASE_V1.0.2/MSDK/wpa_supplicant/src/ap\wmm.c **** 			       HOSTAPD_LEVEL_DEBUG,
 361:C:/Users/stapi/OneDrive/Desktop/GD32VW553/V1_MQTT_OK/GD32VW55X_Wifi_BLE_SDK/GD32VW55x_RELEASE_V1.0.2/MSDK/wpa_supplicant/src/ap\wmm.c **** 			       "hostapd_wmm_action - missing or wrong length "
 362:C:/Users/stapi/OneDrive/Desktop/GD32VW553/V1_MQTT_OK/GD32VW55X_Wifi_BLE_SDK/GD32VW55x_RELEASE_V1.0.2/MSDK/wpa_supplicant/src/ap\wmm.c **** 			       "tspec");
 363:C:/Users/stapi/OneDrive/Desktop/GD32VW553/V1_MQTT_OK/GD32VW55X_Wifi_BLE_SDK/GD32VW55x_RELEASE_V1.0.2/MSDK/wpa_supplicant/src/ap\wmm.c **** 		/* TODO: respond with action frame invalid parameters status
 364:C:/Users/stapi/OneDrive/Desktop/GD32VW553/V1_MQTT_OK/GD32VW55X_Wifi_BLE_SDK/GD32VW55x_RELEASE_V1.0.2/MSDK/wpa_supplicant/src/ap\wmm.c **** 		 * code */
 365:C:/Users/stapi/OneDrive/Desktop/GD32VW553/V1_MQTT_OK/GD32VW55X_Wifi_BLE_SDK/GD32VW55x_RELEASE_V1.0.2/MSDK/wpa_supplicant/src/ap\wmm.c **** 		return;
 366:C:/Users/stapi/OneDrive/Desktop/GD32VW553/V1_MQTT_OK/GD32VW55X_Wifi_BLE_SDK/GD32VW55x_RELEASE_V1.0.2/MSDK/wpa_supplicant/src/ap\wmm.c **** 	}
 367:C:/Users/stapi/OneDrive/Desktop/GD32VW553/V1_MQTT_OK/GD32VW55X_Wifi_BLE_SDK/GD32VW55x_RELEASE_V1.0.2/MSDK/wpa_supplicant/src/ap\wmm.c **** 
 368:C:/Users/stapi/OneDrive/Desktop/GD32VW553/V1_MQTT_OK/GD32VW55X_Wifi_BLE_SDK/GD32VW55x_RELEASE_V1.0.2/MSDK/wpa_supplicant/src/ap\wmm.c **** 	/* TODO: check the request is for an AC with ACM set, if not, refuse
 369:C:/Users/stapi/OneDrive/Desktop/GD32VW553/V1_MQTT_OK/GD32VW55X_Wifi_BLE_SDK/GD32VW55x_RELEASE_V1.0.2/MSDK/wpa_supplicant/src/ap\wmm.c **** 	 * request */
 370:C:/Users/stapi/OneDrive/Desktop/GD32VW553/V1_MQTT_OK/GD32VW55X_Wifi_BLE_SDK/GD32VW55x_RELEASE_V1.0.2/MSDK/wpa_supplicant/src/ap\wmm.c **** 
 371:C:/Users/stapi/OneDrive/Desktop/GD32VW553/V1_MQTT_OK/GD32VW55X_Wifi_BLE_SDK/GD32VW55x_RELEASE_V1.0.2/MSDK/wpa_supplicant/src/ap\wmm.c **** 	action_code = mgmt->u.action.u.wmm_action.action_code;
 970              		.loc 1 371 2 is_stmt 1
 971              	.LVL76:
 372:C:/Users/stapi/OneDrive/Desktop/GD32VW553/V1_MQTT_OK/GD32VW55X_Wifi_BLE_SDK/GD32VW55x_RELEASE_V1.0.2/MSDK/wpa_supplicant/src/ap\wmm.c **** 	switch (action_code) {
 972              		.loc 1 372 2
 973 0062 83479401 		lbu	a5,25(s0)
 974              	.LVL77:
 975 0066 99EF     		bne	a5,zero,.L52
 373:C:/Users/stapi/OneDrive/Desktop/GD32VW553/V1_MQTT_OK/GD32VW55X_Wifi_BLE_SDK/GD32VW55x_RELEASE_V1.0.2/MSDK/wpa_supplicant/src/ap\wmm.c **** 	case WMM_ACTION_CODE_ADDTS_REQ:
 374:C:/Users/stapi/OneDrive/Desktop/GD32VW553/V1_MQTT_OK/GD32VW55X_Wifi_BLE_SDK/GD32VW55x_RELEASE_V1.0.2/MSDK/wpa_supplicant/src/ap\wmm.c **** 		wmm_addts_req(hapd, mgmt, (struct wmm_tspec_element *)
 976              		.loc 1 374 3
 977              	.LVL78:
 978              	.LBB39:
 979              	.LBB40:
 299:C:/Users/stapi/OneDrive/Desktop/GD32VW553/V1_MQTT_OK/GD32VW55X_Wifi_BLE_SDK/GD32VW55x_RELEASE_V1.0.2/MSDK/wpa_supplicant/src/ap\wmm.c **** 	int res;
 980              		.loc 1 299 2
 300:C:/Users/stapi/OneDrive/Desktop/GD32VW553/V1_MQTT_OK/GD32VW55X_Wifi_BLE_SDK/GD32VW55x_RELEASE_V1.0.2/MSDK/wpa_supplicant/src/ap\wmm.c **** 	struct wmm_tspec_element tspec_resp;
 981              		.loc 1 300 2
 301:C:/Users/stapi/OneDrive/Desktop/GD32VW553/V1_MQTT_OK/GD32VW55X_Wifi_BLE_SDK/GD32VW55x_RELEASE_V1.0.2/MSDK/wpa_supplicant/src/ap\wmm.c **** 
 982              		.loc 1 301 2
 303:C:/Users/stapi/OneDrive/Desktop/GD32VW553/V1_MQTT_OK/GD32VW55X_Wifi_BLE_SDK/GD32VW55x_RELEASE_V1.0.2/MSDK/wpa_supplicant/src/ap\wmm.c **** 		wpa_printf(MSG_DEBUG, "WMM: TSPEC overflow in ADDTS Request");
 983              		.loc 1 303 2
 299:C:/Users/stapi/OneDrive/Desktop/GD32VW553/V1_MQTT_OK/GD32VW55X_Wifi_BLE_SDK/GD32VW55x_RELEASE_V1.0.2/MSDK/wpa_supplicant/src/ap\wmm.c **** 	int res;
 984              		.loc 1 299 12 is_stmt 0
 985 0068 A294     		add	s1,s0,s1
 986              	.LVL79:
 303:C:/Users/stapi/OneDrive/Desktop/GD32VW553/V1_MQTT_OK/GD32VW55X_Wifi_BLE_SDK/GD32VW55x_RELEASE_V1.0.2/MSDK/wpa_supplicant/src/ap\wmm.c **** 		wpa_printf(MSG_DEBUG, "WMM: TSPEC overflow in ADDTS Request");
 987              		.loc 1 303 26
 988 006a 9387D903 		addi	a5,s3,61
 989              	.LVL80:
 303:C:/Users/stapi/OneDrive/Desktop/GD32VW553/V1_MQTT_OK/GD32VW55X_Wifi_BLE_SDK/GD32VW55x_RELEASE_V1.0.2/MSDK/wpa_supplicant/src/ap\wmm.c **** 		wpa_printf(MSG_DEBUG, "WMM: TSPEC overflow in ADDTS Request");
 990              		.loc 1 303 5
 991 006e 63F1F402 		bgeu	s1,a5,.L55
 304:C:/Users/stapi/OneDrive/Desktop/GD32VW553/V1_MQTT_OK/GD32VW55X_Wifi_BLE_SDK/GD32VW55x_RELEASE_V1.0.2/MSDK/wpa_supplicant/src/ap\wmm.c **** 		return;
 992              		.loc 1 304 3 is_stmt 1
 993 0072 B7050000 		lui	a1,%hi(.LC17)
 994 0076 93850500 		addi	a1,a1,%lo(.LC17)
 995 007a 0945     		li	a0,2
 996              	.LVL81:
 997              	.L66:
 998              	.LBB41:
 999              	.LBB42:
 216:C:/Users/stapi/OneDrive/Desktop/GD32VW553/V1_MQTT_OK/GD32VW55X_Wifi_BLE_SDK/GD32VW55x_RELEASE_V1.0.2/MSDK/wpa_supplicant/src/ap\wmm.c **** }
 1000              		.loc 1 216 3 is_stmt 0
 1001 007c 97000000 		call	wpa_printf
 1001      E7800000 
 1002              	.LVL82:
 1003              	.L52:
 1004              	.LBE42:
 1005              	.LBE41:
 1006              	.LBE40:
 1007              	.LBE39:
 375:C:/Users/stapi/OneDrive/Desktop/GD32VW553/V1_MQTT_OK/GD32VW55X_Wifi_BLE_SDK/GD32VW55x_RELEASE_V1.0.2/MSDK/wpa_supplicant/src/ap\wmm.c **** 			      (elems.wmm_tspec - 2), len);
 376:C:/Users/stapi/OneDrive/Desktop/GD32VW553/V1_MQTT_OK/GD32VW55X_Wifi_BLE_SDK/GD32VW55x_RELEASE_V1.0.2/MSDK/wpa_supplicant/src/ap\wmm.c **** 		return;
 377:C:/Users/stapi/OneDrive/Desktop/GD32VW553/V1_MQTT_OK/GD32VW55X_Wifi_BLE_SDK/GD32VW55x_RELEASE_V1.0.2/MSDK/wpa_supplicant/src/ap\wmm.c **** #if 0
 378:C:/Users/stapi/OneDrive/Desktop/GD32VW553/V1_MQTT_OK/GD32VW55X_Wifi_BLE_SDK/GD32VW55x_RELEASE_V1.0.2/MSDK/wpa_supplicant/src/ap\wmm.c **** 	/* TODO: needed for client implementation */
 379:C:/Users/stapi/OneDrive/Desktop/GD32VW553/V1_MQTT_OK/GD32VW55X_Wifi_BLE_SDK/GD32VW55x_RELEASE_V1.0.2/MSDK/wpa_supplicant/src/ap\wmm.c **** 	case WMM_ACTION_CODE_ADDTS_RESP:
 380:C:/Users/stapi/OneDrive/Desktop/GD32VW553/V1_MQTT_OK/GD32VW55X_Wifi_BLE_SDK/GD32VW55x_RELEASE_V1.0.2/MSDK/wpa_supplicant/src/ap\wmm.c **** 		wmm_setup_request(hapd, mgmt, len);
 381:C:/Users/stapi/OneDrive/Desktop/GD32VW553/V1_MQTT_OK/GD32VW55X_Wifi_BLE_SDK/GD32VW55x_RELEASE_V1.0.2/MSDK/wpa_supplicant/src/ap\wmm.c **** 		return;
 382:C:/Users/stapi/OneDrive/Desktop/GD32VW553/V1_MQTT_OK/GD32VW55X_Wifi_BLE_SDK/GD32VW55x_RELEASE_V1.0.2/MSDK/wpa_supplicant/src/ap\wmm.c **** 	/* TODO: handle station teardown requests */
 383:C:/Users/stapi/OneDrive/Desktop/GD32VW553/V1_MQTT_OK/GD32VW55X_Wifi_BLE_SDK/GD32VW55x_RELEASE_V1.0.2/MSDK/wpa_supplicant/src/ap\wmm.c **** 	case WMM_ACTION_CODE_DELTS:
 384:C:/Users/stapi/OneDrive/Desktop/GD32VW553/V1_MQTT_OK/GD32VW55X_Wifi_BLE_SDK/GD32VW55x_RELEASE_V1.0.2/MSDK/wpa_supplicant/src/ap\wmm.c **** 		wmm_teardown(hapd, mgmt, len);
 385:C:/Users/stapi/OneDrive/Desktop/GD32VW553/V1_MQTT_OK/GD32VW55X_Wifi_BLE_SDK/GD32VW55x_RELEASE_V1.0.2/MSDK/wpa_supplicant/src/ap\wmm.c **** 		return;
 386:C:/Users/stapi/OneDrive/Desktop/GD32VW553/V1_MQTT_OK/GD32VW55X_Wifi_BLE_SDK/GD32VW55x_RELEASE_V1.0.2/MSDK/wpa_supplicant/src/ap\wmm.c **** #endif
 387:C:/Users/stapi/OneDrive/Desktop/GD32VW553/V1_MQTT_OK/GD32VW55X_Wifi_BLE_SDK/GD32VW55x_RELEASE_V1.0.2/MSDK/wpa_supplicant/src/ap\wmm.c **** 	}
 388:C:/Users/stapi/OneDrive/Desktop/GD32VW553/V1_MQTT_OK/GD32VW55X_Wifi_BLE_SDK/GD32VW55x_RELEASE_V1.0.2/MSDK/wpa_supplicant/src/ap\wmm.c **** 
 389:C:/Users/stapi/OneDrive/Desktop/GD32VW553/V1_MQTT_OK/GD32VW55X_Wifi_BLE_SDK/GD32VW55x_RELEASE_V1.0.2/MSDK/wpa_supplicant/src/ap\wmm.c **** 	hostapd_logger(hapd, mgmt->sa, HOSTAPD_MODULE_IEEE80211,
 390:C:/Users/stapi/OneDrive/Desktop/GD32VW553/V1_MQTT_OK/GD32VW55X_Wifi_BLE_SDK/GD32VW55x_RELEASE_V1.0.2/MSDK/wpa_supplicant/src/ap\wmm.c **** 		       HOSTAPD_LEVEL_DEBUG,
 391:C:/Users/stapi/OneDrive/Desktop/GD32VW553/V1_MQTT_OK/GD32VW55X_Wifi_BLE_SDK/GD32VW55x_RELEASE_V1.0.2/MSDK/wpa_supplicant/src/ap\wmm.c **** 		       "hostapd_wmm_action - unknown action code %d",
 392:C:/Users/stapi/OneDrive/Desktop/GD32VW553/V1_MQTT_OK/GD32VW55X_Wifi_BLE_SDK/GD32VW55x_RELEASE_V1.0.2/MSDK/wpa_supplicant/src/ap\wmm.c **** 		       action_code);
 393:C:/Users/stapi/OneDrive/Desktop/GD32VW553/V1_MQTT_OK/GD32VW55X_Wifi_BLE_SDK/GD32VW55x_RELEASE_V1.0.2/MSDK/wpa_supplicant/src/ap\wmm.c **** }
 1008              		.loc 1 393 1
 1009 0084 13010130 		addi	sp,sp,768
 1010              		.cfi_remember_state
 1011              		.cfi_def_cfa_offset 0
 1012 0088 17030000 		tail	__riscv_restore_5
 1012      67000300 
 1013              		.cfi_restore 20
 1014              		.cfi_restore 19
 1015              		.cfi_restore 18
 1016              		.cfi_restore 9
 1017              		.cfi_restore 8
 1018              		.cfi_restore 1
 1019              		.cfi_def_cfa_offset -32
 1020              	.LVL83:
 1021              	.L55:
 1022              		.cfi_restore_state
 1023              	.LBB50:
 1024              	.LBB49:
 308:C:/Users/stapi/OneDrive/Desktop/GD32VW553/V1_MQTT_OK/GD32VW55X_Wifi_BLE_SDK/GD32VW55x_RELEASE_V1.0.2/MSDK/wpa_supplicant/src/ap\wmm.c **** 		   "from " MACSTR,
 1025              		.loc 1 308 2 is_stmt 1
 1026 0090 8347F400 		lbu	a5,15(s0)
 1027 0094 B7050000 		lui	a1,%hi(.LC18)
 1028 0098 93850500 		addi	a1,a1,%lo(.LC18)
 1029 009c 3EC0     		sw	a5,0(sp)
 1030              	.LVL84:
 1031 009e 0348D400 		lbu	a6,13(s0)
 1032 00a2 0347B400 		lbu	a4,11(s0)
 1033 00a6 8346A400 		lbu	a3,10(s0)
 1034 00aa 8348E400 		lbu	a7,14(s0)
 1035 00ae 8347C400 		lbu	a5,12(s0)
 1036 00b2 0346A401 		lbu	a2,26(s0)
 1037 00b6 0945     		li	a0,2
 1038 00b8 97000000 		call	wpa_printf
 1038      E7800000 
 1039              	.LVL85:
 313:C:/Users/stapi/OneDrive/Desktop/GD32VW553/V1_MQTT_OK/GD32VW55X_Wifi_BLE_SDK/GD32VW55x_RELEASE_V1.0.2/MSDK/wpa_supplicant/src/ap\wmm.c **** 	res = wmm_process_tspec(&tspec_resp);
 1040              		.loc 1 313 2
 1041 00c0 1306F003 		li	a2,63
 1042 00c4 9385E9FF 		addi	a1,s3,-2
 1043 00c8 0810     		addi	a0,sp,32
 1044 00ca 97000000 		call	os_memcpy
 1044      E7800000 
 1045              	.LVL86:
 314:C:/Users/stapi/OneDrive/Desktop/GD32VW553/V1_MQTT_OK/GD32VW55X_Wifi_BLE_SDK/GD32VW55x_RELEASE_V1.0.2/MSDK/wpa_supplicant/src/ap\wmm.c **** 	wpa_printf(MSG_DEBUG, "WMM: ADDTS processing result: %d", res);
 1046              		.loc 1 314 2
 314:C:/Users/stapi/OneDrive/Desktop/GD32VW553/V1_MQTT_OK/GD32VW55X_Wifi_BLE_SDK/GD32VW55x_RELEASE_V1.0.2/MSDK/wpa_supplicant/src/ap\wmm.c **** 	wpa_printf(MSG_DEBUG, "WMM: ADDTS processing result: %d", res);
 1047              		.loc 1 314 8 is_stmt 0
 1048 00d2 0810     		addi	a0,sp,32
 1049 00d4 97000000 		call	wmm_process_tspec
 1049      E7800000 
 1050              	.LVL87:
 315:C:/Users/stapi/OneDrive/Desktop/GD32VW553/V1_MQTT_OK/GD32VW55X_Wifi_BLE_SDK/GD32VW55x_RELEASE_V1.0.2/MSDK/wpa_supplicant/src/ap\wmm.c **** 
 1051              		.loc 1 315 2
 1052 00dc B7050000 		lui	a1,%hi(.LC19)
 1053 00e0 2A86     		mv	a2,a0
 314:C:/Users/stapi/OneDrive/Desktop/GD32VW553/V1_MQTT_OK/GD32VW55X_Wifi_BLE_SDK/GD32VW55x_RELEASE_V1.0.2/MSDK/wpa_supplicant/src/ap\wmm.c **** 	wpa_printf(MSG_DEBUG, "WMM: ADDTS processing result: %d", res);
 1054              		.loc 1 314 8
 1055 00e2 AA84     		mv	s1,a0
 1056              	.LVL88:
 315:C:/Users/stapi/OneDrive/Desktop/GD32VW553/V1_MQTT_OK/GD32VW55X_Wifi_BLE_SDK/GD32VW55x_RELEASE_V1.0.2/MSDK/wpa_supplicant/src/ap\wmm.c **** 
 1057              		.loc 1 315 2 is_stmt 1
 1058 00e4 93850500 		addi	a1,a1,%lo(.LC19)
 1059 00e8 0945     		li	a0,2
 1060 00ea 97000000 		call	wpa_printf
 1060      E7800000 
 1061              	.LVL89:
 317:C:/Users/stapi/OneDrive/Desktop/GD32VW553/V1_MQTT_OK/GD32VW55X_Wifi_BLE_SDK/GD32VW55x_RELEASE_V1.0.2/MSDK/wpa_supplicant/src/ap\wmm.c **** 			mgmt->u.action.u.wmm_action.dialog_token, res);
 1062              		.loc 1 317 2
 1063              	.LBB46:
 1064              	.LBB43:
 202:C:/Users/stapi/OneDrive/Desktop/GD32VW553/V1_MQTT_OK/GD32VW55X_Wifi_BLE_SDK/GD32VW55x_RELEASE_V1.0.2/MSDK/wpa_supplicant/src/ap\wmm.c **** 	m->frame_control = IEEE80211_FC(WLAN_FC_TYPE_MGMT,
 1065              		.loc 1 202 2 is_stmt 0
 1066 00f2 13060010 		li	a2,256
 1067 00f6 8145     		li	a1,0
 1068 00f8 8810     		addi	a0,sp,96
 1069              	.LBE43:
 1070              	.LBE46:
 317:C:/Users/stapi/OneDrive/Desktop/GD32VW553/V1_MQTT_OK/GD32VW55X_Wifi_BLE_SDK/GD32VW55x_RELEASE_V1.0.2/MSDK/wpa_supplicant/src/ap\wmm.c **** 			mgmt->u.action.u.wmm_action.dialog_token, res);
 1071              		.loc 1 317 2
 1072 00fa 0344A401 		lbu	s0,26(s0)
 1073              	.LVL90:
 1074              	.LBB47:
 1075              	.LBB44:
 193:C:/Users/stapi/OneDrive/Desktop/GD32VW553/V1_MQTT_OK/GD32VW55X_Wifi_BLE_SDK/GD32VW55x_RELEASE_V1.0.2/MSDK/wpa_supplicant/src/ap\wmm.c **** 	struct ieee80211_mgmt *m = (struct ieee80211_mgmt *) buf;
 1076              		.loc 1 193 2 is_stmt 1
 194:C:/Users/stapi/OneDrive/Desktop/GD32VW553/V1_MQTT_OK/GD32VW55X_Wifi_BLE_SDK/GD32VW55x_RELEASE_V1.0.2/MSDK/wpa_supplicant/src/ap\wmm.c **** 	struct wmm_tspec_element *t = (struct wmm_tspec_element *)
 1077              		.loc 1 194 2
 195:C:/Users/stapi/OneDrive/Desktop/GD32VW553/V1_MQTT_OK/GD32VW55X_Wifi_BLE_SDK/GD32VW55x_RELEASE_V1.0.2/MSDK/wpa_supplicant/src/ap\wmm.c **** 		m->u.action.u.wmm_action.variable;
 1078              		.loc 1 195 2
 197:C:/Users/stapi/OneDrive/Desktop/GD32VW553/V1_MQTT_OK/GD32VW55X_Wifi_BLE_SDK/GD32VW55x_RELEASE_V1.0.2/MSDK/wpa_supplicant/src/ap\wmm.c **** 
 1079              		.loc 1 197 2
 199:C:/Users/stapi/OneDrive/Desktop/GD32VW553/V1_MQTT_OK/GD32VW55X_Wifi_BLE_SDK/GD32VW55x_RELEASE_V1.0.2/MSDK/wpa_supplicant/src/ap\wmm.c **** 		       HOSTAPD_LEVEL_DEBUG,
 1080              		.loc 1 199 2
 199:C:/Users/stapi/OneDrive/Desktop/GD32VW553/V1_MQTT_OK/GD32VW55X_Wifi_BLE_SDK/GD32VW55x_RELEASE_V1.0.2/MSDK/wpa_supplicant/src/ap\wmm.c **** 		       HOSTAPD_LEVEL_DEBUG,
 1081              		.loc 1 199 2
 199:C:/Users/stapi/OneDrive/Desktop/GD32VW553/V1_MQTT_OK/GD32VW55X_Wifi_BLE_SDK/GD32VW55x_RELEASE_V1.0.2/MSDK/wpa_supplicant/src/ap\wmm.c **** 		       HOSTAPD_LEVEL_DEBUG,
 1082              		.loc 1 199 2
 202:C:/Users/stapi/OneDrive/Desktop/GD32VW553/V1_MQTT_OK/GD32VW55X_Wifi_BLE_SDK/GD32VW55x_RELEASE_V1.0.2/MSDK/wpa_supplicant/src/ap\wmm.c **** 	m->frame_control = IEEE80211_FC(WLAN_FC_TYPE_MGMT,
 1083              		.loc 1 202 2
 1084 00fe 97000000 		call	os_memset
 1084      E7800000 
 1085              	.LVL91:
 203:C:/Users/stapi/OneDrive/Desktop/GD32VW553/V1_MQTT_OK/GD32VW55X_Wifi_BLE_SDK/GD32VW55x_RELEASE_V1.0.2/MSDK/wpa_supplicant/src/ap\wmm.c **** 					WLAN_FC_STYPE_ACTION);
 1086              		.loc 1 203 2
 203:C:/Users/stapi/OneDrive/Desktop/GD32VW553/V1_MQTT_OK/GD32VW55X_Wifi_BLE_SDK/GD32VW55x_RELEASE_V1.0.2/MSDK/wpa_supplicant/src/ap\wmm.c **** 					WLAN_FC_STYPE_ACTION);
 1087              		.loc 1 203 19 is_stmt 0
 1088 0106 9307000D 		li	a5,208
 205:C:/Users/stapi/OneDrive/Desktop/GD32VW553/V1_MQTT_OK/GD32VW55X_Wifi_BLE_SDK/GD32VW55x_RELEASE_V1.0.2/MSDK/wpa_supplicant/src/ap\wmm.c **** 	os_memcpy(m->sa, hapd->own_addr, ETH_ALEN);
 1089              		.loc 1 205 2
 1090 010a 1946     		li	a2,6
 1091 010c D285     		mv	a1,s4
 1092 010e C810     		addi	a0,sp,100
 203:C:/Users/stapi/OneDrive/Desktop/GD32VW553/V1_MQTT_OK/GD32VW55X_Wifi_BLE_SDK/GD32VW55x_RELEASE_V1.0.2/MSDK/wpa_supplicant/src/ap\wmm.c **** 					WLAN_FC_STYPE_ACTION);
 1093              		.loc 1 203 19
 1094 0110 2310F106 		sh	a5,96(sp)
 205:C:/Users/stapi/OneDrive/Desktop/GD32VW553/V1_MQTT_OK/GD32VW55X_Wifi_BLE_SDK/GD32VW55x_RELEASE_V1.0.2/MSDK/wpa_supplicant/src/ap\wmm.c **** 	os_memcpy(m->sa, hapd->own_addr, ETH_ALEN);
 1095              		.loc 1 205 2 is_stmt 1
 1096 0114 97000000 		call	os_memcpy
 1096      E7800000 
 1097              	.LVL92:
 206:C:/Users/stapi/OneDrive/Desktop/GD32VW553/V1_MQTT_OK/GD32VW55X_Wifi_BLE_SDK/GD32VW55x_RELEASE_V1.0.2/MSDK/wpa_supplicant/src/ap\wmm.c **** 	os_memcpy(m->bssid, hapd->own_addr, ETH_ALEN);
 1098              		.loc 1 206 2
 206:C:/Users/stapi/OneDrive/Desktop/GD32VW553/V1_MQTT_OK/GD32VW55X_Wifi_BLE_SDK/GD32VW55x_RELEASE_V1.0.2/MSDK/wpa_supplicant/src/ap\wmm.c **** 	os_memcpy(m->bssid, hapd->own_addr, ETH_ALEN);
 1099              		.loc 1 206 23 is_stmt 0
 1100 011c 93051901 		addi	a1,s2,17
 206:C:/Users/stapi/OneDrive/Desktop/GD32VW553/V1_MQTT_OK/GD32VW55X_Wifi_BLE_SDK/GD32VW55x_RELEASE_V1.0.2/MSDK/wpa_supplicant/src/ap\wmm.c **** 	os_memcpy(m->bssid, hapd->own_addr, ETH_ALEN);
 1101              		.loc 1 206 2
 1102 0120 1946     		li	a2,6
 1103 0122 1305A106 		addi	a0,sp,106
 1104 0126 2ECE     		sw	a1,28(sp)
 1105 0128 97000000 		call	os_memcpy
 1105      E7800000 
 1106              	.LVL93:
 207:C:/Users/stapi/OneDrive/Desktop/GD32VW553/V1_MQTT_OK/GD32VW55X_Wifi_BLE_SDK/GD32VW55x_RELEASE_V1.0.2/MSDK/wpa_supplicant/src/ap\wmm.c **** 	m->u.action.category = WLAN_ACTION_WMM;
 1107              		.loc 1 207 2 is_stmt 1
 1108 0130 F245     		lw	a1,28(sp)
 1109 0132 1946     		li	a2,6
 1110 0134 8818     		addi	a0,sp,112
 1111 0136 97000000 		call	os_memcpy
 1111      E7800000 
 1112              	.LVL94:
 208:C:/Users/stapi/OneDrive/Desktop/GD32VW553/V1_MQTT_OK/GD32VW55X_Wifi_BLE_SDK/GD32VW55x_RELEASE_V1.0.2/MSDK/wpa_supplicant/src/ap\wmm.c **** 	m->u.action.u.wmm_action.action_code = action_code;
 1113              		.loc 1 208 2
 209:C:/Users/stapi/OneDrive/Desktop/GD32VW553/V1_MQTT_OK/GD32VW55X_Wifi_BLE_SDK/GD32VW55x_RELEASE_V1.0.2/MSDK/wpa_supplicant/src/ap\wmm.c **** 	m->u.action.u.wmm_action.dialog_token = dialogue_token;
 1114              		.loc 1 209 2
 208:C:/Users/stapi/OneDrive/Desktop/GD32VW553/V1_MQTT_OK/GD32VW55X_Wifi_BLE_SDK/GD32VW55x_RELEASE_V1.0.2/MSDK/wpa_supplicant/src/ap\wmm.c **** 	m->u.action.u.wmm_action.action_code = action_code;
 1115              		.loc 1 208 23 is_stmt 0
 1116 013e 93071011 		li	a5,273
 212:C:/Users/stapi/OneDrive/Desktop/GD32VW553/V1_MQTT_OK/GD32VW55X_Wifi_BLE_SDK/GD32VW55x_RELEASE_V1.0.2/MSDK/wpa_supplicant/src/ap\wmm.c **** 	len = ((u8 *) (t + 1)) - buf;
 1117              		.loc 1 212 2
 1118 0142 1306F003 		li	a2,63
 1119 0146 0C10     		addi	a1,sp,32
 1120              	.LVL95:
 1121 0148 E818     		addi	a0,sp,124
 1122              	.LVL96:
 208:C:/Users/stapi/OneDrive/Desktop/GD32VW553/V1_MQTT_OK/GD32VW55X_Wifi_BLE_SDK/GD32VW55x_RELEASE_V1.0.2/MSDK/wpa_supplicant/src/ap\wmm.c **** 	m->u.action.u.wmm_action.action_code = action_code;
 1123              		.loc 1 208 23
 1124 014a 231CF106 		sh	a5,120(sp)
 210:C:/Users/stapi/OneDrive/Desktop/GD32VW553/V1_MQTT_OK/GD32VW55X_Wifi_BLE_SDK/GD32VW55x_RELEASE_V1.0.2/MSDK/wpa_supplicant/src/ap\wmm.c **** 	m->u.action.u.wmm_action.status_code = status_code;
 1125              		.loc 1 210 2 is_stmt 1
 210:C:/Users/stapi/OneDrive/Desktop/GD32VW553/V1_MQTT_OK/GD32VW55X_Wifi_BLE_SDK/GD32VW55x_RELEASE_V1.0.2/MSDK/wpa_supplicant/src/ap\wmm.c **** 	m->u.action.u.wmm_action.status_code = status_code;
 1126              		.loc 1 210 40 is_stmt 0
 1127 014e 230D8106 		sb	s0,122(sp)
 211:C:/Users/stapi/OneDrive/Desktop/GD32VW553/V1_MQTT_OK/GD32VW55X_Wifi_BLE_SDK/GD32VW55x_RELEASE_V1.0.2/MSDK/wpa_supplicant/src/ap\wmm.c **** 	os_memcpy(t, tspec, sizeof(struct wmm_tspec_element));
 1128              		.loc 1 211 2 is_stmt 1
 1129              	.LBE44:
 1130              	.LBE47:
 317:C:/Users/stapi/OneDrive/Desktop/GD32VW553/V1_MQTT_OK/GD32VW55X_Wifi_BLE_SDK/GD32VW55x_RELEASE_V1.0.2/MSDK/wpa_supplicant/src/ap\wmm.c **** 			mgmt->u.action.u.wmm_action.dialog_token, res);
 1131              		.loc 1 317 2 is_stmt 0
 1132 0152 A30D9106 		sb	s1,123(sp)
 1133              	.LBB48:
 1134              	.LBB45:
 212:C:/Users/stapi/OneDrive/Desktop/GD32VW553/V1_MQTT_OK/GD32VW55X_Wifi_BLE_SDK/GD32VW55x_RELEASE_V1.0.2/MSDK/wpa_supplicant/src/ap\wmm.c **** 	len = ((u8 *) (t + 1)) - buf;
 1135              		.loc 1 212 2 is_stmt 1
 1136 0156 97000000 		call	os_memcpy
 1136      E7800000 
 1137              	.LVL97:
 213:C:/Users/stapi/OneDrive/Desktop/GD32VW553/V1_MQTT_OK/GD32VW55X_Wifi_BLE_SDK/GD32VW55x_RELEASE_V1.0.2/MSDK/wpa_supplicant/src/ap\wmm.c **** 
 1138              		.loc 1 213 2
 215:C:/Users/stapi/OneDrive/Desktop/GD32VW553/V1_MQTT_OK/GD32VW55X_Wifi_BLE_SDK/GD32VW55x_RELEASE_V1.0.2/MSDK/wpa_supplicant/src/ap\wmm.c **** 		wpa_printf(MSG_INFO, "wmm_send_action: send failed");
 1139              		.loc 1 215 2
 215:C:/Users/stapi/OneDrive/Desktop/GD32VW553/V1_MQTT_OK/GD32VW55X_Wifi_BLE_SDK/GD32VW55x_RELEASE_V1.0.2/MSDK/wpa_supplicant/src/ap\wmm.c **** 		wpa_printf(MSG_INFO, "wmm_send_action: send failed");
 1140              		.loc 1 215 6 is_stmt 0
 1141 015e 0148     		li	a6,0
 1142 0160 8147     		li	a5,0
 1143 0162 0147     		li	a4,0
 1144 0164 8146     		li	a3,0
 1145 0166 1306B005 		li	a2,91
 1146 016a 8C10     		addi	a1,sp,96
 1147              	.LVL98:
 1148 016c 4A85     		mv	a0,s2
 1149 016e 97000000 		call	hostapd_drv_send_mlme
 1149      E7800000 
 1150              	.LVL99:
 215:C:/Users/stapi/OneDrive/Desktop/GD32VW553/V1_MQTT_OK/GD32VW55X_Wifi_BLE_SDK/GD32VW55x_RELEASE_V1.0.2/MSDK/wpa_supplicant/src/ap\wmm.c **** 		wpa_printf(MSG_INFO, "wmm_send_action: send failed");
 1151              		.loc 1 215 5
 1152 0176 E35705F0 		bge	a0,zero,.L52
 216:C:/Users/stapi/OneDrive/Desktop/GD32VW553/V1_MQTT_OK/GD32VW55X_Wifi_BLE_SDK/GD32VW55x_RELEASE_V1.0.2/MSDK/wpa_supplicant/src/ap\wmm.c **** }
 1153              		.loc 1 216 3 is_stmt 1
 1154 017a B7050000 		lui	a1,%hi(.LC20)
 1155 017e 93850500 		addi	a1,a1,%lo(.LC20)
 1156 0182 0D45     		li	a0,3
 1157 0184 E5BD     		j	.L66
 1158              	.LBE45:
 1159              	.LBE48:
 1160              	.LBE49:
 1161              	.LBE50:
 1162              		.cfi_endproc
 1163              	.LFE176:
 1165              		.text
 1166              	.Letext0:
 1167              		.file 2 "c:\\users\\stapi\\onedrive\\desktop\\gd32vw553\\embeddedbuilder_v1.4.7.26843\\tools\\nucl
 1168              		.file 3 "c:\\users\\stapi\\onedrive\\desktop\\gd32vw553\\embeddedbuilder_v1.4.7.26843\\tools\\nucl
 1169              		.file 4 "c:\\users\\stapi\\onedrive\\desktop\\gd32vw553\\embeddedbuilder_v1.4.7.26843\\tools\\nucl
 1170              		.file 5 "..\\..\\..\\..\\lwip\\lwip-2.1.2\\src\\include/lwip/arch.h"
 1171              		.file 6 "..\\..\\..\\..\\lwip\\lwip-2.1.2\\src\\include/lwip/inet.h"
 1172              		.file 7 "..\\..\\..\\..\\wpa_supplicant\\src/utils/os.h"
 1173              		.file 8 "..\\..\\..\\..\\wpa_supplicant\\src/utils/common.h"
 1174              		.file 9 "..\\..\\..\\..\\wpa_supplicant\\src/utils/wpabuf.h"
 1175              		.file 10 "..\\..\\..\\..\\wpa_supplicant\\src/common/ieee802_11_defs.h"
 1176              		.file 11 "..\\..\\..\\..\\wpa_supplicant\\src/utils/wpa_debug.h"
 1177              		.file 12 "..\\..\\..\\..\\wpa_supplicant\\src/common/defs.h"
 1178              		.file 13 "..\\..\\..\\..\\wpa_supplicant\\src/common/ieee802_11_common.h"
 1179              		.file 14 "..\\..\\..\\..\\wpa_supplicant\\src/utils/list.h"
 1180              		.file 15 "..\\..\\..\\..\\wpa_supplicant\\src/utils/ip_addr.h"
 1181              		.file 16 "..\\..\\..\\..\\wpa_supplicant\\src/wps/wps_defs.h"
 1182              		.file 17 "..\\..\\..\\..\\wpa_supplicant\\src/wps/wps.h"
 1183              		.file 18 "C:/Users/stapi/OneDrive/Desktop/GD32VW553/V1_MQTT_OK/GD32VW55X_Wifi_BLE_SDK/GD32VW55x_RE
 1184              		.file 19 "C:/Users/stapi/OneDrive/Desktop/GD32VW553/V1_MQTT_OK/GD32VW55X_Wifi_BLE_SDK/GD32VW55x_RE
 1185              		.file 20 "..\\..\\..\\..\\wpa_supplicant\\src/common/sae.h"
 1186              		.file 21 "..\\..\\..\\..\\wpa_supplicant\\src/drivers/driver.h"
 1187              		.file 22 "C:/Users/stapi/OneDrive/Desktop/GD32VW553/V1_MQTT_OK/GD32VW55X_Wifi_BLE_SDK/GD32VW55x_RE
 1188              		.file 23 "C:/Users/stapi/OneDrive/Desktop/GD32VW553/V1_MQTT_OK/GD32VW55X_Wifi_BLE_SDK/GD32VW55x_RE
 1189              		.file 24 "C:/Users/stapi/OneDrive/Desktop/GD32VW553/V1_MQTT_OK/GD32VW55X_Wifi_BLE_SDK/GD32VW55x_RE
DEFINED SYMBOLS
                            *ABS*:0000000000000000 wmm.c
C:\Users\stapi\AppData\Local\Temp\cckpGNDB.s:13     .text.hostapd_eid_wmm:0000000000000000 hostapd_eid_wmm
C:\Users\stapi\AppData\Local\Temp\cckpGNDB.s:17     .text.hostapd_eid_wmm:0000000000000000 .L0 
C:\Users\stapi\AppData\Local\Temp\cckpGNDB.s:19     .text.hostapd_eid_wmm:0000000000000000 .L0 
C:\Users\stapi\AppData\Local\Temp\cckpGNDB.s:20     .text.hostapd_eid_wmm:0000000000000008 .L0 
C:\Users\stapi\AppData\Local\Temp\cckpGNDB.s:21     .text.hostapd_eid_wmm:0000000000000008 .L0 
C:\Users\stapi\AppData\Local\Temp\cckpGNDB.s:22     .text.hostapd_eid_wmm:0000000000000008 .L0 
C:\Users\stapi\AppData\Local\Temp\cckpGNDB.s:23     .text.hostapd_eid_wmm:0000000000000008 .L0 
C:\Users\stapi\AppData\Local\Temp\cckpGNDB.s:24     .text.hostapd_eid_wmm:0000000000000008 .L0 
C:\Users\stapi\AppData\Local\Temp\cckpGNDB.s:26     .text.hostapd_eid_wmm:0000000000000008 .L0 
C:\Users\stapi\AppData\Local\Temp\cckpGNDB.s:27     .text.hostapd_eid_wmm:0000000000000008 .L0 
C:\Users\stapi\AppData\Local\Temp\cckpGNDB.s:28     .text.hostapd_eid_wmm:000000000000000a .L0 
C:\Users\stapi\AppData\Local\Temp\cckpGNDB.s:30     .text.hostapd_eid_wmm:000000000000000a .L0 
C:\Users\stapi\AppData\Local\Temp\cckpGNDB.s:34     .text.hostapd_eid_wmm:000000000000000e .L0 
C:\Users\stapi\AppData\Local\Temp\cckpGNDB.s:35     .text.hostapd_eid_wmm:000000000000000e .L0 
C:\Users\stapi\AppData\Local\Temp\cckpGNDB.s:36     .text.hostapd_eid_wmm:000000000000000e .L0 
C:\Users\stapi\AppData\Local\Temp\cckpGNDB.s:37     .text.hostapd_eid_wmm:000000000000000e .L0 
C:\Users\stapi\AppData\Local\Temp\cckpGNDB.s:45     .text.hostapd_eid_wmm:000000000000001e .L0 
C:\Users\stapi\AppData\Local\Temp\cckpGNDB.s:46     .text.hostapd_eid_wmm:000000000000001e .L0 
C:\Users\stapi\AppData\Local\Temp\cckpGNDB.s:48     .text.hostapd_eid_wmm:0000000000000020 .L0 
C:\Users\stapi\AppData\Local\Temp\cckpGNDB.s:54     .text.hostapd_eid_wmm:0000000000000028 .L0 
C:\Users\stapi\AppData\Local\Temp\cckpGNDB.s:55     .text.hostapd_eid_wmm:0000000000000028 .L0 
C:\Users\stapi\AppData\Local\Temp\cckpGNDB.s:56     .text.hostapd_eid_wmm:0000000000000028 .L0 
C:\Users\stapi\AppData\Local\Temp\cckpGNDB.s:58     .text.hostapd_eid_wmm:000000000000002a .L0 
C:\Users\stapi\AppData\Local\Temp\cckpGNDB.s:60     .text.hostapd_eid_wmm:000000000000002c .L0 
C:\Users\stapi\AppData\Local\Temp\cckpGNDB.s:64     .text.hostapd_eid_wmm:0000000000000036 .L0 
C:\Users\stapi\AppData\Local\Temp\cckpGNDB.s:67     .text.hostapd_eid_wmm:000000000000003a .L0 
C:\Users\stapi\AppData\Local\Temp\cckpGNDB.s:68     .text.hostapd_eid_wmm:000000000000003a .L0 
C:\Users\stapi\AppData\Local\Temp\cckpGNDB.s:72     .text.hostapd_eid_wmm:0000000000000042 .L0 
C:\Users\stapi\AppData\Local\Temp\cckpGNDB.s:73     .text.hostapd_eid_wmm:0000000000000042 .L0 
C:\Users\stapi\AppData\Local\Temp\cckpGNDB.s:76     .text.hostapd_eid_wmm:0000000000000044 .L0 
C:\Users\stapi\AppData\Local\Temp\cckpGNDB.s:79     .text.hostapd_eid_wmm:0000000000000046 .L0 
C:\Users\stapi\AppData\Local\Temp\cckpGNDB.s:84     .text.hostapd_eid_wmm:000000000000004a .L0 
C:\Users\stapi\AppData\Local\Temp\cckpGNDB.s:85     .text.hostapd_eid_wmm:000000000000004a .L0 
C:\Users\stapi\AppData\Local\Temp\cckpGNDB.s:87     .text.hostapd_eid_wmm:000000000000004e .L0 
C:\Users\stapi\AppData\Local\Temp\cckpGNDB.s:91     .text.hostapd_eid_wmm:0000000000000056 .L0 
C:\Users\stapi\AppData\Local\Temp\cckpGNDB.s:92     .text.hostapd_eid_wmm:0000000000000056 .L0 
C:\Users\stapi\AppData\Local\Temp\cckpGNDB.s:94     .text.hostapd_eid_wmm:000000000000005a .L0 
C:\Users\stapi\AppData\Local\Temp\cckpGNDB.s:96     .text.hostapd_eid_wmm:000000000000005e .L0 
C:\Users\stapi\AppData\Local\Temp\cckpGNDB.s:99     .text.hostapd_eid_wmm:0000000000000062 .L0 
C:\Users\stapi\AppData\Local\Temp\cckpGNDB.s:100    .text.hostapd_eid_wmm:0000000000000062 .L0 
C:\Users\stapi\AppData\Local\Temp\cckpGNDB.s:104    .text.hostapd_eid_wmm:0000000000000068 .L0 
C:\Users\stapi\AppData\Local\Temp\cckpGNDB.s:105    .text.hostapd_eid_wmm:0000000000000068 .L0 
C:\Users\stapi\AppData\Local\Temp\cckpGNDB.s:106    .text.hostapd_eid_wmm:0000000000000068 .L0 
C:\Users\stapi\AppData\Local\Temp\cckpGNDB.s:112    .text.hostapd_eid_wmm:000000000000006c .L0 
C:\Users\stapi\AppData\Local\Temp\cckpGNDB.s:113    .text.hostapd_eid_wmm:000000000000006c .L0 
C:\Users\stapi\AppData\Local\Temp\cckpGNDB.s:120    .text.hostapd_eid_wmm:0000000000000070 .L0 
C:\Users\stapi\AppData\Local\Temp\cckpGNDB.s:121    .text.hostapd_eid_wmm:0000000000000070 .L0 
C:\Users\stapi\AppData\Local\Temp\cckpGNDB.s:127    .text.hostapd_eid_wmm:0000000000000082 .L0 
C:\Users\stapi\AppData\Local\Temp\cckpGNDB.s:129    .text.hostapd_eid_wmm:0000000000000084 .L0 
C:\Users\stapi\AppData\Local\Temp\cckpGNDB.s:130    .text.hostapd_eid_wmm:0000000000000084 .L0 
C:\Users\stapi\AppData\Local\Temp\cckpGNDB.s:132    .text.hostapd_eid_wmm:0000000000000086 .L0 
C:\Users\stapi\AppData\Local\Temp\cckpGNDB.s:138    .text.hostapd_eid_wmm:0000000000000098 .L0 
C:\Users\stapi\AppData\Local\Temp\cckpGNDB.s:139    .text.hostapd_eid_wmm:0000000000000098 .L0 
C:\Users\stapi\AppData\Local\Temp\cckpGNDB.s:147    .text.hostapd_eid_wmm:00000000000000a2 .L0 
C:\Users\stapi\AppData\Local\Temp\cckpGNDB.s:148    .text.hostapd_eid_wmm:00000000000000a2 .L0 
C:\Users\stapi\AppData\Local\Temp\cckpGNDB.s:151    .text.hostapd_eid_wmm:00000000000000aa .L0 
C:\Users\stapi\AppData\Local\Temp\cckpGNDB.s:152    .text.hostapd_eid_wmm:00000000000000aa .L0 
C:\Users\stapi\AppData\Local\Temp\cckpGNDB.s:155    .text.hostapd_eid_wmm:00000000000000b2 .L0 
C:\Users\stapi\AppData\Local\Temp\cckpGNDB.s:158    .text.hostapd_eid_wmm:00000000000000b8 .L0 
C:\Users\stapi\AppData\Local\Temp\cckpGNDB.s:161    .text.hostapd_eid_wmm:00000000000000be .L0 
C:\Users\stapi\AppData\Local\Temp\cckpGNDB.s:163    .text.hostapd_eid_wmm:00000000000000c0 .L0 
C:\Users\stapi\AppData\Local\Temp\cckpGNDB.s:165    .text.hostapd_eid_wmm:00000000000000c4 .L0 
C:\Users\stapi\AppData\Local\Temp\cckpGNDB.s:166    .text.hostapd_eid_wmm:00000000000000c4 .L0 
C:\Users\stapi\AppData\Local\Temp\cckpGNDB.s:167    .text.hostapd_eid_wmm:00000000000000c4 .L0 
C:\Users\stapi\AppData\Local\Temp\cckpGNDB.s:168    .text.hostapd_eid_wmm:00000000000000c4 .L0 
C:\Users\stapi\AppData\Local\Temp\cckpGNDB.s:169    .text.hostapd_eid_wmm:00000000000000c4 .L0 
C:\Users\stapi\AppData\Local\Temp\cckpGNDB.s:171    .text.hostapd_eid_wmm:00000000000000c8 .L0 
C:\Users\stapi\AppData\Local\Temp\cckpGNDB.s:172    .text.hostapd_eid_wmm:00000000000000c8 .L0 
C:\Users\stapi\AppData\Local\Temp\cckpGNDB.s:174    .text.hostapd_eid_wmm:00000000000000cc .L0 
C:\Users\stapi\AppData\Local\Temp\cckpGNDB.s:175    .text.hostapd_eid_wmm:00000000000000cc .L0 
C:\Users\stapi\AppData\Local\Temp\cckpGNDB.s:178    .text.hostapd_eid_wmm:00000000000000d2 .L0 
C:\Users\stapi\AppData\Local\Temp\cckpGNDB.s:180    .text.hostapd_eid_wmm:00000000000000d6 .L0 
C:\Users\stapi\AppData\Local\Temp\cckpGNDB.s:181    .text.hostapd_eid_wmm:00000000000000d6 .L0 
C:\Users\stapi\AppData\Local\Temp\cckpGNDB.s:183    .text.hostapd_eid_wmm:00000000000000d8 .L0 
C:\Users\stapi\AppData\Local\Temp\cckpGNDB.s:186    .text.hostapd_eid_wmm:00000000000000de .L0 
C:\Users\stapi\AppData\Local\Temp\cckpGNDB.s:188    .text.hostapd_eid_wmm:00000000000000e0 .L0 
C:\Users\stapi\AppData\Local\Temp\cckpGNDB.s:192    .text.hostapd_eid_wmm:00000000000000ea .L0 
C:\Users\stapi\AppData\Local\Temp\cckpGNDB.s:194    .text.hostapd_eid_wmm:00000000000000ec .L0 
C:\Users\stapi\AppData\Local\Temp\cckpGNDB.s:195    .text.hostapd_eid_wmm:00000000000000ec .L0 
C:\Users\stapi\AppData\Local\Temp\cckpGNDB.s:199    .text.hostapd_eid_wmm:00000000000000f4 .L0 
C:\Users\stapi\AppData\Local\Temp\cckpGNDB.s:200    .text.hostapd_eid_wmm:00000000000000f4 .L0 
C:\Users\stapi\AppData\Local\Temp\cckpGNDB.s:203    .text.hostapd_eid_wmm:00000000000000f8 .L0 
C:\Users\stapi\AppData\Local\Temp\cckpGNDB.s:204    .text.hostapd_eid_wmm:00000000000000f8 .L0 
C:\Users\stapi\AppData\Local\Temp\cckpGNDB.s:207    .text.hostapd_eid_wmm:00000000000000fe .L0 
C:\Users\stapi\AppData\Local\Temp\cckpGNDB.s:209    .text.hostapd_eid_wmm:0000000000000100 .L0 
C:\Users\stapi\AppData\Local\Temp\cckpGNDB.s:214    .text.hostapd_eid_wmm:0000000000000102 .L0 
C:\Users\stapi\AppData\Local\Temp\cckpGNDB.s:215    .text.hostapd_eid_wmm:0000000000000102 .L0 
C:\Users\stapi\AppData\Local\Temp\cckpGNDB.s:218    .text.hostapd_eid_wmm:0000000000000102 .L0 
C:\Users\stapi\AppData\Local\Temp\cckpGNDB.s:219    .text.hostapd_eid_wmm:0000000000000102 .L0 
C:\Users\stapi\AppData\Local\Temp\cckpGNDB.s:220    .text.hostapd_eid_wmm:0000000000000102 .L0 
C:\Users\stapi\AppData\Local\Temp\cckpGNDB.s:221    .text.hostapd_eid_wmm:0000000000000102 .L0 
C:\Users\stapi\AppData\Local\Temp\cckpGNDB.s:223    .text.hostapd_eid_wmm:0000000000000104 .L0 
C:\Users\stapi\AppData\Local\Temp\cckpGNDB.s:225    .text.hostapd_eid_wmm:0000000000000106 .L0 
C:\Users\stapi\AppData\Local\Temp\cckpGNDB.s:228    .text.hostapd_eid_wmm:0000000000000108 .L0 
C:\Users\stapi\AppData\Local\Temp\cckpGNDB.s:229    .text.hostapd_eid_wmm:0000000000000108 .L0 
C:\Users\stapi\AppData\Local\Temp\cckpGNDB.s:231    .text.hostapd_eid_wmm:000000000000010a .L0 
C:\Users\stapi\AppData\Local\Temp\cckpGNDB.s:232    .text.hostapd_eid_wmm:000000000000010a .L0 
C:\Users\stapi\AppData\Local\Temp\cckpGNDB.s:236    .text.hostapd_eid_wmm:000000000000010e .L0 
C:\Users\stapi\AppData\Local\Temp\cckpGNDB.s:237    .text.hostapd_eid_wmm:000000000000010e .L0 
C:\Users\stapi\AppData\Local\Temp\cckpGNDB.s:239    .text.hostapd_eid_wmm:0000000000000112 .L0 
C:\Users\stapi\AppData\Local\Temp\cckpGNDB.s:244    .text.hostapd_eid_wmm:0000000000000114 .L0 
C:\Users\stapi\AppData\Local\Temp\cckpGNDB.s:245    .text.hostapd_eid_wmm:0000000000000114 .L0 
C:\Users\stapi\AppData\Local\Temp\cckpGNDB.s:250    .text.hostapd_eid_wmm:0000000000000118 .L0 
C:\Users\stapi\AppData\Local\Temp\cckpGNDB.s:251    .text.hostapd_eid_wmm:0000000000000118 .L0 
C:\Users\stapi\AppData\Local\Temp\cckpGNDB.s:252    .text.hostapd_eid_wmm:0000000000000118 .L0 
C:\Users\stapi\AppData\Local\Temp\cckpGNDB.s:254    .text.hostapd_eid_wmm:000000000000011a .L0 
C:\Users\stapi\AppData\Local\Temp\cckpGNDB.s:259    .text.hostapd_eid_wmm:000000000000011c .L0 
C:\Users\stapi\AppData\Local\Temp\cckpGNDB.s:264    .text.hostapd_eid_wmm:000000000000011e .L0 
C:\Users\stapi\AppData\Local\Temp\cckpGNDB.s:266    .text.hostapd_eid_wmm:0000000000000120 .L0 
C:\Users\stapi\AppData\Local\Temp\cckpGNDB.s:268    .text.hostapd_eid_wmm:0000000000000122 .L0 
C:\Users\stapi\AppData\Local\Temp\cckpGNDB.s:272    .text.hostapd_eid_wmm:0000000000000124 .L0 
C:\Users\stapi\AppData\Local\Temp\cckpGNDB.s:274    .text.hostapd_eid_wmm:0000000000000128 .L0 
C:\Users\stapi\AppData\Local\Temp\cckpGNDB.s:275    .text.hostapd_eid_wmm:0000000000000128 .L0 
C:\Users\stapi\AppData\Local\Temp\cckpGNDB.s:279    .text.hostapd_eid_wmm:0000000000000130 .L0 
C:\Users\stapi\AppData\Local\Temp\cckpGNDB.s:283    .text.hostapd_eid_wmm:0000000000000132 .L0 
C:\Users\stapi\AppData\Local\Temp\cckpGNDB.s:289    .text.hostapd_eid_wmm:000000000000013c .L0 
C:\Users\stapi\AppData\Local\Temp\cckpGNDB.s:290    .text.hostapd_eid_wmm:000000000000013c .L0 
C:\Users\stapi\AppData\Local\Temp\cckpGNDB.s:291    .text.hostapd_eid_wmm:000000000000013c .L0 
C:\Users\stapi\AppData\Local\Temp\cckpGNDB.s:295    .text.hostapd_eid_wmm:0000000000000142 .L0 
C:\Users\stapi\AppData\Local\Temp\cckpGNDB.s:296    .text.hostapd_eid_wmm:0000000000000142 .L0 
C:\Users\stapi\AppData\Local\Temp\cckpGNDB.s:297    .text.hostapd_eid_wmm:0000000000000142 .L0 
C:\Users\stapi\AppData\Local\Temp\cckpGNDB.s:299    .text.hostapd_eid_wmm:0000000000000144 .L0 
C:\Users\stapi\AppData\Local\Temp\cckpGNDB.s:301    .text.hostapd_eid_wmm:0000000000000148 .L0 
C:\Users\stapi\AppData\Local\Temp\cckpGNDB.s:302    .text.hostapd_eid_wmm:0000000000000148 .L0 
C:\Users\stapi\AppData\Local\Temp\cckpGNDB.s:306    .text.hostapd_eid_wmm:000000000000014a .L0 
C:\Users\stapi\AppData\Local\Temp\cckpGNDB.s:308    .text.hostapd_eid_wmm:000000000000014e .L0 
C:\Users\stapi\AppData\Local\Temp\cckpGNDB.s:309    .text.hostapd_eid_wmm:000000000000014e .L0 
C:\Users\stapi\AppData\Local\Temp\cckpGNDB.s:311    .text.hostapd_eid_wmm:0000000000000156 .L0 
C:\Users\stapi\AppData\Local\Temp\cckpGNDB.s:312    .text.hostapd_eid_wmm:0000000000000156 .L0 
C:\Users\stapi\AppData\Local\Temp\cckpGNDB.s:313    .text.hostapd_eid_wmm:0000000000000156 .L0 
C:\Users\stapi\AppData\Local\Temp\cckpGNDB.s:314    .text.hostapd_eid_wmm:0000000000000156 .L0 
C:\Users\stapi\AppData\Local\Temp\cckpGNDB.s:315    .text.hostapd_eid_wmm:0000000000000156 .L0 
C:\Users\stapi\AppData\Local\Temp\cckpGNDB.s:318    .text.hostapd_eid_wmm:0000000000000156 .L0 
C:\Users\stapi\AppData\Local\Temp\cckpGNDB.s:323    .text.hostapd_eid_wmm:0000000000000156 .L0 
C:\Users\stapi\AppData\Local\Temp\cckpGNDB.s:324    .text.hostapd_eid_wmm:0000000000000156 .L0 
C:\Users\stapi\AppData\Local\Temp\cckpGNDB.s:329    .text.hostapd_eid_wmm:0000000000000158 .L0 
C:\Users\stapi\AppData\Local\Temp\cckpGNDB.s:330    .text.hostapd_eid_wmm:0000000000000158 .L0 
C:\Users\stapi\AppData\Local\Temp\cckpGNDB.s:331    .text.hostapd_eid_wmm:0000000000000158 .L0 
C:\Users\stapi\AppData\Local\Temp\cckpGNDB.s:340    .text.hostapd_eid_wmm:0000000000000166 .L0 
C:\Users\stapi\AppData\Local\Temp\cckpGNDB.s:341    .text.hostapd_eid_wmm:0000000000000166 .L0 
C:\Users\stapi\AppData\Local\Temp\cckpGNDB.s:345    .text.hostapd_eid_wmm:0000000000000170 .L0 
C:\Users\stapi\AppData\Local\Temp\cckpGNDB.s:347    .text.hostapd_eid_wmm:0000000000000172 .L0 
C:\Users\stapi\AppData\Local\Temp\cckpGNDB.s:348    .text.hostapd_eid_wmm:0000000000000172 .L0 
C:\Users\stapi\AppData\Local\Temp\cckpGNDB.s:352    .text.hostapd_eid_wmm:000000000000017c .L0 
C:\Users\stapi\AppData\Local\Temp\cckpGNDB.s:354    .text.hostapd_eid_wmm:000000000000017e .L0 
C:\Users\stapi\AppData\Local\Temp\cckpGNDB.s:355    .text.hostapd_eid_wmm:000000000000017e .L0 
C:\Users\stapi\AppData\Local\Temp\cckpGNDB.s:359    .text.hostapd_eid_wmm:0000000000000188 .L0 
C:\Users\stapi\AppData\Local\Temp\cckpGNDB.s:361    .text.hostapd_eid_wmm:000000000000018a .L0 
C:\Users\stapi\AppData\Local\Temp\cckpGNDB.s:362    .text.hostapd_eid_wmm:000000000000018a .L0 
C:\Users\stapi\AppData\Local\Temp\cckpGNDB.s:365    .text.hostapd_eid_wmm:0000000000000190 .L0 
C:\Users\stapi\AppData\Local\Temp\cckpGNDB.s:367    .text.hostapd_eid_wmm:0000000000000192 .L0 
C:\Users\stapi\AppData\Local\Temp\cckpGNDB.s:369    .text.hostapd_eid_wmm:0000000000000196 .L0 
C:\Users\stapi\AppData\Local\Temp\cckpGNDB.s:371    .text.hostapd_eid_wmm:0000000000000198 .L0 
C:\Users\stapi\AppData\Local\Temp\cckpGNDB.s:372    .text.hostapd_eid_wmm:0000000000000198 .L0 
C:\Users\stapi\AppData\Local\Temp\cckpGNDB.s:374    .text.hostapd_eid_wmm:000000000000019a .L0 
C:\Users\stapi\AppData\Local\Temp\cckpGNDB.s:376    .text.hostapd_eid_wmm:000000000000019c .L0 
C:\Users\stapi\AppData\Local\Temp\cckpGNDB.s:378    .text.hostapd_eid_wmm:000000000000019e .L0 
C:\Users\stapi\AppData\Local\Temp\cckpGNDB.s:379    .text.hostapd_eid_wmm:000000000000019e .L0 
C:\Users\stapi\AppData\Local\Temp\cckpGNDB.s:380    .text.hostapd_eid_wmm:000000000000019e .L0 
C:\Users\stapi\AppData\Local\Temp\cckpGNDB.s:388    .text.hostapd_eid_wmm:00000000000001a6 .L0 
C:\Users\stapi\AppData\Local\Temp\cckpGNDB.s:408    .text.hostapd_eid_wmm_valid:0000000000000000 hostapd_eid_wmm_valid
C:\Users\stapi\AppData\Local\Temp\cckpGNDB.s:411    .text.hostapd_eid_wmm_valid:0000000000000000 .L0 
C:\Users\stapi\AppData\Local\Temp\cckpGNDB.s:413    .text.hostapd_eid_wmm_valid:0000000000000000 .L0 
C:\Users\stapi\AppData\Local\Temp\cckpGNDB.s:414    .text.hostapd_eid_wmm_valid:0000000000000008 .L0 
C:\Users\stapi\AppData\Local\Temp\cckpGNDB.s:415    .text.hostapd_eid_wmm_valid:0000000000000008 .L0 
C:\Users\stapi\AppData\Local\Temp\cckpGNDB.s:416    .text.hostapd_eid_wmm_valid:0000000000000008 .L0 
C:\Users\stapi\AppData\Local\Temp\cckpGNDB.s:417    .text.hostapd_eid_wmm_valid:0000000000000008 .L0 
C:\Users\stapi\AppData\Local\Temp\cckpGNDB.s:419    .text.hostapd_eid_wmm_valid:0000000000000008 .L0 
C:\Users\stapi\AppData\Local\Temp\cckpGNDB.s:420    .text.hostapd_eid_wmm_valid:0000000000000008 .L0 
C:\Users\stapi\AppData\Local\Temp\cckpGNDB.s:422    .text.hostapd_eid_wmm_valid:000000000000000a .L0 
C:\Users\stapi\AppData\Local\Temp\cckpGNDB.s:425    .text.hostapd_eid_wmm_valid:000000000000000e .L0 
C:\Users\stapi\AppData\Local\Temp\cckpGNDB.s:430    .text.hostapd_eid_wmm_valid:0000000000000014 .L0 
C:\Users\stapi\AppData\Local\Temp\cckpGNDB.s:431    .text.hostapd_eid_wmm_valid:0000000000000016 .L0 
C:\Users\stapi\AppData\Local\Temp\cckpGNDB.s:433    .text.hostapd_eid_wmm_valid:0000000000000016 .L0 
C:\Users\stapi\AppData\Local\Temp\cckpGNDB.s:439    .text.hostapd_eid_wmm_valid:0000000000000024 .L0 
C:\Users\stapi\AppData\Local\Temp\cckpGNDB.s:440    .text.hostapd_eid_wmm_valid:0000000000000024 .L0 
C:\Users\stapi\AppData\Local\Temp\cckpGNDB.s:443    .text.hostapd_eid_wmm_valid:000000000000002a .L0 
C:\Users\stapi\AppData\Local\Temp\cckpGNDB.s:451    .text.hostapd_eid_wmm_valid:000000000000003e .L0 
C:\Users\stapi\AppData\Local\Temp\cckpGNDB.s:452    .text.hostapd_eid_wmm_valid:000000000000003e .L0 
C:\Users\stapi\AppData\Local\Temp\cckpGNDB.s:453    .text.hostapd_eid_wmm_valid:000000000000003e .L0 
C:\Users\stapi\AppData\Local\Temp\cckpGNDB.s:456    .text.hostapd_eid_wmm_valid:0000000000000040 .L0 
C:\Users\stapi\AppData\Local\Temp\cckpGNDB.s:457    .text.hostapd_eid_wmm_valid:0000000000000042 .L0 
C:\Users\stapi\AppData\Local\Temp\cckpGNDB.s:458    .text.hostapd_eid_wmm_valid:0000000000000042 .L0 
C:\Users\stapi\AppData\Local\Temp\cckpGNDB.s:460    .text.hostapd_eid_wmm_valid:000000000000004a .L0 
C:\Users\stapi\AppData\Local\Temp\cckpGNDB.s:461    .text.hostapd_eid_wmm_valid:000000000000004a .L0 
C:\Users\stapi\AppData\Local\Temp\cckpGNDB.s:462    .text.hostapd_eid_wmm_valid:000000000000004a .L0 
C:\Users\stapi\AppData\Local\Temp\cckpGNDB.s:463    .text.hostapd_eid_wmm_valid:000000000000004a .L0 
C:\Users\stapi\AppData\Local\Temp\cckpGNDB.s:465    .text.hostapd_eid_wmm_valid:000000000000004a .L0 
C:\Users\stapi\AppData\Local\Temp\cckpGNDB.s:468    .text.hostapd_eid_wmm_valid:000000000000004a .L0 
C:\Users\stapi\AppData\Local\Temp\cckpGNDB.s:469    .text.hostapd_eid_wmm_valid:000000000000004a .L0 
C:\Users\stapi\AppData\Local\Temp\cckpGNDB.s:483    .text.hostapd_eid_wmm_valid:000000000000007a .L0 
C:\Users\stapi\AppData\Local\Temp\cckpGNDB.s:484    .text.hostapd_eid_wmm_valid:000000000000007a .L0 
C:\Users\stapi\AppData\Local\Temp\cckpGNDB.s:487    .text.hostapd_eid_wmm_valid:0000000000000080 .L0 
C:\Users\stapi\AppData\Local\Temp\cckpGNDB.s:489    .text.hostapd_eid_wmm_valid:0000000000000084 .L0 
C:\Users\stapi\AppData\Local\Temp\cckpGNDB.s:491    .text.hostapd_eid_wmm_valid:0000000000000086 .L0 
C:\Users\stapi\AppData\Local\Temp\cckpGNDB.s:494    .text.hostapd_eid_wmm_valid:000000000000008a .L0 
C:\Users\stapi\AppData\Local\Temp\cckpGNDB.s:500    .text.hostapd_eid_wmm_valid:000000000000009e .L0 
C:\Users\stapi\AppData\Local\Temp\cckpGNDB.s:547    .text.wmm_process_tspec:0000000000000000 wmm_process_tspec
C:\Users\stapi\AppData\Local\Temp\cckpGNDB.s:550    .text.wmm_process_tspec:0000000000000000 .L0 
C:\Users\stapi\AppData\Local\Temp\cckpGNDB.s:552    .text.wmm_process_tspec:0000000000000000 .L0 
C:\Users\stapi\AppData\Local\Temp\cckpGNDB.s:553    .text.wmm_process_tspec:0000000000000008 .L0 
C:\Users\stapi\AppData\Local\Temp\cckpGNDB.s:554    .text.wmm_process_tspec:0000000000000008 .L0 
C:\Users\stapi\AppData\Local\Temp\cckpGNDB.s:555    .text.wmm_process_tspec:0000000000000008 .L0 
C:\Users\stapi\AppData\Local\Temp\cckpGNDB.s:556    .text.wmm_process_tspec:0000000000000008 .L0 
C:\Users\stapi\AppData\Local\Temp\cckpGNDB.s:557    .text.wmm_process_tspec:0000000000000008 .L0 
C:\Users\stapi\AppData\Local\Temp\cckpGNDB.s:558    .text.wmm_process_tspec:0000000000000008 .L0 
C:\Users\stapi\AppData\Local\Temp\cckpGNDB.s:560    .text.wmm_process_tspec:0000000000000008 .L0 
C:\Users\stapi\AppData\Local\Temp\cckpGNDB.s:561    .text.wmm_process_tspec:0000000000000008 .L0 
C:\Users\stapi\AppData\Local\Temp\cckpGNDB.s:562    .text.wmm_process_tspec:0000000000000008 .L0 
C:\Users\stapi\AppData\Local\Temp\cckpGNDB.s:563    .text.wmm_process_tspec:0000000000000008 .L0 
C:\Users\stapi\AppData\Local\Temp\cckpGNDB.s:564    .text.wmm_process_tspec:0000000000000008 .L0 
C:\Users\stapi\AppData\Local\Temp\cckpGNDB.s:565    .text.wmm_process_tspec:0000000000000008 .L0 
C:\Users\stapi\AppData\Local\Temp\cckpGNDB.s:568    .text.wmm_process_tspec:000000000000000c .L0 
C:\Users\stapi\AppData\Local\Temp\cckpGNDB.s:569    .text.wmm_process_tspec:000000000000000c .L0 
C:\Users\stapi\AppData\Local\Temp\cckpGNDB.s:570    .text.wmm_process_tspec:000000000000000c .L0 
C:\Users\stapi\AppData\Local\Temp\cckpGNDB.s:573    .text.wmm_process_tspec:0000000000000010 .L0 
C:\Users\stapi\AppData\Local\Temp\cckpGNDB.s:574    .text.wmm_process_tspec:0000000000000010 .L0 
C:\Users\stapi\AppData\Local\Temp\cckpGNDB.s:576    .text.wmm_process_tspec:0000000000000014 .L0 
C:\Users\stapi\AppData\Local\Temp\cckpGNDB.s:578    .text.wmm_process_tspec:0000000000000018 .L0 
C:\Users\stapi\AppData\Local\Temp\cckpGNDB.s:580    .text.wmm_process_tspec:000000000000001c .L0 
C:\Users\stapi\AppData\Local\Temp\cckpGNDB.s:583    .text.wmm_process_tspec:000000000000001e .L0 
C:\Users\stapi\AppData\Local\Temp\cckpGNDB.s:585    .text.wmm_process_tspec:0000000000000020 .L0 
C:\Users\stapi\AppData\Local\Temp\cckpGNDB.s:596    .text.wmm_process_tspec:0000000000000038 .L0 
C:\Users\stapi\AppData\Local\Temp\cckpGNDB.s:597    .text.wmm_process_tspec:0000000000000038 .L0 
C:\Users\stapi\AppData\Local\Temp\cckpGNDB.s:603    .text.wmm_process_tspec:0000000000000044 .L0 
C:\Users\stapi\AppData\Local\Temp\cckpGNDB.s:611    .text.wmm_process_tspec:000000000000005a .L0 
C:\Users\stapi\AppData\Local\Temp\cckpGNDB.s:617    .text.wmm_process_tspec:000000000000006c .L0 
C:\Users\stapi\AppData\Local\Temp\cckpGNDB.s:618    .text.wmm_process_tspec:000000000000006c .L0 
C:\Users\stapi\AppData\Local\Temp\cckpGNDB.s:621    .text.wmm_process_tspec:0000000000000074 .L0 
C:\Users\stapi\AppData\Local\Temp\cckpGNDB.s:623    .text.wmm_process_tspec:0000000000000078 .L0 
C:\Users\stapi\AppData\Local\Temp\cckpGNDB.s:627    .text.wmm_process_tspec:0000000000000080 .L0 
C:\Users\stapi\AppData\Local\Temp\cckpGNDB.s:630    .text.wmm_process_tspec:0000000000000086 .L0 
C:\Users\stapi\AppData\Local\Temp\cckpGNDB.s:634    .text.wmm_process_tspec:000000000000008e .L0 
C:\Users\stapi\AppData\Local\Temp\cckpGNDB.s:636    .text.wmm_process_tspec:0000000000000090 .L0 
C:\Users\stapi\AppData\Local\Temp\cckpGNDB.s:638    .text.wmm_process_tspec:0000000000000092 .L0 
C:\Users\stapi\AppData\Local\Temp\cckpGNDB.s:642    .text.wmm_process_tspec:000000000000009c .L0 
C:\Users\stapi\AppData\Local\Temp\cckpGNDB.s:643    .text.wmm_process_tspec:000000000000009c .L0 
C:\Users\stapi\AppData\Local\Temp\cckpGNDB.s:646    .text.wmm_process_tspec:00000000000000a4 .L0 
C:\Users\stapi\AppData\Local\Temp\cckpGNDB.s:648    .text.wmm_process_tspec:00000000000000a8 .L0 
C:\Users\stapi\AppData\Local\Temp\cckpGNDB.s:652    .text.wmm_process_tspec:00000000000000b0 .L0 
C:\Users\stapi\AppData\Local\Temp\cckpGNDB.s:655    .text.wmm_process_tspec:00000000000000b6 .L0 
C:\Users\stapi\AppData\Local\Temp\cckpGNDB.s:660    .text.wmm_process_tspec:00000000000000c0 .L0 
C:\Users\stapi\AppData\Local\Temp\cckpGNDB.s:664    .text.wmm_process_tspec:00000000000000ca .L0 
C:\Users\stapi\AppData\Local\Temp\cckpGNDB.s:665    .text.wmm_process_tspec:00000000000000ca .L0 
C:\Users\stapi\AppData\Local\Temp\cckpGNDB.s:668    .text.wmm_process_tspec:00000000000000d2 .L0 
C:\Users\stapi\AppData\Local\Temp\cckpGNDB.s:670    .text.wmm_process_tspec:00000000000000d6 .L0 
C:\Users\stapi\AppData\Local\Temp\cckpGNDB.s:674    .text.wmm_process_tspec:00000000000000da .L0 
C:\Users\stapi\AppData\Local\Temp\cckpGNDB.s:675    .text.wmm_process_tspec:00000000000000da .L0 
C:\Users\stapi\AppData\Local\Temp\cckpGNDB.s:677    .text.wmm_process_tspec:00000000000000dc .L0 
C:\Users\stapi\AppData\Local\Temp\cckpGNDB.s:680    .text.wmm_process_tspec:00000000000000e4 .L0 
C:\Users\stapi\AppData\Local\Temp\cckpGNDB.s:689    .text.wmm_process_tspec:00000000000000fa .L0 
C:\Users\stapi\AppData\Local\Temp\cckpGNDB.s:690    .text.wmm_process_tspec:00000000000000fa .L0 
C:\Users\stapi\AppData\Local\Temp\cckpGNDB.s:696    .text.wmm_process_tspec:0000000000000106 .L0 
C:\Users\stapi\AppData\Local\Temp\cckpGNDB.s:697    .text.wmm_process_tspec:0000000000000106 .L0 
C:\Users\stapi\AppData\Local\Temp\cckpGNDB.s:699    .text.wmm_process_tspec:0000000000000108 .L0 
C:\Users\stapi\AppData\Local\Temp\cckpGNDB.s:704    .text.wmm_process_tspec:0000000000000110 .L0 
C:\Users\stapi\AppData\Local\Temp\cckpGNDB.s:708    .text.wmm_process_tspec:000000000000011a .L0 
C:\Users\stapi\AppData\Local\Temp\cckpGNDB.s:709    .text.wmm_process_tspec:000000000000011a .L0 
C:\Users\stapi\AppData\Local\Temp\cckpGNDB.s:712    .text.wmm_process_tspec:000000000000011c .L0 
C:\Users\stapi\AppData\Local\Temp\cckpGNDB.s:713    .text.wmm_process_tspec:0000000000000124 .L0 
C:\Users\stapi\AppData\Local\Temp\cckpGNDB.s:714    .text.wmm_process_tspec:0000000000000124 .L0 
C:\Users\stapi\AppData\Local\Temp\cckpGNDB.s:715    .text.wmm_process_tspec:0000000000000124 .L0 
C:\Users\stapi\AppData\Local\Temp\cckpGNDB.s:716    .text.wmm_process_tspec:0000000000000124 .L0 
C:\Users\stapi\AppData\Local\Temp\cckpGNDB.s:717    .text.wmm_process_tspec:0000000000000124 .L0 
C:\Users\stapi\AppData\Local\Temp\cckpGNDB.s:718    .text.wmm_process_tspec:0000000000000124 .L0 
C:\Users\stapi\AppData\Local\Temp\cckpGNDB.s:719    .text.wmm_process_tspec:0000000000000124 .L0 
C:\Users\stapi\AppData\Local\Temp\cckpGNDB.s:722    .text.wmm_process_tspec:0000000000000124 .L0 
C:\Users\stapi\AppData\Local\Temp\cckpGNDB.s:724    .text.wmm_process_tspec:0000000000000124 .L0 
C:\Users\stapi\AppData\Local\Temp\cckpGNDB.s:730    .text.wmm_process_tspec:000000000000012e .L0 
C:\Users\stapi\AppData\Local\Temp\cckpGNDB.s:731    .text.wmm_process_tspec:000000000000012e .L0 
C:\Users\stapi\AppData\Local\Temp\cckpGNDB.s:734    .text.wmm_process_tspec:0000000000000136 .L0 
C:\Users\stapi\AppData\Local\Temp\cckpGNDB.s:736    .text.wmm_process_tspec:000000000000013a .L0 
C:\Users\stapi\AppData\Local\Temp\cckpGNDB.s:740    .text.wmm_process_tspec:0000000000000142 .L0 
C:\Users\stapi\AppData\Local\Temp\cckpGNDB.s:743    .text.wmm_process_tspec:0000000000000148 .L0 
C:\Users\stapi\AppData\Local\Temp\cckpGNDB.s:749    .text.wmm_process_tspec:0000000000000154 .L0 
C:\Users\stapi\AppData\Local\Temp\cckpGNDB.s:751    .text.wmm_process_tspec:0000000000000156 .L0 
C:\Users\stapi\AppData\Local\Temp\cckpGNDB.s:753    .text.wmm_process_tspec:0000000000000158 .L0 
C:\Users\stapi\AppData\Local\Temp\cckpGNDB.s:755    .text.wmm_process_tspec:000000000000015a .L0 
C:\Users\stapi\AppData\Local\Temp\cckpGNDB.s:758    .text.wmm_process_tspec:000000000000015e .L0 
C:\Users\stapi\AppData\Local\Temp\cckpGNDB.s:763    .text.wmm_process_tspec:0000000000000168 .L0 
C:\Users\stapi\AppData\Local\Temp\cckpGNDB.s:764    .text.wmm_process_tspec:0000000000000168 .L0 
C:\Users\stapi\AppData\Local\Temp\cckpGNDB.s:767    .text.wmm_process_tspec:0000000000000170 .L0 
C:\Users\stapi\AppData\Local\Temp\cckpGNDB.s:769    .text.wmm_process_tspec:0000000000000174 .L0 
C:\Users\stapi\AppData\Local\Temp\cckpGNDB.s:778    .text.wmm_process_tspec:0000000000000188 .L0 
C:\Users\stapi\AppData\Local\Temp\cckpGNDB.s:781    .text.wmm_process_tspec:0000000000000190 .L0 
C:\Users\stapi\AppData\Local\Temp\cckpGNDB.s:787    .text.wmm_process_tspec:000000000000019a .L0 
C:\Users\stapi\AppData\Local\Temp\cckpGNDB.s:788    .text.wmm_process_tspec:000000000000019a .L0 
C:\Users\stapi\AppData\Local\Temp\cckpGNDB.s:789    .text.wmm_process_tspec:000000000000019a .L0 
C:\Users\stapi\AppData\Local\Temp\cckpGNDB.s:795    .text.wmm_process_tspec:00000000000001a6 .L0 
C:\Users\stapi\AppData\Local\Temp\cckpGNDB.s:796    .text.wmm_process_tspec:00000000000001a6 .L0 
C:\Users\stapi\AppData\Local\Temp\cckpGNDB.s:798    .text.wmm_process_tspec:00000000000001aa .L0 
C:\Users\stapi\AppData\Local\Temp\cckpGNDB.s:803    .text.wmm_process_tspec:00000000000001b4 .L0 
C:\Users\stapi\AppData\Local\Temp\cckpGNDB.s:804    .text.wmm_process_tspec:00000000000001b4 .L0 
C:\Users\stapi\AppData\Local\Temp\cckpGNDB.s:808    .text.wmm_process_tspec:00000000000001bc .L0 
C:\Users\stapi\AppData\Local\Temp\cckpGNDB.s:811    .text.wmm_process_tspec:00000000000001c4 .L0 
C:\Users\stapi\AppData\Local\Temp\cckpGNDB.s:813    .text.wmm_process_tspec:00000000000001c6 .L0 
C:\Users\stapi\AppData\Local\Temp\cckpGNDB.s:816    .text.wmm_process_tspec:00000000000001ca .L0 
C:\Users\stapi\AppData\Local\Temp\cckpGNDB.s:818    .text.wmm_process_tspec:00000000000001cc .L0 
C:\Users\stapi\AppData\Local\Temp\cckpGNDB.s:820    .text.wmm_process_tspec:00000000000001ce .L0 
C:\Users\stapi\AppData\Local\Temp\cckpGNDB.s:823    .text.wmm_process_tspec:00000000000001d6 .L0 
C:\Users\stapi\AppData\Local\Temp\cckpGNDB.s:825    .text.wmm_process_tspec:00000000000001da .L0 
C:\Users\stapi\AppData\Local\Temp\cckpGNDB.s:827    .text.wmm_process_tspec:00000000000001de .L0 
C:\Users\stapi\AppData\Local\Temp\cckpGNDB.s:829    .text.wmm_process_tspec:00000000000001e2 .L0 
C:\Users\stapi\AppData\Local\Temp\cckpGNDB.s:834    .text.wmm_process_tspec:00000000000001ec .L0 
C:\Users\stapi\AppData\Local\Temp\cckpGNDB.s:837    .text.wmm_process_tspec:00000000000001f4 .L0 
C:\Users\stapi\AppData\Local\Temp\cckpGNDB.s:841    .text.wmm_process_tspec:00000000000001fe .L0 
C:\Users\stapi\AppData\Local\Temp\cckpGNDB.s:843    .text.wmm_process_tspec:0000000000000200 .L0 
C:\Users\stapi\AppData\Local\Temp\cckpGNDB.s:846    .text.wmm_process_tspec:0000000000000202 .L0 
C:\Users\stapi\AppData\Local\Temp\cckpGNDB.s:847    .text.wmm_process_tspec:0000000000000202 .L0 
C:\Users\stapi\AppData\Local\Temp\cckpGNDB.s:848    .text.wmm_process_tspec:0000000000000202 .L0 
C:\Users\stapi\AppData\Local\Temp\cckpGNDB.s:854    .text.wmm_process_tspec:0000000000000212 .L0 
C:\Users\stapi\AppData\Local\Temp\cckpGNDB.s:860    .text.wmm_process_tspec:0000000000000224 .L0 
C:\Users\stapi\AppData\Local\Temp\cckpGNDB.s:861    .text.wmm_process_tspec:0000000000000224 .L0 
C:\Users\stapi\AppData\Local\Temp\cckpGNDB.s:865    .text.wmm_process_tspec:0000000000000228 .L0 
C:\Users\stapi\AppData\Local\Temp\cckpGNDB.s:866    .text.wmm_process_tspec:0000000000000228 .L0 
C:\Users\stapi\AppData\Local\Temp\cckpGNDB.s:870    .text.wmm_process_tspec:0000000000000232 .L0 
C:\Users\stapi\AppData\Local\Temp\cckpGNDB.s:875    .text.wmm_process_tspec:0000000000000242 .L0 
C:\Users\stapi\AppData\Local\Temp\cckpGNDB.s:876    .text.wmm_process_tspec:0000000000000242 .L0 
C:\Users\stapi\AppData\Local\Temp\cckpGNDB.s:878    .text.wmm_process_tspec:0000000000000246 .L0 
C:\Users\stapi\AppData\Local\Temp\cckpGNDB.s:898    .text.hostapd_wmm_action:0000000000000000 hostapd_wmm_action
C:\Users\stapi\AppData\Local\Temp\cckpGNDB.s:901    .text.hostapd_wmm_action:0000000000000000 .L0 
C:\Users\stapi\AppData\Local\Temp\cckpGNDB.s:903    .text.hostapd_wmm_action:0000000000000000 .L0 
C:\Users\stapi\AppData\Local\Temp\cckpGNDB.s:904    .text.hostapd_wmm_action:0000000000000008 .L0 
C:\Users\stapi\AppData\Local\Temp\cckpGNDB.s:905    .text.hostapd_wmm_action:0000000000000008 .L0 
C:\Users\stapi\AppData\Local\Temp\cckpGNDB.s:906    .text.hostapd_wmm_action:0000000000000008 .L0 
C:\Users\stapi\AppData\Local\Temp\cckpGNDB.s:907    .text.hostapd_wmm_action:0000000000000008 .L0 
C:\Users\stapi\AppData\Local\Temp\cckpGNDB.s:908    .text.hostapd_wmm_action:0000000000000008 .L0 
C:\Users\stapi\AppData\Local\Temp\cckpGNDB.s:909    .text.hostapd_wmm_action:0000000000000008 .L0 
C:\Users\stapi\AppData\Local\Temp\cckpGNDB.s:910    .text.hostapd_wmm_action:0000000000000008 .L0 
C:\Users\stapi\AppData\Local\Temp\cckpGNDB.s:912    .text.hostapd_wmm_action:0000000000000008 .L0 
C:\Users\stapi\AppData\Local\Temp\cckpGNDB.s:913    .text.hostapd_wmm_action:0000000000000008 .L0 
C:\Users\stapi\AppData\Local\Temp\cckpGNDB.s:914    .text.hostapd_wmm_action:0000000000000008 .L0 
C:\Users\stapi\AppData\Local\Temp\cckpGNDB.s:916    .text.hostapd_wmm_action:000000000000000c .L0 
C:\Users\stapi\AppData\Local\Temp\cckpGNDB.s:917    .text.hostapd_wmm_action:0000000000000010 .L0 
C:\Users\stapi\AppData\Local\Temp\cckpGNDB.s:919    .text.hostapd_wmm_action:0000000000000010 .L0 
C:\Users\stapi\AppData\Local\Temp\cckpGNDB.s:921    .text.hostapd_wmm_action:0000000000000012 .L0 
C:\Users\stapi\AppData\Local\Temp\cckpGNDB.s:924    .text.hostapd_wmm_action:0000000000000014 .L0 
C:\Users\stapi\AppData\Local\Temp\cckpGNDB.s:928    .text.hostapd_wmm_action:0000000000000018 .L0 
C:\Users\stapi\AppData\Local\Temp\cckpGNDB.s:929    .text.hostapd_wmm_action:0000000000000018 .L0 
C:\Users\stapi\AppData\Local\Temp\cckpGNDB.s:930    .text.hostapd_wmm_action:0000000000000018 .L0 
C:\Users\stapi\AppData\Local\Temp\cckpGNDB.s:931    .text.hostapd_wmm_action:0000000000000018 .L0 
C:\Users\stapi\AppData\Local\Temp\cckpGNDB.s:934    .text.hostapd_wmm_action:0000000000000020 .L0 
C:\Users\stapi\AppData\Local\Temp\cckpGNDB.s:935    .text.hostapd_wmm_action:0000000000000020 .L0 
C:\Users\stapi\AppData\Local\Temp\cckpGNDB.s:937    .text.hostapd_wmm_action:0000000000000022 .L0 
C:\Users\stapi\AppData\Local\Temp\cckpGNDB.s:939    .text.hostapd_wmm_action:0000000000000024 .L0 
C:\Users\stapi\AppData\Local\Temp\cckpGNDB.s:941    .text.hostapd_wmm_action:0000000000000028 .L0 
C:\Users\stapi\AppData\Local\Temp\cckpGNDB.s:943    .text.hostapd_wmm_action:000000000000002c .L0 
C:\Users\stapi\AppData\Local\Temp\cckpGNDB.s:945    .text.hostapd_wmm_action:0000000000000030 .L0 
C:\Users\stapi\AppData\Local\Temp\cckpGNDB.s:948    .text.hostapd_wmm_action:0000000000000034 .L0 
C:\Users\stapi\AppData\Local\Temp\cckpGNDB.s:949    .text.hostapd_wmm_action:0000000000000034 .L0 
C:\Users\stapi\AppData\Local\Temp\cckpGNDB.s:951    .text.hostapd_wmm_action:0000000000000038 .L0 
C:\Users\stapi\AppData\Local\Temp\cckpGNDB.s:952    .text.hostapd_wmm_action:0000000000000038 .L0 
C:\Users\stapi\AppData\Local\Temp\cckpGNDB.s:959    .text.hostapd_wmm_action:0000000000000048 .L0 
C:\Users\stapi\AppData\Local\Temp\cckpGNDB.s:962    .text.hostapd_wmm_action:000000000000004e .L0 
C:\Users\stapi\AppData\Local\Temp\cckpGNDB.s:963    .text.hostapd_wmm_action:000000000000004e .L0 
C:\Users\stapi\AppData\Local\Temp\cckpGNDB.s:965    .text.hostapd_wmm_action:0000000000000052 .L0 
C:\Users\stapi\AppData\Local\Temp\cckpGNDB.s:967    .text.hostapd_wmm_action:0000000000000056 .L0 
C:\Users\stapi\AppData\Local\Temp\cckpGNDB.s:972    .text.hostapd_wmm_action:0000000000000062 .L0 
C:\Users\stapi\AppData\Local\Temp\cckpGNDB.s:973    .text.hostapd_wmm_action:0000000000000062 .L0 
C:\Users\stapi\AppData\Local\Temp\cckpGNDB.s:980    .text.hostapd_wmm_action:0000000000000068 .L0 
C:\Users\stapi\AppData\Local\Temp\cckpGNDB.s:981    .text.hostapd_wmm_action:0000000000000068 .L0 
C:\Users\stapi\AppData\Local\Temp\cckpGNDB.s:982    .text.hostapd_wmm_action:0000000000000068 .L0 
C:\Users\stapi\AppData\Local\Temp\cckpGNDB.s:983    .text.hostapd_wmm_action:0000000000000068 .L0 
C:\Users\stapi\AppData\Local\Temp\cckpGNDB.s:984    .text.hostapd_wmm_action:0000000000000068 .L0 
C:\Users\stapi\AppData\Local\Temp\cckpGNDB.s:985    .text.hostapd_wmm_action:0000000000000068 .L0 
C:\Users\stapi\AppData\Local\Temp\cckpGNDB.s:988    .text.hostapd_wmm_action:000000000000006a .L0 
C:\Users\stapi\AppData\Local\Temp\cckpGNDB.s:991    .text.hostapd_wmm_action:000000000000006e .L0 
C:\Users\stapi\AppData\Local\Temp\cckpGNDB.s:993    .text.hostapd_wmm_action:0000000000000072 .L0 
C:\Users\stapi\AppData\Local\Temp\cckpGNDB.s:1001   .text.hostapd_wmm_action:000000000000007c .L0 
C:\Users\stapi\AppData\Local\Temp\cckpGNDB.s:1009   .text.hostapd_wmm_action:0000000000000084 .L0 
C:\Users\stapi\AppData\Local\Temp\cckpGNDB.s:1010   .text.hostapd_wmm_action:0000000000000088 .L0 
C:\Users\stapi\AppData\Local\Temp\cckpGNDB.s:1011   .text.hostapd_wmm_action:0000000000000088 .L0 
C:\Users\stapi\AppData\Local\Temp\cckpGNDB.s:1013   .text.hostapd_wmm_action:0000000000000090 .L0 
C:\Users\stapi\AppData\Local\Temp\cckpGNDB.s:1014   .text.hostapd_wmm_action:0000000000000090 .L0 
C:\Users\stapi\AppData\Local\Temp\cckpGNDB.s:1015   .text.hostapd_wmm_action:0000000000000090 .L0 
C:\Users\stapi\AppData\Local\Temp\cckpGNDB.s:1016   .text.hostapd_wmm_action:0000000000000090 .L0 
C:\Users\stapi\AppData\Local\Temp\cckpGNDB.s:1017   .text.hostapd_wmm_action:0000000000000090 .L0 
C:\Users\stapi\AppData\Local\Temp\cckpGNDB.s:1018   .text.hostapd_wmm_action:0000000000000090 .L0 
C:\Users\stapi\AppData\Local\Temp\cckpGNDB.s:1019   .text.hostapd_wmm_action:0000000000000090 .L0 
C:\Users\stapi\AppData\Local\Temp\cckpGNDB.s:1022   .text.hostapd_wmm_action:0000000000000090 .L0 
C:\Users\stapi\AppData\Local\Temp\cckpGNDB.s:1026   .text.hostapd_wmm_action:0000000000000090 .L0 
C:\Users\stapi\AppData\Local\Temp\cckpGNDB.s:1041   .text.hostapd_wmm_action:00000000000000c0 .L0 
C:\Users\stapi\AppData\Local\Temp\cckpGNDB.s:1047   .text.hostapd_wmm_action:00000000000000d2 .L0 
C:\Users\stapi\AppData\Local\Temp\cckpGNDB.s:1048   .text.hostapd_wmm_action:00000000000000d2 .L0 
C:\Users\stapi\AppData\Local\Temp\cckpGNDB.s:1052   .text.hostapd_wmm_action:00000000000000dc .L0 
C:\Users\stapi\AppData\Local\Temp\cckpGNDB.s:1055   .text.hostapd_wmm_action:00000000000000e2 .L0 
C:\Users\stapi\AppData\Local\Temp\cckpGNDB.s:1058   .text.hostapd_wmm_action:00000000000000e4 .L0 
C:\Users\stapi\AppData\Local\Temp\cckpGNDB.s:1065   .text.hostapd_wmm_action:00000000000000f2 .L0 
C:\Users\stapi\AppData\Local\Temp\cckpGNDB.s:1066   .text.hostapd_wmm_action:00000000000000f2 .L0 
C:\Users\stapi\AppData\Local\Temp\cckpGNDB.s:1072   .text.hostapd_wmm_action:00000000000000fa .L0 
C:\Users\stapi\AppData\Local\Temp\cckpGNDB.s:1077   .text.hostapd_wmm_action:00000000000000fe .L0 
C:\Users\stapi\AppData\Local\Temp\cckpGNDB.s:1078   .text.hostapd_wmm_action:00000000000000fe .L0 
C:\Users\stapi\AppData\Local\Temp\cckpGNDB.s:1079   .text.hostapd_wmm_action:00000000000000fe .L0 
C:\Users\stapi\AppData\Local\Temp\cckpGNDB.s:1080   .text.hostapd_wmm_action:00000000000000fe .L0 
C:\Users\stapi\AppData\Local\Temp\cckpGNDB.s:1081   .text.hostapd_wmm_action:00000000000000fe .L0 
C:\Users\stapi\AppData\Local\Temp\cckpGNDB.s:1082   .text.hostapd_wmm_action:00000000000000fe .L0 
C:\Users\stapi\AppData\Local\Temp\cckpGNDB.s:1083   .text.hostapd_wmm_action:00000000000000fe .L0 
C:\Users\stapi\AppData\Local\Temp\cckpGNDB.s:1084   .text.hostapd_wmm_action:00000000000000fe .L0 
C:\Users\stapi\AppData\Local\Temp\cckpGNDB.s:1087   .text.hostapd_wmm_action:0000000000000106 .L0 
C:\Users\stapi\AppData\Local\Temp\cckpGNDB.s:1088   .text.hostapd_wmm_action:0000000000000106 .L0 
C:\Users\stapi\AppData\Local\Temp\cckpGNDB.s:1090   .text.hostapd_wmm_action:000000000000010a .L0 
C:\Users\stapi\AppData\Local\Temp\cckpGNDB.s:1094   .text.hostapd_wmm_action:0000000000000110 .L0 
C:\Users\stapi\AppData\Local\Temp\cckpGNDB.s:1096   .text.hostapd_wmm_action:0000000000000114 .L0 
C:\Users\stapi\AppData\Local\Temp\cckpGNDB.s:1099   .text.hostapd_wmm_action:000000000000011c .L0 
C:\Users\stapi\AppData\Local\Temp\cckpGNDB.s:1100   .text.hostapd_wmm_action:000000000000011c .L0 
C:\Users\stapi\AppData\Local\Temp\cckpGNDB.s:1102   .text.hostapd_wmm_action:0000000000000120 .L0 
C:\Users\stapi\AppData\Local\Temp\cckpGNDB.s:1108   .text.hostapd_wmm_action:0000000000000130 .L0 
C:\Users\stapi\AppData\Local\Temp\cckpGNDB.s:1114   .text.hostapd_wmm_action:000000000000013e .L0 
C:\Users\stapi\AppData\Local\Temp\cckpGNDB.s:1115   .text.hostapd_wmm_action:000000000000013e .L0 
C:\Users\stapi\AppData\Local\Temp\cckpGNDB.s:1116   .text.hostapd_wmm_action:000000000000013e .L0 
C:\Users\stapi\AppData\Local\Temp\cckpGNDB.s:1118   .text.hostapd_wmm_action:0000000000000142 .L0 
C:\Users\stapi\AppData\Local\Temp\cckpGNDB.s:1124   .text.hostapd_wmm_action:000000000000014a .L0 
C:\Users\stapi\AppData\Local\Temp\cckpGNDB.s:1126   .text.hostapd_wmm_action:000000000000014e .L0 
C:\Users\stapi\AppData\Local\Temp\cckpGNDB.s:1127   .text.hostapd_wmm_action:000000000000014e .L0 
C:\Users\stapi\AppData\Local\Temp\cckpGNDB.s:1131   .text.hostapd_wmm_action:0000000000000152 .L0 
C:\Users\stapi\AppData\Local\Temp\cckpGNDB.s:1132   .text.hostapd_wmm_action:0000000000000152 .L0 
C:\Users\stapi\AppData\Local\Temp\cckpGNDB.s:1136   .text.hostapd_wmm_action:0000000000000156 .L0 
C:\Users\stapi\AppData\Local\Temp\cckpGNDB.s:1139   .text.hostapd_wmm_action:000000000000015e .L0 
C:\Users\stapi\AppData\Local\Temp\cckpGNDB.s:1140   .text.hostapd_wmm_action:000000000000015e .L0 
C:\Users\stapi\AppData\Local\Temp\cckpGNDB.s:1141   .text.hostapd_wmm_action:000000000000015e .L0 
C:\Users\stapi\AppData\Local\Temp\cckpGNDB.s:1152   .text.hostapd_wmm_action:0000000000000176 .L0 
C:\Users\stapi\AppData\Local\Temp\cckpGNDB.s:1154   .text.hostapd_wmm_action:000000000000017a .L0 
C:\Users\stapi\AppData\Local\Temp\cckpGNDB.s:1162   .text.hostapd_wmm_action:0000000000000186 .L0 
C:\Users\stapi\AppData\Local\Temp\cckpGNDB.s:391    .text.hostapd_eid_wmm:00000000000001a6 .L0 
C:\Users\stapi\AppData\Local\Temp\cckpGNDB.s:503    .text.hostapd_eid_wmm_valid:000000000000009e .L0 
C:\Users\stapi\AppData\Local\Temp\cckpGNDB.s:881    .text.wmm_process_tspec:0000000000000246 .L0 
C:\Users\stapi\AppData\Local\Temp\cckpGNDB.s:1165   .text.hostapd_wmm_action:0000000000000186 .L0 
                     .debug_frame:0000000000000000 .L0 
C:\Users\stapi\AppData\Local\Temp\cckpGNDB.s:304    .text.hostapd_eid_wmm:000000000000014a .L2
C:\Users\stapi\AppData\Local\Temp\cckpGNDB.s:117    .text.hostapd_eid_wmm:0000000000000070 .L9
C:\Users\stapi\AppData\Local\Temp\cckpGNDB.s:109    .text.hostapd_eid_wmm:000000000000006c .L4
C:\Users\stapi\AppData\Local\Temp\cckpGNDB.s:81     .text.hostapd_eid_wmm:000000000000004a .L3
C:\Users\stapi\AppData\Local\Temp\cckpGNDB.s:317    .text.hostapd_eid_wmm:0000000000000156 .L5
C:\Users\stapi\AppData\Local\Temp\cckpGNDB.s:142    .text.hostapd_eid_wmm:00000000000000a2 .L7
C:\Users\stapi\AppData\Local\Temp\cckpGNDB.s:197    .text.hostapd_eid_wmm:00000000000000f4 .L11
C:\Users\stapi\AppData\Local\Temp\cckpGNDB.s:234    .text.hostapd_eid_wmm:000000000000010e .L13
C:\Users\stapi\AppData\Local\Temp\cckpGNDB.s:211    .text.hostapd_eid_wmm:0000000000000102 .L14
C:\Users\stapi\AppData\Local\Temp\cckpGNDB.s:338    .text.hostapd_eid_wmm:0000000000000166 .L8
C:\Users\stapi\AppData\Local\Temp\cckpGNDB.s:393    .rodata.hostapd_eid_wmm_valid.str1.4:0000000000000000 .LC0
C:\Users\stapi\AppData\Local\Temp\cckpGNDB.s:396    .rodata.hostapd_eid_wmm_valid.str1.4:0000000000000008 .LC1
C:\Users\stapi\AppData\Local\Temp\cckpGNDB.s:399    .rodata.hostapd_eid_wmm_valid.str1.4:0000000000000024 .LC2
C:\Users\stapi\AppData\Local\Temp\cckpGNDB.s:402    .rodata.hostapd_eid_wmm_valid.str1.4:0000000000000084 .LC3
C:\Users\stapi\AppData\Local\Temp\cckpGNDB.s:464    .text.hostapd_eid_wmm_valid:000000000000004a .L34
C:\Users\stapi\AppData\Local\Temp\cckpGNDB.s:492    .text.hostapd_eid_wmm_valid:000000000000008a .L36
C:\Users\stapi\AppData\Local\Temp\cckpGNDB.s:454    .text.hostapd_eid_wmm_valid:0000000000000040 .L33
C:\Users\stapi\AppData\Local\Temp\cckpGNDB.s:450    .text.hostapd_eid_wmm_valid:000000000000003e .L39
C:\Users\stapi\AppData\Local\Temp\cckpGNDB.s:511    .rodata.wmm_process_tspec.str1.4:0000000000000010 .LC6
C:\Users\stapi\AppData\Local\Temp\cckpGNDB.s:508    .rodata.wmm_process_tspec.str1.4:000000000000000c .LC5
C:\Users\stapi\AppData\Local\Temp\cckpGNDB.s:514    .rodata.wmm_process_tspec.str1.4:0000000000000040 .LC7
C:\Users\stapi\AppData\Local\Temp\cckpGNDB.s:517    .rodata.wmm_process_tspec.str1.4:0000000000000060 .LC8
C:\Users\stapi\AppData\Local\Temp\cckpGNDB.s:520    .rodata.wmm_process_tspec.str1.4:000000000000007c .LC9
C:\Users\stapi\AppData\Local\Temp\cckpGNDB.s:523    .rodata.wmm_process_tspec.str1.4:000000000000009c .LC10
C:\Users\stapi\AppData\Local\Temp\cckpGNDB.s:526    .rodata.wmm_process_tspec.str1.4:00000000000000c8 .LC11
C:\Users\stapi\AppData\Local\Temp\cckpGNDB.s:505    .rodata.wmm_process_tspec.str1.4:0000000000000000 .LC4
C:\Users\stapi\AppData\Local\Temp\cckpGNDB.s:529    .rodata.wmm_process_tspec.str1.4:00000000000000ec .LC12
C:\Users\stapi\AppData\Local\Temp\cckpGNDB.s:532    .rodata.wmm_process_tspec.str1.4:000000000000011c .LC13
C:\Users\stapi\AppData\Local\Temp\cckpGNDB.s:535    .rodata.wmm_process_tspec.str1.4:000000000000013c .LC14
C:\Users\stapi\AppData\Local\Temp\cckpGNDB.s:538    .rodata.wmm_process_tspec.str1.4:0000000000000174 .LC15
C:\Users\stapi\AppData\Local\Temp\cckpGNDB.s:541    .rodata.wmm_process_tspec.str1.4:0000000000000194 .LC16
C:\Users\stapi\AppData\Local\Temp\cckpGNDB.s:721    .text.wmm_process_tspec:0000000000000124 .L48
C:\Users\stapi\AppData\Local\Temp\cckpGNDB.s:728    .text.wmm_process_tspec:000000000000012e .L42
C:\Users\stapi\AppData\Local\Temp\cckpGNDB.s:609    .text.wmm_process_tspec:000000000000005a .L41
C:\Users\stapi\AppData\Local\Temp\cckpGNDB.s:784    .text.wmm_process_tspec:000000000000019a .L44
C:\Users\stapi\AppData\Local\Temp\cckpGNDB.s:702    .text.wmm_process_tspec:0000000000000110 .L51
C:\Users\stapi\AppData\Local\Temp\cckpGNDB.s:801    .text.wmm_process_tspec:00000000000001b4 .L45
C:\Users\stapi\AppData\Local\Temp\cckpGNDB.s:852    .text.wmm_process_tspec:0000000000000212 .L49
C:\Users\stapi\AppData\Local\Temp\cckpGNDB.s:863    .text.wmm_process_tspec:0000000000000228 .L46
C:\Users\stapi\AppData\Local\Temp\cckpGNDB.s:710    .text.wmm_process_tspec:000000000000011c .L40
C:\Users\stapi\AppData\Local\Temp\cckpGNDB.s:883    .rodata.hostapd_wmm_action.str1.4:0000000000000000 .LC17
C:\Users\stapi\AppData\Local\Temp\cckpGNDB.s:886    .rodata.hostapd_wmm_action.str1.4:0000000000000028 .LC18
C:\Users\stapi\AppData\Local\Temp\cckpGNDB.s:889    .rodata.hostapd_wmm_action.str1.4:000000000000007c .LC19
C:\Users\stapi\AppData\Local\Temp\cckpGNDB.s:892    .rodata.hostapd_wmm_action.str1.4:00000000000000a0 .LC20
C:\Users\stapi\AppData\Local\Temp\cckpGNDB.s:1003   .text.hostapd_wmm_action:0000000000000084 .L52
C:\Users\stapi\AppData\Local\Temp\cckpGNDB.s:1021   .text.hostapd_wmm_action:0000000000000090 .L55
C:\Users\stapi\AppData\Local\Temp\cckpGNDB.s:997    .text.hostapd_wmm_action:000000000000007c .L66
C:\Users\stapi\AppData\Local\Temp\cckpGNDB.s:19422  .debug_abbrev:0000000000000000 .Ldebug_abbrev0
C:\Users\stapi\AppData\Local\Temp\cckpGNDB.s:23857  .debug_str:000000000000379e .LASF1698
C:\Users\stapi\AppData\Local\Temp\cckpGNDB.s:22473  .debug_str:0000000000000f5d .LASF1699
C:\Users\stapi\AppData\Local\Temp\cckpGNDB.s:25113  .debug_str:0000000000005c72 .LASF1700
C:\Users\stapi\AppData\Local\Temp\cckpGNDB.s:21867  .debug_ranges:0000000000000000 .Ldebug_ranges0
C:\Users\stapi\AppData\Local\Temp\cckpGNDB.s:21927  .debug_line:0000000000000000 .Ldebug_line0
C:\Users\stapi\AppData\Local\Temp\cckpGNDB.s:25321  .debug_str:00000000000062e4 .LASF0
C:\Users\stapi\AppData\Local\Temp\cckpGNDB.s:24761  .debug_str:000000000000520a .LASF1
C:\Users\stapi\AppData\Local\Temp\cckpGNDB.s:22419  .debug_str:0000000000000df5 .LASF2
C:\Users\stapi\AppData\Local\Temp\cckpGNDB.s:23297  .debug_str:00000000000026f0 .LASF3
C:\Users\stapi\AppData\Local\Temp\cckpGNDB.s:24609  .debug_str:0000000000004dc5 .LASF4
C:\Users\stapi\AppData\Local\Temp\cckpGNDB.s:22589  .debug_str:0000000000001325 .LASF5
C:\Users\stapi\AppData\Local\Temp\cckpGNDB.s:23615  .debug_str:0000000000003054 .LASF6
C:\Users\stapi\AppData\Local\Temp\cckpGNDB.s:24177  .debug_str:0000000000004200 .LASF7
C:\Users\stapi\AppData\Local\Temp\cckpGNDB.s:22991  .debug_str:0000000000001e1f .LASF8
C:\Users\stapi\AppData\Local\Temp\cckpGNDB.s:23459  .debug_str:0000000000002c0b .LASF9
C:\Users\stapi\AppData\Local\Temp\cckpGNDB.s:24289  .debug_str:00000000000044e9 .LASF10
C:\Users\stapi\AppData\Local\Temp\cckpGNDB.s:24285  .debug_str:00000000000044d4 .LASF11
C:\Users\stapi\AppData\Local\Temp\cckpGNDB.s:23807  .debug_str:000000000000360e .LASF12
C:\Users\stapi\AppData\Local\Temp\cckpGNDB.s:21975  .debug_str:000000000000014a .LASF13
C:\Users\stapi\AppData\Local\Temp\cckpGNDB.s:21935  .debug_str:0000000000000040 .LASF14
C:\Users\stapi\AppData\Local\Temp\cckpGNDB.s:24683  .debug_str:0000000000004fe1 .LASF15
C:\Users\stapi\AppData\Local\Temp\cckpGNDB.s:24935  .debug_str:0000000000005732 .LASF16
C:\Users\stapi\AppData\Local\Temp\cckpGNDB.s:24703  .debug_str:000000000000507d .LASF17
C:\Users\stapi\AppData\Local\Temp\cckpGNDB.s:23527  .debug_str:0000000000002def .LASF18
C:\Users\stapi\AppData\Local\Temp\cckpGNDB.s:24739  .debug_str:0000000000005173 .LASF19
C:\Users\stapi\AppData\Local\Temp\cckpGNDB.s:25267  .debug_str:000000000000614b .LASF20
C:\Users\stapi\AppData\Local\Temp\cckpGNDB.s:22175  .debug_str:000000000000072d .LASF21
C:\Users\stapi\AppData\Local\Temp\cckpGNDB.s:23033  .debug_str:0000000000001f4e .LASF22
C:\Users\stapi\AppData\Local\Temp\cckpGNDB.s:23223  .debug_str:00000000000024b1 .LASF23
C:\Users\stapi\AppData\Local\Temp\cckpGNDB.s:23091  .debug_str:00000000000020cc .LASF24
C:\Users\stapi\AppData\Local\Temp\cckpGNDB.s:23703  .debug_str:00000000000032df .LASF25
C:\Users\stapi\AppData\Local\Temp\cckpGNDB.s:22759  .debug_str:00000000000017e1 .LASF27
C:\Users\stapi\AppData\Local\Temp\cckpGNDB.s:22357  .debug_str:0000000000000c01 .LASF29
C:\Users\stapi\AppData\Local\Temp\cckpGNDB.s:23219  .debug_str:0000000000002494 .LASF26
C:\Users\stapi\AppData\Local\Temp\cckpGNDB.s:23379  .debug_str:0000000000002979 .LASF28
C:\Users\stapi\AppData\Local\Temp\cckpGNDB.s:24893  .debug_str:00000000000055fe .LASF30
C:\Users\stapi\AppData\Local\Temp\cckpGNDB.s:22955  .debug_str:0000000000001d37 .LASF31
C:\Users\stapi\AppData\Local\Temp\cckpGNDB.s:22389  .debug_str:0000000000000cfe .LASF32
C:\Users\stapi\AppData\Local\Temp\cckpGNDB.s:23021  .debug_str:0000000000001efb .LASF33
C:\Users\stapi\AppData\Local\Temp\cckpGNDB.s:22045  .debug_str:0000000000000372 .LASF34
C:\Users\stapi\AppData\Local\Temp\cckpGNDB.s:22345  .debug_str:0000000000000b9e .LASF35
C:\Users\stapi\AppData\Local\Temp\cckpGNDB.s:24895  .debug_str:0000000000005603 .LASF36
C:\Users\stapi\AppData\Local\Temp\cckpGNDB.s:24891  .debug_str:00000000000055f8 .LASF37
C:\Users\stapi\AppData\Local\Temp\cckpGNDB.s:24151  .debug_str:000000000000414f .LASF38
C:\Users\stapi\AppData\Local\Temp\cckpGNDB.s:23593  .debug_str:0000000000002fb3 .LASF39
C:\Users\stapi\AppData\Local\Temp\cckpGNDB.s:23711  .debug_str:0000000000003327 .LASF40
C:\Users\stapi\AppData\Local\Temp\cckpGNDB.s:23661  .debug_str:00000000000031c5 .LASF41
C:\Users\stapi\AppData\Local\Temp\cckpGNDB.s:23045  .debug_str:0000000000001f8f .LASF42
C:\Users\stapi\AppData\Local\Temp\cckpGNDB.s:24435  .debug_str:00000000000048b6 .LASF43
C:\Users\stapi\AppData\Local\Temp\cckpGNDB.s:25025  .debug_str:00000000000059e1 .LASF159
C:\Users\stapi\AppData\Local\Temp\cckpGNDB.s:22465  .debug_str:0000000000000f22 .LASF44
C:\Users\stapi\AppData\Local\Temp\cckpGNDB.s:24457  .debug_str:000000000000494d .LASF45
C:\Users\stapi\AppData\Local\Temp\cckpGNDB.s:23545  .debug_str:0000000000002e64 .LASF46
C:\Users\stapi\AppData\Local\Temp\cckpGNDB.s:25169  .debug_str:0000000000005e60 .LASF47
C:\Users\stapi\AppData\Local\Temp\cckpGNDB.s:23511  .debug_str:0000000000002d6d .LASF48
C:\Users\stapi\AppData\Local\Temp\cckpGNDB.s:23441  .debug_str:0000000000002b8b .LASF49
C:\Users\stapi\AppData\Local\Temp\cckpGNDB.s:24835  .debug_str:000000000000544a .LASF50
C:\Users\stapi\AppData\Local\Temp\cckpGNDB.s:25097  .debug_str:0000000000005c0c .LASF51
C:\Users\stapi\AppData\Local\Temp\cckpGNDB.s:22151  .debug_str:0000000000000664 .LASF52
C:\Users\stapi\AppData\Local\Temp\cckpGNDB.s:25243  .debug_str:000000000000609c .LASF53
C:\Users\stapi\AppData\Local\Temp\cckpGNDB.s:22047  .debug_str:0000000000000379 .LASF54
C:\Users\stapi\AppData\Local\Temp\cckpGNDB.s:22145  .debug_str:000000000000064b .LASF55
C:\Users\stapi\AppData\Local\Temp\cckpGNDB.s:22219  .debug_str:000000000000083a .LASF56
C:\Users\stapi\AppData\Local\Temp\cckpGNDB.s:23989  .debug_str:0000000000003c9a .LASF57
C:\Users\stapi\AppData\Local\Temp\cckpGNDB.s:23517  .debug_str:0000000000002da1 .LASF58
C:\Users\stapi\AppData\Local\Temp\cckpGNDB.s:24433  .debug_str:00000000000048ab .LASF59
C:\Users\stapi\AppData\Local\Temp\cckpGNDB.s:22865  .debug_str:0000000000001ac0 .LASF60
C:\Users\stapi\AppData\Local\Temp\cckpGNDB.s:22487  .debug_str:000000000000104e .LASF61
C:\Users\stapi\AppData\Local\Temp\cckpGNDB.s:22815  .debug_str:000000000000196d .LASF62
C:\Users\stapi\AppData\Local\Temp\cckpGNDB.s:22701  .debug_str:0000000000001642 .LASF63
C:\Users\stapi\AppData\Local\Temp\cckpGNDB.s:23861  .debug_str:00000000000038a2 .LASF64
C:\Users\stapi\AppData\Local\Temp\cckpGNDB.s:25271  .debug_str:0000000000006166 .LASF65
C:\Users\stapi\AppData\Local\Temp\cckpGNDB.s:23473  .debug_str:0000000000002c6c .LASF66
C:\Users\stapi\AppData\Local\Temp\cckpGNDB.s:22539  .debug_str:00000000000011c0 .LASF67
C:\Users\stapi\AppData\Local\Temp\cckpGNDB.s:24897  .debug_str:0000000000005608 .LASF68
C:\Users\stapi\AppData\Local\Temp\cckpGNDB.s:24013  .debug_str:0000000000003d66 .LASF69
C:\Users\stapi\AppData\Local\Temp\cckpGNDB.s:24631  .debug_str:0000000000004e45 .LASF70
C:\Users\stapi\AppData\Local\Temp\cckpGNDB.s:22215  .debug_str:0000000000000814 .LASF71
C:\Users\stapi\AppData\Local\Temp\cckpGNDB.s:24597  .debug_str:0000000000004d64 .LASF72
C:\Users\stapi\AppData\Local\Temp\cckpGNDB.s:23625  .debug_str:0000000000003095 .LASF73
C:\Users\stapi\AppData\Local\Temp\cckpGNDB.s:23469  .debug_str:0000000000002c57 .LASF74
C:\Users\stapi\AppData\Local\Temp\cckpGNDB.s:23471  .debug_str:0000000000002c63 .LASF75
C:\Users\stapi\AppData\Local\Temp\cckpGNDB.s:23871  .debug_str:00000000000038dc .LASF76
C:\Users\stapi\AppData\Local\Temp\cckpGNDB.s:22649  .debug_str:00000000000014c5 .LASF77
C:\Users\stapi\AppData\Local\Temp\cckpGNDB.s:23237  .debug_str:000000000000251b .LASF78
C:\Users\stapi\AppData\Local\Temp\cckpGNDB.s:25225  .debug_str:0000000000006008 .LASF79
C:\Users\stapi\AppData\Local\Temp\cckpGNDB.s:22089  .debug_str:00000000000004ac .LASF80
C:\Users\stapi\AppData\Local\Temp\cckpGNDB.s:22441  .debug_str:0000000000000e99 .LASF81
C:\Users\stapi\AppData\Local\Temp\cckpGNDB.s:24067  .debug_str:0000000000003ef5 .LASF82
C:\Users\stapi\AppData\Local\Temp\cckpGNDB.s:23389  .debug_str:00000000000029cb .LASF83
C:\Users\stapi\AppData\Local\Temp\cckpGNDB.s:24591  .debug_str:0000000000004d31 .LASF84
C:\Users\stapi\AppData\Local\Temp\cckpGNDB.s:22929  .debug_str:0000000000001c81 .LASF85
C:\Users\stapi\AppData\Local\Temp\cckpGNDB.s:22079  .debug_str:0000000000000470 .LASF86
C:\Users\stapi\AppData\Local\Temp\cckpGNDB.s:24113  .debug_str:000000000000404f .LASF87
C:\Users\stapi\AppData\Local\Temp\cckpGNDB.s:24077  .debug_str:0000000000003f23 .LASF88
C:\Users\stapi\AppData\Local\Temp\cckpGNDB.s:22965  .debug_str:0000000000001d6f .LASF89
C:\Users\stapi\AppData\Local\Temp\cckpGNDB.s:22257  .debug_str:000000000000092c .LASF90
C:\Users\stapi\AppData\Local\Temp\cckpGNDB.s:23331  .debug_str:000000000000280c .LASF91
C:\Users\stapi\AppData\Local\Temp\cckpGNDB.s:24347  .debug_str:0000000000004686 .LASF92
C:\Users\stapi\AppData\Local\Temp\cckpGNDB.s:23675  .debug_str:000000000000321e .LASF93
C:\Users\stapi\AppData\Local\Temp\cckpGNDB.s:24973  .debug_str:0000000000005869 .LASF94
C:\Users\stapi\AppData\Local\Temp\cckpGNDB.s:24863  .debug_str:000000000000550c .LASF95
C:\Users\stapi\AppData\Local\Temp\cckpGNDB.s:23101  .debug_str:000000000000210b .LASF96
C:\Users\stapi\AppData\Local\Temp\cckpGNDB.s:24015  .debug_str:0000000000003d6d .LASF97
C:\Users\stapi\AppData\Local\Temp\cckpGNDB.s:23075  .debug_str:0000000000002066 .LASF98
C:\Users\stapi\AppData\Local\Temp\cckpGNDB.s:24361  .debug_str:00000000000046d1 .LASF99
C:\Users\stapi\AppData\Local\Temp\cckpGNDB.s:24709  .debug_str:00000000000050b0 .LASF100
C:\Users\stapi\AppData\Local\Temp\cckpGNDB.s:23953  .debug_str:0000000000003b90 .LASF101
C:\Users\stapi\AppData\Local\Temp\cckpGNDB.s:25181  .debug_str:0000000000005eb4 .LASF102
C:\Users\stapi\AppData\Local\Temp\cckpGNDB.s:22581  .debug_str:00000000000012f5 .LASF103
C:\Users\stapi\AppData\Local\Temp\cckpGNDB.s:23449  .debug_str:0000000000002bbf .LASF104
C:\Users\stapi\AppData\Local\Temp\cckpGNDB.s:24605  .debug_str:0000000000004da9 .LASF105
C:\Users\stapi\AppData\Local\Temp\cckpGNDB.s:22869  .debug_str:0000000000001ad4 .LASF106
C:\Users\stapi\AppData\Local\Temp\cckpGNDB.s:23601  .debug_str:0000000000002fe7 .LASF107
C:\Users\stapi\AppData\Local\Temp\cckpGNDB.s:23699  .debug_str:00000000000032c8 .LASF108
C:\Users\stapi\AppData\Local\Temp\cckpGNDB.s:21969  .debug_str:0000000000000123 .LASF109
C:\Users\stapi\AppData\Local\Temp\cckpGNDB.s:24279  .debug_str:00000000000044b4 .LASF110
C:\Users\stapi\AppData\Local\Temp\cckpGNDB.s:22485  .debug_str:0000000000001048 .LASF111
C:\Users\stapi\AppData\Local\Temp\cckpGNDB.s:23275  .debug_str:000000000000264b .LASF112
C:\Users\stapi\AppData\Local\Temp\cckpGNDB.s:22437  .debug_str:0000000000000e72 .LASF113
C:\Users\stapi\AppData\Local\Temp\cckpGNDB.s:22525  .debug_str:000000000000115e .LASF114
C:\Users\stapi\AppData\Local\Temp\cckpGNDB.s:24451  .debug_str:000000000000491f .LASF115
C:\Users\stapi\AppData\Local\Temp\cckpGNDB.s:24203  .debug_str:0000000000004299 .LASF116
C:\Users\stapi\AppData\Local\Temp\cckpGNDB.s:22029  .debug_str:00000000000002ed .LASF117
C:\Users\stapi\AppData\Local\Temp\cckpGNDB.s:23363  .debug_str:000000000000290e .LASF118
C:\Users\stapi\AppData\Local\Temp\cckpGNDB.s:25091  .debug_str:0000000000005bd1 .LASF119
C:\Users\stapi\AppData\Local\Temp\cckpGNDB.s:22371  .debug_str:0000000000000c63 .LASF120
C:\Users\stapi\AppData\Local\Temp\cckpGNDB.s:24997  .debug_str:0000000000005926 .LASF121
C:\Users\stapi\AppData\Local\Temp\cckpGNDB.s:24513  .debug_str:0000000000004afb .LASF122
C:\Users\stapi\AppData\Local\Temp\cckpGNDB.s:23537  .debug_str:0000000000002e22 .LASF123
C:\Users\stapi\AppData\Local\Temp\cckpGNDB.s:24601  .debug_str:0000000000004d7e .LASF124
C:\Users\stapi\AppData\Local\Temp\cckpGNDB.s:24931  .debug_str:0000000000005717 .LASF125
C:\Users\stapi\AppData\Local\Temp\cckpGNDB.s:22533  .debug_str:000000000000119b .LASF126
C:\Users\stapi\AppData\Local\Temp\cckpGNDB.s:24621  .debug_str:0000000000004e03 .LASF127
C:\Users\stapi\AppData\Local\Temp\cckpGNDB.s:22225  .debug_str:0000000000000867 .LASF128
C:\Users\stapi\AppData\Local\Temp\cckpGNDB.s:25287  .debug_str:00000000000061c9 .LASF129
C:\Users\stapi\AppData\Local\Temp\cckpGNDB.s:22407  .debug_str:0000000000000d85 .LASF130
C:\Users\stapi\AppData\Local\Temp\cckpGNDB.s:23155  .debug_str:0000000000002293 .LASF131
C:\Users\stapi\AppData\Local\Temp\cckpGNDB.s:23793  .debug_str:00000000000035a5 .LASF132
C:\Users\stapi\AppData\Local\Temp\cckpGNDB.s:23199  .debug_str:0000000000002404 .LASF133
C:\Users\stapi\AppData\Local\Temp\cckpGNDB.s:24089  .debug_str:0000000000003f8b .LASF134
C:\Users\stapi\AppData\Local\Temp\cckpGNDB.s:22007  .debug_str:0000000000000256 .LASF135
C:\Users\stapi\AppData\Local\Temp\cckpGNDB.s:23765  .debug_str:00000000000034bd .LASF136
C:\Users\stapi\AppData\Local\Temp\cckpGNDB.s:23831  .debug_str:00000000000036cf .LASF137
C:\Users\stapi\AppData\Local\Temp\cckpGNDB.s:23533  .debug_str:0000000000002e0f .LASF138
C:\Users\stapi\AppData\Local\Temp\cckpGNDB.s:24847  .debug_str:00000000000054a9 .LASF139
C:\Users\stapi\AppData\Local\Temp\cckpGNDB.s:23227  .debug_str:00000000000024c4 .LASF140
C:\Users\stapi\AppData\Local\Temp\cckpGNDB.s:23437  .debug_str:0000000000002b6e .LASF141
C:\Users\stapi\AppData\Local\Temp\cckpGNDB.s:22663  .debug_str:0000000000001538 .LASF142
C:\Users\stapi\AppData\Local\Temp\cckpGNDB.s:22327  .debug_str:0000000000000b13 .LASF143
C:\Users\stapi\AppData\Local\Temp\cckpGNDB.s:24693  .debug_str:0000000000005036 .LASF144
C:\Users\stapi\AppData\Local\Temp\cckpGNDB.s:24461  .debug_str:000000000000496c .LASF145
C:\Users\stapi\AppData\Local\Temp\cckpGNDB.s:24845  .debug_str:0000000000005490 .LASF146
C:\Users\stapi\AppData\Local\Temp\cckpGNDB.s:24781  .debug_str:0000000000005297 .LASF147
C:\Users\stapi\AppData\Local\Temp\cckpGNDB.s:24007  .debug_str:0000000000003d24 .LASF148
C:\Users\stapi\AppData\Local\Temp\cckpGNDB.s:24949  .debug_str:000000000000578f .LASF149
C:\Users\stapi\AppData\Local\Temp\cckpGNDB.s:23649  .debug_str:0000000000003159 .LASF150
C:\Users\stapi\AppData\Local\Temp\cckpGNDB.s:24527  .debug_str:0000000000004b65 .LASF151
C:\Users\stapi\AppData\Local\Temp\cckpGNDB.s:22735  .debug_str:000000000000174f .LASF152
C:\Users\stapi\AppData\Local\Temp\cckpGNDB.s:24161  .debug_str:0000000000004189 .LASF153
C:\Users\stapi\AppData\Local\Temp\cckpGNDB.s:22247  .debug_str:00000000000008e3 .LASF154
C:\Users\stapi\AppData\Local\Temp\cckpGNDB.s:22703  .debug_str:000000000000164f .LASF155
C:\Users\stapi\AppData\Local\Temp\cckpGNDB.s:24387  .debug_str:0000000000004786 .LASF156
C:\Users\stapi\AppData\Local\Temp\cckpGNDB.s:21999  .debug_str:000000000000020b .LASF157
C:\Users\stapi\AppData\Local\Temp\cckpGNDB.s:22607  .debug_str:000000000000139d .LASF158
C:\Users\stapi\AppData\Local\Temp\cckpGNDB.s:23255  .debug_str:00000000000025b4 .LASF160
C:\Users\stapi\AppData\Local\Temp\cckpGNDB.s:22855  .debug_str:0000000000001a6d .LASF161
C:\Users\stapi\AppData\Local\Temp\cckpGNDB.s:22859  .debug_str:0000000000001a8f .LASF162
C:\Users\stapi\AppData\Local\Temp\cckpGNDB.s:23429  .debug_str:0000000000002b35 .LASF163
C:\Users\stapi\AppData\Local\Temp\cckpGNDB.s:23435  .debug_str:0000000000002b64 .LASF164
C:\Users\stapi\AppData\Local\Temp\cckpGNDB.s:22203  .debug_str:00000000000007e6 .LASF165
C:\Users\stapi\AppData\Local\Temp\cckpGNDB.s:23397  .debug_str:0000000000002a12 .LASF166
C:\Users\stapi\AppData\Local\Temp\cckpGNDB.s:25209  .debug_str:0000000000005f8f .LASF167
C:\Users\stapi\AppData\Local\Temp\cckpGNDB.s:24533  .debug_str:0000000000004b9a .LASF168
C:\Users\stapi\AppData\Local\Temp\cckpGNDB.s:22033  .debug_str:0000000000000315 .LASF169
C:\Users\stapi\AppData\Local\Temp\cckpGNDB.s:23811  .debug_str:000000000000362b .LASF170
C:\Users\stapi\AppData\Local\Temp\cckpGNDB.s:24201  .debug_str:0000000000004293 .LASF171
C:\Users\stapi\AppData\Local\Temp\cckpGNDB.s:23783  .debug_str:000000000000354c .LASF172
C:\Users\stapi\AppData\Local\Temp\cckpGNDB.s:25297  .debug_str:0000000000006221 .LASF173
C:\Users\stapi\AppData\Local\Temp\cckpGNDB.s:25087  .debug_str:0000000000005bae .LASF174
C:\Users\stapi\AppData\Local\Temp\cckpGNDB.s:23315  .debug_str:000000000000277e .LASF175
C:\Users\stapi\AppData\Local\Temp\cckpGNDB.s:22163  .debug_str:00000000000006c3 .LASF176
C:\Users\stapi\AppData\Local\Temp\cckpGNDB.s:23809  .debug_str:0000000000003619 .LASF177
C:\Users\stapi\AppData\Local\Temp\cckpGNDB.s:22881  .debug_str:0000000000001b1a .LASF178
C:\Users\stapi\AppData\Local\Temp\cckpGNDB.s:23867  .debug_str:00000000000038ba .LASF179
C:\Users\stapi\AppData\Local\Temp\cckpGNDB.s:23869  .debug_str:00000000000038cb .LASF180
C:\Users\stapi\AppData\Local\Temp\cckpGNDB.s:25245  .debug_str:00000000000060ad .LASF181
C:\Users\stapi\AppData\Local\Temp\cckpGNDB.s:24425  .debug_str:000000000000487e .LASF182
C:\Users\stapi\AppData\Local\Temp\cckpGNDB.s:23759  .debug_str:0000000000003495 .LASF183
C:\Users\stapi\AppData\Local\Temp\cckpGNDB.s:24713  .debug_str:00000000000050c9 .LASF184
C:\Users\stapi\AppData\Local\Temp\cckpGNDB.s:22761  .debug_str:00000000000017e9 .LASF185
C:\Users\stapi\AppData\Local\Temp\cckpGNDB.s:24293  .debug_str:00000000000044fe .LASF186
C:\Users\stapi\AppData\Local\Temp\cckpGNDB.s:22349  .debug_str:0000000000000bc6 .LASF187
C:\Users\stapi\AppData\Local\Temp\cckpGNDB.s:22847  .debug_str:0000000000001a3d .LASF188
C:\Users\stapi\AppData\Local\Temp\cckpGNDB.s:22157  .debug_str:000000000000068f .LASF189
C:\Users\stapi\AppData\Local\Temp\cckpGNDB.s:24875  .debug_str:000000000000557a .LASF190
C:\Users\stapi\AppData\Local\Temp\cckpGNDB.s:24525  .debug_str:0000000000004b54 .LASF191
C:\Users\stapi\AppData\Local\Temp\cckpGNDB.s:24657  .debug_str:0000000000004f06 .LASF192
C:\Users\stapi\AppData\Local\Temp\cckpGNDB.s:23213  .debug_str:000000000000245c .LASF193
C:\Users\stapi\AppData\Local\Temp\cckpGNDB.s:24773  .debug_str:0000000000005260 .LASF194
C:\Users\stapi\AppData\Local\Temp\cckpGNDB.s:24277  .debug_str:00000000000044a8 .LASF195
C:\Users\stapi\AppData\Local\Temp\cckpGNDB.s:21987  .debug_str:00000000000001b1 .LASF196
C:\Users\stapi\AppData\Local\Temp\cckpGNDB.s:23773  .debug_str:00000000000034f9 .LASF197
C:\Users\stapi\AppData\Local\Temp\cckpGNDB.s:22377  .debug_str:0000000000000c83 .LASF198
C:\Users\stapi\AppData\Local\Temp\cckpGNDB.s:22757  .debug_str:00000000000017d1 .LASF199
C:\Users\stapi\AppData\Local\Temp\cckpGNDB.s:23881  .debug_str:0000000000003943 .LASF200
C:\Users\stapi\AppData\Local\Temp\cckpGNDB.s:23883  .debug_str:000000000000395b .LASF201
C:\Users\stapi\AppData\Local\Temp\cckpGNDB.s:23879  .debug_str:000000000000392b .LASF202
C:\Users\stapi\AppData\Local\Temp\cckpGNDB.s:23923  .debug_str:0000000000003a92 .LASF203
C:\Users\stapi\AppData\Local\Temp\cckpGNDB.s:22155  .debug_str:0000000000000675 .LASF204
C:\Users\stapi\AppData\Local\Temp\cckpGNDB.s:24495  .debug_str:0000000000004a81 .LASF205
C:\Users\stapi\AppData\Local\Temp\cckpGNDB.s:22491  .debug_str:0000000000001060 .LASF206
C:\Users\stapi\AppData\Local\Temp\cckpGNDB.s:23589  .debug_str:0000000000002f9a .LASF207
C:\Users\stapi\AppData\Local\Temp\cckpGNDB.s:22577  .debug_str:00000000000012da .LASF208
C:\Users\stapi\AppData\Local\Temp\cckpGNDB.s:25075  .debug_str:0000000000005b62 .LASF209
C:\Users\stapi\AppData\Local\Temp\cckpGNDB.s:25185  .debug_str:0000000000005ecc .LASF210
C:\Users\stapi\AppData\Local\Temp\cckpGNDB.s:22505  .debug_str:00000000000010c4 .LASF211
C:\Users\stapi\AppData\Local\Temp\cckpGNDB.s:24637  .debug_str:0000000000004e66 .LASF212
C:\Users\stapi\AppData\Local\Temp\cckpGNDB.s:23251  .debug_str:0000000000002593 .LASF213
C:\Users\stapi\AppData\Local\Temp\cckpGNDB.s:24589  .debug_str:0000000000004d21 .LASF214
C:\Users\stapi\AppData\Local\Temp\cckpGNDB.s:23247  .debug_str:000000000000256d .LASF215
C:\Users\stapi\AppData\Local\Temp\cckpGNDB.s:24033  .debug_str:0000000000003dff .LASF216
C:\Users\stapi\AppData\Local\Temp\cckpGNDB.s:23273  .debug_str:0000000000002638 .LASF217
C:\Users\stapi\AppData\Local\Temp\cckpGNDB.s:22907  .debug_str:0000000000001bd0 .LASF218
C:\Users\stapi\AppData\Local\Temp\cckpGNDB.s:22973  .debug_str:0000000000001dac .LASF219
C:\Users\stapi\AppData\Local\Temp\cckpGNDB.s:23093  .debug_str:00000000000020d2 .LASF220
C:\Users\stapi\AppData\Local\Temp\cckpGNDB.s:22927  .debug_str:0000000000001c70 .LASF221
C:\Users\stapi\AppData\Local\Temp\cckpGNDB.s:22405  .debug_str:0000000000000d76 .LASF222
C:\Users\stapi\AppData\Local\Temp\cckpGNDB.s:22321  .debug_str:0000000000000ae5 .LASF223
C:\Users\stapi\AppData\Local\Temp\cckpGNDB.s:24031  .debug_str:0000000000003def .LASF224
C:\Users\stapi\AppData\Local\Temp\cckpGNDB.s:24141  .debug_str:00000000000040fd .LASF225
C:\Users\stapi\AppData\Local\Temp\cckpGNDB.s:22451  .debug_str:0000000000000ecf .LASF226
C:\Users\stapi\AppData\Local\Temp\cckpGNDB.s:24677  .debug_str:0000000000004fb7 .LASF227
C:\Users\stapi\AppData\Local\Temp\cckpGNDB.s:23059  .debug_str:0000000000001fe6 .LASF228
C:\Users\stapi\AppData\Local\Temp\cckpGNDB.s:24937  .debug_str:0000000000005737 .LASF229
C:\Users\stapi\AppData\Local\Temp\cckpGNDB.s:22299  .debug_str:0000000000000a67 .LASF230
C:\Users\stapi\AppData\Local\Temp\cckpGNDB.s:23083  .debug_str:0000000000002095 .LASF231
C:\Users\stapi\AppData\Local\Temp\cckpGNDB.s:23145  .debug_str:0000000000002255 .LASF232
C:\Users\stapi\AppData\Local\Temp\cckpGNDB.s:22305  .debug_str:0000000000000a92 .LASF233
C:\Users\stapi\AppData\Local\Temp\cckpGNDB.s:25189  .debug_str:0000000000005ef2 .LASF234
C:\Users\stapi\AppData\Local\Temp\cckpGNDB.s:23495  .debug_str:0000000000002d02 .LASF235
C:\Users\stapi\AppData\Local\Temp\cckpGNDB.s:24923  .debug_str:00000000000056e1 .LASF236
C:\Users\stapi\AppData\Local\Temp\cckpGNDB.s:22769  .debug_str:0000000000001823 .LASF237
C:\Users\stapi\AppData\Local\Temp\cckpGNDB.s:25029  .debug_str:0000000000005a03 .LASF238
C:\Users\stapi\AppData\Local\Temp\cckpGNDB.s:23233  .debug_str:00000000000024f9 .LASF239
C:\Users\stapi\AppData\Local\Temp\cckpGNDB.s:23919  .debug_str:0000000000003a5e .LASF240
C:\Users\stapi\AppData\Local\Temp\cckpGNDB.s:23311  .debug_str:0000000000002756 .LASF241
C:\Users\stapi\AppData\Local\Temp\cckpGNDB.s:24907  .debug_str:0000000000005659 .LASF242
C:\Users\stapi\AppData\Local\Temp\cckpGNDB.s:23965  .debug_str:0000000000003be0 .LASF243
C:\Users\stapi\AppData\Local\Temp\cckpGNDB.s:22171  .debug_str:000000000000070b .LASF244
C:\Users\stapi\AppData\Local\Temp\cckpGNDB.s:23483  .debug_str:0000000000002ca2 .LASF245
C:\Users\stapi\AppData\Local\Temp\cckpGNDB.s:25295  .debug_str:000000000000620f .LASF246
C:\Users\stapi\AppData\Local\Temp\cckpGNDB.s:23749  .debug_str:000000000000342f .LASF247
C:\Users\stapi\AppData\Local\Temp\cckpGNDB.s:23327  .debug_str:00000000000027db .LASF248
C:\Users\stapi\AppData\Local\Temp\cckpGNDB.s:24641  .debug_str:0000000000004e90 .LASF249
C:\Users\stapi\AppData\Local\Temp\cckpGNDB.s:23249  .debug_str:000000000000257c .LASF250
C:\Users\stapi\AppData\Local\Temp\cckpGNDB.s:24939  .debug_str:0000000000005747 .LASF251
C:\Users\stapi\AppData\Local\Temp\cckpGNDB.s:23011  .debug_str:0000000000001ec3 .LASF252
C:\Users\stapi\AppData\Local\Temp\cckpGNDB.s:23701  .debug_str:00000000000032d7 .LASF253
C:\Users\stapi\AppData\Local\Temp\cckpGNDB.s:22185  .debug_str:000000000000076c .LASF254
C:\Users\stapi\AppData\Local\Temp\cckpGNDB.s:22543  .debug_str:00000000000011d9 .LASF255
C:\Users\stapi\AppData\Local\Temp\cckpGNDB.s:22537  .debug_str:00000000000011ba .LASF256
C:\Users\stapi\AppData\Local\Temp\cckpGNDB.s:24691  .debug_str:000000000000502e .LASF257
C:\Users\stapi\AppData\Local\Temp\cckpGNDB.s:23633  .debug_str:00000000000030da .LASF258
C:\Users\stapi\AppData\Local\Temp\cckpGNDB.s:25131  .debug_str:0000000000005d82 .LASF259
C:\Users\stapi\AppData\Local\Temp\cckpGNDB.s:24383  .debug_str:0000000000004763 .LASF260
C:\Users\stapi\AppData\Local\Temp\cckpGNDB.s:23493  .debug_str:0000000000002cfd .LASF261
C:\Users\stapi\AppData\Local\Temp\cckpGNDB.s:23981  .debug_str:0000000000003c68 .LASF262
C:\Users\stapi\AppData\Local\Temp\cckpGNDB.s:25151  .debug_str:0000000000005def .LASF263
C:\Users\stapi\AppData\Local\Temp\cckpGNDB.s:23673  .debug_str:0000000000003214 .LASF264
C:\Users\stapi\AppData\Local\Temp\cckpGNDB.s:22105  .debug_str:0000000000000528 .LASF265
C:\Users\stapi\AppData\Local\Temp\cckpGNDB.s:23571  .debug_str:0000000000002f1e .LASF266
C:\Users\stapi\AppData\Local\Temp\cckpGNDB.s:22905  .debug_str:0000000000001bc9 .LASF267
C:\Users\stapi\AppData\Local\Temp\cckpGNDB.s:23741  .debug_str:000000000000340e .LASF268
C:\Users\stapi\AppData\Local\Temp\cckpGNDB.s:21939  .debug_str:000000000000005c .LASF269
C:\Users\stapi\AppData\Local\Temp\cckpGNDB.s:23025  .debug_str:0000000000001f19 .LASF270
C:\Users\stapi\AppData\Local\Temp\cckpGNDB.s:22695  .debug_str:000000000000161b .LASF271
C:\Users\stapi\AppData\Local\Temp\cckpGNDB.s:23621  .debug_str:0000000000003078 .LASF272
C:\Users\stapi\AppData\Local\Temp\cckpGNDB.s:25149  .debug_str:0000000000005dea .LASF273
C:\Users\stapi\AppData\Local\Temp\cckpGNDB.s:24225  .debug_str:0000000000004329 .LASF274
C:\Users\stapi\AppData\Local\Temp\cckpGNDB.s:22685  .debug_str:00000000000015d5 .LASF275
C:\Users\stapi\AppData\Local\Temp\cckpGNDB.s:22051  .debug_str:00000000000003a2 .LASF276
C:\Users\stapi\AppData\Local\Temp\cckpGNDB.s:24491  .debug_str:0000000000004a63 .LASF277
C:\Users\stapi\AppData\Local\Temp\cckpGNDB.s:22807  .debug_str:0000000000001937 .LASF278
C:\Users\stapi\AppData\Local\Temp\cckpGNDB.s:23663  .debug_str:00000000000031ce .LASF279
C:\Users\stapi\AppData\Local\Temp\cckpGNDB.s:23529  .debug_str:0000000000002df7 .LASF280
C:\Users\stapi\AppData\Local\Temp\cckpGNDB.s:23819  .debug_str:0000000000003670 .LASF281
C:\Users\stapi\AppData\Local\Temp\cckpGNDB.s:23393  .debug_str:00000000000029e9 .LASF282
C:\Users\stapi\AppData\Local\Temp\cckpGNDB.s:23453  .debug_str:0000000000002be1 .LASF283
C:\Users\stapi\AppData\Local\Temp\cckpGNDB.s:23801  .debug_str:00000000000035e6 .LASF284
C:\Users\stapi\AppData\Local\Temp\cckpGNDB.s:22295  .debug_str:0000000000000a48 .LASF285
C:\Users\stapi\AppData\Local\Temp\cckpGNDB.s:22675  .debug_str:0000000000001595 .LASF286
C:\Users\stapi\AppData\Local\Temp\cckpGNDB.s:24323  .debug_str:00000000000045d7 .LASF287
C:\Users\stapi\AppData\Local\Temp\cckpGNDB.s:23787  .debug_str:0000000000003574 .LASF288
C:\Users\stapi\AppData\Local\Temp\cckpGNDB.s:22307  .debug_str:0000000000000aa1 .LASF289
C:\Users\stapi\AppData\Local\Temp\cckpGNDB.s:24735  .debug_str:0000000000005153 .LASF290
C:\Users\stapi\AppData\Local\Temp\cckpGNDB.s:23541  .debug_str:0000000000002e40 .LASF291
C:\Users\stapi\AppData\Local\Temp\cckpGNDB.s:22797  .debug_str:00000000000018fb .LASF292
C:\Users\stapi\AppData\Local\Temp\cckpGNDB.s:23839  .debug_str:0000000000003704 .LASF293
C:\Users\stapi\AppData\Local\Temp\cckpGNDB.s:22953  .debug_str:0000000000001d32 .LASF294
C:\Users\stapi\AppData\Local\Temp\cckpGNDB.s:22507  .debug_str:00000000000010d5 .LASF295
C:\Users\stapi\AppData\Local\Temp\cckpGNDB.s:22541  .debug_str:00000000000011c9 .LASF296
C:\Users\stapi\AppData\Local\Temp\cckpGNDB.s:22027  .debug_str:00000000000002e1 .LASF297
C:\Users\stapi\AppData\Local\Temp\cckpGNDB.s:24395  .debug_str:00000000000047b7 .LASF298
C:\Users\stapi\AppData\Local\Temp\cckpGNDB.s:22813  .debug_str:0000000000001966 .LASF299
C:\Users\stapi\AppData\Local\Temp\cckpGNDB.s:24763  .debug_str:0000000000005221 .LASF300
C:\Users\stapi\AppData\Local\Temp\cckpGNDB.s:22723  .debug_str:00000000000016cb .LASF301
C:\Users\stapi\AppData\Local\Temp\cckpGNDB.s:24271  .debug_str:000000000000447a .LASF302
C:\Users\stapi\AppData\Local\Temp\cckpGNDB.s:24915  .debug_str:00000000000056a4 .LASF303
C:\Users\stapi\AppData\Local\Temp\cckpGNDB.s:24083  .debug_str:0000000000003f65 .LASF304
C:\Users\stapi\AppData\Local\Temp\cckpGNDB.s:24117  .debug_str:0000000000004062 .LASF305
C:\Users\stapi\AppData\Local\Temp\cckpGNDB.s:23639  .debug_str:00000000000030fa .LASF306
C:\Users\stapi\AppData\Local\Temp\cckpGNDB.s:24889  .debug_str:00000000000055e4 .LASF307
C:\Users\stapi\AppData\Local\Temp\cckpGNDB.s:22901  .debug_str:0000000000001bb3 .LASF308
C:\Users\stapi\AppData\Local\Temp\cckpGNDB.s:24671  .debug_str:0000000000004f7a .LASF309
C:\Users\stapi\AppData\Local\Temp\cckpGNDB.s:22741  .debug_str:0000000000001776 .LASF310
C:\Users\stapi\AppData\Local\Temp\cckpGNDB.s:24489  .debug_str:0000000000004a58 .LASF311
C:\Users\stapi\AppData\Local\Temp\cckpGNDB.s:24297  .debug_str:0000000000004526 .LASF312
C:\Users\stapi\AppData\Local\Temp\cckpGNDB.s:22681  .debug_str:00000000000015c4 .LASF313
C:\Users\stapi\AppData\Local\Temp\cckpGNDB.s:23667  .debug_str:00000000000031e9 .LASF314
C:\Users\stapi\AppData\Local\Temp\cckpGNDB.s:22549  .debug_str:000000000000120c .LASF315
C:\Users\stapi\AppData\Local\Temp\cckpGNDB.s:24333  .debug_str:000000000000462c .LASF316
C:\Users\stapi\AppData\Local\Temp\cckpGNDB.s:23027  .debug_str:0000000000001f23 .LASF317
C:\Users\stapi\AppData\Local\Temp\cckpGNDB.s:22391  .debug_str:0000000000000d03 .LASF318
C:\Users\stapi\AppData\Local\Temp\cckpGNDB.s:24105  .debug_str:0000000000004019 .LASF319
C:\Users\stapi\AppData\Local\Temp\cckpGNDB.s:23061  .debug_str:0000000000001fef .LASF320
C:\Users\stapi\AppData\Local\Temp\cckpGNDB.s:24187  .debug_str:0000000000004242 .LASF321
C:\Users\stapi\AppData\Local\Temp\cckpGNDB.s:22373  .debug_str:0000000000000c6a .LASF322
C:\Users\stapi\AppData\Local\Temp\cckpGNDB.s:24483  .debug_str:0000000000004a26 .LASF323
C:\Users\stapi\AppData\Local\Temp\cckpGNDB.s:22303  .debug_str:0000000000000a89 .LASF324
C:\Users\stapi\AppData\Local\Temp\cckpGNDB.s:22641  .debug_str:000000000000148f .LASF325
C:\Users\stapi\AppData\Local\Temp\cckpGNDB.s:23243  .debug_str:000000000000254c .LASF326
C:\Users\stapi\AppData\Local\Temp\cckpGNDB.s:21953  .debug_str:00000000000000b0 .LASF327
C:\Users\stapi\AppData\Local\Temp\cckpGNDB.s:23127  .debug_str:00000000000021d7 .LASF328
C:\Users\stapi\AppData\Local\Temp\cckpGNDB.s:24291  .debug_str:00000000000044f3 .LASF329
C:\Users\stapi\AppData\Local\Temp\cckpGNDB.s:24565  .debug_str:0000000000004c7b .LASF330
C:\Users\stapi\AppData\Local\Temp\cckpGNDB.s:24795  .debug_str:000000000000530a .LASF331
C:\Users\stapi\AppData\Local\Temp\cckpGNDB.s:22355  .debug_str:0000000000000bf3 .LASF332
C:\Users\stapi\AppData\Local\Temp\cckpGNDB.s:22885  .debug_str:0000000000001b3d .LASF333
C:\Users\stapi\AppData\Local\Temp\cckpGNDB.s:22897  .debug_str:0000000000001b88 .LASF334
C:\Users\stapi\AppData\Local\Temp\cckpGNDB.s:24963  .debug_str:0000000000005811 .LASF335
C:\Users\stapi\AppData\Local\Temp\cckpGNDB.s:23971  .debug_str:0000000000003c1b .LASF336
C:\Users\stapi\AppData\Local\Temp\cckpGNDB.s:24093  .debug_str:0000000000003fb8 .LASF337
C:\Users\stapi\AppData\Local\Temp\cckpGNDB.s:25061  .debug_str:0000000000005aff .LASF338
C:\Users\stapi\AppData\Local\Temp\cckpGNDB.s:25215  .debug_str:0000000000005fb9 .LASF339
C:\Users\stapi\AppData\Local\Temp\cckpGNDB.s:22107  .debug_str:0000000000000531 .LASF340
C:\Users\stapi\AppData\Local\Temp\cckpGNDB.s:23417  .debug_str:0000000000002acb .LASF341
C:\Users\stapi\AppData\Local\Temp\cckpGNDB.s:23591  .debug_str:0000000000002fab .LASF342
C:\Users\stapi\AppData\Local\Temp\cckpGNDB.s:22811  .debug_str:000000000000195e .LASF343
C:\Users\stapi\AppData\Local\Temp\cckpGNDB.s:24537  .debug_str:0000000000004bb4 .LASF344
C:\Users\stapi\AppData\Local\Temp\cckpGNDB.s:23841  .debug_str:0000000000003709 .LASF345
C:\Users\stapi\AppData\Local\Temp\cckpGNDB.s:25065  .debug_str:0000000000005b14 .LASF346
C:\Users\stapi\AppData\Local\Temp\cckpGNDB.s:22997  .debug_str:0000000000001e4f .LASF347
C:\Users\stapi\AppData\Local\Temp\cckpGNDB.s:23905  .debug_str:00000000000039f8 .LASF348
C:\Users\stapi\AppData\Local\Temp\cckpGNDB.s:22915  .debug_str:0000000000001c1d .LASF349
C:\Users\stapi\AppData\Local\Temp\cckpGNDB.s:23877  .debug_str:0000000000003923 .LASF350
C:\Users\stapi\AppData\Local\Temp\cckpGNDB.s:21985  .debug_str:00000000000001a8 .LASF351
C:\Users\stapi\AppData\Local\Temp\cckpGNDB.s:25049  .debug_str:0000000000005aad .LASF352
C:\Users\stapi\AppData\Local\Temp\cckpGNDB.s:24975  .debug_str:0000000000005878 .LASF353
C:\Users\stapi\AppData\Local\Temp\cckpGNDB.s:23337  .debug_str:0000000000002835 .LASF354
C:\Users\stapi\AppData\Local\Temp\cckpGNDB.s:24971  .debug_str:0000000000005859 .LASF355
C:\Users\stapi\AppData\Local\Temp\cckpGNDB.s:22361  .debug_str:0000000000000c15 .LASF356
C:\Users\stapi\AppData\Local\Temp\cckpGNDB.s:24035  .debug_str:0000000000003e0a .LASF357
C:\Users\stapi\AppData\Local\Temp\cckpGNDB.s:22227  .debug_str:000000000000087b .LASF358
C:\Users\stapi\AppData\Local\Temp\cckpGNDB.s:24995  .debug_str:0000000000005912 .LASF359
C:\Users\stapi\AppData\Local\Temp\cckpGNDB.s:23001  .debug_str:0000000000001e69 .LASF360
C:\Users\stapi\AppData\Local\Temp\cckpGNDB.s:23631  .debug_str:00000000000030cd .LASF361
C:\Users\stapi\AppData\Local\Temp\cckpGNDB.s:23847  .debug_str:000000000000373f .LASF362
C:\Users\stapi\AppData\Local\Temp\cckpGNDB.s:22843  .debug_str:0000000000001a1b .LASF363
C:\Users\stapi\AppData\Local\Temp\cckpGNDB.s:24775  .debug_str:0000000000005275 .LASF364
C:\Users\stapi\AppData\Local\Temp\cckpGNDB.s:23119  .debug_str:000000000000219b .LASF365
C:\Users\stapi\AppData\Local\Temp\cckpGNDB.s:24965  .debug_str:000000000000581a .LASF366
C:\Users\stapi\AppData\Local\Temp\cckpGNDB.s:23915  .debug_str:0000000000003a3e .LASF367
C:\Users\stapi\AppData\Local\Temp\cckpGNDB.s:22287  .debug_str:0000000000000a0d .LASF368
C:\Users\stapi\AppData\Local\Temp\cckpGNDB.s:23137  .debug_str:000000000000221f .LASF369
C:\Users\stapi\AppData\Local\Temp\cckpGNDB.s:24619  .debug_str:0000000000004dfb .LASF370
C:\Users\stapi\AppData\Local\Temp\cckpGNDB.s:25255  .debug_str:00000000000060fb .LASF371
C:\Users\stapi\AppData\Local\Temp\cckpGNDB.s:22297  .debug_str:0000000000000a53 .LASF372
C:\Users\stapi\AppData\Local\Temp\cckpGNDB.s:22853  .debug_str:0000000000001a5c .LASF373
C:\Users\stapi\AppData\Local\Temp\cckpGNDB.s:23201  .debug_str:000000000000240d .LASF374
C:\Users\stapi\AppData\Local\Temp\cckpGNDB.s:22917  .debug_str:0000000000001c26 .LASF375
C:\Users\stapi\AppData\Local\Temp\cckpGNDB.s:23705  .debug_str:00000000000032e9 .LASF376
C:\Users\stapi\AppData\Local\Temp\cckpGNDB.s:22023  .debug_str:00000000000002ce .LASF377
C:\Users\stapi\AppData\Local\Temp\cckpGNDB.s:25163  .debug_str:0000000000005e42 .LASF378
C:\Users\stapi\AppData\Local\Temp\cckpGNDB.s:23829  .debug_str:00000000000036c7 .LASF379
C:\Users\stapi\AppData\Local\Temp\cckpGNDB.s:25193  .debug_str:0000000000005f20 .LASF380
C:\Users\stapi\AppData\Local\Temp\cckpGNDB.s:24441  .debug_str:00000000000048eb .LASF381
C:\Users\stapi\AppData\Local\Temp\cckpGNDB.s:23217  .debug_str:000000000000247e .LASF382
C:\Users\stapi\AppData\Local\Temp\cckpGNDB.s:25011  .debug_str:0000000000005980 .LASF383
C:\Users\stapi\AppData\Local\Temp\cckpGNDB.s:24779  .debug_str:0000000000005291 .LASF384
C:\Users\stapi\AppData\Local\Temp\cckpGNDB.s:22039  .debug_str:000000000000034c .LASF385
C:\Users\stapi\AppData\Local\Temp\cckpGNDB.s:22935  .debug_str:0000000000001ca6 .LASF386
C:\Users\stapi\AppData\Local\Temp\cckpGNDB.s:22857  .debug_str:0000000000001a77 .LASF387
C:\Users\stapi\AppData\Local\Temp\cckpGNDB.s:22401  .debug_str:0000000000000d62 .LASF388
C:\Users\stapi\AppData\Local\Temp\cckpGNDB.s:24721  .debug_str:00000000000050f6 .LASF389
C:\Users\stapi\AppData\Local\Temp\cckpGNDB.s:23055  .debug_str:0000000000001fd1 .LASF390
C:\Users\stapi\AppData\Local\Temp\cckpGNDB.s:24423  .debug_str:0000000000004879 .LASF391
C:\Users\stapi\AppData\Local\Temp\cckpGNDB.s:24149  .debug_str:0000000000004147 .LASF392
C:\Users\stapi\AppData\Local\Temp\cckpGNDB.s:23063  .debug_str:0000000000002000 .LASF393
C:\Users\stapi\AppData\Local\Temp\cckpGNDB.s:25325  .debug_str:0000000000006304 .LASF394
C:\Users\stapi\AppData\Local\Temp\cckpGNDB.s:24169  .debug_str:00000000000041d0 .LASF395
C:\Users\stapi\AppData\Local\Temp\cckpGNDB.s:23231  .debug_str:00000000000024e8 .LASF396
C:\Users\stapi\AppData\Local\Temp\cckpGNDB.s:24409  .debug_str:0000000000004813 .LASF397
C:\Users\stapi\AppData\Local\Temp\cckpGNDB.s:22199  .debug_str:00000000000007d8 .LASF398
C:\Users\stapi\AppData\Local\Temp\cckpGNDB.s:22201  .debug_str:00000000000007df .LASF399
C:\Users\stapi\AppData\Local\Temp\cckpGNDB.s:22339  .debug_str:0000000000000b85 .LASF400
C:\Users\stapi\AppData\Local\Temp\cckpGNDB.s:25195  .debug_str:0000000000005f2d .LASF401
C:\Users\stapi\AppData\Local\Temp\cckpGNDB.s:22205  .debug_str:00000000000007f1 .LASF402
C:\Users\stapi\AppData\Local\Temp\cckpGNDB.s:22207  .debug_str:00000000000007f8 .LASF403
C:\Users\stapi\AppData\Local\Temp\cckpGNDB.s:22209  .debug_str:00000000000007ff .LASF404
C:\Users\stapi\AppData\Local\Temp\cckpGNDB.s:22211  .debug_str:0000000000000806 .LASF405
C:\Users\stapi\AppData\Local\Temp\cckpGNDB.s:22213  .debug_str:000000000000080d .LASF406
C:\Users\stapi\AppData\Local\Temp\cckpGNDB.s:23553  .debug_str:0000000000002e9a .LASF407
C:\Users\stapi\AppData\Local\Temp\cckpGNDB.s:23147  .debug_str:0000000000002261 .LASF408
C:\Users\stapi\AppData\Local\Temp\cckpGNDB.s:25119  .debug_str:0000000000005d20 .LASF409
C:\Users\stapi\AppData\Local\Temp\cckpGNDB.s:22277  .debug_str:00000000000009d2 .LASF410
C:\Users\stapi\AppData\Local\Temp\cckpGNDB.s:24011  .debug_str:0000000000003d4d .LASF411
C:\Users\stapi\AppData\Local\Temp\cckpGNDB.s:22569  .debug_str:00000000000012a5 .LASF412
C:\Users\stapi\AppData\Local\Temp\cckpGNDB.s:24865  .debug_str:000000000000551e .LASF413
C:\Users\stapi\AppData\Local\Temp\cckpGNDB.s:22867  .debug_str:0000000000001aca .LASF414
C:\Users\stapi\AppData\Local\Temp\cckpGNDB.s:23799  .debug_str:00000000000035dc .LASF415
C:\Users\stapi\AppData\Local\Temp\cckpGNDB.s:23891  .debug_str:0000000000003993 .LASF416
C:\Users\stapi\AppData\Local\Temp\cckpGNDB.s:22255  .debug_str:0000000000000924 .LASF417
C:\Users\stapi\AppData\Local\Temp\cckpGNDB.s:23279  .debug_str:000000000000266e .LASF418
C:\Users\stapi\AppData\Local\Temp\cckpGNDB.s:25145  .debug_str:0000000000005dd3 .LASF419
C:\Users\stapi\AppData\Local\Temp\cckpGNDB.s:23983  .debug_str:0000000000003c73 .LASF420
C:\Users\stapi\AppData\Local\Temp\cckpGNDB.s:22141  .debug_str:0000000000000632 .LASF421
C:\Users\stapi\AppData\Local\Temp\cckpGNDB.s:22289  .debug_str:0000000000000a22 .LASF422
C:\Users\stapi\AppData\Local\Temp\cckpGNDB.s:22439  .debug_str:0000000000000e8c .LASF423
C:\Users\stapi\AppData\Local\Temp\cckpGNDB.s:22593  .debug_str:0000000000001338 .LASF424
C:\Users\stapi\AppData\Local\Temp\cckpGNDB.s:25183  .debug_str:0000000000005ebf .LASF425
C:\Users\stapi\AppData\Local\Temp\cckpGNDB.s:22071  .debug_str:0000000000000425 .LASF426
C:\Users\stapi\AppData\Local\Temp\cckpGNDB.s:24765  .debug_str:000000000000522c .LASF427
C:\Users\stapi\AppData\Local\Temp\cckpGNDB.s:25171  .debug_str:0000000000005e75 .LASF428
C:\Users\stapi\AppData\Local\Temp\cckpGNDB.s:23117  .debug_str:0000000000002189 .LASF429
C:\Users\stapi\AppData\Local\Temp\cckpGNDB.s:22987  .debug_str:0000000000001e08 .LASF430
C:\Users\stapi\AppData\Local\Temp\cckpGNDB.s:22063  .debug_str:00000000000003f1 .LASF431
C:\Users\stapi\AppData\Local\Temp\cckpGNDB.s:25237  .debug_str:000000000000606b .LASF432
C:\Users\stapi\AppData\Local\Temp\cckpGNDB.s:22679  .debug_str:00000000000015b6 .LASF433
C:\Users\stapi\AppData\Local\Temp\cckpGNDB.s:25077  .debug_str:0000000000005b71 .LASF434
C:\Users\stapi\AppData\Local\Temp\cckpGNDB.s:21951  .debug_str:00000000000000a0 .LASF435
C:\Users\stapi\AppData\Local\Temp\cckpGNDB.s:22625  .debug_str:0000000000001417 .LASF436
C:\Users\stapi\AppData\Local\Temp\cckpGNDB.s:22517  .debug_str:0000000000001128 .LASF437
C:\Users\stapi\AppData\Local\Temp\cckpGNDB.s:23129  .debug_str:00000000000021e2 .LASF438
C:\Users\stapi\AppData\Local\Temp\cckpGNDB.s:24579  .debug_str:0000000000004cca .LASF439
C:\Users\stapi\AppData\Local\Temp\cckpGNDB.s:21929  .debug_str:0000000000000000 .LASF440
C:\Users\stapi\AppData\Local\Temp\cckpGNDB.s:25265  .debug_str:0000000000006144 .LASF441
C:\Users\stapi\AppData\Local\Temp\cckpGNDB.s:21995  .debug_str:00000000000001f3 .LASF442
C:\Users\stapi\AppData\Local\Temp\cckpGNDB.s:25039  .debug_str:0000000000005a6a .LASF443
C:\Users\stapi\AppData\Local\Temp\cckpGNDB.s:23085  .debug_str:00000000000020a1 .LASF444
C:\Users\stapi\AppData\Local\Temp\cckpGNDB.s:23419  .debug_str:0000000000002ada .LASF445
C:\Users\stapi\AppData\Local\Temp\cckpGNDB.s:22455  .debug_str:0000000000000ef4 .LASF446
C:\Users\stapi\AppData\Local\Temp\cckpGNDB.s:23813  .debug_str:0000000000003646 .LASF447
C:\Users\stapi\AppData\Local\Temp\cckpGNDB.s:22739  .debug_str:0000000000001769 .LASF448
C:\Users\stapi\AppData\Local\Temp\cckpGNDB.s:25207  .debug_str:0000000000005f82 .LASF449
C:\Users\stapi\AppData\Local\Temp\cckpGNDB.s:24397  .debug_str:00000000000047c2 .LASF450
C:\Users\stapi\AppData\Local\Temp\cckpGNDB.s:22699  .debug_str:0000000000001632 .LASF451
C:\Users\stapi\AppData\Local\Temp\cckpGNDB.s:24815  .debug_str:00000000000053b7 .LASF452
C:\Users\stapi\AppData\Local\Temp\cckpGNDB.s:25205  .debug_str:0000000000005f76 .LASF453
C:\Users\stapi\AppData\Local\Temp\cckpGNDB.s:25005  .debug_str:0000000000005952 .LASF454
C:\Users\stapi\AppData\Local\Temp\cckpGNDB.s:23991  .debug_str:0000000000003ca5 .LASF455
C:\Users\stapi\AppData\Local\Temp\cckpGNDB.s:24509  .debug_str:0000000000004ae5 .LASF456
C:\Users\stapi\AppData\Local\Temp\cckpGNDB.s:24385  .debug_str:0000000000004774 .LASF457
C:\Users\stapi\AppData\Local\Temp\cckpGNDB.s:24231  .debug_str:0000000000004345 .LASF458
C:\Users\stapi\AppData\Local\Temp\cckpGNDB.s:23081  .debug_str:000000000000208d .LASF459
C:\Users\stapi\AppData\Local\Temp\cckpGNDB.s:22743  .debug_str:000000000000177e .LASF460
C:\Users\stapi\AppData\Local\Temp\cckpGNDB.s:23187  .debug_str:00000000000023a7 .LASF461
C:\Users\stapi\AppData\Local\Temp\cckpGNDB.s:24431  .debug_str:00000000000048a4 .LASF462
C:\Users\stapi\AppData\Local\Temp\cckpGNDB.s:24957  .debug_str:00000000000057d8 .LASF463
C:\Users\stapi\AppData\Local\Temp\cckpGNDB.s:24193  .debug_str:0000000000004263 .LASF464
C:\Users\stapi\AppData\Local\Temp\cckpGNDB.s:22435  .debug_str:0000000000000e61 .LASF465
C:\Users\stapi\AppData\Local\Temp\cckpGNDB.s:23513  .debug_str:0000000000002d83 .LASF466
C:\Users\stapi\AppData\Local\Temp\cckpGNDB.s:23177  .debug_str:0000000000002348 .LASF467
C:\Users\stapi\AppData\Local\Temp\cckpGNDB.s:24767  .debug_str:0000000000005239 .LASF468
C:\Users\stapi\AppData\Local\Temp\cckpGNDB.s:24197  .debug_str:000000000000427c .LASF469
C:\Users\stapi\AppData\Local\Temp\cckpGNDB.s:23721  .debug_str:0000000000003383 .LASF470
C:\Users\stapi\AppData\Local\Temp\cckpGNDB.s:22887  .debug_str:0000000000001b48 .LASF471
C:\Users\stapi\AppData\Local\Temp\cckpGNDB.s:23109  .debug_str:0000000000002134 .LASF472
C:\Users\stapi\AppData\Local\Temp\cckpGNDB.s:22191  .debug_str:0000000000000796 .LASF473
C:\Users\stapi\AppData\Local\Temp\cckpGNDB.s:23653  .debug_str:0000000000003179 .LASF474
C:\Users\stapi\AppData\Local\Temp\cckpGNDB.s:24595  .debug_str:0000000000004d51 .LASF475
C:\Users\stapi\AppData\Local\Temp\cckpGNDB.s:25323  .debug_str:00000000000062f1 .LASF476
C:\Users\stapi\AppData\Local\Temp\cckpGNDB.s:24043  .debug_str:0000000000003e32 .LASF477
C:\Users\stapi\AppData\Local\Temp\cckpGNDB.s:22639  .debug_str:000000000000147c .LASF478
C:\Users\stapi\AppData\Local\Temp\cckpGNDB.s:21973  .debug_str:0000000000000139 .LASF479
C:\Users\stapi\AppData\Local\Temp\cckpGNDB.s:23911  .debug_str:0000000000003a1b .LASF480
C:\Users\stapi\AppData\Local\Temp\cckpGNDB.s:25257  .debug_str:0000000000006108 .LASF481
C:\Users\stapi\AppData\Local\Temp\cckpGNDB.s:23921  .debug_str:0000000000003a78 .LASF482
C:\Users\stapi\AppData\Local\Temp\cckpGNDB.s:22021  .debug_str:00000000000002b8 .LASF483
C:\Users\stapi\AppData\Local\Temp\cckpGNDB.s:23115  .debug_str:0000000000002168 .LASF484
C:\Users\stapi\AppData\Local\Temp\cckpGNDB.s:24047  .debug_str:0000000000003e57 .LASF485
C:\Users\stapi\AppData\Local\Temp\cckpGNDB.s:22009  .debug_str:000000000000025e .LASF486
C:\Users\stapi\AppData\Local\Temp\cckpGNDB.s:24351  .debug_str:00000000000046a2 .LASF487
C:\Users\stapi\AppData\Local\Temp\cckpGNDB.s:23637  .debug_str:00000000000030eb .LASF488
C:\Users\stapi\AppData\Local\Temp\cckpGNDB.s:23657  .debug_str:000000000000319f .LASF489
C:\Users\stapi\AppData\Local\Temp\cckpGNDB.s:22291  .debug_str:0000000000000a2e .LASF490
C:\Users\stapi\AppData\Local\Temp\cckpGNDB.s:22871  .debug_str:0000000000001adb .LASF491
C:\Users\stapi\AppData\Local\Temp\cckpGNDB.s:22311  .debug_str:0000000000000ab5 .LASF492
C:\Users\stapi\AppData\Local\Temp\cckpGNDB.s:25135  .debug_str:0000000000005d9a .LASF493
C:\Users\stapi\AppData\Local\Temp\cckpGNDB.s:24945  .debug_str:0000000000005773 .LASF494
C:\Users\stapi\AppData\Local\Temp\cckpGNDB.s:24685  .debug_str:0000000000004fec .LASF495
C:\Users\stapi\AppData\Local\Temp\cckpGNDB.s:22631  .debug_str:0000000000001445 .LASF496
C:\Users\stapi\AppData\Local\Temp\cckpGNDB.s:22075  .debug_str:0000000000000449 .LASF497
C:\Users\stapi\AppData\Local\Temp\cckpGNDB.s:22475  .debug_str:0000000000000fe3 .LASF498
C:\Users\stapi\AppData\Local\Temp\cckpGNDB.s:24661  .debug_str:0000000000004f2d .LASF499
C:\Users\stapi\AppData\Local\Temp\cckpGNDB.s:24261  .debug_str:0000000000004426 .LASF500
C:\Users\stapi\AppData\Local\Temp\cckpGNDB.s:23745  .debug_str:000000000000341e .LASF501
C:\Users\stapi\AppData\Local\Temp\cckpGNDB.s:23725  .debug_str:000000000000339f .LASF502
C:\Users\stapi\AppData\Local\Temp\cckpGNDB.s:22363  .debug_str:0000000000000c24 .LASF503
C:\Users\stapi\AppData\Local\Temp\cckpGNDB.s:24807  .debug_str:0000000000005370 .LASF504
C:\Users\stapi\AppData\Local\Temp\cckpGNDB.s:25235  .debug_str:000000000000605f .LASF505
C:\Users\stapi\AppData\Local\Temp\cckpGNDB.s:23697  .debug_str:00000000000032ba .LASF506
C:\Users\stapi\AppData\Local\Temp\cckpGNDB.s:23487  .debug_str:0000000000002cc9 .LASF507
C:\Users\stapi\AppData\Local\Temp\cckpGNDB.s:23265  .debug_str:0000000000002608 .LASF508
C:\Users\stapi\AppData\Local\Temp\cckpGNDB.s:24029  .debug_str:0000000000003dd6 .LASF509
C:\Users\stapi\AppData\Local\Temp\cckpGNDB.s:23949  .debug_str:0000000000003b69 .LASF510
C:\Users\stapi\AppData\Local\Temp\cckpGNDB.s:22369  .debug_str:0000000000000c49 .LASF511
C:\Users\stapi\AppData\Local\Temp\cckpGNDB.s:22385  .debug_str:0000000000000cce .LASF512
C:\Users\stapi\AppData\Local\Temp\cckpGNDB.s:23305  .debug_str:0000000000002724 .LASF513
C:\Users\stapi\AppData\Local\Temp\cckpGNDB.s:25175  .debug_str:0000000000005e8b .LASF514
C:\Users\stapi\AppData\Local\Temp\cckpGNDB.s:24337  .debug_str:0000000000004640 .LASF515
C:\Users\stapi\AppData\Local\Temp\cckpGNDB.s:24841  .debug_str:000000000000546e .LASF1701
C:\Users\stapi\AppData\Local\Temp\cckpGNDB.s:22821  .debug_str:000000000000199c .LASF516
C:\Users\stapi\AppData\Local\Temp\cckpGNDB.s:22941  .debug_str:0000000000001cd5 .LASF517
C:\Users\stapi\AppData\Local\Temp\cckpGNDB.s:23195  .debug_str:00000000000023e4 .LASF518
C:\Users\stapi\AppData\Local\Temp\cckpGNDB.s:24183  .debug_str:0000000000004220 .LASF519
C:\Users\stapi\AppData\Local\Temp\cckpGNDB.s:23281  .debug_str:0000000000002677 .LASF520
C:\Users\stapi\AppData\Local\Temp\cckpGNDB.s:22849  .debug_str:0000000000001a4a .LASF521
C:\Users\stapi\AppData\Local\Temp\cckpGNDB.s:23731  .debug_str:00000000000033c3 .LASF522
C:\Users\stapi\AppData\Local\Temp\cckpGNDB.s:25293  .debug_str:0000000000006201 .LASF523
C:\Users\stapi\AppData\Local\Temp\cckpGNDB.s:22555  .debug_str:000000000000123b .LASF524
C:\Users\stapi\AppData\Local\Temp\cckpGNDB.s:23555  .debug_str:0000000000002ea6 .LASF525
C:\Users\stapi\AppData\Local\Temp\cckpGNDB.s:22055  .debug_str:00000000000003c0 .LASF526
C:\Users\stapi\AppData\Local\Temp\cckpGNDB.s:22129  .debug_str:00000000000005d7 .LASF527
C:\Users\stapi\AppData\Local\Temp\cckpGNDB.s:24319  .debug_str:00000000000045c7 .LASF528
C:\Users\stapi\AppData\Local\Temp\cckpGNDB.s:23151  .debug_str:000000000000227d .LASF529
C:\Users\stapi\AppData\Local\Temp\cckpGNDB.s:23499  .debug_str:0000000000002d1a .LASF530
C:\Users\stapi\AppData\Local\Temp\cckpGNDB.s:22713  .debug_str:000000000000168c .LASF531
C:\Users\stapi\AppData\Local\Temp\cckpGNDB.s:23635  .debug_str:00000000000030e3 .LASF532
C:\Users\stapi\AppData\Local\Temp\cckpGNDB.s:24821  .debug_str:00000000000053e0 .LASF533
C:\Users\stapi\AppData\Local\Temp\cckpGNDB.s:23485  .debug_str:0000000000002cb6 .LASF534
C:\Users\stapi\AppData\Local\Temp\cckpGNDB.s:22249  .debug_str:00000000000008f6 .LASF535
C:\Users\stapi\AppData\Local\Temp\cckpGNDB.s:23387  .debug_str:00000000000029ba .LASF536
C:\Users\stapi\AppData\Local\Temp\cckpGNDB.s:22183  .debug_str:000000000000075f .LASF537
C:\Users\stapi\AppData\Local\Temp\cckpGNDB.s:22067  .debug_str:0000000000000405 .LASF538
C:\Users\stapi\AppData\Local\Temp\cckpGNDB.s:21947  .debug_str:000000000000008a .LASF539
C:\Users\stapi\AppData\Local\Temp\cckpGNDB.s:25309  .debug_str:0000000000006286 .LASF540
C:\Users\stapi\AppData\Local\Temp\cckpGNDB.s:25041  .debug_str:0000000000005a74 .LASF541
C:\Users\stapi\AppData\Local\Temp\cckpGNDB.s:25173  .debug_str:0000000000005e82 .LASF542
C:\Users\stapi\AppData\Local\Temp\cckpGNDB.s:22933  .debug_str:0000000000001c9c .LASF543
C:\Users\stapi\AppData\Local\Temp\cckpGNDB.s:23113  .debug_str:0000000000002155 .LASF544
C:\Users\stapi\AppData\Local\Temp\cckpGNDB.s:25167  .debug_str:0000000000005e54 .LASF545
C:\Users\stapi\AppData\Local\Temp\cckpGNDB.s:24355  .debug_str:00000000000046b9 .LASF546
C:\Users\stapi\AppData\Local\Temp\cckpGNDB.s:24519  .debug_str:0000000000004b1c .LASF547
C:\Users\stapi\AppData\Local\Temp\cckpGNDB.s:24555  .debug_str:0000000000004c4c .LASF548
C:\Users\stapi\AppData\Local\Temp\cckpGNDB.s:22031  .debug_str:0000000000000306 .LASF549
C:\Users\stapi\AppData\Local\Temp\cckpGNDB.s:21997  .debug_str:00000000000001fe .LASF550
C:\Users\stapi\AppData\Local\Temp\cckpGNDB.s:22839  .debug_str:0000000000001a01 .LASF551
C:\Users\stapi\AppData\Local\Temp\cckpGNDB.s:24019  .debug_str:0000000000003d86 .LASF552
C:\Users\stapi\AppData\Local\Temp\cckpGNDB.s:24219  .debug_str:0000000000004304 .LASF553
C:\Users\stapi\AppData\Local\Temp\cckpGNDB.s:23481  .debug_str:0000000000002c92 .LASF554
C:\Users\stapi\AppData\Local\Temp\cckpGNDB.s:22341  .debug_str:0000000000000b8d .LASF555
C:\Users\stapi\AppData\Local\Temp\cckpGNDB.s:24563  .debug_str:0000000000004c75 .LASF556
C:\Users\stapi\AppData\Local\Temp\cckpGNDB.s:25003  .debug_str:0000000000005945 .LASF557
C:\Users\stapi\AppData\Local\Temp\cckpGNDB.s:24189  .debug_str:0000000000004249 .LASF558
C:\Users\stapi\AppData\Local\Temp\cckpGNDB.s:22489  .debug_str:0000000000001059 .LASF559
C:\Users\stapi\AppData\Local\Temp\cckpGNDB.s:22751  .debug_str:00000000000017a9 .LASF560
C:\Users\stapi\AppData\Local\Temp\cckpGNDB.s:23339  .debug_str:0000000000002849 .LASF561
C:\Users\stapi\AppData\Local\Temp\cckpGNDB.s:24825  .debug_str:0000000000005406 .LASF562
C:\Users\stapi\AppData\Local\Temp\cckpGNDB.s:23687  .debug_str:000000000000327d .LASF563
C:\Users\stapi\AppData\Local\Temp\cckpGNDB.s:23803  .debug_str:00000000000035f4 .LASF564
C:\Users\stapi\AppData\Local\Temp\cckpGNDB.s:22035  .debug_str:000000000000031e .LASF565
C:\Users\stapi\AppData\Local\Temp\cckpGNDB.s:23445  .debug_str:0000000000002ba0 .LASF566
C:\Users\stapi\AppData\Local\Temp\cckpGNDB.s:24777  .debug_str:0000000000005286 .LASF567
C:\Users\stapi\AppData\Local\Temp\cckpGNDB.s:24723  .debug_str:00000000000050fe .LASF568
C:\Users\stapi\AppData\Local\Temp\cckpGNDB.s:22315  .debug_str:0000000000000acc .LASF569
C:\Users\stapi\AppData\Local\Temp\cckpGNDB.s:23385  .debug_str:00000000000029a9 .LASF570
C:\Users\stapi\AppData\Local\Temp\cckpGNDB.s:23645  .debug_str:0000000000003134 .LASF571
C:\Users\stapi\AppData\Local\Temp\cckpGNDB.s:22977  .debug_str:0000000000001dd0 .LASF572
C:\Users\stapi\AppData\Local\Temp\cckpGNDB.s:23267  .debug_str:000000000000260d .LASF573
C:\Users\stapi\AppData\Local\Temp\cckpGNDB.s:22143  .debug_str:0000000000000642 .LASF574
C:\Users\stapi\AppData\Local\Temp\cckpGNDB.s:22651  .debug_str:00000000000014d7 .LASF575
C:\Users\stapi\AppData\Local\Temp\cckpGNDB.s:24071  .debug_str:0000000000003f0d .LASF576
C:\Users\stapi\AppData\Local\Temp\cckpGNDB.s:22085  .debug_str:0000000000000491 .LASF577
C:\Users\stapi\AppData\Local\Temp\cckpGNDB.s:24625  .debug_str:0000000000004e25 .LASF578
C:\Users\stapi\AppData\Local\Temp\cckpGNDB.s:24405  .debug_str:00000000000047f5 .LASF579
C:\Users\stapi\AppData\Local\Temp\cckpGNDB.s:23717  .debug_str:000000000000335f .LASF580
C:\Users\stapi\AppData\Local\Temp\cckpGNDB.s:25329  .debug_str:0000000000006319 .LASF581
C:\Users\stapi\AppData\Local\Temp\cckpGNDB.s:24755  .debug_str:00000000000051db .LASF582
C:\Users\stapi\AppData\Local\Temp\cckpGNDB.s:23107  .debug_str:000000000000212d .LASF583
C:\Users\stapi\AppData\Local\Temp\cckpGNDB.s:24165  .debug_str:00000000000041aa .LASF584
C:\Users\stapi\AppData\Local\Temp\cckpGNDB.s:23507  .debug_str:0000000000002d55 .LASF585
C:\Users\stapi\AppData\Local\Temp\cckpGNDB.s:22447  .debug_str:0000000000000eb3 .LASF586
C:\Users\stapi\AppData\Local\Temp\cckpGNDB.s:22883  .debug_str:0000000000001b29 .LASF587
C:\Users\stapi\AppData\Local\Temp\cckpGNDB.s:24675  .debug_str:0000000000004f9c .LASF588
C:\Users\stapi\AppData\Local\Temp\cckpGNDB.s:23287  .debug_str:00000000000026a7 .LASF589
C:\Users\stapi\AppData\Local\Temp\cckpGNDB.s:24037  .debug_str:0000000000003e19 .LASF590
C:\Users\stapi\AppData\Local\Temp\cckpGNDB.s:24207  .debug_str:00000000000042b6 .LASF591
C:\Users\stapi\AppData\Local\Temp\cckpGNDB.s:22091  .debug_str:00000000000004b5 .LASF592
C:\Users\stapi\AppData\Local\Temp\cckpGNDB.s:23525  .debug_str:0000000000002ddd .LASF593
C:\Users\stapi\AppData\Local\Temp\cckpGNDB.s:24887  .debug_str:00000000000055d7 .LASF594
C:\Users\stapi\AppData\Local\Temp\cckpGNDB.s:23367  .debug_str:0000000000002930 .LASF595
C:\Users\stapi\AppData\Local\Temp\cckpGNDB.s:24981  .debug_str:00000000000058a5 .LASF596
C:\Users\stapi\AppData\Local\Temp\cckpGNDB.s:23289  .debug_str:00000000000026bb .LASF597
C:\Users\stapi\AppData\Local\Temp\cckpGNDB.s:23909  .debug_str:0000000000003a11 .LASF598
C:\Users\stapi\AppData\Local\Temp\cckpGNDB.s:24227  .debug_str:000000000000432e .LASF599
C:\Users\stapi\AppData\Local\Temp\cckpGNDB.s:23575  .debug_str:0000000000002f37 .LASF600
C:\Users\stapi\AppData\Local\Temp\cckpGNDB.s:21993  .debug_str:00000000000001dc .LASF601
C:\Users\stapi\AppData\Local\Temp\cckpGNDB.s:23743  .debug_str:0000000000003415 .LASF602
C:\Users\stapi\AppData\Local\Temp\cckpGNDB.s:22667  .debug_str:0000000000001564 .LASF603
C:\Users\stapi\AppData\Local\Temp\cckpGNDB.s:24341  .debug_str:0000000000004659 .LASF604
C:\Users\stapi\AppData\Local\Temp\cckpGNDB.s:23073  .debug_str:0000000000002055 .LASF605
C:\Users\stapi\AppData\Local\Temp\cckpGNDB.s:21965  .debug_str:0000000000000108 .LASF606
C:\Users\stapi\AppData\Local\Temp\cckpGNDB.s:24239  .debug_str:000000000000437a .LASF607
C:\Users\stapi\AppData\Local\Temp\cckpGNDB.s:22379  .debug_str:0000000000000ca2 .LASF608
C:\Users\stapi\AppData\Local\Temp\cckpGNDB.s:22421  .debug_str:0000000000000dfc .LASF609
C:\Users\stapi\AppData\Local\Temp\cckpGNDB.s:23461  .debug_str:0000000000002c1e .LASF610
C:\Users\stapi\AppData\Local\Temp\cckpGNDB.s:22653  .debug_str:00000000000014e4 .LASF611
C:\Users\stapi\AppData\Local\Temp\cckpGNDB.s:22453  .debug_str:0000000000000edf .LASF612
C:\Users\stapi\AppData\Local\Temp\cckpGNDB.s:23023  .debug_str:0000000000001f00 .LASF613
C:\Users\stapi\AppData\Local\Temp\cckpGNDB.s:22259  .debug_str:000000000000093d .LASF614
C:\Users\stapi\AppData\Local\Temp\cckpGNDB.s:25203  .debug_str:0000000000005f62 .LASF615
C:\Users\stapi\AppData\Local\Temp\cckpGNDB.s:22483  .debug_str:0000000000001034 .LASF616
C:\Users\stapi\AppData\Local\Temp\cckpGNDB.s:22131  .debug_str:00000000000005e0 .LASF617
C:\Users\stapi\AppData\Local\Temp\cckpGNDB.s:25291  .debug_str:00000000000061fb .LASF618
C:\Users\stapi\AppData\Local\Temp\cckpGNDB.s:24701  .debug_str:0000000000005071 .LASF619
C:\Users\stapi\AppData\Local\Temp\cckpGNDB.s:22065  .debug_str:00000000000003fa .LASF620
C:\Users\stapi\AppData\Local\Temp\cckpGNDB.s:23607  .debug_str:0000000000003016 .LASF621
C:\Users\stapi\AppData\Local\Temp\cckpGNDB.s:22273  .debug_str:00000000000009b1 .LASF622
C:\Users\stapi\AppData\Local\Temp\cckpGNDB.s:23941  .debug_str:0000000000003b2d .LASF623
C:\Users\stapi\AppData\Local\Temp\cckpGNDB.s:24419  .debug_str:0000000000004865 .LASF624
C:\Users\stapi\AppData\Local\Temp\cckpGNDB.s:22387  .debug_str:0000000000000cf2 .LASF625
C:\Users\stapi\AppData\Local\Temp\cckpGNDB.s:22633  .debug_str:0000000000001454 .LASF626
C:\Users\stapi\AppData\Local\Temp\cckpGNDB.s:24791  .debug_str:00000000000052d9 .LASF627
C:\Users\stapi\AppData\Local\Temp\cckpGNDB.s:22921  .debug_str:0000000000001c3b .LASF628
C:\Users\stapi\AppData\Local\Temp\cckpGNDB.s:22173  .debug_str:0000000000000722 .LASF629
C:\Users\stapi\AppData\Local\Temp\cckpGNDB.s:24273  .debug_str:000000000000448b .LASF630
C:\Users\stapi\AppData\Local\Temp\cckpGNDB.s:23371  .debug_str:0000000000002944 .LASF631
C:\Users\stapi\AppData\Local\Temp\cckpGNDB.s:24849  .debug_str:00000000000054b4 .LASF632
C:\Users\stapi\AppData\Local\Temp\cckpGNDB.s:23333  .debug_str:0000000000002817 .LASF633
C:\Users\stapi\AppData\Local\Temp\cckpGNDB.s:23353  .debug_str:00000000000028c2 .LASF634
C:\Users\stapi\AppData\Local\Temp\cckpGNDB.s:22661  .debug_str:0000000000001525 .LASF635
C:\Users\stapi\AppData\Local\Temp\cckpGNDB.s:24449  .debug_str:0000000000004910 .LASF636
C:\Users\stapi\AppData\Local\Temp\cckpGNDB.s:24727  .debug_str:000000000000510a .LASF637
C:\Users\stapi\AppData\Local\Temp\cckpGNDB.s:24823  .debug_str:00000000000053f7 .LASF638
C:\Users\stapi\AppData\Local\Temp\cckpGNDB.s:22467  .debug_str:0000000000000f3e .LASF639
C:\Users\stapi\AppData\Local\Temp\cckpGNDB.s:22975  .debug_str:0000000000001dba .LASF640
C:\Users\stapi\AppData\Local\Temp\cckpGNDB.s:22785  .debug_str:00000000000018ad .LASF641
C:\Users\stapi\AppData\Local\Temp\cckpGNDB.s:25153  .debug_str:0000000000005df9 .LASF642
C:\Users\stapi\AppData\Local\Temp\cckpGNDB.s:22335  .debug_str:0000000000000b5f .LASF643
C:\Users\stapi\AppData\Local\Temp\cckpGNDB.s:23925  .debug_str:0000000000003aab .LASF644
C:\Users\stapi\AppData\Local\Temp\cckpGNDB.s:23543  .debug_str:0000000000002e54 .LASF645
C:\Users\stapi\AppData\Local\Temp\cckpGNDB.s:22043  .debug_str:000000000000035b .LASF646
C:\Users\stapi\AppData\Local\Temp\cckpGNDB.s:22729  .debug_str:00000000000016fc .LASF647
C:\Users\stapi\AppData\Local\Temp\cckpGNDB.s:24803  .debug_str:0000000000005338 .LASF648
C:\Users\stapi\AppData\Local\Temp\cckpGNDB.s:24817  .debug_str:00000000000053bf .LASF649
C:\Users\stapi\AppData\Local\Temp\cckpGNDB.s:22677  .debug_str:000000000000159d .LASF650
C:\Users\stapi\AppData\Local\Temp\cckpGNDB.s:21931  .debug_str:0000000000000005 .LASF651
C:\Users\stapi\AppData\Local\Temp\cckpGNDB.s:23303  .debug_str:0000000000002714 .LASF652
C:\Users\stapi\AppData\Local\Temp\cckpGNDB.s:22161  .debug_str:00000000000006af .LASF653
C:\Users\stapi\AppData\Local\Temp\cckpGNDB.s:22971  .debug_str:0000000000001d91 .LASF654
C:\Users\stapi\AppData\Local\Temp\cckpGNDB.s:23603  .debug_str:0000000000002ff2 .LASF655
C:\Users\stapi\AppData\Local\Temp\cckpGNDB.s:23399  .debug_str:0000000000002a2c .LASF656
C:\Users\stapi\AppData\Local\Temp\cckpGNDB.s:23103  .debug_str:000000000000211b .LASF657
C:\Users\stapi\AppData\Local\Temp\cckpGNDB.s:24507  .debug_str:0000000000004ada .LASF658
C:\Users\stapi\AppData\Local\Temp\cckpGNDB.s:25233  .debug_str:0000000000006050 .LASF659
C:\Users\stapi\AppData\Local\Temp\cckpGNDB.s:23595  .debug_str:0000000000002fbf .LASF660
C:\Users\stapi\AppData\Local\Temp\cckpGNDB.s:23257  .debug_str:00000000000025bb .LASF661
C:\Users\stapi\AppData\Local\Temp\cckpGNDB.s:25085  .debug_str:0000000000005ba6 .LASF662
C:\Users\stapi\AppData\Local\Temp\cckpGNDB.s:24171  .debug_str:00000000000041db .LASF663
C:\Users\stapi\AppData\Local\Temp\cckpGNDB.s:23149  .debug_str:000000000000226e .LASF664
C:\Users\stapi\AppData\Local\Temp\cckpGNDB.s:23373  .debug_str:000000000000294f .LASF665
C:\Users\stapi\AppData\Local\Temp\cckpGNDB.s:23235  .debug_str:000000000000250b .LASF666
C:\Users\stapi\AppData\Local\Temp\cckpGNDB.s:22469  .debug_str:0000000000000f45 .LASF667
C:\Users\stapi\AppData\Local\Temp\cckpGNDB.s:24377  .debug_str:0000000000004736 .LASF668
C:\Users\stapi\AppData\Local\Temp\cckpGNDB.s:22197  .debug_str:00000000000007c6 .LASF669
C:\Users\stapi\AppData\Local\Temp\cckpGNDB.s:24787  .debug_str:00000000000052c2 .LASF670
C:\Users\stapi\AppData\Local\Temp\cckpGNDB.s:22809  .debug_str:0000000000001943 .LASF671
C:\Users\stapi\AppData\Local\Temp\cckpGNDB.s:22481  .debug_str:0000000000001017 .LASF672
C:\Users\stapi\AppData\Local\Temp\cckpGNDB.s:25239  .debug_str:000000000000607a .LASF673
C:\Users\stapi\AppData\Local\Temp\cckpGNDB.s:22359  .debug_str:0000000000000c08 .LASF674
C:\Users\stapi\AppData\Local\Temp\cckpGNDB.s:22409  .debug_str:0000000000000dab .LASF675
C:\Users\stapi\AppData\Local\Temp\cckpGNDB.s:22041  .debug_str:0000000000000351 .LASF676
C:\Users\stapi\AppData\Local\Temp\cckpGNDB.s:24471  .debug_str:00000000000049ab .LASF677
C:\Users\stapi\AppData\Local\Temp\cckpGNDB.s:22691  .debug_str:00000000000015fb .LASF678
C:\Users\stapi\AppData\Local\Temp\cckpGNDB.s:24245  .debug_str:00000000000043a3 .LASF679
C:\Users\stapi\AppData\Local\Temp\cckpGNDB.s:25213  .debug_str:0000000000005fab .LASF680
C:\Users\stapi\AppData\Local\Temp\cckpGNDB.s:23777  .debug_str:000000000000352c .LASF681
C:\Users\stapi\AppData\Local\Temp\cckpGNDB.s:22655  .debug_str:00000000000014f9 .LASF682
C:\Users\stapi\AppData\Local\Temp\cckpGNDB.s:22187  .debug_str:0000000000000774 .LASF683
C:\Users\stapi\AppData\Local\Temp\cckpGNDB.s:22479  .debug_str:0000000000000ffd .LASF684
C:\Users\stapi\AppData\Local\Temp\cckpGNDB.s:23757  .debug_str:0000000000003477 .LASF685
C:\Users\stapi\AppData\Local\Temp\cckpGNDB.s:24367  .debug_str:00000000000046ec .LASF686
C:\Users\stapi\AppData\Local\Temp\cckpGNDB.s:25285  .debug_str:00000000000061bd .LASF687
C:\Users\stapi\AppData\Local\Temp\cckpGNDB.s:24317  .debug_str:00000000000045b0 .LASF688
C:\Users\stapi\AppData\Local\Temp\cckpGNDB.s:23755  .debug_str:0000000000003468 .LASF689
C:\Users\stapi\AppData\Local\Temp\cckpGNDB.s:23795  .debug_str:00000000000035bd .LASF690
C:\Users\stapi\AppData\Local\Temp\cckpGNDB.s:24695  .debug_str:0000000000005048 .LASF691
C:\Users\stapi\AppData\Local\Temp\cckpGNDB.s:24635  .debug_str:0000000000004e5e .LASF692
C:\Users\stapi\AppData\Local\Temp\cckpGNDB.s:24929  .debug_str:000000000000570b .LASF693
C:\Users\stapi\AppData\Local\Temp\cckpGNDB.s:24131  .debug_str:00000000000040c5 .LASF694
C:\Users\stapi\AppData\Local\Temp\cckpGNDB.s:22693  .debug_str:000000000000160f .LASF695
C:\Users\stapi\AppData\Local\Temp\cckpGNDB.s:22745  .debug_str:0000000000001787 .LASF696
C:\Users\stapi\AppData\Local\Temp\cckpGNDB.s:23549  .debug_str:0000000000002e80 .LASF697
C:\Users\stapi\AppData\Local\Temp\cckpGNDB.s:25021  .debug_str:00000000000059c0 .LASF698
C:\Users\stapi\AppData\Local\Temp\cckpGNDB.s:23733  .debug_str:00000000000033c8 .LASF699
C:\Users\stapi\AppData\Local\Temp\cckpGNDB.s:25211  .debug_str:0000000000005fa1 .LASF700
C:\Users\stapi\AppData\Local\Temp\cckpGNDB.s:22979  .debug_str:0000000000001ddd .LASF701
C:\Users\stapi\AppData\Local\Temp\cckpGNDB.s:25253  .debug_str:00000000000060e7 .LASF702
C:\Users\stapi\AppData\Local\Temp\cckpGNDB.s:24063  .debug_str:0000000000003ed5 .LASF703
C:\Users\stapi\AppData\Local\Temp\cckpGNDB.s:25101  .debug_str:0000000000005c24 .LASF704
C:\Users\stapi\AppData\Local\Temp\cckpGNDB.s:22133  .debug_str:00000000000005f3 .LASF705
C:\Users\stapi\AppData\Local\Temp\cckpGNDB.s:22413  .debug_str:0000000000000dca .LASF706
C:\Users\stapi\AppData\Local\Temp\cckpGNDB.s:23357  .debug_str:00000000000028d6 .LASF707
C:\Users\stapi\AppData\Local\Temp\cckpGNDB.s:24477  .debug_str:00000000000049e6 .LASF708
C:\Users\stapi\AppData\Local\Temp\cckpGNDB.s:22601  .debug_str:000000000000137a .LASF709
C:\Users\stapi\AppData\Local\Temp\cckpGNDB.s:24655  .debug_str:0000000000004ef6 .LASF710
C:\Users\stapi\AppData\Local\Temp\cckpGNDB.s:22497  .debug_str:0000000000001081 .LASF711
C:\Users\stapi\AppData\Local\Temp\cckpGNDB.s:25199  .debug_str:0000000000005f3f .LASF712
C:\Users\stapi\AppData\Local\Temp\cckpGNDB.s:24369  .debug_str:00000000000046f9 .LASF713
C:\Users\stapi\AppData\Local\Temp\cckpGNDB.s:24469  .debug_str:0000000000004999 .LASF714
C:\Users\stapi\AppData\Local\Temp\cckpGNDB.s:24175  .debug_str:00000000000041ed .LASF715
C:\Users\stapi\AppData\Local\Temp\cckpGNDB.s:25279  .debug_str:000000000000619b .LASF716
C:\Users\stapi\AppData\Local\Temp\cckpGNDB.s:22559  .debug_str:0000000000001261 .LASF717
C:\Users\stapi\AppData\Local\Temp\cckpGNDB.s:24669  .debug_str:0000000000004f65 .LASF718
C:\Users\stapi\AppData\Local\Temp\cckpGNDB.s:25261  .debug_str:0000000000006127 .LASF719
C:\Users\stapi\AppData\Local\Temp\cckpGNDB.s:24371  .debug_str:0000000000004707 .LASF720
C:\Users\stapi\AppData\Local\Temp\cckpGNDB.s:25057  .debug_str:0000000000005ad7 .LASF721
C:\Users\stapi\AppData\Local\Temp\cckpGNDB.s:22711  .debug_str:0000000000001680 .LASF722
C:\Users\stapi\AppData\Local\Temp\cckpGNDB.s:24581  .debug_str:0000000000004cda .LASF723
C:\Users\stapi\AppData\Local\Temp\cckpGNDB.s:24921  .debug_str:00000000000056d6 .LASF724
C:\Users\stapi\AppData\Local\Temp\cckpGNDB.s:25129  .debug_str:0000000000005d74 .LASF725
C:\Users\stapi\AppData\Local\Temp\cckpGNDB.s:24809  .debug_str:0000000000005386 .LASF726
C:\Users\stapi\AppData\Local\Temp\cckpGNDB.s:23451  .debug_str:0000000000002bcb .LASF727
C:\Users\stapi\AppData\Local\Temp\cckpGNDB.s:23993  .debug_str:0000000000003cb3 .LASF728
C:\Users\stapi\AppData\Local\Temp\cckpGNDB.s:24867  .debug_str:000000000000552d .LASF729
C:\Users\stapi\AppData\Local\Temp\cckpGNDB.s:21977  .debug_str:000000000000015c .LASF730
C:\Users\stapi\AppData\Local\Temp\cckpGNDB.s:24811  .debug_str:0000000000005390 .LASF731
C:\Users\stapi\AppData\Local\Temp\cckpGNDB.s:24163  .debug_str:0000000000004198 .LASF732
C:\Users\stapi\AppData\Local\Temp\cckpGNDB.s:23557  .debug_str:0000000000002eb7 .LASF733
C:\Users\stapi\AppData\Local\Temp\cckpGNDB.s:25305  .debug_str:0000000000006254 .LASF734
C:\Users\stapi\AppData\Local\Temp\cckpGNDB.s:22353  .debug_str:0000000000000be7 .LASF735
C:\Users\stapi\AppData\Local\Temp\cckpGNDB.s:24155  .debug_str:0000000000004167 .LASF736
C:\Users\stapi\AppData\Local\Temp\cckpGNDB.s:22037  .debug_str:0000000000000338 .LASF737
C:\Users\stapi\AppData\Local\Temp\cckpGNDB.s:23753  .debug_str:0000000000003452 .LASF738
C:\Users\stapi\AppData\Local\Temp\cckpGNDB.s:24515  .debug_str:0000000000004b02 .LASF739
C:\Users\stapi\AppData\Local\Temp\cckpGNDB.s:25123  .debug_str:0000000000005d3d .LASF740
C:\Users\stapi\AppData\Local\Temp\cckpGNDB.s:24315  .debug_str:000000000000459f .LASF741
C:\Users\stapi\AppData\Local\Temp\cckpGNDB.s:23375  .debug_str:0000000000002959 .LASF742
C:\Users\stapi\AppData\Local\Temp\cckpGNDB.s:25303  .debug_str:000000000000624f .LASF743
C:\Users\stapi\AppData\Local\Temp\cckpGNDB.s:23475  .debug_str:0000000000002c78 .LASF744
C:\Users\stapi\AppData\Local\Temp\cckpGNDB.s:22609  .debug_str:00000000000013a9 .LASF745
C:\Users\stapi\AppData\Local\Temp\cckpGNDB.s:22617  .debug_str:00000000000013d5 .LASF746
C:\Users\stapi\AppData\Local\Temp\cckpGNDB.s:23665  .debug_str:00000000000031d6 .LASF747
C:\Users\stapi\AppData\Local\Temp\cckpGNDB.s:22615  .debug_str:00000000000013cb .LASF748
C:\Users\stapi\AppData\Local\Temp\cckpGNDB.s:23261  .debug_str:00000000000025e5 .LASF749
C:\Users\stapi\AppData\Local\Temp\cckpGNDB.s:22727  .debug_str:00000000000016e5 .LASF750
C:\Users\stapi\AppData\Local\Temp\cckpGNDB.s:23739  .debug_str:00000000000033ff .LASF751
C:\Users\stapi\AppData\Local\Temp\cckpGNDB.s:23007  .debug_str:0000000000001ea3 .LASF752
C:\Users\stapi\AppData\Local\Temp\cckpGNDB.s:22365  .debug_str:0000000000000c34 .LASF753
C:\Users\stapi\AppData\Local\Temp\cckpGNDB.s:24003  .debug_str:0000000000003d0e .LASF754
C:\Users\stapi\AppData\Local\Temp\cckpGNDB.s:22981  .debug_str:0000000000001dee .LASF755
C:\Users\stapi\AppData\Local\Temp\cckpGNDB.s:25059  .debug_str:0000000000005af0 .LASF756
C:\Users\stapi\AppData\Local\Temp\cckpGNDB.s:23561  .debug_str:0000000000002edb .LASF757
C:\Users\stapi\AppData\Local\Temp\cckpGNDB.s:23299  .debug_str:00000000000026f9 .LASF758
C:\Users\stapi\AppData\Local\Temp\cckpGNDB.s:24679  .debug_str:0000000000004fca .LASF759
C:\Users\stapi\AppData\Local\Temp\cckpGNDB.s:23069  .debug_str:0000000000002033 .LASF760
C:\Users\stapi\AppData\Local\Temp\cckpGNDB.s:23341  .debug_str:0000000000002853 .LASF761
C:\Users\stapi\AppData\Local\Temp\cckpGNDB.s:23125  .debug_str:00000000000021c6 .LASF762
C:\Users\stapi\AppData\Local\Temp\cckpGNDB.s:25055  .debug_str:0000000000005acc .LASF763
C:\Users\stapi\AppData\Local\Temp\cckpGNDB.s:23301  .debug_str:0000000000002704 .LASF764
C:\Users\stapi\AppData\Local\Temp\cckpGNDB.s:22443  .debug_str:0000000000000ea4 .LASF765
C:\Users\stapi\AppData\Local\Temp\cckpGNDB.s:25099  .debug_str:0000000000005c12 .LASF766
C:\Users\stapi\AppData\Local\Temp\cckpGNDB.s:23053  .debug_str:0000000000001fbb .LASF767
C:\Users\stapi\AppData\Local\Temp\cckpGNDB.s:25013  .debug_str:0000000000005986 .LASF768
C:\Users\stapi\AppData\Local\Temp\cckpGNDB.s:24081  .debug_str:0000000000003f4e .LASF769
C:\Users\stapi\AppData\Local\Temp\cckpGNDB.s:24843  .debug_str:000000000000547d .LASF770
C:\Users\stapi\AppData\Local\Temp\cckpGNDB.s:22777  .debug_str:000000000000186b .LASF771
C:\Users\stapi\AppData\Local\Temp\cckpGNDB.s:23347  .debug_str:0000000000002886 .LASF772
C:\Users\stapi\AppData\Local\Temp\cckpGNDB.s:24577  .debug_str:0000000000004cba .LASF773
C:\Users\stapi\AppData\Local\Temp\cckpGNDB.s:22923  .debug_str:0000000000001c50 .LASF774
C:\Users\stapi\AppData\Local\Temp\cckpGNDB.s:23143  .debug_str:0000000000002246 .LASF775
C:\Users\stapi\AppData\Local\Temp\cckpGNDB.s:22313  .debug_str:0000000000000ac2 .LASF776
C:\Users\stapi\AppData\Local\Temp\cckpGNDB.s:24551  .debug_str:0000000000004c2b .LASF777
C:\Users\stapi\AppData\Local\Temp\cckpGNDB.s:24195  .debug_str:000000000000426d .LASF778
C:\Users\stapi\AppData\Local\Temp\cckpGNDB.s:24417  .debug_str:0000000000004858 .LASF779
C:\Users\stapi\AppData\Local\Temp\cckpGNDB.s:24505  .debug_str:0000000000004ad0 .LASF780
C:\Users\stapi\AppData\Local\Temp\cckpGNDB.s:24757  .debug_str:00000000000051e7 .LASF781
C:\Users\stapi\AppData\Local\Temp\cckpGNDB.s:24181  .debug_str:0000000000004213 .LASF782
C:\Users\stapi\AppData\Local\Temp\cckpGNDB.s:23381  .debug_str:0000000000002984 .LASF783
C:\Users\stapi\AppData\Local\Temp\cckpGNDB.s:22279  .debug_str:00000000000009dc .LASF784
C:\Users\stapi\AppData\Local\Temp\cckpGNDB.s:23433  .debug_str:0000000000002b4c .LASF785
C:\Users\stapi\AppData\Local\Temp\cckpGNDB.s:22591  .debug_str:000000000000132f .LASF786
C:\Users\stapi\AppData\Local\Temp\cckpGNDB.s:24259  .debug_str:0000000000004416 .LASF787
C:\Users\stapi\AppData\Local\Temp\cckpGNDB.s:24123  .debug_str:000000000000408c .LASF788
C:\Users\stapi\AppData\Local\Temp\cckpGNDB.s:23781  .debug_str:0000000000003544 .LASF789
C:\Users\stapi\AppData\Local\Temp\cckpGNDB.s:22645  .debug_str:00000000000014aa .LASF790
C:\Users\stapi\AppData\Local\Temp\cckpGNDB.s:22449  .debug_str:0000000000000ec1 .LASF791
C:\Users\stapi\AppData\Local\Temp\cckpGNDB.s:23057  .debug_str:0000000000001fd6 .LASF792
C:\Users\stapi\AppData\Local\Temp\cckpGNDB.s:23863  .debug_str:00000000000038ad .LASF793
C:\Users\stapi\AppData\Local\Temp\cckpGNDB.s:25105  .debug_str:0000000000005c34 .LASF794
C:\Users\stapi\AppData\Local\Temp\cckpGNDB.s:24927  .debug_str:00000000000056f8 .LASF795
C:\Users\stapi\AppData\Local\Temp\cckpGNDB.s:24559  .debug_str:0000000000004c5a .LASF796
C:\Users\stapi\AppData\Local\Temp\cckpGNDB.s:23893  .debug_str:000000000000399b .LASF797
C:\Users\stapi\AppData\Local\Temp\cckpGNDB.s:23221  .debug_str:000000000000249e .LASF798
C:\Users\stapi\AppData\Local\Temp\cckpGNDB.s:22223  .debug_str:0000000000000862 .LASF799
C:\Users\stapi\AppData\Local\Temp\cckpGNDB.s:24885  .debug_str:00000000000055c9 .LASF800
C:\Users\stapi\AppData\Local\Temp\cckpGNDB.s:23185  .debug_str:0000000000002399 .LASF801
C:\Users\stapi\AppData\Local\Temp\cckpGNDB.s:24479  .debug_str:0000000000004a03 .LASF802
C:\Users\stapi\AppData\Local\Temp\cckpGNDB.s:24593  .debug_str:0000000000004d40 .LASF803
C:\Users\stapi\AppData\Local\Temp\cckpGNDB.s:23539  .debug_str:0000000000002e2d .LASF804
C:\Users\stapi\AppData\Local\Temp\cckpGNDB.s:24911  .debug_str:0000000000005678 .LASF805
C:\Users\stapi\AppData\Local\Temp\cckpGNDB.s:24145  .debug_str:000000000000411a .LASF806
C:\Users\stapi\AppData\Local\Temp\cckpGNDB.s:22495  .debug_str:000000000000106e .LASF807
C:\Users\stapi\AppData\Local\Temp\cckpGNDB.s:24437  .debug_str:00000000000048c0 .LASF808
C:\Users\stapi\AppData\Local\Temp\cckpGNDB.s:21937  .debug_str:000000000000004e .LASF809
C:\Users\stapi\AppData\Local\Temp\cckpGNDB.s:23409  .debug_str:0000000000002a8e .LASF810
C:\Users\stapi\AppData\Local\Temp\cckpGNDB.s:23425  .debug_str:0000000000002b0e .LASF811
C:\Users\stapi\AppData\Local\Temp\cckpGNDB.s:23947  .debug_str:0000000000003b50 .LASF812
C:\Users\stapi\AppData\Local\Temp\cckpGNDB.s:22101  .debug_str:0000000000000505 .LASF813
C:\Users\stapi\AppData\Local\Temp\cckpGNDB.s:22095  .debug_str:00000000000004d0 .LASF814
C:\Users\stapi\AppData\Local\Temp\cckpGNDB.s:22707  .debug_str:0000000000001661 .LASF815
C:\Users\stapi\AppData\Local\Temp\cckpGNDB.s:24985  .debug_str:00000000000058cc .LASF816
C:\Users\stapi\AppData\Local\Temp\cckpGNDB.s:23853  .debug_str:0000000000003773 .LASF817
C:\Users\stapi\AppData\Local\Temp\cckpGNDB.s:24729  .debug_str:0000000000005116 .LASF818
C:\Users\stapi\AppData\Local\Temp\cckpGNDB.s:23099  .debug_str:00000000000020f4 .LASF819
C:\Users\stapi\AppData\Local\Temp\cckpGNDB.s:22057  .debug_str:00000000000003c9 .LASF820
C:\Users\stapi\AppData\Local\Temp\cckpGNDB.s:22621  .debug_str:00000000000013f0 .LASF821
C:\Users\stapi\AppData\Local\Temp\cckpGNDB.s:23491  .debug_str:0000000000002cec .LASF822
C:\Users\stapi\AppData\Local\Temp\cckpGNDB.s:22947  .debug_str:0000000000001cf4 .LASF823
C:\Users\stapi\AppData\Local\Temp\cckpGNDB.s:22399  .debug_str:0000000000000d4d .LASF824
C:\Users\stapi\AppData\Local\Temp\cckpGNDB.s:23617  .debug_str:0000000000003062 .LASF825
C:\Users\stapi\AppData\Local\Temp\cckpGNDB.s:24769  .debug_str:0000000000005247 .LASF826
C:\Users\stapi\AppData\Local\Temp\cckpGNDB.s:23395  .debug_str:00000000000029f7 .LASF827
C:\Users\stapi\AppData\Local\Temp\cckpGNDB.s:24733  .debug_str:000000000000513c .LASF828
C:\Users\stapi\AppData\Local\Temp\cckpGNDB.s:23005  .debug_str:0000000000001e8c .LASF829
C:\Users\stapi\AppData\Local\Temp\cckpGNDB.s:23383  .debug_str:0000000000002994 .LASF830
C:\Users\stapi\AppData\Local\Temp\cckpGNDB.s:24147  .debug_str:000000000000412e .LASF831
C:\Users\stapi\AppData\Local\Temp\cckpGNDB.s:23325  .debug_str:00000000000027cd .LASF832
C:\Users\stapi\AppData\Local\Temp\cckpGNDB.s:23321  .debug_str:00000000000027a8 .LASF833
C:\Users\stapi\AppData\Local\Temp\cckpGNDB.s:24917  .debug_str:00000000000056b4 .LASF834
C:\Users\stapi\AppData\Local\Temp\cckpGNDB.s:25143  .debug_str:0000000000005dca .LASF835
C:\Users\stapi\AppData\Local\Temp\cckpGNDB.s:24465  .debug_str:0000000000004983 .LASF836
C:\Users\stapi\AppData\Local\Temp\cckpGNDB.s:23825  .debug_str:00000000000036a7 .LASF837
C:\Users\stapi\AppData\Local\Temp\cckpGNDB.s:24263  .debug_str:000000000000443e .LASF838
C:\Users\stapi\AppData\Local\Temp\cckpGNDB.s:23355  .debug_str:00000000000028cd .LASF839
C:\Users\stapi\AppData\Local\Temp\cckpGNDB.s:22017  .debug_str:000000000000029a .LASF840
C:\Users\stapi\AppData\Local\Temp\cckpGNDB.s:25141  .debug_str:0000000000005dbe .LASF841
C:\Users\stapi\AppData\Local\Temp\cckpGNDB.s:23597  .debug_str:0000000000002fc8 .LASF842
C:\Users\stapi\AppData\Local\Temp\cckpGNDB.s:22263  .debug_str:0000000000000966 .LASF843
C:\Users\stapi\AppData\Local\Temp\cckpGNDB.s:24467  .debug_str:000000000000498b .LASF844
C:\Users\stapi\AppData\Local\Temp\cckpGNDB.s:24737  .debug_str:000000000000515d .LASF845
C:\Users\stapi\AppData\Local\Temp\cckpGNDB.s:24799  .debug_str:000000000000531d .LASF846
C:\Users\stapi\AppData\Local\Temp\cckpGNDB.s:22271  .debug_str:00000000000009a4 .LASF847
C:\Users\stapi\AppData\Local\Temp\cckpGNDB.s:24611  .debug_str:0000000000004dd1 .LASF848
C:\Users\stapi\AppData\Local\Temp\cckpGNDB.s:23307  .debug_str:000000000000272c .LASF849
C:\Users\stapi\AppData\Local\Temp\cckpGNDB.s:22903  .debug_str:0000000000001bc0 .LASF850
C:\Users\stapi\AppData\Local\Temp\cckpGNDB.s:23041  .debug_str:0000000000001f75 .LASF851
C:\Users\stapi\AppData\Local\Temp\cckpGNDB.s:22499  .debug_str:0000000000001095 .LASF852
C:\Users\stapi\AppData\Local\Temp\cckpGNDB.s:21945  .debug_str:000000000000007e .LASF853
C:\Users\stapi\AppData\Local\Temp\cckpGNDB.s:24549  .debug_str:0000000000004c21 .LASF854
C:\Users\stapi\AppData\Local\Temp\cckpGNDB.s:25319  .debug_str:00000000000062dd .LASF855
C:\Users\stapi\AppData\Local\Temp\cckpGNDB.s:24987  .debug_str:00000000000058d9 .LASF856
C:\Users\stapi\AppData\Local\Temp\cckpGNDB.s:24499  .debug_str:0000000000004a9e .LASF857
C:\Users\stapi\AppData\Local\Temp\cckpGNDB.s:24959  .debug_str:00000000000057e1 .LASF858
C:\Users\stapi\AppData\Local\Temp\cckpGNDB.s:23939  .debug_str:0000000000003b1b .LASF859
C:\Users\stapi\AppData\Local\Temp\cckpGNDB.s:23133  .debug_str:0000000000002201 .LASF860
C:\Users\stapi\AppData\Local\Temp\cckpGNDB.s:24251  .debug_str:00000000000043d9 .LASF861
C:\Users\stapi\AppData\Local\Temp\cckpGNDB.s:24363  .debug_str:00000000000046d6 .LASF862
C:\Users\stapi\AppData\Local\Temp\cckpGNDB.s:24851  .debug_str:00000000000054bd .LASF863
C:\Users\stapi\AppData\Local\Temp\cckpGNDB.s:22125  .debug_str:00000000000005b1 .LASF864
C:\Users\stapi\AppData\Local\Temp\cckpGNDB.s:23973  .debug_str:0000000000003c24 .LASF865
C:\Users\stapi\AppData\Local\Temp\cckpGNDB.s:25139  .debug_str:0000000000005db5 .LASF866
C:\Users\stapi\AppData\Local\Temp\cckpGNDB.s:22795  .debug_str:00000000000018ed .LASF867
C:\Users\stapi\AppData\Local\Temp\cckpGNDB.s:22819  .debug_str:000000000000198b .LASF868
C:\Users\stapi\AppData\Local\Temp\cckpGNDB.s:23013  .debug_str:0000000000001ecf .LASF869
C:\Users\stapi\AppData\Local\Temp\cckpGNDB.s:24853  .debug_str:00000000000054c8 .LASF870
C:\Users\stapi\AppData\Local\Temp\cckpGNDB.s:22817  .debug_str:0000000000001979 .LASF871
C:\Users\stapi\AppData\Local\Temp\cckpGNDB.s:22011  .debug_str:000000000000026c .LASF872
C:\Users\stapi\AppData\Local\Temp\cckpGNDB.s:22471  .debug_str:0000000000000f52 .LASF873
C:\Users\stapi\AppData\Local\Temp\cckpGNDB.s:22403  .debug_str:0000000000000d68 .LASF874
C:\Users\stapi\AppData\Local\Temp\cckpGNDB.s:23141  .debug_str:000000000000223c .LASF875
C:\Users\stapi\AppData\Local\Temp\cckpGNDB.s:23899  .debug_str:00000000000039da .LASF876
C:\Users\stapi\AppData\Local\Temp\cckpGNDB.s:24751  .debug_str:00000000000051be .LASF877
C:\Users\stapi\AppData\Local\Temp\cckpGNDB.s:23191  .debug_str:00000000000023c3 .LASF878
C:\Users\stapi\AppData\Local\Temp\cckpGNDB.s:23999  .debug_str:0000000000003ce8 .LASF879
C:\Users\stapi\AppData\Local\Temp\cckpGNDB.s:24523  .debug_str:0000000000004b37 .LASF880
C:\Users\stapi\AppData\Local\Temp\cckpGNDB.s:22731  .debug_str:000000000000171f .LASF881
C:\Users\stapi\AppData\Local\Temp\cckpGNDB.s:25071  .debug_str:0000000000005b3b .LASF882
C:\Users\stapi\AppData\Local\Temp\cckpGNDB.s:24557  .debug_str:0000000000004c54 .LASF883
C:\Users\stapi\AppData\Local\Temp\cckpGNDB.s:22553  .debug_str:000000000000122d .LASF884
C:\Users\stapi\AppData\Local\Temp\cckpGNDB.s:23903  .debug_str:00000000000039ec .LASF885
C:\Users\stapi\AppData\Local\Temp\cckpGNDB.s:22195  .debug_str:00000000000007b9 .LASF886
C:\Users\stapi\AppData\Local\Temp\cckpGNDB.s:22319  .debug_str:0000000000000adf .LASF887
C:\Users\stapi\AppData\Local\Temp\cckpGNDB.s:23167  .debug_str:00000000000022fe .LASF888
C:\Users\stapi\AppData\Local\Temp\cckpGNDB.s:22381  .debug_str:0000000000000cac .LASF889
C:\Users\stapi\AppData\Local\Temp\cckpGNDB.s:23647  .debug_str:000000000000313d .LASF890
C:\Users\stapi\AppData\Local\Temp\cckpGNDB.s:24167  .debug_str:00000000000041b4 .LASF891
C:\Users\stapi\AppData\Local\Temp\cckpGNDB.s:25089  .debug_str:0000000000005bc0 .LASF892
C:\Users\stapi\AppData\Local\Temp\cckpGNDB.s:22599  .debug_str:0000000000001360 .LASF893
C:\Users\stapi\AppData\Local\Temp\cckpGNDB.s:22251  .debug_str:000000000000090b .LASF894
C:\Users\stapi\AppData\Local\Temp\cckpGNDB.s:24191  .debug_str:0000000000004250 .LASF895
C:\Users\stapi\AppData\Local\Temp\cckpGNDB.s:23463  .debug_str:0000000000002c2a .LASF896
C:\Users\stapi\AppData\Local\Temp\cckpGNDB.s:22237  .debug_str:00000000000008a5 .LASF897
C:\Users\stapi\AppData\Local\Temp\cckpGNDB.s:23975  .debug_str:0000000000003c3b .LASF898
C:\Users\stapi\AppData\Local\Temp\cckpGNDB.s:22771  .debug_str:0000000000001838 .LASF899
C:\Users\stapi\AppData\Local\Temp\cckpGNDB.s:22665  .debug_str:000000000000154a .LASF900
C:\Users\stapi\AppData\Local\Temp\cckpGNDB.s:23951  .debug_str:0000000000003b81 .LASF901
C:\Users\stapi\AppData\Local\Temp\cckpGNDB.s:22285  .debug_str:0000000000000a08 .LASF902
C:\Users\stapi\AppData\Local\Temp\cckpGNDB.s:25043  .debug_str:0000000000005a7f .LASF903
C:\Users\stapi\AppData\Local\Temp\cckpGNDB.s:25063  .debug_str:0000000000005b0b .LASF904
C:\Users\stapi\AppData\Local\Temp\cckpGNDB.s:21967  .debug_str:000000000000011b .LASF905
C:\Users\stapi\AppData\Local\Temp\cckpGNDB.s:22231  .debug_str:0000000000000889 .LASF906
C:\Users\stapi\AppData\Local\Temp\cckpGNDB.s:24111  .debug_str:0000000000004048 .LASF907
C:\Users\stapi\AppData\Local\Temp\cckpGNDB.s:24357  .debug_str:00000000000046be .LASF908
C:\Users\stapi\AppData\Local\Temp\cckpGNDB.s:22563  .debug_str:000000000000127f .LASF909
C:\Users\stapi\AppData\Local\Temp\cckpGNDB.s:23123  .debug_str:00000000000021b7 .LASF910
C:\Users\stapi\AppData\Local\Temp\cckpGNDB.s:23937  .debug_str:0000000000003b11 .LASF911
C:\Users\stapi\AppData\Local\Temp\cckpGNDB.s:22001  .debug_str:0000000000000227 .LASF912
C:\Users\stapi\AppData\Local\Temp\cckpGNDB.s:23139  .debug_str:000000000000222f .LASF913
C:\Users\stapi\AppData\Local\Temp\cckpGNDB.s:22329  .debug_str:0000000000000b1b .LASF914
C:\Users\stapi\AppData\Local\Temp\cckpGNDB.s:24001  .debug_str:0000000000003d05 .LASF915
C:\Users\stapi\AppData\Local\Temp\cckpGNDB.s:22445  .debug_str:0000000000000eae .LASF916
C:\Users\stapi\AppData\Local\Temp\cckpGNDB.s:23241  .debug_str:0000000000002540 .LASF917
C:\Users\stapi\AppData\Local\Temp\cckpGNDB.s:23455  .debug_str:0000000000002bf2 .LASF918
C:\Users\stapi\AppData\Local\Temp\cckpGNDB.s:22275  .debug_str:00000000000009c5 .LASF919
C:\Users\stapi\AppData\Local\Temp\cckpGNDB.s:24903  .debug_str:0000000000005634 .LASF920
C:\Users\stapi\AppData\Local\Temp\cckpGNDB.s:23411  .debug_str:0000000000002a97 .LASF921
C:\Users\stapi\AppData\Local\Temp\cckpGNDB.s:24249  .debug_str:00000000000043c5 .LASF922
C:\Users\stapi\AppData\Local\Temp\cckpGNDB.s:22919  .debug_str:0000000000001c31 .LASF923
C:\Users\stapi\AppData\Local\Temp\cckpGNDB.s:24329  .debug_str:0000000000004609 .LASF924
C:\Users\stapi\AppData\Local\Temp\cckpGNDB.s:24303  .debug_str:0000000000004545 .LASF925
C:\Users\stapi\AppData\Local\Temp\cckpGNDB.s:22325  .debug_str:0000000000000b07 .LASF926
C:\Users\stapi\AppData\Local\Temp\cckpGNDB.s:23365  .debug_str:0000000000002924 .LASF927
C:\Users\stapi\AppData\Local\Temp\cckpGNDB.s:22367  .debug_str:0000000000000c3d .LASF928
C:\Users\stapi\AppData\Local\Temp\cckpGNDB.s:25067  .debug_str:0000000000005b1d .LASF929
C:\Users\stapi\AppData\Local\Temp\cckpGNDB.s:22773  .debug_str:0000000000001852 .LASF930
C:\Users\stapi\AppData\Local\Temp\cckpGNDB.s:23505  .debug_str:0000000000002d46 .LASF931
C:\Users\stapi\AppData\Local\Temp\cckpGNDB.s:23443  .debug_str:0000000000002b9a .LASF932
C:\Users\stapi\AppData\Local\Temp\cckpGNDB.s:24543  .debug_str:0000000000004bf5 .LASF933
C:\Users\stapi\AppData\Local\Temp\cckpGNDB.s:23551  .debug_str:0000000000002e93 .LASF934
C:\Users\stapi\AppData\Local\Temp\cckpGNDB.s:21971  .debug_str:0000000000000131 .LASF935
C:\Users\stapi\AppData\Local\Temp\cckpGNDB.s:24443  .debug_str:00000000000048f7 .LASF936
C:\Users\stapi\AppData\Local\Temp\cckpGNDB.s:24719  .debug_str:00000000000050ea .LASF937
C:\Users\stapi\AppData\Local\Temp\cckpGNDB.s:22233  .debug_str:000000000000088e .LASF938
C:\Users\stapi\AppData\Local\Temp\cckpGNDB.s:22999  .debug_str:0000000000001e5d .LASF939
C:\Users\stapi\AppData\Local\Temp\cckpGNDB.s:24521  .debug_str:0000000000004b2c .LASF940
C:\Users\stapi\AppData\Local\Temp\cckpGNDB.s:25103  .debug_str:0000000000005c2e .LASF941
C:\Users\stapi\AppData\Local\Temp\cckpGNDB.s:24305  .debug_str:0000000000004557 .LASF942
C:\Users\stapi\AppData\Local\Temp\cckpGNDB.s:22635  .debug_str:0000000000001460 .LASF943
C:\Users\stapi\AppData\Local\Temp\cckpGNDB.s:24633  .debug_str:0000000000004e4e .LASF944
C:\Users\stapi\AppData\Local\Temp\cckpGNDB.s:25273  .debug_str:000000000000616d .LASF945
C:\Users\stapi\AppData\Local\Temp\cckpGNDB.s:24497  .debug_str:0000000000004a93 .LASF946
C:\Users\stapi\AppData\Local\Temp\cckpGNDB.s:22561  .debug_str:0000000000001272 .LASF947
C:\Users\stapi\AppData\Local\Temp\cckpGNDB.s:23523  .debug_str:0000000000002dd2 .LASF948
C:\Users\stapi\AppData\Local\Temp\cckpGNDB.s:23559  .debug_str:0000000000002ecd .LASF949
C:\Users\stapi\AppData\Local\Temp\cckpGNDB.s:24561  .debug_str:0000000000004c67 .LASF950
C:\Users\stapi\AppData\Local\Temp\cckpGNDB.s:25227  .debug_str:0000000000006015 .LASF951
C:\Users\stapi\AppData\Local\Temp\cckpGNDB.s:23619  .debug_str:0000000000003070 .LASF952
C:\Users\stapi\AppData\Local\Temp\cckpGNDB.s:23457  .debug_str:0000000000002bfd .LASF953
C:\Users\stapi\AppData\Local\Temp\cckpGNDB.s:23391  .debug_str:00000000000029d9 .LASF954
C:\Users\stapi\AppData\Local\Temp\cckpGNDB.s:22873  .debug_str:0000000000001ae4 .LASF955
C:\Users\stapi\AppData\Local\Temp\cckpGNDB.s:24199  .debug_str:000000000000428b .LASF956
C:\Users\stapi\AppData\Local\Temp\cckpGNDB.s:22781  .debug_str:0000000000001893 .LASF957
C:\Users\stapi\AppData\Local\Temp\cckpGNDB.s:23683  .debug_str:000000000000325d .LASF958
C:\Users\stapi\AppData\Local\Temp\cckpGNDB.s:24827  .debug_str:000000000000540d .LASF959
C:\Users\stapi\AppData\Local\Temp\cckpGNDB.s:24313  .debug_str:000000000000458b .LASF960
C:\Users\stapi\AppData\Local\Temp\cckpGNDB.s:25333  .debug_str:0000000000006330 .LASF961
C:\Users\stapi\AppData\Local\Temp\cckpGNDB.s:24623  .debug_str:0000000000004e1b .LASF962
C:\Users\stapi\AppData\Local\Temp\cckpGNDB.s:23035  .debug_str:0000000000001f57 .LASF963
C:\Users\stapi\AppData\Local\Temp\cckpGNDB.s:22575  .debug_str:00000000000012d3 .LASF964
C:\Users\stapi\AppData\Local\Temp\cckpGNDB.s:23263  .debug_str:00000000000025f4 .LASF965
C:\Users\stapi\AppData\Local\Temp\cckpGNDB.s:24943  .debug_str:000000000000575d .LASF966
C:\Users\stapi\AppData\Local\Temp\cckpGNDB.s:24017  .debug_str:0000000000003d78 .LASF967
C:\Users\stapi\AppData\Local\Temp\cckpGNDB.s:21959  .debug_str:00000000000000de .LASF968
C:\Users\stapi\AppData\Local\Temp\cckpGNDB.s:23153  .debug_str:0000000000002287 .LASF969
C:\Users\stapi\AppData\Local\Temp\cckpGNDB.s:23679  .debug_str:0000000000003243 .LASF970
C:\Users\stapi\AppData\Local\Temp\cckpGNDB.s:22169  .debug_str:00000000000006f3 .LASF971
C:\Users\stapi\AppData\Local\Temp\cckpGNDB.s:22069  .debug_str:0000000000000413 .LASF972
C:\Users\stapi\AppData\Local\Temp\cckpGNDB.s:24257  .debug_str:00000000000043fd .LASF973
C:\Users\stapi\AppData\Local\Temp\cckpGNDB.s:23927  .debug_str:0000000000003ac2 .LASF974
C:\Users\stapi\AppData\Local\Temp\cckpGNDB.s:23489  .debug_str:0000000000002ce2 .LASF975
C:\Users\stapi\AppData\Local\Temp\cckpGNDB.s:24095  .debug_str:0000000000003fc8 .LASF976
C:\Users\stapi\AppData\Local\Temp\cckpGNDB.s:22147  .debug_str:0000000000000654 .LASF977
C:\Users\stapi\AppData\Local\Temp\cckpGNDB.s:22565  .debug_str:0000000000001293 .LASF978
C:\Users\stapi\AppData\Local\Temp\cckpGNDB.s:24041  .debug_str:0000000000003e23 .LASF979
C:\Users\stapi\AppData\Local\Temp\cckpGNDB.s:25259  .debug_str:000000000000611f .LASF980
C:\Users\stapi\AppData\Local\Temp\cckpGNDB.s:25177  .debug_str:0000000000005ea2 .LASF981
C:\Users\stapi\AppData\Local\Temp\cckpGNDB.s:24487  .debug_str:0000000000004a46 .LASF982
C:\Users\stapi\AppData\Local\Temp\cckpGNDB.s:21989  .debug_str:00000000000001ca .LASF983
C:\Users\stapi\AppData\Local\Temp\cckpGNDB.s:24275  .debug_str:0000000000004499 .LASF984
C:\Users\stapi\AppData\Local\Temp\cckpGNDB.s:22309  .debug_str:0000000000000aa6 .LASF985
C:\Users\stapi\AppData\Local\Temp\cckpGNDB.s:24819  .debug_str:00000000000053d6 .LASF986
C:\Users\stapi\AppData\Local\Temp\cckpGNDB.s:24649  .debug_str:0000000000004edb .LASF987
C:\Users\stapi\AppData\Local\Temp\cckpGNDB.s:24861  .debug_str:0000000000005500 .LASF988
C:\Users\stapi\AppData\Local\Temp\cckpGNDB.s:23709  .debug_str:0000000000003317 .LASF989
C:\Users\stapi\AppData\Local\Temp\cckpGNDB.s:24869  .debug_str:0000000000005545 .LASF990
C:\Users\stapi\AppData\Local\Temp\cckpGNDB.s:23413  .debug_str:0000000000002aaa .LASF991
C:\Users\stapi\AppData\Local\Temp\cckpGNDB.s:22127  .debug_str:00000000000005c6 .LASF992
C:\Users\stapi\AppData\Local\Temp\cckpGNDB.s:23987  .debug_str:0000000000003c8f .LASF993
C:\Users\stapi\AppData\Local\Temp\cckpGNDB.s:22135  .debug_str:0000000000000603 .LASF994
C:\Users\stapi\AppData\Local\Temp\cckpGNDB.s:23945  .debug_str:0000000000003b44 .LASF995
C:\Users\stapi\AppData\Local\Temp\cckpGNDB.s:22571  .debug_str:00000000000012ba .LASF996
C:\Users\stapi\AppData\Local\Temp\cckpGNDB.s:23077  .debug_str:000000000000206f .LASF997
C:\Users\stapi\AppData\Local\Temp\cckpGNDB.s:24393  .debug_str:00000000000047ac .LASF998
C:\Users\stapi\AppData\Local\Temp\cckpGNDB.s:25083  .debug_str:0000000000005b97 .LASF999
C:\Users\stapi\AppData\Local\Temp\cckpGNDB.s:24215  .debug_str:00000000000042eb .LASF1000
C:\Users\stapi\AppData\Local\Temp\cckpGNDB.s:22747  .debug_str:0000000000001794 .LASF1001
C:\Users\stapi\AppData\Local\Temp\cckpGNDB.s:24153  .debug_str:000000000000415d .LASF1002
C:\Users\stapi\AppData\Local\Temp\cckpGNDB.s:22841  .debug_str:0000000000001a0e .LASF1003
C:\Users\stapi\AppData\Local\Temp\cckpGNDB.s:22721  .debug_str:00000000000016c0 .LASF1004
C:\Users\stapi\AppData\Local\Temp\cckpGNDB.s:23577  .debug_str:0000000000002f40 .LASF1005
C:\Users\stapi\AppData\Local\Temp\cckpGNDB.s:25115  .debug_str:0000000000005d04 .LASF1006
C:\Users\stapi\AppData\Local\Temp\cckpGNDB.s:23319  .debug_str:000000000000279a .LASF1007
C:\Users\stapi\AppData\Local\Temp\cckpGNDB.s:23421  .debug_str:0000000000002ae9 .LASF1008
C:\Users\stapi\AppData\Local\Temp\cckpGNDB.s:22117  .debug_str:0000000000000578 .LASF1009
C:\Users\stapi\AppData\Local\Temp\cckpGNDB.s:24909  .debug_str:000000000000566e .LASF1010
C:\Users\stapi\AppData\Local\Temp\cckpGNDB.s:25125  .debug_str:0000000000005d47 .LASF1011
C:\Users\stapi\AppData\Local\Temp\cckpGNDB.s:22221  .debug_str:0000000000000846 .LASF1012
C:\Users\stapi\AppData\Local\Temp\cckpGNDB.s:21941  .debug_str:0000000000000062 .LASF1013
C:\Users\stapi\AppData\Local\Temp\cckpGNDB.s:24447  .debug_str:0000000000004908 .LASF1014
C:\Users\stapi\AppData\Local\Temp\cckpGNDB.s:22603  .debug_str:0000000000001382 .LASF1015
C:\Users\stapi\AppData\Local\Temp\cckpGNDB.s:22823  .debug_str:00000000000019a1 .LASF1016
C:\Users\stapi\AppData\Local\Temp\cckpGNDB.s:23771  .debug_str:00000000000034f1 .LASF1017
C:\Users\stapi\AppData\Local\Temp\cckpGNDB.s:22181  .debug_str:0000000000000752 .LASF1018
C:\Users\stapi\AppData\Local\Temp\cckpGNDB.s:23515  .debug_str:0000000000002d94 .LASF1019
C:\Users\stapi\AppData\Local\Temp\cckpGNDB.s:23049  .debug_str:0000000000001fa7 .LASF1020
C:\Users\stapi\AppData\Local\Temp\cckpGNDB.s:22417  .debug_str:0000000000000deb .LASF1021
C:\Users\stapi\AppData\Local\Temp\cckpGNDB.s:24999  .debug_str:0000000000005931 .LASF1022
C:\Users\stapi\AppData\Local\Temp\cckpGNDB.s:23313  .debug_str:000000000000276e .LASF1023
C:\Users\stapi\AppData\Local\Temp\cckpGNDB.s:24717  .debug_str:00000000000050e3 .LASF1024
C:\Users\stapi\AppData\Local\Temp\cckpGNDB.s:24705  .debug_str:0000000000005084 .LASF1025
C:\Users\stapi\AppData\Local\Temp\cckpGNDB.s:24045  .debug_str:0000000000003e44 .LASF1026
C:\Users\stapi\AppData\Local\Temp\cckpGNDB.s:23497  .debug_str:0000000000002d0f .LASF1027
C:\Users\stapi\AppData\Local\Temp\cckpGNDB.s:24541  .debug_str:0000000000004bd8 .LASF1028
C:\Users\stapi\AppData\Local\Temp\cckpGNDB.s:24771  .debug_str:0000000000005252 .LASF1029
C:\Users\stapi\AppData\Local\Temp\cckpGNDB.s:22673  .debug_str:0000000000001588 .LASF1030
C:\Users\stapi\AppData\Local\Temp\cckpGNDB.s:22527  .debug_str:0000000000001173 .LASF1031
C:\Users\stapi\AppData\Local\Temp\cckpGNDB.s:24673  .debug_str:0000000000004f87 .LASF1032
C:\Users\stapi\AppData\Local\Temp\cckpGNDB.s:23609  .debug_str:000000000000302a .LASF1033
C:\Users\stapi\AppData\Local\Temp\cckpGNDB.s:22395  .debug_str:0000000000000d2b .LASF1034
C:\Users\stapi\AppData\Local\Temp\cckpGNDB.s:22623  .debug_str:0000000000001401 .LASF1035
C:\Users\stapi\AppData\Local\Temp\cckpGNDB.s:22217  .debug_str:0000000000000823 .LASF1036
C:\Users\stapi\AppData\Local\Temp\cckpGNDB.s:23343  .debug_str:0000000000002866 .LASF1037
C:\Users\stapi\AppData\Local\Temp\cckpGNDB.s:22833  .debug_str:00000000000019cc .LASF1038
C:\Users\stapi\AppData\Local\Temp\cckpGNDB.s:24665  .debug_str:0000000000004f47 .LASF1039
C:\Users\stapi\AppData\Local\Temp\cckpGNDB.s:24143  .debug_str:000000000000410d .LASF1040
C:\Users\stapi\AppData\Local\Temp\cckpGNDB.s:22909  .debug_str:0000000000001bde .LASF1041
C:\Users\stapi\AppData\Local\Temp\cckpGNDB.s:22937  .debug_str:0000000000001cc2 .LASF1042
C:\Users\stapi\AppData\Local\Temp\cckpGNDB.s:23309  .debug_str:0000000000002745 .LASF1043
C:\Users\stapi\AppData\Local\Temp\cckpGNDB.s:24309  .debug_str:0000000000004574 .LASF1044
C:\Users\stapi\AppData\Local\Temp\cckpGNDB.s:24125  .debug_str:00000000000040a2 .LASF1045
C:\Users\stapi\AppData\Local\Temp\cckpGNDB.s:25001  .debug_str:000000000000593c .LASF1046
C:\Users\stapi\AppData\Local\Temp\cckpGNDB.s:24179  .debug_str:000000000000420a .LASF1047
C:\Users\stapi\AppData\Local\Temp\cckpGNDB.s:24953  .debug_str:00000000000057b5 .LASF1048
C:\Users\stapi\AppData\Local\Temp\cckpGNDB.s:24933  .debug_str:000000000000572d .LASF1049
C:\Users\stapi\AppData\Local\Temp\cckpGNDB.s:23785  .debug_str:000000000000356f .LASF1050
C:\Users\stapi\AppData\Local\Temp\cckpGNDB.s:22683  .debug_str:00000000000015d0 .LASF1051
C:\Users\stapi\AppData\Local\Temp\cckpGNDB.s:24801  .debug_str:000000000000532d .LASF1052
C:\Users\stapi\AppData\Local\Temp\cckpGNDB.s:23691  .debug_str:0000000000003290 .LASF1053
C:\Users\stapi\AppData\Local\Temp\cckpGNDB.s:23095  .debug_str:00000000000020e0 .LASF1054
C:\Users\stapi\AppData\Local\Temp\cckpGNDB.s:22657  .debug_str:000000000000150d .LASF1055
C:\Users\stapi\AppData\Local\Temp\cckpGNDB.s:22177  .debug_str:0000000000000736 .LASF1056
C:\Users\stapi\AppData\Local\Temp\cckpGNDB.s:24407  .debug_str:0000000000004803 .LASF1057
C:\Users\stapi\AppData\Local\Temp\cckpGNDB.s:22805  .debug_str:000000000000192d .LASF1058
C:\Users\stapi\AppData\Local\Temp\cckpGNDB.s:23735  .debug_str:00000000000033db .LASF1059
C:\Users\stapi\AppData\Local\Temp\cckpGNDB.s:24535  .debug_str:0000000000004bac .LASF1060
C:\Users\stapi\AppData\Local\Temp\cckpGNDB.s:23479  .debug_str:0000000000002c8a .LASF1061
C:\Users\stapi\AppData\Local\Temp\cckpGNDB.s:24115  .debug_str:000000000000405d .LASF1062
C:\Users\stapi\AppData\Local\Temp\cckpGNDB.s:22765  .debug_str:0000000000001810 .LASF1063
C:\Users\stapi\AppData\Local\Temp\cckpGNDB.s:23503  .debug_str:0000000000002d30 .LASF1064
C:\Users\stapi\AppData\Local\Temp\cckpGNDB.s:24281  .debug_str:00000000000044bd .LASF1065
C:\Users\stapi\AppData\Local\Temp\cckpGNDB.s:22433  .debug_str:0000000000000e57 .LASF1066
C:\Users\stapi\AppData\Local\Temp\cckpGNDB.s:24247  .debug_str:00000000000043b4 .LASF1067
C:\Users\stapi\AppData\Local\Temp\cckpGNDB.s:25107  .debug_str:0000000000005c40 .LASF1068
C:\Users\stapi\AppData\Local\Temp\cckpGNDB.s:23979  .debug_str:0000000000003c5b .LASF1069
C:\Users\stapi\AppData\Local\Temp\cckpGNDB.s:24651  .debug_str:0000000000004ee4 .LASF1070
C:\Users\stapi\AppData\Local\Temp\cckpGNDB.s:24837  .debug_str:000000000000545e .LASF1071
C:\Users\stapi\AppData\Local\Temp\cckpGNDB.s:23089  .debug_str:00000000000020c4 .LASF1072
C:\Users\stapi\AppData\Local\Temp\cckpGNDB.s:23835  .debug_str:00000000000036f0 .LASF1073
C:\Users\stapi\AppData\Local\Temp\cckpGNDB.s:23961  .debug_str:0000000000003bc9 .LASF1074
C:\Users\stapi\AppData\Local\Temp\cckpGNDB.s:22671  .debug_str:0000000000001583 .LASF1075
C:\Users\stapi\AppData\Local\Temp\cckpGNDB.s:22717  .debug_str:00000000000016a2 .LASF1076
C:\Users\stapi\AppData\Local\Temp\cckpGNDB.s:22493  .debug_str:0000000000001069 .LASF1077
C:\Users\stapi\AppData\Local\Temp\cckpGNDB.s:22123  .debug_str:00000000000005ac .LASF1078
C:\Users\stapi\AppData\Local\Temp\cckpGNDB.s:24421  .debug_str:0000000000004873 .LASF1079
C:\Users\stapi\AppData\Local\Temp\cckpGNDB.s:22787  .debug_str:00000000000018c0 .LASF1080
C:\Users\stapi\AppData\Local\Temp\cckpGNDB.s:23897  .debug_str:00000000000039cb .LASF1081
C:\Users\stapi\AppData\Local\Temp\cckpGNDB.s:24459  .debug_str:0000000000004961 .LASF1082
C:\Users\stapi\AppData\Local\Temp\cckpGNDB.s:22791  .debug_str:00000000000018d1 .LASF1083
C:\Users\stapi\AppData\Local\Temp\cckpGNDB.s:23335  .debug_str:0000000000002827 .LASF1084
C:\Users\stapi\AppData\Local\Temp\cckpGNDB.s:24871  .debug_str:0000000000005558 .LASF1085
C:\Users\stapi\AppData\Local\Temp\cckpGNDB.s:22343  .debug_str:0000000000000b93 .LASF1086
C:\Users\stapi\AppData\Local\Temp\cckpGNDB.s:24295  .debug_str:0000000000004513 .LASF1087
C:\Users\stapi\AppData\Local\Temp\cckpGNDB.s:22535  .debug_str:00000000000011b1 .LASF1088
C:\Users\stapi\AppData\Local\Temp\cckpGNDB.s:24099  .debug_str:0000000000003fe7 .LASF1089
C:\Users\stapi\AppData\Local\Temp\cckpGNDB.s:25031  .debug_str:0000000000005a20 .LASF1090
C:\Users\stapi\AppData\Local\Temp\cckpGNDB.s:25311  .debug_str:0000000000006293 .LASF1091
C:\Users\stapi\AppData\Local\Temp\cckpGNDB.s:23547  .debug_str:0000000000002e77 .LASF1092
C:\Users\stapi\AppData\Local\Temp\cckpGNDB.s:22567  .debug_str:000000000000129a .LASF1093
C:\Users\stapi\AppData\Local\Temp\cckpGNDB.s:24269  .debug_str:0000000000004463 .LASF1094
C:\Users\stapi\AppData\Local\Temp\cckpGNDB.s:24375  .debug_str:0000000000004730 .LASF1095
C:\Users\stapi\AppData\Local\Temp\cckpGNDB.s:24839  .debug_str:0000000000005464 .LASF1096
C:\Users\stapi\AppData\Local\Temp\cckpGNDB.s:24133  .debug_str:00000000000040d2 .LASF1097
C:\Users\stapi\AppData\Local\Temp\cckpGNDB.s:24955  .debug_str:00000000000057ca .LASF1098
C:\Users\stapi\AppData\Local\Temp\cckpGNDB.s:23477  .debug_str:0000000000002c84 .LASF1099
C:\Users\stapi\AppData\Local\Temp\cckpGNDB.s:24715  .debug_str:00000000000050d6 .LASF1100
C:\Users\stapi\AppData\Local\Temp\cckpGNDB.s:22139  .debug_str:0000000000000621 .LASF1101
C:\Users\stapi\AppData\Local\Temp\cckpGNDB.s:23613  .debug_str:0000000000003048 .LASF1102
C:\Users\stapi\AppData\Local\Temp\cckpGNDB.s:22281  .debug_str:00000000000009ef .LASF1103
C:\Users\stapi\AppData\Local\Temp\cckpGNDB.s:23079  .debug_str:000000000000207c .LASF1104
C:\Users\stapi\AppData\Local\Temp\cckpGNDB.s:25027  .debug_str:00000000000059f6 .LASF1105
C:\Users\stapi\AppData\Local\Temp\cckpGNDB.s:24085  .debug_str:0000000000003f76 .LASF1106
C:\Users\stapi\AppData\Local\Temp\cckpGNDB.s:24991  .debug_str:00000000000058f9 .LASF1107
C:\Users\stapi\AppData\Local\Temp\cckpGNDB.s:22301  .debug_str:0000000000000a78 .LASF1108
C:\Users\stapi\AppData\Local\Temp\cckpGNDB.s:24529  .debug_str:0000000000004b77 .LASF1109
C:\Users\stapi\AppData\Local\Temp\cckpGNDB.s:22427  .debug_str:0000000000000e22 .LASF1110
C:\Users\stapi\AppData\Local\Temp\cckpGNDB.s:22989  .debug_str:0000000000001e13 .LASF1111
C:\Users\stapi\AppData\Local\Temp\cckpGNDB.s:23161  .debug_str:00000000000022c4 .LASF1112
C:\Users\stapi\AppData\Local\Temp\cckpGNDB.s:23197  .debug_str:00000000000023f2 .LASF1113
C:\Users\stapi\AppData\Local\Temp\cckpGNDB.s:23729  .debug_str:00000000000033b5 .LASF1114
C:\Users\stapi\AppData\Local\Temp\cckpGNDB.s:25223  .debug_str:0000000000005ff3 .LASF1115
C:\Users\stapi\AppData\Local\Temp\cckpGNDB.s:23183  .debug_str:0000000000002384 .LASF1116
C:\Users\stapi\AppData\Local\Temp\cckpGNDB.s:22461  .debug_str:0000000000000f10 .LASF1117
C:\Users\stapi\AppData\Local\Temp\cckpGNDB.s:25073  .debug_str:0000000000005b51 .LASF1118
C:\Users\stapi\AppData\Local\Temp\cckpGNDB.s:23407  .debug_str:0000000000002a77 .LASF1119
C:\Users\stapi\AppData\Local\Temp\cckpGNDB.s:22829  .debug_str:00000000000019be .LASF1120
C:\Users\stapi\AppData\Local\Temp\cckpGNDB.s:22801  .debug_str:0000000000001914 .LASF1121
C:\Users\stapi\AppData\Local\Temp\cckpGNDB.s:22531  .debug_str:000000000000118d .LASF1122
C:\Users\stapi\AppData\Local\Temp\cckpGNDB.s:25079  .debug_str:0000000000005b7c .LASF1123
C:\Users\stapi\AppData\Local\Temp\cckpGNDB.s:24173  .debug_str:00000000000041e3 .LASF1124
C:\Users\stapi\AppData\Local\Temp\cckpGNDB.s:24109  .debug_str:000000000000403a .LASF1125
C:\Users\stapi\AppData\Local\Temp\cckpGNDB.s:23535  .debug_str:0000000000002e19 .LASF1126
C:\Users\stapi\AppData\Local\Temp\cckpGNDB.s:22053  .debug_str:00000000000003b2 .LASF1127
C:\Users\stapi\AppData\Local\Temp\cckpGNDB.s:22709  .debug_str:0000000000001672 .LASF1128
C:\Users\stapi\AppData\Local\Temp\cckpGNDB.s:23959  .debug_str:0000000000003bb8 .LASF1129
C:\Users\stapi\AppData\Local\Temp\cckpGNDB.s:22889  .debug_str:0000000000001b53 .LASF1130
C:\Users\stapi\AppData\Local\Temp\cckpGNDB.s:24267  .debug_str:0000000000004458 .LASF1131
C:\Users\stapi\AppData\Local\Temp\cckpGNDB.s:24607  .debug_str:0000000000004db2 .LASF1132
C:\Users\stapi\AppData\Local\Temp\cckpGNDB.s:22687  .debug_str:00000000000015e1 .LASF1133
C:\Users\stapi\AppData\Local\Temp\cckpGNDB.s:23907  .debug_str:0000000000003a06 .LASF1134
C:\Users\stapi\AppData\Local\Temp\cckpGNDB.s:23669  .debug_str:00000000000031fa .LASF1135
C:\Users\stapi\AppData\Local\Temp\cckpGNDB.s:23671  .debug_str:0000000000003207 .LASF1136
C:\Users\stapi\AppData\Local\Temp\cckpGNDB.s:24547  .debug_str:0000000000004c17 .LASF1137
C:\Users\stapi\AppData\Local\Temp\cckpGNDB.s:22393  .debug_str:0000000000000d10 .LASF1138
C:\Users\stapi\AppData\Local\Temp\cckpGNDB.s:25331  .debug_str:0000000000006327 .LASF1139
C:\Users\stapi\AppData\Local\Temp\cckpGNDB.s:23017  .debug_str:0000000000001edd .LASF1140
C:\Users\stapi\AppData\Local\Temp\cckpGNDB.s:24307  .debug_str:0000000000004568 .LASF1141
C:\Users\stapi\AppData\Local\Temp\cckpGNDB.s:23031  .debug_str:0000000000001f42 .LASF1142
C:\Users\stapi\AppData\Local\Temp\cckpGNDB.s:22235  .debug_str:000000000000089c .LASF1143
C:\Users\stapi\AppData\Local\Temp\cckpGNDB.s:22875  .debug_str:0000000000001aed .LASF1144
C:\Users\stapi\AppData\Local\Temp\cckpGNDB.s:25191  .debug_str:0000000000005f04 .LASF1145
C:\Users\stapi\AppData\Local\Temp\cckpGNDB.s:22013  .debug_str:000000000000027e .LASF1146
C:\Users\stapi\AppData\Local\Temp\cckpGNDB.s:22509  .debug_str:00000000000010e4 .LASF1147
C:\Users\stapi\AppData\Local\Temp\cckpGNDB.s:24667  .debug_str:0000000000004f56 .LASF1148
C:\Users\stapi\AppData\Local\Temp\cckpGNDB.s:23317  .debug_str:0000000000002790 .LASF1149
C:\Users\stapi\AppData\Local\Temp\cckpGNDB.s:23157  .debug_str:00000000000022a5 .LASF1150
C:\Users\stapi\AppData\Local\Temp\cckpGNDB.s:22579  .debug_str:00000000000012e9 .LASF1151
C:\Users\stapi\AppData\Local\Temp\cckpGNDB.s:22015  .debug_str:0000000000000289 .LASF1152
C:\Users\stapi\AppData\Local\Temp\cckpGNDB.s:24217  .debug_str:00000000000042f5 .LASF1153
C:\Users\stapi\AppData\Local\Temp\cckpGNDB.s:23955  .debug_str:0000000000003b9a .LASF1154
C:\Users\stapi\AppData\Local\Temp\cckpGNDB.s:25093  .debug_str:0000000000005be3 .LASF1155
C:\Users\stapi\AppData\Local\Temp\cckpGNDB.s:25133  .debug_str:0000000000005d8f .LASF1156
C:\Users\stapi\AppData\Local\Temp\cckpGNDB.s:23901  .debug_str:00000000000039e6 .LASF1157
C:\Users\stapi\AppData\Local\Temp\cckpGNDB.s:23689  .debug_str:0000000000003284 .LASF1158
C:\Users\stapi\AppData\Local\Temp\cckpGNDB.s:22737  .debug_str:000000000000175e .LASF1159
C:\Users\stapi\AppData\Local\Temp\cckpGNDB.s:24993  .debug_str:0000000000005907 .LASF1160
C:\Users\stapi\AppData\Local\Temp\cckpGNDB.s:24699  .debug_str:000000000000506a .LASF1161
C:\Users\stapi\AppData\Local\Temp\cckpGNDB.s:22983  .debug_str:0000000000001df3 .LASF1162
C:\Users\stapi\AppData\Local\Temp\cckpGNDB.s:23659  .debug_str:00000000000031b0 .LASF1163
C:\Users\stapi\AppData\Local\Temp\cckpGNDB.s:22109  .debug_str:0000000000000543 .LASF1164
C:\Users\stapi\AppData\Local\Temp\cckpGNDB.s:23889  .debug_str:000000000000398a .LASF1165
C:\Users\stapi\AppData\Local\Temp\cckpGNDB.s:22573  .debug_str:00000000000012c7 .LASF1166
C:\Users\stapi\AppData\Local\Temp\cckpGNDB.s:22837  .debug_str:00000000000019f1 .LASF1167
C:\Users\stapi\AppData\Local\Temp\cckpGNDB.s:23605  .debug_str:0000000000003004 .LASF1168
C:\Users\stapi\AppData\Local\Temp\cckpGNDB.s:23423  .debug_str:0000000000002af8 .LASF1169
C:\Users\stapi\AppData\Local\Temp\cckpGNDB.s:23935  .debug_str:0000000000003b02 .LASF1170
C:\Users\stapi\AppData\Local\Temp\cckpGNDB.s:24373  .debug_str:000000000000471d .LASF1171
C:\Users\stapi\AppData\Local\Temp\cckpGNDB.s:22077  .debug_str:000000000000045a .LASF1172
C:\Users\stapi\AppData\Local\Temp\cckpGNDB.s:22003  .debug_str:0000000000000231 .LASF1173
C:\Users\stapi\AppData\Local\Temp\cckpGNDB.s:22179  .debug_str:0000000000000741 .LASF1174
C:\Users\stapi\AppData\Local\Temp\cckpGNDB.s:24265  .debug_str:000000000000444e .LASF1175
C:\Users\stapi\AppData\Local\Temp\cckpGNDB.s:22167  .debug_str:00000000000006e4 .LASF1176
C:\Users\stapi\AppData\Local\Temp\cckpGNDB.s:24009  .debug_str:0000000000003d38 .LASF1177
C:\Users\stapi\AppData\Local\Temp\cckpGNDB.s:25315  .debug_str:00000000000062ae .LASF1178
C:\Users\stapi\AppData\Local\Temp\cckpGNDB.s:24697  .debug_str:000000000000505f .LASF1179
C:\Users\stapi\AppData\Local\Temp\cckpGNDB.s:24135  .debug_str:00000000000040dc .LASF1180
C:\Users\stapi\AppData\Local\Temp\cckpGNDB.s:25111  .debug_str:0000000000005c60 .LASF1181
C:\Users\stapi\AppData\Local\Temp\cckpGNDB.s:23165  .debug_str:00000000000022ed .LASF1182
C:\Users\stapi\AppData\Local\Temp\cckpGNDB.s:24103  .debug_str:0000000000004006 .LASF1183
C:\Users\stapi\AppData\Local\Temp\cckpGNDB.s:22165  .debug_str:00000000000006d5 .LASF1184
C:\Users\stapi\AppData\Local\Temp\cckpGNDB.s:24331  .debug_str:0000000000004617 .LASF1185
C:\Users\stapi\AppData\Local\Temp\cckpGNDB.s:24745  .debug_str:000000000000519c .LASF1186
C:\Users\stapi\AppData\Local\Temp\cckpGNDB.s:24573  .debug_str:0000000000004ca2 .LASF1187
C:\Users\stapi\AppData\Local\Temp\cckpGNDB.s:23015  .debug_str:0000000000001ed8 .LASF1188
C:\Users\stapi\AppData\Local\Temp\cckpGNDB.s:22463  .debug_str:0000000000000f19 .LASF1189
C:\Users\stapi\AppData\Local\Temp\cckpGNDB.s:22945  .debug_str:0000000000001cea .LASF1190
C:\Users\stapi\AppData\Local\Temp\cckpGNDB.s:24129  .debug_str:00000000000040b7 .LASF1191
C:\Users\stapi\AppData\Local\Temp\cckpGNDB.s:23843  .debug_str:0000000000003719 .LASF1192
C:\Users\stapi\AppData\Local\Temp\cckpGNDB.s:25069  .debug_str:0000000000005b2b .LASF1193
C:\Users\stapi\AppData\Local\Temp\cckpGNDB.s:22317  .debug_str:0000000000000ad3 .LASF1194
C:\Users\stapi\AppData\Local\Temp\cckpGNDB.s:24925  .debug_str:00000000000056f0 .LASF1195
C:\Users\stapi\AppData\Local\Temp\cckpGNDB.s:22243  .debug_str:00000000000008ca .LASF1196
C:\Users\stapi\AppData\Local\Temp\cckpGNDB.s:21943  .debug_str:0000000000000070 .LASF1197
C:\Users\stapi\AppData\Local\Temp\cckpGNDB.s:24453  .debug_str:000000000000492d .LASF1198
C:\Users\stapi\AppData\Local\Temp\cckpGNDB.s:25289  .debug_str:00000000000061ef .LASF1199
C:\Users\stapi\AppData\Local\Temp\cckpGNDB.s:24977  .debug_str:000000000000588b .LASF1200
C:\Users\stapi\AppData\Local\Temp\cckpGNDB.s:24783  .debug_str:00000000000052b0 .LASF1201
C:\Users\stapi\AppData\Local\Temp\cckpGNDB.s:22605  .debug_str:000000000000138d .LASF1202
C:\Users\stapi\AppData\Local\Temp\cckpGNDB.s:23467  .debug_str:0000000000002c4a .LASF1203
C:\Users\stapi\AppData\Local\Temp\cckpGNDB.s:23067  .debug_str:000000000000202a .LASF1204
C:\Users\stapi\AppData\Local\Temp\cckpGNDB.s:22643  .debug_str:000000000000149e .LASF1205
C:\Users\stapi\AppData\Local\Temp\cckpGNDB.s:23351  .debug_str:00000000000028a0 .LASF1206
C:\Users\stapi\AppData\Local\Temp\cckpGNDB.s:22331  .debug_str:0000000000000b27 .LASF1207
C:\Users\stapi\AppData\Local\Temp\cckpGNDB.s:21933  .debug_str:0000000000000022 .LASF1208
C:\Users\stapi\AppData\Local\Temp\cckpGNDB.s:22005  .debug_str:000000000000023e .LASF1209
C:\Users\stapi\AppData\Local\Temp\cckpGNDB.s:22861  .debug_str:0000000000001a99 .LASF1210
C:\Users\stapi\AppData\Local\Temp\cckpGNDB.s:24553  .debug_str:0000000000004c3e .LASF1211
C:\Users\stapi\AppData\Local\Temp\cckpGNDB.s:24065  .debug_str:0000000000003eea .LASF1212
C:\Users\stapi\AppData\Local\Temp\cckpGNDB.s:24205  .debug_str:00000000000042ab .LASF1213
C:\Users\stapi\AppData\Local\Temp\cckpGNDB.s:23985  .debug_str:0000000000003c81 .LASF1214
C:\Users\stapi\AppData\Local\Temp\cckpGNDB.s:23403  .debug_str:0000000000002a58 .LASF1215
C:\Users\stapi\AppData\Local\Temp\cckpGNDB.s:24687  .debug_str:0000000000004ffc .LASF1216
C:\Users\stapi\AppData\Local\Temp\cckpGNDB.s:23875  .debug_str:0000000000003903 .LASF1217
C:\Users\stapi\AppData\Local\Temp\cckpGNDB.s:25109  .debug_str:0000000000005c45 .LASF1218
C:\Users\stapi\AppData\Local\Temp\cckpGNDB.s:25051  .debug_str:0000000000005ab5 .LASF1219
C:\Users\stapi\AppData\Local\Temp\cckpGNDB.s:22087  .debug_str:000000000000049a .LASF1220
C:\Users\stapi\AppData\Local\Temp\cckpGNDB.s:24415  .debug_str:0000000000004849 .LASF1221
C:\Users\stapi\AppData\Local\Temp\cckpGNDB.s:23913  .debug_str:0000000000003a2f .LASF1222
C:\Users\stapi\AppData\Local\Temp\cckpGNDB.s:22547  .debug_str:0000000000001201 .LASF1223
C:\Users\stapi\AppData\Local\Temp\cckpGNDB.s:24079  .debug_str:0000000000003f32 .LASF1224
C:\Users\stapi\AppData\Local\Temp\cckpGNDB.s:23105  .debug_str:0000000000002126 .LASF1225
C:\Users\stapi\AppData\Local\Temp\cckpGNDB.s:21955  .debug_str:00000000000000c3 .LASF1226
C:\Users\stapi\AppData\Local\Temp\cckpGNDB.s:24725  .debug_str:0000000000005105 .LASF1227
C:\Users\stapi\AppData\Local\Temp\cckpGNDB.s:24053  .debug_str:0000000000003e86 .LASF1228
C:\Users\stapi\AppData\Local\Temp\cckpGNDB.s:23065  .debug_str:0000000000002010 .LASF1229
C:\Users\stapi\AppData\Local\Temp\cckpGNDB.s:22269  .debug_str:000000000000099d .LASF1230
C:\Users\stapi\AppData\Local\Temp\cckpGNDB.s:22967  .debug_str:0000000000001d7d .LASF1231
C:\Users\stapi\AppData\Local\Temp\cckpGNDB.s:23821  .debug_str:0000000000003681 .LASF1232
C:\Users\stapi\AppData\Local\Temp\cckpGNDB.s:24055  .debug_str:0000000000003e91 .LASF1233
C:\Users\stapi\AppData\Local\Temp\cckpGNDB.s:23623  .debug_str:0000000000003086 .LASF1234
C:\Users\stapi\AppData\Local\Temp\cckpGNDB.s:24223  .debug_str:000000000000431b .LASF1235
C:\Users\stapi\AppData\Local\Temp\cckpGNDB.s:24481  .debug_str:0000000000004a18 .LASF1236
C:\Users\stapi\AppData\Local\Temp\cckpGNDB.s:22893  .debug_str:0000000000001b6d .LASF1237
C:\Users\stapi\AppData\Local\Temp\cckpGNDB.s:25033  .debug_str:0000000000005a37 .LASF1238
C:\Users\stapi\AppData\Local\Temp\cckpGNDB.s:25229  .debug_str:000000000000602e .LASF1239
C:\Users\stapi\AppData\Local\Temp\cckpGNDB.s:23047  .debug_str:0000000000001f9b .LASF1240
C:\Users\stapi\AppData\Local\Temp\cckpGNDB.s:22749  .debug_str:000000000000179d .LASF1241
C:\Users\stapi\AppData\Local\Temp\cckpGNDB.s:23509  .debug_str:0000000000002d61 .LASF1242
C:\Users\stapi\AppData\Local\Temp\cckpGNDB.s:24645  .debug_str:0000000000004eb4 .LASF1243
C:\Users\stapi\AppData\Local\Temp\cckpGNDB.s:22789  .debug_str:00000000000018c6 .LASF1244
C:\Users\stapi\AppData\Local\Temp\cckpGNDB.s:24567  .debug_str:0000000000004c85 .LASF1245
C:\Users\stapi\AppData\Local\Temp\cckpGNDB.s:24359  .debug_str:00000000000046c8 .LASF1246
C:\Users\stapi\AppData\Local\Temp\cckpGNDB.s:22697  .debug_str:0000000000001622 .LASF1247
C:\Users\stapi\AppData\Local\Temp\cckpGNDB.s:24741  .debug_str:000000000000517c .LASF1248
C:\Users\stapi\AppData\Local\Temp\cckpGNDB.s:24583  .debug_str:0000000000004cf1 .LASF1249
C:\Users\stapi\AppData\Local\Temp\cckpGNDB.s:23789  .debug_str:0000000000003580 .LASF1250
C:\Users\stapi\AppData\Local\Temp\cckpGNDB.s:22911  .debug_str:0000000000001be9 .LASF1251
C:\Users\stapi\AppData\Local\Temp\cckpGNDB.s:23627  .debug_str:00000000000030a1 .LASF1252
C:\Users\stapi\AppData\Local\Temp\cckpGNDB.s:25277  .debug_str:0000000000006186 .LASF1253
C:\Users\stapi\AppData\Local\Temp\cckpGNDB.s:22551  .debug_str:0000000000001218 .LASF1254
C:\Users\stapi\AppData\Local\Temp\cckpGNDB.s:23259  .debug_str:00000000000025c8 .LASF1255
C:\Users\stapi\AppData\Local\Temp\cckpGNDB.s:24967  .debug_str:0000000000005825 .LASF1256
C:\Users\stapi\AppData\Local\Temp\cckpGNDB.s:25317  .debug_str:00000000000062c8 .LASF1257
C:\Users\stapi\AppData\Local\Temp\cckpGNDB.s:24575  .debug_str:0000000000004cab .LASF1258
C:\Users\stapi\AppData\Local\Temp\cckpGNDB.s:24051  .debug_str:0000000000003e73 .LASF1259
C:\Users\stapi\AppData\Local\Temp\cckpGNDB.s:22613  .debug_str:00000000000013be .LASF1260
C:\Users\stapi\AppData\Local\Temp\cckpGNDB.s:25251  .debug_str:00000000000060d3 .LASF1261
C:\Users\stapi\AppData\Local\Temp\cckpGNDB.s:23995  .debug_str:0000000000003ccb .LASF1262
C:\Users\stapi\AppData\Local\Temp\cckpGNDB.s:24743  .debug_str:0000000000005183 .LASF1263
C:\Users\stapi\AppData\Local\Temp\cckpGNDB.s:24283  .debug_str:00000000000044c6 .LASF1264
C:\Users\stapi\AppData\Local\Temp\cckpGNDB.s:24339  .debug_str:0000000000004646 .LASF1265
C:\Users\stapi\AppData\Local\Temp\cckpGNDB.s:24617  .debug_str:0000000000004de9 .LASF1266
C:\Users\stapi\AppData\Local\Temp\cckpGNDB.s:22825  .debug_str:00000000000019a8 .LASF1267
C:\Users\stapi\AppData\Local\Temp\cckpGNDB.s:23859  .debug_str:0000000000003897 .LASF1268
C:\Users\stapi\AppData\Local\Temp\cckpGNDB.s:24989  .debug_str:00000000000058e7 .LASF1269
C:\Users\stapi\AppData\Local\Temp\cckpGNDB.s:23767  .debug_str:00000000000034c6 .LASF1270
C:\Users\stapi\AppData\Local\Temp\cckpGNDB.s:23569  .debug_str:0000000000002f0d .LASF1271
C:\Users\stapi\AppData\Local\Temp\cckpGNDB.s:25187  .debug_str:0000000000005edb .LASF1272
C:\Users\stapi\AppData\Local\Temp\cckpGNDB.s:22835  .debug_str:00000000000019e6 .LASF1273
C:\Users\stapi\AppData\Local\Temp\cckpGNDB.s:24789  .debug_str:00000000000052ce .LASF1274
C:\Users\stapi\AppData\Local\Temp\cckpGNDB.s:22099  .debug_str:00000000000004fc .LASF1275
C:\Users\stapi\AppData\Local\Temp\cckpGNDB.s:23943  .debug_str:0000000000003b3b .LASF1276
C:\Users\stapi\AppData\Local\Temp\cckpGNDB.s:25197  .debug_str:0000000000005f34 .LASF1277
C:\Users\stapi\AppData\Local\Temp\cckpGNDB.s:22189  .debug_str:000000000000078b .LASF1278
C:\Users\stapi\AppData\Local\Temp\cckpGNDB.s:25301  .debug_str:0000000000006243 .LASF1279
C:\Users\stapi\AppData\Local\Temp\cckpGNDB.s:24517  .debug_str:0000000000004b0c .LASF1280
C:\Users\stapi\AppData\Local\Temp\cckpGNDB.s:25121  .debug_str:0000000000005d2d .LASF1281
C:\Users\stapi\AppData\Local\Temp\cckpGNDB.s:23003  .debug_str:0000000000001e7e .LASF1282
C:\Users\stapi\AppData\Local\Temp\cckpGNDB.s:23293  .debug_str:00000000000026d5 .LASF1283
C:\Users\stapi\AppData\Local\Temp\cckpGNDB.s:22995  .debug_str:0000000000001e3d .LASF1284
C:\Users\stapi\AppData\Local\Temp\cckpGNDB.s:24603  .debug_str:0000000000004d99 .LASF1285
C:\Users\stapi\AppData\Local\Temp\cckpGNDB.s:24881  .debug_str:00000000000055a5 .LASF1286
C:\Users\stapi\AppData\Local\Temp\cckpGNDB.s:25047  .debug_str:0000000000005a9f .LASF1287
C:\Users\stapi\AppData\Local\Temp\cckpGNDB.s:23815  .debug_str:0000000000003651 .LASF1288
C:\Users\stapi\AppData\Local\Temp\cckpGNDB.s:24427  .debug_str:000000000000488b .LASF1289
C:\Users\stapi\AppData\Local\Temp\cckpGNDB.s:23565  .debug_str:0000000000002ef2 .LASF1290
C:\Users\stapi\AppData\Local\Temp\cckpGNDB.s:24979  .debug_str:000000000000589b .LASF1291
C:\Users\stapi\AppData\Local\Temp\cckpGNDB.s:23345  .debug_str:000000000000287c .LASF1292
C:\Users\stapi\AppData\Local\Temp\cckpGNDB.s:22431  .debug_str:0000000000000e50 .LASF1293
C:\Users\stapi\AppData\Local\Temp\cckpGNDB.s:24569  .debug_str:0000000000004c95 .LASF1294
C:\Users\stapi\AppData\Local\Temp\cckpGNDB.s:24831  .debug_str:0000000000005435 .LASF1295
C:\Users\stapi\AppData\Local\Temp\cckpGNDB.s:23377  .debug_str:000000000000296e .LASF1296
C:\Users\stapi\AppData\Local\Temp\cckpGNDB.s:22429  .debug_str:0000000000000e39 .LASF1297
C:\Users\stapi\AppData\Local\Temp\cckpGNDB.s:24221  .debug_str:0000000000004310 .LASF1298
C:\Users\stapi\AppData\Local\Temp\cckpGNDB.s:24301  .debug_str:0000000000004532 .LASF1299
C:\Users\stapi\AppData\Local\Temp\cckpGNDB.s:22863  .debug_str:0000000000001ab5 .LASF1300
C:\Users\stapi\AppData\Local\Temp\cckpGNDB.s:23651  .debug_str:000000000000316c .LASF1301
C:\Users\stapi\AppData\Local\Temp\cckpGNDB.s:23963  .debug_str:0000000000003bd2 .LASF1302
C:\Users\stapi\AppData\Local\Temp\cckpGNDB.s:23563  .debug_str:0000000000002ee7 .LASF1303
C:\Users\stapi\AppData\Local\Temp\cckpGNDB.s:22611  .debug_str:00000000000013b6 .LASF1304
C:\Users\stapi\AppData\Local\Temp\cckpGNDB.s:23283  .debug_str:000000000000268c .LASF1305
C:\Users\stapi\AppData\Local\Temp\cckpGNDB.s:24411  .debug_str:0000000000004825 .LASF1306
C:\Users\stapi\AppData\Local\Temp\cckpGNDB.s:24947  .debug_str:0000000000005780 .LASF1307
C:\Users\stapi\AppData\Local\Temp\cckpGNDB.s:25283  .debug_str:00000000000061b1 .LASF1308
C:\Users\stapi\AppData\Local\Temp\cckpGNDB.s:21961  .debug_str:00000000000000ec .LASF1309
C:\Users\stapi\AppData\Local\Temp\cckpGNDB.s:22423  .debug_str:0000000000000e03 .LASF1310
C:\Users\stapi\AppData\Local\Temp\cckpGNDB.s:22025  .debug_str:00000000000002d5 .LASF1311
C:\Users\stapi\AppData\Local\Temp\cckpGNDB.s:23205  .debug_str:000000000000243b .LASF1312
C:\Users\stapi\AppData\Local\Temp\cckpGNDB.s:23833  .debug_str:00000000000036e0 .LASF1313
C:\Users\stapi\AppData\Local\Temp\cckpGNDB.s:23135  .debug_str:0000000000002213 .LASF1314
C:\Users\stapi\AppData\Local\Temp\cckpGNDB.s:24365  .debug_str:00000000000046e1 .LASF1315
C:\Users\stapi\AppData\Local\Temp\cckpGNDB.s:25035  .debug_str:0000000000005a48 .LASF1316
C:\Users\stapi\AppData\Local\Temp\cckpGNDB.s:22397  .debug_str:0000000000000d45 .LASF1317
C:\Users\stapi\AppData\Local\Temp\cckpGNDB.s:23931  .debug_str:0000000000003ae9 .LASF1318
C:\Users\stapi\AppData\Local\Temp\cckpGNDB.s:24389  .debug_str:0000000000004797 .LASF1319
C:\Users\stapi\AppData\Local\Temp\cckpGNDB.s:24119  .debug_str:000000000000406f .LASF1320
C:\Users\stapi\AppData\Local\Temp\cckpGNDB.s:24983  .debug_str:00000000000058bb .LASF1321
C:\Users\stapi\AppData\Local\Temp\cckpGNDB.s:23723  .debug_str:000000000000338d .LASF1322
C:\Users\stapi\AppData\Local\Temp\cckpGNDB.s:24137  .debug_str:00000000000040e6 .LASF1323
C:\Users\stapi\AppData\Local\Temp\cckpGNDB.s:22587  .debug_str:0000000000001318 .LASF1324
C:\Users\stapi\AppData\Local\Temp\cckpGNDB.s:22733  .debug_str:0000000000001737 .LASF1325
C:\Users\stapi\AppData\Local\Temp\cckpGNDB.s:24969  .debug_str:0000000000005844 .LASF1326
C:\Users\stapi\AppData\Local\Temp\cckpGNDB.s:22515  .debug_str:0000000000001111 .LASF1327
C:\Users\stapi\AppData\Local\Temp\cckpGNDB.s:22521  .debug_str:0000000000001142 .LASF1328
C:\Users\stapi\AppData\Local\Temp\cckpGNDB.s:25307  .debug_str:000000000000626d .LASF1329
C:\Users\stapi\AppData\Local\Temp\cckpGNDB.s:24793  .debug_str:00000000000052f0 .LASF1330
C:\Users\stapi\AppData\Local\Temp\cckpGNDB.s:23769  .debug_str:00000000000034d8 .LASF1331
C:\Users\stapi\AppData\Local\Temp\cckpGNDB.s:23203  .debug_str:0000000000002421 .LASF1332
C:\Users\stapi\AppData\Local\Temp\cckpGNDB.s:23583  .debug_str:0000000000002f67 .LASF1333
C:\Users\stapi\AppData\Local\Temp\cckpGNDB.s:22763  .debug_str:00000000000017f6 .LASF1334
C:\Users\stapi\AppData\Local\Temp\cckpGNDB.s:22669  .debug_str:000000000000156e .LASF1335
C:\Users\stapi\AppData\Local\Temp\cckpGNDB.s:24023  .debug_str:0000000000003da8 .LASF1336
C:\Users\stapi\AppData\Local\Temp\cckpGNDB.s:22115  .debug_str:000000000000056e .LASF1337
C:\Users\stapi\AppData\Local\Temp\cckpGNDB.s:23193  .debug_str:00000000000023d4 .LASF1338
C:\Users\stapi\AppData\Local\Temp\cckpGNDB.s:25263  .debug_str:0000000000006135 .LASF1339
C:\Users\stapi\AppData\Local\Temp\cckpGNDB.s:24139  .debug_str:00000000000040f2 .LASF1340
C:\Users\stapi\AppData\Local\Temp\cckpGNDB.s:23827  .debug_str:00000000000036b5 .LASF1341
C:\Users\stapi\AppData\Local\Temp\cckpGNDB.s:23173  .debug_str:0000000000002325 .LASF1342
C:\Users\stapi\AppData\Local\Temp\cckpGNDB.s:23751  .debug_str:0000000000003443 .LASF1343
C:\Users\stapi\AppData\Local\Temp\cckpGNDB.s:23043  .debug_str:0000000000001f85 .LASF1344
C:\Users\stapi\AppData\Local\Temp\cckpGNDB.s:22059  .debug_str:00000000000003d9 .LASF1345
C:\Users\stapi\AppData\Local\Temp\cckpGNDB.s:22061  .debug_str:00000000000003e5 .LASF1346
C:\Users\stapi\AppData\Local\Temp\cckpGNDB.s:22845  .debug_str:0000000000001a2c .LASF1347
C:\Users\stapi\AppData\Local\Temp\cckpGNDB.s:23761  .debug_str:00000000000034a1 .LASF1348
C:\Users\stapi\AppData\Local\Temp\cckpGNDB.s:22513  .debug_str:0000000000001108 .LASF1349
C:\Users\stapi\AppData\Local\Temp\cckpGNDB.s:25155  .debug_str:0000000000005e0e .LASF1350
C:\Users\stapi\AppData\Local\Temp\cckpGNDB.s:24237  .debug_str:000000000000436b .LASF1351
C:\Users\stapi\AppData\Local\Temp\cckpGNDB.s:24233  .debug_str:000000000000434f .LASF1352
C:\Users\stapi\AppData\Local\Temp\cckpGNDB.s:23969  .debug_str:0000000000003c09 .LASF1353
C:\Users\stapi\AppData\Local\Temp\cckpGNDB.s:23239  .debug_str:0000000000002531 .LASF1354
C:\Users\stapi\AppData\Local\Temp\cckpGNDB.s:23887  .debug_str:000000000000397d .LASF1355
C:\Users\stapi\AppData\Local\Temp\cckpGNDB.s:25165  .debug_str:0000000000005e4b .LASF1356
C:\Users\stapi\AppData\Local\Temp\cckpGNDB.s:23207  .debug_str:0000000000002443 .LASF1357
C:\Users\stapi\AppData\Local\Temp\cckpGNDB.s:25159  .debug_str:0000000000005e27 .LASF1358
C:\Users\stapi\AppData\Local\Temp\cckpGNDB.s:25053  .debug_str:0000000000005ac1 .LASF1359
C:\Users\stapi\AppData\Local\Temp\cckpGNDB.s:22113  .debug_str:0000000000000561 .LASF1360
C:\Users\stapi\AppData\Local\Temp\cckpGNDB.s:21981  .debug_str:000000000000017f .LASF1361
C:\Users\stapi\AppData\Local\Temp\cckpGNDB.s:23111  .debug_str:0000000000002140 .LASF1362
C:\Users\stapi\AppData\Local\Temp\cckpGNDB.s:23447  .debug_str:0000000000002bae .LASF1363
C:\Users\stapi\AppData\Local\Temp\cckpGNDB.s:22333  .debug_str:0000000000000b45 .LASF1364
C:\Users\stapi\AppData\Local\Temp\cckpGNDB.s:23707  .debug_str:00000000000032f9 .LASF1365
C:\Users\stapi\AppData\Local\Temp\cckpGNDB.s:23693  .debug_str:000000000000329d .LASF1366
C:\Users\stapi\AppData\Local\Temp\cckpGNDB.s:23629  .debug_str:00000000000030b0 .LASF1367
C:\Users\stapi\AppData\Local\Temp\cckpGNDB.s:22511  .debug_str:00000000000010ee .LASF1368
C:\Users\stapi\AppData\Local\Temp\cckpGNDB.s:22283  .debug_str:00000000000009f9 .LASF1369
C:\Users\stapi\AppData\Local\Temp\cckpGNDB.s:23295  .debug_str:00000000000026e3 .LASF1370
C:\Users\stapi\AppData\Local\Temp\cckpGNDB.s:23211  .debug_str:0000000000002453 .LASF1371
C:\Users\stapi\AppData\Local\Temp\cckpGNDB.s:22241  .debug_str:00000000000008c0 .LASF1372
C:\Users\stapi\AppData\Local\Temp\cckpGNDB.s:23521  .debug_str:0000000000002dc5 .LASF1373
C:\Users\stapi\AppData\Local\Temp\cckpGNDB.s:24539  .debug_str:0000000000004bc5 .LASF1374
C:\Users\stapi\AppData\Local\Temp\cckpGNDB.s:23323  .debug_str:00000000000027b7 .LASF1375
C:\Users\stapi\AppData\Local\Temp\cckpGNDB.s:25017  .debug_str:00000000000059aa .LASF1376
C:\Users\stapi\AppData\Local\Temp\cckpGNDB.s:24159  .debug_str:000000000000417a .LASF1377
C:\Users\stapi\AppData\Local\Temp\cckpGNDB.s:25179  .debug_str:0000000000005eaa .LASF1378
C:\Users\stapi\AppData\Local\Temp\cckpGNDB.s:24855  .debug_str:00000000000054d3 .LASF1379
C:\Users\stapi\AppData\Local\Temp\cckpGNDB.s:23179  .debug_str:000000000000235a .LASF1380
C:\Users\stapi\AppData\Local\Temp\cckpGNDB.s:22877  .debug_str:0000000000001afa .LASF1381
C:\Users\stapi\AppData\Local\Temp\cckpGNDB.s:23171  .debug_str:0000000000002314 .LASF1382
C:\Users\stapi\AppData\Local\Temp\cckpGNDB.s:23681  .debug_str:000000000000324f .LASF1383
C:\Users\stapi\AppData\Local\Temp\cckpGNDB.s:24049  .debug_str:0000000000003e6d .LASF1384
C:\Users\stapi\AppData\Local\Temp\cckpGNDB.s:23097  .debug_str:00000000000020ec .LASF1385
C:\Users\stapi\AppData\Local\Temp\cckpGNDB.s:24879  .debug_str:0000000000005598 .LASF1386
C:\Users\stapi\AppData\Local\Temp\cckpGNDB.s:22879  .debug_str:0000000000001b05 .LASF1387
C:\Users\stapi\AppData\Local\Temp\cckpGNDB.s:22347  .debug_str:0000000000000ba3 .LASF1388
C:\Users\stapi\AppData\Local\Temp\cckpGNDB.s:24475  .debug_str:00000000000049cd .LASF1389
C:\Users\stapi\AppData\Local\Temp\cckpGNDB.s:22049  .debug_str:0000000000000385 .LASF1390
C:\Users\stapi\AppData\Local\Temp\cckpGNDB.s:22899  .debug_str:0000000000001b9a .LASF1391
C:\Users\stapi\AppData\Local\Temp\cckpGNDB.s:24941  .debug_str:000000000000574e .LASF1392
C:\Users\stapi\AppData\Local\Temp\cckpGNDB.s:24805  .debug_str:0000000000005361 .LASF1393
C:\Users\stapi\AppData\Local\Temp\cckpGNDB.s:23501  .debug_str:0000000000002d22 .LASF1394
C:\Users\stapi\AppData\Local\Temp\cckpGNDB.s:24069  .debug_str:0000000000003f01 .LASF1395
C:\Users\stapi\AppData\Local\Temp\cckpGNDB.s:22961  .debug_str:0000000000001d51 .LASF1396
C:\Users\stapi\AppData\Local\Temp\cckpGNDB.s:22913  .debug_str:0000000000001c0c .LASF1397
C:\Users\stapi\AppData\Local\Temp\cckpGNDB.s:23873  .debug_str:00000000000038eb .LASF1398
C:\Users\stapi\AppData\Local\Temp\cckpGNDB.s:23405  .debug_str:0000000000002a6a .LASF1399
C:\Users\stapi\AppData\Local\Temp\cckpGNDB.s:23933  .debug_str:0000000000003afc .LASF1400
C:\Users\stapi\AppData\Local\Temp\cckpGNDB.s:23763  .debug_str:00000000000034ad .LASF1401
C:\Users\stapi\AppData\Local\Temp\cckpGNDB.s:23865  .debug_str:00000000000038b2 .LASF1402
C:\Users\stapi\AppData\Local\Temp\cckpGNDB.s:24157  .debug_str:0000000000004171 .LASF1403
C:\Users\stapi\AppData\Local\Temp\cckpGNDB.s:22121  .debug_str:000000000000059c .LASF1404
C:\Users\stapi\AppData\Local\Temp\cckpGNDB.s:25081  .debug_str:0000000000005b8f .LASF1405
C:\Users\stapi\AppData\Local\Temp\cckpGNDB.s:23849  .debug_str:0000000000003757 .LASF1406
C:\Users\stapi\AppData\Local\Temp\cckpGNDB.s:22963  .debug_str:0000000000001d66 .LASF1407
C:\Users\stapi\AppData\Local\Temp\cckpGNDB.s:23747  .debug_str:0000000000003427 .LASF1408
C:\Users\stapi\AppData\Local\Temp\cckpGNDB.s:25007  .debug_str:0000000000005962 .LASF1409
C:\Users\stapi\AppData\Local\Temp\cckpGNDB.s:24005  .debug_str:0000000000003d13 .LASF1410
C:\Users\stapi\AppData\Local\Temp\cckpGNDB.s:24785  .debug_str:00000000000052ba .LASF1411
C:\Users\stapi\AppData\Local\Temp\cckpGNDB.s:22375  .debug_str:0000000000000c74 .LASF1412
C:\Users\stapi\AppData\Local\Temp\cckpGNDB.s:23121  .debug_str:00000000000021a7 .LASF1413
C:\Users\stapi\AppData\Local\Temp\cckpGNDB.s:22755  .debug_str:00000000000017c6 .LASF1414
C:\Users\stapi\AppData\Local\Temp\cckpGNDB.s:22081  .debug_str:000000000000047e .LASF1415
C:\Users\stapi\AppData\Local\Temp\cckpGNDB.s:24287  .debug_str:00000000000044dd .LASF1416
C:\Users\stapi\AppData\Local\Temp\cckpGNDB.s:24253  .debug_str:00000000000043e1 .LASF1417
C:\Users\stapi\AppData\Local\Temp\cckpGNDB.s:22959  .debug_str:0000000000001d46 .LASF1418
C:\Users\stapi\AppData\Local\Temp\cckpGNDB.s:22523  .debug_str:0000000000001156 .LASF1419
C:\Users\stapi\AppData\Local\Temp\cckpGNDB.s:24501  .debug_str:0000000000004ab0 .LASF1420
C:\Users\stapi\AppData\Local\Temp\cckpGNDB.s:22193  .debug_str:00000000000007a5 .LASF1421
C:\Users\stapi\AppData\Local\Temp\cckpGNDB.s:25009  .debug_str:000000000000596b .LASF1422
C:\Users\stapi\AppData\Local\Temp\cckpGNDB.s:22267  .debug_str:0000000000000988 .LASF1423
C:\Users\stapi\AppData\Local\Temp\cckpGNDB.s:25137  .debug_str:0000000000005dab .LASF1424
C:\Users\stapi\AppData\Local\Temp\cckpGNDB.s:23285  .debug_str:000000000000269e .LASF1425
C:\Users\stapi\AppData\Local\Temp\cckpGNDB.s:22293  .debug_str:0000000000000a40 .LASF1426
C:\Users\stapi\AppData\Local\Temp\cckpGNDB.s:22501  .debug_str:00000000000010a1 .LASF1427
C:\Users\stapi\AppData\Local\Temp\cckpGNDB.s:23997  .debug_str:0000000000003cdd .LASF1428
C:\Users\stapi\AppData\Local\Temp\cckpGNDB.s:24321  .debug_str:00000000000045ce .LASF1429
C:\Users\stapi\AppData\Local\Temp\cckpGNDB.s:23713  .debug_str:0000000000003331 .LASF1430
C:\Users\stapi\AppData\Local\Temp\cckpGNDB.s:24485  .debug_str:0000000000004a32 .LASF1431
C:\Users\stapi\AppData\Local\Temp\cckpGNDB.s:23977  .debug_str:0000000000003c52 .LASF1432
C:\Users\stapi\AppData\Local\Temp\cckpGNDB.s:23159  .debug_str:00000000000022b4 .LASF1433
C:\Users\stapi\AppData\Local\Temp\cckpGNDB.s:24749  .debug_str:00000000000051b0 .LASF1434
C:\Users\stapi\AppData\Local\Temp\cckpGNDB.s:24951  .debug_str:00000000000057a3 .LASF1435
C:\Users\stapi\AppData\Local\Temp\cckpGNDB.s:23797  .debug_str:00000000000035d0 .LASF1436
C:\Users\stapi\AppData\Local\Temp\cckpGNDB.s:23359  .debug_str:00000000000028ed .LASF1437
C:\Users\stapi\AppData\Local\Temp\cckpGNDB.s:24599  .debug_str:0000000000004d6d .LASF1438
C:\Users\stapi\AppData\Local\Temp\cckpGNDB.s:24883  .debug_str:00000000000055b4 .LASF1439
C:\Users\stapi\AppData\Local\Temp\cckpGNDB.s:22323  .debug_str:0000000000000af5 .LASF1440
C:\Users\stapi\AppData\Local\Temp\cckpGNDB.s:24185  .debug_str:000000000000422c .LASF1441
C:\Users\stapi\AppData\Local\Temp\cckpGNDB.s:23655  .debug_str:000000000000318e .LASF1442
C:\Users\stapi\AppData\Local\Temp\cckpGNDB.s:23175  .debug_str:0000000000002333 .LASF1443
C:\Users\stapi\AppData\Local\Temp\cckpGNDB.s:24345  .debug_str:0000000000004673 .LASF1444
C:\Users\stapi\AppData\Local\Temp\cckpGNDB.s:24639  .debug_str:0000000000004e79 .LASF1445
C:\Users\stapi\AppData\Local\Temp\cckpGNDB.s:24877  .debug_str:000000000000558b .LASF1446
C:\Users\stapi\AppData\Local\Temp\cckpGNDB.s:24759  .debug_str:00000000000051f9 .LASF1447
C:\Users\stapi\AppData\Local\Temp\cckpGNDB.s:24455  .debug_str:000000000000493b .LASF1448
C:\Users\stapi\AppData\Local\Temp\cckpGNDB.s:22019  .debug_str:00000000000002a2 .LASF1449
C:\Users\stapi\AppData\Local\Temp\cckpGNDB.s:23599  .debug_str:0000000000002fd5 .LASF1450
C:\Users\stapi\AppData\Local\Temp\cckpGNDB.s:22093  .debug_str:00000000000004ba .LASF1451
C:\Users\stapi\AppData\Local\Temp\cckpGNDB.s:22415  .debug_str:0000000000000de0 .LASF1452
C:\Users\stapi\AppData\Local\Temp\cckpGNDB.s:23029  .debug_str:0000000000001f33 .LASF1453
C:\Users\stapi\AppData\Local\Temp\cckpGNDB.s:24747  .debug_str:00000000000051a1 .LASF1454
C:\Users\stapi\AppData\Local\Temp\cckpGNDB.s:23009  .debug_str:0000000000001eb7 .LASF1455
C:\Users\stapi\AppData\Local\Temp\cckpGNDB.s:23415  .debug_str:0000000000002abb .LASF1456
C:\Users\stapi\AppData\Local\Temp\cckpGNDB.s:23245  .debug_str:000000000000255a .LASF1457
C:\Users\stapi\AppData\Local\Temp\cckpGNDB.s:24243  .debug_str:0000000000004393 .LASF1458
C:\Users\stapi\AppData\Local\Temp\cckpGNDB.s:22725  .debug_str:00000000000016d0 .LASF1459
C:\Users\stapi\AppData\Local\Temp\cckpGNDB.s:23677  .debug_str:000000000000322b .LASF1460
C:\Users\stapi\AppData\Local\Temp\cckpGNDB.s:23225  .debug_str:00000000000024b7 .LASF1461
C:\Users\stapi\AppData\Local\Temp\cckpGNDB.s:25247  .debug_str:00000000000060b5 .LASF1462
C:\Users\stapi\AppData\Local\Temp\cckpGNDB.s:22851  .debug_str:0000000000001a4f .LASF1463
C:\Users\stapi\AppData\Local\Temp\cckpGNDB.s:23845  .debug_str:000000000000372a .LASF1464
C:\Users\stapi\AppData\Local\Temp\cckpGNDB.s:23641  .debug_str:0000000000003103 .LASF1465
C:\Users\stapi\AppData\Local\Temp\cckpGNDB.s:24731  .debug_str:000000000000512b .LASF1466
C:\Users\stapi\AppData\Local\Temp\cckpGNDB.s:22891  .debug_str:0000000000001b67 .LASF1467
C:\Users\stapi\AppData\Local\Temp\cckpGNDB.s:23727  .debug_str:00000000000033a4 .LASF1468
C:\Users\stapi\AppData\Local\Temp\cckpGNDB.s:22619  .debug_str:00000000000013e2 .LASF1469
C:\Users\stapi\AppData\Local\Temp\cckpGNDB.s:24349  .debug_str:0000000000004692 .LASF1470
C:\Users\stapi\AppData\Local\Temp\cckpGNDB.s:24229  .debug_str:0000000000004336 .LASF1471
C:\Users\stapi\AppData\Local\Temp\cckpGNDB.s:24901  .debug_str:0000000000005623 .LASF1472
C:\Users\stapi\AppData\Local\Temp\cckpGNDB.s:23885  .debug_str:0000000000003973 .LASF1473
C:\Users\stapi\AppData\Local\Temp\cckpGNDB.s:24403  .debug_str:00000000000047ef .LASF1474
C:\Users\stapi\AppData\Local\Temp\cckpGNDB.s:24091  .debug_str:0000000000003f97 .LASF1475
C:\Users\stapi\AppData\Local\Temp\cckpGNDB.s:24059  .debug_str:0000000000003eb4 .LASF1476
C:\Users\stapi\AppData\Local\Temp\cckpGNDB.s:22647  .debug_str:00000000000014b5 .LASF1477
C:\Users\stapi\AppData\Local\Temp\cckpGNDB.s:22519  .debug_str:0000000000001134 .LASF1478
C:\Users\stapi\AppData\Local\Temp\cckpGNDB.s:25201  .debug_str:0000000000005f53 .LASF1479
C:\Users\stapi\AppData\Local\Temp\cckpGNDB.s:24025  .debug_str:0000000000003db8 .LASF1480
C:\Users\stapi\AppData\Local\Temp\cckpGNDB.s:24399  .debug_str:00000000000047ce .LASF1481
C:\Users\stapi\AppData\Local\Temp\cckpGNDB.s:22503  .debug_str:00000000000010b1 .LASF1482
C:\Users\stapi\AppData\Local\Temp\cckpGNDB.s:23695  .debug_str:00000000000032ae .LASF1483
C:\Users\stapi\AppData\Local\Temp\cckpGNDB.s:24629  .debug_str:0000000000004e3f .LASF1484
C:\Users\stapi\AppData\Local\Temp\cckpGNDB.s:24493  .debug_str:0000000000004a70 .LASF1485
C:\Users\stapi\AppData\Local\Temp\cckpGNDB.s:21957  .debug_str:00000000000000ce .LASF1486
C:\Users\stapi\AppData\Local\Temp\cckpGNDB.s:22103  .debug_str:0000000000000516 .LASF1487
C:\Users\stapi\AppData\Local\Temp\cckpGNDB.s:22793  .debug_str:00000000000018db .LASF1488
C:\Users\stapi\AppData\Local\Temp\cckpGNDB.s:24829  .debug_str:0000000000005424 .LASF1489
C:\Users\stapi\AppData\Local\Temp\cckpGNDB.s:24255  .debug_str:00000000000043ea .LASF1490
C:\Users\stapi\AppData\Local\Temp\cckpGNDB.s:24711  .debug_str:00000000000050b7 .LASF1491
C:\Users\stapi\AppData\Local\Temp\cckpGNDB.s:24325  .debug_str:00000000000045e4 .LASF1492
C:\Users\stapi\AppData\Local\Temp\cckpGNDB.s:24211  .debug_str:00000000000042d3 .LASF1493
C:\Users\stapi\AppData\Local\Temp\cckpGNDB.s:22831  .debug_str:00000000000019c6 .LASF1494
C:\Users\stapi\AppData\Local\Temp\cckpGNDB.s:24311  .debug_str:000000000000457e .LASF1495
C:\Users\stapi\AppData\Local\Temp\cckpGNDB.s:24813  .debug_str:00000000000053a3 .LASF1496
C:\Users\stapi\AppData\Local\Temp\cckpGNDB.s:21949  .debug_str:0000000000000094 .LASF1497
C:\Users\stapi\AppData\Local\Temp\cckpGNDB.s:23851  .debug_str:0000000000003760 .LASF1498
C:\Users\stapi\AppData\Local\Temp\cckpGNDB.s:23929  .debug_str:0000000000003ad3 .LASF1499
C:\Users\stapi\AppData\Local\Temp\cckpGNDB.s:23643  .debug_str:000000000000311d .LASF1500
C:\Users\stapi\AppData\Local\Temp\cckpGNDB.s:24445  .debug_str:0000000000004901 .LASF1501
C:\Users\stapi\AppData\Local\Temp\cckpGNDB.s:23039  .debug_str:0000000000001f6d .LASF1502
C:\Users\stapi\AppData\Local\Temp\cckpGNDB.s:22149  .debug_str:000000000000065c .LASF1503
C:\Users\stapi\AppData\Local\Temp\cckpGNDB.s:24643  .debug_str:0000000000004eaa .LASF1504
C:\Users\stapi\AppData\Local\Temp\cckpGNDB.s:23587  .debug_str:0000000000002f8f .LASF1505
C:\Users\stapi\AppData\Local\Temp\cckpGNDB.s:23163  .debug_str:00000000000022d7 .LASF1506
C:\Users\stapi\AppData\Local\Temp\cckpGNDB.s:23369  .debug_str:0000000000002938 .LASF1507
C:\Users\stapi\AppData\Local\Temp\cckpGNDB.s:22925  .debug_str:0000000000001c60 .LASF1508
C:\Users\stapi\AppData\Local\Temp\cckpGNDB.s:23215  .debug_str:0000000000002471 .LASF1509
C:\Users\stapi\AppData\Local\Temp\cckpGNDB.s:24531  .debug_str:0000000000004b8c .LASF1510
C:\Users\stapi\AppData\Local\Temp\cckpGNDB.s:23071  .debug_str:000000000000204c .LASF1511
C:\Users\stapi\AppData\Local\Temp\cckpGNDB.s:24097  .debug_str:0000000000003fd7 .LASF1512
C:\Users\stapi\AppData\Local\Temp\cckpGNDB.s:22097  .debug_str:00000000000004e1 .LASF1513
C:\Users\stapi\AppData\Local\Temp\cckpGNDB.s:23715  .debug_str:0000000000003345 .LASF1514
C:\Users\stapi\AppData\Local\Temp\cckpGNDB.s:24299  .debug_str:000000000000452d .LASF1515
C:\Users\stapi\AppData\Local\Temp\cckpGNDB.s:22779  .debug_str:0000000000001882 .LASF1516
C:\Users\stapi\AppData\Local\Temp\cckpGNDB.s:22529  .debug_str:000000000000117f .LASF1517
C:\Users\stapi\AppData\Local\Temp\cckpGNDB.s:23361  .debug_str:00000000000028fd .LASF1518
C:\Users\stapi\AppData\Local\Temp\cckpGNDB.s:25095  .debug_str:0000000000005bf4 .LASF1519
C:\Users\stapi\AppData\Local\Temp\cckpGNDB.s:22939  .debug_str:0000000000001ccd .LASF1520
C:\Users\stapi\AppData\Local\Temp\cckpGNDB.s:24797  .debug_str:0000000000005312 .LASF1521
C:\Users\stapi\AppData\Local\Temp\cckpGNDB.s:24061  .debug_str:0000000000003ec6 .LASF1522
C:\Users\stapi\AppData\Local\Temp\cckpGNDB.s:24391  .debug_str:00000000000047a2 .LASF1523
C:\Users\stapi\AppData\Local\Temp\cckpGNDB.s:24473  .debug_str:00000000000049bb .LASF1524
C:\Users\stapi\AppData\Local\Temp\cckpGNDB.s:23895  .debug_str:00000000000039b4 .LASF1525
C:\Users\stapi\AppData\Local\Temp\cckpGNDB.s:24209  .debug_str:00000000000042bf .LASF1526
C:\Users\stapi\AppData\Local\Temp\cckpGNDB.s:22261  .debug_str:0000000000000950 .LASF1527
C:\Users\stapi\AppData\Local\Temp\cckpGNDB.s:22951  .debug_str:0000000000001d15 .LASF1528
C:\Users\stapi\AppData\Local\Temp\cckpGNDB.s:23253  .debug_str:00000000000025a2 .LASF1529
C:\Users\stapi\AppData\Local\Temp\cckpGNDB.s:22931  .debug_str:0000000000001c8e .LASF1530
C:\Users\stapi\AppData\Local\Temp\cckpGNDB.s:22245  .debug_str:00000000000008d5 .LASF1531
C:\Users\stapi\AppData\Local\Temp\cckpGNDB.s:25023  .debug_str:00000000000059d4 .LASF1532
C:\Users\stapi\AppData\Local\Temp\cckpGNDB.s:23791  .debug_str:000000000000359d .LASF1533
C:\Users\stapi\AppData\Local\Temp\cckpGNDB.s:24379  .debug_str:0000000000004741 .LASF1534
C:\Users\stapi\AppData\Local\Temp\cckpGNDB.s:22895  .debug_str:0000000000001b7f .LASF1535
C:\Users\stapi\AppData\Local\Temp\cckpGNDB.s:22595  .debug_str:0000000000001343 .LASF1536
C:\Users\stapi\AppData\Local\Temp\cckpGNDB.s:24587  .debug_str:0000000000004d16 .LASF1537
C:\Users\stapi\AppData\Local\Temp\cckpGNDB.s:25275  .debug_str:000000000000617d .LASF1538
C:\Users\stapi\AppData\Local\Temp\cckpGNDB.s:25231  .debug_str:0000000000006040 .LASF1539
C:\Users\stapi\AppData\Local\Temp\cckpGNDB.s:24107  .debug_str:0000000000004029 .LASF1540
C:\Users\stapi\AppData\Local\Temp\cckpGNDB.s:22425  .debug_str:0000000000000e0e .LASF1541
C:\Users\stapi\AppData\Local\Temp\cckpGNDB.s:25219  .debug_str:0000000000005fd6 .LASF1542
C:\Users\stapi\AppData\Local\Temp\cckpGNDB.s:25249  .debug_str:00000000000060ce .LASF1543
C:\Users\stapi\AppData\Local\Temp\cckpGNDB.s:22083  .debug_str:0000000000000488 .LASF1544
C:\Users\stapi\AppData\Local\Temp\cckpGNDB.s:22253  .debug_str:000000000000091e .LASF1545
C:\Users\stapi\AppData\Local\Temp\cckpGNDB.s:24087  .debug_str:0000000000003f84 .LASF1546
C:\Users\stapi\AppData\Local\Temp\cckpGNDB.s:23837  .debug_str:00000000000036fc .LASF1547
C:\Users\stapi\AppData\Local\Temp\cckpGNDB.s:24913  .debug_str:000000000000568d .LASF1548
C:\Users\stapi\AppData\Local\Temp\cckpGNDB.s:22159  .debug_str:000000000000069b .LASF1549
C:\Users\stapi\AppData\Local\Temp\cckpGNDB.s:24127  .debug_str:00000000000040ac .LASF1550
C:\Users\stapi\AppData\Local\Temp\cckpGNDB.s:24905  .debug_str:0000000000005642 .LASF1551
C:\Users\stapi\AppData\Local\Temp\cckpGNDB.s:22265  .debug_str:0000000000000972 .LASF1552
C:\Users\stapi\AppData\Local\Temp\cckpGNDB.s:22943  .debug_str:0000000000001cdd .LASF1553
C:\Users\stapi\AppData\Local\Temp\cckpGNDB.s:23573  .debug_str:0000000000002f2d .LASF1554
C:\Users\stapi\AppData\Local\Temp\cckpGNDB.s:23567  .debug_str:0000000000002ef9 .LASF1555
C:\Users\stapi\AppData\Local\Temp\cckpGNDB.s:24213  .debug_str:00000000000042de .LASF1556
C:\Users\stapi\AppData\Local\Temp\cckpGNDB.s:24439  .debug_str:00000000000048e0 .LASF1557
C:\Users\stapi\AppData\Local\Temp\cckpGNDB.s:24681  .debug_str:0000000000004fd1 .LASF1558
C:\Users\stapi\AppData\Local\Temp\cckpGNDB.s:25299  .debug_str:000000000000622d .LASF1559
C:\Users\stapi\AppData\Local\Temp\cckpGNDB.s:23719  .debug_str:000000000000336f .LASF1560
C:\Users\stapi\AppData\Local\Temp\cckpGNDB.s:22337  .debug_str:0000000000000b74 .LASF1561
C:\Users\stapi\AppData\Local\Temp\cckpGNDB.s:23581  .debug_str:0000000000002f58 .LASF1562
C:\Users\stapi\AppData\Local\Temp\cckpGNDB.s:23531  .debug_str:0000000000002e01 .LASF1563
C:\Users\stapi\AppData\Local\Temp\cckpGNDB.s:25241  .debug_str:0000000000006089 .LASF1564
C:\Users\stapi\AppData\Local\Temp\cckpGNDB.s:23269  .debug_str:0000000000002615 .LASF1565
C:\Users\stapi\AppData\Local\Temp\cckpGNDB.s:25269  .debug_str:0000000000006153 .LASF1566
C:\Users\stapi\AppData\Local\Temp\cckpGNDB.s:24429  .debug_str:0000000000004899 .LASF1567
C:\Users\stapi\AppData\Local\Temp\cckpGNDB.s:23019  .debug_str:0000000000001ee7 .LASF1568
C:\Users\stapi\AppData\Local\Temp\cckpGNDB.s:22411  .debug_str:0000000000000db8 .LASF1569
C:\Users\stapi\AppData\Local\Temp\cckpGNDB.s:25147  .debug_str:0000000000005ddd .LASF1570
C:\Users\stapi\AppData\Local\Temp\cckpGNDB.s:24413  .debug_str:000000000000483b .LASF1571
C:\Users\stapi\AppData\Local\Temp\cckpGNDB.s:21979  .debug_str:000000000000016f .LASF1572
C:\Users\stapi\AppData\Local\Temp\cckpGNDB.s:22993  .debug_str:0000000000001e2a .LASF1573
C:\Users\stapi\AppData\Local\Temp\cckpGNDB.s:21963  .debug_str:00000000000000ff .LASF1574
C:\Users\stapi\AppData\Local\Temp\cckpGNDB.s:23189  .debug_str:00000000000023b2 .LASF1575
C:\Users\stapi\AppData\Local\Temp\cckpGNDB.s:21983  .debug_str:0000000000000195 .LASF1576
C:\Users\stapi\AppData\Local\Temp\cckpGNDB.s:23131  .debug_str:00000000000021ec .LASF1577
C:\Users\stapi\AppData\Local\Temp\cckpGNDB.s:24545  .debug_str:0000000000004c02 .LASF1578
C:\Users\stapi\AppData\Local\Temp\cckpGNDB.s:22351  .debug_str:0000000000000bd3 .LASF1579
C:\Users\stapi\AppData\Local\Temp\cckpGNDB.s:22659  .debug_str:0000000000001514 .LASF1580
C:\Users\stapi\AppData\Local\Temp\cckpGNDB.s:22783  .debug_str:000000000000189c .LASF1581
C:\Users\stapi\AppData\Local\Temp\cckpGNDB.s:24753  .debug_str:00000000000051ca .LASF1582
C:\Users\stapi\AppData\Local\Temp\cckpGNDB.s:24873  .debug_str:0000000000005569 .LASF1583
C:\Users\stapi\AppData\Local\Temp\cckpGNDB.s:23209  .debug_str:000000000000244c .LASF1584
C:\Users\stapi\AppData\Local\Temp\cckpGNDB.s:22637  .debug_str:000000000000146e .LASF1585
C:\Users\stapi\AppData\Local\Temp\cckpGNDB.s:24857  .debug_str:00000000000054e1 .LASF1586
C:\Users\stapi\AppData\Local\Temp\cckpGNDB.s:22799  .debug_str:0000000000001905 .LASF1587
C:\Users\stapi\AppData\Local\Temp\cckpGNDB.s:23271  .debug_str:0000000000002625 .LASF1588
C:\Users\stapi\AppData\Local\Temp\cckpGNDB.s:24503  .debug_str:0000000000004abe .LASF1589
C:\Users\stapi\AppData\Local\Temp\cckpGNDB.s:25161  .debug_str:0000000000005e33 .LASF1590
C:\Users\stapi\AppData\Local\Temp\cckpGNDB.s:24075  .debug_str:0000000000003f1c .LASF1591
C:\Users\stapi\AppData\Local\Temp\cckpGNDB.s:22111  .debug_str:0000000000000559 .LASF1592
C:\Users\stapi\AppData\Local\Temp\cckpGNDB.s:22775  .debug_str:0000000000001858 .LASF1593
C:\Users\stapi\AppData\Local\Temp\cckpGNDB.s:22753  .debug_str:00000000000017b6 .LASF1594
C:\Users\stapi\AppData\Local\Temp\cckpGNDB.s:22715  .debug_str:000000000000169a .LASF1595
C:\Users\stapi\AppData\Local\Temp\cckpGNDB.s:25117  .debug_str:0000000000005d10 .LASF1596
C:\Users\stapi\AppData\Local\Temp\cckpGNDB.s:24689  .debug_str:0000000000005018 .LASF1597
C:\Users\stapi\AppData\Local\Temp\cckpGNDB.s:23775  .debug_str:0000000000003518 .LASF1598
C:\Users\stapi\AppData\Local\Temp\cckpGNDB.s:25217  .debug_str:0000000000005fc7 .LASF1599
C:\Users\stapi\AppData\Local\Temp\cckpGNDB.s:24327  .debug_str:00000000000045f2 .LASF1600
C:\Users\stapi\AppData\Local\Temp\cckpGNDB.s:22597  .debug_str:0000000000001350 .LASF1601
C:\Users\stapi\AppData\Local\Temp\cckpGNDB.s:24027  .debug_str:0000000000003dc8 .LASF1602
C:\Users\stapi\AppData\Local\Temp\cckpGNDB.s:22477  .debug_str:0000000000000ff0 .LASF1603
C:\Users\stapi\AppData\Local\Temp\cckpGNDB.s:22719  .debug_str:00000000000016af .LASF1604
C:\Users\stapi\AppData\Local\Temp\cckpGNDB.s:23805  .debug_str:00000000000035ff .LASF1605
C:\Users\stapi\AppData\Local\Temp\cckpGNDB.s:25015  .debug_str:000000000000599f .LASF1606
C:\Users\stapi\AppData\Local\Temp\cckpGNDB.s:24627  .debug_str:0000000000004e2c .LASF1607
C:\Users\stapi\AppData\Local\Temp\cckpGNDB.s:22583  .debug_str:0000000000001302 .LASF1608
C:\Users\stapi\AppData\Local\Temp\cckpGNDB.s:22545  .debug_str:00000000000011e7 .LASF1609
C:\Users\stapi\AppData\Local\Temp\cckpGNDB.s:22629  .debug_str:000000000000142e .LASF1610
C:\Users\stapi\AppData\Local\Temp\cckpGNDB.s:23685  .debug_str:000000000000326b .LASF1611
C:\Users\stapi\AppData\Local\Temp\cckpGNDB.s:23439  .debug_str:0000000000002b77 .LASF1612
C:\Users\stapi\AppData\Local\Temp\cckpGNDB.s:23169  .debug_str:0000000000002309 .LASF1613
C:\Users\stapi\AppData\Local\Temp\cckpGNDB.s:22073  .debug_str:0000000000000433 .LASF1614
C:\Users\stapi\AppData\Local\Temp\cckpGNDB.s:22557  .debug_str:000000000000124e .LASF1615
C:\Users\stapi\AppData\Local\Temp\cckpGNDB.s:24121  .debug_str:000000000000407d .LASF1616
C:\Users\stapi\AppData\Local\Temp\cckpGNDB.s:21991  .debug_str:00000000000001d0 .LASF1617
C:\Users\stapi\AppData\Local\Temp\cckpGNDB.s:24343  .debug_str:000000000000465f .LASF1618
C:\Users\stapi\AppData\Local\Temp\cckpGNDB.s:24707  .debug_str:0000000000005097 .LASF1619
C:\Users\stapi\AppData\Local\Temp\cckpGNDB.s:24585  .debug_str:0000000000004d02 .LASF1620
C:\Users\stapi\AppData\Local\Temp\cckpGNDB.s:22119  .debug_str:0000000000000582 .LASF1621
C:\Users\stapi\AppData\Local\Temp\cckpGNDB.s:24401  .debug_str:00000000000047e0 .LASF1622
C:\Users\stapi\AppData\Local\Temp\cckpGNDB.s:23181  .debug_str:0000000000002371 .LASF1623
C:\Users\stapi\AppData\Local\Temp\cckpGNDB.s:23291  .debug_str:00000000000026c6 .LASF1624
C:\Users\stapi\AppData\Local\Temp\cckpGNDB.s:24919  .debug_str:00000000000056c3 .LASF1625
C:\Users\stapi\AppData\Local\Temp\cckpGNDB.s:24653  .debug_str:0000000000004eee .LASF1626
C:\Users\stapi\AppData\Local\Temp\cckpGNDB.s:24899  .debug_str:0000000000005615 .LASF1627
C:\Users\stapi\AppData\Local\Temp\cckpGNDB.s:22137  .debug_str:000000000000060e .LASF1628
C:\Users\stapi\AppData\Local\Temp\cckpGNDB.s:23957  .debug_str:0000000000003bb0 .LASF1629
C:\Users\stapi\AppData\Local\Temp\cckpGNDB.s:22383  .debug_str:0000000000000cbc .LASF1630
C:\Users\stapi\AppData\Local\Temp\cckpGNDB.s:24961  .debug_str:00000000000057fa .LASF1631
C:\Users\stapi\AppData\Local\Temp\cckpGNDB.s:23087  .debug_str:00000000000020ac .LASF1632
C:\Users\stapi\AppData\Local\Temp\cckpGNDB.s:23579  .debug_str:0000000000002f50 .LASF1633
C:\Users\stapi\AppData\Local\Temp\cckpGNDB.s:23037  .debug_str:0000000000001f64 .LASF1634
C:\Users\stapi\AppData\Local\Temp\cckpGNDB.s:24235  .debug_str:0000000000004361 .LASF1635
C:\Users\stapi\AppData\Local\Temp\cckpGNDB.s:22627  .debug_str:0000000000001424 .LASF1636
C:\Users\stapi\AppData\Local\Temp\cckpGNDB.s:22457  .debug_str:0000000000000f03 .LASF1637
C:\Users\stapi\AppData\Local\Temp\cckpGNDB.s:22585  .debug_str:0000000000001312 .LASF1638
C:\Users\stapi\AppData\Local\Temp\cckpGNDB.s:23051  .debug_str:0000000000001fb1 .LASF1639
C:\Users\stapi\AppData\Local\Temp\cckpGNDB.s:24833  .debug_str:0000000000005440 .LASF1640
C:\Users\stapi\AppData\Local\Temp\cckpGNDB.s:23519  .debug_str:0000000000002db1 .LASF1641
C:\Users\stapi\AppData\Local\Temp\cckpGNDB.s:22705  .debug_str:000000000000165b .LASF1642
C:\Users\stapi\AppData\Local\Temp\cckpGNDB.s:24057  .debug_str:0000000000003ea0 .LASF1643
C:\Users\stapi\AppData\Local\Temp\cckpGNDB.s:23855  .debug_str:0000000000003789 .LASF1644
C:\Users\stapi\AppData\Local\Temp\cckpGNDB.s:23611  .debug_str:0000000000003038 .LASF1645
C:\Users\stapi\AppData\Local\Temp\cckpGNDB.s:23229  .debug_str:00000000000024da .LASF1646
C:\Users\stapi\AppData\Local\Temp\cckpGNDB.s:23917  .debug_str:0000000000003a4e .LASF1647
C:\Users\stapi\AppData\Local\Temp\cckpGNDB.s:24101  .debug_str:0000000000003ffc .LASF1648
C:\Users\stapi\AppData\Local\Temp\cckpGNDB.s:23779  .debug_str:000000000000353a .LASF1649
C:\Users\stapi\AppData\Local\Temp\cckpGNDB.s:22969  .debug_str:0000000000001d85 .LASF1650
C:\Users\stapi\AppData\Local\Temp\cckpGNDB.s:22689  .debug_str:00000000000015ed .LASF1651
C:\Users\stapi\AppData\Local\Temp\cckpGNDB.s:24241  .debug_str:0000000000004385 .LASF1652
C:\Users\stapi\AppData\Local\Temp\cckpGNDB.s:23431  .debug_str:0000000000002b3f .LASF1653
C:\Users\stapi\AppData\Local\Temp\cckpGNDB.s:22985  .debug_str:0000000000001dff .LASF1654
C:\Users\stapi\AppData\Local\Temp\cckpGNDB.s:22803  .debug_str:0000000000001920 .LASF1655
C:\Users\stapi\AppData\Local\Temp\cckpGNDB.s:25037  .debug_str:0000000000005a57 .LASF1656
C:\Users\stapi\AppData\Local\Temp\cckpGNDB.s:24647  .debug_str:0000000000004ebf .LASF1657
C:\Users\stapi\AppData\Local\Temp\cckpGNDB.s:24615  .debug_str:0000000000004de4 .LASF1658
C:\Users\stapi\AppData\Local\Temp\cckpGNDB.s:22153  .debug_str:000000000000066d .LASF1659
C:\Users\stapi\AppData\Local\Temp\cckpGNDB.s:23585  .debug_str:0000000000002f82 .LASF1660
C:\Users\stapi\AppData\Local\Temp\cckpGNDB.s:25157  .debug_str:0000000000005e1a .LASF1661
C:\Users\stapi\AppData\Local\Temp\cckpGNDB.s:25313  .debug_str:00000000000062a3 .LASF1662
C:\Users\stapi\AppData\Local\Temp\cckpGNDB.s:24335  .debug_str:0000000000004635 .LASF1663
C:\Users\stapi\AppData\Local\Temp\cckpGNDB.s:23401  .debug_str:0000000000002a42 .LASF1664
C:\Users\stapi\AppData\Local\Temp\cckpGNDB.s:24859  .debug_str:00000000000054ec .LASF1665
C:\Users\stapi\AppData\Local\Temp\cckpGNDB.s:25127  .debug_str:0000000000005d62 .LASF1666
C:\Users\stapi\AppData\Local\Temp\cckpGNDB.s:23823  .debug_str:0000000000003694 .LASF1702
C:\Users\stapi\AppData\Local\Temp\cckpGNDB.s:899    .text.hostapd_wmm_action:0000000000000000 .LFB176
C:\Users\stapi\AppData\Local\Temp\cckpGNDB.s:1163   .text.hostapd_wmm_action:0000000000000186 .LFE176
C:\Users\stapi\AppData\Local\Temp\cckpGNDB.s:24511  .debug_str:0000000000004af6 .LASF1667
C:\Users\stapi\AppData\Local\Temp\cckpGNDB.s:20841  .debug_loc:0000000000000000 .LLST31
C:\Users\stapi\AppData\Local\Temp\cckpGNDB.s:24039  .debug_str:0000000000003e1e .LASF1668
C:\Users\stapi\AppData\Local\Temp\cckpGNDB.s:20852  .debug_loc:000000000000001e .LLST32
C:\Users\stapi\AppData\Local\Temp\cckpGNDB.s:20879  .debug_loc:0000000000000061 .LLST33
C:\Users\stapi\AppData\Local\Temp\cckpGNDB.s:20897  .debug_loc:000000000000008d .LLST34
C:\Users\stapi\AppData\Local\Temp\cckpGNDB.s:24463  .debug_str:000000000000497e .LASF1669
C:\Users\stapi\AppData\Local\Temp\cckpGNDB.s:20937  .debug_loc:00000000000000d6 .LLST35
C:\Users\stapi\AppData\Local\Temp\cckpGNDB.s:24353  .debug_str:00000000000046b3 .LASF1670
C:\Users\stapi\AppData\Local\Temp\cckpGNDB.s:20971  .debug_loc:0000000000000120 .LLST36
C:\Users\stapi\AppData\Local\Temp\cckpGNDB.s:978    .text.hostapd_wmm_action:0000000000000068 .LBB39
C:\Users\stapi\AppData\Local\Temp\cckpGNDB.s:20978  .debug_loc:0000000000000133 .LLST37
C:\Users\stapi\AppData\Local\Temp\cckpGNDB.s:20999  .debug_loc:0000000000000162 .LLST38
C:\Users\stapi\AppData\Local\Temp\cckpGNDB.s:21014  .debug_loc:0000000000000184 .LLST39
C:\Users\stapi\AppData\Local\Temp\cckpGNDB.s:21037  .debug_loc:00000000000001bc .LLST40
C:\Users\stapi\AppData\Local\Temp\cckpGNDB.s:21048  .debug_loc:00000000000001da .LLST41
C:\Users\stapi\AppData\Local\Temp\cckpGNDB.s:998    .text.hostapd_wmm_action:000000000000007c .LBB41
C:\Users\stapi\AppData\Local\Temp\cckpGNDB.s:21102  .debug_loc:000000000000023f .LLST42
C:\Users\stapi\AppData\Local\Temp\cckpGNDB.s:21121  .debug_loc:000000000000026e .LLST43
C:\Users\stapi\AppData\Local\Temp\cckpGNDB.s:21144  .debug_loc:00000000000002a8 .LLST44
C:\Users\stapi\AppData\Local\Temp\cckpGNDB.s:1002   .text.hostapd_wmm_action:0000000000000084 .LVL82
C:\Users\stapi\AppData\Local\Temp\cckpGNDB.s:1085   .text.hostapd_wmm_action:0000000000000106 .LVL91
C:\Users\stapi\AppData\Local\Temp\cckpGNDB.s:1097   .text.hostapd_wmm_action:000000000000011c .LVL92
C:\Users\stapi\AppData\Local\Temp\cckpGNDB.s:1106   .text.hostapd_wmm_action:0000000000000130 .LVL93
C:\Users\stapi\AppData\Local\Temp\cckpGNDB.s:1112   .text.hostapd_wmm_action:000000000000013e .LVL94
C:\Users\stapi\AppData\Local\Temp\cckpGNDB.s:1137   .text.hostapd_wmm_action:000000000000015e .LVL97
C:\Users\stapi\AppData\Local\Temp\cckpGNDB.s:1150   .text.hostapd_wmm_action:0000000000000176 .LVL99
C:\Users\stapi\AppData\Local\Temp\cckpGNDB.s:1039   .text.hostapd_wmm_action:00000000000000c0 .LVL85
C:\Users\stapi\AppData\Local\Temp\cckpGNDB.s:1045   .text.hostapd_wmm_action:00000000000000d2 .LVL86
C:\Users\stapi\AppData\Local\Temp\cckpGNDB.s:1050   .text.hostapd_wmm_action:00000000000000dc .LVL87
C:\Users\stapi\AppData\Local\Temp\cckpGNDB.s:1061   .text.hostapd_wmm_action:00000000000000f2 .LVL89
C:\Users\stapi\AppData\Local\Temp\cckpGNDB.s:932    .text.hostapd_wmm_action:0000000000000020 .LVL72
C:\Users\stapi\AppData\Local\Temp\cckpGNDB.s:957    .text.hostapd_wmm_action:0000000000000048 .LVL75
C:\Users\stapi\AppData\Local\Temp\cckpGNDB.s:24381  .debug_str:0000000000004755 .LASF1674
C:\Users\stapi\AppData\Local\Temp\cckpGNDB.s:22767  .debug_str:000000000000181d .LASF1671
C:\Users\stapi\AppData\Local\Temp\cckpGNDB.s:23465  .debug_str:0000000000002c3f .LASF1672
C:\Users\stapi\AppData\Local\Temp\cckpGNDB.s:24659  .debug_str:0000000000004f1b .LASF1677
C:\Users\stapi\AppData\Local\Temp\cckpGNDB.s:548    .text.wmm_process_tspec:0000000000000000 .LFB174
C:\Users\stapi\AppData\Local\Temp\cckpGNDB.s:879    .text.wmm_process_tspec:0000000000000246 .LFE174
C:\Users\stapi\AppData\Local\Temp\cckpGNDB.s:21163  .debug_loc:00000000000002d7 .LLST22
C:\Users\stapi\AppData\Local\Temp\cckpGNDB.s:21174  .debug_loc:00000000000002f5 .LLST23
C:\Users\stapi\AppData\Local\Temp\cckpGNDB.s:21181  .debug_loc:0000000000000308 .LLST24
C:\Users\stapi\AppData\Local\Temp\cckpGNDB.s:21291  .debug_loc:0000000000000393 .LLST25
C:\Users\stapi\AppData\Local\Temp\cckpGNDB.s:21322  .debug_loc:00000000000003c5 .LLST26
C:\Users\stapi\AppData\Local\Temp\cckpGNDB.s:21353  .debug_loc:00000000000003f7 .LLST27
C:\Users\stapi\AppData\Local\Temp\cckpGNDB.s:21399  .debug_loc:000000000000043f .LLST28
C:\Users\stapi\AppData\Local\Temp\cckpGNDB.s:21445  .debug_loc:0000000000000487 .LLST29
C:\Users\stapi\AppData\Local\Temp\cckpGNDB.s:24663  .debug_str:0000000000004f3f .LASF1673
C:\Users\stapi\AppData\Local\Temp\cckpGNDB.s:21510  .debug_loc:00000000000004fe .LLST30
C:\Users\stapi\AppData\Local\Temp\cckpGNDB.s:594    .text.wmm_process_tspec:0000000000000038 .LVL46
C:\Users\stapi\AppData\Local\Temp\cckpGNDB.s:615    .text.wmm_process_tspec:000000000000006c .LVL48
C:\Users\stapi\AppData\Local\Temp\cckpGNDB.s:640    .text.wmm_process_tspec:000000000000009c .LVL49
C:\Users\stapi\AppData\Local\Temp\cckpGNDB.s:662    .text.wmm_process_tspec:00000000000000ca .LVL50
C:\Users\stapi\AppData\Local\Temp\cckpGNDB.s:687    .text.wmm_process_tspec:00000000000000fa .LVL53
C:\Users\stapi\AppData\Local\Temp\cckpGNDB.s:706    .text.wmm_process_tspec:000000000000011a .LVL56
C:\Users\stapi\AppData\Local\Temp\cckpGNDB.s:761    .text.wmm_process_tspec:0000000000000168 .LVL61
C:\Users\stapi\AppData\Local\Temp\cckpGNDB.s:839    .text.wmm_process_tspec:00000000000001fe .LVL66
C:\Users\stapi\AppData\Local\Temp\cckpGNDB.s:858    .text.wmm_process_tspec:0000000000000224 .LVL68
C:\Users\stapi\AppData\Local\Temp\cckpGNDB.s:23427  .debug_str:0000000000002b25 .LASF1675
C:\Users\stapi\AppData\Local\Temp\cckpGNDB.s:23817  .debug_str:0000000000003661 .LASF1676
C:\Users\stapi\AppData\Local\Temp\cckpGNDB.s:25045  .debug_str:0000000000005a89 .LASF1678
C:\Users\stapi\AppData\Local\Temp\cckpGNDB.s:409    .text.hostapd_eid_wmm_valid:0000000000000000 .LFB172
C:\Users\stapi\AppData\Local\Temp\cckpGNDB.s:501    .text.hostapd_eid_wmm_valid:000000000000009e .LFE172
C:\Users\stapi\AppData\Local\Temp\cckpGNDB.s:21517  .debug_loc:0000000000000511 .LLST19
C:\Users\stapi\AppData\Local\Temp\cckpGNDB.s:21531  .debug_loc:0000000000000532 .LLST20
C:\Users\stapi\AppData\Local\Temp\cckpGNDB.s:21542  .debug_loc:0000000000000550 .LLST21
C:\Users\stapi\AppData\Local\Temp\cckpGNDB.s:437    .text.hostapd_eid_wmm_valid:0000000000000024 .LVL35
C:\Users\stapi\AppData\Local\Temp\cckpGNDB.s:448    .text.hostapd_eid_wmm_valid:000000000000003e .LVL36
C:\Users\stapi\AppData\Local\Temp\cckpGNDB.s:481    .text.hostapd_eid_wmm_valid:000000000000007a .LVL38
C:\Users\stapi\AppData\Local\Temp\cckpGNDB.s:498    .text.hostapd_eid_wmm_valid:000000000000009c .LVL39
C:\Users\stapi\AppData\Local\Temp\cckpGNDB.s:22949  .debug_str:0000000000001d05 .LASF1679
C:\Users\stapi\AppData\Local\Temp\cckpGNDB.s:14     .text.hostapd_eid_wmm:0000000000000000 .LFB171
C:\Users\stapi\AppData\Local\Temp\cckpGNDB.s:389    .text.hostapd_eid_wmm:00000000000001a6 .LFE171
C:\Users\stapi\AppData\Local\Temp\cckpGNDB.s:21553  .debug_loc:000000000000056e .LLST0
C:\Users\stapi\AppData\Local\Temp\cckpGNDB.s:21564  .debug_loc:000000000000058c .LLST1
C:\Users\stapi\AppData\Local\Temp\cckpGNDB.s:21586  .debug_loc:00000000000005c3 .LLST2
C:\Users\stapi\AppData\Local\Temp\cckpGNDB.s:21607  .debug_loc:00000000000005f9 .LLST3
C:\Users\stapi\AppData\Local\Temp\cckpGNDB.s:22229  .debug_str:0000000000000884 .LASF1680
C:\Users\stapi\AppData\Local\Temp\cckpGNDB.s:21637  .debug_loc:0000000000000638 .LLST4
C:\Users\stapi\AppData\Local\Temp\cckpGNDB.s:21659  .debug_loc:000000000000066f .LLST13
C:\Users\stapi\AppData\Local\Temp\cckpGNDB.s:21688  .debug_loc:000000000000069f .LLST14
C:\Users\stapi\AppData\Local\Temp\cckpGNDB.s:216    .text.hostapd_eid_wmm:0000000000000102 .LBB26
C:\Users\stapi\AppData\Local\Temp\cckpGNDB.s:243    .text.hostapd_eid_wmm:0000000000000114 .LBE26
C:\Users\stapi\AppData\Local\Temp\cckpGNDB.s:21713  .debug_loc:00000000000006cd .LLST15
C:\Users\stapi\AppData\Local\Temp\cckpGNDB.s:21720  .debug_loc:00000000000006e0 .LLST16
C:\Users\stapi\AppData\Local\Temp\cckpGNDB.s:21728  .debug_loc:00000000000006f4 .LLST17
C:\Users\stapi\AppData\Local\Temp\cckpGNDB.s:21736  .debug_loc:0000000000000708 .LLST18
C:\Users\stapi\AppData\Local\Temp\cckpGNDB.s:248    .text.hostapd_eid_wmm:0000000000000118 .LBB28
C:\Users\stapi\AppData\Local\Temp\cckpGNDB.s:52     .text.hostapd_eid_wmm:0000000000000028 .LBB15
C:\Users\stapi\AppData\Local\Temp\cckpGNDB.s:21743  .debug_loc:000000000000071b .LLST5
C:\Users\stapi\AppData\Local\Temp\cckpGNDB.s:21754  .debug_loc:0000000000000739 .LLST6
C:\Users\stapi\AppData\Local\Temp\cckpGNDB.s:21765  .debug_loc:0000000000000757 .LLST7
C:\Users\stapi\AppData\Local\Temp\cckpGNDB.s:21776  .debug_loc:0000000000000775 .LLST8
C:\Users\stapi\AppData\Local\Temp\cckpGNDB.s:21788  .debug_loc:0000000000000794 .LLST9
C:\Users\stapi\AppData\Local\Temp\cckpGNDB.s:326    .text.hostapd_eid_wmm:0000000000000158 .LBB18
C:\Users\stapi\AppData\Local\Temp\cckpGNDB.s:384    .text.hostapd_eid_wmm:00000000000001a6 .LBE18
C:\Users\stapi\AppData\Local\Temp\cckpGNDB.s:21805  .debug_loc:00000000000007bf .LLST10
C:\Users\stapi\AppData\Local\Temp\cckpGNDB.s:21818  .debug_loc:00000000000007df .LLST11
C:\Users\stapi\AppData\Local\Temp\cckpGNDB.s:21840  .debug_loc:0000000000000811 .LLST12
C:\Users\stapi\AppData\Local\Temp\cckpGNDB.s:69     .text.hostapd_eid_wmm:0000000000000042 .LVL7
C:\Users\stapi\AppData\Local\Temp\cckpGNDB.s:125    .text.hostapd_eid_wmm:0000000000000082 .LVL13
C:\Users\stapi\AppData\Local\Temp\cckpGNDB.s:136    .text.hostapd_eid_wmm:0000000000000098 .LVL14
C:\Users\stapi\AppData\Local\Temp\cckpGNDB.s:43     .text.hostapd_eid_wmm:000000000000001e .LVL4
C:\Users\stapi\AppData\Local\Temp\cckpGNDB.s:23277  .debug_str:0000000000002654 .LASF1681
C:\Users\stapi\AppData\Local\Temp\cckpGNDB.s:23329  .debug_str:00000000000027f3 .LASF1682
C:\Users\stapi\AppData\Local\Temp\cckpGNDB.s:25019  .debug_str:00000000000059b7 .LASF1683
C:\Users\stapi\AppData\Local\Temp\cckpGNDB.s:25281  .debug_str:00000000000061a9 .LASF1684
C:\Users\stapi\AppData\Local\Temp\cckpGNDB.s:25327  .debug_str:0000000000006311 .LASF1687
C:\Users\stapi\AppData\Local\Temp\cckpGNDB.s:22459  .debug_str:0000000000000f09 .LASF1685
C:\Users\stapi\AppData\Local\Temp\cckpGNDB.s:22239  .debug_str:00000000000008b9 .LASF1686
C:\Users\stapi\AppData\Local\Temp\cckpGNDB.s:23349  .debug_str:0000000000002892 .LASF1688
C:\Users\stapi\AppData\Local\Temp\cckpGNDB.s:24571  .debug_str:0000000000004c9c .LASF1689
C:\Users\stapi\AppData\Local\Temp\cckpGNDB.s:25221  .debug_str:0000000000005fe8 .LASF1690
C:\Users\stapi\AppData\Local\Temp\cckpGNDB.s:22957  .debug_str:0000000000001d3c .LASF1691
C:\Users\stapi\AppData\Local\Temp\cckpGNDB.s:24073  .debug_str:0000000000003f12 .LASF1692
C:\Users\stapi\AppData\Local\Temp\cckpGNDB.s:24021  .debug_str:0000000000003d92 .LASF1693
C:\Users\stapi\AppData\Local\Temp\cckpGNDB.s:24613  .debug_str:0000000000004dd9 .LASF1694
C:\Users\stapi\AppData\Local\Temp\cckpGNDB.s:23737  .debug_str:00000000000033e8 .LASF1695
C:\Users\stapi\AppData\Local\Temp\cckpGNDB.s:22827  .debug_str:00000000000019b2 .LASF1696
C:\Users\stapi\AppData\Local\Temp\cckpGNDB.s:23967  .debug_str:0000000000003bff .LASF1697
C:\Users\stapi\AppData\Local\Temp\cckpGNDB.s:902    .text.hostapd_wmm_action:0000000000000000 .LVL69
C:\Users\stapi\AppData\Local\Temp\cckpGNDB.s:922    .text.hostapd_wmm_action:0000000000000014 .LVL70
C:\Users\stapi\AppData\Local\Temp\cckpGNDB.s:996    .text.hostapd_wmm_action:000000000000007c .LVL81
C:\Users\stapi\AppData\Local\Temp\cckpGNDB.s:1020   .text.hostapd_wmm_action:0000000000000090 .LVL83
C:\Users\stapi\AppData\Local\Temp\cckpGNDB.s:1073   .text.hostapd_wmm_action:00000000000000fe .LVL90
C:\Users\stapi\AppData\Local\Temp\cckpGNDB.s:986    .text.hostapd_wmm_action:000000000000006a .LVL79
C:\Users\stapi\AppData\Local\Temp\cckpGNDB.s:971    .text.hostapd_wmm_action:0000000000000062 .LVL76
C:\Users\stapi\AppData\Local\Temp\cckpGNDB.s:974    .text.hostapd_wmm_action:0000000000000066 .LVL77
C:\Users\stapi\AppData\Local\Temp\cckpGNDB.s:989    .text.hostapd_wmm_action:000000000000006e .LVL80
C:\Users\stapi\AppData\Local\Temp\cckpGNDB.s:1030   .text.hostapd_wmm_action:000000000000009e .LVL84
C:\Users\stapi\AppData\Local\Temp\cckpGNDB.s:926    .text.hostapd_wmm_action:0000000000000018 .LVL71
C:\Users\stapi\AppData\Local\Temp\cckpGNDB.s:946    .text.hostapd_wmm_action:0000000000000034 .LVL73
C:\Users\stapi\AppData\Local\Temp\cckpGNDB.s:955    .text.hostapd_wmm_action:0000000000000040 .LVL74
C:\Users\stapi\AppData\Local\Temp\cckpGNDB.s:977    .text.hostapd_wmm_action:0000000000000068 .LVL78
C:\Users\stapi\AppData\Local\Temp\cckpGNDB.s:1056   .text.hostapd_wmm_action:00000000000000e4 .LVL88
C:\Users\stapi\AppData\Local\Temp\cckpGNDB.s:1120   .text.hostapd_wmm_action:0000000000000148 .LVL95
C:\Users\stapi\AppData\Local\Temp\cckpGNDB.s:1147   .text.hostapd_wmm_action:000000000000016c .LVL98
C:\Users\stapi\AppData\Local\Temp\cckpGNDB.s:1122   .text.hostapd_wmm_action:000000000000014a .LVL96
C:\Users\stapi\AppData\Local\Temp\cckpGNDB.s:551    .text.wmm_process_tspec:0000000000000000 .LVL40
C:\Users\stapi\AppData\Local\Temp\cckpGNDB.s:590    .text.wmm_process_tspec:000000000000002c .LVL44
C:\Users\stapi\AppData\Local\Temp\cckpGNDB.s:756    .text.wmm_process_tspec:000000000000015e .LVL59
C:\Users\stapi\AppData\Local\Temp\cckpGNDB.s:831    .text.wmm_process_tspec:00000000000001e8 .LVL65
C:\Users\stapi\AppData\Local\Temp\cckpGNDB.s:786    .text.wmm_process_tspec:000000000000019a .LVL62
C:\Users\stapi\AppData\Local\Temp\cckpGNDB.s:806    .text.wmm_process_tspec:00000000000001bc .LVL64
C:\Users\stapi\AppData\Local\Temp\cckpGNDB.s:566    .text.wmm_process_tspec:000000000000000c .LVL41
C:\Users\stapi\AppData\Local\Temp\cckpGNDB.s:592    .text.wmm_process_tspec:0000000000000030 .LVL45
C:\Users\stapi\AppData\Local\Temp\cckpGNDB.s:571    .text.wmm_process_tspec:0000000000000010 .LVL42
C:\Users\stapi\AppData\Local\Temp\cckpGNDB.s:581    .text.wmm_process_tspec:000000000000001e .LVL43
C:\Users\stapi\AppData\Local\Temp\cckpGNDB.s:601    .text.wmm_process_tspec:0000000000000044 .LVL47
C:\Users\stapi\AppData\Local\Temp\cckpGNDB.s:672    .text.wmm_process_tspec:00000000000000da .LVL51
C:\Users\stapi\AppData\Local\Temp\cckpGNDB.s:682    .text.wmm_process_tspec:00000000000000ea .LVL52
C:\Users\stapi\AppData\Local\Temp\cckpGNDB.s:694    .text.wmm_process_tspec:0000000000000106 .LVL54
C:\Users\stapi\AppData\Local\Temp\cckpGNDB.s:701    .text.wmm_process_tspec:0000000000000110 .LVL55
C:\Users\stapi\AppData\Local\Temp\cckpGNDB.s:720    .text.wmm_process_tspec:0000000000000124 .LVL57
C:\Users\stapi\AppData\Local\Temp\cckpGNDB.s:727    .text.wmm_process_tspec:000000000000012e .LVL58
C:\Users\stapi\AppData\Local\Temp\cckpGNDB.s:759    .text.wmm_process_tspec:0000000000000160 .LVL60
C:\Users\stapi\AppData\Local\Temp\cckpGNDB.s:793    .text.wmm_process_tspec:00000000000001a6 .LVL63
C:\Users\stapi\AppData\Local\Temp\cckpGNDB.s:412    .text.hostapd_eid_wmm_valid:0000000000000000 .LVL31
C:\Users\stapi\AppData\Local\Temp\cckpGNDB.s:435    .text.hostapd_eid_wmm_valid:000000000000001c .LVL34
C:\Users\stapi\AppData\Local\Temp\cckpGNDB.s:428    .text.hostapd_eid_wmm_valid:0000000000000014 .LVL33
C:\Users\stapi\AppData\Local\Temp\cckpGNDB.s:426    .text.hostapd_eid_wmm_valid:0000000000000010 .LVL32
C:\Users\stapi\AppData\Local\Temp\cckpGNDB.s:18     .text.hostapd_eid_wmm:0000000000000000 .LVL0
C:\Users\stapi\AppData\Local\Temp\cckpGNDB.s:41     .text.hostapd_eid_wmm:0000000000000016 .LVL3
C:\Users\stapi\AppData\Local\Temp\cckpGNDB.s:39     .text.hostapd_eid_wmm:0000000000000014 .LVL2
C:\Users\stapi\AppData\Local\Temp\cckpGNDB.s:303    .text.hostapd_eid_wmm:000000000000014a .LVL25
C:\Users\stapi\AppData\Local\Temp\cckpGNDB.s:316    .text.hostapd_eid_wmm:0000000000000156 .LVL26
C:\Users\stapi\AppData\Local\Temp\cckpGNDB.s:32     .text.hostapd_eid_wmm:000000000000000e .LVL1
C:\Users\stapi\AppData\Local\Temp\cckpGNDB.s:294    .text.hostapd_eid_wmm:0000000000000142 .LVL24
C:\Users\stapi\AppData\Local\Temp\cckpGNDB.s:202    .text.hostapd_eid_wmm:00000000000000f8 .LVL16
C:\Users\stapi\AppData\Local\Temp\cckpGNDB.s:210    .text.hostapd_eid_wmm:0000000000000102 .LVL17
C:\Users\stapi\AppData\Local\Temp\cckpGNDB.s:280    .text.hostapd_eid_wmm:0000000000000132 .LVL22
C:\Users\stapi\AppData\Local\Temp\cckpGNDB.s:288    .text.hostapd_eid_wmm:000000000000013c .LVL23
C:\Users\stapi\AppData\Local\Temp\cckpGNDB.s:240    .text.hostapd_eid_wmm:0000000000000114 .LVL20
C:\Users\stapi\AppData\Local\Temp\cckpGNDB.s:226    .text.hostapd_eid_wmm:0000000000000108 .LVL18
C:\Users\stapi\AppData\Local\Temp\cckpGNDB.s:51     .text.hostapd_eid_wmm:0000000000000028 .LVL5
C:\Users\stapi\AppData\Local\Temp\cckpGNDB.s:143    .text.hostapd_eid_wmm:00000000000000a2 .LVL15
C:\Users\stapi\AppData\Local\Temp\cckpGNDB.s:65     .text.hostapd_eid_wmm:000000000000003a .LVL6
C:\Users\stapi\AppData\Local\Temp\cckpGNDB.s:80     .text.hostapd_eid_wmm:000000000000004a .LVL8
C:\Users\stapi\AppData\Local\Temp\cckpGNDB.s:114    .text.hostapd_eid_wmm:000000000000006e .LVL11
C:\Users\stapi\AppData\Local\Temp\cckpGNDB.s:97     .text.hostapd_eid_wmm:0000000000000062 .LVL9
C:\Users\stapi\AppData\Local\Temp\cckpGNDB.s:116    .text.hostapd_eid_wmm:0000000000000070 .LVL12
C:\Users\stapi\AppData\Local\Temp\cckpGNDB.s:332    .text.hostapd_eid_wmm:000000000000015c .LVL28
C:\Users\stapi\AppData\Local\Temp\cckpGNDB.s:337    .text.hostapd_eid_wmm:0000000000000166 .LVL30
C:\Users\stapi\AppData\Local\Temp\cckpGNDB.s:325    .text.hostapd_eid_wmm:0000000000000158 .LVL27
C:\Users\stapi\AppData\Local\Temp\cckpGNDB.s:335    .text.hostapd_eid_wmm:0000000000000162 .LVL29
C:\Users\stapi\AppData\Local\Temp\cckpGNDB.s:1191   .debug_info:0000000000000000 .Ldebug_info0
C:\Users\stapi\AppData\Local\Temp\cckpGNDB.s:145    .text.hostapd_eid_wmm:00000000000000a2 .LBE15
C:\Users\stapi\AppData\Local\Temp\cckpGNDB.s:319    .text.hostapd_eid_wmm:0000000000000156 .LBB34
C:\Users\stapi\AppData\Local\Temp\cckpGNDB.s:387    .text.hostapd_eid_wmm:00000000000001a6 .LBE34
C:\Users\stapi\AppData\Local\Temp\cckpGNDB.s:71     .text.hostapd_eid_wmm:0000000000000042 .LBB17
C:\Users\stapi\AppData\Local\Temp\cckpGNDB.s:74     .text.hostapd_eid_wmm:0000000000000044 .LBE17
C:\Users\stapi\AppData\Local\Temp\cckpGNDB.s:77     .text.hostapd_eid_wmm:0000000000000046 .LBB20
C:\Users\stapi\AppData\Local\Temp\cckpGNDB.s:82     .text.hostapd_eid_wmm:000000000000004a .LBE20
C:\Users\stapi\AppData\Local\Temp\cckpGNDB.s:89     .text.hostapd_eid_wmm:0000000000000056 .LBB21
C:\Users\stapi\AppData\Local\Temp\cckpGNDB.s:103    .text.hostapd_eid_wmm:0000000000000068 .LBE21
C:\Users\stapi\AppData\Local\Temp\cckpGNDB.s:110    .text.hostapd_eid_wmm:000000000000006c .LBB22
C:\Users\stapi\AppData\Local\Temp\cckpGNDB.s:118    .text.hostapd_eid_wmm:0000000000000070 .LBE22
C:\Users\stapi\AppData\Local\Temp\cckpGNDB.s:321    .text.hostapd_eid_wmm:0000000000000156 .LBB23
C:\Users\stapi\AppData\Local\Temp\cckpGNDB.s:385    .text.hostapd_eid_wmm:00000000000001a6 .LBE23
C:\Users\stapi\AppData\Local\Temp\cckpGNDB.s:212    .text.hostapd_eid_wmm:0000000000000102 .LBB25
C:\Users\stapi\AppData\Local\Temp\cckpGNDB.s:257    .text.hostapd_eid_wmm:000000000000011c .LBE25
C:\Users\stapi\AppData\Local\Temp\cckpGNDB.s:260    .text.hostapd_eid_wmm:000000000000011e .LBB32
C:\Users\stapi\AppData\Local\Temp\cckpGNDB.s:277    .text.hostapd_eid_wmm:0000000000000130 .LBE32
C:\Users\stapi\AppData\Local\Temp\cckpGNDB.s:281    .text.hostapd_eid_wmm:0000000000000132 .LBB33
C:\Users\stapi\AppData\Local\Temp\cckpGNDB.s:286    .text.hostapd_eid_wmm:000000000000013c .LBE33
C:\Users\stapi\AppData\Local\Temp\cckpGNDB.s:256    .text.hostapd_eid_wmm:000000000000011c .LBE28
C:\Users\stapi\AppData\Local\Temp\cckpGNDB.s:261    .text.hostapd_eid_wmm:000000000000011e .LBB31
C:\Users\stapi\AppData\Local\Temp\cckpGNDB.s:270    .text.hostapd_eid_wmm:0000000000000124 .LBE31
C:\Users\stapi\AppData\Local\Temp\cckpGNDB.s:1007   .text.hostapd_wmm_action:0000000000000084 .LBE39
C:\Users\stapi\AppData\Local\Temp\cckpGNDB.s:1023   .text.hostapd_wmm_action:0000000000000090 .LBB50
C:\Users\stapi\AppData\Local\Temp\cckpGNDB.s:1161   .text.hostapd_wmm_action:0000000000000186 .LBE50
C:\Users\stapi\AppData\Local\Temp\cckpGNDB.s:1005   .text.hostapd_wmm_action:0000000000000084 .LBE41
C:\Users\stapi\AppData\Local\Temp\cckpGNDB.s:1063   .text.hostapd_wmm_action:00000000000000f2 .LBB46
C:\Users\stapi\AppData\Local\Temp\cckpGNDB.s:1070   .text.hostapd_wmm_action:00000000000000fa .LBE46
C:\Users\stapi\AppData\Local\Temp\cckpGNDB.s:1074   .text.hostapd_wmm_action:00000000000000fe .LBB47
C:\Users\stapi\AppData\Local\Temp\cckpGNDB.s:1130   .text.hostapd_wmm_action:0000000000000152 .LBE47
C:\Users\stapi\AppData\Local\Temp\cckpGNDB.s:1133   .text.hostapd_wmm_action:0000000000000156 .LBB48
C:\Users\stapi\AppData\Local\Temp\cckpGNDB.s:1159   .text.hostapd_wmm_action:0000000000000186 .LBE48

UNDEFINED SYMBOLS
__riscv_save_3
os_memset
os_memcpy
os_memcmp
__riscv_restore_3
__riscv_save_2
wpa_hexdump
wpa_printf
__riscv_restore_2
__riscv_save_4
__riscv_restore_4
__riscv_save_5
ap_get_sta
ieee802_11_parse_elems
__riscv_restore_5
hostapd_drv_send_mlme
