   1              		.file	"wmm.c"
   2              		.option nopic
   3              		.attribute arch, "rv32i2p0_m2p0_a2p0_f2p0_c2p0_b_p0p94"
   4              		.attribute unaligned_access, 0
   5              		.attribute stack_align, 16
   6              		.text
   7              	.Ltext0:
   8              		.cfi_sections	.debug_frame
   9              		.section	.text.hostapd_eid_wmm,"ax",@progbits
  10              		.align	1
  11              		.globl	hostapd_eid_wmm
  13              	hostapd_eid_wmm:
  14              	.LFB171:
  15              		.file 1 "C:/Users/stapi/OneDrive/Desktop/GD32VW553/V1_MQTT_OK/GD32VW55X_Wifi_BLE_SDK/GD32VW55x_REL
   1:C:/Users/stapi/OneDrive/Desktop/GD32VW553/V1_MQTT_OK/GD32VW55X_Wifi_BLE_SDK/GD32VW55x_RELEASE_V1.0.2/MSDK/wpa_supplicant/src/ap\wmm.c **** /*
   2:C:/Users/stapi/OneDrive/Desktop/GD32VW553/V1_MQTT_OK/GD32VW55X_Wifi_BLE_SDK/GD32VW55x_RELEASE_V1.0.2/MSDK/wpa_supplicant/src/ap\wmm.c ****  * hostapd / WMM (Wi-Fi Multimedia)
   3:C:/Users/stapi/OneDrive/Desktop/GD32VW553/V1_MQTT_OK/GD32VW55X_Wifi_BLE_SDK/GD32VW55x_RELEASE_V1.0.2/MSDK/wpa_supplicant/src/ap\wmm.c ****  * Copyright 2002-2003, Instant802 Networks, Inc.
   4:C:/Users/stapi/OneDrive/Desktop/GD32VW553/V1_MQTT_OK/GD32VW55X_Wifi_BLE_SDK/GD32VW55x_RELEASE_V1.0.2/MSDK/wpa_supplicant/src/ap\wmm.c ****  * Copyright 2005-2006, Devicescape Software, Inc.
   5:C:/Users/stapi/OneDrive/Desktop/GD32VW553/V1_MQTT_OK/GD32VW55X_Wifi_BLE_SDK/GD32VW55x_RELEASE_V1.0.2/MSDK/wpa_supplicant/src/ap\wmm.c ****  * Copyright (c) 2009, Jouni Malinen <j@w1.fi>
   6:C:/Users/stapi/OneDrive/Desktop/GD32VW553/V1_MQTT_OK/GD32VW55X_Wifi_BLE_SDK/GD32VW55x_RELEASE_V1.0.2/MSDK/wpa_supplicant/src/ap\wmm.c ****  *
   7:C:/Users/stapi/OneDrive/Desktop/GD32VW553/V1_MQTT_OK/GD32VW55X_Wifi_BLE_SDK/GD32VW55x_RELEASE_V1.0.2/MSDK/wpa_supplicant/src/ap\wmm.c ****  * This software may be distributed under the terms of the BSD license.
   8:C:/Users/stapi/OneDrive/Desktop/GD32VW553/V1_MQTT_OK/GD32VW55X_Wifi_BLE_SDK/GD32VW55x_RELEASE_V1.0.2/MSDK/wpa_supplicant/src/ap\wmm.c ****  * See README for more details.
   9:C:/Users/stapi/OneDrive/Desktop/GD32VW553/V1_MQTT_OK/GD32VW55X_Wifi_BLE_SDK/GD32VW55x_RELEASE_V1.0.2/MSDK/wpa_supplicant/src/ap\wmm.c ****  */
  10:C:/Users/stapi/OneDrive/Desktop/GD32VW553/V1_MQTT_OK/GD32VW55X_Wifi_BLE_SDK/GD32VW55x_RELEASE_V1.0.2/MSDK/wpa_supplicant/src/ap\wmm.c **** 
  11:C:/Users/stapi/OneDrive/Desktop/GD32VW553/V1_MQTT_OK/GD32VW55X_Wifi_BLE_SDK/GD32VW55x_RELEASE_V1.0.2/MSDK/wpa_supplicant/src/ap\wmm.c **** #include "utils/includes.h"
  12:C:/Users/stapi/OneDrive/Desktop/GD32VW553/V1_MQTT_OK/GD32VW55X_Wifi_BLE_SDK/GD32VW55x_RELEASE_V1.0.2/MSDK/wpa_supplicant/src/ap\wmm.c **** 
  13:C:/Users/stapi/OneDrive/Desktop/GD32VW553/V1_MQTT_OK/GD32VW55X_Wifi_BLE_SDK/GD32VW55x_RELEASE_V1.0.2/MSDK/wpa_supplicant/src/ap\wmm.c **** #ifdef CONFIG_AP
  14:C:/Users/stapi/OneDrive/Desktop/GD32VW553/V1_MQTT_OK/GD32VW55X_Wifi_BLE_SDK/GD32VW55x_RELEASE_V1.0.2/MSDK/wpa_supplicant/src/ap\wmm.c **** #include "utils/common.h"
  15:C:/Users/stapi/OneDrive/Desktop/GD32VW553/V1_MQTT_OK/GD32VW55X_Wifi_BLE_SDK/GD32VW55x_RELEASE_V1.0.2/MSDK/wpa_supplicant/src/ap\wmm.c **** #include "common/ieee802_11_defs.h"
  16:C:/Users/stapi/OneDrive/Desktop/GD32VW553/V1_MQTT_OK/GD32VW55X_Wifi_BLE_SDK/GD32VW55x_RELEASE_V1.0.2/MSDK/wpa_supplicant/src/ap\wmm.c **** #include "common/ieee802_11_common.h"
  17:C:/Users/stapi/OneDrive/Desktop/GD32VW553/V1_MQTT_OK/GD32VW55X_Wifi_BLE_SDK/GD32VW55x_RELEASE_V1.0.2/MSDK/wpa_supplicant/src/ap\wmm.c **** #include "hostapd.h"
  18:C:/Users/stapi/OneDrive/Desktop/GD32VW553/V1_MQTT_OK/GD32VW55X_Wifi_BLE_SDK/GD32VW55x_RELEASE_V1.0.2/MSDK/wpa_supplicant/src/ap\wmm.c **** #include "ieee802_11.h"
  19:C:/Users/stapi/OneDrive/Desktop/GD32VW553/V1_MQTT_OK/GD32VW55X_Wifi_BLE_SDK/GD32VW55x_RELEASE_V1.0.2/MSDK/wpa_supplicant/src/ap\wmm.c **** #include "sta_info.h"
  20:C:/Users/stapi/OneDrive/Desktop/GD32VW553/V1_MQTT_OK/GD32VW55X_Wifi_BLE_SDK/GD32VW55x_RELEASE_V1.0.2/MSDK/wpa_supplicant/src/ap\wmm.c **** #include "ap_config.h"
  21:C:/Users/stapi/OneDrive/Desktop/GD32VW553/V1_MQTT_OK/GD32VW55X_Wifi_BLE_SDK/GD32VW55x_RELEASE_V1.0.2/MSDK/wpa_supplicant/src/ap\wmm.c **** #include "ap_drv_ops.h"
  22:C:/Users/stapi/OneDrive/Desktop/GD32VW553/V1_MQTT_OK/GD32VW55X_Wifi_BLE_SDK/GD32VW55x_RELEASE_V1.0.2/MSDK/wpa_supplicant/src/ap\wmm.c **** #include "wmm.h"
  23:C:/Users/stapi/OneDrive/Desktop/GD32VW553/V1_MQTT_OK/GD32VW55X_Wifi_BLE_SDK/GD32VW55x_RELEASE_V1.0.2/MSDK/wpa_supplicant/src/ap\wmm.c **** 
  24:C:/Users/stapi/OneDrive/Desktop/GD32VW553/V1_MQTT_OK/GD32VW55X_Wifi_BLE_SDK/GD32VW55x_RELEASE_V1.0.2/MSDK/wpa_supplicant/src/ap\wmm.c **** #ifndef MIN
  25:C:/Users/stapi/OneDrive/Desktop/GD32VW553/V1_MQTT_OK/GD32VW55X_Wifi_BLE_SDK/GD32VW55x_RELEASE_V1.0.2/MSDK/wpa_supplicant/src/ap\wmm.c **** #define MIN(a, b) (((a) < (b)) ? (a) : (b))
  26:C:/Users/stapi/OneDrive/Desktop/GD32VW553/V1_MQTT_OK/GD32VW55X_Wifi_BLE_SDK/GD32VW55x_RELEASE_V1.0.2/MSDK/wpa_supplicant/src/ap\wmm.c **** #endif
  27:C:/Users/stapi/OneDrive/Desktop/GD32VW553/V1_MQTT_OK/GD32VW55X_Wifi_BLE_SDK/GD32VW55x_RELEASE_V1.0.2/MSDK/wpa_supplicant/src/ap\wmm.c **** #ifndef MAX
  28:C:/Users/stapi/OneDrive/Desktop/GD32VW553/V1_MQTT_OK/GD32VW55X_Wifi_BLE_SDK/GD32VW55x_RELEASE_V1.0.2/MSDK/wpa_supplicant/src/ap\wmm.c **** #define MAX(a, b) (((a) > (b)) ? (a) : (b))
  29:C:/Users/stapi/OneDrive/Desktop/GD32VW553/V1_MQTT_OK/GD32VW55X_Wifi_BLE_SDK/GD32VW55x_RELEASE_V1.0.2/MSDK/wpa_supplicant/src/ap\wmm.c **** #endif
  30:C:/Users/stapi/OneDrive/Desktop/GD32VW553/V1_MQTT_OK/GD32VW55X_Wifi_BLE_SDK/GD32VW55x_RELEASE_V1.0.2/MSDK/wpa_supplicant/src/ap\wmm.c **** 
  31:C:/Users/stapi/OneDrive/Desktop/GD32VW553/V1_MQTT_OK/GD32VW55X_Wifi_BLE_SDK/GD32VW55x_RELEASE_V1.0.2/MSDK/wpa_supplicant/src/ap\wmm.c **** 
  32:C:/Users/stapi/OneDrive/Desktop/GD32VW553/V1_MQTT_OK/GD32VW55X_Wifi_BLE_SDK/GD32VW55x_RELEASE_V1.0.2/MSDK/wpa_supplicant/src/ap\wmm.c **** static inline u8 wmm_aci_aifsn(int aifsn, int acm, int aci)
  33:C:/Users/stapi/OneDrive/Desktop/GD32VW553/V1_MQTT_OK/GD32VW55X_Wifi_BLE_SDK/GD32VW55x_RELEASE_V1.0.2/MSDK/wpa_supplicant/src/ap\wmm.c **** {
  34:C:/Users/stapi/OneDrive/Desktop/GD32VW553/V1_MQTT_OK/GD32VW55X_Wifi_BLE_SDK/GD32VW55x_RELEASE_V1.0.2/MSDK/wpa_supplicant/src/ap\wmm.c **** 	u8 ret;
  35:C:/Users/stapi/OneDrive/Desktop/GD32VW553/V1_MQTT_OK/GD32VW55X_Wifi_BLE_SDK/GD32VW55x_RELEASE_V1.0.2/MSDK/wpa_supplicant/src/ap\wmm.c **** 	ret = (aifsn << WMM_AC_AIFNS_SHIFT) & WMM_AC_AIFSN_MASK;
  36:C:/Users/stapi/OneDrive/Desktop/GD32VW553/V1_MQTT_OK/GD32VW55X_Wifi_BLE_SDK/GD32VW55x_RELEASE_V1.0.2/MSDK/wpa_supplicant/src/ap\wmm.c **** 	if (acm)
  37:C:/Users/stapi/OneDrive/Desktop/GD32VW553/V1_MQTT_OK/GD32VW55X_Wifi_BLE_SDK/GD32VW55x_RELEASE_V1.0.2/MSDK/wpa_supplicant/src/ap\wmm.c **** 		ret |= WMM_AC_ACM;
  38:C:/Users/stapi/OneDrive/Desktop/GD32VW553/V1_MQTT_OK/GD32VW55X_Wifi_BLE_SDK/GD32VW55x_RELEASE_V1.0.2/MSDK/wpa_supplicant/src/ap\wmm.c **** 	ret |= (aci << WMM_AC_ACI_SHIFT) & WMM_AC_ACI_MASK;
  39:C:/Users/stapi/OneDrive/Desktop/GD32VW553/V1_MQTT_OK/GD32VW55X_Wifi_BLE_SDK/GD32VW55x_RELEASE_V1.0.2/MSDK/wpa_supplicant/src/ap\wmm.c **** 	return ret;
  40:C:/Users/stapi/OneDrive/Desktop/GD32VW553/V1_MQTT_OK/GD32VW55X_Wifi_BLE_SDK/GD32VW55x_RELEASE_V1.0.2/MSDK/wpa_supplicant/src/ap\wmm.c **** }
  41:C:/Users/stapi/OneDrive/Desktop/GD32VW553/V1_MQTT_OK/GD32VW55X_Wifi_BLE_SDK/GD32VW55x_RELEASE_V1.0.2/MSDK/wpa_supplicant/src/ap\wmm.c **** 
  42:C:/Users/stapi/OneDrive/Desktop/GD32VW553/V1_MQTT_OK/GD32VW55X_Wifi_BLE_SDK/GD32VW55x_RELEASE_V1.0.2/MSDK/wpa_supplicant/src/ap\wmm.c **** 
  43:C:/Users/stapi/OneDrive/Desktop/GD32VW553/V1_MQTT_OK/GD32VW55X_Wifi_BLE_SDK/GD32VW55x_RELEASE_V1.0.2/MSDK/wpa_supplicant/src/ap\wmm.c **** static inline u8 wmm_ecw(int ecwmin, int ecwmax)
  44:C:/Users/stapi/OneDrive/Desktop/GD32VW553/V1_MQTT_OK/GD32VW55X_Wifi_BLE_SDK/GD32VW55x_RELEASE_V1.0.2/MSDK/wpa_supplicant/src/ap\wmm.c **** {
  45:C:/Users/stapi/OneDrive/Desktop/GD32VW553/V1_MQTT_OK/GD32VW55X_Wifi_BLE_SDK/GD32VW55x_RELEASE_V1.0.2/MSDK/wpa_supplicant/src/ap\wmm.c **** 	return ((ecwmin << WMM_AC_ECWMIN_SHIFT) & WMM_AC_ECWMIN_MASK) |
  46:C:/Users/stapi/OneDrive/Desktop/GD32VW553/V1_MQTT_OK/GD32VW55X_Wifi_BLE_SDK/GD32VW55x_RELEASE_V1.0.2/MSDK/wpa_supplicant/src/ap\wmm.c **** 		((ecwmax << WMM_AC_ECWMAX_SHIFT) & WMM_AC_ECWMAX_MASK);
  47:C:/Users/stapi/OneDrive/Desktop/GD32VW553/V1_MQTT_OK/GD32VW55X_Wifi_BLE_SDK/GD32VW55x_RELEASE_V1.0.2/MSDK/wpa_supplicant/src/ap\wmm.c **** }
  48:C:/Users/stapi/OneDrive/Desktop/GD32VW553/V1_MQTT_OK/GD32VW55X_Wifi_BLE_SDK/GD32VW55x_RELEASE_V1.0.2/MSDK/wpa_supplicant/src/ap\wmm.c **** 
  49:C:/Users/stapi/OneDrive/Desktop/GD32VW553/V1_MQTT_OK/GD32VW55X_Wifi_BLE_SDK/GD32VW55x_RELEASE_V1.0.2/MSDK/wpa_supplicant/src/ap\wmm.c **** 
  50:C:/Users/stapi/OneDrive/Desktop/GD32VW553/V1_MQTT_OK/GD32VW55X_Wifi_BLE_SDK/GD32VW55x_RELEASE_V1.0.2/MSDK/wpa_supplicant/src/ap\wmm.c **** static void
  51:C:/Users/stapi/OneDrive/Desktop/GD32VW553/V1_MQTT_OK/GD32VW55X_Wifi_BLE_SDK/GD32VW55x_RELEASE_V1.0.2/MSDK/wpa_supplicant/src/ap\wmm.c **** wmm_set_regulatory_limit(const struct hostapd_wmm_ac_params *wmm_conf,
  52:C:/Users/stapi/OneDrive/Desktop/GD32VW553/V1_MQTT_OK/GD32VW55X_Wifi_BLE_SDK/GD32VW55x_RELEASE_V1.0.2/MSDK/wpa_supplicant/src/ap\wmm.c **** 			 struct hostapd_wmm_ac_params *wmm,
  53:C:/Users/stapi/OneDrive/Desktop/GD32VW553/V1_MQTT_OK/GD32VW55X_Wifi_BLE_SDK/GD32VW55x_RELEASE_V1.0.2/MSDK/wpa_supplicant/src/ap\wmm.c **** 			 const struct hostapd_wmm_rule *wmm_reg)
  54:C:/Users/stapi/OneDrive/Desktop/GD32VW553/V1_MQTT_OK/GD32VW55X_Wifi_BLE_SDK/GD32VW55x_RELEASE_V1.0.2/MSDK/wpa_supplicant/src/ap\wmm.c **** {
  55:C:/Users/stapi/OneDrive/Desktop/GD32VW553/V1_MQTT_OK/GD32VW55X_Wifi_BLE_SDK/GD32VW55x_RELEASE_V1.0.2/MSDK/wpa_supplicant/src/ap\wmm.c **** 	int ac;
  56:C:/Users/stapi/OneDrive/Desktop/GD32VW553/V1_MQTT_OK/GD32VW55X_Wifi_BLE_SDK/GD32VW55x_RELEASE_V1.0.2/MSDK/wpa_supplicant/src/ap\wmm.c **** 
  57:C:/Users/stapi/OneDrive/Desktop/GD32VW553/V1_MQTT_OK/GD32VW55X_Wifi_BLE_SDK/GD32VW55x_RELEASE_V1.0.2/MSDK/wpa_supplicant/src/ap\wmm.c **** 	for (ac = 0; ac < WMM_AC_NUM; ac++) {
  58:C:/Users/stapi/OneDrive/Desktop/GD32VW553/V1_MQTT_OK/GD32VW55X_Wifi_BLE_SDK/GD32VW55x_RELEASE_V1.0.2/MSDK/wpa_supplicant/src/ap\wmm.c **** 		wmm[ac].cwmin = MAX(wmm_conf[ac].cwmin, wmm_reg[ac].min_cwmin);
  59:C:/Users/stapi/OneDrive/Desktop/GD32VW553/V1_MQTT_OK/GD32VW55X_Wifi_BLE_SDK/GD32VW55x_RELEASE_V1.0.2/MSDK/wpa_supplicant/src/ap\wmm.c **** 		wmm[ac].cwmax = MAX(wmm_conf[ac].cwmax, wmm_reg[ac].min_cwmax);
  60:C:/Users/stapi/OneDrive/Desktop/GD32VW553/V1_MQTT_OK/GD32VW55X_Wifi_BLE_SDK/GD32VW55x_RELEASE_V1.0.2/MSDK/wpa_supplicant/src/ap\wmm.c **** 		wmm[ac].aifs = MAX(wmm_conf[ac].aifs, wmm_reg[ac].min_aifs);
  61:C:/Users/stapi/OneDrive/Desktop/GD32VW553/V1_MQTT_OK/GD32VW55X_Wifi_BLE_SDK/GD32VW55x_RELEASE_V1.0.2/MSDK/wpa_supplicant/src/ap\wmm.c **** 		wmm[ac].txop_limit =
  62:C:/Users/stapi/OneDrive/Desktop/GD32VW553/V1_MQTT_OK/GD32VW55X_Wifi_BLE_SDK/GD32VW55x_RELEASE_V1.0.2/MSDK/wpa_supplicant/src/ap\wmm.c **** 			MIN(wmm_conf[ac].txop_limit, wmm_reg[ac].max_txop);
  63:C:/Users/stapi/OneDrive/Desktop/GD32VW553/V1_MQTT_OK/GD32VW55X_Wifi_BLE_SDK/GD32VW55x_RELEASE_V1.0.2/MSDK/wpa_supplicant/src/ap\wmm.c **** 		wmm[ac].admission_control_mandatory =
  64:C:/Users/stapi/OneDrive/Desktop/GD32VW553/V1_MQTT_OK/GD32VW55X_Wifi_BLE_SDK/GD32VW55x_RELEASE_V1.0.2/MSDK/wpa_supplicant/src/ap\wmm.c **** 			wmm_conf[ac].admission_control_mandatory;
  65:C:/Users/stapi/OneDrive/Desktop/GD32VW553/V1_MQTT_OK/GD32VW55X_Wifi_BLE_SDK/GD32VW55x_RELEASE_V1.0.2/MSDK/wpa_supplicant/src/ap\wmm.c **** 	}
  66:C:/Users/stapi/OneDrive/Desktop/GD32VW553/V1_MQTT_OK/GD32VW55X_Wifi_BLE_SDK/GD32VW55x_RELEASE_V1.0.2/MSDK/wpa_supplicant/src/ap\wmm.c **** }
  67:C:/Users/stapi/OneDrive/Desktop/GD32VW553/V1_MQTT_OK/GD32VW55X_Wifi_BLE_SDK/GD32VW55x_RELEASE_V1.0.2/MSDK/wpa_supplicant/src/ap\wmm.c **** 
  68:C:/Users/stapi/OneDrive/Desktop/GD32VW553/V1_MQTT_OK/GD32VW55X_Wifi_BLE_SDK/GD32VW55x_RELEASE_V1.0.2/MSDK/wpa_supplicant/src/ap\wmm.c **** 
  69:C:/Users/stapi/OneDrive/Desktop/GD32VW553/V1_MQTT_OK/GD32VW55X_Wifi_BLE_SDK/GD32VW55x_RELEASE_V1.0.2/MSDK/wpa_supplicant/src/ap\wmm.c **** /*
  70:C:/Users/stapi/OneDrive/Desktop/GD32VW553/V1_MQTT_OK/GD32VW55X_Wifi_BLE_SDK/GD32VW55x_RELEASE_V1.0.2/MSDK/wpa_supplicant/src/ap\wmm.c ****  * Calculate WMM regulatory limit if any.
  71:C:/Users/stapi/OneDrive/Desktop/GD32VW553/V1_MQTT_OK/GD32VW55X_Wifi_BLE_SDK/GD32VW55x_RELEASE_V1.0.2/MSDK/wpa_supplicant/src/ap\wmm.c ****  */
  72:C:/Users/stapi/OneDrive/Desktop/GD32VW553/V1_MQTT_OK/GD32VW55X_Wifi_BLE_SDK/GD32VW55x_RELEASE_V1.0.2/MSDK/wpa_supplicant/src/ap\wmm.c **** static void wmm_calc_regulatory_limit(struct hostapd_data *hapd,
  73:C:/Users/stapi/OneDrive/Desktop/GD32VW553/V1_MQTT_OK/GD32VW55X_Wifi_BLE_SDK/GD32VW55x_RELEASE_V1.0.2/MSDK/wpa_supplicant/src/ap\wmm.c **** 				      struct hostapd_wmm_ac_params *acp)
  74:C:/Users/stapi/OneDrive/Desktop/GD32VW553/V1_MQTT_OK/GD32VW55X_Wifi_BLE_SDK/GD32VW55x_RELEASE_V1.0.2/MSDK/wpa_supplicant/src/ap\wmm.c **** {
  75:C:/Users/stapi/OneDrive/Desktop/GD32VW553/V1_MQTT_OK/GD32VW55X_Wifi_BLE_SDK/GD32VW55x_RELEASE_V1.0.2/MSDK/wpa_supplicant/src/ap\wmm.c **** 	struct hostapd_hw_modes *mode = hapd->iface->current_mode;
  76:C:/Users/stapi/OneDrive/Desktop/GD32VW553/V1_MQTT_OK/GD32VW55X_Wifi_BLE_SDK/GD32VW55x_RELEASE_V1.0.2/MSDK/wpa_supplicant/src/ap\wmm.c **** 	int c;
  77:C:/Users/stapi/OneDrive/Desktop/GD32VW553/V1_MQTT_OK/GD32VW55X_Wifi_BLE_SDK/GD32VW55x_RELEASE_V1.0.2/MSDK/wpa_supplicant/src/ap\wmm.c **** 
  78:C:/Users/stapi/OneDrive/Desktop/GD32VW553/V1_MQTT_OK/GD32VW55X_Wifi_BLE_SDK/GD32VW55x_RELEASE_V1.0.2/MSDK/wpa_supplicant/src/ap\wmm.c **** 	os_memcpy(acp, hapd->iconf->wmm_ac_params,
  79:C:/Users/stapi/OneDrive/Desktop/GD32VW553/V1_MQTT_OK/GD32VW55X_Wifi_BLE_SDK/GD32VW55x_RELEASE_V1.0.2/MSDK/wpa_supplicant/src/ap\wmm.c **** 		  sizeof(hapd->iconf->wmm_ac_params));
  80:C:/Users/stapi/OneDrive/Desktop/GD32VW553/V1_MQTT_OK/GD32VW55X_Wifi_BLE_SDK/GD32VW55x_RELEASE_V1.0.2/MSDK/wpa_supplicant/src/ap\wmm.c **** 
  81:C:/Users/stapi/OneDrive/Desktop/GD32VW553/V1_MQTT_OK/GD32VW55X_Wifi_BLE_SDK/GD32VW55x_RELEASE_V1.0.2/MSDK/wpa_supplicant/src/ap\wmm.c **** 	for (c = 0; mode && c < mode->num_channels; c++) {
  82:C:/Users/stapi/OneDrive/Desktop/GD32VW553/V1_MQTT_OK/GD32VW55X_Wifi_BLE_SDK/GD32VW55x_RELEASE_V1.0.2/MSDK/wpa_supplicant/src/ap\wmm.c **** 		struct hostapd_channel_data *chan = &mode->channels[c];
  83:C:/Users/stapi/OneDrive/Desktop/GD32VW553/V1_MQTT_OK/GD32VW55X_Wifi_BLE_SDK/GD32VW55x_RELEASE_V1.0.2/MSDK/wpa_supplicant/src/ap\wmm.c **** 
  84:C:/Users/stapi/OneDrive/Desktop/GD32VW553/V1_MQTT_OK/GD32VW55X_Wifi_BLE_SDK/GD32VW55x_RELEASE_V1.0.2/MSDK/wpa_supplicant/src/ap\wmm.c **** 		if (chan->freq != hapd->iface->freq)
  85:C:/Users/stapi/OneDrive/Desktop/GD32VW553/V1_MQTT_OK/GD32VW55X_Wifi_BLE_SDK/GD32VW55x_RELEASE_V1.0.2/MSDK/wpa_supplicant/src/ap\wmm.c **** 			continue;
  86:C:/Users/stapi/OneDrive/Desktop/GD32VW553/V1_MQTT_OK/GD32VW55X_Wifi_BLE_SDK/GD32VW55x_RELEASE_V1.0.2/MSDK/wpa_supplicant/src/ap\wmm.c **** 
  87:C:/Users/stapi/OneDrive/Desktop/GD32VW553/V1_MQTT_OK/GD32VW55X_Wifi_BLE_SDK/GD32VW55x_RELEASE_V1.0.2/MSDK/wpa_supplicant/src/ap\wmm.c **** 		if (chan->wmm_rules_valid)
  88:C:/Users/stapi/OneDrive/Desktop/GD32VW553/V1_MQTT_OK/GD32VW55X_Wifi_BLE_SDK/GD32VW55x_RELEASE_V1.0.2/MSDK/wpa_supplicant/src/ap\wmm.c **** 			wmm_set_regulatory_limit(hapd->iconf->wmm_ac_params,
  89:C:/Users/stapi/OneDrive/Desktop/GD32VW553/V1_MQTT_OK/GD32VW55X_Wifi_BLE_SDK/GD32VW55x_RELEASE_V1.0.2/MSDK/wpa_supplicant/src/ap\wmm.c **** 						 acp, chan->wmm_rules);
  90:C:/Users/stapi/OneDrive/Desktop/GD32VW553/V1_MQTT_OK/GD32VW55X_Wifi_BLE_SDK/GD32VW55x_RELEASE_V1.0.2/MSDK/wpa_supplicant/src/ap\wmm.c **** 		break;
  91:C:/Users/stapi/OneDrive/Desktop/GD32VW553/V1_MQTT_OK/GD32VW55X_Wifi_BLE_SDK/GD32VW55x_RELEASE_V1.0.2/MSDK/wpa_supplicant/src/ap\wmm.c **** 	}
  92:C:/Users/stapi/OneDrive/Desktop/GD32VW553/V1_MQTT_OK/GD32VW55X_Wifi_BLE_SDK/GD32VW55x_RELEASE_V1.0.2/MSDK/wpa_supplicant/src/ap\wmm.c **** 
  93:C:/Users/stapi/OneDrive/Desktop/GD32VW553/V1_MQTT_OK/GD32VW55X_Wifi_BLE_SDK/GD32VW55x_RELEASE_V1.0.2/MSDK/wpa_supplicant/src/ap\wmm.c **** 	/*
  94:C:/Users/stapi/OneDrive/Desktop/GD32VW553/V1_MQTT_OK/GD32VW55X_Wifi_BLE_SDK/GD32VW55x_RELEASE_V1.0.2/MSDK/wpa_supplicant/src/ap\wmm.c **** 	 * Check if we need to update set count. Since both were initialized to
  95:C:/Users/stapi/OneDrive/Desktop/GD32VW553/V1_MQTT_OK/GD32VW55X_Wifi_BLE_SDK/GD32VW55x_RELEASE_V1.0.2/MSDK/wpa_supplicant/src/ap\wmm.c **** 	 * zero we can compare the whole array in one shot.
  96:C:/Users/stapi/OneDrive/Desktop/GD32VW553/V1_MQTT_OK/GD32VW55X_Wifi_BLE_SDK/GD32VW55x_RELEASE_V1.0.2/MSDK/wpa_supplicant/src/ap\wmm.c **** 	 */
  97:C:/Users/stapi/OneDrive/Desktop/GD32VW553/V1_MQTT_OK/GD32VW55X_Wifi_BLE_SDK/GD32VW55x_RELEASE_V1.0.2/MSDK/wpa_supplicant/src/ap\wmm.c **** 	if (os_memcmp(acp, hapd->iface->prev_wmm,
  98:C:/Users/stapi/OneDrive/Desktop/GD32VW553/V1_MQTT_OK/GD32VW55X_Wifi_BLE_SDK/GD32VW55x_RELEASE_V1.0.2/MSDK/wpa_supplicant/src/ap\wmm.c **** 		      sizeof(hapd->iconf->wmm_ac_params)) != 0) {
  99:C:/Users/stapi/OneDrive/Desktop/GD32VW553/V1_MQTT_OK/GD32VW55X_Wifi_BLE_SDK/GD32VW55x_RELEASE_V1.0.2/MSDK/wpa_supplicant/src/ap\wmm.c **** 		os_memcpy(hapd->iface->prev_wmm, acp,
 100:C:/Users/stapi/OneDrive/Desktop/GD32VW553/V1_MQTT_OK/GD32VW55X_Wifi_BLE_SDK/GD32VW55x_RELEASE_V1.0.2/MSDK/wpa_supplicant/src/ap\wmm.c **** 			  sizeof(hapd->iconf->wmm_ac_params));
 101:C:/Users/stapi/OneDrive/Desktop/GD32VW553/V1_MQTT_OK/GD32VW55X_Wifi_BLE_SDK/GD32VW55x_RELEASE_V1.0.2/MSDK/wpa_supplicant/src/ap\wmm.c **** 		hapd->parameter_set_count++;
 102:C:/Users/stapi/OneDrive/Desktop/GD32VW553/V1_MQTT_OK/GD32VW55X_Wifi_BLE_SDK/GD32VW55x_RELEASE_V1.0.2/MSDK/wpa_supplicant/src/ap\wmm.c **** 	}
 103:C:/Users/stapi/OneDrive/Desktop/GD32VW553/V1_MQTT_OK/GD32VW55X_Wifi_BLE_SDK/GD32VW55x_RELEASE_V1.0.2/MSDK/wpa_supplicant/src/ap\wmm.c **** }
 104:C:/Users/stapi/OneDrive/Desktop/GD32VW553/V1_MQTT_OK/GD32VW55X_Wifi_BLE_SDK/GD32VW55x_RELEASE_V1.0.2/MSDK/wpa_supplicant/src/ap\wmm.c **** 
 105:C:/Users/stapi/OneDrive/Desktop/GD32VW553/V1_MQTT_OK/GD32VW55X_Wifi_BLE_SDK/GD32VW55x_RELEASE_V1.0.2/MSDK/wpa_supplicant/src/ap\wmm.c **** 
 106:C:/Users/stapi/OneDrive/Desktop/GD32VW553/V1_MQTT_OK/GD32VW55X_Wifi_BLE_SDK/GD32VW55x_RELEASE_V1.0.2/MSDK/wpa_supplicant/src/ap\wmm.c **** /*
 107:C:/Users/stapi/OneDrive/Desktop/GD32VW553/V1_MQTT_OK/GD32VW55X_Wifi_BLE_SDK/GD32VW55x_RELEASE_V1.0.2/MSDK/wpa_supplicant/src/ap\wmm.c ****  * Add WMM Parameter Element to Beacon, Probe Response, and (Re)Association
 108:C:/Users/stapi/OneDrive/Desktop/GD32VW553/V1_MQTT_OK/GD32VW55X_Wifi_BLE_SDK/GD32VW55x_RELEASE_V1.0.2/MSDK/wpa_supplicant/src/ap\wmm.c ****  * Response frames.
 109:C:/Users/stapi/OneDrive/Desktop/GD32VW553/V1_MQTT_OK/GD32VW55X_Wifi_BLE_SDK/GD32VW55x_RELEASE_V1.0.2/MSDK/wpa_supplicant/src/ap\wmm.c ****  */
 110:C:/Users/stapi/OneDrive/Desktop/GD32VW553/V1_MQTT_OK/GD32VW55X_Wifi_BLE_SDK/GD32VW55x_RELEASE_V1.0.2/MSDK/wpa_supplicant/src/ap\wmm.c **** u8 * hostapd_eid_wmm(struct hostapd_data *hapd, u8 *eid)
 111:C:/Users/stapi/OneDrive/Desktop/GD32VW553/V1_MQTT_OK/GD32VW55X_Wifi_BLE_SDK/GD32VW55x_RELEASE_V1.0.2/MSDK/wpa_supplicant/src/ap\wmm.c **** {
  16              		.loc 1 111 1
  17              		.cfi_startproc
  18              	.LVL0:
  19 0000 17030000 		call	t0,__riscv_save_3
  19      E7020300 
  20              		.cfi_offset 18, -16
  21              		.cfi_offset 9, -12
  22              		.cfi_offset 8, -8
  23              		.cfi_offset 1, -4
  24              		.cfi_def_cfa_offset 16
 112:C:/Users/stapi/OneDrive/Desktop/GD32VW553/V1_MQTT_OK/GD32VW55X_Wifi_BLE_SDK/GD32VW55x_RELEASE_V1.0.2/MSDK/wpa_supplicant/src/ap\wmm.c **** 	u8 *pos = eid;
  25              		.loc 1 112 2
 111:C:/Users/stapi/OneDrive/Desktop/GD32VW553/V1_MQTT_OK/GD32VW55X_Wifi_BLE_SDK/GD32VW55x_RELEASE_V1.0.2/MSDK/wpa_supplicant/src/ap\wmm.c **** 	u8 *pos = eid;
  26              		.loc 1 111 1 is_stmt 0
  27 0008 5D71     		addi	sp,sp,-80
  28              		.cfi_def_cfa_offset 96
 111:C:/Users/stapi/OneDrive/Desktop/GD32VW553/V1_MQTT_OK/GD32VW55X_Wifi_BLE_SDK/GD32VW55x_RELEASE_V1.0.2/MSDK/wpa_supplicant/src/ap\wmm.c **** 	u8 *pos = eid;
  29              		.loc 1 111 1
  30 000a AA84     		mv	s1,a0
  31 000c 2E84     		mv	s0,a1
  32              	.LVL1:
 113:C:/Users/stapi/OneDrive/Desktop/GD32VW553/V1_MQTT_OK/GD32VW55X_Wifi_BLE_SDK/GD32VW55x_RELEASE_V1.0.2/MSDK/wpa_supplicant/src/ap\wmm.c **** 	struct wmm_parameter_element *wmm =
  33              		.loc 1 113 2 is_stmt 1
 114:C:/Users/stapi/OneDrive/Desktop/GD32VW553/V1_MQTT_OK/GD32VW55X_Wifi_BLE_SDK/GD32VW55x_RELEASE_V1.0.2/MSDK/wpa_supplicant/src/ap\wmm.c **** 		(struct wmm_parameter_element *) (pos + 2);
 115:C:/Users/stapi/OneDrive/Desktop/GD32VW553/V1_MQTT_OK/GD32VW55X_Wifi_BLE_SDK/GD32VW55x_RELEASE_V1.0.2/MSDK/wpa_supplicant/src/ap\wmm.c **** 	struct hostapd_wmm_ac_params wmmp[WMM_AC_NUM];
  34              		.loc 1 115 2
 116:C:/Users/stapi/OneDrive/Desktop/GD32VW553/V1_MQTT_OK/GD32VW55X_Wifi_BLE_SDK/GD32VW55x_RELEASE_V1.0.2/MSDK/wpa_supplicant/src/ap\wmm.c **** 	int e;
  35              		.loc 1 116 2
 117:C:/Users/stapi/OneDrive/Desktop/GD32VW553/V1_MQTT_OK/GD32VW55X_Wifi_BLE_SDK/GD32VW55x_RELEASE_V1.0.2/MSDK/wpa_supplicant/src/ap\wmm.c **** 
 118:C:/Users/stapi/OneDrive/Desktop/GD32VW553/V1_MQTT_OK/GD32VW55X_Wifi_BLE_SDK/GD32VW55x_RELEASE_V1.0.2/MSDK/wpa_supplicant/src/ap\wmm.c **** 	os_memset(wmmp, 0, sizeof(wmmp));
  36              		.loc 1 118 2
  37 000e 13060005 		li	a2,80
  38 0012 8145     		li	a1,0
  39              	.LVL2:
  40 0014 0A85     		mv	a0,sp
  41              	.LVL3:
  42 0016 97000000 		call	os_memset
  42      E7800000 
  43              	.LVL4:
 119:C:/Users/stapi/OneDrive/Desktop/GD32VW553/V1_MQTT_OK/GD32VW55X_Wifi_BLE_SDK/GD32VW55x_RELEASE_V1.0.2/MSDK/wpa_supplicant/src/ap\wmm.c **** 
 120:C:/Users/stapi/OneDrive/Desktop/GD32VW553/V1_MQTT_OK/GD32VW55X_Wifi_BLE_SDK/GD32VW55x_RELEASE_V1.0.2/MSDK/wpa_supplicant/src/ap\wmm.c **** 	if (!hapd->conf->wmm_enabled)
  44              		.loc 1 120 2
  45              		.loc 1 120 17 is_stmt 0
  46 001e 9C44     		lw	a5,8(s1)
  47              		.loc 1 120 5
  48 0020 83A70726 		lw	a5,608(a5)
  49 0024 63830712 		beq	a5,zero,.L2
 121:C:/Users/stapi/OneDrive/Desktop/GD32VW553/V1_MQTT_OK/GD32VW55X_Wifi_BLE_SDK/GD32VW55x_RELEASE_V1.0.2/MSDK/wpa_supplicant/src/ap\wmm.c **** 		return eid;
 122:C:/Users/stapi/OneDrive/Desktop/GD32VW553/V1_MQTT_OK/GD32VW55X_Wifi_BLE_SDK/GD32VW55x_RELEASE_V1.0.2/MSDK/wpa_supplicant/src/ap\wmm.c **** 	wmm_calc_regulatory_limit(hapd, wmmp);
  50              		.loc 1 122 2 is_stmt 1
  51              	.LVL5:
  52              	.LBB15:
  53              	.LBB16:
  75:C:/Users/stapi/OneDrive/Desktop/GD32VW553/V1_MQTT_OK/GD32VW55X_Wifi_BLE_SDK/GD32VW55x_RELEASE_V1.0.2/MSDK/wpa_supplicant/src/ap\wmm.c **** 	int c;
  54              		.loc 1 75 2
  78:C:/Users/stapi/OneDrive/Desktop/GD32VW553/V1_MQTT_OK/GD32VW55X_Wifi_BLE_SDK/GD32VW55x_RELEASE_V1.0.2/MSDK/wpa_supplicant/src/ap\wmm.c **** 		  sizeof(hapd->iconf->wmm_ac_params));
  55              		.loc 1 78 28 is_stmt 0
  56 0028 CC40     		lw	a1,4(s1)
  75:C:/Users/stapi/OneDrive/Desktop/GD32VW553/V1_MQTT_OK/GD32VW55X_Wifi_BLE_SDK/GD32VW55x_RELEASE_V1.0.2/MSDK/wpa_supplicant/src/ap\wmm.c **** 	int c;
  57              		.loc 1 75 27
  58 002a 9C40     		lw	a5,0(s1)
  78:C:/Users/stapi/OneDrive/Desktop/GD32VW553/V1_MQTT_OK/GD32VW55X_Wifi_BLE_SDK/GD32VW55x_RELEASE_V1.0.2/MSDK/wpa_supplicant/src/ap\wmm.c **** 		  sizeof(hapd->iconf->wmm_ac_params));
  59              		.loc 1 78 2
  60 002c 13060005 		li	a2,80
  61 0030 9385850C 		addi	a1,a1,200
  62 0034 0A85     		mv	a0,sp
  75:C:/Users/stapi/OneDrive/Desktop/GD32VW553/V1_MQTT_OK/GD32VW55X_Wifi_BLE_SDK/GD32VW55x_RELEASE_V1.0.2/MSDK/wpa_supplicant/src/ap\wmm.c **** 	int c;
  63              		.loc 1 75 27
  64 0036 03A94746 		lw	s2,1124(a5)
  65              	.LVL6:
  76:C:/Users/stapi/OneDrive/Desktop/GD32VW553/V1_MQTT_OK/GD32VW55X_Wifi_BLE_SDK/GD32VW55x_RELEASE_V1.0.2/MSDK/wpa_supplicant/src/ap\wmm.c **** 
  66              		.loc 1 76 2 is_stmt 1
  78:C:/Users/stapi/OneDrive/Desktop/GD32VW553/V1_MQTT_OK/GD32VW55X_Wifi_BLE_SDK/GD32VW55x_RELEASE_V1.0.2/MSDK/wpa_supplicant/src/ap\wmm.c **** 		  sizeof(hapd->iconf->wmm_ac_params));
  67              		.loc 1 78 2
  68 003a 97000000 		call	os_memcpy
  68      E7800000 
  69              	.LVL7:
  81:C:/Users/stapi/OneDrive/Desktop/GD32VW553/V1_MQTT_OK/GD32VW55X_Wifi_BLE_SDK/GD32VW55x_RELEASE_V1.0.2/MSDK/wpa_supplicant/src/ap\wmm.c **** 		struct hostapd_channel_data *chan = &mode->channels[c];
  70              		.loc 1 81 2
  71              	.LBB17:
  84:C:/Users/stapi/OneDrive/Desktop/GD32VW553/V1_MQTT_OK/GD32VW55X_Wifi_BLE_SDK/GD32VW55x_RELEASE_V1.0.2/MSDK/wpa_supplicant/src/ap\wmm.c **** 			continue;
  72              		.loc 1 84 25 is_stmt 0
  73 0042 8C40     		lw	a1,0(s1)
  74              	.LBE17:
  81:C:/Users/stapi/OneDrive/Desktop/GD32VW553/V1_MQTT_OK/GD32VW55X_Wifi_BLE_SDK/GD32VW55x_RELEASE_V1.0.2/MSDK/wpa_supplicant/src/ap\wmm.c **** 		struct hostapd_channel_data *chan = &mode->channels[c];
  75              		.loc 1 81 9
  76 0044 0147     		li	a4,0
  77              	.LBB20:
  82:C:/Users/stapi/OneDrive/Desktop/GD32VW553/V1_MQTT_OK/GD32VW55X_Wifi_BLE_SDK/GD32VW55x_RELEASE_V1.0.2/MSDK/wpa_supplicant/src/ap\wmm.c **** 
  78              		.loc 1 82 32
  79 0046 93068006 		li	a3,104
  80              	.LVL8:
  81              	.L3:
  82              	.LBE20:
  81:C:/Users/stapi/OneDrive/Desktop/GD32VW553/V1_MQTT_OK/GD32VW55X_Wifi_BLE_SDK/GD32VW55x_RELEASE_V1.0.2/MSDK/wpa_supplicant/src/ap\wmm.c **** 		struct hostapd_channel_data *chan = &mode->channels[c];
  83              		.loc 1 81 14 is_stmt 1
  81:C:/Users/stapi/OneDrive/Desktop/GD32VW553/V1_MQTT_OK/GD32VW55X_Wifi_BLE_SDK/GD32VW55x_RELEASE_V1.0.2/MSDK/wpa_supplicant/src/ap\wmm.c **** 		struct hostapd_channel_data *chan = &mode->channels[c];
  84              		.loc 1 81 2 is_stmt 0
  85 004a 63030902 		beq	s2,zero,.L9
  81:C:/Users/stapi/OneDrive/Desktop/GD32VW553/V1_MQTT_OK/GD32VW55X_Wifi_BLE_SDK/GD32VW55x_RELEASE_V1.0.2/MSDK/wpa_supplicant/src/ap\wmm.c **** 		struct hostapd_channel_data *chan = &mode->channels[c];
  86              		.loc 1 81 19
  87 004e 83274900 		lw	a5,4(s2)
  88 0052 635FF700 		bge	a4,a5,.L9
  89              	.LBB21:
  82:C:/Users/stapi/OneDrive/Desktop/GD32VW553/V1_MQTT_OK/GD32VW55X_Wifi_BLE_SDK/GD32VW55x_RELEASE_V1.0.2/MSDK/wpa_supplicant/src/ap\wmm.c **** 
  90              		.loc 1 82 3 is_stmt 1
  82:C:/Users/stapi/OneDrive/Desktop/GD32VW553/V1_MQTT_OK/GD32VW55X_Wifi_BLE_SDK/GD32VW55x_RELEASE_V1.0.2/MSDK/wpa_supplicant/src/ap\wmm.c **** 
  91              		.loc 1 82 32 is_stmt 0
  92 0056 83278900 		lw	a5,8(s2)
  84:C:/Users/stapi/OneDrive/Desktop/GD32VW553/V1_MQTT_OK/GD32VW55X_Wifi_BLE_SDK/GD32VW55x_RELEASE_V1.0.2/MSDK/wpa_supplicant/src/ap\wmm.c **** 			continue;
  93              		.loc 1 84 6
  94 005a 03A64547 		lw	a2,1140(a1)
  82:C:/Users/stapi/OneDrive/Desktop/GD32VW553/V1_MQTT_OK/GD32VW55X_Wifi_BLE_SDK/GD32VW55x_RELEASE_V1.0.2/MSDK/wpa_supplicant/src/ap\wmm.c **** 
  95              		.loc 1 82 32
  96 005e FF17D7C4 		maddr32	a5, a4, a3
  97              	.LVL9:
  84:C:/Users/stapi/OneDrive/Desktop/GD32VW553/V1_MQTT_OK/GD32VW55X_Wifi_BLE_SDK/GD32VW55x_RELEASE_V1.0.2/MSDK/wpa_supplicant/src/ap\wmm.c **** 			continue;
  98              		.loc 1 84 3 is_stmt 1
  84:C:/Users/stapi/OneDrive/Desktop/GD32VW553/V1_MQTT_OK/GD32VW55X_Wifi_BLE_SDK/GD32VW55x_RELEASE_V1.0.2/MSDK/wpa_supplicant/src/ap\wmm.c **** 			continue;
  99              		.loc 1 84 6 is_stmt 0
 100 0062 C843     		lw	a0,4(a5)
 101 0064 6304C500 		beq	a0,a2,.L4
  85:C:/Users/stapi/OneDrive/Desktop/GD32VW553/V1_MQTT_OK/GD32VW55X_Wifi_BLE_SDK/GD32VW55x_RELEASE_V1.0.2/MSDK/wpa_supplicant/src/ap\wmm.c **** 
 102              		.loc 1 85 4 is_stmt 1
 103              	.LBE21:
  81:C:/Users/stapi/OneDrive/Desktop/GD32VW553/V1_MQTT_OK/GD32VW55X_Wifi_BLE_SDK/GD32VW55x_RELEASE_V1.0.2/MSDK/wpa_supplicant/src/ap\wmm.c **** 		struct hostapd_channel_data *chan = &mode->channels[c];
 104              		.loc 1 81 46
  81:C:/Users/stapi/OneDrive/Desktop/GD32VW553/V1_MQTT_OK/GD32VW55X_Wifi_BLE_SDK/GD32VW55x_RELEASE_V1.0.2/MSDK/wpa_supplicant/src/ap\wmm.c **** 		struct hostapd_channel_data *chan = &mode->channels[c];
 105              		.loc 1 81 47 is_stmt 0
 106 0068 0507     		addi	a4,a4,1
 107              	.LVL10:
 108 006a C5B7     		j	.L3
 109              	.L4:
 110              	.LBB22:
  87:C:/Users/stapi/OneDrive/Desktop/GD32VW553/V1_MQTT_OK/GD32VW55X_Wifi_BLE_SDK/GD32VW55x_RELEASE_V1.0.2/MSDK/wpa_supplicant/src/ap\wmm.c **** 			wmm_set_regulatory_limit(hapd->iconf->wmm_ac_params,
 111              		.loc 1 87 3 is_stmt 1
  87:C:/Users/stapi/OneDrive/Desktop/GD32VW553/V1_MQTT_OK/GD32VW55X_Wifi_BLE_SDK/GD32VW55x_RELEASE_V1.0.2/MSDK/wpa_supplicant/src/ap\wmm.c **** 			wmm_set_regulatory_limit(hapd->iconf->wmm_ac_params,
 112              		.loc 1 87 6 is_stmt 0
 113 006c D853     		lw	a4,36(a5)
 114              	.LVL11:
 115 006e 65E7     		bne	a4,zero,.L5
 116              	.LVL12:
 117              	.L9:
 118              	.LBE22:
  97:C:/Users/stapi/OneDrive/Desktop/GD32VW553/V1_MQTT_OK/GD32VW55X_Wifi_BLE_SDK/GD32VW55x_RELEASE_V1.0.2/MSDK/wpa_supplicant/src/ap\wmm.c **** 		      sizeof(hapd->iconf->wmm_ac_params)) != 0) {
 119              		.loc 1 97 2 is_stmt 1
  97:C:/Users/stapi/OneDrive/Desktop/GD32VW553/V1_MQTT_OK/GD32VW55X_Wifi_BLE_SDK/GD32VW55x_RELEASE_V1.0.2/MSDK/wpa_supplicant/src/ap\wmm.c **** 		      sizeof(hapd->iconf->wmm_ac_params)) != 0) {
 120              		.loc 1 97 6 is_stmt 0
 121 0070 13060005 		li	a2,80
 122 0074 9385C54F 		addi	a1,a1,1276
 123 0078 0A85     		mv	a0,sp
 124 007a 97000000 		call	os_memcmp
 124      E7800000 
 125              	.LVL13:
  97:C:/Users/stapi/OneDrive/Desktop/GD32VW553/V1_MQTT_OK/GD32VW55X_Wifi_BLE_SDK/GD32VW55x_RELEASE_V1.0.2/MSDK/wpa_supplicant/src/ap\wmm.c **** 		      sizeof(hapd->iconf->wmm_ac_params)) != 0) {
 126              		.loc 1 97 5
 127 0082 05C1     		beq	a0,zero,.L7
  99:C:/Users/stapi/OneDrive/Desktop/GD32VW553/V1_MQTT_OK/GD32VW55X_Wifi_BLE_SDK/GD32VW55x_RELEASE_V1.0.2/MSDK/wpa_supplicant/src/ap\wmm.c **** 			  sizeof(hapd->iconf->wmm_ac_params));
 128              		.loc 1 99 3 is_stmt 1
  99:C:/Users/stapi/OneDrive/Desktop/GD32VW553/V1_MQTT_OK/GD32VW55X_Wifi_BLE_SDK/GD32VW55x_RELEASE_V1.0.2/MSDK/wpa_supplicant/src/ap\wmm.c **** 			  sizeof(hapd->iconf->wmm_ac_params));
 129              		.loc 1 99 24 is_stmt 0
 130 0084 8840     		lw	a0,0(s1)
  99:C:/Users/stapi/OneDrive/Desktop/GD32VW553/V1_MQTT_OK/GD32VW55X_Wifi_BLE_SDK/GD32VW55x_RELEASE_V1.0.2/MSDK/wpa_supplicant/src/ap\wmm.c **** 			  sizeof(hapd->iconf->wmm_ac_params));
 131              		.loc 1 99 3
 132 0086 13060005 		li	a2,80
 133 008a 8A85     		mv	a1,sp
 134 008c 1305C54F 		addi	a0,a0,1276
 135 0090 97000000 		call	os_memcpy
 135      E7800000 
 136              	.LVL14:
 101:C:/Users/stapi/OneDrive/Desktop/GD32VW553/V1_MQTT_OK/GD32VW55X_Wifi_BLE_SDK/GD32VW55x_RELEASE_V1.0.2/MSDK/wpa_supplicant/src/ap\wmm.c **** 	}
 137              		.loc 1 101 3 is_stmt 1
 101:C:/Users/stapi/OneDrive/Desktop/GD32VW553/V1_MQTT_OK/GD32VW55X_Wifi_BLE_SDK/GD32VW55x_RELEASE_V1.0.2/MSDK/wpa_supplicant/src/ap\wmm.c **** 	}
 138              		.loc 1 101 28 is_stmt 0
 139 0098 83A7C458 		lw	a5,1420(s1)
 140 009c 8507     		addi	a5,a5,1
 141 009e 23A6F458 		sw	a5,1420(s1)
 142              	.L7:
 143              	.LVL15:
 144              	.LBE16:
 145              	.LBE15:
 123:C:/Users/stapi/OneDrive/Desktop/GD32VW553/V1_MQTT_OK/GD32VW55X_Wifi_BLE_SDK/GD32VW55x_RELEASE_V1.0.2/MSDK/wpa_supplicant/src/ap\wmm.c **** 	eid[0] = WLAN_EID_VENDOR_SPECIFIC;
 146              		.loc 1 123 2 is_stmt 1
 147              		.loc 1 123 9 is_stmt 0
 148 00a2 9307D0FD 		li	a5,-35
 149 00a6 2300F400 		sb	a5,0(s0)
 124:C:/Users/stapi/OneDrive/Desktop/GD32VW553/V1_MQTT_OK/GD32VW55X_Wifi_BLE_SDK/GD32VW55x_RELEASE_V1.0.2/MSDK/wpa_supplicant/src/ap\wmm.c **** 	wmm->oui[0] = 0x00;
 150              		.loc 1 124 2 is_stmt 1
 125:C:/Users/stapi/OneDrive/Desktop/GD32VW553/V1_MQTT_OK/GD32VW55X_Wifi_BLE_SDK/GD32VW55x_RELEASE_V1.0.2/MSDK/wpa_supplicant/src/ap\wmm.c **** 	wmm->oui[1] = 0x50;
 151              		.loc 1 125 14 is_stmt 0
 152 00aa 93070005 		li	a5,80
 153 00ae A301F400 		sb	a5,3(s0)
 126:C:/Users/stapi/OneDrive/Desktop/GD32VW553/V1_MQTT_OK/GD32VW55X_Wifi_BLE_SDK/GD32VW55x_RELEASE_V1.0.2/MSDK/wpa_supplicant/src/ap\wmm.c **** 	wmm->oui[2] = 0xf2;
 154              		.loc 1 126 14
 155 00b2 C957     		li	a5,-14
 156 00b4 2302F400 		sb	a5,4(s0)
 127:C:/Users/stapi/OneDrive/Desktop/GD32VW553/V1_MQTT_OK/GD32VW55X_Wifi_BLE_SDK/GD32VW55x_RELEASE_V1.0.2/MSDK/wpa_supplicant/src/ap\wmm.c **** 	wmm->oui_type = WMM_OUI_TYPE;
 157              		.loc 1 127 16
 158 00b8 8947     		li	a5,2
 159 00ba A302F400 		sb	a5,5(s0)
 128:C:/Users/stapi/OneDrive/Desktop/GD32VW553/V1_MQTT_OK/GD32VW55X_Wifi_BLE_SDK/GD32VW55x_RELEASE_V1.0.2/MSDK/wpa_supplicant/src/ap\wmm.c **** 	wmm->oui_subtype = WMM_OUI_SUBTYPE_PARAMETER_ELEMENT;
 160              		.loc 1 128 19
 161 00be 8547     		li	a5,1
 124:C:/Users/stapi/OneDrive/Desktop/GD32VW553/V1_MQTT_OK/GD32VW55X_Wifi_BLE_SDK/GD32VW55x_RELEASE_V1.0.2/MSDK/wpa_supplicant/src/ap\wmm.c **** 	wmm->oui[1] = 0x50;
 162              		.loc 1 124 14
 163 00c0 23010400 		sb	zero,2(s0)
 125:C:/Users/stapi/OneDrive/Desktop/GD32VW553/V1_MQTT_OK/GD32VW55X_Wifi_BLE_SDK/GD32VW55x_RELEASE_V1.0.2/MSDK/wpa_supplicant/src/ap\wmm.c **** 	wmm->oui[2] = 0xf2;
 164              		.loc 1 125 2 is_stmt 1
 126:C:/Users/stapi/OneDrive/Desktop/GD32VW553/V1_MQTT_OK/GD32VW55X_Wifi_BLE_SDK/GD32VW55x_RELEASE_V1.0.2/MSDK/wpa_supplicant/src/ap\wmm.c **** 	wmm->oui_type = WMM_OUI_TYPE;
 165              		.loc 1 126 2
 127:C:/Users/stapi/OneDrive/Desktop/GD32VW553/V1_MQTT_OK/GD32VW55X_Wifi_BLE_SDK/GD32VW55x_RELEASE_V1.0.2/MSDK/wpa_supplicant/src/ap\wmm.c **** 	wmm->oui_subtype = WMM_OUI_SUBTYPE_PARAMETER_ELEMENT;
 166              		.loc 1 127 2
 167              		.loc 1 128 2
 168              		.loc 1 128 19 is_stmt 0
 169 00c4 2303F400 		sb	a5,6(s0)
 129:C:/Users/stapi/OneDrive/Desktop/GD32VW553/V1_MQTT_OK/GD32VW55X_Wifi_BLE_SDK/GD32VW55x_RELEASE_V1.0.2/MSDK/wpa_supplicant/src/ap\wmm.c **** 	wmm->version = WMM_VERSION;
 170              		.loc 1 129 2 is_stmt 1
 171              		.loc 1 129 15 is_stmt 0
 172 00c8 A303F400 		sb	a5,7(s0)
 130:C:/Users/stapi/OneDrive/Desktop/GD32VW553/V1_MQTT_OK/GD32VW55X_Wifi_BLE_SDK/GD32VW55x_RELEASE_V1.0.2/MSDK/wpa_supplicant/src/ap\wmm.c **** 	wmm->qos_info = hapd->parameter_set_count & 0xf;
 173              		.loc 1 130 2 is_stmt 1
 174              		.loc 1 130 44 is_stmt 0
 175 00cc 83A7C458 		lw	a5,1420(s1)
 176 00d0 BD8B     		andi	a5,a5,15
 177              		.loc 1 130 16
 178 00d2 2304F400 		sb	a5,8(s0)
 131:C:/Users/stapi/OneDrive/Desktop/GD32VW553/V1_MQTT_OK/GD32VW55X_Wifi_BLE_SDK/GD32VW55x_RELEASE_V1.0.2/MSDK/wpa_supplicant/src/ap\wmm.c **** 
 132:C:/Users/stapi/OneDrive/Desktop/GD32VW553/V1_MQTT_OK/GD32VW55X_Wifi_BLE_SDK/GD32VW55x_RELEASE_V1.0.2/MSDK/wpa_supplicant/src/ap\wmm.c **** 	if (hapd->conf->wmm_uapsd &&
 179              		.loc 1 132 2 is_stmt 1
 180              		.loc 1 132 16 is_stmt 0
 181 00d6 9844     		lw	a4,8(s1)
 182              		.loc 1 132 5
 183 00d8 03274726 		lw	a4,612(a4)
 184 00dc 01CF     		beq	a4,zero,.L11
 133:C:/Users/stapi/OneDrive/Desktop/GD32VW553/V1_MQTT_OK/GD32VW55X_Wifi_BLE_SDK/GD32VW55x_RELEASE_V1.0.2/MSDK/wpa_supplicant/src/ap\wmm.c **** 	    (hapd->iface->drv_flags & WPA_DRIVER_FLAGS_AP_UAPSD))
 185              		.loc 1 133 18 discriminator 1
 186 00de 9840     		lw	a4,0(s1)
 187              		.loc 1 133 30 discriminator 1
 188 00e0 B7064000 		li	a3,4194304
 189 00e4 03278743 		lw	a4,1080(a4)
 190 00e8 758F     		and	a4,a4,a3
 132:C:/Users/stapi/OneDrive/Desktop/GD32VW553/V1_MQTT_OK/GD32VW55X_Wifi_BLE_SDK/GD32VW55x_RELEASE_V1.0.2/MSDK/wpa_supplicant/src/ap\wmm.c **** 	    (hapd->iface->drv_flags & WPA_DRIVER_FLAGS_AP_UAPSD))
 191              		.loc 1 132 28 discriminator 1
 192 00ea 09C7     		beq	a4,zero,.L11
 134:C:/Users/stapi/OneDrive/Desktop/GD32VW553/V1_MQTT_OK/GD32VW55X_Wifi_BLE_SDK/GD32VW55x_RELEASE_V1.0.2/MSDK/wpa_supplicant/src/ap\wmm.c **** 		wmm->qos_info |= 0x80;
 193              		.loc 1 134 3 is_stmt 1 discriminator 1
 194              		.loc 1 134 17 is_stmt 0 discriminator 1
 195 00ec 93E707F8 		ori	a5,a5,-128
 196 00f0 2304F400 		sb	a5,8(s0)
 197              	.L11:
 135:C:/Users/stapi/OneDrive/Desktop/GD32VW553/V1_MQTT_OK/GD32VW55X_Wifi_BLE_SDK/GD32VW55x_RELEASE_V1.0.2/MSDK/wpa_supplicant/src/ap\wmm.c **** 
 136:C:/Users/stapi/OneDrive/Desktop/GD32VW553/V1_MQTT_OK/GD32VW55X_Wifi_BLE_SDK/GD32VW55x_RELEASE_V1.0.2/MSDK/wpa_supplicant/src/ap\wmm.c **** 	wmm->reserved = 0;
 198              		.loc 1 136 2 is_stmt 1
 199              		.loc 1 136 16 is_stmt 0
 200 00f4 A3040400 		sb	zero,9(s0)
 137:C:/Users/stapi/OneDrive/Desktop/GD32VW553/V1_MQTT_OK/GD32VW55X_Wifi_BLE_SDK/GD32VW55x_RELEASE_V1.0.2/MSDK/wpa_supplicant/src/ap\wmm.c **** 
 138:C:/Users/stapi/OneDrive/Desktop/GD32VW553/V1_MQTT_OK/GD32VW55X_Wifi_BLE_SDK/GD32VW55x_RELEASE_V1.0.2/MSDK/wpa_supplicant/src/ap\wmm.c **** 	/* fill in a parameter set record for each AC */
 139:C:/Users/stapi/OneDrive/Desktop/GD32VW553/V1_MQTT_OK/GD32VW55X_Wifi_BLE_SDK/GD32VW55x_RELEASE_V1.0.2/MSDK/wpa_supplicant/src/ap\wmm.c **** 	for (e = 0; e < 4; e++) {
 201              		.loc 1 139 2 is_stmt 1
 202              	.LVL16:
 203              		.loc 1 139 14
 204 00f8 8A87     		mv	a5,sp
 205 00fa 1306A400 		addi	a2,s0,10
 206              		.loc 1 139 9 is_stmt 0
 207 00fe 0147     		li	a4,0
 208              		.loc 1 139 2
 209 0100 1145     		li	a0,4
 210              	.LVL17:
 211              	.L14:
 212              	.LBB25:
 140:C:/Users/stapi/OneDrive/Desktop/GD32VW553/V1_MQTT_OK/GD32VW55X_Wifi_BLE_SDK/GD32VW55x_RELEASE_V1.0.2/MSDK/wpa_supplicant/src/ap\wmm.c **** 		struct wmm_ac_parameter *ac = &wmm->ac[e];
 213              		.loc 1 140 3 is_stmt 1 discriminator 3
 141:C:/Users/stapi/OneDrive/Desktop/GD32VW553/V1_MQTT_OK/GD32VW55X_Wifi_BLE_SDK/GD32VW55x_RELEASE_V1.0.2/MSDK/wpa_supplicant/src/ap\wmm.c **** 		struct hostapd_wmm_ac_params *acp = &wmmp[e];
 214              		.loc 1 141 3 discriminator 3
 142:C:/Users/stapi/OneDrive/Desktop/GD32VW553/V1_MQTT_OK/GD32VW55X_Wifi_BLE_SDK/GD32VW55x_RELEASE_V1.0.2/MSDK/wpa_supplicant/src/ap\wmm.c **** 
 143:C:/Users/stapi/OneDrive/Desktop/GD32VW553/V1_MQTT_OK/GD32VW55X_Wifi_BLE_SDK/GD32VW55x_RELEASE_V1.0.2/MSDK/wpa_supplicant/src/ap\wmm.c **** 		ac->aci_aifsn = wmm_aci_aifsn(acp->aifs,
 215              		.loc 1 143 3 discriminator 3
 216              	.LBB26:
 217              	.LBB27:
  34:C:/Users/stapi/OneDrive/Desktop/GD32VW553/V1_MQTT_OK/GD32VW55X_Wifi_BLE_SDK/GD32VW55x_RELEASE_V1.0.2/MSDK/wpa_supplicant/src/ap\wmm.c **** 	ret = (aifsn << WMM_AC_AIFNS_SHIFT) & WMM_AC_AIFSN_MASK;
 218              		.loc 1 34 2 discriminator 3
  35:C:/Users/stapi/OneDrive/Desktop/GD32VW553/V1_MQTT_OK/GD32VW55X_Wifi_BLE_SDK/GD32VW55x_RELEASE_V1.0.2/MSDK/wpa_supplicant/src/ap\wmm.c **** 	if (acm)
 219              		.loc 1 35 2 discriminator 3
  35:C:/Users/stapi/OneDrive/Desktop/GD32VW553/V1_MQTT_OK/GD32VW55X_Wifi_BLE_SDK/GD32VW55x_RELEASE_V1.0.2/MSDK/wpa_supplicant/src/ap\wmm.c **** 	if (acm)
 220              		.loc 1 35 38 is_stmt 0 discriminator 3
 221 0102 9447     		lw	a3,8(a5)
  36:C:/Users/stapi/OneDrive/Desktop/GD32VW553/V1_MQTT_OK/GD32VW55X_Wifi_BLE_SDK/GD32VW55x_RELEASE_V1.0.2/MSDK/wpa_supplicant/src/ap\wmm.c **** 		ret |= WMM_AC_ACM;
 222              		.loc 1 36 5 discriminator 3
 223 0104 8C4B     		lw	a1,16(a5)
  35:C:/Users/stapi/OneDrive/Desktop/GD32VW553/V1_MQTT_OK/GD32VW55X_Wifi_BLE_SDK/GD32VW55x_RELEASE_V1.0.2/MSDK/wpa_supplicant/src/ap\wmm.c **** 	if (acm)
 224              		.loc 1 35 6 discriminator 3
 225 0106 BD8A     		andi	a3,a3,15
 226              	.LVL18:
  36:C:/Users/stapi/OneDrive/Desktop/GD32VW553/V1_MQTT_OK/GD32VW55X_Wifi_BLE_SDK/GD32VW55x_RELEASE_V1.0.2/MSDK/wpa_supplicant/src/ap\wmm.c **** 		ret |= WMM_AC_ACM;
 227              		.loc 1 36 2 is_stmt 1 discriminator 3
  36:C:/Users/stapi/OneDrive/Desktop/GD32VW553/V1_MQTT_OK/GD32VW55X_Wifi_BLE_SDK/GD32VW55x_RELEASE_V1.0.2/MSDK/wpa_supplicant/src/ap\wmm.c **** 		ret |= WMM_AC_ACM;
 228              		.loc 1 36 5 is_stmt 0 discriminator 3
 229 0108 99C1     		beq	a1,zero,.L13
  37:C:/Users/stapi/OneDrive/Desktop/GD32VW553/V1_MQTT_OK/GD32VW55X_Wifi_BLE_SDK/GD32VW55x_RELEASE_V1.0.2/MSDK/wpa_supplicant/src/ap\wmm.c **** 	ret |= (aci << WMM_AC_ACI_SHIFT) & WMM_AC_ACI_MASK;
 230              		.loc 1 37 3 is_stmt 1
  37:C:/Users/stapi/OneDrive/Desktop/GD32VW553/V1_MQTT_OK/GD32VW55X_Wifi_BLE_SDK/GD32VW55x_RELEASE_V1.0.2/MSDK/wpa_supplicant/src/ap\wmm.c **** 	ret |= (aci << WMM_AC_ACI_SHIFT) & WMM_AC_ACI_MASK;
 231              		.loc 1 37 7 is_stmt 0
 232 010a 93E60601 		ori	a3,a3,16
 233              	.LVL19:
 234              	.L13:
  38:C:/Users/stapi/OneDrive/Desktop/GD32VW553/V1_MQTT_OK/GD32VW55X_Wifi_BLE_SDK/GD32VW55x_RELEASE_V1.0.2/MSDK/wpa_supplicant/src/ap\wmm.c **** 	return ret;
 235              		.loc 1 38 2 is_stmt 1
  38:C:/Users/stapi/OneDrive/Desktop/GD32VW553/V1_MQTT_OK/GD32VW55X_Wifi_BLE_SDK/GD32VW55x_RELEASE_V1.0.2/MSDK/wpa_supplicant/src/ap\wmm.c **** 	return ret;
 236              		.loc 1 38 35 is_stmt 0
 237 010e 93155700 		slli	a1,a4,5
  38:C:/Users/stapi/OneDrive/Desktop/GD32VW553/V1_MQTT_OK/GD32VW55X_Wifi_BLE_SDK/GD32VW55x_RELEASE_V1.0.2/MSDK/wpa_supplicant/src/ap\wmm.c **** 	return ret;
 238              		.loc 1 38 6
 239 0112 CD8E     		or	a3,a1,a3
 240              	.LVL20:
  39:C:/Users/stapi/OneDrive/Desktop/GD32VW553/V1_MQTT_OK/GD32VW55X_Wifi_BLE_SDK/GD32VW55x_RELEASE_V1.0.2/MSDK/wpa_supplicant/src/ap\wmm.c **** }
 241              		.loc 1 39 2 is_stmt 1
 242              	.LBE27:
 243              	.LBE26:
 244              		.loc 1 143 17 is_stmt 0
 245 0114 2300D600 		sb	a3,0(a2)
 144:C:/Users/stapi/OneDrive/Desktop/GD32VW553/V1_MQTT_OK/GD32VW55X_Wifi_BLE_SDK/GD32VW55x_RELEASE_V1.0.2/MSDK/wpa_supplicant/src/ap\wmm.c **** 					      acp->admission_control_mandatory,
 145:C:/Users/stapi/OneDrive/Desktop/GD32VW553/V1_MQTT_OK/GD32VW55X_Wifi_BLE_SDK/GD32VW55x_RELEASE_V1.0.2/MSDK/wpa_supplicant/src/ap\wmm.c **** 					      e);
 146:C:/Users/stapi/OneDrive/Desktop/GD32VW553/V1_MQTT_OK/GD32VW55X_Wifi_BLE_SDK/GD32VW55x_RELEASE_V1.0.2/MSDK/wpa_supplicant/src/ap\wmm.c **** 		ac->cw = wmm_ecw(acp->cwmin, acp->cwmax);
 246              		.loc 1 146 3 is_stmt 1
 247              	.LVL21:
 248              	.LBB28:
 249              	.LBB29:
  45:C:/Users/stapi/OneDrive/Desktop/GD32VW553/V1_MQTT_OK/GD32VW55X_Wifi_BLE_SDK/GD32VW55x_RELEASE_V1.0.2/MSDK/wpa_supplicant/src/ap\wmm.c **** 		((ecwmax << WMM_AC_ECWMAX_SHIFT) & WMM_AC_ECWMAX_MASK);
 250              		.loc 1 45 2
  46:C:/Users/stapi/OneDrive/Desktop/GD32VW553/V1_MQTT_OK/GD32VW55X_Wifi_BLE_SDK/GD32VW55x_RELEASE_V1.0.2/MSDK/wpa_supplicant/src/ap\wmm.c **** }
 251              		.loc 1 46 12 is_stmt 0
 252 0118 CC43     		lw	a1,4(a5)
  45:C:/Users/stapi/OneDrive/Desktop/GD32VW553/V1_MQTT_OK/GD32VW55X_Wifi_BLE_SDK/GD32VW55x_RELEASE_V1.0.2/MSDK/wpa_supplicant/src/ap\wmm.c **** 		((ecwmax << WMM_AC_ECWMAX_SHIFT) & WMM_AC_ECWMAX_MASK);
 253              		.loc 1 45 42
 254 011a 9443     		lw	a3,0(a5)
 255              	.LBE29:
 256              	.LBE28:
 257              	.LBE25:
 139:C:/Users/stapi/OneDrive/Desktop/GD32VW553/V1_MQTT_OK/GD32VW55X_Wifi_BLE_SDK/GD32VW55x_RELEASE_V1.0.2/MSDK/wpa_supplicant/src/ap\wmm.c **** 		struct wmm_ac_parameter *ac = &wmm->ac[e];
 258              		.loc 1 139 2
 259 011c 1106     		addi	a2,a2,4
 260              	.LBB32:
 261              	.LBB31:
 262              	.LBB30:
  46:C:/Users/stapi/OneDrive/Desktop/GD32VW553/V1_MQTT_OK/GD32VW55X_Wifi_BLE_SDK/GD32VW55x_RELEASE_V1.0.2/MSDK/wpa_supplicant/src/ap\wmm.c **** }
 263              		.loc 1 46 12
 264 011e 9205     		slli	a1,a1,4
  45:C:/Users/stapi/OneDrive/Desktop/GD32VW553/V1_MQTT_OK/GD32VW55X_Wifi_BLE_SDK/GD32VW55x_RELEASE_V1.0.2/MSDK/wpa_supplicant/src/ap\wmm.c **** 		((ecwmax << WMM_AC_ECWMAX_SHIFT) & WMM_AC_ECWMAX_MASK);
 265              		.loc 1 45 42
 266 0120 BD8A     		andi	a3,a3,15
  45:C:/Users/stapi/OneDrive/Desktop/GD32VW553/V1_MQTT_OK/GD32VW55X_Wifi_BLE_SDK/GD32VW55x_RELEASE_V1.0.2/MSDK/wpa_supplicant/src/ap\wmm.c **** 		((ecwmax << WMM_AC_ECWMAX_SHIFT) & WMM_AC_ECWMAX_MASK);
 267              		.loc 1 45 64
 268 0122 CD8E     		or	a3,a3,a1
 269              	.LBE30:
 270              	.LBE31:
 271              		.loc 1 146 10
 272 0124 A30ED6FE 		sb	a3,-3(a2)
 147:C:/Users/stapi/OneDrive/Desktop/GD32VW553/V1_MQTT_OK/GD32VW55X_Wifi_BLE_SDK/GD32VW55x_RELEASE_V1.0.2/MSDK/wpa_supplicant/src/ap\wmm.c **** 		ac->txop_limit = host_to_le16(acp->txop_limit);
 273              		.loc 1 147 3 is_stmt 1
 274              		.loc 1 147 18 is_stmt 0
 275 0128 83D6C700 		lhu	a3,12(a5)
 276 012c B3458720 		sh2add	a1,a4,s0
 277              	.LBE32:
 139:C:/Users/stapi/OneDrive/Desktop/GD32VW553/V1_MQTT_OK/GD32VW55X_Wifi_BLE_SDK/GD32VW55x_RELEASE_V1.0.2/MSDK/wpa_supplicant/src/ap\wmm.c **** 		struct wmm_ac_parameter *ac = &wmm->ac[e];
 278              		.loc 1 139 22
 279 0130 0507     		addi	a4,a4,1
 280              	.LVL22:
 281              	.LBB33:
 282              		.loc 1 147 18
 283 0132 2386D500 		sb	a3,12(a1)
 284 0136 A182     		srli	a3,a3,8
 285 0138 A386D500 		sb	a3,13(a1)
 286              	.LBE33:
 139:C:/Users/stapi/OneDrive/Desktop/GD32VW553/V1_MQTT_OK/GD32VW55X_Wifi_BLE_SDK/GD32VW55x_RELEASE_V1.0.2/MSDK/wpa_supplicant/src/ap\wmm.c **** 		struct wmm_ac_parameter *ac = &wmm->ac[e];
 287              		.loc 1 139 21 is_stmt 1
 288              	.LVL23:
 139:C:/Users/stapi/OneDrive/Desktop/GD32VW553/V1_MQTT_OK/GD32VW55X_Wifi_BLE_SDK/GD32VW55x_RELEASE_V1.0.2/MSDK/wpa_supplicant/src/ap\wmm.c **** 		struct wmm_ac_parameter *ac = &wmm->ac[e];
 289              		.loc 1 139 14
 139:C:/Users/stapi/OneDrive/Desktop/GD32VW553/V1_MQTT_OK/GD32VW55X_Wifi_BLE_SDK/GD32VW55x_RELEASE_V1.0.2/MSDK/wpa_supplicant/src/ap\wmm.c **** 		struct wmm_ac_parameter *ac = &wmm->ac[e];
 290              		.loc 1 139 2 is_stmt 0
 291 013c D107     		addi	a5,a5,20
 292 013e E312A7FC 		bne	a4,a0,.L14
 148:C:/Users/stapi/OneDrive/Desktop/GD32VW553/V1_MQTT_OK/GD32VW55X_Wifi_BLE_SDK/GD32VW55x_RELEASE_V1.0.2/MSDK/wpa_supplicant/src/ap\wmm.c **** 	}
 149:C:/Users/stapi/OneDrive/Desktop/GD32VW553/V1_MQTT_OK/GD32VW55X_Wifi_BLE_SDK/GD32VW55x_RELEASE_V1.0.2/MSDK/wpa_supplicant/src/ap\wmm.c **** 
 150:C:/Users/stapi/OneDrive/Desktop/GD32VW553/V1_MQTT_OK/GD32VW55X_Wifi_BLE_SDK/GD32VW55x_RELEASE_V1.0.2/MSDK/wpa_supplicant/src/ap\wmm.c **** 	pos = (u8 *) (wmm + 1);
 293              		.loc 1 150 2 is_stmt 1
 294              	.LVL24:
 151:C:/Users/stapi/OneDrive/Desktop/GD32VW553/V1_MQTT_OK/GD32VW55X_Wifi_BLE_SDK/GD32VW55x_RELEASE_V1.0.2/MSDK/wpa_supplicant/src/ap\wmm.c **** 	eid[1] = pos - eid - 2; /* element length */
 295              		.loc 1 151 2
 296              		.loc 1 151 21 is_stmt 0
 297 0142 E147     		li	a5,24
 298              		.loc 1 151 9
 299 0144 A300F400 		sb	a5,1(s0)
 152:C:/Users/stapi/OneDrive/Desktop/GD32VW553/V1_MQTT_OK/GD32VW55X_Wifi_BLE_SDK/GD32VW55x_RELEASE_V1.0.2/MSDK/wpa_supplicant/src/ap\wmm.c **** 
 153:C:/Users/stapi/OneDrive/Desktop/GD32VW553/V1_MQTT_OK/GD32VW55X_Wifi_BLE_SDK/GD32VW55x_RELEASE_V1.0.2/MSDK/wpa_supplicant/src/ap\wmm.c **** 	return pos;
 300              		.loc 1 153 2 is_stmt 1
 301              		.loc 1 153 9 is_stmt 0
 302 0148 6904     		addi	s0,s0,26
 303              	.LVL25:
 304              	.L2:
 154:C:/Users/stapi/OneDrive/Desktop/GD32VW553/V1_MQTT_OK/GD32VW55X_Wifi_BLE_SDK/GD32VW55x_RELEASE_V1.0.2/MSDK/wpa_supplicant/src/ap\wmm.c **** }
 305              		.loc 1 154 1
 306 014a 2285     		mv	a0,s0
 307 014c 6161     		addi	sp,sp,80
 308              		.cfi_remember_state
 309              		.cfi_def_cfa_offset 0
 310 014e 17030000 		tail	__riscv_restore_3
 310      67000300 
 311              		.cfi_restore 18
 312              		.cfi_restore 9
 313              		.cfi_restore 8
 314              		.cfi_restore 1
 315              		.cfi_def_cfa_offset -16
 316              	.LVL26:
 317              	.L5:
 318              		.cfi_restore_state
 319              	.LBB34:
 320              	.LBB24:
 321              	.LBB23:
  88:C:/Users/stapi/OneDrive/Desktop/GD32VW553/V1_MQTT_OK/GD32VW55X_Wifi_BLE_SDK/GD32VW55x_RELEASE_V1.0.2/MSDK/wpa_supplicant/src/ap\wmm.c **** 						 acp, chan->wmm_rules);
 322              		.loc 1 88 4 is_stmt 1
  88:C:/Users/stapi/OneDrive/Desktop/GD32VW553/V1_MQTT_OK/GD32VW55X_Wifi_BLE_SDK/GD32VW55x_RELEASE_V1.0.2/MSDK/wpa_supplicant/src/ap\wmm.c **** 						 acp, chan->wmm_rules);
 323              		.loc 1 88 33 is_stmt 0
 324 0156 D040     		lw	a2,4(s1)
 325              	.LVL27:
 326              	.LBB18:
 327              	.LBB19:
  55:C:/Users/stapi/OneDrive/Desktop/GD32VW553/V1_MQTT_OK/GD32VW55X_Wifi_BLE_SDK/GD32VW55x_RELEASE_V1.0.2/MSDK/wpa_supplicant/src/ap\wmm.c **** 
 328              		.loc 1 55 2 is_stmt 1
  57:C:/Users/stapi/OneDrive/Desktop/GD32VW553/V1_MQTT_OK/GD32VW55X_Wifi_BLE_SDK/GD32VW55x_RELEASE_V1.0.2/MSDK/wpa_supplicant/src/ap\wmm.c **** 		wmm[ac].cwmin = MAX(wmm_conf[ac].cwmin, wmm_reg[ac].min_cwmin);
 329              		.loc 1 57 2
  57:C:/Users/stapi/OneDrive/Desktop/GD32VW553/V1_MQTT_OK/GD32VW55X_Wifi_BLE_SDK/GD32VW55x_RELEASE_V1.0.2/MSDK/wpa_supplicant/src/ap\wmm.c **** 		wmm[ac].cwmin = MAX(wmm_conf[ac].cwmin, wmm_reg[ac].min_cwmin);
 330              		.loc 1 57 15
 331 0158 93878702 		addi	a5,a5,40
 332              	.LVL28:
 333 015c 8A86     		mv	a3,sp
 334 015e 1307860C 		addi	a4,a2,200
 335              	.LVL29:
 336 0162 13068611 		addi	a2,a2,280
 337              	.LVL30:
 338              	.L8:
  58:C:/Users/stapi/OneDrive/Desktop/GD32VW553/V1_MQTT_OK/GD32VW55X_Wifi_BLE_SDK/GD32VW55x_RELEASE_V1.0.2/MSDK/wpa_supplicant/src/ap\wmm.c **** 		wmm[ac].cwmax = MAX(wmm_conf[ac].cwmax, wmm_reg[ac].min_cwmax);
 339              		.loc 1 58 3
  58:C:/Users/stapi/OneDrive/Desktop/GD32VW553/V1_MQTT_OK/GD32VW55X_Wifi_BLE_SDK/GD32VW55x_RELEASE_V1.0.2/MSDK/wpa_supplicant/src/ap\wmm.c **** 		wmm[ac].cwmax = MAX(wmm_conf[ac].cwmax, wmm_reg[ac].min_cwmax);
 340              		.loc 1 58 19 is_stmt 0
 341 0166 03280700 		lw	a6,0(a4)
 342 016a 8843     		lw	a0,0(a5)
 343 016c 3365050B 		max	a0,a0,a6
  58:C:/Users/stapi/OneDrive/Desktop/GD32VW553/V1_MQTT_OK/GD32VW55X_Wifi_BLE_SDK/GD32VW55x_RELEASE_V1.0.2/MSDK/wpa_supplicant/src/ap\wmm.c **** 		wmm[ac].cwmax = MAX(wmm_conf[ac].cwmax, wmm_reg[ac].min_cwmax);
 344              		.loc 1 58 17
 345 0170 88C2     		sw	a0,0(a3)
  59:C:/Users/stapi/OneDrive/Desktop/GD32VW553/V1_MQTT_OK/GD32VW55X_Wifi_BLE_SDK/GD32VW55x_RELEASE_V1.0.2/MSDK/wpa_supplicant/src/ap\wmm.c **** 		wmm[ac].aifs = MAX(wmm_conf[ac].aifs, wmm_reg[ac].min_aifs);
 346              		.loc 1 59 3 is_stmt 1
  59:C:/Users/stapi/OneDrive/Desktop/GD32VW553/V1_MQTT_OK/GD32VW55X_Wifi_BLE_SDK/GD32VW55x_RELEASE_V1.0.2/MSDK/wpa_supplicant/src/ap\wmm.c **** 		wmm[ac].aifs = MAX(wmm_conf[ac].aifs, wmm_reg[ac].min_aifs);
 347              		.loc 1 59 19 is_stmt 0
 348 0172 03284700 		lw	a6,4(a4)
 349 0176 C843     		lw	a0,4(a5)
 350 0178 3365050B 		max	a0,a0,a6
  59:C:/Users/stapi/OneDrive/Desktop/GD32VW553/V1_MQTT_OK/GD32VW55X_Wifi_BLE_SDK/GD32VW55x_RELEASE_V1.0.2/MSDK/wpa_supplicant/src/ap\wmm.c **** 		wmm[ac].aifs = MAX(wmm_conf[ac].aifs, wmm_reg[ac].min_aifs);
 351              		.loc 1 59 17
 352 017c C8C2     		sw	a0,4(a3)
  60:C:/Users/stapi/OneDrive/Desktop/GD32VW553/V1_MQTT_OK/GD32VW55X_Wifi_BLE_SDK/GD32VW55x_RELEASE_V1.0.2/MSDK/wpa_supplicant/src/ap\wmm.c **** 		wmm[ac].txop_limit =
 353              		.loc 1 60 3 is_stmt 1
  60:C:/Users/stapi/OneDrive/Desktop/GD32VW553/V1_MQTT_OK/GD32VW55X_Wifi_BLE_SDK/GD32VW55x_RELEASE_V1.0.2/MSDK/wpa_supplicant/src/ap\wmm.c **** 		wmm[ac].txop_limit =
 354              		.loc 1 60 18 is_stmt 0
 355 017e 03288700 		lw	a6,8(a4)
 356 0182 8847     		lw	a0,8(a5)
 357 0184 3365050B 		max	a0,a0,a6
  60:C:/Users/stapi/OneDrive/Desktop/GD32VW553/V1_MQTT_OK/GD32VW55X_Wifi_BLE_SDK/GD32VW55x_RELEASE_V1.0.2/MSDK/wpa_supplicant/src/ap\wmm.c **** 		wmm[ac].txop_limit =
 358              		.loc 1 60 16
 359 0188 88C6     		sw	a0,8(a3)
  61:C:/Users/stapi/OneDrive/Desktop/GD32VW553/V1_MQTT_OK/GD32VW55X_Wifi_BLE_SDK/GD32VW55x_RELEASE_V1.0.2/MSDK/wpa_supplicant/src/ap\wmm.c **** 			MIN(wmm_conf[ac].txop_limit, wmm_reg[ac].max_txop);
 360              		.loc 1 61 3 is_stmt 1
  62:C:/Users/stapi/OneDrive/Desktop/GD32VW553/V1_MQTT_OK/GD32VW55X_Wifi_BLE_SDK/GD32VW55x_RELEASE_V1.0.2/MSDK/wpa_supplicant/src/ap\wmm.c **** 		wmm[ac].admission_control_mandatory =
 361              		.loc 1 62 4 is_stmt 0
 362 018a C847     		lw	a0,12(a5)
 363 018c 0328C700 		lw	a6,12(a4)
  57:C:/Users/stapi/OneDrive/Desktop/GD32VW553/V1_MQTT_OK/GD32VW55X_Wifi_BLE_SDK/GD32VW55x_RELEASE_V1.0.2/MSDK/wpa_supplicant/src/ap\wmm.c **** 		wmm[ac].cwmin = MAX(wmm_conf[ac].cwmin, wmm_reg[ac].min_cwmin);
 364              		.loc 1 57 2
 365 0190 C107     		addi	a5,a5,16
  62:C:/Users/stapi/OneDrive/Desktop/GD32VW553/V1_MQTT_OK/GD32VW55X_Wifi_BLE_SDK/GD32VW55x_RELEASE_V1.0.2/MSDK/wpa_supplicant/src/ap\wmm.c **** 		wmm[ac].admission_control_mandatory =
 366              		.loc 1 62 4
 367 0192 3345050B 		min	a0,a0,a6
  61:C:/Users/stapi/OneDrive/Desktop/GD32VW553/V1_MQTT_OK/GD32VW55X_Wifi_BLE_SDK/GD32VW55x_RELEASE_V1.0.2/MSDK/wpa_supplicant/src/ap\wmm.c **** 			MIN(wmm_conf[ac].txop_limit, wmm_reg[ac].max_txop);
 368              		.loc 1 61 22
 369 0196 C8C6     		sw	a0,12(a3)
  63:C:/Users/stapi/OneDrive/Desktop/GD32VW553/V1_MQTT_OK/GD32VW55X_Wifi_BLE_SDK/GD32VW55x_RELEASE_V1.0.2/MSDK/wpa_supplicant/src/ap\wmm.c **** 			wmm_conf[ac].admission_control_mandatory;
 370              		.loc 1 63 3 is_stmt 1
  64:C:/Users/stapi/OneDrive/Desktop/GD32VW553/V1_MQTT_OK/GD32VW55X_Wifi_BLE_SDK/GD32VW55x_RELEASE_V1.0.2/MSDK/wpa_supplicant/src/ap\wmm.c **** 	}
 371              		.loc 1 64 16 is_stmt 0
 372 0198 084B     		lw	a0,16(a4)
  57:C:/Users/stapi/OneDrive/Desktop/GD32VW553/V1_MQTT_OK/GD32VW55X_Wifi_BLE_SDK/GD32VW55x_RELEASE_V1.0.2/MSDK/wpa_supplicant/src/ap\wmm.c **** 		wmm[ac].cwmin = MAX(wmm_conf[ac].cwmin, wmm_reg[ac].min_cwmin);
 373              		.loc 1 57 2
 374 019a 5107     		addi	a4,a4,20
  63:C:/Users/stapi/OneDrive/Desktop/GD32VW553/V1_MQTT_OK/GD32VW55X_Wifi_BLE_SDK/GD32VW55x_RELEASE_V1.0.2/MSDK/wpa_supplicant/src/ap\wmm.c **** 			wmm_conf[ac].admission_control_mandatory;
 375              		.loc 1 63 39
 376 019c 88CA     		sw	a0,16(a3)
  57:C:/Users/stapi/OneDrive/Desktop/GD32VW553/V1_MQTT_OK/GD32VW55X_Wifi_BLE_SDK/GD32VW55x_RELEASE_V1.0.2/MSDK/wpa_supplicant/src/ap\wmm.c **** 		wmm[ac].cwmin = MAX(wmm_conf[ac].cwmin, wmm_reg[ac].min_cwmin);
 377              		.loc 1 57 32 is_stmt 1
  57:C:/Users/stapi/OneDrive/Desktop/GD32VW553/V1_MQTT_OK/GD32VW55X_Wifi_BLE_SDK/GD32VW55x_RELEASE_V1.0.2/MSDK/wpa_supplicant/src/ap\wmm.c **** 		wmm[ac].cwmin = MAX(wmm_conf[ac].cwmin, wmm_reg[ac].min_cwmin);
 378              		.loc 1 57 15
  57:C:/Users/stapi/OneDrive/Desktop/GD32VW553/V1_MQTT_OK/GD32VW55X_Wifi_BLE_SDK/GD32VW55x_RELEASE_V1.0.2/MSDK/wpa_supplicant/src/ap\wmm.c **** 		wmm[ac].cwmin = MAX(wmm_conf[ac].cwmin, wmm_reg[ac].min_cwmin);
 379              		.loc 1 57 2 is_stmt 0
 380 019e D106     		addi	a3,a3,20
 381 01a0 E313E6FC 		bne	a2,a4,.L8
 382 01a4 F1B5     		j	.L9
 383              	.LBE19:
 384              	.LBE18:
 385              	.LBE23:
 386              	.LBE24:
 387              	.LBE34:
 388              		.cfi_endproc
 389              	.LFE171:
 391              		.section	.rodata.hostapd_eid_wmm_valid.str1.4,"aMS",@progbits,1
 392              		.align	2
 393              	.LC0:
 394 0000 574D4D20 		.string	"WMM IE"
 394      494500
 395 0007 00       		.align	2
 396              	.LC1:
 397 0008 546F6F20 		.string	"Too short WMM IE (len=%lu)"
 397      73686F72 
 397      7420574D 
 397      4D204945 
 397      20286C65 
 398 0023 00       		.align	2
 399              	.LC2:
 400 0024 56616C69 		.string	"Validating WMM IE: OUI %02x:%02x:%02x  OUI type %d  OUI sub-type %d  version %d  QoS info
 400      64617469 
 400      6E672057 
 400      4D4D2049 
 400      453A204F 
 401 0083 00       		.align	2
 402              	.LC3:
 403 0084 556E7375 		.string	"Unsupported WMM IE Subtype/Version"
 403      70706F72 
 403      74656420 
 403      574D4D20 
 403      49452053 
 404              		.section	.text.hostapd_eid_wmm_valid,"ax",@progbits
 405              		.align	1
 406              		.globl	hostapd_eid_wmm_valid
 408              	hostapd_eid_wmm_valid:
 409              	.LFB172:
 155:C:/Users/stapi/OneDrive/Desktop/GD32VW553/V1_MQTT_OK/GD32VW55X_Wifi_BLE_SDK/GD32VW55x_RELEASE_V1.0.2/MSDK/wpa_supplicant/src/ap\wmm.c **** 
 156:C:/Users/stapi/OneDrive/Desktop/GD32VW553/V1_MQTT_OK/GD32VW55X_Wifi_BLE_SDK/GD32VW55x_RELEASE_V1.0.2/MSDK/wpa_supplicant/src/ap\wmm.c **** 
 157:C:/Users/stapi/OneDrive/Desktop/GD32VW553/V1_MQTT_OK/GD32VW55X_Wifi_BLE_SDK/GD32VW55x_RELEASE_V1.0.2/MSDK/wpa_supplicant/src/ap\wmm.c **** /*
 158:C:/Users/stapi/OneDrive/Desktop/GD32VW553/V1_MQTT_OK/GD32VW55X_Wifi_BLE_SDK/GD32VW55x_RELEASE_V1.0.2/MSDK/wpa_supplicant/src/ap\wmm.c ****  * This function is called when a station sends an association request with
 159:C:/Users/stapi/OneDrive/Desktop/GD32VW553/V1_MQTT_OK/GD32VW55X_Wifi_BLE_SDK/GD32VW55x_RELEASE_V1.0.2/MSDK/wpa_supplicant/src/ap\wmm.c ****  * WMM info element. The function returns 1 on success or 0 on any error in WMM
 160:C:/Users/stapi/OneDrive/Desktop/GD32VW553/V1_MQTT_OK/GD32VW55X_Wifi_BLE_SDK/GD32VW55x_RELEASE_V1.0.2/MSDK/wpa_supplicant/src/ap\wmm.c ****  * element. eid does not include Element ID and Length octets.
 161:C:/Users/stapi/OneDrive/Desktop/GD32VW553/V1_MQTT_OK/GD32VW55X_Wifi_BLE_SDK/GD32VW55x_RELEASE_V1.0.2/MSDK/wpa_supplicant/src/ap\wmm.c ****  */
 162:C:/Users/stapi/OneDrive/Desktop/GD32VW553/V1_MQTT_OK/GD32VW55X_Wifi_BLE_SDK/GD32VW55x_RELEASE_V1.0.2/MSDK/wpa_supplicant/src/ap\wmm.c **** int hostapd_eid_wmm_valid(struct hostapd_data *hapd, const u8 *eid, size_t len)
 163:C:/Users/stapi/OneDrive/Desktop/GD32VW553/V1_MQTT_OK/GD32VW55X_Wifi_BLE_SDK/GD32VW55x_RELEASE_V1.0.2/MSDK/wpa_supplicant/src/ap\wmm.c **** {
 410              		.loc 1 163 1 is_stmt 1
 411              		.cfi_startproc
 412              	.LVL31:
 413 0000 17030000 		call	t0,__riscv_save_2
 413      E7020300 
 414              		.cfi_offset 9, -12
 415              		.cfi_offset 8, -8
 416              		.cfi_offset 1, -4
 417              		.cfi_def_cfa_offset 16
 164:C:/Users/stapi/OneDrive/Desktop/GD32VW553/V1_MQTT_OK/GD32VW55X_Wifi_BLE_SDK/GD32VW55x_RELEASE_V1.0.2/MSDK/wpa_supplicant/src/ap\wmm.c **** 	struct wmm_information_element *wmm;
 418              		.loc 1 164 2
 165:C:/Users/stapi/OneDrive/Desktop/GD32VW553/V1_MQTT_OK/GD32VW55X_Wifi_BLE_SDK/GD32VW55x_RELEASE_V1.0.2/MSDK/wpa_supplicant/src/ap\wmm.c **** 
 166:C:/Users/stapi/OneDrive/Desktop/GD32VW553/V1_MQTT_OK/GD32VW55X_Wifi_BLE_SDK/GD32VW55x_RELEASE_V1.0.2/MSDK/wpa_supplicant/src/ap\wmm.c **** 	wpa_hexdump(MSG_MSGDUMP, "WMM IE", eid, len);
 419              		.loc 1 166 2
 420 0008 B286     		mv	a3,a2
 163:C:/Users/stapi/OneDrive/Desktop/GD32VW553/V1_MQTT_OK/GD32VW55X_Wifi_BLE_SDK/GD32VW55x_RELEASE_V1.0.2/MSDK/wpa_supplicant/src/ap\wmm.c **** 	struct wmm_information_element *wmm;
 421              		.loc 1 163 1 is_stmt 0
 422 000a 2E84     		mv	s0,a1
 423 000c B284     		mv	s1,a2
 424              		.loc 1 166 2
 425 000e 2E86     		mv	a2,a1
 426              	.LVL32:
 427 0010 B7050000 		lui	a1,%hi(.LC0)
 428              	.LVL33:
 163:C:/Users/stapi/OneDrive/Desktop/GD32VW553/V1_MQTT_OK/GD32VW55X_Wifi_BLE_SDK/GD32VW55x_RELEASE_V1.0.2/MSDK/wpa_supplicant/src/ap\wmm.c **** 	struct wmm_information_element *wmm;
 429              		.loc 1 163 1
 430 0014 4111     		addi	sp,sp,-16
 431              		.cfi_def_cfa_offset 32
 432              		.loc 1 166 2
 433 0016 93850500 		addi	a1,a1,%lo(.LC0)
 434 001a 0545     		li	a0,1
 435              	.LVL34:
 436 001c 97000000 		call	wpa_hexdump
 436      E7800000 
 437              	.LVL35:
 167:C:/Users/stapi/OneDrive/Desktop/GD32VW553/V1_MQTT_OK/GD32VW55X_Wifi_BLE_SDK/GD32VW55x_RELEASE_V1.0.2/MSDK/wpa_supplicant/src/ap\wmm.c **** 
 168:C:/Users/stapi/OneDrive/Desktop/GD32VW553/V1_MQTT_OK/GD32VW55X_Wifi_BLE_SDK/GD32VW55x_RELEASE_V1.0.2/MSDK/wpa_supplicant/src/ap\wmm.c **** 	if (len < sizeof(struct wmm_information_element)) {
 438              		.loc 1 168 2 is_stmt 1
 439              		.loc 1 168 5 is_stmt 0
 440 0024 9947     		li	a5,6
 441 0026 63E29702 		bgtu	s1,a5,.L34
 169:C:/Users/stapi/OneDrive/Desktop/GD32VW553/V1_MQTT_OK/GD32VW55X_Wifi_BLE_SDK/GD32VW55x_RELEASE_V1.0.2/MSDK/wpa_supplicant/src/ap\wmm.c **** 		wpa_printf(MSG_DEBUG, "Too short WMM IE (len=%lu)",
 442              		.loc 1 169 3 is_stmt 1
 443 002a B7050000 		lui	a1,%hi(.LC1)
 444 002e 2686     		mv	a2,s1
 445 0030 93850500 		addi	a1,a1,%lo(.LC1)
 446 0034 0945     		li	a0,2
 447 0036 97000000 		call	wpa_printf
 447      E7800000 
 448              	.LVL36:
 170:C:/Users/stapi/OneDrive/Desktop/GD32VW553/V1_MQTT_OK/GD32VW55X_Wifi_BLE_SDK/GD32VW55x_RELEASE_V1.0.2/MSDK/wpa_supplicant/src/ap\wmm.c **** 			   (unsigned long) len);
 171:C:/Users/stapi/OneDrive/Desktop/GD32VW553/V1_MQTT_OK/GD32VW55X_Wifi_BLE_SDK/GD32VW55x_RELEASE_V1.0.2/MSDK/wpa_supplicant/src/ap\wmm.c **** 		return 0;
 449              		.loc 1 171 3
 450              	.L39:
 172:C:/Users/stapi/OneDrive/Desktop/GD32VW553/V1_MQTT_OK/GD32VW55X_Wifi_BLE_SDK/GD32VW55x_RELEASE_V1.0.2/MSDK/wpa_supplicant/src/ap\wmm.c **** 	}
 173:C:/Users/stapi/OneDrive/Desktop/GD32VW553/V1_MQTT_OK/GD32VW55X_Wifi_BLE_SDK/GD32VW55x_RELEASE_V1.0.2/MSDK/wpa_supplicant/src/ap\wmm.c **** 
 174:C:/Users/stapi/OneDrive/Desktop/GD32VW553/V1_MQTT_OK/GD32VW55X_Wifi_BLE_SDK/GD32VW55x_RELEASE_V1.0.2/MSDK/wpa_supplicant/src/ap\wmm.c **** 	wmm = (struct wmm_information_element *) eid;
 175:C:/Users/stapi/OneDrive/Desktop/GD32VW553/V1_MQTT_OK/GD32VW55X_Wifi_BLE_SDK/GD32VW55x_RELEASE_V1.0.2/MSDK/wpa_supplicant/src/ap\wmm.c **** 	wpa_printf(MSG_DEBUG, "Validating WMM IE: OUI %02x:%02x:%02x  "
 176:C:/Users/stapi/OneDrive/Desktop/GD32VW553/V1_MQTT_OK/GD32VW55X_Wifi_BLE_SDK/GD32VW55x_RELEASE_V1.0.2/MSDK/wpa_supplicant/src/ap\wmm.c **** 		   "OUI type %d  OUI sub-type %d  version %d  QoS info 0x%x",
 177:C:/Users/stapi/OneDrive/Desktop/GD32VW553/V1_MQTT_OK/GD32VW55X_Wifi_BLE_SDK/GD32VW55x_RELEASE_V1.0.2/MSDK/wpa_supplicant/src/ap\wmm.c **** 		   wmm->oui[0], wmm->oui[1], wmm->oui[2], wmm->oui_type,
 178:C:/Users/stapi/OneDrive/Desktop/GD32VW553/V1_MQTT_OK/GD32VW55X_Wifi_BLE_SDK/GD32VW55x_RELEASE_V1.0.2/MSDK/wpa_supplicant/src/ap\wmm.c **** 		   wmm->oui_subtype, wmm->version, wmm->qos_info);
 179:C:/Users/stapi/OneDrive/Desktop/GD32VW553/V1_MQTT_OK/GD32VW55X_Wifi_BLE_SDK/GD32VW55x_RELEASE_V1.0.2/MSDK/wpa_supplicant/src/ap\wmm.c **** 	if (wmm->oui_subtype != WMM_OUI_SUBTYPE_INFORMATION_ELEMENT ||
 180:C:/Users/stapi/OneDrive/Desktop/GD32VW553/V1_MQTT_OK/GD32VW55X_Wifi_BLE_SDK/GD32VW55x_RELEASE_V1.0.2/MSDK/wpa_supplicant/src/ap\wmm.c **** 	    wmm->version != WMM_VERSION) {
 181:C:/Users/stapi/OneDrive/Desktop/GD32VW553/V1_MQTT_OK/GD32VW55X_Wifi_BLE_SDK/GD32VW55x_RELEASE_V1.0.2/MSDK/wpa_supplicant/src/ap\wmm.c **** 		wpa_printf(MSG_DEBUG, "Unsupported WMM IE Subtype/Version");
 182:C:/Users/stapi/OneDrive/Desktop/GD32VW553/V1_MQTT_OK/GD32VW55X_Wifi_BLE_SDK/GD32VW55x_RELEASE_V1.0.2/MSDK/wpa_supplicant/src/ap\wmm.c **** 		return 0;
 451              		.loc 1 182 3
 452              		.loc 1 182 10 is_stmt 0
 453 003e 0145     		li	a0,0
 454              	.L33:
 183:C:/Users/stapi/OneDrive/Desktop/GD32VW553/V1_MQTT_OK/GD32VW55X_Wifi_BLE_SDK/GD32VW55x_RELEASE_V1.0.2/MSDK/wpa_supplicant/src/ap\wmm.c **** 	}
 184:C:/Users/stapi/OneDrive/Desktop/GD32VW553/V1_MQTT_OK/GD32VW55X_Wifi_BLE_SDK/GD32VW55x_RELEASE_V1.0.2/MSDK/wpa_supplicant/src/ap\wmm.c **** 
 185:C:/Users/stapi/OneDrive/Desktop/GD32VW553/V1_MQTT_OK/GD32VW55X_Wifi_BLE_SDK/GD32VW55x_RELEASE_V1.0.2/MSDK/wpa_supplicant/src/ap\wmm.c **** 	return 1;
 186:C:/Users/stapi/OneDrive/Desktop/GD32VW553/V1_MQTT_OK/GD32VW55X_Wifi_BLE_SDK/GD32VW55x_RELEASE_V1.0.2/MSDK/wpa_supplicant/src/ap\wmm.c **** }
 455              		.loc 1 186 1
 456 0040 4101     		addi	sp,sp,16
 457              		.cfi_remember_state
 458              		.cfi_def_cfa_offset 0
 459 0042 17030000 		tail	__riscv_restore_2
 459      67000300 
 460              		.cfi_restore 9
 461              		.cfi_restore 8
 462              		.cfi_restore 1
 463              		.cfi_def_cfa_offset -16
 464              	.L34:
 465              		.cfi_restore_state
 174:C:/Users/stapi/OneDrive/Desktop/GD32VW553/V1_MQTT_OK/GD32VW55X_Wifi_BLE_SDK/GD32VW55x_RELEASE_V1.0.2/MSDK/wpa_supplicant/src/ap\wmm.c **** 	wpa_printf(MSG_DEBUG, "Validating WMM IE: OUI %02x:%02x:%02x  "
 466              		.loc 1 174 2 is_stmt 1
 467              	.LVL37:
 175:C:/Users/stapi/OneDrive/Desktop/GD32VW553/V1_MQTT_OK/GD32VW55X_Wifi_BLE_SDK/GD32VW55x_RELEASE_V1.0.2/MSDK/wpa_supplicant/src/ap\wmm.c **** 		   "OUI type %d  OUI sub-type %d  version %d  QoS info 0x%x",
 468              		.loc 1 175 2
 469 004a 83476400 		lbu	a5,6(s0)
 470 004e 83485400 		lbu	a7,5(s0)
 471 0052 03484400 		lbu	a6,4(s0)
 472 0056 3EC0     		sw	a5,0(sp)
 473 0058 03472400 		lbu	a4,2(s0)
 474 005c 83473400 		lbu	a5,3(s0)
 475 0060 83461400 		lbu	a3,1(s0)
 476 0064 03460400 		lbu	a2,0(s0)
 477 0068 B7050000 		lui	a1,%hi(.LC2)
 478 006c 93850500 		addi	a1,a1,%lo(.LC2)
 479 0070 0945     		li	a0,2
 480 0072 97000000 		call	wpa_printf
 480      E7800000 
 481              	.LVL38:
 179:C:/Users/stapi/OneDrive/Desktop/GD32VW553/V1_MQTT_OK/GD32VW55X_Wifi_BLE_SDK/GD32VW55x_RELEASE_V1.0.2/MSDK/wpa_supplicant/src/ap\wmm.c **** 	    wmm->version != WMM_VERSION) {
 482              		.loc 1 179 2
 179:C:/Users/stapi/OneDrive/Desktop/GD32VW553/V1_MQTT_OK/GD32VW55X_Wifi_BLE_SDK/GD32VW55x_RELEASE_V1.0.2/MSDK/wpa_supplicant/src/ap\wmm.c **** 	    wmm->version != WMM_VERSION) {
 483              		.loc 1 179 5 is_stmt 0
 484 007a 83474400 		lbu	a5,4(s0)
 485 007e 91E7     		bne	a5,zero,.L36
 179:C:/Users/stapi/OneDrive/Desktop/GD32VW553/V1_MQTT_OK/GD32VW55X_Wifi_BLE_SDK/GD32VW55x_RELEASE_V1.0.2/MSDK/wpa_supplicant/src/ap\wmm.c **** 	    wmm->version != WMM_VERSION) {
 486              		.loc 1 179 62 discriminator 1
 487 0080 83475400 		lbu	a5,5(s0)
 185:C:/Users/stapi/OneDrive/Desktop/GD32VW553/V1_MQTT_OK/GD32VW55X_Wifi_BLE_SDK/GD32VW55x_RELEASE_V1.0.2/MSDK/wpa_supplicant/src/ap\wmm.c **** }
 488              		.loc 1 185 9 discriminator 1
 489 0084 0545     		li	a0,1
 179:C:/Users/stapi/OneDrive/Desktop/GD32VW553/V1_MQTT_OK/GD32VW55X_Wifi_BLE_SDK/GD32VW55x_RELEASE_V1.0.2/MSDK/wpa_supplicant/src/ap\wmm.c **** 	    wmm->version != WMM_VERSION) {
 490              		.loc 1 179 62 discriminator 1
 491 0086 E38DA7FA 		beq	a5,a0,.L33
 492              	.L36:
 181:C:/Users/stapi/OneDrive/Desktop/GD32VW553/V1_MQTT_OK/GD32VW55X_Wifi_BLE_SDK/GD32VW55x_RELEASE_V1.0.2/MSDK/wpa_supplicant/src/ap\wmm.c **** 		return 0;
 493              		.loc 1 181 3 is_stmt 1
 494 008a B7050000 		lui	a1,%hi(.LC3)
 495 008e 93850500 		addi	a1,a1,%lo(.LC3)
 496 0092 0945     		li	a0,2
 497 0094 97000000 		call	wpa_printf
 497      E7800000 
 498              	.LVL39:
 499 009c 4DB7     		j	.L39
 500              		.cfi_endproc
 501              	.LFE172:
 503              		.section	.rodata.wmm_process_tspec.str1.4,"aMS",@progbits,1
 504              		.align	2
 505              	.LC4:
 506 0000 20286669 		.string	" (fixed)"
 506      78656429 
 506      00
 507 0009 000000   		.align	2
 508              	.LC5:
 509 000c 00       		.string	""
 510 000d 000000   		.align	2
 511              	.LC6:
 512 0010 574D4D3A 		.string	"WMM: TS Info: UP=%d PSB=%d Direction=%d TID=%d"
 512      20545320 
 512      496E666F 
 512      3A205550 
 512      3D256420 
 513 003f 00       		.align	2
 514              	.LC7:
 515 0040 574D4D3A 		.string	"WMM: Nominal MSDU Size: %d%s"
 515      204E6F6D 
 515      696E616C 
 515      204D5344 
 515      55205369 
 516 005d 000000   		.align	2
 517              	.LC8:
 518 0060 574D4D3A 		.string	"WMM: Mean Data Rate: %u bps"
 518      204D6561 
 518      6E204461 
 518      74612052 
 518      6174653A 
 519              		.align	2
 520              	.LC9:
 521 007c 574D4D3A 		.string	"WMM: Minimum PHY Rate: %u bps"
 521      204D696E 
 521      696D756D 
 521      20504859 
 521      20526174 
 522 009a 0000     		.align	2
 523              	.LC10:
 524 009c 574D4D3A 		.string	"WMM: Surplus Bandwidth Allowance: %u.%04u"
 524      20537572 
 524      706C7573 
 524      2042616E 
 524      64776964 
 525 00c6 0000     		.align	2
 526              	.LC11:
 527 00c8 574D4D3A 		.string	"WMM: Invalid Nominal MSDU Size (0)"
 527      20496E76 
 527      616C6964 
 527      204E6F6D 
 527      696E616C 
 528 00eb 00       		.align	2
 529              	.LC12:
 530 00ec 574D4D3A 		.string	"WMM: Packets-per-second estimate for TSPEC: %d"
 530      20506163 
 530      6B657473 
 530      2D706572 
 530      2D736563 
 531 011b 00       		.align	2
 532              	.LC13:
 533 011c 574D4D3A 		.string	"WMM: Too small Minimum PHY Rate"
 533      20546F6F 
 533      20736D61 
 533      6C6C204D 
 533      696E696D 
 534              		.align	2
 535              	.LC14:
 536 013c 574D4D3A 		.string	"WMM: Surplus Bandwidth Allowance not greater than unity"
 536      20537572 
 536      706C7573 
 536      2042616E 
 536      64776964 
 537              		.align	2
 538              	.LC15:
 539 0174 574D4D3A 		.string	"WMM: Estimated medium time: %lu"
 539      20457374 
 539      696D6174 
 539      6564206D 
 539      65646975 
 540              		.align	2
 541              	.LC16:
 542 0194 574D4D3A 		.string	"WMM: Refuse TSPEC request for over 75%% of available bandwidth"
 542      20526566 
 542      75736520 
 542      54535045 
 542      43207265 
 543              		.section	.text.wmm_process_tspec,"ax",@progbits
 544              		.align	1
 545              		.globl	wmm_process_tspec
 547              	wmm_process_tspec:
 548              	.LFB174:
 187:C:/Users/stapi/OneDrive/Desktop/GD32VW553/V1_MQTT_OK/GD32VW55X_Wifi_BLE_SDK/GD32VW55x_RELEASE_V1.0.2/MSDK/wpa_supplicant/src/ap\wmm.c **** 
 188:C:/Users/stapi/OneDrive/Desktop/GD32VW553/V1_MQTT_OK/GD32VW55X_Wifi_BLE_SDK/GD32VW55x_RELEASE_V1.0.2/MSDK/wpa_supplicant/src/ap\wmm.c **** 
 189:C:/Users/stapi/OneDrive/Desktop/GD32VW553/V1_MQTT_OK/GD32VW55X_Wifi_BLE_SDK/GD32VW55x_RELEASE_V1.0.2/MSDK/wpa_supplicant/src/ap\wmm.c **** static void wmm_send_action(struct hostapd_data *hapd, const u8 *addr,
 190:C:/Users/stapi/OneDrive/Desktop/GD32VW553/V1_MQTT_OK/GD32VW55X_Wifi_BLE_SDK/GD32VW55x_RELEASE_V1.0.2/MSDK/wpa_supplicant/src/ap\wmm.c **** 			    const struct wmm_tspec_element *tspec,
 191:C:/Users/stapi/OneDrive/Desktop/GD32VW553/V1_MQTT_OK/GD32VW55X_Wifi_BLE_SDK/GD32VW55x_RELEASE_V1.0.2/MSDK/wpa_supplicant/src/ap\wmm.c **** 			    u8 action_code, u8 dialogue_token, u8 status_code)
 192:C:/Users/stapi/OneDrive/Desktop/GD32VW553/V1_MQTT_OK/GD32VW55X_Wifi_BLE_SDK/GD32VW55x_RELEASE_V1.0.2/MSDK/wpa_supplicant/src/ap\wmm.c **** {
 193:C:/Users/stapi/OneDrive/Desktop/GD32VW553/V1_MQTT_OK/GD32VW55X_Wifi_BLE_SDK/GD32VW55x_RELEASE_V1.0.2/MSDK/wpa_supplicant/src/ap\wmm.c **** 	u8 buf[256];
 194:C:/Users/stapi/OneDrive/Desktop/GD32VW553/V1_MQTT_OK/GD32VW55X_Wifi_BLE_SDK/GD32VW55x_RELEASE_V1.0.2/MSDK/wpa_supplicant/src/ap\wmm.c **** 	struct ieee80211_mgmt *m = (struct ieee80211_mgmt *) buf;
 195:C:/Users/stapi/OneDrive/Desktop/GD32VW553/V1_MQTT_OK/GD32VW55X_Wifi_BLE_SDK/GD32VW55x_RELEASE_V1.0.2/MSDK/wpa_supplicant/src/ap\wmm.c **** 	struct wmm_tspec_element *t = (struct wmm_tspec_element *)
 196:C:/Users/stapi/OneDrive/Desktop/GD32VW553/V1_MQTT_OK/GD32VW55X_Wifi_BLE_SDK/GD32VW55x_RELEASE_V1.0.2/MSDK/wpa_supplicant/src/ap\wmm.c **** 		m->u.action.u.wmm_action.variable;
 197:C:/Users/stapi/OneDrive/Desktop/GD32VW553/V1_MQTT_OK/GD32VW55X_Wifi_BLE_SDK/GD32VW55x_RELEASE_V1.0.2/MSDK/wpa_supplicant/src/ap\wmm.c **** 	int len;
 198:C:/Users/stapi/OneDrive/Desktop/GD32VW553/V1_MQTT_OK/GD32VW55X_Wifi_BLE_SDK/GD32VW55x_RELEASE_V1.0.2/MSDK/wpa_supplicant/src/ap\wmm.c **** 
 199:C:/Users/stapi/OneDrive/Desktop/GD32VW553/V1_MQTT_OK/GD32VW55X_Wifi_BLE_SDK/GD32VW55x_RELEASE_V1.0.2/MSDK/wpa_supplicant/src/ap\wmm.c **** 	hostapd_logger(hapd, addr, HOSTAPD_MODULE_IEEE80211,
 200:C:/Users/stapi/OneDrive/Desktop/GD32VW553/V1_MQTT_OK/GD32VW55X_Wifi_BLE_SDK/GD32VW55x_RELEASE_V1.0.2/MSDK/wpa_supplicant/src/ap\wmm.c **** 		       HOSTAPD_LEVEL_DEBUG,
 201:C:/Users/stapi/OneDrive/Desktop/GD32VW553/V1_MQTT_OK/GD32VW55X_Wifi_BLE_SDK/GD32VW55x_RELEASE_V1.0.2/MSDK/wpa_supplicant/src/ap\wmm.c **** 		       "action response - reason %d", status_code);
 202:C:/Users/stapi/OneDrive/Desktop/GD32VW553/V1_MQTT_OK/GD32VW55X_Wifi_BLE_SDK/GD32VW55x_RELEASE_V1.0.2/MSDK/wpa_supplicant/src/ap\wmm.c **** 	os_memset(buf, 0, sizeof(buf));
 203:C:/Users/stapi/OneDrive/Desktop/GD32VW553/V1_MQTT_OK/GD32VW55X_Wifi_BLE_SDK/GD32VW55x_RELEASE_V1.0.2/MSDK/wpa_supplicant/src/ap\wmm.c **** 	m->frame_control = IEEE80211_FC(WLAN_FC_TYPE_MGMT,
 204:C:/Users/stapi/OneDrive/Desktop/GD32VW553/V1_MQTT_OK/GD32VW55X_Wifi_BLE_SDK/GD32VW55x_RELEASE_V1.0.2/MSDK/wpa_supplicant/src/ap\wmm.c **** 					WLAN_FC_STYPE_ACTION);
 205:C:/Users/stapi/OneDrive/Desktop/GD32VW553/V1_MQTT_OK/GD32VW55X_Wifi_BLE_SDK/GD32VW55x_RELEASE_V1.0.2/MSDK/wpa_supplicant/src/ap\wmm.c **** 	os_memcpy(m->da, addr, ETH_ALEN);
 206:C:/Users/stapi/OneDrive/Desktop/GD32VW553/V1_MQTT_OK/GD32VW55X_Wifi_BLE_SDK/GD32VW55x_RELEASE_V1.0.2/MSDK/wpa_supplicant/src/ap\wmm.c **** 	os_memcpy(m->sa, hapd->own_addr, ETH_ALEN);
 207:C:/Users/stapi/OneDrive/Desktop/GD32VW553/V1_MQTT_OK/GD32VW55X_Wifi_BLE_SDK/GD32VW55x_RELEASE_V1.0.2/MSDK/wpa_supplicant/src/ap\wmm.c **** 	os_memcpy(m->bssid, hapd->own_addr, ETH_ALEN);
 208:C:/Users/stapi/OneDrive/Desktop/GD32VW553/V1_MQTT_OK/GD32VW55X_Wifi_BLE_SDK/GD32VW55x_RELEASE_V1.0.2/MSDK/wpa_supplicant/src/ap\wmm.c **** 	m->u.action.category = WLAN_ACTION_WMM;
 209:C:/Users/stapi/OneDrive/Desktop/GD32VW553/V1_MQTT_OK/GD32VW55X_Wifi_BLE_SDK/GD32VW55x_RELEASE_V1.0.2/MSDK/wpa_supplicant/src/ap\wmm.c **** 	m->u.action.u.wmm_action.action_code = action_code;
 210:C:/Users/stapi/OneDrive/Desktop/GD32VW553/V1_MQTT_OK/GD32VW55X_Wifi_BLE_SDK/GD32VW55x_RELEASE_V1.0.2/MSDK/wpa_supplicant/src/ap\wmm.c **** 	m->u.action.u.wmm_action.dialog_token = dialogue_token;
 211:C:/Users/stapi/OneDrive/Desktop/GD32VW553/V1_MQTT_OK/GD32VW55X_Wifi_BLE_SDK/GD32VW55x_RELEASE_V1.0.2/MSDK/wpa_supplicant/src/ap\wmm.c **** 	m->u.action.u.wmm_action.status_code = status_code;
 212:C:/Users/stapi/OneDrive/Desktop/GD32VW553/V1_MQTT_OK/GD32VW55X_Wifi_BLE_SDK/GD32VW55x_RELEASE_V1.0.2/MSDK/wpa_supplicant/src/ap\wmm.c **** 	os_memcpy(t, tspec, sizeof(struct wmm_tspec_element));
 213:C:/Users/stapi/OneDrive/Desktop/GD32VW553/V1_MQTT_OK/GD32VW55X_Wifi_BLE_SDK/GD32VW55x_RELEASE_V1.0.2/MSDK/wpa_supplicant/src/ap\wmm.c **** 	len = ((u8 *) (t + 1)) - buf;
 214:C:/Users/stapi/OneDrive/Desktop/GD32VW553/V1_MQTT_OK/GD32VW55X_Wifi_BLE_SDK/GD32VW55x_RELEASE_V1.0.2/MSDK/wpa_supplicant/src/ap\wmm.c **** 
 215:C:/Users/stapi/OneDrive/Desktop/GD32VW553/V1_MQTT_OK/GD32VW55X_Wifi_BLE_SDK/GD32VW55x_RELEASE_V1.0.2/MSDK/wpa_supplicant/src/ap\wmm.c **** 	if (hostapd_drv_send_mlme(hapd, m, len, 0, NULL, 0, 0) < 0)
 216:C:/Users/stapi/OneDrive/Desktop/GD32VW553/V1_MQTT_OK/GD32VW55X_Wifi_BLE_SDK/GD32VW55x_RELEASE_V1.0.2/MSDK/wpa_supplicant/src/ap\wmm.c **** 		wpa_printf(MSG_INFO, "wmm_send_action: send failed");
 217:C:/Users/stapi/OneDrive/Desktop/GD32VW553/V1_MQTT_OK/GD32VW55X_Wifi_BLE_SDK/GD32VW55x_RELEASE_V1.0.2/MSDK/wpa_supplicant/src/ap\wmm.c **** }
 218:C:/Users/stapi/OneDrive/Desktop/GD32VW553/V1_MQTT_OK/GD32VW55X_Wifi_BLE_SDK/GD32VW55x_RELEASE_V1.0.2/MSDK/wpa_supplicant/src/ap\wmm.c **** 
 219:C:/Users/stapi/OneDrive/Desktop/GD32VW553/V1_MQTT_OK/GD32VW55X_Wifi_BLE_SDK/GD32VW55x_RELEASE_V1.0.2/MSDK/wpa_supplicant/src/ap\wmm.c **** 
 220:C:/Users/stapi/OneDrive/Desktop/GD32VW553/V1_MQTT_OK/GD32VW55X_Wifi_BLE_SDK/GD32VW55x_RELEASE_V1.0.2/MSDK/wpa_supplicant/src/ap\wmm.c **** int wmm_process_tspec(struct wmm_tspec_element *tspec)
 221:C:/Users/stapi/OneDrive/Desktop/GD32VW553/V1_MQTT_OK/GD32VW55X_Wifi_BLE_SDK/GD32VW55x_RELEASE_V1.0.2/MSDK/wpa_supplicant/src/ap\wmm.c **** {
 549              		.loc 1 221 1
 550              		.cfi_startproc
 551              	.LVL40:
 552 0000 17030000 		call	t0,__riscv_save_4
 552      E7020300 
 553              		.cfi_offset 19, -20
 554              		.cfi_offset 18, -16
 555              		.cfi_offset 9, -12
 556              		.cfi_offset 8, -8
 557              		.cfi_offset 1, -4
 558              		.cfi_def_cfa_offset 32
 222:C:/Users/stapi/OneDrive/Desktop/GD32VW553/V1_MQTT_OK/GD32VW55X_Wifi_BLE_SDK/GD32VW55x_RELEASE_V1.0.2/MSDK/wpa_supplicant/src/ap\wmm.c **** 	u64 medium_time;
 559              		.loc 1 222 2
 223:C:/Users/stapi/OneDrive/Desktop/GD32VW553/V1_MQTT_OK/GD32VW55X_Wifi_BLE_SDK/GD32VW55x_RELEASE_V1.0.2/MSDK/wpa_supplicant/src/ap\wmm.c **** 	unsigned int pps, duration;
 560              		.loc 1 223 2
 224:C:/Users/stapi/OneDrive/Desktop/GD32VW553/V1_MQTT_OK/GD32VW55X_Wifi_BLE_SDK/GD32VW55x_RELEASE_V1.0.2/MSDK/wpa_supplicant/src/ap\wmm.c **** 	unsigned int up, psb, dir, tid;
 561              		.loc 1 224 2
 225:C:/Users/stapi/OneDrive/Desktop/GD32VW553/V1_MQTT_OK/GD32VW55X_Wifi_BLE_SDK/GD32VW55x_RELEASE_V1.0.2/MSDK/wpa_supplicant/src/ap\wmm.c **** 	u16 val, surplus;
 562              		.loc 1 225 2
 226:C:/Users/stapi/OneDrive/Desktop/GD32VW553/V1_MQTT_OK/GD32VW55X_Wifi_BLE_SDK/GD32VW55x_RELEASE_V1.0.2/MSDK/wpa_supplicant/src/ap\wmm.c **** 
 227:C:/Users/stapi/OneDrive/Desktop/GD32VW553/V1_MQTT_OK/GD32VW55X_Wifi_BLE_SDK/GD32VW55x_RELEASE_V1.0.2/MSDK/wpa_supplicant/src/ap\wmm.c **** 	up = (tspec->ts_info[1] >> 3) & 0x07;
 563              		.loc 1 227 2
 564              		.loc 1 227 22 is_stmt 0
 565 0008 83469500 		lbu	a3,9(a0)
 566              	.LVL41:
 228:C:/Users/stapi/OneDrive/Desktop/GD32VW553/V1_MQTT_OK/GD32VW55X_Wifi_BLE_SDK/GD32VW55x_RELEASE_V1.0.2/MSDK/wpa_supplicant/src/ap\wmm.c **** 	psb = (tspec->ts_info[1] >> 2) & 0x01;
 567              		.loc 1 228 2 is_stmt 1
 229:C:/Users/stapi/OneDrive/Desktop/GD32VW553/V1_MQTT_OK/GD32VW55X_Wifi_BLE_SDK/GD32VW55x_RELEASE_V1.0.2/MSDK/wpa_supplicant/src/ap\wmm.c **** 	dir = (tspec->ts_info[0] >> 5) & 0x03;
 568              		.loc 1 229 2
 569              		.loc 1 229 23 is_stmt 0
 570 000c 03478500 		lbu	a4,8(a0)
 571              	.LVL42:
 230:C:/Users/stapi/OneDrive/Desktop/GD32VW553/V1_MQTT_OK/GD32VW55X_Wifi_BLE_SDK/GD32VW55x_RELEASE_V1.0.2/MSDK/wpa_supplicant/src/ap\wmm.c **** 	tid = (tspec->ts_info[0] >> 1) & 0x0f;
 572              		.loc 1 230 2 is_stmt 1
 231:C:/Users/stapi/OneDrive/Desktop/GD32VW553/V1_MQTT_OK/GD32VW55X_Wifi_BLE_SDK/GD32VW55x_RELEASE_V1.0.2/MSDK/wpa_supplicant/src/ap\wmm.c **** 	wpa_printf(MSG_DEBUG, "WMM: TS Info: UP=%d PSB=%d Direction=%d TID=%d",
 573              		.loc 1 231 2
 574 0010 B7050000 		lui	a1,%hi(.LC6)
 227:C:/Users/stapi/OneDrive/Desktop/GD32VW553/V1_MQTT_OK/GD32VW55X_Wifi_BLE_SDK/GD32VW55x_RELEASE_V1.0.2/MSDK/wpa_supplicant/src/ap\wmm.c **** 	psb = (tspec->ts_info[1] >> 2) & 0x01;
 575              		.loc 1 227 32 is_stmt 0
 576 0014 13D63600 		srli	a2,a3,3
 230:C:/Users/stapi/OneDrive/Desktop/GD32VW553/V1_MQTT_OK/GD32VW55X_Wifi_BLE_SDK/GD32VW55x_RELEASE_V1.0.2/MSDK/wpa_supplicant/src/ap\wmm.c **** 	tid = (tspec->ts_info[0] >> 1) & 0x0f;
 577              		.loc 1 230 33
 578 0018 93571700 		srli	a5,a4,1
 229:C:/Users/stapi/OneDrive/Desktop/GD32VW553/V1_MQTT_OK/GD32VW55X_Wifi_BLE_SDK/GD32VW55x_RELEASE_V1.0.2/MSDK/wpa_supplicant/src/ap\wmm.c **** 	tid = (tspec->ts_info[0] >> 1) & 0x0f;
 579              		.loc 1 229 33
 580 001c 1583     		srli	a4,a4,5
 581              	.LVL43:
 221:C:/Users/stapi/OneDrive/Desktop/GD32VW553/V1_MQTT_OK/GD32VW55X_Wifi_BLE_SDK/GD32VW55x_RELEASE_V1.0.2/MSDK/wpa_supplicant/src/ap\wmm.c **** 	u64 medium_time;
 582              		.loc 1 221 1
 583 001e 2A84     		mv	s0,a0
 584              		.loc 1 231 2
 585 0020 BD8B     		andi	a5,a5,15
 586 0022 0D8B     		andi	a4,a4,3
 587 0024 1D8A     		andi	a2,a2,7
 588 0026 93850500 		addi	a1,a1,%lo(.LC6)
 589 002a 0945     		li	a0,2
 590              	.LVL44:
 591 002c 93D62648 		bexti	a3,a3,2
 592              	.LVL45:
 593 0030 97000000 		call	wpa_printf
 593      E7800000 
 594              	.LVL46:
 232:C:/Users/stapi/OneDrive/Desktop/GD32VW553/V1_MQTT_OK/GD32VW55X_Wifi_BLE_SDK/GD32VW55x_RELEASE_V1.0.2/MSDK/wpa_supplicant/src/ap\wmm.c **** 		   up, psb, dir, tid);
 233:C:/Users/stapi/OneDrive/Desktop/GD32VW553/V1_MQTT_OK/GD32VW55X_Wifi_BLE_SDK/GD32VW55x_RELEASE_V1.0.2/MSDK/wpa_supplicant/src/ap\wmm.c **** 	val = le_to_host16(tspec->nominal_msdu_size);
 595              		.loc 1 233 2 is_stmt 1
 596              		.loc 1 233 6 is_stmt 0
 597 0038 8347C400 		lbu	a5,12(s0)
 598 003c 0347B400 		lbu	a4,11(s0)
 599 0040 A207     		slli	a5,a5,8
 600 0042 D98F     		or	a5,a5,a4
 601              	.LVL47:
 234:C:/Users/stapi/OneDrive/Desktop/GD32VW553/V1_MQTT_OK/GD32VW55X_Wifi_BLE_SDK/GD32VW55x_RELEASE_V1.0.2/MSDK/wpa_supplicant/src/ap\wmm.c **** 	wpa_printf(MSG_DEBUG, "WMM: Nominal MSDU Size: %d%s",
 602              		.loc 1 234 2 is_stmt 1
 603 0044 13961701 		slli	a2,a5,17
 604 0048 4582     		srli	a2,a2,17
 605 004a 93975760 		sext.h	a5,a5
 606 004e 63CB070C 		blt	a5,zero,.L48
 607 0052 B7060000 		lui	a3,%hi(.LC5)
 608 0056 93860600 		addi	a3,a3,%lo(.LC5)
 609              	.L41:
 610              		.loc 1 234 2 is_stmt 0 discriminator 4
 611 005a B7050000 		lui	a1,%hi(.LC7)
 612 005e 93850500 		addi	a1,a1,%lo(.LC7)
 613 0062 0945     		li	a0,2
 614 0064 97000000 		call	wpa_printf
 614      E7800000 
 615              	.LVL48:
 235:C:/Users/stapi/OneDrive/Desktop/GD32VW553/V1_MQTT_OK/GD32VW55X_Wifi_BLE_SDK/GD32VW55x_RELEASE_V1.0.2/MSDK/wpa_supplicant/src/ap\wmm.c **** 		   val & 0x7fff, val & 0x8000 ? " (fixed)" : "");
 236:C:/Users/stapi/OneDrive/Desktop/GD32VW553/V1_MQTT_OK/GD32VW55X_Wifi_BLE_SDK/GD32VW55x_RELEASE_V1.0.2/MSDK/wpa_supplicant/src/ap\wmm.c **** 	wpa_printf(MSG_DEBUG, "WMM: Mean Data Rate: %u bps",
 616              		.loc 1 236 2 is_stmt 1 discriminator 4
 237:C:/Users/stapi/OneDrive/Desktop/GD32VW553/V1_MQTT_OK/GD32VW55X_Wifi_BLE_SDK/GD32VW55x_RELEASE_V1.0.2/MSDK/wpa_supplicant/src/ap\wmm.c **** 		   le_to_host32(tspec->mean_data_rate));
 617              		.loc 1 237 6 is_stmt 0 discriminator 4
 618 006c 03468402 		lbu	a2,40(s0)
 619 0070 83477402 		lbu	a5,39(s0)
 236:C:/Users/stapi/OneDrive/Desktop/GD32VW553/V1_MQTT_OK/GD32VW55X_Wifi_BLE_SDK/GD32VW55x_RELEASE_V1.0.2/MSDK/wpa_supplicant/src/ap\wmm.c **** 		   le_to_host32(tspec->mean_data_rate));
 620              		.loc 1 236 2 discriminator 4
 621 0074 B7050000 		lui	a1,%hi(.LC8)
 622              		.loc 1 237 6 discriminator 4
 623 0078 2206     		slli	a2,a2,8
 624 007a 5D8E     		or	a2,a2,a5
 625 007c 83479402 		lbu	a5,41(s0)
 236:C:/Users/stapi/OneDrive/Desktop/GD32VW553/V1_MQTT_OK/GD32VW55X_Wifi_BLE_SDK/GD32VW55x_RELEASE_V1.0.2/MSDK/wpa_supplicant/src/ap\wmm.c **** 		   le_to_host32(tspec->mean_data_rate));
 626              		.loc 1 236 2 discriminator 4
 627 0080 93850500 		addi	a1,a1,%lo(.LC8)
 628 0084 0945     		li	a0,2
 629              		.loc 1 237 6 discriminator 4
 630 0086 C207     		slli	a5,a5,16
 631 0088 D18F     		or	a5,a5,a2
 632 008a 0346A402 		lbu	a2,42(s0)
 238:C:/Users/stapi/OneDrive/Desktop/GD32VW553/V1_MQTT_OK/GD32VW55X_Wifi_BLE_SDK/GD32VW55x_RELEASE_V1.0.2/MSDK/wpa_supplicant/src/ap\wmm.c **** 	wpa_printf(MSG_DEBUG, "WMM: Minimum PHY Rate: %u bps",
 239:C:/Users/stapi/OneDrive/Desktop/GD32VW553/V1_MQTT_OK/GD32VW55X_Wifi_BLE_SDK/GD32VW55x_RELEASE_V1.0.2/MSDK/wpa_supplicant/src/ap\wmm.c **** 		   le_to_host32(tspec->minimum_phy_rate));
 240:C:/Users/stapi/OneDrive/Desktop/GD32VW553/V1_MQTT_OK/GD32VW55X_Wifi_BLE_SDK/GD32VW55x_RELEASE_V1.0.2/MSDK/wpa_supplicant/src/ap\wmm.c **** 	val = le_to_host16(tspec->surplus_bandwidth_allowance);
 241:C:/Users/stapi/OneDrive/Desktop/GD32VW553/V1_MQTT_OK/GD32VW55X_Wifi_BLE_SDK/GD32VW55x_RELEASE_V1.0.2/MSDK/wpa_supplicant/src/ap\wmm.c **** 	wpa_printf(MSG_DEBUG, "WMM: Surplus Bandwidth Allowance: %u.%04u",
 242:C:/Users/stapi/OneDrive/Desktop/GD32VW553/V1_MQTT_OK/GD32VW55X_Wifi_BLE_SDK/GD32VW55x_RELEASE_V1.0.2/MSDK/wpa_supplicant/src/ap\wmm.c **** 		   val >> 13, 10000 * (val & 0x1fff) / 0x2000);
 633              		.loc 1 242 30 discriminator 4
 634 008e 0969     		li	s2,8192
 237:C:/Users/stapi/OneDrive/Desktop/GD32VW553/V1_MQTT_OK/GD32VW55X_Wifi_BLE_SDK/GD32VW55x_RELEASE_V1.0.2/MSDK/wpa_supplicant/src/ap\wmm.c **** 	wpa_printf(MSG_DEBUG, "WMM: Minimum PHY Rate: %u bps",
 635              		.loc 1 237 6 discriminator 4
 636 0090 6206     		slli	a2,a2,24
 236:C:/Users/stapi/OneDrive/Desktop/GD32VW553/V1_MQTT_OK/GD32VW55X_Wifi_BLE_SDK/GD32VW55x_RELEASE_V1.0.2/MSDK/wpa_supplicant/src/ap\wmm.c **** 		   le_to_host32(tspec->mean_data_rate));
 637              		.loc 1 236 2 discriminator 4
 638 0092 5D8E     		or	a2,a2,a5
 639 0094 97000000 		call	wpa_printf
 639      E7800000 
 640              	.LVL49:
 238:C:/Users/stapi/OneDrive/Desktop/GD32VW553/V1_MQTT_OK/GD32VW55X_Wifi_BLE_SDK/GD32VW55x_RELEASE_V1.0.2/MSDK/wpa_supplicant/src/ap\wmm.c **** 	wpa_printf(MSG_DEBUG, "WMM: Minimum PHY Rate: %u bps",
 641              		.loc 1 238 2 is_stmt 1 discriminator 4
 239:C:/Users/stapi/OneDrive/Desktop/GD32VW553/V1_MQTT_OK/GD32VW55X_Wifi_BLE_SDK/GD32VW55x_RELEASE_V1.0.2/MSDK/wpa_supplicant/src/ap\wmm.c **** 	val = le_to_host16(tspec->surplus_bandwidth_allowance);
 642              		.loc 1 239 6 is_stmt 0 discriminator 4
 643 009c 03468403 		lbu	a2,56(s0)
 644 00a0 83477403 		lbu	a5,55(s0)
 238:C:/Users/stapi/OneDrive/Desktop/GD32VW553/V1_MQTT_OK/GD32VW55X_Wifi_BLE_SDK/GD32VW55x_RELEASE_V1.0.2/MSDK/wpa_supplicant/src/ap\wmm.c **** 	wpa_printf(MSG_DEBUG, "WMM: Minimum PHY Rate: %u bps",
 645              		.loc 1 238 2 discriminator 4
 646 00a4 B7050000 		lui	a1,%hi(.LC9)
 239:C:/Users/stapi/OneDrive/Desktop/GD32VW553/V1_MQTT_OK/GD32VW55X_Wifi_BLE_SDK/GD32VW55x_RELEASE_V1.0.2/MSDK/wpa_supplicant/src/ap\wmm.c **** 	val = le_to_host16(tspec->surplus_bandwidth_allowance);
 647              		.loc 1 239 6 discriminator 4
 648 00a8 2206     		slli	a2,a2,8
 649 00aa 5D8E     		or	a2,a2,a5
 650 00ac 83479403 		lbu	a5,57(s0)
 238:C:/Users/stapi/OneDrive/Desktop/GD32VW553/V1_MQTT_OK/GD32VW55X_Wifi_BLE_SDK/GD32VW55x_RELEASE_V1.0.2/MSDK/wpa_supplicant/src/ap\wmm.c **** 	wpa_printf(MSG_DEBUG, "WMM: Minimum PHY Rate: %u bps",
 651              		.loc 1 238 2 discriminator 4
 652 00b0 93850500 		addi	a1,a1,%lo(.LC9)
 653 00b4 0945     		li	a0,2
 239:C:/Users/stapi/OneDrive/Desktop/GD32VW553/V1_MQTT_OK/GD32VW55X_Wifi_BLE_SDK/GD32VW55x_RELEASE_V1.0.2/MSDK/wpa_supplicant/src/ap\wmm.c **** 	val = le_to_host16(tspec->surplus_bandwidth_allowance);
 654              		.loc 1 239 6 discriminator 4
 655 00b6 C207     		slli	a5,a5,16
 656 00b8 D18F     		or	a5,a5,a2
 657 00ba 0346A403 		lbu	a2,58(s0)
 658 00be 6206     		slli	a2,a2,24
 238:C:/Users/stapi/OneDrive/Desktop/GD32VW553/V1_MQTT_OK/GD32VW55X_Wifi_BLE_SDK/GD32VW55x_RELEASE_V1.0.2/MSDK/wpa_supplicant/src/ap\wmm.c **** 	wpa_printf(MSG_DEBUG, "WMM: Minimum PHY Rate: %u bps",
 659              		.loc 1 238 2 discriminator 4
 660 00c0 5D8E     		or	a2,a2,a5
 661 00c2 97000000 		call	wpa_printf
 661      E7800000 
 662              	.LVL50:
 240:C:/Users/stapi/OneDrive/Desktop/GD32VW553/V1_MQTT_OK/GD32VW55X_Wifi_BLE_SDK/GD32VW55x_RELEASE_V1.0.2/MSDK/wpa_supplicant/src/ap\wmm.c **** 	wpa_printf(MSG_DEBUG, "WMM: Surplus Bandwidth Allowance: %u.%04u",
 663              		.loc 1 240 2 is_stmt 1 discriminator 4
 240:C:/Users/stapi/OneDrive/Desktop/GD32VW553/V1_MQTT_OK/GD32VW55X_Wifi_BLE_SDK/GD32VW55x_RELEASE_V1.0.2/MSDK/wpa_supplicant/src/ap\wmm.c **** 	wpa_printf(MSG_DEBUG, "WMM: Surplus Bandwidth Allowance: %u.%04u",
 664              		.loc 1 240 6 is_stmt 0 discriminator 4
 665 00ca 0346C403 		lbu	a2,60(s0)
 666 00ce 8347B403 		lbu	a5,59(s0)
 667              		.loc 1 242 30 discriminator 4
 668 00d2 9306F9FF 		addi	a3,s2,-1
 240:C:/Users/stapi/OneDrive/Desktop/GD32VW553/V1_MQTT_OK/GD32VW55X_Wifi_BLE_SDK/GD32VW55x_RELEASE_V1.0.2/MSDK/wpa_supplicant/src/ap\wmm.c **** 	wpa_printf(MSG_DEBUG, "WMM: Surplus Bandwidth Allowance: %u.%04u",
 669              		.loc 1 240 6 discriminator 4
 670 00d6 2206     		slli	a2,a2,8
 671 00d8 5D8E     		or	a2,a2,a5
 672              	.LVL51:
 241:C:/Users/stapi/OneDrive/Desktop/GD32VW553/V1_MQTT_OK/GD32VW55X_Wifi_BLE_SDK/GD32VW55x_RELEASE_V1.0.2/MSDK/wpa_supplicant/src/ap\wmm.c **** 		   val >> 13, 10000 * (val & 0x1fff) / 0x2000);
 673              		.loc 1 241 2 is_stmt 1 discriminator 4
 674              		.loc 1 242 30 is_stmt 0 discriminator 4
 675 00da F18E     		and	a3,a2,a3
 676              		.loc 1 242 23 discriminator 4
 677 00dc 93070971 		addi	a5,s2,1808
 678 00e0 B386F602 		mul	a3,a3,a5
 241:C:/Users/stapi/OneDrive/Desktop/GD32VW553/V1_MQTT_OK/GD32VW55X_Wifi_BLE_SDK/GD32VW55x_RELEASE_V1.0.2/MSDK/wpa_supplicant/src/ap\wmm.c **** 		   val >> 13, 10000 * (val & 0x1fff) / 0x2000);
 679              		.loc 1 241 2 discriminator 4
 680 00e4 B7050000 		lui	a1,%hi(.LC10)
 681 00e8 3582     		srli	a2,a2,13
 682              	.LVL52:
 683 00ea 93850500 		addi	a1,a1,%lo(.LC10)
 684 00ee 0945     		li	a0,2
 685 00f0 B582     		srli	a3,a3,13
 686 00f2 97000000 		call	wpa_printf
 686      E7800000 
 687              	.LVL53:
 243:C:/Users/stapi/OneDrive/Desktop/GD32VW553/V1_MQTT_OK/GD32VW55X_Wifi_BLE_SDK/GD32VW55x_RELEASE_V1.0.2/MSDK/wpa_supplicant/src/ap\wmm.c **** 
 244:C:/Users/stapi/OneDrive/Desktop/GD32VW553/V1_MQTT_OK/GD32VW55X_Wifi_BLE_SDK/GD32VW55x_RELEASE_V1.0.2/MSDK/wpa_supplicant/src/ap\wmm.c **** 	val = le_to_host16(tspec->nominal_msdu_size);
 688              		.loc 1 244 2 is_stmt 1 discriminator 4
 689              		.loc 1 244 6 is_stmt 0 discriminator 4
 690 00fa 0346C400 		lbu	a2,12(s0)
 691 00fe 8344B400 		lbu	s1,11(s0)
 692 0102 2206     		slli	a2,a2,8
 693 0104 458E     		or	a2,a2,s1
 694              	.LVL54:
 245:C:/Users/stapi/OneDrive/Desktop/GD32VW553/V1_MQTT_OK/GD32VW55X_Wifi_BLE_SDK/GD32VW55x_RELEASE_V1.0.2/MSDK/wpa_supplicant/src/ap\wmm.c **** 	if (val == 0) {
 695              		.loc 1 245 2 is_stmt 1 discriminator 4
 696              		.loc 1 245 5 is_stmt 0 discriminator 4
 697 0106 05E6     		bne	a2,zero,.L42
 246:C:/Users/stapi/OneDrive/Desktop/GD32VW553/V1_MQTT_OK/GD32VW55X_Wifi_BLE_SDK/GD32VW55x_RELEASE_V1.0.2/MSDK/wpa_supplicant/src/ap\wmm.c **** 		wpa_printf(MSG_DEBUG, "WMM: Invalid Nominal MSDU Size (0)");
 698              		.loc 1 246 3 is_stmt 1
 699 0108 B7050000 		lui	a1,%hi(.LC11)
 700 010c 93850500 		addi	a1,a1,%lo(.LC11)
 701              	.LVL55:
 702              	.L51:
 247:C:/Users/stapi/OneDrive/Desktop/GD32VW553/V1_MQTT_OK/GD32VW55X_Wifi_BLE_SDK/GD32VW55x_RELEASE_V1.0.2/MSDK/wpa_supplicant/src/ap\wmm.c **** 		return WMM_ADDTS_STATUS_INVALID_PARAMETERS;
 248:C:/Users/stapi/OneDrive/Desktop/GD32VW553/V1_MQTT_OK/GD32VW55X_Wifi_BLE_SDK/GD32VW55x_RELEASE_V1.0.2/MSDK/wpa_supplicant/src/ap\wmm.c **** 	}
 249:C:/Users/stapi/OneDrive/Desktop/GD32VW553/V1_MQTT_OK/GD32VW55X_Wifi_BLE_SDK/GD32VW55x_RELEASE_V1.0.2/MSDK/wpa_supplicant/src/ap\wmm.c **** 	/* pps = Ceiling((Mean Data Rate / 8) / Nominal MSDU Size) */
 250:C:/Users/stapi/OneDrive/Desktop/GD32VW553/V1_MQTT_OK/GD32VW55X_Wifi_BLE_SDK/GD32VW55x_RELEASE_V1.0.2/MSDK/wpa_supplicant/src/ap\wmm.c **** 	pps = ((le_to_host32(tspec->mean_data_rate) / 8) + val - 1) / val;
 251:C:/Users/stapi/OneDrive/Desktop/GD32VW553/V1_MQTT_OK/GD32VW55X_Wifi_BLE_SDK/GD32VW55x_RELEASE_V1.0.2/MSDK/wpa_supplicant/src/ap\wmm.c **** 	wpa_printf(MSG_DEBUG, "WMM: Packets-per-second estimate for TSPEC: %d",
 252:C:/Users/stapi/OneDrive/Desktop/GD32VW553/V1_MQTT_OK/GD32VW55X_Wifi_BLE_SDK/GD32VW55x_RELEASE_V1.0.2/MSDK/wpa_supplicant/src/ap\wmm.c **** 		   pps);
 253:C:/Users/stapi/OneDrive/Desktop/GD32VW553/V1_MQTT_OK/GD32VW55X_Wifi_BLE_SDK/GD32VW55x_RELEASE_V1.0.2/MSDK/wpa_supplicant/src/ap\wmm.c **** 
 254:C:/Users/stapi/OneDrive/Desktop/GD32VW553/V1_MQTT_OK/GD32VW55X_Wifi_BLE_SDK/GD32VW55x_RELEASE_V1.0.2/MSDK/wpa_supplicant/src/ap\wmm.c **** 	if (le_to_host32(tspec->minimum_phy_rate) < 1000000) {
 255:C:/Users/stapi/OneDrive/Desktop/GD32VW553/V1_MQTT_OK/GD32VW55X_Wifi_BLE_SDK/GD32VW55x_RELEASE_V1.0.2/MSDK/wpa_supplicant/src/ap\wmm.c **** 		wpa_printf(MSG_DEBUG, "WMM: Too small Minimum PHY Rate");
 256:C:/Users/stapi/OneDrive/Desktop/GD32VW553/V1_MQTT_OK/GD32VW55X_Wifi_BLE_SDK/GD32VW55x_RELEASE_V1.0.2/MSDK/wpa_supplicant/src/ap\wmm.c **** 		return WMM_ADDTS_STATUS_INVALID_PARAMETERS;
 257:C:/Users/stapi/OneDrive/Desktop/GD32VW553/V1_MQTT_OK/GD32VW55X_Wifi_BLE_SDK/GD32VW55x_RELEASE_V1.0.2/MSDK/wpa_supplicant/src/ap\wmm.c **** 	}
 258:C:/Users/stapi/OneDrive/Desktop/GD32VW553/V1_MQTT_OK/GD32VW55X_Wifi_BLE_SDK/GD32VW55x_RELEASE_V1.0.2/MSDK/wpa_supplicant/src/ap\wmm.c **** 
 259:C:/Users/stapi/OneDrive/Desktop/GD32VW553/V1_MQTT_OK/GD32VW55X_Wifi_BLE_SDK/GD32VW55x_RELEASE_V1.0.2/MSDK/wpa_supplicant/src/ap\wmm.c **** 	duration = (le_to_host16(tspec->nominal_msdu_size) & 0x7fff) * 8 /
 260:C:/Users/stapi/OneDrive/Desktop/GD32VW553/V1_MQTT_OK/GD32VW55X_Wifi_BLE_SDK/GD32VW55x_RELEASE_V1.0.2/MSDK/wpa_supplicant/src/ap\wmm.c **** 		(le_to_host32(tspec->minimum_phy_rate) / 1000000) +
 261:C:/Users/stapi/OneDrive/Desktop/GD32VW553/V1_MQTT_OK/GD32VW55X_Wifi_BLE_SDK/GD32VW55x_RELEASE_V1.0.2/MSDK/wpa_supplicant/src/ap\wmm.c **** 		50 /* FIX: proper SIFS + ACK duration */;
 262:C:/Users/stapi/OneDrive/Desktop/GD32VW553/V1_MQTT_OK/GD32VW55X_Wifi_BLE_SDK/GD32VW55x_RELEASE_V1.0.2/MSDK/wpa_supplicant/src/ap\wmm.c **** 
 263:C:/Users/stapi/OneDrive/Desktop/GD32VW553/V1_MQTT_OK/GD32VW55X_Wifi_BLE_SDK/GD32VW55x_RELEASE_V1.0.2/MSDK/wpa_supplicant/src/ap\wmm.c **** 	/* unsigned binary number with an implicit binary point after the
 264:C:/Users/stapi/OneDrive/Desktop/GD32VW553/V1_MQTT_OK/GD32VW55X_Wifi_BLE_SDK/GD32VW55x_RELEASE_V1.0.2/MSDK/wpa_supplicant/src/ap\wmm.c **** 	 * leftmost 3 bits, i.e., 0x2000 = 1.0 */
 265:C:/Users/stapi/OneDrive/Desktop/GD32VW553/V1_MQTT_OK/GD32VW55X_Wifi_BLE_SDK/GD32VW55x_RELEASE_V1.0.2/MSDK/wpa_supplicant/src/ap\wmm.c **** 	surplus = le_to_host16(tspec->surplus_bandwidth_allowance);
 266:C:/Users/stapi/OneDrive/Desktop/GD32VW553/V1_MQTT_OK/GD32VW55X_Wifi_BLE_SDK/GD32VW55x_RELEASE_V1.0.2/MSDK/wpa_supplicant/src/ap\wmm.c **** 	if (surplus <= 0x2000) {
 267:C:/Users/stapi/OneDrive/Desktop/GD32VW553/V1_MQTT_OK/GD32VW55X_Wifi_BLE_SDK/GD32VW55x_RELEASE_V1.0.2/MSDK/wpa_supplicant/src/ap\wmm.c **** 		wpa_printf(MSG_DEBUG, "WMM: Surplus Bandwidth Allowance not "
 703              		.loc 1 267 3 is_stmt 0
 704 0110 0945     		li	a0,2
 705 0112 97000000 		call	wpa_printf
 705      E7800000 
 706              	.LVL56:
 268:C:/Users/stapi/OneDrive/Desktop/GD32VW553/V1_MQTT_OK/GD32VW55X_Wifi_BLE_SDK/GD32VW55x_RELEASE_V1.0.2/MSDK/wpa_supplicant/src/ap\wmm.c **** 			   "greater than unity");
 269:C:/Users/stapi/OneDrive/Desktop/GD32VW553/V1_MQTT_OK/GD32VW55X_Wifi_BLE_SDK/GD32VW55x_RELEASE_V1.0.2/MSDK/wpa_supplicant/src/ap\wmm.c **** 		return WMM_ADDTS_STATUS_INVALID_PARAMETERS;
 707              		.loc 1 269 3 is_stmt 1
 708              		.loc 1 269 10 is_stmt 0
 709 011a 0545     		li	a0,1
 710              	.L40:
 270:C:/Users/stapi/OneDrive/Desktop/GD32VW553/V1_MQTT_OK/GD32VW55X_Wifi_BLE_SDK/GD32VW55x_RELEASE_V1.0.2/MSDK/wpa_supplicant/src/ap\wmm.c **** 	}
 271:C:/Users/stapi/OneDrive/Desktop/GD32VW553/V1_MQTT_OK/GD32VW55X_Wifi_BLE_SDK/GD32VW55x_RELEASE_V1.0.2/MSDK/wpa_supplicant/src/ap\wmm.c **** 
 272:C:/Users/stapi/OneDrive/Desktop/GD32VW553/V1_MQTT_OK/GD32VW55X_Wifi_BLE_SDK/GD32VW55x_RELEASE_V1.0.2/MSDK/wpa_supplicant/src/ap\wmm.c **** 	medium_time = (u64) surplus * pps * duration / 0x2000;
 273:C:/Users/stapi/OneDrive/Desktop/GD32VW553/V1_MQTT_OK/GD32VW55X_Wifi_BLE_SDK/GD32VW55x_RELEASE_V1.0.2/MSDK/wpa_supplicant/src/ap\wmm.c **** 	wpa_printf(MSG_DEBUG, "WMM: Estimated medium time: %lu",
 274:C:/Users/stapi/OneDrive/Desktop/GD32VW553/V1_MQTT_OK/GD32VW55X_Wifi_BLE_SDK/GD32VW55x_RELEASE_V1.0.2/MSDK/wpa_supplicant/src/ap\wmm.c **** 		   (unsigned long) medium_time);
 275:C:/Users/stapi/OneDrive/Desktop/GD32VW553/V1_MQTT_OK/GD32VW55X_Wifi_BLE_SDK/GD32VW55x_RELEASE_V1.0.2/MSDK/wpa_supplicant/src/ap\wmm.c **** 
 276:C:/Users/stapi/OneDrive/Desktop/GD32VW553/V1_MQTT_OK/GD32VW55X_Wifi_BLE_SDK/GD32VW55x_RELEASE_V1.0.2/MSDK/wpa_supplicant/src/ap\wmm.c **** 	/*
 277:C:/Users/stapi/OneDrive/Desktop/GD32VW553/V1_MQTT_OK/GD32VW55X_Wifi_BLE_SDK/GD32VW55x_RELEASE_V1.0.2/MSDK/wpa_supplicant/src/ap\wmm.c **** 	 * TODO: store list of granted (and still active) TSPECs and check
 278:C:/Users/stapi/OneDrive/Desktop/GD32VW553/V1_MQTT_OK/GD32VW55X_Wifi_BLE_SDK/GD32VW55x_RELEASE_V1.0.2/MSDK/wpa_supplicant/src/ap\wmm.c **** 	 * whether there is available medium time for this request. For now,
 279:C:/Users/stapi/OneDrive/Desktop/GD32VW553/V1_MQTT_OK/GD32VW55X_Wifi_BLE_SDK/GD32VW55x_RELEASE_V1.0.2/MSDK/wpa_supplicant/src/ap\wmm.c **** 	 * just refuse requests that would by themselves take very large
 280:C:/Users/stapi/OneDrive/Desktop/GD32VW553/V1_MQTT_OK/GD32VW55X_Wifi_BLE_SDK/GD32VW55x_RELEASE_V1.0.2/MSDK/wpa_supplicant/src/ap\wmm.c **** 	 * portion of the available bandwidth.
 281:C:/Users/stapi/OneDrive/Desktop/GD32VW553/V1_MQTT_OK/GD32VW55X_Wifi_BLE_SDK/GD32VW55x_RELEASE_V1.0.2/MSDK/wpa_supplicant/src/ap\wmm.c **** 	 */
 282:C:/Users/stapi/OneDrive/Desktop/GD32VW553/V1_MQTT_OK/GD32VW55X_Wifi_BLE_SDK/GD32VW55x_RELEASE_V1.0.2/MSDK/wpa_supplicant/src/ap\wmm.c **** 	if (medium_time > 750000) {
 283:C:/Users/stapi/OneDrive/Desktop/GD32VW553/V1_MQTT_OK/GD32VW55X_Wifi_BLE_SDK/GD32VW55x_RELEASE_V1.0.2/MSDK/wpa_supplicant/src/ap\wmm.c **** 		wpa_printf(MSG_DEBUG, "WMM: Refuse TSPEC request for over "
 284:C:/Users/stapi/OneDrive/Desktop/GD32VW553/V1_MQTT_OK/GD32VW55X_Wifi_BLE_SDK/GD32VW55x_RELEASE_V1.0.2/MSDK/wpa_supplicant/src/ap\wmm.c **** 			   "75%% of available bandwidth");
 285:C:/Users/stapi/OneDrive/Desktop/GD32VW553/V1_MQTT_OK/GD32VW55X_Wifi_BLE_SDK/GD32VW55x_RELEASE_V1.0.2/MSDK/wpa_supplicant/src/ap\wmm.c **** 		return WMM_ADDTS_STATUS_REFUSED;
 286:C:/Users/stapi/OneDrive/Desktop/GD32VW553/V1_MQTT_OK/GD32VW55X_Wifi_BLE_SDK/GD32VW55x_RELEASE_V1.0.2/MSDK/wpa_supplicant/src/ap\wmm.c **** 	}
 287:C:/Users/stapi/OneDrive/Desktop/GD32VW553/V1_MQTT_OK/GD32VW55X_Wifi_BLE_SDK/GD32VW55x_RELEASE_V1.0.2/MSDK/wpa_supplicant/src/ap\wmm.c **** 
 288:C:/Users/stapi/OneDrive/Desktop/GD32VW553/V1_MQTT_OK/GD32VW55X_Wifi_BLE_SDK/GD32VW55x_RELEASE_V1.0.2/MSDK/wpa_supplicant/src/ap\wmm.c **** 	/* Convert to 32 microseconds per second unit */
 289:C:/Users/stapi/OneDrive/Desktop/GD32VW553/V1_MQTT_OK/GD32VW55X_Wifi_BLE_SDK/GD32VW55x_RELEASE_V1.0.2/MSDK/wpa_supplicant/src/ap\wmm.c **** 	tspec->medium_time = host_to_le16(medium_time / 32);
 290:C:/Users/stapi/OneDrive/Desktop/GD32VW553/V1_MQTT_OK/GD32VW55X_Wifi_BLE_SDK/GD32VW55x_RELEASE_V1.0.2/MSDK/wpa_supplicant/src/ap\wmm.c **** 
 291:C:/Users/stapi/OneDrive/Desktop/GD32VW553/V1_MQTT_OK/GD32VW55X_Wifi_BLE_SDK/GD32VW55x_RELEASE_V1.0.2/MSDK/wpa_supplicant/src/ap\wmm.c **** 	return WMM_ADDTS_STATUS_ADMISSION_ACCEPTED;
 292:C:/Users/stapi/OneDrive/Desktop/GD32VW553/V1_MQTT_OK/GD32VW55X_Wifi_BLE_SDK/GD32VW55x_RELEASE_V1.0.2/MSDK/wpa_supplicant/src/ap\wmm.c **** }
 711              		.loc 1 292 1
 712 011c 17030000 		tail	__riscv_restore_4
 712      67000300 
 713              		.cfi_remember_state
 714              		.cfi_restore 19
 715              		.cfi_restore 18
 716              		.cfi_restore 9
 717              		.cfi_restore 8
 718              		.cfi_restore 1
 719              		.cfi_def_cfa_offset 0
 720              	.LVL57:
 721              	.L48:
 722              		.cfi_restore_state
 234:C:/Users/stapi/OneDrive/Desktop/GD32VW553/V1_MQTT_OK/GD32VW55X_Wifi_BLE_SDK/GD32VW55x_RELEASE_V1.0.2/MSDK/wpa_supplicant/src/ap\wmm.c **** 		   val & 0x7fff, val & 0x8000 ? " (fixed)" : "");
 723              		.loc 1 234 2
 724 0124 B7060000 		lui	a3,%hi(.LC4)
 725 0128 93860600 		addi	a3,a3,%lo(.LC4)
 726 012c 3DB7     		j	.L41
 727              	.LVL58:
 728              	.L42:
 250:C:/Users/stapi/OneDrive/Desktop/GD32VW553/V1_MQTT_OK/GD32VW55X_Wifi_BLE_SDK/GD32VW55x_RELEASE_V1.0.2/MSDK/wpa_supplicant/src/ap\wmm.c **** 	wpa_printf(MSG_DEBUG, "WMM: Packets-per-second estimate for TSPEC: %d",
 729              		.loc 1 250 2 is_stmt 1
 250:C:/Users/stapi/OneDrive/Desktop/GD32VW553/V1_MQTT_OK/GD32VW55X_Wifi_BLE_SDK/GD32VW55x_RELEASE_V1.0.2/MSDK/wpa_supplicant/src/ap\wmm.c **** 	wpa_printf(MSG_DEBUG, "WMM: Packets-per-second estimate for TSPEC: %d",
 730              		.loc 1 250 10 is_stmt 0
 731 012e 83478402 		lbu	a5,40(s0)
 732 0132 83447402 		lbu	s1,39(s0)
 251:C:/Users/stapi/OneDrive/Desktop/GD32VW553/V1_MQTT_OK/GD32VW55X_Wifi_BLE_SDK/GD32VW55x_RELEASE_V1.0.2/MSDK/wpa_supplicant/src/ap\wmm.c **** 		   pps);
 733              		.loc 1 251 2
 734 0136 B7050000 		lui	a1,%hi(.LC12)
 250:C:/Users/stapi/OneDrive/Desktop/GD32VW553/V1_MQTT_OK/GD32VW55X_Wifi_BLE_SDK/GD32VW55x_RELEASE_V1.0.2/MSDK/wpa_supplicant/src/ap\wmm.c **** 	wpa_printf(MSG_DEBUG, "WMM: Packets-per-second estimate for TSPEC: %d",
 735              		.loc 1 250 10
 736 013a A207     		slli	a5,a5,8
 737 013c C58F     		or	a5,a5,s1
 738 013e 83449402 		lbu	s1,41(s0)
 251:C:/Users/stapi/OneDrive/Desktop/GD32VW553/V1_MQTT_OK/GD32VW55X_Wifi_BLE_SDK/GD32VW55x_RELEASE_V1.0.2/MSDK/wpa_supplicant/src/ap\wmm.c **** 		   pps);
 739              		.loc 1 251 2
 740 0142 93850500 		addi	a1,a1,%lo(.LC12)
 741 0146 0945     		li	a0,2
 250:C:/Users/stapi/OneDrive/Desktop/GD32VW553/V1_MQTT_OK/GD32VW55X_Wifi_BLE_SDK/GD32VW55x_RELEASE_V1.0.2/MSDK/wpa_supplicant/src/ap\wmm.c **** 	wpa_printf(MSG_DEBUG, "WMM: Packets-per-second estimate for TSPEC: %d",
 742              		.loc 1 250 10
 743 0148 C204     		slli	s1,s1,16
 744 014a C58F     		or	a5,s1,a5
 745 014c 8344A402 		lbu	s1,42(s0)
 746 0150 E204     		slli	s1,s1,24
 747 0152 DD8C     		or	s1,s1,a5
 250:C:/Users/stapi/OneDrive/Desktop/GD32VW553/V1_MQTT_OK/GD32VW55X_Wifi_BLE_SDK/GD32VW55x_RELEASE_V1.0.2/MSDK/wpa_supplicant/src/ap\wmm.c **** 	wpa_printf(MSG_DEBUG, "WMM: Packets-per-second estimate for TSPEC: %d",
 748              		.loc 1 250 46
 749 0154 8D80     		srli	s1,s1,3
 250:C:/Users/stapi/OneDrive/Desktop/GD32VW553/V1_MQTT_OK/GD32VW55X_Wifi_BLE_SDK/GD32VW55x_RELEASE_V1.0.2/MSDK/wpa_supplicant/src/ap\wmm.c **** 	wpa_printf(MSG_DEBUG, "WMM: Packets-per-second estimate for TSPEC: %d",
 750              		.loc 1 250 51
 751 0156 B294     		add	s1,s1,a2
 250:C:/Users/stapi/OneDrive/Desktop/GD32VW553/V1_MQTT_OK/GD32VW55X_Wifi_BLE_SDK/GD32VW55x_RELEASE_V1.0.2/MSDK/wpa_supplicant/src/ap\wmm.c **** 	wpa_printf(MSG_DEBUG, "WMM: Packets-per-second estimate for TSPEC: %d",
 752              		.loc 1 250 57
 753 0158 FD14     		addi	s1,s1,-1
 250:C:/Users/stapi/OneDrive/Desktop/GD32VW553/V1_MQTT_OK/GD32VW55X_Wifi_BLE_SDK/GD32VW55x_RELEASE_V1.0.2/MSDK/wpa_supplicant/src/ap\wmm.c **** 	wpa_printf(MSG_DEBUG, "WMM: Packets-per-second estimate for TSPEC: %d",
 754              		.loc 1 250 6
 755 015a B3D4C402 		divu	s1,s1,a2
 756              	.LVL59:
 251:C:/Users/stapi/OneDrive/Desktop/GD32VW553/V1_MQTT_OK/GD32VW55X_Wifi_BLE_SDK/GD32VW55x_RELEASE_V1.0.2/MSDK/wpa_supplicant/src/ap\wmm.c **** 		   pps);
 757              		.loc 1 251 2 is_stmt 1
 758 015e 2686     		mv	a2,s1
 759              	.LVL60:
 760 0160 97000000 		call	wpa_printf
 760      E7800000 
 761              	.LVL61:
 254:C:/Users/stapi/OneDrive/Desktop/GD32VW553/V1_MQTT_OK/GD32VW55X_Wifi_BLE_SDK/GD32VW55x_RELEASE_V1.0.2/MSDK/wpa_supplicant/src/ap\wmm.c **** 		wpa_printf(MSG_DEBUG, "WMM: Too small Minimum PHY Rate");
 762              		.loc 1 254 2
 254:C:/Users/stapi/OneDrive/Desktop/GD32VW553/V1_MQTT_OK/GD32VW55X_Wifi_BLE_SDK/GD32VW55x_RELEASE_V1.0.2/MSDK/wpa_supplicant/src/ap\wmm.c **** 		wpa_printf(MSG_DEBUG, "WMM: Too small Minimum PHY Rate");
 763              		.loc 1 254 6 is_stmt 0
 764 0168 83478403 		lbu	a5,56(s0)
 765 016c 83467403 		lbu	a3,55(s0)
 254:C:/Users/stapi/OneDrive/Desktop/GD32VW553/V1_MQTT_OK/GD32VW55X_Wifi_BLE_SDK/GD32VW55x_RELEASE_V1.0.2/MSDK/wpa_supplicant/src/ap\wmm.c **** 		wpa_printf(MSG_DEBUG, "WMM: Too small Minimum PHY Rate");
 766              		.loc 1 254 5
 767 0170 37460F00 		li	a2,999424
 254:C:/Users/stapi/OneDrive/Desktop/GD32VW553/V1_MQTT_OK/GD32VW55X_Wifi_BLE_SDK/GD32VW55x_RELEASE_V1.0.2/MSDK/wpa_supplicant/src/ap\wmm.c **** 		wpa_printf(MSG_DEBUG, "WMM: Too small Minimum PHY Rate");
 768              		.loc 1 254 6
 769 0174 A207     		slli	a5,a5,8
 770 0176 D58F     		or	a5,a5,a3
 771 0178 83469403 		lbu	a3,57(s0)
 772 017c C206     		slli	a3,a3,16
 773 017e D58F     		or	a5,a3,a5
 774 0180 8346A403 		lbu	a3,58(s0)
 775 0184 E206     		slli	a3,a3,24
 776 0186 DD8E     		or	a3,a3,a5
 254:C:/Users/stapi/OneDrive/Desktop/GD32VW553/V1_MQTT_OK/GD32VW55X_Wifi_BLE_SDK/GD32VW55x_RELEASE_V1.0.2/MSDK/wpa_supplicant/src/ap\wmm.c **** 		wpa_printf(MSG_DEBUG, "WMM: Too small Minimum PHY Rate");
 777              		.loc 1 254 5
 778 0188 9307F623 		addi	a5,a2,575
 779 018c 63E7D700 		bgtu	a3,a5,.L44
 255:C:/Users/stapi/OneDrive/Desktop/GD32VW553/V1_MQTT_OK/GD32VW55X_Wifi_BLE_SDK/GD32VW55x_RELEASE_V1.0.2/MSDK/wpa_supplicant/src/ap\wmm.c **** 		return WMM_ADDTS_STATUS_INVALID_PARAMETERS;
 780              		.loc 1 255 3 is_stmt 1
 781 0190 B7050000 		lui	a1,%hi(.LC13)
 782 0194 93850500 		addi	a1,a1,%lo(.LC13)
 783 0198 A5BF     		j	.L51
 784              	.L44:
 259:C:/Users/stapi/OneDrive/Desktop/GD32VW553/V1_MQTT_OK/GD32VW55X_Wifi_BLE_SDK/GD32VW55x_RELEASE_V1.0.2/MSDK/wpa_supplicant/src/ap\wmm.c **** 		(le_to_host32(tspec->minimum_phy_rate) / 1000000) +
 785              		.loc 1 259 2
 786              	.LVL62:
 265:C:/Users/stapi/OneDrive/Desktop/GD32VW553/V1_MQTT_OK/GD32VW55X_Wifi_BLE_SDK/GD32VW55x_RELEASE_V1.0.2/MSDK/wpa_supplicant/src/ap\wmm.c **** 	if (surplus <= 0x2000) {
 787              		.loc 1 265 2
 265:C:/Users/stapi/OneDrive/Desktop/GD32VW553/V1_MQTT_OK/GD32VW55X_Wifi_BLE_SDK/GD32VW55x_RELEASE_V1.0.2/MSDK/wpa_supplicant/src/ap\wmm.c **** 	if (surplus <= 0x2000) {
 788              		.loc 1 265 10 is_stmt 0
 789 019a 0347C403 		lbu	a4,60(s0)
 790 019e 8347B403 		lbu	a5,59(s0)
 791 01a2 2207     		slli	a4,a4,8
 792 01a4 5D8F     		or	a4,a4,a5
 793              	.LVL63:
 266:C:/Users/stapi/OneDrive/Desktop/GD32VW553/V1_MQTT_OK/GD32VW55X_Wifi_BLE_SDK/GD32VW55x_RELEASE_V1.0.2/MSDK/wpa_supplicant/src/ap\wmm.c **** 		wpa_printf(MSG_DEBUG, "WMM: Surplus Bandwidth Allowance not "
 794              		.loc 1 266 2 is_stmt 1
 266:C:/Users/stapi/OneDrive/Desktop/GD32VW553/V1_MQTT_OK/GD32VW55X_Wifi_BLE_SDK/GD32VW55x_RELEASE_V1.0.2/MSDK/wpa_supplicant/src/ap\wmm.c **** 		wpa_printf(MSG_DEBUG, "WMM: Surplus Bandwidth Allowance not "
 795              		.loc 1 266 5 is_stmt 0
 796 01a6 6367E900 		bgtu	a4,s2,.L45
 267:C:/Users/stapi/OneDrive/Desktop/GD32VW553/V1_MQTT_OK/GD32VW55X_Wifi_BLE_SDK/GD32VW55x_RELEASE_V1.0.2/MSDK/wpa_supplicant/src/ap\wmm.c **** 			   "greater than unity");
 797              		.loc 1 267 3 is_stmt 1
 798 01aa B7050000 		lui	a1,%hi(.LC14)
 799 01ae 93850500 		addi	a1,a1,%lo(.LC14)
 800 01b2 B9BF     		j	.L51
 801              	.L45:
 272:C:/Users/stapi/OneDrive/Desktop/GD32VW553/V1_MQTT_OK/GD32VW55X_Wifi_BLE_SDK/GD32VW55x_RELEASE_V1.0.2/MSDK/wpa_supplicant/src/ap\wmm.c **** 	wpa_printf(MSG_DEBUG, "WMM: Estimated medium time: %lu",
 802              		.loc 1 272 2
 260:C:/Users/stapi/OneDrive/Desktop/GD32VW553/V1_MQTT_OK/GD32VW55X_Wifi_BLE_SDK/GD32VW55x_RELEASE_V1.0.2/MSDK/wpa_supplicant/src/ap\wmm.c **** 		50 /* FIX: proper SIFS + ACK duration */;
 803              		.loc 1 260 42 is_stmt 0
 804 01b4 13060624 		addi	a2,a2,576
 805 01b8 B3D6C602 		divu	a3,a3,a2
 806              	.LVL64:
 259:C:/Users/stapi/OneDrive/Desktop/GD32VW553/V1_MQTT_OK/GD32VW55X_Wifi_BLE_SDK/GD32VW55x_RELEASE_V1.0.2/MSDK/wpa_supplicant/src/ap\wmm.c **** 		(le_to_host32(tspec->minimum_phy_rate) / 1000000) +
 807              		.loc 1 259 14
 808 01bc 8347C400 		lbu	a5,12(s0)
 809 01c0 8345B400 		lbu	a1,11(s0)
 273:C:/Users/stapi/OneDrive/Desktop/GD32VW553/V1_MQTT_OK/GD32VW55X_Wifi_BLE_SDK/GD32VW55x_RELEASE_V1.0.2/MSDK/wpa_supplicant/src/ap\wmm.c **** 		   (unsigned long) medium_time);
 810              		.loc 1 273 2
 811 01c4 0945     		li	a0,2
 259:C:/Users/stapi/OneDrive/Desktop/GD32VW553/V1_MQTT_OK/GD32VW55X_Wifi_BLE_SDK/GD32VW55x_RELEASE_V1.0.2/MSDK/wpa_supplicant/src/ap\wmm.c **** 		(le_to_host32(tspec->minimum_phy_rate) / 1000000) +
 812              		.loc 1 259 14
 813 01c6 A207     		slli	a5,a5,8
 814 01c8 CD8F     		or	a5,a5,a1
 259:C:/Users/stapi/OneDrive/Desktop/GD32VW553/V1_MQTT_OK/GD32VW55X_Wifi_BLE_SDK/GD32VW55x_RELEASE_V1.0.2/MSDK/wpa_supplicant/src/ap\wmm.c **** 		(le_to_host32(tspec->minimum_phy_rate) / 1000000) +
 815              		.loc 1 259 53
 816 01ca C607     		slli	a5,a5,17
 259:C:/Users/stapi/OneDrive/Desktop/GD32VW553/V1_MQTT_OK/GD32VW55X_Wifi_BLE_SDK/GD32VW55x_RELEASE_V1.0.2/MSDK/wpa_supplicant/src/ap\wmm.c **** 		(le_to_host32(tspec->minimum_phy_rate) / 1000000) +
 817              		.loc 1 259 63
 818 01cc B983     		srli	a5,a5,14
 273:C:/Users/stapi/OneDrive/Desktop/GD32VW553/V1_MQTT_OK/GD32VW55X_Wifi_BLE_SDK/GD32VW55x_RELEASE_V1.0.2/MSDK/wpa_supplicant/src/ap\wmm.c **** 		   (unsigned long) medium_time);
 819              		.loc 1 273 2
 820 01ce B7050000 		lui	a1,%hi(.LC15)
 821 01d2 93850500 		addi	a1,a1,%lo(.LC15)
 259:C:/Users/stapi/OneDrive/Desktop/GD32VW553/V1_MQTT_OK/GD32VW55X_Wifi_BLE_SDK/GD32VW55x_RELEASE_V1.0.2/MSDK/wpa_supplicant/src/ap\wmm.c **** 		(le_to_host32(tspec->minimum_phy_rate) / 1000000) +
 822              		.loc 1 259 67
 823 01d6 B3D7D702 		divu	a5,a5,a3
 272:C:/Users/stapi/OneDrive/Desktop/GD32VW553/V1_MQTT_OK/GD32VW55X_Wifi_BLE_SDK/GD32VW55x_RELEASE_V1.0.2/MSDK/wpa_supplicant/src/ap\wmm.c **** 	wpa_printf(MSG_DEBUG, "WMM: Estimated medium time: %lu",
 824              		.loc 1 272 30
 825 01da 7F1697F0 		mulr64	a2, a4, s1
 259:C:/Users/stapi/OneDrive/Desktop/GD32VW553/V1_MQTT_OK/GD32VW55X_Wifi_BLE_SDK/GD32VW55x_RELEASE_V1.0.2/MSDK/wpa_supplicant/src/ap\wmm.c **** 		(le_to_host32(tspec->minimum_phy_rate) / 1000000) +
 826              		.loc 1 259 11
 827 01de 93872703 		addi	a5,a5,50
 272:C:/Users/stapi/OneDrive/Desktop/GD32VW553/V1_MQTT_OK/GD32VW55X_Wifi_BLE_SDK/GD32VW55x_RELEASE_V1.0.2/MSDK/wpa_supplicant/src/ap\wmm.c **** 	wpa_printf(MSG_DEBUG, "WMM: Estimated medium time: %lu",
 828              		.loc 1 272 36
 829 01e2 7F99C7F0 		mulr64	s2, a5, a2
 830 01e6 CE84     		mv	s1,s3
 831              	.LVL65:
 832 01e8 FF94D7C4 		maddr32	s1, a5, a3
 272:C:/Users/stapi/OneDrive/Desktop/GD32VW553/V1_MQTT_OK/GD32VW55X_Wifi_BLE_SDK/GD32VW55x_RELEASE_V1.0.2/MSDK/wpa_supplicant/src/ap\wmm.c **** 	wpa_printf(MSG_DEBUG, "WMM: Estimated medium time: %lu",
 833              		.loc 1 272 14
 834 01ec 9357D900 		srli	a5,s2,13
 835 01f0 13963401 		slli	a2,s1,19
 273:C:/Users/stapi/OneDrive/Desktop/GD32VW553/V1_MQTT_OK/GD32VW55X_Wifi_BLE_SDK/GD32VW55x_RELEASE_V1.0.2/MSDK/wpa_supplicant/src/ap\wmm.c **** 		   (unsigned long) medium_time);
 836              		.loc 1 273 2
 837 01f4 5D8E     		or	a2,a2,a5
 838 01f6 97000000 		call	wpa_printf
 838      E7800000 
 839              	.LVL66:
 282:C:/Users/stapi/OneDrive/Desktop/GD32VW553/V1_MQTT_OK/GD32VW55X_Wifi_BLE_SDK/GD32VW55x_RELEASE_V1.0.2/MSDK/wpa_supplicant/src/ap\wmm.c **** 		wpa_printf(MSG_DEBUG, "WMM: Refuse TSPEC request for over "
 840              		.loc 1 282 5
 841 01fe 8547     		li	a5,1
 272:C:/Users/stapi/OneDrive/Desktop/GD32VW553/V1_MQTT_OK/GD32VW55X_Wifi_BLE_SDK/GD32VW55x_RELEASE_V1.0.2/MSDK/wpa_supplicant/src/ap\wmm.c **** 	wpa_printf(MSG_DEBUG, "WMM: Estimated medium time: %lu",
 842              		.loc 1 272 36
 843 0200 A689     		mv	s3,s1
 844              	.LVL67:
 273:C:/Users/stapi/OneDrive/Desktop/GD32VW553/V1_MQTT_OK/GD32VW55X_Wifi_BLE_SDK/GD32VW55x_RELEASE_V1.0.2/MSDK/wpa_supplicant/src/ap\wmm.c **** 		   (unsigned long) medium_time);
 845              		.loc 1 273 2 is_stmt 1
 282:C:/Users/stapi/OneDrive/Desktop/GD32VW553/V1_MQTT_OK/GD32VW55X_Wifi_BLE_SDK/GD32VW55x_RELEASE_V1.0.2/MSDK/wpa_supplicant/src/ap\wmm.c **** 		wpa_printf(MSG_DEBUG, "WMM: Refuse TSPEC request for over "
 846              		.loc 1 282 2
 282:C:/Users/stapi/OneDrive/Desktop/GD32VW553/V1_MQTT_OK/GD32VW55X_Wifi_BLE_SDK/GD32VW55x_RELEASE_V1.0.2/MSDK/wpa_supplicant/src/ap\wmm.c **** 		wpa_printf(MSG_DEBUG, "WMM: Refuse TSPEC request for over "
 847              		.loc 1 282 5 is_stmt 0
 848 0202 63E89700 		bgtu	s1,a5,.L49
 849 0206 6391F402 		bne	s1,a5,.L46
 850 020a B727366E 		li	a5,1849040896
 851 020e 636DF900 		bgtu	a5,s2,.L46
 852              	.L49:
 283:C:/Users/stapi/OneDrive/Desktop/GD32VW553/V1_MQTT_OK/GD32VW55X_Wifi_BLE_SDK/GD32VW55x_RELEASE_V1.0.2/MSDK/wpa_supplicant/src/ap\wmm.c **** 			   "75%% of available bandwidth");
 853              		.loc 1 283 3 is_stmt 1
 854 0212 B7050000 		lui	a1,%hi(.LC16)
 855 0216 0945     		li	a0,2
 856 0218 93850500 		addi	a1,a1,%lo(.LC16)
 857 021c 97000000 		call	wpa_printf
 857      E7800000 
 858              	.LVL68:
 285:C:/Users/stapi/OneDrive/Desktop/GD32VW553/V1_MQTT_OK/GD32VW55X_Wifi_BLE_SDK/GD32VW55x_RELEASE_V1.0.2/MSDK/wpa_supplicant/src/ap\wmm.c **** 	}
 859              		.loc 1 285 3
 285:C:/Users/stapi/OneDrive/Desktop/GD32VW553/V1_MQTT_OK/GD32VW55X_Wifi_BLE_SDK/GD32VW55x_RELEASE_V1.0.2/MSDK/wpa_supplicant/src/ap\wmm.c **** 	}
 860              		.loc 1 285 10 is_stmt 0
 861 0224 0D45     		li	a0,3
 862 0226 DDBD     		j	.L40
 863              	.L46:
 289:C:/Users/stapi/OneDrive/Desktop/GD32VW553/V1_MQTT_OK/GD32VW55X_Wifi_BLE_SDK/GD32VW55x_RELEASE_V1.0.2/MSDK/wpa_supplicant/src/ap\wmm.c **** 
 864              		.loc 1 289 2 is_stmt 1
 289:C:/Users/stapi/OneDrive/Desktop/GD32VW553/V1_MQTT_OK/GD32VW55X_Wifi_BLE_SDK/GD32VW55x_RELEASE_V1.0.2/MSDK/wpa_supplicant/src/ap\wmm.c **** 
 865              		.loc 1 289 23 is_stmt 0
 866 0228 1397E900 		slli	a4,s3,14
 867 022c 93572901 		srli	a5,s2,18
 868 0230 D98F     		or	a5,a4,a5
 289:C:/Users/stapi/OneDrive/Desktop/GD32VW553/V1_MQTT_OK/GD32VW55X_Wifi_BLE_SDK/GD32VW55x_RELEASE_V1.0.2/MSDK/wpa_supplicant/src/ap\wmm.c **** 
 869              		.loc 1 289 21
 870 0232 A30EF402 		sb	a5,61(s0)
 871 0236 33C70708 		zext.h	a4,a5
 872 023a 93578700 		srli	a5,a4,8
 873 023e 230FF402 		sb	a5,62(s0)
 291:C:/Users/stapi/OneDrive/Desktop/GD32VW553/V1_MQTT_OK/GD32VW55X_Wifi_BLE_SDK/GD32VW55x_RELEASE_V1.0.2/MSDK/wpa_supplicant/src/ap\wmm.c **** }
 874              		.loc 1 291 2 is_stmt 1
 291:C:/Users/stapi/OneDrive/Desktop/GD32VW553/V1_MQTT_OK/GD32VW55X_Wifi_BLE_SDK/GD32VW55x_RELEASE_V1.0.2/MSDK/wpa_supplicant/src/ap\wmm.c **** }
 875              		.loc 1 291 9 is_stmt 0
 876 0242 0145     		li	a0,0
 877 0244 E1BD     		j	.L40
 878              		.cfi_endproc
 879              	.LFE174:
 881              		.section	.rodata.hostapd_wmm_action.str1.4,"aMS",@progbits,1
 882              		.align	2
 883              	.LC17:
 884 0000 574D4D3A 		.string	"WMM: TSPEC overflow in ADDTS Request"
 884      20545350 
 884      4543206F 
 884      76657266 
 884      6C6F7720 
 885 0025 000000   		.align	2
 886              	.LC18:
 887 0028 574D4D3A 		.string	"WMM: ADDTS Request (Dialog Token %d) for TSPEC from %02x:%02x:%02x:%02x:%02x:%02x"
 887      20414444 
 887      54532052 
 887      65717565 
 887      73742028 
 888 007a 0000     		.align	2
 889              	.LC19:
 890 007c 574D4D3A 		.string	"WMM: ADDTS processing result: %d"
 890      20414444 
 890      54532070 
 890      726F6365 
 890      7373696E 
 891 009d 000000   		.align	2
 892              	.LC20:
 893 00a0 776D6D5F 		.string	"wmm_send_action: send failed"
 893      73656E64 
 893      5F616374 
 893      696F6E3A 
 893      2073656E 
 894              		.section	.text.hostapd_wmm_action,"ax",@progbits
 895              		.align	1
 896              		.globl	hostapd_wmm_action
 898              	hostapd_wmm_action:
 899              	.LFB176:
 293:C:/Users/stapi/OneDrive/Desktop/GD32VW553/V1_MQTT_OK/GD32VW55X_Wifi_BLE_SDK/GD32VW55x_RELEASE_V1.0.2/MSDK/wpa_supplicant/src/ap\wmm.c **** 
 294:C:/Users/stapi/OneDrive/Desktop/GD32VW553/V1_MQTT_OK/GD32VW55X_Wifi_BLE_SDK/GD32VW55x_RELEASE_V1.0.2/MSDK/wpa_supplicant/src/ap\wmm.c **** 
 295:C:/Users/stapi/OneDrive/Desktop/GD32VW553/V1_MQTT_OK/GD32VW55X_Wifi_BLE_SDK/GD32VW55x_RELEASE_V1.0.2/MSDK/wpa_supplicant/src/ap\wmm.c **** static void wmm_addts_req(struct hostapd_data *hapd,
 296:C:/Users/stapi/OneDrive/Desktop/GD32VW553/V1_MQTT_OK/GD32VW55X_Wifi_BLE_SDK/GD32VW55x_RELEASE_V1.0.2/MSDK/wpa_supplicant/src/ap\wmm.c **** 			  const struct ieee80211_mgmt *mgmt,
 297:C:/Users/stapi/OneDrive/Desktop/GD32VW553/V1_MQTT_OK/GD32VW55X_Wifi_BLE_SDK/GD32VW55x_RELEASE_V1.0.2/MSDK/wpa_supplicant/src/ap\wmm.c **** 			  const struct wmm_tspec_element *tspec, size_t len)
 298:C:/Users/stapi/OneDrive/Desktop/GD32VW553/V1_MQTT_OK/GD32VW55X_Wifi_BLE_SDK/GD32VW55x_RELEASE_V1.0.2/MSDK/wpa_supplicant/src/ap\wmm.c **** {
 299:C:/Users/stapi/OneDrive/Desktop/GD32VW553/V1_MQTT_OK/GD32VW55X_Wifi_BLE_SDK/GD32VW55x_RELEASE_V1.0.2/MSDK/wpa_supplicant/src/ap\wmm.c **** 	const u8 *end = ((const u8 *) mgmt) + len;
 300:C:/Users/stapi/OneDrive/Desktop/GD32VW553/V1_MQTT_OK/GD32VW55X_Wifi_BLE_SDK/GD32VW55x_RELEASE_V1.0.2/MSDK/wpa_supplicant/src/ap\wmm.c **** 	int res;
 301:C:/Users/stapi/OneDrive/Desktop/GD32VW553/V1_MQTT_OK/GD32VW55X_Wifi_BLE_SDK/GD32VW55x_RELEASE_V1.0.2/MSDK/wpa_supplicant/src/ap\wmm.c **** 	struct wmm_tspec_element tspec_resp;
 302:C:/Users/stapi/OneDrive/Desktop/GD32VW553/V1_MQTT_OK/GD32VW55X_Wifi_BLE_SDK/GD32VW55x_RELEASE_V1.0.2/MSDK/wpa_supplicant/src/ap\wmm.c **** 
 303:C:/Users/stapi/OneDrive/Desktop/GD32VW553/V1_MQTT_OK/GD32VW55X_Wifi_BLE_SDK/GD32VW55x_RELEASE_V1.0.2/MSDK/wpa_supplicant/src/ap\wmm.c **** 	if ((const u8 *) (tspec + 1) > end) {
 304:C:/Users/stapi/OneDrive/Desktop/GD32VW553/V1_MQTT_OK/GD32VW55X_Wifi_BLE_SDK/GD32VW55x_RELEASE_V1.0.2/MSDK/wpa_supplicant/src/ap\wmm.c **** 		wpa_printf(MSG_DEBUG, "WMM: TSPEC overflow in ADDTS Request");
 305:C:/Users/stapi/OneDrive/Desktop/GD32VW553/V1_MQTT_OK/GD32VW55X_Wifi_BLE_SDK/GD32VW55x_RELEASE_V1.0.2/MSDK/wpa_supplicant/src/ap\wmm.c **** 		return;
 306:C:/Users/stapi/OneDrive/Desktop/GD32VW553/V1_MQTT_OK/GD32VW55X_Wifi_BLE_SDK/GD32VW55x_RELEASE_V1.0.2/MSDK/wpa_supplicant/src/ap\wmm.c **** 	}
 307:C:/Users/stapi/OneDrive/Desktop/GD32VW553/V1_MQTT_OK/GD32VW55X_Wifi_BLE_SDK/GD32VW55x_RELEASE_V1.0.2/MSDK/wpa_supplicant/src/ap\wmm.c **** 
 308:C:/Users/stapi/OneDrive/Desktop/GD32VW553/V1_MQTT_OK/GD32VW55X_Wifi_BLE_SDK/GD32VW55x_RELEASE_V1.0.2/MSDK/wpa_supplicant/src/ap\wmm.c **** 	wpa_printf(MSG_DEBUG, "WMM: ADDTS Request (Dialog Token %d) for TSPEC "
 309:C:/Users/stapi/OneDrive/Desktop/GD32VW553/V1_MQTT_OK/GD32VW55X_Wifi_BLE_SDK/GD32VW55x_RELEASE_V1.0.2/MSDK/wpa_supplicant/src/ap\wmm.c **** 		   "from " MACSTR,
 310:C:/Users/stapi/OneDrive/Desktop/GD32VW553/V1_MQTT_OK/GD32VW55X_Wifi_BLE_SDK/GD32VW55x_RELEASE_V1.0.2/MSDK/wpa_supplicant/src/ap\wmm.c **** 		   mgmt->u.action.u.wmm_action.dialog_token,
 311:C:/Users/stapi/OneDrive/Desktop/GD32VW553/V1_MQTT_OK/GD32VW55X_Wifi_BLE_SDK/GD32VW55x_RELEASE_V1.0.2/MSDK/wpa_supplicant/src/ap\wmm.c **** 		   MAC2STR(mgmt->sa));
 312:C:/Users/stapi/OneDrive/Desktop/GD32VW553/V1_MQTT_OK/GD32VW55X_Wifi_BLE_SDK/GD32VW55x_RELEASE_V1.0.2/MSDK/wpa_supplicant/src/ap\wmm.c **** 
 313:C:/Users/stapi/OneDrive/Desktop/GD32VW553/V1_MQTT_OK/GD32VW55X_Wifi_BLE_SDK/GD32VW55x_RELEASE_V1.0.2/MSDK/wpa_supplicant/src/ap\wmm.c **** 	os_memcpy(&tspec_resp, tspec, sizeof(struct wmm_tspec_element));
 314:C:/Users/stapi/OneDrive/Desktop/GD32VW553/V1_MQTT_OK/GD32VW55X_Wifi_BLE_SDK/GD32VW55x_RELEASE_V1.0.2/MSDK/wpa_supplicant/src/ap\wmm.c **** 	res = wmm_process_tspec(&tspec_resp);
 315:C:/Users/stapi/OneDrive/Desktop/GD32VW553/V1_MQTT_OK/GD32VW55X_Wifi_BLE_SDK/GD32VW55x_RELEASE_V1.0.2/MSDK/wpa_supplicant/src/ap\wmm.c **** 	wpa_printf(MSG_DEBUG, "WMM: ADDTS processing result: %d", res);
 316:C:/Users/stapi/OneDrive/Desktop/GD32VW553/V1_MQTT_OK/GD32VW55X_Wifi_BLE_SDK/GD32VW55x_RELEASE_V1.0.2/MSDK/wpa_supplicant/src/ap\wmm.c **** 
 317:C:/Users/stapi/OneDrive/Desktop/GD32VW553/V1_MQTT_OK/GD32VW55X_Wifi_BLE_SDK/GD32VW55x_RELEASE_V1.0.2/MSDK/wpa_supplicant/src/ap\wmm.c **** 	wmm_send_action(hapd, mgmt->sa, &tspec_resp, WMM_ACTION_CODE_ADDTS_RESP,
 318:C:/Users/stapi/OneDrive/Desktop/GD32VW553/V1_MQTT_OK/GD32VW55X_Wifi_BLE_SDK/GD32VW55x_RELEASE_V1.0.2/MSDK/wpa_supplicant/src/ap\wmm.c **** 			mgmt->u.action.u.wmm_action.dialog_token, res);
 319:C:/Users/stapi/OneDrive/Desktop/GD32VW553/V1_MQTT_OK/GD32VW55X_Wifi_BLE_SDK/GD32VW55x_RELEASE_V1.0.2/MSDK/wpa_supplicant/src/ap\wmm.c **** }
 320:C:/Users/stapi/OneDrive/Desktop/GD32VW553/V1_MQTT_OK/GD32VW55X_Wifi_BLE_SDK/GD32VW55x_RELEASE_V1.0.2/MSDK/wpa_supplicant/src/ap\wmm.c **** 
 321:C:/Users/stapi/OneDrive/Desktop/GD32VW553/V1_MQTT_OK/GD32VW55X_Wifi_BLE_SDK/GD32VW55x_RELEASE_V1.0.2/MSDK/wpa_supplicant/src/ap\wmm.c **** 
 322:C:/Users/stapi/OneDrive/Desktop/GD32VW553/V1_MQTT_OK/GD32VW55X_Wifi_BLE_SDK/GD32VW55x_RELEASE_V1.0.2/MSDK/wpa_supplicant/src/ap\wmm.c **** void hostapd_wmm_action(struct hostapd_data *hapd,
 323:C:/Users/stapi/OneDrive/Desktop/GD32VW553/V1_MQTT_OK/GD32VW55X_Wifi_BLE_SDK/GD32VW55x_RELEASE_V1.0.2/MSDK/wpa_supplicant/src/ap\wmm.c **** 			const struct ieee80211_mgmt *mgmt, size_t len)
 324:C:/Users/stapi/OneDrive/Desktop/GD32VW553/V1_MQTT_OK/GD32VW55X_Wifi_BLE_SDK/GD32VW55x_RELEASE_V1.0.2/MSDK/wpa_supplicant/src/ap\wmm.c **** {
 900              		.loc 1 324 1 is_stmt 1
 901              		.cfi_startproc
 902              	.LVL69:
 903 0000 17030000 		call	t0,__riscv_save_5
 903      E7020300 
 904              		.cfi_offset 20, -24
 905              		.cfi_offset 19, -20
 906              		.cfi_offset 18, -16
 907              		.cfi_offset 9, -12
 908              		.cfi_offset 8, -8
 909              		.cfi_offset 1, -4
 910              		.cfi_def_cfa_offset 32
 325:C:/Users/stapi/OneDrive/Desktop/GD32VW553/V1_MQTT_OK/GD32VW55X_Wifi_BLE_SDK/GD32VW55x_RELEASE_V1.0.2/MSDK/wpa_supplicant/src/ap\wmm.c **** 	int action_code;
 911              		.loc 1 325 2
 326:C:/Users/stapi/OneDrive/Desktop/GD32VW553/V1_MQTT_OK/GD32VW55X_Wifi_BLE_SDK/GD32VW55x_RELEASE_V1.0.2/MSDK/wpa_supplicant/src/ap\wmm.c **** 	int left = len - IEEE80211_HDRLEN - 4;
 912              		.loc 1 326 2
 327:C:/Users/stapi/OneDrive/Desktop/GD32VW553/V1_MQTT_OK/GD32VW55X_Wifi_BLE_SDK/GD32VW55x_RELEASE_V1.0.2/MSDK/wpa_supplicant/src/ap\wmm.c **** 	const u8 *pos = ((const u8 *) mgmt) + IEEE80211_HDRLEN + 4;
 328:C:/Users/stapi/OneDrive/Desktop/GD32VW553/V1_MQTT_OK/GD32VW55X_Wifi_BLE_SDK/GD32VW55x_RELEASE_V1.0.2/MSDK/wpa_supplicant/src/ap\wmm.c **** 	struct ieee802_11_elems elems;
 329:C:/Users/stapi/OneDrive/Desktop/GD32VW553/V1_MQTT_OK/GD32VW55X_Wifi_BLE_SDK/GD32VW55x_RELEASE_V1.0.2/MSDK/wpa_supplicant/src/ap\wmm.c **** 	struct sta_info *sta = ap_get_sta(hapd, mgmt->sa);
 913              		.loc 1 329 46 is_stmt 0
 914 0008 138AA500 		addi	s4,a1,10
 324:C:/Users/stapi/OneDrive/Desktop/GD32VW553/V1_MQTT_OK/GD32VW55X_Wifi_BLE_SDK/GD32VW55x_RELEASE_V1.0.2/MSDK/wpa_supplicant/src/ap\wmm.c **** 	int action_code;
 915              		.loc 1 324 1
 916 000c 130101D0 		addi	sp,sp,-768
 917              		.cfi_def_cfa_offset 800
 324:C:/Users/stapi/OneDrive/Desktop/GD32VW553/V1_MQTT_OK/GD32VW55X_Wifi_BLE_SDK/GD32VW55x_RELEASE_V1.0.2/MSDK/wpa_supplicant/src/ap\wmm.c **** 	int action_code;
 918              		.loc 1 324 1
 919 0010 2E84     		mv	s0,a1
 920              		.loc 1 329 25
 921 0012 D285     		mv	a1,s4
 922              	.LVL70:
 324:C:/Users/stapi/OneDrive/Desktop/GD32VW553/V1_MQTT_OK/GD32VW55X_Wifi_BLE_SDK/GD32VW55x_RELEASE_V1.0.2/MSDK/wpa_supplicant/src/ap\wmm.c **** 	int action_code;
 923              		.loc 1 324 1
 924 0014 2A89     		mv	s2,a0
 925 0016 B284     		mv	s1,a2
 926              	.LVL71:
 327:C:/Users/stapi/OneDrive/Desktop/GD32VW553/V1_MQTT_OK/GD32VW55X_Wifi_BLE_SDK/GD32VW55x_RELEASE_V1.0.2/MSDK/wpa_supplicant/src/ap\wmm.c **** 	const u8 *pos = ((const u8 *) mgmt) + IEEE80211_HDRLEN + 4;
 927              		.loc 1 327 2 is_stmt 1
 328:C:/Users/stapi/OneDrive/Desktop/GD32VW553/V1_MQTT_OK/GD32VW55X_Wifi_BLE_SDK/GD32VW55x_RELEASE_V1.0.2/MSDK/wpa_supplicant/src/ap\wmm.c **** 	struct sta_info *sta = ap_get_sta(hapd, mgmt->sa);
 928              		.loc 1 328 2
 929              		.loc 1 329 2
 930              		.loc 1 329 25 is_stmt 0
 931 0018 97000000 		call	ap_get_sta
 931      E7800000 
 932              	.LVL72:
 330:C:/Users/stapi/OneDrive/Desktop/GD32VW553/V1_MQTT_OK/GD32VW55X_Wifi_BLE_SDK/GD32VW55x_RELEASE_V1.0.2/MSDK/wpa_supplicant/src/ap\wmm.c **** 
 331:C:/Users/stapi/OneDrive/Desktop/GD32VW553/V1_MQTT_OK/GD32VW55X_Wifi_BLE_SDK/GD32VW55x_RELEASE_V1.0.2/MSDK/wpa_supplicant/src/ap\wmm.c **** 	/* check that the request comes from a valid station */
 332:C:/Users/stapi/OneDrive/Desktop/GD32VW553/V1_MQTT_OK/GD32VW55X_Wifi_BLE_SDK/GD32VW55x_RELEASE_V1.0.2/MSDK/wpa_supplicant/src/ap\wmm.c **** 	if (!sta ||
 933              		.loc 1 332 2 is_stmt 1
 934              		.loc 1 332 5 is_stmt 0
 935 0020 35C1     		beq	a0,zero,.L52
 333:C:/Users/stapi/OneDrive/Desktop/GD32VW553/V1_MQTT_OK/GD32VW55X_Wifi_BLE_SDK/GD32VW55x_RELEASE_V1.0.2/MSDK/wpa_supplicant/src/ap\wmm.c **** 	    (sta->flags & (WLAN_STA_ASSOC | WLAN_STA_WMM)) !=
 936              		.loc 1 333 18 discriminator 1
 937 0022 1C51     		lw	a5,32(a0)
 332:C:/Users/stapi/OneDrive/Desktop/GD32VW553/V1_MQTT_OK/GD32VW55X_Wifi_BLE_SDK/GD32VW55x_RELEASE_V1.0.2/MSDK/wpa_supplicant/src/ap\wmm.c **** 	    (sta->flags & (WLAN_STA_ASSOC | WLAN_STA_WMM)) !=
 938              		.loc 1 332 11 discriminator 1
 939 0024 13072020 		li	a4,514
 940              		.loc 1 333 18 discriminator 1
 941 0028 93F72720 		andi	a5,a5,514
 332:C:/Users/stapi/OneDrive/Desktop/GD32VW553/V1_MQTT_OK/GD32VW55X_Wifi_BLE_SDK/GD32VW55x_RELEASE_V1.0.2/MSDK/wpa_supplicant/src/ap\wmm.c **** 	    (sta->flags & (WLAN_STA_ASSOC | WLAN_STA_WMM)) !=
 942              		.loc 1 332 11 discriminator 1
 943 002c 639CE704 		bne	a5,a4,.L52
 326:C:/Users/stapi/OneDrive/Desktop/GD32VW553/V1_MQTT_OK/GD32VW55X_Wifi_BLE_SDK/GD32VW55x_RELEASE_V1.0.2/MSDK/wpa_supplicant/src/ap\wmm.c **** 	const u8 *pos = ((const u8 *) mgmt) + IEEE80211_HDRLEN + 4;
 944              		.loc 1 326 36
 945 0030 938544FE 		addi	a1,s1,-28
 946              	.LVL73:
 334:C:/Users/stapi/OneDrive/Desktop/GD32VW553/V1_MQTT_OK/GD32VW55X_Wifi_BLE_SDK/GD32VW55x_RELEASE_V1.0.2/MSDK/wpa_supplicant/src/ap\wmm.c **** 	    (WLAN_STA_ASSOC | WLAN_STA_WMM)) {
 335:C:/Users/stapi/OneDrive/Desktop/GD32VW553/V1_MQTT_OK/GD32VW55X_Wifi_BLE_SDK/GD32VW55x_RELEASE_V1.0.2/MSDK/wpa_supplicant/src/ap\wmm.c **** 		hostapd_logger(hapd, mgmt->sa, HOSTAPD_MODULE_IEEE80211,
 336:C:/Users/stapi/OneDrive/Desktop/GD32VW553/V1_MQTT_OK/GD32VW55X_Wifi_BLE_SDK/GD32VW55x_RELEASE_V1.0.2/MSDK/wpa_supplicant/src/ap\wmm.c **** 			       HOSTAPD_LEVEL_DEBUG,
 337:C:/Users/stapi/OneDrive/Desktop/GD32VW553/V1_MQTT_OK/GD32VW55X_Wifi_BLE_SDK/GD32VW55x_RELEASE_V1.0.2/MSDK/wpa_supplicant/src/ap\wmm.c **** 			       "wmm action received is not from associated wmm"
 338:C:/Users/stapi/OneDrive/Desktop/GD32VW553/V1_MQTT_OK/GD32VW55X_Wifi_BLE_SDK/GD32VW55x_RELEASE_V1.0.2/MSDK/wpa_supplicant/src/ap\wmm.c **** 			       " station");
 339:C:/Users/stapi/OneDrive/Desktop/GD32VW553/V1_MQTT_OK/GD32VW55X_Wifi_BLE_SDK/GD32VW55x_RELEASE_V1.0.2/MSDK/wpa_supplicant/src/ap\wmm.c **** 		/* TODO: respond with action frame refused status code */
 340:C:/Users/stapi/OneDrive/Desktop/GD32VW553/V1_MQTT_OK/GD32VW55X_Wifi_BLE_SDK/GD32VW55x_RELEASE_V1.0.2/MSDK/wpa_supplicant/src/ap\wmm.c **** 		return;
 341:C:/Users/stapi/OneDrive/Desktop/GD32VW553/V1_MQTT_OK/GD32VW55X_Wifi_BLE_SDK/GD32VW55x_RELEASE_V1.0.2/MSDK/wpa_supplicant/src/ap\wmm.c **** 	}
 342:C:/Users/stapi/OneDrive/Desktop/GD32VW553/V1_MQTT_OK/GD32VW55X_Wifi_BLE_SDK/GD32VW55x_RELEASE_V1.0.2/MSDK/wpa_supplicant/src/ap\wmm.c **** 
 343:C:/Users/stapi/OneDrive/Desktop/GD32VW553/V1_MQTT_OK/GD32VW55X_Wifi_BLE_SDK/GD32VW55x_RELEASE_V1.0.2/MSDK/wpa_supplicant/src/ap\wmm.c **** 	if (left < 0)
 947              		.loc 1 343 2 is_stmt 1
 948              		.loc 1 343 5 is_stmt 0
 949 0034 63C80504 		blt	a1,zero,.L52
 344:C:/Users/stapi/OneDrive/Desktop/GD32VW553/V1_MQTT_OK/GD32VW55X_Wifi_BLE_SDK/GD32VW55x_RELEASE_V1.0.2/MSDK/wpa_supplicant/src/ap\wmm.c **** 		return; /* not a valid WMM Action frame */
 345:C:/Users/stapi/OneDrive/Desktop/GD32VW553/V1_MQTT_OK/GD32VW55X_Wifi_BLE_SDK/GD32VW55x_RELEASE_V1.0.2/MSDK/wpa_supplicant/src/ap\wmm.c **** 
 346:C:/Users/stapi/OneDrive/Desktop/GD32VW553/V1_MQTT_OK/GD32VW55X_Wifi_BLE_SDK/GD32VW55x_RELEASE_V1.0.2/MSDK/wpa_supplicant/src/ap\wmm.c **** 	/* extract the tspec info element */
 347:C:/Users/stapi/OneDrive/Desktop/GD32VW553/V1_MQTT_OK/GD32VW55X_Wifi_BLE_SDK/GD32VW55x_RELEASE_V1.0.2/MSDK/wpa_supplicant/src/ap\wmm.c **** 	if (ieee802_11_parse_elems(pos, left, &elems, 1) == ParseFailed) {
 950              		.loc 1 347 2 is_stmt 1
 951              		.loc 1 347 6 is_stmt 0
 952 0038 8546     		li	a3,1
 953 003a 9012     		addi	a2,sp,352
 954 003c 1305C401 		addi	a0,s0,28
 955              	.LVL74:
 956 0040 97000000 		call	ieee802_11_parse_elems
 956      E7800000 
 957              	.LVL75:
 958              		.loc 1 347 5
 959 0048 FD57     		li	a5,-1
 960 004a 630DF502 		beq	a0,a5,.L52
 348:C:/Users/stapi/OneDrive/Desktop/GD32VW553/V1_MQTT_OK/GD32VW55X_Wifi_BLE_SDK/GD32VW55x_RELEASE_V1.0.2/MSDK/wpa_supplicant/src/ap\wmm.c **** 		hostapd_logger(hapd, mgmt->sa, HOSTAPD_MODULE_IEEE80211,
 349:C:/Users/stapi/OneDrive/Desktop/GD32VW553/V1_MQTT_OK/GD32VW55X_Wifi_BLE_SDK/GD32VW55x_RELEASE_V1.0.2/MSDK/wpa_supplicant/src/ap\wmm.c **** 			       HOSTAPD_LEVEL_DEBUG,
 350:C:/Users/stapi/OneDrive/Desktop/GD32VW553/V1_MQTT_OK/GD32VW55X_Wifi_BLE_SDK/GD32VW55x_RELEASE_V1.0.2/MSDK/wpa_supplicant/src/ap\wmm.c **** 			       "hostapd_wmm_action - could not parse wmm "
 351:C:/Users/stapi/OneDrive/Desktop/GD32VW553/V1_MQTT_OK/GD32VW55X_Wifi_BLE_SDK/GD32VW55x_RELEASE_V1.0.2/MSDK/wpa_supplicant/src/ap\wmm.c **** 			       "action");
 352:C:/Users/stapi/OneDrive/Desktop/GD32VW553/V1_MQTT_OK/GD32VW55X_Wifi_BLE_SDK/GD32VW55x_RELEASE_V1.0.2/MSDK/wpa_supplicant/src/ap\wmm.c **** 		/* TODO: respond with action frame invalid parameters status
 353:C:/Users/stapi/OneDrive/Desktop/GD32VW553/V1_MQTT_OK/GD32VW55X_Wifi_BLE_SDK/GD32VW55x_RELEASE_V1.0.2/MSDK/wpa_supplicant/src/ap\wmm.c **** 		 * code */
 354:C:/Users/stapi/OneDrive/Desktop/GD32VW553/V1_MQTT_OK/GD32VW55X_Wifi_BLE_SDK/GD32VW55x_RELEASE_V1.0.2/MSDK/wpa_supplicant/src/ap\wmm.c **** 		return;
 355:C:/Users/stapi/OneDrive/Desktop/GD32VW553/V1_MQTT_OK/GD32VW55X_Wifi_BLE_SDK/GD32VW55x_RELEASE_V1.0.2/MSDK/wpa_supplicant/src/ap\wmm.c **** 	}
 356:C:/Users/stapi/OneDrive/Desktop/GD32VW553/V1_MQTT_OK/GD32VW55X_Wifi_BLE_SDK/GD32VW55x_RELEASE_V1.0.2/MSDK/wpa_supplicant/src/ap\wmm.c **** 
 357:C:/Users/stapi/OneDrive/Desktop/GD32VW553/V1_MQTT_OK/GD32VW55X_Wifi_BLE_SDK/GD32VW55x_RELEASE_V1.0.2/MSDK/wpa_supplicant/src/ap\wmm.c **** 	if (!elems.wmm_tspec ||
 961              		.loc 1 357 2 is_stmt 1
 962              		.loc 1 357 12 is_stmt 0
 963 004e 83298118 		lw	s3,392(sp)
 964              		.loc 1 357 5
 965 0052 63890902 		beq	s3,zero,.L52
 966              		.loc 1 357 23 discriminator 1
 967 0056 0347C127 		lbu	a4,636(sp)
 968 005a 9307D003 		li	a5,61
 969 005e 6313F702 		bne	a4,a5,.L52
 358:C:/Users/stapi/OneDrive/Desktop/GD32VW553/V1_MQTT_OK/GD32VW55X_Wifi_BLE_SDK/GD32VW55x_RELEASE_V1.0.2/MSDK/wpa_supplicant/src/ap\wmm.c **** 	    elems.wmm_tspec_len != (sizeof(struct wmm_tspec_element) - 2)) {
 359:C:/Users/stapi/OneDrive/Desktop/GD32VW553/V1_MQTT_OK/GD32VW55X_Wifi_BLE_SDK/GD32VW55x_RELEASE_V1.0.2/MSDK/wpa_supplicant/src/ap\wmm.c **** 		hostapd_logger(hapd, mgmt->sa, HOSTAPD_MODULE_IEEE80211,
 360:C:/Users/stapi/OneDrive/Desktop/GD32VW553/V1_MQTT_OK/GD32VW55X_Wifi_BLE_SDK/GD32VW55x_RELEASE_V1.0.2/MSDK/wpa_supplicant/src/ap\wmm.c **** 			       HOSTAPD_LEVEL_DEBUG,
 361:C:/Users/stapi/OneDrive/Desktop/GD32VW553/V1_MQTT_OK/GD32VW55X_Wifi_BLE_SDK/GD32VW55x_RELEASE_V1.0.2/MSDK/wpa_supplicant/src/ap\wmm.c **** 			       "hostapd_wmm_action - missing or wrong length "
 362:C:/Users/stapi/OneDrive/Desktop/GD32VW553/V1_MQTT_OK/GD32VW55X_Wifi_BLE_SDK/GD32VW55x_RELEASE_V1.0.2/MSDK/wpa_supplicant/src/ap\wmm.c **** 			       "tspec");
 363:C:/Users/stapi/OneDrive/Desktop/GD32VW553/V1_MQTT_OK/GD32VW55X_Wifi_BLE_SDK/GD32VW55x_RELEASE_V1.0.2/MSDK/wpa_supplicant/src/ap\wmm.c **** 		/* TODO: respond with action frame invalid parameters status
 364:C:/Users/stapi/OneDrive/Desktop/GD32VW553/V1_MQTT_OK/GD32VW55X_Wifi_BLE_SDK/GD32VW55x_RELEASE_V1.0.2/MSDK/wpa_supplicant/src/ap\wmm.c **** 		 * code */
 365:C:/Users/stapi/OneDrive/Desktop/GD32VW553/V1_MQTT_OK/GD32VW55X_Wifi_BLE_SDK/GD32VW55x_RELEASE_V1.0.2/MSDK/wpa_supplicant/src/ap\wmm.c **** 		return;
 366:C:/Users/stapi/OneDrive/Desktop/GD32VW553/V1_MQTT_OK/GD32VW55X_Wifi_BLE_SDK/GD32VW55x_RELEASE_V1.0.2/MSDK/wpa_supplicant/src/ap\wmm.c **** 	}
 367:C:/Users/stapi/OneDrive/Desktop/GD32VW553/V1_MQTT_OK/GD32VW55X_Wifi_BLE_SDK/GD32VW55x_RELEASE_V1.0.2/MSDK/wpa_supplicant/src/ap\wmm.c **** 
 368:C:/Users/stapi/OneDrive/Desktop/GD32VW553/V1_MQTT_OK/GD32VW55X_Wifi_BLE_SDK/GD32VW55x_RELEASE_V1.0.2/MSDK/wpa_supplicant/src/ap\wmm.c **** 	/* TODO: check the request is for an AC with ACM set, if not, refuse
 369:C:/Users/stapi/OneDrive/Desktop/GD32VW553/V1_MQTT_OK/GD32VW55X_Wifi_BLE_SDK/GD32VW55x_RELEASE_V1.0.2/MSDK/wpa_supplicant/src/ap\wmm.c **** 	 * request */
 370:C:/Users/stapi/OneDrive/Desktop/GD32VW553/V1_MQTT_OK/GD32VW55X_Wifi_BLE_SDK/GD32VW55x_RELEASE_V1.0.2/MSDK/wpa_supplicant/src/ap\wmm.c **** 
 371:C:/Users/stapi/OneDrive/Desktop/GD32VW553/V1_MQTT_OK/GD32VW55X_Wifi_BLE_SDK/GD32VW55x_RELEASE_V1.0.2/MSDK/wpa_supplicant/src/ap\wmm.c **** 	action_code = mgmt->u.action.u.wmm_action.action_code;
 970              		.loc 1 371 2 is_stmt 1
 971              	.LVL76:
 372:C:/Users/stapi/OneDrive/Desktop/GD32VW553/V1_MQTT_OK/GD32VW55X_Wifi_BLE_SDK/GD32VW55x_RELEASE_V1.0.2/MSDK/wpa_supplicant/src/ap\wmm.c **** 	switch (action_code) {
 972              		.loc 1 372 2
 973 0062 83479401 		lbu	a5,25(s0)
 974              	.LVL77:
 975 0066 99EF     		bne	a5,zero,.L52
 373:C:/Users/stapi/OneDrive/Desktop/GD32VW553/V1_MQTT_OK/GD32VW55X_Wifi_BLE_SDK/GD32VW55x_RELEASE_V1.0.2/MSDK/wpa_supplicant/src/ap\wmm.c **** 	case WMM_ACTION_CODE_ADDTS_REQ:
 374:C:/Users/stapi/OneDrive/Desktop/GD32VW553/V1_MQTT_OK/GD32VW55X_Wifi_BLE_SDK/GD32VW55x_RELEASE_V1.0.2/MSDK/wpa_supplicant/src/ap\wmm.c **** 		wmm_addts_req(hapd, mgmt, (struct wmm_tspec_element *)
 976              		.loc 1 374 3
 977              	.LVL78:
 978              	.LBB39:
 979              	.LBB40:
 299:C:/Users/stapi/OneDrive/Desktop/GD32VW553/V1_MQTT_OK/GD32VW55X_Wifi_BLE_SDK/GD32VW55x_RELEASE_V1.0.2/MSDK/wpa_supplicant/src/ap\wmm.c **** 	int res;
 980              		.loc 1 299 2
 300:C:/Users/stapi/OneDrive/Desktop/GD32VW553/V1_MQTT_OK/GD32VW55X_Wifi_BLE_SDK/GD32VW55x_RELEASE_V1.0.2/MSDK/wpa_supplicant/src/ap\wmm.c **** 	struct wmm_tspec_element tspec_resp;
 981              		.loc 1 300 2
 301:C:/Users/stapi/OneDrive/Desktop/GD32VW553/V1_MQTT_OK/GD32VW55X_Wifi_BLE_SDK/GD32VW55x_RELEASE_V1.0.2/MSDK/wpa_supplicant/src/ap\wmm.c **** 
 982              		.loc 1 301 2
 303:C:/Users/stapi/OneDrive/Desktop/GD32VW553/V1_MQTT_OK/GD32VW55X_Wifi_BLE_SDK/GD32VW55x_RELEASE_V1.0.2/MSDK/wpa_supplicant/src/ap\wmm.c **** 		wpa_printf(MSG_DEBUG, "WMM: TSPEC overflow in ADDTS Request");
 983              		.loc 1 303 2
 299:C:/Users/stapi/OneDrive/Desktop/GD32VW553/V1_MQTT_OK/GD32VW55X_Wifi_BLE_SDK/GD32VW55x_RELEASE_V1.0.2/MSDK/wpa_supplicant/src/ap\wmm.c **** 	int res;
 984              		.loc 1 299 12 is_stmt 0
 985 0068 A294     		add	s1,s0,s1
 986              	.LVL79:
 303:C:/Users/stapi/OneDrive/Desktop/GD32VW553/V1_MQTT_OK/GD32VW55X_Wifi_BLE_SDK/GD32VW55x_RELEASE_V1.0.2/MSDK/wpa_supplicant/src/ap\wmm.c **** 		wpa_printf(MSG_DEBUG, "WMM: TSPEC overflow in ADDTS Request");
 987              		.loc 1 303 26
 988 006a 9387D903 		addi	a5,s3,61
 989              	.LVL80:
 303:C:/Users/stapi/OneDrive/Desktop/GD32VW553/V1_MQTT_OK/GD32VW55X_Wifi_BLE_SDK/GD32VW55x_RELEASE_V1.0.2/MSDK/wpa_supplicant/src/ap\wmm.c **** 		wpa_printf(MSG_DEBUG, "WMM: TSPEC overflow in ADDTS Request");
 990              		.loc 1 303 5
 991 006e 63F1F402 		bgeu	s1,a5,.L55
 304:C:/Users/stapi/OneDrive/Desktop/GD32VW553/V1_MQTT_OK/GD32VW55X_Wifi_BLE_SDK/GD32VW55x_RELEASE_V1.0.2/MSDK/wpa_supplicant/src/ap\wmm.c **** 		return;
 992              		.loc 1 304 3 is_stmt 1
 993 0072 B7050000 		lui	a1,%hi(.LC17)
 994 0076 93850500 		addi	a1,a1,%lo(.LC17)
 995 007a 0945     		li	a0,2
 996              	.LVL81:
 997              	.L66:
 998              	.LBB41:
 999              	.LBB42:
 216:C:/Users/stapi/OneDrive/Desktop/GD32VW553/V1_MQTT_OK/GD32VW55X_Wifi_BLE_SDK/GD32VW55x_RELEASE_V1.0.2/MSDK/wpa_supplicant/src/ap\wmm.c **** }
 1000              		.loc 1 216 3 is_stmt 0
 1001 007c 97000000 		call	wpa_printf
 1001      E7800000 
 1002              	.LVL82:
 1003              	.L52:
 1004              	.LBE42:
 1005              	.LBE41:
 1006              	.LBE40:
 1007              	.LBE39:
 375:C:/Users/stapi/OneDrive/Desktop/GD32VW553/V1_MQTT_OK/GD32VW55X_Wifi_BLE_SDK/GD32VW55x_RELEASE_V1.0.2/MSDK/wpa_supplicant/src/ap\wmm.c **** 			      (elems.wmm_tspec - 2), len);
 376:C:/Users/stapi/OneDrive/Desktop/GD32VW553/V1_MQTT_OK/GD32VW55X_Wifi_BLE_SDK/GD32VW55x_RELEASE_V1.0.2/MSDK/wpa_supplicant/src/ap\wmm.c **** 		return;
 377:C:/Users/stapi/OneDrive/Desktop/GD32VW553/V1_MQTT_OK/GD32VW55X_Wifi_BLE_SDK/GD32VW55x_RELEASE_V1.0.2/MSDK/wpa_supplicant/src/ap\wmm.c **** #if 0
 378:C:/Users/stapi/OneDrive/Desktop/GD32VW553/V1_MQTT_OK/GD32VW55X_Wifi_BLE_SDK/GD32VW55x_RELEASE_V1.0.2/MSDK/wpa_supplicant/src/ap\wmm.c **** 	/* TODO: needed for client implementation */
 379:C:/Users/stapi/OneDrive/Desktop/GD32VW553/V1_MQTT_OK/GD32VW55X_Wifi_BLE_SDK/GD32VW55x_RELEASE_V1.0.2/MSDK/wpa_supplicant/src/ap\wmm.c **** 	case WMM_ACTION_CODE_ADDTS_RESP:
 380:C:/Users/stapi/OneDrive/Desktop/GD32VW553/V1_MQTT_OK/GD32VW55X_Wifi_BLE_SDK/GD32VW55x_RELEASE_V1.0.2/MSDK/wpa_supplicant/src/ap\wmm.c **** 		wmm_setup_request(hapd, mgmt, len);
 381:C:/Users/stapi/OneDrive/Desktop/GD32VW553/V1_MQTT_OK/GD32VW55X_Wifi_BLE_SDK/GD32VW55x_RELEASE_V1.0.2/MSDK/wpa_supplicant/src/ap\wmm.c **** 		return;
 382:C:/Users/stapi/OneDrive/Desktop/GD32VW553/V1_MQTT_OK/GD32VW55X_Wifi_BLE_SDK/GD32VW55x_RELEASE_V1.0.2/MSDK/wpa_supplicant/src/ap\wmm.c **** 	/* TODO: handle station teardown requests */
 383:C:/Users/stapi/OneDrive/Desktop/GD32VW553/V1_MQTT_OK/GD32VW55X_Wifi_BLE_SDK/GD32VW55x_RELEASE_V1.0.2/MSDK/wpa_supplicant/src/ap\wmm.c **** 	case WMM_ACTION_CODE_DELTS:
 384:C:/Users/stapi/OneDrive/Desktop/GD32VW553/V1_MQTT_OK/GD32VW55X_Wifi_BLE_SDK/GD32VW55x_RELEASE_V1.0.2/MSDK/wpa_supplicant/src/ap\wmm.c **** 		wmm_teardown(hapd, mgmt, len);
 385:C:/Users/stapi/OneDrive/Desktop/GD32VW553/V1_MQTT_OK/GD32VW55X_Wifi_BLE_SDK/GD32VW55x_RELEASE_V1.0.2/MSDK/wpa_supplicant/src/ap\wmm.c **** 		return;
 386:C:/Users/stapi/OneDrive/Desktop/GD32VW553/V1_MQTT_OK/GD32VW55X_Wifi_BLE_SDK/GD32VW55x_RELEASE_V1.0.2/MSDK/wpa_supplicant/src/ap\wmm.c **** #endif
 387:C:/Users/stapi/OneDrive/Desktop/GD32VW553/V1_MQTT_OK/GD32VW55X_Wifi_BLE_SDK/GD32VW55x_RELEASE_V1.0.2/MSDK/wpa_supplicant/src/ap\wmm.c **** 	}
 388:C:/Users/stapi/OneDrive/Desktop/GD32VW553/V1_MQTT_OK/GD32VW55X_Wifi_BLE_SDK/GD32VW55x_RELEASE_V1.0.2/MSDK/wpa_supplicant/src/ap\wmm.c **** 
 389:C:/Users/stapi/OneDrive/Desktop/GD32VW553/V1_MQTT_OK/GD32VW55X_Wifi_BLE_SDK/GD32VW55x_RELEASE_V1.0.2/MSDK/wpa_supplicant/src/ap\wmm.c **** 	hostapd_logger(hapd, mgmt->sa, HOSTAPD_MODULE_IEEE80211,
 390:C:/Users/stapi/OneDrive/Desktop/GD32VW553/V1_MQTT_OK/GD32VW55X_Wifi_BLE_SDK/GD32VW55x_RELEASE_V1.0.2/MSDK/wpa_supplicant/src/ap\wmm.c **** 		       HOSTAPD_LEVEL_DEBUG,
 391:C:/Users/stapi/OneDrive/Desktop/GD32VW553/V1_MQTT_OK/GD32VW55X_Wifi_BLE_SDK/GD32VW55x_RELEASE_V1.0.2/MSDK/wpa_supplicant/src/ap\wmm.c **** 		       "hostapd_wmm_action - unknown action code %d",
 392:C:/Users/stapi/OneDrive/Desktop/GD32VW553/V1_MQTT_OK/GD32VW55X_Wifi_BLE_SDK/GD32VW55x_RELEASE_V1.0.2/MSDK/wpa_supplicant/src/ap\wmm.c **** 		       action_code);
 393:C:/Users/stapi/OneDrive/Desktop/GD32VW553/V1_MQTT_OK/GD32VW55X_Wifi_BLE_SDK/GD32VW55x_RELEASE_V1.0.2/MSDK/wpa_supplicant/src/ap\wmm.c **** }
 1008              		.loc 1 393 1
 1009 0084 13010130 		addi	sp,sp,768
 1010              		.cfi_remember_state
 1011              		.cfi_def_cfa_offset 0
 1012 0088 17030000 		tail	__riscv_restore_5
 1012      67000300 
 1013              		.cfi_restore 20
 1014              		.cfi_restore 19
 1015              		.cfi_restore 18
 1016              		.cfi_restore 9
 1017              		.cfi_restore 8
 1018              		.cfi_restore 1
 1019              		.cfi_def_cfa_offset -32
 1020              	.LVL83:
 1021              	.L55:
 1022              		.cfi_restore_state
 1023              	.LBB50:
 1024              	.LBB49:
 308:C:/Users/stapi/OneDrive/Desktop/GD32VW553/V1_MQTT_OK/GD32VW55X_Wifi_BLE_SDK/GD32VW55x_RELEASE_V1.0.2/MSDK/wpa_supplicant/src/ap\wmm.c **** 		   "from " MACSTR,
 1025              		.loc 1 308 2 is_stmt 1
 1026 0090 8347F400 		lbu	a5,15(s0)
 1027 0094 B7050000 		lui	a1,%hi(.LC18)
 1028 0098 93850500 		addi	a1,a1,%lo(.LC18)
 1029 009c 3EC0     		sw	a5,0(sp)
 1030              	.LVL84:
 1031 009e 0348D400 		lbu	a6,13(s0)
 1032 00a2 0347B400 		lbu	a4,11(s0)
 1033 00a6 8346A400 		lbu	a3,10(s0)
 1034 00aa 8348E400 		lbu	a7,14(s0)
 1035 00ae 8347C400 		lbu	a5,12(s0)
 1036 00b2 0346A401 		lbu	a2,26(s0)
 1037 00b6 0945     		li	a0,2
 1038 00b8 97000000 		call	wpa_printf
 1038      E7800000 
 1039              	.LVL85:
 313:C:/Users/stapi/OneDrive/Desktop/GD32VW553/V1_MQTT_OK/GD32VW55X_Wifi_BLE_SDK/GD32VW55x_RELEASE_V1.0.2/MSDK/wpa_supplicant/src/ap\wmm.c **** 	res = wmm_process_tspec(&tspec_resp);
 1040              		.loc 1 313 2
 1041 00c0 1306F003 		li	a2,63
 1042 00c4 9385E9FF 		addi	a1,s3,-2
 1043 00c8 0810     		addi	a0,sp,32
 1044 00ca 97000000 		call	os_memcpy
 1044      E7800000 
 1045              	.LVL86:
 314:C:/Users/stapi/OneDrive/Desktop/GD32VW553/V1_MQTT_OK/GD32VW55X_Wifi_BLE_SDK/GD32VW55x_RELEASE_V1.0.2/MSDK/wpa_supplicant/src/ap\wmm.c **** 	wpa_printf(MSG_DEBUG, "WMM: ADDTS processing result: %d", res);
 1046              		.loc 1 314 2
 314:C:/Users/stapi/OneDrive/Desktop/GD32VW553/V1_MQTT_OK/GD32VW55X_Wifi_BLE_SDK/GD32VW55x_RELEASE_V1.0.2/MSDK/wpa_supplicant/src/ap\wmm.c **** 	wpa_printf(MSG_DEBUG, "WMM: ADDTS processing result: %d", res);
 1047              		.loc 1 314 8 is_stmt 0
 1048 00d2 0810     		addi	a0,sp,32
 1049 00d4 97000000 		call	wmm_process_tspec
 1049      E7800000 
 1050              	.LVL87:
 315:C:/Users/stapi/OneDrive/Desktop/GD32VW553/V1_MQTT_OK/GD32VW55X_Wifi_BLE_SDK/GD32VW55x_RELEASE_V1.0.2/MSDK/wpa_supplicant/src/ap\wmm.c **** 
 1051              		.loc 1 315 2
 1052 00dc B7050000 		lui	a1,%hi(.LC19)
 1053 00e0 2A86     		mv	a2,a0
 314:C:/Users/stapi/OneDrive/Desktop/GD32VW553/V1_MQTT_OK/GD32VW55X_Wifi_BLE_SDK/GD32VW55x_RELEASE_V1.0.2/MSDK/wpa_supplicant/src/ap\wmm.c **** 	wpa_printf(MSG_DEBUG, "WMM: ADDTS processing result: %d", res);
 1054              		.loc 1 314 8
 1055 00e2 AA84     		mv	s1,a0
 1056              	.LVL88:
 315:C:/Users/stapi/OneDrive/Desktop/GD32VW553/V1_MQTT_OK/GD32VW55X_Wifi_BLE_SDK/GD32VW55x_RELEASE_V1.0.2/MSDK/wpa_supplicant/src/ap\wmm.c **** 
 1057              		.loc 1 315 2 is_stmt 1
 1058 00e4 93850500 		addi	a1,a1,%lo(.LC19)
 1059 00e8 0945     		li	a0,2
 1060 00ea 97000000 		call	wpa_printf
 1060      E7800000 
 1061              	.LVL89:
 317:C:/Users/stapi/OneDrive/Desktop/GD32VW553/V1_MQTT_OK/GD32VW55X_Wifi_BLE_SDK/GD32VW55x_RELEASE_V1.0.2/MSDK/wpa_supplicant/src/ap\wmm.c **** 			mgmt->u.action.u.wmm_action.dialog_token, res);
 1062              		.loc 1 317 2
 1063              	.LBB46:
 1064              	.LBB43:
 202:C:/Users/stapi/OneDrive/Desktop/GD32VW553/V1_MQTT_OK/GD32VW55X_Wifi_BLE_SDK/GD32VW55x_RELEASE_V1.0.2/MSDK/wpa_supplicant/src/ap\wmm.c **** 	m->frame_control = IEEE80211_FC(WLAN_FC_TYPE_MGMT,
 1065              		.loc 1 202 2 is_stmt 0
 1066 00f2 13060010 		li	a2,256
 1067 00f6 8145     		li	a1,0
 1068 00f8 8810     		addi	a0,sp,96
 1069              	.LBE43:
 1070              	.LBE46:
 317:C:/Users/stapi/OneDrive/Desktop/GD32VW553/V1_MQTT_OK/GD32VW55X_Wifi_BLE_SDK/GD32VW55x_RELEASE_V1.0.2/MSDK/wpa_supplicant/src/ap\wmm.c **** 			mgmt->u.action.u.wmm_action.dialog_token, res);
 1071              		.loc 1 317 2
 1072 00fa 0344A401 		lbu	s0,26(s0)
 1073              	.LVL90:
 1074              	.LBB47:
 1075              	.LBB44:
 193:C:/Users/stapi/OneDrive/Desktop/GD32VW553/V1_MQTT_OK/GD32VW55X_Wifi_BLE_SDK/GD32VW55x_RELEASE_V1.0.2/MSDK/wpa_supplicant/src/ap\wmm.c **** 	struct ieee80211_mgmt *m = (struct ieee80211_mgmt *) buf;
 1076              		.loc 1 193 2 is_stmt 1
 194:C:/Users/stapi/OneDrive/Desktop/GD32VW553/V1_MQTT_OK/GD32VW55X_Wifi_BLE_SDK/GD32VW55x_RELEASE_V1.0.2/MSDK/wpa_supplicant/src/ap\wmm.c **** 	struct wmm_tspec_element *t = (struct wmm_tspec_element *)
 1077              		.loc 1 194 2
 195:C:/Users/stapi/OneDrive/Desktop/GD32VW553/V1_MQTT_OK/GD32VW55X_Wifi_BLE_SDK/GD32VW55x_RELEASE_V1.0.2/MSDK/wpa_supplicant/src/ap\wmm.c **** 		m->u.action.u.wmm_action.variable;
 1078              		.loc 1 195 2
 197:C:/Users/stapi/OneDrive/Desktop/GD32VW553/V1_MQTT_OK/GD32VW55X_Wifi_BLE_SDK/GD32VW55x_RELEASE_V1.0.2/MSDK/wpa_supplicant/src/ap\wmm.c **** 
 1079              		.loc 1 197 2
 199:C:/Users/stapi/OneDrive/Desktop/GD32VW553/V1_MQTT_OK/GD32VW55X_Wifi_BLE_SDK/GD32VW55x_RELEASE_V1.0.2/MSDK/wpa_supplicant/src/ap\wmm.c **** 		       HOSTAPD_LEVEL_DEBUG,
 1080              		.loc 1 199 2
 199:C:/Users/stapi/OneDrive/Desktop/GD32VW553/V1_MQTT_OK/GD32VW55X_Wifi_BLE_SDK/GD32VW55x_RELEASE_V1.0.2/MSDK/wpa_supplicant/src/ap\wmm.c **** 		       HOSTAPD_LEVEL_DEBUG,
 1081              		.loc 1 199 2
 199:C:/Users/stapi/OneDrive/Desktop/GD32VW553/V1_MQTT_OK/GD32VW55X_Wifi_BLE_SDK/GD32VW55x_RELEASE_V1.0.2/MSDK/wpa_supplicant/src/ap\wmm.c **** 		       HOSTAPD_LEVEL_DEBUG,
 1082              		.loc 1 199 2
 202:C:/Users/stapi/OneDrive/Desktop/GD32VW553/V1_MQTT_OK/GD32VW55X_Wifi_BLE_SDK/GD32VW55x_RELEASE_V1.0.2/MSDK/wpa_supplicant/src/ap\wmm.c **** 	m->frame_control = IEEE80211_FC(WLAN_FC_TYPE_MGMT,
 1083              		.loc 1 202 2
 1084 00fe 97000000 		call	os_memset
 1084      E7800000 
 1085              	.LVL91:
 203:C:/Users/stapi/OneDrive/Desktop/GD32VW553/V1_MQTT_OK/GD32VW55X_Wifi_BLE_SDK/GD32VW55x_RELEASE_V1.0.2/MSDK/wpa_supplicant/src/ap\wmm.c **** 					WLAN_FC_STYPE_ACTION);
 1086              		.loc 1 203 2
 203:C:/Users/stapi/OneDrive/Desktop/GD32VW553/V1_MQTT_OK/GD32VW55X_Wifi_BLE_SDK/GD32VW55x_RELEASE_V1.0.2/MSDK/wpa_supplicant/src/ap\wmm.c **** 					WLAN_FC_STYPE_ACTION);
 1087              		.loc 1 203 19 is_stmt 0
 1088 0106 9307000D 		li	a5,208
 205:C:/Users/stapi/OneDrive/Desktop/GD32VW553/V1_MQTT_OK/GD32VW55X_Wifi_BLE_SDK/GD32VW55x_RELEASE_V1.0.2/MSDK/wpa_supplicant/src/ap\wmm.c **** 	os_memcpy(m->sa, hapd->own_addr, ETH_ALEN);
 1089              		.loc 1 205 2
 1090 010a 1946     		li	a2,6
 1091 010c D285     		mv	a1,s4
 1092 010e C810     		addi	a0,sp,100
 203:C:/Users/stapi/OneDrive/Desktop/GD32VW553/V1_MQTT_OK/GD32VW55X_Wifi_BLE_SDK/GD32VW55x_RELEASE_V1.0.2/MSDK/wpa_supplicant/src/ap\wmm.c **** 					WLAN_FC_STYPE_ACTION);
 1093              		.loc 1 203 19
 1094 0110 2310F106 		sh	a5,96(sp)
 205:C:/Users/stapi/OneDrive/Desktop/GD32VW553/V1_MQTT_OK/GD32VW55X_Wifi_BLE_SDK/GD32VW55x_RELEASE_V1.0.2/MSDK/wpa_supplicant/src/ap\wmm.c **** 	os_memcpy(m->sa, hapd->own_addr, ETH_ALEN);
 1095              		.loc 1 205 2 is_stmt 1
 1096 0114 97000000 		call	os_memcpy
 1096      E7800000 
 1097              	.LVL92:
 206:C:/Users/stapi/OneDrive/Desktop/GD32VW553/V1_MQTT_OK/GD32VW55X_Wifi_BLE_SDK/GD32VW55x_RELEASE_V1.0.2/MSDK/wpa_supplicant/src/ap\wmm.c **** 	os_memcpy(m->bssid, hapd->own_addr, ETH_ALEN);
 1098              		.loc 1 206 2
 206:C:/Users/stapi/OneDrive/Desktop/GD32VW553/V1_MQTT_OK/GD32VW55X_Wifi_BLE_SDK/GD32VW55x_RELEASE_V1.0.2/MSDK/wpa_supplicant/src/ap\wmm.c **** 	os_memcpy(m->bssid, hapd->own_addr, ETH_ALEN);
 1099              		.loc 1 206 23 is_stmt 0
 1100 011c 93051901 		addi	a1,s2,17
 206:C:/Users/stapi/OneDrive/Desktop/GD32VW553/V1_MQTT_OK/GD32VW55X_Wifi_BLE_SDK/GD32VW55x_RELEASE_V1.0.2/MSDK/wpa_supplicant/src/ap\wmm.c **** 	os_memcpy(m->bssid, hapd->own_addr, ETH_ALEN);
 1101              		.loc 1 206 2
 1102 0120 1946     		li	a2,6
 1103 0122 1305A106 		addi	a0,sp,106
 1104 0126 2ECE     		sw	a1,28(sp)
 1105 0128 97000000 		call	os_memcpy
 1105      E7800000 
 1106              	.LVL93:
 207:C:/Users/stapi/OneDrive/Desktop/GD32VW553/V1_MQTT_OK/GD32VW55X_Wifi_BLE_SDK/GD32VW55x_RELEASE_V1.0.2/MSDK/wpa_supplicant/src/ap\wmm.c **** 	m->u.action.category = WLAN_ACTION_WMM;
 1107              		.loc 1 207 2 is_stmt 1
 1108 0130 F245     		lw	a1,28(sp)
 1109 0132 1946     		li	a2,6
 1110 0134 8818     		addi	a0,sp,112
 1111 0136 97000000 		call	os_memcpy
 1111      E7800000 
 1112              	.LVL94:
 208:C:/Users/stapi/OneDrive/Desktop/GD32VW553/V1_MQTT_OK/GD32VW55X_Wifi_BLE_SDK/GD32VW55x_RELEASE_V1.0.2/MSDK/wpa_supplicant/src/ap\wmm.c **** 	m->u.action.u.wmm_action.action_code = action_code;
 1113              		.loc 1 208 2
 209:C:/Users/stapi/OneDrive/Desktop/GD32VW553/V1_MQTT_OK/GD32VW55X_Wifi_BLE_SDK/GD32VW55x_RELEASE_V1.0.2/MSDK/wpa_supplicant/src/ap\wmm.c **** 	m->u.action.u.wmm_action.dialog_token = dialogue_token;
 1114              		.loc 1 209 2
 208:C:/Users/stapi/OneDrive/Desktop/GD32VW553/V1_MQTT_OK/GD32VW55X_Wifi_BLE_SDK/GD32VW55x_RELEASE_V1.0.2/MSDK/wpa_supplicant/src/ap\wmm.c **** 	m->u.action.u.wmm_action.action_code = action_code;
 1115              		.loc 1 208 23 is_stmt 0
 1116 013e 93071011 		li	a5,273
 212:C:/Users/stapi/OneDrive/Desktop/GD32VW553/V1_MQTT_OK/GD32VW55X_Wifi_BLE_SDK/GD32VW55x_RELEASE_V1.0.2/MSDK/wpa_supplicant/src/ap\wmm.c **** 	len = ((u8 *) (t + 1)) - buf;
 1117              		.loc 1 212 2
 1118 0142 1306F003 		li	a2,63
 1119 0146 0C10     		addi	a1,sp,32
 1120              	.LVL95:
 1121 0148 E818     		addi	a0,sp,124
 1122              	.LVL96:
 208:C:/Users/stapi/OneDrive/Desktop/GD32VW553/V1_MQTT_OK/GD32VW55X_Wifi_BLE_SDK/GD32VW55x_RELEASE_V1.0.2/MSDK/wpa_supplicant/src/ap\wmm.c **** 	m->u.action.u.wmm_action.action_code = action_code;
 1123              		.loc 1 208 23
 1124 014a 231CF106 		sh	a5,120(sp)
 210:C:/Users/stapi/OneDrive/Desktop/GD32VW553/V1_MQTT_OK/GD32VW55X_Wifi_BLE_SDK/GD32VW55x_RELEASE_V1.0.2/MSDK/wpa_supplicant/src/ap\wmm.c **** 	m->u.action.u.wmm_action.status_code = status_code;
 1125              		.loc 1 210 2 is_stmt 1
 210:C:/Users/stapi/OneDrive/Desktop/GD32VW553/V1_MQTT_OK/GD32VW55X_Wifi_BLE_SDK/GD32VW55x_RELEASE_V1.0.2/MSDK/wpa_supplicant/src/ap\wmm.c **** 	m->u.action.u.wmm_action.status_code = status_code;
 1126              		.loc 1 210 40 is_stmt 0
 1127 014e 230D8106 		sb	s0,122(sp)
 211:C:/Users/stapi/OneDrive/Desktop/GD32VW553/V1_MQTT_OK/GD32VW55X_Wifi_BLE_SDK/GD32VW55x_RELEASE_V1.0.2/MSDK/wpa_supplicant/src/ap\wmm.c **** 	os_memcpy(t, tspec, sizeof(struct wmm_tspec_element));
 1128              		.loc 1 211 2 is_stmt 1
 1129              	.LBE44:
 1130              	.LBE47:
 317:C:/Users/stapi/OneDrive/Desktop/GD32VW553/V1_MQTT_OK/GD32VW55X_Wifi_BLE_SDK/GD32VW55x_RELEASE_V1.0.2/MSDK/wpa_supplicant/src/ap\wmm.c **** 			mgmt->u.action.u.wmm_action.dialog_token, res);
 1131              		.loc 1 317 2 is_stmt 0
 1132 0152 A30D9106 		sb	s1,123(sp)
 1133              	.LBB48:
 1134              	.LBB45:
 212:C:/Users/stapi/OneDrive/Desktop/GD32VW553/V1_MQTT_OK/GD32VW55X_Wifi_BLE_SDK/GD32VW55x_RELEASE_V1.0.2/MSDK/wpa_supplicant/src/ap\wmm.c **** 	len = ((u8 *) (t + 1)) - buf;
 1135              		.loc 1 212 2 is_stmt 1
 1136 0156 97000000 		call	os_memcpy
 1136      E7800000 
 1137              	.LVL97:
 213:C:/Users/stapi/OneDrive/Desktop/GD32VW553/V1_MQTT_OK/GD32VW55X_Wifi_BLE_SDK/GD32VW55x_RELEASE_V1.0.2/MSDK/wpa_supplicant/src/ap\wmm.c **** 
 1138              		.loc 1 213 2
 215:C:/Users/stapi/OneDrive/Desktop/GD32VW553/V1_MQTT_OK/GD32VW55X_Wifi_BLE_SDK/GD32VW55x_RELEASE_V1.0.2/MSDK/wpa_supplicant/src/ap\wmm.c **** 		wpa_printf(MSG_INFO, "wmm_send_action: send failed");
 1139              		.loc 1 215 2
 215:C:/Users/stapi/OneDrive/Desktop/GD32VW553/V1_MQTT_OK/GD32VW55X_Wifi_BLE_SDK/GD32VW55x_RELEASE_V1.0.2/MSDK/wpa_supplicant/src/ap\wmm.c **** 		wpa_printf(MSG_INFO, "wmm_send_action: send failed");
 1140              		.loc 1 215 6 is_stmt 0
 1141 015e 0148     		li	a6,0
 1142 0160 8147     		li	a5,0
 1143 0162 0147     		li	a4,0
 1144 0164 8146     		li	a3,0
 1145 0166 1306B005 		li	a2,91
 1146 016a 8C10     		addi	a1,sp,96
 1147              	.LVL98:
 1148 016c 4A85     		mv	a0,s2
 1149 016e 97000000 		call	hostapd_drv_send_mlme
 1149      E7800000 
 1150              	.LVL99:
 215:C:/Users/stapi/OneDrive/Desktop/GD32VW553/V1_MQTT_OK/GD32VW55X_Wifi_BLE_SDK/GD32VW55x_RELEASE_V1.0.2/MSDK/wpa_supplicant/src/ap\wmm.c **** 		wpa_printf(MSG_INFO, "wmm_send_action: send failed");
 1151              		.loc 1 215 5
 1152 0176 E35705F0 		bge	a0,zero,.L52
 216:C:/Users/stapi/OneDrive/Desktop/GD32VW553/V1_MQTT_OK/GD32VW55X_Wifi_BLE_SDK/GD32VW55x_RELEASE_V1.0.2/MSDK/wpa_supplicant/src/ap\wmm.c **** }
 1153              		.loc 1 216 3 is_stmt 1
 1154 017a B7050000 		lui	a1,%hi(.LC20)
 1155 017e 93850500 		addi	a1,a1,%lo(.LC20)
 1156 0182 0D45     		li	a0,3
 1157 0184 E5BD     		j	.L66
 1158              	.LBE45:
 1159              	.LBE48:
 1160              	.LBE49:
 1161              	.LBE50:
 1162              		.cfi_endproc
 1163              	.LFE176:
 1165              		.text
 1166              	.Letext0:
 1167              		.file 2 "c:\\users\\stapi\\onedrive\\desktop\\gd32vw553\\embeddedbuilder_v1.4.7.26843\\tools\\nucl
 1168              		.file 3 "c:\\users\\stapi\\onedrive\\desktop\\gd32vw553\\embeddedbuilder_v1.4.7.26843\\tools\\nucl
 1169              		.file 4 "c:\\users\\stapi\\onedrive\\desktop\\gd32vw553\\embeddedbuilder_v1.4.7.26843\\tools\\nucl
 1170              		.file 5 "..\\..\\..\\..\\lwip\\lwip-2.1.2\\src\\include/lwip/arch.h"
 1171              		.file 6 "..\\..\\..\\..\\lwip\\lwip-2.1.2\\src\\include/lwip/inet.h"
 1172              		.file 7 "..\\..\\..\\..\\wpa_supplicant\\src/utils/os.h"
 1173              		.file 8 "..\\..\\..\\..\\wpa_supplicant\\src/utils/common.h"
 1174              		.file 9 "..\\..\\..\\..\\wpa_supplicant\\src/utils/wpabuf.h"
 1175              		.file 10 "..\\..\\..\\..\\wpa_supplicant\\src/common/ieee802_11_defs.h"
 1176              		.file 11 "..\\..\\..\\..\\wpa_supplicant\\src/utils/wpa_debug.h"
 1177              		.file 12 "..\\..\\..\\..\\wpa_supplicant\\src/common/defs.h"
 1178              		.file 13 "..\\..\\..\\..\\wpa_supplicant\\src/common/ieee802_11_common.h"
 1179              		.file 14 "..\\..\\..\\..\\wpa_supplicant\\src/utils/list.h"
 1180              		.file 15 "..\\..\\..\\..\\wpa_supplicant\\src/utils/ip_addr.h"
 1181              		.file 16 "..\\..\\..\\..\\wpa_supplicant\\src/wps/wps_defs.h"
 1182              		.file 17 "..\\..\\..\\..\\wpa_supplicant\\src/wps/wps.h"
 1183              		.file 18 "C:/Users/stapi/OneDrive/Desktop/GD32VW553/V1_MQTT_OK/GD32VW55X_Wifi_BLE_SDK/GD32VW55x_RE
 1184              		.file 19 "C:/Users/stapi/OneDrive/Desktop/GD32VW553/V1_MQTT_OK/GD32VW55X_Wifi_BLE_SDK/GD32VW55x_RE
 1185              		.file 20 "..\\..\\..\\..\\wpa_supplicant\\src/common/sae.h"
 1186              		.file 21 "..\\..\\..\\..\\wpa_supplicant\\src/drivers/driver.h"
 1187              		.file 22 "C:/Users/stapi/OneDrive/Desktop/GD32VW553/V1_MQTT_OK/GD32VW55X_Wifi_BLE_SDK/GD32VW55x_RE
 1188              		.file 23 "C:/Users/stapi/OneDrive/Desktop/GD32VW553/V1_MQTT_OK/GD32VW55X_Wifi_BLE_SDK/GD32VW55x_RE
 1189              		.file 24 "C:/Users/stapi/OneDrive/Desktop/GD32VW553/V1_MQTT_OK/GD32VW55X_Wifi_BLE_SDK/GD32VW55x_RE