   1              		.file	"wpa_auth_ie.c"
   2              		.option nopic
   3              		.attribute arch, "rv32i2p0_m2p0_a2p0_f2p0_c2p0_b_p0p94"
   4              		.attribute unaligned_access, 0
   5              		.attribute stack_align, 16
   6              		.text
   7              	.Ltext0:
   8              		.cfi_sections	.debug_frame
   9              		.section	.text.wpa_auth_okc_iter,"ax",@progbits
  10              		.align	1
  12              	wpa_auth_okc_iter:
  13              	.LFB143:
  14              		.file 1 "C:/Users/stapi/OneDrive/Desktop/GD32VW553/V1_MQTT_OK/GD32VW55X_Wifi_BLE_SDK/GD32VW55x_REL
   1:C:/Users/stapi/OneDrive/Desktop/GD32VW553/V1_MQTT_OK/GD32VW55X_Wifi_BLE_SDK/GD32VW55x_RELEASE_V1.0.2/MSDK/wpa_supplicant/src/ap\wpa_auth_ie.c **** /*
   2:C:/Users/stapi/OneDrive/Desktop/GD32VW553/V1_MQTT_OK/GD32VW55X_Wifi_BLE_SDK/GD32VW55x_RELEASE_V1.0.2/MSDK/wpa_supplicant/src/ap\wpa_auth_ie.c ****  * hostapd - WPA/RSN IE and KDE definitions
   3:C:/Users/stapi/OneDrive/Desktop/GD32VW553/V1_MQTT_OK/GD32VW55X_Wifi_BLE_SDK/GD32VW55x_RELEASE_V1.0.2/MSDK/wpa_supplicant/src/ap\wpa_auth_ie.c ****  * Copyright (c) 2004-2018, Jouni Malinen <j@w1.fi>
   4:C:/Users/stapi/OneDrive/Desktop/GD32VW553/V1_MQTT_OK/GD32VW55X_Wifi_BLE_SDK/GD32VW55x_RELEASE_V1.0.2/MSDK/wpa_supplicant/src/ap\wpa_auth_ie.c ****  *
   5:C:/Users/stapi/OneDrive/Desktop/GD32VW553/V1_MQTT_OK/GD32VW55X_Wifi_BLE_SDK/GD32VW55x_RELEASE_V1.0.2/MSDK/wpa_supplicant/src/ap\wpa_auth_ie.c ****  * This software may be distributed under the terms of the BSD license.
   6:C:/Users/stapi/OneDrive/Desktop/GD32VW553/V1_MQTT_OK/GD32VW55X_Wifi_BLE_SDK/GD32VW55x_RELEASE_V1.0.2/MSDK/wpa_supplicant/src/ap\wpa_auth_ie.c ****  * See README for more details.
   7:C:/Users/stapi/OneDrive/Desktop/GD32VW553/V1_MQTT_OK/GD32VW55X_Wifi_BLE_SDK/GD32VW55x_RELEASE_V1.0.2/MSDK/wpa_supplicant/src/ap\wpa_auth_ie.c ****  */
   8:C:/Users/stapi/OneDrive/Desktop/GD32VW553/V1_MQTT_OK/GD32VW55X_Wifi_BLE_SDK/GD32VW55x_RELEASE_V1.0.2/MSDK/wpa_supplicant/src/ap\wpa_auth_ie.c **** 
   9:C:/Users/stapi/OneDrive/Desktop/GD32VW553/V1_MQTT_OK/GD32VW55X_Wifi_BLE_SDK/GD32VW55x_RELEASE_V1.0.2/MSDK/wpa_supplicant/src/ap\wpa_auth_ie.c **** #include "utils/includes.h"
  10:C:/Users/stapi/OneDrive/Desktop/GD32VW553/V1_MQTT_OK/GD32VW55X_Wifi_BLE_SDK/GD32VW55x_RELEASE_V1.0.2/MSDK/wpa_supplicant/src/ap\wpa_auth_ie.c **** 
  11:C:/Users/stapi/OneDrive/Desktop/GD32VW553/V1_MQTT_OK/GD32VW55X_Wifi_BLE_SDK/GD32VW55x_RELEASE_V1.0.2/MSDK/wpa_supplicant/src/ap\wpa_auth_ie.c **** #ifdef CONFIG_AP
  12:C:/Users/stapi/OneDrive/Desktop/GD32VW553/V1_MQTT_OK/GD32VW55X_Wifi_BLE_SDK/GD32VW55x_RELEASE_V1.0.2/MSDK/wpa_supplicant/src/ap\wpa_auth_ie.c **** #include "utils/common.h"
  13:C:/Users/stapi/OneDrive/Desktop/GD32VW553/V1_MQTT_OK/GD32VW55X_Wifi_BLE_SDK/GD32VW55x_RELEASE_V1.0.2/MSDK/wpa_supplicant/src/ap\wpa_auth_ie.c **** #include "common/ieee802_11_defs.h"
  14:C:/Users/stapi/OneDrive/Desktop/GD32VW553/V1_MQTT_OK/GD32VW55X_Wifi_BLE_SDK/GD32VW55x_RELEASE_V1.0.2/MSDK/wpa_supplicant/src/ap\wpa_auth_ie.c **** #include "eapol_auth/eapol_auth_sm.h"
  15:C:/Users/stapi/OneDrive/Desktop/GD32VW553/V1_MQTT_OK/GD32VW55X_Wifi_BLE_SDK/GD32VW55x_RELEASE_V1.0.2/MSDK/wpa_supplicant/src/ap\wpa_auth_ie.c **** #include "ap_config.h"
  16:C:/Users/stapi/OneDrive/Desktop/GD32VW553/V1_MQTT_OK/GD32VW55X_Wifi_BLE_SDK/GD32VW55x_RELEASE_V1.0.2/MSDK/wpa_supplicant/src/ap\wpa_auth_ie.c **** #include "ieee802_11.h"
  17:C:/Users/stapi/OneDrive/Desktop/GD32VW553/V1_MQTT_OK/GD32VW55X_Wifi_BLE_SDK/GD32VW55x_RELEASE_V1.0.2/MSDK/wpa_supplicant/src/ap\wpa_auth_ie.c **** #include "wpa_auth.h"
  18:C:/Users/stapi/OneDrive/Desktop/GD32VW553/V1_MQTT_OK/GD32VW55X_Wifi_BLE_SDK/GD32VW55x_RELEASE_V1.0.2/MSDK/wpa_supplicant/src/ap\wpa_auth_ie.c **** #include "pmksa_cache_auth.h"
  19:C:/Users/stapi/OneDrive/Desktop/GD32VW553/V1_MQTT_OK/GD32VW55X_Wifi_BLE_SDK/GD32VW55x_RELEASE_V1.0.2/MSDK/wpa_supplicant/src/ap\wpa_auth_ie.c **** #include "wpa_auth_ie.h"
  20:C:/Users/stapi/OneDrive/Desktop/GD32VW553/V1_MQTT_OK/GD32VW55X_Wifi_BLE_SDK/GD32VW55x_RELEASE_V1.0.2/MSDK/wpa_supplicant/src/ap\wpa_auth_ie.c **** #include "wpa_auth_i.h"
  21:C:/Users/stapi/OneDrive/Desktop/GD32VW553/V1_MQTT_OK/GD32VW55X_Wifi_BLE_SDK/GD32VW55x_RELEASE_V1.0.2/MSDK/wpa_supplicant/src/ap\wpa_auth_ie.c **** 
  22:C:/Users/stapi/OneDrive/Desktop/GD32VW553/V1_MQTT_OK/GD32VW55X_Wifi_BLE_SDK/GD32VW55x_RELEASE_V1.0.2/MSDK/wpa_supplicant/src/ap\wpa_auth_ie.c **** 
  23:C:/Users/stapi/OneDrive/Desktop/GD32VW553/V1_MQTT_OK/GD32VW55X_Wifi_BLE_SDK/GD32VW55x_RELEASE_V1.0.2/MSDK/wpa_supplicant/src/ap\wpa_auth_ie.c **** #ifdef CONFIG_RSN_TESTING
  24:C:/Users/stapi/OneDrive/Desktop/GD32VW553/V1_MQTT_OK/GD32VW55X_Wifi_BLE_SDK/GD32VW55x_RELEASE_V1.0.2/MSDK/wpa_supplicant/src/ap\wpa_auth_ie.c **** int rsn_testing = 0;
  25:C:/Users/stapi/OneDrive/Desktop/GD32VW553/V1_MQTT_OK/GD32VW55X_Wifi_BLE_SDK/GD32VW55x_RELEASE_V1.0.2/MSDK/wpa_supplicant/src/ap\wpa_auth_ie.c **** #endif /* CONFIG_RSN_TESTING */
  26:C:/Users/stapi/OneDrive/Desktop/GD32VW553/V1_MQTT_OK/GD32VW55X_Wifi_BLE_SDK/GD32VW55x_RELEASE_V1.0.2/MSDK/wpa_supplicant/src/ap\wpa_auth_ie.c **** 
  27:C:/Users/stapi/OneDrive/Desktop/GD32VW553/V1_MQTT_OK/GD32VW55X_Wifi_BLE_SDK/GD32VW55x_RELEASE_V1.0.2/MSDK/wpa_supplicant/src/ap\wpa_auth_ie.c **** 
  28:C:/Users/stapi/OneDrive/Desktop/GD32VW553/V1_MQTT_OK/GD32VW55X_Wifi_BLE_SDK/GD32VW55x_RELEASE_V1.0.2/MSDK/wpa_supplicant/src/ap\wpa_auth_ie.c **** static int wpa_write_wpa_ie(struct wpa_auth_config *conf, u8 *buf, size_t len)
  29:C:/Users/stapi/OneDrive/Desktop/GD32VW553/V1_MQTT_OK/GD32VW55X_Wifi_BLE_SDK/GD32VW55x_RELEASE_V1.0.2/MSDK/wpa_supplicant/src/ap\wpa_auth_ie.c **** {
  30:C:/Users/stapi/OneDrive/Desktop/GD32VW553/V1_MQTT_OK/GD32VW55X_Wifi_BLE_SDK/GD32VW55x_RELEASE_V1.0.2/MSDK/wpa_supplicant/src/ap\wpa_auth_ie.c **** 	struct wpa_ie_hdr *hdr;
  31:C:/Users/stapi/OneDrive/Desktop/GD32VW553/V1_MQTT_OK/GD32VW55X_Wifi_BLE_SDK/GD32VW55x_RELEASE_V1.0.2/MSDK/wpa_supplicant/src/ap\wpa_auth_ie.c **** 	int num_suites;
  32:C:/Users/stapi/OneDrive/Desktop/GD32VW553/V1_MQTT_OK/GD32VW55X_Wifi_BLE_SDK/GD32VW55x_RELEASE_V1.0.2/MSDK/wpa_supplicant/src/ap\wpa_auth_ie.c **** 	u8 *pos, *count;
  33:C:/Users/stapi/OneDrive/Desktop/GD32VW553/V1_MQTT_OK/GD32VW55X_Wifi_BLE_SDK/GD32VW55x_RELEASE_V1.0.2/MSDK/wpa_supplicant/src/ap\wpa_auth_ie.c **** 	u32 suite;
  34:C:/Users/stapi/OneDrive/Desktop/GD32VW553/V1_MQTT_OK/GD32VW55X_Wifi_BLE_SDK/GD32VW55x_RELEASE_V1.0.2/MSDK/wpa_supplicant/src/ap\wpa_auth_ie.c **** 
  35:C:/Users/stapi/OneDrive/Desktop/GD32VW553/V1_MQTT_OK/GD32VW55X_Wifi_BLE_SDK/GD32VW55x_RELEASE_V1.0.2/MSDK/wpa_supplicant/src/ap\wpa_auth_ie.c **** 	hdr = (struct wpa_ie_hdr *) buf;
  36:C:/Users/stapi/OneDrive/Desktop/GD32VW553/V1_MQTT_OK/GD32VW55X_Wifi_BLE_SDK/GD32VW55x_RELEASE_V1.0.2/MSDK/wpa_supplicant/src/ap\wpa_auth_ie.c **** 	hdr->elem_id = WLAN_EID_VENDOR_SPECIFIC;
  37:C:/Users/stapi/OneDrive/Desktop/GD32VW553/V1_MQTT_OK/GD32VW55X_Wifi_BLE_SDK/GD32VW55x_RELEASE_V1.0.2/MSDK/wpa_supplicant/src/ap\wpa_auth_ie.c **** 	RSN_SELECTOR_PUT(hdr->oui, WPA_OUI_TYPE);
  38:C:/Users/stapi/OneDrive/Desktop/GD32VW553/V1_MQTT_OK/GD32VW55X_Wifi_BLE_SDK/GD32VW55x_RELEASE_V1.0.2/MSDK/wpa_supplicant/src/ap\wpa_auth_ie.c **** 	WPA_PUT_LE16(hdr->version, WPA_VERSION);
  39:C:/Users/stapi/OneDrive/Desktop/GD32VW553/V1_MQTT_OK/GD32VW55X_Wifi_BLE_SDK/GD32VW55x_RELEASE_V1.0.2/MSDK/wpa_supplicant/src/ap\wpa_auth_ie.c **** 	pos = (u8 *) (hdr + 1);
  40:C:/Users/stapi/OneDrive/Desktop/GD32VW553/V1_MQTT_OK/GD32VW55X_Wifi_BLE_SDK/GD32VW55x_RELEASE_V1.0.2/MSDK/wpa_supplicant/src/ap\wpa_auth_ie.c **** 
  41:C:/Users/stapi/OneDrive/Desktop/GD32VW553/V1_MQTT_OK/GD32VW55X_Wifi_BLE_SDK/GD32VW55x_RELEASE_V1.0.2/MSDK/wpa_supplicant/src/ap\wpa_auth_ie.c **** 	suite = wpa_cipher_to_suite(WPA_PROTO_WPA, conf->wpa_group);
  42:C:/Users/stapi/OneDrive/Desktop/GD32VW553/V1_MQTT_OK/GD32VW55X_Wifi_BLE_SDK/GD32VW55x_RELEASE_V1.0.2/MSDK/wpa_supplicant/src/ap\wpa_auth_ie.c **** 	if (suite == 0) {
  43:C:/Users/stapi/OneDrive/Desktop/GD32VW553/V1_MQTT_OK/GD32VW55X_Wifi_BLE_SDK/GD32VW55x_RELEASE_V1.0.2/MSDK/wpa_supplicant/src/ap\wpa_auth_ie.c **** 		wpa_printf(MSG_DEBUG, "Invalid group cipher (%d).",
  44:C:/Users/stapi/OneDrive/Desktop/GD32VW553/V1_MQTT_OK/GD32VW55X_Wifi_BLE_SDK/GD32VW55x_RELEASE_V1.0.2/MSDK/wpa_supplicant/src/ap\wpa_auth_ie.c **** 			   conf->wpa_group);
  45:C:/Users/stapi/OneDrive/Desktop/GD32VW553/V1_MQTT_OK/GD32VW55X_Wifi_BLE_SDK/GD32VW55x_RELEASE_V1.0.2/MSDK/wpa_supplicant/src/ap\wpa_auth_ie.c **** 		return -1;
  46:C:/Users/stapi/OneDrive/Desktop/GD32VW553/V1_MQTT_OK/GD32VW55X_Wifi_BLE_SDK/GD32VW55x_RELEASE_V1.0.2/MSDK/wpa_supplicant/src/ap\wpa_auth_ie.c **** 	}
  47:C:/Users/stapi/OneDrive/Desktop/GD32VW553/V1_MQTT_OK/GD32VW55X_Wifi_BLE_SDK/GD32VW55x_RELEASE_V1.0.2/MSDK/wpa_supplicant/src/ap\wpa_auth_ie.c **** 	RSN_SELECTOR_PUT(pos, suite);
  48:C:/Users/stapi/OneDrive/Desktop/GD32VW553/V1_MQTT_OK/GD32VW55X_Wifi_BLE_SDK/GD32VW55x_RELEASE_V1.0.2/MSDK/wpa_supplicant/src/ap\wpa_auth_ie.c **** 	pos += WPA_SELECTOR_LEN;
  49:C:/Users/stapi/OneDrive/Desktop/GD32VW553/V1_MQTT_OK/GD32VW55X_Wifi_BLE_SDK/GD32VW55x_RELEASE_V1.0.2/MSDK/wpa_supplicant/src/ap\wpa_auth_ie.c **** 
  50:C:/Users/stapi/OneDrive/Desktop/GD32VW553/V1_MQTT_OK/GD32VW55X_Wifi_BLE_SDK/GD32VW55x_RELEASE_V1.0.2/MSDK/wpa_supplicant/src/ap\wpa_auth_ie.c **** 	count = pos;
  51:C:/Users/stapi/OneDrive/Desktop/GD32VW553/V1_MQTT_OK/GD32VW55X_Wifi_BLE_SDK/GD32VW55x_RELEASE_V1.0.2/MSDK/wpa_supplicant/src/ap\wpa_auth_ie.c **** 	pos += 2;
  52:C:/Users/stapi/OneDrive/Desktop/GD32VW553/V1_MQTT_OK/GD32VW55X_Wifi_BLE_SDK/GD32VW55x_RELEASE_V1.0.2/MSDK/wpa_supplicant/src/ap\wpa_auth_ie.c **** 
  53:C:/Users/stapi/OneDrive/Desktop/GD32VW553/V1_MQTT_OK/GD32VW55X_Wifi_BLE_SDK/GD32VW55x_RELEASE_V1.0.2/MSDK/wpa_supplicant/src/ap\wpa_auth_ie.c **** 	num_suites = wpa_cipher_put_suites(pos, conf->wpa_pairwise);
  54:C:/Users/stapi/OneDrive/Desktop/GD32VW553/V1_MQTT_OK/GD32VW55X_Wifi_BLE_SDK/GD32VW55x_RELEASE_V1.0.2/MSDK/wpa_supplicant/src/ap\wpa_auth_ie.c **** 	if (num_suites == 0) {
  55:C:/Users/stapi/OneDrive/Desktop/GD32VW553/V1_MQTT_OK/GD32VW55X_Wifi_BLE_SDK/GD32VW55x_RELEASE_V1.0.2/MSDK/wpa_supplicant/src/ap\wpa_auth_ie.c **** 		wpa_printf(MSG_DEBUG, "Invalid pairwise cipher (%d).",
  56:C:/Users/stapi/OneDrive/Desktop/GD32VW553/V1_MQTT_OK/GD32VW55X_Wifi_BLE_SDK/GD32VW55x_RELEASE_V1.0.2/MSDK/wpa_supplicant/src/ap\wpa_auth_ie.c **** 			   conf->wpa_pairwise);
  57:C:/Users/stapi/OneDrive/Desktop/GD32VW553/V1_MQTT_OK/GD32VW55X_Wifi_BLE_SDK/GD32VW55x_RELEASE_V1.0.2/MSDK/wpa_supplicant/src/ap\wpa_auth_ie.c **** 		return -1;
  58:C:/Users/stapi/OneDrive/Desktop/GD32VW553/V1_MQTT_OK/GD32VW55X_Wifi_BLE_SDK/GD32VW55x_RELEASE_V1.0.2/MSDK/wpa_supplicant/src/ap\wpa_auth_ie.c **** 	}
  59:C:/Users/stapi/OneDrive/Desktop/GD32VW553/V1_MQTT_OK/GD32VW55X_Wifi_BLE_SDK/GD32VW55x_RELEASE_V1.0.2/MSDK/wpa_supplicant/src/ap\wpa_auth_ie.c **** 	pos += num_suites * WPA_SELECTOR_LEN;
  60:C:/Users/stapi/OneDrive/Desktop/GD32VW553/V1_MQTT_OK/GD32VW55X_Wifi_BLE_SDK/GD32VW55x_RELEASE_V1.0.2/MSDK/wpa_supplicant/src/ap\wpa_auth_ie.c **** 	WPA_PUT_LE16(count, num_suites);
  61:C:/Users/stapi/OneDrive/Desktop/GD32VW553/V1_MQTT_OK/GD32VW55X_Wifi_BLE_SDK/GD32VW55x_RELEASE_V1.0.2/MSDK/wpa_supplicant/src/ap\wpa_auth_ie.c **** 
  62:C:/Users/stapi/OneDrive/Desktop/GD32VW553/V1_MQTT_OK/GD32VW55X_Wifi_BLE_SDK/GD32VW55x_RELEASE_V1.0.2/MSDK/wpa_supplicant/src/ap\wpa_auth_ie.c **** 	num_suites = 0;
  63:C:/Users/stapi/OneDrive/Desktop/GD32VW553/V1_MQTT_OK/GD32VW55X_Wifi_BLE_SDK/GD32VW55x_RELEASE_V1.0.2/MSDK/wpa_supplicant/src/ap\wpa_auth_ie.c **** 	count = pos;
  64:C:/Users/stapi/OneDrive/Desktop/GD32VW553/V1_MQTT_OK/GD32VW55X_Wifi_BLE_SDK/GD32VW55x_RELEASE_V1.0.2/MSDK/wpa_supplicant/src/ap\wpa_auth_ie.c **** 	pos += 2;
  65:C:/Users/stapi/OneDrive/Desktop/GD32VW553/V1_MQTT_OK/GD32VW55X_Wifi_BLE_SDK/GD32VW55x_RELEASE_V1.0.2/MSDK/wpa_supplicant/src/ap\wpa_auth_ie.c **** 
  66:C:/Users/stapi/OneDrive/Desktop/GD32VW553/V1_MQTT_OK/GD32VW55X_Wifi_BLE_SDK/GD32VW55x_RELEASE_V1.0.2/MSDK/wpa_supplicant/src/ap\wpa_auth_ie.c **** 	if (conf->wpa_key_mgmt & WPA_KEY_MGMT_IEEE8021X) {
  67:C:/Users/stapi/OneDrive/Desktop/GD32VW553/V1_MQTT_OK/GD32VW55X_Wifi_BLE_SDK/GD32VW55x_RELEASE_V1.0.2/MSDK/wpa_supplicant/src/ap\wpa_auth_ie.c **** 		RSN_SELECTOR_PUT(pos, WPA_AUTH_KEY_MGMT_UNSPEC_802_1X);
  68:C:/Users/stapi/OneDrive/Desktop/GD32VW553/V1_MQTT_OK/GD32VW55X_Wifi_BLE_SDK/GD32VW55x_RELEASE_V1.0.2/MSDK/wpa_supplicant/src/ap\wpa_auth_ie.c **** 		pos += WPA_SELECTOR_LEN;
  69:C:/Users/stapi/OneDrive/Desktop/GD32VW553/V1_MQTT_OK/GD32VW55X_Wifi_BLE_SDK/GD32VW55x_RELEASE_V1.0.2/MSDK/wpa_supplicant/src/ap\wpa_auth_ie.c **** 		num_suites++;
  70:C:/Users/stapi/OneDrive/Desktop/GD32VW553/V1_MQTT_OK/GD32VW55X_Wifi_BLE_SDK/GD32VW55x_RELEASE_V1.0.2/MSDK/wpa_supplicant/src/ap\wpa_auth_ie.c **** 	}
  71:C:/Users/stapi/OneDrive/Desktop/GD32VW553/V1_MQTT_OK/GD32VW55X_Wifi_BLE_SDK/GD32VW55x_RELEASE_V1.0.2/MSDK/wpa_supplicant/src/ap\wpa_auth_ie.c **** 	if (conf->wpa_key_mgmt & WPA_KEY_MGMT_PSK) {
  72:C:/Users/stapi/OneDrive/Desktop/GD32VW553/V1_MQTT_OK/GD32VW55X_Wifi_BLE_SDK/GD32VW55x_RELEASE_V1.0.2/MSDK/wpa_supplicant/src/ap\wpa_auth_ie.c **** 		RSN_SELECTOR_PUT(pos, WPA_AUTH_KEY_MGMT_PSK_OVER_802_1X);
  73:C:/Users/stapi/OneDrive/Desktop/GD32VW553/V1_MQTT_OK/GD32VW55X_Wifi_BLE_SDK/GD32VW55x_RELEASE_V1.0.2/MSDK/wpa_supplicant/src/ap\wpa_auth_ie.c **** 		pos += WPA_SELECTOR_LEN;
  74:C:/Users/stapi/OneDrive/Desktop/GD32VW553/V1_MQTT_OK/GD32VW55X_Wifi_BLE_SDK/GD32VW55x_RELEASE_V1.0.2/MSDK/wpa_supplicant/src/ap\wpa_auth_ie.c **** 		num_suites++;
  75:C:/Users/stapi/OneDrive/Desktop/GD32VW553/V1_MQTT_OK/GD32VW55X_Wifi_BLE_SDK/GD32VW55x_RELEASE_V1.0.2/MSDK/wpa_supplicant/src/ap\wpa_auth_ie.c **** 	}
  76:C:/Users/stapi/OneDrive/Desktop/GD32VW553/V1_MQTT_OK/GD32VW55X_Wifi_BLE_SDK/GD32VW55x_RELEASE_V1.0.2/MSDK/wpa_supplicant/src/ap\wpa_auth_ie.c **** 
  77:C:/Users/stapi/OneDrive/Desktop/GD32VW553/V1_MQTT_OK/GD32VW55X_Wifi_BLE_SDK/GD32VW55x_RELEASE_V1.0.2/MSDK/wpa_supplicant/src/ap\wpa_auth_ie.c **** 	if (num_suites == 0) {
  78:C:/Users/stapi/OneDrive/Desktop/GD32VW553/V1_MQTT_OK/GD32VW55X_Wifi_BLE_SDK/GD32VW55x_RELEASE_V1.0.2/MSDK/wpa_supplicant/src/ap\wpa_auth_ie.c **** 		wpa_printf(MSG_DEBUG, "Invalid key management type (%d).",
  79:C:/Users/stapi/OneDrive/Desktop/GD32VW553/V1_MQTT_OK/GD32VW55X_Wifi_BLE_SDK/GD32VW55x_RELEASE_V1.0.2/MSDK/wpa_supplicant/src/ap\wpa_auth_ie.c **** 			   conf->wpa_key_mgmt);
  80:C:/Users/stapi/OneDrive/Desktop/GD32VW553/V1_MQTT_OK/GD32VW55X_Wifi_BLE_SDK/GD32VW55x_RELEASE_V1.0.2/MSDK/wpa_supplicant/src/ap\wpa_auth_ie.c **** 		return -1;
  81:C:/Users/stapi/OneDrive/Desktop/GD32VW553/V1_MQTT_OK/GD32VW55X_Wifi_BLE_SDK/GD32VW55x_RELEASE_V1.0.2/MSDK/wpa_supplicant/src/ap\wpa_auth_ie.c **** 	}
  82:C:/Users/stapi/OneDrive/Desktop/GD32VW553/V1_MQTT_OK/GD32VW55X_Wifi_BLE_SDK/GD32VW55x_RELEASE_V1.0.2/MSDK/wpa_supplicant/src/ap\wpa_auth_ie.c **** 	WPA_PUT_LE16(count, num_suites);
  83:C:/Users/stapi/OneDrive/Desktop/GD32VW553/V1_MQTT_OK/GD32VW55X_Wifi_BLE_SDK/GD32VW55x_RELEASE_V1.0.2/MSDK/wpa_supplicant/src/ap\wpa_auth_ie.c **** 
  84:C:/Users/stapi/OneDrive/Desktop/GD32VW553/V1_MQTT_OK/GD32VW55X_Wifi_BLE_SDK/GD32VW55x_RELEASE_V1.0.2/MSDK/wpa_supplicant/src/ap\wpa_auth_ie.c **** 	/* WPA Capabilities; use defaults, so no need to include it */
  85:C:/Users/stapi/OneDrive/Desktop/GD32VW553/V1_MQTT_OK/GD32VW55X_Wifi_BLE_SDK/GD32VW55x_RELEASE_V1.0.2/MSDK/wpa_supplicant/src/ap\wpa_auth_ie.c **** 
  86:C:/Users/stapi/OneDrive/Desktop/GD32VW553/V1_MQTT_OK/GD32VW55X_Wifi_BLE_SDK/GD32VW55x_RELEASE_V1.0.2/MSDK/wpa_supplicant/src/ap\wpa_auth_ie.c **** 	hdr->len = (pos - buf) - 2;
  87:C:/Users/stapi/OneDrive/Desktop/GD32VW553/V1_MQTT_OK/GD32VW55X_Wifi_BLE_SDK/GD32VW55x_RELEASE_V1.0.2/MSDK/wpa_supplicant/src/ap\wpa_auth_ie.c **** 
  88:C:/Users/stapi/OneDrive/Desktop/GD32VW553/V1_MQTT_OK/GD32VW55X_Wifi_BLE_SDK/GD32VW55x_RELEASE_V1.0.2/MSDK/wpa_supplicant/src/ap\wpa_auth_ie.c **** 	return pos - buf;
  89:C:/Users/stapi/OneDrive/Desktop/GD32VW553/V1_MQTT_OK/GD32VW55X_Wifi_BLE_SDK/GD32VW55x_RELEASE_V1.0.2/MSDK/wpa_supplicant/src/ap\wpa_auth_ie.c **** }
  90:C:/Users/stapi/OneDrive/Desktop/GD32VW553/V1_MQTT_OK/GD32VW55X_Wifi_BLE_SDK/GD32VW55x_RELEASE_V1.0.2/MSDK/wpa_supplicant/src/ap\wpa_auth_ie.c **** 
  91:C:/Users/stapi/OneDrive/Desktop/GD32VW553/V1_MQTT_OK/GD32VW55X_Wifi_BLE_SDK/GD32VW55x_RELEASE_V1.0.2/MSDK/wpa_supplicant/src/ap\wpa_auth_ie.c **** 
  92:C:/Users/stapi/OneDrive/Desktop/GD32VW553/V1_MQTT_OK/GD32VW55X_Wifi_BLE_SDK/GD32VW55x_RELEASE_V1.0.2/MSDK/wpa_supplicant/src/ap\wpa_auth_ie.c **** static u16 wpa_own_rsn_capab(struct wpa_auth_config *conf)
  93:C:/Users/stapi/OneDrive/Desktop/GD32VW553/V1_MQTT_OK/GD32VW55X_Wifi_BLE_SDK/GD32VW55x_RELEASE_V1.0.2/MSDK/wpa_supplicant/src/ap\wpa_auth_ie.c **** {
  94:C:/Users/stapi/OneDrive/Desktop/GD32VW553/V1_MQTT_OK/GD32VW55X_Wifi_BLE_SDK/GD32VW55x_RELEASE_V1.0.2/MSDK/wpa_supplicant/src/ap\wpa_auth_ie.c **** 	u16 capab = 0;
  95:C:/Users/stapi/OneDrive/Desktop/GD32VW553/V1_MQTT_OK/GD32VW55X_Wifi_BLE_SDK/GD32VW55x_RELEASE_V1.0.2/MSDK/wpa_supplicant/src/ap\wpa_auth_ie.c **** 
  96:C:/Users/stapi/OneDrive/Desktop/GD32VW553/V1_MQTT_OK/GD32VW55X_Wifi_BLE_SDK/GD32VW55x_RELEASE_V1.0.2/MSDK/wpa_supplicant/src/ap\wpa_auth_ie.c **** 	if (conf->rsn_preauth)
  97:C:/Users/stapi/OneDrive/Desktop/GD32VW553/V1_MQTT_OK/GD32VW55X_Wifi_BLE_SDK/GD32VW55x_RELEASE_V1.0.2/MSDK/wpa_supplicant/src/ap\wpa_auth_ie.c **** 		capab |= WPA_CAPABILITY_PREAUTH;
  98:C:/Users/stapi/OneDrive/Desktop/GD32VW553/V1_MQTT_OK/GD32VW55X_Wifi_BLE_SDK/GD32VW55x_RELEASE_V1.0.2/MSDK/wpa_supplicant/src/ap\wpa_auth_ie.c **** 	if (conf->wmm_enabled) {
  99:C:/Users/stapi/OneDrive/Desktop/GD32VW553/V1_MQTT_OK/GD32VW55X_Wifi_BLE_SDK/GD32VW55x_RELEASE_V1.0.2/MSDK/wpa_supplicant/src/ap\wpa_auth_ie.c **** 		/* 4 PTKSA replay counters when using WMM */
 100:C:/Users/stapi/OneDrive/Desktop/GD32VW553/V1_MQTT_OK/GD32VW55X_Wifi_BLE_SDK/GD32VW55x_RELEASE_V1.0.2/MSDK/wpa_supplicant/src/ap\wpa_auth_ie.c **** 		capab |= (RSN_NUM_REPLAY_COUNTERS_16 << 2);
 101:C:/Users/stapi/OneDrive/Desktop/GD32VW553/V1_MQTT_OK/GD32VW55X_Wifi_BLE_SDK/GD32VW55x_RELEASE_V1.0.2/MSDK/wpa_supplicant/src/ap\wpa_auth_ie.c **** 	}
 102:C:/Users/stapi/OneDrive/Desktop/GD32VW553/V1_MQTT_OK/GD32VW55X_Wifi_BLE_SDK/GD32VW55x_RELEASE_V1.0.2/MSDK/wpa_supplicant/src/ap\wpa_auth_ie.c **** 	if (conf->ieee80211w != NO_MGMT_FRAME_PROTECTION) {
 103:C:/Users/stapi/OneDrive/Desktop/GD32VW553/V1_MQTT_OK/GD32VW55X_Wifi_BLE_SDK/GD32VW55x_RELEASE_V1.0.2/MSDK/wpa_supplicant/src/ap\wpa_auth_ie.c **** 		capab |= WPA_CAPABILITY_MFPC;
 104:C:/Users/stapi/OneDrive/Desktop/GD32VW553/V1_MQTT_OK/GD32VW55X_Wifi_BLE_SDK/GD32VW55x_RELEASE_V1.0.2/MSDK/wpa_supplicant/src/ap\wpa_auth_ie.c **** 		if (conf->ieee80211w == MGMT_FRAME_PROTECTION_REQUIRED)
 105:C:/Users/stapi/OneDrive/Desktop/GD32VW553/V1_MQTT_OK/GD32VW55X_Wifi_BLE_SDK/GD32VW55x_RELEASE_V1.0.2/MSDK/wpa_supplicant/src/ap\wpa_auth_ie.c **** 			capab |= WPA_CAPABILITY_MFPR;
 106:C:/Users/stapi/OneDrive/Desktop/GD32VW553/V1_MQTT_OK/GD32VW55X_Wifi_BLE_SDK/GD32VW55x_RELEASE_V1.0.2/MSDK/wpa_supplicant/src/ap\wpa_auth_ie.c **** 	}
 107:C:/Users/stapi/OneDrive/Desktop/GD32VW553/V1_MQTT_OK/GD32VW55X_Wifi_BLE_SDK/GD32VW55x_RELEASE_V1.0.2/MSDK/wpa_supplicant/src/ap\wpa_auth_ie.c **** #ifdef CONFIG_OCV
 108:C:/Users/stapi/OneDrive/Desktop/GD32VW553/V1_MQTT_OK/GD32VW55X_Wifi_BLE_SDK/GD32VW55x_RELEASE_V1.0.2/MSDK/wpa_supplicant/src/ap\wpa_auth_ie.c **** 	if (conf->ocv)
 109:C:/Users/stapi/OneDrive/Desktop/GD32VW553/V1_MQTT_OK/GD32VW55X_Wifi_BLE_SDK/GD32VW55x_RELEASE_V1.0.2/MSDK/wpa_supplicant/src/ap\wpa_auth_ie.c **** 		capab |= WPA_CAPABILITY_OCVC;
 110:C:/Users/stapi/OneDrive/Desktop/GD32VW553/V1_MQTT_OK/GD32VW55X_Wifi_BLE_SDK/GD32VW55x_RELEASE_V1.0.2/MSDK/wpa_supplicant/src/ap\wpa_auth_ie.c **** #endif /* CONFIG_OCV */
 111:C:/Users/stapi/OneDrive/Desktop/GD32VW553/V1_MQTT_OK/GD32VW55X_Wifi_BLE_SDK/GD32VW55x_RELEASE_V1.0.2/MSDK/wpa_supplicant/src/ap\wpa_auth_ie.c **** #ifdef CONFIG_RSN_TESTING
 112:C:/Users/stapi/OneDrive/Desktop/GD32VW553/V1_MQTT_OK/GD32VW55X_Wifi_BLE_SDK/GD32VW55x_RELEASE_V1.0.2/MSDK/wpa_supplicant/src/ap\wpa_auth_ie.c **** 	if (rsn_testing)
 113:C:/Users/stapi/OneDrive/Desktop/GD32VW553/V1_MQTT_OK/GD32VW55X_Wifi_BLE_SDK/GD32VW55x_RELEASE_V1.0.2/MSDK/wpa_supplicant/src/ap\wpa_auth_ie.c **** 		capab |= BIT(8) | BIT(15);
 114:C:/Users/stapi/OneDrive/Desktop/GD32VW553/V1_MQTT_OK/GD32VW55X_Wifi_BLE_SDK/GD32VW55x_RELEASE_V1.0.2/MSDK/wpa_supplicant/src/ap\wpa_auth_ie.c **** #endif /* CONFIG_RSN_TESTING */
 115:C:/Users/stapi/OneDrive/Desktop/GD32VW553/V1_MQTT_OK/GD32VW55X_Wifi_BLE_SDK/GD32VW55x_RELEASE_V1.0.2/MSDK/wpa_supplicant/src/ap\wpa_auth_ie.c **** 	if (conf->extended_key_id)
 116:C:/Users/stapi/OneDrive/Desktop/GD32VW553/V1_MQTT_OK/GD32VW55X_Wifi_BLE_SDK/GD32VW55x_RELEASE_V1.0.2/MSDK/wpa_supplicant/src/ap\wpa_auth_ie.c **** 		capab |= WPA_CAPABILITY_EXT_KEY_ID_FOR_UNICAST;
 117:C:/Users/stapi/OneDrive/Desktop/GD32VW553/V1_MQTT_OK/GD32VW55X_Wifi_BLE_SDK/GD32VW55x_RELEASE_V1.0.2/MSDK/wpa_supplicant/src/ap\wpa_auth_ie.c **** 
 118:C:/Users/stapi/OneDrive/Desktop/GD32VW553/V1_MQTT_OK/GD32VW55X_Wifi_BLE_SDK/GD32VW55x_RELEASE_V1.0.2/MSDK/wpa_supplicant/src/ap\wpa_auth_ie.c **** 	return capab;
 119:C:/Users/stapi/OneDrive/Desktop/GD32VW553/V1_MQTT_OK/GD32VW55X_Wifi_BLE_SDK/GD32VW55x_RELEASE_V1.0.2/MSDK/wpa_supplicant/src/ap\wpa_auth_ie.c **** }
 120:C:/Users/stapi/OneDrive/Desktop/GD32VW553/V1_MQTT_OK/GD32VW55X_Wifi_BLE_SDK/GD32VW55x_RELEASE_V1.0.2/MSDK/wpa_supplicant/src/ap\wpa_auth_ie.c **** 
 121:C:/Users/stapi/OneDrive/Desktop/GD32VW553/V1_MQTT_OK/GD32VW55X_Wifi_BLE_SDK/GD32VW55x_RELEASE_V1.0.2/MSDK/wpa_supplicant/src/ap\wpa_auth_ie.c **** 
 122:C:/Users/stapi/OneDrive/Desktop/GD32VW553/V1_MQTT_OK/GD32VW55X_Wifi_BLE_SDK/GD32VW55x_RELEASE_V1.0.2/MSDK/wpa_supplicant/src/ap\wpa_auth_ie.c **** int wpa_write_rsn_ie(struct wpa_auth_config *conf, u8 *buf, size_t len,
 123:C:/Users/stapi/OneDrive/Desktop/GD32VW553/V1_MQTT_OK/GD32VW55X_Wifi_BLE_SDK/GD32VW55x_RELEASE_V1.0.2/MSDK/wpa_supplicant/src/ap\wpa_auth_ie.c **** 		     const u8 *pmkid)
 124:C:/Users/stapi/OneDrive/Desktop/GD32VW553/V1_MQTT_OK/GD32VW55X_Wifi_BLE_SDK/GD32VW55x_RELEASE_V1.0.2/MSDK/wpa_supplicant/src/ap\wpa_auth_ie.c **** {
 125:C:/Users/stapi/OneDrive/Desktop/GD32VW553/V1_MQTT_OK/GD32VW55X_Wifi_BLE_SDK/GD32VW55x_RELEASE_V1.0.2/MSDK/wpa_supplicant/src/ap\wpa_auth_ie.c **** 	struct rsn_ie_hdr *hdr;
 126:C:/Users/stapi/OneDrive/Desktop/GD32VW553/V1_MQTT_OK/GD32VW55X_Wifi_BLE_SDK/GD32VW55x_RELEASE_V1.0.2/MSDK/wpa_supplicant/src/ap\wpa_auth_ie.c **** 	int num_suites, res;
 127:C:/Users/stapi/OneDrive/Desktop/GD32VW553/V1_MQTT_OK/GD32VW55X_Wifi_BLE_SDK/GD32VW55x_RELEASE_V1.0.2/MSDK/wpa_supplicant/src/ap\wpa_auth_ie.c **** 	u8 *pos, *count;
 128:C:/Users/stapi/OneDrive/Desktop/GD32VW553/V1_MQTT_OK/GD32VW55X_Wifi_BLE_SDK/GD32VW55x_RELEASE_V1.0.2/MSDK/wpa_supplicant/src/ap\wpa_auth_ie.c **** 	u32 suite;
 129:C:/Users/stapi/OneDrive/Desktop/GD32VW553/V1_MQTT_OK/GD32VW55X_Wifi_BLE_SDK/GD32VW55x_RELEASE_V1.0.2/MSDK/wpa_supplicant/src/ap\wpa_auth_ie.c **** 
 130:C:/Users/stapi/OneDrive/Desktop/GD32VW553/V1_MQTT_OK/GD32VW55X_Wifi_BLE_SDK/GD32VW55x_RELEASE_V1.0.2/MSDK/wpa_supplicant/src/ap\wpa_auth_ie.c **** 	hdr = (struct rsn_ie_hdr *) buf;
 131:C:/Users/stapi/OneDrive/Desktop/GD32VW553/V1_MQTT_OK/GD32VW55X_Wifi_BLE_SDK/GD32VW55x_RELEASE_V1.0.2/MSDK/wpa_supplicant/src/ap\wpa_auth_ie.c **** 	hdr->elem_id = WLAN_EID_RSN;
 132:C:/Users/stapi/OneDrive/Desktop/GD32VW553/V1_MQTT_OK/GD32VW55X_Wifi_BLE_SDK/GD32VW55x_RELEASE_V1.0.2/MSDK/wpa_supplicant/src/ap\wpa_auth_ie.c **** 	WPA_PUT_LE16(hdr->version, RSN_VERSION);
 133:C:/Users/stapi/OneDrive/Desktop/GD32VW553/V1_MQTT_OK/GD32VW55X_Wifi_BLE_SDK/GD32VW55x_RELEASE_V1.0.2/MSDK/wpa_supplicant/src/ap\wpa_auth_ie.c **** 	pos = (u8 *) (hdr + 1);
 134:C:/Users/stapi/OneDrive/Desktop/GD32VW553/V1_MQTT_OK/GD32VW55X_Wifi_BLE_SDK/GD32VW55x_RELEASE_V1.0.2/MSDK/wpa_supplicant/src/ap\wpa_auth_ie.c **** 
 135:C:/Users/stapi/OneDrive/Desktop/GD32VW553/V1_MQTT_OK/GD32VW55X_Wifi_BLE_SDK/GD32VW55x_RELEASE_V1.0.2/MSDK/wpa_supplicant/src/ap\wpa_auth_ie.c **** 	suite = wpa_cipher_to_suite(WPA_PROTO_RSN, conf->wpa_group);
 136:C:/Users/stapi/OneDrive/Desktop/GD32VW553/V1_MQTT_OK/GD32VW55X_Wifi_BLE_SDK/GD32VW55x_RELEASE_V1.0.2/MSDK/wpa_supplicant/src/ap\wpa_auth_ie.c **** 	if (suite == 0) {
 137:C:/Users/stapi/OneDrive/Desktop/GD32VW553/V1_MQTT_OK/GD32VW55X_Wifi_BLE_SDK/GD32VW55x_RELEASE_V1.0.2/MSDK/wpa_supplicant/src/ap\wpa_auth_ie.c **** 		wpa_printf(MSG_DEBUG, "Invalid group cipher (%d).",
 138:C:/Users/stapi/OneDrive/Desktop/GD32VW553/V1_MQTT_OK/GD32VW55X_Wifi_BLE_SDK/GD32VW55x_RELEASE_V1.0.2/MSDK/wpa_supplicant/src/ap\wpa_auth_ie.c **** 			   conf->wpa_group);
 139:C:/Users/stapi/OneDrive/Desktop/GD32VW553/V1_MQTT_OK/GD32VW55X_Wifi_BLE_SDK/GD32VW55x_RELEASE_V1.0.2/MSDK/wpa_supplicant/src/ap\wpa_auth_ie.c **** 		return -1;
 140:C:/Users/stapi/OneDrive/Desktop/GD32VW553/V1_MQTT_OK/GD32VW55X_Wifi_BLE_SDK/GD32VW55x_RELEASE_V1.0.2/MSDK/wpa_supplicant/src/ap\wpa_auth_ie.c **** 	}
 141:C:/Users/stapi/OneDrive/Desktop/GD32VW553/V1_MQTT_OK/GD32VW55X_Wifi_BLE_SDK/GD32VW55x_RELEASE_V1.0.2/MSDK/wpa_supplicant/src/ap\wpa_auth_ie.c **** 	RSN_SELECTOR_PUT(pos, suite);
 142:C:/Users/stapi/OneDrive/Desktop/GD32VW553/V1_MQTT_OK/GD32VW55X_Wifi_BLE_SDK/GD32VW55x_RELEASE_V1.0.2/MSDK/wpa_supplicant/src/ap\wpa_auth_ie.c **** 	pos += RSN_SELECTOR_LEN;
 143:C:/Users/stapi/OneDrive/Desktop/GD32VW553/V1_MQTT_OK/GD32VW55X_Wifi_BLE_SDK/GD32VW55x_RELEASE_V1.0.2/MSDK/wpa_supplicant/src/ap\wpa_auth_ie.c **** 
 144:C:/Users/stapi/OneDrive/Desktop/GD32VW553/V1_MQTT_OK/GD32VW55X_Wifi_BLE_SDK/GD32VW55x_RELEASE_V1.0.2/MSDK/wpa_supplicant/src/ap\wpa_auth_ie.c **** 	num_suites = 0;
 145:C:/Users/stapi/OneDrive/Desktop/GD32VW553/V1_MQTT_OK/GD32VW55X_Wifi_BLE_SDK/GD32VW55x_RELEASE_V1.0.2/MSDK/wpa_supplicant/src/ap\wpa_auth_ie.c **** 	count = pos;
 146:C:/Users/stapi/OneDrive/Desktop/GD32VW553/V1_MQTT_OK/GD32VW55X_Wifi_BLE_SDK/GD32VW55x_RELEASE_V1.0.2/MSDK/wpa_supplicant/src/ap\wpa_auth_ie.c **** 	pos += 2;
 147:C:/Users/stapi/OneDrive/Desktop/GD32VW553/V1_MQTT_OK/GD32VW55X_Wifi_BLE_SDK/GD32VW55x_RELEASE_V1.0.2/MSDK/wpa_supplicant/src/ap\wpa_auth_ie.c **** 
 148:C:/Users/stapi/OneDrive/Desktop/GD32VW553/V1_MQTT_OK/GD32VW55X_Wifi_BLE_SDK/GD32VW55x_RELEASE_V1.0.2/MSDK/wpa_supplicant/src/ap\wpa_auth_ie.c **** #ifdef CONFIG_RSN_TESTING
 149:C:/Users/stapi/OneDrive/Desktop/GD32VW553/V1_MQTT_OK/GD32VW55X_Wifi_BLE_SDK/GD32VW55x_RELEASE_V1.0.2/MSDK/wpa_supplicant/src/ap\wpa_auth_ie.c **** 	if (rsn_testing) {
 150:C:/Users/stapi/OneDrive/Desktop/GD32VW553/V1_MQTT_OK/GD32VW55X_Wifi_BLE_SDK/GD32VW55x_RELEASE_V1.0.2/MSDK/wpa_supplicant/src/ap\wpa_auth_ie.c **** 		RSN_SELECTOR_PUT(pos, RSN_SELECTOR(0x12, 0x34, 0x56, 1));
 151:C:/Users/stapi/OneDrive/Desktop/GD32VW553/V1_MQTT_OK/GD32VW55X_Wifi_BLE_SDK/GD32VW55x_RELEASE_V1.0.2/MSDK/wpa_supplicant/src/ap\wpa_auth_ie.c **** 		pos += RSN_SELECTOR_LEN;
 152:C:/Users/stapi/OneDrive/Desktop/GD32VW553/V1_MQTT_OK/GD32VW55X_Wifi_BLE_SDK/GD32VW55x_RELEASE_V1.0.2/MSDK/wpa_supplicant/src/ap\wpa_auth_ie.c **** 		num_suites++;
 153:C:/Users/stapi/OneDrive/Desktop/GD32VW553/V1_MQTT_OK/GD32VW55X_Wifi_BLE_SDK/GD32VW55x_RELEASE_V1.0.2/MSDK/wpa_supplicant/src/ap\wpa_auth_ie.c **** 	}
 154:C:/Users/stapi/OneDrive/Desktop/GD32VW553/V1_MQTT_OK/GD32VW55X_Wifi_BLE_SDK/GD32VW55x_RELEASE_V1.0.2/MSDK/wpa_supplicant/src/ap\wpa_auth_ie.c **** #endif /* CONFIG_RSN_TESTING */
 155:C:/Users/stapi/OneDrive/Desktop/GD32VW553/V1_MQTT_OK/GD32VW55X_Wifi_BLE_SDK/GD32VW55x_RELEASE_V1.0.2/MSDK/wpa_supplicant/src/ap\wpa_auth_ie.c **** 
 156:C:/Users/stapi/OneDrive/Desktop/GD32VW553/V1_MQTT_OK/GD32VW55X_Wifi_BLE_SDK/GD32VW55x_RELEASE_V1.0.2/MSDK/wpa_supplicant/src/ap\wpa_auth_ie.c **** 	res = rsn_cipher_put_suites(pos, conf->rsn_pairwise);
 157:C:/Users/stapi/OneDrive/Desktop/GD32VW553/V1_MQTT_OK/GD32VW55X_Wifi_BLE_SDK/GD32VW55x_RELEASE_V1.0.2/MSDK/wpa_supplicant/src/ap\wpa_auth_ie.c **** 	num_suites += res;
 158:C:/Users/stapi/OneDrive/Desktop/GD32VW553/V1_MQTT_OK/GD32VW55X_Wifi_BLE_SDK/GD32VW55x_RELEASE_V1.0.2/MSDK/wpa_supplicant/src/ap\wpa_auth_ie.c **** 	pos += res * RSN_SELECTOR_LEN;
 159:C:/Users/stapi/OneDrive/Desktop/GD32VW553/V1_MQTT_OK/GD32VW55X_Wifi_BLE_SDK/GD32VW55x_RELEASE_V1.0.2/MSDK/wpa_supplicant/src/ap\wpa_auth_ie.c **** 
 160:C:/Users/stapi/OneDrive/Desktop/GD32VW553/V1_MQTT_OK/GD32VW55X_Wifi_BLE_SDK/GD32VW55x_RELEASE_V1.0.2/MSDK/wpa_supplicant/src/ap\wpa_auth_ie.c **** #ifdef CONFIG_RSN_TESTING
 161:C:/Users/stapi/OneDrive/Desktop/GD32VW553/V1_MQTT_OK/GD32VW55X_Wifi_BLE_SDK/GD32VW55x_RELEASE_V1.0.2/MSDK/wpa_supplicant/src/ap\wpa_auth_ie.c **** 	if (rsn_testing) {
 162:C:/Users/stapi/OneDrive/Desktop/GD32VW553/V1_MQTT_OK/GD32VW55X_Wifi_BLE_SDK/GD32VW55x_RELEASE_V1.0.2/MSDK/wpa_supplicant/src/ap\wpa_auth_ie.c **** 		RSN_SELECTOR_PUT(pos, RSN_SELECTOR(0x12, 0x34, 0x56, 2));
 163:C:/Users/stapi/OneDrive/Desktop/GD32VW553/V1_MQTT_OK/GD32VW55X_Wifi_BLE_SDK/GD32VW55x_RELEASE_V1.0.2/MSDK/wpa_supplicant/src/ap\wpa_auth_ie.c **** 		pos += RSN_SELECTOR_LEN;
 164:C:/Users/stapi/OneDrive/Desktop/GD32VW553/V1_MQTT_OK/GD32VW55X_Wifi_BLE_SDK/GD32VW55x_RELEASE_V1.0.2/MSDK/wpa_supplicant/src/ap\wpa_auth_ie.c **** 		num_suites++;
 165:C:/Users/stapi/OneDrive/Desktop/GD32VW553/V1_MQTT_OK/GD32VW55X_Wifi_BLE_SDK/GD32VW55x_RELEASE_V1.0.2/MSDK/wpa_supplicant/src/ap\wpa_auth_ie.c **** 	}
 166:C:/Users/stapi/OneDrive/Desktop/GD32VW553/V1_MQTT_OK/GD32VW55X_Wifi_BLE_SDK/GD32VW55x_RELEASE_V1.0.2/MSDK/wpa_supplicant/src/ap\wpa_auth_ie.c **** #endif /* CONFIG_RSN_TESTING */
 167:C:/Users/stapi/OneDrive/Desktop/GD32VW553/V1_MQTT_OK/GD32VW55X_Wifi_BLE_SDK/GD32VW55x_RELEASE_V1.0.2/MSDK/wpa_supplicant/src/ap\wpa_auth_ie.c **** 
 168:C:/Users/stapi/OneDrive/Desktop/GD32VW553/V1_MQTT_OK/GD32VW55X_Wifi_BLE_SDK/GD32VW55x_RELEASE_V1.0.2/MSDK/wpa_supplicant/src/ap\wpa_auth_ie.c **** 	if (num_suites == 0) {
 169:C:/Users/stapi/OneDrive/Desktop/GD32VW553/V1_MQTT_OK/GD32VW55X_Wifi_BLE_SDK/GD32VW55x_RELEASE_V1.0.2/MSDK/wpa_supplicant/src/ap\wpa_auth_ie.c **** 		wpa_printf(MSG_DEBUG, "Invalid pairwise cipher (%d).",
 170:C:/Users/stapi/OneDrive/Desktop/GD32VW553/V1_MQTT_OK/GD32VW55X_Wifi_BLE_SDK/GD32VW55x_RELEASE_V1.0.2/MSDK/wpa_supplicant/src/ap\wpa_auth_ie.c **** 			   conf->rsn_pairwise);
 171:C:/Users/stapi/OneDrive/Desktop/GD32VW553/V1_MQTT_OK/GD32VW55X_Wifi_BLE_SDK/GD32VW55x_RELEASE_V1.0.2/MSDK/wpa_supplicant/src/ap\wpa_auth_ie.c **** 		return -1;
 172:C:/Users/stapi/OneDrive/Desktop/GD32VW553/V1_MQTT_OK/GD32VW55X_Wifi_BLE_SDK/GD32VW55x_RELEASE_V1.0.2/MSDK/wpa_supplicant/src/ap\wpa_auth_ie.c **** 	}
 173:C:/Users/stapi/OneDrive/Desktop/GD32VW553/V1_MQTT_OK/GD32VW55X_Wifi_BLE_SDK/GD32VW55x_RELEASE_V1.0.2/MSDK/wpa_supplicant/src/ap\wpa_auth_ie.c **** 	WPA_PUT_LE16(count, num_suites);
 174:C:/Users/stapi/OneDrive/Desktop/GD32VW553/V1_MQTT_OK/GD32VW55X_Wifi_BLE_SDK/GD32VW55x_RELEASE_V1.0.2/MSDK/wpa_supplicant/src/ap\wpa_auth_ie.c **** 
 175:C:/Users/stapi/OneDrive/Desktop/GD32VW553/V1_MQTT_OK/GD32VW55X_Wifi_BLE_SDK/GD32VW55x_RELEASE_V1.0.2/MSDK/wpa_supplicant/src/ap\wpa_auth_ie.c **** 	num_suites = 0;
 176:C:/Users/stapi/OneDrive/Desktop/GD32VW553/V1_MQTT_OK/GD32VW55X_Wifi_BLE_SDK/GD32VW55x_RELEASE_V1.0.2/MSDK/wpa_supplicant/src/ap\wpa_auth_ie.c **** 	count = pos;
 177:C:/Users/stapi/OneDrive/Desktop/GD32VW553/V1_MQTT_OK/GD32VW55X_Wifi_BLE_SDK/GD32VW55x_RELEASE_V1.0.2/MSDK/wpa_supplicant/src/ap\wpa_auth_ie.c **** 	pos += 2;
 178:C:/Users/stapi/OneDrive/Desktop/GD32VW553/V1_MQTT_OK/GD32VW55X_Wifi_BLE_SDK/GD32VW55x_RELEASE_V1.0.2/MSDK/wpa_supplicant/src/ap\wpa_auth_ie.c **** 
 179:C:/Users/stapi/OneDrive/Desktop/GD32VW553/V1_MQTT_OK/GD32VW55X_Wifi_BLE_SDK/GD32VW55x_RELEASE_V1.0.2/MSDK/wpa_supplicant/src/ap\wpa_auth_ie.c **** #ifdef CONFIG_RSN_TESTING
 180:C:/Users/stapi/OneDrive/Desktop/GD32VW553/V1_MQTT_OK/GD32VW55X_Wifi_BLE_SDK/GD32VW55x_RELEASE_V1.0.2/MSDK/wpa_supplicant/src/ap\wpa_auth_ie.c **** 	if (rsn_testing) {
 181:C:/Users/stapi/OneDrive/Desktop/GD32VW553/V1_MQTT_OK/GD32VW55X_Wifi_BLE_SDK/GD32VW55x_RELEASE_V1.0.2/MSDK/wpa_supplicant/src/ap\wpa_auth_ie.c **** 		RSN_SELECTOR_PUT(pos, RSN_SELECTOR(0x12, 0x34, 0x56, 1));
 182:C:/Users/stapi/OneDrive/Desktop/GD32VW553/V1_MQTT_OK/GD32VW55X_Wifi_BLE_SDK/GD32VW55x_RELEASE_V1.0.2/MSDK/wpa_supplicant/src/ap\wpa_auth_ie.c **** 		pos += RSN_SELECTOR_LEN;
 183:C:/Users/stapi/OneDrive/Desktop/GD32VW553/V1_MQTT_OK/GD32VW55X_Wifi_BLE_SDK/GD32VW55x_RELEASE_V1.0.2/MSDK/wpa_supplicant/src/ap\wpa_auth_ie.c **** 		num_suites++;
 184:C:/Users/stapi/OneDrive/Desktop/GD32VW553/V1_MQTT_OK/GD32VW55X_Wifi_BLE_SDK/GD32VW55x_RELEASE_V1.0.2/MSDK/wpa_supplicant/src/ap\wpa_auth_ie.c **** 	}
 185:C:/Users/stapi/OneDrive/Desktop/GD32VW553/V1_MQTT_OK/GD32VW55X_Wifi_BLE_SDK/GD32VW55x_RELEASE_V1.0.2/MSDK/wpa_supplicant/src/ap\wpa_auth_ie.c **** #endif /* CONFIG_RSN_TESTING */
 186:C:/Users/stapi/OneDrive/Desktop/GD32VW553/V1_MQTT_OK/GD32VW55X_Wifi_BLE_SDK/GD32VW55x_RELEASE_V1.0.2/MSDK/wpa_supplicant/src/ap\wpa_auth_ie.c **** 
 187:C:/Users/stapi/OneDrive/Desktop/GD32VW553/V1_MQTT_OK/GD32VW55X_Wifi_BLE_SDK/GD32VW55x_RELEASE_V1.0.2/MSDK/wpa_supplicant/src/ap\wpa_auth_ie.c **** 	if (conf->wpa_key_mgmt & WPA_KEY_MGMT_IEEE8021X) {
 188:C:/Users/stapi/OneDrive/Desktop/GD32VW553/V1_MQTT_OK/GD32VW55X_Wifi_BLE_SDK/GD32VW55x_RELEASE_V1.0.2/MSDK/wpa_supplicant/src/ap\wpa_auth_ie.c **** 		RSN_SELECTOR_PUT(pos, RSN_AUTH_KEY_MGMT_UNSPEC_802_1X);
 189:C:/Users/stapi/OneDrive/Desktop/GD32VW553/V1_MQTT_OK/GD32VW55X_Wifi_BLE_SDK/GD32VW55x_RELEASE_V1.0.2/MSDK/wpa_supplicant/src/ap\wpa_auth_ie.c **** 		pos += RSN_SELECTOR_LEN;
 190:C:/Users/stapi/OneDrive/Desktop/GD32VW553/V1_MQTT_OK/GD32VW55X_Wifi_BLE_SDK/GD32VW55x_RELEASE_V1.0.2/MSDK/wpa_supplicant/src/ap\wpa_auth_ie.c **** 		num_suites++;
 191:C:/Users/stapi/OneDrive/Desktop/GD32VW553/V1_MQTT_OK/GD32VW55X_Wifi_BLE_SDK/GD32VW55x_RELEASE_V1.0.2/MSDK/wpa_supplicant/src/ap\wpa_auth_ie.c **** 	}
 192:C:/Users/stapi/OneDrive/Desktop/GD32VW553/V1_MQTT_OK/GD32VW55X_Wifi_BLE_SDK/GD32VW55x_RELEASE_V1.0.2/MSDK/wpa_supplicant/src/ap\wpa_auth_ie.c **** 	if (conf->wpa_key_mgmt & WPA_KEY_MGMT_PSK) {
 193:C:/Users/stapi/OneDrive/Desktop/GD32VW553/V1_MQTT_OK/GD32VW55X_Wifi_BLE_SDK/GD32VW55x_RELEASE_V1.0.2/MSDK/wpa_supplicant/src/ap\wpa_auth_ie.c **** 		RSN_SELECTOR_PUT(pos, RSN_AUTH_KEY_MGMT_PSK_OVER_802_1X);
 194:C:/Users/stapi/OneDrive/Desktop/GD32VW553/V1_MQTT_OK/GD32VW55X_Wifi_BLE_SDK/GD32VW55x_RELEASE_V1.0.2/MSDK/wpa_supplicant/src/ap\wpa_auth_ie.c **** 		pos += RSN_SELECTOR_LEN;
 195:C:/Users/stapi/OneDrive/Desktop/GD32VW553/V1_MQTT_OK/GD32VW55X_Wifi_BLE_SDK/GD32VW55x_RELEASE_V1.0.2/MSDK/wpa_supplicant/src/ap\wpa_auth_ie.c **** 		num_suites++;
 196:C:/Users/stapi/OneDrive/Desktop/GD32VW553/V1_MQTT_OK/GD32VW55X_Wifi_BLE_SDK/GD32VW55x_RELEASE_V1.0.2/MSDK/wpa_supplicant/src/ap\wpa_auth_ie.c **** 	}
 197:C:/Users/stapi/OneDrive/Desktop/GD32VW553/V1_MQTT_OK/GD32VW55X_Wifi_BLE_SDK/GD32VW55x_RELEASE_V1.0.2/MSDK/wpa_supplicant/src/ap\wpa_auth_ie.c **** #ifdef CONFIG_IEEE80211R_AP
 198:C:/Users/stapi/OneDrive/Desktop/GD32VW553/V1_MQTT_OK/GD32VW55X_Wifi_BLE_SDK/GD32VW55x_RELEASE_V1.0.2/MSDK/wpa_supplicant/src/ap\wpa_auth_ie.c **** 	if (conf->wpa_key_mgmt & WPA_KEY_MGMT_FT_IEEE8021X) {
 199:C:/Users/stapi/OneDrive/Desktop/GD32VW553/V1_MQTT_OK/GD32VW55X_Wifi_BLE_SDK/GD32VW55x_RELEASE_V1.0.2/MSDK/wpa_supplicant/src/ap\wpa_auth_ie.c **** 		RSN_SELECTOR_PUT(pos, RSN_AUTH_KEY_MGMT_FT_802_1X);
 200:C:/Users/stapi/OneDrive/Desktop/GD32VW553/V1_MQTT_OK/GD32VW55X_Wifi_BLE_SDK/GD32VW55x_RELEASE_V1.0.2/MSDK/wpa_supplicant/src/ap\wpa_auth_ie.c **** 		pos += RSN_SELECTOR_LEN;
 201:C:/Users/stapi/OneDrive/Desktop/GD32VW553/V1_MQTT_OK/GD32VW55X_Wifi_BLE_SDK/GD32VW55x_RELEASE_V1.0.2/MSDK/wpa_supplicant/src/ap\wpa_auth_ie.c **** 		num_suites++;
 202:C:/Users/stapi/OneDrive/Desktop/GD32VW553/V1_MQTT_OK/GD32VW55X_Wifi_BLE_SDK/GD32VW55x_RELEASE_V1.0.2/MSDK/wpa_supplicant/src/ap\wpa_auth_ie.c **** 	}
 203:C:/Users/stapi/OneDrive/Desktop/GD32VW553/V1_MQTT_OK/GD32VW55X_Wifi_BLE_SDK/GD32VW55x_RELEASE_V1.0.2/MSDK/wpa_supplicant/src/ap\wpa_auth_ie.c **** #ifdef CONFIG_SHA384
 204:C:/Users/stapi/OneDrive/Desktop/GD32VW553/V1_MQTT_OK/GD32VW55X_Wifi_BLE_SDK/GD32VW55x_RELEASE_V1.0.2/MSDK/wpa_supplicant/src/ap\wpa_auth_ie.c **** 	if (conf->wpa_key_mgmt & WPA_KEY_MGMT_FT_IEEE8021X_SHA384) {
 205:C:/Users/stapi/OneDrive/Desktop/GD32VW553/V1_MQTT_OK/GD32VW55X_Wifi_BLE_SDK/GD32VW55x_RELEASE_V1.0.2/MSDK/wpa_supplicant/src/ap\wpa_auth_ie.c **** 		RSN_SELECTOR_PUT(pos, RSN_AUTH_KEY_MGMT_FT_802_1X_SHA384);
 206:C:/Users/stapi/OneDrive/Desktop/GD32VW553/V1_MQTT_OK/GD32VW55X_Wifi_BLE_SDK/GD32VW55x_RELEASE_V1.0.2/MSDK/wpa_supplicant/src/ap\wpa_auth_ie.c **** 		pos += RSN_SELECTOR_LEN;
 207:C:/Users/stapi/OneDrive/Desktop/GD32VW553/V1_MQTT_OK/GD32VW55X_Wifi_BLE_SDK/GD32VW55x_RELEASE_V1.0.2/MSDK/wpa_supplicant/src/ap\wpa_auth_ie.c **** 		num_suites++;
 208:C:/Users/stapi/OneDrive/Desktop/GD32VW553/V1_MQTT_OK/GD32VW55X_Wifi_BLE_SDK/GD32VW55x_RELEASE_V1.0.2/MSDK/wpa_supplicant/src/ap\wpa_auth_ie.c **** 	}
 209:C:/Users/stapi/OneDrive/Desktop/GD32VW553/V1_MQTT_OK/GD32VW55X_Wifi_BLE_SDK/GD32VW55x_RELEASE_V1.0.2/MSDK/wpa_supplicant/src/ap\wpa_auth_ie.c **** #endif /* CONFIG_SHA384 */
 210:C:/Users/stapi/OneDrive/Desktop/GD32VW553/V1_MQTT_OK/GD32VW55X_Wifi_BLE_SDK/GD32VW55x_RELEASE_V1.0.2/MSDK/wpa_supplicant/src/ap\wpa_auth_ie.c **** 	if (conf->wpa_key_mgmt & WPA_KEY_MGMT_FT_PSK) {
 211:C:/Users/stapi/OneDrive/Desktop/GD32VW553/V1_MQTT_OK/GD32VW55X_Wifi_BLE_SDK/GD32VW55x_RELEASE_V1.0.2/MSDK/wpa_supplicant/src/ap\wpa_auth_ie.c **** 		RSN_SELECTOR_PUT(pos, RSN_AUTH_KEY_MGMT_FT_PSK);
 212:C:/Users/stapi/OneDrive/Desktop/GD32VW553/V1_MQTT_OK/GD32VW55X_Wifi_BLE_SDK/GD32VW55x_RELEASE_V1.0.2/MSDK/wpa_supplicant/src/ap\wpa_auth_ie.c **** 		pos += RSN_SELECTOR_LEN;
 213:C:/Users/stapi/OneDrive/Desktop/GD32VW553/V1_MQTT_OK/GD32VW55X_Wifi_BLE_SDK/GD32VW55x_RELEASE_V1.0.2/MSDK/wpa_supplicant/src/ap\wpa_auth_ie.c **** 		num_suites++;
 214:C:/Users/stapi/OneDrive/Desktop/GD32VW553/V1_MQTT_OK/GD32VW55X_Wifi_BLE_SDK/GD32VW55x_RELEASE_V1.0.2/MSDK/wpa_supplicant/src/ap\wpa_auth_ie.c **** 	}
 215:C:/Users/stapi/OneDrive/Desktop/GD32VW553/V1_MQTT_OK/GD32VW55X_Wifi_BLE_SDK/GD32VW55x_RELEASE_V1.0.2/MSDK/wpa_supplicant/src/ap\wpa_auth_ie.c **** #endif /* CONFIG_IEEE80211R_AP */
 216:C:/Users/stapi/OneDrive/Desktop/GD32VW553/V1_MQTT_OK/GD32VW55X_Wifi_BLE_SDK/GD32VW55x_RELEASE_V1.0.2/MSDK/wpa_supplicant/src/ap\wpa_auth_ie.c **** 	if (conf->wpa_key_mgmt & WPA_KEY_MGMT_IEEE8021X_SHA256) {
 217:C:/Users/stapi/OneDrive/Desktop/GD32VW553/V1_MQTT_OK/GD32VW55X_Wifi_BLE_SDK/GD32VW55x_RELEASE_V1.0.2/MSDK/wpa_supplicant/src/ap\wpa_auth_ie.c **** 		RSN_SELECTOR_PUT(pos, RSN_AUTH_KEY_MGMT_802_1X_SHA256);
 218:C:/Users/stapi/OneDrive/Desktop/GD32VW553/V1_MQTT_OK/GD32VW55X_Wifi_BLE_SDK/GD32VW55x_RELEASE_V1.0.2/MSDK/wpa_supplicant/src/ap\wpa_auth_ie.c **** 		pos += RSN_SELECTOR_LEN;
 219:C:/Users/stapi/OneDrive/Desktop/GD32VW553/V1_MQTT_OK/GD32VW55X_Wifi_BLE_SDK/GD32VW55x_RELEASE_V1.0.2/MSDK/wpa_supplicant/src/ap\wpa_auth_ie.c **** 		num_suites++;
 220:C:/Users/stapi/OneDrive/Desktop/GD32VW553/V1_MQTT_OK/GD32VW55X_Wifi_BLE_SDK/GD32VW55x_RELEASE_V1.0.2/MSDK/wpa_supplicant/src/ap\wpa_auth_ie.c **** 	}
 221:C:/Users/stapi/OneDrive/Desktop/GD32VW553/V1_MQTT_OK/GD32VW55X_Wifi_BLE_SDK/GD32VW55x_RELEASE_V1.0.2/MSDK/wpa_supplicant/src/ap\wpa_auth_ie.c **** 	if (conf->wpa_key_mgmt & WPA_KEY_MGMT_PSK_SHA256) {
 222:C:/Users/stapi/OneDrive/Desktop/GD32VW553/V1_MQTT_OK/GD32VW55X_Wifi_BLE_SDK/GD32VW55x_RELEASE_V1.0.2/MSDK/wpa_supplicant/src/ap\wpa_auth_ie.c **** 		RSN_SELECTOR_PUT(pos, RSN_AUTH_KEY_MGMT_PSK_SHA256);
 223:C:/Users/stapi/OneDrive/Desktop/GD32VW553/V1_MQTT_OK/GD32VW55X_Wifi_BLE_SDK/GD32VW55x_RELEASE_V1.0.2/MSDK/wpa_supplicant/src/ap\wpa_auth_ie.c **** 		pos += RSN_SELECTOR_LEN;
 224:C:/Users/stapi/OneDrive/Desktop/GD32VW553/V1_MQTT_OK/GD32VW55X_Wifi_BLE_SDK/GD32VW55x_RELEASE_V1.0.2/MSDK/wpa_supplicant/src/ap\wpa_auth_ie.c **** 		num_suites++;
 225:C:/Users/stapi/OneDrive/Desktop/GD32VW553/V1_MQTT_OK/GD32VW55X_Wifi_BLE_SDK/GD32VW55x_RELEASE_V1.0.2/MSDK/wpa_supplicant/src/ap\wpa_auth_ie.c **** 	}
 226:C:/Users/stapi/OneDrive/Desktop/GD32VW553/V1_MQTT_OK/GD32VW55X_Wifi_BLE_SDK/GD32VW55x_RELEASE_V1.0.2/MSDK/wpa_supplicant/src/ap\wpa_auth_ie.c **** #ifdef CONFIG_SAE
 227:C:/Users/stapi/OneDrive/Desktop/GD32VW553/V1_MQTT_OK/GD32VW55X_Wifi_BLE_SDK/GD32VW55x_RELEASE_V1.0.2/MSDK/wpa_supplicant/src/ap\wpa_auth_ie.c **** 	if (conf->wpa_key_mgmt & WPA_KEY_MGMT_SAE) {
 228:C:/Users/stapi/OneDrive/Desktop/GD32VW553/V1_MQTT_OK/GD32VW55X_Wifi_BLE_SDK/GD32VW55x_RELEASE_V1.0.2/MSDK/wpa_supplicant/src/ap\wpa_auth_ie.c **** 		RSN_SELECTOR_PUT(pos, RSN_AUTH_KEY_MGMT_SAE);
 229:C:/Users/stapi/OneDrive/Desktop/GD32VW553/V1_MQTT_OK/GD32VW55X_Wifi_BLE_SDK/GD32VW55x_RELEASE_V1.0.2/MSDK/wpa_supplicant/src/ap\wpa_auth_ie.c **** 		pos += RSN_SELECTOR_LEN;
 230:C:/Users/stapi/OneDrive/Desktop/GD32VW553/V1_MQTT_OK/GD32VW55X_Wifi_BLE_SDK/GD32VW55x_RELEASE_V1.0.2/MSDK/wpa_supplicant/src/ap\wpa_auth_ie.c **** 		num_suites++;
 231:C:/Users/stapi/OneDrive/Desktop/GD32VW553/V1_MQTT_OK/GD32VW55X_Wifi_BLE_SDK/GD32VW55x_RELEASE_V1.0.2/MSDK/wpa_supplicant/src/ap\wpa_auth_ie.c **** 	}
 232:C:/Users/stapi/OneDrive/Desktop/GD32VW553/V1_MQTT_OK/GD32VW55X_Wifi_BLE_SDK/GD32VW55x_RELEASE_V1.0.2/MSDK/wpa_supplicant/src/ap\wpa_auth_ie.c **** 	if (conf->wpa_key_mgmt & WPA_KEY_MGMT_FT_SAE) {
 233:C:/Users/stapi/OneDrive/Desktop/GD32VW553/V1_MQTT_OK/GD32VW55X_Wifi_BLE_SDK/GD32VW55x_RELEASE_V1.0.2/MSDK/wpa_supplicant/src/ap\wpa_auth_ie.c **** 		RSN_SELECTOR_PUT(pos, RSN_AUTH_KEY_MGMT_FT_SAE);
 234:C:/Users/stapi/OneDrive/Desktop/GD32VW553/V1_MQTT_OK/GD32VW55X_Wifi_BLE_SDK/GD32VW55x_RELEASE_V1.0.2/MSDK/wpa_supplicant/src/ap\wpa_auth_ie.c **** 		pos += RSN_SELECTOR_LEN;
 235:C:/Users/stapi/OneDrive/Desktop/GD32VW553/V1_MQTT_OK/GD32VW55X_Wifi_BLE_SDK/GD32VW55x_RELEASE_V1.0.2/MSDK/wpa_supplicant/src/ap\wpa_auth_ie.c **** 		num_suites++;
 236:C:/Users/stapi/OneDrive/Desktop/GD32VW553/V1_MQTT_OK/GD32VW55X_Wifi_BLE_SDK/GD32VW55x_RELEASE_V1.0.2/MSDK/wpa_supplicant/src/ap\wpa_auth_ie.c **** 	}
 237:C:/Users/stapi/OneDrive/Desktop/GD32VW553/V1_MQTT_OK/GD32VW55X_Wifi_BLE_SDK/GD32VW55x_RELEASE_V1.0.2/MSDK/wpa_supplicant/src/ap\wpa_auth_ie.c **** #endif /* CONFIG_SAE */
 238:C:/Users/stapi/OneDrive/Desktop/GD32VW553/V1_MQTT_OK/GD32VW55X_Wifi_BLE_SDK/GD32VW55x_RELEASE_V1.0.2/MSDK/wpa_supplicant/src/ap\wpa_auth_ie.c **** 	if (conf->wpa_key_mgmt & WPA_KEY_MGMT_IEEE8021X_SUITE_B) {
 239:C:/Users/stapi/OneDrive/Desktop/GD32VW553/V1_MQTT_OK/GD32VW55X_Wifi_BLE_SDK/GD32VW55x_RELEASE_V1.0.2/MSDK/wpa_supplicant/src/ap\wpa_auth_ie.c **** 		RSN_SELECTOR_PUT(pos, RSN_AUTH_KEY_MGMT_802_1X_SUITE_B);
 240:C:/Users/stapi/OneDrive/Desktop/GD32VW553/V1_MQTT_OK/GD32VW55X_Wifi_BLE_SDK/GD32VW55x_RELEASE_V1.0.2/MSDK/wpa_supplicant/src/ap\wpa_auth_ie.c **** 		pos += RSN_SELECTOR_LEN;
 241:C:/Users/stapi/OneDrive/Desktop/GD32VW553/V1_MQTT_OK/GD32VW55X_Wifi_BLE_SDK/GD32VW55x_RELEASE_V1.0.2/MSDK/wpa_supplicant/src/ap\wpa_auth_ie.c **** 		num_suites++;
 242:C:/Users/stapi/OneDrive/Desktop/GD32VW553/V1_MQTT_OK/GD32VW55X_Wifi_BLE_SDK/GD32VW55x_RELEASE_V1.0.2/MSDK/wpa_supplicant/src/ap\wpa_auth_ie.c **** 	}
 243:C:/Users/stapi/OneDrive/Desktop/GD32VW553/V1_MQTT_OK/GD32VW55X_Wifi_BLE_SDK/GD32VW55x_RELEASE_V1.0.2/MSDK/wpa_supplicant/src/ap\wpa_auth_ie.c **** 	if (conf->wpa_key_mgmt & WPA_KEY_MGMT_IEEE8021X_SUITE_B_192) {
 244:C:/Users/stapi/OneDrive/Desktop/GD32VW553/V1_MQTT_OK/GD32VW55X_Wifi_BLE_SDK/GD32VW55x_RELEASE_V1.0.2/MSDK/wpa_supplicant/src/ap\wpa_auth_ie.c **** 		RSN_SELECTOR_PUT(pos, RSN_AUTH_KEY_MGMT_802_1X_SUITE_B_192);
 245:C:/Users/stapi/OneDrive/Desktop/GD32VW553/V1_MQTT_OK/GD32VW55X_Wifi_BLE_SDK/GD32VW55x_RELEASE_V1.0.2/MSDK/wpa_supplicant/src/ap\wpa_auth_ie.c **** 		pos += RSN_SELECTOR_LEN;
 246:C:/Users/stapi/OneDrive/Desktop/GD32VW553/V1_MQTT_OK/GD32VW55X_Wifi_BLE_SDK/GD32VW55x_RELEASE_V1.0.2/MSDK/wpa_supplicant/src/ap\wpa_auth_ie.c **** 		num_suites++;
 247:C:/Users/stapi/OneDrive/Desktop/GD32VW553/V1_MQTT_OK/GD32VW55X_Wifi_BLE_SDK/GD32VW55x_RELEASE_V1.0.2/MSDK/wpa_supplicant/src/ap\wpa_auth_ie.c **** 	}
 248:C:/Users/stapi/OneDrive/Desktop/GD32VW553/V1_MQTT_OK/GD32VW55X_Wifi_BLE_SDK/GD32VW55x_RELEASE_V1.0.2/MSDK/wpa_supplicant/src/ap\wpa_auth_ie.c **** #ifdef CONFIG_FILS
 249:C:/Users/stapi/OneDrive/Desktop/GD32VW553/V1_MQTT_OK/GD32VW55X_Wifi_BLE_SDK/GD32VW55x_RELEASE_V1.0.2/MSDK/wpa_supplicant/src/ap\wpa_auth_ie.c **** 	if (conf->wpa_key_mgmt & WPA_KEY_MGMT_FILS_SHA256) {
 250:C:/Users/stapi/OneDrive/Desktop/GD32VW553/V1_MQTT_OK/GD32VW55X_Wifi_BLE_SDK/GD32VW55x_RELEASE_V1.0.2/MSDK/wpa_supplicant/src/ap\wpa_auth_ie.c **** 		RSN_SELECTOR_PUT(pos, RSN_AUTH_KEY_MGMT_FILS_SHA256);
 251:C:/Users/stapi/OneDrive/Desktop/GD32VW553/V1_MQTT_OK/GD32VW55X_Wifi_BLE_SDK/GD32VW55x_RELEASE_V1.0.2/MSDK/wpa_supplicant/src/ap\wpa_auth_ie.c **** 		pos += RSN_SELECTOR_LEN;
 252:C:/Users/stapi/OneDrive/Desktop/GD32VW553/V1_MQTT_OK/GD32VW55X_Wifi_BLE_SDK/GD32VW55x_RELEASE_V1.0.2/MSDK/wpa_supplicant/src/ap\wpa_auth_ie.c **** 		num_suites++;
 253:C:/Users/stapi/OneDrive/Desktop/GD32VW553/V1_MQTT_OK/GD32VW55X_Wifi_BLE_SDK/GD32VW55x_RELEASE_V1.0.2/MSDK/wpa_supplicant/src/ap\wpa_auth_ie.c **** 	}
 254:C:/Users/stapi/OneDrive/Desktop/GD32VW553/V1_MQTT_OK/GD32VW55X_Wifi_BLE_SDK/GD32VW55x_RELEASE_V1.0.2/MSDK/wpa_supplicant/src/ap\wpa_auth_ie.c **** 	if (conf->wpa_key_mgmt & WPA_KEY_MGMT_FILS_SHA384) {
 255:C:/Users/stapi/OneDrive/Desktop/GD32VW553/V1_MQTT_OK/GD32VW55X_Wifi_BLE_SDK/GD32VW55x_RELEASE_V1.0.2/MSDK/wpa_supplicant/src/ap\wpa_auth_ie.c **** 		RSN_SELECTOR_PUT(pos, RSN_AUTH_KEY_MGMT_FILS_SHA384);
 256:C:/Users/stapi/OneDrive/Desktop/GD32VW553/V1_MQTT_OK/GD32VW55X_Wifi_BLE_SDK/GD32VW55x_RELEASE_V1.0.2/MSDK/wpa_supplicant/src/ap\wpa_auth_ie.c **** 		pos += RSN_SELECTOR_LEN;
 257:C:/Users/stapi/OneDrive/Desktop/GD32VW553/V1_MQTT_OK/GD32VW55X_Wifi_BLE_SDK/GD32VW55x_RELEASE_V1.0.2/MSDK/wpa_supplicant/src/ap\wpa_auth_ie.c **** 		num_suites++;
 258:C:/Users/stapi/OneDrive/Desktop/GD32VW553/V1_MQTT_OK/GD32VW55X_Wifi_BLE_SDK/GD32VW55x_RELEASE_V1.0.2/MSDK/wpa_supplicant/src/ap\wpa_auth_ie.c **** 	}
 259:C:/Users/stapi/OneDrive/Desktop/GD32VW553/V1_MQTT_OK/GD32VW55X_Wifi_BLE_SDK/GD32VW55x_RELEASE_V1.0.2/MSDK/wpa_supplicant/src/ap\wpa_auth_ie.c **** #ifdef CONFIG_IEEE80211R_AP
 260:C:/Users/stapi/OneDrive/Desktop/GD32VW553/V1_MQTT_OK/GD32VW55X_Wifi_BLE_SDK/GD32VW55x_RELEASE_V1.0.2/MSDK/wpa_supplicant/src/ap\wpa_auth_ie.c **** 	if (conf->wpa_key_mgmt & WPA_KEY_MGMT_FT_FILS_SHA256) {
 261:C:/Users/stapi/OneDrive/Desktop/GD32VW553/V1_MQTT_OK/GD32VW55X_Wifi_BLE_SDK/GD32VW55x_RELEASE_V1.0.2/MSDK/wpa_supplicant/src/ap\wpa_auth_ie.c **** 		RSN_SELECTOR_PUT(pos, RSN_AUTH_KEY_MGMT_FT_FILS_SHA256);
 262:C:/Users/stapi/OneDrive/Desktop/GD32VW553/V1_MQTT_OK/GD32VW55X_Wifi_BLE_SDK/GD32VW55x_RELEASE_V1.0.2/MSDK/wpa_supplicant/src/ap\wpa_auth_ie.c **** 		pos += RSN_SELECTOR_LEN;
 263:C:/Users/stapi/OneDrive/Desktop/GD32VW553/V1_MQTT_OK/GD32VW55X_Wifi_BLE_SDK/GD32VW55x_RELEASE_V1.0.2/MSDK/wpa_supplicant/src/ap\wpa_auth_ie.c **** 		num_suites++;
 264:C:/Users/stapi/OneDrive/Desktop/GD32VW553/V1_MQTT_OK/GD32VW55X_Wifi_BLE_SDK/GD32VW55x_RELEASE_V1.0.2/MSDK/wpa_supplicant/src/ap\wpa_auth_ie.c **** 	}
 265:C:/Users/stapi/OneDrive/Desktop/GD32VW553/V1_MQTT_OK/GD32VW55X_Wifi_BLE_SDK/GD32VW55x_RELEASE_V1.0.2/MSDK/wpa_supplicant/src/ap\wpa_auth_ie.c **** 	if (conf->wpa_key_mgmt & WPA_KEY_MGMT_FT_FILS_SHA384) {
 266:C:/Users/stapi/OneDrive/Desktop/GD32VW553/V1_MQTT_OK/GD32VW55X_Wifi_BLE_SDK/GD32VW55x_RELEASE_V1.0.2/MSDK/wpa_supplicant/src/ap\wpa_auth_ie.c **** 		RSN_SELECTOR_PUT(pos, RSN_AUTH_KEY_MGMT_FT_FILS_SHA384);
 267:C:/Users/stapi/OneDrive/Desktop/GD32VW553/V1_MQTT_OK/GD32VW55X_Wifi_BLE_SDK/GD32VW55x_RELEASE_V1.0.2/MSDK/wpa_supplicant/src/ap\wpa_auth_ie.c **** 		pos += RSN_SELECTOR_LEN;
 268:C:/Users/stapi/OneDrive/Desktop/GD32VW553/V1_MQTT_OK/GD32VW55X_Wifi_BLE_SDK/GD32VW55x_RELEASE_V1.0.2/MSDK/wpa_supplicant/src/ap\wpa_auth_ie.c **** 		num_suites++;
 269:C:/Users/stapi/OneDrive/Desktop/GD32VW553/V1_MQTT_OK/GD32VW55X_Wifi_BLE_SDK/GD32VW55x_RELEASE_V1.0.2/MSDK/wpa_supplicant/src/ap\wpa_auth_ie.c **** 	}
 270:C:/Users/stapi/OneDrive/Desktop/GD32VW553/V1_MQTT_OK/GD32VW55X_Wifi_BLE_SDK/GD32VW55x_RELEASE_V1.0.2/MSDK/wpa_supplicant/src/ap\wpa_auth_ie.c **** #endif /* CONFIG_IEEE80211R_AP */
 271:C:/Users/stapi/OneDrive/Desktop/GD32VW553/V1_MQTT_OK/GD32VW55X_Wifi_BLE_SDK/GD32VW55x_RELEASE_V1.0.2/MSDK/wpa_supplicant/src/ap\wpa_auth_ie.c **** #endif /* CONFIG_FILS */
 272:C:/Users/stapi/OneDrive/Desktop/GD32VW553/V1_MQTT_OK/GD32VW55X_Wifi_BLE_SDK/GD32VW55x_RELEASE_V1.0.2/MSDK/wpa_supplicant/src/ap\wpa_auth_ie.c **** #ifdef CONFIG_OWE
 273:C:/Users/stapi/OneDrive/Desktop/GD32VW553/V1_MQTT_OK/GD32VW55X_Wifi_BLE_SDK/GD32VW55x_RELEASE_V1.0.2/MSDK/wpa_supplicant/src/ap\wpa_auth_ie.c **** 	if (conf->wpa_key_mgmt & WPA_KEY_MGMT_OWE) {
 274:C:/Users/stapi/OneDrive/Desktop/GD32VW553/V1_MQTT_OK/GD32VW55X_Wifi_BLE_SDK/GD32VW55x_RELEASE_V1.0.2/MSDK/wpa_supplicant/src/ap\wpa_auth_ie.c **** 		RSN_SELECTOR_PUT(pos, RSN_AUTH_KEY_MGMT_OWE);
 275:C:/Users/stapi/OneDrive/Desktop/GD32VW553/V1_MQTT_OK/GD32VW55X_Wifi_BLE_SDK/GD32VW55x_RELEASE_V1.0.2/MSDK/wpa_supplicant/src/ap\wpa_auth_ie.c **** 		pos += RSN_SELECTOR_LEN;
 276:C:/Users/stapi/OneDrive/Desktop/GD32VW553/V1_MQTT_OK/GD32VW55X_Wifi_BLE_SDK/GD32VW55x_RELEASE_V1.0.2/MSDK/wpa_supplicant/src/ap\wpa_auth_ie.c **** 		num_suites++;
 277:C:/Users/stapi/OneDrive/Desktop/GD32VW553/V1_MQTT_OK/GD32VW55X_Wifi_BLE_SDK/GD32VW55x_RELEASE_V1.0.2/MSDK/wpa_supplicant/src/ap\wpa_auth_ie.c **** 	}
 278:C:/Users/stapi/OneDrive/Desktop/GD32VW553/V1_MQTT_OK/GD32VW55X_Wifi_BLE_SDK/GD32VW55x_RELEASE_V1.0.2/MSDK/wpa_supplicant/src/ap\wpa_auth_ie.c **** #endif /* CONFIG_OWE */
 279:C:/Users/stapi/OneDrive/Desktop/GD32VW553/V1_MQTT_OK/GD32VW55X_Wifi_BLE_SDK/GD32VW55x_RELEASE_V1.0.2/MSDK/wpa_supplicant/src/ap\wpa_auth_ie.c **** #ifdef CONFIG_DPP
 280:C:/Users/stapi/OneDrive/Desktop/GD32VW553/V1_MQTT_OK/GD32VW55X_Wifi_BLE_SDK/GD32VW55x_RELEASE_V1.0.2/MSDK/wpa_supplicant/src/ap\wpa_auth_ie.c **** 	if (conf->wpa_key_mgmt & WPA_KEY_MGMT_DPP) {
 281:C:/Users/stapi/OneDrive/Desktop/GD32VW553/V1_MQTT_OK/GD32VW55X_Wifi_BLE_SDK/GD32VW55x_RELEASE_V1.0.2/MSDK/wpa_supplicant/src/ap\wpa_auth_ie.c **** 		RSN_SELECTOR_PUT(pos, RSN_AUTH_KEY_MGMT_DPP);
 282:C:/Users/stapi/OneDrive/Desktop/GD32VW553/V1_MQTT_OK/GD32VW55X_Wifi_BLE_SDK/GD32VW55x_RELEASE_V1.0.2/MSDK/wpa_supplicant/src/ap\wpa_auth_ie.c **** 		pos += RSN_SELECTOR_LEN;
 283:C:/Users/stapi/OneDrive/Desktop/GD32VW553/V1_MQTT_OK/GD32VW55X_Wifi_BLE_SDK/GD32VW55x_RELEASE_V1.0.2/MSDK/wpa_supplicant/src/ap\wpa_auth_ie.c **** 		num_suites++;
 284:C:/Users/stapi/OneDrive/Desktop/GD32VW553/V1_MQTT_OK/GD32VW55X_Wifi_BLE_SDK/GD32VW55x_RELEASE_V1.0.2/MSDK/wpa_supplicant/src/ap\wpa_auth_ie.c **** 	}
 285:C:/Users/stapi/OneDrive/Desktop/GD32VW553/V1_MQTT_OK/GD32VW55X_Wifi_BLE_SDK/GD32VW55x_RELEASE_V1.0.2/MSDK/wpa_supplicant/src/ap\wpa_auth_ie.c **** #endif /* CONFIG_DPP */
 286:C:/Users/stapi/OneDrive/Desktop/GD32VW553/V1_MQTT_OK/GD32VW55X_Wifi_BLE_SDK/GD32VW55x_RELEASE_V1.0.2/MSDK/wpa_supplicant/src/ap\wpa_auth_ie.c **** #ifdef CONFIG_HS20
 287:C:/Users/stapi/OneDrive/Desktop/GD32VW553/V1_MQTT_OK/GD32VW55X_Wifi_BLE_SDK/GD32VW55x_RELEASE_V1.0.2/MSDK/wpa_supplicant/src/ap\wpa_auth_ie.c **** 	if (conf->wpa_key_mgmt & WPA_KEY_MGMT_OSEN) {
 288:C:/Users/stapi/OneDrive/Desktop/GD32VW553/V1_MQTT_OK/GD32VW55X_Wifi_BLE_SDK/GD32VW55x_RELEASE_V1.0.2/MSDK/wpa_supplicant/src/ap\wpa_auth_ie.c **** 		RSN_SELECTOR_PUT(pos, RSN_AUTH_KEY_MGMT_OSEN);
 289:C:/Users/stapi/OneDrive/Desktop/GD32VW553/V1_MQTT_OK/GD32VW55X_Wifi_BLE_SDK/GD32VW55x_RELEASE_V1.0.2/MSDK/wpa_supplicant/src/ap\wpa_auth_ie.c **** 		pos += RSN_SELECTOR_LEN;
 290:C:/Users/stapi/OneDrive/Desktop/GD32VW553/V1_MQTT_OK/GD32VW55X_Wifi_BLE_SDK/GD32VW55x_RELEASE_V1.0.2/MSDK/wpa_supplicant/src/ap\wpa_auth_ie.c **** 		num_suites++;
 291:C:/Users/stapi/OneDrive/Desktop/GD32VW553/V1_MQTT_OK/GD32VW55X_Wifi_BLE_SDK/GD32VW55x_RELEASE_V1.0.2/MSDK/wpa_supplicant/src/ap\wpa_auth_ie.c **** 	}
 292:C:/Users/stapi/OneDrive/Desktop/GD32VW553/V1_MQTT_OK/GD32VW55X_Wifi_BLE_SDK/GD32VW55x_RELEASE_V1.0.2/MSDK/wpa_supplicant/src/ap\wpa_auth_ie.c **** #endif /* CONFIG_HS20 */
 293:C:/Users/stapi/OneDrive/Desktop/GD32VW553/V1_MQTT_OK/GD32VW55X_Wifi_BLE_SDK/GD32VW55x_RELEASE_V1.0.2/MSDK/wpa_supplicant/src/ap\wpa_auth_ie.c **** #ifdef CONFIG_PASN
 294:C:/Users/stapi/OneDrive/Desktop/GD32VW553/V1_MQTT_OK/GD32VW55X_Wifi_BLE_SDK/GD32VW55x_RELEASE_V1.0.2/MSDK/wpa_supplicant/src/ap\wpa_auth_ie.c **** 	if (conf->wpa_key_mgmt & WPA_KEY_MGMT_PASN) {
 295:C:/Users/stapi/OneDrive/Desktop/GD32VW553/V1_MQTT_OK/GD32VW55X_Wifi_BLE_SDK/GD32VW55x_RELEASE_V1.0.2/MSDK/wpa_supplicant/src/ap\wpa_auth_ie.c **** 		RSN_SELECTOR_PUT(pos, RSN_AUTH_KEY_MGMT_PASN);
 296:C:/Users/stapi/OneDrive/Desktop/GD32VW553/V1_MQTT_OK/GD32VW55X_Wifi_BLE_SDK/GD32VW55x_RELEASE_V1.0.2/MSDK/wpa_supplicant/src/ap\wpa_auth_ie.c **** 		pos += RSN_SELECTOR_LEN;
 297:C:/Users/stapi/OneDrive/Desktop/GD32VW553/V1_MQTT_OK/GD32VW55X_Wifi_BLE_SDK/GD32VW55x_RELEASE_V1.0.2/MSDK/wpa_supplicant/src/ap\wpa_auth_ie.c **** 		num_suites++;
 298:C:/Users/stapi/OneDrive/Desktop/GD32VW553/V1_MQTT_OK/GD32VW55X_Wifi_BLE_SDK/GD32VW55x_RELEASE_V1.0.2/MSDK/wpa_supplicant/src/ap\wpa_auth_ie.c **** 	}
 299:C:/Users/stapi/OneDrive/Desktop/GD32VW553/V1_MQTT_OK/GD32VW55X_Wifi_BLE_SDK/GD32VW55x_RELEASE_V1.0.2/MSDK/wpa_supplicant/src/ap\wpa_auth_ie.c **** #endif /* CONFIG_PASN */
 300:C:/Users/stapi/OneDrive/Desktop/GD32VW553/V1_MQTT_OK/GD32VW55X_Wifi_BLE_SDK/GD32VW55x_RELEASE_V1.0.2/MSDK/wpa_supplicant/src/ap\wpa_auth_ie.c **** 
 301:C:/Users/stapi/OneDrive/Desktop/GD32VW553/V1_MQTT_OK/GD32VW55X_Wifi_BLE_SDK/GD32VW55x_RELEASE_V1.0.2/MSDK/wpa_supplicant/src/ap\wpa_auth_ie.c **** #ifdef CONFIG_RSN_TESTING
 302:C:/Users/stapi/OneDrive/Desktop/GD32VW553/V1_MQTT_OK/GD32VW55X_Wifi_BLE_SDK/GD32VW55x_RELEASE_V1.0.2/MSDK/wpa_supplicant/src/ap\wpa_auth_ie.c **** 	if (rsn_testing) {
 303:C:/Users/stapi/OneDrive/Desktop/GD32VW553/V1_MQTT_OK/GD32VW55X_Wifi_BLE_SDK/GD32VW55x_RELEASE_V1.0.2/MSDK/wpa_supplicant/src/ap\wpa_auth_ie.c **** 		RSN_SELECTOR_PUT(pos, RSN_SELECTOR(0x12, 0x34, 0x56, 2));
 304:C:/Users/stapi/OneDrive/Desktop/GD32VW553/V1_MQTT_OK/GD32VW55X_Wifi_BLE_SDK/GD32VW55x_RELEASE_V1.0.2/MSDK/wpa_supplicant/src/ap\wpa_auth_ie.c **** 		pos += RSN_SELECTOR_LEN;
 305:C:/Users/stapi/OneDrive/Desktop/GD32VW553/V1_MQTT_OK/GD32VW55X_Wifi_BLE_SDK/GD32VW55x_RELEASE_V1.0.2/MSDK/wpa_supplicant/src/ap\wpa_auth_ie.c **** 		num_suites++;
 306:C:/Users/stapi/OneDrive/Desktop/GD32VW553/V1_MQTT_OK/GD32VW55X_Wifi_BLE_SDK/GD32VW55x_RELEASE_V1.0.2/MSDK/wpa_supplicant/src/ap\wpa_auth_ie.c **** 	}
 307:C:/Users/stapi/OneDrive/Desktop/GD32VW553/V1_MQTT_OK/GD32VW55X_Wifi_BLE_SDK/GD32VW55x_RELEASE_V1.0.2/MSDK/wpa_supplicant/src/ap\wpa_auth_ie.c **** #endif /* CONFIG_RSN_TESTING */
 308:C:/Users/stapi/OneDrive/Desktop/GD32VW553/V1_MQTT_OK/GD32VW55X_Wifi_BLE_SDK/GD32VW55x_RELEASE_V1.0.2/MSDK/wpa_supplicant/src/ap\wpa_auth_ie.c **** 
 309:C:/Users/stapi/OneDrive/Desktop/GD32VW553/V1_MQTT_OK/GD32VW55X_Wifi_BLE_SDK/GD32VW55x_RELEASE_V1.0.2/MSDK/wpa_supplicant/src/ap\wpa_auth_ie.c **** 	if (num_suites == 0) {
 310:C:/Users/stapi/OneDrive/Desktop/GD32VW553/V1_MQTT_OK/GD32VW55X_Wifi_BLE_SDK/GD32VW55x_RELEASE_V1.0.2/MSDK/wpa_supplicant/src/ap\wpa_auth_ie.c **** 		wpa_printf(MSG_DEBUG, "Invalid key management type (%d).",
 311:C:/Users/stapi/OneDrive/Desktop/GD32VW553/V1_MQTT_OK/GD32VW55X_Wifi_BLE_SDK/GD32VW55x_RELEASE_V1.0.2/MSDK/wpa_supplicant/src/ap\wpa_auth_ie.c **** 			   conf->wpa_key_mgmt);
 312:C:/Users/stapi/OneDrive/Desktop/GD32VW553/V1_MQTT_OK/GD32VW55X_Wifi_BLE_SDK/GD32VW55x_RELEASE_V1.0.2/MSDK/wpa_supplicant/src/ap\wpa_auth_ie.c **** 		return -1;
 313:C:/Users/stapi/OneDrive/Desktop/GD32VW553/V1_MQTT_OK/GD32VW55X_Wifi_BLE_SDK/GD32VW55x_RELEASE_V1.0.2/MSDK/wpa_supplicant/src/ap\wpa_auth_ie.c **** 	}
 314:C:/Users/stapi/OneDrive/Desktop/GD32VW553/V1_MQTT_OK/GD32VW55X_Wifi_BLE_SDK/GD32VW55x_RELEASE_V1.0.2/MSDK/wpa_supplicant/src/ap\wpa_auth_ie.c **** 	WPA_PUT_LE16(count, num_suites);
 315:C:/Users/stapi/OneDrive/Desktop/GD32VW553/V1_MQTT_OK/GD32VW55X_Wifi_BLE_SDK/GD32VW55x_RELEASE_V1.0.2/MSDK/wpa_supplicant/src/ap\wpa_auth_ie.c **** 
 316:C:/Users/stapi/OneDrive/Desktop/GD32VW553/V1_MQTT_OK/GD32VW55X_Wifi_BLE_SDK/GD32VW55x_RELEASE_V1.0.2/MSDK/wpa_supplicant/src/ap\wpa_auth_ie.c **** 	/* RSN Capabilities */
 317:C:/Users/stapi/OneDrive/Desktop/GD32VW553/V1_MQTT_OK/GD32VW55X_Wifi_BLE_SDK/GD32VW55x_RELEASE_V1.0.2/MSDK/wpa_supplicant/src/ap\wpa_auth_ie.c **** 	WPA_PUT_LE16(pos, wpa_own_rsn_capab(conf));
 318:C:/Users/stapi/OneDrive/Desktop/GD32VW553/V1_MQTT_OK/GD32VW55X_Wifi_BLE_SDK/GD32VW55x_RELEASE_V1.0.2/MSDK/wpa_supplicant/src/ap\wpa_auth_ie.c **** 	pos += 2;
 319:C:/Users/stapi/OneDrive/Desktop/GD32VW553/V1_MQTT_OK/GD32VW55X_Wifi_BLE_SDK/GD32VW55x_RELEASE_V1.0.2/MSDK/wpa_supplicant/src/ap\wpa_auth_ie.c **** 
 320:C:/Users/stapi/OneDrive/Desktop/GD32VW553/V1_MQTT_OK/GD32VW55X_Wifi_BLE_SDK/GD32VW55x_RELEASE_V1.0.2/MSDK/wpa_supplicant/src/ap\wpa_auth_ie.c **** 	if (pmkid) {
 321:C:/Users/stapi/OneDrive/Desktop/GD32VW553/V1_MQTT_OK/GD32VW55X_Wifi_BLE_SDK/GD32VW55x_RELEASE_V1.0.2/MSDK/wpa_supplicant/src/ap\wpa_auth_ie.c **** 		if (2 + PMKID_LEN > buf + len - pos)
 322:C:/Users/stapi/OneDrive/Desktop/GD32VW553/V1_MQTT_OK/GD32VW55X_Wifi_BLE_SDK/GD32VW55x_RELEASE_V1.0.2/MSDK/wpa_supplicant/src/ap\wpa_auth_ie.c **** 			return -1;
 323:C:/Users/stapi/OneDrive/Desktop/GD32VW553/V1_MQTT_OK/GD32VW55X_Wifi_BLE_SDK/GD32VW55x_RELEASE_V1.0.2/MSDK/wpa_supplicant/src/ap\wpa_auth_ie.c **** 		/* PMKID Count */
 324:C:/Users/stapi/OneDrive/Desktop/GD32VW553/V1_MQTT_OK/GD32VW55X_Wifi_BLE_SDK/GD32VW55x_RELEASE_V1.0.2/MSDK/wpa_supplicant/src/ap\wpa_auth_ie.c **** 		WPA_PUT_LE16(pos, 1);
 325:C:/Users/stapi/OneDrive/Desktop/GD32VW553/V1_MQTT_OK/GD32VW55X_Wifi_BLE_SDK/GD32VW55x_RELEASE_V1.0.2/MSDK/wpa_supplicant/src/ap\wpa_auth_ie.c **** 		pos += 2;
 326:C:/Users/stapi/OneDrive/Desktop/GD32VW553/V1_MQTT_OK/GD32VW55X_Wifi_BLE_SDK/GD32VW55x_RELEASE_V1.0.2/MSDK/wpa_supplicant/src/ap\wpa_auth_ie.c **** 		os_memcpy(pos, pmkid, PMKID_LEN);
 327:C:/Users/stapi/OneDrive/Desktop/GD32VW553/V1_MQTT_OK/GD32VW55X_Wifi_BLE_SDK/GD32VW55x_RELEASE_V1.0.2/MSDK/wpa_supplicant/src/ap\wpa_auth_ie.c **** 		pos += PMKID_LEN;
 328:C:/Users/stapi/OneDrive/Desktop/GD32VW553/V1_MQTT_OK/GD32VW55X_Wifi_BLE_SDK/GD32VW55x_RELEASE_V1.0.2/MSDK/wpa_supplicant/src/ap\wpa_auth_ie.c **** 	}
 329:C:/Users/stapi/OneDrive/Desktop/GD32VW553/V1_MQTT_OK/GD32VW55X_Wifi_BLE_SDK/GD32VW55x_RELEASE_V1.0.2/MSDK/wpa_supplicant/src/ap\wpa_auth_ie.c **** 
 330:C:/Users/stapi/OneDrive/Desktop/GD32VW553/V1_MQTT_OK/GD32VW55X_Wifi_BLE_SDK/GD32VW55x_RELEASE_V1.0.2/MSDK/wpa_supplicant/src/ap\wpa_auth_ie.c **** 	if (conf->ieee80211w != NO_MGMT_FRAME_PROTECTION &&
 331:C:/Users/stapi/OneDrive/Desktop/GD32VW553/V1_MQTT_OK/GD32VW55X_Wifi_BLE_SDK/GD32VW55x_RELEASE_V1.0.2/MSDK/wpa_supplicant/src/ap\wpa_auth_ie.c **** 	    conf->group_mgmt_cipher != WPA_CIPHER_AES_128_CMAC) {
 332:C:/Users/stapi/OneDrive/Desktop/GD32VW553/V1_MQTT_OK/GD32VW55X_Wifi_BLE_SDK/GD32VW55x_RELEASE_V1.0.2/MSDK/wpa_supplicant/src/ap\wpa_auth_ie.c **** 		if (2 + 4 > buf + len - pos)
 333:C:/Users/stapi/OneDrive/Desktop/GD32VW553/V1_MQTT_OK/GD32VW55X_Wifi_BLE_SDK/GD32VW55x_RELEASE_V1.0.2/MSDK/wpa_supplicant/src/ap\wpa_auth_ie.c **** 			return -1;
 334:C:/Users/stapi/OneDrive/Desktop/GD32VW553/V1_MQTT_OK/GD32VW55X_Wifi_BLE_SDK/GD32VW55x_RELEASE_V1.0.2/MSDK/wpa_supplicant/src/ap\wpa_auth_ie.c **** 		if (pmkid == NULL) {
 335:C:/Users/stapi/OneDrive/Desktop/GD32VW553/V1_MQTT_OK/GD32VW55X_Wifi_BLE_SDK/GD32VW55x_RELEASE_V1.0.2/MSDK/wpa_supplicant/src/ap\wpa_auth_ie.c **** 			/* PMKID Count */
 336:C:/Users/stapi/OneDrive/Desktop/GD32VW553/V1_MQTT_OK/GD32VW55X_Wifi_BLE_SDK/GD32VW55x_RELEASE_V1.0.2/MSDK/wpa_supplicant/src/ap\wpa_auth_ie.c **** 			WPA_PUT_LE16(pos, 0);
 337:C:/Users/stapi/OneDrive/Desktop/GD32VW553/V1_MQTT_OK/GD32VW55X_Wifi_BLE_SDK/GD32VW55x_RELEASE_V1.0.2/MSDK/wpa_supplicant/src/ap\wpa_auth_ie.c **** 			pos += 2;
 338:C:/Users/stapi/OneDrive/Desktop/GD32VW553/V1_MQTT_OK/GD32VW55X_Wifi_BLE_SDK/GD32VW55x_RELEASE_V1.0.2/MSDK/wpa_supplicant/src/ap\wpa_auth_ie.c **** 		}
 339:C:/Users/stapi/OneDrive/Desktop/GD32VW553/V1_MQTT_OK/GD32VW55X_Wifi_BLE_SDK/GD32VW55x_RELEASE_V1.0.2/MSDK/wpa_supplicant/src/ap\wpa_auth_ie.c **** 
 340:C:/Users/stapi/OneDrive/Desktop/GD32VW553/V1_MQTT_OK/GD32VW55X_Wifi_BLE_SDK/GD32VW55x_RELEASE_V1.0.2/MSDK/wpa_supplicant/src/ap\wpa_auth_ie.c **** 		/* Management Group Cipher Suite */
 341:C:/Users/stapi/OneDrive/Desktop/GD32VW553/V1_MQTT_OK/GD32VW55X_Wifi_BLE_SDK/GD32VW55x_RELEASE_V1.0.2/MSDK/wpa_supplicant/src/ap\wpa_auth_ie.c **** 		switch (conf->group_mgmt_cipher) {
 342:C:/Users/stapi/OneDrive/Desktop/GD32VW553/V1_MQTT_OK/GD32VW55X_Wifi_BLE_SDK/GD32VW55x_RELEASE_V1.0.2/MSDK/wpa_supplicant/src/ap\wpa_auth_ie.c **** 		case WPA_CIPHER_AES_128_CMAC:
 343:C:/Users/stapi/OneDrive/Desktop/GD32VW553/V1_MQTT_OK/GD32VW55X_Wifi_BLE_SDK/GD32VW55x_RELEASE_V1.0.2/MSDK/wpa_supplicant/src/ap\wpa_auth_ie.c **** 			RSN_SELECTOR_PUT(pos, RSN_CIPHER_SUITE_AES_128_CMAC);
 344:C:/Users/stapi/OneDrive/Desktop/GD32VW553/V1_MQTT_OK/GD32VW55X_Wifi_BLE_SDK/GD32VW55x_RELEASE_V1.0.2/MSDK/wpa_supplicant/src/ap\wpa_auth_ie.c **** 			break;
 345:C:/Users/stapi/OneDrive/Desktop/GD32VW553/V1_MQTT_OK/GD32VW55X_Wifi_BLE_SDK/GD32VW55x_RELEASE_V1.0.2/MSDK/wpa_supplicant/src/ap\wpa_auth_ie.c **** 		case WPA_CIPHER_BIP_GMAC_128:
 346:C:/Users/stapi/OneDrive/Desktop/GD32VW553/V1_MQTT_OK/GD32VW55X_Wifi_BLE_SDK/GD32VW55x_RELEASE_V1.0.2/MSDK/wpa_supplicant/src/ap\wpa_auth_ie.c **** 			RSN_SELECTOR_PUT(pos, RSN_CIPHER_SUITE_BIP_GMAC_128);
 347:C:/Users/stapi/OneDrive/Desktop/GD32VW553/V1_MQTT_OK/GD32VW55X_Wifi_BLE_SDK/GD32VW55x_RELEASE_V1.0.2/MSDK/wpa_supplicant/src/ap\wpa_auth_ie.c **** 			break;
 348:C:/Users/stapi/OneDrive/Desktop/GD32VW553/V1_MQTT_OK/GD32VW55X_Wifi_BLE_SDK/GD32VW55x_RELEASE_V1.0.2/MSDK/wpa_supplicant/src/ap\wpa_auth_ie.c **** 		case WPA_CIPHER_BIP_GMAC_256:
 349:C:/Users/stapi/OneDrive/Desktop/GD32VW553/V1_MQTT_OK/GD32VW55X_Wifi_BLE_SDK/GD32VW55x_RELEASE_V1.0.2/MSDK/wpa_supplicant/src/ap\wpa_auth_ie.c **** 			RSN_SELECTOR_PUT(pos, RSN_CIPHER_SUITE_BIP_GMAC_256);
 350:C:/Users/stapi/OneDrive/Desktop/GD32VW553/V1_MQTT_OK/GD32VW55X_Wifi_BLE_SDK/GD32VW55x_RELEASE_V1.0.2/MSDK/wpa_supplicant/src/ap\wpa_auth_ie.c **** 			break;
 351:C:/Users/stapi/OneDrive/Desktop/GD32VW553/V1_MQTT_OK/GD32VW55X_Wifi_BLE_SDK/GD32VW55x_RELEASE_V1.0.2/MSDK/wpa_supplicant/src/ap\wpa_auth_ie.c **** 		case WPA_CIPHER_BIP_CMAC_256:
 352:C:/Users/stapi/OneDrive/Desktop/GD32VW553/V1_MQTT_OK/GD32VW55X_Wifi_BLE_SDK/GD32VW55x_RELEASE_V1.0.2/MSDK/wpa_supplicant/src/ap\wpa_auth_ie.c **** 			RSN_SELECTOR_PUT(pos, RSN_CIPHER_SUITE_BIP_CMAC_256);
 353:C:/Users/stapi/OneDrive/Desktop/GD32VW553/V1_MQTT_OK/GD32VW55X_Wifi_BLE_SDK/GD32VW55x_RELEASE_V1.0.2/MSDK/wpa_supplicant/src/ap\wpa_auth_ie.c **** 			break;
 354:C:/Users/stapi/OneDrive/Desktop/GD32VW553/V1_MQTT_OK/GD32VW55X_Wifi_BLE_SDK/GD32VW55x_RELEASE_V1.0.2/MSDK/wpa_supplicant/src/ap\wpa_auth_ie.c **** 		default:
 355:C:/Users/stapi/OneDrive/Desktop/GD32VW553/V1_MQTT_OK/GD32VW55X_Wifi_BLE_SDK/GD32VW55x_RELEASE_V1.0.2/MSDK/wpa_supplicant/src/ap\wpa_auth_ie.c **** 			wpa_printf(MSG_DEBUG,
 356:C:/Users/stapi/OneDrive/Desktop/GD32VW553/V1_MQTT_OK/GD32VW55X_Wifi_BLE_SDK/GD32VW55x_RELEASE_V1.0.2/MSDK/wpa_supplicant/src/ap\wpa_auth_ie.c **** 				   "Invalid group management cipher (0x%x)",
 357:C:/Users/stapi/OneDrive/Desktop/GD32VW553/V1_MQTT_OK/GD32VW55X_Wifi_BLE_SDK/GD32VW55x_RELEASE_V1.0.2/MSDK/wpa_supplicant/src/ap\wpa_auth_ie.c **** 				   conf->group_mgmt_cipher);
 358:C:/Users/stapi/OneDrive/Desktop/GD32VW553/V1_MQTT_OK/GD32VW55X_Wifi_BLE_SDK/GD32VW55x_RELEASE_V1.0.2/MSDK/wpa_supplicant/src/ap\wpa_auth_ie.c **** 			return -1;
 359:C:/Users/stapi/OneDrive/Desktop/GD32VW553/V1_MQTT_OK/GD32VW55X_Wifi_BLE_SDK/GD32VW55x_RELEASE_V1.0.2/MSDK/wpa_supplicant/src/ap\wpa_auth_ie.c **** 		}
 360:C:/Users/stapi/OneDrive/Desktop/GD32VW553/V1_MQTT_OK/GD32VW55X_Wifi_BLE_SDK/GD32VW55x_RELEASE_V1.0.2/MSDK/wpa_supplicant/src/ap\wpa_auth_ie.c **** 		pos += RSN_SELECTOR_LEN;
 361:C:/Users/stapi/OneDrive/Desktop/GD32VW553/V1_MQTT_OK/GD32VW55X_Wifi_BLE_SDK/GD32VW55x_RELEASE_V1.0.2/MSDK/wpa_supplicant/src/ap\wpa_auth_ie.c **** 	}
 362:C:/Users/stapi/OneDrive/Desktop/GD32VW553/V1_MQTT_OK/GD32VW55X_Wifi_BLE_SDK/GD32VW55x_RELEASE_V1.0.2/MSDK/wpa_supplicant/src/ap\wpa_auth_ie.c **** 
 363:C:/Users/stapi/OneDrive/Desktop/GD32VW553/V1_MQTT_OK/GD32VW55X_Wifi_BLE_SDK/GD32VW55x_RELEASE_V1.0.2/MSDK/wpa_supplicant/src/ap\wpa_auth_ie.c **** #ifdef CONFIG_RSN_TESTING
 364:C:/Users/stapi/OneDrive/Desktop/GD32VW553/V1_MQTT_OK/GD32VW55X_Wifi_BLE_SDK/GD32VW55x_RELEASE_V1.0.2/MSDK/wpa_supplicant/src/ap\wpa_auth_ie.c **** 	if (rsn_testing) {
 365:C:/Users/stapi/OneDrive/Desktop/GD32VW553/V1_MQTT_OK/GD32VW55X_Wifi_BLE_SDK/GD32VW55x_RELEASE_V1.0.2/MSDK/wpa_supplicant/src/ap\wpa_auth_ie.c **** 		/*
 366:C:/Users/stapi/OneDrive/Desktop/GD32VW553/V1_MQTT_OK/GD32VW55X_Wifi_BLE_SDK/GD32VW55x_RELEASE_V1.0.2/MSDK/wpa_supplicant/src/ap\wpa_auth_ie.c **** 		 * Fill in any defined fields and add extra data to the end of
 367:C:/Users/stapi/OneDrive/Desktop/GD32VW553/V1_MQTT_OK/GD32VW55X_Wifi_BLE_SDK/GD32VW55x_RELEASE_V1.0.2/MSDK/wpa_supplicant/src/ap\wpa_auth_ie.c **** 		 * the element.
 368:C:/Users/stapi/OneDrive/Desktop/GD32VW553/V1_MQTT_OK/GD32VW55X_Wifi_BLE_SDK/GD32VW55x_RELEASE_V1.0.2/MSDK/wpa_supplicant/src/ap\wpa_auth_ie.c **** 		 */
 369:C:/Users/stapi/OneDrive/Desktop/GD32VW553/V1_MQTT_OK/GD32VW55X_Wifi_BLE_SDK/GD32VW55x_RELEASE_V1.0.2/MSDK/wpa_supplicant/src/ap\wpa_auth_ie.c **** 		int pmkid_count_set = pmkid != NULL;
 370:C:/Users/stapi/OneDrive/Desktop/GD32VW553/V1_MQTT_OK/GD32VW55X_Wifi_BLE_SDK/GD32VW55x_RELEASE_V1.0.2/MSDK/wpa_supplicant/src/ap\wpa_auth_ie.c **** 		if (conf->ieee80211w != NO_MGMT_FRAME_PROTECTION)
 371:C:/Users/stapi/OneDrive/Desktop/GD32VW553/V1_MQTT_OK/GD32VW55X_Wifi_BLE_SDK/GD32VW55x_RELEASE_V1.0.2/MSDK/wpa_supplicant/src/ap\wpa_auth_ie.c **** 			pmkid_count_set = 1;
 372:C:/Users/stapi/OneDrive/Desktop/GD32VW553/V1_MQTT_OK/GD32VW55X_Wifi_BLE_SDK/GD32VW55x_RELEASE_V1.0.2/MSDK/wpa_supplicant/src/ap\wpa_auth_ie.c **** 		/* PMKID Count */
 373:C:/Users/stapi/OneDrive/Desktop/GD32VW553/V1_MQTT_OK/GD32VW55X_Wifi_BLE_SDK/GD32VW55x_RELEASE_V1.0.2/MSDK/wpa_supplicant/src/ap\wpa_auth_ie.c **** 		WPA_PUT_LE16(pos, 0);
 374:C:/Users/stapi/OneDrive/Desktop/GD32VW553/V1_MQTT_OK/GD32VW55X_Wifi_BLE_SDK/GD32VW55x_RELEASE_V1.0.2/MSDK/wpa_supplicant/src/ap\wpa_auth_ie.c **** 		pos += 2;
 375:C:/Users/stapi/OneDrive/Desktop/GD32VW553/V1_MQTT_OK/GD32VW55X_Wifi_BLE_SDK/GD32VW55x_RELEASE_V1.0.2/MSDK/wpa_supplicant/src/ap\wpa_auth_ie.c **** 		if (conf->ieee80211w == NO_MGMT_FRAME_PROTECTION) {
 376:C:/Users/stapi/OneDrive/Desktop/GD32VW553/V1_MQTT_OK/GD32VW55X_Wifi_BLE_SDK/GD32VW55x_RELEASE_V1.0.2/MSDK/wpa_supplicant/src/ap\wpa_auth_ie.c **** 			/* Management Group Cipher Suite */
 377:C:/Users/stapi/OneDrive/Desktop/GD32VW553/V1_MQTT_OK/GD32VW55X_Wifi_BLE_SDK/GD32VW55x_RELEASE_V1.0.2/MSDK/wpa_supplicant/src/ap\wpa_auth_ie.c **** 			RSN_SELECTOR_PUT(pos, RSN_CIPHER_SUITE_AES_128_CMAC);
 378:C:/Users/stapi/OneDrive/Desktop/GD32VW553/V1_MQTT_OK/GD32VW55X_Wifi_BLE_SDK/GD32VW55x_RELEASE_V1.0.2/MSDK/wpa_supplicant/src/ap\wpa_auth_ie.c **** 			pos += RSN_SELECTOR_LEN;
 379:C:/Users/stapi/OneDrive/Desktop/GD32VW553/V1_MQTT_OK/GD32VW55X_Wifi_BLE_SDK/GD32VW55x_RELEASE_V1.0.2/MSDK/wpa_supplicant/src/ap\wpa_auth_ie.c **** 		}
 380:C:/Users/stapi/OneDrive/Desktop/GD32VW553/V1_MQTT_OK/GD32VW55X_Wifi_BLE_SDK/GD32VW55x_RELEASE_V1.0.2/MSDK/wpa_supplicant/src/ap\wpa_auth_ie.c **** 
 381:C:/Users/stapi/OneDrive/Desktop/GD32VW553/V1_MQTT_OK/GD32VW55X_Wifi_BLE_SDK/GD32VW55x_RELEASE_V1.0.2/MSDK/wpa_supplicant/src/ap\wpa_auth_ie.c **** 		os_memset(pos, 0x12, 17);
 382:C:/Users/stapi/OneDrive/Desktop/GD32VW553/V1_MQTT_OK/GD32VW55X_Wifi_BLE_SDK/GD32VW55x_RELEASE_V1.0.2/MSDK/wpa_supplicant/src/ap\wpa_auth_ie.c **** 		pos += 17;
 383:C:/Users/stapi/OneDrive/Desktop/GD32VW553/V1_MQTT_OK/GD32VW55X_Wifi_BLE_SDK/GD32VW55x_RELEASE_V1.0.2/MSDK/wpa_supplicant/src/ap\wpa_auth_ie.c **** 	}
 384:C:/Users/stapi/OneDrive/Desktop/GD32VW553/V1_MQTT_OK/GD32VW55X_Wifi_BLE_SDK/GD32VW55x_RELEASE_V1.0.2/MSDK/wpa_supplicant/src/ap\wpa_auth_ie.c **** #endif /* CONFIG_RSN_TESTING */
 385:C:/Users/stapi/OneDrive/Desktop/GD32VW553/V1_MQTT_OK/GD32VW55X_Wifi_BLE_SDK/GD32VW55x_RELEASE_V1.0.2/MSDK/wpa_supplicant/src/ap\wpa_auth_ie.c **** 
 386:C:/Users/stapi/OneDrive/Desktop/GD32VW553/V1_MQTT_OK/GD32VW55X_Wifi_BLE_SDK/GD32VW55x_RELEASE_V1.0.2/MSDK/wpa_supplicant/src/ap\wpa_auth_ie.c **** 	hdr->len = (pos - buf) - 2;
 387:C:/Users/stapi/OneDrive/Desktop/GD32VW553/V1_MQTT_OK/GD32VW55X_Wifi_BLE_SDK/GD32VW55x_RELEASE_V1.0.2/MSDK/wpa_supplicant/src/ap\wpa_auth_ie.c **** 
 388:C:/Users/stapi/OneDrive/Desktop/GD32VW553/V1_MQTT_OK/GD32VW55X_Wifi_BLE_SDK/GD32VW55x_RELEASE_V1.0.2/MSDK/wpa_supplicant/src/ap\wpa_auth_ie.c **** 	return pos - buf;
 389:C:/Users/stapi/OneDrive/Desktop/GD32VW553/V1_MQTT_OK/GD32VW55X_Wifi_BLE_SDK/GD32VW55x_RELEASE_V1.0.2/MSDK/wpa_supplicant/src/ap\wpa_auth_ie.c **** }
 390:C:/Users/stapi/OneDrive/Desktop/GD32VW553/V1_MQTT_OK/GD32VW55X_Wifi_BLE_SDK/GD32VW55x_RELEASE_V1.0.2/MSDK/wpa_supplicant/src/ap\wpa_auth_ie.c **** 
 391:C:/Users/stapi/OneDrive/Desktop/GD32VW553/V1_MQTT_OK/GD32VW55X_Wifi_BLE_SDK/GD32VW55x_RELEASE_V1.0.2/MSDK/wpa_supplicant/src/ap\wpa_auth_ie.c **** 
 392:C:/Users/stapi/OneDrive/Desktop/GD32VW553/V1_MQTT_OK/GD32VW55X_Wifi_BLE_SDK/GD32VW55x_RELEASE_V1.0.2/MSDK/wpa_supplicant/src/ap\wpa_auth_ie.c **** int wpa_write_rsnxe(struct wpa_auth_config *conf, u8 *buf, size_t len)
 393:C:/Users/stapi/OneDrive/Desktop/GD32VW553/V1_MQTT_OK/GD32VW55X_Wifi_BLE_SDK/GD32VW55x_RELEASE_V1.0.2/MSDK/wpa_supplicant/src/ap\wpa_auth_ie.c **** {
 394:C:/Users/stapi/OneDrive/Desktop/GD32VW553/V1_MQTT_OK/GD32VW55X_Wifi_BLE_SDK/GD32VW55x_RELEASE_V1.0.2/MSDK/wpa_supplicant/src/ap\wpa_auth_ie.c **** 	u8 *pos = buf;
 395:C:/Users/stapi/OneDrive/Desktop/GD32VW553/V1_MQTT_OK/GD32VW55X_Wifi_BLE_SDK/GD32VW55x_RELEASE_V1.0.2/MSDK/wpa_supplicant/src/ap\wpa_auth_ie.c **** 	u16 capab = 0;
 396:C:/Users/stapi/OneDrive/Desktop/GD32VW553/V1_MQTT_OK/GD32VW55X_Wifi_BLE_SDK/GD32VW55x_RELEASE_V1.0.2/MSDK/wpa_supplicant/src/ap\wpa_auth_ie.c **** 	size_t flen;
 397:C:/Users/stapi/OneDrive/Desktop/GD32VW553/V1_MQTT_OK/GD32VW55X_Wifi_BLE_SDK/GD32VW55x_RELEASE_V1.0.2/MSDK/wpa_supplicant/src/ap\wpa_auth_ie.c **** 
 398:C:/Users/stapi/OneDrive/Desktop/GD32VW553/V1_MQTT_OK/GD32VW55X_Wifi_BLE_SDK/GD32VW55x_RELEASE_V1.0.2/MSDK/wpa_supplicant/src/ap\wpa_auth_ie.c **** 	if (wpa_key_mgmt_sae(conf->wpa_key_mgmt) &&
 399:C:/Users/stapi/OneDrive/Desktop/GD32VW553/V1_MQTT_OK/GD32VW55X_Wifi_BLE_SDK/GD32VW55x_RELEASE_V1.0.2/MSDK/wpa_supplicant/src/ap\wpa_auth_ie.c **** 	    (conf->sae_pwe == 1 || conf->sae_pwe == 2 || conf->sae_pk)) {
 400:C:/Users/stapi/OneDrive/Desktop/GD32VW553/V1_MQTT_OK/GD32VW55X_Wifi_BLE_SDK/GD32VW55x_RELEASE_V1.0.2/MSDK/wpa_supplicant/src/ap\wpa_auth_ie.c **** 		capab |= BIT(WLAN_RSNX_CAPAB_SAE_H2E);
 401:C:/Users/stapi/OneDrive/Desktop/GD32VW553/V1_MQTT_OK/GD32VW55X_Wifi_BLE_SDK/GD32VW55x_RELEASE_V1.0.2/MSDK/wpa_supplicant/src/ap\wpa_auth_ie.c **** #ifdef CONFIG_SAE_PK
 402:C:/Users/stapi/OneDrive/Desktop/GD32VW553/V1_MQTT_OK/GD32VW55X_Wifi_BLE_SDK/GD32VW55x_RELEASE_V1.0.2/MSDK/wpa_supplicant/src/ap\wpa_auth_ie.c **** 		if (conf->sae_pk)
 403:C:/Users/stapi/OneDrive/Desktop/GD32VW553/V1_MQTT_OK/GD32VW55X_Wifi_BLE_SDK/GD32VW55x_RELEASE_V1.0.2/MSDK/wpa_supplicant/src/ap\wpa_auth_ie.c **** 			capab |= BIT(WLAN_RSNX_CAPAB_SAE_PK);
 404:C:/Users/stapi/OneDrive/Desktop/GD32VW553/V1_MQTT_OK/GD32VW55X_Wifi_BLE_SDK/GD32VW55x_RELEASE_V1.0.2/MSDK/wpa_supplicant/src/ap\wpa_auth_ie.c **** #endif /* CONFIG_SAE_PK */
 405:C:/Users/stapi/OneDrive/Desktop/GD32VW553/V1_MQTT_OK/GD32VW55X_Wifi_BLE_SDK/GD32VW55x_RELEASE_V1.0.2/MSDK/wpa_supplicant/src/ap\wpa_auth_ie.c **** 	}
 406:C:/Users/stapi/OneDrive/Desktop/GD32VW553/V1_MQTT_OK/GD32VW55X_Wifi_BLE_SDK/GD32VW55x_RELEASE_V1.0.2/MSDK/wpa_supplicant/src/ap\wpa_auth_ie.c **** 
 407:C:/Users/stapi/OneDrive/Desktop/GD32VW553/V1_MQTT_OK/GD32VW55X_Wifi_BLE_SDK/GD32VW55x_RELEASE_V1.0.2/MSDK/wpa_supplicant/src/ap\wpa_auth_ie.c **** 	if (conf->secure_ltf)
 408:C:/Users/stapi/OneDrive/Desktop/GD32VW553/V1_MQTT_OK/GD32VW55X_Wifi_BLE_SDK/GD32VW55x_RELEASE_V1.0.2/MSDK/wpa_supplicant/src/ap\wpa_auth_ie.c **** 		capab |= BIT(WLAN_RSNX_CAPAB_SECURE_LTF);
 409:C:/Users/stapi/OneDrive/Desktop/GD32VW553/V1_MQTT_OK/GD32VW55X_Wifi_BLE_SDK/GD32VW55x_RELEASE_V1.0.2/MSDK/wpa_supplicant/src/ap\wpa_auth_ie.c **** 	if (conf->secure_rtt)
 410:C:/Users/stapi/OneDrive/Desktop/GD32VW553/V1_MQTT_OK/GD32VW55X_Wifi_BLE_SDK/GD32VW55x_RELEASE_V1.0.2/MSDK/wpa_supplicant/src/ap\wpa_auth_ie.c **** 		capab |= BIT(WLAN_RSNX_CAPAB_SECURE_RTT);
 411:C:/Users/stapi/OneDrive/Desktop/GD32VW553/V1_MQTT_OK/GD32VW55X_Wifi_BLE_SDK/GD32VW55x_RELEASE_V1.0.2/MSDK/wpa_supplicant/src/ap\wpa_auth_ie.c **** 	if (conf->prot_range_neg)
 412:C:/Users/stapi/OneDrive/Desktop/GD32VW553/V1_MQTT_OK/GD32VW55X_Wifi_BLE_SDK/GD32VW55x_RELEASE_V1.0.2/MSDK/wpa_supplicant/src/ap\wpa_auth_ie.c **** 		capab |= BIT(WLAN_RSNX_CAPAB_PROT_RANGE_NEG);
 413:C:/Users/stapi/OneDrive/Desktop/GD32VW553/V1_MQTT_OK/GD32VW55X_Wifi_BLE_SDK/GD32VW55x_RELEASE_V1.0.2/MSDK/wpa_supplicant/src/ap\wpa_auth_ie.c **** 
 414:C:/Users/stapi/OneDrive/Desktop/GD32VW553/V1_MQTT_OK/GD32VW55X_Wifi_BLE_SDK/GD32VW55x_RELEASE_V1.0.2/MSDK/wpa_supplicant/src/ap\wpa_auth_ie.c **** 	flen = (capab & 0xff00) ? 2 : 1;
 415:C:/Users/stapi/OneDrive/Desktop/GD32VW553/V1_MQTT_OK/GD32VW55X_Wifi_BLE_SDK/GD32VW55x_RELEASE_V1.0.2/MSDK/wpa_supplicant/src/ap\wpa_auth_ie.c **** 	if (!capab)
 416:C:/Users/stapi/OneDrive/Desktop/GD32VW553/V1_MQTT_OK/GD32VW55X_Wifi_BLE_SDK/GD32VW55x_RELEASE_V1.0.2/MSDK/wpa_supplicant/src/ap\wpa_auth_ie.c **** 		return 0; /* no supported extended RSN capabilities */
 417:C:/Users/stapi/OneDrive/Desktop/GD32VW553/V1_MQTT_OK/GD32VW55X_Wifi_BLE_SDK/GD32VW55x_RELEASE_V1.0.2/MSDK/wpa_supplicant/src/ap\wpa_auth_ie.c **** 	if (len < 2 + flen)
 418:C:/Users/stapi/OneDrive/Desktop/GD32VW553/V1_MQTT_OK/GD32VW55X_Wifi_BLE_SDK/GD32VW55x_RELEASE_V1.0.2/MSDK/wpa_supplicant/src/ap\wpa_auth_ie.c **** 		return -1;
 419:C:/Users/stapi/OneDrive/Desktop/GD32VW553/V1_MQTT_OK/GD32VW55X_Wifi_BLE_SDK/GD32VW55x_RELEASE_V1.0.2/MSDK/wpa_supplicant/src/ap\wpa_auth_ie.c **** 	capab |= flen - 1; /* bit 0-3 = Field length (n - 1) */
 420:C:/Users/stapi/OneDrive/Desktop/GD32VW553/V1_MQTT_OK/GD32VW55X_Wifi_BLE_SDK/GD32VW55x_RELEASE_V1.0.2/MSDK/wpa_supplicant/src/ap\wpa_auth_ie.c **** 
 421:C:/Users/stapi/OneDrive/Desktop/GD32VW553/V1_MQTT_OK/GD32VW55X_Wifi_BLE_SDK/GD32VW55x_RELEASE_V1.0.2/MSDK/wpa_supplicant/src/ap\wpa_auth_ie.c **** 	*pos++ = WLAN_EID_RSNX;
 422:C:/Users/stapi/OneDrive/Desktop/GD32VW553/V1_MQTT_OK/GD32VW55X_Wifi_BLE_SDK/GD32VW55x_RELEASE_V1.0.2/MSDK/wpa_supplicant/src/ap\wpa_auth_ie.c **** 	*pos++ = flen;
 423:C:/Users/stapi/OneDrive/Desktop/GD32VW553/V1_MQTT_OK/GD32VW55X_Wifi_BLE_SDK/GD32VW55x_RELEASE_V1.0.2/MSDK/wpa_supplicant/src/ap\wpa_auth_ie.c **** 	*pos++ = capab & 0x00ff;
 424:C:/Users/stapi/OneDrive/Desktop/GD32VW553/V1_MQTT_OK/GD32VW55X_Wifi_BLE_SDK/GD32VW55x_RELEASE_V1.0.2/MSDK/wpa_supplicant/src/ap\wpa_auth_ie.c **** 	capab >>= 8;
 425:C:/Users/stapi/OneDrive/Desktop/GD32VW553/V1_MQTT_OK/GD32VW55X_Wifi_BLE_SDK/GD32VW55x_RELEASE_V1.0.2/MSDK/wpa_supplicant/src/ap\wpa_auth_ie.c **** 	if (capab)
 426:C:/Users/stapi/OneDrive/Desktop/GD32VW553/V1_MQTT_OK/GD32VW55X_Wifi_BLE_SDK/GD32VW55x_RELEASE_V1.0.2/MSDK/wpa_supplicant/src/ap\wpa_auth_ie.c **** 		*pos++ = capab;
 427:C:/Users/stapi/OneDrive/Desktop/GD32VW553/V1_MQTT_OK/GD32VW55X_Wifi_BLE_SDK/GD32VW55x_RELEASE_V1.0.2/MSDK/wpa_supplicant/src/ap\wpa_auth_ie.c **** 
 428:C:/Users/stapi/OneDrive/Desktop/GD32VW553/V1_MQTT_OK/GD32VW55X_Wifi_BLE_SDK/GD32VW55x_RELEASE_V1.0.2/MSDK/wpa_supplicant/src/ap\wpa_auth_ie.c **** 	return pos - buf;
 429:C:/Users/stapi/OneDrive/Desktop/GD32VW553/V1_MQTT_OK/GD32VW55X_Wifi_BLE_SDK/GD32VW55x_RELEASE_V1.0.2/MSDK/wpa_supplicant/src/ap\wpa_auth_ie.c **** }
 430:C:/Users/stapi/OneDrive/Desktop/GD32VW553/V1_MQTT_OK/GD32VW55X_Wifi_BLE_SDK/GD32VW55x_RELEASE_V1.0.2/MSDK/wpa_supplicant/src/ap\wpa_auth_ie.c **** 
 431:C:/Users/stapi/OneDrive/Desktop/GD32VW553/V1_MQTT_OK/GD32VW55X_Wifi_BLE_SDK/GD32VW55x_RELEASE_V1.0.2/MSDK/wpa_supplicant/src/ap\wpa_auth_ie.c **** 
 432:C:/Users/stapi/OneDrive/Desktop/GD32VW553/V1_MQTT_OK/GD32VW55X_Wifi_BLE_SDK/GD32VW55x_RELEASE_V1.0.2/MSDK/wpa_supplicant/src/ap\wpa_auth_ie.c **** static u8 * wpa_write_osen(struct wpa_auth_config *conf, u8 *eid)
 433:C:/Users/stapi/OneDrive/Desktop/GD32VW553/V1_MQTT_OK/GD32VW55X_Wifi_BLE_SDK/GD32VW55x_RELEASE_V1.0.2/MSDK/wpa_supplicant/src/ap\wpa_auth_ie.c **** {
 434:C:/Users/stapi/OneDrive/Desktop/GD32VW553/V1_MQTT_OK/GD32VW55X_Wifi_BLE_SDK/GD32VW55x_RELEASE_V1.0.2/MSDK/wpa_supplicant/src/ap\wpa_auth_ie.c **** 	u8 *len;
 435:C:/Users/stapi/OneDrive/Desktop/GD32VW553/V1_MQTT_OK/GD32VW55X_Wifi_BLE_SDK/GD32VW55x_RELEASE_V1.0.2/MSDK/wpa_supplicant/src/ap\wpa_auth_ie.c **** 	u16 capab;
 436:C:/Users/stapi/OneDrive/Desktop/GD32VW553/V1_MQTT_OK/GD32VW55X_Wifi_BLE_SDK/GD32VW55x_RELEASE_V1.0.2/MSDK/wpa_supplicant/src/ap\wpa_auth_ie.c **** 
 437:C:/Users/stapi/OneDrive/Desktop/GD32VW553/V1_MQTT_OK/GD32VW55X_Wifi_BLE_SDK/GD32VW55x_RELEASE_V1.0.2/MSDK/wpa_supplicant/src/ap\wpa_auth_ie.c **** 	*eid++ = WLAN_EID_VENDOR_SPECIFIC;
 438:C:/Users/stapi/OneDrive/Desktop/GD32VW553/V1_MQTT_OK/GD32VW55X_Wifi_BLE_SDK/GD32VW55x_RELEASE_V1.0.2/MSDK/wpa_supplicant/src/ap\wpa_auth_ie.c **** 	len = eid++; /* to be filled */
 439:C:/Users/stapi/OneDrive/Desktop/GD32VW553/V1_MQTT_OK/GD32VW55X_Wifi_BLE_SDK/GD32VW55x_RELEASE_V1.0.2/MSDK/wpa_supplicant/src/ap\wpa_auth_ie.c **** 	WPA_PUT_BE24(eid, OUI_WFA);
 440:C:/Users/stapi/OneDrive/Desktop/GD32VW553/V1_MQTT_OK/GD32VW55X_Wifi_BLE_SDK/GD32VW55x_RELEASE_V1.0.2/MSDK/wpa_supplicant/src/ap\wpa_auth_ie.c **** 	eid += 3;
 441:C:/Users/stapi/OneDrive/Desktop/GD32VW553/V1_MQTT_OK/GD32VW55X_Wifi_BLE_SDK/GD32VW55x_RELEASE_V1.0.2/MSDK/wpa_supplicant/src/ap\wpa_auth_ie.c **** 	*eid++ = HS20_OSEN_OUI_TYPE;
 442:C:/Users/stapi/OneDrive/Desktop/GD32VW553/V1_MQTT_OK/GD32VW55X_Wifi_BLE_SDK/GD32VW55x_RELEASE_V1.0.2/MSDK/wpa_supplicant/src/ap\wpa_auth_ie.c **** 
 443:C:/Users/stapi/OneDrive/Desktop/GD32VW553/V1_MQTT_OK/GD32VW55X_Wifi_BLE_SDK/GD32VW55x_RELEASE_V1.0.2/MSDK/wpa_supplicant/src/ap\wpa_auth_ie.c **** 	/* Group Data Cipher Suite */
 444:C:/Users/stapi/OneDrive/Desktop/GD32VW553/V1_MQTT_OK/GD32VW55X_Wifi_BLE_SDK/GD32VW55x_RELEASE_V1.0.2/MSDK/wpa_supplicant/src/ap\wpa_auth_ie.c **** 	RSN_SELECTOR_PUT(eid, RSN_CIPHER_SUITE_NO_GROUP_ADDRESSED);
 445:C:/Users/stapi/OneDrive/Desktop/GD32VW553/V1_MQTT_OK/GD32VW55X_Wifi_BLE_SDK/GD32VW55x_RELEASE_V1.0.2/MSDK/wpa_supplicant/src/ap\wpa_auth_ie.c **** 	eid += RSN_SELECTOR_LEN;
 446:C:/Users/stapi/OneDrive/Desktop/GD32VW553/V1_MQTT_OK/GD32VW55X_Wifi_BLE_SDK/GD32VW55x_RELEASE_V1.0.2/MSDK/wpa_supplicant/src/ap\wpa_auth_ie.c **** 
 447:C:/Users/stapi/OneDrive/Desktop/GD32VW553/V1_MQTT_OK/GD32VW55X_Wifi_BLE_SDK/GD32VW55x_RELEASE_V1.0.2/MSDK/wpa_supplicant/src/ap\wpa_auth_ie.c **** 	/* Pairwise Cipher Suite Count and List */
 448:C:/Users/stapi/OneDrive/Desktop/GD32VW553/V1_MQTT_OK/GD32VW55X_Wifi_BLE_SDK/GD32VW55x_RELEASE_V1.0.2/MSDK/wpa_supplicant/src/ap\wpa_auth_ie.c **** 	WPA_PUT_LE16(eid, 1);
 449:C:/Users/stapi/OneDrive/Desktop/GD32VW553/V1_MQTT_OK/GD32VW55X_Wifi_BLE_SDK/GD32VW55x_RELEASE_V1.0.2/MSDK/wpa_supplicant/src/ap\wpa_auth_ie.c **** 	eid += 2;
 450:C:/Users/stapi/OneDrive/Desktop/GD32VW553/V1_MQTT_OK/GD32VW55X_Wifi_BLE_SDK/GD32VW55x_RELEASE_V1.0.2/MSDK/wpa_supplicant/src/ap\wpa_auth_ie.c **** 	RSN_SELECTOR_PUT(eid, RSN_CIPHER_SUITE_CCMP);
 451:C:/Users/stapi/OneDrive/Desktop/GD32VW553/V1_MQTT_OK/GD32VW55X_Wifi_BLE_SDK/GD32VW55x_RELEASE_V1.0.2/MSDK/wpa_supplicant/src/ap\wpa_auth_ie.c **** 	eid += RSN_SELECTOR_LEN;
 452:C:/Users/stapi/OneDrive/Desktop/GD32VW553/V1_MQTT_OK/GD32VW55X_Wifi_BLE_SDK/GD32VW55x_RELEASE_V1.0.2/MSDK/wpa_supplicant/src/ap\wpa_auth_ie.c **** 
 453:C:/Users/stapi/OneDrive/Desktop/GD32VW553/V1_MQTT_OK/GD32VW55X_Wifi_BLE_SDK/GD32VW55x_RELEASE_V1.0.2/MSDK/wpa_supplicant/src/ap\wpa_auth_ie.c **** 	/* AKM Suite Count and List */
 454:C:/Users/stapi/OneDrive/Desktop/GD32VW553/V1_MQTT_OK/GD32VW55X_Wifi_BLE_SDK/GD32VW55x_RELEASE_V1.0.2/MSDK/wpa_supplicant/src/ap\wpa_auth_ie.c **** 	WPA_PUT_LE16(eid, 1);
 455:C:/Users/stapi/OneDrive/Desktop/GD32VW553/V1_MQTT_OK/GD32VW55X_Wifi_BLE_SDK/GD32VW55x_RELEASE_V1.0.2/MSDK/wpa_supplicant/src/ap\wpa_auth_ie.c **** 	eid += 2;
 456:C:/Users/stapi/OneDrive/Desktop/GD32VW553/V1_MQTT_OK/GD32VW55X_Wifi_BLE_SDK/GD32VW55x_RELEASE_V1.0.2/MSDK/wpa_supplicant/src/ap\wpa_auth_ie.c **** 	RSN_SELECTOR_PUT(eid, RSN_AUTH_KEY_MGMT_OSEN);
 457:C:/Users/stapi/OneDrive/Desktop/GD32VW553/V1_MQTT_OK/GD32VW55X_Wifi_BLE_SDK/GD32VW55x_RELEASE_V1.0.2/MSDK/wpa_supplicant/src/ap\wpa_auth_ie.c **** 	eid += RSN_SELECTOR_LEN;
 458:C:/Users/stapi/OneDrive/Desktop/GD32VW553/V1_MQTT_OK/GD32VW55X_Wifi_BLE_SDK/GD32VW55x_RELEASE_V1.0.2/MSDK/wpa_supplicant/src/ap\wpa_auth_ie.c **** 
 459:C:/Users/stapi/OneDrive/Desktop/GD32VW553/V1_MQTT_OK/GD32VW55X_Wifi_BLE_SDK/GD32VW55x_RELEASE_V1.0.2/MSDK/wpa_supplicant/src/ap\wpa_auth_ie.c **** 	/* RSN Capabilities */
 460:C:/Users/stapi/OneDrive/Desktop/GD32VW553/V1_MQTT_OK/GD32VW55X_Wifi_BLE_SDK/GD32VW55x_RELEASE_V1.0.2/MSDK/wpa_supplicant/src/ap\wpa_auth_ie.c **** 	capab = 0;
 461:C:/Users/stapi/OneDrive/Desktop/GD32VW553/V1_MQTT_OK/GD32VW55X_Wifi_BLE_SDK/GD32VW55x_RELEASE_V1.0.2/MSDK/wpa_supplicant/src/ap\wpa_auth_ie.c **** 	if (conf->wmm_enabled) {
 462:C:/Users/stapi/OneDrive/Desktop/GD32VW553/V1_MQTT_OK/GD32VW55X_Wifi_BLE_SDK/GD32VW55x_RELEASE_V1.0.2/MSDK/wpa_supplicant/src/ap\wpa_auth_ie.c **** 		/* 4 PTKSA replay counters when using WMM */
 463:C:/Users/stapi/OneDrive/Desktop/GD32VW553/V1_MQTT_OK/GD32VW55X_Wifi_BLE_SDK/GD32VW55x_RELEASE_V1.0.2/MSDK/wpa_supplicant/src/ap\wpa_auth_ie.c **** 		capab |= (RSN_NUM_REPLAY_COUNTERS_16 << 2);
 464:C:/Users/stapi/OneDrive/Desktop/GD32VW553/V1_MQTT_OK/GD32VW55X_Wifi_BLE_SDK/GD32VW55x_RELEASE_V1.0.2/MSDK/wpa_supplicant/src/ap\wpa_auth_ie.c **** 	}
 465:C:/Users/stapi/OneDrive/Desktop/GD32VW553/V1_MQTT_OK/GD32VW55X_Wifi_BLE_SDK/GD32VW55x_RELEASE_V1.0.2/MSDK/wpa_supplicant/src/ap\wpa_auth_ie.c **** 	if (conf->ieee80211w != NO_MGMT_FRAME_PROTECTION) {
 466:C:/Users/stapi/OneDrive/Desktop/GD32VW553/V1_MQTT_OK/GD32VW55X_Wifi_BLE_SDK/GD32VW55x_RELEASE_V1.0.2/MSDK/wpa_supplicant/src/ap\wpa_auth_ie.c **** 		capab |= WPA_CAPABILITY_MFPC;
 467:C:/Users/stapi/OneDrive/Desktop/GD32VW553/V1_MQTT_OK/GD32VW55X_Wifi_BLE_SDK/GD32VW55x_RELEASE_V1.0.2/MSDK/wpa_supplicant/src/ap\wpa_auth_ie.c **** 		if (conf->ieee80211w == MGMT_FRAME_PROTECTION_REQUIRED)
 468:C:/Users/stapi/OneDrive/Desktop/GD32VW553/V1_MQTT_OK/GD32VW55X_Wifi_BLE_SDK/GD32VW55x_RELEASE_V1.0.2/MSDK/wpa_supplicant/src/ap\wpa_auth_ie.c **** 			capab |= WPA_CAPABILITY_MFPR;
 469:C:/Users/stapi/OneDrive/Desktop/GD32VW553/V1_MQTT_OK/GD32VW55X_Wifi_BLE_SDK/GD32VW55x_RELEASE_V1.0.2/MSDK/wpa_supplicant/src/ap\wpa_auth_ie.c **** 	}
 470:C:/Users/stapi/OneDrive/Desktop/GD32VW553/V1_MQTT_OK/GD32VW55X_Wifi_BLE_SDK/GD32VW55x_RELEASE_V1.0.2/MSDK/wpa_supplicant/src/ap\wpa_auth_ie.c **** #ifdef CONFIG_OCV
 471:C:/Users/stapi/OneDrive/Desktop/GD32VW553/V1_MQTT_OK/GD32VW55X_Wifi_BLE_SDK/GD32VW55x_RELEASE_V1.0.2/MSDK/wpa_supplicant/src/ap\wpa_auth_ie.c **** 	if (conf->ocv)
 472:C:/Users/stapi/OneDrive/Desktop/GD32VW553/V1_MQTT_OK/GD32VW55X_Wifi_BLE_SDK/GD32VW55x_RELEASE_V1.0.2/MSDK/wpa_supplicant/src/ap\wpa_auth_ie.c **** 		capab |= WPA_CAPABILITY_OCVC;
 473:C:/Users/stapi/OneDrive/Desktop/GD32VW553/V1_MQTT_OK/GD32VW55X_Wifi_BLE_SDK/GD32VW55x_RELEASE_V1.0.2/MSDK/wpa_supplicant/src/ap\wpa_auth_ie.c **** #endif /* CONFIG_OCV */
 474:C:/Users/stapi/OneDrive/Desktop/GD32VW553/V1_MQTT_OK/GD32VW55X_Wifi_BLE_SDK/GD32VW55x_RELEASE_V1.0.2/MSDK/wpa_supplicant/src/ap\wpa_auth_ie.c **** 	WPA_PUT_LE16(eid, capab);
 475:C:/Users/stapi/OneDrive/Desktop/GD32VW553/V1_MQTT_OK/GD32VW55X_Wifi_BLE_SDK/GD32VW55x_RELEASE_V1.0.2/MSDK/wpa_supplicant/src/ap\wpa_auth_ie.c **** 	eid += 2;
 476:C:/Users/stapi/OneDrive/Desktop/GD32VW553/V1_MQTT_OK/GD32VW55X_Wifi_BLE_SDK/GD32VW55x_RELEASE_V1.0.2/MSDK/wpa_supplicant/src/ap\wpa_auth_ie.c **** 
 477:C:/Users/stapi/OneDrive/Desktop/GD32VW553/V1_MQTT_OK/GD32VW55X_Wifi_BLE_SDK/GD32VW55x_RELEASE_V1.0.2/MSDK/wpa_supplicant/src/ap\wpa_auth_ie.c **** 	*len = eid - len - 1;
 478:C:/Users/stapi/OneDrive/Desktop/GD32VW553/V1_MQTT_OK/GD32VW55X_Wifi_BLE_SDK/GD32VW55x_RELEASE_V1.0.2/MSDK/wpa_supplicant/src/ap\wpa_auth_ie.c **** 
 479:C:/Users/stapi/OneDrive/Desktop/GD32VW553/V1_MQTT_OK/GD32VW55X_Wifi_BLE_SDK/GD32VW55x_RELEASE_V1.0.2/MSDK/wpa_supplicant/src/ap\wpa_auth_ie.c **** 	return eid;
 480:C:/Users/stapi/OneDrive/Desktop/GD32VW553/V1_MQTT_OK/GD32VW55X_Wifi_BLE_SDK/GD32VW55x_RELEASE_V1.0.2/MSDK/wpa_supplicant/src/ap\wpa_auth_ie.c **** }
 481:C:/Users/stapi/OneDrive/Desktop/GD32VW553/V1_MQTT_OK/GD32VW55X_Wifi_BLE_SDK/GD32VW55x_RELEASE_V1.0.2/MSDK/wpa_supplicant/src/ap\wpa_auth_ie.c **** 
 482:C:/Users/stapi/OneDrive/Desktop/GD32VW553/V1_MQTT_OK/GD32VW55X_Wifi_BLE_SDK/GD32VW55x_RELEASE_V1.0.2/MSDK/wpa_supplicant/src/ap\wpa_auth_ie.c **** 
 483:C:/Users/stapi/OneDrive/Desktop/GD32VW553/V1_MQTT_OK/GD32VW55X_Wifi_BLE_SDK/GD32VW55x_RELEASE_V1.0.2/MSDK/wpa_supplicant/src/ap\wpa_auth_ie.c **** int wpa_auth_gen_wpa_ie(struct wpa_authenticator *wpa_auth)
 484:C:/Users/stapi/OneDrive/Desktop/GD32VW553/V1_MQTT_OK/GD32VW55X_Wifi_BLE_SDK/GD32VW55x_RELEASE_V1.0.2/MSDK/wpa_supplicant/src/ap\wpa_auth_ie.c **** {
 485:C:/Users/stapi/OneDrive/Desktop/GD32VW553/V1_MQTT_OK/GD32VW55X_Wifi_BLE_SDK/GD32VW55x_RELEASE_V1.0.2/MSDK/wpa_supplicant/src/ap\wpa_auth_ie.c **** 	u8 *pos, buf[128];
 486:C:/Users/stapi/OneDrive/Desktop/GD32VW553/V1_MQTT_OK/GD32VW55X_Wifi_BLE_SDK/GD32VW55x_RELEASE_V1.0.2/MSDK/wpa_supplicant/src/ap\wpa_auth_ie.c **** 	int res;
 487:C:/Users/stapi/OneDrive/Desktop/GD32VW553/V1_MQTT_OK/GD32VW55X_Wifi_BLE_SDK/GD32VW55x_RELEASE_V1.0.2/MSDK/wpa_supplicant/src/ap\wpa_auth_ie.c **** 
 488:C:/Users/stapi/OneDrive/Desktop/GD32VW553/V1_MQTT_OK/GD32VW55X_Wifi_BLE_SDK/GD32VW55x_RELEASE_V1.0.2/MSDK/wpa_supplicant/src/ap\wpa_auth_ie.c **** #ifdef CONFIG_TESTING_OPTIONS
 489:C:/Users/stapi/OneDrive/Desktop/GD32VW553/V1_MQTT_OK/GD32VW55X_Wifi_BLE_SDK/GD32VW55x_RELEASE_V1.0.2/MSDK/wpa_supplicant/src/ap\wpa_auth_ie.c **** 	if (wpa_auth->conf.own_ie_override_len) {
 490:C:/Users/stapi/OneDrive/Desktop/GD32VW553/V1_MQTT_OK/GD32VW55X_Wifi_BLE_SDK/GD32VW55x_RELEASE_V1.0.2/MSDK/wpa_supplicant/src/ap\wpa_auth_ie.c **** 		wpa_hexdump(MSG_DEBUG, "WPA: Forced own IE(s) for testing",
 491:C:/Users/stapi/OneDrive/Desktop/GD32VW553/V1_MQTT_OK/GD32VW55X_Wifi_BLE_SDK/GD32VW55x_RELEASE_V1.0.2/MSDK/wpa_supplicant/src/ap\wpa_auth_ie.c **** 			    wpa_auth->conf.own_ie_override,
 492:C:/Users/stapi/OneDrive/Desktop/GD32VW553/V1_MQTT_OK/GD32VW55X_Wifi_BLE_SDK/GD32VW55x_RELEASE_V1.0.2/MSDK/wpa_supplicant/src/ap\wpa_auth_ie.c **** 			    wpa_auth->conf.own_ie_override_len);
 493:C:/Users/stapi/OneDrive/Desktop/GD32VW553/V1_MQTT_OK/GD32VW55X_Wifi_BLE_SDK/GD32VW55x_RELEASE_V1.0.2/MSDK/wpa_supplicant/src/ap\wpa_auth_ie.c **** 		os_free(wpa_auth->wpa_ie);
 494:C:/Users/stapi/OneDrive/Desktop/GD32VW553/V1_MQTT_OK/GD32VW55X_Wifi_BLE_SDK/GD32VW55x_RELEASE_V1.0.2/MSDK/wpa_supplicant/src/ap\wpa_auth_ie.c **** 		wpa_auth->wpa_ie =
 495:C:/Users/stapi/OneDrive/Desktop/GD32VW553/V1_MQTT_OK/GD32VW55X_Wifi_BLE_SDK/GD32VW55x_RELEASE_V1.0.2/MSDK/wpa_supplicant/src/ap\wpa_auth_ie.c **** 			os_malloc(wpa_auth->conf.own_ie_override_len);
 496:C:/Users/stapi/OneDrive/Desktop/GD32VW553/V1_MQTT_OK/GD32VW55X_Wifi_BLE_SDK/GD32VW55x_RELEASE_V1.0.2/MSDK/wpa_supplicant/src/ap\wpa_auth_ie.c **** 		if (wpa_auth->wpa_ie == NULL)
 497:C:/Users/stapi/OneDrive/Desktop/GD32VW553/V1_MQTT_OK/GD32VW55X_Wifi_BLE_SDK/GD32VW55x_RELEASE_V1.0.2/MSDK/wpa_supplicant/src/ap\wpa_auth_ie.c **** 			return -1;
 498:C:/Users/stapi/OneDrive/Desktop/GD32VW553/V1_MQTT_OK/GD32VW55X_Wifi_BLE_SDK/GD32VW55x_RELEASE_V1.0.2/MSDK/wpa_supplicant/src/ap\wpa_auth_ie.c **** 		os_memcpy(wpa_auth->wpa_ie, wpa_auth->conf.own_ie_override,
 499:C:/Users/stapi/OneDrive/Desktop/GD32VW553/V1_MQTT_OK/GD32VW55X_Wifi_BLE_SDK/GD32VW55x_RELEASE_V1.0.2/MSDK/wpa_supplicant/src/ap\wpa_auth_ie.c **** 			  wpa_auth->conf.own_ie_override_len);
 500:C:/Users/stapi/OneDrive/Desktop/GD32VW553/V1_MQTT_OK/GD32VW55X_Wifi_BLE_SDK/GD32VW55x_RELEASE_V1.0.2/MSDK/wpa_supplicant/src/ap\wpa_auth_ie.c **** 		wpa_auth->wpa_ie_len = wpa_auth->conf.own_ie_override_len;
 501:C:/Users/stapi/OneDrive/Desktop/GD32VW553/V1_MQTT_OK/GD32VW55X_Wifi_BLE_SDK/GD32VW55x_RELEASE_V1.0.2/MSDK/wpa_supplicant/src/ap\wpa_auth_ie.c **** 		return 0;
 502:C:/Users/stapi/OneDrive/Desktop/GD32VW553/V1_MQTT_OK/GD32VW55X_Wifi_BLE_SDK/GD32VW55x_RELEASE_V1.0.2/MSDK/wpa_supplicant/src/ap\wpa_auth_ie.c **** 	}
 503:C:/Users/stapi/OneDrive/Desktop/GD32VW553/V1_MQTT_OK/GD32VW55X_Wifi_BLE_SDK/GD32VW55x_RELEASE_V1.0.2/MSDK/wpa_supplicant/src/ap\wpa_auth_ie.c **** #endif /* CONFIG_TESTING_OPTIONS */
 504:C:/Users/stapi/OneDrive/Desktop/GD32VW553/V1_MQTT_OK/GD32VW55X_Wifi_BLE_SDK/GD32VW55x_RELEASE_V1.0.2/MSDK/wpa_supplicant/src/ap\wpa_auth_ie.c **** 
 505:C:/Users/stapi/OneDrive/Desktop/GD32VW553/V1_MQTT_OK/GD32VW55X_Wifi_BLE_SDK/GD32VW55x_RELEASE_V1.0.2/MSDK/wpa_supplicant/src/ap\wpa_auth_ie.c **** 	pos = buf;
 506:C:/Users/stapi/OneDrive/Desktop/GD32VW553/V1_MQTT_OK/GD32VW55X_Wifi_BLE_SDK/GD32VW55x_RELEASE_V1.0.2/MSDK/wpa_supplicant/src/ap\wpa_auth_ie.c **** 
 507:C:/Users/stapi/OneDrive/Desktop/GD32VW553/V1_MQTT_OK/GD32VW55X_Wifi_BLE_SDK/GD32VW55x_RELEASE_V1.0.2/MSDK/wpa_supplicant/src/ap\wpa_auth_ie.c **** 	if (wpa_auth->conf.wpa == WPA_PROTO_OSEN) {
 508:C:/Users/stapi/OneDrive/Desktop/GD32VW553/V1_MQTT_OK/GD32VW55X_Wifi_BLE_SDK/GD32VW55x_RELEASE_V1.0.2/MSDK/wpa_supplicant/src/ap\wpa_auth_ie.c **** 		pos = wpa_write_osen(&wpa_auth->conf, pos);
 509:C:/Users/stapi/OneDrive/Desktop/GD32VW553/V1_MQTT_OK/GD32VW55X_Wifi_BLE_SDK/GD32VW55x_RELEASE_V1.0.2/MSDK/wpa_supplicant/src/ap\wpa_auth_ie.c **** 	}
 510:C:/Users/stapi/OneDrive/Desktop/GD32VW553/V1_MQTT_OK/GD32VW55X_Wifi_BLE_SDK/GD32VW55x_RELEASE_V1.0.2/MSDK/wpa_supplicant/src/ap\wpa_auth_ie.c **** 	if (wpa_auth->conf.wpa & WPA_PROTO_RSN) {
 511:C:/Users/stapi/OneDrive/Desktop/GD32VW553/V1_MQTT_OK/GD32VW55X_Wifi_BLE_SDK/GD32VW55x_RELEASE_V1.0.2/MSDK/wpa_supplicant/src/ap\wpa_auth_ie.c **** 		res = wpa_write_rsn_ie(&wpa_auth->conf,
 512:C:/Users/stapi/OneDrive/Desktop/GD32VW553/V1_MQTT_OK/GD32VW55X_Wifi_BLE_SDK/GD32VW55x_RELEASE_V1.0.2/MSDK/wpa_supplicant/src/ap\wpa_auth_ie.c **** 				       pos, buf + sizeof(buf) - pos, NULL);
 513:C:/Users/stapi/OneDrive/Desktop/GD32VW553/V1_MQTT_OK/GD32VW55X_Wifi_BLE_SDK/GD32VW55x_RELEASE_V1.0.2/MSDK/wpa_supplicant/src/ap\wpa_auth_ie.c **** 		if (res < 0)
 514:C:/Users/stapi/OneDrive/Desktop/GD32VW553/V1_MQTT_OK/GD32VW55X_Wifi_BLE_SDK/GD32VW55x_RELEASE_V1.0.2/MSDK/wpa_supplicant/src/ap\wpa_auth_ie.c **** 			return res;
 515:C:/Users/stapi/OneDrive/Desktop/GD32VW553/V1_MQTT_OK/GD32VW55X_Wifi_BLE_SDK/GD32VW55x_RELEASE_V1.0.2/MSDK/wpa_supplicant/src/ap\wpa_auth_ie.c **** 		pos += res;
 516:C:/Users/stapi/OneDrive/Desktop/GD32VW553/V1_MQTT_OK/GD32VW55X_Wifi_BLE_SDK/GD32VW55x_RELEASE_V1.0.2/MSDK/wpa_supplicant/src/ap\wpa_auth_ie.c **** 		res = wpa_write_rsnxe(&wpa_auth->conf, pos,
 517:C:/Users/stapi/OneDrive/Desktop/GD32VW553/V1_MQTT_OK/GD32VW55X_Wifi_BLE_SDK/GD32VW55x_RELEASE_V1.0.2/MSDK/wpa_supplicant/src/ap\wpa_auth_ie.c **** 				      buf + sizeof(buf) - pos);
 518:C:/Users/stapi/OneDrive/Desktop/GD32VW553/V1_MQTT_OK/GD32VW55X_Wifi_BLE_SDK/GD32VW55x_RELEASE_V1.0.2/MSDK/wpa_supplicant/src/ap\wpa_auth_ie.c **** 		if (res < 0)
 519:C:/Users/stapi/OneDrive/Desktop/GD32VW553/V1_MQTT_OK/GD32VW55X_Wifi_BLE_SDK/GD32VW55x_RELEASE_V1.0.2/MSDK/wpa_supplicant/src/ap\wpa_auth_ie.c **** 			return res;
 520:C:/Users/stapi/OneDrive/Desktop/GD32VW553/V1_MQTT_OK/GD32VW55X_Wifi_BLE_SDK/GD32VW55x_RELEASE_V1.0.2/MSDK/wpa_supplicant/src/ap\wpa_auth_ie.c **** 		pos += res;
 521:C:/Users/stapi/OneDrive/Desktop/GD32VW553/V1_MQTT_OK/GD32VW55X_Wifi_BLE_SDK/GD32VW55x_RELEASE_V1.0.2/MSDK/wpa_supplicant/src/ap\wpa_auth_ie.c **** 	}
 522:C:/Users/stapi/OneDrive/Desktop/GD32VW553/V1_MQTT_OK/GD32VW55X_Wifi_BLE_SDK/GD32VW55x_RELEASE_V1.0.2/MSDK/wpa_supplicant/src/ap\wpa_auth_ie.c **** #ifdef CONFIG_IEEE80211R_AP
 523:C:/Users/stapi/OneDrive/Desktop/GD32VW553/V1_MQTT_OK/GD32VW55X_Wifi_BLE_SDK/GD32VW55x_RELEASE_V1.0.2/MSDK/wpa_supplicant/src/ap\wpa_auth_ie.c **** 	if (wpa_key_mgmt_ft(wpa_auth->conf.wpa_key_mgmt)) {
 524:C:/Users/stapi/OneDrive/Desktop/GD32VW553/V1_MQTT_OK/GD32VW55X_Wifi_BLE_SDK/GD32VW55x_RELEASE_V1.0.2/MSDK/wpa_supplicant/src/ap\wpa_auth_ie.c **** 		res = wpa_write_mdie(&wpa_auth->conf, pos,
 525:C:/Users/stapi/OneDrive/Desktop/GD32VW553/V1_MQTT_OK/GD32VW55X_Wifi_BLE_SDK/GD32VW55x_RELEASE_V1.0.2/MSDK/wpa_supplicant/src/ap\wpa_auth_ie.c **** 				     buf + sizeof(buf) - pos);
 526:C:/Users/stapi/OneDrive/Desktop/GD32VW553/V1_MQTT_OK/GD32VW55X_Wifi_BLE_SDK/GD32VW55x_RELEASE_V1.0.2/MSDK/wpa_supplicant/src/ap\wpa_auth_ie.c **** 		if (res < 0)
 527:C:/Users/stapi/OneDrive/Desktop/GD32VW553/V1_MQTT_OK/GD32VW55X_Wifi_BLE_SDK/GD32VW55x_RELEASE_V1.0.2/MSDK/wpa_supplicant/src/ap\wpa_auth_ie.c **** 			return res;
 528:C:/Users/stapi/OneDrive/Desktop/GD32VW553/V1_MQTT_OK/GD32VW55X_Wifi_BLE_SDK/GD32VW55x_RELEASE_V1.0.2/MSDK/wpa_supplicant/src/ap\wpa_auth_ie.c **** 		pos += res;
 529:C:/Users/stapi/OneDrive/Desktop/GD32VW553/V1_MQTT_OK/GD32VW55X_Wifi_BLE_SDK/GD32VW55x_RELEASE_V1.0.2/MSDK/wpa_supplicant/src/ap\wpa_auth_ie.c **** 	}
 530:C:/Users/stapi/OneDrive/Desktop/GD32VW553/V1_MQTT_OK/GD32VW55X_Wifi_BLE_SDK/GD32VW55x_RELEASE_V1.0.2/MSDK/wpa_supplicant/src/ap\wpa_auth_ie.c **** #endif /* CONFIG_IEEE80211R_AP */
 531:C:/Users/stapi/OneDrive/Desktop/GD32VW553/V1_MQTT_OK/GD32VW55X_Wifi_BLE_SDK/GD32VW55x_RELEASE_V1.0.2/MSDK/wpa_supplicant/src/ap\wpa_auth_ie.c **** 	if (wpa_auth->conf.wpa & WPA_PROTO_WPA) {
 532:C:/Users/stapi/OneDrive/Desktop/GD32VW553/V1_MQTT_OK/GD32VW55X_Wifi_BLE_SDK/GD32VW55x_RELEASE_V1.0.2/MSDK/wpa_supplicant/src/ap\wpa_auth_ie.c **** 		res = wpa_write_wpa_ie(&wpa_auth->conf,
 533:C:/Users/stapi/OneDrive/Desktop/GD32VW553/V1_MQTT_OK/GD32VW55X_Wifi_BLE_SDK/GD32VW55x_RELEASE_V1.0.2/MSDK/wpa_supplicant/src/ap\wpa_auth_ie.c **** 				       pos, buf + sizeof(buf) - pos);
 534:C:/Users/stapi/OneDrive/Desktop/GD32VW553/V1_MQTT_OK/GD32VW55X_Wifi_BLE_SDK/GD32VW55x_RELEASE_V1.0.2/MSDK/wpa_supplicant/src/ap\wpa_auth_ie.c **** 		if (res < 0)
 535:C:/Users/stapi/OneDrive/Desktop/GD32VW553/V1_MQTT_OK/GD32VW55X_Wifi_BLE_SDK/GD32VW55x_RELEASE_V1.0.2/MSDK/wpa_supplicant/src/ap\wpa_auth_ie.c **** 			return res;
 536:C:/Users/stapi/OneDrive/Desktop/GD32VW553/V1_MQTT_OK/GD32VW55X_Wifi_BLE_SDK/GD32VW55x_RELEASE_V1.0.2/MSDK/wpa_supplicant/src/ap\wpa_auth_ie.c **** 		pos += res;
 537:C:/Users/stapi/OneDrive/Desktop/GD32VW553/V1_MQTT_OK/GD32VW55X_Wifi_BLE_SDK/GD32VW55x_RELEASE_V1.0.2/MSDK/wpa_supplicant/src/ap\wpa_auth_ie.c **** 	}
 538:C:/Users/stapi/OneDrive/Desktop/GD32VW553/V1_MQTT_OK/GD32VW55X_Wifi_BLE_SDK/GD32VW55x_RELEASE_V1.0.2/MSDK/wpa_supplicant/src/ap\wpa_auth_ie.c **** 
 539:C:/Users/stapi/OneDrive/Desktop/GD32VW553/V1_MQTT_OK/GD32VW55X_Wifi_BLE_SDK/GD32VW55x_RELEASE_V1.0.2/MSDK/wpa_supplicant/src/ap\wpa_auth_ie.c **** 	os_free(wpa_auth->wpa_ie);
 540:C:/Users/stapi/OneDrive/Desktop/GD32VW553/V1_MQTT_OK/GD32VW55X_Wifi_BLE_SDK/GD32VW55x_RELEASE_V1.0.2/MSDK/wpa_supplicant/src/ap\wpa_auth_ie.c **** 	wpa_auth->wpa_ie = os_malloc(pos - buf);
 541:C:/Users/stapi/OneDrive/Desktop/GD32VW553/V1_MQTT_OK/GD32VW55X_Wifi_BLE_SDK/GD32VW55x_RELEASE_V1.0.2/MSDK/wpa_supplicant/src/ap\wpa_auth_ie.c **** 	if (wpa_auth->wpa_ie == NULL)
 542:C:/Users/stapi/OneDrive/Desktop/GD32VW553/V1_MQTT_OK/GD32VW55X_Wifi_BLE_SDK/GD32VW55x_RELEASE_V1.0.2/MSDK/wpa_supplicant/src/ap\wpa_auth_ie.c **** 		return -1;
 543:C:/Users/stapi/OneDrive/Desktop/GD32VW553/V1_MQTT_OK/GD32VW55X_Wifi_BLE_SDK/GD32VW55x_RELEASE_V1.0.2/MSDK/wpa_supplicant/src/ap\wpa_auth_ie.c **** 	os_memcpy(wpa_auth->wpa_ie, buf, pos - buf);
 544:C:/Users/stapi/OneDrive/Desktop/GD32VW553/V1_MQTT_OK/GD32VW55X_Wifi_BLE_SDK/GD32VW55x_RELEASE_V1.0.2/MSDK/wpa_supplicant/src/ap\wpa_auth_ie.c **** 	wpa_auth->wpa_ie_len = pos - buf;
 545:C:/Users/stapi/OneDrive/Desktop/GD32VW553/V1_MQTT_OK/GD32VW55X_Wifi_BLE_SDK/GD32VW55x_RELEASE_V1.0.2/MSDK/wpa_supplicant/src/ap\wpa_auth_ie.c **** 
 546:C:/Users/stapi/OneDrive/Desktop/GD32VW553/V1_MQTT_OK/GD32VW55X_Wifi_BLE_SDK/GD32VW55x_RELEASE_V1.0.2/MSDK/wpa_supplicant/src/ap\wpa_auth_ie.c **** 	return 0;
 547:C:/Users/stapi/OneDrive/Desktop/GD32VW553/V1_MQTT_OK/GD32VW55X_Wifi_BLE_SDK/GD32VW55x_RELEASE_V1.0.2/MSDK/wpa_supplicant/src/ap\wpa_auth_ie.c **** }
 548:C:/Users/stapi/OneDrive/Desktop/GD32VW553/V1_MQTT_OK/GD32VW55X_Wifi_BLE_SDK/GD32VW55x_RELEASE_V1.0.2/MSDK/wpa_supplicant/src/ap\wpa_auth_ie.c **** 
 549:C:/Users/stapi/OneDrive/Desktop/GD32VW553/V1_MQTT_OK/GD32VW55X_Wifi_BLE_SDK/GD32VW55x_RELEASE_V1.0.2/MSDK/wpa_supplicant/src/ap\wpa_auth_ie.c **** 
 550:C:/Users/stapi/OneDrive/Desktop/GD32VW553/V1_MQTT_OK/GD32VW55X_Wifi_BLE_SDK/GD32VW55x_RELEASE_V1.0.2/MSDK/wpa_supplicant/src/ap\wpa_auth_ie.c **** u8 * wpa_add_kde(u8 *pos, u32 kde, const u8 *data, size_t data_len,
 551:C:/Users/stapi/OneDrive/Desktop/GD32VW553/V1_MQTT_OK/GD32VW55X_Wifi_BLE_SDK/GD32VW55x_RELEASE_V1.0.2/MSDK/wpa_supplicant/src/ap\wpa_auth_ie.c **** 		 const u8 *data2, size_t data2_len)
 552:C:/Users/stapi/OneDrive/Desktop/GD32VW553/V1_MQTT_OK/GD32VW55X_Wifi_BLE_SDK/GD32VW55x_RELEASE_V1.0.2/MSDK/wpa_supplicant/src/ap\wpa_auth_ie.c **** {
 553:C:/Users/stapi/OneDrive/Desktop/GD32VW553/V1_MQTT_OK/GD32VW55X_Wifi_BLE_SDK/GD32VW55x_RELEASE_V1.0.2/MSDK/wpa_supplicant/src/ap\wpa_auth_ie.c **** 	*pos++ = WLAN_EID_VENDOR_SPECIFIC;
 554:C:/Users/stapi/OneDrive/Desktop/GD32VW553/V1_MQTT_OK/GD32VW55X_Wifi_BLE_SDK/GD32VW55x_RELEASE_V1.0.2/MSDK/wpa_supplicant/src/ap\wpa_auth_ie.c **** 	*pos++ = RSN_SELECTOR_LEN + data_len + data2_len;
 555:C:/Users/stapi/OneDrive/Desktop/GD32VW553/V1_MQTT_OK/GD32VW55X_Wifi_BLE_SDK/GD32VW55x_RELEASE_V1.0.2/MSDK/wpa_supplicant/src/ap\wpa_auth_ie.c **** 	RSN_SELECTOR_PUT(pos, kde);
 556:C:/Users/stapi/OneDrive/Desktop/GD32VW553/V1_MQTT_OK/GD32VW55X_Wifi_BLE_SDK/GD32VW55x_RELEASE_V1.0.2/MSDK/wpa_supplicant/src/ap\wpa_auth_ie.c **** 	pos += RSN_SELECTOR_LEN;
 557:C:/Users/stapi/OneDrive/Desktop/GD32VW553/V1_MQTT_OK/GD32VW55X_Wifi_BLE_SDK/GD32VW55x_RELEASE_V1.0.2/MSDK/wpa_supplicant/src/ap\wpa_auth_ie.c **** 	os_memcpy(pos, data, data_len);
 558:C:/Users/stapi/OneDrive/Desktop/GD32VW553/V1_MQTT_OK/GD32VW55X_Wifi_BLE_SDK/GD32VW55x_RELEASE_V1.0.2/MSDK/wpa_supplicant/src/ap\wpa_auth_ie.c **** 	pos += data_len;
 559:C:/Users/stapi/OneDrive/Desktop/GD32VW553/V1_MQTT_OK/GD32VW55X_Wifi_BLE_SDK/GD32VW55x_RELEASE_V1.0.2/MSDK/wpa_supplicant/src/ap\wpa_auth_ie.c **** 	if (data2) {
 560:C:/Users/stapi/OneDrive/Desktop/GD32VW553/V1_MQTT_OK/GD32VW55X_Wifi_BLE_SDK/GD32VW55x_RELEASE_V1.0.2/MSDK/wpa_supplicant/src/ap\wpa_auth_ie.c **** 		os_memcpy(pos, data2, data2_len);
 561:C:/Users/stapi/OneDrive/Desktop/GD32VW553/V1_MQTT_OK/GD32VW55X_Wifi_BLE_SDK/GD32VW55x_RELEASE_V1.0.2/MSDK/wpa_supplicant/src/ap\wpa_auth_ie.c **** 		pos += data2_len;
 562:C:/Users/stapi/OneDrive/Desktop/GD32VW553/V1_MQTT_OK/GD32VW55X_Wifi_BLE_SDK/GD32VW55x_RELEASE_V1.0.2/MSDK/wpa_supplicant/src/ap\wpa_auth_ie.c **** 	}
 563:C:/Users/stapi/OneDrive/Desktop/GD32VW553/V1_MQTT_OK/GD32VW55X_Wifi_BLE_SDK/GD32VW55x_RELEASE_V1.0.2/MSDK/wpa_supplicant/src/ap\wpa_auth_ie.c **** 	return pos;
 564:C:/Users/stapi/OneDrive/Desktop/GD32VW553/V1_MQTT_OK/GD32VW55X_Wifi_BLE_SDK/GD32VW55x_RELEASE_V1.0.2/MSDK/wpa_supplicant/src/ap\wpa_auth_ie.c **** }
 565:C:/Users/stapi/OneDrive/Desktop/GD32VW553/V1_MQTT_OK/GD32VW55X_Wifi_BLE_SDK/GD32VW55x_RELEASE_V1.0.2/MSDK/wpa_supplicant/src/ap\wpa_auth_ie.c **** 
 566:C:/Users/stapi/OneDrive/Desktop/GD32VW553/V1_MQTT_OK/GD32VW55X_Wifi_BLE_SDK/GD32VW55x_RELEASE_V1.0.2/MSDK/wpa_supplicant/src/ap\wpa_auth_ie.c **** 
 567:C:/Users/stapi/OneDrive/Desktop/GD32VW553/V1_MQTT_OK/GD32VW55X_Wifi_BLE_SDK/GD32VW55x_RELEASE_V1.0.2/MSDK/wpa_supplicant/src/ap\wpa_auth_ie.c **** struct wpa_auth_okc_iter_data {
 568:C:/Users/stapi/OneDrive/Desktop/GD32VW553/V1_MQTT_OK/GD32VW55X_Wifi_BLE_SDK/GD32VW55x_RELEASE_V1.0.2/MSDK/wpa_supplicant/src/ap\wpa_auth_ie.c **** 	struct rsn_pmksa_cache_entry *pmksa;
 569:C:/Users/stapi/OneDrive/Desktop/GD32VW553/V1_MQTT_OK/GD32VW55X_Wifi_BLE_SDK/GD32VW55x_RELEASE_V1.0.2/MSDK/wpa_supplicant/src/ap\wpa_auth_ie.c **** 	const u8 *aa;
 570:C:/Users/stapi/OneDrive/Desktop/GD32VW553/V1_MQTT_OK/GD32VW55X_Wifi_BLE_SDK/GD32VW55x_RELEASE_V1.0.2/MSDK/wpa_supplicant/src/ap\wpa_auth_ie.c **** 	const u8 *spa;
 571:C:/Users/stapi/OneDrive/Desktop/GD32VW553/V1_MQTT_OK/GD32VW55X_Wifi_BLE_SDK/GD32VW55x_RELEASE_V1.0.2/MSDK/wpa_supplicant/src/ap\wpa_auth_ie.c **** 	const u8 *pmkid;
 572:C:/Users/stapi/OneDrive/Desktop/GD32VW553/V1_MQTT_OK/GD32VW55X_Wifi_BLE_SDK/GD32VW55x_RELEASE_V1.0.2/MSDK/wpa_supplicant/src/ap\wpa_auth_ie.c **** };
 573:C:/Users/stapi/OneDrive/Desktop/GD32VW553/V1_MQTT_OK/GD32VW55X_Wifi_BLE_SDK/GD32VW55x_RELEASE_V1.0.2/MSDK/wpa_supplicant/src/ap\wpa_auth_ie.c **** 
 574:C:/Users/stapi/OneDrive/Desktop/GD32VW553/V1_MQTT_OK/GD32VW55X_Wifi_BLE_SDK/GD32VW55x_RELEASE_V1.0.2/MSDK/wpa_supplicant/src/ap\wpa_auth_ie.c **** 
 575:C:/Users/stapi/OneDrive/Desktop/GD32VW553/V1_MQTT_OK/GD32VW55X_Wifi_BLE_SDK/GD32VW55x_RELEASE_V1.0.2/MSDK/wpa_supplicant/src/ap\wpa_auth_ie.c **** static int wpa_auth_okc_iter(struct wpa_authenticator *a, void *ctx)
 576:C:/Users/stapi/OneDrive/Desktop/GD32VW553/V1_MQTT_OK/GD32VW55X_Wifi_BLE_SDK/GD32VW55x_RELEASE_V1.0.2/MSDK/wpa_supplicant/src/ap\wpa_auth_ie.c **** {
  15              		.loc 1 576 1
  16              		.cfi_startproc
  17              	.LVL0:
  18 0000 17030000 		call	t0,__riscv_save_1
  18      E7020300 
  19              		.cfi_offset 8, -8
  20              		.cfi_offset 1, -4
  21              		.cfi_def_cfa_offset 16
 577:C:/Users/stapi/OneDrive/Desktop/GD32VW553/V1_MQTT_OK/GD32VW55X_Wifi_BLE_SDK/GD32VW55x_RELEASE_V1.0.2/MSDK/wpa_supplicant/src/ap\wpa_auth_ie.c **** 	struct wpa_auth_okc_iter_data *data = ctx;
  22              		.loc 1 577 2
  23              	.LVL1:
 578:C:/Users/stapi/OneDrive/Desktop/GD32VW553/V1_MQTT_OK/GD32VW55X_Wifi_BLE_SDK/GD32VW55x_RELEASE_V1.0.2/MSDK/wpa_supplicant/src/ap\wpa_auth_ie.c **** 	data->pmksa = pmksa_cache_get_okc(a->pmksa, data->aa, data->spa,
  24              		.loc 1 578 2
 576:C:/Users/stapi/OneDrive/Desktop/GD32VW553/V1_MQTT_OK/GD32VW55X_Wifi_BLE_SDK/GD32VW55x_RELEASE_V1.0.2/MSDK/wpa_supplicant/src/ap\wpa_auth_ie.c **** 	struct wpa_auth_okc_iter_data *data = ctx;
  25              		.loc 1 576 1 is_stmt 0
  26 0008 2E84     		mv	s0,a1
  27              		.loc 1 578 16
  28 000a D445     		lw	a3,12(a1)
  29 000c 9045     		lw	a2,8(a1)
  30 000e 0325050E 		lw	a0,224(a0)
  31              	.LVL2:
  32 0012 CC41     		lw	a1,4(a1)
  33              	.LVL3:
  34 0014 97000000 		call	pmksa_cache_get_okc
  34      E7800000 
  35              	.LVL4:
  36              		.loc 1 578 14
  37 001c 08C0     		sw	a0,0(s0)
 579:C:/Users/stapi/OneDrive/Desktop/GD32VW553/V1_MQTT_OK/GD32VW55X_Wifi_BLE_SDK/GD32VW55x_RELEASE_V1.0.2/MSDK/wpa_supplicant/src/ap\wpa_auth_ie.c **** 					  data->pmkid);
 580:C:/Users/stapi/OneDrive/Desktop/GD32VW553/V1_MQTT_OK/GD32VW55X_Wifi_BLE_SDK/GD32VW55x_RELEASE_V1.0.2/MSDK/wpa_supplicant/src/ap\wpa_auth_ie.c **** 	if (data->pmksa)
  38              		.loc 1 580 2 is_stmt 1
 581:C:/Users/stapi/OneDrive/Desktop/GD32VW553/V1_MQTT_OK/GD32VW55X_Wifi_BLE_SDK/GD32VW55x_RELEASE_V1.0.2/MSDK/wpa_supplicant/src/ap\wpa_auth_ie.c **** 		return 1;
 582:C:/Users/stapi/OneDrive/Desktop/GD32VW553/V1_MQTT_OK/GD32VW55X_Wifi_BLE_SDK/GD32VW55x_RELEASE_V1.0.2/MSDK/wpa_supplicant/src/ap\wpa_auth_ie.c **** 	return 0;
 583:C:/Users/stapi/OneDrive/Desktop/GD32VW553/V1_MQTT_OK/GD32VW55X_Wifi_BLE_SDK/GD32VW55x_RELEASE_V1.0.2/MSDK/wpa_supplicant/src/ap\wpa_auth_ie.c **** }
  39              		.loc 1 583 1 is_stmt 0
  40 001e 3335A000 		snez	a0,a0
  41 0022 17030000 		tail	__riscv_restore_1
  41      67000300 
  42              		.cfi_restore 8
  43              		.cfi_restore 1
  44              		.cfi_def_cfa_offset 0
  45              		.cfi_endproc
  46              	.LFE143:
  48              		.section	.rodata.wpa_write_rsn_ie.str1.4,"aMS",@progbits,1
  49              		.align	2
  50              	.LC0:
  51 0000 496E7661 		.string	"Invalid group cipher (%d)."
  51      6C696420 
  51      67726F75 
  51      70206369 
  51      70686572 
  52 001b 00       		.align	2
  53              	.LC1:
  54 001c 496E7661 		.string	"Invalid pairwise cipher (%d)."
  54      6C696420 
  54      70616972 
  54      77697365 
  54      20636970 
  55 003a 0000     		.align	2
  56              	.LC2:
  57 003c 496E7661 		.string	"Invalid key management type (%d)."
  57      6C696420 
  57      6B657920 
  57      6D616E61 
  57      67656D65 
  58 005e 0000     		.align	2
  59              	.LC3:
  60 0060 496E7661 		.string	"Invalid group management cipher (0x%x)"
  60      6C696420 
  60      67726F75 
  60      70206D61 
  60      6E616765 
  61              		.section	.text.wpa_write_rsn_ie,"ax",@progbits
  62              		.align	1
  63              		.globl	wpa_write_rsn_ie
  65              	wpa_write_rsn_ie:
  66              	.LFB138:
 124:C:/Users/stapi/OneDrive/Desktop/GD32VW553/V1_MQTT_OK/GD32VW55X_Wifi_BLE_SDK/GD32VW55x_RELEASE_V1.0.2/MSDK/wpa_supplicant/src/ap\wpa_auth_ie.c **** 	struct rsn_ie_hdr *hdr;
  67              		.loc 1 124 1 is_stmt 1
  68              		.cfi_startproc
  69              	.LVL5:
  70 0000 17030000 		call	t0,__riscv_save_6
  70      E7020300 
  71              		.cfi_offset 21, -28
  72              		.cfi_offset 20, -24
  73              		.cfi_offset 19, -20
  74              		.cfi_offset 18, -16
  75              		.cfi_offset 9, -12
  76              		.cfi_offset 8, -8
  77              		.cfi_offset 1, -4
  78              		.cfi_def_cfa_offset 32
 125:C:/Users/stapi/OneDrive/Desktop/GD32VW553/V1_MQTT_OK/GD32VW55X_Wifi_BLE_SDK/GD32VW55x_RELEASE_V1.0.2/MSDK/wpa_supplicant/src/ap\wpa_auth_ie.c **** 	int num_suites, res;
  79              		.loc 1 125 2
 126:C:/Users/stapi/OneDrive/Desktop/GD32VW553/V1_MQTT_OK/GD32VW55X_Wifi_BLE_SDK/GD32VW55x_RELEASE_V1.0.2/MSDK/wpa_supplicant/src/ap\wpa_auth_ie.c **** 	u8 *pos, *count;
  80              		.loc 1 126 2
 127:C:/Users/stapi/OneDrive/Desktop/GD32VW553/V1_MQTT_OK/GD32VW55X_Wifi_BLE_SDK/GD32VW55x_RELEASE_V1.0.2/MSDK/wpa_supplicant/src/ap\wpa_auth_ie.c **** 	u32 suite;
  81              		.loc 1 127 2
 128:C:/Users/stapi/OneDrive/Desktop/GD32VW553/V1_MQTT_OK/GD32VW55X_Wifi_BLE_SDK/GD32VW55x_RELEASE_V1.0.2/MSDK/wpa_supplicant/src/ap\wpa_auth_ie.c **** 
  82              		.loc 1 128 2
 130:C:/Users/stapi/OneDrive/Desktop/GD32VW553/V1_MQTT_OK/GD32VW55X_Wifi_BLE_SDK/GD32VW55x_RELEASE_V1.0.2/MSDK/wpa_supplicant/src/ap\wpa_auth_ie.c **** 	hdr->elem_id = WLAN_EID_RSN;
  83              		.loc 1 130 2
  84              	.LVL6:
 131:C:/Users/stapi/OneDrive/Desktop/GD32VW553/V1_MQTT_OK/GD32VW55X_Wifi_BLE_SDK/GD32VW55x_RELEASE_V1.0.2/MSDK/wpa_supplicant/src/ap\wpa_auth_ie.c **** 	WPA_PUT_LE16(hdr->version, RSN_VERSION);
  85              		.loc 1 131 2
 131:C:/Users/stapi/OneDrive/Desktop/GD32VW553/V1_MQTT_OK/GD32VW55X_Wifi_BLE_SDK/GD32VW55x_RELEASE_V1.0.2/MSDK/wpa_supplicant/src/ap\wpa_auth_ie.c **** 	WPA_PUT_LE16(hdr->version, RSN_VERSION);
  86              		.loc 1 131 15 is_stmt 0
  87 0008 93070003 		li	a5,48
  88              	.LBB130:
  89              	.LBB131:
  90              		.file 2 "..\\..\\..\\..\\wpa_supplicant\\src/utils/common.h"
   1:..\..\..\..\wpa_supplicant\src/utils/common.h **** /*
   2:..\..\..\..\wpa_supplicant\src/utils/common.h ****  * wpa_supplicant/hostapd / common helper functions, etc.
   3:..\..\..\..\wpa_supplicant\src/utils/common.h ****  * Copyright (c) 2002-2007, Jouni Malinen <j@w1.fi>
   4:..\..\..\..\wpa_supplicant\src/utils/common.h ****  *
   5:..\..\..\..\wpa_supplicant\src/utils/common.h ****  * This software may be distributed under the terms of the BSD license.
   6:..\..\..\..\wpa_supplicant\src/utils/common.h ****  * See README for more details.
   7:..\..\..\..\wpa_supplicant\src/utils/common.h ****  */
   8:..\..\..\..\wpa_supplicant\src/utils/common.h **** 
   9:..\..\..\..\wpa_supplicant\src/utils/common.h **** #ifndef COMMON_H
  10:..\..\..\..\wpa_supplicant\src/utils/common.h **** #define COMMON_H
  11:..\..\..\..\wpa_supplicant\src/utils/common.h **** 
  12:..\..\..\..\wpa_supplicant\src/utils/common.h **** #include "os.h"
  13:..\..\..\..\wpa_supplicant\src/utils/common.h **** 
  14:..\..\..\..\wpa_supplicant\src/utils/common.h **** #if defined(__linux__) || defined(__GLIBC__)
  15:..\..\..\..\wpa_supplicant\src/utils/common.h **** #include <endian.h>
  16:..\..\..\..\wpa_supplicant\src/utils/common.h **** #include <byteswap.h>
  17:..\..\..\..\wpa_supplicant\src/utils/common.h **** #endif /* __linux__ */
  18:..\..\..\..\wpa_supplicant\src/utils/common.h **** 
  19:..\..\..\..\wpa_supplicant\src/utils/common.h **** #if defined(__FreeBSD__) || defined(__NetBSD__) || defined(__DragonFly__) || \
  20:..\..\..\..\wpa_supplicant\src/utils/common.h ****     defined(__OpenBSD__)
  21:..\..\..\..\wpa_supplicant\src/utils/common.h **** #include <sys/types.h>
  22:..\..\..\..\wpa_supplicant\src/utils/common.h **** #include <sys/endian.h>
  23:..\..\..\..\wpa_supplicant\src/utils/common.h **** #define __BYTE_ORDER	_BYTE_ORDER
  24:..\..\..\..\wpa_supplicant\src/utils/common.h **** #define	__LITTLE_ENDIAN	_LITTLE_ENDIAN
  25:..\..\..\..\wpa_supplicant\src/utils/common.h **** #define	__BIG_ENDIAN	_BIG_ENDIAN
  26:..\..\..\..\wpa_supplicant\src/utils/common.h **** #ifdef __OpenBSD__
  27:..\..\..\..\wpa_supplicant\src/utils/common.h **** #define bswap_16 swap16
  28:..\..\..\..\wpa_supplicant\src/utils/common.h **** #define bswap_32 swap32
  29:..\..\..\..\wpa_supplicant\src/utils/common.h **** #define bswap_64 swap64
  30:..\..\..\..\wpa_supplicant\src/utils/common.h **** #else /* __OpenBSD__ */
  31:..\..\..\..\wpa_supplicant\src/utils/common.h **** #define bswap_16 bswap16
  32:..\..\..\..\wpa_supplicant\src/utils/common.h **** #define bswap_32 bswap32
  33:..\..\..\..\wpa_supplicant\src/utils/common.h **** #define bswap_64 bswap64
  34:..\..\..\..\wpa_supplicant\src/utils/common.h **** #endif /* __OpenBSD__ */
  35:..\..\..\..\wpa_supplicant\src/utils/common.h **** #endif /* defined(__FreeBSD__) || defined(__NetBSD__) ||
  36:..\..\..\..\wpa_supplicant\src/utils/common.h **** 	* defined(__DragonFly__) || defined(__OpenBSD__) */
  37:..\..\..\..\wpa_supplicant\src/utils/common.h **** 
  38:..\..\..\..\wpa_supplicant\src/utils/common.h **** #ifdef __APPLE__
  39:..\..\..\..\wpa_supplicant\src/utils/common.h **** #include <sys/types.h>
  40:..\..\..\..\wpa_supplicant\src/utils/common.h **** #include <machine/endian.h>
  41:..\..\..\..\wpa_supplicant\src/utils/common.h **** #define __BYTE_ORDER	_BYTE_ORDER
  42:..\..\..\..\wpa_supplicant\src/utils/common.h **** #define __LITTLE_ENDIAN	_LITTLE_ENDIAN
  43:..\..\..\..\wpa_supplicant\src/utils/common.h **** #define __BIG_ENDIAN	_BIG_ENDIAN
  44:..\..\..\..\wpa_supplicant\src/utils/common.h **** static inline unsigned short bswap_16(unsigned short v)
  45:..\..\..\..\wpa_supplicant\src/utils/common.h **** {
  46:..\..\..\..\wpa_supplicant\src/utils/common.h **** 	return ((v & 0xff) << 8) | (v >> 8);
  47:..\..\..\..\wpa_supplicant\src/utils/common.h **** }
  48:..\..\..\..\wpa_supplicant\src/utils/common.h **** 
  49:..\..\..\..\wpa_supplicant\src/utils/common.h **** static inline unsigned int bswap_32(unsigned int v)
  50:..\..\..\..\wpa_supplicant\src/utils/common.h **** {
  51:..\..\..\..\wpa_supplicant\src/utils/common.h **** 	return ((v & 0xff) << 24) | ((v & 0xff00) << 8) |
  52:..\..\..\..\wpa_supplicant\src/utils/common.h **** 		((v & 0xff0000) >> 8) | (v >> 24);
  53:..\..\..\..\wpa_supplicant\src/utils/common.h **** }
  54:..\..\..\..\wpa_supplicant\src/utils/common.h **** #endif /* __APPLE__ */
  55:..\..\..\..\wpa_supplicant\src/utils/common.h **** 
  56:..\..\..\..\wpa_supplicant\src/utils/common.h **** #ifdef CONFIG_GDWIFI
  57:..\..\..\..\wpa_supplicant\src/utils/common.h **** // #include <sys/types.h>
  58:..\..\..\..\wpa_supplicant\src/utils/common.h **** // #include <machine/endian.h>
  59:..\..\..\..\wpa_supplicant\src/utils/common.h **** #define __BYTE_ORDER	BYTE_ORDER
  60:..\..\..\..\wpa_supplicant\src/utils/common.h **** #define __LITTLE_ENDIAN	LITTLE_ENDIAN
  61:..\..\..\..\wpa_supplicant\src/utils/common.h **** #define __BIG_ENDIAN	BIG_ENDIAN
  62:..\..\..\..\wpa_supplicant\src/utils/common.h **** #define ETHER_ADDR_LEN	6
  63:..\..\..\..\wpa_supplicant\src/utils/common.h **** #define ETH_P_802_3	0x0001		/* Dummy type for 802.3 frames  */
  64:..\..\..\..\wpa_supplicant\src/utils/common.h **** 
  65:..\..\..\..\wpa_supplicant\src/utils/common.h **** static inline unsigned short bswap_16(unsigned short v)
  66:..\..\..\..\wpa_supplicant\src/utils/common.h **** {
  67:..\..\..\..\wpa_supplicant\src/utils/common.h **** 	return ((v & 0xff) << 8) | (v >> 8);
  68:..\..\..\..\wpa_supplicant\src/utils/common.h **** }
  69:..\..\..\..\wpa_supplicant\src/utils/common.h **** 
  70:..\..\..\..\wpa_supplicant\src/utils/common.h **** static inline unsigned int bswap_32(unsigned int v)
  71:..\..\..\..\wpa_supplicant\src/utils/common.h **** {
  72:..\..\..\..\wpa_supplicant\src/utils/common.h **** 	return ((v & 0xff) << 24) | ((v & 0xff00) << 8) |
  73:..\..\..\..\wpa_supplicant\src/utils/common.h **** 		((v & 0xff0000) >> 8) | (v >> 24);
  74:..\..\..\..\wpa_supplicant\src/utils/common.h **** }
  75:..\..\..\..\wpa_supplicant\src/utils/common.h **** 
  76:..\..\..\..\wpa_supplicant\src/utils/common.h **** struct ether_header
  77:..\..\..\..\wpa_supplicant\src/utils/common.h **** {
  78:..\..\..\..\wpa_supplicant\src/utils/common.h **** 	uint8_t  ether_dhost[ETHER_ADDR_LEN];
  79:..\..\..\..\wpa_supplicant\src/utils/common.h **** 	uint8_t  ether_shost[ETHER_ADDR_LEN];
  80:..\..\..\..\wpa_supplicant\src/utils/common.h **** 	uint16_t ether_type;
  81:..\..\..\..\wpa_supplicant\src/utils/common.h **** } __PACKED;
  82:..\..\..\..\wpa_supplicant\src/utils/common.h **** #endif /* CONFIG_GDWIFI */
  83:..\..\..\..\wpa_supplicant\src/utils/common.h **** #ifdef __rtems__
  84:..\..\..\..\wpa_supplicant\src/utils/common.h **** #include <rtems/endian.h>
  85:..\..\..\..\wpa_supplicant\src/utils/common.h **** #define __BYTE_ORDER BYTE_ORDER
  86:..\..\..\..\wpa_supplicant\src/utils/common.h **** #define __LITTLE_ENDIAN LITTLE_ENDIAN
  87:..\..\..\..\wpa_supplicant\src/utils/common.h **** #define __BIG_ENDIAN BIG_ENDIAN
  88:..\..\..\..\wpa_supplicant\src/utils/common.h **** #define bswap_16 CPU_swap_u16
  89:..\..\..\..\wpa_supplicant\src/utils/common.h **** #define bswap_32 CPU_swap_u32
  90:..\..\..\..\wpa_supplicant\src/utils/common.h **** #endif /* __rtems__ */
  91:..\..\..\..\wpa_supplicant\src/utils/common.h **** 
  92:..\..\..\..\wpa_supplicant\src/utils/common.h **** #ifdef CONFIG_NATIVE_WINDOWS
  93:..\..\..\..\wpa_supplicant\src/utils/common.h **** #include <winsock.h>
  94:..\..\..\..\wpa_supplicant\src/utils/common.h **** 
  95:..\..\..\..\wpa_supplicant\src/utils/common.h **** typedef int socklen_t;
  96:..\..\..\..\wpa_supplicant\src/utils/common.h **** 
  97:..\..\..\..\wpa_supplicant\src/utils/common.h **** #ifndef MSG_DONTWAIT
  98:..\..\..\..\wpa_supplicant\src/utils/common.h **** #define MSG_DONTWAIT 0 /* not supported */
  99:..\..\..\..\wpa_supplicant\src/utils/common.h **** #endif
 100:..\..\..\..\wpa_supplicant\src/utils/common.h **** 
 101:..\..\..\..\wpa_supplicant\src/utils/common.h **** #endif /* CONFIG_NATIVE_WINDOWS */
 102:..\..\..\..\wpa_supplicant\src/utils/common.h **** 
 103:..\..\..\..\wpa_supplicant\src/utils/common.h **** #ifdef _MSC_VER
 104:..\..\..\..\wpa_supplicant\src/utils/common.h **** #define inline __inline
 105:..\..\..\..\wpa_supplicant\src/utils/common.h **** 
 106:..\..\..\..\wpa_supplicant\src/utils/common.h **** #undef vsnprintf
 107:..\..\..\..\wpa_supplicant\src/utils/common.h **** #define vsnprintf _vsnprintf
 108:..\..\..\..\wpa_supplicant\src/utils/common.h **** #undef close
 109:..\..\..\..\wpa_supplicant\src/utils/common.h **** #define close closesocket
 110:..\..\..\..\wpa_supplicant\src/utils/common.h **** #endif /* _MSC_VER */
 111:..\..\..\..\wpa_supplicant\src/utils/common.h **** 
 112:..\..\..\..\wpa_supplicant\src/utils/common.h **** 
 113:..\..\..\..\wpa_supplicant\src/utils/common.h **** /* Define platform specific integer types */
 114:..\..\..\..\wpa_supplicant\src/utils/common.h **** 
 115:..\..\..\..\wpa_supplicant\src/utils/common.h **** #ifdef _MSC_VER
 116:..\..\..\..\wpa_supplicant\src/utils/common.h **** typedef UINT64 u64;
 117:..\..\..\..\wpa_supplicant\src/utils/common.h **** typedef UINT32 u32;
 118:..\..\..\..\wpa_supplicant\src/utils/common.h **** typedef UINT16 u16;
 119:..\..\..\..\wpa_supplicant\src/utils/common.h **** typedef UINT8 u8;
 120:..\..\..\..\wpa_supplicant\src/utils/common.h **** typedef INT64 s64;
 121:..\..\..\..\wpa_supplicant\src/utils/common.h **** typedef INT32 s32;
 122:..\..\..\..\wpa_supplicant\src/utils/common.h **** typedef INT16 s16;
 123:..\..\..\..\wpa_supplicant\src/utils/common.h **** typedef INT8 s8;
 124:..\..\..\..\wpa_supplicant\src/utils/common.h **** #define WPA_TYPES_DEFINED
 125:..\..\..\..\wpa_supplicant\src/utils/common.h **** #endif /* _MSC_VER */
 126:..\..\..\..\wpa_supplicant\src/utils/common.h **** 
 127:..\..\..\..\wpa_supplicant\src/utils/common.h **** #ifdef __vxworks
 128:..\..\..\..\wpa_supplicant\src/utils/common.h **** typedef unsigned long long u64;
 129:..\..\..\..\wpa_supplicant\src/utils/common.h **** typedef UINT32 u32;
 130:..\..\..\..\wpa_supplicant\src/utils/common.h **** typedef UINT16 u16;
 131:..\..\..\..\wpa_supplicant\src/utils/common.h **** typedef UINT8 u8;
 132:..\..\..\..\wpa_supplicant\src/utils/common.h **** typedef long long s64;
 133:..\..\..\..\wpa_supplicant\src/utils/common.h **** typedef INT32 s32;
 134:..\..\..\..\wpa_supplicant\src/utils/common.h **** typedef INT16 s16;
 135:..\..\..\..\wpa_supplicant\src/utils/common.h **** typedef INT8 s8;
 136:..\..\..\..\wpa_supplicant\src/utils/common.h **** #define WPA_TYPES_DEFINED
 137:..\..\..\..\wpa_supplicant\src/utils/common.h **** #endif /* __vxworks */
 138:..\..\..\..\wpa_supplicant\src/utils/common.h **** 
 139:..\..\..\..\wpa_supplicant\src/utils/common.h **** #ifndef WPA_TYPES_DEFINED
 140:..\..\..\..\wpa_supplicant\src/utils/common.h **** #ifdef CONFIG_USE_INTTYPES_H
 141:..\..\..\..\wpa_supplicant\src/utils/common.h **** #include <inttypes.h>
 142:..\..\..\..\wpa_supplicant\src/utils/common.h **** #else
 143:..\..\..\..\wpa_supplicant\src/utils/common.h **** #include <stdint.h>
 144:..\..\..\..\wpa_supplicant\src/utils/common.h **** #endif
 145:..\..\..\..\wpa_supplicant\src/utils/common.h **** typedef uint64_t u64;
 146:..\..\..\..\wpa_supplicant\src/utils/common.h **** typedef uint32_t u32;
 147:..\..\..\..\wpa_supplicant\src/utils/common.h **** typedef uint16_t u16;
 148:..\..\..\..\wpa_supplicant\src/utils/common.h **** typedef uint8_t u8;
 149:..\..\..\..\wpa_supplicant\src/utils/common.h **** typedef int64_t s64;
 150:..\..\..\..\wpa_supplicant\src/utils/common.h **** typedef int32_t s32;
 151:..\..\..\..\wpa_supplicant\src/utils/common.h **** typedef int16_t s16;
 152:..\..\..\..\wpa_supplicant\src/utils/common.h **** typedef int8_t s8;
 153:..\..\..\..\wpa_supplicant\src/utils/common.h **** #define WPA_TYPES_DEFINED
 154:..\..\..\..\wpa_supplicant\src/utils/common.h **** #endif /* !WPA_TYPES_DEFINED */
 155:..\..\..\..\wpa_supplicant\src/utils/common.h **** 
 156:..\..\..\..\wpa_supplicant\src/utils/common.h **** 
 157:..\..\..\..\wpa_supplicant\src/utils/common.h **** /* Define platform specific byte swapping macros */
 158:..\..\..\..\wpa_supplicant\src/utils/common.h **** 
 159:..\..\..\..\wpa_supplicant\src/utils/common.h **** #if defined(__CYGWIN__) || defined(CONFIG_NATIVE_WINDOWS)
 160:..\..\..\..\wpa_supplicant\src/utils/common.h **** 
 161:..\..\..\..\wpa_supplicant\src/utils/common.h **** static inline unsigned short wpa_swap_16(unsigned short v)
 162:..\..\..\..\wpa_supplicant\src/utils/common.h **** {
 163:..\..\..\..\wpa_supplicant\src/utils/common.h **** 	return ((v & 0xff) << 8) | (v >> 8);
 164:..\..\..\..\wpa_supplicant\src/utils/common.h **** }
 165:..\..\..\..\wpa_supplicant\src/utils/common.h **** 
 166:..\..\..\..\wpa_supplicant\src/utils/common.h **** static inline unsigned int wpa_swap_32(unsigned int v)
 167:..\..\..\..\wpa_supplicant\src/utils/common.h **** {
 168:..\..\..\..\wpa_supplicant\src/utils/common.h **** 	return ((v & 0xff) << 24) | ((v & 0xff00) << 8) |
 169:..\..\..\..\wpa_supplicant\src/utils/common.h **** 		((v & 0xff0000) >> 8) | (v >> 24);
 170:..\..\..\..\wpa_supplicant\src/utils/common.h **** }
 171:..\..\..\..\wpa_supplicant\src/utils/common.h **** 
 172:..\..\..\..\wpa_supplicant\src/utils/common.h **** #define le_to_host16(n) (n)
 173:..\..\..\..\wpa_supplicant\src/utils/common.h **** #define host_to_le16(n) (n)
 174:..\..\..\..\wpa_supplicant\src/utils/common.h **** #define be_to_host16(n) wpa_swap_16(n)
 175:..\..\..\..\wpa_supplicant\src/utils/common.h **** #define host_to_be16(n) wpa_swap_16(n)
 176:..\..\..\..\wpa_supplicant\src/utils/common.h **** #define le_to_host32(n) (n)
 177:..\..\..\..\wpa_supplicant\src/utils/common.h **** #define host_to_le32(n) (n)
 178:..\..\..\..\wpa_supplicant\src/utils/common.h **** #define be_to_host32(n) wpa_swap_32(n)
 179:..\..\..\..\wpa_supplicant\src/utils/common.h **** #define host_to_be32(n) wpa_swap_32(n)
 180:..\..\..\..\wpa_supplicant\src/utils/common.h **** #define host_to_le64(n) (n)
 181:..\..\..\..\wpa_supplicant\src/utils/common.h **** 
 182:..\..\..\..\wpa_supplicant\src/utils/common.h **** #define WPA_BYTE_SWAP_DEFINED
 183:..\..\..\..\wpa_supplicant\src/utils/common.h **** 
 184:..\..\..\..\wpa_supplicant\src/utils/common.h **** #endif /* __CYGWIN__ || CONFIG_NATIVE_WINDOWS */
 185:..\..\..\..\wpa_supplicant\src/utils/common.h **** 
 186:..\..\..\..\wpa_supplicant\src/utils/common.h **** 
 187:..\..\..\..\wpa_supplicant\src/utils/common.h **** #ifndef WPA_BYTE_SWAP_DEFINED
 188:..\..\..\..\wpa_supplicant\src/utils/common.h **** 
 189:..\..\..\..\wpa_supplicant\src/utils/common.h **** #ifndef __BYTE_ORDER
 190:..\..\..\..\wpa_supplicant\src/utils/common.h **** #ifndef __LITTLE_ENDIAN
 191:..\..\..\..\wpa_supplicant\src/utils/common.h **** #ifndef __BIG_ENDIAN
 192:..\..\..\..\wpa_supplicant\src/utils/common.h **** #define __LITTLE_ENDIAN 1234
 193:..\..\..\..\wpa_supplicant\src/utils/common.h **** #define __BIG_ENDIAN 4321
 194:..\..\..\..\wpa_supplicant\src/utils/common.h **** #if defined(sparc)
 195:..\..\..\..\wpa_supplicant\src/utils/common.h **** #define __BYTE_ORDER __BIG_ENDIAN
 196:..\..\..\..\wpa_supplicant\src/utils/common.h **** #endif
 197:..\..\..\..\wpa_supplicant\src/utils/common.h **** #endif /* __BIG_ENDIAN */
 198:..\..\..\..\wpa_supplicant\src/utils/common.h **** #endif /* __LITTLE_ENDIAN */
 199:..\..\..\..\wpa_supplicant\src/utils/common.h **** #endif /* __BYTE_ORDER */
 200:..\..\..\..\wpa_supplicant\src/utils/common.h **** 
 201:..\..\..\..\wpa_supplicant\src/utils/common.h **** #if __BYTE_ORDER == __LITTLE_ENDIAN
 202:..\..\..\..\wpa_supplicant\src/utils/common.h **** #define le_to_host16(n) ((__force u16) (le16) (n))
 203:..\..\..\..\wpa_supplicant\src/utils/common.h **** #define host_to_le16(n) ((__force le16) (u16) (n))
 204:..\..\..\..\wpa_supplicant\src/utils/common.h **** #define be_to_host16(n) bswap_16((__force u16) (be16) (n))
 205:..\..\..\..\wpa_supplicant\src/utils/common.h **** #define host_to_be16(n) ((__force be16) bswap_16((n)))
 206:..\..\..\..\wpa_supplicant\src/utils/common.h **** #define le_to_host32(n) ((__force u32) (le32) (n))
 207:..\..\..\..\wpa_supplicant\src/utils/common.h **** #define host_to_le32(n) ((__force le32) (u32) (n))
 208:..\..\..\..\wpa_supplicant\src/utils/common.h **** #define be_to_host32(n) bswap_32((__force u32) (be32) (n))
 209:..\..\..\..\wpa_supplicant\src/utils/common.h **** #define host_to_be32(n) ((__force be32) bswap_32((n)))
 210:..\..\..\..\wpa_supplicant\src/utils/common.h **** #define le_to_host64(n) ((__force u64) (le64) (n))
 211:..\..\..\..\wpa_supplicant\src/utils/common.h **** #define host_to_le64(n) ((__force le64) (u64) (n))
 212:..\..\..\..\wpa_supplicant\src/utils/common.h **** #define be_to_host64(n) bswap_64((__force u64) (be64) (n))
 213:..\..\..\..\wpa_supplicant\src/utils/common.h **** #define host_to_be64(n) ((__force be64) bswap_64((n)))
 214:..\..\..\..\wpa_supplicant\src/utils/common.h **** #elif __BYTE_ORDER == __BIG_ENDIAN
 215:..\..\..\..\wpa_supplicant\src/utils/common.h **** #define le_to_host16(n) bswap_16(n)
 216:..\..\..\..\wpa_supplicant\src/utils/common.h **** #define host_to_le16(n) bswap_16(n)
 217:..\..\..\..\wpa_supplicant\src/utils/common.h **** #define be_to_host16(n) (n)
 218:..\..\..\..\wpa_supplicant\src/utils/common.h **** #define host_to_be16(n) (n)
 219:..\..\..\..\wpa_supplicant\src/utils/common.h **** #define le_to_host32(n) bswap_32(n)
 220:..\..\..\..\wpa_supplicant\src/utils/common.h **** #define host_to_le32(n) bswap_32(n)
 221:..\..\..\..\wpa_supplicant\src/utils/common.h **** #define be_to_host32(n) (n)
 222:..\..\..\..\wpa_supplicant\src/utils/common.h **** #define host_to_be32(n) (n)
 223:..\..\..\..\wpa_supplicant\src/utils/common.h **** #define le_to_host64(n) bswap_64(n)
 224:..\..\..\..\wpa_supplicant\src/utils/common.h **** #define host_to_le64(n) bswap_64(n)
 225:..\..\..\..\wpa_supplicant\src/utils/common.h **** #define be_to_host64(n) (n)
 226:..\..\..\..\wpa_supplicant\src/utils/common.h **** #define host_to_be64(n) (n)
 227:..\..\..\..\wpa_supplicant\src/utils/common.h **** #ifndef WORDS_BIGENDIAN
 228:..\..\..\..\wpa_supplicant\src/utils/common.h **** #define WORDS_BIGENDIAN
 229:..\..\..\..\wpa_supplicant\src/utils/common.h **** #endif
 230:..\..\..\..\wpa_supplicant\src/utils/common.h **** #else
 231:..\..\..\..\wpa_supplicant\src/utils/common.h **** #error Could not determine CPU byte order
 232:..\..\..\..\wpa_supplicant\src/utils/common.h **** #endif
 233:..\..\..\..\wpa_supplicant\src/utils/common.h **** 
 234:..\..\..\..\wpa_supplicant\src/utils/common.h **** #define WPA_BYTE_SWAP_DEFINED
 235:..\..\..\..\wpa_supplicant\src/utils/common.h **** #endif /* !WPA_BYTE_SWAP_DEFINED */
 236:..\..\..\..\wpa_supplicant\src/utils/common.h **** 
 237:..\..\..\..\wpa_supplicant\src/utils/common.h **** 
 238:..\..\..\..\wpa_supplicant\src/utils/common.h **** /* Macros for handling unaligned memory accesses */
 239:..\..\..\..\wpa_supplicant\src/utils/common.h **** 
 240:..\..\..\..\wpa_supplicant\src/utils/common.h **** static inline u16 WPA_GET_BE16(const u8 *a)
 241:..\..\..\..\wpa_supplicant\src/utils/common.h **** {
 242:..\..\..\..\wpa_supplicant\src/utils/common.h **** 	return (a[0] << 8) | a[1];
 243:..\..\..\..\wpa_supplicant\src/utils/common.h **** }
 244:..\..\..\..\wpa_supplicant\src/utils/common.h **** 
 245:..\..\..\..\wpa_supplicant\src/utils/common.h **** static inline void WPA_PUT_BE16(u8 *a, u16 val)
 246:..\..\..\..\wpa_supplicant\src/utils/common.h **** {
 247:..\..\..\..\wpa_supplicant\src/utils/common.h **** 	a[0] = val >> 8;
 248:..\..\..\..\wpa_supplicant\src/utils/common.h **** 	a[1] = val & 0xff;
 249:..\..\..\..\wpa_supplicant\src/utils/common.h **** }
 250:..\..\..\..\wpa_supplicant\src/utils/common.h **** 
 251:..\..\..\..\wpa_supplicant\src/utils/common.h **** static inline u16 WPA_GET_LE16(const u8 *a)
 252:..\..\..\..\wpa_supplicant\src/utils/common.h **** {
 253:..\..\..\..\wpa_supplicant\src/utils/common.h **** 	return (a[1] << 8) | a[0];
 254:..\..\..\..\wpa_supplicant\src/utils/common.h **** }
 255:..\..\..\..\wpa_supplicant\src/utils/common.h **** 
 256:..\..\..\..\wpa_supplicant\src/utils/common.h **** static inline void WPA_PUT_LE16(u8 *a, u16 val)
 257:..\..\..\..\wpa_supplicant\src/utils/common.h **** {
 258:..\..\..\..\wpa_supplicant\src/utils/common.h **** 	a[1] = val >> 8;
 259:..\..\..\..\wpa_supplicant\src/utils/common.h **** 	a[0] = val & 0xff;
  91              		.loc 2 259 7
  92 000c 854A     		li	s5,1
  93              	.LBE131:
  94              	.LBE130:
 131:C:/Users/stapi/OneDrive/Desktop/GD32VW553/V1_MQTT_OK/GD32VW55X_Wifi_BLE_SDK/GD32VW55x_RELEASE_V1.0.2/MSDK/wpa_supplicant/src/ap\wpa_auth_ie.c **** 	WPA_PUT_LE16(hdr->version, RSN_VERSION);
  95              		.loc 1 131 15
  96 000e 2380F500 		sb	a5,0(a1)
 132:C:/Users/stapi/OneDrive/Desktop/GD32VW553/V1_MQTT_OK/GD32VW55X_Wifi_BLE_SDK/GD32VW55x_RELEASE_V1.0.2/MSDK/wpa_supplicant/src/ap\wpa_auth_ie.c **** 	pos = (u8 *) (hdr + 1);
  97              		.loc 1 132 2 is_stmt 1
  98              	.LVL7:
  99              	.LBB133:
 100              	.LBB132:
 258:..\..\..\..\wpa_supplicant\src/utils/common.h **** 	a[0] = val & 0xff;
 101              		.loc 2 258 2
 258:..\..\..\..\wpa_supplicant\src/utils/common.h **** 	a[0] = val & 0xff;
 102              		.loc 2 258 7 is_stmt 0
 103 0012 A3810500 		sb	zero,3(a1)
 104              		.loc 2 259 2 is_stmt 1
 105              		.loc 2 259 7 is_stmt 0
 106 0016 23815501 		sb	s5,2(a1)
 107              	.LVL8:
 108              	.LBE132:
 109              	.LBE133:
 133:C:/Users/stapi/OneDrive/Desktop/GD32VW553/V1_MQTT_OK/GD32VW55X_Wifi_BLE_SDK/GD32VW55x_RELEASE_V1.0.2/MSDK/wpa_supplicant/src/ap\wpa_auth_ie.c **** 
 110              		.loc 1 133 2 is_stmt 1
 124:C:/Users/stapi/OneDrive/Desktop/GD32VW553/V1_MQTT_OK/GD32VW55X_Wifi_BLE_SDK/GD32VW55x_RELEASE_V1.0.2/MSDK/wpa_supplicant/src/ap\wpa_auth_ie.c **** 	struct rsn_ie_hdr *hdr;
 111              		.loc 1 124 1 is_stmt 0
 112 001a 2E89     		mv	s2,a1
 113              	.LVL9:
 135:C:/Users/stapi/OneDrive/Desktop/GD32VW553/V1_MQTT_OK/GD32VW55X_Wifi_BLE_SDK/GD32VW55x_RELEASE_V1.0.2/MSDK/wpa_supplicant/src/ap\wpa_auth_ie.c **** 	if (suite == 0) {
 114              		.loc 1 135 2 is_stmt 1
 135:C:/Users/stapi/OneDrive/Desktop/GD32VW553/V1_MQTT_OK/GD32VW55X_Wifi_BLE_SDK/GD32VW55x_RELEASE_V1.0.2/MSDK/wpa_supplicant/src/ap\wpa_auth_ie.c **** 	if (suite == 0) {
 115              		.loc 1 135 10 is_stmt 0
 116 001c 4C49     		lw	a1,20(a0)
 117              	.LVL10:
 124:C:/Users/stapi/OneDrive/Desktop/GD32VW553/V1_MQTT_OK/GD32VW55X_Wifi_BLE_SDK/GD32VW55x_RELEASE_V1.0.2/MSDK/wpa_supplicant/src/ap\wpa_auth_ie.c **** 	struct rsn_ie_hdr *hdr;
 118              		.loc 1 124 1
 119 001e AA84     		mv	s1,a0
 135:C:/Users/stapi/OneDrive/Desktop/GD32VW553/V1_MQTT_OK/GD32VW55X_Wifi_BLE_SDK/GD32VW55x_RELEASE_V1.0.2/MSDK/wpa_supplicant/src/ap\wpa_auth_ie.c **** 	if (suite == 0) {
 120              		.loc 1 135 10
 121 0020 0945     		li	a0,2
 122              	.LVL11:
 124:C:/Users/stapi/OneDrive/Desktop/GD32VW553/V1_MQTT_OK/GD32VW55X_Wifi_BLE_SDK/GD32VW55x_RELEASE_V1.0.2/MSDK/wpa_supplicant/src/ap\wpa_auth_ie.c **** 	struct rsn_ie_hdr *hdr;
 123              		.loc 1 124 1
 124 0022 B289     		mv	s3,a2
 125 0024 368A     		mv	s4,a3
 135:C:/Users/stapi/OneDrive/Desktop/GD32VW553/V1_MQTT_OK/GD32VW55X_Wifi_BLE_SDK/GD32VW55x_RELEASE_V1.0.2/MSDK/wpa_supplicant/src/ap\wpa_auth_ie.c **** 	if (suite == 0) {
 126              		.loc 1 135 10
 127 0026 97000000 		call	wpa_cipher_to_suite
 127      E7800000 
 128              	.LVL12:
 136:C:/Users/stapi/OneDrive/Desktop/GD32VW553/V1_MQTT_OK/GD32VW55X_Wifi_BLE_SDK/GD32VW55x_RELEASE_V1.0.2/MSDK/wpa_supplicant/src/ap\wpa_auth_ie.c **** 		wpa_printf(MSG_DEBUG, "Invalid group cipher (%d).",
 129              		.loc 1 136 2 is_stmt 1
 136:C:/Users/stapi/OneDrive/Desktop/GD32VW553/V1_MQTT_OK/GD32VW55X_Wifi_BLE_SDK/GD32VW55x_RELEASE_V1.0.2/MSDK/wpa_supplicant/src/ap\wpa_auth_ie.c **** 		wpa_printf(MSG_DEBUG, "Invalid group cipher (%d).",
 130              		.loc 1 136 5 is_stmt 0
 131 002e 01ED     		bne	a0,zero,.L4
 137:C:/Users/stapi/OneDrive/Desktop/GD32VW553/V1_MQTT_OK/GD32VW55X_Wifi_BLE_SDK/GD32VW55x_RELEASE_V1.0.2/MSDK/wpa_supplicant/src/ap\wpa_auth_ie.c **** 			   conf->wpa_group);
 132              		.loc 1 137 3 is_stmt 1
 133 0030 D048     		lw	a2,20(s1)
 134 0032 B7050000 		lui	a1,%hi(.LC0)
 135 0036 93850500 		addi	a1,a1,%lo(.LC0)
 136              	.LVL13:
 137              	.L69:
 355:C:/Users/stapi/OneDrive/Desktop/GD32VW553/V1_MQTT_OK/GD32VW55X_Wifi_BLE_SDK/GD32VW55x_RELEASE_V1.0.2/MSDK/wpa_supplicant/src/ap\wpa_auth_ie.c **** 				   "Invalid group management cipher (0x%x)",
 138              		.loc 1 355 4 is_stmt 0
 139 003a 0945     		li	a0,2
 140 003c 97000000 		call	wpa_printf
 140      E7800000 
 141              	.LVL14:
 142 0044 C1A2     		j	.L68
 143              	.LVL15:
 144              	.L4:
 141:C:/Users/stapi/OneDrive/Desktop/GD32VW553/V1_MQTT_OK/GD32VW55X_Wifi_BLE_SDK/GD32VW55x_RELEASE_V1.0.2/MSDK/wpa_supplicant/src/ap\wpa_auth_ie.c **** 	pos += RSN_SELECTOR_LEN;
 145              		.loc 1 141 2 is_stmt 1
 146              	.LBB134:
 147              	.LBB135:
 260:..\..\..\..\wpa_supplicant\src/utils/common.h **** }
 261:..\..\..\..\wpa_supplicant\src/utils/common.h **** 
 262:..\..\..\..\wpa_supplicant\src/utils/common.h **** static inline u32 WPA_GET_BE24(const u8 *a)
 263:..\..\..\..\wpa_supplicant\src/utils/common.h **** {
 264:..\..\..\..\wpa_supplicant\src/utils/common.h **** 	return (a[0] << 16) | (a[1] << 8) | a[2];
 265:..\..\..\..\wpa_supplicant\src/utils/common.h **** }
 266:..\..\..\..\wpa_supplicant\src/utils/common.h **** 
 267:..\..\..\..\wpa_supplicant\src/utils/common.h **** static inline void WPA_PUT_BE24(u8 *a, u32 val)
 268:..\..\..\..\wpa_supplicant\src/utils/common.h **** {
 269:..\..\..\..\wpa_supplicant\src/utils/common.h **** 	a[0] = (val >> 16) & 0xff;
 270:..\..\..\..\wpa_supplicant\src/utils/common.h **** 	a[1] = (val >> 8) & 0xff;
 271:..\..\..\..\wpa_supplicant\src/utils/common.h **** 	a[2] = val & 0xff;
 272:..\..\..\..\wpa_supplicant\src/utils/common.h **** }
 273:..\..\..\..\wpa_supplicant\src/utils/common.h **** 
 274:..\..\..\..\wpa_supplicant\src/utils/common.h **** static inline u32 WPA_GET_BE32(const u8 *a)
 275:..\..\..\..\wpa_supplicant\src/utils/common.h **** {
 276:..\..\..\..\wpa_supplicant\src/utils/common.h **** 	return ((u32) a[0] << 24) | (a[1] << 16) | (a[2] << 8) | a[3];
 277:..\..\..\..\wpa_supplicant\src/utils/common.h **** }
 278:..\..\..\..\wpa_supplicant\src/utils/common.h **** 
 279:..\..\..\..\wpa_supplicant\src/utils/common.h **** static inline void WPA_PUT_BE32(u8 *a, u32 val)
 280:..\..\..\..\wpa_supplicant\src/utils/common.h **** {
 281:..\..\..\..\wpa_supplicant\src/utils/common.h **** 	a[0] = (val >> 24) & 0xff;
 148              		.loc 2 281 2
 149              		.loc 2 281 14 is_stmt 0
 150 0046 93578501 		srli	a5,a0,24
 151              		.loc 2 281 7
 152 004a 2302F900 		sb	a5,4(s2)
 282:..\..\..\..\wpa_supplicant\src/utils/common.h **** 	a[1] = (val >> 16) & 0xff;
 153              		.loc 2 282 2 is_stmt 1
 154              		.loc 2 282 14 is_stmt 0
 155 004e 93570501 		srli	a5,a0,16
 156              		.loc 2 282 7
 157 0052 A302F900 		sb	a5,5(s2)
 283:..\..\..\..\wpa_supplicant\src/utils/common.h **** 	a[2] = (val >> 8) & 0xff;
 158              		.loc 2 283 2 is_stmt 1
 159              		.loc 2 283 14 is_stmt 0
 160 0056 93578500 		srli	a5,a0,8
 284:..\..\..\..\wpa_supplicant\src/utils/common.h **** 	a[3] = val & 0xff;
 161              		.loc 2 284 7
 162 005a A303A900 		sb	a0,7(s2)
 283:..\..\..\..\wpa_supplicant\src/utils/common.h **** 	a[2] = (val >> 8) & 0xff;
 163              		.loc 2 283 7
 164 005e 2303F900 		sb	a5,6(s2)
 165              		.loc 2 284 2 is_stmt 1
 166              	.LVL16:
 167              	.LBE135:
 168              	.LBE134:
 142:C:/Users/stapi/OneDrive/Desktop/GD32VW553/V1_MQTT_OK/GD32VW55X_Wifi_BLE_SDK/GD32VW55x_RELEASE_V1.0.2/MSDK/wpa_supplicant/src/ap\wpa_auth_ie.c **** 
 169              		.loc 1 142 2
 144:C:/Users/stapi/OneDrive/Desktop/GD32VW553/V1_MQTT_OK/GD32VW55X_Wifi_BLE_SDK/GD32VW55x_RELEASE_V1.0.2/MSDK/wpa_supplicant/src/ap\wpa_auth_ie.c **** 	count = pos;
 170              		.loc 1 144 2
 145:C:/Users/stapi/OneDrive/Desktop/GD32VW553/V1_MQTT_OK/GD32VW55X_Wifi_BLE_SDK/GD32VW55x_RELEASE_V1.0.2/MSDK/wpa_supplicant/src/ap\wpa_auth_ie.c **** 	pos += 2;
 171              		.loc 1 145 2
 146:C:/Users/stapi/OneDrive/Desktop/GD32VW553/V1_MQTT_OK/GD32VW55X_Wifi_BLE_SDK/GD32VW55x_RELEASE_V1.0.2/MSDK/wpa_supplicant/src/ap\wpa_auth_ie.c **** 
 172              		.loc 1 146 2
 156:C:/Users/stapi/OneDrive/Desktop/GD32VW553/V1_MQTT_OK/GD32VW55X_Wifi_BLE_SDK/GD32VW55x_RELEASE_V1.0.2/MSDK/wpa_supplicant/src/ap\wpa_auth_ie.c **** 	num_suites += res;
 173              		.loc 1 156 8 is_stmt 0
 174 0062 8C5C     		lw	a1,56(s1)
 146:C:/Users/stapi/OneDrive/Desktop/GD32VW553/V1_MQTT_OK/GD32VW55X_Wifi_BLE_SDK/GD32VW55x_RELEASE_V1.0.2/MSDK/wpa_supplicant/src/ap\wpa_auth_ie.c **** 
 175              		.loc 1 146 6
 176 0064 1307A900 		addi	a4,s2,10
 177              	.LVL17:
 156:C:/Users/stapi/OneDrive/Desktop/GD32VW553/V1_MQTT_OK/GD32VW55X_Wifi_BLE_SDK/GD32VW55x_RELEASE_V1.0.2/MSDK/wpa_supplicant/src/ap\wpa_auth_ie.c **** 	num_suites += res;
 178              		.loc 1 156 2 is_stmt 1
 156:C:/Users/stapi/OneDrive/Desktop/GD32VW553/V1_MQTT_OK/GD32VW55X_Wifi_BLE_SDK/GD32VW55x_RELEASE_V1.0.2/MSDK/wpa_supplicant/src/ap\wpa_auth_ie.c **** 	num_suites += res;
 179              		.loc 1 156 8 is_stmt 0
 180 0068 3A85     		mv	a0,a4
 181              	.LVL18:
 182 006a 3A84     		mv	s0,a4
 183 006c 97000000 		call	rsn_cipher_put_suites
 183      E7800000 
 184              	.LVL19:
 157:C:/Users/stapi/OneDrive/Desktop/GD32VW553/V1_MQTT_OK/GD32VW55X_Wifi_BLE_SDK/GD32VW55x_RELEASE_V1.0.2/MSDK/wpa_supplicant/src/ap\wpa_auth_ie.c **** 	pos += res * RSN_SELECTOR_LEN;
 185              		.loc 1 157 2 is_stmt 1
 158:C:/Users/stapi/OneDrive/Desktop/GD32VW553/V1_MQTT_OK/GD32VW55X_Wifi_BLE_SDK/GD32VW55x_RELEASE_V1.0.2/MSDK/wpa_supplicant/src/ap\wpa_auth_ie.c **** 
 186              		.loc 1 158 2
 158:C:/Users/stapi/OneDrive/Desktop/GD32VW553/V1_MQTT_OK/GD32VW55X_Wifi_BLE_SDK/GD32VW55x_RELEASE_V1.0.2/MSDK/wpa_supplicant/src/ap\wpa_auth_ie.c **** 
 187              		.loc 1 158 6 is_stmt 0
 188 0074 33478520 		sh2add	a4,a0,s0
 189              	.LVL20:
 168:C:/Users/stapi/OneDrive/Desktop/GD32VW553/V1_MQTT_OK/GD32VW55X_Wifi_BLE_SDK/GD32VW55x_RELEASE_V1.0.2/MSDK/wpa_supplicant/src/ap\wpa_auth_ie.c **** 		wpa_printf(MSG_DEBUG, "Invalid pairwise cipher (%d).",
 190              		.loc 1 168 2 is_stmt 1
 168:C:/Users/stapi/OneDrive/Desktop/GD32VW553/V1_MQTT_OK/GD32VW55X_Wifi_BLE_SDK/GD32VW55x_RELEASE_V1.0.2/MSDK/wpa_supplicant/src/ap\wpa_auth_ie.c **** 		wpa_printf(MSG_DEBUG, "Invalid pairwise cipher (%d).",
 191              		.loc 1 168 5 is_stmt 0
 192 0078 19E5     		bne	a0,zero,.L6
 169:C:/Users/stapi/OneDrive/Desktop/GD32VW553/V1_MQTT_OK/GD32VW55X_Wifi_BLE_SDK/GD32VW55x_RELEASE_V1.0.2/MSDK/wpa_supplicant/src/ap\wpa_auth_ie.c **** 			   conf->rsn_pairwise);
 193              		.loc 1 169 3 is_stmt 1
 194 007a B7050000 		lui	a1,%hi(.LC1)
 195 007e 905C     		lw	a2,56(s1)
 196 0080 93850500 		addi	a1,a1,%lo(.LC1)
 197 0084 5DBF     		j	.L69
 198              	.L6:
 173:C:/Users/stapi/OneDrive/Desktop/GD32VW553/V1_MQTT_OK/GD32VW55X_Wifi_BLE_SDK/GD32VW55x_RELEASE_V1.0.2/MSDK/wpa_supplicant/src/ap\wpa_auth_ie.c **** 
 199              		.loc 1 173 2
 200              	.LVL21:
 201              	.LBB136:
 202              	.LBB137:
 258:..\..\..\..\wpa_supplicant\src/utils/common.h **** 	a[0] = val & 0xff;
 203              		.loc 2 258 2
 258:..\..\..\..\wpa_supplicant\src/utils/common.h **** 	a[0] = val & 0xff;
 204              		.loc 2 258 7 is_stmt 0
 205 0086 B3470508 		zext.h	a5,a0
 206 008a A183     		srli	a5,a5,8
 207 008c A304F900 		sb	a5,9(s2)
 259:..\..\..\..\wpa_supplicant\src/utils/common.h **** }
 208              		.loc 2 259 2 is_stmt 1
 259:..\..\..\..\wpa_supplicant\src/utils/common.h **** }
 209              		.loc 2 259 7 is_stmt 0
 210 0090 2304A900 		sb	a0,8(s2)
 211              	.LVL22:
 212              	.LBE137:
 213              	.LBE136:
 175:C:/Users/stapi/OneDrive/Desktop/GD32VW553/V1_MQTT_OK/GD32VW55X_Wifi_BLE_SDK/GD32VW55x_RELEASE_V1.0.2/MSDK/wpa_supplicant/src/ap\wpa_auth_ie.c **** 	count = pos;
 214              		.loc 1 175 2 is_stmt 1
 176:C:/Users/stapi/OneDrive/Desktop/GD32VW553/V1_MQTT_OK/GD32VW55X_Wifi_BLE_SDK/GD32VW55x_RELEASE_V1.0.2/MSDK/wpa_supplicant/src/ap\wpa_auth_ie.c **** 	pos += 2;
 215              		.loc 1 176 2
 177:C:/Users/stapi/OneDrive/Desktop/GD32VW553/V1_MQTT_OK/GD32VW55X_Wifi_BLE_SDK/GD32VW55x_RELEASE_V1.0.2/MSDK/wpa_supplicant/src/ap\wpa_auth_ie.c **** 
 216              		.loc 1 177 2
 187:C:/Users/stapi/OneDrive/Desktop/GD32VW553/V1_MQTT_OK/GD32VW55X_Wifi_BLE_SDK/GD32VW55x_RELEASE_V1.0.2/MSDK/wpa_supplicant/src/ap\wpa_auth_ie.c **** 		RSN_SELECTOR_PUT(pos, RSN_AUTH_KEY_MGMT_UNSPEC_802_1X);
 217              		.loc 1 187 2
 187:C:/Users/stapi/OneDrive/Desktop/GD32VW553/V1_MQTT_OK/GD32VW55X_Wifi_BLE_SDK/GD32VW55x_RELEASE_V1.0.2/MSDK/wpa_supplicant/src/ap\wpa_auth_ie.c **** 		RSN_SELECTOR_PUT(pos, RSN_AUTH_KEY_MGMT_UNSPEC_802_1X);
 218              		.loc 1 187 25 is_stmt 0
 219 0094 DC44     		lw	a5,12(s1)
 177:C:/Users/stapi/OneDrive/Desktop/GD32VW553/V1_MQTT_OK/GD32VW55X_Wifi_BLE_SDK/GD32VW55x_RELEASE_V1.0.2/MSDK/wpa_supplicant/src/ap\wpa_auth_ie.c **** 
 220              		.loc 1 177 6
 221 0096 13042700 		addi	s0,a4,2
 222              	.LVL23:
 187:C:/Users/stapi/OneDrive/Desktop/GD32VW553/V1_MQTT_OK/GD32VW55X_Wifi_BLE_SDK/GD32VW55x_RELEASE_V1.0.2/MSDK/wpa_supplicant/src/ap\wpa_auth_ie.c **** 		RSN_SELECTOR_PUT(pos, RSN_AUTH_KEY_MGMT_UNSPEC_802_1X);
 223              		.loc 1 187 25
 224 009a 858B     		andi	a5,a5,1
 187:C:/Users/stapi/OneDrive/Desktop/GD32VW553/V1_MQTT_OK/GD32VW55X_Wifi_BLE_SDK/GD32VW55x_RELEASE_V1.0.2/MSDK/wpa_supplicant/src/ap\wpa_auth_ie.c **** 		RSN_SELECTOR_PUT(pos, RSN_AUTH_KEY_MGMT_UNSPEC_802_1X);
 225              		.loc 1 187 5
 226 009c 99CF     		beq	a5,zero,.L8
 188:C:/Users/stapi/OneDrive/Desktop/GD32VW553/V1_MQTT_OK/GD32VW55X_Wifi_BLE_SDK/GD32VW55x_RELEASE_V1.0.2/MSDK/wpa_supplicant/src/ap\wpa_auth_ie.c **** 		pos += RSN_SELECTOR_LEN;
 227              		.loc 1 188 3 is_stmt 1
 228              	.LVL24:
 229              	.LBB138:
 230              	.LBB139:
 281:..\..\..\..\wpa_supplicant\src/utils/common.h **** 	a[1] = (val >> 16) & 0xff;
 231              		.loc 2 281 2
 282:..\..\..\..\wpa_supplicant\src/utils/common.h **** 	a[2] = (val >> 8) & 0xff;
 232              		.loc 2 282 7 is_stmt 0
 233 009e BD47     		li	a5,15
 234 00a0 A301F700 		sb	a5,3(a4)
 283:..\..\..\..\wpa_supplicant\src/utils/common.h **** 	a[3] = val & 0xff;
 235              		.loc 2 283 7
 236 00a4 9307C0FA 		li	a5,-84
 237 00a8 2302F700 		sb	a5,4(a4)
 281:..\..\..\..\wpa_supplicant\src/utils/common.h **** 	a[1] = (val >> 16) & 0xff;
 238              		.loc 2 281 7
 239 00ac 23010700 		sb	zero,2(a4)
 282:..\..\..\..\wpa_supplicant\src/utils/common.h **** 	a[2] = (val >> 8) & 0xff;
 240              		.loc 2 282 2 is_stmt 1
 283:..\..\..\..\wpa_supplicant\src/utils/common.h **** 	a[3] = val & 0xff;
 241              		.loc 2 283 2
 242              		.loc 2 284 2
 243              		.loc 2 284 7 is_stmt 0
 244 00b0 A3025701 		sb	s5,5(a4)
 245              	.LVL25:
 246              	.LBE139:
 247              	.LBE138:
 189:C:/Users/stapi/OneDrive/Desktop/GD32VW553/V1_MQTT_OK/GD32VW55X_Wifi_BLE_SDK/GD32VW55x_RELEASE_V1.0.2/MSDK/wpa_supplicant/src/ap\wpa_auth_ie.c **** 		num_suites++;
 248              		.loc 1 189 3 is_stmt 1
 189:C:/Users/stapi/OneDrive/Desktop/GD32VW553/V1_MQTT_OK/GD32VW55X_Wifi_BLE_SDK/GD32VW55x_RELEASE_V1.0.2/MSDK/wpa_supplicant/src/ap\wpa_auth_ie.c **** 		num_suites++;
 249              		.loc 1 189 7 is_stmt 0
 250 00b4 13046700 		addi	s0,a4,6
 251              	.LVL26:
 190:C:/Users/stapi/OneDrive/Desktop/GD32VW553/V1_MQTT_OK/GD32VW55X_Wifi_BLE_SDK/GD32VW55x_RELEASE_V1.0.2/MSDK/wpa_supplicant/src/ap\wpa_auth_ie.c **** 	}
 252              		.loc 1 190 3 is_stmt 1
 190:C:/Users/stapi/OneDrive/Desktop/GD32VW553/V1_MQTT_OK/GD32VW55X_Wifi_BLE_SDK/GD32VW55x_RELEASE_V1.0.2/MSDK/wpa_supplicant/src/ap\wpa_auth_ie.c **** 	}
 253              		.loc 1 190 13 is_stmt 0
 254 00b8 8547     		li	a5,1
 255              	.LVL27:
 256              	.L8:
 192:C:/Users/stapi/OneDrive/Desktop/GD32VW553/V1_MQTT_OK/GD32VW55X_Wifi_BLE_SDK/GD32VW55x_RELEASE_V1.0.2/MSDK/wpa_supplicant/src/ap\wpa_auth_ie.c **** 		RSN_SELECTOR_PUT(pos, RSN_AUTH_KEY_MGMT_PSK_OVER_802_1X);
 257              		.loc 1 192 2 is_stmt 1
 192:C:/Users/stapi/OneDrive/Desktop/GD32VW553/V1_MQTT_OK/GD32VW55X_Wifi_BLE_SDK/GD32VW55x_RELEASE_V1.0.2/MSDK/wpa_supplicant/src/ap\wpa_auth_ie.c **** 		RSN_SELECTOR_PUT(pos, RSN_AUTH_KEY_MGMT_PSK_OVER_802_1X);
 258              		.loc 1 192 25 is_stmt 0
 259 00ba D444     		lw	a3,12(s1)
 260 00bc 898A     		andi	a3,a3,2
 192:C:/Users/stapi/OneDrive/Desktop/GD32VW553/V1_MQTT_OK/GD32VW55X_Wifi_BLE_SDK/GD32VW55x_RELEASE_V1.0.2/MSDK/wpa_supplicant/src/ap\wpa_auth_ie.c **** 		RSN_SELECTOR_PUT(pos, RSN_AUTH_KEY_MGMT_PSK_OVER_802_1X);
 261              		.loc 1 192 5
 262 00be 99CE     		beq	a3,zero,.L9
 193:C:/Users/stapi/OneDrive/Desktop/GD32VW553/V1_MQTT_OK/GD32VW55X_Wifi_BLE_SDK/GD32VW55x_RELEASE_V1.0.2/MSDK/wpa_supplicant/src/ap\wpa_auth_ie.c **** 		pos += RSN_SELECTOR_LEN;
 263              		.loc 1 193 3 is_stmt 1
 264              	.LVL28:
 265              	.LBB140:
 266              	.LBB141:
 281:..\..\..\..\wpa_supplicant\src/utils/common.h **** 	a[1] = (val >> 16) & 0xff;
 267              		.loc 2 281 2
 282:..\..\..\..\wpa_supplicant\src/utils/common.h **** 	a[2] = (val >> 8) & 0xff;
 268              		.loc 2 282 7 is_stmt 0
 269 00c0 BD46     		li	a3,15
 270 00c2 A300D400 		sb	a3,1(s0)
 283:..\..\..\..\wpa_supplicant\src/utils/common.h **** 	a[3] = val & 0xff;
 271              		.loc 2 283 7
 272 00c6 9306C0FA 		li	a3,-84
 273 00ca 2301D400 		sb	a3,2(s0)
 274              		.loc 2 284 7
 275 00ce 8946     		li	a3,2
 281:..\..\..\..\wpa_supplicant\src/utils/common.h **** 	a[1] = (val >> 16) & 0xff;
 276              		.loc 2 281 7
 277 00d0 23000400 		sb	zero,0(s0)
 282:..\..\..\..\wpa_supplicant\src/utils/common.h **** 	a[2] = (val >> 8) & 0xff;
 278              		.loc 2 282 2 is_stmt 1
 283:..\..\..\..\wpa_supplicant\src/utils/common.h **** 	a[3] = val & 0xff;
 279              		.loc 2 283 2
 280              		.loc 2 284 2
 281              		.loc 2 284 7 is_stmt 0
 282 00d4 A301D400 		sb	a3,3(s0)
 283              	.LVL29:
 284              	.LBE141:
 285              	.LBE140:
 194:C:/Users/stapi/OneDrive/Desktop/GD32VW553/V1_MQTT_OK/GD32VW55X_Wifi_BLE_SDK/GD32VW55x_RELEASE_V1.0.2/MSDK/wpa_supplicant/src/ap\wpa_auth_ie.c **** 		num_suites++;
 286              		.loc 1 194 3 is_stmt 1
 195:C:/Users/stapi/OneDrive/Desktop/GD32VW553/V1_MQTT_OK/GD32VW55X_Wifi_BLE_SDK/GD32VW55x_RELEASE_V1.0.2/MSDK/wpa_supplicant/src/ap\wpa_auth_ie.c **** 	}
 287              		.loc 1 195 13 is_stmt 0
 288 00d8 8507     		addi	a5,a5,1
 289              	.LVL30:
 194:C:/Users/stapi/OneDrive/Desktop/GD32VW553/V1_MQTT_OK/GD32VW55X_Wifi_BLE_SDK/GD32VW55x_RELEASE_V1.0.2/MSDK/wpa_supplicant/src/ap\wpa_auth_ie.c **** 		num_suites++;
 290              		.loc 1 194 7
 291 00da 1104     		addi	s0,s0,4
 292              	.LVL31:
 195:C:/Users/stapi/OneDrive/Desktop/GD32VW553/V1_MQTT_OK/GD32VW55X_Wifi_BLE_SDK/GD32VW55x_RELEASE_V1.0.2/MSDK/wpa_supplicant/src/ap\wpa_auth_ie.c **** 	}
 293              		.loc 1 195 3 is_stmt 1
 294              	.L9:
 216:C:/Users/stapi/OneDrive/Desktop/GD32VW553/V1_MQTT_OK/GD32VW55X_Wifi_BLE_SDK/GD32VW55x_RELEASE_V1.0.2/MSDK/wpa_supplicant/src/ap\wpa_auth_ie.c **** 		RSN_SELECTOR_PUT(pos, RSN_AUTH_KEY_MGMT_802_1X_SHA256);
 295              		.loc 1 216 2
 216:C:/Users/stapi/OneDrive/Desktop/GD32VW553/V1_MQTT_OK/GD32VW55X_Wifi_BLE_SDK/GD32VW55x_RELEASE_V1.0.2/MSDK/wpa_supplicant/src/ap\wpa_auth_ie.c **** 		RSN_SELECTOR_PUT(pos, RSN_AUTH_KEY_MGMT_802_1X_SHA256);
 296              		.loc 1 216 25 is_stmt 0
 297 00dc D444     		lw	a3,12(s1)
 298 00de 93F60608 		andi	a3,a3,128
 216:C:/Users/stapi/OneDrive/Desktop/GD32VW553/V1_MQTT_OK/GD32VW55X_Wifi_BLE_SDK/GD32VW55x_RELEASE_V1.0.2/MSDK/wpa_supplicant/src/ap\wpa_auth_ie.c **** 		RSN_SELECTOR_PUT(pos, RSN_AUTH_KEY_MGMT_802_1X_SHA256);
 299              		.loc 1 216 5
 300 00e2 99CE     		beq	a3,zero,.L10
 217:C:/Users/stapi/OneDrive/Desktop/GD32VW553/V1_MQTT_OK/GD32VW55X_Wifi_BLE_SDK/GD32VW55x_RELEASE_V1.0.2/MSDK/wpa_supplicant/src/ap\wpa_auth_ie.c **** 		pos += RSN_SELECTOR_LEN;
 301              		.loc 1 217 3 is_stmt 1
 302              	.LVL32:
 303              	.LBB142:
 304              	.LBB143:
 281:..\..\..\..\wpa_supplicant\src/utils/common.h **** 	a[1] = (val >> 16) & 0xff;
 305              		.loc 2 281 2
 282:..\..\..\..\wpa_supplicant\src/utils/common.h **** 	a[2] = (val >> 8) & 0xff;
 306              		.loc 2 282 7 is_stmt 0
 307 00e4 BD46     		li	a3,15
 308 00e6 A300D400 		sb	a3,1(s0)
 283:..\..\..\..\wpa_supplicant\src/utils/common.h **** 	a[3] = val & 0xff;
 309              		.loc 2 283 7
 310 00ea 9306C0FA 		li	a3,-84
 311 00ee 2301D400 		sb	a3,2(s0)
 312              		.loc 2 284 7
 313 00f2 9546     		li	a3,5
 281:..\..\..\..\wpa_supplicant\src/utils/common.h **** 	a[1] = (val >> 16) & 0xff;
 314              		.loc 2 281 7
 315 00f4 23000400 		sb	zero,0(s0)
 282:..\..\..\..\wpa_supplicant\src/utils/common.h **** 	a[2] = (val >> 8) & 0xff;
 316              		.loc 2 282 2 is_stmt 1
 283:..\..\..\..\wpa_supplicant\src/utils/common.h **** 	a[3] = val & 0xff;
 317              		.loc 2 283 2
 318              		.loc 2 284 2
 319              		.loc 2 284 7 is_stmt 0
 320 00f8 A301D400 		sb	a3,3(s0)
 321              	.LVL33:
 322              	.LBE143:
 323              	.LBE142:
 218:C:/Users/stapi/OneDrive/Desktop/GD32VW553/V1_MQTT_OK/GD32VW55X_Wifi_BLE_SDK/GD32VW55x_RELEASE_V1.0.2/MSDK/wpa_supplicant/src/ap\wpa_auth_ie.c **** 		num_suites++;
 324              		.loc 1 218 3 is_stmt 1
 219:C:/Users/stapi/OneDrive/Desktop/GD32VW553/V1_MQTT_OK/GD32VW55X_Wifi_BLE_SDK/GD32VW55x_RELEASE_V1.0.2/MSDK/wpa_supplicant/src/ap\wpa_auth_ie.c **** 	}
 325              		.loc 1 219 13 is_stmt 0
 326 00fc 8507     		addi	a5,a5,1
 327              	.LVL34:
 218:C:/Users/stapi/OneDrive/Desktop/GD32VW553/V1_MQTT_OK/GD32VW55X_Wifi_BLE_SDK/GD32VW55x_RELEASE_V1.0.2/MSDK/wpa_supplicant/src/ap\wpa_auth_ie.c **** 		num_suites++;
 328              		.loc 1 218 7
 329 00fe 1104     		addi	s0,s0,4
 330              	.LVL35:
 219:C:/Users/stapi/OneDrive/Desktop/GD32VW553/V1_MQTT_OK/GD32VW55X_Wifi_BLE_SDK/GD32VW55x_RELEASE_V1.0.2/MSDK/wpa_supplicant/src/ap\wpa_auth_ie.c **** 	}
 331              		.loc 1 219 3 is_stmt 1
 332              	.L10:
 221:C:/Users/stapi/OneDrive/Desktop/GD32VW553/V1_MQTT_OK/GD32VW55X_Wifi_BLE_SDK/GD32VW55x_RELEASE_V1.0.2/MSDK/wpa_supplicant/src/ap\wpa_auth_ie.c **** 		RSN_SELECTOR_PUT(pos, RSN_AUTH_KEY_MGMT_PSK_SHA256);
 333              		.loc 1 221 2
 221:C:/Users/stapi/OneDrive/Desktop/GD32VW553/V1_MQTT_OK/GD32VW55X_Wifi_BLE_SDK/GD32VW55x_RELEASE_V1.0.2/MSDK/wpa_supplicant/src/ap\wpa_auth_ie.c **** 		RSN_SELECTOR_PUT(pos, RSN_AUTH_KEY_MGMT_PSK_SHA256);
 334              		.loc 1 221 25 is_stmt 0
 335 0100 D444     		lw	a3,12(s1)
 336 0102 93F60610 		andi	a3,a3,256
 221:C:/Users/stapi/OneDrive/Desktop/GD32VW553/V1_MQTT_OK/GD32VW55X_Wifi_BLE_SDK/GD32VW55x_RELEASE_V1.0.2/MSDK/wpa_supplicant/src/ap\wpa_auth_ie.c **** 		RSN_SELECTOR_PUT(pos, RSN_AUTH_KEY_MGMT_PSK_SHA256);
 337              		.loc 1 221 5
 338 0106 99CE     		beq	a3,zero,.L11
 222:C:/Users/stapi/OneDrive/Desktop/GD32VW553/V1_MQTT_OK/GD32VW55X_Wifi_BLE_SDK/GD32VW55x_RELEASE_V1.0.2/MSDK/wpa_supplicant/src/ap\wpa_auth_ie.c **** 		pos += RSN_SELECTOR_LEN;
 339              		.loc 1 222 3 is_stmt 1
 340              	.LVL36:
 341              	.LBB144:
 342              	.LBB145:
 281:..\..\..\..\wpa_supplicant\src/utils/common.h **** 	a[1] = (val >> 16) & 0xff;
 343              		.loc 2 281 2
 282:..\..\..\..\wpa_supplicant\src/utils/common.h **** 	a[2] = (val >> 8) & 0xff;
 344              		.loc 2 282 7 is_stmt 0
 345 0108 BD46     		li	a3,15
 346 010a A300D400 		sb	a3,1(s0)
 283:..\..\..\..\wpa_supplicant\src/utils/common.h **** 	a[3] = val & 0xff;
 347              		.loc 2 283 7
 348 010e 9306C0FA 		li	a3,-84
 349 0112 2301D400 		sb	a3,2(s0)
 350              		.loc 2 284 7
 351 0116 9946     		li	a3,6
 281:..\..\..\..\wpa_supplicant\src/utils/common.h **** 	a[1] = (val >> 16) & 0xff;
 352              		.loc 2 281 7
 353 0118 23000400 		sb	zero,0(s0)
 282:..\..\..\..\wpa_supplicant\src/utils/common.h **** 	a[2] = (val >> 8) & 0xff;
 354              		.loc 2 282 2 is_stmt 1
 283:..\..\..\..\wpa_supplicant\src/utils/common.h **** 	a[3] = val & 0xff;
 355              		.loc 2 283 2
 356              		.loc 2 284 2
 357              		.loc 2 284 7 is_stmt 0
 358 011c A301D400 		sb	a3,3(s0)
 359              	.LVL37:
 360              	.LBE145:
 361              	.LBE144:
 223:C:/Users/stapi/OneDrive/Desktop/GD32VW553/V1_MQTT_OK/GD32VW55X_Wifi_BLE_SDK/GD32VW55x_RELEASE_V1.0.2/MSDK/wpa_supplicant/src/ap\wpa_auth_ie.c **** 		num_suites++;
 362              		.loc 1 223 3 is_stmt 1
 224:C:/Users/stapi/OneDrive/Desktop/GD32VW553/V1_MQTT_OK/GD32VW55X_Wifi_BLE_SDK/GD32VW55x_RELEASE_V1.0.2/MSDK/wpa_supplicant/src/ap\wpa_auth_ie.c **** 	}
 363              		.loc 1 224 13 is_stmt 0
 364 0120 8507     		addi	a5,a5,1
 365              	.LVL38:
 223:C:/Users/stapi/OneDrive/Desktop/GD32VW553/V1_MQTT_OK/GD32VW55X_Wifi_BLE_SDK/GD32VW55x_RELEASE_V1.0.2/MSDK/wpa_supplicant/src/ap\wpa_auth_ie.c **** 		num_suites++;
 366              		.loc 1 223 7
 367 0122 1104     		addi	s0,s0,4
 368              	.LVL39:
 224:C:/Users/stapi/OneDrive/Desktop/GD32VW553/V1_MQTT_OK/GD32VW55X_Wifi_BLE_SDK/GD32VW55x_RELEASE_V1.0.2/MSDK/wpa_supplicant/src/ap\wpa_auth_ie.c **** 	}
 369              		.loc 1 224 3 is_stmt 1
 370              	.L11:
 227:C:/Users/stapi/OneDrive/Desktop/GD32VW553/V1_MQTT_OK/GD32VW55X_Wifi_BLE_SDK/GD32VW55x_RELEASE_V1.0.2/MSDK/wpa_supplicant/src/ap\wpa_auth_ie.c **** 		RSN_SELECTOR_PUT(pos, RSN_AUTH_KEY_MGMT_SAE);
 371              		.loc 1 227 2
 227:C:/Users/stapi/OneDrive/Desktop/GD32VW553/V1_MQTT_OK/GD32VW55X_Wifi_BLE_SDK/GD32VW55x_RELEASE_V1.0.2/MSDK/wpa_supplicant/src/ap\wpa_auth_ie.c **** 		RSN_SELECTOR_PUT(pos, RSN_AUTH_KEY_MGMT_SAE);
 372              		.loc 1 227 25 is_stmt 0
 373 0124 D444     		lw	a3,12(s1)
 374 0126 93F60640 		andi	a3,a3,1024
 227:C:/Users/stapi/OneDrive/Desktop/GD32VW553/V1_MQTT_OK/GD32VW55X_Wifi_BLE_SDK/GD32VW55x_RELEASE_V1.0.2/MSDK/wpa_supplicant/src/ap\wpa_auth_ie.c **** 		RSN_SELECTOR_PUT(pos, RSN_AUTH_KEY_MGMT_SAE);
 375              		.loc 1 227 5
 376 012a 99CE     		beq	a3,zero,.L12
 228:C:/Users/stapi/OneDrive/Desktop/GD32VW553/V1_MQTT_OK/GD32VW55X_Wifi_BLE_SDK/GD32VW55x_RELEASE_V1.0.2/MSDK/wpa_supplicant/src/ap\wpa_auth_ie.c **** 		pos += RSN_SELECTOR_LEN;
 377              		.loc 1 228 3 is_stmt 1
 378              	.LVL40:
 379              	.LBB146:
 380              	.LBB147:
 281:..\..\..\..\wpa_supplicant\src/utils/common.h **** 	a[1] = (val >> 16) & 0xff;
 381              		.loc 2 281 2
 282:..\..\..\..\wpa_supplicant\src/utils/common.h **** 	a[2] = (val >> 8) & 0xff;
 382              		.loc 2 282 7 is_stmt 0
 383 012c BD46     		li	a3,15
 384 012e A300D400 		sb	a3,1(s0)
 283:..\..\..\..\wpa_supplicant\src/utils/common.h **** 	a[3] = val & 0xff;
 385              		.loc 2 283 7
 386 0132 9306C0FA 		li	a3,-84
 387 0136 2301D400 		sb	a3,2(s0)
 388              		.loc 2 284 7
 389 013a A146     		li	a3,8
 281:..\..\..\..\wpa_supplicant\src/utils/common.h **** 	a[1] = (val >> 16) & 0xff;
 390              		.loc 2 281 7
 391 013c 23000400 		sb	zero,0(s0)
 282:..\..\..\..\wpa_supplicant\src/utils/common.h **** 	a[2] = (val >> 8) & 0xff;
 392              		.loc 2 282 2 is_stmt 1
 283:..\..\..\..\wpa_supplicant\src/utils/common.h **** 	a[3] = val & 0xff;
 393              		.loc 2 283 2
 394              		.loc 2 284 2
 395              		.loc 2 284 7 is_stmt 0
 396 0140 A301D400 		sb	a3,3(s0)
 397              	.LVL41:
 398              	.LBE147:
 399              	.LBE146:
 229:C:/Users/stapi/OneDrive/Desktop/GD32VW553/V1_MQTT_OK/GD32VW55X_Wifi_BLE_SDK/GD32VW55x_RELEASE_V1.0.2/MSDK/wpa_supplicant/src/ap\wpa_auth_ie.c **** 		num_suites++;
 400              		.loc 1 229 3 is_stmt 1
 230:C:/Users/stapi/OneDrive/Desktop/GD32VW553/V1_MQTT_OK/GD32VW55X_Wifi_BLE_SDK/GD32VW55x_RELEASE_V1.0.2/MSDK/wpa_supplicant/src/ap\wpa_auth_ie.c **** 	}
 401              		.loc 1 230 13 is_stmt 0
 402 0144 8507     		addi	a5,a5,1
 403              	.LVL42:
 229:C:/Users/stapi/OneDrive/Desktop/GD32VW553/V1_MQTT_OK/GD32VW55X_Wifi_BLE_SDK/GD32VW55x_RELEASE_V1.0.2/MSDK/wpa_supplicant/src/ap\wpa_auth_ie.c **** 		num_suites++;
 404              		.loc 1 229 7
 405 0146 1104     		addi	s0,s0,4
 406              	.LVL43:
 230:C:/Users/stapi/OneDrive/Desktop/GD32VW553/V1_MQTT_OK/GD32VW55X_Wifi_BLE_SDK/GD32VW55x_RELEASE_V1.0.2/MSDK/wpa_supplicant/src/ap\wpa_auth_ie.c **** 	}
 407              		.loc 1 230 3 is_stmt 1
 408              	.L12:
 232:C:/Users/stapi/OneDrive/Desktop/GD32VW553/V1_MQTT_OK/GD32VW55X_Wifi_BLE_SDK/GD32VW55x_RELEASE_V1.0.2/MSDK/wpa_supplicant/src/ap\wpa_auth_ie.c **** 		RSN_SELECTOR_PUT(pos, RSN_AUTH_KEY_MGMT_FT_SAE);
 409              		.loc 1 232 2
 232:C:/Users/stapi/OneDrive/Desktop/GD32VW553/V1_MQTT_OK/GD32VW55X_Wifi_BLE_SDK/GD32VW55x_RELEASE_V1.0.2/MSDK/wpa_supplicant/src/ap\wpa_auth_ie.c **** 		RSN_SELECTOR_PUT(pos, RSN_AUTH_KEY_MGMT_FT_SAE);
 410              		.loc 1 232 25 is_stmt 0
 411 0148 D444     		lw	a3,12(s1)
 412 014a 93D6B648 		bexti	a3,a3,11
 232:C:/Users/stapi/OneDrive/Desktop/GD32VW553/V1_MQTT_OK/GD32VW55X_Wifi_BLE_SDK/GD32VW55x_RELEASE_V1.0.2/MSDK/wpa_supplicant/src/ap\wpa_auth_ie.c **** 		RSN_SELECTOR_PUT(pos, RSN_AUTH_KEY_MGMT_FT_SAE);
 413              		.loc 1 232 5
 414 014e 99CE     		beq	a3,zero,.L13
 233:C:/Users/stapi/OneDrive/Desktop/GD32VW553/V1_MQTT_OK/GD32VW55X_Wifi_BLE_SDK/GD32VW55x_RELEASE_V1.0.2/MSDK/wpa_supplicant/src/ap\wpa_auth_ie.c **** 		pos += RSN_SELECTOR_LEN;
 415              		.loc 1 233 3 is_stmt 1
 416              	.LVL44:
 417              	.LBB148:
 418              	.LBB149:
 281:..\..\..\..\wpa_supplicant\src/utils/common.h **** 	a[1] = (val >> 16) & 0xff;
 419              		.loc 2 281 2
 282:..\..\..\..\wpa_supplicant\src/utils/common.h **** 	a[2] = (val >> 8) & 0xff;
 420              		.loc 2 282 7 is_stmt 0
 421 0150 BD46     		li	a3,15
 422 0152 A300D400 		sb	a3,1(s0)
 283:..\..\..\..\wpa_supplicant\src/utils/common.h **** 	a[3] = val & 0xff;
 423              		.loc 2 283 7
 424 0156 9306C0FA 		li	a3,-84
 425 015a 2301D400 		sb	a3,2(s0)
 426              		.loc 2 284 7
 427 015e A546     		li	a3,9
 281:..\..\..\..\wpa_supplicant\src/utils/common.h **** 	a[1] = (val >> 16) & 0xff;
 428              		.loc 2 281 7
 429 0160 23000400 		sb	zero,0(s0)
 282:..\..\..\..\wpa_supplicant\src/utils/common.h **** 	a[2] = (val >> 8) & 0xff;
 430              		.loc 2 282 2 is_stmt 1
 283:..\..\..\..\wpa_supplicant\src/utils/common.h **** 	a[3] = val & 0xff;
 431              		.loc 2 283 2
 432              		.loc 2 284 2
 433              		.loc 2 284 7 is_stmt 0
 434 0164 A301D400 		sb	a3,3(s0)
 435              	.LVL45:
 436              	.LBE149:
 437              	.LBE148:
 234:C:/Users/stapi/OneDrive/Desktop/GD32VW553/V1_MQTT_OK/GD32VW55X_Wifi_BLE_SDK/GD32VW55x_RELEASE_V1.0.2/MSDK/wpa_supplicant/src/ap\wpa_auth_ie.c **** 		num_suites++;
 438              		.loc 1 234 3 is_stmt 1
 235:C:/Users/stapi/OneDrive/Desktop/GD32VW553/V1_MQTT_OK/GD32VW55X_Wifi_BLE_SDK/GD32VW55x_RELEASE_V1.0.2/MSDK/wpa_supplicant/src/ap\wpa_auth_ie.c **** 	}
 439              		.loc 1 235 13 is_stmt 0
 440 0168 8507     		addi	a5,a5,1
 441              	.LVL46:
 234:C:/Users/stapi/OneDrive/Desktop/GD32VW553/V1_MQTT_OK/GD32VW55X_Wifi_BLE_SDK/GD32VW55x_RELEASE_V1.0.2/MSDK/wpa_supplicant/src/ap\wpa_auth_ie.c **** 		num_suites++;
 442              		.loc 1 234 7
 443 016a 1104     		addi	s0,s0,4
 444              	.LVL47:
 235:C:/Users/stapi/OneDrive/Desktop/GD32VW553/V1_MQTT_OK/GD32VW55X_Wifi_BLE_SDK/GD32VW55x_RELEASE_V1.0.2/MSDK/wpa_supplicant/src/ap\wpa_auth_ie.c **** 	}
 445              		.loc 1 235 3 is_stmt 1
 446              	.L13:
 238:C:/Users/stapi/OneDrive/Desktop/GD32VW553/V1_MQTT_OK/GD32VW55X_Wifi_BLE_SDK/GD32VW55x_RELEASE_V1.0.2/MSDK/wpa_supplicant/src/ap\wpa_auth_ie.c **** 		RSN_SELECTOR_PUT(pos, RSN_AUTH_KEY_MGMT_802_1X_SUITE_B);
 447              		.loc 1 238 2
 238:C:/Users/stapi/OneDrive/Desktop/GD32VW553/V1_MQTT_OK/GD32VW55X_Wifi_BLE_SDK/GD32VW55x_RELEASE_V1.0.2/MSDK/wpa_supplicant/src/ap\wpa_auth_ie.c **** 		RSN_SELECTOR_PUT(pos, RSN_AUTH_KEY_MGMT_802_1X_SUITE_B);
 448              		.loc 1 238 25 is_stmt 0
 449 016c D044     		lw	a2,12(s1)
 450 016e C166     		li	a3,65536
 451 0170 F18E     		and	a3,a3,a2
 238:C:/Users/stapi/OneDrive/Desktop/GD32VW553/V1_MQTT_OK/GD32VW55X_Wifi_BLE_SDK/GD32VW55x_RELEASE_V1.0.2/MSDK/wpa_supplicant/src/ap\wpa_auth_ie.c **** 		RSN_SELECTOR_PUT(pos, RSN_AUTH_KEY_MGMT_802_1X_SUITE_B);
 452              		.loc 1 238 5
 453 0172 99CE     		beq	a3,zero,.L14
 239:C:/Users/stapi/OneDrive/Desktop/GD32VW553/V1_MQTT_OK/GD32VW55X_Wifi_BLE_SDK/GD32VW55x_RELEASE_V1.0.2/MSDK/wpa_supplicant/src/ap\wpa_auth_ie.c **** 		pos += RSN_SELECTOR_LEN;
 454              		.loc 1 239 3 is_stmt 1
 455              	.LVL48:
 456              	.LBB150:
 457              	.LBB151:
 281:..\..\..\..\wpa_supplicant\src/utils/common.h **** 	a[1] = (val >> 16) & 0xff;
 458              		.loc 2 281 2
 282:..\..\..\..\wpa_supplicant\src/utils/common.h **** 	a[2] = (val >> 8) & 0xff;
 459              		.loc 2 282 7 is_stmt 0
 460 0174 BD46     		li	a3,15
 461 0176 A300D400 		sb	a3,1(s0)
 283:..\..\..\..\wpa_supplicant\src/utils/common.h **** 	a[3] = val & 0xff;
 462              		.loc 2 283 7
 463 017a 9306C0FA 		li	a3,-84
 464 017e 2301D400 		sb	a3,2(s0)
 465              		.loc 2 284 7
 466 0182 AD46     		li	a3,11
 281:..\..\..\..\wpa_supplicant\src/utils/common.h **** 	a[1] = (val >> 16) & 0xff;
 467              		.loc 2 281 7
 468 0184 23000400 		sb	zero,0(s0)
 282:..\..\..\..\wpa_supplicant\src/utils/common.h **** 	a[2] = (val >> 8) & 0xff;
 469              		.loc 2 282 2 is_stmt 1
 283:..\..\..\..\wpa_supplicant\src/utils/common.h **** 	a[3] = val & 0xff;
 470              		.loc 2 283 2
 471              		.loc 2 284 2
 472              		.loc 2 284 7 is_stmt 0
 473 0188 A301D400 		sb	a3,3(s0)
 474              	.LVL49:
 475              	.LBE151:
 476              	.LBE150:
 240:C:/Users/stapi/OneDrive/Desktop/GD32VW553/V1_MQTT_OK/GD32VW55X_Wifi_BLE_SDK/GD32VW55x_RELEASE_V1.0.2/MSDK/wpa_supplicant/src/ap\wpa_auth_ie.c **** 		num_suites++;
 477              		.loc 1 240 3 is_stmt 1
 241:C:/Users/stapi/OneDrive/Desktop/GD32VW553/V1_MQTT_OK/GD32VW55X_Wifi_BLE_SDK/GD32VW55x_RELEASE_V1.0.2/MSDK/wpa_supplicant/src/ap\wpa_auth_ie.c **** 	}
 478              		.loc 1 241 13 is_stmt 0
 479 018c 8507     		addi	a5,a5,1
 480              	.LVL50:
 240:C:/Users/stapi/OneDrive/Desktop/GD32VW553/V1_MQTT_OK/GD32VW55X_Wifi_BLE_SDK/GD32VW55x_RELEASE_V1.0.2/MSDK/wpa_supplicant/src/ap\wpa_auth_ie.c **** 		num_suites++;
 481              		.loc 1 240 7
 482 018e 1104     		addi	s0,s0,4
 483              	.LVL51:
 241:C:/Users/stapi/OneDrive/Desktop/GD32VW553/V1_MQTT_OK/GD32VW55X_Wifi_BLE_SDK/GD32VW55x_RELEASE_V1.0.2/MSDK/wpa_supplicant/src/ap\wpa_auth_ie.c **** 	}
 484              		.loc 1 241 3 is_stmt 1
 485              	.L14:
 243:C:/Users/stapi/OneDrive/Desktop/GD32VW553/V1_MQTT_OK/GD32VW55X_Wifi_BLE_SDK/GD32VW55x_RELEASE_V1.0.2/MSDK/wpa_supplicant/src/ap\wpa_auth_ie.c **** 		RSN_SELECTOR_PUT(pos, RSN_AUTH_KEY_MGMT_802_1X_SUITE_B_192);
 486              		.loc 1 243 2
 243:C:/Users/stapi/OneDrive/Desktop/GD32VW553/V1_MQTT_OK/GD32VW55X_Wifi_BLE_SDK/GD32VW55x_RELEASE_V1.0.2/MSDK/wpa_supplicant/src/ap\wpa_auth_ie.c **** 		RSN_SELECTOR_PUT(pos, RSN_AUTH_KEY_MGMT_802_1X_SUITE_B_192);
 487              		.loc 1 243 10 is_stmt 0
 488 0190 D044     		lw	a2,12(s1)
 243:C:/Users/stapi/OneDrive/Desktop/GD32VW553/V1_MQTT_OK/GD32VW55X_Wifi_BLE_SDK/GD32VW55x_RELEASE_V1.0.2/MSDK/wpa_supplicant/src/ap\wpa_auth_ie.c **** 		RSN_SELECTOR_PUT(pos, RSN_AUTH_KEY_MGMT_802_1X_SUITE_B_192);
 489              		.loc 1 243 25
 490 0192 B7060200 		li	a3,131072
 491 0196 F18E     		and	a3,a2,a3
 243:C:/Users/stapi/OneDrive/Desktop/GD32VW553/V1_MQTT_OK/GD32VW55X_Wifi_BLE_SDK/GD32VW55x_RELEASE_V1.0.2/MSDK/wpa_supplicant/src/ap\wpa_auth_ie.c **** 		RSN_SELECTOR_PUT(pos, RSN_AUTH_KEY_MGMT_802_1X_SUITE_B_192);
 492              		.loc 1 243 5
 493 0198 BDCA     		beq	a3,zero,.L15
 244:C:/Users/stapi/OneDrive/Desktop/GD32VW553/V1_MQTT_OK/GD32VW55X_Wifi_BLE_SDK/GD32VW55x_RELEASE_V1.0.2/MSDK/wpa_supplicant/src/ap\wpa_auth_ie.c **** 		pos += RSN_SELECTOR_LEN;
 494              		.loc 1 244 3 is_stmt 1
 495              	.LVL52:
 496              	.LBB152:
 497              	.LBB153:
 281:..\..\..\..\wpa_supplicant\src/utils/common.h **** 	a[1] = (val >> 16) & 0xff;
 498              		.loc 2 281 2
 282:..\..\..\..\wpa_supplicant\src/utils/common.h **** 	a[2] = (val >> 8) & 0xff;
 499              		.loc 2 282 7 is_stmt 0
 500 019a BD46     		li	a3,15
 501 019c A300D400 		sb	a3,1(s0)
 283:..\..\..\..\wpa_supplicant\src/utils/common.h **** 	a[3] = val & 0xff;
 502              		.loc 2 283 7
 503 01a0 9306C0FA 		li	a3,-84
 504 01a4 2301D400 		sb	a3,2(s0)
 505              		.loc 2 284 7
 506 01a8 B146     		li	a3,12
 281:..\..\..\..\wpa_supplicant\src/utils/common.h **** 	a[1] = (val >> 16) & 0xff;
 507              		.loc 2 281 7
 508 01aa 23000400 		sb	zero,0(s0)
 282:..\..\..\..\wpa_supplicant\src/utils/common.h **** 	a[2] = (val >> 8) & 0xff;
 509              		.loc 2 282 2 is_stmt 1
 283:..\..\..\..\wpa_supplicant\src/utils/common.h **** 	a[3] = val & 0xff;
 510              		.loc 2 283 2
 511              		.loc 2 284 2
 512              		.loc 2 284 7 is_stmt 0
 513 01ae A301D400 		sb	a3,3(s0)
 514              	.LVL53:
 515              	.LBE153:
 516              	.LBE152:
 245:C:/Users/stapi/OneDrive/Desktop/GD32VW553/V1_MQTT_OK/GD32VW55X_Wifi_BLE_SDK/GD32VW55x_RELEASE_V1.0.2/MSDK/wpa_supplicant/src/ap\wpa_auth_ie.c **** 		num_suites++;
 517              		.loc 1 245 3 is_stmt 1
 246:C:/Users/stapi/OneDrive/Desktop/GD32VW553/V1_MQTT_OK/GD32VW55X_Wifi_BLE_SDK/GD32VW55x_RELEASE_V1.0.2/MSDK/wpa_supplicant/src/ap\wpa_auth_ie.c **** 	}
 518              		.loc 1 246 13 is_stmt 0
 519 01b2 8507     		addi	a5,a5,1
 520              	.LVL54:
 245:C:/Users/stapi/OneDrive/Desktop/GD32VW553/V1_MQTT_OK/GD32VW55X_Wifi_BLE_SDK/GD32VW55x_RELEASE_V1.0.2/MSDK/wpa_supplicant/src/ap\wpa_auth_ie.c **** 		num_suites++;
 521              		.loc 1 245 7
 522 01b4 1104     		addi	s0,s0,4
 523              	.LVL55:
 246:C:/Users/stapi/OneDrive/Desktop/GD32VW553/V1_MQTT_OK/GD32VW55X_Wifi_BLE_SDK/GD32VW55x_RELEASE_V1.0.2/MSDK/wpa_supplicant/src/ap\wpa_auth_ie.c **** 	}
 524              		.loc 1 246 3 is_stmt 1
 309:C:/Users/stapi/OneDrive/Desktop/GD32VW553/V1_MQTT_OK/GD32VW55X_Wifi_BLE_SDK/GD32VW55x_RELEASE_V1.0.2/MSDK/wpa_supplicant/src/ap\wpa_auth_ie.c **** 		wpa_printf(MSG_DEBUG, "Invalid key management type (%d).",
 525              		.loc 1 309 2
 526              	.L16:
 314:C:/Users/stapi/OneDrive/Desktop/GD32VW553/V1_MQTT_OK/GD32VW55X_Wifi_BLE_SDK/GD32VW55x_RELEASE_V1.0.2/MSDK/wpa_supplicant/src/ap\wpa_auth_ie.c **** 
 527              		.loc 1 314 2
 528              	.LBB154:
 529              	.LBB155:
 258:..\..\..\..\wpa_supplicant\src/utils/common.h **** 	a[0] = val & 0xff;
 530              		.loc 2 258 2
 258:..\..\..\..\wpa_supplicant\src/utils/common.h **** 	a[0] = val & 0xff;
 531              		.loc 2 258 7 is_stmt 0
 532 01b6 A3000700 		sb	zero,1(a4)
 259:..\..\..\..\wpa_supplicant\src/utils/common.h **** }
 533              		.loc 2 259 2 is_stmt 1
 259:..\..\..\..\wpa_supplicant\src/utils/common.h **** }
 534              		.loc 2 259 7 is_stmt 0
 535 01ba 2300F700 		sb	a5,0(a4)
 536              	.LVL56:
 537              	.LBE155:
 538              	.LBE154:
 317:C:/Users/stapi/OneDrive/Desktop/GD32VW553/V1_MQTT_OK/GD32VW55X_Wifi_BLE_SDK/GD32VW55x_RELEASE_V1.0.2/MSDK/wpa_supplicant/src/ap\wpa_auth_ie.c **** 	pos += 2;
 539              		.loc 1 317 2 is_stmt 1
 540              	.LBB156:
 541              	.LBB157:
  94:C:/Users/stapi/OneDrive/Desktop/GD32VW553/V1_MQTT_OK/GD32VW55X_Wifi_BLE_SDK/GD32VW55x_RELEASE_V1.0.2/MSDK/wpa_supplicant/src/ap\wpa_auth_ie.c **** 
 542              		.loc 1 94 2
  96:C:/Users/stapi/OneDrive/Desktop/GD32VW553/V1_MQTT_OK/GD32VW55X_Wifi_BLE_SDK/GD32VW55x_RELEASE_V1.0.2/MSDK/wpa_supplicant/src/ap\wpa_auth_ie.c **** 		capab |= WPA_CAPABILITY_PREAUTH;
 543              		.loc 1 96 2
  96:C:/Users/stapi/OneDrive/Desktop/GD32VW553/V1_MQTT_OK/GD32VW55X_Wifi_BLE_SDK/GD32VW55x_RELEASE_V1.0.2/MSDK/wpa_supplicant/src/ap\wpa_auth_ie.c **** 		capab |= WPA_CAPABILITY_PREAUTH;
 544              		.loc 1 96 5 is_stmt 0
 545 01be DC5C     		lw	a5,60(s1)
 546              	.LVL57:
  98:C:/Users/stapi/OneDrive/Desktop/GD32VW553/V1_MQTT_OK/GD32VW55X_Wifi_BLE_SDK/GD32VW55x_RELEASE_V1.0.2/MSDK/wpa_supplicant/src/ap\wpa_auth_ie.c **** 		/* 4 PTKSA replay counters when using WMM */
 547              		.loc 1 98 5
 548 01c0 F840     		lw	a4,68(s1)
 549              	.LVL58:
  94:C:/Users/stapi/OneDrive/Desktop/GD32VW553/V1_MQTT_OK/GD32VW55X_Wifi_BLE_SDK/GD32VW55x_RELEASE_V1.0.2/MSDK/wpa_supplicant/src/ap\wpa_auth_ie.c **** 
 550              		.loc 1 94 6
 551 01c2 B337F000 		snez	a5,a5
 552              	.LVL59:
  98:C:/Users/stapi/OneDrive/Desktop/GD32VW553/V1_MQTT_OK/GD32VW55X_Wifi_BLE_SDK/GD32VW55x_RELEASE_V1.0.2/MSDK/wpa_supplicant/src/ap\wpa_auth_ie.c **** 		/* 4 PTKSA replay counters when using WMM */
 553              		.loc 1 98 2 is_stmt 1
  98:C:/Users/stapi/OneDrive/Desktop/GD32VW553/V1_MQTT_OK/GD32VW55X_Wifi_BLE_SDK/GD32VW55x_RELEASE_V1.0.2/MSDK/wpa_supplicant/src/ap\wpa_auth_ie.c **** 		/* 4 PTKSA replay counters when using WMM */
 554              		.loc 1 98 5 is_stmt 0
 555 01c6 19C3     		beq	a4,zero,.L17
 100:C:/Users/stapi/OneDrive/Desktop/GD32VW553/V1_MQTT_OK/GD32VW55X_Wifi_BLE_SDK/GD32VW55x_RELEASE_V1.0.2/MSDK/wpa_supplicant/src/ap\wpa_auth_ie.c **** 	}
 556              		.loc 1 100 3 is_stmt 1
 100:C:/Users/stapi/OneDrive/Desktop/GD32VW553/V1_MQTT_OK/GD32VW55X_Wifi_BLE_SDK/GD32VW55x_RELEASE_V1.0.2/MSDK/wpa_supplicant/src/ap\wpa_auth_ie.c **** 	}
 557              		.loc 1 100 9 is_stmt 0
 558 01c8 93E7C700 		ori	a5,a5,12
 559              	.LVL60:
 560              	.L17:
 102:C:/Users/stapi/OneDrive/Desktop/GD32VW553/V1_MQTT_OK/GD32VW55X_Wifi_BLE_SDK/GD32VW55x_RELEASE_V1.0.2/MSDK/wpa_supplicant/src/ap\wpa_auth_ie.c **** 		capab |= WPA_CAPABILITY_MFPC;
 561              		.loc 1 102 2 is_stmt 1
 102:C:/Users/stapi/OneDrive/Desktop/GD32VW553/V1_MQTT_OK/GD32VW55X_Wifi_BLE_SDK/GD32VW55x_RELEASE_V1.0.2/MSDK/wpa_supplicant/src/ap\wpa_auth_ie.c **** 		capab |= WPA_CAPABILITY_MFPC;
 562              		.loc 1 102 10 is_stmt 0
 563 01cc B84C     		lw	a4,88(s1)
 102:C:/Users/stapi/OneDrive/Desktop/GD32VW553/V1_MQTT_OK/GD32VW55X_Wifi_BLE_SDK/GD32VW55x_RELEASE_V1.0.2/MSDK/wpa_supplicant/src/ap\wpa_auth_ie.c **** 		capab |= WPA_CAPABILITY_MFPC;
 564              		.loc 1 102 5
 565 01ce 11C7     		beq	a4,zero,.L18
 103:C:/Users/stapi/OneDrive/Desktop/GD32VW553/V1_MQTT_OK/GD32VW55X_Wifi_BLE_SDK/GD32VW55x_RELEASE_V1.0.2/MSDK/wpa_supplicant/src/ap\wpa_auth_ie.c **** 		if (conf->ieee80211w == MGMT_FRAME_PROTECTION_REQUIRED)
 566              		.loc 1 103 3 is_stmt 1
 567              	.LVL61:
 104:C:/Users/stapi/OneDrive/Desktop/GD32VW553/V1_MQTT_OK/GD32VW55X_Wifi_BLE_SDK/GD32VW55x_RELEASE_V1.0.2/MSDK/wpa_supplicant/src/ap\wpa_auth_ie.c **** 			capab |= WPA_CAPABILITY_MFPR;
 568              		.loc 1 104 3
 104:C:/Users/stapi/OneDrive/Desktop/GD32VW553/V1_MQTT_OK/GD32VW55X_Wifi_BLE_SDK/GD32VW55x_RELEASE_V1.0.2/MSDK/wpa_supplicant/src/ap\wpa_auth_ie.c **** 			capab |= WPA_CAPABILITY_MFPR;
 569              		.loc 1 104 6 is_stmt 0
 570 01d0 8946     		li	a3,2
 571 01d2 6304D704 		beq	a4,a3,.L19
 103:C:/Users/stapi/OneDrive/Desktop/GD32VW553/V1_MQTT_OK/GD32VW55X_Wifi_BLE_SDK/GD32VW55x_RELEASE_V1.0.2/MSDK/wpa_supplicant/src/ap\wpa_auth_ie.c **** 		if (conf->ieee80211w == MGMT_FRAME_PROTECTION_REQUIRED)
 572              		.loc 1 103 9
 573 01d6 93E70708 		ori	a5,a5,128
 574              	.LVL62:
 575              	.L18:
 115:C:/Users/stapi/OneDrive/Desktop/GD32VW553/V1_MQTT_OK/GD32VW55X_Wifi_BLE_SDK/GD32VW55x_RELEASE_V1.0.2/MSDK/wpa_supplicant/src/ap\wpa_auth_ie.c **** 		capab |= WPA_CAPABILITY_EXT_KEY_ID_FOR_UNICAST;
 576              		.loc 1 115 2 is_stmt 1
 115:C:/Users/stapi/OneDrive/Desktop/GD32VW553/V1_MQTT_OK/GD32VW55X_Wifi_BLE_SDK/GD32VW55x_RELEASE_V1.0.2/MSDK/wpa_supplicant/src/ap\wpa_auth_ie.c **** 		capab |= WPA_CAPABILITY_EXT_KEY_ID_FOR_UNICAST;
 577              		.loc 1 115 5 is_stmt 0
 578 01da 9844     		lw	a4,8(s1)
 579 01dc 19C3     		beq	a4,zero,.L20
 116:C:/Users/stapi/OneDrive/Desktop/GD32VW553/V1_MQTT_OK/GD32VW55X_Wifi_BLE_SDK/GD32VW55x_RELEASE_V1.0.2/MSDK/wpa_supplicant/src/ap\wpa_auth_ie.c **** 
 580              		.loc 1 116 3 is_stmt 1
 116:C:/Users/stapi/OneDrive/Desktop/GD32VW553/V1_MQTT_OK/GD32VW55X_Wifi_BLE_SDK/GD32VW55x_RELEASE_V1.0.2/MSDK/wpa_supplicant/src/ap\wpa_auth_ie.c **** 
 581              		.loc 1 116 9 is_stmt 0
 582 01de 9397D728 		bseti	a5,a5,13
 583              	.LVL63:
 584              	.L20:
 118:C:/Users/stapi/OneDrive/Desktop/GD32VW553/V1_MQTT_OK/GD32VW55X_Wifi_BLE_SDK/GD32VW55x_RELEASE_V1.0.2/MSDK/wpa_supplicant/src/ap\wpa_auth_ie.c **** }
 585              		.loc 1 118 2 is_stmt 1
 586              	.LBE157:
 587              	.LBE156:
 588              	.LBB159:
 589              	.LBB160:
 258:..\..\..\..\wpa_supplicant\src/utils/common.h **** 	a[0] = val & 0xff;
 590              		.loc 2 258 2
 258:..\..\..\..\wpa_supplicant\src/utils/common.h **** 	a[0] = val & 0xff;
 591              		.loc 2 258 7 is_stmt 0
 592 01e2 13D78700 		srli	a4,a5,8
 259:..\..\..\..\wpa_supplicant\src/utils/common.h **** }
 593              		.loc 2 259 7
 594 01e6 2300F400 		sb	a5,0(s0)
 258:..\..\..\..\wpa_supplicant\src/utils/common.h **** 	a[0] = val & 0xff;
 595              		.loc 2 258 7
 596 01ea A300E400 		sb	a4,1(s0)
 259:..\..\..\..\wpa_supplicant\src/utils/common.h **** }
 597              		.loc 2 259 2 is_stmt 1
 598              	.LVL64:
 599              	.LBE160:
 600              	.LBE159:
 318:C:/Users/stapi/OneDrive/Desktop/GD32VW553/V1_MQTT_OK/GD32VW55X_Wifi_BLE_SDK/GD32VW55x_RELEASE_V1.0.2/MSDK/wpa_supplicant/src/ap\wpa_auth_ie.c **** 
 601              		.loc 1 318 2
 318:C:/Users/stapi/OneDrive/Desktop/GD32VW553/V1_MQTT_OK/GD32VW55X_Wifi_BLE_SDK/GD32VW55x_RELEASE_V1.0.2/MSDK/wpa_supplicant/src/ap\wpa_auth_ie.c **** 
 602              		.loc 1 318 6 is_stmt 0
 603 01ee 93072400 		addi	a5,s0,2
 604              	.LVL65:
 320:C:/Users/stapi/OneDrive/Desktop/GD32VW553/V1_MQTT_OK/GD32VW55X_Wifi_BLE_SDK/GD32VW55x_RELEASE_V1.0.2/MSDK/wpa_supplicant/src/ap\wpa_auth_ie.c **** 		if (2 + PMKID_LEN > buf + len - pos)
 605              		.loc 1 320 2 is_stmt 1
 320:C:/Users/stapi/OneDrive/Desktop/GD32VW553/V1_MQTT_OK/GD32VW55X_Wifi_BLE_SDK/GD32VW55x_RELEASE_V1.0.2/MSDK/wpa_supplicant/src/ap\wpa_auth_ie.c **** 		if (2 + PMKID_LEN > buf + len - pos)
 606              		.loc 1 320 5 is_stmt 0
 607 01f2 63060A04 		beq	s4,zero,.L21
 321:C:/Users/stapi/OneDrive/Desktop/GD32VW553/V1_MQTT_OK/GD32VW55X_Wifi_BLE_SDK/GD32VW55x_RELEASE_V1.0.2/MSDK/wpa_supplicant/src/ap\wpa_auth_ie.c **** 			return -1;
 608              		.loc 1 321 3 is_stmt 1
 321:C:/Users/stapi/OneDrive/Desktop/GD32VW553/V1_MQTT_OK/GD32VW55X_Wifi_BLE_SDK/GD32VW55x_RELEASE_V1.0.2/MSDK/wpa_supplicant/src/ap\wpa_auth_ie.c **** 			return -1;
 609              		.loc 1 321 27 is_stmt 0
 610 01f6 33053901 		add	a0,s2,s3
 611              	.LVL66:
 321:C:/Users/stapi/OneDrive/Desktop/GD32VW553/V1_MQTT_OK/GD32VW55X_Wifi_BLE_SDK/GD32VW55x_RELEASE_V1.0.2/MSDK/wpa_supplicant/src/ap\wpa_auth_ie.c **** 			return -1;
 612              		.loc 1 321 33
 613 01fa B307F540 		sub	a5,a0,a5
 614              	.LVL67:
 321:C:/Users/stapi/OneDrive/Desktop/GD32VW553/V1_MQTT_OK/GD32VW55X_Wifi_BLE_SDK/GD32VW55x_RELEASE_V1.0.2/MSDK/wpa_supplicant/src/ap\wpa_auth_ie.c **** 			return -1;
 615              		.loc 1 321 6
 616 01fe 4547     		li	a4,17
 617 0200 6340F702 		bgt	a5,a4,.L22
 618              	.LVL68:
 619              	.L68:
 358:C:/Users/stapi/OneDrive/Desktop/GD32VW553/V1_MQTT_OK/GD32VW55X_Wifi_BLE_SDK/GD32VW55x_RELEASE_V1.0.2/MSDK/wpa_supplicant/src/ap\wpa_auth_ie.c **** 		}
 620              		.loc 1 358 4 is_stmt 1
 358:C:/Users/stapi/OneDrive/Desktop/GD32VW553/V1_MQTT_OK/GD32VW55X_Wifi_BLE_SDK/GD32VW55x_RELEASE_V1.0.2/MSDK/wpa_supplicant/src/ap\wpa_auth_ie.c **** 		}
 621              		.loc 1 358 11 is_stmt 0
 622 0204 7D55     		li	a0,-1
 623              	.L3:
 389:C:/Users/stapi/OneDrive/Desktop/GD32VW553/V1_MQTT_OK/GD32VW55X_Wifi_BLE_SDK/GD32VW55x_RELEASE_V1.0.2/MSDK/wpa_supplicant/src/ap\wpa_auth_ie.c **** 
 624              		.loc 1 389 1
 625 0206 17030000 		tail	__riscv_restore_6
 625      67000300 
 626              		.cfi_remember_state
 627              		.cfi_restore 21
 628              		.cfi_restore 20
 629              		.cfi_restore 19
 630              		.cfi_restore 18
 631              		.cfi_restore 9
 632              		.cfi_restore 8
 633              		.cfi_restore 1
 634              		.cfi_def_cfa_offset 0
 635              	.LVL69:
 636              	.L15:
 637              		.cfi_restore_state
 309:C:/Users/stapi/OneDrive/Desktop/GD32VW553/V1_MQTT_OK/GD32VW55X_Wifi_BLE_SDK/GD32VW55x_RELEASE_V1.0.2/MSDK/wpa_supplicant/src/ap\wpa_auth_ie.c **** 		wpa_printf(MSG_DEBUG, "Invalid key management type (%d).",
 638              		.loc 1 309 2 is_stmt 1
 309:C:/Users/stapi/OneDrive/Desktop/GD32VW553/V1_MQTT_OK/GD32VW55X_Wifi_BLE_SDK/GD32VW55x_RELEASE_V1.0.2/MSDK/wpa_supplicant/src/ap\wpa_auth_ie.c **** 		wpa_printf(MSG_DEBUG, "Invalid key management type (%d).",
 639              		.loc 1 309 5 is_stmt 0
 640 020e C5F7     		bne	a5,zero,.L16
 310:C:/Users/stapi/OneDrive/Desktop/GD32VW553/V1_MQTT_OK/GD32VW55X_Wifi_BLE_SDK/GD32VW55x_RELEASE_V1.0.2/MSDK/wpa_supplicant/src/ap\wpa_auth_ie.c **** 			   conf->wpa_key_mgmt);
 641              		.loc 1 310 3 is_stmt 1
 642 0210 B7050000 		lui	a1,%hi(.LC2)
 643 0214 93850500 		addi	a1,a1,%lo(.LC2)
 644 0218 0DB5     		j	.L69
 645              	.LVL70:
 646              	.L19:
 647              	.LBB161:
 648              	.LBB158:
 105:C:/Users/stapi/OneDrive/Desktop/GD32VW553/V1_MQTT_OK/GD32VW55X_Wifi_BLE_SDK/GD32VW55x_RELEASE_V1.0.2/MSDK/wpa_supplicant/src/ap\wpa_auth_ie.c **** 	}
 649              		.loc 1 105 4
 105:C:/Users/stapi/OneDrive/Desktop/GD32VW553/V1_MQTT_OK/GD32VW55X_Wifi_BLE_SDK/GD32VW55x_RELEASE_V1.0.2/MSDK/wpa_supplicant/src/ap\wpa_auth_ie.c **** 	}
 650              		.loc 1 105 10 is_stmt 0
 651 021a 93E7070C 		ori	a5,a5,192
 652              	.LVL71:
 653 021e 75BF     		j	.L18
 654              	.LVL72:
 655              	.L22:
 656              	.LBE158:
 657              	.LBE161:
 324:C:/Users/stapi/OneDrive/Desktop/GD32VW553/V1_MQTT_OK/GD32VW55X_Wifi_BLE_SDK/GD32VW55x_RELEASE_V1.0.2/MSDK/wpa_supplicant/src/ap\wpa_auth_ie.c **** 		pos += 2;
 658              		.loc 1 324 3 is_stmt 1
 659              	.LBB162:
 660              	.LBB163:
 258:..\..\..\..\wpa_supplicant\src/utils/common.h **** 	a[0] = val & 0xff;
 661              		.loc 2 258 2
 259:..\..\..\..\wpa_supplicant\src/utils/common.h **** }
 662              		.loc 2 259 7 is_stmt 0
 663 0220 8547     		li	a5,1
 664 0222 2301F400 		sb	a5,2(s0)
 258:..\..\..\..\wpa_supplicant\src/utils/common.h **** 	a[0] = val & 0xff;
 665              		.loc 2 258 7
 666 0226 A3010400 		sb	zero,3(s0)
 259:..\..\..\..\wpa_supplicant\src/utils/common.h **** }
 667              		.loc 2 259 2 is_stmt 1
 668              	.LVL73:
 669              	.LBE163:
 670              	.LBE162:
 325:C:/Users/stapi/OneDrive/Desktop/GD32VW553/V1_MQTT_OK/GD32VW55X_Wifi_BLE_SDK/GD32VW55x_RELEASE_V1.0.2/MSDK/wpa_supplicant/src/ap\wpa_auth_ie.c **** 		os_memcpy(pos, pmkid, PMKID_LEN);
 671              		.loc 1 325 3
 326:C:/Users/stapi/OneDrive/Desktop/GD32VW553/V1_MQTT_OK/GD32VW55X_Wifi_BLE_SDK/GD32VW55x_RELEASE_V1.0.2/MSDK/wpa_supplicant/src/ap\wpa_auth_ie.c **** 		pos += PMKID_LEN;
 672              		.loc 1 326 3
 673 022a 4146     		li	a2,16
 674 022c D285     		mv	a1,s4
 675 022e 13054400 		addi	a0,s0,4
 676              	.LVL74:
 677 0232 97000000 		call	os_memcpy
 677      E7800000 
 678              	.LVL75:
 327:C:/Users/stapi/OneDrive/Desktop/GD32VW553/V1_MQTT_OK/GD32VW55X_Wifi_BLE_SDK/GD32VW55x_RELEASE_V1.0.2/MSDK/wpa_supplicant/src/ap\wpa_auth_ie.c **** 	}
 679              		.loc 1 327 3
 327:C:/Users/stapi/OneDrive/Desktop/GD32VW553/V1_MQTT_OK/GD32VW55X_Wifi_BLE_SDK/GD32VW55x_RELEASE_V1.0.2/MSDK/wpa_supplicant/src/ap\wpa_auth_ie.c **** 	}
 680              		.loc 1 327 7 is_stmt 0
 681 023a 93074401 		addi	a5,s0,20
 682              	.LVL76:
 683              	.L21:
 330:C:/Users/stapi/OneDrive/Desktop/GD32VW553/V1_MQTT_OK/GD32VW55X_Wifi_BLE_SDK/GD32VW55x_RELEASE_V1.0.2/MSDK/wpa_supplicant/src/ap\wpa_auth_ie.c **** 	    conf->group_mgmt_cipher != WPA_CIPHER_AES_128_CMAC) {
 684              		.loc 1 330 2 is_stmt 1
 330:C:/Users/stapi/OneDrive/Desktop/GD32VW553/V1_MQTT_OK/GD32VW55X_Wifi_BLE_SDK/GD32VW55x_RELEASE_V1.0.2/MSDK/wpa_supplicant/src/ap\wpa_auth_ie.c **** 	    conf->group_mgmt_cipher != WPA_CIPHER_AES_128_CMAC) {
 685              		.loc 1 330 5 is_stmt 0
 686 023e B84C     		lw	a4,88(s1)
 687 0240 41C3     		beq	a4,zero,.L23
 330:C:/Users/stapi/OneDrive/Desktop/GD32VW553/V1_MQTT_OK/GD32VW55X_Wifi_BLE_SDK/GD32VW55x_RELEASE_V1.0.2/MSDK/wpa_supplicant/src/ap\wpa_auth_ie.c **** 	    conf->group_mgmt_cipher != WPA_CIPHER_AES_128_CMAC) {
 688              		.loc 1 330 51 discriminator 1
 689 0242 B450     		lw	a3,96(s1)
 690 0244 13070002 		li	a4,32
 691 0248 638CE606 		beq	a3,a4,.L23
 332:C:/Users/stapi/OneDrive/Desktop/GD32VW553/V1_MQTT_OK/GD32VW55X_Wifi_BLE_SDK/GD32VW55x_RELEASE_V1.0.2/MSDK/wpa_supplicant/src/ap\wpa_auth_ie.c **** 			return -1;
 692              		.loc 1 332 3 is_stmt 1
 332:C:/Users/stapi/OneDrive/Desktop/GD32VW553/V1_MQTT_OK/GD32VW55X_Wifi_BLE_SDK/GD32VW55x_RELEASE_V1.0.2/MSDK/wpa_supplicant/src/ap\wpa_auth_ie.c **** 			return -1;
 693              		.loc 1 332 19 is_stmt 0
 694 024c CA99     		add	s3,s2,s3
 695              	.LVL77:
 332:C:/Users/stapi/OneDrive/Desktop/GD32VW553/V1_MQTT_OK/GD32VW55X_Wifi_BLE_SDK/GD32VW55x_RELEASE_V1.0.2/MSDK/wpa_supplicant/src/ap\wpa_auth_ie.c **** 			return -1;
 696              		.loc 1 332 25
 697 024e B389F940 		sub	s3,s3,a5
 332:C:/Users/stapi/OneDrive/Desktop/GD32VW553/V1_MQTT_OK/GD32VW55X_Wifi_BLE_SDK/GD32VW55x_RELEASE_V1.0.2/MSDK/wpa_supplicant/src/ap\wpa_auth_ie.c **** 			return -1;
 698              		.loc 1 332 6
 699 0252 1547     		li	a4,5
 700 0254 E35837FB 		ble	s3,a4,.L68
 334:C:/Users/stapi/OneDrive/Desktop/GD32VW553/V1_MQTT_OK/GD32VW55X_Wifi_BLE_SDK/GD32VW55x_RELEASE_V1.0.2/MSDK/wpa_supplicant/src/ap\wpa_auth_ie.c **** 			/* PMKID Count */
 701              		.loc 1 334 3 is_stmt 1
 334:C:/Users/stapi/OneDrive/Desktop/GD32VW553/V1_MQTT_OK/GD32VW55X_Wifi_BLE_SDK/GD32VW55x_RELEASE_V1.0.2/MSDK/wpa_supplicant/src/ap\wpa_auth_ie.c **** 			/* PMKID Count */
 702              		.loc 1 334 6 is_stmt 0
 703 0258 63170A00 		bne	s4,zero,.L25
 336:C:/Users/stapi/OneDrive/Desktop/GD32VW553/V1_MQTT_OK/GD32VW55X_Wifi_BLE_SDK/GD32VW55x_RELEASE_V1.0.2/MSDK/wpa_supplicant/src/ap\wpa_auth_ie.c **** 			pos += 2;
 704              		.loc 1 336 4 is_stmt 1
 705              	.LVL78:
 706              	.LBB164:
 707              	.LBB165:
 258:..\..\..\..\wpa_supplicant\src/utils/common.h **** 	a[0] = val & 0xff;
 708              		.loc 2 258 2
 258:..\..\..\..\wpa_supplicant\src/utils/common.h **** 	a[0] = val & 0xff;
 709              		.loc 2 258 7 is_stmt 0
 710 025c A3800700 		sb	zero,1(a5)
 259:..\..\..\..\wpa_supplicant\src/utils/common.h **** }
 711              		.loc 2 259 2 is_stmt 1
 259:..\..\..\..\wpa_supplicant\src/utils/common.h **** }
 712              		.loc 2 259 7 is_stmt 0
 713 0260 23800700 		sb	zero,0(a5)
 714              	.LVL79:
 715              	.LBE165:
 716              	.LBE164:
 337:C:/Users/stapi/OneDrive/Desktop/GD32VW553/V1_MQTT_OK/GD32VW55X_Wifi_BLE_SDK/GD32VW55x_RELEASE_V1.0.2/MSDK/wpa_supplicant/src/ap\wpa_auth_ie.c **** 		}
 717              		.loc 1 337 4 is_stmt 1
 337:C:/Users/stapi/OneDrive/Desktop/GD32VW553/V1_MQTT_OK/GD32VW55X_Wifi_BLE_SDK/GD32VW55x_RELEASE_V1.0.2/MSDK/wpa_supplicant/src/ap\wpa_auth_ie.c **** 		}
 718              		.loc 1 337 8 is_stmt 0
 719 0264 8907     		addi	a5,a5,2
 720              	.LVL80:
 721              	.L25:
 341:C:/Users/stapi/OneDrive/Desktop/GD32VW553/V1_MQTT_OK/GD32VW55X_Wifi_BLE_SDK/GD32VW55x_RELEASE_V1.0.2/MSDK/wpa_supplicant/src/ap\wpa_auth_ie.c **** 		case WPA_CIPHER_AES_128_CMAC:
 722              		.loc 1 341 3 is_stmt 1
 341:C:/Users/stapi/OneDrive/Desktop/GD32VW553/V1_MQTT_OK/GD32VW55X_Wifi_BLE_SDK/GD32VW55x_RELEASE_V1.0.2/MSDK/wpa_supplicant/src/ap\wpa_auth_ie.c **** 		case WPA_CIPHER_AES_128_CMAC:
 723              		.loc 1 341 15 is_stmt 0
 724 0266 B050     		lw	a2,96(s1)
 341:C:/Users/stapi/OneDrive/Desktop/GD32VW553/V1_MQTT_OK/GD32VW55X_Wifi_BLE_SDK/GD32VW55x_RELEASE_V1.0.2/MSDK/wpa_supplicant/src/ap\wpa_auth_ie.c **** 		case WPA_CIPHER_AES_128_CMAC:
 725              		.loc 1 341 3
 726 0268 0567     		li	a4,4096
 727 026a 630DE606 		beq	a2,a4,.L26
 728 026e 634EC700 		bgt	a2,a4,.L27
 729 0272 13070002 		li	a4,32
 730 0276 6308E602 		beq	a2,a4,.L28
 731 027a 13070680 		addi	a4,a2,-2048
 732 027e 21CB     		beq	a4,zero,.L29
 733              	.L30:
 355:C:/Users/stapi/OneDrive/Desktop/GD32VW553/V1_MQTT_OK/GD32VW55X_Wifi_BLE_SDK/GD32VW55x_RELEASE_V1.0.2/MSDK/wpa_supplicant/src/ap\wpa_auth_ie.c **** 				   "Invalid group management cipher (0x%x)",
 734              		.loc 1 355 4 is_stmt 1
 735 0280 B7050000 		lui	a1,%hi(.LC3)
 736 0284 93850500 		addi	a1,a1,%lo(.LC3)
 737 0288 4DBB     		j	.L69
 738              	.L27:
 341:C:/Users/stapi/OneDrive/Desktop/GD32VW553/V1_MQTT_OK/GD32VW55X_Wifi_BLE_SDK/GD32VW55x_RELEASE_V1.0.2/MSDK/wpa_supplicant/src/ap\wpa_auth_ie.c **** 		case WPA_CIPHER_AES_128_CMAC:
 739              		.loc 1 341 3 is_stmt 0
 740 028a 0967     		li	a4,8192
 741 028c E31AE6FE 		bne	a2,a4,.L30
 352:C:/Users/stapi/OneDrive/Desktop/GD32VW553/V1_MQTT_OK/GD32VW55X_Wifi_BLE_SDK/GD32VW55x_RELEASE_V1.0.2/MSDK/wpa_supplicant/src/ap\wpa_auth_ie.c **** 			break;
 742              		.loc 1 352 4 is_stmt 1
 743              	.LVL81:
 744              	.LBB166:
 745              	.LBB167:
 281:..\..\..\..\wpa_supplicant\src/utils/common.h **** 	a[1] = (val >> 16) & 0xff;
 746              		.loc 2 281 2
 282:..\..\..\..\wpa_supplicant\src/utils/common.h **** 	a[2] = (val >> 8) & 0xff;
 747              		.loc 2 282 7 is_stmt 0
 748 0290 3D47     		li	a4,15
 749 0292 A380E700 		sb	a4,1(a5)
 283:..\..\..\..\wpa_supplicant\src/utils/common.h **** 	a[3] = val & 0xff;
 750              		.loc 2 283 7
 751 0296 1307C0FA 		li	a4,-84
 752 029a 2381E700 		sb	a4,2(a5)
 281:..\..\..\..\wpa_supplicant\src/utils/common.h **** 	a[1] = (val >> 16) & 0xff;
 753              		.loc 2 281 7
 754 029e 23800700 		sb	zero,0(a5)
 282:..\..\..\..\wpa_supplicant\src/utils/common.h **** 	a[2] = (val >> 8) & 0xff;
 755              		.loc 2 282 2 is_stmt 1
 283:..\..\..\..\wpa_supplicant\src/utils/common.h **** 	a[3] = val & 0xff;
 756              		.loc 2 283 2
 757              		.loc 2 284 2
 758              		.loc 2 284 7 is_stmt 0
 759 02a2 3547     		li	a4,13
 760 02a4 19A8     		j	.L67
 761              	.LVL82:
 762              	.L28:
 763              	.LBE167:
 764              	.LBE166:
 343:C:/Users/stapi/OneDrive/Desktop/GD32VW553/V1_MQTT_OK/GD32VW55X_Wifi_BLE_SDK/GD32VW55x_RELEASE_V1.0.2/MSDK/wpa_supplicant/src/ap\wpa_auth_ie.c **** 			break;
 765              		.loc 1 343 4 is_stmt 1
 766              	.LBB169:
 767              	.LBB170:
 281:..\..\..\..\wpa_supplicant\src/utils/common.h **** 	a[1] = (val >> 16) & 0xff;
 768              		.loc 2 281 2
 282:..\..\..\..\wpa_supplicant\src/utils/common.h **** 	a[2] = (val >> 8) & 0xff;
 769              		.loc 2 282 7 is_stmt 0
 770 02a6 3D47     		li	a4,15
 771 02a8 A380E700 		sb	a4,1(a5)
 283:..\..\..\..\wpa_supplicant\src/utils/common.h **** 	a[3] = val & 0xff;
 772              		.loc 2 283 7
 773 02ac 1307C0FA 		li	a4,-84
 774 02b0 2381E700 		sb	a4,2(a5)
 281:..\..\..\..\wpa_supplicant\src/utils/common.h **** 	a[1] = (val >> 16) & 0xff;
 775              		.loc 2 281 7
 776 02b4 23800700 		sb	zero,0(a5)
 282:..\..\..\..\wpa_supplicant\src/utils/common.h **** 	a[2] = (val >> 8) & 0xff;
 777              		.loc 2 282 2 is_stmt 1
 283:..\..\..\..\wpa_supplicant\src/utils/common.h **** 	a[3] = val & 0xff;
 778              		.loc 2 283 2
 779              		.loc 2 284 2
 780              		.loc 2 284 7 is_stmt 0
 781 02b8 1947     		li	a4,6
 782              	.LVL83:
 783              	.L67:
 784              	.LBE170:
 785              	.LBE169:
 786              	.LBB171:
 787              	.LBB168:
 788 02ba A381E700 		sb	a4,3(a5)
 789              	.LBE168:
 790              	.LBE171:
 360:C:/Users/stapi/OneDrive/Desktop/GD32VW553/V1_MQTT_OK/GD32VW55X_Wifi_BLE_SDK/GD32VW55x_RELEASE_V1.0.2/MSDK/wpa_supplicant/src/ap\wpa_auth_ie.c **** 	}
 791              		.loc 1 360 3 is_stmt 1
 792              	.LVL84:
 360:C:/Users/stapi/OneDrive/Desktop/GD32VW553/V1_MQTT_OK/GD32VW55X_Wifi_BLE_SDK/GD32VW55x_RELEASE_V1.0.2/MSDK/wpa_supplicant/src/ap\wpa_auth_ie.c **** 	}
 793              		.loc 1 360 7 is_stmt 0
 794 02be 9107     		addi	a5,a5,4
 795              	.LVL85:
 796              	.L23:
 386:C:/Users/stapi/OneDrive/Desktop/GD32VW553/V1_MQTT_OK/GD32VW55X_Wifi_BLE_SDK/GD32VW55x_RELEASE_V1.0.2/MSDK/wpa_supplicant/src/ap\wpa_auth_ie.c **** 
 797              		.loc 1 386 2 is_stmt 1
 386:C:/Users/stapi/OneDrive/Desktop/GD32VW553/V1_MQTT_OK/GD32VW55X_Wifi_BLE_SDK/GD32VW55x_RELEASE_V1.0.2/MSDK/wpa_supplicant/src/ap\wpa_auth_ie.c **** 
 798              		.loc 1 386 18 is_stmt 0
 799 02c0 33852741 		sub	a0,a5,s2
 386:C:/Users/stapi/OneDrive/Desktop/GD32VW553/V1_MQTT_OK/GD32VW55X_Wifi_BLE_SDK/GD32VW55x_RELEASE_V1.0.2/MSDK/wpa_supplicant/src/ap\wpa_auth_ie.c **** 
 800              		.loc 1 386 25
 801 02c4 9307E5FF 		addi	a5,a0,-2
 802              	.LVL86:
 386:C:/Users/stapi/OneDrive/Desktop/GD32VW553/V1_MQTT_OK/GD32VW55X_Wifi_BLE_SDK/GD32VW55x_RELEASE_V1.0.2/MSDK/wpa_supplicant/src/ap\wpa_auth_ie.c **** 
 803              		.loc 1 386 11
 804 02c8 A300F900 		sb	a5,1(s2)
 388:C:/Users/stapi/OneDrive/Desktop/GD32VW553/V1_MQTT_OK/GD32VW55X_Wifi_BLE_SDK/GD32VW55x_RELEASE_V1.0.2/MSDK/wpa_supplicant/src/ap\wpa_auth_ie.c **** }
 805              		.loc 1 388 2 is_stmt 1
 388:C:/Users/stapi/OneDrive/Desktop/GD32VW553/V1_MQTT_OK/GD32VW55X_Wifi_BLE_SDK/GD32VW55x_RELEASE_V1.0.2/MSDK/wpa_supplicant/src/ap\wpa_auth_ie.c **** }
 806              		.loc 1 388 13 is_stmt 0
 807 02cc 2DBF     		j	.L3
 808              	.LVL87:
 809              	.L29:
 346:C:/Users/stapi/OneDrive/Desktop/GD32VW553/V1_MQTT_OK/GD32VW55X_Wifi_BLE_SDK/GD32VW55x_RELEASE_V1.0.2/MSDK/wpa_supplicant/src/ap\wpa_auth_ie.c **** 			break;
 810              		.loc 1 346 4 is_stmt 1
 811              	.LBB172:
 812              	.LBB173:
 281:..\..\..\..\wpa_supplicant\src/utils/common.h **** 	a[1] = (val >> 16) & 0xff;
 813              		.loc 2 281 2
 282:..\..\..\..\wpa_supplicant\src/utils/common.h **** 	a[2] = (val >> 8) & 0xff;
 814              		.loc 2 282 7 is_stmt 0
 815 02ce 3D47     		li	a4,15
 816 02d0 A380E700 		sb	a4,1(a5)
 283:..\..\..\..\wpa_supplicant\src/utils/common.h **** 	a[3] = val & 0xff;
 817              		.loc 2 283 7
 818 02d4 1307C0FA 		li	a4,-84
 819 02d8 2381E700 		sb	a4,2(a5)
 281:..\..\..\..\wpa_supplicant\src/utils/common.h **** 	a[1] = (val >> 16) & 0xff;
 820              		.loc 2 281 7
 821 02dc 23800700 		sb	zero,0(a5)
 282:..\..\..\..\wpa_supplicant\src/utils/common.h **** 	a[2] = (val >> 8) & 0xff;
 822              		.loc 2 282 2 is_stmt 1
 283:..\..\..\..\wpa_supplicant\src/utils/common.h **** 	a[3] = val & 0xff;
 823              		.loc 2 283 2
 824              		.loc 2 284 2
 825              		.loc 2 284 7 is_stmt 0
 826 02e0 2D47     		li	a4,11
 827 02e2 E1BF     		j	.L67
 828              	.LVL88:
 829              	.L26:
 830              	.LBE173:
 831              	.LBE172:
 349:C:/Users/stapi/OneDrive/Desktop/GD32VW553/V1_MQTT_OK/GD32VW55X_Wifi_BLE_SDK/GD32VW55x_RELEASE_V1.0.2/MSDK/wpa_supplicant/src/ap\wpa_auth_ie.c **** 			break;
 832              		.loc 1 349 4 is_stmt 1
 833              	.LBB174:
 834              	.LBB175:
 281:..\..\..\..\wpa_supplicant\src/utils/common.h **** 	a[1] = (val >> 16) & 0xff;
 835              		.loc 2 281 2
 282:..\..\..\..\wpa_supplicant\src/utils/common.h **** 	a[2] = (val >> 8) & 0xff;
 836              		.loc 2 282 7 is_stmt 0
 837 02e4 3D47     		li	a4,15
 838 02e6 A380E700 		sb	a4,1(a5)
 283:..\..\..\..\wpa_supplicant\src/utils/common.h **** 	a[3] = val & 0xff;
 839              		.loc 2 283 7
 840 02ea 1307C0FA 		li	a4,-84
 841 02ee 2381E700 		sb	a4,2(a5)
 281:..\..\..\..\wpa_supplicant\src/utils/common.h **** 	a[1] = (val >> 16) & 0xff;
 842              		.loc 2 281 7
 843 02f2 23800700 		sb	zero,0(a5)
 282:..\..\..\..\wpa_supplicant\src/utils/common.h **** 	a[2] = (val >> 8) & 0xff;
 844              		.loc 2 282 2 is_stmt 1
 283:..\..\..\..\wpa_supplicant\src/utils/common.h **** 	a[3] = val & 0xff;
 845              		.loc 2 283 2
 846              		.loc 2 284 2
 847              		.loc 2 284 7 is_stmt 0
 848 02f6 3147     		li	a4,12
 849 02f8 C9B7     		j	.L67
 850              	.LBE175:
 851              	.LBE174:
 852              		.cfi_endproc
 853              	.LFE138:
 855              		.section	.text.wpa_write_rsnxe,"ax",@progbits
 856              		.align	1
 857              		.globl	wpa_write_rsnxe
 859              	wpa_write_rsnxe:
 860              	.LFB139:
 393:C:/Users/stapi/OneDrive/Desktop/GD32VW553/V1_MQTT_OK/GD32VW55X_Wifi_BLE_SDK/GD32VW55x_RELEASE_V1.0.2/MSDK/wpa_supplicant/src/ap\wpa_auth_ie.c **** 	u8 *pos = buf;
 861              		.loc 1 393 1 is_stmt 1
 862              		.cfi_startproc
 863              	.LVL89:
 394:C:/Users/stapi/OneDrive/Desktop/GD32VW553/V1_MQTT_OK/GD32VW55X_Wifi_BLE_SDK/GD32VW55x_RELEASE_V1.0.2/MSDK/wpa_supplicant/src/ap\wpa_auth_ie.c **** 	u16 capab = 0;
 864              		.loc 1 394 2
 395:C:/Users/stapi/OneDrive/Desktop/GD32VW553/V1_MQTT_OK/GD32VW55X_Wifi_BLE_SDK/GD32VW55x_RELEASE_V1.0.2/MSDK/wpa_supplicant/src/ap\wpa_auth_ie.c **** 	size_t flen;
 865              		.loc 1 395 2
 396:C:/Users/stapi/OneDrive/Desktop/GD32VW553/V1_MQTT_OK/GD32VW55X_Wifi_BLE_SDK/GD32VW55x_RELEASE_V1.0.2/MSDK/wpa_supplicant/src/ap\wpa_auth_ie.c **** 
 866              		.loc 1 396 2
 398:C:/Users/stapi/OneDrive/Desktop/GD32VW553/V1_MQTT_OK/GD32VW55X_Wifi_BLE_SDK/GD32VW55x_RELEASE_V1.0.2/MSDK/wpa_supplicant/src/ap\wpa_auth_ie.c **** 	    (conf->sae_pwe == 1 || conf->sae_pwe == 2 || conf->sae_pk)) {
 867              		.loc 1 398 2
 868              	.LBB176:
 869              	.LBB177:
 870              		.file 3 "..\\..\\..\\..\\wpa_supplicant\\src/common/defs.h"
   1:..\..\..\..\wpa_supplicant\src/common/defs.h **** /*
   2:..\..\..\..\wpa_supplicant\src/common/defs.h ****  * WPA Supplicant - Common definitions
   3:..\..\..\..\wpa_supplicant\src/common/defs.h ****  * Copyright (c) 2004-2018, Jouni Malinen <j@w1.fi>
   4:..\..\..\..\wpa_supplicant\src/common/defs.h ****  *
   5:..\..\..\..\wpa_supplicant\src/common/defs.h ****  * This software may be distributed under the terms of the BSD license.
   6:..\..\..\..\wpa_supplicant\src/common/defs.h ****  * See README for more details.
   7:..\..\..\..\wpa_supplicant\src/common/defs.h ****  */
   8:..\..\..\..\wpa_supplicant\src/common/defs.h **** 
   9:..\..\..\..\wpa_supplicant\src/common/defs.h **** #ifndef DEFS_H
  10:..\..\..\..\wpa_supplicant\src/common/defs.h **** #define DEFS_H
  11:..\..\..\..\wpa_supplicant\src/common/defs.h **** 
  12:..\..\..\..\wpa_supplicant\src/common/defs.h **** #define WPA_CIPHER_NONE BIT(0)
  13:..\..\..\..\wpa_supplicant\src/common/defs.h **** #define WPA_CIPHER_WEP40 BIT(1)
  14:..\..\..\..\wpa_supplicant\src/common/defs.h **** #define WPA_CIPHER_WEP104 BIT(2)
  15:..\..\..\..\wpa_supplicant\src/common/defs.h **** #define WPA_CIPHER_TKIP BIT(3)
  16:..\..\..\..\wpa_supplicant\src/common/defs.h **** #define WPA_CIPHER_CCMP BIT(4)
  17:..\..\..\..\wpa_supplicant\src/common/defs.h **** #define WPA_CIPHER_AES_128_CMAC BIT(5)
  18:..\..\..\..\wpa_supplicant\src/common/defs.h **** #define WPA_CIPHER_GCMP BIT(6)
  19:..\..\..\..\wpa_supplicant\src/common/defs.h **** #define WPA_CIPHER_SMS4 BIT(7)
  20:..\..\..\..\wpa_supplicant\src/common/defs.h **** #define WPA_CIPHER_GCMP_256 BIT(8)
  21:..\..\..\..\wpa_supplicant\src/common/defs.h **** #define WPA_CIPHER_CCMP_256 BIT(9)
  22:..\..\..\..\wpa_supplicant\src/common/defs.h **** #define WPA_CIPHER_BIP_GMAC_128 BIT(11)
  23:..\..\..\..\wpa_supplicant\src/common/defs.h **** #define WPA_CIPHER_BIP_GMAC_256 BIT(12)
  24:..\..\..\..\wpa_supplicant\src/common/defs.h **** #define WPA_CIPHER_BIP_CMAC_256 BIT(13)
  25:..\..\..\..\wpa_supplicant\src/common/defs.h **** #define WPA_CIPHER_GTK_NOT_USED BIT(14)
  26:..\..\..\..\wpa_supplicant\src/common/defs.h **** 
  27:..\..\..\..\wpa_supplicant\src/common/defs.h **** #define WPA_KEY_MGMT_IEEE8021X BIT(0)
  28:..\..\..\..\wpa_supplicant\src/common/defs.h **** #define WPA_KEY_MGMT_PSK BIT(1)
  29:..\..\..\..\wpa_supplicant\src/common/defs.h **** #define WPA_KEY_MGMT_NONE BIT(2)
  30:..\..\..\..\wpa_supplicant\src/common/defs.h **** #define WPA_KEY_MGMT_IEEE8021X_NO_WPA BIT(3)
  31:..\..\..\..\wpa_supplicant\src/common/defs.h **** #define WPA_KEY_MGMT_WPA_NONE BIT(4)
  32:..\..\..\..\wpa_supplicant\src/common/defs.h **** #define WPA_KEY_MGMT_FT_IEEE8021X BIT(5)
  33:..\..\..\..\wpa_supplicant\src/common/defs.h **** #define WPA_KEY_MGMT_FT_PSK BIT(6)
  34:..\..\..\..\wpa_supplicant\src/common/defs.h **** #define WPA_KEY_MGMT_IEEE8021X_SHA256 BIT(7)
  35:..\..\..\..\wpa_supplicant\src/common/defs.h **** #define WPA_KEY_MGMT_PSK_SHA256 BIT(8)
  36:..\..\..\..\wpa_supplicant\src/common/defs.h **** #define WPA_KEY_MGMT_WPS BIT(9)
  37:..\..\..\..\wpa_supplicant\src/common/defs.h **** #define WPA_KEY_MGMT_SAE BIT(10)
  38:..\..\..\..\wpa_supplicant\src/common/defs.h **** #define WPA_KEY_MGMT_FT_SAE BIT(11)
  39:..\..\..\..\wpa_supplicant\src/common/defs.h **** #define WPA_KEY_MGMT_WAPI_PSK BIT(12)
  40:..\..\..\..\wpa_supplicant\src/common/defs.h **** #define WPA_KEY_MGMT_WAPI_CERT BIT(13)
  41:..\..\..\..\wpa_supplicant\src/common/defs.h **** #define WPA_KEY_MGMT_CCKM BIT(14)
  42:..\..\..\..\wpa_supplicant\src/common/defs.h **** #define WPA_KEY_MGMT_OSEN BIT(15)
  43:..\..\..\..\wpa_supplicant\src/common/defs.h **** #define WPA_KEY_MGMT_IEEE8021X_SUITE_B BIT(16)
  44:..\..\..\..\wpa_supplicant\src/common/defs.h **** #define WPA_KEY_MGMT_IEEE8021X_SUITE_B_192 BIT(17)
  45:..\..\..\..\wpa_supplicant\src/common/defs.h **** #define WPA_KEY_MGMT_FILS_SHA256 BIT(18)
  46:..\..\..\..\wpa_supplicant\src/common/defs.h **** #define WPA_KEY_MGMT_FILS_SHA384 BIT(19)
  47:..\..\..\..\wpa_supplicant\src/common/defs.h **** #define WPA_KEY_MGMT_FT_FILS_SHA256 BIT(20)
  48:..\..\..\..\wpa_supplicant\src/common/defs.h **** #define WPA_KEY_MGMT_FT_FILS_SHA384 BIT(21)
  49:..\..\..\..\wpa_supplicant\src/common/defs.h **** #define WPA_KEY_MGMT_OWE BIT(22)
  50:..\..\..\..\wpa_supplicant\src/common/defs.h **** #define WPA_KEY_MGMT_DPP BIT(23)
  51:..\..\..\..\wpa_supplicant\src/common/defs.h **** #define WPA_KEY_MGMT_FT_IEEE8021X_SHA384 BIT(24)
  52:..\..\..\..\wpa_supplicant\src/common/defs.h **** #define WPA_KEY_MGMT_PASN BIT(25)
  53:..\..\..\..\wpa_supplicant\src/common/defs.h **** 
  54:..\..\..\..\wpa_supplicant\src/common/defs.h **** 
  55:..\..\..\..\wpa_supplicant\src/common/defs.h **** #define WPA_KEY_MGMT_FT (WPA_KEY_MGMT_FT_PSK | \
  56:..\..\..\..\wpa_supplicant\src/common/defs.h **** 			 WPA_KEY_MGMT_FT_IEEE8021X | \
  57:..\..\..\..\wpa_supplicant\src/common/defs.h **** 			 WPA_KEY_MGMT_FT_IEEE8021X_SHA384 | \
  58:..\..\..\..\wpa_supplicant\src/common/defs.h **** 			 WPA_KEY_MGMT_FT_SAE | \
  59:..\..\..\..\wpa_supplicant\src/common/defs.h **** 			 WPA_KEY_MGMT_FT_FILS_SHA256 | \
  60:..\..\..\..\wpa_supplicant\src/common/defs.h **** 			 WPA_KEY_MGMT_FT_FILS_SHA384)
  61:..\..\..\..\wpa_supplicant\src/common/defs.h **** 
  62:..\..\..\..\wpa_supplicant\src/common/defs.h **** static inline int wpa_key_mgmt_wpa_ieee8021x(int akm)
  63:..\..\..\..\wpa_supplicant\src/common/defs.h **** {
  64:..\..\..\..\wpa_supplicant\src/common/defs.h **** 	return !!(akm & (WPA_KEY_MGMT_IEEE8021X |
  65:..\..\..\..\wpa_supplicant\src/common/defs.h **** 			 WPA_KEY_MGMT_FT_IEEE8021X |
  66:..\..\..\..\wpa_supplicant\src/common/defs.h **** 			 WPA_KEY_MGMT_FT_IEEE8021X_SHA384 |
  67:..\..\..\..\wpa_supplicant\src/common/defs.h **** 			 WPA_KEY_MGMT_CCKM |
  68:..\..\..\..\wpa_supplicant\src/common/defs.h **** 			 WPA_KEY_MGMT_OSEN |
  69:..\..\..\..\wpa_supplicant\src/common/defs.h **** 			 WPA_KEY_MGMT_IEEE8021X_SHA256 |
  70:..\..\..\..\wpa_supplicant\src/common/defs.h **** 			 WPA_KEY_MGMT_IEEE8021X_SUITE_B |
  71:..\..\..\..\wpa_supplicant\src/common/defs.h **** 			 WPA_KEY_MGMT_IEEE8021X_SUITE_B_192 |
  72:..\..\..\..\wpa_supplicant\src/common/defs.h **** 			 WPA_KEY_MGMT_FILS_SHA256 |
  73:..\..\..\..\wpa_supplicant\src/common/defs.h **** 			 WPA_KEY_MGMT_FILS_SHA384 |
  74:..\..\..\..\wpa_supplicant\src/common/defs.h **** 			 WPA_KEY_MGMT_FT_FILS_SHA256 |
  75:..\..\..\..\wpa_supplicant\src/common/defs.h **** 			 WPA_KEY_MGMT_FT_FILS_SHA384));
  76:..\..\..\..\wpa_supplicant\src/common/defs.h **** }
  77:..\..\..\..\wpa_supplicant\src/common/defs.h **** 
  78:..\..\..\..\wpa_supplicant\src/common/defs.h **** static inline int wpa_key_mgmt_wpa_psk_no_sae(int akm)
  79:..\..\..\..\wpa_supplicant\src/common/defs.h **** {
  80:..\..\..\..\wpa_supplicant\src/common/defs.h **** 	return !!(akm & (WPA_KEY_MGMT_PSK |
  81:..\..\..\..\wpa_supplicant\src/common/defs.h **** 			 WPA_KEY_MGMT_FT_PSK |
  82:..\..\..\..\wpa_supplicant\src/common/defs.h **** 			 WPA_KEY_MGMT_PSK_SHA256));
  83:..\..\..\..\wpa_supplicant\src/common/defs.h **** }
  84:..\..\..\..\wpa_supplicant\src/common/defs.h **** 
  85:..\..\..\..\wpa_supplicant\src/common/defs.h **** static inline int wpa_key_mgmt_wpa_psk(int akm)
  86:..\..\..\..\wpa_supplicant\src/common/defs.h **** {
  87:..\..\..\..\wpa_supplicant\src/common/defs.h **** 	return !!(akm & (WPA_KEY_MGMT_PSK |
  88:..\..\..\..\wpa_supplicant\src/common/defs.h **** 			 WPA_KEY_MGMT_FT_PSK |
  89:..\..\..\..\wpa_supplicant\src/common/defs.h **** 			 WPA_KEY_MGMT_PSK_SHA256 |
  90:..\..\..\..\wpa_supplicant\src/common/defs.h **** 			 WPA_KEY_MGMT_SAE |
  91:..\..\..\..\wpa_supplicant\src/common/defs.h **** 			 WPA_KEY_MGMT_FT_SAE));
  92:..\..\..\..\wpa_supplicant\src/common/defs.h **** }
  93:..\..\..\..\wpa_supplicant\src/common/defs.h **** 
  94:..\..\..\..\wpa_supplicant\src/common/defs.h **** static inline int wpa_key_mgmt_ft(int akm)
  95:..\..\..\..\wpa_supplicant\src/common/defs.h **** {
  96:..\..\..\..\wpa_supplicant\src/common/defs.h **** 	return !!(akm & WPA_KEY_MGMT_FT);
  97:..\..\..\..\wpa_supplicant\src/common/defs.h **** }
  98:..\..\..\..\wpa_supplicant\src/common/defs.h **** 
  99:..\..\..\..\wpa_supplicant\src/common/defs.h **** static inline int wpa_key_mgmt_only_ft(int akm)
 100:..\..\..\..\wpa_supplicant\src/common/defs.h **** {
 101:..\..\..\..\wpa_supplicant\src/common/defs.h **** 	int ft = wpa_key_mgmt_ft(akm);
 102:..\..\..\..\wpa_supplicant\src/common/defs.h **** 	akm &= ~WPA_KEY_MGMT_FT;
 103:..\..\..\..\wpa_supplicant\src/common/defs.h **** 	return ft && !akm;
 104:..\..\..\..\wpa_supplicant\src/common/defs.h **** }
 105:..\..\..\..\wpa_supplicant\src/common/defs.h **** 
 106:..\..\..\..\wpa_supplicant\src/common/defs.h **** static inline int wpa_key_mgmt_ft_psk(int akm)
 107:..\..\..\..\wpa_supplicant\src/common/defs.h **** {
 108:..\..\..\..\wpa_supplicant\src/common/defs.h **** 	return !!(akm & WPA_KEY_MGMT_FT_PSK);
 109:..\..\..\..\wpa_supplicant\src/common/defs.h **** }
 110:..\..\..\..\wpa_supplicant\src/common/defs.h **** 
 111:..\..\..\..\wpa_supplicant\src/common/defs.h **** static inline int wpa_key_mgmt_sae(int akm)
 112:..\..\..\..\wpa_supplicant\src/common/defs.h **** {
 113:..\..\..\..\wpa_supplicant\src/common/defs.h **** 	return !!(akm & (WPA_KEY_MGMT_SAE |
 871              		.loc 3 113 2
 872              		.loc 3 113 16 is_stmt 0
 873 0000 5845     		lw	a4,12(a0)
 874 0002 8567     		li	a5,4096
 875 0004 938707C0 		addi	a5,a5,-1024
 876 0008 7D8F     		and	a4,a4,a5
 877              	.LBE177:
 878              	.LBE176:
 395:C:/Users/stapi/OneDrive/Desktop/GD32VW553/V1_MQTT_OK/GD32VW55X_Wifi_BLE_SDK/GD32VW55x_RELEASE_V1.0.2/MSDK/wpa_supplicant/src/ap\wpa_auth_ie.c **** 	size_t flen;
 879              		.loc 1 395 6
 880 000a 8147     		li	a5,0
 398:C:/Users/stapi/OneDrive/Desktop/GD32VW553/V1_MQTT_OK/GD32VW55X_Wifi_BLE_SDK/GD32VW55x_RELEASE_V1.0.2/MSDK/wpa_supplicant/src/ap\wpa_auth_ie.c **** 	    (conf->sae_pwe == 1 || conf->sae_pwe == 2 || conf->sae_pk)) {
 881              		.loc 1 398 5
 882 000c 11CF     		beq	a4,zero,.L71
 399:C:/Users/stapi/OneDrive/Desktop/GD32VW553/V1_MQTT_OK/GD32VW55X_Wifi_BLE_SDK/GD32VW55x_RELEASE_V1.0.2/MSDK/wpa_supplicant/src/ap\wpa_auth_ie.c **** 		capab |= BIT(WLAN_RSNX_CAPAB_SAE_H2E);
 883              		.loc 1 399 26 discriminator 1
 884 000e 03270508 		lw	a4,128(a0)
 398:C:/Users/stapi/OneDrive/Desktop/GD32VW553/V1_MQTT_OK/GD32VW55X_Wifi_BLE_SDK/GD32VW55x_RELEASE_V1.0.2/MSDK/wpa_supplicant/src/ap\wpa_auth_ie.c **** 	    (conf->sae_pwe == 1 || conf->sae_pwe == 2 || conf->sae_pk)) {
 885              		.loc 1 398 43 discriminator 1
 886 0012 8546     		li	a3,1
 400:C:/Users/stapi/OneDrive/Desktop/GD32VW553/V1_MQTT_OK/GD32VW55X_Wifi_BLE_SDK/GD32VW55x_RELEASE_V1.0.2/MSDK/wpa_supplicant/src/ap\wpa_auth_ie.c **** #ifdef CONFIG_SAE_PK
 887              		.loc 1 400 9 discriminator 1
 888 0014 93070002 		li	a5,32
 399:C:/Users/stapi/OneDrive/Desktop/GD32VW553/V1_MQTT_OK/GD32VW55X_Wifi_BLE_SDK/GD32VW55x_RELEASE_V1.0.2/MSDK/wpa_supplicant/src/ap\wpa_auth_ie.c **** 		capab |= BIT(WLAN_RSNX_CAPAB_SAE_H2E);
 889              		.loc 1 399 26 discriminator 1
 890 0018 7D17     		addi	a4,a4,-1
 398:C:/Users/stapi/OneDrive/Desktop/GD32VW553/V1_MQTT_OK/GD32VW55X_Wifi_BLE_SDK/GD32VW55x_RELEASE_V1.0.2/MSDK/wpa_supplicant/src/ap\wpa_auth_ie.c **** 	    (conf->sae_pwe == 1 || conf->sae_pwe == 2 || conf->sae_pk)) {
 891              		.loc 1 398 43 discriminator 1
 892 001a 63F7E600 		bleu	a4,a3,.L71
 399:C:/Users/stapi/OneDrive/Desktop/GD32VW553/V1_MQTT_OK/GD32VW55X_Wifi_BLE_SDK/GD32VW55x_RELEASE_V1.0.2/MSDK/wpa_supplicant/src/ap\wpa_auth_ie.c **** 		capab |= BIT(WLAN_RSNX_CAPAB_SAE_H2E);
 893              		.loc 1 399 48
 894 001e 83474508 		lbu	a5,132(a0)
 400:C:/Users/stapi/OneDrive/Desktop/GD32VW553/V1_MQTT_OK/GD32VW55X_Wifi_BLE_SDK/GD32VW55x_RELEASE_V1.0.2/MSDK/wpa_supplicant/src/ap\wpa_auth_ie.c **** #ifdef CONFIG_SAE_PK
 895              		.loc 1 400 9
 896 0022 B337F000 		snez	a5,a5
 897 0026 9607     		slli	a5,a5,5
 898              	.L71:
 899              	.LVL90:
 407:C:/Users/stapi/OneDrive/Desktop/GD32VW553/V1_MQTT_OK/GD32VW55X_Wifi_BLE_SDK/GD32VW55x_RELEASE_V1.0.2/MSDK/wpa_supplicant/src/ap\wpa_auth_ie.c **** 		capab |= BIT(WLAN_RSNX_CAPAB_SECURE_LTF);
 900              		.loc 1 407 2 is_stmt 1
 407:C:/Users/stapi/OneDrive/Desktop/GD32VW553/V1_MQTT_OK/GD32VW55X_Wifi_BLE_SDK/GD32VW55x_RELEASE_V1.0.2/MSDK/wpa_supplicant/src/ap\wpa_auth_ie.c **** 		capab |= BIT(WLAN_RSNX_CAPAB_SECURE_LTF);
 901              		.loc 1 407 6 is_stmt 0
 902 0028 03475508 		lbu	a4,133(a0)
 407:C:/Users/stapi/OneDrive/Desktop/GD32VW553/V1_MQTT_OK/GD32VW55X_Wifi_BLE_SDK/GD32VW55x_RELEASE_V1.0.2/MSDK/wpa_supplicant/src/ap\wpa_auth_ie.c **** 		capab |= BIT(WLAN_RSNX_CAPAB_SECURE_LTF);
 903              		.loc 1 407 5
 904 002c 93761700 		andi	a3,a4,1
 905 0030 99C2     		beq	a3,zero,.L72
 408:C:/Users/stapi/OneDrive/Desktop/GD32VW553/V1_MQTT_OK/GD32VW55X_Wifi_BLE_SDK/GD32VW55x_RELEASE_V1.0.2/MSDK/wpa_supplicant/src/ap\wpa_auth_ie.c **** 	if (conf->secure_rtt)
 906              		.loc 1 408 3 is_stmt 1
 408:C:/Users/stapi/OneDrive/Desktop/GD32VW553/V1_MQTT_OK/GD32VW55X_Wifi_BLE_SDK/GD32VW55x_RELEASE_V1.0.2/MSDK/wpa_supplicant/src/ap\wpa_auth_ie.c **** 	if (conf->secure_rtt)
 907              		.loc 1 408 9 is_stmt 0
 908 0032 93E70710 		ori	a5,a5,256
 909              	.LVL91:
 910              	.L72:
 409:C:/Users/stapi/OneDrive/Desktop/GD32VW553/V1_MQTT_OK/GD32VW55X_Wifi_BLE_SDK/GD32VW55x_RELEASE_V1.0.2/MSDK/wpa_supplicant/src/ap\wpa_auth_ie.c **** 		capab |= BIT(WLAN_RSNX_CAPAB_SECURE_RTT);
 911              		.loc 1 409 2 is_stmt 1
 409:C:/Users/stapi/OneDrive/Desktop/GD32VW553/V1_MQTT_OK/GD32VW55X_Wifi_BLE_SDK/GD32VW55x_RELEASE_V1.0.2/MSDK/wpa_supplicant/src/ap\wpa_auth_ie.c **** 		capab |= BIT(WLAN_RSNX_CAPAB_SECURE_RTT);
 912              		.loc 1 409 5 is_stmt 0
 913 0036 93762700 		andi	a3,a4,2
 914 003a 99C2     		beq	a3,zero,.L73
 410:C:/Users/stapi/OneDrive/Desktop/GD32VW553/V1_MQTT_OK/GD32VW55X_Wifi_BLE_SDK/GD32VW55x_RELEASE_V1.0.2/MSDK/wpa_supplicant/src/ap\wpa_auth_ie.c **** 	if (conf->prot_range_neg)
 915              		.loc 1 410 3 is_stmt 1
 410:C:/Users/stapi/OneDrive/Desktop/GD32VW553/V1_MQTT_OK/GD32VW55X_Wifi_BLE_SDK/GD32VW55x_RELEASE_V1.0.2/MSDK/wpa_supplicant/src/ap\wpa_auth_ie.c **** 	if (conf->prot_range_neg)
 916              		.loc 1 410 9 is_stmt 0
 917 003c 93E70720 		ori	a5,a5,512
 918              	.LVL92:
 919              	.L73:
 411:C:/Users/stapi/OneDrive/Desktop/GD32VW553/V1_MQTT_OK/GD32VW55X_Wifi_BLE_SDK/GD32VW55x_RELEASE_V1.0.2/MSDK/wpa_supplicant/src/ap\wpa_auth_ie.c **** 		capab |= BIT(WLAN_RSNX_CAPAB_PROT_RANGE_NEG);
 920              		.loc 1 411 2 is_stmt 1
 411:C:/Users/stapi/OneDrive/Desktop/GD32VW553/V1_MQTT_OK/GD32VW55X_Wifi_BLE_SDK/GD32VW55x_RELEASE_V1.0.2/MSDK/wpa_supplicant/src/ap\wpa_auth_ie.c **** 		capab |= BIT(WLAN_RSNX_CAPAB_PROT_RANGE_NEG);
 921              		.loc 1 411 5 is_stmt 0
 922 0040 118B     		andi	a4,a4,4
 923 0042 31C3     		beq	a4,zero,.L74
 412:C:/Users/stapi/OneDrive/Desktop/GD32VW553/V1_MQTT_OK/GD32VW55X_Wifi_BLE_SDK/GD32VW55x_RELEASE_V1.0.2/MSDK/wpa_supplicant/src/ap\wpa_auth_ie.c **** 
 924              		.loc 1 412 3 is_stmt 1
 412:C:/Users/stapi/OneDrive/Desktop/GD32VW553/V1_MQTT_OK/GD32VW55X_Wifi_BLE_SDK/GD32VW55x_RELEASE_V1.0.2/MSDK/wpa_supplicant/src/ap\wpa_auth_ie.c **** 
 925              		.loc 1 412 9 is_stmt 0
 926 0044 93E70740 		ori	a5,a5,1024
 927              	.LVL93:
 414:C:/Users/stapi/OneDrive/Desktop/GD32VW553/V1_MQTT_OK/GD32VW55X_Wifi_BLE_SDK/GD32VW55x_RELEASE_V1.0.2/MSDK/wpa_supplicant/src/ap\wpa_auth_ie.c **** 	if (!capab)
 928              		.loc 1 414 2 is_stmt 1
 929              	.L84:
 414:C:/Users/stapi/OneDrive/Desktop/GD32VW553/V1_MQTT_OK/GD32VW55X_Wifi_BLE_SDK/GD32VW55x_RELEASE_V1.0.2/MSDK/wpa_supplicant/src/ap\wpa_auth_ie.c **** 	if (!capab)
 930              		.loc 1 414 30 is_stmt 0
 931 0048 0947     		li	a4,2
 932              	.LVL94:
 933              	.L75:
 417:C:/Users/stapi/OneDrive/Desktop/GD32VW553/V1_MQTT_OK/GD32VW55X_Wifi_BLE_SDK/GD32VW55x_RELEASE_V1.0.2/MSDK/wpa_supplicant/src/ap\wpa_auth_ie.c **** 		return -1;
 934              		.loc 1 417 2 is_stmt 1
 417:C:/Users/stapi/OneDrive/Desktop/GD32VW553/V1_MQTT_OK/GD32VW55X_Wifi_BLE_SDK/GD32VW55x_RELEASE_V1.0.2/MSDK/wpa_supplicant/src/ap\wpa_auth_ie.c **** 		return -1;
 935              		.loc 1 417 14 is_stmt 0
 936 004a 0545     		li	a0,1
 937 004c 9146     		li	a3,4
 938 004e 6313A700 		bne	a4,a0,.L78
 939 0052 8D46     		li	a3,3
 940              	.L78:
 418:C:/Users/stapi/OneDrive/Desktop/GD32VW553/V1_MQTT_OK/GD32VW55X_Wifi_BLE_SDK/GD32VW55x_RELEASE_V1.0.2/MSDK/wpa_supplicant/src/ap\wpa_auth_ie.c **** 	capab |= flen - 1; /* bit 0-3 = Field length (n - 1) */
 941              		.loc 1 418 10
 942 0054 7D55     		li	a0,-1
 417:C:/Users/stapi/OneDrive/Desktop/GD32VW553/V1_MQTT_OK/GD32VW55X_Wifi_BLE_SDK/GD32VW55x_RELEASE_V1.0.2/MSDK/wpa_supplicant/src/ap\wpa_auth_ie.c **** 		return -1;
 943              		.loc 1 417 5
 944 0056 6360D604 		bgtu	a3,a2,.L70
 419:C:/Users/stapi/OneDrive/Desktop/GD32VW553/V1_MQTT_OK/GD32VW55X_Wifi_BLE_SDK/GD32VW55x_RELEASE_V1.0.2/MSDK/wpa_supplicant/src/ap\wpa_auth_ie.c **** 
 945              		.loc 1 419 2 is_stmt 1
 419:C:/Users/stapi/OneDrive/Desktop/GD32VW553/V1_MQTT_OK/GD32VW55X_Wifi_BLE_SDK/GD32VW55x_RELEASE_V1.0.2/MSDK/wpa_supplicant/src/ap\wpa_auth_ie.c **** 
 946              		.loc 1 419 16 is_stmt 0
 947 005a 9306F7FF 		addi	a3,a4,-1
 419:C:/Users/stapi/OneDrive/Desktop/GD32VW553/V1_MQTT_OK/GD32VW55X_Wifi_BLE_SDK/GD32VW55x_RELEASE_V1.0.2/MSDK/wpa_supplicant/src/ap\wpa_auth_ie.c **** 
 948              		.loc 1 419 8
 949 005e D58F     		or	a5,a5,a3
 950              	.LVL95:
 421:C:/Users/stapi/OneDrive/Desktop/GD32VW553/V1_MQTT_OK/GD32VW55X_Wifi_BLE_SDK/GD32VW55x_RELEASE_V1.0.2/MSDK/wpa_supplicant/src/ap\wpa_auth_ie.c **** 	*pos++ = flen;
 951              		.loc 1 421 9
 952 0060 D156     		li	a3,-12
 419:C:/Users/stapi/OneDrive/Desktop/GD32VW553/V1_MQTT_OK/GD32VW55X_Wifi_BLE_SDK/GD32VW55x_RELEASE_V1.0.2/MSDK/wpa_supplicant/src/ap\wpa_auth_ie.c **** 
 953              		.loc 1 419 8
 954 0062 B3C70708 		zext.h	a5,a5
 955              	.LVL96:
 421:C:/Users/stapi/OneDrive/Desktop/GD32VW553/V1_MQTT_OK/GD32VW55X_Wifi_BLE_SDK/GD32VW55x_RELEASE_V1.0.2/MSDK/wpa_supplicant/src/ap\wpa_auth_ie.c **** 	*pos++ = flen;
 956              		.loc 1 421 2 is_stmt 1
 421:C:/Users/stapi/OneDrive/Desktop/GD32VW553/V1_MQTT_OK/GD32VW55X_Wifi_BLE_SDK/GD32VW55x_RELEASE_V1.0.2/MSDK/wpa_supplicant/src/ap\wpa_auth_ie.c **** 	*pos++ = flen;
 957              		.loc 1 421 9 is_stmt 0
 958 0066 2380D500 		sb	a3,0(a1)
 422:C:/Users/stapi/OneDrive/Desktop/GD32VW553/V1_MQTT_OK/GD32VW55X_Wifi_BLE_SDK/GD32VW55x_RELEASE_V1.0.2/MSDK/wpa_supplicant/src/ap\wpa_auth_ie.c **** 	*pos++ = capab & 0x00ff;
 959              		.loc 1 422 2 is_stmt 1
 960              	.LVL97:
 423:C:/Users/stapi/OneDrive/Desktop/GD32VW553/V1_MQTT_OK/GD32VW55X_Wifi_BLE_SDK/GD32VW55x_RELEASE_V1.0.2/MSDK/wpa_supplicant/src/ap\wpa_auth_ie.c **** 	capab >>= 8;
 961              		.loc 1 423 9 is_stmt 0
 962 006a 2381F500 		sb	a5,2(a1)
 422:C:/Users/stapi/OneDrive/Desktop/GD32VW553/V1_MQTT_OK/GD32VW55X_Wifi_BLE_SDK/GD32VW55x_RELEASE_V1.0.2/MSDK/wpa_supplicant/src/ap\wpa_auth_ie.c **** 	*pos++ = capab & 0x00ff;
 963              		.loc 1 422 9
 964 006e A380E500 		sb	a4,1(a1)
 423:C:/Users/stapi/OneDrive/Desktop/GD32VW553/V1_MQTT_OK/GD32VW55X_Wifi_BLE_SDK/GD32VW55x_RELEASE_V1.0.2/MSDK/wpa_supplicant/src/ap\wpa_auth_ie.c **** 	capab >>= 8;
 965              		.loc 1 423 2 is_stmt 1
 966              	.LVL98:
 424:C:/Users/stapi/OneDrive/Desktop/GD32VW553/V1_MQTT_OK/GD32VW55X_Wifi_BLE_SDK/GD32VW55x_RELEASE_V1.0.2/MSDK/wpa_supplicant/src/ap\wpa_auth_ie.c **** 	if (capab)
 967              		.loc 1 424 2
 424:C:/Users/stapi/OneDrive/Desktop/GD32VW553/V1_MQTT_OK/GD32VW55X_Wifi_BLE_SDK/GD32VW55x_RELEASE_V1.0.2/MSDK/wpa_supplicant/src/ap\wpa_auth_ie.c **** 	if (capab)
 968              		.loc 1 424 8 is_stmt 0
 969 0072 A183     		srli	a5,a5,8
 970              	.LVL99:
 425:C:/Users/stapi/OneDrive/Desktop/GD32VW553/V1_MQTT_OK/GD32VW55X_Wifi_BLE_SDK/GD32VW55x_RELEASE_V1.0.2/MSDK/wpa_supplicant/src/ap\wpa_auth_ie.c **** 		*pos++ = capab;
 971              		.loc 1 425 2 is_stmt 1
 423:C:/Users/stapi/OneDrive/Desktop/GD32VW553/V1_MQTT_OK/GD32VW55X_Wifi_BLE_SDK/GD32VW55x_RELEASE_V1.0.2/MSDK/wpa_supplicant/src/ap\wpa_auth_ie.c **** 	capab >>= 8;
 972              		.loc 1 423 6 is_stmt 0
 973 0074 13853500 		addi	a0,a1,3
 974              	.LVL100:
 425:C:/Users/stapi/OneDrive/Desktop/GD32VW553/V1_MQTT_OK/GD32VW55X_Wifi_BLE_SDK/GD32VW55x_RELEASE_V1.0.2/MSDK/wpa_supplicant/src/ap\wpa_auth_ie.c **** 		*pos++ = capab;
 975              		.loc 1 425 5
 976 0078 89C7     		beq	a5,zero,.L80
 426:C:/Users/stapi/OneDrive/Desktop/GD32VW553/V1_MQTT_OK/GD32VW55X_Wifi_BLE_SDK/GD32VW55x_RELEASE_V1.0.2/MSDK/wpa_supplicant/src/ap\wpa_auth_ie.c **** 
 977              		.loc 1 426 3 is_stmt 1
 426:C:/Users/stapi/OneDrive/Desktop/GD32VW553/V1_MQTT_OK/GD32VW55X_Wifi_BLE_SDK/GD32VW55x_RELEASE_V1.0.2/MSDK/wpa_supplicant/src/ap\wpa_auth_ie.c **** 
 978              		.loc 1 426 7 is_stmt 0
 979 007a 13854500 		addi	a0,a1,4
 980              	.LVL101:
 426:C:/Users/stapi/OneDrive/Desktop/GD32VW553/V1_MQTT_OK/GD32VW55X_Wifi_BLE_SDK/GD32VW55x_RELEASE_V1.0.2/MSDK/wpa_supplicant/src/ap\wpa_auth_ie.c **** 
 981              		.loc 1 426 10
 982 007e A381F500 		sb	a5,3(a1)
 983              	.LVL102:
 984              	.L80:
 428:C:/Users/stapi/OneDrive/Desktop/GD32VW553/V1_MQTT_OK/GD32VW55X_Wifi_BLE_SDK/GD32VW55x_RELEASE_V1.0.2/MSDK/wpa_supplicant/src/ap\wpa_auth_ie.c **** }
 985              		.loc 1 428 2 is_stmt 1
 428:C:/Users/stapi/OneDrive/Desktop/GD32VW553/V1_MQTT_OK/GD32VW55X_Wifi_BLE_SDK/GD32VW55x_RELEASE_V1.0.2/MSDK/wpa_supplicant/src/ap\wpa_auth_ie.c **** }
 986              		.loc 1 428 13 is_stmt 0
 987 0082 0D8D     		sub	a0,a0,a1
 988              	.LVL103:
 989 0084 09A8     		j	.L70
 990              	.LVL104:
 991              	.L74:
 414:C:/Users/stapi/OneDrive/Desktop/GD32VW553/V1_MQTT_OK/GD32VW55X_Wifi_BLE_SDK/GD32VW55x_RELEASE_V1.0.2/MSDK/wpa_supplicant/src/ap\wpa_auth_ie.c **** 	if (!capab)
 992              		.loc 1 414 2 is_stmt 1
 414:C:/Users/stapi/OneDrive/Desktop/GD32VW553/V1_MQTT_OK/GD32VW55X_Wifi_BLE_SDK/GD32VW55x_RELEASE_V1.0.2/MSDK/wpa_supplicant/src/ap\wpa_auth_ie.c **** 	if (!capab)
 993              		.loc 1 414 30 is_stmt 0
 994 0086 13F707F0 		andi	a4,a5,-256
 995 008a 33470708 		zext.h	a4,a4
 996 008e 4DFF     		bne	a4,zero,.L84
 997              	.LVL105:
 415:C:/Users/stapi/OneDrive/Desktop/GD32VW553/V1_MQTT_OK/GD32VW55X_Wifi_BLE_SDK/GD32VW55x_RELEASE_V1.0.2/MSDK/wpa_supplicant/src/ap\wpa_auth_ie.c **** 		return 0; /* no supported extended RSN capabilities */
 998              		.loc 1 415 2 is_stmt 1 discriminator 4
 416:C:/Users/stapi/OneDrive/Desktop/GD32VW553/V1_MQTT_OK/GD32VW55X_Wifi_BLE_SDK/GD32VW55x_RELEASE_V1.0.2/MSDK/wpa_supplicant/src/ap\wpa_auth_ie.c **** 	if (len < 2 + flen)
 999              		.loc 1 416 10 is_stmt 0 discriminator 4
 1000 0090 0145     		li	a0,0
 1001              	.LVL106:
 414:C:/Users/stapi/OneDrive/Desktop/GD32VW553/V1_MQTT_OK/GD32VW55X_Wifi_BLE_SDK/GD32VW55x_RELEASE_V1.0.2/MSDK/wpa_supplicant/src/ap\wpa_auth_ie.c **** 	if (!capab)
 1002              		.loc 1 414 30 discriminator 4
 1003 0092 0547     		li	a4,1
 415:C:/Users/stapi/OneDrive/Desktop/GD32VW553/V1_MQTT_OK/GD32VW55X_Wifi_BLE_SDK/GD32VW55x_RELEASE_V1.0.2/MSDK/wpa_supplicant/src/ap\wpa_auth_ie.c **** 		return 0; /* no supported extended RSN capabilities */
 1004              		.loc 1 415 5 discriminator 4
 1005 0094 DDFB     		bne	a5,zero,.L75
 1006              	.LVL107:
 1007              	.L70:
 429:C:/Users/stapi/OneDrive/Desktop/GD32VW553/V1_MQTT_OK/GD32VW55X_Wifi_BLE_SDK/GD32VW55x_RELEASE_V1.0.2/MSDK/wpa_supplicant/src/ap\wpa_auth_ie.c **** 
 1008              		.loc 1 429 1
 1009 0096 8280     		ret
 1010              		.cfi_endproc
 1011              	.LFE139:
 1013              		.section	.text.wpa_auth_gen_wpa_ie,"ax",@progbits
 1014              		.align	1
 1015              		.globl	wpa_auth_gen_wpa_ie
 1017              	wpa_auth_gen_wpa_ie:
 1018              	.LFB141:
 484:C:/Users/stapi/OneDrive/Desktop/GD32VW553/V1_MQTT_OK/GD32VW55X_Wifi_BLE_SDK/GD32VW55x_RELEASE_V1.0.2/MSDK/wpa_supplicant/src/ap\wpa_auth_ie.c **** 	u8 *pos, buf[128];
 1019              		.loc 1 484 1 is_stmt 1
 1020              		.cfi_startproc
 1021              	.LVL108:
 1022 0000 17030000 		call	t0,__riscv_save_6
 1022      E7020300 
 1023              		.cfi_offset 21, -28
 1024              		.cfi_offset 20, -24
 1025              		.cfi_offset 19, -20
 1026              		.cfi_offset 18, -16
 1027              		.cfi_offset 9, -12
 1028              		.cfi_offset 8, -8
 1029              		.cfi_offset 1, -4
 1030              		.cfi_def_cfa_offset 32
 485:C:/Users/stapi/OneDrive/Desktop/GD32VW553/V1_MQTT_OK/GD32VW55X_Wifi_BLE_SDK/GD32VW55x_RELEASE_V1.0.2/MSDK/wpa_supplicant/src/ap\wpa_auth_ie.c **** 	int res;
 1031              		.loc 1 485 2
 486:C:/Users/stapi/OneDrive/Desktop/GD32VW553/V1_MQTT_OK/GD32VW55X_Wifi_BLE_SDK/GD32VW55x_RELEASE_V1.0.2/MSDK/wpa_supplicant/src/ap\wpa_auth_ie.c **** 
 1032              		.loc 1 486 2
 505:C:/Users/stapi/OneDrive/Desktop/GD32VW553/V1_MQTT_OK/GD32VW55X_Wifi_BLE_SDK/GD32VW55x_RELEASE_V1.0.2/MSDK/wpa_supplicant/src/ap\wpa_auth_ie.c **** 
 1033              		.loc 1 505 2
 507:C:/Users/stapi/OneDrive/Desktop/GD32VW553/V1_MQTT_OK/GD32VW55X_Wifi_BLE_SDK/GD32VW55x_RELEASE_V1.0.2/MSDK/wpa_supplicant/src/ap\wpa_auth_ie.c **** 		pos = wpa_write_osen(&wpa_auth->conf, pos);
 1034              		.loc 1 507 20 is_stmt 0
 1035 0008 5C5D     		lw	a5,60(a0)
 507:C:/Users/stapi/OneDrive/Desktop/GD32VW553/V1_MQTT_OK/GD32VW55X_Wifi_BLE_SDK/GD32VW55x_RELEASE_V1.0.2/MSDK/wpa_supplicant/src/ap\wpa_auth_ie.c **** 		pos = wpa_write_osen(&wpa_auth->conf, pos);
 1036              		.loc 1 507 5
 1037 000a 2147     		li	a4,8
 484:C:/Users/stapi/OneDrive/Desktop/GD32VW553/V1_MQTT_OK/GD32VW55X_Wifi_BLE_SDK/GD32VW55x_RELEASE_V1.0.2/MSDK/wpa_supplicant/src/ap\wpa_auth_ie.c **** 	u8 *pos, buf[128];
 1038              		.loc 1 484 1
 1039 000c 1971     		addi	sp,sp,-128
 1040              		.cfi_def_cfa_offset 160
 1041              	.LVL109:
 507:C:/Users/stapi/OneDrive/Desktop/GD32VW553/V1_MQTT_OK/GD32VW55X_Wifi_BLE_SDK/GD32VW55x_RELEASE_V1.0.2/MSDK/wpa_supplicant/src/ap\wpa_auth_ie.c **** 		pos = wpa_write_osen(&wpa_auth->conf, pos);
 1042              		.loc 1 507 2 is_stmt 1
 484:C:/Users/stapi/OneDrive/Desktop/GD32VW553/V1_MQTT_OK/GD32VW55X_Wifi_BLE_SDK/GD32VW55x_RELEASE_V1.0.2/MSDK/wpa_supplicant/src/ap\wpa_auth_ie.c **** 	u8 *pos, buf[128];
 1043              		.loc 1 484 1 is_stmt 0
 1044 000e AA84     		mv	s1,a0
 507:C:/Users/stapi/OneDrive/Desktop/GD32VW553/V1_MQTT_OK/GD32VW55X_Wifi_BLE_SDK/GD32VW55x_RELEASE_V1.0.2/MSDK/wpa_supplicant/src/ap\wpa_auth_ie.c **** 		pos = wpa_write_osen(&wpa_auth->conf, pos);
 1045              		.loc 1 507 5
 1046 0010 6398E70C 		bne	a5,a4,.L96
 508:C:/Users/stapi/OneDrive/Desktop/GD32VW553/V1_MQTT_OK/GD32VW55X_Wifi_BLE_SDK/GD32VW55x_RELEASE_V1.0.2/MSDK/wpa_supplicant/src/ap\wpa_auth_ie.c **** 	}
 1047              		.loc 1 508 3 is_stmt 1
 1048              	.LVL110:
 1049              	.LBB210:
 1050              	.LBB211:
 434:C:/Users/stapi/OneDrive/Desktop/GD32VW553/V1_MQTT_OK/GD32VW55X_Wifi_BLE_SDK/GD32VW55x_RELEASE_V1.0.2/MSDK/wpa_supplicant/src/ap\wpa_auth_ie.c **** 	u16 capab;
 1051              		.loc 1 434 2
 435:C:/Users/stapi/OneDrive/Desktop/GD32VW553/V1_MQTT_OK/GD32VW55X_Wifi_BLE_SDK/GD32VW55x_RELEASE_V1.0.2/MSDK/wpa_supplicant/src/ap\wpa_auth_ie.c **** 
 1052              		.loc 1 435 2
 437:C:/Users/stapi/OneDrive/Desktop/GD32VW553/V1_MQTT_OK/GD32VW55X_Wifi_BLE_SDK/GD32VW55x_RELEASE_V1.0.2/MSDK/wpa_supplicant/src/ap\wpa_auth_ie.c **** 	len = eid++; /* to be filled */
 1053              		.loc 1 437 2
 437:C:/Users/stapi/OneDrive/Desktop/GD32VW553/V1_MQTT_OK/GD32VW55X_Wifi_BLE_SDK/GD32VW55x_RELEASE_V1.0.2/MSDK/wpa_supplicant/src/ap\wpa_auth_ie.c **** 	len = eid++; /* to be filled */
 1054              		.loc 1 437 9 is_stmt 0
 1055 0014 9307D0FD 		li	a5,-35
 1056 0018 2300F100 		sb	a5,0(sp)
 438:C:/Users/stapi/OneDrive/Desktop/GD32VW553/V1_MQTT_OK/GD32VW55X_Wifi_BLE_SDK/GD32VW55x_RELEASE_V1.0.2/MSDK/wpa_supplicant/src/ap\wpa_auth_ie.c **** 	WPA_PUT_BE24(eid, OUI_WFA);
 1057              		.loc 1 438 2 is_stmt 1
 1058              	.LVL111:
 439:C:/Users/stapi/OneDrive/Desktop/GD32VW553/V1_MQTT_OK/GD32VW55X_Wifi_BLE_SDK/GD32VW55x_RELEASE_V1.0.2/MSDK/wpa_supplicant/src/ap\wpa_auth_ie.c **** 	eid += 3;
 1059              		.loc 1 439 2
 1060              	.LBB212:
 1061              	.LBB213:
 269:..\..\..\..\wpa_supplicant\src/utils/common.h **** 	a[1] = (val >> 8) & 0xff;
 1062              		.loc 2 269 2
 270:..\..\..\..\wpa_supplicant\src/utils/common.h **** 	a[2] = val & 0xff;
 1063              		.loc 2 270 2
 271:..\..\..\..\wpa_supplicant\src/utils/common.h **** }
 1064              		.loc 2 271 2
 1065              	.LBE213:
 1066              	.LBE212:
 440:C:/Users/stapi/OneDrive/Desktop/GD32VW553/V1_MQTT_OK/GD32VW55X_Wifi_BLE_SDK/GD32VW55x_RELEASE_V1.0.2/MSDK/wpa_supplicant/src/ap\wpa_auth_ie.c **** 	*eid++ = HS20_OSEN_OUI_TYPE;
 1067              		.loc 1 440 2
 441:C:/Users/stapi/OneDrive/Desktop/GD32VW553/V1_MQTT_OK/GD32VW55X_Wifi_BLE_SDK/GD32VW55x_RELEASE_V1.0.2/MSDK/wpa_supplicant/src/ap\wpa_auth_ie.c **** 
 1068              		.loc 1 441 2
 444:C:/Users/stapi/OneDrive/Desktop/GD32VW553/V1_MQTT_OK/GD32VW55X_Wifi_BLE_SDK/GD32VW55x_RELEASE_V1.0.2/MSDK/wpa_supplicant/src/ap\wpa_auth_ie.c **** 	eid += RSN_SELECTOR_LEN;
 1069              		.loc 1 444 2
 1070              	.LBB215:
 1071              	.LBB216:
 281:..\..\..\..\wpa_supplicant\src/utils/common.h **** 	a[1] = (val >> 16) & 0xff;
 1072              		.loc 2 281 2
 282:..\..\..\..\wpa_supplicant\src/utils/common.h **** 	a[2] = (val >> 8) & 0xff;
 1073              		.loc 2 282 2
 283:..\..\..\..\wpa_supplicant\src/utils/common.h **** 	a[3] = val & 0xff;
 1074              		.loc 2 283 2
 1075              		.loc 2 284 2
 1076              	.LBE216:
 1077              	.LBE215:
 445:C:/Users/stapi/OneDrive/Desktop/GD32VW553/V1_MQTT_OK/GD32VW55X_Wifi_BLE_SDK/GD32VW55x_RELEASE_V1.0.2/MSDK/wpa_supplicant/src/ap\wpa_auth_ie.c **** 
 1078              		.loc 1 445 2
 448:C:/Users/stapi/OneDrive/Desktop/GD32VW553/V1_MQTT_OK/GD32VW55X_Wifi_BLE_SDK/GD32VW55x_RELEASE_V1.0.2/MSDK/wpa_supplicant/src/ap\wpa_auth_ie.c **** 	eid += 2;
 1079              		.loc 1 448 2
 1080              	.LBE211:
 1081              	.LBE210:
 258:..\..\..\..\wpa_supplicant\src/utils/common.h **** 	a[0] = val & 0xff;
 1082              		.loc 2 258 2
 259:..\..\..\..\wpa_supplicant\src/utils/common.h **** }
 1083              		.loc 2 259 2
 1084              	.LBB240:
 1085              	.LBB238:
 449:C:/Users/stapi/OneDrive/Desktop/GD32VW553/V1_MQTT_OK/GD32VW55X_Wifi_BLE_SDK/GD32VW55x_RELEASE_V1.0.2/MSDK/wpa_supplicant/src/ap\wpa_auth_ie.c **** 	RSN_SELECTOR_PUT(eid, RSN_CIPHER_SUITE_CCMP);
 1086              		.loc 1 449 2
 450:C:/Users/stapi/OneDrive/Desktop/GD32VW553/V1_MQTT_OK/GD32VW55X_Wifi_BLE_SDK/GD32VW55x_RELEASE_V1.0.2/MSDK/wpa_supplicant/src/ap\wpa_auth_ie.c **** 	eid += RSN_SELECTOR_LEN;
 1087              		.loc 1 450 2
 1088              	.LBB218:
 1089              	.LBB219:
 281:..\..\..\..\wpa_supplicant\src/utils/common.h **** 	a[1] = (val >> 16) & 0xff;
 1090              		.loc 2 281 2
 282:..\..\..\..\wpa_supplicant\src/utils/common.h **** 	a[2] = (val >> 8) & 0xff;
 1091              		.loc 2 282 2
 283:..\..\..\..\wpa_supplicant\src/utils/common.h **** 	a[3] = val & 0xff;
 1092              		.loc 2 283 2
 1093              		.loc 2 284 2
 1094              	.LBE219:
 1095              	.LBE218:
 451:C:/Users/stapi/OneDrive/Desktop/GD32VW553/V1_MQTT_OK/GD32VW55X_Wifi_BLE_SDK/GD32VW55x_RELEASE_V1.0.2/MSDK/wpa_supplicant/src/ap\wpa_auth_ie.c **** 
 1096              		.loc 1 451 2
 454:C:/Users/stapi/OneDrive/Desktop/GD32VW553/V1_MQTT_OK/GD32VW55X_Wifi_BLE_SDK/GD32VW55x_RELEASE_V1.0.2/MSDK/wpa_supplicant/src/ap\wpa_auth_ie.c **** 	eid += 2;
 1097              		.loc 1 454 2
 1098              	.LBB221:
 1099              	.LBB222:
 258:..\..\..\..\wpa_supplicant\src/utils/common.h **** 	a[0] = val & 0xff;
 1100              		.loc 2 258 2
 259:..\..\..\..\wpa_supplicant\src/utils/common.h **** }
 1101              		.loc 2 259 2
 1102              	.LBE222:
 1103              	.LBE221:
 455:C:/Users/stapi/OneDrive/Desktop/GD32VW553/V1_MQTT_OK/GD32VW55X_Wifi_BLE_SDK/GD32VW55x_RELEASE_V1.0.2/MSDK/wpa_supplicant/src/ap\wpa_auth_ie.c **** 	RSN_SELECTOR_PUT(eid, RSN_AUTH_KEY_MGMT_OSEN);
 1104              		.loc 1 455 2
 456:C:/Users/stapi/OneDrive/Desktop/GD32VW553/V1_MQTT_OK/GD32VW55X_Wifi_BLE_SDK/GD32VW55x_RELEASE_V1.0.2/MSDK/wpa_supplicant/src/ap\wpa_auth_ie.c **** 	eid += RSN_SELECTOR_LEN;
 1105              		.loc 1 456 2
 1106              	.LBB225:
 1107              	.LBB226:
 281:..\..\..\..\wpa_supplicant\src/utils/common.h **** 	a[1] = (val >> 16) & 0xff;
 1108              		.loc 2 281 2
 282:..\..\..\..\wpa_supplicant\src/utils/common.h **** 	a[2] = (val >> 8) & 0xff;
 1109              		.loc 2 282 2
 283:..\..\..\..\wpa_supplicant\src/utils/common.h **** 	a[3] = val & 0xff;
 1110              		.loc 2 283 2
 1111              		.loc 2 284 2
 1112              	.LBE226:
 1113              	.LBE225:
 1114              	.LBB228:
 1115              	.LBB214:
 269:..\..\..\..\wpa_supplicant\src/utils/common.h **** 	a[1] = (val >> 8) & 0xff;
 1116              		.loc 2 269 7 is_stmt 0
 1117 001c 9D67     		li	a5,28672
 1118 001e 938707F5 		addi	a5,a5,-176
 1119 0022 2311F100 		sh	a5,2(sp)
 271:..\..\..\..\wpa_supplicant\src/utils/common.h **** }
 1120              		.loc 2 271 7
 1121 0026 B717000F 		li	a5,251662336
 1122 002a 9387A729 		addi	a5,a5,666
 1123 002e 3EC2     		sw	a5,4(sp)
 1124              	.LBE214:
 1125              	.LBE228:
 1126              	.LBB229:
 1127              	.LBB217:
 283:..\..\..\..\wpa_supplicant\src/utils/common.h **** 	a[3] = val & 0xff;
 1128              		.loc 2 283 7
 1129 0030 C167     		li	a5,65536
 1130 0032 9387C77A 		addi	a5,a5,1964
 1131 0036 3EC4     		sw	a5,8(sp)
 1132              	.LBE217:
 1133              	.LBE229:
 1134              	.LBB230:
 1135              	.LBB220:
 281:..\..\..\..\wpa_supplicant\src/utils/common.h **** 	a[1] = (val >> 16) & 0xff;
 1136              		.loc 2 281 7
 1137 0038 B717AC04 		li	a5,78385152
 1138 003c 938707F0 		addi	a5,a5,-256
 1139 0040 3EC6     		sw	a5,12(sp)
 1140              	.LBE220:
 1141              	.LBE230:
 1142              	.LBB231:
 1143              	.LBB223:
 259:..\..\..\..\wpa_supplicant\src/utils/common.h **** }
 1144              		.loc 2 259 7
 1145 0042 B707506F 		li	a5,1867513856
 1146 0046 8507     		addi	a5,a5,1
 1147              	.LBE223:
 1148              	.LBE231:
 461:C:/Users/stapi/OneDrive/Desktop/GD32VW553/V1_MQTT_OK/GD32VW55X_Wifi_BLE_SDK/GD32VW55x_RELEASE_V1.0.2/MSDK/wpa_supplicant/src/ap\wpa_auth_ie.c **** 		/* 4 PTKSA replay counters when using WMM */
 1149              		.loc 1 461 5
 1150 0048 785D     		lw	a4,124(a0)
 1151              	.LBB232:
 1152              	.LBB224:
 259:..\..\..\..\wpa_supplicant\src/utils/common.h **** }
 1153              		.loc 2 259 7
 1154 004a 3EC8     		sw	a5,16(sp)
 1155              	.LBE224:
 1156              	.LBE232:
 1157              	.LBB233:
 1158              	.LBB227:
 283:..\..\..\..\wpa_supplicant\src/utils/common.h **** 	a[3] = val & 0xff;
 1159              		.loc 2 283 7
 1160 004c 9307A019 		li	a5,410
 1161 0050 231AF100 		sh	a5,20(sp)
 1162              	.LVL112:
 1163              	.LBE227:
 1164              	.LBE233:
 457:C:/Users/stapi/OneDrive/Desktop/GD32VW553/V1_MQTT_OK/GD32VW55X_Wifi_BLE_SDK/GD32VW55x_RELEASE_V1.0.2/MSDK/wpa_supplicant/src/ap\wpa_auth_ie.c **** 
 1165              		.loc 1 457 2 is_stmt 1
 460:C:/Users/stapi/OneDrive/Desktop/GD32VW553/V1_MQTT_OK/GD32VW55X_Wifi_BLE_SDK/GD32VW55x_RELEASE_V1.0.2/MSDK/wpa_supplicant/src/ap\wpa_auth_ie.c **** 	if (conf->wmm_enabled) {
 1166              		.loc 1 460 2
 461:C:/Users/stapi/OneDrive/Desktop/GD32VW553/V1_MQTT_OK/GD32VW55X_Wifi_BLE_SDK/GD32VW55x_RELEASE_V1.0.2/MSDK/wpa_supplicant/src/ap\wpa_auth_ie.c **** 		/* 4 PTKSA replay counters when using WMM */
 1167              		.loc 1 461 2
 460:C:/Users/stapi/OneDrive/Desktop/GD32VW553/V1_MQTT_OK/GD32VW55X_Wifi_BLE_SDK/GD32VW55x_RELEASE_V1.0.2/MSDK/wpa_supplicant/src/ap\wpa_auth_ie.c **** 	if (conf->wmm_enabled) {
 1168              		.loc 1 460 8 is_stmt 0
 1169 0054 8147     		li	a5,0
 461:C:/Users/stapi/OneDrive/Desktop/GD32VW553/V1_MQTT_OK/GD32VW55X_Wifi_BLE_SDK/GD32VW55x_RELEASE_V1.0.2/MSDK/wpa_supplicant/src/ap\wpa_auth_ie.c **** 		/* 4 PTKSA replay counters when using WMM */
 1170              		.loc 1 461 5
 1171 0056 11C3     		beq	a4,zero,.L97
 463:C:/Users/stapi/OneDrive/Desktop/GD32VW553/V1_MQTT_OK/GD32VW55X_Wifi_BLE_SDK/GD32VW55x_RELEASE_V1.0.2/MSDK/wpa_supplicant/src/ap\wpa_auth_ie.c **** 	}
 1172              		.loc 1 463 9
 1173 0058 B147     		li	a5,12
 1174              	.L97:
 1175              	.LVL113:
 465:C:/Users/stapi/OneDrive/Desktop/GD32VW553/V1_MQTT_OK/GD32VW55X_Wifi_BLE_SDK/GD32VW55x_RELEASE_V1.0.2/MSDK/wpa_supplicant/src/ap\wpa_auth_ie.c **** 		capab |= WPA_CAPABILITY_MFPC;
 1176              		.loc 1 465 2 is_stmt 1
 465:C:/Users/stapi/OneDrive/Desktop/GD32VW553/V1_MQTT_OK/GD32VW55X_Wifi_BLE_SDK/GD32VW55x_RELEASE_V1.0.2/MSDK/wpa_supplicant/src/ap\wpa_auth_ie.c **** 		capab |= WPA_CAPABILITY_MFPC;
 1177              		.loc 1 465 10 is_stmt 0
 1178 005a 03A70409 		lw	a4,144(s1)
 465:C:/Users/stapi/OneDrive/Desktop/GD32VW553/V1_MQTT_OK/GD32VW55X_Wifi_BLE_SDK/GD32VW55x_RELEASE_V1.0.2/MSDK/wpa_supplicant/src/ap\wpa_auth_ie.c **** 		capab |= WPA_CAPABILITY_MFPC;
 1179              		.loc 1 465 5
 1180 005e 11C7     		beq	a4,zero,.L98
 466:C:/Users/stapi/OneDrive/Desktop/GD32VW553/V1_MQTT_OK/GD32VW55X_Wifi_BLE_SDK/GD32VW55x_RELEASE_V1.0.2/MSDK/wpa_supplicant/src/ap\wpa_auth_ie.c **** 		if (conf->ieee80211w == MGMT_FRAME_PROTECTION_REQUIRED)
 1181              		.loc 1 466 3 is_stmt 1
 1182              	.LVL114:
 467:C:/Users/stapi/OneDrive/Desktop/GD32VW553/V1_MQTT_OK/GD32VW55X_Wifi_BLE_SDK/GD32VW55x_RELEASE_V1.0.2/MSDK/wpa_supplicant/src/ap\wpa_auth_ie.c **** 			capab |= WPA_CAPABILITY_MFPR;
 1183              		.loc 1 467 3
 467:C:/Users/stapi/OneDrive/Desktop/GD32VW553/V1_MQTT_OK/GD32VW55X_Wifi_BLE_SDK/GD32VW55x_RELEASE_V1.0.2/MSDK/wpa_supplicant/src/ap\wpa_auth_ie.c **** 			capab |= WPA_CAPABILITY_MFPR;
 1184              		.loc 1 467 6 is_stmt 0
 1185 0060 8946     		li	a3,2
 1186 0062 630CD706 		beq	a4,a3,.L99
 466:C:/Users/stapi/OneDrive/Desktop/GD32VW553/V1_MQTT_OK/GD32VW55X_Wifi_BLE_SDK/GD32VW55x_RELEASE_V1.0.2/MSDK/wpa_supplicant/src/ap\wpa_auth_ie.c **** 		if (conf->ieee80211w == MGMT_FRAME_PROTECTION_REQUIRED)
 1187              		.loc 1 466 9
 1188 0066 93E70708 		ori	a5,a5,128
 1189              	.LVL115:
 1190              	.L98:
 474:C:/Users/stapi/OneDrive/Desktop/GD32VW553/V1_MQTT_OK/GD32VW55X_Wifi_BLE_SDK/GD32VW55x_RELEASE_V1.0.2/MSDK/wpa_supplicant/src/ap\wpa_auth_ie.c **** 	eid += 2;
 1191              		.loc 1 474 2 is_stmt 1
 1192              	.LBB234:
 1193              	.LBB235:
 258:..\..\..\..\wpa_supplicant\src/utils/common.h **** 	a[0] = val & 0xff;
 1194              		.loc 2 258 2
 259:..\..\..\..\wpa_supplicant\src/utils/common.h **** }
 1195              		.loc 2 259 7 is_stmt 0
 1196 006a 230BF100 		sb	a5,22(sp)
 1197              	.LBE235:
 1198              	.LBE234:
 477:C:/Users/stapi/OneDrive/Desktop/GD32VW553/V1_MQTT_OK/GD32VW55X_Wifi_BLE_SDK/GD32VW55x_RELEASE_V1.0.2/MSDK/wpa_supplicant/src/ap\wpa_auth_ie.c **** 
 1199              		.loc 1 477 7
 1200 006e D947     		li	a5,22
 1201              	.LVL116:
 1202              	.LBB237:
 1203              	.LBB236:
 258:..\..\..\..\wpa_supplicant\src/utils/common.h **** 	a[0] = val & 0xff;
 1204              		.loc 2 258 7
 1205 0070 A30B0100 		sb	zero,23(sp)
 259:..\..\..\..\wpa_supplicant\src/utils/common.h **** }
 1206              		.loc 2 259 2 is_stmt 1
 1207              	.LVL117:
 1208              	.LBE236:
 1209              	.LBE237:
 475:C:/Users/stapi/OneDrive/Desktop/GD32VW553/V1_MQTT_OK/GD32VW55X_Wifi_BLE_SDK/GD32VW55x_RELEASE_V1.0.2/MSDK/wpa_supplicant/src/ap\wpa_auth_ie.c **** 
 1210              		.loc 1 475 2
 477:C:/Users/stapi/OneDrive/Desktop/GD32VW553/V1_MQTT_OK/GD32VW55X_Wifi_BLE_SDK/GD32VW55x_RELEASE_V1.0.2/MSDK/wpa_supplicant/src/ap\wpa_auth_ie.c **** 
 1211              		.loc 1 477 2
 477:C:/Users/stapi/OneDrive/Desktop/GD32VW553/V1_MQTT_OK/GD32VW55X_Wifi_BLE_SDK/GD32VW55x_RELEASE_V1.0.2/MSDK/wpa_supplicant/src/ap\wpa_auth_ie.c **** 
 1212              		.loc 1 477 7 is_stmt 0
 1213 0074 A300F100 		sb	a5,1(sp)
 479:C:/Users/stapi/OneDrive/Desktop/GD32VW553/V1_MQTT_OK/GD32VW55X_Wifi_BLE_SDK/GD32VW55x_RELEASE_V1.0.2/MSDK/wpa_supplicant/src/ap\wpa_auth_ie.c **** }
 1214              		.loc 1 479 2 is_stmt 1
 1215              	.LVL118:
 1216              	.LBE238:
 1217              	.LBE240:
 510:C:/Users/stapi/OneDrive/Desktop/GD32VW553/V1_MQTT_OK/GD32VW55X_Wifi_BLE_SDK/GD32VW55x_RELEASE_V1.0.2/MSDK/wpa_supplicant/src/ap\wpa_auth_ie.c **** 		res = wpa_write_rsn_ie(&wpa_auth->conf,
 1218              		.loc 1 510 2
 508:C:/Users/stapi/OneDrive/Desktop/GD32VW553/V1_MQTT_OK/GD32VW55X_Wifi_BLE_SDK/GD32VW55x_RELEASE_V1.0.2/MSDK/wpa_supplicant/src/ap\wpa_auth_ie.c **** 	}
 1219              		.loc 1 508 9 is_stmt 0
 1220 0078 2008     		addi	s0,sp,24
 1221              	.LVL119:
 1222              	.L100:
 531:C:/Users/stapi/OneDrive/Desktop/GD32VW553/V1_MQTT_OK/GD32VW55X_Wifi_BLE_SDK/GD32VW55x_RELEASE_V1.0.2/MSDK/wpa_supplicant/src/ap\wpa_auth_ie.c **** 		res = wpa_write_wpa_ie(&wpa_auth->conf,
 1223              		.loc 1 531 2 is_stmt 1
 531:C:/Users/stapi/OneDrive/Desktop/GD32VW553/V1_MQTT_OK/GD32VW55X_Wifi_BLE_SDK/GD32VW55x_RELEASE_V1.0.2/MSDK/wpa_supplicant/src/ap\wpa_auth_ie.c **** 		res = wpa_write_wpa_ie(&wpa_auth->conf,
 1224              		.loc 1 531 25 is_stmt 0
 1225 007a DC5C     		lw	a5,60(s1)
 1226 007c 858B     		andi	a5,a5,1
 531:C:/Users/stapi/OneDrive/Desktop/GD32VW553/V1_MQTT_OK/GD32VW55X_Wifi_BLE_SDK/GD32VW55x_RELEASE_V1.0.2/MSDK/wpa_supplicant/src/ap\wpa_auth_ie.c **** 		res = wpa_write_wpa_ie(&wpa_auth->conf,
 1227              		.loc 1 531 5
 1228 007e 63880718 		beq	a5,zero,.L111
 532:C:/Users/stapi/OneDrive/Desktop/GD32VW553/V1_MQTT_OK/GD32VW55X_Wifi_BLE_SDK/GD32VW55x_RELEASE_V1.0.2/MSDK/wpa_supplicant/src/ap\wpa_auth_ie.c **** 				       pos, buf + sizeof(buf) - pos);
 1229              		.loc 1 532 3 is_stmt 1
 1230              	.LVL120:
 1231              	.LBB241:
 1232              	.LBB242:
  30:C:/Users/stapi/OneDrive/Desktop/GD32VW553/V1_MQTT_OK/GD32VW55X_Wifi_BLE_SDK/GD32VW55x_RELEASE_V1.0.2/MSDK/wpa_supplicant/src/ap\wpa_auth_ie.c **** 	int num_suites;
 1233              		.loc 1 30 2
  31:C:/Users/stapi/OneDrive/Desktop/GD32VW553/V1_MQTT_OK/GD32VW55X_Wifi_BLE_SDK/GD32VW55x_RELEASE_V1.0.2/MSDK/wpa_supplicant/src/ap\wpa_auth_ie.c **** 	u8 *pos, *count;
 1234              		.loc 1 31 2
  32:C:/Users/stapi/OneDrive/Desktop/GD32VW553/V1_MQTT_OK/GD32VW55X_Wifi_BLE_SDK/GD32VW55x_RELEASE_V1.0.2/MSDK/wpa_supplicant/src/ap\wpa_auth_ie.c **** 	u32 suite;
 1235              		.loc 1 32 2
  33:C:/Users/stapi/OneDrive/Desktop/GD32VW553/V1_MQTT_OK/GD32VW55X_Wifi_BLE_SDK/GD32VW55x_RELEASE_V1.0.2/MSDK/wpa_supplicant/src/ap\wpa_auth_ie.c **** 
 1236              		.loc 1 33 2
  35:C:/Users/stapi/OneDrive/Desktop/GD32VW553/V1_MQTT_OK/GD32VW55X_Wifi_BLE_SDK/GD32VW55x_RELEASE_V1.0.2/MSDK/wpa_supplicant/src/ap\wpa_auth_ie.c **** 	hdr->elem_id = WLAN_EID_VENDOR_SPECIFIC;
 1237              		.loc 1 35 2
  36:C:/Users/stapi/OneDrive/Desktop/GD32VW553/V1_MQTT_OK/GD32VW55X_Wifi_BLE_SDK/GD32VW55x_RELEASE_V1.0.2/MSDK/wpa_supplicant/src/ap\wpa_auth_ie.c **** 	RSN_SELECTOR_PUT(hdr->oui, WPA_OUI_TYPE);
 1238              		.loc 1 36 2
  41:C:/Users/stapi/OneDrive/Desktop/GD32VW553/V1_MQTT_OK/GD32VW55X_Wifi_BLE_SDK/GD32VW55x_RELEASE_V1.0.2/MSDK/wpa_supplicant/src/ap\wpa_auth_ie.c **** 	if (suite == 0) {
 1239              		.loc 1 41 10 is_stmt 0
 1240 0082 EC44     		lw	a1,76(s1)
 1241              	.LBB243:
 1242              	.LBB244:
 1243              		.loc 2 284 7
 1244 0084 8549     		li	s3,1
 1245              	.LBE244:
 1246              	.LBE243:
  36:C:/Users/stapi/OneDrive/Desktop/GD32VW553/V1_MQTT_OK/GD32VW55X_Wifi_BLE_SDK/GD32VW55x_RELEASE_V1.0.2/MSDK/wpa_supplicant/src/ap\wpa_auth_ie.c **** 	RSN_SELECTOR_PUT(hdr->oui, WPA_OUI_TYPE);
 1247              		.loc 1 36 15
 1248 0086 9307D0FD 		li	a5,-35
 1249              	.LBB247:
 1250              	.LBB245:
 282:..\..\..\..\wpa_supplicant\src/utils/common.h **** 	a[2] = (val >> 8) & 0xff;
 1251              		.loc 2 282 7
 1252 008a 930A0005 		li	s5,80
 283:..\..\..\..\wpa_supplicant\src/utils/common.h **** 	a[3] = val & 0xff;
 1253              		.loc 2 283 7
 1254 008e 495A     		li	s4,-14
 1255              	.LBE245:
 1256              	.LBE247:
  36:C:/Users/stapi/OneDrive/Desktop/GD32VW553/V1_MQTT_OK/GD32VW55X_Wifi_BLE_SDK/GD32VW55x_RELEASE_V1.0.2/MSDK/wpa_supplicant/src/ap\wpa_auth_ie.c **** 	RSN_SELECTOR_PUT(hdr->oui, WPA_OUI_TYPE);
 1257              		.loc 1 36 15
 1258 0090 2300F400 		sb	a5,0(s0)
  37:C:/Users/stapi/OneDrive/Desktop/GD32VW553/V1_MQTT_OK/GD32VW55X_Wifi_BLE_SDK/GD32VW55x_RELEASE_V1.0.2/MSDK/wpa_supplicant/src/ap\wpa_auth_ie.c **** 	WPA_PUT_LE16(hdr->version, WPA_VERSION);
 1259              		.loc 1 37 2 is_stmt 1
 1260              	.LVL121:
 1261              	.LBB248:
 1262              	.LBB246:
 281:..\..\..\..\wpa_supplicant\src/utils/common.h **** 	a[1] = (val >> 16) & 0xff;
 1263              		.loc 2 281 2
 281:..\..\..\..\wpa_supplicant\src/utils/common.h **** 	a[1] = (val >> 16) & 0xff;
 1264              		.loc 2 281 7 is_stmt 0
 1265 0094 23010400 		sb	zero,2(s0)
 282:..\..\..\..\wpa_supplicant\src/utils/common.h **** 	a[2] = (val >> 8) & 0xff;
 1266              		.loc 2 282 2 is_stmt 1
 282:..\..\..\..\wpa_supplicant\src/utils/common.h **** 	a[2] = (val >> 8) & 0xff;
 1267              		.loc 2 282 7 is_stmt 0
 1268 0098 A3015401 		sb	s5,3(s0)
 283:..\..\..\..\wpa_supplicant\src/utils/common.h **** 	a[3] = val & 0xff;
 1269              		.loc 2 283 2 is_stmt 1
 283:..\..\..\..\wpa_supplicant\src/utils/common.h **** 	a[3] = val & 0xff;
 1270              		.loc 2 283 7 is_stmt 0
 1271 009c 23024401 		sb	s4,4(s0)
 1272              		.loc 2 284 2 is_stmt 1
 1273              		.loc 2 284 7 is_stmt 0
 1274 00a0 A3023401 		sb	s3,5(s0)
 1275              	.LVL122:
 1276              	.LBE246:
 1277              	.LBE248:
  38:C:/Users/stapi/OneDrive/Desktop/GD32VW553/V1_MQTT_OK/GD32VW55X_Wifi_BLE_SDK/GD32VW55x_RELEASE_V1.0.2/MSDK/wpa_supplicant/src/ap\wpa_auth_ie.c **** 	pos = (u8 *) (hdr + 1);
 1278              		.loc 1 38 2 is_stmt 1
 1279              	.LBB249:
 1280              	.LBB250:
 258:..\..\..\..\wpa_supplicant\src/utils/common.h **** 	a[0] = val & 0xff;
 1281              		.loc 2 258 2
 258:..\..\..\..\wpa_supplicant\src/utils/common.h **** 	a[0] = val & 0xff;
 1282              		.loc 2 258 7 is_stmt 0
 1283 00a4 A3030400 		sb	zero,7(s0)
 259:..\..\..\..\wpa_supplicant\src/utils/common.h **** }
 1284              		.loc 2 259 2 is_stmt 1
 259:..\..\..\..\wpa_supplicant\src/utils/common.h **** }
 1285              		.loc 2 259 7 is_stmt 0
 1286 00a8 23033401 		sb	s3,6(s0)
 1287              	.LVL123:
 1288              	.LBE250:
 1289              	.LBE249:
  39:C:/Users/stapi/OneDrive/Desktop/GD32VW553/V1_MQTT_OK/GD32VW55X_Wifi_BLE_SDK/GD32VW55x_RELEASE_V1.0.2/MSDK/wpa_supplicant/src/ap\wpa_auth_ie.c **** 
 1290              		.loc 1 39 2 is_stmt 1
  41:C:/Users/stapi/OneDrive/Desktop/GD32VW553/V1_MQTT_OK/GD32VW55X_Wifi_BLE_SDK/GD32VW55x_RELEASE_V1.0.2/MSDK/wpa_supplicant/src/ap\wpa_auth_ie.c **** 	if (suite == 0) {
 1291              		.loc 1 41 2
  41:C:/Users/stapi/OneDrive/Desktop/GD32VW553/V1_MQTT_OK/GD32VW55X_Wifi_BLE_SDK/GD32VW55x_RELEASE_V1.0.2/MSDK/wpa_supplicant/src/ap\wpa_auth_ie.c **** 	if (suite == 0) {
 1292              		.loc 1 41 10 is_stmt 0
 1293 00ac 0545     		li	a0,1
 1294 00ae 97000000 		call	wpa_cipher_to_suite
 1294      E7800000 
 1295              	.LVL124:
  42:C:/Users/stapi/OneDrive/Desktop/GD32VW553/V1_MQTT_OK/GD32VW55X_Wifi_BLE_SDK/GD32VW55x_RELEASE_V1.0.2/MSDK/wpa_supplicant/src/ap\wpa_auth_ie.c **** 		wpa_printf(MSG_DEBUG, "Invalid group cipher (%d).",
 1296              		.loc 1 42 2 is_stmt 1
  42:C:/Users/stapi/OneDrive/Desktop/GD32VW553/V1_MQTT_OK/GD32VW55X_Wifi_BLE_SDK/GD32VW55x_RELEASE_V1.0.2/MSDK/wpa_supplicant/src/ap\wpa_auth_ie.c **** 		wpa_printf(MSG_DEBUG, "Invalid group cipher (%d).",
 1297              		.loc 1 42 5 is_stmt 0
 1298 00b6 2DE5     		bne	a0,zero,.L103
  43:C:/Users/stapi/OneDrive/Desktop/GD32VW553/V1_MQTT_OK/GD32VW55X_Wifi_BLE_SDK/GD32VW55x_RELEASE_V1.0.2/MSDK/wpa_supplicant/src/ap\wpa_auth_ie.c **** 			   conf->wpa_group);
 1299              		.loc 1 43 3 is_stmt 1
 1300 00b8 F044     		lw	a2,76(s1)
 1301 00ba B7050000 		lui	a1,%hi(.LC0)
 1302 00be 93850500 		addi	a1,a1,%lo(.LC0)
 1303              	.LVL125:
 1304              	.L119:
  55:C:/Users/stapi/OneDrive/Desktop/GD32VW553/V1_MQTT_OK/GD32VW55X_Wifi_BLE_SDK/GD32VW55x_RELEASE_V1.0.2/MSDK/wpa_supplicant/src/ap\wpa_auth_ie.c **** 			   conf->wpa_pairwise);
 1305              		.loc 1 55 3 is_stmt 0
 1306 00c2 0945     		li	a0,2
 1307 00c4 97000000 		call	wpa_printf
 1307      E7800000 
 1308              	.LVL126:
  57:C:/Users/stapi/OneDrive/Desktop/GD32VW553/V1_MQTT_OK/GD32VW55X_Wifi_BLE_SDK/GD32VW55x_RELEASE_V1.0.2/MSDK/wpa_supplicant/src/ap\wpa_auth_ie.c **** 	}
 1309              		.loc 1 57 3 is_stmt 1
 1310              	.LBE242:
 1311              	.LBE241:
 534:C:/Users/stapi/OneDrive/Desktop/GD32VW553/V1_MQTT_OK/GD32VW55X_Wifi_BLE_SDK/GD32VW55x_RELEASE_V1.0.2/MSDK/wpa_supplicant/src/ap\wpa_auth_ie.c **** 			return res;
 1312              		.loc 1 534 3
 1313              	.LBB270:
 1314              	.LBB267:
  57:C:/Users/stapi/OneDrive/Desktop/GD32VW553/V1_MQTT_OK/GD32VW55X_Wifi_BLE_SDK/GD32VW55x_RELEASE_V1.0.2/MSDK/wpa_supplicant/src/ap\wpa_auth_ie.c **** 	}
 1315              		.loc 1 57 10 is_stmt 0
 1316 00cc FD57     		li	a5,-1
 1317              	.LVL127:
 1318              	.L95:
 1319              	.LBE267:
 1320              	.LBE270:
 547:C:/Users/stapi/OneDrive/Desktop/GD32VW553/V1_MQTT_OK/GD32VW55X_Wifi_BLE_SDK/GD32VW55x_RELEASE_V1.0.2/MSDK/wpa_supplicant/src/ap\wpa_auth_ie.c **** 
 1321              		.loc 1 547 1
 1322 00ce 3E85     		mv	a0,a5
 1323 00d0 0961     		addi	sp,sp,128
 1324              		.cfi_remember_state
 1325              		.cfi_def_cfa_offset 0
 1326 00d2 17030000 		tail	__riscv_restore_6
 1326      67000300 
 1327              		.cfi_restore 21
 1328              		.cfi_restore 20
 1329              		.cfi_restore 19
 1330              		.cfi_restore 18
 1331              		.cfi_restore 9
 1332              		.cfi_restore 8
 1333              		.cfi_restore 1
 1334              		.cfi_def_cfa_offset -32
 1335              	.LVL128:
 1336              	.L99:
 1337              		.cfi_restore_state
 1338              	.LBB271:
 1339              	.LBB239:
 468:C:/Users/stapi/OneDrive/Desktop/GD32VW553/V1_MQTT_OK/GD32VW55X_Wifi_BLE_SDK/GD32VW55x_RELEASE_V1.0.2/MSDK/wpa_supplicant/src/ap\wpa_auth_ie.c **** 	}
 1340              		.loc 1 468 4 is_stmt 1
 468:C:/Users/stapi/OneDrive/Desktop/GD32VW553/V1_MQTT_OK/GD32VW55X_Wifi_BLE_SDK/GD32VW55x_RELEASE_V1.0.2/MSDK/wpa_supplicant/src/ap\wpa_auth_ie.c **** 	}
 1341              		.loc 1 468 10 is_stmt 0
 1342 00da 93E7070C 		ori	a5,a5,192
 1343              	.LVL129:
 1344 00de 71B7     		j	.L98
 1345              	.LVL130:
 1346              	.L96:
 1347              	.LBE239:
 1348              	.LBE271:
 510:C:/Users/stapi/OneDrive/Desktop/GD32VW553/V1_MQTT_OK/GD32VW55X_Wifi_BLE_SDK/GD32VW55x_RELEASE_V1.0.2/MSDK/wpa_supplicant/src/ap\wpa_auth_ie.c **** 		res = wpa_write_rsn_ie(&wpa_auth->conf,
 1349              		.loc 1 510 2 is_stmt 1
 510:C:/Users/stapi/OneDrive/Desktop/GD32VW553/V1_MQTT_OK/GD32VW55X_Wifi_BLE_SDK/GD32VW55x_RELEASE_V1.0.2/MSDK/wpa_supplicant/src/ap\wpa_auth_ie.c **** 		res = wpa_write_rsn_ie(&wpa_auth->conf,
 1350              		.loc 1 510 25 is_stmt 0
 1351 00e0 898B     		andi	a5,a5,2
 1352 00e2 0A84     		mv	s0,sp
 510:C:/Users/stapi/OneDrive/Desktop/GD32VW553/V1_MQTT_OK/GD32VW55X_Wifi_BLE_SDK/GD32VW55x_RELEASE_V1.0.2/MSDK/wpa_supplicant/src/ap\wpa_auth_ie.c **** 		res = wpa_write_rsn_ie(&wpa_auth->conf,
 1353              		.loc 1 510 5
 1354 00e4 D9DB     		beq	a5,zero,.L100
 511:C:/Users/stapi/OneDrive/Desktop/GD32VW553/V1_MQTT_OK/GD32VW55X_Wifi_BLE_SDK/GD32VW55x_RELEASE_V1.0.2/MSDK/wpa_supplicant/src/ap\wpa_auth_ie.c **** 				       pos, buf + sizeof(buf) - pos, NULL);
 1355              		.loc 1 511 3 is_stmt 1
 511:C:/Users/stapi/OneDrive/Desktop/GD32VW553/V1_MQTT_OK/GD32VW55X_Wifi_BLE_SDK/GD32VW55x_RELEASE_V1.0.2/MSDK/wpa_supplicant/src/ap\wpa_auth_ie.c **** 				       pos, buf + sizeof(buf) - pos, NULL);
 1356              		.loc 1 511 9 is_stmt 0
 1357 00e6 13098503 		addi	s2,a0,56
 1358 00ea 8146     		li	a3,0
 1359 00ec 13060008 		li	a2,128
 1360 00f0 A285     		mv	a1,s0
 1361 00f2 4A85     		mv	a0,s2
 1362 00f4 97000000 		call	wpa_write_rsn_ie
 1362      E7800000 
 1363              	.LVL131:
 1364 00fc AA87     		mv	a5,a0
 1365              	.LVL132:
 513:C:/Users/stapi/OneDrive/Desktop/GD32VW553/V1_MQTT_OK/GD32VW55X_Wifi_BLE_SDK/GD32VW55x_RELEASE_V1.0.2/MSDK/wpa_supplicant/src/ap\wpa_auth_ie.c **** 			return res;
 1366              		.loc 1 513 3 is_stmt 1
 513:C:/Users/stapi/OneDrive/Desktop/GD32VW553/V1_MQTT_OK/GD32VW55X_Wifi_BLE_SDK/GD32VW55x_RELEASE_V1.0.2/MSDK/wpa_supplicant/src/ap\wpa_auth_ie.c **** 			return res;
 1367              		.loc 1 513 6 is_stmt 0
 1368 00fe E34805FC 		blt	a0,zero,.L95
 515:C:/Users/stapi/OneDrive/Desktop/GD32VW553/V1_MQTT_OK/GD32VW55X_Wifi_BLE_SDK/GD32VW55x_RELEASE_V1.0.2/MSDK/wpa_supplicant/src/ap\wpa_auth_ie.c **** 		res = wpa_write_rsnxe(&wpa_auth->conf, pos,
 1369              		.loc 1 515 3 is_stmt 1
 515:C:/Users/stapi/OneDrive/Desktop/GD32VW553/V1_MQTT_OK/GD32VW55X_Wifi_BLE_SDK/GD32VW55x_RELEASE_V1.0.2/MSDK/wpa_supplicant/src/ap\wpa_auth_ie.c **** 		res = wpa_write_rsnxe(&wpa_auth->conf, pos,
 1370              		.loc 1 515 7 is_stmt 0
 1371 0102 2A94     		add	s0,s0,a0
 1372              	.LVL133:
 516:C:/Users/stapi/OneDrive/Desktop/GD32VW553/V1_MQTT_OK/GD32VW55X_Wifi_BLE_SDK/GD32VW55x_RELEASE_V1.0.2/MSDK/wpa_supplicant/src/ap\wpa_auth_ie.c **** 				      buf + sizeof(buf) - pos);
 1373              		.loc 1 516 3 is_stmt 1
 516:C:/Users/stapi/OneDrive/Desktop/GD32VW553/V1_MQTT_OK/GD32VW55X_Wifi_BLE_SDK/GD32VW55x_RELEASE_V1.0.2/MSDK/wpa_supplicant/src/ap\wpa_auth_ie.c **** 				      buf + sizeof(buf) - pos);
 1374              		.loc 1 516 9 is_stmt 0
 1375 0104 1C01     		addi	a5,sp,128
 1376 0106 33868740 		sub	a2,a5,s0
 1377 010a A285     		mv	a1,s0
 1378 010c 4A85     		mv	a0,s2
 1379              	.LVL134:
 1380 010e 97000000 		call	wpa_write_rsnxe
 1380      E7800000 
 1381              	.LVL135:
 1382 0116 AA87     		mv	a5,a0
 1383              	.LVL136:
 518:C:/Users/stapi/OneDrive/Desktop/GD32VW553/V1_MQTT_OK/GD32VW55X_Wifi_BLE_SDK/GD32VW55x_RELEASE_V1.0.2/MSDK/wpa_supplicant/src/ap\wpa_auth_ie.c **** 			return res;
 1384              		.loc 1 518 3 is_stmt 1
 518:C:/Users/stapi/OneDrive/Desktop/GD32VW553/V1_MQTT_OK/GD32VW55X_Wifi_BLE_SDK/GD32VW55x_RELEASE_V1.0.2/MSDK/wpa_supplicant/src/ap\wpa_auth_ie.c **** 			return res;
 1385              		.loc 1 518 6 is_stmt 0
 1386 0118 E34B05FA 		blt	a0,zero,.L95
 520:C:/Users/stapi/OneDrive/Desktop/GD32VW553/V1_MQTT_OK/GD32VW55X_Wifi_BLE_SDK/GD32VW55x_RELEASE_V1.0.2/MSDK/wpa_supplicant/src/ap\wpa_auth_ie.c **** 	}
 1387              		.loc 1 520 3 is_stmt 1
 520:C:/Users/stapi/OneDrive/Desktop/GD32VW553/V1_MQTT_OK/GD32VW55X_Wifi_BLE_SDK/GD32VW55x_RELEASE_V1.0.2/MSDK/wpa_supplicant/src/ap\wpa_auth_ie.c **** 	}
 1388              		.loc 1 520 7 is_stmt 0
 1389 011c 2A94     		add	s0,s0,a0
 1390              	.LVL137:
 1391 011e B1BF     		j	.L100
 1392              	.LVL138:
 1393              	.L103:
 1394              	.LBB272:
 1395              	.LBB268:
  47:C:/Users/stapi/OneDrive/Desktop/GD32VW553/V1_MQTT_OK/GD32VW55X_Wifi_BLE_SDK/GD32VW55x_RELEASE_V1.0.2/MSDK/wpa_supplicant/src/ap\wpa_auth_ie.c **** 	pos += WPA_SELECTOR_LEN;
 1396              		.loc 1 47 2 is_stmt 1
 1397              	.LBB251:
 1398              	.LBB252:
 281:..\..\..\..\wpa_supplicant\src/utils/common.h **** 	a[1] = (val >> 16) & 0xff;
 1399              		.loc 2 281 2
 281:..\..\..\..\wpa_supplicant\src/utils/common.h **** 	a[1] = (val >> 16) & 0xff;
 1400              		.loc 2 281 14 is_stmt 0
 1401 0120 93578501 		srli	a5,a0,24
 281:..\..\..\..\wpa_supplicant\src/utils/common.h **** 	a[1] = (val >> 16) & 0xff;
 1402              		.loc 2 281 7
 1403 0124 2304F400 		sb	a5,8(s0)
 282:..\..\..\..\wpa_supplicant\src/utils/common.h **** 	a[2] = (val >> 8) & 0xff;
 1404              		.loc 2 282 2 is_stmt 1
 1405              	.LBE252:
 1406              	.LBE251:
  53:C:/Users/stapi/OneDrive/Desktop/GD32VW553/V1_MQTT_OK/GD32VW55X_Wifi_BLE_SDK/GD32VW55x_RELEASE_V1.0.2/MSDK/wpa_supplicant/src/ap\wpa_auth_ie.c **** 	if (num_suites == 0) {
 1407              		.loc 1 53 15 is_stmt 0
 1408 0128 AC44     		lw	a1,72(s1)
 1409              	.LBB255:
 1410              	.LBB253:
 282:..\..\..\..\wpa_supplicant\src/utils/common.h **** 	a[2] = (val >> 8) & 0xff;
 1411              		.loc 2 282 14
 1412 012a 93570501 		srli	a5,a0,16
 282:..\..\..\..\wpa_supplicant\src/utils/common.h **** 	a[2] = (val >> 8) & 0xff;
 1413              		.loc 2 282 7
 1414 012e A304F400 		sb	a5,9(s0)
 283:..\..\..\..\wpa_supplicant\src/utils/common.h **** 	a[3] = val & 0xff;
 1415              		.loc 2 283 2 is_stmt 1
 1416              	.LBE253:
 1417              	.LBE255:
  51:C:/Users/stapi/OneDrive/Desktop/GD32VW553/V1_MQTT_OK/GD32VW55X_Wifi_BLE_SDK/GD32VW55x_RELEASE_V1.0.2/MSDK/wpa_supplicant/src/ap\wpa_auth_ie.c **** 
 1418              		.loc 1 51 6 is_stmt 0
 1419 0132 1309E400 		addi	s2,s0,14
 1420              	.LBB256:
 1421              	.LBB254:
 283:..\..\..\..\wpa_supplicant\src/utils/common.h **** 	a[3] = val & 0xff;
 1422              		.loc 2 283 14
 1423 0136 93578500 		srli	a5,a0,8
 1424              		.loc 2 284 7
 1425 013a A305A400 		sb	a0,11(s0)
 283:..\..\..\..\wpa_supplicant\src/utils/common.h **** 	a[3] = val & 0xff;
 1426              		.loc 2 283 7
 1427 013e 2305F400 		sb	a5,10(s0)
 1428              		.loc 2 284 2 is_stmt 1
 1429              	.LVL139:
 1430              	.LBE254:
 1431              	.LBE256:
  48:C:/Users/stapi/OneDrive/Desktop/GD32VW553/V1_MQTT_OK/GD32VW55X_Wifi_BLE_SDK/GD32VW55x_RELEASE_V1.0.2/MSDK/wpa_supplicant/src/ap\wpa_auth_ie.c **** 
 1432              		.loc 1 48 2
  50:C:/Users/stapi/OneDrive/Desktop/GD32VW553/V1_MQTT_OK/GD32VW55X_Wifi_BLE_SDK/GD32VW55x_RELEASE_V1.0.2/MSDK/wpa_supplicant/src/ap\wpa_auth_ie.c **** 	pos += 2;
 1433              		.loc 1 50 2
  51:C:/Users/stapi/OneDrive/Desktop/GD32VW553/V1_MQTT_OK/GD32VW55X_Wifi_BLE_SDK/GD32VW55x_RELEASE_V1.0.2/MSDK/wpa_supplicant/src/ap\wpa_auth_ie.c **** 
 1434              		.loc 1 51 2
  53:C:/Users/stapi/OneDrive/Desktop/GD32VW553/V1_MQTT_OK/GD32VW55X_Wifi_BLE_SDK/GD32VW55x_RELEASE_V1.0.2/MSDK/wpa_supplicant/src/ap\wpa_auth_ie.c **** 	if (num_suites == 0) {
 1435              		.loc 1 53 2
  53:C:/Users/stapi/OneDrive/Desktop/GD32VW553/V1_MQTT_OK/GD32VW55X_Wifi_BLE_SDK/GD32VW55x_RELEASE_V1.0.2/MSDK/wpa_supplicant/src/ap\wpa_auth_ie.c **** 	if (num_suites == 0) {
 1436              		.loc 1 53 15 is_stmt 0
 1437 0142 4A85     		mv	a0,s2
 1438              	.LVL140:
 1439 0144 97000000 		call	wpa_cipher_put_suites
 1439      E7800000 
 1440              	.LVL141:
  54:C:/Users/stapi/OneDrive/Desktop/GD32VW553/V1_MQTT_OK/GD32VW55X_Wifi_BLE_SDK/GD32VW55x_RELEASE_V1.0.2/MSDK/wpa_supplicant/src/ap\wpa_auth_ie.c **** 		wpa_printf(MSG_DEBUG, "Invalid pairwise cipher (%d).",
 1441              		.loc 1 54 2 is_stmt 1
  54:C:/Users/stapi/OneDrive/Desktop/GD32VW553/V1_MQTT_OK/GD32VW55X_Wifi_BLE_SDK/GD32VW55x_RELEASE_V1.0.2/MSDK/wpa_supplicant/src/ap\wpa_auth_ie.c **** 		wpa_printf(MSG_DEBUG, "Invalid pairwise cipher (%d).",
 1442              		.loc 1 54 5 is_stmt 0
 1443 014c 19E5     		bne	a0,zero,.L104
  55:C:/Users/stapi/OneDrive/Desktop/GD32VW553/V1_MQTT_OK/GD32VW55X_Wifi_BLE_SDK/GD32VW55x_RELEASE_V1.0.2/MSDK/wpa_supplicant/src/ap\wpa_auth_ie.c **** 			   conf->wpa_pairwise);
 1444              		.loc 1 55 3 is_stmt 1
 1445 014e B7050000 		lui	a1,%hi(.LC1)
 1446 0152 B044     		lw	a2,72(s1)
 1447 0154 93850500 		addi	a1,a1,%lo(.LC1)
 1448 0158 ADB7     		j	.L119
 1449              	.L104:
  59:C:/Users/stapi/OneDrive/Desktop/GD32VW553/V1_MQTT_OK/GD32VW55X_Wifi_BLE_SDK/GD32VW55x_RELEASE_V1.0.2/MSDK/wpa_supplicant/src/ap\wpa_auth_ie.c **** 	WPA_PUT_LE16(count, num_suites);
 1450              		.loc 1 59 2
  66:C:/Users/stapi/OneDrive/Desktop/GD32VW553/V1_MQTT_OK/GD32VW55X_Wifi_BLE_SDK/GD32VW55x_RELEASE_V1.0.2/MSDK/wpa_supplicant/src/ap\wpa_auth_ie.c **** 		RSN_SELECTOR_PUT(pos, WPA_AUTH_KEY_MGMT_UNSPEC_802_1X);
 1451              		.loc 1 66 10 is_stmt 0
 1452 015a F040     		lw	a2,68(s1)
 1453              	.LBB257:
 1454              	.LBB258:
 258:..\..\..\..\wpa_supplicant\src/utils/common.h **** 	a[0] = val & 0xff;
 1455              		.loc 2 258 7
 1456 015c 33470508 		zext.h	a4,a0
 1457 0160 2183     		srli	a4,a4,8
 1458 0162 A306E400 		sb	a4,13(s0)
 259:..\..\..\..\wpa_supplicant\src/utils/common.h **** }
 1459              		.loc 2 259 7
 1460 0166 2306A400 		sb	a0,12(s0)
 1461              	.LBE258:
 1462              	.LBE257:
  66:C:/Users/stapi/OneDrive/Desktop/GD32VW553/V1_MQTT_OK/GD32VW55X_Wifi_BLE_SDK/GD32VW55x_RELEASE_V1.0.2/MSDK/wpa_supplicant/src/ap\wpa_auth_ie.c **** 		RSN_SELECTOR_PUT(pos, WPA_AUTH_KEY_MGMT_UNSPEC_802_1X);
 1463              		.loc 1 66 25
 1464 016a 13771600 		andi	a4,a2,1
  59:C:/Users/stapi/OneDrive/Desktop/GD32VW553/V1_MQTT_OK/GD32VW55X_Wifi_BLE_SDK/GD32VW55x_RELEASE_V1.0.2/MSDK/wpa_supplicant/src/ap\wpa_auth_ie.c **** 	WPA_PUT_LE16(count, num_suites);
 1465              		.loc 1 59 6
 1466 016e B3472521 		sh2add	a5,a0,s2
 1467              	.LVL142:
  60:C:/Users/stapi/OneDrive/Desktop/GD32VW553/V1_MQTT_OK/GD32VW55X_Wifi_BLE_SDK/GD32VW55x_RELEASE_V1.0.2/MSDK/wpa_supplicant/src/ap\wpa_auth_ie.c **** 
 1468              		.loc 1 60 2 is_stmt 1
 1469              	.LBB260:
 1470              	.LBB259:
 258:..\..\..\..\wpa_supplicant\src/utils/common.h **** 	a[0] = val & 0xff;
 1471              		.loc 2 258 2
 259:..\..\..\..\wpa_supplicant\src/utils/common.h **** }
 1472              		.loc 2 259 2
 1473              	.LBE259:
 1474              	.LBE260:
  62:C:/Users/stapi/OneDrive/Desktop/GD32VW553/V1_MQTT_OK/GD32VW55X_Wifi_BLE_SDK/GD32VW55x_RELEASE_V1.0.2/MSDK/wpa_supplicant/src/ap\wpa_auth_ie.c **** 	count = pos;
 1475              		.loc 1 62 2
  63:C:/Users/stapi/OneDrive/Desktop/GD32VW553/V1_MQTT_OK/GD32VW55X_Wifi_BLE_SDK/GD32VW55x_RELEASE_V1.0.2/MSDK/wpa_supplicant/src/ap\wpa_auth_ie.c **** 	pos += 2;
 1476              		.loc 1 63 2
  64:C:/Users/stapi/OneDrive/Desktop/GD32VW553/V1_MQTT_OK/GD32VW55X_Wifi_BLE_SDK/GD32VW55x_RELEASE_V1.0.2/MSDK/wpa_supplicant/src/ap\wpa_auth_ie.c **** 
 1477              		.loc 1 64 2
  66:C:/Users/stapi/OneDrive/Desktop/GD32VW553/V1_MQTT_OK/GD32VW55X_Wifi_BLE_SDK/GD32VW55x_RELEASE_V1.0.2/MSDK/wpa_supplicant/src/ap\wpa_auth_ie.c **** 		RSN_SELECTOR_PUT(pos, WPA_AUTH_KEY_MGMT_UNSPEC_802_1X);
 1478              		.loc 1 66 2
  64:C:/Users/stapi/OneDrive/Desktop/GD32VW553/V1_MQTT_OK/GD32VW55X_Wifi_BLE_SDK/GD32VW55x_RELEASE_V1.0.2/MSDK/wpa_supplicant/src/ap\wpa_auth_ie.c **** 
 1479              		.loc 1 64 6 is_stmt 0
 1480 0172 13892700 		addi	s2,a5,2
 1481              	.LVL143:
  66:C:/Users/stapi/OneDrive/Desktop/GD32VW553/V1_MQTT_OK/GD32VW55X_Wifi_BLE_SDK/GD32VW55x_RELEASE_V1.0.2/MSDK/wpa_supplicant/src/ap\wpa_auth_ie.c **** 		RSN_SELECTOR_PUT(pos, WPA_AUTH_KEY_MGMT_UNSPEC_802_1X);
 1482              		.loc 1 66 5
 1483 0176 01CF     		beq	a4,zero,.L106
  67:C:/Users/stapi/OneDrive/Desktop/GD32VW553/V1_MQTT_OK/GD32VW55X_Wifi_BLE_SDK/GD32VW55x_RELEASE_V1.0.2/MSDK/wpa_supplicant/src/ap\wpa_auth_ie.c **** 		pos += WPA_SELECTOR_LEN;
 1484              		.loc 1 67 3 is_stmt 1
 1485              	.LVL144:
 1486              	.LBB261:
 1487              	.LBB262:
 281:..\..\..\..\wpa_supplicant\src/utils/common.h **** 	a[1] = (val >> 16) & 0xff;
 1488              		.loc 2 281 2
 281:..\..\..\..\wpa_supplicant\src/utils/common.h **** 	a[1] = (val >> 16) & 0xff;
 1489              		.loc 2 281 7 is_stmt 0
 1490 0178 23810700 		sb	zero,2(a5)
 282:..\..\..\..\wpa_supplicant\src/utils/common.h **** 	a[2] = (val >> 8) & 0xff;
 1491              		.loc 2 282 2 is_stmt 1
 282:..\..\..\..\wpa_supplicant\src/utils/common.h **** 	a[2] = (val >> 8) & 0xff;
 1492              		.loc 2 282 7 is_stmt 0
 1493 017c A3815701 		sb	s5,3(a5)
 283:..\..\..\..\wpa_supplicant\src/utils/common.h **** 	a[3] = val & 0xff;
 1494              		.loc 2 283 2 is_stmt 1
 283:..\..\..\..\wpa_supplicant\src/utils/common.h **** 	a[3] = val & 0xff;
 1495              		.loc 2 283 7 is_stmt 0
 1496 0180 23824701 		sb	s4,4(a5)
 1497              		.loc 2 284 2 is_stmt 1
 1498              		.loc 2 284 7 is_stmt 0
 1499 0184 A3823701 		sb	s3,5(a5)
 1500              	.LVL145:
 1501              	.LBE262:
 1502              	.LBE261:
  68:C:/Users/stapi/OneDrive/Desktop/GD32VW553/V1_MQTT_OK/GD32VW55X_Wifi_BLE_SDK/GD32VW55x_RELEASE_V1.0.2/MSDK/wpa_supplicant/src/ap\wpa_auth_ie.c **** 		num_suites++;
 1503              		.loc 1 68 3 is_stmt 1
  68:C:/Users/stapi/OneDrive/Desktop/GD32VW553/V1_MQTT_OK/GD32VW55X_Wifi_BLE_SDK/GD32VW55x_RELEASE_V1.0.2/MSDK/wpa_supplicant/src/ap\wpa_auth_ie.c **** 		num_suites++;
 1504              		.loc 1 68 7 is_stmt 0
 1505 0188 13896700 		addi	s2,a5,6
 1506              	.LVL146:
  69:C:/Users/stapi/OneDrive/Desktop/GD32VW553/V1_MQTT_OK/GD32VW55X_Wifi_BLE_SDK/GD32VW55x_RELEASE_V1.0.2/MSDK/wpa_supplicant/src/ap\wpa_auth_ie.c **** 	}
 1507              		.loc 1 69 3 is_stmt 1
  69:C:/Users/stapi/OneDrive/Desktop/GD32VW553/V1_MQTT_OK/GD32VW55X_Wifi_BLE_SDK/GD32VW55x_RELEASE_V1.0.2/MSDK/wpa_supplicant/src/ap\wpa_auth_ie.c **** 	}
 1508              		.loc 1 69 13 is_stmt 0
 1509 018c 0547     		li	a4,1
 1510              	.LVL147:
 1511              	.L106:
  71:C:/Users/stapi/OneDrive/Desktop/GD32VW553/V1_MQTT_OK/GD32VW55X_Wifi_BLE_SDK/GD32VW55x_RELEASE_V1.0.2/MSDK/wpa_supplicant/src/ap\wpa_auth_ie.c **** 		RSN_SELECTOR_PUT(pos, WPA_AUTH_KEY_MGMT_PSK_OVER_802_1X);
 1512              		.loc 1 71 2 is_stmt 1
  71:C:/Users/stapi/OneDrive/Desktop/GD32VW553/V1_MQTT_OK/GD32VW55X_Wifi_BLE_SDK/GD32VW55x_RELEASE_V1.0.2/MSDK/wpa_supplicant/src/ap\wpa_auth_ie.c **** 		RSN_SELECTOR_PUT(pos, WPA_AUTH_KEY_MGMT_PSK_OVER_802_1X);
 1513              		.loc 1 71 25 is_stmt 0
 1514 018e 93762600 		andi	a3,a2,2
  71:C:/Users/stapi/OneDrive/Desktop/GD32VW553/V1_MQTT_OK/GD32VW55X_Wifi_BLE_SDK/GD32VW55x_RELEASE_V1.0.2/MSDK/wpa_supplicant/src/ap\wpa_auth_ie.c **** 		RSN_SELECTOR_PUT(pos, WPA_AUTH_KEY_MGMT_PSK_OVER_802_1X);
 1515              		.loc 1 71 5
 1516 0192 A5CA     		beq	a3,zero,.L107
  72:C:/Users/stapi/OneDrive/Desktop/GD32VW553/V1_MQTT_OK/GD32VW55X_Wifi_BLE_SDK/GD32VW55x_RELEASE_V1.0.2/MSDK/wpa_supplicant/src/ap\wpa_auth_ie.c **** 		pos += WPA_SELECTOR_LEN;
 1517              		.loc 1 72 3 is_stmt 1
 1518              	.LVL148:
 1519              	.LBB263:
 1520              	.LBB264:
 281:..\..\..\..\wpa_supplicant\src/utils/common.h **** 	a[1] = (val >> 16) & 0xff;
 1521              		.loc 2 281 2
 282:..\..\..\..\wpa_supplicant\src/utils/common.h **** 	a[2] = (val >> 8) & 0xff;
 1522              		.loc 2 282 7 is_stmt 0
 1523 0194 93060005 		li	a3,80
 1524 0198 A300D900 		sb	a3,1(s2)
 283:..\..\..\..\wpa_supplicant\src/utils/common.h **** 	a[3] = val & 0xff;
 1525              		.loc 2 283 7
 1526 019c C956     		li	a3,-14
 1527 019e 2301D900 		sb	a3,2(s2)
 1528              		.loc 2 284 7
 1529 01a2 8946     		li	a3,2
 281:..\..\..\..\wpa_supplicant\src/utils/common.h **** 	a[1] = (val >> 16) & 0xff;
 1530              		.loc 2 281 7
 1531 01a4 23000900 		sb	zero,0(s2)
 282:..\..\..\..\wpa_supplicant\src/utils/common.h **** 	a[2] = (val >> 8) & 0xff;
 1532              		.loc 2 282 2 is_stmt 1
 283:..\..\..\..\wpa_supplicant\src/utils/common.h **** 	a[3] = val & 0xff;
 1533              		.loc 2 283 2
 1534              		.loc 2 284 2
 1535              		.loc 2 284 7 is_stmt 0
 1536 01a8 A301D900 		sb	a3,3(s2)
 1537              	.LVL149:
 1538              	.LBE264:
 1539              	.LBE263:
  73:C:/Users/stapi/OneDrive/Desktop/GD32VW553/V1_MQTT_OK/GD32VW55X_Wifi_BLE_SDK/GD32VW55x_RELEASE_V1.0.2/MSDK/wpa_supplicant/src/ap\wpa_auth_ie.c **** 		num_suites++;
 1540              		.loc 1 73 3 is_stmt 1
  74:C:/Users/stapi/OneDrive/Desktop/GD32VW553/V1_MQTT_OK/GD32VW55X_Wifi_BLE_SDK/GD32VW55x_RELEASE_V1.0.2/MSDK/wpa_supplicant/src/ap\wpa_auth_ie.c **** 	}
 1541              		.loc 1 74 13 is_stmt 0
 1542 01ac 0507     		addi	a4,a4,1
 1543              	.LVL150:
  73:C:/Users/stapi/OneDrive/Desktop/GD32VW553/V1_MQTT_OK/GD32VW55X_Wifi_BLE_SDK/GD32VW55x_RELEASE_V1.0.2/MSDK/wpa_supplicant/src/ap\wpa_auth_ie.c **** 		num_suites++;
 1544              		.loc 1 73 7
 1545 01ae 1109     		addi	s2,s2,4
 1546              	.LVL151:
  74:C:/Users/stapi/OneDrive/Desktop/GD32VW553/V1_MQTT_OK/GD32VW55X_Wifi_BLE_SDK/GD32VW55x_RELEASE_V1.0.2/MSDK/wpa_supplicant/src/ap\wpa_auth_ie.c **** 	}
 1547              		.loc 1 74 3 is_stmt 1
  77:C:/Users/stapi/OneDrive/Desktop/GD32VW553/V1_MQTT_OK/GD32VW55X_Wifi_BLE_SDK/GD32VW55x_RELEASE_V1.0.2/MSDK/wpa_supplicant/src/ap\wpa_auth_ie.c **** 		wpa_printf(MSG_DEBUG, "Invalid key management type (%d).",
 1548              		.loc 1 77 2
 1549              	.L108:
  82:C:/Users/stapi/OneDrive/Desktop/GD32VW553/V1_MQTT_OK/GD32VW55X_Wifi_BLE_SDK/GD32VW55x_RELEASE_V1.0.2/MSDK/wpa_supplicant/src/ap\wpa_auth_ie.c **** 
 1550              		.loc 1 82 2
 1551              	.LBB265:
 1552              	.LBB266:
 258:..\..\..\..\wpa_supplicant\src/utils/common.h **** 	a[0] = val & 0xff;
 1553              		.loc 2 258 2
 259:..\..\..\..\wpa_supplicant\src/utils/common.h **** }
 1554              		.loc 2 259 7 is_stmt 0
 1555 01b0 2380E700 		sb	a4,0(a5)
 258:..\..\..\..\wpa_supplicant\src/utils/common.h **** 	a[0] = val & 0xff;
 1556              		.loc 2 258 7
 1557 01b4 A3800700 		sb	zero,1(a5)
 259:..\..\..\..\wpa_supplicant\src/utils/common.h **** }
 1558              		.loc 2 259 2 is_stmt 1
 1559              	.LVL152:
 1560              	.LBE266:
 1561              	.LBE265:
  86:C:/Users/stapi/OneDrive/Desktop/GD32VW553/V1_MQTT_OK/GD32VW55X_Wifi_BLE_SDK/GD32VW55x_RELEASE_V1.0.2/MSDK/wpa_supplicant/src/ap\wpa_auth_ie.c **** 
 1562              		.loc 1 86 2
  86:C:/Users/stapi/OneDrive/Desktop/GD32VW553/V1_MQTT_OK/GD32VW55X_Wifi_BLE_SDK/GD32VW55x_RELEASE_V1.0.2/MSDK/wpa_supplicant/src/ap\wpa_auth_ie.c **** 
 1563              		.loc 1 86 18 is_stmt 0
 1564 01b8 B3078940 		sub	a5,s2,s0
 1565              	.LVL153:
  86:C:/Users/stapi/OneDrive/Desktop/GD32VW553/V1_MQTT_OK/GD32VW55X_Wifi_BLE_SDK/GD32VW55x_RELEASE_V1.0.2/MSDK/wpa_supplicant/src/ap\wpa_auth_ie.c **** 
 1566              		.loc 1 86 25
 1567 01bc 1387E7FF 		addi	a4,a5,-2
 1568              	.LVL154:
  86:C:/Users/stapi/OneDrive/Desktop/GD32VW553/V1_MQTT_OK/GD32VW55X_Wifi_BLE_SDK/GD32VW55x_RELEASE_V1.0.2/MSDK/wpa_supplicant/src/ap\wpa_auth_ie.c **** 
 1569              		.loc 1 86 11
 1570 01c0 A300E400 		sb	a4,1(s0)
  88:C:/Users/stapi/OneDrive/Desktop/GD32VW553/V1_MQTT_OK/GD32VW55X_Wifi_BLE_SDK/GD32VW55x_RELEASE_V1.0.2/MSDK/wpa_supplicant/src/ap\wpa_auth_ie.c **** }
 1571              		.loc 1 88 2 is_stmt 1
 1572              	.LVL155:
 1573              	.LBE268:
 1574              	.LBE272:
 534:C:/Users/stapi/OneDrive/Desktop/GD32VW553/V1_MQTT_OK/GD32VW55X_Wifi_BLE_SDK/GD32VW55x_RELEASE_V1.0.2/MSDK/wpa_supplicant/src/ap\wpa_auth_ie.c **** 			return res;
 1575              		.loc 1 534 3
 534:C:/Users/stapi/OneDrive/Desktop/GD32VW553/V1_MQTT_OK/GD32VW55X_Wifi_BLE_SDK/GD32VW55x_RELEASE_V1.0.2/MSDK/wpa_supplicant/src/ap\wpa_auth_ie.c **** 			return res;
 1576              		.loc 1 534 6 is_stmt 0
 1577 01c4 E3C507F0 		blt	a5,zero,.L95
 1578              	.LVL156:
 1579              	.L102:
 539:C:/Users/stapi/OneDrive/Desktop/GD32VW553/V1_MQTT_OK/GD32VW55X_Wifi_BLE_SDK/GD32VW55x_RELEASE_V1.0.2/MSDK/wpa_supplicant/src/ap\wpa_auth_ie.c **** 	wpa_auth->wpa_ie = os_malloc(pos - buf);
 1580              		.loc 1 539 2 is_stmt 1
 1581 01c8 03A5040D 		lw	a0,208(s1)
 1582 01cc 97000000 		call	os_free
 1582      E7800000 
 1583              	.LVL157:
 540:C:/Users/stapi/OneDrive/Desktop/GD32VW553/V1_MQTT_OK/GD32VW55X_Wifi_BLE_SDK/GD32VW55x_RELEASE_V1.0.2/MSDK/wpa_supplicant/src/ap\wpa_auth_ie.c **** 	if (wpa_auth->wpa_ie == NULL)
 1584              		.loc 1 540 2
 540:C:/Users/stapi/OneDrive/Desktop/GD32VW553/V1_MQTT_OK/GD32VW55X_Wifi_BLE_SDK/GD32VW55x_RELEASE_V1.0.2/MSDK/wpa_supplicant/src/ap\wpa_auth_ie.c **** 	if (wpa_auth->wpa_ie == NULL)
 1585              		.loc 1 540 35 is_stmt 0
 1586 01d4 8A85     		mv	a1,sp
 1587 01d6 3309B940 		sub	s2,s2,a1
 540:C:/Users/stapi/OneDrive/Desktop/GD32VW553/V1_MQTT_OK/GD32VW55X_Wifi_BLE_SDK/GD32VW55x_RELEASE_V1.0.2/MSDK/wpa_supplicant/src/ap\wpa_auth_ie.c **** 	if (wpa_auth->wpa_ie == NULL)
 1588              		.loc 1 540 21
 1589 01da 4A85     		mv	a0,s2
 1590 01dc 97000000 		call	os_malloc
 1590      E7800000 
 1591              	.LVL158:
 540:C:/Users/stapi/OneDrive/Desktop/GD32VW553/V1_MQTT_OK/GD32VW55X_Wifi_BLE_SDK/GD32VW55x_RELEASE_V1.0.2/MSDK/wpa_supplicant/src/ap\wpa_auth_ie.c **** 	if (wpa_auth->wpa_ie == NULL)
 1592              		.loc 1 540 19
 1593 01e4 23A8A40C 		sw	a0,208(s1)
 541:C:/Users/stapi/OneDrive/Desktop/GD32VW553/V1_MQTT_OK/GD32VW55X_Wifi_BLE_SDK/GD32VW55x_RELEASE_V1.0.2/MSDK/wpa_supplicant/src/ap\wpa_auth_ie.c **** 		return -1;
 1594              		.loc 1 541 2 is_stmt 1
 542:C:/Users/stapi/OneDrive/Desktop/GD32VW553/V1_MQTT_OK/GD32VW55X_Wifi_BLE_SDK/GD32VW55x_RELEASE_V1.0.2/MSDK/wpa_supplicant/src/ap\wpa_auth_ie.c **** 	os_memcpy(wpa_auth->wpa_ie, buf, pos - buf);
 1595              		.loc 1 542 10 is_stmt 0
 1596 01e8 FD57     		li	a5,-1
 541:C:/Users/stapi/OneDrive/Desktop/GD32VW553/V1_MQTT_OK/GD32VW55X_Wifi_BLE_SDK/GD32VW55x_RELEASE_V1.0.2/MSDK/wpa_supplicant/src/ap\wpa_auth_ie.c **** 		return -1;
 1597              		.loc 1 541 5
 1598 01ea E30205EE 		beq	a0,zero,.L95
 543:C:/Users/stapi/OneDrive/Desktop/GD32VW553/V1_MQTT_OK/GD32VW55X_Wifi_BLE_SDK/GD32VW55x_RELEASE_V1.0.2/MSDK/wpa_supplicant/src/ap\wpa_auth_ie.c **** 	wpa_auth->wpa_ie_len = pos - buf;
 1599              		.loc 1 543 2 is_stmt 1
 1600 01ee 4A86     		mv	a2,s2
 1601 01f0 8A85     		mv	a1,sp
 1602 01f2 97000000 		call	os_memcpy
 1602      E7800000 
 1603              	.LVL159:
 544:C:/Users/stapi/OneDrive/Desktop/GD32VW553/V1_MQTT_OK/GD32VW55X_Wifi_BLE_SDK/GD32VW55x_RELEASE_V1.0.2/MSDK/wpa_supplicant/src/ap\wpa_auth_ie.c **** 
 1604              		.loc 1 544 2
 546:C:/Users/stapi/OneDrive/Desktop/GD32VW553/V1_MQTT_OK/GD32VW55X_Wifi_BLE_SDK/GD32VW55x_RELEASE_V1.0.2/MSDK/wpa_supplicant/src/ap\wpa_auth_ie.c **** }
 1605              		.loc 1 546 9 is_stmt 0
 1606 01fa 8147     		li	a5,0
 544:C:/Users/stapi/OneDrive/Desktop/GD32VW553/V1_MQTT_OK/GD32VW55X_Wifi_BLE_SDK/GD32VW55x_RELEASE_V1.0.2/MSDK/wpa_supplicant/src/ap\wpa_auth_ie.c **** 
 1607              		.loc 1 544 23
 1608 01fc 23AA240D 		sw	s2,212(s1)
 546:C:/Users/stapi/OneDrive/Desktop/GD32VW553/V1_MQTT_OK/GD32VW55X_Wifi_BLE_SDK/GD32VW55x_RELEASE_V1.0.2/MSDK/wpa_supplicant/src/ap\wpa_auth_ie.c **** }
 1609              		.loc 1 546 2 is_stmt 1
 546:C:/Users/stapi/OneDrive/Desktop/GD32VW553/V1_MQTT_OK/GD32VW55X_Wifi_BLE_SDK/GD32VW55x_RELEASE_V1.0.2/MSDK/wpa_supplicant/src/ap\wpa_auth_ie.c **** }
 1610              		.loc 1 546 9 is_stmt 0
 1611 0200 F9B5     		j	.L95
 1612              	.LVL160:
 1613              	.L107:
 1614              	.LBB273:
 1615              	.LBB269:
  77:C:/Users/stapi/OneDrive/Desktop/GD32VW553/V1_MQTT_OK/GD32VW55X_Wifi_BLE_SDK/GD32VW55x_RELEASE_V1.0.2/MSDK/wpa_supplicant/src/ap\wpa_auth_ie.c **** 		wpa_printf(MSG_DEBUG, "Invalid key management type (%d).",
 1616              		.loc 1 77 2 is_stmt 1
  77:C:/Users/stapi/OneDrive/Desktop/GD32VW553/V1_MQTT_OK/GD32VW55X_Wifi_BLE_SDK/GD32VW55x_RELEASE_V1.0.2/MSDK/wpa_supplicant/src/ap\wpa_auth_ie.c **** 		wpa_printf(MSG_DEBUG, "Invalid key management type (%d).",
 1617              		.loc 1 77 5 is_stmt 0
 1618 0202 5DF7     		bne	a4,zero,.L108
 1619              	.LVL161:
  78:C:/Users/stapi/OneDrive/Desktop/GD32VW553/V1_MQTT_OK/GD32VW55X_Wifi_BLE_SDK/GD32VW55x_RELEASE_V1.0.2/MSDK/wpa_supplicant/src/ap\wpa_auth_ie.c **** 			   conf->wpa_key_mgmt);
 1620              		.loc 1 78 3 is_stmt 1
 1621 0204 B7050000 		lui	a1,%hi(.LC2)
 1622 0208 93850500 		addi	a1,a1,%lo(.LC2)
 1623 020c 5DBD     		j	.L119
 1624              	.LVL162:
 1625              	.L111:
 1626              	.LBE269:
 1627              	.LBE273:
 1628 020e 2289     		mv	s2,s0
 1629 0210 65BF     		j	.L102
 1630              		.cfi_endproc
 1631              	.LFE141:
 1633              		.section	.text.wpa_add_kde,"ax",@progbits
 1634              		.align	1
 1635              		.globl	wpa_add_kde
 1637              	wpa_add_kde:
 1638              	.LFB142:
 552:C:/Users/stapi/OneDrive/Desktop/GD32VW553/V1_MQTT_OK/GD32VW55X_Wifi_BLE_SDK/GD32VW55x_RELEASE_V1.0.2/MSDK/wpa_supplicant/src/ap\wpa_auth_ie.c **** 	*pos++ = WLAN_EID_VENDOR_SPECIFIC;
 1639              		.loc 1 552 1
 1640              		.cfi_startproc
 1641              	.LVL163:
 1642 0000 17030000 		call	t0,__riscv_save_4
 1642      E7020300 
 1643              		.cfi_offset 19, -20
 1644              		.cfi_offset 18, -16
 1645              		.cfi_offset 9, -12
 1646              		.cfi_offset 8, -8
 1647              		.cfi_offset 1, -4
 1648              		.cfi_def_cfa_offset 32
 553:C:/Users/stapi/OneDrive/Desktop/GD32VW553/V1_MQTT_OK/GD32VW55X_Wifi_BLE_SDK/GD32VW55x_RELEASE_V1.0.2/MSDK/wpa_supplicant/src/ap\wpa_auth_ie.c **** 	*pos++ = RSN_SELECTOR_LEN + data_len + data2_len;
 1649              		.loc 1 553 2
 1650              	.LVL164:
 552:C:/Users/stapi/OneDrive/Desktop/GD32VW553/V1_MQTT_OK/GD32VW55X_Wifi_BLE_SDK/GD32VW55x_RELEASE_V1.0.2/MSDK/wpa_supplicant/src/ap\wpa_auth_ie.c **** 	*pos++ = WLAN_EID_VENDOR_SPECIFIC;
 1651              		.loc 1 552 1 is_stmt 0
 1652 0008 BE84     		mv	s1,a5
 553:C:/Users/stapi/OneDrive/Desktop/GD32VW553/V1_MQTT_OK/GD32VW55X_Wifi_BLE_SDK/GD32VW55x_RELEASE_V1.0.2/MSDK/wpa_supplicant/src/ap\wpa_auth_ie.c **** 	*pos++ = RSN_SELECTOR_LEN + data_len + data2_len;
 1653              		.loc 1 553 9
 1654 000a 9307D0FD 		li	a5,-35
 1655              	.LVL165:
 1656 000e 2300F500 		sb	a5,0(a0)
 554:C:/Users/stapi/OneDrive/Desktop/GD32VW553/V1_MQTT_OK/GD32VW55X_Wifi_BLE_SDK/GD32VW55x_RELEASE_V1.0.2/MSDK/wpa_supplicant/src/ap\wpa_auth_ie.c **** 	RSN_SELECTOR_PUT(pos, kde);
 1657              		.loc 1 554 2 is_stmt 1
 1658              	.LVL166:
 554:C:/Users/stapi/OneDrive/Desktop/GD32VW553/V1_MQTT_OK/GD32VW55X_Wifi_BLE_SDK/GD32VW55x_RELEASE_V1.0.2/MSDK/wpa_supplicant/src/ap\wpa_auth_ie.c **** 	RSN_SELECTOR_PUT(pos, kde);
 1659              		.loc 1 554 39 is_stmt 0
 1660 0012 93874400 		addi	a5,s1,4
 552:C:/Users/stapi/OneDrive/Desktop/GD32VW553/V1_MQTT_OK/GD32VW55X_Wifi_BLE_SDK/GD32VW55x_RELEASE_V1.0.2/MSDK/wpa_supplicant/src/ap\wpa_auth_ie.c **** 	*pos++ = WLAN_EID_VENDOR_SPECIFIC;
 1661              		.loc 1 552 1
 1662 0016 2E88     		mv	a6,a1
 554:C:/Users/stapi/OneDrive/Desktop/GD32VW553/V1_MQTT_OK/GD32VW55X_Wifi_BLE_SDK/GD32VW55x_RELEASE_V1.0.2/MSDK/wpa_supplicant/src/ap\wpa_auth_ie.c **** 	RSN_SELECTOR_PUT(pos, kde);
 1663              		.loc 1 554 39
 1664 0018 B697     		add	a5,a5,a3
 554:C:/Users/stapi/OneDrive/Desktop/GD32VW553/V1_MQTT_OK/GD32VW55X_Wifi_BLE_SDK/GD32VW55x_RELEASE_V1.0.2/MSDK/wpa_supplicant/src/ap\wpa_auth_ie.c **** 	RSN_SELECTOR_PUT(pos, kde);
 1665              		.loc 1 554 9
 1666 001a A300F500 		sb	a5,1(a0)
 555:C:/Users/stapi/OneDrive/Desktop/GD32VW553/V1_MQTT_OK/GD32VW55X_Wifi_BLE_SDK/GD32VW55x_RELEASE_V1.0.2/MSDK/wpa_supplicant/src/ap\wpa_auth_ie.c **** 	pos += RSN_SELECTOR_LEN;
 1667              		.loc 1 555 2 is_stmt 1
 1668              	.LVL167:
 1669              	.LBB276:
 1670              	.LBB277:
 281:..\..\..\..\wpa_supplicant\src/utils/common.h **** 	a[1] = (val >> 16) & 0xff;
 1671              		.loc 2 281 2
 281:..\..\..\..\wpa_supplicant\src/utils/common.h **** 	a[1] = (val >> 16) & 0xff;
 1672              		.loc 2 281 14 is_stmt 0
 1673 001e 93578801 		srli	a5,a6,24
 281:..\..\..\..\wpa_supplicant\src/utils/common.h **** 	a[1] = (val >> 16) & 0xff;
 1674              		.loc 2 281 7
 1675 0022 2301F500 		sb	a5,2(a0)
 282:..\..\..\..\wpa_supplicant\src/utils/common.h **** 	a[2] = (val >> 8) & 0xff;
 1676              		.loc 2 282 2 is_stmt 1
 282:..\..\..\..\wpa_supplicant\src/utils/common.h **** 	a[2] = (val >> 8) & 0xff;
 1677              		.loc 2 282 14 is_stmt 0
 1678 0026 93570801 		srli	a5,a6,16
 282:..\..\..\..\wpa_supplicant\src/utils/common.h **** 	a[2] = (val >> 8) & 0xff;
 1679              		.loc 2 282 7
 1680 002a A301F500 		sb	a5,3(a0)
 283:..\..\..\..\wpa_supplicant\src/utils/common.h **** 	a[3] = val & 0xff;
 1681              		.loc 2 283 2 is_stmt 1
 1682              	.LBE277:
 1683              	.LBE276:
 556:C:/Users/stapi/OneDrive/Desktop/GD32VW553/V1_MQTT_OK/GD32VW55X_Wifi_BLE_SDK/GD32VW55x_RELEASE_V1.0.2/MSDK/wpa_supplicant/src/ap\wpa_auth_ie.c **** 	os_memcpy(pos, data, data_len);
 1684              		.loc 1 556 6 is_stmt 0
 1685 002e 13046500 		addi	s0,a0,6
 1686              	.LBB280:
 1687              	.LBB278:
 283:..\..\..\..\wpa_supplicant\src/utils/common.h **** 	a[3] = val & 0xff;
 1688              		.loc 2 283 14
 1689 0032 93578800 		srli	a5,a6,8
 1690              	.LBE278:
 1691              	.LBE280:
 552:C:/Users/stapi/OneDrive/Desktop/GD32VW553/V1_MQTT_OK/GD32VW55X_Wifi_BLE_SDK/GD32VW55x_RELEASE_V1.0.2/MSDK/wpa_supplicant/src/ap\wpa_auth_ie.c **** 	*pos++ = WLAN_EID_VENDOR_SPECIFIC;
 1692              		.loc 1 552 1
 1693 0036 B285     		mv	a1,a2
 1694              	.LVL168:
 1695 0038 3689     		mv	s2,a3
 1696              	.LBB281:
 1697              	.LBB279:
 283:..\..\..\..\wpa_supplicant\src/utils/common.h **** 	a[3] = val & 0xff;
 1698              		.loc 2 283 7
 1699 003a 2302F500 		sb	a5,4(a0)
 1700              		.loc 2 284 2 is_stmt 1
 1701              		.loc 2 284 7 is_stmt 0
 1702 003e A3020501 		sb	a6,5(a0)
 1703              	.LVL169:
 1704              	.LBE279:
 1705              	.LBE281:
 556:C:/Users/stapi/OneDrive/Desktop/GD32VW553/V1_MQTT_OK/GD32VW55X_Wifi_BLE_SDK/GD32VW55x_RELEASE_V1.0.2/MSDK/wpa_supplicant/src/ap\wpa_auth_ie.c **** 	os_memcpy(pos, data, data_len);
 1706              		.loc 1 556 2 is_stmt 1
 557:C:/Users/stapi/OneDrive/Desktop/GD32VW553/V1_MQTT_OK/GD32VW55X_Wifi_BLE_SDK/GD32VW55x_RELEASE_V1.0.2/MSDK/wpa_supplicant/src/ap\wpa_auth_ie.c **** 	pos += data_len;
 1707              		.loc 1 557 2
 552:C:/Users/stapi/OneDrive/Desktop/GD32VW553/V1_MQTT_OK/GD32VW55X_Wifi_BLE_SDK/GD32VW55x_RELEASE_V1.0.2/MSDK/wpa_supplicant/src/ap\wpa_auth_ie.c **** 	*pos++ = WLAN_EID_VENDOR_SPECIFIC;
 1708              		.loc 1 552 1 is_stmt 0
 1709 0042 BA89     		mv	s3,a4
 557:C:/Users/stapi/OneDrive/Desktop/GD32VW553/V1_MQTT_OK/GD32VW55X_Wifi_BLE_SDK/GD32VW55x_RELEASE_V1.0.2/MSDK/wpa_supplicant/src/ap\wpa_auth_ie.c **** 	pos += data_len;
 1710              		.loc 1 557 2
 1711 0044 2285     		mv	a0,s0
 1712 0046 3686     		mv	a2,a3
 1713              	.LVL170:
 1714 0048 97000000 		call	os_memcpy
 1714      E7800000 
 1715              	.LVL171:
 558:C:/Users/stapi/OneDrive/Desktop/GD32VW553/V1_MQTT_OK/GD32VW55X_Wifi_BLE_SDK/GD32VW55x_RELEASE_V1.0.2/MSDK/wpa_supplicant/src/ap\wpa_auth_ie.c **** 	if (data2) {
 1716              		.loc 1 558 2 is_stmt 1
 558:C:/Users/stapi/OneDrive/Desktop/GD32VW553/V1_MQTT_OK/GD32VW55X_Wifi_BLE_SDK/GD32VW55x_RELEASE_V1.0.2/MSDK/wpa_supplicant/src/ap\wpa_auth_ie.c **** 	if (data2) {
 1717              		.loc 1 558 6 is_stmt 0
 1718 0050 4A94     		add	s0,s0,s2
 1719              	.LVL172:
 559:C:/Users/stapi/OneDrive/Desktop/GD32VW553/V1_MQTT_OK/GD32VW55X_Wifi_BLE_SDK/GD32VW55x_RELEASE_V1.0.2/MSDK/wpa_supplicant/src/ap\wpa_auth_ie.c **** 		os_memcpy(pos, data2, data2_len);
 1720              		.loc 1 559 2 is_stmt 1
 559:C:/Users/stapi/OneDrive/Desktop/GD32VW553/V1_MQTT_OK/GD32VW55X_Wifi_BLE_SDK/GD32VW55x_RELEASE_V1.0.2/MSDK/wpa_supplicant/src/ap\wpa_auth_ie.c **** 		os_memcpy(pos, data2, data2_len);
 1721              		.loc 1 559 5 is_stmt 0
 1722 0052 638A0900 		beq	s3,zero,.L120
 560:C:/Users/stapi/OneDrive/Desktop/GD32VW553/V1_MQTT_OK/GD32VW55X_Wifi_BLE_SDK/GD32VW55x_RELEASE_V1.0.2/MSDK/wpa_supplicant/src/ap\wpa_auth_ie.c **** 		pos += data2_len;
 1723              		.loc 1 560 3 is_stmt 1
 1724 0056 2285     		mv	a0,s0
 1725 0058 2686     		mv	a2,s1
 1726 005a CE85     		mv	a1,s3
 1727 005c 97000000 		call	os_memcpy
 1727      E7800000 
 1728              	.LVL173:
 561:C:/Users/stapi/OneDrive/Desktop/GD32VW553/V1_MQTT_OK/GD32VW55X_Wifi_BLE_SDK/GD32VW55x_RELEASE_V1.0.2/MSDK/wpa_supplicant/src/ap\wpa_auth_ie.c **** 	}
 1729              		.loc 1 561 3
 561:C:/Users/stapi/OneDrive/Desktop/GD32VW553/V1_MQTT_OK/GD32VW55X_Wifi_BLE_SDK/GD32VW55x_RELEASE_V1.0.2/MSDK/wpa_supplicant/src/ap\wpa_auth_ie.c **** 	}
 1730              		.loc 1 561 7 is_stmt 0
 1731 0064 2694     		add	s0,s0,s1
 1732              	.LVL174:
 563:C:/Users/stapi/OneDrive/Desktop/GD32VW553/V1_MQTT_OK/GD32VW55X_Wifi_BLE_SDK/GD32VW55x_RELEASE_V1.0.2/MSDK/wpa_supplicant/src/ap\wpa_auth_ie.c **** }
 1733              		.loc 1 563 2 is_stmt 1
 1734              	.L120:
 564:C:/Users/stapi/OneDrive/Desktop/GD32VW553/V1_MQTT_OK/GD32VW55X_Wifi_BLE_SDK/GD32VW55x_RELEASE_V1.0.2/MSDK/wpa_supplicant/src/ap\wpa_auth_ie.c **** 
 1735              		.loc 1 564 1 is_stmt 0
 1736 0066 2285     		mv	a0,s0
 1737 0068 17030000 		tail	__riscv_restore_4
 1737      67000300 
 1738              		.cfi_restore 19
 1739              		.cfi_restore 18
 1740              		.cfi_restore 9
 1741              		.cfi_restore 8
 1742              		.cfi_restore 1
 1743              		.cfi_def_cfa_offset 0
 1744              		.cfi_endproc
 1745              	.LFE142:
 1747              		.section	.rodata.wpa_validate_wpa_ie.str1.4,"aMS",@progbits,1
 1748              		.align	2
 1749              	.LC4:
 1750 0000 52534E00 		.string	"RSN"
 1751              		.align	2
 1752              	.LC5:
 1753 0004 57504100 		.string	"WPA"
 1754              		.align	2
 1755              	.LC6:
 1756 0008 2B00     		.string	"+"
 1757 000a 0000     		.align	2
 1758              	.LC7:
 1759 000c 00       		.string	""
 1760 000d 000000   		.align	2
 1761              	.LC8:
 1762 0010 496E7661 		.string	"Invalid WPA proto (%d) from %02x:%02x:%02x:%02x:%02x:%02x"
 1762      6C696420 
 1762      57504120 
 1762      70726F74 
 1762      6F202825 
 1763 004a 0000     		.align	2
 1764              	.LC9:
 1765 004c 52534E3A 		.string	"RSN: FT set in RSNE AKM but MDE is missing from %02x:%02x:%02x:%02x:%02x:%02x - ignore FT
 1765      20465420 
 1765      73657420 
 1765      696E2052 
 1765      534E4520 
 1766 00cf 00       		.align	2
 1767              	.LC10:
 1768 00d0 4661696C 		.string	"Failed to parse WPA/RSN IE from %02x:%02x:%02x:%02x:%02x:%02x (res=%d)"
 1768      65642074 
 1768      6F207061 
 1768      72736520 
 1768      5750412F 
 1769 0117 00       		.align	2
 1770              	.LC11:
 1771 0118 5750412F 		.string	"WPA/RSN IE"
 1771      52534E20 
 1771      494500
 1772 0123 00       		.align	2
 1773              	.LC12:
 1774 0124 496E7661 		.string	"Invalid WPA group cipher (0x%x) from %02x:%02x:%02x:%02x:%02x:%02x"
 1774      6C696420 
 1774      57504120 
 1774      67726F75 
 1774      70206369 
 1775 0167 00       		.align	2
 1776              	.LC13:
 1777 0168 496E7661 		.string	"Invalid WPA key mgmt (0x%x) from %02x:%02x:%02x:%02x:%02x:%02x"
 1777      6C696420 
 1777      57504120 
 1777      6B657920 
 1777      6D676D74 
 1778 01a7 00       		.align	2
 1779              	.LC14:
 1780 01a8 496E7661 		.string	"Invalid %s pairwise cipher (0x%x) from %02x:%02x:%02x:%02x:%02x:%02x"
 1780      6C696420 
 1780      25732070 
 1780      61697277 
 1780      69736520 
 1781 01ed 000000   		.align	2
 1782              	.LC15:
 1783 01f0 4D616E61 		.string	"Management frame protection required, but client did not enable it"
 1783      67656D65 
 1783      6E742066 
 1783      72616D65 
 1783      2070726F 
 1784 0233 00       		.align	2
 1785              	.LC16:
 1786 0234 556E7375 		.string	"Unsupported management group cipher %d"
 1786      70706F72 
 1786      74656420 
 1786      6D616E61 
 1786      67656D65 
 1787 025b 00       		.align	2
 1788              	.LC17:
 1789 025c 4D616E61 		.string	"Management frame protection required with SAE, but client did not enable it"
 1789      67656D65 
 1789      6E742066 
 1789      72616D65 
 1789      2070726F 
 1790              		.align	2
 1791              	.LC18:
 1792 02a8 4D616E61 		.string	"Management frame protection cannot use TKIP"
 1792      67656D65 
 1792      6E742066 
 1792      72616D65 
 1792      2070726F 
 1793              		.align	2
 1794              	.LC19:
 1795 02d4 52534E20 		.string	"RSN IE: STA PMKID"
 1795      49453A20 
 1795      53544120 
 1795      504D4B49 
 1795      4400
 1796 02e6 0000     		.align	2
 1797              	.LC20:
 1798 02e8 4F4B4320 		.string	"OKC match for PMKID"
 1798      6D617463 
 1798      6820666F 
 1798      7220504D 
 1798      4B494400 
 1799              		.align	2
 1800              	.LC21:
 1801 02fc 504D4B49 		.string	"PMKID found from PMKSA cache eap_type=%d vlan=%d%s"
 1801      4420666F 
 1801      756E6420 
 1801      66726F6D 
 1801      20504D4B 
 1802 032f 00       		.align	2
 1803              	.LC22:
 1804 0330 4E6F2050 		.string	"No PMKSA cache entry found for SAE"
 1804      4D4B5341 
 1804      20636163 
 1804      68652065 
 1804      6E747279 
 1805 0353 00       		.align	2
 1806              	.LC23:
 1807 0354 52534E3A 		.string	"RSN: Extended Key ID supported (start with %d)"
 1807      20457874 
 1807      656E6465 
 1807      64204B65 
 1807      79204944 
 1808              		.section	.text.wpa_validate_wpa_ie,"ax",@progbits
 1809              		.align	1
 1810              		.globl	wpa_validate_wpa_ie
 1812              	wpa_validate_wpa_ie:
 1813              	.LFB144:
 584:C:/Users/stapi/OneDrive/Desktop/GD32VW553/V1_MQTT_OK/GD32VW55X_Wifi_BLE_SDK/GD32VW55x_RELEASE_V1.0.2/MSDK/wpa_supplicant/src/ap\wpa_auth_ie.c **** 
 585:C:/Users/stapi/OneDrive/Desktop/GD32VW553/V1_MQTT_OK/GD32VW55X_Wifi_BLE_SDK/GD32VW55x_RELEASE_V1.0.2/MSDK/wpa_supplicant/src/ap\wpa_auth_ie.c **** 
 586:C:/Users/stapi/OneDrive/Desktop/GD32VW553/V1_MQTT_OK/GD32VW55X_Wifi_BLE_SDK/GD32VW55x_RELEASE_V1.0.2/MSDK/wpa_supplicant/src/ap\wpa_auth_ie.c **** enum wpa_validate_result
 587:C:/Users/stapi/OneDrive/Desktop/GD32VW553/V1_MQTT_OK/GD32VW55X_Wifi_BLE_SDK/GD32VW55x_RELEASE_V1.0.2/MSDK/wpa_supplicant/src/ap\wpa_auth_ie.c **** wpa_validate_wpa_ie(struct wpa_authenticator *wpa_auth,
 588:C:/Users/stapi/OneDrive/Desktop/GD32VW553/V1_MQTT_OK/GD32VW55X_Wifi_BLE_SDK/GD32VW55x_RELEASE_V1.0.2/MSDK/wpa_supplicant/src/ap\wpa_auth_ie.c **** 		    struct wpa_state_machine *sm, int freq,
 589:C:/Users/stapi/OneDrive/Desktop/GD32VW553/V1_MQTT_OK/GD32VW55X_Wifi_BLE_SDK/GD32VW55x_RELEASE_V1.0.2/MSDK/wpa_supplicant/src/ap\wpa_auth_ie.c **** 		    const u8 *wpa_ie, size_t wpa_ie_len,
 590:C:/Users/stapi/OneDrive/Desktop/GD32VW553/V1_MQTT_OK/GD32VW55X_Wifi_BLE_SDK/GD32VW55x_RELEASE_V1.0.2/MSDK/wpa_supplicant/src/ap\wpa_auth_ie.c **** 		    const u8 *rsnxe, size_t rsnxe_len,
 591:C:/Users/stapi/OneDrive/Desktop/GD32VW553/V1_MQTT_OK/GD32VW55X_Wifi_BLE_SDK/GD32VW55x_RELEASE_V1.0.2/MSDK/wpa_supplicant/src/ap\wpa_auth_ie.c **** 		    const u8 *mdie, size_t mdie_len,
 592:C:/Users/stapi/OneDrive/Desktop/GD32VW553/V1_MQTT_OK/GD32VW55X_Wifi_BLE_SDK/GD32VW55x_RELEASE_V1.0.2/MSDK/wpa_supplicant/src/ap\wpa_auth_ie.c **** 		    const u8 *owe_dh, size_t owe_dh_len)
 593:C:/Users/stapi/OneDrive/Desktop/GD32VW553/V1_MQTT_OK/GD32VW55X_Wifi_BLE_SDK/GD32VW55x_RELEASE_V1.0.2/MSDK/wpa_supplicant/src/ap\wpa_auth_ie.c **** {
 1814              		.loc 1 593 1 is_stmt 1
 1815              		.cfi_startproc
 1816              	.LVL175:
 594:C:/Users/stapi/OneDrive/Desktop/GD32VW553/V1_MQTT_OK/GD32VW55X_Wifi_BLE_SDK/GD32VW55x_RELEASE_V1.0.2/MSDK/wpa_supplicant/src/ap\wpa_auth_ie.c **** 	struct wpa_auth_config *conf = &wpa_auth->conf;
 1817              		.loc 1 594 2
 595:C:/Users/stapi/OneDrive/Desktop/GD32VW553/V1_MQTT_OK/GD32VW55X_Wifi_BLE_SDK/GD32VW55x_RELEASE_V1.0.2/MSDK/wpa_supplicant/src/ap\wpa_auth_ie.c **** 	struct wpa_ie_data data;
 1818              		.loc 1 595 2
 596:C:/Users/stapi/OneDrive/Desktop/GD32VW553/V1_MQTT_OK/GD32VW55X_Wifi_BLE_SDK/GD32VW55x_RELEASE_V1.0.2/MSDK/wpa_supplicant/src/ap\wpa_auth_ie.c **** 	int ciphers, key_mgmt, res, version;
 1819              		.loc 1 596 2
 597:C:/Users/stapi/OneDrive/Desktop/GD32VW553/V1_MQTT_OK/GD32VW55X_Wifi_BLE_SDK/GD32VW55x_RELEASE_V1.0.2/MSDK/wpa_supplicant/src/ap\wpa_auth_ie.c **** 	u32 selector;
 1820              		.loc 1 597 2
 598:C:/Users/stapi/OneDrive/Desktop/GD32VW553/V1_MQTT_OK/GD32VW55X_Wifi_BLE_SDK/GD32VW55x_RELEASE_V1.0.2/MSDK/wpa_supplicant/src/ap\wpa_auth_ie.c **** 	size_t i;
 1821              		.loc 1 598 2
 599:C:/Users/stapi/OneDrive/Desktop/GD32VW553/V1_MQTT_OK/GD32VW55X_Wifi_BLE_SDK/GD32VW55x_RELEASE_V1.0.2/MSDK/wpa_supplicant/src/ap\wpa_auth_ie.c **** 	const u8 *pmkid = NULL;
 1822              		.loc 1 599 2
 600:C:/Users/stapi/OneDrive/Desktop/GD32VW553/V1_MQTT_OK/GD32VW55X_Wifi_BLE_SDK/GD32VW55x_RELEASE_V1.0.2/MSDK/wpa_supplicant/src/ap\wpa_auth_ie.c **** 
 601:C:/Users/stapi/OneDrive/Desktop/GD32VW553/V1_MQTT_OK/GD32VW55X_Wifi_BLE_SDK/GD32VW55x_RELEASE_V1.0.2/MSDK/wpa_supplicant/src/ap\wpa_auth_ie.c **** 	if (wpa_auth == NULL || sm == NULL)
 1823              		.loc 1 601 2
 1824              		.loc 1 601 5 is_stmt 0
 1825 0000 63010568 		beq	a0,zero,.L183
 593:C:/Users/stapi/OneDrive/Desktop/GD32VW553/V1_MQTT_OK/GD32VW55X_Wifi_BLE_SDK/GD32VW55x_RELEASE_V1.0.2/MSDK/wpa_supplicant/src/ap\wpa_auth_ie.c **** 	struct wpa_auth_config *conf = &wpa_auth->conf;
 1826              		.loc 1 593 1 discriminator 1
 1827 0004 17030000 		call	t0,__riscv_save_12
 1827      E7020300 
 1828              		.cfi_offset 27, -52
 1829              		.cfi_offset 26, -48
 1830              		.cfi_offset 25, -44
 1831              		.cfi_offset 24, -40
 1832              		.cfi_offset 23, -36
 1833              		.cfi_offset 22, -32
 1834              		.cfi_offset 21, -28
 1835              		.cfi_offset 20, -24
 1836              		.cfi_offset 19, -20
 1837              		.cfi_offset 18, -16
 1838              		.cfi_offset 9, -12
 1839              		.cfi_offset 8, -8
 1840              		.cfi_offset 1, -4
 1841              		.cfi_def_cfa_offset 64
 1842 000c AA84     		mv	s1,a0
 1843 000e 5D71     		addi	sp,sp,-80
 1844              		.cfi_def_cfa_offset 144
 1845 0010 2E84     		mv	s0,a1
 602:C:/Users/stapi/OneDrive/Desktop/GD32VW553/V1_MQTT_OK/GD32VW55X_Wifi_BLE_SDK/GD32VW55x_RELEASE_V1.0.2/MSDK/wpa_supplicant/src/ap\wpa_auth_ie.c **** 		return WPA_NOT_ENABLED;
 1846              		.loc 1 602 10 discriminator 1
 1847 0012 1545     		li	a0,5
 1848              	.LVL176:
 601:C:/Users/stapi/OneDrive/Desktop/GD32VW553/V1_MQTT_OK/GD32VW55X_Wifi_BLE_SDK/GD32VW55x_RELEASE_V1.0.2/MSDK/wpa_supplicant/src/ap\wpa_auth_ie.c **** 		return WPA_NOT_ENABLED;
 1849              		.loc 1 601 23 discriminator 1
 1850 0014 B1CD     		beq	a1,zero,.L126
 1851 0016 B689     		mv	s3,a3
 603:C:/Users/stapi/OneDrive/Desktop/GD32VW553/V1_MQTT_OK/GD32VW55X_Wifi_BLE_SDK/GD32VW55x_RELEASE_V1.0.2/MSDK/wpa_supplicant/src/ap\wpa_auth_ie.c **** 
 604:C:/Users/stapi/OneDrive/Desktop/GD32VW553/V1_MQTT_OK/GD32VW55X_Wifi_BLE_SDK/GD32VW55x_RELEASE_V1.0.2/MSDK/wpa_supplicant/src/ap\wpa_auth_ie.c **** 	if (wpa_ie == NULL || wpa_ie_len < 1)
 1852              		.loc 1 604 2 is_stmt 1
 605:C:/Users/stapi/OneDrive/Desktop/GD32VW553/V1_MQTT_OK/GD32VW55X_Wifi_BLE_SDK/GD32VW55x_RELEASE_V1.0.2/MSDK/wpa_supplicant/src/ap\wpa_auth_ie.c **** 		return WPA_INVALID_IE;
 1853              		.loc 1 605 10 is_stmt 0
 1854 0018 0545     		li	a0,1
 604:C:/Users/stapi/OneDrive/Desktop/GD32VW553/V1_MQTT_OK/GD32VW55X_Wifi_BLE_SDK/GD32VW55x_RELEASE_V1.0.2/MSDK/wpa_supplicant/src/ap\wpa_auth_ie.c **** 		return WPA_INVALID_IE;
 1855              		.loc 1 604 5
 1856 001a B9CA     		beq	a3,zero,.L126
 1857 001c 3A89     		mv	s2,a4
 604:C:/Users/stapi/OneDrive/Desktop/GD32VW553/V1_MQTT_OK/GD32VW55X_Wifi_BLE_SDK/GD32VW55x_RELEASE_V1.0.2/MSDK/wpa_supplicant/src/ap\wpa_auth_ie.c **** 		return WPA_INVALID_IE;
 1858              		.loc 1 604 21 discriminator 1
 1859 001e 29CB     		beq	a4,zero,.L126
 606:C:/Users/stapi/OneDrive/Desktop/GD32VW553/V1_MQTT_OK/GD32VW55X_Wifi_BLE_SDK/GD32VW55x_RELEASE_V1.0.2/MSDK/wpa_supplicant/src/ap\wpa_auth_ie.c **** 
 607:C:/Users/stapi/OneDrive/Desktop/GD32VW553/V1_MQTT_OK/GD32VW55X_Wifi_BLE_SDK/GD32VW55x_RELEASE_V1.0.2/MSDK/wpa_supplicant/src/ap\wpa_auth_ie.c **** 	if (wpa_ie[0] == WLAN_EID_RSN)
 1860              		.loc 1 607 5
 1861 0020 03C70600 		lbu	a4,0(a3)
 1862              	.LVL177:
 1863 0024 BE8B     		mv	s7,a5
 1864 0026 93070003 		li	a5,48
 1865              	.LVL178:
 1866 002a B28C     		mv	s9,a2
 1867 002c C28A     		mv	s5,a6
 1868 002e 468C     		mv	s8,a7
 1869              		.loc 1 607 2 is_stmt 1
 608:C:/Users/stapi/OneDrive/Desktop/GD32VW553/V1_MQTT_OK/GD32VW55X_Wifi_BLE_SDK/GD32VW55x_RELEASE_V1.0.2/MSDK/wpa_supplicant/src/ap\wpa_auth_ie.c **** 		version = WPA_PROTO_RSN;
 1870              		.loc 1 608 11 is_stmt 0
 1871 0030 094B     		li	s6,2
 607:C:/Users/stapi/OneDrive/Desktop/GD32VW553/V1_MQTT_OK/GD32VW55X_Wifi_BLE_SDK/GD32VW55x_RELEASE_V1.0.2/MSDK/wpa_supplicant/src/ap\wpa_auth_ie.c **** 		version = WPA_PROTO_RSN;
 1872              		.loc 1 607 5
 1873 0032 6303F700 		beq	a4,a5,.L128
 609:C:/Users/stapi/OneDrive/Desktop/GD32VW553/V1_MQTT_OK/GD32VW55X_Wifi_BLE_SDK/GD32VW55x_RELEASE_V1.0.2/MSDK/wpa_supplicant/src/ap\wpa_auth_ie.c **** 	else
 610:C:/Users/stapi/OneDrive/Desktop/GD32VW553/V1_MQTT_OK/GD32VW55X_Wifi_BLE_SDK/GD32VW55x_RELEASE_V1.0.2/MSDK/wpa_supplicant/src/ap\wpa_auth_ie.c **** 		version = WPA_PROTO_WPA;
 1874              		.loc 1 610 11
 1875 0036 054B     		li	s6,1
 1876              	.L128:
 1877              	.LVL179:
 611:C:/Users/stapi/OneDrive/Desktop/GD32VW553/V1_MQTT_OK/GD32VW55X_Wifi_BLE_SDK/GD32VW55x_RELEASE_V1.0.2/MSDK/wpa_supplicant/src/ap\wpa_auth_ie.c **** 
 612:C:/Users/stapi/OneDrive/Desktop/GD32VW553/V1_MQTT_OK/GD32VW55X_Wifi_BLE_SDK/GD32VW55x_RELEASE_V1.0.2/MSDK/wpa_supplicant/src/ap\wpa_auth_ie.c **** 	if (!(wpa_auth->conf.wpa & version)) {
 1878              		.loc 1 612 2 is_stmt 1
 1879              		.loc 1 612 27 is_stmt 0
 1880 0038 DC5C     		lw	a5,60(s1)
 1881 003a B377FB00 		and	a5,s6,a5
 1882              		.loc 1 612 5
 1883 003e 95EF     		bne	a5,zero,.L129
 613:C:/Users/stapi/OneDrive/Desktop/GD32VW553/V1_MQTT_OK/GD32VW55X_Wifi_BLE_SDK/GD32VW55x_RELEASE_V1.0.2/MSDK/wpa_supplicant/src/ap\wpa_auth_ie.c **** 		wpa_printf(MSG_DEBUG, "Invalid WPA proto (%d) from " MACSTR,
 1884              		.loc 1 613 3 is_stmt 1
 1885 0040 8347D400 		lbu	a5,13(s0)
 1886 0044 B7050000 		lui	a1,%hi(.LC8)
 1887              	.LVL180:
 1888 0048 0945     		li	a0,2
 1889 004a 3EC0     		sw	a5,0(sp)
 1890 004c 8348C400 		lbu	a7,12(s0)
 1891              	.LVL181:
 1892 0050 0348B400 		lbu	a6,11(s0)
 1893              	.LVL182:
 1894 0054 8347A400 		lbu	a5,10(s0)
 1895 0058 03479400 		lbu	a4,9(s0)
 1896 005c 83468400 		lbu	a3,8(s0)
 1897              	.LVL183:
 1898 0060 5A86     		mv	a2,s6
 1899              	.LVL184:
 1900 0062 93850500 		addi	a1,a1,%lo(.LC8)
 1901 0066 97000000 		call	wpa_printf
 1901      E7800000 
 1902              	.LVL185:
 614:C:/Users/stapi/OneDrive/Desktop/GD32VW553/V1_MQTT_OK/GD32VW55X_Wifi_BLE_SDK/GD32VW55x_RELEASE_V1.0.2/MSDK/wpa_supplicant/src/ap\wpa_auth_ie.c **** 			   version, MAC2STR(sm->addr));
 615:C:/Users/stapi/OneDrive/Desktop/GD32VW553/V1_MQTT_OK/GD32VW55X_Wifi_BLE_SDK/GD32VW55x_RELEASE_V1.0.2/MSDK/wpa_supplicant/src/ap\wpa_auth_ie.c **** 		return WPA_INVALID_PROTO;
 1903              		.loc 1 615 3
 1904              		.loc 1 615 10 is_stmt 0
 1905 006e 2945     		li	a0,10
 1906              	.LVL186:
 1907              	.L126:
 616:C:/Users/stapi/OneDrive/Desktop/GD32VW553/V1_MQTT_OK/GD32VW55X_Wifi_BLE_SDK/GD32VW55x_RELEASE_V1.0.2/MSDK/wpa_supplicant/src/ap\wpa_auth_ie.c **** 	}
 617:C:/Users/stapi/OneDrive/Desktop/GD32VW553/V1_MQTT_OK/GD32VW55X_Wifi_BLE_SDK/GD32VW55x_RELEASE_V1.0.2/MSDK/wpa_supplicant/src/ap\wpa_auth_ie.c **** 
 618:C:/Users/stapi/OneDrive/Desktop/GD32VW553/V1_MQTT_OK/GD32VW55X_Wifi_BLE_SDK/GD32VW55x_RELEASE_V1.0.2/MSDK/wpa_supplicant/src/ap\wpa_auth_ie.c **** 	if (version == WPA_PROTO_RSN) {
 619:C:/Users/stapi/OneDrive/Desktop/GD32VW553/V1_MQTT_OK/GD32VW55X_Wifi_BLE_SDK/GD32VW55x_RELEASE_V1.0.2/MSDK/wpa_supplicant/src/ap\wpa_auth_ie.c **** 		res = wpa_parse_wpa_ie_rsn(wpa_ie, wpa_ie_len, &data);
 620:C:/Users/stapi/OneDrive/Desktop/GD32VW553/V1_MQTT_OK/GD32VW55X_Wifi_BLE_SDK/GD32VW55x_RELEASE_V1.0.2/MSDK/wpa_supplicant/src/ap\wpa_auth_ie.c **** 		if (!data.has_pairwise)
 621:C:/Users/stapi/OneDrive/Desktop/GD32VW553/V1_MQTT_OK/GD32VW55X_Wifi_BLE_SDK/GD32VW55x_RELEASE_V1.0.2/MSDK/wpa_supplicant/src/ap\wpa_auth_ie.c **** 			data.pairwise_cipher = wpa_default_rsn_cipher(freq);
 622:C:/Users/stapi/OneDrive/Desktop/GD32VW553/V1_MQTT_OK/GD32VW55X_Wifi_BLE_SDK/GD32VW55x_RELEASE_V1.0.2/MSDK/wpa_supplicant/src/ap\wpa_auth_ie.c **** 		if (!data.has_group)
 623:C:/Users/stapi/OneDrive/Desktop/GD32VW553/V1_MQTT_OK/GD32VW55X_Wifi_BLE_SDK/GD32VW55x_RELEASE_V1.0.2/MSDK/wpa_supplicant/src/ap\wpa_auth_ie.c **** 			data.group_cipher = wpa_default_rsn_cipher(freq);
 624:C:/Users/stapi/OneDrive/Desktop/GD32VW553/V1_MQTT_OK/GD32VW55X_Wifi_BLE_SDK/GD32VW55x_RELEASE_V1.0.2/MSDK/wpa_supplicant/src/ap\wpa_auth_ie.c **** 
 625:C:/Users/stapi/OneDrive/Desktop/GD32VW553/V1_MQTT_OK/GD32VW55X_Wifi_BLE_SDK/GD32VW55x_RELEASE_V1.0.2/MSDK/wpa_supplicant/src/ap\wpa_auth_ie.c **** 		if (wpa_key_mgmt_ft(data.key_mgmt) && !mdie &&
 626:C:/Users/stapi/OneDrive/Desktop/GD32VW553/V1_MQTT_OK/GD32VW55X_Wifi_BLE_SDK/GD32VW55x_RELEASE_V1.0.2/MSDK/wpa_supplicant/src/ap\wpa_auth_ie.c **** 		    !wpa_key_mgmt_only_ft(data.key_mgmt)) {
 627:C:/Users/stapi/OneDrive/Desktop/GD32VW553/V1_MQTT_OK/GD32VW55X_Wifi_BLE_SDK/GD32VW55x_RELEASE_V1.0.2/MSDK/wpa_supplicant/src/ap\wpa_auth_ie.c **** 			/* Workaround for some HP and Epson printers that seem
 628:C:/Users/stapi/OneDrive/Desktop/GD32VW553/V1_MQTT_OK/GD32VW55X_Wifi_BLE_SDK/GD32VW55x_RELEASE_V1.0.2/MSDK/wpa_supplicant/src/ap\wpa_auth_ie.c **** 			 * to incorrectly copy the FT-PSK + WPA-PSK AKMs from AP
 629:C:/Users/stapi/OneDrive/Desktop/GD32VW553/V1_MQTT_OK/GD32VW55X_Wifi_BLE_SDK/GD32VW55x_RELEASE_V1.0.2/MSDK/wpa_supplicant/src/ap\wpa_auth_ie.c **** 			 * advertised RSNE to Association Request frame. */
 630:C:/Users/stapi/OneDrive/Desktop/GD32VW553/V1_MQTT_OK/GD32VW55X_Wifi_BLE_SDK/GD32VW55x_RELEASE_V1.0.2/MSDK/wpa_supplicant/src/ap\wpa_auth_ie.c **** 			wpa_printf(MSG_DEBUG,
 631:C:/Users/stapi/OneDrive/Desktop/GD32VW553/V1_MQTT_OK/GD32VW55X_Wifi_BLE_SDK/GD32VW55x_RELEASE_V1.0.2/MSDK/wpa_supplicant/src/ap\wpa_auth_ie.c **** 				   "RSN: FT set in RSNE AKM but MDE is missing from "
 632:C:/Users/stapi/OneDrive/Desktop/GD32VW553/V1_MQTT_OK/GD32VW55X_Wifi_BLE_SDK/GD32VW55x_RELEASE_V1.0.2/MSDK/wpa_supplicant/src/ap\wpa_auth_ie.c **** 				   MACSTR
 633:C:/Users/stapi/OneDrive/Desktop/GD32VW553/V1_MQTT_OK/GD32VW55X_Wifi_BLE_SDK/GD32VW55x_RELEASE_V1.0.2/MSDK/wpa_supplicant/src/ap\wpa_auth_ie.c **** 				   " - ignore FT AKM(s) because there's also a non-FT AKM",
 634:C:/Users/stapi/OneDrive/Desktop/GD32VW553/V1_MQTT_OK/GD32VW55X_Wifi_BLE_SDK/GD32VW55x_RELEASE_V1.0.2/MSDK/wpa_supplicant/src/ap\wpa_auth_ie.c **** 				   MAC2STR(sm->addr));
 635:C:/Users/stapi/OneDrive/Desktop/GD32VW553/V1_MQTT_OK/GD32VW55X_Wifi_BLE_SDK/GD32VW55x_RELEASE_V1.0.2/MSDK/wpa_supplicant/src/ap\wpa_auth_ie.c **** 			data.key_mgmt &= ~WPA_KEY_MGMT_FT;
 636:C:/Users/stapi/OneDrive/Desktop/GD32VW553/V1_MQTT_OK/GD32VW55X_Wifi_BLE_SDK/GD32VW55x_RELEASE_V1.0.2/MSDK/wpa_supplicant/src/ap\wpa_auth_ie.c **** 		}
 637:C:/Users/stapi/OneDrive/Desktop/GD32VW553/V1_MQTT_OK/GD32VW55X_Wifi_BLE_SDK/GD32VW55x_RELEASE_V1.0.2/MSDK/wpa_supplicant/src/ap\wpa_auth_ie.c **** 
 638:C:/Users/stapi/OneDrive/Desktop/GD32VW553/V1_MQTT_OK/GD32VW55X_Wifi_BLE_SDK/GD32VW55x_RELEASE_V1.0.2/MSDK/wpa_supplicant/src/ap\wpa_auth_ie.c **** 		selector = RSN_AUTH_KEY_MGMT_UNSPEC_802_1X;
 639:C:/Users/stapi/OneDrive/Desktop/GD32VW553/V1_MQTT_OK/GD32VW55X_Wifi_BLE_SDK/GD32VW55x_RELEASE_V1.0.2/MSDK/wpa_supplicant/src/ap\wpa_auth_ie.c **** 		if (0) {
 640:C:/Users/stapi/OneDrive/Desktop/GD32VW553/V1_MQTT_OK/GD32VW55X_Wifi_BLE_SDK/GD32VW55x_RELEASE_V1.0.2/MSDK/wpa_supplicant/src/ap\wpa_auth_ie.c **** 		}
 641:C:/Users/stapi/OneDrive/Desktop/GD32VW553/V1_MQTT_OK/GD32VW55X_Wifi_BLE_SDK/GD32VW55x_RELEASE_V1.0.2/MSDK/wpa_supplicant/src/ap\wpa_auth_ie.c **** 		else if (data.key_mgmt & WPA_KEY_MGMT_IEEE8021X_SUITE_B_192)
 642:C:/Users/stapi/OneDrive/Desktop/GD32VW553/V1_MQTT_OK/GD32VW55X_Wifi_BLE_SDK/GD32VW55x_RELEASE_V1.0.2/MSDK/wpa_supplicant/src/ap\wpa_auth_ie.c **** 			selector = RSN_AUTH_KEY_MGMT_802_1X_SUITE_B_192;
 643:C:/Users/stapi/OneDrive/Desktop/GD32VW553/V1_MQTT_OK/GD32VW55X_Wifi_BLE_SDK/GD32VW55x_RELEASE_V1.0.2/MSDK/wpa_supplicant/src/ap\wpa_auth_ie.c **** 		else if (data.key_mgmt & WPA_KEY_MGMT_IEEE8021X_SUITE_B)
 644:C:/Users/stapi/OneDrive/Desktop/GD32VW553/V1_MQTT_OK/GD32VW55X_Wifi_BLE_SDK/GD32VW55x_RELEASE_V1.0.2/MSDK/wpa_supplicant/src/ap\wpa_auth_ie.c **** 			selector = RSN_AUTH_KEY_MGMT_802_1X_SUITE_B;
 645:C:/Users/stapi/OneDrive/Desktop/GD32VW553/V1_MQTT_OK/GD32VW55X_Wifi_BLE_SDK/GD32VW55x_RELEASE_V1.0.2/MSDK/wpa_supplicant/src/ap\wpa_auth_ie.c **** #ifdef CONFIG_FILS
 646:C:/Users/stapi/OneDrive/Desktop/GD32VW553/V1_MQTT_OK/GD32VW55X_Wifi_BLE_SDK/GD32VW55x_RELEASE_V1.0.2/MSDK/wpa_supplicant/src/ap\wpa_auth_ie.c **** #ifdef CONFIG_IEEE80211R_AP
 647:C:/Users/stapi/OneDrive/Desktop/GD32VW553/V1_MQTT_OK/GD32VW55X_Wifi_BLE_SDK/GD32VW55x_RELEASE_V1.0.2/MSDK/wpa_supplicant/src/ap\wpa_auth_ie.c **** 		else if (data.key_mgmt & WPA_KEY_MGMT_FT_FILS_SHA384)
 648:C:/Users/stapi/OneDrive/Desktop/GD32VW553/V1_MQTT_OK/GD32VW55X_Wifi_BLE_SDK/GD32VW55x_RELEASE_V1.0.2/MSDK/wpa_supplicant/src/ap\wpa_auth_ie.c **** 			selector = RSN_AUTH_KEY_MGMT_FT_FILS_SHA384;
 649:C:/Users/stapi/OneDrive/Desktop/GD32VW553/V1_MQTT_OK/GD32VW55X_Wifi_BLE_SDK/GD32VW55x_RELEASE_V1.0.2/MSDK/wpa_supplicant/src/ap\wpa_auth_ie.c **** 		else if (data.key_mgmt & WPA_KEY_MGMT_FT_FILS_SHA256)
 650:C:/Users/stapi/OneDrive/Desktop/GD32VW553/V1_MQTT_OK/GD32VW55X_Wifi_BLE_SDK/GD32VW55x_RELEASE_V1.0.2/MSDK/wpa_supplicant/src/ap\wpa_auth_ie.c **** 			selector = RSN_AUTH_KEY_MGMT_FT_FILS_SHA256;
 651:C:/Users/stapi/OneDrive/Desktop/GD32VW553/V1_MQTT_OK/GD32VW55X_Wifi_BLE_SDK/GD32VW55x_RELEASE_V1.0.2/MSDK/wpa_supplicant/src/ap\wpa_auth_ie.c **** #endif /* CONFIG_IEEE80211R_AP */
 652:C:/Users/stapi/OneDrive/Desktop/GD32VW553/V1_MQTT_OK/GD32VW55X_Wifi_BLE_SDK/GD32VW55x_RELEASE_V1.0.2/MSDK/wpa_supplicant/src/ap\wpa_auth_ie.c **** 		else if (data.key_mgmt & WPA_KEY_MGMT_FILS_SHA384)
 653:C:/Users/stapi/OneDrive/Desktop/GD32VW553/V1_MQTT_OK/GD32VW55X_Wifi_BLE_SDK/GD32VW55x_RELEASE_V1.0.2/MSDK/wpa_supplicant/src/ap\wpa_auth_ie.c **** 			selector = RSN_AUTH_KEY_MGMT_FILS_SHA384;
 654:C:/Users/stapi/OneDrive/Desktop/GD32VW553/V1_MQTT_OK/GD32VW55X_Wifi_BLE_SDK/GD32VW55x_RELEASE_V1.0.2/MSDK/wpa_supplicant/src/ap\wpa_auth_ie.c **** 		else if (data.key_mgmt & WPA_KEY_MGMT_FILS_SHA256)
 655:C:/Users/stapi/OneDrive/Desktop/GD32VW553/V1_MQTT_OK/GD32VW55X_Wifi_BLE_SDK/GD32VW55x_RELEASE_V1.0.2/MSDK/wpa_supplicant/src/ap\wpa_auth_ie.c **** 			selector = RSN_AUTH_KEY_MGMT_FILS_SHA256;
 656:C:/Users/stapi/OneDrive/Desktop/GD32VW553/V1_MQTT_OK/GD32VW55X_Wifi_BLE_SDK/GD32VW55x_RELEASE_V1.0.2/MSDK/wpa_supplicant/src/ap\wpa_auth_ie.c **** #endif /* CONFIG_FILS */
 657:C:/Users/stapi/OneDrive/Desktop/GD32VW553/V1_MQTT_OK/GD32VW55X_Wifi_BLE_SDK/GD32VW55x_RELEASE_V1.0.2/MSDK/wpa_supplicant/src/ap\wpa_auth_ie.c **** #ifdef CONFIG_IEEE80211R_AP
 658:C:/Users/stapi/OneDrive/Desktop/GD32VW553/V1_MQTT_OK/GD32VW55X_Wifi_BLE_SDK/GD32VW55x_RELEASE_V1.0.2/MSDK/wpa_supplicant/src/ap\wpa_auth_ie.c **** #ifdef CONFIG_SHA384
 659:C:/Users/stapi/OneDrive/Desktop/GD32VW553/V1_MQTT_OK/GD32VW55X_Wifi_BLE_SDK/GD32VW55x_RELEASE_V1.0.2/MSDK/wpa_supplicant/src/ap\wpa_auth_ie.c **** 		else if (data.key_mgmt & WPA_KEY_MGMT_FT_IEEE8021X_SHA384)
 660:C:/Users/stapi/OneDrive/Desktop/GD32VW553/V1_MQTT_OK/GD32VW55X_Wifi_BLE_SDK/GD32VW55x_RELEASE_V1.0.2/MSDK/wpa_supplicant/src/ap\wpa_auth_ie.c **** 			selector = RSN_AUTH_KEY_MGMT_FT_802_1X_SHA384;
 661:C:/Users/stapi/OneDrive/Desktop/GD32VW553/V1_MQTT_OK/GD32VW55X_Wifi_BLE_SDK/GD32VW55x_RELEASE_V1.0.2/MSDK/wpa_supplicant/src/ap\wpa_auth_ie.c **** #endif /* CONFIG_SHA384 */
 662:C:/Users/stapi/OneDrive/Desktop/GD32VW553/V1_MQTT_OK/GD32VW55X_Wifi_BLE_SDK/GD32VW55x_RELEASE_V1.0.2/MSDK/wpa_supplicant/src/ap\wpa_auth_ie.c **** 		else if (data.key_mgmt & WPA_KEY_MGMT_FT_IEEE8021X)
 663:C:/Users/stapi/OneDrive/Desktop/GD32VW553/V1_MQTT_OK/GD32VW55X_Wifi_BLE_SDK/GD32VW55x_RELEASE_V1.0.2/MSDK/wpa_supplicant/src/ap\wpa_auth_ie.c **** 			selector = RSN_AUTH_KEY_MGMT_FT_802_1X;
 664:C:/Users/stapi/OneDrive/Desktop/GD32VW553/V1_MQTT_OK/GD32VW55X_Wifi_BLE_SDK/GD32VW55x_RELEASE_V1.0.2/MSDK/wpa_supplicant/src/ap\wpa_auth_ie.c **** 		else if (data.key_mgmt & WPA_KEY_MGMT_FT_PSK)
 665:C:/Users/stapi/OneDrive/Desktop/GD32VW553/V1_MQTT_OK/GD32VW55X_Wifi_BLE_SDK/GD32VW55x_RELEASE_V1.0.2/MSDK/wpa_supplicant/src/ap\wpa_auth_ie.c **** 			selector = RSN_AUTH_KEY_MGMT_FT_PSK;
 666:C:/Users/stapi/OneDrive/Desktop/GD32VW553/V1_MQTT_OK/GD32VW55X_Wifi_BLE_SDK/GD32VW55x_RELEASE_V1.0.2/MSDK/wpa_supplicant/src/ap\wpa_auth_ie.c **** #endif /* CONFIG_IEEE80211R_AP */
 667:C:/Users/stapi/OneDrive/Desktop/GD32VW553/V1_MQTT_OK/GD32VW55X_Wifi_BLE_SDK/GD32VW55x_RELEASE_V1.0.2/MSDK/wpa_supplicant/src/ap\wpa_auth_ie.c **** 		else if (data.key_mgmt & WPA_KEY_MGMT_IEEE8021X_SHA256)
 668:C:/Users/stapi/OneDrive/Desktop/GD32VW553/V1_MQTT_OK/GD32VW55X_Wifi_BLE_SDK/GD32VW55x_RELEASE_V1.0.2/MSDK/wpa_supplicant/src/ap\wpa_auth_ie.c **** 			selector = RSN_AUTH_KEY_MGMT_802_1X_SHA256;
 669:C:/Users/stapi/OneDrive/Desktop/GD32VW553/V1_MQTT_OK/GD32VW55X_Wifi_BLE_SDK/GD32VW55x_RELEASE_V1.0.2/MSDK/wpa_supplicant/src/ap\wpa_auth_ie.c **** 		else if (data.key_mgmt & WPA_KEY_MGMT_PSK_SHA256)
 670:C:/Users/stapi/OneDrive/Desktop/GD32VW553/V1_MQTT_OK/GD32VW55X_Wifi_BLE_SDK/GD32VW55x_RELEASE_V1.0.2/MSDK/wpa_supplicant/src/ap\wpa_auth_ie.c **** 			selector = RSN_AUTH_KEY_MGMT_PSK_SHA256;
 671:C:/Users/stapi/OneDrive/Desktop/GD32VW553/V1_MQTT_OK/GD32VW55X_Wifi_BLE_SDK/GD32VW55x_RELEASE_V1.0.2/MSDK/wpa_supplicant/src/ap\wpa_auth_ie.c **** #ifdef CONFIG_SAE
 672:C:/Users/stapi/OneDrive/Desktop/GD32VW553/V1_MQTT_OK/GD32VW55X_Wifi_BLE_SDK/GD32VW55x_RELEASE_V1.0.2/MSDK/wpa_supplicant/src/ap\wpa_auth_ie.c **** 		else if (data.key_mgmt & WPA_KEY_MGMT_SAE)
 673:C:/Users/stapi/OneDrive/Desktop/GD32VW553/V1_MQTT_OK/GD32VW55X_Wifi_BLE_SDK/GD32VW55x_RELEASE_V1.0.2/MSDK/wpa_supplicant/src/ap\wpa_auth_ie.c **** 			selector = RSN_AUTH_KEY_MGMT_SAE;
 674:C:/Users/stapi/OneDrive/Desktop/GD32VW553/V1_MQTT_OK/GD32VW55X_Wifi_BLE_SDK/GD32VW55x_RELEASE_V1.0.2/MSDK/wpa_supplicant/src/ap\wpa_auth_ie.c **** 		else if (data.key_mgmt & WPA_KEY_MGMT_FT_SAE)
 675:C:/Users/stapi/OneDrive/Desktop/GD32VW553/V1_MQTT_OK/GD32VW55X_Wifi_BLE_SDK/GD32VW55x_RELEASE_V1.0.2/MSDK/wpa_supplicant/src/ap\wpa_auth_ie.c **** 			selector = RSN_AUTH_KEY_MGMT_FT_SAE;
 676:C:/Users/stapi/OneDrive/Desktop/GD32VW553/V1_MQTT_OK/GD32VW55X_Wifi_BLE_SDK/GD32VW55x_RELEASE_V1.0.2/MSDK/wpa_supplicant/src/ap\wpa_auth_ie.c **** #endif /* CONFIG_SAE */
 677:C:/Users/stapi/OneDrive/Desktop/GD32VW553/V1_MQTT_OK/GD32VW55X_Wifi_BLE_SDK/GD32VW55x_RELEASE_V1.0.2/MSDK/wpa_supplicant/src/ap\wpa_auth_ie.c **** 		else if (data.key_mgmt & WPA_KEY_MGMT_IEEE8021X)
 678:C:/Users/stapi/OneDrive/Desktop/GD32VW553/V1_MQTT_OK/GD32VW55X_Wifi_BLE_SDK/GD32VW55x_RELEASE_V1.0.2/MSDK/wpa_supplicant/src/ap\wpa_auth_ie.c **** 			selector = RSN_AUTH_KEY_MGMT_UNSPEC_802_1X;
 679:C:/Users/stapi/OneDrive/Desktop/GD32VW553/V1_MQTT_OK/GD32VW55X_Wifi_BLE_SDK/GD32VW55x_RELEASE_V1.0.2/MSDK/wpa_supplicant/src/ap\wpa_auth_ie.c **** 		else if (data.key_mgmt & WPA_KEY_MGMT_PSK)
 680:C:/Users/stapi/OneDrive/Desktop/GD32VW553/V1_MQTT_OK/GD32VW55X_Wifi_BLE_SDK/GD32VW55x_RELEASE_V1.0.2/MSDK/wpa_supplicant/src/ap\wpa_auth_ie.c **** 			selector = RSN_AUTH_KEY_MGMT_PSK_OVER_802_1X;
 681:C:/Users/stapi/OneDrive/Desktop/GD32VW553/V1_MQTT_OK/GD32VW55X_Wifi_BLE_SDK/GD32VW55x_RELEASE_V1.0.2/MSDK/wpa_supplicant/src/ap\wpa_auth_ie.c **** #ifdef CONFIG_OWE
 682:C:/Users/stapi/OneDrive/Desktop/GD32VW553/V1_MQTT_OK/GD32VW55X_Wifi_BLE_SDK/GD32VW55x_RELEASE_V1.0.2/MSDK/wpa_supplicant/src/ap\wpa_auth_ie.c **** 		else if (data.key_mgmt & WPA_KEY_MGMT_OWE)
 683:C:/Users/stapi/OneDrive/Desktop/GD32VW553/V1_MQTT_OK/GD32VW55X_Wifi_BLE_SDK/GD32VW55x_RELEASE_V1.0.2/MSDK/wpa_supplicant/src/ap\wpa_auth_ie.c **** 			selector = RSN_AUTH_KEY_MGMT_OWE;
 684:C:/Users/stapi/OneDrive/Desktop/GD32VW553/V1_MQTT_OK/GD32VW55X_Wifi_BLE_SDK/GD32VW55x_RELEASE_V1.0.2/MSDK/wpa_supplicant/src/ap\wpa_auth_ie.c **** #endif /* CONFIG_OWE */
 685:C:/Users/stapi/OneDrive/Desktop/GD32VW553/V1_MQTT_OK/GD32VW55X_Wifi_BLE_SDK/GD32VW55x_RELEASE_V1.0.2/MSDK/wpa_supplicant/src/ap\wpa_auth_ie.c **** #ifdef CONFIG_DPP
 686:C:/Users/stapi/OneDrive/Desktop/GD32VW553/V1_MQTT_OK/GD32VW55X_Wifi_BLE_SDK/GD32VW55x_RELEASE_V1.0.2/MSDK/wpa_supplicant/src/ap\wpa_auth_ie.c **** 		else if (data.key_mgmt & WPA_KEY_MGMT_DPP)
 687:C:/Users/stapi/OneDrive/Desktop/GD32VW553/V1_MQTT_OK/GD32VW55X_Wifi_BLE_SDK/GD32VW55x_RELEASE_V1.0.2/MSDK/wpa_supplicant/src/ap\wpa_auth_ie.c **** 			selector = RSN_AUTH_KEY_MGMT_DPP;
 688:C:/Users/stapi/OneDrive/Desktop/GD32VW553/V1_MQTT_OK/GD32VW55X_Wifi_BLE_SDK/GD32VW55x_RELEASE_V1.0.2/MSDK/wpa_supplicant/src/ap\wpa_auth_ie.c **** #endif /* CONFIG_DPP */
 689:C:/Users/stapi/OneDrive/Desktop/GD32VW553/V1_MQTT_OK/GD32VW55X_Wifi_BLE_SDK/GD32VW55x_RELEASE_V1.0.2/MSDK/wpa_supplicant/src/ap\wpa_auth_ie.c **** #ifdef CONFIG_HS20
 690:C:/Users/stapi/OneDrive/Desktop/GD32VW553/V1_MQTT_OK/GD32VW55X_Wifi_BLE_SDK/GD32VW55x_RELEASE_V1.0.2/MSDK/wpa_supplicant/src/ap\wpa_auth_ie.c **** 		else if (data.key_mgmt & WPA_KEY_MGMT_OSEN)
 691:C:/Users/stapi/OneDrive/Desktop/GD32VW553/V1_MQTT_OK/GD32VW55X_Wifi_BLE_SDK/GD32VW55x_RELEASE_V1.0.2/MSDK/wpa_supplicant/src/ap\wpa_auth_ie.c **** 			selector = RSN_AUTH_KEY_MGMT_OSEN;
 692:C:/Users/stapi/OneDrive/Desktop/GD32VW553/V1_MQTT_OK/GD32VW55X_Wifi_BLE_SDK/GD32VW55x_RELEASE_V1.0.2/MSDK/wpa_supplicant/src/ap\wpa_auth_ie.c **** #endif /* CONFIG_HS20 */
 693:C:/Users/stapi/OneDrive/Desktop/GD32VW553/V1_MQTT_OK/GD32VW55X_Wifi_BLE_SDK/GD32VW55x_RELEASE_V1.0.2/MSDK/wpa_supplicant/src/ap\wpa_auth_ie.c **** 		wpa_auth->dot11RSNAAuthenticationSuiteSelected = selector;
 694:C:/Users/stapi/OneDrive/Desktop/GD32VW553/V1_MQTT_OK/GD32VW55X_Wifi_BLE_SDK/GD32VW55x_RELEASE_V1.0.2/MSDK/wpa_supplicant/src/ap\wpa_auth_ie.c **** 
 695:C:/Users/stapi/OneDrive/Desktop/GD32VW553/V1_MQTT_OK/GD32VW55X_Wifi_BLE_SDK/GD32VW55x_RELEASE_V1.0.2/MSDK/wpa_supplicant/src/ap\wpa_auth_ie.c **** 		selector = wpa_cipher_to_suite(WPA_PROTO_RSN,
 696:C:/Users/stapi/OneDrive/Desktop/GD32VW553/V1_MQTT_OK/GD32VW55X_Wifi_BLE_SDK/GD32VW55x_RELEASE_V1.0.2/MSDK/wpa_supplicant/src/ap\wpa_auth_ie.c **** 					       data.pairwise_cipher);
 697:C:/Users/stapi/OneDrive/Desktop/GD32VW553/V1_MQTT_OK/GD32VW55X_Wifi_BLE_SDK/GD32VW55x_RELEASE_V1.0.2/MSDK/wpa_supplicant/src/ap\wpa_auth_ie.c **** 		if (!selector)
 698:C:/Users/stapi/OneDrive/Desktop/GD32VW553/V1_MQTT_OK/GD32VW55X_Wifi_BLE_SDK/GD32VW55x_RELEASE_V1.0.2/MSDK/wpa_supplicant/src/ap\wpa_auth_ie.c **** 			selector = RSN_CIPHER_SUITE_CCMP;
 699:C:/Users/stapi/OneDrive/Desktop/GD32VW553/V1_MQTT_OK/GD32VW55X_Wifi_BLE_SDK/GD32VW55x_RELEASE_V1.0.2/MSDK/wpa_supplicant/src/ap\wpa_auth_ie.c **** 		wpa_auth->dot11RSNAPairwiseCipherSelected = selector;
 700:C:/Users/stapi/OneDrive/Desktop/GD32VW553/V1_MQTT_OK/GD32VW55X_Wifi_BLE_SDK/GD32VW55x_RELEASE_V1.0.2/MSDK/wpa_supplicant/src/ap\wpa_auth_ie.c **** 
 701:C:/Users/stapi/OneDrive/Desktop/GD32VW553/V1_MQTT_OK/GD32VW55X_Wifi_BLE_SDK/GD32VW55x_RELEASE_V1.0.2/MSDK/wpa_supplicant/src/ap\wpa_auth_ie.c **** 		selector = wpa_cipher_to_suite(WPA_PROTO_RSN,
 702:C:/Users/stapi/OneDrive/Desktop/GD32VW553/V1_MQTT_OK/GD32VW55X_Wifi_BLE_SDK/GD32VW55x_RELEASE_V1.0.2/MSDK/wpa_supplicant/src/ap\wpa_auth_ie.c **** 					       data.group_cipher);
 703:C:/Users/stapi/OneDrive/Desktop/GD32VW553/V1_MQTT_OK/GD32VW55X_Wifi_BLE_SDK/GD32VW55x_RELEASE_V1.0.2/MSDK/wpa_supplicant/src/ap\wpa_auth_ie.c **** 		if (!selector)
 704:C:/Users/stapi/OneDrive/Desktop/GD32VW553/V1_MQTT_OK/GD32VW55X_Wifi_BLE_SDK/GD32VW55x_RELEASE_V1.0.2/MSDK/wpa_supplicant/src/ap\wpa_auth_ie.c **** 			selector = RSN_CIPHER_SUITE_CCMP;
 705:C:/Users/stapi/OneDrive/Desktop/GD32VW553/V1_MQTT_OK/GD32VW55X_Wifi_BLE_SDK/GD32VW55x_RELEASE_V1.0.2/MSDK/wpa_supplicant/src/ap\wpa_auth_ie.c **** 		wpa_auth->dot11RSNAGroupCipherSelected = selector;
 706:C:/Users/stapi/OneDrive/Desktop/GD32VW553/V1_MQTT_OK/GD32VW55X_Wifi_BLE_SDK/GD32VW55x_RELEASE_V1.0.2/MSDK/wpa_supplicant/src/ap\wpa_auth_ie.c **** 	} else {
 707:C:/Users/stapi/OneDrive/Desktop/GD32VW553/V1_MQTT_OK/GD32VW55X_Wifi_BLE_SDK/GD32VW55x_RELEASE_V1.0.2/MSDK/wpa_supplicant/src/ap\wpa_auth_ie.c **** 		res = wpa_parse_wpa_ie_wpa(wpa_ie, wpa_ie_len, &data);
 708:C:/Users/stapi/OneDrive/Desktop/GD32VW553/V1_MQTT_OK/GD32VW55X_Wifi_BLE_SDK/GD32VW55x_RELEASE_V1.0.2/MSDK/wpa_supplicant/src/ap\wpa_auth_ie.c **** 
 709:C:/Users/stapi/OneDrive/Desktop/GD32VW553/V1_MQTT_OK/GD32VW55X_Wifi_BLE_SDK/GD32VW55x_RELEASE_V1.0.2/MSDK/wpa_supplicant/src/ap\wpa_auth_ie.c **** 		selector = WPA_AUTH_KEY_MGMT_UNSPEC_802_1X;
 710:C:/Users/stapi/OneDrive/Desktop/GD32VW553/V1_MQTT_OK/GD32VW55X_Wifi_BLE_SDK/GD32VW55x_RELEASE_V1.0.2/MSDK/wpa_supplicant/src/ap\wpa_auth_ie.c **** 		if (data.key_mgmt & WPA_KEY_MGMT_IEEE8021X)
 711:C:/Users/stapi/OneDrive/Desktop/GD32VW553/V1_MQTT_OK/GD32VW55X_Wifi_BLE_SDK/GD32VW55x_RELEASE_V1.0.2/MSDK/wpa_supplicant/src/ap\wpa_auth_ie.c **** 			selector = WPA_AUTH_KEY_MGMT_UNSPEC_802_1X;
 712:C:/Users/stapi/OneDrive/Desktop/GD32VW553/V1_MQTT_OK/GD32VW55X_Wifi_BLE_SDK/GD32VW55x_RELEASE_V1.0.2/MSDK/wpa_supplicant/src/ap\wpa_auth_ie.c **** 		else if (data.key_mgmt & WPA_KEY_MGMT_PSK)
 713:C:/Users/stapi/OneDrive/Desktop/GD32VW553/V1_MQTT_OK/GD32VW55X_Wifi_BLE_SDK/GD32VW55x_RELEASE_V1.0.2/MSDK/wpa_supplicant/src/ap\wpa_auth_ie.c **** 			selector = WPA_AUTH_KEY_MGMT_PSK_OVER_802_1X;
 714:C:/Users/stapi/OneDrive/Desktop/GD32VW553/V1_MQTT_OK/GD32VW55X_Wifi_BLE_SDK/GD32VW55x_RELEASE_V1.0.2/MSDK/wpa_supplicant/src/ap\wpa_auth_ie.c **** 		wpa_auth->dot11RSNAAuthenticationSuiteSelected = selector;
 715:C:/Users/stapi/OneDrive/Desktop/GD32VW553/V1_MQTT_OK/GD32VW55X_Wifi_BLE_SDK/GD32VW55x_RELEASE_V1.0.2/MSDK/wpa_supplicant/src/ap\wpa_auth_ie.c **** 
 716:C:/Users/stapi/OneDrive/Desktop/GD32VW553/V1_MQTT_OK/GD32VW55X_Wifi_BLE_SDK/GD32VW55x_RELEASE_V1.0.2/MSDK/wpa_supplicant/src/ap\wpa_auth_ie.c **** 		selector = wpa_cipher_to_suite(WPA_PROTO_WPA,
 717:C:/Users/stapi/OneDrive/Desktop/GD32VW553/V1_MQTT_OK/GD32VW55X_Wifi_BLE_SDK/GD32VW55x_RELEASE_V1.0.2/MSDK/wpa_supplicant/src/ap\wpa_auth_ie.c **** 					       data.pairwise_cipher);
 718:C:/Users/stapi/OneDrive/Desktop/GD32VW553/V1_MQTT_OK/GD32VW55X_Wifi_BLE_SDK/GD32VW55x_RELEASE_V1.0.2/MSDK/wpa_supplicant/src/ap\wpa_auth_ie.c **** 		if (!selector)
 719:C:/Users/stapi/OneDrive/Desktop/GD32VW553/V1_MQTT_OK/GD32VW55X_Wifi_BLE_SDK/GD32VW55x_RELEASE_V1.0.2/MSDK/wpa_supplicant/src/ap\wpa_auth_ie.c **** 			selector = RSN_CIPHER_SUITE_TKIP;
 720:C:/Users/stapi/OneDrive/Desktop/GD32VW553/V1_MQTT_OK/GD32VW55X_Wifi_BLE_SDK/GD32VW55x_RELEASE_V1.0.2/MSDK/wpa_supplicant/src/ap\wpa_auth_ie.c **** 		wpa_auth->dot11RSNAPairwiseCipherSelected = selector;
 721:C:/Users/stapi/OneDrive/Desktop/GD32VW553/V1_MQTT_OK/GD32VW55X_Wifi_BLE_SDK/GD32VW55x_RELEASE_V1.0.2/MSDK/wpa_supplicant/src/ap\wpa_auth_ie.c **** 
 722:C:/Users/stapi/OneDrive/Desktop/GD32VW553/V1_MQTT_OK/GD32VW55X_Wifi_BLE_SDK/GD32VW55x_RELEASE_V1.0.2/MSDK/wpa_supplicant/src/ap\wpa_auth_ie.c **** 		selector = wpa_cipher_to_suite(WPA_PROTO_WPA,
 723:C:/Users/stapi/OneDrive/Desktop/GD32VW553/V1_MQTT_OK/GD32VW55X_Wifi_BLE_SDK/GD32VW55x_RELEASE_V1.0.2/MSDK/wpa_supplicant/src/ap\wpa_auth_ie.c **** 					       data.group_cipher);
 724:C:/Users/stapi/OneDrive/Desktop/GD32VW553/V1_MQTT_OK/GD32VW55X_Wifi_BLE_SDK/GD32VW55x_RELEASE_V1.0.2/MSDK/wpa_supplicant/src/ap\wpa_auth_ie.c **** 		if (!selector)
 725:C:/Users/stapi/OneDrive/Desktop/GD32VW553/V1_MQTT_OK/GD32VW55X_Wifi_BLE_SDK/GD32VW55x_RELEASE_V1.0.2/MSDK/wpa_supplicant/src/ap\wpa_auth_ie.c **** 			selector = WPA_CIPHER_SUITE_TKIP;
 726:C:/Users/stapi/OneDrive/Desktop/GD32VW553/V1_MQTT_OK/GD32VW55X_Wifi_BLE_SDK/GD32VW55x_RELEASE_V1.0.2/MSDK/wpa_supplicant/src/ap\wpa_auth_ie.c **** 		wpa_auth->dot11RSNAGroupCipherSelected = selector;
 727:C:/Users/stapi/OneDrive/Desktop/GD32VW553/V1_MQTT_OK/GD32VW55X_Wifi_BLE_SDK/GD32VW55x_RELEASE_V1.0.2/MSDK/wpa_supplicant/src/ap\wpa_auth_ie.c **** 	}
 728:C:/Users/stapi/OneDrive/Desktop/GD32VW553/V1_MQTT_OK/GD32VW55X_Wifi_BLE_SDK/GD32VW55x_RELEASE_V1.0.2/MSDK/wpa_supplicant/src/ap\wpa_auth_ie.c **** 	if (res) {
 729:C:/Users/stapi/OneDrive/Desktop/GD32VW553/V1_MQTT_OK/GD32VW55X_Wifi_BLE_SDK/GD32VW55x_RELEASE_V1.0.2/MSDK/wpa_supplicant/src/ap\wpa_auth_ie.c **** 		wpa_printf(MSG_DEBUG, "Failed to parse WPA/RSN IE from "
 730:C:/Users/stapi/OneDrive/Desktop/GD32VW553/V1_MQTT_OK/GD32VW55X_Wifi_BLE_SDK/GD32VW55x_RELEASE_V1.0.2/MSDK/wpa_supplicant/src/ap\wpa_auth_ie.c **** 			   MACSTR " (res=%d)", MAC2STR(sm->addr), res);
 731:C:/Users/stapi/OneDrive/Desktop/GD32VW553/V1_MQTT_OK/GD32VW55X_Wifi_BLE_SDK/GD32VW55x_RELEASE_V1.0.2/MSDK/wpa_supplicant/src/ap\wpa_auth_ie.c **** 		wpa_hexdump(MSG_DEBUG, "WPA/RSN IE", wpa_ie, wpa_ie_len);
 732:C:/Users/stapi/OneDrive/Desktop/GD32VW553/V1_MQTT_OK/GD32VW55X_Wifi_BLE_SDK/GD32VW55x_RELEASE_V1.0.2/MSDK/wpa_supplicant/src/ap\wpa_auth_ie.c **** 		return WPA_INVALID_IE;
 733:C:/Users/stapi/OneDrive/Desktop/GD32VW553/V1_MQTT_OK/GD32VW55X_Wifi_BLE_SDK/GD32VW55x_RELEASE_V1.0.2/MSDK/wpa_supplicant/src/ap\wpa_auth_ie.c **** 	}
 734:C:/Users/stapi/OneDrive/Desktop/GD32VW553/V1_MQTT_OK/GD32VW55X_Wifi_BLE_SDK/GD32VW55x_RELEASE_V1.0.2/MSDK/wpa_supplicant/src/ap\wpa_auth_ie.c **** 
 735:C:/Users/stapi/OneDrive/Desktop/GD32VW553/V1_MQTT_OK/GD32VW55X_Wifi_BLE_SDK/GD32VW55x_RELEASE_V1.0.2/MSDK/wpa_supplicant/src/ap\wpa_auth_ie.c **** 	if (data.group_cipher != wpa_auth->conf.wpa_group) {
 736:C:/Users/stapi/OneDrive/Desktop/GD32VW553/V1_MQTT_OK/GD32VW55X_Wifi_BLE_SDK/GD32VW55x_RELEASE_V1.0.2/MSDK/wpa_supplicant/src/ap\wpa_auth_ie.c **** 		wpa_printf(MSG_DEBUG, "Invalid WPA group cipher (0x%x) from "
 737:C:/Users/stapi/OneDrive/Desktop/GD32VW553/V1_MQTT_OK/GD32VW55X_Wifi_BLE_SDK/GD32VW55x_RELEASE_V1.0.2/MSDK/wpa_supplicant/src/ap\wpa_auth_ie.c **** 			   MACSTR, data.group_cipher, MAC2STR(sm->addr));
 738:C:/Users/stapi/OneDrive/Desktop/GD32VW553/V1_MQTT_OK/GD32VW55X_Wifi_BLE_SDK/GD32VW55x_RELEASE_V1.0.2/MSDK/wpa_supplicant/src/ap\wpa_auth_ie.c **** 		return WPA_INVALID_GROUP;
 739:C:/Users/stapi/OneDrive/Desktop/GD32VW553/V1_MQTT_OK/GD32VW55X_Wifi_BLE_SDK/GD32VW55x_RELEASE_V1.0.2/MSDK/wpa_supplicant/src/ap\wpa_auth_ie.c **** 	}
 740:C:/Users/stapi/OneDrive/Desktop/GD32VW553/V1_MQTT_OK/GD32VW55X_Wifi_BLE_SDK/GD32VW55x_RELEASE_V1.0.2/MSDK/wpa_supplicant/src/ap\wpa_auth_ie.c **** 
 741:C:/Users/stapi/OneDrive/Desktop/GD32VW553/V1_MQTT_OK/GD32VW55X_Wifi_BLE_SDK/GD32VW55x_RELEASE_V1.0.2/MSDK/wpa_supplicant/src/ap\wpa_auth_ie.c **** 	key_mgmt = data.key_mgmt & wpa_auth->conf.wpa_key_mgmt;
 742:C:/Users/stapi/OneDrive/Desktop/GD32VW553/V1_MQTT_OK/GD32VW55X_Wifi_BLE_SDK/GD32VW55x_RELEASE_V1.0.2/MSDK/wpa_supplicant/src/ap\wpa_auth_ie.c **** 	if (!key_mgmt) {
 743:C:/Users/stapi/OneDrive/Desktop/GD32VW553/V1_MQTT_OK/GD32VW55X_Wifi_BLE_SDK/GD32VW55x_RELEASE_V1.0.2/MSDK/wpa_supplicant/src/ap\wpa_auth_ie.c **** 		wpa_printf(MSG_DEBUG, "Invalid WPA key mgmt (0x%x) from "
 744:C:/Users/stapi/OneDrive/Desktop/GD32VW553/V1_MQTT_OK/GD32VW55X_Wifi_BLE_SDK/GD32VW55x_RELEASE_V1.0.2/MSDK/wpa_supplicant/src/ap\wpa_auth_ie.c **** 			   MACSTR, data.key_mgmt, MAC2STR(sm->addr));
 745:C:/Users/stapi/OneDrive/Desktop/GD32VW553/V1_MQTT_OK/GD32VW55X_Wifi_BLE_SDK/GD32VW55x_RELEASE_V1.0.2/MSDK/wpa_supplicant/src/ap\wpa_auth_ie.c **** 		return WPA_INVALID_AKMP;
 746:C:/Users/stapi/OneDrive/Desktop/GD32VW553/V1_MQTT_OK/GD32VW55X_Wifi_BLE_SDK/GD32VW55x_RELEASE_V1.0.2/MSDK/wpa_supplicant/src/ap\wpa_auth_ie.c **** 	}
 747:C:/Users/stapi/OneDrive/Desktop/GD32VW553/V1_MQTT_OK/GD32VW55X_Wifi_BLE_SDK/GD32VW55x_RELEASE_V1.0.2/MSDK/wpa_supplicant/src/ap\wpa_auth_ie.c **** 	if (0) {
 748:C:/Users/stapi/OneDrive/Desktop/GD32VW553/V1_MQTT_OK/GD32VW55X_Wifi_BLE_SDK/GD32VW55x_RELEASE_V1.0.2/MSDK/wpa_supplicant/src/ap\wpa_auth_ie.c **** 	}
 749:C:/Users/stapi/OneDrive/Desktop/GD32VW553/V1_MQTT_OK/GD32VW55X_Wifi_BLE_SDK/GD32VW55x_RELEASE_V1.0.2/MSDK/wpa_supplicant/src/ap\wpa_auth_ie.c **** 	else if (key_mgmt & WPA_KEY_MGMT_IEEE8021X_SUITE_B_192)
 750:C:/Users/stapi/OneDrive/Desktop/GD32VW553/V1_MQTT_OK/GD32VW55X_Wifi_BLE_SDK/GD32VW55x_RELEASE_V1.0.2/MSDK/wpa_supplicant/src/ap\wpa_auth_ie.c **** 		sm->wpa_key_mgmt = WPA_KEY_MGMT_IEEE8021X_SUITE_B_192;
 751:C:/Users/stapi/OneDrive/Desktop/GD32VW553/V1_MQTT_OK/GD32VW55X_Wifi_BLE_SDK/GD32VW55x_RELEASE_V1.0.2/MSDK/wpa_supplicant/src/ap\wpa_auth_ie.c **** 	else if (key_mgmt & WPA_KEY_MGMT_IEEE8021X_SUITE_B)
 752:C:/Users/stapi/OneDrive/Desktop/GD32VW553/V1_MQTT_OK/GD32VW55X_Wifi_BLE_SDK/GD32VW55x_RELEASE_V1.0.2/MSDK/wpa_supplicant/src/ap\wpa_auth_ie.c **** 		sm->wpa_key_mgmt = WPA_KEY_MGMT_IEEE8021X_SUITE_B;
 753:C:/Users/stapi/OneDrive/Desktop/GD32VW553/V1_MQTT_OK/GD32VW55X_Wifi_BLE_SDK/GD32VW55x_RELEASE_V1.0.2/MSDK/wpa_supplicant/src/ap\wpa_auth_ie.c **** #ifdef CONFIG_FILS
 754:C:/Users/stapi/OneDrive/Desktop/GD32VW553/V1_MQTT_OK/GD32VW55X_Wifi_BLE_SDK/GD32VW55x_RELEASE_V1.0.2/MSDK/wpa_supplicant/src/ap\wpa_auth_ie.c **** #ifdef CONFIG_IEEE80211R_AP
 755:C:/Users/stapi/OneDrive/Desktop/GD32VW553/V1_MQTT_OK/GD32VW55X_Wifi_BLE_SDK/GD32VW55x_RELEASE_V1.0.2/MSDK/wpa_supplicant/src/ap\wpa_auth_ie.c **** 	else if (key_mgmt & WPA_KEY_MGMT_FT_FILS_SHA384)
 756:C:/Users/stapi/OneDrive/Desktop/GD32VW553/V1_MQTT_OK/GD32VW55X_Wifi_BLE_SDK/GD32VW55x_RELEASE_V1.0.2/MSDK/wpa_supplicant/src/ap\wpa_auth_ie.c **** 		sm->wpa_key_mgmt = WPA_KEY_MGMT_FT_FILS_SHA384;
 757:C:/Users/stapi/OneDrive/Desktop/GD32VW553/V1_MQTT_OK/GD32VW55X_Wifi_BLE_SDK/GD32VW55x_RELEASE_V1.0.2/MSDK/wpa_supplicant/src/ap\wpa_auth_ie.c **** 	else if (data.key_mgmt & WPA_KEY_MGMT_FT_FILS_SHA256)
 758:C:/Users/stapi/OneDrive/Desktop/GD32VW553/V1_MQTT_OK/GD32VW55X_Wifi_BLE_SDK/GD32VW55x_RELEASE_V1.0.2/MSDK/wpa_supplicant/src/ap\wpa_auth_ie.c **** 		sm->wpa_key_mgmt = WPA_KEY_MGMT_FT_FILS_SHA256;
 759:C:/Users/stapi/OneDrive/Desktop/GD32VW553/V1_MQTT_OK/GD32VW55X_Wifi_BLE_SDK/GD32VW55x_RELEASE_V1.0.2/MSDK/wpa_supplicant/src/ap\wpa_auth_ie.c **** #endif /* CONFIG_IEEE80211R_AP */
 760:C:/Users/stapi/OneDrive/Desktop/GD32VW553/V1_MQTT_OK/GD32VW55X_Wifi_BLE_SDK/GD32VW55x_RELEASE_V1.0.2/MSDK/wpa_supplicant/src/ap\wpa_auth_ie.c **** 	else if (key_mgmt & WPA_KEY_MGMT_FILS_SHA384)
 761:C:/Users/stapi/OneDrive/Desktop/GD32VW553/V1_MQTT_OK/GD32VW55X_Wifi_BLE_SDK/GD32VW55x_RELEASE_V1.0.2/MSDK/wpa_supplicant/src/ap\wpa_auth_ie.c **** 		sm->wpa_key_mgmt = WPA_KEY_MGMT_FILS_SHA384;
 762:C:/Users/stapi/OneDrive/Desktop/GD32VW553/V1_MQTT_OK/GD32VW55X_Wifi_BLE_SDK/GD32VW55x_RELEASE_V1.0.2/MSDK/wpa_supplicant/src/ap\wpa_auth_ie.c **** 	else if (key_mgmt & WPA_KEY_MGMT_FILS_SHA256)
 763:C:/Users/stapi/OneDrive/Desktop/GD32VW553/V1_MQTT_OK/GD32VW55X_Wifi_BLE_SDK/GD32VW55x_RELEASE_V1.0.2/MSDK/wpa_supplicant/src/ap\wpa_auth_ie.c **** 		sm->wpa_key_mgmt = WPA_KEY_MGMT_FILS_SHA256;
 764:C:/Users/stapi/OneDrive/Desktop/GD32VW553/V1_MQTT_OK/GD32VW55X_Wifi_BLE_SDK/GD32VW55x_RELEASE_V1.0.2/MSDK/wpa_supplicant/src/ap\wpa_auth_ie.c **** #endif /* CONFIG_FILS */
 765:C:/Users/stapi/OneDrive/Desktop/GD32VW553/V1_MQTT_OK/GD32VW55X_Wifi_BLE_SDK/GD32VW55x_RELEASE_V1.0.2/MSDK/wpa_supplicant/src/ap\wpa_auth_ie.c **** #ifdef CONFIG_IEEE80211R_AP
 766:C:/Users/stapi/OneDrive/Desktop/GD32VW553/V1_MQTT_OK/GD32VW55X_Wifi_BLE_SDK/GD32VW55x_RELEASE_V1.0.2/MSDK/wpa_supplicant/src/ap\wpa_auth_ie.c **** #ifdef CONFIG_SHA384
 767:C:/Users/stapi/OneDrive/Desktop/GD32VW553/V1_MQTT_OK/GD32VW55X_Wifi_BLE_SDK/GD32VW55x_RELEASE_V1.0.2/MSDK/wpa_supplicant/src/ap\wpa_auth_ie.c **** 	else if (key_mgmt & WPA_KEY_MGMT_FT_IEEE8021X_SHA384)
 768:C:/Users/stapi/OneDrive/Desktop/GD32VW553/V1_MQTT_OK/GD32VW55X_Wifi_BLE_SDK/GD32VW55x_RELEASE_V1.0.2/MSDK/wpa_supplicant/src/ap\wpa_auth_ie.c **** 		sm->wpa_key_mgmt = WPA_KEY_MGMT_FT_IEEE8021X_SHA384;
 769:C:/Users/stapi/OneDrive/Desktop/GD32VW553/V1_MQTT_OK/GD32VW55X_Wifi_BLE_SDK/GD32VW55x_RELEASE_V1.0.2/MSDK/wpa_supplicant/src/ap\wpa_auth_ie.c **** #endif /* CONFIG_SHA384 */
 770:C:/Users/stapi/OneDrive/Desktop/GD32VW553/V1_MQTT_OK/GD32VW55X_Wifi_BLE_SDK/GD32VW55x_RELEASE_V1.0.2/MSDK/wpa_supplicant/src/ap\wpa_auth_ie.c **** 	else if (key_mgmt & WPA_KEY_MGMT_FT_IEEE8021X)
 771:C:/Users/stapi/OneDrive/Desktop/GD32VW553/V1_MQTT_OK/GD32VW55X_Wifi_BLE_SDK/GD32VW55x_RELEASE_V1.0.2/MSDK/wpa_supplicant/src/ap\wpa_auth_ie.c **** 		sm->wpa_key_mgmt = WPA_KEY_MGMT_FT_IEEE8021X;
 772:C:/Users/stapi/OneDrive/Desktop/GD32VW553/V1_MQTT_OK/GD32VW55X_Wifi_BLE_SDK/GD32VW55x_RELEASE_V1.0.2/MSDK/wpa_supplicant/src/ap\wpa_auth_ie.c **** 	else if (key_mgmt & WPA_KEY_MGMT_FT_PSK)
 773:C:/Users/stapi/OneDrive/Desktop/GD32VW553/V1_MQTT_OK/GD32VW55X_Wifi_BLE_SDK/GD32VW55x_RELEASE_V1.0.2/MSDK/wpa_supplicant/src/ap\wpa_auth_ie.c **** 		sm->wpa_key_mgmt = WPA_KEY_MGMT_FT_PSK;
 774:C:/Users/stapi/OneDrive/Desktop/GD32VW553/V1_MQTT_OK/GD32VW55X_Wifi_BLE_SDK/GD32VW55x_RELEASE_V1.0.2/MSDK/wpa_supplicant/src/ap\wpa_auth_ie.c **** #endif /* CONFIG_IEEE80211R_AP */
 775:C:/Users/stapi/OneDrive/Desktop/GD32VW553/V1_MQTT_OK/GD32VW55X_Wifi_BLE_SDK/GD32VW55x_RELEASE_V1.0.2/MSDK/wpa_supplicant/src/ap\wpa_auth_ie.c **** 	else if (key_mgmt & WPA_KEY_MGMT_IEEE8021X_SHA256)
 776:C:/Users/stapi/OneDrive/Desktop/GD32VW553/V1_MQTT_OK/GD32VW55X_Wifi_BLE_SDK/GD32VW55x_RELEASE_V1.0.2/MSDK/wpa_supplicant/src/ap\wpa_auth_ie.c **** 		sm->wpa_key_mgmt = WPA_KEY_MGMT_IEEE8021X_SHA256;
 777:C:/Users/stapi/OneDrive/Desktop/GD32VW553/V1_MQTT_OK/GD32VW55X_Wifi_BLE_SDK/GD32VW55x_RELEASE_V1.0.2/MSDK/wpa_supplicant/src/ap\wpa_auth_ie.c **** 	else if (key_mgmt & WPA_KEY_MGMT_PSK_SHA256)
 778:C:/Users/stapi/OneDrive/Desktop/GD32VW553/V1_MQTT_OK/GD32VW55X_Wifi_BLE_SDK/GD32VW55x_RELEASE_V1.0.2/MSDK/wpa_supplicant/src/ap\wpa_auth_ie.c **** 		sm->wpa_key_mgmt = WPA_KEY_MGMT_PSK_SHA256;
 779:C:/Users/stapi/OneDrive/Desktop/GD32VW553/V1_MQTT_OK/GD32VW55X_Wifi_BLE_SDK/GD32VW55x_RELEASE_V1.0.2/MSDK/wpa_supplicant/src/ap\wpa_auth_ie.c **** #ifdef CONFIG_SAE
 780:C:/Users/stapi/OneDrive/Desktop/GD32VW553/V1_MQTT_OK/GD32VW55X_Wifi_BLE_SDK/GD32VW55x_RELEASE_V1.0.2/MSDK/wpa_supplicant/src/ap\wpa_auth_ie.c **** 	else if (key_mgmt & WPA_KEY_MGMT_SAE)
 781:C:/Users/stapi/OneDrive/Desktop/GD32VW553/V1_MQTT_OK/GD32VW55X_Wifi_BLE_SDK/GD32VW55x_RELEASE_V1.0.2/MSDK/wpa_supplicant/src/ap\wpa_auth_ie.c **** 		sm->wpa_key_mgmt = WPA_KEY_MGMT_SAE;
 782:C:/Users/stapi/OneDrive/Desktop/GD32VW553/V1_MQTT_OK/GD32VW55X_Wifi_BLE_SDK/GD32VW55x_RELEASE_V1.0.2/MSDK/wpa_supplicant/src/ap\wpa_auth_ie.c **** 	else if (key_mgmt & WPA_KEY_MGMT_FT_SAE)
 783:C:/Users/stapi/OneDrive/Desktop/GD32VW553/V1_MQTT_OK/GD32VW55X_Wifi_BLE_SDK/GD32VW55x_RELEASE_V1.0.2/MSDK/wpa_supplicant/src/ap\wpa_auth_ie.c **** 		sm->wpa_key_mgmt = WPA_KEY_MGMT_FT_SAE;
 784:C:/Users/stapi/OneDrive/Desktop/GD32VW553/V1_MQTT_OK/GD32VW55X_Wifi_BLE_SDK/GD32VW55x_RELEASE_V1.0.2/MSDK/wpa_supplicant/src/ap\wpa_auth_ie.c **** #endif /* CONFIG_SAE */
 785:C:/Users/stapi/OneDrive/Desktop/GD32VW553/V1_MQTT_OK/GD32VW55X_Wifi_BLE_SDK/GD32VW55x_RELEASE_V1.0.2/MSDK/wpa_supplicant/src/ap\wpa_auth_ie.c **** 	else if (key_mgmt & WPA_KEY_MGMT_IEEE8021X)
 786:C:/Users/stapi/OneDrive/Desktop/GD32VW553/V1_MQTT_OK/GD32VW55X_Wifi_BLE_SDK/GD32VW55x_RELEASE_V1.0.2/MSDK/wpa_supplicant/src/ap\wpa_auth_ie.c **** 		sm->wpa_key_mgmt = WPA_KEY_MGMT_IEEE8021X;
 787:C:/Users/stapi/OneDrive/Desktop/GD32VW553/V1_MQTT_OK/GD32VW55X_Wifi_BLE_SDK/GD32VW55x_RELEASE_V1.0.2/MSDK/wpa_supplicant/src/ap\wpa_auth_ie.c **** #ifdef CONFIG_OWE
 788:C:/Users/stapi/OneDrive/Desktop/GD32VW553/V1_MQTT_OK/GD32VW55X_Wifi_BLE_SDK/GD32VW55x_RELEASE_V1.0.2/MSDK/wpa_supplicant/src/ap\wpa_auth_ie.c **** 	else if (key_mgmt & WPA_KEY_MGMT_OWE)
 789:C:/Users/stapi/OneDrive/Desktop/GD32VW553/V1_MQTT_OK/GD32VW55X_Wifi_BLE_SDK/GD32VW55x_RELEASE_V1.0.2/MSDK/wpa_supplicant/src/ap\wpa_auth_ie.c **** 		sm->wpa_key_mgmt = WPA_KEY_MGMT_OWE;
 790:C:/Users/stapi/OneDrive/Desktop/GD32VW553/V1_MQTT_OK/GD32VW55X_Wifi_BLE_SDK/GD32VW55x_RELEASE_V1.0.2/MSDK/wpa_supplicant/src/ap\wpa_auth_ie.c **** #endif /* CONFIG_OWE */
 791:C:/Users/stapi/OneDrive/Desktop/GD32VW553/V1_MQTT_OK/GD32VW55X_Wifi_BLE_SDK/GD32VW55x_RELEASE_V1.0.2/MSDK/wpa_supplicant/src/ap\wpa_auth_ie.c **** #ifdef CONFIG_DPP
 792:C:/Users/stapi/OneDrive/Desktop/GD32VW553/V1_MQTT_OK/GD32VW55X_Wifi_BLE_SDK/GD32VW55x_RELEASE_V1.0.2/MSDK/wpa_supplicant/src/ap\wpa_auth_ie.c **** 	else if (key_mgmt & WPA_KEY_MGMT_DPP)
 793:C:/Users/stapi/OneDrive/Desktop/GD32VW553/V1_MQTT_OK/GD32VW55X_Wifi_BLE_SDK/GD32VW55x_RELEASE_V1.0.2/MSDK/wpa_supplicant/src/ap\wpa_auth_ie.c **** 		sm->wpa_key_mgmt = WPA_KEY_MGMT_DPP;
 794:C:/Users/stapi/OneDrive/Desktop/GD32VW553/V1_MQTT_OK/GD32VW55X_Wifi_BLE_SDK/GD32VW55x_RELEASE_V1.0.2/MSDK/wpa_supplicant/src/ap\wpa_auth_ie.c **** #endif /* CONFIG_DPP */
 795:C:/Users/stapi/OneDrive/Desktop/GD32VW553/V1_MQTT_OK/GD32VW55X_Wifi_BLE_SDK/GD32VW55x_RELEASE_V1.0.2/MSDK/wpa_supplicant/src/ap\wpa_auth_ie.c **** #ifdef CONFIG_HS20
 796:C:/Users/stapi/OneDrive/Desktop/GD32VW553/V1_MQTT_OK/GD32VW55X_Wifi_BLE_SDK/GD32VW55x_RELEASE_V1.0.2/MSDK/wpa_supplicant/src/ap\wpa_auth_ie.c **** 	else if (key_mgmt & WPA_KEY_MGMT_OSEN)
 797:C:/Users/stapi/OneDrive/Desktop/GD32VW553/V1_MQTT_OK/GD32VW55X_Wifi_BLE_SDK/GD32VW55x_RELEASE_V1.0.2/MSDK/wpa_supplicant/src/ap\wpa_auth_ie.c **** 		sm->wpa_key_mgmt = WPA_KEY_MGMT_OSEN;
 798:C:/Users/stapi/OneDrive/Desktop/GD32VW553/V1_MQTT_OK/GD32VW55X_Wifi_BLE_SDK/GD32VW55x_RELEASE_V1.0.2/MSDK/wpa_supplicant/src/ap\wpa_auth_ie.c **** #endif /* CONFIG_HS20 */
 799:C:/Users/stapi/OneDrive/Desktop/GD32VW553/V1_MQTT_OK/GD32VW55X_Wifi_BLE_SDK/GD32VW55x_RELEASE_V1.0.2/MSDK/wpa_supplicant/src/ap\wpa_auth_ie.c **** 	else
 800:C:/Users/stapi/OneDrive/Desktop/GD32VW553/V1_MQTT_OK/GD32VW55X_Wifi_BLE_SDK/GD32VW55x_RELEASE_V1.0.2/MSDK/wpa_supplicant/src/ap\wpa_auth_ie.c **** 		sm->wpa_key_mgmt = WPA_KEY_MGMT_PSK;
 801:C:/Users/stapi/OneDrive/Desktop/GD32VW553/V1_MQTT_OK/GD32VW55X_Wifi_BLE_SDK/GD32VW55x_RELEASE_V1.0.2/MSDK/wpa_supplicant/src/ap\wpa_auth_ie.c **** 
 802:C:/Users/stapi/OneDrive/Desktop/GD32VW553/V1_MQTT_OK/GD32VW55X_Wifi_BLE_SDK/GD32VW55x_RELEASE_V1.0.2/MSDK/wpa_supplicant/src/ap\wpa_auth_ie.c **** 	if (version == WPA_PROTO_RSN)
 803:C:/Users/stapi/OneDrive/Desktop/GD32VW553/V1_MQTT_OK/GD32VW55X_Wifi_BLE_SDK/GD32VW55x_RELEASE_V1.0.2/MSDK/wpa_supplicant/src/ap\wpa_auth_ie.c **** 		ciphers = data.pairwise_cipher & wpa_auth->conf.rsn_pairwise;
 804:C:/Users/stapi/OneDrive/Desktop/GD32VW553/V1_MQTT_OK/GD32VW55X_Wifi_BLE_SDK/GD32VW55x_RELEASE_V1.0.2/MSDK/wpa_supplicant/src/ap\wpa_auth_ie.c **** 	else
 805:C:/Users/stapi/OneDrive/Desktop/GD32VW553/V1_MQTT_OK/GD32VW55X_Wifi_BLE_SDK/GD32VW55x_RELEASE_V1.0.2/MSDK/wpa_supplicant/src/ap\wpa_auth_ie.c **** 		ciphers = data.pairwise_cipher & wpa_auth->conf.wpa_pairwise;
 806:C:/Users/stapi/OneDrive/Desktop/GD32VW553/V1_MQTT_OK/GD32VW55X_Wifi_BLE_SDK/GD32VW55x_RELEASE_V1.0.2/MSDK/wpa_supplicant/src/ap\wpa_auth_ie.c **** 	if (!ciphers) {
 807:C:/Users/stapi/OneDrive/Desktop/GD32VW553/V1_MQTT_OK/GD32VW55X_Wifi_BLE_SDK/GD32VW55x_RELEASE_V1.0.2/MSDK/wpa_supplicant/src/ap\wpa_auth_ie.c **** 		wpa_printf(MSG_DEBUG, "Invalid %s pairwise cipher (0x%x) "
 808:C:/Users/stapi/OneDrive/Desktop/GD32VW553/V1_MQTT_OK/GD32VW55X_Wifi_BLE_SDK/GD32VW55x_RELEASE_V1.0.2/MSDK/wpa_supplicant/src/ap\wpa_auth_ie.c **** 			   "from " MACSTR,
 809:C:/Users/stapi/OneDrive/Desktop/GD32VW553/V1_MQTT_OK/GD32VW55X_Wifi_BLE_SDK/GD32VW55x_RELEASE_V1.0.2/MSDK/wpa_supplicant/src/ap\wpa_auth_ie.c **** 			   version == WPA_PROTO_RSN ? "RSN" : "WPA",
 810:C:/Users/stapi/OneDrive/Desktop/GD32VW553/V1_MQTT_OK/GD32VW55X_Wifi_BLE_SDK/GD32VW55x_RELEASE_V1.0.2/MSDK/wpa_supplicant/src/ap\wpa_auth_ie.c **** 			   data.pairwise_cipher, MAC2STR(sm->addr));
 811:C:/Users/stapi/OneDrive/Desktop/GD32VW553/V1_MQTT_OK/GD32VW55X_Wifi_BLE_SDK/GD32VW55x_RELEASE_V1.0.2/MSDK/wpa_supplicant/src/ap\wpa_auth_ie.c **** 		return WPA_INVALID_PAIRWISE;
 812:C:/Users/stapi/OneDrive/Desktop/GD32VW553/V1_MQTT_OK/GD32VW55X_Wifi_BLE_SDK/GD32VW55x_RELEASE_V1.0.2/MSDK/wpa_supplicant/src/ap\wpa_auth_ie.c **** 	}
 813:C:/Users/stapi/OneDrive/Desktop/GD32VW553/V1_MQTT_OK/GD32VW55X_Wifi_BLE_SDK/GD32VW55x_RELEASE_V1.0.2/MSDK/wpa_supplicant/src/ap\wpa_auth_ie.c **** 
 814:C:/Users/stapi/OneDrive/Desktop/GD32VW553/V1_MQTT_OK/GD32VW55X_Wifi_BLE_SDK/GD32VW55x_RELEASE_V1.0.2/MSDK/wpa_supplicant/src/ap\wpa_auth_ie.c **** 	if (wpa_auth->conf.ieee80211w == MGMT_FRAME_PROTECTION_REQUIRED) {
 815:C:/Users/stapi/OneDrive/Desktop/GD32VW553/V1_MQTT_OK/GD32VW55X_Wifi_BLE_SDK/GD32VW55x_RELEASE_V1.0.2/MSDK/wpa_supplicant/src/ap\wpa_auth_ie.c **** 		if (!(data.capabilities & WPA_CAPABILITY_MFPC)) {
 816:C:/Users/stapi/OneDrive/Desktop/GD32VW553/V1_MQTT_OK/GD32VW55X_Wifi_BLE_SDK/GD32VW55x_RELEASE_V1.0.2/MSDK/wpa_supplicant/src/ap\wpa_auth_ie.c **** 			wpa_printf(MSG_DEBUG, "Management frame protection "
 817:C:/Users/stapi/OneDrive/Desktop/GD32VW553/V1_MQTT_OK/GD32VW55X_Wifi_BLE_SDK/GD32VW55x_RELEASE_V1.0.2/MSDK/wpa_supplicant/src/ap\wpa_auth_ie.c **** 				   "required, but client did not enable it");
 818:C:/Users/stapi/OneDrive/Desktop/GD32VW553/V1_MQTT_OK/GD32VW55X_Wifi_BLE_SDK/GD32VW55x_RELEASE_V1.0.2/MSDK/wpa_supplicant/src/ap\wpa_auth_ie.c **** 			return WPA_MGMT_FRAME_PROTECTION_VIOLATION;
 819:C:/Users/stapi/OneDrive/Desktop/GD32VW553/V1_MQTT_OK/GD32VW55X_Wifi_BLE_SDK/GD32VW55x_RELEASE_V1.0.2/MSDK/wpa_supplicant/src/ap\wpa_auth_ie.c **** 		}
 820:C:/Users/stapi/OneDrive/Desktop/GD32VW553/V1_MQTT_OK/GD32VW55X_Wifi_BLE_SDK/GD32VW55x_RELEASE_V1.0.2/MSDK/wpa_supplicant/src/ap\wpa_auth_ie.c **** 
 821:C:/Users/stapi/OneDrive/Desktop/GD32VW553/V1_MQTT_OK/GD32VW55X_Wifi_BLE_SDK/GD32VW55x_RELEASE_V1.0.2/MSDK/wpa_supplicant/src/ap\wpa_auth_ie.c **** 		if (data.mgmt_group_cipher != wpa_auth->conf.group_mgmt_cipher)
 822:C:/Users/stapi/OneDrive/Desktop/GD32VW553/V1_MQTT_OK/GD32VW55X_Wifi_BLE_SDK/GD32VW55x_RELEASE_V1.0.2/MSDK/wpa_supplicant/src/ap\wpa_auth_ie.c **** 		{
 823:C:/Users/stapi/OneDrive/Desktop/GD32VW553/V1_MQTT_OK/GD32VW55X_Wifi_BLE_SDK/GD32VW55x_RELEASE_V1.0.2/MSDK/wpa_supplicant/src/ap\wpa_auth_ie.c **** 			wpa_printf(MSG_DEBUG, "Unsupported management group "
 824:C:/Users/stapi/OneDrive/Desktop/GD32VW553/V1_MQTT_OK/GD32VW55X_Wifi_BLE_SDK/GD32VW55x_RELEASE_V1.0.2/MSDK/wpa_supplicant/src/ap\wpa_auth_ie.c **** 				   "cipher %d", data.mgmt_group_cipher);
 825:C:/Users/stapi/OneDrive/Desktop/GD32VW553/V1_MQTT_OK/GD32VW55X_Wifi_BLE_SDK/GD32VW55x_RELEASE_V1.0.2/MSDK/wpa_supplicant/src/ap\wpa_auth_ie.c **** 			return WPA_INVALID_MGMT_GROUP_CIPHER;
 826:C:/Users/stapi/OneDrive/Desktop/GD32VW553/V1_MQTT_OK/GD32VW55X_Wifi_BLE_SDK/GD32VW55x_RELEASE_V1.0.2/MSDK/wpa_supplicant/src/ap\wpa_auth_ie.c **** 		}
 827:C:/Users/stapi/OneDrive/Desktop/GD32VW553/V1_MQTT_OK/GD32VW55X_Wifi_BLE_SDK/GD32VW55x_RELEASE_V1.0.2/MSDK/wpa_supplicant/src/ap\wpa_auth_ie.c **** 	}
 828:C:/Users/stapi/OneDrive/Desktop/GD32VW553/V1_MQTT_OK/GD32VW55X_Wifi_BLE_SDK/GD32VW55x_RELEASE_V1.0.2/MSDK/wpa_supplicant/src/ap\wpa_auth_ie.c **** 
 829:C:/Users/stapi/OneDrive/Desktop/GD32VW553/V1_MQTT_OK/GD32VW55X_Wifi_BLE_SDK/GD32VW55x_RELEASE_V1.0.2/MSDK/wpa_supplicant/src/ap\wpa_auth_ie.c **** #ifdef CONFIG_SAE
 830:C:/Users/stapi/OneDrive/Desktop/GD32VW553/V1_MQTT_OK/GD32VW55X_Wifi_BLE_SDK/GD32VW55x_RELEASE_V1.0.2/MSDK/wpa_supplicant/src/ap\wpa_auth_ie.c **** 	if (wpa_auth->conf.ieee80211w == MGMT_FRAME_PROTECTION_OPTIONAL &&
 831:C:/Users/stapi/OneDrive/Desktop/GD32VW553/V1_MQTT_OK/GD32VW55X_Wifi_BLE_SDK/GD32VW55x_RELEASE_V1.0.2/MSDK/wpa_supplicant/src/ap\wpa_auth_ie.c **** 	    wpa_auth->conf.sae_require_mfp &&
 832:C:/Users/stapi/OneDrive/Desktop/GD32VW553/V1_MQTT_OK/GD32VW55X_Wifi_BLE_SDK/GD32VW55x_RELEASE_V1.0.2/MSDK/wpa_supplicant/src/ap\wpa_auth_ie.c **** 	    wpa_key_mgmt_sae(sm->wpa_key_mgmt) &&
 833:C:/Users/stapi/OneDrive/Desktop/GD32VW553/V1_MQTT_OK/GD32VW55X_Wifi_BLE_SDK/GD32VW55x_RELEASE_V1.0.2/MSDK/wpa_supplicant/src/ap\wpa_auth_ie.c **** 	    !(data.capabilities & WPA_CAPABILITY_MFPC)) {
 834:C:/Users/stapi/OneDrive/Desktop/GD32VW553/V1_MQTT_OK/GD32VW55X_Wifi_BLE_SDK/GD32VW55x_RELEASE_V1.0.2/MSDK/wpa_supplicant/src/ap\wpa_auth_ie.c **** 		wpa_printf(MSG_DEBUG,
 835:C:/Users/stapi/OneDrive/Desktop/GD32VW553/V1_MQTT_OK/GD32VW55X_Wifi_BLE_SDK/GD32VW55x_RELEASE_V1.0.2/MSDK/wpa_supplicant/src/ap\wpa_auth_ie.c **** 			   "Management frame protection required with SAE, but client did not enable it");
 836:C:/Users/stapi/OneDrive/Desktop/GD32VW553/V1_MQTT_OK/GD32VW55X_Wifi_BLE_SDK/GD32VW55x_RELEASE_V1.0.2/MSDK/wpa_supplicant/src/ap\wpa_auth_ie.c **** 		return WPA_MGMT_FRAME_PROTECTION_VIOLATION;
 837:C:/Users/stapi/OneDrive/Desktop/GD32VW553/V1_MQTT_OK/GD32VW55X_Wifi_BLE_SDK/GD32VW55x_RELEASE_V1.0.2/MSDK/wpa_supplicant/src/ap\wpa_auth_ie.c **** 	}
 838:C:/Users/stapi/OneDrive/Desktop/GD32VW553/V1_MQTT_OK/GD32VW55X_Wifi_BLE_SDK/GD32VW55x_RELEASE_V1.0.2/MSDK/wpa_supplicant/src/ap\wpa_auth_ie.c **** #endif /* CONFIG_SAE */
 839:C:/Users/stapi/OneDrive/Desktop/GD32VW553/V1_MQTT_OK/GD32VW55X_Wifi_BLE_SDK/GD32VW55x_RELEASE_V1.0.2/MSDK/wpa_supplicant/src/ap\wpa_auth_ie.c **** 
 840:C:/Users/stapi/OneDrive/Desktop/GD32VW553/V1_MQTT_OK/GD32VW55X_Wifi_BLE_SDK/GD32VW55x_RELEASE_V1.0.2/MSDK/wpa_supplicant/src/ap\wpa_auth_ie.c **** #ifdef CONFIG_OCV
 841:C:/Users/stapi/OneDrive/Desktop/GD32VW553/V1_MQTT_OK/GD32VW55X_Wifi_BLE_SDK/GD32VW55x_RELEASE_V1.0.2/MSDK/wpa_supplicant/src/ap\wpa_auth_ie.c **** 	if (wpa_auth->conf.ocv && (data.capabilities & WPA_CAPABILITY_OCVC) &&
 842:C:/Users/stapi/OneDrive/Desktop/GD32VW553/V1_MQTT_OK/GD32VW55X_Wifi_BLE_SDK/GD32VW55x_RELEASE_V1.0.2/MSDK/wpa_supplicant/src/ap\wpa_auth_ie.c **** 	    !(data.capabilities & WPA_CAPABILITY_MFPC)) {
 843:C:/Users/stapi/OneDrive/Desktop/GD32VW553/V1_MQTT_OK/GD32VW55X_Wifi_BLE_SDK/GD32VW55x_RELEASE_V1.0.2/MSDK/wpa_supplicant/src/ap\wpa_auth_ie.c **** 		/* Some legacy MFP incapable STAs wrongly copy OCVC bit from
 844:C:/Users/stapi/OneDrive/Desktop/GD32VW553/V1_MQTT_OK/GD32VW55X_Wifi_BLE_SDK/GD32VW55x_RELEASE_V1.0.2/MSDK/wpa_supplicant/src/ap\wpa_auth_ie.c **** 		 * AP RSN capabilities. To improve interoperability with such
 845:C:/Users/stapi/OneDrive/Desktop/GD32VW553/V1_MQTT_OK/GD32VW55X_Wifi_BLE_SDK/GD32VW55x_RELEASE_V1.0.2/MSDK/wpa_supplicant/src/ap\wpa_auth_ie.c **** 		 * legacy STAs allow connection without enabling OCV when the
 846:C:/Users/stapi/OneDrive/Desktop/GD32VW553/V1_MQTT_OK/GD32VW55X_Wifi_BLE_SDK/GD32VW55x_RELEASE_V1.0.2/MSDK/wpa_supplicant/src/ap\wpa_auth_ie.c **** 		 * workaround mode (ocv=2) is enabled.
 847:C:/Users/stapi/OneDrive/Desktop/GD32VW553/V1_MQTT_OK/GD32VW55X_Wifi_BLE_SDK/GD32VW55x_RELEASE_V1.0.2/MSDK/wpa_supplicant/src/ap\wpa_auth_ie.c **** 		 */
 848:C:/Users/stapi/OneDrive/Desktop/GD32VW553/V1_MQTT_OK/GD32VW55X_Wifi_BLE_SDK/GD32VW55x_RELEASE_V1.0.2/MSDK/wpa_supplicant/src/ap\wpa_auth_ie.c **** 		if (wpa_auth->conf.ocv == 2) {
 849:C:/Users/stapi/OneDrive/Desktop/GD32VW553/V1_MQTT_OK/GD32VW55X_Wifi_BLE_SDK/GD32VW55x_RELEASE_V1.0.2/MSDK/wpa_supplicant/src/ap\wpa_auth_ie.c **** 			wpa_printf(MSG_DEBUG,
 850:C:/Users/stapi/OneDrive/Desktop/GD32VW553/V1_MQTT_OK/GD32VW55X_Wifi_BLE_SDK/GD32VW55x_RELEASE_V1.0.2/MSDK/wpa_supplicant/src/ap\wpa_auth_ie.c **** 				   "Allow connecting MFP incapable and OCV capable STA without enabling OCV");
 851:C:/Users/stapi/OneDrive/Desktop/GD32VW553/V1_MQTT_OK/GD32VW55X_Wifi_BLE_SDK/GD32VW55x_RELEASE_V1.0.2/MSDK/wpa_supplicant/src/ap\wpa_auth_ie.c **** 			wpa_auth_set_ocv(sm, 0);
 852:C:/Users/stapi/OneDrive/Desktop/GD32VW553/V1_MQTT_OK/GD32VW55X_Wifi_BLE_SDK/GD32VW55x_RELEASE_V1.0.2/MSDK/wpa_supplicant/src/ap\wpa_auth_ie.c **** 		} else {
 853:C:/Users/stapi/OneDrive/Desktop/GD32VW553/V1_MQTT_OK/GD32VW55X_Wifi_BLE_SDK/GD32VW55x_RELEASE_V1.0.2/MSDK/wpa_supplicant/src/ap\wpa_auth_ie.c **** 			wpa_printf(MSG_DEBUG,
 854:C:/Users/stapi/OneDrive/Desktop/GD32VW553/V1_MQTT_OK/GD32VW55X_Wifi_BLE_SDK/GD32VW55x_RELEASE_V1.0.2/MSDK/wpa_supplicant/src/ap\wpa_auth_ie.c **** 				   "Management frame protection required with OCV, but client did not enable it");
 855:C:/Users/stapi/OneDrive/Desktop/GD32VW553/V1_MQTT_OK/GD32VW55X_Wifi_BLE_SDK/GD32VW55x_RELEASE_V1.0.2/MSDK/wpa_supplicant/src/ap\wpa_auth_ie.c **** 			return WPA_MGMT_FRAME_PROTECTION_VIOLATION;
 856:C:/Users/stapi/OneDrive/Desktop/GD32VW553/V1_MQTT_OK/GD32VW55X_Wifi_BLE_SDK/GD32VW55x_RELEASE_V1.0.2/MSDK/wpa_supplicant/src/ap\wpa_auth_ie.c **** 		}
 857:C:/Users/stapi/OneDrive/Desktop/GD32VW553/V1_MQTT_OK/GD32VW55X_Wifi_BLE_SDK/GD32VW55x_RELEASE_V1.0.2/MSDK/wpa_supplicant/src/ap\wpa_auth_ie.c **** 	} else {
 858:C:/Users/stapi/OneDrive/Desktop/GD32VW553/V1_MQTT_OK/GD32VW55X_Wifi_BLE_SDK/GD32VW55x_RELEASE_V1.0.2/MSDK/wpa_supplicant/src/ap\wpa_auth_ie.c **** 		wpa_auth_set_ocv(sm, (data.capabilities & WPA_CAPABILITY_OCVC) ?
 859:C:/Users/stapi/OneDrive/Desktop/GD32VW553/V1_MQTT_OK/GD32VW55X_Wifi_BLE_SDK/GD32VW55x_RELEASE_V1.0.2/MSDK/wpa_supplicant/src/ap\wpa_auth_ie.c **** 				 wpa_auth->conf.ocv : 0);
 860:C:/Users/stapi/OneDrive/Desktop/GD32VW553/V1_MQTT_OK/GD32VW55X_Wifi_BLE_SDK/GD32VW55x_RELEASE_V1.0.2/MSDK/wpa_supplicant/src/ap\wpa_auth_ie.c **** 	}
 861:C:/Users/stapi/OneDrive/Desktop/GD32VW553/V1_MQTT_OK/GD32VW55X_Wifi_BLE_SDK/GD32VW55x_RELEASE_V1.0.2/MSDK/wpa_supplicant/src/ap\wpa_auth_ie.c **** #endif /* CONFIG_OCV */
 862:C:/Users/stapi/OneDrive/Desktop/GD32VW553/V1_MQTT_OK/GD32VW55X_Wifi_BLE_SDK/GD32VW55x_RELEASE_V1.0.2/MSDK/wpa_supplicant/src/ap\wpa_auth_ie.c **** 
 863:C:/Users/stapi/OneDrive/Desktop/GD32VW553/V1_MQTT_OK/GD32VW55X_Wifi_BLE_SDK/GD32VW55x_RELEASE_V1.0.2/MSDK/wpa_supplicant/src/ap\wpa_auth_ie.c **** 	if (wpa_auth->conf.ieee80211w == NO_MGMT_FRAME_PROTECTION ||
 864:C:/Users/stapi/OneDrive/Desktop/GD32VW553/V1_MQTT_OK/GD32VW55X_Wifi_BLE_SDK/GD32VW55x_RELEASE_V1.0.2/MSDK/wpa_supplicant/src/ap\wpa_auth_ie.c **** 	    !(data.capabilities & WPA_CAPABILITY_MFPC))
 865:C:/Users/stapi/OneDrive/Desktop/GD32VW553/V1_MQTT_OK/GD32VW55X_Wifi_BLE_SDK/GD32VW55x_RELEASE_V1.0.2/MSDK/wpa_supplicant/src/ap\wpa_auth_ie.c **** 		sm->mgmt_frame_prot = 0;
 866:C:/Users/stapi/OneDrive/Desktop/GD32VW553/V1_MQTT_OK/GD32VW55X_Wifi_BLE_SDK/GD32VW55x_RELEASE_V1.0.2/MSDK/wpa_supplicant/src/ap\wpa_auth_ie.c **** 	else
 867:C:/Users/stapi/OneDrive/Desktop/GD32VW553/V1_MQTT_OK/GD32VW55X_Wifi_BLE_SDK/GD32VW55x_RELEASE_V1.0.2/MSDK/wpa_supplicant/src/ap\wpa_auth_ie.c **** 		sm->mgmt_frame_prot = 1;
 868:C:/Users/stapi/OneDrive/Desktop/GD32VW553/V1_MQTT_OK/GD32VW55X_Wifi_BLE_SDK/GD32VW55x_RELEASE_V1.0.2/MSDK/wpa_supplicant/src/ap\wpa_auth_ie.c **** 
 869:C:/Users/stapi/OneDrive/Desktop/GD32VW553/V1_MQTT_OK/GD32VW55X_Wifi_BLE_SDK/GD32VW55x_RELEASE_V1.0.2/MSDK/wpa_supplicant/src/ap\wpa_auth_ie.c **** 	if (sm->mgmt_frame_prot && (ciphers & WPA_CIPHER_TKIP)) {
 870:C:/Users/stapi/OneDrive/Desktop/GD32VW553/V1_MQTT_OK/GD32VW55X_Wifi_BLE_SDK/GD32VW55x_RELEASE_V1.0.2/MSDK/wpa_supplicant/src/ap\wpa_auth_ie.c **** 		    wpa_printf(MSG_DEBUG,
 871:C:/Users/stapi/OneDrive/Desktop/GD32VW553/V1_MQTT_OK/GD32VW55X_Wifi_BLE_SDK/GD32VW55x_RELEASE_V1.0.2/MSDK/wpa_supplicant/src/ap\wpa_auth_ie.c **** 			       "Management frame protection cannot use TKIP");
 872:C:/Users/stapi/OneDrive/Desktop/GD32VW553/V1_MQTT_OK/GD32VW55X_Wifi_BLE_SDK/GD32VW55x_RELEASE_V1.0.2/MSDK/wpa_supplicant/src/ap\wpa_auth_ie.c **** 		    return WPA_MGMT_FRAME_PROTECTION_VIOLATION;
 873:C:/Users/stapi/OneDrive/Desktop/GD32VW553/V1_MQTT_OK/GD32VW55X_Wifi_BLE_SDK/GD32VW55x_RELEASE_V1.0.2/MSDK/wpa_supplicant/src/ap\wpa_auth_ie.c **** 	}
 874:C:/Users/stapi/OneDrive/Desktop/GD32VW553/V1_MQTT_OK/GD32VW55X_Wifi_BLE_SDK/GD32VW55x_RELEASE_V1.0.2/MSDK/wpa_supplicant/src/ap\wpa_auth_ie.c **** 
 875:C:/Users/stapi/OneDrive/Desktop/GD32VW553/V1_MQTT_OK/GD32VW55X_Wifi_BLE_SDK/GD32VW55x_RELEASE_V1.0.2/MSDK/wpa_supplicant/src/ap\wpa_auth_ie.c **** #ifdef CONFIG_IEEE80211R_AP
 876:C:/Users/stapi/OneDrive/Desktop/GD32VW553/V1_MQTT_OK/GD32VW55X_Wifi_BLE_SDK/GD32VW55x_RELEASE_V1.0.2/MSDK/wpa_supplicant/src/ap\wpa_auth_ie.c **** 	if (wpa_key_mgmt_ft(sm->wpa_key_mgmt)) {
 877:C:/Users/stapi/OneDrive/Desktop/GD32VW553/V1_MQTT_OK/GD32VW55X_Wifi_BLE_SDK/GD32VW55x_RELEASE_V1.0.2/MSDK/wpa_supplicant/src/ap\wpa_auth_ie.c **** 		if (mdie == NULL || mdie_len < MOBILITY_DOMAIN_ID_LEN + 1) {
 878:C:/Users/stapi/OneDrive/Desktop/GD32VW553/V1_MQTT_OK/GD32VW55X_Wifi_BLE_SDK/GD32VW55x_RELEASE_V1.0.2/MSDK/wpa_supplicant/src/ap\wpa_auth_ie.c **** 			wpa_printf(MSG_DEBUG, "RSN: Trying to use FT, but "
 879:C:/Users/stapi/OneDrive/Desktop/GD32VW553/V1_MQTT_OK/GD32VW55X_Wifi_BLE_SDK/GD32VW55x_RELEASE_V1.0.2/MSDK/wpa_supplicant/src/ap\wpa_auth_ie.c **** 				   "MDIE not included");
 880:C:/Users/stapi/OneDrive/Desktop/GD32VW553/V1_MQTT_OK/GD32VW55X_Wifi_BLE_SDK/GD32VW55x_RELEASE_V1.0.2/MSDK/wpa_supplicant/src/ap\wpa_auth_ie.c **** 			return WPA_INVALID_MDIE;
 881:C:/Users/stapi/OneDrive/Desktop/GD32VW553/V1_MQTT_OK/GD32VW55X_Wifi_BLE_SDK/GD32VW55x_RELEASE_V1.0.2/MSDK/wpa_supplicant/src/ap\wpa_auth_ie.c **** 		}
 882:C:/Users/stapi/OneDrive/Desktop/GD32VW553/V1_MQTT_OK/GD32VW55X_Wifi_BLE_SDK/GD32VW55x_RELEASE_V1.0.2/MSDK/wpa_supplicant/src/ap\wpa_auth_ie.c **** 		if (os_memcmp(mdie, wpa_auth->conf.mobility_domain,
 883:C:/Users/stapi/OneDrive/Desktop/GD32VW553/V1_MQTT_OK/GD32VW55X_Wifi_BLE_SDK/GD32VW55x_RELEASE_V1.0.2/MSDK/wpa_supplicant/src/ap\wpa_auth_ie.c **** 			      MOBILITY_DOMAIN_ID_LEN) != 0) {
 884:C:/Users/stapi/OneDrive/Desktop/GD32VW553/V1_MQTT_OK/GD32VW55X_Wifi_BLE_SDK/GD32VW55x_RELEASE_V1.0.2/MSDK/wpa_supplicant/src/ap\wpa_auth_ie.c **** 			wpa_hexdump(MSG_DEBUG, "RSN: Attempted to use unknown "
 885:C:/Users/stapi/OneDrive/Desktop/GD32VW553/V1_MQTT_OK/GD32VW55X_Wifi_BLE_SDK/GD32VW55x_RELEASE_V1.0.2/MSDK/wpa_supplicant/src/ap\wpa_auth_ie.c **** 				    "MDIE", mdie, MOBILITY_DOMAIN_ID_LEN);
 886:C:/Users/stapi/OneDrive/Desktop/GD32VW553/V1_MQTT_OK/GD32VW55X_Wifi_BLE_SDK/GD32VW55x_RELEASE_V1.0.2/MSDK/wpa_supplicant/src/ap\wpa_auth_ie.c **** 			return WPA_INVALID_MDIE;
 887:C:/Users/stapi/OneDrive/Desktop/GD32VW553/V1_MQTT_OK/GD32VW55X_Wifi_BLE_SDK/GD32VW55x_RELEASE_V1.0.2/MSDK/wpa_supplicant/src/ap\wpa_auth_ie.c **** 		}
 888:C:/Users/stapi/OneDrive/Desktop/GD32VW553/V1_MQTT_OK/GD32VW55X_Wifi_BLE_SDK/GD32VW55x_RELEASE_V1.0.2/MSDK/wpa_supplicant/src/ap\wpa_auth_ie.c **** 	} else if (mdie != NULL) {
 889:C:/Users/stapi/OneDrive/Desktop/GD32VW553/V1_MQTT_OK/GD32VW55X_Wifi_BLE_SDK/GD32VW55x_RELEASE_V1.0.2/MSDK/wpa_supplicant/src/ap\wpa_auth_ie.c **** 		wpa_printf(MSG_DEBUG,
 890:C:/Users/stapi/OneDrive/Desktop/GD32VW553/V1_MQTT_OK/GD32VW55X_Wifi_BLE_SDK/GD32VW55x_RELEASE_V1.0.2/MSDK/wpa_supplicant/src/ap\wpa_auth_ie.c **** 			   "RSN: Trying to use non-FT AKM suite, but MDIE included");
 891:C:/Users/stapi/OneDrive/Desktop/GD32VW553/V1_MQTT_OK/GD32VW55X_Wifi_BLE_SDK/GD32VW55x_RELEASE_V1.0.2/MSDK/wpa_supplicant/src/ap\wpa_auth_ie.c **** 		return WPA_INVALID_AKMP;
 892:C:/Users/stapi/OneDrive/Desktop/GD32VW553/V1_MQTT_OK/GD32VW55X_Wifi_BLE_SDK/GD32VW55x_RELEASE_V1.0.2/MSDK/wpa_supplicant/src/ap\wpa_auth_ie.c **** 	}
 893:C:/Users/stapi/OneDrive/Desktop/GD32VW553/V1_MQTT_OK/GD32VW55X_Wifi_BLE_SDK/GD32VW55x_RELEASE_V1.0.2/MSDK/wpa_supplicant/src/ap\wpa_auth_ie.c **** #endif /* CONFIG_IEEE80211R_AP */
 894:C:/Users/stapi/OneDrive/Desktop/GD32VW553/V1_MQTT_OK/GD32VW55X_Wifi_BLE_SDK/GD32VW55x_RELEASE_V1.0.2/MSDK/wpa_supplicant/src/ap\wpa_auth_ie.c **** 
 895:C:/Users/stapi/OneDrive/Desktop/GD32VW553/V1_MQTT_OK/GD32VW55X_Wifi_BLE_SDK/GD32VW55x_RELEASE_V1.0.2/MSDK/wpa_supplicant/src/ap\wpa_auth_ie.c **** #ifdef CONFIG_OWE
 896:C:/Users/stapi/OneDrive/Desktop/GD32VW553/V1_MQTT_OK/GD32VW55X_Wifi_BLE_SDK/GD32VW55x_RELEASE_V1.0.2/MSDK/wpa_supplicant/src/ap\wpa_auth_ie.c **** 	if (sm->wpa_key_mgmt == WPA_KEY_MGMT_OWE && !owe_dh) {
 897:C:/Users/stapi/OneDrive/Desktop/GD32VW553/V1_MQTT_OK/GD32VW55X_Wifi_BLE_SDK/GD32VW55x_RELEASE_V1.0.2/MSDK/wpa_supplicant/src/ap\wpa_auth_ie.c **** 		wpa_printf(MSG_DEBUG,
 898:C:/Users/stapi/OneDrive/Desktop/GD32VW553/V1_MQTT_OK/GD32VW55X_Wifi_BLE_SDK/GD32VW55x_RELEASE_V1.0.2/MSDK/wpa_supplicant/src/ap\wpa_auth_ie.c **** 			   "OWE: No Diffie-Hellman Parameter element");
 899:C:/Users/stapi/OneDrive/Desktop/GD32VW553/V1_MQTT_OK/GD32VW55X_Wifi_BLE_SDK/GD32VW55x_RELEASE_V1.0.2/MSDK/wpa_supplicant/src/ap\wpa_auth_ie.c **** 		return WPA_INVALID_AKMP;
 900:C:/Users/stapi/OneDrive/Desktop/GD32VW553/V1_MQTT_OK/GD32VW55X_Wifi_BLE_SDK/GD32VW55x_RELEASE_V1.0.2/MSDK/wpa_supplicant/src/ap\wpa_auth_ie.c **** 	}
 901:C:/Users/stapi/OneDrive/Desktop/GD32VW553/V1_MQTT_OK/GD32VW55X_Wifi_BLE_SDK/GD32VW55x_RELEASE_V1.0.2/MSDK/wpa_supplicant/src/ap\wpa_auth_ie.c **** #endif /* CONFIG_OWE */
 902:C:/Users/stapi/OneDrive/Desktop/GD32VW553/V1_MQTT_OK/GD32VW55X_Wifi_BLE_SDK/GD32VW55x_RELEASE_V1.0.2/MSDK/wpa_supplicant/src/ap\wpa_auth_ie.c **** 
 903:C:/Users/stapi/OneDrive/Desktop/GD32VW553/V1_MQTT_OK/GD32VW55X_Wifi_BLE_SDK/GD32VW55x_RELEASE_V1.0.2/MSDK/wpa_supplicant/src/ap\wpa_auth_ie.c **** #ifdef CONFIG_DPP2
 904:C:/Users/stapi/OneDrive/Desktop/GD32VW553/V1_MQTT_OK/GD32VW55X_Wifi_BLE_SDK/GD32VW55x_RELEASE_V1.0.2/MSDK/wpa_supplicant/src/ap\wpa_auth_ie.c **** 	if (sm->wpa_key_mgmt == WPA_KEY_MGMT_DPP &&
 905:C:/Users/stapi/OneDrive/Desktop/GD32VW553/V1_MQTT_OK/GD32VW55X_Wifi_BLE_SDK/GD32VW55x_RELEASE_V1.0.2/MSDK/wpa_supplicant/src/ap\wpa_auth_ie.c **** 	    ((conf->dpp_pfs == 1 && !owe_dh) ||
 906:C:/Users/stapi/OneDrive/Desktop/GD32VW553/V1_MQTT_OK/GD32VW55X_Wifi_BLE_SDK/GD32VW55x_RELEASE_V1.0.2/MSDK/wpa_supplicant/src/ap\wpa_auth_ie.c **** 	     (conf->dpp_pfs == 2 && owe_dh))) {
 907:C:/Users/stapi/OneDrive/Desktop/GD32VW553/V1_MQTT_OK/GD32VW55X_Wifi_BLE_SDK/GD32VW55x_RELEASE_V1.0.2/MSDK/wpa_supplicant/src/ap\wpa_auth_ie.c **** 		wpa_printf(MSG_DEBUG, "DPP: PFS %s",
 908:C:/Users/stapi/OneDrive/Desktop/GD32VW553/V1_MQTT_OK/GD32VW55X_Wifi_BLE_SDK/GD32VW55x_RELEASE_V1.0.2/MSDK/wpa_supplicant/src/ap\wpa_auth_ie.c **** 			   conf->dpp_pfs == 1 ? "required" : "not allowed");
 909:C:/Users/stapi/OneDrive/Desktop/GD32VW553/V1_MQTT_OK/GD32VW55X_Wifi_BLE_SDK/GD32VW55x_RELEASE_V1.0.2/MSDK/wpa_supplicant/src/ap\wpa_auth_ie.c **** 		return WPA_DENIED_OTHER_REASON;
 910:C:/Users/stapi/OneDrive/Desktop/GD32VW553/V1_MQTT_OK/GD32VW55X_Wifi_BLE_SDK/GD32VW55x_RELEASE_V1.0.2/MSDK/wpa_supplicant/src/ap\wpa_auth_ie.c **** 	}
 911:C:/Users/stapi/OneDrive/Desktop/GD32VW553/V1_MQTT_OK/GD32VW55X_Wifi_BLE_SDK/GD32VW55x_RELEASE_V1.0.2/MSDK/wpa_supplicant/src/ap\wpa_auth_ie.c **** #endif /* CONFIG_DPP2 */
 912:C:/Users/stapi/OneDrive/Desktop/GD32VW553/V1_MQTT_OK/GD32VW55X_Wifi_BLE_SDK/GD32VW55x_RELEASE_V1.0.2/MSDK/wpa_supplicant/src/ap\wpa_auth_ie.c **** 
 913:C:/Users/stapi/OneDrive/Desktop/GD32VW553/V1_MQTT_OK/GD32VW55X_Wifi_BLE_SDK/GD32VW55x_RELEASE_V1.0.2/MSDK/wpa_supplicant/src/ap\wpa_auth_ie.c **** 	sm->pairwise = wpa_pick_pairwise_cipher(ciphers, 0);
 914:C:/Users/stapi/OneDrive/Desktop/GD32VW553/V1_MQTT_OK/GD32VW55X_Wifi_BLE_SDK/GD32VW55x_RELEASE_V1.0.2/MSDK/wpa_supplicant/src/ap\wpa_auth_ie.c **** 	if (sm->pairwise < 0)
 915:C:/Users/stapi/OneDrive/Desktop/GD32VW553/V1_MQTT_OK/GD32VW55X_Wifi_BLE_SDK/GD32VW55x_RELEASE_V1.0.2/MSDK/wpa_supplicant/src/ap\wpa_auth_ie.c **** 		return WPA_INVALID_PAIRWISE;
 916:C:/Users/stapi/OneDrive/Desktop/GD32VW553/V1_MQTT_OK/GD32VW55X_Wifi_BLE_SDK/GD32VW55x_RELEASE_V1.0.2/MSDK/wpa_supplicant/src/ap\wpa_auth_ie.c **** 
 917:C:/Users/stapi/OneDrive/Desktop/GD32VW553/V1_MQTT_OK/GD32VW55X_Wifi_BLE_SDK/GD32VW55x_RELEASE_V1.0.2/MSDK/wpa_supplicant/src/ap\wpa_auth_ie.c **** 	/* TODO: clear WPA/WPA2 state if STA changes from one to another */
 918:C:/Users/stapi/OneDrive/Desktop/GD32VW553/V1_MQTT_OK/GD32VW55X_Wifi_BLE_SDK/GD32VW55x_RELEASE_V1.0.2/MSDK/wpa_supplicant/src/ap\wpa_auth_ie.c **** 	if (wpa_ie[0] == WLAN_EID_RSN)
 919:C:/Users/stapi/OneDrive/Desktop/GD32VW553/V1_MQTT_OK/GD32VW55X_Wifi_BLE_SDK/GD32VW55x_RELEASE_V1.0.2/MSDK/wpa_supplicant/src/ap\wpa_auth_ie.c **** 		sm->wpa = WPA_VERSION_WPA2;
 920:C:/Users/stapi/OneDrive/Desktop/GD32VW553/V1_MQTT_OK/GD32VW55X_Wifi_BLE_SDK/GD32VW55x_RELEASE_V1.0.2/MSDK/wpa_supplicant/src/ap\wpa_auth_ie.c **** 	else
 921:C:/Users/stapi/OneDrive/Desktop/GD32VW553/V1_MQTT_OK/GD32VW55X_Wifi_BLE_SDK/GD32VW55x_RELEASE_V1.0.2/MSDK/wpa_supplicant/src/ap\wpa_auth_ie.c **** 		sm->wpa = WPA_VERSION_WPA;
 922:C:/Users/stapi/OneDrive/Desktop/GD32VW553/V1_MQTT_OK/GD32VW55X_Wifi_BLE_SDK/GD32VW55x_RELEASE_V1.0.2/MSDK/wpa_supplicant/src/ap\wpa_auth_ie.c **** 
 923:C:/Users/stapi/OneDrive/Desktop/GD32VW553/V1_MQTT_OK/GD32VW55X_Wifi_BLE_SDK/GD32VW55x_RELEASE_V1.0.2/MSDK/wpa_supplicant/src/ap\wpa_auth_ie.c **** #if defined(CONFIG_IEEE80211R_AP) && defined(CONFIG_FILS)
 924:C:/Users/stapi/OneDrive/Desktop/GD32VW553/V1_MQTT_OK/GD32VW55X_Wifi_BLE_SDK/GD32VW55x_RELEASE_V1.0.2/MSDK/wpa_supplicant/src/ap\wpa_auth_ie.c **** 	if ((sm->wpa_key_mgmt == WPA_KEY_MGMT_FT_FILS_SHA256 ||
 925:C:/Users/stapi/OneDrive/Desktop/GD32VW553/V1_MQTT_OK/GD32VW55X_Wifi_BLE_SDK/GD32VW55x_RELEASE_V1.0.2/MSDK/wpa_supplicant/src/ap\wpa_auth_ie.c **** 	     sm->wpa_key_mgmt == WPA_KEY_MGMT_FT_FILS_SHA384) &&
 926:C:/Users/stapi/OneDrive/Desktop/GD32VW553/V1_MQTT_OK/GD32VW55X_Wifi_BLE_SDK/GD32VW55x_RELEASE_V1.0.2/MSDK/wpa_supplicant/src/ap\wpa_auth_ie.c **** 	    (sm->auth_alg == WLAN_AUTH_FILS_SK ||
 927:C:/Users/stapi/OneDrive/Desktop/GD32VW553/V1_MQTT_OK/GD32VW55X_Wifi_BLE_SDK/GD32VW55x_RELEASE_V1.0.2/MSDK/wpa_supplicant/src/ap\wpa_auth_ie.c **** 	     sm->auth_alg == WLAN_AUTH_FILS_SK_PFS ||
 928:C:/Users/stapi/OneDrive/Desktop/GD32VW553/V1_MQTT_OK/GD32VW55X_Wifi_BLE_SDK/GD32VW55x_RELEASE_V1.0.2/MSDK/wpa_supplicant/src/ap\wpa_auth_ie.c **** 	     sm->auth_alg == WLAN_AUTH_FILS_PK) &&
 929:C:/Users/stapi/OneDrive/Desktop/GD32VW553/V1_MQTT_OK/GD32VW55X_Wifi_BLE_SDK/GD32VW55x_RELEASE_V1.0.2/MSDK/wpa_supplicant/src/ap\wpa_auth_ie.c **** 	    (data.num_pmkid != 1 || !data.pmkid || !sm->pmk_r1_name_valid ||
 930:C:/Users/stapi/OneDrive/Desktop/GD32VW553/V1_MQTT_OK/GD32VW55X_Wifi_BLE_SDK/GD32VW55x_RELEASE_V1.0.2/MSDK/wpa_supplicant/src/ap\wpa_auth_ie.c **** 	     os_memcmp_const(data.pmkid, sm->pmk_r1_name,
 931:C:/Users/stapi/OneDrive/Desktop/GD32VW553/V1_MQTT_OK/GD32VW55X_Wifi_BLE_SDK/GD32VW55x_RELEASE_V1.0.2/MSDK/wpa_supplicant/src/ap\wpa_auth_ie.c **** 			     WPA_PMK_NAME_LEN) != 0)) {
 932:C:/Users/stapi/OneDrive/Desktop/GD32VW553/V1_MQTT_OK/GD32VW55X_Wifi_BLE_SDK/GD32VW55x_RELEASE_V1.0.2/MSDK/wpa_supplicant/src/ap\wpa_auth_ie.c **** 		wpa_auth_vlogger(wpa_auth, sm->addr, LOGGER_DEBUG,
 933:C:/Users/stapi/OneDrive/Desktop/GD32VW553/V1_MQTT_OK/GD32VW55X_Wifi_BLE_SDK/GD32VW55x_RELEASE_V1.0.2/MSDK/wpa_supplicant/src/ap\wpa_auth_ie.c **** 				 "No PMKR1Name match for FILS+FT");
 934:C:/Users/stapi/OneDrive/Desktop/GD32VW553/V1_MQTT_OK/GD32VW55X_Wifi_BLE_SDK/GD32VW55x_RELEASE_V1.0.2/MSDK/wpa_supplicant/src/ap\wpa_auth_ie.c **** 		return WPA_INVALID_PMKID;
 935:C:/Users/stapi/OneDrive/Desktop/GD32VW553/V1_MQTT_OK/GD32VW55X_Wifi_BLE_SDK/GD32VW55x_RELEASE_V1.0.2/MSDK/wpa_supplicant/src/ap\wpa_auth_ie.c **** 	}
 936:C:/Users/stapi/OneDrive/Desktop/GD32VW553/V1_MQTT_OK/GD32VW55X_Wifi_BLE_SDK/GD32VW55x_RELEASE_V1.0.2/MSDK/wpa_supplicant/src/ap\wpa_auth_ie.c **** #endif /* CONFIG_IEEE80211R_AP && CONFIG_FILS */
 937:C:/Users/stapi/OneDrive/Desktop/GD32VW553/V1_MQTT_OK/GD32VW55X_Wifi_BLE_SDK/GD32VW55x_RELEASE_V1.0.2/MSDK/wpa_supplicant/src/ap\wpa_auth_ie.c **** 
 938:C:/Users/stapi/OneDrive/Desktop/GD32VW553/V1_MQTT_OK/GD32VW55X_Wifi_BLE_SDK/GD32VW55x_RELEASE_V1.0.2/MSDK/wpa_supplicant/src/ap\wpa_auth_ie.c **** 	sm->pmksa = NULL;
 939:C:/Users/stapi/OneDrive/Desktop/GD32VW553/V1_MQTT_OK/GD32VW55X_Wifi_BLE_SDK/GD32VW55x_RELEASE_V1.0.2/MSDK/wpa_supplicant/src/ap\wpa_auth_ie.c **** 	for (i = 0; i < data.num_pmkid; i++) {
 940:C:/Users/stapi/OneDrive/Desktop/GD32VW553/V1_MQTT_OK/GD32VW55X_Wifi_BLE_SDK/GD32VW55x_RELEASE_V1.0.2/MSDK/wpa_supplicant/src/ap\wpa_auth_ie.c **** 		wpa_hexdump(MSG_DEBUG, "RSN IE: STA PMKID",
 941:C:/Users/stapi/OneDrive/Desktop/GD32VW553/V1_MQTT_OK/GD32VW55X_Wifi_BLE_SDK/GD32VW55x_RELEASE_V1.0.2/MSDK/wpa_supplicant/src/ap\wpa_auth_ie.c **** 			    &data.pmkid[i * PMKID_LEN], PMKID_LEN);
 942:C:/Users/stapi/OneDrive/Desktop/GD32VW553/V1_MQTT_OK/GD32VW55X_Wifi_BLE_SDK/GD32VW55x_RELEASE_V1.0.2/MSDK/wpa_supplicant/src/ap\wpa_auth_ie.c **** 		sm->pmksa = pmksa_cache_auth_get(wpa_auth->pmksa, sm->addr,
 943:C:/Users/stapi/OneDrive/Desktop/GD32VW553/V1_MQTT_OK/GD32VW55X_Wifi_BLE_SDK/GD32VW55x_RELEASE_V1.0.2/MSDK/wpa_supplicant/src/ap\wpa_auth_ie.c **** 						 &data.pmkid[i * PMKID_LEN]);
 944:C:/Users/stapi/OneDrive/Desktop/GD32VW553/V1_MQTT_OK/GD32VW55X_Wifi_BLE_SDK/GD32VW55x_RELEASE_V1.0.2/MSDK/wpa_supplicant/src/ap\wpa_auth_ie.c **** 		if (sm->pmksa) {
 945:C:/Users/stapi/OneDrive/Desktop/GD32VW553/V1_MQTT_OK/GD32VW55X_Wifi_BLE_SDK/GD32VW55x_RELEASE_V1.0.2/MSDK/wpa_supplicant/src/ap\wpa_auth_ie.c **** 			pmkid = sm->pmksa->pmkid;
 946:C:/Users/stapi/OneDrive/Desktop/GD32VW553/V1_MQTT_OK/GD32VW55X_Wifi_BLE_SDK/GD32VW55x_RELEASE_V1.0.2/MSDK/wpa_supplicant/src/ap\wpa_auth_ie.c **** 			break;
 947:C:/Users/stapi/OneDrive/Desktop/GD32VW553/V1_MQTT_OK/GD32VW55X_Wifi_BLE_SDK/GD32VW55x_RELEASE_V1.0.2/MSDK/wpa_supplicant/src/ap\wpa_auth_ie.c **** 		}
 948:C:/Users/stapi/OneDrive/Desktop/GD32VW553/V1_MQTT_OK/GD32VW55X_Wifi_BLE_SDK/GD32VW55x_RELEASE_V1.0.2/MSDK/wpa_supplicant/src/ap\wpa_auth_ie.c **** 	}
 949:C:/Users/stapi/OneDrive/Desktop/GD32VW553/V1_MQTT_OK/GD32VW55X_Wifi_BLE_SDK/GD32VW55x_RELEASE_V1.0.2/MSDK/wpa_supplicant/src/ap\wpa_auth_ie.c **** 	for (i = 0; sm->pmksa == NULL && wpa_auth->conf.okc &&
 950:C:/Users/stapi/OneDrive/Desktop/GD32VW553/V1_MQTT_OK/GD32VW55X_Wifi_BLE_SDK/GD32VW55x_RELEASE_V1.0.2/MSDK/wpa_supplicant/src/ap\wpa_auth_ie.c **** 		     i < data.num_pmkid; i++) {
 951:C:/Users/stapi/OneDrive/Desktop/GD32VW553/V1_MQTT_OK/GD32VW55X_Wifi_BLE_SDK/GD32VW55x_RELEASE_V1.0.2/MSDK/wpa_supplicant/src/ap\wpa_auth_ie.c **** 		struct wpa_auth_okc_iter_data idata;
 952:C:/Users/stapi/OneDrive/Desktop/GD32VW553/V1_MQTT_OK/GD32VW55X_Wifi_BLE_SDK/GD32VW55x_RELEASE_V1.0.2/MSDK/wpa_supplicant/src/ap\wpa_auth_ie.c **** 		idata.pmksa = NULL;
 953:C:/Users/stapi/OneDrive/Desktop/GD32VW553/V1_MQTT_OK/GD32VW55X_Wifi_BLE_SDK/GD32VW55x_RELEASE_V1.0.2/MSDK/wpa_supplicant/src/ap\wpa_auth_ie.c **** 		idata.aa = wpa_auth->addr;
 954:C:/Users/stapi/OneDrive/Desktop/GD32VW553/V1_MQTT_OK/GD32VW55X_Wifi_BLE_SDK/GD32VW55x_RELEASE_V1.0.2/MSDK/wpa_supplicant/src/ap\wpa_auth_ie.c **** 		idata.spa = sm->addr;
 955:C:/Users/stapi/OneDrive/Desktop/GD32VW553/V1_MQTT_OK/GD32VW55X_Wifi_BLE_SDK/GD32VW55x_RELEASE_V1.0.2/MSDK/wpa_supplicant/src/ap\wpa_auth_ie.c **** 		idata.pmkid = &data.pmkid[i * PMKID_LEN];
 956:C:/Users/stapi/OneDrive/Desktop/GD32VW553/V1_MQTT_OK/GD32VW55X_Wifi_BLE_SDK/GD32VW55x_RELEASE_V1.0.2/MSDK/wpa_supplicant/src/ap\wpa_auth_ie.c **** 		wpa_auth_for_each_auth(wpa_auth, wpa_auth_okc_iter, &idata);
 957:C:/Users/stapi/OneDrive/Desktop/GD32VW553/V1_MQTT_OK/GD32VW55X_Wifi_BLE_SDK/GD32VW55x_RELEASE_V1.0.2/MSDK/wpa_supplicant/src/ap\wpa_auth_ie.c **** 		if (idata.pmksa) {
 958:C:/Users/stapi/OneDrive/Desktop/GD32VW553/V1_MQTT_OK/GD32VW55X_Wifi_BLE_SDK/GD32VW55x_RELEASE_V1.0.2/MSDK/wpa_supplicant/src/ap\wpa_auth_ie.c **** 			wpa_auth_vlogger(wpa_auth, sm->addr, LOGGER_DEBUG,
 959:C:/Users/stapi/OneDrive/Desktop/GD32VW553/V1_MQTT_OK/GD32VW55X_Wifi_BLE_SDK/GD32VW55x_RELEASE_V1.0.2/MSDK/wpa_supplicant/src/ap\wpa_auth_ie.c **** 					 "OKC match for PMKID");
 960:C:/Users/stapi/OneDrive/Desktop/GD32VW553/V1_MQTT_OK/GD32VW55X_Wifi_BLE_SDK/GD32VW55x_RELEASE_V1.0.2/MSDK/wpa_supplicant/src/ap\wpa_auth_ie.c **** 			sm->pmksa = pmksa_cache_add_okc(wpa_auth->pmksa,
 961:C:/Users/stapi/OneDrive/Desktop/GD32VW553/V1_MQTT_OK/GD32VW55X_Wifi_BLE_SDK/GD32VW55x_RELEASE_V1.0.2/MSDK/wpa_supplicant/src/ap\wpa_auth_ie.c **** 							idata.pmksa,
 962:C:/Users/stapi/OneDrive/Desktop/GD32VW553/V1_MQTT_OK/GD32VW55X_Wifi_BLE_SDK/GD32VW55x_RELEASE_V1.0.2/MSDK/wpa_supplicant/src/ap\wpa_auth_ie.c **** 							wpa_auth->addr,
 963:C:/Users/stapi/OneDrive/Desktop/GD32VW553/V1_MQTT_OK/GD32VW55X_Wifi_BLE_SDK/GD32VW55x_RELEASE_V1.0.2/MSDK/wpa_supplicant/src/ap\wpa_auth_ie.c **** 							idata.pmkid);
 964:C:/Users/stapi/OneDrive/Desktop/GD32VW553/V1_MQTT_OK/GD32VW55X_Wifi_BLE_SDK/GD32VW55x_RELEASE_V1.0.2/MSDK/wpa_supplicant/src/ap\wpa_auth_ie.c **** 			pmkid = idata.pmkid;
 965:C:/Users/stapi/OneDrive/Desktop/GD32VW553/V1_MQTT_OK/GD32VW55X_Wifi_BLE_SDK/GD32VW55x_RELEASE_V1.0.2/MSDK/wpa_supplicant/src/ap\wpa_auth_ie.c **** 			break;
 966:C:/Users/stapi/OneDrive/Desktop/GD32VW553/V1_MQTT_OK/GD32VW55X_Wifi_BLE_SDK/GD32VW55x_RELEASE_V1.0.2/MSDK/wpa_supplicant/src/ap\wpa_auth_ie.c **** 		}
 967:C:/Users/stapi/OneDrive/Desktop/GD32VW553/V1_MQTT_OK/GD32VW55X_Wifi_BLE_SDK/GD32VW55x_RELEASE_V1.0.2/MSDK/wpa_supplicant/src/ap\wpa_auth_ie.c **** 	}
 968:C:/Users/stapi/OneDrive/Desktop/GD32VW553/V1_MQTT_OK/GD32VW55X_Wifi_BLE_SDK/GD32VW55x_RELEASE_V1.0.2/MSDK/wpa_supplicant/src/ap\wpa_auth_ie.c **** 	if (sm->pmksa && pmkid) {
 969:C:/Users/stapi/OneDrive/Desktop/GD32VW553/V1_MQTT_OK/GD32VW55X_Wifi_BLE_SDK/GD32VW55x_RELEASE_V1.0.2/MSDK/wpa_supplicant/src/ap\wpa_auth_ie.c **** 		struct vlan_description *vlan;
 970:C:/Users/stapi/OneDrive/Desktop/GD32VW553/V1_MQTT_OK/GD32VW55X_Wifi_BLE_SDK/GD32VW55x_RELEASE_V1.0.2/MSDK/wpa_supplicant/src/ap\wpa_auth_ie.c **** 
 971:C:/Users/stapi/OneDrive/Desktop/GD32VW553/V1_MQTT_OK/GD32VW55X_Wifi_BLE_SDK/GD32VW55x_RELEASE_V1.0.2/MSDK/wpa_supplicant/src/ap\wpa_auth_ie.c **** 		vlan = sm->pmksa->vlan_desc;
 972:C:/Users/stapi/OneDrive/Desktop/GD32VW553/V1_MQTT_OK/GD32VW55X_Wifi_BLE_SDK/GD32VW55x_RELEASE_V1.0.2/MSDK/wpa_supplicant/src/ap\wpa_auth_ie.c **** 		wpa_auth_vlogger(wpa_auth, sm->addr, LOGGER_DEBUG,
 973:C:/Users/stapi/OneDrive/Desktop/GD32VW553/V1_MQTT_OK/GD32VW55X_Wifi_BLE_SDK/GD32VW55x_RELEASE_V1.0.2/MSDK/wpa_supplicant/src/ap\wpa_auth_ie.c **** 				 "PMKID found from PMKSA cache eap_type=%d vlan=%d%s",
 974:C:/Users/stapi/OneDrive/Desktop/GD32VW553/V1_MQTT_OK/GD32VW55X_Wifi_BLE_SDK/GD32VW55x_RELEASE_V1.0.2/MSDK/wpa_supplicant/src/ap\wpa_auth_ie.c **** 				 sm->pmksa->eap_type_authsrv,
 975:C:/Users/stapi/OneDrive/Desktop/GD32VW553/V1_MQTT_OK/GD32VW55X_Wifi_BLE_SDK/GD32VW55x_RELEASE_V1.0.2/MSDK/wpa_supplicant/src/ap\wpa_auth_ie.c **** 				 vlan ? vlan->untagged : 0,
 976:C:/Users/stapi/OneDrive/Desktop/GD32VW553/V1_MQTT_OK/GD32VW55X_Wifi_BLE_SDK/GD32VW55x_RELEASE_V1.0.2/MSDK/wpa_supplicant/src/ap\wpa_auth_ie.c **** 				 (vlan && vlan->tagged[0]) ? "+" : "");
 977:C:/Users/stapi/OneDrive/Desktop/GD32VW553/V1_MQTT_OK/GD32VW55X_Wifi_BLE_SDK/GD32VW55x_RELEASE_V1.0.2/MSDK/wpa_supplicant/src/ap\wpa_auth_ie.c **** 		os_memcpy(wpa_auth->dot11RSNAPMKIDUsed, pmkid, PMKID_LEN);
 978:C:/Users/stapi/OneDrive/Desktop/GD32VW553/V1_MQTT_OK/GD32VW55X_Wifi_BLE_SDK/GD32VW55x_RELEASE_V1.0.2/MSDK/wpa_supplicant/src/ap\wpa_auth_ie.c **** 	}
 979:C:/Users/stapi/OneDrive/Desktop/GD32VW553/V1_MQTT_OK/GD32VW55X_Wifi_BLE_SDK/GD32VW55x_RELEASE_V1.0.2/MSDK/wpa_supplicant/src/ap\wpa_auth_ie.c **** 
 980:C:/Users/stapi/OneDrive/Desktop/GD32VW553/V1_MQTT_OK/GD32VW55X_Wifi_BLE_SDK/GD32VW55x_RELEASE_V1.0.2/MSDK/wpa_supplicant/src/ap\wpa_auth_ie.c **** #ifdef CONFIG_SAE
 981:C:/Users/stapi/OneDrive/Desktop/GD32VW553/V1_MQTT_OK/GD32VW55X_Wifi_BLE_SDK/GD32VW55x_RELEASE_V1.0.2/MSDK/wpa_supplicant/src/ap\wpa_auth_ie.c **** 	if (sm->wpa_key_mgmt == WPA_KEY_MGMT_SAE && data.num_pmkid &&
 982:C:/Users/stapi/OneDrive/Desktop/GD32VW553/V1_MQTT_OK/GD32VW55X_Wifi_BLE_SDK/GD32VW55x_RELEASE_V1.0.2/MSDK/wpa_supplicant/src/ap\wpa_auth_ie.c **** 	    !sm->pmksa) {
 983:C:/Users/stapi/OneDrive/Desktop/GD32VW553/V1_MQTT_OK/GD32VW55X_Wifi_BLE_SDK/GD32VW55x_RELEASE_V1.0.2/MSDK/wpa_supplicant/src/ap\wpa_auth_ie.c **** 		wpa_auth_vlogger(wpa_auth, sm->addr, LOGGER_DEBUG,
 984:C:/Users/stapi/OneDrive/Desktop/GD32VW553/V1_MQTT_OK/GD32VW55X_Wifi_BLE_SDK/GD32VW55x_RELEASE_V1.0.2/MSDK/wpa_supplicant/src/ap\wpa_auth_ie.c **** 				 "No PMKSA cache entry found for SAE");
 985:C:/Users/stapi/OneDrive/Desktop/GD32VW553/V1_MQTT_OK/GD32VW55X_Wifi_BLE_SDK/GD32VW55x_RELEASE_V1.0.2/MSDK/wpa_supplicant/src/ap\wpa_auth_ie.c **** 		return WPA_INVALID_PMKID;
 986:C:/Users/stapi/OneDrive/Desktop/GD32VW553/V1_MQTT_OK/GD32VW55X_Wifi_BLE_SDK/GD32VW55x_RELEASE_V1.0.2/MSDK/wpa_supplicant/src/ap\wpa_auth_ie.c **** 	}
 987:C:/Users/stapi/OneDrive/Desktop/GD32VW553/V1_MQTT_OK/GD32VW55X_Wifi_BLE_SDK/GD32VW55x_RELEASE_V1.0.2/MSDK/wpa_supplicant/src/ap\wpa_auth_ie.c **** #endif /* CONFIG_SAE */
 988:C:/Users/stapi/OneDrive/Desktop/GD32VW553/V1_MQTT_OK/GD32VW55X_Wifi_BLE_SDK/GD32VW55x_RELEASE_V1.0.2/MSDK/wpa_supplicant/src/ap\wpa_auth_ie.c **** 
 989:C:/Users/stapi/OneDrive/Desktop/GD32VW553/V1_MQTT_OK/GD32VW55X_Wifi_BLE_SDK/GD32VW55x_RELEASE_V1.0.2/MSDK/wpa_supplicant/src/ap\wpa_auth_ie.c **** #ifdef CONFIG_DPP
 990:C:/Users/stapi/OneDrive/Desktop/GD32VW553/V1_MQTT_OK/GD32VW55X_Wifi_BLE_SDK/GD32VW55x_RELEASE_V1.0.2/MSDK/wpa_supplicant/src/ap\wpa_auth_ie.c **** 	if (sm->wpa_key_mgmt == WPA_KEY_MGMT_DPP && !sm->pmksa) {
 991:C:/Users/stapi/OneDrive/Desktop/GD32VW553/V1_MQTT_OK/GD32VW55X_Wifi_BLE_SDK/GD32VW55x_RELEASE_V1.0.2/MSDK/wpa_supplicant/src/ap\wpa_auth_ie.c **** 		wpa_auth_vlogger(wpa_auth, sm->addr, LOGGER_DEBUG,
 992:C:/Users/stapi/OneDrive/Desktop/GD32VW553/V1_MQTT_OK/GD32VW55X_Wifi_BLE_SDK/GD32VW55x_RELEASE_V1.0.2/MSDK/wpa_supplicant/src/ap\wpa_auth_ie.c **** 				 "No PMKSA cache entry found for DPP");
 993:C:/Users/stapi/OneDrive/Desktop/GD32VW553/V1_MQTT_OK/GD32VW55X_Wifi_BLE_SDK/GD32VW55x_RELEASE_V1.0.2/MSDK/wpa_supplicant/src/ap\wpa_auth_ie.c **** 		return WPA_INVALID_PMKID;
 994:C:/Users/stapi/OneDrive/Desktop/GD32VW553/V1_MQTT_OK/GD32VW55X_Wifi_BLE_SDK/GD32VW55x_RELEASE_V1.0.2/MSDK/wpa_supplicant/src/ap\wpa_auth_ie.c **** 	}
 995:C:/Users/stapi/OneDrive/Desktop/GD32VW553/V1_MQTT_OK/GD32VW55X_Wifi_BLE_SDK/GD32VW55x_RELEASE_V1.0.2/MSDK/wpa_supplicant/src/ap\wpa_auth_ie.c **** #endif /* CONFIG_DPP */
 996:C:/Users/stapi/OneDrive/Desktop/GD32VW553/V1_MQTT_OK/GD32VW55X_Wifi_BLE_SDK/GD32VW55x_RELEASE_V1.0.2/MSDK/wpa_supplicant/src/ap\wpa_auth_ie.c **** 
 997:C:/Users/stapi/OneDrive/Desktop/GD32VW553/V1_MQTT_OK/GD32VW55X_Wifi_BLE_SDK/GD32VW55x_RELEASE_V1.0.2/MSDK/wpa_supplicant/src/ap\wpa_auth_ie.c **** 	if (conf->extended_key_id && sm->wpa == WPA_VERSION_WPA2 &&
 998:C:/Users/stapi/OneDrive/Desktop/GD32VW553/V1_MQTT_OK/GD32VW55X_Wifi_BLE_SDK/GD32VW55x_RELEASE_V1.0.2/MSDK/wpa_supplicant/src/ap\wpa_auth_ie.c **** 	    sm->pairwise != WPA_CIPHER_TKIP &&
 999:C:/Users/stapi/OneDrive/Desktop/GD32VW553/V1_MQTT_OK/GD32VW55X_Wifi_BLE_SDK/GD32VW55x_RELEASE_V1.0.2/MSDK/wpa_supplicant/src/ap\wpa_auth_ie.c **** 	    (data.capabilities & WPA_CAPABILITY_EXT_KEY_ID_FOR_UNICAST)) {
1000:C:/Users/stapi/OneDrive/Desktop/GD32VW553/V1_MQTT_OK/GD32VW55X_Wifi_BLE_SDK/GD32VW55x_RELEASE_V1.0.2/MSDK/wpa_supplicant/src/ap\wpa_auth_ie.c **** 		sm->use_ext_key_id = true;
1001:C:/Users/stapi/OneDrive/Desktop/GD32VW553/V1_MQTT_OK/GD32VW55X_Wifi_BLE_SDK/GD32VW55x_RELEASE_V1.0.2/MSDK/wpa_supplicant/src/ap\wpa_auth_ie.c **** 		if (conf->extended_key_id == 2 &&
1002:C:/Users/stapi/OneDrive/Desktop/GD32VW553/V1_MQTT_OK/GD32VW55X_Wifi_BLE_SDK/GD32VW55x_RELEASE_V1.0.2/MSDK/wpa_supplicant/src/ap\wpa_auth_ie.c **** 		    !wpa_key_mgmt_ft(sm->wpa_key_mgmt) &&
1003:C:/Users/stapi/OneDrive/Desktop/GD32VW553/V1_MQTT_OK/GD32VW55X_Wifi_BLE_SDK/GD32VW55x_RELEASE_V1.0.2/MSDK/wpa_supplicant/src/ap\wpa_auth_ie.c **** 		    !wpa_key_mgmt_fils(sm->wpa_key_mgmt))
1004:C:/Users/stapi/OneDrive/Desktop/GD32VW553/V1_MQTT_OK/GD32VW55X_Wifi_BLE_SDK/GD32VW55x_RELEASE_V1.0.2/MSDK/wpa_supplicant/src/ap\wpa_auth_ie.c **** 			sm->keyidx_active = 1;
1005:C:/Users/stapi/OneDrive/Desktop/GD32VW553/V1_MQTT_OK/GD32VW55X_Wifi_BLE_SDK/GD32VW55x_RELEASE_V1.0.2/MSDK/wpa_supplicant/src/ap\wpa_auth_ie.c **** 		else
1006:C:/Users/stapi/OneDrive/Desktop/GD32VW553/V1_MQTT_OK/GD32VW55X_Wifi_BLE_SDK/GD32VW55x_RELEASE_V1.0.2/MSDK/wpa_supplicant/src/ap\wpa_auth_ie.c **** 			sm->keyidx_active = 0;
1007:C:/Users/stapi/OneDrive/Desktop/GD32VW553/V1_MQTT_OK/GD32VW55X_Wifi_BLE_SDK/GD32VW55x_RELEASE_V1.0.2/MSDK/wpa_supplicant/src/ap\wpa_auth_ie.c **** 		wpa_printf(MSG_DEBUG,
1008:C:/Users/stapi/OneDrive/Desktop/GD32VW553/V1_MQTT_OK/GD32VW55X_Wifi_BLE_SDK/GD32VW55x_RELEASE_V1.0.2/MSDK/wpa_supplicant/src/ap\wpa_auth_ie.c **** 			   "RSN: Extended Key ID supported (start with %d)",
1009:C:/Users/stapi/OneDrive/Desktop/GD32VW553/V1_MQTT_OK/GD32VW55X_Wifi_BLE_SDK/GD32VW55x_RELEASE_V1.0.2/MSDK/wpa_supplicant/src/ap\wpa_auth_ie.c **** 			   sm->keyidx_active);
1010:C:/Users/stapi/OneDrive/Desktop/GD32VW553/V1_MQTT_OK/GD32VW55X_Wifi_BLE_SDK/GD32VW55x_RELEASE_V1.0.2/MSDK/wpa_supplicant/src/ap\wpa_auth_ie.c **** 	} else {
1011:C:/Users/stapi/OneDrive/Desktop/GD32VW553/V1_MQTT_OK/GD32VW55X_Wifi_BLE_SDK/GD32VW55x_RELEASE_V1.0.2/MSDK/wpa_supplicant/src/ap\wpa_auth_ie.c **** 		sm->use_ext_key_id = false;
1012:C:/Users/stapi/OneDrive/Desktop/GD32VW553/V1_MQTT_OK/GD32VW55X_Wifi_BLE_SDK/GD32VW55x_RELEASE_V1.0.2/MSDK/wpa_supplicant/src/ap\wpa_auth_ie.c **** 	}
1013:C:/Users/stapi/OneDrive/Desktop/GD32VW553/V1_MQTT_OK/GD32VW55X_Wifi_BLE_SDK/GD32VW55x_RELEASE_V1.0.2/MSDK/wpa_supplicant/src/ap\wpa_auth_ie.c **** 
1014:C:/Users/stapi/OneDrive/Desktop/GD32VW553/V1_MQTT_OK/GD32VW55X_Wifi_BLE_SDK/GD32VW55x_RELEASE_V1.0.2/MSDK/wpa_supplicant/src/ap\wpa_auth_ie.c **** 	if (sm->wpa_ie == NULL || sm->wpa_ie_len < wpa_ie_len) {
1015:C:/Users/stapi/OneDrive/Desktop/GD32VW553/V1_MQTT_OK/GD32VW55X_Wifi_BLE_SDK/GD32VW55x_RELEASE_V1.0.2/MSDK/wpa_supplicant/src/ap\wpa_auth_ie.c **** 		os_free(sm->wpa_ie);
1016:C:/Users/stapi/OneDrive/Desktop/GD32VW553/V1_MQTT_OK/GD32VW55X_Wifi_BLE_SDK/GD32VW55x_RELEASE_V1.0.2/MSDK/wpa_supplicant/src/ap\wpa_auth_ie.c **** 		sm->wpa_ie = os_malloc(wpa_ie_len);
1017:C:/Users/stapi/OneDrive/Desktop/GD32VW553/V1_MQTT_OK/GD32VW55X_Wifi_BLE_SDK/GD32VW55x_RELEASE_V1.0.2/MSDK/wpa_supplicant/src/ap\wpa_auth_ie.c **** 		if (sm->wpa_ie == NULL)
1018:C:/Users/stapi/OneDrive/Desktop/GD32VW553/V1_MQTT_OK/GD32VW55X_Wifi_BLE_SDK/GD32VW55x_RELEASE_V1.0.2/MSDK/wpa_supplicant/src/ap\wpa_auth_ie.c **** 			return WPA_ALLOC_FAIL;
1019:C:/Users/stapi/OneDrive/Desktop/GD32VW553/V1_MQTT_OK/GD32VW55X_Wifi_BLE_SDK/GD32VW55x_RELEASE_V1.0.2/MSDK/wpa_supplicant/src/ap\wpa_auth_ie.c **** 	}
1020:C:/Users/stapi/OneDrive/Desktop/GD32VW553/V1_MQTT_OK/GD32VW55X_Wifi_BLE_SDK/GD32VW55x_RELEASE_V1.0.2/MSDK/wpa_supplicant/src/ap\wpa_auth_ie.c **** 	os_memcpy(sm->wpa_ie, wpa_ie, wpa_ie_len);
1021:C:/Users/stapi/OneDrive/Desktop/GD32VW553/V1_MQTT_OK/GD32VW55X_Wifi_BLE_SDK/GD32VW55x_RELEASE_V1.0.2/MSDK/wpa_supplicant/src/ap\wpa_auth_ie.c **** 	sm->wpa_ie_len = wpa_ie_len;
1022:C:/Users/stapi/OneDrive/Desktop/GD32VW553/V1_MQTT_OK/GD32VW55X_Wifi_BLE_SDK/GD32VW55x_RELEASE_V1.0.2/MSDK/wpa_supplicant/src/ap\wpa_auth_ie.c **** 
1023:C:/Users/stapi/OneDrive/Desktop/GD32VW553/V1_MQTT_OK/GD32VW55X_Wifi_BLE_SDK/GD32VW55x_RELEASE_V1.0.2/MSDK/wpa_supplicant/src/ap\wpa_auth_ie.c **** 	if (rsnxe && rsnxe_len) {
1024:C:/Users/stapi/OneDrive/Desktop/GD32VW553/V1_MQTT_OK/GD32VW55X_Wifi_BLE_SDK/GD32VW55x_RELEASE_V1.0.2/MSDK/wpa_supplicant/src/ap\wpa_auth_ie.c **** 		if (!sm->rsnxe || sm->rsnxe_len < rsnxe_len) {
1025:C:/Users/stapi/OneDrive/Desktop/GD32VW553/V1_MQTT_OK/GD32VW55X_Wifi_BLE_SDK/GD32VW55x_RELEASE_V1.0.2/MSDK/wpa_supplicant/src/ap\wpa_auth_ie.c **** 			os_free(sm->rsnxe);
1026:C:/Users/stapi/OneDrive/Desktop/GD32VW553/V1_MQTT_OK/GD32VW55X_Wifi_BLE_SDK/GD32VW55x_RELEASE_V1.0.2/MSDK/wpa_supplicant/src/ap\wpa_auth_ie.c **** 			sm->rsnxe = os_malloc(rsnxe_len);
1027:C:/Users/stapi/OneDrive/Desktop/GD32VW553/V1_MQTT_OK/GD32VW55X_Wifi_BLE_SDK/GD32VW55x_RELEASE_V1.0.2/MSDK/wpa_supplicant/src/ap\wpa_auth_ie.c **** 			if (!sm->rsnxe)
1028:C:/Users/stapi/OneDrive/Desktop/GD32VW553/V1_MQTT_OK/GD32VW55X_Wifi_BLE_SDK/GD32VW55x_RELEASE_V1.0.2/MSDK/wpa_supplicant/src/ap\wpa_auth_ie.c **** 				return WPA_ALLOC_FAIL;
1029:C:/Users/stapi/OneDrive/Desktop/GD32VW553/V1_MQTT_OK/GD32VW55X_Wifi_BLE_SDK/GD32VW55x_RELEASE_V1.0.2/MSDK/wpa_supplicant/src/ap\wpa_auth_ie.c **** 		}
1030:C:/Users/stapi/OneDrive/Desktop/GD32VW553/V1_MQTT_OK/GD32VW55X_Wifi_BLE_SDK/GD32VW55x_RELEASE_V1.0.2/MSDK/wpa_supplicant/src/ap\wpa_auth_ie.c **** 		os_memcpy(sm->rsnxe, rsnxe, rsnxe_len);
1031:C:/Users/stapi/OneDrive/Desktop/GD32VW553/V1_MQTT_OK/GD32VW55X_Wifi_BLE_SDK/GD32VW55x_RELEASE_V1.0.2/MSDK/wpa_supplicant/src/ap\wpa_auth_ie.c **** 		sm->rsnxe_len = rsnxe_len;
1032:C:/Users/stapi/OneDrive/Desktop/GD32VW553/V1_MQTT_OK/GD32VW55X_Wifi_BLE_SDK/GD32VW55x_RELEASE_V1.0.2/MSDK/wpa_supplicant/src/ap\wpa_auth_ie.c **** 	} else {
1033:C:/Users/stapi/OneDrive/Desktop/GD32VW553/V1_MQTT_OK/GD32VW55X_Wifi_BLE_SDK/GD32VW55x_RELEASE_V1.0.2/MSDK/wpa_supplicant/src/ap\wpa_auth_ie.c **** 		os_free(sm->rsnxe);
1034:C:/Users/stapi/OneDrive/Desktop/GD32VW553/V1_MQTT_OK/GD32VW55X_Wifi_BLE_SDK/GD32VW55x_RELEASE_V1.0.2/MSDK/wpa_supplicant/src/ap\wpa_auth_ie.c **** 		sm->rsnxe = NULL;
1035:C:/Users/stapi/OneDrive/Desktop/GD32VW553/V1_MQTT_OK/GD32VW55X_Wifi_BLE_SDK/GD32VW55x_RELEASE_V1.0.2/MSDK/wpa_supplicant/src/ap\wpa_auth_ie.c **** 		sm->rsnxe_len = 0;
1036:C:/Users/stapi/OneDrive/Desktop/GD32VW553/V1_MQTT_OK/GD32VW55X_Wifi_BLE_SDK/GD32VW55x_RELEASE_V1.0.2/MSDK/wpa_supplicant/src/ap\wpa_auth_ie.c **** 	}
1037:C:/Users/stapi/OneDrive/Desktop/GD32VW553/V1_MQTT_OK/GD32VW55X_Wifi_BLE_SDK/GD32VW55x_RELEASE_V1.0.2/MSDK/wpa_supplicant/src/ap\wpa_auth_ie.c **** 
1038:C:/Users/stapi/OneDrive/Desktop/GD32VW553/V1_MQTT_OK/GD32VW55X_Wifi_BLE_SDK/GD32VW55x_RELEASE_V1.0.2/MSDK/wpa_supplicant/src/ap\wpa_auth_ie.c **** 	return WPA_IE_OK;
1039:C:/Users/stapi/OneDrive/Desktop/GD32VW553/V1_MQTT_OK/GD32VW55X_Wifi_BLE_SDK/GD32VW55x_RELEASE_V1.0.2/MSDK/wpa_supplicant/src/ap\wpa_auth_ie.c **** }
 1908              		.loc 1 1039 1
 1909 0070 6161     		addi	sp,sp,80
 1910              		.cfi_remember_state
 1911              		.cfi_def_cfa_offset 0
 1912 0072 17030000 		tail	__riscv_restore_12
 1912      67000300 
 1913              		.cfi_restore 27
 1914              		.cfi_restore 26
 1915              		.cfi_restore 25
 1916              		.cfi_restore 24
 1917              		.cfi_restore 23
 1918              		.cfi_restore 22
 1919              		.cfi_restore 21
 1920              		.cfi_restore 20
 1921              		.cfi_restore 19
 1922              		.cfi_restore 18
 1923              		.cfi_restore 9
 1924              		.cfi_restore 8
 1925              		.cfi_restore 1
 1926              		.cfi_def_cfa_offset -64
 1927              	.LVL187:
 1928              	.L129:
 1929              		.cfi_restore_state
 618:C:/Users/stapi/OneDrive/Desktop/GD32VW553/V1_MQTT_OK/GD32VW55X_Wifi_BLE_SDK/GD32VW55x_RELEASE_V1.0.2/MSDK/wpa_supplicant/src/ap\wpa_auth_ie.c **** 		res = wpa_parse_wpa_ie_rsn(wpa_ie, wpa_ie_len, &data);
 1930              		.loc 1 618 2 is_stmt 1
 618:C:/Users/stapi/OneDrive/Desktop/GD32VW553/V1_MQTT_OK/GD32VW55X_Wifi_BLE_SDK/GD32VW55x_RELEASE_V1.0.2/MSDK/wpa_supplicant/src/ap\wpa_auth_ie.c **** 		res = wpa_parse_wpa_ie_rsn(wpa_ie, wpa_ie_len, &data);
 1931              		.loc 1 618 5 is_stmt 0
 1932 007a 8947     		li	a5,2
 619:C:/Users/stapi/OneDrive/Desktop/GD32VW553/V1_MQTT_OK/GD32VW55X_Wifi_BLE_SDK/GD32VW55x_RELEASE_V1.0.2/MSDK/wpa_supplicant/src/ap\wpa_auth_ie.c **** 		if (!data.has_pairwise)
 1933              		.loc 1 619 9
 1934 007c 3010     		addi	a2,sp,40
 1935              	.LVL188:
 1936 007e CA85     		mv	a1,s2
 1937 0080 4E85     		mv	a0,s3
 618:C:/Users/stapi/OneDrive/Desktop/GD32VW553/V1_MQTT_OK/GD32VW55X_Wifi_BLE_SDK/GD32VW55x_RELEASE_V1.0.2/MSDK/wpa_supplicant/src/ap\wpa_auth_ie.c **** 		res = wpa_parse_wpa_ie_rsn(wpa_ie, wpa_ie_len, &data);
 1938              		.loc 1 618 5
 1939 0082 631FFB16 		bne	s6,a5,.L130
 1940              	.LVL189:
 619:C:/Users/stapi/OneDrive/Desktop/GD32VW553/V1_MQTT_OK/GD32VW55X_Wifi_BLE_SDK/GD32VW55x_RELEASE_V1.0.2/MSDK/wpa_supplicant/src/ap\wpa_auth_ie.c **** 		if (!data.has_pairwise)
 1941              		.loc 1 619 3 is_stmt 1
 619:C:/Users/stapi/OneDrive/Desktop/GD32VW553/V1_MQTT_OK/GD32VW55X_Wifi_BLE_SDK/GD32VW55x_RELEASE_V1.0.2/MSDK/wpa_supplicant/src/ap\wpa_auth_ie.c **** 		if (!data.has_pairwise)
 1942              		.loc 1 619 9 is_stmt 0
 1943 0086 97000000 		call	wpa_parse_wpa_ie_rsn
 1943      E7800000 
 1944              	.LVL190:
 620:C:/Users/stapi/OneDrive/Desktop/GD32VW553/V1_MQTT_OK/GD32VW55X_Wifi_BLE_SDK/GD32VW55x_RELEASE_V1.0.2/MSDK/wpa_supplicant/src/ap\wpa_auth_ie.c **** 			data.pairwise_cipher = wpa_default_rsn_cipher(freq);
 1945              		.loc 1 620 6
 1946 008e C257     		lw	a5,48(sp)
 619:C:/Users/stapi/OneDrive/Desktop/GD32VW553/V1_MQTT_OK/GD32VW55X_Wifi_BLE_SDK/GD32VW55x_RELEASE_V1.0.2/MSDK/wpa_supplicant/src/ap\wpa_auth_ie.c **** 		if (!data.has_pairwise)
 1947              		.loc 1 619 9
 1948 0090 2A8A     		mv	s4,a0
 1949              	.LVL191:
 620:C:/Users/stapi/OneDrive/Desktop/GD32VW553/V1_MQTT_OK/GD32VW55X_Wifi_BLE_SDK/GD32VW55x_RELEASE_V1.0.2/MSDK/wpa_supplicant/src/ap\wpa_auth_ie.c **** 			data.pairwise_cipher = wpa_default_rsn_cipher(freq);
 1950              		.loc 1 620 3 is_stmt 1
 620:C:/Users/stapi/OneDrive/Desktop/GD32VW553/V1_MQTT_OK/GD32VW55X_Wifi_BLE_SDK/GD32VW55x_RELEASE_V1.0.2/MSDK/wpa_supplicant/src/ap\wpa_auth_ie.c **** 			data.pairwise_cipher = wpa_default_rsn_cipher(freq);
 1951              		.loc 1 620 6 is_stmt 0
 1952 0092 99E7     		bne	a5,zero,.L131
 621:C:/Users/stapi/OneDrive/Desktop/GD32VW553/V1_MQTT_OK/GD32VW55X_Wifi_BLE_SDK/GD32VW55x_RELEASE_V1.0.2/MSDK/wpa_supplicant/src/ap\wpa_auth_ie.c **** 		if (!data.has_group)
 1953              		.loc 1 621 4 is_stmt 1
 621:C:/Users/stapi/OneDrive/Desktop/GD32VW553/V1_MQTT_OK/GD32VW55X_Wifi_BLE_SDK/GD32VW55x_RELEASE_V1.0.2/MSDK/wpa_supplicant/src/ap\wpa_auth_ie.c **** 		if (!data.has_group)
 1954              		.loc 1 621 27 is_stmt 0
 1955 0094 6685     		mv	a0,s9
 1956              	.LVL192:
 1957 0096 97000000 		call	wpa_default_rsn_cipher
 1957      E7800000 
 1958              	.LVL193:
 621:C:/Users/stapi/OneDrive/Desktop/GD32VW553/V1_MQTT_OK/GD32VW55X_Wifi_BLE_SDK/GD32VW55x_RELEASE_V1.0.2/MSDK/wpa_supplicant/src/ap\wpa_auth_ie.c **** 		if (!data.has_group)
 1959              		.loc 1 621 25
 1960 009e 2AD6     		sw	a0,44(sp)
 1961              	.L131:
 622:C:/Users/stapi/OneDrive/Desktop/GD32VW553/V1_MQTT_OK/GD32VW55X_Wifi_BLE_SDK/GD32VW55x_RELEASE_V1.0.2/MSDK/wpa_supplicant/src/ap\wpa_auth_ie.c **** 			data.group_cipher = wpa_default_rsn_cipher(freq);
 1962              		.loc 1 622 3 is_stmt 1
 622:C:/Users/stapi/OneDrive/Desktop/GD32VW553/V1_MQTT_OK/GD32VW55X_Wifi_BLE_SDK/GD32VW55x_RELEASE_V1.0.2/MSDK/wpa_supplicant/src/ap\wpa_auth_ie.c **** 			data.group_cipher = wpa_default_rsn_cipher(freq);
 1963              		.loc 1 622 6 is_stmt 0
 1964 00a0 E257     		lw	a5,56(sp)
 1965 00a2 99E7     		bne	a5,zero,.L132
 623:C:/Users/stapi/OneDrive/Desktop/GD32VW553/V1_MQTT_OK/GD32VW55X_Wifi_BLE_SDK/GD32VW55x_RELEASE_V1.0.2/MSDK/wpa_supplicant/src/ap\wpa_auth_ie.c **** 
 1966              		.loc 1 623 4 is_stmt 1
 623:C:/Users/stapi/OneDrive/Desktop/GD32VW553/V1_MQTT_OK/GD32VW55X_Wifi_BLE_SDK/GD32VW55x_RELEASE_V1.0.2/MSDK/wpa_supplicant/src/ap\wpa_auth_ie.c **** 
 1967              		.loc 1 623 24 is_stmt 0
 1968 00a4 6685     		mv	a0,s9
 1969 00a6 97000000 		call	wpa_default_rsn_cipher
 1969      E7800000 
 1970              	.LVL194:
 623:C:/Users/stapi/OneDrive/Desktop/GD32VW553/V1_MQTT_OK/GD32VW55X_Wifi_BLE_SDK/GD32VW55x_RELEASE_V1.0.2/MSDK/wpa_supplicant/src/ap\wpa_auth_ie.c **** 
 1971              		.loc 1 623 22
 1972 00ae 2ADA     		sw	a0,52(sp)
 1973              	.L132:
 625:C:/Users/stapi/OneDrive/Desktop/GD32VW553/V1_MQTT_OK/GD32VW55X_Wifi_BLE_SDK/GD32VW55x_RELEASE_V1.0.2/MSDK/wpa_supplicant/src/ap\wpa_auth_ie.c **** 		    !wpa_key_mgmt_only_ft(data.key_mgmt)) {
 1974              		.loc 1 625 3 is_stmt 1
 625:C:/Users/stapi/OneDrive/Desktop/GD32VW553/V1_MQTT_OK/GD32VW55X_Wifi_BLE_SDK/GD32VW55x_RELEASE_V1.0.2/MSDK/wpa_supplicant/src/ap\wpa_auth_ie.c **** 		    !wpa_key_mgmt_only_ft(data.key_mgmt)) {
 1975              		.loc 1 625 7 is_stmt 0
 1976 00b0 7257     		lw	a4,60(sp)
 1977              	.LVL195:
 1978              	.LBB296:
 1979              	.LBB297:
  96:..\..\..\..\wpa_supplicant\src/common/defs.h **** }
 1980              		.loc 3 96 2 is_stmt 1
  96:..\..\..\..\wpa_supplicant\src/common/defs.h **** }
 1981              		.loc 3 96 16 is_stmt 0
 1982 00b2 B7173001 		li	a5,19927040
 1983 00b6 93870786 		addi	a5,a5,-1952
 1984 00ba F98F     		and	a5,a4,a5
 1985              	.LBE297:
 1986              	.LBE296:
 625:C:/Users/stapi/OneDrive/Desktop/GD32VW553/V1_MQTT_OK/GD32VW55X_Wifi_BLE_SDK/GD32VW55x_RELEASE_V1.0.2/MSDK/wpa_supplicant/src/ap\wpa_auth_ie.c **** 		    !wpa_key_mgmt_only_ft(data.key_mgmt)) {
 1987              		.loc 1 625 6
 1988 00bc B9C3     		beq	a5,zero,.L133
 625:C:/Users/stapi/OneDrive/Desktop/GD32VW553/V1_MQTT_OK/GD32VW55X_Wifi_BLE_SDK/GD32VW55x_RELEASE_V1.0.2/MSDK/wpa_supplicant/src/ap\wpa_auth_ie.c **** 		    !wpa_key_mgmt_only_ft(data.key_mgmt)) {
 1989              		.loc 1 625 38 discriminator 1
 1990 00be 63120C04 		bne	s8,zero,.L133
 1991              	.LVL196:
 1992              	.LBB298:
 1993              	.LBB299:
 101:..\..\..\..\wpa_supplicant\src/common/defs.h **** 	akm &= ~WPA_KEY_MGMT_FT;
 1994              		.loc 3 101 2 is_stmt 1
 1995              	.LBE299:
 1996              	.LBE298:
  96:..\..\..\..\wpa_supplicant\src/common/defs.h **** }
 1997              		.loc 3 96 2
 1998              	.LBB301:
 1999              	.LBB300:
 102:..\..\..\..\wpa_supplicant\src/common/defs.h **** 	return ft && !akm;
 2000              		.loc 3 102 2
 103:..\..\..\..\wpa_supplicant\src/common/defs.h **** }
 2001              		.loc 3 103 2
 102:..\..\..\..\wpa_supplicant\src/common/defs.h **** 	return ft && !akm;
 2002              		.loc 3 102 6 is_stmt 0
 2003 00c2 37FCCFFE 		li	s8,-19927040
 2004              	.LVL197:
 2005 00c6 130CFC79 		addi	s8,s8,1951
 2006 00ca 33778701 		and	a4,a4,s8
 2007              	.LVL198:
 103:..\..\..\..\wpa_supplicant\src/common/defs.h **** }
 2008              		.loc 3 103 12
 2009 00ce 15CB     		beq	a4,zero,.L133
 2010              	.LVL199:
 2011              	.LBE300:
 2012              	.LBE301:
 630:C:/Users/stapi/OneDrive/Desktop/GD32VW553/V1_MQTT_OK/GD32VW55X_Wifi_BLE_SDK/GD32VW55x_RELEASE_V1.0.2/MSDK/wpa_supplicant/src/ap\wpa_auth_ie.c **** 				   "RSN: FT set in RSNE AKM but MDE is missing from "
 2013              		.loc 1 630 4 is_stmt 1
 2014 00d0 8347B400 		lbu	a5,11(s0)
 2015 00d4 8348D400 		lbu	a7,13(s0)
 2016 00d8 0348C400 		lbu	a6,12(s0)
 2017 00dc 0347A400 		lbu	a4,10(s0)
 2018 00e0 83469400 		lbu	a3,9(s0)
 2019 00e4 03468400 		lbu	a2,8(s0)
 2020 00e8 B7050000 		lui	a1,%hi(.LC9)
 2021 00ec 93850500 		addi	a1,a1,%lo(.LC9)
 2022 00f0 0945     		li	a0,2
 2023 00f2 97000000 		call	wpa_printf
 2023      E7800000 
 2024              	.LVL200:
 635:C:/Users/stapi/OneDrive/Desktop/GD32VW553/V1_MQTT_OK/GD32VW55X_Wifi_BLE_SDK/GD32VW55x_RELEASE_V1.0.2/MSDK/wpa_supplicant/src/ap\wpa_auth_ie.c **** 		}
 2025              		.loc 1 635 4
 635:C:/Users/stapi/OneDrive/Desktop/GD32VW553/V1_MQTT_OK/GD32VW55X_Wifi_BLE_SDK/GD32VW55x_RELEASE_V1.0.2/MSDK/wpa_supplicant/src/ap\wpa_auth_ie.c **** 		}
 2026              		.loc 1 635 18 is_stmt 0
 2027 00fa F257     		lw	a5,60(sp)
 2028 00fc 33FC8701 		and	s8,a5,s8
 2029 0100 62DE     		sw	s8,60(sp)
 2030              	.L133:
 638:C:/Users/stapi/OneDrive/Desktop/GD32VW553/V1_MQTT_OK/GD32VW55X_Wifi_BLE_SDK/GD32VW55x_RELEASE_V1.0.2/MSDK/wpa_supplicant/src/ap\wpa_auth_ie.c **** 		if (0) {
 2031              		.loc 1 638 3 is_stmt 1
 2032              	.LVL201:
 639:C:/Users/stapi/OneDrive/Desktop/GD32VW553/V1_MQTT_OK/GD32VW55X_Wifi_BLE_SDK/GD32VW55x_RELEASE_V1.0.2/MSDK/wpa_supplicant/src/ap\wpa_auth_ie.c **** 		}
 2033              		.loc 1 639 3
 641:C:/Users/stapi/OneDrive/Desktop/GD32VW553/V1_MQTT_OK/GD32VW55X_Wifi_BLE_SDK/GD32VW55x_RELEASE_V1.0.2/MSDK/wpa_supplicant/src/ap\wpa_auth_ie.c **** 			selector = RSN_AUTH_KEY_MGMT_802_1X_SUITE_B_192;
 2034              		.loc 1 641 8
 641:C:/Users/stapi/OneDrive/Desktop/GD32VW553/V1_MQTT_OK/GD32VW55X_Wifi_BLE_SDK/GD32VW55x_RELEASE_V1.0.2/MSDK/wpa_supplicant/src/ap\wpa_auth_ie.c **** 			selector = RSN_AUTH_KEY_MGMT_802_1X_SUITE_B_192;
 2035              		.loc 1 641 16 is_stmt 0
 2036 0102 F257     		lw	a5,60(sp)
 641:C:/Users/stapi/OneDrive/Desktop/GD32VW553/V1_MQTT_OK/GD32VW55X_Wifi_BLE_SDK/GD32VW55x_RELEASE_V1.0.2/MSDK/wpa_supplicant/src/ap\wpa_auth_ie.c **** 			selector = RSN_AUTH_KEY_MGMT_802_1X_SUITE_B_192;
 2037              		.loc 1 641 26
 2038 0104 37070200 		li	a4,131072
 2039 0108 7D8F     		and	a4,a5,a4
 641:C:/Users/stapi/OneDrive/Desktop/GD32VW553/V1_MQTT_OK/GD32VW55X_Wifi_BLE_SDK/GD32VW55x_RELEASE_V1.0.2/MSDK/wpa_supplicant/src/ap\wpa_auth_ie.c **** 			selector = RSN_AUTH_KEY_MGMT_802_1X_SUITE_B_192;
 2040              		.loc 1 641 11
 2041 010a 45EB     		bne	a4,zero,.L188
 643:C:/Users/stapi/OneDrive/Desktop/GD32VW553/V1_MQTT_OK/GD32VW55X_Wifi_BLE_SDK/GD32VW55x_RELEASE_V1.0.2/MSDK/wpa_supplicant/src/ap\wpa_auth_ie.c **** 			selector = RSN_AUTH_KEY_MGMT_802_1X_SUITE_B;
 2042              		.loc 1 643 8 is_stmt 1
 643:C:/Users/stapi/OneDrive/Desktop/GD32VW553/V1_MQTT_OK/GD32VW55X_Wifi_BLE_SDK/GD32VW55x_RELEASE_V1.0.2/MSDK/wpa_supplicant/src/ap\wpa_auth_ie.c **** 			selector = RSN_AUTH_KEY_MGMT_802_1X_SUITE_B;
 2043              		.loc 1 643 26 is_stmt 0
 2044 010c 4167     		li	a4,65536
 2045 010e 7D8F     		and	a4,a5,a4
 643:C:/Users/stapi/OneDrive/Desktop/GD32VW553/V1_MQTT_OK/GD32VW55X_Wifi_BLE_SDK/GD32VW55x_RELEASE_V1.0.2/MSDK/wpa_supplicant/src/ap\wpa_auth_ie.c **** 			selector = RSN_AUTH_KEY_MGMT_802_1X_SUITE_B;
 2046              		.loc 1 643 11
 2047 0110 55EB     		bne	a4,zero,.L189
 667:C:/Users/stapi/OneDrive/Desktop/GD32VW553/V1_MQTT_OK/GD32VW55X_Wifi_BLE_SDK/GD32VW55x_RELEASE_V1.0.2/MSDK/wpa_supplicant/src/ap\wpa_auth_ie.c **** 			selector = RSN_AUTH_KEY_MGMT_802_1X_SHA256;
 2048              		.loc 1 667 8 is_stmt 1
 667:C:/Users/stapi/OneDrive/Desktop/GD32VW553/V1_MQTT_OK/GD32VW55X_Wifi_BLE_SDK/GD32VW55x_RELEASE_V1.0.2/MSDK/wpa_supplicant/src/ap\wpa_auth_ie.c **** 			selector = RSN_AUTH_KEY_MGMT_802_1X_SHA256;
 2049              		.loc 1 667 26 is_stmt 0
 2050 0112 13F70708 		andi	a4,a5,128
 667:C:/Users/stapi/OneDrive/Desktop/GD32VW553/V1_MQTT_OK/GD32VW55X_Wifi_BLE_SDK/GD32VW55x_RELEASE_V1.0.2/MSDK/wpa_supplicant/src/ap\wpa_auth_ie.c **** 			selector = RSN_AUTH_KEY_MGMT_802_1X_SHA256;
 2051              		.loc 1 667 11
 2052 0116 45EF     		bne	a4,zero,.L190
 669:C:/Users/stapi/OneDrive/Desktop/GD32VW553/V1_MQTT_OK/GD32VW55X_Wifi_BLE_SDK/GD32VW55x_RELEASE_V1.0.2/MSDK/wpa_supplicant/src/ap\wpa_auth_ie.c **** 			selector = RSN_AUTH_KEY_MGMT_PSK_SHA256;
 2053              		.loc 1 669 8 is_stmt 1
 669:C:/Users/stapi/OneDrive/Desktop/GD32VW553/V1_MQTT_OK/GD32VW55X_Wifi_BLE_SDK/GD32VW55x_RELEASE_V1.0.2/MSDK/wpa_supplicant/src/ap\wpa_auth_ie.c **** 			selector = RSN_AUTH_KEY_MGMT_PSK_SHA256;
 2054              		.loc 1 669 26 is_stmt 0
 2055 0118 13F70710 		andi	a4,a5,256
 669:C:/Users/stapi/OneDrive/Desktop/GD32VW553/V1_MQTT_OK/GD32VW55X_Wifi_BLE_SDK/GD32VW55x_RELEASE_V1.0.2/MSDK/wpa_supplicant/src/ap\wpa_auth_ie.c **** 			selector = RSN_AUTH_KEY_MGMT_PSK_SHA256;
 2056              		.loc 1 669 11
 2057 011c 55EF     		bne	a4,zero,.L191
 672:C:/Users/stapi/OneDrive/Desktop/GD32VW553/V1_MQTT_OK/GD32VW55X_Wifi_BLE_SDK/GD32VW55x_RELEASE_V1.0.2/MSDK/wpa_supplicant/src/ap\wpa_auth_ie.c **** 			selector = RSN_AUTH_KEY_MGMT_SAE;
 2058              		.loc 1 672 8 is_stmt 1
 672:C:/Users/stapi/OneDrive/Desktop/GD32VW553/V1_MQTT_OK/GD32VW55X_Wifi_BLE_SDK/GD32VW55x_RELEASE_V1.0.2/MSDK/wpa_supplicant/src/ap\wpa_auth_ie.c **** 			selector = RSN_AUTH_KEY_MGMT_SAE;
 2059              		.loc 1 672 26 is_stmt 0
 2060 011e 13F70740 		andi	a4,a5,1024
 672:C:/Users/stapi/OneDrive/Desktop/GD32VW553/V1_MQTT_OK/GD32VW55X_Wifi_BLE_SDK/GD32VW55x_RELEASE_V1.0.2/MSDK/wpa_supplicant/src/ap\wpa_auth_ie.c **** 			selector = RSN_AUTH_KEY_MGMT_SAE;
 2061              		.loc 1 672 11
 2062 0122 61E3     		bne	a4,zero,.L192
 674:C:/Users/stapi/OneDrive/Desktop/GD32VW553/V1_MQTT_OK/GD32VW55X_Wifi_BLE_SDK/GD32VW55x_RELEASE_V1.0.2/MSDK/wpa_supplicant/src/ap\wpa_auth_ie.c **** 			selector = RSN_AUTH_KEY_MGMT_FT_SAE;
 2063              		.loc 1 674 8 is_stmt 1
 674:C:/Users/stapi/OneDrive/Desktop/GD32VW553/V1_MQTT_OK/GD32VW55X_Wifi_BLE_SDK/GD32VW55x_RELEASE_V1.0.2/MSDK/wpa_supplicant/src/ap\wpa_auth_ie.c **** 			selector = RSN_AUTH_KEY_MGMT_FT_SAE;
 2064              		.loc 1 674 26 is_stmt 0
 2065 0124 13D7B748 		bexti	a4,a5,11
 674:C:/Users/stapi/OneDrive/Desktop/GD32VW553/V1_MQTT_OK/GD32VW55X_Wifi_BLE_SDK/GD32VW55x_RELEASE_V1.0.2/MSDK/wpa_supplicant/src/ap\wpa_auth_ie.c **** 			selector = RSN_AUTH_KEY_MGMT_FT_SAE;
 2066              		.loc 1 674 11
 2067 0128 71E3     		bne	a4,zero,.L193
 677:C:/Users/stapi/OneDrive/Desktop/GD32VW553/V1_MQTT_OK/GD32VW55X_Wifi_BLE_SDK/GD32VW55x_RELEASE_V1.0.2/MSDK/wpa_supplicant/src/ap\wpa_auth_ie.c **** 			selector = RSN_AUTH_KEY_MGMT_UNSPEC_802_1X;
 2068              		.loc 1 677 8 is_stmt 1
 677:C:/Users/stapi/OneDrive/Desktop/GD32VW553/V1_MQTT_OK/GD32VW55X_Wifi_BLE_SDK/GD32VW55x_RELEASE_V1.0.2/MSDK/wpa_supplicant/src/ap\wpa_auth_ie.c **** 			selector = RSN_AUTH_KEY_MGMT_UNSPEC_802_1X;
 2069              		.loc 1 677 26 is_stmt 0
 2070 012a 13F71700 		andi	a4,a5,1
 677:C:/Users/stapi/OneDrive/Desktop/GD32VW553/V1_MQTT_OK/GD32VW55X_Wifi_BLE_SDK/GD32VW55x_RELEASE_V1.0.2/MSDK/wpa_supplicant/src/ap\wpa_auth_ie.c **** 			selector = RSN_AUTH_KEY_MGMT_UNSPEC_802_1X;
 2071              		.loc 1 677 11
 2072 012e 61E7     		bne	a4,zero,.L194
 679:C:/Users/stapi/OneDrive/Desktop/GD32VW553/V1_MQTT_OK/GD32VW55X_Wifi_BLE_SDK/GD32VW55x_RELEASE_V1.0.2/MSDK/wpa_supplicant/src/ap\wpa_auth_ie.c **** 			selector = RSN_AUTH_KEY_MGMT_PSK_OVER_802_1X;
 2073              		.loc 1 679 8 is_stmt 1
 679:C:/Users/stapi/OneDrive/Desktop/GD32VW553/V1_MQTT_OK/GD32VW55X_Wifi_BLE_SDK/GD32VW55x_RELEASE_V1.0.2/MSDK/wpa_supplicant/src/ap\wpa_auth_ie.c **** 			selector = RSN_AUTH_KEY_MGMT_PSK_OVER_802_1X;
 2074              		.loc 1 679 26 is_stmt 0
 2075 0130 898B     		andi	a5,a5,2
 680:C:/Users/stapi/OneDrive/Desktop/GD32VW553/V1_MQTT_OK/GD32VW55X_Wifi_BLE_SDK/GD32VW55x_RELEASE_V1.0.2/MSDK/wpa_supplicant/src/ap\wpa_auth_ie.c **** #ifdef CONFIG_OWE
 2076              		.loc 1 680 13
 2077 0132 B7B80F00 		li	a7,1028096
 679:C:/Users/stapi/OneDrive/Desktop/GD32VW553/V1_MQTT_OK/GD32VW55X_Wifi_BLE_SDK/GD32VW55x_RELEASE_V1.0.2/MSDK/wpa_supplicant/src/ap\wpa_auth_ie.c **** 			selector = RSN_AUTH_KEY_MGMT_PSK_OVER_802_1X;
 2078              		.loc 1 679 11
 2079 0136 F1C3     		beq	a5,zero,.L195
 680:C:/Users/stapi/OneDrive/Desktop/GD32VW553/V1_MQTT_OK/GD32VW55X_Wifi_BLE_SDK/GD32VW55x_RELEASE_V1.0.2/MSDK/wpa_supplicant/src/ap\wpa_auth_ie.c **** #ifdef CONFIG_OWE
 2080              		.loc 1 680 13
 2081 0138 938828C0 		addi	a7,a7,-1022
 2082              	.L134:
 2083              	.LVL202:
 693:C:/Users/stapi/OneDrive/Desktop/GD32VW553/V1_MQTT_OK/GD32VW55X_Wifi_BLE_SDK/GD32VW55x_RELEASE_V1.0.2/MSDK/wpa_supplicant/src/ap\wpa_auth_ie.c **** 
 2084              		.loc 1 693 3 is_stmt 1
 695:C:/Users/stapi/OneDrive/Desktop/GD32VW553/V1_MQTT_OK/GD32VW55X_Wifi_BLE_SDK/GD32VW55x_RELEASE_V1.0.2/MSDK/wpa_supplicant/src/ap\wpa_auth_ie.c **** 					       data.pairwise_cipher);
 2085              		.loc 1 695 14 is_stmt 0
 2086 013c B255     		lw	a1,44(sp)
 693:C:/Users/stapi/OneDrive/Desktop/GD32VW553/V1_MQTT_OK/GD32VW55X_Wifi_BLE_SDK/GD32VW55x_RELEASE_V1.0.2/MSDK/wpa_supplicant/src/ap\wpa_auth_ie.c **** 
 2087              		.loc 1 693 50
 2088 013e 23A41401 		sw	a7,8(s1)
 695:C:/Users/stapi/OneDrive/Desktop/GD32VW553/V1_MQTT_OK/GD32VW55X_Wifi_BLE_SDK/GD32VW55x_RELEASE_V1.0.2/MSDK/wpa_supplicant/src/ap\wpa_auth_ie.c **** 					       data.pairwise_cipher);
 2089              		.loc 1 695 3 is_stmt 1
 695:C:/Users/stapi/OneDrive/Desktop/GD32VW553/V1_MQTT_OK/GD32VW55X_Wifi_BLE_SDK/GD32VW55x_RELEASE_V1.0.2/MSDK/wpa_supplicant/src/ap\wpa_auth_ie.c **** 					       data.pairwise_cipher);
 2090              		.loc 1 695 14 is_stmt 0
 2091 0142 0945     		li	a0,2
 2092 0144 97000000 		call	wpa_cipher_to_suite
 2092      E7800000 
 2093              	.LVL203:
 697:C:/Users/stapi/OneDrive/Desktop/GD32VW553/V1_MQTT_OK/GD32VW55X_Wifi_BLE_SDK/GD32VW55x_RELEASE_V1.0.2/MSDK/wpa_supplicant/src/ap\wpa_auth_ie.c **** 			selector = RSN_CIPHER_SUITE_CCMP;
 2094              		.loc 1 697 3 is_stmt 1
 697:C:/Users/stapi/OneDrive/Desktop/GD32VW553/V1_MQTT_OK/GD32VW55X_Wifi_BLE_SDK/GD32VW55x_RELEASE_V1.0.2/MSDK/wpa_supplicant/src/ap\wpa_auth_ie.c **** 			selector = RSN_CIPHER_SUITE_CCMP;
 2095              		.loc 1 697 6 is_stmt 0
 2096 014c 09E5     		bne	a0,zero,.L135
 698:C:/Users/stapi/OneDrive/Desktop/GD32VW553/V1_MQTT_OK/GD32VW55X_Wifi_BLE_SDK/GD32VW55x_RELEASE_V1.0.2/MSDK/wpa_supplicant/src/ap\wpa_auth_ie.c **** 		wpa_auth->dot11RSNAPairwiseCipherSelected = selector;
 2097              		.loc 1 698 13
 2098 014e 37B50F00 		li	a0,1028096
 2099              	.LVL204:
 2100 0152 130545C0 		addi	a0,a0,-1020
 2101              	.L135:
 2102              	.LVL205:
 699:C:/Users/stapi/OneDrive/Desktop/GD32VW553/V1_MQTT_OK/GD32VW55X_Wifi_BLE_SDK/GD32VW55x_RELEASE_V1.0.2/MSDK/wpa_supplicant/src/ap\wpa_auth_ie.c **** 
 2103              		.loc 1 699 3 is_stmt 1
 701:C:/Users/stapi/OneDrive/Desktop/GD32VW553/V1_MQTT_OK/GD32VW55X_Wifi_BLE_SDK/GD32VW55x_RELEASE_V1.0.2/MSDK/wpa_supplicant/src/ap\wpa_auth_ie.c **** 					       data.group_cipher);
 2104              		.loc 1 701 14 is_stmt 0
 2105 0156 D255     		lw	a1,52(sp)
 699:C:/Users/stapi/OneDrive/Desktop/GD32VW553/V1_MQTT_OK/GD32VW55X_Wifi_BLE_SDK/GD32VW55x_RELEASE_V1.0.2/MSDK/wpa_supplicant/src/ap\wpa_auth_ie.c **** 
 2106              		.loc 1 699 45
 2107 0158 C8C4     		sw	a0,12(s1)
 701:C:/Users/stapi/OneDrive/Desktop/GD32VW553/V1_MQTT_OK/GD32VW55X_Wifi_BLE_SDK/GD32VW55x_RELEASE_V1.0.2/MSDK/wpa_supplicant/src/ap\wpa_auth_ie.c **** 					       data.group_cipher);
 2108              		.loc 1 701 3 is_stmt 1
 701:C:/Users/stapi/OneDrive/Desktop/GD32VW553/V1_MQTT_OK/GD32VW55X_Wifi_BLE_SDK/GD32VW55x_RELEASE_V1.0.2/MSDK/wpa_supplicant/src/ap\wpa_auth_ie.c **** 					       data.group_cipher);
 2109              		.loc 1 701 14 is_stmt 0
 2110 015a 0945     		li	a0,2
 2111              	.LVL206:
 2112 015c 97000000 		call	wpa_cipher_to_suite
 2112      E7800000 
 2113              	.LVL207:
 703:C:/Users/stapi/OneDrive/Desktop/GD32VW553/V1_MQTT_OK/GD32VW55X_Wifi_BLE_SDK/GD32VW55x_RELEASE_V1.0.2/MSDK/wpa_supplicant/src/ap\wpa_auth_ie.c **** 			selector = RSN_CIPHER_SUITE_CCMP;
 2114              		.loc 1 703 3 is_stmt 1
 703:C:/Users/stapi/OneDrive/Desktop/GD32VW553/V1_MQTT_OK/GD32VW55X_Wifi_BLE_SDK/GD32VW55x_RELEASE_V1.0.2/MSDK/wpa_supplicant/src/ap\wpa_auth_ie.c **** 			selector = RSN_CIPHER_SUITE_CCMP;
 2115              		.loc 1 703 6 is_stmt 0
 2116 0164 09E5     		bne	a0,zero,.L140
 704:C:/Users/stapi/OneDrive/Desktop/GD32VW553/V1_MQTT_OK/GD32VW55X_Wifi_BLE_SDK/GD32VW55x_RELEASE_V1.0.2/MSDK/wpa_supplicant/src/ap\wpa_auth_ie.c **** 		wpa_auth->dot11RSNAGroupCipherSelected = selector;
 2117              		.loc 1 704 13
 2118 0166 37B50F00 		li	a0,1028096
 2119              	.LVL208:
 2120 016a 130545C0 		addi	a0,a0,-1020
 2121              	.LVL209:
 705:C:/Users/stapi/OneDrive/Desktop/GD32VW553/V1_MQTT_OK/GD32VW55X_Wifi_BLE_SDK/GD32VW55x_RELEASE_V1.0.2/MSDK/wpa_supplicant/src/ap\wpa_auth_ie.c **** 	} else {
 2122              		.loc 1 705 3 is_stmt 1
 2123              	.L140:
 726:C:/Users/stapi/OneDrive/Desktop/GD32VW553/V1_MQTT_OK/GD32VW55X_Wifi_BLE_SDK/GD32VW55x_RELEASE_V1.0.2/MSDK/wpa_supplicant/src/ap\wpa_auth_ie.c **** 	}
 2124              		.loc 1 726 3
 726:C:/Users/stapi/OneDrive/Desktop/GD32VW553/V1_MQTT_OK/GD32VW55X_Wifi_BLE_SDK/GD32VW55x_RELEASE_V1.0.2/MSDK/wpa_supplicant/src/ap\wpa_auth_ie.c **** 	}
 2125              		.loc 1 726 42 is_stmt 0
 2126 016e 88C8     		sw	a0,16(s1)
 728:C:/Users/stapi/OneDrive/Desktop/GD32VW553/V1_MQTT_OK/GD32VW55X_Wifi_BLE_SDK/GD32VW55x_RELEASE_V1.0.2/MSDK/wpa_supplicant/src/ap\wpa_auth_ie.c **** 		wpa_printf(MSG_DEBUG, "Failed to parse WPA/RSN IE from "
 2127              		.loc 1 728 2 is_stmt 1
 728:C:/Users/stapi/OneDrive/Desktop/GD32VW553/V1_MQTT_OK/GD32VW55X_Wifi_BLE_SDK/GD32VW55x_RELEASE_V1.0.2/MSDK/wpa_supplicant/src/ap\wpa_auth_ie.c **** 		wpa_printf(MSG_DEBUG, "Failed to parse WPA/RSN IE from "
 2128              		.loc 1 728 5 is_stmt 0
 2129 0170 63050A0E 		beq	s4,zero,.L141
 729:C:/Users/stapi/OneDrive/Desktop/GD32VW553/V1_MQTT_OK/GD32VW55X_Wifi_BLE_SDK/GD32VW55x_RELEASE_V1.0.2/MSDK/wpa_supplicant/src/ap\wpa_auth_ie.c **** 			   MACSTR " (res=%d)", MAC2STR(sm->addr), res);
 2130              		.loc 1 729 3 is_stmt 1
 2131 0174 52C0     		sw	s4,0(sp)
 2132 0176 8348D400 		lbu	a7,13(s0)
 2133 017a 0348C400 		lbu	a6,12(s0)
 2134 017e 8347B400 		lbu	a5,11(s0)
 2135 0182 0347A400 		lbu	a4,10(s0)
 2136 0186 83469400 		lbu	a3,9(s0)
 2137 018a 03468400 		lbu	a2,8(s0)
 2138 018e B7050000 		lui	a1,%hi(.LC10)
 2139 0192 93850500 		addi	a1,a1,%lo(.LC10)
 2140 0196 0945     		li	a0,2
 2141              	.LVL210:
 2142 0198 97000000 		call	wpa_printf
 2142      E7800000 
 2143              	.LVL211:
 731:C:/Users/stapi/OneDrive/Desktop/GD32VW553/V1_MQTT_OK/GD32VW55X_Wifi_BLE_SDK/GD32VW55x_RELEASE_V1.0.2/MSDK/wpa_supplicant/src/ap\wpa_auth_ie.c **** 		return WPA_INVALID_IE;
 2144              		.loc 1 731 3
 2145 01a0 B7050000 		lui	a1,%hi(.LC11)
 2146 01a4 0945     		li	a0,2
 2147 01a6 CA86     		mv	a3,s2
 2148 01a8 4E86     		mv	a2,s3
 2149 01aa 93850500 		addi	a1,a1,%lo(.LC11)
 2150 01ae 97000000 		call	wpa_hexdump
 2150      E7800000 
 2151              	.LVL212:
 732:C:/Users/stapi/OneDrive/Desktop/GD32VW553/V1_MQTT_OK/GD32VW55X_Wifi_BLE_SDK/GD32VW55x_RELEASE_V1.0.2/MSDK/wpa_supplicant/src/ap\wpa_auth_ie.c **** 	}
 2152              		.loc 1 732 3
 732:C:/Users/stapi/OneDrive/Desktop/GD32VW553/V1_MQTT_OK/GD32VW55X_Wifi_BLE_SDK/GD32VW55x_RELEASE_V1.0.2/MSDK/wpa_supplicant/src/ap\wpa_auth_ie.c **** 	}
 2153              		.loc 1 732 10 is_stmt 0
 2154 01b6 0545     		li	a0,1
 2155 01b8 65BD     		j	.L126
 2156              	.LVL213:
 2157              	.L188:
 642:C:/Users/stapi/OneDrive/Desktop/GD32VW553/V1_MQTT_OK/GD32VW55X_Wifi_BLE_SDK/GD32VW55x_RELEASE_V1.0.2/MSDK/wpa_supplicant/src/ap\wpa_auth_ie.c **** 		else if (data.key_mgmt & WPA_KEY_MGMT_IEEE8021X_SUITE_B)
 2158              		.loc 1 642 13
 2159 01ba B7B80F00 		li	a7,1028096
 2160 01be 9388C8C0 		addi	a7,a7,-1012
 2161 01c2 ADBF     		j	.L134
 2162              	.L189:
 644:C:/Users/stapi/OneDrive/Desktop/GD32VW553/V1_MQTT_OK/GD32VW55X_Wifi_BLE_SDK/GD32VW55x_RELEASE_V1.0.2/MSDK/wpa_supplicant/src/ap\wpa_auth_ie.c **** #ifdef CONFIG_FILS
 2163              		.loc 1 644 13
 2164 01c4 B7B80F00 		li	a7,1028096
 2165 01c8 9388B8C0 		addi	a7,a7,-1013
 2166 01cc 85BF     		j	.L134
 2167              	.L190:
 668:C:/Users/stapi/OneDrive/Desktop/GD32VW553/V1_MQTT_OK/GD32VW55X_Wifi_BLE_SDK/GD32VW55x_RELEASE_V1.0.2/MSDK/wpa_supplicant/src/ap\wpa_auth_ie.c **** 		else if (data.key_mgmt & WPA_KEY_MGMT_PSK_SHA256)
 2168              		.loc 1 668 13
 2169 01ce B7B80F00 		li	a7,1028096
 2170 01d2 938858C0 		addi	a7,a7,-1019
 2171 01d6 9DB7     		j	.L134
 2172              	.L191:
 670:C:/Users/stapi/OneDrive/Desktop/GD32VW553/V1_MQTT_OK/GD32VW55X_Wifi_BLE_SDK/GD32VW55x_RELEASE_V1.0.2/MSDK/wpa_supplicant/src/ap\wpa_auth_ie.c **** #ifdef CONFIG_SAE
 2173              		.loc 1 670 13
 2174 01d8 B7B80F00 		li	a7,1028096
 2175 01dc 938868C0 		addi	a7,a7,-1018
 2176 01e0 B1BF     		j	.L134
 2177              	.L192:
 673:C:/Users/stapi/OneDrive/Desktop/GD32VW553/V1_MQTT_OK/GD32VW55X_Wifi_BLE_SDK/GD32VW55x_RELEASE_V1.0.2/MSDK/wpa_supplicant/src/ap\wpa_auth_ie.c **** 		else if (data.key_mgmt & WPA_KEY_MGMT_FT_SAE)
 2178              		.loc 1 673 13
 2179 01e2 B7B80F00 		li	a7,1028096
 2180 01e6 938888C0 		addi	a7,a7,-1016
 2181 01ea 89BF     		j	.L134
 2182              	.L193:
 675:C:/Users/stapi/OneDrive/Desktop/GD32VW553/V1_MQTT_OK/GD32VW55X_Wifi_BLE_SDK/GD32VW55x_RELEASE_V1.0.2/MSDK/wpa_supplicant/src/ap\wpa_auth_ie.c **** #endif /* CONFIG_SAE */
 2183              		.loc 1 675 13
 2184 01ec B7B80F00 		li	a7,1028096
 2185 01f0 938898C0 		addi	a7,a7,-1015
 2186 01f4 A1B7     		j	.L134
 2187              	.L194:
 638:C:/Users/stapi/OneDrive/Desktop/GD32VW553/V1_MQTT_OK/GD32VW55X_Wifi_BLE_SDK/GD32VW55x_RELEASE_V1.0.2/MSDK/wpa_supplicant/src/ap\wpa_auth_ie.c **** 		if (0) {
 2188              		.loc 1 638 12
 2189 01f6 B7B80F00 		li	a7,1028096
 2190              	.L195:
 2191 01fa 938818C0 		addi	a7,a7,-1023
 2192 01fe 3DBF     		j	.L134
 2193              	.LVL214:
 2194              	.L130:
 707:C:/Users/stapi/OneDrive/Desktop/GD32VW553/V1_MQTT_OK/GD32VW55X_Wifi_BLE_SDK/GD32VW55x_RELEASE_V1.0.2/MSDK/wpa_supplicant/src/ap\wpa_auth_ie.c **** 
 2195              		.loc 1 707 3 is_stmt 1
 707:C:/Users/stapi/OneDrive/Desktop/GD32VW553/V1_MQTT_OK/GD32VW55X_Wifi_BLE_SDK/GD32VW55x_RELEASE_V1.0.2/MSDK/wpa_supplicant/src/ap\wpa_auth_ie.c **** 
 2196              		.loc 1 707 9 is_stmt 0
 2197 0200 97000000 		call	wpa_parse_wpa_ie_wpa
 2197      E7800000 
 2198              	.LVL215:
 710:C:/Users/stapi/OneDrive/Desktop/GD32VW553/V1_MQTT_OK/GD32VW55X_Wifi_BLE_SDK/GD32VW55x_RELEASE_V1.0.2/MSDK/wpa_supplicant/src/ap\wpa_auth_ie.c **** 			selector = WPA_AUTH_KEY_MGMT_UNSPEC_802_1X;
 2199              		.loc 1 710 11
 2200 0208 F257     		lw	a5,60(sp)
 707:C:/Users/stapi/OneDrive/Desktop/GD32VW553/V1_MQTT_OK/GD32VW55X_Wifi_BLE_SDK/GD32VW55x_RELEASE_V1.0.2/MSDK/wpa_supplicant/src/ap\wpa_auth_ie.c **** 
 2201              		.loc 1 707 9
 2202 020a 2A8A     		mv	s4,a0
 2203              	.LVL216:
 709:C:/Users/stapi/OneDrive/Desktop/GD32VW553/V1_MQTT_OK/GD32VW55X_Wifi_BLE_SDK/GD32VW55x_RELEASE_V1.0.2/MSDK/wpa_supplicant/src/ap\wpa_auth_ie.c **** 		if (data.key_mgmt & WPA_KEY_MGMT_IEEE8021X)
 2204              		.loc 1 709 3 is_stmt 1
 710:C:/Users/stapi/OneDrive/Desktop/GD32VW553/V1_MQTT_OK/GD32VW55X_Wifi_BLE_SDK/GD32VW55x_RELEASE_V1.0.2/MSDK/wpa_supplicant/src/ap\wpa_auth_ie.c **** 			selector = WPA_AUTH_KEY_MGMT_UNSPEC_802_1X;
 2205              		.loc 1 710 3
 710:C:/Users/stapi/OneDrive/Desktop/GD32VW553/V1_MQTT_OK/GD32VW55X_Wifi_BLE_SDK/GD32VW55x_RELEASE_V1.0.2/MSDK/wpa_supplicant/src/ap\wpa_auth_ie.c **** 			selector = WPA_AUTH_KEY_MGMT_UNSPEC_802_1X;
 2206              		.loc 1 710 21 is_stmt 0
 2207 020c 13F71700 		andi	a4,a5,1
 710:C:/Users/stapi/OneDrive/Desktop/GD32VW553/V1_MQTT_OK/GD32VW55X_Wifi_BLE_SDK/GD32VW55x_RELEASE_V1.0.2/MSDK/wpa_supplicant/src/ap\wpa_auth_ie.c **** 			selector = WPA_AUTH_KEY_MGMT_UNSPEC_802_1X;
 2208              		.loc 1 710 6
 2209 0210 21E3     		bne	a4,zero,.L197
 712:C:/Users/stapi/OneDrive/Desktop/GD32VW553/V1_MQTT_OK/GD32VW55X_Wifi_BLE_SDK/GD32VW55x_RELEASE_V1.0.2/MSDK/wpa_supplicant/src/ap\wpa_auth_ie.c **** 			selector = WPA_AUTH_KEY_MGMT_PSK_OVER_802_1X;
 2210              		.loc 1 712 8 is_stmt 1
 712:C:/Users/stapi/OneDrive/Desktop/GD32VW553/V1_MQTT_OK/GD32VW55X_Wifi_BLE_SDK/GD32VW55x_RELEASE_V1.0.2/MSDK/wpa_supplicant/src/ap\wpa_auth_ie.c **** 			selector = WPA_AUTH_KEY_MGMT_PSK_OVER_802_1X;
 2211              		.loc 1 712 26 is_stmt 0
 2212 0212 898B     		andi	a5,a5,2
 712:C:/Users/stapi/OneDrive/Desktop/GD32VW553/V1_MQTT_OK/GD32VW55X_Wifi_BLE_SDK/GD32VW55x_RELEASE_V1.0.2/MSDK/wpa_supplicant/src/ap\wpa_auth_ie.c **** 			selector = WPA_AUTH_KEY_MGMT_PSK_OVER_802_1X;
 2213              		.loc 1 712 11
 2214 0214 95CF     		beq	a5,zero,.L197
 713:C:/Users/stapi/OneDrive/Desktop/GD32VW553/V1_MQTT_OK/GD32VW55X_Wifi_BLE_SDK/GD32VW55x_RELEASE_V1.0.2/MSDK/wpa_supplicant/src/ap\wpa_auth_ie.c **** 		wpa_auth->dot11RSNAAuthenticationSuiteSelected = selector;
 2215              		.loc 1 713 13
 2216 0216 B7F75000 		li	a5,5304320
 2217 021a 93872720 		addi	a5,a5,514
 2218              	.L138:
 2219              	.LVL217:
 714:C:/Users/stapi/OneDrive/Desktop/GD32VW553/V1_MQTT_OK/GD32VW55X_Wifi_BLE_SDK/GD32VW55x_RELEASE_V1.0.2/MSDK/wpa_supplicant/src/ap\wpa_auth_ie.c **** 
 2220              		.loc 1 714 3 is_stmt 1
 716:C:/Users/stapi/OneDrive/Desktop/GD32VW553/V1_MQTT_OK/GD32VW55X_Wifi_BLE_SDK/GD32VW55x_RELEASE_V1.0.2/MSDK/wpa_supplicant/src/ap\wpa_auth_ie.c **** 					       data.pairwise_cipher);
 2221              		.loc 1 716 14 is_stmt 0
 2222 021e B255     		lw	a1,44(sp)
 714:C:/Users/stapi/OneDrive/Desktop/GD32VW553/V1_MQTT_OK/GD32VW55X_Wifi_BLE_SDK/GD32VW55x_RELEASE_V1.0.2/MSDK/wpa_supplicant/src/ap\wpa_auth_ie.c **** 
 2223              		.loc 1 714 50
 2224 0220 9CC4     		sw	a5,8(s1)
 716:C:/Users/stapi/OneDrive/Desktop/GD32VW553/V1_MQTT_OK/GD32VW55X_Wifi_BLE_SDK/GD32VW55x_RELEASE_V1.0.2/MSDK/wpa_supplicant/src/ap\wpa_auth_ie.c **** 					       data.pairwise_cipher);
 2225              		.loc 1 716 3 is_stmt 1
 716:C:/Users/stapi/OneDrive/Desktop/GD32VW553/V1_MQTT_OK/GD32VW55X_Wifi_BLE_SDK/GD32VW55x_RELEASE_V1.0.2/MSDK/wpa_supplicant/src/ap\wpa_auth_ie.c **** 					       data.pairwise_cipher);
 2226              		.loc 1 716 14 is_stmt 0
 2227 0222 0545     		li	a0,1
 2228              	.LVL218:
 2229 0224 97000000 		call	wpa_cipher_to_suite
 2229      E7800000 
 2230              	.LVL219:
 718:C:/Users/stapi/OneDrive/Desktop/GD32VW553/V1_MQTT_OK/GD32VW55X_Wifi_BLE_SDK/GD32VW55x_RELEASE_V1.0.2/MSDK/wpa_supplicant/src/ap\wpa_auth_ie.c **** 			selector = RSN_CIPHER_SUITE_TKIP;
 2231              		.loc 1 718 3 is_stmt 1
 718:C:/Users/stapi/OneDrive/Desktop/GD32VW553/V1_MQTT_OK/GD32VW55X_Wifi_BLE_SDK/GD32VW55x_RELEASE_V1.0.2/MSDK/wpa_supplicant/src/ap\wpa_auth_ie.c **** 			selector = RSN_CIPHER_SUITE_TKIP;
 2232              		.loc 1 718 6 is_stmt 0
 2233 022c 09E5     		bne	a0,zero,.L139
 719:C:/Users/stapi/OneDrive/Desktop/GD32VW553/V1_MQTT_OK/GD32VW55X_Wifi_BLE_SDK/GD32VW55x_RELEASE_V1.0.2/MSDK/wpa_supplicant/src/ap\wpa_auth_ie.c **** 		wpa_auth->dot11RSNAPairwiseCipherSelected = selector;
 2234              		.loc 1 719 13
 2235 022e 37B50F00 		li	a0,1028096
 2236              	.LVL220:
 2237 0232 130525C0 		addi	a0,a0,-1022
 2238              	.L139:
 2239              	.LVL221:
 720:C:/Users/stapi/OneDrive/Desktop/GD32VW553/V1_MQTT_OK/GD32VW55X_Wifi_BLE_SDK/GD32VW55x_RELEASE_V1.0.2/MSDK/wpa_supplicant/src/ap\wpa_auth_ie.c **** 
 2240              		.loc 1 720 3 is_stmt 1
 722:C:/Users/stapi/OneDrive/Desktop/GD32VW553/V1_MQTT_OK/GD32VW55X_Wifi_BLE_SDK/GD32VW55x_RELEASE_V1.0.2/MSDK/wpa_supplicant/src/ap\wpa_auth_ie.c **** 					       data.group_cipher);
 2241              		.loc 1 722 14 is_stmt 0
 2242 0236 D255     		lw	a1,52(sp)
 720:C:/Users/stapi/OneDrive/Desktop/GD32VW553/V1_MQTT_OK/GD32VW55X_Wifi_BLE_SDK/GD32VW55x_RELEASE_V1.0.2/MSDK/wpa_supplicant/src/ap\wpa_auth_ie.c **** 
 2243              		.loc 1 720 45
 2244 0238 C8C4     		sw	a0,12(s1)
 722:C:/Users/stapi/OneDrive/Desktop/GD32VW553/V1_MQTT_OK/GD32VW55X_Wifi_BLE_SDK/GD32VW55x_RELEASE_V1.0.2/MSDK/wpa_supplicant/src/ap\wpa_auth_ie.c **** 					       data.group_cipher);
 2245              		.loc 1 722 3 is_stmt 1
 722:C:/Users/stapi/OneDrive/Desktop/GD32VW553/V1_MQTT_OK/GD32VW55X_Wifi_BLE_SDK/GD32VW55x_RELEASE_V1.0.2/MSDK/wpa_supplicant/src/ap\wpa_auth_ie.c **** 					       data.group_cipher);
 2246              		.loc 1 722 14 is_stmt 0
 2247 023a 0545     		li	a0,1
 2248              	.LVL222:
 2249 023c 97000000 		call	wpa_cipher_to_suite
 2249      E7800000 
 2250              	.LVL223:
 724:C:/Users/stapi/OneDrive/Desktop/GD32VW553/V1_MQTT_OK/GD32VW55X_Wifi_BLE_SDK/GD32VW55x_RELEASE_V1.0.2/MSDK/wpa_supplicant/src/ap\wpa_auth_ie.c **** 			selector = WPA_CIPHER_SUITE_TKIP;
 2251              		.loc 1 724 3 is_stmt 1
 724:C:/Users/stapi/OneDrive/Desktop/GD32VW553/V1_MQTT_OK/GD32VW55X_Wifi_BLE_SDK/GD32VW55x_RELEASE_V1.0.2/MSDK/wpa_supplicant/src/ap\wpa_auth_ie.c **** 			selector = WPA_CIPHER_SUITE_TKIP;
 2252              		.loc 1 724 6 is_stmt 0
 2253 0244 0DF5     		bne	a0,zero,.L140
 725:C:/Users/stapi/OneDrive/Desktop/GD32VW553/V1_MQTT_OK/GD32VW55X_Wifi_BLE_SDK/GD32VW55x_RELEASE_V1.0.2/MSDK/wpa_supplicant/src/ap\wpa_auth_ie.c **** 		wpa_auth->dot11RSNAGroupCipherSelected = selector;
 2254              		.loc 1 725 13
 2255 0246 37F55000 		li	a0,5304320
 2256              	.LVL224:
 2257 024a 13052520 		addi	a0,a0,514
 2258 024e 05B7     		j	.L140
 2259              	.LVL225:
 2260              	.L197:
 709:C:/Users/stapi/OneDrive/Desktop/GD32VW553/V1_MQTT_OK/GD32VW55X_Wifi_BLE_SDK/GD32VW55x_RELEASE_V1.0.2/MSDK/wpa_supplicant/src/ap\wpa_auth_ie.c **** 		if (data.key_mgmt & WPA_KEY_MGMT_IEEE8021X)
 2261              		.loc 1 709 12
 2262 0250 B7F75000 		li	a5,5304320
 2263 0254 93871720 		addi	a5,a5,513
 2264 0258 D9B7     		j	.L138
 2265              	.LVL226:
 2266              	.L141:
 735:C:/Users/stapi/OneDrive/Desktop/GD32VW553/V1_MQTT_OK/GD32VW55X_Wifi_BLE_SDK/GD32VW55x_RELEASE_V1.0.2/MSDK/wpa_supplicant/src/ap\wpa_auth_ie.c **** 		wpa_printf(MSG_DEBUG, "Invalid WPA group cipher (0x%x) from "
 2267              		.loc 1 735 2 is_stmt 1
 735:C:/Users/stapi/OneDrive/Desktop/GD32VW553/V1_MQTT_OK/GD32VW55X_Wifi_BLE_SDK/GD32VW55x_RELEASE_V1.0.2/MSDK/wpa_supplicant/src/ap\wpa_auth_ie.c **** 		wpa_printf(MSG_DEBUG, "Invalid WPA group cipher (0x%x) from "
 2268              		.loc 1 735 10 is_stmt 0
 2269 025a 5256     		lw	a2,52(sp)
 735:C:/Users/stapi/OneDrive/Desktop/GD32VW553/V1_MQTT_OK/GD32VW55X_Wifi_BLE_SDK/GD32VW55x_RELEASE_V1.0.2/MSDK/wpa_supplicant/src/ap\wpa_auth_ie.c **** 		wpa_printf(MSG_DEBUG, "Invalid WPA group cipher (0x%x) from "
 2270              		.loc 1 735 5
 2271 025c FC44     		lw	a5,76(s1)
 2272 025e 630AF602 		beq	a2,a5,.L142
 736:C:/Users/stapi/OneDrive/Desktop/GD32VW553/V1_MQTT_OK/GD32VW55X_Wifi_BLE_SDK/GD32VW55x_RELEASE_V1.0.2/MSDK/wpa_supplicant/src/ap\wpa_auth_ie.c **** 			   MACSTR, data.group_cipher, MAC2STR(sm->addr));
 2273              		.loc 1 736 3 is_stmt 1
 2274 0262 8347D400 		lbu	a5,13(s0)
 2275 0266 B7050000 		lui	a1,%hi(.LC12)
 2276 026a 0945     		li	a0,2
 2277              	.LVL227:
 2278 026c 3EC0     		sw	a5,0(sp)
 2279              	.LVL228:
 2280 026e 8348C400 		lbu	a7,12(s0)
 2281 0272 0348B400 		lbu	a6,11(s0)
 2282 0276 8347A400 		lbu	a5,10(s0)
 2283 027a 03479400 		lbu	a4,9(s0)
 2284 027e 83468400 		lbu	a3,8(s0)
 2285 0282 93850500 		addi	a1,a1,%lo(.LC12)
 2286 0286 97000000 		call	wpa_printf
 2286      E7800000 
 2287              	.LVL229:
 738:C:/Users/stapi/OneDrive/Desktop/GD32VW553/V1_MQTT_OK/GD32VW55X_Wifi_BLE_SDK/GD32VW55x_RELEASE_V1.0.2/MSDK/wpa_supplicant/src/ap\wpa_auth_ie.c **** 	}
 2288              		.loc 1 738 3
 738:C:/Users/stapi/OneDrive/Desktop/GD32VW553/V1_MQTT_OK/GD32VW55X_Wifi_BLE_SDK/GD32VW55x_RELEASE_V1.0.2/MSDK/wpa_supplicant/src/ap\wpa_auth_ie.c **** 	}
 2289              		.loc 1 738 10 is_stmt 0
 2290 028e 0945     		li	a0,2
 2291 0290 C5B3     		j	.L126
 2292              	.LVL230:
 2293              	.L142:
 741:C:/Users/stapi/OneDrive/Desktop/GD32VW553/V1_MQTT_OK/GD32VW55X_Wifi_BLE_SDK/GD32VW55x_RELEASE_V1.0.2/MSDK/wpa_supplicant/src/ap\wpa_auth_ie.c **** 	if (!key_mgmt) {
 2294              		.loc 1 741 2 is_stmt 1
 741:C:/Users/stapi/OneDrive/Desktop/GD32VW553/V1_MQTT_OK/GD32VW55X_Wifi_BLE_SDK/GD32VW55x_RELEASE_V1.0.2/MSDK/wpa_supplicant/src/ap\wpa_auth_ie.c **** 	if (!key_mgmt) {
 2295              		.loc 1 741 17 is_stmt 0
 2296 0292 7256     		lw	a2,60(sp)
 741:C:/Users/stapi/OneDrive/Desktop/GD32VW553/V1_MQTT_OK/GD32VW55X_Wifi_BLE_SDK/GD32VW55x_RELEASE_V1.0.2/MSDK/wpa_supplicant/src/ap\wpa_auth_ie.c **** 	if (!key_mgmt) {
 2297              		.loc 1 741 11
 2298 0294 FC40     		lw	a5,68(s1)
 2299 0296 F18F     		and	a5,a2,a5
 2300              	.LVL231:
 742:C:/Users/stapi/OneDrive/Desktop/GD32VW553/V1_MQTT_OK/GD32VW55X_Wifi_BLE_SDK/GD32VW55x_RELEASE_V1.0.2/MSDK/wpa_supplicant/src/ap\wpa_auth_ie.c **** 		wpa_printf(MSG_DEBUG, "Invalid WPA key mgmt (0x%x) from "
 2301              		.loc 1 742 2 is_stmt 1
 742:C:/Users/stapi/OneDrive/Desktop/GD32VW553/V1_MQTT_OK/GD32VW55X_Wifi_BLE_SDK/GD32VW55x_RELEASE_V1.0.2/MSDK/wpa_supplicant/src/ap\wpa_auth_ie.c **** 		wpa_printf(MSG_DEBUG, "Invalid WPA key mgmt (0x%x) from "
 2302              		.loc 1 742 5 is_stmt 0
 2303 0298 8DEB     		bne	a5,zero,.L143
 743:C:/Users/stapi/OneDrive/Desktop/GD32VW553/V1_MQTT_OK/GD32VW55X_Wifi_BLE_SDK/GD32VW55x_RELEASE_V1.0.2/MSDK/wpa_supplicant/src/ap\wpa_auth_ie.c **** 			   MACSTR, data.key_mgmt, MAC2STR(sm->addr));
 2304              		.loc 1 743 3 is_stmt 1
 2305 029a 8347D400 		lbu	a5,13(s0)
 2306              	.LVL232:
 2307 029e B7050000 		lui	a1,%hi(.LC13)
 2308 02a2 0945     		li	a0,2
 2309              	.LVL233:
 2310 02a4 3EC0     		sw	a5,0(sp)
 2311              	.LVL234:
 2312 02a6 8348C400 		lbu	a7,12(s0)
 2313 02aa 0348B400 		lbu	a6,11(s0)
 2314 02ae 8347A400 		lbu	a5,10(s0)
 2315 02b2 03479400 		lbu	a4,9(s0)
 2316 02b6 83468400 		lbu	a3,8(s0)
 2317 02ba 93850500 		addi	a1,a1,%lo(.LC13)
 2318 02be 97000000 		call	wpa_printf
 2318      E7800000 
 2319              	.LVL235:
 745:C:/Users/stapi/OneDrive/Desktop/GD32VW553/V1_MQTT_OK/GD32VW55X_Wifi_BLE_SDK/GD32VW55x_RELEASE_V1.0.2/MSDK/wpa_supplicant/src/ap\wpa_auth_ie.c **** 	}
 2320              		.loc 1 745 3
 745:C:/Users/stapi/OneDrive/Desktop/GD32VW553/V1_MQTT_OK/GD32VW55X_Wifi_BLE_SDK/GD32VW55x_RELEASE_V1.0.2/MSDK/wpa_supplicant/src/ap\wpa_auth_ie.c **** 	}
 2321              		.loc 1 745 10 is_stmt 0
 2322 02c6 1145     		li	a0,4
 2323 02c8 65B3     		j	.L126
 2324              	.LVL236:
 2325              	.L143:
 747:C:/Users/stapi/OneDrive/Desktop/GD32VW553/V1_MQTT_OK/GD32VW55X_Wifi_BLE_SDK/GD32VW55x_RELEASE_V1.0.2/MSDK/wpa_supplicant/src/ap\wpa_auth_ie.c **** 	}
 2326              		.loc 1 747 2 is_stmt 1
 749:C:/Users/stapi/OneDrive/Desktop/GD32VW553/V1_MQTT_OK/GD32VW55X_Wifi_BLE_SDK/GD32VW55x_RELEASE_V1.0.2/MSDK/wpa_supplicant/src/ap\wpa_auth_ie.c **** 		sm->wpa_key_mgmt = WPA_KEY_MGMT_IEEE8021X_SUITE_B_192;
 2327              		.loc 1 749 7
 749:C:/Users/stapi/OneDrive/Desktop/GD32VW553/V1_MQTT_OK/GD32VW55X_Wifi_BLE_SDK/GD32VW55x_RELEASE_V1.0.2/MSDK/wpa_supplicant/src/ap\wpa_auth_ie.c **** 		sm->wpa_key_mgmt = WPA_KEY_MGMT_IEEE8021X_SUITE_B_192;
 2328              		.loc 1 749 20 is_stmt 0
 2329 02ca 37070200 		li	a4,131072
 2330 02ce B3F6E700 		and	a3,a5,a4
 749:C:/Users/stapi/OneDrive/Desktop/GD32VW553/V1_MQTT_OK/GD32VW55X_Wifi_BLE_SDK/GD32VW55x_RELEASE_V1.0.2/MSDK/wpa_supplicant/src/ap\wpa_auth_ie.c **** 		sm->wpa_key_mgmt = WPA_KEY_MGMT_IEEE8021X_SUITE_B_192;
 2331              		.loc 1 749 10
 2332 02d2 99CE     		beq	a3,zero,.L144
 2333              	.L258:
 783:C:/Users/stapi/OneDrive/Desktop/GD32VW553/V1_MQTT_OK/GD32VW55X_Wifi_BLE_SDK/GD32VW55x_RELEASE_V1.0.2/MSDK/wpa_supplicant/src/ap\wpa_auth_ie.c **** #endif /* CONFIG_SAE */
 2334              		.loc 1 783 3 is_stmt 1
 783:C:/Users/stapi/OneDrive/Desktop/GD32VW553/V1_MQTT_OK/GD32VW55X_Wifi_BLE_SDK/GD32VW55x_RELEASE_V1.0.2/MSDK/wpa_supplicant/src/ap\wpa_auth_ie.c **** #endif /* CONFIG_SAE */
 2335              		.loc 1 783 20 is_stmt 0
 2336 02d4 232EE428 		sw	a4,668(s0)
 2337              	.LVL237:
 2338              	.L145:
 802:C:/Users/stapi/OneDrive/Desktop/GD32VW553/V1_MQTT_OK/GD32VW55X_Wifi_BLE_SDK/GD32VW55x_RELEASE_V1.0.2/MSDK/wpa_supplicant/src/ap\wpa_auth_ie.c **** 		ciphers = data.pairwise_cipher & wpa_auth->conf.rsn_pairwise;
 2339              		.loc 1 802 2 is_stmt 1
 802:C:/Users/stapi/OneDrive/Desktop/GD32VW553/V1_MQTT_OK/GD32VW55X_Wifi_BLE_SDK/GD32VW55x_RELEASE_V1.0.2/MSDK/wpa_supplicant/src/ap\wpa_auth_ie.c **** 		ciphers = data.pairwise_cipher & wpa_auth->conf.rsn_pairwise;
 2340              		.loc 1 802 5 is_stmt 0
 2341 02d8 8947     		li	a5,2
 803:C:/Users/stapi/OneDrive/Desktop/GD32VW553/V1_MQTT_OK/GD32VW55X_Wifi_BLE_SDK/GD32VW55x_RELEASE_V1.0.2/MSDK/wpa_supplicant/src/ap\wpa_auth_ie.c **** 	else
 2342              		.loc 1 803 17
 2343 02da B256     		lw	a3,44(sp)
 802:C:/Users/stapi/OneDrive/Desktop/GD32VW553/V1_MQTT_OK/GD32VW55X_Wifi_BLE_SDK/GD32VW55x_RELEASE_V1.0.2/MSDK/wpa_supplicant/src/ap\wpa_auth_ie.c **** 		ciphers = data.pairwise_cipher & wpa_auth->conf.rsn_pairwise;
 2344              		.loc 1 802 5
 2345 02dc 631EFB04 		bne	s6,a5,.L152
 803:C:/Users/stapi/OneDrive/Desktop/GD32VW553/V1_MQTT_OK/GD32VW55X_Wifi_BLE_SDK/GD32VW55x_RELEASE_V1.0.2/MSDK/wpa_supplicant/src/ap\wpa_auth_ie.c **** 	else
 2346              		.loc 1 803 3 is_stmt 1
 803:C:/Users/stapi/OneDrive/Desktop/GD32VW553/V1_MQTT_OK/GD32VW55X_Wifi_BLE_SDK/GD32VW55x_RELEASE_V1.0.2/MSDK/wpa_supplicant/src/ap\wpa_auth_ie.c **** 	else
 2347              		.loc 1 803 11 is_stmt 0
 2348 02e0 A858     		lw	a0,112(s1)
 2349              	.LVL238:
 2350 02e2 758D     		and	a0,a3,a0
 2351              	.LVL239:
 806:C:/Users/stapi/OneDrive/Desktop/GD32VW553/V1_MQTT_OK/GD32VW55X_Wifi_BLE_SDK/GD32VW55x_RELEASE_V1.0.2/MSDK/wpa_supplicant/src/ap\wpa_auth_ie.c **** 		wpa_printf(MSG_DEBUG, "Invalid %s pairwise cipher (0x%x) "
 2352              		.loc 1 806 2 is_stmt 1
 806:C:/Users/stapi/OneDrive/Desktop/GD32VW553/V1_MQTT_OK/GD32VW55X_Wifi_BLE_SDK/GD32VW55x_RELEASE_V1.0.2/MSDK/wpa_supplicant/src/ap\wpa_auth_ie.c **** 		wpa_printf(MSG_DEBUG, "Invalid %s pairwise cipher (0x%x) "
 2353              		.loc 1 806 5 is_stmt 0
 2354 02e4 51E9     		bne	a0,zero,.L154
 807:C:/Users/stapi/OneDrive/Desktop/GD32VW553/V1_MQTT_OK/GD32VW55X_Wifi_BLE_SDK/GD32VW55x_RELEASE_V1.0.2/MSDK/wpa_supplicant/src/ap\wpa_auth_ie.c **** 			   "from " MACSTR,
 2355              		.loc 1 807 3
 2356 02e6 37060000 		lui	a2,%hi(.LC4)
 2357              	.LVL240:
 2358 02ea 13060600 		addi	a2,a2,%lo(.LC4)
 2359 02ee A1A8     		j	.L153
 2360              	.LVL241:
 2361              	.L144:
 751:C:/Users/stapi/OneDrive/Desktop/GD32VW553/V1_MQTT_OK/GD32VW55X_Wifi_BLE_SDK/GD32VW55x_RELEASE_V1.0.2/MSDK/wpa_supplicant/src/ap\wpa_auth_ie.c **** 		sm->wpa_key_mgmt = WPA_KEY_MGMT_IEEE8021X_SUITE_B;
 2362              		.loc 1 751 7 is_stmt 1
 751:C:/Users/stapi/OneDrive/Desktop/GD32VW553/V1_MQTT_OK/GD32VW55X_Wifi_BLE_SDK/GD32VW55x_RELEASE_V1.0.2/MSDK/wpa_supplicant/src/ap\wpa_auth_ie.c **** 		sm->wpa_key_mgmt = WPA_KEY_MGMT_IEEE8021X_SUITE_B;
 2363              		.loc 1 751 20 is_stmt 0
 2364 02f0 4167     		li	a4,65536
 2365 02f2 B3F6E700 		and	a3,a5,a4
 751:C:/Users/stapi/OneDrive/Desktop/GD32VW553/V1_MQTT_OK/GD32VW55X_Wifi_BLE_SDK/GD32VW55x_RELEASE_V1.0.2/MSDK/wpa_supplicant/src/ap\wpa_auth_ie.c **** 		sm->wpa_key_mgmt = WPA_KEY_MGMT_IEEE8021X_SUITE_B;
 2366              		.loc 1 751 10
 2367 02f6 F9FE     		bne	a3,zero,.L258
 775:C:/Users/stapi/OneDrive/Desktop/GD32VW553/V1_MQTT_OK/GD32VW55X_Wifi_BLE_SDK/GD32VW55x_RELEASE_V1.0.2/MSDK/wpa_supplicant/src/ap\wpa_auth_ie.c **** 		sm->wpa_key_mgmt = WPA_KEY_MGMT_IEEE8021X_SHA256;
 2368              		.loc 1 775 7 is_stmt 1
 775:C:/Users/stapi/OneDrive/Desktop/GD32VW553/V1_MQTT_OK/GD32VW55X_Wifi_BLE_SDK/GD32VW55x_RELEASE_V1.0.2/MSDK/wpa_supplicant/src/ap\wpa_auth_ie.c **** 		sm->wpa_key_mgmt = WPA_KEY_MGMT_IEEE8021X_SHA256;
 2369              		.loc 1 775 20 is_stmt 0
 2370 02f8 13F70708 		andi	a4,a5,128
 775:C:/Users/stapi/OneDrive/Desktop/GD32VW553/V1_MQTT_OK/GD32VW55X_Wifi_BLE_SDK/GD32VW55x_RELEASE_V1.0.2/MSDK/wpa_supplicant/src/ap\wpa_auth_ie.c **** 		sm->wpa_key_mgmt = WPA_KEY_MGMT_IEEE8021X_SHA256;
 2371              		.loc 1 775 10
 2372 02fc 11C7     		beq	a4,zero,.L147
 776:C:/Users/stapi/OneDrive/Desktop/GD32VW553/V1_MQTT_OK/GD32VW55X_Wifi_BLE_SDK/GD32VW55x_RELEASE_V1.0.2/MSDK/wpa_supplicant/src/ap\wpa_auth_ie.c **** 	else if (key_mgmt & WPA_KEY_MGMT_PSK_SHA256)
 2373              		.loc 1 776 3 is_stmt 1
 776:C:/Users/stapi/OneDrive/Desktop/GD32VW553/V1_MQTT_OK/GD32VW55X_Wifi_BLE_SDK/GD32VW55x_RELEASE_V1.0.2/MSDK/wpa_supplicant/src/ap\wpa_auth_ie.c **** 	else if (key_mgmt & WPA_KEY_MGMT_PSK_SHA256)
 2374              		.loc 1 776 20 is_stmt 0
 2375 02fe 93070008 		li	a5,128
 2376              	.LVL242:
 2377              	.L259:
 800:C:/Users/stapi/OneDrive/Desktop/GD32VW553/V1_MQTT_OK/GD32VW55X_Wifi_BLE_SDK/GD32VW55x_RELEASE_V1.0.2/MSDK/wpa_supplicant/src/ap\wpa_auth_ie.c **** 
 2378              		.loc 1 800 20
 2379 0302 232EF428 		sw	a5,668(s0)
 2380 0306 C9BF     		j	.L145
 2381              	.LVL243:
 2382              	.L147:
 777:C:/Users/stapi/OneDrive/Desktop/GD32VW553/V1_MQTT_OK/GD32VW55X_Wifi_BLE_SDK/GD32VW55x_RELEASE_V1.0.2/MSDK/wpa_supplicant/src/ap\wpa_auth_ie.c **** 		sm->wpa_key_mgmt = WPA_KEY_MGMT_PSK_SHA256;
 2383              		.loc 1 777 7 is_stmt 1
 777:C:/Users/stapi/OneDrive/Desktop/GD32VW553/V1_MQTT_OK/GD32VW55X_Wifi_BLE_SDK/GD32VW55x_RELEASE_V1.0.2/MSDK/wpa_supplicant/src/ap\wpa_auth_ie.c **** 		sm->wpa_key_mgmt = WPA_KEY_MGMT_PSK_SHA256;
 2384              		.loc 1 777 20 is_stmt 0
 2385 0308 13F70710 		andi	a4,a5,256
 777:C:/Users/stapi/OneDrive/Desktop/GD32VW553/V1_MQTT_OK/GD32VW55X_Wifi_BLE_SDK/GD32VW55x_RELEASE_V1.0.2/MSDK/wpa_supplicant/src/ap\wpa_auth_ie.c **** 		sm->wpa_key_mgmt = WPA_KEY_MGMT_PSK_SHA256;
 2386              		.loc 1 777 10
 2387 030c 01C7     		beq	a4,zero,.L148
 778:C:/Users/stapi/OneDrive/Desktop/GD32VW553/V1_MQTT_OK/GD32VW55X_Wifi_BLE_SDK/GD32VW55x_RELEASE_V1.0.2/MSDK/wpa_supplicant/src/ap\wpa_auth_ie.c **** #ifdef CONFIG_SAE
 2388              		.loc 1 778 3 is_stmt 1
 778:C:/Users/stapi/OneDrive/Desktop/GD32VW553/V1_MQTT_OK/GD32VW55X_Wifi_BLE_SDK/GD32VW55x_RELEASE_V1.0.2/MSDK/wpa_supplicant/src/ap\wpa_auth_ie.c **** #ifdef CONFIG_SAE
 2389              		.loc 1 778 20 is_stmt 0
 2390 030e 93070010 		li	a5,256
 2391              	.LVL244:
 2392 0312 C5BF     		j	.L259
 2393              	.LVL245:
 2394              	.L148:
 780:C:/Users/stapi/OneDrive/Desktop/GD32VW553/V1_MQTT_OK/GD32VW55X_Wifi_BLE_SDK/GD32VW55x_RELEASE_V1.0.2/MSDK/wpa_supplicant/src/ap\wpa_auth_ie.c **** 		sm->wpa_key_mgmt = WPA_KEY_MGMT_SAE;
 2395              		.loc 1 780 7 is_stmt 1
 780:C:/Users/stapi/OneDrive/Desktop/GD32VW553/V1_MQTT_OK/GD32VW55X_Wifi_BLE_SDK/GD32VW55x_RELEASE_V1.0.2/MSDK/wpa_supplicant/src/ap\wpa_auth_ie.c **** 		sm->wpa_key_mgmt = WPA_KEY_MGMT_SAE;
 2396              		.loc 1 780 20 is_stmt 0
 2397 0314 13F70740 		andi	a4,a5,1024
 780:C:/Users/stapi/OneDrive/Desktop/GD32VW553/V1_MQTT_OK/GD32VW55X_Wifi_BLE_SDK/GD32VW55x_RELEASE_V1.0.2/MSDK/wpa_supplicant/src/ap\wpa_auth_ie.c **** 		sm->wpa_key_mgmt = WPA_KEY_MGMT_SAE;
 2398              		.loc 1 780 10
 2399 0318 01C7     		beq	a4,zero,.L149
 781:C:/Users/stapi/OneDrive/Desktop/GD32VW553/V1_MQTT_OK/GD32VW55X_Wifi_BLE_SDK/GD32VW55x_RELEASE_V1.0.2/MSDK/wpa_supplicant/src/ap\wpa_auth_ie.c **** 	else if (key_mgmt & WPA_KEY_MGMT_FT_SAE)
 2400              		.loc 1 781 3 is_stmt 1
 781:C:/Users/stapi/OneDrive/Desktop/GD32VW553/V1_MQTT_OK/GD32VW55X_Wifi_BLE_SDK/GD32VW55x_RELEASE_V1.0.2/MSDK/wpa_supplicant/src/ap\wpa_auth_ie.c **** 	else if (key_mgmt & WPA_KEY_MGMT_FT_SAE)
 2401              		.loc 1 781 20 is_stmt 0
 2402 031a 93070040 		li	a5,1024
 2403              	.LVL246:
 2404 031e D5B7     		j	.L259
 2405              	.LVL247:
 2406              	.L149:
 782:C:/Users/stapi/OneDrive/Desktop/GD32VW553/V1_MQTT_OK/GD32VW55X_Wifi_BLE_SDK/GD32VW55x_RELEASE_V1.0.2/MSDK/wpa_supplicant/src/ap\wpa_auth_ie.c **** 		sm->wpa_key_mgmt = WPA_KEY_MGMT_FT_SAE;
 2407              		.loc 1 782 7 is_stmt 1
 782:C:/Users/stapi/OneDrive/Desktop/GD32VW553/V1_MQTT_OK/GD32VW55X_Wifi_BLE_SDK/GD32VW55x_RELEASE_V1.0.2/MSDK/wpa_supplicant/src/ap\wpa_auth_ie.c **** 		sm->wpa_key_mgmt = WPA_KEY_MGMT_FT_SAE;
 2408              		.loc 1 782 20 is_stmt 0
 2409 0320 0567     		li	a4,4096
 2410 0322 13070780 		addi	a4,a4,-2048
 2411 0326 B3F6E700 		and	a3,a5,a4
 782:C:/Users/stapi/OneDrive/Desktop/GD32VW553/V1_MQTT_OK/GD32VW55X_Wifi_BLE_SDK/GD32VW55x_RELEASE_V1.0.2/MSDK/wpa_supplicant/src/ap\wpa_auth_ie.c **** 		sm->wpa_key_mgmt = WPA_KEY_MGMT_FT_SAE;
 2412              		.loc 1 782 10
 2413 032a CDF6     		bne	a3,zero,.L258
 785:C:/Users/stapi/OneDrive/Desktop/GD32VW553/V1_MQTT_OK/GD32VW55X_Wifi_BLE_SDK/GD32VW55x_RELEASE_V1.0.2/MSDK/wpa_supplicant/src/ap\wpa_auth_ie.c **** 		sm->wpa_key_mgmt = WPA_KEY_MGMT_IEEE8021X;
 2414              		.loc 1 785 7 is_stmt 1
 785:C:/Users/stapi/OneDrive/Desktop/GD32VW553/V1_MQTT_OK/GD32VW55X_Wifi_BLE_SDK/GD32VW55x_RELEASE_V1.0.2/MSDK/wpa_supplicant/src/ap\wpa_auth_ie.c **** 		sm->wpa_key_mgmt = WPA_KEY_MGMT_IEEE8021X;
 2415              		.loc 1 785 20 is_stmt 0
 2416 032c 858B     		andi	a5,a5,1
 2417              	.LVL248:
 785:C:/Users/stapi/OneDrive/Desktop/GD32VW553/V1_MQTT_OK/GD32VW55X_Wifi_BLE_SDK/GD32VW55x_RELEASE_V1.0.2/MSDK/wpa_supplicant/src/ap\wpa_auth_ie.c **** 		sm->wpa_key_mgmt = WPA_KEY_MGMT_IEEE8021X;
 2418              		.loc 1 785 10
 2419 032e 99C3     		beq	a5,zero,.L151
 786:C:/Users/stapi/OneDrive/Desktop/GD32VW553/V1_MQTT_OK/GD32VW55X_Wifi_BLE_SDK/GD32VW55x_RELEASE_V1.0.2/MSDK/wpa_supplicant/src/ap\wpa_auth_ie.c **** #ifdef CONFIG_OWE
 2420              		.loc 1 786 3 is_stmt 1
 786:C:/Users/stapi/OneDrive/Desktop/GD32VW553/V1_MQTT_OK/GD32VW55X_Wifi_BLE_SDK/GD32VW55x_RELEASE_V1.0.2/MSDK/wpa_supplicant/src/ap\wpa_auth_ie.c **** #ifdef CONFIG_OWE
 2421              		.loc 1 786 20 is_stmt 0
 2422 0330 8547     		li	a5,1
 2423 0332 C1BF     		j	.L259
 2424              	.L151:
 800:C:/Users/stapi/OneDrive/Desktop/GD32VW553/V1_MQTT_OK/GD32VW55X_Wifi_BLE_SDK/GD32VW55x_RELEASE_V1.0.2/MSDK/wpa_supplicant/src/ap\wpa_auth_ie.c **** 
 2425              		.loc 1 800 3 is_stmt 1
 800:C:/Users/stapi/OneDrive/Desktop/GD32VW553/V1_MQTT_OK/GD32VW55X_Wifi_BLE_SDK/GD32VW55x_RELEASE_V1.0.2/MSDK/wpa_supplicant/src/ap\wpa_auth_ie.c **** 
 2426              		.loc 1 800 20 is_stmt 0
 2427 0334 8947     		li	a5,2
 2428 0336 F1B7     		j	.L259
 2429              	.L152:
 805:C:/Users/stapi/OneDrive/Desktop/GD32VW553/V1_MQTT_OK/GD32VW55X_Wifi_BLE_SDK/GD32VW55x_RELEASE_V1.0.2/MSDK/wpa_supplicant/src/ap\wpa_auth_ie.c **** 	if (!ciphers) {
 2430              		.loc 1 805 3 is_stmt 1
 805:C:/Users/stapi/OneDrive/Desktop/GD32VW553/V1_MQTT_OK/GD32VW55X_Wifi_BLE_SDK/GD32VW55x_RELEASE_V1.0.2/MSDK/wpa_supplicant/src/ap\wpa_auth_ie.c **** 	if (!ciphers) {
 2431              		.loc 1 805 11 is_stmt 0
 2432 0338 A844     		lw	a0,72(s1)
 2433              	.LVL249:
 2434 033a 758D     		and	a0,a3,a0
 2435              	.LVL250:
 806:C:/Users/stapi/OneDrive/Desktop/GD32VW553/V1_MQTT_OK/GD32VW55X_Wifi_BLE_SDK/GD32VW55x_RELEASE_V1.0.2/MSDK/wpa_supplicant/src/ap\wpa_auth_ie.c **** 		wpa_printf(MSG_DEBUG, "Invalid %s pairwise cipher (0x%x) "
 2436              		.loc 1 806 2 is_stmt 1
 806:C:/Users/stapi/OneDrive/Desktop/GD32VW553/V1_MQTT_OK/GD32VW55X_Wifi_BLE_SDK/GD32VW55x_RELEASE_V1.0.2/MSDK/wpa_supplicant/src/ap\wpa_auth_ie.c **** 		wpa_printf(MSG_DEBUG, "Invalid %s pairwise cipher (0x%x) "
 2437              		.loc 1 806 5 is_stmt 0
 2438 033c 15ED     		bne	a0,zero,.L154
 807:C:/Users/stapi/OneDrive/Desktop/GD32VW553/V1_MQTT_OK/GD32VW55X_Wifi_BLE_SDK/GD32VW55x_RELEASE_V1.0.2/MSDK/wpa_supplicant/src/ap\wpa_auth_ie.c **** 			   "from " MACSTR,
 2439              		.loc 1 807 3
 2440 033e 37060000 		lui	a2,%hi(.LC5)
 2441              	.LVL251:
 2442 0342 13060600 		addi	a2,a2,%lo(.LC5)
 2443              	.L153:
 807:C:/Users/stapi/OneDrive/Desktop/GD32VW553/V1_MQTT_OK/GD32VW55X_Wifi_BLE_SDK/GD32VW55x_RELEASE_V1.0.2/MSDK/wpa_supplicant/src/ap\wpa_auth_ie.c **** 			   "from " MACSTR,
 2444              		.loc 1 807 3 discriminator 4
 2445 0346 8347D400 		lbu	a5,13(s0)
 2446 034a B7050000 		lui	a1,%hi(.LC14)
 2447 034e 0945     		li	a0,2
 2448              	.LVL252:
 2449 0350 3EC2     		sw	a5,4(sp)
 2450              	.LVL253:
 2451 0352 8347C400 		lbu	a5,12(s0)
 2452 0356 93850500 		addi	a1,a1,%lo(.LC14)
 2453 035a 3EC0     		sw	a5,0(sp)
 2454 035c 8348B400 		lbu	a7,11(s0)
 2455 0360 0348A400 		lbu	a6,10(s0)
 2456 0364 83479400 		lbu	a5,9(s0)
 2457 0368 03478400 		lbu	a4,8(s0)
 2458 036c 97000000 		call	wpa_printf
 2458      E7800000 
 2459              	.LVL254:
 811:C:/Users/stapi/OneDrive/Desktop/GD32VW553/V1_MQTT_OK/GD32VW55X_Wifi_BLE_SDK/GD32VW55x_RELEASE_V1.0.2/MSDK/wpa_supplicant/src/ap\wpa_auth_ie.c **** 	}
 2460              		.loc 1 811 3 is_stmt 1 discriminator 4
 811:C:/Users/stapi/OneDrive/Desktop/GD32VW553/V1_MQTT_OK/GD32VW55X_Wifi_BLE_SDK/GD32VW55x_RELEASE_V1.0.2/MSDK/wpa_supplicant/src/ap\wpa_auth_ie.c **** 	}
 2461              		.loc 1 811 10 is_stmt 0 discriminator 4
 2462 0374 0D45     		li	a0,3
 2463 0376 EDB9     		j	.L126
 2464              	.LVL255:
 2465              	.L154:
 814:C:/Users/stapi/OneDrive/Desktop/GD32VW553/V1_MQTT_OK/GD32VW55X_Wifi_BLE_SDK/GD32VW55x_RELEASE_V1.0.2/MSDK/wpa_supplicant/src/ap\wpa_auth_ie.c **** 		if (!(data.capabilities & WPA_CAPABILITY_MFPC)) {
 2466              		.loc 1 814 2 is_stmt 1
 814:C:/Users/stapi/OneDrive/Desktop/GD32VW553/V1_MQTT_OK/GD32VW55X_Wifi_BLE_SDK/GD32VW55x_RELEASE_V1.0.2/MSDK/wpa_supplicant/src/ap\wpa_auth_ie.c **** 		if (!(data.capabilities & WPA_CAPABILITY_MFPC)) {
 2467              		.loc 1 814 20 is_stmt 0
 2468 0378 03A70409 		lw	a4,144(s1)
 814:C:/Users/stapi/OneDrive/Desktop/GD32VW553/V1_MQTT_OK/GD32VW55X_Wifi_BLE_SDK/GD32VW55x_RELEASE_V1.0.2/MSDK/wpa_supplicant/src/ap\wpa_auth_ie.c **** 		if (!(data.capabilities & WPA_CAPABILITY_MFPC)) {
 2469              		.loc 1 814 5
 2470 037c 8947     		li	a5,2
 2471 037e 6311F704 		bne	a4,a5,.L155
 815:C:/Users/stapi/OneDrive/Desktop/GD32VW553/V1_MQTT_OK/GD32VW55X_Wifi_BLE_SDK/GD32VW55x_RELEASE_V1.0.2/MSDK/wpa_supplicant/src/ap\wpa_auth_ie.c **** 			wpa_printf(MSG_DEBUG, "Management frame protection "
 2472              		.loc 1 815 3 is_stmt 1
 815:C:/Users/stapi/OneDrive/Desktop/GD32VW553/V1_MQTT_OK/GD32VW55X_Wifi_BLE_SDK/GD32VW55x_RELEASE_V1.0.2/MSDK/wpa_supplicant/src/ap\wpa_auth_ie.c **** 			wpa_printf(MSG_DEBUG, "Management frame protection "
 2473              		.loc 1 815 27 is_stmt 0
 2474 0382 8647     		lw	a5,64(sp)
 2475 0384 93F70708 		andi	a5,a5,128
 815:C:/Users/stapi/OneDrive/Desktop/GD32VW553/V1_MQTT_OK/GD32VW55X_Wifi_BLE_SDK/GD32VW55x_RELEASE_V1.0.2/MSDK/wpa_supplicant/src/ap\wpa_auth_ie.c **** 			wpa_printf(MSG_DEBUG, "Management frame protection "
 2476              		.loc 1 815 6
 2477 0388 81EF     		bne	a5,zero,.L156
 816:C:/Users/stapi/OneDrive/Desktop/GD32VW553/V1_MQTT_OK/GD32VW55X_Wifi_BLE_SDK/GD32VW55x_RELEASE_V1.0.2/MSDK/wpa_supplicant/src/ap\wpa_auth_ie.c **** 				   "required, but client did not enable it");
 2478              		.loc 1 816 4 is_stmt 1
 2479 038a B7050000 		lui	a1,%hi(.LC15)
 2480 038e 93850500 		addi	a1,a1,%lo(.LC15)
 2481              	.LVL256:
 2482              	.L260:
 834:C:/Users/stapi/OneDrive/Desktop/GD32VW553/V1_MQTT_OK/GD32VW55X_Wifi_BLE_SDK/GD32VW55x_RELEASE_V1.0.2/MSDK/wpa_supplicant/src/ap\wpa_auth_ie.c **** 			   "Management frame protection required with SAE, but client did not enable it");
 2483              		.loc 1 834 3 is_stmt 0
 2484 0392 0945     		li	a0,2
 2485              	.LVL257:
 2486 0394 97000000 		call	wpa_printf
 2486      E7800000 
 2487              	.LVL258:
 836:C:/Users/stapi/OneDrive/Desktop/GD32VW553/V1_MQTT_OK/GD32VW55X_Wifi_BLE_SDK/GD32VW55x_RELEASE_V1.0.2/MSDK/wpa_supplicant/src/ap\wpa_auth_ie.c **** 	}
 2488              		.loc 1 836 3 is_stmt 1
 836:C:/Users/stapi/OneDrive/Desktop/GD32VW553/V1_MQTT_OK/GD32VW55X_Wifi_BLE_SDK/GD32VW55x_RELEASE_V1.0.2/MSDK/wpa_supplicant/src/ap\wpa_auth_ie.c **** 	}
 2489              		.loc 1 836 10 is_stmt 0
 2490 039c 1D45     		li	a0,7
 2491 039e C9B9     		j	.L126
 2492              	.LVL259:
 2493              	.L156:
 821:C:/Users/stapi/OneDrive/Desktop/GD32VW553/V1_MQTT_OK/GD32VW55X_Wifi_BLE_SDK/GD32VW55x_RELEASE_V1.0.2/MSDK/wpa_supplicant/src/ap\wpa_auth_ie.c **** 		{
 2494              		.loc 1 821 3 is_stmt 1
 821:C:/Users/stapi/OneDrive/Desktop/GD32VW553/V1_MQTT_OK/GD32VW55X_Wifi_BLE_SDK/GD32VW55x_RELEASE_V1.0.2/MSDK/wpa_supplicant/src/ap\wpa_auth_ie.c **** 		{
 2495              		.loc 1 821 11 is_stmt 0
 2496 03a0 3646     		lw	a2,76(sp)
 2497              	.LVL260:
 821:C:/Users/stapi/OneDrive/Desktop/GD32VW553/V1_MQTT_OK/GD32VW55X_Wifi_BLE_SDK/GD32VW55x_RELEASE_V1.0.2/MSDK/wpa_supplicant/src/ap\wpa_auth_ie.c **** 		{
 2498              		.loc 1 821 6
 2499 03a2 83A78409 		lw	a5,152(s1)
 2500 03a6 6305F604 		beq	a2,a5,.L157
 823:C:/Users/stapi/OneDrive/Desktop/GD32VW553/V1_MQTT_OK/GD32VW55X_Wifi_BLE_SDK/GD32VW55x_RELEASE_V1.0.2/MSDK/wpa_supplicant/src/ap\wpa_auth_ie.c **** 				   "cipher %d", data.mgmt_group_cipher);
 2501              		.loc 1 823 4 is_stmt 1
 2502 03aa B7050000 		lui	a1,%hi(.LC16)
 2503 03ae 0945     		li	a0,2
 2504              	.LVL261:
 2505 03b0 93850500 		addi	a1,a1,%lo(.LC16)
 2506 03b4 97000000 		call	wpa_printf
 2506      E7800000 
 2507              	.LVL262:
 825:C:/Users/stapi/OneDrive/Desktop/GD32VW553/V1_MQTT_OK/GD32VW55X_Wifi_BLE_SDK/GD32VW55x_RELEASE_V1.0.2/MSDK/wpa_supplicant/src/ap\wpa_auth_ie.c **** 		}
 2508              		.loc 1 825 4
 825:C:/Users/stapi/OneDrive/Desktop/GD32VW553/V1_MQTT_OK/GD32VW55X_Wifi_BLE_SDK/GD32VW55x_RELEASE_V1.0.2/MSDK/wpa_supplicant/src/ap\wpa_auth_ie.c **** 		}
 2509              		.loc 1 825 11 is_stmt 0
 2510 03bc 2145     		li	a0,8
 2511 03be 4DB9     		j	.L126
 2512              	.LVL263:
 2513              	.L155:
 830:C:/Users/stapi/OneDrive/Desktop/GD32VW553/V1_MQTT_OK/GD32VW55X_Wifi_BLE_SDK/GD32VW55x_RELEASE_V1.0.2/MSDK/wpa_supplicant/src/ap\wpa_auth_ie.c **** 	    wpa_auth->conf.sae_require_mfp &&
 2514              		.loc 1 830 2 is_stmt 1
 830:C:/Users/stapi/OneDrive/Desktop/GD32VW553/V1_MQTT_OK/GD32VW55X_Wifi_BLE_SDK/GD32VW55x_RELEASE_V1.0.2/MSDK/wpa_supplicant/src/ap\wpa_auth_ie.c **** 	    wpa_auth->conf.sae_require_mfp &&
 2515              		.loc 1 830 5 is_stmt 0
 2516 03c0 8547     		li	a5,1
 2517 03c2 6315F702 		bne	a4,a5,.L158
 830:C:/Users/stapi/OneDrive/Desktop/GD32VW553/V1_MQTT_OK/GD32VW55X_Wifi_BLE_SDK/GD32VW55x_RELEASE_V1.0.2/MSDK/wpa_supplicant/src/ap\wpa_auth_ie.c **** 	    wpa_auth->conf.sae_require_mfp &&
 2518              		.loc 1 830 66 discriminator 1
 2519 03c6 83A7C409 		lw	a5,156(s1)
 2520 03ca 9DC3     		beq	a5,zero,.L157
 2521              	.LVL264:
 2522              	.LBB302:
 2523              	.LBB303:
 2524              		.loc 3 113 2 is_stmt 1
 2525              		.loc 3 113 16 is_stmt 0
 2526 03cc 8327C429 		lw	a5,668(s0)
 2527 03d0 0567     		li	a4,4096
 2528 03d2 130707C0 		addi	a4,a4,-1024
 2529 03d6 F98F     		and	a5,a5,a4
 2530              	.LBE303:
 2531              	.LBE302:
 831:C:/Users/stapi/OneDrive/Desktop/GD32VW553/V1_MQTT_OK/GD32VW55X_Wifi_BLE_SDK/GD32VW55x_RELEASE_V1.0.2/MSDK/wpa_supplicant/src/ap\wpa_auth_ie.c **** 	    wpa_key_mgmt_sae(sm->wpa_key_mgmt) &&
 2532              		.loc 1 831 37
 2533 03d8 81CF     		beq	a5,zero,.L157
 815:C:/Users/stapi/OneDrive/Desktop/GD32VW553/V1_MQTT_OK/GD32VW55X_Wifi_BLE_SDK/GD32VW55x_RELEASE_V1.0.2/MSDK/wpa_supplicant/src/ap\wpa_auth_ie.c **** 			wpa_printf(MSG_DEBUG, "Management frame protection "
 2534              		.loc 1 815 27
 2535 03da 8647     		lw	a5,64(sp)
 2536 03dc 93F70708 		andi	a5,a5,128
 832:C:/Users/stapi/OneDrive/Desktop/GD32VW553/V1_MQTT_OK/GD32VW55X_Wifi_BLE_SDK/GD32VW55x_RELEASE_V1.0.2/MSDK/wpa_supplicant/src/ap\wpa_auth_ie.c **** 	    !(data.capabilities & WPA_CAPABILITY_MFPC)) {
 2537              		.loc 1 832 41
 2538 03e0 81EB     		bne	a5,zero,.L157
 834:C:/Users/stapi/OneDrive/Desktop/GD32VW553/V1_MQTT_OK/GD32VW55X_Wifi_BLE_SDK/GD32VW55x_RELEASE_V1.0.2/MSDK/wpa_supplicant/src/ap\wpa_auth_ie.c **** 			   "Management frame protection required with SAE, but client did not enable it");
 2539              		.loc 1 834 3 is_stmt 1
 2540 03e2 B7050000 		lui	a1,%hi(.LC17)
 2541 03e6 93850500 		addi	a1,a1,%lo(.LC17)
 2542 03ea 65B7     		j	.L260
 2543              	.L158:
 863:C:/Users/stapi/OneDrive/Desktop/GD32VW553/V1_MQTT_OK/GD32VW55X_Wifi_BLE_SDK/GD32VW55x_RELEASE_V1.0.2/MSDK/wpa_supplicant/src/ap\wpa_auth_ie.c **** 	    !(data.capabilities & WPA_CAPABILITY_MFPC))
 2544              		.loc 1 863 2
 865:C:/Users/stapi/OneDrive/Desktop/GD32VW553/V1_MQTT_OK/GD32VW55X_Wifi_BLE_SDK/GD32VW55x_RELEASE_V1.0.2/MSDK/wpa_supplicant/src/ap\wpa_auth_ie.c **** 	else
 2545              		.loc 1 865 23 is_stmt 0
 2546 03ec 8147     		li	a5,0
 863:C:/Users/stapi/OneDrive/Desktop/GD32VW553/V1_MQTT_OK/GD32VW55X_Wifi_BLE_SDK/GD32VW55x_RELEASE_V1.0.2/MSDK/wpa_supplicant/src/ap\wpa_auth_ie.c **** 	    !(data.capabilities & WPA_CAPABILITY_MFPC))
 2547              		.loc 1 863 5
 2548 03ee 01C7     		beq	a4,zero,.L159
 2549              	.LVL265:
 2550              	.L157:
 863:C:/Users/stapi/OneDrive/Desktop/GD32VW553/V1_MQTT_OK/GD32VW55X_Wifi_BLE_SDK/GD32VW55x_RELEASE_V1.0.2/MSDK/wpa_supplicant/src/ap\wpa_auth_ie.c **** 	    !(data.capabilities & WPA_CAPABILITY_MFPC))
 2551              		.loc 1 863 60 discriminator 1
 2552 03f0 8647     		lw	a5,64(sp)
 2553 03f2 93D77748 		bexti	a5,a5,7
 2554              	.L159:
 2555 03f6 13974700 		slli	a4,a5,4
 2556 03fa 83574427 		lhu	a5,628(s0)
 2557 03fe BD9B     		andi	a5,a5,-17
 2558 0400 D98F     		or	a5,a5,a4
 2559 0402 231AF426 		sh	a5,628(s0)
 2560              	.LVL266:
 869:C:/Users/stapi/OneDrive/Desktop/GD32VW553/V1_MQTT_OK/GD32VW55X_Wifi_BLE_SDK/GD32VW55x_RELEASE_V1.0.2/MSDK/wpa_supplicant/src/ap\wpa_auth_ie.c **** 		    wpa_printf(MSG_DEBUG,
 2561              		.loc 1 869 2 is_stmt 1
 869:C:/Users/stapi/OneDrive/Desktop/GD32VW553/V1_MQTT_OK/GD32VW55X_Wifi_BLE_SDK/GD32VW55x_RELEASE_V1.0.2/MSDK/wpa_supplicant/src/ap\wpa_auth_ie.c **** 		    wpa_printf(MSG_DEBUG,
 2562              		.loc 1 869 5 is_stmt 0
 2563 0406 C18B     		andi	a5,a5,16
 2564 0408 89CB     		beq	a5,zero,.L160
 869:C:/Users/stapi/OneDrive/Desktop/GD32VW553/V1_MQTT_OK/GD32VW55X_Wifi_BLE_SDK/GD32VW55x_RELEASE_V1.0.2/MSDK/wpa_supplicant/src/ap\wpa_auth_ie.c **** 		    wpa_printf(MSG_DEBUG,
 2565              		.loc 1 869 38 discriminator 1
 2566 040a 93778500 		andi	a5,a0,8
 869:C:/Users/stapi/OneDrive/Desktop/GD32VW553/V1_MQTT_OK/GD32VW55X_Wifi_BLE_SDK/GD32VW55x_RELEASE_V1.0.2/MSDK/wpa_supplicant/src/ap\wpa_auth_ie.c **** 		    wpa_printf(MSG_DEBUG,
 2567              		.loc 1 869 26 discriminator 1
 2568 040e 91C7     		beq	a5,zero,.L160
 870:C:/Users/stapi/OneDrive/Desktop/GD32VW553/V1_MQTT_OK/GD32VW55X_Wifi_BLE_SDK/GD32VW55x_RELEASE_V1.0.2/MSDK/wpa_supplicant/src/ap\wpa_auth_ie.c **** 			       "Management frame protection cannot use TKIP");
 2569              		.loc 1 870 7 is_stmt 1
 2570 0410 B7050000 		lui	a1,%hi(.LC18)
 2571 0414 93850500 		addi	a1,a1,%lo(.LC18)
 2572 0418 ADBF     		j	.L260
 2573              	.L160:
 913:C:/Users/stapi/OneDrive/Desktop/GD32VW553/V1_MQTT_OK/GD32VW55X_Wifi_BLE_SDK/GD32VW55x_RELEASE_V1.0.2/MSDK/wpa_supplicant/src/ap\wpa_auth_ie.c **** 	if (sm->pairwise < 0)
 2574              		.loc 1 913 2
 913:C:/Users/stapi/OneDrive/Desktop/GD32VW553/V1_MQTT_OK/GD32VW55X_Wifi_BLE_SDK/GD32VW55x_RELEASE_V1.0.2/MSDK/wpa_supplicant/src/ap\wpa_auth_ie.c **** 	if (sm->pairwise < 0)
 2575              		.loc 1 913 17 is_stmt 0
 2576 041a 8145     		li	a1,0
 2577 041c 97000000 		call	wpa_pick_pairwise_cipher
 2577      E7800000 
 2578              	.LVL267:
 2579 0424 AA87     		mv	a5,a0
 913:C:/Users/stapi/OneDrive/Desktop/GD32VW553/V1_MQTT_OK/GD32VW55X_Wifi_BLE_SDK/GD32VW55x_RELEASE_V1.0.2/MSDK/wpa_supplicant/src/ap\wpa_auth_ie.c **** 	if (sm->pairwise < 0)
 2580              		.loc 1 913 15
 2581 0426 232CA428 		sw	a0,664(s0)
 914:C:/Users/stapi/OneDrive/Desktop/GD32VW553/V1_MQTT_OK/GD32VW55X_Wifi_BLE_SDK/GD32VW55x_RELEASE_V1.0.2/MSDK/wpa_supplicant/src/ap\wpa_auth_ie.c **** 		return WPA_INVALID_PAIRWISE;
 2582              		.loc 1 914 2 is_stmt 1
 915:C:/Users/stapi/OneDrive/Desktop/GD32VW553/V1_MQTT_OK/GD32VW55X_Wifi_BLE_SDK/GD32VW55x_RELEASE_V1.0.2/MSDK/wpa_supplicant/src/ap\wpa_auth_ie.c **** 
 2583              		.loc 1 915 10 is_stmt 0
 2584 042a 0D45     		li	a0,3
 914:C:/Users/stapi/OneDrive/Desktop/GD32VW553/V1_MQTT_OK/GD32VW55X_Wifi_BLE_SDK/GD32VW55x_RELEASE_V1.0.2/MSDK/wpa_supplicant/src/ap\wpa_auth_ie.c **** 		return WPA_INVALID_PAIRWISE;
 2585              		.loc 1 914 5
 2586 042c E3C207C4 		blt	a5,zero,.L126
 918:C:/Users/stapi/OneDrive/Desktop/GD32VW553/V1_MQTT_OK/GD32VW55X_Wifi_BLE_SDK/GD32VW55x_RELEASE_V1.0.2/MSDK/wpa_supplicant/src/ap\wpa_auth_ie.c **** 		sm->wpa = WPA_VERSION_WPA2;
 2587              		.loc 1 918 2 is_stmt 1
 918:C:/Users/stapi/OneDrive/Desktop/GD32VW553/V1_MQTT_OK/GD32VW55X_Wifi_BLE_SDK/GD32VW55x_RELEASE_V1.0.2/MSDK/wpa_supplicant/src/ap\wpa_auth_ie.c **** 		sm->wpa = WPA_VERSION_WPA2;
 2588              		.loc 1 918 5 is_stmt 0
 2589 0430 83C60900 		lbu	a3,0(s3)
 2590 0434 13070003 		li	a4,48
 919:C:/Users/stapi/OneDrive/Desktop/GD32VW553/V1_MQTT_OK/GD32VW55X_Wifi_BLE_SDK/GD32VW55x_RELEASE_V1.0.2/MSDK/wpa_supplicant/src/ap\wpa_auth_ie.c **** 	else
 2591              		.loc 1 919 11
 2592 0438 8947     		li	a5,2
 918:C:/Users/stapi/OneDrive/Desktop/GD32VW553/V1_MQTT_OK/GD32VW55X_Wifi_BLE_SDK/GD32VW55x_RELEASE_V1.0.2/MSDK/wpa_supplicant/src/ap\wpa_auth_ie.c **** 		sm->wpa = WPA_VERSION_WPA2;
 2593              		.loc 1 918 5
 2594 043a 6383E600 		beq	a3,a4,.L161
 921:C:/Users/stapi/OneDrive/Desktop/GD32VW553/V1_MQTT_OK/GD32VW55X_Wifi_BLE_SDK/GD32VW55x_RELEASE_V1.0.2/MSDK/wpa_supplicant/src/ap\wpa_auth_ie.c **** 
 2595              		.loc 1 921 11
 2596 043e 8547     		li	a5,1
 2597              	.L161:
 2598 0440 232AF428 		sw	a5,660(s0)
 938:C:/Users/stapi/OneDrive/Desktop/GD32VW553/V1_MQTT_OK/GD32VW55X_Wifi_BLE_SDK/GD32VW55x_RELEASE_V1.0.2/MSDK/wpa_supplicant/src/ap\wpa_auth_ie.c **** 	for (i = 0; i < data.num_pmkid; i++) {
 2599              		.loc 1 938 2 is_stmt 1
 938:C:/Users/stapi/OneDrive/Desktop/GD32VW553/V1_MQTT_OK/GD32VW55X_Wifi_BLE_SDK/GD32VW55x_RELEASE_V1.0.2/MSDK/wpa_supplicant/src/ap\wpa_auth_ie.c **** 	for (i = 0; i < data.num_pmkid; i++) {
 2600              		.loc 1 938 12 is_stmt 0
 2601 0444 2320042A 		sw	zero,672(s0)
 939:C:/Users/stapi/OneDrive/Desktop/GD32VW553/V1_MQTT_OK/GD32VW55X_Wifi_BLE_SDK/GD32VW55x_RELEASE_V1.0.2/MSDK/wpa_supplicant/src/ap\wpa_auth_ie.c **** 		wpa_hexdump(MSG_DEBUG, "RSN IE: STA PMKID",
 2602              		.loc 1 939 2 is_stmt 1
 2603              	.LVL268:
 939:C:/Users/stapi/OneDrive/Desktop/GD32VW553/V1_MQTT_OK/GD32VW55X_Wifi_BLE_SDK/GD32VW55x_RELEASE_V1.0.2/MSDK/wpa_supplicant/src/ap\wpa_auth_ie.c **** 		wpa_hexdump(MSG_DEBUG, "RSN IE: STA PMKID",
 2604              		.loc 1 939 9 is_stmt 0
 2605 0448 014B     		li	s6,0
 2606              	.LVL269:
 940:C:/Users/stapi/OneDrive/Desktop/GD32VW553/V1_MQTT_OK/GD32VW55X_Wifi_BLE_SDK/GD32VW55x_RELEASE_V1.0.2/MSDK/wpa_supplicant/src/ap\wpa_auth_ie.c **** 			    &data.pmkid[i * PMKID_LEN], PMKID_LEN);
 2607              		.loc 1 940 3
 2608 044a 370D0000 		lui	s10,%hi(.LC19)
 942:C:/Users/stapi/OneDrive/Desktop/GD32VW553/V1_MQTT_OK/GD32VW55X_Wifi_BLE_SDK/GD32VW55x_RELEASE_V1.0.2/MSDK/wpa_supplicant/src/ap\wpa_auth_ie.c **** 						 &data.pmkid[i * PMKID_LEN]);
 2609              		.loc 1 942 55
 2610 044e 930C8400 		addi	s9,s0,8
 2611              	.LVL270:
 2612              	.L162:
 939:C:/Users/stapi/OneDrive/Desktop/GD32VW553/V1_MQTT_OK/GD32VW55X_Wifi_BLE_SDK/GD32VW55x_RELEASE_V1.0.2/MSDK/wpa_supplicant/src/ap\wpa_auth_ie.c **** 		wpa_hexdump(MSG_DEBUG, "RSN IE: STA PMKID",
 2613              		.loc 1 939 14 is_stmt 1 discriminator 1
 939:C:/Users/stapi/OneDrive/Desktop/GD32VW553/V1_MQTT_OK/GD32VW55X_Wifi_BLE_SDK/GD32VW55x_RELEASE_V1.0.2/MSDK/wpa_supplicant/src/ap\wpa_auth_ie.c **** 		wpa_hexdump(MSG_DEBUG, "RSN IE: STA PMKID",
 2614              		.loc 1 939 2 is_stmt 0 discriminator 1
 2615 0452 9647     		lw	a5,68(sp)
 2616 0454 6364FB00 		bgtu	a5,s6,.L165
 599:C:/Users/stapi/OneDrive/Desktop/GD32VW553/V1_MQTT_OK/GD32VW55X_Wifi_BLE_SDK/GD32VW55x_RELEASE_V1.0.2/MSDK/wpa_supplicant/src/ap\wpa_auth_ie.c **** 
 2617              		.loc 1 599 12
 2618 0458 014B     		li	s6,0
 2619              	.LVL271:
 2620 045a 1DA8     		j	.L164
 2621              	.LVL272:
 2622              	.L165:
 940:C:/Users/stapi/OneDrive/Desktop/GD32VW553/V1_MQTT_OK/GD32VW55X_Wifi_BLE_SDK/GD32VW55x_RELEASE_V1.0.2/MSDK/wpa_supplicant/src/ap\wpa_auth_ie.c **** 			    &data.pmkid[i * PMKID_LEN], PMKID_LEN);
 2623              		.loc 1 940 3 is_stmt 1
 2624 045c 2646     		lw	a2,72(sp)
 2625 045e 131C4B00 		slli	s8,s6,4
 2626 0462 C146     		li	a3,16
 2627 0464 6296     		add	a2,a2,s8
 2628 0466 93050D00 		addi	a1,s10,%lo(.LC19)
 2629 046a 0945     		li	a0,2
 2630 046c 97000000 		call	wpa_hexdump
 2630      E7800000 
 2631              	.LVL273:
 942:C:/Users/stapi/OneDrive/Desktop/GD32VW553/V1_MQTT_OK/GD32VW55X_Wifi_BLE_SDK/GD32VW55x_RELEASE_V1.0.2/MSDK/wpa_supplicant/src/ap\wpa_auth_ie.c **** 						 &data.pmkid[i * PMKID_LEN]);
 2632              		.loc 1 942 3
 942:C:/Users/stapi/OneDrive/Desktop/GD32VW553/V1_MQTT_OK/GD32VW55X_Wifi_BLE_SDK/GD32VW55x_RELEASE_V1.0.2/MSDK/wpa_supplicant/src/ap\wpa_auth_ie.c **** 						 &data.pmkid[i * PMKID_LEN]);
 2633              		.loc 1 942 15 is_stmt 0
 2634 0474 2646     		lw	a2,72(sp)
 2635 0476 03A5040E 		lw	a0,224(s1)
 2636 047a E685     		mv	a1,s9
 2637 047c 6296     		add	a2,a2,s8
 2638 047e 97000000 		call	pmksa_cache_auth_get
 2638      E7800000 
 2639              	.LVL274:
 942:C:/Users/stapi/OneDrive/Desktop/GD32VW553/V1_MQTT_OK/GD32VW55X_Wifi_BLE_SDK/GD32VW55x_RELEASE_V1.0.2/MSDK/wpa_supplicant/src/ap\wpa_auth_ie.c **** 						 &data.pmkid[i * PMKID_LEN]);
 2640              		.loc 1 942 13
 2641 0486 2320A42A 		sw	a0,672(s0)
 944:C:/Users/stapi/OneDrive/Desktop/GD32VW553/V1_MQTT_OK/GD32VW55X_Wifi_BLE_SDK/GD32VW55x_RELEASE_V1.0.2/MSDK/wpa_supplicant/src/ap\wpa_auth_ie.c **** 			pmkid = sm->pmksa->pmkid;
 2642              		.loc 1 944 3 is_stmt 1
 944:C:/Users/stapi/OneDrive/Desktop/GD32VW553/V1_MQTT_OK/GD32VW55X_Wifi_BLE_SDK/GD32VW55x_RELEASE_V1.0.2/MSDK/wpa_supplicant/src/ap\wpa_auth_ie.c **** 			pmkid = sm->pmksa->pmkid;
 2643              		.loc 1 944 6 is_stmt 0
 2644 048a 65CD     		beq	a0,zero,.L163
 945:C:/Users/stapi/OneDrive/Desktop/GD32VW553/V1_MQTT_OK/GD32VW55X_Wifi_BLE_SDK/GD32VW55x_RELEASE_V1.0.2/MSDK/wpa_supplicant/src/ap\wpa_auth_ie.c **** 			break;
 2645              		.loc 1 945 4 is_stmt 1
 945:C:/Users/stapi/OneDrive/Desktop/GD32VW553/V1_MQTT_OK/GD32VW55X_Wifi_BLE_SDK/GD32VW55x_RELEASE_V1.0.2/MSDK/wpa_supplicant/src/ap\wpa_auth_ie.c **** 			break;
 2646              		.loc 1 945 10 is_stmt 0
 2647 048c 130B8500 		addi	s6,a0,8
 2648              	.LVL275:
 946:C:/Users/stapi/OneDrive/Desktop/GD32VW553/V1_MQTT_OK/GD32VW55X_Wifi_BLE_SDK/GD32VW55x_RELEASE_V1.0.2/MSDK/wpa_supplicant/src/ap\wpa_auth_ie.c **** 		}
 2649              		.loc 1 946 4 is_stmt 1
 2650              	.L164:
 949:C:/Users/stapi/OneDrive/Desktop/GD32VW553/V1_MQTT_OK/GD32VW55X_Wifi_BLE_SDK/GD32VW55x_RELEASE_V1.0.2/MSDK/wpa_supplicant/src/ap\wpa_auth_ie.c **** 		     i < data.num_pmkid; i++) {
 2651              		.loc 1 949 2
 949:C:/Users/stapi/OneDrive/Desktop/GD32VW553/V1_MQTT_OK/GD32VW55X_Wifi_BLE_SDK/GD32VW55x_RELEASE_V1.0.2/MSDK/wpa_supplicant/src/ap\wpa_auth_ie.c **** 		     i < data.num_pmkid; i++) {
 2652              		.loc 1 949 9 is_stmt 0
 2653 0490 014C     		li	s8,0
 2654              	.LBB304:
 953:C:/Users/stapi/OneDrive/Desktop/GD32VW553/V1_MQTT_OK/GD32VW55X_Wifi_BLE_SDK/GD32VW55x_RELEASE_V1.0.2/MSDK/wpa_supplicant/src/ap\wpa_auth_ie.c **** 		idata.spa = sm->addr;
 2655              		.loc 1 953 14
 2656 0492 938C840D 		addi	s9,s1,216
 954:C:/Users/stapi/OneDrive/Desktop/GD32VW553/V1_MQTT_OK/GD32VW55X_Wifi_BLE_SDK/GD32VW55x_RELEASE_V1.0.2/MSDK/wpa_supplicant/src/ap\wpa_auth_ie.c **** 		idata.pmkid = &data.pmkid[i * PMKID_LEN];
 2657              		.loc 1 954 15
 2658 0496 130D8400 		addi	s10,s0,8
 956:C:/Users/stapi/OneDrive/Desktop/GD32VW553/V1_MQTT_OK/GD32VW55X_Wifi_BLE_SDK/GD32VW55x_RELEASE_V1.0.2/MSDK/wpa_supplicant/src/ap\wpa_auth_ie.c **** 		if (idata.pmksa) {
 2659              		.loc 1 956 3
 2660 049a B70D0000 		lui	s11,%hi(wpa_auth_okc_iter)
 2661              	.LVL276:
 2662              	.L166:
 2663              	.LBE304:
 949:C:/Users/stapi/OneDrive/Desktop/GD32VW553/V1_MQTT_OK/GD32VW55X_Wifi_BLE_SDK/GD32VW55x_RELEASE_V1.0.2/MSDK/wpa_supplicant/src/ap\wpa_auth_ie.c **** 		     i < data.num_pmkid; i++) {
 2664              		.loc 1 949 14 is_stmt 1 discriminator 1
 949:C:/Users/stapi/OneDrive/Desktop/GD32VW553/V1_MQTT_OK/GD32VW55X_Wifi_BLE_SDK/GD32VW55x_RELEASE_V1.0.2/MSDK/wpa_supplicant/src/ap\wpa_auth_ie.c **** 		     i < data.num_pmkid; i++) {
 2665              		.loc 1 949 2 is_stmt 0 discriminator 1
 2666 049e 8327042A 		lw	a5,672(s0)
 2667 04a2 A5E3     		bne	a5,zero,.L168
 949:C:/Users/stapi/OneDrive/Desktop/GD32VW553/V1_MQTT_OK/GD32VW55X_Wifi_BLE_SDK/GD32VW55x_RELEASE_V1.0.2/MSDK/wpa_supplicant/src/ap\wpa_auth_ie.c **** 		     i < data.num_pmkid; i++) {
 2668              		.loc 1 949 32 discriminator 2
 2669 04a4 83A78408 		lw	a5,136(s1)
 2670 04a8 A9CF     		beq	a5,zero,.L168
 949:C:/Users/stapi/OneDrive/Desktop/GD32VW553/V1_MQTT_OK/GD32VW55X_Wifi_BLE_SDK/GD32VW55x_RELEASE_V1.0.2/MSDK/wpa_supplicant/src/ap\wpa_auth_ie.c **** 		     i < data.num_pmkid; i++) {
 2671              		.loc 1 949 54 discriminator 3
 2672 04aa 9647     		lw	a5,68(sp)
 2673 04ac 637BFC04 		bleu	a5,s8,.L168
 2674              	.LBB305:
 951:C:/Users/stapi/OneDrive/Desktop/GD32VW553/V1_MQTT_OK/GD32VW55X_Wifi_BLE_SDK/GD32VW55x_RELEASE_V1.0.2/MSDK/wpa_supplicant/src/ap\wpa_auth_ie.c **** 		idata.pmksa = NULL;
 2675              		.loc 1 951 3 is_stmt 1
 952:C:/Users/stapi/OneDrive/Desktop/GD32VW553/V1_MQTT_OK/GD32VW55X_Wifi_BLE_SDK/GD32VW55x_RELEASE_V1.0.2/MSDK/wpa_supplicant/src/ap\wpa_auth_ie.c **** 		idata.aa = wpa_auth->addr;
 2676              		.loc 1 952 3
 955:C:/Users/stapi/OneDrive/Desktop/GD32VW553/V1_MQTT_OK/GD32VW55X_Wifi_BLE_SDK/GD32VW55x_RELEASE_V1.0.2/MSDK/wpa_supplicant/src/ap\wpa_auth_ie.c **** 		wpa_auth_for_each_auth(wpa_auth, wpa_auth_okc_iter, &idata);
 2677              		.loc 1 955 17 is_stmt 0
 2678 04b0 2647     		lw	a4,72(sp)
 2679 04b2 93174C00 		slli	a5,s8,4
 956:C:/Users/stapi/OneDrive/Desktop/GD32VW553/V1_MQTT_OK/GD32VW55X_Wifi_BLE_SDK/GD32VW55x_RELEASE_V1.0.2/MSDK/wpa_supplicant/src/ap\wpa_auth_ie.c **** 		if (idata.pmksa) {
 2680              		.loc 1 956 3
 2681 04b6 3008     		addi	a2,sp,24
 955:C:/Users/stapi/OneDrive/Desktop/GD32VW553/V1_MQTT_OK/GD32VW55X_Wifi_BLE_SDK/GD32VW55x_RELEASE_V1.0.2/MSDK/wpa_supplicant/src/ap\wpa_auth_ie.c **** 		wpa_auth_for_each_auth(wpa_auth, wpa_auth_okc_iter, &idata);
 2682              		.loc 1 955 17
 2683 04b8 BA97     		add	a5,a4,a5
 956:C:/Users/stapi/OneDrive/Desktop/GD32VW553/V1_MQTT_OK/GD32VW55X_Wifi_BLE_SDK/GD32VW55x_RELEASE_V1.0.2/MSDK/wpa_supplicant/src/ap\wpa_auth_ie.c **** 		if (idata.pmksa) {
 2684              		.loc 1 956 3
 2685 04ba 93850D00 		addi	a1,s11,%lo(wpa_auth_okc_iter)
 2686 04be 2685     		mv	a0,s1
 955:C:/Users/stapi/OneDrive/Desktop/GD32VW553/V1_MQTT_OK/GD32VW55X_Wifi_BLE_SDK/GD32VW55x_RELEASE_V1.0.2/MSDK/wpa_supplicant/src/ap\wpa_auth_ie.c **** 		wpa_auth_for_each_auth(wpa_auth, wpa_auth_okc_iter, &idata);
 2687              		.loc 1 955 15
 2688 04c0 3ED2     		sw	a5,36(sp)
 952:C:/Users/stapi/OneDrive/Desktop/GD32VW553/V1_MQTT_OK/GD32VW55X_Wifi_BLE_SDK/GD32VW55x_RELEASE_V1.0.2/MSDK/wpa_supplicant/src/ap\wpa_auth_ie.c **** 		idata.aa = wpa_auth->addr;
 2689              		.loc 1 952 15
 2690 04c2 02CC     		sw	zero,24(sp)
 953:C:/Users/stapi/OneDrive/Desktop/GD32VW553/V1_MQTT_OK/GD32VW55X_Wifi_BLE_SDK/GD32VW55x_RELEASE_V1.0.2/MSDK/wpa_supplicant/src/ap\wpa_auth_ie.c **** 		idata.spa = sm->addr;
 2691              		.loc 1 953 3 is_stmt 1
 953:C:/Users/stapi/OneDrive/Desktop/GD32VW553/V1_MQTT_OK/GD32VW55X_Wifi_BLE_SDK/GD32VW55x_RELEASE_V1.0.2/MSDK/wpa_supplicant/src/ap\wpa_auth_ie.c **** 		idata.spa = sm->addr;
 2692              		.loc 1 953 12 is_stmt 0
 2693 04c4 66CE     		sw	s9,28(sp)
 954:C:/Users/stapi/OneDrive/Desktop/GD32VW553/V1_MQTT_OK/GD32VW55X_Wifi_BLE_SDK/GD32VW55x_RELEASE_V1.0.2/MSDK/wpa_supplicant/src/ap\wpa_auth_ie.c **** 		idata.pmkid = &data.pmkid[i * PMKID_LEN];
 2694              		.loc 1 954 3 is_stmt 1
 954:C:/Users/stapi/OneDrive/Desktop/GD32VW553/V1_MQTT_OK/GD32VW55X_Wifi_BLE_SDK/GD32VW55x_RELEASE_V1.0.2/MSDK/wpa_supplicant/src/ap\wpa_auth_ie.c **** 		idata.pmkid = &data.pmkid[i * PMKID_LEN];
 2695              		.loc 1 954 13 is_stmt 0
 2696 04c6 6AD0     		sw	s10,32(sp)
 955:C:/Users/stapi/OneDrive/Desktop/GD32VW553/V1_MQTT_OK/GD32VW55X_Wifi_BLE_SDK/GD32VW55x_RELEASE_V1.0.2/MSDK/wpa_supplicant/src/ap\wpa_auth_ie.c **** 		wpa_auth_for_each_auth(wpa_auth, wpa_auth_okc_iter, &idata);
 2697              		.loc 1 955 3 is_stmt 1
 956:C:/Users/stapi/OneDrive/Desktop/GD32VW553/V1_MQTT_OK/GD32VW55X_Wifi_BLE_SDK/GD32VW55x_RELEASE_V1.0.2/MSDK/wpa_supplicant/src/ap\wpa_auth_ie.c **** 		if (idata.pmksa) {
 2698              		.loc 1 956 3
 2699 04c8 97000000 		call	wpa_auth_for_each_auth
 2699      E7800000 
 2700              	.LVL277:
 957:C:/Users/stapi/OneDrive/Desktop/GD32VW553/V1_MQTT_OK/GD32VW55X_Wifi_BLE_SDK/GD32VW55x_RELEASE_V1.0.2/MSDK/wpa_supplicant/src/ap\wpa_auth_ie.c **** 			wpa_auth_vlogger(wpa_auth, sm->addr, LOGGER_DEBUG,
 2701              		.loc 1 957 3
 957:C:/Users/stapi/OneDrive/Desktop/GD32VW553/V1_MQTT_OK/GD32VW55X_Wifi_BLE_SDK/GD32VW55x_RELEASE_V1.0.2/MSDK/wpa_supplicant/src/ap\wpa_auth_ie.c **** 			wpa_auth_vlogger(wpa_auth, sm->addr, LOGGER_DEBUG,
 2702              		.loc 1 957 6 is_stmt 0
 2703 04d0 E247     		lw	a5,24(sp)
 2704 04d2 D5CB     		beq	a5,zero,.L167
 958:C:/Users/stapi/OneDrive/Desktop/GD32VW553/V1_MQTT_OK/GD32VW55X_Wifi_BLE_SDK/GD32VW55x_RELEASE_V1.0.2/MSDK/wpa_supplicant/src/ap\wpa_auth_ie.c **** 					 "OKC match for PMKID");
 2705              		.loc 1 958 4 is_stmt 1
 2706 04d4 B7060000 		lui	a3,%hi(.LC20)
 2707 04d8 93860600 		addi	a3,a3,%lo(.LC20)
 2708 04dc 0146     		li	a2,0
 2709 04de EA85     		mv	a1,s10
 2710 04e0 2685     		mv	a0,s1
 2711 04e2 97000000 		call	wpa_auth_vlogger
 2711      E7800000 
 2712              	.LVL278:
 960:C:/Users/stapi/OneDrive/Desktop/GD32VW553/V1_MQTT_OK/GD32VW55X_Wifi_BLE_SDK/GD32VW55x_RELEASE_V1.0.2/MSDK/wpa_supplicant/src/ap\wpa_auth_ie.c **** 							idata.pmksa,
 2713              		.loc 1 960 4
 960:C:/Users/stapi/OneDrive/Desktop/GD32VW553/V1_MQTT_OK/GD32VW55X_Wifi_BLE_SDK/GD32VW55x_RELEASE_V1.0.2/MSDK/wpa_supplicant/src/ap\wpa_auth_ie.c **** 							idata.pmksa,
 2714              		.loc 1 960 16 is_stmt 0
 2715 04ea 9256     		lw	a3,36(sp)
 2716 04ec E245     		lw	a1,24(sp)
 2717 04ee 03A5040E 		lw	a0,224(s1)
 2718 04f2 6686     		mv	a2,s9
 2719 04f4 97000000 		call	pmksa_cache_add_okc
 2719      E7800000 
 2720              	.LVL279:
 964:C:/Users/stapi/OneDrive/Desktop/GD32VW553/V1_MQTT_OK/GD32VW55X_Wifi_BLE_SDK/GD32VW55x_RELEASE_V1.0.2/MSDK/wpa_supplicant/src/ap\wpa_auth_ie.c **** 			break;
 2721              		.loc 1 964 10
 2722 04fc 125B     		lw	s6,36(sp)
 2723              	.LVL280:
 960:C:/Users/stapi/OneDrive/Desktop/GD32VW553/V1_MQTT_OK/GD32VW55X_Wifi_BLE_SDK/GD32VW55x_RELEASE_V1.0.2/MSDK/wpa_supplicant/src/ap\wpa_auth_ie.c **** 							idata.pmksa,
 2724              		.loc 1 960 14
 2725 04fe 2320A42A 		sw	a0,672(s0)
 964:C:/Users/stapi/OneDrive/Desktop/GD32VW553/V1_MQTT_OK/GD32VW55X_Wifi_BLE_SDK/GD32VW55x_RELEASE_V1.0.2/MSDK/wpa_supplicant/src/ap\wpa_auth_ie.c **** 			break;
 2726              		.loc 1 964 4 is_stmt 1
 2727              	.LVL281:
 965:C:/Users/stapi/OneDrive/Desktop/GD32VW553/V1_MQTT_OK/GD32VW55X_Wifi_BLE_SDK/GD32VW55x_RELEASE_V1.0.2/MSDK/wpa_supplicant/src/ap\wpa_auth_ie.c **** 		}
 2728              		.loc 1 965 4
 2729              	.L168:
 2730              	.LBE305:
 968:C:/Users/stapi/OneDrive/Desktop/GD32VW553/V1_MQTT_OK/GD32VW55X_Wifi_BLE_SDK/GD32VW55x_RELEASE_V1.0.2/MSDK/wpa_supplicant/src/ap\wpa_auth_ie.c **** 		struct vlan_description *vlan;
 2731              		.loc 1 968 2
 968:C:/Users/stapi/OneDrive/Desktop/GD32VW553/V1_MQTT_OK/GD32VW55X_Wifi_BLE_SDK/GD32VW55x_RELEASE_V1.0.2/MSDK/wpa_supplicant/src/ap\wpa_auth_ie.c **** 		struct vlan_description *vlan;
 2732              		.loc 1 968 8 is_stmt 0
 2733 0502 0327042A 		lw	a4,672(s0)
 968:C:/Users/stapi/OneDrive/Desktop/GD32VW553/V1_MQTT_OK/GD32VW55X_Wifi_BLE_SDK/GD32VW55x_RELEASE_V1.0.2/MSDK/wpa_supplicant/src/ap\wpa_auth_ie.c **** 		struct vlan_description *vlan;
 2734              		.loc 1 968 5
 2735 0506 29C7     		beq	a4,zero,.L170
 968:C:/Users/stapi/OneDrive/Desktop/GD32VW553/V1_MQTT_OK/GD32VW55X_Wifi_BLE_SDK/GD32VW55x_RELEASE_V1.0.2/MSDK/wpa_supplicant/src/ap\wpa_auth_ie.c **** 		struct vlan_description *vlan;
 2736              		.loc 1 968 16 discriminator 1
 2737 0508 63040B04 		beq	s6,zero,.L170
 2738              	.LBB306:
 969:C:/Users/stapi/OneDrive/Desktop/GD32VW553/V1_MQTT_OK/GD32VW55X_Wifi_BLE_SDK/GD32VW55x_RELEASE_V1.0.2/MSDK/wpa_supplicant/src/ap\wpa_auth_ie.c **** 
 2739              		.loc 1 969 3 is_stmt 1
 971:C:/Users/stapi/OneDrive/Desktop/GD32VW553/V1_MQTT_OK/GD32VW55X_Wifi_BLE_SDK/GD32VW55x_RELEASE_V1.0.2/MSDK/wpa_supplicant/src/ap\wpa_auth_ie.c **** 		wpa_auth_vlogger(wpa_auth, sm->addr, LOGGER_DEBUG,
 2740              		.loc 1 971 3
 971:C:/Users/stapi/OneDrive/Desktop/GD32VW553/V1_MQTT_OK/GD32VW55X_Wifi_BLE_SDK/GD32VW55x_RELEASE_V1.0.2/MSDK/wpa_supplicant/src/ap\wpa_auth_ie.c **** 		wpa_auth_vlogger(wpa_auth, sm->addr, LOGGER_DEBUG,
 2741              		.loc 1 971 8 is_stmt 0
 2742 050c 83274708 		lw	a5,132(a4)
 2743              	.LVL282:
 972:C:/Users/stapi/OneDrive/Desktop/GD32VW553/V1_MQTT_OK/GD32VW55X_Wifi_BLE_SDK/GD32VW55x_RELEASE_V1.0.2/MSDK/wpa_supplicant/src/ap\wpa_auth_ie.c **** 				 "PMKID found from PMKSA cache eap_type=%d vlan=%d%s",
 2744              		.loc 1 972 3 is_stmt 1
 972:C:/Users/stapi/OneDrive/Desktop/GD32VW553/V1_MQTT_OK/GD32VW55X_Wifi_BLE_SDK/GD32VW55x_RELEASE_V1.0.2/MSDK/wpa_supplicant/src/ap\wpa_auth_ie.c **** 				 "PMKID found from PMKSA cache eap_type=%d vlan=%d%s",
 2745              		.loc 1 972 32 is_stmt 0
 2746 0510 93058400 		addi	a1,s0,8
 972:C:/Users/stapi/OneDrive/Desktop/GD32VW553/V1_MQTT_OK/GD32VW55X_Wifi_BLE_SDK/GD32VW55x_RELEASE_V1.0.2/MSDK/wpa_supplicant/src/ap\wpa_auth_ie.c **** 				 "PMKID found from PMKSA cache eap_type=%d vlan=%d%s",
 2747              		.loc 1 972 3
 2748 0514 03470708 		lbu	a4,128(a4)
 2749 0518 89C7     		beq	a5,zero,.L202
 972:C:/Users/stapi/OneDrive/Desktop/GD32VW553/V1_MQTT_OK/GD32VW55X_Wifi_BLE_SDK/GD32VW55x_RELEASE_V1.0.2/MSDK/wpa_supplicant/src/ap\wpa_auth_ie.c **** 				 "PMKID found from PMKSA cache eap_type=%d vlan=%d%s",
 2750              		.loc 1 972 3 discriminator 1
 2751 051a 03AA4700 		lw	s4,4(a5)
 2752              	.LVL283:
 976:C:/Users/stapi/OneDrive/Desktop/GD32VW553/V1_MQTT_OK/GD32VW55X_Wifi_BLE_SDK/GD32VW55x_RELEASE_V1.0.2/MSDK/wpa_supplicant/src/ap\wpa_auth_ie.c **** 		os_memcpy(wpa_auth->dot11RSNAPMKIDUsed, pmkid, PMKID_LEN);
 2753              		.loc 1 976 12 discriminator 1
 2754 051e 9C47     		lw	a5,8(a5)
 2755              	.LVL284:
 2756 0520 ADE7     		bne	a5,zero,.L203
 2757              	.L202:
 972:C:/Users/stapi/OneDrive/Desktop/GD32VW553/V1_MQTT_OK/GD32VW55X_Wifi_BLE_SDK/GD32VW55x_RELEASE_V1.0.2/MSDK/wpa_supplicant/src/ap\wpa_auth_ie.c **** 				 "PMKID found from PMKSA cache eap_type=%d vlan=%d%s",
 2758              		.loc 1 972 3
 2759 0522 37080000 		lui	a6,%hi(.LC7)
 2760 0526 13080800 		addi	a6,a6,%lo(.LC7)
 2761              	.L171:
 972:C:/Users/stapi/OneDrive/Desktop/GD32VW553/V1_MQTT_OK/GD32VW55X_Wifi_BLE_SDK/GD32VW55x_RELEASE_V1.0.2/MSDK/wpa_supplicant/src/ap\wpa_auth_ie.c **** 				 "PMKID found from PMKSA cache eap_type=%d vlan=%d%s",
 2762              		.loc 1 972 3 discriminator 7
 2763 052a B7060000 		lui	a3,%hi(.LC21)
 2764 052e 0146     		li	a2,0
 2765 0530 2685     		mv	a0,s1
 2766 0532 D287     		mv	a5,s4
 2767 0534 93860600 		addi	a3,a3,%lo(.LC21)
 2768 0538 97000000 		call	wpa_auth_vlogger
 2768      E7800000 
 2769              	.LVL285:
 977:C:/Users/stapi/OneDrive/Desktop/GD32VW553/V1_MQTT_OK/GD32VW55X_Wifi_BLE_SDK/GD32VW55x_RELEASE_V1.0.2/MSDK/wpa_supplicant/src/ap\wpa_auth_ie.c **** 	}
 2770              		.loc 1 977 3 is_stmt 1 discriminator 7
 2771 0540 4146     		li	a2,16
 2772 0542 DA85     		mv	a1,s6
 2773 0544 13854401 		addi	a0,s1,20
 2774 0548 97000000 		call	os_memcpy
 2774      E7800000 
 2775              	.LVL286:
 2776              	.L170:
 2777              	.LBE306:
 981:C:/Users/stapi/OneDrive/Desktop/GD32VW553/V1_MQTT_OK/GD32VW55X_Wifi_BLE_SDK/GD32VW55x_RELEASE_V1.0.2/MSDK/wpa_supplicant/src/ap\wpa_auth_ie.c **** 	    !sm->pmksa) {
 2778              		.loc 1 981 2
 981:C:/Users/stapi/OneDrive/Desktop/GD32VW553/V1_MQTT_OK/GD32VW55X_Wifi_BLE_SDK/GD32VW55x_RELEASE_V1.0.2/MSDK/wpa_supplicant/src/ap\wpa_auth_ie.c **** 	    !sm->pmksa) {
 2779              		.loc 1 981 8 is_stmt 0
 2780 0550 8327C429 		lw	a5,668(s0)
 981:C:/Users/stapi/OneDrive/Desktop/GD32VW553/V1_MQTT_OK/GD32VW55X_Wifi_BLE_SDK/GD32VW55x_RELEASE_V1.0.2/MSDK/wpa_supplicant/src/ap\wpa_auth_ie.c **** 	    !sm->pmksa) {
 2781              		.loc 1 981 5
 2782 0554 13070040 		li	a4,1024
 2783 0558 639EE702 		bne	a5,a4,.L172
 981:C:/Users/stapi/OneDrive/Desktop/GD32VW553/V1_MQTT_OK/GD32VW55X_Wifi_BLE_SDK/GD32VW55x_RELEASE_V1.0.2/MSDK/wpa_supplicant/src/ap\wpa_auth_ie.c **** 	    !sm->pmksa) {
 2784              		.loc 1 981 43 discriminator 1
 2785 055c 1647     		lw	a4,68(sp)
 2786 055e 1DCB     		beq	a4,zero,.L172
 981:C:/Users/stapi/OneDrive/Desktop/GD32VW553/V1_MQTT_OK/GD32VW55X_Wifi_BLE_SDK/GD32VW55x_RELEASE_V1.0.2/MSDK/wpa_supplicant/src/ap\wpa_auth_ie.c **** 	    !sm->pmksa) {
 2787              		.loc 1 981 61 discriminator 2
 2788 0560 0327042A 		lw	a4,672(s0)
 2789 0564 05EB     		bne	a4,zero,.L172
 983:C:/Users/stapi/OneDrive/Desktop/GD32VW553/V1_MQTT_OK/GD32VW55X_Wifi_BLE_SDK/GD32VW55x_RELEASE_V1.0.2/MSDK/wpa_supplicant/src/ap\wpa_auth_ie.c **** 				 "No PMKSA cache entry found for SAE");
 2790              		.loc 1 983 3 is_stmt 1
 2791 0566 B7060000 		lui	a3,%hi(.LC22)
 2792 056a 2685     		mv	a0,s1
 2793 056c 93860600 		addi	a3,a3,%lo(.LC22)
 2794 0570 0146     		li	a2,0
 2795 0572 93058400 		addi	a1,s0,8
 2796 0576 97000000 		call	wpa_auth_vlogger
 2796      E7800000 
 2797              	.LVL287:
 985:C:/Users/stapi/OneDrive/Desktop/GD32VW553/V1_MQTT_OK/GD32VW55X_Wifi_BLE_SDK/GD32VW55x_RELEASE_V1.0.2/MSDK/wpa_supplicant/src/ap\wpa_auth_ie.c **** 	}
 2798              		.loc 1 985 3
 985:C:/Users/stapi/OneDrive/Desktop/GD32VW553/V1_MQTT_OK/GD32VW55X_Wifi_BLE_SDK/GD32VW55x_RELEASE_V1.0.2/MSDK/wpa_supplicant/src/ap\wpa_auth_ie.c **** 	}
 2799              		.loc 1 985 10 is_stmt 0
 2800 057e 2D45     		li	a0,11
 2801 0580 C5BC     		j	.L126
 2802              	.LVL288:
 2803              	.L163:
 939:C:/Users/stapi/OneDrive/Desktop/GD32VW553/V1_MQTT_OK/GD32VW55X_Wifi_BLE_SDK/GD32VW55x_RELEASE_V1.0.2/MSDK/wpa_supplicant/src/ap\wpa_auth_ie.c **** 		wpa_hexdump(MSG_DEBUG, "RSN IE: STA PMKID",
 2804              		.loc 1 939 34 is_stmt 1 discriminator 2
 939:C:/Users/stapi/OneDrive/Desktop/GD32VW553/V1_MQTT_OK/GD32VW55X_Wifi_BLE_SDK/GD32VW55x_RELEASE_V1.0.2/MSDK/wpa_supplicant/src/ap\wpa_auth_ie.c **** 		wpa_hexdump(MSG_DEBUG, "RSN IE: STA PMKID",
 2805              		.loc 1 939 35 is_stmt 0 discriminator 2
 2806 0582 050B     		addi	s6,s6,1
 2807              	.LVL289:
 2808 0584 F9B5     		j	.L162
 2809              	.LVL290:
 2810              	.L167:
 950:C:/Users/stapi/OneDrive/Desktop/GD32VW553/V1_MQTT_OK/GD32VW55X_Wifi_BLE_SDK/GD32VW55x_RELEASE_V1.0.2/MSDK/wpa_supplicant/src/ap\wpa_auth_ie.c **** 		struct wpa_auth_okc_iter_data idata;
 2811              		.loc 1 950 28 is_stmt 1
 950:C:/Users/stapi/OneDrive/Desktop/GD32VW553/V1_MQTT_OK/GD32VW55X_Wifi_BLE_SDK/GD32VW55x_RELEASE_V1.0.2/MSDK/wpa_supplicant/src/ap\wpa_auth_ie.c **** 		struct wpa_auth_okc_iter_data idata;
 2812              		.loc 1 950 29 is_stmt 0
 2813 0586 050C     		addi	s8,s8,1
 2814              	.LVL291:
 2815 0588 19BF     		j	.L166
 2816              	.LVL292:
 2817              	.L203:
 2818              	.LBB307:
 972:C:/Users/stapi/OneDrive/Desktop/GD32VW553/V1_MQTT_OK/GD32VW55X_Wifi_BLE_SDK/GD32VW55x_RELEASE_V1.0.2/MSDK/wpa_supplicant/src/ap\wpa_auth_ie.c **** 				 "PMKID found from PMKSA cache eap_type=%d vlan=%d%s",
 2819              		.loc 1 972 3
 2820 058a 37080000 		lui	a6,%hi(.LC6)
 2821 058e 13080800 		addi	a6,a6,%lo(.LC6)
 2822 0592 61BF     		j	.L171
 2823              	.LVL293:
 2824              	.L172:
 2825              	.LBE307:
 997:C:/Users/stapi/OneDrive/Desktop/GD32VW553/V1_MQTT_OK/GD32VW55X_Wifi_BLE_SDK/GD32VW55x_RELEASE_V1.0.2/MSDK/wpa_supplicant/src/ap\wpa_auth_ie.c **** 	    sm->pairwise != WPA_CIPHER_TKIP &&
 2826              		.loc 1 997 2 is_stmt 1
 997:C:/Users/stapi/OneDrive/Desktop/GD32VW553/V1_MQTT_OK/GD32VW55X_Wifi_BLE_SDK/GD32VW55x_RELEASE_V1.0.2/MSDK/wpa_supplicant/src/ap\wpa_auth_ie.c **** 	    sm->pairwise != WPA_CIPHER_TKIP &&
 2827              		.loc 1 997 10 is_stmt 0
 2828 0594 AC40     		lw	a1,64(s1)
 997:C:/Users/stapi/OneDrive/Desktop/GD32VW553/V1_MQTT_OK/GD32VW55X_Wifi_BLE_SDK/GD32VW55x_RELEASE_V1.0.2/MSDK/wpa_supplicant/src/ap\wpa_auth_ie.c **** 	    sm->pairwise != WPA_CIPHER_TKIP &&
 2829              		.loc 1 997 5
 2830 0596 C9C5     		beq	a1,zero,.L173
 997:C:/Users/stapi/OneDrive/Desktop/GD32VW553/V1_MQTT_OK/GD32VW55X_Wifi_BLE_SDK/GD32VW55x_RELEASE_V1.0.2/MSDK/wpa_supplicant/src/ap\wpa_auth_ie.c **** 	    sm->pairwise != WPA_CIPHER_TKIP &&
 2831              		.loc 1 997 28 discriminator 1
 2832 0598 83264429 		lw	a3,660(s0)
 2833 059c 0947     		li	a4,2
 2834 059e 6391E608 		bne	a3,a4,.L173
 997:C:/Users/stapi/OneDrive/Desktop/GD32VW553/V1_MQTT_OK/GD32VW55X_Wifi_BLE_SDK/GD32VW55x_RELEASE_V1.0.2/MSDK/wpa_supplicant/src/ap\wpa_auth_ie.c **** 	    sm->pairwise != WPA_CIPHER_TKIP &&
 2835              		.loc 1 997 59 discriminator 2
 2836 05a2 03268429 		lw	a2,664(s0)
 2837 05a6 2147     		li	a4,8
 2838 05a8 630CE606 		beq	a2,a4,.L173
 999:C:/Users/stapi/OneDrive/Desktop/GD32VW553/V1_MQTT_OK/GD32VW55X_Wifi_BLE_SDK/GD32VW55x_RELEASE_V1.0.2/MSDK/wpa_supplicant/src/ap\wpa_auth_ie.c **** 		sm->use_ext_key_id = true;
 2839              		.loc 1 999 25
 2840 05ac 0646     		lw	a2,64(sp)
 2841 05ae 0967     		li	a4,8192
 2842 05b0 718F     		and	a4,a4,a2
 998:C:/Users/stapi/OneDrive/Desktop/GD32VW553/V1_MQTT_OK/GD32VW55X_Wifi_BLE_SDK/GD32VW55x_RELEASE_V1.0.2/MSDK/wpa_supplicant/src/ap\wpa_auth_ie.c **** 	    (data.capabilities & WPA_CAPABILITY_EXT_KEY_ID_FOR_UNICAST)) {
 2843              		.loc 1 998 38
 2844 05b2 3DC7     		beq	a4,zero,.L173
1000:C:/Users/stapi/OneDrive/Desktop/GD32VW553/V1_MQTT_OK/GD32VW55X_Wifi_BLE_SDK/GD32VW55x_RELEASE_V1.0.2/MSDK/wpa_supplicant/src/ap\wpa_auth_ie.c **** 		if (conf->extended_key_id == 2 &&
 2845              		.loc 1 1000 3 is_stmt 1
1000:C:/Users/stapi/OneDrive/Desktop/GD32VW553/V1_MQTT_OK/GD32VW55X_Wifi_BLE_SDK/GD32VW55x_RELEASE_V1.0.2/MSDK/wpa_supplicant/src/ap\wpa_auth_ie.c **** 		if (conf->extended_key_id == 2 &&
 2846              		.loc 1 1000 22 is_stmt 0
 2847 05b4 0547     		li	a4,1
 2848 05b6 A308E420 		sb	a4,529(s0)
1001:C:/Users/stapi/OneDrive/Desktop/GD32VW553/V1_MQTT_OK/GD32VW55X_Wifi_BLE_SDK/GD32VW55x_RELEASE_V1.0.2/MSDK/wpa_supplicant/src/ap\wpa_auth_ie.c **** 		    !wpa_key_mgmt_ft(sm->wpa_key_mgmt) &&
 2849              		.loc 1 1001 3 is_stmt 1
1006:C:/Users/stapi/OneDrive/Desktop/GD32VW553/V1_MQTT_OK/GD32VW55X_Wifi_BLE_SDK/GD32VW55x_RELEASE_V1.0.2/MSDK/wpa_supplicant/src/ap\wpa_auth_ie.c **** 		wpa_printf(MSG_DEBUG,
 2850              		.loc 1 1006 22 is_stmt 0
 2851 05ba 0146     		li	a2,0
1001:C:/Users/stapi/OneDrive/Desktop/GD32VW553/V1_MQTT_OK/GD32VW55X_Wifi_BLE_SDK/GD32VW55x_RELEASE_V1.0.2/MSDK/wpa_supplicant/src/ap\wpa_auth_ie.c **** 		    !wpa_key_mgmt_ft(sm->wpa_key_mgmt) &&
 2852              		.loc 1 1001 6
 2853 05bc 6399D500 		bne	a1,a3,.L174
 2854              	.LVL294:
 2855              	.LBB308:
 2856              	.LBB309:
  96:..\..\..\..\wpa_supplicant\src/common/defs.h **** }
 2857              		.loc 3 96 2 is_stmt 1 discriminator 1
 2858              	.LBE309:
 2859              	.LBE308:
 114:..\..\..\..\wpa_supplicant\src/common/defs.h **** 			 WPA_KEY_MGMT_FT_SAE));
 115:..\..\..\..\wpa_supplicant\src/common/defs.h **** }
 116:..\..\..\..\wpa_supplicant\src/common/defs.h **** 
 117:..\..\..\..\wpa_supplicant\src/common/defs.h **** static inline int wpa_key_mgmt_fils(int akm)
 118:..\..\..\..\wpa_supplicant\src/common/defs.h **** {
 119:..\..\..\..\wpa_supplicant\src/common/defs.h **** 	return !!(akm & (WPA_KEY_MGMT_FILS_SHA256 |
 2860              		.loc 3 119 2 discriminator 1
1002:C:/Users/stapi/OneDrive/Desktop/GD32VW553/V1_MQTT_OK/GD32VW55X_Wifi_BLE_SDK/GD32VW55x_RELEASE_V1.0.2/MSDK/wpa_supplicant/src/ap\wpa_auth_ie.c **** 		    !wpa_key_mgmt_fils(sm->wpa_key_mgmt))
 2861              		.loc 1 1002 42 is_stmt 0 discriminator 1
 2862 05c0 37163C01 		li	a2,20713472
 2863 05c4 13060686 		addi	a2,a2,-1952
 2864 05c8 F18F     		and	a5,a5,a2
1006:C:/Users/stapi/OneDrive/Desktop/GD32VW553/V1_MQTT_OK/GD32VW55X_Wifi_BLE_SDK/GD32VW55x_RELEASE_V1.0.2/MSDK/wpa_supplicant/src/ap\wpa_auth_ie.c **** 		wpa_printf(MSG_DEBUG,
 2865              		.loc 1 1006 22 discriminator 1
 2866 05ca 13B61700 		seqz	a2,a5
 2867              	.L174:
1007:C:/Users/stapi/OneDrive/Desktop/GD32VW553/V1_MQTT_OK/GD32VW55X_Wifi_BLE_SDK/GD32VW55x_RELEASE_V1.0.2/MSDK/wpa_supplicant/src/ap\wpa_auth_ie.c **** 			   "RSN: Extended Key ID supported (start with %d)",
 2868              		.loc 1 1007 3
 2869 05ce B7050000 		lui	a1,%hi(.LC23)
 2870 05d2 2308C420 		sb	a2,528(s0)
1007:C:/Users/stapi/OneDrive/Desktop/GD32VW553/V1_MQTT_OK/GD32VW55X_Wifi_BLE_SDK/GD32VW55x_RELEASE_V1.0.2/MSDK/wpa_supplicant/src/ap\wpa_auth_ie.c **** 			   "RSN: Extended Key ID supported (start with %d)",
 2871              		.loc 1 1007 3 is_stmt 1
 2872 05d6 93850500 		addi	a1,a1,%lo(.LC23)
 2873 05da 0945     		li	a0,2
 2874 05dc 97000000 		call	wpa_printf
 2874      E7800000 
 2875              	.LVL295:
 2876              	.L175:
1014:C:/Users/stapi/OneDrive/Desktop/GD32VW553/V1_MQTT_OK/GD32VW55X_Wifi_BLE_SDK/GD32VW55x_RELEASE_V1.0.2/MSDK/wpa_supplicant/src/ap\wpa_auth_ie.c **** 		os_free(sm->wpa_ie);
 2877              		.loc 1 1014 2
1014:C:/Users/stapi/OneDrive/Desktop/GD32VW553/V1_MQTT_OK/GD32VW55X_Wifi_BLE_SDK/GD32VW55x_RELEASE_V1.0.2/MSDK/wpa_supplicant/src/ap\wpa_auth_ie.c **** 		os_free(sm->wpa_ie);
 2878              		.loc 1 1014 8 is_stmt 0
 2879 05e4 03254428 		lw	a0,644(s0)
1014:C:/Users/stapi/OneDrive/Desktop/GD32VW553/V1_MQTT_OK/GD32VW55X_Wifi_BLE_SDK/GD32VW55x_RELEASE_V1.0.2/MSDK/wpa_supplicant/src/ap\wpa_auth_ie.c **** 		os_free(sm->wpa_ie);
 2880              		.loc 1 1014 5
 2881 05e8 1DCD     		beq	a0,zero,.L176
1014:C:/Users/stapi/OneDrive/Desktop/GD32VW553/V1_MQTT_OK/GD32VW55X_Wifi_BLE_SDK/GD32VW55x_RELEASE_V1.0.2/MSDK/wpa_supplicant/src/ap\wpa_auth_ie.c **** 		os_free(sm->wpa_ie);
 2882              		.loc 1 1014 25 discriminator 1
 2883 05ea 83278428 		lw	a5,648(s0)
 2884 05ee 63EC2703 		bltu	a5,s2,.L176
 2885              	.L179:
1020:C:/Users/stapi/OneDrive/Desktop/GD32VW553/V1_MQTT_OK/GD32VW55X_Wifi_BLE_SDK/GD32VW55x_RELEASE_V1.0.2/MSDK/wpa_supplicant/src/ap\wpa_auth_ie.c **** 	sm->wpa_ie_len = wpa_ie_len;
 2886              		.loc 1 1020 2 is_stmt 1
 2887 05f2 03254428 		lw	a0,644(s0)
 2888 05f6 4A86     		mv	a2,s2
 2889 05f8 CE85     		mv	a1,s3
 2890 05fa 97000000 		call	os_memcpy
 2890      E7800000 
 2891              	.LVL296:
1021:C:/Users/stapi/OneDrive/Desktop/GD32VW553/V1_MQTT_OK/GD32VW55X_Wifi_BLE_SDK/GD32VW55x_RELEASE_V1.0.2/MSDK/wpa_supplicant/src/ap\wpa_auth_ie.c **** 
 2892              		.loc 1 1021 2
1021:C:/Users/stapi/OneDrive/Desktop/GD32VW553/V1_MQTT_OK/GD32VW55X_Wifi_BLE_SDK/GD32VW55x_RELEASE_V1.0.2/MSDK/wpa_supplicant/src/ap\wpa_auth_ie.c **** 
 2893              		.loc 1 1021 17 is_stmt 0
 2894 0602 23242429 		sw	s2,648(s0)
1023:C:/Users/stapi/OneDrive/Desktop/GD32VW553/V1_MQTT_OK/GD32VW55X_Wifi_BLE_SDK/GD32VW55x_RELEASE_V1.0.2/MSDK/wpa_supplicant/src/ap\wpa_auth_ie.c **** 		if (!sm->rsnxe || sm->rsnxe_len < rsnxe_len) {
 2895              		.loc 1 1023 2 is_stmt 1
 2896 0606 0325C428 		lw	a0,652(s0)
1023:C:/Users/stapi/OneDrive/Desktop/GD32VW553/V1_MQTT_OK/GD32VW55X_Wifi_BLE_SDK/GD32VW55x_RELEASE_V1.0.2/MSDK/wpa_supplicant/src/ap\wpa_auth_ie.c **** 		if (!sm->rsnxe || sm->rsnxe_len < rsnxe_len) {
 2897              		.loc 1 1023 5 is_stmt 0
 2898 060a 639C0B02 		bne	s7,zero,.L177
 2899              	.L178:
1033:C:/Users/stapi/OneDrive/Desktop/GD32VW553/V1_MQTT_OK/GD32VW55X_Wifi_BLE_SDK/GD32VW55x_RELEASE_V1.0.2/MSDK/wpa_supplicant/src/ap\wpa_auth_ie.c **** 		sm->rsnxe = NULL;
 2900              		.loc 1 1033 3 is_stmt 1
 2901 060e 97000000 		call	os_free
 2901      E7800000 
 2902              	.LVL297:
1034:C:/Users/stapi/OneDrive/Desktop/GD32VW553/V1_MQTT_OK/GD32VW55X_Wifi_BLE_SDK/GD32VW55x_RELEASE_V1.0.2/MSDK/wpa_supplicant/src/ap\wpa_auth_ie.c **** 		sm->rsnxe_len = 0;
 2903              		.loc 1 1034 3
1034:C:/Users/stapi/OneDrive/Desktop/GD32VW553/V1_MQTT_OK/GD32VW55X_Wifi_BLE_SDK/GD32VW55x_RELEASE_V1.0.2/MSDK/wpa_supplicant/src/ap\wpa_auth_ie.c **** 		sm->rsnxe_len = 0;
 2904              		.loc 1 1034 13 is_stmt 0
 2905 0616 23260428 		sw	zero,652(s0)
1035:C:/Users/stapi/OneDrive/Desktop/GD32VW553/V1_MQTT_OK/GD32VW55X_Wifi_BLE_SDK/GD32VW55x_RELEASE_V1.0.2/MSDK/wpa_supplicant/src/ap\wpa_auth_ie.c **** 	}
 2906              		.loc 1 1035 3 is_stmt 1
1035:C:/Users/stapi/OneDrive/Desktop/GD32VW553/V1_MQTT_OK/GD32VW55X_Wifi_BLE_SDK/GD32VW55x_RELEASE_V1.0.2/MSDK/wpa_supplicant/src/ap\wpa_auth_ie.c **** 	}
 2907              		.loc 1 1035 17 is_stmt 0
 2908 061a 23280428 		sw	zero,656(s0)
 2909 061e 99A0     		j	.L261
 2910              	.L173:
1011:C:/Users/stapi/OneDrive/Desktop/GD32VW553/V1_MQTT_OK/GD32VW55X_Wifi_BLE_SDK/GD32VW55x_RELEASE_V1.0.2/MSDK/wpa_supplicant/src/ap\wpa_auth_ie.c **** 	}
 2911              		.loc 1 1011 3 is_stmt 1
1011:C:/Users/stapi/OneDrive/Desktop/GD32VW553/V1_MQTT_OK/GD32VW55X_Wifi_BLE_SDK/GD32VW55x_RELEASE_V1.0.2/MSDK/wpa_supplicant/src/ap\wpa_auth_ie.c **** 	}
 2912              		.loc 1 1011 22 is_stmt 0
 2913 0620 A3080420 		sb	zero,529(s0)
 2914 0624 C1B7     		j	.L175
 2915              	.L176:
1015:C:/Users/stapi/OneDrive/Desktop/GD32VW553/V1_MQTT_OK/GD32VW55X_Wifi_BLE_SDK/GD32VW55x_RELEASE_V1.0.2/MSDK/wpa_supplicant/src/ap\wpa_auth_ie.c **** 		sm->wpa_ie = os_malloc(wpa_ie_len);
 2916              		.loc 1 1015 3 is_stmt 1
 2917 0626 97000000 		call	os_free
 2917      E7800000 
 2918              	.LVL298:
1016:C:/Users/stapi/OneDrive/Desktop/GD32VW553/V1_MQTT_OK/GD32VW55X_Wifi_BLE_SDK/GD32VW55x_RELEASE_V1.0.2/MSDK/wpa_supplicant/src/ap\wpa_auth_ie.c **** 		if (sm->wpa_ie == NULL)
 2919              		.loc 1 1016 3
1016:C:/Users/stapi/OneDrive/Desktop/GD32VW553/V1_MQTT_OK/GD32VW55X_Wifi_BLE_SDK/GD32VW55x_RELEASE_V1.0.2/MSDK/wpa_supplicant/src/ap\wpa_auth_ie.c **** 		if (sm->wpa_ie == NULL)
 2920              		.loc 1 1016 16 is_stmt 0
 2921 062e 4A85     		mv	a0,s2
 2922 0630 97000000 		call	os_malloc
 2922      E7800000 
 2923              	.LVL299:
1016:C:/Users/stapi/OneDrive/Desktop/GD32VW553/V1_MQTT_OK/GD32VW55X_Wifi_BLE_SDK/GD32VW55x_RELEASE_V1.0.2/MSDK/wpa_supplicant/src/ap\wpa_auth_ie.c **** 		if (sm->wpa_ie == NULL)
 2924              		.loc 1 1016 14
 2925 0638 2322A428 		sw	a0,644(s0)
1017:C:/Users/stapi/OneDrive/Desktop/GD32VW553/V1_MQTT_OK/GD32VW55X_Wifi_BLE_SDK/GD32VW55x_RELEASE_V1.0.2/MSDK/wpa_supplicant/src/ap\wpa_auth_ie.c **** 			return WPA_ALLOC_FAIL;
 2926              		.loc 1 1017 3 is_stmt 1
1017:C:/Users/stapi/OneDrive/Desktop/GD32VW553/V1_MQTT_OK/GD32VW55X_Wifi_BLE_SDK/GD32VW55x_RELEASE_V1.0.2/MSDK/wpa_supplicant/src/ap\wpa_auth_ie.c **** 			return WPA_ALLOC_FAIL;
 2927              		.loc 1 1017 6 is_stmt 0
 2928 063c 5DF9     		bne	a0,zero,.L179
 2929              	.L181:
1018:C:/Users/stapi/OneDrive/Desktop/GD32VW553/V1_MQTT_OK/GD32VW55X_Wifi_BLE_SDK/GD32VW55x_RELEASE_V1.0.2/MSDK/wpa_supplicant/src/ap\wpa_auth_ie.c **** 	}
 2930              		.loc 1 1018 11
 2931 063e 1945     		li	a0,6
 2932 0640 05BC     		j	.L126
 2933              	.L177:
1023:C:/Users/stapi/OneDrive/Desktop/GD32VW553/V1_MQTT_OK/GD32VW55X_Wifi_BLE_SDK/GD32VW55x_RELEASE_V1.0.2/MSDK/wpa_supplicant/src/ap\wpa_auth_ie.c **** 		if (!sm->rsnxe || sm->rsnxe_len < rsnxe_len) {
 2934              		.loc 1 1023 12 discriminator 1
 2935 0642 E3860AFC 		beq	s5,zero,.L178
1024:C:/Users/stapi/OneDrive/Desktop/GD32VW553/V1_MQTT_OK/GD32VW55X_Wifi_BLE_SDK/GD32VW55x_RELEASE_V1.0.2/MSDK/wpa_supplicant/src/ap\wpa_auth_ie.c **** 			os_free(sm->rsnxe);
 2936              		.loc 1 1024 3 is_stmt 1
1024:C:/Users/stapi/OneDrive/Desktop/GD32VW553/V1_MQTT_OK/GD32VW55X_Wifi_BLE_SDK/GD32VW55x_RELEASE_V1.0.2/MSDK/wpa_supplicant/src/ap\wpa_auth_ie.c **** 			os_free(sm->rsnxe);
 2937              		.loc 1 1024 6 is_stmt 0
 2938 0646 0DC1     		beq	a0,zero,.L180
1024:C:/Users/stapi/OneDrive/Desktop/GD32VW553/V1_MQTT_OK/GD32VW55X_Wifi_BLE_SDK/GD32VW55x_RELEASE_V1.0.2/MSDK/wpa_supplicant/src/ap\wpa_auth_ie.c **** 			os_free(sm->rsnxe);
 2939              		.loc 1 1024 18 discriminator 1
 2940 0648 83270429 		lw	a5,656(s0)
 2941 064c 63EE5701 		bltu	a5,s5,.L180
 2942              	.L182:
1030:C:/Users/stapi/OneDrive/Desktop/GD32VW553/V1_MQTT_OK/GD32VW55X_Wifi_BLE_SDK/GD32VW55x_RELEASE_V1.0.2/MSDK/wpa_supplicant/src/ap\wpa_auth_ie.c **** 		sm->rsnxe_len = rsnxe_len;
 2943              		.loc 1 1030 3 is_stmt 1
 2944 0650 0325C428 		lw	a0,652(s0)
 2945 0654 5686     		mv	a2,s5
 2946 0656 DE85     		mv	a1,s7
 2947 0658 97000000 		call	os_memcpy
 2947      E7800000 
 2948              	.LVL300:
1031:C:/Users/stapi/OneDrive/Desktop/GD32VW553/V1_MQTT_OK/GD32VW55X_Wifi_BLE_SDK/GD32VW55x_RELEASE_V1.0.2/MSDK/wpa_supplicant/src/ap\wpa_auth_ie.c **** 	} else {
 2949              		.loc 1 1031 3
1031:C:/Users/stapi/OneDrive/Desktop/GD32VW553/V1_MQTT_OK/GD32VW55X_Wifi_BLE_SDK/GD32VW55x_RELEASE_V1.0.2/MSDK/wpa_supplicant/src/ap\wpa_auth_ie.c **** 	} else {
 2950              		.loc 1 1031 17 is_stmt 0
 2951 0660 23285429 		sw	s5,656(s0)
 2952              	.L261:
1038:C:/Users/stapi/OneDrive/Desktop/GD32VW553/V1_MQTT_OK/GD32VW55X_Wifi_BLE_SDK/GD32VW55x_RELEASE_V1.0.2/MSDK/wpa_supplicant/src/ap\wpa_auth_ie.c **** }
 2953              		.loc 1 1038 9
 2954 0664 0145     		li	a0,0
 2955 0666 29B4     		j	.L126
 2956              	.L180:
1025:C:/Users/stapi/OneDrive/Desktop/GD32VW553/V1_MQTT_OK/GD32VW55X_Wifi_BLE_SDK/GD32VW55x_RELEASE_V1.0.2/MSDK/wpa_supplicant/src/ap\wpa_auth_ie.c **** 			sm->rsnxe = os_malloc(rsnxe_len);
 2957              		.loc 1 1025 4 is_stmt 1
 2958 0668 97000000 		call	os_free
 2958      E7800000 
 2959              	.LVL301:
1026:C:/Users/stapi/OneDrive/Desktop/GD32VW553/V1_MQTT_OK/GD32VW55X_Wifi_BLE_SDK/GD32VW55x_RELEASE_V1.0.2/MSDK/wpa_supplicant/src/ap\wpa_auth_ie.c **** 			if (!sm->rsnxe)
 2960              		.loc 1 1026 4
1026:C:/Users/stapi/OneDrive/Desktop/GD32VW553/V1_MQTT_OK/GD32VW55X_Wifi_BLE_SDK/GD32VW55x_RELEASE_V1.0.2/MSDK/wpa_supplicant/src/ap\wpa_auth_ie.c **** 			if (!sm->rsnxe)
 2961              		.loc 1 1026 16 is_stmt 0
 2962 0670 5685     		mv	a0,s5
 2963 0672 97000000 		call	os_malloc
 2963      E7800000 
 2964              	.LVL302:
1026:C:/Users/stapi/OneDrive/Desktop/GD32VW553/V1_MQTT_OK/GD32VW55X_Wifi_BLE_SDK/GD32VW55x_RELEASE_V1.0.2/MSDK/wpa_supplicant/src/ap\wpa_auth_ie.c **** 			if (!sm->rsnxe)
 2965              		.loc 1 1026 14
 2966 067a 2326A428 		sw	a0,652(s0)
1027:C:/Users/stapi/OneDrive/Desktop/GD32VW553/V1_MQTT_OK/GD32VW55X_Wifi_BLE_SDK/GD32VW55x_RELEASE_V1.0.2/MSDK/wpa_supplicant/src/ap\wpa_auth_ie.c **** 				return WPA_ALLOC_FAIL;
 2967              		.loc 1 1027 4 is_stmt 1
1027:C:/Users/stapi/OneDrive/Desktop/GD32VW553/V1_MQTT_OK/GD32VW55X_Wifi_BLE_SDK/GD32VW55x_RELEASE_V1.0.2/MSDK/wpa_supplicant/src/ap\wpa_auth_ie.c **** 				return WPA_ALLOC_FAIL;
 2968              		.loc 1 1027 7 is_stmt 0
 2969 067e 69F9     		bne	a0,zero,.L182
 2970 0680 7DBF     		j	.L181
 2971              	.LVL303:
 2972              	.L183:
 2973              		.cfi_def_cfa_offset 0
 2974              		.cfi_restore 1
 2975              		.cfi_restore 8
 2976              		.cfi_restore 9
 2977              		.cfi_restore 18
 2978              		.cfi_restore 19
 2979              		.cfi_restore 20
 2980              		.cfi_restore 21
 2981              		.cfi_restore 22
 2982              		.cfi_restore 23
 2983              		.cfi_restore 24
 2984              		.cfi_restore 25
 2985              		.cfi_restore 26
 2986              		.cfi_restore 27
 602:C:/Users/stapi/OneDrive/Desktop/GD32VW553/V1_MQTT_OK/GD32VW55X_Wifi_BLE_SDK/GD32VW55x_RELEASE_V1.0.2/MSDK/wpa_supplicant/src/ap\wpa_auth_ie.c **** 
 2987              		.loc 1 602 10
 2988 0682 1545     		li	a0,5
 2989              	.LVL304:
 2990              		.loc 1 1039 1
 2991 0684 8280     		ret
 2992              		.cfi_endproc
 2993              	.LFE144:
 2995              		.section	.text.wpa_auth_uses_mfp,"ax",@progbits
 2996              		.align	1
 2997              		.globl	wpa_auth_uses_mfp
 2999              	wpa_auth_uses_mfp:
 3000              	.LFB145:
1040:C:/Users/stapi/OneDrive/Desktop/GD32VW553/V1_MQTT_OK/GD32VW55X_Wifi_BLE_SDK/GD32VW55x_RELEASE_V1.0.2/MSDK/wpa_supplicant/src/ap\wpa_auth_ie.c **** 
1041:C:/Users/stapi/OneDrive/Desktop/GD32VW553/V1_MQTT_OK/GD32VW55X_Wifi_BLE_SDK/GD32VW55x_RELEASE_V1.0.2/MSDK/wpa_supplicant/src/ap\wpa_auth_ie.c **** 
1042:C:/Users/stapi/OneDrive/Desktop/GD32VW553/V1_MQTT_OK/GD32VW55X_Wifi_BLE_SDK/GD32VW55x_RELEASE_V1.0.2/MSDK/wpa_supplicant/src/ap\wpa_auth_ie.c **** #ifdef CONFIG_HS20
1043:C:/Users/stapi/OneDrive/Desktop/GD32VW553/V1_MQTT_OK/GD32VW55X_Wifi_BLE_SDK/GD32VW55x_RELEASE_V1.0.2/MSDK/wpa_supplicant/src/ap\wpa_auth_ie.c **** int wpa_validate_osen(struct wpa_authenticator *wpa_auth,
1044:C:/Users/stapi/OneDrive/Desktop/GD32VW553/V1_MQTT_OK/GD32VW55X_Wifi_BLE_SDK/GD32VW55x_RELEASE_V1.0.2/MSDK/wpa_supplicant/src/ap\wpa_auth_ie.c **** 		      struct wpa_state_machine *sm,
1045:C:/Users/stapi/OneDrive/Desktop/GD32VW553/V1_MQTT_OK/GD32VW55X_Wifi_BLE_SDK/GD32VW55x_RELEASE_V1.0.2/MSDK/wpa_supplicant/src/ap\wpa_auth_ie.c **** 		      const u8 *osen_ie, size_t osen_ie_len)
1046:C:/Users/stapi/OneDrive/Desktop/GD32VW553/V1_MQTT_OK/GD32VW55X_Wifi_BLE_SDK/GD32VW55x_RELEASE_V1.0.2/MSDK/wpa_supplicant/src/ap\wpa_auth_ie.c **** {
1047:C:/Users/stapi/OneDrive/Desktop/GD32VW553/V1_MQTT_OK/GD32VW55X_Wifi_BLE_SDK/GD32VW55x_RELEASE_V1.0.2/MSDK/wpa_supplicant/src/ap\wpa_auth_ie.c **** 	if (wpa_auth == NULL || sm == NULL)
1048:C:/Users/stapi/OneDrive/Desktop/GD32VW553/V1_MQTT_OK/GD32VW55X_Wifi_BLE_SDK/GD32VW55x_RELEASE_V1.0.2/MSDK/wpa_supplicant/src/ap\wpa_auth_ie.c **** 		return -1;
1049:C:/Users/stapi/OneDrive/Desktop/GD32VW553/V1_MQTT_OK/GD32VW55X_Wifi_BLE_SDK/GD32VW55x_RELEASE_V1.0.2/MSDK/wpa_supplicant/src/ap\wpa_auth_ie.c **** 
1050:C:/Users/stapi/OneDrive/Desktop/GD32VW553/V1_MQTT_OK/GD32VW55X_Wifi_BLE_SDK/GD32VW55x_RELEASE_V1.0.2/MSDK/wpa_supplicant/src/ap\wpa_auth_ie.c **** 	/* TODO: parse OSEN element */
1051:C:/Users/stapi/OneDrive/Desktop/GD32VW553/V1_MQTT_OK/GD32VW55X_Wifi_BLE_SDK/GD32VW55x_RELEASE_V1.0.2/MSDK/wpa_supplicant/src/ap\wpa_auth_ie.c **** 	sm->wpa_key_mgmt = WPA_KEY_MGMT_OSEN;
1052:C:/Users/stapi/OneDrive/Desktop/GD32VW553/V1_MQTT_OK/GD32VW55X_Wifi_BLE_SDK/GD32VW55x_RELEASE_V1.0.2/MSDK/wpa_supplicant/src/ap\wpa_auth_ie.c **** 	sm->mgmt_frame_prot = 1;
1053:C:/Users/stapi/OneDrive/Desktop/GD32VW553/V1_MQTT_OK/GD32VW55X_Wifi_BLE_SDK/GD32VW55x_RELEASE_V1.0.2/MSDK/wpa_supplicant/src/ap\wpa_auth_ie.c **** 	sm->pairwise = WPA_CIPHER_CCMP;
1054:C:/Users/stapi/OneDrive/Desktop/GD32VW553/V1_MQTT_OK/GD32VW55X_Wifi_BLE_SDK/GD32VW55x_RELEASE_V1.0.2/MSDK/wpa_supplicant/src/ap\wpa_auth_ie.c **** 	sm->wpa = WPA_VERSION_WPA2;
1055:C:/Users/stapi/OneDrive/Desktop/GD32VW553/V1_MQTT_OK/GD32VW55X_Wifi_BLE_SDK/GD32VW55x_RELEASE_V1.0.2/MSDK/wpa_supplicant/src/ap\wpa_auth_ie.c **** 
1056:C:/Users/stapi/OneDrive/Desktop/GD32VW553/V1_MQTT_OK/GD32VW55X_Wifi_BLE_SDK/GD32VW55x_RELEASE_V1.0.2/MSDK/wpa_supplicant/src/ap\wpa_auth_ie.c **** 	if (sm->wpa_ie == NULL || sm->wpa_ie_len < osen_ie_len) {
1057:C:/Users/stapi/OneDrive/Desktop/GD32VW553/V1_MQTT_OK/GD32VW55X_Wifi_BLE_SDK/GD32VW55x_RELEASE_V1.0.2/MSDK/wpa_supplicant/src/ap\wpa_auth_ie.c **** 		os_free(sm->wpa_ie);
1058:C:/Users/stapi/OneDrive/Desktop/GD32VW553/V1_MQTT_OK/GD32VW55X_Wifi_BLE_SDK/GD32VW55x_RELEASE_V1.0.2/MSDK/wpa_supplicant/src/ap\wpa_auth_ie.c **** 		sm->wpa_ie = os_malloc(osen_ie_len);
1059:C:/Users/stapi/OneDrive/Desktop/GD32VW553/V1_MQTT_OK/GD32VW55X_Wifi_BLE_SDK/GD32VW55x_RELEASE_V1.0.2/MSDK/wpa_supplicant/src/ap\wpa_auth_ie.c **** 		if (sm->wpa_ie == NULL)
1060:C:/Users/stapi/OneDrive/Desktop/GD32VW553/V1_MQTT_OK/GD32VW55X_Wifi_BLE_SDK/GD32VW55x_RELEASE_V1.0.2/MSDK/wpa_supplicant/src/ap\wpa_auth_ie.c **** 			return -1;
1061:C:/Users/stapi/OneDrive/Desktop/GD32VW553/V1_MQTT_OK/GD32VW55X_Wifi_BLE_SDK/GD32VW55x_RELEASE_V1.0.2/MSDK/wpa_supplicant/src/ap\wpa_auth_ie.c **** 	}
1062:C:/Users/stapi/OneDrive/Desktop/GD32VW553/V1_MQTT_OK/GD32VW55X_Wifi_BLE_SDK/GD32VW55x_RELEASE_V1.0.2/MSDK/wpa_supplicant/src/ap\wpa_auth_ie.c **** 
1063:C:/Users/stapi/OneDrive/Desktop/GD32VW553/V1_MQTT_OK/GD32VW55X_Wifi_BLE_SDK/GD32VW55x_RELEASE_V1.0.2/MSDK/wpa_supplicant/src/ap\wpa_auth_ie.c **** 	os_memcpy(sm->wpa_ie, osen_ie, osen_ie_len);
1064:C:/Users/stapi/OneDrive/Desktop/GD32VW553/V1_MQTT_OK/GD32VW55X_Wifi_BLE_SDK/GD32VW55x_RELEASE_V1.0.2/MSDK/wpa_supplicant/src/ap\wpa_auth_ie.c **** 	sm->wpa_ie_len = osen_ie_len;
1065:C:/Users/stapi/OneDrive/Desktop/GD32VW553/V1_MQTT_OK/GD32VW55X_Wifi_BLE_SDK/GD32VW55x_RELEASE_V1.0.2/MSDK/wpa_supplicant/src/ap\wpa_auth_ie.c **** 
1066:C:/Users/stapi/OneDrive/Desktop/GD32VW553/V1_MQTT_OK/GD32VW55X_Wifi_BLE_SDK/GD32VW55x_RELEASE_V1.0.2/MSDK/wpa_supplicant/src/ap\wpa_auth_ie.c **** 	return 0;
1067:C:/Users/stapi/OneDrive/Desktop/GD32VW553/V1_MQTT_OK/GD32VW55X_Wifi_BLE_SDK/GD32VW55x_RELEASE_V1.0.2/MSDK/wpa_supplicant/src/ap\wpa_auth_ie.c **** }
1068:C:/Users/stapi/OneDrive/Desktop/GD32VW553/V1_MQTT_OK/GD32VW55X_Wifi_BLE_SDK/GD32VW55x_RELEASE_V1.0.2/MSDK/wpa_supplicant/src/ap\wpa_auth_ie.c **** 
1069:C:/Users/stapi/OneDrive/Desktop/GD32VW553/V1_MQTT_OK/GD32VW55X_Wifi_BLE_SDK/GD32VW55x_RELEASE_V1.0.2/MSDK/wpa_supplicant/src/ap\wpa_auth_ie.c **** #endif /* CONFIG_HS20 */
1070:C:/Users/stapi/OneDrive/Desktop/GD32VW553/V1_MQTT_OK/GD32VW55X_Wifi_BLE_SDK/GD32VW55x_RELEASE_V1.0.2/MSDK/wpa_supplicant/src/ap\wpa_auth_ie.c **** 
1071:C:/Users/stapi/OneDrive/Desktop/GD32VW553/V1_MQTT_OK/GD32VW55X_Wifi_BLE_SDK/GD32VW55x_RELEASE_V1.0.2/MSDK/wpa_supplicant/src/ap\wpa_auth_ie.c **** 
1072:C:/Users/stapi/OneDrive/Desktop/GD32VW553/V1_MQTT_OK/GD32VW55X_Wifi_BLE_SDK/GD32VW55x_RELEASE_V1.0.2/MSDK/wpa_supplicant/src/ap\wpa_auth_ie.c **** int wpa_auth_uses_mfp(struct wpa_state_machine *sm)
1073:C:/Users/stapi/OneDrive/Desktop/GD32VW553/V1_MQTT_OK/GD32VW55X_Wifi_BLE_SDK/GD32VW55x_RELEASE_V1.0.2/MSDK/wpa_supplicant/src/ap\wpa_auth_ie.c **** {
 3001              		.loc 1 1073 1 is_stmt 1
 3002              		.cfi_startproc
 3003              	.LVL305:
1074:C:/Users/stapi/OneDrive/Desktop/GD32VW553/V1_MQTT_OK/GD32VW55X_Wifi_BLE_SDK/GD32VW55x_RELEASE_V1.0.2/MSDK/wpa_supplicant/src/ap\wpa_auth_ie.c **** 	return sm ? sm->mgmt_frame_prot : 0;
 3004              		.loc 1 1074 2
 3005              		.loc 1 1074 34 is_stmt 0
 3006 0000 11C5     		beq	a0,zero,.L264
 3007              		.loc 1 1074 16 discriminator 1
 3008 0002 03254527 		lw	a0,628(a0)
 3009              	.LVL306:
 3010              		.loc 1 1074 34 discriminator 1
 3011 0006 13554548 		bexti	a0,a0,4
 3012 000a 8280     		ret
 3013              	.LVL307:
 3014              	.L264:
 3015              		.loc 1 1074 34
 3016 000c 0145     		li	a0,0
 3017              	.LVL308:
1075:C:/Users/stapi/OneDrive/Desktop/GD32VW553/V1_MQTT_OK/GD32VW55X_Wifi_BLE_SDK/GD32VW55x_RELEASE_V1.0.2/MSDK/wpa_supplicant/src/ap\wpa_auth_ie.c **** }
 3018              		.loc 1 1075 1
 3019 000e 8280     		ret
 3020              		.cfi_endproc
 3021              	.LFE145:
 3023              		.text
 3024              	.Letext0:
 3025              		.file 4 "c:\\users\\stapi\\onedrive\\desktop\\gd32vw553\\embeddedbuilder_v1.4.7.26843\\tools\\nucl
 3026              		.file 5 "c:\\users\\stapi\\onedrive\\desktop\\gd32vw553\\embeddedbuilder_v1.4.7.26843\\tools\\nucl
 3027              		.file 6 "c:\\users\\stapi\\onedrive\\desktop\\gd32vw553\\embeddedbuilder_v1.4.7.26843\\tools\\nucl
 3028              		.file 7 "..\\..\\..\\..\\wpa_supplicant\\src/utils/os.h"
 3029              		.file 8 "..\\..\\..\\..\\wpa_supplicant\\src/utils/wpabuf.h"
 3030              		.file 9 "..\\..\\..\\..\\wpa_supplicant\\src/common/wpa_common.h"
 3031              		.file 10 "C:/Users/stapi/OneDrive/Desktop/GD32VW553/V1_MQTT_OK/GD32VW55X_Wifi_BLE_SDK/GD32VW55x_RE
 3032              		.file 11 "C:/Users/stapi/OneDrive/Desktop/GD32VW553/V1_MQTT_OK/GD32VW55X_Wifi_BLE_SDK/GD32VW55x_RE
 3033              		.file 12 "..\\..\\..\\..\\wpa_supplicant\\src/utils/wpa_debug.h"
 3034              		.file 13 "C:/Users/stapi/OneDrive/Desktop/GD32VW553/V1_MQTT_OK/GD32VW55X_Wifi_BLE_SDK/GD32VW55x_RE
 3035              		.file 14 "..\\..\\..\\..\\wpa_supplicant\\src/radius/radius.h"
 3036              		.file 15 "C:/Users/stapi/OneDrive/Desktop/GD32VW553/V1_MQTT_OK/GD32VW55X_Wifi_BLE_SDK/GD32VW55x_RE
DEFINED SYMBOLS
                            *ABS*:0000000000000000 wpa_auth_ie.c
C:\Users\stapi\AppData\Local\Temp\ccmQLYsM.s:12     .text.wpa_auth_okc_iter:0000000000000000 wpa_auth_okc_iter
C:\Users\stapi\AppData\Local\Temp\ccmQLYsM.s:16     .text.wpa_auth_okc_iter:0000000000000000 .L0 
C:\Users\stapi\AppData\Local\Temp\ccmQLYsM.s:18     .text.wpa_auth_okc_iter:0000000000000000 .L0 
C:\Users\stapi\AppData\Local\Temp\ccmQLYsM.s:19     .text.wpa_auth_okc_iter:0000000000000008 .L0 
C:\Users\stapi\AppData\Local\Temp\ccmQLYsM.s:20     .text.wpa_auth_okc_iter:0000000000000008 .L0 
C:\Users\stapi\AppData\Local\Temp\ccmQLYsM.s:21     .text.wpa_auth_okc_iter:0000000000000008 .L0 
C:\Users\stapi\AppData\Local\Temp\ccmQLYsM.s:24     .text.wpa_auth_okc_iter:0000000000000008 .L0 
C:\Users\stapi\AppData\Local\Temp\ccmQLYsM.s:25     .text.wpa_auth_okc_iter:0000000000000008 .L0 
C:\Users\stapi\AppData\Local\Temp\ccmQLYsM.s:26     .text.wpa_auth_okc_iter:0000000000000008 .L0 
C:\Users\stapi\AppData\Local\Temp\ccmQLYsM.s:28     .text.wpa_auth_okc_iter:000000000000000a .L0 
C:\Users\stapi\AppData\Local\Temp\ccmQLYsM.s:37     .text.wpa_auth_okc_iter:000000000000001c .L0 
C:\Users\stapi\AppData\Local\Temp\ccmQLYsM.s:39     .text.wpa_auth_okc_iter:000000000000001e .L0 
C:\Users\stapi\AppData\Local\Temp\ccmQLYsM.s:40     .text.wpa_auth_okc_iter:000000000000001e .L0 
C:\Users\stapi\AppData\Local\Temp\ccmQLYsM.s:42     .text.wpa_auth_okc_iter:000000000000002a .L0 
C:\Users\stapi\AppData\Local\Temp\ccmQLYsM.s:43     .text.wpa_auth_okc_iter:000000000000002a .L0 
C:\Users\stapi\AppData\Local\Temp\ccmQLYsM.s:44     .text.wpa_auth_okc_iter:000000000000002a .L0 
C:\Users\stapi\AppData\Local\Temp\ccmQLYsM.s:45     .text.wpa_auth_okc_iter:000000000000002a .L0 
C:\Users\stapi\AppData\Local\Temp\ccmQLYsM.s:65     .text.wpa_write_rsn_ie:0000000000000000 wpa_write_rsn_ie
C:\Users\stapi\AppData\Local\Temp\ccmQLYsM.s:68     .text.wpa_write_rsn_ie:0000000000000000 .L0 
C:\Users\stapi\AppData\Local\Temp\ccmQLYsM.s:70     .text.wpa_write_rsn_ie:0000000000000000 .L0 
C:\Users\stapi\AppData\Local\Temp\ccmQLYsM.s:71     .text.wpa_write_rsn_ie:0000000000000008 .L0 
C:\Users\stapi\AppData\Local\Temp\ccmQLYsM.s:72     .text.wpa_write_rsn_ie:0000000000000008 .L0 
C:\Users\stapi\AppData\Local\Temp\ccmQLYsM.s:73     .text.wpa_write_rsn_ie:0000000000000008 .L0 
C:\Users\stapi\AppData\Local\Temp\ccmQLYsM.s:74     .text.wpa_write_rsn_ie:0000000000000008 .L0 
C:\Users\stapi\AppData\Local\Temp\ccmQLYsM.s:75     .text.wpa_write_rsn_ie:0000000000000008 .L0 
C:\Users\stapi\AppData\Local\Temp\ccmQLYsM.s:76     .text.wpa_write_rsn_ie:0000000000000008 .L0 
C:\Users\stapi\AppData\Local\Temp\ccmQLYsM.s:77     .text.wpa_write_rsn_ie:0000000000000008 .L0 
C:\Users\stapi\AppData\Local\Temp\ccmQLYsM.s:78     .text.wpa_write_rsn_ie:0000000000000008 .L0 
C:\Users\stapi\AppData\Local\Temp\ccmQLYsM.s:80     .text.wpa_write_rsn_ie:0000000000000008 .L0 
C:\Users\stapi\AppData\Local\Temp\ccmQLYsM.s:81     .text.wpa_write_rsn_ie:0000000000000008 .L0 
C:\Users\stapi\AppData\Local\Temp\ccmQLYsM.s:82     .text.wpa_write_rsn_ie:0000000000000008 .L0 
C:\Users\stapi\AppData\Local\Temp\ccmQLYsM.s:83     .text.wpa_write_rsn_ie:0000000000000008 .L0 
C:\Users\stapi\AppData\Local\Temp\ccmQLYsM.s:85     .text.wpa_write_rsn_ie:0000000000000008 .L0 
C:\Users\stapi\AppData\Local\Temp\ccmQLYsM.s:86     .text.wpa_write_rsn_ie:0000000000000008 .L0 
C:\Users\stapi\AppData\Local\Temp\ccmQLYsM.s:87     .text.wpa_write_rsn_ie:0000000000000008 .L0 
C:\Users\stapi\AppData\Local\Temp\ccmQLYsM.s:92     .text.wpa_write_rsn_ie:000000000000000c .L0 
C:\Users\stapi\AppData\Local\Temp\ccmQLYsM.s:96     .text.wpa_write_rsn_ie:000000000000000e .L0 
C:\Users\stapi\AppData\Local\Temp\ccmQLYsM.s:101    .text.wpa_write_rsn_ie:0000000000000012 .L0 
C:\Users\stapi\AppData\Local\Temp\ccmQLYsM.s:102    .text.wpa_write_rsn_ie:0000000000000012 .L0 
C:\Users\stapi\AppData\Local\Temp\ccmQLYsM.s:103    .text.wpa_write_rsn_ie:0000000000000012 .L0 
C:\Users\stapi\AppData\Local\Temp\ccmQLYsM.s:105    .text.wpa_write_rsn_ie:0000000000000016 .L0 
C:\Users\stapi\AppData\Local\Temp\ccmQLYsM.s:106    .text.wpa_write_rsn_ie:0000000000000016 .L0 
C:\Users\stapi\AppData\Local\Temp\ccmQLYsM.s:111    .text.wpa_write_rsn_ie:000000000000001a .L0 
C:\Users\stapi\AppData\Local\Temp\ccmQLYsM.s:112    .text.wpa_write_rsn_ie:000000000000001a .L0 
C:\Users\stapi\AppData\Local\Temp\ccmQLYsM.s:115    .text.wpa_write_rsn_ie:000000000000001c .L0 
C:\Users\stapi\AppData\Local\Temp\ccmQLYsM.s:116    .text.wpa_write_rsn_ie:000000000000001c .L0 
C:\Users\stapi\AppData\Local\Temp\ccmQLYsM.s:119    .text.wpa_write_rsn_ie:000000000000001e .L0 
C:\Users\stapi\AppData\Local\Temp\ccmQLYsM.s:121    .text.wpa_write_rsn_ie:0000000000000020 .L0 
C:\Users\stapi\AppData\Local\Temp\ccmQLYsM.s:124    .text.wpa_write_rsn_ie:0000000000000022 .L0 
C:\Users\stapi\AppData\Local\Temp\ccmQLYsM.s:127    .text.wpa_write_rsn_ie:0000000000000026 .L0 
C:\Users\stapi\AppData\Local\Temp\ccmQLYsM.s:130    .text.wpa_write_rsn_ie:000000000000002e .L0 
C:\Users\stapi\AppData\Local\Temp\ccmQLYsM.s:131    .text.wpa_write_rsn_ie:000000000000002e .L0 
C:\Users\stapi\AppData\Local\Temp\ccmQLYsM.s:133    .text.wpa_write_rsn_ie:0000000000000030 .L0 
C:\Users\stapi\AppData\Local\Temp\ccmQLYsM.s:139    .text.wpa_write_rsn_ie:000000000000003a .L0 
C:\Users\stapi\AppData\Local\Temp\ccmQLYsM.s:148    .text.wpa_write_rsn_ie:0000000000000046 .L0 
C:\Users\stapi\AppData\Local\Temp\ccmQLYsM.s:149    .text.wpa_write_rsn_ie:0000000000000046 .L0 
C:\Users\stapi\AppData\Local\Temp\ccmQLYsM.s:150    .text.wpa_write_rsn_ie:0000000000000046 .L0 
C:\Users\stapi\AppData\Local\Temp\ccmQLYsM.s:152    .text.wpa_write_rsn_ie:000000000000004a .L0 
C:\Users\stapi\AppData\Local\Temp\ccmQLYsM.s:154    .text.wpa_write_rsn_ie:000000000000004e .L0 
C:\Users\stapi\AppData\Local\Temp\ccmQLYsM.s:155    .text.wpa_write_rsn_ie:000000000000004e .L0 
C:\Users\stapi\AppData\Local\Temp\ccmQLYsM.s:157    .text.wpa_write_rsn_ie:0000000000000052 .L0 
C:\Users\stapi\AppData\Local\Temp\ccmQLYsM.s:159    .text.wpa_write_rsn_ie:0000000000000056 .L0 
C:\Users\stapi\AppData\Local\Temp\ccmQLYsM.s:160    .text.wpa_write_rsn_ie:0000000000000056 .L0 
C:\Users\stapi\AppData\Local\Temp\ccmQLYsM.s:162    .text.wpa_write_rsn_ie:000000000000005a .L0 
C:\Users\stapi\AppData\Local\Temp\ccmQLYsM.s:164    .text.wpa_write_rsn_ie:000000000000005e .L0 
C:\Users\stapi\AppData\Local\Temp\ccmQLYsM.s:169    .text.wpa_write_rsn_ie:0000000000000062 .L0 
C:\Users\stapi\AppData\Local\Temp\ccmQLYsM.s:170    .text.wpa_write_rsn_ie:0000000000000062 .L0 
C:\Users\stapi\AppData\Local\Temp\ccmQLYsM.s:171    .text.wpa_write_rsn_ie:0000000000000062 .L0 
C:\Users\stapi\AppData\Local\Temp\ccmQLYsM.s:172    .text.wpa_write_rsn_ie:0000000000000062 .L0 
C:\Users\stapi\AppData\Local\Temp\ccmQLYsM.s:173    .text.wpa_write_rsn_ie:0000000000000062 .L0 
C:\Users\stapi\AppData\Local\Temp\ccmQLYsM.s:174    .text.wpa_write_rsn_ie:0000000000000062 .L0 
C:\Users\stapi\AppData\Local\Temp\ccmQLYsM.s:176    .text.wpa_write_rsn_ie:0000000000000064 .L0 
C:\Users\stapi\AppData\Local\Temp\ccmQLYsM.s:179    .text.wpa_write_rsn_ie:0000000000000068 .L0 
C:\Users\stapi\AppData\Local\Temp\ccmQLYsM.s:180    .text.wpa_write_rsn_ie:0000000000000068 .L0 
C:\Users\stapi\AppData\Local\Temp\ccmQLYsM.s:186    .text.wpa_write_rsn_ie:0000000000000074 .L0 
C:\Users\stapi\AppData\Local\Temp\ccmQLYsM.s:187    .text.wpa_write_rsn_ie:0000000000000074 .L0 
C:\Users\stapi\AppData\Local\Temp\ccmQLYsM.s:188    .text.wpa_write_rsn_ie:0000000000000074 .L0 
C:\Users\stapi\AppData\Local\Temp\ccmQLYsM.s:191    .text.wpa_write_rsn_ie:0000000000000078 .L0 
C:\Users\stapi\AppData\Local\Temp\ccmQLYsM.s:192    .text.wpa_write_rsn_ie:0000000000000078 .L0 
C:\Users\stapi\AppData\Local\Temp\ccmQLYsM.s:194    .text.wpa_write_rsn_ie:000000000000007a .L0 
C:\Users\stapi\AppData\Local\Temp\ccmQLYsM.s:203    .text.wpa_write_rsn_ie:0000000000000086 .L0 
C:\Users\stapi\AppData\Local\Temp\ccmQLYsM.s:204    .text.wpa_write_rsn_ie:0000000000000086 .L0 
C:\Users\stapi\AppData\Local\Temp\ccmQLYsM.s:205    .text.wpa_write_rsn_ie:0000000000000086 .L0 
C:\Users\stapi\AppData\Local\Temp\ccmQLYsM.s:209    .text.wpa_write_rsn_ie:0000000000000090 .L0 
C:\Users\stapi\AppData\Local\Temp\ccmQLYsM.s:210    .text.wpa_write_rsn_ie:0000000000000090 .L0 
C:\Users\stapi\AppData\Local\Temp\ccmQLYsM.s:215    .text.wpa_write_rsn_ie:0000000000000094 .L0 
C:\Users\stapi\AppData\Local\Temp\ccmQLYsM.s:216    .text.wpa_write_rsn_ie:0000000000000094 .L0 
C:\Users\stapi\AppData\Local\Temp\ccmQLYsM.s:217    .text.wpa_write_rsn_ie:0000000000000094 .L0 
C:\Users\stapi\AppData\Local\Temp\ccmQLYsM.s:218    .text.wpa_write_rsn_ie:0000000000000094 .L0 
C:\Users\stapi\AppData\Local\Temp\ccmQLYsM.s:219    .text.wpa_write_rsn_ie:0000000000000094 .L0 
C:\Users\stapi\AppData\Local\Temp\ccmQLYsM.s:221    .text.wpa_write_rsn_ie:0000000000000096 .L0 
C:\Users\stapi\AppData\Local\Temp\ccmQLYsM.s:224    .text.wpa_write_rsn_ie:000000000000009a .L0 
C:\Users\stapi\AppData\Local\Temp\ccmQLYsM.s:226    .text.wpa_write_rsn_ie:000000000000009c .L0 
C:\Users\stapi\AppData\Local\Temp\ccmQLYsM.s:231    .text.wpa_write_rsn_ie:000000000000009e .L0 
C:\Users\stapi\AppData\Local\Temp\ccmQLYsM.s:232    .text.wpa_write_rsn_ie:000000000000009e .L0 
C:\Users\stapi\AppData\Local\Temp\ccmQLYsM.s:233    .text.wpa_write_rsn_ie:000000000000009e .L0 
C:\Users\stapi\AppData\Local\Temp\ccmQLYsM.s:236    .text.wpa_write_rsn_ie:00000000000000a4 .L0 
C:\Users\stapi\AppData\Local\Temp\ccmQLYsM.s:239    .text.wpa_write_rsn_ie:00000000000000ac .L0 
C:\Users\stapi\AppData\Local\Temp\ccmQLYsM.s:241    .text.wpa_write_rsn_ie:00000000000000b0 .L0 
C:\Users\stapi\AppData\Local\Temp\ccmQLYsM.s:242    .text.wpa_write_rsn_ie:00000000000000b0 .L0 
C:\Users\stapi\AppData\Local\Temp\ccmQLYsM.s:243    .text.wpa_write_rsn_ie:00000000000000b0 .L0 
C:\Users\stapi\AppData\Local\Temp\ccmQLYsM.s:244    .text.wpa_write_rsn_ie:00000000000000b0 .L0 
C:\Users\stapi\AppData\Local\Temp\ccmQLYsM.s:249    .text.wpa_write_rsn_ie:00000000000000b4 .L0 
C:\Users\stapi\AppData\Local\Temp\ccmQLYsM.s:250    .text.wpa_write_rsn_ie:00000000000000b4 .L0 
C:\Users\stapi\AppData\Local\Temp\ccmQLYsM.s:253    .text.wpa_write_rsn_ie:00000000000000b8 .L0 
C:\Users\stapi\AppData\Local\Temp\ccmQLYsM.s:254    .text.wpa_write_rsn_ie:00000000000000b8 .L0 
C:\Users\stapi\AppData\Local\Temp\ccmQLYsM.s:258    .text.wpa_write_rsn_ie:00000000000000ba .L0 
C:\Users\stapi\AppData\Local\Temp\ccmQLYsM.s:259    .text.wpa_write_rsn_ie:00000000000000ba .L0 
C:\Users\stapi\AppData\Local\Temp\ccmQLYsM.s:262    .text.wpa_write_rsn_ie:00000000000000be .L0 
C:\Users\stapi\AppData\Local\Temp\ccmQLYsM.s:267    .text.wpa_write_rsn_ie:00000000000000c0 .L0 
C:\Users\stapi\AppData\Local\Temp\ccmQLYsM.s:268    .text.wpa_write_rsn_ie:00000000000000c0 .L0 
C:\Users\stapi\AppData\Local\Temp\ccmQLYsM.s:269    .text.wpa_write_rsn_ie:00000000000000c0 .L0 
C:\Users\stapi\AppData\Local\Temp\ccmQLYsM.s:272    .text.wpa_write_rsn_ie:00000000000000c6 .L0 
C:\Users\stapi\AppData\Local\Temp\ccmQLYsM.s:275    .text.wpa_write_rsn_ie:00000000000000ce .L0 
C:\Users\stapi\AppData\Local\Temp\ccmQLYsM.s:277    .text.wpa_write_rsn_ie:00000000000000d0 .L0 
C:\Users\stapi\AppData\Local\Temp\ccmQLYsM.s:279    .text.wpa_write_rsn_ie:00000000000000d4 .L0 
C:\Users\stapi\AppData\Local\Temp\ccmQLYsM.s:280    .text.wpa_write_rsn_ie:00000000000000d4 .L0 
C:\Users\stapi\AppData\Local\Temp\ccmQLYsM.s:281    .text.wpa_write_rsn_ie:00000000000000d4 .L0 
C:\Users\stapi\AppData\Local\Temp\ccmQLYsM.s:282    .text.wpa_write_rsn_ie:00000000000000d4 .L0 
C:\Users\stapi\AppData\Local\Temp\ccmQLYsM.s:287    .text.wpa_write_rsn_ie:00000000000000d8 .L0 
C:\Users\stapi\AppData\Local\Temp\ccmQLYsM.s:288    .text.wpa_write_rsn_ie:00000000000000d8 .L0 
C:\Users\stapi\AppData\Local\Temp\ccmQLYsM.s:291    .text.wpa_write_rsn_ie:00000000000000da .L0 
C:\Users\stapi\AppData\Local\Temp\ccmQLYsM.s:295    .text.wpa_write_rsn_ie:00000000000000dc .L0 
C:\Users\stapi\AppData\Local\Temp\ccmQLYsM.s:296    .text.wpa_write_rsn_ie:00000000000000dc .L0 
C:\Users\stapi\AppData\Local\Temp\ccmQLYsM.s:297    .text.wpa_write_rsn_ie:00000000000000dc .L0 
C:\Users\stapi\AppData\Local\Temp\ccmQLYsM.s:300    .text.wpa_write_rsn_ie:00000000000000e2 .L0 
C:\Users\stapi\AppData\Local\Temp\ccmQLYsM.s:305    .text.wpa_write_rsn_ie:00000000000000e4 .L0 
C:\Users\stapi\AppData\Local\Temp\ccmQLYsM.s:306    .text.wpa_write_rsn_ie:00000000000000e4 .L0 
C:\Users\stapi\AppData\Local\Temp\ccmQLYsM.s:307    .text.wpa_write_rsn_ie:00000000000000e4 .L0 
C:\Users\stapi\AppData\Local\Temp\ccmQLYsM.s:310    .text.wpa_write_rsn_ie:00000000000000ea .L0 
C:\Users\stapi\AppData\Local\Temp\ccmQLYsM.s:313    .text.wpa_write_rsn_ie:00000000000000f2 .L0 
C:\Users\stapi\AppData\Local\Temp\ccmQLYsM.s:315    .text.wpa_write_rsn_ie:00000000000000f4 .L0 
C:\Users\stapi\AppData\Local\Temp\ccmQLYsM.s:317    .text.wpa_write_rsn_ie:00000000000000f8 .L0 
C:\Users\stapi\AppData\Local\Temp\ccmQLYsM.s:318    .text.wpa_write_rsn_ie:00000000000000f8 .L0 
C:\Users\stapi\AppData\Local\Temp\ccmQLYsM.s:319    .text.wpa_write_rsn_ie:00000000000000f8 .L0 
C:\Users\stapi\AppData\Local\Temp\ccmQLYsM.s:320    .text.wpa_write_rsn_ie:00000000000000f8 .L0 
C:\Users\stapi\AppData\Local\Temp\ccmQLYsM.s:325    .text.wpa_write_rsn_ie:00000000000000fc .L0 
C:\Users\stapi\AppData\Local\Temp\ccmQLYsM.s:326    .text.wpa_write_rsn_ie:00000000000000fc .L0 
C:\Users\stapi\AppData\Local\Temp\ccmQLYsM.s:329    .text.wpa_write_rsn_ie:00000000000000fe .L0 
C:\Users\stapi\AppData\Local\Temp\ccmQLYsM.s:333    .text.wpa_write_rsn_ie:0000000000000100 .L0 
C:\Users\stapi\AppData\Local\Temp\ccmQLYsM.s:334    .text.wpa_write_rsn_ie:0000000000000100 .L0 
C:\Users\stapi\AppData\Local\Temp\ccmQLYsM.s:335    .text.wpa_write_rsn_ie:0000000000000100 .L0 
C:\Users\stapi\AppData\Local\Temp\ccmQLYsM.s:338    .text.wpa_write_rsn_ie:0000000000000106 .L0 
C:\Users\stapi\AppData\Local\Temp\ccmQLYsM.s:343    .text.wpa_write_rsn_ie:0000000000000108 .L0 
C:\Users\stapi\AppData\Local\Temp\ccmQLYsM.s:344    .text.wpa_write_rsn_ie:0000000000000108 .L0 
C:\Users\stapi\AppData\Local\Temp\ccmQLYsM.s:345    .text.wpa_write_rsn_ie:0000000000000108 .L0 
C:\Users\stapi\AppData\Local\Temp\ccmQLYsM.s:348    .text.wpa_write_rsn_ie:000000000000010e .L0 
C:\Users\stapi\AppData\Local\Temp\ccmQLYsM.s:351    .text.wpa_write_rsn_ie:0000000000000116 .L0 
C:\Users\stapi\AppData\Local\Temp\ccmQLYsM.s:353    .text.wpa_write_rsn_ie:0000000000000118 .L0 
C:\Users\stapi\AppData\Local\Temp\ccmQLYsM.s:355    .text.wpa_write_rsn_ie:000000000000011c .L0 
C:\Users\stapi\AppData\Local\Temp\ccmQLYsM.s:356    .text.wpa_write_rsn_ie:000000000000011c .L0 
C:\Users\stapi\AppData\Local\Temp\ccmQLYsM.s:357    .text.wpa_write_rsn_ie:000000000000011c .L0 
C:\Users\stapi\AppData\Local\Temp\ccmQLYsM.s:358    .text.wpa_write_rsn_ie:000000000000011c .L0 
C:\Users\stapi\AppData\Local\Temp\ccmQLYsM.s:363    .text.wpa_write_rsn_ie:0000000000000120 .L0 
C:\Users\stapi\AppData\Local\Temp\ccmQLYsM.s:364    .text.wpa_write_rsn_ie:0000000000000120 .L0 
C:\Users\stapi\AppData\Local\Temp\ccmQLYsM.s:367    .text.wpa_write_rsn_ie:0000000000000122 .L0 
C:\Users\stapi\AppData\Local\Temp\ccmQLYsM.s:371    .text.wpa_write_rsn_ie:0000000000000124 .L0 
C:\Users\stapi\AppData\Local\Temp\ccmQLYsM.s:372    .text.wpa_write_rsn_ie:0000000000000124 .L0 
C:\Users\stapi\AppData\Local\Temp\ccmQLYsM.s:373    .text.wpa_write_rsn_ie:0000000000000124 .L0 
C:\Users\stapi\AppData\Local\Temp\ccmQLYsM.s:376    .text.wpa_write_rsn_ie:000000000000012a .L0 
C:\Users\stapi\AppData\Local\Temp\ccmQLYsM.s:381    .text.wpa_write_rsn_ie:000000000000012c .L0 
C:\Users\stapi\AppData\Local\Temp\ccmQLYsM.s:382    .text.wpa_write_rsn_ie:000000000000012c .L0 
C:\Users\stapi\AppData\Local\Temp\ccmQLYsM.s:383    .text.wpa_write_rsn_ie:000000000000012c .L0 
C:\Users\stapi\AppData\Local\Temp\ccmQLYsM.s:386    .text.wpa_write_rsn_ie:0000000000000132 .L0 
C:\Users\stapi\AppData\Local\Temp\ccmQLYsM.s:389    .text.wpa_write_rsn_ie:000000000000013a .L0 
C:\Users\stapi\AppData\Local\Temp\ccmQLYsM.s:391    .text.wpa_write_rsn_ie:000000000000013c .L0 
C:\Users\stapi\AppData\Local\Temp\ccmQLYsM.s:393    .text.wpa_write_rsn_ie:0000000000000140 .L0 
C:\Users\stapi\AppData\Local\Temp\ccmQLYsM.s:394    .text.wpa_write_rsn_ie:0000000000000140 .L0 
C:\Users\stapi\AppData\Local\Temp\ccmQLYsM.s:395    .text.wpa_write_rsn_ie:0000000000000140 .L0 
C:\Users\stapi\AppData\Local\Temp\ccmQLYsM.s:396    .text.wpa_write_rsn_ie:0000000000000140 .L0 
C:\Users\stapi\AppData\Local\Temp\ccmQLYsM.s:401    .text.wpa_write_rsn_ie:0000000000000144 .L0 
C:\Users\stapi\AppData\Local\Temp\ccmQLYsM.s:402    .text.wpa_write_rsn_ie:0000000000000144 .L0 
C:\Users\stapi\AppData\Local\Temp\ccmQLYsM.s:405    .text.wpa_write_rsn_ie:0000000000000146 .L0 
C:\Users\stapi\AppData\Local\Temp\ccmQLYsM.s:409    .text.wpa_write_rsn_ie:0000000000000148 .L0 
C:\Users\stapi\AppData\Local\Temp\ccmQLYsM.s:410    .text.wpa_write_rsn_ie:0000000000000148 .L0 
C:\Users\stapi\AppData\Local\Temp\ccmQLYsM.s:411    .text.wpa_write_rsn_ie:0000000000000148 .L0 
C:\Users\stapi\AppData\Local\Temp\ccmQLYsM.s:414    .text.wpa_write_rsn_ie:000000000000014e .L0 
C:\Users\stapi\AppData\Local\Temp\ccmQLYsM.s:419    .text.wpa_write_rsn_ie:0000000000000150 .L0 
C:\Users\stapi\AppData\Local\Temp\ccmQLYsM.s:420    .text.wpa_write_rsn_ie:0000000000000150 .L0 
C:\Users\stapi\AppData\Local\Temp\ccmQLYsM.s:421    .text.wpa_write_rsn_ie:0000000000000150 .L0 
C:\Users\stapi\AppData\Local\Temp\ccmQLYsM.s:424    .text.wpa_write_rsn_ie:0000000000000156 .L0 
C:\Users\stapi\AppData\Local\Temp\ccmQLYsM.s:427    .text.wpa_write_rsn_ie:000000000000015e .L0 
C:\Users\stapi\AppData\Local\Temp\ccmQLYsM.s:429    .text.wpa_write_rsn_ie:0000000000000160 .L0 
C:\Users\stapi\AppData\Local\Temp\ccmQLYsM.s:431    .text.wpa_write_rsn_ie:0000000000000164 .L0 
C:\Users\stapi\AppData\Local\Temp\ccmQLYsM.s:432    .text.wpa_write_rsn_ie:0000000000000164 .L0 
C:\Users\stapi\AppData\Local\Temp\ccmQLYsM.s:433    .text.wpa_write_rsn_ie:0000000000000164 .L0 
C:\Users\stapi\AppData\Local\Temp\ccmQLYsM.s:434    .text.wpa_write_rsn_ie:0000000000000164 .L0 
C:\Users\stapi\AppData\Local\Temp\ccmQLYsM.s:439    .text.wpa_write_rsn_ie:0000000000000168 .L0 
C:\Users\stapi\AppData\Local\Temp\ccmQLYsM.s:440    .text.wpa_write_rsn_ie:0000000000000168 .L0 
C:\Users\stapi\AppData\Local\Temp\ccmQLYsM.s:443    .text.wpa_write_rsn_ie:000000000000016a .L0 
C:\Users\stapi\AppData\Local\Temp\ccmQLYsM.s:447    .text.wpa_write_rsn_ie:000000000000016c .L0 
C:\Users\stapi\AppData\Local\Temp\ccmQLYsM.s:448    .text.wpa_write_rsn_ie:000000000000016c .L0 
C:\Users\stapi\AppData\Local\Temp\ccmQLYsM.s:449    .text.wpa_write_rsn_ie:000000000000016c .L0 
C:\Users\stapi\AppData\Local\Temp\ccmQLYsM.s:453    .text.wpa_write_rsn_ie:0000000000000172 .L0 
C:\Users\stapi\AppData\Local\Temp\ccmQLYsM.s:458    .text.wpa_write_rsn_ie:0000000000000174 .L0 
C:\Users\stapi\AppData\Local\Temp\ccmQLYsM.s:459    .text.wpa_write_rsn_ie:0000000000000174 .L0 
C:\Users\stapi\AppData\Local\Temp\ccmQLYsM.s:460    .text.wpa_write_rsn_ie:0000000000000174 .L0 
C:\Users\stapi\AppData\Local\Temp\ccmQLYsM.s:463    .text.wpa_write_rsn_ie:000000000000017a .L0 
C:\Users\stapi\AppData\Local\Temp\ccmQLYsM.s:466    .text.wpa_write_rsn_ie:0000000000000182 .L0 
C:\Users\stapi\AppData\Local\Temp\ccmQLYsM.s:468    .text.wpa_write_rsn_ie:0000000000000184 .L0 
C:\Users\stapi\AppData\Local\Temp\ccmQLYsM.s:470    .text.wpa_write_rsn_ie:0000000000000188 .L0 
C:\Users\stapi\AppData\Local\Temp\ccmQLYsM.s:471    .text.wpa_write_rsn_ie:0000000000000188 .L0 
C:\Users\stapi\AppData\Local\Temp\ccmQLYsM.s:472    .text.wpa_write_rsn_ie:0000000000000188 .L0 
C:\Users\stapi\AppData\Local\Temp\ccmQLYsM.s:473    .text.wpa_write_rsn_ie:0000000000000188 .L0 
C:\Users\stapi\AppData\Local\Temp\ccmQLYsM.s:478    .text.wpa_write_rsn_ie:000000000000018c .L0 
C:\Users\stapi\AppData\Local\Temp\ccmQLYsM.s:479    .text.wpa_write_rsn_ie:000000000000018c .L0 
C:\Users\stapi\AppData\Local\Temp\ccmQLYsM.s:482    .text.wpa_write_rsn_ie:000000000000018e .L0 
C:\Users\stapi\AppData\Local\Temp\ccmQLYsM.s:486    .text.wpa_write_rsn_ie:0000000000000190 .L0 
C:\Users\stapi\AppData\Local\Temp\ccmQLYsM.s:487    .text.wpa_write_rsn_ie:0000000000000190 .L0 
C:\Users\stapi\AppData\Local\Temp\ccmQLYsM.s:488    .text.wpa_write_rsn_ie:0000000000000190 .L0 
C:\Users\stapi\AppData\Local\Temp\ccmQLYsM.s:490    .text.wpa_write_rsn_ie:0000000000000192 .L0 
C:\Users\stapi\AppData\Local\Temp\ccmQLYsM.s:493    .text.wpa_write_rsn_ie:0000000000000198 .L0 
C:\Users\stapi\AppData\Local\Temp\ccmQLYsM.s:498    .text.wpa_write_rsn_ie:000000000000019a .L0 
C:\Users\stapi\AppData\Local\Temp\ccmQLYsM.s:499    .text.wpa_write_rsn_ie:000000000000019a .L0 
C:\Users\stapi\AppData\Local\Temp\ccmQLYsM.s:500    .text.wpa_write_rsn_ie:000000000000019a .L0 
C:\Users\stapi\AppData\Local\Temp\ccmQLYsM.s:503    .text.wpa_write_rsn_ie:00000000000001a0 .L0 
C:\Users\stapi\AppData\Local\Temp\ccmQLYsM.s:506    .text.wpa_write_rsn_ie:00000000000001a8 .L0 
C:\Users\stapi\AppData\Local\Temp\ccmQLYsM.s:508    .text.wpa_write_rsn_ie:00000000000001aa .L0 
C:\Users\stapi\AppData\Local\Temp\ccmQLYsM.s:510    .text.wpa_write_rsn_ie:00000000000001ae .L0 
C:\Users\stapi\AppData\Local\Temp\ccmQLYsM.s:511    .text.wpa_write_rsn_ie:00000000000001ae .L0 
C:\Users\stapi\AppData\Local\Temp\ccmQLYsM.s:512    .text.wpa_write_rsn_ie:00000000000001ae .L0 
C:\Users\stapi\AppData\Local\Temp\ccmQLYsM.s:513    .text.wpa_write_rsn_ie:00000000000001ae .L0 
C:\Users\stapi\AppData\Local\Temp\ccmQLYsM.s:518    .text.wpa_write_rsn_ie:00000000000001b2 .L0 
C:\Users\stapi\AppData\Local\Temp\ccmQLYsM.s:519    .text.wpa_write_rsn_ie:00000000000001b2 .L0 
C:\Users\stapi\AppData\Local\Temp\ccmQLYsM.s:522    .text.wpa_write_rsn_ie:00000000000001b4 .L0 
C:\Users\stapi\AppData\Local\Temp\ccmQLYsM.s:525    .text.wpa_write_rsn_ie:00000000000001b6 .L0 
C:\Users\stapi\AppData\Local\Temp\ccmQLYsM.s:527    .text.wpa_write_rsn_ie:00000000000001b6 .L0 
C:\Users\stapi\AppData\Local\Temp\ccmQLYsM.s:530    .text.wpa_write_rsn_ie:00000000000001b6 .L0 
C:\Users\stapi\AppData\Local\Temp\ccmQLYsM.s:531    .text.wpa_write_rsn_ie:00000000000001b6 .L0 
C:\Users\stapi\AppData\Local\Temp\ccmQLYsM.s:532    .text.wpa_write_rsn_ie:00000000000001b6 .L0 
C:\Users\stapi\AppData\Local\Temp\ccmQLYsM.s:534    .text.wpa_write_rsn_ie:00000000000001ba .L0 
C:\Users\stapi\AppData\Local\Temp\ccmQLYsM.s:535    .text.wpa_write_rsn_ie:00000000000001ba .L0 
C:\Users\stapi\AppData\Local\Temp\ccmQLYsM.s:542    .text.wpa_write_rsn_ie:00000000000001be .L0 
C:\Users\stapi\AppData\Local\Temp\ccmQLYsM.s:543    .text.wpa_write_rsn_ie:00000000000001be .L0 
C:\Users\stapi\AppData\Local\Temp\ccmQLYsM.s:544    .text.wpa_write_rsn_ie:00000000000001be .L0 
C:\Users\stapi\AppData\Local\Temp\ccmQLYsM.s:545    .text.wpa_write_rsn_ie:00000000000001be .L0 
C:\Users\stapi\AppData\Local\Temp\ccmQLYsM.s:548    .text.wpa_write_rsn_ie:00000000000001c0 .L0 
C:\Users\stapi\AppData\Local\Temp\ccmQLYsM.s:551    .text.wpa_write_rsn_ie:00000000000001c2 .L0 
C:\Users\stapi\AppData\Local\Temp\ccmQLYsM.s:554    .text.wpa_write_rsn_ie:00000000000001c6 .L0 
C:\Users\stapi\AppData\Local\Temp\ccmQLYsM.s:555    .text.wpa_write_rsn_ie:00000000000001c6 .L0 
C:\Users\stapi\AppData\Local\Temp\ccmQLYsM.s:557    .text.wpa_write_rsn_ie:00000000000001c8 .L0 
C:\Users\stapi\AppData\Local\Temp\ccmQLYsM.s:558    .text.wpa_write_rsn_ie:00000000000001c8 .L0 
C:\Users\stapi\AppData\Local\Temp\ccmQLYsM.s:562    .text.wpa_write_rsn_ie:00000000000001cc .L0 
C:\Users\stapi\AppData\Local\Temp\ccmQLYsM.s:563    .text.wpa_write_rsn_ie:00000000000001cc .L0 
C:\Users\stapi\AppData\Local\Temp\ccmQLYsM.s:565    .text.wpa_write_rsn_ie:00000000000001ce .L0 
C:\Users\stapi\AppData\Local\Temp\ccmQLYsM.s:568    .text.wpa_write_rsn_ie:00000000000001d0 .L0 
C:\Users\stapi\AppData\Local\Temp\ccmQLYsM.s:569    .text.wpa_write_rsn_ie:00000000000001d0 .L0 
C:\Users\stapi\AppData\Local\Temp\ccmQLYsM.s:570    .text.wpa_write_rsn_ie:00000000000001d0 .L0 
C:\Users\stapi\AppData\Local\Temp\ccmQLYsM.s:573    .text.wpa_write_rsn_ie:00000000000001d6 .L0 
C:\Users\stapi\AppData\Local\Temp\ccmQLYsM.s:577    .text.wpa_write_rsn_ie:00000000000001da .L0 
C:\Users\stapi\AppData\Local\Temp\ccmQLYsM.s:578    .text.wpa_write_rsn_ie:00000000000001da .L0 
C:\Users\stapi\AppData\Local\Temp\ccmQLYsM.s:581    .text.wpa_write_rsn_ie:00000000000001de .L0 
C:\Users\stapi\AppData\Local\Temp\ccmQLYsM.s:582    .text.wpa_write_rsn_ie:00000000000001de .L0 
C:\Users\stapi\AppData\Local\Temp\ccmQLYsM.s:590    .text.wpa_write_rsn_ie:00000000000001e2 .L0 
C:\Users\stapi\AppData\Local\Temp\ccmQLYsM.s:591    .text.wpa_write_rsn_ie:00000000000001e2 .L0 
C:\Users\stapi\AppData\Local\Temp\ccmQLYsM.s:592    .text.wpa_write_rsn_ie:00000000000001e2 .L0 
C:\Users\stapi\AppData\Local\Temp\ccmQLYsM.s:594    .text.wpa_write_rsn_ie:00000000000001e6 .L0 
C:\Users\stapi\AppData\Local\Temp\ccmQLYsM.s:596    .text.wpa_write_rsn_ie:00000000000001ea .L0 
C:\Users\stapi\AppData\Local\Temp\ccmQLYsM.s:601    .text.wpa_write_rsn_ie:00000000000001ee .L0 
C:\Users\stapi\AppData\Local\Temp\ccmQLYsM.s:602    .text.wpa_write_rsn_ie:00000000000001ee .L0 
C:\Users\stapi\AppData\Local\Temp\ccmQLYsM.s:603    .text.wpa_write_rsn_ie:00000000000001ee .L0 
C:\Users\stapi\AppData\Local\Temp\ccmQLYsM.s:606    .text.wpa_write_rsn_ie:00000000000001f2 .L0 
C:\Users\stapi\AppData\Local\Temp\ccmQLYsM.s:607    .text.wpa_write_rsn_ie:00000000000001f2 .L0 
C:\Users\stapi\AppData\Local\Temp\ccmQLYsM.s:609    .text.wpa_write_rsn_ie:00000000000001f6 .L0 
C:\Users\stapi\AppData\Local\Temp\ccmQLYsM.s:610    .text.wpa_write_rsn_ie:00000000000001f6 .L0 
C:\Users\stapi\AppData\Local\Temp\ccmQLYsM.s:613    .text.wpa_write_rsn_ie:00000000000001fa .L0 
C:\Users\stapi\AppData\Local\Temp\ccmQLYsM.s:616    .text.wpa_write_rsn_ie:00000000000001fe .L0 
C:\Users\stapi\AppData\Local\Temp\ccmQLYsM.s:621    .text.wpa_write_rsn_ie:0000000000000204 .L0 
C:\Users\stapi\AppData\Local\Temp\ccmQLYsM.s:622    .text.wpa_write_rsn_ie:0000000000000204 .L0 
C:\Users\stapi\AppData\Local\Temp\ccmQLYsM.s:625    .text.wpa_write_rsn_ie:0000000000000206 .L0 
C:\Users\stapi\AppData\Local\Temp\ccmQLYsM.s:626    .text.wpa_write_rsn_ie:000000000000020e .L0 
C:\Users\stapi\AppData\Local\Temp\ccmQLYsM.s:627    .text.wpa_write_rsn_ie:000000000000020e .L0 
C:\Users\stapi\AppData\Local\Temp\ccmQLYsM.s:628    .text.wpa_write_rsn_ie:000000000000020e .L0 
C:\Users\stapi\AppData\Local\Temp\ccmQLYsM.s:629    .text.wpa_write_rsn_ie:000000000000020e .L0 
C:\Users\stapi\AppData\Local\Temp\ccmQLYsM.s:630    .text.wpa_write_rsn_ie:000000000000020e .L0 
C:\Users\stapi\AppData\Local\Temp\ccmQLYsM.s:631    .text.wpa_write_rsn_ie:000000000000020e .L0 
C:\Users\stapi\AppData\Local\Temp\ccmQLYsM.s:632    .text.wpa_write_rsn_ie:000000000000020e .L0 
C:\Users\stapi\AppData\Local\Temp\ccmQLYsM.s:633    .text.wpa_write_rsn_ie:000000000000020e .L0 
C:\Users\stapi\AppData\Local\Temp\ccmQLYsM.s:634    .text.wpa_write_rsn_ie:000000000000020e .L0 
C:\Users\stapi\AppData\Local\Temp\ccmQLYsM.s:637    .text.wpa_write_rsn_ie:000000000000020e .L0 
C:\Users\stapi\AppData\Local\Temp\ccmQLYsM.s:639    .text.wpa_write_rsn_ie:000000000000020e .L0 
C:\Users\stapi\AppData\Local\Temp\ccmQLYsM.s:640    .text.wpa_write_rsn_ie:000000000000020e .L0 
C:\Users\stapi\AppData\Local\Temp\ccmQLYsM.s:642    .text.wpa_write_rsn_ie:0000000000000210 .L0 
C:\Users\stapi\AppData\Local\Temp\ccmQLYsM.s:650    .text.wpa_write_rsn_ie:000000000000021a .L0 
C:\Users\stapi\AppData\Local\Temp\ccmQLYsM.s:651    .text.wpa_write_rsn_ie:000000000000021a .L0 
C:\Users\stapi\AppData\Local\Temp\ccmQLYsM.s:661    .text.wpa_write_rsn_ie:0000000000000220 .L0 
C:\Users\stapi\AppData\Local\Temp\ccmQLYsM.s:662    .text.wpa_write_rsn_ie:0000000000000220 .L0 
C:\Users\stapi\AppData\Local\Temp\ccmQLYsM.s:663    .text.wpa_write_rsn_ie:0000000000000220 .L0 
C:\Users\stapi\AppData\Local\Temp\ccmQLYsM.s:666    .text.wpa_write_rsn_ie:0000000000000226 .L0 
C:\Users\stapi\AppData\Local\Temp\ccmQLYsM.s:671    .text.wpa_write_rsn_ie:000000000000022a .L0 
C:\Users\stapi\AppData\Local\Temp\ccmQLYsM.s:672    .text.wpa_write_rsn_ie:000000000000022a .L0 
C:\Users\stapi\AppData\Local\Temp\ccmQLYsM.s:673    .text.wpa_write_rsn_ie:000000000000022a .L0 
C:\Users\stapi\AppData\Local\Temp\ccmQLYsM.s:680    .text.wpa_write_rsn_ie:000000000000023a .L0 
C:\Users\stapi\AppData\Local\Temp\ccmQLYsM.s:681    .text.wpa_write_rsn_ie:000000000000023a .L0 
C:\Users\stapi\AppData\Local\Temp\ccmQLYsM.s:685    .text.wpa_write_rsn_ie:000000000000023e .L0 
C:\Users\stapi\AppData\Local\Temp\ccmQLYsM.s:686    .text.wpa_write_rsn_ie:000000000000023e .L0 
C:\Users\stapi\AppData\Local\Temp\ccmQLYsM.s:689    .text.wpa_write_rsn_ie:0000000000000242 .L0 
C:\Users\stapi\AppData\Local\Temp\ccmQLYsM.s:693    .text.wpa_write_rsn_ie:000000000000024c .L0 
C:\Users\stapi\AppData\Local\Temp\ccmQLYsM.s:694    .text.wpa_write_rsn_ie:000000000000024c .L0 
C:\Users\stapi\AppData\Local\Temp\ccmQLYsM.s:697    .text.wpa_write_rsn_ie:000000000000024e .L0 
C:\Users\stapi\AppData\Local\Temp\ccmQLYsM.s:699    .text.wpa_write_rsn_ie:0000000000000252 .L0 
C:\Users\stapi\AppData\Local\Temp\ccmQLYsM.s:702    .text.wpa_write_rsn_ie:0000000000000258 .L0 
C:\Users\stapi\AppData\Local\Temp\ccmQLYsM.s:703    .text.wpa_write_rsn_ie:0000000000000258 .L0 
C:\Users\stapi\AppData\Local\Temp\ccmQLYsM.s:708    .text.wpa_write_rsn_ie:000000000000025c .L0 
C:\Users\stapi\AppData\Local\Temp\ccmQLYsM.s:709    .text.wpa_write_rsn_ie:000000000000025c .L0 
C:\Users\stapi\AppData\Local\Temp\ccmQLYsM.s:710    .text.wpa_write_rsn_ie:000000000000025c .L0 
C:\Users\stapi\AppData\Local\Temp\ccmQLYsM.s:712    .text.wpa_write_rsn_ie:0000000000000260 .L0 
C:\Users\stapi\AppData\Local\Temp\ccmQLYsM.s:713    .text.wpa_write_rsn_ie:0000000000000260 .L0 
C:\Users\stapi\AppData\Local\Temp\ccmQLYsM.s:718    .text.wpa_write_rsn_ie:0000000000000264 .L0 
C:\Users\stapi\AppData\Local\Temp\ccmQLYsM.s:719    .text.wpa_write_rsn_ie:0000000000000264 .L0 
C:\Users\stapi\AppData\Local\Temp\ccmQLYsM.s:723    .text.wpa_write_rsn_ie:0000000000000266 .L0 
C:\Users\stapi\AppData\Local\Temp\ccmQLYsM.s:724    .text.wpa_write_rsn_ie:0000000000000266 .L0 
C:\Users\stapi\AppData\Local\Temp\ccmQLYsM.s:726    .text.wpa_write_rsn_ie:0000000000000268 .L0 
C:\Users\stapi\AppData\Local\Temp\ccmQLYsM.s:735    .text.wpa_write_rsn_ie:0000000000000280 .L0 
C:\Users\stapi\AppData\Local\Temp\ccmQLYsM.s:740    .text.wpa_write_rsn_ie:000000000000028a .L0 
C:\Users\stapi\AppData\Local\Temp\ccmQLYsM.s:746    .text.wpa_write_rsn_ie:0000000000000290 .L0 
C:\Users\stapi\AppData\Local\Temp\ccmQLYsM.s:747    .text.wpa_write_rsn_ie:0000000000000290 .L0 
C:\Users\stapi\AppData\Local\Temp\ccmQLYsM.s:748    .text.wpa_write_rsn_ie:0000000000000290 .L0 
C:\Users\stapi\AppData\Local\Temp\ccmQLYsM.s:751    .text.wpa_write_rsn_ie:0000000000000296 .L0 
C:\Users\stapi\AppData\Local\Temp\ccmQLYsM.s:754    .text.wpa_write_rsn_ie:000000000000029e .L0 
C:\Users\stapi\AppData\Local\Temp\ccmQLYsM.s:756    .text.wpa_write_rsn_ie:00000000000002a2 .L0 
C:\Users\stapi\AppData\Local\Temp\ccmQLYsM.s:757    .text.wpa_write_rsn_ie:00000000000002a2 .L0 
C:\Users\stapi\AppData\Local\Temp\ccmQLYsM.s:758    .text.wpa_write_rsn_ie:00000000000002a2 .L0 
C:\Users\stapi\AppData\Local\Temp\ccmQLYsM.s:759    .text.wpa_write_rsn_ie:00000000000002a2 .L0 
C:\Users\stapi\AppData\Local\Temp\ccmQLYsM.s:768    .text.wpa_write_rsn_ie:00000000000002a6 .L0 
C:\Users\stapi\AppData\Local\Temp\ccmQLYsM.s:769    .text.wpa_write_rsn_ie:00000000000002a6 .L0 
C:\Users\stapi\AppData\Local\Temp\ccmQLYsM.s:770    .text.wpa_write_rsn_ie:00000000000002a6 .L0 
C:\Users\stapi\AppData\Local\Temp\ccmQLYsM.s:773    .text.wpa_write_rsn_ie:00000000000002ac .L0 
C:\Users\stapi\AppData\Local\Temp\ccmQLYsM.s:776    .text.wpa_write_rsn_ie:00000000000002b4 .L0 
C:\Users\stapi\AppData\Local\Temp\ccmQLYsM.s:778    .text.wpa_write_rsn_ie:00000000000002b8 .L0 
C:\Users\stapi\AppData\Local\Temp\ccmQLYsM.s:779    .text.wpa_write_rsn_ie:00000000000002b8 .L0 
C:\Users\stapi\AppData\Local\Temp\ccmQLYsM.s:780    .text.wpa_write_rsn_ie:00000000000002b8 .L0 
C:\Users\stapi\AppData\Local\Temp\ccmQLYsM.s:781    .text.wpa_write_rsn_ie:00000000000002b8 .L0 
C:\Users\stapi\AppData\Local\Temp\ccmQLYsM.s:793    .text.wpa_write_rsn_ie:00000000000002be .L0 
C:\Users\stapi\AppData\Local\Temp\ccmQLYsM.s:794    .text.wpa_write_rsn_ie:00000000000002be .L0 
C:\Users\stapi\AppData\Local\Temp\ccmQLYsM.s:798    .text.wpa_write_rsn_ie:00000000000002c0 .L0 
C:\Users\stapi\AppData\Local\Temp\ccmQLYsM.s:799    .text.wpa_write_rsn_ie:00000000000002c0 .L0 
C:\Users\stapi\AppData\Local\Temp\ccmQLYsM.s:801    .text.wpa_write_rsn_ie:00000000000002c4 .L0 
C:\Users\stapi\AppData\Local\Temp\ccmQLYsM.s:804    .text.wpa_write_rsn_ie:00000000000002c8 .L0 
C:\Users\stapi\AppData\Local\Temp\ccmQLYsM.s:806    .text.wpa_write_rsn_ie:00000000000002cc .L0 
C:\Users\stapi\AppData\Local\Temp\ccmQLYsM.s:807    .text.wpa_write_rsn_ie:00000000000002cc .L0 
C:\Users\stapi\AppData\Local\Temp\ccmQLYsM.s:813    .text.wpa_write_rsn_ie:00000000000002ce .L0 
C:\Users\stapi\AppData\Local\Temp\ccmQLYsM.s:814    .text.wpa_write_rsn_ie:00000000000002ce .L0 
C:\Users\stapi\AppData\Local\Temp\ccmQLYsM.s:815    .text.wpa_write_rsn_ie:00000000000002ce .L0 
C:\Users\stapi\AppData\Local\Temp\ccmQLYsM.s:818    .text.wpa_write_rsn_ie:00000000000002d4 .L0 
C:\Users\stapi\AppData\Local\Temp\ccmQLYsM.s:821    .text.wpa_write_rsn_ie:00000000000002dc .L0 
C:\Users\stapi\AppData\Local\Temp\ccmQLYsM.s:823    .text.wpa_write_rsn_ie:00000000000002e0 .L0 
C:\Users\stapi\AppData\Local\Temp\ccmQLYsM.s:824    .text.wpa_write_rsn_ie:00000000000002e0 .L0 
C:\Users\stapi\AppData\Local\Temp\ccmQLYsM.s:825    .text.wpa_write_rsn_ie:00000000000002e0 .L0 
C:\Users\stapi\AppData\Local\Temp\ccmQLYsM.s:826    .text.wpa_write_rsn_ie:00000000000002e0 .L0 
C:\Users\stapi\AppData\Local\Temp\ccmQLYsM.s:835    .text.wpa_write_rsn_ie:00000000000002e4 .L0 
C:\Users\stapi\AppData\Local\Temp\ccmQLYsM.s:836    .text.wpa_write_rsn_ie:00000000000002e4 .L0 
C:\Users\stapi\AppData\Local\Temp\ccmQLYsM.s:837    .text.wpa_write_rsn_ie:00000000000002e4 .L0 
C:\Users\stapi\AppData\Local\Temp\ccmQLYsM.s:840    .text.wpa_write_rsn_ie:00000000000002ea .L0 
C:\Users\stapi\AppData\Local\Temp\ccmQLYsM.s:843    .text.wpa_write_rsn_ie:00000000000002f2 .L0 
C:\Users\stapi\AppData\Local\Temp\ccmQLYsM.s:845    .text.wpa_write_rsn_ie:00000000000002f6 .L0 
C:\Users\stapi\AppData\Local\Temp\ccmQLYsM.s:846    .text.wpa_write_rsn_ie:00000000000002f6 .L0 
C:\Users\stapi\AppData\Local\Temp\ccmQLYsM.s:847    .text.wpa_write_rsn_ie:00000000000002f6 .L0 
C:\Users\stapi\AppData\Local\Temp\ccmQLYsM.s:848    .text.wpa_write_rsn_ie:00000000000002f6 .L0 
C:\Users\stapi\AppData\Local\Temp\ccmQLYsM.s:852    .text.wpa_write_rsn_ie:00000000000002fa .L0 
C:\Users\stapi\AppData\Local\Temp\ccmQLYsM.s:859    .text.wpa_write_rsnxe:0000000000000000 wpa_write_rsnxe
C:\Users\stapi\AppData\Local\Temp\ccmQLYsM.s:862    .text.wpa_write_rsnxe:0000000000000000 .L0 
C:\Users\stapi\AppData\Local\Temp\ccmQLYsM.s:864    .text.wpa_write_rsnxe:0000000000000000 .L0 
C:\Users\stapi\AppData\Local\Temp\ccmQLYsM.s:865    .text.wpa_write_rsnxe:0000000000000000 .L0 
C:\Users\stapi\AppData\Local\Temp\ccmQLYsM.s:866    .text.wpa_write_rsnxe:0000000000000000 .L0 
C:\Users\stapi\AppData\Local\Temp\ccmQLYsM.s:867    .text.wpa_write_rsnxe:0000000000000000 .L0 
C:\Users\stapi\AppData\Local\Temp\ccmQLYsM.s:871    .text.wpa_write_rsnxe:0000000000000000 .L0 
C:\Users\stapi\AppData\Local\Temp\ccmQLYsM.s:872    .text.wpa_write_rsnxe:0000000000000000 .L0 
C:\Users\stapi\AppData\Local\Temp\ccmQLYsM.s:873    .text.wpa_write_rsnxe:0000000000000000 .L0 
C:\Users\stapi\AppData\Local\Temp\ccmQLYsM.s:880    .text.wpa_write_rsnxe:000000000000000a .L0 
C:\Users\stapi\AppData\Local\Temp\ccmQLYsM.s:882    .text.wpa_write_rsnxe:000000000000000c .L0 
C:\Users\stapi\AppData\Local\Temp\ccmQLYsM.s:884    .text.wpa_write_rsnxe:000000000000000e .L0 
C:\Users\stapi\AppData\Local\Temp\ccmQLYsM.s:886    .text.wpa_write_rsnxe:0000000000000012 .L0 
C:\Users\stapi\AppData\Local\Temp\ccmQLYsM.s:888    .text.wpa_write_rsnxe:0000000000000014 .L0 
C:\Users\stapi\AppData\Local\Temp\ccmQLYsM.s:890    .text.wpa_write_rsnxe:0000000000000018 .L0 
C:\Users\stapi\AppData\Local\Temp\ccmQLYsM.s:892    .text.wpa_write_rsnxe:000000000000001a .L0 
C:\Users\stapi\AppData\Local\Temp\ccmQLYsM.s:894    .text.wpa_write_rsnxe:000000000000001e .L0 
C:\Users\stapi\AppData\Local\Temp\ccmQLYsM.s:896    .text.wpa_write_rsnxe:0000000000000022 .L0 
C:\Users\stapi\AppData\Local\Temp\ccmQLYsM.s:901    .text.wpa_write_rsnxe:0000000000000028 .L0 
C:\Users\stapi\AppData\Local\Temp\ccmQLYsM.s:902    .text.wpa_write_rsnxe:0000000000000028 .L0 
C:\Users\stapi\AppData\Local\Temp\ccmQLYsM.s:904    .text.wpa_write_rsnxe:000000000000002c .L0 
C:\Users\stapi\AppData\Local\Temp\ccmQLYsM.s:907    .text.wpa_write_rsnxe:0000000000000032 .L0 
C:\Users\stapi\AppData\Local\Temp\ccmQLYsM.s:908    .text.wpa_write_rsnxe:0000000000000032 .L0 
C:\Users\stapi\AppData\Local\Temp\ccmQLYsM.s:912    .text.wpa_write_rsnxe:0000000000000036 .L0 
C:\Users\stapi\AppData\Local\Temp\ccmQLYsM.s:913    .text.wpa_write_rsnxe:0000000000000036 .L0 
C:\Users\stapi\AppData\Local\Temp\ccmQLYsM.s:916    .text.wpa_write_rsnxe:000000000000003c .L0 
C:\Users\stapi\AppData\Local\Temp\ccmQLYsM.s:917    .text.wpa_write_rsnxe:000000000000003c .L0 
C:\Users\stapi\AppData\Local\Temp\ccmQLYsM.s:921    .text.wpa_write_rsnxe:0000000000000040 .L0 
C:\Users\stapi\AppData\Local\Temp\ccmQLYsM.s:922    .text.wpa_write_rsnxe:0000000000000040 .L0 
C:\Users\stapi\AppData\Local\Temp\ccmQLYsM.s:925    .text.wpa_write_rsnxe:0000000000000044 .L0 
C:\Users\stapi\AppData\Local\Temp\ccmQLYsM.s:926    .text.wpa_write_rsnxe:0000000000000044 .L0 
C:\Users\stapi\AppData\Local\Temp\ccmQLYsM.s:930    .text.wpa_write_rsnxe:0000000000000048 .L0 
C:\Users\stapi\AppData\Local\Temp\ccmQLYsM.s:931    .text.wpa_write_rsnxe:0000000000000048 .L0 
C:\Users\stapi\AppData\Local\Temp\ccmQLYsM.s:935    .text.wpa_write_rsnxe:000000000000004a .L0 
C:\Users\stapi\AppData\Local\Temp\ccmQLYsM.s:936    .text.wpa_write_rsnxe:000000000000004a .L0 
C:\Users\stapi\AppData\Local\Temp\ccmQLYsM.s:942    .text.wpa_write_rsnxe:0000000000000054 .L0 
C:\Users\stapi\AppData\Local\Temp\ccmQLYsM.s:944    .text.wpa_write_rsnxe:0000000000000056 .L0 
C:\Users\stapi\AppData\Local\Temp\ccmQLYsM.s:946    .text.wpa_write_rsnxe:000000000000005a .L0 
C:\Users\stapi\AppData\Local\Temp\ccmQLYsM.s:947    .text.wpa_write_rsnxe:000000000000005a .L0 
C:\Users\stapi\AppData\Local\Temp\ccmQLYsM.s:949    .text.wpa_write_rsnxe:000000000000005e .L0 
C:\Users\stapi\AppData\Local\Temp\ccmQLYsM.s:952    .text.wpa_write_rsnxe:0000000000000060 .L0 
C:\Users\stapi\AppData\Local\Temp\ccmQLYsM.s:954    .text.wpa_write_rsnxe:0000000000000062 .L0 
C:\Users\stapi\AppData\Local\Temp\ccmQLYsM.s:957    .text.wpa_write_rsnxe:0000000000000066 .L0 
C:\Users\stapi\AppData\Local\Temp\ccmQLYsM.s:958    .text.wpa_write_rsnxe:0000000000000066 .L0 
C:\Users\stapi\AppData\Local\Temp\ccmQLYsM.s:961    .text.wpa_write_rsnxe:000000000000006a .L0 
C:\Users\stapi\AppData\Local\Temp\ccmQLYsM.s:962    .text.wpa_write_rsnxe:000000000000006a .L0 
C:\Users\stapi\AppData\Local\Temp\ccmQLYsM.s:964    .text.wpa_write_rsnxe:000000000000006e .L0 
C:\Users\stapi\AppData\Local\Temp\ccmQLYsM.s:967    .text.wpa_write_rsnxe:0000000000000072 .L0 
C:\Users\stapi\AppData\Local\Temp\ccmQLYsM.s:968    .text.wpa_write_rsnxe:0000000000000072 .L0 
C:\Users\stapi\AppData\Local\Temp\ccmQLYsM.s:969    .text.wpa_write_rsnxe:0000000000000072 .L0 
C:\Users\stapi\AppData\Local\Temp\ccmQLYsM.s:972    .text.wpa_write_rsnxe:0000000000000074 .L0 
C:\Users\stapi\AppData\Local\Temp\ccmQLYsM.s:973    .text.wpa_write_rsnxe:0000000000000074 .L0 
C:\Users\stapi\AppData\Local\Temp\ccmQLYsM.s:976    .text.wpa_write_rsnxe:0000000000000078 .L0 
C:\Users\stapi\AppData\Local\Temp\ccmQLYsM.s:978    .text.wpa_write_rsnxe:000000000000007a .L0 
C:\Users\stapi\AppData\Local\Temp\ccmQLYsM.s:979    .text.wpa_write_rsnxe:000000000000007a .L0 
C:\Users\stapi\AppData\Local\Temp\ccmQLYsM.s:982    .text.wpa_write_rsnxe:000000000000007e .L0 
C:\Users\stapi\AppData\Local\Temp\ccmQLYsM.s:986    .text.wpa_write_rsnxe:0000000000000082 .L0 
C:\Users\stapi\AppData\Local\Temp\ccmQLYsM.s:987    .text.wpa_write_rsnxe:0000000000000082 .L0 
C:\Users\stapi\AppData\Local\Temp\ccmQLYsM.s:993    .text.wpa_write_rsnxe:0000000000000086 .L0 
C:\Users\stapi\AppData\Local\Temp\ccmQLYsM.s:994    .text.wpa_write_rsnxe:0000000000000086 .L0 
C:\Users\stapi\AppData\Local\Temp\ccmQLYsM.s:999    .text.wpa_write_rsnxe:0000000000000090 .L0 
C:\Users\stapi\AppData\Local\Temp\ccmQLYsM.s:1000   .text.wpa_write_rsnxe:0000000000000090 .L0 
C:\Users\stapi\AppData\Local\Temp\ccmQLYsM.s:1003   .text.wpa_write_rsnxe:0000000000000092 .L0 
C:\Users\stapi\AppData\Local\Temp\ccmQLYsM.s:1005   .text.wpa_write_rsnxe:0000000000000094 .L0 
C:\Users\stapi\AppData\Local\Temp\ccmQLYsM.s:1009   .text.wpa_write_rsnxe:0000000000000096 .L0 
C:\Users\stapi\AppData\Local\Temp\ccmQLYsM.s:1010   .text.wpa_write_rsnxe:0000000000000098 .L0 
C:\Users\stapi\AppData\Local\Temp\ccmQLYsM.s:1017   .text.wpa_auth_gen_wpa_ie:0000000000000000 wpa_auth_gen_wpa_ie
C:\Users\stapi\AppData\Local\Temp\ccmQLYsM.s:1020   .text.wpa_auth_gen_wpa_ie:0000000000000000 .L0 
C:\Users\stapi\AppData\Local\Temp\ccmQLYsM.s:1022   .text.wpa_auth_gen_wpa_ie:0000000000000000 .L0 
C:\Users\stapi\AppData\Local\Temp\ccmQLYsM.s:1023   .text.wpa_auth_gen_wpa_ie:0000000000000008 .L0 
C:\Users\stapi\AppData\Local\Temp\ccmQLYsM.s:1024   .text.wpa_auth_gen_wpa_ie:0000000000000008 .L0 
C:\Users\stapi\AppData\Local\Temp\ccmQLYsM.s:1025   .text.wpa_auth_gen_wpa_ie:0000000000000008 .L0 
C:\Users\stapi\AppData\Local\Temp\ccmQLYsM.s:1026   .text.wpa_auth_gen_wpa_ie:0000000000000008 .L0 
C:\Users\stapi\AppData\Local\Temp\ccmQLYsM.s:1027   .text.wpa_auth_gen_wpa_ie:0000000000000008 .L0 
C:\Users\stapi\AppData\Local\Temp\ccmQLYsM.s:1028   .text.wpa_auth_gen_wpa_ie:0000000000000008 .L0 
C:\Users\stapi\AppData\Local\Temp\ccmQLYsM.s:1029   .text.wpa_auth_gen_wpa_ie:0000000000000008 .L0 
C:\Users\stapi\AppData\Local\Temp\ccmQLYsM.s:1030   .text.wpa_auth_gen_wpa_ie:0000000000000008 .L0 
C:\Users\stapi\AppData\Local\Temp\ccmQLYsM.s:1032   .text.wpa_auth_gen_wpa_ie:0000000000000008 .L0 
C:\Users\stapi\AppData\Local\Temp\ccmQLYsM.s:1033   .text.wpa_auth_gen_wpa_ie:0000000000000008 .L0 
C:\Users\stapi\AppData\Local\Temp\ccmQLYsM.s:1034   .text.wpa_auth_gen_wpa_ie:0000000000000008 .L0 
C:\Users\stapi\AppData\Local\Temp\ccmQLYsM.s:1035   .text.wpa_auth_gen_wpa_ie:0000000000000008 .L0 
C:\Users\stapi\AppData\Local\Temp\ccmQLYsM.s:1037   .text.wpa_auth_gen_wpa_ie:000000000000000a .L0 
C:\Users\stapi\AppData\Local\Temp\ccmQLYsM.s:1039   .text.wpa_auth_gen_wpa_ie:000000000000000c .L0 
C:\Users\stapi\AppData\Local\Temp\ccmQLYsM.s:1040   .text.wpa_auth_gen_wpa_ie:000000000000000e .L0 
C:\Users\stapi\AppData\Local\Temp\ccmQLYsM.s:1043   .text.wpa_auth_gen_wpa_ie:000000000000000e .L0 
C:\Users\stapi\AppData\Local\Temp\ccmQLYsM.s:1044   .text.wpa_auth_gen_wpa_ie:000000000000000e .L0 
C:\Users\stapi\AppData\Local\Temp\ccmQLYsM.s:1046   .text.wpa_auth_gen_wpa_ie:0000000000000010 .L0 
C:\Users\stapi\AppData\Local\Temp\ccmQLYsM.s:1051   .text.wpa_auth_gen_wpa_ie:0000000000000014 .L0 
C:\Users\stapi\AppData\Local\Temp\ccmQLYsM.s:1052   .text.wpa_auth_gen_wpa_ie:0000000000000014 .L0 
C:\Users\stapi\AppData\Local\Temp\ccmQLYsM.s:1053   .text.wpa_auth_gen_wpa_ie:0000000000000014 .L0 
C:\Users\stapi\AppData\Local\Temp\ccmQLYsM.s:1054   .text.wpa_auth_gen_wpa_ie:0000000000000014 .L0 
C:\Users\stapi\AppData\Local\Temp\ccmQLYsM.s:1055   .text.wpa_auth_gen_wpa_ie:0000000000000014 .L0 
C:\Users\stapi\AppData\Local\Temp\ccmQLYsM.s:1059   .text.wpa_auth_gen_wpa_ie:000000000000001c .L0 
C:\Users\stapi\AppData\Local\Temp\ccmQLYsM.s:1062   .text.wpa_auth_gen_wpa_ie:000000000000001c .L0 
C:\Users\stapi\AppData\Local\Temp\ccmQLYsM.s:1063   .text.wpa_auth_gen_wpa_ie:000000000000001c .L0 
C:\Users\stapi\AppData\Local\Temp\ccmQLYsM.s:1064   .text.wpa_auth_gen_wpa_ie:000000000000001c .L0 
C:\Users\stapi\AppData\Local\Temp\ccmQLYsM.s:1067   .text.wpa_auth_gen_wpa_ie:000000000000001c .L0 
C:\Users\stapi\AppData\Local\Temp\ccmQLYsM.s:1068   .text.wpa_auth_gen_wpa_ie:000000000000001c .L0 
C:\Users\stapi\AppData\Local\Temp\ccmQLYsM.s:1069   .text.wpa_auth_gen_wpa_ie:000000000000001c .L0 
C:\Users\stapi\AppData\Local\Temp\ccmQLYsM.s:1072   .text.wpa_auth_gen_wpa_ie:000000000000001c .L0 
C:\Users\stapi\AppData\Local\Temp\ccmQLYsM.s:1073   .text.wpa_auth_gen_wpa_ie:000000000000001c .L0 
C:\Users\stapi\AppData\Local\Temp\ccmQLYsM.s:1074   .text.wpa_auth_gen_wpa_ie:000000000000001c .L0 
C:\Users\stapi\AppData\Local\Temp\ccmQLYsM.s:1075   .text.wpa_auth_gen_wpa_ie:000000000000001c .L0 
C:\Users\stapi\AppData\Local\Temp\ccmQLYsM.s:1078   .text.wpa_auth_gen_wpa_ie:000000000000001c .L0 
C:\Users\stapi\AppData\Local\Temp\ccmQLYsM.s:1079   .text.wpa_auth_gen_wpa_ie:000000000000001c .L0 
C:\Users\stapi\AppData\Local\Temp\ccmQLYsM.s:1082   .text.wpa_auth_gen_wpa_ie:000000000000001c .L0 
C:\Users\stapi\AppData\Local\Temp\ccmQLYsM.s:1083   .text.wpa_auth_gen_wpa_ie:000000000000001c .L0 
C:\Users\stapi\AppData\Local\Temp\ccmQLYsM.s:1086   .text.wpa_auth_gen_wpa_ie:000000000000001c .L0 
C:\Users\stapi\AppData\Local\Temp\ccmQLYsM.s:1087   .text.wpa_auth_gen_wpa_ie:000000000000001c .L0 
C:\Users\stapi\AppData\Local\Temp\ccmQLYsM.s:1090   .text.wpa_auth_gen_wpa_ie:000000000000001c .L0 
C:\Users\stapi\AppData\Local\Temp\ccmQLYsM.s:1091   .text.wpa_auth_gen_wpa_ie:000000000000001c .L0 
C:\Users\stapi\AppData\Local\Temp\ccmQLYsM.s:1092   .text.wpa_auth_gen_wpa_ie:000000000000001c .L0 
C:\Users\stapi\AppData\Local\Temp\ccmQLYsM.s:1093   .text.wpa_auth_gen_wpa_ie:000000000000001c .L0 
C:\Users\stapi\AppData\Local\Temp\ccmQLYsM.s:1096   .text.wpa_auth_gen_wpa_ie:000000000000001c .L0 
C:\Users\stapi\AppData\Local\Temp\ccmQLYsM.s:1097   .text.wpa_auth_gen_wpa_ie:000000000000001c .L0 
C:\Users\stapi\AppData\Local\Temp\ccmQLYsM.s:1100   .text.wpa_auth_gen_wpa_ie:000000000000001c .L0 
C:\Users\stapi\AppData\Local\Temp\ccmQLYsM.s:1101   .text.wpa_auth_gen_wpa_ie:000000000000001c .L0 
C:\Users\stapi\AppData\Local\Temp\ccmQLYsM.s:1104   .text.wpa_auth_gen_wpa_ie:000000000000001c .L0 
C:\Users\stapi\AppData\Local\Temp\ccmQLYsM.s:1105   .text.wpa_auth_gen_wpa_ie:000000000000001c .L0 
C:\Users\stapi\AppData\Local\Temp\ccmQLYsM.s:1108   .text.wpa_auth_gen_wpa_ie:000000000000001c .L0 
C:\Users\stapi\AppData\Local\Temp\ccmQLYsM.s:1109   .text.wpa_auth_gen_wpa_ie:000000000000001c .L0 
C:\Users\stapi\AppData\Local\Temp\ccmQLYsM.s:1110   .text.wpa_auth_gen_wpa_ie:000000000000001c .L0 
C:\Users\stapi\AppData\Local\Temp\ccmQLYsM.s:1111   .text.wpa_auth_gen_wpa_ie:000000000000001c .L0 
C:\Users\stapi\AppData\Local\Temp\ccmQLYsM.s:1116   .text.wpa_auth_gen_wpa_ie:000000000000001c .L0 
C:\Users\stapi\AppData\Local\Temp\ccmQLYsM.s:1117   .text.wpa_auth_gen_wpa_ie:000000000000001c .L0 
C:\Users\stapi\AppData\Local\Temp\ccmQLYsM.s:1121   .text.wpa_auth_gen_wpa_ie:0000000000000026 .L0 
C:\Users\stapi\AppData\Local\Temp\ccmQLYsM.s:1129   .text.wpa_auth_gen_wpa_ie:0000000000000030 .L0 
C:\Users\stapi\AppData\Local\Temp\ccmQLYsM.s:1137   .text.wpa_auth_gen_wpa_ie:0000000000000038 .L0 
C:\Users\stapi\AppData\Local\Temp\ccmQLYsM.s:1145   .text.wpa_auth_gen_wpa_ie:0000000000000042 .L0 
C:\Users\stapi\AppData\Local\Temp\ccmQLYsM.s:1150   .text.wpa_auth_gen_wpa_ie:0000000000000048 .L0 
C:\Users\stapi\AppData\Local\Temp\ccmQLYsM.s:1154   .text.wpa_auth_gen_wpa_ie:000000000000004a .L0 
C:\Users\stapi\AppData\Local\Temp\ccmQLYsM.s:1160   .text.wpa_auth_gen_wpa_ie:000000000000004c .L0 
C:\Users\stapi\AppData\Local\Temp\ccmQLYsM.s:1166   .text.wpa_auth_gen_wpa_ie:0000000000000054 .L0 
C:\Users\stapi\AppData\Local\Temp\ccmQLYsM.s:1167   .text.wpa_auth_gen_wpa_ie:0000000000000054 .L0 
C:\Users\stapi\AppData\Local\Temp\ccmQLYsM.s:1168   .text.wpa_auth_gen_wpa_ie:0000000000000054 .L0 
C:\Users\stapi\AppData\Local\Temp\ccmQLYsM.s:1169   .text.wpa_auth_gen_wpa_ie:0000000000000054 .L0 
C:\Users\stapi\AppData\Local\Temp\ccmQLYsM.s:1171   .text.wpa_auth_gen_wpa_ie:0000000000000056 .L0 
C:\Users\stapi\AppData\Local\Temp\ccmQLYsM.s:1173   .text.wpa_auth_gen_wpa_ie:0000000000000058 .L0 
C:\Users\stapi\AppData\Local\Temp\ccmQLYsM.s:1177   .text.wpa_auth_gen_wpa_ie:000000000000005a .L0 
C:\Users\stapi\AppData\Local\Temp\ccmQLYsM.s:1178   .text.wpa_auth_gen_wpa_ie:000000000000005a .L0 
C:\Users\stapi\AppData\Local\Temp\ccmQLYsM.s:1180   .text.wpa_auth_gen_wpa_ie:000000000000005e .L0 
C:\Users\stapi\AppData\Local\Temp\ccmQLYsM.s:1183   .text.wpa_auth_gen_wpa_ie:0000000000000060 .L0 
C:\Users\stapi\AppData\Local\Temp\ccmQLYsM.s:1184   .text.wpa_auth_gen_wpa_ie:0000000000000060 .L0 
C:\Users\stapi\AppData\Local\Temp\ccmQLYsM.s:1185   .text.wpa_auth_gen_wpa_ie:0000000000000060 .L0 
C:\Users\stapi\AppData\Local\Temp\ccmQLYsM.s:1188   .text.wpa_auth_gen_wpa_ie:0000000000000066 .L0 
C:\Users\stapi\AppData\Local\Temp\ccmQLYsM.s:1194   .text.wpa_auth_gen_wpa_ie:000000000000006a .L0 
C:\Users\stapi\AppData\Local\Temp\ccmQLYsM.s:1195   .text.wpa_auth_gen_wpa_ie:000000000000006a .L0 
C:\Users\stapi\AppData\Local\Temp\ccmQLYsM.s:1196   .text.wpa_auth_gen_wpa_ie:000000000000006a .L0 
C:\Users\stapi\AppData\Local\Temp\ccmQLYsM.s:1200   .text.wpa_auth_gen_wpa_ie:000000000000006e .L0 
C:\Users\stapi\AppData\Local\Temp\ccmQLYsM.s:1205   .text.wpa_auth_gen_wpa_ie:0000000000000070 .L0 
C:\Users\stapi\AppData\Local\Temp\ccmQLYsM.s:1210   .text.wpa_auth_gen_wpa_ie:0000000000000074 .L0 
C:\Users\stapi\AppData\Local\Temp\ccmQLYsM.s:1211   .text.wpa_auth_gen_wpa_ie:0000000000000074 .L0 
C:\Users\stapi\AppData\Local\Temp\ccmQLYsM.s:1212   .text.wpa_auth_gen_wpa_ie:0000000000000074 .L0 
C:\Users\stapi\AppData\Local\Temp\ccmQLYsM.s:1213   .text.wpa_auth_gen_wpa_ie:0000000000000074 .L0 
C:\Users\stapi\AppData\Local\Temp\ccmQLYsM.s:1218   .text.wpa_auth_gen_wpa_ie:0000000000000078 .L0 
C:\Users\stapi\AppData\Local\Temp\ccmQLYsM.s:1219   .text.wpa_auth_gen_wpa_ie:0000000000000078 .L0 
C:\Users\stapi\AppData\Local\Temp\ccmQLYsM.s:1220   .text.wpa_auth_gen_wpa_ie:0000000000000078 .L0 
C:\Users\stapi\AppData\Local\Temp\ccmQLYsM.s:1224   .text.wpa_auth_gen_wpa_ie:000000000000007a .L0 
C:\Users\stapi\AppData\Local\Temp\ccmQLYsM.s:1225   .text.wpa_auth_gen_wpa_ie:000000000000007a .L0 
C:\Users\stapi\AppData\Local\Temp\ccmQLYsM.s:1228   .text.wpa_auth_gen_wpa_ie:000000000000007e .L0 
C:\Users\stapi\AppData\Local\Temp\ccmQLYsM.s:1233   .text.wpa_auth_gen_wpa_ie:0000000000000082 .L0 
C:\Users\stapi\AppData\Local\Temp\ccmQLYsM.s:1234   .text.wpa_auth_gen_wpa_ie:0000000000000082 .L0 
C:\Users\stapi\AppData\Local\Temp\ccmQLYsM.s:1235   .text.wpa_auth_gen_wpa_ie:0000000000000082 .L0 
C:\Users\stapi\AppData\Local\Temp\ccmQLYsM.s:1236   .text.wpa_auth_gen_wpa_ie:0000000000000082 .L0 
C:\Users\stapi\AppData\Local\Temp\ccmQLYsM.s:1237   .text.wpa_auth_gen_wpa_ie:0000000000000082 .L0 
C:\Users\stapi\AppData\Local\Temp\ccmQLYsM.s:1238   .text.wpa_auth_gen_wpa_ie:0000000000000082 .L0 
C:\Users\stapi\AppData\Local\Temp\ccmQLYsM.s:1239   .text.wpa_auth_gen_wpa_ie:0000000000000082 .L0 
C:\Users\stapi\AppData\Local\Temp\ccmQLYsM.s:1240   .text.wpa_auth_gen_wpa_ie:0000000000000082 .L0 
C:\Users\stapi\AppData\Local\Temp\ccmQLYsM.s:1244   .text.wpa_auth_gen_wpa_ie:0000000000000084 .L0 
C:\Users\stapi\AppData\Local\Temp\ccmQLYsM.s:1248   .text.wpa_auth_gen_wpa_ie:0000000000000086 .L0 
C:\Users\stapi\AppData\Local\Temp\ccmQLYsM.s:1252   .text.wpa_auth_gen_wpa_ie:000000000000008a .L0 
C:\Users\stapi\AppData\Local\Temp\ccmQLYsM.s:1254   .text.wpa_auth_gen_wpa_ie:000000000000008e .L0 
C:\Users\stapi\AppData\Local\Temp\ccmQLYsM.s:1258   .text.wpa_auth_gen_wpa_ie:0000000000000090 .L0 
C:\Users\stapi\AppData\Local\Temp\ccmQLYsM.s:1263   .text.wpa_auth_gen_wpa_ie:0000000000000094 .L0 
C:\Users\stapi\AppData\Local\Temp\ccmQLYsM.s:1264   .text.wpa_auth_gen_wpa_ie:0000000000000094 .L0 
C:\Users\stapi\AppData\Local\Temp\ccmQLYsM.s:1265   .text.wpa_auth_gen_wpa_ie:0000000000000094 .L0 
C:\Users\stapi\AppData\Local\Temp\ccmQLYsM.s:1267   .text.wpa_auth_gen_wpa_ie:0000000000000098 .L0 
C:\Users\stapi\AppData\Local\Temp\ccmQLYsM.s:1268   .text.wpa_auth_gen_wpa_ie:0000000000000098 .L0 
C:\Users\stapi\AppData\Local\Temp\ccmQLYsM.s:1270   .text.wpa_auth_gen_wpa_ie:000000000000009c .L0 
C:\Users\stapi\AppData\Local\Temp\ccmQLYsM.s:1271   .text.wpa_auth_gen_wpa_ie:000000000000009c .L0 
C:\Users\stapi\AppData\Local\Temp\ccmQLYsM.s:1273   .text.wpa_auth_gen_wpa_ie:00000000000000a0 .L0 
C:\Users\stapi\AppData\Local\Temp\ccmQLYsM.s:1274   .text.wpa_auth_gen_wpa_ie:00000000000000a0 .L0 
C:\Users\stapi\AppData\Local\Temp\ccmQLYsM.s:1281   .text.wpa_auth_gen_wpa_ie:00000000000000a4 .L0 
C:\Users\stapi\AppData\Local\Temp\ccmQLYsM.s:1282   .text.wpa_auth_gen_wpa_ie:00000000000000a4 .L0 
C:\Users\stapi\AppData\Local\Temp\ccmQLYsM.s:1283   .text.wpa_auth_gen_wpa_ie:00000000000000a4 .L0 
C:\Users\stapi\AppData\Local\Temp\ccmQLYsM.s:1285   .text.wpa_auth_gen_wpa_ie:00000000000000a8 .L0 
C:\Users\stapi\AppData\Local\Temp\ccmQLYsM.s:1286   .text.wpa_auth_gen_wpa_ie:00000000000000a8 .L0 
C:\Users\stapi\AppData\Local\Temp\ccmQLYsM.s:1291   .text.wpa_auth_gen_wpa_ie:00000000000000ac .L0 
C:\Users\stapi\AppData\Local\Temp\ccmQLYsM.s:1292   .text.wpa_auth_gen_wpa_ie:00000000000000ac .L0 
C:\Users\stapi\AppData\Local\Temp\ccmQLYsM.s:1293   .text.wpa_auth_gen_wpa_ie:00000000000000ac .L0 
C:\Users\stapi\AppData\Local\Temp\ccmQLYsM.s:1297   .text.wpa_auth_gen_wpa_ie:00000000000000b6 .L0 
C:\Users\stapi\AppData\Local\Temp\ccmQLYsM.s:1298   .text.wpa_auth_gen_wpa_ie:00000000000000b6 .L0 
C:\Users\stapi\AppData\Local\Temp\ccmQLYsM.s:1300   .text.wpa_auth_gen_wpa_ie:00000000000000b8 .L0 
C:\Users\stapi\AppData\Local\Temp\ccmQLYsM.s:1306   .text.wpa_auth_gen_wpa_ie:00000000000000c2 .L0 
C:\Users\stapi\AppData\Local\Temp\ccmQLYsM.s:1312   .text.wpa_auth_gen_wpa_ie:00000000000000cc .L0 
C:\Users\stapi\AppData\Local\Temp\ccmQLYsM.s:1315   .text.wpa_auth_gen_wpa_ie:00000000000000cc .L0 
C:\Users\stapi\AppData\Local\Temp\ccmQLYsM.s:1316   .text.wpa_auth_gen_wpa_ie:00000000000000cc .L0 
C:\Users\stapi\AppData\Local\Temp\ccmQLYsM.s:1322   .text.wpa_auth_gen_wpa_ie:00000000000000ce .L0 
C:\Users\stapi\AppData\Local\Temp\ccmQLYsM.s:1324   .text.wpa_auth_gen_wpa_ie:00000000000000d2 .L0 
C:\Users\stapi\AppData\Local\Temp\ccmQLYsM.s:1325   .text.wpa_auth_gen_wpa_ie:00000000000000d2 .L0 
C:\Users\stapi\AppData\Local\Temp\ccmQLYsM.s:1327   .text.wpa_auth_gen_wpa_ie:00000000000000da .L0 
C:\Users\stapi\AppData\Local\Temp\ccmQLYsM.s:1328   .text.wpa_auth_gen_wpa_ie:00000000000000da .L0 
C:\Users\stapi\AppData\Local\Temp\ccmQLYsM.s:1329   .text.wpa_auth_gen_wpa_ie:00000000000000da .L0 
C:\Users\stapi\AppData\Local\Temp\ccmQLYsM.s:1330   .text.wpa_auth_gen_wpa_ie:00000000000000da .L0 
C:\Users\stapi\AppData\Local\Temp\ccmQLYsM.s:1331   .text.wpa_auth_gen_wpa_ie:00000000000000da .L0 
C:\Users\stapi\AppData\Local\Temp\ccmQLYsM.s:1332   .text.wpa_auth_gen_wpa_ie:00000000000000da .L0 
C:\Users\stapi\AppData\Local\Temp\ccmQLYsM.s:1333   .text.wpa_auth_gen_wpa_ie:00000000000000da .L0 
C:\Users\stapi\AppData\Local\Temp\ccmQLYsM.s:1334   .text.wpa_auth_gen_wpa_ie:00000000000000da .L0 
C:\Users\stapi\AppData\Local\Temp\ccmQLYsM.s:1337   .text.wpa_auth_gen_wpa_ie:00000000000000da .L0 
C:\Users\stapi\AppData\Local\Temp\ccmQLYsM.s:1341   .text.wpa_auth_gen_wpa_ie:00000000000000da .L0 
C:\Users\stapi\AppData\Local\Temp\ccmQLYsM.s:1342   .text.wpa_auth_gen_wpa_ie:00000000000000da .L0 
C:\Users\stapi\AppData\Local\Temp\ccmQLYsM.s:1350   .text.wpa_auth_gen_wpa_ie:00000000000000e0 .L0 
C:\Users\stapi\AppData\Local\Temp\ccmQLYsM.s:1351   .text.wpa_auth_gen_wpa_ie:00000000000000e0 .L0 
C:\Users\stapi\AppData\Local\Temp\ccmQLYsM.s:1354   .text.wpa_auth_gen_wpa_ie:00000000000000e4 .L0 
C:\Users\stapi\AppData\Local\Temp\ccmQLYsM.s:1356   .text.wpa_auth_gen_wpa_ie:00000000000000e6 .L0 
C:\Users\stapi\AppData\Local\Temp\ccmQLYsM.s:1357   .text.wpa_auth_gen_wpa_ie:00000000000000e6 .L0 
C:\Users\stapi\AppData\Local\Temp\ccmQLYsM.s:1367   .text.wpa_auth_gen_wpa_ie:00000000000000fe .L0 
C:\Users\stapi\AppData\Local\Temp\ccmQLYsM.s:1368   .text.wpa_auth_gen_wpa_ie:00000000000000fe .L0 
C:\Users\stapi\AppData\Local\Temp\ccmQLYsM.s:1370   .text.wpa_auth_gen_wpa_ie:0000000000000102 .L0 
C:\Users\stapi\AppData\Local\Temp\ccmQLYsM.s:1371   .text.wpa_auth_gen_wpa_ie:0000000000000102 .L0 
C:\Users\stapi\AppData\Local\Temp\ccmQLYsM.s:1374   .text.wpa_auth_gen_wpa_ie:0000000000000104 .L0 
C:\Users\stapi\AppData\Local\Temp\ccmQLYsM.s:1375   .text.wpa_auth_gen_wpa_ie:0000000000000104 .L0 
C:\Users\stapi\AppData\Local\Temp\ccmQLYsM.s:1385   .text.wpa_auth_gen_wpa_ie:0000000000000118 .L0 
C:\Users\stapi\AppData\Local\Temp\ccmQLYsM.s:1386   .text.wpa_auth_gen_wpa_ie:0000000000000118 .L0 
C:\Users\stapi\AppData\Local\Temp\ccmQLYsM.s:1388   .text.wpa_auth_gen_wpa_ie:000000000000011c .L0 
C:\Users\stapi\AppData\Local\Temp\ccmQLYsM.s:1389   .text.wpa_auth_gen_wpa_ie:000000000000011c .L0 
C:\Users\stapi\AppData\Local\Temp\ccmQLYsM.s:1399   .text.wpa_auth_gen_wpa_ie:0000000000000120 .L0 
C:\Users\stapi\AppData\Local\Temp\ccmQLYsM.s:1400   .text.wpa_auth_gen_wpa_ie:0000000000000120 .L0 
C:\Users\stapi\AppData\Local\Temp\ccmQLYsM.s:1401   .text.wpa_auth_gen_wpa_ie:0000000000000120 .L0 
C:\Users\stapi\AppData\Local\Temp\ccmQLYsM.s:1403   .text.wpa_auth_gen_wpa_ie:0000000000000124 .L0 
C:\Users\stapi\AppData\Local\Temp\ccmQLYsM.s:1407   .text.wpa_auth_gen_wpa_ie:0000000000000128 .L0 
C:\Users\stapi\AppData\Local\Temp\ccmQLYsM.s:1408   .text.wpa_auth_gen_wpa_ie:0000000000000128 .L0 
C:\Users\stapi\AppData\Local\Temp\ccmQLYsM.s:1412   .text.wpa_auth_gen_wpa_ie:000000000000012a .L0 
C:\Users\stapi\AppData\Local\Temp\ccmQLYsM.s:1414   .text.wpa_auth_gen_wpa_ie:000000000000012e .L0 
C:\Users\stapi\AppData\Local\Temp\ccmQLYsM.s:1418   .text.wpa_auth_gen_wpa_ie:0000000000000132 .L0 
C:\Users\stapi\AppData\Local\Temp\ccmQLYsM.s:1419   .text.wpa_auth_gen_wpa_ie:0000000000000132 .L0 
C:\Users\stapi\AppData\Local\Temp\ccmQLYsM.s:1423   .text.wpa_auth_gen_wpa_ie:0000000000000136 .L0 
C:\Users\stapi\AppData\Local\Temp\ccmQLYsM.s:1425   .text.wpa_auth_gen_wpa_ie:000000000000013a .L0 
C:\Users\stapi\AppData\Local\Temp\ccmQLYsM.s:1427   .text.wpa_auth_gen_wpa_ie:000000000000013e .L0 
C:\Users\stapi\AppData\Local\Temp\ccmQLYsM.s:1432   .text.wpa_auth_gen_wpa_ie:0000000000000142 .L0 
C:\Users\stapi\AppData\Local\Temp\ccmQLYsM.s:1433   .text.wpa_auth_gen_wpa_ie:0000000000000142 .L0 
C:\Users\stapi\AppData\Local\Temp\ccmQLYsM.s:1434   .text.wpa_auth_gen_wpa_ie:0000000000000142 .L0 
C:\Users\stapi\AppData\Local\Temp\ccmQLYsM.s:1435   .text.wpa_auth_gen_wpa_ie:0000000000000142 .L0 
C:\Users\stapi\AppData\Local\Temp\ccmQLYsM.s:1436   .text.wpa_auth_gen_wpa_ie:0000000000000142 .L0 
C:\Users\stapi\AppData\Local\Temp\ccmQLYsM.s:1437   .text.wpa_auth_gen_wpa_ie:0000000000000142 .L0 
C:\Users\stapi\AppData\Local\Temp\ccmQLYsM.s:1442   .text.wpa_auth_gen_wpa_ie:000000000000014c .L0 
C:\Users\stapi\AppData\Local\Temp\ccmQLYsM.s:1443   .text.wpa_auth_gen_wpa_ie:000000000000014c .L0 
C:\Users\stapi\AppData\Local\Temp\ccmQLYsM.s:1445   .text.wpa_auth_gen_wpa_ie:000000000000014e .L0 
C:\Users\stapi\AppData\Local\Temp\ccmQLYsM.s:1451   .text.wpa_auth_gen_wpa_ie:000000000000015a .L0 
C:\Users\stapi\AppData\Local\Temp\ccmQLYsM.s:1452   .text.wpa_auth_gen_wpa_ie:000000000000015a .L0 
C:\Users\stapi\AppData\Local\Temp\ccmQLYsM.s:1456   .text.wpa_auth_gen_wpa_ie:000000000000015c .L0 
C:\Users\stapi\AppData\Local\Temp\ccmQLYsM.s:1460   .text.wpa_auth_gen_wpa_ie:0000000000000166 .L0 
C:\Users\stapi\AppData\Local\Temp\ccmQLYsM.s:1464   .text.wpa_auth_gen_wpa_ie:000000000000016a .L0 
C:\Users\stapi\AppData\Local\Temp\ccmQLYsM.s:1466   .text.wpa_auth_gen_wpa_ie:000000000000016e .L0 
C:\Users\stapi\AppData\Local\Temp\ccmQLYsM.s:1471   .text.wpa_auth_gen_wpa_ie:0000000000000172 .L0 
C:\Users\stapi\AppData\Local\Temp\ccmQLYsM.s:1472   .text.wpa_auth_gen_wpa_ie:0000000000000172 .L0 
C:\Users\stapi\AppData\Local\Temp\ccmQLYsM.s:1475   .text.wpa_auth_gen_wpa_ie:0000000000000172 .L0 
C:\Users\stapi\AppData\Local\Temp\ccmQLYsM.s:1476   .text.wpa_auth_gen_wpa_ie:0000000000000172 .L0 
C:\Users\stapi\AppData\Local\Temp\ccmQLYsM.s:1477   .text.wpa_auth_gen_wpa_ie:0000000000000172 .L0 
C:\Users\stapi\AppData\Local\Temp\ccmQLYsM.s:1478   .text.wpa_auth_gen_wpa_ie:0000000000000172 .L0 
C:\Users\stapi\AppData\Local\Temp\ccmQLYsM.s:1479   .text.wpa_auth_gen_wpa_ie:0000000000000172 .L0 
C:\Users\stapi\AppData\Local\Temp\ccmQLYsM.s:1480   .text.wpa_auth_gen_wpa_ie:0000000000000172 .L0 
C:\Users\stapi\AppData\Local\Temp\ccmQLYsM.s:1483   .text.wpa_auth_gen_wpa_ie:0000000000000176 .L0 
C:\Users\stapi\AppData\Local\Temp\ccmQLYsM.s:1488   .text.wpa_auth_gen_wpa_ie:0000000000000178 .L0 
C:\Users\stapi\AppData\Local\Temp\ccmQLYsM.s:1489   .text.wpa_auth_gen_wpa_ie:0000000000000178 .L0 
C:\Users\stapi\AppData\Local\Temp\ccmQLYsM.s:1490   .text.wpa_auth_gen_wpa_ie:0000000000000178 .L0 
C:\Users\stapi\AppData\Local\Temp\ccmQLYsM.s:1492   .text.wpa_auth_gen_wpa_ie:000000000000017c .L0 
C:\Users\stapi\AppData\Local\Temp\ccmQLYsM.s:1493   .text.wpa_auth_gen_wpa_ie:000000000000017c .L0 
C:\Users\stapi\AppData\Local\Temp\ccmQLYsM.s:1495   .text.wpa_auth_gen_wpa_ie:0000000000000180 .L0 
C:\Users\stapi\AppData\Local\Temp\ccmQLYsM.s:1496   .text.wpa_auth_gen_wpa_ie:0000000000000180 .L0 
C:\Users\stapi\AppData\Local\Temp\ccmQLYsM.s:1498   .text.wpa_auth_gen_wpa_ie:0000000000000184 .L0 
C:\Users\stapi\AppData\Local\Temp\ccmQLYsM.s:1499   .text.wpa_auth_gen_wpa_ie:0000000000000184 .L0 
C:\Users\stapi\AppData\Local\Temp\ccmQLYsM.s:1504   .text.wpa_auth_gen_wpa_ie:0000000000000188 .L0 
C:\Users\stapi\AppData\Local\Temp\ccmQLYsM.s:1505   .text.wpa_auth_gen_wpa_ie:0000000000000188 .L0 
C:\Users\stapi\AppData\Local\Temp\ccmQLYsM.s:1508   .text.wpa_auth_gen_wpa_ie:000000000000018c .L0 
C:\Users\stapi\AppData\Local\Temp\ccmQLYsM.s:1509   .text.wpa_auth_gen_wpa_ie:000000000000018c .L0 
C:\Users\stapi\AppData\Local\Temp\ccmQLYsM.s:1513   .text.wpa_auth_gen_wpa_ie:000000000000018e .L0 
C:\Users\stapi\AppData\Local\Temp\ccmQLYsM.s:1514   .text.wpa_auth_gen_wpa_ie:000000000000018e .L0 
C:\Users\stapi\AppData\Local\Temp\ccmQLYsM.s:1516   .text.wpa_auth_gen_wpa_ie:0000000000000192 .L0 
C:\Users\stapi\AppData\Local\Temp\ccmQLYsM.s:1521   .text.wpa_auth_gen_wpa_ie:0000000000000194 .L0 
C:\Users\stapi\AppData\Local\Temp\ccmQLYsM.s:1522   .text.wpa_auth_gen_wpa_ie:0000000000000194 .L0 
C:\Users\stapi\AppData\Local\Temp\ccmQLYsM.s:1523   .text.wpa_auth_gen_wpa_ie:0000000000000194 .L0 
C:\Users\stapi\AppData\Local\Temp\ccmQLYsM.s:1526   .text.wpa_auth_gen_wpa_ie:000000000000019c .L0 
C:\Users\stapi\AppData\Local\Temp\ccmQLYsM.s:1529   .text.wpa_auth_gen_wpa_ie:00000000000001a2 .L0 
C:\Users\stapi\AppData\Local\Temp\ccmQLYsM.s:1531   .text.wpa_auth_gen_wpa_ie:00000000000001a4 .L0 
C:\Users\stapi\AppData\Local\Temp\ccmQLYsM.s:1533   .text.wpa_auth_gen_wpa_ie:00000000000001a8 .L0 
C:\Users\stapi\AppData\Local\Temp\ccmQLYsM.s:1534   .text.wpa_auth_gen_wpa_ie:00000000000001a8 .L0 
C:\Users\stapi\AppData\Local\Temp\ccmQLYsM.s:1535   .text.wpa_auth_gen_wpa_ie:00000000000001a8 .L0 
C:\Users\stapi\AppData\Local\Temp\ccmQLYsM.s:1536   .text.wpa_auth_gen_wpa_ie:00000000000001a8 .L0 
C:\Users\stapi\AppData\Local\Temp\ccmQLYsM.s:1541   .text.wpa_auth_gen_wpa_ie:00000000000001ac .L0 
C:\Users\stapi\AppData\Local\Temp\ccmQLYsM.s:1542   .text.wpa_auth_gen_wpa_ie:00000000000001ac .L0 
C:\Users\stapi\AppData\Local\Temp\ccmQLYsM.s:1545   .text.wpa_auth_gen_wpa_ie:00000000000001ae .L0 
C:\Users\stapi\AppData\Local\Temp\ccmQLYsM.s:1548   .text.wpa_auth_gen_wpa_ie:00000000000001b0 .L0 
C:\Users\stapi\AppData\Local\Temp\ccmQLYsM.s:1550   .text.wpa_auth_gen_wpa_ie:00000000000001b0 .L0 
C:\Users\stapi\AppData\Local\Temp\ccmQLYsM.s:1553   .text.wpa_auth_gen_wpa_ie:00000000000001b0 .L0 
C:\Users\stapi\AppData\Local\Temp\ccmQLYsM.s:1554   .text.wpa_auth_gen_wpa_ie:00000000000001b0 .L0 
C:\Users\stapi\AppData\Local\Temp\ccmQLYsM.s:1555   .text.wpa_auth_gen_wpa_ie:00000000000001b0 .L0 
C:\Users\stapi\AppData\Local\Temp\ccmQLYsM.s:1557   .text.wpa_auth_gen_wpa_ie:00000000000001b4 .L0 
C:\Users\stapi\AppData\Local\Temp\ccmQLYsM.s:1562   .text.wpa_auth_gen_wpa_ie:00000000000001b8 .L0 
C:\Users\stapi\AppData\Local\Temp\ccmQLYsM.s:1563   .text.wpa_auth_gen_wpa_ie:00000000000001b8 .L0 
C:\Users\stapi\AppData\Local\Temp\ccmQLYsM.s:1564   .text.wpa_auth_gen_wpa_ie:00000000000001b8 .L0 
C:\Users\stapi\AppData\Local\Temp\ccmQLYsM.s:1567   .text.wpa_auth_gen_wpa_ie:00000000000001bc .L0 
C:\Users\stapi\AppData\Local\Temp\ccmQLYsM.s:1570   .text.wpa_auth_gen_wpa_ie:00000000000001c0 .L0 
C:\Users\stapi\AppData\Local\Temp\ccmQLYsM.s:1575   .text.wpa_auth_gen_wpa_ie:00000000000001c4 .L0 
C:\Users\stapi\AppData\Local\Temp\ccmQLYsM.s:1576   .text.wpa_auth_gen_wpa_ie:00000000000001c4 .L0 
C:\Users\stapi\AppData\Local\Temp\ccmQLYsM.s:1577   .text.wpa_auth_gen_wpa_ie:00000000000001c4 .L0 
C:\Users\stapi\AppData\Local\Temp\ccmQLYsM.s:1581   .text.wpa_auth_gen_wpa_ie:00000000000001c8 .L0 
C:\Users\stapi\AppData\Local\Temp\ccmQLYsM.s:1585   .text.wpa_auth_gen_wpa_ie:00000000000001d4 .L0 
C:\Users\stapi\AppData\Local\Temp\ccmQLYsM.s:1586   .text.wpa_auth_gen_wpa_ie:00000000000001d4 .L0 
C:\Users\stapi\AppData\Local\Temp\ccmQLYsM.s:1589   .text.wpa_auth_gen_wpa_ie:00000000000001da .L0 
C:\Users\stapi\AppData\Local\Temp\ccmQLYsM.s:1593   .text.wpa_auth_gen_wpa_ie:00000000000001e4 .L0 
C:\Users\stapi\AppData\Local\Temp\ccmQLYsM.s:1595   .text.wpa_auth_gen_wpa_ie:00000000000001e8 .L0 
C:\Users\stapi\AppData\Local\Temp\ccmQLYsM.s:1596   .text.wpa_auth_gen_wpa_ie:00000000000001e8 .L0 
C:\Users\stapi\AppData\Local\Temp\ccmQLYsM.s:1598   .text.wpa_auth_gen_wpa_ie:00000000000001ea .L0 
C:\Users\stapi\AppData\Local\Temp\ccmQLYsM.s:1600   .text.wpa_auth_gen_wpa_ie:00000000000001ee .L0 
C:\Users\stapi\AppData\Local\Temp\ccmQLYsM.s:1605   .text.wpa_auth_gen_wpa_ie:00000000000001fa .L0 
C:\Users\stapi\AppData\Local\Temp\ccmQLYsM.s:1606   .text.wpa_auth_gen_wpa_ie:00000000000001fa .L0 
C:\Users\stapi\AppData\Local\Temp\ccmQLYsM.s:1608   .text.wpa_auth_gen_wpa_ie:00000000000001fc .L0 
C:\Users\stapi\AppData\Local\Temp\ccmQLYsM.s:1610   .text.wpa_auth_gen_wpa_ie:0000000000000200 .L0 
C:\Users\stapi\AppData\Local\Temp\ccmQLYsM.s:1611   .text.wpa_auth_gen_wpa_ie:0000000000000200 .L0 
C:\Users\stapi\AppData\Local\Temp\ccmQLYsM.s:1617   .text.wpa_auth_gen_wpa_ie:0000000000000202 .L0 
C:\Users\stapi\AppData\Local\Temp\ccmQLYsM.s:1618   .text.wpa_auth_gen_wpa_ie:0000000000000202 .L0 
C:\Users\stapi\AppData\Local\Temp\ccmQLYsM.s:1621   .text.wpa_auth_gen_wpa_ie:0000000000000204 .L0 
C:\Users\stapi\AppData\Local\Temp\ccmQLYsM.s:1630   .text.wpa_auth_gen_wpa_ie:0000000000000212 .L0 
C:\Users\stapi\AppData\Local\Temp\ccmQLYsM.s:1637   .text.wpa_add_kde:0000000000000000 wpa_add_kde
C:\Users\stapi\AppData\Local\Temp\ccmQLYsM.s:1640   .text.wpa_add_kde:0000000000000000 .L0 
C:\Users\stapi\AppData\Local\Temp\ccmQLYsM.s:1642   .text.wpa_add_kde:0000000000000000 .L0 
C:\Users\stapi\AppData\Local\Temp\ccmQLYsM.s:1643   .text.wpa_add_kde:0000000000000008 .L0 
C:\Users\stapi\AppData\Local\Temp\ccmQLYsM.s:1644   .text.wpa_add_kde:0000000000000008 .L0 
C:\Users\stapi\AppData\Local\Temp\ccmQLYsM.s:1645   .text.wpa_add_kde:0000000000000008 .L0 
C:\Users\stapi\AppData\Local\Temp\ccmQLYsM.s:1646   .text.wpa_add_kde:0000000000000008 .L0 
C:\Users\stapi\AppData\Local\Temp\ccmQLYsM.s:1647   .text.wpa_add_kde:0000000000000008 .L0 
C:\Users\stapi\AppData\Local\Temp\ccmQLYsM.s:1648   .text.wpa_add_kde:0000000000000008 .L0 
C:\Users\stapi\AppData\Local\Temp\ccmQLYsM.s:1651   .text.wpa_add_kde:0000000000000008 .L0 
C:\Users\stapi\AppData\Local\Temp\ccmQLYsM.s:1652   .text.wpa_add_kde:0000000000000008 .L0 
C:\Users\stapi\AppData\Local\Temp\ccmQLYsM.s:1654   .text.wpa_add_kde:000000000000000a .L0 
C:\Users\stapi\AppData\Local\Temp\ccmQLYsM.s:1659   .text.wpa_add_kde:0000000000000012 .L0 
C:\Users\stapi\AppData\Local\Temp\ccmQLYsM.s:1660   .text.wpa_add_kde:0000000000000012 .L0 
C:\Users\stapi\AppData\Local\Temp\ccmQLYsM.s:1662   .text.wpa_add_kde:0000000000000016 .L0 
C:\Users\stapi\AppData\Local\Temp\ccmQLYsM.s:1664   .text.wpa_add_kde:0000000000000018 .L0 
C:\Users\stapi\AppData\Local\Temp\ccmQLYsM.s:1666   .text.wpa_add_kde:000000000000001a .L0 
C:\Users\stapi\AppData\Local\Temp\ccmQLYsM.s:1671   .text.wpa_add_kde:000000000000001e .L0 
C:\Users\stapi\AppData\Local\Temp\ccmQLYsM.s:1672   .text.wpa_add_kde:000000000000001e .L0 
C:\Users\stapi\AppData\Local\Temp\ccmQLYsM.s:1673   .text.wpa_add_kde:000000000000001e .L0 
C:\Users\stapi\AppData\Local\Temp\ccmQLYsM.s:1675   .text.wpa_add_kde:0000000000000022 .L0 
C:\Users\stapi\AppData\Local\Temp\ccmQLYsM.s:1677   .text.wpa_add_kde:0000000000000026 .L0 
C:\Users\stapi\AppData\Local\Temp\ccmQLYsM.s:1678   .text.wpa_add_kde:0000000000000026 .L0 
C:\Users\stapi\AppData\Local\Temp\ccmQLYsM.s:1680   .text.wpa_add_kde:000000000000002a .L0 
C:\Users\stapi\AppData\Local\Temp\ccmQLYsM.s:1684   .text.wpa_add_kde:000000000000002e .L0 
C:\Users\stapi\AppData\Local\Temp\ccmQLYsM.s:1685   .text.wpa_add_kde:000000000000002e .L0 
C:\Users\stapi\AppData\Local\Temp\ccmQLYsM.s:1689   .text.wpa_add_kde:0000000000000032 .L0 
C:\Users\stapi\AppData\Local\Temp\ccmQLYsM.s:1693   .text.wpa_add_kde:0000000000000036 .L0 
C:\Users\stapi\AppData\Local\Temp\ccmQLYsM.s:1699   .text.wpa_add_kde:000000000000003a .L0 
C:\Users\stapi\AppData\Local\Temp\ccmQLYsM.s:1701   .text.wpa_add_kde:000000000000003e .L0 
C:\Users\stapi\AppData\Local\Temp\ccmQLYsM.s:1702   .text.wpa_add_kde:000000000000003e .L0 
C:\Users\stapi\AppData\Local\Temp\ccmQLYsM.s:1707   .text.wpa_add_kde:0000000000000042 .L0 
C:\Users\stapi\AppData\Local\Temp\ccmQLYsM.s:1708   .text.wpa_add_kde:0000000000000042 .L0 
C:\Users\stapi\AppData\Local\Temp\ccmQLYsM.s:1709   .text.wpa_add_kde:0000000000000042 .L0 
C:\Users\stapi\AppData\Local\Temp\ccmQLYsM.s:1711   .text.wpa_add_kde:0000000000000044 .L0 
C:\Users\stapi\AppData\Local\Temp\ccmQLYsM.s:1717   .text.wpa_add_kde:0000000000000050 .L0 
C:\Users\stapi\AppData\Local\Temp\ccmQLYsM.s:1718   .text.wpa_add_kde:0000000000000050 .L0 
C:\Users\stapi\AppData\Local\Temp\ccmQLYsM.s:1721   .text.wpa_add_kde:0000000000000052 .L0 
C:\Users\stapi\AppData\Local\Temp\ccmQLYsM.s:1722   .text.wpa_add_kde:0000000000000052 .L0 
C:\Users\stapi\AppData\Local\Temp\ccmQLYsM.s:1724   .text.wpa_add_kde:0000000000000056 .L0 
C:\Users\stapi\AppData\Local\Temp\ccmQLYsM.s:1730   .text.wpa_add_kde:0000000000000064 .L0 
C:\Users\stapi\AppData\Local\Temp\ccmQLYsM.s:1731   .text.wpa_add_kde:0000000000000064 .L0 
C:\Users\stapi\AppData\Local\Temp\ccmQLYsM.s:1735   .text.wpa_add_kde:0000000000000066 .L0 
C:\Users\stapi\AppData\Local\Temp\ccmQLYsM.s:1736   .text.wpa_add_kde:0000000000000066 .L0 
C:\Users\stapi\AppData\Local\Temp\ccmQLYsM.s:1738   .text.wpa_add_kde:0000000000000070 .L0 
C:\Users\stapi\AppData\Local\Temp\ccmQLYsM.s:1739   .text.wpa_add_kde:0000000000000070 .L0 
C:\Users\stapi\AppData\Local\Temp\ccmQLYsM.s:1740   .text.wpa_add_kde:0000000000000070 .L0 
C:\Users\stapi\AppData\Local\Temp\ccmQLYsM.s:1741   .text.wpa_add_kde:0000000000000070 .L0 
C:\Users\stapi\AppData\Local\Temp\ccmQLYsM.s:1742   .text.wpa_add_kde:0000000000000070 .L0 
C:\Users\stapi\AppData\Local\Temp\ccmQLYsM.s:1743   .text.wpa_add_kde:0000000000000070 .L0 
C:\Users\stapi\AppData\Local\Temp\ccmQLYsM.s:1744   .text.wpa_add_kde:0000000000000070 .L0 
C:\Users\stapi\AppData\Local\Temp\ccmQLYsM.s:1812   .text.wpa_validate_wpa_ie:0000000000000000 wpa_validate_wpa_ie
C:\Users\stapi\AppData\Local\Temp\ccmQLYsM.s:1815   .text.wpa_validate_wpa_ie:0000000000000000 .L0 
C:\Users\stapi\AppData\Local\Temp\ccmQLYsM.s:1817   .text.wpa_validate_wpa_ie:0000000000000000 .L0 
C:\Users\stapi\AppData\Local\Temp\ccmQLYsM.s:1818   .text.wpa_validate_wpa_ie:0000000000000000 .L0 
C:\Users\stapi\AppData\Local\Temp\ccmQLYsM.s:1819   .text.wpa_validate_wpa_ie:0000000000000000 .L0 
C:\Users\stapi\AppData\Local\Temp\ccmQLYsM.s:1820   .text.wpa_validate_wpa_ie:0000000000000000 .L0 
C:\Users\stapi\AppData\Local\Temp\ccmQLYsM.s:1821   .text.wpa_validate_wpa_ie:0000000000000000 .L0 
C:\Users\stapi\AppData\Local\Temp\ccmQLYsM.s:1822   .text.wpa_validate_wpa_ie:0000000000000000 .L0 
C:\Users\stapi\AppData\Local\Temp\ccmQLYsM.s:1823   .text.wpa_validate_wpa_ie:0000000000000000 .L0 
C:\Users\stapi\AppData\Local\Temp\ccmQLYsM.s:1824   .text.wpa_validate_wpa_ie:0000000000000000 .L0 
C:\Users\stapi\AppData\Local\Temp\ccmQLYsM.s:1825   .text.wpa_validate_wpa_ie:0000000000000000 .L0 
C:\Users\stapi\AppData\Local\Temp\ccmQLYsM.s:1827   .text.wpa_validate_wpa_ie:0000000000000004 .L0 
C:\Users\stapi\AppData\Local\Temp\ccmQLYsM.s:1828   .text.wpa_validate_wpa_ie:000000000000000c .L0 
C:\Users\stapi\AppData\Local\Temp\ccmQLYsM.s:1829   .text.wpa_validate_wpa_ie:000000000000000c .L0 
C:\Users\stapi\AppData\Local\Temp\ccmQLYsM.s:1830   .text.wpa_validate_wpa_ie:000000000000000c .L0 
C:\Users\stapi\AppData\Local\Temp\ccmQLYsM.s:1831   .text.wpa_validate_wpa_ie:000000000000000c .L0 
C:\Users\stapi\AppData\Local\Temp\ccmQLYsM.s:1832   .text.wpa_validate_wpa_ie:000000000000000c .L0 
C:\Users\stapi\AppData\Local\Temp\ccmQLYsM.s:1833   .text.wpa_validate_wpa_ie:000000000000000c .L0 
C:\Users\stapi\AppData\Local\Temp\ccmQLYsM.s:1834   .text.wpa_validate_wpa_ie:000000000000000c .L0 
C:\Users\stapi\AppData\Local\Temp\ccmQLYsM.s:1835   .text.wpa_validate_wpa_ie:000000000000000c .L0 
C:\Users\stapi\AppData\Local\Temp\ccmQLYsM.s:1836   .text.wpa_validate_wpa_ie:000000000000000c .L0 
C:\Users\stapi\AppData\Local\Temp\ccmQLYsM.s:1837   .text.wpa_validate_wpa_ie:000000000000000c .L0 
C:\Users\stapi\AppData\Local\Temp\ccmQLYsM.s:1838   .text.wpa_validate_wpa_ie:000000000000000c .L0 
C:\Users\stapi\AppData\Local\Temp\ccmQLYsM.s:1839   .text.wpa_validate_wpa_ie:000000000000000c .L0 
C:\Users\stapi\AppData\Local\Temp\ccmQLYsM.s:1840   .text.wpa_validate_wpa_ie:000000000000000c .L0 
C:\Users\stapi\AppData\Local\Temp\ccmQLYsM.s:1841   .text.wpa_validate_wpa_ie:000000000000000c .L0 
C:\Users\stapi\AppData\Local\Temp\ccmQLYsM.s:1844   .text.wpa_validate_wpa_ie:0000000000000010 .L0 
C:\Users\stapi\AppData\Local\Temp\ccmQLYsM.s:1847   .text.wpa_validate_wpa_ie:0000000000000012 .L0 
C:\Users\stapi\AppData\Local\Temp\ccmQLYsM.s:1850   .text.wpa_validate_wpa_ie:0000000000000014 .L0 
C:\Users\stapi\AppData\Local\Temp\ccmQLYsM.s:1853   .text.wpa_validate_wpa_ie:0000000000000018 .L0 
C:\Users\stapi\AppData\Local\Temp\ccmQLYsM.s:1854   .text.wpa_validate_wpa_ie:0000000000000018 .L0 
C:\Users\stapi\AppData\Local\Temp\ccmQLYsM.s:1856   .text.wpa_validate_wpa_ie:000000000000001a .L0 
C:\Users\stapi\AppData\Local\Temp\ccmQLYsM.s:1859   .text.wpa_validate_wpa_ie:000000000000001e .L0 
C:\Users\stapi\AppData\Local\Temp\ccmQLYsM.s:1861   .text.wpa_validate_wpa_ie:0000000000000020 .L0 
C:\Users\stapi\AppData\Local\Temp\ccmQLYsM.s:1870   .text.wpa_validate_wpa_ie:0000000000000030 .L0 
C:\Users\stapi\AppData\Local\Temp\ccmQLYsM.s:1871   .text.wpa_validate_wpa_ie:0000000000000030 .L0 
C:\Users\stapi\AppData\Local\Temp\ccmQLYsM.s:1873   .text.wpa_validate_wpa_ie:0000000000000032 .L0 
C:\Users\stapi\AppData\Local\Temp\ccmQLYsM.s:1875   .text.wpa_validate_wpa_ie:0000000000000036 .L0 
C:\Users\stapi\AppData\Local\Temp\ccmQLYsM.s:1879   .text.wpa_validate_wpa_ie:0000000000000038 .L0 
C:\Users\stapi\AppData\Local\Temp\ccmQLYsM.s:1880   .text.wpa_validate_wpa_ie:0000000000000038 .L0 
C:\Users\stapi\AppData\Local\Temp\ccmQLYsM.s:1883   .text.wpa_validate_wpa_ie:000000000000003e .L0 
C:\Users\stapi\AppData\Local\Temp\ccmQLYsM.s:1885   .text.wpa_validate_wpa_ie:0000000000000040 .L0 
C:\Users\stapi\AppData\Local\Temp\ccmQLYsM.s:1904   .text.wpa_validate_wpa_ie:000000000000006e .L0 
C:\Users\stapi\AppData\Local\Temp\ccmQLYsM.s:1905   .text.wpa_validate_wpa_ie:000000000000006e .L0 
C:\Users\stapi\AppData\Local\Temp\ccmQLYsM.s:1909   .text.wpa_validate_wpa_ie:0000000000000070 .L0 
C:\Users\stapi\AppData\Local\Temp\ccmQLYsM.s:1910   .text.wpa_validate_wpa_ie:0000000000000072 .L0 
C:\Users\stapi\AppData\Local\Temp\ccmQLYsM.s:1911   .text.wpa_validate_wpa_ie:0000000000000072 .L0 
C:\Users\stapi\AppData\Local\Temp\ccmQLYsM.s:1913   .text.wpa_validate_wpa_ie:000000000000007a .L0 
C:\Users\stapi\AppData\Local\Temp\ccmQLYsM.s:1914   .text.wpa_validate_wpa_ie:000000000000007a .L0 
C:\Users\stapi\AppData\Local\Temp\ccmQLYsM.s:1915   .text.wpa_validate_wpa_ie:000000000000007a .L0 
C:\Users\stapi\AppData\Local\Temp\ccmQLYsM.s:1916   .text.wpa_validate_wpa_ie:000000000000007a .L0 
C:\Users\stapi\AppData\Local\Temp\ccmQLYsM.s:1917   .text.wpa_validate_wpa_ie:000000000000007a .L0 
C:\Users\stapi\AppData\Local\Temp\ccmQLYsM.s:1918   .text.wpa_validate_wpa_ie:000000000000007a .L0 
C:\Users\stapi\AppData\Local\Temp\ccmQLYsM.s:1919   .text.wpa_validate_wpa_ie:000000000000007a .L0 
C:\Users\stapi\AppData\Local\Temp\ccmQLYsM.s:1920   .text.wpa_validate_wpa_ie:000000000000007a .L0 
C:\Users\stapi\AppData\Local\Temp\ccmQLYsM.s:1921   .text.wpa_validate_wpa_ie:000000000000007a .L0 
C:\Users\stapi\AppData\Local\Temp\ccmQLYsM.s:1922   .text.wpa_validate_wpa_ie:000000000000007a .L0 
C:\Users\stapi\AppData\Local\Temp\ccmQLYsM.s:1923   .text.wpa_validate_wpa_ie:000000000000007a .L0 
C:\Users\stapi\AppData\Local\Temp\ccmQLYsM.s:1924   .text.wpa_validate_wpa_ie:000000000000007a .L0 
C:\Users\stapi\AppData\Local\Temp\ccmQLYsM.s:1925   .text.wpa_validate_wpa_ie:000000000000007a .L0 
C:\Users\stapi\AppData\Local\Temp\ccmQLYsM.s:1926   .text.wpa_validate_wpa_ie:000000000000007a .L0 
C:\Users\stapi\AppData\Local\Temp\ccmQLYsM.s:1929   .text.wpa_validate_wpa_ie:000000000000007a .L0 
C:\Users\stapi\AppData\Local\Temp\ccmQLYsM.s:1931   .text.wpa_validate_wpa_ie:000000000000007a .L0 
C:\Users\stapi\AppData\Local\Temp\ccmQLYsM.s:1932   .text.wpa_validate_wpa_ie:000000000000007a .L0 
C:\Users\stapi\AppData\Local\Temp\ccmQLYsM.s:1934   .text.wpa_validate_wpa_ie:000000000000007c .L0 
C:\Users\stapi\AppData\Local\Temp\ccmQLYsM.s:1939   .text.wpa_validate_wpa_ie:0000000000000082 .L0 
C:\Users\stapi\AppData\Local\Temp\ccmQLYsM.s:1942   .text.wpa_validate_wpa_ie:0000000000000086 .L0 
C:\Users\stapi\AppData\Local\Temp\ccmQLYsM.s:1943   .text.wpa_validate_wpa_ie:0000000000000086 .L0 
C:\Users\stapi\AppData\Local\Temp\ccmQLYsM.s:1946   .text.wpa_validate_wpa_ie:000000000000008e .L0 
C:\Users\stapi\AppData\Local\Temp\ccmQLYsM.s:1948   .text.wpa_validate_wpa_ie:0000000000000090 .L0 
C:\Users\stapi\AppData\Local\Temp\ccmQLYsM.s:1951   .text.wpa_validate_wpa_ie:0000000000000092 .L0 
C:\Users\stapi\AppData\Local\Temp\ccmQLYsM.s:1952   .text.wpa_validate_wpa_ie:0000000000000092 .L0 
C:\Users\stapi\AppData\Local\Temp\ccmQLYsM.s:1954   .text.wpa_validate_wpa_ie:0000000000000094 .L0 
C:\Users\stapi\AppData\Local\Temp\ccmQLYsM.s:1955   .text.wpa_validate_wpa_ie:0000000000000094 .L0 
C:\Users\stapi\AppData\Local\Temp\ccmQLYsM.s:1960   .text.wpa_validate_wpa_ie:000000000000009e .L0 
C:\Users\stapi\AppData\Local\Temp\ccmQLYsM.s:1963   .text.wpa_validate_wpa_ie:00000000000000a0 .L0 
C:\Users\stapi\AppData\Local\Temp\ccmQLYsM.s:1964   .text.wpa_validate_wpa_ie:00000000000000a0 .L0 
C:\Users\stapi\AppData\Local\Temp\ccmQLYsM.s:1967   .text.wpa_validate_wpa_ie:00000000000000a4 .L0 
C:\Users\stapi\AppData\Local\Temp\ccmQLYsM.s:1968   .text.wpa_validate_wpa_ie:00000000000000a4 .L0 
C:\Users\stapi\AppData\Local\Temp\ccmQLYsM.s:1972   .text.wpa_validate_wpa_ie:00000000000000ae .L0 
C:\Users\stapi\AppData\Local\Temp\ccmQLYsM.s:1975   .text.wpa_validate_wpa_ie:00000000000000b0 .L0 
C:\Users\stapi\AppData\Local\Temp\ccmQLYsM.s:1976   .text.wpa_validate_wpa_ie:00000000000000b0 .L0 
C:\Users\stapi\AppData\Local\Temp\ccmQLYsM.s:1981   .text.wpa_validate_wpa_ie:00000000000000b2 .L0 
C:\Users\stapi\AppData\Local\Temp\ccmQLYsM.s:1982   .text.wpa_validate_wpa_ie:00000000000000b2 .L0 
C:\Users\stapi\AppData\Local\Temp\ccmQLYsM.s:1988   .text.wpa_validate_wpa_ie:00000000000000bc .L0 
C:\Users\stapi\AppData\Local\Temp\ccmQLYsM.s:1990   .text.wpa_validate_wpa_ie:00000000000000be .L0 
C:\Users\stapi\AppData\Local\Temp\ccmQLYsM.s:1997   .text.wpa_validate_wpa_ie:00000000000000c2 .L0 
C:\Users\stapi\AppData\Local\Temp\ccmQLYsM.s:2000   .text.wpa_validate_wpa_ie:00000000000000c2 .L0 
C:\Users\stapi\AppData\Local\Temp\ccmQLYsM.s:2001   .text.wpa_validate_wpa_ie:00000000000000c2 .L0 
C:\Users\stapi\AppData\Local\Temp\ccmQLYsM.s:2002   .text.wpa_validate_wpa_ie:00000000000000c2 .L0 
C:\Users\stapi\AppData\Local\Temp\ccmQLYsM.s:2003   .text.wpa_validate_wpa_ie:00000000000000c2 .L0 
C:\Users\stapi\AppData\Local\Temp\ccmQLYsM.s:2009   .text.wpa_validate_wpa_ie:00000000000000ce .L0 
C:\Users\stapi\AppData\Local\Temp\ccmQLYsM.s:2014   .text.wpa_validate_wpa_ie:00000000000000d0 .L0 
C:\Users\stapi\AppData\Local\Temp\ccmQLYsM.s:2026   .text.wpa_validate_wpa_ie:00000000000000fa .L0 
C:\Users\stapi\AppData\Local\Temp\ccmQLYsM.s:2027   .text.wpa_validate_wpa_ie:00000000000000fa .L0 
C:\Users\stapi\AppData\Local\Temp\ccmQLYsM.s:2033   .text.wpa_validate_wpa_ie:0000000000000102 .L0 
C:\Users\stapi\AppData\Local\Temp\ccmQLYsM.s:2034   .text.wpa_validate_wpa_ie:0000000000000102 .L0 
C:\Users\stapi\AppData\Local\Temp\ccmQLYsM.s:2035   .text.wpa_validate_wpa_ie:0000000000000102 .L0 
C:\Users\stapi\AppData\Local\Temp\ccmQLYsM.s:2036   .text.wpa_validate_wpa_ie:0000000000000102 .L0 
C:\Users\stapi\AppData\Local\Temp\ccmQLYsM.s:2038   .text.wpa_validate_wpa_ie:0000000000000104 .L0 
C:\Users\stapi\AppData\Local\Temp\ccmQLYsM.s:2041   .text.wpa_validate_wpa_ie:000000000000010a .L0 
C:\Users\stapi\AppData\Local\Temp\ccmQLYsM.s:2043   .text.wpa_validate_wpa_ie:000000000000010c .L0 
C:\Users\stapi\AppData\Local\Temp\ccmQLYsM.s:2044   .text.wpa_validate_wpa_ie:000000000000010c .L0 
C:\Users\stapi\AppData\Local\Temp\ccmQLYsM.s:2047   .text.wpa_validate_wpa_ie:0000000000000110 .L0 
C:\Users\stapi\AppData\Local\Temp\ccmQLYsM.s:2049   .text.wpa_validate_wpa_ie:0000000000000112 .L0 
C:\Users\stapi\AppData\Local\Temp\ccmQLYsM.s:2050   .text.wpa_validate_wpa_ie:0000000000000112 .L0 
C:\Users\stapi\AppData\Local\Temp\ccmQLYsM.s:2052   .text.wpa_validate_wpa_ie:0000000000000116 .L0 
C:\Users\stapi\AppData\Local\Temp\ccmQLYsM.s:2054   .text.wpa_validate_wpa_ie:0000000000000118 .L0 
C:\Users\stapi\AppData\Local\Temp\ccmQLYsM.s:2055   .text.wpa_validate_wpa_ie:0000000000000118 .L0 
C:\Users\stapi\AppData\Local\Temp\ccmQLYsM.s:2057   .text.wpa_validate_wpa_ie:000000000000011c .L0 
C:\Users\stapi\AppData\Local\Temp\ccmQLYsM.s:2059   .text.wpa_validate_wpa_ie:000000000000011e .L0 
C:\Users\stapi\AppData\Local\Temp\ccmQLYsM.s:2060   .text.wpa_validate_wpa_ie:000000000000011e .L0 
C:\Users\stapi\AppData\Local\Temp\ccmQLYsM.s:2062   .text.wpa_validate_wpa_ie:0000000000000122 .L0 
C:\Users\stapi\AppData\Local\Temp\ccmQLYsM.s:2064   .text.wpa_validate_wpa_ie:0000000000000124 .L0 
C:\Users\stapi\AppData\Local\Temp\ccmQLYsM.s:2065   .text.wpa_validate_wpa_ie:0000000000000124 .L0 
C:\Users\stapi\AppData\Local\Temp\ccmQLYsM.s:2067   .text.wpa_validate_wpa_ie:0000000000000128 .L0 
C:\Users\stapi\AppData\Local\Temp\ccmQLYsM.s:2069   .text.wpa_validate_wpa_ie:000000000000012a .L0 
C:\Users\stapi\AppData\Local\Temp\ccmQLYsM.s:2070   .text.wpa_validate_wpa_ie:000000000000012a .L0 
C:\Users\stapi\AppData\Local\Temp\ccmQLYsM.s:2072   .text.wpa_validate_wpa_ie:000000000000012e .L0 
C:\Users\stapi\AppData\Local\Temp\ccmQLYsM.s:2074   .text.wpa_validate_wpa_ie:0000000000000130 .L0 
C:\Users\stapi\AppData\Local\Temp\ccmQLYsM.s:2075   .text.wpa_validate_wpa_ie:0000000000000130 .L0 
C:\Users\stapi\AppData\Local\Temp\ccmQLYsM.s:2077   .text.wpa_validate_wpa_ie:0000000000000132 .L0 
C:\Users\stapi\AppData\Local\Temp\ccmQLYsM.s:2079   .text.wpa_validate_wpa_ie:0000000000000136 .L0 
C:\Users\stapi\AppData\Local\Temp\ccmQLYsM.s:2081   .text.wpa_validate_wpa_ie:0000000000000138 .L0 
C:\Users\stapi\AppData\Local\Temp\ccmQLYsM.s:2085   .text.wpa_validate_wpa_ie:000000000000013c .L0 
C:\Users\stapi\AppData\Local\Temp\ccmQLYsM.s:2086   .text.wpa_validate_wpa_ie:000000000000013c .L0 
C:\Users\stapi\AppData\Local\Temp\ccmQLYsM.s:2088   .text.wpa_validate_wpa_ie:000000000000013e .L0 
C:\Users\stapi\AppData\Local\Temp\ccmQLYsM.s:2090   .text.wpa_validate_wpa_ie:0000000000000142 .L0 
C:\Users\stapi\AppData\Local\Temp\ccmQLYsM.s:2091   .text.wpa_validate_wpa_ie:0000000000000142 .L0 
C:\Users\stapi\AppData\Local\Temp\ccmQLYsM.s:2095   .text.wpa_validate_wpa_ie:000000000000014c .L0 
C:\Users\stapi\AppData\Local\Temp\ccmQLYsM.s:2096   .text.wpa_validate_wpa_ie:000000000000014c .L0 
C:\Users\stapi\AppData\Local\Temp\ccmQLYsM.s:2098   .text.wpa_validate_wpa_ie:000000000000014e .L0 
C:\Users\stapi\AppData\Local\Temp\ccmQLYsM.s:2104   .text.wpa_validate_wpa_ie:0000000000000156 .L0 
C:\Users\stapi\AppData\Local\Temp\ccmQLYsM.s:2105   .text.wpa_validate_wpa_ie:0000000000000156 .L0 
C:\Users\stapi\AppData\Local\Temp\ccmQLYsM.s:2107   .text.wpa_validate_wpa_ie:0000000000000158 .L0 
C:\Users\stapi\AppData\Local\Temp\ccmQLYsM.s:2109   .text.wpa_validate_wpa_ie:000000000000015a .L0 
C:\Users\stapi\AppData\Local\Temp\ccmQLYsM.s:2110   .text.wpa_validate_wpa_ie:000000000000015a .L0 
C:\Users\stapi\AppData\Local\Temp\ccmQLYsM.s:2115   .text.wpa_validate_wpa_ie:0000000000000164 .L0 
C:\Users\stapi\AppData\Local\Temp\ccmQLYsM.s:2116   .text.wpa_validate_wpa_ie:0000000000000164 .L0 
C:\Users\stapi\AppData\Local\Temp\ccmQLYsM.s:2118   .text.wpa_validate_wpa_ie:0000000000000166 .L0 
C:\Users\stapi\AppData\Local\Temp\ccmQLYsM.s:2124   .text.wpa_validate_wpa_ie:000000000000016e .L0 
C:\Users\stapi\AppData\Local\Temp\ccmQLYsM.s:2125   .text.wpa_validate_wpa_ie:000000000000016e .L0 
C:\Users\stapi\AppData\Local\Temp\ccmQLYsM.s:2126   .text.wpa_validate_wpa_ie:000000000000016e .L0 
C:\Users\stapi\AppData\Local\Temp\ccmQLYsM.s:2128   .text.wpa_validate_wpa_ie:0000000000000170 .L0 
C:\Users\stapi\AppData\Local\Temp\ccmQLYsM.s:2129   .text.wpa_validate_wpa_ie:0000000000000170 .L0 
C:\Users\stapi\AppData\Local\Temp\ccmQLYsM.s:2131   .text.wpa_validate_wpa_ie:0000000000000174 .L0 
C:\Users\stapi\AppData\Local\Temp\ccmQLYsM.s:2145   .text.wpa_validate_wpa_ie:00000000000001a0 .L0 
C:\Users\stapi\AppData\Local\Temp\ccmQLYsM.s:2153   .text.wpa_validate_wpa_ie:00000000000001b6 .L0 
C:\Users\stapi\AppData\Local\Temp\ccmQLYsM.s:2154   .text.wpa_validate_wpa_ie:00000000000001b6 .L0 
C:\Users\stapi\AppData\Local\Temp\ccmQLYsM.s:2159   .text.wpa_validate_wpa_ie:00000000000001ba .L0 
C:\Users\stapi\AppData\Local\Temp\ccmQLYsM.s:2164   .text.wpa_validate_wpa_ie:00000000000001c4 .L0 
C:\Users\stapi\AppData\Local\Temp\ccmQLYsM.s:2169   .text.wpa_validate_wpa_ie:00000000000001ce .L0 
C:\Users\stapi\AppData\Local\Temp\ccmQLYsM.s:2174   .text.wpa_validate_wpa_ie:00000000000001d8 .L0 
C:\Users\stapi\AppData\Local\Temp\ccmQLYsM.s:2179   .text.wpa_validate_wpa_ie:00000000000001e2 .L0 
C:\Users\stapi\AppData\Local\Temp\ccmQLYsM.s:2184   .text.wpa_validate_wpa_ie:00000000000001ec .L0 
C:\Users\stapi\AppData\Local\Temp\ccmQLYsM.s:2189   .text.wpa_validate_wpa_ie:00000000000001f6 .L0 
C:\Users\stapi\AppData\Local\Temp\ccmQLYsM.s:2196   .text.wpa_validate_wpa_ie:0000000000000200 .L0 
C:\Users\stapi\AppData\Local\Temp\ccmQLYsM.s:2197   .text.wpa_validate_wpa_ie:0000000000000200 .L0 
C:\Users\stapi\AppData\Local\Temp\ccmQLYsM.s:2200   .text.wpa_validate_wpa_ie:0000000000000208 .L0 
C:\Users\stapi\AppData\Local\Temp\ccmQLYsM.s:2202   .text.wpa_validate_wpa_ie:000000000000020a .L0 
C:\Users\stapi\AppData\Local\Temp\ccmQLYsM.s:2205   .text.wpa_validate_wpa_ie:000000000000020c .L0 
C:\Users\stapi\AppData\Local\Temp\ccmQLYsM.s:2206   .text.wpa_validate_wpa_ie:000000000000020c .L0 
C:\Users\stapi\AppData\Local\Temp\ccmQLYsM.s:2207   .text.wpa_validate_wpa_ie:000000000000020c .L0 
C:\Users\stapi\AppData\Local\Temp\ccmQLYsM.s:2209   .text.wpa_validate_wpa_ie:0000000000000210 .L0 
C:\Users\stapi\AppData\Local\Temp\ccmQLYsM.s:2211   .text.wpa_validate_wpa_ie:0000000000000212 .L0 
C:\Users\stapi\AppData\Local\Temp\ccmQLYsM.s:2212   .text.wpa_validate_wpa_ie:0000000000000212 .L0 
C:\Users\stapi\AppData\Local\Temp\ccmQLYsM.s:2214   .text.wpa_validate_wpa_ie:0000000000000214 .L0 
C:\Users\stapi\AppData\Local\Temp\ccmQLYsM.s:2216   .text.wpa_validate_wpa_ie:0000000000000216 .L0 
C:\Users\stapi\AppData\Local\Temp\ccmQLYsM.s:2221   .text.wpa_validate_wpa_ie:000000000000021e .L0 
C:\Users\stapi\AppData\Local\Temp\ccmQLYsM.s:2222   .text.wpa_validate_wpa_ie:000000000000021e .L0 
C:\Users\stapi\AppData\Local\Temp\ccmQLYsM.s:2224   .text.wpa_validate_wpa_ie:0000000000000220 .L0 
C:\Users\stapi\AppData\Local\Temp\ccmQLYsM.s:2226   .text.wpa_validate_wpa_ie:0000000000000222 .L0 
C:\Users\stapi\AppData\Local\Temp\ccmQLYsM.s:2227   .text.wpa_validate_wpa_ie:0000000000000222 .L0 
C:\Users\stapi\AppData\Local\Temp\ccmQLYsM.s:2232   .text.wpa_validate_wpa_ie:000000000000022c .L0 
C:\Users\stapi\AppData\Local\Temp\ccmQLYsM.s:2233   .text.wpa_validate_wpa_ie:000000000000022c .L0 
C:\Users\stapi\AppData\Local\Temp\ccmQLYsM.s:2235   .text.wpa_validate_wpa_ie:000000000000022e .L0 
C:\Users\stapi\AppData\Local\Temp\ccmQLYsM.s:2241   .text.wpa_validate_wpa_ie:0000000000000236 .L0 
C:\Users\stapi\AppData\Local\Temp\ccmQLYsM.s:2242   .text.wpa_validate_wpa_ie:0000000000000236 .L0 
C:\Users\stapi\AppData\Local\Temp\ccmQLYsM.s:2244   .text.wpa_validate_wpa_ie:0000000000000238 .L0 
C:\Users\stapi\AppData\Local\Temp\ccmQLYsM.s:2246   .text.wpa_validate_wpa_ie:000000000000023a .L0 
C:\Users\stapi\AppData\Local\Temp\ccmQLYsM.s:2247   .text.wpa_validate_wpa_ie:000000000000023a .L0 
C:\Users\stapi\AppData\Local\Temp\ccmQLYsM.s:2252   .text.wpa_validate_wpa_ie:0000000000000244 .L0 
C:\Users\stapi\AppData\Local\Temp\ccmQLYsM.s:2253   .text.wpa_validate_wpa_ie:0000000000000244 .L0 
C:\Users\stapi\AppData\Local\Temp\ccmQLYsM.s:2255   .text.wpa_validate_wpa_ie:0000000000000246 .L0 
C:\Users\stapi\AppData\Local\Temp\ccmQLYsM.s:2262   .text.wpa_validate_wpa_ie:0000000000000250 .L0 
C:\Users\stapi\AppData\Local\Temp\ccmQLYsM.s:2268   .text.wpa_validate_wpa_ie:000000000000025a .L0 
C:\Users\stapi\AppData\Local\Temp\ccmQLYsM.s:2269   .text.wpa_validate_wpa_ie:000000000000025a .L0 
C:\Users\stapi\AppData\Local\Temp\ccmQLYsM.s:2271   .text.wpa_validate_wpa_ie:000000000000025c .L0 
C:\Users\stapi\AppData\Local\Temp\ccmQLYsM.s:2274   .text.wpa_validate_wpa_ie:0000000000000262 .L0 
C:\Users\stapi\AppData\Local\Temp\ccmQLYsM.s:2289   .text.wpa_validate_wpa_ie:000000000000028e .L0 
C:\Users\stapi\AppData\Local\Temp\ccmQLYsM.s:2290   .text.wpa_validate_wpa_ie:000000000000028e .L0 
C:\Users\stapi\AppData\Local\Temp\ccmQLYsM.s:2295   .text.wpa_validate_wpa_ie:0000000000000292 .L0 
C:\Users\stapi\AppData\Local\Temp\ccmQLYsM.s:2296   .text.wpa_validate_wpa_ie:0000000000000292 .L0 
C:\Users\stapi\AppData\Local\Temp\ccmQLYsM.s:2298   .text.wpa_validate_wpa_ie:0000000000000294 .L0 
C:\Users\stapi\AppData\Local\Temp\ccmQLYsM.s:2302   .text.wpa_validate_wpa_ie:0000000000000298 .L0 
C:\Users\stapi\AppData\Local\Temp\ccmQLYsM.s:2303   .text.wpa_validate_wpa_ie:0000000000000298 .L0 
C:\Users\stapi\AppData\Local\Temp\ccmQLYsM.s:2305   .text.wpa_validate_wpa_ie:000000000000029a .L0 
C:\Users\stapi\AppData\Local\Temp\ccmQLYsM.s:2321   .text.wpa_validate_wpa_ie:00000000000002c6 .L0 
C:\Users\stapi\AppData\Local\Temp\ccmQLYsM.s:2322   .text.wpa_validate_wpa_ie:00000000000002c6 .L0 
C:\Users\stapi\AppData\Local\Temp\ccmQLYsM.s:2327   .text.wpa_validate_wpa_ie:00000000000002ca .L0 
C:\Users\stapi\AppData\Local\Temp\ccmQLYsM.s:2328   .text.wpa_validate_wpa_ie:00000000000002ca .L0 
C:\Users\stapi\AppData\Local\Temp\ccmQLYsM.s:2329   .text.wpa_validate_wpa_ie:00000000000002ca .L0 
C:\Users\stapi\AppData\Local\Temp\ccmQLYsM.s:2332   .text.wpa_validate_wpa_ie:00000000000002d2 .L0 
C:\Users\stapi\AppData\Local\Temp\ccmQLYsM.s:2335   .text.wpa_validate_wpa_ie:00000000000002d4 .L0 
C:\Users\stapi\AppData\Local\Temp\ccmQLYsM.s:2336   .text.wpa_validate_wpa_ie:00000000000002d4 .L0 
C:\Users\stapi\AppData\Local\Temp\ccmQLYsM.s:2340   .text.wpa_validate_wpa_ie:00000000000002d8 .L0 
C:\Users\stapi\AppData\Local\Temp\ccmQLYsM.s:2341   .text.wpa_validate_wpa_ie:00000000000002d8 .L0 
C:\Users\stapi\AppData\Local\Temp\ccmQLYsM.s:2343   .text.wpa_validate_wpa_ie:00000000000002da .L0 
C:\Users\stapi\AppData\Local\Temp\ccmQLYsM.s:2345   .text.wpa_validate_wpa_ie:00000000000002dc .L0 
C:\Users\stapi\AppData\Local\Temp\ccmQLYsM.s:2347   .text.wpa_validate_wpa_ie:00000000000002e0 .L0 
C:\Users\stapi\AppData\Local\Temp\ccmQLYsM.s:2348   .text.wpa_validate_wpa_ie:00000000000002e0 .L0 
C:\Users\stapi\AppData\Local\Temp\ccmQLYsM.s:2353   .text.wpa_validate_wpa_ie:00000000000002e4 .L0 
C:\Users\stapi\AppData\Local\Temp\ccmQLYsM.s:2354   .text.wpa_validate_wpa_ie:00000000000002e4 .L0 
C:\Users\stapi\AppData\Local\Temp\ccmQLYsM.s:2356   .text.wpa_validate_wpa_ie:00000000000002e6 .L0 
C:\Users\stapi\AppData\Local\Temp\ccmQLYsM.s:2363   .text.wpa_validate_wpa_ie:00000000000002f0 .L0 
C:\Users\stapi\AppData\Local\Temp\ccmQLYsM.s:2364   .text.wpa_validate_wpa_ie:00000000000002f0 .L0 
C:\Users\stapi\AppData\Local\Temp\ccmQLYsM.s:2367   .text.wpa_validate_wpa_ie:00000000000002f6 .L0 
C:\Users\stapi\AppData\Local\Temp\ccmQLYsM.s:2369   .text.wpa_validate_wpa_ie:00000000000002f8 .L0 
C:\Users\stapi\AppData\Local\Temp\ccmQLYsM.s:2370   .text.wpa_validate_wpa_ie:00000000000002f8 .L0 
C:\Users\stapi\AppData\Local\Temp\ccmQLYsM.s:2372   .text.wpa_validate_wpa_ie:00000000000002fc .L0 
C:\Users\stapi\AppData\Local\Temp\ccmQLYsM.s:2374   .text.wpa_validate_wpa_ie:00000000000002fe .L0 
C:\Users\stapi\AppData\Local\Temp\ccmQLYsM.s:2375   .text.wpa_validate_wpa_ie:00000000000002fe .L0 
C:\Users\stapi\AppData\Local\Temp\ccmQLYsM.s:2379   .text.wpa_validate_wpa_ie:0000000000000302 .L0 
C:\Users\stapi\AppData\Local\Temp\ccmQLYsM.s:2384   .text.wpa_validate_wpa_ie:0000000000000308 .L0 
C:\Users\stapi\AppData\Local\Temp\ccmQLYsM.s:2385   .text.wpa_validate_wpa_ie:0000000000000308 .L0 
C:\Users\stapi\AppData\Local\Temp\ccmQLYsM.s:2387   .text.wpa_validate_wpa_ie:000000000000030c .L0 
C:\Users\stapi\AppData\Local\Temp\ccmQLYsM.s:2389   .text.wpa_validate_wpa_ie:000000000000030e .L0 
C:\Users\stapi\AppData\Local\Temp\ccmQLYsM.s:2390   .text.wpa_validate_wpa_ie:000000000000030e .L0 
C:\Users\stapi\AppData\Local\Temp\ccmQLYsM.s:2396   .text.wpa_validate_wpa_ie:0000000000000314 .L0 
C:\Users\stapi\AppData\Local\Temp\ccmQLYsM.s:2397   .text.wpa_validate_wpa_ie:0000000000000314 .L0 
C:\Users\stapi\AppData\Local\Temp\ccmQLYsM.s:2399   .text.wpa_validate_wpa_ie:0000000000000318 .L0 
C:\Users\stapi\AppData\Local\Temp\ccmQLYsM.s:2401   .text.wpa_validate_wpa_ie:000000000000031a .L0 
C:\Users\stapi\AppData\Local\Temp\ccmQLYsM.s:2402   .text.wpa_validate_wpa_ie:000000000000031a .L0 
C:\Users\stapi\AppData\Local\Temp\ccmQLYsM.s:2408   .text.wpa_validate_wpa_ie:0000000000000320 .L0 
C:\Users\stapi\AppData\Local\Temp\ccmQLYsM.s:2409   .text.wpa_validate_wpa_ie:0000000000000320 .L0 
C:\Users\stapi\AppData\Local\Temp\ccmQLYsM.s:2413   .text.wpa_validate_wpa_ie:000000000000032a .L0 
C:\Users\stapi\AppData\Local\Temp\ccmQLYsM.s:2415   .text.wpa_validate_wpa_ie:000000000000032c .L0 
C:\Users\stapi\AppData\Local\Temp\ccmQLYsM.s:2416   .text.wpa_validate_wpa_ie:000000000000032c .L0 
C:\Users\stapi\AppData\Local\Temp\ccmQLYsM.s:2419   .text.wpa_validate_wpa_ie:000000000000032e .L0 
C:\Users\stapi\AppData\Local\Temp\ccmQLYsM.s:2421   .text.wpa_validate_wpa_ie:0000000000000330 .L0 
C:\Users\stapi\AppData\Local\Temp\ccmQLYsM.s:2422   .text.wpa_validate_wpa_ie:0000000000000330 .L0 
C:\Users\stapi\AppData\Local\Temp\ccmQLYsM.s:2426   .text.wpa_validate_wpa_ie:0000000000000334 .L0 
C:\Users\stapi\AppData\Local\Temp\ccmQLYsM.s:2427   .text.wpa_validate_wpa_ie:0000000000000334 .L0 
C:\Users\stapi\AppData\Local\Temp\ccmQLYsM.s:2431   .text.wpa_validate_wpa_ie:0000000000000338 .L0 
C:\Users\stapi\AppData\Local\Temp\ccmQLYsM.s:2432   .text.wpa_validate_wpa_ie:0000000000000338 .L0 
C:\Users\stapi\AppData\Local\Temp\ccmQLYsM.s:2437   .text.wpa_validate_wpa_ie:000000000000033c .L0 
C:\Users\stapi\AppData\Local\Temp\ccmQLYsM.s:2438   .text.wpa_validate_wpa_ie:000000000000033c .L0 
C:\Users\stapi\AppData\Local\Temp\ccmQLYsM.s:2440   .text.wpa_validate_wpa_ie:000000000000033e .L0 
C:\Users\stapi\AppData\Local\Temp\ccmQLYsM.s:2445   .text.wpa_validate_wpa_ie:0000000000000346 .L0 
C:\Users\stapi\AppData\Local\Temp\ccmQLYsM.s:2461   .text.wpa_validate_wpa_ie:0000000000000374 .L0 
C:\Users\stapi\AppData\Local\Temp\ccmQLYsM.s:2462   .text.wpa_validate_wpa_ie:0000000000000374 .L0 
C:\Users\stapi\AppData\Local\Temp\ccmQLYsM.s:2467   .text.wpa_validate_wpa_ie:0000000000000378 .L0 
C:\Users\stapi\AppData\Local\Temp\ccmQLYsM.s:2468   .text.wpa_validate_wpa_ie:0000000000000378 .L0 
C:\Users\stapi\AppData\Local\Temp\ccmQLYsM.s:2470   .text.wpa_validate_wpa_ie:000000000000037c .L0 
C:\Users\stapi\AppData\Local\Temp\ccmQLYsM.s:2473   .text.wpa_validate_wpa_ie:0000000000000382 .L0 
C:\Users\stapi\AppData\Local\Temp\ccmQLYsM.s:2474   .text.wpa_validate_wpa_ie:0000000000000382 .L0 
C:\Users\stapi\AppData\Local\Temp\ccmQLYsM.s:2477   .text.wpa_validate_wpa_ie:0000000000000388 .L0 
C:\Users\stapi\AppData\Local\Temp\ccmQLYsM.s:2479   .text.wpa_validate_wpa_ie:000000000000038a .L0 
C:\Users\stapi\AppData\Local\Temp\ccmQLYsM.s:2484   .text.wpa_validate_wpa_ie:0000000000000392 .L0 
C:\Users\stapi\AppData\Local\Temp\ccmQLYsM.s:2489   .text.wpa_validate_wpa_ie:000000000000039c .L0 
C:\Users\stapi\AppData\Local\Temp\ccmQLYsM.s:2490   .text.wpa_validate_wpa_ie:000000000000039c .L0 
C:\Users\stapi\AppData\Local\Temp\ccmQLYsM.s:2495   .text.wpa_validate_wpa_ie:00000000000003a0 .L0 
C:\Users\stapi\AppData\Local\Temp\ccmQLYsM.s:2496   .text.wpa_validate_wpa_ie:00000000000003a0 .L0 
C:\Users\stapi\AppData\Local\Temp\ccmQLYsM.s:2499   .text.wpa_validate_wpa_ie:00000000000003a2 .L0 
C:\Users\stapi\AppData\Local\Temp\ccmQLYsM.s:2502   .text.wpa_validate_wpa_ie:00000000000003aa .L0 
C:\Users\stapi\AppData\Local\Temp\ccmQLYsM.s:2509   .text.wpa_validate_wpa_ie:00000000000003bc .L0 
C:\Users\stapi\AppData\Local\Temp\ccmQLYsM.s:2510   .text.wpa_validate_wpa_ie:00000000000003bc .L0 
C:\Users\stapi\AppData\Local\Temp\ccmQLYsM.s:2515   .text.wpa_validate_wpa_ie:00000000000003c0 .L0 
C:\Users\stapi\AppData\Local\Temp\ccmQLYsM.s:2516   .text.wpa_validate_wpa_ie:00000000000003c0 .L0 
C:\Users\stapi\AppData\Local\Temp\ccmQLYsM.s:2519   .text.wpa_validate_wpa_ie:00000000000003c6 .L0 
C:\Users\stapi\AppData\Local\Temp\ccmQLYsM.s:2525   .text.wpa_validate_wpa_ie:00000000000003cc .L0 
C:\Users\stapi\AppData\Local\Temp\ccmQLYsM.s:2526   .text.wpa_validate_wpa_ie:00000000000003cc .L0 
C:\Users\stapi\AppData\Local\Temp\ccmQLYsM.s:2533   .text.wpa_validate_wpa_ie:00000000000003d8 .L0 
C:\Users\stapi\AppData\Local\Temp\ccmQLYsM.s:2535   .text.wpa_validate_wpa_ie:00000000000003da .L0 
C:\Users\stapi\AppData\Local\Temp\ccmQLYsM.s:2538   .text.wpa_validate_wpa_ie:00000000000003e0 .L0 
C:\Users\stapi\AppData\Local\Temp\ccmQLYsM.s:2540   .text.wpa_validate_wpa_ie:00000000000003e2 .L0 
C:\Users\stapi\AppData\Local\Temp\ccmQLYsM.s:2545   .text.wpa_validate_wpa_ie:00000000000003ec .L0 
C:\Users\stapi\AppData\Local\Temp\ccmQLYsM.s:2546   .text.wpa_validate_wpa_ie:00000000000003ec .L0 
C:\Users\stapi\AppData\Local\Temp\ccmQLYsM.s:2548   .text.wpa_validate_wpa_ie:00000000000003ee .L0 
C:\Users\stapi\AppData\Local\Temp\ccmQLYsM.s:2552   .text.wpa_validate_wpa_ie:00000000000003f0 .L0 
C:\Users\stapi\AppData\Local\Temp\ccmQLYsM.s:2562   .text.wpa_validate_wpa_ie:0000000000000406 .L0 
C:\Users\stapi\AppData\Local\Temp\ccmQLYsM.s:2563   .text.wpa_validate_wpa_ie:0000000000000406 .L0 
C:\Users\stapi\AppData\Local\Temp\ccmQLYsM.s:2566   .text.wpa_validate_wpa_ie:000000000000040a .L0 
C:\Users\stapi\AppData\Local\Temp\ccmQLYsM.s:2568   .text.wpa_validate_wpa_ie:000000000000040e .L0 
C:\Users\stapi\AppData\Local\Temp\ccmQLYsM.s:2570   .text.wpa_validate_wpa_ie:0000000000000410 .L0 
C:\Users\stapi\AppData\Local\Temp\ccmQLYsM.s:2575   .text.wpa_validate_wpa_ie:000000000000041a .L0 
C:\Users\stapi\AppData\Local\Temp\ccmQLYsM.s:2576   .text.wpa_validate_wpa_ie:000000000000041a .L0 
C:\Users\stapi\AppData\Local\Temp\ccmQLYsM.s:2581   .text.wpa_validate_wpa_ie:0000000000000426 .L0 
C:\Users\stapi\AppData\Local\Temp\ccmQLYsM.s:2583   .text.wpa_validate_wpa_ie:000000000000042a .L0 
C:\Users\stapi\AppData\Local\Temp\ccmQLYsM.s:2584   .text.wpa_validate_wpa_ie:000000000000042a .L0 
C:\Users\stapi\AppData\Local\Temp\ccmQLYsM.s:2586   .text.wpa_validate_wpa_ie:000000000000042c .L0 
C:\Users\stapi\AppData\Local\Temp\ccmQLYsM.s:2588   .text.wpa_validate_wpa_ie:0000000000000430 .L0 
C:\Users\stapi\AppData\Local\Temp\ccmQLYsM.s:2589   .text.wpa_validate_wpa_ie:0000000000000430 .L0 
C:\Users\stapi\AppData\Local\Temp\ccmQLYsM.s:2592   .text.wpa_validate_wpa_ie:0000000000000438 .L0 
C:\Users\stapi\AppData\Local\Temp\ccmQLYsM.s:2594   .text.wpa_validate_wpa_ie:000000000000043a .L0 
C:\Users\stapi\AppData\Local\Temp\ccmQLYsM.s:2596   .text.wpa_validate_wpa_ie:000000000000043e .L0 
C:\Users\stapi\AppData\Local\Temp\ccmQLYsM.s:2600   .text.wpa_validate_wpa_ie:0000000000000444 .L0 
C:\Users\stapi\AppData\Local\Temp\ccmQLYsM.s:2601   .text.wpa_validate_wpa_ie:0000000000000444 .L0 
C:\Users\stapi\AppData\Local\Temp\ccmQLYsM.s:2604   .text.wpa_validate_wpa_ie:0000000000000448 .L0 
C:\Users\stapi\AppData\Local\Temp\ccmQLYsM.s:2605   .text.wpa_validate_wpa_ie:0000000000000448 .L0 
C:\Users\stapi\AppData\Local\Temp\ccmQLYsM.s:2608   .text.wpa_validate_wpa_ie:000000000000044a .L0 
C:\Users\stapi\AppData\Local\Temp\ccmQLYsM.s:2610   .text.wpa_validate_wpa_ie:000000000000044e .L0 
C:\Users\stapi\AppData\Local\Temp\ccmQLYsM.s:2614   .text.wpa_validate_wpa_ie:0000000000000452 .L0 
C:\Users\stapi\AppData\Local\Temp\ccmQLYsM.s:2615   .text.wpa_validate_wpa_ie:0000000000000452 .L0 
C:\Users\stapi\AppData\Local\Temp\ccmQLYsM.s:2618   .text.wpa_validate_wpa_ie:0000000000000458 .L0 
C:\Users\stapi\AppData\Local\Temp\ccmQLYsM.s:2624   .text.wpa_validate_wpa_ie:000000000000045c .L0 
C:\Users\stapi\AppData\Local\Temp\ccmQLYsM.s:2633   .text.wpa_validate_wpa_ie:0000000000000474 .L0 
C:\Users\stapi\AppData\Local\Temp\ccmQLYsM.s:2634   .text.wpa_validate_wpa_ie:0000000000000474 .L0 
C:\Users\stapi\AppData\Local\Temp\ccmQLYsM.s:2641   .text.wpa_validate_wpa_ie:0000000000000486 .L0 
C:\Users\stapi\AppData\Local\Temp\ccmQLYsM.s:2643   .text.wpa_validate_wpa_ie:000000000000048a .L0 
C:\Users\stapi\AppData\Local\Temp\ccmQLYsM.s:2644   .text.wpa_validate_wpa_ie:000000000000048a .L0 
C:\Users\stapi\AppData\Local\Temp\ccmQLYsM.s:2646   .text.wpa_validate_wpa_ie:000000000000048c .L0 
C:\Users\stapi\AppData\Local\Temp\ccmQLYsM.s:2647   .text.wpa_validate_wpa_ie:000000000000048c .L0 
C:\Users\stapi\AppData\Local\Temp\ccmQLYsM.s:2651   .text.wpa_validate_wpa_ie:0000000000000490 .L0 
C:\Users\stapi\AppData\Local\Temp\ccmQLYsM.s:2652   .text.wpa_validate_wpa_ie:0000000000000490 .L0 
C:\Users\stapi\AppData\Local\Temp\ccmQLYsM.s:2653   .text.wpa_validate_wpa_ie:0000000000000490 .L0 
C:\Users\stapi\AppData\Local\Temp\ccmQLYsM.s:2656   .text.wpa_validate_wpa_ie:0000000000000492 .L0 
C:\Users\stapi\AppData\Local\Temp\ccmQLYsM.s:2658   .text.wpa_validate_wpa_ie:0000000000000496 .L0 
C:\Users\stapi\AppData\Local\Temp\ccmQLYsM.s:2660   .text.wpa_validate_wpa_ie:000000000000049a .L0 
C:\Users\stapi\AppData\Local\Temp\ccmQLYsM.s:2665   .text.wpa_validate_wpa_ie:000000000000049e .L0 
C:\Users\stapi\AppData\Local\Temp\ccmQLYsM.s:2666   .text.wpa_validate_wpa_ie:000000000000049e .L0 
C:\Users\stapi\AppData\Local\Temp\ccmQLYsM.s:2669   .text.wpa_validate_wpa_ie:00000000000004a4 .L0 
C:\Users\stapi\AppData\Local\Temp\ccmQLYsM.s:2672   .text.wpa_validate_wpa_ie:00000000000004aa .L0 
C:\Users\stapi\AppData\Local\Temp\ccmQLYsM.s:2676   .text.wpa_validate_wpa_ie:00000000000004b0 .L0 
C:\Users\stapi\AppData\Local\Temp\ccmQLYsM.s:2677   .text.wpa_validate_wpa_ie:00000000000004b0 .L0 
C:\Users\stapi\AppData\Local\Temp\ccmQLYsM.s:2678   .text.wpa_validate_wpa_ie:00000000000004b0 .L0 
C:\Users\stapi\AppData\Local\Temp\ccmQLYsM.s:2681   .text.wpa_validate_wpa_ie:00000000000004b6 .L0 
C:\Users\stapi\AppData\Local\Temp\ccmQLYsM.s:2683   .text.wpa_validate_wpa_ie:00000000000004b8 .L0 
C:\Users\stapi\AppData\Local\Temp\ccmQLYsM.s:2685   .text.wpa_validate_wpa_ie:00000000000004ba .L0 
C:\Users\stapi\AppData\Local\Temp\ccmQLYsM.s:2688   .text.wpa_validate_wpa_ie:00000000000004c0 .L0 
C:\Users\stapi\AppData\Local\Temp\ccmQLYsM.s:2690   .text.wpa_validate_wpa_ie:00000000000004c2 .L0 
C:\Users\stapi\AppData\Local\Temp\ccmQLYsM.s:2692   .text.wpa_validate_wpa_ie:00000000000004c4 .L0 
C:\Users\stapi\AppData\Local\Temp\ccmQLYsM.s:2693   .text.wpa_validate_wpa_ie:00000000000004c4 .L0 
C:\Users\stapi\AppData\Local\Temp\ccmQLYsM.s:2695   .text.wpa_validate_wpa_ie:00000000000004c6 .L0 
C:\Users\stapi\AppData\Local\Temp\ccmQLYsM.s:2696   .text.wpa_validate_wpa_ie:00000000000004c6 .L0 
C:\Users\stapi\AppData\Local\Temp\ccmQLYsM.s:2698   .text.wpa_validate_wpa_ie:00000000000004c8 .L0 
C:\Users\stapi\AppData\Local\Temp\ccmQLYsM.s:2699   .text.wpa_validate_wpa_ie:00000000000004c8 .L0 
C:\Users\stapi\AppData\Local\Temp\ccmQLYsM.s:2702   .text.wpa_validate_wpa_ie:00000000000004d0 .L0 
C:\Users\stapi\AppData\Local\Temp\ccmQLYsM.s:2703   .text.wpa_validate_wpa_ie:00000000000004d0 .L0 
C:\Users\stapi\AppData\Local\Temp\ccmQLYsM.s:2706   .text.wpa_validate_wpa_ie:00000000000004d4 .L0 
C:\Users\stapi\AppData\Local\Temp\ccmQLYsM.s:2714   .text.wpa_validate_wpa_ie:00000000000004ea .L0 
C:\Users\stapi\AppData\Local\Temp\ccmQLYsM.s:2715   .text.wpa_validate_wpa_ie:00000000000004ea .L0 
C:\Users\stapi\AppData\Local\Temp\ccmQLYsM.s:2722   .text.wpa_validate_wpa_ie:00000000000004fc .L0 
C:\Users\stapi\AppData\Local\Temp\ccmQLYsM.s:2725   .text.wpa_validate_wpa_ie:00000000000004fe .L0 
C:\Users\stapi\AppData\Local\Temp\ccmQLYsM.s:2728   .text.wpa_validate_wpa_ie:0000000000000502 .L0 
C:\Users\stapi\AppData\Local\Temp\ccmQLYsM.s:2731   .text.wpa_validate_wpa_ie:0000000000000502 .L0 
C:\Users\stapi\AppData\Local\Temp\ccmQLYsM.s:2732   .text.wpa_validate_wpa_ie:0000000000000502 .L0 
C:\Users\stapi\AppData\Local\Temp\ccmQLYsM.s:2733   .text.wpa_validate_wpa_ie:0000000000000502 .L0 
C:\Users\stapi\AppData\Local\Temp\ccmQLYsM.s:2735   .text.wpa_validate_wpa_ie:0000000000000506 .L0 
C:\Users\stapi\AppData\Local\Temp\ccmQLYsM.s:2737   .text.wpa_validate_wpa_ie:0000000000000508 .L0 
C:\Users\stapi\AppData\Local\Temp\ccmQLYsM.s:2740   .text.wpa_validate_wpa_ie:000000000000050c .L0 
C:\Users\stapi\AppData\Local\Temp\ccmQLYsM.s:2741   .text.wpa_validate_wpa_ie:000000000000050c .L0 
C:\Users\stapi\AppData\Local\Temp\ccmQLYsM.s:2742   .text.wpa_validate_wpa_ie:000000000000050c .L0 
C:\Users\stapi\AppData\Local\Temp\ccmQLYsM.s:2745   .text.wpa_validate_wpa_ie:0000000000000510 .L0 
C:\Users\stapi\AppData\Local\Temp\ccmQLYsM.s:2746   .text.wpa_validate_wpa_ie:0000000000000510 .L0 
C:\Users\stapi\AppData\Local\Temp\ccmQLYsM.s:2748   .text.wpa_validate_wpa_ie:0000000000000514 .L0 
C:\Users\stapi\AppData\Local\Temp\ccmQLYsM.s:2751   .text.wpa_validate_wpa_ie:000000000000051a .L0 
C:\Users\stapi\AppData\Local\Temp\ccmQLYsM.s:2754   .text.wpa_validate_wpa_ie:000000000000051e .L0 
C:\Users\stapi\AppData\Local\Temp\ccmQLYsM.s:2759   .text.wpa_validate_wpa_ie:0000000000000522 .L0 
C:\Users\stapi\AppData\Local\Temp\ccmQLYsM.s:2763   .text.wpa_validate_wpa_ie:000000000000052a .L0 
C:\Users\stapi\AppData\Local\Temp\ccmQLYsM.s:2771   .text.wpa_validate_wpa_ie:0000000000000540 .L0 
C:\Users\stapi\AppData\Local\Temp\ccmQLYsM.s:2779   .text.wpa_validate_wpa_ie:0000000000000550 .L0 
C:\Users\stapi\AppData\Local\Temp\ccmQLYsM.s:2780   .text.wpa_validate_wpa_ie:0000000000000550 .L0 
C:\Users\stapi\AppData\Local\Temp\ccmQLYsM.s:2782   .text.wpa_validate_wpa_ie:0000000000000554 .L0 
C:\Users\stapi\AppData\Local\Temp\ccmQLYsM.s:2785   .text.wpa_validate_wpa_ie:000000000000055c .L0 
C:\Users\stapi\AppData\Local\Temp\ccmQLYsM.s:2788   .text.wpa_validate_wpa_ie:0000000000000560 .L0 
C:\Users\stapi\AppData\Local\Temp\ccmQLYsM.s:2791   .text.wpa_validate_wpa_ie:0000000000000566 .L0 
C:\Users\stapi\AppData\Local\Temp\ccmQLYsM.s:2799   .text.wpa_validate_wpa_ie:000000000000057e .L0 
C:\Users\stapi\AppData\Local\Temp\ccmQLYsM.s:2800   .text.wpa_validate_wpa_ie:000000000000057e .L0 
C:\Users\stapi\AppData\Local\Temp\ccmQLYsM.s:2805   .text.wpa_validate_wpa_ie:0000000000000582 .L0 
C:\Users\stapi\AppData\Local\Temp\ccmQLYsM.s:2806   .text.wpa_validate_wpa_ie:0000000000000582 .L0 
C:\Users\stapi\AppData\Local\Temp\ccmQLYsM.s:2812   .text.wpa_validate_wpa_ie:0000000000000586 .L0 
C:\Users\stapi\AppData\Local\Temp\ccmQLYsM.s:2813   .text.wpa_validate_wpa_ie:0000000000000586 .L0 
C:\Users\stapi\AppData\Local\Temp\ccmQLYsM.s:2820   .text.wpa_validate_wpa_ie:000000000000058a .L0 
C:\Users\stapi\AppData\Local\Temp\ccmQLYsM.s:2827   .text.wpa_validate_wpa_ie:0000000000000594 .L0 
C:\Users\stapi\AppData\Local\Temp\ccmQLYsM.s:2828   .text.wpa_validate_wpa_ie:0000000000000594 .L0 
C:\Users\stapi\AppData\Local\Temp\ccmQLYsM.s:2830   .text.wpa_validate_wpa_ie:0000000000000596 .L0 
C:\Users\stapi\AppData\Local\Temp\ccmQLYsM.s:2832   .text.wpa_validate_wpa_ie:0000000000000598 .L0 
C:\Users\stapi\AppData\Local\Temp\ccmQLYsM.s:2836   .text.wpa_validate_wpa_ie:00000000000005a2 .L0 
C:\Users\stapi\AppData\Local\Temp\ccmQLYsM.s:2840   .text.wpa_validate_wpa_ie:00000000000005ac .L0 
C:\Users\stapi\AppData\Local\Temp\ccmQLYsM.s:2844   .text.wpa_validate_wpa_ie:00000000000005b2 .L0 
C:\Users\stapi\AppData\Local\Temp\ccmQLYsM.s:2846   .text.wpa_validate_wpa_ie:00000000000005b4 .L0 
C:\Users\stapi\AppData\Local\Temp\ccmQLYsM.s:2847   .text.wpa_validate_wpa_ie:00000000000005b4 .L0 
C:\Users\stapi\AppData\Local\Temp\ccmQLYsM.s:2850   .text.wpa_validate_wpa_ie:00000000000005ba .L0 
C:\Users\stapi\AppData\Local\Temp\ccmQLYsM.s:2851   .text.wpa_validate_wpa_ie:00000000000005ba .L0 
C:\Users\stapi\AppData\Local\Temp\ccmQLYsM.s:2853   .text.wpa_validate_wpa_ie:00000000000005bc .L0 
C:\Users\stapi\AppData\Local\Temp\ccmQLYsM.s:2860   .text.wpa_validate_wpa_ie:00000000000005c0 .L0 
C:\Users\stapi\AppData\Local\Temp\ccmQLYsM.s:2861   .text.wpa_validate_wpa_ie:00000000000005c0 .L0 
C:\Users\stapi\AppData\Local\Temp\ccmQLYsM.s:2862   .text.wpa_validate_wpa_ie:00000000000005c0 .L0 
C:\Users\stapi\AppData\Local\Temp\ccmQLYsM.s:2866   .text.wpa_validate_wpa_ie:00000000000005ca .L0 
C:\Users\stapi\AppData\Local\Temp\ccmQLYsM.s:2869   .text.wpa_validate_wpa_ie:00000000000005ce .L0 
C:\Users\stapi\AppData\Local\Temp\ccmQLYsM.s:2872   .text.wpa_validate_wpa_ie:00000000000005d6 .L0 
C:\Users\stapi\AppData\Local\Temp\ccmQLYsM.s:2878   .text.wpa_validate_wpa_ie:00000000000005e4 .L0 
C:\Users\stapi\AppData\Local\Temp\ccmQLYsM.s:2879   .text.wpa_validate_wpa_ie:00000000000005e4 .L0 
C:\Users\stapi\AppData\Local\Temp\ccmQLYsM.s:2881   .text.wpa_validate_wpa_ie:00000000000005e8 .L0 
C:\Users\stapi\AppData\Local\Temp\ccmQLYsM.s:2883   .text.wpa_validate_wpa_ie:00000000000005ea .L0 
C:\Users\stapi\AppData\Local\Temp\ccmQLYsM.s:2887   .text.wpa_validate_wpa_ie:00000000000005f2 .L0 
C:\Users\stapi\AppData\Local\Temp\ccmQLYsM.s:2893   .text.wpa_validate_wpa_ie:0000000000000602 .L0 
C:\Users\stapi\AppData\Local\Temp\ccmQLYsM.s:2894   .text.wpa_validate_wpa_ie:0000000000000602 .L0 
C:\Users\stapi\AppData\Local\Temp\ccmQLYsM.s:2896   .text.wpa_validate_wpa_ie:0000000000000606 .L0 
C:\Users\stapi\AppData\Local\Temp\ccmQLYsM.s:2898   .text.wpa_validate_wpa_ie:000000000000060a .L0 
C:\Users\stapi\AppData\Local\Temp\ccmQLYsM.s:2901   .text.wpa_validate_wpa_ie:000000000000060e .L0 
C:\Users\stapi\AppData\Local\Temp\ccmQLYsM.s:2904   .text.wpa_validate_wpa_ie:0000000000000616 .L0 
C:\Users\stapi\AppData\Local\Temp\ccmQLYsM.s:2905   .text.wpa_validate_wpa_ie:0000000000000616 .L0 
C:\Users\stapi\AppData\Local\Temp\ccmQLYsM.s:2907   .text.wpa_validate_wpa_ie:000000000000061a .L0 
C:\Users\stapi\AppData\Local\Temp\ccmQLYsM.s:2908   .text.wpa_validate_wpa_ie:000000000000061a .L0 
C:\Users\stapi\AppData\Local\Temp\ccmQLYsM.s:2912   .text.wpa_validate_wpa_ie:0000000000000620 .L0 
C:\Users\stapi\AppData\Local\Temp\ccmQLYsM.s:2913   .text.wpa_validate_wpa_ie:0000000000000620 .L0 
C:\Users\stapi\AppData\Local\Temp\ccmQLYsM.s:2917   .text.wpa_validate_wpa_ie:0000000000000626 .L0 
C:\Users\stapi\AppData\Local\Temp\ccmQLYsM.s:2920   .text.wpa_validate_wpa_ie:000000000000062e .L0 
C:\Users\stapi\AppData\Local\Temp\ccmQLYsM.s:2921   .text.wpa_validate_wpa_ie:000000000000062e .L0 
C:\Users\stapi\AppData\Local\Temp\ccmQLYsM.s:2925   .text.wpa_validate_wpa_ie:0000000000000638 .L0 
C:\Users\stapi\AppData\Local\Temp\ccmQLYsM.s:2927   .text.wpa_validate_wpa_ie:000000000000063c .L0 
C:\Users\stapi\AppData\Local\Temp\ccmQLYsM.s:2928   .text.wpa_validate_wpa_ie:000000000000063c .L0 
C:\Users\stapi\AppData\Local\Temp\ccmQLYsM.s:2931   .text.wpa_validate_wpa_ie:000000000000063e .L0 
C:\Users\stapi\AppData\Local\Temp\ccmQLYsM.s:2935   .text.wpa_validate_wpa_ie:0000000000000642 .L0 
C:\Users\stapi\AppData\Local\Temp\ccmQLYsM.s:2937   .text.wpa_validate_wpa_ie:0000000000000646 .L0 
C:\Users\stapi\AppData\Local\Temp\ccmQLYsM.s:2938   .text.wpa_validate_wpa_ie:0000000000000646 .L0 
C:\Users\stapi\AppData\Local\Temp\ccmQLYsM.s:2940   .text.wpa_validate_wpa_ie:0000000000000648 .L0 
C:\Users\stapi\AppData\Local\Temp\ccmQLYsM.s:2944   .text.wpa_validate_wpa_ie:0000000000000650 .L0 
C:\Users\stapi\AppData\Local\Temp\ccmQLYsM.s:2950   .text.wpa_validate_wpa_ie:0000000000000660 .L0 
C:\Users\stapi\AppData\Local\Temp\ccmQLYsM.s:2951   .text.wpa_validate_wpa_ie:0000000000000660 .L0 
C:\Users\stapi\AppData\Local\Temp\ccmQLYsM.s:2954   .text.wpa_validate_wpa_ie:0000000000000664 .L0 
C:\Users\stapi\AppData\Local\Temp\ccmQLYsM.s:2958   .text.wpa_validate_wpa_ie:0000000000000668 .L0 
C:\Users\stapi\AppData\Local\Temp\ccmQLYsM.s:2961   .text.wpa_validate_wpa_ie:0000000000000670 .L0 
C:\Users\stapi\AppData\Local\Temp\ccmQLYsM.s:2962   .text.wpa_validate_wpa_ie:0000000000000670 .L0 
C:\Users\stapi\AppData\Local\Temp\ccmQLYsM.s:2966   .text.wpa_validate_wpa_ie:000000000000067a .L0 
C:\Users\stapi\AppData\Local\Temp\ccmQLYsM.s:2968   .text.wpa_validate_wpa_ie:000000000000067e .L0 
C:\Users\stapi\AppData\Local\Temp\ccmQLYsM.s:2969   .text.wpa_validate_wpa_ie:000000000000067e .L0 
C:\Users\stapi\AppData\Local\Temp\ccmQLYsM.s:2973   .text.wpa_validate_wpa_ie:0000000000000682 .L0 
C:\Users\stapi\AppData\Local\Temp\ccmQLYsM.s:2974   .text.wpa_validate_wpa_ie:0000000000000682 .L0 
C:\Users\stapi\AppData\Local\Temp\ccmQLYsM.s:2975   .text.wpa_validate_wpa_ie:0000000000000682 .L0 
C:\Users\stapi\AppData\Local\Temp\ccmQLYsM.s:2976   .text.wpa_validate_wpa_ie:0000000000000682 .L0 
C:\Users\stapi\AppData\Local\Temp\ccmQLYsM.s:2977   .text.wpa_validate_wpa_ie:0000000000000682 .L0 
C:\Users\stapi\AppData\Local\Temp\ccmQLYsM.s:2978   .text.wpa_validate_wpa_ie:0000000000000682 .L0 
C:\Users\stapi\AppData\Local\Temp\ccmQLYsM.s:2979   .text.wpa_validate_wpa_ie:0000000000000682 .L0 
C:\Users\stapi\AppData\Local\Temp\ccmQLYsM.s:2980   .text.wpa_validate_wpa_ie:0000000000000682 .L0 
C:\Users\stapi\AppData\Local\Temp\ccmQLYsM.s:2981   .text.wpa_validate_wpa_ie:0000000000000682 .L0 
C:\Users\stapi\AppData\Local\Temp\ccmQLYsM.s:2982   .text.wpa_validate_wpa_ie:0000000000000682 .L0 
C:\Users\stapi\AppData\Local\Temp\ccmQLYsM.s:2983   .text.wpa_validate_wpa_ie:0000000000000682 .L0 
C:\Users\stapi\AppData\Local\Temp\ccmQLYsM.s:2984   .text.wpa_validate_wpa_ie:0000000000000682 .L0 
C:\Users\stapi\AppData\Local\Temp\ccmQLYsM.s:2985   .text.wpa_validate_wpa_ie:0000000000000682 .L0 
C:\Users\stapi\AppData\Local\Temp\ccmQLYsM.s:2986   .text.wpa_validate_wpa_ie:0000000000000682 .L0 
C:\Users\stapi\AppData\Local\Temp\ccmQLYsM.s:2988   .text.wpa_validate_wpa_ie:0000000000000682 .L0 
C:\Users\stapi\AppData\Local\Temp\ccmQLYsM.s:2991   .text.wpa_validate_wpa_ie:0000000000000684 .L0 
C:\Users\stapi\AppData\Local\Temp\ccmQLYsM.s:2992   .text.wpa_validate_wpa_ie:0000000000000686 .L0 
C:\Users\stapi\AppData\Local\Temp\ccmQLYsM.s:2999   .text.wpa_auth_uses_mfp:0000000000000000 wpa_auth_uses_mfp
C:\Users\stapi\AppData\Local\Temp\ccmQLYsM.s:3002   .text.wpa_auth_uses_mfp:0000000000000000 .L0 
C:\Users\stapi\AppData\Local\Temp\ccmQLYsM.s:3004   .text.wpa_auth_uses_mfp:0000000000000000 .L0 
C:\Users\stapi\AppData\Local\Temp\ccmQLYsM.s:3005   .text.wpa_auth_uses_mfp:0000000000000000 .L0 
C:\Users\stapi\AppData\Local\Temp\ccmQLYsM.s:3006   .text.wpa_auth_uses_mfp:0000000000000000 .L0 
C:\Users\stapi\AppData\Local\Temp\ccmQLYsM.s:3008   .text.wpa_auth_uses_mfp:0000000000000002 .L0 
C:\Users\stapi\AppData\Local\Temp\ccmQLYsM.s:3011   .text.wpa_auth_uses_mfp:0000000000000006 .L0 
C:\Users\stapi\AppData\Local\Temp\ccmQLYsM.s:3016   .text.wpa_auth_uses_mfp:000000000000000c .L0 
C:\Users\stapi\AppData\Local\Temp\ccmQLYsM.s:3019   .text.wpa_auth_uses_mfp:000000000000000e .L0 
C:\Users\stapi\AppData\Local\Temp\ccmQLYsM.s:3020   .text.wpa_auth_uses_mfp:0000000000000010 .L0 
C:\Users\stapi\AppData\Local\Temp\ccmQLYsM.s:48     .text.wpa_auth_okc_iter:000000000000002a .L0 
C:\Users\stapi\AppData\Local\Temp\ccmQLYsM.s:855    .text.wpa_write_rsn_ie:00000000000002fa .L0 
C:\Users\stapi\AppData\Local\Temp\ccmQLYsM.s:1013   .text.wpa_write_rsnxe:0000000000000098 .L0 
C:\Users\stapi\AppData\Local\Temp\ccmQLYsM.s:1633   .text.wpa_auth_gen_wpa_ie:0000000000000212 .L0 
C:\Users\stapi\AppData\Local\Temp\ccmQLYsM.s:1747   .text.wpa_add_kde:0000000000000070 .L0 
C:\Users\stapi\AppData\Local\Temp\ccmQLYsM.s:2995   .text.wpa_validate_wpa_ie:0000000000000686 .L0 
C:\Users\stapi\AppData\Local\Temp\ccmQLYsM.s:3023   .text.wpa_auth_uses_mfp:0000000000000010 .L0 
                     .debug_frame:0000000000000000 .L0 
C:\Users\stapi\AppData\Local\Temp\ccmQLYsM.s:50     .rodata.wpa_write_rsn_ie.str1.4:0000000000000000 .LC0
C:\Users\stapi\AppData\Local\Temp\ccmQLYsM.s:53     .rodata.wpa_write_rsn_ie.str1.4:000000000000001c .LC1
C:\Users\stapi\AppData\Local\Temp\ccmQLYsM.s:56     .rodata.wpa_write_rsn_ie.str1.4:000000000000003c .LC2
C:\Users\stapi\AppData\Local\Temp\ccmQLYsM.s:59     .rodata.wpa_write_rsn_ie.str1.4:0000000000000060 .LC3
C:\Users\stapi\AppData\Local\Temp\ccmQLYsM.s:144    .text.wpa_write_rsn_ie:0000000000000046 .L4
C:\Users\stapi\AppData\Local\Temp\ccmQLYsM.s:619    .text.wpa_write_rsn_ie:0000000000000204 .L68
C:\Users\stapi\AppData\Local\Temp\ccmQLYsM.s:198    .text.wpa_write_rsn_ie:0000000000000086 .L6
C:\Users\stapi\AppData\Local\Temp\ccmQLYsM.s:137    .text.wpa_write_rsn_ie:000000000000003a .L69
C:\Users\stapi\AppData\Local\Temp\ccmQLYsM.s:256    .text.wpa_write_rsn_ie:00000000000000ba .L8
C:\Users\stapi\AppData\Local\Temp\ccmQLYsM.s:294    .text.wpa_write_rsn_ie:00000000000000dc .L9
C:\Users\stapi\AppData\Local\Temp\ccmQLYsM.s:332    .text.wpa_write_rsn_ie:0000000000000100 .L10
C:\Users\stapi\AppData\Local\Temp\ccmQLYsM.s:370    .text.wpa_write_rsn_ie:0000000000000124 .L11
C:\Users\stapi\AppData\Local\Temp\ccmQLYsM.s:408    .text.wpa_write_rsn_ie:0000000000000148 .L12
C:\Users\stapi\AppData\Local\Temp\ccmQLYsM.s:446    .text.wpa_write_rsn_ie:000000000000016c .L13
C:\Users\stapi\AppData\Local\Temp\ccmQLYsM.s:485    .text.wpa_write_rsn_ie:0000000000000190 .L14
C:\Users\stapi\AppData\Local\Temp\ccmQLYsM.s:636    .text.wpa_write_rsn_ie:000000000000020e .L15
C:\Users\stapi\AppData\Local\Temp\ccmQLYsM.s:560    .text.wpa_write_rsn_ie:00000000000001cc .L17
C:\Users\stapi\AppData\Local\Temp\ccmQLYsM.s:575    .text.wpa_write_rsn_ie:00000000000001da .L18
C:\Users\stapi\AppData\Local\Temp\ccmQLYsM.s:646    .text.wpa_write_rsn_ie:000000000000021a .L19
C:\Users\stapi\AppData\Local\Temp\ccmQLYsM.s:584    .text.wpa_write_rsn_ie:00000000000001e2 .L20
C:\Users\stapi\AppData\Local\Temp\ccmQLYsM.s:683    .text.wpa_write_rsn_ie:000000000000023e .L21
C:\Users\stapi\AppData\Local\Temp\ccmQLYsM.s:655    .text.wpa_write_rsn_ie:0000000000000220 .L22
C:\Users\stapi\AppData\Local\Temp\ccmQLYsM.s:526    .text.wpa_write_rsn_ie:00000000000001b6 .L16
C:\Users\stapi\AppData\Local\Temp\ccmQLYsM.s:796    .text.wpa_write_rsn_ie:00000000000002c0 .L23
C:\Users\stapi\AppData\Local\Temp\ccmQLYsM.s:721    .text.wpa_write_rsn_ie:0000000000000266 .L25
C:\Users\stapi\AppData\Local\Temp\ccmQLYsM.s:829    .text.wpa_write_rsn_ie:00000000000002e4 .L26
C:\Users\stapi\AppData\Local\Temp\ccmQLYsM.s:738    .text.wpa_write_rsn_ie:000000000000028a .L27
C:\Users\stapi\AppData\Local\Temp\ccmQLYsM.s:762    .text.wpa_write_rsn_ie:00000000000002a6 .L28
C:\Users\stapi\AppData\Local\Temp\ccmQLYsM.s:809    .text.wpa_write_rsn_ie:00000000000002ce .L29
C:\Users\stapi\AppData\Local\Temp\ccmQLYsM.s:733    .text.wpa_write_rsn_ie:0000000000000280 .L30
C:\Users\stapi\AppData\Local\Temp\ccmQLYsM.s:783    .text.wpa_write_rsn_ie:00000000000002ba .L67
C:\Users\stapi\AppData\Local\Temp\ccmQLYsM.s:623    .text.wpa_write_rsn_ie:0000000000000206 .L3
C:\Users\stapi\AppData\Local\Temp\ccmQLYsM.s:898    .text.wpa_write_rsnxe:0000000000000028 .L71
C:\Users\stapi\AppData\Local\Temp\ccmQLYsM.s:910    .text.wpa_write_rsnxe:0000000000000036 .L72
C:\Users\stapi\AppData\Local\Temp\ccmQLYsM.s:919    .text.wpa_write_rsnxe:0000000000000040 .L73
C:\Users\stapi\AppData\Local\Temp\ccmQLYsM.s:991    .text.wpa_write_rsnxe:0000000000000086 .L74
C:\Users\stapi\AppData\Local\Temp\ccmQLYsM.s:940    .text.wpa_write_rsnxe:0000000000000054 .L78
C:\Users\stapi\AppData\Local\Temp\ccmQLYsM.s:1007   .text.wpa_write_rsnxe:0000000000000096 .L70
C:\Users\stapi\AppData\Local\Temp\ccmQLYsM.s:984    .text.wpa_write_rsnxe:0000000000000082 .L80
C:\Users\stapi\AppData\Local\Temp\ccmQLYsM.s:929    .text.wpa_write_rsnxe:0000000000000048 .L84
C:\Users\stapi\AppData\Local\Temp\ccmQLYsM.s:933    .text.wpa_write_rsnxe:000000000000004a .L75
C:\Users\stapi\AppData\Local\Temp\ccmQLYsM.s:1346   .text.wpa_auth_gen_wpa_ie:00000000000000e0 .L96
C:\Users\stapi\AppData\Local\Temp\ccmQLYsM.s:1174   .text.wpa_auth_gen_wpa_ie:000000000000005a .L97
C:\Users\stapi\AppData\Local\Temp\ccmQLYsM.s:1190   .text.wpa_auth_gen_wpa_ie:000000000000006a .L98
C:\Users\stapi\AppData\Local\Temp\ccmQLYsM.s:1336   .text.wpa_auth_gen_wpa_ie:00000000000000da .L99
C:\Users\stapi\AppData\Local\Temp\ccmQLYsM.s:1625   .text.wpa_auth_gen_wpa_ie:000000000000020e .L111
C:\Users\stapi\AppData\Local\Temp\ccmQLYsM.s:1393   .text.wpa_auth_gen_wpa_ie:0000000000000120 .L103
C:\Users\stapi\AppData\Local\Temp\ccmQLYsM.s:1222   .text.wpa_auth_gen_wpa_ie:000000000000007a .L100
C:\Users\stapi\AppData\Local\Temp\ccmQLYsM.s:1318   .text.wpa_auth_gen_wpa_ie:00000000000000ce .L95
C:\Users\stapi\AppData\Local\Temp\ccmQLYsM.s:1449   .text.wpa_auth_gen_wpa_ie:000000000000015a .L104
C:\Users\stapi\AppData\Local\Temp\ccmQLYsM.s:1304   .text.wpa_auth_gen_wpa_ie:00000000000000c2 .L119
C:\Users\stapi\AppData\Local\Temp\ccmQLYsM.s:1511   .text.wpa_auth_gen_wpa_ie:000000000000018e .L106
C:\Users\stapi\AppData\Local\Temp\ccmQLYsM.s:1613   .text.wpa_auth_gen_wpa_ie:0000000000000202 .L107
C:\Users\stapi\AppData\Local\Temp\ccmQLYsM.s:1549   .text.wpa_auth_gen_wpa_ie:00000000000001b0 .L108
C:\Users\stapi\AppData\Local\Temp\ccmQLYsM.s:1579   .text.wpa_auth_gen_wpa_ie:00000000000001c8 .L102
C:\Users\stapi\AppData\Local\Temp\ccmQLYsM.s:1734   .text.wpa_add_kde:0000000000000066 .L120
C:\Users\stapi\AppData\Local\Temp\ccmQLYsM.s:1761   .rodata.wpa_validate_wpa_ie.str1.4:0000000000000010 .LC8
C:\Users\stapi\AppData\Local\Temp\ccmQLYsM.s:1764   .rodata.wpa_validate_wpa_ie.str1.4:000000000000004c .LC9
C:\Users\stapi\AppData\Local\Temp\ccmQLYsM.s:1767   .rodata.wpa_validate_wpa_ie.str1.4:00000000000000d0 .LC10
C:\Users\stapi\AppData\Local\Temp\ccmQLYsM.s:1770   .rodata.wpa_validate_wpa_ie.str1.4:0000000000000118 .LC11
C:\Users\stapi\AppData\Local\Temp\ccmQLYsM.s:1773   .rodata.wpa_validate_wpa_ie.str1.4:0000000000000124 .LC12
C:\Users\stapi\AppData\Local\Temp\ccmQLYsM.s:1776   .rodata.wpa_validate_wpa_ie.str1.4:0000000000000168 .LC13
C:\Users\stapi\AppData\Local\Temp\ccmQLYsM.s:1749   .rodata.wpa_validate_wpa_ie.str1.4:0000000000000000 .LC4
C:\Users\stapi\AppData\Local\Temp\ccmQLYsM.s:1752   .rodata.wpa_validate_wpa_ie.str1.4:0000000000000004 .LC5
C:\Users\stapi\AppData\Local\Temp\ccmQLYsM.s:1779   .rodata.wpa_validate_wpa_ie.str1.4:00000000000001a8 .LC14
C:\Users\stapi\AppData\Local\Temp\ccmQLYsM.s:1782   .rodata.wpa_validate_wpa_ie.str1.4:00000000000001f0 .LC15
C:\Users\stapi\AppData\Local\Temp\ccmQLYsM.s:1785   .rodata.wpa_validate_wpa_ie.str1.4:0000000000000234 .LC16
C:\Users\stapi\AppData\Local\Temp\ccmQLYsM.s:1788   .rodata.wpa_validate_wpa_ie.str1.4:000000000000025c .LC17
C:\Users\stapi\AppData\Local\Temp\ccmQLYsM.s:1791   .rodata.wpa_validate_wpa_ie.str1.4:00000000000002a8 .LC18
C:\Users\stapi\AppData\Local\Temp\ccmQLYsM.s:1794   .rodata.wpa_validate_wpa_ie.str1.4:00000000000002d4 .LC19
C:\Users\stapi\AppData\Local\Temp\ccmQLYsM.s:1797   .rodata.wpa_validate_wpa_ie.str1.4:00000000000002e8 .LC20
C:\Users\stapi\AppData\Local\Temp\ccmQLYsM.s:1758   .rodata.wpa_validate_wpa_ie.str1.4:000000000000000c .LC7
C:\Users\stapi\AppData\Local\Temp\ccmQLYsM.s:1800   .rodata.wpa_validate_wpa_ie.str1.4:00000000000002fc .LC21
C:\Users\stapi\AppData\Local\Temp\ccmQLYsM.s:1803   .rodata.wpa_validate_wpa_ie.str1.4:0000000000000330 .LC22
C:\Users\stapi\AppData\Local\Temp\ccmQLYsM.s:1755   .rodata.wpa_validate_wpa_ie.str1.4:0000000000000008 .LC6
C:\Users\stapi\AppData\Local\Temp\ccmQLYsM.s:1806   .rodata.wpa_validate_wpa_ie.str1.4:0000000000000354 .LC23
C:\Users\stapi\AppData\Local\Temp\ccmQLYsM.s:2972   .text.wpa_validate_wpa_ie:0000000000000682 .L183
C:\Users\stapi\AppData\Local\Temp\ccmQLYsM.s:1907   .text.wpa_validate_wpa_ie:0000000000000070 .L126
C:\Users\stapi\AppData\Local\Temp\ccmQLYsM.s:1876   .text.wpa_validate_wpa_ie:0000000000000038 .L128
C:\Users\stapi\AppData\Local\Temp\ccmQLYsM.s:1928   .text.wpa_validate_wpa_ie:000000000000007a .L129
C:\Users\stapi\AppData\Local\Temp\ccmQLYsM.s:2194   .text.wpa_validate_wpa_ie:0000000000000200 .L130
C:\Users\stapi\AppData\Local\Temp\ccmQLYsM.s:1961   .text.wpa_validate_wpa_ie:00000000000000a0 .L131
C:\Users\stapi\AppData\Local\Temp\ccmQLYsM.s:1973   .text.wpa_validate_wpa_ie:00000000000000b0 .L132
C:\Users\stapi\AppData\Local\Temp\ccmQLYsM.s:2030   .text.wpa_validate_wpa_ie:0000000000000102 .L133
C:\Users\stapi\AppData\Local\Temp\ccmQLYsM.s:2157   .text.wpa_validate_wpa_ie:00000000000001ba .L188
C:\Users\stapi\AppData\Local\Temp\ccmQLYsM.s:2162   .text.wpa_validate_wpa_ie:00000000000001c4 .L189
C:\Users\stapi\AppData\Local\Temp\ccmQLYsM.s:2167   .text.wpa_validate_wpa_ie:00000000000001ce .L190
C:\Users\stapi\AppData\Local\Temp\ccmQLYsM.s:2172   .text.wpa_validate_wpa_ie:00000000000001d8 .L191
C:\Users\stapi\AppData\Local\Temp\ccmQLYsM.s:2177   .text.wpa_validate_wpa_ie:00000000000001e2 .L192
C:\Users\stapi\AppData\Local\Temp\ccmQLYsM.s:2182   .text.wpa_validate_wpa_ie:00000000000001ec .L193
C:\Users\stapi\AppData\Local\Temp\ccmQLYsM.s:2187   .text.wpa_validate_wpa_ie:00000000000001f6 .L194
C:\Users\stapi\AppData\Local\Temp\ccmQLYsM.s:2190   .text.wpa_validate_wpa_ie:00000000000001fa .L195
C:\Users\stapi\AppData\Local\Temp\ccmQLYsM.s:2101   .text.wpa_validate_wpa_ie:0000000000000156 .L135
C:\Users\stapi\AppData\Local\Temp\ccmQLYsM.s:2123   .text.wpa_validate_wpa_ie:000000000000016e .L140
C:\Users\stapi\AppData\Local\Temp\ccmQLYsM.s:2266   .text.wpa_validate_wpa_ie:000000000000025a .L141
C:\Users\stapi\AppData\Local\Temp\ccmQLYsM.s:2082   .text.wpa_validate_wpa_ie:000000000000013c .L134
C:\Users\stapi\AppData\Local\Temp\ccmQLYsM.s:2260   .text.wpa_validate_wpa_ie:0000000000000250 .L197
C:\Users\stapi\AppData\Local\Temp\ccmQLYsM.s:2238   .text.wpa_validate_wpa_ie:0000000000000236 .L139
C:\Users\stapi\AppData\Local\Temp\ccmQLYsM.s:2218   .text.wpa_validate_wpa_ie:000000000000021e .L138
C:\Users\stapi\AppData\Local\Temp\ccmQLYsM.s:2293   .text.wpa_validate_wpa_ie:0000000000000292 .L142
C:\Users\stapi\AppData\Local\Temp\ccmQLYsM.s:2325   .text.wpa_validate_wpa_ie:00000000000002ca .L143
C:\Users\stapi\AppData\Local\Temp\ccmQLYsM.s:2361   .text.wpa_validate_wpa_ie:00000000000002f0 .L144
C:\Users\stapi\AppData\Local\Temp\ccmQLYsM.s:2429   .text.wpa_validate_wpa_ie:0000000000000338 .L152
C:\Users\stapi\AppData\Local\Temp\ccmQLYsM.s:2465   .text.wpa_validate_wpa_ie:0000000000000378 .L154
C:\Users\stapi\AppData\Local\Temp\ccmQLYsM.s:2443   .text.wpa_validate_wpa_ie:0000000000000346 .L153
C:\Users\stapi\AppData\Local\Temp\ccmQLYsM.s:2333   .text.wpa_validate_wpa_ie:00000000000002d4 .L258
C:\Users\stapi\AppData\Local\Temp\ccmQLYsM.s:2382   .text.wpa_validate_wpa_ie:0000000000000308 .L147
C:\Users\stapi\AppData\Local\Temp\ccmQLYsM.s:2338   .text.wpa_validate_wpa_ie:00000000000002d8 .L145
C:\Users\stapi\AppData\Local\Temp\ccmQLYsM.s:2394   .text.wpa_validate_wpa_ie:0000000000000314 .L148
C:\Users\stapi\AppData\Local\Temp\ccmQLYsM.s:2377   .text.wpa_validate_wpa_ie:0000000000000302 .L259
C:\Users\stapi\AppData\Local\Temp\ccmQLYsM.s:2406   .text.wpa_validate_wpa_ie:0000000000000320 .L149
C:\Users\stapi\AppData\Local\Temp\ccmQLYsM.s:2424   .text.wpa_validate_wpa_ie:0000000000000334 .L151
C:\Users\stapi\AppData\Local\Temp\ccmQLYsM.s:2513   .text.wpa_validate_wpa_ie:00000000000003c0 .L155
C:\Users\stapi\AppData\Local\Temp\ccmQLYsM.s:2493   .text.wpa_validate_wpa_ie:00000000000003a0 .L156
C:\Users\stapi\AppData\Local\Temp\ccmQLYsM.s:2550   .text.wpa_validate_wpa_ie:00000000000003f0 .L157
C:\Users\stapi\AppData\Local\Temp\ccmQLYsM.s:2543   .text.wpa_validate_wpa_ie:00000000000003ec .L158
C:\Users\stapi\AppData\Local\Temp\ccmQLYsM.s:2482   .text.wpa_validate_wpa_ie:0000000000000392 .L260
C:\Users\stapi\AppData\Local\Temp\ccmQLYsM.s:2554   .text.wpa_validate_wpa_ie:00000000000003f6 .L159
C:\Users\stapi\AppData\Local\Temp\ccmQLYsM.s:2573   .text.wpa_validate_wpa_ie:000000000000041a .L160
C:\Users\stapi\AppData\Local\Temp\ccmQLYsM.s:2597   .text.wpa_validate_wpa_ie:0000000000000440 .L161
C:\Users\stapi\AppData\Local\Temp\ccmQLYsM.s:2622   .text.wpa_validate_wpa_ie:000000000000045c .L165
C:\Users\stapi\AppData\Local\Temp\ccmQLYsM.s:2650   .text.wpa_validate_wpa_ie:0000000000000490 .L164
C:\Users\stapi\AppData\Local\Temp\ccmQLYsM.s:2803   .text.wpa_validate_wpa_ie:0000000000000582 .L163
C:\Users\stapi\AppData\Local\Temp\ccmQLYsM.s:2729   .text.wpa_validate_wpa_ie:0000000000000502 .L168
C:\Users\stapi\AppData\Local\Temp\ccmQLYsM.s:2810   .text.wpa_validate_wpa_ie:0000000000000586 .L167
C:\Users\stapi\AppData\Local\Temp\ccmQLYsM.s:2776   .text.wpa_validate_wpa_ie:0000000000000550 .L170
C:\Users\stapi\AppData\Local\Temp\ccmQLYsM.s:2757   .text.wpa_validate_wpa_ie:0000000000000522 .L202
C:\Users\stapi\AppData\Local\Temp\ccmQLYsM.s:2817   .text.wpa_validate_wpa_ie:000000000000058a .L203
C:\Users\stapi\AppData\Local\Temp\ccmQLYsM.s:2824   .text.wpa_validate_wpa_ie:0000000000000594 .L172
C:\Users\stapi\AppData\Local\Temp\ccmQLYsM.s:2612   .text.wpa_validate_wpa_ie:0000000000000452 .L162
C:\Users\stapi\AppData\Local\Temp\ccmQLYsM.s:2662   .text.wpa_validate_wpa_ie:000000000000049e .L166
C:\Users\stapi\AppData\Local\Temp\ccmQLYsM.s:2761   .text.wpa_validate_wpa_ie:000000000000052a .L171
C:\Users\stapi\AppData\Local\Temp\ccmQLYsM.s:2910   .text.wpa_validate_wpa_ie:0000000000000620 .L173
C:\Users\stapi\AppData\Local\Temp\ccmQLYsM.s:2867   .text.wpa_validate_wpa_ie:00000000000005ce .L174
C:\Users\stapi\AppData\Local\Temp\ccmQLYsM.s:2915   .text.wpa_validate_wpa_ie:0000000000000626 .L176
C:\Users\stapi\AppData\Local\Temp\ccmQLYsM.s:2933   .text.wpa_validate_wpa_ie:0000000000000642 .L177
C:\Users\stapi\AppData\Local\Temp\ccmQLYsM.s:2952   .text.wpa_validate_wpa_ie:0000000000000664 .L261
C:\Users\stapi\AppData\Local\Temp\ccmQLYsM.s:2876   .text.wpa_validate_wpa_ie:00000000000005e4 .L175
C:\Users\stapi\AppData\Local\Temp\ccmQLYsM.s:2885   .text.wpa_validate_wpa_ie:00000000000005f2 .L179
C:\Users\stapi\AppData\Local\Temp\ccmQLYsM.s:2899   .text.wpa_validate_wpa_ie:000000000000060e .L178
C:\Users\stapi\AppData\Local\Temp\ccmQLYsM.s:2956   .text.wpa_validate_wpa_ie:0000000000000668 .L180
C:\Users\stapi\AppData\Local\Temp\ccmQLYsM.s:2942   .text.wpa_validate_wpa_ie:0000000000000650 .L182
C:\Users\stapi\AppData\Local\Temp\ccmQLYsM.s:2929   .text.wpa_validate_wpa_ie:000000000000063e .L181
C:\Users\stapi\AppData\Local\Temp\ccmQLYsM.s:3014   .text.wpa_auth_uses_mfp:000000000000000c .L264
C:\Users\stapi\AppData\Local\Temp\ccmQLYsM.s:7994   .debug_abbrev:0000000000000000 .Ldebug_abbrev0
C:\Users\stapi\AppData\Local\Temp\ccmQLYsM.s:12328  .debug_str:00000000000015ca .LASF375
C:\Users\stapi\AppData\Local\Temp\ccmQLYsM.s:12086  .debug_str:0000000000000e20 .LASF376
C:\Users\stapi\AppData\Local\Temp\ccmQLYsM.s:11824  .debug_str:000000000000062f .LASF377
C:\Users\stapi\AppData\Local\Temp\ccmQLYsM.s:11470  .debug_ranges:0000000000000000 .Ldebug_ranges0
C:\Users\stapi\AppData\Local\Temp\ccmQLYsM.s:11610  .debug_line:0000000000000000 .Ldebug_line0
C:\Users\stapi\AppData\Local\Temp\ccmQLYsM.s:11864  .debug_str:00000000000007b4 .LASF2
C:\Users\stapi\AppData\Local\Temp\ccmQLYsM.s:12202  .debug_str:0000000000001227 .LASF0
C:\Users\stapi\AppData\Local\Temp\ccmQLYsM.s:12304  .debug_str:00000000000014f9 .LASF1
C:\Users\stapi\AppData\Local\Temp\ccmQLYsM.s:12192  .debug_str:00000000000011da .LASF3
C:\Users\stapi\AppData\Local\Temp\ccmQLYsM.s:12242  .debug_str:0000000000001349 .LASF4
C:\Users\stapi\AppData\Local\Temp\ccmQLYsM.s:12142  .debug_str:0000000000001044 .LASF5
C:\Users\stapi\AppData\Local\Temp\ccmQLYsM.s:11812  .debug_str:00000000000005c7 .LASF6
C:\Users\stapi\AppData\Local\Temp\ccmQLYsM.s:12306  .debug_str:0000000000001505 .LASF7
C:\Users\stapi\AppData\Local\Temp\ccmQLYsM.s:12148  .debug_str:0000000000001065 .LASF8
C:\Users\stapi\AppData\Local\Temp\ccmQLYsM.s:12246  .debug_str:000000000000136b .LASF9
C:\Users\stapi\AppData\Local\Temp\ccmQLYsM.s:12218  .debug_str:0000000000001295 .LASF10
C:\Users\stapi\AppData\Local\Temp\ccmQLYsM.s:12000  .debug_str:0000000000000b7a .LASF11
C:\Users\stapi\AppData\Local\Temp\ccmQLYsM.s:11896  .debug_str:000000000000086c .LASF12
C:\Users\stapi\AppData\Local\Temp\ccmQLYsM.s:11784  .debug_str:00000000000004fa .LASF13
C:\Users\stapi\AppData\Local\Temp\ccmQLYsM.s:11936  .debug_str:00000000000009cd .LASF14
C:\Users\stapi\AppData\Local\Temp\ccmQLYsM.s:11970  .debug_str:0000000000000aa7 .LASF15
C:\Users\stapi\AppData\Local\Temp\ccmQLYsM.s:12104  .debug_str:0000000000000f2a .LASF16
C:\Users\stapi\AppData\Local\Temp\ccmQLYsM.s:11746  .debug_str:0000000000000418 .LASF17
C:\Users\stapi\AppData\Local\Temp\ccmQLYsM.s:12170  .debug_str:00000000000010fe .LASF18
C:\Users\stapi\AppData\Local\Temp\ccmQLYsM.s:11880  .debug_str:0000000000000803 .LASF19
C:\Users\stapi\AppData\Local\Temp\ccmQLYsM.s:11990  .debug_str:0000000000000b4a .LASF20
C:\Users\stapi\AppData\Local\Temp\ccmQLYsM.s:11710  .debug_str:0000000000000321 .LASF67
C:\Users\stapi\AppData\Local\Temp\ccmQLYsM.s:12054  .debug_str:0000000000000d49 .LASF21
C:\Users\stapi\AppData\Local\Temp\ccmQLYsM.s:11738  .debug_str:00000000000003ea .LASF22
C:\Users\stapi\AppData\Local\Temp\ccmQLYsM.s:11658  .debug_str:000000000000019b .LASF23
C:\Users\stapi\AppData\Local\Temp\ccmQLYsM.s:11868  .debug_str:00000000000007c3 .LASF24
C:\Users\stapi\AppData\Local\Temp\ccmQLYsM.s:12084  .debug_str:0000000000000e14 .LASF25
C:\Users\stapi\AppData\Local\Temp\ccmQLYsM.s:11828  .debug_str:00000000000006d8 .LASF26
C:\Users\stapi\AppData\Local\Temp\ccmQLYsM.s:11874  .debug_str:00000000000007ed .LASF27
C:\Users\stapi\AppData\Local\Temp\ccmQLYsM.s:12018  .debug_str:0000000000000c30 .LASF28
C:\Users\stapi\AppData\Local\Temp\ccmQLYsM.s:11928  .debug_str:000000000000099a .LASF29
C:\Users\stapi\AppData\Local\Temp\ccmQLYsM.s:11714  .debug_str:0000000000000340 .LASF43
C:\Users\stapi\AppData\Local\Temp\ccmQLYsM.s:11622  .debug_str:000000000000004f .LASF30
C:\Users\stapi\AppData\Local\Temp\ccmQLYsM.s:11926  .debug_str:000000000000098e .LASF31
C:\Users\stapi\AppData\Local\Temp\ccmQLYsM.s:12060  .debug_str:0000000000000d68 .LASF32
C:\Users\stapi\AppData\Local\Temp\ccmQLYsM.s:12158  .debug_str:00000000000010ac .LASF33
C:\Users\stapi\AppData\Local\Temp\ccmQLYsM.s:11908  .debug_str:00000000000008ff .LASF34
C:\Users\stapi\AppData\Local\Temp\ccmQLYsM.s:11726  .debug_str:0000000000000394 .LASF35
C:\Users\stapi\AppData\Local\Temp\ccmQLYsM.s:11944  .debug_str:00000000000009f9 .LASF36
C:\Users\stapi\AppData\Local\Temp\ccmQLYsM.s:11994  .debug_str:0000000000000b5f .LASF37
C:\Users\stapi\AppData\Local\Temp\ccmQLYsM.s:12176  .debug_str:000000000000112d .LASF38
C:\Users\stapi\AppData\Local\Temp\ccmQLYsM.s:12368  .debug_str:00000000000017f3 .LASF39
C:\Users\stapi\AppData\Local\Temp\ccmQLYsM.s:11634  .debug_str:00000000000000c7 .LASF40
C:\Users\stapi\AppData\Local\Temp\ccmQLYsM.s:12100  .debug_str:0000000000000f06 .LASF41
C:\Users\stapi\AppData\Local\Temp\ccmQLYsM.s:11698  .debug_str:00000000000002bd .LASF42
C:\Users\stapi\AppData\Local\Temp\ccmQLYsM.s:12314  .debug_str:0000000000001552 .LASF44
C:\Users\stapi\AppData\Local\Temp\ccmQLYsM.s:12178  .debug_str:000000000000113e .LASF45
C:\Users\stapi\AppData\Local\Temp\ccmQLYsM.s:12172  .debug_str:0000000000001107 .LASF46
C:\Users\stapi\AppData\Local\Temp\ccmQLYsM.s:11626  .debug_str:0000000000000072 .LASF47
C:\Users\stapi\AppData\Local\Temp\ccmQLYsM.s:12352  .debug_str:0000000000001784 .LASF48
C:\Users\stapi\AppData\Local\Temp\ccmQLYsM.s:12280  .debug_str:000000000000144a .LASF49
C:\Users\stapi\AppData\Local\Temp\ccmQLYsM.s:11840  .debug_str:0000000000000738 .LASF50
C:\Users\stapi\AppData\Local\Temp\ccmQLYsM.s:12220  .debug_str:00000000000012a7 .LASF51
C:\Users\stapi\AppData\Local\Temp\ccmQLYsM.s:12310  .debug_str:000000000000153b .LASF52
C:\Users\stapi\AppData\Local\Temp\ccmQLYsM.s:12144  .debug_str:000000000000104e .LASF53
C:\Users\stapi\AppData\Local\Temp\ccmQLYsM.s:11724  .debug_str:0000000000000382 .LASF54
C:\Users\stapi\AppData\Local\Temp\ccmQLYsM.s:11654  .debug_str:0000000000000177 .LASF55
C:\Users\stapi\AppData\Local\Temp\ccmQLYsM.s:12072  .debug_str:0000000000000dab .LASF56
C:\Users\stapi\AppData\Local\Temp\ccmQLYsM.s:12122  .debug_str:0000000000000fb3 .LASF57
C:\Users\stapi\AppData\Local\Temp\ccmQLYsM.s:11692  .debug_str:0000000000000288 .LASF58
C:\Users\stapi\AppData\Local\Temp\ccmQLYsM.s:11630  .debug_str:0000000000000099 .LASF59
C:\Users\stapi\AppData\Local\Temp\ccmQLYsM.s:12350  .debug_str:000000000000176a .LASF60
C:\Users\stapi\AppData\Local\Temp\ccmQLYsM.s:11712  .debug_str:0000000000000328 .LASF61
C:\Users\stapi\AppData\Local\Temp\ccmQLYsM.s:11964  .debug_str:0000000000000a79 .LASF62
C:\Users\stapi\AppData\Local\Temp\ccmQLYsM.s:12258  .debug_str:000000000000139b .LASF63
C:\Users\stapi\AppData\Local\Temp\ccmQLYsM.s:12262  .debug_str:00000000000013c5 .LASF64
C:\Users\stapi\AppData\Local\Temp\ccmQLYsM.s:11652  .debug_str:0000000000000163 .LASF65
C:\Users\stapi\AppData\Local\Temp\ccmQLYsM.s:12050  .debug_str:0000000000000d26 .LASF66
C:\Users\stapi\AppData\Local\Temp\ccmQLYsM.s:12248  .debug_str:0000000000001376 .LASF68
C:\Users\stapi\AppData\Local\Temp\ccmQLYsM.s:12110  .debug_str:0000000000000f4c .LASF69
C:\Users\stapi\AppData\Local\Temp\ccmQLYsM.s:11950  .debug_str:0000000000000a22 .LASF70
C:\Users\stapi\AppData\Local\Temp\ccmQLYsM.s:11706  .debug_str:000000000000030c .LASF71
C:\Users\stapi\AppData\Local\Temp\ccmQLYsM.s:11940  .debug_str:00000000000009e9 .LASF72
C:\Users\stapi\AppData\Local\Temp\ccmQLYsM.s:12254  .debug_str:0000000000001389 .LASF73
C:\Users\stapi\AppData\Local\Temp\ccmQLYsM.s:11790  .debug_str:0000000000000536 .LASF74
C:\Users\stapi\AppData\Local\Temp\ccmQLYsM.s:11910  .debug_str:0000000000000914 .LASF75
C:\Users\stapi\AppData\Local\Temp\ccmQLYsM.s:12210  .debug_str:0000000000001267 .LASF76
C:\Users\stapi\AppData\Local\Temp\ccmQLYsM.s:12038  .debug_str:0000000000000ce5 .LASF77
C:\Users\stapi\AppData\Local\Temp\ccmQLYsM.s:12316  .debug_str:000000000000155e .LASF78
C:\Users\stapi\AppData\Local\Temp\ccmQLYsM.s:12046  .debug_str:0000000000000d0f .LASF79
C:\Users\stapi\AppData\Local\Temp\ccmQLYsM.s:11678  .debug_str:0000000000000211 .LASF80
C:\Users\stapi\AppData\Local\Temp\ccmQLYsM.s:11862  .debug_str:00000000000007a9 .LASF81
C:\Users\stapi\AppData\Local\Temp\ccmQLYsM.s:12044  .debug_str:0000000000000d03 .LASF82
C:\Users\stapi\AppData\Local\Temp\ccmQLYsM.s:11958  .debug_str:0000000000000a47 .LASF83
C:\Users\stapi\AppData\Local\Temp\ccmQLYsM.s:11930  .debug_str:00000000000009a4 .LASF84
C:\Users\stapi\AppData\Local\Temp\ccmQLYsM.s:12276  .debug_str:0000000000001422 .LASF85
C:\Users\stapi\AppData\Local\Temp\ccmQLYsM.s:11670  .debug_str:00000000000001e2 .LASF86
C:\Users\stapi\AppData\Local\Temp\ccmQLYsM.s:11948  .debug_str:0000000000000a18 .LASF87
C:\Users\stapi\AppData\Local\Temp\ccmQLYsM.s:11780  .debug_str:00000000000004dc .LASF88
C:\Users\stapi\AppData\Local\Temp\ccmQLYsM.s:12154  .debug_str:0000000000001092 .LASF89
C:\Users\stapi\AppData\Local\Temp\ccmQLYsM.s:12124  .debug_str:0000000000000fc8 .LASF90
C:\Users\stapi\AppData\Local\Temp\ccmQLYsM.s:11772  .debug_str:00000000000004bc .LASF91
C:\Users\stapi\AppData\Local\Temp\ccmQLYsM.s:12286  .debug_str:0000000000001468 .LASF92
C:\Users\stapi\AppData\Local\Temp\ccmQLYsM.s:11980  .debug_str:0000000000000aef .LASF93
C:\Users\stapi\AppData\Local\Temp\ccmQLYsM.s:11886  .debug_str:0000000000000823 .LASF94
C:\Users\stapi\AppData\Local\Temp\ccmQLYsM.s:12132  .debug_str:0000000000000ff9 .LASF95
C:\Users\stapi\AppData\Local\Temp\ccmQLYsM.s:12338  .debug_str:000000000000171f .LASF96
C:\Users\stapi\AppData\Local\Temp\ccmQLYsM.s:11968  .debug_str:0000000000000a97 .LASF97
C:\Users\stapi\AppData\Local\Temp\ccmQLYsM.s:12208  .debug_str:000000000000125f .LASF98
C:\Users\stapi\AppData\Local\Temp\ccmQLYsM.s:11742  .debug_str:0000000000000401 .LASF99
C:\Users\stapi\AppData\Local\Temp\ccmQLYsM.s:11708  .debug_str:0000000000000314 .LASF100
C:\Users\stapi\AppData\Local\Temp\ccmQLYsM.s:11836  .debug_str:0000000000000715 .LASF101
C:\Users\stapi\AppData\Local\Temp\ccmQLYsM.s:11890  .debug_str:0000000000000836 .LASF102
C:\Users\stapi\AppData\Local\Temp\ccmQLYsM.s:11988  .debug_str:0000000000000b3a .LASF103
C:\Users\stapi\AppData\Local\Temp\ccmQLYsM.s:11882  .debug_str:0000000000000809 .LASF104
C:\Users\stapi\AppData\Local\Temp\ccmQLYsM.s:11734  .debug_str:00000000000003c1 .LASF105
C:\Users\stapi\AppData\Local\Temp\ccmQLYsM.s:11834  .debug_str:0000000000000707 .LASF106
C:\Users\stapi\AppData\Local\Temp\ccmQLYsM.s:11788  .debug_str:0000000000000522 .LASF107
C:\Users\stapi\AppData\Local\Temp\ccmQLYsM.s:12022  .debug_str:0000000000000c59 .LASF108
C:\Users\stapi\AppData\Local\Temp\ccmQLYsM.s:12078  .debug_str:0000000000000dd7 .LASF109
C:\Users\stapi\AppData\Local\Temp\ccmQLYsM.s:12190  .debug_str:00000000000011bc .LASF110
C:\Users\stapi\AppData\Local\Temp\ccmQLYsM.s:11914  .debug_str:000000000000092c .LASF111
C:\Users\stapi\AppData\Local\Temp\ccmQLYsM.s:12166  .debug_str:00000000000010df .LASF112
C:\Users\stapi\AppData\Local\Temp\ccmQLYsM.s:11816  .debug_str:00000000000005de .LASF113
C:\Users\stapi\AppData\Local\Temp\ccmQLYsM.s:11618  .debug_str:0000000000000030 .LASF114
C:\Users\stapi\AppData\Local\Temp\ccmQLYsM.s:11854  .debug_str:0000000000000785 .LASF115
C:\Users\stapi\AppData\Local\Temp\ccmQLYsM.s:12324  .debug_str:00000000000015a2 .LASF116
C:\Users\stapi\AppData\Local\Temp\ccmQLYsM.s:11920  .debug_str:0000000000000951 .LASF117
C:\Users\stapi\AppData\Local\Temp\ccmQLYsM.s:12312  .debug_str:0000000000001547 .LASF118
C:\Users\stapi\AppData\Local\Temp\ccmQLYsM.s:11758  .debug_str:000000000000046e .LASF119
C:\Users\stapi\AppData\Local\Temp\ccmQLYsM.s:12116  .debug_str:0000000000000f88 .LASF120
C:\Users\stapi\AppData\Local\Temp\ccmQLYsM.s:12298  .debug_str:00000000000014c4 .LASF121
C:\Users\stapi\AppData\Local\Temp\ccmQLYsM.s:12226  .debug_str:00000000000012d2 .LASF122
C:\Users\stapi\AppData\Local\Temp\ccmQLYsM.s:11796  .debug_str:0000000000000563 .LASF123
C:\Users\stapi\AppData\Local\Temp\ccmQLYsM.s:11736  .debug_str:00000000000003cf .LASF124
C:\Users\stapi\AppData\Local\Temp\ccmQLYsM.s:12006  .debug_str:0000000000000bc8 .LASF125
C:\Users\stapi\AppData\Local\Temp\ccmQLYsM.s:12278  .debug_str:000000000000142f .LASF126
C:\Users\stapi\AppData\Local\Temp\ccmQLYsM.s:12020  .debug_str:0000000000000c3c .LASF127
C:\Users\stapi\AppData\Local\Temp\ccmQLYsM.s:11768  .debug_str:00000000000004ae .LASF128
C:\Users\stapi\AppData\Local\Temp\ccmQLYsM.s:12174  .debug_str:0000000000001126 .LASF129
C:\Users\stapi\AppData\Local\Temp\ccmQLYsM.s:12274  .debug_str:0000000000001417 .LASF130
C:\Users\stapi\AppData\Local\Temp\ccmQLYsM.s:11802  .debug_str:000000000000058d .LASF131
C:\Users\stapi\AppData\Local\Temp\ccmQLYsM.s:12102  .debug_str:0000000000000f1b .LASF132
C:\Users\stapi\AppData\Local\Temp\ccmQLYsM.s:12134  .debug_str:0000000000001002 .LASF133
C:\Users\stapi\AppData\Local\Temp\ccmQLYsM.s:11794  .debug_str:0000000000000550 .LASF134
C:\Users\stapi\AppData\Local\Temp\ccmQLYsM.s:12332  .debug_str:00000000000016e7 .LASF135
C:\Users\stapi\AppData\Local\Temp\ccmQLYsM.s:12156  .debug_str:000000000000109f .LASF136
C:\Users\stapi\AppData\Local\Temp\ccmQLYsM.s:11916  .debug_str:0000000000000939 .LASF137
C:\Users\stapi\AppData\Local\Temp\ccmQLYsM.s:12048  .debug_str:0000000000000d17 .LASF138
C:\Users\stapi\AppData\Local\Temp\ccmQLYsM.s:12160  .debug_str:00000000000010b9 .LASF139
C:\Users\stapi\AppData\Local\Temp\ccmQLYsM.s:11624  .debug_str:000000000000005c .LASF140
C:\Users\stapi\AppData\Local\Temp\ccmQLYsM.s:11700  .debug_str:00000000000002d2 .LASF141
C:\Users\stapi\AppData\Local\Temp\ccmQLYsM.s:11782  .debug_str:00000000000004e5 .LASF142
C:\Users\stapi\AppData\Local\Temp\ccmQLYsM.s:11906  .debug_str:00000000000008e4 .LASF143
C:\Users\stapi\AppData\Local\Temp\ccmQLYsM.s:12032  .debug_str:0000000000000cb1 .LASF144
C:\Users\stapi\AppData\Local\Temp\ccmQLYsM.s:11656  .debug_str:0000000000000184 .LASF145
C:\Users\stapi\AppData\Local\Temp\ccmQLYsM.s:11740  .debug_str:00000000000003ef .LASF146
C:\Users\stapi\AppData\Local\Temp\ccmQLYsM.s:12236  .debug_str:0000000000001315 .LASF147
C:\Users\stapi\AppData\Local\Temp\ccmQLYsM.s:11646  .debug_str:000000000000012b .LASF148
C:\Users\stapi\AppData\Local\Temp\ccmQLYsM.s:12224  .debug_str:00000000000012bf .LASF149
C:\Users\stapi\AppData\Local\Temp\ccmQLYsM.s:11744  .debug_str:0000000000000411 .LASF150
C:\Users\stapi\AppData\Local\Temp\ccmQLYsM.s:12076  .debug_str:0000000000000dcc .LASF151
C:\Users\stapi\AppData\Local\Temp\ccmQLYsM.s:11690  .debug_str:0000000000000275 .LASF152
C:\Users\stapi\AppData\Local\Temp\ccmQLYsM.s:11620  .debug_str:000000000000003c .LASF153
C:\Users\stapi\AppData\Local\Temp\ccmQLYsM.s:11956  .debug_str:0000000000000a3d .LASF154
C:\Users\stapi\AppData\Local\Temp\ccmQLYsM.s:12358  .debug_str:00000000000017a1 .LASF155
C:\Users\stapi\AppData\Local\Temp\ccmQLYsM.s:12030  .debug_str:0000000000000ca9 .LASF156
C:\Users\stapi\AppData\Local\Temp\ccmQLYsM.s:11878  .debug_str:00000000000007fb .LASF157
C:\Users\stapi\AppData\Local\Temp\ccmQLYsM.s:11846  .debug_str:0000000000000757 .LASF158
C:\Users\stapi\AppData\Local\Temp\ccmQLYsM.s:12216  .debug_str:000000000000128a .LASF159
C:\Users\stapi\AppData\Local\Temp\ccmQLYsM.s:11870  .debug_str:00000000000007d1 .LASF160
C:\Users\stapi\AppData\Local\Temp\ccmQLYsM.s:12092  .debug_str:0000000000000ed1 .LASF161
C:\Users\stapi\AppData\Local\Temp\ccmQLYsM.s:12266  .debug_str:00000000000013ea .LASF162
C:\Users\stapi\AppData\Local\Temp\ccmQLYsM.s:11974  .debug_str:0000000000000ac2 .LASF163
C:\Users\stapi\AppData\Local\Temp\ccmQLYsM.s:12288  .debug_str:000000000000147a .LASF164
C:\Users\stapi\AppData\Local\Temp\ccmQLYsM.s:11638  .debug_str:00000000000000e7 .LASF165
C:\Users\stapi\AppData\Local\Temp\ccmQLYsM.s:11720  .debug_str:0000000000000364 .LASF166
C:\Users\stapi\AppData\Local\Temp\ccmQLYsM.s:12074  .debug_str:0000000000000dba .LASF167
C:\Users\stapi\AppData\Local\Temp\ccmQLYsM.s:11918  .debug_str:0000000000000945 .LASF168
C:\Users\stapi\AppData\Local\Temp\ccmQLYsM.s:11814  .debug_str:00000000000005d2 .LASF169
C:\Users\stapi\AppData\Local\Temp\ccmQLYsM.s:11986  .debug_str:0000000000000b28 .LASF170
C:\Users\stapi\AppData\Local\Temp\ccmQLYsM.s:12234  .debug_str:000000000000130c .LASF171
C:\Users\stapi\AppData\Local\Temp\ccmQLYsM.s:12252  .debug_str:0000000000001383 .LASF172
C:\Users\stapi\AppData\Local\Temp\ccmQLYsM.s:12272  .debug_str:0000000000001412 .LASF173
C:\Users\stapi\AppData\Local\Temp\ccmQLYsM.s:12344  .debug_str:0000000000001743 .LASF174
C:\Users\stapi\AppData\Local\Temp\ccmQLYsM.s:11884  .debug_str:000000000000081a .LASF175
C:\Users\stapi\AppData\Local\Temp\ccmQLYsM.s:12066  .debug_str:0000000000000d8b .LASF176
C:\Users\stapi\AppData\Local\Temp\ccmQLYsM.s:11668  .debug_str:00000000000001ce .LASF177
C:\Users\stapi\AppData\Local\Temp\ccmQLYsM.s:11860  .debug_str:00000000000007a4 .LASF178
C:\Users\stapi\AppData\Local\Temp\ccmQLYsM.s:11894  .debug_str:0000000000000854 .LASF179
C:\Users\stapi\AppData\Local\Temp\ccmQLYsM.s:11960  .debug_str:0000000000000a4d .LASF180
C:\Users\stapi\AppData\Local\Temp\ccmQLYsM.s:11614  .debug_str:0000000000000010 .LASF181
C:\Users\stapi\AppData\Local\Temp\ccmQLYsM.s:11992  .debug_str:0000000000000b54 .LASF182
C:\Users\stapi\AppData\Local\Temp\ccmQLYsM.s:12270  .debug_str:0000000000001400 .LASF183
C:\Users\stapi\AppData\Local\Temp\ccmQLYsM.s:12260  .debug_str:00000000000013ba .LASF184
C:\Users\stapi\AppData\Local\Temp\ccmQLYsM.s:11718  .debug_str:0000000000000358 .LASF185
C:\Users\stapi\AppData\Local\Temp\ccmQLYsM.s:12212  .debug_str:000000000000126f .LASF186
C:\Users\stapi\AppData\Local\Temp\ccmQLYsM.s:11872  .debug_str:00000000000007dc .LASF187
C:\Users\stapi\AppData\Local\Temp\ccmQLYsM.s:11786  .debug_str:0000000000000511 .LASF188
C:\Users\stapi\AppData\Local\Temp\ccmQLYsM.s:11752  .debug_str:0000000000000445 .LASF189
C:\Users\stapi\AppData\Local\Temp\ccmQLYsM.s:12118  .debug_str:0000000000000f9a .LASF190
C:\Users\stapi\AppData\Local\Temp\ccmQLYsM.s:12302  .debug_str:00000000000014e6 .LASF191
C:\Users\stapi\AppData\Local\Temp\ccmQLYsM.s:12346  .debug_str:0000000000001750 .LASF192
C:\Users\stapi\AppData\Local\Temp\ccmQLYsM.s:12240  .debug_str:0000000000001342 .LASF193
C:\Users\stapi\AppData\Local\Temp\ccmQLYsM.s:12098  .debug_str:0000000000000efb .LASF194
C:\Users\stapi\AppData\Local\Temp\ccmQLYsM.s:12026  .debug_str:0000000000000c85 .LASF195
C:\Users\stapi\AppData\Local\Temp\ccmQLYsM.s:11628  .debug_str:0000000000000091 .LASF196
C:\Users\stapi\AppData\Local\Temp\ccmQLYsM.s:11696  .debug_str:00000000000002af .LASF197
C:\Users\stapi\AppData\Local\Temp\ccmQLYsM.s:12058  .debug_str:0000000000000d59 .LASF198
C:\Users\stapi\AppData\Local\Temp\ccmQLYsM.s:11976  .debug_str:0000000000000acd .LASF199
C:\Users\stapi\AppData\Local\Temp\ccmQLYsM.s:12120  .debug_str:0000000000000fa6 .LASF200
C:\Users\stapi\AppData\Local\Temp\ccmQLYsM.s:11934  .debug_str:00000000000009be .LASF201
C:\Users\stapi\AppData\Local\Temp\ccmQLYsM.s:11756  .debug_str:0000000000000465 .LASF202
C:\Users\stapi\AppData\Local\Temp\ccmQLYsM.s:11750  .debug_str:0000000000000440 .LASF203
C:\Users\stapi\AppData\Local\Temp\ccmQLYsM.s:11800  .debug_str:0000000000000582 .LASF204
C:\Users\stapi\AppData\Local\Temp\ccmQLYsM.s:11766  .debug_str:000000000000049e .LASF205
C:\Users\stapi\AppData\Local\Temp\ccmQLYsM.s:12140  .debug_str:0000000000001039 .LASF206
C:\Users\stapi\AppData\Local\Temp\ccmQLYsM.s:11850  .debug_str:0000000000000774 .LASF207
C:\Users\stapi\AppData\Local\Temp\ccmQLYsM.s:12130  .debug_str:0000000000000ff1 .LASF208
C:\Users\stapi\AppData\Local\Temp\ccmQLYsM.s:12162  .debug_str:00000000000010c6 .LASF209
C:\Users\stapi\AppData\Local\Temp\ccmQLYsM.s:12326  .debug_str:00000000000015b8 .LASF210
C:\Users\stapi\AppData\Local\Temp\ccmQLYsM.s:12080  .debug_str:0000000000000df1 .LASF211
C:\Users\stapi\AppData\Local\Temp\ccmQLYsM.s:12268  .debug_str:00000000000013f8 .LASF212
C:\Users\stapi\AppData\Local\Temp\ccmQLYsM.s:12094  .debug_str:0000000000000ede .LASF213
C:\Users\stapi\AppData\Local\Temp\ccmQLYsM.s:12354  .debug_str:000000000000178d .LASF214
C:\Users\stapi\AppData\Local\Temp\ccmQLYsM.s:11842  .debug_str:0000000000000749 .LASF215
C:\Users\stapi\AppData\Local\Temp\ccmQLYsM.s:11642  .debug_str:000000000000010a .LASF216
C:\Users\stapi\AppData\Local\Temp\ccmQLYsM.s:11892  .debug_str:0000000000000840 .LASF217
C:\Users\stapi\AppData\Local\Temp\ccmQLYsM.s:12292  .debug_str:0000000000001496 .LASF218
C:\Users\stapi\AppData\Local\Temp\ccmQLYsM.s:11808  .debug_str:00000000000005ae .LASF219
C:\Users\stapi\AppData\Local\Temp\ccmQLYsM.s:12164  .debug_str:00000000000010d3 .LASF220
C:\Users\stapi\AppData\Local\Temp\ccmQLYsM.s:12318  .debug_str:0000000000001569 .LASF221
C:\Users\stapi\AppData\Local\Temp\ccmQLYsM.s:12168  .debug_str:00000000000010eb .LASF222
C:\Users\stapi\AppData\Local\Temp\ccmQLYsM.s:12014  .debug_str:0000000000000c06 .LASF223
C:\Users\stapi\AppData\Local\Temp\ccmQLYsM.s:11730  .debug_str:00000000000003b5 .LASF224
C:\Users\stapi\AppData\Local\Temp\ccmQLYsM.s:12062  .debug_str:0000000000000d75 .LASF225
C:\Users\stapi\AppData\Local\Temp\ccmQLYsM.s:11664  .debug_str:00000000000001be .LASF226
C:\Users\stapi\AppData\Local\Temp\ccmQLYsM.s:12106  .debug_str:0000000000000f33 .LASF227
C:\Users\stapi\AppData\Local\Temp\ccmQLYsM.s:12138  .debug_str:0000000000001030 .LASF228
C:\Users\stapi\AppData\Local\Temp\ccmQLYsM.s:12284  .debug_str:0000000000001462 .LASF229
C:\Users\stapi\AppData\Local\Temp\ccmQLYsM.s:12308  .debug_str:0000000000001518 .LASF230
C:\Users\stapi\AppData\Local\Temp\ccmQLYsM.s:12114  .debug_str:0000000000000f64 .LASF231
C:\Users\stapi\AppData\Local\Temp\ccmQLYsM.s:12230  .debug_str:00000000000012ef .LASF232
C:\Users\stapi\AppData\Local\Temp\ccmQLYsM.s:11946  .debug_str:0000000000000a06 .LASF233
C:\Users\stapi\AppData\Local\Temp\ccmQLYsM.s:12004  .debug_str:0000000000000ba3 .LASF234
C:\Users\stapi\AppData\Local\Temp\ccmQLYsM.s:11984  .debug_str:0000000000000b08 .LASF235
C:\Users\stapi\AppData\Local\Temp\ccmQLYsM.s:11902  .debug_str:00000000000008ae .LASF236
C:\Users\stapi\AppData\Local\Temp\ccmQLYsM.s:12348  .debug_str:0000000000001757 .LASF237
C:\Users\stapi\AppData\Local\Temp\ccmQLYsM.s:11684  .debug_str:0000000000000238 .LASF238
C:\Users\stapi\AppData\Local\Temp\ccmQLYsM.s:12188  .debug_str:000000000000119b .LASF239
C:\Users\stapi\AppData\Local\Temp\ccmQLYsM.s:12320  .debug_str:0000000000001573 .LASF240
C:\Users\stapi\AppData\Local\Temp\ccmQLYsM.s:11822  .debug_str:000000000000060b .LASF241
C:\Users\stapi\AppData\Local\Temp\ccmQLYsM.s:11748  .debug_str:0000000000000421 .LASF242
C:\Users\stapi\AppData\Local\Temp\ccmQLYsM.s:11876  .debug_str:00000000000007f6 .LASF243
C:\Users\stapi\AppData\Local\Temp\ccmQLYsM.s:11682  .debug_str:0000000000000231 .LASF244
C:\Users\stapi\AppData\Local\Temp\ccmQLYsM.s:11662  .debug_str:00000000000001b1 .LASF245
C:\Users\stapi\AppData\Local\Temp\ccmQLYsM.s:12336  .debug_str:000000000000170e .LASF322
C:\Users\stapi\AppData\Local\Temp\ccmQLYsM.s:12244  .debug_str:0000000000001357 .LASF246
C:\Users\stapi\AppData\Local\Temp\ccmQLYsM.s:11694  .debug_str:00000000000002a5 .LASF247
C:\Users\stapi\AppData\Local\Temp\ccmQLYsM.s:11778  .debug_str:00000000000004cd .LASF248
C:\Users\stapi\AppData\Local\Temp\ccmQLYsM.s:11722  .debug_str:0000000000000370 .LASF249
C:\Users\stapi\AppData\Local\Temp\ccmQLYsM.s:12196  .debug_str:00000000000011f6 .LASF250
C:\Users\stapi\AppData\Local\Temp\ccmQLYsM.s:12052  .debug_str:0000000000000d38 .LASF251
C:\Users\stapi\AppData\Local\Temp\ccmQLYsM.s:12096  .debug_str:0000000000000eeb .LASF252
C:\Users\stapi\AppData\Local\Temp\ccmQLYsM.s:12184  .debug_str:0000000000001179 .LASF253
C:\Users\stapi\AppData\Local\Temp\ccmQLYsM.s:12330  .debug_str:00000000000016c3 .LASF254
C:\Users\stapi\AppData\Local\Temp\ccmQLYsM.s:12088  .debug_str:0000000000000eae .LASF255
C:\Users\stapi\AppData\Local\Temp\ccmQLYsM.s:11954  .debug_str:0000000000000a2c .LASF256
C:\Users\stapi\AppData\Local\Temp\ccmQLYsM.s:12334  .debug_str:00000000000016fc .LASF257
C:\Users\stapi\AppData\Local\Temp\ccmQLYsM.s:12194  .debug_str:00000000000011e4 .LASF258
C:\Users\stapi\AppData\Local\Temp\ccmQLYsM.s:11978  .debug_str:0000000000000ad7 .LASF259
C:\Users\stapi\AppData\Local\Temp\ccmQLYsM.s:11806  .debug_str:000000000000059d .LASF260
C:\Users\stapi\AppData\Local\Temp\ccmQLYsM.s:12090  .debug_str:0000000000000ecc .LASF261
C:\Users\stapi\AppData\Local\Temp\ccmQLYsM.s:12036  .debug_str:0000000000000cd3 .LASF262
C:\Users\stapi\AppData\Local\Temp\ccmQLYsM.s:11804  .debug_str:0000000000000598 .LASF263
C:\Users\stapi\AppData\Local\Temp\ccmQLYsM.s:11770  .debug_str:00000000000004b6 .LASF264
C:\Users\stapi\AppData\Local\Temp\ccmQLYsM.s:11820  .debug_str:00000000000005f5 .LASF265
C:\Users\stapi\AppData\Local\Temp\ccmQLYsM.s:11676  .debug_str:000000000000020c .LASF266
C:\Users\stapi\AppData\Local\Temp\ccmQLYsM.s:11760  .debug_str:000000000000047a .LASF267
C:\Users\stapi\AppData\Local\Temp\ccmQLYsM.s:11636  .debug_str:00000000000000dc .LASF268
C:\Users\stapi\AppData\Local\Temp\ccmQLYsM.s:11776  .debug_str:00000000000004c8 .LASF269
C:\Users\stapi\AppData\Local\Temp\ccmQLYsM.s:11966  .debug_str:0000000000000a8e .LASF270
C:\Users\stapi\AppData\Local\Temp\ccmQLYsM.s:12152  .debug_str:0000000000001085 .LASF271
C:\Users\stapi\AppData\Local\Temp\ccmQLYsM.s:11856  .debug_str:000000000000078f .LASF272
C:\Users\stapi\AppData\Local\Temp\ccmQLYsM.s:12228  .debug_str:00000000000012de .LASF273
C:\Users\stapi\AppData\Local\Temp\ccmQLYsM.s:11666  .debug_str:00000000000001c4 .LASF274
C:\Users\stapi\AppData\Local\Temp\ccmQLYsM.s:12264  .debug_str:00000000000013dc .LASF275
C:\Users\stapi\AppData\Local\Temp\ccmQLYsM.s:12126  .debug_str:0000000000000fd2 .LASF276
C:\Users\stapi\AppData\Local\Temp\ccmQLYsM.s:12290  .debug_str:0000000000001483 .LASF277
C:\Users\stapi\AppData\Local\Temp\ccmQLYsM.s:12112  .debug_str:0000000000000f51 .LASF278
C:\Users\stapi\AppData\Local\Temp\ccmQLYsM.s:11702  .debug_str:00000000000002e6 .LASF279
C:\Users\stapi\AppData\Local\Temp\ccmQLYsM.s:11826  .debug_str:00000000000006c1 .LASF280
C:\Users\stapi\AppData\Local\Temp\ccmQLYsM.s:11898  .debug_str:0000000000000877 .LASF281
C:\Users\stapi\AppData\Local\Temp\ccmQLYsM.s:12200  .debug_str:0000000000001217 .LASF282
C:\Users\stapi\AppData\Local\Temp\ccmQLYsM.s:11716  .debug_str:0000000000000348 .LASF283
C:\Users\stapi\AppData\Local\Temp\ccmQLYsM.s:11830  .debug_str:00000000000006e2 .LASF284
C:\Users\stapi\AppData\Local\Temp\ccmQLYsM.s:11648  .debug_str:000000000000013e .LASF285
C:\Users\stapi\AppData\Local\Temp\ccmQLYsM.s:11632  .debug_str:00000000000000ab .LASF286
C:\Users\stapi\AppData\Local\Temp\ccmQLYsM.s:12136  .debug_str:0000000000001015 .LASF287
C:\Users\stapi\AppData\Local\Temp\ccmQLYsM.s:11832  .debug_str:00000000000006f3 .LASF288
C:\Users\stapi\AppData\Local\Temp\ccmQLYsM.s:11972  .debug_str:0000000000000aaf .LASF289
C:\Users\stapi\AppData\Local\Temp\ccmQLYsM.s:11924  .debug_str:000000000000096f .LASF290
C:\Users\stapi\AppData\Local\Temp\ccmQLYsM.s:11900  .debug_str:000000000000088f .LASF291
C:\Users\stapi\AppData\Local\Temp\ccmQLYsM.s:12340  .debug_str:0000000000001726 .LASF292
C:\Users\stapi\AppData\Local\Temp\ccmQLYsM.s:11798  .debug_str:000000000000056b .LASF293
C:\Users\stapi\AppData\Local\Temp\ccmQLYsM.s:11858  .debug_str:000000000000079c .LASF294
C:\Users\stapi\AppData\Local\Temp\ccmQLYsM.s:12010  .debug_str:0000000000000bf7 .LASF295
C:\Users\stapi\AppData\Local\Temp\ccmQLYsM.s:12186  .debug_str:0000000000001188 .LASF296
C:\Users\stapi\AppData\Local\Temp\ccmQLYsM.s:11612  .debug_str:0000000000000000 .LASF297
C:\Users\stapi\AppData\Local\Temp\ccmQLYsM.s:12322  .debug_str:0000000000001591 .LASF298
C:\Users\stapi\AppData\Local\Temp\ccmQLYsM.s:11616  .debug_str:0000000000000028 .LASF299
C:\Users\stapi\AppData\Local\Temp\ccmQLYsM.s:12342  .debug_str:000000000000173d .LASF300
C:\Users\stapi\AppData\Local\Temp\ccmQLYsM.s:11644  .debug_str:000000000000011a .LASF301
C:\Users\stapi\AppData\Local\Temp\ccmQLYsM.s:11998  .debug_str:0000000000000b71 .LASF302
C:\Users\stapi\AppData\Local\Temp\ccmQLYsM.s:11942  .debug_str:00000000000009f1 .LASF303
C:\Users\stapi\AppData\Local\Temp\ccmQLYsM.s:11792  .debug_str:000000000000053f .LASF304
C:\Users\stapi\AppData\Local\Temp\ccmQLYsM.s:11982  .debug_str:0000000000000b00 .LASF305
C:\Users\stapi\AppData\Local\Temp\ccmQLYsM.s:12214  .debug_str:000000000000127a .LASF306
C:\Users\stapi\AppData\Local\Temp\ccmQLYsM.s:12070  .debug_str:0000000000000da4 .LASF307
C:\Users\stapi\AppData\Local\Temp\ccmQLYsM.s:12108  .debug_str:0000000000000f3d .LASF308
C:\Users\stapi\AppData\Local\Temp\ccmQLYsM.s:12002  .debug_str:0000000000000b88 .LASF309
C:\Users\stapi\AppData\Local\Temp\ccmQLYsM.s:11952  .debug_str:0000000000000a27 .LASF310
C:\Users\stapi\AppData\Local\Temp\ccmQLYsM.s:12232  .debug_str:0000000000001306 .LASF311
C:\Users\stapi\AppData\Local\Temp\ccmQLYsM.s:11866  .debug_str:00000000000007bb .LASF312
C:\Users\stapi\AppData\Local\Temp\ccmQLYsM.s:12146  .debug_str:000000000000105d .LASF313
C:\Users\stapi\AppData\Local\Temp\ccmQLYsM.s:11762  .debug_str:0000000000000480 .LASF314
C:\Users\stapi\AppData\Local\Temp\ccmQLYsM.s:12128  .debug_str:0000000000000fe8 .LASF315
C:\Users\stapi\AppData\Local\Temp\ccmQLYsM.s:12056  .debug_str:0000000000000d4e .LASF316
C:\Users\stapi\AppData\Local\Temp\ccmQLYsM.s:12180  .debug_str:0000000000001157 .LASF317
C:\Users\stapi\AppData\Local\Temp\ccmQLYsM.s:12294  .debug_str:00000000000014a4 .LASF318
C:\Users\stapi\AppData\Local\Temp\ccmQLYsM.s:12364  .debug_str:00000000000017cc .LASF319
C:\Users\stapi\AppData\Local\Temp\ccmQLYsM.s:11640  .debug_str:00000000000000f4 .LASF320
C:\Users\stapi\AppData\Local\Temp\ccmQLYsM.s:11680  .debug_str:0000000000000219 .LASF321
C:\Users\stapi\AppData\Local\Temp\ccmQLYsM.s:11660  .debug_str:00000000000001a1 .LASF323
C:\Users\stapi\AppData\Local\Temp\ccmQLYsM.s:12238  .debug_str:0000000000001331 .LASF324
C:\Users\stapi\AppData\Local\Temp\ccmQLYsM.s:11938  .debug_str:00000000000009d2 .LASF325
C:\Users\stapi\AppData\Local\Temp\ccmQLYsM.s:11688  .debug_str:0000000000000263 .LASF326
C:\Users\stapi\AppData\Local\Temp\ccmQLYsM.s:3000   .text.wpa_auth_uses_mfp:0000000000000000 .LFB145
C:\Users\stapi\AppData\Local\Temp\ccmQLYsM.s:3021   .text.wpa_auth_uses_mfp:0000000000000010 .LFE145
C:\Users\stapi\AppData\Local\Temp\ccmQLYsM.s:9147   .debug_loc:0000000000000000 .LLST115
C:\Users\stapi\AppData\Local\Temp\ccmQLYsM.s:12204  .debug_str:0000000000001234 .LASF327
C:\Users\stapi\AppData\Local\Temp\ccmQLYsM.s:1813   .text.wpa_validate_wpa_ie:0000000000000000 .LFB144
C:\Users\stapi\AppData\Local\Temp\ccmQLYsM.s:2993   .text.wpa_validate_wpa_ie:0000000000000686 .LFE144
C:\Users\stapi\AppData\Local\Temp\ccmQLYsM.s:9172   .debug_loc:000000000000003a .LLST93
C:\Users\stapi\AppData\Local\Temp\ccmQLYsM.s:9194   .debug_loc:0000000000000071 .LLST94
C:\Users\stapi\AppData\Local\Temp\ccmQLYsM.s:11732  .debug_str:00000000000003bc .LASF328
C:\Users\stapi\AppData\Local\Temp\ccmQLYsM.s:9209   .debug_loc:000000000000009a .LLST95
C:\Users\stapi\AppData\Local\Temp\ccmQLYsM.s:9246   .debug_loc:00000000000000f5 .LLST96
C:\Users\stapi\AppData\Local\Temp\ccmQLYsM.s:9288   .debug_loc:0000000000000163 .LLST97
C:\Users\stapi\AppData\Local\Temp\ccmQLYsM.s:9330   .debug_loc:00000000000001d1 .LLST98
C:\Users\stapi\AppData\Local\Temp\ccmQLYsM.s:9356   .debug_loc:0000000000000213 .LLST99
C:\Users\stapi\AppData\Local\Temp\ccmQLYsM.s:11686  .debug_str:000000000000025e .LASF329
C:\Users\stapi\AppData\Local\Temp\ccmQLYsM.s:9394   .debug_loc:0000000000000276 .LLST100
C:\Users\stapi\AppData\Local\Temp\ccmQLYsM.s:12012  .debug_str:0000000000000bfd .LASF330
C:\Users\stapi\AppData\Local\Temp\ccmQLYsM.s:9446   .debug_loc:00000000000002f5 .LLST101
C:\Users\stapi\AppData\Local\Temp\ccmQLYsM.s:12042  .debug_str:0000000000000cfc .LASF331
C:\Users\stapi\AppData\Local\Temp\ccmQLYsM.s:9469   .debug_loc:000000000000032d .LLST102
C:\Users\stapi\AppData\Local\Temp\ccmQLYsM.s:12256  .debug_str:0000000000001390 .LASF332
C:\Users\stapi\AppData\Local\Temp\ccmQLYsM.s:9492   .debug_loc:0000000000000365 .LLST103
C:\Users\stapi\AppData\Local\Temp\ccmQLYsM.s:9515   .debug_loc:000000000000039d .LLST104
C:\Users\stapi\AppData\Local\Temp\ccmQLYsM.s:12282  .debug_str:000000000000145a .LASF333
C:\Users\stapi\AppData\Local\Temp\ccmQLYsM.s:9545   .debug_loc:00000000000003dc .LLST105
C:\Users\stapi\AppData\Local\Temp\ccmQLYsM.s:9568   .debug_loc:000000000000041b .LLST106
C:\Users\stapi\AppData\Local\Temp\ccmQLYsM.s:9729   .debug_loc:0000000000000553 .LLST107
C:\Users\stapi\AppData\Local\Temp\ccmQLYsM.s:9760   .debug_loc:00000000000005a8 .LLST108
C:\Users\stapi\AppData\Local\Temp\ccmQLYsM.s:11818  .debug_str:00000000000005ec .LASF334
C:\Users\stapi\AppData\Local\Temp\ccmQLYsM.s:9771   .debug_loc:00000000000005c6 .LLST109
C:\Users\stapi\AppData\Local\Temp\ccmQLYsM.s:9895   .debug_loc:0000000000000709 .LLST110
C:\Users\stapi\AppData\Local\Temp\ccmQLYsM.s:9928   .debug_loc:0000000000000760 .LLST111
C:\Users\stapi\AppData\Local\Temp\ccmQLYsM.s:11774  .debug_str:00000000000004c2 .LASF335
C:\Users\stapi\AppData\Local\Temp\ccmQLYsM.s:2700   .text.wpa_validate_wpa_ie:00000000000004d0 .LVL277
C:\Users\stapi\AppData\Local\Temp\ccmQLYsM.s:2712   .text.wpa_validate_wpa_ie:00000000000004ea .LVL278
C:\Users\stapi\AppData\Local\Temp\ccmQLYsM.s:2720   .text.wpa_validate_wpa_ie:00000000000004fc .LVL279
C:\Users\stapi\AppData\Local\Temp\ccmQLYsM.s:12250  .debug_str:000000000000137e .LASF336
C:\Users\stapi\AppData\Local\Temp\ccmQLYsM.s:9963   .debug_loc:00000000000007b9 .LLST114
C:\Users\stapi\AppData\Local\Temp\ccmQLYsM.s:2769   .text.wpa_validate_wpa_ie:0000000000000540 .LVL285
C:\Users\stapi\AppData\Local\Temp\ccmQLYsM.s:2775   .text.wpa_validate_wpa_ie:0000000000000550 .LVL286
C:\Users\stapi\AppData\Local\Temp\ccmQLYsM.s:1978   .text.wpa_validate_wpa_ie:00000000000000b2 .LBB296
C:\Users\stapi\AppData\Local\Temp\ccmQLYsM.s:1986   .text.wpa_validate_wpa_ie:00000000000000bc .LBE296
C:\Users\stapi\AppData\Local\Temp\ccmQLYsM.s:1992   .text.wpa_validate_wpa_ie:00000000000000c2 .LBB298
C:\Users\stapi\AppData\Local\Temp\ccmQLYsM.s:9986   .debug_loc:00000000000007ee .LLST112
C:\Users\stapi\AppData\Local\Temp\ccmQLYsM.s:10008  .debug_loc:000000000000081d .LLST113
C:\Users\stapi\AppData\Local\Temp\ccmQLYsM.s:2522   .text.wpa_validate_wpa_ie:00000000000003cc .LBB302
C:\Users\stapi\AppData\Local\Temp\ccmQLYsM.s:2531   .text.wpa_validate_wpa_ie:00000000000003d8 .LBE302
C:\Users\stapi\AppData\Local\Temp\ccmQLYsM.s:2855   .text.wpa_validate_wpa_ie:00000000000005c0 .LBB308
C:\Users\stapi\AppData\Local\Temp\ccmQLYsM.s:2859   .text.wpa_validate_wpa_ie:00000000000005c0 .LBE308
C:\Users\stapi\AppData\Local\Temp\ccmQLYsM.s:1902   .text.wpa_validate_wpa_ie:000000000000006e .LVL185
C:\Users\stapi\AppData\Local\Temp\ccmQLYsM.s:1944   .text.wpa_validate_wpa_ie:000000000000008e .LVL190
C:\Users\stapi\AppData\Local\Temp\ccmQLYsM.s:1958   .text.wpa_validate_wpa_ie:000000000000009e .LVL193
C:\Users\stapi\AppData\Local\Temp\ccmQLYsM.s:1970   .text.wpa_validate_wpa_ie:00000000000000ae .LVL194
C:\Users\stapi\AppData\Local\Temp\ccmQLYsM.s:2024   .text.wpa_validate_wpa_ie:00000000000000fa .LVL200
C:\Users\stapi\AppData\Local\Temp\ccmQLYsM.s:2093   .text.wpa_validate_wpa_ie:000000000000014c .LVL203
C:\Users\stapi\AppData\Local\Temp\ccmQLYsM.s:2113   .text.wpa_validate_wpa_ie:0000000000000164 .LVL207
C:\Users\stapi\AppData\Local\Temp\ccmQLYsM.s:2143   .text.wpa_validate_wpa_ie:00000000000001a0 .LVL211
C:\Users\stapi\AppData\Local\Temp\ccmQLYsM.s:2151   .text.wpa_validate_wpa_ie:00000000000001b6 .LVL212
C:\Users\stapi\AppData\Local\Temp\ccmQLYsM.s:2198   .text.wpa_validate_wpa_ie:0000000000000208 .LVL215
C:\Users\stapi\AppData\Local\Temp\ccmQLYsM.s:2230   .text.wpa_validate_wpa_ie:000000000000022c .LVL219
C:\Users\stapi\AppData\Local\Temp\ccmQLYsM.s:2250   .text.wpa_validate_wpa_ie:0000000000000244 .LVL223
C:\Users\stapi\AppData\Local\Temp\ccmQLYsM.s:2287   .text.wpa_validate_wpa_ie:000000000000028e .LVL229
C:\Users\stapi\AppData\Local\Temp\ccmQLYsM.s:2319   .text.wpa_validate_wpa_ie:00000000000002c6 .LVL235
C:\Users\stapi\AppData\Local\Temp\ccmQLYsM.s:2459   .text.wpa_validate_wpa_ie:0000000000000374 .LVL254
C:\Users\stapi\AppData\Local\Temp\ccmQLYsM.s:2487   .text.wpa_validate_wpa_ie:000000000000039c .LVL258
C:\Users\stapi\AppData\Local\Temp\ccmQLYsM.s:2507   .text.wpa_validate_wpa_ie:00000000000003bc .LVL262
C:\Users\stapi\AppData\Local\Temp\ccmQLYsM.s:2578   .text.wpa_validate_wpa_ie:0000000000000424 .LVL267
C:\Users\stapi\AppData\Local\Temp\ccmQLYsM.s:2631   .text.wpa_validate_wpa_ie:0000000000000474 .LVL273
C:\Users\stapi\AppData\Local\Temp\ccmQLYsM.s:2639   .text.wpa_validate_wpa_ie:0000000000000486 .LVL274
C:\Users\stapi\AppData\Local\Temp\ccmQLYsM.s:2797   .text.wpa_validate_wpa_ie:000000000000057e .LVL287
C:\Users\stapi\AppData\Local\Temp\ccmQLYsM.s:2875   .text.wpa_validate_wpa_ie:00000000000005e4 .LVL295
C:\Users\stapi\AppData\Local\Temp\ccmQLYsM.s:2891   .text.wpa_validate_wpa_ie:0000000000000602 .LVL296
C:\Users\stapi\AppData\Local\Temp\ccmQLYsM.s:2902   .text.wpa_validate_wpa_ie:0000000000000616 .LVL297
C:\Users\stapi\AppData\Local\Temp\ccmQLYsM.s:2918   .text.wpa_validate_wpa_ie:000000000000062e .LVL298
C:\Users\stapi\AppData\Local\Temp\ccmQLYsM.s:2923   .text.wpa_validate_wpa_ie:0000000000000638 .LVL299
C:\Users\stapi\AppData\Local\Temp\ccmQLYsM.s:2948   .text.wpa_validate_wpa_ie:0000000000000660 .LVL300
C:\Users\stapi\AppData\Local\Temp\ccmQLYsM.s:2959   .text.wpa_validate_wpa_ie:0000000000000670 .LVL301
C:\Users\stapi\AppData\Local\Temp\ccmQLYsM.s:2964   .text.wpa_validate_wpa_ie:000000000000067a .LVL302
C:\Users\stapi\AppData\Local\Temp\ccmQLYsM.s:12182  .debug_str:0000000000001167 .LASF378
C:\Users\stapi\AppData\Local\Temp\ccmQLYsM.s:13     .text.wpa_auth_okc_iter:0000000000000000 .LFB143
C:\Users\stapi\AppData\Local\Temp\ccmQLYsM.s:46     .text.wpa_auth_okc_iter:000000000000002a .LFE143
C:\Users\stapi\AppData\Local\Temp\ccmQLYsM.s:10040  .debug_loc:0000000000000856 .LLST0
C:\Users\stapi\AppData\Local\Temp\ccmQLYsM.s:10054  .debug_loc:0000000000000877 .LLST1
C:\Users\stapi\AppData\Local\Temp\ccmQLYsM.s:10065  .debug_loc:0000000000000895 .LLST2
C:\Users\stapi\AppData\Local\Temp\ccmQLYsM.s:35     .text.wpa_auth_okc_iter:000000000000001c .LVL4
C:\Users\stapi\AppData\Local\Temp\ccmQLYsM.s:12222  .debug_str:00000000000012b3 .LASF337
C:\Users\stapi\AppData\Local\Temp\ccmQLYsM.s:1638   .text.wpa_add_kde:0000000000000000 .LFB142
C:\Users\stapi\AppData\Local\Temp\ccmQLYsM.s:1745   .text.wpa_add_kde:0000000000000070 .LFE142
C:\Users\stapi\AppData\Local\Temp\ccmQLYsM.s:10076  .debug_loc:00000000000008b3 .LLST85
C:\Users\stapi\AppData\Local\Temp\ccmQLYsM.s:10099  .debug_loc:00000000000008eb .LLST86
C:\Users\stapi\AppData\Local\Temp\ccmQLYsM.s:10117  .debug_loc:0000000000000917 .LLST87
C:\Users\stapi\AppData\Local\Temp\ccmQLYsM.s:11674  .debug_str:0000000000000203 .LASF338
C:\Users\stapi\AppData\Local\Temp\ccmQLYsM.s:10135  .debug_loc:0000000000000943 .LLST88
C:\Users\stapi\AppData\Local\Temp\ccmQLYsM.s:11996  .debug_str:0000000000000b6b .LASF339
C:\Users\stapi\AppData\Local\Temp\ccmQLYsM.s:10146  .debug_loc:0000000000000961 .LLST89
C:\Users\stapi\AppData\Local\Temp\ccmQLYsM.s:11932  .debug_str:00000000000009b4 .LASF340
C:\Users\stapi\AppData\Local\Temp\ccmQLYsM.s:10157  .debug_loc:000000000000097f .LLST90
C:\Users\stapi\AppData\Local\Temp\ccmQLYsM.s:1669   .text.wpa_add_kde:000000000000001e .LBB276
C:\Users\stapi\AppData\Local\Temp\ccmQLYsM.s:10168  .debug_loc:000000000000099d .LLST91
C:\Users\stapi\AppData\Local\Temp\ccmQLYsM.s:10179  .debug_loc:00000000000009bb .LLST92
C:\Users\stapi\AppData\Local\Temp\ccmQLYsM.s:1715   .text.wpa_add_kde:0000000000000050 .LVL171
C:\Users\stapi\AppData\Local\Temp\ccmQLYsM.s:1728   .text.wpa_add_kde:0000000000000064 .LVL173
C:\Users\stapi\AppData\Local\Temp\ccmQLYsM.s:11922  .debug_str:000000000000095b .LASF341
C:\Users\stapi\AppData\Local\Temp\ccmQLYsM.s:1018   .text.wpa_auth_gen_wpa_ie:0000000000000000 .LFB141
C:\Users\stapi\AppData\Local\Temp\ccmQLYsM.s:1631   .text.wpa_auth_gen_wpa_ie:0000000000000212 .LFE141
C:\Users\stapi\AppData\Local\Temp\ccmQLYsM.s:10188  .debug_loc:00000000000009d0 .LLST55
C:\Users\stapi\AppData\Local\Temp\ccmQLYsM.s:10199  .debug_loc:00000000000009ee .LLST56
C:\Users\stapi\AppData\Local\Temp\ccmQLYsM.s:10228  .debug_loc:0000000000000a3b .LLST57
C:\Users\stapi\AppData\Local\Temp\ccmQLYsM.s:1049   .text.wpa_auth_gen_wpa_ie:0000000000000014 .LBB210
C:\Users\stapi\AppData\Local\Temp\ccmQLYsM.s:10249  .debug_loc:0000000000000a71 .LLST58
C:\Users\stapi\AppData\Local\Temp\ccmQLYsM.s:10282  .debug_loc:0000000000000abf .LLST59
C:\Users\stapi\AppData\Local\Temp\ccmQLYsM.s:10297  .debug_loc:0000000000000ae1 .LLST60
C:\Users\stapi\AppData\Local\Temp\ccmQLYsM.s:10312  .debug_loc:0000000000000b05 .LLST61
C:\Users\stapi\AppData\Local\Temp\ccmQLYsM.s:1060   .text.wpa_auth_gen_wpa_ie:000000000000001c .LBB212
C:\Users\stapi\AppData\Local\Temp\ccmQLYsM.s:1070   .text.wpa_auth_gen_wpa_ie:000000000000001c .LBB215
C:\Users\stapi\AppData\Local\Temp\ccmQLYsM.s:1088   .text.wpa_auth_gen_wpa_ie:000000000000001c .LBB218
C:\Users\stapi\AppData\Local\Temp\ccmQLYsM.s:1098   .text.wpa_auth_gen_wpa_ie:000000000000001c .LBB221
C:\Users\stapi\AppData\Local\Temp\ccmQLYsM.s:1106   .text.wpa_auth_gen_wpa_ie:000000000000001c .LBB225
C:\Users\stapi\AppData\Local\Temp\ccmQLYsM.s:10350  .debug_loc:0000000000000b5a .LLST62
C:\Users\stapi\AppData\Local\Temp\ccmQLYsM.s:10359  .debug_loc:0000000000000b72 .LLST63
C:\Users\stapi\AppData\Local\Temp\ccmQLYsM.s:1192   .text.wpa_auth_gen_wpa_ie:000000000000006a .LBB234
C:\Users\stapi\AppData\Local\Temp\ccmQLYsM.s:10368  .debug_loc:0000000000000b88 .LLST64
C:\Users\stapi\AppData\Local\Temp\ccmQLYsM.s:10375  .debug_loc:0000000000000b9b .LLST65
C:\Users\stapi\AppData\Local\Temp\ccmQLYsM.s:1231   .text.wpa_auth_gen_wpa_ie:0000000000000082 .LBB241
C:\Users\stapi\AppData\Local\Temp\ccmQLYsM.s:10384  .debug_loc:0000000000000bb1 .LLST66
C:\Users\stapi\AppData\Local\Temp\ccmQLYsM.s:10414  .debug_loc:0000000000000be9 .LLST67
C:\Users\stapi\AppData\Local\Temp\ccmQLYsM.s:10429  .debug_loc:0000000000000c12 .LLST68
C:\Users\stapi\AppData\Local\Temp\ccmQLYsM.s:10450  .debug_loc:0000000000000c41 .LLST69
C:\Users\stapi\AppData\Local\Temp\ccmQLYsM.s:10465  .debug_loc:0000000000000c6a .LLST70
C:\Users\stapi\AppData\Local\Temp\ccmQLYsM.s:10505  .debug_loc:0000000000000ccf .LLST71
C:\Users\stapi\AppData\Local\Temp\ccmQLYsM.s:10540  .debug_loc:0000000000000d21 .LLST72
C:\Users\stapi\AppData\Local\Temp\ccmQLYsM.s:10570  .debug_loc:0000000000000d60 .LLST73
C:\Users\stapi\AppData\Local\Temp\ccmQLYsM.s:1241   .text.wpa_auth_gen_wpa_ie:0000000000000084 .LBB243
C:\Users\stapi\AppData\Local\Temp\ccmQLYsM.s:10581  .debug_loc:0000000000000d7e .LLST74
C:\Users\stapi\AppData\Local\Temp\ccmQLYsM.s:10590  .debug_loc:0000000000000d96 .LLST75
C:\Users\stapi\AppData\Local\Temp\ccmQLYsM.s:1279   .text.wpa_auth_gen_wpa_ie:00000000000000a4 .LBB249
C:\Users\stapi\AppData\Local\Temp\ccmQLYsM.s:1289   .text.wpa_auth_gen_wpa_ie:00000000000000ac .LBE249
C:\Users\stapi\AppData\Local\Temp\ccmQLYsM.s:10599  .debug_loc:0000000000000dab .LLST76
C:\Users\stapi\AppData\Local\Temp\ccmQLYsM.s:10607  .debug_loc:0000000000000dbf .LLST77
C:\Users\stapi\AppData\Local\Temp\ccmQLYsM.s:1397   .text.wpa_auth_gen_wpa_ie:0000000000000120 .LBB251
C:\Users\stapi\AppData\Local\Temp\ccmQLYsM.s:10616  .debug_loc:0000000000000dd4 .LLST78
C:\Users\stapi\AppData\Local\Temp\ccmQLYsM.s:10623  .debug_loc:0000000000000de7 .LLST79
C:\Users\stapi\AppData\Local\Temp\ccmQLYsM.s:1453   .text.wpa_auth_gen_wpa_ie:000000000000015c .LBB257
C:\Users\stapi\AppData\Local\Temp\ccmQLYsM.s:1486   .text.wpa_auth_gen_wpa_ie:0000000000000178 .LBB261
C:\Users\stapi\AppData\Local\Temp\ccmQLYsM.s:1502   .text.wpa_auth_gen_wpa_ie:0000000000000188 .LBE261
C:\Users\stapi\AppData\Local\Temp\ccmQLYsM.s:10632  .debug_loc:0000000000000dfc .LLST80
C:\Users\stapi\AppData\Local\Temp\ccmQLYsM.s:10641  .debug_loc:0000000000000e14 .LLST81
C:\Users\stapi\AppData\Local\Temp\ccmQLYsM.s:1519   .text.wpa_auth_gen_wpa_ie:0000000000000194 .LBB263
C:\Users\stapi\AppData\Local\Temp\ccmQLYsM.s:1539   .text.wpa_auth_gen_wpa_ie:00000000000001ac .LBE263
C:\Users\stapi\AppData\Local\Temp\ccmQLYsM.s:10648  .debug_loc:0000000000000e27 .LLST82
C:\Users\stapi\AppData\Local\Temp\ccmQLYsM.s:1551   .text.wpa_auth_gen_wpa_ie:00000000000001b0 .LBB265
C:\Users\stapi\AppData\Local\Temp\ccmQLYsM.s:1561   .text.wpa_auth_gen_wpa_ie:00000000000001b8 .LBE265
C:\Users\stapi\AppData\Local\Temp\ccmQLYsM.s:10657  .debug_loc:0000000000000e3f .LLST83
C:\Users\stapi\AppData\Local\Temp\ccmQLYsM.s:10664  .debug_loc:0000000000000e52 .LLST84
C:\Users\stapi\AppData\Local\Temp\ccmQLYsM.s:1295   .text.wpa_auth_gen_wpa_ie:00000000000000b6 .LVL124
C:\Users\stapi\AppData\Local\Temp\ccmQLYsM.s:1308   .text.wpa_auth_gen_wpa_ie:00000000000000cc .LVL126
C:\Users\stapi\AppData\Local\Temp\ccmQLYsM.s:1440   .text.wpa_auth_gen_wpa_ie:000000000000014c .LVL141
C:\Users\stapi\AppData\Local\Temp\ccmQLYsM.s:1363   .text.wpa_auth_gen_wpa_ie:00000000000000fc .LVL131
C:\Users\stapi\AppData\Local\Temp\ccmQLYsM.s:1381   .text.wpa_auth_gen_wpa_ie:0000000000000116 .LVL135
C:\Users\stapi\AppData\Local\Temp\ccmQLYsM.s:1583   .text.wpa_auth_gen_wpa_ie:00000000000001d4 .LVL157
C:\Users\stapi\AppData\Local\Temp\ccmQLYsM.s:1591   .text.wpa_auth_gen_wpa_ie:00000000000001e4 .LVL158
C:\Users\stapi\AppData\Local\Temp\ccmQLYsM.s:1603   .text.wpa_auth_gen_wpa_ie:00000000000001fa .LVL159
C:\Users\stapi\AppData\Local\Temp\ccmQLYsM.s:11912  .debug_str:000000000000091d .LASF348
C:\Users\stapi\AppData\Local\Temp\ccmQLYsM.s:11844  .debug_str:0000000000000751 .LASF342
C:\Users\stapi\AppData\Local\Temp\ccmQLYsM.s:12360  .debug_str:00000000000017ab .LASF343
C:\Users\stapi\AppData\Local\Temp\ccmQLYsM.s:860    .text.wpa_write_rsnxe:0000000000000000 .LFB139
C:\Users\stapi\AppData\Local\Temp\ccmQLYsM.s:1011   .text.wpa_write_rsnxe:0000000000000098 .LFE139
C:\Users\stapi\AppData\Local\Temp\ccmQLYsM.s:10671  .debug_loc:0000000000000e65 .LLST51
C:\Users\stapi\AppData\Local\Temp\ccmQLYsM.s:10696  .debug_loc:0000000000000e9f .LLST52
C:\Users\stapi\AppData\Local\Temp\ccmQLYsM.s:10729  .debug_loc:0000000000000eef .LLST53
C:\Users\stapi\AppData\Local\Temp\ccmQLYsM.s:12356  .debug_str:000000000000179c .LASF344
C:\Users\stapi\AppData\Local\Temp\ccmQLYsM.s:10745  .debug_loc:0000000000000f19 .LLST54
C:\Users\stapi\AppData\Local\Temp\ccmQLYsM.s:868    .text.wpa_write_rsnxe:0000000000000000 .LBB176
C:\Users\stapi\AppData\Local\Temp\ccmQLYsM.s:878    .text.wpa_write_rsnxe:000000000000000a .LBE176
C:\Users\stapi\AppData\Local\Temp\ccmQLYsM.s:12362  .debug_str:00000000000017bb .LASF345
C:\Users\stapi\AppData\Local\Temp\ccmQLYsM.s:66     .text.wpa_write_rsn_ie:0000000000000000 .LFB138
C:\Users\stapi\AppData\Local\Temp\ccmQLYsM.s:853    .text.wpa_write_rsn_ie:00000000000002fa .LFE138
C:\Users\stapi\AppData\Local\Temp\ccmQLYsM.s:10757  .debug_loc:0000000000000f38 .LLST3
C:\Users\stapi\AppData\Local\Temp\ccmQLYsM.s:10768  .debug_loc:0000000000000f56 .LLST4
C:\Users\stapi\AppData\Local\Temp\ccmQLYsM.s:10779  .debug_loc:0000000000000f74 .LLST5
C:\Users\stapi\AppData\Local\Temp\ccmQLYsM.s:10819  .debug_loc:0000000000000fd2 .LLST6
C:\Users\stapi\AppData\Local\Temp\ccmQLYsM.s:10830  .debug_loc:0000000000000ff0 .LLST7
C:\Users\stapi\AppData\Local\Temp\ccmQLYsM.s:12068  .debug_str:0000000000000d99 .LASF346
C:\Users\stapi\AppData\Local\Temp\ccmQLYsM.s:10841  .debug_loc:000000000000100e .LLST8
C:\Users\stapi\AppData\Local\Temp\ccmQLYsM.s:10941  .debug_loc:0000000000001103 .LLST9
C:\Users\stapi\AppData\Local\Temp\ccmQLYsM.s:10952  .debug_loc:0000000000001121 .LLST10
C:\Users\stapi\AppData\Local\Temp\ccmQLYsM.s:11057  .debug_loc:000000000000121b .LLST11
C:\Users\stapi\AppData\Local\Temp\ccmQLYsM.s:11852  .debug_str:000000000000077f .LASF347
C:\Users\stapi\AppData\Local\Temp\ccmQLYsM.s:11100  .debug_loc:000000000000126e .LLST12
C:\Users\stapi\AppData\Local\Temp\ccmQLYsM.s:88     .text.wpa_write_rsn_ie:000000000000000c .LBB130
C:\Users\stapi\AppData\Local\Temp\ccmQLYsM.s:11111  .debug_loc:000000000000128c .LLST13
C:\Users\stapi\AppData\Local\Temp\ccmQLYsM.s:11119  .debug_loc:00000000000012a0 .LLST14
C:\Users\stapi\AppData\Local\Temp\ccmQLYsM.s:146    .text.wpa_write_rsn_ie:0000000000000046 .LBB134
C:\Users\stapi\AppData\Local\Temp\ccmQLYsM.s:168    .text.wpa_write_rsn_ie:0000000000000062 .LBE134
C:\Users\stapi\AppData\Local\Temp\ccmQLYsM.s:11128  .debug_loc:00000000000012b5 .LLST15
C:\Users\stapi\AppData\Local\Temp\ccmQLYsM.s:11135  .debug_loc:00000000000012c8 .LLST16
C:\Users\stapi\AppData\Local\Temp\ccmQLYsM.s:201    .text.wpa_write_rsn_ie:0000000000000086 .LBB136
C:\Users\stapi\AppData\Local\Temp\ccmQLYsM.s:213    .text.wpa_write_rsn_ie:0000000000000094 .LBE136
C:\Users\stapi\AppData\Local\Temp\ccmQLYsM.s:11144  .debug_loc:00000000000012dd .LLST17
C:\Users\stapi\AppData\Local\Temp\ccmQLYsM.s:11151  .debug_loc:00000000000012f0 .LLST18
C:\Users\stapi\AppData\Local\Temp\ccmQLYsM.s:229    .text.wpa_write_rsn_ie:000000000000009e .LBB138
C:\Users\stapi\AppData\Local\Temp\ccmQLYsM.s:247    .text.wpa_write_rsn_ie:00000000000000b4 .LBE138
C:\Users\stapi\AppData\Local\Temp\ccmQLYsM.s:11160  .debug_loc:0000000000001305 .LLST19
C:\Users\stapi\AppData\Local\Temp\ccmQLYsM.s:11169  .debug_loc:000000000000131d .LLST20
C:\Users\stapi\AppData\Local\Temp\ccmQLYsM.s:265    .text.wpa_write_rsn_ie:00000000000000c0 .LBB140
C:\Users\stapi\AppData\Local\Temp\ccmQLYsM.s:285    .text.wpa_write_rsn_ie:00000000000000d8 .LBE140
C:\Users\stapi\AppData\Local\Temp\ccmQLYsM.s:11176  .debug_loc:0000000000001330 .LLST21
C:\Users\stapi\AppData\Local\Temp\ccmQLYsM.s:11185  .debug_loc:0000000000001348 .LLST22
C:\Users\stapi\AppData\Local\Temp\ccmQLYsM.s:303    .text.wpa_write_rsn_ie:00000000000000e4 .LBB142
C:\Users\stapi\AppData\Local\Temp\ccmQLYsM.s:323    .text.wpa_write_rsn_ie:00000000000000fc .LBE142
C:\Users\stapi\AppData\Local\Temp\ccmQLYsM.s:11192  .debug_loc:000000000000135b .LLST23
C:\Users\stapi\AppData\Local\Temp\ccmQLYsM.s:11201  .debug_loc:0000000000001373 .LLST24
C:\Users\stapi\AppData\Local\Temp\ccmQLYsM.s:341    .text.wpa_write_rsn_ie:0000000000000108 .LBB144
C:\Users\stapi\AppData\Local\Temp\ccmQLYsM.s:361    .text.wpa_write_rsn_ie:0000000000000120 .LBE144
C:\Users\stapi\AppData\Local\Temp\ccmQLYsM.s:11208  .debug_loc:0000000000001386 .LLST25
C:\Users\stapi\AppData\Local\Temp\ccmQLYsM.s:11217  .debug_loc:000000000000139e .LLST26
C:\Users\stapi\AppData\Local\Temp\ccmQLYsM.s:379    .text.wpa_write_rsn_ie:000000000000012c .LBB146
C:\Users\stapi\AppData\Local\Temp\ccmQLYsM.s:399    .text.wpa_write_rsn_ie:0000000000000144 .LBE146
C:\Users\stapi\AppData\Local\Temp\ccmQLYsM.s:11224  .debug_loc:00000000000013b1 .LLST27
C:\Users\stapi\AppData\Local\Temp\ccmQLYsM.s:11233  .debug_loc:00000000000013c9 .LLST28
C:\Users\stapi\AppData\Local\Temp\ccmQLYsM.s:417    .text.wpa_write_rsn_ie:0000000000000150 .LBB148
C:\Users\stapi\AppData\Local\Temp\ccmQLYsM.s:437    .text.wpa_write_rsn_ie:0000000000000168 .LBE148
C:\Users\stapi\AppData\Local\Temp\ccmQLYsM.s:11240  .debug_loc:00000000000013dc .LLST29
C:\Users\stapi\AppData\Local\Temp\ccmQLYsM.s:11249  .debug_loc:00000000000013f4 .LLST30
C:\Users\stapi\AppData\Local\Temp\ccmQLYsM.s:456    .text.wpa_write_rsn_ie:0000000000000174 .LBB150
C:\Users\stapi\AppData\Local\Temp\ccmQLYsM.s:476    .text.wpa_write_rsn_ie:000000000000018c .LBE150
C:\Users\stapi\AppData\Local\Temp\ccmQLYsM.s:11256  .debug_loc:0000000000001407 .LLST31
C:\Users\stapi\AppData\Local\Temp\ccmQLYsM.s:11265  .debug_loc:000000000000141f .LLST32
C:\Users\stapi\AppData\Local\Temp\ccmQLYsM.s:496    .text.wpa_write_rsn_ie:000000000000019a .LBB152
C:\Users\stapi\AppData\Local\Temp\ccmQLYsM.s:516    .text.wpa_write_rsn_ie:00000000000001b2 .LBE152
C:\Users\stapi\AppData\Local\Temp\ccmQLYsM.s:11272  .debug_loc:0000000000001432 .LLST33
C:\Users\stapi\AppData\Local\Temp\ccmQLYsM.s:11281  .debug_loc:000000000000144a .LLST34
C:\Users\stapi\AppData\Local\Temp\ccmQLYsM.s:528    .text.wpa_write_rsn_ie:00000000000001b6 .LBB154
C:\Users\stapi\AppData\Local\Temp\ccmQLYsM.s:538    .text.wpa_write_rsn_ie:00000000000001be .LBE154
C:\Users\stapi\AppData\Local\Temp\ccmQLYsM.s:11288  .debug_loc:000000000000145d .LLST35
C:\Users\stapi\AppData\Local\Temp\ccmQLYsM.s:11295  .debug_loc:0000000000001470 .LLST36
C:\Users\stapi\AppData\Local\Temp\ccmQLYsM.s:540    .text.wpa_write_rsn_ie:00000000000001be .LBB156
C:\Users\stapi\AppData\Local\Temp\ccmQLYsM.s:11302  .debug_loc:0000000000001483 .LLST37
C:\Users\stapi\AppData\Local\Temp\ccmQLYsM.s:11313  .debug_loc:00000000000014a1 .LLST38
C:\Users\stapi\AppData\Local\Temp\ccmQLYsM.s:588    .text.wpa_write_rsn_ie:00000000000001e2 .LBB159
C:\Users\stapi\AppData\Local\Temp\ccmQLYsM.s:600    .text.wpa_write_rsn_ie:00000000000001ee .LBE159
C:\Users\stapi\AppData\Local\Temp\ccmQLYsM.s:11351  .debug_loc:00000000000014f6 .LLST39
C:\Users\stapi\AppData\Local\Temp\ccmQLYsM.s:11358  .debug_loc:0000000000001509 .LLST40
C:\Users\stapi\AppData\Local\Temp\ccmQLYsM.s:659    .text.wpa_write_rsn_ie:0000000000000220 .LBB162
C:\Users\stapi\AppData\Local\Temp\ccmQLYsM.s:670    .text.wpa_write_rsn_ie:000000000000022a .LBE162
C:\Users\stapi\AppData\Local\Temp\ccmQLYsM.s:11365  .debug_loc:000000000000151c .LLST41
C:\Users\stapi\AppData\Local\Temp\ccmQLYsM.s:11373  .debug_loc:0000000000001530 .LLST42
C:\Users\stapi\AppData\Local\Temp\ccmQLYsM.s:706    .text.wpa_write_rsn_ie:000000000000025c .LBB164
C:\Users\stapi\AppData\Local\Temp\ccmQLYsM.s:716    .text.wpa_write_rsn_ie:0000000000000264 .LBE164
C:\Users\stapi\AppData\Local\Temp\ccmQLYsM.s:11382  .debug_loc:0000000000001545 .LLST43
C:\Users\stapi\AppData\Local\Temp\ccmQLYsM.s:11390  .debug_loc:0000000000001559 .LLST44
C:\Users\stapi\AppData\Local\Temp\ccmQLYsM.s:744    .text.wpa_write_rsn_ie:0000000000000290 .LBB166
C:\Users\stapi\AppData\Local\Temp\ccmQLYsM.s:11397  .debug_loc:000000000000156c .LLST45
C:\Users\stapi\AppData\Local\Temp\ccmQLYsM.s:11406  .debug_loc:0000000000001584 .LLST46
C:\Users\stapi\AppData\Local\Temp\ccmQLYsM.s:766    .text.wpa_write_rsn_ie:00000000000002a6 .LBB169
C:\Users\stapi\AppData\Local\Temp\ccmQLYsM.s:785    .text.wpa_write_rsn_ie:00000000000002ba .LBE169
C:\Users\stapi\AppData\Local\Temp\ccmQLYsM.s:11413  .debug_loc:0000000000001597 .LLST47
C:\Users\stapi\AppData\Local\Temp\ccmQLYsM.s:11422  .debug_loc:00000000000015af .LLST48
C:\Users\stapi\AppData\Local\Temp\ccmQLYsM.s:811    .text.wpa_write_rsn_ie:00000000000002ce .LBB172
C:\Users\stapi\AppData\Local\Temp\ccmQLYsM.s:831    .text.wpa_write_rsn_ie:00000000000002e4 .LBE172
C:\Users\stapi\AppData\Local\Temp\ccmQLYsM.s:11429  .debug_loc:00000000000015c2 .LLST49
C:\Users\stapi\AppData\Local\Temp\ccmQLYsM.s:11438  .debug_loc:00000000000015da .LLST50
C:\Users\stapi\AppData\Local\Temp\ccmQLYsM.s:833    .text.wpa_write_rsn_ie:00000000000002e4 .LBB174
C:\Users\stapi\AppData\Local\Temp\ccmQLYsM.s:851    .text.wpa_write_rsn_ie:00000000000002fa .LBE174
C:\Users\stapi\AppData\Local\Temp\ccmQLYsM.s:128    .text.wpa_write_rsn_ie:000000000000002e .LVL12
C:\Users\stapi\AppData\Local\Temp\ccmQLYsM.s:141    .text.wpa_write_rsn_ie:0000000000000044 .LVL14
C:\Users\stapi\AppData\Local\Temp\ccmQLYsM.s:184    .text.wpa_write_rsn_ie:0000000000000074 .LVL19
C:\Users\stapi\AppData\Local\Temp\ccmQLYsM.s:678    .text.wpa_write_rsn_ie:000000000000023a .LVL75
C:\Users\stapi\AppData\Local\Temp\ccmQLYsM.s:12016  .debug_str:0000000000000c1e .LASF349
C:\Users\stapi\AppData\Local\Temp\ccmQLYsM.s:12028  .debug_str:0000000000000c98 .LASF350
C:\Users\stapi\AppData\Local\Temp\ccmQLYsM.s:12300  .debug_str:00000000000014d4 .LASF351
C:\Users\stapi\AppData\Local\Temp\ccmQLYsM.s:12034  .debug_str:0000000000000cc2 .LASF352
C:\Users\stapi\AppData\Local\Temp\ccmQLYsM.s:12024  .debug_str:0000000000000c70 .LASF353
C:\Users\stapi\AppData\Local\Temp\ccmQLYsM.s:11754  .debug_str:0000000000000455 .LASF354
C:\Users\stapi\AppData\Local\Temp\ccmQLYsM.s:12082  .debug_str:0000000000000e07 .LASF355
C:\Users\stapi\AppData\Local\Temp\ccmQLYsM.s:12040  .debug_str:0000000000000cef .LASF356
C:\Users\stapi\AppData\Local\Temp\ccmQLYsM.s:12296  .debug_str:00000000000014b7 .LASF357
C:\Users\stapi\AppData\Local\Temp\ccmQLYsM.s:12150  .debug_str:000000000000106e .LASF358
C:\Users\stapi\AppData\Local\Temp\ccmQLYsM.s:11704  .debug_str:00000000000002fb .LASF359
C:\Users\stapi\AppData\Local\Temp\ccmQLYsM.s:11728  .debug_str:00000000000003a1 .LASF360
C:\Users\stapi\AppData\Local\Temp\ccmQLYsM.s:11650  .debug_str:0000000000000159 .LASF361
C:\Users\stapi\AppData\Local\Temp\ccmQLYsM.s:12064  .debug_str:0000000000000d80 .LASF362
C:\Users\stapi\AppData\Local\Temp\ccmQLYsM.s:11764  .debug_str:0000000000000489 .LASF363
C:\Users\stapi\AppData\Local\Temp\ccmQLYsM.s:12206  .debug_str:0000000000001248 .LASF364
C:\Users\stapi\AppData\Local\Temp\ccmQLYsM.s:11672  .debug_str:00000000000001ef .LASF365
C:\Users\stapi\AppData\Local\Temp\ccmQLYsM.s:12198  .debug_str:000000000000120b .LASF366
C:\Users\stapi\AppData\Local\Temp\ccmQLYsM.s:12366  .debug_str:00000000000017de .LASF367
C:\Users\stapi\AppData\Local\Temp\ccmQLYsM.s:11904  .debug_str:00000000000008cb .LASF368
C:\Users\stapi\AppData\Local\Temp\ccmQLYsM.s:11848  .debug_str:000000000000075f .LASF369
C:\Users\stapi\AppData\Local\Temp\ccmQLYsM.s:11810  .debug_str:00000000000005bf .LASF370
C:\Users\stapi\AppData\Local\Temp\ccmQLYsM.s:11888  .debug_str:000000000000082c .LASF371
C:\Users\stapi\AppData\Local\Temp\ccmQLYsM.s:12008  .debug_str:0000000000000be3 .LASF372
C:\Users\stapi\AppData\Local\Temp\ccmQLYsM.s:11962  .debug_str:0000000000000a63 .LASF373
C:\Users\stapi\AppData\Local\Temp\ccmQLYsM.s:11838  .debug_str:0000000000000722 .LASF374
C:\Users\stapi\AppData\Local\Temp\ccmQLYsM.s:3003   .text.wpa_auth_uses_mfp:0000000000000000 .LVL305
C:\Users\stapi\AppData\Local\Temp\ccmQLYsM.s:3009   .text.wpa_auth_uses_mfp:0000000000000006 .LVL306
C:\Users\stapi\AppData\Local\Temp\ccmQLYsM.s:3013   .text.wpa_auth_uses_mfp:000000000000000c .LVL307
C:\Users\stapi\AppData\Local\Temp\ccmQLYsM.s:3017   .text.wpa_auth_uses_mfp:000000000000000e .LVL308
C:\Users\stapi\AppData\Local\Temp\ccmQLYsM.s:1816   .text.wpa_validate_wpa_ie:0000000000000000 .LVL175
C:\Users\stapi\AppData\Local\Temp\ccmQLYsM.s:1848   .text.wpa_validate_wpa_ie:0000000000000014 .LVL176
C:\Users\stapi\AppData\Local\Temp\ccmQLYsM.s:2971   .text.wpa_validate_wpa_ie:0000000000000682 .LVL303
C:\Users\stapi\AppData\Local\Temp\ccmQLYsM.s:2989   .text.wpa_validate_wpa_ie:0000000000000684 .LVL304
C:\Users\stapi\AppData\Local\Temp\ccmQLYsM.s:1887   .text.wpa_validate_wpa_ie:0000000000000048 .LVL180
C:\Users\stapi\AppData\Local\Temp\ccmQLYsM.s:1899   .text.wpa_validate_wpa_ie:0000000000000062 .LVL184
C:\Users\stapi\AppData\Local\Temp\ccmQLYsM.s:1906   .text.wpa_validate_wpa_ie:0000000000000070 .LVL186
C:\Users\stapi\AppData\Local\Temp\ccmQLYsM.s:1927   .text.wpa_validate_wpa_ie:000000000000007a .LVL187
C:\Users\stapi\AppData\Local\Temp\ccmQLYsM.s:1935   .text.wpa_validate_wpa_ie:000000000000007e .LVL188
C:\Users\stapi\AppData\Local\Temp\ccmQLYsM.s:2611   .text.wpa_validate_wpa_ie:0000000000000452 .LVL270
C:\Users\stapi\AppData\Local\Temp\ccmQLYsM.s:1897   .text.wpa_validate_wpa_ie:0000000000000060 .LVL183
C:\Users\stapi\AppData\Local\Temp\ccmQLYsM.s:1940   .text.wpa_validate_wpa_ie:0000000000000086 .LVL189
C:\Users\stapi\AppData\Local\Temp\ccmQLYsM.s:2193   .text.wpa_validate_wpa_ie:0000000000000200 .LVL214
C:\Users\stapi\AppData\Local\Temp\ccmQLYsM.s:1862   .text.wpa_validate_wpa_ie:0000000000000024 .LVL177
C:\Users\stapi\AppData\Local\Temp\ccmQLYsM.s:1865   .text.wpa_validate_wpa_ie:000000000000002a .LVL178
C:\Users\stapi\AppData\Local\Temp\ccmQLYsM.s:1893   .text.wpa_validate_wpa_ie:0000000000000054 .LVL182
C:\Users\stapi\AppData\Local\Temp\ccmQLYsM.s:1891   .text.wpa_validate_wpa_ie:0000000000000050 .LVL181
C:\Users\stapi\AppData\Local\Temp\ccmQLYsM.s:2004   .text.wpa_validate_wpa_ie:00000000000000c6 .LVL197
C:\Users\stapi\AppData\Local\Temp\ccmQLYsM.s:2265   .text.wpa_validate_wpa_ie:000000000000025a .LVL226
C:\Users\stapi\AppData\Local\Temp\ccmQLYsM.s:2481   .text.wpa_validate_wpa_ie:0000000000000392 .LVL256
C:\Users\stapi\AppData\Local\Temp\ccmQLYsM.s:2492   .text.wpa_validate_wpa_ie:00000000000003a0 .LVL259
C:\Users\stapi\AppData\Local\Temp\ccmQLYsM.s:2560   .text.wpa_validate_wpa_ie:0000000000000406 .LVL266
C:\Users\stapi\AppData\Local\Temp\ccmQLYsM.s:2351   .text.wpa_validate_wpa_ie:00000000000002e4 .LVL239
C:\Users\stapi\AppData\Local\Temp\ccmQLYsM.s:2360   .text.wpa_validate_wpa_ie:00000000000002f0 .LVL241
C:\Users\stapi\AppData\Local\Temp\ccmQLYsM.s:2435   .text.wpa_validate_wpa_ie:000000000000033c .LVL250
C:\Users\stapi\AppData\Local\Temp\ccmQLYsM.s:2448   .text.wpa_validate_wpa_ie:0000000000000350 .LVL252
C:\Users\stapi\AppData\Local\Temp\ccmQLYsM.s:2464   .text.wpa_validate_wpa_ie:0000000000000378 .LVL255
C:\Users\stapi\AppData\Local\Temp\ccmQLYsM.s:2485   .text.wpa_validate_wpa_ie:0000000000000394 .LVL257
C:\Users\stapi\AppData\Local\Temp\ccmQLYsM.s:2504   .text.wpa_validate_wpa_ie:00000000000003b0 .LVL261
C:\Users\stapi\AppData\Local\Temp\ccmQLYsM.s:2512   .text.wpa_validate_wpa_ie:00000000000003c0 .LVL263
C:\Users\stapi\AppData\Local\Temp\ccmQLYsM.s:2300   .text.wpa_validate_wpa_ie:0000000000000298 .LVL231
C:\Users\stapi\AppData\Local\Temp\ccmQLYsM.s:2306   .text.wpa_validate_wpa_ie:000000000000029e .LVL232
C:\Users\stapi\AppData\Local\Temp\ccmQLYsM.s:2311   .text.wpa_validate_wpa_ie:00000000000002a6 .LVL234
C:\Users\stapi\AppData\Local\Temp\ccmQLYsM.s:2324   .text.wpa_validate_wpa_ie:00000000000002ca .LVL236
C:\Users\stapi\AppData\Local\Temp\ccmQLYsM.s:2337   .text.wpa_validate_wpa_ie:00000000000002d8 .LVL237
C:\Users\stapi\AppData\Local\Temp\ccmQLYsM.s:2357   .text.wpa_validate_wpa_ie:00000000000002ea .LVL240
C:\Users\stapi\AppData\Local\Temp\ccmQLYsM.s:2376   .text.wpa_validate_wpa_ie:0000000000000302 .LVL242
C:\Users\stapi\AppData\Local\Temp\ccmQLYsM.s:2381   .text.wpa_validate_wpa_ie:0000000000000308 .LVL243
C:\Users\stapi\AppData\Local\Temp\ccmQLYsM.s:2391   .text.wpa_validate_wpa_ie:0000000000000312 .LVL244
C:\Users\stapi\AppData\Local\Temp\ccmQLYsM.s:2393   .text.wpa_validate_wpa_ie:0000000000000314 .LVL245
C:\Users\stapi\AppData\Local\Temp\ccmQLYsM.s:2403   .text.wpa_validate_wpa_ie:000000000000031e .LVL246
C:\Users\stapi\AppData\Local\Temp\ccmQLYsM.s:2405   .text.wpa_validate_wpa_ie:0000000000000320 .LVL247
C:\Users\stapi\AppData\Local\Temp\ccmQLYsM.s:2417   .text.wpa_validate_wpa_ie:000000000000032e .LVL248
C:\Users\stapi\AppData\Local\Temp\ccmQLYsM.s:2441   .text.wpa_validate_wpa_ie:0000000000000342 .LVL251
C:\Users\stapi\AppData\Local\Temp\ccmQLYsM.s:2450   .text.wpa_validate_wpa_ie:0000000000000352 .LVL253
C:\Users\stapi\AppData\Local\Temp\ccmQLYsM.s:2497   .text.wpa_validate_wpa_ie:00000000000003a2 .LVL260
C:\Users\stapi\AppData\Local\Temp\ccmQLYsM.s:2549   .text.wpa_validate_wpa_ie:00000000000003f0 .LVL265
C:\Users\stapi\AppData\Local\Temp\ccmQLYsM.s:1949   .text.wpa_validate_wpa_ie:0000000000000092 .LVL191
C:\Users\stapi\AppData\Local\Temp\ccmQLYsM.s:1956   .text.wpa_validate_wpa_ie:0000000000000096 .LVL192
C:\Users\stapi\AppData\Local\Temp\ccmQLYsM.s:2203   .text.wpa_validate_wpa_ie:000000000000020c .LVL216
C:\Users\stapi\AppData\Local\Temp\ccmQLYsM.s:2228   .text.wpa_validate_wpa_ie:0000000000000224 .LVL218
C:\Users\stapi\AppData\Local\Temp\ccmQLYsM.s:2259   .text.wpa_validate_wpa_ie:0000000000000250 .LVL225
C:\Users\stapi\AppData\Local\Temp\ccmQLYsM.s:2752   .text.wpa_validate_wpa_ie:000000000000051e .LVL283
C:\Users\stapi\AppData\Local\Temp\ccmQLYsM.s:2802   .text.wpa_validate_wpa_ie:0000000000000582 .LVL288
C:\Users\stapi\AppData\Local\Temp\ccmQLYsM.s:2816   .text.wpa_validate_wpa_ie:000000000000058a .LVL292
C:\Users\stapi\AppData\Local\Temp\ccmQLYsM.s:1877   .text.wpa_validate_wpa_ie:0000000000000038 .LVL179
C:\Users\stapi\AppData\Local\Temp\ccmQLYsM.s:2606   .text.wpa_validate_wpa_ie:000000000000044a .LVL269
C:\Users\stapi\AppData\Local\Temp\ccmQLYsM.s:2032   .text.wpa_validate_wpa_ie:0000000000000102 .LVL201
C:\Users\stapi\AppData\Local\Temp\ccmQLYsM.s:2083   .text.wpa_validate_wpa_ie:000000000000013c .LVL202
C:\Users\stapi\AppData\Local\Temp\ccmQLYsM.s:2099   .text.wpa_validate_wpa_ie:0000000000000152 .LVL204
C:\Users\stapi\AppData\Local\Temp\ccmQLYsM.s:2102   .text.wpa_validate_wpa_ie:0000000000000156 .LVL205
C:\Users\stapi\AppData\Local\Temp\ccmQLYsM.s:2111   .text.wpa_validate_wpa_ie:000000000000015c .LVL206
C:\Users\stapi\AppData\Local\Temp\ccmQLYsM.s:2119   .text.wpa_validate_wpa_ie:000000000000016a .LVL208
C:\Users\stapi\AppData\Local\Temp\ccmQLYsM.s:2121   .text.wpa_validate_wpa_ie:000000000000016e .LVL209
C:\Users\stapi\AppData\Local\Temp\ccmQLYsM.s:2141   .text.wpa_validate_wpa_ie:0000000000000198 .LVL210
C:\Users\stapi\AppData\Local\Temp\ccmQLYsM.s:2156   .text.wpa_validate_wpa_ie:00000000000001ba .LVL213
C:\Users\stapi\AppData\Local\Temp\ccmQLYsM.s:2219   .text.wpa_validate_wpa_ie:000000000000021e .LVL217
C:\Users\stapi\AppData\Local\Temp\ccmQLYsM.s:2236   .text.wpa_validate_wpa_ie:0000000000000232 .LVL220
C:\Users\stapi\AppData\Local\Temp\ccmQLYsM.s:2239   .text.wpa_validate_wpa_ie:0000000000000236 .LVL221
C:\Users\stapi\AppData\Local\Temp\ccmQLYsM.s:2248   .text.wpa_validate_wpa_ie:000000000000023c .LVL222
C:\Users\stapi\AppData\Local\Temp\ccmQLYsM.s:2256   .text.wpa_validate_wpa_ie:000000000000024a .LVL224
C:\Users\stapi\AppData\Local\Temp\ccmQLYsM.s:2277   .text.wpa_validate_wpa_ie:000000000000026c .LVL227
C:\Users\stapi\AppData\Local\Temp\ccmQLYsM.s:2279   .text.wpa_validate_wpa_ie:000000000000026e .LVL228
C:\Users\stapi\AppData\Local\Temp\ccmQLYsM.s:2292   .text.wpa_validate_wpa_ie:0000000000000292 .LVL230
C:\Users\stapi\AppData\Local\Temp\ccmQLYsM.s:2309   .text.wpa_validate_wpa_ie:00000000000002a4 .LVL233
C:\Users\stapi\AppData\Local\Temp\ccmQLYsM.s:2349   .text.wpa_validate_wpa_ie:00000000000002e2 .LVL238
C:\Users\stapi\AppData\Local\Temp\ccmQLYsM.s:2433   .text.wpa_validate_wpa_ie:000000000000033a .LVL249
C:\Users\stapi\AppData\Local\Temp\ccmQLYsM.s:2603   .text.wpa_validate_wpa_ie:0000000000000448 .LVL268
C:\Users\stapi\AppData\Local\Temp\ccmQLYsM.s:2619   .text.wpa_validate_wpa_ie:000000000000045a .LVL271
C:\Users\stapi\AppData\Local\Temp\ccmQLYsM.s:2621   .text.wpa_validate_wpa_ie:000000000000045c .LVL272
C:\Users\stapi\AppData\Local\Temp\ccmQLYsM.s:2648   .text.wpa_validate_wpa_ie:0000000000000490 .LVL275
C:\Users\stapi\AppData\Local\Temp\ccmQLYsM.s:2661   .text.wpa_validate_wpa_ie:000000000000049e .LVL276
C:\Users\stapi\AppData\Local\Temp\ccmQLYsM.s:2809   .text.wpa_validate_wpa_ie:0000000000000586 .LVL290
C:\Users\stapi\AppData\Local\Temp\ccmQLYsM.s:2723   .text.wpa_validate_wpa_ie:00000000000004fe .LVL280
C:\Users\stapi\AppData\Local\Temp\ccmQLYsM.s:2727   .text.wpa_validate_wpa_ie:0000000000000502 .LVL281
C:\Users\stapi\AppData\Local\Temp\ccmQLYsM.s:2743   .text.wpa_validate_wpa_ie:0000000000000510 .LVL282
C:\Users\stapi\AppData\Local\Temp\ccmQLYsM.s:2755   .text.wpa_validate_wpa_ie:0000000000000520 .LVL284
C:\Users\stapi\AppData\Local\Temp\ccmQLYsM.s:2823   .text.wpa_validate_wpa_ie:0000000000000594 .LVL293
C:\Users\stapi\AppData\Local\Temp\ccmQLYsM.s:1991   .text.wpa_validate_wpa_ie:00000000000000c2 .LVL196
C:\Users\stapi\AppData\Local\Temp\ccmQLYsM.s:2007   .text.wpa_validate_wpa_ie:00000000000000ce .LVL198
C:\Users\stapi\AppData\Local\Temp\ccmQLYsM.s:2010   .text.wpa_validate_wpa_ie:00000000000000d0 .LVL199
C:\Users\stapi\AppData\Local\Temp\ccmQLYsM.s:17     .text.wpa_auth_okc_iter:0000000000000000 .LVL0
C:\Users\stapi\AppData\Local\Temp\ccmQLYsM.s:31     .text.wpa_auth_okc_iter:0000000000000012 .LVL2
C:\Users\stapi\AppData\Local\Temp\ccmQLYsM.s:33     .text.wpa_auth_okc_iter:0000000000000014 .LVL3
C:\Users\stapi\AppData\Local\Temp\ccmQLYsM.s:23     .text.wpa_auth_okc_iter:0000000000000008 .LVL1
C:\Users\stapi\AppData\Local\Temp\ccmQLYsM.s:1641   .text.wpa_add_kde:0000000000000000 .LVL163
C:\Users\stapi\AppData\Local\Temp\ccmQLYsM.s:1650   .text.wpa_add_kde:0000000000000008 .LVL164
C:\Users\stapi\AppData\Local\Temp\ccmQLYsM.s:1658   .text.wpa_add_kde:0000000000000012 .LVL166
C:\Users\stapi\AppData\Local\Temp\ccmQLYsM.s:1703   .text.wpa_add_kde:0000000000000042 .LVL169
C:\Users\stapi\AppData\Local\Temp\ccmQLYsM.s:1694   .text.wpa_add_kde:0000000000000038 .LVL168
C:\Users\stapi\AppData\Local\Temp\ccmQLYsM.s:1713   .text.wpa_add_kde:0000000000000048 .LVL170
C:\Users\stapi\AppData\Local\Temp\ccmQLYsM.s:1655   .text.wpa_add_kde:000000000000000e .LVL165
C:\Users\stapi\AppData\Local\Temp\ccmQLYsM.s:1668   .text.wpa_add_kde:000000000000001e .LVL167
C:\Users\stapi\AppData\Local\Temp\ccmQLYsM.s:1021   .text.wpa_auth_gen_wpa_ie:0000000000000000 .LVL108
C:\Users\stapi\AppData\Local\Temp\ccmQLYsM.s:1221   .text.wpa_auth_gen_wpa_ie:000000000000007a .LVL119
C:\Users\stapi\AppData\Local\Temp\ccmQLYsM.s:1041   .text.wpa_auth_gen_wpa_ie:000000000000000e .LVL109
C:\Users\stapi\AppData\Local\Temp\ccmQLYsM.s:1215   .text.wpa_auth_gen_wpa_ie:0000000000000078 .LVL118
C:\Users\stapi\AppData\Local\Temp\ccmQLYsM.s:1317   .text.wpa_auth_gen_wpa_ie:00000000000000ce .LVL127
C:\Users\stapi\AppData\Local\Temp\ccmQLYsM.s:1335   .text.wpa_auth_gen_wpa_ie:00000000000000da .LVL128
C:\Users\stapi\AppData\Local\Temp\ccmQLYsM.s:1372   .text.wpa_auth_gen_wpa_ie:0000000000000104 .LVL133
C:\Users\stapi\AppData\Local\Temp\ccmQLYsM.s:1578   .text.wpa_auth_gen_wpa_ie:00000000000001c8 .LVL156
C:\Users\stapi\AppData\Local\Temp\ccmQLYsM.s:1612   .text.wpa_auth_gen_wpa_ie:0000000000000202 .LVL160
C:\Users\stapi\AppData\Local\Temp\ccmQLYsM.s:1365   .text.wpa_auth_gen_wpa_ie:00000000000000fe .LVL132
C:\Users\stapi\AppData\Local\Temp\ccmQLYsM.s:1379   .text.wpa_auth_gen_wpa_ie:000000000000010e .LVL134
C:\Users\stapi\AppData\Local\Temp\ccmQLYsM.s:1383   .text.wpa_auth_gen_wpa_ie:0000000000000118 .LVL136
C:\Users\stapi\AppData\Local\Temp\ccmQLYsM.s:1392   .text.wpa_auth_gen_wpa_ie:0000000000000120 .LVL138
C:\Users\stapi\AppData\Local\Temp\ccmQLYsM.s:1572   .text.wpa_auth_gen_wpa_ie:00000000000001c4 .LVL155
C:\Users\stapi\AppData\Local\Temp\ccmQLYsM.s:1048   .text.wpa_auth_gen_wpa_ie:0000000000000014 .LVL110
C:\Users\stapi\AppData\Local\Temp\ccmQLYsM.s:1058   .text.wpa_auth_gen_wpa_ie:000000000000001c .LVL111
C:\Users\stapi\AppData\Local\Temp\ccmQLYsM.s:1162   .text.wpa_auth_gen_wpa_ie:0000000000000054 .LVL112
C:\Users\stapi\AppData\Local\Temp\ccmQLYsM.s:1207   .text.wpa_auth_gen_wpa_ie:0000000000000074 .LVL117
C:\Users\stapi\AppData\Local\Temp\ccmQLYsM.s:1345   .text.wpa_auth_gen_wpa_ie:00000000000000e0 .LVL130
C:\Users\stapi\AppData\Local\Temp\ccmQLYsM.s:1175   .text.wpa_auth_gen_wpa_ie:000000000000005a .LVL113
C:\Users\stapi\AppData\Local\Temp\ccmQLYsM.s:1182   .text.wpa_auth_gen_wpa_ie:0000000000000060 .LVL114
C:\Users\stapi\AppData\Local\Temp\ccmQLYsM.s:1189   .text.wpa_auth_gen_wpa_ie:000000000000006a .LVL115
C:\Users\stapi\AppData\Local\Temp\ccmQLYsM.s:1201   .text.wpa_auth_gen_wpa_ie:0000000000000070 .LVL116
C:\Users\stapi\AppData\Local\Temp\ccmQLYsM.s:1343   .text.wpa_auth_gen_wpa_ie:00000000000000de .LVL129
C:\Users\stapi\AppData\Local\Temp\ccmQLYsM.s:1230   .text.wpa_auth_gen_wpa_ie:0000000000000082 .LVL120
C:\Users\stapi\AppData\Local\Temp\ccmQLYsM.s:1624   .text.wpa_auth_gen_wpa_ie:000000000000020e .LVL162
C:\Users\stapi\AppData\Local\Temp\ccmQLYsM.s:1467   .text.wpa_auth_gen_wpa_ie:0000000000000172 .LVL142
C:\Users\stapi\AppData\Local\Temp\ccmQLYsM.s:1506   .text.wpa_auth_gen_wpa_ie:000000000000018c .LVL146
C:\Users\stapi\AppData\Local\Temp\ccmQLYsM.s:1510   .text.wpa_auth_gen_wpa_ie:000000000000018e .LVL147
C:\Users\stapi\AppData\Local\Temp\ccmQLYsM.s:1543   .text.wpa_auth_gen_wpa_ie:00000000000001ae .LVL150
C:\Users\stapi\AppData\Local\Temp\ccmQLYsM.s:1546   .text.wpa_auth_gen_wpa_ie:00000000000001b0 .LVL151
C:\Users\stapi\AppData\Local\Temp\ccmQLYsM.s:1568   .text.wpa_auth_gen_wpa_ie:00000000000001c0 .LVL154
C:\Users\stapi\AppData\Local\Temp\ccmQLYsM.s:1619   .text.wpa_auth_gen_wpa_ie:0000000000000204 .LVL161
C:\Users\stapi\AppData\Local\Temp\ccmQLYsM.s:1287   .text.wpa_auth_gen_wpa_ie:00000000000000ac .LVL123
C:\Users\stapi\AppData\Local\Temp\ccmQLYsM.s:1303   .text.wpa_auth_gen_wpa_ie:00000000000000c2 .LVL125
C:\Users\stapi\AppData\Local\Temp\ccmQLYsM.s:1429   .text.wpa_auth_gen_wpa_ie:0000000000000142 .LVL139
C:\Users\stapi\AppData\Local\Temp\ccmQLYsM.s:1481   .text.wpa_auth_gen_wpa_ie:0000000000000176 .LVL143
C:\Users\stapi\AppData\Local\Temp\ccmQLYsM.s:1537   .text.wpa_auth_gen_wpa_ie:00000000000001ac .LVL149
C:\Users\stapi\AppData\Local\Temp\ccmQLYsM.s:1565   .text.wpa_auth_gen_wpa_ie:00000000000001bc .LVL153
C:\Users\stapi\AppData\Local\Temp\ccmQLYsM.s:1438   .text.wpa_auth_gen_wpa_ie:0000000000000144 .LVL140
C:\Users\stapi\AppData\Local\Temp\ccmQLYsM.s:1260   .text.wpa_auth_gen_wpa_ie:0000000000000094 .LVL121
C:\Users\stapi\AppData\Local\Temp\ccmQLYsM.s:1275   .text.wpa_auth_gen_wpa_ie:00000000000000a4 .LVL122
C:\Users\stapi\AppData\Local\Temp\ccmQLYsM.s:1485   .text.wpa_auth_gen_wpa_ie:0000000000000178 .LVL144
C:\Users\stapi\AppData\Local\Temp\ccmQLYsM.s:1500   .text.wpa_auth_gen_wpa_ie:0000000000000188 .LVL145
C:\Users\stapi\AppData\Local\Temp\ccmQLYsM.s:1518   .text.wpa_auth_gen_wpa_ie:0000000000000194 .LVL148
C:\Users\stapi\AppData\Local\Temp\ccmQLYsM.s:1559   .text.wpa_auth_gen_wpa_ie:00000000000001b8 .LVL152
C:\Users\stapi\AppData\Local\Temp\ccmQLYsM.s:863    .text.wpa_write_rsnxe:0000000000000000 .LVL89
C:\Users\stapi\AppData\Local\Temp\ccmQLYsM.s:932    .text.wpa_write_rsnxe:000000000000004a .LVL94
C:\Users\stapi\AppData\Local\Temp\ccmQLYsM.s:990    .text.wpa_write_rsnxe:0000000000000086 .LVL104
C:\Users\stapi\AppData\Local\Temp\ccmQLYsM.s:1001   .text.wpa_write_rsnxe:0000000000000092 .LVL106
C:\Users\stapi\AppData\Local\Temp\ccmQLYsM.s:955    .text.wpa_write_rsnxe:0000000000000066 .LVL96
C:\Users\stapi\AppData\Local\Temp\ccmQLYsM.s:960    .text.wpa_write_rsnxe:000000000000006a .LVL97
C:\Users\stapi\AppData\Local\Temp\ccmQLYsM.s:966    .text.wpa_write_rsnxe:0000000000000072 .LVL98
C:\Users\stapi\AppData\Local\Temp\ccmQLYsM.s:974    .text.wpa_write_rsnxe:0000000000000078 .LVL100
C:\Users\stapi\AppData\Local\Temp\ccmQLYsM.s:988    .text.wpa_write_rsnxe:0000000000000084 .LVL103
C:\Users\stapi\AppData\Local\Temp\ccmQLYsM.s:1006   .text.wpa_write_rsnxe:0000000000000096 .LVL107
C:\Users\stapi\AppData\Local\Temp\ccmQLYsM.s:899    .text.wpa_write_rsnxe:0000000000000028 .LVL90
C:\Users\stapi\AppData\Local\Temp\ccmQLYsM.s:950    .text.wpa_write_rsnxe:0000000000000060 .LVL95
C:\Users\stapi\AppData\Local\Temp\ccmQLYsM.s:997    .text.wpa_write_rsnxe:0000000000000090 .LVL105
C:\Users\stapi\AppData\Local\Temp\ccmQLYsM.s:69     .text.wpa_write_rsn_ie:0000000000000000 .LVL5
C:\Users\stapi\AppData\Local\Temp\ccmQLYsM.s:122    .text.wpa_write_rsn_ie:0000000000000022 .LVL11
C:\Users\stapi\AppData\Local\Temp\ccmQLYsM.s:117    .text.wpa_write_rsn_ie:000000000000001e .LVL10
C:\Users\stapi\AppData\Local\Temp\ccmQLYsM.s:136    .text.wpa_write_rsn_ie:000000000000003a .LVL13
C:\Users\stapi\AppData\Local\Temp\ccmQLYsM.s:143    .text.wpa_write_rsn_ie:0000000000000046 .LVL15
C:\Users\stapi\AppData\Local\Temp\ccmQLYsM.s:618    .text.wpa_write_rsn_ie:0000000000000204 .LVL68
C:\Users\stapi\AppData\Local\Temp\ccmQLYsM.s:635    .text.wpa_write_rsn_ie:000000000000020e .LVL69
C:\Users\stapi\AppData\Local\Temp\ccmQLYsM.s:695    .text.wpa_write_rsn_ie:000000000000024e .LVL77
C:\Users\stapi\AppData\Local\Temp\ccmQLYsM.s:84     .text.wpa_write_rsn_ie:0000000000000008 .LVL6
C:\Users\stapi\AppData\Local\Temp\ccmQLYsM.s:166    .text.wpa_write_rsn_ie:0000000000000062 .LVL16
C:\Users\stapi\AppData\Local\Temp\ccmQLYsM.s:211    .text.wpa_write_rsn_ie:0000000000000094 .LVL22
C:\Users\stapi\AppData\Local\Temp\ccmQLYsM.s:251    .text.wpa_write_rsn_ie:00000000000000b8 .LVL26
C:\Users\stapi\AppData\Local\Temp\ccmQLYsM.s:255    .text.wpa_write_rsn_ie:00000000000000ba .LVL27
C:\Users\stapi\AppData\Local\Temp\ccmQLYsM.s:289    .text.wpa_write_rsn_ie:00000000000000da .LVL30
C:\Users\stapi\AppData\Local\Temp\ccmQLYsM.s:292    .text.wpa_write_rsn_ie:00000000000000dc .LVL31
C:\Users\stapi\AppData\Local\Temp\ccmQLYsM.s:327    .text.wpa_write_rsn_ie:00000000000000fe .LVL34
C:\Users\stapi\AppData\Local\Temp\ccmQLYsM.s:330    .text.wpa_write_rsn_ie:0000000000000100 .LVL35
C:\Users\stapi\AppData\Local\Temp\ccmQLYsM.s:365    .text.wpa_write_rsn_ie:0000000000000122 .LVL38
C:\Users\stapi\AppData\Local\Temp\ccmQLYsM.s:368    .text.wpa_write_rsn_ie:0000000000000124 .LVL39
C:\Users\stapi\AppData\Local\Temp\ccmQLYsM.s:403    .text.wpa_write_rsn_ie:0000000000000146 .LVL42
C:\Users\stapi\AppData\Local\Temp\ccmQLYsM.s:406    .text.wpa_write_rsn_ie:0000000000000148 .LVL43
C:\Users\stapi\AppData\Local\Temp\ccmQLYsM.s:441    .text.wpa_write_rsn_ie:000000000000016a .LVL46
C:\Users\stapi\AppData\Local\Temp\ccmQLYsM.s:444    .text.wpa_write_rsn_ie:000000000000016c .LVL47
C:\Users\stapi\AppData\Local\Temp\ccmQLYsM.s:480    .text.wpa_write_rsn_ie:000000000000018e .LVL50
C:\Users\stapi\AppData\Local\Temp\ccmQLYsM.s:483    .text.wpa_write_rsn_ie:0000000000000190 .LVL51
C:\Users\stapi\AppData\Local\Temp\ccmQLYsM.s:520    .text.wpa_write_rsn_ie:00000000000001b4 .LVL54
C:\Users\stapi\AppData\Local\Temp\ccmQLYsM.s:523    .text.wpa_write_rsn_ie:00000000000001b6 .LVL55
C:\Users\stapi\AppData\Local\Temp\ccmQLYsM.s:546    .text.wpa_write_rsn_ie:00000000000001c0 .LVL57
C:\Users\stapi\AppData\Local\Temp\ccmQLYsM.s:645    .text.wpa_write_rsn_ie:000000000000021a .LVL70
C:\Users\stapi\AppData\Local\Temp\ccmQLYsM.s:611    .text.wpa_write_rsn_ie:00000000000001fa .LVL66
C:\Users\stapi\AppData\Local\Temp\ccmQLYsM.s:654    .text.wpa_write_rsn_ie:0000000000000220 .LVL72
C:\Users\stapi\AppData\Local\Temp\ccmQLYsM.s:113    .text.wpa_write_rsn_ie:000000000000001c .LVL9
C:\Users\stapi\AppData\Local\Temp\ccmQLYsM.s:177    .text.wpa_write_rsn_ie:0000000000000068 .LVL17
C:\Users\stapi\AppData\Local\Temp\ccmQLYsM.s:189    .text.wpa_write_rsn_ie:0000000000000078 .LVL20
C:\Users\stapi\AppData\Local\Temp\ccmQLYsM.s:222    .text.wpa_write_rsn_ie:000000000000009a .LVL23
C:\Users\stapi\AppData\Local\Temp\ccmQLYsM.s:604    .text.wpa_write_rsn_ie:00000000000001f2 .LVL65
C:\Users\stapi\AppData\Local\Temp\ccmQLYsM.s:614    .text.wpa_write_rsn_ie:00000000000001fe .LVL67
C:\Users\stapi\AppData\Local\Temp\ccmQLYsM.s:668    .text.wpa_write_rsn_ie:000000000000022a .LVL73
C:\Users\stapi\AppData\Local\Temp\ccmQLYsM.s:676    .text.wpa_write_rsn_ie:0000000000000232 .LVL74
C:\Users\stapi\AppData\Local\Temp\ccmQLYsM.s:682    .text.wpa_write_rsn_ie:000000000000023e .LVL76
C:\Users\stapi\AppData\Local\Temp\ccmQLYsM.s:714    .text.wpa_write_rsn_ie:0000000000000264 .LVL79
C:\Users\stapi\AppData\Local\Temp\ccmQLYsM.s:720    .text.wpa_write_rsn_ie:0000000000000266 .LVL80
C:\Users\stapi\AppData\Local\Temp\ccmQLYsM.s:792    .text.wpa_write_rsn_ie:00000000000002be .LVL84
C:\Users\stapi\AppData\Local\Temp\ccmQLYsM.s:795    .text.wpa_write_rsn_ie:00000000000002c0 .LVL85
C:\Users\stapi\AppData\Local\Temp\ccmQLYsM.s:802    .text.wpa_write_rsn_ie:00000000000002c8 .LVL86
C:\Users\stapi\AppData\Local\Temp\ccmQLYsM.s:808    .text.wpa_write_rsn_ie:00000000000002ce .LVL87
C:\Users\stapi\AppData\Local\Temp\ccmQLYsM.s:549    .text.wpa_write_rsn_ie:00000000000001c2 .LVL58
C:\Users\stapi\AppData\Local\Temp\ccmQLYsM.s:181    .text.wpa_write_rsn_ie:000000000000006a .LVL18
C:\Users\stapi\AppData\Local\Temp\ccmQLYsM.s:98     .text.wpa_write_rsn_ie:0000000000000012 .LVL7
C:\Users\stapi\AppData\Local\Temp\ccmQLYsM.s:107    .text.wpa_write_rsn_ie:000000000000001a .LVL8
C:\Users\stapi\AppData\Local\Temp\ccmQLYsM.s:200    .text.wpa_write_rsn_ie:0000000000000086 .LVL21
C:\Users\stapi\AppData\Local\Temp\ccmQLYsM.s:228    .text.wpa_write_rsn_ie:000000000000009e .LVL24
C:\Users\stapi\AppData\Local\Temp\ccmQLYsM.s:245    .text.wpa_write_rsn_ie:00000000000000b4 .LVL25
C:\Users\stapi\AppData\Local\Temp\ccmQLYsM.s:264    .text.wpa_write_rsn_ie:00000000000000c0 .LVL28
C:\Users\stapi\AppData\Local\Temp\ccmQLYsM.s:283    .text.wpa_write_rsn_ie:00000000000000d8 .LVL29
C:\Users\stapi\AppData\Local\Temp\ccmQLYsM.s:302    .text.wpa_write_rsn_ie:00000000000000e4 .LVL32
C:\Users\stapi\AppData\Local\Temp\ccmQLYsM.s:321    .text.wpa_write_rsn_ie:00000000000000fc .LVL33
C:\Users\stapi\AppData\Local\Temp\ccmQLYsM.s:340    .text.wpa_write_rsn_ie:0000000000000108 .LVL36
C:\Users\stapi\AppData\Local\Temp\ccmQLYsM.s:359    .text.wpa_write_rsn_ie:0000000000000120 .LVL37
C:\Users\stapi\AppData\Local\Temp\ccmQLYsM.s:378    .text.wpa_write_rsn_ie:000000000000012c .LVL40
C:\Users\stapi\AppData\Local\Temp\ccmQLYsM.s:397    .text.wpa_write_rsn_ie:0000000000000144 .LVL41
C:\Users\stapi\AppData\Local\Temp\ccmQLYsM.s:416    .text.wpa_write_rsn_ie:0000000000000150 .LVL44
C:\Users\stapi\AppData\Local\Temp\ccmQLYsM.s:435    .text.wpa_write_rsn_ie:0000000000000168 .LVL45
C:\Users\stapi\AppData\Local\Temp\ccmQLYsM.s:455    .text.wpa_write_rsn_ie:0000000000000174 .LVL48
C:\Users\stapi\AppData\Local\Temp\ccmQLYsM.s:474    .text.wpa_write_rsn_ie:000000000000018c .LVL49
C:\Users\stapi\AppData\Local\Temp\ccmQLYsM.s:495    .text.wpa_write_rsn_ie:000000000000019a .LVL52
C:\Users\stapi\AppData\Local\Temp\ccmQLYsM.s:514    .text.wpa_write_rsn_ie:00000000000001b2 .LVL53
C:\Users\stapi\AppData\Local\Temp\ccmQLYsM.s:536    .text.wpa_write_rsn_ie:00000000000001be .LVL56
C:\Users\stapi\AppData\Local\Temp\ccmQLYsM.s:583    .text.wpa_write_rsn_ie:00000000000001e2 .LVL63
C:\Users\stapi\AppData\Local\Temp\ccmQLYsM.s:552    .text.wpa_write_rsn_ie:00000000000001c6 .LVL59
C:\Users\stapi\AppData\Local\Temp\ccmQLYsM.s:567    .text.wpa_write_rsn_ie:00000000000001d0 .LVL61
C:\Users\stapi\AppData\Local\Temp\ccmQLYsM.s:574    .text.wpa_write_rsn_ie:00000000000001da .LVL62
C:\Users\stapi\AppData\Local\Temp\ccmQLYsM.s:652    .text.wpa_write_rsn_ie:000000000000021e .LVL71
C:\Users\stapi\AppData\Local\Temp\ccmQLYsM.s:598    .text.wpa_write_rsn_ie:00000000000001ee .LVL64
C:\Users\stapi\AppData\Local\Temp\ccmQLYsM.s:705    .text.wpa_write_rsn_ie:000000000000025c .LVL78
C:\Users\stapi\AppData\Local\Temp\ccmQLYsM.s:743    .text.wpa_write_rsn_ie:0000000000000290 .LVL81
C:\Users\stapi\AppData\Local\Temp\ccmQLYsM.s:761    .text.wpa_write_rsn_ie:00000000000002a6 .LVL82
C:\Users\stapi\AppData\Local\Temp\ccmQLYsM.s:782    .text.wpa_write_rsn_ie:00000000000002ba .LVL83
C:\Users\stapi\AppData\Local\Temp\ccmQLYsM.s:828    .text.wpa_write_rsn_ie:00000000000002e4 .LVL88
C:\Users\stapi\AppData\Local\Temp\ccmQLYsM.s:3038   .debug_info:0000000000000000 .Ldebug_info0
C:\Users\stapi\AppData\Local\Temp\ccmQLYsM.s:94     .text.wpa_write_rsn_ie:000000000000000e .LBE130
C:\Users\stapi\AppData\Local\Temp\ccmQLYsM.s:99     .text.wpa_write_rsn_ie:0000000000000012 .LBB133
C:\Users\stapi\AppData\Local\Temp\ccmQLYsM.s:109    .text.wpa_write_rsn_ie:000000000000001a .LBE133
C:\Users\stapi\AppData\Local\Temp\ccmQLYsM.s:587    .text.wpa_write_rsn_ie:00000000000001e2 .LBE156
C:\Users\stapi\AppData\Local\Temp\ccmQLYsM.s:647    .text.wpa_write_rsn_ie:000000000000021a .LBB161
C:\Users\stapi\AppData\Local\Temp\ccmQLYsM.s:657    .text.wpa_write_rsn_ie:0000000000000220 .LBE161
C:\Users\stapi\AppData\Local\Temp\ccmQLYsM.s:764    .text.wpa_write_rsn_ie:00000000000002a6 .LBE166
C:\Users\stapi\AppData\Local\Temp\ccmQLYsM.s:786    .text.wpa_write_rsn_ie:00000000000002ba .LBB171
C:\Users\stapi\AppData\Local\Temp\ccmQLYsM.s:790    .text.wpa_write_rsn_ie:00000000000002be .LBE171
C:\Users\stapi\AppData\Local\Temp\ccmQLYsM.s:1081   .text.wpa_auth_gen_wpa_ie:000000000000001c .LBE210
C:\Users\stapi\AppData\Local\Temp\ccmQLYsM.s:1084   .text.wpa_auth_gen_wpa_ie:000000000000001c .LBB240
C:\Users\stapi\AppData\Local\Temp\ccmQLYsM.s:1217   .text.wpa_auth_gen_wpa_ie:0000000000000078 .LBE240
C:\Users\stapi\AppData\Local\Temp\ccmQLYsM.s:1338   .text.wpa_auth_gen_wpa_ie:00000000000000da .LBB271
C:\Users\stapi\AppData\Local\Temp\ccmQLYsM.s:1348   .text.wpa_auth_gen_wpa_ie:00000000000000e0 .LBE271
C:\Users\stapi\AppData\Local\Temp\ccmQLYsM.s:1066   .text.wpa_auth_gen_wpa_ie:000000000000001c .LBE212
C:\Users\stapi\AppData\Local\Temp\ccmQLYsM.s:1114   .text.wpa_auth_gen_wpa_ie:000000000000001c .LBB228
C:\Users\stapi\AppData\Local\Temp\ccmQLYsM.s:1125   .text.wpa_auth_gen_wpa_ie:0000000000000030 .LBE228
C:\Users\stapi\AppData\Local\Temp\ccmQLYsM.s:1077   .text.wpa_auth_gen_wpa_ie:000000000000001c .LBE215
C:\Users\stapi\AppData\Local\Temp\ccmQLYsM.s:1126   .text.wpa_auth_gen_wpa_ie:0000000000000030 .LBB229
C:\Users\stapi\AppData\Local\Temp\ccmQLYsM.s:1133   .text.wpa_auth_gen_wpa_ie:0000000000000038 .LBE229
C:\Users\stapi\AppData\Local\Temp\ccmQLYsM.s:1095   .text.wpa_auth_gen_wpa_ie:000000000000001c .LBE218
C:\Users\stapi\AppData\Local\Temp\ccmQLYsM.s:1134   .text.wpa_auth_gen_wpa_ie:0000000000000038 .LBB230
C:\Users\stapi\AppData\Local\Temp\ccmQLYsM.s:1141   .text.wpa_auth_gen_wpa_ie:0000000000000042 .LBE230
C:\Users\stapi\AppData\Local\Temp\ccmQLYsM.s:1103   .text.wpa_auth_gen_wpa_ie:000000000000001c .LBE221
C:\Users\stapi\AppData\Local\Temp\ccmQLYsM.s:1142   .text.wpa_auth_gen_wpa_ie:0000000000000042 .LBB231
C:\Users\stapi\AppData\Local\Temp\ccmQLYsM.s:1148   .text.wpa_auth_gen_wpa_ie:0000000000000048 .LBE231
C:\Users\stapi\AppData\Local\Temp\ccmQLYsM.s:1151   .text.wpa_auth_gen_wpa_ie:000000000000004a .LBB232
C:\Users\stapi\AppData\Local\Temp\ccmQLYsM.s:1156   .text.wpa_auth_gen_wpa_ie:000000000000004c .LBE232
C:\Users\stapi\AppData\Local\Temp\ccmQLYsM.s:1113   .text.wpa_auth_gen_wpa_ie:000000000000001c .LBE225
C:\Users\stapi\AppData\Local\Temp\ccmQLYsM.s:1157   .text.wpa_auth_gen_wpa_ie:000000000000004c .LBB233
C:\Users\stapi\AppData\Local\Temp\ccmQLYsM.s:1164   .text.wpa_auth_gen_wpa_ie:0000000000000054 .LBE233
C:\Users\stapi\AppData\Local\Temp\ccmQLYsM.s:1198   .text.wpa_auth_gen_wpa_ie:000000000000006e .LBE234
C:\Users\stapi\AppData\Local\Temp\ccmQLYsM.s:1202   .text.wpa_auth_gen_wpa_ie:0000000000000070 .LBB237
C:\Users\stapi\AppData\Local\Temp\ccmQLYsM.s:1209   .text.wpa_auth_gen_wpa_ie:0000000000000074 .LBE237
C:\Users\stapi\AppData\Local\Temp\ccmQLYsM.s:1311   .text.wpa_auth_gen_wpa_ie:00000000000000cc .LBE241
C:\Users\stapi\AppData\Local\Temp\ccmQLYsM.s:1313   .text.wpa_auth_gen_wpa_ie:00000000000000cc .LBB270
C:\Users\stapi\AppData\Local\Temp\ccmQLYsM.s:1320   .text.wpa_auth_gen_wpa_ie:00000000000000ce .LBE270
C:\Users\stapi\AppData\Local\Temp\ccmQLYsM.s:1394   .text.wpa_auth_gen_wpa_ie:0000000000000120 .LBB272
C:\Users\stapi\AppData\Local\Temp\ccmQLYsM.s:1574   .text.wpa_auth_gen_wpa_ie:00000000000001c4 .LBE272
C:\Users\stapi\AppData\Local\Temp\ccmQLYsM.s:1614   .text.wpa_auth_gen_wpa_ie:0000000000000202 .LBB273
C:\Users\stapi\AppData\Local\Temp\ccmQLYsM.s:1627   .text.wpa_auth_gen_wpa_ie:000000000000020e .LBE273
C:\Users\stapi\AppData\Local\Temp\ccmQLYsM.s:1246   .text.wpa_auth_gen_wpa_ie:0000000000000086 .LBE243
C:\Users\stapi\AppData\Local\Temp\ccmQLYsM.s:1249   .text.wpa_auth_gen_wpa_ie:000000000000008a .LBB247
C:\Users\stapi\AppData\Local\Temp\ccmQLYsM.s:1256   .text.wpa_auth_gen_wpa_ie:0000000000000090 .LBE247
C:\Users\stapi\AppData\Local\Temp\ccmQLYsM.s:1261   .text.wpa_auth_gen_wpa_ie:0000000000000094 .LBB248
C:\Users\stapi\AppData\Local\Temp\ccmQLYsM.s:1277   .text.wpa_auth_gen_wpa_ie:00000000000000a4 .LBE248
C:\Users\stapi\AppData\Local\Temp\ccmQLYsM.s:1406   .text.wpa_auth_gen_wpa_ie:0000000000000128 .LBE251
C:\Users\stapi\AppData\Local\Temp\ccmQLYsM.s:1409   .text.wpa_auth_gen_wpa_ie:000000000000012a .LBB255
C:\Users\stapi\AppData\Local\Temp\ccmQLYsM.s:1417   .text.wpa_auth_gen_wpa_ie:0000000000000132 .LBE255
C:\Users\stapi\AppData\Local\Temp\ccmQLYsM.s:1420   .text.wpa_auth_gen_wpa_ie:0000000000000136 .LBB256
C:\Users\stapi\AppData\Local\Temp\ccmQLYsM.s:1431   .text.wpa_auth_gen_wpa_ie:0000000000000142 .LBE256
C:\Users\stapi\AppData\Local\Temp\ccmQLYsM.s:1462   .text.wpa_auth_gen_wpa_ie:000000000000016a .LBE257
C:\Users\stapi\AppData\Local\Temp\ccmQLYsM.s:1469   .text.wpa_auth_gen_wpa_ie:0000000000000172 .LBB260
C:\Users\stapi\AppData\Local\Temp\ccmQLYsM.s:1474   .text.wpa_auth_gen_wpa_ie:0000000000000172 .LBE260
C:\Users\stapi\AppData\Local\Temp\ccmQLYsM.s:1683   .text.wpa_add_kde:000000000000002e .LBE276
C:\Users\stapi\AppData\Local\Temp\ccmQLYsM.s:1686   .text.wpa_add_kde:0000000000000032 .LBB280
C:\Users\stapi\AppData\Local\Temp\ccmQLYsM.s:1691   .text.wpa_add_kde:0000000000000036 .LBE280
C:\Users\stapi\AppData\Local\Temp\ccmQLYsM.s:1696   .text.wpa_add_kde:000000000000003a .LBB281
C:\Users\stapi\AppData\Local\Temp\ccmQLYsM.s:1705   .text.wpa_add_kde:0000000000000042 .LBE281
C:\Users\stapi\AppData\Local\Temp\ccmQLYsM.s:1996   .text.wpa_validate_wpa_ie:00000000000000c2 .LBE298
C:\Users\stapi\AppData\Local\Temp\ccmQLYsM.s:1998   .text.wpa_validate_wpa_ie:00000000000000c2 .LBB301
C:\Users\stapi\AppData\Local\Temp\ccmQLYsM.s:2012   .text.wpa_validate_wpa_ie:00000000000000d0 .LBE301
C:\Users\stapi\AppData\Local\Temp\ccmQLYsM.s:2654   .text.wpa_validate_wpa_ie:0000000000000492 .LBB304
C:\Users\stapi\AppData\Local\Temp\ccmQLYsM.s:2663   .text.wpa_validate_wpa_ie:000000000000049e .LBE304
C:\Users\stapi\AppData\Local\Temp\ccmQLYsM.s:2674   .text.wpa_validate_wpa_ie:00000000000004b0 .LBB305
C:\Users\stapi\AppData\Local\Temp\ccmQLYsM.s:2730   .text.wpa_validate_wpa_ie:0000000000000502 .LBE305
C:\Users\stapi\AppData\Local\Temp\ccmQLYsM.s:2738   .text.wpa_validate_wpa_ie:000000000000050c .LBB306
C:\Users\stapi\AppData\Local\Temp\ccmQLYsM.s:2777   .text.wpa_validate_wpa_ie:0000000000000550 .LBE306
C:\Users\stapi\AppData\Local\Temp\ccmQLYsM.s:2818   .text.wpa_validate_wpa_ie:000000000000058a .LBB307
C:\Users\stapi\AppData\Local\Temp\ccmQLYsM.s:2825   .text.wpa_validate_wpa_ie:0000000000000594 .LBE307

UNDEFINED SYMBOLS
__riscv_save_1
pmksa_cache_get_okc
__riscv_restore_1
__riscv_save_6
wpa_cipher_to_suite
wpa_printf
rsn_cipher_put_suites
__riscv_restore_6
os_memcpy
wpa_cipher_put_suites
os_free
os_malloc
__riscv_save_4
__riscv_restore_4
__riscv_save_12
__riscv_restore_12
wpa_parse_wpa_ie_rsn
wpa_default_rsn_cipher
wpa_hexdump
wpa_parse_wpa_ie_wpa
wpa_pick_pairwise_cipher
pmksa_cache_auth_get
wpa_auth_for_each_auth
wpa_auth_vlogger
pmksa_cache_add_okc
