   1              		.file	"wpa_auth_glue.c"
   2              		.option nopic
   3              		.attribute arch, "rv32i2p0_m2p0_a2p0_f2p0_c2p0_b_p0p94"
   4              		.attribute unaligned_access, 0
   5              		.attribute stack_align, 16
   6              		.text
   7              	.Ltext0:
   8              		.cfi_sections	.debug_frame
   9              		.section	.text.hostapd_wpa_auth_logger,"ax",@progbits
  10              		.align	1
  12              	hostapd_wpa_auth_logger:
  13              	.LFB181:
  14              		.file 1 "C:/Users/stapi/OneDrive/Desktop/GD32VW553/V1_MQTT_OK/GD32VW55X_Wifi_BLE_SDK/GD32VW55x_REL
   1:C:/Users/stapi/OneDrive/Desktop/GD32VW553/V1_MQTT_OK/GD32VW55X_Wifi_BLE_SDK/GD32VW55x_RELEASE_V1.0.2/MSDK/wpa_supplicant/src/ap\wpa_auth_glue.c **** /*
   2:C:/Users/stapi/OneDrive/Desktop/GD32VW553/V1_MQTT_OK/GD32VW55X_Wifi_BLE_SDK/GD32VW55x_RELEASE_V1.0.2/MSDK/wpa_supplicant/src/ap\wpa_auth_glue.c ****  * hostapd / WPA authenticator glue code
   3:C:/Users/stapi/OneDrive/Desktop/GD32VW553/V1_MQTT_OK/GD32VW55X_Wifi_BLE_SDK/GD32VW55x_RELEASE_V1.0.2/MSDK/wpa_supplicant/src/ap\wpa_auth_glue.c ****  * Copyright (c) 2002-2012, Jouni Malinen <j@w1.fi>
   4:C:/Users/stapi/OneDrive/Desktop/GD32VW553/V1_MQTT_OK/GD32VW55X_Wifi_BLE_SDK/GD32VW55x_RELEASE_V1.0.2/MSDK/wpa_supplicant/src/ap\wpa_auth_glue.c ****  *
   5:C:/Users/stapi/OneDrive/Desktop/GD32VW553/V1_MQTT_OK/GD32VW55X_Wifi_BLE_SDK/GD32VW55x_RELEASE_V1.0.2/MSDK/wpa_supplicant/src/ap\wpa_auth_glue.c ****  * This software may be distributed under the terms of the BSD license.
   6:C:/Users/stapi/OneDrive/Desktop/GD32VW553/V1_MQTT_OK/GD32VW55X_Wifi_BLE_SDK/GD32VW55x_RELEASE_V1.0.2/MSDK/wpa_supplicant/src/ap\wpa_auth_glue.c ****  * See README for more details.
   7:C:/Users/stapi/OneDrive/Desktop/GD32VW553/V1_MQTT_OK/GD32VW55X_Wifi_BLE_SDK/GD32VW55x_RELEASE_V1.0.2/MSDK/wpa_supplicant/src/ap\wpa_auth_glue.c ****  */
   8:C:/Users/stapi/OneDrive/Desktop/GD32VW553/V1_MQTT_OK/GD32VW55X_Wifi_BLE_SDK/GD32VW55x_RELEASE_V1.0.2/MSDK/wpa_supplicant/src/ap\wpa_auth_glue.c **** 
   9:C:/Users/stapi/OneDrive/Desktop/GD32VW553/V1_MQTT_OK/GD32VW55X_Wifi_BLE_SDK/GD32VW55x_RELEASE_V1.0.2/MSDK/wpa_supplicant/src/ap\wpa_auth_glue.c **** #include "utils/includes.h"
  10:C:/Users/stapi/OneDrive/Desktop/GD32VW553/V1_MQTT_OK/GD32VW55X_Wifi_BLE_SDK/GD32VW55x_RELEASE_V1.0.2/MSDK/wpa_supplicant/src/ap\wpa_auth_glue.c **** 
  11:C:/Users/stapi/OneDrive/Desktop/GD32VW553/V1_MQTT_OK/GD32VW55X_Wifi_BLE_SDK/GD32VW55x_RELEASE_V1.0.2/MSDK/wpa_supplicant/src/ap\wpa_auth_glue.c **** #ifdef CONFIG_AP
  12:C:/Users/stapi/OneDrive/Desktop/GD32VW553/V1_MQTT_OK/GD32VW55X_Wifi_BLE_SDK/GD32VW55x_RELEASE_V1.0.2/MSDK/wpa_supplicant/src/ap\wpa_auth_glue.c **** #include "utils/common.h"
  13:C:/Users/stapi/OneDrive/Desktop/GD32VW553/V1_MQTT_OK/GD32VW55X_Wifi_BLE_SDK/GD32VW55x_RELEASE_V1.0.2/MSDK/wpa_supplicant/src/ap\wpa_auth_glue.c **** #include "utils/eloop.h"
  14:C:/Users/stapi/OneDrive/Desktop/GD32VW553/V1_MQTT_OK/GD32VW55X_Wifi_BLE_SDK/GD32VW55x_RELEASE_V1.0.2/MSDK/wpa_supplicant/src/ap\wpa_auth_glue.c **** #include "utils/list.h"
  15:C:/Users/stapi/OneDrive/Desktop/GD32VW553/V1_MQTT_OK/GD32VW55X_Wifi_BLE_SDK/GD32VW55x_RELEASE_V1.0.2/MSDK/wpa_supplicant/src/ap\wpa_auth_glue.c **** #include "common/ieee802_11_defs.h"
  16:C:/Users/stapi/OneDrive/Desktop/GD32VW553/V1_MQTT_OK/GD32VW55X_Wifi_BLE_SDK/GD32VW55x_RELEASE_V1.0.2/MSDK/wpa_supplicant/src/ap\wpa_auth_glue.c **** #include "common/sae.h"
  17:C:/Users/stapi/OneDrive/Desktop/GD32VW553/V1_MQTT_OK/GD32VW55X_Wifi_BLE_SDK/GD32VW55x_RELEASE_V1.0.2/MSDK/wpa_supplicant/src/ap\wpa_auth_glue.c **** #include "common/wpa_ctrl.h"
  18:C:/Users/stapi/OneDrive/Desktop/GD32VW553/V1_MQTT_OK/GD32VW55X_Wifi_BLE_SDK/GD32VW55x_RELEASE_V1.0.2/MSDK/wpa_supplicant/src/ap\wpa_auth_glue.c **** #include "common/ptksa_cache.h"
  19:C:/Users/stapi/OneDrive/Desktop/GD32VW553/V1_MQTT_OK/GD32VW55X_Wifi_BLE_SDK/GD32VW55x_RELEASE_V1.0.2/MSDK/wpa_supplicant/src/ap\wpa_auth_glue.c **** #include "crypto/sha1.h"
  20:C:/Users/stapi/OneDrive/Desktop/GD32VW553/V1_MQTT_OK/GD32VW55X_Wifi_BLE_SDK/GD32VW55x_RELEASE_V1.0.2/MSDK/wpa_supplicant/src/ap\wpa_auth_glue.c **** #include "eapol_auth/eapol_auth_sm.h"
  21:C:/Users/stapi/OneDrive/Desktop/GD32VW553/V1_MQTT_OK/GD32VW55X_Wifi_BLE_SDK/GD32VW55x_RELEASE_V1.0.2/MSDK/wpa_supplicant/src/ap\wpa_auth_glue.c **** #include "eapol_auth/eapol_auth_sm_i.h"
  22:C:/Users/stapi/OneDrive/Desktop/GD32VW553/V1_MQTT_OK/GD32VW55X_Wifi_BLE_SDK/GD32VW55x_RELEASE_V1.0.2/MSDK/wpa_supplicant/src/ap\wpa_auth_glue.c **** #include "eap_server/eap.h"
  23:C:/Users/stapi/OneDrive/Desktop/GD32VW553/V1_MQTT_OK/GD32VW55X_Wifi_BLE_SDK/GD32VW55x_RELEASE_V1.0.2/MSDK/wpa_supplicant/src/ap\wpa_auth_glue.c **** #include "l2_packet/l2_packet.h"
  24:C:/Users/stapi/OneDrive/Desktop/GD32VW553/V1_MQTT_OK/GD32VW55X_Wifi_BLE_SDK/GD32VW55x_RELEASE_V1.0.2/MSDK/wpa_supplicant/src/ap\wpa_auth_glue.c **** #include "eth_p_oui.h"
  25:C:/Users/stapi/OneDrive/Desktop/GD32VW553/V1_MQTT_OK/GD32VW55X_Wifi_BLE_SDK/GD32VW55x_RELEASE_V1.0.2/MSDK/wpa_supplicant/src/ap\wpa_auth_glue.c **** #include "hostapd.h"
  26:C:/Users/stapi/OneDrive/Desktop/GD32VW553/V1_MQTT_OK/GD32VW55X_Wifi_BLE_SDK/GD32VW55x_RELEASE_V1.0.2/MSDK/wpa_supplicant/src/ap\wpa_auth_glue.c **** #include "ieee802_1x.h"
  27:C:/Users/stapi/OneDrive/Desktop/GD32VW553/V1_MQTT_OK/GD32VW55X_Wifi_BLE_SDK/GD32VW55x_RELEASE_V1.0.2/MSDK/wpa_supplicant/src/ap\wpa_auth_glue.c **** #include "preauth_auth.h"
  28:C:/Users/stapi/OneDrive/Desktop/GD32VW553/V1_MQTT_OK/GD32VW55X_Wifi_BLE_SDK/GD32VW55x_RELEASE_V1.0.2/MSDK/wpa_supplicant/src/ap\wpa_auth_glue.c **** #include "sta_info.h"
  29:C:/Users/stapi/OneDrive/Desktop/GD32VW553/V1_MQTT_OK/GD32VW55X_Wifi_BLE_SDK/GD32VW55x_RELEASE_V1.0.2/MSDK/wpa_supplicant/src/ap\wpa_auth_glue.c **** #include "tkip_countermeasures.h"
  30:C:/Users/stapi/OneDrive/Desktop/GD32VW553/V1_MQTT_OK/GD32VW55X_Wifi_BLE_SDK/GD32VW55x_RELEASE_V1.0.2/MSDK/wpa_supplicant/src/ap\wpa_auth_glue.c **** #include "ap_drv_ops.h"
  31:C:/Users/stapi/OneDrive/Desktop/GD32VW553/V1_MQTT_OK/GD32VW55X_Wifi_BLE_SDK/GD32VW55x_RELEASE_V1.0.2/MSDK/wpa_supplicant/src/ap\wpa_auth_glue.c **** #include "ap_config.h"
  32:C:/Users/stapi/OneDrive/Desktop/GD32VW553/V1_MQTT_OK/GD32VW55X_Wifi_BLE_SDK/GD32VW55x_RELEASE_V1.0.2/MSDK/wpa_supplicant/src/ap\wpa_auth_glue.c **** #include "ieee802_11.h"
  33:C:/Users/stapi/OneDrive/Desktop/GD32VW553/V1_MQTT_OK/GD32VW55X_Wifi_BLE_SDK/GD32VW55x_RELEASE_V1.0.2/MSDK/wpa_supplicant/src/ap\wpa_auth_glue.c **** #include "pmksa_cache_auth.h"
  34:C:/Users/stapi/OneDrive/Desktop/GD32VW553/V1_MQTT_OK/GD32VW55X_Wifi_BLE_SDK/GD32VW55x_RELEASE_V1.0.2/MSDK/wpa_supplicant/src/ap\wpa_auth_glue.c **** #include "wpa_auth.h"
  35:C:/Users/stapi/OneDrive/Desktop/GD32VW553/V1_MQTT_OK/GD32VW55X_Wifi_BLE_SDK/GD32VW55x_RELEASE_V1.0.2/MSDK/wpa_supplicant/src/ap\wpa_auth_glue.c **** #include "wpa_auth_glue.h"
  36:C:/Users/stapi/OneDrive/Desktop/GD32VW553/V1_MQTT_OK/GD32VW55X_Wifi_BLE_SDK/GD32VW55x_RELEASE_V1.0.2/MSDK/wpa_supplicant/src/ap\wpa_auth_glue.c **** 
  37:C:/Users/stapi/OneDrive/Desktop/GD32VW553/V1_MQTT_OK/GD32VW55X_Wifi_BLE_SDK/GD32VW55x_RELEASE_V1.0.2/MSDK/wpa_supplicant/src/ap\wpa_auth_glue.c **** 
  38:C:/Users/stapi/OneDrive/Desktop/GD32VW553/V1_MQTT_OK/GD32VW55X_Wifi_BLE_SDK/GD32VW55x_RELEASE_V1.0.2/MSDK/wpa_supplicant/src/ap\wpa_auth_glue.c **** static void hostapd_wpa_auth_conf(struct hostapd_bss_config *conf,
  39:C:/Users/stapi/OneDrive/Desktop/GD32VW553/V1_MQTT_OK/GD32VW55X_Wifi_BLE_SDK/GD32VW55x_RELEASE_V1.0.2/MSDK/wpa_supplicant/src/ap\wpa_auth_glue.c **** 				  struct hostapd_config *iconf,
  40:C:/Users/stapi/OneDrive/Desktop/GD32VW553/V1_MQTT_OK/GD32VW55X_Wifi_BLE_SDK/GD32VW55x_RELEASE_V1.0.2/MSDK/wpa_supplicant/src/ap\wpa_auth_glue.c **** 				  struct wpa_auth_config *wconf)
  41:C:/Users/stapi/OneDrive/Desktop/GD32VW553/V1_MQTT_OK/GD32VW55X_Wifi_BLE_SDK/GD32VW55x_RELEASE_V1.0.2/MSDK/wpa_supplicant/src/ap\wpa_auth_glue.c **** {
  42:C:/Users/stapi/OneDrive/Desktop/GD32VW553/V1_MQTT_OK/GD32VW55X_Wifi_BLE_SDK/GD32VW55x_RELEASE_V1.0.2/MSDK/wpa_supplicant/src/ap\wpa_auth_glue.c **** 	int sae_pw_id;
  43:C:/Users/stapi/OneDrive/Desktop/GD32VW553/V1_MQTT_OK/GD32VW55X_Wifi_BLE_SDK/GD32VW55x_RELEASE_V1.0.2/MSDK/wpa_supplicant/src/ap\wpa_auth_glue.c **** 
  44:C:/Users/stapi/OneDrive/Desktop/GD32VW553/V1_MQTT_OK/GD32VW55X_Wifi_BLE_SDK/GD32VW55x_RELEASE_V1.0.2/MSDK/wpa_supplicant/src/ap\wpa_auth_glue.c **** 	os_memset(wconf, 0, sizeof(*wconf));
  45:C:/Users/stapi/OneDrive/Desktop/GD32VW553/V1_MQTT_OK/GD32VW55X_Wifi_BLE_SDK/GD32VW55x_RELEASE_V1.0.2/MSDK/wpa_supplicant/src/ap\wpa_auth_glue.c **** 	wconf->wpa = conf->wpa;
  46:C:/Users/stapi/OneDrive/Desktop/GD32VW553/V1_MQTT_OK/GD32VW55X_Wifi_BLE_SDK/GD32VW55x_RELEASE_V1.0.2/MSDK/wpa_supplicant/src/ap\wpa_auth_glue.c **** 	wconf->extended_key_id = conf->extended_key_id;
  47:C:/Users/stapi/OneDrive/Desktop/GD32VW553/V1_MQTT_OK/GD32VW55X_Wifi_BLE_SDK/GD32VW55x_RELEASE_V1.0.2/MSDK/wpa_supplicant/src/ap\wpa_auth_glue.c **** 	wconf->wpa_key_mgmt = conf->wpa_key_mgmt;
  48:C:/Users/stapi/OneDrive/Desktop/GD32VW553/V1_MQTT_OK/GD32VW55X_Wifi_BLE_SDK/GD32VW55x_RELEASE_V1.0.2/MSDK/wpa_supplicant/src/ap\wpa_auth_glue.c **** 	wconf->wpa_pairwise = conf->wpa_pairwise;
  49:C:/Users/stapi/OneDrive/Desktop/GD32VW553/V1_MQTT_OK/GD32VW55X_Wifi_BLE_SDK/GD32VW55x_RELEASE_V1.0.2/MSDK/wpa_supplicant/src/ap\wpa_auth_glue.c **** 	wconf->wpa_group = conf->wpa_group;
  50:C:/Users/stapi/OneDrive/Desktop/GD32VW553/V1_MQTT_OK/GD32VW55X_Wifi_BLE_SDK/GD32VW55x_RELEASE_V1.0.2/MSDK/wpa_supplicant/src/ap\wpa_auth_glue.c **** 	wconf->wpa_group_rekey = conf->wpa_group_rekey;
  51:C:/Users/stapi/OneDrive/Desktop/GD32VW553/V1_MQTT_OK/GD32VW55X_Wifi_BLE_SDK/GD32VW55x_RELEASE_V1.0.2/MSDK/wpa_supplicant/src/ap\wpa_auth_glue.c **** 	wconf->wpa_strict_rekey = conf->wpa_strict_rekey;
  52:C:/Users/stapi/OneDrive/Desktop/GD32VW553/V1_MQTT_OK/GD32VW55X_Wifi_BLE_SDK/GD32VW55x_RELEASE_V1.0.2/MSDK/wpa_supplicant/src/ap\wpa_auth_glue.c **** 	wconf->wpa_gmk_rekey = conf->wpa_gmk_rekey;
  53:C:/Users/stapi/OneDrive/Desktop/GD32VW553/V1_MQTT_OK/GD32VW55X_Wifi_BLE_SDK/GD32VW55x_RELEASE_V1.0.2/MSDK/wpa_supplicant/src/ap\wpa_auth_glue.c **** 	wconf->wpa_ptk_rekey = conf->wpa_ptk_rekey;
  54:C:/Users/stapi/OneDrive/Desktop/GD32VW553/V1_MQTT_OK/GD32VW55X_Wifi_BLE_SDK/GD32VW55x_RELEASE_V1.0.2/MSDK/wpa_supplicant/src/ap\wpa_auth_glue.c **** 	wconf->wpa_group_update_count = conf->wpa_group_update_count;
  55:C:/Users/stapi/OneDrive/Desktop/GD32VW553/V1_MQTT_OK/GD32VW55X_Wifi_BLE_SDK/GD32VW55x_RELEASE_V1.0.2/MSDK/wpa_supplicant/src/ap\wpa_auth_glue.c **** 	wconf->wpa_disable_eapol_key_retries =
  56:C:/Users/stapi/OneDrive/Desktop/GD32VW553/V1_MQTT_OK/GD32VW55X_Wifi_BLE_SDK/GD32VW55x_RELEASE_V1.0.2/MSDK/wpa_supplicant/src/ap\wpa_auth_glue.c **** 		conf->wpa_disable_eapol_key_retries;
  57:C:/Users/stapi/OneDrive/Desktop/GD32VW553/V1_MQTT_OK/GD32VW55X_Wifi_BLE_SDK/GD32VW55x_RELEASE_V1.0.2/MSDK/wpa_supplicant/src/ap\wpa_auth_glue.c **** 	wconf->wpa_pairwise_update_count = conf->wpa_pairwise_update_count;
  58:C:/Users/stapi/OneDrive/Desktop/GD32VW553/V1_MQTT_OK/GD32VW55X_Wifi_BLE_SDK/GD32VW55x_RELEASE_V1.0.2/MSDK/wpa_supplicant/src/ap\wpa_auth_glue.c **** 	wconf->rsn_pairwise = conf->rsn_pairwise;
  59:C:/Users/stapi/OneDrive/Desktop/GD32VW553/V1_MQTT_OK/GD32VW55X_Wifi_BLE_SDK/GD32VW55x_RELEASE_V1.0.2/MSDK/wpa_supplicant/src/ap\wpa_auth_glue.c **** 	wconf->rsn_preauth = conf->rsn_preauth;
  60:C:/Users/stapi/OneDrive/Desktop/GD32VW553/V1_MQTT_OK/GD32VW55X_Wifi_BLE_SDK/GD32VW55x_RELEASE_V1.0.2/MSDK/wpa_supplicant/src/ap\wpa_auth_glue.c **** 	wconf->eapol_version = conf->eapol_version;
  61:C:/Users/stapi/OneDrive/Desktop/GD32VW553/V1_MQTT_OK/GD32VW55X_Wifi_BLE_SDK/GD32VW55x_RELEASE_V1.0.2/MSDK/wpa_supplicant/src/ap\wpa_auth_glue.c **** #ifdef CONFIG_MACSEC
  62:C:/Users/stapi/OneDrive/Desktop/GD32VW553/V1_MQTT_OK/GD32VW55X_Wifi_BLE_SDK/GD32VW55x_RELEASE_V1.0.2/MSDK/wpa_supplicant/src/ap\wpa_auth_glue.c **** 	if (wconf->eapol_version > 2)
  63:C:/Users/stapi/OneDrive/Desktop/GD32VW553/V1_MQTT_OK/GD32VW55X_Wifi_BLE_SDK/GD32VW55x_RELEASE_V1.0.2/MSDK/wpa_supplicant/src/ap\wpa_auth_glue.c **** 		wconf->eapol_version = 2;
  64:C:/Users/stapi/OneDrive/Desktop/GD32VW553/V1_MQTT_OK/GD32VW55X_Wifi_BLE_SDK/GD32VW55x_RELEASE_V1.0.2/MSDK/wpa_supplicant/src/ap\wpa_auth_glue.c **** #endif /* CONFIG_MACSEC */
  65:C:/Users/stapi/OneDrive/Desktop/GD32VW553/V1_MQTT_OK/GD32VW55X_Wifi_BLE_SDK/GD32VW55x_RELEASE_V1.0.2/MSDK/wpa_supplicant/src/ap\wpa_auth_glue.c **** 	wconf->wmm_enabled = conf->wmm_enabled;
  66:C:/Users/stapi/OneDrive/Desktop/GD32VW553/V1_MQTT_OK/GD32VW55X_Wifi_BLE_SDK/GD32VW55x_RELEASE_V1.0.2/MSDK/wpa_supplicant/src/ap\wpa_auth_glue.c **** 	wconf->wmm_uapsd = conf->wmm_uapsd;
  67:C:/Users/stapi/OneDrive/Desktop/GD32VW553/V1_MQTT_OK/GD32VW55X_Wifi_BLE_SDK/GD32VW55x_RELEASE_V1.0.2/MSDK/wpa_supplicant/src/ap\wpa_auth_glue.c **** 	wconf->disable_pmksa_caching = conf->disable_pmksa_caching;
  68:C:/Users/stapi/OneDrive/Desktop/GD32VW553/V1_MQTT_OK/GD32VW55X_Wifi_BLE_SDK/GD32VW55x_RELEASE_V1.0.2/MSDK/wpa_supplicant/src/ap\wpa_auth_glue.c **** #ifdef CONFIG_OCV
  69:C:/Users/stapi/OneDrive/Desktop/GD32VW553/V1_MQTT_OK/GD32VW55X_Wifi_BLE_SDK/GD32VW55x_RELEASE_V1.0.2/MSDK/wpa_supplicant/src/ap\wpa_auth_glue.c **** 	wconf->ocv = conf->ocv;
  70:C:/Users/stapi/OneDrive/Desktop/GD32VW553/V1_MQTT_OK/GD32VW55X_Wifi_BLE_SDK/GD32VW55x_RELEASE_V1.0.2/MSDK/wpa_supplicant/src/ap\wpa_auth_glue.c **** #endif /* CONFIG_OCV */
  71:C:/Users/stapi/OneDrive/Desktop/GD32VW553/V1_MQTT_OK/GD32VW55X_Wifi_BLE_SDK/GD32VW55x_RELEASE_V1.0.2/MSDK/wpa_supplicant/src/ap\wpa_auth_glue.c **** 	wconf->okc = conf->okc;
  72:C:/Users/stapi/OneDrive/Desktop/GD32VW553/V1_MQTT_OK/GD32VW55X_Wifi_BLE_SDK/GD32VW55x_RELEASE_V1.0.2/MSDK/wpa_supplicant/src/ap\wpa_auth_glue.c **** 	wconf->ieee80211w = conf->ieee80211w;
  73:C:/Users/stapi/OneDrive/Desktop/GD32VW553/V1_MQTT_OK/GD32VW55X_Wifi_BLE_SDK/GD32VW55x_RELEASE_V1.0.2/MSDK/wpa_supplicant/src/ap\wpa_auth_glue.c **** 	wconf->beacon_prot = conf->beacon_prot;
  74:C:/Users/stapi/OneDrive/Desktop/GD32VW553/V1_MQTT_OK/GD32VW55X_Wifi_BLE_SDK/GD32VW55x_RELEASE_V1.0.2/MSDK/wpa_supplicant/src/ap\wpa_auth_glue.c **** 	wconf->group_mgmt_cipher = conf->group_mgmt_cipher;
  75:C:/Users/stapi/OneDrive/Desktop/GD32VW553/V1_MQTT_OK/GD32VW55X_Wifi_BLE_SDK/GD32VW55x_RELEASE_V1.0.2/MSDK/wpa_supplicant/src/ap\wpa_auth_glue.c **** 	wconf->sae_require_mfp = conf->sae_require_mfp;
  76:C:/Users/stapi/OneDrive/Desktop/GD32VW553/V1_MQTT_OK/GD32VW55X_Wifi_BLE_SDK/GD32VW55x_RELEASE_V1.0.2/MSDK/wpa_supplicant/src/ap\wpa_auth_glue.c **** #ifdef CONFIG_IEEE80211R_AP
  77:C:/Users/stapi/OneDrive/Desktop/GD32VW553/V1_MQTT_OK/GD32VW55X_Wifi_BLE_SDK/GD32VW55x_RELEASE_V1.0.2/MSDK/wpa_supplicant/src/ap\wpa_auth_glue.c **** 	wconf->ssid_len = conf->ssid.ssid_len;
  78:C:/Users/stapi/OneDrive/Desktop/GD32VW553/V1_MQTT_OK/GD32VW55X_Wifi_BLE_SDK/GD32VW55x_RELEASE_V1.0.2/MSDK/wpa_supplicant/src/ap\wpa_auth_glue.c **** 	if (wconf->ssid_len > SSID_MAX_LEN)
  79:C:/Users/stapi/OneDrive/Desktop/GD32VW553/V1_MQTT_OK/GD32VW55X_Wifi_BLE_SDK/GD32VW55x_RELEASE_V1.0.2/MSDK/wpa_supplicant/src/ap\wpa_auth_glue.c **** 		wconf->ssid_len = SSID_MAX_LEN;
  80:C:/Users/stapi/OneDrive/Desktop/GD32VW553/V1_MQTT_OK/GD32VW55X_Wifi_BLE_SDK/GD32VW55x_RELEASE_V1.0.2/MSDK/wpa_supplicant/src/ap\wpa_auth_glue.c **** 	os_memcpy(wconf->ssid, conf->ssid.ssid, wconf->ssid_len);
  81:C:/Users/stapi/OneDrive/Desktop/GD32VW553/V1_MQTT_OK/GD32VW55X_Wifi_BLE_SDK/GD32VW55x_RELEASE_V1.0.2/MSDK/wpa_supplicant/src/ap\wpa_auth_glue.c **** 	os_memcpy(wconf->mobility_domain, conf->mobility_domain,
  82:C:/Users/stapi/OneDrive/Desktop/GD32VW553/V1_MQTT_OK/GD32VW55X_Wifi_BLE_SDK/GD32VW55x_RELEASE_V1.0.2/MSDK/wpa_supplicant/src/ap\wpa_auth_glue.c **** 		  MOBILITY_DOMAIN_ID_LEN);
  83:C:/Users/stapi/OneDrive/Desktop/GD32VW553/V1_MQTT_OK/GD32VW55X_Wifi_BLE_SDK/GD32VW55x_RELEASE_V1.0.2/MSDK/wpa_supplicant/src/ap\wpa_auth_glue.c **** 	if (conf->nas_identifier &&
  84:C:/Users/stapi/OneDrive/Desktop/GD32VW553/V1_MQTT_OK/GD32VW55X_Wifi_BLE_SDK/GD32VW55x_RELEASE_V1.0.2/MSDK/wpa_supplicant/src/ap\wpa_auth_glue.c **** 	    os_strlen(conf->nas_identifier) <= FT_R0KH_ID_MAX_LEN) {
  85:C:/Users/stapi/OneDrive/Desktop/GD32VW553/V1_MQTT_OK/GD32VW55X_Wifi_BLE_SDK/GD32VW55x_RELEASE_V1.0.2/MSDK/wpa_supplicant/src/ap\wpa_auth_glue.c **** 		wconf->r0_key_holder_len = os_strlen(conf->nas_identifier);
  86:C:/Users/stapi/OneDrive/Desktop/GD32VW553/V1_MQTT_OK/GD32VW55X_Wifi_BLE_SDK/GD32VW55x_RELEASE_V1.0.2/MSDK/wpa_supplicant/src/ap\wpa_auth_glue.c **** 		os_memcpy(wconf->r0_key_holder, conf->nas_identifier,
  87:C:/Users/stapi/OneDrive/Desktop/GD32VW553/V1_MQTT_OK/GD32VW55X_Wifi_BLE_SDK/GD32VW55x_RELEASE_V1.0.2/MSDK/wpa_supplicant/src/ap\wpa_auth_glue.c **** 			  wconf->r0_key_holder_len);
  88:C:/Users/stapi/OneDrive/Desktop/GD32VW553/V1_MQTT_OK/GD32VW55X_Wifi_BLE_SDK/GD32VW55x_RELEASE_V1.0.2/MSDK/wpa_supplicant/src/ap\wpa_auth_glue.c **** 	}
  89:C:/Users/stapi/OneDrive/Desktop/GD32VW553/V1_MQTT_OK/GD32VW55X_Wifi_BLE_SDK/GD32VW55x_RELEASE_V1.0.2/MSDK/wpa_supplicant/src/ap\wpa_auth_glue.c **** 	os_memcpy(wconf->r1_key_holder, conf->r1_key_holder, FT_R1KH_ID_LEN);
  90:C:/Users/stapi/OneDrive/Desktop/GD32VW553/V1_MQTT_OK/GD32VW55X_Wifi_BLE_SDK/GD32VW55x_RELEASE_V1.0.2/MSDK/wpa_supplicant/src/ap\wpa_auth_glue.c **** 	wconf->r0_key_lifetime = conf->r0_key_lifetime;
  91:C:/Users/stapi/OneDrive/Desktop/GD32VW553/V1_MQTT_OK/GD32VW55X_Wifi_BLE_SDK/GD32VW55x_RELEASE_V1.0.2/MSDK/wpa_supplicant/src/ap\wpa_auth_glue.c **** 	wconf->r1_max_key_lifetime = conf->r1_max_key_lifetime;
  92:C:/Users/stapi/OneDrive/Desktop/GD32VW553/V1_MQTT_OK/GD32VW55X_Wifi_BLE_SDK/GD32VW55x_RELEASE_V1.0.2/MSDK/wpa_supplicant/src/ap\wpa_auth_glue.c **** 	wconf->reassociation_deadline = conf->reassociation_deadline;
  93:C:/Users/stapi/OneDrive/Desktop/GD32VW553/V1_MQTT_OK/GD32VW55X_Wifi_BLE_SDK/GD32VW55x_RELEASE_V1.0.2/MSDK/wpa_supplicant/src/ap\wpa_auth_glue.c **** 	wconf->rkh_pos_timeout = conf->rkh_pos_timeout;
  94:C:/Users/stapi/OneDrive/Desktop/GD32VW553/V1_MQTT_OK/GD32VW55X_Wifi_BLE_SDK/GD32VW55x_RELEASE_V1.0.2/MSDK/wpa_supplicant/src/ap\wpa_auth_glue.c **** 	wconf->rkh_neg_timeout = conf->rkh_neg_timeout;
  95:C:/Users/stapi/OneDrive/Desktop/GD32VW553/V1_MQTT_OK/GD32VW55X_Wifi_BLE_SDK/GD32VW55x_RELEASE_V1.0.2/MSDK/wpa_supplicant/src/ap\wpa_auth_glue.c **** 	wconf->rkh_pull_timeout = conf->rkh_pull_timeout;
  96:C:/Users/stapi/OneDrive/Desktop/GD32VW553/V1_MQTT_OK/GD32VW55X_Wifi_BLE_SDK/GD32VW55x_RELEASE_V1.0.2/MSDK/wpa_supplicant/src/ap\wpa_auth_glue.c **** 	wconf->rkh_pull_retries = conf->rkh_pull_retries;
  97:C:/Users/stapi/OneDrive/Desktop/GD32VW553/V1_MQTT_OK/GD32VW55X_Wifi_BLE_SDK/GD32VW55x_RELEASE_V1.0.2/MSDK/wpa_supplicant/src/ap\wpa_auth_glue.c **** 	wconf->r0kh_list = &conf->r0kh_list;
  98:C:/Users/stapi/OneDrive/Desktop/GD32VW553/V1_MQTT_OK/GD32VW55X_Wifi_BLE_SDK/GD32VW55x_RELEASE_V1.0.2/MSDK/wpa_supplicant/src/ap\wpa_auth_glue.c **** 	wconf->r1kh_list = &conf->r1kh_list;
  99:C:/Users/stapi/OneDrive/Desktop/GD32VW553/V1_MQTT_OK/GD32VW55X_Wifi_BLE_SDK/GD32VW55x_RELEASE_V1.0.2/MSDK/wpa_supplicant/src/ap\wpa_auth_glue.c **** 	wconf->pmk_r1_push = conf->pmk_r1_push;
 100:C:/Users/stapi/OneDrive/Desktop/GD32VW553/V1_MQTT_OK/GD32VW55X_Wifi_BLE_SDK/GD32VW55x_RELEASE_V1.0.2/MSDK/wpa_supplicant/src/ap\wpa_auth_glue.c **** 	wconf->ft_over_ds = conf->ft_over_ds;
 101:C:/Users/stapi/OneDrive/Desktop/GD32VW553/V1_MQTT_OK/GD32VW55X_Wifi_BLE_SDK/GD32VW55x_RELEASE_V1.0.2/MSDK/wpa_supplicant/src/ap\wpa_auth_glue.c **** 	wconf->ft_psk_generate_local = conf->ft_psk_generate_local;
 102:C:/Users/stapi/OneDrive/Desktop/GD32VW553/V1_MQTT_OK/GD32VW55X_Wifi_BLE_SDK/GD32VW55x_RELEASE_V1.0.2/MSDK/wpa_supplicant/src/ap\wpa_auth_glue.c **** #endif /* CONFIG_IEEE80211R_AP */
 103:C:/Users/stapi/OneDrive/Desktop/GD32VW553/V1_MQTT_OK/GD32VW55X_Wifi_BLE_SDK/GD32VW55x_RELEASE_V1.0.2/MSDK/wpa_supplicant/src/ap\wpa_auth_glue.c **** #ifdef CONFIG_HS20
 104:C:/Users/stapi/OneDrive/Desktop/GD32VW553/V1_MQTT_OK/GD32VW55X_Wifi_BLE_SDK/GD32VW55x_RELEASE_V1.0.2/MSDK/wpa_supplicant/src/ap\wpa_auth_glue.c **** 	wconf->disable_gtk = conf->disable_dgaf;
 105:C:/Users/stapi/OneDrive/Desktop/GD32VW553/V1_MQTT_OK/GD32VW55X_Wifi_BLE_SDK/GD32VW55x_RELEASE_V1.0.2/MSDK/wpa_supplicant/src/ap\wpa_auth_glue.c **** 	if (conf->osen) {
 106:C:/Users/stapi/OneDrive/Desktop/GD32VW553/V1_MQTT_OK/GD32VW55X_Wifi_BLE_SDK/GD32VW55x_RELEASE_V1.0.2/MSDK/wpa_supplicant/src/ap\wpa_auth_glue.c **** 		wconf->disable_gtk = 1;
 107:C:/Users/stapi/OneDrive/Desktop/GD32VW553/V1_MQTT_OK/GD32VW55X_Wifi_BLE_SDK/GD32VW55x_RELEASE_V1.0.2/MSDK/wpa_supplicant/src/ap\wpa_auth_glue.c **** 		wconf->wpa = WPA_PROTO_OSEN;
 108:C:/Users/stapi/OneDrive/Desktop/GD32VW553/V1_MQTT_OK/GD32VW55X_Wifi_BLE_SDK/GD32VW55x_RELEASE_V1.0.2/MSDK/wpa_supplicant/src/ap\wpa_auth_glue.c **** 		wconf->wpa_key_mgmt = WPA_KEY_MGMT_OSEN;
 109:C:/Users/stapi/OneDrive/Desktop/GD32VW553/V1_MQTT_OK/GD32VW55X_Wifi_BLE_SDK/GD32VW55x_RELEASE_V1.0.2/MSDK/wpa_supplicant/src/ap\wpa_auth_glue.c **** 		wconf->wpa_pairwise = 0;
 110:C:/Users/stapi/OneDrive/Desktop/GD32VW553/V1_MQTT_OK/GD32VW55X_Wifi_BLE_SDK/GD32VW55x_RELEASE_V1.0.2/MSDK/wpa_supplicant/src/ap\wpa_auth_glue.c **** 		wconf->wpa_group = WPA_CIPHER_CCMP;
 111:C:/Users/stapi/OneDrive/Desktop/GD32VW553/V1_MQTT_OK/GD32VW55X_Wifi_BLE_SDK/GD32VW55x_RELEASE_V1.0.2/MSDK/wpa_supplicant/src/ap\wpa_auth_glue.c **** 		wconf->rsn_pairwise = WPA_CIPHER_CCMP;
 112:C:/Users/stapi/OneDrive/Desktop/GD32VW553/V1_MQTT_OK/GD32VW55X_Wifi_BLE_SDK/GD32VW55x_RELEASE_V1.0.2/MSDK/wpa_supplicant/src/ap\wpa_auth_glue.c **** 		wconf->rsn_preauth = 0;
 113:C:/Users/stapi/OneDrive/Desktop/GD32VW553/V1_MQTT_OK/GD32VW55X_Wifi_BLE_SDK/GD32VW55x_RELEASE_V1.0.2/MSDK/wpa_supplicant/src/ap\wpa_auth_glue.c **** 		wconf->disable_pmksa_caching = 1;
 114:C:/Users/stapi/OneDrive/Desktop/GD32VW553/V1_MQTT_OK/GD32VW55X_Wifi_BLE_SDK/GD32VW55x_RELEASE_V1.0.2/MSDK/wpa_supplicant/src/ap\wpa_auth_glue.c **** 		wconf->ieee80211w = 1;
 115:C:/Users/stapi/OneDrive/Desktop/GD32VW553/V1_MQTT_OK/GD32VW55X_Wifi_BLE_SDK/GD32VW55x_RELEASE_V1.0.2/MSDK/wpa_supplicant/src/ap\wpa_auth_glue.c **** 	}
 116:C:/Users/stapi/OneDrive/Desktop/GD32VW553/V1_MQTT_OK/GD32VW55X_Wifi_BLE_SDK/GD32VW55x_RELEASE_V1.0.2/MSDK/wpa_supplicant/src/ap\wpa_auth_glue.c **** #endif /* CONFIG_HS20 */
 117:C:/Users/stapi/OneDrive/Desktop/GD32VW553/V1_MQTT_OK/GD32VW55X_Wifi_BLE_SDK/GD32VW55x_RELEASE_V1.0.2/MSDK/wpa_supplicant/src/ap\wpa_auth_glue.c **** #ifdef CONFIG_TESTING_OPTIONS
 118:C:/Users/stapi/OneDrive/Desktop/GD32VW553/V1_MQTT_OK/GD32VW55X_Wifi_BLE_SDK/GD32VW55x_RELEASE_V1.0.2/MSDK/wpa_supplicant/src/ap\wpa_auth_glue.c **** 	wconf->corrupt_gtk_rekey_mic_probability =
 119:C:/Users/stapi/OneDrive/Desktop/GD32VW553/V1_MQTT_OK/GD32VW55X_Wifi_BLE_SDK/GD32VW55x_RELEASE_V1.0.2/MSDK/wpa_supplicant/src/ap\wpa_auth_glue.c **** 		iconf->corrupt_gtk_rekey_mic_probability;
 120:C:/Users/stapi/OneDrive/Desktop/GD32VW553/V1_MQTT_OK/GD32VW55X_Wifi_BLE_SDK/GD32VW55x_RELEASE_V1.0.2/MSDK/wpa_supplicant/src/ap\wpa_auth_glue.c **** 	if (conf->own_ie_override &&
 121:C:/Users/stapi/OneDrive/Desktop/GD32VW553/V1_MQTT_OK/GD32VW55X_Wifi_BLE_SDK/GD32VW55x_RELEASE_V1.0.2/MSDK/wpa_supplicant/src/ap\wpa_auth_glue.c **** 	    wpabuf_len(conf->own_ie_override) <= MAX_OWN_IE_OVERRIDE) {
 122:C:/Users/stapi/OneDrive/Desktop/GD32VW553/V1_MQTT_OK/GD32VW55X_Wifi_BLE_SDK/GD32VW55x_RELEASE_V1.0.2/MSDK/wpa_supplicant/src/ap\wpa_auth_glue.c **** 		wconf->own_ie_override_len = wpabuf_len(conf->own_ie_override);
 123:C:/Users/stapi/OneDrive/Desktop/GD32VW553/V1_MQTT_OK/GD32VW55X_Wifi_BLE_SDK/GD32VW55x_RELEASE_V1.0.2/MSDK/wpa_supplicant/src/ap\wpa_auth_glue.c **** 		os_memcpy(wconf->own_ie_override,
 124:C:/Users/stapi/OneDrive/Desktop/GD32VW553/V1_MQTT_OK/GD32VW55X_Wifi_BLE_SDK/GD32VW55x_RELEASE_V1.0.2/MSDK/wpa_supplicant/src/ap\wpa_auth_glue.c **** 			  wpabuf_head(conf->own_ie_override),
 125:C:/Users/stapi/OneDrive/Desktop/GD32VW553/V1_MQTT_OK/GD32VW55X_Wifi_BLE_SDK/GD32VW55x_RELEASE_V1.0.2/MSDK/wpa_supplicant/src/ap\wpa_auth_glue.c **** 			  wconf->own_ie_override_len);
 126:C:/Users/stapi/OneDrive/Desktop/GD32VW553/V1_MQTT_OK/GD32VW55X_Wifi_BLE_SDK/GD32VW55x_RELEASE_V1.0.2/MSDK/wpa_supplicant/src/ap\wpa_auth_glue.c **** 	}
 127:C:/Users/stapi/OneDrive/Desktop/GD32VW553/V1_MQTT_OK/GD32VW55X_Wifi_BLE_SDK/GD32VW55x_RELEASE_V1.0.2/MSDK/wpa_supplicant/src/ap\wpa_auth_glue.c **** 	if (conf->rsne_override_eapol &&
 128:C:/Users/stapi/OneDrive/Desktop/GD32VW553/V1_MQTT_OK/GD32VW55X_Wifi_BLE_SDK/GD32VW55x_RELEASE_V1.0.2/MSDK/wpa_supplicant/src/ap\wpa_auth_glue.c **** 	    wpabuf_len(conf->rsne_override_eapol) <= MAX_OWN_IE_OVERRIDE) {
 129:C:/Users/stapi/OneDrive/Desktop/GD32VW553/V1_MQTT_OK/GD32VW55X_Wifi_BLE_SDK/GD32VW55x_RELEASE_V1.0.2/MSDK/wpa_supplicant/src/ap\wpa_auth_glue.c **** 		wconf->rsne_override_eapol_set = 1;
 130:C:/Users/stapi/OneDrive/Desktop/GD32VW553/V1_MQTT_OK/GD32VW55X_Wifi_BLE_SDK/GD32VW55x_RELEASE_V1.0.2/MSDK/wpa_supplicant/src/ap\wpa_auth_glue.c **** 		wconf->rsne_override_eapol_len =
 131:C:/Users/stapi/OneDrive/Desktop/GD32VW553/V1_MQTT_OK/GD32VW55X_Wifi_BLE_SDK/GD32VW55x_RELEASE_V1.0.2/MSDK/wpa_supplicant/src/ap\wpa_auth_glue.c **** 			wpabuf_len(conf->rsne_override_eapol);
 132:C:/Users/stapi/OneDrive/Desktop/GD32VW553/V1_MQTT_OK/GD32VW55X_Wifi_BLE_SDK/GD32VW55x_RELEASE_V1.0.2/MSDK/wpa_supplicant/src/ap\wpa_auth_glue.c **** 		os_memcpy(wconf->rsne_override_eapol,
 133:C:/Users/stapi/OneDrive/Desktop/GD32VW553/V1_MQTT_OK/GD32VW55X_Wifi_BLE_SDK/GD32VW55x_RELEASE_V1.0.2/MSDK/wpa_supplicant/src/ap\wpa_auth_glue.c **** 			  wpabuf_head(conf->rsne_override_eapol),
 134:C:/Users/stapi/OneDrive/Desktop/GD32VW553/V1_MQTT_OK/GD32VW55X_Wifi_BLE_SDK/GD32VW55x_RELEASE_V1.0.2/MSDK/wpa_supplicant/src/ap\wpa_auth_glue.c **** 			  wconf->rsne_override_eapol_len);
 135:C:/Users/stapi/OneDrive/Desktop/GD32VW553/V1_MQTT_OK/GD32VW55X_Wifi_BLE_SDK/GD32VW55x_RELEASE_V1.0.2/MSDK/wpa_supplicant/src/ap\wpa_auth_glue.c **** 	}
 136:C:/Users/stapi/OneDrive/Desktop/GD32VW553/V1_MQTT_OK/GD32VW55X_Wifi_BLE_SDK/GD32VW55x_RELEASE_V1.0.2/MSDK/wpa_supplicant/src/ap\wpa_auth_glue.c **** 	if (conf->rsnxe_override_eapol &&
 137:C:/Users/stapi/OneDrive/Desktop/GD32VW553/V1_MQTT_OK/GD32VW55X_Wifi_BLE_SDK/GD32VW55x_RELEASE_V1.0.2/MSDK/wpa_supplicant/src/ap\wpa_auth_glue.c **** 	    wpabuf_len(conf->rsnxe_override_eapol) <= MAX_OWN_IE_OVERRIDE) {
 138:C:/Users/stapi/OneDrive/Desktop/GD32VW553/V1_MQTT_OK/GD32VW55X_Wifi_BLE_SDK/GD32VW55x_RELEASE_V1.0.2/MSDK/wpa_supplicant/src/ap\wpa_auth_glue.c **** 		wconf->rsnxe_override_eapol_set = 1;
 139:C:/Users/stapi/OneDrive/Desktop/GD32VW553/V1_MQTT_OK/GD32VW55X_Wifi_BLE_SDK/GD32VW55x_RELEASE_V1.0.2/MSDK/wpa_supplicant/src/ap\wpa_auth_glue.c **** 		wconf->rsnxe_override_eapol_len =
 140:C:/Users/stapi/OneDrive/Desktop/GD32VW553/V1_MQTT_OK/GD32VW55X_Wifi_BLE_SDK/GD32VW55x_RELEASE_V1.0.2/MSDK/wpa_supplicant/src/ap\wpa_auth_glue.c **** 			wpabuf_len(conf->rsnxe_override_eapol);
 141:C:/Users/stapi/OneDrive/Desktop/GD32VW553/V1_MQTT_OK/GD32VW55X_Wifi_BLE_SDK/GD32VW55x_RELEASE_V1.0.2/MSDK/wpa_supplicant/src/ap\wpa_auth_glue.c **** 		os_memcpy(wconf->rsnxe_override_eapol,
 142:C:/Users/stapi/OneDrive/Desktop/GD32VW553/V1_MQTT_OK/GD32VW55X_Wifi_BLE_SDK/GD32VW55x_RELEASE_V1.0.2/MSDK/wpa_supplicant/src/ap\wpa_auth_glue.c **** 			  wpabuf_head(conf->rsnxe_override_eapol),
 143:C:/Users/stapi/OneDrive/Desktop/GD32VW553/V1_MQTT_OK/GD32VW55X_Wifi_BLE_SDK/GD32VW55x_RELEASE_V1.0.2/MSDK/wpa_supplicant/src/ap\wpa_auth_glue.c **** 			  wconf->rsnxe_override_eapol_len);
 144:C:/Users/stapi/OneDrive/Desktop/GD32VW553/V1_MQTT_OK/GD32VW55X_Wifi_BLE_SDK/GD32VW55x_RELEASE_V1.0.2/MSDK/wpa_supplicant/src/ap\wpa_auth_glue.c **** 	}
 145:C:/Users/stapi/OneDrive/Desktop/GD32VW553/V1_MQTT_OK/GD32VW55X_Wifi_BLE_SDK/GD32VW55x_RELEASE_V1.0.2/MSDK/wpa_supplicant/src/ap\wpa_auth_glue.c **** 	if (conf->rsne_override_ft &&
 146:C:/Users/stapi/OneDrive/Desktop/GD32VW553/V1_MQTT_OK/GD32VW55X_Wifi_BLE_SDK/GD32VW55x_RELEASE_V1.0.2/MSDK/wpa_supplicant/src/ap\wpa_auth_glue.c **** 	    wpabuf_len(conf->rsne_override_ft) <= MAX_OWN_IE_OVERRIDE) {
 147:C:/Users/stapi/OneDrive/Desktop/GD32VW553/V1_MQTT_OK/GD32VW55X_Wifi_BLE_SDK/GD32VW55x_RELEASE_V1.0.2/MSDK/wpa_supplicant/src/ap\wpa_auth_glue.c **** 		wconf->rsne_override_ft_set = 1;
 148:C:/Users/stapi/OneDrive/Desktop/GD32VW553/V1_MQTT_OK/GD32VW55X_Wifi_BLE_SDK/GD32VW55x_RELEASE_V1.0.2/MSDK/wpa_supplicant/src/ap\wpa_auth_glue.c **** 		wconf->rsne_override_ft_len =
 149:C:/Users/stapi/OneDrive/Desktop/GD32VW553/V1_MQTT_OK/GD32VW55X_Wifi_BLE_SDK/GD32VW55x_RELEASE_V1.0.2/MSDK/wpa_supplicant/src/ap\wpa_auth_glue.c **** 			wpabuf_len(conf->rsne_override_ft);
 150:C:/Users/stapi/OneDrive/Desktop/GD32VW553/V1_MQTT_OK/GD32VW55X_Wifi_BLE_SDK/GD32VW55x_RELEASE_V1.0.2/MSDK/wpa_supplicant/src/ap\wpa_auth_glue.c **** 		os_memcpy(wconf->rsne_override_ft,
 151:C:/Users/stapi/OneDrive/Desktop/GD32VW553/V1_MQTT_OK/GD32VW55X_Wifi_BLE_SDK/GD32VW55x_RELEASE_V1.0.2/MSDK/wpa_supplicant/src/ap\wpa_auth_glue.c **** 			  wpabuf_head(conf->rsne_override_ft),
 152:C:/Users/stapi/OneDrive/Desktop/GD32VW553/V1_MQTT_OK/GD32VW55X_Wifi_BLE_SDK/GD32VW55x_RELEASE_V1.0.2/MSDK/wpa_supplicant/src/ap\wpa_auth_glue.c **** 			  wconf->rsne_override_ft_len);
 153:C:/Users/stapi/OneDrive/Desktop/GD32VW553/V1_MQTT_OK/GD32VW55X_Wifi_BLE_SDK/GD32VW55x_RELEASE_V1.0.2/MSDK/wpa_supplicant/src/ap\wpa_auth_glue.c **** 	}
 154:C:/Users/stapi/OneDrive/Desktop/GD32VW553/V1_MQTT_OK/GD32VW55X_Wifi_BLE_SDK/GD32VW55x_RELEASE_V1.0.2/MSDK/wpa_supplicant/src/ap\wpa_auth_glue.c **** 	if (conf->rsnxe_override_ft &&
 155:C:/Users/stapi/OneDrive/Desktop/GD32VW553/V1_MQTT_OK/GD32VW55X_Wifi_BLE_SDK/GD32VW55x_RELEASE_V1.0.2/MSDK/wpa_supplicant/src/ap\wpa_auth_glue.c **** 	    wpabuf_len(conf->rsnxe_override_ft) <= MAX_OWN_IE_OVERRIDE) {
 156:C:/Users/stapi/OneDrive/Desktop/GD32VW553/V1_MQTT_OK/GD32VW55X_Wifi_BLE_SDK/GD32VW55x_RELEASE_V1.0.2/MSDK/wpa_supplicant/src/ap\wpa_auth_glue.c **** 		wconf->rsnxe_override_ft_set = 1;
 157:C:/Users/stapi/OneDrive/Desktop/GD32VW553/V1_MQTT_OK/GD32VW55X_Wifi_BLE_SDK/GD32VW55x_RELEASE_V1.0.2/MSDK/wpa_supplicant/src/ap\wpa_auth_glue.c **** 		wconf->rsnxe_override_ft_len =
 158:C:/Users/stapi/OneDrive/Desktop/GD32VW553/V1_MQTT_OK/GD32VW55X_Wifi_BLE_SDK/GD32VW55x_RELEASE_V1.0.2/MSDK/wpa_supplicant/src/ap\wpa_auth_glue.c **** 			wpabuf_len(conf->rsnxe_override_ft);
 159:C:/Users/stapi/OneDrive/Desktop/GD32VW553/V1_MQTT_OK/GD32VW55X_Wifi_BLE_SDK/GD32VW55x_RELEASE_V1.0.2/MSDK/wpa_supplicant/src/ap\wpa_auth_glue.c **** 		os_memcpy(wconf->rsnxe_override_ft,
 160:C:/Users/stapi/OneDrive/Desktop/GD32VW553/V1_MQTT_OK/GD32VW55X_Wifi_BLE_SDK/GD32VW55x_RELEASE_V1.0.2/MSDK/wpa_supplicant/src/ap\wpa_auth_glue.c **** 			  wpabuf_head(conf->rsnxe_override_ft),
 161:C:/Users/stapi/OneDrive/Desktop/GD32VW553/V1_MQTT_OK/GD32VW55X_Wifi_BLE_SDK/GD32VW55x_RELEASE_V1.0.2/MSDK/wpa_supplicant/src/ap\wpa_auth_glue.c **** 			  wconf->rsnxe_override_ft_len);
 162:C:/Users/stapi/OneDrive/Desktop/GD32VW553/V1_MQTT_OK/GD32VW55X_Wifi_BLE_SDK/GD32VW55x_RELEASE_V1.0.2/MSDK/wpa_supplicant/src/ap\wpa_auth_glue.c **** 	}
 163:C:/Users/stapi/OneDrive/Desktop/GD32VW553/V1_MQTT_OK/GD32VW55X_Wifi_BLE_SDK/GD32VW55x_RELEASE_V1.0.2/MSDK/wpa_supplicant/src/ap\wpa_auth_glue.c **** 	if (conf->gtk_rsc_override &&
 164:C:/Users/stapi/OneDrive/Desktop/GD32VW553/V1_MQTT_OK/GD32VW55X_Wifi_BLE_SDK/GD32VW55x_RELEASE_V1.0.2/MSDK/wpa_supplicant/src/ap\wpa_auth_glue.c **** 	    wpabuf_len(conf->gtk_rsc_override) > 0 &&
 165:C:/Users/stapi/OneDrive/Desktop/GD32VW553/V1_MQTT_OK/GD32VW55X_Wifi_BLE_SDK/GD32VW55x_RELEASE_V1.0.2/MSDK/wpa_supplicant/src/ap\wpa_auth_glue.c **** 	    wpabuf_len(conf->gtk_rsc_override) <= WPA_KEY_RSC_LEN) {
 166:C:/Users/stapi/OneDrive/Desktop/GD32VW553/V1_MQTT_OK/GD32VW55X_Wifi_BLE_SDK/GD32VW55x_RELEASE_V1.0.2/MSDK/wpa_supplicant/src/ap\wpa_auth_glue.c **** 		os_memcpy(wconf->gtk_rsc_override,
 167:C:/Users/stapi/OneDrive/Desktop/GD32VW553/V1_MQTT_OK/GD32VW55X_Wifi_BLE_SDK/GD32VW55x_RELEASE_V1.0.2/MSDK/wpa_supplicant/src/ap\wpa_auth_glue.c **** 			  wpabuf_head(conf->gtk_rsc_override),
 168:C:/Users/stapi/OneDrive/Desktop/GD32VW553/V1_MQTT_OK/GD32VW55X_Wifi_BLE_SDK/GD32VW55x_RELEASE_V1.0.2/MSDK/wpa_supplicant/src/ap\wpa_auth_glue.c **** 			  wpabuf_len(conf->gtk_rsc_override));
 169:C:/Users/stapi/OneDrive/Desktop/GD32VW553/V1_MQTT_OK/GD32VW55X_Wifi_BLE_SDK/GD32VW55x_RELEASE_V1.0.2/MSDK/wpa_supplicant/src/ap\wpa_auth_glue.c **** 		wconf->gtk_rsc_override_set = 1;
 170:C:/Users/stapi/OneDrive/Desktop/GD32VW553/V1_MQTT_OK/GD32VW55X_Wifi_BLE_SDK/GD32VW55x_RELEASE_V1.0.2/MSDK/wpa_supplicant/src/ap\wpa_auth_glue.c **** 	}
 171:C:/Users/stapi/OneDrive/Desktop/GD32VW553/V1_MQTT_OK/GD32VW55X_Wifi_BLE_SDK/GD32VW55x_RELEASE_V1.0.2/MSDK/wpa_supplicant/src/ap\wpa_auth_glue.c **** 	if (conf->igtk_rsc_override &&
 172:C:/Users/stapi/OneDrive/Desktop/GD32VW553/V1_MQTT_OK/GD32VW55X_Wifi_BLE_SDK/GD32VW55x_RELEASE_V1.0.2/MSDK/wpa_supplicant/src/ap\wpa_auth_glue.c **** 	    wpabuf_len(conf->igtk_rsc_override) > 0 &&
 173:C:/Users/stapi/OneDrive/Desktop/GD32VW553/V1_MQTT_OK/GD32VW55X_Wifi_BLE_SDK/GD32VW55x_RELEASE_V1.0.2/MSDK/wpa_supplicant/src/ap\wpa_auth_glue.c **** 	    wpabuf_len(conf->igtk_rsc_override) <= WPA_KEY_RSC_LEN) {
 174:C:/Users/stapi/OneDrive/Desktop/GD32VW553/V1_MQTT_OK/GD32VW55X_Wifi_BLE_SDK/GD32VW55x_RELEASE_V1.0.2/MSDK/wpa_supplicant/src/ap\wpa_auth_glue.c **** 		os_memcpy(wconf->igtk_rsc_override,
 175:C:/Users/stapi/OneDrive/Desktop/GD32VW553/V1_MQTT_OK/GD32VW55X_Wifi_BLE_SDK/GD32VW55x_RELEASE_V1.0.2/MSDK/wpa_supplicant/src/ap\wpa_auth_glue.c **** 			  wpabuf_head(conf->igtk_rsc_override),
 176:C:/Users/stapi/OneDrive/Desktop/GD32VW553/V1_MQTT_OK/GD32VW55X_Wifi_BLE_SDK/GD32VW55x_RELEASE_V1.0.2/MSDK/wpa_supplicant/src/ap\wpa_auth_glue.c **** 			  wpabuf_len(conf->igtk_rsc_override));
 177:C:/Users/stapi/OneDrive/Desktop/GD32VW553/V1_MQTT_OK/GD32VW55X_Wifi_BLE_SDK/GD32VW55x_RELEASE_V1.0.2/MSDK/wpa_supplicant/src/ap\wpa_auth_glue.c **** 		wconf->igtk_rsc_override_set = 1;
 178:C:/Users/stapi/OneDrive/Desktop/GD32VW553/V1_MQTT_OK/GD32VW55X_Wifi_BLE_SDK/GD32VW55x_RELEASE_V1.0.2/MSDK/wpa_supplicant/src/ap\wpa_auth_glue.c **** 	}
 179:C:/Users/stapi/OneDrive/Desktop/GD32VW553/V1_MQTT_OK/GD32VW55X_Wifi_BLE_SDK/GD32VW55x_RELEASE_V1.0.2/MSDK/wpa_supplicant/src/ap\wpa_auth_glue.c **** 	wconf->ft_rsnxe_used = conf->ft_rsnxe_used;
 180:C:/Users/stapi/OneDrive/Desktop/GD32VW553/V1_MQTT_OK/GD32VW55X_Wifi_BLE_SDK/GD32VW55x_RELEASE_V1.0.2/MSDK/wpa_supplicant/src/ap\wpa_auth_glue.c **** 	wconf->oci_freq_override_eapol_m3 = conf->oci_freq_override_eapol_m3;
 181:C:/Users/stapi/OneDrive/Desktop/GD32VW553/V1_MQTT_OK/GD32VW55X_Wifi_BLE_SDK/GD32VW55x_RELEASE_V1.0.2/MSDK/wpa_supplicant/src/ap\wpa_auth_glue.c **** 	wconf->oci_freq_override_eapol_g1 = conf->oci_freq_override_eapol_g1;
 182:C:/Users/stapi/OneDrive/Desktop/GD32VW553/V1_MQTT_OK/GD32VW55X_Wifi_BLE_SDK/GD32VW55x_RELEASE_V1.0.2/MSDK/wpa_supplicant/src/ap\wpa_auth_glue.c **** 	wconf->oci_freq_override_ft_assoc = conf->oci_freq_override_ft_assoc;
 183:C:/Users/stapi/OneDrive/Desktop/GD32VW553/V1_MQTT_OK/GD32VW55X_Wifi_BLE_SDK/GD32VW55x_RELEASE_V1.0.2/MSDK/wpa_supplicant/src/ap\wpa_auth_glue.c **** 	wconf->oci_freq_override_fils_assoc =
 184:C:/Users/stapi/OneDrive/Desktop/GD32VW553/V1_MQTT_OK/GD32VW55X_Wifi_BLE_SDK/GD32VW55x_RELEASE_V1.0.2/MSDK/wpa_supplicant/src/ap\wpa_auth_glue.c **** 		conf->oci_freq_override_fils_assoc;
 185:C:/Users/stapi/OneDrive/Desktop/GD32VW553/V1_MQTT_OK/GD32VW55X_Wifi_BLE_SDK/GD32VW55x_RELEASE_V1.0.2/MSDK/wpa_supplicant/src/ap\wpa_auth_glue.c **** #endif /* CONFIG_TESTING_OPTIONS */
 186:C:/Users/stapi/OneDrive/Desktop/GD32VW553/V1_MQTT_OK/GD32VW55X_Wifi_BLE_SDK/GD32VW55x_RELEASE_V1.0.2/MSDK/wpa_supplicant/src/ap\wpa_auth_glue.c **** #ifdef CONFIG_P2P
 187:C:/Users/stapi/OneDrive/Desktop/GD32VW553/V1_MQTT_OK/GD32VW55X_Wifi_BLE_SDK/GD32VW55x_RELEASE_V1.0.2/MSDK/wpa_supplicant/src/ap\wpa_auth_glue.c **** 	os_memcpy(wconf->ip_addr_go, conf->ip_addr_go, 4);
 188:C:/Users/stapi/OneDrive/Desktop/GD32VW553/V1_MQTT_OK/GD32VW55X_Wifi_BLE_SDK/GD32VW55x_RELEASE_V1.0.2/MSDK/wpa_supplicant/src/ap\wpa_auth_glue.c **** 	os_memcpy(wconf->ip_addr_mask, conf->ip_addr_mask, 4);
 189:C:/Users/stapi/OneDrive/Desktop/GD32VW553/V1_MQTT_OK/GD32VW55X_Wifi_BLE_SDK/GD32VW55x_RELEASE_V1.0.2/MSDK/wpa_supplicant/src/ap\wpa_auth_glue.c **** 	os_memcpy(wconf->ip_addr_start, conf->ip_addr_start, 4);
 190:C:/Users/stapi/OneDrive/Desktop/GD32VW553/V1_MQTT_OK/GD32VW55X_Wifi_BLE_SDK/GD32VW55x_RELEASE_V1.0.2/MSDK/wpa_supplicant/src/ap\wpa_auth_glue.c **** 	os_memcpy(wconf->ip_addr_end, conf->ip_addr_end, 4);
 191:C:/Users/stapi/OneDrive/Desktop/GD32VW553/V1_MQTT_OK/GD32VW55X_Wifi_BLE_SDK/GD32VW55x_RELEASE_V1.0.2/MSDK/wpa_supplicant/src/ap\wpa_auth_glue.c **** #endif /* CONFIG_P2P */
 192:C:/Users/stapi/OneDrive/Desktop/GD32VW553/V1_MQTT_OK/GD32VW55X_Wifi_BLE_SDK/GD32VW55x_RELEASE_V1.0.2/MSDK/wpa_supplicant/src/ap\wpa_auth_glue.c **** #ifdef CONFIG_FILS
 193:C:/Users/stapi/OneDrive/Desktop/GD32VW553/V1_MQTT_OK/GD32VW55X_Wifi_BLE_SDK/GD32VW55x_RELEASE_V1.0.2/MSDK/wpa_supplicant/src/ap\wpa_auth_glue.c **** 	wconf->fils_cache_id_set = conf->fils_cache_id_set;
 194:C:/Users/stapi/OneDrive/Desktop/GD32VW553/V1_MQTT_OK/GD32VW55X_Wifi_BLE_SDK/GD32VW55x_RELEASE_V1.0.2/MSDK/wpa_supplicant/src/ap\wpa_auth_glue.c **** 	os_memcpy(wconf->fils_cache_id, conf->fils_cache_id,
 195:C:/Users/stapi/OneDrive/Desktop/GD32VW553/V1_MQTT_OK/GD32VW55X_Wifi_BLE_SDK/GD32VW55x_RELEASE_V1.0.2/MSDK/wpa_supplicant/src/ap\wpa_auth_glue.c **** 		  FILS_CACHE_ID_LEN);
 196:C:/Users/stapi/OneDrive/Desktop/GD32VW553/V1_MQTT_OK/GD32VW55X_Wifi_BLE_SDK/GD32VW55x_RELEASE_V1.0.2/MSDK/wpa_supplicant/src/ap\wpa_auth_glue.c **** #endif /* CONFIG_FILS */
 197:C:/Users/stapi/OneDrive/Desktop/GD32VW553/V1_MQTT_OK/GD32VW55X_Wifi_BLE_SDK/GD32VW55x_RELEASE_V1.0.2/MSDK/wpa_supplicant/src/ap\wpa_auth_glue.c **** 	wconf->sae_pwe = conf->sae_pwe;
 198:C:/Users/stapi/OneDrive/Desktop/GD32VW553/V1_MQTT_OK/GD32VW55X_Wifi_BLE_SDK/GD32VW55x_RELEASE_V1.0.2/MSDK/wpa_supplicant/src/ap\wpa_auth_glue.c **** 	sae_pw_id = hostapd_sae_pw_id_in_use(conf);
 199:C:/Users/stapi/OneDrive/Desktop/GD32VW553/V1_MQTT_OK/GD32VW55X_Wifi_BLE_SDK/GD32VW55x_RELEASE_V1.0.2/MSDK/wpa_supplicant/src/ap\wpa_auth_glue.c **** 	if (sae_pw_id == 2 && wconf->sae_pwe != 3)
 200:C:/Users/stapi/OneDrive/Desktop/GD32VW553/V1_MQTT_OK/GD32VW55X_Wifi_BLE_SDK/GD32VW55x_RELEASE_V1.0.2/MSDK/wpa_supplicant/src/ap\wpa_auth_glue.c **** 		wconf->sae_pwe = 1;
 201:C:/Users/stapi/OneDrive/Desktop/GD32VW553/V1_MQTT_OK/GD32VW55X_Wifi_BLE_SDK/GD32VW55x_RELEASE_V1.0.2/MSDK/wpa_supplicant/src/ap\wpa_auth_glue.c **** 	else if (sae_pw_id == 1 && wconf->sae_pwe == 0)
 202:C:/Users/stapi/OneDrive/Desktop/GD32VW553/V1_MQTT_OK/GD32VW55X_Wifi_BLE_SDK/GD32VW55x_RELEASE_V1.0.2/MSDK/wpa_supplicant/src/ap\wpa_auth_glue.c **** 		wconf->sae_pwe = 2;
 203:C:/Users/stapi/OneDrive/Desktop/GD32VW553/V1_MQTT_OK/GD32VW55X_Wifi_BLE_SDK/GD32VW55x_RELEASE_V1.0.2/MSDK/wpa_supplicant/src/ap\wpa_auth_glue.c **** #ifdef CONFIG_SAE_PK
 204:C:/Users/stapi/OneDrive/Desktop/GD32VW553/V1_MQTT_OK/GD32VW55X_Wifi_BLE_SDK/GD32VW55x_RELEASE_V1.0.2/MSDK/wpa_supplicant/src/ap\wpa_auth_glue.c **** 	wconf->sae_pk = hostapd_sae_pk_in_use(conf);
 205:C:/Users/stapi/OneDrive/Desktop/GD32VW553/V1_MQTT_OK/GD32VW55X_Wifi_BLE_SDK/GD32VW55x_RELEASE_V1.0.2/MSDK/wpa_supplicant/src/ap\wpa_auth_glue.c **** #endif /* CONFIG_SAE_PK */
 206:C:/Users/stapi/OneDrive/Desktop/GD32VW553/V1_MQTT_OK/GD32VW55X_Wifi_BLE_SDK/GD32VW55x_RELEASE_V1.0.2/MSDK/wpa_supplicant/src/ap\wpa_auth_glue.c **** #ifdef CONFIG_OWE
 207:C:/Users/stapi/OneDrive/Desktop/GD32VW553/V1_MQTT_OK/GD32VW55X_Wifi_BLE_SDK/GD32VW55x_RELEASE_V1.0.2/MSDK/wpa_supplicant/src/ap\wpa_auth_glue.c **** 	wconf->owe_ptk_workaround = conf->owe_ptk_workaround;
 208:C:/Users/stapi/OneDrive/Desktop/GD32VW553/V1_MQTT_OK/GD32VW55X_Wifi_BLE_SDK/GD32VW55x_RELEASE_V1.0.2/MSDK/wpa_supplicant/src/ap\wpa_auth_glue.c **** #endif /* CONFIG_OWE */
 209:C:/Users/stapi/OneDrive/Desktop/GD32VW553/V1_MQTT_OK/GD32VW55X_Wifi_BLE_SDK/GD32VW55x_RELEASE_V1.0.2/MSDK/wpa_supplicant/src/ap\wpa_auth_glue.c **** 	wconf->transition_disable = conf->transition_disable;
 210:C:/Users/stapi/OneDrive/Desktop/GD32VW553/V1_MQTT_OK/GD32VW55X_Wifi_BLE_SDK/GD32VW55x_RELEASE_V1.0.2/MSDK/wpa_supplicant/src/ap\wpa_auth_glue.c **** #ifdef CONFIG_DPP2
 211:C:/Users/stapi/OneDrive/Desktop/GD32VW553/V1_MQTT_OK/GD32VW55X_Wifi_BLE_SDK/GD32VW55x_RELEASE_V1.0.2/MSDK/wpa_supplicant/src/ap\wpa_auth_glue.c **** 	wconf->dpp_pfs = conf->dpp_pfs;
 212:C:/Users/stapi/OneDrive/Desktop/GD32VW553/V1_MQTT_OK/GD32VW55X_Wifi_BLE_SDK/GD32VW55x_RELEASE_V1.0.2/MSDK/wpa_supplicant/src/ap\wpa_auth_glue.c **** #endif /* CONFIG_DPP2 */
 213:C:/Users/stapi/OneDrive/Desktop/GD32VW553/V1_MQTT_OK/GD32VW55X_Wifi_BLE_SDK/GD32VW55x_RELEASE_V1.0.2/MSDK/wpa_supplicant/src/ap\wpa_auth_glue.c **** #ifdef CONFIG_PASN
 214:C:/Users/stapi/OneDrive/Desktop/GD32VW553/V1_MQTT_OK/GD32VW55X_Wifi_BLE_SDK/GD32VW55x_RELEASE_V1.0.2/MSDK/wpa_supplicant/src/ap\wpa_auth_glue.c **** #ifdef CONFIG_TESTING_OPTIONS
 215:C:/Users/stapi/OneDrive/Desktop/GD32VW553/V1_MQTT_OK/GD32VW55X_Wifi_BLE_SDK/GD32VW55x_RELEASE_V1.0.2/MSDK/wpa_supplicant/src/ap\wpa_auth_glue.c **** 	wconf->force_kdk_derivation = conf->force_kdk_derivation;
 216:C:/Users/stapi/OneDrive/Desktop/GD32VW553/V1_MQTT_OK/GD32VW55X_Wifi_BLE_SDK/GD32VW55x_RELEASE_V1.0.2/MSDK/wpa_supplicant/src/ap\wpa_auth_glue.c **** #endif /* CONFIG_TESTING_OPTIONS */
 217:C:/Users/stapi/OneDrive/Desktop/GD32VW553/V1_MQTT_OK/GD32VW55X_Wifi_BLE_SDK/GD32VW55x_RELEASE_V1.0.2/MSDK/wpa_supplicant/src/ap\wpa_auth_glue.c **** #endif /* CONFIG_PASN */
 218:C:/Users/stapi/OneDrive/Desktop/GD32VW553/V1_MQTT_OK/GD32VW55X_Wifi_BLE_SDK/GD32VW55x_RELEASE_V1.0.2/MSDK/wpa_supplicant/src/ap\wpa_auth_glue.c **** }
 219:C:/Users/stapi/OneDrive/Desktop/GD32VW553/V1_MQTT_OK/GD32VW55X_Wifi_BLE_SDK/GD32VW55x_RELEASE_V1.0.2/MSDK/wpa_supplicant/src/ap\wpa_auth_glue.c **** 
 220:C:/Users/stapi/OneDrive/Desktop/GD32VW553/V1_MQTT_OK/GD32VW55X_Wifi_BLE_SDK/GD32VW55x_RELEASE_V1.0.2/MSDK/wpa_supplicant/src/ap\wpa_auth_glue.c **** 
 221:C:/Users/stapi/OneDrive/Desktop/GD32VW553/V1_MQTT_OK/GD32VW55X_Wifi_BLE_SDK/GD32VW55x_RELEASE_V1.0.2/MSDK/wpa_supplicant/src/ap\wpa_auth_glue.c **** static void hostapd_wpa_auth_logger(void *ctx, const u8 *addr,
 222:C:/Users/stapi/OneDrive/Desktop/GD32VW553/V1_MQTT_OK/GD32VW55X_Wifi_BLE_SDK/GD32VW55x_RELEASE_V1.0.2/MSDK/wpa_supplicant/src/ap\wpa_auth_glue.c **** 				    logger_level level, const char *txt)
 223:C:/Users/stapi/OneDrive/Desktop/GD32VW553/V1_MQTT_OK/GD32VW55X_Wifi_BLE_SDK/GD32VW55x_RELEASE_V1.0.2/MSDK/wpa_supplicant/src/ap\wpa_auth_glue.c **** {
  15              		.loc 1 223 1
  16              		.cfi_startproc
  17              	.LVL0:
 224:C:/Users/stapi/OneDrive/Desktop/GD32VW553/V1_MQTT_OK/GD32VW55X_Wifi_BLE_SDK/GD32VW55x_RELEASE_V1.0.2/MSDK/wpa_supplicant/src/ap\wpa_auth_glue.c **** #ifndef CONFIG_NO_HOSTAPD_LOGGER
 225:C:/Users/stapi/OneDrive/Desktop/GD32VW553/V1_MQTT_OK/GD32VW55X_Wifi_BLE_SDK/GD32VW55x_RELEASE_V1.0.2/MSDK/wpa_supplicant/src/ap\wpa_auth_glue.c **** 	struct hostapd_data *hapd = ctx;
 226:C:/Users/stapi/OneDrive/Desktop/GD32VW553/V1_MQTT_OK/GD32VW55X_Wifi_BLE_SDK/GD32VW55x_RELEASE_V1.0.2/MSDK/wpa_supplicant/src/ap\wpa_auth_glue.c **** 	int hlevel;
 227:C:/Users/stapi/OneDrive/Desktop/GD32VW553/V1_MQTT_OK/GD32VW55X_Wifi_BLE_SDK/GD32VW55x_RELEASE_V1.0.2/MSDK/wpa_supplicant/src/ap\wpa_auth_glue.c **** 
 228:C:/Users/stapi/OneDrive/Desktop/GD32VW553/V1_MQTT_OK/GD32VW55X_Wifi_BLE_SDK/GD32VW55x_RELEASE_V1.0.2/MSDK/wpa_supplicant/src/ap\wpa_auth_glue.c **** 	switch (level) {
 229:C:/Users/stapi/OneDrive/Desktop/GD32VW553/V1_MQTT_OK/GD32VW55X_Wifi_BLE_SDK/GD32VW55x_RELEASE_V1.0.2/MSDK/wpa_supplicant/src/ap\wpa_auth_glue.c **** 	case LOGGER_WARNING:
 230:C:/Users/stapi/OneDrive/Desktop/GD32VW553/V1_MQTT_OK/GD32VW55X_Wifi_BLE_SDK/GD32VW55x_RELEASE_V1.0.2/MSDK/wpa_supplicant/src/ap\wpa_auth_glue.c **** 		hlevel = HOSTAPD_LEVEL_WARNING;
 231:C:/Users/stapi/OneDrive/Desktop/GD32VW553/V1_MQTT_OK/GD32VW55X_Wifi_BLE_SDK/GD32VW55x_RELEASE_V1.0.2/MSDK/wpa_supplicant/src/ap\wpa_auth_glue.c **** 		break;
 232:C:/Users/stapi/OneDrive/Desktop/GD32VW553/V1_MQTT_OK/GD32VW55X_Wifi_BLE_SDK/GD32VW55x_RELEASE_V1.0.2/MSDK/wpa_supplicant/src/ap\wpa_auth_glue.c **** 	case LOGGER_INFO:
 233:C:/Users/stapi/OneDrive/Desktop/GD32VW553/V1_MQTT_OK/GD32VW55X_Wifi_BLE_SDK/GD32VW55x_RELEASE_V1.0.2/MSDK/wpa_supplicant/src/ap\wpa_auth_glue.c **** 		hlevel = HOSTAPD_LEVEL_INFO;
 234:C:/Users/stapi/OneDrive/Desktop/GD32VW553/V1_MQTT_OK/GD32VW55X_Wifi_BLE_SDK/GD32VW55x_RELEASE_V1.0.2/MSDK/wpa_supplicant/src/ap\wpa_auth_glue.c **** 		break;
 235:C:/Users/stapi/OneDrive/Desktop/GD32VW553/V1_MQTT_OK/GD32VW55X_Wifi_BLE_SDK/GD32VW55x_RELEASE_V1.0.2/MSDK/wpa_supplicant/src/ap\wpa_auth_glue.c **** 	case LOGGER_DEBUG:
 236:C:/Users/stapi/OneDrive/Desktop/GD32VW553/V1_MQTT_OK/GD32VW55X_Wifi_BLE_SDK/GD32VW55x_RELEASE_V1.0.2/MSDK/wpa_supplicant/src/ap\wpa_auth_glue.c **** 	default:
 237:C:/Users/stapi/OneDrive/Desktop/GD32VW553/V1_MQTT_OK/GD32VW55X_Wifi_BLE_SDK/GD32VW55x_RELEASE_V1.0.2/MSDK/wpa_supplicant/src/ap\wpa_auth_glue.c **** 		hlevel = HOSTAPD_LEVEL_DEBUG;
 238:C:/Users/stapi/OneDrive/Desktop/GD32VW553/V1_MQTT_OK/GD32VW55X_Wifi_BLE_SDK/GD32VW55x_RELEASE_V1.0.2/MSDK/wpa_supplicant/src/ap\wpa_auth_glue.c **** 		break;
 239:C:/Users/stapi/OneDrive/Desktop/GD32VW553/V1_MQTT_OK/GD32VW55X_Wifi_BLE_SDK/GD32VW55x_RELEASE_V1.0.2/MSDK/wpa_supplicant/src/ap\wpa_auth_glue.c **** 	}
 240:C:/Users/stapi/OneDrive/Desktop/GD32VW553/V1_MQTT_OK/GD32VW55X_Wifi_BLE_SDK/GD32VW55x_RELEASE_V1.0.2/MSDK/wpa_supplicant/src/ap\wpa_auth_glue.c **** 
 241:C:/Users/stapi/OneDrive/Desktop/GD32VW553/V1_MQTT_OK/GD32VW55X_Wifi_BLE_SDK/GD32VW55x_RELEASE_V1.0.2/MSDK/wpa_supplicant/src/ap\wpa_auth_glue.c **** 	hostapd_logger(hapd, addr, HOSTAPD_MODULE_WPA, hlevel, "%s", txt);
 242:C:/Users/stapi/OneDrive/Desktop/GD32VW553/V1_MQTT_OK/GD32VW55X_Wifi_BLE_SDK/GD32VW55x_RELEASE_V1.0.2/MSDK/wpa_supplicant/src/ap\wpa_auth_glue.c **** #endif /* CONFIG_NO_HOSTAPD_LOGGER */
 243:C:/Users/stapi/OneDrive/Desktop/GD32VW553/V1_MQTT_OK/GD32VW55X_Wifi_BLE_SDK/GD32VW55x_RELEASE_V1.0.2/MSDK/wpa_supplicant/src/ap\wpa_auth_glue.c **** }
  18              		.loc 1 243 1
  19 0000 8280     		ret
  20              		.cfi_endproc
  21              	.LFE181:
  23              		.section	.text.hostapd_wpa_auth_for_each_sta,"ax",@progbits
  24              		.align	1
  26              	hostapd_wpa_auth_for_each_sta:
  27              	.LFB192:
 244:C:/Users/stapi/OneDrive/Desktop/GD32VW553/V1_MQTT_OK/GD32VW55X_Wifi_BLE_SDK/GD32VW55x_RELEASE_V1.0.2/MSDK/wpa_supplicant/src/ap\wpa_auth_glue.c **** 
 245:C:/Users/stapi/OneDrive/Desktop/GD32VW553/V1_MQTT_OK/GD32VW55X_Wifi_BLE_SDK/GD32VW55x_RELEASE_V1.0.2/MSDK/wpa_supplicant/src/ap\wpa_auth_glue.c **** 
 246:C:/Users/stapi/OneDrive/Desktop/GD32VW553/V1_MQTT_OK/GD32VW55X_Wifi_BLE_SDK/GD32VW55x_RELEASE_V1.0.2/MSDK/wpa_supplicant/src/ap\wpa_auth_glue.c **** static void hostapd_wpa_auth_disconnect(void *ctx, const u8 *addr,
 247:C:/Users/stapi/OneDrive/Desktop/GD32VW553/V1_MQTT_OK/GD32VW55X_Wifi_BLE_SDK/GD32VW55x_RELEASE_V1.0.2/MSDK/wpa_supplicant/src/ap\wpa_auth_glue.c **** 					u16 reason)
 248:C:/Users/stapi/OneDrive/Desktop/GD32VW553/V1_MQTT_OK/GD32VW55X_Wifi_BLE_SDK/GD32VW55x_RELEASE_V1.0.2/MSDK/wpa_supplicant/src/ap\wpa_auth_glue.c **** {
 249:C:/Users/stapi/OneDrive/Desktop/GD32VW553/V1_MQTT_OK/GD32VW55X_Wifi_BLE_SDK/GD32VW55x_RELEASE_V1.0.2/MSDK/wpa_supplicant/src/ap\wpa_auth_glue.c **** 	struct hostapd_data *hapd = ctx;
 250:C:/Users/stapi/OneDrive/Desktop/GD32VW553/V1_MQTT_OK/GD32VW55X_Wifi_BLE_SDK/GD32VW55x_RELEASE_V1.0.2/MSDK/wpa_supplicant/src/ap\wpa_auth_glue.c **** 	wpa_printf(MSG_DEBUG, "%s: WPA authenticator requests disconnect: "
 251:C:/Users/stapi/OneDrive/Desktop/GD32VW553/V1_MQTT_OK/GD32VW55X_Wifi_BLE_SDK/GD32VW55x_RELEASE_V1.0.2/MSDK/wpa_supplicant/src/ap\wpa_auth_glue.c **** 		   "STA " MACSTR " reason %d",
 252:C:/Users/stapi/OneDrive/Desktop/GD32VW553/V1_MQTT_OK/GD32VW55X_Wifi_BLE_SDK/GD32VW55x_RELEASE_V1.0.2/MSDK/wpa_supplicant/src/ap\wpa_auth_glue.c **** 		   __func__, MAC2STR(addr), reason);
 253:C:/Users/stapi/OneDrive/Desktop/GD32VW553/V1_MQTT_OK/GD32VW55X_Wifi_BLE_SDK/GD32VW55x_RELEASE_V1.0.2/MSDK/wpa_supplicant/src/ap\wpa_auth_glue.c **** 	ap_sta_disconnect(hapd, NULL, addr, reason);
 254:C:/Users/stapi/OneDrive/Desktop/GD32VW553/V1_MQTT_OK/GD32VW55X_Wifi_BLE_SDK/GD32VW55x_RELEASE_V1.0.2/MSDK/wpa_supplicant/src/ap\wpa_auth_glue.c **** }
 255:C:/Users/stapi/OneDrive/Desktop/GD32VW553/V1_MQTT_OK/GD32VW55X_Wifi_BLE_SDK/GD32VW55x_RELEASE_V1.0.2/MSDK/wpa_supplicant/src/ap\wpa_auth_glue.c **** 
 256:C:/Users/stapi/OneDrive/Desktop/GD32VW553/V1_MQTT_OK/GD32VW55X_Wifi_BLE_SDK/GD32VW55x_RELEASE_V1.0.2/MSDK/wpa_supplicant/src/ap\wpa_auth_glue.c **** 
 257:C:/Users/stapi/OneDrive/Desktop/GD32VW553/V1_MQTT_OK/GD32VW55X_Wifi_BLE_SDK/GD32VW55x_RELEASE_V1.0.2/MSDK/wpa_supplicant/src/ap\wpa_auth_glue.c **** static int hostapd_wpa_auth_mic_failure_report(void *ctx, const u8 *addr)
 258:C:/Users/stapi/OneDrive/Desktop/GD32VW553/V1_MQTT_OK/GD32VW55X_Wifi_BLE_SDK/GD32VW55x_RELEASE_V1.0.2/MSDK/wpa_supplicant/src/ap\wpa_auth_glue.c **** {
 259:C:/Users/stapi/OneDrive/Desktop/GD32VW553/V1_MQTT_OK/GD32VW55X_Wifi_BLE_SDK/GD32VW55x_RELEASE_V1.0.2/MSDK/wpa_supplicant/src/ap\wpa_auth_glue.c **** 	struct hostapd_data *hapd = ctx;
 260:C:/Users/stapi/OneDrive/Desktop/GD32VW553/V1_MQTT_OK/GD32VW55X_Wifi_BLE_SDK/GD32VW55x_RELEASE_V1.0.2/MSDK/wpa_supplicant/src/ap\wpa_auth_glue.c **** 	return michael_mic_failure(hapd, addr, 0);
 261:C:/Users/stapi/OneDrive/Desktop/GD32VW553/V1_MQTT_OK/GD32VW55X_Wifi_BLE_SDK/GD32VW55x_RELEASE_V1.0.2/MSDK/wpa_supplicant/src/ap\wpa_auth_glue.c **** }
 262:C:/Users/stapi/OneDrive/Desktop/GD32VW553/V1_MQTT_OK/GD32VW55X_Wifi_BLE_SDK/GD32VW55x_RELEASE_V1.0.2/MSDK/wpa_supplicant/src/ap\wpa_auth_glue.c **** 
 263:C:/Users/stapi/OneDrive/Desktop/GD32VW553/V1_MQTT_OK/GD32VW55X_Wifi_BLE_SDK/GD32VW55x_RELEASE_V1.0.2/MSDK/wpa_supplicant/src/ap\wpa_auth_glue.c **** 
 264:C:/Users/stapi/OneDrive/Desktop/GD32VW553/V1_MQTT_OK/GD32VW55X_Wifi_BLE_SDK/GD32VW55x_RELEASE_V1.0.2/MSDK/wpa_supplicant/src/ap\wpa_auth_glue.c **** static void hostapd_wpa_auth_psk_failure_report(void *ctx, const u8 *addr)
 265:C:/Users/stapi/OneDrive/Desktop/GD32VW553/V1_MQTT_OK/GD32VW55X_Wifi_BLE_SDK/GD32VW55x_RELEASE_V1.0.2/MSDK/wpa_supplicant/src/ap\wpa_auth_glue.c **** {
 266:C:/Users/stapi/OneDrive/Desktop/GD32VW553/V1_MQTT_OK/GD32VW55X_Wifi_BLE_SDK/GD32VW55x_RELEASE_V1.0.2/MSDK/wpa_supplicant/src/ap\wpa_auth_glue.c **** 	struct hostapd_data *hapd = ctx;
 267:C:/Users/stapi/OneDrive/Desktop/GD32VW553/V1_MQTT_OK/GD32VW55X_Wifi_BLE_SDK/GD32VW55x_RELEASE_V1.0.2/MSDK/wpa_supplicant/src/ap\wpa_auth_glue.c **** 	wpa_msg(hapd->msg_ctx, MSG_INFO, AP_STA_POSSIBLE_PSK_MISMATCH MACSTR,
 268:C:/Users/stapi/OneDrive/Desktop/GD32VW553/V1_MQTT_OK/GD32VW55X_Wifi_BLE_SDK/GD32VW55x_RELEASE_V1.0.2/MSDK/wpa_supplicant/src/ap\wpa_auth_glue.c **** 		MAC2STR(addr));
 269:C:/Users/stapi/OneDrive/Desktop/GD32VW553/V1_MQTT_OK/GD32VW55X_Wifi_BLE_SDK/GD32VW55x_RELEASE_V1.0.2/MSDK/wpa_supplicant/src/ap\wpa_auth_glue.c **** }
 270:C:/Users/stapi/OneDrive/Desktop/GD32VW553/V1_MQTT_OK/GD32VW55X_Wifi_BLE_SDK/GD32VW55x_RELEASE_V1.0.2/MSDK/wpa_supplicant/src/ap\wpa_auth_glue.c **** 
 271:C:/Users/stapi/OneDrive/Desktop/GD32VW553/V1_MQTT_OK/GD32VW55X_Wifi_BLE_SDK/GD32VW55x_RELEASE_V1.0.2/MSDK/wpa_supplicant/src/ap\wpa_auth_glue.c **** 
 272:C:/Users/stapi/OneDrive/Desktop/GD32VW553/V1_MQTT_OK/GD32VW55X_Wifi_BLE_SDK/GD32VW55x_RELEASE_V1.0.2/MSDK/wpa_supplicant/src/ap\wpa_auth_glue.c **** static void hostapd_wpa_auth_set_eapol(void *ctx, const u8 *addr,
 273:C:/Users/stapi/OneDrive/Desktop/GD32VW553/V1_MQTT_OK/GD32VW55X_Wifi_BLE_SDK/GD32VW55x_RELEASE_V1.0.2/MSDK/wpa_supplicant/src/ap\wpa_auth_glue.c **** 				       wpa_eapol_variable var, int value)
 274:C:/Users/stapi/OneDrive/Desktop/GD32VW553/V1_MQTT_OK/GD32VW55X_Wifi_BLE_SDK/GD32VW55x_RELEASE_V1.0.2/MSDK/wpa_supplicant/src/ap\wpa_auth_glue.c **** {
 275:C:/Users/stapi/OneDrive/Desktop/GD32VW553/V1_MQTT_OK/GD32VW55X_Wifi_BLE_SDK/GD32VW55x_RELEASE_V1.0.2/MSDK/wpa_supplicant/src/ap\wpa_auth_glue.c **** 	struct hostapd_data *hapd = ctx;
 276:C:/Users/stapi/OneDrive/Desktop/GD32VW553/V1_MQTT_OK/GD32VW55X_Wifi_BLE_SDK/GD32VW55x_RELEASE_V1.0.2/MSDK/wpa_supplicant/src/ap\wpa_auth_glue.c **** 	struct sta_info *sta = ap_get_sta(hapd, addr);
 277:C:/Users/stapi/OneDrive/Desktop/GD32VW553/V1_MQTT_OK/GD32VW55X_Wifi_BLE_SDK/GD32VW55x_RELEASE_V1.0.2/MSDK/wpa_supplicant/src/ap\wpa_auth_glue.c **** 	if (sta == NULL)
 278:C:/Users/stapi/OneDrive/Desktop/GD32VW553/V1_MQTT_OK/GD32VW55X_Wifi_BLE_SDK/GD32VW55x_RELEASE_V1.0.2/MSDK/wpa_supplicant/src/ap\wpa_auth_glue.c **** 		return;
 279:C:/Users/stapi/OneDrive/Desktop/GD32VW553/V1_MQTT_OK/GD32VW55X_Wifi_BLE_SDK/GD32VW55x_RELEASE_V1.0.2/MSDK/wpa_supplicant/src/ap\wpa_auth_glue.c **** #ifdef IEEE8021X_EAPOL
 280:C:/Users/stapi/OneDrive/Desktop/GD32VW553/V1_MQTT_OK/GD32VW55X_Wifi_BLE_SDK/GD32VW55x_RELEASE_V1.0.2/MSDK/wpa_supplicant/src/ap\wpa_auth_glue.c **** 	switch (var) {
 281:C:/Users/stapi/OneDrive/Desktop/GD32VW553/V1_MQTT_OK/GD32VW55X_Wifi_BLE_SDK/GD32VW55x_RELEASE_V1.0.2/MSDK/wpa_supplicant/src/ap\wpa_auth_glue.c **** 	case WPA_EAPOL_portEnabled:
 282:C:/Users/stapi/OneDrive/Desktop/GD32VW553/V1_MQTT_OK/GD32VW55X_Wifi_BLE_SDK/GD32VW55x_RELEASE_V1.0.2/MSDK/wpa_supplicant/src/ap\wpa_auth_glue.c **** 		ieee802_1x_notify_port_enabled(sta->eapol_sm, value);
 283:C:/Users/stapi/OneDrive/Desktop/GD32VW553/V1_MQTT_OK/GD32VW55X_Wifi_BLE_SDK/GD32VW55x_RELEASE_V1.0.2/MSDK/wpa_supplicant/src/ap\wpa_auth_glue.c **** 		break;
 284:C:/Users/stapi/OneDrive/Desktop/GD32VW553/V1_MQTT_OK/GD32VW55X_Wifi_BLE_SDK/GD32VW55x_RELEASE_V1.0.2/MSDK/wpa_supplicant/src/ap\wpa_auth_glue.c **** 	case WPA_EAPOL_portValid:
 285:C:/Users/stapi/OneDrive/Desktop/GD32VW553/V1_MQTT_OK/GD32VW55X_Wifi_BLE_SDK/GD32VW55x_RELEASE_V1.0.2/MSDK/wpa_supplicant/src/ap\wpa_auth_glue.c **** 		ieee802_1x_notify_port_valid(sta->eapol_sm, value);
 286:C:/Users/stapi/OneDrive/Desktop/GD32VW553/V1_MQTT_OK/GD32VW55X_Wifi_BLE_SDK/GD32VW55x_RELEASE_V1.0.2/MSDK/wpa_supplicant/src/ap\wpa_auth_glue.c **** 		break;
 287:C:/Users/stapi/OneDrive/Desktop/GD32VW553/V1_MQTT_OK/GD32VW55X_Wifi_BLE_SDK/GD32VW55x_RELEASE_V1.0.2/MSDK/wpa_supplicant/src/ap\wpa_auth_glue.c **** 	case WPA_EAPOL_authorized:
 288:C:/Users/stapi/OneDrive/Desktop/GD32VW553/V1_MQTT_OK/GD32VW55X_Wifi_BLE_SDK/GD32VW55x_RELEASE_V1.0.2/MSDK/wpa_supplicant/src/ap\wpa_auth_glue.c **** 		ieee802_1x_set_sta_authorized(hapd, sta, value);
 289:C:/Users/stapi/OneDrive/Desktop/GD32VW553/V1_MQTT_OK/GD32VW55X_Wifi_BLE_SDK/GD32VW55x_RELEASE_V1.0.2/MSDK/wpa_supplicant/src/ap\wpa_auth_glue.c **** 		break;
 290:C:/Users/stapi/OneDrive/Desktop/GD32VW553/V1_MQTT_OK/GD32VW55X_Wifi_BLE_SDK/GD32VW55x_RELEASE_V1.0.2/MSDK/wpa_supplicant/src/ap\wpa_auth_glue.c **** 	case WPA_EAPOL_portControl_Auto:
 291:C:/Users/stapi/OneDrive/Desktop/GD32VW553/V1_MQTT_OK/GD32VW55X_Wifi_BLE_SDK/GD32VW55x_RELEASE_V1.0.2/MSDK/wpa_supplicant/src/ap\wpa_auth_glue.c **** 		if (sta->eapol_sm)
 292:C:/Users/stapi/OneDrive/Desktop/GD32VW553/V1_MQTT_OK/GD32VW55X_Wifi_BLE_SDK/GD32VW55x_RELEASE_V1.0.2/MSDK/wpa_supplicant/src/ap\wpa_auth_glue.c **** 			sta->eapol_sm->portControl = Auto;
 293:C:/Users/stapi/OneDrive/Desktop/GD32VW553/V1_MQTT_OK/GD32VW55X_Wifi_BLE_SDK/GD32VW55x_RELEASE_V1.0.2/MSDK/wpa_supplicant/src/ap\wpa_auth_glue.c **** 		break;
 294:C:/Users/stapi/OneDrive/Desktop/GD32VW553/V1_MQTT_OK/GD32VW55X_Wifi_BLE_SDK/GD32VW55x_RELEASE_V1.0.2/MSDK/wpa_supplicant/src/ap\wpa_auth_glue.c **** 	case WPA_EAPOL_keyRun:
 295:C:/Users/stapi/OneDrive/Desktop/GD32VW553/V1_MQTT_OK/GD32VW55X_Wifi_BLE_SDK/GD32VW55x_RELEASE_V1.0.2/MSDK/wpa_supplicant/src/ap\wpa_auth_glue.c **** 		if (sta->eapol_sm)
 296:C:/Users/stapi/OneDrive/Desktop/GD32VW553/V1_MQTT_OK/GD32VW55X_Wifi_BLE_SDK/GD32VW55x_RELEASE_V1.0.2/MSDK/wpa_supplicant/src/ap\wpa_auth_glue.c **** 			sta->eapol_sm->keyRun = value;
 297:C:/Users/stapi/OneDrive/Desktop/GD32VW553/V1_MQTT_OK/GD32VW55X_Wifi_BLE_SDK/GD32VW55x_RELEASE_V1.0.2/MSDK/wpa_supplicant/src/ap\wpa_auth_glue.c **** 		break;
 298:C:/Users/stapi/OneDrive/Desktop/GD32VW553/V1_MQTT_OK/GD32VW55X_Wifi_BLE_SDK/GD32VW55x_RELEASE_V1.0.2/MSDK/wpa_supplicant/src/ap\wpa_auth_glue.c **** 	case WPA_EAPOL_keyAvailable:
 299:C:/Users/stapi/OneDrive/Desktop/GD32VW553/V1_MQTT_OK/GD32VW55X_Wifi_BLE_SDK/GD32VW55x_RELEASE_V1.0.2/MSDK/wpa_supplicant/src/ap\wpa_auth_glue.c **** 		if (sta->eapol_sm)
 300:C:/Users/stapi/OneDrive/Desktop/GD32VW553/V1_MQTT_OK/GD32VW55X_Wifi_BLE_SDK/GD32VW55x_RELEASE_V1.0.2/MSDK/wpa_supplicant/src/ap\wpa_auth_glue.c **** 			sta->eapol_sm->eap_if->eapKeyAvailable = value;
 301:C:/Users/stapi/OneDrive/Desktop/GD32VW553/V1_MQTT_OK/GD32VW55X_Wifi_BLE_SDK/GD32VW55x_RELEASE_V1.0.2/MSDK/wpa_supplicant/src/ap\wpa_auth_glue.c **** 		break;
 302:C:/Users/stapi/OneDrive/Desktop/GD32VW553/V1_MQTT_OK/GD32VW55X_Wifi_BLE_SDK/GD32VW55x_RELEASE_V1.0.2/MSDK/wpa_supplicant/src/ap\wpa_auth_glue.c **** 	case WPA_EAPOL_keyDone:
 303:C:/Users/stapi/OneDrive/Desktop/GD32VW553/V1_MQTT_OK/GD32VW55X_Wifi_BLE_SDK/GD32VW55x_RELEASE_V1.0.2/MSDK/wpa_supplicant/src/ap\wpa_auth_glue.c **** 		if (sta->eapol_sm)
 304:C:/Users/stapi/OneDrive/Desktop/GD32VW553/V1_MQTT_OK/GD32VW55X_Wifi_BLE_SDK/GD32VW55x_RELEASE_V1.0.2/MSDK/wpa_supplicant/src/ap\wpa_auth_glue.c **** 			sta->eapol_sm->keyDone = value;
 305:C:/Users/stapi/OneDrive/Desktop/GD32VW553/V1_MQTT_OK/GD32VW55X_Wifi_BLE_SDK/GD32VW55x_RELEASE_V1.0.2/MSDK/wpa_supplicant/src/ap\wpa_auth_glue.c **** 		break;
 306:C:/Users/stapi/OneDrive/Desktop/GD32VW553/V1_MQTT_OK/GD32VW55X_Wifi_BLE_SDK/GD32VW55x_RELEASE_V1.0.2/MSDK/wpa_supplicant/src/ap\wpa_auth_glue.c **** 	case WPA_EAPOL_inc_EapolFramesTx:
 307:C:/Users/stapi/OneDrive/Desktop/GD32VW553/V1_MQTT_OK/GD32VW55X_Wifi_BLE_SDK/GD32VW55x_RELEASE_V1.0.2/MSDK/wpa_supplicant/src/ap\wpa_auth_glue.c **** 		if (sta->eapol_sm)
 308:C:/Users/stapi/OneDrive/Desktop/GD32VW553/V1_MQTT_OK/GD32VW55X_Wifi_BLE_SDK/GD32VW55x_RELEASE_V1.0.2/MSDK/wpa_supplicant/src/ap\wpa_auth_glue.c **** 			sta->eapol_sm->dot1xAuthEapolFramesTx++;
 309:C:/Users/stapi/OneDrive/Desktop/GD32VW553/V1_MQTT_OK/GD32VW55X_Wifi_BLE_SDK/GD32VW55x_RELEASE_V1.0.2/MSDK/wpa_supplicant/src/ap\wpa_auth_glue.c **** 		break;
 310:C:/Users/stapi/OneDrive/Desktop/GD32VW553/V1_MQTT_OK/GD32VW55X_Wifi_BLE_SDK/GD32VW55x_RELEASE_V1.0.2/MSDK/wpa_supplicant/src/ap\wpa_auth_glue.c **** 	}
 311:C:/Users/stapi/OneDrive/Desktop/GD32VW553/V1_MQTT_OK/GD32VW55X_Wifi_BLE_SDK/GD32VW55x_RELEASE_V1.0.2/MSDK/wpa_supplicant/src/ap\wpa_auth_glue.c **** #else
 312:C:/Users/stapi/OneDrive/Desktop/GD32VW553/V1_MQTT_OK/GD32VW55X_Wifi_BLE_SDK/GD32VW55x_RELEASE_V1.0.2/MSDK/wpa_supplicant/src/ap\wpa_auth_glue.c **** 	if (WPA_EAPOL_authorized == var) {
 313:C:/Users/stapi/OneDrive/Desktop/GD32VW553/V1_MQTT_OK/GD32VW55X_Wifi_BLE_SDK/GD32VW55x_RELEASE_V1.0.2/MSDK/wpa_supplicant/src/ap\wpa_auth_glue.c **** 		if (value) {
 314:C:/Users/stapi/OneDrive/Desktop/GD32VW553/V1_MQTT_OK/GD32VW55X_Wifi_BLE_SDK/GD32VW55x_RELEASE_V1.0.2/MSDK/wpa_supplicant/src/ap\wpa_auth_glue.c **** 			ap_sta_set_authorized(hapd, sta, 1);
 315:C:/Users/stapi/OneDrive/Desktop/GD32VW553/V1_MQTT_OK/GD32VW55X_Wifi_BLE_SDK/GD32VW55x_RELEASE_V1.0.2/MSDK/wpa_supplicant/src/ap\wpa_auth_glue.c **** 			hostapd_set_authorized(hapd, sta, 1);
 316:C:/Users/stapi/OneDrive/Desktop/GD32VW553/V1_MQTT_OK/GD32VW55X_Wifi_BLE_SDK/GD32VW55x_RELEASE_V1.0.2/MSDK/wpa_supplicant/src/ap\wpa_auth_glue.c **** 		} else {
 317:C:/Users/stapi/OneDrive/Desktop/GD32VW553/V1_MQTT_OK/GD32VW55X_Wifi_BLE_SDK/GD32VW55x_RELEASE_V1.0.2/MSDK/wpa_supplicant/src/ap\wpa_auth_glue.c **** 			ap_sta_set_authorized(hapd, sta, 0);
 318:C:/Users/stapi/OneDrive/Desktop/GD32VW553/V1_MQTT_OK/GD32VW55X_Wifi_BLE_SDK/GD32VW55x_RELEASE_V1.0.2/MSDK/wpa_supplicant/src/ap\wpa_auth_glue.c **** 			hostapd_set_authorized(hapd, sta, 0);
 319:C:/Users/stapi/OneDrive/Desktop/GD32VW553/V1_MQTT_OK/GD32VW55X_Wifi_BLE_SDK/GD32VW55x_RELEASE_V1.0.2/MSDK/wpa_supplicant/src/ap\wpa_auth_glue.c **** 		}
 320:C:/Users/stapi/OneDrive/Desktop/GD32VW553/V1_MQTT_OK/GD32VW55X_Wifi_BLE_SDK/GD32VW55x_RELEASE_V1.0.2/MSDK/wpa_supplicant/src/ap\wpa_auth_glue.c **** 	}
 321:C:/Users/stapi/OneDrive/Desktop/GD32VW553/V1_MQTT_OK/GD32VW55X_Wifi_BLE_SDK/GD32VW55x_RELEASE_V1.0.2/MSDK/wpa_supplicant/src/ap\wpa_auth_glue.c **** #endif /* IEEE8021X_EAPOL */
 322:C:/Users/stapi/OneDrive/Desktop/GD32VW553/V1_MQTT_OK/GD32VW55X_Wifi_BLE_SDK/GD32VW55x_RELEASE_V1.0.2/MSDK/wpa_supplicant/src/ap\wpa_auth_glue.c **** }
 323:C:/Users/stapi/OneDrive/Desktop/GD32VW553/V1_MQTT_OK/GD32VW55X_Wifi_BLE_SDK/GD32VW55x_RELEASE_V1.0.2/MSDK/wpa_supplicant/src/ap\wpa_auth_glue.c **** 
 324:C:/Users/stapi/OneDrive/Desktop/GD32VW553/V1_MQTT_OK/GD32VW55X_Wifi_BLE_SDK/GD32VW55x_RELEASE_V1.0.2/MSDK/wpa_supplicant/src/ap\wpa_auth_glue.c **** 
 325:C:/Users/stapi/OneDrive/Desktop/GD32VW553/V1_MQTT_OK/GD32VW55X_Wifi_BLE_SDK/GD32VW55x_RELEASE_V1.0.2/MSDK/wpa_supplicant/src/ap\wpa_auth_glue.c **** static int hostapd_wpa_auth_get_eapol(void *ctx, const u8 *addr,
 326:C:/Users/stapi/OneDrive/Desktop/GD32VW553/V1_MQTT_OK/GD32VW55X_Wifi_BLE_SDK/GD32VW55x_RELEASE_V1.0.2/MSDK/wpa_supplicant/src/ap\wpa_auth_glue.c **** 				      wpa_eapol_variable var)
 327:C:/Users/stapi/OneDrive/Desktop/GD32VW553/V1_MQTT_OK/GD32VW55X_Wifi_BLE_SDK/GD32VW55x_RELEASE_V1.0.2/MSDK/wpa_supplicant/src/ap\wpa_auth_glue.c **** {
 328:C:/Users/stapi/OneDrive/Desktop/GD32VW553/V1_MQTT_OK/GD32VW55X_Wifi_BLE_SDK/GD32VW55x_RELEASE_V1.0.2/MSDK/wpa_supplicant/src/ap\wpa_auth_glue.c **** 	struct hostapd_data *hapd = ctx;
 329:C:/Users/stapi/OneDrive/Desktop/GD32VW553/V1_MQTT_OK/GD32VW55X_Wifi_BLE_SDK/GD32VW55x_RELEASE_V1.0.2/MSDK/wpa_supplicant/src/ap\wpa_auth_glue.c **** 	struct sta_info *sta = ap_get_sta(hapd, addr);
 330:C:/Users/stapi/OneDrive/Desktop/GD32VW553/V1_MQTT_OK/GD32VW55X_Wifi_BLE_SDK/GD32VW55x_RELEASE_V1.0.2/MSDK/wpa_supplicant/src/ap\wpa_auth_glue.c **** 	if (sta == NULL || sta->eapol_sm == NULL)
 331:C:/Users/stapi/OneDrive/Desktop/GD32VW553/V1_MQTT_OK/GD32VW55X_Wifi_BLE_SDK/GD32VW55x_RELEASE_V1.0.2/MSDK/wpa_supplicant/src/ap\wpa_auth_glue.c **** 		return -1;
 332:C:/Users/stapi/OneDrive/Desktop/GD32VW553/V1_MQTT_OK/GD32VW55X_Wifi_BLE_SDK/GD32VW55x_RELEASE_V1.0.2/MSDK/wpa_supplicant/src/ap\wpa_auth_glue.c **** 	switch (var) {
 333:C:/Users/stapi/OneDrive/Desktop/GD32VW553/V1_MQTT_OK/GD32VW55X_Wifi_BLE_SDK/GD32VW55x_RELEASE_V1.0.2/MSDK/wpa_supplicant/src/ap\wpa_auth_glue.c **** 	case WPA_EAPOL_keyRun:
 334:C:/Users/stapi/OneDrive/Desktop/GD32VW553/V1_MQTT_OK/GD32VW55X_Wifi_BLE_SDK/GD32VW55x_RELEASE_V1.0.2/MSDK/wpa_supplicant/src/ap\wpa_auth_glue.c **** 		return sta->eapol_sm->keyRun;
 335:C:/Users/stapi/OneDrive/Desktop/GD32VW553/V1_MQTT_OK/GD32VW55X_Wifi_BLE_SDK/GD32VW55x_RELEASE_V1.0.2/MSDK/wpa_supplicant/src/ap\wpa_auth_glue.c **** 	case WPA_EAPOL_keyAvailable:
 336:C:/Users/stapi/OneDrive/Desktop/GD32VW553/V1_MQTT_OK/GD32VW55X_Wifi_BLE_SDK/GD32VW55x_RELEASE_V1.0.2/MSDK/wpa_supplicant/src/ap\wpa_auth_glue.c **** 		return sta->eapol_sm->eap_if->eapKeyAvailable;
 337:C:/Users/stapi/OneDrive/Desktop/GD32VW553/V1_MQTT_OK/GD32VW55X_Wifi_BLE_SDK/GD32VW55x_RELEASE_V1.0.2/MSDK/wpa_supplicant/src/ap\wpa_auth_glue.c **** 	default:
 338:C:/Users/stapi/OneDrive/Desktop/GD32VW553/V1_MQTT_OK/GD32VW55X_Wifi_BLE_SDK/GD32VW55x_RELEASE_V1.0.2/MSDK/wpa_supplicant/src/ap\wpa_auth_glue.c **** 		return -1;
 339:C:/Users/stapi/OneDrive/Desktop/GD32VW553/V1_MQTT_OK/GD32VW55X_Wifi_BLE_SDK/GD32VW55x_RELEASE_V1.0.2/MSDK/wpa_supplicant/src/ap\wpa_auth_glue.c **** 	}
 340:C:/Users/stapi/OneDrive/Desktop/GD32VW553/V1_MQTT_OK/GD32VW55X_Wifi_BLE_SDK/GD32VW55x_RELEASE_V1.0.2/MSDK/wpa_supplicant/src/ap\wpa_auth_glue.c **** }
 341:C:/Users/stapi/OneDrive/Desktop/GD32VW553/V1_MQTT_OK/GD32VW55X_Wifi_BLE_SDK/GD32VW55x_RELEASE_V1.0.2/MSDK/wpa_supplicant/src/ap\wpa_auth_glue.c **** 
 342:C:/Users/stapi/OneDrive/Desktop/GD32VW553/V1_MQTT_OK/GD32VW55X_Wifi_BLE_SDK/GD32VW55x_RELEASE_V1.0.2/MSDK/wpa_supplicant/src/ap\wpa_auth_glue.c **** 
 343:C:/Users/stapi/OneDrive/Desktop/GD32VW553/V1_MQTT_OK/GD32VW55X_Wifi_BLE_SDK/GD32VW55x_RELEASE_V1.0.2/MSDK/wpa_supplicant/src/ap\wpa_auth_glue.c **** static const u8 * hostapd_wpa_auth_get_psk(void *ctx, const u8 *addr,
 344:C:/Users/stapi/OneDrive/Desktop/GD32VW553/V1_MQTT_OK/GD32VW55X_Wifi_BLE_SDK/GD32VW55x_RELEASE_V1.0.2/MSDK/wpa_supplicant/src/ap\wpa_auth_glue.c **** 					   const u8 *p2p_dev_addr,
 345:C:/Users/stapi/OneDrive/Desktop/GD32VW553/V1_MQTT_OK/GD32VW55X_Wifi_BLE_SDK/GD32VW55x_RELEASE_V1.0.2/MSDK/wpa_supplicant/src/ap\wpa_auth_glue.c **** 					   const u8 *prev_psk, size_t *psk_len,
 346:C:/Users/stapi/OneDrive/Desktop/GD32VW553/V1_MQTT_OK/GD32VW55X_Wifi_BLE_SDK/GD32VW55x_RELEASE_V1.0.2/MSDK/wpa_supplicant/src/ap\wpa_auth_glue.c **** 					   int *vlan_id)
 347:C:/Users/stapi/OneDrive/Desktop/GD32VW553/V1_MQTT_OK/GD32VW55X_Wifi_BLE_SDK/GD32VW55x_RELEASE_V1.0.2/MSDK/wpa_supplicant/src/ap\wpa_auth_glue.c **** {
 348:C:/Users/stapi/OneDrive/Desktop/GD32VW553/V1_MQTT_OK/GD32VW55X_Wifi_BLE_SDK/GD32VW55x_RELEASE_V1.0.2/MSDK/wpa_supplicant/src/ap\wpa_auth_glue.c **** 	struct hostapd_data *hapd = ctx;
 349:C:/Users/stapi/OneDrive/Desktop/GD32VW553/V1_MQTT_OK/GD32VW55X_Wifi_BLE_SDK/GD32VW55x_RELEASE_V1.0.2/MSDK/wpa_supplicant/src/ap\wpa_auth_glue.c **** 	struct sta_info *sta = ap_get_sta(hapd, addr);
 350:C:/Users/stapi/OneDrive/Desktop/GD32VW553/V1_MQTT_OK/GD32VW55X_Wifi_BLE_SDK/GD32VW55x_RELEASE_V1.0.2/MSDK/wpa_supplicant/src/ap\wpa_auth_glue.c **** 	const u8 *psk;
 351:C:/Users/stapi/OneDrive/Desktop/GD32VW553/V1_MQTT_OK/GD32VW55X_Wifi_BLE_SDK/GD32VW55x_RELEASE_V1.0.2/MSDK/wpa_supplicant/src/ap\wpa_auth_glue.c **** 
 352:C:/Users/stapi/OneDrive/Desktop/GD32VW553/V1_MQTT_OK/GD32VW55X_Wifi_BLE_SDK/GD32VW55x_RELEASE_V1.0.2/MSDK/wpa_supplicant/src/ap\wpa_auth_glue.c **** 	if (vlan_id)
 353:C:/Users/stapi/OneDrive/Desktop/GD32VW553/V1_MQTT_OK/GD32VW55X_Wifi_BLE_SDK/GD32VW55x_RELEASE_V1.0.2/MSDK/wpa_supplicant/src/ap\wpa_auth_glue.c **** 		*vlan_id = 0;
 354:C:/Users/stapi/OneDrive/Desktop/GD32VW553/V1_MQTT_OK/GD32VW55X_Wifi_BLE_SDK/GD32VW55x_RELEASE_V1.0.2/MSDK/wpa_supplicant/src/ap\wpa_auth_glue.c **** 	if (psk_len)
 355:C:/Users/stapi/OneDrive/Desktop/GD32VW553/V1_MQTT_OK/GD32VW55X_Wifi_BLE_SDK/GD32VW55x_RELEASE_V1.0.2/MSDK/wpa_supplicant/src/ap\wpa_auth_glue.c **** 		*psk_len = PMK_LEN;
 356:C:/Users/stapi/OneDrive/Desktop/GD32VW553/V1_MQTT_OK/GD32VW55X_Wifi_BLE_SDK/GD32VW55x_RELEASE_V1.0.2/MSDK/wpa_supplicant/src/ap\wpa_auth_glue.c **** 
 357:C:/Users/stapi/OneDrive/Desktop/GD32VW553/V1_MQTT_OK/GD32VW55X_Wifi_BLE_SDK/GD32VW55x_RELEASE_V1.0.2/MSDK/wpa_supplicant/src/ap\wpa_auth_glue.c **** #ifdef CONFIG_SAE
 358:C:/Users/stapi/OneDrive/Desktop/GD32VW553/V1_MQTT_OK/GD32VW55X_Wifi_BLE_SDK/GD32VW55x_RELEASE_V1.0.2/MSDK/wpa_supplicant/src/ap\wpa_auth_glue.c **** 	if (sta && sta->auth_alg == WLAN_AUTH_SAE) {
 359:C:/Users/stapi/OneDrive/Desktop/GD32VW553/V1_MQTT_OK/GD32VW55X_Wifi_BLE_SDK/GD32VW55x_RELEASE_V1.0.2/MSDK/wpa_supplicant/src/ap\wpa_auth_glue.c **** 		if (!sta->sae || prev_psk)
 360:C:/Users/stapi/OneDrive/Desktop/GD32VW553/V1_MQTT_OK/GD32VW55X_Wifi_BLE_SDK/GD32VW55x_RELEASE_V1.0.2/MSDK/wpa_supplicant/src/ap\wpa_auth_glue.c **** 			return NULL;
 361:C:/Users/stapi/OneDrive/Desktop/GD32VW553/V1_MQTT_OK/GD32VW55X_Wifi_BLE_SDK/GD32VW55x_RELEASE_V1.0.2/MSDK/wpa_supplicant/src/ap\wpa_auth_glue.c **** 		return sta->sae->pmk;
 362:C:/Users/stapi/OneDrive/Desktop/GD32VW553/V1_MQTT_OK/GD32VW55X_Wifi_BLE_SDK/GD32VW55x_RELEASE_V1.0.2/MSDK/wpa_supplicant/src/ap\wpa_auth_glue.c **** 	}
 363:C:/Users/stapi/OneDrive/Desktop/GD32VW553/V1_MQTT_OK/GD32VW55X_Wifi_BLE_SDK/GD32VW55x_RELEASE_V1.0.2/MSDK/wpa_supplicant/src/ap\wpa_auth_glue.c **** 	if (sta && wpa_auth_uses_sae(sta->wpa_sm)) {
 364:C:/Users/stapi/OneDrive/Desktop/GD32VW553/V1_MQTT_OK/GD32VW55X_Wifi_BLE_SDK/GD32VW55x_RELEASE_V1.0.2/MSDK/wpa_supplicant/src/ap\wpa_auth_glue.c **** 		wpa_printf(MSG_DEBUG,
 365:C:/Users/stapi/OneDrive/Desktop/GD32VW553/V1_MQTT_OK/GD32VW55X_Wifi_BLE_SDK/GD32VW55x_RELEASE_V1.0.2/MSDK/wpa_supplicant/src/ap\wpa_auth_glue.c **** 			   "No PSK for STA trying to use SAE with PMKSA caching");
 366:C:/Users/stapi/OneDrive/Desktop/GD32VW553/V1_MQTT_OK/GD32VW55X_Wifi_BLE_SDK/GD32VW55x_RELEASE_V1.0.2/MSDK/wpa_supplicant/src/ap\wpa_auth_glue.c **** 		return NULL;
 367:C:/Users/stapi/OneDrive/Desktop/GD32VW553/V1_MQTT_OK/GD32VW55X_Wifi_BLE_SDK/GD32VW55x_RELEASE_V1.0.2/MSDK/wpa_supplicant/src/ap\wpa_auth_glue.c **** 	}
 368:C:/Users/stapi/OneDrive/Desktop/GD32VW553/V1_MQTT_OK/GD32VW55X_Wifi_BLE_SDK/GD32VW55x_RELEASE_V1.0.2/MSDK/wpa_supplicant/src/ap\wpa_auth_glue.c **** #endif /* CONFIG_SAE */
 369:C:/Users/stapi/OneDrive/Desktop/GD32VW553/V1_MQTT_OK/GD32VW55X_Wifi_BLE_SDK/GD32VW55x_RELEASE_V1.0.2/MSDK/wpa_supplicant/src/ap\wpa_auth_glue.c **** 
 370:C:/Users/stapi/OneDrive/Desktop/GD32VW553/V1_MQTT_OK/GD32VW55X_Wifi_BLE_SDK/GD32VW55x_RELEASE_V1.0.2/MSDK/wpa_supplicant/src/ap\wpa_auth_glue.c **** #ifdef CONFIG_OWE
 371:C:/Users/stapi/OneDrive/Desktop/GD32VW553/V1_MQTT_OK/GD32VW55X_Wifi_BLE_SDK/GD32VW55x_RELEASE_V1.0.2/MSDK/wpa_supplicant/src/ap\wpa_auth_glue.c **** 	if ((hapd->conf->wpa_key_mgmt & WPA_KEY_MGMT_OWE) &&
 372:C:/Users/stapi/OneDrive/Desktop/GD32VW553/V1_MQTT_OK/GD32VW55X_Wifi_BLE_SDK/GD32VW55x_RELEASE_V1.0.2/MSDK/wpa_supplicant/src/ap\wpa_auth_glue.c **** 	    sta && sta->owe_pmk) {
 373:C:/Users/stapi/OneDrive/Desktop/GD32VW553/V1_MQTT_OK/GD32VW55X_Wifi_BLE_SDK/GD32VW55x_RELEASE_V1.0.2/MSDK/wpa_supplicant/src/ap\wpa_auth_glue.c **** 		if (psk_len)
 374:C:/Users/stapi/OneDrive/Desktop/GD32VW553/V1_MQTT_OK/GD32VW55X_Wifi_BLE_SDK/GD32VW55x_RELEASE_V1.0.2/MSDK/wpa_supplicant/src/ap\wpa_auth_glue.c **** 			*psk_len = sta->owe_pmk_len;
 375:C:/Users/stapi/OneDrive/Desktop/GD32VW553/V1_MQTT_OK/GD32VW55X_Wifi_BLE_SDK/GD32VW55x_RELEASE_V1.0.2/MSDK/wpa_supplicant/src/ap\wpa_auth_glue.c **** 		return sta->owe_pmk;
 376:C:/Users/stapi/OneDrive/Desktop/GD32VW553/V1_MQTT_OK/GD32VW55X_Wifi_BLE_SDK/GD32VW55x_RELEASE_V1.0.2/MSDK/wpa_supplicant/src/ap\wpa_auth_glue.c **** 	}
 377:C:/Users/stapi/OneDrive/Desktop/GD32VW553/V1_MQTT_OK/GD32VW55X_Wifi_BLE_SDK/GD32VW55x_RELEASE_V1.0.2/MSDK/wpa_supplicant/src/ap\wpa_auth_glue.c **** 	if ((hapd->conf->wpa_key_mgmt & WPA_KEY_MGMT_OWE) && sta) {
 378:C:/Users/stapi/OneDrive/Desktop/GD32VW553/V1_MQTT_OK/GD32VW55X_Wifi_BLE_SDK/GD32VW55x_RELEASE_V1.0.2/MSDK/wpa_supplicant/src/ap\wpa_auth_glue.c **** 		struct rsn_pmksa_cache_entry *sa;
 379:C:/Users/stapi/OneDrive/Desktop/GD32VW553/V1_MQTT_OK/GD32VW55X_Wifi_BLE_SDK/GD32VW55x_RELEASE_V1.0.2/MSDK/wpa_supplicant/src/ap\wpa_auth_glue.c **** 
 380:C:/Users/stapi/OneDrive/Desktop/GD32VW553/V1_MQTT_OK/GD32VW55X_Wifi_BLE_SDK/GD32VW55x_RELEASE_V1.0.2/MSDK/wpa_supplicant/src/ap\wpa_auth_glue.c **** 		sa = wpa_auth_sta_get_pmksa(sta->wpa_sm);
 381:C:/Users/stapi/OneDrive/Desktop/GD32VW553/V1_MQTT_OK/GD32VW55X_Wifi_BLE_SDK/GD32VW55x_RELEASE_V1.0.2/MSDK/wpa_supplicant/src/ap\wpa_auth_glue.c **** 		if (sa && sa->akmp == WPA_KEY_MGMT_OWE) {
 382:C:/Users/stapi/OneDrive/Desktop/GD32VW553/V1_MQTT_OK/GD32VW55X_Wifi_BLE_SDK/GD32VW55x_RELEASE_V1.0.2/MSDK/wpa_supplicant/src/ap\wpa_auth_glue.c **** 			if (psk_len)
 383:C:/Users/stapi/OneDrive/Desktop/GD32VW553/V1_MQTT_OK/GD32VW55X_Wifi_BLE_SDK/GD32VW55x_RELEASE_V1.0.2/MSDK/wpa_supplicant/src/ap\wpa_auth_glue.c **** 				*psk_len = sa->pmk_len;
 384:C:/Users/stapi/OneDrive/Desktop/GD32VW553/V1_MQTT_OK/GD32VW55X_Wifi_BLE_SDK/GD32VW55x_RELEASE_V1.0.2/MSDK/wpa_supplicant/src/ap\wpa_auth_glue.c **** 			return sa->pmk;
 385:C:/Users/stapi/OneDrive/Desktop/GD32VW553/V1_MQTT_OK/GD32VW55X_Wifi_BLE_SDK/GD32VW55x_RELEASE_V1.0.2/MSDK/wpa_supplicant/src/ap\wpa_auth_glue.c **** 		}
 386:C:/Users/stapi/OneDrive/Desktop/GD32VW553/V1_MQTT_OK/GD32VW55X_Wifi_BLE_SDK/GD32VW55x_RELEASE_V1.0.2/MSDK/wpa_supplicant/src/ap\wpa_auth_glue.c **** 	}
 387:C:/Users/stapi/OneDrive/Desktop/GD32VW553/V1_MQTT_OK/GD32VW55X_Wifi_BLE_SDK/GD32VW55x_RELEASE_V1.0.2/MSDK/wpa_supplicant/src/ap\wpa_auth_glue.c **** #endif /* CONFIG_OWE */
 388:C:/Users/stapi/OneDrive/Desktop/GD32VW553/V1_MQTT_OK/GD32VW55X_Wifi_BLE_SDK/GD32VW55x_RELEASE_V1.0.2/MSDK/wpa_supplicant/src/ap\wpa_auth_glue.c **** 
 389:C:/Users/stapi/OneDrive/Desktop/GD32VW553/V1_MQTT_OK/GD32VW55X_Wifi_BLE_SDK/GD32VW55x_RELEASE_V1.0.2/MSDK/wpa_supplicant/src/ap\wpa_auth_glue.c **** 	psk = hostapd_get_psk(hapd->conf, addr, p2p_dev_addr, prev_psk,
 390:C:/Users/stapi/OneDrive/Desktop/GD32VW553/V1_MQTT_OK/GD32VW55X_Wifi_BLE_SDK/GD32VW55x_RELEASE_V1.0.2/MSDK/wpa_supplicant/src/ap\wpa_auth_glue.c **** 			      vlan_id);
 391:C:/Users/stapi/OneDrive/Desktop/GD32VW553/V1_MQTT_OK/GD32VW55X_Wifi_BLE_SDK/GD32VW55x_RELEASE_V1.0.2/MSDK/wpa_supplicant/src/ap\wpa_auth_glue.c **** 	/*
 392:C:/Users/stapi/OneDrive/Desktop/GD32VW553/V1_MQTT_OK/GD32VW55X_Wifi_BLE_SDK/GD32VW55x_RELEASE_V1.0.2/MSDK/wpa_supplicant/src/ap\wpa_auth_glue.c **** 	 * This is about to iterate over all psks, prev_psk gives the last
 393:C:/Users/stapi/OneDrive/Desktop/GD32VW553/V1_MQTT_OK/GD32VW55X_Wifi_BLE_SDK/GD32VW55x_RELEASE_V1.0.2/MSDK/wpa_supplicant/src/ap\wpa_auth_glue.c **** 	 * returned psk which should not be returned again.
 394:C:/Users/stapi/OneDrive/Desktop/GD32VW553/V1_MQTT_OK/GD32VW55X_Wifi_BLE_SDK/GD32VW55x_RELEASE_V1.0.2/MSDK/wpa_supplicant/src/ap\wpa_auth_glue.c **** 	 * logic list (all hostapd_get_psk; all sta->psk)
 395:C:/Users/stapi/OneDrive/Desktop/GD32VW553/V1_MQTT_OK/GD32VW55X_Wifi_BLE_SDK/GD32VW55x_RELEASE_V1.0.2/MSDK/wpa_supplicant/src/ap\wpa_auth_glue.c **** 	 */
 396:C:/Users/stapi/OneDrive/Desktop/GD32VW553/V1_MQTT_OK/GD32VW55X_Wifi_BLE_SDK/GD32VW55x_RELEASE_V1.0.2/MSDK/wpa_supplicant/src/ap\wpa_auth_glue.c **** 	if (sta && sta->psk && !psk) {
 397:C:/Users/stapi/OneDrive/Desktop/GD32VW553/V1_MQTT_OK/GD32VW55X_Wifi_BLE_SDK/GD32VW55x_RELEASE_V1.0.2/MSDK/wpa_supplicant/src/ap\wpa_auth_glue.c **** 		struct hostapd_sta_wpa_psk_short *pos;
 398:C:/Users/stapi/OneDrive/Desktop/GD32VW553/V1_MQTT_OK/GD32VW55X_Wifi_BLE_SDK/GD32VW55x_RELEASE_V1.0.2/MSDK/wpa_supplicant/src/ap\wpa_auth_glue.c **** 
 399:C:/Users/stapi/OneDrive/Desktop/GD32VW553/V1_MQTT_OK/GD32VW55X_Wifi_BLE_SDK/GD32VW55x_RELEASE_V1.0.2/MSDK/wpa_supplicant/src/ap\wpa_auth_glue.c **** 		if (vlan_id)
 400:C:/Users/stapi/OneDrive/Desktop/GD32VW553/V1_MQTT_OK/GD32VW55X_Wifi_BLE_SDK/GD32VW55x_RELEASE_V1.0.2/MSDK/wpa_supplicant/src/ap\wpa_auth_glue.c **** 			*vlan_id = 0;
 401:C:/Users/stapi/OneDrive/Desktop/GD32VW553/V1_MQTT_OK/GD32VW55X_Wifi_BLE_SDK/GD32VW55x_RELEASE_V1.0.2/MSDK/wpa_supplicant/src/ap\wpa_auth_glue.c **** 		psk = sta->psk->psk;
 402:C:/Users/stapi/OneDrive/Desktop/GD32VW553/V1_MQTT_OK/GD32VW55X_Wifi_BLE_SDK/GD32VW55x_RELEASE_V1.0.2/MSDK/wpa_supplicant/src/ap\wpa_auth_glue.c **** 		for (pos = sta->psk; pos; pos = pos->next) {
 403:C:/Users/stapi/OneDrive/Desktop/GD32VW553/V1_MQTT_OK/GD32VW55X_Wifi_BLE_SDK/GD32VW55x_RELEASE_V1.0.2/MSDK/wpa_supplicant/src/ap\wpa_auth_glue.c **** 			if (pos->is_passphrase) {
 404:C:/Users/stapi/OneDrive/Desktop/GD32VW553/V1_MQTT_OK/GD32VW55X_Wifi_BLE_SDK/GD32VW55x_RELEASE_V1.0.2/MSDK/wpa_supplicant/src/ap\wpa_auth_glue.c **** 				pbkdf2_sha1(pos->passphrase,
 405:C:/Users/stapi/OneDrive/Desktop/GD32VW553/V1_MQTT_OK/GD32VW55X_Wifi_BLE_SDK/GD32VW55x_RELEASE_V1.0.2/MSDK/wpa_supplicant/src/ap\wpa_auth_glue.c **** 					    hapd->conf->ssid.ssid,
 406:C:/Users/stapi/OneDrive/Desktop/GD32VW553/V1_MQTT_OK/GD32VW55X_Wifi_BLE_SDK/GD32VW55x_RELEASE_V1.0.2/MSDK/wpa_supplicant/src/ap\wpa_auth_glue.c **** 					    hapd->conf->ssid.ssid_len, 4096,
 407:C:/Users/stapi/OneDrive/Desktop/GD32VW553/V1_MQTT_OK/GD32VW55X_Wifi_BLE_SDK/GD32VW55x_RELEASE_V1.0.2/MSDK/wpa_supplicant/src/ap\wpa_auth_glue.c **** 					    pos->psk, PMK_LEN);
 408:C:/Users/stapi/OneDrive/Desktop/GD32VW553/V1_MQTT_OK/GD32VW55X_Wifi_BLE_SDK/GD32VW55x_RELEASE_V1.0.2/MSDK/wpa_supplicant/src/ap\wpa_auth_glue.c **** 				pos->is_passphrase = 0;
 409:C:/Users/stapi/OneDrive/Desktop/GD32VW553/V1_MQTT_OK/GD32VW55X_Wifi_BLE_SDK/GD32VW55x_RELEASE_V1.0.2/MSDK/wpa_supplicant/src/ap\wpa_auth_glue.c **** 			}
 410:C:/Users/stapi/OneDrive/Desktop/GD32VW553/V1_MQTT_OK/GD32VW55X_Wifi_BLE_SDK/GD32VW55x_RELEASE_V1.0.2/MSDK/wpa_supplicant/src/ap\wpa_auth_glue.c **** 			if (pos->psk == prev_psk) {
 411:C:/Users/stapi/OneDrive/Desktop/GD32VW553/V1_MQTT_OK/GD32VW55X_Wifi_BLE_SDK/GD32VW55x_RELEASE_V1.0.2/MSDK/wpa_supplicant/src/ap\wpa_auth_glue.c **** 				psk = pos->next ? pos->next->psk : NULL;
 412:C:/Users/stapi/OneDrive/Desktop/GD32VW553/V1_MQTT_OK/GD32VW55X_Wifi_BLE_SDK/GD32VW55x_RELEASE_V1.0.2/MSDK/wpa_supplicant/src/ap\wpa_auth_glue.c **** 				break;
 413:C:/Users/stapi/OneDrive/Desktop/GD32VW553/V1_MQTT_OK/GD32VW55X_Wifi_BLE_SDK/GD32VW55x_RELEASE_V1.0.2/MSDK/wpa_supplicant/src/ap\wpa_auth_glue.c **** 			}
 414:C:/Users/stapi/OneDrive/Desktop/GD32VW553/V1_MQTT_OK/GD32VW55X_Wifi_BLE_SDK/GD32VW55x_RELEASE_V1.0.2/MSDK/wpa_supplicant/src/ap\wpa_auth_glue.c **** 		}
 415:C:/Users/stapi/OneDrive/Desktop/GD32VW553/V1_MQTT_OK/GD32VW55X_Wifi_BLE_SDK/GD32VW55x_RELEASE_V1.0.2/MSDK/wpa_supplicant/src/ap\wpa_auth_glue.c **** 	}
 416:C:/Users/stapi/OneDrive/Desktop/GD32VW553/V1_MQTT_OK/GD32VW55X_Wifi_BLE_SDK/GD32VW55x_RELEASE_V1.0.2/MSDK/wpa_supplicant/src/ap\wpa_auth_glue.c **** 	return psk;
 417:C:/Users/stapi/OneDrive/Desktop/GD32VW553/V1_MQTT_OK/GD32VW55X_Wifi_BLE_SDK/GD32VW55x_RELEASE_V1.0.2/MSDK/wpa_supplicant/src/ap\wpa_auth_glue.c **** }
 418:C:/Users/stapi/OneDrive/Desktop/GD32VW553/V1_MQTT_OK/GD32VW55X_Wifi_BLE_SDK/GD32VW55x_RELEASE_V1.0.2/MSDK/wpa_supplicant/src/ap\wpa_auth_glue.c **** 
 419:C:/Users/stapi/OneDrive/Desktop/GD32VW553/V1_MQTT_OK/GD32VW55X_Wifi_BLE_SDK/GD32VW55x_RELEASE_V1.0.2/MSDK/wpa_supplicant/src/ap\wpa_auth_glue.c **** 
 420:C:/Users/stapi/OneDrive/Desktop/GD32VW553/V1_MQTT_OK/GD32VW55X_Wifi_BLE_SDK/GD32VW55x_RELEASE_V1.0.2/MSDK/wpa_supplicant/src/ap\wpa_auth_glue.c **** static int hostapd_wpa_auth_get_msk(void *ctx, const u8 *addr, u8 *msk,
 421:C:/Users/stapi/OneDrive/Desktop/GD32VW553/V1_MQTT_OK/GD32VW55X_Wifi_BLE_SDK/GD32VW55x_RELEASE_V1.0.2/MSDK/wpa_supplicant/src/ap\wpa_auth_glue.c **** 				    size_t *len)
 422:C:/Users/stapi/OneDrive/Desktop/GD32VW553/V1_MQTT_OK/GD32VW55X_Wifi_BLE_SDK/GD32VW55x_RELEASE_V1.0.2/MSDK/wpa_supplicant/src/ap\wpa_auth_glue.c **** {
 423:C:/Users/stapi/OneDrive/Desktop/GD32VW553/V1_MQTT_OK/GD32VW55X_Wifi_BLE_SDK/GD32VW55x_RELEASE_V1.0.2/MSDK/wpa_supplicant/src/ap\wpa_auth_glue.c **** 	struct hostapd_data *hapd = ctx;
 424:C:/Users/stapi/OneDrive/Desktop/GD32VW553/V1_MQTT_OK/GD32VW55X_Wifi_BLE_SDK/GD32VW55x_RELEASE_V1.0.2/MSDK/wpa_supplicant/src/ap\wpa_auth_glue.c **** 	const u8 *key;
 425:C:/Users/stapi/OneDrive/Desktop/GD32VW553/V1_MQTT_OK/GD32VW55X_Wifi_BLE_SDK/GD32VW55x_RELEASE_V1.0.2/MSDK/wpa_supplicant/src/ap\wpa_auth_glue.c **** 	size_t keylen;
 426:C:/Users/stapi/OneDrive/Desktop/GD32VW553/V1_MQTT_OK/GD32VW55X_Wifi_BLE_SDK/GD32VW55x_RELEASE_V1.0.2/MSDK/wpa_supplicant/src/ap\wpa_auth_glue.c **** 	struct sta_info *sta;
 427:C:/Users/stapi/OneDrive/Desktop/GD32VW553/V1_MQTT_OK/GD32VW55X_Wifi_BLE_SDK/GD32VW55x_RELEASE_V1.0.2/MSDK/wpa_supplicant/src/ap\wpa_auth_glue.c **** 
 428:C:/Users/stapi/OneDrive/Desktop/GD32VW553/V1_MQTT_OK/GD32VW55X_Wifi_BLE_SDK/GD32VW55x_RELEASE_V1.0.2/MSDK/wpa_supplicant/src/ap\wpa_auth_glue.c **** 	sta = ap_get_sta(hapd, addr);
 429:C:/Users/stapi/OneDrive/Desktop/GD32VW553/V1_MQTT_OK/GD32VW55X_Wifi_BLE_SDK/GD32VW55x_RELEASE_V1.0.2/MSDK/wpa_supplicant/src/ap\wpa_auth_glue.c **** 	if (sta == NULL) {
 430:C:/Users/stapi/OneDrive/Desktop/GD32VW553/V1_MQTT_OK/GD32VW55X_Wifi_BLE_SDK/GD32VW55x_RELEASE_V1.0.2/MSDK/wpa_supplicant/src/ap\wpa_auth_glue.c **** 		wpa_printf(MSG_DEBUG, "AUTH_GET_MSK: Cannot find STA");
 431:C:/Users/stapi/OneDrive/Desktop/GD32VW553/V1_MQTT_OK/GD32VW55X_Wifi_BLE_SDK/GD32VW55x_RELEASE_V1.0.2/MSDK/wpa_supplicant/src/ap\wpa_auth_glue.c **** 		return -1;
 432:C:/Users/stapi/OneDrive/Desktop/GD32VW553/V1_MQTT_OK/GD32VW55X_Wifi_BLE_SDK/GD32VW55x_RELEASE_V1.0.2/MSDK/wpa_supplicant/src/ap\wpa_auth_glue.c **** 	}
 433:C:/Users/stapi/OneDrive/Desktop/GD32VW553/V1_MQTT_OK/GD32VW55X_Wifi_BLE_SDK/GD32VW55x_RELEASE_V1.0.2/MSDK/wpa_supplicant/src/ap\wpa_auth_glue.c **** 
 434:C:/Users/stapi/OneDrive/Desktop/GD32VW553/V1_MQTT_OK/GD32VW55X_Wifi_BLE_SDK/GD32VW55x_RELEASE_V1.0.2/MSDK/wpa_supplicant/src/ap\wpa_auth_glue.c **** 	key = ieee802_1x_get_key(sta->eapol_sm, &keylen);
 435:C:/Users/stapi/OneDrive/Desktop/GD32VW553/V1_MQTT_OK/GD32VW55X_Wifi_BLE_SDK/GD32VW55x_RELEASE_V1.0.2/MSDK/wpa_supplicant/src/ap\wpa_auth_glue.c **** 	if (key == NULL) {
 436:C:/Users/stapi/OneDrive/Desktop/GD32VW553/V1_MQTT_OK/GD32VW55X_Wifi_BLE_SDK/GD32VW55x_RELEASE_V1.0.2/MSDK/wpa_supplicant/src/ap\wpa_auth_glue.c **** 		wpa_printf(MSG_DEBUG, "AUTH_GET_MSK: Key is null, eapol_sm: %p",
 437:C:/Users/stapi/OneDrive/Desktop/GD32VW553/V1_MQTT_OK/GD32VW55X_Wifi_BLE_SDK/GD32VW55x_RELEASE_V1.0.2/MSDK/wpa_supplicant/src/ap\wpa_auth_glue.c **** 			   sta->eapol_sm);
 438:C:/Users/stapi/OneDrive/Desktop/GD32VW553/V1_MQTT_OK/GD32VW55X_Wifi_BLE_SDK/GD32VW55x_RELEASE_V1.0.2/MSDK/wpa_supplicant/src/ap\wpa_auth_glue.c **** 		return -1;
 439:C:/Users/stapi/OneDrive/Desktop/GD32VW553/V1_MQTT_OK/GD32VW55X_Wifi_BLE_SDK/GD32VW55x_RELEASE_V1.0.2/MSDK/wpa_supplicant/src/ap\wpa_auth_glue.c **** 	}
 440:C:/Users/stapi/OneDrive/Desktop/GD32VW553/V1_MQTT_OK/GD32VW55X_Wifi_BLE_SDK/GD32VW55x_RELEASE_V1.0.2/MSDK/wpa_supplicant/src/ap\wpa_auth_glue.c **** 
 441:C:/Users/stapi/OneDrive/Desktop/GD32VW553/V1_MQTT_OK/GD32VW55X_Wifi_BLE_SDK/GD32VW55x_RELEASE_V1.0.2/MSDK/wpa_supplicant/src/ap\wpa_auth_glue.c **** 	if (keylen > *len)
 442:C:/Users/stapi/OneDrive/Desktop/GD32VW553/V1_MQTT_OK/GD32VW55X_Wifi_BLE_SDK/GD32VW55x_RELEASE_V1.0.2/MSDK/wpa_supplicant/src/ap\wpa_auth_glue.c **** 		keylen = *len;
 443:C:/Users/stapi/OneDrive/Desktop/GD32VW553/V1_MQTT_OK/GD32VW55X_Wifi_BLE_SDK/GD32VW55x_RELEASE_V1.0.2/MSDK/wpa_supplicant/src/ap\wpa_auth_glue.c **** 	os_memcpy(msk, key, keylen);
 444:C:/Users/stapi/OneDrive/Desktop/GD32VW553/V1_MQTT_OK/GD32VW55X_Wifi_BLE_SDK/GD32VW55x_RELEASE_V1.0.2/MSDK/wpa_supplicant/src/ap\wpa_auth_glue.c **** 	*len = keylen;
 445:C:/Users/stapi/OneDrive/Desktop/GD32VW553/V1_MQTT_OK/GD32VW55X_Wifi_BLE_SDK/GD32VW55x_RELEASE_V1.0.2/MSDK/wpa_supplicant/src/ap\wpa_auth_glue.c **** 
 446:C:/Users/stapi/OneDrive/Desktop/GD32VW553/V1_MQTT_OK/GD32VW55X_Wifi_BLE_SDK/GD32VW55x_RELEASE_V1.0.2/MSDK/wpa_supplicant/src/ap\wpa_auth_glue.c **** 	return 0;
 447:C:/Users/stapi/OneDrive/Desktop/GD32VW553/V1_MQTT_OK/GD32VW55X_Wifi_BLE_SDK/GD32VW55x_RELEASE_V1.0.2/MSDK/wpa_supplicant/src/ap\wpa_auth_glue.c **** }
 448:C:/Users/stapi/OneDrive/Desktop/GD32VW553/V1_MQTT_OK/GD32VW55X_Wifi_BLE_SDK/GD32VW55x_RELEASE_V1.0.2/MSDK/wpa_supplicant/src/ap\wpa_auth_glue.c **** 
 449:C:/Users/stapi/OneDrive/Desktop/GD32VW553/V1_MQTT_OK/GD32VW55X_Wifi_BLE_SDK/GD32VW55x_RELEASE_V1.0.2/MSDK/wpa_supplicant/src/ap\wpa_auth_glue.c **** 
 450:C:/Users/stapi/OneDrive/Desktop/GD32VW553/V1_MQTT_OK/GD32VW55X_Wifi_BLE_SDK/GD32VW55x_RELEASE_V1.0.2/MSDK/wpa_supplicant/src/ap\wpa_auth_glue.c **** static int hostapd_wpa_auth_set_key(void *ctx, int vlan_id, enum wpa_alg alg,
 451:C:/Users/stapi/OneDrive/Desktop/GD32VW553/V1_MQTT_OK/GD32VW55X_Wifi_BLE_SDK/GD32VW55x_RELEASE_V1.0.2/MSDK/wpa_supplicant/src/ap\wpa_auth_glue.c **** 				    const u8 *addr, int idx, u8 *key,
 452:C:/Users/stapi/OneDrive/Desktop/GD32VW553/V1_MQTT_OK/GD32VW55X_Wifi_BLE_SDK/GD32VW55x_RELEASE_V1.0.2/MSDK/wpa_supplicant/src/ap\wpa_auth_glue.c **** 				    size_t key_len, enum key_flag key_flag)
 453:C:/Users/stapi/OneDrive/Desktop/GD32VW553/V1_MQTT_OK/GD32VW55X_Wifi_BLE_SDK/GD32VW55x_RELEASE_V1.0.2/MSDK/wpa_supplicant/src/ap\wpa_auth_glue.c **** {
 454:C:/Users/stapi/OneDrive/Desktop/GD32VW553/V1_MQTT_OK/GD32VW55X_Wifi_BLE_SDK/GD32VW55x_RELEASE_V1.0.2/MSDK/wpa_supplicant/src/ap\wpa_auth_glue.c **** 	struct hostapd_data *hapd = ctx;
 455:C:/Users/stapi/OneDrive/Desktop/GD32VW553/V1_MQTT_OK/GD32VW55X_Wifi_BLE_SDK/GD32VW55x_RELEASE_V1.0.2/MSDK/wpa_supplicant/src/ap\wpa_auth_glue.c **** 	const char *ifname = hapd->conf->iface;
 456:C:/Users/stapi/OneDrive/Desktop/GD32VW553/V1_MQTT_OK/GD32VW55X_Wifi_BLE_SDK/GD32VW55x_RELEASE_V1.0.2/MSDK/wpa_supplicant/src/ap\wpa_auth_glue.c **** 
 457:C:/Users/stapi/OneDrive/Desktop/GD32VW553/V1_MQTT_OK/GD32VW55X_Wifi_BLE_SDK/GD32VW55x_RELEASE_V1.0.2/MSDK/wpa_supplicant/src/ap\wpa_auth_glue.c **** 	if (vlan_id > 0) {
 458:C:/Users/stapi/OneDrive/Desktop/GD32VW553/V1_MQTT_OK/GD32VW55X_Wifi_BLE_SDK/GD32VW55x_RELEASE_V1.0.2/MSDK/wpa_supplicant/src/ap\wpa_auth_glue.c **** 		ifname = hostapd_get_vlan_id_ifname(hapd->conf->vlan, vlan_id);
 459:C:/Users/stapi/OneDrive/Desktop/GD32VW553/V1_MQTT_OK/GD32VW55X_Wifi_BLE_SDK/GD32VW55x_RELEASE_V1.0.2/MSDK/wpa_supplicant/src/ap\wpa_auth_glue.c **** 		if (!ifname) {
 460:C:/Users/stapi/OneDrive/Desktop/GD32VW553/V1_MQTT_OK/GD32VW55X_Wifi_BLE_SDK/GD32VW55x_RELEASE_V1.0.2/MSDK/wpa_supplicant/src/ap\wpa_auth_glue.c **** 			if (!(hapd->iface->drv_flags &
 461:C:/Users/stapi/OneDrive/Desktop/GD32VW553/V1_MQTT_OK/GD32VW55X_Wifi_BLE_SDK/GD32VW55x_RELEASE_V1.0.2/MSDK/wpa_supplicant/src/ap\wpa_auth_glue.c **** 			      WPA_DRIVER_FLAGS_VLAN_OFFLOAD))
 462:C:/Users/stapi/OneDrive/Desktop/GD32VW553/V1_MQTT_OK/GD32VW55X_Wifi_BLE_SDK/GD32VW55x_RELEASE_V1.0.2/MSDK/wpa_supplicant/src/ap\wpa_auth_glue.c **** 				return -1;
 463:C:/Users/stapi/OneDrive/Desktop/GD32VW553/V1_MQTT_OK/GD32VW55X_Wifi_BLE_SDK/GD32VW55x_RELEASE_V1.0.2/MSDK/wpa_supplicant/src/ap\wpa_auth_glue.c **** 			ifname = hapd->conf->iface;
 464:C:/Users/stapi/OneDrive/Desktop/GD32VW553/V1_MQTT_OK/GD32VW55X_Wifi_BLE_SDK/GD32VW55x_RELEASE_V1.0.2/MSDK/wpa_supplicant/src/ap\wpa_auth_glue.c **** 		}
 465:C:/Users/stapi/OneDrive/Desktop/GD32VW553/V1_MQTT_OK/GD32VW55X_Wifi_BLE_SDK/GD32VW55x_RELEASE_V1.0.2/MSDK/wpa_supplicant/src/ap\wpa_auth_glue.c **** 	}
 466:C:/Users/stapi/OneDrive/Desktop/GD32VW553/V1_MQTT_OK/GD32VW55X_Wifi_BLE_SDK/GD32VW55x_RELEASE_V1.0.2/MSDK/wpa_supplicant/src/ap\wpa_auth_glue.c **** 
 467:C:/Users/stapi/OneDrive/Desktop/GD32VW553/V1_MQTT_OK/GD32VW55X_Wifi_BLE_SDK/GD32VW55x_RELEASE_V1.0.2/MSDK/wpa_supplicant/src/ap\wpa_auth_glue.c **** #ifdef CONFIG_TESTING_OPTIONS
 468:C:/Users/stapi/OneDrive/Desktop/GD32VW553/V1_MQTT_OK/GD32VW55X_Wifi_BLE_SDK/GD32VW55x_RELEASE_V1.0.2/MSDK/wpa_supplicant/src/ap\wpa_auth_glue.c **** 	if (key_flag & KEY_FLAG_MODIFY) {
 469:C:/Users/stapi/OneDrive/Desktop/GD32VW553/V1_MQTT_OK/GD32VW55X_Wifi_BLE_SDK/GD32VW55x_RELEASE_V1.0.2/MSDK/wpa_supplicant/src/ap\wpa_auth_glue.c **** 		/* We are updating an already installed key. Don't overwrite
 470:C:/Users/stapi/OneDrive/Desktop/GD32VW553/V1_MQTT_OK/GD32VW55X_Wifi_BLE_SDK/GD32VW55x_RELEASE_V1.0.2/MSDK/wpa_supplicant/src/ap\wpa_auth_glue.c **** 		 * the already stored key information with zeros.
 471:C:/Users/stapi/OneDrive/Desktop/GD32VW553/V1_MQTT_OK/GD32VW55X_Wifi_BLE_SDK/GD32VW55x_RELEASE_V1.0.2/MSDK/wpa_supplicant/src/ap\wpa_auth_glue.c **** 		 */
 472:C:/Users/stapi/OneDrive/Desktop/GD32VW553/V1_MQTT_OK/GD32VW55X_Wifi_BLE_SDK/GD32VW55x_RELEASE_V1.0.2/MSDK/wpa_supplicant/src/ap\wpa_auth_glue.c **** 	} else if (addr && !is_broadcast_ether_addr(addr)) {
 473:C:/Users/stapi/OneDrive/Desktop/GD32VW553/V1_MQTT_OK/GD32VW55X_Wifi_BLE_SDK/GD32VW55x_RELEASE_V1.0.2/MSDK/wpa_supplicant/src/ap\wpa_auth_glue.c **** 		struct sta_info *sta;
 474:C:/Users/stapi/OneDrive/Desktop/GD32VW553/V1_MQTT_OK/GD32VW55X_Wifi_BLE_SDK/GD32VW55x_RELEASE_V1.0.2/MSDK/wpa_supplicant/src/ap\wpa_auth_glue.c **** 
 475:C:/Users/stapi/OneDrive/Desktop/GD32VW553/V1_MQTT_OK/GD32VW55X_Wifi_BLE_SDK/GD32VW55x_RELEASE_V1.0.2/MSDK/wpa_supplicant/src/ap\wpa_auth_glue.c **** 		sta = ap_get_sta(hapd, addr);
 476:C:/Users/stapi/OneDrive/Desktop/GD32VW553/V1_MQTT_OK/GD32VW55X_Wifi_BLE_SDK/GD32VW55x_RELEASE_V1.0.2/MSDK/wpa_supplicant/src/ap\wpa_auth_glue.c **** 		if (sta) {
 477:C:/Users/stapi/OneDrive/Desktop/GD32VW553/V1_MQTT_OK/GD32VW55X_Wifi_BLE_SDK/GD32VW55x_RELEASE_V1.0.2/MSDK/wpa_supplicant/src/ap\wpa_auth_glue.c **** 			sta->last_tk_alg = alg;
 478:C:/Users/stapi/OneDrive/Desktop/GD32VW553/V1_MQTT_OK/GD32VW55X_Wifi_BLE_SDK/GD32VW55x_RELEASE_V1.0.2/MSDK/wpa_supplicant/src/ap\wpa_auth_glue.c **** 			sta->last_tk_key_idx = idx;
 479:C:/Users/stapi/OneDrive/Desktop/GD32VW553/V1_MQTT_OK/GD32VW55X_Wifi_BLE_SDK/GD32VW55x_RELEASE_V1.0.2/MSDK/wpa_supplicant/src/ap\wpa_auth_glue.c **** 			if (key)
 480:C:/Users/stapi/OneDrive/Desktop/GD32VW553/V1_MQTT_OK/GD32VW55X_Wifi_BLE_SDK/GD32VW55x_RELEASE_V1.0.2/MSDK/wpa_supplicant/src/ap\wpa_auth_glue.c **** 				os_memcpy(sta->last_tk, key, key_len);
 481:C:/Users/stapi/OneDrive/Desktop/GD32VW553/V1_MQTT_OK/GD32VW55X_Wifi_BLE_SDK/GD32VW55x_RELEASE_V1.0.2/MSDK/wpa_supplicant/src/ap\wpa_auth_glue.c **** 			sta->last_tk_len = key_len;
 482:C:/Users/stapi/OneDrive/Desktop/GD32VW553/V1_MQTT_OK/GD32VW55X_Wifi_BLE_SDK/GD32VW55x_RELEASE_V1.0.2/MSDK/wpa_supplicant/src/ap\wpa_auth_glue.c **** 		}
 483:C:/Users/stapi/OneDrive/Desktop/GD32VW553/V1_MQTT_OK/GD32VW55X_Wifi_BLE_SDK/GD32VW55x_RELEASE_V1.0.2/MSDK/wpa_supplicant/src/ap\wpa_auth_glue.c **** 	} else if (alg == WPA_ALG_BIP_CMAC_128 ||
 484:C:/Users/stapi/OneDrive/Desktop/GD32VW553/V1_MQTT_OK/GD32VW55X_Wifi_BLE_SDK/GD32VW55x_RELEASE_V1.0.2/MSDK/wpa_supplicant/src/ap\wpa_auth_glue.c **** 		   alg == WPA_ALG_BIP_GMAC_128 ||
 485:C:/Users/stapi/OneDrive/Desktop/GD32VW553/V1_MQTT_OK/GD32VW55X_Wifi_BLE_SDK/GD32VW55x_RELEASE_V1.0.2/MSDK/wpa_supplicant/src/ap\wpa_auth_glue.c **** 		   alg == WPA_ALG_BIP_GMAC_256 ||
 486:C:/Users/stapi/OneDrive/Desktop/GD32VW553/V1_MQTT_OK/GD32VW55X_Wifi_BLE_SDK/GD32VW55x_RELEASE_V1.0.2/MSDK/wpa_supplicant/src/ap\wpa_auth_glue.c **** 		   alg == WPA_ALG_BIP_CMAC_256) {
 487:C:/Users/stapi/OneDrive/Desktop/GD32VW553/V1_MQTT_OK/GD32VW55X_Wifi_BLE_SDK/GD32VW55x_RELEASE_V1.0.2/MSDK/wpa_supplicant/src/ap\wpa_auth_glue.c **** 		if (idx == 4 || idx == 5) {
 488:C:/Users/stapi/OneDrive/Desktop/GD32VW553/V1_MQTT_OK/GD32VW55X_Wifi_BLE_SDK/GD32VW55x_RELEASE_V1.0.2/MSDK/wpa_supplicant/src/ap\wpa_auth_glue.c **** 			hapd->last_igtk_alg = alg;
 489:C:/Users/stapi/OneDrive/Desktop/GD32VW553/V1_MQTT_OK/GD32VW55X_Wifi_BLE_SDK/GD32VW55x_RELEASE_V1.0.2/MSDK/wpa_supplicant/src/ap\wpa_auth_glue.c **** 			hapd->last_igtk_key_idx = idx;
 490:C:/Users/stapi/OneDrive/Desktop/GD32VW553/V1_MQTT_OK/GD32VW55X_Wifi_BLE_SDK/GD32VW55x_RELEASE_V1.0.2/MSDK/wpa_supplicant/src/ap\wpa_auth_glue.c **** 			if (key)
 491:C:/Users/stapi/OneDrive/Desktop/GD32VW553/V1_MQTT_OK/GD32VW55X_Wifi_BLE_SDK/GD32VW55x_RELEASE_V1.0.2/MSDK/wpa_supplicant/src/ap\wpa_auth_glue.c **** 				os_memcpy(hapd->last_igtk, key, key_len);
 492:C:/Users/stapi/OneDrive/Desktop/GD32VW553/V1_MQTT_OK/GD32VW55X_Wifi_BLE_SDK/GD32VW55x_RELEASE_V1.0.2/MSDK/wpa_supplicant/src/ap\wpa_auth_glue.c **** 			hapd->last_igtk_len = key_len;
 493:C:/Users/stapi/OneDrive/Desktop/GD32VW553/V1_MQTT_OK/GD32VW55X_Wifi_BLE_SDK/GD32VW55x_RELEASE_V1.0.2/MSDK/wpa_supplicant/src/ap\wpa_auth_glue.c **** 		} else if (idx == 6 || idx == 7) {
 494:C:/Users/stapi/OneDrive/Desktop/GD32VW553/V1_MQTT_OK/GD32VW55X_Wifi_BLE_SDK/GD32VW55x_RELEASE_V1.0.2/MSDK/wpa_supplicant/src/ap\wpa_auth_glue.c **** 			hapd->last_bigtk_alg = alg;
 495:C:/Users/stapi/OneDrive/Desktop/GD32VW553/V1_MQTT_OK/GD32VW55X_Wifi_BLE_SDK/GD32VW55x_RELEASE_V1.0.2/MSDK/wpa_supplicant/src/ap\wpa_auth_glue.c **** 			hapd->last_bigtk_key_idx = idx;
 496:C:/Users/stapi/OneDrive/Desktop/GD32VW553/V1_MQTT_OK/GD32VW55X_Wifi_BLE_SDK/GD32VW55x_RELEASE_V1.0.2/MSDK/wpa_supplicant/src/ap\wpa_auth_glue.c **** 			if (key)
 497:C:/Users/stapi/OneDrive/Desktop/GD32VW553/V1_MQTT_OK/GD32VW55X_Wifi_BLE_SDK/GD32VW55x_RELEASE_V1.0.2/MSDK/wpa_supplicant/src/ap\wpa_auth_glue.c **** 				os_memcpy(hapd->last_bigtk, key, key_len);
 498:C:/Users/stapi/OneDrive/Desktop/GD32VW553/V1_MQTT_OK/GD32VW55X_Wifi_BLE_SDK/GD32VW55x_RELEASE_V1.0.2/MSDK/wpa_supplicant/src/ap\wpa_auth_glue.c **** 			hapd->last_bigtk_len = key_len;
 499:C:/Users/stapi/OneDrive/Desktop/GD32VW553/V1_MQTT_OK/GD32VW55X_Wifi_BLE_SDK/GD32VW55x_RELEASE_V1.0.2/MSDK/wpa_supplicant/src/ap\wpa_auth_glue.c **** 		}
 500:C:/Users/stapi/OneDrive/Desktop/GD32VW553/V1_MQTT_OK/GD32VW55X_Wifi_BLE_SDK/GD32VW55x_RELEASE_V1.0.2/MSDK/wpa_supplicant/src/ap\wpa_auth_glue.c **** 	} else {
 501:C:/Users/stapi/OneDrive/Desktop/GD32VW553/V1_MQTT_OK/GD32VW55X_Wifi_BLE_SDK/GD32VW55x_RELEASE_V1.0.2/MSDK/wpa_supplicant/src/ap\wpa_auth_glue.c **** 		hapd->last_gtk_alg = alg;
 502:C:/Users/stapi/OneDrive/Desktop/GD32VW553/V1_MQTT_OK/GD32VW55X_Wifi_BLE_SDK/GD32VW55x_RELEASE_V1.0.2/MSDK/wpa_supplicant/src/ap\wpa_auth_glue.c **** 		hapd->last_gtk_key_idx = idx;
 503:C:/Users/stapi/OneDrive/Desktop/GD32VW553/V1_MQTT_OK/GD32VW55X_Wifi_BLE_SDK/GD32VW55x_RELEASE_V1.0.2/MSDK/wpa_supplicant/src/ap\wpa_auth_glue.c **** 		if (key)
 504:C:/Users/stapi/OneDrive/Desktop/GD32VW553/V1_MQTT_OK/GD32VW55X_Wifi_BLE_SDK/GD32VW55x_RELEASE_V1.0.2/MSDK/wpa_supplicant/src/ap\wpa_auth_glue.c **** 			os_memcpy(hapd->last_gtk, key, key_len);
 505:C:/Users/stapi/OneDrive/Desktop/GD32VW553/V1_MQTT_OK/GD32VW55X_Wifi_BLE_SDK/GD32VW55x_RELEASE_V1.0.2/MSDK/wpa_supplicant/src/ap\wpa_auth_glue.c **** 		hapd->last_gtk_len = key_len;
 506:C:/Users/stapi/OneDrive/Desktop/GD32VW553/V1_MQTT_OK/GD32VW55X_Wifi_BLE_SDK/GD32VW55x_RELEASE_V1.0.2/MSDK/wpa_supplicant/src/ap\wpa_auth_glue.c **** 	}
 507:C:/Users/stapi/OneDrive/Desktop/GD32VW553/V1_MQTT_OK/GD32VW55X_Wifi_BLE_SDK/GD32VW55x_RELEASE_V1.0.2/MSDK/wpa_supplicant/src/ap\wpa_auth_glue.c **** #endif /* CONFIG_TESTING_OPTIONS */
 508:C:/Users/stapi/OneDrive/Desktop/GD32VW553/V1_MQTT_OK/GD32VW55X_Wifi_BLE_SDK/GD32VW55x_RELEASE_V1.0.2/MSDK/wpa_supplicant/src/ap\wpa_auth_glue.c **** 	return hostapd_drv_set_key(ifname, hapd, alg, addr, idx, vlan_id, 1,
 509:C:/Users/stapi/OneDrive/Desktop/GD32VW553/V1_MQTT_OK/GD32VW55X_Wifi_BLE_SDK/GD32VW55x_RELEASE_V1.0.2/MSDK/wpa_supplicant/src/ap\wpa_auth_glue.c **** 				   NULL, 0, key, key_len, key_flag);
 510:C:/Users/stapi/OneDrive/Desktop/GD32VW553/V1_MQTT_OK/GD32VW55X_Wifi_BLE_SDK/GD32VW55x_RELEASE_V1.0.2/MSDK/wpa_supplicant/src/ap\wpa_auth_glue.c **** }
 511:C:/Users/stapi/OneDrive/Desktop/GD32VW553/V1_MQTT_OK/GD32VW55X_Wifi_BLE_SDK/GD32VW55x_RELEASE_V1.0.2/MSDK/wpa_supplicant/src/ap\wpa_auth_glue.c **** 
 512:C:/Users/stapi/OneDrive/Desktop/GD32VW553/V1_MQTT_OK/GD32VW55X_Wifi_BLE_SDK/GD32VW55x_RELEASE_V1.0.2/MSDK/wpa_supplicant/src/ap\wpa_auth_glue.c **** 
 513:C:/Users/stapi/OneDrive/Desktop/GD32VW553/V1_MQTT_OK/GD32VW55X_Wifi_BLE_SDK/GD32VW55x_RELEASE_V1.0.2/MSDK/wpa_supplicant/src/ap\wpa_auth_glue.c **** static int hostapd_wpa_auth_get_seqnum(void *ctx, const u8 *addr, int idx,
 514:C:/Users/stapi/OneDrive/Desktop/GD32VW553/V1_MQTT_OK/GD32VW55X_Wifi_BLE_SDK/GD32VW55x_RELEASE_V1.0.2/MSDK/wpa_supplicant/src/ap\wpa_auth_glue.c **** 				       u8 *seq)
 515:C:/Users/stapi/OneDrive/Desktop/GD32VW553/V1_MQTT_OK/GD32VW55X_Wifi_BLE_SDK/GD32VW55x_RELEASE_V1.0.2/MSDK/wpa_supplicant/src/ap\wpa_auth_glue.c **** {
 516:C:/Users/stapi/OneDrive/Desktop/GD32VW553/V1_MQTT_OK/GD32VW55X_Wifi_BLE_SDK/GD32VW55x_RELEASE_V1.0.2/MSDK/wpa_supplicant/src/ap\wpa_auth_glue.c **** 	struct hostapd_data *hapd = ctx;
 517:C:/Users/stapi/OneDrive/Desktop/GD32VW553/V1_MQTT_OK/GD32VW55X_Wifi_BLE_SDK/GD32VW55x_RELEASE_V1.0.2/MSDK/wpa_supplicant/src/ap\wpa_auth_glue.c **** 	return hostapd_get_seqnum(hapd->conf->iface, hapd, addr, idx, seq);
 518:C:/Users/stapi/OneDrive/Desktop/GD32VW553/V1_MQTT_OK/GD32VW55X_Wifi_BLE_SDK/GD32VW55x_RELEASE_V1.0.2/MSDK/wpa_supplicant/src/ap\wpa_auth_glue.c **** }
 519:C:/Users/stapi/OneDrive/Desktop/GD32VW553/V1_MQTT_OK/GD32VW55X_Wifi_BLE_SDK/GD32VW55x_RELEASE_V1.0.2/MSDK/wpa_supplicant/src/ap\wpa_auth_glue.c **** 
 520:C:/Users/stapi/OneDrive/Desktop/GD32VW553/V1_MQTT_OK/GD32VW55X_Wifi_BLE_SDK/GD32VW55x_RELEASE_V1.0.2/MSDK/wpa_supplicant/src/ap\wpa_auth_glue.c **** 
 521:C:/Users/stapi/OneDrive/Desktop/GD32VW553/V1_MQTT_OK/GD32VW55X_Wifi_BLE_SDK/GD32VW55x_RELEASE_V1.0.2/MSDK/wpa_supplicant/src/ap\wpa_auth_glue.c **** int hostapd_wpa_auth_send_eapol(void *ctx, const u8 *addr,
 522:C:/Users/stapi/OneDrive/Desktop/GD32VW553/V1_MQTT_OK/GD32VW55X_Wifi_BLE_SDK/GD32VW55x_RELEASE_V1.0.2/MSDK/wpa_supplicant/src/ap\wpa_auth_glue.c **** 				const u8 *data, size_t data_len,
 523:C:/Users/stapi/OneDrive/Desktop/GD32VW553/V1_MQTT_OK/GD32VW55X_Wifi_BLE_SDK/GD32VW55x_RELEASE_V1.0.2/MSDK/wpa_supplicant/src/ap\wpa_auth_glue.c **** 				int encrypt)
 524:C:/Users/stapi/OneDrive/Desktop/GD32VW553/V1_MQTT_OK/GD32VW55X_Wifi_BLE_SDK/GD32VW55x_RELEASE_V1.0.2/MSDK/wpa_supplicant/src/ap\wpa_auth_glue.c **** {
 525:C:/Users/stapi/OneDrive/Desktop/GD32VW553/V1_MQTT_OK/GD32VW55X_Wifi_BLE_SDK/GD32VW55x_RELEASE_V1.0.2/MSDK/wpa_supplicant/src/ap\wpa_auth_glue.c **** 	struct hostapd_data *hapd = ctx;
 526:C:/Users/stapi/OneDrive/Desktop/GD32VW553/V1_MQTT_OK/GD32VW55X_Wifi_BLE_SDK/GD32VW55x_RELEASE_V1.0.2/MSDK/wpa_supplicant/src/ap\wpa_auth_glue.c **** 	struct sta_info *sta;
 527:C:/Users/stapi/OneDrive/Desktop/GD32VW553/V1_MQTT_OK/GD32VW55X_Wifi_BLE_SDK/GD32VW55x_RELEASE_V1.0.2/MSDK/wpa_supplicant/src/ap\wpa_auth_glue.c **** 	u32 flags = 0;
 528:C:/Users/stapi/OneDrive/Desktop/GD32VW553/V1_MQTT_OK/GD32VW55X_Wifi_BLE_SDK/GD32VW55x_RELEASE_V1.0.2/MSDK/wpa_supplicant/src/ap\wpa_auth_glue.c **** 
 529:C:/Users/stapi/OneDrive/Desktop/GD32VW553/V1_MQTT_OK/GD32VW55X_Wifi_BLE_SDK/GD32VW55x_RELEASE_V1.0.2/MSDK/wpa_supplicant/src/ap\wpa_auth_glue.c **** #ifdef CONFIG_TESTING_OPTIONS
 530:C:/Users/stapi/OneDrive/Desktop/GD32VW553/V1_MQTT_OK/GD32VW55X_Wifi_BLE_SDK/GD32VW55x_RELEASE_V1.0.2/MSDK/wpa_supplicant/src/ap\wpa_auth_glue.c **** 	if (hapd->ext_eapol_frame_io) {
 531:C:/Users/stapi/OneDrive/Desktop/GD32VW553/V1_MQTT_OK/GD32VW55X_Wifi_BLE_SDK/GD32VW55x_RELEASE_V1.0.2/MSDK/wpa_supplicant/src/ap\wpa_auth_glue.c **** 		size_t hex_len = 2 * data_len + 1;
 532:C:/Users/stapi/OneDrive/Desktop/GD32VW553/V1_MQTT_OK/GD32VW55X_Wifi_BLE_SDK/GD32VW55x_RELEASE_V1.0.2/MSDK/wpa_supplicant/src/ap\wpa_auth_glue.c **** 		char *hex = os_malloc(hex_len);
 533:C:/Users/stapi/OneDrive/Desktop/GD32VW553/V1_MQTT_OK/GD32VW55X_Wifi_BLE_SDK/GD32VW55x_RELEASE_V1.0.2/MSDK/wpa_supplicant/src/ap\wpa_auth_glue.c **** 
 534:C:/Users/stapi/OneDrive/Desktop/GD32VW553/V1_MQTT_OK/GD32VW55X_Wifi_BLE_SDK/GD32VW55x_RELEASE_V1.0.2/MSDK/wpa_supplicant/src/ap\wpa_auth_glue.c **** 		if (hex == NULL)
 535:C:/Users/stapi/OneDrive/Desktop/GD32VW553/V1_MQTT_OK/GD32VW55X_Wifi_BLE_SDK/GD32VW55x_RELEASE_V1.0.2/MSDK/wpa_supplicant/src/ap\wpa_auth_glue.c **** 			return -1;
 536:C:/Users/stapi/OneDrive/Desktop/GD32VW553/V1_MQTT_OK/GD32VW55X_Wifi_BLE_SDK/GD32VW55x_RELEASE_V1.0.2/MSDK/wpa_supplicant/src/ap\wpa_auth_glue.c **** 		wpa_snprintf_hex(hex, hex_len, data, data_len);
 537:C:/Users/stapi/OneDrive/Desktop/GD32VW553/V1_MQTT_OK/GD32VW55X_Wifi_BLE_SDK/GD32VW55x_RELEASE_V1.0.2/MSDK/wpa_supplicant/src/ap\wpa_auth_glue.c **** 		wpa_msg(hapd->msg_ctx, MSG_INFO, "EAPOL-TX " MACSTR " %s",
 538:C:/Users/stapi/OneDrive/Desktop/GD32VW553/V1_MQTT_OK/GD32VW55X_Wifi_BLE_SDK/GD32VW55x_RELEASE_V1.0.2/MSDK/wpa_supplicant/src/ap\wpa_auth_glue.c **** 			MAC2STR(addr), hex);
 539:C:/Users/stapi/OneDrive/Desktop/GD32VW553/V1_MQTT_OK/GD32VW55X_Wifi_BLE_SDK/GD32VW55x_RELEASE_V1.0.2/MSDK/wpa_supplicant/src/ap\wpa_auth_glue.c **** 		os_free(hex);
 540:C:/Users/stapi/OneDrive/Desktop/GD32VW553/V1_MQTT_OK/GD32VW55X_Wifi_BLE_SDK/GD32VW55x_RELEASE_V1.0.2/MSDK/wpa_supplicant/src/ap\wpa_auth_glue.c **** 		return 0;
 541:C:/Users/stapi/OneDrive/Desktop/GD32VW553/V1_MQTT_OK/GD32VW55X_Wifi_BLE_SDK/GD32VW55x_RELEASE_V1.0.2/MSDK/wpa_supplicant/src/ap\wpa_auth_glue.c **** 	}
 542:C:/Users/stapi/OneDrive/Desktop/GD32VW553/V1_MQTT_OK/GD32VW55X_Wifi_BLE_SDK/GD32VW55x_RELEASE_V1.0.2/MSDK/wpa_supplicant/src/ap\wpa_auth_glue.c **** #endif /* CONFIG_TESTING_OPTIONS */
 543:C:/Users/stapi/OneDrive/Desktop/GD32VW553/V1_MQTT_OK/GD32VW55X_Wifi_BLE_SDK/GD32VW55x_RELEASE_V1.0.2/MSDK/wpa_supplicant/src/ap\wpa_auth_glue.c **** 
 544:C:/Users/stapi/OneDrive/Desktop/GD32VW553/V1_MQTT_OK/GD32VW55X_Wifi_BLE_SDK/GD32VW55x_RELEASE_V1.0.2/MSDK/wpa_supplicant/src/ap\wpa_auth_glue.c **** 	sta = ap_get_sta(hapd, addr);
 545:C:/Users/stapi/OneDrive/Desktop/GD32VW553/V1_MQTT_OK/GD32VW55X_Wifi_BLE_SDK/GD32VW55x_RELEASE_V1.0.2/MSDK/wpa_supplicant/src/ap\wpa_auth_glue.c **** 	if (sta)
 546:C:/Users/stapi/OneDrive/Desktop/GD32VW553/V1_MQTT_OK/GD32VW55X_Wifi_BLE_SDK/GD32VW55x_RELEASE_V1.0.2/MSDK/wpa_supplicant/src/ap\wpa_auth_glue.c **** 		flags = hostapd_sta_flags_to_drv(sta->flags);
 547:C:/Users/stapi/OneDrive/Desktop/GD32VW553/V1_MQTT_OK/GD32VW55X_Wifi_BLE_SDK/GD32VW55x_RELEASE_V1.0.2/MSDK/wpa_supplicant/src/ap\wpa_auth_glue.c **** 
 548:C:/Users/stapi/OneDrive/Desktop/GD32VW553/V1_MQTT_OK/GD32VW55X_Wifi_BLE_SDK/GD32VW55x_RELEASE_V1.0.2/MSDK/wpa_supplicant/src/ap\wpa_auth_glue.c **** 	return hostapd_drv_hapd_send_eapol(hapd, addr, data, data_len,
 549:C:/Users/stapi/OneDrive/Desktop/GD32VW553/V1_MQTT_OK/GD32VW55X_Wifi_BLE_SDK/GD32VW55x_RELEASE_V1.0.2/MSDK/wpa_supplicant/src/ap\wpa_auth_glue.c **** 					   encrypt, flags);
 550:C:/Users/stapi/OneDrive/Desktop/GD32VW553/V1_MQTT_OK/GD32VW55X_Wifi_BLE_SDK/GD32VW55x_RELEASE_V1.0.2/MSDK/wpa_supplicant/src/ap\wpa_auth_glue.c **** }
 551:C:/Users/stapi/OneDrive/Desktop/GD32VW553/V1_MQTT_OK/GD32VW55X_Wifi_BLE_SDK/GD32VW55x_RELEASE_V1.0.2/MSDK/wpa_supplicant/src/ap\wpa_auth_glue.c **** 
 552:C:/Users/stapi/OneDrive/Desktop/GD32VW553/V1_MQTT_OK/GD32VW55X_Wifi_BLE_SDK/GD32VW55x_RELEASE_V1.0.2/MSDK/wpa_supplicant/src/ap\wpa_auth_glue.c **** 
 553:C:/Users/stapi/OneDrive/Desktop/GD32VW553/V1_MQTT_OK/GD32VW55X_Wifi_BLE_SDK/GD32VW55x_RELEASE_V1.0.2/MSDK/wpa_supplicant/src/ap\wpa_auth_glue.c **** static int hostapd_wpa_auth_for_each_sta(
 554:C:/Users/stapi/OneDrive/Desktop/GD32VW553/V1_MQTT_OK/GD32VW55X_Wifi_BLE_SDK/GD32VW55x_RELEASE_V1.0.2/MSDK/wpa_supplicant/src/ap\wpa_auth_glue.c **** 	void *ctx, int (*cb)(struct wpa_state_machine *sm, void *ctx),
 555:C:/Users/stapi/OneDrive/Desktop/GD32VW553/V1_MQTT_OK/GD32VW55X_Wifi_BLE_SDK/GD32VW55x_RELEASE_V1.0.2/MSDK/wpa_supplicant/src/ap\wpa_auth_glue.c **** 	void *cb_ctx)
 556:C:/Users/stapi/OneDrive/Desktop/GD32VW553/V1_MQTT_OK/GD32VW55X_Wifi_BLE_SDK/GD32VW55x_RELEASE_V1.0.2/MSDK/wpa_supplicant/src/ap\wpa_auth_glue.c **** {
  28              		.loc 1 556 1
  29              		.cfi_startproc
  30              	.LVL1:
  31 0000 17030000 		call	t0,__riscv_save_3
  31      E7020300 
  32              		.cfi_offset 18, -16
  33              		.cfi_offset 9, -12
  34              		.cfi_offset 8, -8
  35              		.cfi_offset 1, -4
  36              		.cfi_def_cfa_offset 16
 557:C:/Users/stapi/OneDrive/Desktop/GD32VW553/V1_MQTT_OK/GD32VW55X_Wifi_BLE_SDK/GD32VW55x_RELEASE_V1.0.2/MSDK/wpa_supplicant/src/ap\wpa_auth_glue.c **** 	struct hostapd_data *hapd = ctx;
  37              		.loc 1 557 2
  38              	.LVL2:
 558:C:/Users/stapi/OneDrive/Desktop/GD32VW553/V1_MQTT_OK/GD32VW55X_Wifi_BLE_SDK/GD32VW55x_RELEASE_V1.0.2/MSDK/wpa_supplicant/src/ap\wpa_auth_glue.c **** 	struct sta_info *sta;
  39              		.loc 1 558 2
 559:C:/Users/stapi/OneDrive/Desktop/GD32VW553/V1_MQTT_OK/GD32VW55X_Wifi_BLE_SDK/GD32VW55x_RELEASE_V1.0.2/MSDK/wpa_supplicant/src/ap\wpa_auth_glue.c **** 
 560:C:/Users/stapi/OneDrive/Desktop/GD32VW553/V1_MQTT_OK/GD32VW55X_Wifi_BLE_SDK/GD32VW55x_RELEASE_V1.0.2/MSDK/wpa_supplicant/src/ap\wpa_auth_glue.c **** 	for (sta = hapd->sta_list; sta; sta = sta->next) {
  40              		.loc 1 560 2
  41              		.loc 1 560 11 is_stmt 0
  42 0008 404D     		lw	s0,28(a0)
  43              	.LVL3:
 556:C:/Users/stapi/OneDrive/Desktop/GD32VW553/V1_MQTT_OK/GD32VW55X_Wifi_BLE_SDK/GD32VW55x_RELEASE_V1.0.2/MSDK/wpa_supplicant/src/ap\wpa_auth_glue.c **** 	struct hostapd_data *hapd = ctx;
  44              		.loc 1 556 1
  45 000a AE84     		mv	s1,a1
  46 000c 3289     		mv	s2,a2
  47              	.LVL4:
  48              	.L3:
  49              		.loc 1 560 29 is_stmt 1 discriminator 1
  50              		.loc 1 560 2 is_stmt 0 discriminator 1
  51 000e 11E4     		bne	s0,zero,.L7
 561:C:/Users/stapi/OneDrive/Desktop/GD32VW553/V1_MQTT_OK/GD32VW55X_Wifi_BLE_SDK/GD32VW55x_RELEASE_V1.0.2/MSDK/wpa_supplicant/src/ap\wpa_auth_glue.c **** 		if (sta->wpa_sm && cb(sta->wpa_sm, cb_ctx))
 562:C:/Users/stapi/OneDrive/Desktop/GD32VW553/V1_MQTT_OK/GD32VW55X_Wifi_BLE_SDK/GD32VW55x_RELEASE_V1.0.2/MSDK/wpa_supplicant/src/ap\wpa_auth_glue.c **** 			return 1;
 563:C:/Users/stapi/OneDrive/Desktop/GD32VW553/V1_MQTT_OK/GD32VW55X_Wifi_BLE_SDK/GD32VW55x_RELEASE_V1.0.2/MSDK/wpa_supplicant/src/ap\wpa_auth_glue.c **** 	}
 564:C:/Users/stapi/OneDrive/Desktop/GD32VW553/V1_MQTT_OK/GD32VW55X_Wifi_BLE_SDK/GD32VW55x_RELEASE_V1.0.2/MSDK/wpa_supplicant/src/ap\wpa_auth_glue.c **** 	return 0;
  52              		.loc 1 564 9
  53 0010 0145     		li	a0,0
  54              	.L2:
 565:C:/Users/stapi/OneDrive/Desktop/GD32VW553/V1_MQTT_OK/GD32VW55X_Wifi_BLE_SDK/GD32VW55x_RELEASE_V1.0.2/MSDK/wpa_supplicant/src/ap\wpa_auth_glue.c **** }
  55              		.loc 1 565 1
  56 0012 17030000 		tail	__riscv_restore_3
  56      67000300 
  57              		.cfi_remember_state
  58              		.cfi_restore 18
  59              		.cfi_restore 9
  60              		.cfi_restore 8
  61              		.cfi_restore 1
  62              		.cfi_def_cfa_offset 0
  63              	.L7:
  64              		.cfi_restore_state
 561:C:/Users/stapi/OneDrive/Desktop/GD32VW553/V1_MQTT_OK/GD32VW55X_Wifi_BLE_SDK/GD32VW55x_RELEASE_V1.0.2/MSDK/wpa_supplicant/src/ap\wpa_auth_glue.c **** 		if (sta->wpa_sm && cb(sta->wpa_sm, cb_ctx))
  65              		.loc 1 561 3 is_stmt 1
 561:C:/Users/stapi/OneDrive/Desktop/GD32VW553/V1_MQTT_OK/GD32VW55X_Wifi_BLE_SDK/GD32VW55x_RELEASE_V1.0.2/MSDK/wpa_supplicant/src/ap\wpa_auth_glue.c **** 		if (sta->wpa_sm && cb(sta->wpa_sm, cb_ctx))
  66              		.loc 1 561 10 is_stmt 0
  67 001a 0325C409 		lw	a0,156(s0)
 561:C:/Users/stapi/OneDrive/Desktop/GD32VW553/V1_MQTT_OK/GD32VW55X_Wifi_BLE_SDK/GD32VW55x_RELEASE_V1.0.2/MSDK/wpa_supplicant/src/ap\wpa_auth_glue.c **** 		if (sta->wpa_sm && cb(sta->wpa_sm, cb_ctx))
  68              		.loc 1 561 6
  69 001e 19E1     		bne	a0,zero,.L4
  70              	.L6:
 560:C:/Users/stapi/OneDrive/Desktop/GD32VW553/V1_MQTT_OK/GD32VW55X_Wifi_BLE_SDK/GD32VW55x_RELEASE_V1.0.2/MSDK/wpa_supplicant/src/ap\wpa_auth_glue.c **** 		if (sta->wpa_sm && cb(sta->wpa_sm, cb_ctx))
  71              		.loc 1 560 34 is_stmt 1
 560:C:/Users/stapi/OneDrive/Desktop/GD32VW553/V1_MQTT_OK/GD32VW55X_Wifi_BLE_SDK/GD32VW55x_RELEASE_V1.0.2/MSDK/wpa_supplicant/src/ap\wpa_auth_glue.c **** 		if (sta->wpa_sm && cb(sta->wpa_sm, cb_ctx))
  72              		.loc 1 560 38 is_stmt 0
  73 0020 0040     		lw	s0,0(s0)
  74              	.LVL5:
  75 0022 F5B7     		j	.L3
  76              	.L4:
 561:C:/Users/stapi/OneDrive/Desktop/GD32VW553/V1_MQTT_OK/GD32VW55X_Wifi_BLE_SDK/GD32VW55x_RELEASE_V1.0.2/MSDK/wpa_supplicant/src/ap\wpa_auth_glue.c **** 		if (sta->wpa_sm && cb(sta->wpa_sm, cb_ctx))
  77              		.loc 1 561 22 discriminator 1
  78 0024 CA85     		mv	a1,s2
  79 0026 8294     		jalr	s1
  80              	.LVL6:
 561:C:/Users/stapi/OneDrive/Desktop/GD32VW553/V1_MQTT_OK/GD32VW55X_Wifi_BLE_SDK/GD32VW55x_RELEASE_V1.0.2/MSDK/wpa_supplicant/src/ap\wpa_auth_glue.c **** 		if (sta->wpa_sm && cb(sta->wpa_sm, cb_ctx))
  81              		.loc 1 561 19 discriminator 1
  82 0028 65DD     		beq	a0,zero,.L6
 562:C:/Users/stapi/OneDrive/Desktop/GD32VW553/V1_MQTT_OK/GD32VW55X_Wifi_BLE_SDK/GD32VW55x_RELEASE_V1.0.2/MSDK/wpa_supplicant/src/ap\wpa_auth_glue.c **** 	}
  83              		.loc 1 562 11
  84 002a 0545     		li	a0,1
  85 002c DDB7     		j	.L2
  86              		.cfi_endproc
  87              	.LFE192:
  89              		.section	.text.wpa_auth_iface_iter,"ax",@progbits
  90              		.align	1
  92              	wpa_auth_iface_iter:
  93              	.LFB193:
 566:C:/Users/stapi/OneDrive/Desktop/GD32VW553/V1_MQTT_OK/GD32VW55X_Wifi_BLE_SDK/GD32VW55x_RELEASE_V1.0.2/MSDK/wpa_supplicant/src/ap\wpa_auth_glue.c **** 
 567:C:/Users/stapi/OneDrive/Desktop/GD32VW553/V1_MQTT_OK/GD32VW55X_Wifi_BLE_SDK/GD32VW55x_RELEASE_V1.0.2/MSDK/wpa_supplicant/src/ap\wpa_auth_glue.c **** 
 568:C:/Users/stapi/OneDrive/Desktop/GD32VW553/V1_MQTT_OK/GD32VW55X_Wifi_BLE_SDK/GD32VW55x_RELEASE_V1.0.2/MSDK/wpa_supplicant/src/ap\wpa_auth_glue.c **** struct wpa_auth_iface_iter_data {
 569:C:/Users/stapi/OneDrive/Desktop/GD32VW553/V1_MQTT_OK/GD32VW55X_Wifi_BLE_SDK/GD32VW55x_RELEASE_V1.0.2/MSDK/wpa_supplicant/src/ap\wpa_auth_glue.c **** 	int (*cb)(struct wpa_authenticator *sm, void *ctx);
 570:C:/Users/stapi/OneDrive/Desktop/GD32VW553/V1_MQTT_OK/GD32VW55X_Wifi_BLE_SDK/GD32VW55x_RELEASE_V1.0.2/MSDK/wpa_supplicant/src/ap\wpa_auth_glue.c **** 	void *cb_ctx;
 571:C:/Users/stapi/OneDrive/Desktop/GD32VW553/V1_MQTT_OK/GD32VW55X_Wifi_BLE_SDK/GD32VW55x_RELEASE_V1.0.2/MSDK/wpa_supplicant/src/ap\wpa_auth_glue.c **** };
 572:C:/Users/stapi/OneDrive/Desktop/GD32VW553/V1_MQTT_OK/GD32VW55X_Wifi_BLE_SDK/GD32VW55x_RELEASE_V1.0.2/MSDK/wpa_supplicant/src/ap\wpa_auth_glue.c **** 
 573:C:/Users/stapi/OneDrive/Desktop/GD32VW553/V1_MQTT_OK/GD32VW55X_Wifi_BLE_SDK/GD32VW55x_RELEASE_V1.0.2/MSDK/wpa_supplicant/src/ap\wpa_auth_glue.c **** static int wpa_auth_iface_iter(struct hostapd_iface *iface, void *ctx)
 574:C:/Users/stapi/OneDrive/Desktop/GD32VW553/V1_MQTT_OK/GD32VW55X_Wifi_BLE_SDK/GD32VW55x_RELEASE_V1.0.2/MSDK/wpa_supplicant/src/ap\wpa_auth_glue.c **** {
  94              		.loc 1 574 1 is_stmt 1
  95              		.cfi_startproc
  96              	.LVL7:
  97 0000 17030000 		call	t0,__riscv_save_3
  97      E7020300 
  98              		.cfi_offset 18, -16
  99              		.cfi_offset 9, -12
 100              		.cfi_offset 8, -8
 101              		.cfi_offset 1, -4
 102              		.cfi_def_cfa_offset 16
 575:C:/Users/stapi/OneDrive/Desktop/GD32VW553/V1_MQTT_OK/GD32VW55X_Wifi_BLE_SDK/GD32VW55x_RELEASE_V1.0.2/MSDK/wpa_supplicant/src/ap\wpa_auth_glue.c **** 	struct wpa_auth_iface_iter_data *data = ctx;
 103              		.loc 1 575 2
 574:C:/Users/stapi/OneDrive/Desktop/GD32VW553/V1_MQTT_OK/GD32VW55X_Wifi_BLE_SDK/GD32VW55x_RELEASE_V1.0.2/MSDK/wpa_supplicant/src/ap\wpa_auth_glue.c **** 	struct wpa_auth_iface_iter_data *data = ctx;
 104              		.loc 1 574 1 is_stmt 0
 105 0008 AA84     		mv	s1,a0
 106 000a 2E89     		mv	s2,a1
 107              	.LVL8:
 576:C:/Users/stapi/OneDrive/Desktop/GD32VW553/V1_MQTT_OK/GD32VW55X_Wifi_BLE_SDK/GD32VW55x_RELEASE_V1.0.2/MSDK/wpa_supplicant/src/ap\wpa_auth_glue.c **** 	size_t i;
 108              		.loc 1 576 2 is_stmt 1
 577:C:/Users/stapi/OneDrive/Desktop/GD32VW553/V1_MQTT_OK/GD32VW55X_Wifi_BLE_SDK/GD32VW55x_RELEASE_V1.0.2/MSDK/wpa_supplicant/src/ap\wpa_auth_glue.c **** 	for (i = 0; i < iface->num_bss; i++) {
 109              		.loc 1 577 2
 110              		.loc 1 577 9 is_stmt 0
 111 000c 0144     		li	s0,0
 112              	.LVL9:
 113              	.L11:
 114              		.loc 1 577 14 is_stmt 1 discriminator 1
 115              		.loc 1 577 2 is_stmt 0 discriminator 1
 116 000e DC50     		lw	a5,36(s1)
 117 0010 6367F400 		bgtu	a5,s0,.L15
 578:C:/Users/stapi/OneDrive/Desktop/GD32VW553/V1_MQTT_OK/GD32VW55X_Wifi_BLE_SDK/GD32VW55x_RELEASE_V1.0.2/MSDK/wpa_supplicant/src/ap\wpa_auth_glue.c **** 		if (iface->bss[i]->wpa_auth &&
 579:C:/Users/stapi/OneDrive/Desktop/GD32VW553/V1_MQTT_OK/GD32VW55X_Wifi_BLE_SDK/GD32VW55x_RELEASE_V1.0.2/MSDK/wpa_supplicant/src/ap\wpa_auth_glue.c **** 		    data->cb(iface->bss[i]->wpa_auth, data->cb_ctx))
 580:C:/Users/stapi/OneDrive/Desktop/GD32VW553/V1_MQTT_OK/GD32VW55X_Wifi_BLE_SDK/GD32VW55x_RELEASE_V1.0.2/MSDK/wpa_supplicant/src/ap\wpa_auth_glue.c **** 			return 1;
 581:C:/Users/stapi/OneDrive/Desktop/GD32VW553/V1_MQTT_OK/GD32VW55X_Wifi_BLE_SDK/GD32VW55x_RELEASE_V1.0.2/MSDK/wpa_supplicant/src/ap\wpa_auth_glue.c **** 	}
 582:C:/Users/stapi/OneDrive/Desktop/GD32VW553/V1_MQTT_OK/GD32VW55X_Wifi_BLE_SDK/GD32VW55x_RELEASE_V1.0.2/MSDK/wpa_supplicant/src/ap\wpa_auth_glue.c **** 	return 0;
 118              		.loc 1 582 9
 119 0014 0145     		li	a0,0
 120              	.L10:
 583:C:/Users/stapi/OneDrive/Desktop/GD32VW553/V1_MQTT_OK/GD32VW55X_Wifi_BLE_SDK/GD32VW55x_RELEASE_V1.0.2/MSDK/wpa_supplicant/src/ap\wpa_auth_glue.c **** }
 121              		.loc 1 583 1
 122 0016 17030000 		tail	__riscv_restore_3
 122      67000300 
 123              		.cfi_remember_state
 124              		.cfi_restore 18
 125              		.cfi_restore 9
 126              		.cfi_restore 8
 127              		.cfi_restore 1
 128              		.cfi_def_cfa_offset 0
 129              	.L15:
 130              		.cfi_restore_state
 578:C:/Users/stapi/OneDrive/Desktop/GD32VW553/V1_MQTT_OK/GD32VW55X_Wifi_BLE_SDK/GD32VW55x_RELEASE_V1.0.2/MSDK/wpa_supplicant/src/ap\wpa_auth_glue.c **** 		if (iface->bss[i]->wpa_auth &&
 131              		.loc 1 578 3 is_stmt 1
 578:C:/Users/stapi/OneDrive/Desktop/GD32VW553/V1_MQTT_OK/GD32VW55X_Wifi_BLE_SDK/GD32VW55x_RELEASE_V1.0.2/MSDK/wpa_supplicant/src/ap\wpa_auth_glue.c **** 		if (iface->bss[i]->wpa_auth &&
 132              		.loc 1 578 17 is_stmt 0
 133 001e 9C54     		lw	a5,40(s1)
 134 0020 B347F420 		sh2add	a5,s0,a5
 578:C:/Users/stapi/OneDrive/Desktop/GD32VW553/V1_MQTT_OK/GD32VW55X_Wifi_BLE_SDK/GD32VW55x_RELEASE_V1.0.2/MSDK/wpa_supplicant/src/ap\wpa_auth_glue.c **** 		if (iface->bss[i]->wpa_auth &&
 135              		.loc 1 578 20
 136 0024 9C43     		lw	a5,0(a5)
 137 0026 03A5C754 		lw	a0,1356(a5)
 578:C:/Users/stapi/OneDrive/Desktop/GD32VW553/V1_MQTT_OK/GD32VW55X_Wifi_BLE_SDK/GD32VW55x_RELEASE_V1.0.2/MSDK/wpa_supplicant/src/ap\wpa_auth_glue.c **** 		if (iface->bss[i]->wpa_auth &&
 138              		.loc 1 578 6
 139 002a 19E1     		bne	a0,zero,.L12
 140              	.L14:
 577:C:/Users/stapi/OneDrive/Desktop/GD32VW553/V1_MQTT_OK/GD32VW55X_Wifi_BLE_SDK/GD32VW55x_RELEASE_V1.0.2/MSDK/wpa_supplicant/src/ap\wpa_auth_glue.c **** 	for (i = 0; i < iface->num_bss; i++) {
 141              		.loc 1 577 34 is_stmt 1
 577:C:/Users/stapi/OneDrive/Desktop/GD32VW553/V1_MQTT_OK/GD32VW55X_Wifi_BLE_SDK/GD32VW55x_RELEASE_V1.0.2/MSDK/wpa_supplicant/src/ap\wpa_auth_glue.c **** 	for (i = 0; i < iface->num_bss; i++) {
 142              		.loc 1 577 35 is_stmt 0
 143 002c 0504     		addi	s0,s0,1
 144              	.LVL10:
 145 002e C5B7     		j	.L11
 146              	.L12:
 579:C:/Users/stapi/OneDrive/Desktop/GD32VW553/V1_MQTT_OK/GD32VW55X_Wifi_BLE_SDK/GD32VW55x_RELEASE_V1.0.2/MSDK/wpa_supplicant/src/ap\wpa_auth_glue.c **** 			return 1;
 147              		.loc 1 579 7 discriminator 1
 148 0030 83270900 		lw	a5,0(s2)
 149 0034 83254900 		lw	a1,4(s2)
 150 0038 8297     		jalr	a5
 151              	.LVL11:
 578:C:/Users/stapi/OneDrive/Desktop/GD32VW553/V1_MQTT_OK/GD32VW55X_Wifi_BLE_SDK/GD32VW55x_RELEASE_V1.0.2/MSDK/wpa_supplicant/src/ap\wpa_auth_glue.c **** 		if (iface->bss[i]->wpa_auth &&
 152              		.loc 1 578 31 discriminator 1
 153 003a 6DD9     		beq	a0,zero,.L14
 580:C:/Users/stapi/OneDrive/Desktop/GD32VW553/V1_MQTT_OK/GD32VW55X_Wifi_BLE_SDK/GD32VW55x_RELEASE_V1.0.2/MSDK/wpa_supplicant/src/ap\wpa_auth_glue.c **** 	}
 154              		.loc 1 580 11
 155 003c 0545     		li	a0,1
 156 003e E1BF     		j	.L10
 157              		.cfi_endproc
 158              	.LFE193:
 160              		.section	.text.hostapd_wpa_auth_for_each_auth,"ax",@progbits
 161              		.align	1
 163              	hostapd_wpa_auth_for_each_auth:
 164              	.LFB194:
 584:C:/Users/stapi/OneDrive/Desktop/GD32VW553/V1_MQTT_OK/GD32VW55X_Wifi_BLE_SDK/GD32VW55x_RELEASE_V1.0.2/MSDK/wpa_supplicant/src/ap\wpa_auth_glue.c **** 
 585:C:/Users/stapi/OneDrive/Desktop/GD32VW553/V1_MQTT_OK/GD32VW55X_Wifi_BLE_SDK/GD32VW55x_RELEASE_V1.0.2/MSDK/wpa_supplicant/src/ap\wpa_auth_glue.c **** 
 586:C:/Users/stapi/OneDrive/Desktop/GD32VW553/V1_MQTT_OK/GD32VW55X_Wifi_BLE_SDK/GD32VW55x_RELEASE_V1.0.2/MSDK/wpa_supplicant/src/ap\wpa_auth_glue.c **** static int hostapd_wpa_auth_for_each_auth(
 587:C:/Users/stapi/OneDrive/Desktop/GD32VW553/V1_MQTT_OK/GD32VW55X_Wifi_BLE_SDK/GD32VW55x_RELEASE_V1.0.2/MSDK/wpa_supplicant/src/ap\wpa_auth_glue.c **** 	void *ctx, int (*cb)(struct wpa_authenticator *sm, void *ctx),
 588:C:/Users/stapi/OneDrive/Desktop/GD32VW553/V1_MQTT_OK/GD32VW55X_Wifi_BLE_SDK/GD32VW55x_RELEASE_V1.0.2/MSDK/wpa_supplicant/src/ap\wpa_auth_glue.c **** 	void *cb_ctx)
 589:C:/Users/stapi/OneDrive/Desktop/GD32VW553/V1_MQTT_OK/GD32VW55X_Wifi_BLE_SDK/GD32VW55x_RELEASE_V1.0.2/MSDK/wpa_supplicant/src/ap\wpa_auth_glue.c **** {
 165              		.loc 1 589 1 is_stmt 1
 166              		.cfi_startproc
 167              	.LVL12:
 590:C:/Users/stapi/OneDrive/Desktop/GD32VW553/V1_MQTT_OK/GD32VW55X_Wifi_BLE_SDK/GD32VW55x_RELEASE_V1.0.2/MSDK/wpa_supplicant/src/ap\wpa_auth_glue.c **** 	struct hostapd_data *hapd = ctx;
 168              		.loc 1 590 2
 591:C:/Users/stapi/OneDrive/Desktop/GD32VW553/V1_MQTT_OK/GD32VW55X_Wifi_BLE_SDK/GD32VW55x_RELEASE_V1.0.2/MSDK/wpa_supplicant/src/ap\wpa_auth_glue.c **** 	struct wpa_auth_iface_iter_data data;
 169              		.loc 1 591 2
 592:C:/Users/stapi/OneDrive/Desktop/GD32VW553/V1_MQTT_OK/GD32VW55X_Wifi_BLE_SDK/GD32VW55x_RELEASE_V1.0.2/MSDK/wpa_supplicant/src/ap\wpa_auth_glue.c **** 	if (hapd->iface->interfaces == NULL ||
 170              		.loc 1 592 2
 171              		.loc 1 592 17 is_stmt 0
 172 0000 1C41     		lw	a5,0(a0)
 173 0002 9C43     		lw	a5,0(a5)
 174              		.loc 1 592 5
 175 0004 9DC7     		beq	a5,zero,.L20
 593:C:/Users/stapi/OneDrive/Desktop/GD32VW553/V1_MQTT_OK/GD32VW55X_Wifi_BLE_SDK/GD32VW55x_RELEASE_V1.0.2/MSDK/wpa_supplicant/src/ap\wpa_auth_glue.c **** 	    hapd->iface->interfaces->for_each_interface == NULL)
 176              		.loc 1 593 29 discriminator 1
 177 0006 984B     		lw	a4,16(a5)
 594:C:/Users/stapi/OneDrive/Desktop/GD32VW553/V1_MQTT_OK/GD32VW55X_Wifi_BLE_SDK/GD32VW55x_RELEASE_V1.0.2/MSDK/wpa_supplicant/src/ap\wpa_auth_glue.c **** 		return -1;
 178              		.loc 1 594 10 discriminator 1
 179 0008 7D55     		li	a0,-1
 180              	.LVL13:
 592:C:/Users/stapi/OneDrive/Desktop/GD32VW553/V1_MQTT_OK/GD32VW55X_Wifi_BLE_SDK/GD32VW55x_RELEASE_V1.0.2/MSDK/wpa_supplicant/src/ap\wpa_auth_glue.c **** 	if (hapd->iface->interfaces == NULL ||
 181              		.loc 1 592 38 discriminator 1
 182 000a 15C7     		beq	a4,zero,.L23
 589:C:/Users/stapi/OneDrive/Desktop/GD32VW553/V1_MQTT_OK/GD32VW55X_Wifi_BLE_SDK/GD32VW55x_RELEASE_V1.0.2/MSDK/wpa_supplicant/src/ap\wpa_auth_glue.c **** 	struct hostapd_data *hapd = ctx;
 183              		.loc 1 589 1
 184 000c 17030000 		call	t0,__riscv_save_0
 184      E7020300 
 185              		.cfi_offset 1, -4
 186              		.cfi_def_cfa_offset 16
 595:C:/Users/stapi/OneDrive/Desktop/GD32VW553/V1_MQTT_OK/GD32VW55X_Wifi_BLE_SDK/GD32VW55x_RELEASE_V1.0.2/MSDK/wpa_supplicant/src/ap\wpa_auth_glue.c **** 	data.cb = cb;
 187              		.loc 1 595 2 is_stmt 1
 589:C:/Users/stapi/OneDrive/Desktop/GD32VW553/V1_MQTT_OK/GD32VW55X_Wifi_BLE_SDK/GD32VW55x_RELEASE_V1.0.2/MSDK/wpa_supplicant/src/ap\wpa_auth_glue.c **** 	struct hostapd_data *hapd = ctx;
 188              		.loc 1 589 1 is_stmt 0
 189 0014 4111     		addi	sp,sp,-16
 190              		.cfi_def_cfa_offset 32
 191              		.loc 1 595 10
 192 0016 2EC4     		sw	a1,8(sp)
 596:C:/Users/stapi/OneDrive/Desktop/GD32VW553/V1_MQTT_OK/GD32VW55X_Wifi_BLE_SDK/GD32VW55x_RELEASE_V1.0.2/MSDK/wpa_supplicant/src/ap\wpa_auth_glue.c **** 	data.cb_ctx = cb_ctx;
 193              		.loc 1 596 2 is_stmt 1
 597:C:/Users/stapi/OneDrive/Desktop/GD32VW553/V1_MQTT_OK/GD32VW55X_Wifi_BLE_SDK/GD32VW55x_RELEASE_V1.0.2/MSDK/wpa_supplicant/src/ap\wpa_auth_glue.c **** 	return hapd->iface->interfaces->for_each_interface(
 194              		.loc 1 597 9 is_stmt 0
 195 0018 B7050000 		lui	a1,%hi(wpa_auth_iface_iter)
 196              	.LVL14:
 596:C:/Users/stapi/OneDrive/Desktop/GD32VW553/V1_MQTT_OK/GD32VW55X_Wifi_BLE_SDK/GD32VW55x_RELEASE_V1.0.2/MSDK/wpa_supplicant/src/ap\wpa_auth_glue.c **** 	data.cb_ctx = cb_ctx;
 197              		.loc 1 596 14
 198 001c 32C6     		sw	a2,12(sp)
 199              		.loc 1 597 2 is_stmt 1
 200              		.loc 1 597 9 is_stmt 0
 201 001e 93850500 		addi	a1,a1,%lo(wpa_auth_iface_iter)
 202 0022 3000     		addi	a2,sp,8
 203              	.LVL15:
 204 0024 3E85     		mv	a0,a5
 205 0026 0297     		jalr	a4
 206              	.LVL16:
 598:C:/Users/stapi/OneDrive/Desktop/GD32VW553/V1_MQTT_OK/GD32VW55X_Wifi_BLE_SDK/GD32VW55x_RELEASE_V1.0.2/MSDK/wpa_supplicant/src/ap\wpa_auth_glue.c **** 		hapd->iface->interfaces, wpa_auth_iface_iter, &data);
 599:C:/Users/stapi/OneDrive/Desktop/GD32VW553/V1_MQTT_OK/GD32VW55X_Wifi_BLE_SDK/GD32VW55x_RELEASE_V1.0.2/MSDK/wpa_supplicant/src/ap\wpa_auth_glue.c **** }
 207              		.loc 1 599 1
 208 0028 4101     		addi	sp,sp,16
 209              		.cfi_def_cfa_offset 0
 210 002a 17030000 		tail	__riscv_restore_0
 210      67000300 
 211              		.cfi_restore 1
 212              		.cfi_def_cfa_offset -16
 213              	.LVL17:
 214              	.L20:
 215              		.cfi_def_cfa_offset 0
 594:C:/Users/stapi/OneDrive/Desktop/GD32VW553/V1_MQTT_OK/GD32VW55X_Wifi_BLE_SDK/GD32VW55x_RELEASE_V1.0.2/MSDK/wpa_supplicant/src/ap\wpa_auth_glue.c **** 	data.cb = cb;
 216              		.loc 1 594 10
 217 0032 7D55     		li	a0,-1
 218              	.LVL18:
 219 0034 8280     		ret
 220              	.L23:
 221              		.loc 1 599 1
 222 0036 8280     		ret
 223              		.cfi_endproc
 224              	.LFE194:
 226              		.section	.text.hostapd_wpa_auth_send_oui,"ax",@progbits
 227              		.align	1
 229              	hostapd_wpa_auth_send_oui:
 230              	.LFB196:
 600:C:/Users/stapi/OneDrive/Desktop/GD32VW553/V1_MQTT_OK/GD32VW55X_Wifi_BLE_SDK/GD32VW55x_RELEASE_V1.0.2/MSDK/wpa_supplicant/src/ap\wpa_auth_glue.c **** 
 601:C:/Users/stapi/OneDrive/Desktop/GD32VW553/V1_MQTT_OK/GD32VW55X_Wifi_BLE_SDK/GD32VW55x_RELEASE_V1.0.2/MSDK/wpa_supplicant/src/ap\wpa_auth_glue.c **** 
 602:C:/Users/stapi/OneDrive/Desktop/GD32VW553/V1_MQTT_OK/GD32VW55X_Wifi_BLE_SDK/GD32VW55x_RELEASE_V1.0.2/MSDK/wpa_supplicant/src/ap\wpa_auth_glue.c **** #ifdef CONFIG_IEEE80211R_AP
 603:C:/Users/stapi/OneDrive/Desktop/GD32VW553/V1_MQTT_OK/GD32VW55X_Wifi_BLE_SDK/GD32VW55x_RELEASE_V1.0.2/MSDK/wpa_supplicant/src/ap\wpa_auth_glue.c **** 
 604:C:/Users/stapi/OneDrive/Desktop/GD32VW553/V1_MQTT_OK/GD32VW55X_Wifi_BLE_SDK/GD32VW55x_RELEASE_V1.0.2/MSDK/wpa_supplicant/src/ap\wpa_auth_glue.c **** struct wpa_ft_rrb_rx_later_data {
 605:C:/Users/stapi/OneDrive/Desktop/GD32VW553/V1_MQTT_OK/GD32VW55X_Wifi_BLE_SDK/GD32VW55x_RELEASE_V1.0.2/MSDK/wpa_supplicant/src/ap\wpa_auth_glue.c **** 	struct dl_list list;
 606:C:/Users/stapi/OneDrive/Desktop/GD32VW553/V1_MQTT_OK/GD32VW55X_Wifi_BLE_SDK/GD32VW55x_RELEASE_V1.0.2/MSDK/wpa_supplicant/src/ap\wpa_auth_glue.c **** 	u8 addr[ETH_ALEN];
 607:C:/Users/stapi/OneDrive/Desktop/GD32VW553/V1_MQTT_OK/GD32VW55X_Wifi_BLE_SDK/GD32VW55x_RELEASE_V1.0.2/MSDK/wpa_supplicant/src/ap\wpa_auth_glue.c **** 	size_t data_len;
 608:C:/Users/stapi/OneDrive/Desktop/GD32VW553/V1_MQTT_OK/GD32VW55X_Wifi_BLE_SDK/GD32VW55x_RELEASE_V1.0.2/MSDK/wpa_supplicant/src/ap\wpa_auth_glue.c **** 	/* followed by data_len octets of data */
 609:C:/Users/stapi/OneDrive/Desktop/GD32VW553/V1_MQTT_OK/GD32VW55X_Wifi_BLE_SDK/GD32VW55x_RELEASE_V1.0.2/MSDK/wpa_supplicant/src/ap\wpa_auth_glue.c **** };
 610:C:/Users/stapi/OneDrive/Desktop/GD32VW553/V1_MQTT_OK/GD32VW55X_Wifi_BLE_SDK/GD32VW55x_RELEASE_V1.0.2/MSDK/wpa_supplicant/src/ap\wpa_auth_glue.c **** 
 611:C:/Users/stapi/OneDrive/Desktop/GD32VW553/V1_MQTT_OK/GD32VW55X_Wifi_BLE_SDK/GD32VW55x_RELEASE_V1.0.2/MSDK/wpa_supplicant/src/ap\wpa_auth_glue.c **** static void hostapd_wpa_ft_rrb_rx_later(void *eloop_ctx, void *timeout_ctx)
 612:C:/Users/stapi/OneDrive/Desktop/GD32VW553/V1_MQTT_OK/GD32VW55X_Wifi_BLE_SDK/GD32VW55x_RELEASE_V1.0.2/MSDK/wpa_supplicant/src/ap\wpa_auth_glue.c **** {
 613:C:/Users/stapi/OneDrive/Desktop/GD32VW553/V1_MQTT_OK/GD32VW55X_Wifi_BLE_SDK/GD32VW55x_RELEASE_V1.0.2/MSDK/wpa_supplicant/src/ap\wpa_auth_glue.c **** 	struct hostapd_data *hapd = eloop_ctx;
 614:C:/Users/stapi/OneDrive/Desktop/GD32VW553/V1_MQTT_OK/GD32VW55X_Wifi_BLE_SDK/GD32VW55x_RELEASE_V1.0.2/MSDK/wpa_supplicant/src/ap\wpa_auth_glue.c **** 	struct wpa_ft_rrb_rx_later_data *data, *n;
 615:C:/Users/stapi/OneDrive/Desktop/GD32VW553/V1_MQTT_OK/GD32VW55X_Wifi_BLE_SDK/GD32VW55x_RELEASE_V1.0.2/MSDK/wpa_supplicant/src/ap\wpa_auth_glue.c **** 
 616:C:/Users/stapi/OneDrive/Desktop/GD32VW553/V1_MQTT_OK/GD32VW55X_Wifi_BLE_SDK/GD32VW55x_RELEASE_V1.0.2/MSDK/wpa_supplicant/src/ap\wpa_auth_glue.c **** 	dl_list_for_each_safe(data, n, &hapd->l2_queue,
 617:C:/Users/stapi/OneDrive/Desktop/GD32VW553/V1_MQTT_OK/GD32VW55X_Wifi_BLE_SDK/GD32VW55x_RELEASE_V1.0.2/MSDK/wpa_supplicant/src/ap\wpa_auth_glue.c **** 			      struct wpa_ft_rrb_rx_later_data, list) {
 618:C:/Users/stapi/OneDrive/Desktop/GD32VW553/V1_MQTT_OK/GD32VW55X_Wifi_BLE_SDK/GD32VW55x_RELEASE_V1.0.2/MSDK/wpa_supplicant/src/ap\wpa_auth_glue.c **** 		if (hapd->wpa_auth) {
 619:C:/Users/stapi/OneDrive/Desktop/GD32VW553/V1_MQTT_OK/GD32VW55X_Wifi_BLE_SDK/GD32VW55x_RELEASE_V1.0.2/MSDK/wpa_supplicant/src/ap\wpa_auth_glue.c **** 			wpa_ft_rrb_rx(hapd->wpa_auth, data->addr,
 620:C:/Users/stapi/OneDrive/Desktop/GD32VW553/V1_MQTT_OK/GD32VW55X_Wifi_BLE_SDK/GD32VW55x_RELEASE_V1.0.2/MSDK/wpa_supplicant/src/ap\wpa_auth_glue.c **** 				      (const u8 *) (data + 1),
 621:C:/Users/stapi/OneDrive/Desktop/GD32VW553/V1_MQTT_OK/GD32VW55X_Wifi_BLE_SDK/GD32VW55x_RELEASE_V1.0.2/MSDK/wpa_supplicant/src/ap\wpa_auth_glue.c **** 				      data->data_len);
 622:C:/Users/stapi/OneDrive/Desktop/GD32VW553/V1_MQTT_OK/GD32VW55X_Wifi_BLE_SDK/GD32VW55x_RELEASE_V1.0.2/MSDK/wpa_supplicant/src/ap\wpa_auth_glue.c **** 		}
 623:C:/Users/stapi/OneDrive/Desktop/GD32VW553/V1_MQTT_OK/GD32VW55X_Wifi_BLE_SDK/GD32VW55x_RELEASE_V1.0.2/MSDK/wpa_supplicant/src/ap\wpa_auth_glue.c **** 		dl_list_del(&data->list);
 624:C:/Users/stapi/OneDrive/Desktop/GD32VW553/V1_MQTT_OK/GD32VW55X_Wifi_BLE_SDK/GD32VW55x_RELEASE_V1.0.2/MSDK/wpa_supplicant/src/ap\wpa_auth_glue.c **** 		os_free(data);
 625:C:/Users/stapi/OneDrive/Desktop/GD32VW553/V1_MQTT_OK/GD32VW55X_Wifi_BLE_SDK/GD32VW55x_RELEASE_V1.0.2/MSDK/wpa_supplicant/src/ap\wpa_auth_glue.c **** 	}
 626:C:/Users/stapi/OneDrive/Desktop/GD32VW553/V1_MQTT_OK/GD32VW55X_Wifi_BLE_SDK/GD32VW55x_RELEASE_V1.0.2/MSDK/wpa_supplicant/src/ap\wpa_auth_glue.c **** }
 627:C:/Users/stapi/OneDrive/Desktop/GD32VW553/V1_MQTT_OK/GD32VW55X_Wifi_BLE_SDK/GD32VW55x_RELEASE_V1.0.2/MSDK/wpa_supplicant/src/ap\wpa_auth_glue.c **** 
 628:C:/Users/stapi/OneDrive/Desktop/GD32VW553/V1_MQTT_OK/GD32VW55X_Wifi_BLE_SDK/GD32VW55x_RELEASE_V1.0.2/MSDK/wpa_supplicant/src/ap\wpa_auth_glue.c **** 
 629:C:/Users/stapi/OneDrive/Desktop/GD32VW553/V1_MQTT_OK/GD32VW55X_Wifi_BLE_SDK/GD32VW55x_RELEASE_V1.0.2/MSDK/wpa_supplicant/src/ap\wpa_auth_glue.c **** struct wpa_auth_ft_iface_iter_data {
 630:C:/Users/stapi/OneDrive/Desktop/GD32VW553/V1_MQTT_OK/GD32VW55X_Wifi_BLE_SDK/GD32VW55x_RELEASE_V1.0.2/MSDK/wpa_supplicant/src/ap\wpa_auth_glue.c **** 	struct hostapd_data *src_hapd;
 631:C:/Users/stapi/OneDrive/Desktop/GD32VW553/V1_MQTT_OK/GD32VW55X_Wifi_BLE_SDK/GD32VW55x_RELEASE_V1.0.2/MSDK/wpa_supplicant/src/ap\wpa_auth_glue.c **** 	const u8 *dst;
 632:C:/Users/stapi/OneDrive/Desktop/GD32VW553/V1_MQTT_OK/GD32VW55X_Wifi_BLE_SDK/GD32VW55x_RELEASE_V1.0.2/MSDK/wpa_supplicant/src/ap\wpa_auth_glue.c **** 	const u8 *data;
 633:C:/Users/stapi/OneDrive/Desktop/GD32VW553/V1_MQTT_OK/GD32VW55X_Wifi_BLE_SDK/GD32VW55x_RELEASE_V1.0.2/MSDK/wpa_supplicant/src/ap\wpa_auth_glue.c **** 	size_t data_len;
 634:C:/Users/stapi/OneDrive/Desktop/GD32VW553/V1_MQTT_OK/GD32VW55X_Wifi_BLE_SDK/GD32VW55x_RELEASE_V1.0.2/MSDK/wpa_supplicant/src/ap\wpa_auth_glue.c **** };
 635:C:/Users/stapi/OneDrive/Desktop/GD32VW553/V1_MQTT_OK/GD32VW55X_Wifi_BLE_SDK/GD32VW55x_RELEASE_V1.0.2/MSDK/wpa_supplicant/src/ap\wpa_auth_glue.c **** 
 636:C:/Users/stapi/OneDrive/Desktop/GD32VW553/V1_MQTT_OK/GD32VW55X_Wifi_BLE_SDK/GD32VW55x_RELEASE_V1.0.2/MSDK/wpa_supplicant/src/ap\wpa_auth_glue.c **** 
 637:C:/Users/stapi/OneDrive/Desktop/GD32VW553/V1_MQTT_OK/GD32VW55X_Wifi_BLE_SDK/GD32VW55x_RELEASE_V1.0.2/MSDK/wpa_supplicant/src/ap\wpa_auth_glue.c **** static int hostapd_wpa_auth_ft_iter(struct hostapd_iface *iface, void *ctx)
 638:C:/Users/stapi/OneDrive/Desktop/GD32VW553/V1_MQTT_OK/GD32VW55X_Wifi_BLE_SDK/GD32VW55x_RELEASE_V1.0.2/MSDK/wpa_supplicant/src/ap\wpa_auth_glue.c **** {
 639:C:/Users/stapi/OneDrive/Desktop/GD32VW553/V1_MQTT_OK/GD32VW55X_Wifi_BLE_SDK/GD32VW55x_RELEASE_V1.0.2/MSDK/wpa_supplicant/src/ap\wpa_auth_glue.c **** 	struct wpa_auth_ft_iface_iter_data *idata = ctx;
 640:C:/Users/stapi/OneDrive/Desktop/GD32VW553/V1_MQTT_OK/GD32VW55X_Wifi_BLE_SDK/GD32VW55x_RELEASE_V1.0.2/MSDK/wpa_supplicant/src/ap\wpa_auth_glue.c **** 	struct wpa_ft_rrb_rx_later_data *data;
 641:C:/Users/stapi/OneDrive/Desktop/GD32VW553/V1_MQTT_OK/GD32VW55X_Wifi_BLE_SDK/GD32VW55x_RELEASE_V1.0.2/MSDK/wpa_supplicant/src/ap\wpa_auth_glue.c **** 	struct hostapd_data *hapd;
 642:C:/Users/stapi/OneDrive/Desktop/GD32VW553/V1_MQTT_OK/GD32VW55X_Wifi_BLE_SDK/GD32VW55x_RELEASE_V1.0.2/MSDK/wpa_supplicant/src/ap\wpa_auth_glue.c **** 	size_t j;
 643:C:/Users/stapi/OneDrive/Desktop/GD32VW553/V1_MQTT_OK/GD32VW55X_Wifi_BLE_SDK/GD32VW55x_RELEASE_V1.0.2/MSDK/wpa_supplicant/src/ap\wpa_auth_glue.c **** 
 644:C:/Users/stapi/OneDrive/Desktop/GD32VW553/V1_MQTT_OK/GD32VW55X_Wifi_BLE_SDK/GD32VW55x_RELEASE_V1.0.2/MSDK/wpa_supplicant/src/ap\wpa_auth_glue.c **** 	for (j = 0; j < iface->num_bss; j++) {
 645:C:/Users/stapi/OneDrive/Desktop/GD32VW553/V1_MQTT_OK/GD32VW55X_Wifi_BLE_SDK/GD32VW55x_RELEASE_V1.0.2/MSDK/wpa_supplicant/src/ap\wpa_auth_glue.c **** 		hapd = iface->bss[j];
 646:C:/Users/stapi/OneDrive/Desktop/GD32VW553/V1_MQTT_OK/GD32VW55X_Wifi_BLE_SDK/GD32VW55x_RELEASE_V1.0.2/MSDK/wpa_supplicant/src/ap\wpa_auth_glue.c **** 		if (hapd == idata->src_hapd ||
 647:C:/Users/stapi/OneDrive/Desktop/GD32VW553/V1_MQTT_OK/GD32VW55X_Wifi_BLE_SDK/GD32VW55x_RELEASE_V1.0.2/MSDK/wpa_supplicant/src/ap\wpa_auth_glue.c **** 		    !hapd->wpa_auth ||
 648:C:/Users/stapi/OneDrive/Desktop/GD32VW553/V1_MQTT_OK/GD32VW55X_Wifi_BLE_SDK/GD32VW55x_RELEASE_V1.0.2/MSDK/wpa_supplicant/src/ap\wpa_auth_glue.c **** 		    os_memcmp(hapd->own_addr, idata->dst, ETH_ALEN) != 0)
 649:C:/Users/stapi/OneDrive/Desktop/GD32VW553/V1_MQTT_OK/GD32VW55X_Wifi_BLE_SDK/GD32VW55x_RELEASE_V1.0.2/MSDK/wpa_supplicant/src/ap\wpa_auth_glue.c **** 			continue;
 650:C:/Users/stapi/OneDrive/Desktop/GD32VW553/V1_MQTT_OK/GD32VW55X_Wifi_BLE_SDK/GD32VW55x_RELEASE_V1.0.2/MSDK/wpa_supplicant/src/ap\wpa_auth_glue.c **** 
 651:C:/Users/stapi/OneDrive/Desktop/GD32VW553/V1_MQTT_OK/GD32VW55X_Wifi_BLE_SDK/GD32VW55x_RELEASE_V1.0.2/MSDK/wpa_supplicant/src/ap\wpa_auth_glue.c **** 		wpa_printf(MSG_DEBUG,
 652:C:/Users/stapi/OneDrive/Desktop/GD32VW553/V1_MQTT_OK/GD32VW55X_Wifi_BLE_SDK/GD32VW55x_RELEASE_V1.0.2/MSDK/wpa_supplicant/src/ap\wpa_auth_glue.c **** 			   "FT: Send RRB data directly to locally managed BSS "
 653:C:/Users/stapi/OneDrive/Desktop/GD32VW553/V1_MQTT_OK/GD32VW55X_Wifi_BLE_SDK/GD32VW55x_RELEASE_V1.0.2/MSDK/wpa_supplicant/src/ap\wpa_auth_glue.c **** 			   MACSTR "@%s -> " MACSTR "@%s",
 654:C:/Users/stapi/OneDrive/Desktop/GD32VW553/V1_MQTT_OK/GD32VW55X_Wifi_BLE_SDK/GD32VW55x_RELEASE_V1.0.2/MSDK/wpa_supplicant/src/ap\wpa_auth_glue.c **** 			   MAC2STR(idata->src_hapd->own_addr),
 655:C:/Users/stapi/OneDrive/Desktop/GD32VW553/V1_MQTT_OK/GD32VW55X_Wifi_BLE_SDK/GD32VW55x_RELEASE_V1.0.2/MSDK/wpa_supplicant/src/ap\wpa_auth_glue.c **** 			   idata->src_hapd->conf->iface,
 656:C:/Users/stapi/OneDrive/Desktop/GD32VW553/V1_MQTT_OK/GD32VW55X_Wifi_BLE_SDK/GD32VW55x_RELEASE_V1.0.2/MSDK/wpa_supplicant/src/ap\wpa_auth_glue.c **** 			   MAC2STR(hapd->own_addr), hapd->conf->iface);
 657:C:/Users/stapi/OneDrive/Desktop/GD32VW553/V1_MQTT_OK/GD32VW55X_Wifi_BLE_SDK/GD32VW55x_RELEASE_V1.0.2/MSDK/wpa_supplicant/src/ap\wpa_auth_glue.c **** 
 658:C:/Users/stapi/OneDrive/Desktop/GD32VW553/V1_MQTT_OK/GD32VW55X_Wifi_BLE_SDK/GD32VW55x_RELEASE_V1.0.2/MSDK/wpa_supplicant/src/ap\wpa_auth_glue.c **** 		/* Defer wpa_ft_rrb_rx() until next eloop step as this is
 659:C:/Users/stapi/OneDrive/Desktop/GD32VW553/V1_MQTT_OK/GD32VW55X_Wifi_BLE_SDK/GD32VW55x_RELEASE_V1.0.2/MSDK/wpa_supplicant/src/ap\wpa_auth_glue.c **** 		 * when it would be triggered when reading from a socket.
 660:C:/Users/stapi/OneDrive/Desktop/GD32VW553/V1_MQTT_OK/GD32VW55X_Wifi_BLE_SDK/GD32VW55x_RELEASE_V1.0.2/MSDK/wpa_supplicant/src/ap\wpa_auth_glue.c **** 		 * This avoids
 661:C:/Users/stapi/OneDrive/Desktop/GD32VW553/V1_MQTT_OK/GD32VW55X_Wifi_BLE_SDK/GD32VW55x_RELEASE_V1.0.2/MSDK/wpa_supplicant/src/ap\wpa_auth_glue.c **** 		 * hapd0:send -> hapd1:recv -> hapd1:send -> hapd0:recv,
 662:C:/Users/stapi/OneDrive/Desktop/GD32VW553/V1_MQTT_OK/GD32VW55X_Wifi_BLE_SDK/GD32VW55x_RELEASE_V1.0.2/MSDK/wpa_supplicant/src/ap\wpa_auth_glue.c **** 		 * that is calling hapd0:recv handler from within
 663:C:/Users/stapi/OneDrive/Desktop/GD32VW553/V1_MQTT_OK/GD32VW55X_Wifi_BLE_SDK/GD32VW55x_RELEASE_V1.0.2/MSDK/wpa_supplicant/src/ap\wpa_auth_glue.c **** 		 * hapd0:send directly.
 664:C:/Users/stapi/OneDrive/Desktop/GD32VW553/V1_MQTT_OK/GD32VW55X_Wifi_BLE_SDK/GD32VW55x_RELEASE_V1.0.2/MSDK/wpa_supplicant/src/ap\wpa_auth_glue.c **** 		 */
 665:C:/Users/stapi/OneDrive/Desktop/GD32VW553/V1_MQTT_OK/GD32VW55X_Wifi_BLE_SDK/GD32VW55x_RELEASE_V1.0.2/MSDK/wpa_supplicant/src/ap\wpa_auth_glue.c **** 		data = os_zalloc(sizeof(*data) + idata->data_len);
 666:C:/Users/stapi/OneDrive/Desktop/GD32VW553/V1_MQTT_OK/GD32VW55X_Wifi_BLE_SDK/GD32VW55x_RELEASE_V1.0.2/MSDK/wpa_supplicant/src/ap\wpa_auth_glue.c **** 		if (!data)
 667:C:/Users/stapi/OneDrive/Desktop/GD32VW553/V1_MQTT_OK/GD32VW55X_Wifi_BLE_SDK/GD32VW55x_RELEASE_V1.0.2/MSDK/wpa_supplicant/src/ap\wpa_auth_glue.c **** 			return 1;
 668:C:/Users/stapi/OneDrive/Desktop/GD32VW553/V1_MQTT_OK/GD32VW55X_Wifi_BLE_SDK/GD32VW55x_RELEASE_V1.0.2/MSDK/wpa_supplicant/src/ap\wpa_auth_glue.c **** 
 669:C:/Users/stapi/OneDrive/Desktop/GD32VW553/V1_MQTT_OK/GD32VW55X_Wifi_BLE_SDK/GD32VW55x_RELEASE_V1.0.2/MSDK/wpa_supplicant/src/ap\wpa_auth_glue.c **** 		os_memcpy(data->addr, idata->src_hapd->own_addr, ETH_ALEN);
 670:C:/Users/stapi/OneDrive/Desktop/GD32VW553/V1_MQTT_OK/GD32VW55X_Wifi_BLE_SDK/GD32VW55x_RELEASE_V1.0.2/MSDK/wpa_supplicant/src/ap\wpa_auth_glue.c **** 		os_memcpy(data + 1, idata->data, idata->data_len);
 671:C:/Users/stapi/OneDrive/Desktop/GD32VW553/V1_MQTT_OK/GD32VW55X_Wifi_BLE_SDK/GD32VW55x_RELEASE_V1.0.2/MSDK/wpa_supplicant/src/ap\wpa_auth_glue.c **** 		data->data_len = idata->data_len;
 672:C:/Users/stapi/OneDrive/Desktop/GD32VW553/V1_MQTT_OK/GD32VW55X_Wifi_BLE_SDK/GD32VW55x_RELEASE_V1.0.2/MSDK/wpa_supplicant/src/ap\wpa_auth_glue.c **** 
 673:C:/Users/stapi/OneDrive/Desktop/GD32VW553/V1_MQTT_OK/GD32VW55X_Wifi_BLE_SDK/GD32VW55x_RELEASE_V1.0.2/MSDK/wpa_supplicant/src/ap\wpa_auth_glue.c **** 		dl_list_add(&hapd->l2_queue, &data->list);
 674:C:/Users/stapi/OneDrive/Desktop/GD32VW553/V1_MQTT_OK/GD32VW55X_Wifi_BLE_SDK/GD32VW55x_RELEASE_V1.0.2/MSDK/wpa_supplicant/src/ap\wpa_auth_glue.c **** 
 675:C:/Users/stapi/OneDrive/Desktop/GD32VW553/V1_MQTT_OK/GD32VW55X_Wifi_BLE_SDK/GD32VW55x_RELEASE_V1.0.2/MSDK/wpa_supplicant/src/ap\wpa_auth_glue.c **** 		if (!eloop_is_timeout_registered(hostapd_wpa_ft_rrb_rx_later,
 676:C:/Users/stapi/OneDrive/Desktop/GD32VW553/V1_MQTT_OK/GD32VW55X_Wifi_BLE_SDK/GD32VW55x_RELEASE_V1.0.2/MSDK/wpa_supplicant/src/ap\wpa_auth_glue.c **** 						 hapd, NULL))
 677:C:/Users/stapi/OneDrive/Desktop/GD32VW553/V1_MQTT_OK/GD32VW55X_Wifi_BLE_SDK/GD32VW55x_RELEASE_V1.0.2/MSDK/wpa_supplicant/src/ap\wpa_auth_glue.c **** 			eloop_register_timeout(0, 0,
 678:C:/Users/stapi/OneDrive/Desktop/GD32VW553/V1_MQTT_OK/GD32VW55X_Wifi_BLE_SDK/GD32VW55x_RELEASE_V1.0.2/MSDK/wpa_supplicant/src/ap\wpa_auth_glue.c **** 					       hostapd_wpa_ft_rrb_rx_later,
 679:C:/Users/stapi/OneDrive/Desktop/GD32VW553/V1_MQTT_OK/GD32VW55X_Wifi_BLE_SDK/GD32VW55x_RELEASE_V1.0.2/MSDK/wpa_supplicant/src/ap\wpa_auth_glue.c **** 					       hapd, NULL);
 680:C:/Users/stapi/OneDrive/Desktop/GD32VW553/V1_MQTT_OK/GD32VW55X_Wifi_BLE_SDK/GD32VW55x_RELEASE_V1.0.2/MSDK/wpa_supplicant/src/ap\wpa_auth_glue.c **** 
 681:C:/Users/stapi/OneDrive/Desktop/GD32VW553/V1_MQTT_OK/GD32VW55X_Wifi_BLE_SDK/GD32VW55x_RELEASE_V1.0.2/MSDK/wpa_supplicant/src/ap\wpa_auth_glue.c **** 		return 1;
 682:C:/Users/stapi/OneDrive/Desktop/GD32VW553/V1_MQTT_OK/GD32VW55X_Wifi_BLE_SDK/GD32VW55x_RELEASE_V1.0.2/MSDK/wpa_supplicant/src/ap\wpa_auth_glue.c **** 	}
 683:C:/Users/stapi/OneDrive/Desktop/GD32VW553/V1_MQTT_OK/GD32VW55X_Wifi_BLE_SDK/GD32VW55x_RELEASE_V1.0.2/MSDK/wpa_supplicant/src/ap\wpa_auth_glue.c **** 
 684:C:/Users/stapi/OneDrive/Desktop/GD32VW553/V1_MQTT_OK/GD32VW55X_Wifi_BLE_SDK/GD32VW55x_RELEASE_V1.0.2/MSDK/wpa_supplicant/src/ap\wpa_auth_glue.c **** 	return 0;
 685:C:/Users/stapi/OneDrive/Desktop/GD32VW553/V1_MQTT_OK/GD32VW55X_Wifi_BLE_SDK/GD32VW55x_RELEASE_V1.0.2/MSDK/wpa_supplicant/src/ap\wpa_auth_glue.c **** }
 686:C:/Users/stapi/OneDrive/Desktop/GD32VW553/V1_MQTT_OK/GD32VW55X_Wifi_BLE_SDK/GD32VW55x_RELEASE_V1.0.2/MSDK/wpa_supplicant/src/ap\wpa_auth_glue.c **** 
 687:C:/Users/stapi/OneDrive/Desktop/GD32VW553/V1_MQTT_OK/GD32VW55X_Wifi_BLE_SDK/GD32VW55x_RELEASE_V1.0.2/MSDK/wpa_supplicant/src/ap\wpa_auth_glue.c **** #endif /* CONFIG_IEEE80211R_AP */
 688:C:/Users/stapi/OneDrive/Desktop/GD32VW553/V1_MQTT_OK/GD32VW55X_Wifi_BLE_SDK/GD32VW55x_RELEASE_V1.0.2/MSDK/wpa_supplicant/src/ap\wpa_auth_glue.c **** 
 689:C:/Users/stapi/OneDrive/Desktop/GD32VW553/V1_MQTT_OK/GD32VW55X_Wifi_BLE_SDK/GD32VW55x_RELEASE_V1.0.2/MSDK/wpa_supplicant/src/ap\wpa_auth_glue.c **** 
 690:C:/Users/stapi/OneDrive/Desktop/GD32VW553/V1_MQTT_OK/GD32VW55X_Wifi_BLE_SDK/GD32VW55x_RELEASE_V1.0.2/MSDK/wpa_supplicant/src/ap\wpa_auth_glue.c **** static int hostapd_wpa_auth_send_ether(void *ctx, const u8 *dst, u16 proto,
 691:C:/Users/stapi/OneDrive/Desktop/GD32VW553/V1_MQTT_OK/GD32VW55X_Wifi_BLE_SDK/GD32VW55x_RELEASE_V1.0.2/MSDK/wpa_supplicant/src/ap\wpa_auth_glue.c **** 				       const u8 *data, size_t data_len)
 692:C:/Users/stapi/OneDrive/Desktop/GD32VW553/V1_MQTT_OK/GD32VW55X_Wifi_BLE_SDK/GD32VW55x_RELEASE_V1.0.2/MSDK/wpa_supplicant/src/ap\wpa_auth_glue.c **** {
 693:C:/Users/stapi/OneDrive/Desktop/GD32VW553/V1_MQTT_OK/GD32VW55X_Wifi_BLE_SDK/GD32VW55x_RELEASE_V1.0.2/MSDK/wpa_supplicant/src/ap\wpa_auth_glue.c **** 	struct hostapd_data *hapd = ctx;
 694:C:/Users/stapi/OneDrive/Desktop/GD32VW553/V1_MQTT_OK/GD32VW55X_Wifi_BLE_SDK/GD32VW55x_RELEASE_V1.0.2/MSDK/wpa_supplicant/src/ap\wpa_auth_glue.c **** 	struct l2_ethhdr *buf;
 695:C:/Users/stapi/OneDrive/Desktop/GD32VW553/V1_MQTT_OK/GD32VW55X_Wifi_BLE_SDK/GD32VW55x_RELEASE_V1.0.2/MSDK/wpa_supplicant/src/ap\wpa_auth_glue.c **** 	int ret;
 696:C:/Users/stapi/OneDrive/Desktop/GD32VW553/V1_MQTT_OK/GD32VW55X_Wifi_BLE_SDK/GD32VW55x_RELEASE_V1.0.2/MSDK/wpa_supplicant/src/ap\wpa_auth_glue.c **** 
 697:C:/Users/stapi/OneDrive/Desktop/GD32VW553/V1_MQTT_OK/GD32VW55X_Wifi_BLE_SDK/GD32VW55x_RELEASE_V1.0.2/MSDK/wpa_supplicant/src/ap\wpa_auth_glue.c **** #ifdef CONFIG_TESTING_OPTIONS
 698:C:/Users/stapi/OneDrive/Desktop/GD32VW553/V1_MQTT_OK/GD32VW55X_Wifi_BLE_SDK/GD32VW55x_RELEASE_V1.0.2/MSDK/wpa_supplicant/src/ap\wpa_auth_glue.c **** 	if (hapd->ext_eapol_frame_io && proto == ETH_P_EAPOL) {
 699:C:/Users/stapi/OneDrive/Desktop/GD32VW553/V1_MQTT_OK/GD32VW55X_Wifi_BLE_SDK/GD32VW55x_RELEASE_V1.0.2/MSDK/wpa_supplicant/src/ap\wpa_auth_glue.c **** 		size_t hex_len = 2 * data_len + 1;
 700:C:/Users/stapi/OneDrive/Desktop/GD32VW553/V1_MQTT_OK/GD32VW55X_Wifi_BLE_SDK/GD32VW55x_RELEASE_V1.0.2/MSDK/wpa_supplicant/src/ap\wpa_auth_glue.c **** 		char *hex = os_malloc(hex_len);
 701:C:/Users/stapi/OneDrive/Desktop/GD32VW553/V1_MQTT_OK/GD32VW55X_Wifi_BLE_SDK/GD32VW55x_RELEASE_V1.0.2/MSDK/wpa_supplicant/src/ap\wpa_auth_glue.c **** 
 702:C:/Users/stapi/OneDrive/Desktop/GD32VW553/V1_MQTT_OK/GD32VW55X_Wifi_BLE_SDK/GD32VW55x_RELEASE_V1.0.2/MSDK/wpa_supplicant/src/ap\wpa_auth_glue.c **** 		if (hex == NULL)
 703:C:/Users/stapi/OneDrive/Desktop/GD32VW553/V1_MQTT_OK/GD32VW55X_Wifi_BLE_SDK/GD32VW55x_RELEASE_V1.0.2/MSDK/wpa_supplicant/src/ap\wpa_auth_glue.c **** 			return -1;
 704:C:/Users/stapi/OneDrive/Desktop/GD32VW553/V1_MQTT_OK/GD32VW55X_Wifi_BLE_SDK/GD32VW55x_RELEASE_V1.0.2/MSDK/wpa_supplicant/src/ap\wpa_auth_glue.c **** 		wpa_snprintf_hex(hex, hex_len, data, data_len);
 705:C:/Users/stapi/OneDrive/Desktop/GD32VW553/V1_MQTT_OK/GD32VW55X_Wifi_BLE_SDK/GD32VW55x_RELEASE_V1.0.2/MSDK/wpa_supplicant/src/ap\wpa_auth_glue.c **** 		wpa_msg(hapd->msg_ctx, MSG_INFO, "EAPOL-TX " MACSTR " %s",
 706:C:/Users/stapi/OneDrive/Desktop/GD32VW553/V1_MQTT_OK/GD32VW55X_Wifi_BLE_SDK/GD32VW55x_RELEASE_V1.0.2/MSDK/wpa_supplicant/src/ap\wpa_auth_glue.c **** 			MAC2STR(dst), hex);
 707:C:/Users/stapi/OneDrive/Desktop/GD32VW553/V1_MQTT_OK/GD32VW55X_Wifi_BLE_SDK/GD32VW55x_RELEASE_V1.0.2/MSDK/wpa_supplicant/src/ap\wpa_auth_glue.c **** 		os_free(hex);
 708:C:/Users/stapi/OneDrive/Desktop/GD32VW553/V1_MQTT_OK/GD32VW55X_Wifi_BLE_SDK/GD32VW55x_RELEASE_V1.0.2/MSDK/wpa_supplicant/src/ap\wpa_auth_glue.c **** 		return 0;
 709:C:/Users/stapi/OneDrive/Desktop/GD32VW553/V1_MQTT_OK/GD32VW55X_Wifi_BLE_SDK/GD32VW55x_RELEASE_V1.0.2/MSDK/wpa_supplicant/src/ap\wpa_auth_glue.c **** 	}
 710:C:/Users/stapi/OneDrive/Desktop/GD32VW553/V1_MQTT_OK/GD32VW55X_Wifi_BLE_SDK/GD32VW55x_RELEASE_V1.0.2/MSDK/wpa_supplicant/src/ap\wpa_auth_glue.c **** #endif /* CONFIG_TESTING_OPTIONS */
 711:C:/Users/stapi/OneDrive/Desktop/GD32VW553/V1_MQTT_OK/GD32VW55X_Wifi_BLE_SDK/GD32VW55x_RELEASE_V1.0.2/MSDK/wpa_supplicant/src/ap\wpa_auth_glue.c **** 
 712:C:/Users/stapi/OneDrive/Desktop/GD32VW553/V1_MQTT_OK/GD32VW55X_Wifi_BLE_SDK/GD32VW55x_RELEASE_V1.0.2/MSDK/wpa_supplicant/src/ap\wpa_auth_glue.c **** #ifdef CONFIG_IEEE80211R_AP
 713:C:/Users/stapi/OneDrive/Desktop/GD32VW553/V1_MQTT_OK/GD32VW55X_Wifi_BLE_SDK/GD32VW55x_RELEASE_V1.0.2/MSDK/wpa_supplicant/src/ap\wpa_auth_glue.c **** 	if (proto == ETH_P_RRB && hapd->iface->interfaces &&
 714:C:/Users/stapi/OneDrive/Desktop/GD32VW553/V1_MQTT_OK/GD32VW55X_Wifi_BLE_SDK/GD32VW55x_RELEASE_V1.0.2/MSDK/wpa_supplicant/src/ap\wpa_auth_glue.c **** 	    hapd->iface->interfaces->for_each_interface) {
 715:C:/Users/stapi/OneDrive/Desktop/GD32VW553/V1_MQTT_OK/GD32VW55X_Wifi_BLE_SDK/GD32VW55x_RELEASE_V1.0.2/MSDK/wpa_supplicant/src/ap\wpa_auth_glue.c **** 		int res;
 716:C:/Users/stapi/OneDrive/Desktop/GD32VW553/V1_MQTT_OK/GD32VW55X_Wifi_BLE_SDK/GD32VW55x_RELEASE_V1.0.2/MSDK/wpa_supplicant/src/ap\wpa_auth_glue.c **** 		struct wpa_auth_ft_iface_iter_data idata;
 717:C:/Users/stapi/OneDrive/Desktop/GD32VW553/V1_MQTT_OK/GD32VW55X_Wifi_BLE_SDK/GD32VW55x_RELEASE_V1.0.2/MSDK/wpa_supplicant/src/ap\wpa_auth_glue.c **** 		idata.src_hapd = hapd;
 718:C:/Users/stapi/OneDrive/Desktop/GD32VW553/V1_MQTT_OK/GD32VW55X_Wifi_BLE_SDK/GD32VW55x_RELEASE_V1.0.2/MSDK/wpa_supplicant/src/ap\wpa_auth_glue.c **** 		idata.dst = dst;
 719:C:/Users/stapi/OneDrive/Desktop/GD32VW553/V1_MQTT_OK/GD32VW55X_Wifi_BLE_SDK/GD32VW55x_RELEASE_V1.0.2/MSDK/wpa_supplicant/src/ap\wpa_auth_glue.c **** 		idata.data = data;
 720:C:/Users/stapi/OneDrive/Desktop/GD32VW553/V1_MQTT_OK/GD32VW55X_Wifi_BLE_SDK/GD32VW55x_RELEASE_V1.0.2/MSDK/wpa_supplicant/src/ap\wpa_auth_glue.c **** 		idata.data_len = data_len;
 721:C:/Users/stapi/OneDrive/Desktop/GD32VW553/V1_MQTT_OK/GD32VW55X_Wifi_BLE_SDK/GD32VW55x_RELEASE_V1.0.2/MSDK/wpa_supplicant/src/ap\wpa_auth_glue.c **** 		res = hapd->iface->interfaces->for_each_interface(
 722:C:/Users/stapi/OneDrive/Desktop/GD32VW553/V1_MQTT_OK/GD32VW55X_Wifi_BLE_SDK/GD32VW55x_RELEASE_V1.0.2/MSDK/wpa_supplicant/src/ap\wpa_auth_glue.c **** 			hapd->iface->interfaces, hostapd_wpa_auth_ft_iter,
 723:C:/Users/stapi/OneDrive/Desktop/GD32VW553/V1_MQTT_OK/GD32VW55X_Wifi_BLE_SDK/GD32VW55x_RELEASE_V1.0.2/MSDK/wpa_supplicant/src/ap\wpa_auth_glue.c **** 			&idata);
 724:C:/Users/stapi/OneDrive/Desktop/GD32VW553/V1_MQTT_OK/GD32VW55X_Wifi_BLE_SDK/GD32VW55x_RELEASE_V1.0.2/MSDK/wpa_supplicant/src/ap\wpa_auth_glue.c **** 		if (res == 1)
 725:C:/Users/stapi/OneDrive/Desktop/GD32VW553/V1_MQTT_OK/GD32VW55X_Wifi_BLE_SDK/GD32VW55x_RELEASE_V1.0.2/MSDK/wpa_supplicant/src/ap\wpa_auth_glue.c **** 			return data_len;
 726:C:/Users/stapi/OneDrive/Desktop/GD32VW553/V1_MQTT_OK/GD32VW55X_Wifi_BLE_SDK/GD32VW55x_RELEASE_V1.0.2/MSDK/wpa_supplicant/src/ap\wpa_auth_glue.c **** 	}
 727:C:/Users/stapi/OneDrive/Desktop/GD32VW553/V1_MQTT_OK/GD32VW55X_Wifi_BLE_SDK/GD32VW55x_RELEASE_V1.0.2/MSDK/wpa_supplicant/src/ap\wpa_auth_glue.c **** #endif /* CONFIG_IEEE80211R_AP */
 728:C:/Users/stapi/OneDrive/Desktop/GD32VW553/V1_MQTT_OK/GD32VW55X_Wifi_BLE_SDK/GD32VW55x_RELEASE_V1.0.2/MSDK/wpa_supplicant/src/ap\wpa_auth_glue.c **** 
 729:C:/Users/stapi/OneDrive/Desktop/GD32VW553/V1_MQTT_OK/GD32VW55X_Wifi_BLE_SDK/GD32VW55x_RELEASE_V1.0.2/MSDK/wpa_supplicant/src/ap\wpa_auth_glue.c **** 	if (hapd->l2 == NULL)
 730:C:/Users/stapi/OneDrive/Desktop/GD32VW553/V1_MQTT_OK/GD32VW55X_Wifi_BLE_SDK/GD32VW55x_RELEASE_V1.0.2/MSDK/wpa_supplicant/src/ap\wpa_auth_glue.c **** 		return -1;
 731:C:/Users/stapi/OneDrive/Desktop/GD32VW553/V1_MQTT_OK/GD32VW55X_Wifi_BLE_SDK/GD32VW55x_RELEASE_V1.0.2/MSDK/wpa_supplicant/src/ap\wpa_auth_glue.c **** 
 732:C:/Users/stapi/OneDrive/Desktop/GD32VW553/V1_MQTT_OK/GD32VW55X_Wifi_BLE_SDK/GD32VW55x_RELEASE_V1.0.2/MSDK/wpa_supplicant/src/ap\wpa_auth_glue.c **** 	buf = os_malloc(sizeof(*buf) + data_len);
 733:C:/Users/stapi/OneDrive/Desktop/GD32VW553/V1_MQTT_OK/GD32VW55X_Wifi_BLE_SDK/GD32VW55x_RELEASE_V1.0.2/MSDK/wpa_supplicant/src/ap\wpa_auth_glue.c **** 	if (buf == NULL)
 734:C:/Users/stapi/OneDrive/Desktop/GD32VW553/V1_MQTT_OK/GD32VW55X_Wifi_BLE_SDK/GD32VW55x_RELEASE_V1.0.2/MSDK/wpa_supplicant/src/ap\wpa_auth_glue.c **** 		return -1;
 735:C:/Users/stapi/OneDrive/Desktop/GD32VW553/V1_MQTT_OK/GD32VW55X_Wifi_BLE_SDK/GD32VW55x_RELEASE_V1.0.2/MSDK/wpa_supplicant/src/ap\wpa_auth_glue.c **** 	os_memcpy(buf->h_dest, dst, ETH_ALEN);
 736:C:/Users/stapi/OneDrive/Desktop/GD32VW553/V1_MQTT_OK/GD32VW55X_Wifi_BLE_SDK/GD32VW55x_RELEASE_V1.0.2/MSDK/wpa_supplicant/src/ap\wpa_auth_glue.c **** 	os_memcpy(buf->h_source, hapd->own_addr, ETH_ALEN);
 737:C:/Users/stapi/OneDrive/Desktop/GD32VW553/V1_MQTT_OK/GD32VW55X_Wifi_BLE_SDK/GD32VW55x_RELEASE_V1.0.2/MSDK/wpa_supplicant/src/ap\wpa_auth_glue.c **** 	buf->h_proto = host_to_be16(proto);
 738:C:/Users/stapi/OneDrive/Desktop/GD32VW553/V1_MQTT_OK/GD32VW55X_Wifi_BLE_SDK/GD32VW55x_RELEASE_V1.0.2/MSDK/wpa_supplicant/src/ap\wpa_auth_glue.c **** 	os_memcpy(buf + 1, data, data_len);
 739:C:/Users/stapi/OneDrive/Desktop/GD32VW553/V1_MQTT_OK/GD32VW55X_Wifi_BLE_SDK/GD32VW55x_RELEASE_V1.0.2/MSDK/wpa_supplicant/src/ap\wpa_auth_glue.c **** 	ret = l2_packet_send(hapd->l2, dst, proto, (u8 *) buf,
 740:C:/Users/stapi/OneDrive/Desktop/GD32VW553/V1_MQTT_OK/GD32VW55X_Wifi_BLE_SDK/GD32VW55x_RELEASE_V1.0.2/MSDK/wpa_supplicant/src/ap\wpa_auth_glue.c **** 			     sizeof(*buf) + data_len);
 741:C:/Users/stapi/OneDrive/Desktop/GD32VW553/V1_MQTT_OK/GD32VW55X_Wifi_BLE_SDK/GD32VW55x_RELEASE_V1.0.2/MSDK/wpa_supplicant/src/ap\wpa_auth_glue.c **** 	os_free(buf);
 742:C:/Users/stapi/OneDrive/Desktop/GD32VW553/V1_MQTT_OK/GD32VW55X_Wifi_BLE_SDK/GD32VW55x_RELEASE_V1.0.2/MSDK/wpa_supplicant/src/ap\wpa_auth_glue.c **** 	return ret;
 743:C:/Users/stapi/OneDrive/Desktop/GD32VW553/V1_MQTT_OK/GD32VW55X_Wifi_BLE_SDK/GD32VW55x_RELEASE_V1.0.2/MSDK/wpa_supplicant/src/ap\wpa_auth_glue.c **** }
 744:C:/Users/stapi/OneDrive/Desktop/GD32VW553/V1_MQTT_OK/GD32VW55X_Wifi_BLE_SDK/GD32VW55x_RELEASE_V1.0.2/MSDK/wpa_supplicant/src/ap\wpa_auth_glue.c **** 
 745:C:/Users/stapi/OneDrive/Desktop/GD32VW553/V1_MQTT_OK/GD32VW55X_Wifi_BLE_SDK/GD32VW55x_RELEASE_V1.0.2/MSDK/wpa_supplicant/src/ap\wpa_auth_glue.c **** 
 746:C:/Users/stapi/OneDrive/Desktop/GD32VW553/V1_MQTT_OK/GD32VW55X_Wifi_BLE_SDK/GD32VW55x_RELEASE_V1.0.2/MSDK/wpa_supplicant/src/ap\wpa_auth_glue.c **** #ifdef CONFIG_ETH_P_OUI
 747:C:/Users/stapi/OneDrive/Desktop/GD32VW553/V1_MQTT_OK/GD32VW55X_Wifi_BLE_SDK/GD32VW55x_RELEASE_V1.0.2/MSDK/wpa_supplicant/src/ap\wpa_auth_glue.c **** static struct eth_p_oui_ctx * hostapd_wpa_get_oui(struct hostapd_data *hapd,
 748:C:/Users/stapi/OneDrive/Desktop/GD32VW553/V1_MQTT_OK/GD32VW55X_Wifi_BLE_SDK/GD32VW55x_RELEASE_V1.0.2/MSDK/wpa_supplicant/src/ap\wpa_auth_glue.c **** 						  u8 oui_suffix)
 749:C:/Users/stapi/OneDrive/Desktop/GD32VW553/V1_MQTT_OK/GD32VW55X_Wifi_BLE_SDK/GD32VW55x_RELEASE_V1.0.2/MSDK/wpa_supplicant/src/ap\wpa_auth_glue.c **** {
 750:C:/Users/stapi/OneDrive/Desktop/GD32VW553/V1_MQTT_OK/GD32VW55X_Wifi_BLE_SDK/GD32VW55x_RELEASE_V1.0.2/MSDK/wpa_supplicant/src/ap\wpa_auth_glue.c **** 	switch (oui_suffix) {
 751:C:/Users/stapi/OneDrive/Desktop/GD32VW553/V1_MQTT_OK/GD32VW55X_Wifi_BLE_SDK/GD32VW55x_RELEASE_V1.0.2/MSDK/wpa_supplicant/src/ap\wpa_auth_glue.c **** #ifdef CONFIG_IEEE80211R_AP
 752:C:/Users/stapi/OneDrive/Desktop/GD32VW553/V1_MQTT_OK/GD32VW55X_Wifi_BLE_SDK/GD32VW55x_RELEASE_V1.0.2/MSDK/wpa_supplicant/src/ap\wpa_auth_glue.c **** 	case FT_PACKET_R0KH_R1KH_PULL:
 753:C:/Users/stapi/OneDrive/Desktop/GD32VW553/V1_MQTT_OK/GD32VW55X_Wifi_BLE_SDK/GD32VW55x_RELEASE_V1.0.2/MSDK/wpa_supplicant/src/ap\wpa_auth_glue.c **** 		return hapd->oui_pull;
 754:C:/Users/stapi/OneDrive/Desktop/GD32VW553/V1_MQTT_OK/GD32VW55X_Wifi_BLE_SDK/GD32VW55x_RELEASE_V1.0.2/MSDK/wpa_supplicant/src/ap\wpa_auth_glue.c **** 	case FT_PACKET_R0KH_R1KH_RESP:
 755:C:/Users/stapi/OneDrive/Desktop/GD32VW553/V1_MQTT_OK/GD32VW55X_Wifi_BLE_SDK/GD32VW55x_RELEASE_V1.0.2/MSDK/wpa_supplicant/src/ap\wpa_auth_glue.c **** 		return hapd->oui_resp;
 756:C:/Users/stapi/OneDrive/Desktop/GD32VW553/V1_MQTT_OK/GD32VW55X_Wifi_BLE_SDK/GD32VW55x_RELEASE_V1.0.2/MSDK/wpa_supplicant/src/ap\wpa_auth_glue.c **** 	case FT_PACKET_R0KH_R1KH_PUSH:
 757:C:/Users/stapi/OneDrive/Desktop/GD32VW553/V1_MQTT_OK/GD32VW55X_Wifi_BLE_SDK/GD32VW55x_RELEASE_V1.0.2/MSDK/wpa_supplicant/src/ap\wpa_auth_glue.c **** 		return hapd->oui_push;
 758:C:/Users/stapi/OneDrive/Desktop/GD32VW553/V1_MQTT_OK/GD32VW55X_Wifi_BLE_SDK/GD32VW55x_RELEASE_V1.0.2/MSDK/wpa_supplicant/src/ap\wpa_auth_glue.c **** 	case FT_PACKET_R0KH_R1KH_SEQ_REQ:
 759:C:/Users/stapi/OneDrive/Desktop/GD32VW553/V1_MQTT_OK/GD32VW55X_Wifi_BLE_SDK/GD32VW55x_RELEASE_V1.0.2/MSDK/wpa_supplicant/src/ap\wpa_auth_glue.c **** 		return hapd->oui_sreq;
 760:C:/Users/stapi/OneDrive/Desktop/GD32VW553/V1_MQTT_OK/GD32VW55X_Wifi_BLE_SDK/GD32VW55x_RELEASE_V1.0.2/MSDK/wpa_supplicant/src/ap\wpa_auth_glue.c **** 	case FT_PACKET_R0KH_R1KH_SEQ_RESP:
 761:C:/Users/stapi/OneDrive/Desktop/GD32VW553/V1_MQTT_OK/GD32VW55X_Wifi_BLE_SDK/GD32VW55x_RELEASE_V1.0.2/MSDK/wpa_supplicant/src/ap\wpa_auth_glue.c **** 		return hapd->oui_sresp;
 762:C:/Users/stapi/OneDrive/Desktop/GD32VW553/V1_MQTT_OK/GD32VW55X_Wifi_BLE_SDK/GD32VW55x_RELEASE_V1.0.2/MSDK/wpa_supplicant/src/ap\wpa_auth_glue.c **** #endif /* CONFIG_IEEE80211R_AP */
 763:C:/Users/stapi/OneDrive/Desktop/GD32VW553/V1_MQTT_OK/GD32VW55X_Wifi_BLE_SDK/GD32VW55x_RELEASE_V1.0.2/MSDK/wpa_supplicant/src/ap\wpa_auth_glue.c **** 	default:
 764:C:/Users/stapi/OneDrive/Desktop/GD32VW553/V1_MQTT_OK/GD32VW55X_Wifi_BLE_SDK/GD32VW55x_RELEASE_V1.0.2/MSDK/wpa_supplicant/src/ap\wpa_auth_glue.c **** 		return NULL;
 765:C:/Users/stapi/OneDrive/Desktop/GD32VW553/V1_MQTT_OK/GD32VW55X_Wifi_BLE_SDK/GD32VW55x_RELEASE_V1.0.2/MSDK/wpa_supplicant/src/ap\wpa_auth_glue.c **** 	}
 766:C:/Users/stapi/OneDrive/Desktop/GD32VW553/V1_MQTT_OK/GD32VW55X_Wifi_BLE_SDK/GD32VW55x_RELEASE_V1.0.2/MSDK/wpa_supplicant/src/ap\wpa_auth_glue.c **** }
 767:C:/Users/stapi/OneDrive/Desktop/GD32VW553/V1_MQTT_OK/GD32VW55X_Wifi_BLE_SDK/GD32VW55x_RELEASE_V1.0.2/MSDK/wpa_supplicant/src/ap\wpa_auth_glue.c **** #endif /* CONFIG_ETH_P_OUI */
 768:C:/Users/stapi/OneDrive/Desktop/GD32VW553/V1_MQTT_OK/GD32VW55X_Wifi_BLE_SDK/GD32VW55x_RELEASE_V1.0.2/MSDK/wpa_supplicant/src/ap\wpa_auth_glue.c **** 
 769:C:/Users/stapi/OneDrive/Desktop/GD32VW553/V1_MQTT_OK/GD32VW55X_Wifi_BLE_SDK/GD32VW55x_RELEASE_V1.0.2/MSDK/wpa_supplicant/src/ap\wpa_auth_glue.c **** 
 770:C:/Users/stapi/OneDrive/Desktop/GD32VW553/V1_MQTT_OK/GD32VW55X_Wifi_BLE_SDK/GD32VW55x_RELEASE_V1.0.2/MSDK/wpa_supplicant/src/ap\wpa_auth_glue.c **** #ifdef CONFIG_IEEE80211R_AP
 771:C:/Users/stapi/OneDrive/Desktop/GD32VW553/V1_MQTT_OK/GD32VW55X_Wifi_BLE_SDK/GD32VW55x_RELEASE_V1.0.2/MSDK/wpa_supplicant/src/ap\wpa_auth_glue.c **** 
 772:C:/Users/stapi/OneDrive/Desktop/GD32VW553/V1_MQTT_OK/GD32VW55X_Wifi_BLE_SDK/GD32VW55x_RELEASE_V1.0.2/MSDK/wpa_supplicant/src/ap\wpa_auth_glue.c **** struct oui_deliver_later_data {
 773:C:/Users/stapi/OneDrive/Desktop/GD32VW553/V1_MQTT_OK/GD32VW55X_Wifi_BLE_SDK/GD32VW55x_RELEASE_V1.0.2/MSDK/wpa_supplicant/src/ap\wpa_auth_glue.c **** 	struct dl_list list;
 774:C:/Users/stapi/OneDrive/Desktop/GD32VW553/V1_MQTT_OK/GD32VW55X_Wifi_BLE_SDK/GD32VW55x_RELEASE_V1.0.2/MSDK/wpa_supplicant/src/ap\wpa_auth_glue.c **** 	u8 src_addr[ETH_ALEN];
 775:C:/Users/stapi/OneDrive/Desktop/GD32VW553/V1_MQTT_OK/GD32VW55X_Wifi_BLE_SDK/GD32VW55x_RELEASE_V1.0.2/MSDK/wpa_supplicant/src/ap\wpa_auth_glue.c **** 	u8 dst_addr[ETH_ALEN];
 776:C:/Users/stapi/OneDrive/Desktop/GD32VW553/V1_MQTT_OK/GD32VW55X_Wifi_BLE_SDK/GD32VW55x_RELEASE_V1.0.2/MSDK/wpa_supplicant/src/ap\wpa_auth_glue.c **** 	size_t data_len;
 777:C:/Users/stapi/OneDrive/Desktop/GD32VW553/V1_MQTT_OK/GD32VW55X_Wifi_BLE_SDK/GD32VW55x_RELEASE_V1.0.2/MSDK/wpa_supplicant/src/ap\wpa_auth_glue.c **** 	u8 oui_suffix;
 778:C:/Users/stapi/OneDrive/Desktop/GD32VW553/V1_MQTT_OK/GD32VW55X_Wifi_BLE_SDK/GD32VW55x_RELEASE_V1.0.2/MSDK/wpa_supplicant/src/ap\wpa_auth_glue.c **** 	/* followed by data_len octets of data */
 779:C:/Users/stapi/OneDrive/Desktop/GD32VW553/V1_MQTT_OK/GD32VW55X_Wifi_BLE_SDK/GD32VW55x_RELEASE_V1.0.2/MSDK/wpa_supplicant/src/ap\wpa_auth_glue.c **** };
 780:C:/Users/stapi/OneDrive/Desktop/GD32VW553/V1_MQTT_OK/GD32VW55X_Wifi_BLE_SDK/GD32VW55x_RELEASE_V1.0.2/MSDK/wpa_supplicant/src/ap\wpa_auth_glue.c **** 
 781:C:/Users/stapi/OneDrive/Desktop/GD32VW553/V1_MQTT_OK/GD32VW55X_Wifi_BLE_SDK/GD32VW55x_RELEASE_V1.0.2/MSDK/wpa_supplicant/src/ap\wpa_auth_glue.c **** static void hostapd_oui_deliver_later(void *eloop_ctx, void *timeout_ctx)
 782:C:/Users/stapi/OneDrive/Desktop/GD32VW553/V1_MQTT_OK/GD32VW55X_Wifi_BLE_SDK/GD32VW55x_RELEASE_V1.0.2/MSDK/wpa_supplicant/src/ap\wpa_auth_glue.c **** {
 783:C:/Users/stapi/OneDrive/Desktop/GD32VW553/V1_MQTT_OK/GD32VW55X_Wifi_BLE_SDK/GD32VW55x_RELEASE_V1.0.2/MSDK/wpa_supplicant/src/ap\wpa_auth_glue.c **** 	struct hostapd_data *hapd = eloop_ctx;
 784:C:/Users/stapi/OneDrive/Desktop/GD32VW553/V1_MQTT_OK/GD32VW55X_Wifi_BLE_SDK/GD32VW55x_RELEASE_V1.0.2/MSDK/wpa_supplicant/src/ap\wpa_auth_glue.c **** 	struct oui_deliver_later_data *data, *n;
 785:C:/Users/stapi/OneDrive/Desktop/GD32VW553/V1_MQTT_OK/GD32VW55X_Wifi_BLE_SDK/GD32VW55x_RELEASE_V1.0.2/MSDK/wpa_supplicant/src/ap\wpa_auth_glue.c **** 	struct eth_p_oui_ctx *oui_ctx;
 786:C:/Users/stapi/OneDrive/Desktop/GD32VW553/V1_MQTT_OK/GD32VW55X_Wifi_BLE_SDK/GD32VW55x_RELEASE_V1.0.2/MSDK/wpa_supplicant/src/ap\wpa_auth_glue.c **** 
 787:C:/Users/stapi/OneDrive/Desktop/GD32VW553/V1_MQTT_OK/GD32VW55X_Wifi_BLE_SDK/GD32VW55x_RELEASE_V1.0.2/MSDK/wpa_supplicant/src/ap\wpa_auth_glue.c **** 	dl_list_for_each_safe(data, n, &hapd->l2_oui_queue,
 788:C:/Users/stapi/OneDrive/Desktop/GD32VW553/V1_MQTT_OK/GD32VW55X_Wifi_BLE_SDK/GD32VW55x_RELEASE_V1.0.2/MSDK/wpa_supplicant/src/ap\wpa_auth_glue.c **** 			      struct oui_deliver_later_data, list) {
 789:C:/Users/stapi/OneDrive/Desktop/GD32VW553/V1_MQTT_OK/GD32VW55X_Wifi_BLE_SDK/GD32VW55x_RELEASE_V1.0.2/MSDK/wpa_supplicant/src/ap\wpa_auth_glue.c **** 		oui_ctx = hostapd_wpa_get_oui(hapd, data->oui_suffix);
 790:C:/Users/stapi/OneDrive/Desktop/GD32VW553/V1_MQTT_OK/GD32VW55X_Wifi_BLE_SDK/GD32VW55x_RELEASE_V1.0.2/MSDK/wpa_supplicant/src/ap\wpa_auth_glue.c **** 		wpa_printf(MSG_DEBUG, "RRB(%s): %s src=" MACSTR " dst=" MACSTR
 791:C:/Users/stapi/OneDrive/Desktop/GD32VW553/V1_MQTT_OK/GD32VW55X_Wifi_BLE_SDK/GD32VW55x_RELEASE_V1.0.2/MSDK/wpa_supplicant/src/ap\wpa_auth_glue.c **** 			   " oui_suffix=%u data_len=%u data=%p",
 792:C:/Users/stapi/OneDrive/Desktop/GD32VW553/V1_MQTT_OK/GD32VW55X_Wifi_BLE_SDK/GD32VW55x_RELEASE_V1.0.2/MSDK/wpa_supplicant/src/ap\wpa_auth_glue.c **** 			   hapd->conf->iface, __func__,
 793:C:/Users/stapi/OneDrive/Desktop/GD32VW553/V1_MQTT_OK/GD32VW55X_Wifi_BLE_SDK/GD32VW55x_RELEASE_V1.0.2/MSDK/wpa_supplicant/src/ap\wpa_auth_glue.c **** 			   MAC2STR(data->src_addr), MAC2STR(data->dst_addr),
 794:C:/Users/stapi/OneDrive/Desktop/GD32VW553/V1_MQTT_OK/GD32VW55X_Wifi_BLE_SDK/GD32VW55x_RELEASE_V1.0.2/MSDK/wpa_supplicant/src/ap\wpa_auth_glue.c **** 			   data->oui_suffix, (unsigned int) data->data_len,
 795:C:/Users/stapi/OneDrive/Desktop/GD32VW553/V1_MQTT_OK/GD32VW55X_Wifi_BLE_SDK/GD32VW55x_RELEASE_V1.0.2/MSDK/wpa_supplicant/src/ap\wpa_auth_glue.c **** 			   data);
 796:C:/Users/stapi/OneDrive/Desktop/GD32VW553/V1_MQTT_OK/GD32VW55X_Wifi_BLE_SDK/GD32VW55x_RELEASE_V1.0.2/MSDK/wpa_supplicant/src/ap\wpa_auth_glue.c **** 		if (hapd->wpa_auth && oui_ctx) {
 797:C:/Users/stapi/OneDrive/Desktop/GD32VW553/V1_MQTT_OK/GD32VW55X_Wifi_BLE_SDK/GD32VW55x_RELEASE_V1.0.2/MSDK/wpa_supplicant/src/ap\wpa_auth_glue.c **** 			eth_p_oui_deliver(oui_ctx, data->src_addr,
 798:C:/Users/stapi/OneDrive/Desktop/GD32VW553/V1_MQTT_OK/GD32VW55X_Wifi_BLE_SDK/GD32VW55x_RELEASE_V1.0.2/MSDK/wpa_supplicant/src/ap\wpa_auth_glue.c **** 					  data->dst_addr,
 799:C:/Users/stapi/OneDrive/Desktop/GD32VW553/V1_MQTT_OK/GD32VW55X_Wifi_BLE_SDK/GD32VW55x_RELEASE_V1.0.2/MSDK/wpa_supplicant/src/ap\wpa_auth_glue.c **** 					  (const u8 *) (data + 1),
 800:C:/Users/stapi/OneDrive/Desktop/GD32VW553/V1_MQTT_OK/GD32VW55X_Wifi_BLE_SDK/GD32VW55x_RELEASE_V1.0.2/MSDK/wpa_supplicant/src/ap\wpa_auth_glue.c **** 					  data->data_len);
 801:C:/Users/stapi/OneDrive/Desktop/GD32VW553/V1_MQTT_OK/GD32VW55X_Wifi_BLE_SDK/GD32VW55x_RELEASE_V1.0.2/MSDK/wpa_supplicant/src/ap\wpa_auth_glue.c **** 		}
 802:C:/Users/stapi/OneDrive/Desktop/GD32VW553/V1_MQTT_OK/GD32VW55X_Wifi_BLE_SDK/GD32VW55x_RELEASE_V1.0.2/MSDK/wpa_supplicant/src/ap\wpa_auth_glue.c **** 		dl_list_del(&data->list);
 803:C:/Users/stapi/OneDrive/Desktop/GD32VW553/V1_MQTT_OK/GD32VW55X_Wifi_BLE_SDK/GD32VW55x_RELEASE_V1.0.2/MSDK/wpa_supplicant/src/ap\wpa_auth_glue.c **** 		os_free(data);
 804:C:/Users/stapi/OneDrive/Desktop/GD32VW553/V1_MQTT_OK/GD32VW55X_Wifi_BLE_SDK/GD32VW55x_RELEASE_V1.0.2/MSDK/wpa_supplicant/src/ap\wpa_auth_glue.c **** 	}
 805:C:/Users/stapi/OneDrive/Desktop/GD32VW553/V1_MQTT_OK/GD32VW55X_Wifi_BLE_SDK/GD32VW55x_RELEASE_V1.0.2/MSDK/wpa_supplicant/src/ap\wpa_auth_glue.c **** }
 806:C:/Users/stapi/OneDrive/Desktop/GD32VW553/V1_MQTT_OK/GD32VW55X_Wifi_BLE_SDK/GD32VW55x_RELEASE_V1.0.2/MSDK/wpa_supplicant/src/ap\wpa_auth_glue.c **** 
 807:C:/Users/stapi/OneDrive/Desktop/GD32VW553/V1_MQTT_OK/GD32VW55X_Wifi_BLE_SDK/GD32VW55x_RELEASE_V1.0.2/MSDK/wpa_supplicant/src/ap\wpa_auth_glue.c **** 
 808:C:/Users/stapi/OneDrive/Desktop/GD32VW553/V1_MQTT_OK/GD32VW55X_Wifi_BLE_SDK/GD32VW55x_RELEASE_V1.0.2/MSDK/wpa_supplicant/src/ap\wpa_auth_glue.c **** struct wpa_auth_oui_iface_iter_data {
 809:C:/Users/stapi/OneDrive/Desktop/GD32VW553/V1_MQTT_OK/GD32VW55X_Wifi_BLE_SDK/GD32VW55x_RELEASE_V1.0.2/MSDK/wpa_supplicant/src/ap\wpa_auth_glue.c **** 	struct hostapd_data *src_hapd;
 810:C:/Users/stapi/OneDrive/Desktop/GD32VW553/V1_MQTT_OK/GD32VW55X_Wifi_BLE_SDK/GD32VW55x_RELEASE_V1.0.2/MSDK/wpa_supplicant/src/ap\wpa_auth_glue.c **** 	const u8 *dst_addr;
 811:C:/Users/stapi/OneDrive/Desktop/GD32VW553/V1_MQTT_OK/GD32VW55X_Wifi_BLE_SDK/GD32VW55x_RELEASE_V1.0.2/MSDK/wpa_supplicant/src/ap\wpa_auth_glue.c **** 	const u8 *data;
 812:C:/Users/stapi/OneDrive/Desktop/GD32VW553/V1_MQTT_OK/GD32VW55X_Wifi_BLE_SDK/GD32VW55x_RELEASE_V1.0.2/MSDK/wpa_supplicant/src/ap\wpa_auth_glue.c **** 	size_t data_len;
 813:C:/Users/stapi/OneDrive/Desktop/GD32VW553/V1_MQTT_OK/GD32VW55X_Wifi_BLE_SDK/GD32VW55x_RELEASE_V1.0.2/MSDK/wpa_supplicant/src/ap\wpa_auth_glue.c **** 	u8 oui_suffix;
 814:C:/Users/stapi/OneDrive/Desktop/GD32VW553/V1_MQTT_OK/GD32VW55X_Wifi_BLE_SDK/GD32VW55x_RELEASE_V1.0.2/MSDK/wpa_supplicant/src/ap\wpa_auth_glue.c **** };
 815:C:/Users/stapi/OneDrive/Desktop/GD32VW553/V1_MQTT_OK/GD32VW55X_Wifi_BLE_SDK/GD32VW55x_RELEASE_V1.0.2/MSDK/wpa_supplicant/src/ap\wpa_auth_glue.c **** 
 816:C:/Users/stapi/OneDrive/Desktop/GD32VW553/V1_MQTT_OK/GD32VW55X_Wifi_BLE_SDK/GD32VW55x_RELEASE_V1.0.2/MSDK/wpa_supplicant/src/ap\wpa_auth_glue.c **** static int hostapd_wpa_auth_oui_iter(struct hostapd_iface *iface, void *ctx)
 817:C:/Users/stapi/OneDrive/Desktop/GD32VW553/V1_MQTT_OK/GD32VW55X_Wifi_BLE_SDK/GD32VW55x_RELEASE_V1.0.2/MSDK/wpa_supplicant/src/ap\wpa_auth_glue.c **** {
 818:C:/Users/stapi/OneDrive/Desktop/GD32VW553/V1_MQTT_OK/GD32VW55X_Wifi_BLE_SDK/GD32VW55x_RELEASE_V1.0.2/MSDK/wpa_supplicant/src/ap\wpa_auth_glue.c **** 	struct wpa_auth_oui_iface_iter_data *idata = ctx;
 819:C:/Users/stapi/OneDrive/Desktop/GD32VW553/V1_MQTT_OK/GD32VW55X_Wifi_BLE_SDK/GD32VW55x_RELEASE_V1.0.2/MSDK/wpa_supplicant/src/ap\wpa_auth_glue.c **** 	struct oui_deliver_later_data *data;
 820:C:/Users/stapi/OneDrive/Desktop/GD32VW553/V1_MQTT_OK/GD32VW55X_Wifi_BLE_SDK/GD32VW55x_RELEASE_V1.0.2/MSDK/wpa_supplicant/src/ap\wpa_auth_glue.c **** 	struct hostapd_data *hapd, *src_hapd = idata->src_hapd;
 821:C:/Users/stapi/OneDrive/Desktop/GD32VW553/V1_MQTT_OK/GD32VW55X_Wifi_BLE_SDK/GD32VW55x_RELEASE_V1.0.2/MSDK/wpa_supplicant/src/ap\wpa_auth_glue.c **** 	size_t j;
 822:C:/Users/stapi/OneDrive/Desktop/GD32VW553/V1_MQTT_OK/GD32VW55X_Wifi_BLE_SDK/GD32VW55x_RELEASE_V1.0.2/MSDK/wpa_supplicant/src/ap\wpa_auth_glue.c **** 
 823:C:/Users/stapi/OneDrive/Desktop/GD32VW553/V1_MQTT_OK/GD32VW55X_Wifi_BLE_SDK/GD32VW55x_RELEASE_V1.0.2/MSDK/wpa_supplicant/src/ap\wpa_auth_glue.c **** 	for (j = 0; j < iface->num_bss; j++) {
 824:C:/Users/stapi/OneDrive/Desktop/GD32VW553/V1_MQTT_OK/GD32VW55X_Wifi_BLE_SDK/GD32VW55x_RELEASE_V1.0.2/MSDK/wpa_supplicant/src/ap\wpa_auth_glue.c **** 		hapd = iface->bss[j];
 825:C:/Users/stapi/OneDrive/Desktop/GD32VW553/V1_MQTT_OK/GD32VW55X_Wifi_BLE_SDK/GD32VW55x_RELEASE_V1.0.2/MSDK/wpa_supplicant/src/ap\wpa_auth_glue.c **** 		if (hapd == src_hapd)
 826:C:/Users/stapi/OneDrive/Desktop/GD32VW553/V1_MQTT_OK/GD32VW55X_Wifi_BLE_SDK/GD32VW55x_RELEASE_V1.0.2/MSDK/wpa_supplicant/src/ap\wpa_auth_glue.c **** 			continue; /* don't deliver back to same interface */
 827:C:/Users/stapi/OneDrive/Desktop/GD32VW553/V1_MQTT_OK/GD32VW55X_Wifi_BLE_SDK/GD32VW55x_RELEASE_V1.0.2/MSDK/wpa_supplicant/src/ap\wpa_auth_glue.c **** 		if (!wpa_key_mgmt_ft(hapd->conf->wpa_key_mgmt) ||
 828:C:/Users/stapi/OneDrive/Desktop/GD32VW553/V1_MQTT_OK/GD32VW55X_Wifi_BLE_SDK/GD32VW55x_RELEASE_V1.0.2/MSDK/wpa_supplicant/src/ap\wpa_auth_glue.c **** 		    hapd->conf->ssid.ssid_len !=
 829:C:/Users/stapi/OneDrive/Desktop/GD32VW553/V1_MQTT_OK/GD32VW55X_Wifi_BLE_SDK/GD32VW55x_RELEASE_V1.0.2/MSDK/wpa_supplicant/src/ap\wpa_auth_glue.c **** 		    src_hapd->conf->ssid.ssid_len ||
 830:C:/Users/stapi/OneDrive/Desktop/GD32VW553/V1_MQTT_OK/GD32VW55X_Wifi_BLE_SDK/GD32VW55x_RELEASE_V1.0.2/MSDK/wpa_supplicant/src/ap\wpa_auth_glue.c **** 		    os_memcmp(hapd->conf->ssid.ssid,
 831:C:/Users/stapi/OneDrive/Desktop/GD32VW553/V1_MQTT_OK/GD32VW55X_Wifi_BLE_SDK/GD32VW55x_RELEASE_V1.0.2/MSDK/wpa_supplicant/src/ap\wpa_auth_glue.c **** 			      src_hapd->conf->ssid.ssid,
 832:C:/Users/stapi/OneDrive/Desktop/GD32VW553/V1_MQTT_OK/GD32VW55X_Wifi_BLE_SDK/GD32VW55x_RELEASE_V1.0.2/MSDK/wpa_supplicant/src/ap\wpa_auth_glue.c **** 			      hapd->conf->ssid.ssid_len) != 0 ||
 833:C:/Users/stapi/OneDrive/Desktop/GD32VW553/V1_MQTT_OK/GD32VW55X_Wifi_BLE_SDK/GD32VW55x_RELEASE_V1.0.2/MSDK/wpa_supplicant/src/ap\wpa_auth_glue.c **** 		    os_memcmp(hapd->conf->mobility_domain,
 834:C:/Users/stapi/OneDrive/Desktop/GD32VW553/V1_MQTT_OK/GD32VW55X_Wifi_BLE_SDK/GD32VW55x_RELEASE_V1.0.2/MSDK/wpa_supplicant/src/ap\wpa_auth_glue.c **** 			      src_hapd->conf->mobility_domain,
 835:C:/Users/stapi/OneDrive/Desktop/GD32VW553/V1_MQTT_OK/GD32VW55X_Wifi_BLE_SDK/GD32VW55x_RELEASE_V1.0.2/MSDK/wpa_supplicant/src/ap\wpa_auth_glue.c **** 			      MOBILITY_DOMAIN_ID_LEN) != 0)
 836:C:/Users/stapi/OneDrive/Desktop/GD32VW553/V1_MQTT_OK/GD32VW55X_Wifi_BLE_SDK/GD32VW55x_RELEASE_V1.0.2/MSDK/wpa_supplicant/src/ap\wpa_auth_glue.c **** 			continue; /* no matching FT SSID/mobility domain */
 837:C:/Users/stapi/OneDrive/Desktop/GD32VW553/V1_MQTT_OK/GD32VW55X_Wifi_BLE_SDK/GD32VW55x_RELEASE_V1.0.2/MSDK/wpa_supplicant/src/ap\wpa_auth_glue.c **** 		if (!is_multicast_ether_addr(idata->dst_addr) &&
 838:C:/Users/stapi/OneDrive/Desktop/GD32VW553/V1_MQTT_OK/GD32VW55X_Wifi_BLE_SDK/GD32VW55x_RELEASE_V1.0.2/MSDK/wpa_supplicant/src/ap\wpa_auth_glue.c **** 		    os_memcmp(hapd->own_addr, idata->dst_addr, ETH_ALEN) != 0)
 839:C:/Users/stapi/OneDrive/Desktop/GD32VW553/V1_MQTT_OK/GD32VW55X_Wifi_BLE_SDK/GD32VW55x_RELEASE_V1.0.2/MSDK/wpa_supplicant/src/ap\wpa_auth_glue.c **** 			continue; /* destination address does not match */
 840:C:/Users/stapi/OneDrive/Desktop/GD32VW553/V1_MQTT_OK/GD32VW55X_Wifi_BLE_SDK/GD32VW55x_RELEASE_V1.0.2/MSDK/wpa_supplicant/src/ap\wpa_auth_glue.c **** 
 841:C:/Users/stapi/OneDrive/Desktop/GD32VW553/V1_MQTT_OK/GD32VW55X_Wifi_BLE_SDK/GD32VW55x_RELEASE_V1.0.2/MSDK/wpa_supplicant/src/ap\wpa_auth_glue.c **** 		/* defer eth_p_oui_deliver until next eloop step as this is
 842:C:/Users/stapi/OneDrive/Desktop/GD32VW553/V1_MQTT_OK/GD32VW55X_Wifi_BLE_SDK/GD32VW55x_RELEASE_V1.0.2/MSDK/wpa_supplicant/src/ap\wpa_auth_glue.c **** 		 * when it would be triggerd from reading from sock
 843:C:/Users/stapi/OneDrive/Desktop/GD32VW553/V1_MQTT_OK/GD32VW55X_Wifi_BLE_SDK/GD32VW55x_RELEASE_V1.0.2/MSDK/wpa_supplicant/src/ap\wpa_auth_glue.c **** 		 * This avoids
 844:C:/Users/stapi/OneDrive/Desktop/GD32VW553/V1_MQTT_OK/GD32VW55X_Wifi_BLE_SDK/GD32VW55x_RELEASE_V1.0.2/MSDK/wpa_supplicant/src/ap\wpa_auth_glue.c **** 		 * hapd0:send -> hapd1:recv -> hapd1:send -> hapd0:recv,
 845:C:/Users/stapi/OneDrive/Desktop/GD32VW553/V1_MQTT_OK/GD32VW55X_Wifi_BLE_SDK/GD32VW55x_RELEASE_V1.0.2/MSDK/wpa_supplicant/src/ap\wpa_auth_glue.c **** 		 * that is calling hapd0:recv handler from within
 846:C:/Users/stapi/OneDrive/Desktop/GD32VW553/V1_MQTT_OK/GD32VW55X_Wifi_BLE_SDK/GD32VW55x_RELEASE_V1.0.2/MSDK/wpa_supplicant/src/ap\wpa_auth_glue.c **** 		 * hapd0:send directly.
 847:C:/Users/stapi/OneDrive/Desktop/GD32VW553/V1_MQTT_OK/GD32VW55X_Wifi_BLE_SDK/GD32VW55x_RELEASE_V1.0.2/MSDK/wpa_supplicant/src/ap\wpa_auth_glue.c **** 		 */
 848:C:/Users/stapi/OneDrive/Desktop/GD32VW553/V1_MQTT_OK/GD32VW55X_Wifi_BLE_SDK/GD32VW55x_RELEASE_V1.0.2/MSDK/wpa_supplicant/src/ap\wpa_auth_glue.c **** 		data = os_zalloc(sizeof(*data) + idata->data_len);
 849:C:/Users/stapi/OneDrive/Desktop/GD32VW553/V1_MQTT_OK/GD32VW55X_Wifi_BLE_SDK/GD32VW55x_RELEASE_V1.0.2/MSDK/wpa_supplicant/src/ap\wpa_auth_glue.c **** 		if (!data)
 850:C:/Users/stapi/OneDrive/Desktop/GD32VW553/V1_MQTT_OK/GD32VW55X_Wifi_BLE_SDK/GD32VW55x_RELEASE_V1.0.2/MSDK/wpa_supplicant/src/ap\wpa_auth_glue.c **** 			return 1;
 851:C:/Users/stapi/OneDrive/Desktop/GD32VW553/V1_MQTT_OK/GD32VW55X_Wifi_BLE_SDK/GD32VW55x_RELEASE_V1.0.2/MSDK/wpa_supplicant/src/ap\wpa_auth_glue.c **** 		wpa_printf(MSG_DEBUG,
 852:C:/Users/stapi/OneDrive/Desktop/GD32VW553/V1_MQTT_OK/GD32VW55X_Wifi_BLE_SDK/GD32VW55x_RELEASE_V1.0.2/MSDK/wpa_supplicant/src/ap\wpa_auth_glue.c **** 			   "RRB(%s): local delivery to %s dst=" MACSTR
 853:C:/Users/stapi/OneDrive/Desktop/GD32VW553/V1_MQTT_OK/GD32VW55X_Wifi_BLE_SDK/GD32VW55x_RELEASE_V1.0.2/MSDK/wpa_supplicant/src/ap\wpa_auth_glue.c **** 			   " oui_suffix=%u data_len=%u data=%p",
 854:C:/Users/stapi/OneDrive/Desktop/GD32VW553/V1_MQTT_OK/GD32VW55X_Wifi_BLE_SDK/GD32VW55x_RELEASE_V1.0.2/MSDK/wpa_supplicant/src/ap\wpa_auth_glue.c **** 			   src_hapd->conf->iface, hapd->conf->iface,
 855:C:/Users/stapi/OneDrive/Desktop/GD32VW553/V1_MQTT_OK/GD32VW55X_Wifi_BLE_SDK/GD32VW55x_RELEASE_V1.0.2/MSDK/wpa_supplicant/src/ap\wpa_auth_glue.c **** 			   MAC2STR(idata->dst_addr), idata->oui_suffix,
 856:C:/Users/stapi/OneDrive/Desktop/GD32VW553/V1_MQTT_OK/GD32VW55X_Wifi_BLE_SDK/GD32VW55x_RELEASE_V1.0.2/MSDK/wpa_supplicant/src/ap\wpa_auth_glue.c **** 			   (unsigned int) idata->data_len, data);
 857:C:/Users/stapi/OneDrive/Desktop/GD32VW553/V1_MQTT_OK/GD32VW55X_Wifi_BLE_SDK/GD32VW55x_RELEASE_V1.0.2/MSDK/wpa_supplicant/src/ap\wpa_auth_glue.c **** 
 858:C:/Users/stapi/OneDrive/Desktop/GD32VW553/V1_MQTT_OK/GD32VW55X_Wifi_BLE_SDK/GD32VW55x_RELEASE_V1.0.2/MSDK/wpa_supplicant/src/ap\wpa_auth_glue.c **** 		os_memcpy(data->src_addr, src_hapd->own_addr, ETH_ALEN);
 859:C:/Users/stapi/OneDrive/Desktop/GD32VW553/V1_MQTT_OK/GD32VW55X_Wifi_BLE_SDK/GD32VW55x_RELEASE_V1.0.2/MSDK/wpa_supplicant/src/ap\wpa_auth_glue.c **** 		os_memcpy(data->dst_addr, idata->dst_addr, ETH_ALEN);
 860:C:/Users/stapi/OneDrive/Desktop/GD32VW553/V1_MQTT_OK/GD32VW55X_Wifi_BLE_SDK/GD32VW55x_RELEASE_V1.0.2/MSDK/wpa_supplicant/src/ap\wpa_auth_glue.c **** 		os_memcpy(data + 1, idata->data, idata->data_len);
 861:C:/Users/stapi/OneDrive/Desktop/GD32VW553/V1_MQTT_OK/GD32VW55X_Wifi_BLE_SDK/GD32VW55x_RELEASE_V1.0.2/MSDK/wpa_supplicant/src/ap\wpa_auth_glue.c **** 		data->data_len = idata->data_len;
 862:C:/Users/stapi/OneDrive/Desktop/GD32VW553/V1_MQTT_OK/GD32VW55X_Wifi_BLE_SDK/GD32VW55x_RELEASE_V1.0.2/MSDK/wpa_supplicant/src/ap\wpa_auth_glue.c **** 		data->oui_suffix = idata->oui_suffix;
 863:C:/Users/stapi/OneDrive/Desktop/GD32VW553/V1_MQTT_OK/GD32VW55X_Wifi_BLE_SDK/GD32VW55x_RELEASE_V1.0.2/MSDK/wpa_supplicant/src/ap\wpa_auth_glue.c **** 
 864:C:/Users/stapi/OneDrive/Desktop/GD32VW553/V1_MQTT_OK/GD32VW55X_Wifi_BLE_SDK/GD32VW55x_RELEASE_V1.0.2/MSDK/wpa_supplicant/src/ap\wpa_auth_glue.c **** 		dl_list_add_tail(&hapd->l2_oui_queue, &data->list);
 865:C:/Users/stapi/OneDrive/Desktop/GD32VW553/V1_MQTT_OK/GD32VW55X_Wifi_BLE_SDK/GD32VW55x_RELEASE_V1.0.2/MSDK/wpa_supplicant/src/ap\wpa_auth_glue.c **** 
 866:C:/Users/stapi/OneDrive/Desktop/GD32VW553/V1_MQTT_OK/GD32VW55X_Wifi_BLE_SDK/GD32VW55x_RELEASE_V1.0.2/MSDK/wpa_supplicant/src/ap\wpa_auth_glue.c **** 		if (!eloop_is_timeout_registered(hostapd_oui_deliver_later,
 867:C:/Users/stapi/OneDrive/Desktop/GD32VW553/V1_MQTT_OK/GD32VW55X_Wifi_BLE_SDK/GD32VW55x_RELEASE_V1.0.2/MSDK/wpa_supplicant/src/ap\wpa_auth_glue.c **** 						 hapd, NULL))
 868:C:/Users/stapi/OneDrive/Desktop/GD32VW553/V1_MQTT_OK/GD32VW55X_Wifi_BLE_SDK/GD32VW55x_RELEASE_V1.0.2/MSDK/wpa_supplicant/src/ap\wpa_auth_glue.c **** 			eloop_register_timeout(0, 0,
 869:C:/Users/stapi/OneDrive/Desktop/GD32VW553/V1_MQTT_OK/GD32VW55X_Wifi_BLE_SDK/GD32VW55x_RELEASE_V1.0.2/MSDK/wpa_supplicant/src/ap\wpa_auth_glue.c **** 					       hostapd_oui_deliver_later,
 870:C:/Users/stapi/OneDrive/Desktop/GD32VW553/V1_MQTT_OK/GD32VW55X_Wifi_BLE_SDK/GD32VW55x_RELEASE_V1.0.2/MSDK/wpa_supplicant/src/ap\wpa_auth_glue.c **** 					       hapd, NULL);
 871:C:/Users/stapi/OneDrive/Desktop/GD32VW553/V1_MQTT_OK/GD32VW55X_Wifi_BLE_SDK/GD32VW55x_RELEASE_V1.0.2/MSDK/wpa_supplicant/src/ap\wpa_auth_glue.c **** 
 872:C:/Users/stapi/OneDrive/Desktop/GD32VW553/V1_MQTT_OK/GD32VW55X_Wifi_BLE_SDK/GD32VW55x_RELEASE_V1.0.2/MSDK/wpa_supplicant/src/ap\wpa_auth_glue.c **** 		/* If dst_addr is a multicast address, do not return any
 873:C:/Users/stapi/OneDrive/Desktop/GD32VW553/V1_MQTT_OK/GD32VW55X_Wifi_BLE_SDK/GD32VW55x_RELEASE_V1.0.2/MSDK/wpa_supplicant/src/ap\wpa_auth_glue.c **** 		 * non-zero value here. Otherwise, the iteration of
 874:C:/Users/stapi/OneDrive/Desktop/GD32VW553/V1_MQTT_OK/GD32VW55X_Wifi_BLE_SDK/GD32VW55x_RELEASE_V1.0.2/MSDK/wpa_supplicant/src/ap\wpa_auth_glue.c **** 		 * for_each_interface() will be stopped. */
 875:C:/Users/stapi/OneDrive/Desktop/GD32VW553/V1_MQTT_OK/GD32VW55X_Wifi_BLE_SDK/GD32VW55x_RELEASE_V1.0.2/MSDK/wpa_supplicant/src/ap\wpa_auth_glue.c **** 		if (!is_multicast_ether_addr(idata->dst_addr))
 876:C:/Users/stapi/OneDrive/Desktop/GD32VW553/V1_MQTT_OK/GD32VW55X_Wifi_BLE_SDK/GD32VW55x_RELEASE_V1.0.2/MSDK/wpa_supplicant/src/ap\wpa_auth_glue.c **** 			return 1;
 877:C:/Users/stapi/OneDrive/Desktop/GD32VW553/V1_MQTT_OK/GD32VW55X_Wifi_BLE_SDK/GD32VW55x_RELEASE_V1.0.2/MSDK/wpa_supplicant/src/ap\wpa_auth_glue.c **** 	}
 878:C:/Users/stapi/OneDrive/Desktop/GD32VW553/V1_MQTT_OK/GD32VW55X_Wifi_BLE_SDK/GD32VW55x_RELEASE_V1.0.2/MSDK/wpa_supplicant/src/ap\wpa_auth_glue.c **** 
 879:C:/Users/stapi/OneDrive/Desktop/GD32VW553/V1_MQTT_OK/GD32VW55X_Wifi_BLE_SDK/GD32VW55x_RELEASE_V1.0.2/MSDK/wpa_supplicant/src/ap\wpa_auth_glue.c **** 	return 0;
 880:C:/Users/stapi/OneDrive/Desktop/GD32VW553/V1_MQTT_OK/GD32VW55X_Wifi_BLE_SDK/GD32VW55x_RELEASE_V1.0.2/MSDK/wpa_supplicant/src/ap\wpa_auth_glue.c **** }
 881:C:/Users/stapi/OneDrive/Desktop/GD32VW553/V1_MQTT_OK/GD32VW55X_Wifi_BLE_SDK/GD32VW55x_RELEASE_V1.0.2/MSDK/wpa_supplicant/src/ap\wpa_auth_glue.c **** 
 882:C:/Users/stapi/OneDrive/Desktop/GD32VW553/V1_MQTT_OK/GD32VW55X_Wifi_BLE_SDK/GD32VW55x_RELEASE_V1.0.2/MSDK/wpa_supplicant/src/ap\wpa_auth_glue.c **** #endif /* CONFIG_IEEE80211R_AP */
 883:C:/Users/stapi/OneDrive/Desktop/GD32VW553/V1_MQTT_OK/GD32VW55X_Wifi_BLE_SDK/GD32VW55x_RELEASE_V1.0.2/MSDK/wpa_supplicant/src/ap\wpa_auth_glue.c **** 
 884:C:/Users/stapi/OneDrive/Desktop/GD32VW553/V1_MQTT_OK/GD32VW55X_Wifi_BLE_SDK/GD32VW55x_RELEASE_V1.0.2/MSDK/wpa_supplicant/src/ap\wpa_auth_glue.c **** 
 885:C:/Users/stapi/OneDrive/Desktop/GD32VW553/V1_MQTT_OK/GD32VW55X_Wifi_BLE_SDK/GD32VW55x_RELEASE_V1.0.2/MSDK/wpa_supplicant/src/ap\wpa_auth_glue.c **** static int hostapd_wpa_auth_send_oui(void *ctx, const u8 *dst, u8 oui_suffix,
 886:C:/Users/stapi/OneDrive/Desktop/GD32VW553/V1_MQTT_OK/GD32VW55X_Wifi_BLE_SDK/GD32VW55x_RELEASE_V1.0.2/MSDK/wpa_supplicant/src/ap\wpa_auth_glue.c **** 				     const u8 *data, size_t data_len)
 887:C:/Users/stapi/OneDrive/Desktop/GD32VW553/V1_MQTT_OK/GD32VW55X_Wifi_BLE_SDK/GD32VW55x_RELEASE_V1.0.2/MSDK/wpa_supplicant/src/ap\wpa_auth_glue.c **** {
 231              		.loc 1 887 1 is_stmt 1
 232              		.cfi_startproc
 233              	.LVL19:
 888:C:/Users/stapi/OneDrive/Desktop/GD32VW553/V1_MQTT_OK/GD32VW55X_Wifi_BLE_SDK/GD32VW55x_RELEASE_V1.0.2/MSDK/wpa_supplicant/src/ap\wpa_auth_glue.c **** #ifdef CONFIG_ETH_P_OUI
 889:C:/Users/stapi/OneDrive/Desktop/GD32VW553/V1_MQTT_OK/GD32VW55X_Wifi_BLE_SDK/GD32VW55x_RELEASE_V1.0.2/MSDK/wpa_supplicant/src/ap\wpa_auth_glue.c **** 	struct hostapd_data *hapd = ctx;
 890:C:/Users/stapi/OneDrive/Desktop/GD32VW553/V1_MQTT_OK/GD32VW55X_Wifi_BLE_SDK/GD32VW55x_RELEASE_V1.0.2/MSDK/wpa_supplicant/src/ap\wpa_auth_glue.c **** 	struct eth_p_oui_ctx *oui_ctx;
 891:C:/Users/stapi/OneDrive/Desktop/GD32VW553/V1_MQTT_OK/GD32VW55X_Wifi_BLE_SDK/GD32VW55x_RELEASE_V1.0.2/MSDK/wpa_supplicant/src/ap\wpa_auth_glue.c **** 
 892:C:/Users/stapi/OneDrive/Desktop/GD32VW553/V1_MQTT_OK/GD32VW55X_Wifi_BLE_SDK/GD32VW55x_RELEASE_V1.0.2/MSDK/wpa_supplicant/src/ap\wpa_auth_glue.c **** 	wpa_printf(MSG_DEBUG, "RRB(%s): send to dst=" MACSTR
 893:C:/Users/stapi/OneDrive/Desktop/GD32VW553/V1_MQTT_OK/GD32VW55X_Wifi_BLE_SDK/GD32VW55x_RELEASE_V1.0.2/MSDK/wpa_supplicant/src/ap\wpa_auth_glue.c **** 		   " oui_suffix=%u data_len=%u",
 894:C:/Users/stapi/OneDrive/Desktop/GD32VW553/V1_MQTT_OK/GD32VW55X_Wifi_BLE_SDK/GD32VW55x_RELEASE_V1.0.2/MSDK/wpa_supplicant/src/ap\wpa_auth_glue.c **** 		   hapd->conf->iface, MAC2STR(dst), oui_suffix,
 895:C:/Users/stapi/OneDrive/Desktop/GD32VW553/V1_MQTT_OK/GD32VW55X_Wifi_BLE_SDK/GD32VW55x_RELEASE_V1.0.2/MSDK/wpa_supplicant/src/ap\wpa_auth_glue.c **** 		   (unsigned int) data_len);
 896:C:/Users/stapi/OneDrive/Desktop/GD32VW553/V1_MQTT_OK/GD32VW55X_Wifi_BLE_SDK/GD32VW55x_RELEASE_V1.0.2/MSDK/wpa_supplicant/src/ap\wpa_auth_glue.c **** #ifdef CONFIG_IEEE80211R_AP
 897:C:/Users/stapi/OneDrive/Desktop/GD32VW553/V1_MQTT_OK/GD32VW55X_Wifi_BLE_SDK/GD32VW55x_RELEASE_V1.0.2/MSDK/wpa_supplicant/src/ap\wpa_auth_glue.c **** 	if (hapd->iface->interfaces &&
 898:C:/Users/stapi/OneDrive/Desktop/GD32VW553/V1_MQTT_OK/GD32VW55X_Wifi_BLE_SDK/GD32VW55x_RELEASE_V1.0.2/MSDK/wpa_supplicant/src/ap\wpa_auth_glue.c **** 	    hapd->iface->interfaces->for_each_interface) {
 899:C:/Users/stapi/OneDrive/Desktop/GD32VW553/V1_MQTT_OK/GD32VW55X_Wifi_BLE_SDK/GD32VW55x_RELEASE_V1.0.2/MSDK/wpa_supplicant/src/ap\wpa_auth_glue.c **** 		struct wpa_auth_oui_iface_iter_data idata;
 900:C:/Users/stapi/OneDrive/Desktop/GD32VW553/V1_MQTT_OK/GD32VW55X_Wifi_BLE_SDK/GD32VW55x_RELEASE_V1.0.2/MSDK/wpa_supplicant/src/ap\wpa_auth_glue.c **** 		int res;
 901:C:/Users/stapi/OneDrive/Desktop/GD32VW553/V1_MQTT_OK/GD32VW55X_Wifi_BLE_SDK/GD32VW55x_RELEASE_V1.0.2/MSDK/wpa_supplicant/src/ap\wpa_auth_glue.c **** 
 902:C:/Users/stapi/OneDrive/Desktop/GD32VW553/V1_MQTT_OK/GD32VW55X_Wifi_BLE_SDK/GD32VW55x_RELEASE_V1.0.2/MSDK/wpa_supplicant/src/ap\wpa_auth_glue.c **** 		idata.src_hapd = hapd;
 903:C:/Users/stapi/OneDrive/Desktop/GD32VW553/V1_MQTT_OK/GD32VW55X_Wifi_BLE_SDK/GD32VW55x_RELEASE_V1.0.2/MSDK/wpa_supplicant/src/ap\wpa_auth_glue.c **** 		idata.dst_addr = dst;
 904:C:/Users/stapi/OneDrive/Desktop/GD32VW553/V1_MQTT_OK/GD32VW55X_Wifi_BLE_SDK/GD32VW55x_RELEASE_V1.0.2/MSDK/wpa_supplicant/src/ap\wpa_auth_glue.c **** 		idata.data = data;
 905:C:/Users/stapi/OneDrive/Desktop/GD32VW553/V1_MQTT_OK/GD32VW55X_Wifi_BLE_SDK/GD32VW55x_RELEASE_V1.0.2/MSDK/wpa_supplicant/src/ap\wpa_auth_glue.c **** 		idata.data_len = data_len;
 906:C:/Users/stapi/OneDrive/Desktop/GD32VW553/V1_MQTT_OK/GD32VW55X_Wifi_BLE_SDK/GD32VW55x_RELEASE_V1.0.2/MSDK/wpa_supplicant/src/ap\wpa_auth_glue.c **** 		idata.oui_suffix = oui_suffix;
 907:C:/Users/stapi/OneDrive/Desktop/GD32VW553/V1_MQTT_OK/GD32VW55X_Wifi_BLE_SDK/GD32VW55x_RELEASE_V1.0.2/MSDK/wpa_supplicant/src/ap\wpa_auth_glue.c **** 		res = hapd->iface->interfaces->for_each_interface(
 908:C:/Users/stapi/OneDrive/Desktop/GD32VW553/V1_MQTT_OK/GD32VW55X_Wifi_BLE_SDK/GD32VW55x_RELEASE_V1.0.2/MSDK/wpa_supplicant/src/ap\wpa_auth_glue.c **** 			hapd->iface->interfaces, hostapd_wpa_auth_oui_iter,
 909:C:/Users/stapi/OneDrive/Desktop/GD32VW553/V1_MQTT_OK/GD32VW55X_Wifi_BLE_SDK/GD32VW55x_RELEASE_V1.0.2/MSDK/wpa_supplicant/src/ap\wpa_auth_glue.c **** 			&idata);
 910:C:/Users/stapi/OneDrive/Desktop/GD32VW553/V1_MQTT_OK/GD32VW55X_Wifi_BLE_SDK/GD32VW55x_RELEASE_V1.0.2/MSDK/wpa_supplicant/src/ap\wpa_auth_glue.c **** 		if (res == 1)
 911:C:/Users/stapi/OneDrive/Desktop/GD32VW553/V1_MQTT_OK/GD32VW55X_Wifi_BLE_SDK/GD32VW55x_RELEASE_V1.0.2/MSDK/wpa_supplicant/src/ap\wpa_auth_glue.c **** 			return data_len;
 912:C:/Users/stapi/OneDrive/Desktop/GD32VW553/V1_MQTT_OK/GD32VW55X_Wifi_BLE_SDK/GD32VW55x_RELEASE_V1.0.2/MSDK/wpa_supplicant/src/ap\wpa_auth_glue.c **** 	}
 913:C:/Users/stapi/OneDrive/Desktop/GD32VW553/V1_MQTT_OK/GD32VW55X_Wifi_BLE_SDK/GD32VW55x_RELEASE_V1.0.2/MSDK/wpa_supplicant/src/ap\wpa_auth_glue.c **** #endif /* CONFIG_IEEE80211R_AP */
 914:C:/Users/stapi/OneDrive/Desktop/GD32VW553/V1_MQTT_OK/GD32VW55X_Wifi_BLE_SDK/GD32VW55x_RELEASE_V1.0.2/MSDK/wpa_supplicant/src/ap\wpa_auth_glue.c **** 
 915:C:/Users/stapi/OneDrive/Desktop/GD32VW553/V1_MQTT_OK/GD32VW55X_Wifi_BLE_SDK/GD32VW55x_RELEASE_V1.0.2/MSDK/wpa_supplicant/src/ap\wpa_auth_glue.c **** 	oui_ctx = hostapd_wpa_get_oui(hapd, oui_suffix);
 916:C:/Users/stapi/OneDrive/Desktop/GD32VW553/V1_MQTT_OK/GD32VW55X_Wifi_BLE_SDK/GD32VW55x_RELEASE_V1.0.2/MSDK/wpa_supplicant/src/ap\wpa_auth_glue.c **** 	if (!oui_ctx)
 917:C:/Users/stapi/OneDrive/Desktop/GD32VW553/V1_MQTT_OK/GD32VW55X_Wifi_BLE_SDK/GD32VW55x_RELEASE_V1.0.2/MSDK/wpa_supplicant/src/ap\wpa_auth_glue.c **** 		return -1;
 918:C:/Users/stapi/OneDrive/Desktop/GD32VW553/V1_MQTT_OK/GD32VW55X_Wifi_BLE_SDK/GD32VW55x_RELEASE_V1.0.2/MSDK/wpa_supplicant/src/ap\wpa_auth_glue.c **** 
 919:C:/Users/stapi/OneDrive/Desktop/GD32VW553/V1_MQTT_OK/GD32VW55X_Wifi_BLE_SDK/GD32VW55x_RELEASE_V1.0.2/MSDK/wpa_supplicant/src/ap\wpa_auth_glue.c **** 	return eth_p_oui_send(oui_ctx, hapd->own_addr, dst, data, data_len);
 920:C:/Users/stapi/OneDrive/Desktop/GD32VW553/V1_MQTT_OK/GD32VW55X_Wifi_BLE_SDK/GD32VW55x_RELEASE_V1.0.2/MSDK/wpa_supplicant/src/ap\wpa_auth_glue.c **** #else /* CONFIG_ETH_P_OUI */
 921:C:/Users/stapi/OneDrive/Desktop/GD32VW553/V1_MQTT_OK/GD32VW55X_Wifi_BLE_SDK/GD32VW55x_RELEASE_V1.0.2/MSDK/wpa_supplicant/src/ap\wpa_auth_glue.c **** 	return -1;
 234              		.loc 1 921 2
 922:C:/Users/stapi/OneDrive/Desktop/GD32VW553/V1_MQTT_OK/GD32VW55X_Wifi_BLE_SDK/GD32VW55x_RELEASE_V1.0.2/MSDK/wpa_supplicant/src/ap\wpa_auth_glue.c **** #endif /* CONFIG_ETH_P_OUI */
 923:C:/Users/stapi/OneDrive/Desktop/GD32VW553/V1_MQTT_OK/GD32VW55X_Wifi_BLE_SDK/GD32VW55x_RELEASE_V1.0.2/MSDK/wpa_supplicant/src/ap\wpa_auth_glue.c **** }
 235              		.loc 1 923 1 is_stmt 0
 236 0000 7D55     		li	a0,-1
 237              	.LVL20:
 238 0002 8280     		ret
 239              		.cfi_endproc
 240              	.LFE196:
 242              		.section	.text.hostapd_channel_info,"ax",@progbits
 243              		.align	1
 245              	hostapd_channel_info:
 246              	.LFB197:
 924:C:/Users/stapi/OneDrive/Desktop/GD32VW553/V1_MQTT_OK/GD32VW55X_Wifi_BLE_SDK/GD32VW55x_RELEASE_V1.0.2/MSDK/wpa_supplicant/src/ap\wpa_auth_glue.c **** 
 925:C:/Users/stapi/OneDrive/Desktop/GD32VW553/V1_MQTT_OK/GD32VW55X_Wifi_BLE_SDK/GD32VW55x_RELEASE_V1.0.2/MSDK/wpa_supplicant/src/ap\wpa_auth_glue.c **** 
 926:C:/Users/stapi/OneDrive/Desktop/GD32VW553/V1_MQTT_OK/GD32VW55X_Wifi_BLE_SDK/GD32VW55x_RELEASE_V1.0.2/MSDK/wpa_supplicant/src/ap\wpa_auth_glue.c **** static int hostapd_channel_info(void *ctx, struct wpa_channel_info *ci)
 927:C:/Users/stapi/OneDrive/Desktop/GD32VW553/V1_MQTT_OK/GD32VW55X_Wifi_BLE_SDK/GD32VW55x_RELEASE_V1.0.2/MSDK/wpa_supplicant/src/ap\wpa_auth_glue.c **** {
 247              		.loc 1 927 1 is_stmt 1
 248              		.cfi_startproc
 249              	.LVL21:
 928:C:/Users/stapi/OneDrive/Desktop/GD32VW553/V1_MQTT_OK/GD32VW55X_Wifi_BLE_SDK/GD32VW55x_RELEASE_V1.0.2/MSDK/wpa_supplicant/src/ap\wpa_auth_glue.c **** 	struct hostapd_data *hapd = ctx;
 250              		.loc 1 928 2
 929:C:/Users/stapi/OneDrive/Desktop/GD32VW553/V1_MQTT_OK/GD32VW55X_Wifi_BLE_SDK/GD32VW55x_RELEASE_V1.0.2/MSDK/wpa_supplicant/src/ap\wpa_auth_glue.c **** 
 930:C:/Users/stapi/OneDrive/Desktop/GD32VW553/V1_MQTT_OK/GD32VW55X_Wifi_BLE_SDK/GD32VW55x_RELEASE_V1.0.2/MSDK/wpa_supplicant/src/ap\wpa_auth_glue.c **** 	return hostapd_drv_channel_info(hapd, ci);
 251              		.loc 1 930 2
 252              	.LBB14:
 253              	.LBB15:
 254              		.file 2 "C:/Users/stapi/OneDrive/Desktop/GD32VW553/V1_MQTT_OK/GD32VW55X_Wifi_BLE_SDK/GD32VW55x_REL
   1:C:/Users/stapi/OneDrive/Desktop/GD32VW553/V1_MQTT_OK/GD32VW55X_Wifi_BLE_SDK/GD32VW55x_RELEASE_V1.0.2/MSDK/wpa_supplicant/src/ap\ap_drv_ops.h **** /*
   2:C:/Users/stapi/OneDrive/Desktop/GD32VW553/V1_MQTT_OK/GD32VW55X_Wifi_BLE_SDK/GD32VW55x_RELEASE_V1.0.2/MSDK/wpa_supplicant/src/ap\ap_drv_ops.h ****  * hostapd - Driver operations
   3:C:/Users/stapi/OneDrive/Desktop/GD32VW553/V1_MQTT_OK/GD32VW55X_Wifi_BLE_SDK/GD32VW55x_RELEASE_V1.0.2/MSDK/wpa_supplicant/src/ap\ap_drv_ops.h ****  * Copyright (c) 2009-2014, Jouni Malinen <j@w1.fi>
   4:C:/Users/stapi/OneDrive/Desktop/GD32VW553/V1_MQTT_OK/GD32VW55X_Wifi_BLE_SDK/GD32VW55x_RELEASE_V1.0.2/MSDK/wpa_supplicant/src/ap\ap_drv_ops.h ****  *
   5:C:/Users/stapi/OneDrive/Desktop/GD32VW553/V1_MQTT_OK/GD32VW55X_Wifi_BLE_SDK/GD32VW55x_RELEASE_V1.0.2/MSDK/wpa_supplicant/src/ap\ap_drv_ops.h ****  * This software may be distributed under the terms of the BSD license.
   6:C:/Users/stapi/OneDrive/Desktop/GD32VW553/V1_MQTT_OK/GD32VW55X_Wifi_BLE_SDK/GD32VW55x_RELEASE_V1.0.2/MSDK/wpa_supplicant/src/ap\ap_drv_ops.h ****  * See README for more details.
   7:C:/Users/stapi/OneDrive/Desktop/GD32VW553/V1_MQTT_OK/GD32VW55X_Wifi_BLE_SDK/GD32VW55x_RELEASE_V1.0.2/MSDK/wpa_supplicant/src/ap\ap_drv_ops.h ****  */
   8:C:/Users/stapi/OneDrive/Desktop/GD32VW553/V1_MQTT_OK/GD32VW55X_Wifi_BLE_SDK/GD32VW55x_RELEASE_V1.0.2/MSDK/wpa_supplicant/src/ap\ap_drv_ops.h **** 
   9:C:/Users/stapi/OneDrive/Desktop/GD32VW553/V1_MQTT_OK/GD32VW55X_Wifi_BLE_SDK/GD32VW55x_RELEASE_V1.0.2/MSDK/wpa_supplicant/src/ap\ap_drv_ops.h **** #ifndef AP_DRV_OPS
  10:C:/Users/stapi/OneDrive/Desktop/GD32VW553/V1_MQTT_OK/GD32VW55X_Wifi_BLE_SDK/GD32VW55x_RELEASE_V1.0.2/MSDK/wpa_supplicant/src/ap\ap_drv_ops.h **** #define AP_DRV_OPS
  11:C:/Users/stapi/OneDrive/Desktop/GD32VW553/V1_MQTT_OK/GD32VW55X_Wifi_BLE_SDK/GD32VW55x_RELEASE_V1.0.2/MSDK/wpa_supplicant/src/ap\ap_drv_ops.h **** 
  12:C:/Users/stapi/OneDrive/Desktop/GD32VW553/V1_MQTT_OK/GD32VW55X_Wifi_BLE_SDK/GD32VW55x_RELEASE_V1.0.2/MSDK/wpa_supplicant/src/ap\ap_drv_ops.h **** enum wpa_driver_if_type;
  13:C:/Users/stapi/OneDrive/Desktop/GD32VW553/V1_MQTT_OK/GD32VW55X_Wifi_BLE_SDK/GD32VW55x_RELEASE_V1.0.2/MSDK/wpa_supplicant/src/ap\ap_drv_ops.h **** struct wpa_bss_params;
  14:C:/Users/stapi/OneDrive/Desktop/GD32VW553/V1_MQTT_OK/GD32VW55X_Wifi_BLE_SDK/GD32VW55x_RELEASE_V1.0.2/MSDK/wpa_supplicant/src/ap\ap_drv_ops.h **** struct wpa_driver_scan_params;
  15:C:/Users/stapi/OneDrive/Desktop/GD32VW553/V1_MQTT_OK/GD32VW55X_Wifi_BLE_SDK/GD32VW55x_RELEASE_V1.0.2/MSDK/wpa_supplicant/src/ap\ap_drv_ops.h **** struct ieee80211_ht_capabilities;
  16:C:/Users/stapi/OneDrive/Desktop/GD32VW553/V1_MQTT_OK/GD32VW55X_Wifi_BLE_SDK/GD32VW55x_RELEASE_V1.0.2/MSDK/wpa_supplicant/src/ap\ap_drv_ops.h **** struct ieee80211_vht_capabilities;
  17:C:/Users/stapi/OneDrive/Desktop/GD32VW553/V1_MQTT_OK/GD32VW55X_Wifi_BLE_SDK/GD32VW55x_RELEASE_V1.0.2/MSDK/wpa_supplicant/src/ap\ap_drv_ops.h **** struct hostapd_freq_params;
  18:C:/Users/stapi/OneDrive/Desktop/GD32VW553/V1_MQTT_OK/GD32VW55X_Wifi_BLE_SDK/GD32VW55x_RELEASE_V1.0.2/MSDK/wpa_supplicant/src/ap\ap_drv_ops.h **** 
  19:C:/Users/stapi/OneDrive/Desktop/GD32VW553/V1_MQTT_OK/GD32VW55X_Wifi_BLE_SDK/GD32VW55x_RELEASE_V1.0.2/MSDK/wpa_supplicant/src/ap\ap_drv_ops.h **** u32 hostapd_sta_flags_to_drv(u32 flags);
  20:C:/Users/stapi/OneDrive/Desktop/GD32VW553/V1_MQTT_OK/GD32VW55X_Wifi_BLE_SDK/GD32VW55x_RELEASE_V1.0.2/MSDK/wpa_supplicant/src/ap\ap_drv_ops.h **** int hostapd_build_ap_extra_ies(struct hostapd_data *hapd,
  21:C:/Users/stapi/OneDrive/Desktop/GD32VW553/V1_MQTT_OK/GD32VW55X_Wifi_BLE_SDK/GD32VW55x_RELEASE_V1.0.2/MSDK/wpa_supplicant/src/ap\ap_drv_ops.h **** 			       struct wpabuf **beacon,
  22:C:/Users/stapi/OneDrive/Desktop/GD32VW553/V1_MQTT_OK/GD32VW55X_Wifi_BLE_SDK/GD32VW55x_RELEASE_V1.0.2/MSDK/wpa_supplicant/src/ap\ap_drv_ops.h **** 			       struct wpabuf **proberesp,
  23:C:/Users/stapi/OneDrive/Desktop/GD32VW553/V1_MQTT_OK/GD32VW55X_Wifi_BLE_SDK/GD32VW55x_RELEASE_V1.0.2/MSDK/wpa_supplicant/src/ap\ap_drv_ops.h **** 			       struct wpabuf **assocresp);
  24:C:/Users/stapi/OneDrive/Desktop/GD32VW553/V1_MQTT_OK/GD32VW55X_Wifi_BLE_SDK/GD32VW55x_RELEASE_V1.0.2/MSDK/wpa_supplicant/src/ap\ap_drv_ops.h **** void hostapd_free_ap_extra_ies(struct hostapd_data *hapd, struct wpabuf *beacon,
  25:C:/Users/stapi/OneDrive/Desktop/GD32VW553/V1_MQTT_OK/GD32VW55X_Wifi_BLE_SDK/GD32VW55x_RELEASE_V1.0.2/MSDK/wpa_supplicant/src/ap\ap_drv_ops.h **** 			       struct wpabuf *proberesp,
  26:C:/Users/stapi/OneDrive/Desktop/GD32VW553/V1_MQTT_OK/GD32VW55X_Wifi_BLE_SDK/GD32VW55x_RELEASE_V1.0.2/MSDK/wpa_supplicant/src/ap\ap_drv_ops.h **** 			       struct wpabuf *assocresp);
  27:C:/Users/stapi/OneDrive/Desktop/GD32VW553/V1_MQTT_OK/GD32VW55X_Wifi_BLE_SDK/GD32VW55x_RELEASE_V1.0.2/MSDK/wpa_supplicant/src/ap\ap_drv_ops.h **** int hostapd_reset_ap_wps_ie(struct hostapd_data *hapd);
  28:C:/Users/stapi/OneDrive/Desktop/GD32VW553/V1_MQTT_OK/GD32VW55X_Wifi_BLE_SDK/GD32VW55x_RELEASE_V1.0.2/MSDK/wpa_supplicant/src/ap\ap_drv_ops.h **** int hostapd_set_ap_wps_ie(struct hostapd_data *hapd);
  29:C:/Users/stapi/OneDrive/Desktop/GD32VW553/V1_MQTT_OK/GD32VW55X_Wifi_BLE_SDK/GD32VW55x_RELEASE_V1.0.2/MSDK/wpa_supplicant/src/ap\ap_drv_ops.h **** int hostapd_set_authorized(struct hostapd_data *hapd,
  30:C:/Users/stapi/OneDrive/Desktop/GD32VW553/V1_MQTT_OK/GD32VW55X_Wifi_BLE_SDK/GD32VW55x_RELEASE_V1.0.2/MSDK/wpa_supplicant/src/ap\ap_drv_ops.h **** 			   struct sta_info *sta, int authorized);
  31:C:/Users/stapi/OneDrive/Desktop/GD32VW553/V1_MQTT_OK/GD32VW55X_Wifi_BLE_SDK/GD32VW55x_RELEASE_V1.0.2/MSDK/wpa_supplicant/src/ap\ap_drv_ops.h **** int hostapd_set_sta_flags(struct hostapd_data *hapd, struct sta_info *sta);
  32:C:/Users/stapi/OneDrive/Desktop/GD32VW553/V1_MQTT_OK/GD32VW55X_Wifi_BLE_SDK/GD32VW55x_RELEASE_V1.0.2/MSDK/wpa_supplicant/src/ap\ap_drv_ops.h **** int hostapd_set_drv_ieee8021x(struct hostapd_data *hapd, const char *ifname,
  33:C:/Users/stapi/OneDrive/Desktop/GD32VW553/V1_MQTT_OK/GD32VW55X_Wifi_BLE_SDK/GD32VW55x_RELEASE_V1.0.2/MSDK/wpa_supplicant/src/ap\ap_drv_ops.h **** 			      int enabled);
  34:C:/Users/stapi/OneDrive/Desktop/GD32VW553/V1_MQTT_OK/GD32VW55X_Wifi_BLE_SDK/GD32VW55x_RELEASE_V1.0.2/MSDK/wpa_supplicant/src/ap\ap_drv_ops.h **** int hostapd_vlan_if_add(struct hostapd_data *hapd, const char *ifname);
  35:C:/Users/stapi/OneDrive/Desktop/GD32VW553/V1_MQTT_OK/GD32VW55X_Wifi_BLE_SDK/GD32VW55x_RELEASE_V1.0.2/MSDK/wpa_supplicant/src/ap\ap_drv_ops.h **** int hostapd_vlan_if_remove(struct hostapd_data *hapd, const char *ifname);
  36:C:/Users/stapi/OneDrive/Desktop/GD32VW553/V1_MQTT_OK/GD32VW55X_Wifi_BLE_SDK/GD32VW55x_RELEASE_V1.0.2/MSDK/wpa_supplicant/src/ap\ap_drv_ops.h **** int hostapd_set_wds_sta(struct hostapd_data *hapd, char *ifname_wds,
  37:C:/Users/stapi/OneDrive/Desktop/GD32VW553/V1_MQTT_OK/GD32VW55X_Wifi_BLE_SDK/GD32VW55x_RELEASE_V1.0.2/MSDK/wpa_supplicant/src/ap\ap_drv_ops.h **** 			const u8 *addr, int aid, int val);
  38:C:/Users/stapi/OneDrive/Desktop/GD32VW553/V1_MQTT_OK/GD32VW55X_Wifi_BLE_SDK/GD32VW55x_RELEASE_V1.0.2/MSDK/wpa_supplicant/src/ap\ap_drv_ops.h **** int hostapd_sta_add(struct hostapd_data *hapd,
  39:C:/Users/stapi/OneDrive/Desktop/GD32VW553/V1_MQTT_OK/GD32VW55X_Wifi_BLE_SDK/GD32VW55x_RELEASE_V1.0.2/MSDK/wpa_supplicant/src/ap\ap_drv_ops.h **** 		    const u8 *addr, u16 aid, u16 capability,
  40:C:/Users/stapi/OneDrive/Desktop/GD32VW553/V1_MQTT_OK/GD32VW55X_Wifi_BLE_SDK/GD32VW55x_RELEASE_V1.0.2/MSDK/wpa_supplicant/src/ap\ap_drv_ops.h **** 		    const u8 *supp_rates, size_t supp_rates_len,
  41:C:/Users/stapi/OneDrive/Desktop/GD32VW553/V1_MQTT_OK/GD32VW55X_Wifi_BLE_SDK/GD32VW55x_RELEASE_V1.0.2/MSDK/wpa_supplicant/src/ap\ap_drv_ops.h **** 		    u16 listen_interval,
  42:C:/Users/stapi/OneDrive/Desktop/GD32VW553/V1_MQTT_OK/GD32VW55X_Wifi_BLE_SDK/GD32VW55x_RELEASE_V1.0.2/MSDK/wpa_supplicant/src/ap\ap_drv_ops.h **** 		    const struct ieee80211_ht_capabilities *ht_capab,
  43:C:/Users/stapi/OneDrive/Desktop/GD32VW553/V1_MQTT_OK/GD32VW55X_Wifi_BLE_SDK/GD32VW55x_RELEASE_V1.0.2/MSDK/wpa_supplicant/src/ap\ap_drv_ops.h **** 		    const struct ieee80211_vht_capabilities *vht_capab,
  44:C:/Users/stapi/OneDrive/Desktop/GD32VW553/V1_MQTT_OK/GD32VW55X_Wifi_BLE_SDK/GD32VW55x_RELEASE_V1.0.2/MSDK/wpa_supplicant/src/ap\ap_drv_ops.h **** 		    const struct ieee80211_he_capabilities *he_capab,
  45:C:/Users/stapi/OneDrive/Desktop/GD32VW553/V1_MQTT_OK/GD32VW55X_Wifi_BLE_SDK/GD32VW55x_RELEASE_V1.0.2/MSDK/wpa_supplicant/src/ap\ap_drv_ops.h **** 		    size_t he_capab_len,
  46:C:/Users/stapi/OneDrive/Desktop/GD32VW553/V1_MQTT_OK/GD32VW55X_Wifi_BLE_SDK/GD32VW55x_RELEASE_V1.0.2/MSDK/wpa_supplicant/src/ap\ap_drv_ops.h **** 		    const struct ieee80211_he_6ghz_band_cap *he_6ghz_capab,
  47:C:/Users/stapi/OneDrive/Desktop/GD32VW553/V1_MQTT_OK/GD32VW55X_Wifi_BLE_SDK/GD32VW55x_RELEASE_V1.0.2/MSDK/wpa_supplicant/src/ap\ap_drv_ops.h **** 		    u32 flags, u8 qosinfo, u8 vht_opmode, int supp_p2p_ps,
  48:C:/Users/stapi/OneDrive/Desktop/GD32VW553/V1_MQTT_OK/GD32VW55X_Wifi_BLE_SDK/GD32VW55x_RELEASE_V1.0.2/MSDK/wpa_supplicant/src/ap\ap_drv_ops.h **** 		    int set);
  49:C:/Users/stapi/OneDrive/Desktop/GD32VW553/V1_MQTT_OK/GD32VW55X_Wifi_BLE_SDK/GD32VW55x_RELEASE_V1.0.2/MSDK/wpa_supplicant/src/ap\ap_drv_ops.h **** int hostapd_set_privacy(struct hostapd_data *hapd, int enabled);
  50:C:/Users/stapi/OneDrive/Desktop/GD32VW553/V1_MQTT_OK/GD32VW55X_Wifi_BLE_SDK/GD32VW55x_RELEASE_V1.0.2/MSDK/wpa_supplicant/src/ap\ap_drv_ops.h **** int hostapd_set_generic_elem(struct hostapd_data *hapd, const u8 *elem,
  51:C:/Users/stapi/OneDrive/Desktop/GD32VW553/V1_MQTT_OK/GD32VW55X_Wifi_BLE_SDK/GD32VW55x_RELEASE_V1.0.2/MSDK/wpa_supplicant/src/ap\ap_drv_ops.h **** 			     size_t elem_len);
  52:C:/Users/stapi/OneDrive/Desktop/GD32VW553/V1_MQTT_OK/GD32VW55X_Wifi_BLE_SDK/GD32VW55x_RELEASE_V1.0.2/MSDK/wpa_supplicant/src/ap\ap_drv_ops.h **** int hostapd_get_ssid(struct hostapd_data *hapd, u8 *buf, size_t len);
  53:C:/Users/stapi/OneDrive/Desktop/GD32VW553/V1_MQTT_OK/GD32VW55X_Wifi_BLE_SDK/GD32VW55x_RELEASE_V1.0.2/MSDK/wpa_supplicant/src/ap\ap_drv_ops.h **** int hostapd_set_ssid(struct hostapd_data *hapd, const u8 *buf, size_t len);
  54:C:/Users/stapi/OneDrive/Desktop/GD32VW553/V1_MQTT_OK/GD32VW55X_Wifi_BLE_SDK/GD32VW55x_RELEASE_V1.0.2/MSDK/wpa_supplicant/src/ap\ap_drv_ops.h **** int hostapd_if_add(struct hostapd_data *hapd, enum wpa_driver_if_type type,
  55:C:/Users/stapi/OneDrive/Desktop/GD32VW553/V1_MQTT_OK/GD32VW55X_Wifi_BLE_SDK/GD32VW55x_RELEASE_V1.0.2/MSDK/wpa_supplicant/src/ap\ap_drv_ops.h **** 		   const char *ifname, const u8 *addr, void *bss_ctx,
  56:C:/Users/stapi/OneDrive/Desktop/GD32VW553/V1_MQTT_OK/GD32VW55X_Wifi_BLE_SDK/GD32VW55x_RELEASE_V1.0.2/MSDK/wpa_supplicant/src/ap\ap_drv_ops.h **** 		   void **drv_priv, char *force_ifname, u8 *if_addr,
  57:C:/Users/stapi/OneDrive/Desktop/GD32VW553/V1_MQTT_OK/GD32VW55X_Wifi_BLE_SDK/GD32VW55x_RELEASE_V1.0.2/MSDK/wpa_supplicant/src/ap\ap_drv_ops.h **** 		   const char *bridge, int use_existing);
  58:C:/Users/stapi/OneDrive/Desktop/GD32VW553/V1_MQTT_OK/GD32VW55X_Wifi_BLE_SDK/GD32VW55x_RELEASE_V1.0.2/MSDK/wpa_supplicant/src/ap\ap_drv_ops.h **** int hostapd_if_remove(struct hostapd_data *hapd, enum wpa_driver_if_type type,
  59:C:/Users/stapi/OneDrive/Desktop/GD32VW553/V1_MQTT_OK/GD32VW55X_Wifi_BLE_SDK/GD32VW55x_RELEASE_V1.0.2/MSDK/wpa_supplicant/src/ap\ap_drv_ops.h **** 		      const char *ifname);
  60:C:/Users/stapi/OneDrive/Desktop/GD32VW553/V1_MQTT_OK/GD32VW55X_Wifi_BLE_SDK/GD32VW55x_RELEASE_V1.0.2/MSDK/wpa_supplicant/src/ap\ap_drv_ops.h **** int hostapd_set_ieee8021x(struct hostapd_data *hapd,
  61:C:/Users/stapi/OneDrive/Desktop/GD32VW553/V1_MQTT_OK/GD32VW55X_Wifi_BLE_SDK/GD32VW55x_RELEASE_V1.0.2/MSDK/wpa_supplicant/src/ap\ap_drv_ops.h **** 			  struct wpa_bss_params *params);
  62:C:/Users/stapi/OneDrive/Desktop/GD32VW553/V1_MQTT_OK/GD32VW55X_Wifi_BLE_SDK/GD32VW55x_RELEASE_V1.0.2/MSDK/wpa_supplicant/src/ap\ap_drv_ops.h **** int hostapd_get_seqnum(const char *ifname, struct hostapd_data *hapd,
  63:C:/Users/stapi/OneDrive/Desktop/GD32VW553/V1_MQTT_OK/GD32VW55X_Wifi_BLE_SDK/GD32VW55x_RELEASE_V1.0.2/MSDK/wpa_supplicant/src/ap\ap_drv_ops.h **** 		       const u8 *addr, int idx, u8 *seq);
  64:C:/Users/stapi/OneDrive/Desktop/GD32VW553/V1_MQTT_OK/GD32VW55X_Wifi_BLE_SDK/GD32VW55x_RELEASE_V1.0.2/MSDK/wpa_supplicant/src/ap\ap_drv_ops.h **** int hostapd_flush(struct hostapd_data *hapd);
  65:C:/Users/stapi/OneDrive/Desktop/GD32VW553/V1_MQTT_OK/GD32VW55X_Wifi_BLE_SDK/GD32VW55x_RELEASE_V1.0.2/MSDK/wpa_supplicant/src/ap\ap_drv_ops.h **** int hostapd_set_freq(struct hostapd_data *hapd, enum hostapd_hw_mode mode,
  66:C:/Users/stapi/OneDrive/Desktop/GD32VW553/V1_MQTT_OK/GD32VW55X_Wifi_BLE_SDK/GD32VW55x_RELEASE_V1.0.2/MSDK/wpa_supplicant/src/ap\ap_drv_ops.h **** 		     int freq, int channel, int edmg, u8 edmg_channel,
  67:C:/Users/stapi/OneDrive/Desktop/GD32VW553/V1_MQTT_OK/GD32VW55X_Wifi_BLE_SDK/GD32VW55x_RELEASE_V1.0.2/MSDK/wpa_supplicant/src/ap\ap_drv_ops.h **** 		     int ht_enabled, int vht_enabled,
  68:C:/Users/stapi/OneDrive/Desktop/GD32VW553/V1_MQTT_OK/GD32VW55X_Wifi_BLE_SDK/GD32VW55x_RELEASE_V1.0.2/MSDK/wpa_supplicant/src/ap\ap_drv_ops.h **** 		     int he_enabled, int sec_channel_offset, int oper_chwidth,
  69:C:/Users/stapi/OneDrive/Desktop/GD32VW553/V1_MQTT_OK/GD32VW55X_Wifi_BLE_SDK/GD32VW55x_RELEASE_V1.0.2/MSDK/wpa_supplicant/src/ap\ap_drv_ops.h **** 		     int center_segment0, int center_segment1);
  70:C:/Users/stapi/OneDrive/Desktop/GD32VW553/V1_MQTT_OK/GD32VW55X_Wifi_BLE_SDK/GD32VW55x_RELEASE_V1.0.2/MSDK/wpa_supplicant/src/ap\ap_drv_ops.h **** int hostapd_set_rts(struct hostapd_data *hapd, int rts);
  71:C:/Users/stapi/OneDrive/Desktop/GD32VW553/V1_MQTT_OK/GD32VW55X_Wifi_BLE_SDK/GD32VW55x_RELEASE_V1.0.2/MSDK/wpa_supplicant/src/ap\ap_drv_ops.h **** int hostapd_set_frag(struct hostapd_data *hapd, int frag);
  72:C:/Users/stapi/OneDrive/Desktop/GD32VW553/V1_MQTT_OK/GD32VW55X_Wifi_BLE_SDK/GD32VW55x_RELEASE_V1.0.2/MSDK/wpa_supplicant/src/ap\ap_drv_ops.h **** int hostapd_sta_set_flags(struct hostapd_data *hapd, u8 *addr,
  73:C:/Users/stapi/OneDrive/Desktop/GD32VW553/V1_MQTT_OK/GD32VW55X_Wifi_BLE_SDK/GD32VW55x_RELEASE_V1.0.2/MSDK/wpa_supplicant/src/ap\ap_drv_ops.h **** 			  int total_flags, int flags_or, int flags_and);
  74:C:/Users/stapi/OneDrive/Desktop/GD32VW553/V1_MQTT_OK/GD32VW55X_Wifi_BLE_SDK/GD32VW55x_RELEASE_V1.0.2/MSDK/wpa_supplicant/src/ap\ap_drv_ops.h **** int hostapd_sta_set_airtime_weight(struct hostapd_data *hapd, const u8 *addr,
  75:C:/Users/stapi/OneDrive/Desktop/GD32VW553/V1_MQTT_OK/GD32VW55X_Wifi_BLE_SDK/GD32VW55x_RELEASE_V1.0.2/MSDK/wpa_supplicant/src/ap\ap_drv_ops.h **** 				   unsigned int weight);
  76:C:/Users/stapi/OneDrive/Desktop/GD32VW553/V1_MQTT_OK/GD32VW55X_Wifi_BLE_SDK/GD32VW55x_RELEASE_V1.0.2/MSDK/wpa_supplicant/src/ap\ap_drv_ops.h **** int hostapd_set_country(struct hostapd_data *hapd, const char *country);
  77:C:/Users/stapi/OneDrive/Desktop/GD32VW553/V1_MQTT_OK/GD32VW55X_Wifi_BLE_SDK/GD32VW55x_RELEASE_V1.0.2/MSDK/wpa_supplicant/src/ap\ap_drv_ops.h **** int hostapd_set_tx_queue_params(struct hostapd_data *hapd, int queue, int aifs,
  78:C:/Users/stapi/OneDrive/Desktop/GD32VW553/V1_MQTT_OK/GD32VW55X_Wifi_BLE_SDK/GD32VW55x_RELEASE_V1.0.2/MSDK/wpa_supplicant/src/ap\ap_drv_ops.h **** 				int cw_min, int cw_max, int burst_time);
  79:C:/Users/stapi/OneDrive/Desktop/GD32VW553/V1_MQTT_OK/GD32VW55X_Wifi_BLE_SDK/GD32VW55x_RELEASE_V1.0.2/MSDK/wpa_supplicant/src/ap\ap_drv_ops.h **** struct hostapd_hw_modes *
  80:C:/Users/stapi/OneDrive/Desktop/GD32VW553/V1_MQTT_OK/GD32VW55X_Wifi_BLE_SDK/GD32VW55x_RELEASE_V1.0.2/MSDK/wpa_supplicant/src/ap\ap_drv_ops.h **** hostapd_get_hw_feature_data(struct hostapd_data *hapd, u16 *num_modes,
  81:C:/Users/stapi/OneDrive/Desktop/GD32VW553/V1_MQTT_OK/GD32VW55X_Wifi_BLE_SDK/GD32VW55x_RELEASE_V1.0.2/MSDK/wpa_supplicant/src/ap\ap_drv_ops.h **** 			    u16 *flags, u8 *dfs_domain);
  82:C:/Users/stapi/OneDrive/Desktop/GD32VW553/V1_MQTT_OK/GD32VW55X_Wifi_BLE_SDK/GD32VW55x_RELEASE_V1.0.2/MSDK/wpa_supplicant/src/ap\ap_drv_ops.h **** int hostapd_driver_commit(struct hostapd_data *hapd);
  83:C:/Users/stapi/OneDrive/Desktop/GD32VW553/V1_MQTT_OK/GD32VW55X_Wifi_BLE_SDK/GD32VW55x_RELEASE_V1.0.2/MSDK/wpa_supplicant/src/ap\ap_drv_ops.h **** int hostapd_drv_none(struct hostapd_data *hapd);
  84:C:/Users/stapi/OneDrive/Desktop/GD32VW553/V1_MQTT_OK/GD32VW55X_Wifi_BLE_SDK/GD32VW55x_RELEASE_V1.0.2/MSDK/wpa_supplicant/src/ap\ap_drv_ops.h **** bool hostapd_drv_nl80211(struct hostapd_data *hapd);
  85:C:/Users/stapi/OneDrive/Desktop/GD32VW553/V1_MQTT_OK/GD32VW55X_Wifi_BLE_SDK/GD32VW55x_RELEASE_V1.0.2/MSDK/wpa_supplicant/src/ap\ap_drv_ops.h **** int hostapd_driver_scan(struct hostapd_data *hapd,
  86:C:/Users/stapi/OneDrive/Desktop/GD32VW553/V1_MQTT_OK/GD32VW55X_Wifi_BLE_SDK/GD32VW55x_RELEASE_V1.0.2/MSDK/wpa_supplicant/src/ap\ap_drv_ops.h **** 			struct wpa_driver_scan_params *params);
  87:C:/Users/stapi/OneDrive/Desktop/GD32VW553/V1_MQTT_OK/GD32VW55X_Wifi_BLE_SDK/GD32VW55x_RELEASE_V1.0.2/MSDK/wpa_supplicant/src/ap\ap_drv_ops.h **** struct wpa_scan_results * hostapd_driver_get_scan_results(
  88:C:/Users/stapi/OneDrive/Desktop/GD32VW553/V1_MQTT_OK/GD32VW55X_Wifi_BLE_SDK/GD32VW55x_RELEASE_V1.0.2/MSDK/wpa_supplicant/src/ap\ap_drv_ops.h **** 	struct hostapd_data *hapd);
  89:C:/Users/stapi/OneDrive/Desktop/GD32VW553/V1_MQTT_OK/GD32VW55X_Wifi_BLE_SDK/GD32VW55x_RELEASE_V1.0.2/MSDK/wpa_supplicant/src/ap\ap_drv_ops.h **** int hostapd_driver_set_noa(struct hostapd_data *hapd, u8 count, int start,
  90:C:/Users/stapi/OneDrive/Desktop/GD32VW553/V1_MQTT_OK/GD32VW55X_Wifi_BLE_SDK/GD32VW55x_RELEASE_V1.0.2/MSDK/wpa_supplicant/src/ap\ap_drv_ops.h **** 			   int duration);
  91:C:/Users/stapi/OneDrive/Desktop/GD32VW553/V1_MQTT_OK/GD32VW55X_Wifi_BLE_SDK/GD32VW55x_RELEASE_V1.0.2/MSDK/wpa_supplicant/src/ap\ap_drv_ops.h **** int hostapd_drv_set_key(const char *ifname,
  92:C:/Users/stapi/OneDrive/Desktop/GD32VW553/V1_MQTT_OK/GD32VW55X_Wifi_BLE_SDK/GD32VW55x_RELEASE_V1.0.2/MSDK/wpa_supplicant/src/ap\ap_drv_ops.h **** 			struct hostapd_data *hapd,
  93:C:/Users/stapi/OneDrive/Desktop/GD32VW553/V1_MQTT_OK/GD32VW55X_Wifi_BLE_SDK/GD32VW55x_RELEASE_V1.0.2/MSDK/wpa_supplicant/src/ap\ap_drv_ops.h **** 			enum wpa_alg alg, const u8 *addr,
  94:C:/Users/stapi/OneDrive/Desktop/GD32VW553/V1_MQTT_OK/GD32VW55X_Wifi_BLE_SDK/GD32VW55x_RELEASE_V1.0.2/MSDK/wpa_supplicant/src/ap\ap_drv_ops.h **** 			int key_idx, int vlan_id, int set_tx,
  95:C:/Users/stapi/OneDrive/Desktop/GD32VW553/V1_MQTT_OK/GD32VW55X_Wifi_BLE_SDK/GD32VW55x_RELEASE_V1.0.2/MSDK/wpa_supplicant/src/ap\ap_drv_ops.h **** 			const u8 *seq, size_t seq_len,
  96:C:/Users/stapi/OneDrive/Desktop/GD32VW553/V1_MQTT_OK/GD32VW55X_Wifi_BLE_SDK/GD32VW55x_RELEASE_V1.0.2/MSDK/wpa_supplicant/src/ap\ap_drv_ops.h **** 			const u8 *key, size_t key_len, enum key_flag key_flag);
  97:C:/Users/stapi/OneDrive/Desktop/GD32VW553/V1_MQTT_OK/GD32VW55X_Wifi_BLE_SDK/GD32VW55x_RELEASE_V1.0.2/MSDK/wpa_supplicant/src/ap\ap_drv_ops.h **** int hostapd_drv_send_mlme(struct hostapd_data *hapd,
  98:C:/Users/stapi/OneDrive/Desktop/GD32VW553/V1_MQTT_OK/GD32VW55X_Wifi_BLE_SDK/GD32VW55x_RELEASE_V1.0.2/MSDK/wpa_supplicant/src/ap\ap_drv_ops.h **** 			  const void *msg, size_t len, int noack,
  99:C:/Users/stapi/OneDrive/Desktop/GD32VW553/V1_MQTT_OK/GD32VW55X_Wifi_BLE_SDK/GD32VW55x_RELEASE_V1.0.2/MSDK/wpa_supplicant/src/ap\ap_drv_ops.h **** 			  const u16 *csa_offs, size_t csa_offs_len,
 100:C:/Users/stapi/OneDrive/Desktop/GD32VW553/V1_MQTT_OK/GD32VW55X_Wifi_BLE_SDK/GD32VW55x_RELEASE_V1.0.2/MSDK/wpa_supplicant/src/ap\ap_drv_ops.h **** 			  int no_encrypt);
 101:C:/Users/stapi/OneDrive/Desktop/GD32VW553/V1_MQTT_OK/GD32VW55X_Wifi_BLE_SDK/GD32VW55x_RELEASE_V1.0.2/MSDK/wpa_supplicant/src/ap\ap_drv_ops.h **** int hostapd_drv_sta_deauth(struct hostapd_data *hapd,
 102:C:/Users/stapi/OneDrive/Desktop/GD32VW553/V1_MQTT_OK/GD32VW55X_Wifi_BLE_SDK/GD32VW55x_RELEASE_V1.0.2/MSDK/wpa_supplicant/src/ap\ap_drv_ops.h **** 			   const u8 *addr, int reason);
 103:C:/Users/stapi/OneDrive/Desktop/GD32VW553/V1_MQTT_OK/GD32VW55X_Wifi_BLE_SDK/GD32VW55x_RELEASE_V1.0.2/MSDK/wpa_supplicant/src/ap\ap_drv_ops.h **** int hostapd_drv_sta_disassoc(struct hostapd_data *hapd,
 104:C:/Users/stapi/OneDrive/Desktop/GD32VW553/V1_MQTT_OK/GD32VW55X_Wifi_BLE_SDK/GD32VW55x_RELEASE_V1.0.2/MSDK/wpa_supplicant/src/ap\ap_drv_ops.h **** 			     const u8 *addr, int reason);
 105:C:/Users/stapi/OneDrive/Desktop/GD32VW553/V1_MQTT_OK/GD32VW55X_Wifi_BLE_SDK/GD32VW55x_RELEASE_V1.0.2/MSDK/wpa_supplicant/src/ap\ap_drv_ops.h **** int hostapd_drv_send_action(struct hostapd_data *hapd, unsigned int freq,
 106:C:/Users/stapi/OneDrive/Desktop/GD32VW553/V1_MQTT_OK/GD32VW55X_Wifi_BLE_SDK/GD32VW55x_RELEASE_V1.0.2/MSDK/wpa_supplicant/src/ap\ap_drv_ops.h **** 			    unsigned int wait, const u8 *dst, const u8 *data,
 107:C:/Users/stapi/OneDrive/Desktop/GD32VW553/V1_MQTT_OK/GD32VW55X_Wifi_BLE_SDK/GD32VW55x_RELEASE_V1.0.2/MSDK/wpa_supplicant/src/ap\ap_drv_ops.h **** 			    size_t len);
 108:C:/Users/stapi/OneDrive/Desktop/GD32VW553/V1_MQTT_OK/GD32VW55X_Wifi_BLE_SDK/GD32VW55x_RELEASE_V1.0.2/MSDK/wpa_supplicant/src/ap\ap_drv_ops.h **** int hostapd_drv_send_action_addr3_ap(struct hostapd_data *hapd,
 109:C:/Users/stapi/OneDrive/Desktop/GD32VW553/V1_MQTT_OK/GD32VW55X_Wifi_BLE_SDK/GD32VW55x_RELEASE_V1.0.2/MSDK/wpa_supplicant/src/ap\ap_drv_ops.h **** 				     unsigned int freq,
 110:C:/Users/stapi/OneDrive/Desktop/GD32VW553/V1_MQTT_OK/GD32VW55X_Wifi_BLE_SDK/GD32VW55x_RELEASE_V1.0.2/MSDK/wpa_supplicant/src/ap\ap_drv_ops.h **** 				     unsigned int wait, const u8 *dst,
 111:C:/Users/stapi/OneDrive/Desktop/GD32VW553/V1_MQTT_OK/GD32VW55X_Wifi_BLE_SDK/GD32VW55x_RELEASE_V1.0.2/MSDK/wpa_supplicant/src/ap\ap_drv_ops.h **** 				     const u8 *data, size_t len);
 112:C:/Users/stapi/OneDrive/Desktop/GD32VW553/V1_MQTT_OK/GD32VW55X_Wifi_BLE_SDK/GD32VW55x_RELEASE_V1.0.2/MSDK/wpa_supplicant/src/ap\ap_drv_ops.h **** static inline void
 113:C:/Users/stapi/OneDrive/Desktop/GD32VW553/V1_MQTT_OK/GD32VW55X_Wifi_BLE_SDK/GD32VW55x_RELEASE_V1.0.2/MSDK/wpa_supplicant/src/ap\ap_drv_ops.h **** hostapd_drv_send_action_cancel_wait(struct hostapd_data *hapd)
 114:C:/Users/stapi/OneDrive/Desktop/GD32VW553/V1_MQTT_OK/GD32VW55X_Wifi_BLE_SDK/GD32VW55x_RELEASE_V1.0.2/MSDK/wpa_supplicant/src/ap\ap_drv_ops.h **** {
 115:C:/Users/stapi/OneDrive/Desktop/GD32VW553/V1_MQTT_OK/GD32VW55X_Wifi_BLE_SDK/GD32VW55x_RELEASE_V1.0.2/MSDK/wpa_supplicant/src/ap\ap_drv_ops.h **** 	if (!hapd->driver || !hapd->driver->send_action_cancel_wait ||
 116:C:/Users/stapi/OneDrive/Desktop/GD32VW553/V1_MQTT_OK/GD32VW55X_Wifi_BLE_SDK/GD32VW55x_RELEASE_V1.0.2/MSDK/wpa_supplicant/src/ap\ap_drv_ops.h **** 	    !hapd->drv_priv)
 117:C:/Users/stapi/OneDrive/Desktop/GD32VW553/V1_MQTT_OK/GD32VW55X_Wifi_BLE_SDK/GD32VW55x_RELEASE_V1.0.2/MSDK/wpa_supplicant/src/ap\ap_drv_ops.h **** 		return;
 118:C:/Users/stapi/OneDrive/Desktop/GD32VW553/V1_MQTT_OK/GD32VW55X_Wifi_BLE_SDK/GD32VW55x_RELEASE_V1.0.2/MSDK/wpa_supplicant/src/ap\ap_drv_ops.h **** 	hapd->driver->send_action_cancel_wait(hapd->drv_priv);
 119:C:/Users/stapi/OneDrive/Desktop/GD32VW553/V1_MQTT_OK/GD32VW55X_Wifi_BLE_SDK/GD32VW55x_RELEASE_V1.0.2/MSDK/wpa_supplicant/src/ap\ap_drv_ops.h **** }
 120:C:/Users/stapi/OneDrive/Desktop/GD32VW553/V1_MQTT_OK/GD32VW55X_Wifi_BLE_SDK/GD32VW55x_RELEASE_V1.0.2/MSDK/wpa_supplicant/src/ap\ap_drv_ops.h **** int hostapd_add_sta_node(struct hostapd_data *hapd, const u8 *addr,
 121:C:/Users/stapi/OneDrive/Desktop/GD32VW553/V1_MQTT_OK/GD32VW55X_Wifi_BLE_SDK/GD32VW55x_RELEASE_V1.0.2/MSDK/wpa_supplicant/src/ap\ap_drv_ops.h **** 			 u16 auth_alg);
 122:C:/Users/stapi/OneDrive/Desktop/GD32VW553/V1_MQTT_OK/GD32VW55X_Wifi_BLE_SDK/GD32VW55x_RELEASE_V1.0.2/MSDK/wpa_supplicant/src/ap\ap_drv_ops.h **** int hostapd_sta_auth(struct hostapd_data *hapd, const u8 *addr,
 123:C:/Users/stapi/OneDrive/Desktop/GD32VW553/V1_MQTT_OK/GD32VW55X_Wifi_BLE_SDK/GD32VW55x_RELEASE_V1.0.2/MSDK/wpa_supplicant/src/ap\ap_drv_ops.h **** 		     u16 seq, u16 status, const u8 *ie, size_t len);
 124:C:/Users/stapi/OneDrive/Desktop/GD32VW553/V1_MQTT_OK/GD32VW55X_Wifi_BLE_SDK/GD32VW55x_RELEASE_V1.0.2/MSDK/wpa_supplicant/src/ap\ap_drv_ops.h **** int hostapd_sta_assoc(struct hostapd_data *hapd, const u8 *addr,
 125:C:/Users/stapi/OneDrive/Desktop/GD32VW553/V1_MQTT_OK/GD32VW55X_Wifi_BLE_SDK/GD32VW55x_RELEASE_V1.0.2/MSDK/wpa_supplicant/src/ap\ap_drv_ops.h **** 		      int reassoc, u16 status, const u8 *ie, size_t len);
 126:C:/Users/stapi/OneDrive/Desktop/GD32VW553/V1_MQTT_OK/GD32VW55X_Wifi_BLE_SDK/GD32VW55x_RELEASE_V1.0.2/MSDK/wpa_supplicant/src/ap\ap_drv_ops.h **** int hostapd_add_tspec(struct hostapd_data *hapd, const u8 *addr,
 127:C:/Users/stapi/OneDrive/Desktop/GD32VW553/V1_MQTT_OK/GD32VW55X_Wifi_BLE_SDK/GD32VW55x_RELEASE_V1.0.2/MSDK/wpa_supplicant/src/ap\ap_drv_ops.h **** 		      u8 *tspec_ie, size_t tspec_ielen);
 128:C:/Users/stapi/OneDrive/Desktop/GD32VW553/V1_MQTT_OK/GD32VW55X_Wifi_BLE_SDK/GD32VW55x_RELEASE_V1.0.2/MSDK/wpa_supplicant/src/ap\ap_drv_ops.h **** int hostapd_start_dfs_cac(struct hostapd_iface *iface,
 129:C:/Users/stapi/OneDrive/Desktop/GD32VW553/V1_MQTT_OK/GD32VW55X_Wifi_BLE_SDK/GD32VW55x_RELEASE_V1.0.2/MSDK/wpa_supplicant/src/ap\ap_drv_ops.h **** 			  enum hostapd_hw_mode mode, int freq,
 130:C:/Users/stapi/OneDrive/Desktop/GD32VW553/V1_MQTT_OK/GD32VW55X_Wifi_BLE_SDK/GD32VW55x_RELEASE_V1.0.2/MSDK/wpa_supplicant/src/ap\ap_drv_ops.h **** 			  int channel, int ht_enabled, int vht_enabled,
 131:C:/Users/stapi/OneDrive/Desktop/GD32VW553/V1_MQTT_OK/GD32VW55X_Wifi_BLE_SDK/GD32VW55x_RELEASE_V1.0.2/MSDK/wpa_supplicant/src/ap\ap_drv_ops.h **** 			  int he_enabled,
 132:C:/Users/stapi/OneDrive/Desktop/GD32VW553/V1_MQTT_OK/GD32VW55X_Wifi_BLE_SDK/GD32VW55x_RELEASE_V1.0.2/MSDK/wpa_supplicant/src/ap\ap_drv_ops.h **** 			  int sec_channel_offset, int oper_chwidth,
 133:C:/Users/stapi/OneDrive/Desktop/GD32VW553/V1_MQTT_OK/GD32VW55X_Wifi_BLE_SDK/GD32VW55x_RELEASE_V1.0.2/MSDK/wpa_supplicant/src/ap\ap_drv_ops.h **** 			  int center_segment0, int center_segment1);
 134:C:/Users/stapi/OneDrive/Desktop/GD32VW553/V1_MQTT_OK/GD32VW55X_Wifi_BLE_SDK/GD32VW55x_RELEASE_V1.0.2/MSDK/wpa_supplicant/src/ap\ap_drv_ops.h **** int hostapd_drv_do_acs(struct hostapd_data *hapd);
 135:C:/Users/stapi/OneDrive/Desktop/GD32VW553/V1_MQTT_OK/GD32VW55X_Wifi_BLE_SDK/GD32VW55x_RELEASE_V1.0.2/MSDK/wpa_supplicant/src/ap\ap_drv_ops.h **** int hostapd_drv_update_dh_ie(struct hostapd_data *hapd, const u8 *peer,
 136:C:/Users/stapi/OneDrive/Desktop/GD32VW553/V1_MQTT_OK/GD32VW55X_Wifi_BLE_SDK/GD32VW55x_RELEASE_V1.0.2/MSDK/wpa_supplicant/src/ap\ap_drv_ops.h **** 			     u16 reason_code, const u8 *ie, size_t ielen);
 137:C:/Users/stapi/OneDrive/Desktop/GD32VW553/V1_MQTT_OK/GD32VW55X_Wifi_BLE_SDK/GD32VW55x_RELEASE_V1.0.2/MSDK/wpa_supplicant/src/ap\ap_drv_ops.h **** int hostapd_drv_dpp_listen(struct hostapd_data *hapd, bool enable);
 138:C:/Users/stapi/OneDrive/Desktop/GD32VW553/V1_MQTT_OK/GD32VW55X_Wifi_BLE_SDK/GD32VW55x_RELEASE_V1.0.2/MSDK/wpa_supplicant/src/ap\ap_drv_ops.h **** 
 139:C:/Users/stapi/OneDrive/Desktop/GD32VW553/V1_MQTT_OK/GD32VW55X_Wifi_BLE_SDK/GD32VW55x_RELEASE_V1.0.2/MSDK/wpa_supplicant/src/ap\ap_drv_ops.h **** 
 140:C:/Users/stapi/OneDrive/Desktop/GD32VW553/V1_MQTT_OK/GD32VW55X_Wifi_BLE_SDK/GD32VW55x_RELEASE_V1.0.2/MSDK/wpa_supplicant/src/ap\ap_drv_ops.h **** #include "drivers/driver.h"
 141:C:/Users/stapi/OneDrive/Desktop/GD32VW553/V1_MQTT_OK/GD32VW55X_Wifi_BLE_SDK/GD32VW55x_RELEASE_V1.0.2/MSDK/wpa_supplicant/src/ap\ap_drv_ops.h **** 
 142:C:/Users/stapi/OneDrive/Desktop/GD32VW553/V1_MQTT_OK/GD32VW55X_Wifi_BLE_SDK/GD32VW55x_RELEASE_V1.0.2/MSDK/wpa_supplicant/src/ap\ap_drv_ops.h **** int hostapd_drv_wnm_oper(struct hostapd_data *hapd,
 143:C:/Users/stapi/OneDrive/Desktop/GD32VW553/V1_MQTT_OK/GD32VW55X_Wifi_BLE_SDK/GD32VW55x_RELEASE_V1.0.2/MSDK/wpa_supplicant/src/ap\ap_drv_ops.h **** 			 enum wnm_oper oper, const u8 *peer,
 144:C:/Users/stapi/OneDrive/Desktop/GD32VW553/V1_MQTT_OK/GD32VW55X_Wifi_BLE_SDK/GD32VW55x_RELEASE_V1.0.2/MSDK/wpa_supplicant/src/ap\ap_drv_ops.h **** 			 u8 *buf, u16 *buf_len);
 145:C:/Users/stapi/OneDrive/Desktop/GD32VW553/V1_MQTT_OK/GD32VW55X_Wifi_BLE_SDK/GD32VW55x_RELEASE_V1.0.2/MSDK/wpa_supplicant/src/ap\ap_drv_ops.h **** 
 146:C:/Users/stapi/OneDrive/Desktop/GD32VW553/V1_MQTT_OK/GD32VW55X_Wifi_BLE_SDK/GD32VW55x_RELEASE_V1.0.2/MSDK/wpa_supplicant/src/ap\ap_drv_ops.h **** int hostapd_drv_set_qos_map(struct hostapd_data *hapd, const u8 *qos_map_set,
 147:C:/Users/stapi/OneDrive/Desktop/GD32VW553/V1_MQTT_OK/GD32VW55X_Wifi_BLE_SDK/GD32VW55x_RELEASE_V1.0.2/MSDK/wpa_supplicant/src/ap\ap_drv_ops.h **** 			    u8 qos_map_set_len);
 148:C:/Users/stapi/OneDrive/Desktop/GD32VW553/V1_MQTT_OK/GD32VW55X_Wifi_BLE_SDK/GD32VW55x_RELEASE_V1.0.2/MSDK/wpa_supplicant/src/ap\ap_drv_ops.h **** 
 149:C:/Users/stapi/OneDrive/Desktop/GD32VW553/V1_MQTT_OK/GD32VW55X_Wifi_BLE_SDK/GD32VW55x_RELEASE_V1.0.2/MSDK/wpa_supplicant/src/ap\ap_drv_ops.h **** void hostapd_get_ext_capa(struct hostapd_iface *iface);
 150:C:/Users/stapi/OneDrive/Desktop/GD32VW553/V1_MQTT_OK/GD32VW55X_Wifi_BLE_SDK/GD32VW55x_RELEASE_V1.0.2/MSDK/wpa_supplicant/src/ap\ap_drv_ops.h **** 
 151:C:/Users/stapi/OneDrive/Desktop/GD32VW553/V1_MQTT_OK/GD32VW55X_Wifi_BLE_SDK/GD32VW55x_RELEASE_V1.0.2/MSDK/wpa_supplicant/src/ap\ap_drv_ops.h **** static inline int hostapd_drv_set_countermeasures(struct hostapd_data *hapd,
 152:C:/Users/stapi/OneDrive/Desktop/GD32VW553/V1_MQTT_OK/GD32VW55X_Wifi_BLE_SDK/GD32VW55x_RELEASE_V1.0.2/MSDK/wpa_supplicant/src/ap\ap_drv_ops.h **** 						  int enabled)
 153:C:/Users/stapi/OneDrive/Desktop/GD32VW553/V1_MQTT_OK/GD32VW55X_Wifi_BLE_SDK/GD32VW55x_RELEASE_V1.0.2/MSDK/wpa_supplicant/src/ap\ap_drv_ops.h **** {
 154:C:/Users/stapi/OneDrive/Desktop/GD32VW553/V1_MQTT_OK/GD32VW55X_Wifi_BLE_SDK/GD32VW55x_RELEASE_V1.0.2/MSDK/wpa_supplicant/src/ap\ap_drv_ops.h **** 	if (hapd->driver == NULL ||
 155:C:/Users/stapi/OneDrive/Desktop/GD32VW553/V1_MQTT_OK/GD32VW55X_Wifi_BLE_SDK/GD32VW55x_RELEASE_V1.0.2/MSDK/wpa_supplicant/src/ap\ap_drv_ops.h **** 	    hapd->driver->hapd_set_countermeasures == NULL)
 156:C:/Users/stapi/OneDrive/Desktop/GD32VW553/V1_MQTT_OK/GD32VW55X_Wifi_BLE_SDK/GD32VW55x_RELEASE_V1.0.2/MSDK/wpa_supplicant/src/ap\ap_drv_ops.h **** 		return 0;
 157:C:/Users/stapi/OneDrive/Desktop/GD32VW553/V1_MQTT_OK/GD32VW55X_Wifi_BLE_SDK/GD32VW55x_RELEASE_V1.0.2/MSDK/wpa_supplicant/src/ap\ap_drv_ops.h **** 	return hapd->driver->hapd_set_countermeasures(hapd->drv_priv, enabled);
 158:C:/Users/stapi/OneDrive/Desktop/GD32VW553/V1_MQTT_OK/GD32VW55X_Wifi_BLE_SDK/GD32VW55x_RELEASE_V1.0.2/MSDK/wpa_supplicant/src/ap\ap_drv_ops.h **** }
 159:C:/Users/stapi/OneDrive/Desktop/GD32VW553/V1_MQTT_OK/GD32VW55X_Wifi_BLE_SDK/GD32VW55x_RELEASE_V1.0.2/MSDK/wpa_supplicant/src/ap\ap_drv_ops.h **** 
 160:C:/Users/stapi/OneDrive/Desktop/GD32VW553/V1_MQTT_OK/GD32VW55X_Wifi_BLE_SDK/GD32VW55x_RELEASE_V1.0.2/MSDK/wpa_supplicant/src/ap\ap_drv_ops.h **** static inline int hostapd_drv_set_sta_vlan(const char *ifname,
 161:C:/Users/stapi/OneDrive/Desktop/GD32VW553/V1_MQTT_OK/GD32VW55X_Wifi_BLE_SDK/GD32VW55x_RELEASE_V1.0.2/MSDK/wpa_supplicant/src/ap\ap_drv_ops.h **** 					   struct hostapd_data *hapd,
 162:C:/Users/stapi/OneDrive/Desktop/GD32VW553/V1_MQTT_OK/GD32VW55X_Wifi_BLE_SDK/GD32VW55x_RELEASE_V1.0.2/MSDK/wpa_supplicant/src/ap\ap_drv_ops.h **** 					   const u8 *addr, int vlan_id)
 163:C:/Users/stapi/OneDrive/Desktop/GD32VW553/V1_MQTT_OK/GD32VW55X_Wifi_BLE_SDK/GD32VW55x_RELEASE_V1.0.2/MSDK/wpa_supplicant/src/ap\ap_drv_ops.h **** {
 164:C:/Users/stapi/OneDrive/Desktop/GD32VW553/V1_MQTT_OK/GD32VW55X_Wifi_BLE_SDK/GD32VW55x_RELEASE_V1.0.2/MSDK/wpa_supplicant/src/ap\ap_drv_ops.h **** 	if (hapd->driver == NULL || hapd->driver->set_sta_vlan == NULL)
 165:C:/Users/stapi/OneDrive/Desktop/GD32VW553/V1_MQTT_OK/GD32VW55X_Wifi_BLE_SDK/GD32VW55x_RELEASE_V1.0.2/MSDK/wpa_supplicant/src/ap\ap_drv_ops.h **** 		return 0;
 166:C:/Users/stapi/OneDrive/Desktop/GD32VW553/V1_MQTT_OK/GD32VW55X_Wifi_BLE_SDK/GD32VW55x_RELEASE_V1.0.2/MSDK/wpa_supplicant/src/ap\ap_drv_ops.h **** 	return hapd->driver->set_sta_vlan(hapd->drv_priv, addr, ifname,
 167:C:/Users/stapi/OneDrive/Desktop/GD32VW553/V1_MQTT_OK/GD32VW55X_Wifi_BLE_SDK/GD32VW55x_RELEASE_V1.0.2/MSDK/wpa_supplicant/src/ap\ap_drv_ops.h **** 					  vlan_id);
 168:C:/Users/stapi/OneDrive/Desktop/GD32VW553/V1_MQTT_OK/GD32VW55X_Wifi_BLE_SDK/GD32VW55x_RELEASE_V1.0.2/MSDK/wpa_supplicant/src/ap\ap_drv_ops.h **** }
 169:C:/Users/stapi/OneDrive/Desktop/GD32VW553/V1_MQTT_OK/GD32VW55X_Wifi_BLE_SDK/GD32VW55x_RELEASE_V1.0.2/MSDK/wpa_supplicant/src/ap\ap_drv_ops.h **** 
 170:C:/Users/stapi/OneDrive/Desktop/GD32VW553/V1_MQTT_OK/GD32VW55X_Wifi_BLE_SDK/GD32VW55x_RELEASE_V1.0.2/MSDK/wpa_supplicant/src/ap\ap_drv_ops.h **** static inline int hostapd_drv_get_inact_sec(struct hostapd_data *hapd,
 171:C:/Users/stapi/OneDrive/Desktop/GD32VW553/V1_MQTT_OK/GD32VW55X_Wifi_BLE_SDK/GD32VW55x_RELEASE_V1.0.2/MSDK/wpa_supplicant/src/ap\ap_drv_ops.h **** 					    const u8 *addr)
 172:C:/Users/stapi/OneDrive/Desktop/GD32VW553/V1_MQTT_OK/GD32VW55X_Wifi_BLE_SDK/GD32VW55x_RELEASE_V1.0.2/MSDK/wpa_supplicant/src/ap\ap_drv_ops.h **** {
 173:C:/Users/stapi/OneDrive/Desktop/GD32VW553/V1_MQTT_OK/GD32VW55X_Wifi_BLE_SDK/GD32VW55x_RELEASE_V1.0.2/MSDK/wpa_supplicant/src/ap\ap_drv_ops.h **** 	if (hapd->driver == NULL || hapd->driver->get_inact_sec == NULL)
 174:C:/Users/stapi/OneDrive/Desktop/GD32VW553/V1_MQTT_OK/GD32VW55X_Wifi_BLE_SDK/GD32VW55x_RELEASE_V1.0.2/MSDK/wpa_supplicant/src/ap\ap_drv_ops.h **** 		return 0;
 175:C:/Users/stapi/OneDrive/Desktop/GD32VW553/V1_MQTT_OK/GD32VW55X_Wifi_BLE_SDK/GD32VW55x_RELEASE_V1.0.2/MSDK/wpa_supplicant/src/ap\ap_drv_ops.h **** 	return hapd->driver->get_inact_sec(hapd->drv_priv, addr);
 176:C:/Users/stapi/OneDrive/Desktop/GD32VW553/V1_MQTT_OK/GD32VW55X_Wifi_BLE_SDK/GD32VW55x_RELEASE_V1.0.2/MSDK/wpa_supplicant/src/ap\ap_drv_ops.h **** }
 177:C:/Users/stapi/OneDrive/Desktop/GD32VW553/V1_MQTT_OK/GD32VW55X_Wifi_BLE_SDK/GD32VW55x_RELEASE_V1.0.2/MSDK/wpa_supplicant/src/ap\ap_drv_ops.h **** 
 178:C:/Users/stapi/OneDrive/Desktop/GD32VW553/V1_MQTT_OK/GD32VW55X_Wifi_BLE_SDK/GD32VW55x_RELEASE_V1.0.2/MSDK/wpa_supplicant/src/ap\ap_drv_ops.h **** static inline int hostapd_drv_sta_remove(struct hostapd_data *hapd,
 179:C:/Users/stapi/OneDrive/Desktop/GD32VW553/V1_MQTT_OK/GD32VW55X_Wifi_BLE_SDK/GD32VW55x_RELEASE_V1.0.2/MSDK/wpa_supplicant/src/ap\ap_drv_ops.h **** 					 const u8 *addr)
 180:C:/Users/stapi/OneDrive/Desktop/GD32VW553/V1_MQTT_OK/GD32VW55X_Wifi_BLE_SDK/GD32VW55x_RELEASE_V1.0.2/MSDK/wpa_supplicant/src/ap\ap_drv_ops.h **** {
 181:C:/Users/stapi/OneDrive/Desktop/GD32VW553/V1_MQTT_OK/GD32VW55X_Wifi_BLE_SDK/GD32VW55x_RELEASE_V1.0.2/MSDK/wpa_supplicant/src/ap\ap_drv_ops.h **** 	if (!hapd->driver || !hapd->driver->sta_remove || !hapd->drv_priv)
 182:C:/Users/stapi/OneDrive/Desktop/GD32VW553/V1_MQTT_OK/GD32VW55X_Wifi_BLE_SDK/GD32VW55x_RELEASE_V1.0.2/MSDK/wpa_supplicant/src/ap\ap_drv_ops.h **** 		return 0;
 183:C:/Users/stapi/OneDrive/Desktop/GD32VW553/V1_MQTT_OK/GD32VW55X_Wifi_BLE_SDK/GD32VW55x_RELEASE_V1.0.2/MSDK/wpa_supplicant/src/ap\ap_drv_ops.h **** 	return hapd->driver->sta_remove(hapd->drv_priv, addr);
 184:C:/Users/stapi/OneDrive/Desktop/GD32VW553/V1_MQTT_OK/GD32VW55X_Wifi_BLE_SDK/GD32VW55x_RELEASE_V1.0.2/MSDK/wpa_supplicant/src/ap\ap_drv_ops.h **** }
 185:C:/Users/stapi/OneDrive/Desktop/GD32VW553/V1_MQTT_OK/GD32VW55X_Wifi_BLE_SDK/GD32VW55x_RELEASE_V1.0.2/MSDK/wpa_supplicant/src/ap\ap_drv_ops.h **** 
 186:C:/Users/stapi/OneDrive/Desktop/GD32VW553/V1_MQTT_OK/GD32VW55X_Wifi_BLE_SDK/GD32VW55x_RELEASE_V1.0.2/MSDK/wpa_supplicant/src/ap\ap_drv_ops.h **** static inline int hostapd_drv_hapd_send_eapol(struct hostapd_data *hapd,
 187:C:/Users/stapi/OneDrive/Desktop/GD32VW553/V1_MQTT_OK/GD32VW55X_Wifi_BLE_SDK/GD32VW55x_RELEASE_V1.0.2/MSDK/wpa_supplicant/src/ap\ap_drv_ops.h **** 					      const u8 *addr, const u8 *data,
 188:C:/Users/stapi/OneDrive/Desktop/GD32VW553/V1_MQTT_OK/GD32VW55X_Wifi_BLE_SDK/GD32VW55x_RELEASE_V1.0.2/MSDK/wpa_supplicant/src/ap\ap_drv_ops.h **** 					      size_t data_len, int encrypt,
 189:C:/Users/stapi/OneDrive/Desktop/GD32VW553/V1_MQTT_OK/GD32VW55X_Wifi_BLE_SDK/GD32VW55x_RELEASE_V1.0.2/MSDK/wpa_supplicant/src/ap\ap_drv_ops.h **** 					      u32 flags)
 190:C:/Users/stapi/OneDrive/Desktop/GD32VW553/V1_MQTT_OK/GD32VW55X_Wifi_BLE_SDK/GD32VW55x_RELEASE_V1.0.2/MSDK/wpa_supplicant/src/ap\ap_drv_ops.h **** {
 191:C:/Users/stapi/OneDrive/Desktop/GD32VW553/V1_MQTT_OK/GD32VW55X_Wifi_BLE_SDK/GD32VW55x_RELEASE_V1.0.2/MSDK/wpa_supplicant/src/ap\ap_drv_ops.h **** 	if (hapd->driver == NULL || hapd->driver->hapd_send_eapol == NULL)
 192:C:/Users/stapi/OneDrive/Desktop/GD32VW553/V1_MQTT_OK/GD32VW55X_Wifi_BLE_SDK/GD32VW55x_RELEASE_V1.0.2/MSDK/wpa_supplicant/src/ap\ap_drv_ops.h **** 		return 0;
 193:C:/Users/stapi/OneDrive/Desktop/GD32VW553/V1_MQTT_OK/GD32VW55X_Wifi_BLE_SDK/GD32VW55x_RELEASE_V1.0.2/MSDK/wpa_supplicant/src/ap\ap_drv_ops.h **** 	return hapd->driver->hapd_send_eapol(hapd->drv_priv, addr, data,
 194:C:/Users/stapi/OneDrive/Desktop/GD32VW553/V1_MQTT_OK/GD32VW55X_Wifi_BLE_SDK/GD32VW55x_RELEASE_V1.0.2/MSDK/wpa_supplicant/src/ap\ap_drv_ops.h **** 					     data_len, encrypt,
 195:C:/Users/stapi/OneDrive/Desktop/GD32VW553/V1_MQTT_OK/GD32VW55X_Wifi_BLE_SDK/GD32VW55x_RELEASE_V1.0.2/MSDK/wpa_supplicant/src/ap\ap_drv_ops.h **** 					     hapd->own_addr, flags);
 196:C:/Users/stapi/OneDrive/Desktop/GD32VW553/V1_MQTT_OK/GD32VW55X_Wifi_BLE_SDK/GD32VW55x_RELEASE_V1.0.2/MSDK/wpa_supplicant/src/ap\ap_drv_ops.h **** }
 197:C:/Users/stapi/OneDrive/Desktop/GD32VW553/V1_MQTT_OK/GD32VW55X_Wifi_BLE_SDK/GD32VW55x_RELEASE_V1.0.2/MSDK/wpa_supplicant/src/ap\ap_drv_ops.h **** 
 198:C:/Users/stapi/OneDrive/Desktop/GD32VW553/V1_MQTT_OK/GD32VW55X_Wifi_BLE_SDK/GD32VW55x_RELEASE_V1.0.2/MSDK/wpa_supplicant/src/ap\ap_drv_ops.h **** static inline int hostapd_drv_read_sta_data(
 199:C:/Users/stapi/OneDrive/Desktop/GD32VW553/V1_MQTT_OK/GD32VW55X_Wifi_BLE_SDK/GD32VW55x_RELEASE_V1.0.2/MSDK/wpa_supplicant/src/ap\ap_drv_ops.h **** 	struct hostapd_data *hapd, struct hostap_sta_driver_data *data,
 200:C:/Users/stapi/OneDrive/Desktop/GD32VW553/V1_MQTT_OK/GD32VW55X_Wifi_BLE_SDK/GD32VW55x_RELEASE_V1.0.2/MSDK/wpa_supplicant/src/ap\ap_drv_ops.h **** 	const u8 *addr)
 201:C:/Users/stapi/OneDrive/Desktop/GD32VW553/V1_MQTT_OK/GD32VW55X_Wifi_BLE_SDK/GD32VW55x_RELEASE_V1.0.2/MSDK/wpa_supplicant/src/ap\ap_drv_ops.h **** {
 202:C:/Users/stapi/OneDrive/Desktop/GD32VW553/V1_MQTT_OK/GD32VW55X_Wifi_BLE_SDK/GD32VW55x_RELEASE_V1.0.2/MSDK/wpa_supplicant/src/ap\ap_drv_ops.h **** 	if (hapd->driver == NULL || hapd->driver->read_sta_data == NULL)
 203:C:/Users/stapi/OneDrive/Desktop/GD32VW553/V1_MQTT_OK/GD32VW55X_Wifi_BLE_SDK/GD32VW55x_RELEASE_V1.0.2/MSDK/wpa_supplicant/src/ap\ap_drv_ops.h **** 		return -1;
 204:C:/Users/stapi/OneDrive/Desktop/GD32VW553/V1_MQTT_OK/GD32VW55X_Wifi_BLE_SDK/GD32VW55x_RELEASE_V1.0.2/MSDK/wpa_supplicant/src/ap\ap_drv_ops.h **** 	return hapd->driver->read_sta_data(hapd->drv_priv, data, addr);
 205:C:/Users/stapi/OneDrive/Desktop/GD32VW553/V1_MQTT_OK/GD32VW55X_Wifi_BLE_SDK/GD32VW55x_RELEASE_V1.0.2/MSDK/wpa_supplicant/src/ap\ap_drv_ops.h **** }
 206:C:/Users/stapi/OneDrive/Desktop/GD32VW553/V1_MQTT_OK/GD32VW55X_Wifi_BLE_SDK/GD32VW55x_RELEASE_V1.0.2/MSDK/wpa_supplicant/src/ap\ap_drv_ops.h **** 
 207:C:/Users/stapi/OneDrive/Desktop/GD32VW553/V1_MQTT_OK/GD32VW55X_Wifi_BLE_SDK/GD32VW55x_RELEASE_V1.0.2/MSDK/wpa_supplicant/src/ap\ap_drv_ops.h **** static inline int hostapd_drv_sta_clear_stats(struct hostapd_data *hapd,
 208:C:/Users/stapi/OneDrive/Desktop/GD32VW553/V1_MQTT_OK/GD32VW55X_Wifi_BLE_SDK/GD32VW55x_RELEASE_V1.0.2/MSDK/wpa_supplicant/src/ap\ap_drv_ops.h **** 					      const u8 *addr)
 209:C:/Users/stapi/OneDrive/Desktop/GD32VW553/V1_MQTT_OK/GD32VW55X_Wifi_BLE_SDK/GD32VW55x_RELEASE_V1.0.2/MSDK/wpa_supplicant/src/ap\ap_drv_ops.h **** {
 210:C:/Users/stapi/OneDrive/Desktop/GD32VW553/V1_MQTT_OK/GD32VW55X_Wifi_BLE_SDK/GD32VW55x_RELEASE_V1.0.2/MSDK/wpa_supplicant/src/ap\ap_drv_ops.h **** 	if (hapd->driver == NULL || hapd->driver->sta_clear_stats == NULL)
 211:C:/Users/stapi/OneDrive/Desktop/GD32VW553/V1_MQTT_OK/GD32VW55X_Wifi_BLE_SDK/GD32VW55x_RELEASE_V1.0.2/MSDK/wpa_supplicant/src/ap\ap_drv_ops.h **** 		return 0;
 212:C:/Users/stapi/OneDrive/Desktop/GD32VW553/V1_MQTT_OK/GD32VW55X_Wifi_BLE_SDK/GD32VW55x_RELEASE_V1.0.2/MSDK/wpa_supplicant/src/ap\ap_drv_ops.h **** 	return hapd->driver->sta_clear_stats(hapd->drv_priv, addr);
 213:C:/Users/stapi/OneDrive/Desktop/GD32VW553/V1_MQTT_OK/GD32VW55X_Wifi_BLE_SDK/GD32VW55x_RELEASE_V1.0.2/MSDK/wpa_supplicant/src/ap\ap_drv_ops.h **** }
 214:C:/Users/stapi/OneDrive/Desktop/GD32VW553/V1_MQTT_OK/GD32VW55X_Wifi_BLE_SDK/GD32VW55x_RELEASE_V1.0.2/MSDK/wpa_supplicant/src/ap\ap_drv_ops.h **** 
 215:C:/Users/stapi/OneDrive/Desktop/GD32VW553/V1_MQTT_OK/GD32VW55X_Wifi_BLE_SDK/GD32VW55x_RELEASE_V1.0.2/MSDK/wpa_supplicant/src/ap\ap_drv_ops.h **** static inline int hostapd_drv_set_acl(struct hostapd_data *hapd,
 216:C:/Users/stapi/OneDrive/Desktop/GD32VW553/V1_MQTT_OK/GD32VW55X_Wifi_BLE_SDK/GD32VW55x_RELEASE_V1.0.2/MSDK/wpa_supplicant/src/ap\ap_drv_ops.h **** 				      struct hostapd_acl_params *params)
 217:C:/Users/stapi/OneDrive/Desktop/GD32VW553/V1_MQTT_OK/GD32VW55X_Wifi_BLE_SDK/GD32VW55x_RELEASE_V1.0.2/MSDK/wpa_supplicant/src/ap\ap_drv_ops.h **** {
 218:C:/Users/stapi/OneDrive/Desktop/GD32VW553/V1_MQTT_OK/GD32VW55X_Wifi_BLE_SDK/GD32VW55x_RELEASE_V1.0.2/MSDK/wpa_supplicant/src/ap\ap_drv_ops.h **** 	if (hapd->driver == NULL || hapd->driver->set_acl == NULL)
 219:C:/Users/stapi/OneDrive/Desktop/GD32VW553/V1_MQTT_OK/GD32VW55X_Wifi_BLE_SDK/GD32VW55x_RELEASE_V1.0.2/MSDK/wpa_supplicant/src/ap\ap_drv_ops.h **** 		return 0;
 220:C:/Users/stapi/OneDrive/Desktop/GD32VW553/V1_MQTT_OK/GD32VW55X_Wifi_BLE_SDK/GD32VW55x_RELEASE_V1.0.2/MSDK/wpa_supplicant/src/ap\ap_drv_ops.h **** 	return hapd->driver->set_acl(hapd->drv_priv, params);
 221:C:/Users/stapi/OneDrive/Desktop/GD32VW553/V1_MQTT_OK/GD32VW55X_Wifi_BLE_SDK/GD32VW55x_RELEASE_V1.0.2/MSDK/wpa_supplicant/src/ap\ap_drv_ops.h **** }
 222:C:/Users/stapi/OneDrive/Desktop/GD32VW553/V1_MQTT_OK/GD32VW55X_Wifi_BLE_SDK/GD32VW55x_RELEASE_V1.0.2/MSDK/wpa_supplicant/src/ap\ap_drv_ops.h **** 
 223:C:/Users/stapi/OneDrive/Desktop/GD32VW553/V1_MQTT_OK/GD32VW55X_Wifi_BLE_SDK/GD32VW55x_RELEASE_V1.0.2/MSDK/wpa_supplicant/src/ap\ap_drv_ops.h **** static inline int hostapd_drv_set_ap(struct hostapd_data *hapd,
 224:C:/Users/stapi/OneDrive/Desktop/GD32VW553/V1_MQTT_OK/GD32VW55X_Wifi_BLE_SDK/GD32VW55x_RELEASE_V1.0.2/MSDK/wpa_supplicant/src/ap\ap_drv_ops.h **** 				     struct wpa_driver_ap_params *params)
 225:C:/Users/stapi/OneDrive/Desktop/GD32VW553/V1_MQTT_OK/GD32VW55X_Wifi_BLE_SDK/GD32VW55x_RELEASE_V1.0.2/MSDK/wpa_supplicant/src/ap\ap_drv_ops.h **** {
 226:C:/Users/stapi/OneDrive/Desktop/GD32VW553/V1_MQTT_OK/GD32VW55X_Wifi_BLE_SDK/GD32VW55x_RELEASE_V1.0.2/MSDK/wpa_supplicant/src/ap\ap_drv_ops.h **** 	if (hapd->driver == NULL || hapd->driver->set_ap == NULL)
 227:C:/Users/stapi/OneDrive/Desktop/GD32VW553/V1_MQTT_OK/GD32VW55X_Wifi_BLE_SDK/GD32VW55x_RELEASE_V1.0.2/MSDK/wpa_supplicant/src/ap\ap_drv_ops.h **** 		return 0;
 228:C:/Users/stapi/OneDrive/Desktop/GD32VW553/V1_MQTT_OK/GD32VW55X_Wifi_BLE_SDK/GD32VW55x_RELEASE_V1.0.2/MSDK/wpa_supplicant/src/ap\ap_drv_ops.h **** 	return hapd->driver->set_ap(hapd->drv_priv, params);
 229:C:/Users/stapi/OneDrive/Desktop/GD32VW553/V1_MQTT_OK/GD32VW55X_Wifi_BLE_SDK/GD32VW55x_RELEASE_V1.0.2/MSDK/wpa_supplicant/src/ap\ap_drv_ops.h **** }
 230:C:/Users/stapi/OneDrive/Desktop/GD32VW553/V1_MQTT_OK/GD32VW55X_Wifi_BLE_SDK/GD32VW55x_RELEASE_V1.0.2/MSDK/wpa_supplicant/src/ap\ap_drv_ops.h **** 
 231:C:/Users/stapi/OneDrive/Desktop/GD32VW553/V1_MQTT_OK/GD32VW55X_Wifi_BLE_SDK/GD32VW55x_RELEASE_V1.0.2/MSDK/wpa_supplicant/src/ap\ap_drv_ops.h **** static inline int hostapd_drv_set_radius_acl_auth(struct hostapd_data *hapd,
 232:C:/Users/stapi/OneDrive/Desktop/GD32VW553/V1_MQTT_OK/GD32VW55X_Wifi_BLE_SDK/GD32VW55x_RELEASE_V1.0.2/MSDK/wpa_supplicant/src/ap\ap_drv_ops.h **** 						  const u8 *mac, int accepted,
 233:C:/Users/stapi/OneDrive/Desktop/GD32VW553/V1_MQTT_OK/GD32VW55X_Wifi_BLE_SDK/GD32VW55x_RELEASE_V1.0.2/MSDK/wpa_supplicant/src/ap\ap_drv_ops.h **** 						  u32 session_timeout)
 234:C:/Users/stapi/OneDrive/Desktop/GD32VW553/V1_MQTT_OK/GD32VW55X_Wifi_BLE_SDK/GD32VW55x_RELEASE_V1.0.2/MSDK/wpa_supplicant/src/ap\ap_drv_ops.h **** {
 235:C:/Users/stapi/OneDrive/Desktop/GD32VW553/V1_MQTT_OK/GD32VW55X_Wifi_BLE_SDK/GD32VW55x_RELEASE_V1.0.2/MSDK/wpa_supplicant/src/ap\ap_drv_ops.h **** 	if (hapd->driver == NULL || hapd->driver->set_radius_acl_auth == NULL)
 236:C:/Users/stapi/OneDrive/Desktop/GD32VW553/V1_MQTT_OK/GD32VW55X_Wifi_BLE_SDK/GD32VW55x_RELEASE_V1.0.2/MSDK/wpa_supplicant/src/ap\ap_drv_ops.h **** 		return 0;
 237:C:/Users/stapi/OneDrive/Desktop/GD32VW553/V1_MQTT_OK/GD32VW55X_Wifi_BLE_SDK/GD32VW55x_RELEASE_V1.0.2/MSDK/wpa_supplicant/src/ap\ap_drv_ops.h **** 	return hapd->driver->set_radius_acl_auth(hapd->drv_priv, mac, accepted,
 238:C:/Users/stapi/OneDrive/Desktop/GD32VW553/V1_MQTT_OK/GD32VW55X_Wifi_BLE_SDK/GD32VW55x_RELEASE_V1.0.2/MSDK/wpa_supplicant/src/ap\ap_drv_ops.h **** 						 session_timeout);
 239:C:/Users/stapi/OneDrive/Desktop/GD32VW553/V1_MQTT_OK/GD32VW55X_Wifi_BLE_SDK/GD32VW55x_RELEASE_V1.0.2/MSDK/wpa_supplicant/src/ap\ap_drv_ops.h **** }
 240:C:/Users/stapi/OneDrive/Desktop/GD32VW553/V1_MQTT_OK/GD32VW55X_Wifi_BLE_SDK/GD32VW55x_RELEASE_V1.0.2/MSDK/wpa_supplicant/src/ap\ap_drv_ops.h **** 
 241:C:/Users/stapi/OneDrive/Desktop/GD32VW553/V1_MQTT_OK/GD32VW55X_Wifi_BLE_SDK/GD32VW55x_RELEASE_V1.0.2/MSDK/wpa_supplicant/src/ap\ap_drv_ops.h **** static inline int hostapd_drv_set_radius_acl_expire(struct hostapd_data *hapd,
 242:C:/Users/stapi/OneDrive/Desktop/GD32VW553/V1_MQTT_OK/GD32VW55X_Wifi_BLE_SDK/GD32VW55x_RELEASE_V1.0.2/MSDK/wpa_supplicant/src/ap\ap_drv_ops.h **** 						    const u8 *mac)
 243:C:/Users/stapi/OneDrive/Desktop/GD32VW553/V1_MQTT_OK/GD32VW55X_Wifi_BLE_SDK/GD32VW55x_RELEASE_V1.0.2/MSDK/wpa_supplicant/src/ap\ap_drv_ops.h **** {
 244:C:/Users/stapi/OneDrive/Desktop/GD32VW553/V1_MQTT_OK/GD32VW55X_Wifi_BLE_SDK/GD32VW55x_RELEASE_V1.0.2/MSDK/wpa_supplicant/src/ap\ap_drv_ops.h **** 	if (hapd->driver == NULL ||
 245:C:/Users/stapi/OneDrive/Desktop/GD32VW553/V1_MQTT_OK/GD32VW55X_Wifi_BLE_SDK/GD32VW55x_RELEASE_V1.0.2/MSDK/wpa_supplicant/src/ap\ap_drv_ops.h **** 	    hapd->driver->set_radius_acl_expire == NULL)
 246:C:/Users/stapi/OneDrive/Desktop/GD32VW553/V1_MQTT_OK/GD32VW55X_Wifi_BLE_SDK/GD32VW55x_RELEASE_V1.0.2/MSDK/wpa_supplicant/src/ap\ap_drv_ops.h **** 		return 0;
 247:C:/Users/stapi/OneDrive/Desktop/GD32VW553/V1_MQTT_OK/GD32VW55X_Wifi_BLE_SDK/GD32VW55x_RELEASE_V1.0.2/MSDK/wpa_supplicant/src/ap\ap_drv_ops.h **** 	return hapd->driver->set_radius_acl_expire(hapd->drv_priv, mac);
 248:C:/Users/stapi/OneDrive/Desktop/GD32VW553/V1_MQTT_OK/GD32VW55X_Wifi_BLE_SDK/GD32VW55x_RELEASE_V1.0.2/MSDK/wpa_supplicant/src/ap\ap_drv_ops.h **** }
 249:C:/Users/stapi/OneDrive/Desktop/GD32VW553/V1_MQTT_OK/GD32VW55X_Wifi_BLE_SDK/GD32VW55x_RELEASE_V1.0.2/MSDK/wpa_supplicant/src/ap\ap_drv_ops.h **** 
 250:C:/Users/stapi/OneDrive/Desktop/GD32VW553/V1_MQTT_OK/GD32VW55X_Wifi_BLE_SDK/GD32VW55x_RELEASE_V1.0.2/MSDK/wpa_supplicant/src/ap\ap_drv_ops.h **** static inline int hostapd_drv_set_authmode(struct hostapd_data *hapd,
 251:C:/Users/stapi/OneDrive/Desktop/GD32VW553/V1_MQTT_OK/GD32VW55X_Wifi_BLE_SDK/GD32VW55x_RELEASE_V1.0.2/MSDK/wpa_supplicant/src/ap\ap_drv_ops.h **** 					   int auth_algs)
 252:C:/Users/stapi/OneDrive/Desktop/GD32VW553/V1_MQTT_OK/GD32VW55X_Wifi_BLE_SDK/GD32VW55x_RELEASE_V1.0.2/MSDK/wpa_supplicant/src/ap\ap_drv_ops.h **** {
 253:C:/Users/stapi/OneDrive/Desktop/GD32VW553/V1_MQTT_OK/GD32VW55X_Wifi_BLE_SDK/GD32VW55x_RELEASE_V1.0.2/MSDK/wpa_supplicant/src/ap\ap_drv_ops.h **** 	if (hapd->driver == NULL || hapd->driver->set_authmode == NULL)
 254:C:/Users/stapi/OneDrive/Desktop/GD32VW553/V1_MQTT_OK/GD32VW55X_Wifi_BLE_SDK/GD32VW55x_RELEASE_V1.0.2/MSDK/wpa_supplicant/src/ap\ap_drv_ops.h **** 		return 0;
 255:C:/Users/stapi/OneDrive/Desktop/GD32VW553/V1_MQTT_OK/GD32VW55X_Wifi_BLE_SDK/GD32VW55x_RELEASE_V1.0.2/MSDK/wpa_supplicant/src/ap\ap_drv_ops.h **** 	return hapd->driver->set_authmode(hapd->drv_priv, auth_algs);
 256:C:/Users/stapi/OneDrive/Desktop/GD32VW553/V1_MQTT_OK/GD32VW55X_Wifi_BLE_SDK/GD32VW55x_RELEASE_V1.0.2/MSDK/wpa_supplicant/src/ap\ap_drv_ops.h **** }
 257:C:/Users/stapi/OneDrive/Desktop/GD32VW553/V1_MQTT_OK/GD32VW55X_Wifi_BLE_SDK/GD32VW55x_RELEASE_V1.0.2/MSDK/wpa_supplicant/src/ap\ap_drv_ops.h **** 
 258:C:/Users/stapi/OneDrive/Desktop/GD32VW553/V1_MQTT_OK/GD32VW55X_Wifi_BLE_SDK/GD32VW55x_RELEASE_V1.0.2/MSDK/wpa_supplicant/src/ap\ap_drv_ops.h **** static inline void hostapd_drv_poll_client(struct hostapd_data *hapd,
 259:C:/Users/stapi/OneDrive/Desktop/GD32VW553/V1_MQTT_OK/GD32VW55X_Wifi_BLE_SDK/GD32VW55x_RELEASE_V1.0.2/MSDK/wpa_supplicant/src/ap\ap_drv_ops.h **** 					   const u8 *own_addr, const u8 *addr,
 260:C:/Users/stapi/OneDrive/Desktop/GD32VW553/V1_MQTT_OK/GD32VW55X_Wifi_BLE_SDK/GD32VW55x_RELEASE_V1.0.2/MSDK/wpa_supplicant/src/ap\ap_drv_ops.h **** 					   int qos)
 261:C:/Users/stapi/OneDrive/Desktop/GD32VW553/V1_MQTT_OK/GD32VW55X_Wifi_BLE_SDK/GD32VW55x_RELEASE_V1.0.2/MSDK/wpa_supplicant/src/ap\ap_drv_ops.h **** {
 262:C:/Users/stapi/OneDrive/Desktop/GD32VW553/V1_MQTT_OK/GD32VW55X_Wifi_BLE_SDK/GD32VW55x_RELEASE_V1.0.2/MSDK/wpa_supplicant/src/ap\ap_drv_ops.h **** 	if (hapd->driver == NULL || hapd->driver->poll_client == NULL)
 263:C:/Users/stapi/OneDrive/Desktop/GD32VW553/V1_MQTT_OK/GD32VW55X_Wifi_BLE_SDK/GD32VW55x_RELEASE_V1.0.2/MSDK/wpa_supplicant/src/ap\ap_drv_ops.h **** 		return;
 264:C:/Users/stapi/OneDrive/Desktop/GD32VW553/V1_MQTT_OK/GD32VW55X_Wifi_BLE_SDK/GD32VW55x_RELEASE_V1.0.2/MSDK/wpa_supplicant/src/ap\ap_drv_ops.h **** 	hapd->driver->poll_client(hapd->drv_priv, own_addr, addr, qos);
 265:C:/Users/stapi/OneDrive/Desktop/GD32VW553/V1_MQTT_OK/GD32VW55X_Wifi_BLE_SDK/GD32VW55x_RELEASE_V1.0.2/MSDK/wpa_supplicant/src/ap\ap_drv_ops.h **** }
 266:C:/Users/stapi/OneDrive/Desktop/GD32VW553/V1_MQTT_OK/GD32VW55X_Wifi_BLE_SDK/GD32VW55x_RELEASE_V1.0.2/MSDK/wpa_supplicant/src/ap\ap_drv_ops.h **** 
 267:C:/Users/stapi/OneDrive/Desktop/GD32VW553/V1_MQTT_OK/GD32VW55X_Wifi_BLE_SDK/GD32VW55x_RELEASE_V1.0.2/MSDK/wpa_supplicant/src/ap\ap_drv_ops.h **** static inline int hostapd_drv_get_survey(struct hostapd_data *hapd,
 268:C:/Users/stapi/OneDrive/Desktop/GD32VW553/V1_MQTT_OK/GD32VW55X_Wifi_BLE_SDK/GD32VW55x_RELEASE_V1.0.2/MSDK/wpa_supplicant/src/ap\ap_drv_ops.h **** 					 unsigned int freq)
 269:C:/Users/stapi/OneDrive/Desktop/GD32VW553/V1_MQTT_OK/GD32VW55X_Wifi_BLE_SDK/GD32VW55x_RELEASE_V1.0.2/MSDK/wpa_supplicant/src/ap\ap_drv_ops.h **** {
 270:C:/Users/stapi/OneDrive/Desktop/GD32VW553/V1_MQTT_OK/GD32VW55X_Wifi_BLE_SDK/GD32VW55x_RELEASE_V1.0.2/MSDK/wpa_supplicant/src/ap\ap_drv_ops.h **** 	if (hapd->driver == NULL)
 271:C:/Users/stapi/OneDrive/Desktop/GD32VW553/V1_MQTT_OK/GD32VW55X_Wifi_BLE_SDK/GD32VW55x_RELEASE_V1.0.2/MSDK/wpa_supplicant/src/ap\ap_drv_ops.h **** 		return -1;
 272:C:/Users/stapi/OneDrive/Desktop/GD32VW553/V1_MQTT_OK/GD32VW55X_Wifi_BLE_SDK/GD32VW55x_RELEASE_V1.0.2/MSDK/wpa_supplicant/src/ap\ap_drv_ops.h **** 	if (!hapd->driver->get_survey)
 273:C:/Users/stapi/OneDrive/Desktop/GD32VW553/V1_MQTT_OK/GD32VW55X_Wifi_BLE_SDK/GD32VW55x_RELEASE_V1.0.2/MSDK/wpa_supplicant/src/ap\ap_drv_ops.h **** 		return -1;
 274:C:/Users/stapi/OneDrive/Desktop/GD32VW553/V1_MQTT_OK/GD32VW55X_Wifi_BLE_SDK/GD32VW55x_RELEASE_V1.0.2/MSDK/wpa_supplicant/src/ap\ap_drv_ops.h **** 	return hapd->driver->get_survey(hapd->drv_priv, freq);
 275:C:/Users/stapi/OneDrive/Desktop/GD32VW553/V1_MQTT_OK/GD32VW55X_Wifi_BLE_SDK/GD32VW55x_RELEASE_V1.0.2/MSDK/wpa_supplicant/src/ap\ap_drv_ops.h **** }
 276:C:/Users/stapi/OneDrive/Desktop/GD32VW553/V1_MQTT_OK/GD32VW55X_Wifi_BLE_SDK/GD32VW55x_RELEASE_V1.0.2/MSDK/wpa_supplicant/src/ap\ap_drv_ops.h **** 
 277:C:/Users/stapi/OneDrive/Desktop/GD32VW553/V1_MQTT_OK/GD32VW55X_Wifi_BLE_SDK/GD32VW55x_RELEASE_V1.0.2/MSDK/wpa_supplicant/src/ap\ap_drv_ops.h **** static inline int hostapd_get_country(struct hostapd_data *hapd, char *alpha2)
 278:C:/Users/stapi/OneDrive/Desktop/GD32VW553/V1_MQTT_OK/GD32VW55X_Wifi_BLE_SDK/GD32VW55x_RELEASE_V1.0.2/MSDK/wpa_supplicant/src/ap\ap_drv_ops.h **** {
 279:C:/Users/stapi/OneDrive/Desktop/GD32VW553/V1_MQTT_OK/GD32VW55X_Wifi_BLE_SDK/GD32VW55x_RELEASE_V1.0.2/MSDK/wpa_supplicant/src/ap\ap_drv_ops.h **** 	if (hapd->driver == NULL || hapd->driver->get_country == NULL)
 280:C:/Users/stapi/OneDrive/Desktop/GD32VW553/V1_MQTT_OK/GD32VW55X_Wifi_BLE_SDK/GD32VW55x_RELEASE_V1.0.2/MSDK/wpa_supplicant/src/ap\ap_drv_ops.h **** 		return -1;
 281:C:/Users/stapi/OneDrive/Desktop/GD32VW553/V1_MQTT_OK/GD32VW55X_Wifi_BLE_SDK/GD32VW55x_RELEASE_V1.0.2/MSDK/wpa_supplicant/src/ap\ap_drv_ops.h **** 	return hapd->driver->get_country(hapd->drv_priv, alpha2);
 282:C:/Users/stapi/OneDrive/Desktop/GD32VW553/V1_MQTT_OK/GD32VW55X_Wifi_BLE_SDK/GD32VW55x_RELEASE_V1.0.2/MSDK/wpa_supplicant/src/ap\ap_drv_ops.h **** }
 283:C:/Users/stapi/OneDrive/Desktop/GD32VW553/V1_MQTT_OK/GD32VW55X_Wifi_BLE_SDK/GD32VW55x_RELEASE_V1.0.2/MSDK/wpa_supplicant/src/ap\ap_drv_ops.h **** 
 284:C:/Users/stapi/OneDrive/Desktop/GD32VW553/V1_MQTT_OK/GD32VW55X_Wifi_BLE_SDK/GD32VW55x_RELEASE_V1.0.2/MSDK/wpa_supplicant/src/ap\ap_drv_ops.h **** static inline const char * hostapd_drv_get_radio_name(struct hostapd_data *hapd)
 285:C:/Users/stapi/OneDrive/Desktop/GD32VW553/V1_MQTT_OK/GD32VW55X_Wifi_BLE_SDK/GD32VW55x_RELEASE_V1.0.2/MSDK/wpa_supplicant/src/ap\ap_drv_ops.h **** {
 286:C:/Users/stapi/OneDrive/Desktop/GD32VW553/V1_MQTT_OK/GD32VW55X_Wifi_BLE_SDK/GD32VW55x_RELEASE_V1.0.2/MSDK/wpa_supplicant/src/ap\ap_drv_ops.h **** 	if (hapd->driver == NULL || hapd->drv_priv == NULL ||
 287:C:/Users/stapi/OneDrive/Desktop/GD32VW553/V1_MQTT_OK/GD32VW55X_Wifi_BLE_SDK/GD32VW55x_RELEASE_V1.0.2/MSDK/wpa_supplicant/src/ap\ap_drv_ops.h **** 	    hapd->driver->get_radio_name == NULL)
 288:C:/Users/stapi/OneDrive/Desktop/GD32VW553/V1_MQTT_OK/GD32VW55X_Wifi_BLE_SDK/GD32VW55x_RELEASE_V1.0.2/MSDK/wpa_supplicant/src/ap\ap_drv_ops.h **** 		return NULL;
 289:C:/Users/stapi/OneDrive/Desktop/GD32VW553/V1_MQTT_OK/GD32VW55X_Wifi_BLE_SDK/GD32VW55x_RELEASE_V1.0.2/MSDK/wpa_supplicant/src/ap\ap_drv_ops.h **** 	return hapd->driver->get_radio_name(hapd->drv_priv);
 290:C:/Users/stapi/OneDrive/Desktop/GD32VW553/V1_MQTT_OK/GD32VW55X_Wifi_BLE_SDK/GD32VW55x_RELEASE_V1.0.2/MSDK/wpa_supplicant/src/ap\ap_drv_ops.h **** }
 291:C:/Users/stapi/OneDrive/Desktop/GD32VW553/V1_MQTT_OK/GD32VW55X_Wifi_BLE_SDK/GD32VW55x_RELEASE_V1.0.2/MSDK/wpa_supplicant/src/ap\ap_drv_ops.h **** 
 292:C:/Users/stapi/OneDrive/Desktop/GD32VW553/V1_MQTT_OK/GD32VW55X_Wifi_BLE_SDK/GD32VW55x_RELEASE_V1.0.2/MSDK/wpa_supplicant/src/ap\ap_drv_ops.h **** static inline int hostapd_drv_switch_channel(struct hostapd_data *hapd,
 293:C:/Users/stapi/OneDrive/Desktop/GD32VW553/V1_MQTT_OK/GD32VW55X_Wifi_BLE_SDK/GD32VW55x_RELEASE_V1.0.2/MSDK/wpa_supplicant/src/ap\ap_drv_ops.h **** 					     struct csa_settings *settings)
 294:C:/Users/stapi/OneDrive/Desktop/GD32VW553/V1_MQTT_OK/GD32VW55X_Wifi_BLE_SDK/GD32VW55x_RELEASE_V1.0.2/MSDK/wpa_supplicant/src/ap\ap_drv_ops.h **** {
 295:C:/Users/stapi/OneDrive/Desktop/GD32VW553/V1_MQTT_OK/GD32VW55X_Wifi_BLE_SDK/GD32VW55x_RELEASE_V1.0.2/MSDK/wpa_supplicant/src/ap\ap_drv_ops.h **** 	if (hapd->driver == NULL || hapd->driver->switch_channel == NULL ||
 296:C:/Users/stapi/OneDrive/Desktop/GD32VW553/V1_MQTT_OK/GD32VW55X_Wifi_BLE_SDK/GD32VW55x_RELEASE_V1.0.2/MSDK/wpa_supplicant/src/ap\ap_drv_ops.h **** 	    hapd->drv_priv == NULL)
 297:C:/Users/stapi/OneDrive/Desktop/GD32VW553/V1_MQTT_OK/GD32VW55X_Wifi_BLE_SDK/GD32VW55x_RELEASE_V1.0.2/MSDK/wpa_supplicant/src/ap\ap_drv_ops.h **** 		return -1;
 298:C:/Users/stapi/OneDrive/Desktop/GD32VW553/V1_MQTT_OK/GD32VW55X_Wifi_BLE_SDK/GD32VW55x_RELEASE_V1.0.2/MSDK/wpa_supplicant/src/ap\ap_drv_ops.h **** 
 299:C:/Users/stapi/OneDrive/Desktop/GD32VW553/V1_MQTT_OK/GD32VW55X_Wifi_BLE_SDK/GD32VW55x_RELEASE_V1.0.2/MSDK/wpa_supplicant/src/ap\ap_drv_ops.h **** 	return hapd->driver->switch_channel(hapd->drv_priv, settings);
 300:C:/Users/stapi/OneDrive/Desktop/GD32VW553/V1_MQTT_OK/GD32VW55X_Wifi_BLE_SDK/GD32VW55x_RELEASE_V1.0.2/MSDK/wpa_supplicant/src/ap\ap_drv_ops.h **** }
 301:C:/Users/stapi/OneDrive/Desktop/GD32VW553/V1_MQTT_OK/GD32VW55X_Wifi_BLE_SDK/GD32VW55x_RELEASE_V1.0.2/MSDK/wpa_supplicant/src/ap\ap_drv_ops.h **** 
 302:C:/Users/stapi/OneDrive/Desktop/GD32VW553/V1_MQTT_OK/GD32VW55X_Wifi_BLE_SDK/GD32VW55x_RELEASE_V1.0.2/MSDK/wpa_supplicant/src/ap\ap_drv_ops.h **** static inline int hostapd_drv_status(struct hostapd_data *hapd, char *buf,
 303:C:/Users/stapi/OneDrive/Desktop/GD32VW553/V1_MQTT_OK/GD32VW55X_Wifi_BLE_SDK/GD32VW55x_RELEASE_V1.0.2/MSDK/wpa_supplicant/src/ap\ap_drv_ops.h **** 				     size_t buflen)
 304:C:/Users/stapi/OneDrive/Desktop/GD32VW553/V1_MQTT_OK/GD32VW55X_Wifi_BLE_SDK/GD32VW55x_RELEASE_V1.0.2/MSDK/wpa_supplicant/src/ap\ap_drv_ops.h **** {
 305:C:/Users/stapi/OneDrive/Desktop/GD32VW553/V1_MQTT_OK/GD32VW55X_Wifi_BLE_SDK/GD32VW55x_RELEASE_V1.0.2/MSDK/wpa_supplicant/src/ap\ap_drv_ops.h **** 	if (!hapd->driver || !hapd->driver->status || !hapd->drv_priv)
 306:C:/Users/stapi/OneDrive/Desktop/GD32VW553/V1_MQTT_OK/GD32VW55X_Wifi_BLE_SDK/GD32VW55x_RELEASE_V1.0.2/MSDK/wpa_supplicant/src/ap\ap_drv_ops.h **** 		return -1;
 307:C:/Users/stapi/OneDrive/Desktop/GD32VW553/V1_MQTT_OK/GD32VW55X_Wifi_BLE_SDK/GD32VW55x_RELEASE_V1.0.2/MSDK/wpa_supplicant/src/ap\ap_drv_ops.h **** 	return hapd->driver->status(hapd->drv_priv, buf, buflen);
 308:C:/Users/stapi/OneDrive/Desktop/GD32VW553/V1_MQTT_OK/GD32VW55X_Wifi_BLE_SDK/GD32VW55x_RELEASE_V1.0.2/MSDK/wpa_supplicant/src/ap\ap_drv_ops.h **** }
 309:C:/Users/stapi/OneDrive/Desktop/GD32VW553/V1_MQTT_OK/GD32VW55X_Wifi_BLE_SDK/GD32VW55x_RELEASE_V1.0.2/MSDK/wpa_supplicant/src/ap\ap_drv_ops.h **** 
 310:C:/Users/stapi/OneDrive/Desktop/GD32VW553/V1_MQTT_OK/GD32VW55X_Wifi_BLE_SDK/GD32VW55x_RELEASE_V1.0.2/MSDK/wpa_supplicant/src/ap\ap_drv_ops.h **** static inline int hostapd_drv_br_add_ip_neigh(struct hostapd_data *hapd,
 311:C:/Users/stapi/OneDrive/Desktop/GD32VW553/V1_MQTT_OK/GD32VW55X_Wifi_BLE_SDK/GD32VW55x_RELEASE_V1.0.2/MSDK/wpa_supplicant/src/ap\ap_drv_ops.h **** 					      int version, const u8 *ipaddr,
 312:C:/Users/stapi/OneDrive/Desktop/GD32VW553/V1_MQTT_OK/GD32VW55X_Wifi_BLE_SDK/GD32VW55x_RELEASE_V1.0.2/MSDK/wpa_supplicant/src/ap\ap_drv_ops.h **** 					      int prefixlen, const u8 *addr)
 313:C:/Users/stapi/OneDrive/Desktop/GD32VW553/V1_MQTT_OK/GD32VW55X_Wifi_BLE_SDK/GD32VW55x_RELEASE_V1.0.2/MSDK/wpa_supplicant/src/ap\ap_drv_ops.h **** {
 314:C:/Users/stapi/OneDrive/Desktop/GD32VW553/V1_MQTT_OK/GD32VW55X_Wifi_BLE_SDK/GD32VW55x_RELEASE_V1.0.2/MSDK/wpa_supplicant/src/ap\ap_drv_ops.h **** 	if (hapd->driver == NULL || hapd->drv_priv == NULL ||
 315:C:/Users/stapi/OneDrive/Desktop/GD32VW553/V1_MQTT_OK/GD32VW55X_Wifi_BLE_SDK/GD32VW55x_RELEASE_V1.0.2/MSDK/wpa_supplicant/src/ap\ap_drv_ops.h **** 	    hapd->driver->br_add_ip_neigh == NULL)
 316:C:/Users/stapi/OneDrive/Desktop/GD32VW553/V1_MQTT_OK/GD32VW55X_Wifi_BLE_SDK/GD32VW55x_RELEASE_V1.0.2/MSDK/wpa_supplicant/src/ap\ap_drv_ops.h **** 		return -1;
 317:C:/Users/stapi/OneDrive/Desktop/GD32VW553/V1_MQTT_OK/GD32VW55X_Wifi_BLE_SDK/GD32VW55x_RELEASE_V1.0.2/MSDK/wpa_supplicant/src/ap\ap_drv_ops.h **** 	return hapd->driver->br_add_ip_neigh(hapd->drv_priv, version, ipaddr,
 318:C:/Users/stapi/OneDrive/Desktop/GD32VW553/V1_MQTT_OK/GD32VW55X_Wifi_BLE_SDK/GD32VW55x_RELEASE_V1.0.2/MSDK/wpa_supplicant/src/ap\ap_drv_ops.h **** 					     prefixlen, addr);
 319:C:/Users/stapi/OneDrive/Desktop/GD32VW553/V1_MQTT_OK/GD32VW55X_Wifi_BLE_SDK/GD32VW55x_RELEASE_V1.0.2/MSDK/wpa_supplicant/src/ap\ap_drv_ops.h **** }
 320:C:/Users/stapi/OneDrive/Desktop/GD32VW553/V1_MQTT_OK/GD32VW55X_Wifi_BLE_SDK/GD32VW55x_RELEASE_V1.0.2/MSDK/wpa_supplicant/src/ap\ap_drv_ops.h **** 
 321:C:/Users/stapi/OneDrive/Desktop/GD32VW553/V1_MQTT_OK/GD32VW55X_Wifi_BLE_SDK/GD32VW55x_RELEASE_V1.0.2/MSDK/wpa_supplicant/src/ap\ap_drv_ops.h **** static inline int hostapd_drv_br_delete_ip_neigh(struct hostapd_data *hapd,
 322:C:/Users/stapi/OneDrive/Desktop/GD32VW553/V1_MQTT_OK/GD32VW55X_Wifi_BLE_SDK/GD32VW55x_RELEASE_V1.0.2/MSDK/wpa_supplicant/src/ap\ap_drv_ops.h **** 						 u8 version, const u8 *ipaddr)
 323:C:/Users/stapi/OneDrive/Desktop/GD32VW553/V1_MQTT_OK/GD32VW55X_Wifi_BLE_SDK/GD32VW55x_RELEASE_V1.0.2/MSDK/wpa_supplicant/src/ap\ap_drv_ops.h **** {
 324:C:/Users/stapi/OneDrive/Desktop/GD32VW553/V1_MQTT_OK/GD32VW55X_Wifi_BLE_SDK/GD32VW55x_RELEASE_V1.0.2/MSDK/wpa_supplicant/src/ap\ap_drv_ops.h **** 	if (hapd->driver == NULL || hapd->drv_priv == NULL ||
 325:C:/Users/stapi/OneDrive/Desktop/GD32VW553/V1_MQTT_OK/GD32VW55X_Wifi_BLE_SDK/GD32VW55x_RELEASE_V1.0.2/MSDK/wpa_supplicant/src/ap\ap_drv_ops.h **** 	    hapd->driver->br_delete_ip_neigh == NULL)
 326:C:/Users/stapi/OneDrive/Desktop/GD32VW553/V1_MQTT_OK/GD32VW55X_Wifi_BLE_SDK/GD32VW55x_RELEASE_V1.0.2/MSDK/wpa_supplicant/src/ap\ap_drv_ops.h **** 		return -1;
 327:C:/Users/stapi/OneDrive/Desktop/GD32VW553/V1_MQTT_OK/GD32VW55X_Wifi_BLE_SDK/GD32VW55x_RELEASE_V1.0.2/MSDK/wpa_supplicant/src/ap\ap_drv_ops.h **** 	return hapd->driver->br_delete_ip_neigh(hapd->drv_priv, version,
 328:C:/Users/stapi/OneDrive/Desktop/GD32VW553/V1_MQTT_OK/GD32VW55X_Wifi_BLE_SDK/GD32VW55x_RELEASE_V1.0.2/MSDK/wpa_supplicant/src/ap\ap_drv_ops.h **** 						ipaddr);
 329:C:/Users/stapi/OneDrive/Desktop/GD32VW553/V1_MQTT_OK/GD32VW55X_Wifi_BLE_SDK/GD32VW55x_RELEASE_V1.0.2/MSDK/wpa_supplicant/src/ap\ap_drv_ops.h **** }
 330:C:/Users/stapi/OneDrive/Desktop/GD32VW553/V1_MQTT_OK/GD32VW55X_Wifi_BLE_SDK/GD32VW55x_RELEASE_V1.0.2/MSDK/wpa_supplicant/src/ap\ap_drv_ops.h **** 
 331:C:/Users/stapi/OneDrive/Desktop/GD32VW553/V1_MQTT_OK/GD32VW55X_Wifi_BLE_SDK/GD32VW55x_RELEASE_V1.0.2/MSDK/wpa_supplicant/src/ap\ap_drv_ops.h **** static inline int hostapd_drv_br_port_set_attr(struct hostapd_data *hapd,
 332:C:/Users/stapi/OneDrive/Desktop/GD32VW553/V1_MQTT_OK/GD32VW55X_Wifi_BLE_SDK/GD32VW55x_RELEASE_V1.0.2/MSDK/wpa_supplicant/src/ap\ap_drv_ops.h **** 					       enum drv_br_port_attr attr,
 333:C:/Users/stapi/OneDrive/Desktop/GD32VW553/V1_MQTT_OK/GD32VW55X_Wifi_BLE_SDK/GD32VW55x_RELEASE_V1.0.2/MSDK/wpa_supplicant/src/ap\ap_drv_ops.h **** 					       unsigned int val)
 334:C:/Users/stapi/OneDrive/Desktop/GD32VW553/V1_MQTT_OK/GD32VW55X_Wifi_BLE_SDK/GD32VW55x_RELEASE_V1.0.2/MSDK/wpa_supplicant/src/ap\ap_drv_ops.h **** {
 335:C:/Users/stapi/OneDrive/Desktop/GD32VW553/V1_MQTT_OK/GD32VW55X_Wifi_BLE_SDK/GD32VW55x_RELEASE_V1.0.2/MSDK/wpa_supplicant/src/ap\ap_drv_ops.h **** 	if (hapd->driver == NULL || hapd->drv_priv == NULL ||
 336:C:/Users/stapi/OneDrive/Desktop/GD32VW553/V1_MQTT_OK/GD32VW55X_Wifi_BLE_SDK/GD32VW55x_RELEASE_V1.0.2/MSDK/wpa_supplicant/src/ap\ap_drv_ops.h **** 	    hapd->driver->br_port_set_attr == NULL)
 337:C:/Users/stapi/OneDrive/Desktop/GD32VW553/V1_MQTT_OK/GD32VW55X_Wifi_BLE_SDK/GD32VW55x_RELEASE_V1.0.2/MSDK/wpa_supplicant/src/ap\ap_drv_ops.h **** 		return -1;
 338:C:/Users/stapi/OneDrive/Desktop/GD32VW553/V1_MQTT_OK/GD32VW55X_Wifi_BLE_SDK/GD32VW55x_RELEASE_V1.0.2/MSDK/wpa_supplicant/src/ap\ap_drv_ops.h **** 	return hapd->driver->br_port_set_attr(hapd->drv_priv, attr, val);
 339:C:/Users/stapi/OneDrive/Desktop/GD32VW553/V1_MQTT_OK/GD32VW55X_Wifi_BLE_SDK/GD32VW55x_RELEASE_V1.0.2/MSDK/wpa_supplicant/src/ap\ap_drv_ops.h **** }
 340:C:/Users/stapi/OneDrive/Desktop/GD32VW553/V1_MQTT_OK/GD32VW55X_Wifi_BLE_SDK/GD32VW55x_RELEASE_V1.0.2/MSDK/wpa_supplicant/src/ap\ap_drv_ops.h **** 
 341:C:/Users/stapi/OneDrive/Desktop/GD32VW553/V1_MQTT_OK/GD32VW55X_Wifi_BLE_SDK/GD32VW55x_RELEASE_V1.0.2/MSDK/wpa_supplicant/src/ap\ap_drv_ops.h **** static inline int hostapd_drv_br_set_net_param(struct hostapd_data *hapd,
 342:C:/Users/stapi/OneDrive/Desktop/GD32VW553/V1_MQTT_OK/GD32VW55X_Wifi_BLE_SDK/GD32VW55x_RELEASE_V1.0.2/MSDK/wpa_supplicant/src/ap\ap_drv_ops.h **** 					       enum drv_br_net_param param,
 343:C:/Users/stapi/OneDrive/Desktop/GD32VW553/V1_MQTT_OK/GD32VW55X_Wifi_BLE_SDK/GD32VW55x_RELEASE_V1.0.2/MSDK/wpa_supplicant/src/ap\ap_drv_ops.h **** 					       unsigned int val)
 344:C:/Users/stapi/OneDrive/Desktop/GD32VW553/V1_MQTT_OK/GD32VW55X_Wifi_BLE_SDK/GD32VW55x_RELEASE_V1.0.2/MSDK/wpa_supplicant/src/ap\ap_drv_ops.h **** {
 345:C:/Users/stapi/OneDrive/Desktop/GD32VW553/V1_MQTT_OK/GD32VW55X_Wifi_BLE_SDK/GD32VW55x_RELEASE_V1.0.2/MSDK/wpa_supplicant/src/ap\ap_drv_ops.h **** 	if (hapd->driver == NULL || hapd->drv_priv == NULL ||
 346:C:/Users/stapi/OneDrive/Desktop/GD32VW553/V1_MQTT_OK/GD32VW55X_Wifi_BLE_SDK/GD32VW55x_RELEASE_V1.0.2/MSDK/wpa_supplicant/src/ap\ap_drv_ops.h **** 	    hapd->driver->br_set_net_param == NULL)
 347:C:/Users/stapi/OneDrive/Desktop/GD32VW553/V1_MQTT_OK/GD32VW55X_Wifi_BLE_SDK/GD32VW55x_RELEASE_V1.0.2/MSDK/wpa_supplicant/src/ap\ap_drv_ops.h **** 		return -1;
 348:C:/Users/stapi/OneDrive/Desktop/GD32VW553/V1_MQTT_OK/GD32VW55X_Wifi_BLE_SDK/GD32VW55x_RELEASE_V1.0.2/MSDK/wpa_supplicant/src/ap\ap_drv_ops.h **** 	return hapd->driver->br_set_net_param(hapd->drv_priv, param, val);
 349:C:/Users/stapi/OneDrive/Desktop/GD32VW553/V1_MQTT_OK/GD32VW55X_Wifi_BLE_SDK/GD32VW55x_RELEASE_V1.0.2/MSDK/wpa_supplicant/src/ap\ap_drv_ops.h **** }
 350:C:/Users/stapi/OneDrive/Desktop/GD32VW553/V1_MQTT_OK/GD32VW55X_Wifi_BLE_SDK/GD32VW55x_RELEASE_V1.0.2/MSDK/wpa_supplicant/src/ap\ap_drv_ops.h **** 
 351:C:/Users/stapi/OneDrive/Desktop/GD32VW553/V1_MQTT_OK/GD32VW55X_Wifi_BLE_SDK/GD32VW55x_RELEASE_V1.0.2/MSDK/wpa_supplicant/src/ap\ap_drv_ops.h **** static inline int hostapd_drv_vendor_cmd(struct hostapd_data *hapd,
 352:C:/Users/stapi/OneDrive/Desktop/GD32VW553/V1_MQTT_OK/GD32VW55X_Wifi_BLE_SDK/GD32VW55x_RELEASE_V1.0.2/MSDK/wpa_supplicant/src/ap\ap_drv_ops.h **** 					 int vendor_id, int subcmd,
 353:C:/Users/stapi/OneDrive/Desktop/GD32VW553/V1_MQTT_OK/GD32VW55X_Wifi_BLE_SDK/GD32VW55x_RELEASE_V1.0.2/MSDK/wpa_supplicant/src/ap\ap_drv_ops.h **** 					 const u8 *data, size_t data_len,
 354:C:/Users/stapi/OneDrive/Desktop/GD32VW553/V1_MQTT_OK/GD32VW55X_Wifi_BLE_SDK/GD32VW55x_RELEASE_V1.0.2/MSDK/wpa_supplicant/src/ap\ap_drv_ops.h **** 					 enum nested_attr nested_attr_flag,
 355:C:/Users/stapi/OneDrive/Desktop/GD32VW553/V1_MQTT_OK/GD32VW55X_Wifi_BLE_SDK/GD32VW55x_RELEASE_V1.0.2/MSDK/wpa_supplicant/src/ap\ap_drv_ops.h **** 					 struct wpabuf *buf)
 356:C:/Users/stapi/OneDrive/Desktop/GD32VW553/V1_MQTT_OK/GD32VW55X_Wifi_BLE_SDK/GD32VW55x_RELEASE_V1.0.2/MSDK/wpa_supplicant/src/ap\ap_drv_ops.h **** {
 357:C:/Users/stapi/OneDrive/Desktop/GD32VW553/V1_MQTT_OK/GD32VW55X_Wifi_BLE_SDK/GD32VW55x_RELEASE_V1.0.2/MSDK/wpa_supplicant/src/ap\ap_drv_ops.h **** 	if (hapd->driver == NULL || hapd->driver->vendor_cmd == NULL)
 358:C:/Users/stapi/OneDrive/Desktop/GD32VW553/V1_MQTT_OK/GD32VW55X_Wifi_BLE_SDK/GD32VW55x_RELEASE_V1.0.2/MSDK/wpa_supplicant/src/ap\ap_drv_ops.h **** 		return -1;
 359:C:/Users/stapi/OneDrive/Desktop/GD32VW553/V1_MQTT_OK/GD32VW55X_Wifi_BLE_SDK/GD32VW55x_RELEASE_V1.0.2/MSDK/wpa_supplicant/src/ap\ap_drv_ops.h **** 	return hapd->driver->vendor_cmd(hapd->drv_priv, vendor_id, subcmd, data,
 360:C:/Users/stapi/OneDrive/Desktop/GD32VW553/V1_MQTT_OK/GD32VW55X_Wifi_BLE_SDK/GD32VW55x_RELEASE_V1.0.2/MSDK/wpa_supplicant/src/ap\ap_drv_ops.h **** 					data_len, nested_attr_flag, buf);
 361:C:/Users/stapi/OneDrive/Desktop/GD32VW553/V1_MQTT_OK/GD32VW55X_Wifi_BLE_SDK/GD32VW55x_RELEASE_V1.0.2/MSDK/wpa_supplicant/src/ap\ap_drv_ops.h **** }
 362:C:/Users/stapi/OneDrive/Desktop/GD32VW553/V1_MQTT_OK/GD32VW55X_Wifi_BLE_SDK/GD32VW55x_RELEASE_V1.0.2/MSDK/wpa_supplicant/src/ap\ap_drv_ops.h **** 
 363:C:/Users/stapi/OneDrive/Desktop/GD32VW553/V1_MQTT_OK/GD32VW55X_Wifi_BLE_SDK/GD32VW55x_RELEASE_V1.0.2/MSDK/wpa_supplicant/src/ap\ap_drv_ops.h **** static inline int hostapd_drv_stop_ap(struct hostapd_data *hapd)
 364:C:/Users/stapi/OneDrive/Desktop/GD32VW553/V1_MQTT_OK/GD32VW55X_Wifi_BLE_SDK/GD32VW55x_RELEASE_V1.0.2/MSDK/wpa_supplicant/src/ap\ap_drv_ops.h **** {
 365:C:/Users/stapi/OneDrive/Desktop/GD32VW553/V1_MQTT_OK/GD32VW55X_Wifi_BLE_SDK/GD32VW55x_RELEASE_V1.0.2/MSDK/wpa_supplicant/src/ap\ap_drv_ops.h **** 	if (!hapd->driver || !hapd->driver->stop_ap || !hapd->drv_priv)
 366:C:/Users/stapi/OneDrive/Desktop/GD32VW553/V1_MQTT_OK/GD32VW55X_Wifi_BLE_SDK/GD32VW55x_RELEASE_V1.0.2/MSDK/wpa_supplicant/src/ap\ap_drv_ops.h **** 		return 0;
 367:C:/Users/stapi/OneDrive/Desktop/GD32VW553/V1_MQTT_OK/GD32VW55X_Wifi_BLE_SDK/GD32VW55x_RELEASE_V1.0.2/MSDK/wpa_supplicant/src/ap\ap_drv_ops.h **** 	return hapd->driver->stop_ap(hapd->drv_priv);
 368:C:/Users/stapi/OneDrive/Desktop/GD32VW553/V1_MQTT_OK/GD32VW55X_Wifi_BLE_SDK/GD32VW55x_RELEASE_V1.0.2/MSDK/wpa_supplicant/src/ap\ap_drv_ops.h **** }
 369:C:/Users/stapi/OneDrive/Desktop/GD32VW553/V1_MQTT_OK/GD32VW55X_Wifi_BLE_SDK/GD32VW55x_RELEASE_V1.0.2/MSDK/wpa_supplicant/src/ap\ap_drv_ops.h **** 
 370:C:/Users/stapi/OneDrive/Desktop/GD32VW553/V1_MQTT_OK/GD32VW55X_Wifi_BLE_SDK/GD32VW55x_RELEASE_V1.0.2/MSDK/wpa_supplicant/src/ap\ap_drv_ops.h **** static inline int hostapd_drv_channel_info(struct hostapd_data *hapd,
 371:C:/Users/stapi/OneDrive/Desktop/GD32VW553/V1_MQTT_OK/GD32VW55X_Wifi_BLE_SDK/GD32VW55x_RELEASE_V1.0.2/MSDK/wpa_supplicant/src/ap\ap_drv_ops.h **** 					   struct wpa_channel_info *ci)
 372:C:/Users/stapi/OneDrive/Desktop/GD32VW553/V1_MQTT_OK/GD32VW55X_Wifi_BLE_SDK/GD32VW55x_RELEASE_V1.0.2/MSDK/wpa_supplicant/src/ap\ap_drv_ops.h **** {
 373:C:/Users/stapi/OneDrive/Desktop/GD32VW553/V1_MQTT_OK/GD32VW55X_Wifi_BLE_SDK/GD32VW55x_RELEASE_V1.0.2/MSDK/wpa_supplicant/src/ap\ap_drv_ops.h **** 	if (!hapd->driver || !hapd->driver->channel_info)
 255              		.loc 2 373 2
 256              		.loc 2 373 11 is_stmt 0
 257 0000 0327C551 		lw	a4,1308(a0)
 258              		.loc 2 373 5
 259 0004 09CB     		beq	a4,zero,.L29
 260              		.loc 2 373 36
 261 0006 0327C717 		lw	a4,380(a4)
 262 000a AA87     		mv	a5,a0
 374:C:/Users/stapi/OneDrive/Desktop/GD32VW553/V1_MQTT_OK/GD32VW55X_Wifi_BLE_SDK/GD32VW55x_RELEASE_V1.0.2/MSDK/wpa_supplicant/src/ap\ap_drv_ops.h **** 		return -1;
 263              		.loc 2 374 10
 264 000c 7D55     		li	a0,-1
 265              	.LVL22:
 373:C:/Users/stapi/OneDrive/Desktop/GD32VW553/V1_MQTT_OK/GD32VW55X_Wifi_BLE_SDK/GD32VW55x_RELEASE_V1.0.2/MSDK/wpa_supplicant/src/ap\ap_drv_ops.h **** 		return -1;
 266              		.loc 2 373 20
 267 000e 11C7     		beq	a4,zero,.L32
 375:C:/Users/stapi/OneDrive/Desktop/GD32VW553/V1_MQTT_OK/GD32VW55X_Wifi_BLE_SDK/GD32VW55x_RELEASE_V1.0.2/MSDK/wpa_supplicant/src/ap\ap_drv_ops.h **** 	return hapd->driver->channel_info(hapd->drv_priv, ci);
 268              		.loc 2 375 2 is_stmt 1
 269              		.loc 2 375 9 is_stmt 0
 270 0010 03A50752 		lw	a0,1312(a5)
 271 0014 0287     		jr	a4
 272              	.LVL23:
 273              	.L29:
 374:C:/Users/stapi/OneDrive/Desktop/GD32VW553/V1_MQTT_OK/GD32VW55X_Wifi_BLE_SDK/GD32VW55x_RELEASE_V1.0.2/MSDK/wpa_supplicant/src/ap\ap_drv_ops.h **** 		return -1;
 274              		.loc 2 374 10
 275 0016 7D55     		li	a0,-1
 276              	.LVL24:
 277 0018 8280     		ret
 278              	.LVL25:
 279              	.L32:
 280              	.LBE15:
 281              	.LBE14:
 931:C:/Users/stapi/OneDrive/Desktop/GD32VW553/V1_MQTT_OK/GD32VW55X_Wifi_BLE_SDK/GD32VW55x_RELEASE_V1.0.2/MSDK/wpa_supplicant/src/ap\wpa_auth_glue.c **** }
 282              		.loc 1 931 1
 283 001a 8280     		ret
 284              		.cfi_endproc
 285              	.LFE197:
 287              		.section	.text.hostapd_wpa_auth_update_vlan,"ax",@progbits
 288              		.align	1
 290              	hostapd_wpa_auth_update_vlan:
 291              	.LFB198:
 932:C:/Users/stapi/OneDrive/Desktop/GD32VW553/V1_MQTT_OK/GD32VW55X_Wifi_BLE_SDK/GD32VW55x_RELEASE_V1.0.2/MSDK/wpa_supplicant/src/ap\wpa_auth_glue.c **** 
 933:C:/Users/stapi/OneDrive/Desktop/GD32VW553/V1_MQTT_OK/GD32VW55X_Wifi_BLE_SDK/GD32VW55x_RELEASE_V1.0.2/MSDK/wpa_supplicant/src/ap\wpa_auth_glue.c **** 
 934:C:/Users/stapi/OneDrive/Desktop/GD32VW553/V1_MQTT_OK/GD32VW55X_Wifi_BLE_SDK/GD32VW55x_RELEASE_V1.0.2/MSDK/wpa_supplicant/src/ap\wpa_auth_glue.c **** #ifdef CONFIG_PASN
 935:C:/Users/stapi/OneDrive/Desktop/GD32VW553/V1_MQTT_OK/GD32VW55X_Wifi_BLE_SDK/GD32VW55x_RELEASE_V1.0.2/MSDK/wpa_supplicant/src/ap\wpa_auth_glue.c **** 
 936:C:/Users/stapi/OneDrive/Desktop/GD32VW553/V1_MQTT_OK/GD32VW55X_Wifi_BLE_SDK/GD32VW55x_RELEASE_V1.0.2/MSDK/wpa_supplicant/src/ap\wpa_auth_glue.c **** static void hostapd_store_ptksa(void *ctx, const u8 *addr,int cipher,
 937:C:/Users/stapi/OneDrive/Desktop/GD32VW553/V1_MQTT_OK/GD32VW55X_Wifi_BLE_SDK/GD32VW55x_RELEASE_V1.0.2/MSDK/wpa_supplicant/src/ap\wpa_auth_glue.c **** 				u32 life_time, const struct wpa_ptk *ptk)
 938:C:/Users/stapi/OneDrive/Desktop/GD32VW553/V1_MQTT_OK/GD32VW55X_Wifi_BLE_SDK/GD32VW55x_RELEASE_V1.0.2/MSDK/wpa_supplicant/src/ap\wpa_auth_glue.c **** {
 939:C:/Users/stapi/OneDrive/Desktop/GD32VW553/V1_MQTT_OK/GD32VW55X_Wifi_BLE_SDK/GD32VW55x_RELEASE_V1.0.2/MSDK/wpa_supplicant/src/ap\wpa_auth_glue.c **** 	struct hostapd_data *hapd = ctx;
 940:C:/Users/stapi/OneDrive/Desktop/GD32VW553/V1_MQTT_OK/GD32VW55X_Wifi_BLE_SDK/GD32VW55x_RELEASE_V1.0.2/MSDK/wpa_supplicant/src/ap\wpa_auth_glue.c **** 
 941:C:/Users/stapi/OneDrive/Desktop/GD32VW553/V1_MQTT_OK/GD32VW55X_Wifi_BLE_SDK/GD32VW55x_RELEASE_V1.0.2/MSDK/wpa_supplicant/src/ap\wpa_auth_glue.c **** 	ptksa_cache_add(hapd->ptksa, addr, cipher, life_time, ptk);
 942:C:/Users/stapi/OneDrive/Desktop/GD32VW553/V1_MQTT_OK/GD32VW55X_Wifi_BLE_SDK/GD32VW55x_RELEASE_V1.0.2/MSDK/wpa_supplicant/src/ap\wpa_auth_glue.c **** }
 943:C:/Users/stapi/OneDrive/Desktop/GD32VW553/V1_MQTT_OK/GD32VW55X_Wifi_BLE_SDK/GD32VW55x_RELEASE_V1.0.2/MSDK/wpa_supplicant/src/ap\wpa_auth_glue.c **** 
 944:C:/Users/stapi/OneDrive/Desktop/GD32VW553/V1_MQTT_OK/GD32VW55X_Wifi_BLE_SDK/GD32VW55x_RELEASE_V1.0.2/MSDK/wpa_supplicant/src/ap\wpa_auth_glue.c **** 
 945:C:/Users/stapi/OneDrive/Desktop/GD32VW553/V1_MQTT_OK/GD32VW55X_Wifi_BLE_SDK/GD32VW55x_RELEASE_V1.0.2/MSDK/wpa_supplicant/src/ap\wpa_auth_glue.c **** static void hostapd_clear_ptksa(void *ctx, const u8 *addr, int cipher)
 946:C:/Users/stapi/OneDrive/Desktop/GD32VW553/V1_MQTT_OK/GD32VW55X_Wifi_BLE_SDK/GD32VW55x_RELEASE_V1.0.2/MSDK/wpa_supplicant/src/ap\wpa_auth_glue.c **** {
 947:C:/Users/stapi/OneDrive/Desktop/GD32VW553/V1_MQTT_OK/GD32VW55X_Wifi_BLE_SDK/GD32VW55x_RELEASE_V1.0.2/MSDK/wpa_supplicant/src/ap\wpa_auth_glue.c **** 	struct hostapd_data *hapd = ctx;
 948:C:/Users/stapi/OneDrive/Desktop/GD32VW553/V1_MQTT_OK/GD32VW55X_Wifi_BLE_SDK/GD32VW55x_RELEASE_V1.0.2/MSDK/wpa_supplicant/src/ap\wpa_auth_glue.c **** 
 949:C:/Users/stapi/OneDrive/Desktop/GD32VW553/V1_MQTT_OK/GD32VW55X_Wifi_BLE_SDK/GD32VW55x_RELEASE_V1.0.2/MSDK/wpa_supplicant/src/ap\wpa_auth_glue.c **** 	ptksa_cache_flush(hapd->ptksa, addr, cipher);
 950:C:/Users/stapi/OneDrive/Desktop/GD32VW553/V1_MQTT_OK/GD32VW55X_Wifi_BLE_SDK/GD32VW55x_RELEASE_V1.0.2/MSDK/wpa_supplicant/src/ap\wpa_auth_glue.c **** }
 951:C:/Users/stapi/OneDrive/Desktop/GD32VW553/V1_MQTT_OK/GD32VW55X_Wifi_BLE_SDK/GD32VW55x_RELEASE_V1.0.2/MSDK/wpa_supplicant/src/ap\wpa_auth_glue.c **** 
 952:C:/Users/stapi/OneDrive/Desktop/GD32VW553/V1_MQTT_OK/GD32VW55X_Wifi_BLE_SDK/GD32VW55x_RELEASE_V1.0.2/MSDK/wpa_supplicant/src/ap\wpa_auth_glue.c **** #endif /* CONFIG_PASN */
 953:C:/Users/stapi/OneDrive/Desktop/GD32VW553/V1_MQTT_OK/GD32VW55X_Wifi_BLE_SDK/GD32VW55x_RELEASE_V1.0.2/MSDK/wpa_supplicant/src/ap\wpa_auth_glue.c **** 
 954:C:/Users/stapi/OneDrive/Desktop/GD32VW553/V1_MQTT_OK/GD32VW55X_Wifi_BLE_SDK/GD32VW55x_RELEASE_V1.0.2/MSDK/wpa_supplicant/src/ap\wpa_auth_glue.c **** 
 955:C:/Users/stapi/OneDrive/Desktop/GD32VW553/V1_MQTT_OK/GD32VW55X_Wifi_BLE_SDK/GD32VW55x_RELEASE_V1.0.2/MSDK/wpa_supplicant/src/ap\wpa_auth_glue.c **** static int hostapd_wpa_auth_update_vlan(void *ctx, const u8 *addr, int vlan_id)
 956:C:/Users/stapi/OneDrive/Desktop/GD32VW553/V1_MQTT_OK/GD32VW55X_Wifi_BLE_SDK/GD32VW55x_RELEASE_V1.0.2/MSDK/wpa_supplicant/src/ap\wpa_auth_glue.c **** {
 292              		.loc 1 956 1 is_stmt 1
 293              		.cfi_startproc
 294              	.LVL26:
 957:C:/Users/stapi/OneDrive/Desktop/GD32VW553/V1_MQTT_OK/GD32VW55X_Wifi_BLE_SDK/GD32VW55x_RELEASE_V1.0.2/MSDK/wpa_supplicant/src/ap\wpa_auth_glue.c **** #ifndef CONFIG_NO_VLAN
 958:C:/Users/stapi/OneDrive/Desktop/GD32VW553/V1_MQTT_OK/GD32VW55X_Wifi_BLE_SDK/GD32VW55x_RELEASE_V1.0.2/MSDK/wpa_supplicant/src/ap\wpa_auth_glue.c **** 	struct hostapd_data *hapd = ctx;
 959:C:/Users/stapi/OneDrive/Desktop/GD32VW553/V1_MQTT_OK/GD32VW55X_Wifi_BLE_SDK/GD32VW55x_RELEASE_V1.0.2/MSDK/wpa_supplicant/src/ap\wpa_auth_glue.c **** 	struct sta_info *sta;
 960:C:/Users/stapi/OneDrive/Desktop/GD32VW553/V1_MQTT_OK/GD32VW55X_Wifi_BLE_SDK/GD32VW55x_RELEASE_V1.0.2/MSDK/wpa_supplicant/src/ap\wpa_auth_glue.c **** 
 961:C:/Users/stapi/OneDrive/Desktop/GD32VW553/V1_MQTT_OK/GD32VW55X_Wifi_BLE_SDK/GD32VW55x_RELEASE_V1.0.2/MSDK/wpa_supplicant/src/ap\wpa_auth_glue.c **** 	sta = ap_get_sta(hapd, addr);
 962:C:/Users/stapi/OneDrive/Desktop/GD32VW553/V1_MQTT_OK/GD32VW55X_Wifi_BLE_SDK/GD32VW55x_RELEASE_V1.0.2/MSDK/wpa_supplicant/src/ap\wpa_auth_glue.c **** 	if (!sta)
 963:C:/Users/stapi/OneDrive/Desktop/GD32VW553/V1_MQTT_OK/GD32VW55X_Wifi_BLE_SDK/GD32VW55x_RELEASE_V1.0.2/MSDK/wpa_supplicant/src/ap\wpa_auth_glue.c **** 		return -1;
 964:C:/Users/stapi/OneDrive/Desktop/GD32VW553/V1_MQTT_OK/GD32VW55X_Wifi_BLE_SDK/GD32VW55x_RELEASE_V1.0.2/MSDK/wpa_supplicant/src/ap\wpa_auth_glue.c **** 
 965:C:/Users/stapi/OneDrive/Desktop/GD32VW553/V1_MQTT_OK/GD32VW55X_Wifi_BLE_SDK/GD32VW55x_RELEASE_V1.0.2/MSDK/wpa_supplicant/src/ap\wpa_auth_glue.c **** 	if (!(hapd->iface->drv_flags & WPA_DRIVER_FLAGS_VLAN_OFFLOAD)) {
 966:C:/Users/stapi/OneDrive/Desktop/GD32VW553/V1_MQTT_OK/GD32VW55X_Wifi_BLE_SDK/GD32VW55x_RELEASE_V1.0.2/MSDK/wpa_supplicant/src/ap\wpa_auth_glue.c **** 		struct vlan_description vlan_desc;
 967:C:/Users/stapi/OneDrive/Desktop/GD32VW553/V1_MQTT_OK/GD32VW55X_Wifi_BLE_SDK/GD32VW55x_RELEASE_V1.0.2/MSDK/wpa_supplicant/src/ap\wpa_auth_glue.c **** 
 968:C:/Users/stapi/OneDrive/Desktop/GD32VW553/V1_MQTT_OK/GD32VW55X_Wifi_BLE_SDK/GD32VW55x_RELEASE_V1.0.2/MSDK/wpa_supplicant/src/ap\wpa_auth_glue.c **** 		os_memset(&vlan_desc, 0, sizeof(vlan_desc));
 969:C:/Users/stapi/OneDrive/Desktop/GD32VW553/V1_MQTT_OK/GD32VW55X_Wifi_BLE_SDK/GD32VW55x_RELEASE_V1.0.2/MSDK/wpa_supplicant/src/ap\wpa_auth_glue.c **** 		vlan_desc.notempty = 1;
 970:C:/Users/stapi/OneDrive/Desktop/GD32VW553/V1_MQTT_OK/GD32VW55X_Wifi_BLE_SDK/GD32VW55x_RELEASE_V1.0.2/MSDK/wpa_supplicant/src/ap\wpa_auth_glue.c **** 		vlan_desc.untagged = vlan_id;
 971:C:/Users/stapi/OneDrive/Desktop/GD32VW553/V1_MQTT_OK/GD32VW55X_Wifi_BLE_SDK/GD32VW55x_RELEASE_V1.0.2/MSDK/wpa_supplicant/src/ap\wpa_auth_glue.c **** 		if (!hostapd_vlan_valid(hapd->conf->vlan, &vlan_desc)) {
 972:C:/Users/stapi/OneDrive/Desktop/GD32VW553/V1_MQTT_OK/GD32VW55X_Wifi_BLE_SDK/GD32VW55x_RELEASE_V1.0.2/MSDK/wpa_supplicant/src/ap\wpa_auth_glue.c **** 			wpa_printf(MSG_INFO,
 973:C:/Users/stapi/OneDrive/Desktop/GD32VW553/V1_MQTT_OK/GD32VW55X_Wifi_BLE_SDK/GD32VW55x_RELEASE_V1.0.2/MSDK/wpa_supplicant/src/ap\wpa_auth_glue.c **** 				   "Invalid VLAN ID %d in wpa_psk_file",
 974:C:/Users/stapi/OneDrive/Desktop/GD32VW553/V1_MQTT_OK/GD32VW55X_Wifi_BLE_SDK/GD32VW55x_RELEASE_V1.0.2/MSDK/wpa_supplicant/src/ap\wpa_auth_glue.c **** 				   vlan_id);
 975:C:/Users/stapi/OneDrive/Desktop/GD32VW553/V1_MQTT_OK/GD32VW55X_Wifi_BLE_SDK/GD32VW55x_RELEASE_V1.0.2/MSDK/wpa_supplicant/src/ap\wpa_auth_glue.c **** 			return -1;
 976:C:/Users/stapi/OneDrive/Desktop/GD32VW553/V1_MQTT_OK/GD32VW55X_Wifi_BLE_SDK/GD32VW55x_RELEASE_V1.0.2/MSDK/wpa_supplicant/src/ap\wpa_auth_glue.c **** 		}
 977:C:/Users/stapi/OneDrive/Desktop/GD32VW553/V1_MQTT_OK/GD32VW55X_Wifi_BLE_SDK/GD32VW55x_RELEASE_V1.0.2/MSDK/wpa_supplicant/src/ap\wpa_auth_glue.c **** 
 978:C:/Users/stapi/OneDrive/Desktop/GD32VW553/V1_MQTT_OK/GD32VW55X_Wifi_BLE_SDK/GD32VW55x_RELEASE_V1.0.2/MSDK/wpa_supplicant/src/ap\wpa_auth_glue.c **** 		if (ap_sta_set_vlan(hapd, sta, &vlan_desc) < 0) {
 979:C:/Users/stapi/OneDrive/Desktop/GD32VW553/V1_MQTT_OK/GD32VW55X_Wifi_BLE_SDK/GD32VW55x_RELEASE_V1.0.2/MSDK/wpa_supplicant/src/ap\wpa_auth_glue.c **** 			wpa_printf(MSG_INFO,
 980:C:/Users/stapi/OneDrive/Desktop/GD32VW553/V1_MQTT_OK/GD32VW55X_Wifi_BLE_SDK/GD32VW55x_RELEASE_V1.0.2/MSDK/wpa_supplicant/src/ap\wpa_auth_glue.c **** 				   "Failed to assign VLAN ID %d from wpa_psk_file to "
 981:C:/Users/stapi/OneDrive/Desktop/GD32VW553/V1_MQTT_OK/GD32VW55X_Wifi_BLE_SDK/GD32VW55x_RELEASE_V1.0.2/MSDK/wpa_supplicant/src/ap\wpa_auth_glue.c **** 				   MACSTR, vlan_id, MAC2STR(sta->addr));
 982:C:/Users/stapi/OneDrive/Desktop/GD32VW553/V1_MQTT_OK/GD32VW55X_Wifi_BLE_SDK/GD32VW55x_RELEASE_V1.0.2/MSDK/wpa_supplicant/src/ap\wpa_auth_glue.c **** 			return -1;
 983:C:/Users/stapi/OneDrive/Desktop/GD32VW553/V1_MQTT_OK/GD32VW55X_Wifi_BLE_SDK/GD32VW55x_RELEASE_V1.0.2/MSDK/wpa_supplicant/src/ap\wpa_auth_glue.c **** 		}
 984:C:/Users/stapi/OneDrive/Desktop/GD32VW553/V1_MQTT_OK/GD32VW55X_Wifi_BLE_SDK/GD32VW55x_RELEASE_V1.0.2/MSDK/wpa_supplicant/src/ap\wpa_auth_glue.c **** 	} else {
 985:C:/Users/stapi/OneDrive/Desktop/GD32VW553/V1_MQTT_OK/GD32VW55X_Wifi_BLE_SDK/GD32VW55x_RELEASE_V1.0.2/MSDK/wpa_supplicant/src/ap\wpa_auth_glue.c **** 		sta->vlan_id = vlan_id;
 986:C:/Users/stapi/OneDrive/Desktop/GD32VW553/V1_MQTT_OK/GD32VW55X_Wifi_BLE_SDK/GD32VW55x_RELEASE_V1.0.2/MSDK/wpa_supplicant/src/ap\wpa_auth_glue.c **** 	}
 987:C:/Users/stapi/OneDrive/Desktop/GD32VW553/V1_MQTT_OK/GD32VW55X_Wifi_BLE_SDK/GD32VW55x_RELEASE_V1.0.2/MSDK/wpa_supplicant/src/ap\wpa_auth_glue.c **** 
 988:C:/Users/stapi/OneDrive/Desktop/GD32VW553/V1_MQTT_OK/GD32VW55X_Wifi_BLE_SDK/GD32VW55x_RELEASE_V1.0.2/MSDK/wpa_supplicant/src/ap\wpa_auth_glue.c **** 	wpa_printf(MSG_INFO,
 989:C:/Users/stapi/OneDrive/Desktop/GD32VW553/V1_MQTT_OK/GD32VW55X_Wifi_BLE_SDK/GD32VW55x_RELEASE_V1.0.2/MSDK/wpa_supplicant/src/ap\wpa_auth_glue.c **** 		   "Assigned VLAN ID %d from wpa_psk_file to " MACSTR,
 990:C:/Users/stapi/OneDrive/Desktop/GD32VW553/V1_MQTT_OK/GD32VW55X_Wifi_BLE_SDK/GD32VW55x_RELEASE_V1.0.2/MSDK/wpa_supplicant/src/ap\wpa_auth_glue.c **** 		   vlan_id, MAC2STR(sta->addr));
 991:C:/Users/stapi/OneDrive/Desktop/GD32VW553/V1_MQTT_OK/GD32VW55X_Wifi_BLE_SDK/GD32VW55x_RELEASE_V1.0.2/MSDK/wpa_supplicant/src/ap\wpa_auth_glue.c **** 	if ((sta->flags & WLAN_STA_ASSOC) &&
 992:C:/Users/stapi/OneDrive/Desktop/GD32VW553/V1_MQTT_OK/GD32VW55X_Wifi_BLE_SDK/GD32VW55x_RELEASE_V1.0.2/MSDK/wpa_supplicant/src/ap\wpa_auth_glue.c **** 	    ap_sta_bind_vlan(hapd, sta) < 0)
 993:C:/Users/stapi/OneDrive/Desktop/GD32VW553/V1_MQTT_OK/GD32VW55X_Wifi_BLE_SDK/GD32VW55x_RELEASE_V1.0.2/MSDK/wpa_supplicant/src/ap\wpa_auth_glue.c **** 		return -1;
 994:C:/Users/stapi/OneDrive/Desktop/GD32VW553/V1_MQTT_OK/GD32VW55X_Wifi_BLE_SDK/GD32VW55x_RELEASE_V1.0.2/MSDK/wpa_supplicant/src/ap\wpa_auth_glue.c **** #endif /* CONFIG_NO_VLAN */
 995:C:/Users/stapi/OneDrive/Desktop/GD32VW553/V1_MQTT_OK/GD32VW55X_Wifi_BLE_SDK/GD32VW55x_RELEASE_V1.0.2/MSDK/wpa_supplicant/src/ap\wpa_auth_glue.c **** 
 996:C:/Users/stapi/OneDrive/Desktop/GD32VW553/V1_MQTT_OK/GD32VW55X_Wifi_BLE_SDK/GD32VW55x_RELEASE_V1.0.2/MSDK/wpa_supplicant/src/ap\wpa_auth_glue.c **** 	return 0;
 295              		.loc 1 996 2
 997:C:/Users/stapi/OneDrive/Desktop/GD32VW553/V1_MQTT_OK/GD32VW55X_Wifi_BLE_SDK/GD32VW55x_RELEASE_V1.0.2/MSDK/wpa_supplicant/src/ap\wpa_auth_glue.c **** }
 296              		.loc 1 997 1 is_stmt 0
 297 0000 0145     		li	a0,0
 298              	.LVL27:
 299 0002 8280     		ret
 300              		.cfi_endproc
 301              	.LFE198:
 303              		.section	.text.hostapd_wpa_auth_get_eapol,"ax",@progbits
 304              		.align	1
 306              	hostapd_wpa_auth_get_eapol:
 307              	.LFB186:
 327:C:/Users/stapi/OneDrive/Desktop/GD32VW553/V1_MQTT_OK/GD32VW55X_Wifi_BLE_SDK/GD32VW55x_RELEASE_V1.0.2/MSDK/wpa_supplicant/src/ap\wpa_auth_glue.c **** 	struct hostapd_data *hapd = ctx;
 308              		.loc 1 327 1 is_stmt 1
 309              		.cfi_startproc
 310              	.LVL28:
 311 0000 17030000 		call	t0,__riscv_save_1
 311      E7020300 
 312              		.cfi_offset 8, -8
 313              		.cfi_offset 1, -4
 314              		.cfi_def_cfa_offset 16
 328:C:/Users/stapi/OneDrive/Desktop/GD32VW553/V1_MQTT_OK/GD32VW55X_Wifi_BLE_SDK/GD32VW55x_RELEASE_V1.0.2/MSDK/wpa_supplicant/src/ap\wpa_auth_glue.c **** 	struct sta_info *sta = ap_get_sta(hapd, addr);
 315              		.loc 1 328 2
 316              	.LVL29:
 329:C:/Users/stapi/OneDrive/Desktop/GD32VW553/V1_MQTT_OK/GD32VW55X_Wifi_BLE_SDK/GD32VW55x_RELEASE_V1.0.2/MSDK/wpa_supplicant/src/ap\wpa_auth_glue.c **** 	if (sta == NULL || sta->eapol_sm == NULL)
 317              		.loc 1 329 2
 327:C:/Users/stapi/OneDrive/Desktop/GD32VW553/V1_MQTT_OK/GD32VW55X_Wifi_BLE_SDK/GD32VW55x_RELEASE_V1.0.2/MSDK/wpa_supplicant/src/ap\wpa_auth_glue.c **** 	struct hostapd_data *hapd = ctx;
 318              		.loc 1 327 1 is_stmt 0
 319 0008 3284     		mv	s0,a2
 329:C:/Users/stapi/OneDrive/Desktop/GD32VW553/V1_MQTT_OK/GD32VW55X_Wifi_BLE_SDK/GD32VW55x_RELEASE_V1.0.2/MSDK/wpa_supplicant/src/ap\wpa_auth_glue.c **** 	if (sta == NULL || sta->eapol_sm == NULL)
 320              		.loc 1 329 25
 321 000a 97000000 		call	ap_get_sta
 321      E7800000 
 322              	.LVL30:
 330:C:/Users/stapi/OneDrive/Desktop/GD32VW553/V1_MQTT_OK/GD32VW55X_Wifi_BLE_SDK/GD32VW55x_RELEASE_V1.0.2/MSDK/wpa_supplicant/src/ap\wpa_auth_glue.c **** 		return -1;
 323              		.loc 1 330 2 is_stmt 1
 330:C:/Users/stapi/OneDrive/Desktop/GD32VW553/V1_MQTT_OK/GD32VW55X_Wifi_BLE_SDK/GD32VW55x_RELEASE_V1.0.2/MSDK/wpa_supplicant/src/ap\wpa_auth_glue.c **** 		return -1;
 324              		.loc 1 330 5 is_stmt 0
 325 0012 15C5     		beq	a0,zero,.L40
 330:C:/Users/stapi/OneDrive/Desktop/GD32VW553/V1_MQTT_OK/GD32VW55X_Wifi_BLE_SDK/GD32VW55x_RELEASE_V1.0.2/MSDK/wpa_supplicant/src/ap\wpa_auth_glue.c **** 		return -1;
 326              		.loc 1 330 24 discriminator 1
 327 0014 3C51     		lw	a5,96(a0)
 331:C:/Users/stapi/OneDrive/Desktop/GD32VW553/V1_MQTT_OK/GD32VW55X_Wifi_BLE_SDK/GD32VW55x_RELEASE_V1.0.2/MSDK/wpa_supplicant/src/ap\wpa_auth_glue.c **** 	switch (var) {
 328              		.loc 1 331 10 discriminator 1
 329 0016 7D55     		li	a0,-1
 330              	.LVL31:
 330:C:/Users/stapi/OneDrive/Desktop/GD32VW553/V1_MQTT_OK/GD32VW55X_Wifi_BLE_SDK/GD32VW55x_RELEASE_V1.0.2/MSDK/wpa_supplicant/src/ap\wpa_auth_glue.c **** 		return -1;
 331              		.loc 1 330 18 discriminator 1
 332 0018 99C7     		beq	a5,zero,.L36
 332:C:/Users/stapi/OneDrive/Desktop/GD32VW553/V1_MQTT_OK/GD32VW55X_Wifi_BLE_SDK/GD32VW55x_RELEASE_V1.0.2/MSDK/wpa_supplicant/src/ap\wpa_auth_glue.c **** 	case WPA_EAPOL_keyRun:
 333              		.loc 1 332 2 is_stmt 1
 334 001a 1147     		li	a4,4
 335 001c 6309E400 		beq	s0,a4,.L38
 336 0020 1547     		li	a4,5
 337 0022 6309E400 		beq	s0,a4,.L39
 338              	.L36:
 340:C:/Users/stapi/OneDrive/Desktop/GD32VW553/V1_MQTT_OK/GD32VW55X_Wifi_BLE_SDK/GD32VW55x_RELEASE_V1.0.2/MSDK/wpa_supplicant/src/ap\wpa_auth_glue.c **** 
 339              		.loc 1 340 1 is_stmt 0
 340 0026 17030000 		tail	__riscv_restore_1
 340      67000300 
 341              		.cfi_remember_state
 342              		.cfi_restore 8
 343              		.cfi_restore 1
 344              		.cfi_def_cfa_offset 0
 345              	.L38:
 346              		.cfi_restore_state
 334:C:/Users/stapi/OneDrive/Desktop/GD32VW553/V1_MQTT_OK/GD32VW55X_Wifi_BLE_SDK/GD32VW55x_RELEASE_V1.0.2/MSDK/wpa_supplicant/src/ap\wpa_auth_glue.c **** 	case WPA_EAPOL_keyAvailable:
 347              		.loc 1 334 3 is_stmt 1
 334:C:/Users/stapi/OneDrive/Desktop/GD32VW553/V1_MQTT_OK/GD32VW55X_Wifi_BLE_SDK/GD32VW55x_RELEASE_V1.0.2/MSDK/wpa_supplicant/src/ap\wpa_auth_glue.c **** 	case WPA_EAPOL_keyAvailable:
 348              		.loc 1 334 23 is_stmt 0
 349 002e 03C5A701 		lbu	a0,26(a5)
 350 0032 D5BF     		j	.L36
 351              	.L39:
 336:C:/Users/stapi/OneDrive/Desktop/GD32VW553/V1_MQTT_OK/GD32VW55X_Wifi_BLE_SDK/GD32VW55x_RELEASE_V1.0.2/MSDK/wpa_supplicant/src/ap\wpa_auth_glue.c **** 	default:
 352              		.loc 1 336 3 is_stmt 1
 336:C:/Users/stapi/OneDrive/Desktop/GD32VW553/V1_MQTT_OK/GD32VW55X_Wifi_BLE_SDK/GD32VW55x_RELEASE_V1.0.2/MSDK/wpa_supplicant/src/ap\wpa_auth_glue.c **** 	default:
 353              		.loc 1 336 31 is_stmt 0
 354 0034 83A7470E 		lw	a5,228(a5)
 355 0038 03C58703 		lbu	a0,56(a5)
 356 003c EDB7     		j	.L36
 357              	.LVL32:
 358              	.L40:
 331:C:/Users/stapi/OneDrive/Desktop/GD32VW553/V1_MQTT_OK/GD32VW55X_Wifi_BLE_SDK/GD32VW55x_RELEASE_V1.0.2/MSDK/wpa_supplicant/src/ap\wpa_auth_glue.c **** 	switch (var) {
 359              		.loc 1 331 10
 360 003e 7D55     		li	a0,-1
 361              	.LVL33:
 362 0040 DDB7     		j	.L36
 363              		.cfi_endproc
 364              	.LFE186:
 366              		.section	.text.hostapd_wpa_auth_send_eapol,"ax",@progbits
 367              		.align	1
 368              		.globl	hostapd_wpa_auth_send_eapol
 370              	hostapd_wpa_auth_send_eapol:
 371              	.LFB191:
 524:C:/Users/stapi/OneDrive/Desktop/GD32VW553/V1_MQTT_OK/GD32VW55X_Wifi_BLE_SDK/GD32VW55x_RELEASE_V1.0.2/MSDK/wpa_supplicant/src/ap\wpa_auth_glue.c **** 	struct hostapd_data *hapd = ctx;
 372              		.loc 1 524 1 is_stmt 1
 373              		.cfi_startproc
 374              	.LVL34:
 375 0000 17030000 		call	t0,__riscv_save_5
 375      E7020300 
 376              		.cfi_offset 20, -24
 377              		.cfi_offset 19, -20
 378              		.cfi_offset 18, -16
 379              		.cfi_offset 9, -12
 380              		.cfi_offset 8, -8
 381              		.cfi_offset 1, -4
 382              		.cfi_def_cfa_offset 32
 525:C:/Users/stapi/OneDrive/Desktop/GD32VW553/V1_MQTT_OK/GD32VW55X_Wifi_BLE_SDK/GD32VW55x_RELEASE_V1.0.2/MSDK/wpa_supplicant/src/ap\wpa_auth_glue.c **** 	struct sta_info *sta;
 383              		.loc 1 525 2
 524:C:/Users/stapi/OneDrive/Desktop/GD32VW553/V1_MQTT_OK/GD32VW55X_Wifi_BLE_SDK/GD32VW55x_RELEASE_V1.0.2/MSDK/wpa_supplicant/src/ap\wpa_auth_glue.c **** 	struct hostapd_data *hapd = ctx;
 384              		.loc 1 524 1 is_stmt 0
 385 0008 2A84     		mv	s0,a0
 386              	.LVL35:
 526:C:/Users/stapi/OneDrive/Desktop/GD32VW553/V1_MQTT_OK/GD32VW55X_Wifi_BLE_SDK/GD32VW55x_RELEASE_V1.0.2/MSDK/wpa_supplicant/src/ap\wpa_auth_glue.c **** 	u32 flags = 0;
 387              		.loc 1 526 2 is_stmt 1
 527:C:/Users/stapi/OneDrive/Desktop/GD32VW553/V1_MQTT_OK/GD32VW55X_Wifi_BLE_SDK/GD32VW55x_RELEASE_V1.0.2/MSDK/wpa_supplicant/src/ap\wpa_auth_glue.c **** 
 388              		.loc 1 527 2
 544:C:/Users/stapi/OneDrive/Desktop/GD32VW553/V1_MQTT_OK/GD32VW55X_Wifi_BLE_SDK/GD32VW55x_RELEASE_V1.0.2/MSDK/wpa_supplicant/src/ap\wpa_auth_glue.c **** 	if (sta)
 389              		.loc 1 544 2
 524:C:/Users/stapi/OneDrive/Desktop/GD32VW553/V1_MQTT_OK/GD32VW55X_Wifi_BLE_SDK/GD32VW55x_RELEASE_V1.0.2/MSDK/wpa_supplicant/src/ap\wpa_auth_glue.c **** 	struct hostapd_data *hapd = ctx;
 390              		.loc 1 524 1 is_stmt 0
 391 000a AE84     		mv	s1,a1
 392 000c 3289     		mv	s2,a2
 393 000e B689     		mv	s3,a3
 394 0010 3A8A     		mv	s4,a4
 544:C:/Users/stapi/OneDrive/Desktop/GD32VW553/V1_MQTT_OK/GD32VW55X_Wifi_BLE_SDK/GD32VW55x_RELEASE_V1.0.2/MSDK/wpa_supplicant/src/ap\wpa_auth_glue.c **** 	if (sta)
 395              		.loc 1 544 8
 396 0012 97000000 		call	ap_get_sta
 396      E7800000 
 397              	.LVL36:
 545:C:/Users/stapi/OneDrive/Desktop/GD32VW553/V1_MQTT_OK/GD32VW55X_Wifi_BLE_SDK/GD32VW55x_RELEASE_V1.0.2/MSDK/wpa_supplicant/src/ap\wpa_auth_glue.c **** 		flags = hostapd_sta_flags_to_drv(sta->flags);
 398              		.loc 1 545 2 is_stmt 1
 399 001a 0148     		li	a6,0
 545:C:/Users/stapi/OneDrive/Desktop/GD32VW553/V1_MQTT_OK/GD32VW55X_Wifi_BLE_SDK/GD32VW55x_RELEASE_V1.0.2/MSDK/wpa_supplicant/src/ap\wpa_auth_glue.c **** 		flags = hostapd_sta_flags_to_drv(sta->flags);
 400              		.loc 1 545 5 is_stmt 0
 401 001c 19C5     		beq	a0,zero,.L44
 546:C:/Users/stapi/OneDrive/Desktop/GD32VW553/V1_MQTT_OK/GD32VW55X_Wifi_BLE_SDK/GD32VW55x_RELEASE_V1.0.2/MSDK/wpa_supplicant/src/ap\wpa_auth_glue.c **** 
 402              		.loc 1 546 3 is_stmt 1
 546:C:/Users/stapi/OneDrive/Desktop/GD32VW553/V1_MQTT_OK/GD32VW55X_Wifi_BLE_SDK/GD32VW55x_RELEASE_V1.0.2/MSDK/wpa_supplicant/src/ap\wpa_auth_glue.c **** 
 403              		.loc 1 546 11 is_stmt 0
 404 001e 0851     		lw	a0,32(a0)
 405              	.LVL37:
 406 0020 97000000 		call	hostapd_sta_flags_to_drv
 406      E7800000 
 407              	.LVL38:
 408 0028 2A88     		mv	a6,a0
 409              	.LVL39:
 410              	.L44:
 548:C:/Users/stapi/OneDrive/Desktop/GD32VW553/V1_MQTT_OK/GD32VW55X_Wifi_BLE_SDK/GD32VW55x_RELEASE_V1.0.2/MSDK/wpa_supplicant/src/ap\wpa_auth_glue.c **** 					   encrypt, flags);
 411              		.loc 1 548 2 is_stmt 1
 412              	.LBB18:
 413              	.LBB19:
 191:C:/Users/stapi/OneDrive/Desktop/GD32VW553/V1_MQTT_OK/GD32VW55X_Wifi_BLE_SDK/GD32VW55x_RELEASE_V1.0.2/MSDK/wpa_supplicant/src/ap\ap_drv_ops.h **** 		return 0;
 414              		.loc 2 191 2
 191:C:/Users/stapi/OneDrive/Desktop/GD32VW553/V1_MQTT_OK/GD32VW55X_Wifi_BLE_SDK/GD32VW55x_RELEASE_V1.0.2/MSDK/wpa_supplicant/src/ap\ap_drv_ops.h **** 		return 0;
 415              		.loc 2 191 10 is_stmt 0
 416 002a 8327C451 		lw	a5,1308(s0)
 192:C:/Users/stapi/OneDrive/Desktop/GD32VW553/V1_MQTT_OK/GD32VW55X_Wifi_BLE_SDK/GD32VW55x_RELEASE_V1.0.2/MSDK/wpa_supplicant/src/ap\ap_drv_ops.h **** 	return hapd->driver->hapd_send_eapol(hapd->drv_priv, addr, data,
 417              		.loc 2 192 10
 418 002e 0145     		li	a0,0
 191:C:/Users/stapi/OneDrive/Desktop/GD32VW553/V1_MQTT_OK/GD32VW55X_Wifi_BLE_SDK/GD32VW55x_RELEASE_V1.0.2/MSDK/wpa_supplicant/src/ap\ap_drv_ops.h **** 		return 0;
 419              		.loc 2 191 5
 420 0030 91CF     		beq	a5,zero,.L43
 191:C:/Users/stapi/OneDrive/Desktop/GD32VW553/V1_MQTT_OK/GD32VW55X_Wifi_BLE_SDK/GD32VW55x_RELEASE_V1.0.2/MSDK/wpa_supplicant/src/ap\ap_drv_ops.h **** 		return 0;
 421              		.loc 2 191 42
 422 0032 83A8070B 		lw	a7,176(a5)
 191:C:/Users/stapi/OneDrive/Desktop/GD32VW553/V1_MQTT_OK/GD32VW55X_Wifi_BLE_SDK/GD32VW55x_RELEASE_V1.0.2/MSDK/wpa_supplicant/src/ap\ap_drv_ops.h **** 		return 0;
 423              		.loc 2 191 27
 424 0036 638B0800 		beq	a7,zero,.L43
 193:C:/Users/stapi/OneDrive/Desktop/GD32VW553/V1_MQTT_OK/GD32VW55X_Wifi_BLE_SDK/GD32VW55x_RELEASE_V1.0.2/MSDK/wpa_supplicant/src/ap\ap_drv_ops.h **** 					     data_len, encrypt,
 425              		.loc 2 193 2 is_stmt 1
 193:C:/Users/stapi/OneDrive/Desktop/GD32VW553/V1_MQTT_OK/GD32VW55X_Wifi_BLE_SDK/GD32VW55x_RELEASE_V1.0.2/MSDK/wpa_supplicant/src/ap\ap_drv_ops.h **** 					     data_len, encrypt,
 426              		.loc 2 193 9 is_stmt 0
 427 003a 03250452 		lw	a0,1312(s0)
 428 003e 93071401 		addi	a5,s0,17
 429 0042 5287     		mv	a4,s4
 430 0044 CE86     		mv	a3,s3
 431 0046 4A86     		mv	a2,s2
 432 0048 A685     		mv	a1,s1
 433 004a 8298     		jalr	a7
 434              	.LVL40:
 435              	.L43:
 436              	.LBE19:
 437              	.LBE18:
 550:C:/Users/stapi/OneDrive/Desktop/GD32VW553/V1_MQTT_OK/GD32VW55X_Wifi_BLE_SDK/GD32VW55x_RELEASE_V1.0.2/MSDK/wpa_supplicant/src/ap\wpa_auth_glue.c **** 
 438              		.loc 1 550 1
 439 004c 17030000 		tail	__riscv_restore_5
 439      67000300 
 440              		.cfi_restore 20
 441              		.cfi_restore 19
 442              		.cfi_restore 18
 443              		.cfi_restore 9
 444              		.cfi_restore 8
 445              		.cfi_restore 1
 446              		.cfi_def_cfa_offset 0
 447              		.cfi_endproc
 448              	.LFE191:
 450              		.section	.rodata.hostapd_wpa_auth_psk_failure_report.str1.4,"aMS",@progbits,1
 451              		.align	2
 452              	.LC0:
 453 0000 41502D53 		.string	"AP-STA-POSSIBLE-PSK-MISMATCH %02x:%02x:%02x:%02x:%02x:%02x"
 453      54412D50 
 453      4F535349 
 453      424C452D 
 453      50534B2D 
 454              		.section	.text.hostapd_wpa_auth_psk_failure_report,"ax",@progbits
 455              		.align	1
 457              	hostapd_wpa_auth_psk_failure_report:
 458              	.LFB184:
 265:C:/Users/stapi/OneDrive/Desktop/GD32VW553/V1_MQTT_OK/GD32VW55X_Wifi_BLE_SDK/GD32VW55x_RELEASE_V1.0.2/MSDK/wpa_supplicant/src/ap\wpa_auth_glue.c **** 	struct hostapd_data *hapd = ctx;
 459              		.loc 1 265 1 is_stmt 1
 460              		.cfi_startproc
 461              	.LVL41:
 462 0000 17030000 		call	t0,__riscv_save_0
 462      E7020300 
 463              		.cfi_offset 1, -4
 464              		.cfi_def_cfa_offset 16
 266:C:/Users/stapi/OneDrive/Desktop/GD32VW553/V1_MQTT_OK/GD32VW55X_Wifi_BLE_SDK/GD32VW55x_RELEASE_V1.0.2/MSDK/wpa_supplicant/src/ap\wpa_auth_glue.c **** 	wpa_msg(hapd->msg_ctx, MSG_INFO, AP_STA_POSSIBLE_PSK_MISMATCH MACSTR,
 465              		.loc 1 266 2
 466              	.LVL42:
 267:C:/Users/stapi/OneDrive/Desktop/GD32VW553/V1_MQTT_OK/GD32VW55X_Wifi_BLE_SDK/GD32VW55x_RELEASE_V1.0.2/MSDK/wpa_supplicant/src/ap\wpa_auth_glue.c **** 		MAC2STR(addr));
 467              		.loc 1 267 2
 468 0008 83C75500 		lbu	a5,5(a1)
 265:C:/Users/stapi/OneDrive/Desktop/GD32VW553/V1_MQTT_OK/GD32VW55X_Wifi_BLE_SDK/GD32VW55x_RELEASE_V1.0.2/MSDK/wpa_supplicant/src/ap\wpa_auth_glue.c **** 	struct hostapd_data *hapd = ctx;
 469              		.loc 1 265 1 is_stmt 0
 470 000c 4111     		addi	sp,sp,-16
 471              		.cfi_def_cfa_offset 32
 267:C:/Users/stapi/OneDrive/Desktop/GD32VW553/V1_MQTT_OK/GD32VW55X_Wifi_BLE_SDK/GD32VW55x_RELEASE_V1.0.2/MSDK/wpa_supplicant/src/ap\wpa_auth_glue.c **** 		MAC2STR(addr));
 472              		.loc 1 267 2
 473 000e 03258552 		lw	a0,1320(a0)
 474              	.LVL43:
 475 0012 3EC0     		sw	a5,0(sp)
 476 0014 83C84500 		lbu	a7,4(a1)
 477 0018 03C83500 		lbu	a6,3(a1)
 478 001c 83C72500 		lbu	a5,2(a1)
 479 0020 03C71500 		lbu	a4,1(a1)
 480 0024 83C60500 		lbu	a3,0(a1)
 481 0028 37060000 		lui	a2,%hi(.LC0)
 482 002c 13060600 		addi	a2,a2,%lo(.LC0)
 483 0030 8D45     		li	a1,3
 484              	.LVL44:
 485 0032 97000000 		call	wpa_msg
 485      E7800000 
 486              	.LVL45:
 269:C:/Users/stapi/OneDrive/Desktop/GD32VW553/V1_MQTT_OK/GD32VW55X_Wifi_BLE_SDK/GD32VW55x_RELEASE_V1.0.2/MSDK/wpa_supplicant/src/ap\wpa_auth_glue.c **** 
 487              		.loc 1 269 1
 488 003a 4101     		addi	sp,sp,16
 489              		.cfi_def_cfa_offset 0
 490 003c 17030000 		tail	__riscv_restore_0
 490      67000300 
 491              		.cfi_restore 1
 492              		.cfi_def_cfa_offset -16
 493              		.cfi_endproc
 494              	.LFE184:
 496              		.section	.text.hostapd_wpa_auth_send_ether,"ax",@progbits
 497              		.align	1
 499              	hostapd_wpa_auth_send_ether:
 500              	.LFB195:
 692:C:/Users/stapi/OneDrive/Desktop/GD32VW553/V1_MQTT_OK/GD32VW55X_Wifi_BLE_SDK/GD32VW55x_RELEASE_V1.0.2/MSDK/wpa_supplicant/src/ap\wpa_auth_glue.c **** 	struct hostapd_data *hapd = ctx;
 501              		.loc 1 692 1 is_stmt 1
 502              		.cfi_startproc
 503              	.LVL46:
 504 0000 17030000 		call	t0,__riscv_save_7
 504      E7020300 
 505              		.cfi_offset 22, -32
 506              		.cfi_offset 21, -28
 507              		.cfi_offset 20, -24
 508              		.cfi_offset 19, -20
 509              		.cfi_offset 18, -16
 510              		.cfi_offset 9, -12
 511              		.cfi_offset 8, -8
 512              		.cfi_offset 1, -4
 513              		.cfi_def_cfa_offset 32
 693:C:/Users/stapi/OneDrive/Desktop/GD32VW553/V1_MQTT_OK/GD32VW55X_Wifi_BLE_SDK/GD32VW55x_RELEASE_V1.0.2/MSDK/wpa_supplicant/src/ap\wpa_auth_glue.c **** 	struct l2_ethhdr *buf;
 514              		.loc 1 693 2
 515              	.LVL47:
 694:C:/Users/stapi/OneDrive/Desktop/GD32VW553/V1_MQTT_OK/GD32VW55X_Wifi_BLE_SDK/GD32VW55x_RELEASE_V1.0.2/MSDK/wpa_supplicant/src/ap\wpa_auth_glue.c **** 	int ret;
 516              		.loc 1 694 2
 695:C:/Users/stapi/OneDrive/Desktop/GD32VW553/V1_MQTT_OK/GD32VW55X_Wifi_BLE_SDK/GD32VW55x_RELEASE_V1.0.2/MSDK/wpa_supplicant/src/ap\wpa_auth_glue.c **** 
 517              		.loc 1 695 2
 729:C:/Users/stapi/OneDrive/Desktop/GD32VW553/V1_MQTT_OK/GD32VW55X_Wifi_BLE_SDK/GD32VW55x_RELEASE_V1.0.2/MSDK/wpa_supplicant/src/ap\wpa_auth_glue.c **** 		return -1;
 518              		.loc 1 729 2
 729:C:/Users/stapi/OneDrive/Desktop/GD32VW553/V1_MQTT_OK/GD32VW55X_Wifi_BLE_SDK/GD32VW55x_RELEASE_V1.0.2/MSDK/wpa_supplicant/src/ap\wpa_auth_glue.c **** 		return -1;
 519              		.loc 1 729 5 is_stmt 0
 520 0008 83278559 		lw	a5,1432(a0)
 521 000c 99E7     		bne	a5,zero,.L55
 522              	.LVL48:
 523              	.L57:
 730:C:/Users/stapi/OneDrive/Desktop/GD32VW553/V1_MQTT_OK/GD32VW55X_Wifi_BLE_SDK/GD32VW55x_RELEASE_V1.0.2/MSDK/wpa_supplicant/src/ap\wpa_auth_glue.c **** 
 524              		.loc 1 730 10
 525 000e FD54     		li	s1,-1
 526              	.L54:
 743:C:/Users/stapi/OneDrive/Desktop/GD32VW553/V1_MQTT_OK/GD32VW55X_Wifi_BLE_SDK/GD32VW55x_RELEASE_V1.0.2/MSDK/wpa_supplicant/src/ap\wpa_auth_glue.c **** 
 527              		.loc 1 743 1
 528 0010 2685     		mv	a0,s1
 529 0012 17030000 		tail	__riscv_restore_7
 529      67000300 
 530              		.cfi_remember_state
 531              		.cfi_restore 22
 532              		.cfi_restore 21
 533              		.cfi_restore 20
 534              		.cfi_restore 19
 535              		.cfi_restore 18
 536              		.cfi_restore 9
 537              		.cfi_restore 8
 538              		.cfi_restore 1
 539              		.cfi_def_cfa_offset 0
 540              	.LVL49:
 541              	.L55:
 542              		.cfi_restore_state
 732:C:/Users/stapi/OneDrive/Desktop/GD32VW553/V1_MQTT_OK/GD32VW55X_Wifi_BLE_SDK/GD32VW55x_RELEASE_V1.0.2/MSDK/wpa_supplicant/src/ap\wpa_auth_glue.c **** 	if (buf == NULL)
 543              		.loc 1 732 8
 544 001a 130BE700 		addi	s6,a4,14
 545 001e AA84     		mv	s1,a0
 546 0020 5A85     		mv	a0,s6
 547              	.LVL50:
 548 0022 AE89     		mv	s3,a1
 549 0024 3289     		mv	s2,a2
 550 0026 B68A     		mv	s5,a3
 551 0028 3A8A     		mv	s4,a4
 732:C:/Users/stapi/OneDrive/Desktop/GD32VW553/V1_MQTT_OK/GD32VW55X_Wifi_BLE_SDK/GD32VW55x_RELEASE_V1.0.2/MSDK/wpa_supplicant/src/ap\wpa_auth_glue.c **** 	if (buf == NULL)
 552              		.loc 1 732 2 is_stmt 1
 732:C:/Users/stapi/OneDrive/Desktop/GD32VW553/V1_MQTT_OK/GD32VW55X_Wifi_BLE_SDK/GD32VW55x_RELEASE_V1.0.2/MSDK/wpa_supplicant/src/ap\wpa_auth_glue.c **** 	if (buf == NULL)
 553              		.loc 1 732 8 is_stmt 0
 554 002a 97000000 		call	os_malloc
 554      E7800000 
 555              	.LVL51:
 556 0032 2A84     		mv	s0,a0
 557              	.LVL52:
 733:C:/Users/stapi/OneDrive/Desktop/GD32VW553/V1_MQTT_OK/GD32VW55X_Wifi_BLE_SDK/GD32VW55x_RELEASE_V1.0.2/MSDK/wpa_supplicant/src/ap\wpa_auth_glue.c **** 		return -1;
 558              		.loc 1 733 2 is_stmt 1
 733:C:/Users/stapi/OneDrive/Desktop/GD32VW553/V1_MQTT_OK/GD32VW55X_Wifi_BLE_SDK/GD32VW55x_RELEASE_V1.0.2/MSDK/wpa_supplicant/src/ap\wpa_auth_glue.c **** 		return -1;
 559              		.loc 1 733 5 is_stmt 0
 560 0034 69DD     		beq	a0,zero,.L57
 735:C:/Users/stapi/OneDrive/Desktop/GD32VW553/V1_MQTT_OK/GD32VW55X_Wifi_BLE_SDK/GD32VW55x_RELEASE_V1.0.2/MSDK/wpa_supplicant/src/ap\wpa_auth_glue.c **** 	os_memcpy(buf->h_source, hapd->own_addr, ETH_ALEN);
 561              		.loc 1 735 2 is_stmt 1
 562 0036 CE85     		mv	a1,s3
 563 0038 1946     		li	a2,6
 564 003a 97000000 		call	os_memcpy
 564      E7800000 
 565              	.LVL53:
 736:C:/Users/stapi/OneDrive/Desktop/GD32VW553/V1_MQTT_OK/GD32VW55X_Wifi_BLE_SDK/GD32VW55x_RELEASE_V1.0.2/MSDK/wpa_supplicant/src/ap\wpa_auth_glue.c **** 	buf->h_proto = host_to_be16(proto);
 566              		.loc 1 736 2
 567 0042 93851401 		addi	a1,s1,17
 568 0046 1946     		li	a2,6
 569 0048 13056400 		addi	a0,s0,6
 570 004c 97000000 		call	os_memcpy
 570      E7800000 
 571              	.LVL54:
 737:C:/Users/stapi/OneDrive/Desktop/GD32VW553/V1_MQTT_OK/GD32VW55X_Wifi_BLE_SDK/GD32VW55x_RELEASE_V1.0.2/MSDK/wpa_supplicant/src/ap\wpa_auth_glue.c **** 	os_memcpy(buf + 1, data, data_len);
 572              		.loc 1 737 2
 573              		.file 3 "..\\..\\..\\..\\wpa_supplicant\\src/utils/common.h"
   1:..\..\..\..\wpa_supplicant\src/utils/common.h **** /*
   2:..\..\..\..\wpa_supplicant\src/utils/common.h ****  * wpa_supplicant/hostapd / common helper functions, etc.
   3:..\..\..\..\wpa_supplicant\src/utils/common.h ****  * Copyright (c) 2002-2007, Jouni Malinen <j@w1.fi>
   4:..\..\..\..\wpa_supplicant\src/utils/common.h ****  *
   5:..\..\..\..\wpa_supplicant\src/utils/common.h ****  * This software may be distributed under the terms of the BSD license.
   6:..\..\..\..\wpa_supplicant\src/utils/common.h ****  * See README for more details.
   7:..\..\..\..\wpa_supplicant\src/utils/common.h ****  */
   8:..\..\..\..\wpa_supplicant\src/utils/common.h **** 
   9:..\..\..\..\wpa_supplicant\src/utils/common.h **** #ifndef COMMON_H
  10:..\..\..\..\wpa_supplicant\src/utils/common.h **** #define COMMON_H
  11:..\..\..\..\wpa_supplicant\src/utils/common.h **** 
  12:..\..\..\..\wpa_supplicant\src/utils/common.h **** #include "os.h"
  13:..\..\..\..\wpa_supplicant\src/utils/common.h **** 
  14:..\..\..\..\wpa_supplicant\src/utils/common.h **** #if defined(__linux__) || defined(__GLIBC__)
  15:..\..\..\..\wpa_supplicant\src/utils/common.h **** #include <endian.h>
  16:..\..\..\..\wpa_supplicant\src/utils/common.h **** #include <byteswap.h>
  17:..\..\..\..\wpa_supplicant\src/utils/common.h **** #endif /* __linux__ */
  18:..\..\..\..\wpa_supplicant\src/utils/common.h **** 
  19:..\..\..\..\wpa_supplicant\src/utils/common.h **** #if defined(__FreeBSD__) || defined(__NetBSD__) || defined(__DragonFly__) || \
  20:..\..\..\..\wpa_supplicant\src/utils/common.h ****     defined(__OpenBSD__)
  21:..\..\..\..\wpa_supplicant\src/utils/common.h **** #include <sys/types.h>
  22:..\..\..\..\wpa_supplicant\src/utils/common.h **** #include <sys/endian.h>
  23:..\..\..\..\wpa_supplicant\src/utils/common.h **** #define __BYTE_ORDER	_BYTE_ORDER
  24:..\..\..\..\wpa_supplicant\src/utils/common.h **** #define	__LITTLE_ENDIAN	_LITTLE_ENDIAN
  25:..\..\..\..\wpa_supplicant\src/utils/common.h **** #define	__BIG_ENDIAN	_BIG_ENDIAN
  26:..\..\..\..\wpa_supplicant\src/utils/common.h **** #ifdef __OpenBSD__
  27:..\..\..\..\wpa_supplicant\src/utils/common.h **** #define bswap_16 swap16
  28:..\..\..\..\wpa_supplicant\src/utils/common.h **** #define bswap_32 swap32
  29:..\..\..\..\wpa_supplicant\src/utils/common.h **** #define bswap_64 swap64
  30:..\..\..\..\wpa_supplicant\src/utils/common.h **** #else /* __OpenBSD__ */
  31:..\..\..\..\wpa_supplicant\src/utils/common.h **** #define bswap_16 bswap16
  32:..\..\..\..\wpa_supplicant\src/utils/common.h **** #define bswap_32 bswap32
  33:..\..\..\..\wpa_supplicant\src/utils/common.h **** #define bswap_64 bswap64
  34:..\..\..\..\wpa_supplicant\src/utils/common.h **** #endif /* __OpenBSD__ */
  35:..\..\..\..\wpa_supplicant\src/utils/common.h **** #endif /* defined(__FreeBSD__) || defined(__NetBSD__) ||
  36:..\..\..\..\wpa_supplicant\src/utils/common.h **** 	* defined(__DragonFly__) || defined(__OpenBSD__) */
  37:..\..\..\..\wpa_supplicant\src/utils/common.h **** 
  38:..\..\..\..\wpa_supplicant\src/utils/common.h **** #ifdef __APPLE__
  39:..\..\..\..\wpa_supplicant\src/utils/common.h **** #include <sys/types.h>
  40:..\..\..\..\wpa_supplicant\src/utils/common.h **** #include <machine/endian.h>
  41:..\..\..\..\wpa_supplicant\src/utils/common.h **** #define __BYTE_ORDER	_BYTE_ORDER
  42:..\..\..\..\wpa_supplicant\src/utils/common.h **** #define __LITTLE_ENDIAN	_LITTLE_ENDIAN
  43:..\..\..\..\wpa_supplicant\src/utils/common.h **** #define __BIG_ENDIAN	_BIG_ENDIAN
  44:..\..\..\..\wpa_supplicant\src/utils/common.h **** static inline unsigned short bswap_16(unsigned short v)
  45:..\..\..\..\wpa_supplicant\src/utils/common.h **** {
  46:..\..\..\..\wpa_supplicant\src/utils/common.h **** 	return ((v & 0xff) << 8) | (v >> 8);
  47:..\..\..\..\wpa_supplicant\src/utils/common.h **** }
  48:..\..\..\..\wpa_supplicant\src/utils/common.h **** 
  49:..\..\..\..\wpa_supplicant\src/utils/common.h **** static inline unsigned int bswap_32(unsigned int v)
  50:..\..\..\..\wpa_supplicant\src/utils/common.h **** {
  51:..\..\..\..\wpa_supplicant\src/utils/common.h **** 	return ((v & 0xff) << 24) | ((v & 0xff00) << 8) |
  52:..\..\..\..\wpa_supplicant\src/utils/common.h **** 		((v & 0xff0000) >> 8) | (v >> 24);
  53:..\..\..\..\wpa_supplicant\src/utils/common.h **** }
  54:..\..\..\..\wpa_supplicant\src/utils/common.h **** #endif /* __APPLE__ */
  55:..\..\..\..\wpa_supplicant\src/utils/common.h **** 
  56:..\..\..\..\wpa_supplicant\src/utils/common.h **** #ifdef CONFIG_GDWIFI
  57:..\..\..\..\wpa_supplicant\src/utils/common.h **** // #include <sys/types.h>
  58:..\..\..\..\wpa_supplicant\src/utils/common.h **** // #include <machine/endian.h>
  59:..\..\..\..\wpa_supplicant\src/utils/common.h **** #define __BYTE_ORDER	BYTE_ORDER
  60:..\..\..\..\wpa_supplicant\src/utils/common.h **** #define __LITTLE_ENDIAN	LITTLE_ENDIAN
  61:..\..\..\..\wpa_supplicant\src/utils/common.h **** #define __BIG_ENDIAN	BIG_ENDIAN
  62:..\..\..\..\wpa_supplicant\src/utils/common.h **** #define ETHER_ADDR_LEN	6
  63:..\..\..\..\wpa_supplicant\src/utils/common.h **** #define ETH_P_802_3	0x0001		/* Dummy type for 802.3 frames  */
  64:..\..\..\..\wpa_supplicant\src/utils/common.h **** 
  65:..\..\..\..\wpa_supplicant\src/utils/common.h **** static inline unsigned short bswap_16(unsigned short v)
  66:..\..\..\..\wpa_supplicant\src/utils/common.h **** {
  67:..\..\..\..\wpa_supplicant\src/utils/common.h **** 	return ((v & 0xff) << 8) | (v >> 8);
 574              		.loc 3 67 2
 737:C:/Users/stapi/OneDrive/Desktop/GD32VW553/V1_MQTT_OK/GD32VW55X_Wifi_BLE_SDK/GD32VW55x_RELEASE_V1.0.2/MSDK/wpa_supplicant/src/ap\wpa_auth_glue.c **** 	os_memcpy(buf + 1, data, data_len);
 575              		.loc 1 737 15 is_stmt 0
 576 0054 13578900 		srli	a4,s2,8
 577 0058 93178900 		slli	a5,s2,8
 578 005c D98F     		or	a5,a5,a4
 579 005e 2306F400 		sb	a5,12(s0)
 580 0062 B3C60708 		zext.h	a3,a5
 581 0066 93D78600 		srli	a5,a3,8
 582 006a A306F400 		sb	a5,13(s0)
 738:C:/Users/stapi/OneDrive/Desktop/GD32VW553/V1_MQTT_OK/GD32VW55X_Wifi_BLE_SDK/GD32VW55x_RELEASE_V1.0.2/MSDK/wpa_supplicant/src/ap\wpa_auth_glue.c **** 	ret = l2_packet_send(hapd->l2, dst, proto, (u8 *) buf,
 583              		.loc 1 738 2 is_stmt 1
 584 006e 5286     		mv	a2,s4
 585 0070 D685     		mv	a1,s5
 586 0072 1305E400 		addi	a0,s0,14
 587 0076 97000000 		call	os_memcpy
 587      E7800000 
 588              	.LVL55:
 739:C:/Users/stapi/OneDrive/Desktop/GD32VW553/V1_MQTT_OK/GD32VW55X_Wifi_BLE_SDK/GD32VW55x_RELEASE_V1.0.2/MSDK/wpa_supplicant/src/ap\wpa_auth_glue.c **** 			     sizeof(*buf) + data_len);
 589              		.loc 1 739 2
 739:C:/Users/stapi/OneDrive/Desktop/GD32VW553/V1_MQTT_OK/GD32VW55X_Wifi_BLE_SDK/GD32VW55x_RELEASE_V1.0.2/MSDK/wpa_supplicant/src/ap\wpa_auth_glue.c **** 			     sizeof(*buf) + data_len);
 590              		.loc 1 739 8 is_stmt 0
 591 007e 03A58459 		lw	a0,1432(s1)
 592 0082 5A87     		mv	a4,s6
 593 0084 A286     		mv	a3,s0
 594 0086 4A86     		mv	a2,s2
 595 0088 CE85     		mv	a1,s3
 596 008a 97000000 		call	l2_packet_send
 596      E7800000 
 597              	.LVL56:
 598 0092 AA84     		mv	s1,a0
 599              	.LVL57:
 741:C:/Users/stapi/OneDrive/Desktop/GD32VW553/V1_MQTT_OK/GD32VW55X_Wifi_BLE_SDK/GD32VW55x_RELEASE_V1.0.2/MSDK/wpa_supplicant/src/ap\wpa_auth_glue.c **** 	return ret;
 600              		.loc 1 741 2 is_stmt 1
 601 0094 2285     		mv	a0,s0
 602 0096 97000000 		call	os_free
 602      E7800000 
 603              	.LVL58:
 742:C:/Users/stapi/OneDrive/Desktop/GD32VW553/V1_MQTT_OK/GD32VW55X_Wifi_BLE_SDK/GD32VW55x_RELEASE_V1.0.2/MSDK/wpa_supplicant/src/ap\wpa_auth_glue.c **** }
 604              		.loc 1 742 2
 742:C:/Users/stapi/OneDrive/Desktop/GD32VW553/V1_MQTT_OK/GD32VW55X_Wifi_BLE_SDK/GD32VW55x_RELEASE_V1.0.2/MSDK/wpa_supplicant/src/ap\wpa_auth_glue.c **** }
 605              		.loc 1 742 9 is_stmt 0
 606 009e 8DBF     		j	.L54
 607              		.cfi_endproc
 608              	.LFE195:
 610              		.section	.text.hostapd_wpa_auth_get_seqnum,"ax",@progbits
 611              		.align	1
 613              	hostapd_wpa_auth_get_seqnum:
 614              	.LFB190:
 515:C:/Users/stapi/OneDrive/Desktop/GD32VW553/V1_MQTT_OK/GD32VW55X_Wifi_BLE_SDK/GD32VW55x_RELEASE_V1.0.2/MSDK/wpa_supplicant/src/ap\wpa_auth_glue.c **** 	struct hostapd_data *hapd = ctx;
 615              		.loc 1 515 1 is_stmt 1
 616              		.cfi_startproc
 617              	.LVL59:
 516:C:/Users/stapi/OneDrive/Desktop/GD32VW553/V1_MQTT_OK/GD32VW55X_Wifi_BLE_SDK/GD32VW55x_RELEASE_V1.0.2/MSDK/wpa_supplicant/src/ap\wpa_auth_glue.c **** 	return hostapd_get_seqnum(hapd->conf->iface, hapd, addr, idx, seq);
 618              		.loc 1 516 2
 517:C:/Users/stapi/OneDrive/Desktop/GD32VW553/V1_MQTT_OK/GD32VW55X_Wifi_BLE_SDK/GD32VW55x_RELEASE_V1.0.2/MSDK/wpa_supplicant/src/ap\wpa_auth_glue.c **** }
 619              		.loc 1 517 2
 515:C:/Users/stapi/OneDrive/Desktop/GD32VW553/V1_MQTT_OK/GD32VW55X_Wifi_BLE_SDK/GD32VW55x_RELEASE_V1.0.2/MSDK/wpa_supplicant/src/ap\wpa_auth_glue.c **** 	struct hostapd_data *hapd = ctx;
 620              		.loc 1 515 1 is_stmt 0
 621 0000 3687     		mv	a4,a3
 517:C:/Users/stapi/OneDrive/Desktop/GD32VW553/V1_MQTT_OK/GD32VW55X_Wifi_BLE_SDK/GD32VW55x_RELEASE_V1.0.2/MSDK/wpa_supplicant/src/ap\wpa_auth_glue.c **** }
 622              		.loc 1 517 9
 623 0002 B286     		mv	a3,a2
 624              	.LVL60:
 625 0004 2E86     		mv	a2,a1
 626              	.LVL61:
 627 0006 AA85     		mv	a1,a0
 628              	.LVL62:
 629 0008 0845     		lw	a0,8(a0)
 630              	.LVL63:
 631 000a 17030000 		tail	hostapd_get_seqnum
 631      67000300 
 632              	.LVL64:
 633              		.cfi_endproc
 634              	.LFE190:
 636              		.section	.text.hostapd_wpa_auth_set_key,"ax",@progbits
 637              		.align	1
 639              	hostapd_wpa_auth_set_key:
 640              	.LFB189:
 453:C:/Users/stapi/OneDrive/Desktop/GD32VW553/V1_MQTT_OK/GD32VW55X_Wifi_BLE_SDK/GD32VW55x_RELEASE_V1.0.2/MSDK/wpa_supplicant/src/ap\wpa_auth_glue.c **** 	struct hostapd_data *hapd = ctx;
 641              		.loc 1 453 1 is_stmt 1
 642              		.cfi_startproc
 643              	.LVL65:
 644 0000 17030000 		call	t0,__riscv_save_5
 644      E7020300 
 645              		.cfi_offset 20, -24
 646              		.cfi_offset 19, -20
 647              		.cfi_offset 18, -16
 648              		.cfi_offset 9, -12
 649              		.cfi_offset 8, -8
 650              		.cfi_offset 1, -4
 651              		.cfi_def_cfa_offset 32
 454:C:/Users/stapi/OneDrive/Desktop/GD32VW553/V1_MQTT_OK/GD32VW55X_Wifi_BLE_SDK/GD32VW55x_RELEASE_V1.0.2/MSDK/wpa_supplicant/src/ap\wpa_auth_glue.c **** 	const char *ifname = hapd->conf->iface;
 652              		.loc 1 454 2
 653              	.LVL66:
 455:C:/Users/stapi/OneDrive/Desktop/GD32VW553/V1_MQTT_OK/GD32VW55X_Wifi_BLE_SDK/GD32VW55x_RELEASE_V1.0.2/MSDK/wpa_supplicant/src/ap\wpa_auth_glue.c **** 
 654              		.loc 1 455 2
 453:C:/Users/stapi/OneDrive/Desktop/GD32VW553/V1_MQTT_OK/GD32VW55X_Wifi_BLE_SDK/GD32VW55x_RELEASE_V1.0.2/MSDK/wpa_supplicant/src/ap\wpa_auth_glue.c **** 	struct hostapd_data *hapd = ctx;
 655              		.loc 1 453 1 is_stmt 0
 656 0008 2A84     		mv	s0,a0
 657 000a 0111     		addi	sp,sp,-32
 658              		.cfi_def_cfa_offset 64
 455:C:/Users/stapi/OneDrive/Desktop/GD32VW553/V1_MQTT_OK/GD32VW55X_Wifi_BLE_SDK/GD32VW55x_RELEASE_V1.0.2/MSDK/wpa_supplicant/src/ap\wpa_auth_glue.c **** 
 659              		.loc 1 455 27
 660 000c 0845     		lw	a0,8(a0)
 661              	.LVL67:
 457:C:/Users/stapi/OneDrive/Desktop/GD32VW553/V1_MQTT_OK/GD32VW55X_Wifi_BLE_SDK/GD32VW55x_RELEASE_V1.0.2/MSDK/wpa_supplicant/src/ap\wpa_auth_glue.c **** 		ifname = hostapd_get_vlan_id_ifname(hapd->conf->vlan, vlan_id);
 662              		.loc 1 457 2 is_stmt 1
 453:C:/Users/stapi/OneDrive/Desktop/GD32VW553/V1_MQTT_OK/GD32VW55X_Wifi_BLE_SDK/GD32VW55x_RELEASE_V1.0.2/MSDK/wpa_supplicant/src/ap\wpa_auth_glue.c **** 	struct hostapd_data *hapd = ctx;
 663              		.loc 1 453 1 is_stmt 0
 664 000e AE84     		mv	s1,a1
 665 0010 3E89     		mv	s2,a5
 666 0012 C289     		mv	s3,a6
 667 0014 468A     		mv	s4,a7
 457:C:/Users/stapi/OneDrive/Desktop/GD32VW553/V1_MQTT_OK/GD32VW55X_Wifi_BLE_SDK/GD32VW55x_RELEASE_V1.0.2/MSDK/wpa_supplicant/src/ap\wpa_auth_glue.c **** 		ifname = hostapd_get_vlan_id_ifname(hapd->conf->vlan, vlan_id);
 668              		.loc 1 457 5
 669 0016 6358B002 		ble	a1,zero,.L66
 458:C:/Users/stapi/OneDrive/Desktop/GD32VW553/V1_MQTT_OK/GD32VW55X_Wifi_BLE_SDK/GD32VW55x_RELEASE_V1.0.2/MSDK/wpa_supplicant/src/ap\wpa_auth_glue.c **** 		if (!ifname) {
 670              		.loc 1 458 12
 671 001a 03258526 		lw	a0,616(a0)
 672              	.LVL68:
 673 001e 3ACE     		sw	a4,28(sp)
 674 0020 36CC     		sw	a3,24(sp)
 675 0022 32CA     		sw	a2,20(sp)
 458:C:/Users/stapi/OneDrive/Desktop/GD32VW553/V1_MQTT_OK/GD32VW55X_Wifi_BLE_SDK/GD32VW55x_RELEASE_V1.0.2/MSDK/wpa_supplicant/src/ap\wpa_auth_glue.c **** 		if (!ifname) {
 676              		.loc 1 458 3 is_stmt 1
 458:C:/Users/stapi/OneDrive/Desktop/GD32VW553/V1_MQTT_OK/GD32VW55X_Wifi_BLE_SDK/GD32VW55x_RELEASE_V1.0.2/MSDK/wpa_supplicant/src/ap\wpa_auth_glue.c **** 		if (!ifname) {
 677              		.loc 1 458 12 is_stmt 0
 678 0024 97000000 		call	hostapd_get_vlan_id_ifname
 678      E7800000 
 679              	.LVL69:
 459:C:/Users/stapi/OneDrive/Desktop/GD32VW553/V1_MQTT_OK/GD32VW55X_Wifi_BLE_SDK/GD32VW55x_RELEASE_V1.0.2/MSDK/wpa_supplicant/src/ap\wpa_auth_glue.c **** 			if (!(hapd->iface->drv_flags &
 680              		.loc 1 459 3 is_stmt 1
 459:C:/Users/stapi/OneDrive/Desktop/GD32VW553/V1_MQTT_OK/GD32VW55X_Wifi_BLE_SDK/GD32VW55x_RELEASE_V1.0.2/MSDK/wpa_supplicant/src/ap\wpa_auth_glue.c **** 			if (!(hapd->iface->drv_flags &
 681              		.loc 1 459 6 is_stmt 0
 682 002c 5246     		lw	a2,20(sp)
 683 002e E246     		lw	a3,24(sp)
 684 0030 7247     		lw	a4,28(sp)
 685 0032 11E9     		bne	a0,zero,.L66
 460:C:/Users/stapi/OneDrive/Desktop/GD32VW553/V1_MQTT_OK/GD32VW55X_Wifi_BLE_SDK/GD32VW55x_RELEASE_V1.0.2/MSDK/wpa_supplicant/src/ap\wpa_auth_glue.c **** 			      WPA_DRIVER_FLAGS_VLAN_OFFLOAD))
 686              		.loc 1 460 4 is_stmt 1
 460:C:/Users/stapi/OneDrive/Desktop/GD32VW553/V1_MQTT_OK/GD32VW55X_Wifi_BLE_SDK/GD32VW55x_RELEASE_V1.0.2/MSDK/wpa_supplicant/src/ap\wpa_auth_glue.c **** 			      WPA_DRIVER_FLAGS_VLAN_OFFLOAD))
 687              		.loc 1 460 21 is_stmt 0
 688 0034 1C40     		lw	a5,0(s0)
 460:C:/Users/stapi/OneDrive/Desktop/GD32VW553/V1_MQTT_OK/GD32VW55X_Wifi_BLE_SDK/GD32VW55x_RELEASE_V1.0.2/MSDK/wpa_supplicant/src/ap\wpa_auth_glue.c **** 			      WPA_DRIVER_FLAGS_VLAN_OFFLOAD))
 689              		.loc 1 460 33
 690 0036 B7050008 		li	a1,134217728
 462:C:/Users/stapi/OneDrive/Desktop/GD32VW553/V1_MQTT_OK/GD32VW55X_Wifi_BLE_SDK/GD32VW55x_RELEASE_V1.0.2/MSDK/wpa_supplicant/src/ap\wpa_auth_glue.c **** 			ifname = hapd->conf->iface;
 691              		.loc 1 462 12
 692 003a 7D55     		li	a0,-1
 693              	.LVL70:
 460:C:/Users/stapi/OneDrive/Desktop/GD32VW553/V1_MQTT_OK/GD32VW55X_Wifi_BLE_SDK/GD32VW55x_RELEASE_V1.0.2/MSDK/wpa_supplicant/src/ap\wpa_auth_glue.c **** 			      WPA_DRIVER_FLAGS_VLAN_OFFLOAD))
 694              		.loc 1 460 33
 695 003c 83A7C743 		lw	a5,1084(a5)
 696 0040 ED8F     		and	a5,a5,a1
 460:C:/Users/stapi/OneDrive/Desktop/GD32VW553/V1_MQTT_OK/GD32VW55X_Wifi_BLE_SDK/GD32VW55x_RELEASE_V1.0.2/MSDK/wpa_supplicant/src/ap\wpa_auth_glue.c **** 			      WPA_DRIVER_FLAGS_VLAN_OFFLOAD))
 697              		.loc 1 460 7
 698 0042 91CF     		beq	a5,zero,.L64
 463:C:/Users/stapi/OneDrive/Desktop/GD32VW553/V1_MQTT_OK/GD32VW55X_Wifi_BLE_SDK/GD32VW55x_RELEASE_V1.0.2/MSDK/wpa_supplicant/src/ap\wpa_auth_glue.c **** 		}
 699              		.loc 1 463 4 is_stmt 1
 463:C:/Users/stapi/OneDrive/Desktop/GD32VW553/V1_MQTT_OK/GD32VW55X_Wifi_BLE_SDK/GD32VW55x_RELEASE_V1.0.2/MSDK/wpa_supplicant/src/ap\wpa_auth_glue.c **** 		}
 700              		.loc 1 463 11 is_stmt 0
 701 0044 0844     		lw	a0,8(s0)
 702              	.LVL71:
 703              	.L66:
 508:C:/Users/stapi/OneDrive/Desktop/GD32VW553/V1_MQTT_OK/GD32VW55X_Wifi_BLE_SDK/GD32VW55x_RELEASE_V1.0.2/MSDK/wpa_supplicant/src/ap\wpa_auth_glue.c **** 				   NULL, 0, key, key_len, key_flag);
 704              		.loc 1 508 2 is_stmt 1
 508:C:/Users/stapi/OneDrive/Desktop/GD32VW553/V1_MQTT_OK/GD32VW55X_Wifi_BLE_SDK/GD32VW55x_RELEASE_V1.0.2/MSDK/wpa_supplicant/src/ap\wpa_auth_glue.c **** 				   NULL, 0, key, key_len, key_flag);
 705              		.loc 1 508 9 is_stmt 0
 706 0046 52C6     		sw	s4,12(sp)
 707 0048 4EC4     		sw	s3,8(sp)
 708 004a 4AC2     		sw	s2,4(sp)
 709 004c 02C0     		sw	zero,0(sp)
 710 004e 8148     		li	a7,0
 711 0050 0548     		li	a6,1
 712 0052 A687     		mv	a5,s1
 713 0054 A285     		mv	a1,s0
 714 0056 97000000 		call	hostapd_drv_set_key
 714      E7800000 
 715              	.LVL72:
 716              	.L64:
 510:C:/Users/stapi/OneDrive/Desktop/GD32VW553/V1_MQTT_OK/GD32VW55X_Wifi_BLE_SDK/GD32VW55x_RELEASE_V1.0.2/MSDK/wpa_supplicant/src/ap\wpa_auth_glue.c **** 
 717              		.loc 1 510 1
 718 005e 0561     		addi	sp,sp,32
 719              		.cfi_def_cfa_offset 0
 720 0060 17030000 		tail	__riscv_restore_5
 720      67000300 
 721              		.cfi_restore 20
 722              		.cfi_restore 19
 723              		.cfi_restore 18
 724              		.cfi_restore 9
 725              		.cfi_restore 8
 726              		.cfi_restore 1
 727              		.cfi_def_cfa_offset -32
 728              		.cfi_endproc
 729              	.LFE189:
 731              		.section	.rodata.hostapd_wpa_auth_get_psk.str1.4,"aMS",@progbits,1
 732              		.align	2
 733              	.LC1:
 734 0000 4E6F2050 		.string	"No PSK for STA trying to use SAE with PMKSA caching"
 734      534B2066 
 734      6F722053 
 734      54412074 
 734      7279696E 
 735              		.section	.text.hostapd_wpa_auth_get_psk,"ax",@progbits
 736              		.align	1
 738              	hostapd_wpa_auth_get_psk:
 739              	.LFB187:
 347:C:/Users/stapi/OneDrive/Desktop/GD32VW553/V1_MQTT_OK/GD32VW55X_Wifi_BLE_SDK/GD32VW55x_RELEASE_V1.0.2/MSDK/wpa_supplicant/src/ap\wpa_auth_glue.c **** 	struct hostapd_data *hapd = ctx;
 740              		.loc 1 347 1 is_stmt 1
 741              		.cfi_startproc
 742              	.LVL73:
 743 0000 17030000 		call	t0,__riscv_save_7
 743      E7020300 
 744              		.cfi_offset 22, -32
 745              		.cfi_offset 21, -28
 746              		.cfi_offset 20, -24
 747              		.cfi_offset 19, -20
 748              		.cfi_offset 18, -16
 749              		.cfi_offset 9, -12
 750              		.cfi_offset 8, -8
 751              		.cfi_offset 1, -4
 752              		.cfi_def_cfa_offset 32
 348:C:/Users/stapi/OneDrive/Desktop/GD32VW553/V1_MQTT_OK/GD32VW55X_Wifi_BLE_SDK/GD32VW55x_RELEASE_V1.0.2/MSDK/wpa_supplicant/src/ap\wpa_auth_glue.c **** 	struct sta_info *sta = ap_get_sta(hapd, addr);
 753              		.loc 1 348 2
 347:C:/Users/stapi/OneDrive/Desktop/GD32VW553/V1_MQTT_OK/GD32VW55X_Wifi_BLE_SDK/GD32VW55x_RELEASE_V1.0.2/MSDK/wpa_supplicant/src/ap\wpa_auth_glue.c **** 	struct hostapd_data *hapd = ctx;
 754              		.loc 1 347 1 is_stmt 0
 755 0008 AA89     		mv	s3,a0
 756              	.LVL74:
 349:C:/Users/stapi/OneDrive/Desktop/GD32VW553/V1_MQTT_OK/GD32VW55X_Wifi_BLE_SDK/GD32VW55x_RELEASE_V1.0.2/MSDK/wpa_supplicant/src/ap\wpa_auth_glue.c **** 	const u8 *psk;
 757              		.loc 1 349 2 is_stmt 1
 347:C:/Users/stapi/OneDrive/Desktop/GD32VW553/V1_MQTT_OK/GD32VW55X_Wifi_BLE_SDK/GD32VW55x_RELEASE_V1.0.2/MSDK/wpa_supplicant/src/ap\wpa_auth_glue.c **** 	struct hostapd_data *hapd = ctx;
 758              		.loc 1 347 1 is_stmt 0
 759 000a AE8A     		mv	s5,a1
 760 000c 328B     		mv	s6,a2
 761 000e 3689     		mv	s2,a3
 762 0010 3A8A     		mv	s4,a4
 763 0012 BE84     		mv	s1,a5
 349:C:/Users/stapi/OneDrive/Desktop/GD32VW553/V1_MQTT_OK/GD32VW55X_Wifi_BLE_SDK/GD32VW55x_RELEASE_V1.0.2/MSDK/wpa_supplicant/src/ap\wpa_auth_glue.c **** 	const u8 *psk;
 764              		.loc 1 349 25
 765 0014 97000000 		call	ap_get_sta
 765      E7800000 
 766              	.LVL75:
 767 001c 2A84     		mv	s0,a0
 768              	.LVL76:
 350:C:/Users/stapi/OneDrive/Desktop/GD32VW553/V1_MQTT_OK/GD32VW55X_Wifi_BLE_SDK/GD32VW55x_RELEASE_V1.0.2/MSDK/wpa_supplicant/src/ap\wpa_auth_glue.c **** 
 769              		.loc 1 350 2 is_stmt 1
 352:C:/Users/stapi/OneDrive/Desktop/GD32VW553/V1_MQTT_OK/GD32VW55X_Wifi_BLE_SDK/GD32VW55x_RELEASE_V1.0.2/MSDK/wpa_supplicant/src/ap\wpa_auth_glue.c **** 		*vlan_id = 0;
 770              		.loc 1 352 2
 352:C:/Users/stapi/OneDrive/Desktop/GD32VW553/V1_MQTT_OK/GD32VW55X_Wifi_BLE_SDK/GD32VW55x_RELEASE_V1.0.2/MSDK/wpa_supplicant/src/ap\wpa_auth_glue.c **** 		*vlan_id = 0;
 771              		.loc 1 352 5 is_stmt 0
 772 001e 99C0     		beq	s1,zero,.L72
 353:C:/Users/stapi/OneDrive/Desktop/GD32VW553/V1_MQTT_OK/GD32VW55X_Wifi_BLE_SDK/GD32VW55x_RELEASE_V1.0.2/MSDK/wpa_supplicant/src/ap\wpa_auth_glue.c **** 	if (psk_len)
 773              		.loc 1 353 3 is_stmt 1
 353:C:/Users/stapi/OneDrive/Desktop/GD32VW553/V1_MQTT_OK/GD32VW55X_Wifi_BLE_SDK/GD32VW55x_RELEASE_V1.0.2/MSDK/wpa_supplicant/src/ap\wpa_auth_glue.c **** 	if (psk_len)
 774              		.loc 1 353 12 is_stmt 0
 775 0020 23A00400 		sw	zero,0(s1)
 776              	.L72:
 354:C:/Users/stapi/OneDrive/Desktop/GD32VW553/V1_MQTT_OK/GD32VW55X_Wifi_BLE_SDK/GD32VW55x_RELEASE_V1.0.2/MSDK/wpa_supplicant/src/ap\wpa_auth_glue.c **** 		*psk_len = PMK_LEN;
 777              		.loc 1 354 2 is_stmt 1
 354:C:/Users/stapi/OneDrive/Desktop/GD32VW553/V1_MQTT_OK/GD32VW55X_Wifi_BLE_SDK/GD32VW55x_RELEASE_V1.0.2/MSDK/wpa_supplicant/src/ap\wpa_auth_glue.c **** 		*psk_len = PMK_LEN;
 778              		.loc 1 354 5 is_stmt 0
 779 0024 63060A00 		beq	s4,zero,.L73
 355:C:/Users/stapi/OneDrive/Desktop/GD32VW553/V1_MQTT_OK/GD32VW55X_Wifi_BLE_SDK/GD32VW55x_RELEASE_V1.0.2/MSDK/wpa_supplicant/src/ap\wpa_auth_glue.c **** 
 780              		.loc 1 355 3 is_stmt 1
 355:C:/Users/stapi/OneDrive/Desktop/GD32VW553/V1_MQTT_OK/GD32VW55X_Wifi_BLE_SDK/GD32VW55x_RELEASE_V1.0.2/MSDK/wpa_supplicant/src/ap\wpa_auth_glue.c **** 
 781              		.loc 1 355 12 is_stmt 0
 782 0028 93070002 		li	a5,32
 783 002c 2320FA00 		sw	a5,0(s4)
 784              	.L73:
 358:C:/Users/stapi/OneDrive/Desktop/GD32VW553/V1_MQTT_OK/GD32VW55X_Wifi_BLE_SDK/GD32VW55x_RELEASE_V1.0.2/MSDK/wpa_supplicant/src/ap\wpa_auth_glue.c **** 		if (!sta->sae || prev_psk)
 785              		.loc 1 358 2 is_stmt 1
 358:C:/Users/stapi/OneDrive/Desktop/GD32VW553/V1_MQTT_OK/GD32VW55X_Wifi_BLE_SDK/GD32VW55x_RELEASE_V1.0.2/MSDK/wpa_supplicant/src/ap\wpa_auth_glue.c **** 		if (!sta->sae || prev_psk)
 786              		.loc 1 358 5 is_stmt 0
 787 0030 39C0     		beq	s0,zero,.L74
 358:C:/Users/stapi/OneDrive/Desktop/GD32VW553/V1_MQTT_OK/GD32VW55X_Wifi_BLE_SDK/GD32VW55x_RELEASE_V1.0.2/MSDK/wpa_supplicant/src/ap\wpa_auth_glue.c **** 		if (!sta->sae || prev_psk)
 788              		.loc 1 358 10 discriminator 1
 789 0032 03570405 		lhu	a4,80(s0)
 790 0036 8D47     		li	a5,3
 791 0038 631EF700 		bne	a4,a5,.L75
 359:C:/Users/stapi/OneDrive/Desktop/GD32VW553/V1_MQTT_OK/GD32VW55X_Wifi_BLE_SDK/GD32VW55x_RELEASE_V1.0.2/MSDK/wpa_supplicant/src/ap\wpa_auth_glue.c **** 			return NULL;
 792              		.loc 1 359 3 is_stmt 1
 359:C:/Users/stapi/OneDrive/Desktop/GD32VW553/V1_MQTT_OK/GD32VW55X_Wifi_BLE_SDK/GD32VW55x_RELEASE_V1.0.2/MSDK/wpa_supplicant/src/ap\wpa_auth_glue.c **** 			return NULL;
 793              		.loc 1 359 11 is_stmt 0
 794 003c 0325C411 		lw	a0,284(s0)
 359:C:/Users/stapi/OneDrive/Desktop/GD32VW553/V1_MQTT_OK/GD32VW55X_Wifi_BLE_SDK/GD32VW55x_RELEASE_V1.0.2/MSDK/wpa_supplicant/src/ap\wpa_auth_glue.c **** 			return NULL;
 795              		.loc 1 359 6
 796 0040 19E1     		bne	a0,zero,.L76
 797              	.LVL77:
 798              	.L112:
 366:C:/Users/stapi/OneDrive/Desktop/GD32VW553/V1_MQTT_OK/GD32VW55X_Wifi_BLE_SDK/GD32VW55x_RELEASE_V1.0.2/MSDK/wpa_supplicant/src/ap\wpa_auth_glue.c **** 	}
 799              		.loc 1 366 3 is_stmt 1
 366:C:/Users/stapi/OneDrive/Desktop/GD32VW553/V1_MQTT_OK/GD32VW55X_Wifi_BLE_SDK/GD32VW55x_RELEASE_V1.0.2/MSDK/wpa_supplicant/src/ap\wpa_auth_glue.c **** 	}
 800              		.loc 1 366 10 is_stmt 0
 801 0042 0145     		li	a0,0
 802 0044 21A0     		j	.L71
 803              	.LVL78:
 804              	.L76:
 361:C:/Users/stapi/OneDrive/Desktop/GD32VW553/V1_MQTT_OK/GD32VW55X_Wifi_BLE_SDK/GD32VW55x_RELEASE_V1.0.2/MSDK/wpa_supplicant/src/ap\wpa_auth_glue.c **** 	}
 805              		.loc 1 361 10 discriminator 1
 806 0046 1905     		addi	a0,a0,6
 359:C:/Users/stapi/OneDrive/Desktop/GD32VW553/V1_MQTT_OK/GD32VW55X_Wifi_BLE_SDK/GD32VW55x_RELEASE_V1.0.2/MSDK/wpa_supplicant/src/ap\wpa_auth_glue.c **** 			return NULL;
 807              		.loc 1 359 17 discriminator 1
 808 0048 E31D09FE 		bne	s2,zero,.L112
 809              	.LVL79:
 810              	.L71:
 417:C:/Users/stapi/OneDrive/Desktop/GD32VW553/V1_MQTT_OK/GD32VW55X_Wifi_BLE_SDK/GD32VW55x_RELEASE_V1.0.2/MSDK/wpa_supplicant/src/ap\wpa_auth_glue.c **** 
 811              		.loc 1 417 1
 812 004c 17030000 		tail	__riscv_restore_7
 812      67000300 
 813              		.cfi_remember_state
 814              		.cfi_restore 22
 815              		.cfi_restore 21
 816              		.cfi_restore 20
 817              		.cfi_restore 19
 818              		.cfi_restore 18
 819              		.cfi_restore 9
 820              		.cfi_restore 8
 821              		.cfi_restore 1
 822              		.cfi_def_cfa_offset 0
 823              	.LVL80:
 824              	.L75:
 825              		.cfi_restore_state
 363:C:/Users/stapi/OneDrive/Desktop/GD32VW553/V1_MQTT_OK/GD32VW55X_Wifi_BLE_SDK/GD32VW55x_RELEASE_V1.0.2/MSDK/wpa_supplicant/src/ap\wpa_auth_glue.c **** 		wpa_printf(MSG_DEBUG,
 826              		.loc 1 363 2 is_stmt 1 discriminator 1
 363:C:/Users/stapi/OneDrive/Desktop/GD32VW553/V1_MQTT_OK/GD32VW55X_Wifi_BLE_SDK/GD32VW55x_RELEASE_V1.0.2/MSDK/wpa_supplicant/src/ap\wpa_auth_glue.c **** 		wpa_printf(MSG_DEBUG,
 827              		.loc 1 363 13 is_stmt 0 discriminator 1
 828 0054 0325C409 		lw	a0,156(s0)
 829 0058 97000000 		call	wpa_auth_uses_sae
 829      E7800000 
 830              	.LVL81:
 363:C:/Users/stapi/OneDrive/Desktop/GD32VW553/V1_MQTT_OK/GD32VW55X_Wifi_BLE_SDK/GD32VW55x_RELEASE_V1.0.2/MSDK/wpa_supplicant/src/ap\wpa_auth_glue.c **** 		wpa_printf(MSG_DEBUG,
 831              		.loc 1 363 10 discriminator 1
 832 0060 19C9     		beq	a0,zero,.L74
 364:C:/Users/stapi/OneDrive/Desktop/GD32VW553/V1_MQTT_OK/GD32VW55X_Wifi_BLE_SDK/GD32VW55x_RELEASE_V1.0.2/MSDK/wpa_supplicant/src/ap\wpa_auth_glue.c **** 			   "No PSK for STA trying to use SAE with PMKSA caching");
 833              		.loc 1 364 3 is_stmt 1
 834 0062 B7050000 		lui	a1,%hi(.LC1)
 835 0066 93850500 		addi	a1,a1,%lo(.LC1)
 836 006a 0945     		li	a0,2
 837 006c 97000000 		call	wpa_printf
 837      E7800000 
 838              	.LVL82:
 839 0074 F9B7     		j	.L112
 840              	.L74:
 389:C:/Users/stapi/OneDrive/Desktop/GD32VW553/V1_MQTT_OK/GD32VW55X_Wifi_BLE_SDK/GD32VW55x_RELEASE_V1.0.2/MSDK/wpa_supplicant/src/ap\wpa_auth_glue.c **** 			      vlan_id);
 841              		.loc 1 389 2
 389:C:/Users/stapi/OneDrive/Desktop/GD32VW553/V1_MQTT_OK/GD32VW55X_Wifi_BLE_SDK/GD32VW55x_RELEASE_V1.0.2/MSDK/wpa_supplicant/src/ap\wpa_auth_glue.c **** 			      vlan_id);
 842              		.loc 1 389 8 is_stmt 0
 843 0076 03A58900 		lw	a0,8(s3)
 844 007a 2687     		mv	a4,s1
 845 007c CA86     		mv	a3,s2
 846 007e 5A86     		mv	a2,s6
 847 0080 D685     		mv	a1,s5
 848 0082 97000000 		call	hostapd_get_psk
 848      E7800000 
 849              	.LVL83:
 396:C:/Users/stapi/OneDrive/Desktop/GD32VW553/V1_MQTT_OK/GD32VW55X_Wifi_BLE_SDK/GD32VW55x_RELEASE_V1.0.2/MSDK/wpa_supplicant/src/ap\wpa_auth_glue.c **** 		struct hostapd_sta_wpa_psk_short *pos;
 850              		.loc 1 396 2 is_stmt 1
 396:C:/Users/stapi/OneDrive/Desktop/GD32VW553/V1_MQTT_OK/GD32VW55X_Wifi_BLE_SDK/GD32VW55x_RELEASE_V1.0.2/MSDK/wpa_supplicant/src/ap\wpa_auth_glue.c **** 		struct hostapd_sta_wpa_psk_short *pos;
 851              		.loc 1 396 5 is_stmt 0
 852 008a 69D0     		beq	s0,zero,.L71
 396:C:/Users/stapi/OneDrive/Desktop/GD32VW553/V1_MQTT_OK/GD32VW55X_Wifi_BLE_SDK/GD32VW55x_RELEASE_V1.0.2/MSDK/wpa_supplicant/src/ap\wpa_auth_glue.c **** 		struct hostapd_sta_wpa_psk_short *pos;
 853              		.loc 1 396 16 discriminator 1
 854 008c 032A040B 		lw	s4,176(s0)
 855              	.LVL84:
 396:C:/Users/stapi/OneDrive/Desktop/GD32VW553/V1_MQTT_OK/GD32VW55X_Wifi_BLE_SDK/GD32VW55x_RELEASE_V1.0.2/MSDK/wpa_supplicant/src/ap\wpa_auth_glue.c **** 		struct hostapd_sta_wpa_psk_short *pos;
 856              		.loc 1 396 10 discriminator 1
 857 0090 E30E0AFA 		beq	s4,zero,.L71
 396:C:/Users/stapi/OneDrive/Desktop/GD32VW553/V1_MQTT_OK/GD32VW55X_Wifi_BLE_SDK/GD32VW55x_RELEASE_V1.0.2/MSDK/wpa_supplicant/src/ap\wpa_auth_glue.c **** 		struct hostapd_sta_wpa_psk_short *pos;
 858              		.loc 1 396 22 discriminator 2
 859 0094 45FD     		bne	a0,zero,.L71
 860              	.LBB20:
 397:C:/Users/stapi/OneDrive/Desktop/GD32VW553/V1_MQTT_OK/GD32VW55X_Wifi_BLE_SDK/GD32VW55x_RELEASE_V1.0.2/MSDK/wpa_supplicant/src/ap\wpa_auth_glue.c **** 
 861              		.loc 1 397 3 is_stmt 1
 399:C:/Users/stapi/OneDrive/Desktop/GD32VW553/V1_MQTT_OK/GD32VW55X_Wifi_BLE_SDK/GD32VW55x_RELEASE_V1.0.2/MSDK/wpa_supplicant/src/ap\wpa_auth_glue.c **** 			*vlan_id = 0;
 862              		.loc 1 399 3
 399:C:/Users/stapi/OneDrive/Desktop/GD32VW553/V1_MQTT_OK/GD32VW55X_Wifi_BLE_SDK/GD32VW55x_RELEASE_V1.0.2/MSDK/wpa_supplicant/src/ap\wpa_auth_glue.c **** 			*vlan_id = 0;
 863              		.loc 1 399 6 is_stmt 0
 864 0096 99C0     		beq	s1,zero,.L79
 400:C:/Users/stapi/OneDrive/Desktop/GD32VW553/V1_MQTT_OK/GD32VW55X_Wifi_BLE_SDK/GD32VW55x_RELEASE_V1.0.2/MSDK/wpa_supplicant/src/ap\wpa_auth_glue.c **** 		psk = sta->psk->psk;
 865              		.loc 1 400 4 is_stmt 1
 400:C:/Users/stapi/OneDrive/Desktop/GD32VW553/V1_MQTT_OK/GD32VW55X_Wifi_BLE_SDK/GD32VW55x_RELEASE_V1.0.2/MSDK/wpa_supplicant/src/ap\wpa_auth_glue.c **** 		psk = sta->psk->psk;
 866              		.loc 1 400 13 is_stmt 0
 867 0098 23A00400 		sw	zero,0(s1)
 868              	.L79:
 401:C:/Users/stapi/OneDrive/Desktop/GD32VW553/V1_MQTT_OK/GD32VW55X_Wifi_BLE_SDK/GD32VW55x_RELEASE_V1.0.2/MSDK/wpa_supplicant/src/ap\wpa_auth_glue.c **** 		for (pos = sta->psk; pos; pos = pos->next) {
 869              		.loc 1 401 3 is_stmt 1
 870              	.LVL85:
 402:C:/Users/stapi/OneDrive/Desktop/GD32VW553/V1_MQTT_OK/GD32VW55X_Wifi_BLE_SDK/GD32VW55x_RELEASE_V1.0.2/MSDK/wpa_supplicant/src/ap\wpa_auth_glue.c **** 			if (pos->is_passphrase) {
 871              		.loc 1 402 3
 402:C:/Users/stapi/OneDrive/Desktop/GD32VW553/V1_MQTT_OK/GD32VW55X_Wifi_BLE_SDK/GD32VW55x_RELEASE_V1.0.2/MSDK/wpa_supplicant/src/ap\wpa_auth_glue.c **** 			if (pos->is_passphrase) {
 872              		.loc 1 402 24
 873              	.LBE20:
 347:C:/Users/stapi/OneDrive/Desktop/GD32VW553/V1_MQTT_OK/GD32VW55X_Wifi_BLE_SDK/GD32VW55x_RELEASE_V1.0.2/MSDK/wpa_supplicant/src/ap\wpa_auth_glue.c **** 	struct hostapd_data *hapd = ctx;
 874              		.loc 1 347 1 is_stmt 0
 875 009c 5284     		mv	s0,s4
 876              	.LVL86:
 877              	.L82:
 878              	.LBB21:
 403:C:/Users/stapi/OneDrive/Desktop/GD32VW553/V1_MQTT_OK/GD32VW55X_Wifi_BLE_SDK/GD32VW55x_RELEASE_V1.0.2/MSDK/wpa_supplicant/src/ap\wpa_auth_glue.c **** 				pbkdf2_sha1(pos->passphrase,
 879              		.loc 1 403 4 is_stmt 1
 403:C:/Users/stapi/OneDrive/Desktop/GD32VW553/V1_MQTT_OK/GD32VW55X_Wifi_BLE_SDK/GD32VW55x_RELEASE_V1.0.2/MSDK/wpa_supplicant/src/ap\wpa_auth_glue.c **** 				pbkdf2_sha1(pos->passphrase,
 880              		.loc 1 403 8 is_stmt 0
 881 009e 83474400 		lbu	a5,4(s0)
 407:C:/Users/stapi/OneDrive/Desktop/GD32VW553/V1_MQTT_OK/GD32VW55X_Wifi_BLE_SDK/GD32VW55x_RELEASE_V1.0.2/MSDK/wpa_supplicant/src/ap\wpa_auth_glue.c **** 				pos->is_passphrase = 0;
 882              		.loc 1 407 13
 883 00a2 93045400 		addi	s1,s0,5
 403:C:/Users/stapi/OneDrive/Desktop/GD32VW553/V1_MQTT_OK/GD32VW55X_Wifi_BLE_SDK/GD32VW55x_RELEASE_V1.0.2/MSDK/wpa_supplicant/src/ap\wpa_auth_glue.c **** 				pbkdf2_sha1(pos->passphrase,
 884              		.loc 1 403 7
 885 00a6 858B     		andi	a5,a5,1
 886 00a8 95C7     		beq	a5,zero,.L80
 404:C:/Users/stapi/OneDrive/Desktop/GD32VW553/V1_MQTT_OK/GD32VW55X_Wifi_BLE_SDK/GD32VW55x_RELEASE_V1.0.2/MSDK/wpa_supplicant/src/ap\wpa_auth_glue.c **** 					    hapd->conf->ssid.ssid,
 887              		.loc 1 404 5 is_stmt 1
 405:C:/Users/stapi/OneDrive/Desktop/GD32VW553/V1_MQTT_OK/GD32VW55X_Wifi_BLE_SDK/GD32VW55x_RELEASE_V1.0.2/MSDK/wpa_supplicant/src/ap\wpa_auth_glue.c **** 					    hapd->conf->ssid.ssid_len, 4096,
 888              		.loc 1 405 14 is_stmt 0
 889 00aa 83A58900 		lw	a1,8(s3)
 404:C:/Users/stapi/OneDrive/Desktop/GD32VW553/V1_MQTT_OK/GD32VW55X_Wifi_BLE_SDK/GD32VW55x_RELEASE_V1.0.2/MSDK/wpa_supplicant/src/ap\wpa_auth_glue.c **** 					    hapd->conf->ssid.ssid,
 890              		.loc 1 404 5
 891 00ae 93070002 		li	a5,32
 892 00b2 2687     		mv	a4,s1
 893 00b4 03A6850D 		lw	a2,216(a1)
 894 00b8 8566     		li	a3,4096
 895 00ba 9385850B 		addi	a1,a1,184
 896 00be 13055402 		addi	a0,s0,37
 897 00c2 97000000 		call	pbkdf2_sha1
 897      E7800000 
 898              	.LVL87:
 408:C:/Users/stapi/OneDrive/Desktop/GD32VW553/V1_MQTT_OK/GD32VW55X_Wifi_BLE_SDK/GD32VW55x_RELEASE_V1.0.2/MSDK/wpa_supplicant/src/ap\wpa_auth_glue.c **** 			}
 899              		.loc 1 408 5 is_stmt 1
 408:C:/Users/stapi/OneDrive/Desktop/GD32VW553/V1_MQTT_OK/GD32VW55X_Wifi_BLE_SDK/GD32VW55x_RELEASE_V1.0.2/MSDK/wpa_supplicant/src/ap\wpa_auth_glue.c **** 			}
 900              		.loc 1 408 24 is_stmt 0
 901 00ca 83474400 		lbu	a5,4(s0)
 902 00ce F99B     		andi	a5,a5,-2
 903 00d0 2302F400 		sb	a5,4(s0)
 904              	.L80:
 410:C:/Users/stapi/OneDrive/Desktop/GD32VW553/V1_MQTT_OK/GD32VW55X_Wifi_BLE_SDK/GD32VW55x_RELEASE_V1.0.2/MSDK/wpa_supplicant/src/ap\wpa_auth_glue.c **** 				psk = pos->next ? pos->next->psk : NULL;
 905              		.loc 1 410 4 is_stmt 1
 411:C:/Users/stapi/OneDrive/Desktop/GD32VW553/V1_MQTT_OK/GD32VW55X_Wifi_BLE_SDK/GD32VW55x_RELEASE_V1.0.2/MSDK/wpa_supplicant/src/ap\wpa_auth_glue.c **** 				break;
 906              		.loc 1 411 14 is_stmt 0
 907 00d4 0040     		lw	s0,0(s0)
 908              	.LVL88:
 410:C:/Users/stapi/OneDrive/Desktop/GD32VW553/V1_MQTT_OK/GD32VW55X_Wifi_BLE_SDK/GD32VW55x_RELEASE_V1.0.2/MSDK/wpa_supplicant/src/ap\wpa_auth_glue.c **** 				psk = pos->next ? pos->next->psk : NULL;
 909              		.loc 1 410 7
 910 00d6 63169900 		bne	s2,s1,.L81
 411:C:/Users/stapi/OneDrive/Desktop/GD32VW553/V1_MQTT_OK/GD32VW55X_Wifi_BLE_SDK/GD32VW55x_RELEASE_V1.0.2/MSDK/wpa_supplicant/src/ap\wpa_auth_glue.c **** 				break;
 911              		.loc 1 411 5 is_stmt 1
 411:C:/Users/stapi/OneDrive/Desktop/GD32VW553/V1_MQTT_OK/GD32VW55X_Wifi_BLE_SDK/GD32VW55x_RELEASE_V1.0.2/MSDK/wpa_supplicant/src/ap\wpa_auth_glue.c **** 				break;
 912              		.loc 1 411 38 is_stmt 0
 913 00da 13055400 		addi	a0,s0,5
 914 00de 3DF4     		bne	s0,zero,.L71
 915 00e0 8DB7     		j	.L112
 916              	.L81:
 402:C:/Users/stapi/OneDrive/Desktop/GD32VW553/V1_MQTT_OK/GD32VW55X_Wifi_BLE_SDK/GD32VW55x_RELEASE_V1.0.2/MSDK/wpa_supplicant/src/ap\wpa_auth_glue.c **** 			if (pos->is_passphrase) {
 917              		.loc 1 402 29 is_stmt 1 discriminator 2
 918              	.LVL89:
 402:C:/Users/stapi/OneDrive/Desktop/GD32VW553/V1_MQTT_OK/GD32VW55X_Wifi_BLE_SDK/GD32VW55x_RELEASE_V1.0.2/MSDK/wpa_supplicant/src/ap\wpa_auth_glue.c **** 			if (pos->is_passphrase) {
 919              		.loc 1 402 24 discriminator 2
 402:C:/Users/stapi/OneDrive/Desktop/GD32VW553/V1_MQTT_OK/GD32VW55X_Wifi_BLE_SDK/GD32VW55x_RELEASE_V1.0.2/MSDK/wpa_supplicant/src/ap\wpa_auth_glue.c **** 			if (pos->is_passphrase) {
 920              		.loc 1 402 3 is_stmt 0 discriminator 2
 921 00e2 55FC     		bne	s0,zero,.L82
 401:C:/Users/stapi/OneDrive/Desktop/GD32VW553/V1_MQTT_OK/GD32VW55X_Wifi_BLE_SDK/GD32VW55x_RELEASE_V1.0.2/MSDK/wpa_supplicant/src/ap\wpa_auth_glue.c **** 		for (pos = sta->psk; pos; pos = pos->next) {
 922              		.loc 1 401 7
 923 00e4 13055A00 		addi	a0,s4,5
 924              	.LVL90:
 925 00e8 95B7     		j	.L71
 926              	.LBE21:
 927              		.cfi_endproc
 928              	.LFE187:
 930              		.section	.text.hostapd_wpa_auth_set_eapol,"ax",@progbits
 931              		.align	1
 933              	hostapd_wpa_auth_set_eapol:
 934              	.LFB185:
 274:C:/Users/stapi/OneDrive/Desktop/GD32VW553/V1_MQTT_OK/GD32VW55X_Wifi_BLE_SDK/GD32VW55x_RELEASE_V1.0.2/MSDK/wpa_supplicant/src/ap\wpa_auth_glue.c **** 	struct hostapd_data *hapd = ctx;
 935              		.loc 1 274 1 is_stmt 1
 936              		.cfi_startproc
 937              	.LVL91:
 938 0000 17030000 		call	t0,__riscv_save_3
 938      E7020300 
 939              		.cfi_offset 18, -16
 940              		.cfi_offset 9, -12
 941              		.cfi_offset 8, -8
 942              		.cfi_offset 1, -4
 943              		.cfi_def_cfa_offset 16
 275:C:/Users/stapi/OneDrive/Desktop/GD32VW553/V1_MQTT_OK/GD32VW55X_Wifi_BLE_SDK/GD32VW55x_RELEASE_V1.0.2/MSDK/wpa_supplicant/src/ap\wpa_auth_glue.c **** 	struct sta_info *sta = ap_get_sta(hapd, addr);
 944              		.loc 1 275 2
 274:C:/Users/stapi/OneDrive/Desktop/GD32VW553/V1_MQTT_OK/GD32VW55X_Wifi_BLE_SDK/GD32VW55x_RELEASE_V1.0.2/MSDK/wpa_supplicant/src/ap\wpa_auth_glue.c **** 	struct hostapd_data *hapd = ctx;
 945              		.loc 1 274 1 is_stmt 0
 946 0008 4111     		addi	sp,sp,-16
 947              		.cfi_def_cfa_offset 32
 274:C:/Users/stapi/OneDrive/Desktop/GD32VW553/V1_MQTT_OK/GD32VW55X_Wifi_BLE_SDK/GD32VW55x_RELEASE_V1.0.2/MSDK/wpa_supplicant/src/ap\wpa_auth_glue.c **** 	struct hostapd_data *hapd = ctx;
 948              		.loc 1 274 1
 949 000a 2A84     		mv	s0,a0
 950              	.LVL92:
 276:C:/Users/stapi/OneDrive/Desktop/GD32VW553/V1_MQTT_OK/GD32VW55X_Wifi_BLE_SDK/GD32VW55x_RELEASE_V1.0.2/MSDK/wpa_supplicant/src/ap\wpa_auth_glue.c **** 	if (sta == NULL)
 951              		.loc 1 276 2 is_stmt 1
 274:C:/Users/stapi/OneDrive/Desktop/GD32VW553/V1_MQTT_OK/GD32VW55X_Wifi_BLE_SDK/GD32VW55x_RELEASE_V1.0.2/MSDK/wpa_supplicant/src/ap\wpa_auth_glue.c **** 	struct hostapd_data *hapd = ctx;
 952              		.loc 1 274 1 is_stmt 0
 953 000c 3289     		mv	s2,a2
 954 000e B684     		mv	s1,a3
 276:C:/Users/stapi/OneDrive/Desktop/GD32VW553/V1_MQTT_OK/GD32VW55X_Wifi_BLE_SDK/GD32VW55x_RELEASE_V1.0.2/MSDK/wpa_supplicant/src/ap\wpa_auth_glue.c **** 	if (sta == NULL)
 955              		.loc 1 276 25
 956 0010 97000000 		call	ap_get_sta
 956      E7800000 
 957              	.LVL93:
 277:C:/Users/stapi/OneDrive/Desktop/GD32VW553/V1_MQTT_OK/GD32VW55X_Wifi_BLE_SDK/GD32VW55x_RELEASE_V1.0.2/MSDK/wpa_supplicant/src/ap\wpa_auth_glue.c **** 		return;
 958              		.loc 1 277 2 is_stmt 1
 277:C:/Users/stapi/OneDrive/Desktop/GD32VW553/V1_MQTT_OK/GD32VW55X_Wifi_BLE_SDK/GD32VW55x_RELEASE_V1.0.2/MSDK/wpa_supplicant/src/ap\wpa_auth_glue.c **** 		return;
 959              		.loc 1 277 5 is_stmt 0
 960 0018 05C5     		beq	a0,zero,.L113
 312:C:/Users/stapi/OneDrive/Desktop/GD32VW553/V1_MQTT_OK/GD32VW55X_Wifi_BLE_SDK/GD32VW55x_RELEASE_V1.0.2/MSDK/wpa_supplicant/src/ap\wpa_auth_glue.c **** 		if (value) {
 961              		.loc 1 312 2 is_stmt 1
 312:C:/Users/stapi/OneDrive/Desktop/GD32VW553/V1_MQTT_OK/GD32VW55X_Wifi_BLE_SDK/GD32VW55x_RELEASE_V1.0.2/MSDK/wpa_supplicant/src/ap\wpa_auth_glue.c **** 		if (value) {
 962              		.loc 1 312 5 is_stmt 0
 963 001a 8947     		li	a5,2
 964 001c 6312F902 		bne	s2,a5,.L113
 965 0020 AA85     		mv	a1,a0
 313:C:/Users/stapi/OneDrive/Desktop/GD32VW553/V1_MQTT_OK/GD32VW55X_Wifi_BLE_SDK/GD32VW55x_RELEASE_V1.0.2/MSDK/wpa_supplicant/src/ap\wpa_auth_glue.c **** 			ap_sta_set_authorized(hapd, sta, 1);
 966              		.loc 1 313 3 is_stmt 1
 313:C:/Users/stapi/OneDrive/Desktop/GD32VW553/V1_MQTT_OK/GD32VW55X_Wifi_BLE_SDK/GD32VW55x_RELEASE_V1.0.2/MSDK/wpa_supplicant/src/ap\wpa_auth_glue.c **** 			ap_sta_set_authorized(hapd, sta, 1);
 967              		.loc 1 313 6 is_stmt 0
 968 0022 85C4     		beq	s1,zero,.L115
 314:C:/Users/stapi/OneDrive/Desktop/GD32VW553/V1_MQTT_OK/GD32VW55X_Wifi_BLE_SDK/GD32VW55x_RELEASE_V1.0.2/MSDK/wpa_supplicant/src/ap\wpa_auth_glue.c **** 			hostapd_set_authorized(hapd, sta, 1);
 969              		.loc 1 314 4 is_stmt 1
 970 0024 0546     		li	a2,1
 971 0026 2AC6     		sw	a0,12(sp)
 972 0028 2285     		mv	a0,s0
 973              	.LVL94:
 974 002a 97000000 		call	ap_sta_set_authorized
 974      E7800000 
 975              	.LVL95:
 315:C:/Users/stapi/OneDrive/Desktop/GD32VW553/V1_MQTT_OK/GD32VW55X_Wifi_BLE_SDK/GD32VW55x_RELEASE_V1.0.2/MSDK/wpa_supplicant/src/ap\wpa_auth_glue.c **** 		} else {
 976              		.loc 1 315 4
 977 0032 0546     		li	a2,1
 978              	.L120:
 318:C:/Users/stapi/OneDrive/Desktop/GD32VW553/V1_MQTT_OK/GD32VW55X_Wifi_BLE_SDK/GD32VW55x_RELEASE_V1.0.2/MSDK/wpa_supplicant/src/ap\wpa_auth_glue.c **** 		}
 979              		.loc 1 318 4 is_stmt 0
 980 0034 B245     		lw	a1,12(sp)
 981 0036 2285     		mv	a0,s0
 982 0038 97000000 		call	hostapd_set_authorized
 982      E7800000 
 983              	.LVL96:
 984              	.L113:
 322:C:/Users/stapi/OneDrive/Desktop/GD32VW553/V1_MQTT_OK/GD32VW55X_Wifi_BLE_SDK/GD32VW55x_RELEASE_V1.0.2/MSDK/wpa_supplicant/src/ap\wpa_auth_glue.c **** 
 985              		.loc 1 322 1
 986 0040 4101     		addi	sp,sp,16
 987              		.cfi_remember_state
 988              		.cfi_def_cfa_offset 0
 989 0042 17030000 		tail	__riscv_restore_3
 989      67000300 
 990              		.cfi_restore 18
 991              		.cfi_restore 9
 992              		.cfi_restore 8
 993              		.cfi_restore 1
 994              		.cfi_def_cfa_offset -16
 995              	.LVL97:
 996              	.L115:
 997              		.cfi_restore_state
 317:C:/Users/stapi/OneDrive/Desktop/GD32VW553/V1_MQTT_OK/GD32VW55X_Wifi_BLE_SDK/GD32VW55x_RELEASE_V1.0.2/MSDK/wpa_supplicant/src/ap\wpa_auth_glue.c **** 			hostapd_set_authorized(hapd, sta, 0);
 998              		.loc 1 317 4 is_stmt 1
 999 004a 0146     		li	a2,0
 1000 004c 2AC6     		sw	a0,12(sp)
 1001 004e 2285     		mv	a0,s0
 1002              	.LVL98:
 1003 0050 97000000 		call	ap_sta_set_authorized
 1003      E7800000 
 1004              	.LVL99:
 318:C:/Users/stapi/OneDrive/Desktop/GD32VW553/V1_MQTT_OK/GD32VW55X_Wifi_BLE_SDK/GD32VW55x_RELEASE_V1.0.2/MSDK/wpa_supplicant/src/ap\wpa_auth_glue.c **** 		}
 1005              		.loc 1 318 4
 1006 0058 0146     		li	a2,0
 1007 005a E9BF     		j	.L120
 1008              		.cfi_endproc
 1009              	.LFE185:
 1011              		.section	.text.hostapd_wpa_auth_mic_failure_report,"ax",@progbits
 1012              		.align	1
 1014              	hostapd_wpa_auth_mic_failure_report:
 1015              	.LFB183:
 258:C:/Users/stapi/OneDrive/Desktop/GD32VW553/V1_MQTT_OK/GD32VW55X_Wifi_BLE_SDK/GD32VW55x_RELEASE_V1.0.2/MSDK/wpa_supplicant/src/ap\wpa_auth_glue.c **** 	struct hostapd_data *hapd = ctx;
 1016              		.loc 1 258 1
 1017              		.cfi_startproc
 1018              	.LVL100:
 259:C:/Users/stapi/OneDrive/Desktop/GD32VW553/V1_MQTT_OK/GD32VW55X_Wifi_BLE_SDK/GD32VW55x_RELEASE_V1.0.2/MSDK/wpa_supplicant/src/ap\wpa_auth_glue.c **** 	return michael_mic_failure(hapd, addr, 0);
 1019              		.loc 1 259 2
 260:C:/Users/stapi/OneDrive/Desktop/GD32VW553/V1_MQTT_OK/GD32VW55X_Wifi_BLE_SDK/GD32VW55x_RELEASE_V1.0.2/MSDK/wpa_supplicant/src/ap\wpa_auth_glue.c **** }
 1020              		.loc 1 260 2
 260:C:/Users/stapi/OneDrive/Desktop/GD32VW553/V1_MQTT_OK/GD32VW55X_Wifi_BLE_SDK/GD32VW55x_RELEASE_V1.0.2/MSDK/wpa_supplicant/src/ap\wpa_auth_glue.c **** }
 1021              		.loc 1 260 9 is_stmt 0
 1022 0000 0146     		li	a2,0
 1023 0002 17030000 		tail	michael_mic_failure
 1023      67000300 
 1024              	.LVL101:
 1025              		.cfi_endproc
 1026              	.LFE183:
 1028              		.section	.rodata.hostapd_wpa_auth_disconnect.str1.4,"aMS",@progbits,1
 1029              		.align	2
 1030              	.LC2:
 1031 0000 25733A20 		.string	"%s: WPA authenticator requests disconnect: STA %02x:%02x:%02x:%02x:%02x:%02x reason %d"
 1031      57504120 
 1031      61757468 
 1031      656E7469 
 1031      6361746F 
 1032              		.section	.text.hostapd_wpa_auth_disconnect,"ax",@progbits
 1033              		.align	1
 1035              	hostapd_wpa_auth_disconnect:
 1036              	.LFB182:
 248:C:/Users/stapi/OneDrive/Desktop/GD32VW553/V1_MQTT_OK/GD32VW55X_Wifi_BLE_SDK/GD32VW55x_RELEASE_V1.0.2/MSDK/wpa_supplicant/src/ap\wpa_auth_glue.c **** 	struct hostapd_data *hapd = ctx;
 1037              		.loc 1 248 1 is_stmt 1
 1038              		.cfi_startproc
 1039              	.LVL102:
 1040 0000 17030000 		call	t0,__riscv_save_3
 1040      E7020300 
 1041              		.cfi_offset 18, -16
 1042              		.cfi_offset 9, -12
 1043              		.cfi_offset 8, -8
 1044              		.cfi_offset 1, -4
 1045              		.cfi_def_cfa_offset 16
 249:C:/Users/stapi/OneDrive/Desktop/GD32VW553/V1_MQTT_OK/GD32VW55X_Wifi_BLE_SDK/GD32VW55x_RELEASE_V1.0.2/MSDK/wpa_supplicant/src/ap\wpa_auth_glue.c **** 	wpa_printf(MSG_DEBUG, "%s: WPA authenticator requests disconnect: "
 1046              		.loc 1 249 2
 248:C:/Users/stapi/OneDrive/Desktop/GD32VW553/V1_MQTT_OK/GD32VW55X_Wifi_BLE_SDK/GD32VW55x_RELEASE_V1.0.2/MSDK/wpa_supplicant/src/ap\wpa_auth_glue.c **** 	struct hostapd_data *hapd = ctx;
 1047              		.loc 1 248 1 is_stmt 0
 1048 0008 4111     		addi	sp,sp,-16
 1049              		.cfi_def_cfa_offset 32
 250:C:/Users/stapi/OneDrive/Desktop/GD32VW553/V1_MQTT_OK/GD32VW55X_Wifi_BLE_SDK/GD32VW55x_RELEASE_V1.0.2/MSDK/wpa_supplicant/src/ap\wpa_auth_glue.c **** 		   "STA " MACSTR " reason %d",
 1050              		.loc 1 250 2
 1051 000a 32C2     		sw	a2,4(sp)
 1052 000c 83C75500 		lbu	a5,5(a1)
 248:C:/Users/stapi/OneDrive/Desktop/GD32VW553/V1_MQTT_OK/GD32VW55X_Wifi_BLE_SDK/GD32VW55x_RELEASE_V1.0.2/MSDK/wpa_supplicant/src/ap\wpa_auth_glue.c **** 	struct hostapd_data *hapd = ctx;
 1053              		.loc 1 248 1
 1054 0010 2E84     		mv	s0,a1
 1055 0012 B284     		mv	s1,a2
 250:C:/Users/stapi/OneDrive/Desktop/GD32VW553/V1_MQTT_OK/GD32VW55X_Wifi_BLE_SDK/GD32VW55x_RELEASE_V1.0.2/MSDK/wpa_supplicant/src/ap\wpa_auth_glue.c **** 		   "STA " MACSTR " reason %d",
 1056              		.loc 1 250 2
 1057 0014 3EC0     		sw	a5,0(sp)
 1058 0016 83C84500 		lbu	a7,4(a1)
 1059 001a 03C83500 		lbu	a6,3(a1)
 1060 001e 83C72500 		lbu	a5,2(a1)
 1061 0022 03C71500 		lbu	a4,1(a1)
 1062 0026 83C60500 		lbu	a3,0(a1)
 1063 002a 37060000 		lui	a2,%hi(.LANCHOR0)
 1064              	.LVL103:
 1065 002e B7050000 		lui	a1,%hi(.LC2)
 1066              	.LVL104:
 248:C:/Users/stapi/OneDrive/Desktop/GD32VW553/V1_MQTT_OK/GD32VW55X_Wifi_BLE_SDK/GD32VW55x_RELEASE_V1.0.2/MSDK/wpa_supplicant/src/ap\wpa_auth_glue.c **** 	struct hostapd_data *hapd = ctx;
 1067              		.loc 1 248 1
 1068 0032 2A89     		mv	s2,a0
 1069              	.LVL105:
 250:C:/Users/stapi/OneDrive/Desktop/GD32VW553/V1_MQTT_OK/GD32VW55X_Wifi_BLE_SDK/GD32VW55x_RELEASE_V1.0.2/MSDK/wpa_supplicant/src/ap\wpa_auth_glue.c **** 		   "STA " MACSTR " reason %d",
 1070              		.loc 1 250 2 is_stmt 1
 1071 0034 13060600 		addi	a2,a2,%lo(.LANCHOR0)
 1072 0038 93850500 		addi	a1,a1,%lo(.LC2)
 1073 003c 0945     		li	a0,2
 1074              	.LVL106:
 1075 003e 97000000 		call	wpa_printf
 1075      E7800000 
 1076              	.LVL107:
 253:C:/Users/stapi/OneDrive/Desktop/GD32VW553/V1_MQTT_OK/GD32VW55X_Wifi_BLE_SDK/GD32VW55x_RELEASE_V1.0.2/MSDK/wpa_supplicant/src/ap\wpa_auth_glue.c **** }
 1077              		.loc 1 253 2
 1078 0046 A686     		mv	a3,s1
 1079 0048 2286     		mv	a2,s0
 1080 004a 8145     		li	a1,0
 1081 004c 4A85     		mv	a0,s2
 1082 004e 97000000 		call	ap_sta_disconnect
 1082      E7800000 
 1083              	.LVL108:
 254:C:/Users/stapi/OneDrive/Desktop/GD32VW553/V1_MQTT_OK/GD32VW55X_Wifi_BLE_SDK/GD32VW55x_RELEASE_V1.0.2/MSDK/wpa_supplicant/src/ap\wpa_auth_glue.c **** 
 1084              		.loc 1 254 1 is_stmt 0
 1085 0056 4101     		addi	sp,sp,16
 1086              		.cfi_def_cfa_offset 0
 1087 0058 17030000 		tail	__riscv_restore_3
 1087      67000300 
 1088              		.cfi_restore 18
 1089              		.cfi_restore 9
 1090              		.cfi_restore 8
 1091              		.cfi_restore 1
 1092              		.cfi_def_cfa_offset -16
 1093              		.cfi_endproc
 1094              	.LFE182:
 1096              		.section	.text.hostapd_wpa_auth_conf.constprop.0,"ax",@progbits
 1097              		.align	1
 1099              	hostapd_wpa_auth_conf.constprop.0:
 1100              	.LFB202:
  38:C:/Users/stapi/OneDrive/Desktop/GD32VW553/V1_MQTT_OK/GD32VW55X_Wifi_BLE_SDK/GD32VW55x_RELEASE_V1.0.2/MSDK/wpa_supplicant/src/ap\wpa_auth_glue.c **** 				  struct hostapd_config *iconf,
 1101              		.loc 1 38 13 is_stmt 1
 1102              		.cfi_startproc
 1103              	.LVL109:
 1104 0000 17030000 		call	t0,__riscv_save_2
 1104      E7020300 
 1105              		.cfi_offset 9, -12
 1106              		.cfi_offset 8, -8
 1107              		.cfi_offset 1, -4
 1108              		.cfi_def_cfa_offset 16
 1109              	.LVL110:
  42:C:/Users/stapi/OneDrive/Desktop/GD32VW553/V1_MQTT_OK/GD32VW55X_Wifi_BLE_SDK/GD32VW55x_RELEASE_V1.0.2/MSDK/wpa_supplicant/src/ap\wpa_auth_glue.c **** 
 1110              		.loc 1 42 2
  44:C:/Users/stapi/OneDrive/Desktop/GD32VW553/V1_MQTT_OK/GD32VW55X_Wifi_BLE_SDK/GD32VW55x_RELEASE_V1.0.2/MSDK/wpa_supplicant/src/ap\wpa_auth_glue.c **** 	wconf->wpa = conf->wpa;
 1111              		.loc 1 44 2
  38:C:/Users/stapi/OneDrive/Desktop/GD32VW553/V1_MQTT_OK/GD32VW55X_Wifi_BLE_SDK/GD32VW55x_RELEASE_V1.0.2/MSDK/wpa_supplicant/src/ap\wpa_auth_glue.c **** 				  struct hostapd_config *iconf,
 1112              		.loc 1 38 13 is_stmt 0
 1113 0008 2E84     		mv	s0,a1
 1114 000a AA84     		mv	s1,a0
  44:C:/Users/stapi/OneDrive/Desktop/GD32VW553/V1_MQTT_OK/GD32VW55X_Wifi_BLE_SDK/GD32VW55x_RELEASE_V1.0.2/MSDK/wpa_supplicant/src/ap\wpa_auth_glue.c **** 	wconf->wpa = conf->wpa;
 1115              		.loc 1 44 2
 1116 000c 13060009 		li	a2,144
 1117 0010 8145     		li	a1,0
 1118              	.LVL111:
 1119 0012 2285     		mv	a0,s0
 1120              	.LVL112:
 1121 0014 97000000 		call	os_memset
 1121      E7800000 
 1122              	.LVL113:
  45:C:/Users/stapi/OneDrive/Desktop/GD32VW553/V1_MQTT_OK/GD32VW55X_Wifi_BLE_SDK/GD32VW55x_RELEASE_V1.0.2/MSDK/wpa_supplicant/src/ap\wpa_auth_glue.c **** 	wconf->extended_key_id = conf->extended_key_id;
 1123              		.loc 1 45 2 is_stmt 1
  45:C:/Users/stapi/OneDrive/Desktop/GD32VW553/V1_MQTT_OK/GD32VW55X_Wifi_BLE_SDK/GD32VW55x_RELEASE_V1.0.2/MSDK/wpa_supplicant/src/ap\wpa_auth_glue.c **** 	wconf->extended_key_id = conf->extended_key_id;
 1124              		.loc 1 45 13 is_stmt 0
 1125 001c 93870410 		addi	a5,s1,256
 1126 0020 F843     		lw	a4,68(a5)
 198:C:/Users/stapi/OneDrive/Desktop/GD32VW553/V1_MQTT_OK/GD32VW55X_Wifi_BLE_SDK/GD32VW55x_RELEASE_V1.0.2/MSDK/wpa_supplicant/src/ap\wpa_auth_glue.c **** 	if (sae_pw_id == 2 && wconf->sae_pwe != 3)
 1127              		.loc 1 198 14
 1128 0022 2685     		mv	a0,s1
  45:C:/Users/stapi/OneDrive/Desktop/GD32VW553/V1_MQTT_OK/GD32VW55X_Wifi_BLE_SDK/GD32VW55x_RELEASE_V1.0.2/MSDK/wpa_supplicant/src/ap\wpa_auth_glue.c **** 	wconf->extended_key_id = conf->extended_key_id;
 1129              		.loc 1 45 13
 1130 0024 58C0     		sw	a4,4(s0)
  46:C:/Users/stapi/OneDrive/Desktop/GD32VW553/V1_MQTT_OK/GD32VW55X_Wifi_BLE_SDK/GD32VW55x_RELEASE_V1.0.2/MSDK/wpa_supplicant/src/ap\wpa_auth_glue.c **** 	wconf->wpa_key_mgmt = conf->wpa_key_mgmt;
 1131              		.loc 1 46 2 is_stmt 1
  46:C:/Users/stapi/OneDrive/Desktop/GD32VW553/V1_MQTT_OK/GD32VW55X_Wifi_BLE_SDK/GD32VW55x_RELEASE_V1.0.2/MSDK/wpa_supplicant/src/ap\wpa_auth_glue.c **** 	wconf->wpa_key_mgmt = conf->wpa_key_mgmt;
 1132              		.loc 1 46 25 is_stmt 0
 1133 0026 B847     		lw	a4,72(a5)
 1134 0028 18C4     		sw	a4,8(s0)
  47:C:/Users/stapi/OneDrive/Desktop/GD32VW553/V1_MQTT_OK/GD32VW55X_Wifi_BLE_SDK/GD32VW55x_RELEASE_V1.0.2/MSDK/wpa_supplicant/src/ap\wpa_auth_glue.c **** 	wconf->wpa_pairwise = conf->wpa_pairwise;
 1135              		.loc 1 47 2 is_stmt 1
  47:C:/Users/stapi/OneDrive/Desktop/GD32VW553/V1_MQTT_OK/GD32VW55X_Wifi_BLE_SDK/GD32VW55x_RELEASE_V1.0.2/MSDK/wpa_supplicant/src/ap\wpa_auth_glue.c **** 	wconf->wpa_pairwise = conf->wpa_pairwise;
 1136              		.loc 1 47 22 is_stmt 0
 1137 002a F847     		lw	a4,76(a5)
 1138 002c 58C4     		sw	a4,12(s0)
  48:C:/Users/stapi/OneDrive/Desktop/GD32VW553/V1_MQTT_OK/GD32VW55X_Wifi_BLE_SDK/GD32VW55x_RELEASE_V1.0.2/MSDK/wpa_supplicant/src/ap\wpa_auth_glue.c **** 	wconf->wpa_group = conf->wpa_group;
 1139              		.loc 1 48 2 is_stmt 1
  48:C:/Users/stapi/OneDrive/Desktop/GD32VW553/V1_MQTT_OK/GD32VW55X_Wifi_BLE_SDK/GD32VW55x_RELEASE_V1.0.2/MSDK/wpa_supplicant/src/ap\wpa_auth_glue.c **** 	wconf->wpa_group = conf->wpa_group;
 1140              		.loc 1 48 22 is_stmt 0
 1141 002e B857     		lw	a4,104(a5)
 1142 0030 18C8     		sw	a4,16(s0)
  49:C:/Users/stapi/OneDrive/Desktop/GD32VW553/V1_MQTT_OK/GD32VW55X_Wifi_BLE_SDK/GD32VW55x_RELEASE_V1.0.2/MSDK/wpa_supplicant/src/ap\wpa_auth_glue.c **** 	wconf->wpa_group_rekey = conf->wpa_group_rekey;
 1143              		.loc 1 49 2 is_stmt 1
  49:C:/Users/stapi/OneDrive/Desktop/GD32VW553/V1_MQTT_OK/GD32VW55X_Wifi_BLE_SDK/GD32VW55x_RELEASE_V1.0.2/MSDK/wpa_supplicant/src/ap\wpa_auth_glue.c **** 	wconf->wpa_group_rekey = conf->wpa_group_rekey;
 1144              		.loc 1 49 19 is_stmt 0
 1145 0032 B85B     		lw	a4,112(a5)
 1146 0034 58C8     		sw	a4,20(s0)
  50:C:/Users/stapi/OneDrive/Desktop/GD32VW553/V1_MQTT_OK/GD32VW55X_Wifi_BLE_SDK/GD32VW55x_RELEASE_V1.0.2/MSDK/wpa_supplicant/src/ap\wpa_auth_glue.c **** 	wconf->wpa_strict_rekey = conf->wpa_strict_rekey;
 1147              		.loc 1 50 2 is_stmt 1
  50:C:/Users/stapi/OneDrive/Desktop/GD32VW553/V1_MQTT_OK/GD32VW55X_Wifi_BLE_SDK/GD32VW55x_RELEASE_V1.0.2/MSDK/wpa_supplicant/src/ap\wpa_auth_glue.c **** 	wconf->wpa_strict_rekey = conf->wpa_strict_rekey;
 1148              		.loc 1 50 25 is_stmt 0
 1149 0036 F85B     		lw	a4,116(a5)
 1150 0038 18CC     		sw	a4,24(s0)
  51:C:/Users/stapi/OneDrive/Desktop/GD32VW553/V1_MQTT_OK/GD32VW55X_Wifi_BLE_SDK/GD32VW55x_RELEASE_V1.0.2/MSDK/wpa_supplicant/src/ap\wpa_auth_glue.c **** 	wconf->wpa_gmk_rekey = conf->wpa_gmk_rekey;
 1151              		.loc 1 51 2 is_stmt 1
  51:C:/Users/stapi/OneDrive/Desktop/GD32VW553/V1_MQTT_OK/GD32VW55X_Wifi_BLE_SDK/GD32VW55x_RELEASE_V1.0.2/MSDK/wpa_supplicant/src/ap\wpa_auth_glue.c **** 	wconf->wpa_gmk_rekey = conf->wpa_gmk_rekey;
 1152              		.loc 1 51 26 is_stmt 0
 1153 003a F85F     		lw	a4,124(a5)
 1154 003c 58CC     		sw	a4,28(s0)
  52:C:/Users/stapi/OneDrive/Desktop/GD32VW553/V1_MQTT_OK/GD32VW55X_Wifi_BLE_SDK/GD32VW55x_RELEASE_V1.0.2/MSDK/wpa_supplicant/src/ap\wpa_auth_glue.c **** 	wconf->wpa_ptk_rekey = conf->wpa_ptk_rekey;
 1155              		.loc 1 52 2 is_stmt 1
  52:C:/Users/stapi/OneDrive/Desktop/GD32VW553/V1_MQTT_OK/GD32VW55X_Wifi_BLE_SDK/GD32VW55x_RELEASE_V1.0.2/MSDK/wpa_supplicant/src/ap\wpa_auth_glue.c **** 	wconf->wpa_ptk_rekey = conf->wpa_ptk_rekey;
 1156              		.loc 1 52 23 is_stmt 0
 1157 003e 13870418 		addi	a4,s1,384
 1158 0042 1443     		lw	a3,0(a4)
 1159 0044 14D0     		sw	a3,32(s0)
  53:C:/Users/stapi/OneDrive/Desktop/GD32VW553/V1_MQTT_OK/GD32VW55X_Wifi_BLE_SDK/GD32VW55x_RELEASE_V1.0.2/MSDK/wpa_supplicant/src/ap\wpa_auth_glue.c **** 	wconf->wpa_group_update_count = conf->wpa_group_update_count;
 1160              		.loc 1 53 2 is_stmt 1
  53:C:/Users/stapi/OneDrive/Desktop/GD32VW553/V1_MQTT_OK/GD32VW55X_Wifi_BLE_SDK/GD32VW55x_RELEASE_V1.0.2/MSDK/wpa_supplicant/src/ap\wpa_auth_glue.c **** 	wconf->wpa_group_update_count = conf->wpa_group_update_count;
 1161              		.loc 1 53 23 is_stmt 0
 1162 0046 5443     		lw	a3,4(a4)
 1163 0048 54D0     		sw	a3,36(s0)
  54:C:/Users/stapi/OneDrive/Desktop/GD32VW553/V1_MQTT_OK/GD32VW55X_Wifi_BLE_SDK/GD32VW55x_RELEASE_V1.0.2/MSDK/wpa_supplicant/src/ap\wpa_auth_glue.c **** 	wconf->wpa_disable_eapol_key_retries =
 1164              		.loc 1 54 2 is_stmt 1
  54:C:/Users/stapi/OneDrive/Desktop/GD32VW553/V1_MQTT_OK/GD32VW55X_Wifi_BLE_SDK/GD32VW55x_RELEASE_V1.0.2/MSDK/wpa_supplicant/src/ap\wpa_auth_glue.c **** 	wconf->wpa_disable_eapol_key_retries =
 1165              		.loc 1 54 32 is_stmt 0
 1166 004a 5447     		lw	a3,12(a4)
 1167 004c 54D4     		sw	a3,44(s0)
  55:C:/Users/stapi/OneDrive/Desktop/GD32VW553/V1_MQTT_OK/GD32VW55X_Wifi_BLE_SDK/GD32VW55x_RELEASE_V1.0.2/MSDK/wpa_supplicant/src/ap\wpa_auth_glue.c **** 		conf->wpa_disable_eapol_key_retries;
 1168              		.loc 1 55 2 is_stmt 1
  55:C:/Users/stapi/OneDrive/Desktop/GD32VW553/V1_MQTT_OK/GD32VW55X_Wifi_BLE_SDK/GD32VW55x_RELEASE_V1.0.2/MSDK/wpa_supplicant/src/ap\wpa_auth_glue.c **** 		conf->wpa_disable_eapol_key_retries;
 1169              		.loc 1 55 39 is_stmt 0
 1170 004e 544B     		lw	a3,20(a4)
 1171 0050 54D8     		sw	a3,52(s0)
  57:C:/Users/stapi/OneDrive/Desktop/GD32VW553/V1_MQTT_OK/GD32VW55X_Wifi_BLE_SDK/GD32VW55x_RELEASE_V1.0.2/MSDK/wpa_supplicant/src/ap\wpa_auth_glue.c **** 	wconf->rsn_pairwise = conf->rsn_pairwise;
 1172              		.loc 1 57 2 is_stmt 1
  57:C:/Users/stapi/OneDrive/Desktop/GD32VW553/V1_MQTT_OK/GD32VW55X_Wifi_BLE_SDK/GD32VW55x_RELEASE_V1.0.2/MSDK/wpa_supplicant/src/ap\wpa_auth_glue.c **** 	wconf->rsn_pairwise = conf->rsn_pairwise;
 1173              		.loc 1 57 35 is_stmt 0
 1174 0052 144B     		lw	a3,16(a4)
 1175 0054 14D8     		sw	a3,48(s0)
  58:C:/Users/stapi/OneDrive/Desktop/GD32VW553/V1_MQTT_OK/GD32VW55X_Wifi_BLE_SDK/GD32VW55x_RELEASE_V1.0.2/MSDK/wpa_supplicant/src/ap\wpa_auth_glue.c **** 	wconf->rsn_preauth = conf->rsn_preauth;
 1176              		.loc 1 58 2 is_stmt 1
  58:C:/Users/stapi/OneDrive/Desktop/GD32VW553/V1_MQTT_OK/GD32VW55X_Wifi_BLE_SDK/GD32VW55x_RELEASE_V1.0.2/MSDK/wpa_supplicant/src/ap\wpa_auth_glue.c **** 	wconf->rsn_preauth = conf->rsn_preauth;
 1177              		.loc 1 58 22 is_stmt 0
 1178 0056 144F     		lw	a3,24(a4)
  59:C:/Users/stapi/OneDrive/Desktop/GD32VW553/V1_MQTT_OK/GD32VW55X_Wifi_BLE_SDK/GD32VW55x_RELEASE_V1.0.2/MSDK/wpa_supplicant/src/ap\wpa_auth_glue.c **** 	wconf->eapol_version = conf->eapol_version;
 1179              		.loc 1 59 21
 1180 0058 584F     		lw	a4,28(a4)
  58:C:/Users/stapi/OneDrive/Desktop/GD32VW553/V1_MQTT_OK/GD32VW55X_Wifi_BLE_SDK/GD32VW55x_RELEASE_V1.0.2/MSDK/wpa_supplicant/src/ap\wpa_auth_glue.c **** 	wconf->rsn_preauth = conf->rsn_preauth;
 1181              		.loc 1 58 22
 1182 005a 14DC     		sw	a3,56(s0)
  59:C:/Users/stapi/OneDrive/Desktop/GD32VW553/V1_MQTT_OK/GD32VW55X_Wifi_BLE_SDK/GD32VW55x_RELEASE_V1.0.2/MSDK/wpa_supplicant/src/ap\wpa_auth_glue.c **** 	wconf->eapol_version = conf->eapol_version;
 1183              		.loc 1 59 2 is_stmt 1
  59:C:/Users/stapi/OneDrive/Desktop/GD32VW553/V1_MQTT_OK/GD32VW55X_Wifi_BLE_SDK/GD32VW55x_RELEASE_V1.0.2/MSDK/wpa_supplicant/src/ap\wpa_auth_glue.c **** 	wconf->eapol_version = conf->eapol_version;
 1184              		.loc 1 59 21 is_stmt 0
 1185 005c 58DC     		sw	a4,60(s0)
  60:C:/Users/stapi/OneDrive/Desktop/GD32VW553/V1_MQTT_OK/GD32VW55X_Wifi_BLE_SDK/GD32VW55x_RELEASE_V1.0.2/MSDK/wpa_supplicant/src/ap\wpa_auth_glue.c **** #ifdef CONFIG_MACSEC
 1186              		.loc 1 60 2 is_stmt 1
  60:C:/Users/stapi/OneDrive/Desktop/GD32VW553/V1_MQTT_OK/GD32VW55X_Wifi_BLE_SDK/GD32VW55x_RELEASE_V1.0.2/MSDK/wpa_supplicant/src/ap\wpa_auth_glue.c **** #ifdef CONFIG_MACSEC
 1187              		.loc 1 60 23 is_stmt 0
 1188 005e B840     		lw	a4,64(s1)
 1189 0060 38C0     		sw	a4,64(s0)
  65:C:/Users/stapi/OneDrive/Desktop/GD32VW553/V1_MQTT_OK/GD32VW55X_Wifi_BLE_SDK/GD32VW55x_RELEASE_V1.0.2/MSDK/wpa_supplicant/src/ap\wpa_auth_glue.c **** 	wconf->wmm_uapsd = conf->wmm_uapsd;
 1190              		.loc 1 65 2 is_stmt 1
  65:C:/Users/stapi/OneDrive/Desktop/GD32VW553/V1_MQTT_OK/GD32VW55X_Wifi_BLE_SDK/GD32VW55x_RELEASE_V1.0.2/MSDK/wpa_supplicant/src/ap\wpa_auth_glue.c **** 	wconf->wmm_uapsd = conf->wmm_uapsd;
 1191              		.loc 1 65 21 is_stmt 0
 1192 0062 13870420 		addi	a4,s1,512
 1193 0066 3453     		lw	a3,96(a4)
 1194 0068 74C0     		sw	a3,68(s0)
  66:C:/Users/stapi/OneDrive/Desktop/GD32VW553/V1_MQTT_OK/GD32VW55X_Wifi_BLE_SDK/GD32VW55x_RELEASE_V1.0.2/MSDK/wpa_supplicant/src/ap\wpa_auth_glue.c **** 	wconf->disable_pmksa_caching = conf->disable_pmksa_caching;
 1195              		.loc 1 66 2 is_stmt 1
  66:C:/Users/stapi/OneDrive/Desktop/GD32VW553/V1_MQTT_OK/GD32VW55X_Wifi_BLE_SDK/GD32VW55x_RELEASE_V1.0.2/MSDK/wpa_supplicant/src/ap\wpa_auth_glue.c **** 	wconf->disable_pmksa_caching = conf->disable_pmksa_caching;
 1196              		.loc 1 66 19 is_stmt 0
 1197 006a 7453     		lw	a3,100(a4)
 1198 006c 34C4     		sw	a3,72(s0)
  67:C:/Users/stapi/OneDrive/Desktop/GD32VW553/V1_MQTT_OK/GD32VW55X_Wifi_BLE_SDK/GD32VW55x_RELEASE_V1.0.2/MSDK/wpa_supplicant/src/ap\wpa_auth_glue.c **** #ifdef CONFIG_OCV
 1199              		.loc 1 67 2 is_stmt 1
  67:C:/Users/stapi/OneDrive/Desktop/GD32VW553/V1_MQTT_OK/GD32VW55X_Wifi_BLE_SDK/GD32VW55x_RELEASE_V1.0.2/MSDK/wpa_supplicant/src/ap\wpa_auth_glue.c **** #ifdef CONFIG_OCV
 1200              		.loc 1 67 31 is_stmt 0
 1201 006e 745B     		lw	a3,116(a4)
  71:C:/Users/stapi/OneDrive/Desktop/GD32VW553/V1_MQTT_OK/GD32VW55X_Wifi_BLE_SDK/GD32VW55x_RELEASE_V1.0.2/MSDK/wpa_supplicant/src/ap\wpa_auth_glue.c **** 	wconf->ieee80211w = conf->ieee80211w;
 1202              		.loc 1 71 13
 1203 0070 385F     		lw	a4,120(a4)
  67:C:/Users/stapi/OneDrive/Desktop/GD32VW553/V1_MQTT_OK/GD32VW55X_Wifi_BLE_SDK/GD32VW55x_RELEASE_V1.0.2/MSDK/wpa_supplicant/src/ap\wpa_auth_glue.c **** #ifdef CONFIG_OCV
 1204              		.loc 1 67 31
 1205 0072 74C4     		sw	a3,76(s0)
  71:C:/Users/stapi/OneDrive/Desktop/GD32VW553/V1_MQTT_OK/GD32VW55X_Wifi_BLE_SDK/GD32VW55x_RELEASE_V1.0.2/MSDK/wpa_supplicant/src/ap\wpa_auth_glue.c **** 	wconf->ieee80211w = conf->ieee80211w;
 1206              		.loc 1 71 2 is_stmt 1
  71:C:/Users/stapi/OneDrive/Desktop/GD32VW553/V1_MQTT_OK/GD32VW55X_Wifi_BLE_SDK/GD32VW55x_RELEASE_V1.0.2/MSDK/wpa_supplicant/src/ap\wpa_auth_glue.c **** 	wconf->ieee80211w = conf->ieee80211w;
 1207              		.loc 1 71 13 is_stmt 0
 1208 0074 38C8     		sw	a4,80(s0)
  72:C:/Users/stapi/OneDrive/Desktop/GD32VW553/V1_MQTT_OK/GD32VW55X_Wifi_BLE_SDK/GD32VW55x_RELEASE_V1.0.2/MSDK/wpa_supplicant/src/ap\wpa_auth_glue.c **** 	wconf->beacon_prot = conf->beacon_prot;
 1209              		.loc 1 72 2 is_stmt 1
  72:C:/Users/stapi/OneDrive/Desktop/GD32VW553/V1_MQTT_OK/GD32VW55X_Wifi_BLE_SDK/GD32VW55x_RELEASE_V1.0.2/MSDK/wpa_supplicant/src/ap\wpa_auth_glue.c **** 	wconf->beacon_prot = conf->beacon_prot;
 1210              		.loc 1 72 20 is_stmt 0
 1211 0076 B84B     		lw	a4,80(a5)
 1212 0078 38CC     		sw	a4,88(s0)
  73:C:/Users/stapi/OneDrive/Desktop/GD32VW553/V1_MQTT_OK/GD32VW55X_Wifi_BLE_SDK/GD32VW55x_RELEASE_V1.0.2/MSDK/wpa_supplicant/src/ap\wpa_auth_glue.c **** 	wconf->group_mgmt_cipher = conf->group_mgmt_cipher;
 1213              		.loc 1 73 2 is_stmt 1
  73:C:/Users/stapi/OneDrive/Desktop/GD32VW553/V1_MQTT_OK/GD32VW55X_Wifi_BLE_SDK/GD32VW55x_RELEASE_V1.0.2/MSDK/wpa_supplicant/src/ap\wpa_auth_glue.c **** 	wconf->group_mgmt_cipher = conf->group_mgmt_cipher;
 1214              		.loc 1 73 21 is_stmt 0
 1215 007a B84F     		lw	a4,88(a5)
  74:C:/Users/stapi/OneDrive/Desktop/GD32VW553/V1_MQTT_OK/GD32VW55X_Wifi_BLE_SDK/GD32VW55x_RELEASE_V1.0.2/MSDK/wpa_supplicant/src/ap\wpa_auth_glue.c **** 	wconf->sae_require_mfp = conf->sae_require_mfp;
 1216              		.loc 1 74 27
 1217 007c FC4B     		lw	a5,84(a5)
  73:C:/Users/stapi/OneDrive/Desktop/GD32VW553/V1_MQTT_OK/GD32VW55X_Wifi_BLE_SDK/GD32VW55x_RELEASE_V1.0.2/MSDK/wpa_supplicant/src/ap\wpa_auth_glue.c **** 	wconf->group_mgmt_cipher = conf->group_mgmt_cipher;
 1218              		.loc 1 73 21
 1219 007e 78CC     		sw	a4,92(s0)
  74:C:/Users/stapi/OneDrive/Desktop/GD32VW553/V1_MQTT_OK/GD32VW55X_Wifi_BLE_SDK/GD32VW55x_RELEASE_V1.0.2/MSDK/wpa_supplicant/src/ap\wpa_auth_glue.c **** 	wconf->sae_require_mfp = conf->sae_require_mfp;
 1220              		.loc 1 74 2 is_stmt 1
  74:C:/Users/stapi/OneDrive/Desktop/GD32VW553/V1_MQTT_OK/GD32VW55X_Wifi_BLE_SDK/GD32VW55x_RELEASE_V1.0.2/MSDK/wpa_supplicant/src/ap\wpa_auth_glue.c **** 	wconf->sae_require_mfp = conf->sae_require_mfp;
 1221              		.loc 1 74 27 is_stmt 0
 1222 0080 3CD0     		sw	a5,96(s0)
  75:C:/Users/stapi/OneDrive/Desktop/GD32VW553/V1_MQTT_OK/GD32VW55X_Wifi_BLE_SDK/GD32VW55x_RELEASE_V1.0.2/MSDK/wpa_supplicant/src/ap\wpa_auth_glue.c **** #ifdef CONFIG_IEEE80211R_AP
 1223              		.loc 1 75 2 is_stmt 1
  75:C:/Users/stapi/OneDrive/Desktop/GD32VW553/V1_MQTT_OK/GD32VW55X_Wifi_BLE_SDK/GD32VW55x_RELEASE_V1.0.2/MSDK/wpa_supplicant/src/ap\wpa_auth_glue.c **** #ifdef CONFIG_IEEE80211R_AP
 1224              		.loc 1 75 25 is_stmt 0
 1225 0082 93870438 		addi	a5,s1,896
 1226 0086 D843     		lw	a4,4(a5)
 197:C:/Users/stapi/OneDrive/Desktop/GD32VW553/V1_MQTT_OK/GD32VW55X_Wifi_BLE_SDK/GD32VW55x_RELEASE_V1.0.2/MSDK/wpa_supplicant/src/ap\wpa_auth_glue.c **** 	sae_pw_id = hostapd_sae_pw_id_in_use(conf);
 1227              		.loc 1 197 17
 1228 0088 DC47     		lw	a5,12(a5)
  75:C:/Users/stapi/OneDrive/Desktop/GD32VW553/V1_MQTT_OK/GD32VW55X_Wifi_BLE_SDK/GD32VW55x_RELEASE_V1.0.2/MSDK/wpa_supplicant/src/ap\wpa_auth_glue.c **** #ifdef CONFIG_IEEE80211R_AP
 1229              		.loc 1 75 25
 1230 008a 78D0     		sw	a4,100(s0)
 197:C:/Users/stapi/OneDrive/Desktop/GD32VW553/V1_MQTT_OK/GD32VW55X_Wifi_BLE_SDK/GD32VW55x_RELEASE_V1.0.2/MSDK/wpa_supplicant/src/ap\wpa_auth_glue.c **** 	sae_pw_id = hostapd_sae_pw_id_in_use(conf);
 1231              		.loc 1 197 2 is_stmt 1
 197:C:/Users/stapi/OneDrive/Desktop/GD32VW553/V1_MQTT_OK/GD32VW55X_Wifi_BLE_SDK/GD32VW55x_RELEASE_V1.0.2/MSDK/wpa_supplicant/src/ap\wpa_auth_glue.c **** 	sae_pw_id = hostapd_sae_pw_id_in_use(conf);
 1232              		.loc 1 197 17 is_stmt 0
 1233 008c 2320F408 		sw	a5,128(s0)
 198:C:/Users/stapi/OneDrive/Desktop/GD32VW553/V1_MQTT_OK/GD32VW55X_Wifi_BLE_SDK/GD32VW55x_RELEASE_V1.0.2/MSDK/wpa_supplicant/src/ap\wpa_auth_glue.c **** 	if (sae_pw_id == 2 && wconf->sae_pwe != 3)
 1234              		.loc 1 198 2 is_stmt 1
 198:C:/Users/stapi/OneDrive/Desktop/GD32VW553/V1_MQTT_OK/GD32VW55X_Wifi_BLE_SDK/GD32VW55x_RELEASE_V1.0.2/MSDK/wpa_supplicant/src/ap\wpa_auth_glue.c **** 	if (sae_pw_id == 2 && wconf->sae_pwe != 3)
 1235              		.loc 1 198 14 is_stmt 0
 1236 0090 97000000 		call	hostapd_sae_pw_id_in_use
 1236      E7800000 
 1237              	.LVL114:
 199:C:/Users/stapi/OneDrive/Desktop/GD32VW553/V1_MQTT_OK/GD32VW55X_Wifi_BLE_SDK/GD32VW55x_RELEASE_V1.0.2/MSDK/wpa_supplicant/src/ap\wpa_auth_glue.c **** 		wconf->sae_pwe = 1;
 1238              		.loc 1 199 2 is_stmt 1
 199:C:/Users/stapi/OneDrive/Desktop/GD32VW553/V1_MQTT_OK/GD32VW55X_Wifi_BLE_SDK/GD32VW55x_RELEASE_V1.0.2/MSDK/wpa_supplicant/src/ap\wpa_auth_glue.c **** 		wconf->sae_pwe = 1;
 1239              		.loc 1 199 5 is_stmt 0
 1240 0098 8947     		li	a5,2
 1241 009a 631BF500 		bne	a0,a5,.L126
 199:C:/Users/stapi/OneDrive/Desktop/GD32VW553/V1_MQTT_OK/GD32VW55X_Wifi_BLE_SDK/GD32VW55x_RELEASE_V1.0.2/MSDK/wpa_supplicant/src/ap\wpa_auth_glue.c **** 		wconf->sae_pwe = 1;
 1242              		.loc 1 199 21
 1243 009e 03270408 		lw	a4,128(s0)
 1244 00a2 8D47     		li	a5,3
 1245 00a4 630CF700 		beq	a4,a5,.L127
 200:C:/Users/stapi/OneDrive/Desktop/GD32VW553/V1_MQTT_OK/GD32VW55X_Wifi_BLE_SDK/GD32VW55x_RELEASE_V1.0.2/MSDK/wpa_supplicant/src/ap\wpa_auth_glue.c **** 	else if (sae_pw_id == 1 && wconf->sae_pwe == 0)
 1246              		.loc 1 200 3 is_stmt 1
 200:C:/Users/stapi/OneDrive/Desktop/GD32VW553/V1_MQTT_OK/GD32VW55X_Wifi_BLE_SDK/GD32VW55x_RELEASE_V1.0.2/MSDK/wpa_supplicant/src/ap\wpa_auth_glue.c **** 	else if (sae_pw_id == 1 && wconf->sae_pwe == 0)
 1247              		.loc 1 200 18 is_stmt 0
 1248 00a8 8547     		li	a5,1
 1249              	.L129:
 202:C:/Users/stapi/OneDrive/Desktop/GD32VW553/V1_MQTT_OK/GD32VW55X_Wifi_BLE_SDK/GD32VW55x_RELEASE_V1.0.2/MSDK/wpa_supplicant/src/ap\wpa_auth_glue.c **** #ifdef CONFIG_SAE_PK
 1250              		.loc 1 202 3 is_stmt 1
 202:C:/Users/stapi/OneDrive/Desktop/GD32VW553/V1_MQTT_OK/GD32VW55X_Wifi_BLE_SDK/GD32VW55x_RELEASE_V1.0.2/MSDK/wpa_supplicant/src/ap\wpa_auth_glue.c **** #ifdef CONFIG_SAE_PK
 1251              		.loc 1 202 18 is_stmt 0
 1252 00aa 2320F408 		sw	a5,128(s0)
 1253 00ae 39A0     		j	.L127
 1254              	.L126:
 201:C:/Users/stapi/OneDrive/Desktop/GD32VW553/V1_MQTT_OK/GD32VW55X_Wifi_BLE_SDK/GD32VW55x_RELEASE_V1.0.2/MSDK/wpa_supplicant/src/ap\wpa_auth_glue.c **** 		wconf->sae_pwe = 2;
 1255              		.loc 1 201 7 is_stmt 1
 201:C:/Users/stapi/OneDrive/Desktop/GD32VW553/V1_MQTT_OK/GD32VW55X_Wifi_BLE_SDK/GD32VW55x_RELEASE_V1.0.2/MSDK/wpa_supplicant/src/ap\wpa_auth_glue.c **** 		wconf->sae_pwe = 2;
 1256              		.loc 1 201 10 is_stmt 0
 1257 00b0 0547     		li	a4,1
 1258 00b2 6315E500 		bne	a0,a4,.L127
 201:C:/Users/stapi/OneDrive/Desktop/GD32VW553/V1_MQTT_OK/GD32VW55X_Wifi_BLE_SDK/GD32VW55x_RELEASE_V1.0.2/MSDK/wpa_supplicant/src/ap\wpa_auth_glue.c **** 		wconf->sae_pwe = 2;
 1259              		.loc 1 201 26
 1260 00b6 03270408 		lw	a4,128(s0)
 1261 00ba 65DB     		beq	a4,zero,.L129
 1262              	.L127:
 209:C:/Users/stapi/OneDrive/Desktop/GD32VW553/V1_MQTT_OK/GD32VW55X_Wifi_BLE_SDK/GD32VW55x_RELEASE_V1.0.2/MSDK/wpa_supplicant/src/ap\wpa_auth_glue.c **** #ifdef CONFIG_DPP2
 1263              		.loc 1 209 2 is_stmt 1
 209:C:/Users/stapi/OneDrive/Desktop/GD32VW553/V1_MQTT_OK/GD32VW55X_Wifi_BLE_SDK/GD32VW55x_RELEASE_V1.0.2/MSDK/wpa_supplicant/src/ap\wpa_auth_glue.c **** #ifdef CONFIG_DPP2
 1264              		.loc 1 209 28 is_stmt 0
 1265 00bc 83C7943D 		lbu	a5,985(s1)
 1266 00c0 2306F408 		sb	a5,140(s0)
 218:C:/Users/stapi/OneDrive/Desktop/GD32VW553/V1_MQTT_OK/GD32VW55X_Wifi_BLE_SDK/GD32VW55x_RELEASE_V1.0.2/MSDK/wpa_supplicant/src/ap\wpa_auth_glue.c **** 
 1267              		.loc 1 218 1
 1268 00c4 17030000 		tail	__riscv_restore_2
 1268      67000300 
 1269              		.cfi_restore 9
 1270              		.cfi_restore 8
 1271              		.cfi_restore 1
 1272              		.cfi_def_cfa_offset 0
 1273              		.cfi_endproc
 1274              	.LFE202:
 1276              		.section	.rodata.hostapd_setup_wpa.str1.4,"aMS",@progbits,1
 1277              		.align	2
 1278              	.LC3:
 1279 0000 44697361 		.string	"Disable PTK0 rekey support - replaced with disconnect"
 1279      626C6520 
 1279      50544B30 
 1279      2072656B 
 1279      65792073 
 1280 0036 0000     		.align	2
 1281              	.LC4:
 1282 0038 45787465 		.string	"Extended Key ID supported"
 1282      6E646564 
 1282      204B6579 
 1282      20494420 
 1282      73757070 
 1283 0052 0000     		.align	2
 1284              	.LC5:
 1285 0054 57504120 		.string	"WPA initialization failed."
 1285      696E6974 
 1285      69616C69 
 1285      7A617469 
 1285      6F6E2066 
 1286 006f 00       		.align	2
 1287              	.LC6:
 1288 0070 436F756C 		.string	"Could not set PrivacyInvoked for interface %s"
 1288      64206E6F 
 1288      74207365 
 1288      74205072 
 1288      69766163 
 1289 009e 0000     		.align	2
 1290              	.LC7:
 1291 00a0 4661696C 		.string	"Failed to configure WPA IE for the kernel driver."
 1291      65642074 
 1291      6F20636F 
 1291      6E666967 
 1291      75726520 
 1292              		.section	.text.hostapd_setup_wpa,"ax",@progbits
 1293              		.align	1
 1294              		.globl	hostapd_setup_wpa
 1296              	hostapd_setup_wpa:
 1297              	.LFB199:
 998:C:/Users/stapi/OneDrive/Desktop/GD32VW553/V1_MQTT_OK/GD32VW55X_Wifi_BLE_SDK/GD32VW55x_RELEASE_V1.0.2/MSDK/wpa_supplicant/src/ap\wpa_auth_glue.c **** 
 999:C:/Users/stapi/OneDrive/Desktop/GD32VW553/V1_MQTT_OK/GD32VW55X_Wifi_BLE_SDK/GD32VW55x_RELEASE_V1.0.2/MSDK/wpa_supplicant/src/ap\wpa_auth_glue.c **** 
1000:C:/Users/stapi/OneDrive/Desktop/GD32VW553/V1_MQTT_OK/GD32VW55X_Wifi_BLE_SDK/GD32VW55x_RELEASE_V1.0.2/MSDK/wpa_supplicant/src/ap\wpa_auth_glue.c **** #ifdef CONFIG_OCV
1001:C:/Users/stapi/OneDrive/Desktop/GD32VW553/V1_MQTT_OK/GD32VW55X_Wifi_BLE_SDK/GD32VW55x_RELEASE_V1.0.2/MSDK/wpa_supplicant/src/ap\wpa_auth_glue.c **** static int hostapd_get_sta_tx_params(void *ctx, const u8 *addr,
1002:C:/Users/stapi/OneDrive/Desktop/GD32VW553/V1_MQTT_OK/GD32VW55X_Wifi_BLE_SDK/GD32VW55x_RELEASE_V1.0.2/MSDK/wpa_supplicant/src/ap\wpa_auth_glue.c **** 				     int ap_max_chanwidth, int ap_seg1_idx,
1003:C:/Users/stapi/OneDrive/Desktop/GD32VW553/V1_MQTT_OK/GD32VW55X_Wifi_BLE_SDK/GD32VW55x_RELEASE_V1.0.2/MSDK/wpa_supplicant/src/ap\wpa_auth_glue.c **** 				     int *bandwidth, int *seg1_idx)
1004:C:/Users/stapi/OneDrive/Desktop/GD32VW553/V1_MQTT_OK/GD32VW55X_Wifi_BLE_SDK/GD32VW55x_RELEASE_V1.0.2/MSDK/wpa_supplicant/src/ap\wpa_auth_glue.c **** {
1005:C:/Users/stapi/OneDrive/Desktop/GD32VW553/V1_MQTT_OK/GD32VW55X_Wifi_BLE_SDK/GD32VW55x_RELEASE_V1.0.2/MSDK/wpa_supplicant/src/ap\wpa_auth_glue.c **** 	struct hostapd_data *hapd = ctx;
1006:C:/Users/stapi/OneDrive/Desktop/GD32VW553/V1_MQTT_OK/GD32VW55X_Wifi_BLE_SDK/GD32VW55x_RELEASE_V1.0.2/MSDK/wpa_supplicant/src/ap\wpa_auth_glue.c **** 	struct sta_info *sta;
1007:C:/Users/stapi/OneDrive/Desktop/GD32VW553/V1_MQTT_OK/GD32VW55X_Wifi_BLE_SDK/GD32VW55x_RELEASE_V1.0.2/MSDK/wpa_supplicant/src/ap\wpa_auth_glue.c **** 
1008:C:/Users/stapi/OneDrive/Desktop/GD32VW553/V1_MQTT_OK/GD32VW55X_Wifi_BLE_SDK/GD32VW55x_RELEASE_V1.0.2/MSDK/wpa_supplicant/src/ap\wpa_auth_glue.c **** 	sta = ap_get_sta(hapd, addr);
1009:C:/Users/stapi/OneDrive/Desktop/GD32VW553/V1_MQTT_OK/GD32VW55X_Wifi_BLE_SDK/GD32VW55x_RELEASE_V1.0.2/MSDK/wpa_supplicant/src/ap\wpa_auth_glue.c **** 	if (!sta) {
1010:C:/Users/stapi/OneDrive/Desktop/GD32VW553/V1_MQTT_OK/GD32VW55X_Wifi_BLE_SDK/GD32VW55x_RELEASE_V1.0.2/MSDK/wpa_supplicant/src/ap\wpa_auth_glue.c **** 		hostapd_wpa_auth_logger(hapd, addr, LOGGER_INFO,
1011:C:/Users/stapi/OneDrive/Desktop/GD32VW553/V1_MQTT_OK/GD32VW55X_Wifi_BLE_SDK/GD32VW55x_RELEASE_V1.0.2/MSDK/wpa_supplicant/src/ap\wpa_auth_glue.c **** 					"Failed to get STA info to validate received OCI");
1012:C:/Users/stapi/OneDrive/Desktop/GD32VW553/V1_MQTT_OK/GD32VW55X_Wifi_BLE_SDK/GD32VW55x_RELEASE_V1.0.2/MSDK/wpa_supplicant/src/ap\wpa_auth_glue.c **** 		return -1;
1013:C:/Users/stapi/OneDrive/Desktop/GD32VW553/V1_MQTT_OK/GD32VW55X_Wifi_BLE_SDK/GD32VW55x_RELEASE_V1.0.2/MSDK/wpa_supplicant/src/ap\wpa_auth_glue.c **** 	}
1014:C:/Users/stapi/OneDrive/Desktop/GD32VW553/V1_MQTT_OK/GD32VW55X_Wifi_BLE_SDK/GD32VW55x_RELEASE_V1.0.2/MSDK/wpa_supplicant/src/ap\wpa_auth_glue.c **** 
1015:C:/Users/stapi/OneDrive/Desktop/GD32VW553/V1_MQTT_OK/GD32VW55X_Wifi_BLE_SDK/GD32VW55x_RELEASE_V1.0.2/MSDK/wpa_supplicant/src/ap\wpa_auth_glue.c **** 	return get_tx_parameters(sta, ap_max_chanwidth, ap_seg1_idx, bandwidth,
1016:C:/Users/stapi/OneDrive/Desktop/GD32VW553/V1_MQTT_OK/GD32VW55X_Wifi_BLE_SDK/GD32VW55x_RELEASE_V1.0.2/MSDK/wpa_supplicant/src/ap\wpa_auth_glue.c **** 				 seg1_idx);
1017:C:/Users/stapi/OneDrive/Desktop/GD32VW553/V1_MQTT_OK/GD32VW55X_Wifi_BLE_SDK/GD32VW55x_RELEASE_V1.0.2/MSDK/wpa_supplicant/src/ap\wpa_auth_glue.c **** }
1018:C:/Users/stapi/OneDrive/Desktop/GD32VW553/V1_MQTT_OK/GD32VW55X_Wifi_BLE_SDK/GD32VW55x_RELEASE_V1.0.2/MSDK/wpa_supplicant/src/ap\wpa_auth_glue.c **** #endif /* CONFIG_OCV */
1019:C:/Users/stapi/OneDrive/Desktop/GD32VW553/V1_MQTT_OK/GD32VW55X_Wifi_BLE_SDK/GD32VW55x_RELEASE_V1.0.2/MSDK/wpa_supplicant/src/ap\wpa_auth_glue.c **** 
1020:C:/Users/stapi/OneDrive/Desktop/GD32VW553/V1_MQTT_OK/GD32VW55X_Wifi_BLE_SDK/GD32VW55x_RELEASE_V1.0.2/MSDK/wpa_supplicant/src/ap\wpa_auth_glue.c **** 
1021:C:/Users/stapi/OneDrive/Desktop/GD32VW553/V1_MQTT_OK/GD32VW55X_Wifi_BLE_SDK/GD32VW55x_RELEASE_V1.0.2/MSDK/wpa_supplicant/src/ap\wpa_auth_glue.c **** #ifdef CONFIG_IEEE80211R_AP
1022:C:/Users/stapi/OneDrive/Desktop/GD32VW553/V1_MQTT_OK/GD32VW55X_Wifi_BLE_SDK/GD32VW55x_RELEASE_V1.0.2/MSDK/wpa_supplicant/src/ap\wpa_auth_glue.c **** 
1023:C:/Users/stapi/OneDrive/Desktop/GD32VW553/V1_MQTT_OK/GD32VW55X_Wifi_BLE_SDK/GD32VW55x_RELEASE_V1.0.2/MSDK/wpa_supplicant/src/ap\wpa_auth_glue.c **** static int hostapd_wpa_auth_send_ft_action(void *ctx, const u8 *dst,
1024:C:/Users/stapi/OneDrive/Desktop/GD32VW553/V1_MQTT_OK/GD32VW55X_Wifi_BLE_SDK/GD32VW55x_RELEASE_V1.0.2/MSDK/wpa_supplicant/src/ap\wpa_auth_glue.c **** 					   const u8 *data, size_t data_len)
1025:C:/Users/stapi/OneDrive/Desktop/GD32VW553/V1_MQTT_OK/GD32VW55X_Wifi_BLE_SDK/GD32VW55x_RELEASE_V1.0.2/MSDK/wpa_supplicant/src/ap\wpa_auth_glue.c **** {
1026:C:/Users/stapi/OneDrive/Desktop/GD32VW553/V1_MQTT_OK/GD32VW55X_Wifi_BLE_SDK/GD32VW55x_RELEASE_V1.0.2/MSDK/wpa_supplicant/src/ap\wpa_auth_glue.c **** 	struct hostapd_data *hapd = ctx;
1027:C:/Users/stapi/OneDrive/Desktop/GD32VW553/V1_MQTT_OK/GD32VW55X_Wifi_BLE_SDK/GD32VW55x_RELEASE_V1.0.2/MSDK/wpa_supplicant/src/ap\wpa_auth_glue.c **** 	int res;
1028:C:/Users/stapi/OneDrive/Desktop/GD32VW553/V1_MQTT_OK/GD32VW55X_Wifi_BLE_SDK/GD32VW55x_RELEASE_V1.0.2/MSDK/wpa_supplicant/src/ap\wpa_auth_glue.c **** 	struct ieee80211_mgmt *m;
1029:C:/Users/stapi/OneDrive/Desktop/GD32VW553/V1_MQTT_OK/GD32VW55X_Wifi_BLE_SDK/GD32VW55x_RELEASE_V1.0.2/MSDK/wpa_supplicant/src/ap\wpa_auth_glue.c **** 	size_t mlen;
1030:C:/Users/stapi/OneDrive/Desktop/GD32VW553/V1_MQTT_OK/GD32VW55X_Wifi_BLE_SDK/GD32VW55x_RELEASE_V1.0.2/MSDK/wpa_supplicant/src/ap\wpa_auth_glue.c **** 	struct sta_info *sta;
1031:C:/Users/stapi/OneDrive/Desktop/GD32VW553/V1_MQTT_OK/GD32VW55X_Wifi_BLE_SDK/GD32VW55x_RELEASE_V1.0.2/MSDK/wpa_supplicant/src/ap\wpa_auth_glue.c **** 
1032:C:/Users/stapi/OneDrive/Desktop/GD32VW553/V1_MQTT_OK/GD32VW55X_Wifi_BLE_SDK/GD32VW55x_RELEASE_V1.0.2/MSDK/wpa_supplicant/src/ap\wpa_auth_glue.c **** 	sta = ap_get_sta(hapd, dst);
1033:C:/Users/stapi/OneDrive/Desktop/GD32VW553/V1_MQTT_OK/GD32VW55X_Wifi_BLE_SDK/GD32VW55x_RELEASE_V1.0.2/MSDK/wpa_supplicant/src/ap\wpa_auth_glue.c **** 	if (sta == NULL || sta->wpa_sm == NULL)
1034:C:/Users/stapi/OneDrive/Desktop/GD32VW553/V1_MQTT_OK/GD32VW55X_Wifi_BLE_SDK/GD32VW55x_RELEASE_V1.0.2/MSDK/wpa_supplicant/src/ap\wpa_auth_glue.c **** 		return -1;
1035:C:/Users/stapi/OneDrive/Desktop/GD32VW553/V1_MQTT_OK/GD32VW55X_Wifi_BLE_SDK/GD32VW55x_RELEASE_V1.0.2/MSDK/wpa_supplicant/src/ap\wpa_auth_glue.c **** 
1036:C:/Users/stapi/OneDrive/Desktop/GD32VW553/V1_MQTT_OK/GD32VW55X_Wifi_BLE_SDK/GD32VW55x_RELEASE_V1.0.2/MSDK/wpa_supplicant/src/ap\wpa_auth_glue.c **** 	m = os_zalloc(sizeof(*m) + data_len);
1037:C:/Users/stapi/OneDrive/Desktop/GD32VW553/V1_MQTT_OK/GD32VW55X_Wifi_BLE_SDK/GD32VW55x_RELEASE_V1.0.2/MSDK/wpa_supplicant/src/ap\wpa_auth_glue.c **** 	if (m == NULL)
1038:C:/Users/stapi/OneDrive/Desktop/GD32VW553/V1_MQTT_OK/GD32VW55X_Wifi_BLE_SDK/GD32VW55x_RELEASE_V1.0.2/MSDK/wpa_supplicant/src/ap\wpa_auth_glue.c **** 		return -1;
1039:C:/Users/stapi/OneDrive/Desktop/GD32VW553/V1_MQTT_OK/GD32VW55X_Wifi_BLE_SDK/GD32VW55x_RELEASE_V1.0.2/MSDK/wpa_supplicant/src/ap\wpa_auth_glue.c **** 	mlen = ((u8 *) &m->u - (u8 *) m) + data_len;
1040:C:/Users/stapi/OneDrive/Desktop/GD32VW553/V1_MQTT_OK/GD32VW55X_Wifi_BLE_SDK/GD32VW55x_RELEASE_V1.0.2/MSDK/wpa_supplicant/src/ap\wpa_auth_glue.c **** 	m->frame_control = IEEE80211_FC(WLAN_FC_TYPE_MGMT,
1041:C:/Users/stapi/OneDrive/Desktop/GD32VW553/V1_MQTT_OK/GD32VW55X_Wifi_BLE_SDK/GD32VW55x_RELEASE_V1.0.2/MSDK/wpa_supplicant/src/ap\wpa_auth_glue.c **** 					WLAN_FC_STYPE_ACTION);
1042:C:/Users/stapi/OneDrive/Desktop/GD32VW553/V1_MQTT_OK/GD32VW55X_Wifi_BLE_SDK/GD32VW55x_RELEASE_V1.0.2/MSDK/wpa_supplicant/src/ap\wpa_auth_glue.c **** 	os_memcpy(m->da, dst, ETH_ALEN);
1043:C:/Users/stapi/OneDrive/Desktop/GD32VW553/V1_MQTT_OK/GD32VW55X_Wifi_BLE_SDK/GD32VW55x_RELEASE_V1.0.2/MSDK/wpa_supplicant/src/ap\wpa_auth_glue.c **** 	os_memcpy(m->sa, hapd->own_addr, ETH_ALEN);
1044:C:/Users/stapi/OneDrive/Desktop/GD32VW553/V1_MQTT_OK/GD32VW55X_Wifi_BLE_SDK/GD32VW55x_RELEASE_V1.0.2/MSDK/wpa_supplicant/src/ap\wpa_auth_glue.c **** 	os_memcpy(m->bssid, hapd->own_addr, ETH_ALEN);
1045:C:/Users/stapi/OneDrive/Desktop/GD32VW553/V1_MQTT_OK/GD32VW55X_Wifi_BLE_SDK/GD32VW55x_RELEASE_V1.0.2/MSDK/wpa_supplicant/src/ap\wpa_auth_glue.c **** 	os_memcpy(&m->u, data, data_len);
1046:C:/Users/stapi/OneDrive/Desktop/GD32VW553/V1_MQTT_OK/GD32VW55X_Wifi_BLE_SDK/GD32VW55x_RELEASE_V1.0.2/MSDK/wpa_supplicant/src/ap\wpa_auth_glue.c **** 
1047:C:/Users/stapi/OneDrive/Desktop/GD32VW553/V1_MQTT_OK/GD32VW55X_Wifi_BLE_SDK/GD32VW55x_RELEASE_V1.0.2/MSDK/wpa_supplicant/src/ap\wpa_auth_glue.c **** 	res = hostapd_drv_send_mlme(hapd, (u8 *) m, mlen, 0, NULL, 0, 0);
1048:C:/Users/stapi/OneDrive/Desktop/GD32VW553/V1_MQTT_OK/GD32VW55X_Wifi_BLE_SDK/GD32VW55x_RELEASE_V1.0.2/MSDK/wpa_supplicant/src/ap\wpa_auth_glue.c **** 	os_free(m);
1049:C:/Users/stapi/OneDrive/Desktop/GD32VW553/V1_MQTT_OK/GD32VW55X_Wifi_BLE_SDK/GD32VW55x_RELEASE_V1.0.2/MSDK/wpa_supplicant/src/ap\wpa_auth_glue.c **** 	return res;
1050:C:/Users/stapi/OneDrive/Desktop/GD32VW553/V1_MQTT_OK/GD32VW55X_Wifi_BLE_SDK/GD32VW55x_RELEASE_V1.0.2/MSDK/wpa_supplicant/src/ap\wpa_auth_glue.c **** }
1051:C:/Users/stapi/OneDrive/Desktop/GD32VW553/V1_MQTT_OK/GD32VW55X_Wifi_BLE_SDK/GD32VW55x_RELEASE_V1.0.2/MSDK/wpa_supplicant/src/ap\wpa_auth_glue.c **** 
1052:C:/Users/stapi/OneDrive/Desktop/GD32VW553/V1_MQTT_OK/GD32VW55X_Wifi_BLE_SDK/GD32VW55x_RELEASE_V1.0.2/MSDK/wpa_supplicant/src/ap\wpa_auth_glue.c **** 
1053:C:/Users/stapi/OneDrive/Desktop/GD32VW553/V1_MQTT_OK/GD32VW55X_Wifi_BLE_SDK/GD32VW55x_RELEASE_V1.0.2/MSDK/wpa_supplicant/src/ap\wpa_auth_glue.c **** static struct wpa_state_machine *
1054:C:/Users/stapi/OneDrive/Desktop/GD32VW553/V1_MQTT_OK/GD32VW55X_Wifi_BLE_SDK/GD32VW55x_RELEASE_V1.0.2/MSDK/wpa_supplicant/src/ap\wpa_auth_glue.c **** hostapd_wpa_auth_add_sta(void *ctx, const u8 *sta_addr)
1055:C:/Users/stapi/OneDrive/Desktop/GD32VW553/V1_MQTT_OK/GD32VW55X_Wifi_BLE_SDK/GD32VW55x_RELEASE_V1.0.2/MSDK/wpa_supplicant/src/ap\wpa_auth_glue.c **** {
1056:C:/Users/stapi/OneDrive/Desktop/GD32VW553/V1_MQTT_OK/GD32VW55X_Wifi_BLE_SDK/GD32VW55x_RELEASE_V1.0.2/MSDK/wpa_supplicant/src/ap\wpa_auth_glue.c **** 	struct hostapd_data *hapd = ctx;
1057:C:/Users/stapi/OneDrive/Desktop/GD32VW553/V1_MQTT_OK/GD32VW55X_Wifi_BLE_SDK/GD32VW55x_RELEASE_V1.0.2/MSDK/wpa_supplicant/src/ap\wpa_auth_glue.c **** 	struct sta_info *sta;
1058:C:/Users/stapi/OneDrive/Desktop/GD32VW553/V1_MQTT_OK/GD32VW55X_Wifi_BLE_SDK/GD32VW55x_RELEASE_V1.0.2/MSDK/wpa_supplicant/src/ap\wpa_auth_glue.c **** 	int ret;
1059:C:/Users/stapi/OneDrive/Desktop/GD32VW553/V1_MQTT_OK/GD32VW55X_Wifi_BLE_SDK/GD32VW55x_RELEASE_V1.0.2/MSDK/wpa_supplicant/src/ap\wpa_auth_glue.c **** 
1060:C:/Users/stapi/OneDrive/Desktop/GD32VW553/V1_MQTT_OK/GD32VW55X_Wifi_BLE_SDK/GD32VW55x_RELEASE_V1.0.2/MSDK/wpa_supplicant/src/ap\wpa_auth_glue.c **** 	wpa_printf(MSG_DEBUG, "Add station entry for " MACSTR
1061:C:/Users/stapi/OneDrive/Desktop/GD32VW553/V1_MQTT_OK/GD32VW55X_Wifi_BLE_SDK/GD32VW55x_RELEASE_V1.0.2/MSDK/wpa_supplicant/src/ap\wpa_auth_glue.c **** 		   " based on WPA authenticator callback",
1062:C:/Users/stapi/OneDrive/Desktop/GD32VW553/V1_MQTT_OK/GD32VW55X_Wifi_BLE_SDK/GD32VW55x_RELEASE_V1.0.2/MSDK/wpa_supplicant/src/ap\wpa_auth_glue.c **** 		   MAC2STR(sta_addr));
1063:C:/Users/stapi/OneDrive/Desktop/GD32VW553/V1_MQTT_OK/GD32VW55X_Wifi_BLE_SDK/GD32VW55x_RELEASE_V1.0.2/MSDK/wpa_supplicant/src/ap\wpa_auth_glue.c **** 	ret = hostapd_add_sta_node(hapd, sta_addr, WLAN_AUTH_FT);
1064:C:/Users/stapi/OneDrive/Desktop/GD32VW553/V1_MQTT_OK/GD32VW55X_Wifi_BLE_SDK/GD32VW55x_RELEASE_V1.0.2/MSDK/wpa_supplicant/src/ap\wpa_auth_glue.c **** 
1065:C:/Users/stapi/OneDrive/Desktop/GD32VW553/V1_MQTT_OK/GD32VW55X_Wifi_BLE_SDK/GD32VW55x_RELEASE_V1.0.2/MSDK/wpa_supplicant/src/ap\wpa_auth_glue.c **** 	/*
1066:C:/Users/stapi/OneDrive/Desktop/GD32VW553/V1_MQTT_OK/GD32VW55X_Wifi_BLE_SDK/GD32VW55x_RELEASE_V1.0.2/MSDK/wpa_supplicant/src/ap\wpa_auth_glue.c **** 	 * The expected return values from hostapd_add_sta_node() are
1067:C:/Users/stapi/OneDrive/Desktop/GD32VW553/V1_MQTT_OK/GD32VW55X_Wifi_BLE_SDK/GD32VW55x_RELEASE_V1.0.2/MSDK/wpa_supplicant/src/ap\wpa_auth_glue.c **** 	 * 0: successfully added STA entry
1068:C:/Users/stapi/OneDrive/Desktop/GD32VW553/V1_MQTT_OK/GD32VW55X_Wifi_BLE_SDK/GD32VW55x_RELEASE_V1.0.2/MSDK/wpa_supplicant/src/ap\wpa_auth_glue.c **** 	 * -EOPNOTSUPP: driver or driver wrapper does not support/need this
1069:C:/Users/stapi/OneDrive/Desktop/GD32VW553/V1_MQTT_OK/GD32VW55X_Wifi_BLE_SDK/GD32VW55x_RELEASE_V1.0.2/MSDK/wpa_supplicant/src/ap\wpa_auth_glue.c **** 	 *	operations
1070:C:/Users/stapi/OneDrive/Desktop/GD32VW553/V1_MQTT_OK/GD32VW55X_Wifi_BLE_SDK/GD32VW55x_RELEASE_V1.0.2/MSDK/wpa_supplicant/src/ap\wpa_auth_glue.c **** 	 * any other negative value: error in adding the STA entry */
1071:C:/Users/stapi/OneDrive/Desktop/GD32VW553/V1_MQTT_OK/GD32VW55X_Wifi_BLE_SDK/GD32VW55x_RELEASE_V1.0.2/MSDK/wpa_supplicant/src/ap\wpa_auth_glue.c **** 	if (ret < 0 && ret != -EOPNOTSUPP)
1072:C:/Users/stapi/OneDrive/Desktop/GD32VW553/V1_MQTT_OK/GD32VW55X_Wifi_BLE_SDK/GD32VW55x_RELEASE_V1.0.2/MSDK/wpa_supplicant/src/ap\wpa_auth_glue.c **** 		return NULL;
1073:C:/Users/stapi/OneDrive/Desktop/GD32VW553/V1_MQTT_OK/GD32VW55X_Wifi_BLE_SDK/GD32VW55x_RELEASE_V1.0.2/MSDK/wpa_supplicant/src/ap\wpa_auth_glue.c **** 
1074:C:/Users/stapi/OneDrive/Desktop/GD32VW553/V1_MQTT_OK/GD32VW55X_Wifi_BLE_SDK/GD32VW55x_RELEASE_V1.0.2/MSDK/wpa_supplicant/src/ap\wpa_auth_glue.c **** 	sta = ap_sta_add(hapd, sta_addr);
1075:C:/Users/stapi/OneDrive/Desktop/GD32VW553/V1_MQTT_OK/GD32VW55X_Wifi_BLE_SDK/GD32VW55x_RELEASE_V1.0.2/MSDK/wpa_supplicant/src/ap\wpa_auth_glue.c **** 	if (sta == NULL)
1076:C:/Users/stapi/OneDrive/Desktop/GD32VW553/V1_MQTT_OK/GD32VW55X_Wifi_BLE_SDK/GD32VW55x_RELEASE_V1.0.2/MSDK/wpa_supplicant/src/ap\wpa_auth_glue.c **** 		return NULL;
1077:C:/Users/stapi/OneDrive/Desktop/GD32VW553/V1_MQTT_OK/GD32VW55X_Wifi_BLE_SDK/GD32VW55x_RELEASE_V1.0.2/MSDK/wpa_supplicant/src/ap\wpa_auth_glue.c **** 	if (ret == 0)
1078:C:/Users/stapi/OneDrive/Desktop/GD32VW553/V1_MQTT_OK/GD32VW55X_Wifi_BLE_SDK/GD32VW55x_RELEASE_V1.0.2/MSDK/wpa_supplicant/src/ap\wpa_auth_glue.c **** 		sta->added_unassoc = 1;
1079:C:/Users/stapi/OneDrive/Desktop/GD32VW553/V1_MQTT_OK/GD32VW55X_Wifi_BLE_SDK/GD32VW55x_RELEASE_V1.0.2/MSDK/wpa_supplicant/src/ap\wpa_auth_glue.c **** 
1080:C:/Users/stapi/OneDrive/Desktop/GD32VW553/V1_MQTT_OK/GD32VW55X_Wifi_BLE_SDK/GD32VW55x_RELEASE_V1.0.2/MSDK/wpa_supplicant/src/ap\wpa_auth_glue.c **** 	sta->ft_over_ds = 1;
1081:C:/Users/stapi/OneDrive/Desktop/GD32VW553/V1_MQTT_OK/GD32VW55X_Wifi_BLE_SDK/GD32VW55x_RELEASE_V1.0.2/MSDK/wpa_supplicant/src/ap\wpa_auth_glue.c **** 	if (sta->wpa_sm) {
1082:C:/Users/stapi/OneDrive/Desktop/GD32VW553/V1_MQTT_OK/GD32VW55X_Wifi_BLE_SDK/GD32VW55x_RELEASE_V1.0.2/MSDK/wpa_supplicant/src/ap\wpa_auth_glue.c **** 		sta->auth_alg = WLAN_AUTH_FT;
1083:C:/Users/stapi/OneDrive/Desktop/GD32VW553/V1_MQTT_OK/GD32VW55X_Wifi_BLE_SDK/GD32VW55x_RELEASE_V1.0.2/MSDK/wpa_supplicant/src/ap\wpa_auth_glue.c **** 		return sta->wpa_sm;
1084:C:/Users/stapi/OneDrive/Desktop/GD32VW553/V1_MQTT_OK/GD32VW55X_Wifi_BLE_SDK/GD32VW55x_RELEASE_V1.0.2/MSDK/wpa_supplicant/src/ap\wpa_auth_glue.c **** 	}
1085:C:/Users/stapi/OneDrive/Desktop/GD32VW553/V1_MQTT_OK/GD32VW55X_Wifi_BLE_SDK/GD32VW55x_RELEASE_V1.0.2/MSDK/wpa_supplicant/src/ap\wpa_auth_glue.c **** 
1086:C:/Users/stapi/OneDrive/Desktop/GD32VW553/V1_MQTT_OK/GD32VW55X_Wifi_BLE_SDK/GD32VW55x_RELEASE_V1.0.2/MSDK/wpa_supplicant/src/ap\wpa_auth_glue.c **** 	sta->wpa_sm = wpa_auth_sta_init(hapd->wpa_auth, sta->addr, NULL);
1087:C:/Users/stapi/OneDrive/Desktop/GD32VW553/V1_MQTT_OK/GD32VW55X_Wifi_BLE_SDK/GD32VW55x_RELEASE_V1.0.2/MSDK/wpa_supplicant/src/ap\wpa_auth_glue.c **** 	if (sta->wpa_sm == NULL) {
1088:C:/Users/stapi/OneDrive/Desktop/GD32VW553/V1_MQTT_OK/GD32VW55X_Wifi_BLE_SDK/GD32VW55x_RELEASE_V1.0.2/MSDK/wpa_supplicant/src/ap\wpa_auth_glue.c **** 		ap_free_sta(hapd, sta);
1089:C:/Users/stapi/OneDrive/Desktop/GD32VW553/V1_MQTT_OK/GD32VW55X_Wifi_BLE_SDK/GD32VW55x_RELEASE_V1.0.2/MSDK/wpa_supplicant/src/ap\wpa_auth_glue.c **** 		return NULL;
1090:C:/Users/stapi/OneDrive/Desktop/GD32VW553/V1_MQTT_OK/GD32VW55X_Wifi_BLE_SDK/GD32VW55x_RELEASE_V1.0.2/MSDK/wpa_supplicant/src/ap\wpa_auth_glue.c **** 	}
1091:C:/Users/stapi/OneDrive/Desktop/GD32VW553/V1_MQTT_OK/GD32VW55X_Wifi_BLE_SDK/GD32VW55x_RELEASE_V1.0.2/MSDK/wpa_supplicant/src/ap\wpa_auth_glue.c **** 	sta->auth_alg = WLAN_AUTH_FT;
1092:C:/Users/stapi/OneDrive/Desktop/GD32VW553/V1_MQTT_OK/GD32VW55X_Wifi_BLE_SDK/GD32VW55x_RELEASE_V1.0.2/MSDK/wpa_supplicant/src/ap\wpa_auth_glue.c **** 
1093:C:/Users/stapi/OneDrive/Desktop/GD32VW553/V1_MQTT_OK/GD32VW55X_Wifi_BLE_SDK/GD32VW55x_RELEASE_V1.0.2/MSDK/wpa_supplicant/src/ap\wpa_auth_glue.c **** 	return sta->wpa_sm;
1094:C:/Users/stapi/OneDrive/Desktop/GD32VW553/V1_MQTT_OK/GD32VW55X_Wifi_BLE_SDK/GD32VW55x_RELEASE_V1.0.2/MSDK/wpa_supplicant/src/ap\wpa_auth_glue.c **** }
1095:C:/Users/stapi/OneDrive/Desktop/GD32VW553/V1_MQTT_OK/GD32VW55X_Wifi_BLE_SDK/GD32VW55x_RELEASE_V1.0.2/MSDK/wpa_supplicant/src/ap\wpa_auth_glue.c **** 
1096:C:/Users/stapi/OneDrive/Desktop/GD32VW553/V1_MQTT_OK/GD32VW55X_Wifi_BLE_SDK/GD32VW55x_RELEASE_V1.0.2/MSDK/wpa_supplicant/src/ap\wpa_auth_glue.c **** 
1097:C:/Users/stapi/OneDrive/Desktop/GD32VW553/V1_MQTT_OK/GD32VW55X_Wifi_BLE_SDK/GD32VW55x_RELEASE_V1.0.2/MSDK/wpa_supplicant/src/ap\wpa_auth_glue.c **** static int hostapd_wpa_auth_add_sta_ft(void *ctx, const u8 *sta_addr)
1098:C:/Users/stapi/OneDrive/Desktop/GD32VW553/V1_MQTT_OK/GD32VW55X_Wifi_BLE_SDK/GD32VW55x_RELEASE_V1.0.2/MSDK/wpa_supplicant/src/ap\wpa_auth_glue.c **** {
1099:C:/Users/stapi/OneDrive/Desktop/GD32VW553/V1_MQTT_OK/GD32VW55X_Wifi_BLE_SDK/GD32VW55x_RELEASE_V1.0.2/MSDK/wpa_supplicant/src/ap\wpa_auth_glue.c **** 	struct hostapd_data *hapd = ctx;
1100:C:/Users/stapi/OneDrive/Desktop/GD32VW553/V1_MQTT_OK/GD32VW55X_Wifi_BLE_SDK/GD32VW55x_RELEASE_V1.0.2/MSDK/wpa_supplicant/src/ap\wpa_auth_glue.c **** 	struct sta_info *sta;
1101:C:/Users/stapi/OneDrive/Desktop/GD32VW553/V1_MQTT_OK/GD32VW55X_Wifi_BLE_SDK/GD32VW55x_RELEASE_V1.0.2/MSDK/wpa_supplicant/src/ap\wpa_auth_glue.c **** 
1102:C:/Users/stapi/OneDrive/Desktop/GD32VW553/V1_MQTT_OK/GD32VW55X_Wifi_BLE_SDK/GD32VW55x_RELEASE_V1.0.2/MSDK/wpa_supplicant/src/ap\wpa_auth_glue.c **** 	sta = ap_get_sta(hapd, sta_addr);
1103:C:/Users/stapi/OneDrive/Desktop/GD32VW553/V1_MQTT_OK/GD32VW55X_Wifi_BLE_SDK/GD32VW55x_RELEASE_V1.0.2/MSDK/wpa_supplicant/src/ap\wpa_auth_glue.c **** 	if (!sta)
1104:C:/Users/stapi/OneDrive/Desktop/GD32VW553/V1_MQTT_OK/GD32VW55X_Wifi_BLE_SDK/GD32VW55x_RELEASE_V1.0.2/MSDK/wpa_supplicant/src/ap\wpa_auth_glue.c **** 		return -1;
1105:C:/Users/stapi/OneDrive/Desktop/GD32VW553/V1_MQTT_OK/GD32VW55X_Wifi_BLE_SDK/GD32VW55x_RELEASE_V1.0.2/MSDK/wpa_supplicant/src/ap\wpa_auth_glue.c **** 
1106:C:/Users/stapi/OneDrive/Desktop/GD32VW553/V1_MQTT_OK/GD32VW55X_Wifi_BLE_SDK/GD32VW55x_RELEASE_V1.0.2/MSDK/wpa_supplicant/src/ap\wpa_auth_glue.c **** 	if (FULL_AP_CLIENT_STATE_SUPP(hapd->iface->drv_flags) &&
1107:C:/Users/stapi/OneDrive/Desktop/GD32VW553/V1_MQTT_OK/GD32VW55X_Wifi_BLE_SDK/GD32VW55x_RELEASE_V1.0.2/MSDK/wpa_supplicant/src/ap\wpa_auth_glue.c **** 	    (sta->flags & WLAN_STA_MFP) && ap_sta_is_authorized(sta) &&
1108:C:/Users/stapi/OneDrive/Desktop/GD32VW553/V1_MQTT_OK/GD32VW55X_Wifi_BLE_SDK/GD32VW55x_RELEASE_V1.0.2/MSDK/wpa_supplicant/src/ap\wpa_auth_glue.c **** 	    !(hapd->conf->mesh & MESH_ENABLED) && !(sta->added_unassoc)) {
1109:C:/Users/stapi/OneDrive/Desktop/GD32VW553/V1_MQTT_OK/GD32VW55X_Wifi_BLE_SDK/GD32VW55x_RELEASE_V1.0.2/MSDK/wpa_supplicant/src/ap\wpa_auth_glue.c **** 		/* We could not do this in handle_auth() since there was a
1110:C:/Users/stapi/OneDrive/Desktop/GD32VW553/V1_MQTT_OK/GD32VW55X_Wifi_BLE_SDK/GD32VW55x_RELEASE_V1.0.2/MSDK/wpa_supplicant/src/ap\wpa_auth_glue.c **** 		 * PMF-enabled association for the STA and the new
1111:C:/Users/stapi/OneDrive/Desktop/GD32VW553/V1_MQTT_OK/GD32VW55X_Wifi_BLE_SDK/GD32VW55x_RELEASE_V1.0.2/MSDK/wpa_supplicant/src/ap\wpa_auth_glue.c **** 		 * authentication attempt was not yet fully processed. Now that
1112:C:/Users/stapi/OneDrive/Desktop/GD32VW553/V1_MQTT_OK/GD32VW55X_Wifi_BLE_SDK/GD32VW55x_RELEASE_V1.0.2/MSDK/wpa_supplicant/src/ap\wpa_auth_glue.c **** 		 * we are ready to configure the TK to the driver,
1113:C:/Users/stapi/OneDrive/Desktop/GD32VW553/V1_MQTT_OK/GD32VW55X_Wifi_BLE_SDK/GD32VW55x_RELEASE_V1.0.2/MSDK/wpa_supplicant/src/ap\wpa_auth_glue.c **** 		 * authentication has succeeded and we can clean up the driver
1114:C:/Users/stapi/OneDrive/Desktop/GD32VW553/V1_MQTT_OK/GD32VW55X_Wifi_BLE_SDK/GD32VW55x_RELEASE_V1.0.2/MSDK/wpa_supplicant/src/ap\wpa_auth_glue.c **** 		 * STA entry to avoid issues with any maintained state from the
1115:C:/Users/stapi/OneDrive/Desktop/GD32VW553/V1_MQTT_OK/GD32VW55X_Wifi_BLE_SDK/GD32VW55x_RELEASE_V1.0.2/MSDK/wpa_supplicant/src/ap\wpa_auth_glue.c **** 		 * previous association. */
1116:C:/Users/stapi/OneDrive/Desktop/GD32VW553/V1_MQTT_OK/GD32VW55X_Wifi_BLE_SDK/GD32VW55x_RELEASE_V1.0.2/MSDK/wpa_supplicant/src/ap\wpa_auth_glue.c **** 		wpa_printf(MSG_DEBUG,
1117:C:/Users/stapi/OneDrive/Desktop/GD32VW553/V1_MQTT_OK/GD32VW55X_Wifi_BLE_SDK/GD32VW55x_RELEASE_V1.0.2/MSDK/wpa_supplicant/src/ap\wpa_auth_glue.c **** 			   "FT: Remove and re-add driver STA entry after successful FT authentication");
1118:C:/Users/stapi/OneDrive/Desktop/GD32VW553/V1_MQTT_OK/GD32VW55X_Wifi_BLE_SDK/GD32VW55x_RELEASE_V1.0.2/MSDK/wpa_supplicant/src/ap\wpa_auth_glue.c **** 		return ap_sta_re_add(hapd, sta);
1119:C:/Users/stapi/OneDrive/Desktop/GD32VW553/V1_MQTT_OK/GD32VW55X_Wifi_BLE_SDK/GD32VW55x_RELEASE_V1.0.2/MSDK/wpa_supplicant/src/ap\wpa_auth_glue.c **** 	}
1120:C:/Users/stapi/OneDrive/Desktop/GD32VW553/V1_MQTT_OK/GD32VW55X_Wifi_BLE_SDK/GD32VW55x_RELEASE_V1.0.2/MSDK/wpa_supplicant/src/ap\wpa_auth_glue.c **** 
1121:C:/Users/stapi/OneDrive/Desktop/GD32VW553/V1_MQTT_OK/GD32VW55X_Wifi_BLE_SDK/GD32VW55x_RELEASE_V1.0.2/MSDK/wpa_supplicant/src/ap\wpa_auth_glue.c **** 	return 0;
1122:C:/Users/stapi/OneDrive/Desktop/GD32VW553/V1_MQTT_OK/GD32VW55X_Wifi_BLE_SDK/GD32VW55x_RELEASE_V1.0.2/MSDK/wpa_supplicant/src/ap\wpa_auth_glue.c **** }
1123:C:/Users/stapi/OneDrive/Desktop/GD32VW553/V1_MQTT_OK/GD32VW55X_Wifi_BLE_SDK/GD32VW55x_RELEASE_V1.0.2/MSDK/wpa_supplicant/src/ap\wpa_auth_glue.c **** 
1124:C:/Users/stapi/OneDrive/Desktop/GD32VW553/V1_MQTT_OK/GD32VW55X_Wifi_BLE_SDK/GD32VW55x_RELEASE_V1.0.2/MSDK/wpa_supplicant/src/ap\wpa_auth_glue.c **** 
1125:C:/Users/stapi/OneDrive/Desktop/GD32VW553/V1_MQTT_OK/GD32VW55X_Wifi_BLE_SDK/GD32VW55x_RELEASE_V1.0.2/MSDK/wpa_supplicant/src/ap\wpa_auth_glue.c **** static int hostapd_wpa_auth_set_vlan(void *ctx, const u8 *sta_addr,
1126:C:/Users/stapi/OneDrive/Desktop/GD32VW553/V1_MQTT_OK/GD32VW55X_Wifi_BLE_SDK/GD32VW55x_RELEASE_V1.0.2/MSDK/wpa_supplicant/src/ap\wpa_auth_glue.c **** 				     struct vlan_description *vlan)
1127:C:/Users/stapi/OneDrive/Desktop/GD32VW553/V1_MQTT_OK/GD32VW55X_Wifi_BLE_SDK/GD32VW55x_RELEASE_V1.0.2/MSDK/wpa_supplicant/src/ap\wpa_auth_glue.c **** {
1128:C:/Users/stapi/OneDrive/Desktop/GD32VW553/V1_MQTT_OK/GD32VW55X_Wifi_BLE_SDK/GD32VW55x_RELEASE_V1.0.2/MSDK/wpa_supplicant/src/ap\wpa_auth_glue.c **** 	struct hostapd_data *hapd = ctx;
1129:C:/Users/stapi/OneDrive/Desktop/GD32VW553/V1_MQTT_OK/GD32VW55X_Wifi_BLE_SDK/GD32VW55x_RELEASE_V1.0.2/MSDK/wpa_supplicant/src/ap\wpa_auth_glue.c **** 	struct sta_info *sta;
1130:C:/Users/stapi/OneDrive/Desktop/GD32VW553/V1_MQTT_OK/GD32VW55X_Wifi_BLE_SDK/GD32VW55x_RELEASE_V1.0.2/MSDK/wpa_supplicant/src/ap\wpa_auth_glue.c **** 
1131:C:/Users/stapi/OneDrive/Desktop/GD32VW553/V1_MQTT_OK/GD32VW55X_Wifi_BLE_SDK/GD32VW55x_RELEASE_V1.0.2/MSDK/wpa_supplicant/src/ap\wpa_auth_glue.c **** 	sta = ap_get_sta(hapd, sta_addr);
1132:C:/Users/stapi/OneDrive/Desktop/GD32VW553/V1_MQTT_OK/GD32VW55X_Wifi_BLE_SDK/GD32VW55x_RELEASE_V1.0.2/MSDK/wpa_supplicant/src/ap\wpa_auth_glue.c **** 	if (!sta || !sta->wpa_sm)
1133:C:/Users/stapi/OneDrive/Desktop/GD32VW553/V1_MQTT_OK/GD32VW55X_Wifi_BLE_SDK/GD32VW55x_RELEASE_V1.0.2/MSDK/wpa_supplicant/src/ap\wpa_auth_glue.c **** 		return -1;
1134:C:/Users/stapi/OneDrive/Desktop/GD32VW553/V1_MQTT_OK/GD32VW55X_Wifi_BLE_SDK/GD32VW55x_RELEASE_V1.0.2/MSDK/wpa_supplicant/src/ap\wpa_auth_glue.c **** 
1135:C:/Users/stapi/OneDrive/Desktop/GD32VW553/V1_MQTT_OK/GD32VW55X_Wifi_BLE_SDK/GD32VW55x_RELEASE_V1.0.2/MSDK/wpa_supplicant/src/ap\wpa_auth_glue.c **** 	if (vlan->notempty &&
1136:C:/Users/stapi/OneDrive/Desktop/GD32VW553/V1_MQTT_OK/GD32VW55X_Wifi_BLE_SDK/GD32VW55x_RELEASE_V1.0.2/MSDK/wpa_supplicant/src/ap\wpa_auth_glue.c **** 	    !hostapd_vlan_valid(hapd->conf->vlan, vlan)) {
1137:C:/Users/stapi/OneDrive/Desktop/GD32VW553/V1_MQTT_OK/GD32VW55X_Wifi_BLE_SDK/GD32VW55x_RELEASE_V1.0.2/MSDK/wpa_supplicant/src/ap\wpa_auth_glue.c **** 		hostapd_logger(hapd, sta->addr, HOSTAPD_MODULE_IEEE80211,
1138:C:/Users/stapi/OneDrive/Desktop/GD32VW553/V1_MQTT_OK/GD32VW55X_Wifi_BLE_SDK/GD32VW55x_RELEASE_V1.0.2/MSDK/wpa_supplicant/src/ap\wpa_auth_glue.c **** 			       HOSTAPD_LEVEL_INFO,
1139:C:/Users/stapi/OneDrive/Desktop/GD32VW553/V1_MQTT_OK/GD32VW55X_Wifi_BLE_SDK/GD32VW55x_RELEASE_V1.0.2/MSDK/wpa_supplicant/src/ap\wpa_auth_glue.c **** 			       "Invalid VLAN %d%s received from FT",
1140:C:/Users/stapi/OneDrive/Desktop/GD32VW553/V1_MQTT_OK/GD32VW55X_Wifi_BLE_SDK/GD32VW55x_RELEASE_V1.0.2/MSDK/wpa_supplicant/src/ap\wpa_auth_glue.c **** 			       vlan->untagged, vlan->tagged[0] ? "+" : "");
1141:C:/Users/stapi/OneDrive/Desktop/GD32VW553/V1_MQTT_OK/GD32VW55X_Wifi_BLE_SDK/GD32VW55x_RELEASE_V1.0.2/MSDK/wpa_supplicant/src/ap\wpa_auth_glue.c **** 		return -1;
1142:C:/Users/stapi/OneDrive/Desktop/GD32VW553/V1_MQTT_OK/GD32VW55X_Wifi_BLE_SDK/GD32VW55x_RELEASE_V1.0.2/MSDK/wpa_supplicant/src/ap\wpa_auth_glue.c **** 	}
1143:C:/Users/stapi/OneDrive/Desktop/GD32VW553/V1_MQTT_OK/GD32VW55X_Wifi_BLE_SDK/GD32VW55x_RELEASE_V1.0.2/MSDK/wpa_supplicant/src/ap\wpa_auth_glue.c **** 
1144:C:/Users/stapi/OneDrive/Desktop/GD32VW553/V1_MQTT_OK/GD32VW55X_Wifi_BLE_SDK/GD32VW55x_RELEASE_V1.0.2/MSDK/wpa_supplicant/src/ap\wpa_auth_glue.c **** 	if (ap_sta_set_vlan(hapd, sta, vlan) < 0)
1145:C:/Users/stapi/OneDrive/Desktop/GD32VW553/V1_MQTT_OK/GD32VW55X_Wifi_BLE_SDK/GD32VW55x_RELEASE_V1.0.2/MSDK/wpa_supplicant/src/ap\wpa_auth_glue.c **** 		return -1;
1146:C:/Users/stapi/OneDrive/Desktop/GD32VW553/V1_MQTT_OK/GD32VW55X_Wifi_BLE_SDK/GD32VW55x_RELEASE_V1.0.2/MSDK/wpa_supplicant/src/ap\wpa_auth_glue.c **** 	/* Configure wpa_group for GTK but ignore error due to driver not
1147:C:/Users/stapi/OneDrive/Desktop/GD32VW553/V1_MQTT_OK/GD32VW55X_Wifi_BLE_SDK/GD32VW55x_RELEASE_V1.0.2/MSDK/wpa_supplicant/src/ap\wpa_auth_glue.c **** 	 * knowing this STA. */
1148:C:/Users/stapi/OneDrive/Desktop/GD32VW553/V1_MQTT_OK/GD32VW55X_Wifi_BLE_SDK/GD32VW55x_RELEASE_V1.0.2/MSDK/wpa_supplicant/src/ap\wpa_auth_glue.c **** 	ap_sta_bind_vlan(hapd, sta);
1149:C:/Users/stapi/OneDrive/Desktop/GD32VW553/V1_MQTT_OK/GD32VW55X_Wifi_BLE_SDK/GD32VW55x_RELEASE_V1.0.2/MSDK/wpa_supplicant/src/ap\wpa_auth_glue.c **** 
1150:C:/Users/stapi/OneDrive/Desktop/GD32VW553/V1_MQTT_OK/GD32VW55X_Wifi_BLE_SDK/GD32VW55x_RELEASE_V1.0.2/MSDK/wpa_supplicant/src/ap\wpa_auth_glue.c **** 	if (sta->vlan_id)
1151:C:/Users/stapi/OneDrive/Desktop/GD32VW553/V1_MQTT_OK/GD32VW55X_Wifi_BLE_SDK/GD32VW55x_RELEASE_V1.0.2/MSDK/wpa_supplicant/src/ap\wpa_auth_glue.c **** 		hostapd_logger(hapd, sta->addr, HOSTAPD_MODULE_IEEE80211,
1152:C:/Users/stapi/OneDrive/Desktop/GD32VW553/V1_MQTT_OK/GD32VW55X_Wifi_BLE_SDK/GD32VW55x_RELEASE_V1.0.2/MSDK/wpa_supplicant/src/ap\wpa_auth_glue.c **** 			       HOSTAPD_LEVEL_INFO, "VLAN ID %d", sta->vlan_id);
1153:C:/Users/stapi/OneDrive/Desktop/GD32VW553/V1_MQTT_OK/GD32VW55X_Wifi_BLE_SDK/GD32VW55x_RELEASE_V1.0.2/MSDK/wpa_supplicant/src/ap\wpa_auth_glue.c **** 
1154:C:/Users/stapi/OneDrive/Desktop/GD32VW553/V1_MQTT_OK/GD32VW55X_Wifi_BLE_SDK/GD32VW55x_RELEASE_V1.0.2/MSDK/wpa_supplicant/src/ap\wpa_auth_glue.c **** 	return 0;
1155:C:/Users/stapi/OneDrive/Desktop/GD32VW553/V1_MQTT_OK/GD32VW55X_Wifi_BLE_SDK/GD32VW55x_RELEASE_V1.0.2/MSDK/wpa_supplicant/src/ap\wpa_auth_glue.c **** }
1156:C:/Users/stapi/OneDrive/Desktop/GD32VW553/V1_MQTT_OK/GD32VW55X_Wifi_BLE_SDK/GD32VW55x_RELEASE_V1.0.2/MSDK/wpa_supplicant/src/ap\wpa_auth_glue.c **** 
1157:C:/Users/stapi/OneDrive/Desktop/GD32VW553/V1_MQTT_OK/GD32VW55X_Wifi_BLE_SDK/GD32VW55x_RELEASE_V1.0.2/MSDK/wpa_supplicant/src/ap\wpa_auth_glue.c **** 
1158:C:/Users/stapi/OneDrive/Desktop/GD32VW553/V1_MQTT_OK/GD32VW55X_Wifi_BLE_SDK/GD32VW55x_RELEASE_V1.0.2/MSDK/wpa_supplicant/src/ap\wpa_auth_glue.c **** static int hostapd_wpa_auth_get_vlan(void *ctx, const u8 *sta_addr,
1159:C:/Users/stapi/OneDrive/Desktop/GD32VW553/V1_MQTT_OK/GD32VW55X_Wifi_BLE_SDK/GD32VW55x_RELEASE_V1.0.2/MSDK/wpa_supplicant/src/ap\wpa_auth_glue.c **** 				     struct vlan_description *vlan)
1160:C:/Users/stapi/OneDrive/Desktop/GD32VW553/V1_MQTT_OK/GD32VW55X_Wifi_BLE_SDK/GD32VW55x_RELEASE_V1.0.2/MSDK/wpa_supplicant/src/ap\wpa_auth_glue.c **** {
1161:C:/Users/stapi/OneDrive/Desktop/GD32VW553/V1_MQTT_OK/GD32VW55X_Wifi_BLE_SDK/GD32VW55x_RELEASE_V1.0.2/MSDK/wpa_supplicant/src/ap\wpa_auth_glue.c **** 	struct hostapd_data *hapd = ctx;
1162:C:/Users/stapi/OneDrive/Desktop/GD32VW553/V1_MQTT_OK/GD32VW55X_Wifi_BLE_SDK/GD32VW55x_RELEASE_V1.0.2/MSDK/wpa_supplicant/src/ap\wpa_auth_glue.c **** 	struct sta_info *sta;
1163:C:/Users/stapi/OneDrive/Desktop/GD32VW553/V1_MQTT_OK/GD32VW55X_Wifi_BLE_SDK/GD32VW55x_RELEASE_V1.0.2/MSDK/wpa_supplicant/src/ap\wpa_auth_glue.c **** 
1164:C:/Users/stapi/OneDrive/Desktop/GD32VW553/V1_MQTT_OK/GD32VW55X_Wifi_BLE_SDK/GD32VW55x_RELEASE_V1.0.2/MSDK/wpa_supplicant/src/ap\wpa_auth_glue.c **** 	sta = ap_get_sta(hapd, sta_addr);
1165:C:/Users/stapi/OneDrive/Desktop/GD32VW553/V1_MQTT_OK/GD32VW55X_Wifi_BLE_SDK/GD32VW55x_RELEASE_V1.0.2/MSDK/wpa_supplicant/src/ap\wpa_auth_glue.c **** 	if (!sta)
1166:C:/Users/stapi/OneDrive/Desktop/GD32VW553/V1_MQTT_OK/GD32VW55X_Wifi_BLE_SDK/GD32VW55x_RELEASE_V1.0.2/MSDK/wpa_supplicant/src/ap\wpa_auth_glue.c **** 		return -1;
1167:C:/Users/stapi/OneDrive/Desktop/GD32VW553/V1_MQTT_OK/GD32VW55X_Wifi_BLE_SDK/GD32VW55x_RELEASE_V1.0.2/MSDK/wpa_supplicant/src/ap\wpa_auth_glue.c **** 
1168:C:/Users/stapi/OneDrive/Desktop/GD32VW553/V1_MQTT_OK/GD32VW55X_Wifi_BLE_SDK/GD32VW55x_RELEASE_V1.0.2/MSDK/wpa_supplicant/src/ap\wpa_auth_glue.c **** 	if (sta->vlan_desc)
1169:C:/Users/stapi/OneDrive/Desktop/GD32VW553/V1_MQTT_OK/GD32VW55X_Wifi_BLE_SDK/GD32VW55x_RELEASE_V1.0.2/MSDK/wpa_supplicant/src/ap\wpa_auth_glue.c **** 		*vlan = *sta->vlan_desc;
1170:C:/Users/stapi/OneDrive/Desktop/GD32VW553/V1_MQTT_OK/GD32VW55X_Wifi_BLE_SDK/GD32VW55x_RELEASE_V1.0.2/MSDK/wpa_supplicant/src/ap\wpa_auth_glue.c **** 	else
1171:C:/Users/stapi/OneDrive/Desktop/GD32VW553/V1_MQTT_OK/GD32VW55X_Wifi_BLE_SDK/GD32VW55x_RELEASE_V1.0.2/MSDK/wpa_supplicant/src/ap\wpa_auth_glue.c **** 		os_memset(vlan, 0, sizeof(*vlan));
1172:C:/Users/stapi/OneDrive/Desktop/GD32VW553/V1_MQTT_OK/GD32VW55X_Wifi_BLE_SDK/GD32VW55x_RELEASE_V1.0.2/MSDK/wpa_supplicant/src/ap\wpa_auth_glue.c **** 
1173:C:/Users/stapi/OneDrive/Desktop/GD32VW553/V1_MQTT_OK/GD32VW55X_Wifi_BLE_SDK/GD32VW55x_RELEASE_V1.0.2/MSDK/wpa_supplicant/src/ap\wpa_auth_glue.c **** 	return 0;
1174:C:/Users/stapi/OneDrive/Desktop/GD32VW553/V1_MQTT_OK/GD32VW55X_Wifi_BLE_SDK/GD32VW55x_RELEASE_V1.0.2/MSDK/wpa_supplicant/src/ap\wpa_auth_glue.c **** }
1175:C:/Users/stapi/OneDrive/Desktop/GD32VW553/V1_MQTT_OK/GD32VW55X_Wifi_BLE_SDK/GD32VW55x_RELEASE_V1.0.2/MSDK/wpa_supplicant/src/ap\wpa_auth_glue.c **** 
1176:C:/Users/stapi/OneDrive/Desktop/GD32VW553/V1_MQTT_OK/GD32VW55X_Wifi_BLE_SDK/GD32VW55x_RELEASE_V1.0.2/MSDK/wpa_supplicant/src/ap\wpa_auth_glue.c **** 
1177:C:/Users/stapi/OneDrive/Desktop/GD32VW553/V1_MQTT_OK/GD32VW55X_Wifi_BLE_SDK/GD32VW55x_RELEASE_V1.0.2/MSDK/wpa_supplicant/src/ap\wpa_auth_glue.c **** static int
1178:C:/Users/stapi/OneDrive/Desktop/GD32VW553/V1_MQTT_OK/GD32VW55X_Wifi_BLE_SDK/GD32VW55x_RELEASE_V1.0.2/MSDK/wpa_supplicant/src/ap\wpa_auth_glue.c **** hostapd_wpa_auth_set_identity(void *ctx, const u8 *sta_addr,
1179:C:/Users/stapi/OneDrive/Desktop/GD32VW553/V1_MQTT_OK/GD32VW55X_Wifi_BLE_SDK/GD32VW55x_RELEASE_V1.0.2/MSDK/wpa_supplicant/src/ap\wpa_auth_glue.c **** 			      const u8 *identity, size_t identity_len)
1180:C:/Users/stapi/OneDrive/Desktop/GD32VW553/V1_MQTT_OK/GD32VW55X_Wifi_BLE_SDK/GD32VW55x_RELEASE_V1.0.2/MSDK/wpa_supplicant/src/ap\wpa_auth_glue.c **** {
1181:C:/Users/stapi/OneDrive/Desktop/GD32VW553/V1_MQTT_OK/GD32VW55X_Wifi_BLE_SDK/GD32VW55x_RELEASE_V1.0.2/MSDK/wpa_supplicant/src/ap\wpa_auth_glue.c **** 	struct hostapd_data *hapd = ctx;
1182:C:/Users/stapi/OneDrive/Desktop/GD32VW553/V1_MQTT_OK/GD32VW55X_Wifi_BLE_SDK/GD32VW55x_RELEASE_V1.0.2/MSDK/wpa_supplicant/src/ap\wpa_auth_glue.c **** 	struct sta_info *sta;
1183:C:/Users/stapi/OneDrive/Desktop/GD32VW553/V1_MQTT_OK/GD32VW55X_Wifi_BLE_SDK/GD32VW55x_RELEASE_V1.0.2/MSDK/wpa_supplicant/src/ap\wpa_auth_glue.c **** 
1184:C:/Users/stapi/OneDrive/Desktop/GD32VW553/V1_MQTT_OK/GD32VW55X_Wifi_BLE_SDK/GD32VW55x_RELEASE_V1.0.2/MSDK/wpa_supplicant/src/ap\wpa_auth_glue.c **** 	sta = ap_get_sta(hapd, sta_addr);
1185:C:/Users/stapi/OneDrive/Desktop/GD32VW553/V1_MQTT_OK/GD32VW55X_Wifi_BLE_SDK/GD32VW55x_RELEASE_V1.0.2/MSDK/wpa_supplicant/src/ap\wpa_auth_glue.c **** 	if (!sta)
1186:C:/Users/stapi/OneDrive/Desktop/GD32VW553/V1_MQTT_OK/GD32VW55X_Wifi_BLE_SDK/GD32VW55x_RELEASE_V1.0.2/MSDK/wpa_supplicant/src/ap\wpa_auth_glue.c **** 		return -1;
1187:C:/Users/stapi/OneDrive/Desktop/GD32VW553/V1_MQTT_OK/GD32VW55X_Wifi_BLE_SDK/GD32VW55x_RELEASE_V1.0.2/MSDK/wpa_supplicant/src/ap\wpa_auth_glue.c **** 
1188:C:/Users/stapi/OneDrive/Desktop/GD32VW553/V1_MQTT_OK/GD32VW55X_Wifi_BLE_SDK/GD32VW55x_RELEASE_V1.0.2/MSDK/wpa_supplicant/src/ap\wpa_auth_glue.c **** 	os_free(sta->identity);
1189:C:/Users/stapi/OneDrive/Desktop/GD32VW553/V1_MQTT_OK/GD32VW55X_Wifi_BLE_SDK/GD32VW55x_RELEASE_V1.0.2/MSDK/wpa_supplicant/src/ap\wpa_auth_glue.c **** 	sta->identity = NULL;
1190:C:/Users/stapi/OneDrive/Desktop/GD32VW553/V1_MQTT_OK/GD32VW55X_Wifi_BLE_SDK/GD32VW55x_RELEASE_V1.0.2/MSDK/wpa_supplicant/src/ap\wpa_auth_glue.c **** 
1191:C:/Users/stapi/OneDrive/Desktop/GD32VW553/V1_MQTT_OK/GD32VW55X_Wifi_BLE_SDK/GD32VW55x_RELEASE_V1.0.2/MSDK/wpa_supplicant/src/ap\wpa_auth_glue.c **** 	if (sta->eapol_sm) {
1192:C:/Users/stapi/OneDrive/Desktop/GD32VW553/V1_MQTT_OK/GD32VW55X_Wifi_BLE_SDK/GD32VW55x_RELEASE_V1.0.2/MSDK/wpa_supplicant/src/ap\wpa_auth_glue.c **** 		os_free(sta->eapol_sm->identity);
1193:C:/Users/stapi/OneDrive/Desktop/GD32VW553/V1_MQTT_OK/GD32VW55X_Wifi_BLE_SDK/GD32VW55x_RELEASE_V1.0.2/MSDK/wpa_supplicant/src/ap\wpa_auth_glue.c **** 		sta->eapol_sm->identity = NULL;
1194:C:/Users/stapi/OneDrive/Desktop/GD32VW553/V1_MQTT_OK/GD32VW55X_Wifi_BLE_SDK/GD32VW55x_RELEASE_V1.0.2/MSDK/wpa_supplicant/src/ap\wpa_auth_glue.c **** 		sta->eapol_sm->identity_len = 0;
1195:C:/Users/stapi/OneDrive/Desktop/GD32VW553/V1_MQTT_OK/GD32VW55X_Wifi_BLE_SDK/GD32VW55x_RELEASE_V1.0.2/MSDK/wpa_supplicant/src/ap\wpa_auth_glue.c **** 	}
1196:C:/Users/stapi/OneDrive/Desktop/GD32VW553/V1_MQTT_OK/GD32VW55X_Wifi_BLE_SDK/GD32VW55x_RELEASE_V1.0.2/MSDK/wpa_supplicant/src/ap\wpa_auth_glue.c **** 
1197:C:/Users/stapi/OneDrive/Desktop/GD32VW553/V1_MQTT_OK/GD32VW55X_Wifi_BLE_SDK/GD32VW55x_RELEASE_V1.0.2/MSDK/wpa_supplicant/src/ap\wpa_auth_glue.c **** 	if (!identity_len)
1198:C:/Users/stapi/OneDrive/Desktop/GD32VW553/V1_MQTT_OK/GD32VW55X_Wifi_BLE_SDK/GD32VW55x_RELEASE_V1.0.2/MSDK/wpa_supplicant/src/ap\wpa_auth_glue.c **** 		return 0;
1199:C:/Users/stapi/OneDrive/Desktop/GD32VW553/V1_MQTT_OK/GD32VW55X_Wifi_BLE_SDK/GD32VW55x_RELEASE_V1.0.2/MSDK/wpa_supplicant/src/ap\wpa_auth_glue.c **** 
1200:C:/Users/stapi/OneDrive/Desktop/GD32VW553/V1_MQTT_OK/GD32VW55X_Wifi_BLE_SDK/GD32VW55x_RELEASE_V1.0.2/MSDK/wpa_supplicant/src/ap\wpa_auth_glue.c **** 	/* sta->identity is NULL terminated */
1201:C:/Users/stapi/OneDrive/Desktop/GD32VW553/V1_MQTT_OK/GD32VW55X_Wifi_BLE_SDK/GD32VW55x_RELEASE_V1.0.2/MSDK/wpa_supplicant/src/ap\wpa_auth_glue.c **** 	sta->identity = os_zalloc(identity_len + 1);
1202:C:/Users/stapi/OneDrive/Desktop/GD32VW553/V1_MQTT_OK/GD32VW55X_Wifi_BLE_SDK/GD32VW55x_RELEASE_V1.0.2/MSDK/wpa_supplicant/src/ap\wpa_auth_glue.c **** 	if (!sta->identity)
1203:C:/Users/stapi/OneDrive/Desktop/GD32VW553/V1_MQTT_OK/GD32VW55X_Wifi_BLE_SDK/GD32VW55x_RELEASE_V1.0.2/MSDK/wpa_supplicant/src/ap\wpa_auth_glue.c **** 		return -1;
1204:C:/Users/stapi/OneDrive/Desktop/GD32VW553/V1_MQTT_OK/GD32VW55X_Wifi_BLE_SDK/GD32VW55x_RELEASE_V1.0.2/MSDK/wpa_supplicant/src/ap\wpa_auth_glue.c **** 	os_memcpy(sta->identity, identity, identity_len);
1205:C:/Users/stapi/OneDrive/Desktop/GD32VW553/V1_MQTT_OK/GD32VW55X_Wifi_BLE_SDK/GD32VW55x_RELEASE_V1.0.2/MSDK/wpa_supplicant/src/ap\wpa_auth_glue.c **** 
1206:C:/Users/stapi/OneDrive/Desktop/GD32VW553/V1_MQTT_OK/GD32VW55X_Wifi_BLE_SDK/GD32VW55x_RELEASE_V1.0.2/MSDK/wpa_supplicant/src/ap\wpa_auth_glue.c **** 	if (sta->eapol_sm) {
1207:C:/Users/stapi/OneDrive/Desktop/GD32VW553/V1_MQTT_OK/GD32VW55X_Wifi_BLE_SDK/GD32VW55x_RELEASE_V1.0.2/MSDK/wpa_supplicant/src/ap\wpa_auth_glue.c **** 		sta->eapol_sm->identity = os_zalloc(identity_len);
1208:C:/Users/stapi/OneDrive/Desktop/GD32VW553/V1_MQTT_OK/GD32VW55X_Wifi_BLE_SDK/GD32VW55x_RELEASE_V1.0.2/MSDK/wpa_supplicant/src/ap\wpa_auth_glue.c **** 		if (!sta->eapol_sm->identity)
1209:C:/Users/stapi/OneDrive/Desktop/GD32VW553/V1_MQTT_OK/GD32VW55X_Wifi_BLE_SDK/GD32VW55x_RELEASE_V1.0.2/MSDK/wpa_supplicant/src/ap\wpa_auth_glue.c **** 			return -1;
1210:C:/Users/stapi/OneDrive/Desktop/GD32VW553/V1_MQTT_OK/GD32VW55X_Wifi_BLE_SDK/GD32VW55x_RELEASE_V1.0.2/MSDK/wpa_supplicant/src/ap\wpa_auth_glue.c **** 		os_memcpy(sta->eapol_sm->identity, identity, identity_len);
1211:C:/Users/stapi/OneDrive/Desktop/GD32VW553/V1_MQTT_OK/GD32VW55X_Wifi_BLE_SDK/GD32VW55x_RELEASE_V1.0.2/MSDK/wpa_supplicant/src/ap\wpa_auth_glue.c **** 		sta->eapol_sm->identity_len = identity_len;
1212:C:/Users/stapi/OneDrive/Desktop/GD32VW553/V1_MQTT_OK/GD32VW55X_Wifi_BLE_SDK/GD32VW55x_RELEASE_V1.0.2/MSDK/wpa_supplicant/src/ap\wpa_auth_glue.c **** 	}
1213:C:/Users/stapi/OneDrive/Desktop/GD32VW553/V1_MQTT_OK/GD32VW55X_Wifi_BLE_SDK/GD32VW55x_RELEASE_V1.0.2/MSDK/wpa_supplicant/src/ap\wpa_auth_glue.c **** 
1214:C:/Users/stapi/OneDrive/Desktop/GD32VW553/V1_MQTT_OK/GD32VW55X_Wifi_BLE_SDK/GD32VW55x_RELEASE_V1.0.2/MSDK/wpa_supplicant/src/ap\wpa_auth_glue.c **** 	return 0;
1215:C:/Users/stapi/OneDrive/Desktop/GD32VW553/V1_MQTT_OK/GD32VW55X_Wifi_BLE_SDK/GD32VW55x_RELEASE_V1.0.2/MSDK/wpa_supplicant/src/ap\wpa_auth_glue.c **** }
1216:C:/Users/stapi/OneDrive/Desktop/GD32VW553/V1_MQTT_OK/GD32VW55X_Wifi_BLE_SDK/GD32VW55x_RELEASE_V1.0.2/MSDK/wpa_supplicant/src/ap\wpa_auth_glue.c **** 
1217:C:/Users/stapi/OneDrive/Desktop/GD32VW553/V1_MQTT_OK/GD32VW55X_Wifi_BLE_SDK/GD32VW55x_RELEASE_V1.0.2/MSDK/wpa_supplicant/src/ap\wpa_auth_glue.c **** 
1218:C:/Users/stapi/OneDrive/Desktop/GD32VW553/V1_MQTT_OK/GD32VW55X_Wifi_BLE_SDK/GD32VW55x_RELEASE_V1.0.2/MSDK/wpa_supplicant/src/ap\wpa_auth_glue.c **** static size_t
1219:C:/Users/stapi/OneDrive/Desktop/GD32VW553/V1_MQTT_OK/GD32VW55X_Wifi_BLE_SDK/GD32VW55x_RELEASE_V1.0.2/MSDK/wpa_supplicant/src/ap\wpa_auth_glue.c **** hostapd_wpa_auth_get_identity(void *ctx, const u8 *sta_addr, const u8 **buf)
1220:C:/Users/stapi/OneDrive/Desktop/GD32VW553/V1_MQTT_OK/GD32VW55X_Wifi_BLE_SDK/GD32VW55x_RELEASE_V1.0.2/MSDK/wpa_supplicant/src/ap\wpa_auth_glue.c **** {
1221:C:/Users/stapi/OneDrive/Desktop/GD32VW553/V1_MQTT_OK/GD32VW55X_Wifi_BLE_SDK/GD32VW55x_RELEASE_V1.0.2/MSDK/wpa_supplicant/src/ap\wpa_auth_glue.c **** 	struct hostapd_data *hapd = ctx;
1222:C:/Users/stapi/OneDrive/Desktop/GD32VW553/V1_MQTT_OK/GD32VW55X_Wifi_BLE_SDK/GD32VW55x_RELEASE_V1.0.2/MSDK/wpa_supplicant/src/ap\wpa_auth_glue.c **** 	struct sta_info *sta;
1223:C:/Users/stapi/OneDrive/Desktop/GD32VW553/V1_MQTT_OK/GD32VW55X_Wifi_BLE_SDK/GD32VW55x_RELEASE_V1.0.2/MSDK/wpa_supplicant/src/ap\wpa_auth_glue.c **** 	size_t len;
1224:C:/Users/stapi/OneDrive/Desktop/GD32VW553/V1_MQTT_OK/GD32VW55X_Wifi_BLE_SDK/GD32VW55x_RELEASE_V1.0.2/MSDK/wpa_supplicant/src/ap\wpa_auth_glue.c **** 	char *identity;
1225:C:/Users/stapi/OneDrive/Desktop/GD32VW553/V1_MQTT_OK/GD32VW55X_Wifi_BLE_SDK/GD32VW55x_RELEASE_V1.0.2/MSDK/wpa_supplicant/src/ap\wpa_auth_glue.c **** 
1226:C:/Users/stapi/OneDrive/Desktop/GD32VW553/V1_MQTT_OK/GD32VW55X_Wifi_BLE_SDK/GD32VW55x_RELEASE_V1.0.2/MSDK/wpa_supplicant/src/ap\wpa_auth_glue.c **** 	sta = ap_get_sta(hapd, sta_addr);
1227:C:/Users/stapi/OneDrive/Desktop/GD32VW553/V1_MQTT_OK/GD32VW55X_Wifi_BLE_SDK/GD32VW55x_RELEASE_V1.0.2/MSDK/wpa_supplicant/src/ap\wpa_auth_glue.c **** 	if (!sta)
1228:C:/Users/stapi/OneDrive/Desktop/GD32VW553/V1_MQTT_OK/GD32VW55X_Wifi_BLE_SDK/GD32VW55x_RELEASE_V1.0.2/MSDK/wpa_supplicant/src/ap\wpa_auth_glue.c **** 		return 0;
1229:C:/Users/stapi/OneDrive/Desktop/GD32VW553/V1_MQTT_OK/GD32VW55X_Wifi_BLE_SDK/GD32VW55x_RELEASE_V1.0.2/MSDK/wpa_supplicant/src/ap\wpa_auth_glue.c **** 
1230:C:/Users/stapi/OneDrive/Desktop/GD32VW553/V1_MQTT_OK/GD32VW55X_Wifi_BLE_SDK/GD32VW55x_RELEASE_V1.0.2/MSDK/wpa_supplicant/src/ap\wpa_auth_glue.c **** 	*buf = ieee802_1x_get_identity(sta->eapol_sm, &len);
1231:C:/Users/stapi/OneDrive/Desktop/GD32VW553/V1_MQTT_OK/GD32VW55X_Wifi_BLE_SDK/GD32VW55x_RELEASE_V1.0.2/MSDK/wpa_supplicant/src/ap\wpa_auth_glue.c **** 	if (*buf && len)
1232:C:/Users/stapi/OneDrive/Desktop/GD32VW553/V1_MQTT_OK/GD32VW55X_Wifi_BLE_SDK/GD32VW55x_RELEASE_V1.0.2/MSDK/wpa_supplicant/src/ap\wpa_auth_glue.c **** 		return len;
1233:C:/Users/stapi/OneDrive/Desktop/GD32VW553/V1_MQTT_OK/GD32VW55X_Wifi_BLE_SDK/GD32VW55x_RELEASE_V1.0.2/MSDK/wpa_supplicant/src/ap\wpa_auth_glue.c **** 
1234:C:/Users/stapi/OneDrive/Desktop/GD32VW553/V1_MQTT_OK/GD32VW55X_Wifi_BLE_SDK/GD32VW55x_RELEASE_V1.0.2/MSDK/wpa_supplicant/src/ap\wpa_auth_glue.c **** 	if (!sta->identity) {
1235:C:/Users/stapi/OneDrive/Desktop/GD32VW553/V1_MQTT_OK/GD32VW55X_Wifi_BLE_SDK/GD32VW55x_RELEASE_V1.0.2/MSDK/wpa_supplicant/src/ap\wpa_auth_glue.c **** 		*buf = NULL;
1236:C:/Users/stapi/OneDrive/Desktop/GD32VW553/V1_MQTT_OK/GD32VW55X_Wifi_BLE_SDK/GD32VW55x_RELEASE_V1.0.2/MSDK/wpa_supplicant/src/ap\wpa_auth_glue.c **** 		return 0;
1237:C:/Users/stapi/OneDrive/Desktop/GD32VW553/V1_MQTT_OK/GD32VW55X_Wifi_BLE_SDK/GD32VW55x_RELEASE_V1.0.2/MSDK/wpa_supplicant/src/ap\wpa_auth_glue.c **** 	}
1238:C:/Users/stapi/OneDrive/Desktop/GD32VW553/V1_MQTT_OK/GD32VW55X_Wifi_BLE_SDK/GD32VW55x_RELEASE_V1.0.2/MSDK/wpa_supplicant/src/ap\wpa_auth_glue.c **** 
1239:C:/Users/stapi/OneDrive/Desktop/GD32VW553/V1_MQTT_OK/GD32VW55X_Wifi_BLE_SDK/GD32VW55x_RELEASE_V1.0.2/MSDK/wpa_supplicant/src/ap\wpa_auth_glue.c **** 	identity = sta->identity;
1240:C:/Users/stapi/OneDrive/Desktop/GD32VW553/V1_MQTT_OK/GD32VW55X_Wifi_BLE_SDK/GD32VW55x_RELEASE_V1.0.2/MSDK/wpa_supplicant/src/ap\wpa_auth_glue.c **** 	len = os_strlen(identity);
1241:C:/Users/stapi/OneDrive/Desktop/GD32VW553/V1_MQTT_OK/GD32VW55X_Wifi_BLE_SDK/GD32VW55x_RELEASE_V1.0.2/MSDK/wpa_supplicant/src/ap\wpa_auth_glue.c **** 	*buf = (u8 *) identity;
1242:C:/Users/stapi/OneDrive/Desktop/GD32VW553/V1_MQTT_OK/GD32VW55X_Wifi_BLE_SDK/GD32VW55x_RELEASE_V1.0.2/MSDK/wpa_supplicant/src/ap\wpa_auth_glue.c **** 
1243:C:/Users/stapi/OneDrive/Desktop/GD32VW553/V1_MQTT_OK/GD32VW55X_Wifi_BLE_SDK/GD32VW55x_RELEASE_V1.0.2/MSDK/wpa_supplicant/src/ap\wpa_auth_glue.c **** 	return len;
1244:C:/Users/stapi/OneDrive/Desktop/GD32VW553/V1_MQTT_OK/GD32VW55X_Wifi_BLE_SDK/GD32VW55x_RELEASE_V1.0.2/MSDK/wpa_supplicant/src/ap\wpa_auth_glue.c **** }
1245:C:/Users/stapi/OneDrive/Desktop/GD32VW553/V1_MQTT_OK/GD32VW55X_Wifi_BLE_SDK/GD32VW55x_RELEASE_V1.0.2/MSDK/wpa_supplicant/src/ap\wpa_auth_glue.c **** 
1246:C:/Users/stapi/OneDrive/Desktop/GD32VW553/V1_MQTT_OK/GD32VW55X_Wifi_BLE_SDK/GD32VW55x_RELEASE_V1.0.2/MSDK/wpa_supplicant/src/ap\wpa_auth_glue.c **** 
1247:C:/Users/stapi/OneDrive/Desktop/GD32VW553/V1_MQTT_OK/GD32VW55X_Wifi_BLE_SDK/GD32VW55x_RELEASE_V1.0.2/MSDK/wpa_supplicant/src/ap\wpa_auth_glue.c **** static int
1248:C:/Users/stapi/OneDrive/Desktop/GD32VW553/V1_MQTT_OK/GD32VW55X_Wifi_BLE_SDK/GD32VW55x_RELEASE_V1.0.2/MSDK/wpa_supplicant/src/ap\wpa_auth_glue.c **** hostapd_wpa_auth_set_radius_cui(void *ctx, const u8 *sta_addr,
1249:C:/Users/stapi/OneDrive/Desktop/GD32VW553/V1_MQTT_OK/GD32VW55X_Wifi_BLE_SDK/GD32VW55x_RELEASE_V1.0.2/MSDK/wpa_supplicant/src/ap\wpa_auth_glue.c **** 				const u8 *radius_cui, size_t radius_cui_len)
1250:C:/Users/stapi/OneDrive/Desktop/GD32VW553/V1_MQTT_OK/GD32VW55X_Wifi_BLE_SDK/GD32VW55x_RELEASE_V1.0.2/MSDK/wpa_supplicant/src/ap\wpa_auth_glue.c **** {
1251:C:/Users/stapi/OneDrive/Desktop/GD32VW553/V1_MQTT_OK/GD32VW55X_Wifi_BLE_SDK/GD32VW55x_RELEASE_V1.0.2/MSDK/wpa_supplicant/src/ap\wpa_auth_glue.c **** 	struct hostapd_data *hapd = ctx;
1252:C:/Users/stapi/OneDrive/Desktop/GD32VW553/V1_MQTT_OK/GD32VW55X_Wifi_BLE_SDK/GD32VW55x_RELEASE_V1.0.2/MSDK/wpa_supplicant/src/ap\wpa_auth_glue.c **** 	struct sta_info *sta;
1253:C:/Users/stapi/OneDrive/Desktop/GD32VW553/V1_MQTT_OK/GD32VW55X_Wifi_BLE_SDK/GD32VW55x_RELEASE_V1.0.2/MSDK/wpa_supplicant/src/ap\wpa_auth_glue.c **** 
1254:C:/Users/stapi/OneDrive/Desktop/GD32VW553/V1_MQTT_OK/GD32VW55X_Wifi_BLE_SDK/GD32VW55x_RELEASE_V1.0.2/MSDK/wpa_supplicant/src/ap\wpa_auth_glue.c **** 	sta = ap_get_sta(hapd, sta_addr);
1255:C:/Users/stapi/OneDrive/Desktop/GD32VW553/V1_MQTT_OK/GD32VW55X_Wifi_BLE_SDK/GD32VW55x_RELEASE_V1.0.2/MSDK/wpa_supplicant/src/ap\wpa_auth_glue.c **** 	if (!sta)
1256:C:/Users/stapi/OneDrive/Desktop/GD32VW553/V1_MQTT_OK/GD32VW55X_Wifi_BLE_SDK/GD32VW55x_RELEASE_V1.0.2/MSDK/wpa_supplicant/src/ap\wpa_auth_glue.c **** 		return -1;
1257:C:/Users/stapi/OneDrive/Desktop/GD32VW553/V1_MQTT_OK/GD32VW55X_Wifi_BLE_SDK/GD32VW55x_RELEASE_V1.0.2/MSDK/wpa_supplicant/src/ap\wpa_auth_glue.c **** 
1258:C:/Users/stapi/OneDrive/Desktop/GD32VW553/V1_MQTT_OK/GD32VW55X_Wifi_BLE_SDK/GD32VW55x_RELEASE_V1.0.2/MSDK/wpa_supplicant/src/ap\wpa_auth_glue.c **** 	os_free(sta->radius_cui);
1259:C:/Users/stapi/OneDrive/Desktop/GD32VW553/V1_MQTT_OK/GD32VW55X_Wifi_BLE_SDK/GD32VW55x_RELEASE_V1.0.2/MSDK/wpa_supplicant/src/ap\wpa_auth_glue.c **** 	sta->radius_cui = NULL;
1260:C:/Users/stapi/OneDrive/Desktop/GD32VW553/V1_MQTT_OK/GD32VW55X_Wifi_BLE_SDK/GD32VW55x_RELEASE_V1.0.2/MSDK/wpa_supplicant/src/ap\wpa_auth_glue.c **** 
1261:C:/Users/stapi/OneDrive/Desktop/GD32VW553/V1_MQTT_OK/GD32VW55X_Wifi_BLE_SDK/GD32VW55x_RELEASE_V1.0.2/MSDK/wpa_supplicant/src/ap\wpa_auth_glue.c **** 	if (sta->eapol_sm) {
1262:C:/Users/stapi/OneDrive/Desktop/GD32VW553/V1_MQTT_OK/GD32VW55X_Wifi_BLE_SDK/GD32VW55x_RELEASE_V1.0.2/MSDK/wpa_supplicant/src/ap\wpa_auth_glue.c **** 		wpabuf_free(sta->eapol_sm->radius_cui);
1263:C:/Users/stapi/OneDrive/Desktop/GD32VW553/V1_MQTT_OK/GD32VW55X_Wifi_BLE_SDK/GD32VW55x_RELEASE_V1.0.2/MSDK/wpa_supplicant/src/ap\wpa_auth_glue.c **** 		sta->eapol_sm->radius_cui = NULL;
1264:C:/Users/stapi/OneDrive/Desktop/GD32VW553/V1_MQTT_OK/GD32VW55X_Wifi_BLE_SDK/GD32VW55x_RELEASE_V1.0.2/MSDK/wpa_supplicant/src/ap\wpa_auth_glue.c **** 	}
1265:C:/Users/stapi/OneDrive/Desktop/GD32VW553/V1_MQTT_OK/GD32VW55X_Wifi_BLE_SDK/GD32VW55x_RELEASE_V1.0.2/MSDK/wpa_supplicant/src/ap\wpa_auth_glue.c **** 
1266:C:/Users/stapi/OneDrive/Desktop/GD32VW553/V1_MQTT_OK/GD32VW55X_Wifi_BLE_SDK/GD32VW55x_RELEASE_V1.0.2/MSDK/wpa_supplicant/src/ap\wpa_auth_glue.c **** 	if (!radius_cui)
1267:C:/Users/stapi/OneDrive/Desktop/GD32VW553/V1_MQTT_OK/GD32VW55X_Wifi_BLE_SDK/GD32VW55x_RELEASE_V1.0.2/MSDK/wpa_supplicant/src/ap\wpa_auth_glue.c **** 		return 0;
1268:C:/Users/stapi/OneDrive/Desktop/GD32VW553/V1_MQTT_OK/GD32VW55X_Wifi_BLE_SDK/GD32VW55x_RELEASE_V1.0.2/MSDK/wpa_supplicant/src/ap\wpa_auth_glue.c **** 
1269:C:/Users/stapi/OneDrive/Desktop/GD32VW553/V1_MQTT_OK/GD32VW55X_Wifi_BLE_SDK/GD32VW55x_RELEASE_V1.0.2/MSDK/wpa_supplicant/src/ap\wpa_auth_glue.c **** 	/* sta->radius_cui is NULL terminated */
1270:C:/Users/stapi/OneDrive/Desktop/GD32VW553/V1_MQTT_OK/GD32VW55X_Wifi_BLE_SDK/GD32VW55x_RELEASE_V1.0.2/MSDK/wpa_supplicant/src/ap\wpa_auth_glue.c **** 	sta->radius_cui = os_zalloc(radius_cui_len + 1);
1271:C:/Users/stapi/OneDrive/Desktop/GD32VW553/V1_MQTT_OK/GD32VW55X_Wifi_BLE_SDK/GD32VW55x_RELEASE_V1.0.2/MSDK/wpa_supplicant/src/ap\wpa_auth_glue.c **** 	if (!sta->radius_cui)
1272:C:/Users/stapi/OneDrive/Desktop/GD32VW553/V1_MQTT_OK/GD32VW55X_Wifi_BLE_SDK/GD32VW55x_RELEASE_V1.0.2/MSDK/wpa_supplicant/src/ap\wpa_auth_glue.c **** 		return -1;
1273:C:/Users/stapi/OneDrive/Desktop/GD32VW553/V1_MQTT_OK/GD32VW55X_Wifi_BLE_SDK/GD32VW55x_RELEASE_V1.0.2/MSDK/wpa_supplicant/src/ap\wpa_auth_glue.c **** 	os_memcpy(sta->radius_cui, radius_cui, radius_cui_len);
1274:C:/Users/stapi/OneDrive/Desktop/GD32VW553/V1_MQTT_OK/GD32VW55X_Wifi_BLE_SDK/GD32VW55x_RELEASE_V1.0.2/MSDK/wpa_supplicant/src/ap\wpa_auth_glue.c **** 
1275:C:/Users/stapi/OneDrive/Desktop/GD32VW553/V1_MQTT_OK/GD32VW55X_Wifi_BLE_SDK/GD32VW55x_RELEASE_V1.0.2/MSDK/wpa_supplicant/src/ap\wpa_auth_glue.c **** 	if (sta->eapol_sm) {
1276:C:/Users/stapi/OneDrive/Desktop/GD32VW553/V1_MQTT_OK/GD32VW55X_Wifi_BLE_SDK/GD32VW55x_RELEASE_V1.0.2/MSDK/wpa_supplicant/src/ap\wpa_auth_glue.c **** 		sta->eapol_sm->radius_cui = wpabuf_alloc_copy(radius_cui,
1277:C:/Users/stapi/OneDrive/Desktop/GD32VW553/V1_MQTT_OK/GD32VW55X_Wifi_BLE_SDK/GD32VW55x_RELEASE_V1.0.2/MSDK/wpa_supplicant/src/ap\wpa_auth_glue.c **** 							      radius_cui_len);
1278:C:/Users/stapi/OneDrive/Desktop/GD32VW553/V1_MQTT_OK/GD32VW55X_Wifi_BLE_SDK/GD32VW55x_RELEASE_V1.0.2/MSDK/wpa_supplicant/src/ap\wpa_auth_glue.c **** 		if (!sta->eapol_sm->radius_cui)
1279:C:/Users/stapi/OneDrive/Desktop/GD32VW553/V1_MQTT_OK/GD32VW55X_Wifi_BLE_SDK/GD32VW55x_RELEASE_V1.0.2/MSDK/wpa_supplicant/src/ap\wpa_auth_glue.c **** 			return -1;
1280:C:/Users/stapi/OneDrive/Desktop/GD32VW553/V1_MQTT_OK/GD32VW55X_Wifi_BLE_SDK/GD32VW55x_RELEASE_V1.0.2/MSDK/wpa_supplicant/src/ap\wpa_auth_glue.c **** 	}
1281:C:/Users/stapi/OneDrive/Desktop/GD32VW553/V1_MQTT_OK/GD32VW55X_Wifi_BLE_SDK/GD32VW55x_RELEASE_V1.0.2/MSDK/wpa_supplicant/src/ap\wpa_auth_glue.c **** 
1282:C:/Users/stapi/OneDrive/Desktop/GD32VW553/V1_MQTT_OK/GD32VW55X_Wifi_BLE_SDK/GD32VW55x_RELEASE_V1.0.2/MSDK/wpa_supplicant/src/ap\wpa_auth_glue.c **** 	return 0;
1283:C:/Users/stapi/OneDrive/Desktop/GD32VW553/V1_MQTT_OK/GD32VW55X_Wifi_BLE_SDK/GD32VW55x_RELEASE_V1.0.2/MSDK/wpa_supplicant/src/ap\wpa_auth_glue.c **** }
1284:C:/Users/stapi/OneDrive/Desktop/GD32VW553/V1_MQTT_OK/GD32VW55X_Wifi_BLE_SDK/GD32VW55x_RELEASE_V1.0.2/MSDK/wpa_supplicant/src/ap\wpa_auth_glue.c **** 
1285:C:/Users/stapi/OneDrive/Desktop/GD32VW553/V1_MQTT_OK/GD32VW55X_Wifi_BLE_SDK/GD32VW55x_RELEASE_V1.0.2/MSDK/wpa_supplicant/src/ap\wpa_auth_glue.c **** 
1286:C:/Users/stapi/OneDrive/Desktop/GD32VW553/V1_MQTT_OK/GD32VW55X_Wifi_BLE_SDK/GD32VW55x_RELEASE_V1.0.2/MSDK/wpa_supplicant/src/ap\wpa_auth_glue.c **** static size_t
1287:C:/Users/stapi/OneDrive/Desktop/GD32VW553/V1_MQTT_OK/GD32VW55X_Wifi_BLE_SDK/GD32VW55x_RELEASE_V1.0.2/MSDK/wpa_supplicant/src/ap\wpa_auth_glue.c **** hostapd_wpa_auth_get_radius_cui(void *ctx, const u8 *sta_addr, const u8 **buf)
1288:C:/Users/stapi/OneDrive/Desktop/GD32VW553/V1_MQTT_OK/GD32VW55X_Wifi_BLE_SDK/GD32VW55x_RELEASE_V1.0.2/MSDK/wpa_supplicant/src/ap\wpa_auth_glue.c **** {
1289:C:/Users/stapi/OneDrive/Desktop/GD32VW553/V1_MQTT_OK/GD32VW55X_Wifi_BLE_SDK/GD32VW55x_RELEASE_V1.0.2/MSDK/wpa_supplicant/src/ap\wpa_auth_glue.c **** 	struct hostapd_data *hapd = ctx;
1290:C:/Users/stapi/OneDrive/Desktop/GD32VW553/V1_MQTT_OK/GD32VW55X_Wifi_BLE_SDK/GD32VW55x_RELEASE_V1.0.2/MSDK/wpa_supplicant/src/ap\wpa_auth_glue.c **** 	struct sta_info *sta;
1291:C:/Users/stapi/OneDrive/Desktop/GD32VW553/V1_MQTT_OK/GD32VW55X_Wifi_BLE_SDK/GD32VW55x_RELEASE_V1.0.2/MSDK/wpa_supplicant/src/ap\wpa_auth_glue.c **** 	struct wpabuf *b;
1292:C:/Users/stapi/OneDrive/Desktop/GD32VW553/V1_MQTT_OK/GD32VW55X_Wifi_BLE_SDK/GD32VW55x_RELEASE_V1.0.2/MSDK/wpa_supplicant/src/ap\wpa_auth_glue.c **** 	size_t len;
1293:C:/Users/stapi/OneDrive/Desktop/GD32VW553/V1_MQTT_OK/GD32VW55X_Wifi_BLE_SDK/GD32VW55x_RELEASE_V1.0.2/MSDK/wpa_supplicant/src/ap\wpa_auth_glue.c **** 	char *radius_cui;
1294:C:/Users/stapi/OneDrive/Desktop/GD32VW553/V1_MQTT_OK/GD32VW55X_Wifi_BLE_SDK/GD32VW55x_RELEASE_V1.0.2/MSDK/wpa_supplicant/src/ap\wpa_auth_glue.c **** 
1295:C:/Users/stapi/OneDrive/Desktop/GD32VW553/V1_MQTT_OK/GD32VW55X_Wifi_BLE_SDK/GD32VW55x_RELEASE_V1.0.2/MSDK/wpa_supplicant/src/ap\wpa_auth_glue.c **** 	sta = ap_get_sta(hapd, sta_addr);
1296:C:/Users/stapi/OneDrive/Desktop/GD32VW553/V1_MQTT_OK/GD32VW55X_Wifi_BLE_SDK/GD32VW55x_RELEASE_V1.0.2/MSDK/wpa_supplicant/src/ap\wpa_auth_glue.c **** 	if (!sta)
1297:C:/Users/stapi/OneDrive/Desktop/GD32VW553/V1_MQTT_OK/GD32VW55X_Wifi_BLE_SDK/GD32VW55x_RELEASE_V1.0.2/MSDK/wpa_supplicant/src/ap\wpa_auth_glue.c **** 		return 0;
1298:C:/Users/stapi/OneDrive/Desktop/GD32VW553/V1_MQTT_OK/GD32VW55X_Wifi_BLE_SDK/GD32VW55x_RELEASE_V1.0.2/MSDK/wpa_supplicant/src/ap\wpa_auth_glue.c **** 
1299:C:/Users/stapi/OneDrive/Desktop/GD32VW553/V1_MQTT_OK/GD32VW55X_Wifi_BLE_SDK/GD32VW55x_RELEASE_V1.0.2/MSDK/wpa_supplicant/src/ap\wpa_auth_glue.c **** 	b = ieee802_1x_get_radius_cui(sta->eapol_sm);
1300:C:/Users/stapi/OneDrive/Desktop/GD32VW553/V1_MQTT_OK/GD32VW55X_Wifi_BLE_SDK/GD32VW55x_RELEASE_V1.0.2/MSDK/wpa_supplicant/src/ap\wpa_auth_glue.c **** 	if (b) {
1301:C:/Users/stapi/OneDrive/Desktop/GD32VW553/V1_MQTT_OK/GD32VW55X_Wifi_BLE_SDK/GD32VW55x_RELEASE_V1.0.2/MSDK/wpa_supplicant/src/ap\wpa_auth_glue.c **** 		len = wpabuf_len(b);
1302:C:/Users/stapi/OneDrive/Desktop/GD32VW553/V1_MQTT_OK/GD32VW55X_Wifi_BLE_SDK/GD32VW55x_RELEASE_V1.0.2/MSDK/wpa_supplicant/src/ap\wpa_auth_glue.c **** 		*buf = wpabuf_head(b);
1303:C:/Users/stapi/OneDrive/Desktop/GD32VW553/V1_MQTT_OK/GD32VW55X_Wifi_BLE_SDK/GD32VW55x_RELEASE_V1.0.2/MSDK/wpa_supplicant/src/ap\wpa_auth_glue.c **** 		return len;
1304:C:/Users/stapi/OneDrive/Desktop/GD32VW553/V1_MQTT_OK/GD32VW55X_Wifi_BLE_SDK/GD32VW55x_RELEASE_V1.0.2/MSDK/wpa_supplicant/src/ap\wpa_auth_glue.c **** 	}
1305:C:/Users/stapi/OneDrive/Desktop/GD32VW553/V1_MQTT_OK/GD32VW55X_Wifi_BLE_SDK/GD32VW55x_RELEASE_V1.0.2/MSDK/wpa_supplicant/src/ap\wpa_auth_glue.c **** 
1306:C:/Users/stapi/OneDrive/Desktop/GD32VW553/V1_MQTT_OK/GD32VW55X_Wifi_BLE_SDK/GD32VW55x_RELEASE_V1.0.2/MSDK/wpa_supplicant/src/ap\wpa_auth_glue.c **** 	if (!sta->radius_cui) {
1307:C:/Users/stapi/OneDrive/Desktop/GD32VW553/V1_MQTT_OK/GD32VW55X_Wifi_BLE_SDK/GD32VW55x_RELEASE_V1.0.2/MSDK/wpa_supplicant/src/ap\wpa_auth_glue.c **** 		*buf = NULL;
1308:C:/Users/stapi/OneDrive/Desktop/GD32VW553/V1_MQTT_OK/GD32VW55X_Wifi_BLE_SDK/GD32VW55x_RELEASE_V1.0.2/MSDK/wpa_supplicant/src/ap\wpa_auth_glue.c **** 		return 0;
1309:C:/Users/stapi/OneDrive/Desktop/GD32VW553/V1_MQTT_OK/GD32VW55X_Wifi_BLE_SDK/GD32VW55x_RELEASE_V1.0.2/MSDK/wpa_supplicant/src/ap\wpa_auth_glue.c **** 	}
1310:C:/Users/stapi/OneDrive/Desktop/GD32VW553/V1_MQTT_OK/GD32VW55X_Wifi_BLE_SDK/GD32VW55x_RELEASE_V1.0.2/MSDK/wpa_supplicant/src/ap\wpa_auth_glue.c **** 
1311:C:/Users/stapi/OneDrive/Desktop/GD32VW553/V1_MQTT_OK/GD32VW55X_Wifi_BLE_SDK/GD32VW55x_RELEASE_V1.0.2/MSDK/wpa_supplicant/src/ap\wpa_auth_glue.c **** 	radius_cui = sta->radius_cui;
1312:C:/Users/stapi/OneDrive/Desktop/GD32VW553/V1_MQTT_OK/GD32VW55X_Wifi_BLE_SDK/GD32VW55x_RELEASE_V1.0.2/MSDK/wpa_supplicant/src/ap\wpa_auth_glue.c **** 	len = os_strlen(radius_cui);
1313:C:/Users/stapi/OneDrive/Desktop/GD32VW553/V1_MQTT_OK/GD32VW55X_Wifi_BLE_SDK/GD32VW55x_RELEASE_V1.0.2/MSDK/wpa_supplicant/src/ap\wpa_auth_glue.c **** 	*buf = (u8 *) radius_cui;
1314:C:/Users/stapi/OneDrive/Desktop/GD32VW553/V1_MQTT_OK/GD32VW55X_Wifi_BLE_SDK/GD32VW55x_RELEASE_V1.0.2/MSDK/wpa_supplicant/src/ap\wpa_auth_glue.c **** 
1315:C:/Users/stapi/OneDrive/Desktop/GD32VW553/V1_MQTT_OK/GD32VW55X_Wifi_BLE_SDK/GD32VW55x_RELEASE_V1.0.2/MSDK/wpa_supplicant/src/ap\wpa_auth_glue.c **** 	return len;
1316:C:/Users/stapi/OneDrive/Desktop/GD32VW553/V1_MQTT_OK/GD32VW55X_Wifi_BLE_SDK/GD32VW55x_RELEASE_V1.0.2/MSDK/wpa_supplicant/src/ap\wpa_auth_glue.c **** }
1317:C:/Users/stapi/OneDrive/Desktop/GD32VW553/V1_MQTT_OK/GD32VW55X_Wifi_BLE_SDK/GD32VW55x_RELEASE_V1.0.2/MSDK/wpa_supplicant/src/ap\wpa_auth_glue.c **** 
1318:C:/Users/stapi/OneDrive/Desktop/GD32VW553/V1_MQTT_OK/GD32VW55X_Wifi_BLE_SDK/GD32VW55x_RELEASE_V1.0.2/MSDK/wpa_supplicant/src/ap\wpa_auth_glue.c **** 
1319:C:/Users/stapi/OneDrive/Desktop/GD32VW553/V1_MQTT_OK/GD32VW55X_Wifi_BLE_SDK/GD32VW55x_RELEASE_V1.0.2/MSDK/wpa_supplicant/src/ap\wpa_auth_glue.c **** static void hostapd_wpa_auth_set_session_timeout(void *ctx, const u8 *sta_addr,
1320:C:/Users/stapi/OneDrive/Desktop/GD32VW553/V1_MQTT_OK/GD32VW55X_Wifi_BLE_SDK/GD32VW55x_RELEASE_V1.0.2/MSDK/wpa_supplicant/src/ap\wpa_auth_glue.c **** 						 int session_timeout)
1321:C:/Users/stapi/OneDrive/Desktop/GD32VW553/V1_MQTT_OK/GD32VW55X_Wifi_BLE_SDK/GD32VW55x_RELEASE_V1.0.2/MSDK/wpa_supplicant/src/ap\wpa_auth_glue.c **** {
1322:C:/Users/stapi/OneDrive/Desktop/GD32VW553/V1_MQTT_OK/GD32VW55X_Wifi_BLE_SDK/GD32VW55x_RELEASE_V1.0.2/MSDK/wpa_supplicant/src/ap\wpa_auth_glue.c **** 	struct hostapd_data *hapd = ctx;
1323:C:/Users/stapi/OneDrive/Desktop/GD32VW553/V1_MQTT_OK/GD32VW55X_Wifi_BLE_SDK/GD32VW55x_RELEASE_V1.0.2/MSDK/wpa_supplicant/src/ap\wpa_auth_glue.c **** 	struct sta_info *sta;
1324:C:/Users/stapi/OneDrive/Desktop/GD32VW553/V1_MQTT_OK/GD32VW55X_Wifi_BLE_SDK/GD32VW55x_RELEASE_V1.0.2/MSDK/wpa_supplicant/src/ap\wpa_auth_glue.c **** 
1325:C:/Users/stapi/OneDrive/Desktop/GD32VW553/V1_MQTT_OK/GD32VW55X_Wifi_BLE_SDK/GD32VW55x_RELEASE_V1.0.2/MSDK/wpa_supplicant/src/ap\wpa_auth_glue.c **** 	sta = ap_get_sta(hapd, sta_addr);
1326:C:/Users/stapi/OneDrive/Desktop/GD32VW553/V1_MQTT_OK/GD32VW55X_Wifi_BLE_SDK/GD32VW55x_RELEASE_V1.0.2/MSDK/wpa_supplicant/src/ap\wpa_auth_glue.c **** 	if (!sta)
1327:C:/Users/stapi/OneDrive/Desktop/GD32VW553/V1_MQTT_OK/GD32VW55X_Wifi_BLE_SDK/GD32VW55x_RELEASE_V1.0.2/MSDK/wpa_supplicant/src/ap\wpa_auth_glue.c **** 		return;
1328:C:/Users/stapi/OneDrive/Desktop/GD32VW553/V1_MQTT_OK/GD32VW55X_Wifi_BLE_SDK/GD32VW55x_RELEASE_V1.0.2/MSDK/wpa_supplicant/src/ap\wpa_auth_glue.c **** 
1329:C:/Users/stapi/OneDrive/Desktop/GD32VW553/V1_MQTT_OK/GD32VW55X_Wifi_BLE_SDK/GD32VW55x_RELEASE_V1.0.2/MSDK/wpa_supplicant/src/ap\wpa_auth_glue.c **** 	if (session_timeout) {
1330:C:/Users/stapi/OneDrive/Desktop/GD32VW553/V1_MQTT_OK/GD32VW55X_Wifi_BLE_SDK/GD32VW55x_RELEASE_V1.0.2/MSDK/wpa_supplicant/src/ap\wpa_auth_glue.c **** 		os_get_reltime(&sta->session_timeout);
1331:C:/Users/stapi/OneDrive/Desktop/GD32VW553/V1_MQTT_OK/GD32VW55X_Wifi_BLE_SDK/GD32VW55x_RELEASE_V1.0.2/MSDK/wpa_supplicant/src/ap\wpa_auth_glue.c **** 		sta->session_timeout.sec += session_timeout;
1332:C:/Users/stapi/OneDrive/Desktop/GD32VW553/V1_MQTT_OK/GD32VW55X_Wifi_BLE_SDK/GD32VW55x_RELEASE_V1.0.2/MSDK/wpa_supplicant/src/ap\wpa_auth_glue.c **** 		sta->session_timeout_set = 1;
1333:C:/Users/stapi/OneDrive/Desktop/GD32VW553/V1_MQTT_OK/GD32VW55X_Wifi_BLE_SDK/GD32VW55x_RELEASE_V1.0.2/MSDK/wpa_supplicant/src/ap\wpa_auth_glue.c **** 		ap_sta_session_timeout(hapd, sta, session_timeout);
1334:C:/Users/stapi/OneDrive/Desktop/GD32VW553/V1_MQTT_OK/GD32VW55X_Wifi_BLE_SDK/GD32VW55x_RELEASE_V1.0.2/MSDK/wpa_supplicant/src/ap\wpa_auth_glue.c **** 	} else {
1335:C:/Users/stapi/OneDrive/Desktop/GD32VW553/V1_MQTT_OK/GD32VW55X_Wifi_BLE_SDK/GD32VW55x_RELEASE_V1.0.2/MSDK/wpa_supplicant/src/ap\wpa_auth_glue.c **** 		sta->session_timeout_set = 0;
1336:C:/Users/stapi/OneDrive/Desktop/GD32VW553/V1_MQTT_OK/GD32VW55X_Wifi_BLE_SDK/GD32VW55x_RELEASE_V1.0.2/MSDK/wpa_supplicant/src/ap\wpa_auth_glue.c **** 		ap_sta_no_session_timeout(hapd, sta);
1337:C:/Users/stapi/OneDrive/Desktop/GD32VW553/V1_MQTT_OK/GD32VW55X_Wifi_BLE_SDK/GD32VW55x_RELEASE_V1.0.2/MSDK/wpa_supplicant/src/ap\wpa_auth_glue.c **** 	}
1338:C:/Users/stapi/OneDrive/Desktop/GD32VW553/V1_MQTT_OK/GD32VW55X_Wifi_BLE_SDK/GD32VW55x_RELEASE_V1.0.2/MSDK/wpa_supplicant/src/ap\wpa_auth_glue.c **** }
1339:C:/Users/stapi/OneDrive/Desktop/GD32VW553/V1_MQTT_OK/GD32VW55X_Wifi_BLE_SDK/GD32VW55x_RELEASE_V1.0.2/MSDK/wpa_supplicant/src/ap\wpa_auth_glue.c **** 
1340:C:/Users/stapi/OneDrive/Desktop/GD32VW553/V1_MQTT_OK/GD32VW55X_Wifi_BLE_SDK/GD32VW55x_RELEASE_V1.0.2/MSDK/wpa_supplicant/src/ap\wpa_auth_glue.c **** 
1341:C:/Users/stapi/OneDrive/Desktop/GD32VW553/V1_MQTT_OK/GD32VW55X_Wifi_BLE_SDK/GD32VW55x_RELEASE_V1.0.2/MSDK/wpa_supplicant/src/ap\wpa_auth_glue.c **** static int hostapd_wpa_auth_get_session_timeout(void *ctx, const u8 *sta_addr)
1342:C:/Users/stapi/OneDrive/Desktop/GD32VW553/V1_MQTT_OK/GD32VW55X_Wifi_BLE_SDK/GD32VW55x_RELEASE_V1.0.2/MSDK/wpa_supplicant/src/ap\wpa_auth_glue.c **** {
1343:C:/Users/stapi/OneDrive/Desktop/GD32VW553/V1_MQTT_OK/GD32VW55X_Wifi_BLE_SDK/GD32VW55x_RELEASE_V1.0.2/MSDK/wpa_supplicant/src/ap\wpa_auth_glue.c **** 	struct hostapd_data *hapd = ctx;
1344:C:/Users/stapi/OneDrive/Desktop/GD32VW553/V1_MQTT_OK/GD32VW55X_Wifi_BLE_SDK/GD32VW55x_RELEASE_V1.0.2/MSDK/wpa_supplicant/src/ap\wpa_auth_glue.c **** 	struct sta_info *sta;
1345:C:/Users/stapi/OneDrive/Desktop/GD32VW553/V1_MQTT_OK/GD32VW55X_Wifi_BLE_SDK/GD32VW55x_RELEASE_V1.0.2/MSDK/wpa_supplicant/src/ap\wpa_auth_glue.c **** 	struct os_reltime now, remaining;
1346:C:/Users/stapi/OneDrive/Desktop/GD32VW553/V1_MQTT_OK/GD32VW55X_Wifi_BLE_SDK/GD32VW55x_RELEASE_V1.0.2/MSDK/wpa_supplicant/src/ap\wpa_auth_glue.c **** 
1347:C:/Users/stapi/OneDrive/Desktop/GD32VW553/V1_MQTT_OK/GD32VW55X_Wifi_BLE_SDK/GD32VW55x_RELEASE_V1.0.2/MSDK/wpa_supplicant/src/ap\wpa_auth_glue.c **** 	sta = ap_get_sta(hapd, sta_addr);
1348:C:/Users/stapi/OneDrive/Desktop/GD32VW553/V1_MQTT_OK/GD32VW55X_Wifi_BLE_SDK/GD32VW55x_RELEASE_V1.0.2/MSDK/wpa_supplicant/src/ap\wpa_auth_glue.c **** 	if (!sta || !sta->session_timeout_set)
1349:C:/Users/stapi/OneDrive/Desktop/GD32VW553/V1_MQTT_OK/GD32VW55X_Wifi_BLE_SDK/GD32VW55x_RELEASE_V1.0.2/MSDK/wpa_supplicant/src/ap\wpa_auth_glue.c **** 		return 0;
1350:C:/Users/stapi/OneDrive/Desktop/GD32VW553/V1_MQTT_OK/GD32VW55X_Wifi_BLE_SDK/GD32VW55x_RELEASE_V1.0.2/MSDK/wpa_supplicant/src/ap\wpa_auth_glue.c **** 
1351:C:/Users/stapi/OneDrive/Desktop/GD32VW553/V1_MQTT_OK/GD32VW55X_Wifi_BLE_SDK/GD32VW55x_RELEASE_V1.0.2/MSDK/wpa_supplicant/src/ap\wpa_auth_glue.c **** 	os_get_reltime(&now);
1352:C:/Users/stapi/OneDrive/Desktop/GD32VW553/V1_MQTT_OK/GD32VW55X_Wifi_BLE_SDK/GD32VW55x_RELEASE_V1.0.2/MSDK/wpa_supplicant/src/ap\wpa_auth_glue.c **** 	if (os_reltime_before(&sta->session_timeout, &now)) {
1353:C:/Users/stapi/OneDrive/Desktop/GD32VW553/V1_MQTT_OK/GD32VW55X_Wifi_BLE_SDK/GD32VW55x_RELEASE_V1.0.2/MSDK/wpa_supplicant/src/ap\wpa_auth_glue.c **** 		/* already expired, return >0 as timeout was set */
1354:C:/Users/stapi/OneDrive/Desktop/GD32VW553/V1_MQTT_OK/GD32VW55X_Wifi_BLE_SDK/GD32VW55x_RELEASE_V1.0.2/MSDK/wpa_supplicant/src/ap\wpa_auth_glue.c **** 		return 1;
1355:C:/Users/stapi/OneDrive/Desktop/GD32VW553/V1_MQTT_OK/GD32VW55X_Wifi_BLE_SDK/GD32VW55x_RELEASE_V1.0.2/MSDK/wpa_supplicant/src/ap\wpa_auth_glue.c **** 	}
1356:C:/Users/stapi/OneDrive/Desktop/GD32VW553/V1_MQTT_OK/GD32VW55X_Wifi_BLE_SDK/GD32VW55x_RELEASE_V1.0.2/MSDK/wpa_supplicant/src/ap\wpa_auth_glue.c **** 
1357:C:/Users/stapi/OneDrive/Desktop/GD32VW553/V1_MQTT_OK/GD32VW55X_Wifi_BLE_SDK/GD32VW55x_RELEASE_V1.0.2/MSDK/wpa_supplicant/src/ap\wpa_auth_glue.c **** 	os_reltime_sub(&sta->session_timeout, &now, &remaining);
1358:C:/Users/stapi/OneDrive/Desktop/GD32VW553/V1_MQTT_OK/GD32VW55X_Wifi_BLE_SDK/GD32VW55x_RELEASE_V1.0.2/MSDK/wpa_supplicant/src/ap\wpa_auth_glue.c **** 
1359:C:/Users/stapi/OneDrive/Desktop/GD32VW553/V1_MQTT_OK/GD32VW55X_Wifi_BLE_SDK/GD32VW55x_RELEASE_V1.0.2/MSDK/wpa_supplicant/src/ap\wpa_auth_glue.c **** 	return (remaining.sec > 0) ? remaining.sec : 1;
1360:C:/Users/stapi/OneDrive/Desktop/GD32VW553/V1_MQTT_OK/GD32VW55X_Wifi_BLE_SDK/GD32VW55x_RELEASE_V1.0.2/MSDK/wpa_supplicant/src/ap\wpa_auth_glue.c **** }
1361:C:/Users/stapi/OneDrive/Desktop/GD32VW553/V1_MQTT_OK/GD32VW55X_Wifi_BLE_SDK/GD32VW55x_RELEASE_V1.0.2/MSDK/wpa_supplicant/src/ap\wpa_auth_glue.c **** 
1362:C:/Users/stapi/OneDrive/Desktop/GD32VW553/V1_MQTT_OK/GD32VW55X_Wifi_BLE_SDK/GD32VW55x_RELEASE_V1.0.2/MSDK/wpa_supplicant/src/ap\wpa_auth_glue.c **** 
1363:C:/Users/stapi/OneDrive/Desktop/GD32VW553/V1_MQTT_OK/GD32VW55X_Wifi_BLE_SDK/GD32VW55x_RELEASE_V1.0.2/MSDK/wpa_supplicant/src/ap\wpa_auth_glue.c **** static void hostapd_rrb_receive(void *ctx, const u8 *src_addr, const u8 *buf,
1364:C:/Users/stapi/OneDrive/Desktop/GD32VW553/V1_MQTT_OK/GD32VW55X_Wifi_BLE_SDK/GD32VW55x_RELEASE_V1.0.2/MSDK/wpa_supplicant/src/ap\wpa_auth_glue.c **** 				size_t len)
1365:C:/Users/stapi/OneDrive/Desktop/GD32VW553/V1_MQTT_OK/GD32VW55X_Wifi_BLE_SDK/GD32VW55x_RELEASE_V1.0.2/MSDK/wpa_supplicant/src/ap\wpa_auth_glue.c **** {
1366:C:/Users/stapi/OneDrive/Desktop/GD32VW553/V1_MQTT_OK/GD32VW55X_Wifi_BLE_SDK/GD32VW55x_RELEASE_V1.0.2/MSDK/wpa_supplicant/src/ap\wpa_auth_glue.c **** 	struct hostapd_data *hapd = ctx;
1367:C:/Users/stapi/OneDrive/Desktop/GD32VW553/V1_MQTT_OK/GD32VW55X_Wifi_BLE_SDK/GD32VW55x_RELEASE_V1.0.2/MSDK/wpa_supplicant/src/ap\wpa_auth_glue.c **** 	struct l2_ethhdr *ethhdr;
1368:C:/Users/stapi/OneDrive/Desktop/GD32VW553/V1_MQTT_OK/GD32VW55X_Wifi_BLE_SDK/GD32VW55x_RELEASE_V1.0.2/MSDK/wpa_supplicant/src/ap\wpa_auth_glue.c **** 	if (len < sizeof(*ethhdr))
1369:C:/Users/stapi/OneDrive/Desktop/GD32VW553/V1_MQTT_OK/GD32VW55X_Wifi_BLE_SDK/GD32VW55x_RELEASE_V1.0.2/MSDK/wpa_supplicant/src/ap\wpa_auth_glue.c **** 		return;
1370:C:/Users/stapi/OneDrive/Desktop/GD32VW553/V1_MQTT_OK/GD32VW55X_Wifi_BLE_SDK/GD32VW55x_RELEASE_V1.0.2/MSDK/wpa_supplicant/src/ap\wpa_auth_glue.c **** 	ethhdr = (struct l2_ethhdr *) buf;
1371:C:/Users/stapi/OneDrive/Desktop/GD32VW553/V1_MQTT_OK/GD32VW55X_Wifi_BLE_SDK/GD32VW55x_RELEASE_V1.0.2/MSDK/wpa_supplicant/src/ap\wpa_auth_glue.c **** 	wpa_printf(MSG_DEBUG, "FT: RRB received packet " MACSTR " -> "
1372:C:/Users/stapi/OneDrive/Desktop/GD32VW553/V1_MQTT_OK/GD32VW55X_Wifi_BLE_SDK/GD32VW55x_RELEASE_V1.0.2/MSDK/wpa_supplicant/src/ap\wpa_auth_glue.c **** 		   MACSTR, MAC2STR(ethhdr->h_source), MAC2STR(ethhdr->h_dest));
1373:C:/Users/stapi/OneDrive/Desktop/GD32VW553/V1_MQTT_OK/GD32VW55X_Wifi_BLE_SDK/GD32VW55x_RELEASE_V1.0.2/MSDK/wpa_supplicant/src/ap\wpa_auth_glue.c **** 	if (!is_multicast_ether_addr(ethhdr->h_dest) &&
1374:C:/Users/stapi/OneDrive/Desktop/GD32VW553/V1_MQTT_OK/GD32VW55X_Wifi_BLE_SDK/GD32VW55x_RELEASE_V1.0.2/MSDK/wpa_supplicant/src/ap\wpa_auth_glue.c **** 	    os_memcmp(hapd->own_addr, ethhdr->h_dest, ETH_ALEN) != 0)
1375:C:/Users/stapi/OneDrive/Desktop/GD32VW553/V1_MQTT_OK/GD32VW55X_Wifi_BLE_SDK/GD32VW55x_RELEASE_V1.0.2/MSDK/wpa_supplicant/src/ap\wpa_auth_glue.c **** 		return;
1376:C:/Users/stapi/OneDrive/Desktop/GD32VW553/V1_MQTT_OK/GD32VW55X_Wifi_BLE_SDK/GD32VW55x_RELEASE_V1.0.2/MSDK/wpa_supplicant/src/ap\wpa_auth_glue.c **** 	wpa_ft_rrb_rx(hapd->wpa_auth, ethhdr->h_source, buf + sizeof(*ethhdr),
1377:C:/Users/stapi/OneDrive/Desktop/GD32VW553/V1_MQTT_OK/GD32VW55X_Wifi_BLE_SDK/GD32VW55x_RELEASE_V1.0.2/MSDK/wpa_supplicant/src/ap\wpa_auth_glue.c **** 		      len - sizeof(*ethhdr));
1378:C:/Users/stapi/OneDrive/Desktop/GD32VW553/V1_MQTT_OK/GD32VW55X_Wifi_BLE_SDK/GD32VW55x_RELEASE_V1.0.2/MSDK/wpa_supplicant/src/ap\wpa_auth_glue.c **** }
1379:C:/Users/stapi/OneDrive/Desktop/GD32VW553/V1_MQTT_OK/GD32VW55X_Wifi_BLE_SDK/GD32VW55x_RELEASE_V1.0.2/MSDK/wpa_supplicant/src/ap\wpa_auth_glue.c **** 
1380:C:/Users/stapi/OneDrive/Desktop/GD32VW553/V1_MQTT_OK/GD32VW55X_Wifi_BLE_SDK/GD32VW55x_RELEASE_V1.0.2/MSDK/wpa_supplicant/src/ap\wpa_auth_glue.c **** 
1381:C:/Users/stapi/OneDrive/Desktop/GD32VW553/V1_MQTT_OK/GD32VW55X_Wifi_BLE_SDK/GD32VW55x_RELEASE_V1.0.2/MSDK/wpa_supplicant/src/ap\wpa_auth_glue.c **** static void hostapd_rrb_oui_receive(void *ctx, const u8 *src_addr,
1382:C:/Users/stapi/OneDrive/Desktop/GD32VW553/V1_MQTT_OK/GD32VW55X_Wifi_BLE_SDK/GD32VW55x_RELEASE_V1.0.2/MSDK/wpa_supplicant/src/ap\wpa_auth_glue.c **** 				    const u8 *dst_addr, u8 oui_suffix,
1383:C:/Users/stapi/OneDrive/Desktop/GD32VW553/V1_MQTT_OK/GD32VW55X_Wifi_BLE_SDK/GD32VW55x_RELEASE_V1.0.2/MSDK/wpa_supplicant/src/ap\wpa_auth_glue.c **** 				    const u8 *buf, size_t len)
1384:C:/Users/stapi/OneDrive/Desktop/GD32VW553/V1_MQTT_OK/GD32VW55X_Wifi_BLE_SDK/GD32VW55x_RELEASE_V1.0.2/MSDK/wpa_supplicant/src/ap\wpa_auth_glue.c **** {
1385:C:/Users/stapi/OneDrive/Desktop/GD32VW553/V1_MQTT_OK/GD32VW55X_Wifi_BLE_SDK/GD32VW55x_RELEASE_V1.0.2/MSDK/wpa_supplicant/src/ap\wpa_auth_glue.c **** 	struct hostapd_data *hapd = ctx;
1386:C:/Users/stapi/OneDrive/Desktop/GD32VW553/V1_MQTT_OK/GD32VW55X_Wifi_BLE_SDK/GD32VW55x_RELEASE_V1.0.2/MSDK/wpa_supplicant/src/ap\wpa_auth_glue.c **** 
1387:C:/Users/stapi/OneDrive/Desktop/GD32VW553/V1_MQTT_OK/GD32VW55X_Wifi_BLE_SDK/GD32VW55x_RELEASE_V1.0.2/MSDK/wpa_supplicant/src/ap\wpa_auth_glue.c **** 	wpa_printf(MSG_DEBUG, "FT: RRB received packet " MACSTR " -> "
1388:C:/Users/stapi/OneDrive/Desktop/GD32VW553/V1_MQTT_OK/GD32VW55X_Wifi_BLE_SDK/GD32VW55x_RELEASE_V1.0.2/MSDK/wpa_supplicant/src/ap\wpa_auth_glue.c **** 		   MACSTR, MAC2STR(src_addr), MAC2STR(dst_addr));
1389:C:/Users/stapi/OneDrive/Desktop/GD32VW553/V1_MQTT_OK/GD32VW55X_Wifi_BLE_SDK/GD32VW55x_RELEASE_V1.0.2/MSDK/wpa_supplicant/src/ap\wpa_auth_glue.c **** 	if (!is_multicast_ether_addr(dst_addr) &&
1390:C:/Users/stapi/OneDrive/Desktop/GD32VW553/V1_MQTT_OK/GD32VW55X_Wifi_BLE_SDK/GD32VW55x_RELEASE_V1.0.2/MSDK/wpa_supplicant/src/ap\wpa_auth_glue.c **** 	    os_memcmp(hapd->own_addr, dst_addr, ETH_ALEN) != 0)
1391:C:/Users/stapi/OneDrive/Desktop/GD32VW553/V1_MQTT_OK/GD32VW55X_Wifi_BLE_SDK/GD32VW55x_RELEASE_V1.0.2/MSDK/wpa_supplicant/src/ap\wpa_auth_glue.c **** 		return;
1392:C:/Users/stapi/OneDrive/Desktop/GD32VW553/V1_MQTT_OK/GD32VW55X_Wifi_BLE_SDK/GD32VW55x_RELEASE_V1.0.2/MSDK/wpa_supplicant/src/ap\wpa_auth_glue.c **** 	wpa_ft_rrb_oui_rx(hapd->wpa_auth, src_addr, dst_addr, oui_suffix, buf,
1393:C:/Users/stapi/OneDrive/Desktop/GD32VW553/V1_MQTT_OK/GD32VW55X_Wifi_BLE_SDK/GD32VW55x_RELEASE_V1.0.2/MSDK/wpa_supplicant/src/ap\wpa_auth_glue.c **** 			  len);
1394:C:/Users/stapi/OneDrive/Desktop/GD32VW553/V1_MQTT_OK/GD32VW55X_Wifi_BLE_SDK/GD32VW55x_RELEASE_V1.0.2/MSDK/wpa_supplicant/src/ap\wpa_auth_glue.c **** }
1395:C:/Users/stapi/OneDrive/Desktop/GD32VW553/V1_MQTT_OK/GD32VW55X_Wifi_BLE_SDK/GD32VW55x_RELEASE_V1.0.2/MSDK/wpa_supplicant/src/ap\wpa_auth_glue.c **** 
1396:C:/Users/stapi/OneDrive/Desktop/GD32VW553/V1_MQTT_OK/GD32VW55X_Wifi_BLE_SDK/GD32VW55x_RELEASE_V1.0.2/MSDK/wpa_supplicant/src/ap\wpa_auth_glue.c **** 
1397:C:/Users/stapi/OneDrive/Desktop/GD32VW553/V1_MQTT_OK/GD32VW55X_Wifi_BLE_SDK/GD32VW55x_RELEASE_V1.0.2/MSDK/wpa_supplicant/src/ap\wpa_auth_glue.c **** static int hostapd_wpa_auth_add_tspec(void *ctx, const u8 *sta_addr,
1398:C:/Users/stapi/OneDrive/Desktop/GD32VW553/V1_MQTT_OK/GD32VW55X_Wifi_BLE_SDK/GD32VW55x_RELEASE_V1.0.2/MSDK/wpa_supplicant/src/ap\wpa_auth_glue.c **** 				      u8 *tspec_ie, size_t tspec_ielen)
1399:C:/Users/stapi/OneDrive/Desktop/GD32VW553/V1_MQTT_OK/GD32VW55X_Wifi_BLE_SDK/GD32VW55x_RELEASE_V1.0.2/MSDK/wpa_supplicant/src/ap\wpa_auth_glue.c **** {
1400:C:/Users/stapi/OneDrive/Desktop/GD32VW553/V1_MQTT_OK/GD32VW55X_Wifi_BLE_SDK/GD32VW55x_RELEASE_V1.0.2/MSDK/wpa_supplicant/src/ap\wpa_auth_glue.c **** 	struct hostapd_data *hapd = ctx;
1401:C:/Users/stapi/OneDrive/Desktop/GD32VW553/V1_MQTT_OK/GD32VW55X_Wifi_BLE_SDK/GD32VW55x_RELEASE_V1.0.2/MSDK/wpa_supplicant/src/ap\wpa_auth_glue.c **** 	return hostapd_add_tspec(hapd, sta_addr, tspec_ie, tspec_ielen);
1402:C:/Users/stapi/OneDrive/Desktop/GD32VW553/V1_MQTT_OK/GD32VW55X_Wifi_BLE_SDK/GD32VW55x_RELEASE_V1.0.2/MSDK/wpa_supplicant/src/ap\wpa_auth_glue.c **** }
1403:C:/Users/stapi/OneDrive/Desktop/GD32VW553/V1_MQTT_OK/GD32VW55X_Wifi_BLE_SDK/GD32VW55x_RELEASE_V1.0.2/MSDK/wpa_supplicant/src/ap\wpa_auth_glue.c **** 
1404:C:/Users/stapi/OneDrive/Desktop/GD32VW553/V1_MQTT_OK/GD32VW55X_Wifi_BLE_SDK/GD32VW55x_RELEASE_V1.0.2/MSDK/wpa_supplicant/src/ap\wpa_auth_glue.c **** 
1405:C:/Users/stapi/OneDrive/Desktop/GD32VW553/V1_MQTT_OK/GD32VW55X_Wifi_BLE_SDK/GD32VW55x_RELEASE_V1.0.2/MSDK/wpa_supplicant/src/ap\wpa_auth_glue.c **** 
1406:C:/Users/stapi/OneDrive/Desktop/GD32VW553/V1_MQTT_OK/GD32VW55X_Wifi_BLE_SDK/GD32VW55x_RELEASE_V1.0.2/MSDK/wpa_supplicant/src/ap\wpa_auth_glue.c **** static int hostapd_wpa_register_ft_oui(struct hostapd_data *hapd,
1407:C:/Users/stapi/OneDrive/Desktop/GD32VW553/V1_MQTT_OK/GD32VW55X_Wifi_BLE_SDK/GD32VW55x_RELEASE_V1.0.2/MSDK/wpa_supplicant/src/ap\wpa_auth_glue.c **** 				       const char *ft_iface)
1408:C:/Users/stapi/OneDrive/Desktop/GD32VW553/V1_MQTT_OK/GD32VW55X_Wifi_BLE_SDK/GD32VW55x_RELEASE_V1.0.2/MSDK/wpa_supplicant/src/ap\wpa_auth_glue.c **** {
1409:C:/Users/stapi/OneDrive/Desktop/GD32VW553/V1_MQTT_OK/GD32VW55X_Wifi_BLE_SDK/GD32VW55x_RELEASE_V1.0.2/MSDK/wpa_supplicant/src/ap\wpa_auth_glue.c **** 	hapd->oui_pull = eth_p_oui_register(hapd, ft_iface,
1410:C:/Users/stapi/OneDrive/Desktop/GD32VW553/V1_MQTT_OK/GD32VW55X_Wifi_BLE_SDK/GD32VW55x_RELEASE_V1.0.2/MSDK/wpa_supplicant/src/ap\wpa_auth_glue.c **** 					    FT_PACKET_R0KH_R1KH_PULL,
1411:C:/Users/stapi/OneDrive/Desktop/GD32VW553/V1_MQTT_OK/GD32VW55X_Wifi_BLE_SDK/GD32VW55x_RELEASE_V1.0.2/MSDK/wpa_supplicant/src/ap\wpa_auth_glue.c **** 					    hostapd_rrb_oui_receive, hapd);
1412:C:/Users/stapi/OneDrive/Desktop/GD32VW553/V1_MQTT_OK/GD32VW55X_Wifi_BLE_SDK/GD32VW55x_RELEASE_V1.0.2/MSDK/wpa_supplicant/src/ap\wpa_auth_glue.c **** 	if (!hapd->oui_pull)
1413:C:/Users/stapi/OneDrive/Desktop/GD32VW553/V1_MQTT_OK/GD32VW55X_Wifi_BLE_SDK/GD32VW55x_RELEASE_V1.0.2/MSDK/wpa_supplicant/src/ap\wpa_auth_glue.c **** 		return -1;
1414:C:/Users/stapi/OneDrive/Desktop/GD32VW553/V1_MQTT_OK/GD32VW55X_Wifi_BLE_SDK/GD32VW55x_RELEASE_V1.0.2/MSDK/wpa_supplicant/src/ap\wpa_auth_glue.c **** 
1415:C:/Users/stapi/OneDrive/Desktop/GD32VW553/V1_MQTT_OK/GD32VW55X_Wifi_BLE_SDK/GD32VW55x_RELEASE_V1.0.2/MSDK/wpa_supplicant/src/ap\wpa_auth_glue.c **** 	hapd->oui_resp = eth_p_oui_register(hapd, ft_iface,
1416:C:/Users/stapi/OneDrive/Desktop/GD32VW553/V1_MQTT_OK/GD32VW55X_Wifi_BLE_SDK/GD32VW55x_RELEASE_V1.0.2/MSDK/wpa_supplicant/src/ap\wpa_auth_glue.c **** 					    FT_PACKET_R0KH_R1KH_RESP,
1417:C:/Users/stapi/OneDrive/Desktop/GD32VW553/V1_MQTT_OK/GD32VW55X_Wifi_BLE_SDK/GD32VW55x_RELEASE_V1.0.2/MSDK/wpa_supplicant/src/ap\wpa_auth_glue.c **** 					    hostapd_rrb_oui_receive, hapd);
1418:C:/Users/stapi/OneDrive/Desktop/GD32VW553/V1_MQTT_OK/GD32VW55X_Wifi_BLE_SDK/GD32VW55x_RELEASE_V1.0.2/MSDK/wpa_supplicant/src/ap\wpa_auth_glue.c **** 	if (!hapd->oui_resp)
1419:C:/Users/stapi/OneDrive/Desktop/GD32VW553/V1_MQTT_OK/GD32VW55X_Wifi_BLE_SDK/GD32VW55x_RELEASE_V1.0.2/MSDK/wpa_supplicant/src/ap\wpa_auth_glue.c **** 		return -1;
1420:C:/Users/stapi/OneDrive/Desktop/GD32VW553/V1_MQTT_OK/GD32VW55X_Wifi_BLE_SDK/GD32VW55x_RELEASE_V1.0.2/MSDK/wpa_supplicant/src/ap\wpa_auth_glue.c **** 
1421:C:/Users/stapi/OneDrive/Desktop/GD32VW553/V1_MQTT_OK/GD32VW55X_Wifi_BLE_SDK/GD32VW55x_RELEASE_V1.0.2/MSDK/wpa_supplicant/src/ap\wpa_auth_glue.c **** 	hapd->oui_push = eth_p_oui_register(hapd, ft_iface,
1422:C:/Users/stapi/OneDrive/Desktop/GD32VW553/V1_MQTT_OK/GD32VW55X_Wifi_BLE_SDK/GD32VW55x_RELEASE_V1.0.2/MSDK/wpa_supplicant/src/ap\wpa_auth_glue.c **** 					    FT_PACKET_R0KH_R1KH_PUSH,
1423:C:/Users/stapi/OneDrive/Desktop/GD32VW553/V1_MQTT_OK/GD32VW55X_Wifi_BLE_SDK/GD32VW55x_RELEASE_V1.0.2/MSDK/wpa_supplicant/src/ap\wpa_auth_glue.c **** 					    hostapd_rrb_oui_receive, hapd);
1424:C:/Users/stapi/OneDrive/Desktop/GD32VW553/V1_MQTT_OK/GD32VW55X_Wifi_BLE_SDK/GD32VW55x_RELEASE_V1.0.2/MSDK/wpa_supplicant/src/ap\wpa_auth_glue.c **** 	if (!hapd->oui_push)
1425:C:/Users/stapi/OneDrive/Desktop/GD32VW553/V1_MQTT_OK/GD32VW55X_Wifi_BLE_SDK/GD32VW55x_RELEASE_V1.0.2/MSDK/wpa_supplicant/src/ap\wpa_auth_glue.c **** 		return -1;
1426:C:/Users/stapi/OneDrive/Desktop/GD32VW553/V1_MQTT_OK/GD32VW55X_Wifi_BLE_SDK/GD32VW55x_RELEASE_V1.0.2/MSDK/wpa_supplicant/src/ap\wpa_auth_glue.c **** 
1427:C:/Users/stapi/OneDrive/Desktop/GD32VW553/V1_MQTT_OK/GD32VW55X_Wifi_BLE_SDK/GD32VW55x_RELEASE_V1.0.2/MSDK/wpa_supplicant/src/ap\wpa_auth_glue.c **** 	hapd->oui_sreq = eth_p_oui_register(hapd, ft_iface,
1428:C:/Users/stapi/OneDrive/Desktop/GD32VW553/V1_MQTT_OK/GD32VW55X_Wifi_BLE_SDK/GD32VW55x_RELEASE_V1.0.2/MSDK/wpa_supplicant/src/ap\wpa_auth_glue.c **** 					    FT_PACKET_R0KH_R1KH_SEQ_REQ,
1429:C:/Users/stapi/OneDrive/Desktop/GD32VW553/V1_MQTT_OK/GD32VW55X_Wifi_BLE_SDK/GD32VW55x_RELEASE_V1.0.2/MSDK/wpa_supplicant/src/ap\wpa_auth_glue.c **** 					    hostapd_rrb_oui_receive, hapd);
1430:C:/Users/stapi/OneDrive/Desktop/GD32VW553/V1_MQTT_OK/GD32VW55X_Wifi_BLE_SDK/GD32VW55x_RELEASE_V1.0.2/MSDK/wpa_supplicant/src/ap\wpa_auth_glue.c **** 	if (!hapd->oui_sreq)
1431:C:/Users/stapi/OneDrive/Desktop/GD32VW553/V1_MQTT_OK/GD32VW55X_Wifi_BLE_SDK/GD32VW55x_RELEASE_V1.0.2/MSDK/wpa_supplicant/src/ap\wpa_auth_glue.c **** 		return -1;
1432:C:/Users/stapi/OneDrive/Desktop/GD32VW553/V1_MQTT_OK/GD32VW55X_Wifi_BLE_SDK/GD32VW55x_RELEASE_V1.0.2/MSDK/wpa_supplicant/src/ap\wpa_auth_glue.c **** 
1433:C:/Users/stapi/OneDrive/Desktop/GD32VW553/V1_MQTT_OK/GD32VW55X_Wifi_BLE_SDK/GD32VW55x_RELEASE_V1.0.2/MSDK/wpa_supplicant/src/ap\wpa_auth_glue.c **** 	hapd->oui_sresp = eth_p_oui_register(hapd, ft_iface,
1434:C:/Users/stapi/OneDrive/Desktop/GD32VW553/V1_MQTT_OK/GD32VW55X_Wifi_BLE_SDK/GD32VW55x_RELEASE_V1.0.2/MSDK/wpa_supplicant/src/ap\wpa_auth_glue.c **** 					     FT_PACKET_R0KH_R1KH_SEQ_RESP,
1435:C:/Users/stapi/OneDrive/Desktop/GD32VW553/V1_MQTT_OK/GD32VW55X_Wifi_BLE_SDK/GD32VW55x_RELEASE_V1.0.2/MSDK/wpa_supplicant/src/ap\wpa_auth_glue.c **** 					     hostapd_rrb_oui_receive, hapd);
1436:C:/Users/stapi/OneDrive/Desktop/GD32VW553/V1_MQTT_OK/GD32VW55X_Wifi_BLE_SDK/GD32VW55x_RELEASE_V1.0.2/MSDK/wpa_supplicant/src/ap\wpa_auth_glue.c **** 	if (!hapd->oui_sresp)
1437:C:/Users/stapi/OneDrive/Desktop/GD32VW553/V1_MQTT_OK/GD32VW55X_Wifi_BLE_SDK/GD32VW55x_RELEASE_V1.0.2/MSDK/wpa_supplicant/src/ap\wpa_auth_glue.c **** 		return -1;
1438:C:/Users/stapi/OneDrive/Desktop/GD32VW553/V1_MQTT_OK/GD32VW55X_Wifi_BLE_SDK/GD32VW55x_RELEASE_V1.0.2/MSDK/wpa_supplicant/src/ap\wpa_auth_glue.c **** 
1439:C:/Users/stapi/OneDrive/Desktop/GD32VW553/V1_MQTT_OK/GD32VW55X_Wifi_BLE_SDK/GD32VW55x_RELEASE_V1.0.2/MSDK/wpa_supplicant/src/ap\wpa_auth_glue.c **** 	return 0;
1440:C:/Users/stapi/OneDrive/Desktop/GD32VW553/V1_MQTT_OK/GD32VW55X_Wifi_BLE_SDK/GD32VW55x_RELEASE_V1.0.2/MSDK/wpa_supplicant/src/ap\wpa_auth_glue.c **** }
1441:C:/Users/stapi/OneDrive/Desktop/GD32VW553/V1_MQTT_OK/GD32VW55X_Wifi_BLE_SDK/GD32VW55x_RELEASE_V1.0.2/MSDK/wpa_supplicant/src/ap\wpa_auth_glue.c **** 
1442:C:/Users/stapi/OneDrive/Desktop/GD32VW553/V1_MQTT_OK/GD32VW55X_Wifi_BLE_SDK/GD32VW55x_RELEASE_V1.0.2/MSDK/wpa_supplicant/src/ap\wpa_auth_glue.c **** 
1443:C:/Users/stapi/OneDrive/Desktop/GD32VW553/V1_MQTT_OK/GD32VW55X_Wifi_BLE_SDK/GD32VW55x_RELEASE_V1.0.2/MSDK/wpa_supplicant/src/ap\wpa_auth_glue.c **** static void hostapd_wpa_unregister_ft_oui(struct hostapd_data *hapd)
1444:C:/Users/stapi/OneDrive/Desktop/GD32VW553/V1_MQTT_OK/GD32VW55X_Wifi_BLE_SDK/GD32VW55x_RELEASE_V1.0.2/MSDK/wpa_supplicant/src/ap\wpa_auth_glue.c **** {
1445:C:/Users/stapi/OneDrive/Desktop/GD32VW553/V1_MQTT_OK/GD32VW55X_Wifi_BLE_SDK/GD32VW55x_RELEASE_V1.0.2/MSDK/wpa_supplicant/src/ap\wpa_auth_glue.c **** 	eth_p_oui_unregister(hapd->oui_pull);
1446:C:/Users/stapi/OneDrive/Desktop/GD32VW553/V1_MQTT_OK/GD32VW55X_Wifi_BLE_SDK/GD32VW55x_RELEASE_V1.0.2/MSDK/wpa_supplicant/src/ap\wpa_auth_glue.c **** 	hapd->oui_pull = NULL;
1447:C:/Users/stapi/OneDrive/Desktop/GD32VW553/V1_MQTT_OK/GD32VW55X_Wifi_BLE_SDK/GD32VW55x_RELEASE_V1.0.2/MSDK/wpa_supplicant/src/ap\wpa_auth_glue.c **** 	eth_p_oui_unregister(hapd->oui_resp);
1448:C:/Users/stapi/OneDrive/Desktop/GD32VW553/V1_MQTT_OK/GD32VW55X_Wifi_BLE_SDK/GD32VW55x_RELEASE_V1.0.2/MSDK/wpa_supplicant/src/ap\wpa_auth_glue.c **** 	hapd->oui_resp = NULL;
1449:C:/Users/stapi/OneDrive/Desktop/GD32VW553/V1_MQTT_OK/GD32VW55X_Wifi_BLE_SDK/GD32VW55x_RELEASE_V1.0.2/MSDK/wpa_supplicant/src/ap\wpa_auth_glue.c **** 	eth_p_oui_unregister(hapd->oui_push);
1450:C:/Users/stapi/OneDrive/Desktop/GD32VW553/V1_MQTT_OK/GD32VW55X_Wifi_BLE_SDK/GD32VW55x_RELEASE_V1.0.2/MSDK/wpa_supplicant/src/ap\wpa_auth_glue.c **** 	hapd->oui_push = NULL;
1451:C:/Users/stapi/OneDrive/Desktop/GD32VW553/V1_MQTT_OK/GD32VW55X_Wifi_BLE_SDK/GD32VW55x_RELEASE_V1.0.2/MSDK/wpa_supplicant/src/ap\wpa_auth_glue.c **** 	eth_p_oui_unregister(hapd->oui_sreq);
1452:C:/Users/stapi/OneDrive/Desktop/GD32VW553/V1_MQTT_OK/GD32VW55X_Wifi_BLE_SDK/GD32VW55x_RELEASE_V1.0.2/MSDK/wpa_supplicant/src/ap\wpa_auth_glue.c **** 	hapd->oui_sreq = NULL;
1453:C:/Users/stapi/OneDrive/Desktop/GD32VW553/V1_MQTT_OK/GD32VW55X_Wifi_BLE_SDK/GD32VW55x_RELEASE_V1.0.2/MSDK/wpa_supplicant/src/ap\wpa_auth_glue.c **** 	eth_p_oui_unregister(hapd->oui_sresp);
1454:C:/Users/stapi/OneDrive/Desktop/GD32VW553/V1_MQTT_OK/GD32VW55X_Wifi_BLE_SDK/GD32VW55x_RELEASE_V1.0.2/MSDK/wpa_supplicant/src/ap\wpa_auth_glue.c **** 	hapd->oui_sresp = NULL;
1455:C:/Users/stapi/OneDrive/Desktop/GD32VW553/V1_MQTT_OK/GD32VW55X_Wifi_BLE_SDK/GD32VW55x_RELEASE_V1.0.2/MSDK/wpa_supplicant/src/ap\wpa_auth_glue.c **** }
1456:C:/Users/stapi/OneDrive/Desktop/GD32VW553/V1_MQTT_OK/GD32VW55X_Wifi_BLE_SDK/GD32VW55x_RELEASE_V1.0.2/MSDK/wpa_supplicant/src/ap\wpa_auth_glue.c **** #endif /* CONFIG_IEEE80211R_AP */
1457:C:/Users/stapi/OneDrive/Desktop/GD32VW553/V1_MQTT_OK/GD32VW55X_Wifi_BLE_SDK/GD32VW55x_RELEASE_V1.0.2/MSDK/wpa_supplicant/src/ap\wpa_auth_glue.c **** 
1458:C:/Users/stapi/OneDrive/Desktop/GD32VW553/V1_MQTT_OK/GD32VW55X_Wifi_BLE_SDK/GD32VW55x_RELEASE_V1.0.2/MSDK/wpa_supplicant/src/ap\wpa_auth_glue.c **** 
1459:C:/Users/stapi/OneDrive/Desktop/GD32VW553/V1_MQTT_OK/GD32VW55X_Wifi_BLE_SDK/GD32VW55x_RELEASE_V1.0.2/MSDK/wpa_supplicant/src/ap\wpa_auth_glue.c **** int hostapd_setup_wpa(struct hostapd_data *hapd)
1460:C:/Users/stapi/OneDrive/Desktop/GD32VW553/V1_MQTT_OK/GD32VW55X_Wifi_BLE_SDK/GD32VW55x_RELEASE_V1.0.2/MSDK/wpa_supplicant/src/ap\wpa_auth_glue.c **** {
 1298              		.loc 1 1460 1 is_stmt 1
 1299              		.cfi_startproc
 1300              	.LVL115:
 1301 0000 17030000 		call	t0,__riscv_save_1
 1301      E7020300 
 1302              		.cfi_offset 8, -8
 1303              		.cfi_offset 1, -4
 1304              		.cfi_def_cfa_offset 16
1461:C:/Users/stapi/OneDrive/Desktop/GD32VW553/V1_MQTT_OK/GD32VW55X_Wifi_BLE_SDK/GD32VW55x_RELEASE_V1.0.2/MSDK/wpa_supplicant/src/ap\wpa_auth_glue.c **** 	struct wpa_auth_config _conf;
 1305              		.loc 1 1461 2
1462:C:/Users/stapi/OneDrive/Desktop/GD32VW553/V1_MQTT_OK/GD32VW55X_Wifi_BLE_SDK/GD32VW55x_RELEASE_V1.0.2/MSDK/wpa_supplicant/src/ap\wpa_auth_glue.c **** 	static const struct wpa_auth_callbacks cb = {
 1306              		.loc 1 1462 2
1463:C:/Users/stapi/OneDrive/Desktop/GD32VW553/V1_MQTT_OK/GD32VW55X_Wifi_BLE_SDK/GD32VW55x_RELEASE_V1.0.2/MSDK/wpa_supplicant/src/ap\wpa_auth_glue.c **** 		.logger = hostapd_wpa_auth_logger,
1464:C:/Users/stapi/OneDrive/Desktop/GD32VW553/V1_MQTT_OK/GD32VW55X_Wifi_BLE_SDK/GD32VW55x_RELEASE_V1.0.2/MSDK/wpa_supplicant/src/ap\wpa_auth_glue.c **** 		.disconnect = hostapd_wpa_auth_disconnect,
1465:C:/Users/stapi/OneDrive/Desktop/GD32VW553/V1_MQTT_OK/GD32VW55X_Wifi_BLE_SDK/GD32VW55x_RELEASE_V1.0.2/MSDK/wpa_supplicant/src/ap\wpa_auth_glue.c **** 		.mic_failure_report = hostapd_wpa_auth_mic_failure_report,
1466:C:/Users/stapi/OneDrive/Desktop/GD32VW553/V1_MQTT_OK/GD32VW55X_Wifi_BLE_SDK/GD32VW55x_RELEASE_V1.0.2/MSDK/wpa_supplicant/src/ap\wpa_auth_glue.c **** 		.psk_failure_report = hostapd_wpa_auth_psk_failure_report,
1467:C:/Users/stapi/OneDrive/Desktop/GD32VW553/V1_MQTT_OK/GD32VW55X_Wifi_BLE_SDK/GD32VW55x_RELEASE_V1.0.2/MSDK/wpa_supplicant/src/ap\wpa_auth_glue.c **** 		.set_eapol = hostapd_wpa_auth_set_eapol,
1468:C:/Users/stapi/OneDrive/Desktop/GD32VW553/V1_MQTT_OK/GD32VW55X_Wifi_BLE_SDK/GD32VW55x_RELEASE_V1.0.2/MSDK/wpa_supplicant/src/ap\wpa_auth_glue.c **** 		.get_eapol = hostapd_wpa_auth_get_eapol,
1469:C:/Users/stapi/OneDrive/Desktop/GD32VW553/V1_MQTT_OK/GD32VW55X_Wifi_BLE_SDK/GD32VW55x_RELEASE_V1.0.2/MSDK/wpa_supplicant/src/ap\wpa_auth_glue.c **** 		.get_psk = hostapd_wpa_auth_get_psk,
1470:C:/Users/stapi/OneDrive/Desktop/GD32VW553/V1_MQTT_OK/GD32VW55X_Wifi_BLE_SDK/GD32VW55x_RELEASE_V1.0.2/MSDK/wpa_supplicant/src/ap\wpa_auth_glue.c **** #ifdef IEEE8021X_EAPOL
1471:C:/Users/stapi/OneDrive/Desktop/GD32VW553/V1_MQTT_OK/GD32VW55X_Wifi_BLE_SDK/GD32VW55x_RELEASE_V1.0.2/MSDK/wpa_supplicant/src/ap\wpa_auth_glue.c **** 		.get_msk = hostapd_wpa_auth_get_msk,
1472:C:/Users/stapi/OneDrive/Desktop/GD32VW553/V1_MQTT_OK/GD32VW55X_Wifi_BLE_SDK/GD32VW55x_RELEASE_V1.0.2/MSDK/wpa_supplicant/src/ap\wpa_auth_glue.c **** #endif /* IEEE8021X_EAPOL */
1473:C:/Users/stapi/OneDrive/Desktop/GD32VW553/V1_MQTT_OK/GD32VW55X_Wifi_BLE_SDK/GD32VW55x_RELEASE_V1.0.2/MSDK/wpa_supplicant/src/ap\wpa_auth_glue.c **** 		.set_key = hostapd_wpa_auth_set_key,
1474:C:/Users/stapi/OneDrive/Desktop/GD32VW553/V1_MQTT_OK/GD32VW55X_Wifi_BLE_SDK/GD32VW55x_RELEASE_V1.0.2/MSDK/wpa_supplicant/src/ap\wpa_auth_glue.c **** 		.get_seqnum = hostapd_wpa_auth_get_seqnum,
1475:C:/Users/stapi/OneDrive/Desktop/GD32VW553/V1_MQTT_OK/GD32VW55X_Wifi_BLE_SDK/GD32VW55x_RELEASE_V1.0.2/MSDK/wpa_supplicant/src/ap\wpa_auth_glue.c **** 		.send_eapol = hostapd_wpa_auth_send_eapol,
1476:C:/Users/stapi/OneDrive/Desktop/GD32VW553/V1_MQTT_OK/GD32VW55X_Wifi_BLE_SDK/GD32VW55x_RELEASE_V1.0.2/MSDK/wpa_supplicant/src/ap\wpa_auth_glue.c **** 		.for_each_sta = hostapd_wpa_auth_for_each_sta,
1477:C:/Users/stapi/OneDrive/Desktop/GD32VW553/V1_MQTT_OK/GD32VW55X_Wifi_BLE_SDK/GD32VW55x_RELEASE_V1.0.2/MSDK/wpa_supplicant/src/ap\wpa_auth_glue.c **** 		.for_each_auth = hostapd_wpa_auth_for_each_auth,
1478:C:/Users/stapi/OneDrive/Desktop/GD32VW553/V1_MQTT_OK/GD32VW55X_Wifi_BLE_SDK/GD32VW55x_RELEASE_V1.0.2/MSDK/wpa_supplicant/src/ap\wpa_auth_glue.c **** 		.send_ether = hostapd_wpa_auth_send_ether,
1479:C:/Users/stapi/OneDrive/Desktop/GD32VW553/V1_MQTT_OK/GD32VW55X_Wifi_BLE_SDK/GD32VW55x_RELEASE_V1.0.2/MSDK/wpa_supplicant/src/ap\wpa_auth_glue.c **** 		.send_oui = hostapd_wpa_auth_send_oui,
1480:C:/Users/stapi/OneDrive/Desktop/GD32VW553/V1_MQTT_OK/GD32VW55X_Wifi_BLE_SDK/GD32VW55x_RELEASE_V1.0.2/MSDK/wpa_supplicant/src/ap\wpa_auth_glue.c **** 		.channel_info = hostapd_channel_info,
1481:C:/Users/stapi/OneDrive/Desktop/GD32VW553/V1_MQTT_OK/GD32VW55X_Wifi_BLE_SDK/GD32VW55x_RELEASE_V1.0.2/MSDK/wpa_supplicant/src/ap\wpa_auth_glue.c **** 		.update_vlan = hostapd_wpa_auth_update_vlan,
1482:C:/Users/stapi/OneDrive/Desktop/GD32VW553/V1_MQTT_OK/GD32VW55X_Wifi_BLE_SDK/GD32VW55x_RELEASE_V1.0.2/MSDK/wpa_supplicant/src/ap\wpa_auth_glue.c **** #ifdef CONFIG_PASN
1483:C:/Users/stapi/OneDrive/Desktop/GD32VW553/V1_MQTT_OK/GD32VW55X_Wifi_BLE_SDK/GD32VW55x_RELEASE_V1.0.2/MSDK/wpa_supplicant/src/ap\wpa_auth_glue.c **** 		.store_ptksa = hostapd_store_ptksa,
1484:C:/Users/stapi/OneDrive/Desktop/GD32VW553/V1_MQTT_OK/GD32VW55X_Wifi_BLE_SDK/GD32VW55x_RELEASE_V1.0.2/MSDK/wpa_supplicant/src/ap\wpa_auth_glue.c **** 		.clear_ptksa = hostapd_clear_ptksa,
1485:C:/Users/stapi/OneDrive/Desktop/GD32VW553/V1_MQTT_OK/GD32VW55X_Wifi_BLE_SDK/GD32VW55x_RELEASE_V1.0.2/MSDK/wpa_supplicant/src/ap\wpa_auth_glue.c **** #endif /* CONFIG_PASN */
1486:C:/Users/stapi/OneDrive/Desktop/GD32VW553/V1_MQTT_OK/GD32VW55X_Wifi_BLE_SDK/GD32VW55x_RELEASE_V1.0.2/MSDK/wpa_supplicant/src/ap\wpa_auth_glue.c **** 
1487:C:/Users/stapi/OneDrive/Desktop/GD32VW553/V1_MQTT_OK/GD32VW55X_Wifi_BLE_SDK/GD32VW55x_RELEASE_V1.0.2/MSDK/wpa_supplicant/src/ap\wpa_auth_glue.c **** #ifdef CONFIG_OCV
1488:C:/Users/stapi/OneDrive/Desktop/GD32VW553/V1_MQTT_OK/GD32VW55X_Wifi_BLE_SDK/GD32VW55x_RELEASE_V1.0.2/MSDK/wpa_supplicant/src/ap\wpa_auth_glue.c **** 		.get_sta_tx_params = hostapd_get_sta_tx_params,
1489:C:/Users/stapi/OneDrive/Desktop/GD32VW553/V1_MQTT_OK/GD32VW55X_Wifi_BLE_SDK/GD32VW55x_RELEASE_V1.0.2/MSDK/wpa_supplicant/src/ap\wpa_auth_glue.c **** #endif /* CONFIG_OCV */
1490:C:/Users/stapi/OneDrive/Desktop/GD32VW553/V1_MQTT_OK/GD32VW55X_Wifi_BLE_SDK/GD32VW55x_RELEASE_V1.0.2/MSDK/wpa_supplicant/src/ap\wpa_auth_glue.c **** #ifdef CONFIG_IEEE80211R_AP
1491:C:/Users/stapi/OneDrive/Desktop/GD32VW553/V1_MQTT_OK/GD32VW55X_Wifi_BLE_SDK/GD32VW55x_RELEASE_V1.0.2/MSDK/wpa_supplicant/src/ap\wpa_auth_glue.c **** 		.send_ft_action = hostapd_wpa_auth_send_ft_action,
1492:C:/Users/stapi/OneDrive/Desktop/GD32VW553/V1_MQTT_OK/GD32VW55X_Wifi_BLE_SDK/GD32VW55x_RELEASE_V1.0.2/MSDK/wpa_supplicant/src/ap\wpa_auth_glue.c **** 		.add_sta = hostapd_wpa_auth_add_sta,
1493:C:/Users/stapi/OneDrive/Desktop/GD32VW553/V1_MQTT_OK/GD32VW55X_Wifi_BLE_SDK/GD32VW55x_RELEASE_V1.0.2/MSDK/wpa_supplicant/src/ap\wpa_auth_glue.c **** 		.add_sta_ft = hostapd_wpa_auth_add_sta_ft,
1494:C:/Users/stapi/OneDrive/Desktop/GD32VW553/V1_MQTT_OK/GD32VW55X_Wifi_BLE_SDK/GD32VW55x_RELEASE_V1.0.2/MSDK/wpa_supplicant/src/ap\wpa_auth_glue.c **** 		.add_tspec = hostapd_wpa_auth_add_tspec,
1495:C:/Users/stapi/OneDrive/Desktop/GD32VW553/V1_MQTT_OK/GD32VW55X_Wifi_BLE_SDK/GD32VW55x_RELEASE_V1.0.2/MSDK/wpa_supplicant/src/ap\wpa_auth_glue.c **** 		.set_vlan = hostapd_wpa_auth_set_vlan,
1496:C:/Users/stapi/OneDrive/Desktop/GD32VW553/V1_MQTT_OK/GD32VW55X_Wifi_BLE_SDK/GD32VW55x_RELEASE_V1.0.2/MSDK/wpa_supplicant/src/ap\wpa_auth_glue.c **** 		.get_vlan = hostapd_wpa_auth_get_vlan,
1497:C:/Users/stapi/OneDrive/Desktop/GD32VW553/V1_MQTT_OK/GD32VW55X_Wifi_BLE_SDK/GD32VW55x_RELEASE_V1.0.2/MSDK/wpa_supplicant/src/ap\wpa_auth_glue.c **** 		.set_identity = hostapd_wpa_auth_set_identity,
1498:C:/Users/stapi/OneDrive/Desktop/GD32VW553/V1_MQTT_OK/GD32VW55X_Wifi_BLE_SDK/GD32VW55x_RELEASE_V1.0.2/MSDK/wpa_supplicant/src/ap\wpa_auth_glue.c **** 		.get_identity = hostapd_wpa_auth_get_identity,
1499:C:/Users/stapi/OneDrive/Desktop/GD32VW553/V1_MQTT_OK/GD32VW55X_Wifi_BLE_SDK/GD32VW55x_RELEASE_V1.0.2/MSDK/wpa_supplicant/src/ap\wpa_auth_glue.c **** 		.set_radius_cui = hostapd_wpa_auth_set_radius_cui,
1500:C:/Users/stapi/OneDrive/Desktop/GD32VW553/V1_MQTT_OK/GD32VW55X_Wifi_BLE_SDK/GD32VW55x_RELEASE_V1.0.2/MSDK/wpa_supplicant/src/ap\wpa_auth_glue.c **** 		.get_radius_cui = hostapd_wpa_auth_get_radius_cui,
1501:C:/Users/stapi/OneDrive/Desktop/GD32VW553/V1_MQTT_OK/GD32VW55X_Wifi_BLE_SDK/GD32VW55x_RELEASE_V1.0.2/MSDK/wpa_supplicant/src/ap\wpa_auth_glue.c **** 		.set_session_timeout = hostapd_wpa_auth_set_session_timeout,
1502:C:/Users/stapi/OneDrive/Desktop/GD32VW553/V1_MQTT_OK/GD32VW55X_Wifi_BLE_SDK/GD32VW55x_RELEASE_V1.0.2/MSDK/wpa_supplicant/src/ap\wpa_auth_glue.c **** 		.get_session_timeout = hostapd_wpa_auth_get_session_timeout,
1503:C:/Users/stapi/OneDrive/Desktop/GD32VW553/V1_MQTT_OK/GD32VW55X_Wifi_BLE_SDK/GD32VW55x_RELEASE_V1.0.2/MSDK/wpa_supplicant/src/ap\wpa_auth_glue.c **** #endif /* CONFIG_IEEE80211R_AP */
1504:C:/Users/stapi/OneDrive/Desktop/GD32VW553/V1_MQTT_OK/GD32VW55X_Wifi_BLE_SDK/GD32VW55x_RELEASE_V1.0.2/MSDK/wpa_supplicant/src/ap\wpa_auth_glue.c **** 	};
1505:C:/Users/stapi/OneDrive/Desktop/GD32VW553/V1_MQTT_OK/GD32VW55X_Wifi_BLE_SDK/GD32VW55x_RELEASE_V1.0.2/MSDK/wpa_supplicant/src/ap\wpa_auth_glue.c **** 	const u8 *wpa_ie;
 1307              		.loc 1 1505 2
1506:C:/Users/stapi/OneDrive/Desktop/GD32VW553/V1_MQTT_OK/GD32VW55X_Wifi_BLE_SDK/GD32VW55x_RELEASE_V1.0.2/MSDK/wpa_supplicant/src/ap\wpa_auth_glue.c **** 	size_t wpa_ie_len;
 1308              		.loc 1 1506 2
1507:C:/Users/stapi/OneDrive/Desktop/GD32VW553/V1_MQTT_OK/GD32VW55X_Wifi_BLE_SDK/GD32VW55x_RELEASE_V1.0.2/MSDK/wpa_supplicant/src/ap\wpa_auth_glue.c **** 
1508:C:/Users/stapi/OneDrive/Desktop/GD32VW553/V1_MQTT_OK/GD32VW55X_Wifi_BLE_SDK/GD32VW55x_RELEASE_V1.0.2/MSDK/wpa_supplicant/src/ap\wpa_auth_glue.c **** 	hostapd_wpa_auth_conf(hapd->conf, hapd->iconf, &_conf);
 1309              		.loc 1 1508 2
1460:C:/Users/stapi/OneDrive/Desktop/GD32VW553/V1_MQTT_OK/GD32VW55X_Wifi_BLE_SDK/GD32VW55x_RELEASE_V1.0.2/MSDK/wpa_supplicant/src/ap\wpa_auth_glue.c **** 	struct wpa_auth_config _conf;
 1310              		.loc 1 1460 1 is_stmt 0
 1311 0008 2A84     		mv	s0,a0
 1312              		.loc 1 1508 2
 1313 000a 0845     		lw	a0,8(a0)
 1314              	.LVL116:
1460:C:/Users/stapi/OneDrive/Desktop/GD32VW553/V1_MQTT_OK/GD32VW55X_Wifi_BLE_SDK/GD32VW55x_RELEASE_V1.0.2/MSDK/wpa_supplicant/src/ap\wpa_auth_glue.c **** 	struct wpa_auth_config _conf;
 1315              		.loc 1 1460 1
 1316 000c 3571     		addi	sp,sp,-160
 1317              		.cfi_def_cfa_offset 176
 1318              		.loc 1 1508 2
 1319 000e 0C08     		addi	a1,sp,16
 1320 0010 97000000 		call	hostapd_wpa_auth_conf.constprop.0
 1320      E7800000 
 1321              	.LVL117:
1509:C:/Users/stapi/OneDrive/Desktop/GD32VW553/V1_MQTT_OK/GD32VW55X_Wifi_BLE_SDK/GD32VW55x_RELEASE_V1.0.2/MSDK/wpa_supplicant/src/ap\wpa_auth_glue.c **** 	_conf.msg_ctx = hapd->msg_ctx;
 1322              		.loc 1 1509 2 is_stmt 1
1510:C:/Users/stapi/OneDrive/Desktop/GD32VW553/V1_MQTT_OK/GD32VW55X_Wifi_BLE_SDK/GD32VW55x_RELEASE_V1.0.2/MSDK/wpa_supplicant/src/ap\wpa_auth_glue.c **** 	if (hapd->iface->drv_flags & WPA_DRIVER_FLAGS_EAPOL_TX_STATUS)
 1323              		.loc 1 1510 17 is_stmt 0
 1324 0018 1840     		lw	a4,0(s0)
1509:C:/Users/stapi/OneDrive/Desktop/GD32VW553/V1_MQTT_OK/GD32VW55X_Wifi_BLE_SDK/GD32VW55x_RELEASE_V1.0.2/MSDK/wpa_supplicant/src/ap\wpa_auth_glue.c **** 	_conf.msg_ctx = hapd->msg_ctx;
 1325              		.loc 1 1509 22
 1326 001a 03258452 		lw	a0,1320(s0)
 1327              		.loc 1 1510 17
 1328 001e 83278743 		lw	a5,1080(a4)
 1329 0022 8326C743 		lw	a3,1084(a4)
 1330              		.loc 1 1510 29
 1331 0026 4167     		li	a4,65536
1509:C:/Users/stapi/OneDrive/Desktop/GD32VW553/V1_MQTT_OK/GD32VW55X_Wifi_BLE_SDK/GD32VW55x_RELEASE_V1.0.2/MSDK/wpa_supplicant/src/ap\wpa_auth_glue.c **** 	_conf.msg_ctx = hapd->msg_ctx;
 1332              		.loc 1 1509 16
 1333 0028 2AC8     		sw	a0,16(sp)
 1334              		.loc 1 1510 2 is_stmt 1
 1335              		.loc 1 1510 29 is_stmt 0
 1336 002a 7D8F     		and	a4,a4,a5
 1337              		.loc 1 1510 5
 1338 002c 19C3     		beq	a4,zero,.L131
1511:C:/Users/stapi/OneDrive/Desktop/GD32VW553/V1_MQTT_OK/GD32VW55X_Wifi_BLE_SDK/GD32VW55x_RELEASE_V1.0.2/MSDK/wpa_supplicant/src/ap\wpa_auth_glue.c **** 		_conf.tx_status = 1;
 1339              		.loc 1 1511 3 is_stmt 1
 1340              		.loc 1 1511 19 is_stmt 0
 1341 002e 0547     		li	a4,1
 1342 0030 BAD2     		sw	a4,100(sp)
 1343              	.L131:
1512:C:/Users/stapi/OneDrive/Desktop/GD32VW553/V1_MQTT_OK/GD32VW55X_Wifi_BLE_SDK/GD32VW55x_RELEASE_V1.0.2/MSDK/wpa_supplicant/src/ap\wpa_auth_glue.c **** 	if (hapd->iface->drv_flags & WPA_DRIVER_FLAGS_AP_MLME)
 1344              		.loc 1 1512 2 is_stmt 1
 1345              		.loc 1 1512 29 is_stmt 0
 1346 0032 37070001 		li	a4,16777216
 1347 0036 7D8F     		and	a4,a4,a5
 1348              		.loc 1 1512 5
 1349 0038 19C3     		beq	a4,zero,.L133
1513:C:/Users/stapi/OneDrive/Desktop/GD32VW553/V1_MQTT_OK/GD32VW55X_Wifi_BLE_SDK/GD32VW55x_RELEASE_V1.0.2/MSDK/wpa_supplicant/src/ap\wpa_auth_glue.c **** 		_conf.ap_mlme = 1;
 1350              		.loc 1 1513 3 is_stmt 1
 1351              		.loc 1 1513 17 is_stmt 0
 1352 003a 0547     		li	a4,1
 1353 003c BADE     		sw	a4,124(sp)
 1354              	.L133:
1514:C:/Users/stapi/OneDrive/Desktop/GD32VW553/V1_MQTT_OK/GD32VW55X_Wifi_BLE_SDK/GD32VW55x_RELEASE_V1.0.2/MSDK/wpa_supplicant/src/ap\wpa_auth_glue.c **** 
1515:C:/Users/stapi/OneDrive/Desktop/GD32VW553/V1_MQTT_OK/GD32VW55X_Wifi_BLE_SDK/GD32VW55x_RELEASE_V1.0.2/MSDK/wpa_supplicant/src/ap\wpa_auth_glue.c **** 	if (!(hapd->iface->drv_flags & WPA_DRIVER_FLAGS_WIRED) &&
 1355              		.loc 1 1515 2 is_stmt 1
 1356              		.loc 1 1515 31 is_stmt 0
 1357 003e C18B     		andi	a5,a5,16
 1358              		.loc 1 1515 5
 1359 0040 8DEB     		bne	a5,zero,.L135
1516:C:/Users/stapi/OneDrive/Desktop/GD32VW553/V1_MQTT_OK/GD32VW55X_Wifi_BLE_SDK/GD32VW55x_RELEASE_V1.0.2/MSDK/wpa_supplicant/src/ap\wpa_auth_glue.c **** 	    (hapd->conf->wpa_deny_ptk0_rekey == PTK0_REKEY_ALLOW_NEVER ||
 1360              		.loc 1 1516 17 discriminator 1
 1361 0042 1C44     		lw	a5,8(s0)
 1362 0044 03A78718 		lw	a4,392(a5)
1515:C:/Users/stapi/OneDrive/Desktop/GD32VW553/V1_MQTT_OK/GD32VW55X_Wifi_BLE_SDK/GD32VW55x_RELEASE_V1.0.2/MSDK/wpa_supplicant/src/ap\wpa_auth_glue.c **** 	    (hapd->conf->wpa_deny_ptk0_rekey == PTK0_REKEY_ALLOW_NEVER ||
 1363              		.loc 1 1515 57 discriminator 1
 1364 0048 8947     		li	a5,2
 1365 004a 6309F700 		beq	a4,a5,.L136
 1366              		.loc 1 1516 65
 1367 004e 8547     		li	a5,1
 1368 0050 6311F702 		bne	a4,a5,.L135
1517:C:/Users/stapi/OneDrive/Desktop/GD32VW553/V1_MQTT_OK/GD32VW55X_Wifi_BLE_SDK/GD32VW55x_RELEASE_V1.0.2/MSDK/wpa_supplicant/src/ap\wpa_auth_glue.c **** 	     (hapd->conf->wpa_deny_ptk0_rekey == PTK0_REKEY_ALLOW_LOCAL_OK &&
1518:C:/Users/stapi/OneDrive/Desktop/GD32VW553/V1_MQTT_OK/GD32VW55X_Wifi_BLE_SDK/GD32VW55x_RELEASE_V1.0.2/MSDK/wpa_supplicant/src/ap\wpa_auth_glue.c **** 	      !(hapd->iface->drv_flags & WPA_DRIVER_FLAGS_SAFE_PTK0_REKEYS)))) {
 1369              		.loc 1 1518 33
 1370 0054 B7070020 		li	a5,536870912
 1371 0058 F58F     		and	a5,a5,a3
1517:C:/Users/stapi/OneDrive/Desktop/GD32VW553/V1_MQTT_OK/GD32VW55X_Wifi_BLE_SDK/GD32VW55x_RELEASE_V1.0.2/MSDK/wpa_supplicant/src/ap\wpa_auth_glue.c **** 	     (hapd->conf->wpa_deny_ptk0_rekey == PTK0_REKEY_ALLOW_LOCAL_OK &&
 1372              		.loc 1 1517 69
 1373 005a 81EF     		bne	a5,zero,.L135
 1374              	.L136:
1519:C:/Users/stapi/OneDrive/Desktop/GD32VW553/V1_MQTT_OK/GD32VW55X_Wifi_BLE_SDK/GD32VW55x_RELEASE_V1.0.2/MSDK/wpa_supplicant/src/ap\wpa_auth_glue.c **** 		wpa_msg(hapd->msg_ctx, MSG_INFO,
 1375              		.loc 1 1519 3 is_stmt 1
 1376 005c 37060000 		lui	a2,%hi(.LC3)
 1377 0060 13060600 		addi	a2,a2,%lo(.LC3)
 1378 0064 8D45     		li	a1,3
 1379 0066 97000000 		call	wpa_msg
 1379      E7800000 
 1380              	.LVL118:
1520:C:/Users/stapi/OneDrive/Desktop/GD32VW553/V1_MQTT_OK/GD32VW55X_Wifi_BLE_SDK/GD32VW55x_RELEASE_V1.0.2/MSDK/wpa_supplicant/src/ap\wpa_auth_glue.c **** 			"Disable PTK0 rekey support - replaced with disconnect");
1521:C:/Users/stapi/OneDrive/Desktop/GD32VW553/V1_MQTT_OK/GD32VW55X_Wifi_BLE_SDK/GD32VW55x_RELEASE_V1.0.2/MSDK/wpa_supplicant/src/ap\wpa_auth_glue.c **** 		_conf.wpa_deny_ptk0_rekey = 1;
 1381              		.loc 1 1521 3
 1382              		.loc 1 1521 29 is_stmt 0
 1383 006e 8547     		li	a5,1
 1384 0070 3EDC     		sw	a5,56(sp)
 1385              	.L135:
1522:C:/Users/stapi/OneDrive/Desktop/GD32VW553/V1_MQTT_OK/GD32VW55X_Wifi_BLE_SDK/GD32VW55x_RELEASE_V1.0.2/MSDK/wpa_supplicant/src/ap\wpa_auth_glue.c **** 	}
1523:C:/Users/stapi/OneDrive/Desktop/GD32VW553/V1_MQTT_OK/GD32VW55X_Wifi_BLE_SDK/GD32VW55x_RELEASE_V1.0.2/MSDK/wpa_supplicant/src/ap\wpa_auth_glue.c **** 
1524:C:/Users/stapi/OneDrive/Desktop/GD32VW553/V1_MQTT_OK/GD32VW55X_Wifi_BLE_SDK/GD32VW55x_RELEASE_V1.0.2/MSDK/wpa_supplicant/src/ap\wpa_auth_glue.c **** 	if (_conf.extended_key_id &&
 1386              		.loc 1 1524 2 is_stmt 1
 1387              		.loc 1 1524 5 is_stmt 0
 1388 0072 E247     		lw	a5,24(sp)
 1389 0074 C9C7     		beq	a5,zero,.L137
1525:C:/Users/stapi/OneDrive/Desktop/GD32VW553/V1_MQTT_OK/GD32VW55X_Wifi_BLE_SDK/GD32VW55x_RELEASE_V1.0.2/MSDK/wpa_supplicant/src/ap\wpa_auth_glue.c **** 	    (hapd->iface->drv_flags & WPA_DRIVER_FLAGS_EXTENDED_KEY_ID))
 1390              		.loc 1 1525 18 discriminator 1
 1391 0076 1C40     		lw	a5,0(s0)
1524:C:/Users/stapi/OneDrive/Desktop/GD32VW553/V1_MQTT_OK/GD32VW55X_Wifi_BLE_SDK/GD32VW55x_RELEASE_V1.0.2/MSDK/wpa_supplicant/src/ap\wpa_auth_glue.c **** 	    (hapd->iface->drv_flags & WPA_DRIVER_FLAGS_EXTENDED_KEY_ID))
 1392              		.loc 1 1524 28 discriminator 1
 1393 0078 83A7C743 		lw	a5,1084(a5)
 1394 007c 63D10708 		bge	a5,zero,.L137
1526:C:/Users/stapi/OneDrive/Desktop/GD32VW553/V1_MQTT_OK/GD32VW55X_Wifi_BLE_SDK/GD32VW55x_RELEASE_V1.0.2/MSDK/wpa_supplicant/src/ap\wpa_auth_glue.c **** 		wpa_msg(hapd->msg_ctx, MSG_DEBUG, "Extended Key ID supported");
 1395              		.loc 1 1526 3 is_stmt 1 discriminator 1
 1396 0080 03258452 		lw	a0,1320(s0)
 1397 0084 37060000 		lui	a2,%hi(.LC4)
 1398 0088 13060600 		addi	a2,a2,%lo(.LC4)
 1399 008c 8945     		li	a1,2
 1400 008e 97000000 		call	wpa_msg
 1400      E7800000 
 1401              	.LVL119:
 1402              	.L139:
1527:C:/Users/stapi/OneDrive/Desktop/GD32VW553/V1_MQTT_OK/GD32VW55X_Wifi_BLE_SDK/GD32VW55x_RELEASE_V1.0.2/MSDK/wpa_supplicant/src/ap\wpa_auth_glue.c **** 	else
1528:C:/Users/stapi/OneDrive/Desktop/GD32VW553/V1_MQTT_OK/GD32VW55X_Wifi_BLE_SDK/GD32VW55x_RELEASE_V1.0.2/MSDK/wpa_supplicant/src/ap\wpa_auth_glue.c **** 		_conf.extended_key_id = 0;
1529:C:/Users/stapi/OneDrive/Desktop/GD32VW553/V1_MQTT_OK/GD32VW55X_Wifi_BLE_SDK/GD32VW55x_RELEASE_V1.0.2/MSDK/wpa_supplicant/src/ap\wpa_auth_glue.c **** 
1530:C:/Users/stapi/OneDrive/Desktop/GD32VW553/V1_MQTT_OK/GD32VW55X_Wifi_BLE_SDK/GD32VW55x_RELEASE_V1.0.2/MSDK/wpa_supplicant/src/ap\wpa_auth_glue.c **** 	if (!(hapd->iface->drv_flags & WPA_DRIVER_FLAGS_BEACON_PROTECTION))
 1403              		.loc 1 1530 2
 1404              		.loc 1 1530 12 is_stmt 0
 1405 0096 1840     		lw	a4,0(s0)
 1406              		.loc 1 1530 31
 1407 0098 B7060040 		li	a3,1073741824
 1408 009c 8327C743 		lw	a5,1084(a4)
 1409 00a0 F58F     		and	a5,a5,a3
 1410              		.loc 1 1530 5
 1411 00a2 91E3     		bne	a5,zero,.L140
1531:C:/Users/stapi/OneDrive/Desktop/GD32VW553/V1_MQTT_OK/GD32VW55X_Wifi_BLE_SDK/GD32VW55x_RELEASE_V1.0.2/MSDK/wpa_supplicant/src/ap\wpa_auth_glue.c **** 		_conf.beacon_prot = 0;
 1412              		.loc 1 1531 3 is_stmt 1
 1413              		.loc 1 1531 21 is_stmt 0
 1414 00a4 82D6     		sw	zero,108(sp)
 1415              	.L140:
1532:C:/Users/stapi/OneDrive/Desktop/GD32VW553/V1_MQTT_OK/GD32VW55X_Wifi_BLE_SDK/GD32VW55x_RELEASE_V1.0.2/MSDK/wpa_supplicant/src/ap\wpa_auth_glue.c **** 
1533:C:/Users/stapi/OneDrive/Desktop/GD32VW553/V1_MQTT_OK/GD32VW55X_Wifi_BLE_SDK/GD32VW55x_RELEASE_V1.0.2/MSDK/wpa_supplicant/src/ap\wpa_auth_glue.c **** #ifdef CONFIG_OCV
1534:C:/Users/stapi/OneDrive/Desktop/GD32VW553/V1_MQTT_OK/GD32VW55X_Wifi_BLE_SDK/GD32VW55x_RELEASE_V1.0.2/MSDK/wpa_supplicant/src/ap\wpa_auth_glue.c **** 	if (!(hapd->iface->drv_flags2 &
1535:C:/Users/stapi/OneDrive/Desktop/GD32VW553/V1_MQTT_OK/GD32VW55X_Wifi_BLE_SDK/GD32VW55x_RELEASE_V1.0.2/MSDK/wpa_supplicant/src/ap\wpa_auth_glue.c **** 	      (WPA_DRIVER_FLAGS2_AP_SME | WPA_DRIVER_FLAGS2_OCV)))
1536:C:/Users/stapi/OneDrive/Desktop/GD32VW553/V1_MQTT_OK/GD32VW55X_Wifi_BLE_SDK/GD32VW55x_RELEASE_V1.0.2/MSDK/wpa_supplicant/src/ap\wpa_auth_glue.c **** 		_conf.ocv = 0;
1537:C:/Users/stapi/OneDrive/Desktop/GD32VW553/V1_MQTT_OK/GD32VW55X_Wifi_BLE_SDK/GD32VW55x_RELEASE_V1.0.2/MSDK/wpa_supplicant/src/ap\wpa_auth_glue.c **** #endif /* CONFIG_OCV */
1538:C:/Users/stapi/OneDrive/Desktop/GD32VW553/V1_MQTT_OK/GD32VW55X_Wifi_BLE_SDK/GD32VW55x_RELEASE_V1.0.2/MSDK/wpa_supplicant/src/ap\wpa_auth_glue.c **** 
1539:C:/Users/stapi/OneDrive/Desktop/GD32VW553/V1_MQTT_OK/GD32VW55X_Wifi_BLE_SDK/GD32VW55x_RELEASE_V1.0.2/MSDK/wpa_supplicant/src/ap\wpa_auth_glue.c **** 	_conf.secure_ltf =
 1416              		.loc 1 1539 2 is_stmt 1
1540:C:/Users/stapi/OneDrive/Desktop/GD32VW553/V1_MQTT_OK/GD32VW55X_Wifi_BLE_SDK/GD32VW55x_RELEASE_V1.0.2/MSDK/wpa_supplicant/src/ap\wpa_auth_glue.c **** 		!!(hapd->iface->drv_flags2 & WPA_DRIVER_FLAGS2_SEC_LTF);
1541:C:/Users/stapi/OneDrive/Desktop/GD32VW553/V1_MQTT_OK/GD32VW55X_Wifi_BLE_SDK/GD32VW55x_RELEASE_V1.0.2/MSDK/wpa_supplicant/src/ap\wpa_auth_glue.c **** 	_conf.secure_rtt =
 1417              		.loc 1 1541 2
1542:C:/Users/stapi/OneDrive/Desktop/GD32VW553/V1_MQTT_OK/GD32VW55X_Wifi_BLE_SDK/GD32VW55x_RELEASE_V1.0.2/MSDK/wpa_supplicant/src/ap\wpa_auth_glue.c **** 		!!(hapd->iface->drv_flags2 & WPA_DRIVER_FLAGS2_SEC_RTT);
1543:C:/Users/stapi/OneDrive/Desktop/GD32VW553/V1_MQTT_OK/GD32VW55X_Wifi_BLE_SDK/GD32VW55x_RELEASE_V1.0.2/MSDK/wpa_supplicant/src/ap\wpa_auth_glue.c **** 	_conf.prot_range_neg =
 1418              		.loc 1 1543 2
1540:C:/Users/stapi/OneDrive/Desktop/GD32VW553/V1_MQTT_OK/GD32VW55X_Wifi_BLE_SDK/GD32VW55x_RELEASE_V1.0.2/MSDK/wpa_supplicant/src/ap\wpa_auth_glue.c **** 		!!(hapd->iface->drv_flags2 & WPA_DRIVER_FLAGS2_SEC_LTF);
 1419              		.loc 1 1540 17 is_stmt 0
 1420 00a6 03270744 		lw	a4,1088(a4)
1544:C:/Users/stapi/OneDrive/Desktop/GD32VW553/V1_MQTT_OK/GD32VW55X_Wifi_BLE_SDK/GD32VW55x_RELEASE_V1.0.2/MSDK/wpa_supplicant/src/ap\wpa_auth_glue.c **** 		!!(hapd->iface->drv_flags2 & WPA_DRIVER_FLAGS2_PROT_RANGE_NEG);
1545:C:/Users/stapi/OneDrive/Desktop/GD32VW553/V1_MQTT_OK/GD32VW55X_Wifi_BLE_SDK/GD32VW55x_RELEASE_V1.0.2/MSDK/wpa_supplicant/src/ap\wpa_auth_glue.c **** 
1546:C:/Users/stapi/OneDrive/Desktop/GD32VW553/V1_MQTT_OK/GD32VW55X_Wifi_BLE_SDK/GD32VW55x_RELEASE_V1.0.2/MSDK/wpa_supplicant/src/ap\wpa_auth_glue.c **** 	hapd->wpa_auth = wpa_init(hapd->own_addr, &_conf, &cb, hapd);
 1421              		.loc 1 1546 19
 1422 00aa 37060000 		lui	a2,%hi(.LANCHOR1)
 1423 00ae 13060600 		addi	a2,a2,%lo(.LANCHOR1)
1542:C:/Users/stapi/OneDrive/Desktop/GD32VW553/V1_MQTT_OK/GD32VW55X_Wifi_BLE_SDK/GD32VW55x_RELEASE_V1.0.2/MSDK/wpa_supplicant/src/ap\wpa_auth_glue.c **** 		!!(hapd->iface->drv_flags2 & WPA_DRIVER_FLAGS2_SEC_RTT);
 1424              		.loc 1 1542 3
 1425 00b2 93573748 		bexti	a5,a4,3
1539:C:/Users/stapi/OneDrive/Desktop/GD32VW553/V1_MQTT_OK/GD32VW55X_Wifi_BLE_SDK/GD32VW55x_RELEASE_V1.0.2/MSDK/wpa_supplicant/src/ap\wpa_auth_glue.c **** 		!!(hapd->iface->drv_flags2 & WPA_DRIVER_FLAGS2_SEC_LTF);
 1426              		.loc 1 1539 19
 1427 00b6 8607     		slli	a5,a5,1
1540:C:/Users/stapi/OneDrive/Desktop/GD32VW553/V1_MQTT_OK/GD32VW55X_Wifi_BLE_SDK/GD32VW55x_RELEASE_V1.0.2/MSDK/wpa_supplicant/src/ap\wpa_auth_glue.c **** 	_conf.secure_rtt =
 1428              		.loc 1 1540 3
 1429 00b8 93562748 		bexti	a3,a4,2
1544:C:/Users/stapi/OneDrive/Desktop/GD32VW553/V1_MQTT_OK/GD32VW55X_Wifi_BLE_SDK/GD32VW55x_RELEASE_V1.0.2/MSDK/wpa_supplicant/src/ap\wpa_auth_glue.c **** 		!!(hapd->iface->drv_flags2 & WPA_DRIVER_FLAGS2_PROT_RANGE_NEG);
 1430              		.loc 1 1544 3
 1431 00bc 13574748 		bexti	a4,a4,4
1539:C:/Users/stapi/OneDrive/Desktop/GD32VW553/V1_MQTT_OK/GD32VW55X_Wifi_BLE_SDK/GD32VW55x_RELEASE_V1.0.2/MSDK/wpa_supplicant/src/ap\wpa_auth_glue.c **** 		!!(hapd->iface->drv_flags2 & WPA_DRIVER_FLAGS2_SEC_LTF);
 1432              		.loc 1 1539 19
 1433 00c0 D58F     		or	a5,a5,a3
 1434 00c2 0A07     		slli	a4,a4,2
 1435 00c4 D98F     		or	a5,a5,a4
 1436 00c6 03475109 		lbu	a4,149(sp)
 1437 00ca 9D8B     		andi	a5,a5,7
 1438              		.loc 1 1546 19
 1439 00cc A286     		mv	a3,s0
1539:C:/Users/stapi/OneDrive/Desktop/GD32VW553/V1_MQTT_OK/GD32VW55X_Wifi_BLE_SDK/GD32VW55x_RELEASE_V1.0.2/MSDK/wpa_supplicant/src/ap\wpa_auth_glue.c **** 		!!(hapd->iface->drv_flags2 & WPA_DRIVER_FLAGS2_SEC_LTF);
 1440              		.loc 1 1539 19
 1441 00ce 619B     		andi	a4,a4,-8
 1442 00d0 D98F     		or	a5,a5,a4
 1443              		.loc 1 1546 19
 1444 00d2 0C08     		addi	a1,sp,16
 1445 00d4 13051401 		addi	a0,s0,17
1539:C:/Users/stapi/OneDrive/Desktop/GD32VW553/V1_MQTT_OK/GD32VW55X_Wifi_BLE_SDK/GD32VW55x_RELEASE_V1.0.2/MSDK/wpa_supplicant/src/ap\wpa_auth_glue.c **** 		!!(hapd->iface->drv_flags2 & WPA_DRIVER_FLAGS2_SEC_LTF);
 1446              		.loc 1 1539 19
 1447 00d8 A30AF108 		sb	a5,149(sp)
 1448              		.loc 1 1546 2 is_stmt 1
 1449              		.loc 1 1546 19 is_stmt 0
 1450 00dc 97000000 		call	wpa_init
 1450      E7800000 
 1451              	.LVL120:
 1452              		.loc 1 1546 17
 1453 00e4 2326A454 		sw	a0,1356(s0)
1547:C:/Users/stapi/OneDrive/Desktop/GD32VW553/V1_MQTT_OK/GD32VW55X_Wifi_BLE_SDK/GD32VW55x_RELEASE_V1.0.2/MSDK/wpa_supplicant/src/ap\wpa_auth_glue.c **** 	if (hapd->wpa_auth == NULL) {
 1454              		.loc 1 1547 2 is_stmt 1
 1455              		.loc 1 1547 5 is_stmt 0
 1456 00e8 09ED     		bne	a0,zero,.L141
1548:C:/Users/stapi/OneDrive/Desktop/GD32VW553/V1_MQTT_OK/GD32VW55X_Wifi_BLE_SDK/GD32VW55x_RELEASE_V1.0.2/MSDK/wpa_supplicant/src/ap\wpa_auth_glue.c **** 		wpa_printf(MSG_ERROR, "WPA initialization failed.");
 1457              		.loc 1 1548 3 is_stmt 1
 1458 00ea B7050000 		lui	a1,%hi(.LC5)
 1459 00ee 93850500 		addi	a1,a1,%lo(.LC5)
 1460              	.L157:
1549:C:/Users/stapi/OneDrive/Desktop/GD32VW553/V1_MQTT_OK/GD32VW55X_Wifi_BLE_SDK/GD32VW55x_RELEASE_V1.0.2/MSDK/wpa_supplicant/src/ap\wpa_auth_glue.c **** 		return -1;
1550:C:/Users/stapi/OneDrive/Desktop/GD32VW553/V1_MQTT_OK/GD32VW55X_Wifi_BLE_SDK/GD32VW55x_RELEASE_V1.0.2/MSDK/wpa_supplicant/src/ap\wpa_auth_glue.c **** 	}
1551:C:/Users/stapi/OneDrive/Desktop/GD32VW553/V1_MQTT_OK/GD32VW55X_Wifi_BLE_SDK/GD32VW55x_RELEASE_V1.0.2/MSDK/wpa_supplicant/src/ap\wpa_auth_glue.c **** 
1552:C:/Users/stapi/OneDrive/Desktop/GD32VW553/V1_MQTT_OK/GD32VW55X_Wifi_BLE_SDK/GD32VW55x_RELEASE_V1.0.2/MSDK/wpa_supplicant/src/ap\wpa_auth_glue.c **** 	if (hostapd_set_privacy(hapd, 1)) {
1553:C:/Users/stapi/OneDrive/Desktop/GD32VW553/V1_MQTT_OK/GD32VW55X_Wifi_BLE_SDK/GD32VW55x_RELEASE_V1.0.2/MSDK/wpa_supplicant/src/ap\wpa_auth_glue.c **** 		wpa_printf(MSG_ERROR, "Could not set PrivacyInvoked "
1554:C:/Users/stapi/OneDrive/Desktop/GD32VW553/V1_MQTT_OK/GD32VW55X_Wifi_BLE_SDK/GD32VW55x_RELEASE_V1.0.2/MSDK/wpa_supplicant/src/ap\wpa_auth_glue.c **** 			   "for interface %s", hapd->conf->iface);
1555:C:/Users/stapi/OneDrive/Desktop/GD32VW553/V1_MQTT_OK/GD32VW55X_Wifi_BLE_SDK/GD32VW55x_RELEASE_V1.0.2/MSDK/wpa_supplicant/src/ap\wpa_auth_glue.c **** 		return -1;
1556:C:/Users/stapi/OneDrive/Desktop/GD32VW553/V1_MQTT_OK/GD32VW55X_Wifi_BLE_SDK/GD32VW55x_RELEASE_V1.0.2/MSDK/wpa_supplicant/src/ap\wpa_auth_glue.c **** 	}
1557:C:/Users/stapi/OneDrive/Desktop/GD32VW553/V1_MQTT_OK/GD32VW55X_Wifi_BLE_SDK/GD32VW55x_RELEASE_V1.0.2/MSDK/wpa_supplicant/src/ap\wpa_auth_glue.c **** 
1558:C:/Users/stapi/OneDrive/Desktop/GD32VW553/V1_MQTT_OK/GD32VW55X_Wifi_BLE_SDK/GD32VW55x_RELEASE_V1.0.2/MSDK/wpa_supplicant/src/ap\wpa_auth_glue.c **** 	wpa_ie = wpa_auth_get_wpa_ie(hapd->wpa_auth, &wpa_ie_len);
1559:C:/Users/stapi/OneDrive/Desktop/GD32VW553/V1_MQTT_OK/GD32VW55X_Wifi_BLE_SDK/GD32VW55x_RELEASE_V1.0.2/MSDK/wpa_supplicant/src/ap\wpa_auth_glue.c **** 	if (hostapd_set_generic_elem(hapd, wpa_ie, wpa_ie_len)) {
1560:C:/Users/stapi/OneDrive/Desktop/GD32VW553/V1_MQTT_OK/GD32VW55X_Wifi_BLE_SDK/GD32VW55x_RELEASE_V1.0.2/MSDK/wpa_supplicant/src/ap\wpa_auth_glue.c **** 		wpa_printf(MSG_ERROR, "Failed to configure WPA IE for "
 1461              		.loc 1 1560 3 is_stmt 0
 1462 00f2 1545     		li	a0,5
 1463 00f4 97000000 		call	wpa_printf
 1463      E7800000 
 1464              	.LVL121:
1561:C:/Users/stapi/OneDrive/Desktop/GD32VW553/V1_MQTT_OK/GD32VW55X_Wifi_BLE_SDK/GD32VW55x_RELEASE_V1.0.2/MSDK/wpa_supplicant/src/ap\wpa_auth_glue.c **** 			   "the kernel driver.");
1562:C:/Users/stapi/OneDrive/Desktop/GD32VW553/V1_MQTT_OK/GD32VW55X_Wifi_BLE_SDK/GD32VW55x_RELEASE_V1.0.2/MSDK/wpa_supplicant/src/ap\wpa_auth_glue.c **** 		return -1;
 1465              		.loc 1 1562 3 is_stmt 1
 1466 00fc 25A0     		j	.L156
 1467              	.L137:
1528:C:/Users/stapi/OneDrive/Desktop/GD32VW553/V1_MQTT_OK/GD32VW55X_Wifi_BLE_SDK/GD32VW55x_RELEASE_V1.0.2/MSDK/wpa_supplicant/src/ap\wpa_auth_glue.c **** 
 1468              		.loc 1 1528 3
1528:C:/Users/stapi/OneDrive/Desktop/GD32VW553/V1_MQTT_OK/GD32VW55X_Wifi_BLE_SDK/GD32VW55x_RELEASE_V1.0.2/MSDK/wpa_supplicant/src/ap\wpa_auth_glue.c **** 
 1469              		.loc 1 1528 25 is_stmt 0
 1470 00fe 02CC     		sw	zero,24(sp)
 1471 0100 59BF     		j	.L139
 1472              	.L141:
1552:C:/Users/stapi/OneDrive/Desktop/GD32VW553/V1_MQTT_OK/GD32VW55X_Wifi_BLE_SDK/GD32VW55x_RELEASE_V1.0.2/MSDK/wpa_supplicant/src/ap\wpa_auth_glue.c **** 		wpa_printf(MSG_ERROR, "Could not set PrivacyInvoked "
 1473              		.loc 1 1552 2 is_stmt 1
1552:C:/Users/stapi/OneDrive/Desktop/GD32VW553/V1_MQTT_OK/GD32VW55X_Wifi_BLE_SDK/GD32VW55x_RELEASE_V1.0.2/MSDK/wpa_supplicant/src/ap\wpa_auth_glue.c **** 		wpa_printf(MSG_ERROR, "Could not set PrivacyInvoked "
 1474              		.loc 1 1552 6 is_stmt 0
 1475 0102 8545     		li	a1,1
 1476 0104 2285     		mv	a0,s0
 1477 0106 97000000 		call	hostapd_set_privacy
 1477      E7800000 
 1478              	.LVL122:
1552:C:/Users/stapi/OneDrive/Desktop/GD32VW553/V1_MQTT_OK/GD32VW55X_Wifi_BLE_SDK/GD32VW55x_RELEASE_V1.0.2/MSDK/wpa_supplicant/src/ap\wpa_auth_glue.c **** 		wpa_printf(MSG_ERROR, "Could not set PrivacyInvoked "
 1479              		.loc 1 1552 5
 1480 010e 0DC1     		beq	a0,zero,.L143
1553:C:/Users/stapi/OneDrive/Desktop/GD32VW553/V1_MQTT_OK/GD32VW55X_Wifi_BLE_SDK/GD32VW55x_RELEASE_V1.0.2/MSDK/wpa_supplicant/src/ap\wpa_auth_glue.c **** 			   "for interface %s", hapd->conf->iface);
 1481              		.loc 1 1553 3 is_stmt 1
 1482 0110 1044     		lw	a2,8(s0)
 1483 0112 B7050000 		lui	a1,%hi(.LC6)
 1484 0116 93850500 		addi	a1,a1,%lo(.LC6)
 1485 011a 1545     		li	a0,5
 1486 011c 97000000 		call	wpa_printf
 1486      E7800000 
 1487              	.LVL123:
 1488              	.L156:
1555:C:/Users/stapi/OneDrive/Desktop/GD32VW553/V1_MQTT_OK/GD32VW55X_Wifi_BLE_SDK/GD32VW55x_RELEASE_V1.0.2/MSDK/wpa_supplicant/src/ap\wpa_auth_glue.c **** 	}
 1489              		.loc 1 1555 3
1555:C:/Users/stapi/OneDrive/Desktop/GD32VW553/V1_MQTT_OK/GD32VW55X_Wifi_BLE_SDK/GD32VW55x_RELEASE_V1.0.2/MSDK/wpa_supplicant/src/ap\wpa_auth_glue.c **** 	}
 1490              		.loc 1 1555 10 is_stmt 0
 1491 0124 7D55     		li	a0,-1
 1492              	.LVL124:
 1493              	.L130:
1563:C:/Users/stapi/OneDrive/Desktop/GD32VW553/V1_MQTT_OK/GD32VW55X_Wifi_BLE_SDK/GD32VW55x_RELEASE_V1.0.2/MSDK/wpa_supplicant/src/ap\wpa_auth_glue.c **** 	}
1564:C:/Users/stapi/OneDrive/Desktop/GD32VW553/V1_MQTT_OK/GD32VW55X_Wifi_BLE_SDK/GD32VW55x_RELEASE_V1.0.2/MSDK/wpa_supplicant/src/ap\wpa_auth_glue.c **** 
1565:C:/Users/stapi/OneDrive/Desktop/GD32VW553/V1_MQTT_OK/GD32VW55X_Wifi_BLE_SDK/GD32VW55x_RELEASE_V1.0.2/MSDK/wpa_supplicant/src/ap\wpa_auth_glue.c **** 	if (rsn_preauth_iface_init(hapd)) {
1566:C:/Users/stapi/OneDrive/Desktop/GD32VW553/V1_MQTT_OK/GD32VW55X_Wifi_BLE_SDK/GD32VW55x_RELEASE_V1.0.2/MSDK/wpa_supplicant/src/ap\wpa_auth_glue.c **** 		wpa_printf(MSG_ERROR, "Initialization of RSN "
1567:C:/Users/stapi/OneDrive/Desktop/GD32VW553/V1_MQTT_OK/GD32VW55X_Wifi_BLE_SDK/GD32VW55x_RELEASE_V1.0.2/MSDK/wpa_supplicant/src/ap\wpa_auth_glue.c **** 			   "pre-authentication failed.");
1568:C:/Users/stapi/OneDrive/Desktop/GD32VW553/V1_MQTT_OK/GD32VW55X_Wifi_BLE_SDK/GD32VW55x_RELEASE_V1.0.2/MSDK/wpa_supplicant/src/ap\wpa_auth_glue.c **** 		return -1;
1569:C:/Users/stapi/OneDrive/Desktop/GD32VW553/V1_MQTT_OK/GD32VW55X_Wifi_BLE_SDK/GD32VW55x_RELEASE_V1.0.2/MSDK/wpa_supplicant/src/ap\wpa_auth_glue.c **** 	}
1570:C:/Users/stapi/OneDrive/Desktop/GD32VW553/V1_MQTT_OK/GD32VW55X_Wifi_BLE_SDK/GD32VW55x_RELEASE_V1.0.2/MSDK/wpa_supplicant/src/ap\wpa_auth_glue.c **** 
1571:C:/Users/stapi/OneDrive/Desktop/GD32VW553/V1_MQTT_OK/GD32VW55X_Wifi_BLE_SDK/GD32VW55x_RELEASE_V1.0.2/MSDK/wpa_supplicant/src/ap\wpa_auth_glue.c **** 	if (!hapd->ptksa)
1572:C:/Users/stapi/OneDrive/Desktop/GD32VW553/V1_MQTT_OK/GD32VW55X_Wifi_BLE_SDK/GD32VW55x_RELEASE_V1.0.2/MSDK/wpa_supplicant/src/ap\wpa_auth_glue.c **** 		hapd->ptksa = ptksa_cache_init();
1573:C:/Users/stapi/OneDrive/Desktop/GD32VW553/V1_MQTT_OK/GD32VW55X_Wifi_BLE_SDK/GD32VW55x_RELEASE_V1.0.2/MSDK/wpa_supplicant/src/ap\wpa_auth_glue.c **** 	if (!hapd->ptksa) {
1574:C:/Users/stapi/OneDrive/Desktop/GD32VW553/V1_MQTT_OK/GD32VW55X_Wifi_BLE_SDK/GD32VW55x_RELEASE_V1.0.2/MSDK/wpa_supplicant/src/ap\wpa_auth_glue.c **** 		wpa_printf(MSG_ERROR, "Failed to allocate PTKSA cache");
1575:C:/Users/stapi/OneDrive/Desktop/GD32VW553/V1_MQTT_OK/GD32VW55X_Wifi_BLE_SDK/GD32VW55x_RELEASE_V1.0.2/MSDK/wpa_supplicant/src/ap\wpa_auth_glue.c **** 		return -1;
1576:C:/Users/stapi/OneDrive/Desktop/GD32VW553/V1_MQTT_OK/GD32VW55X_Wifi_BLE_SDK/GD32VW55x_RELEASE_V1.0.2/MSDK/wpa_supplicant/src/ap\wpa_auth_glue.c **** 	}
1577:C:/Users/stapi/OneDrive/Desktop/GD32VW553/V1_MQTT_OK/GD32VW55X_Wifi_BLE_SDK/GD32VW55x_RELEASE_V1.0.2/MSDK/wpa_supplicant/src/ap\wpa_auth_glue.c **** 
1578:C:/Users/stapi/OneDrive/Desktop/GD32VW553/V1_MQTT_OK/GD32VW55X_Wifi_BLE_SDK/GD32VW55x_RELEASE_V1.0.2/MSDK/wpa_supplicant/src/ap\wpa_auth_glue.c **** #ifdef CONFIG_IEEE80211R_AP
1579:C:/Users/stapi/OneDrive/Desktop/GD32VW553/V1_MQTT_OK/GD32VW55X_Wifi_BLE_SDK/GD32VW55x_RELEASE_V1.0.2/MSDK/wpa_supplicant/src/ap\wpa_auth_glue.c **** 	if (!hostapd_drv_none(hapd) &&
1580:C:/Users/stapi/OneDrive/Desktop/GD32VW553/V1_MQTT_OK/GD32VW55X_Wifi_BLE_SDK/GD32VW55x_RELEASE_V1.0.2/MSDK/wpa_supplicant/src/ap\wpa_auth_glue.c **** 	    wpa_key_mgmt_ft(hapd->conf->wpa_key_mgmt)) {
1581:C:/Users/stapi/OneDrive/Desktop/GD32VW553/V1_MQTT_OK/GD32VW55X_Wifi_BLE_SDK/GD32VW55x_RELEASE_V1.0.2/MSDK/wpa_supplicant/src/ap\wpa_auth_glue.c **** 		const char *ft_iface;
1582:C:/Users/stapi/OneDrive/Desktop/GD32VW553/V1_MQTT_OK/GD32VW55X_Wifi_BLE_SDK/GD32VW55x_RELEASE_V1.0.2/MSDK/wpa_supplicant/src/ap\wpa_auth_glue.c **** 
1583:C:/Users/stapi/OneDrive/Desktop/GD32VW553/V1_MQTT_OK/GD32VW55X_Wifi_BLE_SDK/GD32VW55x_RELEASE_V1.0.2/MSDK/wpa_supplicant/src/ap\wpa_auth_glue.c **** 		ft_iface = hapd->conf->bridge[0] ? hapd->conf->bridge :
1584:C:/Users/stapi/OneDrive/Desktop/GD32VW553/V1_MQTT_OK/GD32VW55X_Wifi_BLE_SDK/GD32VW55x_RELEASE_V1.0.2/MSDK/wpa_supplicant/src/ap\wpa_auth_glue.c **** 			   hapd->conf->iface;
1585:C:/Users/stapi/OneDrive/Desktop/GD32VW553/V1_MQTT_OK/GD32VW55X_Wifi_BLE_SDK/GD32VW55x_RELEASE_V1.0.2/MSDK/wpa_supplicant/src/ap\wpa_auth_glue.c **** 		hapd->l2 = l2_packet_init(ft_iface, NULL, ETH_P_RRB,
1586:C:/Users/stapi/OneDrive/Desktop/GD32VW553/V1_MQTT_OK/GD32VW55X_Wifi_BLE_SDK/GD32VW55x_RELEASE_V1.0.2/MSDK/wpa_supplicant/src/ap\wpa_auth_glue.c **** 					  hostapd_rrb_receive, hapd, 1);
1587:C:/Users/stapi/OneDrive/Desktop/GD32VW553/V1_MQTT_OK/GD32VW55X_Wifi_BLE_SDK/GD32VW55x_RELEASE_V1.0.2/MSDK/wpa_supplicant/src/ap\wpa_auth_glue.c **** 		if (!hapd->l2) {
1588:C:/Users/stapi/OneDrive/Desktop/GD32VW553/V1_MQTT_OK/GD32VW55X_Wifi_BLE_SDK/GD32VW55x_RELEASE_V1.0.2/MSDK/wpa_supplicant/src/ap\wpa_auth_glue.c **** 			wpa_printf(MSG_ERROR, "Failed to open l2_packet "
1589:C:/Users/stapi/OneDrive/Desktop/GD32VW553/V1_MQTT_OK/GD32VW55X_Wifi_BLE_SDK/GD32VW55x_RELEASE_V1.0.2/MSDK/wpa_supplicant/src/ap\wpa_auth_glue.c **** 				   "interface");
1590:C:/Users/stapi/OneDrive/Desktop/GD32VW553/V1_MQTT_OK/GD32VW55X_Wifi_BLE_SDK/GD32VW55x_RELEASE_V1.0.2/MSDK/wpa_supplicant/src/ap\wpa_auth_glue.c **** 			return -1;
1591:C:/Users/stapi/OneDrive/Desktop/GD32VW553/V1_MQTT_OK/GD32VW55X_Wifi_BLE_SDK/GD32VW55x_RELEASE_V1.0.2/MSDK/wpa_supplicant/src/ap\wpa_auth_glue.c **** 		}
1592:C:/Users/stapi/OneDrive/Desktop/GD32VW553/V1_MQTT_OK/GD32VW55X_Wifi_BLE_SDK/GD32VW55x_RELEASE_V1.0.2/MSDK/wpa_supplicant/src/ap\wpa_auth_glue.c **** 
1593:C:/Users/stapi/OneDrive/Desktop/GD32VW553/V1_MQTT_OK/GD32VW55X_Wifi_BLE_SDK/GD32VW55x_RELEASE_V1.0.2/MSDK/wpa_supplicant/src/ap\wpa_auth_glue.c **** 		if (hostapd_wpa_register_ft_oui(hapd, ft_iface)) {
1594:C:/Users/stapi/OneDrive/Desktop/GD32VW553/V1_MQTT_OK/GD32VW55X_Wifi_BLE_SDK/GD32VW55x_RELEASE_V1.0.2/MSDK/wpa_supplicant/src/ap\wpa_auth_glue.c **** 			wpa_printf(MSG_ERROR,
1595:C:/Users/stapi/OneDrive/Desktop/GD32VW553/V1_MQTT_OK/GD32VW55X_Wifi_BLE_SDK/GD32VW55x_RELEASE_V1.0.2/MSDK/wpa_supplicant/src/ap\wpa_auth_glue.c **** 				   "Failed to open ETH_P_OUI interface");
1596:C:/Users/stapi/OneDrive/Desktop/GD32VW553/V1_MQTT_OK/GD32VW55X_Wifi_BLE_SDK/GD32VW55x_RELEASE_V1.0.2/MSDK/wpa_supplicant/src/ap\wpa_auth_glue.c **** 			return -1;
1597:C:/Users/stapi/OneDrive/Desktop/GD32VW553/V1_MQTT_OK/GD32VW55X_Wifi_BLE_SDK/GD32VW55x_RELEASE_V1.0.2/MSDK/wpa_supplicant/src/ap\wpa_auth_glue.c **** 		}
1598:C:/Users/stapi/OneDrive/Desktop/GD32VW553/V1_MQTT_OK/GD32VW55X_Wifi_BLE_SDK/GD32VW55x_RELEASE_V1.0.2/MSDK/wpa_supplicant/src/ap\wpa_auth_glue.c **** 	}
1599:C:/Users/stapi/OneDrive/Desktop/GD32VW553/V1_MQTT_OK/GD32VW55X_Wifi_BLE_SDK/GD32VW55x_RELEASE_V1.0.2/MSDK/wpa_supplicant/src/ap\wpa_auth_glue.c **** #endif /* CONFIG_IEEE80211R_AP */
1600:C:/Users/stapi/OneDrive/Desktop/GD32VW553/V1_MQTT_OK/GD32VW55X_Wifi_BLE_SDK/GD32VW55x_RELEASE_V1.0.2/MSDK/wpa_supplicant/src/ap\wpa_auth_glue.c **** 
1601:C:/Users/stapi/OneDrive/Desktop/GD32VW553/V1_MQTT_OK/GD32VW55X_Wifi_BLE_SDK/GD32VW55x_RELEASE_V1.0.2/MSDK/wpa_supplicant/src/ap\wpa_auth_glue.c **** 	return 0;
1602:C:/Users/stapi/OneDrive/Desktop/GD32VW553/V1_MQTT_OK/GD32VW55X_Wifi_BLE_SDK/GD32VW55x_RELEASE_V1.0.2/MSDK/wpa_supplicant/src/ap\wpa_auth_glue.c **** 
1603:C:/Users/stapi/OneDrive/Desktop/GD32VW553/V1_MQTT_OK/GD32VW55X_Wifi_BLE_SDK/GD32VW55x_RELEASE_V1.0.2/MSDK/wpa_supplicant/src/ap\wpa_auth_glue.c **** }
 1494              		.loc 1 1603 1
 1495 0126 0D61     		addi	sp,sp,160
 1496              		.cfi_remember_state
 1497              		.cfi_def_cfa_offset 0
 1498 0128 17030000 		tail	__riscv_restore_1
 1498      67000300 
 1499              		.cfi_restore 8
 1500              		.cfi_restore 1
 1501              		.cfi_def_cfa_offset -16
 1502              	.LVL125:
 1503              	.L143:
 1504              		.cfi_restore_state
1558:C:/Users/stapi/OneDrive/Desktop/GD32VW553/V1_MQTT_OK/GD32VW55X_Wifi_BLE_SDK/GD32VW55x_RELEASE_V1.0.2/MSDK/wpa_supplicant/src/ap\wpa_auth_glue.c **** 	if (hostapd_set_generic_elem(hapd, wpa_ie, wpa_ie_len)) {
 1505              		.loc 1 1558 2 is_stmt 1
1558:C:/Users/stapi/OneDrive/Desktop/GD32VW553/V1_MQTT_OK/GD32VW55X_Wifi_BLE_SDK/GD32VW55x_RELEASE_V1.0.2/MSDK/wpa_supplicant/src/ap\wpa_auth_glue.c **** 	if (hostapd_set_generic_elem(hapd, wpa_ie, wpa_ie_len)) {
 1506              		.loc 1 1558 11 is_stmt 0
 1507 0130 0325C454 		lw	a0,1356(s0)
 1508 0134 6C00     		addi	a1,sp,12
 1509 0136 97000000 		call	wpa_auth_get_wpa_ie
 1509      E7800000 
 1510              	.LVL126:
1559:C:/Users/stapi/OneDrive/Desktop/GD32VW553/V1_MQTT_OK/GD32VW55X_Wifi_BLE_SDK/GD32VW55x_RELEASE_V1.0.2/MSDK/wpa_supplicant/src/ap\wpa_auth_glue.c **** 		wpa_printf(MSG_ERROR, "Failed to configure WPA IE for "
 1511              		.loc 1 1559 6
 1512 013e 3246     		lw	a2,12(sp)
1558:C:/Users/stapi/OneDrive/Desktop/GD32VW553/V1_MQTT_OK/GD32VW55X_Wifi_BLE_SDK/GD32VW55x_RELEASE_V1.0.2/MSDK/wpa_supplicant/src/ap\wpa_auth_glue.c **** 	if (hostapd_set_generic_elem(hapd, wpa_ie, wpa_ie_len)) {
 1513              		.loc 1 1558 11
 1514 0140 AA85     		mv	a1,a0
 1515              	.LVL127:
1559:C:/Users/stapi/OneDrive/Desktop/GD32VW553/V1_MQTT_OK/GD32VW55X_Wifi_BLE_SDK/GD32VW55x_RELEASE_V1.0.2/MSDK/wpa_supplicant/src/ap\wpa_auth_glue.c **** 		wpa_printf(MSG_ERROR, "Failed to configure WPA IE for "
 1516              		.loc 1 1559 2 is_stmt 1
1559:C:/Users/stapi/OneDrive/Desktop/GD32VW553/V1_MQTT_OK/GD32VW55X_Wifi_BLE_SDK/GD32VW55x_RELEASE_V1.0.2/MSDK/wpa_supplicant/src/ap\wpa_auth_glue.c **** 		wpa_printf(MSG_ERROR, "Failed to configure WPA IE for "
 1517              		.loc 1 1559 6 is_stmt 0
 1518 0142 2285     		mv	a0,s0
 1519              	.LVL128:
 1520 0144 97000000 		call	hostapd_set_generic_elem
 1520      E7800000 
 1521              	.LVL129:
1559:C:/Users/stapi/OneDrive/Desktop/GD32VW553/V1_MQTT_OK/GD32VW55X_Wifi_BLE_SDK/GD32VW55x_RELEASE_V1.0.2/MSDK/wpa_supplicant/src/ap\wpa_auth_glue.c **** 		wpa_printf(MSG_ERROR, "Failed to configure WPA IE for "
 1522              		.loc 1 1559 5
 1523 014c 11C5     		beq	a0,zero,.L144
1560:C:/Users/stapi/OneDrive/Desktop/GD32VW553/V1_MQTT_OK/GD32VW55X_Wifi_BLE_SDK/GD32VW55x_RELEASE_V1.0.2/MSDK/wpa_supplicant/src/ap\wpa_auth_glue.c **** 			   "the kernel driver.");
 1524              		.loc 1 1560 3 is_stmt 1
 1525 014e B7050000 		lui	a1,%hi(.LC7)
 1526 0152 93850500 		addi	a1,a1,%lo(.LC7)
 1527 0156 71BF     		j	.L157
 1528              	.L144:
1565:C:/Users/stapi/OneDrive/Desktop/GD32VW553/V1_MQTT_OK/GD32VW55X_Wifi_BLE_SDK/GD32VW55x_RELEASE_V1.0.2/MSDK/wpa_supplicant/src/ap\wpa_auth_glue.c **** 		wpa_printf(MSG_ERROR, "Initialization of RSN "
 1529              		.loc 1 1565 2
 1530              	.LVL130:
 1531              		.file 4 "C:/Users/stapi/OneDrive/Desktop/GD32VW553/V1_MQTT_OK/GD32VW55X_Wifi_BLE_SDK/GD32VW55x_REL
   1:C:/Users/stapi/OneDrive/Desktop/GD32VW553/V1_MQTT_OK/GD32VW55X_Wifi_BLE_SDK/GD32VW55x_RELEASE_V1.0.2/MSDK/wpa_supplicant/src/ap\preauth_auth.h **** /*
   2:C:/Users/stapi/OneDrive/Desktop/GD32VW553/V1_MQTT_OK/GD32VW55X_Wifi_BLE_SDK/GD32VW55x_RELEASE_V1.0.2/MSDK/wpa_supplicant/src/ap\preauth_auth.h ****  * hostapd - Authenticator for IEEE 802.11i RSN pre-authentication
   3:C:/Users/stapi/OneDrive/Desktop/GD32VW553/V1_MQTT_OK/GD32VW55X_Wifi_BLE_SDK/GD32VW55x_RELEASE_V1.0.2/MSDK/wpa_supplicant/src/ap\preauth_auth.h ****  * Copyright (c) 2004-2005, Jouni Malinen <j@w1.fi>
   4:C:/Users/stapi/OneDrive/Desktop/GD32VW553/V1_MQTT_OK/GD32VW55X_Wifi_BLE_SDK/GD32VW55x_RELEASE_V1.0.2/MSDK/wpa_supplicant/src/ap\preauth_auth.h ****  *
   5:C:/Users/stapi/OneDrive/Desktop/GD32VW553/V1_MQTT_OK/GD32VW55X_Wifi_BLE_SDK/GD32VW55x_RELEASE_V1.0.2/MSDK/wpa_supplicant/src/ap\preauth_auth.h ****  * This software may be distributed under the terms of the BSD license.
   6:C:/Users/stapi/OneDrive/Desktop/GD32VW553/V1_MQTT_OK/GD32VW55X_Wifi_BLE_SDK/GD32VW55x_RELEASE_V1.0.2/MSDK/wpa_supplicant/src/ap\preauth_auth.h ****  * See README for more details.
   7:C:/Users/stapi/OneDrive/Desktop/GD32VW553/V1_MQTT_OK/GD32VW55X_Wifi_BLE_SDK/GD32VW55x_RELEASE_V1.0.2/MSDK/wpa_supplicant/src/ap\preauth_auth.h ****  */
   8:C:/Users/stapi/OneDrive/Desktop/GD32VW553/V1_MQTT_OK/GD32VW55X_Wifi_BLE_SDK/GD32VW55x_RELEASE_V1.0.2/MSDK/wpa_supplicant/src/ap\preauth_auth.h **** 
   9:C:/Users/stapi/OneDrive/Desktop/GD32VW553/V1_MQTT_OK/GD32VW55X_Wifi_BLE_SDK/GD32VW55x_RELEASE_V1.0.2/MSDK/wpa_supplicant/src/ap\preauth_auth.h **** #ifndef PREAUTH_H
  10:C:/Users/stapi/OneDrive/Desktop/GD32VW553/V1_MQTT_OK/GD32VW55X_Wifi_BLE_SDK/GD32VW55x_RELEASE_V1.0.2/MSDK/wpa_supplicant/src/ap\preauth_auth.h **** #define PREAUTH_H
  11:C:/Users/stapi/OneDrive/Desktop/GD32VW553/V1_MQTT_OK/GD32VW55X_Wifi_BLE_SDK/GD32VW55x_RELEASE_V1.0.2/MSDK/wpa_supplicant/src/ap\preauth_auth.h **** 
  12:C:/Users/stapi/OneDrive/Desktop/GD32VW553/V1_MQTT_OK/GD32VW55X_Wifi_BLE_SDK/GD32VW55x_RELEASE_V1.0.2/MSDK/wpa_supplicant/src/ap\preauth_auth.h **** #ifdef CONFIG_RSN_PREAUTH
  13:C:/Users/stapi/OneDrive/Desktop/GD32VW553/V1_MQTT_OK/GD32VW55X_Wifi_BLE_SDK/GD32VW55x_RELEASE_V1.0.2/MSDK/wpa_supplicant/src/ap\preauth_auth.h **** 
  14:C:/Users/stapi/OneDrive/Desktop/GD32VW553/V1_MQTT_OK/GD32VW55X_Wifi_BLE_SDK/GD32VW55x_RELEASE_V1.0.2/MSDK/wpa_supplicant/src/ap\preauth_auth.h **** int rsn_preauth_iface_init(struct hostapd_data *hapd);
  15:C:/Users/stapi/OneDrive/Desktop/GD32VW553/V1_MQTT_OK/GD32VW55X_Wifi_BLE_SDK/GD32VW55x_RELEASE_V1.0.2/MSDK/wpa_supplicant/src/ap\preauth_auth.h **** void rsn_preauth_iface_deinit(struct hostapd_data *hapd);
  16:C:/Users/stapi/OneDrive/Desktop/GD32VW553/V1_MQTT_OK/GD32VW55X_Wifi_BLE_SDK/GD32VW55x_RELEASE_V1.0.2/MSDK/wpa_supplicant/src/ap\preauth_auth.h **** void rsn_preauth_finished(struct hostapd_data *hapd, struct sta_info *sta,
  17:C:/Users/stapi/OneDrive/Desktop/GD32VW553/V1_MQTT_OK/GD32VW55X_Wifi_BLE_SDK/GD32VW55x_RELEASE_V1.0.2/MSDK/wpa_supplicant/src/ap\preauth_auth.h **** 			  int success);
  18:C:/Users/stapi/OneDrive/Desktop/GD32VW553/V1_MQTT_OK/GD32VW55X_Wifi_BLE_SDK/GD32VW55x_RELEASE_V1.0.2/MSDK/wpa_supplicant/src/ap\preauth_auth.h **** void rsn_preauth_send(struct hostapd_data *hapd, struct sta_info *sta,
  19:C:/Users/stapi/OneDrive/Desktop/GD32VW553/V1_MQTT_OK/GD32VW55X_Wifi_BLE_SDK/GD32VW55x_RELEASE_V1.0.2/MSDK/wpa_supplicant/src/ap\preauth_auth.h **** 		      u8 *buf, size_t len);
  20:C:/Users/stapi/OneDrive/Desktop/GD32VW553/V1_MQTT_OK/GD32VW55X_Wifi_BLE_SDK/GD32VW55x_RELEASE_V1.0.2/MSDK/wpa_supplicant/src/ap\preauth_auth.h **** void rsn_preauth_free_station(struct hostapd_data *hapd, struct sta_info *sta);
  21:C:/Users/stapi/OneDrive/Desktop/GD32VW553/V1_MQTT_OK/GD32VW55X_Wifi_BLE_SDK/GD32VW55x_RELEASE_V1.0.2/MSDK/wpa_supplicant/src/ap\preauth_auth.h **** 
  22:C:/Users/stapi/OneDrive/Desktop/GD32VW553/V1_MQTT_OK/GD32VW55X_Wifi_BLE_SDK/GD32VW55x_RELEASE_V1.0.2/MSDK/wpa_supplicant/src/ap\preauth_auth.h **** #else /* CONFIG_RSN_PREAUTH */
  23:C:/Users/stapi/OneDrive/Desktop/GD32VW553/V1_MQTT_OK/GD32VW55X_Wifi_BLE_SDK/GD32VW55x_RELEASE_V1.0.2/MSDK/wpa_supplicant/src/ap\preauth_auth.h **** 
  24:C:/Users/stapi/OneDrive/Desktop/GD32VW553/V1_MQTT_OK/GD32VW55X_Wifi_BLE_SDK/GD32VW55x_RELEASE_V1.0.2/MSDK/wpa_supplicant/src/ap\preauth_auth.h **** static inline int rsn_preauth_iface_init(struct hostapd_data *hapd)
  25:C:/Users/stapi/OneDrive/Desktop/GD32VW553/V1_MQTT_OK/GD32VW55X_Wifi_BLE_SDK/GD32VW55x_RELEASE_V1.0.2/MSDK/wpa_supplicant/src/ap\preauth_auth.h **** {
  26:C:/Users/stapi/OneDrive/Desktop/GD32VW553/V1_MQTT_OK/GD32VW55X_Wifi_BLE_SDK/GD32VW55x_RELEASE_V1.0.2/MSDK/wpa_supplicant/src/ap\preauth_auth.h **** 	return 0;
 1532              		.loc 4 26 2
1571:C:/Users/stapi/OneDrive/Desktop/GD32VW553/V1_MQTT_OK/GD32VW55X_Wifi_BLE_SDK/GD32VW55x_RELEASE_V1.0.2/MSDK/wpa_supplicant/src/ap\wpa_auth_glue.c **** 		hapd->ptksa = ptksa_cache_init();
 1533              		.loc 1 1571 2
1571:C:/Users/stapi/OneDrive/Desktop/GD32VW553/V1_MQTT_OK/GD32VW55X_Wifi_BLE_SDK/GD32VW55x_RELEASE_V1.0.2/MSDK/wpa_supplicant/src/ap\wpa_auth_glue.c **** 		hapd->ptksa = ptksa_cache_init();
 1534              		.loc 1 1571 11 is_stmt 0
 1535 0158 8566     		li	a3,4096
 1536 015a 3694     		add	s0,s0,a3
 1537              	.LVL131:
1571:C:/Users/stapi/OneDrive/Desktop/GD32VW553/V1_MQTT_OK/GD32VW55X_Wifi_BLE_SDK/GD32VW55x_RELEASE_V1.0.2/MSDK/wpa_supplicant/src/ap\wpa_auth_glue.c **** 		hapd->ptksa = ptksa_cache_init();
 1538              		.loc 1 1571 5
 1539 015c 83270487 		lw	a5,-1936(s0)
 1540 0160 F9F3     		bne	a5,zero,.L130
1572:C:/Users/stapi/OneDrive/Desktop/GD32VW553/V1_MQTT_OK/GD32VW55X_Wifi_BLE_SDK/GD32VW55x_RELEASE_V1.0.2/MSDK/wpa_supplicant/src/ap\wpa_auth_glue.c **** 	if (!hapd->ptksa) {
 1541              		.loc 1 1572 3 is_stmt 1
 1542              		.file 5 "..\\..\\..\\..\\wpa_supplicant\\src/common/ptksa_cache.h"
   1:..\..\..\..\wpa_supplicant\src/common/ptksa_cache.h **** /*
   2:..\..\..\..\wpa_supplicant\src/common/ptksa_cache.h ****  * RSN PTKSA cache interface
   3:..\..\..\..\wpa_supplicant\src/common/ptksa_cache.h ****  *
   4:..\..\..\..\wpa_supplicant\src/common/ptksa_cache.h ****  * Copyright (C) 2019 Intel Corporation
   5:..\..\..\..\wpa_supplicant\src/common/ptksa_cache.h ****  *
   6:..\..\..\..\wpa_supplicant\src/common/ptksa_cache.h ****  * This software may be distributed under the terms of the BSD license.
   7:..\..\..\..\wpa_supplicant\src/common/ptksa_cache.h ****  * See README for more details.
   8:..\..\..\..\wpa_supplicant\src/common/ptksa_cache.h ****  */
   9:..\..\..\..\wpa_supplicant\src/common/ptksa_cache.h **** 
  10:..\..\..\..\wpa_supplicant\src/common/ptksa_cache.h **** #ifndef PTKSA_CACHE_H
  11:..\..\..\..\wpa_supplicant\src/common/ptksa_cache.h **** #define PTKSA_CACHE_H
  12:..\..\..\..\wpa_supplicant\src/common/ptksa_cache.h **** 
  13:..\..\..\..\wpa_supplicant\src/common/ptksa_cache.h **** #include "wpa_common.h"
  14:..\..\..\..\wpa_supplicant\src/common/ptksa_cache.h **** #include "defs.h"
  15:..\..\..\..\wpa_supplicant\src/common/ptksa_cache.h **** #include "utils/list.h"
  16:..\..\..\..\wpa_supplicant\src/common/ptksa_cache.h **** 
  17:..\..\..\..\wpa_supplicant\src/common/ptksa_cache.h **** /**
  18:..\..\..\..\wpa_supplicant\src/common/ptksa_cache.h ****  * struct ptksa_cache_entry - PTKSA cache entry
  19:..\..\..\..\wpa_supplicant\src/common/ptksa_cache.h ****  */
  20:..\..\..\..\wpa_supplicant\src/common/ptksa_cache.h **** struct ptksa_cache_entry {
  21:..\..\..\..\wpa_supplicant\src/common/ptksa_cache.h **** 	struct dl_list list;
  22:..\..\..\..\wpa_supplicant\src/common/ptksa_cache.h **** 	struct wpa_ptk ptk;
  23:..\..\..\..\wpa_supplicant\src/common/ptksa_cache.h **** 	os_time_t expiration;
  24:..\..\..\..\wpa_supplicant\src/common/ptksa_cache.h **** 	u32 cipher;
  25:..\..\..\..\wpa_supplicant\src/common/ptksa_cache.h **** 	u8 addr[ETH_ALEN];
  26:..\..\..\..\wpa_supplicant\src/common/ptksa_cache.h **** };
  27:..\..\..\..\wpa_supplicant\src/common/ptksa_cache.h **** 
  28:..\..\..\..\wpa_supplicant\src/common/ptksa_cache.h **** #ifdef CONFIG_PTKSA_CACHE
  29:..\..\..\..\wpa_supplicant\src/common/ptksa_cache.h **** 
  30:..\..\..\..\wpa_supplicant\src/common/ptksa_cache.h **** struct ptksa_cache;
  31:..\..\..\..\wpa_supplicant\src/common/ptksa_cache.h **** 
  32:..\..\..\..\wpa_supplicant\src/common/ptksa_cache.h **** struct ptksa_cache * ptksa_cache_init(void);
  33:..\..\..\..\wpa_supplicant\src/common/ptksa_cache.h **** void ptksa_cache_deinit(struct ptksa_cache *ptksa);
  34:..\..\..\..\wpa_supplicant\src/common/ptksa_cache.h **** struct ptksa_cache_entry * ptksa_cache_get(struct ptksa_cache *ptksa,
  35:..\..\..\..\wpa_supplicant\src/common/ptksa_cache.h **** 					   const u8 *addr, u32 cipher);
  36:..\..\..\..\wpa_supplicant\src/common/ptksa_cache.h **** int ptksa_cache_list(struct ptksa_cache *ptksa, char *buf, size_t len);
  37:..\..\..\..\wpa_supplicant\src/common/ptksa_cache.h **** struct ptksa_cache_entry * ptksa_cache_add(struct ptksa_cache *ptksa,
  38:..\..\..\..\wpa_supplicant\src/common/ptksa_cache.h **** 					   const u8 *addr, u32 cipher,
  39:..\..\..\..\wpa_supplicant\src/common/ptksa_cache.h **** 					   u32 life_time,
  40:..\..\..\..\wpa_supplicant\src/common/ptksa_cache.h **** 					   const struct wpa_ptk *ptk);
  41:..\..\..\..\wpa_supplicant\src/common/ptksa_cache.h **** void ptksa_cache_flush(struct ptksa_cache *ptksa, const u8 *addr, u32 cipher);
  42:..\..\..\..\wpa_supplicant\src/common/ptksa_cache.h **** 
  43:..\..\..\..\wpa_supplicant\src/common/ptksa_cache.h **** #else /* CONFIG_PTKSA_CACHE */
  44:..\..\..\..\wpa_supplicant\src/common/ptksa_cache.h **** 
  45:..\..\..\..\wpa_supplicant\src/common/ptksa_cache.h **** static inline struct ptksa_cache * ptksa_cache_init(void)
  46:..\..\..\..\wpa_supplicant\src/common/ptksa_cache.h **** {
  47:..\..\..\..\wpa_supplicant\src/common/ptksa_cache.h **** 	return (struct ptksa_cache *) 1;
 1543              		.loc 5 47 2
1572:C:/Users/stapi/OneDrive/Desktop/GD32VW553/V1_MQTT_OK/GD32VW55X_Wifi_BLE_SDK/GD32VW55x_RELEASE_V1.0.2/MSDK/wpa_supplicant/src/ap\wpa_auth_glue.c **** 	if (!hapd->ptksa) {
 1544              		.loc 1 1572 15 is_stmt 0
 1545 0162 8547     		li	a5,1
 1546 0164 2328F486 		sw	a5,-1936(s0)
 1547 0168 7DBF     		j	.L130
 1548              		.cfi_endproc
 1549              	.LFE199:
 1551              		.section	.text.hostapd_reconfig_wpa,"ax",@progbits
 1552              		.align	1
 1553              		.globl	hostapd_reconfig_wpa
 1555              	hostapd_reconfig_wpa:
 1556              	.LFB200:
1604:C:/Users/stapi/OneDrive/Desktop/GD32VW553/V1_MQTT_OK/GD32VW55X_Wifi_BLE_SDK/GD32VW55x_RELEASE_V1.0.2/MSDK/wpa_supplicant/src/ap\wpa_auth_glue.c **** 
1605:C:/Users/stapi/OneDrive/Desktop/GD32VW553/V1_MQTT_OK/GD32VW55X_Wifi_BLE_SDK/GD32VW55x_RELEASE_V1.0.2/MSDK/wpa_supplicant/src/ap\wpa_auth_glue.c **** 
1606:C:/Users/stapi/OneDrive/Desktop/GD32VW553/V1_MQTT_OK/GD32VW55X_Wifi_BLE_SDK/GD32VW55x_RELEASE_V1.0.2/MSDK/wpa_supplicant/src/ap\wpa_auth_glue.c **** void hostapd_reconfig_wpa(struct hostapd_data *hapd)
1607:C:/Users/stapi/OneDrive/Desktop/GD32VW553/V1_MQTT_OK/GD32VW55X_Wifi_BLE_SDK/GD32VW55x_RELEASE_V1.0.2/MSDK/wpa_supplicant/src/ap\wpa_auth_glue.c **** {
 1557              		.loc 1 1607 1 is_stmt 1
 1558              		.cfi_startproc
 1559              	.LVL132:
 1560 0000 17030000 		call	t0,__riscv_save_1
 1560      E7020300 
 1561              		.cfi_offset 8, -8
 1562              		.cfi_offset 1, -4
 1563              		.cfi_def_cfa_offset 16
1608:C:/Users/stapi/OneDrive/Desktop/GD32VW553/V1_MQTT_OK/GD32VW55X_Wifi_BLE_SDK/GD32VW55x_RELEASE_V1.0.2/MSDK/wpa_supplicant/src/ap\wpa_auth_glue.c **** 	struct wpa_auth_config wpa_auth_conf;
 1564              		.loc 1 1608 2
1609:C:/Users/stapi/OneDrive/Desktop/GD32VW553/V1_MQTT_OK/GD32VW55X_Wifi_BLE_SDK/GD32VW55x_RELEASE_V1.0.2/MSDK/wpa_supplicant/src/ap\wpa_auth_glue.c **** 	hostapd_wpa_auth_conf(hapd->conf, hapd->iconf, &wpa_auth_conf);
 1565              		.loc 1 1609 2
1607:C:/Users/stapi/OneDrive/Desktop/GD32VW553/V1_MQTT_OK/GD32VW55X_Wifi_BLE_SDK/GD32VW55x_RELEASE_V1.0.2/MSDK/wpa_supplicant/src/ap\wpa_auth_glue.c **** 	struct wpa_auth_config wpa_auth_conf;
 1566              		.loc 1 1607 1 is_stmt 0
 1567 0008 2A84     		mv	s0,a0
 1568              		.loc 1 1609 2
 1569 000a 0845     		lw	a0,8(a0)
 1570              	.LVL133:
1607:C:/Users/stapi/OneDrive/Desktop/GD32VW553/V1_MQTT_OK/GD32VW55X_Wifi_BLE_SDK/GD32VW55x_RELEASE_V1.0.2/MSDK/wpa_supplicant/src/ap\wpa_auth_glue.c **** 	struct wpa_auth_config wpa_auth_conf;
 1571              		.loc 1 1607 1
 1572 000c 7571     		addi	sp,sp,-144
 1573              		.cfi_def_cfa_offset 160
 1574              		.loc 1 1609 2
 1575 000e 8A85     		mv	a1,sp
 1576 0010 97000000 		call	hostapd_wpa_auth_conf.constprop.0
 1576      E7800000 
 1577              	.LVL134:
1610:C:/Users/stapi/OneDrive/Desktop/GD32VW553/V1_MQTT_OK/GD32VW55X_Wifi_BLE_SDK/GD32VW55x_RELEASE_V1.0.2/MSDK/wpa_supplicant/src/ap\wpa_auth_glue.c **** 	wpa_reconfig(hapd->wpa_auth, &wpa_auth_conf);
 1578              		.loc 1 1610 2 is_stmt 1
 1579 0018 0325C454 		lw	a0,1356(s0)
 1580 001c 8A85     		mv	a1,sp
 1581 001e 97000000 		call	wpa_reconfig
 1581      E7800000 
 1582              	.LVL135:
1611:C:/Users/stapi/OneDrive/Desktop/GD32VW553/V1_MQTT_OK/GD32VW55X_Wifi_BLE_SDK/GD32VW55x_RELEASE_V1.0.2/MSDK/wpa_supplicant/src/ap\wpa_auth_glue.c **** }
 1583              		.loc 1 1611 1 is_stmt 0
 1584 0026 4961     		addi	sp,sp,144
 1585              		.cfi_def_cfa_offset 0
 1586 0028 17030000 		tail	__riscv_restore_1
 1586      67000300 
 1587              		.cfi_restore 8
 1588              		.cfi_restore 1
 1589              		.cfi_def_cfa_offset -16
 1590              		.cfi_endproc
 1591              	.LFE200:
 1593              		.section	.rodata.hostapd_deinit_wpa.str1.4,"aMS",@progbits,1
 1594              		.align	2
 1595              	.LC8:
 1596 0000 436F756C 		.string	"Could not disable PrivacyInvoked for interface %s"
 1596      64206E6F 
 1596      74206469 
 1596      7361626C 
 1596      65205072 
 1597 0032 0000     		.align	2
 1598              	.LC9:
 1599 0034 00       		.string	""
 1600 0035 000000   		.align	2
 1601              	.LC10:
 1602 0038 436F756C 		.string	"Could not remove generic information element from interface %s"
 1602      64206E6F 
 1602      74207265 
 1602      6D6F7665 
 1602      2067656E 
 1603              		.section	.text.hostapd_deinit_wpa,"ax",@progbits
 1604              		.align	1
 1605              		.globl	hostapd_deinit_wpa
 1607              	hostapd_deinit_wpa:
 1608              	.LFB201:
1612:C:/Users/stapi/OneDrive/Desktop/GD32VW553/V1_MQTT_OK/GD32VW55X_Wifi_BLE_SDK/GD32VW55x_RELEASE_V1.0.2/MSDK/wpa_supplicant/src/ap\wpa_auth_glue.c **** 
1613:C:/Users/stapi/OneDrive/Desktop/GD32VW553/V1_MQTT_OK/GD32VW55X_Wifi_BLE_SDK/GD32VW55x_RELEASE_V1.0.2/MSDK/wpa_supplicant/src/ap\wpa_auth_glue.c **** 
1614:C:/Users/stapi/OneDrive/Desktop/GD32VW553/V1_MQTT_OK/GD32VW55X_Wifi_BLE_SDK/GD32VW55x_RELEASE_V1.0.2/MSDK/wpa_supplicant/src/ap\wpa_auth_glue.c **** void hostapd_deinit_wpa(struct hostapd_data *hapd)
1615:C:/Users/stapi/OneDrive/Desktop/GD32VW553/V1_MQTT_OK/GD32VW55X_Wifi_BLE_SDK/GD32VW55x_RELEASE_V1.0.2/MSDK/wpa_supplicant/src/ap\wpa_auth_glue.c **** {
 1609              		.loc 1 1615 1 is_stmt 1
 1610              		.cfi_startproc
 1611              	.LVL136:
 1612 0000 17030000 		call	t0,__riscv_save_1
 1612      E7020300 
 1613              		.cfi_offset 8, -8
 1614              		.cfi_offset 1, -4
 1615              		.cfi_def_cfa_offset 16
1616:C:/Users/stapi/OneDrive/Desktop/GD32VW553/V1_MQTT_OK/GD32VW55X_Wifi_BLE_SDK/GD32VW55x_RELEASE_V1.0.2/MSDK/wpa_supplicant/src/ap\wpa_auth_glue.c **** 	ieee80211_tkip_countermeasures_deinit(hapd);
 1616              		.loc 1 1616 2
1615:C:/Users/stapi/OneDrive/Desktop/GD32VW553/V1_MQTT_OK/GD32VW55X_Wifi_BLE_SDK/GD32VW55x_RELEASE_V1.0.2/MSDK/wpa_supplicant/src/ap\wpa_auth_glue.c **** 	ieee80211_tkip_countermeasures_deinit(hapd);
 1617              		.loc 1 1615 1 is_stmt 0
 1618 0008 2A84     		mv	s0,a0
 1619              		.loc 1 1616 2
 1620 000a 97000000 		call	ieee80211_tkip_countermeasures_deinit
 1620      E7800000 
 1621              	.LVL137:
1617:C:/Users/stapi/OneDrive/Desktop/GD32VW553/V1_MQTT_OK/GD32VW55X_Wifi_BLE_SDK/GD32VW55x_RELEASE_V1.0.2/MSDK/wpa_supplicant/src/ap\wpa_auth_glue.c **** 	ptksa_cache_deinit(hapd->ptksa);
 1622              		.loc 1 1617 2 is_stmt 1
  48:..\..\..\..\wpa_supplicant\src/common/ptksa_cache.h **** }
  49:..\..\..\..\wpa_supplicant\src/common/ptksa_cache.h **** 
  50:..\..\..\..\wpa_supplicant\src/common/ptksa_cache.h **** static inline void ptksa_cache_deinit(struct ptksa_cache *ptksa)
  51:..\..\..\..\wpa_supplicant\src/common/ptksa_cache.h **** {
  52:..\..\..\..\wpa_supplicant\src/common/ptksa_cache.h **** }
 1623              		.loc 5 52 1
1618:C:/Users/stapi/OneDrive/Desktop/GD32VW553/V1_MQTT_OK/GD32VW55X_Wifi_BLE_SDK/GD32VW55x_RELEASE_V1.0.2/MSDK/wpa_supplicant/src/ap\wpa_auth_glue.c **** 	hapd->ptksa = NULL;
 1624              		.loc 1 1618 2
 1625              		.loc 1 1618 14 is_stmt 0
 1626 0012 8567     		li	a5,4096
1619:C:/Users/stapi/OneDrive/Desktop/GD32VW553/V1_MQTT_OK/GD32VW55X_Wifi_BLE_SDK/GD32VW55x_RELEASE_V1.0.2/MSDK/wpa_supplicant/src/ap\wpa_auth_glue.c **** 
1620:C:/Users/stapi/OneDrive/Desktop/GD32VW553/V1_MQTT_OK/GD32VW55X_Wifi_BLE_SDK/GD32VW55x_RELEASE_V1.0.2/MSDK/wpa_supplicant/src/ap\wpa_auth_glue.c **** 	rsn_preauth_iface_deinit(hapd);
1621:C:/Users/stapi/OneDrive/Desktop/GD32VW553/V1_MQTT_OK/GD32VW55X_Wifi_BLE_SDK/GD32VW55x_RELEASE_V1.0.2/MSDK/wpa_supplicant/src/ap\wpa_auth_glue.c **** 	if (hapd->wpa_auth) {
 1627              		.loc 1 1621 10
 1628 0014 0325C454 		lw	a0,1356(s0)
1618:C:/Users/stapi/OneDrive/Desktop/GD32VW553/V1_MQTT_OK/GD32VW55X_Wifi_BLE_SDK/GD32VW55x_RELEASE_V1.0.2/MSDK/wpa_supplicant/src/ap\wpa_auth_glue.c **** 	hapd->ptksa = NULL;
 1629              		.loc 1 1618 14
 1630 0018 A297     		add	a5,s0,a5
 1631 001a 23A80786 		sw	zero,-1936(a5)
1620:C:/Users/stapi/OneDrive/Desktop/GD32VW553/V1_MQTT_OK/GD32VW55X_Wifi_BLE_SDK/GD32VW55x_RELEASE_V1.0.2/MSDK/wpa_supplicant/src/ap\wpa_auth_glue.c **** 	if (hapd->wpa_auth) {
 1632              		.loc 1 1620 2 is_stmt 1
 1633              	.LVL138:
  27:C:/Users/stapi/OneDrive/Desktop/GD32VW553/V1_MQTT_OK/GD32VW55X_Wifi_BLE_SDK/GD32VW55x_RELEASE_V1.0.2/MSDK/wpa_supplicant/src/ap\preauth_auth.h **** }
  28:C:/Users/stapi/OneDrive/Desktop/GD32VW553/V1_MQTT_OK/GD32VW55X_Wifi_BLE_SDK/GD32VW55x_RELEASE_V1.0.2/MSDK/wpa_supplicant/src/ap\preauth_auth.h **** 
  29:C:/Users/stapi/OneDrive/Desktop/GD32VW553/V1_MQTT_OK/GD32VW55X_Wifi_BLE_SDK/GD32VW55x_RELEASE_V1.0.2/MSDK/wpa_supplicant/src/ap\preauth_auth.h **** static inline void rsn_preauth_iface_deinit(struct hostapd_data *hapd)
  30:C:/Users/stapi/OneDrive/Desktop/GD32VW553/V1_MQTT_OK/GD32VW55X_Wifi_BLE_SDK/GD32VW55x_RELEASE_V1.0.2/MSDK/wpa_supplicant/src/ap\preauth_auth.h **** {
  31:C:/Users/stapi/OneDrive/Desktop/GD32VW553/V1_MQTT_OK/GD32VW55X_Wifi_BLE_SDK/GD32VW55x_RELEASE_V1.0.2/MSDK/wpa_supplicant/src/ap\preauth_auth.h **** }
 1634              		.loc 4 31 1
 1635              		.loc 1 1621 2
 1636              		.loc 1 1621 5 is_stmt 0
 1637 001e 3DC1     		beq	a0,zero,.L160
1622:C:/Users/stapi/OneDrive/Desktop/GD32VW553/V1_MQTT_OK/GD32VW55X_Wifi_BLE_SDK/GD32VW55x_RELEASE_V1.0.2/MSDK/wpa_supplicant/src/ap\wpa_auth_glue.c **** 		wpa_deinit(hapd->wpa_auth);
 1638              		.loc 1 1622 3 is_stmt 1
 1639 0020 97000000 		call	wpa_deinit
 1639      E7800000 
 1640              	.LVL139:
1623:C:/Users/stapi/OneDrive/Desktop/GD32VW553/V1_MQTT_OK/GD32VW55X_Wifi_BLE_SDK/GD32VW55x_RELEASE_V1.0.2/MSDK/wpa_supplicant/src/ap\wpa_auth_glue.c **** 		hapd->wpa_auth = NULL;
 1641              		.loc 1 1623 3
1624:C:/Users/stapi/OneDrive/Desktop/GD32VW553/V1_MQTT_OK/GD32VW55X_Wifi_BLE_SDK/GD32VW55x_RELEASE_V1.0.2/MSDK/wpa_supplicant/src/ap\wpa_auth_glue.c **** 
1625:C:/Users/stapi/OneDrive/Desktop/GD32VW553/V1_MQTT_OK/GD32VW55X_Wifi_BLE_SDK/GD32VW55x_RELEASE_V1.0.2/MSDK/wpa_supplicant/src/ap\wpa_auth_glue.c **** 		if (hapd->drv_priv && hostapd_set_privacy(hapd, 0)) {
 1642              		.loc 1 1625 6 is_stmt 0
 1643 0028 83270452 		lw	a5,1312(s0)
1623:C:/Users/stapi/OneDrive/Desktop/GD32VW553/V1_MQTT_OK/GD32VW55X_Wifi_BLE_SDK/GD32VW55x_RELEASE_V1.0.2/MSDK/wpa_supplicant/src/ap\wpa_auth_glue.c **** 		hapd->wpa_auth = NULL;
 1644              		.loc 1 1623 18
 1645 002c 23260454 		sw	zero,1356(s0)
 1646              		.loc 1 1625 3 is_stmt 1
 1647              		.loc 1 1625 6 is_stmt 0
 1648 0030 B1CB     		beq	a5,zero,.L160
 1649              		.loc 1 1625 25 discriminator 1
 1650 0032 8145     		li	a1,0
 1651 0034 2285     		mv	a0,s0
 1652 0036 97000000 		call	hostapd_set_privacy
 1652      E7800000 
 1653              	.LVL140:
 1654              		.loc 1 1625 22 discriminator 1
 1655 003e 19C9     		beq	a0,zero,.L164
1626:C:/Users/stapi/OneDrive/Desktop/GD32VW553/V1_MQTT_OK/GD32VW55X_Wifi_BLE_SDK/GD32VW55x_RELEASE_V1.0.2/MSDK/wpa_supplicant/src/ap\wpa_auth_glue.c **** 			wpa_printf(MSG_DEBUG, "Could not disable "
 1656              		.loc 1 1626 4 is_stmt 1
 1657 0040 1044     		lw	a2,8(s0)
 1658 0042 B7050000 		lui	a1,%hi(.LC8)
 1659 0046 93850500 		addi	a1,a1,%lo(.LC8)
 1660 004a 0945     		li	a0,2
 1661 004c 97000000 		call	wpa_printf
 1661      E7800000 
 1662              	.LVL141:
 1663              	.L164:
1627:C:/Users/stapi/OneDrive/Desktop/GD32VW553/V1_MQTT_OK/GD32VW55X_Wifi_BLE_SDK/GD32VW55x_RELEASE_V1.0.2/MSDK/wpa_supplicant/src/ap\wpa_auth_glue.c **** 				   "PrivacyInvoked for interface %s",
1628:C:/Users/stapi/OneDrive/Desktop/GD32VW553/V1_MQTT_OK/GD32VW55X_Wifi_BLE_SDK/GD32VW55x_RELEASE_V1.0.2/MSDK/wpa_supplicant/src/ap\wpa_auth_glue.c **** 				   hapd->conf->iface);
1629:C:/Users/stapi/OneDrive/Desktop/GD32VW553/V1_MQTT_OK/GD32VW55X_Wifi_BLE_SDK/GD32VW55x_RELEASE_V1.0.2/MSDK/wpa_supplicant/src/ap\wpa_auth_glue.c **** 		}
1630:C:/Users/stapi/OneDrive/Desktop/GD32VW553/V1_MQTT_OK/GD32VW55X_Wifi_BLE_SDK/GD32VW55x_RELEASE_V1.0.2/MSDK/wpa_supplicant/src/ap\wpa_auth_glue.c **** 
1631:C:/Users/stapi/OneDrive/Desktop/GD32VW553/V1_MQTT_OK/GD32VW55X_Wifi_BLE_SDK/GD32VW55x_RELEASE_V1.0.2/MSDK/wpa_supplicant/src/ap\wpa_auth_glue.c **** 		if (hapd->drv_priv &&
 1664              		.loc 1 1631 3
 1665              		.loc 1 1631 6 is_stmt 0
 1666 0054 83270452 		lw	a5,1312(s0)
 1667 0058 95C7     		beq	a5,zero,.L160
1632:C:/Users/stapi/OneDrive/Desktop/GD32VW553/V1_MQTT_OK/GD32VW55X_Wifi_BLE_SDK/GD32VW55x_RELEASE_V1.0.2/MSDK/wpa_supplicant/src/ap\wpa_auth_glue.c **** 		    hostapd_set_generic_elem(hapd, (u8 *) "", 0)) {
 1668              		.loc 1 1632 7 discriminator 1
 1669 005a B7050000 		lui	a1,%hi(.LC9)
 1670 005e 0146     		li	a2,0
 1671 0060 93850500 		addi	a1,a1,%lo(.LC9)
 1672 0064 2285     		mv	a0,s0
 1673 0066 97000000 		call	hostapd_set_generic_elem
 1673      E7800000 
 1674              	.LVL142:
1631:C:/Users/stapi/OneDrive/Desktop/GD32VW553/V1_MQTT_OK/GD32VW55X_Wifi_BLE_SDK/GD32VW55x_RELEASE_V1.0.2/MSDK/wpa_supplicant/src/ap\wpa_auth_glue.c **** 		    hostapd_set_generic_elem(hapd, (u8 *) "", 0)) {
 1675              		.loc 1 1631 22 discriminator 1
 1676 006e 19C9     		beq	a0,zero,.L160
1633:C:/Users/stapi/OneDrive/Desktop/GD32VW553/V1_MQTT_OK/GD32VW55X_Wifi_BLE_SDK/GD32VW55x_RELEASE_V1.0.2/MSDK/wpa_supplicant/src/ap\wpa_auth_glue.c **** 			wpa_printf(MSG_DEBUG, "Could not remove generic "
 1677              		.loc 1 1633 4 is_stmt 1
 1678 0070 1044     		lw	a2,8(s0)
 1679 0072 B7050000 		lui	a1,%hi(.LC10)
 1680 0076 93850500 		addi	a1,a1,%lo(.LC10)
 1681 007a 0945     		li	a0,2
 1682 007c 97000000 		call	wpa_printf
 1682      E7800000 
 1683              	.LVL143:
 1684              	.L160:
1634:C:/Users/stapi/OneDrive/Desktop/GD32VW553/V1_MQTT_OK/GD32VW55X_Wifi_BLE_SDK/GD32VW55x_RELEASE_V1.0.2/MSDK/wpa_supplicant/src/ap\wpa_auth_glue.c **** 				   "information element from interface %s",
1635:C:/Users/stapi/OneDrive/Desktop/GD32VW553/V1_MQTT_OK/GD32VW55X_Wifi_BLE_SDK/GD32VW55x_RELEASE_V1.0.2/MSDK/wpa_supplicant/src/ap\wpa_auth_glue.c **** 				   hapd->conf->iface);
1636:C:/Users/stapi/OneDrive/Desktop/GD32VW553/V1_MQTT_OK/GD32VW55X_Wifi_BLE_SDK/GD32VW55x_RELEASE_V1.0.2/MSDK/wpa_supplicant/src/ap\wpa_auth_glue.c **** 		}
1637:C:/Users/stapi/OneDrive/Desktop/GD32VW553/V1_MQTT_OK/GD32VW55X_Wifi_BLE_SDK/GD32VW55x_RELEASE_V1.0.2/MSDK/wpa_supplicant/src/ap\wpa_auth_glue.c **** 	}
1638:C:/Users/stapi/OneDrive/Desktop/GD32VW553/V1_MQTT_OK/GD32VW55X_Wifi_BLE_SDK/GD32VW55x_RELEASE_V1.0.2/MSDK/wpa_supplicant/src/ap\wpa_auth_glue.c **** #ifdef IEEE8021X_EAPOL
1639:C:/Users/stapi/OneDrive/Desktop/GD32VW553/V1_MQTT_OK/GD32VW55X_Wifi_BLE_SDK/GD32VW55x_RELEASE_V1.0.2/MSDK/wpa_supplicant/src/ap\wpa_auth_glue.c **** 	ieee802_1x_deinit(hapd);
1640:C:/Users/stapi/OneDrive/Desktop/GD32VW553/V1_MQTT_OK/GD32VW55X_Wifi_BLE_SDK/GD32VW55x_RELEASE_V1.0.2/MSDK/wpa_supplicant/src/ap\wpa_auth_glue.c **** #endif /* IEEE8021X_EAPOL */
1641:C:/Users/stapi/OneDrive/Desktop/GD32VW553/V1_MQTT_OK/GD32VW55X_Wifi_BLE_SDK/GD32VW55x_RELEASE_V1.0.2/MSDK/wpa_supplicant/src/ap\wpa_auth_glue.c **** 
1642:C:/Users/stapi/OneDrive/Desktop/GD32VW553/V1_MQTT_OK/GD32VW55X_Wifi_BLE_SDK/GD32VW55x_RELEASE_V1.0.2/MSDK/wpa_supplicant/src/ap\wpa_auth_glue.c **** #ifdef CONFIG_IEEE80211R_AP
1643:C:/Users/stapi/OneDrive/Desktop/GD32VW553/V1_MQTT_OK/GD32VW55X_Wifi_BLE_SDK/GD32VW55x_RELEASE_V1.0.2/MSDK/wpa_supplicant/src/ap\wpa_auth_glue.c **** 	eloop_cancel_timeout(hostapd_wpa_ft_rrb_rx_later, hapd, ELOOP_ALL_CTX);
1644:C:/Users/stapi/OneDrive/Desktop/GD32VW553/V1_MQTT_OK/GD32VW55X_Wifi_BLE_SDK/GD32VW55x_RELEASE_V1.0.2/MSDK/wpa_supplicant/src/ap\wpa_auth_glue.c **** 	hostapd_wpa_ft_rrb_rx_later(hapd, NULL); /* flush without delivering */
1645:C:/Users/stapi/OneDrive/Desktop/GD32VW553/V1_MQTT_OK/GD32VW55X_Wifi_BLE_SDK/GD32VW55x_RELEASE_V1.0.2/MSDK/wpa_supplicant/src/ap\wpa_auth_glue.c **** 	eloop_cancel_timeout(hostapd_oui_deliver_later, hapd, ELOOP_ALL_CTX);
1646:C:/Users/stapi/OneDrive/Desktop/GD32VW553/V1_MQTT_OK/GD32VW55X_Wifi_BLE_SDK/GD32VW55x_RELEASE_V1.0.2/MSDK/wpa_supplicant/src/ap\wpa_auth_glue.c **** 	hostapd_oui_deliver_later(hapd, NULL); /* flush without delivering */
1647:C:/Users/stapi/OneDrive/Desktop/GD32VW553/V1_MQTT_OK/GD32VW55X_Wifi_BLE_SDK/GD32VW55x_RELEASE_V1.0.2/MSDK/wpa_supplicant/src/ap\wpa_auth_glue.c **** 	l2_packet_deinit(hapd->l2);
1648:C:/Users/stapi/OneDrive/Desktop/GD32VW553/V1_MQTT_OK/GD32VW55X_Wifi_BLE_SDK/GD32VW55x_RELEASE_V1.0.2/MSDK/wpa_supplicant/src/ap\wpa_auth_glue.c **** 	hapd->l2 = NULL;
1649:C:/Users/stapi/OneDrive/Desktop/GD32VW553/V1_MQTT_OK/GD32VW55X_Wifi_BLE_SDK/GD32VW55x_RELEASE_V1.0.2/MSDK/wpa_supplicant/src/ap\wpa_auth_glue.c **** 	hostapd_wpa_unregister_ft_oui(hapd);
1650:C:/Users/stapi/OneDrive/Desktop/GD32VW553/V1_MQTT_OK/GD32VW55X_Wifi_BLE_SDK/GD32VW55x_RELEASE_V1.0.2/MSDK/wpa_supplicant/src/ap\wpa_auth_glue.c **** #endif /* CONFIG_IEEE80211R_AP */
1651:C:/Users/stapi/OneDrive/Desktop/GD32VW553/V1_MQTT_OK/GD32VW55X_Wifi_BLE_SDK/GD32VW55x_RELEASE_V1.0.2/MSDK/wpa_supplicant/src/ap\wpa_auth_glue.c **** }
 1685              		.loc 1 1651 1 is_stmt 0
 1686 0084 17030000 		tail	__riscv_restore_1
 1686      67000300 
 1687              		.cfi_restore 8
 1688              		.cfi_restore 1
 1689              		.cfi_def_cfa_offset 0
 1690              		.cfi_endproc
 1691              	.LFE201:
 1693              		.section	.rodata.__func__.0,"a"
 1694              		.align	2
 1695              		.set	.LANCHOR0,. + 0
 1698              	__func__.0:
 1699 0000 686F7374 		.string	"hostapd_wpa_auth_disconnect"
 1699      6170645F 
 1699      7770615F 
 1699      61757468 
 1699      5F646973 
 1700              		.section	.rodata.cb.1,"a"
 1701              		.align	2
 1702              		.set	.LANCHOR1,. + 0
 1705              	cb.1:
 1706 0000 00000000 		.word	hostapd_wpa_auth_logger
 1707 0004 00000000 		.word	hostapd_wpa_auth_disconnect
 1708 0008 00000000 		.word	hostapd_wpa_auth_mic_failure_report
 1709 000c 00000000 		.word	hostapd_wpa_auth_psk_failure_report
 1710 0010 00000000 		.word	hostapd_wpa_auth_set_eapol
 1711 0014 00000000 		.word	hostapd_wpa_auth_get_eapol
 1712 0018 00000000 		.word	hostapd_wpa_auth_get_psk
 1713 001c 00000000 		.zero	4
 1714 0020 00000000 		.word	hostapd_wpa_auth_set_key
 1715 0024 00000000 		.word	hostapd_wpa_auth_get_seqnum
 1716 0028 00000000 		.word	hostapd_wpa_auth_send_eapol
 1717 002c 00000000 		.word	hostapd_wpa_auth_for_each_sta
 1718 0030 00000000 		.word	hostapd_wpa_auth_for_each_auth
 1719 0034 00000000 		.word	hostapd_wpa_auth_send_ether
 1720 0038 00000000 		.word	hostapd_wpa_auth_send_oui
 1721 003c 00000000 		.word	hostapd_channel_info
 1722 0040 00000000 		.word	hostapd_wpa_auth_update_vlan
 1723 0044 00000000 		.zero	12
 1723      00000000 
 1723      00000000 
 1724              		.text
 1725              	.Letext0:
 1726              		.file 6 "c:\\users\\stapi\\onedrive\\desktop\\gd32vw553\\embeddedbuilder_v1.4.7.26843\\tools\\nucl
 1727              		.file 7 "c:\\users\\stapi\\onedrive\\desktop\\gd32vw553\\embeddedbuilder_v1.4.7.26843\\tools\\nucl
 1728              		.file 8 "c:\\users\\stapi\\onedrive\\desktop\\gd32vw553\\embeddedbuilder_v1.4.7.26843\\tools\\nucl
 1729              		.file 9 "..\\..\\..\\..\\lwip\\lwip-2.1.2\\src\\include/lwip/arch.h"
 1730              		.file 10 "..\\..\\..\\..\\lwip\\lwip-2.1.2\\src\\include/lwip/inet.h"
 1731              		.file 11 "..\\..\\..\\..\\wpa_supplicant\\src/utils/os.h"
 1732              		.file 12 "..\\..\\..\\..\\wpa_supplicant\\src/utils/wpabuf.h"
 1733              		.file 13 "..\\..\\..\\..\\wpa_supplicant\\src/utils/list.h"
 1734              		.file 14 "..\\..\\..\\..\\wpa_supplicant\\src/common/ieee802_11_defs.h"
 1735              		.file 15 "..\\..\\..\\..\\wpa_supplicant\\src/utils/wpa_debug.h"
 1736              		.file 16 "..\\..\\..\\..\\wpa_supplicant\\src/common/sae.h"
 1737              		.file 17 "..\\..\\..\\..\\wpa_supplicant\\src/common/wpa_common.h"
 1738              		.file 18 "..\\..\\..\\..\\wpa_supplicant\\src/common/defs.h"
 1739              		.file 19 "..\\..\\..\\..\\wpa_supplicant\\src/eapol_auth/eapol_auth_sm.h"
 1740              		.file 20 "..\\..\\..\\..\\wpa_supplicant\\src/eap_server/eap.h"
 1741              		.file 21 "..\\..\\..\\..\\wpa_supplicant\\src/radius/radius.h"
 1742              		.file 22 "..\\..\\..\\..\\wpa_supplicant\\src/eapol_auth/eapol_auth_sm_i.h"
 1743              		.file 23 "C:/Users/stapi/OneDrive/Desktop/GD32VW553/V1_MQTT_OK/GD32VW55X_Wifi_BLE_SDK/GD32VW55x_RE
 1744              		.file 24 "..\\..\\..\\..\\wpa_supplicant\\src/wps/wps.h"
 1745              		.file 25 "..\\..\\..\\..\\wpa_supplicant\\src/l2_packet/l2_packet.h"
 1746              		.file 26 "..\\..\\..\\..\\wpa_supplicant\\src/utils/ip_addr.h"
 1747              		.file 27 "..\\..\\..\\..\\wpa_supplicant\\src/common/ieee802_11_common.h"
 1748              		.file 28 "..\\..\\..\\..\\wpa_supplicant\\src/wps/wps_defs.h"
 1749              		.file 29 "C:/Users/stapi/OneDrive/Desktop/GD32VW553/V1_MQTT_OK/GD32VW55X_Wifi_BLE_SDK/GD32VW55x_RE
 1750              		.file 30 "..\\..\\..\\..\\wpa_supplicant\\src/drivers/driver.h"
 1751              		.file 31 "C:/Users/stapi/OneDrive/Desktop/GD32VW553/V1_MQTT_OK/GD32VW55X_Wifi_BLE_SDK/GD32VW55x_RE
 1752              		.file 32 "C:/Users/stapi/OneDrive/Desktop/GD32VW553/V1_MQTT_OK/GD32VW55X_Wifi_BLE_SDK/GD32VW55x_RE
 1753              		.file 33 "C:/Users/stapi/OneDrive/Desktop/GD32VW553/V1_MQTT_OK/GD32VW55X_Wifi_BLE_SDK/GD32VW55x_RE
 1754              		.file 34 "C:/Users/stapi/OneDrive/Desktop/GD32VW553/V1_MQTT_OK/GD32VW55X_Wifi_BLE_SDK/GD32VW55x_RE
 1755              		.file 35 "..\\..\\..\\..\\wpa_supplicant\\src/crypto/sha1.h"
DEFINED SYMBOLS
                            *ABS*:0000000000000000 wpa_auth_glue.c
C:\Users\stapi\AppData\Local\Temp\cc6lLBEI.s:12     .text.hostapd_wpa_auth_logger:0000000000000000 hostapd_wpa_auth_logger
C:\Users\stapi\AppData\Local\Temp\cc6lLBEI.s:16     .text.hostapd_wpa_auth_logger:0000000000000000 .L0 
C:\Users\stapi\AppData\Local\Temp\cc6lLBEI.s:18     .text.hostapd_wpa_auth_logger:0000000000000000 .L0 
C:\Users\stapi\AppData\Local\Temp\cc6lLBEI.s:19     .text.hostapd_wpa_auth_logger:0000000000000000 .L0 
C:\Users\stapi\AppData\Local\Temp\cc6lLBEI.s:20     .text.hostapd_wpa_auth_logger:0000000000000002 .L0 
C:\Users\stapi\AppData\Local\Temp\cc6lLBEI.s:26     .text.hostapd_wpa_auth_for_each_sta:0000000000000000 hostapd_wpa_auth_for_each_sta
C:\Users\stapi\AppData\Local\Temp\cc6lLBEI.s:29     .text.hostapd_wpa_auth_for_each_sta:0000000000000000 .L0 
C:\Users\stapi\AppData\Local\Temp\cc6lLBEI.s:31     .text.hostapd_wpa_auth_for_each_sta:0000000000000000 .L0 
C:\Users\stapi\AppData\Local\Temp\cc6lLBEI.s:32     .text.hostapd_wpa_auth_for_each_sta:0000000000000008 .L0 
C:\Users\stapi\AppData\Local\Temp\cc6lLBEI.s:33     .text.hostapd_wpa_auth_for_each_sta:0000000000000008 .L0 
C:\Users\stapi\AppData\Local\Temp\cc6lLBEI.s:34     .text.hostapd_wpa_auth_for_each_sta:0000000000000008 .L0 
C:\Users\stapi\AppData\Local\Temp\cc6lLBEI.s:35     .text.hostapd_wpa_auth_for_each_sta:0000000000000008 .L0 
C:\Users\stapi\AppData\Local\Temp\cc6lLBEI.s:36     .text.hostapd_wpa_auth_for_each_sta:0000000000000008 .L0 
C:\Users\stapi\AppData\Local\Temp\cc6lLBEI.s:39     .text.hostapd_wpa_auth_for_each_sta:0000000000000008 .L0 
C:\Users\stapi\AppData\Local\Temp\cc6lLBEI.s:40     .text.hostapd_wpa_auth_for_each_sta:0000000000000008 .L0 
C:\Users\stapi\AppData\Local\Temp\cc6lLBEI.s:41     .text.hostapd_wpa_auth_for_each_sta:0000000000000008 .L0 
C:\Users\stapi\AppData\Local\Temp\cc6lLBEI.s:42     .text.hostapd_wpa_auth_for_each_sta:0000000000000008 .L0 
C:\Users\stapi\AppData\Local\Temp\cc6lLBEI.s:45     .text.hostapd_wpa_auth_for_each_sta:000000000000000a .L0 
C:\Users\stapi\AppData\Local\Temp\cc6lLBEI.s:50     .text.hostapd_wpa_auth_for_each_sta:000000000000000e .L0 
C:\Users\stapi\AppData\Local\Temp\cc6lLBEI.s:51     .text.hostapd_wpa_auth_for_each_sta:000000000000000e .L0 
C:\Users\stapi\AppData\Local\Temp\cc6lLBEI.s:53     .text.hostapd_wpa_auth_for_each_sta:0000000000000010 .L0 
C:\Users\stapi\AppData\Local\Temp\cc6lLBEI.s:56     .text.hostapd_wpa_auth_for_each_sta:0000000000000012 .L0 
C:\Users\stapi\AppData\Local\Temp\cc6lLBEI.s:57     .text.hostapd_wpa_auth_for_each_sta:000000000000001a .L0 
C:\Users\stapi\AppData\Local\Temp\cc6lLBEI.s:58     .text.hostapd_wpa_auth_for_each_sta:000000000000001a .L0 
C:\Users\stapi\AppData\Local\Temp\cc6lLBEI.s:59     .text.hostapd_wpa_auth_for_each_sta:000000000000001a .L0 
C:\Users\stapi\AppData\Local\Temp\cc6lLBEI.s:60     .text.hostapd_wpa_auth_for_each_sta:000000000000001a .L0 
C:\Users\stapi\AppData\Local\Temp\cc6lLBEI.s:61     .text.hostapd_wpa_auth_for_each_sta:000000000000001a .L0 
C:\Users\stapi\AppData\Local\Temp\cc6lLBEI.s:62     .text.hostapd_wpa_auth_for_each_sta:000000000000001a .L0 
C:\Users\stapi\AppData\Local\Temp\cc6lLBEI.s:64     .text.hostapd_wpa_auth_for_each_sta:000000000000001a .L0 
C:\Users\stapi\AppData\Local\Temp\cc6lLBEI.s:66     .text.hostapd_wpa_auth_for_each_sta:000000000000001a .L0 
C:\Users\stapi\AppData\Local\Temp\cc6lLBEI.s:67     .text.hostapd_wpa_auth_for_each_sta:000000000000001a .L0 
C:\Users\stapi\AppData\Local\Temp\cc6lLBEI.s:69     .text.hostapd_wpa_auth_for_each_sta:000000000000001e .L0 
C:\Users\stapi\AppData\Local\Temp\cc6lLBEI.s:72     .text.hostapd_wpa_auth_for_each_sta:0000000000000020 .L0 
C:\Users\stapi\AppData\Local\Temp\cc6lLBEI.s:73     .text.hostapd_wpa_auth_for_each_sta:0000000000000020 .L0 
C:\Users\stapi\AppData\Local\Temp\cc6lLBEI.s:78     .text.hostapd_wpa_auth_for_each_sta:0000000000000024 .L0 
C:\Users\stapi\AppData\Local\Temp\cc6lLBEI.s:82     .text.hostapd_wpa_auth_for_each_sta:0000000000000028 .L0 
C:\Users\stapi\AppData\Local\Temp\cc6lLBEI.s:84     .text.hostapd_wpa_auth_for_each_sta:000000000000002a .L0 
C:\Users\stapi\AppData\Local\Temp\cc6lLBEI.s:86     .text.hostapd_wpa_auth_for_each_sta:000000000000002e .L0 
C:\Users\stapi\AppData\Local\Temp\cc6lLBEI.s:92     .text.wpa_auth_iface_iter:0000000000000000 wpa_auth_iface_iter
C:\Users\stapi\AppData\Local\Temp\cc6lLBEI.s:95     .text.wpa_auth_iface_iter:0000000000000000 .L0 
C:\Users\stapi\AppData\Local\Temp\cc6lLBEI.s:97     .text.wpa_auth_iface_iter:0000000000000000 .L0 
C:\Users\stapi\AppData\Local\Temp\cc6lLBEI.s:98     .text.wpa_auth_iface_iter:0000000000000008 .L0 
C:\Users\stapi\AppData\Local\Temp\cc6lLBEI.s:99     .text.wpa_auth_iface_iter:0000000000000008 .L0 
C:\Users\stapi\AppData\Local\Temp\cc6lLBEI.s:100    .text.wpa_auth_iface_iter:0000000000000008 .L0 
C:\Users\stapi\AppData\Local\Temp\cc6lLBEI.s:101    .text.wpa_auth_iface_iter:0000000000000008 .L0 
C:\Users\stapi\AppData\Local\Temp\cc6lLBEI.s:102    .text.wpa_auth_iface_iter:0000000000000008 .L0 
C:\Users\stapi\AppData\Local\Temp\cc6lLBEI.s:104    .text.wpa_auth_iface_iter:0000000000000008 .L0 
C:\Users\stapi\AppData\Local\Temp\cc6lLBEI.s:105    .text.wpa_auth_iface_iter:0000000000000008 .L0 
C:\Users\stapi\AppData\Local\Temp\cc6lLBEI.s:109    .text.wpa_auth_iface_iter:000000000000000c .L0 
C:\Users\stapi\AppData\Local\Temp\cc6lLBEI.s:110    .text.wpa_auth_iface_iter:000000000000000c .L0 
C:\Users\stapi\AppData\Local\Temp\cc6lLBEI.s:111    .text.wpa_auth_iface_iter:000000000000000c .L0 
C:\Users\stapi\AppData\Local\Temp\cc6lLBEI.s:115    .text.wpa_auth_iface_iter:000000000000000e .L0 
C:\Users\stapi\AppData\Local\Temp\cc6lLBEI.s:116    .text.wpa_auth_iface_iter:000000000000000e .L0 
C:\Users\stapi\AppData\Local\Temp\cc6lLBEI.s:119    .text.wpa_auth_iface_iter:0000000000000014 .L0 
C:\Users\stapi\AppData\Local\Temp\cc6lLBEI.s:122    .text.wpa_auth_iface_iter:0000000000000016 .L0 
C:\Users\stapi\AppData\Local\Temp\cc6lLBEI.s:123    .text.wpa_auth_iface_iter:000000000000001e .L0 
C:\Users\stapi\AppData\Local\Temp\cc6lLBEI.s:124    .text.wpa_auth_iface_iter:000000000000001e .L0 
C:\Users\stapi\AppData\Local\Temp\cc6lLBEI.s:125    .text.wpa_auth_iface_iter:000000000000001e .L0 
C:\Users\stapi\AppData\Local\Temp\cc6lLBEI.s:126    .text.wpa_auth_iface_iter:000000000000001e .L0 
C:\Users\stapi\AppData\Local\Temp\cc6lLBEI.s:127    .text.wpa_auth_iface_iter:000000000000001e .L0 
C:\Users\stapi\AppData\Local\Temp\cc6lLBEI.s:128    .text.wpa_auth_iface_iter:000000000000001e .L0 
C:\Users\stapi\AppData\Local\Temp\cc6lLBEI.s:130    .text.wpa_auth_iface_iter:000000000000001e .L0 
C:\Users\stapi\AppData\Local\Temp\cc6lLBEI.s:132    .text.wpa_auth_iface_iter:000000000000001e .L0 
C:\Users\stapi\AppData\Local\Temp\cc6lLBEI.s:133    .text.wpa_auth_iface_iter:000000000000001e .L0 
C:\Users\stapi\AppData\Local\Temp\cc6lLBEI.s:136    .text.wpa_auth_iface_iter:0000000000000024 .L0 
C:\Users\stapi\AppData\Local\Temp\cc6lLBEI.s:139    .text.wpa_auth_iface_iter:000000000000002a .L0 
C:\Users\stapi\AppData\Local\Temp\cc6lLBEI.s:142    .text.wpa_auth_iface_iter:000000000000002c .L0 
C:\Users\stapi\AppData\Local\Temp\cc6lLBEI.s:143    .text.wpa_auth_iface_iter:000000000000002c .L0 
C:\Users\stapi\AppData\Local\Temp\cc6lLBEI.s:148    .text.wpa_auth_iface_iter:0000000000000030 .L0 
C:\Users\stapi\AppData\Local\Temp\cc6lLBEI.s:153    .text.wpa_auth_iface_iter:000000000000003a .L0 
C:\Users\stapi\AppData\Local\Temp\cc6lLBEI.s:155    .text.wpa_auth_iface_iter:000000000000003c .L0 
C:\Users\stapi\AppData\Local\Temp\cc6lLBEI.s:157    .text.wpa_auth_iface_iter:0000000000000040 .L0 
C:\Users\stapi\AppData\Local\Temp\cc6lLBEI.s:163    .text.hostapd_wpa_auth_for_each_auth:0000000000000000 hostapd_wpa_auth_for_each_auth
C:\Users\stapi\AppData\Local\Temp\cc6lLBEI.s:166    .text.hostapd_wpa_auth_for_each_auth:0000000000000000 .L0 
C:\Users\stapi\AppData\Local\Temp\cc6lLBEI.s:168    .text.hostapd_wpa_auth_for_each_auth:0000000000000000 .L0 
C:\Users\stapi\AppData\Local\Temp\cc6lLBEI.s:169    .text.hostapd_wpa_auth_for_each_auth:0000000000000000 .L0 
C:\Users\stapi\AppData\Local\Temp\cc6lLBEI.s:170    .text.hostapd_wpa_auth_for_each_auth:0000000000000000 .L0 
C:\Users\stapi\AppData\Local\Temp\cc6lLBEI.s:171    .text.hostapd_wpa_auth_for_each_auth:0000000000000000 .L0 
C:\Users\stapi\AppData\Local\Temp\cc6lLBEI.s:172    .text.hostapd_wpa_auth_for_each_auth:0000000000000000 .L0 
C:\Users\stapi\AppData\Local\Temp\cc6lLBEI.s:175    .text.hostapd_wpa_auth_for_each_auth:0000000000000004 .L0 
C:\Users\stapi\AppData\Local\Temp\cc6lLBEI.s:177    .text.hostapd_wpa_auth_for_each_auth:0000000000000006 .L0 
C:\Users\stapi\AppData\Local\Temp\cc6lLBEI.s:179    .text.hostapd_wpa_auth_for_each_auth:0000000000000008 .L0 
C:\Users\stapi\AppData\Local\Temp\cc6lLBEI.s:182    .text.hostapd_wpa_auth_for_each_auth:000000000000000a .L0 
C:\Users\stapi\AppData\Local\Temp\cc6lLBEI.s:184    .text.hostapd_wpa_auth_for_each_auth:000000000000000c .L0 
C:\Users\stapi\AppData\Local\Temp\cc6lLBEI.s:185    .text.hostapd_wpa_auth_for_each_auth:0000000000000014 .L0 
C:\Users\stapi\AppData\Local\Temp\cc6lLBEI.s:186    .text.hostapd_wpa_auth_for_each_auth:0000000000000014 .L0 
C:\Users\stapi\AppData\Local\Temp\cc6lLBEI.s:188    .text.hostapd_wpa_auth_for_each_auth:0000000000000014 .L0 
C:\Users\stapi\AppData\Local\Temp\cc6lLBEI.s:189    .text.hostapd_wpa_auth_for_each_auth:0000000000000014 .L0 
C:\Users\stapi\AppData\Local\Temp\cc6lLBEI.s:190    .text.hostapd_wpa_auth_for_each_auth:0000000000000016 .L0 
C:\Users\stapi\AppData\Local\Temp\cc6lLBEI.s:192    .text.hostapd_wpa_auth_for_each_auth:0000000000000016 .L0 
C:\Users\stapi\AppData\Local\Temp\cc6lLBEI.s:194    .text.hostapd_wpa_auth_for_each_auth:0000000000000018 .L0 
C:\Users\stapi\AppData\Local\Temp\cc6lLBEI.s:195    .text.hostapd_wpa_auth_for_each_auth:0000000000000018 .L0 
C:\Users\stapi\AppData\Local\Temp\cc6lLBEI.s:198    .text.hostapd_wpa_auth_for_each_auth:000000000000001c .L0 
C:\Users\stapi\AppData\Local\Temp\cc6lLBEI.s:200    .text.hostapd_wpa_auth_for_each_auth:000000000000001e .L0 
C:\Users\stapi\AppData\Local\Temp\cc6lLBEI.s:201    .text.hostapd_wpa_auth_for_each_auth:000000000000001e .L0 
C:\Users\stapi\AppData\Local\Temp\cc6lLBEI.s:208    .text.hostapd_wpa_auth_for_each_auth:0000000000000028 .L0 
C:\Users\stapi\AppData\Local\Temp\cc6lLBEI.s:209    .text.hostapd_wpa_auth_for_each_auth:000000000000002a .L0 
C:\Users\stapi\AppData\Local\Temp\cc6lLBEI.s:211    .text.hostapd_wpa_auth_for_each_auth:0000000000000032 .L0 
C:\Users\stapi\AppData\Local\Temp\cc6lLBEI.s:212    .text.hostapd_wpa_auth_for_each_auth:0000000000000032 .L0 
C:\Users\stapi\AppData\Local\Temp\cc6lLBEI.s:215    .text.hostapd_wpa_auth_for_each_auth:0000000000000032 .L0 
C:\Users\stapi\AppData\Local\Temp\cc6lLBEI.s:217    .text.hostapd_wpa_auth_for_each_auth:0000000000000032 .L0 
C:\Users\stapi\AppData\Local\Temp\cc6lLBEI.s:222    .text.hostapd_wpa_auth_for_each_auth:0000000000000036 .L0 
C:\Users\stapi\AppData\Local\Temp\cc6lLBEI.s:223    .text.hostapd_wpa_auth_for_each_auth:0000000000000038 .L0 
C:\Users\stapi\AppData\Local\Temp\cc6lLBEI.s:229    .text.hostapd_wpa_auth_send_oui:0000000000000000 hostapd_wpa_auth_send_oui
C:\Users\stapi\AppData\Local\Temp\cc6lLBEI.s:232    .text.hostapd_wpa_auth_send_oui:0000000000000000 .L0 
C:\Users\stapi\AppData\Local\Temp\cc6lLBEI.s:234    .text.hostapd_wpa_auth_send_oui:0000000000000000 .L0 
C:\Users\stapi\AppData\Local\Temp\cc6lLBEI.s:235    .text.hostapd_wpa_auth_send_oui:0000000000000000 .L0 
C:\Users\stapi\AppData\Local\Temp\cc6lLBEI.s:236    .text.hostapd_wpa_auth_send_oui:0000000000000000 .L0 
C:\Users\stapi\AppData\Local\Temp\cc6lLBEI.s:239    .text.hostapd_wpa_auth_send_oui:0000000000000004 .L0 
C:\Users\stapi\AppData\Local\Temp\cc6lLBEI.s:245    .text.hostapd_channel_info:0000000000000000 hostapd_channel_info
C:\Users\stapi\AppData\Local\Temp\cc6lLBEI.s:248    .text.hostapd_channel_info:0000000000000000 .L0 
C:\Users\stapi\AppData\Local\Temp\cc6lLBEI.s:250    .text.hostapd_channel_info:0000000000000000 .L0 
C:\Users\stapi\AppData\Local\Temp\cc6lLBEI.s:251    .text.hostapd_channel_info:0000000000000000 .L0 
C:\Users\stapi\AppData\Local\Temp\cc6lLBEI.s:255    .text.hostapd_channel_info:0000000000000000 .L0 
C:\Users\stapi\AppData\Local\Temp\cc6lLBEI.s:256    .text.hostapd_channel_info:0000000000000000 .L0 
C:\Users\stapi\AppData\Local\Temp\cc6lLBEI.s:257    .text.hostapd_channel_info:0000000000000000 .L0 
C:\Users\stapi\AppData\Local\Temp\cc6lLBEI.s:259    .text.hostapd_channel_info:0000000000000004 .L0 
C:\Users\stapi\AppData\Local\Temp\cc6lLBEI.s:261    .text.hostapd_channel_info:0000000000000006 .L0 
C:\Users\stapi\AppData\Local\Temp\cc6lLBEI.s:264    .text.hostapd_channel_info:000000000000000c .L0 
C:\Users\stapi\AppData\Local\Temp\cc6lLBEI.s:267    .text.hostapd_channel_info:000000000000000e .L0 
C:\Users\stapi\AppData\Local\Temp\cc6lLBEI.s:269    .text.hostapd_channel_info:0000000000000010 .L0 
C:\Users\stapi\AppData\Local\Temp\cc6lLBEI.s:270    .text.hostapd_channel_info:0000000000000010 .L0 
C:\Users\stapi\AppData\Local\Temp\cc6lLBEI.s:275    .text.hostapd_channel_info:0000000000000016 .L0 
C:\Users\stapi\AppData\Local\Temp\cc6lLBEI.s:283    .text.hostapd_channel_info:000000000000001a .L0 
C:\Users\stapi\AppData\Local\Temp\cc6lLBEI.s:284    .text.hostapd_channel_info:000000000000001c .L0 
C:\Users\stapi\AppData\Local\Temp\cc6lLBEI.s:290    .text.hostapd_wpa_auth_update_vlan:0000000000000000 hostapd_wpa_auth_update_vlan
C:\Users\stapi\AppData\Local\Temp\cc6lLBEI.s:293    .text.hostapd_wpa_auth_update_vlan:0000000000000000 .L0 
C:\Users\stapi\AppData\Local\Temp\cc6lLBEI.s:295    .text.hostapd_wpa_auth_update_vlan:0000000000000000 .L0 
C:\Users\stapi\AppData\Local\Temp\cc6lLBEI.s:296    .text.hostapd_wpa_auth_update_vlan:0000000000000000 .L0 
C:\Users\stapi\AppData\Local\Temp\cc6lLBEI.s:297    .text.hostapd_wpa_auth_update_vlan:0000000000000000 .L0 
C:\Users\stapi\AppData\Local\Temp\cc6lLBEI.s:300    .text.hostapd_wpa_auth_update_vlan:0000000000000004 .L0 
C:\Users\stapi\AppData\Local\Temp\cc6lLBEI.s:306    .text.hostapd_wpa_auth_get_eapol:0000000000000000 hostapd_wpa_auth_get_eapol
C:\Users\stapi\AppData\Local\Temp\cc6lLBEI.s:309    .text.hostapd_wpa_auth_get_eapol:0000000000000000 .L0 
C:\Users\stapi\AppData\Local\Temp\cc6lLBEI.s:311    .text.hostapd_wpa_auth_get_eapol:0000000000000000 .L0 
C:\Users\stapi\AppData\Local\Temp\cc6lLBEI.s:312    .text.hostapd_wpa_auth_get_eapol:0000000000000008 .L0 
C:\Users\stapi\AppData\Local\Temp\cc6lLBEI.s:313    .text.hostapd_wpa_auth_get_eapol:0000000000000008 .L0 
C:\Users\stapi\AppData\Local\Temp\cc6lLBEI.s:314    .text.hostapd_wpa_auth_get_eapol:0000000000000008 .L0 
C:\Users\stapi\AppData\Local\Temp\cc6lLBEI.s:317    .text.hostapd_wpa_auth_get_eapol:0000000000000008 .L0 
C:\Users\stapi\AppData\Local\Temp\cc6lLBEI.s:318    .text.hostapd_wpa_auth_get_eapol:0000000000000008 .L0 
C:\Users\stapi\AppData\Local\Temp\cc6lLBEI.s:319    .text.hostapd_wpa_auth_get_eapol:0000000000000008 .L0 
C:\Users\stapi\AppData\Local\Temp\cc6lLBEI.s:321    .text.hostapd_wpa_auth_get_eapol:000000000000000a .L0 
C:\Users\stapi\AppData\Local\Temp\cc6lLBEI.s:324    .text.hostapd_wpa_auth_get_eapol:0000000000000012 .L0 
C:\Users\stapi\AppData\Local\Temp\cc6lLBEI.s:325    .text.hostapd_wpa_auth_get_eapol:0000000000000012 .L0 
C:\Users\stapi\AppData\Local\Temp\cc6lLBEI.s:327    .text.hostapd_wpa_auth_get_eapol:0000000000000014 .L0 
C:\Users\stapi\AppData\Local\Temp\cc6lLBEI.s:329    .text.hostapd_wpa_auth_get_eapol:0000000000000016 .L0 
C:\Users\stapi\AppData\Local\Temp\cc6lLBEI.s:332    .text.hostapd_wpa_auth_get_eapol:0000000000000018 .L0 
C:\Users\stapi\AppData\Local\Temp\cc6lLBEI.s:334    .text.hostapd_wpa_auth_get_eapol:000000000000001a .L0 
C:\Users\stapi\AppData\Local\Temp\cc6lLBEI.s:340    .text.hostapd_wpa_auth_get_eapol:0000000000000026 .L0 
C:\Users\stapi\AppData\Local\Temp\cc6lLBEI.s:341    .text.hostapd_wpa_auth_get_eapol:000000000000002e .L0 
C:\Users\stapi\AppData\Local\Temp\cc6lLBEI.s:342    .text.hostapd_wpa_auth_get_eapol:000000000000002e .L0 
C:\Users\stapi\AppData\Local\Temp\cc6lLBEI.s:343    .text.hostapd_wpa_auth_get_eapol:000000000000002e .L0 
C:\Users\stapi\AppData\Local\Temp\cc6lLBEI.s:344    .text.hostapd_wpa_auth_get_eapol:000000000000002e .L0 
C:\Users\stapi\AppData\Local\Temp\cc6lLBEI.s:346    .text.hostapd_wpa_auth_get_eapol:000000000000002e .L0 
C:\Users\stapi\AppData\Local\Temp\cc6lLBEI.s:348    .text.hostapd_wpa_auth_get_eapol:000000000000002e .L0 
C:\Users\stapi\AppData\Local\Temp\cc6lLBEI.s:349    .text.hostapd_wpa_auth_get_eapol:000000000000002e .L0 
C:\Users\stapi\AppData\Local\Temp\cc6lLBEI.s:353    .text.hostapd_wpa_auth_get_eapol:0000000000000034 .L0 
C:\Users\stapi\AppData\Local\Temp\cc6lLBEI.s:354    .text.hostapd_wpa_auth_get_eapol:0000000000000034 .L0 
C:\Users\stapi\AppData\Local\Temp\cc6lLBEI.s:360    .text.hostapd_wpa_auth_get_eapol:000000000000003e .L0 
C:\Users\stapi\AppData\Local\Temp\cc6lLBEI.s:363    .text.hostapd_wpa_auth_get_eapol:0000000000000042 .L0 
C:\Users\stapi\AppData\Local\Temp\cc6lLBEI.s:370    .text.hostapd_wpa_auth_send_eapol:0000000000000000 hostapd_wpa_auth_send_eapol
C:\Users\stapi\AppData\Local\Temp\cc6lLBEI.s:373    .text.hostapd_wpa_auth_send_eapol:0000000000000000 .L0 
C:\Users\stapi\AppData\Local\Temp\cc6lLBEI.s:375    .text.hostapd_wpa_auth_send_eapol:0000000000000000 .L0 
C:\Users\stapi\AppData\Local\Temp\cc6lLBEI.s:376    .text.hostapd_wpa_auth_send_eapol:0000000000000008 .L0 
C:\Users\stapi\AppData\Local\Temp\cc6lLBEI.s:377    .text.hostapd_wpa_auth_send_eapol:0000000000000008 .L0 
C:\Users\stapi\AppData\Local\Temp\cc6lLBEI.s:378    .text.hostapd_wpa_auth_send_eapol:0000000000000008 .L0 
C:\Users\stapi\AppData\Local\Temp\cc6lLBEI.s:379    .text.hostapd_wpa_auth_send_eapol:0000000000000008 .L0 
C:\Users\stapi\AppData\Local\Temp\cc6lLBEI.s:380    .text.hostapd_wpa_auth_send_eapol:0000000000000008 .L0 
C:\Users\stapi\AppData\Local\Temp\cc6lLBEI.s:381    .text.hostapd_wpa_auth_send_eapol:0000000000000008 .L0 
C:\Users\stapi\AppData\Local\Temp\cc6lLBEI.s:382    .text.hostapd_wpa_auth_send_eapol:0000000000000008 .L0 
C:\Users\stapi\AppData\Local\Temp\cc6lLBEI.s:384    .text.hostapd_wpa_auth_send_eapol:0000000000000008 .L0 
C:\Users\stapi\AppData\Local\Temp\cc6lLBEI.s:385    .text.hostapd_wpa_auth_send_eapol:0000000000000008 .L0 
C:\Users\stapi\AppData\Local\Temp\cc6lLBEI.s:388    .text.hostapd_wpa_auth_send_eapol:000000000000000a .L0 
C:\Users\stapi\AppData\Local\Temp\cc6lLBEI.s:389    .text.hostapd_wpa_auth_send_eapol:000000000000000a .L0 
C:\Users\stapi\AppData\Local\Temp\cc6lLBEI.s:390    .text.hostapd_wpa_auth_send_eapol:000000000000000a .L0 
C:\Users\stapi\AppData\Local\Temp\cc6lLBEI.s:391    .text.hostapd_wpa_auth_send_eapol:000000000000000a .L0 
C:\Users\stapi\AppData\Local\Temp\cc6lLBEI.s:396    .text.hostapd_wpa_auth_send_eapol:0000000000000012 .L0 
C:\Users\stapi\AppData\Local\Temp\cc6lLBEI.s:399    .text.hostapd_wpa_auth_send_eapol:000000000000001a .L0 
C:\Users\stapi\AppData\Local\Temp\cc6lLBEI.s:401    .text.hostapd_wpa_auth_send_eapol:000000000000001c .L0 
C:\Users\stapi\AppData\Local\Temp\cc6lLBEI.s:403    .text.hostapd_wpa_auth_send_eapol:000000000000001e .L0 
C:\Users\stapi\AppData\Local\Temp\cc6lLBEI.s:404    .text.hostapd_wpa_auth_send_eapol:000000000000001e .L0 
C:\Users\stapi\AppData\Local\Temp\cc6lLBEI.s:414    .text.hostapd_wpa_auth_send_eapol:000000000000002a .L0 
C:\Users\stapi\AppData\Local\Temp\cc6lLBEI.s:415    .text.hostapd_wpa_auth_send_eapol:000000000000002a .L0 
C:\Users\stapi\AppData\Local\Temp\cc6lLBEI.s:416    .text.hostapd_wpa_auth_send_eapol:000000000000002a .L0 
C:\Users\stapi\AppData\Local\Temp\cc6lLBEI.s:418    .text.hostapd_wpa_auth_send_eapol:000000000000002e .L0 
C:\Users\stapi\AppData\Local\Temp\cc6lLBEI.s:420    .text.hostapd_wpa_auth_send_eapol:0000000000000030 .L0 
C:\Users\stapi\AppData\Local\Temp\cc6lLBEI.s:422    .text.hostapd_wpa_auth_send_eapol:0000000000000032 .L0 
C:\Users\stapi\AppData\Local\Temp\cc6lLBEI.s:424    .text.hostapd_wpa_auth_send_eapol:0000000000000036 .L0 
C:\Users\stapi\AppData\Local\Temp\cc6lLBEI.s:426    .text.hostapd_wpa_auth_send_eapol:000000000000003a .L0 
C:\Users\stapi\AppData\Local\Temp\cc6lLBEI.s:427    .text.hostapd_wpa_auth_send_eapol:000000000000003a .L0 
C:\Users\stapi\AppData\Local\Temp\cc6lLBEI.s:439    .text.hostapd_wpa_auth_send_eapol:000000000000004c .L0 
C:\Users\stapi\AppData\Local\Temp\cc6lLBEI.s:440    .text.hostapd_wpa_auth_send_eapol:0000000000000054 .L0 
C:\Users\stapi\AppData\Local\Temp\cc6lLBEI.s:441    .text.hostapd_wpa_auth_send_eapol:0000000000000054 .L0 
C:\Users\stapi\AppData\Local\Temp\cc6lLBEI.s:442    .text.hostapd_wpa_auth_send_eapol:0000000000000054 .L0 
C:\Users\stapi\AppData\Local\Temp\cc6lLBEI.s:443    .text.hostapd_wpa_auth_send_eapol:0000000000000054 .L0 
C:\Users\stapi\AppData\Local\Temp\cc6lLBEI.s:444    .text.hostapd_wpa_auth_send_eapol:0000000000000054 .L0 
C:\Users\stapi\AppData\Local\Temp\cc6lLBEI.s:445    .text.hostapd_wpa_auth_send_eapol:0000000000000054 .L0 
C:\Users\stapi\AppData\Local\Temp\cc6lLBEI.s:446    .text.hostapd_wpa_auth_send_eapol:0000000000000054 .L0 
C:\Users\stapi\AppData\Local\Temp\cc6lLBEI.s:447    .text.hostapd_wpa_auth_send_eapol:0000000000000054 .L0 
C:\Users\stapi\AppData\Local\Temp\cc6lLBEI.s:457    .text.hostapd_wpa_auth_psk_failure_report:0000000000000000 hostapd_wpa_auth_psk_failure_report
C:\Users\stapi\AppData\Local\Temp\cc6lLBEI.s:460    .text.hostapd_wpa_auth_psk_failure_report:0000000000000000 .L0 
C:\Users\stapi\AppData\Local\Temp\cc6lLBEI.s:462    .text.hostapd_wpa_auth_psk_failure_report:0000000000000000 .L0 
C:\Users\stapi\AppData\Local\Temp\cc6lLBEI.s:463    .text.hostapd_wpa_auth_psk_failure_report:0000000000000008 .L0 
C:\Users\stapi\AppData\Local\Temp\cc6lLBEI.s:464    .text.hostapd_wpa_auth_psk_failure_report:0000000000000008 .L0 
C:\Users\stapi\AppData\Local\Temp\cc6lLBEI.s:467    .text.hostapd_wpa_auth_psk_failure_report:0000000000000008 .L0 
C:\Users\stapi\AppData\Local\Temp\cc6lLBEI.s:468    .text.hostapd_wpa_auth_psk_failure_report:0000000000000008 .L0 
C:\Users\stapi\AppData\Local\Temp\cc6lLBEI.s:470    .text.hostapd_wpa_auth_psk_failure_report:000000000000000c .L0 
C:\Users\stapi\AppData\Local\Temp\cc6lLBEI.s:471    .text.hostapd_wpa_auth_psk_failure_report:000000000000000e .L0 
C:\Users\stapi\AppData\Local\Temp\cc6lLBEI.s:473    .text.hostapd_wpa_auth_psk_failure_report:000000000000000e .L0 
C:\Users\stapi\AppData\Local\Temp\cc6lLBEI.s:488    .text.hostapd_wpa_auth_psk_failure_report:000000000000003a .L0 
C:\Users\stapi\AppData\Local\Temp\cc6lLBEI.s:489    .text.hostapd_wpa_auth_psk_failure_report:000000000000003c .L0 
C:\Users\stapi\AppData\Local\Temp\cc6lLBEI.s:491    .text.hostapd_wpa_auth_psk_failure_report:0000000000000044 .L0 
C:\Users\stapi\AppData\Local\Temp\cc6lLBEI.s:492    .text.hostapd_wpa_auth_psk_failure_report:0000000000000044 .L0 
C:\Users\stapi\AppData\Local\Temp\cc6lLBEI.s:493    .text.hostapd_wpa_auth_psk_failure_report:0000000000000044 .L0 
C:\Users\stapi\AppData\Local\Temp\cc6lLBEI.s:499    .text.hostapd_wpa_auth_send_ether:0000000000000000 hostapd_wpa_auth_send_ether
C:\Users\stapi\AppData\Local\Temp\cc6lLBEI.s:502    .text.hostapd_wpa_auth_send_ether:0000000000000000 .L0 
C:\Users\stapi\AppData\Local\Temp\cc6lLBEI.s:504    .text.hostapd_wpa_auth_send_ether:0000000000000000 .L0 
C:\Users\stapi\AppData\Local\Temp\cc6lLBEI.s:505    .text.hostapd_wpa_auth_send_ether:0000000000000008 .L0 
C:\Users\stapi\AppData\Local\Temp\cc6lLBEI.s:506    .text.hostapd_wpa_auth_send_ether:0000000000000008 .L0 
C:\Users\stapi\AppData\Local\Temp\cc6lLBEI.s:507    .text.hostapd_wpa_auth_send_ether:0000000000000008 .L0 
C:\Users\stapi\AppData\Local\Temp\cc6lLBEI.s:508    .text.hostapd_wpa_auth_send_ether:0000000000000008 .L0 
C:\Users\stapi\AppData\Local\Temp\cc6lLBEI.s:509    .text.hostapd_wpa_auth_send_ether:0000000000000008 .L0 
C:\Users\stapi\AppData\Local\Temp\cc6lLBEI.s:510    .text.hostapd_wpa_auth_send_ether:0000000000000008 .L0 
C:\Users\stapi\AppData\Local\Temp\cc6lLBEI.s:511    .text.hostapd_wpa_auth_send_ether:0000000000000008 .L0 
C:\Users\stapi\AppData\Local\Temp\cc6lLBEI.s:512    .text.hostapd_wpa_auth_send_ether:0000000000000008 .L0 
C:\Users\stapi\AppData\Local\Temp\cc6lLBEI.s:513    .text.hostapd_wpa_auth_send_ether:0000000000000008 .L0 
C:\Users\stapi\AppData\Local\Temp\cc6lLBEI.s:516    .text.hostapd_wpa_auth_send_ether:0000000000000008 .L0 
C:\Users\stapi\AppData\Local\Temp\cc6lLBEI.s:517    .text.hostapd_wpa_auth_send_ether:0000000000000008 .L0 
C:\Users\stapi\AppData\Local\Temp\cc6lLBEI.s:518    .text.hostapd_wpa_auth_send_ether:0000000000000008 .L0 
C:\Users\stapi\AppData\Local\Temp\cc6lLBEI.s:519    .text.hostapd_wpa_auth_send_ether:0000000000000008 .L0 
C:\Users\stapi\AppData\Local\Temp\cc6lLBEI.s:520    .text.hostapd_wpa_auth_send_ether:0000000000000008 .L0 
C:\Users\stapi\AppData\Local\Temp\cc6lLBEI.s:525    .text.hostapd_wpa_auth_send_ether:000000000000000e .L0 
C:\Users\stapi\AppData\Local\Temp\cc6lLBEI.s:528    .text.hostapd_wpa_auth_send_ether:0000000000000010 .L0 
C:\Users\stapi\AppData\Local\Temp\cc6lLBEI.s:530    .text.hostapd_wpa_auth_send_ether:000000000000001a .L0 
C:\Users\stapi\AppData\Local\Temp\cc6lLBEI.s:531    .text.hostapd_wpa_auth_send_ether:000000000000001a .L0 
C:\Users\stapi\AppData\Local\Temp\cc6lLBEI.s:532    .text.hostapd_wpa_auth_send_ether:000000000000001a .L0 
C:\Users\stapi\AppData\Local\Temp\cc6lLBEI.s:533    .text.hostapd_wpa_auth_send_ether:000000000000001a .L0 
C:\Users\stapi\AppData\Local\Temp\cc6lLBEI.s:534    .text.hostapd_wpa_auth_send_ether:000000000000001a .L0 
C:\Users\stapi\AppData\Local\Temp\cc6lLBEI.s:535    .text.hostapd_wpa_auth_send_ether:000000000000001a .L0 
C:\Users\stapi\AppData\Local\Temp\cc6lLBEI.s:536    .text.hostapd_wpa_auth_send_ether:000000000000001a .L0 
C:\Users\stapi\AppData\Local\Temp\cc6lLBEI.s:537    .text.hostapd_wpa_auth_send_ether:000000000000001a .L0 
C:\Users\stapi\AppData\Local\Temp\cc6lLBEI.s:538    .text.hostapd_wpa_auth_send_ether:000000000000001a .L0 
C:\Users\stapi\AppData\Local\Temp\cc6lLBEI.s:539    .text.hostapd_wpa_auth_send_ether:000000000000001a .L0 
C:\Users\stapi\AppData\Local\Temp\cc6lLBEI.s:542    .text.hostapd_wpa_auth_send_ether:000000000000001a .L0 
C:\Users\stapi\AppData\Local\Temp\cc6lLBEI.s:544    .text.hostapd_wpa_auth_send_ether:000000000000001a .L0 
C:\Users\stapi\AppData\Local\Temp\cc6lLBEI.s:553    .text.hostapd_wpa_auth_send_ether:000000000000002a .L0 
C:\Users\stapi\AppData\Local\Temp\cc6lLBEI.s:554    .text.hostapd_wpa_auth_send_ether:000000000000002a .L0 
C:\Users\stapi\AppData\Local\Temp\cc6lLBEI.s:559    .text.hostapd_wpa_auth_send_ether:0000000000000034 .L0 
C:\Users\stapi\AppData\Local\Temp\cc6lLBEI.s:560    .text.hostapd_wpa_auth_send_ether:0000000000000034 .L0 
C:\Users\stapi\AppData\Local\Temp\cc6lLBEI.s:562    .text.hostapd_wpa_auth_send_ether:0000000000000036 .L0 
C:\Users\stapi\AppData\Local\Temp\cc6lLBEI.s:567    .text.hostapd_wpa_auth_send_ether:0000000000000042 .L0 
C:\Users\stapi\AppData\Local\Temp\cc6lLBEI.s:574    .text.hostapd_wpa_auth_send_ether:0000000000000054 .L0 
C:\Users\stapi\AppData\Local\Temp\cc6lLBEI.s:575    .text.hostapd_wpa_auth_send_ether:0000000000000054 .L0 
C:\Users\stapi\AppData\Local\Temp\cc6lLBEI.s:576    .text.hostapd_wpa_auth_send_ether:0000000000000054 .L0 
C:\Users\stapi\AppData\Local\Temp\cc6lLBEI.s:584    .text.hostapd_wpa_auth_send_ether:000000000000006e .L0 
C:\Users\stapi\AppData\Local\Temp\cc6lLBEI.s:590    .text.hostapd_wpa_auth_send_ether:000000000000007e .L0 
C:\Users\stapi\AppData\Local\Temp\cc6lLBEI.s:591    .text.hostapd_wpa_auth_send_ether:000000000000007e .L0 
C:\Users\stapi\AppData\Local\Temp\cc6lLBEI.s:601    .text.hostapd_wpa_auth_send_ether:0000000000000094 .L0 
C:\Users\stapi\AppData\Local\Temp\cc6lLBEI.s:605    .text.hostapd_wpa_auth_send_ether:000000000000009e .L0 
C:\Users\stapi\AppData\Local\Temp\cc6lLBEI.s:606    .text.hostapd_wpa_auth_send_ether:000000000000009e .L0 
C:\Users\stapi\AppData\Local\Temp\cc6lLBEI.s:607    .text.hostapd_wpa_auth_send_ether:00000000000000a0 .L0 
C:\Users\stapi\AppData\Local\Temp\cc6lLBEI.s:613    .text.hostapd_wpa_auth_get_seqnum:0000000000000000 hostapd_wpa_auth_get_seqnum
C:\Users\stapi\AppData\Local\Temp\cc6lLBEI.s:616    .text.hostapd_wpa_auth_get_seqnum:0000000000000000 .L0 
C:\Users\stapi\AppData\Local\Temp\cc6lLBEI.s:618    .text.hostapd_wpa_auth_get_seqnum:0000000000000000 .L0 
C:\Users\stapi\AppData\Local\Temp\cc6lLBEI.s:619    .text.hostapd_wpa_auth_get_seqnum:0000000000000000 .L0 
C:\Users\stapi\AppData\Local\Temp\cc6lLBEI.s:620    .text.hostapd_wpa_auth_get_seqnum:0000000000000000 .L0 
C:\Users\stapi\AppData\Local\Temp\cc6lLBEI.s:621    .text.hostapd_wpa_auth_get_seqnum:0000000000000000 .L0 
C:\Users\stapi\AppData\Local\Temp\cc6lLBEI.s:623    .text.hostapd_wpa_auth_get_seqnum:0000000000000002 .L0 
C:\Users\stapi\AppData\Local\Temp\cc6lLBEI.s:633    .text.hostapd_wpa_auth_get_seqnum:0000000000000012 .L0 
C:\Users\stapi\AppData\Local\Temp\cc6lLBEI.s:639    .text.hostapd_wpa_auth_set_key:0000000000000000 hostapd_wpa_auth_set_key
C:\Users\stapi\AppData\Local\Temp\cc6lLBEI.s:642    .text.hostapd_wpa_auth_set_key:0000000000000000 .L0 
C:\Users\stapi\AppData\Local\Temp\cc6lLBEI.s:644    .text.hostapd_wpa_auth_set_key:0000000000000000 .L0 
C:\Users\stapi\AppData\Local\Temp\cc6lLBEI.s:645    .text.hostapd_wpa_auth_set_key:0000000000000008 .L0 
C:\Users\stapi\AppData\Local\Temp\cc6lLBEI.s:646    .text.hostapd_wpa_auth_set_key:0000000000000008 .L0 
C:\Users\stapi\AppData\Local\Temp\cc6lLBEI.s:647    .text.hostapd_wpa_auth_set_key:0000000000000008 .L0 
C:\Users\stapi\AppData\Local\Temp\cc6lLBEI.s:648    .text.hostapd_wpa_auth_set_key:0000000000000008 .L0 
C:\Users\stapi\AppData\Local\Temp\cc6lLBEI.s:649    .text.hostapd_wpa_auth_set_key:0000000000000008 .L0 
C:\Users\stapi\AppData\Local\Temp\cc6lLBEI.s:650    .text.hostapd_wpa_auth_set_key:0000000000000008 .L0 
C:\Users\stapi\AppData\Local\Temp\cc6lLBEI.s:651    .text.hostapd_wpa_auth_set_key:0000000000000008 .L0 
C:\Users\stapi\AppData\Local\Temp\cc6lLBEI.s:654    .text.hostapd_wpa_auth_set_key:0000000000000008 .L0 
C:\Users\stapi\AppData\Local\Temp\cc6lLBEI.s:655    .text.hostapd_wpa_auth_set_key:0000000000000008 .L0 
C:\Users\stapi\AppData\Local\Temp\cc6lLBEI.s:656    .text.hostapd_wpa_auth_set_key:0000000000000008 .L0 
C:\Users\stapi\AppData\Local\Temp\cc6lLBEI.s:658    .text.hostapd_wpa_auth_set_key:000000000000000c .L0 
C:\Users\stapi\AppData\Local\Temp\cc6lLBEI.s:660    .text.hostapd_wpa_auth_set_key:000000000000000c .L0 
C:\Users\stapi\AppData\Local\Temp\cc6lLBEI.s:663    .text.hostapd_wpa_auth_set_key:000000000000000e .L0 
C:\Users\stapi\AppData\Local\Temp\cc6lLBEI.s:664    .text.hostapd_wpa_auth_set_key:000000000000000e .L0 
C:\Users\stapi\AppData\Local\Temp\cc6lLBEI.s:669    .text.hostapd_wpa_auth_set_key:0000000000000016 .L0 
C:\Users\stapi\AppData\Local\Temp\cc6lLBEI.s:671    .text.hostapd_wpa_auth_set_key:000000000000001a .L0 
C:\Users\stapi\AppData\Local\Temp\cc6lLBEI.s:677    .text.hostapd_wpa_auth_set_key:0000000000000024 .L0 
C:\Users\stapi\AppData\Local\Temp\cc6lLBEI.s:678    .text.hostapd_wpa_auth_set_key:0000000000000024 .L0 
C:\Users\stapi\AppData\Local\Temp\cc6lLBEI.s:681    .text.hostapd_wpa_auth_set_key:000000000000002c .L0 
C:\Users\stapi\AppData\Local\Temp\cc6lLBEI.s:682    .text.hostapd_wpa_auth_set_key:000000000000002c .L0 
C:\Users\stapi\AppData\Local\Temp\cc6lLBEI.s:687    .text.hostapd_wpa_auth_set_key:0000000000000034 .L0 
C:\Users\stapi\AppData\Local\Temp\cc6lLBEI.s:688    .text.hostapd_wpa_auth_set_key:0000000000000034 .L0 
C:\Users\stapi\AppData\Local\Temp\cc6lLBEI.s:690    .text.hostapd_wpa_auth_set_key:0000000000000036 .L0 
C:\Users\stapi\AppData\Local\Temp\cc6lLBEI.s:692    .text.hostapd_wpa_auth_set_key:000000000000003a .L0 
C:\Users\stapi\AppData\Local\Temp\cc6lLBEI.s:695    .text.hostapd_wpa_auth_set_key:000000000000003c .L0 
C:\Users\stapi\AppData\Local\Temp\cc6lLBEI.s:698    .text.hostapd_wpa_auth_set_key:0000000000000042 .L0 
C:\Users\stapi\AppData\Local\Temp\cc6lLBEI.s:700    .text.hostapd_wpa_auth_set_key:0000000000000044 .L0 
C:\Users\stapi\AppData\Local\Temp\cc6lLBEI.s:701    .text.hostapd_wpa_auth_set_key:0000000000000044 .L0 
C:\Users\stapi\AppData\Local\Temp\cc6lLBEI.s:705    .text.hostapd_wpa_auth_set_key:0000000000000046 .L0 
C:\Users\stapi\AppData\Local\Temp\cc6lLBEI.s:706    .text.hostapd_wpa_auth_set_key:0000000000000046 .L0 
C:\Users\stapi\AppData\Local\Temp\cc6lLBEI.s:718    .text.hostapd_wpa_auth_set_key:000000000000005e .L0 
C:\Users\stapi\AppData\Local\Temp\cc6lLBEI.s:719    .text.hostapd_wpa_auth_set_key:0000000000000060 .L0 
C:\Users\stapi\AppData\Local\Temp\cc6lLBEI.s:721    .text.hostapd_wpa_auth_set_key:0000000000000068 .L0 
C:\Users\stapi\AppData\Local\Temp\cc6lLBEI.s:722    .text.hostapd_wpa_auth_set_key:0000000000000068 .L0 
C:\Users\stapi\AppData\Local\Temp\cc6lLBEI.s:723    .text.hostapd_wpa_auth_set_key:0000000000000068 .L0 
C:\Users\stapi\AppData\Local\Temp\cc6lLBEI.s:724    .text.hostapd_wpa_auth_set_key:0000000000000068 .L0 
C:\Users\stapi\AppData\Local\Temp\cc6lLBEI.s:725    .text.hostapd_wpa_auth_set_key:0000000000000068 .L0 
C:\Users\stapi\AppData\Local\Temp\cc6lLBEI.s:726    .text.hostapd_wpa_auth_set_key:0000000000000068 .L0 
C:\Users\stapi\AppData\Local\Temp\cc6lLBEI.s:727    .text.hostapd_wpa_auth_set_key:0000000000000068 .L0 
C:\Users\stapi\AppData\Local\Temp\cc6lLBEI.s:728    .text.hostapd_wpa_auth_set_key:0000000000000068 .L0 
C:\Users\stapi\AppData\Local\Temp\cc6lLBEI.s:738    .text.hostapd_wpa_auth_get_psk:0000000000000000 hostapd_wpa_auth_get_psk
C:\Users\stapi\AppData\Local\Temp\cc6lLBEI.s:741    .text.hostapd_wpa_auth_get_psk:0000000000000000 .L0 
C:\Users\stapi\AppData\Local\Temp\cc6lLBEI.s:743    .text.hostapd_wpa_auth_get_psk:0000000000000000 .L0 
C:\Users\stapi\AppData\Local\Temp\cc6lLBEI.s:744    .text.hostapd_wpa_auth_get_psk:0000000000000008 .L0 
C:\Users\stapi\AppData\Local\Temp\cc6lLBEI.s:745    .text.hostapd_wpa_auth_get_psk:0000000000000008 .L0 
C:\Users\stapi\AppData\Local\Temp\cc6lLBEI.s:746    .text.hostapd_wpa_auth_get_psk:0000000000000008 .L0 
C:\Users\stapi\AppData\Local\Temp\cc6lLBEI.s:747    .text.hostapd_wpa_auth_get_psk:0000000000000008 .L0 
C:\Users\stapi\AppData\Local\Temp\cc6lLBEI.s:748    .text.hostapd_wpa_auth_get_psk:0000000000000008 .L0 
C:\Users\stapi\AppData\Local\Temp\cc6lLBEI.s:749    .text.hostapd_wpa_auth_get_psk:0000000000000008 .L0 
C:\Users\stapi\AppData\Local\Temp\cc6lLBEI.s:750    .text.hostapd_wpa_auth_get_psk:0000000000000008 .L0 
C:\Users\stapi\AppData\Local\Temp\cc6lLBEI.s:751    .text.hostapd_wpa_auth_get_psk:0000000000000008 .L0 
C:\Users\stapi\AppData\Local\Temp\cc6lLBEI.s:752    .text.hostapd_wpa_auth_get_psk:0000000000000008 .L0 
C:\Users\stapi\AppData\Local\Temp\cc6lLBEI.s:754    .text.hostapd_wpa_auth_get_psk:0000000000000008 .L0 
C:\Users\stapi\AppData\Local\Temp\cc6lLBEI.s:755    .text.hostapd_wpa_auth_get_psk:0000000000000008 .L0 
C:\Users\stapi\AppData\Local\Temp\cc6lLBEI.s:758    .text.hostapd_wpa_auth_get_psk:000000000000000a .L0 
C:\Users\stapi\AppData\Local\Temp\cc6lLBEI.s:759    .text.hostapd_wpa_auth_get_psk:000000000000000a .L0 
C:\Users\stapi\AppData\Local\Temp\cc6lLBEI.s:765    .text.hostapd_wpa_auth_get_psk:0000000000000014 .L0 
C:\Users\stapi\AppData\Local\Temp\cc6lLBEI.s:770    .text.hostapd_wpa_auth_get_psk:000000000000001e .L0 
C:\Users\stapi\AppData\Local\Temp\cc6lLBEI.s:771    .text.hostapd_wpa_auth_get_psk:000000000000001e .L0 
C:\Users\stapi\AppData\Local\Temp\cc6lLBEI.s:772    .text.hostapd_wpa_auth_get_psk:000000000000001e .L0 
C:\Users\stapi\AppData\Local\Temp\cc6lLBEI.s:774    .text.hostapd_wpa_auth_get_psk:0000000000000020 .L0 
C:\Users\stapi\AppData\Local\Temp\cc6lLBEI.s:775    .text.hostapd_wpa_auth_get_psk:0000000000000020 .L0 
C:\Users\stapi\AppData\Local\Temp\cc6lLBEI.s:778    .text.hostapd_wpa_auth_get_psk:0000000000000024 .L0 
C:\Users\stapi\AppData\Local\Temp\cc6lLBEI.s:779    .text.hostapd_wpa_auth_get_psk:0000000000000024 .L0 
C:\Users\stapi\AppData\Local\Temp\cc6lLBEI.s:781    .text.hostapd_wpa_auth_get_psk:0000000000000028 .L0 
C:\Users\stapi\AppData\Local\Temp\cc6lLBEI.s:782    .text.hostapd_wpa_auth_get_psk:0000000000000028 .L0 
C:\Users\stapi\AppData\Local\Temp\cc6lLBEI.s:786    .text.hostapd_wpa_auth_get_psk:0000000000000030 .L0 
C:\Users\stapi\AppData\Local\Temp\cc6lLBEI.s:787    .text.hostapd_wpa_auth_get_psk:0000000000000030 .L0 
C:\Users\stapi\AppData\Local\Temp\cc6lLBEI.s:789    .text.hostapd_wpa_auth_get_psk:0000000000000032 .L0 
C:\Users\stapi\AppData\Local\Temp\cc6lLBEI.s:793    .text.hostapd_wpa_auth_get_psk:000000000000003c .L0 
C:\Users\stapi\AppData\Local\Temp\cc6lLBEI.s:794    .text.hostapd_wpa_auth_get_psk:000000000000003c .L0 
C:\Users\stapi\AppData\Local\Temp\cc6lLBEI.s:796    .text.hostapd_wpa_auth_get_psk:0000000000000040 .L0 
C:\Users\stapi\AppData\Local\Temp\cc6lLBEI.s:800    .text.hostapd_wpa_auth_get_psk:0000000000000042 .L0 
C:\Users\stapi\AppData\Local\Temp\cc6lLBEI.s:801    .text.hostapd_wpa_auth_get_psk:0000000000000042 .L0 
C:\Users\stapi\AppData\Local\Temp\cc6lLBEI.s:806    .text.hostapd_wpa_auth_get_psk:0000000000000046 .L0 
C:\Users\stapi\AppData\Local\Temp\cc6lLBEI.s:808    .text.hostapd_wpa_auth_get_psk:0000000000000048 .L0 
C:\Users\stapi\AppData\Local\Temp\cc6lLBEI.s:812    .text.hostapd_wpa_auth_get_psk:000000000000004c .L0 
C:\Users\stapi\AppData\Local\Temp\cc6lLBEI.s:813    .text.hostapd_wpa_auth_get_psk:0000000000000054 .L0 
C:\Users\stapi\AppData\Local\Temp\cc6lLBEI.s:814    .text.hostapd_wpa_auth_get_psk:0000000000000054 .L0 
C:\Users\stapi\AppData\Local\Temp\cc6lLBEI.s:815    .text.hostapd_wpa_auth_get_psk:0000000000000054 .L0 
C:\Users\stapi\AppData\Local\Temp\cc6lLBEI.s:816    .text.hostapd_wpa_auth_get_psk:0000000000000054 .L0 
C:\Users\stapi\AppData\Local\Temp\cc6lLBEI.s:817    .text.hostapd_wpa_auth_get_psk:0000000000000054 .L0 
C:\Users\stapi\AppData\Local\Temp\cc6lLBEI.s:818    .text.hostapd_wpa_auth_get_psk:0000000000000054 .L0 
C:\Users\stapi\AppData\Local\Temp\cc6lLBEI.s:819    .text.hostapd_wpa_auth_get_psk:0000000000000054 .L0 
C:\Users\stapi\AppData\Local\Temp\cc6lLBEI.s:820    .text.hostapd_wpa_auth_get_psk:0000000000000054 .L0 
C:\Users\stapi\AppData\Local\Temp\cc6lLBEI.s:821    .text.hostapd_wpa_auth_get_psk:0000000000000054 .L0 
C:\Users\stapi\AppData\Local\Temp\cc6lLBEI.s:822    .text.hostapd_wpa_auth_get_psk:0000000000000054 .L0 
C:\Users\stapi\AppData\Local\Temp\cc6lLBEI.s:825    .text.hostapd_wpa_auth_get_psk:0000000000000054 .L0 
C:\Users\stapi\AppData\Local\Temp\cc6lLBEI.s:827    .text.hostapd_wpa_auth_get_psk:0000000000000054 .L0 
C:\Users\stapi\AppData\Local\Temp\cc6lLBEI.s:828    .text.hostapd_wpa_auth_get_psk:0000000000000054 .L0 
C:\Users\stapi\AppData\Local\Temp\cc6lLBEI.s:832    .text.hostapd_wpa_auth_get_psk:0000000000000060 .L0 
C:\Users\stapi\AppData\Local\Temp\cc6lLBEI.s:834    .text.hostapd_wpa_auth_get_psk:0000000000000062 .L0 
C:\Users\stapi\AppData\Local\Temp\cc6lLBEI.s:842    .text.hostapd_wpa_auth_get_psk:0000000000000076 .L0 
C:\Users\stapi\AppData\Local\Temp\cc6lLBEI.s:843    .text.hostapd_wpa_auth_get_psk:0000000000000076 .L0 
C:\Users\stapi\AppData\Local\Temp\cc6lLBEI.s:851    .text.hostapd_wpa_auth_get_psk:000000000000008a .L0 
C:\Users\stapi\AppData\Local\Temp\cc6lLBEI.s:852    .text.hostapd_wpa_auth_get_psk:000000000000008a .L0 
C:\Users\stapi\AppData\Local\Temp\cc6lLBEI.s:854    .text.hostapd_wpa_auth_get_psk:000000000000008c .L0 
C:\Users\stapi\AppData\Local\Temp\cc6lLBEI.s:857    .text.hostapd_wpa_auth_get_psk:0000000000000090 .L0 
C:\Users\stapi\AppData\Local\Temp\cc6lLBEI.s:859    .text.hostapd_wpa_auth_get_psk:0000000000000094 .L0 
C:\Users\stapi\AppData\Local\Temp\cc6lLBEI.s:862    .text.hostapd_wpa_auth_get_psk:0000000000000096 .L0 
C:\Users\stapi\AppData\Local\Temp\cc6lLBEI.s:863    .text.hostapd_wpa_auth_get_psk:0000000000000096 .L0 
C:\Users\stapi\AppData\Local\Temp\cc6lLBEI.s:864    .text.hostapd_wpa_auth_get_psk:0000000000000096 .L0 
C:\Users\stapi\AppData\Local\Temp\cc6lLBEI.s:866    .text.hostapd_wpa_auth_get_psk:0000000000000098 .L0 
C:\Users\stapi\AppData\Local\Temp\cc6lLBEI.s:867    .text.hostapd_wpa_auth_get_psk:0000000000000098 .L0 
C:\Users\stapi\AppData\Local\Temp\cc6lLBEI.s:871    .text.hostapd_wpa_auth_get_psk:000000000000009c .L0 
C:\Users\stapi\AppData\Local\Temp\cc6lLBEI.s:872    .text.hostapd_wpa_auth_get_psk:000000000000009c .L0 
C:\Users\stapi\AppData\Local\Temp\cc6lLBEI.s:874    .text.hostapd_wpa_auth_get_psk:000000000000009c .L0 
C:\Users\stapi\AppData\Local\Temp\cc6lLBEI.s:875    .text.hostapd_wpa_auth_get_psk:000000000000009c .L0 
C:\Users\stapi\AppData\Local\Temp\cc6lLBEI.s:880    .text.hostapd_wpa_auth_get_psk:000000000000009e .L0 
C:\Users\stapi\AppData\Local\Temp\cc6lLBEI.s:881    .text.hostapd_wpa_auth_get_psk:000000000000009e .L0 
C:\Users\stapi\AppData\Local\Temp\cc6lLBEI.s:883    .text.hostapd_wpa_auth_get_psk:00000000000000a2 .L0 
C:\Users\stapi\AppData\Local\Temp\cc6lLBEI.s:885    .text.hostapd_wpa_auth_get_psk:00000000000000a6 .L0 
C:\Users\stapi\AppData\Local\Temp\cc6lLBEI.s:888    .text.hostapd_wpa_auth_get_psk:00000000000000aa .L0 
C:\Users\stapi\AppData\Local\Temp\cc6lLBEI.s:889    .text.hostapd_wpa_auth_get_psk:00000000000000aa .L0 
C:\Users\stapi\AppData\Local\Temp\cc6lLBEI.s:891    .text.hostapd_wpa_auth_get_psk:00000000000000ae .L0 
C:\Users\stapi\AppData\Local\Temp\cc6lLBEI.s:900    .text.hostapd_wpa_auth_get_psk:00000000000000ca .L0 
C:\Users\stapi\AppData\Local\Temp\cc6lLBEI.s:901    .text.hostapd_wpa_auth_get_psk:00000000000000ca .L0 
C:\Users\stapi\AppData\Local\Temp\cc6lLBEI.s:906    .text.hostapd_wpa_auth_get_psk:00000000000000d4 .L0 
C:\Users\stapi\AppData\Local\Temp\cc6lLBEI.s:907    .text.hostapd_wpa_auth_get_psk:00000000000000d4 .L0 
C:\Users\stapi\AppData\Local\Temp\cc6lLBEI.s:910    .text.hostapd_wpa_auth_get_psk:00000000000000d6 .L0 
C:\Users\stapi\AppData\Local\Temp\cc6lLBEI.s:912    .text.hostapd_wpa_auth_get_psk:00000000000000da .L0 
C:\Users\stapi\AppData\Local\Temp\cc6lLBEI.s:913    .text.hostapd_wpa_auth_get_psk:00000000000000da .L0 
C:\Users\stapi\AppData\Local\Temp\cc6lLBEI.s:919    .text.hostapd_wpa_auth_get_psk:00000000000000e2 .L0 
C:\Users\stapi\AppData\Local\Temp\cc6lLBEI.s:920    .text.hostapd_wpa_auth_get_psk:00000000000000e2 .L0 
C:\Users\stapi\AppData\Local\Temp\cc6lLBEI.s:921    .text.hostapd_wpa_auth_get_psk:00000000000000e2 .L0 
C:\Users\stapi\AppData\Local\Temp\cc6lLBEI.s:923    .text.hostapd_wpa_auth_get_psk:00000000000000e4 .L0 
C:\Users\stapi\AppData\Local\Temp\cc6lLBEI.s:927    .text.hostapd_wpa_auth_get_psk:00000000000000ea .L0 
C:\Users\stapi\AppData\Local\Temp\cc6lLBEI.s:933    .text.hostapd_wpa_auth_set_eapol:0000000000000000 hostapd_wpa_auth_set_eapol
C:\Users\stapi\AppData\Local\Temp\cc6lLBEI.s:936    .text.hostapd_wpa_auth_set_eapol:0000000000000000 .L0 
C:\Users\stapi\AppData\Local\Temp\cc6lLBEI.s:938    .text.hostapd_wpa_auth_set_eapol:0000000000000000 .L0 
C:\Users\stapi\AppData\Local\Temp\cc6lLBEI.s:939    .text.hostapd_wpa_auth_set_eapol:0000000000000008 .L0 
C:\Users\stapi\AppData\Local\Temp\cc6lLBEI.s:940    .text.hostapd_wpa_auth_set_eapol:0000000000000008 .L0 
C:\Users\stapi\AppData\Local\Temp\cc6lLBEI.s:941    .text.hostapd_wpa_auth_set_eapol:0000000000000008 .L0 
C:\Users\stapi\AppData\Local\Temp\cc6lLBEI.s:942    .text.hostapd_wpa_auth_set_eapol:0000000000000008 .L0 
C:\Users\stapi\AppData\Local\Temp\cc6lLBEI.s:943    .text.hostapd_wpa_auth_set_eapol:0000000000000008 .L0 
C:\Users\stapi\AppData\Local\Temp\cc6lLBEI.s:945    .text.hostapd_wpa_auth_set_eapol:0000000000000008 .L0 
C:\Users\stapi\AppData\Local\Temp\cc6lLBEI.s:946    .text.hostapd_wpa_auth_set_eapol:0000000000000008 .L0 
C:\Users\stapi\AppData\Local\Temp\cc6lLBEI.s:947    .text.hostapd_wpa_auth_set_eapol:000000000000000a .L0 
C:\Users\stapi\AppData\Local\Temp\cc6lLBEI.s:949    .text.hostapd_wpa_auth_set_eapol:000000000000000a .L0 
C:\Users\stapi\AppData\Local\Temp\cc6lLBEI.s:952    .text.hostapd_wpa_auth_set_eapol:000000000000000c .L0 
C:\Users\stapi\AppData\Local\Temp\cc6lLBEI.s:953    .text.hostapd_wpa_auth_set_eapol:000000000000000c .L0 
C:\Users\stapi\AppData\Local\Temp\cc6lLBEI.s:956    .text.hostapd_wpa_auth_set_eapol:0000000000000010 .L0 
C:\Users\stapi\AppData\Local\Temp\cc6lLBEI.s:959    .text.hostapd_wpa_auth_set_eapol:0000000000000018 .L0 
C:\Users\stapi\AppData\Local\Temp\cc6lLBEI.s:960    .text.hostapd_wpa_auth_set_eapol:0000000000000018 .L0 
C:\Users\stapi\AppData\Local\Temp\cc6lLBEI.s:962    .text.hostapd_wpa_auth_set_eapol:000000000000001a .L0 
C:\Users\stapi\AppData\Local\Temp\cc6lLBEI.s:963    .text.hostapd_wpa_auth_set_eapol:000000000000001a .L0 
C:\Users\stapi\AppData\Local\Temp\cc6lLBEI.s:967    .text.hostapd_wpa_auth_set_eapol:0000000000000022 .L0 
C:\Users\stapi\AppData\Local\Temp\cc6lLBEI.s:968    .text.hostapd_wpa_auth_set_eapol:0000000000000022 .L0 
C:\Users\stapi\AppData\Local\Temp\cc6lLBEI.s:970    .text.hostapd_wpa_auth_set_eapol:0000000000000024 .L0 
C:\Users\stapi\AppData\Local\Temp\cc6lLBEI.s:977    .text.hostapd_wpa_auth_set_eapol:0000000000000032 .L0 
C:\Users\stapi\AppData\Local\Temp\cc6lLBEI.s:980    .text.hostapd_wpa_auth_set_eapol:0000000000000034 .L0 
C:\Users\stapi\AppData\Local\Temp\cc6lLBEI.s:986    .text.hostapd_wpa_auth_set_eapol:0000000000000040 .L0 
C:\Users\stapi\AppData\Local\Temp\cc6lLBEI.s:987    .text.hostapd_wpa_auth_set_eapol:0000000000000042 .L0 
C:\Users\stapi\AppData\Local\Temp\cc6lLBEI.s:988    .text.hostapd_wpa_auth_set_eapol:0000000000000042 .L0 
C:\Users\stapi\AppData\Local\Temp\cc6lLBEI.s:990    .text.hostapd_wpa_auth_set_eapol:000000000000004a .L0 
C:\Users\stapi\AppData\Local\Temp\cc6lLBEI.s:991    .text.hostapd_wpa_auth_set_eapol:000000000000004a .L0 
C:\Users\stapi\AppData\Local\Temp\cc6lLBEI.s:992    .text.hostapd_wpa_auth_set_eapol:000000000000004a .L0 
C:\Users\stapi\AppData\Local\Temp\cc6lLBEI.s:993    .text.hostapd_wpa_auth_set_eapol:000000000000004a .L0 
C:\Users\stapi\AppData\Local\Temp\cc6lLBEI.s:994    .text.hostapd_wpa_auth_set_eapol:000000000000004a .L0 
C:\Users\stapi\AppData\Local\Temp\cc6lLBEI.s:997    .text.hostapd_wpa_auth_set_eapol:000000000000004a .L0 
C:\Users\stapi\AppData\Local\Temp\cc6lLBEI.s:999    .text.hostapd_wpa_auth_set_eapol:000000000000004a .L0 
C:\Users\stapi\AppData\Local\Temp\cc6lLBEI.s:1006   .text.hostapd_wpa_auth_set_eapol:0000000000000058 .L0 
C:\Users\stapi\AppData\Local\Temp\cc6lLBEI.s:1008   .text.hostapd_wpa_auth_set_eapol:000000000000005c .L0 
C:\Users\stapi\AppData\Local\Temp\cc6lLBEI.s:1014   .text.hostapd_wpa_auth_mic_failure_report:0000000000000000 hostapd_wpa_auth_mic_failure_report
C:\Users\stapi\AppData\Local\Temp\cc6lLBEI.s:1017   .text.hostapd_wpa_auth_mic_failure_report:0000000000000000 .L0 
C:\Users\stapi\AppData\Local\Temp\cc6lLBEI.s:1019   .text.hostapd_wpa_auth_mic_failure_report:0000000000000000 .L0 
C:\Users\stapi\AppData\Local\Temp\cc6lLBEI.s:1020   .text.hostapd_wpa_auth_mic_failure_report:0000000000000000 .L0 
C:\Users\stapi\AppData\Local\Temp\cc6lLBEI.s:1021   .text.hostapd_wpa_auth_mic_failure_report:0000000000000000 .L0 
C:\Users\stapi\AppData\Local\Temp\cc6lLBEI.s:1022   .text.hostapd_wpa_auth_mic_failure_report:0000000000000000 .L0 
C:\Users\stapi\AppData\Local\Temp\cc6lLBEI.s:1025   .text.hostapd_wpa_auth_mic_failure_report:000000000000000a .L0 
C:\Users\stapi\AppData\Local\Temp\cc6lLBEI.s:1035   .text.hostapd_wpa_auth_disconnect:0000000000000000 hostapd_wpa_auth_disconnect
C:\Users\stapi\AppData\Local\Temp\cc6lLBEI.s:1038   .text.hostapd_wpa_auth_disconnect:0000000000000000 .L0 
C:\Users\stapi\AppData\Local\Temp\cc6lLBEI.s:1040   .text.hostapd_wpa_auth_disconnect:0000000000000000 .L0 
C:\Users\stapi\AppData\Local\Temp\cc6lLBEI.s:1041   .text.hostapd_wpa_auth_disconnect:0000000000000008 .L0 
C:\Users\stapi\AppData\Local\Temp\cc6lLBEI.s:1042   .text.hostapd_wpa_auth_disconnect:0000000000000008 .L0 
C:\Users\stapi\AppData\Local\Temp\cc6lLBEI.s:1043   .text.hostapd_wpa_auth_disconnect:0000000000000008 .L0 
C:\Users\stapi\AppData\Local\Temp\cc6lLBEI.s:1044   .text.hostapd_wpa_auth_disconnect:0000000000000008 .L0 
C:\Users\stapi\AppData\Local\Temp\cc6lLBEI.s:1045   .text.hostapd_wpa_auth_disconnect:0000000000000008 .L0 
C:\Users\stapi\AppData\Local\Temp\cc6lLBEI.s:1047   .text.hostapd_wpa_auth_disconnect:0000000000000008 .L0 
C:\Users\stapi\AppData\Local\Temp\cc6lLBEI.s:1048   .text.hostapd_wpa_auth_disconnect:0000000000000008 .L0 
C:\Users\stapi\AppData\Local\Temp\cc6lLBEI.s:1049   .text.hostapd_wpa_auth_disconnect:000000000000000a .L0 
C:\Users\stapi\AppData\Local\Temp\cc6lLBEI.s:1051   .text.hostapd_wpa_auth_disconnect:000000000000000a .L0 
C:\Users\stapi\AppData\Local\Temp\cc6lLBEI.s:1054   .text.hostapd_wpa_auth_disconnect:0000000000000010 .L0 
C:\Users\stapi\AppData\Local\Temp\cc6lLBEI.s:1057   .text.hostapd_wpa_auth_disconnect:0000000000000014 .L0 
C:\Users\stapi\AppData\Local\Temp\cc6lLBEI.s:1068   .text.hostapd_wpa_auth_disconnect:0000000000000032 .L0 
C:\Users\stapi\AppData\Local\Temp\cc6lLBEI.s:1071   .text.hostapd_wpa_auth_disconnect:0000000000000034 .L0 
C:\Users\stapi\AppData\Local\Temp\cc6lLBEI.s:1078   .text.hostapd_wpa_auth_disconnect:0000000000000046 .L0 
C:\Users\stapi\AppData\Local\Temp\cc6lLBEI.s:1085   .text.hostapd_wpa_auth_disconnect:0000000000000056 .L0 
C:\Users\stapi\AppData\Local\Temp\cc6lLBEI.s:1086   .text.hostapd_wpa_auth_disconnect:0000000000000058 .L0 
C:\Users\stapi\AppData\Local\Temp\cc6lLBEI.s:1088   .text.hostapd_wpa_auth_disconnect:0000000000000060 .L0 
C:\Users\stapi\AppData\Local\Temp\cc6lLBEI.s:1089   .text.hostapd_wpa_auth_disconnect:0000000000000060 .L0 
C:\Users\stapi\AppData\Local\Temp\cc6lLBEI.s:1090   .text.hostapd_wpa_auth_disconnect:0000000000000060 .L0 
C:\Users\stapi\AppData\Local\Temp\cc6lLBEI.s:1091   .text.hostapd_wpa_auth_disconnect:0000000000000060 .L0 
C:\Users\stapi\AppData\Local\Temp\cc6lLBEI.s:1092   .text.hostapd_wpa_auth_disconnect:0000000000000060 .L0 
C:\Users\stapi\AppData\Local\Temp\cc6lLBEI.s:1093   .text.hostapd_wpa_auth_disconnect:0000000000000060 .L0 
C:\Users\stapi\AppData\Local\Temp\cc6lLBEI.s:1099   .text.hostapd_wpa_auth_conf.constprop.0:0000000000000000 hostapd_wpa_auth_conf.constprop.0
C:\Users\stapi\AppData\Local\Temp\cc6lLBEI.s:1102   .text.hostapd_wpa_auth_conf.constprop.0:0000000000000000 .L0 
C:\Users\stapi\AppData\Local\Temp\cc6lLBEI.s:1104   .text.hostapd_wpa_auth_conf.constprop.0:0000000000000000 .L0 
C:\Users\stapi\AppData\Local\Temp\cc6lLBEI.s:1105   .text.hostapd_wpa_auth_conf.constprop.0:0000000000000008 .L0 
C:\Users\stapi\AppData\Local\Temp\cc6lLBEI.s:1106   .text.hostapd_wpa_auth_conf.constprop.0:0000000000000008 .L0 
C:\Users\stapi\AppData\Local\Temp\cc6lLBEI.s:1107   .text.hostapd_wpa_auth_conf.constprop.0:0000000000000008 .L0 
C:\Users\stapi\AppData\Local\Temp\cc6lLBEI.s:1108   .text.hostapd_wpa_auth_conf.constprop.0:0000000000000008 .L0 
C:\Users\stapi\AppData\Local\Temp\cc6lLBEI.s:1111   .text.hostapd_wpa_auth_conf.constprop.0:0000000000000008 .L0 
C:\Users\stapi\AppData\Local\Temp\cc6lLBEI.s:1112   .text.hostapd_wpa_auth_conf.constprop.0:0000000000000008 .L0 
C:\Users\stapi\AppData\Local\Temp\cc6lLBEI.s:1113   .text.hostapd_wpa_auth_conf.constprop.0:0000000000000008 .L0 
C:\Users\stapi\AppData\Local\Temp\cc6lLBEI.s:1116   .text.hostapd_wpa_auth_conf.constprop.0:000000000000000c .L0 
C:\Users\stapi\AppData\Local\Temp\cc6lLBEI.s:1124   .text.hostapd_wpa_auth_conf.constprop.0:000000000000001c .L0 
C:\Users\stapi\AppData\Local\Temp\cc6lLBEI.s:1125   .text.hostapd_wpa_auth_conf.constprop.0:000000000000001c .L0 
C:\Users\stapi\AppData\Local\Temp\cc6lLBEI.s:1128   .text.hostapd_wpa_auth_conf.constprop.0:0000000000000022 .L0 
C:\Users\stapi\AppData\Local\Temp\cc6lLBEI.s:1130   .text.hostapd_wpa_auth_conf.constprop.0:0000000000000024 .L0 
C:\Users\stapi\AppData\Local\Temp\cc6lLBEI.s:1132   .text.hostapd_wpa_auth_conf.constprop.0:0000000000000026 .L0 
C:\Users\stapi\AppData\Local\Temp\cc6lLBEI.s:1133   .text.hostapd_wpa_auth_conf.constprop.0:0000000000000026 .L0 
C:\Users\stapi\AppData\Local\Temp\cc6lLBEI.s:1136   .text.hostapd_wpa_auth_conf.constprop.0:000000000000002a .L0 
C:\Users\stapi\AppData\Local\Temp\cc6lLBEI.s:1137   .text.hostapd_wpa_auth_conf.constprop.0:000000000000002a .L0 
C:\Users\stapi\AppData\Local\Temp\cc6lLBEI.s:1140   .text.hostapd_wpa_auth_conf.constprop.0:000000000000002e .L0 
C:\Users\stapi\AppData\Local\Temp\cc6lLBEI.s:1141   .text.hostapd_wpa_auth_conf.constprop.0:000000000000002e .L0 
C:\Users\stapi\AppData\Local\Temp\cc6lLBEI.s:1144   .text.hostapd_wpa_auth_conf.constprop.0:0000000000000032 .L0 
C:\Users\stapi\AppData\Local\Temp\cc6lLBEI.s:1145   .text.hostapd_wpa_auth_conf.constprop.0:0000000000000032 .L0 
C:\Users\stapi\AppData\Local\Temp\cc6lLBEI.s:1148   .text.hostapd_wpa_auth_conf.constprop.0:0000000000000036 .L0 
C:\Users\stapi\AppData\Local\Temp\cc6lLBEI.s:1149   .text.hostapd_wpa_auth_conf.constprop.0:0000000000000036 .L0 
C:\Users\stapi\AppData\Local\Temp\cc6lLBEI.s:1152   .text.hostapd_wpa_auth_conf.constprop.0:000000000000003a .L0 
C:\Users\stapi\AppData\Local\Temp\cc6lLBEI.s:1153   .text.hostapd_wpa_auth_conf.constprop.0:000000000000003a .L0 
C:\Users\stapi\AppData\Local\Temp\cc6lLBEI.s:1156   .text.hostapd_wpa_auth_conf.constprop.0:000000000000003e .L0 
C:\Users\stapi\AppData\Local\Temp\cc6lLBEI.s:1157   .text.hostapd_wpa_auth_conf.constprop.0:000000000000003e .L0 
C:\Users\stapi\AppData\Local\Temp\cc6lLBEI.s:1161   .text.hostapd_wpa_auth_conf.constprop.0:0000000000000046 .L0 
C:\Users\stapi\AppData\Local\Temp\cc6lLBEI.s:1162   .text.hostapd_wpa_auth_conf.constprop.0:0000000000000046 .L0 
C:\Users\stapi\AppData\Local\Temp\cc6lLBEI.s:1165   .text.hostapd_wpa_auth_conf.constprop.0:000000000000004a .L0 
C:\Users\stapi\AppData\Local\Temp\cc6lLBEI.s:1166   .text.hostapd_wpa_auth_conf.constprop.0:000000000000004a .L0 
C:\Users\stapi\AppData\Local\Temp\cc6lLBEI.s:1169   .text.hostapd_wpa_auth_conf.constprop.0:000000000000004e .L0 
C:\Users\stapi\AppData\Local\Temp\cc6lLBEI.s:1170   .text.hostapd_wpa_auth_conf.constprop.0:000000000000004e .L0 
C:\Users\stapi\AppData\Local\Temp\cc6lLBEI.s:1173   .text.hostapd_wpa_auth_conf.constprop.0:0000000000000052 .L0 
C:\Users\stapi\AppData\Local\Temp\cc6lLBEI.s:1174   .text.hostapd_wpa_auth_conf.constprop.0:0000000000000052 .L0 
C:\Users\stapi\AppData\Local\Temp\cc6lLBEI.s:1177   .text.hostapd_wpa_auth_conf.constprop.0:0000000000000056 .L0 
C:\Users\stapi\AppData\Local\Temp\cc6lLBEI.s:1178   .text.hostapd_wpa_auth_conf.constprop.0:0000000000000056 .L0 
C:\Users\stapi\AppData\Local\Temp\cc6lLBEI.s:1180   .text.hostapd_wpa_auth_conf.constprop.0:0000000000000058 .L0 
C:\Users\stapi\AppData\Local\Temp\cc6lLBEI.s:1182   .text.hostapd_wpa_auth_conf.constprop.0:000000000000005a .L0 
C:\Users\stapi\AppData\Local\Temp\cc6lLBEI.s:1184   .text.hostapd_wpa_auth_conf.constprop.0:000000000000005c .L0 
C:\Users\stapi\AppData\Local\Temp\cc6lLBEI.s:1185   .text.hostapd_wpa_auth_conf.constprop.0:000000000000005c .L0 
C:\Users\stapi\AppData\Local\Temp\cc6lLBEI.s:1187   .text.hostapd_wpa_auth_conf.constprop.0:000000000000005e .L0 
C:\Users\stapi\AppData\Local\Temp\cc6lLBEI.s:1188   .text.hostapd_wpa_auth_conf.constprop.0:000000000000005e .L0 
C:\Users\stapi\AppData\Local\Temp\cc6lLBEI.s:1191   .text.hostapd_wpa_auth_conf.constprop.0:0000000000000062 .L0 
C:\Users\stapi\AppData\Local\Temp\cc6lLBEI.s:1192   .text.hostapd_wpa_auth_conf.constprop.0:0000000000000062 .L0 
C:\Users\stapi\AppData\Local\Temp\cc6lLBEI.s:1196   .text.hostapd_wpa_auth_conf.constprop.0:000000000000006a .L0 
C:\Users\stapi\AppData\Local\Temp\cc6lLBEI.s:1197   .text.hostapd_wpa_auth_conf.constprop.0:000000000000006a .L0 
C:\Users\stapi\AppData\Local\Temp\cc6lLBEI.s:1200   .text.hostapd_wpa_auth_conf.constprop.0:000000000000006e .L0 
C:\Users\stapi\AppData\Local\Temp\cc6lLBEI.s:1201   .text.hostapd_wpa_auth_conf.constprop.0:000000000000006e .L0 
C:\Users\stapi\AppData\Local\Temp\cc6lLBEI.s:1203   .text.hostapd_wpa_auth_conf.constprop.0:0000000000000070 .L0 
C:\Users\stapi\AppData\Local\Temp\cc6lLBEI.s:1205   .text.hostapd_wpa_auth_conf.constprop.0:0000000000000072 .L0 
C:\Users\stapi\AppData\Local\Temp\cc6lLBEI.s:1207   .text.hostapd_wpa_auth_conf.constprop.0:0000000000000074 .L0 
C:\Users\stapi\AppData\Local\Temp\cc6lLBEI.s:1208   .text.hostapd_wpa_auth_conf.constprop.0:0000000000000074 .L0 
C:\Users\stapi\AppData\Local\Temp\cc6lLBEI.s:1210   .text.hostapd_wpa_auth_conf.constprop.0:0000000000000076 .L0 
C:\Users\stapi\AppData\Local\Temp\cc6lLBEI.s:1211   .text.hostapd_wpa_auth_conf.constprop.0:0000000000000076 .L0 
C:\Users\stapi\AppData\Local\Temp\cc6lLBEI.s:1214   .text.hostapd_wpa_auth_conf.constprop.0:000000000000007a .L0 
C:\Users\stapi\AppData\Local\Temp\cc6lLBEI.s:1215   .text.hostapd_wpa_auth_conf.constprop.0:000000000000007a .L0 
C:\Users\stapi\AppData\Local\Temp\cc6lLBEI.s:1217   .text.hostapd_wpa_auth_conf.constprop.0:000000000000007c .L0 
C:\Users\stapi\AppData\Local\Temp\cc6lLBEI.s:1219   .text.hostapd_wpa_auth_conf.constprop.0:000000000000007e .L0 
C:\Users\stapi\AppData\Local\Temp\cc6lLBEI.s:1221   .text.hostapd_wpa_auth_conf.constprop.0:0000000000000080 .L0 
C:\Users\stapi\AppData\Local\Temp\cc6lLBEI.s:1222   .text.hostapd_wpa_auth_conf.constprop.0:0000000000000080 .L0 
C:\Users\stapi\AppData\Local\Temp\cc6lLBEI.s:1224   .text.hostapd_wpa_auth_conf.constprop.0:0000000000000082 .L0 
C:\Users\stapi\AppData\Local\Temp\cc6lLBEI.s:1225   .text.hostapd_wpa_auth_conf.constprop.0:0000000000000082 .L0 
C:\Users\stapi\AppData\Local\Temp\cc6lLBEI.s:1228   .text.hostapd_wpa_auth_conf.constprop.0:0000000000000088 .L0 
C:\Users\stapi\AppData\Local\Temp\cc6lLBEI.s:1230   .text.hostapd_wpa_auth_conf.constprop.0:000000000000008a .L0 
C:\Users\stapi\AppData\Local\Temp\cc6lLBEI.s:1232   .text.hostapd_wpa_auth_conf.constprop.0:000000000000008c .L0 
C:\Users\stapi\AppData\Local\Temp\cc6lLBEI.s:1233   .text.hostapd_wpa_auth_conf.constprop.0:000000000000008c .L0 
C:\Users\stapi\AppData\Local\Temp\cc6lLBEI.s:1235   .text.hostapd_wpa_auth_conf.constprop.0:0000000000000090 .L0 
C:\Users\stapi\AppData\Local\Temp\cc6lLBEI.s:1236   .text.hostapd_wpa_auth_conf.constprop.0:0000000000000090 .L0 
C:\Users\stapi\AppData\Local\Temp\cc6lLBEI.s:1239   .text.hostapd_wpa_auth_conf.constprop.0:0000000000000098 .L0 
C:\Users\stapi\AppData\Local\Temp\cc6lLBEI.s:1240   .text.hostapd_wpa_auth_conf.constprop.0:0000000000000098 .L0 
C:\Users\stapi\AppData\Local\Temp\cc6lLBEI.s:1243   .text.hostapd_wpa_auth_conf.constprop.0:000000000000009e .L0 
C:\Users\stapi\AppData\Local\Temp\cc6lLBEI.s:1247   .text.hostapd_wpa_auth_conf.constprop.0:00000000000000a8 .L0 
C:\Users\stapi\AppData\Local\Temp\cc6lLBEI.s:1248   .text.hostapd_wpa_auth_conf.constprop.0:00000000000000a8 .L0 
C:\Users\stapi\AppData\Local\Temp\cc6lLBEI.s:1251   .text.hostapd_wpa_auth_conf.constprop.0:00000000000000aa .L0 
C:\Users\stapi\AppData\Local\Temp\cc6lLBEI.s:1252   .text.hostapd_wpa_auth_conf.constprop.0:00000000000000aa .L0 
C:\Users\stapi\AppData\Local\Temp\cc6lLBEI.s:1256   .text.hostapd_wpa_auth_conf.constprop.0:00000000000000b0 .L0 
C:\Users\stapi\AppData\Local\Temp\cc6lLBEI.s:1257   .text.hostapd_wpa_auth_conf.constprop.0:00000000000000b0 .L0 
C:\Users\stapi\AppData\Local\Temp\cc6lLBEI.s:1260   .text.hostapd_wpa_auth_conf.constprop.0:00000000000000b6 .L0 
C:\Users\stapi\AppData\Local\Temp\cc6lLBEI.s:1264   .text.hostapd_wpa_auth_conf.constprop.0:00000000000000bc .L0 
C:\Users\stapi\AppData\Local\Temp\cc6lLBEI.s:1265   .text.hostapd_wpa_auth_conf.constprop.0:00000000000000bc .L0 
C:\Users\stapi\AppData\Local\Temp\cc6lLBEI.s:1268   .text.hostapd_wpa_auth_conf.constprop.0:00000000000000c4 .L0 
C:\Users\stapi\AppData\Local\Temp\cc6lLBEI.s:1269   .text.hostapd_wpa_auth_conf.constprop.0:00000000000000cc .L0 
C:\Users\stapi\AppData\Local\Temp\cc6lLBEI.s:1270   .text.hostapd_wpa_auth_conf.constprop.0:00000000000000cc .L0 
C:\Users\stapi\AppData\Local\Temp\cc6lLBEI.s:1271   .text.hostapd_wpa_auth_conf.constprop.0:00000000000000cc .L0 
C:\Users\stapi\AppData\Local\Temp\cc6lLBEI.s:1272   .text.hostapd_wpa_auth_conf.constprop.0:00000000000000cc .L0 
C:\Users\stapi\AppData\Local\Temp\cc6lLBEI.s:1273   .text.hostapd_wpa_auth_conf.constprop.0:00000000000000cc .L0 
C:\Users\stapi\AppData\Local\Temp\cc6lLBEI.s:1296   .text.hostapd_setup_wpa:0000000000000000 hostapd_setup_wpa
C:\Users\stapi\AppData\Local\Temp\cc6lLBEI.s:1299   .text.hostapd_setup_wpa:0000000000000000 .L0 
C:\Users\stapi\AppData\Local\Temp\cc6lLBEI.s:1301   .text.hostapd_setup_wpa:0000000000000000 .L0 
C:\Users\stapi\AppData\Local\Temp\cc6lLBEI.s:1302   .text.hostapd_setup_wpa:0000000000000008 .L0 
C:\Users\stapi\AppData\Local\Temp\cc6lLBEI.s:1303   .text.hostapd_setup_wpa:0000000000000008 .L0 
C:\Users\stapi\AppData\Local\Temp\cc6lLBEI.s:1304   .text.hostapd_setup_wpa:0000000000000008 .L0 
C:\Users\stapi\AppData\Local\Temp\cc6lLBEI.s:1306   .text.hostapd_setup_wpa:0000000000000008 .L0 
C:\Users\stapi\AppData\Local\Temp\cc6lLBEI.s:1307   .text.hostapd_setup_wpa:0000000000000008 .L0 
C:\Users\stapi\AppData\Local\Temp\cc6lLBEI.s:1308   .text.hostapd_setup_wpa:0000000000000008 .L0 
C:\Users\stapi\AppData\Local\Temp\cc6lLBEI.s:1309   .text.hostapd_setup_wpa:0000000000000008 .L0 
C:\Users\stapi\AppData\Local\Temp\cc6lLBEI.s:1310   .text.hostapd_setup_wpa:0000000000000008 .L0 
C:\Users\stapi\AppData\Local\Temp\cc6lLBEI.s:1311   .text.hostapd_setup_wpa:0000000000000008 .L0 
C:\Users\stapi\AppData\Local\Temp\cc6lLBEI.s:1313   .text.hostapd_setup_wpa:000000000000000a .L0 
C:\Users\stapi\AppData\Local\Temp\cc6lLBEI.s:1316   .text.hostapd_setup_wpa:000000000000000c .L0 
C:\Users\stapi\AppData\Local\Temp\cc6lLBEI.s:1317   .text.hostapd_setup_wpa:000000000000000e .L0 
C:\Users\stapi\AppData\Local\Temp\cc6lLBEI.s:1319   .text.hostapd_setup_wpa:000000000000000e .L0 
C:\Users\stapi\AppData\Local\Temp\cc6lLBEI.s:1323   .text.hostapd_setup_wpa:0000000000000018 .L0 
C:\Users\stapi\AppData\Local\Temp\cc6lLBEI.s:1324   .text.hostapd_setup_wpa:0000000000000018 .L0 
C:\Users\stapi\AppData\Local\Temp\cc6lLBEI.s:1326   .text.hostapd_setup_wpa:000000000000001a .L0 
C:\Users\stapi\AppData\Local\Temp\cc6lLBEI.s:1328   .text.hostapd_setup_wpa:000000000000001e .L0 
C:\Users\stapi\AppData\Local\Temp\cc6lLBEI.s:1331   .text.hostapd_setup_wpa:0000000000000026 .L0 
C:\Users\stapi\AppData\Local\Temp\cc6lLBEI.s:1333   .text.hostapd_setup_wpa:0000000000000028 .L0 
C:\Users\stapi\AppData\Local\Temp\cc6lLBEI.s:1335   .text.hostapd_setup_wpa:000000000000002a .L0 
C:\Users\stapi\AppData\Local\Temp\cc6lLBEI.s:1336   .text.hostapd_setup_wpa:000000000000002a .L0 
C:\Users\stapi\AppData\Local\Temp\cc6lLBEI.s:1338   .text.hostapd_setup_wpa:000000000000002c .L0 
C:\Users\stapi\AppData\Local\Temp\cc6lLBEI.s:1340   .text.hostapd_setup_wpa:000000000000002e .L0 
C:\Users\stapi\AppData\Local\Temp\cc6lLBEI.s:1341   .text.hostapd_setup_wpa:000000000000002e .L0 
C:\Users\stapi\AppData\Local\Temp\cc6lLBEI.s:1345   .text.hostapd_setup_wpa:0000000000000032 .L0 
C:\Users\stapi\AppData\Local\Temp\cc6lLBEI.s:1346   .text.hostapd_setup_wpa:0000000000000032 .L0 
C:\Users\stapi\AppData\Local\Temp\cc6lLBEI.s:1349   .text.hostapd_setup_wpa:0000000000000038 .L0 
C:\Users\stapi\AppData\Local\Temp\cc6lLBEI.s:1351   .text.hostapd_setup_wpa:000000000000003a .L0 
C:\Users\stapi\AppData\Local\Temp\cc6lLBEI.s:1352   .text.hostapd_setup_wpa:000000000000003a .L0 
C:\Users\stapi\AppData\Local\Temp\cc6lLBEI.s:1356   .text.hostapd_setup_wpa:000000000000003e .L0 
C:\Users\stapi\AppData\Local\Temp\cc6lLBEI.s:1357   .text.hostapd_setup_wpa:000000000000003e .L0 
C:\Users\stapi\AppData\Local\Temp\cc6lLBEI.s:1359   .text.hostapd_setup_wpa:0000000000000040 .L0 
C:\Users\stapi\AppData\Local\Temp\cc6lLBEI.s:1361   .text.hostapd_setup_wpa:0000000000000042 .L0 
C:\Users\stapi\AppData\Local\Temp\cc6lLBEI.s:1364   .text.hostapd_setup_wpa:0000000000000048 .L0 
C:\Users\stapi\AppData\Local\Temp\cc6lLBEI.s:1367   .text.hostapd_setup_wpa:000000000000004e .L0 
C:\Users\stapi\AppData\Local\Temp\cc6lLBEI.s:1370   .text.hostapd_setup_wpa:0000000000000054 .L0 
C:\Users\stapi\AppData\Local\Temp\cc6lLBEI.s:1373   .text.hostapd_setup_wpa:000000000000005a .L0 
C:\Users\stapi\AppData\Local\Temp\cc6lLBEI.s:1376   .text.hostapd_setup_wpa:000000000000005c .L0 
C:\Users\stapi\AppData\Local\Temp\cc6lLBEI.s:1382   .text.hostapd_setup_wpa:000000000000006e .L0 
C:\Users\stapi\AppData\Local\Temp\cc6lLBEI.s:1383   .text.hostapd_setup_wpa:000000000000006e .L0 
C:\Users\stapi\AppData\Local\Temp\cc6lLBEI.s:1387   .text.hostapd_setup_wpa:0000000000000072 .L0 
C:\Users\stapi\AppData\Local\Temp\cc6lLBEI.s:1388   .text.hostapd_setup_wpa:0000000000000072 .L0 
C:\Users\stapi\AppData\Local\Temp\cc6lLBEI.s:1391   .text.hostapd_setup_wpa:0000000000000076 .L0 
C:\Users\stapi\AppData\Local\Temp\cc6lLBEI.s:1393   .text.hostapd_setup_wpa:0000000000000078 .L0 
C:\Users\stapi\AppData\Local\Temp\cc6lLBEI.s:1396   .text.hostapd_setup_wpa:0000000000000080 .L0 
C:\Users\stapi\AppData\Local\Temp\cc6lLBEI.s:1404   .text.hostapd_setup_wpa:0000000000000096 .L0 
C:\Users\stapi\AppData\Local\Temp\cc6lLBEI.s:1405   .text.hostapd_setup_wpa:0000000000000096 .L0 
C:\Users\stapi\AppData\Local\Temp\cc6lLBEI.s:1407   .text.hostapd_setup_wpa:0000000000000098 .L0 
C:\Users\stapi\AppData\Local\Temp\cc6lLBEI.s:1411   .text.hostapd_setup_wpa:00000000000000a2 .L0 
C:\Users\stapi\AppData\Local\Temp\cc6lLBEI.s:1413   .text.hostapd_setup_wpa:00000000000000a4 .L0 
C:\Users\stapi\AppData\Local\Temp\cc6lLBEI.s:1414   .text.hostapd_setup_wpa:00000000000000a4 .L0 
C:\Users\stapi\AppData\Local\Temp\cc6lLBEI.s:1417   .text.hostapd_setup_wpa:00000000000000a6 .L0 
C:\Users\stapi\AppData\Local\Temp\cc6lLBEI.s:1418   .text.hostapd_setup_wpa:00000000000000a6 .L0 
C:\Users\stapi\AppData\Local\Temp\cc6lLBEI.s:1419   .text.hostapd_setup_wpa:00000000000000a6 .L0 
C:\Users\stapi\AppData\Local\Temp\cc6lLBEI.s:1420   .text.hostapd_setup_wpa:00000000000000a6 .L0 
C:\Users\stapi\AppData\Local\Temp\cc6lLBEI.s:1422   .text.hostapd_setup_wpa:00000000000000aa .L0 
C:\Users\stapi\AppData\Local\Temp\cc6lLBEI.s:1425   .text.hostapd_setup_wpa:00000000000000b2 .L0 
C:\Users\stapi\AppData\Local\Temp\cc6lLBEI.s:1427   .text.hostapd_setup_wpa:00000000000000b6 .L0 
C:\Users\stapi\AppData\Local\Temp\cc6lLBEI.s:1429   .text.hostapd_setup_wpa:00000000000000b8 .L0 
C:\Users\stapi\AppData\Local\Temp\cc6lLBEI.s:1431   .text.hostapd_setup_wpa:00000000000000bc .L0 
C:\Users\stapi\AppData\Local\Temp\cc6lLBEI.s:1433   .text.hostapd_setup_wpa:00000000000000c0 .L0 
C:\Users\stapi\AppData\Local\Temp\cc6lLBEI.s:1439   .text.hostapd_setup_wpa:00000000000000cc .L0 
C:\Users\stapi\AppData\Local\Temp\cc6lLBEI.s:1441   .text.hostapd_setup_wpa:00000000000000ce .L0 
C:\Users\stapi\AppData\Local\Temp\cc6lLBEI.s:1444   .text.hostapd_setup_wpa:00000000000000d2 .L0 
C:\Users\stapi\AppData\Local\Temp\cc6lLBEI.s:1447   .text.hostapd_setup_wpa:00000000000000d8 .L0 
C:\Users\stapi\AppData\Local\Temp\cc6lLBEI.s:1449   .text.hostapd_setup_wpa:00000000000000dc .L0 
C:\Users\stapi\AppData\Local\Temp\cc6lLBEI.s:1450   .text.hostapd_setup_wpa:00000000000000dc .L0 
C:\Users\stapi\AppData\Local\Temp\cc6lLBEI.s:1453   .text.hostapd_setup_wpa:00000000000000e4 .L0 
C:\Users\stapi\AppData\Local\Temp\cc6lLBEI.s:1455   .text.hostapd_setup_wpa:00000000000000e8 .L0 
C:\Users\stapi\AppData\Local\Temp\cc6lLBEI.s:1456   .text.hostapd_setup_wpa:00000000000000e8 .L0 
C:\Users\stapi\AppData\Local\Temp\cc6lLBEI.s:1458   .text.hostapd_setup_wpa:00000000000000ea .L0 
C:\Users\stapi\AppData\Local\Temp\cc6lLBEI.s:1462   .text.hostapd_setup_wpa:00000000000000f2 .L0 
C:\Users\stapi\AppData\Local\Temp\cc6lLBEI.s:1466   .text.hostapd_setup_wpa:00000000000000fc .L0 
C:\Users\stapi\AppData\Local\Temp\cc6lLBEI.s:1469   .text.hostapd_setup_wpa:00000000000000fe .L0 
C:\Users\stapi\AppData\Local\Temp\cc6lLBEI.s:1470   .text.hostapd_setup_wpa:00000000000000fe .L0 
C:\Users\stapi\AppData\Local\Temp\cc6lLBEI.s:1474   .text.hostapd_setup_wpa:0000000000000102 .L0 
C:\Users\stapi\AppData\Local\Temp\cc6lLBEI.s:1475   .text.hostapd_setup_wpa:0000000000000102 .L0 
C:\Users\stapi\AppData\Local\Temp\cc6lLBEI.s:1480   .text.hostapd_setup_wpa:000000000000010e .L0 
C:\Users\stapi\AppData\Local\Temp\cc6lLBEI.s:1482   .text.hostapd_setup_wpa:0000000000000110 .L0 
C:\Users\stapi\AppData\Local\Temp\cc6lLBEI.s:1490   .text.hostapd_setup_wpa:0000000000000124 .L0 
C:\Users\stapi\AppData\Local\Temp\cc6lLBEI.s:1491   .text.hostapd_setup_wpa:0000000000000124 .L0 
C:\Users\stapi\AppData\Local\Temp\cc6lLBEI.s:1495   .text.hostapd_setup_wpa:0000000000000126 .L0 
C:\Users\stapi\AppData\Local\Temp\cc6lLBEI.s:1496   .text.hostapd_setup_wpa:0000000000000128 .L0 
C:\Users\stapi\AppData\Local\Temp\cc6lLBEI.s:1497   .text.hostapd_setup_wpa:0000000000000128 .L0 
C:\Users\stapi\AppData\Local\Temp\cc6lLBEI.s:1499   .text.hostapd_setup_wpa:0000000000000130 .L0 
C:\Users\stapi\AppData\Local\Temp\cc6lLBEI.s:1500   .text.hostapd_setup_wpa:0000000000000130 .L0 
C:\Users\stapi\AppData\Local\Temp\cc6lLBEI.s:1501   .text.hostapd_setup_wpa:0000000000000130 .L0 
C:\Users\stapi\AppData\Local\Temp\cc6lLBEI.s:1504   .text.hostapd_setup_wpa:0000000000000130 .L0 
C:\Users\stapi\AppData\Local\Temp\cc6lLBEI.s:1506   .text.hostapd_setup_wpa:0000000000000130 .L0 
C:\Users\stapi\AppData\Local\Temp\cc6lLBEI.s:1507   .text.hostapd_setup_wpa:0000000000000130 .L0 
C:\Users\stapi\AppData\Local\Temp\cc6lLBEI.s:1512   .text.hostapd_setup_wpa:000000000000013e .L0 
C:\Users\stapi\AppData\Local\Temp\cc6lLBEI.s:1514   .text.hostapd_setup_wpa:0000000000000140 .L0 
C:\Users\stapi\AppData\Local\Temp\cc6lLBEI.s:1517   .text.hostapd_setup_wpa:0000000000000142 .L0 
C:\Users\stapi\AppData\Local\Temp\cc6lLBEI.s:1518   .text.hostapd_setup_wpa:0000000000000142 .L0 
C:\Users\stapi\AppData\Local\Temp\cc6lLBEI.s:1523   .text.hostapd_setup_wpa:000000000000014c .L0 
C:\Users\stapi\AppData\Local\Temp\cc6lLBEI.s:1525   .text.hostapd_setup_wpa:000000000000014e .L0 
C:\Users\stapi\AppData\Local\Temp\cc6lLBEI.s:1532   .text.hostapd_setup_wpa:0000000000000158 .L0 
C:\Users\stapi\AppData\Local\Temp\cc6lLBEI.s:1533   .text.hostapd_setup_wpa:0000000000000158 .L0 
C:\Users\stapi\AppData\Local\Temp\cc6lLBEI.s:1534   .text.hostapd_setup_wpa:0000000000000158 .L0 
C:\Users\stapi\AppData\Local\Temp\cc6lLBEI.s:1535   .text.hostapd_setup_wpa:0000000000000158 .L0 
C:\Users\stapi\AppData\Local\Temp\cc6lLBEI.s:1539   .text.hostapd_setup_wpa:000000000000015c .L0 
C:\Users\stapi\AppData\Local\Temp\cc6lLBEI.s:1543   .text.hostapd_setup_wpa:0000000000000162 .L0 
C:\Users\stapi\AppData\Local\Temp\cc6lLBEI.s:1544   .text.hostapd_setup_wpa:0000000000000162 .L0 
C:\Users\stapi\AppData\Local\Temp\cc6lLBEI.s:1545   .text.hostapd_setup_wpa:0000000000000162 .L0 
C:\Users\stapi\AppData\Local\Temp\cc6lLBEI.s:1548   .text.hostapd_setup_wpa:000000000000016a .L0 
C:\Users\stapi\AppData\Local\Temp\cc6lLBEI.s:1555   .text.hostapd_reconfig_wpa:0000000000000000 hostapd_reconfig_wpa
C:\Users\stapi\AppData\Local\Temp\cc6lLBEI.s:1558   .text.hostapd_reconfig_wpa:0000000000000000 .L0 
C:\Users\stapi\AppData\Local\Temp\cc6lLBEI.s:1560   .text.hostapd_reconfig_wpa:0000000000000000 .L0 
C:\Users\stapi\AppData\Local\Temp\cc6lLBEI.s:1561   .text.hostapd_reconfig_wpa:0000000000000008 .L0 
C:\Users\stapi\AppData\Local\Temp\cc6lLBEI.s:1562   .text.hostapd_reconfig_wpa:0000000000000008 .L0 
C:\Users\stapi\AppData\Local\Temp\cc6lLBEI.s:1563   .text.hostapd_reconfig_wpa:0000000000000008 .L0 
C:\Users\stapi\AppData\Local\Temp\cc6lLBEI.s:1565   .text.hostapd_reconfig_wpa:0000000000000008 .L0 
C:\Users\stapi\AppData\Local\Temp\cc6lLBEI.s:1566   .text.hostapd_reconfig_wpa:0000000000000008 .L0 
C:\Users\stapi\AppData\Local\Temp\cc6lLBEI.s:1567   .text.hostapd_reconfig_wpa:0000000000000008 .L0 
C:\Users\stapi\AppData\Local\Temp\cc6lLBEI.s:1569   .text.hostapd_reconfig_wpa:000000000000000a .L0 
C:\Users\stapi\AppData\Local\Temp\cc6lLBEI.s:1572   .text.hostapd_reconfig_wpa:000000000000000c .L0 
C:\Users\stapi\AppData\Local\Temp\cc6lLBEI.s:1573   .text.hostapd_reconfig_wpa:000000000000000e .L0 
C:\Users\stapi\AppData\Local\Temp\cc6lLBEI.s:1575   .text.hostapd_reconfig_wpa:000000000000000e .L0 
C:\Users\stapi\AppData\Local\Temp\cc6lLBEI.s:1579   .text.hostapd_reconfig_wpa:0000000000000018 .L0 
C:\Users\stapi\AppData\Local\Temp\cc6lLBEI.s:1584   .text.hostapd_reconfig_wpa:0000000000000026 .L0 
C:\Users\stapi\AppData\Local\Temp\cc6lLBEI.s:1585   .text.hostapd_reconfig_wpa:0000000000000028 .L0 
C:\Users\stapi\AppData\Local\Temp\cc6lLBEI.s:1587   .text.hostapd_reconfig_wpa:0000000000000030 .L0 
C:\Users\stapi\AppData\Local\Temp\cc6lLBEI.s:1588   .text.hostapd_reconfig_wpa:0000000000000030 .L0 
C:\Users\stapi\AppData\Local\Temp\cc6lLBEI.s:1589   .text.hostapd_reconfig_wpa:0000000000000030 .L0 
C:\Users\stapi\AppData\Local\Temp\cc6lLBEI.s:1590   .text.hostapd_reconfig_wpa:0000000000000030 .L0 
C:\Users\stapi\AppData\Local\Temp\cc6lLBEI.s:1607   .text.hostapd_deinit_wpa:0000000000000000 hostapd_deinit_wpa
C:\Users\stapi\AppData\Local\Temp\cc6lLBEI.s:1610   .text.hostapd_deinit_wpa:0000000000000000 .L0 
C:\Users\stapi\AppData\Local\Temp\cc6lLBEI.s:1612   .text.hostapd_deinit_wpa:0000000000000000 .L0 
C:\Users\stapi\AppData\Local\Temp\cc6lLBEI.s:1613   .text.hostapd_deinit_wpa:0000000000000008 .L0 
C:\Users\stapi\AppData\Local\Temp\cc6lLBEI.s:1614   .text.hostapd_deinit_wpa:0000000000000008 .L0 
C:\Users\stapi\AppData\Local\Temp\cc6lLBEI.s:1615   .text.hostapd_deinit_wpa:0000000000000008 .L0 
C:\Users\stapi\AppData\Local\Temp\cc6lLBEI.s:1617   .text.hostapd_deinit_wpa:0000000000000008 .L0 
C:\Users\stapi\AppData\Local\Temp\cc6lLBEI.s:1618   .text.hostapd_deinit_wpa:0000000000000008 .L0 
C:\Users\stapi\AppData\Local\Temp\cc6lLBEI.s:1620   .text.hostapd_deinit_wpa:000000000000000a .L0 
C:\Users\stapi\AppData\Local\Temp\cc6lLBEI.s:1623   .text.hostapd_deinit_wpa:0000000000000012 .L0 
C:\Users\stapi\AppData\Local\Temp\cc6lLBEI.s:1624   .text.hostapd_deinit_wpa:0000000000000012 .L0 
C:\Users\stapi\AppData\Local\Temp\cc6lLBEI.s:1625   .text.hostapd_deinit_wpa:0000000000000012 .L0 
C:\Users\stapi\AppData\Local\Temp\cc6lLBEI.s:1626   .text.hostapd_deinit_wpa:0000000000000012 .L0 
C:\Users\stapi\AppData\Local\Temp\cc6lLBEI.s:1628   .text.hostapd_deinit_wpa:0000000000000014 .L0 
C:\Users\stapi\AppData\Local\Temp\cc6lLBEI.s:1630   .text.hostapd_deinit_wpa:0000000000000018 .L0 
C:\Users\stapi\AppData\Local\Temp\cc6lLBEI.s:1634   .text.hostapd_deinit_wpa:000000000000001e .L0 
C:\Users\stapi\AppData\Local\Temp\cc6lLBEI.s:1635   .text.hostapd_deinit_wpa:000000000000001e .L0 
C:\Users\stapi\AppData\Local\Temp\cc6lLBEI.s:1636   .text.hostapd_deinit_wpa:000000000000001e .L0 
C:\Users\stapi\AppData\Local\Temp\cc6lLBEI.s:1637   .text.hostapd_deinit_wpa:000000000000001e .L0 
C:\Users\stapi\AppData\Local\Temp\cc6lLBEI.s:1639   .text.hostapd_deinit_wpa:0000000000000020 .L0 
C:\Users\stapi\AppData\Local\Temp\cc6lLBEI.s:1642   .text.hostapd_deinit_wpa:0000000000000028 .L0 
C:\Users\stapi\AppData\Local\Temp\cc6lLBEI.s:1643   .text.hostapd_deinit_wpa:0000000000000028 .L0 
C:\Users\stapi\AppData\Local\Temp\cc6lLBEI.s:1645   .text.hostapd_deinit_wpa:000000000000002c .L0 
C:\Users\stapi\AppData\Local\Temp\cc6lLBEI.s:1647   .text.hostapd_deinit_wpa:0000000000000030 .L0 
C:\Users\stapi\AppData\Local\Temp\cc6lLBEI.s:1648   .text.hostapd_deinit_wpa:0000000000000030 .L0 
C:\Users\stapi\AppData\Local\Temp\cc6lLBEI.s:1650   .text.hostapd_deinit_wpa:0000000000000032 .L0 
C:\Users\stapi\AppData\Local\Temp\cc6lLBEI.s:1655   .text.hostapd_deinit_wpa:000000000000003e .L0 
C:\Users\stapi\AppData\Local\Temp\cc6lLBEI.s:1657   .text.hostapd_deinit_wpa:0000000000000040 .L0 
C:\Users\stapi\AppData\Local\Temp\cc6lLBEI.s:1665   .text.hostapd_deinit_wpa:0000000000000054 .L0 
C:\Users\stapi\AppData\Local\Temp\cc6lLBEI.s:1666   .text.hostapd_deinit_wpa:0000000000000054 .L0 
C:\Users\stapi\AppData\Local\Temp\cc6lLBEI.s:1669   .text.hostapd_deinit_wpa:000000000000005a .L0 
C:\Users\stapi\AppData\Local\Temp\cc6lLBEI.s:1676   .text.hostapd_deinit_wpa:000000000000006e .L0 
C:\Users\stapi\AppData\Local\Temp\cc6lLBEI.s:1678   .text.hostapd_deinit_wpa:0000000000000070 .L0 
C:\Users\stapi\AppData\Local\Temp\cc6lLBEI.s:1686   .text.hostapd_deinit_wpa:0000000000000084 .L0 
C:\Users\stapi\AppData\Local\Temp\cc6lLBEI.s:1687   .text.hostapd_deinit_wpa:000000000000008c .L0 
C:\Users\stapi\AppData\Local\Temp\cc6lLBEI.s:1688   .text.hostapd_deinit_wpa:000000000000008c .L0 
C:\Users\stapi\AppData\Local\Temp\cc6lLBEI.s:1689   .text.hostapd_deinit_wpa:000000000000008c .L0 
C:\Users\stapi\AppData\Local\Temp\cc6lLBEI.s:1690   .text.hostapd_deinit_wpa:000000000000008c .L0 
C:\Users\stapi\AppData\Local\Temp\cc6lLBEI.s:1695   .rodata.__func__.0:0000000000000000 .LANCHOR0
C:\Users\stapi\AppData\Local\Temp\cc6lLBEI.s:1698   .rodata.__func__.0:0000000000000000 __func__.0
C:\Users\stapi\AppData\Local\Temp\cc6lLBEI.s:1702   .rodata.cb.1:0000000000000000 .LANCHOR1
C:\Users\stapi\AppData\Local\Temp\cc6lLBEI.s:1705   .rodata.cb.1:0000000000000000 cb.1
C:\Users\stapi\AppData\Local\Temp\cc6lLBEI.s:23     .text.hostapd_wpa_auth_logger:0000000000000002 .L0 
C:\Users\stapi\AppData\Local\Temp\cc6lLBEI.s:89     .text.hostapd_wpa_auth_for_each_sta:000000000000002e .L0 
C:\Users\stapi\AppData\Local\Temp\cc6lLBEI.s:160    .text.wpa_auth_iface_iter:0000000000000040 .L0 
C:\Users\stapi\AppData\Local\Temp\cc6lLBEI.s:226    .text.hostapd_wpa_auth_for_each_auth:0000000000000038 .L0 
C:\Users\stapi\AppData\Local\Temp\cc6lLBEI.s:242    .text.hostapd_wpa_auth_send_oui:0000000000000004 .L0 
C:\Users\stapi\AppData\Local\Temp\cc6lLBEI.s:287    .text.hostapd_channel_info:000000000000001c .L0 
C:\Users\stapi\AppData\Local\Temp\cc6lLBEI.s:303    .text.hostapd_wpa_auth_update_vlan:0000000000000004 .L0 
C:\Users\stapi\AppData\Local\Temp\cc6lLBEI.s:366    .text.hostapd_wpa_auth_get_eapol:0000000000000042 .L0 
C:\Users\stapi\AppData\Local\Temp\cc6lLBEI.s:450    .text.hostapd_wpa_auth_send_eapol:0000000000000054 .L0 
C:\Users\stapi\AppData\Local\Temp\cc6lLBEI.s:496    .text.hostapd_wpa_auth_psk_failure_report:0000000000000044 .L0 
C:\Users\stapi\AppData\Local\Temp\cc6lLBEI.s:610    .text.hostapd_wpa_auth_send_ether:00000000000000a0 .L0 
C:\Users\stapi\AppData\Local\Temp\cc6lLBEI.s:636    .text.hostapd_wpa_auth_get_seqnum:0000000000000012 .L0 
C:\Users\stapi\AppData\Local\Temp\cc6lLBEI.s:731    .text.hostapd_wpa_auth_set_key:0000000000000068 .L0 
C:\Users\stapi\AppData\Local\Temp\cc6lLBEI.s:930    .text.hostapd_wpa_auth_get_psk:00000000000000ea .L0 
C:\Users\stapi\AppData\Local\Temp\cc6lLBEI.s:1011   .text.hostapd_wpa_auth_set_eapol:000000000000005c .L0 
C:\Users\stapi\AppData\Local\Temp\cc6lLBEI.s:1028   .text.hostapd_wpa_auth_mic_failure_report:000000000000000a .L0 
C:\Users\stapi\AppData\Local\Temp\cc6lLBEI.s:1096   .text.hostapd_wpa_auth_disconnect:0000000000000060 .L0 
C:\Users\stapi\AppData\Local\Temp\cc6lLBEI.s:1276   .text.hostapd_wpa_auth_conf.constprop.0:00000000000000cc .L0 
C:\Users\stapi\AppData\Local\Temp\cc6lLBEI.s:1551   .text.hostapd_setup_wpa:000000000000016a .L0 
C:\Users\stapi\AppData\Local\Temp\cc6lLBEI.s:1593   .text.hostapd_reconfig_wpa:0000000000000030 .L0 
C:\Users\stapi\AppData\Local\Temp\cc6lLBEI.s:1693   .text.hostapd_deinit_wpa:000000000000008c .L0 
                     .debug_frame:0000000000000000 .L0 
C:\Users\stapi\AppData\Local\Temp\cc6lLBEI.s:63     .text.hostapd_wpa_auth_for_each_sta:000000000000001a .L7
C:\Users\stapi\AppData\Local\Temp\cc6lLBEI.s:76     .text.hostapd_wpa_auth_for_each_sta:0000000000000024 .L4
C:\Users\stapi\AppData\Local\Temp\cc6lLBEI.s:48     .text.hostapd_wpa_auth_for_each_sta:000000000000000e .L3
C:\Users\stapi\AppData\Local\Temp\cc6lLBEI.s:70     .text.hostapd_wpa_auth_for_each_sta:0000000000000020 .L6
C:\Users\stapi\AppData\Local\Temp\cc6lLBEI.s:54     .text.hostapd_wpa_auth_for_each_sta:0000000000000012 .L2
C:\Users\stapi\AppData\Local\Temp\cc6lLBEI.s:129    .text.wpa_auth_iface_iter:000000000000001e .L15
C:\Users\stapi\AppData\Local\Temp\cc6lLBEI.s:146    .text.wpa_auth_iface_iter:0000000000000030 .L12
C:\Users\stapi\AppData\Local\Temp\cc6lLBEI.s:113    .text.wpa_auth_iface_iter:000000000000000e .L11
C:\Users\stapi\AppData\Local\Temp\cc6lLBEI.s:140    .text.wpa_auth_iface_iter:000000000000002c .L14
C:\Users\stapi\AppData\Local\Temp\cc6lLBEI.s:120    .text.wpa_auth_iface_iter:0000000000000016 .L10
C:\Users\stapi\AppData\Local\Temp\cc6lLBEI.s:214    .text.hostapd_wpa_auth_for_each_auth:0000000000000032 .L20
C:\Users\stapi\AppData\Local\Temp\cc6lLBEI.s:220    .text.hostapd_wpa_auth_for_each_auth:0000000000000036 .L23
C:\Users\stapi\AppData\Local\Temp\cc6lLBEI.s:273    .text.hostapd_channel_info:0000000000000016 .L29
C:\Users\stapi\AppData\Local\Temp\cc6lLBEI.s:279    .text.hostapd_channel_info:000000000000001a .L32
C:\Users\stapi\AppData\Local\Temp\cc6lLBEI.s:358    .text.hostapd_wpa_auth_get_eapol:000000000000003e .L40
C:\Users\stapi\AppData\Local\Temp\cc6lLBEI.s:338    .text.hostapd_wpa_auth_get_eapol:0000000000000026 .L36
C:\Users\stapi\AppData\Local\Temp\cc6lLBEI.s:345    .text.hostapd_wpa_auth_get_eapol:000000000000002e .L38
C:\Users\stapi\AppData\Local\Temp\cc6lLBEI.s:351    .text.hostapd_wpa_auth_get_eapol:0000000000000034 .L39
C:\Users\stapi\AppData\Local\Temp\cc6lLBEI.s:410    .text.hostapd_wpa_auth_send_eapol:000000000000002a .L44
C:\Users\stapi\AppData\Local\Temp\cc6lLBEI.s:435    .text.hostapd_wpa_auth_send_eapol:000000000000004c .L43
C:\Users\stapi\AppData\Local\Temp\cc6lLBEI.s:452    .rodata.hostapd_wpa_auth_psk_failure_report.str1.4:0000000000000000 .LC0
C:\Users\stapi\AppData\Local\Temp\cc6lLBEI.s:541    .text.hostapd_wpa_auth_send_ether:000000000000001a .L55
C:\Users\stapi\AppData\Local\Temp\cc6lLBEI.s:523    .text.hostapd_wpa_auth_send_ether:000000000000000e .L57
C:\Users\stapi\AppData\Local\Temp\cc6lLBEI.s:526    .text.hostapd_wpa_auth_send_ether:0000000000000010 .L54
C:\Users\stapi\AppData\Local\Temp\cc6lLBEI.s:703    .text.hostapd_wpa_auth_set_key:0000000000000046 .L66
C:\Users\stapi\AppData\Local\Temp\cc6lLBEI.s:716    .text.hostapd_wpa_auth_set_key:000000000000005e .L64
C:\Users\stapi\AppData\Local\Temp\cc6lLBEI.s:733    .rodata.hostapd_wpa_auth_get_psk.str1.4:0000000000000000 .LC1
C:\Users\stapi\AppData\Local\Temp\cc6lLBEI.s:776    .text.hostapd_wpa_auth_get_psk:0000000000000024 .L72
C:\Users\stapi\AppData\Local\Temp\cc6lLBEI.s:784    .text.hostapd_wpa_auth_get_psk:0000000000000030 .L73
C:\Users\stapi\AppData\Local\Temp\cc6lLBEI.s:840    .text.hostapd_wpa_auth_get_psk:0000000000000076 .L74
C:\Users\stapi\AppData\Local\Temp\cc6lLBEI.s:824    .text.hostapd_wpa_auth_get_psk:0000000000000054 .L75
C:\Users\stapi\AppData\Local\Temp\cc6lLBEI.s:804    .text.hostapd_wpa_auth_get_psk:0000000000000046 .L76
C:\Users\stapi\AppData\Local\Temp\cc6lLBEI.s:810    .text.hostapd_wpa_auth_get_psk:000000000000004c .L71
C:\Users\stapi\AppData\Local\Temp\cc6lLBEI.s:798    .text.hostapd_wpa_auth_get_psk:0000000000000042 .L112
C:\Users\stapi\AppData\Local\Temp\cc6lLBEI.s:868    .text.hostapd_wpa_auth_get_psk:000000000000009c .L79
C:\Users\stapi\AppData\Local\Temp\cc6lLBEI.s:904    .text.hostapd_wpa_auth_get_psk:00000000000000d4 .L80
C:\Users\stapi\AppData\Local\Temp\cc6lLBEI.s:916    .text.hostapd_wpa_auth_get_psk:00000000000000e2 .L81
C:\Users\stapi\AppData\Local\Temp\cc6lLBEI.s:877    .text.hostapd_wpa_auth_get_psk:000000000000009e .L82
C:\Users\stapi\AppData\Local\Temp\cc6lLBEI.s:984    .text.hostapd_wpa_auth_set_eapol:0000000000000040 .L113
C:\Users\stapi\AppData\Local\Temp\cc6lLBEI.s:996    .text.hostapd_wpa_auth_set_eapol:000000000000004a .L115
C:\Users\stapi\AppData\Local\Temp\cc6lLBEI.s:978    .text.hostapd_wpa_auth_set_eapol:0000000000000034 .L120
C:\Users\stapi\AppData\Local\Temp\cc6lLBEI.s:1030   .rodata.hostapd_wpa_auth_disconnect.str1.4:0000000000000000 .LC2
C:\Users\stapi\AppData\Local\Temp\cc6lLBEI.s:1254   .text.hostapd_wpa_auth_conf.constprop.0:00000000000000b0 .L126
C:\Users\stapi\AppData\Local\Temp\cc6lLBEI.s:1262   .text.hostapd_wpa_auth_conf.constprop.0:00000000000000bc .L127
C:\Users\stapi\AppData\Local\Temp\cc6lLBEI.s:1249   .text.hostapd_wpa_auth_conf.constprop.0:00000000000000aa .L129
C:\Users\stapi\AppData\Local\Temp\cc6lLBEI.s:1278   .rodata.hostapd_setup_wpa.str1.4:0000000000000000 .LC3
C:\Users\stapi\AppData\Local\Temp\cc6lLBEI.s:1281   .rodata.hostapd_setup_wpa.str1.4:0000000000000038 .LC4
C:\Users\stapi\AppData\Local\Temp\cc6lLBEI.s:1284   .rodata.hostapd_setup_wpa.str1.4:0000000000000054 .LC5
C:\Users\stapi\AppData\Local\Temp\cc6lLBEI.s:1287   .rodata.hostapd_setup_wpa.str1.4:0000000000000070 .LC6
C:\Users\stapi\AppData\Local\Temp\cc6lLBEI.s:1290   .rodata.hostapd_setup_wpa.str1.4:00000000000000a0 .LC7
C:\Users\stapi\AppData\Local\Temp\cc6lLBEI.s:1343   .text.hostapd_setup_wpa:0000000000000032 .L131
C:\Users\stapi\AppData\Local\Temp\cc6lLBEI.s:1354   .text.hostapd_setup_wpa:000000000000003e .L133
C:\Users\stapi\AppData\Local\Temp\cc6lLBEI.s:1385   .text.hostapd_setup_wpa:0000000000000072 .L135
C:\Users\stapi\AppData\Local\Temp\cc6lLBEI.s:1374   .text.hostapd_setup_wpa:000000000000005c .L136
C:\Users\stapi\AppData\Local\Temp\cc6lLBEI.s:1467   .text.hostapd_setup_wpa:00000000000000fe .L137
C:\Users\stapi\AppData\Local\Temp\cc6lLBEI.s:1415   .text.hostapd_setup_wpa:00000000000000a6 .L140
C:\Users\stapi\AppData\Local\Temp\cc6lLBEI.s:1472   .text.hostapd_setup_wpa:0000000000000102 .L141
C:\Users\stapi\AppData\Local\Temp\cc6lLBEI.s:1488   .text.hostapd_setup_wpa:0000000000000124 .L156
C:\Users\stapi\AppData\Local\Temp\cc6lLBEI.s:1402   .text.hostapd_setup_wpa:0000000000000096 .L139
C:\Users\stapi\AppData\Local\Temp\cc6lLBEI.s:1503   .text.hostapd_setup_wpa:0000000000000130 .L143
C:\Users\stapi\AppData\Local\Temp\cc6lLBEI.s:1528   .text.hostapd_setup_wpa:0000000000000158 .L144
C:\Users\stapi\AppData\Local\Temp\cc6lLBEI.s:1460   .text.hostapd_setup_wpa:00000000000000f2 .L157
C:\Users\stapi\AppData\Local\Temp\cc6lLBEI.s:1493   .text.hostapd_setup_wpa:0000000000000126 .L130
C:\Users\stapi\AppData\Local\Temp\cc6lLBEI.s:1595   .rodata.hostapd_deinit_wpa.str1.4:0000000000000000 .LC8
C:\Users\stapi\AppData\Local\Temp\cc6lLBEI.s:1598   .rodata.hostapd_deinit_wpa.str1.4:0000000000000034 .LC9
C:\Users\stapi\AppData\Local\Temp\cc6lLBEI.s:1601   .rodata.hostapd_deinit_wpa.str1.4:0000000000000038 .LC10
C:\Users\stapi\AppData\Local\Temp\cc6lLBEI.s:1684   .text.hostapd_deinit_wpa:0000000000000084 .L160
C:\Users\stapi\AppData\Local\Temp\cc6lLBEI.s:1663   .text.hostapd_deinit_wpa:0000000000000054 .L164
C:\Users\stapi\AppData\Local\Temp\cc6lLBEI.s:21254  .debug_abbrev:0000000000000000 .Ldebug_abbrev0
C:\Users\stapi\AppData\Local\Temp\cc6lLBEI.s:26275  .debug_str:0000000000003dd5 .LASF1789
C:\Users\stapi\AppData\Local\Temp\cc6lLBEI.s:25195  .debug_str:0000000000001cf2 .LASF1790
C:\Users\stapi\AppData\Local\Temp\cc6lLBEI.s:27567  .debug_str:0000000000006509 .LASF1791
C:\Users\stapi\AppData\Local\Temp\cc6lLBEI.s:24153  .debug_ranges:0000000000000000 .Ldebug_ranges0
C:\Users\stapi\AppData\Local\Temp\cc6lLBEI.s:24205  .debug_line:0000000000000000 .Ldebug_line0
C:\Users\stapi\AppData\Local\Temp\cc6lLBEI.s:24757  .debug_str:0000000000001030 .LASF1
C:\Users\stapi\AppData\Local\Temp\cc6lLBEI.s:27785  .debug_str:0000000000006c25 .LASF0
C:\Users\stapi\AppData\Local\Temp\cc6lLBEI.s:25691  .debug_str:0000000000002bf1 .LASF2
C:\Users\stapi\AppData\Local\Temp\cc6lLBEI.s:27065  .debug_str:00000000000055de .LASF3
C:\Users\stapi\AppData\Local\Temp\cc6lLBEI.s:24959  .debug_str:000000000000162a .LASF4
C:\Users\stapi\AppData\Local\Temp\cc6lLBEI.s:26007  .debug_str:000000000000357e .LASF5
C:\Users\stapi\AppData\Local\Temp\cc6lLBEI.s:26593  .debug_str:0000000000004868 .LASF6
C:\Users\stapi\AppData\Local\Temp\cc6lLBEI.s:25375  .debug_str:000000000000228a .LASF7
C:\Users\stapi\AppData\Local\Temp\cc6lLBEI.s:25851  .debug_str:0000000000003121 .LASF8
C:\Users\stapi\AppData\Local\Temp\cc6lLBEI.s:26729  .debug_str:0000000000004c2b .LASF9
C:\Users\stapi\AppData\Local\Temp\cc6lLBEI.s:26725  .debug_str:0000000000004c16 .LASF10
C:\Users\stapi\AppData\Local\Temp\cc6lLBEI.s:26225  .debug_str:0000000000003c48 .LASF11
C:\Users\stapi\AppData\Local\Temp\cc6lLBEI.s:24251  .debug_str:0000000000000164 .LASF12
C:\Users\stapi\AppData\Local\Temp\cc6lLBEI.s:24213  .debug_str:0000000000000040 .LASF13
C:\Users\stapi\AppData\Local\Temp\cc6lLBEI.s:27139  .debug_str:0000000000005840 .LASF14
C:\Users\stapi\AppData\Local\Temp\cc6lLBEI.s:27217  .debug_str:0000000000005a8c .LASF15
C:\Users\stapi\AppData\Local\Temp\cc6lLBEI.s:27395  .debug_str:0000000000005fe3 .LASF16
C:\Users\stapi\AppData\Local\Temp\cc6lLBEI.s:27155  .debug_str:00000000000058c2 .LASF17
C:\Users\stapi\AppData\Local\Temp\cc6lLBEI.s:25919  .debug_str:00000000000032ff .LASF18
C:\Users\stapi\AppData\Local\Temp\cc6lLBEI.s:27191  .debug_str:00000000000059cd .LASF19
C:\Users\stapi\AppData\Local\Temp\cc6lLBEI.s:27723  .debug_str:0000000000006a2e .LASF20
C:\Users\stapi\AppData\Local\Temp\cc6lLBEI.s:24487  .debug_str:0000000000000860 .LASF21
C:\Users\stapi\AppData\Local\Temp\cc6lLBEI.s:25419  .debug_str:00000000000023be .LASF22
C:\Users\stapi\AppData\Local\Temp\cc6lLBEI.s:25613  .debug_str:000000000000297c .LASF23
C:\Users\stapi\AppData\Local\Temp\cc6lLBEI.s:25475  .debug_str:000000000000253c .LASF24
C:\Users\stapi\AppData\Local\Temp\cc6lLBEI.s:26107  .debug_str:0000000000003867 .LASF25
C:\Users\stapi\AppData\Local\Temp\cc6lLBEI.s:25137  .debug_str:0000000000001b46 .LASF27
C:\Users\stapi\AppData\Local\Temp\cc6lLBEI.s:24689  .debug_str:0000000000000e1c .LASF29
C:\Users\stapi\AppData\Local\Temp\cc6lLBEI.s:25605  .debug_str:0000000000002943 .LASF26
C:\Users\stapi\AppData\Local\Temp\cc6lLBEI.s:25781  .debug_str:0000000000002eb9 .LASF28
C:\Users\stapi\AppData\Local\Temp\cc6lLBEI.s:27355  .debug_str:0000000000005eaf .LASF30
C:\Users\stapi\AppData\Local\Temp\cc6lLBEI.s:24663  .debug_str:0000000000000d60 .LASF31
C:\Users\stapi\AppData\Local\Temp\cc6lLBEI.s:25331  .debug_str:0000000000002152 .LASF32
C:\Users\stapi\AppData\Local\Temp\cc6lLBEI.s:24717  .debug_str:0000000000000f00 .LASF33
C:\Users\stapi\AppData\Local\Temp\cc6lLBEI.s:25409  .debug_str:0000000000002375 .LASF34
C:\Users\stapi\AppData\Local\Temp\cc6lLBEI.s:24335  .debug_str:000000000000040a .LASF35
C:\Users\stapi\AppData\Local\Temp\cc6lLBEI.s:24679  .debug_str:0000000000000dc7 .LASF36
C:\Users\stapi\AppData\Local\Temp\cc6lLBEI.s:27357  .debug_str:0000000000005eb4 .LASF37
C:\Users\stapi\AppData\Local\Temp\cc6lLBEI.s:27353  .debug_str:0000000000005ea9 .LASF38
C:\Users\stapi\AppData\Local\Temp\cc6lLBEI.s:26561  .debug_str:0000000000004788 .LASF39
C:\Users\stapi\AppData\Local\Temp\cc6lLBEI.s:25985  .debug_str:00000000000034da .LASF40
C:\Users\stapi\AppData\Local\Temp\cc6lLBEI.s:26113  .debug_str:000000000000388e .LASF41
C:\Users\stapi\AppData\Local\Temp\cc6lLBEI.s:26055  .debug_str:00000000000036fa .LASF42
C:\Users\stapi\AppData\Local\Temp\cc6lLBEI.s:25431  .debug_str:00000000000023ff .LASF43
C:\Users\stapi\AppData\Local\Temp\cc6lLBEI.s:26875  .debug_str:0000000000005008 .LASF44
C:\Users\stapi\AppData\Local\Temp\cc6lLBEI.s:27483  .debug_str:00000000000062a5 .LASF87
C:\Users\stapi\AppData\Local\Temp\cc6lLBEI.s:24809  .debug_str:00000000000011ca .LASF45
C:\Users\stapi\AppData\Local\Temp\cc6lLBEI.s:26897  .debug_str:00000000000050a0 .LASF46
C:\Users\stapi\AppData\Local\Temp\cc6lLBEI.s:25937  .debug_str:000000000000338b .LASF47
C:\Users\stapi\AppData\Local\Temp\cc6lLBEI.s:27627  .debug_str:0000000000006730 .LASF48
C:\Users\stapi\AppData\Local\Temp\cc6lLBEI.s:25901  .debug_str:0000000000003262 .LASF49
C:\Users\stapi\AppData\Local\Temp\cc6lLBEI.s:25833  .debug_str:000000000000308d .LASF50
C:\Users\stapi\AppData\Local\Temp\cc6lLBEI.s:27297  .debug_str:0000000000005d01 .LASF51
C:\Users\stapi\AppData\Local\Temp\cc6lLBEI.s:27551  .debug_str:00000000000064a3 .LASF52
C:\Users\stapi\AppData\Local\Temp\cc6lLBEI.s:27173  .debug_str:0000000000005944 .LASF53
C:\Users\stapi\AppData\Local\Temp\cc6lLBEI.s:25443  .debug_str:0000000000002462 .LASF54
C:\Users\stapi\AppData\Local\Temp\cc6lLBEI.s:26863  .debug_str:0000000000004fd0 .LASF55
C:\Users\stapi\AppData\Local\Temp\cc6lLBEI.s:24783  .debug_str:0000000000001109 .LASF56
C:\Users\stapi\AppData\Local\Temp\cc6lLBEI.s:24889  .debug_str:000000000000142b .LASF57
C:\Users\stapi\AppData\Local\Temp\cc6lLBEI.s:26891  .debug_str:0000000000005072 .LASF58
C:\Users\stapi\AppData\Local\Temp\cc6lLBEI.s:26625  .debug_str:0000000000004930 .LASF59
C:\Users\stapi\AppData\Local\Temp\cc6lLBEI.s:24311  .debug_str:000000000000034f .LASF60
C:\Users\stapi\AppData\Local\Temp\cc6lLBEI.s:25763  .debug_str:0000000000002e40 .LASF61
C:\Users\stapi\AppData\Local\Temp\cc6lLBEI.s:27543  .debug_str:0000000000006459 .LASF62
C:\Users\stapi\AppData\Local\Temp\cc6lLBEI.s:24701  .debug_str:0000000000000e6f .LASF63
C:\Users\stapi\AppData\Local\Temp\cc6lLBEI.s:27457  .debug_str:00000000000061f7 .LASF64
C:\Users\stapi\AppData\Local\Temp\cc6lLBEI.s:26955  .debug_str:0000000000005278 .LASF65
C:\Users\stapi\AppData\Local\Temp\cc6lLBEI.s:25927  .debug_str:0000000000003333 .LASF66
C:\Users\stapi\AppData\Local\Temp\cc6lLBEI.s:27055  .debug_str:0000000000005576 .LASF67
C:\Users\stapi\AppData\Local\Temp\cc6lLBEI.s:27391  .debug_str:0000000000005fc8 .LASF68
C:\Users\stapi\AppData\Local\Temp\cc6lLBEI.s:24901  .debug_str:000000000000149a .LASF69
C:\Users\stapi\AppData\Local\Temp\cc6lLBEI.s:27075  .debug_str:0000000000005614 .LASF70
C:\Users\stapi\AppData\Local\Temp\cc6lLBEI.s:24541  .debug_str:00000000000009d6 .LASF71
C:\Users\stapi\AppData\Local\Temp\cc6lLBEI.s:27743  .debug_str:0000000000006abf .LASF72
C:\Users\stapi\AppData\Local\Temp\cc6lLBEI.s:24739  .debug_str:0000000000000fa3 .LASF73
C:\Users\stapi\AppData\Local\Temp\cc6lLBEI.s:25539  .debug_str:0000000000002721 .LASF74
C:\Users\stapi\AppData\Local\Temp\cc6lLBEI.s:25799  .debug_str:0000000000002f4f .LASF75
C:\Users\stapi\AppData\Local\Temp\cc6lLBEI.s:27665  .debug_str:0000000000006871 .LASF76
C:\Users\stapi\AppData\Local\Temp\cc6lLBEI.s:26985  .debug_str:000000000000535d .LASF77
C:\Users\stapi\AppData\Local\Temp\cc6lLBEI.s:24315  .debug_str:0000000000000377 .LASF78
C:\Users\stapi\AppData\Local\Temp\cc6lLBEI.s:26233  .debug_str:0000000000003c7b .LASF79
C:\Users\stapi\AppData\Local\Temp\cc6lLBEI.s:26621  .debug_str:000000000000491f .LASF80
C:\Users\stapi\AppData\Local\Temp\cc6lLBEI.s:26203  .debug_str:0000000000003b91 .LASF81
C:\Users\stapi\AppData\Local\Temp\cc6lLBEI.s:27755  .debug_str:0000000000006b1e .LASF82
C:\Users\stapi\AppData\Local\Temp\cc6lLBEI.s:27539  .debug_str:0000000000006436 .LASF83
C:\Users\stapi\AppData\Local\Temp\cc6lLBEI.s:25713  .debug_str:0000000000002cae .LASF84
C:\Users\stapi\AppData\Local\Temp\cc6lLBEI.s:24469  .debug_str:00000000000007d3 .LASF85
C:\Users\stapi\AppData\Local\Temp\cc6lLBEI.s:26231  .debug_str:0000000000003c69 .LASF86
C:\Users\stapi\AppData\Local\Temp\cc6lLBEI.s:25261  .debug_str:0000000000001f46 .LASF88
C:\Users\stapi\AppData\Local\Temp\cc6lLBEI.s:26283  .debug_str:0000000000003ee6 .LASF89
C:\Users\stapi\AppData\Local\Temp\cc6lLBEI.s:26285  .debug_str:0000000000003ef7 .LASF90
C:\Users\stapi\AppData\Local\Temp\cc6lLBEI.s:26609  .debug_str:00000000000048d6 .LASF91
C:\Users\stapi\AppData\Local\Temp\cc6lLBEI.s:24675  .debug_str:0000000000000db6 .LASF92
C:\Users\stapi\AppData\Local\Temp\cc6lLBEI.s:24759  .debug_str:0000000000001037 .LASF93
C:\Users\stapi\AppData\Local\Temp\cc6lLBEI.s:27359  .debug_str:0000000000005eb9 .LASF113
C:\Users\stapi\AppData\Local\Temp\cc6lLBEI.s:24441  .debug_str:00000000000006f5 .LASF94
C:\Users\stapi\AppData\Local\Temp\cc6lLBEI.s:25835  .debug_str:000000000000309c .LASF95
C:\Users\stapi\AppData\Local\Temp\cc6lLBEI.s:24711  .debug_str:0000000000000ebe .LASF96
C:\Users\stapi\AppData\Local\Temp\cc6lLBEI.s:27421  .debug_str:00000000000060b1 .LASF97
C:\Users\stapi\AppData\Local\Temp\cc6lLBEI.s:25469  .debug_str:0000000000002512 .LASF98
C:\Users\stapi\AppData\Local\Temp\cc6lLBEI.s:25975  .debug_str:0000000000003494 .LASF99
C:\Users\stapi\AppData\Local\Temp\cc6lLBEI.s:25423  .debug_str:00000000000023d4 .LASF100
C:\Users\stapi\AppData\Local\Temp\cc6lLBEI.s:26657  .debug_str:0000000000004a1b .LASF101
C:\Users\stapi\AppData\Local\Temp\cc6lLBEI.s:24997  .debug_str:0000000000001724 .LASF102
C:\Users\stapi\AppData\Local\Temp\cc6lLBEI.s:24801  .debug_str:00000000000011a9 .LASF103
C:\Users\stapi\AppData\Local\Temp\cc6lLBEI.s:24953  .debug_str:00000000000015fc .LASF104
C:\Users\stapi\AppData\Local\Temp\cc6lLBEI.s:25437  .debug_str:0000000000002421 .LASF105
C:\Users\stapi\AppData\Local\Temp\cc6lLBEI.s:27293  .debug_str:0000000000005cdf .LASF106
C:\Users\stapi\AppData\Local\Temp\cc6lLBEI.s:25911  .debug_str:00000000000032c1 .LASF107
C:\Users\stapi\AppData\Local\Temp\cc6lLBEI.s:25077  .debug_str:0000000000001995 .LASF108
C:\Users\stapi\AppData\Local\Temp\cc6lLBEI.s:25887  .debug_str:0000000000003212 .LASF109
C:\Users\stapi\AppData\Local\Temp\cc6lLBEI.s:24831  .debug_str:0000000000001288 .LASF110
C:\Users\stapi\AppData\Local\Temp\cc6lLBEI.s:26469  .debug_str:00000000000044e0 .LASF111
C:\Users\stapi\AppData\Local\Temp\cc6lLBEI.s:26271  .debug_str:0000000000003db8 .LASF112
C:\Users\stapi\AppData\Local\Temp\cc6lLBEI.s:26003  .debug_str:0000000000003562 .LASF131
C:\Users\stapi\AppData\Local\Temp\cc6lLBEI.s:25617  .debug_str:000000000000298f .LASF114
C:\Users\stapi\AppData\Local\Temp\cc6lLBEI.s:26325  .debug_str:0000000000004045 .LASF115
C:\Users\stapi\AppData\Local\Temp\cc6lLBEI.s:26507  .debug_str:000000000000461e .LASF116
C:\Users\stapi\AppData\Local\Temp\cc6lLBEI.s:26611  .debug_str:00000000000048dd .LASF117
C:\Users\stapi\AppData\Local\Temp\cc6lLBEI.s:24837  .debug_str:00000000000012ae .LASF118
C:\Users\stapi\AppData\Local\Temp\cc6lLBEI.s:26199  .debug_str:0000000000003b7f .LASF119
C:\Users\stapi\AppData\Local\Temp\cc6lLBEI.s:25349  .debug_str:00000000000021ca .LASF120
C:\Users\stapi\AppData\Local\Temp\cc6lLBEI.s:25063  .debug_str:0000000000001934 .LASF121
C:\Users\stapi\AppData\Local\Temp\cc6lLBEI.s:26669  .debug_str:0000000000004a77 .LASF122
C:\Users\stapi\AppData\Local\Temp\cc6lLBEI.s:25827  .debug_str:0000000000003054 .LASF123
C:\Users\stapi\AppData\Local\Temp\cc6lLBEI.s:25369  .debug_str:000000000000225c .LASF124
C:\Users\stapi\AppData\Local\Temp\cc6lLBEI.s:26777  .debug_str:0000000000004d8b .LASF125
C:\Users\stapi\AppData\Local\Temp\cc6lLBEI.s:25187  .debug_str:0000000000001ca3 .LASF126
C:\Users\stapi\AppData\Local\Temp\cc6lLBEI.s:26457  .debug_str:0000000000004473 .LASF127
C:\Users\stapi\AppData\Local\Temp\cc6lLBEI.s:27493  .debug_str:00000000000062ff .LASF128
C:\Users\stapi\AppData\Local\Temp\cc6lLBEI.s:27101  .debug_str:00000000000056ed .LASF129
C:\Users\stapi\AppData\Local\Temp\cc6lLBEI.s:27071  .debug_str:00000000000055fd .LASF130
C:\Users\stapi\AppData\Local\Temp\cc6lLBEI.s:25173  .debug_str:0000000000001c4d .LASF132
C:\Users\stapi\AppData\Local\Temp\cc6lLBEI.s:27689  .debug_str:0000000000006935 .LASF133
C:\Users\stapi\AppData\Local\Temp\cc6lLBEI.s:24427  .debug_str:0000000000000698 .LASF134
C:\Users\stapi\AppData\Local\Temp\cc6lLBEI.s:24483  .debug_str:000000000000084d .LASF135
C:\Users\stapi\AppData\Local\Temp\cc6lLBEI.s:25119  .debug_str:0000000000001ad6 .LASF136
C:\Users\stapi\AppData\Local\Temp\cc6lLBEI.s:24985  .debug_str:00000000000016ce .LASF137
C:\Users\stapi\AppData\Local\Temp\cc6lLBEI.s:24327  .debug_str:00000000000003cc .LASF138
C:\Users\stapi\AppData\Local\Temp\cc6lLBEI.s:26949  .debug_str:0000000000005262 .LASF139
C:\Users\stapi\AppData\Local\Temp\cc6lLBEI.s:27057  .debug_str:0000000000005591 .LASF140
C:\Users\stapi\AppData\Local\Temp\cc6lLBEI.s:27701  .debug_str:0000000000006986 .LASF141
C:\Users\stapi\AppData\Local\Temp\cc6lLBEI.s:26867  .debug_str:0000000000004fdb .LASF142
C:\Users\stapi\AppData\Local\Temp\cc6lLBEI.s:26171  .debug_str:0000000000003a6b .LASF143
C:\Users\stapi\AppData\Local\Temp\cc6lLBEI.s:27165  .debug_str:0000000000005917 .LASF144
C:\Users\stapi\AppData\Local\Temp\cc6lLBEI.s:25139  .debug_str:0000000000001b4e .LASF145
C:\Users\stapi\AppData\Local\Temp\cc6lLBEI.s:26731  .debug_str:0000000000004c35 .LASF146
C:\Users\stapi\AppData\Local\Temp\cc6lLBEI.s:24683  .debug_str:0000000000000def .LASF147
C:\Users\stapi\AppData\Local\Temp\cc6lLBEI.s:25229  .debug_str:0000000000001e59 .LASF148
C:\Users\stapi\AppData\Local\Temp\cc6lLBEI.s:24463  .debug_str:000000000000079f .LASF149
C:\Users\stapi\AppData\Local\Temp\cc6lLBEI.s:27335  .debug_str:0000000000005e11 .LASF150
C:\Users\stapi\AppData\Local\Temp\cc6lLBEI.s:26973  .debug_str:00000000000052fe .LASF151
C:\Users\stapi\AppData\Local\Temp\cc6lLBEI.s:27113  .debug_str:000000000000573c .LASF152
C:\Users\stapi\AppData\Local\Temp\cc6lLBEI.s:25599  .debug_str:000000000000290b .LASF153
C:\Users\stapi\AppData\Local\Temp\cc6lLBEI.s:27227  .debug_str:0000000000005ad7 .LASF154
C:\Users\stapi\AppData\Local\Temp\cc6lLBEI.s:26715  .debug_str:0000000000004be3 .LASF155
C:\Users\stapi\AppData\Local\Temp\cc6lLBEI.s:24263  .debug_str:00000000000001ca .LASF156
C:\Users\stapi\AppData\Local\Temp\cc6lLBEI.s:26191  .debug_str:0000000000003b25 .LASF157
C:\Users\stapi\AppData\Local\Temp\cc6lLBEI.s:24705  .debug_str:0000000000000e85 .LASF158
C:\Users\stapi\AppData\Local\Temp\cc6lLBEI.s:25135  .debug_str:0000000000001b36 .LASF159
C:\Users\stapi\AppData\Local\Temp\cc6lLBEI.s:26293  .debug_str:0000000000003f58 .LASF160
C:\Users\stapi\AppData\Local\Temp\cc6lLBEI.s:26295  .debug_str:0000000000003f70 .LASF161
C:\Users\stapi\AppData\Local\Temp\cc6lLBEI.s:26291  .debug_str:0000000000003f40 .LASF162
C:\Users\stapi\AppData\Local\Temp\cc6lLBEI.s:26331  .debug_str:0000000000004089 .LASF163
C:\Users\stapi\AppData\Local\Temp\cc6lLBEI.s:24461  .debug_str:0000000000000785 .LASF164
C:\Users\stapi\AppData\Local\Temp\cc6lLBEI.s:26933  .debug_str:00000000000051e0 .LASF165
C:\Users\stapi\AppData\Local\Temp\cc6lLBEI.s:24839  .debug_str:00000000000012b5 .LASF166
C:\Users\stapi\AppData\Local\Temp\cc6lLBEI.s:25983  .debug_str:00000000000034c9 .LASF167
C:\Users\stapi\AppData\Local\Temp\cc6lLBEI.s:27615  .debug_str:00000000000066d8 .LASF168
C:\Users\stapi\AppData\Local\Temp\cc6lLBEI.s:27527  .debug_str:00000000000063ea .LASF169
C:\Users\stapi\AppData\Local\Temp\cc6lLBEI.s:27643  .debug_str:00000000000067af .LASF170
C:\Users\stapi\AppData\Local\Temp\cc6lLBEI.s:24863  .debug_str:000000000000136f .LASF171
C:\Users\stapi\AppData\Local\Temp\cc6lLBEI.s:27089  .debug_str:000000000000567d .LASF172
C:\Users\stapi\AppData\Local\Temp\cc6lLBEI.s:25645  .debug_str:0000000000002a82 .LASF173
C:\Users\stapi\AppData\Local\Temp\cc6lLBEI.s:27041  .debug_str:0000000000005502 .LASF174
C:\Users\stapi\AppData\Local\Temp\cc6lLBEI.s:25641  .debug_str:0000000000002a5c .LASF175
C:\Users\stapi\AppData\Local\Temp\cc6lLBEI.s:26445  .debug_str:0000000000004420 .LASF176
C:\Users\stapi\AppData\Local\Temp\cc6lLBEI.s:25665  .debug_str:0000000000002b20 .LASF177
C:\Users\stapi\AppData\Local\Temp\cc6lLBEI.s:25285  .debug_str:0000000000001ffc .LASF178
C:\Users\stapi\AppData\Local\Temp\cc6lLBEI.s:25353  .debug_str:00000000000021f1 .LASF179
C:\Users\stapi\AppData\Local\Temp\cc6lLBEI.s:25477  .debug_str:0000000000002542 .LASF180
C:\Users\stapi\AppData\Local\Temp\cc6lLBEI.s:25299  .debug_str:0000000000002078 .LASF181
C:\Users\stapi\AppData\Local\Temp\cc6lLBEI.s:24735  .debug_str:0000000000000f8c .LASF182
C:\Users\stapi\AppData\Local\Temp\cc6lLBEI.s:24653  .debug_str:0000000000000d0a .LASF183
C:\Users\stapi\AppData\Local\Temp\cc6lLBEI.s:26443  .debug_str:0000000000004410 .LASF184
C:\Users\stapi\AppData\Local\Temp\cc6lLBEI.s:26553  .debug_str:000000000000474f .LASF185
C:\Users\stapi\AppData\Local\Temp\cc6lLBEI.s:24795  .debug_str:0000000000001175 .LASF186
C:\Users\stapi\AppData\Local\Temp\cc6lLBEI.s:27129  .debug_str:00000000000057e7 .LASF187
C:\Users\stapi\AppData\Local\Temp\cc6lLBEI.s:25447  .debug_str:0000000000002477 .LASF188
C:\Users\stapi\AppData\Local\Temp\cc6lLBEI.s:27397  .debug_str:0000000000005fe8 .LASF189
C:\Users\stapi\AppData\Local\Temp\cc6lLBEI.s:24623  .debug_str:0000000000000c35 .LASF190
C:\Users\stapi\AppData\Local\Temp\cc6lLBEI.s:25465  .debug_str:00000000000024fb .LASF191
C:\Users\stapi\AppData\Local\Temp\cc6lLBEI.s:25529  .debug_str:00000000000026e3 .LASF192
C:\Users\stapi\AppData\Local\Temp\cc6lLBEI.s:24637  .debug_str:0000000000000cb0 .LASF193
C:\Users\stapi\AppData\Local\Temp\cc6lLBEI.s:27649  .debug_str:00000000000067e8 .LASF194
C:\Users\stapi\AppData\Local\Temp\cc6lLBEI.s:24817  .debug_str:0000000000001205 .LASF195
C:\Users\stapi\AppData\Local\Temp\cc6lLBEI.s:27383  .debug_str:0000000000005f92 .LASF196
C:\Users\stapi\AppData\Local\Temp\cc6lLBEI.s:25145  .debug_str:0000000000001b82 .LASF197
C:\Users\stapi\AppData\Local\Temp\cc6lLBEI.s:27487  .debug_str:00000000000062c7 .LASF198
C:\Users\stapi\AppData\Local\Temp\cc6lLBEI.s:25623  .debug_str:00000000000029c1 .LASF199
C:\Users\stapi\AppData\Local\Temp\cc6lLBEI.s:26327  .debug_str:0000000000004055 .LASF200
C:\Users\stapi\AppData\Local\Temp\cc6lLBEI.s:25709  .debug_str:0000000000002c86 .LASF201
C:\Users\stapi\AppData\Local\Temp\cc6lLBEI.s:27369  .debug_str:0000000000005f1a .LASF202
C:\Users\stapi\AppData\Local\Temp\cc6lLBEI.s:26377  .debug_str:00000000000041f9 .LASF203
C:\Users\stapi\AppData\Local\Temp\cc6lLBEI.s:24481  .debug_str:0000000000000836 .LASF204
C:\Users\stapi\AppData\Local\Temp\cc6lLBEI.s:25873  .debug_str:00000000000031aa .LASF205
C:\Users\stapi\AppData\Local\Temp\cc6lLBEI.s:27753  .debug_str:0000000000006b0c .LASF206
C:\Users\stapi\AppData\Local\Temp\cc6lLBEI.s:26157  .debug_str:00000000000039df .LASF207
C:\Users\stapi\AppData\Local\Temp\cc6lLBEI.s:25729  .debug_str:0000000000002d38 .LASF208
C:\Users\stapi\AppData\Local\Temp\cc6lLBEI.s:27093  .debug_str:00000000000056a7 .LASF209
C:\Users\stapi\AppData\Local\Temp\cc6lLBEI.s:25643  .debug_str:0000000000002a6b .LASF210
C:\Users\stapi\AppData\Local\Temp\cc6lLBEI.s:26845  .debug_str:0000000000004f48 .LASF211
C:\Users\stapi\AppData\Local\Temp\cc6lLBEI.s:24887  .debug_str:0000000000001423 .LASF212
C:\Users\stapi\AppData\Local\Temp\cc6lLBEI.s:25995  .debug_str:0000000000003519 .LASF213
C:\Users\stapi\AppData\Local\Temp\cc6lLBEI.s:25637  .debug_str:0000000000002a32 .LASF214
C:\Users\stapi\AppData\Local\Temp\cc6lLBEI.s:25701  .debug_str:0000000000002c39 .LASF215
C:\Users\stapi\AppData\Local\Temp\cc6lLBEI.s:24467  .debug_str:00000000000007bf .LASF216
C:\Users\stapi\AppData\Local\Temp\cc6lLBEI.s:25801  .debug_str:0000000000002f69 .LASF217
C:\Users\stapi\AppData\Local\Temp\cc6lLBEI.s:25485  .debug_str:000000000000257b .LASF218
C:\Users\stapi\AppData\Local\Temp\cc6lLBEI.s:25551  .debug_str:0000000000002788 .LASF219
C:\Users\stapi\AppData\Local\Temp\cc6lLBEI.s:24615  .debug_str:0000000000000c04 .LASF220
C:\Users\stapi\AppData\Local\Temp\cc6lLBEI.s:27241  .debug_str:0000000000005b39 .LASF221
C:\Users\stapi\AppData\Local\Temp\cc6lLBEI.s:24855  .debug_str:0000000000001328 .LASF222
C:\Users\stapi\AppData\Local\Temp\cc6lLBEI.s:25107  .debug_str:0000000000001a78 .LASF223
C:\Users\stapi\AppData\Local\Temp\cc6lLBEI.s:25771  .debug_str:0000000000002e76 .LASF224
C:\Users\stapi\AppData\Local\Temp\cc6lLBEI.s:27265  .debug_str:0000000000005c06 .LASF225
C:\Users\stapi\AppData\Local\Temp\cc6lLBEI.s:27655  .debug_str:0000000000006821 .LASF226
C:\Users\stapi\AppData\Local\Temp\cc6lLBEI.s:26815  .debug_str:0000000000004e80 .LASF227
C:\Users\stapi\AppData\Local\Temp\cc6lLBEI.s:26905  .debug_str:00000000000050d5 .LASF228
C:\Users\stapi\AppData\Local\Temp\cc6lLBEI.s:26591  .debug_str:0000000000004855 .LASF229
C:\Users\stapi\AppData\Local\Temp\cc6lLBEI.s:27737  .debug_str:0000000000006a99 .LASF230
C:\Users\stapi\AppData\Local\Temp\cc6lLBEI.s:24923  .debug_str:0000000000001545 .LASF231
C:\Users\stapi\AppData\Local\Temp\cc6lLBEI.s:27123  .debug_str:000000000000579d .LASF232
C:\Users\stapi\AppData\Local\Temp\cc6lLBEI.s:27717  .debug_str:0000000000006a0a .LASF233
C:\Users\stapi\AppData\Local\Temp\cc6lLBEI.s:26817  .debug_str:0000000000004e8e .LASF234
C:\Users\stapi\AppData\Local\Temp\cc6lLBEI.s:27511  .debug_str:000000000000636f .LASF235
C:\Users\stapi\AppData\Local\Temp\cc6lLBEI.s:25085  .debug_str:00000000000019d3 .LASF236
C:\Users\stapi\AppData\Local\Temp\cc6lLBEI.s:26629  .debug_str:000000000000494d .LASF237
C:\Users\stapi\AppData\Local\Temp\cc6lLBEI.s:27381  .debug_str:0000000000005f87 .LASF238
C:\Users\stapi\AppData\Local\Temp\cc6lLBEI.s:27583  .debug_str:000000000000660b .LASF239
C:\Users\stapi\AppData\Local\Temp\cc6lLBEI.s:26957  .debug_str:000000000000527f .LASF240
C:\Users\stapi\AppData\Local\Temp\cc6lLBEI.s:27577  .debug_str:00000000000065d4 .LASF241
C:\Users\stapi\AppData\Local\Temp\cc6lLBEI.s:25339  .debug_str:0000000000002181 .LASF242
C:\Users\stapi\AppData\Local\Temp\cc6lLBEI.s:26477  .debug_str:0000000000004529 .LASF243
C:\Users\stapi\AppData\Local\Temp\cc6lLBEI.s:27555  .debug_str:00000000000064bb .LASF244
C:\Users\stapi\AppData\Local\Temp\cc6lLBEI.s:24437  .debug_str:00000000000006da .LASF245
C:\Users\stapi\AppData\Local\Temp\cc6lLBEI.s:24747  .debug_str:0000000000000ff3 .LASF246
C:\Users\stapi\AppData\Local\Temp\cc6lLBEI.s:26959  .debug_str:0000000000005289 .LASF247
C:\Users\stapi\AppData\Local\Temp\cc6lLBEI.s:26071  .debug_str:000000000000376d .LASF248
C:\Users\stapi\AppData\Local\Temp\cc6lLBEI.s:26461  .debug_str:000000000000448c .LASF249
C:\Users\stapi\AppData\Local\Temp\cc6lLBEI.s:25683  .debug_str:0000000000002bb1 .LASF250
C:\Users\stapi\AppData\Local\Temp\cc6lLBEI.s:26711  .debug_str:0000000000004bc8 .LASF251
C:\Users\stapi\AppData\Local\Temp\cc6lLBEI.s:24833  .debug_str:000000000000128e .LASF252
C:\Users\stapi\AppData\Local\Temp\cc6lLBEI.s:27125  .debug_str:00000000000057b2 .LASF253
C:\Users\stapi\AppData\Local\Temp\cc6lLBEI.s:25327  .debug_str:0000000000002133 .LASF254
C:\Users\stapi\AppData\Local\Temp\cc6lLBEI.s:25755  .debug_str:0000000000002dfd .LASF255
C:\Users\stapi\AppData\Local\Temp\cc6lLBEI.s:24389  .debug_str:0000000000000579 .LASF256
C:\Users\stapi\AppData\Local\Temp\cc6lLBEI.s:27445  .debug_str:0000000000006192 .LASF257
C:\Users\stapi\AppData\Local\Temp\cc6lLBEI.s:26245  .debug_str:0000000000003cfd .LASF258
C:\Users\stapi\AppData\Local\Temp\cc6lLBEI.s:26667  .debug_str:0000000000004a67 .LASF259
C:\Users\stapi\AppData\Local\Temp\cc6lLBEI.s:25571  .debug_str:0000000000002842 .LASF260
C:\Users\stapi\AppData\Local\Temp\cc6lLBEI.s:25511  .debug_str:0000000000002647 .LASF261
C:\Users\stapi\AppData\Local\Temp\cc6lLBEI.s:26129  .debug_str:0000000000003923 .LASF262
C:\Users\stapi\AppData\Local\Temp\cc6lLBEI.s:26721  .debug_str:0000000000004c01 .LASF263
C:\Users\stapi\AppData\Local\Temp\cc6lLBEI.s:26009  .debug_str:000000000000358c .LASF264
C:\Users\stapi\AppData\Local\Temp\cc6lLBEI.s:25091  .debug_str:00000000000019f5 .LASF265
C:\Users\stapi\AppData\Local\Temp\cc6lLBEI.s:27309  .debug_str:0000000000005d52 .LASF266
C:\Users\stapi\AppData\Local\Temp\cc6lLBEI.s:25659  .debug_str:0000000000002af5 .LASF267
C:\Users\stapi\AppData\Local\Temp\cc6lLBEI.s:24447  .debug_str:0000000000000729 .LASF268
C:\Users\stapi\AppData\Local\Temp\cc6lLBEI.s:25019  .debug_str:00000000000017c5 .LASF269
C:\Users\stapi\AppData\Local\Temp\cc6lLBEI.s:27795  .debug_str:0000000000006c7a .LASF270
C:\Users\stapi\AppData\Local\Temp\cc6lLBEI.s:26483  .debug_str:0000000000004555 .LASF271
C:\Users\stapi\AppData\Local\Temp\cc6lLBEI.s:24381  .debug_str:000000000000054f .LASF272
C:\Users\stapi\AppData\Local\Temp\cc6lLBEI.s:27079  .debug_str:0000000000005636 .LASF273
C:\Users\stapi\AppData\Local\Temp\cc6lLBEI.s:25865  .debug_str:0000000000003186 .LASF274
C:\Users\stapi\AppData\Local\Temp\cc6lLBEI.s:27211  .debug_str:0000000000005a5d .LASF275
C:\Users\stapi\AppData\Local\Temp\cc6lLBEI.s:25491  .debug_str:000000000000259e .LASF276
C:\Users\stapi\AppData\Local\Temp\cc6lLBEI.s:24385  .debug_str:000000000000056a .LASF277
C:\Users\stapi\AppData\Local\Temp\cc6lLBEI.s:25897  .debug_str:000000000000324a .LASF278
C:\Users\stapi\AppData\Local\Temp\cc6lLBEI.s:24791  .debug_str:0000000000001159 .LASF279
C:\Users\stapi\AppData\Local\Temp\cc6lLBEI.s:27209  .debug_str:0000000000005a4a .LASF280
C:\Users\stapi\AppData\Local\Temp\cc6lLBEI.s:24377  .debug_str:0000000000000543 .LASF281
C:\Users\stapi\AppData\Local\Temp\cc6lLBEI.s:26431  .debug_str:00000000000043b5 .LASF282
C:\Users\stapi\AppData\Local\Temp\cc6lLBEI.s:27109  .debug_str:0000000000005724 .LASF283
C:\Users\stapi\AppData\Local\Temp\cc6lLBEI.s:26951  .debug_str:000000000000526a .LASF284
C:\Users\stapi\AppData\Local\Temp\cc6lLBEI.s:27465  .debug_str:0000000000006223 .LASF285
C:\Users\stapi\AppData\Local\Temp\cc6lLBEI.s:26691  .debug_str:0000000000004b1b .LASF286
C:\Users\stapi\AppData\Local\Temp\cc6lLBEI.s:26701  .debug_str:0000000000004b71 .LASF287
C:\Users\stapi\AppData\Local\Temp\cc6lLBEI.s:27521  .debug_str:00000000000063be .LASF288
C:\Users\stapi\AppData\Local\Temp\cc6lLBEI.s:26097  .debug_str:000000000000381a .LASF289
C:\Users\stapi\AppData\Local\Temp\cc6lLBEI.s:24879  .debug_str:00000000000013f4 .LASF290
C:\Users\stapi\AppData\Local\Temp\cc6lLBEI.s:26313  .debug_str:0000000000003ffb .LASF291
C:\Users\stapi\AppData\Local\Temp\cc6lLBEI.s:26699  .debug_str:0000000000004b5f .LASF292
C:\Users\stapi\AppData\Local\Temp\cc6lLBEI.s:24435  .debug_str:00000000000006ca .LASF293
C:\Users\stapi\AppData\Local\Temp\cc6lLBEI.s:26811  .debug_str:0000000000004e6e .LASF294
C:\Users\stapi\AppData\Local\Temp\cc6lLBEI.s:26039  .debug_str:000000000000366c .LASF295
C:\Users\stapi\AppData\Local\Temp\cc6lLBEI.s:24639  .debug_str:0000000000000cbf .LASF296
C:\Users\stapi\AppData\Local\Temp\cc6lLBEI.s:24219  .debug_str:000000000000006a .LASF297
C:\Users\stapi\AppData\Local\Temp\cc6lLBEI.s:26575  .debug_str:00000000000047df .LASF298
C:\Users\stapi\AppData\Local\Temp\cc6lLBEI.s:24805  .debug_str:00000000000011ba .LASF299
C:\Users\stapi\AppData\Local\Temp\cc6lLBEI.s:27585  .debug_str:0000000000006619 .LASF300
C:\Users\stapi\AppData\Local\Temp\cc6lLBEI.s:25383  .debug_str:00000000000022cc .LASF301
C:\Users\stapi\AppData\Local\Temp\cc6lLBEI.s:25831  .debug_str:0000000000003079 .LASF302
C:\Users\stapi\AppData\Local\Temp\cc6lLBEI.s:27175  .debug_str:000000000000594c .LASF303
C:\Users\stapi\AppData\Local\Temp\cc6lLBEI.s:24233  .debug_str:00000000000000c4 .LASF304
C:\Users\stapi\AppData\Local\Temp\cc6lLBEI.s:24339  .debug_str:0000000000000419 .LASF305
C:\Users\stapi\AppData\Local\Temp\cc6lLBEI.s:26795  .debug_str:0000000000004e00 .LASF306
C:\Users\stapi\AppData\Local\Temp\cc6lLBEI.s:26489  .debug_str:000000000000456b .LASF307
C:\Users\stapi\AppData\Local\Temp\cc6lLBEI.s:27777  .debug_str:0000000000006bdb .LASF308
C:\Users\stapi\AppData\Local\Temp\cc6lLBEI.s:24361  .debug_str:00000000000004bb .LASF309
C:\Users\stapi\AppData\Local\Temp\cc6lLBEI.s:27099  .debug_str:00000000000056d6 .LASF310
C:\Users\stapi\AppData\Local\Temp\cc6lLBEI.s:24891  .debug_str:0000000000001440 .LASF311
C:\Users\stapi\AppData\Local\Temp\cc6lLBEI.s:27281  .debug_str:0000000000005c86 .LASF312
C:\Users\stapi\AppData\Local\Temp\cc6lLBEI.s:24865  .debug_str:0000000000001380 .LASF313
C:\Users\stapi\AppData\Local\Temp\cc6lLBEI.s:24269  .debug_str:00000000000001f5 .LASF314
C:\Users\stapi\AppData\Local\Temp\cc6lLBEI.s:25343  .debug_str:0000000000002198 .LASF315
C:\Users\stapi\AppData\Local\Temp\cc6lLBEI.s:26789  .debug_str:0000000000004de1 .LASF316
C:\Users\stapi\AppData\Local\Temp\cc6lLBEI.s:24859  .debug_str:000000000000134b .LASF317
C:\Users\stapi\AppData\Local\Temp\cc6lLBEI.s:26161  .debug_str:0000000000003a02 .LASF318
C:\Users\stapi\AppData\Local\Temp\cc6lLBEI.s:26189  .debug_str:0000000000003b18 .LASF319
C:\Users\stapi\AppData\Local\Temp\cc6lLBEI.s:24869  .debug_str:000000000000139e .LASF320
C:\Users\stapi\AppData\Local\Temp\cc6lLBEI.s:25575  .debug_str:000000000000285d .LASF321
C:\Users\stapi\AppData\Local\Temp\cc6lLBEI.s:25945  .debug_str:00000000000033c1 .LASF322
C:\Users\stapi\AppData\Local\Temp\cc6lLBEI.s:25021  .debug_str:00000000000017d2 .LASF323
C:\Users\stapi\AppData\Local\Temp\cc6lLBEI.s:27679  .debug_str:00000000000068dc .LASF324
C:\Users\stapi\AppData\Local\Temp\cc6lLBEI.s:26119  .debug_str:00000000000038bf .LASF325
C:\Users\stapi\AppData\Local\Temp\cc6lLBEI.s:26149  .debug_str:00000000000039a9 .LASF326
C:\Users\stapi\AppData\Local\Temp\cc6lLBEI.s:25371  .debug_str:0000000000002265 .LASF327
C:\Users\stapi\AppData\Local\Temp\cc6lLBEI.s:24621  .debug_str:0000000000000c1f .LASF328
C:\Users\stapi\AppData\Local\Temp\cc6lLBEI.s:24583  .debug_str:0000000000000b16 .LASF329
C:\Users\stapi\AppData\Local\Temp\cc6lLBEI.s:24479  .debug_str:0000000000000822 .LASF330
C:\Users\stapi\AppData\Local\Temp\cc6lLBEI.s:24719  .debug_str:0000000000000f05 .LASF331
C:\Users\stapi\AppData\Local\Temp\cc6lLBEI.s:27319  .debug_str:0000000000005d8a .LASF332
C:\Users\stapi\AppData\Local\Temp\cc6lLBEI.s:24645  .debug_str:0000000000000cea .LASF333
C:\Users\stapi\AppData\Local\Temp\cc6lLBEI.s:26013  .debug_str:00000000000035a6 .LASF334
C:\Users\stapi\AppData\Local\Temp\cc6lLBEI.s:26745  .debug_str:0000000000004ca8 .LASF335
C:\Users\stapi\AppData\Local\Temp\cc6lLBEI.s:25197  .debug_str:0000000000001d82 .LASF336
C:\Users\stapi\AppData\Local\Temp\cc6lLBEI.s:24499  .debug_str:00000000000008c5 .LASF337
C:\Users\stapi\AppData\Local\Temp\cc6lLBEI.s:26963  .debug_str:00000000000052ac .LASF338
C:\Users\stapi\AppData\Local\Temp\cc6lLBEI.s:25301  .debug_str:0000000000002089 .LASF339
C:\Users\stapi\AppData\Local\Temp\cc6lLBEI.s:26573  .debug_str:00000000000047d3 .LASF340
C:\Users\stapi\AppData\Local\Temp\cc6lLBEI.s:24289  .debug_str:00000000000002ad .LASF341
C:\Users\stapi\AppData\Local\Temp\cc6lLBEI.s:26427  .debug_str:000000000000439e .LASF342
C:\Users\stapi\AppData\Local\Temp\cc6lLBEI.s:24803  .debug_str:00000000000011af .LASF343
C:\Users\stapi\AppData\Local\Temp\cc6lLBEI.s:26173  .debug_str:0000000000003a77 .LASF344
C:\Users\stapi\AppData\Local\Temp\cc6lLBEI.s:24477  .debug_str:000000000000081b .LASF345
C:\Users\stapi\AppData\Local\Temp\cc6lLBEI.s:27047  .debug_str:000000000000552e .LASF346
C:\Users\stapi\AppData\Local\Temp\cc6lLBEI.s:27401  .debug_str:0000000000005fff .LASF347
C:\Users\stapi\AppData\Local\Temp\cc6lLBEI.s:25811  .debug_str:0000000000002fcb .LASF348
C:\Users\stapi\AppData\Local\Temp\cc6lLBEI.s:25309  .debug_str:00000000000020c7 .LASF349
C:\Users\stapi\AppData\Local\Temp\cc6lLBEI.s:27547  .debug_str:000000000000647c .LASF350
C:\Users\stapi\AppData\Local\Temp\cc6lLBEI.s:27599  .debug_str:0000000000006672 .LASF351
C:\Users\stapi\AppData\Local\Temp\cc6lLBEI.s:24741  .debug_str:0000000000000fc9 .LASF352
C:\Users\stapi\AppData\Local\Temp\cc6lLBEI.s:26347  .debug_str:0000000000004112 .LASF353
C:\Users\stapi\AppData\Local\Temp\cc6lLBEI.s:27735  .debug_str:0000000000006a8d .LASF354
C:\Users\stapi\AppData\Local\Temp\cc6lLBEI.s:26091  .debug_str:00000000000037fc .LASF355
C:\Users\stapi\AppData\Local\Temp\cc6lLBEI.s:26369  .debug_str:00000000000041c7 .LASF356
C:\Users\stapi\AppData\Local\Temp\cc6lLBEI.s:25925  .debug_str:000000000000331e .LASF357
C:\Users\stapi\AppData\Local\Temp\cc6lLBEI.s:25055  .debug_str:00000000000018fd .LASF358
C:\Users\stapi\AppData\Local\Temp\cc6lLBEI.s:26197  .debug_str:0000000000003b66 .LASF359
C:\Users\stapi\AppData\Local\Temp\cc6lLBEI.s:26185  .debug_str:0000000000003aeb .LASF360
C:\Users\stapi\AppData\Local\Temp\cc6lLBEI.s:24787  .debug_str:0000000000001130 .LASF361
C:\Users\stapi\AppData\Local\Temp\cc6lLBEI.s:27059  .debug_str:000000000000559b .LASF362
C:\Users\stapi\AppData\Local\Temp\cc6lLBEI.s:25513  .debug_str:000000000000265b .LASF363
C:\Users\stapi\AppData\Local\Temp\cc6lLBEI.s:26179  .debug_str:0000000000003a9b .LASF364
C:\Users\stapi\AppData\Local\Temp\cc6lLBEI.s:27131  .debug_str:00000000000057fa .LASF365
C:\Users\stapi\AppData\Local\Temp\cc6lLBEI.s:25051  .debug_str:00000000000018cb .LASF366
C:\Users\stapi\AppData\Local\Temp\cc6lLBEI.s:24281  .debug_str:0000000000000251 .LASF367
C:\Users\stapi\AppData\Local\Temp\cc6lLBEI.s:26979  .debug_str:000000000000532d .LASF368
C:\Users\stapi\AppData\Local\Temp\cc6lLBEI.s:26805  .debug_str:0000000000004e48 .LASF369
C:\Users\stapi\AppData\Local\Temp\cc6lLBEI.s:25981  .debug_str:00000000000034b8 .LASF370
C:\Users\stapi\AppData\Local\Temp\cc6lLBEI.s:26355  .debug_str:0000000000004144 .LASF371
C:\Users\stapi\AppData\Local\Temp\cc6lLBEI.s:25439  .debug_str:000000000000242b .LASF372
C:\Users\stapi\AppData\Local\Temp\cc6lLBEI.s:27767  .debug_str:0000000000006b83 .LASF373
C:\Users\stapi\AppData\Local\Temp\cc6lLBEI.s:25321  .debug_str:0000000000002107 .LASF374
C:\Users\stapi\AppData\Local\Temp\cc6lLBEI.s:25621  .debug_str:00000000000029ae .LASF375
C:\Users\stapi\AppData\Local\Temp\cc6lLBEI.s:25955  .debug_str:0000000000003415 .LASF376
C:\Users\stapi\AppData\Local\Temp\cc6lLBEI.s:26533  .debug_str:00000000000046be .LASF377
C:\Users\stapi\AppData\Local\Temp\cc6lLBEI.s:25095  .debug_str:0000000000001a11 .LASF378
C:\Users\stapi\AppData\Local\Temp\cc6lLBEI.s:26887  .debug_str:0000000000005056 .LASF379
C:\Users\stapi\AppData\Local\Temp\cc6lLBEI.s:25181  .debug_str:0000000000001c82 .LASF380
C:\Users\stapi\AppData\Local\Temp\cc6lLBEI.s:25025  .debug_str:00000000000017f6 .LASF381
C:\Users\stapi\AppData\Local\Temp\cc6lLBEI.s:25725  .debug_str:0000000000002d0b .LASF382
C:\Users\stapi\AppData\Local\Temp\cc6lLBEI.s:27409  .debug_str:000000000000603b .LASF383
C:\Users\stapi\AppData\Local\Temp\cc6lLBEI.s:24665  .debug_str:0000000000000d65 .LASF384
C:\Users\stapi\AppData\Local\Temp\cc6lLBEI.s:24491  .debug_str:0000000000000886 .LASF385
C:\Users\stapi\AppData\Local\Temp\cc6lLBEI.s:24557  .debug_str:0000000000000a39 .LASF386
C:\Users\stapi\AppData\Local\Temp\cc6lLBEI.s:25555  .debug_str:00000000000027a4 .LASF387
C:\Users\stapi\AppData\Local\Temp\cc6lLBEI.s:24489  .debug_str:0000000000000869 .LASF388
C:\Users\stapi\AppData\Local\Temp\cc6lLBEI.s:27447  .debug_str:000000000000619b .LASF389
C:\Users\stapi\AppData\Local\Temp\cc6lLBEI.s:24771  .debug_str:00000000000010aa .LASF390
C:\Users\stapi\AppData\Local\Temp\cc6lLBEI.s:26471  .debug_str:00000000000044f4 .LASF391
C:\Users\stapi\AppData\Local\Temp\cc6lLBEI.s:25225  .debug_str:0000000000001e2e .LASF392
C:\Users\stapi\AppData\Local\Temp\cc6lLBEI.s:26943  .debug_str:000000000000522f .LASF393
C:\Users\stapi\AppData\Local\Temp\cc6lLBEI.s:24895  .debug_str:000000000000145e .LASF394
C:\Users\stapi\AppData\Local\Temp\cc6lLBEI.s:25839  .debug_str:00000000000030b2 .LASF395
C:\Users\stapi\AppData\Local\Temp\cc6lLBEI.s:25231  .debug_str:0000000000001e66 .LASF396
C:\Users\stapi\AppData\Local\Temp\cc6lLBEI.s:24755  .debug_str:0000000000001029 .LASF397
C:\Users\stapi\AppData\Local\Temp\cc6lLBEI.s:24423  .debug_str:000000000000067c .LASF398
C:\Users\stapi\AppData\Local\Temp\cc6lLBEI.s:26567  .debug_str:00000000000047aa .LASF399
C:\Users\stapi\AppData\Local\Temp\cc6lLBEI.s:24847  .debug_str:00000000000012f2 .LASF400
C:\Users\stapi\AppData\Local\Temp\cc6lLBEI.s:26037  .debug_str:0000000000003663 .LASF401
C:\Users\stapi\AppData\Local\Temp\cc6lLBEI.s:25361  .debug_str:000000000000222d .LASF402
C:\Users\stapi\AppData\Local\Temp\cc6lLBEI.s:26601  .debug_str:0000000000004892 .LASF403
C:\Users\stapi\AppData\Local\Temp\cc6lLBEI.s:26579  .debug_str:00000000000047f7 .LASF404
C:\Users\stapi\AppData\Local\Temp\cc6lLBEI.s:26027  .debug_str:0000000000003609 .LASF405
C:\Users\stapi\AppData\Local\Temp\cc6lLBEI.s:27317  .debug_str:0000000000005d7f .LASF406
C:\Users\stapi\AppData\Local\Temp\cc6lLBEI.s:26109  .debug_str:0000000000003871 .LASF407
C:\Users\stapi\AppData\Local\Temp\cc6lLBEI.s:24931  .debug_str:000000000000157f .LASF408
C:\Users\stapi\AppData\Local\Temp\cc6lLBEI.s:24575  .debug_str:0000000000000adb .LASF409
C:\Users\stapi\AppData\Local\Temp\cc6lLBEI.s:26659  .debug_str:0000000000004a25 .LASF410
C:\Users\stapi\AppData\Local\Temp\cc6lLBEI.s:24317  .debug_str:0000000000000380 .LASF411
C:\Users\stapi\AppData\Local\Temp\cc6lLBEI.s:24337  .debug_str:0000000000000411 .LASF412
C:\Users\stapi\AppData\Local\Temp\cc6lLBEI.s:24913  .debug_str:00000000000014f0 .LASF413
C:\Users\stapi\AppData\Local\Temp\cc6lLBEI.s:24559  .debug_str:0000000000000a50 .LASF414
C:\Users\stapi\AppData\Local\Temp\cc6lLBEI.s:27029  .debug_str:00000000000054a5 .LASF415
C:\Users\stapi\AppData\Local\Temp\cc6lLBEI.s:25541  .debug_str:0000000000002733 .LASF416
C:\Users\stapi\AppData\Local\Temp\cc6lLBEI.s:24543  .debug_str:00000000000009ea .LASF417
C:\Users\stapi\AppData\Local\Temp\cc6lLBEI.s:26473  .debug_str:0000000000004510 .LASF418
C:\Users\stapi\AppData\Local\Temp\cc6lLBEI.s:27749  .debug_str:0000000000006af7 .LASF419
C:\Users\stapi\AppData\Local\Temp\cc6lLBEI.s:27251  .debug_str:0000000000005b89 .LASF420
C:\Users\stapi\AppData\Local\Temp\cc6lLBEI.s:27043  .debug_str:0000000000005512 .LASF421
C:\Users\stapi\AppData\Local\Temp\cc6lLBEI.s:24737  .debug_str:0000000000000f9b .LASF422
C:\Users\stapi\AppData\Local\Temp\cc6lLBEI.s:25789  .debug_str:0000000000002efa .LASF423
C:\Users\stapi\AppData\Local\Temp\cc6lLBEI.s:26253  .debug_str:0000000000003d38 .LASF424
C:\Users\stapi\AppData\Local\Temp\cc6lLBEI.s:25675  .debug_str:0000000000002b78 .LASF425
C:\Users\stapi\AppData\Local\Temp\cc6lLBEI.s:24321  .debug_str:00000000000003ae .LASF426
C:\Users\stapi\AppData\Local\Temp\cc6lLBEI.s:26807  .debug_str:0000000000004e56 .LASF427
C:\Users\stapi\AppData\Local\Temp\cc6lLBEI.s:26059  .debug_str:0000000000003713 .LASF428
C:\Users\stapi\AppData\Local\Temp\cc6lLBEI.s:26057  .debug_str:0000000000003703 .LASF429
C:\Users\stapi\AppData\Local\Temp\cc6lLBEI.s:25861  .debug_str:0000000000003170 .LASF430
C:\Users\stapi\AppData\Local\Temp\cc6lLBEI.s:24241  .debug_str:0000000000000100 .LASF431
C:\Users\stapi\AppData\Local\Temp\cc6lLBEI.s:26095  .debug_str:000000000000380f .LASF432
C:\Users\stapi\AppData\Local\Temp\cc6lLBEI.s:24885  .debug_str:000000000000141b .LASF433
C:\Users\stapi\AppData\Local\Temp\cc6lLBEI.s:25751  .debug_str:0000000000002de9 .LASF434
C:\Users\stapi\AppData\Local\Temp\cc6lLBEI.s:25147  .debug_str:0000000000001b97 .LASF435
C:\Users\stapi\AppData\Local\Temp\cc6lLBEI.s:24819  .debug_str:0000000000001212 .LASF436
C:\Users\stapi\AppData\Local\Temp\cc6lLBEI.s:24861  .debug_str:000000000000135c .LASF437
C:\Users\stapi\AppData\Local\Temp\cc6lLBEI.s:27231  .debug_str:0000000000005b03 .LASF438
C:\Users\stapi\AppData\Local\Temp\cc6lLBEI.s:25157  .debug_str:0000000000001be6 .LASF439
C:\Users\stapi\AppData\Local\Temp\cc6lLBEI.s:26051  .debug_str:00000000000036d6 .LASF440
C:\Users\stapi\AppData\Local\Temp\cc6lLBEI.s:24807  .debug_str:00000000000011bf .LASF441
C:\Users\stapi\AppData\Local\Temp\cc6lLBEI.s:26965  .debug_str:00000000000052bb .LASF442
C:\Users\stapi\AppData\Local\Temp\cc6lLBEI.s:25045  .debug_str:00000000000018a3 .LASF443
C:\Users\stapi\AppData\Local\Temp\cc6lLBEI.s:25737  .debug_str:0000000000002d77 .LASF444
C:\Users\stapi\AppData\Local\Temp\cc6lLBEI.s:24647  .debug_str:0000000000000cf1 .LASF445
C:\Users\stapi\AppData\Local\Temp\cc6lLBEI.s:25263  .debug_str:0000000000001f55 .LASF446
C:\Users\stapi\AppData\Local\Temp\cc6lLBEI.s:26141  .debug_str:000000000000397d .LASF447
C:\Users\stapi\AppData\Local\Temp\cc6lLBEI.s:26447  .debug_str:000000000000442b .LASF448
C:\Users\stapi\AppData\Local\Temp\cc6lLBEI.s:24425  .debug_str:000000000000068e .LASF449
C:\Users\stapi\AppData\Local\Temp\cc6lLBEI.s:26671  .debug_str:0000000000004a85 .LASF450
C:\Users\stapi\AppData\Local\Temp\cc6lLBEI.s:27491  .debug_str:00000000000062f5 .LASF451
C:\Users\stapi\AppData\Local\Temp\cc6lLBEI.s:27727  .debug_str:0000000000006a49 .LASF452
C:\Users\stapi\AppData\Local\Temp\cc6lLBEI.s:25695  .debug_str:0000000000002c05 .LASF453
C:\Users\stapi\AppData\Local\Temp\cc6lLBEI.s:27635  .debug_str:0000000000006772 .LASF454
C:\Users\stapi\AppData\Local\Temp\cc6lLBEI.s:24451  .debug_str:000000000000073c .LASF455
C:\Users\stapi\AppData\Local\Temp\cc6lLBEI.s:26241  .debug_str:0000000000003cc2 .LASF456
C:\Users\stapi\AppData\Local\Temp\cc6lLBEI.s:26467  .debug_str:00000000000044bb .LASF457
C:\Users\stapi\AppData\Local\Temp\cc6lLBEI.s:24877  .debug_str:00000000000013e8 .LASF458
C:\Users\stapi\AppData\Local\Temp\cc6lLBEI.s:25515  .debug_str:0000000000002680 .LASF459
C:\Users\stapi\AppData\Local\Temp\cc6lLBEI.s:24597  .debug_str:0000000000000b89 .LASF460
C:\Users\stapi\AppData\Local\Temp\cc6lLBEI.s:27033  .debug_str:00000000000054c2 .LASF461
C:\Users\stapi\AppData\Local\Temp\cc6lLBEI.s:24207  .debug_str:0000000000000000 .LASF462
C:\Users\stapi\AppData\Local\Temp\cc6lLBEI.s:25885  .debug_str:000000000000320d .LASF463
C:\Users\stapi\AppData\Local\Temp\cc6lLBEI.s:24633  .debug_str:0000000000000c94 .LASF464
C:\Users\stapi\AppData\Local\Temp\cc6lLBEI.s:27721  .debug_str:0000000000006a27 .LASF465
C:\Users\stapi\AppData\Local\Temp\cc6lLBEI.s:24275  .debug_str:000000000000022f .LASF466
C:\Users\stapi\AppData\Local\Temp\cc6lLBEI.s:27495  .debug_str:0000000000006312 .LASF467
C:\Users\stapi\AppData\Local\Temp\cc6lLBEI.s:27695  .debug_str:0000000000006955 .LASF468
C:\Users\stapi\AppData\Local\Temp\cc6lLBEI.s:25467  .debug_str:0000000000002507 .LASF469
C:\Users\stapi\AppData\Local\Temp\cc6lLBEI.s:25819  .debug_str:0000000000003009 .LASF470
C:\Users\stapi\AppData\Local\Temp\cc6lLBEI.s:24799  .debug_str:000000000000119a .LASF471
C:\Users\stapi\AppData\Local\Temp\cc6lLBEI.s:26235  .debug_str:0000000000003c96 .LASF472
C:\Users\stapi\AppData\Local\Temp\cc6lLBEI.s:25115  .debug_str:0000000000001ac0 .LASF473
C:\Users\stapi\AppData\Local\Temp\cc6lLBEI.s:27663  .debug_str:0000000000006864 .LASF474
C:\Users\stapi\AppData\Local\Temp\cc6lLBEI.s:26835  .debug_str:0000000000004f0d .LASF475
C:\Users\stapi\AppData\Local\Temp\cc6lLBEI.s:25075  .debug_str:0000000000001985 .LASF476
C:\Users\stapi\AppData\Local\Temp\cc6lLBEI.s:27271  .debug_str:0000000000005c37 .LASF477
C:\Users\stapi\AppData\Local\Temp\cc6lLBEI.s:27661  .debug_str:0000000000006858 .LASF478
C:\Users\stapi\AppData\Local\Temp\cc6lLBEI.s:24227  .debug_str:0000000000000098 .LASF479
C:\Users\stapi\AppData\Local\Temp\cc6lLBEI.s:26403  .debug_str:00000000000042d0 .LASF480
C:\Users\stapi\AppData\Local\Temp\cc6lLBEI.s:25627  .debug_str:00000000000029e3 .LASF481
C:\Users\stapi\AppData\Local\Temp\cc6lLBEI.s:26825  .debug_str:0000000000004ed1 .LASF482
C:\Users\stapi\AppData\Local\Temp\cc6lLBEI.s:26653  .debug_str:00000000000049ff .LASF483
C:\Users\stapi\AppData\Local\Temp\cc6lLBEI.s:25463  .debug_str:00000000000024f3 .LASF484
C:\Users\stapi\AppData\Local\Temp\cc6lLBEI.s:25117  .debug_str:0000000000001acd .LASF485
C:\Users\stapi\AppData\Local\Temp\cc6lLBEI.s:27407  .debug_str:0000000000006030 .LASF486
C:\Users\stapi\AppData\Local\Temp\cc6lLBEI.s:26873  .debug_str:0000000000005001 .LASF487
C:\Users\stapi\AppData\Local\Temp\cc6lLBEI.s:25359  .debug_str:0000000000002224 .LASF488
C:\Users\stapi\AppData\Local\Temp\cc6lLBEI.s:26615  .debug_str:00000000000048f7 .LASF489
C:\Users\stapi\AppData\Local\Temp\cc6lLBEI.s:24781  .debug_str:00000000000010f8 .LASF490
C:\Users\stapi\AppData\Local\Temp\cc6lLBEI.s:25905  .debug_str:0000000000003293 .LASF491
C:\Users\stapi\AppData\Local\Temp\cc6lLBEI.s:25561  .debug_str:00000000000027e3 .LASF492
C:\Users\stapi\AppData\Local\Temp\cc6lLBEI.s:27221  .debug_str:0000000000005ab0 .LASF493
C:\Users\stapi\AppData\Local\Temp\cc6lLBEI.s:26619  .debug_str:0000000000004910 .LASF494
C:\Users\stapi\AppData\Local\Temp\cc6lLBEI.s:24849  .debug_str:00000000000012fe .LASF495
C:\Users\stapi\AppData\Local\Temp\cc6lLBEI.s:26093  .debug_str:0000000000003808 .LASF496
C:\Users\stapi\AppData\Local\Temp\cc6lLBEI.s:26689  .debug_str:0000000000004b12 .LASF497
C:\Users\stapi\AppData\Local\Temp\cc6lLBEI.s:26539  .debug_str:00000000000046f3 .LASF498
C:\Users\stapi\AppData\Local\Temp\cc6lLBEI.s:26559  .debug_str:0000000000004780 .LASF499
C:\Users\stapi\AppData\Local\Temp\cc6lLBEI.s:25449  .debug_str:0000000000002480 .LASF500
C:\Users\stapi\AppData\Local\Temp\cc6lLBEI.s:25603  .debug_str:000000000000292d .LASF501
C:\Users\stapi\AppData\Local\Temp\cc6lLBEI.s:27471  .debug_str:000000000000624d .LASF502
C:\Users\stapi\AppData\Local\Temp\cc6lLBEI.s:27235  .debug_str:0000000000005b1f .LASF503
C:\Users\stapi\AppData\Local\Temp\cc6lLBEI.s:24323  .debug_str:00000000000003bc .LASF504
C:\Users\stapi\AppData\Local\Temp\cc6lLBEI.s:27307  .debug_str:0000000000005d47 .LASF505
C:\Users\stapi\AppData\Local\Temp\cc6lLBEI.s:25307  .debug_str:00000000000020ab .LASF506
C:\Users\stapi\AppData\Local\Temp\cc6lLBEI.s:25235  .debug_str:0000000000001e78 .LASF507
C:\Users\stapi\AppData\Local\Temp\cc6lLBEI.s:24731  .debug_str:0000000000000f78 .LASF508
C:\Users\stapi\AppData\Local\Temp\cc6lLBEI.s:27789  .debug_str:0000000000006c45 .LASF509
C:\Users\stapi\AppData\Local\Temp\cc6lLBEI.s:26583  .debug_str:0000000000004821 .LASF510
C:\Users\stapi\AppData\Local\Temp\cc6lLBEI.s:25619  .debug_str:000000000000299d .LASF511
C:\Users\stapi\AppData\Local\Temp\cc6lLBEI.s:26849  .debug_str:0000000000004f6a .LASF512
C:\Users\stapi\AppData\Local\Temp\cc6lLBEI.s:24519  .debug_str:0000000000000966 .LASF513
C:\Users\stapi\AppData\Local\Temp\cc6lLBEI.s:24521  .debug_str:000000000000096d .LASF514
C:\Users\stapi\AppData\Local\Temp\cc6lLBEI.s:24673  .debug_str:0000000000000dae .LASF515
C:\Users\stapi\AppData\Local\Temp\cc6lLBEI.s:24523  .debug_str:0000000000000974 .LASF516
C:\Users\stapi\AppData\Local\Temp\cc6lLBEI.s:24525  .debug_str:000000000000097b .LASF517
C:\Users\stapi\AppData\Local\Temp\cc6lLBEI.s:24527  .debug_str:0000000000000982 .LASF518
C:\Users\stapi\AppData\Local\Temp\cc6lLBEI.s:24529  .debug_str:0000000000000989 .LASF519
C:\Users\stapi\AppData\Local\Temp\cc6lLBEI.s:24531  .debug_str:0000000000000990 .LASF520
C:\Users\stapi\AppData\Local\Temp\cc6lLBEI.s:24533  .debug_str:0000000000000997 .LASF521
C:\Users\stapi\AppData\Local\Temp\cc6lLBEI.s:25947  .debug_str:00000000000033d4 .LASF522
C:\Users\stapi\AppData\Local\Temp\cc6lLBEI.s:25531  .debug_str:00000000000026ef .LASF523
C:\Users\stapi\AppData\Local\Temp\cc6lLBEI.s:27573  .debug_str:00000000000065b7 .LASF524
C:\Users\stapi\AppData\Local\Temp\cc6lLBEI.s:26423  .debug_str:000000000000437e .LASF525
C:\Users\stapi\AppData\Local\Temp\cc6lLBEI.s:24937  .debug_str:0000000000001599 .LASF526
C:\Users\stapi\AppData\Local\Temp\cc6lLBEI.s:27325  .debug_str:0000000000005db5 .LASF527
C:\Users\stapi\AppData\Local\Temp\cc6lLBEI.s:25243  .debug_str:0000000000001ed0 .LASF528
C:\Users\stapi\AppData\Local\Temp\cc6lLBEI.s:26219  .debug_str:0000000000003c24 .LASF529
C:\Users\stapi\AppData\Local\Temp\cc6lLBEI.s:26303  .debug_str:0000000000003fa8 .LASF530
C:\Users\stapi\AppData\Local\Temp\cc6lLBEI.s:25057  .debug_str:000000000000191b .LASF531
C:\Users\stapi\AppData\Local\Temp\cc6lLBEI.s:25667  .debug_str:0000000000002b33 .LASF532
C:\Users\stapi\AppData\Local\Temp\cc6lLBEI.s:27603  .debug_str:0000000000006687 .LASF533
C:\Users\stapi\AppData\Local\Temp\cc6lLBEI.s:26393  .debug_str:0000000000004296 .LASF534
C:\Users\stapi\AppData\Local\Temp\cc6lLBEI.s:24445  .debug_str:0000000000000719 .LASF535
C:\Users\stapi\AppData\Local\Temp\cc6lLBEI.s:24611  .debug_str:0000000000000bdd .LASF536
C:\Users\stapi\AppData\Local\Temp\cc6lLBEI.s:24785  .debug_str:0000000000001123 .LASF537
C:\Users\stapi\AppData\Local\Temp\cc6lLBEI.s:24963  .debug_str:000000000000163d .LASF538
C:\Users\stapi\AppData\Local\Temp\cc6lLBEI.s:27641  .debug_str:00000000000067a2 .LASF539
C:\Users\stapi\AppData\Local\Temp\cc6lLBEI.s:24365  .debug_str:00000000000004e5 .LASF540
C:\Users\stapi\AppData\Local\Temp\cc6lLBEI.s:27219  .debug_str:0000000000005aa3 .LASF541
C:\Users\stapi\AppData\Local\Temp\cc6lLBEI.s:27629  .debug_str:0000000000006745 .LASF542
C:\Users\stapi\AppData\Local\Temp\cc6lLBEI.s:25501  .debug_str:00000000000025fa .LASF543
C:\Users\stapi\AppData\Local\Temp\cc6lLBEI.s:24753  .debug_str:000000000000101e .LASF544
C:\Users\stapi\AppData\Local\Temp\cc6lLBEI.s:24355  .debug_str:0000000000000499 .LASF545
C:\Users\stapi\AppData\Local\Temp\cc6lLBEI.s:25053  .debug_str:00000000000018ef .LASF546
C:\Users\stapi\AppData\Local\Temp\cc6lLBEI.s:27529  .debug_str:00000000000063f9 .LASF547
C:\Users\stapi\AppData\Local\Temp\cc6lLBEI.s:24231  .debug_str:00000000000000b4 .LASF548
C:\Users\stapi\AppData\Local\Temp\cc6lLBEI.s:25283  .debug_str:0000000000001fef .LASF549
C:\Users\stapi\AppData\Local\Temp\cc6lLBEI.s:26127  .debug_str:0000000000003919 .LASF550
C:\Users\stapi\AppData\Local\Temp\cc6lLBEI.s:25267  .debug_str:0000000000001f7b .LASF551
C:\Users\stapi\AppData\Local\Temp\cc6lLBEI.s:25493  .debug_str:00000000000025a5 .LASF552
C:\Users\stapi\AppData\Local\Temp\cc6lLBEI.s:25245  .debug_str:0000000000001eda .LASF553
C:\Users\stapi\AppData\Local\Temp\cc6lLBEI.s:26045  .debug_str:000000000000369f .LASF554
C:\Users\stapi\AppData\Local\Temp\cc6lLBEI.s:27051  .debug_str:0000000000005552 .LASF555
C:\Users\stapi\AppData\Local\Temp\cc6lLBEI.s:27787  .debug_str:0000000000006c32 .LASF556
C:\Users\stapi\AppData\Local\Temp\cc6lLBEI.s:26451  .debug_str:0000000000004438 .LASF557
C:\Users\stapi\AppData\Local\Temp\cc6lLBEI.s:25009  .debug_str:000000000000177c .LASF558
C:\Users\stapi\AppData\Local\Temp\cc6lLBEI.s:24249  .debug_str:0000000000000153 .LASF559
C:\Users\stapi\AppData\Local\Temp\cc6lLBEI.s:26321  .debug_str:0000000000004022 .LASF560
C:\Users\stapi\AppData\Local\Temp\cc6lLBEI.s:27713  .debug_str:00000000000069eb .LASF561
C:\Users\stapi\AppData\Local\Temp\cc6lLBEI.s:26329  .debug_str:000000000000406f .LASF562
C:\Users\stapi\AppData\Local\Temp\cc6lLBEI.s:24303  .debug_str:0000000000000313 .LASF563
C:\Users\stapi\AppData\Local\Temp\cc6lLBEI.s:25499  .debug_str:00000000000025d9 .LASF564
C:\Users\stapi\AppData\Local\Temp\cc6lLBEI.s:26455  .debug_str:000000000000445d .LASF565
C:\Users\stapi\AppData\Local\Temp\cc6lLBEI.s:24291  .debug_str:00000000000002b9 .LASF566
C:\Users\stapi\AppData\Local\Temp\cc6lLBEI.s:25329  .debug_str:0000000000002141 .LASF567
C:\Users\stapi\AppData\Local\Temp\cc6lLBEI.s:26029  .debug_str:0000000000003616 .LASF568
C:\Users\stapi\AppData\Local\Temp\cc6lLBEI.s:26049  .debug_str:00000000000036c5 .LASF569
C:\Users\stapi\AppData\Local\Temp\cc6lLBEI.s:24307  .debug_str:0000000000000335 .LASF570
C:\Users\stapi\AppData\Local\Temp\cc6lLBEI.s:25247  .debug_str:0000000000001ee9 .LASF571
C:\Users\stapi\AppData\Local\Temp\cc6lLBEI.s:24643  .debug_str:0000000000000cdd .LASF572
C:\Users\stapi\AppData\Local\Temp\cc6lLBEI.s:27591  .debug_str:0000000000006642 .LASF573
C:\Users\stapi\AppData\Local\Temp\cc6lLBEI.s:25175  .debug_str:0000000000001c55 .LASF574
C:\Users\stapi\AppData\Local\Temp\cc6lLBEI.s:27141  .debug_str:000000000000584b .LASF575
C:\Users\stapi\AppData\Local\Temp\cc6lLBEI.s:25001  .debug_str:0000000000001745 .LASF576
C:\Users\stapi\AppData\Local\Temp\cc6lLBEI.s:24369  .debug_str:0000000000000509 .LASF577
C:\Users\stapi\AppData\Local\Temp\cc6lLBEI.s:24821  .debug_str:0000000000001223 .LASF578
C:\Users\stapi\AppData\Local\Temp\cc6lLBEI.s:27117  .debug_str:000000000000576d .LASF579
C:\Users\stapi\AppData\Local\Temp\cc6lLBEI.s:26695  .debug_str:0000000000004b37 .LASF580
C:\Users\stapi\AppData\Local\Temp\cc6lLBEI.s:26153  .debug_str:00000000000039ce .LASF581
C:\Users\stapi\AppData\Local\Temp\cc6lLBEI.s:26133  .debug_str:0000000000003940 .LASF582
C:\Users\stapi\AppData\Local\Temp\cc6lLBEI.s:24693  .debug_str:0000000000000e30 .LASF583
C:\Users\stapi\AppData\Local\Temp\cc6lLBEI.s:27263  .debug_str:0000000000005bf0 .LASF584
C:\Users\stapi\AppData\Local\Temp\cc6lLBEI.s:27693  .debug_str:0000000000006949 .LASF585
C:\Users\stapi\AppData\Local\Temp\cc6lLBEI.s:26101  .debug_str:0000000000003838 .LASF586
C:\Users\stapi\AppData\Local\Temp\cc6lLBEI.s:25879  .debug_str:00000000000031d9 .LASF587
C:\Users\stapi\AppData\Local\Temp\cc6lLBEI.s:25657  .debug_str:0000000000002af0 .LASF588
C:\Users\stapi\AppData\Local\Temp\cc6lLBEI.s:26441  .debug_str:00000000000043f7 .LASF589
C:\Users\stapi\AppData\Local\Temp\cc6lLBEI.s:26361  .debug_str:0000000000004181 .LASF590
C:\Users\stapi\AppData\Local\Temp\cc6lLBEI.s:24699  .debug_str:0000000000000e55 .LASF591
C:\Users\stapi\AppData\Local\Temp\cc6lLBEI.s:24713  .debug_str:0000000000000ed0 .LASF592
C:\Users\stapi\AppData\Local\Temp\cc6lLBEI.s:27187  .debug_str:00000000000059af .LASF593
C:\Users\stapi\AppData\Local\Temp\cc6lLBEI.s:27633  .debug_str:000000000000675b .LASF594
C:\Users\stapi\AppData\Local\Temp\cc6lLBEI.s:27303  .debug_str:0000000000005d25 .LASF1792
C:\Users\stapi\AppData\Local\Temp\cc6lLBEI.s:25205  .debug_str:0000000000001dbb .LASF595
C:\Users\stapi\AppData\Local\Temp\cc6lLBEI.s:25317  .debug_str:00000000000020f2 .LASF596
C:\Users\stapi\AppData\Local\Temp\cc6lLBEI.s:25583  .debug_str:000000000000289c .LASF597
C:\Users\stapi\AppData\Local\Temp\cc6lLBEI.s:25199  .debug_str:0000000000001d8c .LASF598
C:\Users\stapi\AppData\Local\Temp\cc6lLBEI.s:25669  .debug_str:0000000000002b3c .LASF599
C:\Users\stapi\AppData\Local\Temp\cc6lLBEI.s:27751  .debug_str:0000000000006afe .LASF600
C:\Users\stapi\AppData\Local\Temp\cc6lLBEI.s:24919  .debug_str:000000000000151f .LASF601
C:\Users\stapi\AppData\Local\Temp\cc6lLBEI.s:25949  .debug_str:00000000000033e0 .LASF602
C:\Users\stapi\AppData\Local\Temp\cc6lLBEI.s:24347  .debug_str:0000000000000468 .LASF603
C:\Users\stapi\AppData\Local\Temp\cc6lLBEI.s:24431  .debug_str:00000000000006ae .LASF604
C:\Users\stapi\AppData\Local\Temp\cc6lLBEI.s:26759  .debug_str:0000000000004d12 .LASF605
C:\Users\stapi\AppData\Local\Temp\cc6lLBEI.s:25535  .debug_str:000000000000270b .LASF606
C:\Users\stapi\AppData\Local\Temp\cc6lLBEI.s:25891  .debug_str:0000000000003225 .LASF607
C:\Users\stapi\AppData\Local\Temp\cc6lLBEI.s:25087  .debug_str:00000000000019df .LASF608
C:\Users\stapi\AppData\Local\Temp\cc6lLBEI.s:27277  .debug_str:0000000000005c60 .LASF609
C:\Users\stapi\AppData\Local\Temp\cc6lLBEI.s:25875  .debug_str:00000000000031be .LASF610
C:\Users\stapi\AppData\Local\Temp\cc6lLBEI.s:24567  .debug_str:0000000000000a7f .LASF611
C:\Users\stapi\AppData\Local\Temp\cc6lLBEI.s:25791  .debug_str:0000000000002f05 .LASF612
C:\Users\stapi\AppData\Local\Temp\cc6lLBEI.s:24503  .debug_str:00000000000008db .LASF613
C:\Users\stapi\AppData\Local\Temp\cc6lLBEI.s:24359  .debug_str:00000000000004ad .LASF614
C:\Users\stapi\AppData\Local\Temp\cc6lLBEI.s:25471  .debug_str:000000000000252a .LASF615
C:\Users\stapi\AppData\Local\Temp\cc6lLBEI.s:27769  .debug_str:0000000000006b98 .LASF616
C:\Users\stapi\AppData\Local\Temp\cc6lLBEI.s:27497  .debug_str:000000000000631c .LASF617
C:\Users\stapi\AppData\Local\Temp\cc6lLBEI.s:27631  .debug_str:0000000000006752 .LASF618
C:\Users\stapi\AppData\Local\Temp\cc6lLBEI.s:25305  .debug_str:00000000000020a1 .LASF619
C:\Users\stapi\AppData\Local\Temp\cc6lLBEI.s:25497  .debug_str:00000000000025c6 .LASF620
C:\Users\stapi\AppData\Local\Temp\cc6lLBEI.s:27625  .debug_str:0000000000006724 .LASF621
C:\Users\stapi\AppData\Local\Temp\cc6lLBEI.s:26791  .debug_str:0000000000004df1 .LASF622
C:\Users\stapi\AppData\Local\Temp\cc6lLBEI.s:26967  .debug_str:00000000000052c6 .LASF623
C:\Users\stapi\AppData\Local\Temp\cc6lLBEI.s:27007  .debug_str:0000000000005410 .LASF624
C:\Users\stapi\AppData\Local\Temp\cc6lLBEI.s:24313  .debug_str:0000000000000368 .LASF625
C:\Users\stapi\AppData\Local\Temp\cc6lLBEI.s:24277  .debug_str:000000000000023a .LASF626
C:\Users\stapi\AppData\Local\Temp\cc6lLBEI.s:25221  .debug_str:0000000000001e14 .LASF627
C:\Users\stapi\AppData\Local\Temp\cc6lLBEI.s:26433  .debug_str:00000000000043bd .LASF628
C:\Users\stapi\AppData\Local\Temp\cc6lLBEI.s:26643  .debug_str:00000000000049c3 .LASF629
C:\Users\stapi\AppData\Local\Temp\cc6lLBEI.s:26735  .debug_str:0000000000004c5d .LASF630
C:\Users\stapi\AppData\Local\Temp\cc6lLBEI.s:27015  .debug_str:0000000000005439 .LASF631
C:\Users\stapi\AppData\Local\Temp\cc6lLBEI.s:27463  .debug_str:0000000000006216 .LASF632
C:\Users\stapi\AppData\Local\Temp\cc6lLBEI.s:25129  .debug_str:0000000000001b0e .LASF633
C:\Users\stapi\AppData\Local\Temp\cc6lLBEI.s:24563  .debug_str:0000000000000a67 .LASF634
C:\Users\stapi\AppData\Local\Temp\cc6lLBEI.s:27283  .debug_str:0000000000005c94 .LASF635
C:\Users\stapi\AppData\Local\Temp\cc6lLBEI.s:26083  .debug_str:00000000000037cb .LASF636
C:\Users\stapi\AppData\Local\Temp\cc6lLBEI.s:26221  .debug_str:0000000000003c2e .LASF637
C:\Users\stapi\AppData\Local\Temp\cc6lLBEI.s:24319  .debug_str:0000000000000394 .LASF638
C:\Users\stapi\AppData\Local\Temp\cc6lLBEI.s:25837  .debug_str:00000000000030a4 .LASF639
C:\Users\stapi\AppData\Local\Temp\cc6lLBEI.s:27233  .debug_str:0000000000005b14 .LASF640
C:\Users\stapi\AppData\Local\Temp\cc6lLBEI.s:25787  .debug_str:0000000000002ee9 .LASF641
C:\Users\stapi\AppData\Local\Temp\cc6lLBEI.s:26123  .debug_str:00000000000038f5 .LASF642
C:\Users\stapi\AppData\Local\Temp\cc6lLBEI.s:27127  .debug_str:00000000000057cc .LASF643
C:\Users\stapi\AppData\Local\Temp\cc6lLBEI.s:25677  .debug_str:0000000000002b83 .LASF644
C:\Users\stapi\AppData\Local\Temp\cc6lLBEI.s:26449  .debug_str:0000000000004433 .LASF645
C:\Users\stapi\AppData\Local\Temp\cc6lLBEI.s:25275  .debug_str:0000000000001fb2 .LASF646
C:\Users\stapi\AppData\Local\Temp\cc6lLBEI.s:24387  .debug_str:0000000000000574 .LASF647
C:\Users\stapi\AppData\Local\Temp\cc6lLBEI.s:25917  .debug_str:00000000000032ed .LASF648
C:\Users\stapi\AppData\Local\Temp\cc6lLBEI.s:27349  .debug_str:0000000000005e87 .LASF649
C:\Users\stapi\AppData\Local\Temp\cc6lLBEI.s:25767  .debug_str:0000000000002e62 .LASF650
C:\Users\stapi\AppData\Local\Temp\cc6lLBEI.s:27431  .debug_str:0000000000006116 .LASF651
C:\Users\stapi\AppData\Local\Temp\cc6lLBEI.s:25679  .debug_str:0000000000002b97 .LASF652
C:\Users\stapi\AppData\Local\Temp\cc6lLBEI.s:26319  .debug_str:0000000000004018 .LASF653
C:\Users\stapi\AppData\Local\Temp\cc6lLBEI.s:26649  .debug_str:00000000000049e8 .LASF654
C:\Users\stapi\AppData\Local\Temp\cc6lLBEI.s:25971  .debug_str:000000000000347b .LASF655
C:\Users\stapi\AppData\Local\Temp\cc6lLBEI.s:24271  .debug_str:000000000000020b .LASF656
C:\Users\stapi\AppData\Local\Temp\cc6lLBEI.s:26151  .debug_str:00000000000039c5 .LASF657
C:\Users\stapi\AppData\Local\Temp\cc6lLBEI.s:24905  .debug_str:00000000000014b9 .LASF658
C:\Users\stapi\AppData\Local\Temp\cc6lLBEI.s:26781  .debug_str:0000000000004da4 .LASF659
C:\Users\stapi\AppData\Local\Temp\cc6lLBEI.s:25459  .debug_str:00000000000024d5 .LASF660
C:\Users\stapi\AppData\Local\Temp\cc6lLBEI.s:24239  .debug_str:00000000000000ed .LASF661
C:\Users\stapi\AppData\Local\Temp\cc6lLBEI.s:26665  .debug_str:0000000000004a5c .LASF662
C:\Users\stapi\AppData\Local\Temp\cc6lLBEI.s:24707  .debug_str:0000000000000ea4 .LASF663
C:\Users\stapi\AppData\Local\Temp\cc6lLBEI.s:25853  .debug_str:0000000000003134 .LASF664
C:\Users\stapi\AppData\Local\Temp\cc6lLBEI.s:25023  .debug_str:00000000000017e1 .LASF665
C:\Users\stapi\AppData\Local\Temp\cc6lLBEI.s:24797  .debug_str:0000000000001185 .LASF666
C:\Users\stapi\AppData\Local\Temp\cc6lLBEI.s:25411  .debug_str:000000000000237a .LASF667
C:\Users\stapi\AppData\Local\Temp\cc6lLBEI.s:24577  .debug_str:0000000000000ae1 .LASF668
C:\Users\stapi\AppData\Local\Temp\cc6lLBEI.s:27659  .debug_str:0000000000006844 .LASF669
C:\Users\stapi\AppData\Local\Temp\cc6lLBEI.s:24829  .debug_str:0000000000001274 .LASF670
C:\Users\stapi\AppData\Local\Temp\cc6lLBEI.s:24433  .debug_str:00000000000006b7 .LASF671
C:\Users\stapi\AppData\Local\Temp\cc6lLBEI.s:27747  .debug_str:0000000000006af1 .LASF672
C:\Users\stapi\AppData\Local\Temp\cc6lLBEI.s:27153  .debug_str:00000000000058b6 .LASF673
C:\Users\stapi\AppData\Local\Temp\cc6lLBEI.s:24357  .debug_str:00000000000004a2 .LASF674
C:\Users\stapi\AppData\Local\Temp\cc6lLBEI.s:25997  .debug_str:000000000000352b .LASF675
C:\Users\stapi\AppData\Local\Temp\cc6lLBEI.s:24593  .debug_str:0000000000000b68 .LASF676
C:\Users\stapi\AppData\Local\Temp\cc6lLBEI.s:26351  .debug_str:000000000000412d .LASF677
C:\Users\stapi\AppData\Local\Temp\cc6lLBEI.s:26859  .debug_str:0000000000004fbc .LASF678
C:\Users\stapi\AppData\Local\Temp\cc6lLBEI.s:24715  .debug_str:0000000000000ef4 .LASF679
C:\Users\stapi\AppData\Local\Temp\cc6lLBEI.s:25003  .debug_str:0000000000001754 .LASF680
C:\Users\stapi\AppData\Local\Temp\cc6lLBEI.s:27247  .debug_str:0000000000005b58 .LASF681
C:\Users\stapi\AppData\Local\Temp\cc6lLBEI.s:25295  .debug_str:0000000000002053 .LASF682
C:\Users\stapi\AppData\Local\Temp\cc6lLBEI.s:24485  .debug_str:0000000000000855 .LASF683
C:\Users\stapi\AppData\Local\Temp\cc6lLBEI.s:26709  .debug_str:0000000000004bba .LASF684
C:\Users\stapi\AppData\Local\Temp\cc6lLBEI.s:25733  .debug_str:0000000000002d59 .LASF685
C:\Users\stapi\AppData\Local\Temp\cc6lLBEI.s:25747  .debug_str:0000000000002dd5 .LASF686
C:\Users\stapi\AppData\Local\Temp\cc6lLBEI.s:26063  .debug_str:0000000000003736 .LASF687
C:\Users\stapi\AppData\Local\Temp\cc6lLBEI.s:26889  .debug_str:0000000000005063 .LASF688
C:\Users\stapi\AppData\Local\Temp\cc6lLBEI.s:27177  .debug_str:0000000000005951 .LASF689
C:\Users\stapi\AppData\Local\Temp\cc6lLBEI.s:27279  .debug_str:0000000000005c77 .LASF690
C:\Users\stapi\AppData\Local\Temp\cc6lLBEI.s:24811  .debug_str:00000000000011e6 .LASF691
C:\Users\stapi\AppData\Local\Temp\cc6lLBEI.s:25355  .debug_str:00000000000021ff .LASF692
C:\Users\stapi\AppData\Local\Temp\cc6lLBEI.s:25163  .debug_str:0000000000001c0b .LASF693
C:\Users\stapi\AppData\Local\Temp\cc6lLBEI.s:27607  .debug_str:000000000000669e .LASF694
C:\Users\stapi\AppData\Local\Temp\cc6lLBEI.s:24669  .debug_str:0000000000000d88 .LASF695
C:\Users\stapi\AppData\Local\Temp\cc6lLBEI.s:26333  .debug_str:00000000000040a2 .LASF696
C:\Users\stapi\AppData\Local\Temp\cc6lLBEI.s:25933  .debug_str:0000000000003358 .LASF697
C:\Users\stapi\AppData\Local\Temp\cc6lLBEI.s:24333  .debug_str:00000000000003f3 .LASF698
C:\Users\stapi\AppData\Local\Temp\cc6lLBEI.s:25935  .debug_str:0000000000003368 .LASF699
C:\Users\stapi\AppData\Local\Temp\cc6lLBEI.s:27259  .debug_str:0000000000005bb8 .LASF700
C:\Users\stapi\AppData\Local\Temp\cc6lLBEI.s:27273  .debug_str:0000000000005c3f .LASF701
C:\Users\stapi\AppData\Local\Temp\cc6lLBEI.s:25049  .debug_str:00000000000018b2 .LASF702
C:\Users\stapi\AppData\Local\Temp\cc6lLBEI.s:24209  .debug_str:0000000000000005 .LASF703
C:\Users\stapi\AppData\Local\Temp\cc6lLBEI.s:25351  .debug_str:00000000000021d6 .LASF704
C:\Users\stapi\AppData\Local\Temp\cc6lLBEI.s:26947  .debug_str:0000000000005257 .LASF705
C:\Users\stapi\AppData\Local\Temp\cc6lLBEI.s:27691  .debug_str:000000000000693a .LASF706
C:\Users\stapi\AppData\Local\Temp\cc6lLBEI.s:25987  .debug_str:00000000000034e6 .LASF707
C:\Users\stapi\AppData\Local\Temp\cc6lLBEI.s:25649  .debug_str:0000000000002aa3 .LASF708
C:\Users\stapi\AppData\Local\Temp\cc6lLBEI.s:27537  .debug_str:000000000000642e .LASF709
C:\Users\stapi\AppData\Local\Temp\cc6lLBEI.s:26585  .debug_str:000000000000482c .LASF710
C:\Users\stapi\AppData\Local\Temp\cc6lLBEI.s:25533  .debug_str:00000000000026fc .LASF711
C:\Users\stapi\AppData\Local\Temp\cc6lLBEI.s:25773  .debug_str:0000000000002e81 .LASF712
C:\Users\stapi\AppData\Local\Temp\cc6lLBEI.s:25625  .debug_str:00000000000029d3 .LASF713
C:\Users\stapi\AppData\Local\Temp\cc6lLBEI.s:24813  .debug_str:00000000000011ed .LASF714
C:\Users\stapi\AppData\Local\Temp\cc6lLBEI.s:27323  .debug_str:0000000000005daa .LASF715
C:\Users\stapi\AppData\Local\Temp\cc6lLBEI.s:24517  .debug_str:0000000000000954 .LASF716
C:\Users\stapi\AppData\Local\Temp\cc6lLBEI.s:27243  .debug_str:0000000000005b41 .LASF717
C:\Users\stapi\AppData\Local\Temp\cc6lLBEI.s:25191  .debug_str:0000000000001cba .LASF718
C:\Users\stapi\AppData\Local\Temp\cc6lLBEI.s:24827  .debug_str:0000000000001257 .LASF719
C:\Users\stapi\AppData\Local\Temp\cc6lLBEI.s:27697  .debug_str:0000000000006964 .LASF720
C:\Users\stapi\AppData\Local\Temp\cc6lLBEI.s:24691  .debug_str:0000000000000e23 .LASF721
C:\Users\stapi\AppData\Local\Temp\cc6lLBEI.s:24743  .debug_str:0000000000000fd4 .LASF722
C:\Users\stapi\AppData\Local\Temp\cc6lLBEI.s:24329  .debug_str:00000000000003d5 .LASF723
C:\Users\stapi\AppData\Local\Temp\cc6lLBEI.s:26907  .debug_str:00000000000050e7 .LASF724
C:\Users\stapi\AppData\Local\Temp\cc6lLBEI.s:25065  .debug_str:0000000000001942 .LASF725
C:\Users\stapi\AppData\Local\Temp\cc6lLBEI.s:26675  .debug_str:0000000000004a9f .LASF726
C:\Users\stapi\AppData\Local\Temp\cc6lLBEI.s:27669  .debug_str:000000000000688d .LASF727
C:\Users\stapi\AppData\Local\Temp\cc6lLBEI.s:26195  .debug_str:0000000000003b58 .LASF728
C:\Users\stapi\AppData\Local\Temp\cc6lLBEI.s:25027  .debug_str:0000000000001805 .LASF729
C:\Users\stapi\AppData\Local\Temp\cc6lLBEI.s:24507  .debug_str:00000000000008ff .LASF730
C:\Users\stapi\AppData\Local\Temp\cc6lLBEI.s:24825  .debug_str:000000000000123d .LASF731
C:\Users\stapi\AppData\Local\Temp\cc6lLBEI.s:26167  .debug_str:0000000000003a37 .LASF732
C:\Users\stapi\AppData\Local\Temp\cc6lLBEI.s:26813  .debug_str:0000000000004e73 .LASF733
C:\Users\stapi\AppData\Local\Temp\cc6lLBEI.s:27741  .debug_str:0000000000006ab3 .LASF734
C:\Users\stapi\AppData\Local\Temp\cc6lLBEI.s:26757  .debug_str:0000000000004cfb .LASF735
C:\Users\stapi\AppData\Local\Temp\cc6lLBEI.s:26165  .debug_str:0000000000003a28 .LASF736
C:\Users\stapi\AppData\Local\Temp\cc6lLBEI.s:26213  .debug_str:0000000000003bea .LASF737
C:\Users\stapi\AppData\Local\Temp\cc6lLBEI.s:27147  .debug_str:000000000000588d .LASF738
C:\Users\stapi\AppData\Local\Temp\cc6lLBEI.s:27087  .debug_str:0000000000005675 .LASF739
C:\Users\stapi\AppData\Local\Temp\cc6lLBEI.s:27389  .debug_str:0000000000005fbc .LASF740
C:\Users\stapi\AppData\Local\Temp\cc6lLBEI.s:26541  .debug_str:00000000000046fb .LASF741
C:\Users\stapi\AppData\Local\Temp\cc6lLBEI.s:25069  .debug_str:0000000000001962 .LASF742
C:\Users\stapi\AppData\Local\Temp\cc6lLBEI.s:25123  .debug_str:0000000000001aec .LASF743
C:\Users\stapi\AppData\Local\Temp\cc6lLBEI.s:25941  .debug_str:00000000000033a7 .LASF744
C:\Users\stapi\AppData\Local\Temp\cc6lLBEI.s:27479  .debug_str:0000000000006284 .LASF745
C:\Users\stapi\AppData\Local\Temp\cc6lLBEI.s:26117  .debug_str:00000000000038ac .LASF746
C:\Users\stapi\AppData\Local\Temp\cc6lLBEI.s:27667  .debug_str:0000000000006883 .LASF747
C:\Users\stapi\AppData\Local\Temp\cc6lLBEI.s:25363  .debug_str:000000000000223a .LASF748
C:\Users\stapi\AppData\Local\Temp\cc6lLBEI.s:27709  .debug_str:00000000000069c0 .LASF749
C:\Users\stapi\AppData\Local\Temp\cc6lLBEI.s:25757  .debug_str:0000000000002e08 .LASF750
C:\Users\stapi\AppData\Local\Temp\cc6lLBEI.s:26913  .debug_str:0000000000005122 .LASF751
C:\Users\stapi\AppData\Local\Temp\cc6lLBEI.s:24971  .debug_str:000000000000167f .LASF752
C:\Users\stapi\AppData\Local\Temp\cc6lLBEI.s:27111  .debug_str:000000000000572c .LASF753
C:\Users\stapi\AppData\Local\Temp\cc6lLBEI.s:24851  .debug_str:0000000000001308 .LASF754
C:\Users\stapi\AppData\Local\Temp\cc6lLBEI.s:25843  .debug_str:00000000000030e2 .LASF755
C:\Users\stapi\AppData\Local\Temp\cc6lLBEI.s:26405  .debug_str:00000000000042de .LASF756
C:\Users\stapi\AppData\Local\Temp\cc6lLBEI.s:27327  .debug_str:0000000000005dc4 .LASF757
C:\Users\stapi\AppData\Local\Temp\cc6lLBEI.s:24253  .debug_str:0000000000000176 .LASF758
C:\Users\stapi\AppData\Local\Temp\cc6lLBEI.s:27267  .debug_str:0000000000005c10 .LASF759
C:\Users\stapi\AppData\Local\Temp\cc6lLBEI.s:25405  .debug_str:000000000000234f .LASF760
C:\Users\stapi\AppData\Local\Temp\cc6lLBEI.s:25951  .debug_str:00000000000033f1 .LASF761
C:\Users\stapi\AppData\Local\Temp\cc6lLBEI.s:27763  .debug_str:0000000000006b51 .LASF762
C:\Users\stapi\AppData\Local\Temp\cc6lLBEI.s:24687  .debug_str:0000000000000e10 .LASF763
C:\Users\stapi\AppData\Local\Temp\cc6lLBEI.s:26565  .debug_str:00000000000047a0 .LASF764
C:\Users\stapi\AppData\Local\Temp\cc6lLBEI.s:25167  .debug_str:0000000000001c24 .LASF765
C:\Users\stapi\AppData\Local\Temp\cc6lLBEI.s:26163  .debug_str:0000000000003a12 .LASF766
C:\Users\stapi\AppData\Local\Temp\cc6lLBEI.s:26755  .debug_str:0000000000004cea .LASF767
C:\Users\stapi\AppData\Local\Temp\cc6lLBEI.s:25775  .debug_str:0000000000002e8b .LASF768
C:\Users\stapi\AppData\Local\Temp\cc6lLBEI.s:27761  .debug_str:0000000000006b4c .LASF769
C:\Users\stapi\AppData\Local\Temp\cc6lLBEI.s:25863  .debug_str:000000000000317a .LASF770
C:\Users\stapi\AppData\Local\Temp\cc6lLBEI.s:24977  .debug_str:00000000000016a2 .LASF771
C:\Users\stapi\AppData\Local\Temp\cc6lLBEI.s:26035  .debug_str:0000000000003656 .LASF772
C:\Users\stapi\AppData\Local\Temp\cc6lLBEI.s:26061  .debug_str:0000000000003723 .LASF773
C:\Users\stapi\AppData\Local\Temp\cc6lLBEI.s:24983  .debug_str:00000000000016c4 .LASF774
C:\Users\stapi\AppData\Local\Temp\cc6lLBEI.s:25653  .debug_str:0000000000002acd .LASF775
C:\Users\stapi\AppData\Local\Temp\cc6lLBEI.s:25105  .debug_str:0000000000001a61 .LASF776
C:\Users\stapi\AppData\Local\Temp\cc6lLBEI.s:26147  .debug_str:000000000000399a .LASF777
C:\Users\stapi\AppData\Local\Temp\cc6lLBEI.s:26763  .debug_str:0000000000004d22 .LASF778
C:\Users\stapi\AppData\Local\Temp\cc6lLBEI.s:25393  .debug_str:0000000000002310 .LASF779
C:\Users\stapi\AppData\Local\Temp\cc6lLBEI.s:24695  .debug_str:0000000000000e40 .LASF780
C:\Users\stapi\AppData\Local\Temp\cc6lLBEI.s:26419  .debug_str:0000000000004364 .LASF781
C:\Users\stapi\AppData\Local\Temp\cc6lLBEI.s:25365  .debug_str:000000000000224b .LASF782
C:\Users\stapi\AppData\Local\Temp\cc6lLBEI.s:27513  .debug_str:0000000000006388 .LASF783
C:\Users\stapi\AppData\Local\Temp\cc6lLBEI.s:25957  .debug_str:0000000000003422 .LASF784
C:\Users\stapi\AppData\Local\Temp\cc6lLBEI.s:25693  .debug_str:0000000000002bfa .LASF785
C:\Users\stapi\AppData\Local\Temp\cc6lLBEI.s:27133  .debug_str:000000000000581c .LASF786
C:\Users\stapi\AppData\Local\Temp\cc6lLBEI.s:25455  .debug_str:00000000000024b3 .LASF787
C:\Users\stapi\AppData\Local\Temp\cc6lLBEI.s:25739  .debug_str:0000000000002d7e .LASF788
C:\Users\stapi\AppData\Local\Temp\cc6lLBEI.s:25507  .debug_str:000000000000262b .LASF789
C:\Users\stapi\AppData\Local\Temp\cc6lLBEI.s:27509  .debug_str:0000000000006364 .LASF790
C:\Users\stapi\AppData\Local\Temp\cc6lLBEI.s:25699  .debug_str:0000000000002c29 .LASF791
C:\Users\stapi\AppData\Local\Temp\cc6lLBEI.s:26599  .debug_str:0000000000004888 .LASF792
C:\Users\stapi\AppData\Local\Temp\cc6lLBEI.s:27553  .debug_str:00000000000064a9 .LASF793
C:\Users\stapi\AppData\Local\Temp\cc6lLBEI.s:25441  .debug_str:000000000000244c .LASF794
C:\Users\stapi\AppData\Local\Temp\cc6lLBEI.s:27473  .debug_str:0000000000006253 .LASF795
C:\Users\stapi\AppData\Local\Temp\cc6lLBEI.s:26493  .debug_str:000000000000459d .LASF796
C:\Users\stapi\AppData\Local\Temp\cc6lLBEI.s:27305  .debug_str:0000000000005d34 .LASF797
C:\Users\stapi\AppData\Local\Temp\cc6lLBEI.s:25153  .debug_str:0000000000001bbe .LASF798
C:\Users\stapi\AppData\Local\Temp\cc6lLBEI.s:25743  .debug_str:0000000000002da7 .LASF799
C:\Users\stapi\AppData\Local\Temp\cc6lLBEI.s:27031  .debug_str:00000000000054b2 .LASF800
C:\Users\stapi\AppData\Local\Temp\cc6lLBEI.s:25297  .debug_str:0000000000002068 .LASF801
C:\Users\stapi\AppData\Local\Temp\cc6lLBEI.s:25527  .debug_str:00000000000026d4 .LASF802
C:\Users\stapi\AppData\Local\Temp\cc6lLBEI.s:27237  .debug_str:0000000000005b25 .LASF803
C:\Users\stapi\AppData\Local\Temp\cc6lLBEI.s:27003  .debug_str:00000000000053ef .LASF804
C:\Users\stapi\AppData\Local\Temp\cc6lLBEI.s:26617  .debug_str:0000000000004901 .LASF805
C:\Users\stapi\AppData\Local\Temp\cc6lLBEI.s:26857  .debug_str:0000000000004faf .LASF806
C:\Users\stapi\AppData\Local\Temp\cc6lLBEI.s:26207  .debug_str:0000000000003bb9 .LASF807
C:\Users\stapi\AppData\Local\Temp\cc6lLBEI.s:26259  .debug_str:0000000000003d50 .LASF808
C:\Users\stapi\AppData\Local\Temp\cc6lLBEI.s:26257  .debug_str:0000000000003d4b .LASF809
C:\Users\stapi\AppData\Local\Temp\cc6lLBEI.s:26945  .debug_str:000000000000524d .LASF810
C:\Users\stapi\AppData\Local\Temp\cc6lLBEI.s:27213  .debug_str:0000000000005a69 .LASF811
C:\Users\stapi\AppData\Local\Temp\cc6lLBEI.s:26597  .debug_str:000000000000487b .LASF812
C:\Users\stapi\AppData\Local\Temp\cc6lLBEI.s:25783  .debug_str:0000000000002ec4 .LASF813
C:\Users\stapi\AppData\Local\Temp\cc6lLBEI.s:24599  .debug_str:0000000000000b93 .LASF814
C:\Users\stapi\AppData\Local\Temp\cc6lLBEI.s:25829  .debug_str:0000000000003061 .LASF815
C:\Users\stapi\AppData\Local\Temp\cc6lLBEI.s:24961  .debug_str:0000000000001634 .LASF816
C:\Users\stapi\AppData\Local\Temp\cc6lLBEI.s:26693  .debug_str:0000000000004b27 .LASF817
C:\Users\stapi\AppData\Local\Temp\cc6lLBEI.s:26527  .debug_str:0000000000004693 .LASF818
C:\Users\stapi\AppData\Local\Temp\cc6lLBEI.s:26201  .debug_str:0000000000003b89 .LASF819
C:\Users\stapi\AppData\Local\Temp\cc6lLBEI.s:25015  .debug_str:00000000000017aa .LASF820
C:\Users\stapi\AppData\Local\Temp\cc6lLBEI.s:24793  .debug_str:0000000000001167 .LASF821
C:\Users\stapi\AppData\Local\Temp\cc6lLBEI.s:25445  .debug_str:0000000000002467 .LASF822
C:\Users\stapi\AppData\Local\Temp\cc6lLBEI.s:26279  .debug_str:0000000000003ed9 .LASF823
C:\Users\stapi\AppData\Local\Temp\cc6lLBEI.s:27559  .debug_str:00000000000064cb .LASF824
C:\Users\stapi\AppData\Local\Temp\cc6lLBEI.s:27387  .debug_str:0000000000005fa9 .LASF825
C:\Users\stapi\AppData\Local\Temp\cc6lLBEI.s:24619  .debug_str:0000000000000c14 .LASF826
C:\Users\stapi\AppData\Local\Temp\cc6lLBEI.s:27011  .debug_str:000000000000541e .LASF827
C:\Users\stapi\AppData\Local\Temp\cc6lLBEI.s:26305  .debug_str:0000000000003fb0 .LASF828
C:\Users\stapi\AppData\Local\Temp\cc6lLBEI.s:25609  .debug_str:0000000000002956 .LASF829
C:\Users\stapi\AppData\Local\Temp\cc6lLBEI.s:24539  .debug_str:00000000000009d1 .LASF830
C:\Users\stapi\AppData\Local\Temp\cc6lLBEI.s:27347  .debug_str:0000000000005e79 .LASF831
C:\Users\stapi\AppData\Local\Temp\cc6lLBEI.s:25569  .debug_str:0000000000002834 .LASF832
C:\Users\stapi\AppData\Local\Temp\cc6lLBEI.s:26915  .debug_str:000000000000513f .LASF833
C:\Users\stapi\AppData\Local\Temp\cc6lLBEI.s:27045  .debug_str:000000000000551d .LASF834
C:\Users\stapi\AppData\Local\Temp\cc6lLBEI.s:25929  .debug_str:000000000000333e .LASF835
C:\Users\stapi\AppData\Local\Temp\cc6lLBEI.s:27373  .debug_str:0000000000005f39 .LASF836
C:\Users\stapi\AppData\Local\Temp\cc6lLBEI.s:26557  .debug_str:000000000000476c .LASF837
C:\Users\stapi\AppData\Local\Temp\cc6lLBEI.s:24845  .debug_str:00000000000012df .LASF838
C:\Users\stapi\AppData\Local\Temp\cc6lLBEI.s:26773  .debug_str:0000000000004d77 .LASF839
C:\Users\stapi\AppData\Local\Temp\cc6lLBEI.s:26877  .debug_str:0000000000005012 .LASF840
C:\Users\stapi\AppData\Local\Temp\cc6lLBEI.s:24215  .debug_str:000000000000004e .LASF841
C:\Users\stapi\AppData\Local\Temp\cc6lLBEI.s:25731  .debug_str:0000000000002d50 .LASF842
C:\Users\stapi\AppData\Local\Temp\cc6lLBEI.s:25825  .debug_str:000000000000303d .LASF843
C:\Users\stapi\AppData\Local\Temp\cc6lLBEI.s:26359  .debug_str:0000000000004168 .LASF844
C:\Users\stapi\AppData\Local\Temp\cc6lLBEI.s:24397  .debug_str:00000000000005b7 .LASF845
C:\Users\stapi\AppData\Local\Temp\cc6lLBEI.s:24391  .debug_str:0000000000000582 .LASF846
C:\Users\stapi\AppData\Local\Temp\cc6lLBEI.s:25079  .debug_str:000000000000199b .LASF847
C:\Users\stapi\AppData\Local\Temp\cc6lLBEI.s:24721  .debug_str:0000000000000f19 .LASF848
C:\Users\stapi\AppData\Local\Temp\cc6lLBEI.s:27439  .debug_str:000000000000616e .LASF849
C:\Users\stapi\AppData\Local\Temp\cc6lLBEI.s:26269  .debug_str:0000000000003da2 .LASF850
C:\Users\stapi\AppData\Local\Temp\cc6lLBEI.s:27179  .debug_str:000000000000595d .LASF851
C:\Users\stapi\AppData\Local\Temp\cc6lLBEI.s:25483  .debug_str:0000000000002564 .LASF852
C:\Users\stapi\AppData\Local\Temp\cc6lLBEI.s:24349  .debug_str:0000000000000471 .LASF853
C:\Users\stapi\AppData\Local\Temp\cc6lLBEI.s:24989  .debug_str:00000000000016e5 .LASF854
C:\Users\stapi\AppData\Local\Temp\cc6lLBEI.s:25883  .debug_str:00000000000031fc .LASF855
C:\Users\stapi\AppData\Local\Temp\cc6lLBEI.s:25325  .debug_str:0000000000002122 .LASF856
C:\Users\stapi\AppData\Local\Temp\cc6lLBEI.s:24729  .debug_str:0000000000000f63 .LASF857
C:\Users\stapi\AppData\Local\Temp\cc6lLBEI.s:26011  .debug_str:0000000000003598 .LASF858
C:\Users\stapi\AppData\Local\Temp\cc6lLBEI.s:27223  .debug_str:0000000000005abe .LASF859
C:\Users\stapi\AppData\Local\Temp\cc6lLBEI.s:25797  .debug_str:0000000000002f34 .LASF860
C:\Users\stapi\AppData\Local\Temp\cc6lLBEI.s:27185  .debug_str:0000000000005998 .LASF861
C:\Users\stapi\AppData\Local\Temp\cc6lLBEI.s:25391  .debug_str:00000000000022f9 .LASF862
C:\Users\stapi\AppData\Local\Temp\cc6lLBEI.s:25785  .debug_str:0000000000002ed4 .LASF863
C:\Users\stapi\AppData\Local\Temp\cc6lLBEI.s:25237  .debug_str:0000000000001e90 .LASF864
C:\Users\stapi\AppData\Local\Temp\cc6lLBEI.s:25723  .debug_str:0000000000002cfd .LASF865
C:\Users\stapi\AppData\Local\Temp\cc6lLBEI.s:25719  .debug_str:0000000000002cd8 .LASF866
C:\Users\stapi\AppData\Local\Temp\cc6lLBEI.s:27377  .debug_str:0000000000005f65 .LASF867
C:\Users\stapi\AppData\Local\Temp\cc6lLBEI.s:27601  .debug_str:000000000000667e .LASF868
C:\Users\stapi\AppData\Local\Temp\cc6lLBEI.s:26901  .debug_str:00000000000050bf .LASF869
C:\Users\stapi\AppData\Local\Temp\cc6lLBEI.s:24835  .debug_str:00000000000012a3 .LASF870
C:\Users\stapi\AppData\Local\Temp\cc6lLBEI.s:24609  .debug_str:0000000000000bcf .LASF871
C:\Users\stapi\AppData\Local\Temp\cc6lLBEI.s:26697  .debug_str:0000000000004b4f .LASF872
C:\Users\stapi\AppData\Local\Temp\cc6lLBEI.s:25749  .debug_str:0000000000002de0 .LASF873
C:\Users\stapi\AppData\Local\Temp\cc6lLBEI.s:24299  .debug_str:00000000000002f5 .LASF874
C:\Users\stapi\AppData\Local\Temp\cc6lLBEI.s:27597  .debug_str:0000000000006666 .LASF875
C:\Users\stapi\AppData\Local\Temp\cc6lLBEI.s:25989  .debug_str:00000000000034ef .LASF876
C:\Users\stapi\AppData\Local\Temp\cc6lLBEI.s:24581  .debug_str:0000000000000b0a .LASF877
C:\Users\stapi\AppData\Local\Temp\cc6lLBEI.s:26903  .debug_str:00000000000050c7 .LASF878
C:\Users\stapi\AppData\Local\Temp\cc6lLBEI.s:27189  .debug_str:00000000000059b7 .LASF879
C:\Users\stapi\AppData\Local\Temp\cc6lLBEI.s:27255  .debug_str:0000000000005b9d .LASF880
C:\Users\stapi\AppData\Local\Temp\cc6lLBEI.s:24591  .debug_str:0000000000000b5b .LASF881
C:\Users\stapi\AppData\Local\Temp\cc6lLBEI.s:27067  .debug_str:00000000000055ea .LASF882
C:\Users\stapi\AppData\Local\Temp\cc6lLBEI.s:25705  .debug_str:0000000000002c5c .LASF883
C:\Users\stapi\AppData\Local\Temp\cc6lLBEI.s:25281  .debug_str:0000000000001fe6 .LASF884
C:\Users\stapi\AppData\Local\Temp\cc6lLBEI.s:25427  .debug_str:00000000000023e5 .LASF885
C:\Users\stapi\AppData\Local\Temp\cc6lLBEI.s:24853  .debug_str:000000000000131c .LASF886
C:\Users\stapi\AppData\Local\Temp\cc6lLBEI.s:24225  .debug_str:000000000000008c .LASF887
C:\Users\stapi\AppData\Local\Temp\cc6lLBEI.s:27001  .debug_str:00000000000053e5 .LASF888
C:\Users\stapi\AppData\Local\Temp\cc6lLBEI.s:27783  .debug_str:0000000000006c1e .LASF889
C:\Users\stapi\AppData\Local\Temp\cc6lLBEI.s:27441  .debug_str:000000000000617b .LASF890
C:\Users\stapi\AppData\Local\Temp\cc6lLBEI.s:26937  .debug_str:00000000000051fd .LASF891
C:\Users\stapi\AppData\Local\Temp\cc6lLBEI.s:27419  .debug_str:0000000000006098 .LASF892
C:\Users\stapi\AppData\Local\Temp\cc6lLBEI.s:26349  .debug_str:000000000000411b .LASF893
C:\Users\stapi\AppData\Local\Temp\cc6lLBEI.s:25519  .debug_str:000000000000269f .LASF894
C:\Users\stapi\AppData\Local\Temp\cc6lLBEI.s:26681  .debug_str:0000000000004ad5 .LASF895
C:\Users\stapi\AppData\Local\Temp\cc6lLBEI.s:26803  .debug_str:0000000000004e3d .LASF896
C:\Users\stapi\AppData\Local\Temp\cc6lLBEI.s:27311  .debug_str:0000000000005d5b .LASF897
C:\Users\stapi\AppData\Local\Temp\cc6lLBEI.s:27181  .debug_str:0000000000005972 .LASF898
C:\Users\stapi\AppData\Local\Temp\cc6lLBEI.s:26383  .debug_str:0000000000004240 .LASF899
C:\Users\stapi\AppData\Local\Temp\cc6lLBEI.s:27595  .debug_str:000000000000665d .LASF900
C:\Users\stapi\AppData\Local\Temp\cc6lLBEI.s:25179  .debug_str:0000000000001c74 .LASF901
C:\Users\stapi\AppData\Local\Temp\cc6lLBEI.s:25203  .debug_str:0000000000001daa .LASF902
C:\Users\stapi\AppData\Local\Temp\cc6lLBEI.s:25399  .debug_str:0000000000002337 .LASF903
C:\Users\stapi\AppData\Local\Temp\cc6lLBEI.s:27313  .debug_str:0000000000005d66 .LASF904
C:\Users\stapi\AppData\Local\Temp\cc6lLBEI.s:25201  .debug_str:0000000000001d98 .LASF905
C:\Users\stapi\AppData\Local\Temp\cc6lLBEI.s:24293  .debug_str:00000000000002c7 .LASF906
C:\Users\stapi\AppData\Local\Temp\cc6lLBEI.s:24815  .debug_str:00000000000011fa .LASF907
C:\Users\stapi\AppData\Local\Temp\cc6lLBEI.s:24733  .debug_str:0000000000000f7e .LASF908
C:\Users\stapi\AppData\Local\Temp\cc6lLBEI.s:25525  .debug_str:00000000000026ca .LASF909
C:\Users\stapi\AppData\Local\Temp\cc6lLBEI.s:26311  .debug_str:0000000000003fef .LASF910
C:\Users\stapi\AppData\Local\Temp\cc6lLBEI.s:27205  .debug_str:0000000000005a2d .LASF911
C:\Users\stapi\AppData\Local\Temp\cc6lLBEI.s:25579  .debug_str:000000000000287b .LASF912
C:\Users\stapi\AppData\Local\Temp\cc6lLBEI.s:26415  .debug_str:000000000000433e .LASF913
C:\Users\stapi\AppData\Local\Temp\cc6lLBEI.s:26971  .debug_str:00000000000052e1 .LASF914
C:\Users\stapi\AppData\Local\Temp\cc6lLBEI.s:25109  .debug_str:0000000000001a85 .LASF915
C:\Users\stapi\AppData\Local\Temp\cc6lLBEI.s:27523  .debug_str:00000000000063c3 .LASF916
C:\Users\stapi\AppData\Local\Temp\cc6lLBEI.s:27009  .debug_str:0000000000005418 .LASF917
C:\Users\stapi\AppData\Local\Temp\cc6lLBEI.s:24917  .debug_str:0000000000001511 .LASF918
C:\Users\stapi\AppData\Local\Temp\cc6lLBEI.s:26315  .debug_str:0000000000004001 .LASF919
C:\Users\stapi\AppData\Local\Temp\cc6lLBEI.s:24515  .debug_str:0000000000000947 .LASF920
C:\Users\stapi\AppData\Local\Temp\cc6lLBEI.s:24651  .debug_str:0000000000000d04 .LASF921
C:\Users\stapi\AppData\Local\Temp\cc6lLBEI.s:26143  .debug_str:0000000000003982 .LASF922
C:\Users\stapi\AppData\Local\Temp\cc6lLBEI.s:24709  .debug_str:0000000000000eae .LASF923
C:\Users\stapi\AppData\Local\Temp\cc6lLBEI.s:26041  .debug_str:0000000000003676 .LASF924
C:\Users\stapi\AppData\Local\Temp\cc6lLBEI.s:26581  .debug_str:0000000000004805 .LASF925
C:\Users\stapi\AppData\Local\Temp\cc6lLBEI.s:27541  .debug_str:0000000000006448 .LASF926
C:\Users\stapi\AppData\Local\Temp\cc6lLBEI.s:24969  .debug_str:0000000000001665 .LASF927
C:\Users\stapi\AppData\Local\Temp\cc6lLBEI.s:24573  .debug_str:0000000000000ac8 .LASF928
C:\Users\stapi\AppData\Local\Temp\cc6lLBEI.s:26613  .debug_str:00000000000048e4 .LASF929
C:\Users\stapi\AppData\Local\Temp\cc6lLBEI.s:25855  .debug_str:0000000000003140 .LASF930
C:\Users\stapi\AppData\Local\Temp\cc6lLBEI.s:24551  .debug_str:0000000000000a0e .LASF931
C:\Users\stapi\AppData\Local\Temp\cc6lLBEI.s:27711  .debug_str:00000000000069d4 .LASF932
C:\Users\stapi\AppData\Local\Temp\cc6lLBEI.s:26631  .debug_str:0000000000004964 .LASF933
C:\Users\stapi\AppData\Local\Temp\cc6lLBEI.s:25035  .debug_str:0000000000001856 .LASF934
C:\Users\stapi\AppData\Local\Temp\cc6lLBEI.s:26365  .debug_str:00000000000041a2 .LASF935
C:\Users\stapi\AppData\Local\Temp\cc6lLBEI.s:24605  .debug_str:0000000000000bbf .LASF936
C:\Users\stapi\AppData\Local\Temp\cc6lLBEI.s:27499  .debug_str:0000000000006327 .LASF937
C:\Users\stapi\AppData\Local\Temp\cc6lLBEI.s:27515  .debug_str:0000000000006397 .LASF938
C:\Users\stapi\AppData\Local\Temp\cc6lLBEI.s:25047  .debug_str:00000000000018aa .LASF939
C:\Users\stapi\AppData\Local\Temp\cc6lLBEI.s:24545  .debug_str:00000000000009f2 .LASF940
C:\Users\stapi\AppData\Local\Temp\cc6lLBEI.s:26519  .debug_str:000000000000466d .LASF941
C:\Users\stapi\AppData\Local\Temp\cc6lLBEI.s:26793  .debug_str:0000000000004df6 .LASF942
C:\Users\stapi\AppData\Local\Temp\cc6lLBEI.s:26983  .debug_str:0000000000005349 .LASF943
C:\Users\stapi\AppData\Local\Temp\cc6lLBEI.s:25505  .debug_str:000000000000261c .LASF944
C:\Users\stapi\AppData\Local\Temp\cc6lLBEI.s:26345  .debug_str:0000000000004108 .LASF945
C:\Users\stapi\AppData\Local\Temp\cc6lLBEI.s:24279  .debug_str:0000000000000247 .LASF946
C:\Users\stapi\AppData\Local\Temp\cc6lLBEI.s:25523  .debug_str:00000000000026bd .LASF947
C:\Users\stapi\AppData\Local\Temp\cc6lLBEI.s:24661  .debug_str:0000000000000d54 .LASF948
C:\Users\stapi\AppData\Local\Temp\cc6lLBEI.s:26417  .debug_str:000000000000435b .LASF949
C:\Users\stapi\AppData\Local\Temp\cc6lLBEI.s:24789  .debug_str:0000000000001154 .LASF950
C:\Users\stapi\AppData\Local\Temp\cc6lLBEI.s:25635  .debug_str:0000000000002a26 .LASF951
C:\Users\stapi\AppData\Local\Temp\cc6lLBEI.s:25847  .debug_str:0000000000003108 .LASF952
C:\Users\stapi\AppData\Local\Temp\cc6lLBEI.s:24595  .debug_str:0000000000000b7c .LASF953
C:\Users\stapi\AppData\Local\Temp\cc6lLBEI.s:27363  .debug_str:0000000000005ed8 .LASF954
C:\Users\stapi\AppData\Local\Temp\cc6lLBEI.s:25813  .debug_str:0000000000002fd5 .LASF955
C:\Users\stapi\AppData\Local\Temp\cc6lLBEI.s:26679  .debug_str:0000000000004ac1 .LASF956
C:\Users\stapi\AppData\Local\Temp\cc6lLBEI.s:25293  .debug_str:0000000000002049 .LASF957
C:\Users\stapi\AppData\Local\Temp\cc6lLBEI.s:26769  .debug_str:0000000000004d54 .LASF958
C:\Users\stapi\AppData\Local\Temp\cc6lLBEI.s:26741  .debug_str:0000000000004c85 .LASF959
C:\Users\stapi\AppData\Local\Temp\cc6lLBEI.s:24659  .debug_str:0000000000000d48 .LASF960
C:\Users\stapi\AppData\Local\Temp\cc6lLBEI.s:25765  .debug_str:0000000000002e56 .LASF961
C:\Users\stapi\AppData\Local\Temp\cc6lLBEI.s:24697  .debug_str:0000000000000e49 .LASF962
C:\Users\stapi\AppData\Local\Temp\cc6lLBEI.s:27517  .debug_str:00000000000063a0 .LASF963
C:\Users\stapi\AppData\Local\Temp\cc6lLBEI.s:25149  .debug_str:0000000000001ba5 .LASF964
C:\Users\stapi\AppData\Local\Temp\cc6lLBEI.s:25895  .debug_str:000000000000323b .LASF965
C:\Users\stapi\AppData\Local\Temp\cc6lLBEI.s:27681  .debug_str:00000000000068f4 .LASF966
C:\Users\stapi\AppData\Local\Temp\cc6lLBEI.s:26995  .debug_str:00000000000053b9 .LASF967
C:\Users\stapi\AppData\Local\Temp\cc6lLBEI.s:25943  .debug_str:00000000000033ba .LASF968
C:\Users\stapi\AppData\Local\Temp\cc6lLBEI.s:24247  .debug_str:000000000000014b .LASF969
C:\Users\stapi\AppData\Local\Temp\cc6lLBEI.s:26881  .debug_str:000000000000503d .LASF970
C:\Users\stapi\AppData\Local\Temp\cc6lLBEI.s:27171  .debug_str:0000000000005938 .LASF971
C:\Users\stapi\AppData\Local\Temp\cc6lLBEI.s:24547  .debug_str:00000000000009f7 .LASF972
C:\Users\stapi\AppData\Local\Temp\cc6lLBEI.s:25385  .debug_str:00000000000022d4 .LASF973
C:\Users\stapi\AppData\Local\Temp\cc6lLBEI.s:26969  .debug_str:00000000000052d6 .LASF974
C:\Users\stapi\AppData\Local\Temp\cc6lLBEI.s:27557  .debug_str:00000000000064c5 .LASF975
C:\Users\stapi\AppData\Local\Temp\cc6lLBEI.s:26743  .debug_str:0000000000004c97 .LASF976
C:\Users\stapi\AppData\Local\Temp\cc6lLBEI.s:25005  .debug_str:0000000000001760 .LASF977
C:\Users\stapi\AppData\Local\Temp\cc6lLBEI.s:27085  .debug_str:0000000000005665 .LASF978
C:\Users\stapi\AppData\Local\Temp\cc6lLBEI.s:27729  .debug_str:0000000000006a5f .LASF979
C:\Users\stapi\AppData\Local\Temp\cc6lLBEI.s:26935  .debug_str:00000000000051f2 .LASF980
C:\Users\stapi\AppData\Local\Temp\cc6lLBEI.s:24925  .debug_str:0000000000001556 .LASF981
C:\Users\stapi\AppData\Local\Temp\cc6lLBEI.s:25915  .debug_str:00000000000032e2 .LASF982
C:\Users\stapi\AppData\Local\Temp\cc6lLBEI.s:25953  .debug_str:0000000000003407 .LASF983
C:\Users\stapi\AppData\Local\Temp\cc6lLBEI.s:27013  .debug_str:000000000000542b .LASF984
C:\Users\stapi\AppData\Local\Temp\cc6lLBEI.s:27683  .debug_str:00000000000068fa .LASF985
C:\Users\stapi\AppData\Local\Temp\cc6lLBEI.s:26837  .debug_str:0000000000004f19 .LASF986
C:\Users\stapi\AppData\Local\Temp\cc6lLBEI.s:25849  .debug_str:0000000000003113 .LASF987
C:\Users\stapi\AppData\Local\Temp\cc6lLBEI.s:25793  .debug_str:0000000000002f16 .LASF988
C:\Users\stapi\AppData\Local\Temp\cc6lLBEI.s:25253  .debug_str:0000000000001f10 .LASF989
C:\Users\stapi\AppData\Local\Temp\cc6lLBEI.s:24907  .debug_str:00000000000014c3 .LASF990
C:\Users\stapi\AppData\Local\Temp\cc6lLBEI.s:25159  .debug_str:0000000000001bf1 .LASF991
C:\Users\stapi\AppData\Local\Temp\cc6lLBEI.s:26079  .debug_str:00000000000037ab .LASF992
C:\Users\stapi\AppData\Local\Temp\cc6lLBEI.s:27285  .debug_str:0000000000005c9b .LASF993
C:\Users\stapi\AppData\Local\Temp\cc6lLBEI.s:26753  .debug_str:0000000000004cd6 .LASF994
C:\Users\stapi\AppData\Local\Temp\cc6lLBEI.s:27797  .debug_str:0000000000006c88 .LASF995
C:\Users\stapi\AppData\Local\Temp\cc6lLBEI.s:27077  .debug_str:000000000000562c .LASF996
C:\Users\stapi\AppData\Local\Temp\cc6lLBEI.s:25421  .debug_str:00000000000023c7 .LASF997
C:\Users\stapi\AppData\Local\Temp\cc6lLBEI.s:24945  .debug_str:00000000000015d0 .LASF998
C:\Users\stapi\AppData\Local\Temp\cc6lLBEI.s:25655  .debug_str:0000000000002adc .LASF999
C:\Users\stapi\AppData\Local\Temp\cc6lLBEI.s:27405  .debug_str:000000000000601a .LASF1000
C:\Users\stapi\AppData\Local\Temp\cc6lLBEI.s:26429  .debug_str:00000000000043a7 .LASF1001
C:\Users\stapi\AppData\Local\Temp\cc6lLBEI.s:26927  .debug_str:00000000000051b8 .LASF1002
C:\Users\stapi\AppData\Local\Temp\cc6lLBEI.s:25537  .debug_str:0000000000002715 .LASF1003
C:\Users\stapi\AppData\Local\Temp\cc6lLBEI.s:26073  .debug_str:000000000000377f .LASF1004
C:\Users\stapi\AppData\Local\Temp\cc6lLBEI.s:24475  .debug_str:0000000000000803 .LASF1005
C:\Users\stapi\AppData\Local\Temp\cc6lLBEI.s:24363  .debug_str:00000000000004d3 .LASF1006
C:\Users\stapi\AppData\Local\Temp\cc6lLBEI.s:26687  .debug_str:0000000000004af9 .LASF1007
C:\Users\stapi\AppData\Local\Temp\cc6lLBEI.s:26335  .debug_str:00000000000040b9 .LASF1008
C:\Users\stapi\AppData\Local\Temp\cc6lLBEI.s:25881  .debug_str:00000000000031f2 .LASF1009
C:\Users\stapi\AppData\Local\Temp\cc6lLBEI.s:26501  .debug_str:00000000000045ea .LASF1010
C:\Users\stapi\AppData\Local\Temp\cc6lLBEI.s:24453  .debug_str:0000000000000764 .LASF1011
C:\Users\stapi\AppData\Local\Temp\cc6lLBEI.s:24933  .debug_str:0000000000001587 .LASF1012
C:\Users\stapi\AppData\Local\Temp\cc6lLBEI.s:27623  .debug_str:0000000000006715 .LASF1013
C:\Users\stapi\AppData\Local\Temp\cc6lLBEI.s:27715  .debug_str:0000000000006a02 .LASF1014
C:\Users\stapi\AppData\Local\Temp\cc6lLBEI.s:25869  .debug_str:000000000000319a .LASF1015
C:\Users\stapi\AppData\Local\Temp\cc6lLBEI.s:26925  .debug_str:00000000000051a6 .LASF1016
C:\Users\stapi\AppData\Local\Temp\cc6lLBEI.s:24265  .debug_str:00000000000001e3 .LASF1017
C:\Users\stapi\AppData\Local\Temp\cc6lLBEI.s:26713  .debug_str:0000000000004bd4 .LASF1018
C:\Users\stapi\AppData\Local\Temp\cc6lLBEI.s:25121  .debug_str:0000000000001add .LASF1019
C:\Users\stapi\AppData\Local\Temp\cc6lLBEI.s:27275  .debug_str:0000000000005c56 .LASF1020
C:\Users\stapi\AppData\Local\Temp\cc6lLBEI.s:27103  .debug_str:0000000000005709 .LASF1021
C:\Users\stapi\AppData\Local\Temp\cc6lLBEI.s:27321  .debug_str:0000000000005d9e .LASF1022
C:\Users\stapi\AppData\Local\Temp\cc6lLBEI.s:26111  .debug_str:000000000000387e .LASF1023
C:\Users\stapi\AppData\Local\Temp\cc6lLBEI.s:27329  .debug_str:0000000000005ddc .LASF1024
C:\Users\stapi\AppData\Local\Temp\cc6lLBEI.s:25815  .debug_str:0000000000002fe8 .LASF1025
C:\Users\stapi\AppData\Local\Temp\cc6lLBEI.s:24429  .debug_str:000000000000069d .LASF1026
C:\Users\stapi\AppData\Local\Temp\cc6lLBEI.s:26399  .debug_str:00000000000042ba .LASF1027
C:\Users\stapi\AppData\Local\Temp\cc6lLBEI.s:24439  .debug_str:00000000000006ea .LASF1028
C:\Users\stapi\AppData\Local\Temp\cc6lLBEI.s:25959  .debug_str:000000000000342e .LASF1029
C:\Users\stapi\AppData\Local\Temp\cc6lLBEI.s:24941  .debug_str:00000000000015b7 .LASF1030
C:\Users\stapi\AppData\Local\Temp\cc6lLBEI.s:25461  .debug_str:00000000000024e6 .LASF1031
C:\Users\stapi\AppData\Local\Temp\cc6lLBEI.s:26833  .debug_str:0000000000004f02 .LASF1032
C:\Users\stapi\AppData\Local\Temp\cc6lLBEI.s:27535  .debug_str:000000000000641f .LASF1033
C:\Users\stapi\AppData\Local\Temp\cc6lLBEI.s:26639  .debug_str:00000000000049aa .LASF1034
C:\Users\stapi\AppData\Local\Temp\cc6lLBEI.s:25125  .debug_str:0000000000001af9 .LASF1035
C:\Users\stapi\AppData\Local\Temp\cc6lLBEI.s:26563  .debug_str:0000000000004796 .LASF1036
C:\Users\stapi\AppData\Local\Temp\cc6lLBEI.s:25223  .debug_str:0000000000001e21 .LASF1037
C:\Users\stapi\AppData\Local\Temp\cc6lLBEI.s:25101  .debug_str:0000000000001a41 .LASF1038
C:\Users\stapi\AppData\Local\Temp\cc6lLBEI.s:25973  .debug_str:0000000000003484 .LASF1039
C:\Users\stapi\AppData\Local\Temp\cc6lLBEI.s:27569  .debug_str:000000000000659b .LASF1040
C:\Users\stapi\AppData\Local\Temp\cc6lLBEI.s:25717  .debug_str:0000000000002cca .LASF1041
C:\Users\stapi\AppData\Local\Temp\cc6lLBEI.s:25821  .debug_str:0000000000003018 .LASF1042
C:\Users\stapi\AppData\Local\Temp\cc6lLBEI.s:24411  .debug_str:0000000000000615 .LASF1043
C:\Users\stapi\AppData\Local\Temp\cc6lLBEI.s:27371  .debug_str:0000000000005f2f .LASF1044
C:\Users\stapi\AppData\Local\Temp\cc6lLBEI.s:27579  .debug_str:00000000000065de .LASF1045
C:\Users\stapi\AppData\Local\Temp\cc6lLBEI.s:24537  .debug_str:00000000000009b5 .LASF1046
C:\Users\stapi\AppData\Local\Temp\cc6lLBEI.s:24217  .debug_str:000000000000005c .LASF1047
C:\Users\stapi\AppData\Local\Temp\cc6lLBEI.s:26885  .debug_str:000000000000504e .LASF1048
C:\Users\stapi\AppData\Local\Temp\cc6lLBEI.s:24973  .debug_str:0000000000001687 .LASF1049
C:\Users\stapi\AppData\Local\Temp\cc6lLBEI.s:25207  .debug_str:0000000000001dc0 .LASF1050
C:\Users\stapi\AppData\Local\Temp\cc6lLBEI.s:26187  .debug_str:0000000000003b10 .LASF1051
C:\Users\stapi\AppData\Local\Temp\cc6lLBEI.s:24501  .debug_str:00000000000008ce .LASF1052
C:\Users\stapi\AppData\Local\Temp\cc6lLBEI.s:25907  .debug_str:00000000000032a4 .LASF1053
C:\Users\stapi\AppData\Local\Temp\cc6lLBEI.s:25435  .debug_str:0000000000002417 .LASF1054
C:\Users\stapi\AppData\Local\Temp\cc6lLBEI.s:24751  .debug_str:0000000000001014 .LASF1055
C:\Users\stapi\AppData\Local\Temp\cc6lLBEI.s:27459  .debug_str:0000000000006202 .LASF1056
C:\Users\stapi\AppData\Local\Temp\cc6lLBEI.s:25711  .debug_str:0000000000002c9e .LASF1057
C:\Users\stapi\AppData\Local\Temp\cc6lLBEI.s:27169  .debug_str:0000000000005931 .LASF1058
C:\Users\stapi\AppData\Local\Temp\cc6lLBEI.s:27157  .debug_str:00000000000058c9 .LASF1059
C:\Users\stapi\AppData\Local\Temp\cc6lLBEI.s:26453  .debug_str:000000000000444a .LASF1060
C:\Users\stapi\AppData\Local\Temp\cc6lLBEI.s:25889  .debug_str:000000000000321a .LASF1061
C:\Users\stapi\AppData\Local\Temp\cc6lLBEI.s:26993  .debug_str:000000000000539c .LASF1062
C:\Users\stapi\AppData\Local\Temp\cc6lLBEI.s:27225  .debug_str:0000000000005ac9 .LASF1063
C:\Users\stapi\AppData\Local\Temp\cc6lLBEI.s:25043  .debug_str:0000000000001896 .LASF1064
C:\Users\stapi\AppData\Local\Temp\cc6lLBEI.s:24893  .debug_str:0000000000001452 .LASF1065
C:\Users\stapi\AppData\Local\Temp\cc6lLBEI.s:27351  .debug_str:0000000000005e94 .LASF1066
C:\Users\stapi\AppData\Local\Temp\cc6lLBEI.s:25999  .debug_str:000000000000353f .LASF1067
C:\Users\stapi\AppData\Local\Temp\cc6lLBEI.s:24725  .debug_str:0000000000000f41 .LASF1068
C:\Users\stapi\AppData\Local\Temp\cc6lLBEI.s:24991  .debug_str:00000000000016f6 .LASF1069
C:\Users\stapi\AppData\Local\Temp\cc6lLBEI.s:24535  .debug_str:000000000000099e .LASF1070
C:\Users\stapi\AppData\Local\Temp\cc6lLBEI.s:25741  .debug_str:0000000000002d91 .LASF1071
C:\Users\stapi\AppData\Local\Temp\cc6lLBEI.s:25215  .debug_str:0000000000001ddf .LASF1072
C:\Users\stapi\AppData\Local\Temp\cc6lLBEI.s:27119  .debug_str:000000000000577f .LASF1073
C:\Users\stapi\AppData\Local\Temp\cc6lLBEI.s:26555  .debug_str:000000000000475f .LASF1074
C:\Users\stapi\AppData\Local\Temp\cc6lLBEI.s:25287  .debug_str:000000000000200a .LASF1075
C:\Users\stapi\AppData\Local\Temp\cc6lLBEI.s:25311  .debug_str:00000000000020d6 .LASF1076
C:\Users\stapi\AppData\Local\Temp\cc6lLBEI.s:25707  .debug_str:0000000000002c75 .LASF1077
C:\Users\stapi\AppData\Local\Temp\cc6lLBEI.s:26749  .debug_str:0000000000004cbf .LASF1078
C:\Users\stapi\AppData\Local\Temp\cc6lLBEI.s:26529  .debug_str:00000000000046a9 .LASF1079
C:\Users\stapi\AppData\Local\Temp\cc6lLBEI.s:27461  .debug_str:000000000000620d .LASF1080
C:\Users\stapi\AppData\Local\Temp\cc6lLBEI.s:26595  .debug_str:0000000000004872 .LASF1081
C:\Users\stapi\AppData\Local\Temp\cc6lLBEI.s:27415  .debug_str:0000000000006075 .LASF1082
C:\Users\stapi\AppData\Local\Temp\cc6lLBEI.s:27393  .debug_str:0000000000005fde .LASF1083
C:\Users\stapi\AppData\Local\Temp\cc6lLBEI.s:26205  .debug_str:0000000000003bb4 .LASF1084
C:\Users\stapi\AppData\Local\Temp\cc6lLBEI.s:25059  .debug_str:0000000000001923 .LASF1085
C:\Users\stapi\AppData\Local\Temp\cc6lLBEI.s:27257  .debug_str:0000000000005bad .LASF1086
C:\Users\stapi\AppData\Local\Temp\cc6lLBEI.s:26087  .debug_str:00000000000037de .LASF1087
C:\Users\stapi\AppData\Local\Temp\cc6lLBEI.s:25479  .debug_str:0000000000002550 .LASF1088
C:\Users\stapi\AppData\Local\Temp\cc6lLBEI.s:25931  .debug_str:0000000000003351 .LASF1089
C:\Users\stapi\AppData\Local\Temp\cc6lLBEI.s:24493  .debug_str:000000000000089d .LASF1090
C:\Users\stapi\AppData\Local\Temp\cc6lLBEI.s:26847  .debug_str:0000000000004f5a .LASF1091
C:\Users\stapi\AppData\Local\Temp\cc6lLBEI.s:25189  .debug_str:0000000000001cb0 .LASF1092
C:\Users\stapi\AppData\Local\Temp\cc6lLBEI.s:25413  .debug_str:0000000000002393 .LASF1093
C:\Users\stapi\AppData\Local\Temp\cc6lLBEI.s:26145  .debug_str:000000000000398d .LASF1094
C:\Users\stapi\AppData\Local\Temp\cc6lLBEI.s:26987  .debug_str:000000000000536f .LASF1095
C:\Users\stapi\AppData\Local\Temp\cc6lLBEI.s:25871  .debug_str:00000000000031a2 .LASF1096
C:\Users\stapi\AppData\Local\Temp\cc6lLBEI.s:26523  .debug_str:000000000000467f .LASF1097
C:\Users\stapi\AppData\Local\Temp\cc6lLBEI.s:25143  .debug_str:0000000000001b75 .LASF1098
C:\Users\stapi\AppData\Local\Temp\cc6lLBEI.s:26381  .debug_str:000000000000422a .LASF1099
C:\Users\stapi\AppData\Local\Temp\cc6lLBEI.s:26719  .debug_str:0000000000004bf8 .LASF1100
C:\Users\stapi\AppData\Local\Temp\cc6lLBEI.s:24779  .debug_str:00000000000010ee .LASF1101
C:\Users\stapi\AppData\Local\Temp\cc6lLBEI.s:26677  .debug_str:0000000000004ab0 .LASF1102
C:\Users\stapi\AppData\Local\Temp\cc6lLBEI.s:27561  .debug_str:00000000000064d7 .LASF1103
C:\Users\stapi\AppData\Local\Temp\cc6lLBEI.s:26389  .debug_str:000000000000427e .LASF1104
C:\Users\stapi\AppData\Local\Temp\cc6lLBEI.s:27105  .debug_str:0000000000005712 .LASF1105
C:\Users\stapi\AppData\Local\Temp\cc6lLBEI.s:27299  .debug_str:0000000000005d15 .LASF1106
C:\Users\stapi\AppData\Local\Temp\cc6lLBEI.s:25473  .debug_str:0000000000002534 .LASF1107
C:\Users\stapi\AppData\Local\Temp\cc6lLBEI.s:26251  .debug_str:0000000000003d2c .LASF1108
C:\Users\stapi\AppData\Local\Temp\cc6lLBEI.s:26373  .debug_str:00000000000041e2 .LASF1109
C:\Users\stapi\AppData\Local\Temp\cc6lLBEI.s:25041  .debug_str:0000000000001891 .LASF1110
C:\Users\stapi\AppData\Local\Temp\cc6lLBEI.s:25097  .debug_str:0000000000001a23 .LASF1111
C:\Users\stapi\AppData\Local\Temp\cc6lLBEI.s:24843  .debug_str:00000000000012da .LASF1112
C:\Users\stapi\AppData\Local\Temp\cc6lLBEI.s:24421  .debug_str:0000000000000677 .LASF1113
C:\Users\stapi\AppData\Local\Temp\cc6lLBEI.s:26861  .debug_str:0000000000004fca .LASF1114
C:\Users\stapi\AppData\Local\Temp\cc6lLBEI.s:25165  .debug_str:0000000000001c1e .LASF1115
C:\Users\stapi\AppData\Local\Temp\cc6lLBEI.s:26309  .debug_str:0000000000003fe0 .LASF1116
C:\Users\stapi\AppData\Local\Temp\cc6lLBEI.s:26899  .debug_str:00000000000050b4 .LASF1117
C:\Users\stapi\AppData\Local\Temp\cc6lLBEI.s:25171  .debug_str:0000000000001c43 .LASF1118
C:\Users\stapi\AppData\Local\Temp\cc6lLBEI.s:27399  .debug_str:0000000000005ff8 .LASF1119
C:\Users\stapi\AppData\Local\Temp\cc6lLBEI.s:25735  .debug_str:0000000000002d69 .LASF1120
C:\Users\stapi\AppData\Local\Temp\cc6lLBEI.s:27331  .debug_str:0000000000005def .LASF1121
C:\Users\stapi\AppData\Local\Temp\cc6lLBEI.s:24677  .debug_str:0000000000000dbc .LASF1122
C:\Users\stapi\AppData\Local\Temp\cc6lLBEI.s:26733  .debug_str:0000000000004c4a .LASF1123
C:\Users\stapi\AppData\Local\Temp\cc6lLBEI.s:24903  .debug_str:00000000000014b0 .LASF1124
C:\Users\stapi\AppData\Local\Temp\cc6lLBEI.s:26505  .debug_str:0000000000004609 .LASF1125
C:\Users\stapi\AppData\Local\Temp\cc6lLBEI.s:27229  .debug_str:0000000000005aec .LASF1126
C:\Users\stapi\AppData\Local\Temp\cc6lLBEI.s:27773  .debug_str:0000000000006bc0 .LASF1127
C:\Users\stapi\AppData\Local\Temp\cc6lLBEI.s:25939  .debug_str:000000000000339e .LASF1128
C:\Users\stapi\AppData\Local\Temp\cc6lLBEI.s:24935  .debug_str:000000000000158e .LASF1129
C:\Users\stapi\AppData\Local\Temp\cc6lLBEI.s:26705  .debug_str:0000000000004b8d .LASF1130
C:\Users\stapi\AppData\Local\Temp\cc6lLBEI.s:26821  .debug_str:0000000000004eb7 .LASF1131
C:\Users\stapi\AppData\Local\Temp\cc6lLBEI.s:27301  .debug_str:0000000000005d1b .LASF1132
C:\Users\stapi\AppData\Local\Temp\cc6lLBEI.s:26543  .debug_str:0000000000004708 .LASF1133
C:\Users\stapi\AppData\Local\Temp\cc6lLBEI.s:27417  .debug_str:000000000000608a .LASF1134
C:\Users\stapi\AppData\Local\Temp\cc6lLBEI.s:25867  .debug_str:0000000000003194 .LASF1135
C:\Users\stapi\AppData\Local\Temp\cc6lLBEI.s:27167  .debug_str:0000000000005924 .LASF1136
C:\Users\stapi\AppData\Local\Temp\cc6lLBEI.s:24443  .debug_str:0000000000000708 .LASF1137
C:\Users\stapi\AppData\Local\Temp\cc6lLBEI.s:26005  .debug_str:0000000000003572 .LASF1138
C:\Users\stapi\AppData\Local\Temp\cc6lLBEI.s:24601  .debug_str:0000000000000ba6 .LASF1139
C:\Users\stapi\AppData\Local\Temp\cc6lLBEI.s:25033  .debug_str:0000000000001845 .LASF1140
C:\Users\stapi\AppData\Local\Temp\cc6lLBEI.s:27485  .debug_str:00000000000062ba .LASF1141
C:\Users\stapi\AppData\Local\Temp\cc6lLBEI.s:26495  .debug_str:00000000000045b4 .LASF1142
C:\Users\stapi\AppData\Local\Temp\cc6lLBEI.s:27451  .debug_str:00000000000061ca .LASF1143
C:\Users\stapi\AppData\Local\Temp\cc6lLBEI.s:24627  .debug_str:0000000000000c60 .LASF1144
C:\Users\stapi\AppData\Local\Temp\cc6lLBEI.s:26977  .debug_str:0000000000005318 .LASF1145
C:\Users\stapi\AppData\Local\Temp\cc6lLBEI.s:24765  .debug_str:000000000000105d .LASF1146
C:\Users\stapi\AppData\Local\Temp\cc6lLBEI.s:25373  .debug_str:000000000000227e .LASF1147
C:\Users\stapi\AppData\Local\Temp\cc6lLBEI.s:26717  .debug_str:0000000000004bef .LASF1148
C:\Users\stapi\AppData\Local\Temp\cc6lLBEI.s:25545  .debug_str:000000000000274e .LASF1149
C:\Users\stapi\AppData\Local\Temp\cc6lLBEI.s:25585  .debug_str:00000000000028aa .LASF1150
C:\Users\stapi\AppData\Local\Temp\cc6lLBEI.s:26139  .debug_str:000000000000396f .LASF1151
C:\Users\stapi\AppData\Local\Temp\cc6lLBEI.s:27677  .debug_str:00000000000068c7 .LASF1152
C:\Users\stapi\AppData\Local\Temp\cc6lLBEI.s:25567  .debug_str:000000000000281f .LASF1153
C:\Users\stapi\AppData\Local\Temp\cc6lLBEI.s:26975  .debug_str:000000000000530f .LASF1154
C:\Users\stapi\AppData\Local\Temp\cc6lLBEI.s:27525  .debug_str:00000000000063d9 .LASF1155
C:\Users\stapi\AppData\Local\Temp\cc6lLBEI.s:25809  .debug_str:0000000000002fb4 .LASF1156
C:\Users\stapi\AppData\Local\Temp\cc6lLBEI.s:24457  .debug_str:0000000000000774 .LASF1157
C:\Users\stapi\AppData\Local\Temp\cc6lLBEI.s:25211  .debug_str:0000000000001dd1 .LASF1158
C:\Users\stapi\AppData\Local\Temp\cc6lLBEI.s:25185  .debug_str:0000000000001c97 .LASF1159
C:\Users\stapi\AppData\Local\Temp\cc6lLBEI.s:24899  .debug_str:000000000000148c .LASF1160
C:\Users\stapi\AppData\Local\Temp\cc6lLBEI.s:27531  .debug_str:0000000000006404 .LASF1161
C:\Users\stapi\AppData\Local\Temp\cc6lLBEI.s:26589  .debug_str:000000000000484b .LASF1162
C:\Users\stapi\AppData\Local\Temp\cc6lLBEI.s:26517  .debug_str:000000000000465f .LASF1163
C:\Users\stapi\AppData\Local\Temp\cc6lLBEI.s:25923  .debug_str:0000000000003315 .LASF1164
C:\Users\stapi\AppData\Local\Temp\cc6lLBEI.s:24345  .debug_str:000000000000045a .LASF1165
C:\Users\stapi\AppData\Local\Temp\cc6lLBEI.s:25083  .debug_str:00000000000019c5 .LASF1166
C:\Users\stapi\AppData\Local\Temp\cc6lLBEI.s:26371  .debug_str:00000000000041d1 .LASF1167
C:\Users\stapi\AppData\Local\Temp\cc6lLBEI.s:25269  .debug_str:0000000000001f86 .LASF1168
C:\Users\stapi\AppData\Local\Temp\cc6lLBEI.s:26703  .debug_str:0000000000004b82 .LASF1169
C:\Users\stapi\AppData\Local\Temp\cc6lLBEI.s:27063  .debug_str:00000000000055cb .LASF1170
C:\Users\stapi\AppData\Local\Temp\cc6lLBEI.s:25061  .debug_str:0000000000001928 .LASF1171
C:\Users\stapi\AppData\Local\Temp\cc6lLBEI.s:26317  .debug_str:000000000000400d .LASF1172
C:\Users\stapi\AppData\Local\Temp\cc6lLBEI.s:26065  .debug_str:0000000000003749 .LASF1173
C:\Users\stapi\AppData\Local\Temp\cc6lLBEI.s:26067  .debug_str:0000000000003756 .LASF1174
C:\Users\stapi\AppData\Local\Temp\cc6lLBEI.s:26999  .debug_str:00000000000053db .LASF1175
C:\Users\stapi\AppData\Local\Temp\cc6lLBEI.s:24723  .debug_str:0000000000000f26 .LASF1176
C:\Users\stapi\AppData\Local\Temp\cc6lLBEI.s:26025  .debug_str:0000000000003600 .LASF1177
C:\Users\stapi\AppData\Local\Temp\cc6lLBEI.s:25403  .debug_str:0000000000002345 .LASF1178
C:\Users\stapi\AppData\Local\Temp\cc6lLBEI.s:26747  .debug_str:0000000000004cb3 .LASF1179
C:\Users\stapi\AppData\Local\Temp\cc6lLBEI.s:25417  .debug_str:00000000000023b2 .LASF1180
C:\Users\stapi\AppData\Local\Temp\cc6lLBEI.s:24549  .debug_str:0000000000000a05 .LASF1181
C:\Users\stapi\AppData\Local\Temp\cc6lLBEI.s:25255  .debug_str:0000000000001f19 .LASF1182
C:\Users\stapi\AppData\Local\Temp\cc6lLBEI.s:27651  .debug_str:00000000000067fa .LASF1183
C:\Users\stapi\AppData\Local\Temp\cc6lLBEI.s:24295  .debug_str:00000000000002d9 .LASF1184
C:\Users\stapi\AppData\Local\Temp\cc6lLBEI.s:24867  .debug_str:0000000000001394 .LASF1185
C:\Users\stapi\AppData\Local\Temp\cc6lLBEI.s:27121  .debug_str:000000000000578e .LASF1186
C:\Users\stapi\AppData\Local\Temp\cc6lLBEI.s:25397  .debug_str:0000000000002330 .LASF1187
C:\Users\stapi\AppData\Local\Temp\cc6lLBEI.s:25509  .debug_str:000000000000263c .LASF1188
C:\Users\stapi\AppData\Local\Temp\cc6lLBEI.s:25715  .debug_str:0000000000002cc0 .LASF1189
C:\Users\stapi\AppData\Local\Temp\cc6lLBEI.s:26989  .debug_str:0000000000005377 .LASF1190
C:\Users\stapi\AppData\Local\Temp\cc6lLBEI.s:24947  .debug_str:00000000000015d7 .LASF1191
C:\Users\stapi\AppData\Local\Temp\cc6lLBEI.s:24297  .debug_str:00000000000002e4 .LASF1192
C:\Users\stapi\AppData\Local\Temp\cc6lLBEI.s:26641  .debug_str:00000000000049b4 .LASF1193
C:\Users\stapi\AppData\Local\Temp\cc6lLBEI.s:26367  .debug_str:00000000000041b1 .LASF1194
C:\Users\stapi\AppData\Local\Temp\cc6lLBEI.s:27545  .debug_str:000000000000646b .LASF1195
C:\Users\stapi\AppData\Local\Temp\cc6lLBEI.s:27589  .debug_str:0000000000006637 .LASF1196
C:\Users\stapi\AppData\Local\Temp\cc6lLBEI.s:25753  .debug_str:0000000000002df7 .LASF1197
C:\Users\stapi\AppData\Local\Temp\cc6lLBEI.s:26085  .debug_str:00000000000037d2 .LASF1198
C:\Users\stapi\AppData\Local\Temp\cc6lLBEI.s:25113  .debug_str:0000000000001ab5 .LASF1199
C:\Users\stapi\AppData\Local\Temp\cc6lLBEI.s:27453  .debug_str:00000000000061d8 .LASF1200
C:\Users\stapi\AppData\Local\Temp\cc6lLBEI.s:27151  .debug_str:00000000000058af .LASF1201
C:\Users\stapi\AppData\Local\Temp\cc6lLBEI.s:25367  .debug_str:0000000000002250 .LASF1202
C:\Users\stapi\AppData\Local\Temp\cc6lLBEI.s:26053  .debug_str:00000000000036e5 .LASF1203
C:\Users\stapi\AppData\Local\Temp\cc6lLBEI.s:24403  .debug_str:00000000000005e0 .LASF1204
C:\Users\stapi\AppData\Local\Temp\cc6lLBEI.s:26301  .debug_str:0000000000003f9f .LASF1205
C:\Users\stapi\AppData\Local\Temp\cc6lLBEI.s:24943  .debug_str:00000000000015c4 .LASF1206
C:\Users\stapi\AppData\Local\Temp\cc6lLBEI.s:25219  .debug_str:0000000000001e04 .LASF1207
C:\Users\stapi\AppData\Local\Temp\cc6lLBEI.s:25381  .debug_str:00000000000022ba .LASF1208
C:\Users\stapi\AppData\Local\Temp\cc6lLBEI.s:25823  .debug_str:0000000000003027 .LASF1209
C:\Users\stapi\AppData\Local\Temp\cc6lLBEI.s:26343  .debug_str:00000000000040f9 .LASF1210
C:\Users\stapi\AppData\Local\Temp\cc6lLBEI.s:26819  .debug_str:0000000000004ea4 .LASF1211
C:\Users\stapi\AppData\Local\Temp\cc6lLBEI.s:24371  .debug_str:000000000000051a .LASF1212
C:\Users\stapi\AppData\Local\Temp\cc6lLBEI.s:24283  .debug_str:0000000000000275 .LASF1213
C:\Users\stapi\AppData\Local\Temp\cc6lLBEI.s:24495  .debug_str:00000000000008a8 .LASF1214
C:\Users\stapi\AppData\Local\Temp\cc6lLBEI.s:24927  .debug_str:0000000000001563 .LASF1215
C:\Users\stapi\AppData\Local\Temp\cc6lLBEI.s:24473  .debug_str:00000000000007f4 .LASF1216
C:\Users\stapi\AppData\Local\Temp\cc6lLBEI.s:26421  .debug_str:0000000000004369 .LASF1217
C:\Users\stapi\AppData\Local\Temp\cc6lLBEI.s:27779  .debug_str:0000000000006bef .LASF1218
C:\Users\stapi\AppData\Local\Temp\cc6lLBEI.s:27149  .debug_str:00000000000058a4 .LASF1219
C:\Users\stapi\AppData\Local\Temp\cc6lLBEI.s:26547  .debug_str:000000000000472e .LASF1220
C:\Users\stapi\AppData\Local\Temp\cc6lLBEI.s:27565  .debug_str:00000000000064f7 .LASF1221
C:\Users\stapi\AppData\Local\Temp\cc6lLBEI.s:25549  .debug_str:0000000000002777 .LASF1222
C:\Users\stapi\AppData\Local\Temp\cc6lLBEI.s:26509  .debug_str:0000000000004628 .LASF1223
C:\Users\stapi\AppData\Local\Temp\cc6lLBEI.s:24471  .debug_str:00000000000007e5 .LASF1224
C:\Users\stapi\AppData\Local\Temp\cc6lLBEI.s:26771  .debug_str:0000000000004d62 .LASF1225
C:\Users\stapi\AppData\Local\Temp\cc6lLBEI.s:27197  .debug_str:00000000000059f6 .LASF1226
C:\Users\stapi\AppData\Local\Temp\cc6lLBEI.s:27025  .debug_str:000000000000548d .LASF1227
C:\Users\stapi\AppData\Local\Temp\cc6lLBEI.s:25401  .debug_str:0000000000002340 .LASF1228
C:\Users\stapi\AppData\Local\Temp\cc6lLBEI.s:25313  .debug_str:00000000000020e1 .LASF1229
C:\Users\stapi\AppData\Local\Temp\cc6lLBEI.s:25323  .debug_str:0000000000002118 .LASF1230
C:\Users\stapi\AppData\Local\Temp\cc6lLBEI.s:26535  .debug_str:00000000000046cc .LASF1231
C:\Users\stapi\AppData\Local\Temp\cc6lLBEI.s:26261  .debug_str:0000000000003d60 .LASF1232
C:\Users\stapi\AppData\Local\Temp\cc6lLBEI.s:27519  .debug_str:00000000000063ae .LASF1233
C:\Users\stapi\AppData\Local\Temp\cc6lLBEI.s:24649  .debug_str:0000000000000cf8 .LASF1234
C:\Users\stapi\AppData\Local\Temp\cc6lLBEI.s:27385  .debug_str:0000000000005fa1 .LASF1235
C:\Users\stapi\AppData\Local\Temp\cc6lLBEI.s:24561  .debug_str:0000000000000a5c .LASF1236
C:\Users\stapi\AppData\Local\Temp\cc6lLBEI.s:24221  .debug_str:0000000000000075 .LASF1237
C:\Users\stapi\AppData\Local\Temp\cc6lLBEI.s:26893  .debug_str:0000000000005080 .LASF1238
C:\Users\stapi\AppData\Local\Temp\cc6lLBEI.s:27745  .debug_str:0000000000006ae5 .LASF1239
C:\Users\stapi\AppData\Local\Temp\cc6lLBEI.s:27427  .debug_str:00000000000060fc .LASF1240
C:\Users\stapi\AppData\Local\Temp\cc6lLBEI.s:27239  .debug_str:0000000000005b2f .LASF1241
C:\Users\stapi\AppData\Local\Temp\cc6lLBEI.s:24975  .debug_str:0000000000001692 .LASF1242
C:\Users\stapi\AppData\Local\Temp\cc6lLBEI.s:25859  .debug_str:0000000000003163 .LASF1243
C:\Users\stapi\AppData\Local\Temp\cc6lLBEI.s:25453  .debug_str:00000000000024aa .LASF1244
C:\Users\stapi\AppData\Local\Temp\cc6lLBEI.s:25013  .debug_str:000000000000179e .LASF1245
C:\Users\stapi\AppData\Local\Temp\cc6lLBEI.s:25745  .debug_str:0000000000002db3 .LASF1246
C:\Users\stapi\AppData\Local\Temp\cc6lLBEI.s:27433  .debug_str:000000000000612c .LASF1247
C:\Users\stapi\AppData\Local\Temp\cc6lLBEI.s:24211  .debug_str:0000000000000022 .LASF1248
C:\Users\stapi\AppData\Local\Temp\cc6lLBEI.s:24285  .debug_str:0000000000000282 .LASF1249
C:\Users\stapi\AppData\Local\Temp\cc6lLBEI.s:25239  .debug_str:0000000000001ea9 .LASF1250
C:\Users\stapi\AppData\Local\Temp\cc6lLBEI.s:27005  .debug_str:0000000000005402 .LASF1251
C:\Users\stapi\AppData\Local\Temp\cc6lLBEI.s:26479  .debug_str:000000000000453e .LASF1252
C:\Users\stapi\AppData\Local\Temp\cc6lLBEI.s:26627  .debug_str:0000000000004942 .LASF1253
C:\Users\stapi\AppData\Local\Temp\cc6lLBEI.s:26397  .debug_str:00000000000042ac .LASF1254
C:\Users\stapi\AppData\Local\Temp\cc6lLBEI.s:25805  .debug_str:0000000000002f95 .LASF1255
C:\Users\stapi\AppData\Local\Temp\cc6lLBEI.s:27143  .debug_str:000000000000585b .LASF1256
C:\Users\stapi\AppData\Local\Temp\cc6lLBEI.s:26289  .debug_str:0000000000003f20 .LASF1257
C:\Users\stapi\AppData\Local\Temp\cc6lLBEI.s:27563  .debug_str:00000000000064dc .LASF1258
C:\Users\stapi\AppData\Local\Temp\cc6lLBEI.s:27505  .debug_str:000000000000634d .LASF1259
C:\Users\stapi\AppData\Local\Temp\cc6lLBEI.s:24383  .debug_str:0000000000000558 .LASF1260
C:\Users\stapi\AppData\Local\Temp\cc6lLBEI.s:26855  .debug_str:0000000000004fa0 .LASF1261
C:\Users\stapi\AppData\Local\Temp\cc6lLBEI.s:26323  .debug_str:0000000000004036 .LASF1262
C:\Users\stapi\AppData\Local\Temp\cc6lLBEI.s:24911  .debug_str:00000000000014e5 .LASF1263
C:\Users\stapi\AppData\Local\Temp\cc6lLBEI.s:26491  .debug_str:0000000000004581 .LASF1264
C:\Users\stapi\AppData\Local\Temp\cc6lLBEI.s:25489  .debug_str:0000000000002597 .LASF1265
C:\Users\stapi\AppData\Local\Temp\cc6lLBEI.s:26623  .debug_str:0000000000004925 .LASF1266
C:\Users\stapi\AppData\Local\Temp\cc6lLBEI.s:26463  .debug_str:00000000000044a1 .LASF1267
C:\Users\stapi\AppData\Local\Temp\cc6lLBEI.s:25451  .debug_str:0000000000002490 .LASF1268
C:\Users\stapi\AppData\Local\Temp\cc6lLBEI.s:24589  .debug_str:0000000000000b54 .LASF1269
C:\Users\stapi\AppData\Local\Temp\cc6lLBEI.s:25347  .debug_str:00000000000021c2 .LASF1270
C:\Users\stapi\AppData\Local\Temp\cc6lLBEI.s:26243  .debug_str:0000000000003cea .LASF1271
C:\Users\stapi\AppData\Local\Temp\cc6lLBEI.s:26465  .debug_str:00000000000044ac .LASF1272
C:\Users\stapi\AppData\Local\Temp\cc6lLBEI.s:26017  .debug_str:00000000000035bf .LASF1273
C:\Users\stapi\AppData\Local\Temp\cc6lLBEI.s:26647  .debug_str:00000000000049da .LASF1274
C:\Users\stapi\AppData\Local\Temp\cc6lLBEI.s:26917  .debug_str:0000000000005154 .LASF1275
C:\Users\stapi\AppData\Local\Temp\cc6lLBEI.s:25273  .debug_str:0000000000001fa0 .LASF1276
C:\Users\stapi\AppData\Local\Temp\cc6lLBEI.s:27489  .debug_str:00000000000062e4 .LASF1277
C:\Users\stapi\AppData\Local\Temp\cc6lLBEI.s:27685  .debug_str:0000000000006913 .LASF1278
C:\Users\stapi\AppData\Local\Temp\cc6lLBEI.s:25433  .debug_str:000000000000240b .LASF1279
C:\Users\stapi\AppData\Local\Temp\cc6lLBEI.s:25127  .debug_str:0000000000001b02 .LASF1280
C:\Users\stapi\AppData\Local\Temp\cc6lLBEI.s:25899  .debug_str:0000000000003256 .LASF1281
C:\Users\stapi\AppData\Local\Temp\cc6lLBEI.s:27097  .debug_str:00000000000056cb .LASF1282
C:\Users\stapi\AppData\Local\Temp\cc6lLBEI.s:25169  .debug_str:0000000000001c38 .LASF1283
C:\Users\stapi\AppData\Local\Temp\cc6lLBEI.s:27019  .debug_str:0000000000005463 .LASF1284
C:\Users\stapi\AppData\Local\Temp\cc6lLBEI.s:26799  .debug_str:0000000000004e2f .LASF1285
C:\Users\stapi\AppData\Local\Temp\cc6lLBEI.s:25073  .debug_str:0000000000001975 .LASF1286
C:\Users\stapi\AppData\Local\Temp\cc6lLBEI.s:26801  .debug_str:0000000000004e38 .LASF1287
C:\Users\stapi\AppData\Local\Temp\cc6lLBEI.s:27193  .debug_str:00000000000059d6 .LASF1288
C:\Users\stapi\AppData\Local\Temp\cc6lLBEI.s:27035  .debug_str:00000000000054d2 .LASF1289
C:\Users\stapi\AppData\Local\Temp\cc6lLBEI.s:26209  .debug_str:0000000000003bc5 .LASF1290
C:\Users\stapi\AppData\Local\Temp\cc6lLBEI.s:25289  .debug_str:0000000000002015 .LASF1291
C:\Users\stapi\AppData\Local\Temp\cc6lLBEI.s:26019  .debug_str:00000000000035ce .LASF1292
C:\Users\stapi\AppData\Local\Temp\cc6lLBEI.s:27733  .debug_str:0000000000006a78 .LASF1293
C:\Users\stapi\AppData\Local\Temp\cc6lLBEI.s:24915  .debug_str:00000000000014fc .LASF1294
C:\Users\stapi\AppData\Local\Temp\cc6lLBEI.s:25651  .debug_str:0000000000002ab0 .LASF1295
C:\Users\stapi\AppData\Local\Temp\cc6lLBEI.s:27423  .debug_str:00000000000060c8 .LASF1296
C:\Users\stapi\AppData\Local\Temp\cc6lLBEI.s:27781  .debug_str:0000000000006c09 .LASF1297
C:\Users\stapi\AppData\Local\Temp\cc6lLBEI.s:27027  .debug_str:0000000000005496 .LASF1298
C:\Users\stapi\AppData\Local\Temp\cc6lLBEI.s:26459  .debug_str:0000000000004479 .LASF1299
C:\Users\stapi\AppData\Local\Temp\cc6lLBEI.s:24981  .debug_str:00000000000016b7 .LASF1300
C:\Users\stapi\AppData\Local\Temp\cc6lLBEI.s:27707  .debug_str:00000000000069ac .LASF1301
C:\Users\stapi\AppData\Local\Temp\cc6lLBEI.s:26409  .debug_str:0000000000004303 .LASF1302
C:\Users\stapi\AppData\Local\Temp\cc6lLBEI.s:27195  .debug_str:00000000000059dd .LASF1303
C:\Users\stapi\AppData\Local\Temp\cc6lLBEI.s:26723  .debug_str:0000000000004c08 .LASF1304
C:\Users\stapi\AppData\Local\Temp\cc6lLBEI.s:26779  .debug_str:0000000000004d91 .LASF1305
C:\Users\stapi\AppData\Local\Temp\cc6lLBEI.s:27073  .debug_str:0000000000005602 .LASF1306
C:\Users\stapi\AppData\Local\Temp\cc6lLBEI.s:25209  .debug_str:0000000000001dc7 .LASF1307
C:\Users\stapi\AppData\Local\Temp\cc6lLBEI.s:26277  .debug_str:0000000000003ece .LASF1308
C:\Users\stapi\AppData\Local\Temp\cc6lLBEI.s:27449  .debug_str:00000000000061b8 .LASF1309
C:\Users\stapi\AppData\Local\Temp\cc6lLBEI.s:26181  .debug_str:0000000000003ac0 .LASF1310
C:\Users\stapi\AppData\Local\Temp\cc6lLBEI.s:25967  .debug_str:0000000000003460 .LASF1311
C:\Users\stapi\AppData\Local\Temp\cc6lLBEI.s:27647  .debug_str:00000000000067d1 .LASF1312
C:\Users\stapi\AppData\Local\Temp\cc6lLBEI.s:25217  .debug_str:0000000000001df9 .LASF1313
C:\Users\stapi\AppData\Local\Temp\cc6lLBEI.s:27245  .debug_str:0000000000005b4d .LASF1314
C:\Users\stapi\AppData\Local\Temp\cc6lLBEI.s:24395  .debug_str:00000000000005ae .LASF1315
C:\Users\stapi\AppData\Local\Temp\cc6lLBEI.s:26353  .debug_str:000000000000413b .LASF1316
C:\Users\stapi\AppData\Local\Temp\cc6lLBEI.s:27653  .debug_str:0000000000006816 .LASF1317
C:\Users\stapi\AppData\Local\Temp\cc6lLBEI.s:24509  .debug_str:0000000000000916 .LASF1318
C:\Users\stapi\AppData\Local\Temp\cc6lLBEI.s:27759  .debug_str:0000000000006b40 .LASF1319
C:\Users\stapi\AppData\Local\Temp\cc6lLBEI.s:26961  .debug_str:000000000000529c .LASF1320
C:\Users\stapi\AppData\Local\Temp\cc6lLBEI.s:27575  .debug_str:00000000000065c4 .LASF1321
C:\Users\stapi\AppData\Local\Temp\cc6lLBEI.s:25389  .debug_str:00000000000022eb .LASF1322
C:\Users\stapi\AppData\Local\Temp\cc6lLBEI.s:25687  .debug_str:0000000000002bd6 .LASF1323
C:\Users\stapi\AppData\Local\Temp\cc6lLBEI.s:25379  .debug_str:00000000000022a8 .LASF1324
C:\Users\stapi\AppData\Local\Temp\cc6lLBEI.s:27061  .debug_str:00000000000055bb .LASF1325
C:\Users\stapi\AppData\Local\Temp\cc6lLBEI.s:27343  .debug_str:0000000000005e55 .LASF1326
C:\Users\stapi\AppData\Local\Temp\cc6lLBEI.s:27501  .debug_str:0000000000006331 .LASF1327
C:\Users\stapi\AppData\Local\Temp\cc6lLBEI.s:26237  .debug_str:0000000000003ca1 .LASF1328
C:\Users\stapi\AppData\Local\Temp\cc6lLBEI.s:26869  .debug_str:0000000000004fe8 .LASF1329
C:\Users\stapi\AppData\Local\Temp\cc6lLBEI.s:25963  .debug_str:0000000000003445 .LASF1330
C:\Users\stapi\AppData\Local\Temp\cc6lLBEI.s:27429  .debug_str:000000000000610c .LASF1331
C:\Users\stapi\AppData\Local\Temp\cc6lLBEI.s:24449  .debug_str:0000000000000732 .LASF1332
C:\Users\stapi\AppData\Local\Temp\cc6lLBEI.s:24775  .debug_str:00000000000010d8 .LASF1333
C:\Users\stapi\AppData\Local\Temp\cc6lLBEI.s:27021  .debug_str:0000000000005473 .LASF1334
C:\Users\stapi\AppData\Local\Temp\cc6lLBEI.s:27289  .debug_str:0000000000005cc3 .LASF1335
C:\Users\stapi\AppData\Local\Temp\cc6lLBEI.s:25777  .debug_str:0000000000002ea0 .LASF1336
C:\Users\stapi\AppData\Local\Temp\cc6lLBEI.s:24767  .debug_str:0000000000001074 .LASF1337
C:\Users\stapi\AppData\Local\Temp\cc6lLBEI.s:26645  .debug_str:00000000000049cf .LASF1338
C:\Users\stapi\AppData\Local\Temp\cc6lLBEI.s:26391  .debug_str:000000000000428b .LASF1339
C:\Users\stapi\AppData\Local\Temp\cc6lLBEI.s:25011  .debug_str:000000000000178f .LASF1340
C:\Users\stapi\AppData\Local\Temp\cc6lLBEI.s:25909  .debug_str:00000000000032b1 .LASF1341
C:\Users\stapi\AppData\Local\Temp\cc6lLBEI.s:24343  .debug_str:000000000000044a .LASF1342
C:\Users\stapi\AppData\Local\Temp\cc6lLBEI.s:26239  .debug_str:0000000000003cb1 .LASF1343
C:\Users\stapi\AppData\Local\Temp\cc6lLBEI.s:26739  .debug_str:0000000000004c72 .LASF1344
C:\Users\stapi\AppData\Local\Temp\cc6lLBEI.s:25241  .debug_str:0000000000001ec5 .LASF1345
C:\Users\stapi\AppData\Local\Temp\cc6lLBEI.s:26043  .debug_str:0000000000003692 .LASF1346
C:\Users\stapi\AppData\Local\Temp\cc6lLBEI.s:26375  .debug_str:00000000000041eb .LASF1347
C:\Users\stapi\AppData\Local\Temp\cc6lLBEI.s:25961  .debug_str:000000000000343a .LASF1348
C:\Users\stapi\AppData\Local\Temp\cc6lLBEI.s:24979  .debug_str:00000000000016af .LASF1349
C:\Users\stapi\AppData\Local\Temp\cc6lLBEI.s:25629  .debug_str:00000000000029f4 .LASF1350
C:\Users\stapi\AppData\Local\Temp\cc6lLBEI.s:25779  .debug_str:0000000000002eab .LASF1351
C:\Users\stapi\AppData\Local\Temp\cc6lLBEI.s:26015  .debug_str:00000000000035b1 .LASF1352
C:\Users\stapi\AppData\Local\Temp\cc6lLBEI.s:25277  .debug_str:0000000000001fbb .LASF1353
C:\Users\stapi\AppData\Local\Temp\cc6lLBEI.s:25671  .debug_str:0000000000002b51 .LASF1354
C:\Users\stapi\AppData\Local\Temp\cc6lLBEI.s:26851  .debug_str:0000000000004f7c .LASF1355
C:\Users\stapi\AppData\Local\Temp\cc6lLBEI.s:27411  .debug_str:0000000000006054 .LASF1356
C:\Users\stapi\AppData\Local\Temp\cc6lLBEI.s:27739  .debug_str:0000000000006aa7 .LASF1357
C:\Users\stapi\AppData\Local\Temp\cc6lLBEI.s:25703  .debug_str:0000000000002c49 .LASF1358
C:\Users\stapi\AppData\Local\Temp\cc6lLBEI.s:24761  .debug_str:000000000000103e .LASF1359
C:\Users\stapi\AppData\Local\Temp\cc6lLBEI.s:24305  .debug_str:0000000000000329 .LASF1360
C:\Users\stapi\AppData\Local\Temp\cc6lLBEI.s:25589  .debug_str:00000000000028d6 .LASF1361
C:\Users\stapi\AppData\Local\Temp\cc6lLBEI.s:26249  .debug_str:0000000000003d1c .LASF1362
C:\Users\stapi\AppData\Local\Temp\cc6lLBEI.s:25521  .debug_str:00000000000026b1 .LASF1363
C:\Users\stapi\AppData\Local\Temp\cc6lLBEI.s:26809  .debug_str:0000000000004e63 .LASF1364
C:\Users\stapi\AppData\Local\Temp\cc6lLBEI.s:25357  .debug_str:0000000000002215 .LASF1365
C:\Users\stapi\AppData\Local\Temp\cc6lLBEI.s:24727  .debug_str:0000000000000f5b .LASF1366
C:\Users\stapi\AppData\Local\Temp\cc6lLBEI.s:26339  .debug_str:00000000000040e0 .LASF1367
C:\Users\stapi\AppData\Local\Temp\cc6lLBEI.s:26827  .debug_str:0000000000004ee3 .LASF1368
C:\Users\stapi\AppData\Local\Temp\cc6lLBEI.s:27503  .debug_str:000000000000633f .LASF1369
C:\Users\stapi\AppData\Local\Temp\cc6lLBEI.s:27437  .debug_str:000000000000615d .LASF1370
C:\Users\stapi\AppData\Local\Temp\cc6lLBEI.s:26131  .debug_str:000000000000392e .LASF1371
C:\Users\stapi\AppData\Local\Temp\cc6lLBEI.s:26549  .debug_str:0000000000004738 .LASF1372
C:\Users\stapi\AppData\Local\Temp\cc6lLBEI.s:24957  .debug_str:000000000000161d .LASF1373
C:\Users\stapi\AppData\Local\Temp\cc6lLBEI.s:25111  .debug_str:0000000000001a9d .LASF1374
C:\Users\stapi\AppData\Local\Temp\cc6lLBEI.s:27425  .debug_str:00000000000060e7 .LASF1375
C:\Users\stapi\AppData\Local\Temp\cc6lLBEI.s:24875  .debug_str:00000000000013d1 .LASF1376
C:\Users\stapi\AppData\Local\Temp\cc6lLBEI.s:24883  .debug_str:0000000000001407 .LASF1377
C:\Users\stapi\AppData\Local\Temp\cc6lLBEI.s:27765  .debug_str:0000000000006b6a .LASF1378
C:\Users\stapi\AppData\Local\Temp\cc6lLBEI.s:27249  .debug_str:0000000000005b6f .LASF1379
C:\Users\stapi\AppData\Local\Temp\cc6lLBEI.s:26183  .debug_str:0000000000003ad2 .LASF1380
C:\Users\stapi\AppData\Local\Temp\cc6lLBEI.s:25587  .debug_str:00000000000028bc .LASF1381
C:\Users\stapi\AppData\Local\Temp\cc6lLBEI.s:24955  .debug_str:0000000000001602 .LASF1382
C:\Users\stapi\AppData\Local\Temp\cc6lLBEI.s:25141  .debug_str:0000000000001b5b .LASF1383
C:\Users\stapi\AppData\Local\Temp\cc6lLBEI.s:25039  .debug_str:000000000000187c .LASF1384
C:\Users\stapi\AppData\Local\Temp\cc6lLBEI.s:26435  .debug_str:00000000000043c9 .LASF1385
C:\Users\stapi\AppData\Local\Temp\cc6lLBEI.s:24409  .debug_str:000000000000060b .LASF1386
C:\Users\stapi\AppData\Local\Temp\cc6lLBEI.s:25581  .debug_str:000000000000288c .LASF1387
C:\Users\stapi\AppData\Local\Temp\cc6lLBEI.s:27719  .debug_str:0000000000006a18 .LASF1388
C:\Users\stapi\AppData\Local\Temp\cc6lLBEI.s:26551  .debug_str:0000000000004744 .LASF1389
C:\Users\stapi\AppData\Local\Temp\cc6lLBEI.s:26247  .debug_str:0000000000003d0a .LASF1390
C:\Users\stapi\AppData\Local\Temp\cc6lLBEI.s:25557  .debug_str:00000000000027c0 .LASF1391
C:\Users\stapi\AppData\Local\Temp\cc6lLBEI.s:26159  .debug_str:00000000000039f3 .LASF1392
C:\Users\stapi\AppData\Local\Temp\cc6lLBEI.s:25429  .debug_str:00000000000023f5 .LASF1393
C:\Users\stapi\AppData\Local\Temp\cc6lLBEI.s:24351  .debug_str:0000000000000481 .LASF1394
C:\Users\stapi\AppData\Local\Temp\cc6lLBEI.s:24353  .debug_str:000000000000048d .LASF1395
C:\Users\stapi\AppData\Local\Temp\cc6lLBEI.s:25227  .debug_str:0000000000001e48 .LASF1396
C:\Users\stapi\AppData\Local\Temp\cc6lLBEI.s:26175  .debug_str:0000000000003a7f .LASF1397
C:\Users\stapi\AppData\Local\Temp\cc6lLBEI.s:24873  .debug_str:00000000000013c8 .LASF1398
C:\Users\stapi\AppData\Local\Temp\cc6lLBEI.s:27609  .debug_str:00000000000066b3 .LASF1399
C:\Users\stapi\AppData\Local\Temp\cc6lLBEI.s:25993  .debug_str:000000000000350e .LASF1400
C:\Users\stapi\AppData\Local\Temp\cc6lLBEI.s:26663  .debug_str:0000000000004a4d .LASF1401
C:\Users\stapi\AppData\Local\Temp\cc6lLBEI.s:26655  .debug_str:0000000000004a09 .LASF1402
C:\Users\stapi\AppData\Local\Temp\cc6lLBEI.s:26379  .debug_str:0000000000004218 .LASF1403
C:\Users\stapi\AppData\Local\Temp\cc6lLBEI.s:25631  .debug_str:00000000000029fe .LASF1404
C:\Users\stapi\AppData\Local\Temp\cc6lLBEI.s:26299  .debug_str:0000000000003f92 .LASF1405
C:\Users\stapi\AppData\Local\Temp\cc6lLBEI.s:27621  .debug_str:000000000000670c .LASF1406
C:\Users\stapi\AppData\Local\Temp\cc6lLBEI.s:25591  .debug_str:00000000000028de .LASF1407
C:\Users\stapi\AppData\Local\Temp\cc6lLBEI.s:27613  .debug_str:00000000000066cc .LASF1408
C:\Users\stapi\AppData\Local\Temp\cc6lLBEI.s:27507  .debug_str:0000000000006359 .LASF1409
C:\Users\stapi\AppData\Local\Temp\cc6lLBEI.s:24407  .debug_str:00000000000005fe .LASF1410
C:\Users\stapi\AppData\Local\Temp\cc6lLBEI.s:24257  .debug_str:0000000000000199 .LASF1411
C:\Users\stapi\AppData\Local\Temp\cc6lLBEI.s:25495  .debug_str:00000000000025b1 .LASF1412
C:\Users\stapi\AppData\Local\Temp\cc6lLBEI.s:25841  .debug_str:00000000000030d1 .LASF1413
C:\Users\stapi\AppData\Local\Temp\cc6lLBEI.s:24667  .debug_str:0000000000000d6e .LASF1414
C:\Users\stapi\AppData\Local\Temp\cc6lLBEI.s:26411  .debug_str:0000000000004315 .LASF1415
C:\Users\stapi\AppData\Local\Temp\cc6lLBEI.s:26089  .debug_str:00000000000037eb .LASF1416
C:\Users\stapi\AppData\Local\Temp\cc6lLBEI.s:26021  .debug_str:00000000000035dd .LASF1417
C:\Users\stapi\AppData\Local\Temp\cc6lLBEI.s:24871  .debug_str:00000000000013ae .LASF1418
C:\Users\stapi\AppData\Local\Temp\cc6lLBEI.s:24603  .debug_str:0000000000000bb0 .LASF1419
C:\Users\stapi\AppData\Local\Temp\cc6lLBEI.s:25689  .debug_str:0000000000002be4 .LASF1420
C:\Users\stapi\AppData\Local\Temp\cc6lLBEI.s:25597  .debug_str:0000000000002902 .LASF1421
C:\Users\stapi\AppData\Local\Temp\cc6lLBEI.s:24555  .debug_str:0000000000000a2f .LASF1422
C:\Users\stapi\AppData\Local\Temp\cc6lLBEI.s:25913  .debug_str:00000000000032d5 .LASF1423
C:\Users\stapi\AppData\Local\Temp\cc6lLBEI.s:24287  .debug_str:000000000000029a .LASF1424
C:\Users\stapi\AppData\Local\Temp\cc6lLBEI.s:25721  .debug_str:0000000000002ce7 .LASF1425
C:\Users\stapi\AppData\Local\Temp\cc6lLBEI.s:27477  .debug_str:0000000000006277 .LASF1426
C:\Users\stapi\AppData\Local\Temp\cc6lLBEI.s:26571  .debug_str:00000000000047c4 .LASF1427
C:\Users\stapi\AppData\Local\Temp\cc6lLBEI.s:27637  .debug_str:000000000000678e .LASF1428
C:\Users\stapi\AppData\Local\Temp\cc6lLBEI.s:27315  .debug_str:0000000000005d71 .LASF1429
C:\Users\stapi\AppData\Local\Temp\cc6lLBEI.s:25563  .debug_str:00000000000027f5 .LASF1430
C:\Users\stapi\AppData\Local\Temp\cc6lLBEI.s:25257  .debug_str:0000000000001f26 .LASF1431
C:\Users\stapi\AppData\Local\Temp\cc6lLBEI.s:25553  .debug_str:0000000000002793 .LASF1432
C:\Users\stapi\AppData\Local\Temp\cc6lLBEI.s:26075  .debug_str:000000000000378b .LASF1433
C:\Users\stapi\AppData\Local\Temp\cc6lLBEI.s:25481  .debug_str:000000000000255c .LASF1434
C:\Users\stapi\AppData\Local\Temp\cc6lLBEI.s:27341  .debug_str:0000000000005e48 .LASF1435
C:\Users\stapi\AppData\Local\Temp\cc6lLBEI.s:25259  .debug_str:0000000000001f31 .LASF1436
C:\Users\stapi\AppData\Local\Temp\cc6lLBEI.s:24681  .debug_str:0000000000000dcc .LASF1437
C:\Users\stapi\AppData\Local\Temp\cc6lLBEI.s:26911  .debug_str:0000000000005109 .LASF1438
C:\Users\stapi\AppData\Local\Temp\cc6lLBEI.s:24341  .debug_str:000000000000042d .LASF1439
C:\Users\stapi\AppData\Local\Temp\cc6lLBEI.s:25279  .debug_str:0000000000001fcd .LASF1440
C:\Users\stapi\AppData\Local\Temp\cc6lLBEI.s:27403  .debug_str:000000000000600b .LASF1441
C:\Users\stapi\AppData\Local\Temp\cc6lLBEI.s:27261  .debug_str:0000000000005be1 .LASF1442
C:\Users\stapi\AppData\Local\Temp\cc6lLBEI.s:25893  .debug_str:000000000000322d .LASF1443
C:\Users\stapi\AppData\Local\Temp\cc6lLBEI.s:26425  .debug_str:0000000000004397 .LASF1444
C:\Users\stapi\AppData\Local\Temp\cc6lLBEI.s:26481  .debug_str:0000000000004549 .LASF1445
C:\Users\stapi\AppData\Local\Temp\cc6lLBEI.s:25337  .debug_str:000000000000216c .LASF1446
C:\Users\stapi\AppData\Local\Temp\cc6lLBEI.s:25291  .debug_str:0000000000002038 .LASF1447
C:\Users\stapi\AppData\Local\Temp\cc6lLBEI.s:26287  .debug_str:0000000000003f08 .LASF1448
C:\Users\stapi\AppData\Local\Temp\cc6lLBEI.s:25807  .debug_str:0000000000002fa7 .LASF1449
C:\Users\stapi\AppData\Local\Temp\cc6lLBEI.s:26341  .debug_str:00000000000040f3 .LASF1450
C:\Users\stapi\AppData\Local\Temp\cc6lLBEI.s:26177  .debug_str:0000000000003a8b .LASF1451
C:\Users\stapi\AppData\Local\Temp\cc6lLBEI.s:26281  .debug_str:0000000000003ede .LASF1452
C:\Users\stapi\AppData\Local\Temp\cc6lLBEI.s:26569  .debug_str:00000000000047bb .LASF1453
C:\Users\stapi\AppData\Local\Temp\cc6lLBEI.s:24419  .debug_str:0000000000000667 .LASF1454
C:\Users\stapi\AppData\Local\Temp\cc6lLBEI.s:27533  .debug_str:0000000000006417 .LASF1455
C:\Users\stapi\AppData\Local\Temp\cc6lLBEI.s:26265  .debug_str:0000000000003d86 .LASF1456
C:\Users\stapi\AppData\Local\Temp\cc6lLBEI.s:25341  .debug_str:000000000000218f .LASF1457
C:\Users\stapi\AppData\Local\Temp\cc6lLBEI.s:26155  .debug_str:00000000000039d7 .LASF1458
C:\Users\stapi\AppData\Local\Temp\cc6lLBEI.s:27467  .debug_str:000000000000622f .LASF1459
C:\Users\stapi\AppData\Local\Temp\cc6lLBEI.s:27291  .debug_str:0000000000005cce .LASF1460
C:\Users\stapi\AppData\Local\Temp\cc6lLBEI.s:24703  .debug_str:0000000000000e76 .LASF1461
C:\Users\stapi\AppData\Local\Temp\cc6lLBEI.s:25503  .debug_str:000000000000260c .LASF1462
C:\Users\stapi\AppData\Local\Temp\cc6lLBEI.s:25133  .debug_str:0000000000001b2b .LASF1463
C:\Users\stapi\AppData\Local\Temp\cc6lLBEI.s:24373  .debug_str:0000000000000530 .LASF1464
C:\Users\stapi\AppData\Local\Temp\cc6lLBEI.s:26727  .debug_str:0000000000004c1f .LASF1465
C:\Users\stapi\AppData\Local\Temp\cc6lLBEI.s:26683  .debug_str:0000000000004add .LASF1466
C:\Users\stapi\AppData\Local\Temp\cc6lLBEI.s:25335  .debug_str:0000000000002161 .LASF1467
C:\Users\stapi\AppData\Local\Temp\cc6lLBEI.s:26939  .debug_str:000000000000520f .LASF1468
C:\Users\stapi\AppData\Local\Temp\cc6lLBEI.s:24511  .debug_str:0000000000000921 .LASF1469
C:\Users\stapi\AppData\Local\Temp\cc6lLBEI.s:27469  .debug_str:0000000000006238 .LASF1470
C:\Users\stapi\AppData\Local\Temp\cc6lLBEI.s:24587  .debug_str:0000000000000b3f .LASF1471
C:\Users\stapi\AppData\Local\Temp\cc6lLBEI.s:27593  .debug_str:0000000000006653 .LASF1472
C:\Users\stapi\AppData\Local\Temp\cc6lLBEI.s:26363  .debug_str:0000000000004199 .LASF1473
C:\Users\stapi\AppData\Local\Temp\cc6lLBEI.s:26413  .debug_str:0000000000004333 .LASF1474
C:\Users\stapi\AppData\Local\Temp\cc6lLBEI.s:26761  .debug_str:0000000000004d19 .LASF1475
C:\Users\stapi\AppData\Local\Temp\cc6lLBEI.s:26115  .debug_str:0000000000003898 .LASF1476
C:\Users\stapi\AppData\Local\Temp\cc6lLBEI.s:26923  .debug_str:0000000000005192 .LASF1477
C:\Users\stapi\AppData\Local\Temp\cc6lLBEI.s:26387  .debug_str:0000000000004275 .LASF1478
C:\Users\stapi\AppData\Local\Temp\cc6lLBEI.s:25543  .debug_str:000000000000273e .LASF1479
C:\Users\stapi\AppData\Local\Temp\cc6lLBEI.s:27203  .debug_str:0000000000005a1f .LASF1480
C:\Users\stapi\AppData\Local\Temp\cc6lLBEI.s:27413  .debug_str:0000000000006063 .LASF1481
C:\Users\stapi\AppData\Local\Temp\cc6lLBEI.s:26217  .debug_str:0000000000003c18 .LASF1482
C:\Users\stapi\AppData\Local\Temp\cc6lLBEI.s:25759  .debug_str:0000000000002e1f .LASF1483
C:\Users\stapi\AppData\Local\Temp\cc6lLBEI.s:27053  .debug_str:0000000000005565 .LASF1484
C:\Users\stapi\AppData\Local\Temp\cc6lLBEI.s:27345  .debug_str:0000000000005e64 .LASF1485
C:\Users\stapi\AppData\Local\Temp\cc6lLBEI.s:24655  .debug_str:0000000000000d1a .LASF1486
C:\Users\stapi\AppData\Local\Temp\cc6lLBEI.s:26607  .debug_str:00000000000048c0 .LASF1487
C:\Users\stapi\AppData\Local\Temp\cc6lLBEI.s:26047  .debug_str:00000000000036b4 .LASF1488
C:\Users\stapi\AppData\Local\Temp\cc6lLBEI.s:25559  .debug_str:00000000000027ce .LASF1489
C:\Users\stapi\AppData\Local\Temp\cc6lLBEI.s:26785  .debug_str:0000000000004dbe .LASF1490
C:\Users\stapi\AppData\Local\Temp\cc6lLBEI.s:27091  .debug_str:0000000000005690 .LASF1491
C:\Users\stapi\AppData\Local\Temp\cc6lLBEI.s:27337  .debug_str:0000000000005e22 .LASF1492
C:\Users\stapi\AppData\Local\Temp\cc6lLBEI.s:27215  .debug_str:0000000000005a7b .LASF1493
C:\Users\stapi\AppData\Local\Temp\cc6lLBEI.s:26895  .debug_str:000000000000508e .LASF1494
C:\Users\stapi\AppData\Local\Temp\cc6lLBEI.s:24301  .debug_str:00000000000002fd .LASF1495
C:\Users\stapi\AppData\Local\Temp\cc6lLBEI.s:25991  .debug_str:00000000000034fc .LASF1496
C:\Users\stapi\AppData\Local\Temp\cc6lLBEI.s:27619  .debug_str:00000000000066f6 .LASF1497
C:\Users\stapi\AppData\Local\Temp\cc6lLBEI.s:24749  .debug_str:0000000000001009 .LASF1498
C:\Users\stapi\AppData\Local\Temp\cc6lLBEI.s:25415  .debug_str:00000000000023a3 .LASF1499
C:\Users\stapi\AppData\Local\Temp\cc6lLBEI.s:27199  .debug_str:00000000000059fb .LASF1500
C:\Users\stapi\AppData\Local\Temp\cc6lLBEI.s:25395  .debug_str:0000000000002324 .LASF1501
C:\Users\stapi\AppData\Local\Temp\cc6lLBEI.s:25817  .debug_str:0000000000002ff9 .LASF1502
C:\Users\stapi\AppData\Local\Temp\cc6lLBEI.s:25639  .debug_str:0000000000002a49 .LASF1503
C:\Users\stapi\AppData\Local\Temp\cc6lLBEI.s:26673  .debug_str:0000000000004a8f .LASF1504
C:\Users\stapi\AppData\Local\Temp\cc6lLBEI.s:25103  .debug_str:0000000000001a4c .LASF1505
C:\Users\stapi\AppData\Local\Temp\cc6lLBEI.s:24569  .debug_str:0000000000000a94 .LASF1506
C:\Users\stapi\AppData\Local\Temp\cc6lLBEI.s:25615  .debug_str:0000000000002982 .LASF1507
C:\Users\stapi\AppData\Local\Temp\cc6lLBEI.s:27703  .debug_str:000000000000698e .LASF1508
C:\Users\stapi\AppData\Local\Temp\cc6lLBEI.s:25233  .debug_str:0000000000001e6b .LASF1509
C:\Users\stapi\AppData\Local\Temp\cc6lLBEI.s:26263  .debug_str:0000000000003d71 .LASF1510
C:\Users\stapi\AppData\Local\Temp\cc6lLBEI.s:26031  .debug_str:0000000000003625 .LASF1511
C:\Users\stapi\AppData\Local\Temp\cc6lLBEI.s:27183  .debug_str:0000000000005987 .LASF1512
C:\Users\stapi\AppData\Local\Temp\cc6lLBEI.s:25271  .debug_str:0000000000001f9a .LASF1513
C:\Users\stapi\AppData\Local\Temp\cc6lLBEI.s:26137  .debug_str:000000000000395e .LASF1514
C:\Users\stapi\AppData\Local\Temp\cc6lLBEI.s:24987  .debug_str:00000000000016d7 .LASF1515
C:\Users\stapi\AppData\Local\Temp\cc6lLBEI.s:26787  .debug_str:0000000000004dd1 .LASF1516
C:\Users\stapi\AppData\Local\Temp\cc6lLBEI.s:26651  .debug_str:00000000000049f0 .LASF1517
C:\Users\stapi\AppData\Local\Temp\cc6lLBEI.s:27361  .debug_str:0000000000005ec7 .LASF1518
C:\Users\stapi\AppData\Local\Temp\cc6lLBEI.s:26297  .debug_str:0000000000003f88 .LASF1519
C:\Users\stapi\AppData\Local\Temp\cc6lLBEI.s:26843  .debug_str:0000000000004f42 .LASF1520
C:\Users\stapi\AppData\Local\Temp\cc6lLBEI.s:26499  .debug_str:00000000000045c9 .LASF1521
C:\Users\stapi\AppData\Local\Temp\cc6lLBEI.s:25265  .debug_str:0000000000001f69 .LASF1522
C:\Users\stapi\AppData\Local\Temp\cc6lLBEI.s:25017  .debug_str:00000000000017b5 .LASF1523
C:\Users\stapi\AppData\Local\Temp\cc6lLBEI.s:24881  .debug_str:00000000000013f9 .LASF1524
C:\Users\stapi\AppData\Local\Temp\cc6lLBEI.s:27657  .debug_str:0000000000006835 .LASF1525
C:\Users\stapi\AppData\Local\Temp\cc6lLBEI.s:26437  .debug_str:00000000000043d9 .LASF1526
C:\Users\stapi\AppData\Local\Temp\cc6lLBEI.s:26839  .debug_str:0000000000004f21 .LASF1527
C:\Users\stapi\AppData\Local\Temp\cc6lLBEI.s:24857  .debug_str:0000000000001338 .LASF1528
C:\Users\stapi\AppData\Local\Temp\cc6lLBEI.s:26099  .debug_str:000000000000382c .LASF1529
C:\Users\stapi\AppData\Local\Temp\cc6lLBEI.s:26931  .debug_str:00000000000051cf .LASF1530
C:\Users\stapi\AppData\Local\Temp\cc6lLBEI.s:24235  .debug_str:00000000000000d4 .LASF1531
C:\Users\stapi\AppData\Local\Temp\cc6lLBEI.s:24399  .debug_str:00000000000005c8 .LASF1532
C:\Users\stapi\AppData\Local\Temp\cc6lLBEI.s:25177  .debug_str:0000000000001c62 .LASF1533
C:\Users\stapi\AppData\Local\Temp\cc6lLBEI.s:27287  .debug_str:0000000000005cb2 .LASF1534
C:\Users\stapi\AppData\Local\Temp\cc6lLBEI.s:26685  .debug_str:0000000000004ae6 .LASF1535
C:\Users\stapi\AppData\Local\Temp\cc6lLBEI.s:27161  .debug_str:00000000000058f5 .LASF1536
C:\Users\stapi\AppData\Local\Temp\cc6lLBEI.s:26765  .debug_str:0000000000004d2f .LASF1537
C:\Users\stapi\AppData\Local\Temp\cc6lLBEI.s:26635  .debug_str:0000000000004992 .LASF1538
C:\Users\stapi\AppData\Local\Temp\cc6lLBEI.s:25213  .debug_str:0000000000001dd9 .LASF1539
C:\Users\stapi\AppData\Local\Temp\cc6lLBEI.s:26751  .debug_str:0000000000004cc9 .LASF1540
C:\Users\stapi\AppData\Local\Temp\cc6lLBEI.s:27269  .debug_str:0000000000005c23 .LASF1541
C:\Users\stapi\AppData\Local\Temp\cc6lLBEI.s:24229  .debug_str:00000000000000a8 .LASF1542
C:\Users\stapi\AppData\Local\Temp\cc6lLBEI.s:26267  .debug_str:0000000000003d8f .LASF1543
C:\Users\stapi\AppData\Local\Temp\cc6lLBEI.s:26337  .debug_str:00000000000040ca .LASF1544
C:\Users\stapi\AppData\Local\Temp\cc6lLBEI.s:26033  .debug_str:000000000000363f .LASF1545
C:\Users\stapi\AppData\Local\Temp\cc6lLBEI.s:26883  .debug_str:0000000000005047 .LASF1546
C:\Users\stapi\AppData\Local\Temp\cc6lLBEI.s:25425  .debug_str:00000000000023dd .LASF1547
C:\Users\stapi\AppData\Local\Temp\cc6lLBEI.s:24455  .debug_str:000000000000076c .LASF1548
C:\Users\stapi\AppData\Local\Temp\cc6lLBEI.s:27095  .debug_str:00000000000056c1 .LASF1549
C:\Users\stapi\AppData\Local\Temp\cc6lLBEI.s:24325  .debug_str:00000000000003c1 .LASF1550
C:\Users\stapi\AppData\Local\Temp\cc6lLBEI.s:25547  .debug_str:0000000000002761 .LASF1551
C:\Users\stapi\AppData\Local\Temp\cc6lLBEI.s:25769  .debug_str:0000000000002e6a .LASF1552
C:\Users\stapi\AppData\Local\Temp\cc6lLBEI.s:25845  .debug_str:00000000000030f8 .LASF1553
C:\Users\stapi\AppData\Local\Temp\cc6lLBEI.s:25601  .debug_str:0000000000002920 .LASF1554
C:\Users\stapi\AppData\Local\Temp\cc6lLBEI.s:26981  .debug_str:000000000000533b .LASF1555
C:\Users\stapi\AppData\Local\Temp\cc6lLBEI.s:25457  .debug_str:00000000000024cc .LASF1556
C:\Users\stapi\AppData\Local\Temp\cc6lLBEI.s:26503  .debug_str:00000000000045f9 .LASF1557
C:\Users\stapi\AppData\Local\Temp\cc6lLBEI.s:24393  .debug_str:0000000000000593 .LASF1558
C:\Users\stapi\AppData\Local\Temp\cc6lLBEI.s:26121  .debug_str:00000000000038db .LASF1559
C:\Users\stapi\AppData\Local\Temp\cc6lLBEI.s:26737  .debug_str:0000000000004c6d .LASF1560
C:\Users\stapi\AppData\Local\Temp\cc6lLBEI.s:25155  .debug_str:0000000000001bd5 .LASF1561
C:\Users\stapi\AppData\Local\Temp\cc6lLBEI.s:24897  .debug_str:000000000000147e .LASF1562
C:\Users\stapi\AppData\Local\Temp\cc6lLBEI.s:25761  .debug_str:0000000000002e2f .LASF1563
C:\Users\stapi\AppData\Local\Temp\cc6lLBEI.s:27549  .debug_str:000000000000648b .LASF1564
C:\Users\stapi\AppData\Local\Temp\cc6lLBEI.s:25315  .debug_str:00000000000020ea .LASF1565
C:\Users\stapi\AppData\Local\Temp\cc6lLBEI.s:27253  .debug_str:0000000000005b92 .LASF1566
C:\Users\stapi\AppData\Local\Temp\cc6lLBEI.s:26475  .debug_str:000000000000451a .LASF1567
C:\Users\stapi\AppData\Local\Temp\cc6lLBEI.s:26831  .debug_str:0000000000004ef8 .LASF1568
C:\Users\stapi\AppData\Local\Temp\cc6lLBEI.s:26909  .debug_str:00000000000050f7 .LASF1569
C:\Users\stapi\AppData\Local\Temp\cc6lLBEI.s:26307  .debug_str:0000000000003fc9 .LASF1570
C:\Users\stapi\AppData\Local\Temp\cc6lLBEI.s:26633  .debug_str:000000000000497e .LASF1571
C:\Users\stapi\AppData\Local\Temp\cc6lLBEI.s:24579  .debug_str:0000000000000af4 .LASF1572
C:\Users\stapi\AppData\Local\Temp\cc6lLBEI.s:26919  .debug_str:0000000000005162 .LASF1573
C:\Users\stapi\AppData\Local\Temp\cc6lLBEI.s:25647  .debug_str:0000000000002a91 .LASF1574
C:\Users\stapi\AppData\Local\Temp\cc6lLBEI.s:25303  .debug_str:0000000000002093 .LASF1575
C:\Users\stapi\AppData\Local\Temp\cc6lLBEI.s:24565  .debug_str:0000000000000a71 .LASF1576
C:\Users\stapi\AppData\Local\Temp\cc6lLBEI.s:27481  .debug_str:0000000000006298 .LASF1577
C:\Users\stapi\AppData\Local\Temp\cc6lLBEI.s:26211  .debug_str:0000000000003be2 .LASF1578
C:\Users\stapi\AppData\Local\Temp\cc6lLBEI.s:26823  .debug_str:0000000000004ebd .LASF1579
C:\Users\stapi\AppData\Local\Temp\cc6lLBEI.s:24939  .debug_str:00000000000015ae .LASF1580
C:\Users\stapi\AppData\Local\Temp\cc6lLBEI.s:24965  .debug_str:0000000000001648 .LASF1581
C:\Users\stapi\AppData\Local\Temp\cc6lLBEI.s:27039  .debug_str:00000000000054f7 .LASF1582
C:\Users\stapi\AppData\Local\Temp\cc6lLBEI.s:27731  .debug_str:0000000000006a6f .LASF1583
C:\Users\stapi\AppData\Local\Temp\cc6lLBEI.s:27687  .debug_str:0000000000006925 .LASF1584
C:\Users\stapi\AppData\Local\Temp\cc6lLBEI.s:26515  .debug_str:000000000000464e .LASF1585
C:\Users\stapi\AppData\Local\Temp\cc6lLBEI.s:24763  .debug_str:0000000000001049 .LASF1586
C:\Users\stapi\AppData\Local\Temp\cc6lLBEI.s:27673  .debug_str:00000000000068aa .LASF1587
C:\Users\stapi\AppData\Local\Temp\cc6lLBEI.s:27705  .debug_str:00000000000069a7 .LASF1588
C:\Users\stapi\AppData\Local\Temp\cc6lLBEI.s:24375  .debug_str:000000000000053a .LASF1589
C:\Users\stapi\AppData\Local\Temp\cc6lLBEI.s:26105  .debug_str:0000000000003861 .LASF1590
C:\Users\stapi\AppData\Local\Temp\cc6lLBEI.s:26497  .debug_str:00000000000045c2 .LASF1591
C:\Users\stapi\AppData\Local\Temp\cc6lLBEI.s:26255  .debug_str:0000000000003d43 .LASF1592
C:\Users\stapi\AppData\Local\Temp\cc6lLBEI.s:27375  .debug_str:0000000000005f4e .LASF1593
C:\Users\stapi\AppData\Local\Temp\cc6lLBEI.s:24465  .debug_str:00000000000007ab .LASF1594
C:\Users\stapi\AppData\Local\Temp\cc6lLBEI.s:26531  .debug_str:00000000000046b3 .LASF1595
C:\Users\stapi\AppData\Local\Temp\cc6lLBEI.s:27365  .debug_str:0000000000005ee6 .LASF1596
C:\Users\stapi\AppData\Local\Temp\cc6lLBEI.s:24585  .debug_str:0000000000000b29 .LASF1597
C:\Users\stapi\AppData\Local\Temp\cc6lLBEI.s:25319  .debug_str:00000000000020fa .LASF1598
C:\Users\stapi\AppData\Local\Temp\cc6lLBEI.s:25969  .debug_str:0000000000003471 .LASF1599
C:\Users\stapi\AppData\Local\Temp\cc6lLBEI.s:25965  .debug_str:000000000000344c .LASF1600
C:\Users\stapi\AppData\Local\Temp\cc6lLBEI.s:26637  .debug_str:000000000000499d .LASF1601
C:\Users\stapi\AppData\Local\Temp\cc6lLBEI.s:26879  .debug_str:0000000000005032 .LASF1602
C:\Users\stapi\AppData\Local\Temp\cc6lLBEI.s:27135  .debug_str:0000000000005823 .LASF1603
C:\Users\stapi\AppData\Local\Temp\cc6lLBEI.s:27757  .debug_str:0000000000006b2a .LASF1604
C:\Users\stapi\AppData\Local\Temp\cc6lLBEI.s:26125  .debug_str:0000000000003905 .LASF1605
C:\Users\stapi\AppData\Local\Temp\cc6lLBEI.s:24671  .debug_str:0000000000000d9d .LASF1606
C:\Users\stapi\AppData\Local\Temp\cc6lLBEI.s:25977  .debug_str:000000000000349c .LASF1607
C:\Users\stapi\AppData\Local\Temp\cc6lLBEI.s:25921  .debug_str:0000000000003307 .LASF1608
C:\Users\stapi\AppData\Local\Temp\cc6lLBEI.s:27699  .debug_str:0000000000006973 .LASF1609
C:\Users\stapi\AppData\Local\Temp\cc6lLBEI.s:25037  .debug_str:0000000000001870 .LASF1610
C:\Users\stapi\AppData\Local\Temp\cc6lLBEI.s:25661  .debug_str:0000000000002afd .LASF1611
C:\Users\stapi\AppData\Local\Temp\cc6lLBEI.s:27725  .debug_str:0000000000006a36 .LASF1612
C:\Users\stapi\AppData\Local\Temp\cc6lLBEI.s:26871  .debug_str:0000000000004ff6 .LASF1613
C:\Users\stapi\AppData\Local\Temp\cc6lLBEI.s:25407  .debug_str:0000000000002361 .LASF1614
C:\Users\stapi\AppData\Local\Temp\cc6lLBEI.s:24745  .debug_str:0000000000000fe1 .LASF1615
C:\Users\stapi\AppData\Local\Temp\cc6lLBEI.s:27605  .debug_str:0000000000006691 .LASF1616
C:\Users\stapi\AppData\Local\Temp\cc6lLBEI.s:26853  .debug_str:0000000000004f92 .LASF1617
C:\Users\stapi\AppData\Local\Temp\cc6lLBEI.s:24255  .debug_str:0000000000000189 .LASF1618
C:\Users\stapi\AppData\Local\Temp\cc6lLBEI.s:25377  .debug_str:0000000000002295 .LASF1619
C:\Users\stapi\AppData\Local\Temp\cc6lLBEI.s:24237  .debug_str:00000000000000e4 .LASF1620
C:\Users\stapi\AppData\Local\Temp\cc6lLBEI.s:25577  .debug_str:000000000000286a .LASF1621
C:\Users\stapi\AppData\Local\Temp\cc6lLBEI.s:24259  .debug_str:00000000000001af .LASF1622
C:\Users\stapi\AppData\Local\Temp\cc6lLBEI.s:25517  .debug_str:000000000000268a .LASF1623
C:\Users\stapi\AppData\Local\Temp\cc6lLBEI.s:26997  .debug_str:00000000000053c6 .LASF1624
C:\Users\stapi\AppData\Local\Temp\cc6lLBEI.s:24685  .debug_str:0000000000000dfc .LASF1625
C:\Users\stapi\AppData\Local\Temp\cc6lLBEI.s:25031  .debug_str:0000000000001834 .LASF1626
C:\Users\stapi\AppData\Local\Temp\cc6lLBEI.s:25161  .debug_str:0000000000001bfa .LASF1627
C:\Users\stapi\AppData\Local\Temp\cc6lLBEI.s:27207  .debug_str:0000000000005a39 .LASF1628
C:\Users\stapi\AppData\Local\Temp\cc6lLBEI.s:27333  .debug_str:0000000000005e00 .LASF1629
C:\Users\stapi\AppData\Local\Temp\cc6lLBEI.s:26069  .debug_str:0000000000003763 .LASF1630
C:\Users\stapi\AppData\Local\Temp\cc6lLBEI.s:25595  .debug_str:00000000000028fb .LASF1631
C:\Users\stapi\AppData\Local\Temp\cc6lLBEI.s:25007  .debug_str:000000000000176e .LASF1632
C:\Users\stapi\AppData\Local\Temp\cc6lLBEI.s:25795  .debug_str:0000000000002f26 .LASF1633
C:\Users\stapi\AppData\Local\Temp\cc6lLBEI.s:25183  .debug_str:0000000000001c88 .LASF1634
C:\Users\stapi\AppData\Local\Temp\cc6lLBEI.s:25663  .debug_str:0000000000002b0d .LASF1635
C:\Users\stapi\AppData\Local\Temp\cc6lLBEI.s:26941  .debug_str:000000000000521d .LASF1636
C:\Users\stapi\AppData\Local\Temp\cc6lLBEI.s:27617  .debug_str:00000000000066e7 .LASF1637
C:\Users\stapi\AppData\Local\Temp\cc6lLBEI.s:25071  .debug_str:000000000000196e .LASF1638
C:\Users\stapi\AppData\Local\Temp\cc6lLBEI.s:26487  .debug_str:0000000000004564 .LASF1639
C:\Users\stapi\AppData\Local\Temp\cc6lLBEI.s:24405  .debug_str:00000000000005f6 .LASF1640
C:\Users\stapi\AppData\Local\Temp\cc6lLBEI.s:25151  .debug_str:0000000000001bab .LASF1641
C:\Users\stapi\AppData\Local\Temp\cc6lLBEI.s:25131  .debug_str:0000000000001b1b .LASF1642
C:\Users\stapi\AppData\Local\Temp\cc6lLBEI.s:25089  .debug_str:00000000000019ed .LASF1643
C:\Users\stapi\AppData\Local\Temp\cc6lLBEI.s:27571  .debug_str:00000000000065a7 .LASF1644
C:\Users\stapi\AppData\Local\Temp\cc6lLBEI.s:27145  .debug_str:0000000000005877 .LASF1645
C:\Users\stapi\AppData\Local\Temp\cc6lLBEI.s:26193  .debug_str:0000000000003b44 .LASF1646
C:\Users\stapi\AppData\Local\Temp\cc6lLBEI.s:27671  .debug_str:000000000000689b .LASF1647
C:\Users\stapi\AppData\Local\Temp\cc6lLBEI.s:26767  .debug_str:0000000000004d3d .LASF1648
C:\Users\stapi\AppData\Local\Temp\cc6lLBEI.s:24967  .debug_str:0000000000001655 .LASF1649
C:\Users\stapi\AppData\Local\Temp\cc6lLBEI.s:26439  .debug_str:00000000000043e9 .LASF1650
C:\Users\stapi\AppData\Local\Temp\cc6lLBEI.s:24823  .debug_str:0000000000001230 .LASF1651
C:\Users\stapi\AppData\Local\Temp\cc6lLBEI.s:27163  .debug_str:0000000000005907 .LASF1652
C:\Users\stapi\AppData\Local\Temp\cc6lLBEI.s:25099  .debug_str:0000000000001a30 .LASF1653
C:\Users\stapi\AppData\Local\Temp\cc6lLBEI.s:26223  .debug_str:0000000000003c39 .LASF1654
C:\Users\stapi\AppData\Local\Temp\cc6lLBEI.s:27475  .debug_str:000000000000626c .LASF1655
C:\Users\stapi\AppData\Local\Temp\cc6lLBEI.s:27081  .debug_str:000000000000563d .LASF1656
C:\Users\stapi\AppData\Local\Temp\cc6lLBEI.s:24951  .debug_str:00000000000015ec .LASF1657
C:\Users\stapi\AppData\Local\Temp\cc6lLBEI.s:24909  .debug_str:00000000000014cb .LASF1658
C:\Users\stapi\AppData\Local\Temp\cc6lLBEI.s:24999  .debug_str:000000000000172e .LASF1659
C:\Users\stapi\AppData\Local\Temp\cc6lLBEI.s:26081  .debug_str:00000000000037b9 .LASF1660
C:\Users\stapi\AppData\Local\Temp\cc6lLBEI.s:24367  .debug_str:00000000000004f3 .LASF1661
C:\Users\stapi\AppData\Local\Temp\cc6lLBEI.s:24921  .debug_str:0000000000001532 .LASF1662
C:\Users\stapi\AppData\Local\Temp\cc6lLBEI.s:26525  .debug_str:0000000000004684 .LASF1663
C:\Users\stapi\AppData\Local\Temp\cc6lLBEI.s:24267  .debug_str:00000000000001e9 .LASF1664
C:\Users\stapi\AppData\Local\Temp\cc6lLBEI.s:26783  .debug_str:0000000000004daa .LASF1665
C:\Users\stapi\AppData\Local\Temp\cc6lLBEI.s:27159  .debug_str:00000000000058dc .LASF1666
C:\Users\stapi\AppData\Local\Temp\cc6lLBEI.s:27037  .debug_str:00000000000054e3 .LASF1667
C:\Users\stapi\AppData\Local\Temp\cc6lLBEI.s:24415  .debug_str:0000000000000629 .LASF1668
C:\Users\stapi\AppData\Local\Temp\cc6lLBEI.s:26841  .debug_str:0000000000004f33 .LASF1669
C:\Users\stapi\AppData\Local\Temp\cc6lLBEI.s:25565  .debug_str:000000000000280c .LASF1670
C:\Users\stapi\AppData\Local\Temp\cc6lLBEI.s:25681  .debug_str:0000000000002ba2 .LASF1671
C:\Users\stapi\AppData\Local\Temp\cc6lLBEI.s:27379  .debug_str:0000000000005f74 .LASF1672
C:\Users\stapi\AppData\Local\Temp\cc6lLBEI.s:27107  .debug_str:000000000000571c .LASF1673
C:\Users\stapi\AppData\Local\Temp\cc6lLBEI.s:24459  .debug_str:000000000000077d .LASF1674
C:\Users\stapi\AppData\Local\Temp\cc6lLBEI.s:25979  .debug_str:00000000000034ab .LASF1675
C:\Users\stapi\AppData\Local\Temp\cc6lLBEI.s:27611  .debug_str:00000000000066bf .LASF1676
C:\Users\stapi\AppData\Local\Temp\cc6lLBEI.s:27775  .debug_str:0000000000006bd0 .LASF1677
C:\Users\stapi\AppData\Local\Temp\cc6lLBEI.s:26775  .debug_str:0000000000004d80 .LASF1678
C:\Users\stapi\AppData\Local\Temp\cc6lLBEI.s:25803  .debug_str:0000000000002f7f .LASF1679
C:\Users\stapi\AppData\Local\Temp\cc6lLBEI.s:27581  .debug_str:00000000000065f9 .LASF1680
C:\Users\stapi\AppData\Local\Temp\cc6lLBEI.s:25093  .debug_str:0000000000001a01 .LASF1681
C:\Users\stapi\AppData\Local\Temp\cc6lLBEI.s:27639  .debug_str:0000000000006798 .LASF1682
C:\Users\stapi\AppData\Local\Temp\cc6lLBEI.s:26357  .debug_str:000000000000415c .LASF1683
C:\Users\stapi\AppData\Local\Temp\cc6lLBEI.s:26513  .debug_str:0000000000004646 .LASF1684
C:\Users\stapi\AppData\Local\Temp\cc6lLBEI.s:26103  .debug_str:0000000000003846 .LASF1685
C:\Users\stapi\AppData\Local\Temp\cc6lLBEI.s:25903  .debug_str:0000000000003278 .LASF1686
C:\Users\stapi\AppData\Local\Temp\cc6lLBEI.s:26797  .debug_str:0000000000004e14 .LASF1687
C:\Users\stapi\AppData\Local\Temp\cc6lLBEI.s:27367  .debug_str:0000000000005efd .LASF1688
C:\Users\stapi\AppData\Local\Temp\cc6lLBEI.s:25387  .debug_str:00000000000022e0 .LASF1689
C:\Users\stapi\AppData\Local\Temp\cc6lLBEI.s:26401  .debug_str:00000000000042c5 .LASF1690
C:\Users\stapi\AppData\Local\Temp\cc6lLBEI.s:24777  .debug_str:00000000000010df .LASF1691
C:\Users\stapi\AppData\Local\Temp\cc6lLBEI.s:27435  .debug_str:000000000000614a .LASF1692
C:\Users\stapi\AppData\Local\Temp\cc6lLBEI.s:27201  .debug_str:0000000000005a0a .LASF1693
C:\Users\stapi\AppData\Local\Temp\cc6lLBEI.s:24273  .debug_str:0000000000000222 .LASF1694
C:\Users\stapi\AppData\Local\Temp\cc6lLBEI.s:24993  .debug_str:000000000000170c .LASF1695
C:\Users\stapi\AppData\Local\Temp\cc6lLBEI.s:25249  .debug_str:0000000000001ef2 .LASF1696
C:\Users\stapi\AppData\Local\Temp\cc6lLBEI.s:26407  .debug_str:00000000000042f6 .LASF1697
C:\Users\stapi\AppData\Local\Temp\cc6lLBEI.s:26707  .debug_str:0000000000004ba4 .LASF1698
C:\Users\stapi\AppData\Local\Temp\cc6lLBEI.s:25593  .debug_str:00000000000028e7 .LASF1699
C:\Users\stapi\AppData\Local\Temp\cc6lLBEI.s:25673  .debug_str:0000000000002b63 .LASF1700
C:\Users\stapi\AppData\Local\Temp\cc6lLBEI.s:25029  .debug_str:0000000000001819 .LASF1701
C:\Users\stapi\AppData\Local\Temp\cc6lLBEI.s:25487  .debug_str:0000000000002586 .LASF1702
C:\Users\stapi\AppData\Local\Temp\cc6lLBEI.s:26587  .debug_str:0000000000004834 .LASF1703
C:\Users\stapi\AppData\Local\Temp\cc6lLBEI.s:26661  .debug_str:0000000000004a3b .LASF1704
C:\Users\stapi\AppData\Local\Temp\cc6lLBEI.s:24571  .debug_str:0000000000000aac .LASF1705
C:\Users\stapi\AppData\Local\Temp\cc6lLBEI.s:27023  .debug_str:000000000000547a .LASF1706
C:\Users\stapi\AppData\Local\Temp\cc6lLBEI.s:24635  .debug_str:0000000000000c9d .LASF1707
C:\Users\stapi\AppData\Local\Temp\cc6lLBEI.s:26921  .debug_str:000000000000517f .LASF1708
C:\Users\stapi\AppData\Local\Temp\cc6lLBEI.s:27645  .debug_str:00000000000067be .LASF1709
C:\Users\stapi\AppData\Local\Temp\cc6lLBEI.s:26829  .debug_str:0000000000004eee .LASF1710
C:\Users\stapi\AppData\Local\Temp\cc6lLBEI.s:27587  .debug_str:000000000000662d .LASF1711
C:\Users\stapi\AppData\Local\Temp\cc6lLBEI.s:24617  .debug_str:0000000000000c0c .LASF1712
C:\Users\stapi\AppData\Local\Temp\cc6lLBEI.s:25877  .debug_str:00000000000031d1 .LASF1713
C:\Users\stapi\AppData\Local\Temp\cc6lLBEI.s:25697  .debug_str:0000000000002c1e .LASF1714
C:\Users\stapi\AppData\Local\Temp\cc6lLBEI.s:24553  .debug_str:0000000000000a22 .LASF1715
C:\Users\stapi\AppData\Local\Temp\cc6lLBEI.s:25857  .debug_str:0000000000003155 .LASF1716
C:\Users\stapi\AppData\Local\Temp\cc6lLBEI.s:26521  .debug_str:0000000000004674 .LASF1717
C:\Users\stapi\AppData\Local\Temp\cc6lLBEI.s:26929  .debug_str:00000000000051c6 .LASF1718
C:\Users\stapi\AppData\Local\Temp\cc6lLBEI.s:24995  .debug_str:0000000000001718 .LASF1719
C:\Users\stapi\AppData\Local\Temp\cc6lLBEI.s:24513  .debug_str:0000000000000935 .LASF1720
C:\Users\stapi\AppData\Local\Temp\cc6lLBEI.s:24497  .debug_str:00000000000008b9 .LASF1721
C:\Users\stapi\AppData\Local\Temp\cc6lLBEI.s:27793  .debug_str:0000000000006c6e .LASF1722
C:\Users\stapi\AppData\Local\Temp\cc6lLBEI.s:25081  .debug_str:00000000000019ac .LASF1723
C:\Users\stapi\AppData\Local\Temp\cc6lLBEI.s:24773  .debug_str:00000000000010c5 .LASF1724
C:\Users\stapi\AppData\Local\Temp\cc6lLBEI.s:1608   .text.hostapd_deinit_wpa:0000000000000000 .LFB201
C:\Users\stapi\AppData\Local\Temp\cc6lLBEI.s:1691   .text.hostapd_deinit_wpa:000000000000008c .LFE201
C:\Users\stapi\AppData\Local\Temp\cc6lLBEI.s:26953  .debug_str:0000000000005273 .LASF1726
C:\Users\stapi\AppData\Local\Temp\cc6lLBEI.s:22717  .debug_loc:0000000000000000 .LLST85
C:\Users\stapi\AppData\Local\Temp\cc6lLBEI.s:1621   .text.hostapd_deinit_wpa:0000000000000012 .LVL137
C:\Users\stapi\AppData\Local\Temp\cc6lLBEI.s:1640   .text.hostapd_deinit_wpa:0000000000000028 .LVL139
C:\Users\stapi\AppData\Local\Temp\cc6lLBEI.s:1653   .text.hostapd_deinit_wpa:000000000000003e .LVL140
C:\Users\stapi\AppData\Local\Temp\cc6lLBEI.s:1662   .text.hostapd_deinit_wpa:0000000000000054 .LVL141
C:\Users\stapi\AppData\Local\Temp\cc6lLBEI.s:1674   .text.hostapd_deinit_wpa:000000000000006e .LVL142
C:\Users\stapi\AppData\Local\Temp\cc6lLBEI.s:1683   .text.hostapd_deinit_wpa:0000000000000084 .LVL143
C:\Users\stapi\AppData\Local\Temp\cc6lLBEI.s:27083  .debug_str:0000000000005650 .LASF1725
C:\Users\stapi\AppData\Local\Temp\cc6lLBEI.s:1556   .text.hostapd_reconfig_wpa:0000000000000000 .LFB200
C:\Users\stapi\AppData\Local\Temp\cc6lLBEI.s:1591   .text.hostapd_reconfig_wpa:0000000000000030 .LFE200
C:\Users\stapi\AppData\Local\Temp\cc6lLBEI.s:22728  .debug_loc:000000000000001e .LLST84
C:\Users\stapi\AppData\Local\Temp\cc6lLBEI.s:26577  .debug_str:00000000000047e9 .LASF1727
C:\Users\stapi\AppData\Local\Temp\cc6lLBEI.s:1577   .text.hostapd_reconfig_wpa:0000000000000018 .LVL134
C:\Users\stapi\AppData\Local\Temp\cc6lLBEI.s:1582   .text.hostapd_reconfig_wpa:0000000000000026 .LVL135
C:\Users\stapi\AppData\Local\Temp\cc6lLBEI.s:26077  .debug_str:0000000000003799 .LASF1739
C:\Users\stapi\AppData\Local\Temp\cc6lLBEI.s:1297   .text.hostapd_setup_wpa:0000000000000000 .LFB199
C:\Users\stapi\AppData\Local\Temp\cc6lLBEI.s:1549   .text.hostapd_setup_wpa:000000000000016a .LFE199
C:\Users\stapi\AppData\Local\Temp\cc6lLBEI.s:22739  .debug_loc:000000000000003c .LLST82
C:\Users\stapi\AppData\Local\Temp\cc6lLBEI.s:24401  .debug_str:00000000000005da .LASF1728
C:\Users\stapi\AppData\Local\Temp\cc6lLBEI.s:22767  .debug_loc:0000000000000081 .LLST83
C:\Users\stapi\AppData\Local\Temp\cc6lLBEI.s:1321   .text.hostapd_setup_wpa:0000000000000018 .LVL117
C:\Users\stapi\AppData\Local\Temp\cc6lLBEI.s:1380   .text.hostapd_setup_wpa:000000000000006e .LVL118
C:\Users\stapi\AppData\Local\Temp\cc6lLBEI.s:1401   .text.hostapd_setup_wpa:0000000000000096 .LVL119
C:\Users\stapi\AppData\Local\Temp\cc6lLBEI.s:1451   .text.hostapd_setup_wpa:00000000000000e4 .LVL120
C:\Users\stapi\AppData\Local\Temp\cc6lLBEI.s:1464   .text.hostapd_setup_wpa:00000000000000fc .LVL121
C:\Users\stapi\AppData\Local\Temp\cc6lLBEI.s:1478   .text.hostapd_setup_wpa:000000000000010e .LVL122
C:\Users\stapi\AppData\Local\Temp\cc6lLBEI.s:1487   .text.hostapd_setup_wpa:0000000000000124 .LVL123
C:\Users\stapi\AppData\Local\Temp\cc6lLBEI.s:1510   .text.hostapd_setup_wpa:000000000000013e .LVL126
C:\Users\stapi\AppData\Local\Temp\cc6lLBEI.s:1521   .text.hostapd_setup_wpa:000000000000014c .LVL129
C:\Users\stapi\AppData\Local\Temp\cc6lLBEI.s:25193  .debug_str:0000000000001cd5 .LASF1729
C:\Users\stapi\AppData\Local\Temp\cc6lLBEI.s:291    .text.hostapd_wpa_auth_update_vlan:0000000000000000 .LFB198
C:\Users\stapi\AppData\Local\Temp\cc6lLBEI.s:301    .text.hostapd_wpa_auth_update_vlan:0000000000000004 .LFE198
C:\Users\stapi\AppData\Local\Temp\cc6lLBEI.s:22778  .debug_loc:000000000000009f .LLST18
C:\Users\stapi\AppData\Local\Temp\cc6lLBEI.s:26001  .debug_str:000000000000354d .LASF1730
C:\Users\stapi\AppData\Local\Temp\cc6lLBEI.s:246    .text.hostapd_channel_info:0000000000000000 .LFB197
C:\Users\stapi\AppData\Local\Temp\cc6lLBEI.s:285    .text.hostapd_channel_info:000000000000001c .LFE197
C:\Users\stapi\AppData\Local\Temp\cc6lLBEI.s:22792  .debug_loc:00000000000000c0 .LLST13
C:\Users\stapi\AppData\Local\Temp\cc6lLBEI.s:22825  .debug_loc:0000000000000110 .LLST14
C:\Users\stapi\AppData\Local\Temp\cc6lLBEI.s:22843  .debug_loc:000000000000013c .LLST15
C:\Users\stapi\AppData\Local\Temp\cc6lLBEI.s:252    .text.hostapd_channel_info:0000000000000000 .LBB14
C:\Users\stapi\AppData\Local\Temp\cc6lLBEI.s:281    .text.hostapd_channel_info:000000000000001a .LBE14
C:\Users\stapi\AppData\Local\Temp\cc6lLBEI.s:22876  .debug_loc:000000000000018c .LLST16
C:\Users\stapi\AppData\Local\Temp\cc6lLBEI.s:22894  .debug_loc:00000000000001b8 .LLST17
C:\Users\stapi\AppData\Local\Temp\cc6lLBEI.s:272    .text.hostapd_channel_info:0000000000000016 .LVL23
C:\Users\stapi\AppData\Local\Temp\cc6lLBEI.s:24625  .debug_str:0000000000000c46 .LASF1731
C:\Users\stapi\AppData\Local\Temp\cc6lLBEI.s:230    .text.hostapd_wpa_auth_send_oui:0000000000000000 .LFB196
C:\Users\stapi\AppData\Local\Temp\cc6lLBEI.s:240    .text.hostapd_wpa_auth_send_oui:0000000000000004 .LFE196
C:\Users\stapi\AppData\Local\Temp\cc6lLBEI.s:22927  .debug_loc:0000000000000208 .LLST12
C:\Users\stapi\AppData\Local\Temp\cc6lLBEI.s:26511  .debug_str:000000000000463b .LASF1732
C:\Users\stapi\AppData\Local\Temp\cc6lLBEI.s:25607  .debug_str:000000000000294d .LASF1733
C:\Users\stapi\AppData\Local\Temp\cc6lLBEI.s:27791  .debug_str:0000000000006c52 .LASF1734
C:\Users\stapi\AppData\Local\Temp\cc6lLBEI.s:500    .text.hostapd_wpa_auth_send_ether:0000000000000000 .LFB195
C:\Users\stapi\AppData\Local\Temp\cc6lLBEI.s:608    .text.hostapd_wpa_auth_send_ether:00000000000000a0 .LFE195
C:\Users\stapi\AppData\Local\Temp\cc6lLBEI.s:22941  .debug_loc:0000000000000229 .LLST36
C:\Users\stapi\AppData\Local\Temp\cc6lLBEI.s:22970  .debug_loc:000000000000026e .LLST37
C:\Users\stapi\AppData\Local\Temp\cc6lLBEI.s:26023  .debug_str:00000000000035fa .LASF1735
C:\Users\stapi\AppData\Local\Temp\cc6lLBEI.s:22992  .debug_loc:00000000000002a5 .LLST38
C:\Users\stapi\AppData\Local\Temp\cc6lLBEI.s:23017  .debug_loc:00000000000002df .LLST39
C:\Users\stapi\AppData\Local\Temp\cc6lLBEI.s:23039  .debug_loc:0000000000000316 .LLST40
C:\Users\stapi\AppData\Local\Temp\cc6lLBEI.s:23061  .debug_loc:000000000000034d .LLST41
C:\Users\stapi\AppData\Local\Temp\cc6lLBEI.s:555    .text.hostapd_wpa_auth_send_ether:0000000000000032 .LVL51
C:\Users\stapi\AppData\Local\Temp\cc6lLBEI.s:565    .text.hostapd_wpa_auth_send_ether:0000000000000042 .LVL53
C:\Users\stapi\AppData\Local\Temp\cc6lLBEI.s:571    .text.hostapd_wpa_auth_send_ether:0000000000000054 .LVL54
C:\Users\stapi\AppData\Local\Temp\cc6lLBEI.s:588    .text.hostapd_wpa_auth_send_ether:000000000000007e .LVL55
C:\Users\stapi\AppData\Local\Temp\cc6lLBEI.s:597    .text.hostapd_wpa_auth_send_ether:0000000000000092 .LVL56
C:\Users\stapi\AppData\Local\Temp\cc6lLBEI.s:603    .text.hostapd_wpa_auth_send_ether:000000000000009e .LVL58
C:\Users\stapi\AppData\Local\Temp\cc6lLBEI.s:24769  .debug_str:000000000000108b .LASF1736
C:\Users\stapi\AppData\Local\Temp\cc6lLBEI.s:164    .text.hostapd_wpa_auth_for_each_auth:0000000000000000 .LFB194
C:\Users\stapi\AppData\Local\Temp\cc6lLBEI.s:224    .text.hostapd_wpa_auth_for_each_auth:0000000000000038 .LFE194
C:\Users\stapi\AppData\Local\Temp\cc6lLBEI.s:23090  .debug_loc:0000000000000392 .LLST8
C:\Users\stapi\AppData\Local\Temp\cc6lLBEI.s:23115  .debug_loc:00000000000003cc .LLST9
C:\Users\stapi\AppData\Local\Temp\cc6lLBEI.s:23143  .debug_loc:0000000000000410 .LLST10
C:\Users\stapi\AppData\Local\Temp\cc6lLBEI.s:23166  .debug_loc:0000000000000448 .LLST11
C:\Users\stapi\AppData\Local\Temp\cc6lLBEI.s:206    .text.hostapd_wpa_auth_for_each_auth:0000000000000028 .LVL16
C:\Users\stapi\AppData\Local\Temp\cc6lLBEI.s:25573  .debug_str:0000000000002849 .LASF1737
C:\Users\stapi\AppData\Local\Temp\cc6lLBEI.s:93     .text.wpa_auth_iface_iter:0000000000000000 .LFB193
C:\Users\stapi\AppData\Local\Temp\cc6lLBEI.s:158    .text.wpa_auth_iface_iter:0000000000000040 .LFE193
C:\Users\stapi\AppData\Local\Temp\cc6lLBEI.s:23191  .debug_loc:0000000000000482 .LLST4
C:\Users\stapi\AppData\Local\Temp\cc6lLBEI.s:23202  .debug_loc:00000000000004a0 .LLST5
C:\Users\stapi\AppData\Local\Temp\cc6lLBEI.s:23213  .debug_loc:00000000000004be .LLST6
C:\Users\stapi\AppData\Local\Temp\cc6lLBEI.s:23224  .debug_loc:00000000000004dc .LLST7
C:\Users\stapi\AppData\Local\Temp\cc6lLBEI.s:26385  .debug_str:0000000000004257 .LASF1738
C:\Users\stapi\AppData\Local\Temp\cc6lLBEI.s:27     .text.hostapd_wpa_auth_for_each_sta:0000000000000000 .LFB192
C:\Users\stapi\AppData\Local\Temp\cc6lLBEI.s:87     .text.hostapd_wpa_auth_for_each_sta:000000000000002e .LFE192
C:\Users\stapi\AppData\Local\Temp\cc6lLBEI.s:23236  .debug_loc:00000000000004fb .LLST0
C:\Users\stapi\AppData\Local\Temp\cc6lLBEI.s:23250  .debug_loc:000000000000051c .LLST1
C:\Users\stapi\AppData\Local\Temp\cc6lLBEI.s:23261  .debug_loc:000000000000053a .LLST2
C:\Users\stapi\AppData\Local\Temp\cc6lLBEI.s:23272  .debug_loc:0000000000000558 .LLST3
C:\Users\stapi\AppData\Local\Temp\cc6lLBEI.s:80     .text.hostapd_wpa_auth_for_each_sta:0000000000000028 .LVL6
C:\Users\stapi\AppData\Local\Temp\cc6lLBEI.s:27115  .debug_str:0000000000005751 .LASF1740
C:\Users\stapi\AppData\Local\Temp\cc6lLBEI.s:371    .text.hostapd_wpa_auth_send_eapol:0000000000000000 .LFB191
C:\Users\stapi\AppData\Local\Temp\cc6lLBEI.s:448    .text.hostapd_wpa_auth_send_eapol:0000000000000054 .LFE191
C:\Users\stapi\AppData\Local\Temp\cc6lLBEI.s:23286  .debug_loc:0000000000000579 .LLST24
C:\Users\stapi\AppData\Local\Temp\cc6lLBEI.s:23297  .debug_loc:0000000000000597 .LLST25
C:\Users\stapi\AppData\Local\Temp\cc6lLBEI.s:23308  .debug_loc:00000000000005b5 .LLST26
C:\Users\stapi\AppData\Local\Temp\cc6lLBEI.s:23319  .debug_loc:00000000000005d3 .LLST27
C:\Users\stapi\AppData\Local\Temp\cc6lLBEI.s:24309  .debug_str:0000000000000347 .LASF1741
C:\Users\stapi\AppData\Local\Temp\cc6lLBEI.s:23330  .debug_loc:00000000000005f1 .LLST28
C:\Users\stapi\AppData\Local\Temp\cc6lLBEI.s:23341  .debug_loc:000000000000060f .LLST29
C:\Users\stapi\AppData\Local\Temp\cc6lLBEI.s:23352  .debug_loc:000000000000062d .LLST30
C:\Users\stapi\AppData\Local\Temp\cc6lLBEI.s:23359  .debug_loc:0000000000000640 .LLST31
C:\Users\stapi\AppData\Local\Temp\cc6lLBEI.s:412    .text.hostapd_wpa_auth_send_eapol:000000000000002a .LBB18
C:\Users\stapi\AppData\Local\Temp\cc6lLBEI.s:437    .text.hostapd_wpa_auth_send_eapol:000000000000004c .LBE18
C:\Users\stapi\AppData\Local\Temp\cc6lLBEI.s:23371  .debug_loc:000000000000065f .LLST32
C:\Users\stapi\AppData\Local\Temp\cc6lLBEI.s:434    .text.hostapd_wpa_auth_send_eapol:000000000000004c .LVL40
C:\Users\stapi\AppData\Local\Temp\cc6lLBEI.s:397    .text.hostapd_wpa_auth_send_eapol:000000000000001a .LVL36
C:\Users\stapi\AppData\Local\Temp\cc6lLBEI.s:407    .text.hostapd_wpa_auth_send_eapol:0000000000000028 .LVL38
C:\Users\stapi\AppData\Local\Temp\cc6lLBEI.s:24657  .debug_str:0000000000000d2c .LASF1742
C:\Users\stapi\AppData\Local\Temp\cc6lLBEI.s:614    .text.hostapd_wpa_auth_get_seqnum:0000000000000000 .LFB190
C:\Users\stapi\AppData\Local\Temp\cc6lLBEI.s:634    .text.hostapd_wpa_auth_get_seqnum:0000000000000012 .LFE190
C:\Users\stapi\AppData\Local\Temp\cc6lLBEI.s:23378  .debug_loc:0000000000000672 .LLST42
C:\Users\stapi\AppData\Local\Temp\cc6lLBEI.s:23396  .debug_loc:000000000000069e .LLST43
C:\Users\stapi\AppData\Local\Temp\cc6lLBEI.s:23414  .debug_loc:00000000000006ca .LLST44
C:\Users\stapi\AppData\Local\Temp\cc6lLBEI.s:23432  .debug_loc:00000000000006f6 .LLST45
C:\Users\stapi\AppData\Local\Temp\cc6lLBEI.s:23450  .debug_loc:0000000000000722 .LLST46
C:\Users\stapi\AppData\Local\Temp\cc6lLBEI.s:632    .text.hostapd_wpa_auth_get_seqnum:0000000000000012 .LVL64
C:\Users\stapi\AppData\Local\Temp\cc6lLBEI.s:26537  .debug_str:00000000000046da .LASF1743
C:\Users\stapi\AppData\Local\Temp\cc6lLBEI.s:640    .text.hostapd_wpa_auth_set_key:0000000000000000 .LFB189
C:\Users\stapi\AppData\Local\Temp\cc6lLBEI.s:729    .text.hostapd_wpa_auth_set_key:0000000000000068 .LFE189
C:\Users\stapi\AppData\Local\Temp\cc6lLBEI.s:23468  .debug_loc:000000000000074e .LLST47
C:\Users\stapi\AppData\Local\Temp\cc6lLBEI.s:23479  .debug_loc:000000000000076c .LLST48
C:\Users\stapi\AppData\Local\Temp\cc6lLBEI.s:23490  .debug_loc:000000000000078a .LLST49
C:\Users\stapi\AppData\Local\Temp\cc6lLBEI.s:23509  .debug_loc:00000000000007b7 .LLST50
C:\Users\stapi\AppData\Local\Temp\cc6lLBEI.s:23528  .debug_loc:00000000000007e4 .LLST51
C:\Users\stapi\AppData\Local\Temp\cc6lLBEI.s:23547  .debug_loc:0000000000000811 .LLST52
C:\Users\stapi\AppData\Local\Temp\cc6lLBEI.s:23558  .debug_loc:000000000000082f .LLST53
C:\Users\stapi\AppData\Local\Temp\cc6lLBEI.s:23569  .debug_loc:000000000000084d .LLST54
C:\Users\stapi\AppData\Local\Temp\cc6lLBEI.s:23580  .debug_loc:000000000000086b .LLST55
C:\Users\stapi\AppData\Local\Temp\cc6lLBEI.s:23591  .debug_loc:0000000000000889 .LLST56
C:\Users\stapi\AppData\Local\Temp\cc6lLBEI.s:679    .text.hostapd_wpa_auth_set_key:000000000000002c .LVL69
C:\Users\stapi\AppData\Local\Temp\cc6lLBEI.s:715    .text.hostapd_wpa_auth_set_key:000000000000005e .LVL72
C:\Users\stapi\AppData\Local\Temp\cc6lLBEI.s:26135  .debug_str:0000000000003945 .LASF1744
C:\Users\stapi\AppData\Local\Temp\cc6lLBEI.s:739    .text.hostapd_wpa_auth_get_psk:0000000000000000 .LFB187
C:\Users\stapi\AppData\Local\Temp\cc6lLBEI.s:928    .text.hostapd_wpa_auth_get_psk:00000000000000ea .LFE187
C:\Users\stapi\AppData\Local\Temp\cc6lLBEI.s:23611  .debug_loc:00000000000008be .LLST57
C:\Users\stapi\AppData\Local\Temp\cc6lLBEI.s:23622  .debug_loc:00000000000008dc .LLST58
C:\Users\stapi\AppData\Local\Temp\cc6lLBEI.s:23633  .debug_loc:00000000000008fa .LLST59
C:\Users\stapi\AppData\Local\Temp\cc6lLBEI.s:24949  .debug_str:00000000000015e3 .LASF1745
C:\Users\stapi\AppData\Local\Temp\cc6lLBEI.s:23644  .debug_loc:0000000000000918 .LLST60
C:\Users\stapi\AppData\Local\Temp\cc6lLBEI.s:24261  .debug_str:00000000000001c2 .LASF1746
C:\Users\stapi\AppData\Local\Temp\cc6lLBEI.s:23655  .debug_loc:0000000000000936 .LLST61
C:\Users\stapi\AppData\Local\Temp\cc6lLBEI.s:23695  .debug_loc:0000000000000994 .LLST62
C:\Users\stapi\AppData\Local\Temp\cc6lLBEI.s:23735  .debug_loc:00000000000009f2 .LLST63
C:\Users\stapi\AppData\Local\Temp\cc6lLBEI.s:23746  .debug_loc:0000000000000a10 .LLST64
C:\Users\stapi\AppData\Local\Temp\cc6lLBEI.s:23761  .debug_loc:0000000000000a39 .LLST65
C:\Users\stapi\AppData\Local\Temp\cc6lLBEI.s:23774  .debug_loc:0000000000000a59 .LLST66
C:\Users\stapi\AppData\Local\Temp\cc6lLBEI.s:898    .text.hostapd_wpa_auth_get_psk:00000000000000ca .LVL87
C:\Users\stapi\AppData\Local\Temp\cc6lLBEI.s:766    .text.hostapd_wpa_auth_get_psk:000000000000001c .LVL75
C:\Users\stapi\AppData\Local\Temp\cc6lLBEI.s:830    .text.hostapd_wpa_auth_get_psk:0000000000000060 .LVL81
C:\Users\stapi\AppData\Local\Temp\cc6lLBEI.s:838    .text.hostapd_wpa_auth_get_psk:0000000000000074 .LVL82
C:\Users\stapi\AppData\Local\Temp\cc6lLBEI.s:849    .text.hostapd_wpa_auth_get_psk:000000000000008a .LVL83
C:\Users\stapi\AppData\Local\Temp\cc6lLBEI.s:24613  .debug_str:0000000000000be9 .LASF1747
C:\Users\stapi\AppData\Local\Temp\cc6lLBEI.s:307    .text.hostapd_wpa_auth_get_eapol:0000000000000000 .LFB186
C:\Users\stapi\AppData\Local\Temp\cc6lLBEI.s:364    .text.hostapd_wpa_auth_get_eapol:0000000000000042 .LFE186
C:\Users\stapi\AppData\Local\Temp\cc6lLBEI.s:23796  .debug_loc:0000000000000a90 .LLST19
C:\Users\stapi\AppData\Local\Temp\cc6lLBEI.s:23810  .debug_loc:0000000000000ab1 .LLST20
C:\Users\stapi\AppData\Local\Temp\cc6lLBEI.s:23824  .debug_loc:0000000000000ad2 .LLST21
C:\Users\stapi\AppData\Local\Temp\cc6lLBEI.s:23835  .debug_loc:0000000000000af0 .LLST22
C:\Users\stapi\AppData\Local\Temp\cc6lLBEI.s:23849  .debug_loc:0000000000000b11 .LLST23
C:\Users\stapi\AppData\Local\Temp\cc6lLBEI.s:322    .text.hostapd_wpa_auth_get_eapol:0000000000000012 .LVL30
C:\Users\stapi\AppData\Local\Temp\cc6lLBEI.s:27771  .debug_str:0000000000006ba5 .LASF1749
C:\Users\stapi\AppData\Local\Temp\cc6lLBEI.s:934    .text.hostapd_wpa_auth_set_eapol:0000000000000000 .LFB185
C:\Users\stapi\AppData\Local\Temp\cc6lLBEI.s:1009   .text.hostapd_wpa_auth_set_eapol:000000000000005c .LFE185
C:\Users\stapi\AppData\Local\Temp\cc6lLBEI.s:23860  .debug_loc:0000000000000b2f .LLST67
C:\Users\stapi\AppData\Local\Temp\cc6lLBEI.s:23871  .debug_loc:0000000000000b4d .LLST68
C:\Users\stapi\AppData\Local\Temp\cc6lLBEI.s:23885  .debug_loc:0000000000000b6e .LLST69
C:\Users\stapi\AppData\Local\Temp\cc6lLBEI.s:26229  .debug_str:0000000000003c63 .LASF1748
C:\Users\stapi\AppData\Local\Temp\cc6lLBEI.s:23896  .debug_loc:0000000000000b8c .LLST70
C:\Users\stapi\AppData\Local\Temp\cc6lLBEI.s:23907  .debug_loc:0000000000000baa .LLST71
C:\Users\stapi\AppData\Local\Temp\cc6lLBEI.s:23918  .debug_loc:0000000000000bc8 .LLST72
C:\Users\stapi\AppData\Local\Temp\cc6lLBEI.s:957    .text.hostapd_wpa_auth_set_eapol:0000000000000018 .LVL93
C:\Users\stapi\AppData\Local\Temp\cc6lLBEI.s:975    .text.hostapd_wpa_auth_set_eapol:0000000000000032 .LVL95
C:\Users\stapi\AppData\Local\Temp\cc6lLBEI.s:983    .text.hostapd_wpa_auth_set_eapol:0000000000000040 .LVL96
C:\Users\stapi\AppData\Local\Temp\cc6lLBEI.s:1004   .text.hostapd_wpa_auth_set_eapol:0000000000000058 .LVL99
C:\Users\stapi\AppData\Local\Temp\cc6lLBEI.s:24417  .debug_str:0000000000000643 .LASF1750
C:\Users\stapi\AppData\Local\Temp\cc6lLBEI.s:458    .text.hostapd_wpa_auth_psk_failure_report:0000000000000000 .LFB184
C:\Users\stapi\AppData\Local\Temp\cc6lLBEI.s:494    .text.hostapd_wpa_auth_psk_failure_report:0000000000000044 .LFE184
C:\Users\stapi\AppData\Local\Temp\cc6lLBEI.s:23947  .debug_loc:0000000000000c14 .LLST33
C:\Users\stapi\AppData\Local\Temp\cc6lLBEI.s:23961  .debug_loc:0000000000000c35 .LLST34
C:\Users\stapi\AppData\Local\Temp\cc6lLBEI.s:23975  .debug_loc:0000000000000c56 .LLST35
C:\Users\stapi\AppData\Local\Temp\cc6lLBEI.s:486    .text.hostapd_wpa_auth_psk_failure_report:000000000000003a .LVL45
C:\Users\stapi\AppData\Local\Temp\cc6lLBEI.s:27017  .debug_str:000000000000543f .LASF1751
C:\Users\stapi\AppData\Local\Temp\cc6lLBEI.s:1015   .text.hostapd_wpa_auth_mic_failure_report:0000000000000000 .LFB183
C:\Users\stapi\AppData\Local\Temp\cc6lLBEI.s:1026   .text.hostapd_wpa_auth_mic_failure_report:000000000000000a .LFE183
C:\Users\stapi\AppData\Local\Temp\cc6lLBEI.s:23989  .debug_loc:0000000000000c77 .LLST73
C:\Users\stapi\AppData\Local\Temp\cc6lLBEI.s:24003  .debug_loc:0000000000000c98 .LLST74
C:\Users\stapi\AppData\Local\Temp\cc6lLBEI.s:24017  .debug_loc:0000000000000cb9 .LLST75
C:\Users\stapi\AppData\Local\Temp\cc6lLBEI.s:1024   .text.hostapd_wpa_auth_mic_failure_report:000000000000000a .LVL101
C:\Users\stapi\AppData\Local\Temp\cc6lLBEI.s:24841  .debug_str:00000000000012be .LASF1752
C:\Users\stapi\AppData\Local\Temp\cc6lLBEI.s:1036   .text.hostapd_wpa_auth_disconnect:0000000000000000 .LFB182
C:\Users\stapi\AppData\Local\Temp\cc6lLBEI.s:1094   .text.hostapd_wpa_auth_disconnect:0000000000000060 .LFE182
C:\Users\stapi\AppData\Local\Temp\cc6lLBEI.s:24031  .debug_loc:0000000000000cda .LLST76
C:\Users\stapi\AppData\Local\Temp\cc6lLBEI.s:24042  .debug_loc:0000000000000cf8 .LLST77
C:\Users\stapi\AppData\Local\Temp\cc6lLBEI.s:24379  .debug_str:0000000000000548 .LASF1753
C:\Users\stapi\AppData\Local\Temp\cc6lLBEI.s:24053  .debug_loc:0000000000000d16 .LLST78
C:\Users\stapi\AppData\Local\Temp\cc6lLBEI.s:24067  .debug_loc:0000000000000d37 .LLST79
C:\Users\stapi\AppData\Local\Temp\cc6lLBEI.s:26605  .debug_str:00000000000048b7 .LASF1793
C:\Users\stapi\AppData\Local\Temp\cc6lLBEI.s:1076   .text.hostapd_wpa_auth_disconnect:0000000000000046 .LVL107
C:\Users\stapi\AppData\Local\Temp\cc6lLBEI.s:1083   .text.hostapd_wpa_auth_disconnect:0000000000000056 .LVL108
C:\Users\stapi\AppData\Local\Temp\cc6lLBEI.s:27295  .debug_str:0000000000005ce9 .LASF1754
C:\Users\stapi\AppData\Local\Temp\cc6lLBEI.s:13     .text.hostapd_wpa_auth_logger:0000000000000000 .LFB181
C:\Users\stapi\AppData\Local\Temp\cc6lLBEI.s:21     .text.hostapd_wpa_auth_logger:0000000000000002 .LFE181
C:\Users\stapi\AppData\Local\Temp\cc6lLBEI.s:26991  .debug_str:0000000000005386 .LASF1758
C:\Users\stapi\AppData\Local\Temp\cc6lLBEI.s:26865  .debug_str:0000000000004fd5 .LASF1755
C:\Users\stapi\AppData\Local\Temp\cc6lLBEI.s:24413  .debug_str:000000000000061f .LASF1794
C:\Users\stapi\AppData\Local\Temp\cc6lLBEI.s:24631  .debug_str:0000000000000c7b .LASF1756
C:\Users\stapi\AppData\Local\Temp\cc6lLBEI.s:26545  .debug_str:0000000000004712 .LASF1757
C:\Users\stapi\AppData\Local\Temp\cc6lLBEI.s:24243  .debug_str:000000000000010c .LASF1759
C:\Users\stapi\AppData\Local\Temp\cc6lLBEI.s:24505  .debug_str:00000000000008e8 .LASF1760
C:\Users\stapi\AppData\Local\Temp\cc6lLBEI.s:25727  .debug_str:0000000000002d25 .LASF1761
C:\Users\stapi\AppData\Local\Temp\cc6lLBEI.s:24641  .debug_str:0000000000000ccc .LASF1795
C:\Users\stapi\AppData\Local\Temp\cc6lLBEI.s:24223  .debug_str:0000000000000083 .LASF1762
C:\Users\stapi\AppData\Local\Temp\cc6lLBEI.s:1100   .text.hostapd_wpa_auth_conf.constprop.0:0000000000000000 .LFB202
C:\Users\stapi\AppData\Local\Temp\cc6lLBEI.s:1274   .text.hostapd_wpa_auth_conf.constprop.0:00000000000000cc .LFE202
C:\Users\stapi\AppData\Local\Temp\cc6lLBEI.s:24078  .debug_loc:0000000000000d55 .LLST80
C:\Users\stapi\AppData\Local\Temp\cc6lLBEI.s:24089  .debug_loc:0000000000000d73 .LLST81
C:\Users\stapi\AppData\Local\Temp\cc6lLBEI.s:1122   .text.hostapd_wpa_auth_conf.constprop.0:000000000000001c .LVL113
C:\Users\stapi\AppData\Local\Temp\cc6lLBEI.s:1237   .text.hostapd_wpa_auth_conf.constprop.0:0000000000000098 .LVL114
C:\Users\stapi\AppData\Local\Temp\cc6lLBEI.s:24245  .debug_str:0000000000000125 .LASF1763
C:\Users\stapi\AppData\Local\Temp\cc6lLBEI.s:24607  .debug_str:0000000000000bc4 .LASF1764
C:\Users\stapi\AppData\Local\Temp\cc6lLBEI.s:27455  .debug_str:00000000000061e3 .LASF1765
C:\Users\stapi\AppData\Local\Temp\cc6lLBEI.s:27675  .debug_str:00000000000068bc .LASF1766
C:\Users\stapi\AppData\Local\Temp\cc6lLBEI.s:25633  .debug_str:0000000000002a0d .LASF1767
C:\Users\stapi\AppData\Local\Temp\cc6lLBEI.s:27137  .debug_str:0000000000005833 .LASF1768
C:\Users\stapi\AppData\Local\Temp\cc6lLBEI.s:26395  .debug_str:00000000000042a4 .LASF1769
C:\Users\stapi\AppData\Local\Temp\cc6lLBEI.s:27443  .debug_str:0000000000006189 .LASF1770
C:\Users\stapi\AppData\Local\Temp\cc6lLBEI.s:24331  .debug_str:00000000000003df .LASF1771
C:\Users\stapi\AppData\Local\Temp\cc6lLBEI.s:24629  .debug_str:0000000000000c71 .LASF1772
C:\Users\stapi\AppData\Local\Temp\cc6lLBEI.s:26485  .debug_str:000000000000455a .LASF1773
C:\Users\stapi\AppData\Local\Temp\cc6lLBEI.s:25251  .debug_str:0000000000001f01 .LASF1774
C:\Users\stapi\AppData\Local\Temp\cc6lLBEI.s:26273  .debug_str:0000000000003dcd .LASF1775
C:\Users\stapi\AppData\Local\Temp\cc6lLBEI.s:27069  .debug_str:00000000000055f2 .LASF1776
C:\Users\stapi\AppData\Local\Temp\cc6lLBEI.s:27339  .debug_str:0000000000005e2f .LASF1777
C:\Users\stapi\AppData\Local\Temp\cc6lLBEI.s:25611  .debug_str:0000000000002969 .LASF1778
C:\Users\stapi\AppData\Local\Temp\cc6lLBEI.s:26215  .debug_str:0000000000003bfd .LASF1779
C:\Users\stapi\AppData\Local\Temp\cc6lLBEI.s:26603  .debug_str:00000000000048a3 .LASF1780
C:\Users\stapi\AppData\Local\Temp\cc6lLBEI.s:25067  .debug_str:0000000000001956 .LASF1781
C:\Users\stapi\AppData\Local\Temp\cc6lLBEI.s:24929  .debug_str:000000000000156d .LASF1782
C:\Users\stapi\AppData\Local\Temp\cc6lLBEI.s:26227  .debug_str:0000000000003c53 .LASF1783
C:\Users\stapi\AppData\Local\Temp\cc6lLBEI.s:26169  .debug_str:0000000000003a55 .LASF1784
C:\Users\stapi\AppData\Local\Temp\cc6lLBEI.s:27049  .debug_str:000000000000553b .LASF1785
C:\Users\stapi\AppData\Local\Temp\cc6lLBEI.s:25685  .debug_str:0000000000002bc4 .LASF1786
C:\Users\stapi\AppData\Local\Temp\cc6lLBEI.s:25333  .debug_str:0000000000002157 .LASF1787
C:\Users\stapi\AppData\Local\Temp\cc6lLBEI.s:25345  .debug_str:00000000000021a9 .LASF1788
C:\Users\stapi\AppData\Local\Temp\cc6lLBEI.s:1611   .text.hostapd_deinit_wpa:0000000000000000 .LVL136
C:\Users\stapi\AppData\Local\Temp\cc6lLBEI.s:1559   .text.hostapd_reconfig_wpa:0000000000000000 .LVL132
C:\Users\stapi\AppData\Local\Temp\cc6lLBEI.s:1570   .text.hostapd_reconfig_wpa:000000000000000c .LVL133
C:\Users\stapi\AppData\Local\Temp\cc6lLBEI.s:1300   .text.hostapd_setup_wpa:0000000000000000 .LVL115
C:\Users\stapi\AppData\Local\Temp\cc6lLBEI.s:1314   .text.hostapd_setup_wpa:000000000000000c .LVL116
C:\Users\stapi\AppData\Local\Temp\cc6lLBEI.s:1492   .text.hostapd_setup_wpa:0000000000000126 .LVL124
C:\Users\stapi\AppData\Local\Temp\cc6lLBEI.s:1502   .text.hostapd_setup_wpa:0000000000000130 .LVL125
C:\Users\stapi\AppData\Local\Temp\cc6lLBEI.s:1537   .text.hostapd_setup_wpa:000000000000015c .LVL131
C:\Users\stapi\AppData\Local\Temp\cc6lLBEI.s:1515   .text.hostapd_setup_wpa:0000000000000142 .LVL127
C:\Users\stapi\AppData\Local\Temp\cc6lLBEI.s:1519   .text.hostapd_setup_wpa:0000000000000144 .LVL128
C:\Users\stapi\AppData\Local\Temp\cc6lLBEI.s:294    .text.hostapd_wpa_auth_update_vlan:0000000000000000 .LVL26
C:\Users\stapi\AppData\Local\Temp\cc6lLBEI.s:298    .text.hostapd_wpa_auth_update_vlan:0000000000000002 .LVL27
C:\Users\stapi\AppData\Local\Temp\cc6lLBEI.s:249    .text.hostapd_channel_info:0000000000000000 .LVL21
C:\Users\stapi\AppData\Local\Temp\cc6lLBEI.s:265    .text.hostapd_channel_info:000000000000000e .LVL22
C:\Users\stapi\AppData\Local\Temp\cc6lLBEI.s:276    .text.hostapd_channel_info:0000000000000018 .LVL24
C:\Users\stapi\AppData\Local\Temp\cc6lLBEI.s:278    .text.hostapd_channel_info:000000000000001a .LVL25
C:\Users\stapi\AppData\Local\Temp\cc6lLBEI.s:233    .text.hostapd_wpa_auth_send_oui:0000000000000000 .LVL19
C:\Users\stapi\AppData\Local\Temp\cc6lLBEI.s:237    .text.hostapd_wpa_auth_send_oui:0000000000000002 .LVL20
C:\Users\stapi\AppData\Local\Temp\cc6lLBEI.s:503    .text.hostapd_wpa_auth_send_ether:0000000000000000 .LVL46
C:\Users\stapi\AppData\Local\Temp\cc6lLBEI.s:522    .text.hostapd_wpa_auth_send_ether:000000000000000e .LVL48
C:\Users\stapi\AppData\Local\Temp\cc6lLBEI.s:540    .text.hostapd_wpa_auth_send_ether:000000000000001a .LVL49
C:\Users\stapi\AppData\Local\Temp\cc6lLBEI.s:547    .text.hostapd_wpa_auth_send_ether:0000000000000022 .LVL50
C:\Users\stapi\AppData\Local\Temp\cc6lLBEI.s:599    .text.hostapd_wpa_auth_send_ether:0000000000000094 .LVL57
C:\Users\stapi\AppData\Local\Temp\cc6lLBEI.s:515    .text.hostapd_wpa_auth_send_ether:0000000000000008 .LVL47
C:\Users\stapi\AppData\Local\Temp\cc6lLBEI.s:167    .text.hostapd_wpa_auth_for_each_auth:0000000000000000 .LVL12
C:\Users\stapi\AppData\Local\Temp\cc6lLBEI.s:180    .text.hostapd_wpa_auth_for_each_auth:000000000000000a .LVL13
C:\Users\stapi\AppData\Local\Temp\cc6lLBEI.s:213    .text.hostapd_wpa_auth_for_each_auth:0000000000000032 .LVL17
C:\Users\stapi\AppData\Local\Temp\cc6lLBEI.s:218    .text.hostapd_wpa_auth_for_each_auth:0000000000000034 .LVL18
C:\Users\stapi\AppData\Local\Temp\cc6lLBEI.s:196    .text.hostapd_wpa_auth_for_each_auth:000000000000001c .LVL14
C:\Users\stapi\AppData\Local\Temp\cc6lLBEI.s:203    .text.hostapd_wpa_auth_for_each_auth:0000000000000024 .LVL15
C:\Users\stapi\AppData\Local\Temp\cc6lLBEI.s:96     .text.wpa_auth_iface_iter:0000000000000000 .LVL7
C:\Users\stapi\AppData\Local\Temp\cc6lLBEI.s:112    .text.wpa_auth_iface_iter:000000000000000e .LVL9
C:\Users\stapi\AppData\Local\Temp\cc6lLBEI.s:107    .text.wpa_auth_iface_iter:000000000000000c .LVL8
C:\Users\stapi\AppData\Local\Temp\cc6lLBEI.s:30     .text.hostapd_wpa_auth_for_each_sta:0000000000000000 .LVL1
C:\Users\stapi\AppData\Local\Temp\cc6lLBEI.s:47     .text.hostapd_wpa_auth_for_each_sta:000000000000000e .LVL4
C:\Users\stapi\AppData\Local\Temp\cc6lLBEI.s:38     .text.hostapd_wpa_auth_for_each_sta:0000000000000008 .LVL2
C:\Users\stapi\AppData\Local\Temp\cc6lLBEI.s:374    .text.hostapd_wpa_auth_send_eapol:0000000000000000 .LVL34
C:\Users\stapi\AppData\Local\Temp\cc6lLBEI.s:386    .text.hostapd_wpa_auth_send_eapol:000000000000000a .LVL35
C:\Users\stapi\AppData\Local\Temp\cc6lLBEI.s:405    .text.hostapd_wpa_auth_send_eapol:0000000000000020 .LVL37
C:\Users\stapi\AppData\Local\Temp\cc6lLBEI.s:409    .text.hostapd_wpa_auth_send_eapol:000000000000002a .LVL39
C:\Users\stapi\AppData\Local\Temp\cc6lLBEI.s:617    .text.hostapd_wpa_auth_get_seqnum:0000000000000000 .LVL59
C:\Users\stapi\AppData\Local\Temp\cc6lLBEI.s:630    .text.hostapd_wpa_auth_get_seqnum:000000000000000a .LVL63
C:\Users\stapi\AppData\Local\Temp\cc6lLBEI.s:628    .text.hostapd_wpa_auth_get_seqnum:0000000000000008 .LVL62
C:\Users\stapi\AppData\Local\Temp\cc6lLBEI.s:626    .text.hostapd_wpa_auth_get_seqnum:0000000000000006 .LVL61
C:\Users\stapi\AppData\Local\Temp\cc6lLBEI.s:624    .text.hostapd_wpa_auth_get_seqnum:0000000000000004 .LVL60
C:\Users\stapi\AppData\Local\Temp\cc6lLBEI.s:643    .text.hostapd_wpa_auth_set_key:0000000000000000 .LVL65
C:\Users\stapi\AppData\Local\Temp\cc6lLBEI.s:661    .text.hostapd_wpa_auth_set_key:000000000000000e .LVL67
C:\Users\stapi\AppData\Local\Temp\cc6lLBEI.s:702    .text.hostapd_wpa_auth_set_key:0000000000000046 .LVL71
C:\Users\stapi\AppData\Local\Temp\cc6lLBEI.s:653    .text.hostapd_wpa_auth_set_key:0000000000000008 .LVL66
C:\Users\stapi\AppData\Local\Temp\cc6lLBEI.s:672    .text.hostapd_wpa_auth_set_key:000000000000001e .LVL68
C:\Users\stapi\AppData\Local\Temp\cc6lLBEI.s:693    .text.hostapd_wpa_auth_set_key:000000000000003c .LVL70
C:\Users\stapi\AppData\Local\Temp\cc6lLBEI.s:742    .text.hostapd_wpa_auth_get_psk:0000000000000000 .LVL73
C:\Users\stapi\AppData\Local\Temp\cc6lLBEI.s:797    .text.hostapd_wpa_auth_get_psk:0000000000000042 .LVL77
C:\Users\stapi\AppData\Local\Temp\cc6lLBEI.s:803    .text.hostapd_wpa_auth_get_psk:0000000000000046 .LVL78
C:\Users\stapi\AppData\Local\Temp\cc6lLBEI.s:809    .text.hostapd_wpa_auth_get_psk:000000000000004c .LVL79
C:\Users\stapi\AppData\Local\Temp\cc6lLBEI.s:823    .text.hostapd_wpa_auth_get_psk:0000000000000054 .LVL80
C:\Users\stapi\AppData\Local\Temp\cc6lLBEI.s:855    .text.hostapd_wpa_auth_get_psk:0000000000000090 .LVL84
C:\Users\stapi\AppData\Local\Temp\cc6lLBEI.s:876    .text.hostapd_wpa_auth_get_psk:000000000000009e .LVL86
C:\Users\stapi\AppData\Local\Temp\cc6lLBEI.s:756    .text.hostapd_wpa_auth_get_psk:000000000000000a .LVL74
C:\Users\stapi\AppData\Local\Temp\cc6lLBEI.s:768    .text.hostapd_wpa_auth_get_psk:000000000000001e .LVL76
C:\Users\stapi\AppData\Local\Temp\cc6lLBEI.s:870    .text.hostapd_wpa_auth_get_psk:000000000000009c .LVL85
C:\Users\stapi\AppData\Local\Temp\cc6lLBEI.s:924    .text.hostapd_wpa_auth_get_psk:00000000000000e8 .LVL90
C:\Users\stapi\AppData\Local\Temp\cc6lLBEI.s:908    .text.hostapd_wpa_auth_get_psk:00000000000000d6 .LVL88
C:\Users\stapi\AppData\Local\Temp\cc6lLBEI.s:918    .text.hostapd_wpa_auth_get_psk:00000000000000e2 .LVL89
C:\Users\stapi\AppData\Local\Temp\cc6lLBEI.s:310    .text.hostapd_wpa_auth_get_eapol:0000000000000000 .LVL28
C:\Users\stapi\AppData\Local\Temp\cc6lLBEI.s:316    .text.hostapd_wpa_auth_get_eapol:0000000000000008 .LVL29
C:\Users\stapi\AppData\Local\Temp\cc6lLBEI.s:330    .text.hostapd_wpa_auth_get_eapol:0000000000000018 .LVL31
C:\Users\stapi\AppData\Local\Temp\cc6lLBEI.s:357    .text.hostapd_wpa_auth_get_eapol:000000000000003e .LVL32
C:\Users\stapi\AppData\Local\Temp\cc6lLBEI.s:361    .text.hostapd_wpa_auth_get_eapol:0000000000000040 .LVL33
C:\Users\stapi\AppData\Local\Temp\cc6lLBEI.s:937    .text.hostapd_wpa_auth_set_eapol:0000000000000000 .LVL91
C:\Users\stapi\AppData\Local\Temp\cc6lLBEI.s:950    .text.hostapd_wpa_auth_set_eapol:000000000000000c .LVL92
C:\Users\stapi\AppData\Local\Temp\cc6lLBEI.s:973    .text.hostapd_wpa_auth_set_eapol:000000000000002a .LVL94
C:\Users\stapi\AppData\Local\Temp\cc6lLBEI.s:995    .text.hostapd_wpa_auth_set_eapol:000000000000004a .LVL97
C:\Users\stapi\AppData\Local\Temp\cc6lLBEI.s:1002   .text.hostapd_wpa_auth_set_eapol:0000000000000050 .LVL98
C:\Users\stapi\AppData\Local\Temp\cc6lLBEI.s:461    .text.hostapd_wpa_auth_psk_failure_report:0000000000000000 .LVL41
C:\Users\stapi\AppData\Local\Temp\cc6lLBEI.s:474    .text.hostapd_wpa_auth_psk_failure_report:0000000000000012 .LVL43
C:\Users\stapi\AppData\Local\Temp\cc6lLBEI.s:484    .text.hostapd_wpa_auth_psk_failure_report:0000000000000032 .LVL44
C:\Users\stapi\AppData\Local\Temp\cc6lLBEI.s:466    .text.hostapd_wpa_auth_psk_failure_report:0000000000000008 .LVL42
C:\Users\stapi\AppData\Local\Temp\cc6lLBEI.s:1018   .text.hostapd_wpa_auth_mic_failure_report:0000000000000000 .LVL100
C:\Users\stapi\AppData\Local\Temp\cc6lLBEI.s:1039   .text.hostapd_wpa_auth_disconnect:0000000000000000 .LVL102
C:\Users\stapi\AppData\Local\Temp\cc6lLBEI.s:1074   .text.hostapd_wpa_auth_disconnect:000000000000003e .LVL106
C:\Users\stapi\AppData\Local\Temp\cc6lLBEI.s:1066   .text.hostapd_wpa_auth_disconnect:0000000000000032 .LVL104
C:\Users\stapi\AppData\Local\Temp\cc6lLBEI.s:1064   .text.hostapd_wpa_auth_disconnect:000000000000002e .LVL103
C:\Users\stapi\AppData\Local\Temp\cc6lLBEI.s:1069   .text.hostapd_wpa_auth_disconnect:0000000000000034 .LVL105
C:\Users\stapi\AppData\Local\Temp\cc6lLBEI.s:1103   .text.hostapd_wpa_auth_conf.constprop.0:0000000000000000 .LVL109
C:\Users\stapi\AppData\Local\Temp\cc6lLBEI.s:1120   .text.hostapd_wpa_auth_conf.constprop.0:0000000000000014 .LVL112
C:\Users\stapi\AppData\Local\Temp\cc6lLBEI.s:1118   .text.hostapd_wpa_auth_conf.constprop.0:0000000000000012 .LVL111
C:\Users\stapi\AppData\Local\Temp\cc6lLBEI.s:1757   .debug_info:0000000000000000 .Ldebug_info0
C:\Users\stapi\AppData\Local\Temp\cc6lLBEI.s:860    .text.hostapd_wpa_auth_get_psk:0000000000000096 .LBB20
C:\Users\stapi\AppData\Local\Temp\cc6lLBEI.s:873    .text.hostapd_wpa_auth_get_psk:000000000000009c .LBE20
C:\Users\stapi\AppData\Local\Temp\cc6lLBEI.s:878    .text.hostapd_wpa_auth_get_psk:000000000000009e .LBB21
C:\Users\stapi\AppData\Local\Temp\cc6lLBEI.s:926    .text.hostapd_wpa_auth_get_psk:00000000000000ea .LBE21

UNDEFINED SYMBOLS
__riscv_save_3
__riscv_restore_3
__riscv_save_0
__riscv_restore_0
__riscv_save_1
ap_get_sta
__riscv_restore_1
__riscv_save_5
hostapd_sta_flags_to_drv
__riscv_restore_5
wpa_msg
__riscv_save_7
__riscv_restore_7
os_malloc
os_memcpy
l2_packet_send
os_free
hostapd_get_seqnum
hostapd_get_vlan_id_ifname
hostapd_drv_set_key
wpa_auth_uses_sae
wpa_printf
hostapd_get_psk
pbkdf2_sha1
ap_sta_set_authorized
hostapd_set_authorized
michael_mic_failure
ap_sta_disconnect
__riscv_save_2
os_memset
hostapd_sae_pw_id_in_use
__riscv_restore_2
wpa_init
hostapd_set_privacy
wpa_auth_get_wpa_ie
hostapd_set_generic_elem
wpa_reconfig
ieee80211_tkip_countermeasures_deinit
wpa_deinit
