   1              		.file	"MQTTSerializePublish.c"
   2              		.option nopic
   3              		.attribute arch, "rv32i2p0_m2p0_a2p0_f2p0_c2p0_b_p0p94"
   4              		.attribute unaligned_access, 0
   5              		.attribute stack_align, 16
   6              		.text
   7              	.Ltext0:
   8              		.cfi_sections	.debug_frame
   9              		.section	.text.MQTTSerialize_publishLength,"ax",@progbits
  10              		.align	1
  11              		.globl	MQTTSerialize_publishLength
  13              	MQTTSerialize_publishLength:
  14              	.LFB1:
  15              		.file 1 "C:/Users/stapi/OneDrive/Desktop/GD32VW553/V1_MQTT_OK/GD32VW55X_Wifi_BLE_SDK/GD32VW55x_REL
   1:C:/Users/stapi/OneDrive/Desktop/GD32VW553/V1_MQTT_OK/GD32VW55X_Wifi_BLE_SDK/GD32VW55x_RELEASE_V1.0.2/MSDK/cloud/alicloud/src/protocol/mqtt/MQTTPacket\MQTTSerializePublish.c **** /*
   2:C:/Users/stapi/OneDrive/Desktop/GD32VW553/V1_MQTT_OK/GD32VW55X_Wifi_BLE_SDK/GD32VW55x_RELEASE_V1.0.2/MSDK/cloud/alicloud/src/protocol/mqtt/MQTTPacket\MQTTSerializePublish.c ****  * Copyright (C) 2015-2018 Alibaba Group Holding Limited
   3:C:/Users/stapi/OneDrive/Desktop/GD32VW553/V1_MQTT_OK/GD32VW55X_Wifi_BLE_SDK/GD32VW55x_RELEASE_V1.0.2/MSDK/cloud/alicloud/src/protocol/mqtt/MQTTPacket\MQTTSerializePublish.c ****  */
   4:C:/Users/stapi/OneDrive/Desktop/GD32VW553/V1_MQTT_OK/GD32VW55X_Wifi_BLE_SDK/GD32VW55x_RELEASE_V1.0.2/MSDK/cloud/alicloud/src/protocol/mqtt/MQTTPacket\MQTTSerializePublish.c **** 
   5:C:/Users/stapi/OneDrive/Desktop/GD32VW553/V1_MQTT_OK/GD32VW55X_Wifi_BLE_SDK/GD32VW55x_RELEASE_V1.0.2/MSDK/cloud/alicloud/src/protocol/mqtt/MQTTPacket\MQTTSerializePublish.c **** #include "MQTTPacket.h"
   6:C:/Users/stapi/OneDrive/Desktop/GD32VW553/V1_MQTT_OK/GD32VW55X_Wifi_BLE_SDK/GD32VW55x_RELEASE_V1.0.2/MSDK/cloud/alicloud/src/protocol/mqtt/MQTTPacket\MQTTSerializePublish.c **** 
   7:C:/Users/stapi/OneDrive/Desktop/GD32VW553/V1_MQTT_OK/GD32VW55X_Wifi_BLE_SDK/GD32VW55x_RELEASE_V1.0.2/MSDK/cloud/alicloud/src/protocol/mqtt/MQTTPacket\MQTTSerializePublish.c **** #include <string.h>
   8:C:/Users/stapi/OneDrive/Desktop/GD32VW553/V1_MQTT_OK/GD32VW55X_Wifi_BLE_SDK/GD32VW55x_RELEASE_V1.0.2/MSDK/cloud/alicloud/src/protocol/mqtt/MQTTPacket\MQTTSerializePublish.c **** 
   9:C:/Users/stapi/OneDrive/Desktop/GD32VW553/V1_MQTT_OK/GD32VW55X_Wifi_BLE_SDK/GD32VW55x_RELEASE_V1.0.2/MSDK/cloud/alicloud/src/protocol/mqtt/MQTTPacket\MQTTSerializePublish.c **** 
  10:C:/Users/stapi/OneDrive/Desktop/GD32VW553/V1_MQTT_OK/GD32VW55X_Wifi_BLE_SDK/GD32VW55x_RELEASE_V1.0.2/MSDK/cloud/alicloud/src/protocol/mqtt/MQTTPacket\MQTTSerializePublish.c **** /**
  11:C:/Users/stapi/OneDrive/Desktop/GD32VW553/V1_MQTT_OK/GD32VW55X_Wifi_BLE_SDK/GD32VW55x_RELEASE_V1.0.2/MSDK/cloud/alicloud/src/protocol/mqtt/MQTTPacket\MQTTSerializePublish.c ****   * Determines the length of the MQTT publish packet that would be produced using the supplied para
  12:C:/Users/stapi/OneDrive/Desktop/GD32VW553/V1_MQTT_OK/GD32VW55X_Wifi_BLE_SDK/GD32VW55x_RELEASE_V1.0.2/MSDK/cloud/alicloud/src/protocol/mqtt/MQTTPacket\MQTTSerializePublish.c ****   * @param qos the MQTT QoS of the publish (packetid is omitted for QoS 0)
  13:C:/Users/stapi/OneDrive/Desktop/GD32VW553/V1_MQTT_OK/GD32VW55X_Wifi_BLE_SDK/GD32VW55x_RELEASE_V1.0.2/MSDK/cloud/alicloud/src/protocol/mqtt/MQTTPacket\MQTTSerializePublish.c ****   * @param topicName the topic name to be used in the publish
  14:C:/Users/stapi/OneDrive/Desktop/GD32VW553/V1_MQTT_OK/GD32VW55X_Wifi_BLE_SDK/GD32VW55x_RELEASE_V1.0.2/MSDK/cloud/alicloud/src/protocol/mqtt/MQTTPacket\MQTTSerializePublish.c ****   * @param payloadlen the length of the payload to be sent
  15:C:/Users/stapi/OneDrive/Desktop/GD32VW553/V1_MQTT_OK/GD32VW55X_Wifi_BLE_SDK/GD32VW55x_RELEASE_V1.0.2/MSDK/cloud/alicloud/src/protocol/mqtt/MQTTPacket\MQTTSerializePublish.c ****   * @return the length of buffer needed to contain the serialized version of the packet
  16:C:/Users/stapi/OneDrive/Desktop/GD32VW553/V1_MQTT_OK/GD32VW55X_Wifi_BLE_SDK/GD32VW55x_RELEASE_V1.0.2/MSDK/cloud/alicloud/src/protocol/mqtt/MQTTPacket\MQTTSerializePublish.c ****   */
  17:C:/Users/stapi/OneDrive/Desktop/GD32VW553/V1_MQTT_OK/GD32VW55X_Wifi_BLE_SDK/GD32VW55x_RELEASE_V1.0.2/MSDK/cloud/alicloud/src/protocol/mqtt/MQTTPacket\MQTTSerializePublish.c **** int MQTTSerialize_publishLength(int qos, MQTTString topicName, int payloadlen)
  18:C:/Users/stapi/OneDrive/Desktop/GD32VW553/V1_MQTT_OK/GD32VW55X_Wifi_BLE_SDK/GD32VW55x_RELEASE_V1.0.2/MSDK/cloud/alicloud/src/protocol/mqtt/MQTTPacket\MQTTSerializePublish.c **** {
  16              		.loc 1 18 1
  17              		.cfi_startproc
  18              	.LVL0:
  19 0000 17030000 		call	t0,__riscv_save_2
  19      E7020300 
  20              		.cfi_offset 9, -12
  21              		.cfi_offset 8, -8
  22              		.cfi_offset 1, -4
  23              		.cfi_def_cfa_offset 16
  19:C:/Users/stapi/OneDrive/Desktop/GD32VW553/V1_MQTT_OK/GD32VW55X_Wifi_BLE_SDK/GD32VW55x_RELEASE_V1.0.2/MSDK/cloud/alicloud/src/protocol/mqtt/MQTTPacket\MQTTSerializePublish.c ****     int len = 0;
  24              		.loc 1 19 5
  25              	.LVL1:
  20:C:/Users/stapi/OneDrive/Desktop/GD32VW553/V1_MQTT_OK/GD32VW55X_Wifi_BLE_SDK/GD32VW55x_RELEASE_V1.0.2/MSDK/cloud/alicloud/src/protocol/mqtt/MQTTPacket\MQTTSerializePublish.c **** 
  21:C:/Users/stapi/OneDrive/Desktop/GD32VW553/V1_MQTT_OK/GD32VW55X_Wifi_BLE_SDK/GD32VW55x_RELEASE_V1.0.2/MSDK/cloud/alicloud/src/protocol/mqtt/MQTTPacket\MQTTSerializePublish.c ****     len += 2 + MQTTstrlen(topicName) + payloadlen;
  26              		.loc 1 21 5
  18:C:/Users/stapi/OneDrive/Desktop/GD32VW553/V1_MQTT_OK/GD32VW55X_Wifi_BLE_SDK/GD32VW55x_RELEASE_V1.0.2/MSDK/cloud/alicloud/src/protocol/mqtt/MQTTPacket\MQTTSerializePublish.c ****     int len = 0;
  27              		.loc 1 18 1 is_stmt 0
  28 0008 4111     		addi	sp,sp,-16
  29              		.cfi_def_cfa_offset 32
  18:C:/Users/stapi/OneDrive/Desktop/GD32VW553/V1_MQTT_OK/GD32VW55X_Wifi_BLE_SDK/GD32VW55x_RELEASE_V1.0.2/MSDK/cloud/alicloud/src/protocol/mqtt/MQTTPacket\MQTTSerializePublish.c ****     int len = 0;
  30              		.loc 1 18 1
  31 000a B284     		mv	s1,a2
  32 000c 2A84     		mv	s0,a0
  33              		.loc 1 21 16
  34 000e 3146     		li	a2,12
  35              	.LVL2:
  36 0010 0A85     		mv	a0,sp
  37              	.LVL3:
  38 0012 97000000 		call	memcpy
  38      E7800000 
  39              	.LVL4:
  40 001a 0A85     		mv	a0,sp
  41 001c 97000000 		call	MQTTstrlen
  41      E7800000 
  42              	.LVL5:
  43              		.loc 1 21 14
  44 0024 93072500 		addi	a5,a0,2
  45              		.loc 1 21 38
  46 0028 33859700 		add	a0,a5,s1
  47              	.LVL6:
  22:C:/Users/stapi/OneDrive/Desktop/GD32VW553/V1_MQTT_OK/GD32VW55X_Wifi_BLE_SDK/GD32VW55x_RELEASE_V1.0.2/MSDK/cloud/alicloud/src/protocol/mqtt/MQTTPacket\MQTTSerializePublish.c ****     if (qos > 0) {
  48              		.loc 1 22 5 is_stmt 1
  49              		.loc 1 22 8 is_stmt 0
  50 002c 63538000 		ble	s0,zero,.L1
  23:C:/Users/stapi/OneDrive/Desktop/GD32VW553/V1_MQTT_OK/GD32VW55X_Wifi_BLE_SDK/GD32VW55x_RELEASE_V1.0.2/MSDK/cloud/alicloud/src/protocol/mqtt/MQTTPacket\MQTTSerializePublish.c ****         len += 2;    /* packetid */
  51              		.loc 1 23 9 is_stmt 1
  52              		.loc 1 23 13 is_stmt 0
  53 0030 0905     		addi	a0,a0,2
  54              	.LVL7:
  24:C:/Users/stapi/OneDrive/Desktop/GD32VW553/V1_MQTT_OK/GD32VW55X_Wifi_BLE_SDK/GD32VW55x_RELEASE_V1.0.2/MSDK/cloud/alicloud/src/protocol/mqtt/MQTTPacket\MQTTSerializePublish.c ****     }
  25:C:/Users/stapi/OneDrive/Desktop/GD32VW553/V1_MQTT_OK/GD32VW55X_Wifi_BLE_SDK/GD32VW55x_RELEASE_V1.0.2/MSDK/cloud/alicloud/src/protocol/mqtt/MQTTPacket\MQTTSerializePublish.c ****     return len;
  55              		.loc 1 25 5 is_stmt 1
  56              	.L1:
  26:C:/Users/stapi/OneDrive/Desktop/GD32VW553/V1_MQTT_OK/GD32VW55X_Wifi_BLE_SDK/GD32VW55x_RELEASE_V1.0.2/MSDK/cloud/alicloud/src/protocol/mqtt/MQTTPacket\MQTTSerializePublish.c **** }
  57              		.loc 1 26 1 is_stmt 0
  58 0032 4101     		addi	sp,sp,16
  59              		.cfi_def_cfa_offset 0
  60 0034 17030000 		tail	__riscv_restore_2
  60      67000300 
  61              		.cfi_restore 9
  62              		.cfi_restore 8
  63              		.cfi_restore 1
  64              		.cfi_def_cfa_offset -16
  65              		.cfi_endproc
  66              	.LFE1:
  68              		.section	.text.MQTTSerialize_publish,"ax",@progbits
  69              		.align	1
  70              		.globl	MQTTSerialize_publish
  72              	MQTTSerialize_publish:
  73              	.LFB2:
  27:C:/Users/stapi/OneDrive/Desktop/GD32VW553/V1_MQTT_OK/GD32VW55X_Wifi_BLE_SDK/GD32VW55x_RELEASE_V1.0.2/MSDK/cloud/alicloud/src/protocol/mqtt/MQTTPacket\MQTTSerializePublish.c **** 
  28:C:/Users/stapi/OneDrive/Desktop/GD32VW553/V1_MQTT_OK/GD32VW55X_Wifi_BLE_SDK/GD32VW55x_RELEASE_V1.0.2/MSDK/cloud/alicloud/src/protocol/mqtt/MQTTPacket\MQTTSerializePublish.c **** 
  29:C:/Users/stapi/OneDrive/Desktop/GD32VW553/V1_MQTT_OK/GD32VW55X_Wifi_BLE_SDK/GD32VW55x_RELEASE_V1.0.2/MSDK/cloud/alicloud/src/protocol/mqtt/MQTTPacket\MQTTSerializePublish.c **** /**
  30:C:/Users/stapi/OneDrive/Desktop/GD32VW553/V1_MQTT_OK/GD32VW55X_Wifi_BLE_SDK/GD32VW55x_RELEASE_V1.0.2/MSDK/cloud/alicloud/src/protocol/mqtt/MQTTPacket\MQTTSerializePublish.c ****   * Serializes the supplied publish data into the supplied buffer, ready for sending
  31:C:/Users/stapi/OneDrive/Desktop/GD32VW553/V1_MQTT_OK/GD32VW55X_Wifi_BLE_SDK/GD32VW55x_RELEASE_V1.0.2/MSDK/cloud/alicloud/src/protocol/mqtt/MQTTPacket\MQTTSerializePublish.c ****   * @param buf the buffer into which the packet will be serialized
  32:C:/Users/stapi/OneDrive/Desktop/GD32VW553/V1_MQTT_OK/GD32VW55X_Wifi_BLE_SDK/GD32VW55x_RELEASE_V1.0.2/MSDK/cloud/alicloud/src/protocol/mqtt/MQTTPacket\MQTTSerializePublish.c ****   * @param buflen the length in bytes of the supplied buffer
  33:C:/Users/stapi/OneDrive/Desktop/GD32VW553/V1_MQTT_OK/GD32VW55X_Wifi_BLE_SDK/GD32VW55x_RELEASE_V1.0.2/MSDK/cloud/alicloud/src/protocol/mqtt/MQTTPacket\MQTTSerializePublish.c ****   * @param dup integer - the MQTT dup flag
  34:C:/Users/stapi/OneDrive/Desktop/GD32VW553/V1_MQTT_OK/GD32VW55X_Wifi_BLE_SDK/GD32VW55x_RELEASE_V1.0.2/MSDK/cloud/alicloud/src/protocol/mqtt/MQTTPacket\MQTTSerializePublish.c ****   * @param qos integer - the MQTT QoS value
  35:C:/Users/stapi/OneDrive/Desktop/GD32VW553/V1_MQTT_OK/GD32VW55X_Wifi_BLE_SDK/GD32VW55x_RELEASE_V1.0.2/MSDK/cloud/alicloud/src/protocol/mqtt/MQTTPacket\MQTTSerializePublish.c ****   * @param retained integer - the MQTT retained flag
  36:C:/Users/stapi/OneDrive/Desktop/GD32VW553/V1_MQTT_OK/GD32VW55X_Wifi_BLE_SDK/GD32VW55x_RELEASE_V1.0.2/MSDK/cloud/alicloud/src/protocol/mqtt/MQTTPacket\MQTTSerializePublish.c ****   * @param packetid integer - the MQTT packet identifier
  37:C:/Users/stapi/OneDrive/Desktop/GD32VW553/V1_MQTT_OK/GD32VW55X_Wifi_BLE_SDK/GD32VW55x_RELEASE_V1.0.2/MSDK/cloud/alicloud/src/protocol/mqtt/MQTTPacket\MQTTSerializePublish.c ****   * @param topicName MQTTString - the MQTT topic in the publish
  38:C:/Users/stapi/OneDrive/Desktop/GD32VW553/V1_MQTT_OK/GD32VW55X_Wifi_BLE_SDK/GD32VW55x_RELEASE_V1.0.2/MSDK/cloud/alicloud/src/protocol/mqtt/MQTTPacket\MQTTSerializePublish.c ****   * @param payload byte buffer - the MQTT publish payload
  39:C:/Users/stapi/OneDrive/Desktop/GD32VW553/V1_MQTT_OK/GD32VW55X_Wifi_BLE_SDK/GD32VW55x_RELEASE_V1.0.2/MSDK/cloud/alicloud/src/protocol/mqtt/MQTTPacket\MQTTSerializePublish.c ****   * @param payloadlen integer - the length of the MQTT payload
  40:C:/Users/stapi/OneDrive/Desktop/GD32VW553/V1_MQTT_OK/GD32VW55X_Wifi_BLE_SDK/GD32VW55x_RELEASE_V1.0.2/MSDK/cloud/alicloud/src/protocol/mqtt/MQTTPacket\MQTTSerializePublish.c ****   * @return the length of the serialized data.  <= 0 indicates error
  41:C:/Users/stapi/OneDrive/Desktop/GD32VW553/V1_MQTT_OK/GD32VW55X_Wifi_BLE_SDK/GD32VW55x_RELEASE_V1.0.2/MSDK/cloud/alicloud/src/protocol/mqtt/MQTTPacket\MQTTSerializePublish.c ****   */
  42:C:/Users/stapi/OneDrive/Desktop/GD32VW553/V1_MQTT_OK/GD32VW55X_Wifi_BLE_SDK/GD32VW55x_RELEASE_V1.0.2/MSDK/cloud/alicloud/src/protocol/mqtt/MQTTPacket\MQTTSerializePublish.c **** int MQTTSerialize_publish(unsigned char *buf, int buflen, unsigned char dup, int qos, unsigned char
  43:C:/Users/stapi/OneDrive/Desktop/GD32VW553/V1_MQTT_OK/GD32VW55X_Wifi_BLE_SDK/GD32VW55x_RELEASE_V1.0.2/MSDK/cloud/alicloud/src/protocol/mqtt/MQTTPacket\MQTTSerializePublish.c ****                           unsigned short packetid,
  44:C:/Users/stapi/OneDrive/Desktop/GD32VW553/V1_MQTT_OK/GD32VW55X_Wifi_BLE_SDK/GD32VW55x_RELEASE_V1.0.2/MSDK/cloud/alicloud/src/protocol/mqtt/MQTTPacket\MQTTSerializePublish.c ****                           MQTTString topicName, unsigned char *payload, int payloadlen)
  45:C:/Users/stapi/OneDrive/Desktop/GD32VW553/V1_MQTT_OK/GD32VW55X_Wifi_BLE_SDK/GD32VW55x_RELEASE_V1.0.2/MSDK/cloud/alicloud/src/protocol/mqtt/MQTTPacket\MQTTSerializePublish.c **** {
  74              		.loc 1 45 1 is_stmt 1
  75              		.cfi_startproc
  76              	.LVL8:
  77 0000 17030000 		call	t0,__riscv_save_10
  77      E7020300 
  78              		.cfi_offset 25, -44
  79              		.cfi_offset 24, -40
  80              		.cfi_offset 23, -36
  81              		.cfi_offset 22, -32
  82              		.cfi_offset 21, -28
  83              		.cfi_offset 20, -24
  84              		.cfi_offset 19, -20
  85              		.cfi_offset 18, -16
  86              		.cfi_offset 9, -12
  87              		.cfi_offset 8, -8
  88              		.cfi_offset 1, -4
  89              		.cfi_def_cfa_offset 48
  46:C:/Users/stapi/OneDrive/Desktop/GD32VW553/V1_MQTT_OK/GD32VW55X_Wifi_BLE_SDK/GD32VW55x_RELEASE_V1.0.2/MSDK/cloud/alicloud/src/protocol/mqtt/MQTTPacket\MQTTSerializePublish.c ****     unsigned char *ptr = buf;
  90              		.loc 1 46 5
  45:C:/Users/stapi/OneDrive/Desktop/GD32VW553/V1_MQTT_OK/GD32VW55X_Wifi_BLE_SDK/GD32VW55x_RELEASE_V1.0.2/MSDK/cloud/alicloud/src/protocol/mqtt/MQTTPacket\MQTTSerializePublish.c ****     unsigned char *ptr = buf;
  91              		.loc 1 45 1 is_stmt 0
  92 0008 0111     		addi	sp,sp,-32
  93              		.cfi_def_cfa_offset 80
  45:C:/Users/stapi/OneDrive/Desktop/GD32VW553/V1_MQTT_OK/GD32VW55X_Wifi_BLE_SDK/GD32VW55x_RELEASE_V1.0.2/MSDK/cloud/alicloud/src/protocol/mqtt/MQTTPacket\MQTTSerializePublish.c ****     unsigned char *ptr = buf;
  94              		.loc 1 45 1
  95 000a C64A     		lw	s5,80(sp)
  96 000c AE8C     		mv	s9,a1
  97              		.loc 1 46 20
  98 000e 2ACE     		sw	a0,28(sp)
  47:C:/Users/stapi/OneDrive/Desktop/GD32VW553/V1_MQTT_OK/GD32VW55X_Wifi_BLE_SDK/GD32VW55x_RELEASE_V1.0.2/MSDK/cloud/alicloud/src/protocol/mqtt/MQTTPacket\MQTTSerializePublish.c ****     MQTTHeader header = {0};
  99              		.loc 1 47 5 is_stmt 1
  48:C:/Users/stapi/OneDrive/Desktop/GD32VW553/V1_MQTT_OK/GD32VW55X_Wifi_BLE_SDK/GD32VW55x_RELEASE_V1.0.2/MSDK/cloud/alicloud/src/protocol/mqtt/MQTTPacket\MQTTSerializePublish.c ****     int rem_len = 0;
 100              		.loc 1 48 5
 101              	.LVL9:
  49:C:/Users/stapi/OneDrive/Desktop/GD32VW553/V1_MQTT_OK/GD32VW55X_Wifi_BLE_SDK/GD32VW55x_RELEASE_V1.0.2/MSDK/cloud/alicloud/src/protocol/mqtt/MQTTPacket\MQTTSerializePublish.c ****     int rc = 0;
 102              		.loc 1 49 5
  50:C:/Users/stapi/OneDrive/Desktop/GD32VW553/V1_MQTT_OK/GD32VW55X_Wifi_BLE_SDK/GD32VW55x_RELEASE_V1.0.2/MSDK/cloud/alicloud/src/protocol/mqtt/MQTTPacket\MQTTSerializePublish.c **** 
  51:C:/Users/stapi/OneDrive/Desktop/GD32VW553/V1_MQTT_OK/GD32VW55X_Wifi_BLE_SDK/GD32VW55x_RELEASE_V1.0.2/MSDK/cloud/alicloud/src/protocol/mqtt/MQTTPacket\MQTTSerializePublish.c ****     if (MQTTPacket_len(rem_len = MQTTSerialize_publishLength(qos, topicName, payloadlen)) > buflen)
 103              		.loc 1 51 5
 104              		.loc 1 51 34 is_stmt 0
 105 0010 C285     		mv	a1,a6
 106              	.LVL10:
  45:C:/Users/stapi/OneDrive/Desktop/GD32VW553/V1_MQTT_OK/GD32VW55X_Wifi_BLE_SDK/GD32VW55x_RELEASE_V1.0.2/MSDK/cloud/alicloud/src/protocol/mqtt/MQTTPacket\MQTTSerializePublish.c ****     unsigned char *ptr = buf;
 107              		.loc 1 45 1
 108 0012 AA89     		mv	s3,a0
 109 0014 3284     		mv	s0,a2
 110              		.loc 1 51 34
 111 0016 0A85     		mv	a0,sp
 112              	.LVL11:
 113 0018 3146     		li	a2,12
 114              	.LVL12:
  45:C:/Users/stapi/OneDrive/Desktop/GD32VW553/V1_MQTT_OK/GD32VW55X_Wifi_BLE_SDK/GD32VW55x_RELEASE_V1.0.2/MSDK/cloud/alicloud/src/protocol/mqtt/MQTTPacket\MQTTSerializePublish.c ****     unsigned char *ptr = buf;
 115              		.loc 1 45 1
 116 001a 3689     		mv	s2,a3
 117 001c BA84     		mv	s1,a4
 118 001e BE8B     		mv	s7,a5
 119 0020 428A     		mv	s4,a6
 120 0022 468B     		mv	s6,a7
 121              		.loc 1 51 34
 122 0024 97000000 		call	memcpy
 122      E7800000 
 123              	.LVL13:
 124 002c 5686     		mv	a2,s5
 125 002e 8A85     		mv	a1,sp
 126 0030 4A85     		mv	a0,s2
 127 0032 97000000 		call	MQTTSerialize_publishLength
 127      E7800000 
 128              	.LVL14:
 129 003a 2A8C     		mv	s8,a0
 130              	.LVL15:
 131              		.loc 1 51 9
 132 003c 97000000 		call	MQTTPacket_len
 132      E7800000 
 133              	.LVL16:
 134              		.loc 1 51 8
 135 0044 63CFAC06 		bgt	a0,s9,.L7
  52:C:/Users/stapi/OneDrive/Desktop/GD32VW553/V1_MQTT_OK/GD32VW55X_Wifi_BLE_SDK/GD32VW55x_RELEASE_V1.0.2/MSDK/cloud/alicloud/src/protocol/mqtt/MQTTPacket\MQTTSerializePublish.c ****         rc = MQTTPACKET_BUFFER_TOO_SHORT;
  53:C:/Users/stapi/OneDrive/Desktop/GD32VW553/V1_MQTT_OK/GD32VW55X_Wifi_BLE_SDK/GD32VW55x_RELEASE_V1.0.2/MSDK/cloud/alicloud/src/protocol/mqtt/MQTTPacket\MQTTSerializePublish.c ****         goto exit;
  54:C:/Users/stapi/OneDrive/Desktop/GD32VW553/V1_MQTT_OK/GD32VW55X_Wifi_BLE_SDK/GD32VW55x_RELEASE_V1.0.2/MSDK/cloud/alicloud/src/protocol/mqtt/MQTTPacket\MQTTSerializePublish.c ****     }
  55:C:/Users/stapi/OneDrive/Desktop/GD32VW553/V1_MQTT_OK/GD32VW55X_Wifi_BLE_SDK/GD32VW55x_RELEASE_V1.0.2/MSDK/cloud/alicloud/src/protocol/mqtt/MQTTPacket\MQTTSerializePublish.c **** 
  56:C:/Users/stapi/OneDrive/Desktop/GD32VW553/V1_MQTT_OK/GD32VW55X_Wifi_BLE_SDK/GD32VW55x_RELEASE_V1.0.2/MSDK/cloud/alicloud/src/protocol/mqtt/MQTTPacket\MQTTSerializePublish.c ****     header.bits.type = PUBLISH;
 136              		.loc 1 56 5 is_stmt 1
  57:C:/Users/stapi/OneDrive/Desktop/GD32VW553/V1_MQTT_OK/GD32VW55X_Wifi_BLE_SDK/GD32VW55x_RELEASE_V1.0.2/MSDK/cloud/alicloud/src/protocol/mqtt/MQTTPacket\MQTTSerializePublish.c ****     header.bits.dup = dup;
 137              		.loc 1 57 5
  58:C:/Users/stapi/OneDrive/Desktop/GD32VW553/V1_MQTT_OK/GD32VW55X_Wifi_BLE_SDK/GD32VW55x_RELEASE_V1.0.2/MSDK/cloud/alicloud/src/protocol/mqtt/MQTTPacket\MQTTSerializePublish.c ****     header.bits.qos = qos;
 138              		.loc 1 58 5
  59:C:/Users/stapi/OneDrive/Desktop/GD32VW553/V1_MQTT_OK/GD32VW55X_Wifi_BLE_SDK/GD32VW55x_RELEASE_V1.0.2/MSDK/cloud/alicloud/src/protocol/mqtt/MQTTPacket\MQTTSerializePublish.c ****     header.bits.retain = retained;
 139              		.loc 1 59 5
  60:C:/Users/stapi/OneDrive/Desktop/GD32VW553/V1_MQTT_OK/GD32VW55X_Wifi_BLE_SDK/GD32VW55x_RELEASE_V1.0.2/MSDK/cloud/alicloud/src/protocol/mqtt/MQTTPacket\MQTTSerializePublish.c ****     writeChar(&ptr, header.byte); /* write header */
 140              		.loc 1 60 5
  59:C:/Users/stapi/OneDrive/Desktop/GD32VW553/V1_MQTT_OK/GD32VW55X_Wifi_BLE_SDK/GD32VW55x_RELEASE_V1.0.2/MSDK/cloud/alicloud/src/protocol/mqtt/MQTTPacket\MQTTSerializePublish.c ****     header.bits.retain = retained;
 141              		.loc 1 59 24 is_stmt 0
 142 0048 93753900 		andi	a1,s2,3
 143 004c 8588     		andi	s1,s1,1
 144 004e 8605     		slli	a1,a1,1
 145 0050 93E40403 		ori	s1,s1,48
 146 0054 0E04     		slli	s0,s0,3
 147 0056 C58D     		or	a1,a1,s1
 148 0058 2188     		andi	s0,s0,8
 149              		.loc 1 60 5
 150 005a C18D     		or	a1,a1,s0
 151 005c 6808     		addi	a0,sp,28
 152 005e 97000000 		call	writeChar
 152      E7800000 
 153              	.LVL17:
  61:C:/Users/stapi/OneDrive/Desktop/GD32VW553/V1_MQTT_OK/GD32VW55X_Wifi_BLE_SDK/GD32VW55x_RELEASE_V1.0.2/MSDK/cloud/alicloud/src/protocol/mqtt/MQTTPacket\MQTTSerializePublish.c **** 
  62:C:/Users/stapi/OneDrive/Desktop/GD32VW553/V1_MQTT_OK/GD32VW55X_Wifi_BLE_SDK/GD32VW55x_RELEASE_V1.0.2/MSDK/cloud/alicloud/src/protocol/mqtt/MQTTPacket\MQTTSerializePublish.c ****     ptr += MQTTPacket_encode(ptr, rem_len); /* write remaining length */;
 154              		.loc 1 62 5 is_stmt 1
 155              		.loc 1 62 12 is_stmt 0
 156 0066 7245     		lw	a0,28(sp)
 157 0068 E285     		mv	a1,s8
 158 006a 97000000 		call	MQTTPacket_encode
 158      E7800000 
 159              	.LVL18:
 160              		.loc 1 62 9
 161 0072 F247     		lw	a5,28(sp)
  63:C:/Users/stapi/OneDrive/Desktop/GD32VW553/V1_MQTT_OK/GD32VW55X_Wifi_BLE_SDK/GD32VW55x_RELEASE_V1.0.2/MSDK/cloud/alicloud/src/protocol/mqtt/MQTTPacket\MQTTSerializePublish.c **** 
  64:C:/Users/stapi/OneDrive/Desktop/GD32VW553/V1_MQTT_OK/GD32VW55X_Wifi_BLE_SDK/GD32VW55x_RELEASE_V1.0.2/MSDK/cloud/alicloud/src/protocol/mqtt/MQTTPacket\MQTTSerializePublish.c ****     writeMQTTString(&ptr, topicName);
 162              		.loc 1 64 5
 163 0074 D285     		mv	a1,s4
 164 0076 3146     		li	a2,12
  62:C:/Users/stapi/OneDrive/Desktop/GD32VW553/V1_MQTT_OK/GD32VW55X_Wifi_BLE_SDK/GD32VW55x_RELEASE_V1.0.2/MSDK/cloud/alicloud/src/protocol/mqtt/MQTTPacket\MQTTSerializePublish.c **** 
 165              		.loc 1 62 9
 166 0078 AA97     		add	a5,a5,a0
 167              		.loc 1 64 5
 168 007a 0A85     		mv	a0,sp
  62:C:/Users/stapi/OneDrive/Desktop/GD32VW553/V1_MQTT_OK/GD32VW55X_Wifi_BLE_SDK/GD32VW55x_RELEASE_V1.0.2/MSDK/cloud/alicloud/src/protocol/mqtt/MQTTPacket\MQTTSerializePublish.c **** 
 169              		.loc 1 62 9
 170 007c 3ECE     		sw	a5,28(sp)
  62:C:/Users/stapi/OneDrive/Desktop/GD32VW553/V1_MQTT_OK/GD32VW55X_Wifi_BLE_SDK/GD32VW55x_RELEASE_V1.0.2/MSDK/cloud/alicloud/src/protocol/mqtt/MQTTPacket\MQTTSerializePublish.c **** 
 171              		.loc 1 62 73 is_stmt 1
 172              		.loc 1 64 5
 173 007e 97000000 		call	memcpy
 173      E7800000 
 174              	.LVL19:
 175 0086 8A85     		mv	a1,sp
 176 0088 6808     		addi	a0,sp,28
 177 008a 97000000 		call	writeMQTTString
 177      E7800000 
 178              	.LVL20:
  65:C:/Users/stapi/OneDrive/Desktop/GD32VW553/V1_MQTT_OK/GD32VW55X_Wifi_BLE_SDK/GD32VW55x_RELEASE_V1.0.2/MSDK/cloud/alicloud/src/protocol/mqtt/MQTTPacket\MQTTSerializePublish.c **** 
  66:C:/Users/stapi/OneDrive/Desktop/GD32VW553/V1_MQTT_OK/GD32VW55X_Wifi_BLE_SDK/GD32VW55x_RELEASE_V1.0.2/MSDK/cloud/alicloud/src/protocol/mqtt/MQTTPacket\MQTTSerializePublish.c ****     if (qos > 0) {
 179              		.loc 1 66 5
 180              		.loc 1 66 8 is_stmt 0
 181 0092 63582001 		ble	s2,zero,.L6
  67:C:/Users/stapi/OneDrive/Desktop/GD32VW553/V1_MQTT_OK/GD32VW55X_Wifi_BLE_SDK/GD32VW55x_RELEASE_V1.0.2/MSDK/cloud/alicloud/src/protocol/mqtt/MQTTPacket\MQTTSerializePublish.c ****         writeInt(&ptr, packetid);
 182              		.loc 1 67 9 is_stmt 1
 183 0096 DE85     		mv	a1,s7
 184 0098 6808     		addi	a0,sp,28
 185 009a 97000000 		call	writeInt
 185      E7800000 
 186              	.LVL21:
 187              	.L6:
  68:C:/Users/stapi/OneDrive/Desktop/GD32VW553/V1_MQTT_OK/GD32VW55X_Wifi_BLE_SDK/GD32VW55x_RELEASE_V1.0.2/MSDK/cloud/alicloud/src/protocol/mqtt/MQTTPacket\MQTTSerializePublish.c ****     }
  69:C:/Users/stapi/OneDrive/Desktop/GD32VW553/V1_MQTT_OK/GD32VW55X_Wifi_BLE_SDK/GD32VW55x_RELEASE_V1.0.2/MSDK/cloud/alicloud/src/protocol/mqtt/MQTTPacket\MQTTSerializePublish.c **** 
  70:C:/Users/stapi/OneDrive/Desktop/GD32VW553/V1_MQTT_OK/GD32VW55X_Wifi_BLE_SDK/GD32VW55x_RELEASE_V1.0.2/MSDK/cloud/alicloud/src/protocol/mqtt/MQTTPacket\MQTTSerializePublish.c ****     memcpy(ptr, payload, payloadlen);
 188              		.loc 1 70 5
 189 00a2 7245     		lw	a0,28(sp)
 190 00a4 5686     		mv	a2,s5
 191 00a6 DA85     		mv	a1,s6
 192 00a8 97000000 		call	memcpy
 192      E7800000 
 193              	.LVL22:
  71:C:/Users/stapi/OneDrive/Desktop/GD32VW553/V1_MQTT_OK/GD32VW55X_Wifi_BLE_SDK/GD32VW55x_RELEASE_V1.0.2/MSDK/cloud/alicloud/src/protocol/mqtt/MQTTPacket\MQTTSerializePublish.c ****     ptr += payloadlen;
 194              		.loc 1 71 5
  72:C:/Users/stapi/OneDrive/Desktop/GD32VW553/V1_MQTT_OK/GD32VW55X_Wifi_BLE_SDK/GD32VW55x_RELEASE_V1.0.2/MSDK/cloud/alicloud/src/protocol/mqtt/MQTTPacket\MQTTSerializePublish.c **** 
  73:C:/Users/stapi/OneDrive/Desktop/GD32VW553/V1_MQTT_OK/GD32VW55X_Wifi_BLE_SDK/GD32VW55x_RELEASE_V1.0.2/MSDK/cloud/alicloud/src/protocol/mqtt/MQTTPacket\MQTTSerializePublish.c ****     rc = ptr - buf;
 195              		.loc 1 73 5
  71:C:/Users/stapi/OneDrive/Desktop/GD32VW553/V1_MQTT_OK/GD32VW55X_Wifi_BLE_SDK/GD32VW55x_RELEASE_V1.0.2/MSDK/cloud/alicloud/src/protocol/mqtt/MQTTPacket\MQTTSerializePublish.c ****     ptr += payloadlen;
 196              		.loc 1 71 9 is_stmt 0
 197 00b0 7246     		lw	a2,28(sp)
 198 00b2 5696     		add	a2,a2,s5
 199              		.loc 1 73 8
 200 00b4 33053641 		sub	a0,a2,s3
 201              	.LVL23:
 202              	.L4:
  74:C:/Users/stapi/OneDrive/Desktop/GD32VW553/V1_MQTT_OK/GD32VW55X_Wifi_BLE_SDK/GD32VW55x_RELEASE_V1.0.2/MSDK/cloud/alicloud/src/protocol/mqtt/MQTTPacket\MQTTSerializePublish.c **** 
  75:C:/Users/stapi/OneDrive/Desktop/GD32VW553/V1_MQTT_OK/GD32VW55X_Wifi_BLE_SDK/GD32VW55x_RELEASE_V1.0.2/MSDK/cloud/alicloud/src/protocol/mqtt/MQTTPacket\MQTTSerializePublish.c **** exit:
  76:C:/Users/stapi/OneDrive/Desktop/GD32VW553/V1_MQTT_OK/GD32VW55X_Wifi_BLE_SDK/GD32VW55x_RELEASE_V1.0.2/MSDK/cloud/alicloud/src/protocol/mqtt/MQTTPacket\MQTTSerializePublish.c ****     return rc;
  77:C:/Users/stapi/OneDrive/Desktop/GD32VW553/V1_MQTT_OK/GD32VW55X_Wifi_BLE_SDK/GD32VW55x_RELEASE_V1.0.2/MSDK/cloud/alicloud/src/protocol/mqtt/MQTTPacket\MQTTSerializePublish.c **** }
 203              		.loc 1 77 1
 204 00b8 0561     		addi	sp,sp,32
 205              		.cfi_remember_state
 206              		.cfi_def_cfa_offset 0
 207              	.LVL24:
 208 00ba 17030000 		tail	__riscv_restore_10
 208      67000300 
 209              		.cfi_restore 25
 210              		.cfi_restore 24
 211              		.cfi_restore 23
 212              		.cfi_restore 22
 213              		.cfi_restore 21
 214              		.cfi_restore 20
 215              		.cfi_restore 19
 216              		.cfi_restore 18
 217              		.cfi_restore 9
 218              		.cfi_restore 8
 219              		.cfi_restore 1
 220              		.cfi_def_cfa_offset -48
 221              	.LVL25:
 222              	.L7:
 223              		.cfi_restore_state
 224              	.L5:
  76:C:/Users/stapi/OneDrive/Desktop/GD32VW553/V1_MQTT_OK/GD32VW55X_Wifi_BLE_SDK/GD32VW55x_RELEASE_V1.0.2/MSDK/cloud/alicloud/src/protocol/mqtt/MQTTPacket\MQTTSerializePublish.c **** }
 225              		.loc 1 76 5 is_stmt 1
  52:C:/Users/stapi/OneDrive/Desktop/GD32VW553/V1_MQTT_OK/GD32VW55X_Wifi_BLE_SDK/GD32VW55x_RELEASE_V1.0.2/MSDK/cloud/alicloud/src/protocol/mqtt/MQTTPacket\MQTTSerializePublish.c ****         goto exit;
 226              		.loc 1 52 12 is_stmt 0
 227 00c2 7955     		li	a0,-2
  76:C:/Users/stapi/OneDrive/Desktop/GD32VW553/V1_MQTT_OK/GD32VW55X_Wifi_BLE_SDK/GD32VW55x_RELEASE_V1.0.2/MSDK/cloud/alicloud/src/protocol/mqtt/MQTTPacket\MQTTSerializePublish.c **** }
 228              		.loc 1 76 12
 229 00c4 D5BF     		j	.L4
 230              		.cfi_endproc
 231              	.LFE2:
 233              		.section	.text.MQTTSerialize_ack,"ax",@progbits
 234              		.align	1
 235              		.globl	MQTTSerialize_ack
 237              	MQTTSerialize_ack:
 238              	.LFB3:
  78:C:/Users/stapi/OneDrive/Desktop/GD32VW553/V1_MQTT_OK/GD32VW55X_Wifi_BLE_SDK/GD32VW55x_RELEASE_V1.0.2/MSDK/cloud/alicloud/src/protocol/mqtt/MQTTPacket\MQTTSerializePublish.c **** 
  79:C:/Users/stapi/OneDrive/Desktop/GD32VW553/V1_MQTT_OK/GD32VW55X_Wifi_BLE_SDK/GD32VW55x_RELEASE_V1.0.2/MSDK/cloud/alicloud/src/protocol/mqtt/MQTTPacket\MQTTSerializePublish.c **** 
  80:C:/Users/stapi/OneDrive/Desktop/GD32VW553/V1_MQTT_OK/GD32VW55X_Wifi_BLE_SDK/GD32VW55x_RELEASE_V1.0.2/MSDK/cloud/alicloud/src/protocol/mqtt/MQTTPacket\MQTTSerializePublish.c **** 
  81:C:/Users/stapi/OneDrive/Desktop/GD32VW553/V1_MQTT_OK/GD32VW55X_Wifi_BLE_SDK/GD32VW55x_RELEASE_V1.0.2/MSDK/cloud/alicloud/src/protocol/mqtt/MQTTPacket\MQTTSerializePublish.c **** /**
  82:C:/Users/stapi/OneDrive/Desktop/GD32VW553/V1_MQTT_OK/GD32VW55X_Wifi_BLE_SDK/GD32VW55x_RELEASE_V1.0.2/MSDK/cloud/alicloud/src/protocol/mqtt/MQTTPacket\MQTTSerializePublish.c ****   * Serializes the ack packet into the supplied buffer.
  83:C:/Users/stapi/OneDrive/Desktop/GD32VW553/V1_MQTT_OK/GD32VW55X_Wifi_BLE_SDK/GD32VW55x_RELEASE_V1.0.2/MSDK/cloud/alicloud/src/protocol/mqtt/MQTTPacket\MQTTSerializePublish.c ****   * @param buf the buffer into which the packet will be serialized
  84:C:/Users/stapi/OneDrive/Desktop/GD32VW553/V1_MQTT_OK/GD32VW55X_Wifi_BLE_SDK/GD32VW55x_RELEASE_V1.0.2/MSDK/cloud/alicloud/src/protocol/mqtt/MQTTPacket\MQTTSerializePublish.c ****   * @param buflen the length in bytes of the supplied buffer
  85:C:/Users/stapi/OneDrive/Desktop/GD32VW553/V1_MQTT_OK/GD32VW55X_Wifi_BLE_SDK/GD32VW55x_RELEASE_V1.0.2/MSDK/cloud/alicloud/src/protocol/mqtt/MQTTPacket\MQTTSerializePublish.c ****   * @param type the MQTT packet type
  86:C:/Users/stapi/OneDrive/Desktop/GD32VW553/V1_MQTT_OK/GD32VW55X_Wifi_BLE_SDK/GD32VW55x_RELEASE_V1.0.2/MSDK/cloud/alicloud/src/protocol/mqtt/MQTTPacket\MQTTSerializePublish.c ****   * @param dup the MQTT dup flag
  87:C:/Users/stapi/OneDrive/Desktop/GD32VW553/V1_MQTT_OK/GD32VW55X_Wifi_BLE_SDK/GD32VW55x_RELEASE_V1.0.2/MSDK/cloud/alicloud/src/protocol/mqtt/MQTTPacket\MQTTSerializePublish.c ****   * @param packetid the MQTT packet identifier
  88:C:/Users/stapi/OneDrive/Desktop/GD32VW553/V1_MQTT_OK/GD32VW55X_Wifi_BLE_SDK/GD32VW55x_RELEASE_V1.0.2/MSDK/cloud/alicloud/src/protocol/mqtt/MQTTPacket\MQTTSerializePublish.c ****   * @return serialized length, or error if 0
  89:C:/Users/stapi/OneDrive/Desktop/GD32VW553/V1_MQTT_OK/GD32VW55X_Wifi_BLE_SDK/GD32VW55x_RELEASE_V1.0.2/MSDK/cloud/alicloud/src/protocol/mqtt/MQTTPacket\MQTTSerializePublish.c ****   */
  90:C:/Users/stapi/OneDrive/Desktop/GD32VW553/V1_MQTT_OK/GD32VW55X_Wifi_BLE_SDK/GD32VW55x_RELEASE_V1.0.2/MSDK/cloud/alicloud/src/protocol/mqtt/MQTTPacket\MQTTSerializePublish.c **** int MQTTSerialize_ack(unsigned char *buf, int buflen, unsigned char packettype, unsigned char dup,
  91:C:/Users/stapi/OneDrive/Desktop/GD32VW553/V1_MQTT_OK/GD32VW55X_Wifi_BLE_SDK/GD32VW55x_RELEASE_V1.0.2/MSDK/cloud/alicloud/src/protocol/mqtt/MQTTPacket\MQTTSerializePublish.c ****                       unsigned short packetid)
  92:C:/Users/stapi/OneDrive/Desktop/GD32VW553/V1_MQTT_OK/GD32VW55X_Wifi_BLE_SDK/GD32VW55x_RELEASE_V1.0.2/MSDK/cloud/alicloud/src/protocol/mqtt/MQTTPacket\MQTTSerializePublish.c **** {
 239              		.loc 1 92 1 is_stmt 1
 240              		.cfi_startproc
 241              	.LVL26:
 242 0000 17030000 		call	t0,__riscv_save_2
 242      E7020300 
 243              		.cfi_offset 9, -12
 244              		.cfi_offset 8, -8
 245              		.cfi_offset 1, -4
 246              		.cfi_def_cfa_offset 16
  93:C:/Users/stapi/OneDrive/Desktop/GD32VW553/V1_MQTT_OK/GD32VW55X_Wifi_BLE_SDK/GD32VW55x_RELEASE_V1.0.2/MSDK/cloud/alicloud/src/protocol/mqtt/MQTTPacket\MQTTSerializePublish.c ****     MQTTHeader header = {0};
 247              		.loc 1 93 5
  94:C:/Users/stapi/OneDrive/Desktop/GD32VW553/V1_MQTT_OK/GD32VW55X_Wifi_BLE_SDK/GD32VW55x_RELEASE_V1.0.2/MSDK/cloud/alicloud/src/protocol/mqtt/MQTTPacket\MQTTSerializePublish.c ****     int rc = 0;
 248              		.loc 1 94 5
 249              	.LVL27:
  95:C:/Users/stapi/OneDrive/Desktop/GD32VW553/V1_MQTT_OK/GD32VW55X_Wifi_BLE_SDK/GD32VW55x_RELEASE_V1.0.2/MSDK/cloud/alicloud/src/protocol/mqtt/MQTTPacket\MQTTSerializePublish.c ****     unsigned char *ptr = buf;
 250              		.loc 1 95 5
  92:C:/Users/stapi/OneDrive/Desktop/GD32VW553/V1_MQTT_OK/GD32VW55X_Wifi_BLE_SDK/GD32VW55x_RELEASE_V1.0.2/MSDK/cloud/alicloud/src/protocol/mqtt/MQTTPacket\MQTTSerializePublish.c ****     MQTTHeader header = {0};
 251              		.loc 1 92 1 is_stmt 0
 252 0008 4111     		addi	sp,sp,-16
 253              		.cfi_def_cfa_offset 32
 254              		.loc 1 95 20
 255 000a 2AC6     		sw	a0,12(sp)
  96:C:/Users/stapi/OneDrive/Desktop/GD32VW553/V1_MQTT_OK/GD32VW55X_Wifi_BLE_SDK/GD32VW55x_RELEASE_V1.0.2/MSDK/cloud/alicloud/src/protocol/mqtt/MQTTPacket\MQTTSerializePublish.c **** 
  97:C:/Users/stapi/OneDrive/Desktop/GD32VW553/V1_MQTT_OK/GD32VW55X_Wifi_BLE_SDK/GD32VW55x_RELEASE_V1.0.2/MSDK/cloud/alicloud/src/protocol/mqtt/MQTTPacket\MQTTSerializePublish.c ****     if (buflen < 4) {
 256              		.loc 1 97 5 is_stmt 1
 257              		.loc 1 97 8 is_stmt 0
 258 000c 8D47     		li	a5,3
 259 000e 63DDB704 		ble	a1,a5,.L11
  98:C:/Users/stapi/OneDrive/Desktop/GD32VW553/V1_MQTT_OK/GD32VW55X_Wifi_BLE_SDK/GD32VW55x_RELEASE_V1.0.2/MSDK/cloud/alicloud/src/protocol/mqtt/MQTTPacket\MQTTSerializePublish.c ****         rc = MQTTPACKET_BUFFER_TOO_SHORT;
  99:C:/Users/stapi/OneDrive/Desktop/GD32VW553/V1_MQTT_OK/GD32VW55X_Wifi_BLE_SDK/GD32VW55x_RELEASE_V1.0.2/MSDK/cloud/alicloud/src/protocol/mqtt/MQTTPacket\MQTTSerializePublish.c ****         goto exit;
 100:C:/Users/stapi/OneDrive/Desktop/GD32VW553/V1_MQTT_OK/GD32VW55X_Wifi_BLE_SDK/GD32VW55x_RELEASE_V1.0.2/MSDK/cloud/alicloud/src/protocol/mqtt/MQTTPacket\MQTTSerializePublish.c ****     }
 101:C:/Users/stapi/OneDrive/Desktop/GD32VW553/V1_MQTT_OK/GD32VW55X_Wifi_BLE_SDK/GD32VW55x_RELEASE_V1.0.2/MSDK/cloud/alicloud/src/protocol/mqtt/MQTTPacket\MQTTSerializePublish.c ****     header.bits.type = packettype;
 102:C:/Users/stapi/OneDrive/Desktop/GD32VW553/V1_MQTT_OK/GD32VW55X_Wifi_BLE_SDK/GD32VW55x_RELEASE_V1.0.2/MSDK/cloud/alicloud/src/protocol/mqtt/MQTTPacket\MQTTSerializePublish.c ****     header.bits.dup = dup;
 103:C:/Users/stapi/OneDrive/Desktop/GD32VW553/V1_MQTT_OK/GD32VW55X_Wifi_BLE_SDK/GD32VW55x_RELEASE_V1.0.2/MSDK/cloud/alicloud/src/protocol/mqtt/MQTTPacket\MQTTSerializePublish.c ****     header.bits.qos = (packettype == PUBREL) ? 1 : 0;
 260              		.loc 1 103 21
 261 0012 93953600 		slli	a1,a3,3
 262              	.LVL28:
 263              		.loc 1 103 50
 264 0016 9306A6FF 		addi	a3,a2,-6
 265              	.LVL29:
 266 001a 93B61600 		seqz	a3,a3
 267              		.loc 1 103 21
 268 001e 8606     		slli	a3,a3,1
 269 0020 A189     		andi	a1,a1,8
 270 0022 D58D     		or	a1,a1,a3
 271 0024 1206     		slli	a2,a2,4
 272              	.LVL30:
 273 0026 D18D     		or	a1,a1,a2
 274 0028 2A84     		mv	s0,a0
 104:C:/Users/stapi/OneDrive/Desktop/GD32VW553/V1_MQTT_OK/GD32VW55X_Wifi_BLE_SDK/GD32VW55x_RELEASE_V1.0.2/MSDK/cloud/alicloud/src/protocol/mqtt/MQTTPacket\MQTTSerializePublish.c ****     writeChar(&ptr, header.byte); /* write header */
 275              		.loc 1 104 5
 276 002a 6800     		addi	a0,sp,12
 277              	.LVL31:
 278 002c BA84     		mv	s1,a4
 101:C:/Users/stapi/OneDrive/Desktop/GD32VW553/V1_MQTT_OK/GD32VW55X_Wifi_BLE_SDK/GD32VW55x_RELEASE_V1.0.2/MSDK/cloud/alicloud/src/protocol/mqtt/MQTTPacket\MQTTSerializePublish.c ****     header.bits.dup = dup;
 279              		.loc 1 101 5 is_stmt 1
 102:C:/Users/stapi/OneDrive/Desktop/GD32VW553/V1_MQTT_OK/GD32VW55X_Wifi_BLE_SDK/GD32VW55x_RELEASE_V1.0.2/MSDK/cloud/alicloud/src/protocol/mqtt/MQTTPacket\MQTTSerializePublish.c ****     header.bits.qos = (packettype == PUBREL) ? 1 : 0;
 280              		.loc 1 102 5
 103:C:/Users/stapi/OneDrive/Desktop/GD32VW553/V1_MQTT_OK/GD32VW55X_Wifi_BLE_SDK/GD32VW55x_RELEASE_V1.0.2/MSDK/cloud/alicloud/src/protocol/mqtt/MQTTPacket\MQTTSerializePublish.c ****     writeChar(&ptr, header.byte); /* write header */
 281              		.loc 1 103 5
 282              		.loc 1 104 5
 283 002e 93954560 		sext.b	a1,a1
 284 0032 97000000 		call	writeChar
 284      E7800000 
 285              	.LVL32:
 105:C:/Users/stapi/OneDrive/Desktop/GD32VW553/V1_MQTT_OK/GD32VW55X_Wifi_BLE_SDK/GD32VW55x_RELEASE_V1.0.2/MSDK/cloud/alicloud/src/protocol/mqtt/MQTTPacket\MQTTSerializePublish.c **** 
 106:C:/Users/stapi/OneDrive/Desktop/GD32VW553/V1_MQTT_OK/GD32VW55X_Wifi_BLE_SDK/GD32VW55x_RELEASE_V1.0.2/MSDK/cloud/alicloud/src/protocol/mqtt/MQTTPacket\MQTTSerializePublish.c ****     ptr += MQTTPacket_encode(ptr, 2); /* write remaining length */
 286              		.loc 1 106 5
 287              		.loc 1 106 12 is_stmt 0
 288 003a 3245     		lw	a0,12(sp)
 289 003c 8945     		li	a1,2
 290 003e 97000000 		call	MQTTPacket_encode
 290      E7800000 
 291              	.LVL33:
 292              		.loc 1 106 9
 293 0046 B247     		lw	a5,12(sp)
 107:C:/Users/stapi/OneDrive/Desktop/GD32VW553/V1_MQTT_OK/GD32VW55X_Wifi_BLE_SDK/GD32VW55x_RELEASE_V1.0.2/MSDK/cloud/alicloud/src/protocol/mqtt/MQTTPacket\MQTTSerializePublish.c ****     writeInt(&ptr, packetid);
 294              		.loc 1 107 5
 295 0048 A685     		mv	a1,s1
 106:C:/Users/stapi/OneDrive/Desktop/GD32VW553/V1_MQTT_OK/GD32VW55X_Wifi_BLE_SDK/GD32VW55x_RELEASE_V1.0.2/MSDK/cloud/alicloud/src/protocol/mqtt/MQTTPacket\MQTTSerializePublish.c ****     writeInt(&ptr, packetid);
 296              		.loc 1 106 9
 297 004a AA97     		add	a5,a5,a0
 298              		.loc 1 107 5
 299 004c 6800     		addi	a0,sp,12
 106:C:/Users/stapi/OneDrive/Desktop/GD32VW553/V1_MQTT_OK/GD32VW55X_Wifi_BLE_SDK/GD32VW55x_RELEASE_V1.0.2/MSDK/cloud/alicloud/src/protocol/mqtt/MQTTPacket\MQTTSerializePublish.c ****     writeInt(&ptr, packetid);
 300              		.loc 1 106 9
 301 004e 3EC6     		sw	a5,12(sp)
 302              		.loc 1 107 5 is_stmt 1
 303 0050 97000000 		call	writeInt
 303      E7800000 
 304              	.LVL34:
 108:C:/Users/stapi/OneDrive/Desktop/GD32VW553/V1_MQTT_OK/GD32VW55X_Wifi_BLE_SDK/GD32VW55x_RELEASE_V1.0.2/MSDK/cloud/alicloud/src/protocol/mqtt/MQTTPacket\MQTTSerializePublish.c ****     rc = ptr - buf;
 305              		.loc 1 108 5
 306              		.loc 1 108 8 is_stmt 0
 307 0058 B247     		lw	a5,12(sp)
 308 005a 33858740 		sub	a0,a5,s0
 309              	.LVL35:
 310              	.L9:
 109:C:/Users/stapi/OneDrive/Desktop/GD32VW553/V1_MQTT_OK/GD32VW55X_Wifi_BLE_SDK/GD32VW55x_RELEASE_V1.0.2/MSDK/cloud/alicloud/src/protocol/mqtt/MQTTPacket\MQTTSerializePublish.c **** exit:
 110:C:/Users/stapi/OneDrive/Desktop/GD32VW553/V1_MQTT_OK/GD32VW55X_Wifi_BLE_SDK/GD32VW55x_RELEASE_V1.0.2/MSDK/cloud/alicloud/src/protocol/mqtt/MQTTPacket\MQTTSerializePublish.c ****     return rc;
 111:C:/Users/stapi/OneDrive/Desktop/GD32VW553/V1_MQTT_OK/GD32VW55X_Wifi_BLE_SDK/GD32VW55x_RELEASE_V1.0.2/MSDK/cloud/alicloud/src/protocol/mqtt/MQTTPacket\MQTTSerializePublish.c **** }
 311              		.loc 1 111 1
 312 005e 4101     		addi	sp,sp,16
 313              		.cfi_remember_state
 314              		.cfi_def_cfa_offset 0
 315 0060 17030000 		tail	__riscv_restore_2
 315      67000300 
 316              		.cfi_restore 9
 317              		.cfi_restore 8
 318              		.cfi_restore 1
 319              		.cfi_def_cfa_offset -16
 320              	.LVL36:
 321              	.L11:
 322              		.cfi_restore_state
 323              	.L10:
 110:C:/Users/stapi/OneDrive/Desktop/GD32VW553/V1_MQTT_OK/GD32VW55X_Wifi_BLE_SDK/GD32VW55x_RELEASE_V1.0.2/MSDK/cloud/alicloud/src/protocol/mqtt/MQTTPacket\MQTTSerializePublish.c **** }
 324              		.loc 1 110 5 is_stmt 1
  98:C:/Users/stapi/OneDrive/Desktop/GD32VW553/V1_MQTT_OK/GD32VW55X_Wifi_BLE_SDK/GD32VW55x_RELEASE_V1.0.2/MSDK/cloud/alicloud/src/protocol/mqtt/MQTTPacket\MQTTSerializePublish.c ****         goto exit;
 325              		.loc 1 98 12 is_stmt 0
 326 0068 7955     		li	a0,-2
 327              	.LVL37:
 110:C:/Users/stapi/OneDrive/Desktop/GD32VW553/V1_MQTT_OK/GD32VW55X_Wifi_BLE_SDK/GD32VW55x_RELEASE_V1.0.2/MSDK/cloud/alicloud/src/protocol/mqtt/MQTTPacket\MQTTSerializePublish.c **** }
 328              		.loc 1 110 12
 329 006a D5BF     		j	.L9
 330              		.cfi_endproc
 331              	.LFE3:
 333              		.text
 334              	.Letext0:
 335              		.file 2 "C:/Users/stapi/OneDrive/Desktop/GD32VW553/V1_MQTT_OK/GD32VW55X_Wifi_BLE_SDK/GD32VW55x_REL
 336              		.file 3 "<built-in>"