   1              		.file	"MQTTDeserializePublish.c"
   2              		.option nopic
   3              		.attribute arch, "rv32i2p0_m2p0_a2p0_f2p0_c2p0_b_p0p94"
   4              		.attribute unaligned_access, 0
   5              		.attribute stack_align, 16
   6              		.text
   7              	.Ltext0:
   8              		.cfi_sections	.debug_frame
   9              		.section	.text.MQTTDeserialize_publish,"ax",@progbits
  10              		.align	1
  11              		.globl	MQTTDeserialize_publish
  13              	MQTTDeserialize_publish:
  14              	.LFB1:
  15              		.file 1 "C:/Users/stapi/OneDrive/Desktop/GD32VW553/V1_MQTT_OK/GD32VW55X_Wifi_BLE_SDK/GD32VW55x_REL
   1:C:/Users/stapi/OneDrive/Desktop/GD32VW553/V1_MQTT_OK/GD32VW55X_Wifi_BLE_SDK/GD32VW55x_RELEASE_V1.0.2/MSDK/cloud/alicloud/src/protocol/mqtt/MQTTPacket\MQTTDeserializePublish.c **** /*
   2:C:/Users/stapi/OneDrive/Desktop/GD32VW553/V1_MQTT_OK/GD32VW55X_Wifi_BLE_SDK/GD32VW55x_RELEASE_V1.0.2/MSDK/cloud/alicloud/src/protocol/mqtt/MQTTPacket\MQTTDeserializePublish.c ****  * Copyright (C) 2015-2018 Alibaba Group Holding Limited
   3:C:/Users/stapi/OneDrive/Desktop/GD32VW553/V1_MQTT_OK/GD32VW55X_Wifi_BLE_SDK/GD32VW55x_RELEASE_V1.0.2/MSDK/cloud/alicloud/src/protocol/mqtt/MQTTPacket\MQTTDeserializePublish.c ****  */
   4:C:/Users/stapi/OneDrive/Desktop/GD32VW553/V1_MQTT_OK/GD32VW55X_Wifi_BLE_SDK/GD32VW55x_RELEASE_V1.0.2/MSDK/cloud/alicloud/src/protocol/mqtt/MQTTPacket\MQTTDeserializePublish.c **** 
   5:C:/Users/stapi/OneDrive/Desktop/GD32VW553/V1_MQTT_OK/GD32VW55X_Wifi_BLE_SDK/GD32VW55x_RELEASE_V1.0.2/MSDK/cloud/alicloud/src/protocol/mqtt/MQTTPacket\MQTTDeserializePublish.c **** #include "MQTTPacket.h"
   6:C:/Users/stapi/OneDrive/Desktop/GD32VW553/V1_MQTT_OK/GD32VW55X_Wifi_BLE_SDK/GD32VW55x_RELEASE_V1.0.2/MSDK/cloud/alicloud/src/protocol/mqtt/MQTTPacket\MQTTDeserializePublish.c **** #include <string.h>
   7:C:/Users/stapi/OneDrive/Desktop/GD32VW553/V1_MQTT_OK/GD32VW55X_Wifi_BLE_SDK/GD32VW55x_RELEASE_V1.0.2/MSDK/cloud/alicloud/src/protocol/mqtt/MQTTPacket\MQTTDeserializePublish.c **** 
   8:C:/Users/stapi/OneDrive/Desktop/GD32VW553/V1_MQTT_OK/GD32VW55X_Wifi_BLE_SDK/GD32VW55x_RELEASE_V1.0.2/MSDK/cloud/alicloud/src/protocol/mqtt/MQTTPacket\MQTTDeserializePublish.c **** #define min(a, b) ((a < b) ? 1 : 0)
   9:C:/Users/stapi/OneDrive/Desktop/GD32VW553/V1_MQTT_OK/GD32VW55X_Wifi_BLE_SDK/GD32VW55x_RELEASE_V1.0.2/MSDK/cloud/alicloud/src/protocol/mqtt/MQTTPacket\MQTTDeserializePublish.c **** 
  10:C:/Users/stapi/OneDrive/Desktop/GD32VW553/V1_MQTT_OK/GD32VW55X_Wifi_BLE_SDK/GD32VW55x_RELEASE_V1.0.2/MSDK/cloud/alicloud/src/protocol/mqtt/MQTTPacket\MQTTDeserializePublish.c **** /**
  11:C:/Users/stapi/OneDrive/Desktop/GD32VW553/V1_MQTT_OK/GD32VW55X_Wifi_BLE_SDK/GD32VW55x_RELEASE_V1.0.2/MSDK/cloud/alicloud/src/protocol/mqtt/MQTTPacket\MQTTDeserializePublish.c ****   * Deserializes the supplied (wire) buffer into publish data
  12:C:/Users/stapi/OneDrive/Desktop/GD32VW553/V1_MQTT_OK/GD32VW55X_Wifi_BLE_SDK/GD32VW55x_RELEASE_V1.0.2/MSDK/cloud/alicloud/src/protocol/mqtt/MQTTPacket\MQTTDeserializePublish.c ****   * @param dup returned integer - the MQTT dup flag
  13:C:/Users/stapi/OneDrive/Desktop/GD32VW553/V1_MQTT_OK/GD32VW55X_Wifi_BLE_SDK/GD32VW55x_RELEASE_V1.0.2/MSDK/cloud/alicloud/src/protocol/mqtt/MQTTPacket\MQTTDeserializePublish.c ****   * @param qos returned integer - the MQTT QoS value
  14:C:/Users/stapi/OneDrive/Desktop/GD32VW553/V1_MQTT_OK/GD32VW55X_Wifi_BLE_SDK/GD32VW55x_RELEASE_V1.0.2/MSDK/cloud/alicloud/src/protocol/mqtt/MQTTPacket\MQTTDeserializePublish.c ****   * @param retained returned integer - the MQTT retained flag
  15:C:/Users/stapi/OneDrive/Desktop/GD32VW553/V1_MQTT_OK/GD32VW55X_Wifi_BLE_SDK/GD32VW55x_RELEASE_V1.0.2/MSDK/cloud/alicloud/src/protocol/mqtt/MQTTPacket\MQTTDeserializePublish.c ****   * @param packetid returned integer - the MQTT packet identifier
  16:C:/Users/stapi/OneDrive/Desktop/GD32VW553/V1_MQTT_OK/GD32VW55X_Wifi_BLE_SDK/GD32VW55x_RELEASE_V1.0.2/MSDK/cloud/alicloud/src/protocol/mqtt/MQTTPacket\MQTTDeserializePublish.c ****   * @param topicName returned MQTTString - the MQTT topic in the publish
  17:C:/Users/stapi/OneDrive/Desktop/GD32VW553/V1_MQTT_OK/GD32VW55X_Wifi_BLE_SDK/GD32VW55x_RELEASE_V1.0.2/MSDK/cloud/alicloud/src/protocol/mqtt/MQTTPacket\MQTTDeserializePublish.c ****   * @param payload returned byte buffer - the MQTT publish payload
  18:C:/Users/stapi/OneDrive/Desktop/GD32VW553/V1_MQTT_OK/GD32VW55X_Wifi_BLE_SDK/GD32VW55x_RELEASE_V1.0.2/MSDK/cloud/alicloud/src/protocol/mqtt/MQTTPacket\MQTTDeserializePublish.c ****   * @param payloadlen returned integer - the length of the MQTT payload
  19:C:/Users/stapi/OneDrive/Desktop/GD32VW553/V1_MQTT_OK/GD32VW55X_Wifi_BLE_SDK/GD32VW55x_RELEASE_V1.0.2/MSDK/cloud/alicloud/src/protocol/mqtt/MQTTPacket\MQTTDeserializePublish.c ****   * @param buf the raw buffer data, of the correct length determined by the remaining length field
  20:C:/Users/stapi/OneDrive/Desktop/GD32VW553/V1_MQTT_OK/GD32VW55X_Wifi_BLE_SDK/GD32VW55x_RELEASE_V1.0.2/MSDK/cloud/alicloud/src/protocol/mqtt/MQTTPacket\MQTTDeserializePublish.c ****   * @param buflen the length in bytes of the data in the supplied buffer
  21:C:/Users/stapi/OneDrive/Desktop/GD32VW553/V1_MQTT_OK/GD32VW55X_Wifi_BLE_SDK/GD32VW55x_RELEASE_V1.0.2/MSDK/cloud/alicloud/src/protocol/mqtt/MQTTPacket\MQTTDeserializePublish.c ****   * @return error code.  1 is success
  22:C:/Users/stapi/OneDrive/Desktop/GD32VW553/V1_MQTT_OK/GD32VW55X_Wifi_BLE_SDK/GD32VW55x_RELEASE_V1.0.2/MSDK/cloud/alicloud/src/protocol/mqtt/MQTTPacket\MQTTDeserializePublish.c ****   */
  23:C:/Users/stapi/OneDrive/Desktop/GD32VW553/V1_MQTT_OK/GD32VW55X_Wifi_BLE_SDK/GD32VW55x_RELEASE_V1.0.2/MSDK/cloud/alicloud/src/protocol/mqtt/MQTTPacket\MQTTDeserializePublish.c **** int MQTTDeserialize_publish(unsigned char* dup, int* qos, unsigned char* retained, unsigned short* 
  24:C:/Users/stapi/OneDrive/Desktop/GD32VW553/V1_MQTT_OK/GD32VW55X_Wifi_BLE_SDK/GD32VW55x_RELEASE_V1.0.2/MSDK/cloud/alicloud/src/protocol/mqtt/MQTTPacket\MQTTDeserializePublish.c **** 		unsigned char** payload, int* payloadlen, unsigned char* buf, int buflen)
  25:C:/Users/stapi/OneDrive/Desktop/GD32VW553/V1_MQTT_OK/GD32VW55X_Wifi_BLE_SDK/GD32VW55x_RELEASE_V1.0.2/MSDK/cloud/alicloud/src/protocol/mqtt/MQTTPacket\MQTTDeserializePublish.c **** {
  16              		.loc 1 25 1
  17              		.cfi_startproc
  18              	.LVL0:
  19 0000 17030000 		call	t0,__riscv_save_7
  19      E7020300 
  20              		.cfi_offset 22, -32
  21              		.cfi_offset 21, -28
  22              		.cfi_offset 20, -24
  23              		.cfi_offset 19, -20
  24              		.cfi_offset 18, -16
  25              		.cfi_offset 9, -12
  26              		.cfi_offset 8, -8
  27              		.cfi_offset 1, -4
  28              		.cfi_def_cfa_offset 32
  26:C:/Users/stapi/OneDrive/Desktop/GD32VW553/V1_MQTT_OK/GD32VW55X_Wifi_BLE_SDK/GD32VW55x_RELEASE_V1.0.2/MSDK/cloud/alicloud/src/protocol/mqtt/MQTTPacket\MQTTDeserializePublish.c **** 	MQTTHeader header = {0};
  29              		.loc 1 26 2
  27:C:/Users/stapi/OneDrive/Desktop/GD32VW553/V1_MQTT_OK/GD32VW55X_Wifi_BLE_SDK/GD32VW55x_RELEASE_V1.0.2/MSDK/cloud/alicloud/src/protocol/mqtt/MQTTPacket\MQTTDeserializePublish.c **** 	unsigned char* curdata = buf;
  30              		.loc 1 27 2
  25:C:/Users/stapi/OneDrive/Desktop/GD32VW553/V1_MQTT_OK/GD32VW55X_Wifi_BLE_SDK/GD32VW55x_RELEASE_V1.0.2/MSDK/cloud/alicloud/src/protocol/mqtt/MQTTPacket\MQTTDeserializePublish.c **** 	MQTTHeader header = {0};
  31              		.loc 1 25 1 is_stmt 0
  32 0008 4111     		addi	sp,sp,-16
  33              		.cfi_def_cfa_offset 48
  25:C:/Users/stapi/OneDrive/Desktop/GD32VW553/V1_MQTT_OK/GD32VW55X_Wifi_BLE_SDK/GD32VW55x_RELEASE_V1.0.2/MSDK/cloud/alicloud/src/protocol/mqtt/MQTTPacket\MQTTDeserializePublish.c **** 	MQTTHeader header = {0};
  34              		.loc 1 25 1
  35 000a AA84     		mv	s1,a0
  28:C:/Users/stapi/OneDrive/Desktop/GD32VW553/V1_MQTT_OK/GD32VW55X_Wifi_BLE_SDK/GD32VW55x_RELEASE_V1.0.2/MSDK/cloud/alicloud/src/protocol/mqtt/MQTTPacket\MQTTDeserializePublish.c **** 	unsigned char* enddata = NULL;
  29:C:/Users/stapi/OneDrive/Desktop/GD32VW553/V1_MQTT_OK/GD32VW55X_Wifi_BLE_SDK/GD32VW55x_RELEASE_V1.0.2/MSDK/cloud/alicloud/src/protocol/mqtt/MQTTPacket\MQTTDeserializePublish.c **** 	int rc = 0;
  30:C:/Users/stapi/OneDrive/Desktop/GD32VW553/V1_MQTT_OK/GD32VW55X_Wifi_BLE_SDK/GD32VW55x_RELEASE_V1.0.2/MSDK/cloud/alicloud/src/protocol/mqtt/MQTTPacket\MQTTDeserializePublish.c **** 	int mylen = 0;
  31:C:/Users/stapi/OneDrive/Desktop/GD32VW553/V1_MQTT_OK/GD32VW55X_Wifi_BLE_SDK/GD32VW55x_RELEASE_V1.0.2/MSDK/cloud/alicloud/src/protocol/mqtt/MQTTPacket\MQTTDeserializePublish.c **** 
  32:C:/Users/stapi/OneDrive/Desktop/GD32VW553/V1_MQTT_OK/GD32VW55X_Wifi_BLE_SDK/GD32VW55x_RELEASE_V1.0.2/MSDK/cloud/alicloud/src/protocol/mqtt/MQTTPacket\MQTTDeserializePublish.c **** 	header.byte = readChar(&curdata);
  36              		.loc 1 32 16
  37 000c 2800     		addi	a0,sp,8
  38              	.LVL1:
  25:C:/Users/stapi/OneDrive/Desktop/GD32VW553/V1_MQTT_OK/GD32VW55X_Wifi_BLE_SDK/GD32VW55x_RELEASE_V1.0.2/MSDK/cloud/alicloud/src/protocol/mqtt/MQTTPacket\MQTTDeserializePublish.c **** 	MQTTHeader header = {0};
  39              		.loc 1 25 1
  40 000e 3A8B     		mv	s6,a4
  41 0010 BE89     		mv	s3,a5
  42 0012 2E89     		mv	s2,a1
  43 0014 3284     		mv	s0,a2
  44 0016 B68A     		mv	s5,a3
  45 0018 428A     		mv	s4,a6
  27:C:/Users/stapi/OneDrive/Desktop/GD32VW553/V1_MQTT_OK/GD32VW55X_Wifi_BLE_SDK/GD32VW55x_RELEASE_V1.0.2/MSDK/cloud/alicloud/src/protocol/mqtt/MQTTPacket\MQTTDeserializePublish.c **** 	unsigned char* enddata = NULL;
  46              		.loc 1 27 17
  47 001a 46C4     		sw	a7,8(sp)
  28:C:/Users/stapi/OneDrive/Desktop/GD32VW553/V1_MQTT_OK/GD32VW55X_Wifi_BLE_SDK/GD32VW55x_RELEASE_V1.0.2/MSDK/cloud/alicloud/src/protocol/mqtt/MQTTPacket\MQTTDeserializePublish.c **** 	unsigned char* enddata = NULL;
  48              		.loc 1 28 2 is_stmt 1
  49              	.LVL2:
  29:C:/Users/stapi/OneDrive/Desktop/GD32VW553/V1_MQTT_OK/GD32VW55X_Wifi_BLE_SDK/GD32VW55x_RELEASE_V1.0.2/MSDK/cloud/alicloud/src/protocol/mqtt/MQTTPacket\MQTTDeserializePublish.c **** 	int mylen = 0;
  50              		.loc 1 29 2
  30:C:/Users/stapi/OneDrive/Desktop/GD32VW553/V1_MQTT_OK/GD32VW55X_Wifi_BLE_SDK/GD32VW55x_RELEASE_V1.0.2/MSDK/cloud/alicloud/src/protocol/mqtt/MQTTPacket\MQTTDeserializePublish.c **** 
  51              		.loc 1 30 2
  30:C:/Users/stapi/OneDrive/Desktop/GD32VW553/V1_MQTT_OK/GD32VW55X_Wifi_BLE_SDK/GD32VW55x_RELEASE_V1.0.2/MSDK/cloud/alicloud/src/protocol/mqtt/MQTTPacket\MQTTDeserializePublish.c **** 
  52              		.loc 1 30 6 is_stmt 0
  53 001c 02C6     		sw	zero,12(sp)
  54              		.loc 1 32 2 is_stmt 1
  55              		.loc 1 32 16 is_stmt 0
  56 001e 97000000 		call	readChar
  56      E7800000 
  57              	.LVL3:
  33:C:/Users/stapi/OneDrive/Desktop/GD32VW553/V1_MQTT_OK/GD32VW55X_Wifi_BLE_SDK/GD32VW55x_RELEASE_V1.0.2/MSDK/cloud/alicloud/src/protocol/mqtt/MQTTPacket\MQTTDeserializePublish.c **** 	if (header.bits.type != PUBLISH)
  58              		.loc 1 33 2 is_stmt 1
  59              		.loc 1 33 5 is_stmt 0
  60 0026 9377050F 		andi	a5,a0,240
  61 002a 13070003 		li	a4,48
  62 002e 6392E708 		bne	a5,a4,.L4
  63 0032 9378F50F 		andi	a7,a0,0xff
  34:C:/Users/stapi/OneDrive/Desktop/GD32VW553/V1_MQTT_OK/GD32VW55X_Wifi_BLE_SDK/GD32VW55x_RELEASE_V1.0.2/MSDK/cloud/alicloud/src/protocol/mqtt/MQTTPacket\MQTTDeserializePublish.c **** 		goto exit;
  35:C:/Users/stapi/OneDrive/Desktop/GD32VW553/V1_MQTT_OK/GD32VW55X_Wifi_BLE_SDK/GD32VW55x_RELEASE_V1.0.2/MSDK/cloud/alicloud/src/protocol/mqtt/MQTTPacket\MQTTDeserializePublish.c **** 	*dup = header.bits.dup;
  64              		.loc 1 35 2 is_stmt 1
  65              		.loc 1 35 20 is_stmt 0
  66 0036 93D73848 		bexti	a5,a7,3
  67              		.loc 1 35 7
  68 003a 2380F400 		sb	a5,0(s1)
  36:C:/Users/stapi/OneDrive/Desktop/GD32VW553/V1_MQTT_OK/GD32VW55X_Wifi_BLE_SDK/GD32VW55x_RELEASE_V1.0.2/MSDK/cloud/alicloud/src/protocol/mqtt/MQTTPacket\MQTTDeserializePublish.c **** 	*qos = header.bits.qos;
  69              		.loc 1 36 2 is_stmt 1
  70              		.loc 1 36 20 is_stmt 0
  71 003e 93D71800 		srli	a5,a7,1
  72 0042 8D8B     		andi	a5,a5,3
  37:C:/Users/stapi/OneDrive/Desktop/GD32VW553/V1_MQTT_OK/GD32VW55X_Wifi_BLE_SDK/GD32VW55x_RELEASE_V1.0.2/MSDK/cloud/alicloud/src/protocol/mqtt/MQTTPacket\MQTTDeserializePublish.c **** 	*retained = header.bits.retain;
  38:C:/Users/stapi/OneDrive/Desktop/GD32VW553/V1_MQTT_OK/GD32VW55X_Wifi_BLE_SDK/GD32VW55x_RELEASE_V1.0.2/MSDK/cloud/alicloud/src/protocol/mqtt/MQTTPacket\MQTTDeserializePublish.c **** 
  39:C:/Users/stapi/OneDrive/Desktop/GD32VW553/V1_MQTT_OK/GD32VW55X_Wifi_BLE_SDK/GD32VW55x_RELEASE_V1.0.2/MSDK/cloud/alicloud/src/protocol/mqtt/MQTTPacket\MQTTDeserializePublish.c **** 	curdata += (rc = MQTTPacket_decodeBuf(curdata, &mylen)); /* read remaining length */
  73              		.loc 1 39 19
  74 0044 2245     		lw	a0,8(sp)
  36:C:/Users/stapi/OneDrive/Desktop/GD32VW553/V1_MQTT_OK/GD32VW55X_Wifi_BLE_SDK/GD32VW55x_RELEASE_V1.0.2/MSDK/cloud/alicloud/src/protocol/mqtt/MQTTPacket\MQTTDeserializePublish.c **** 	*qos = header.bits.qos;
  75              		.loc 1 36 20
  76 0046 2320F900 		sw	a5,0(s2)
  37:C:/Users/stapi/OneDrive/Desktop/GD32VW553/V1_MQTT_OK/GD32VW55X_Wifi_BLE_SDK/GD32VW55x_RELEASE_V1.0.2/MSDK/cloud/alicloud/src/protocol/mqtt/MQTTPacket\MQTTDeserializePublish.c **** 	*retained = header.bits.retain;
  77              		.loc 1 37 2 is_stmt 1
  37:C:/Users/stapi/OneDrive/Desktop/GD32VW553/V1_MQTT_OK/GD32VW55X_Wifi_BLE_SDK/GD32VW55x_RELEASE_V1.0.2/MSDK/cloud/alicloud/src/protocol/mqtt/MQTTPacket\MQTTDeserializePublish.c **** 	*retained = header.bits.retain;
  78              		.loc 1 37 25 is_stmt 0
  79 004a 93F81800 		andi	a7,a7,1
  37:C:/Users/stapi/OneDrive/Desktop/GD32VW553/V1_MQTT_OK/GD32VW55X_Wifi_BLE_SDK/GD32VW55x_RELEASE_V1.0.2/MSDK/cloud/alicloud/src/protocol/mqtt/MQTTPacket\MQTTDeserializePublish.c **** 	*retained = header.bits.retain;
  80              		.loc 1 37 12
  81 004e 23001401 		sb	a7,0(s0)
  82              		.loc 1 39 2 is_stmt 1
  83              		.loc 1 39 19 is_stmt 0
  84 0052 6C00     		addi	a1,sp,12
  85 0054 97000000 		call	MQTTPacket_decodeBuf
  85      E7800000 
  86              	.LVL4:
  87              		.loc 1 39 10
  88 005c 2244     		lw	s0,8(sp)
  89              	.LVL5:
  40:C:/Users/stapi/OneDrive/Desktop/GD32VW553/V1_MQTT_OK/GD32VW55X_Wifi_BLE_SDK/GD32VW55x_RELEASE_V1.0.2/MSDK/cloud/alicloud/src/protocol/mqtt/MQTTPacket\MQTTDeserializePublish.c **** 	enddata = curdata + mylen;
  90              		.loc 1 40 10
  91 005e 3246     		lw	a2,12(sp)
  39:C:/Users/stapi/OneDrive/Desktop/GD32VW553/V1_MQTT_OK/GD32VW55X_Wifi_BLE_SDK/GD32VW55x_RELEASE_V1.0.2/MSDK/cloud/alicloud/src/protocol/mqtt/MQTTPacket\MQTTDeserializePublish.c **** 	enddata = curdata + mylen;
  92              		.loc 1 39 19
  93 0060 AA84     		mv	s1,a0
  94              	.LVL6:
  39:C:/Users/stapi/OneDrive/Desktop/GD32VW553/V1_MQTT_OK/GD32VW55X_Wifi_BLE_SDK/GD32VW55x_RELEASE_V1.0.2/MSDK/cloud/alicloud/src/protocol/mqtt/MQTTPacket\MQTTDeserializePublish.c **** 	enddata = curdata + mylen;
  95              		.loc 1 39 10
  96 0062 2A94     		add	s0,s0,a0
  97 0064 22C4     		sw	s0,8(sp)
  98              		.loc 1 40 2 is_stmt 1
  99              		.loc 1 40 10 is_stmt 0
 100 0066 3294     		add	s0,s0,a2
 101              	.LVL7:
  41:C:/Users/stapi/OneDrive/Desktop/GD32VW553/V1_MQTT_OK/GD32VW55X_Wifi_BLE_SDK/GD32VW55x_RELEASE_V1.0.2/MSDK/cloud/alicloud/src/protocol/mqtt/MQTTPacket\MQTTDeserializePublish.c **** 
  42:C:/Users/stapi/OneDrive/Desktop/GD32VW553/V1_MQTT_OK/GD32VW55X_Wifi_BLE_SDK/GD32VW55x_RELEASE_V1.0.2/MSDK/cloud/alicloud/src/protocol/mqtt/MQTTPacket\MQTTDeserializePublish.c **** 	if (!readMQTTLenString(topicName, &curdata, enddata) ||
 102              		.loc 1 42 2 is_stmt 1
 103              		.loc 1 42 7 is_stmt 0
 104 0068 2286     		mv	a2,s0
 105 006a 2C00     		addi	a1,sp,8
 106 006c 5A85     		mv	a0,s6
 107 006e 97000000 		call	readMQTTLenString
 107      E7800000 
 108              	.LVL8:
 109              		.loc 1 42 5
 110 0076 05C9     		beq	a0,zero,.L1
  43:C:/Users/stapi/OneDrive/Desktop/GD32VW553/V1_MQTT_OK/GD32VW55X_Wifi_BLE_SDK/GD32VW55x_RELEASE_V1.0.2/MSDK/cloud/alicloud/src/protocol/mqtt/MQTTPacket\MQTTDeserializePublish.c **** 		enddata - curdata < 0) /* do we have enough data to read the protocol version byte? */
 111              		.loc 1 43 11 discriminator 1
 112 0078 A247     		lw	a5,8(sp)
 113 007a B307F440 		sub	a5,s0,a5
  42:C:/Users/stapi/OneDrive/Desktop/GD32VW553/V1_MQTT_OK/GD32VW55X_Wifi_BLE_SDK/GD32VW55x_RELEASE_V1.0.2/MSDK/cloud/alicloud/src/protocol/mqtt/MQTTPacket\MQTTDeserializePublish.c **** 		enddata - curdata < 0) /* do we have enough data to read the protocol version byte? */
 114              		.loc 1 42 55 discriminator 1
 115 007e 63C40702 		blt	a5,zero,.L1
  44:C:/Users/stapi/OneDrive/Desktop/GD32VW553/V1_MQTT_OK/GD32VW55X_Wifi_BLE_SDK/GD32VW55x_RELEASE_V1.0.2/MSDK/cloud/alicloud/src/protocol/mqtt/MQTTPacket\MQTTDeserializePublish.c **** 		goto exit;
  45:C:/Users/stapi/OneDrive/Desktop/GD32VW553/V1_MQTT_OK/GD32VW55X_Wifi_BLE_SDK/GD32VW55x_RELEASE_V1.0.2/MSDK/cloud/alicloud/src/protocol/mqtt/MQTTPacket\MQTTDeserializePublish.c **** 
  46:C:/Users/stapi/OneDrive/Desktop/GD32VW553/V1_MQTT_OK/GD32VW55X_Wifi_BLE_SDK/GD32VW55x_RELEASE_V1.0.2/MSDK/cloud/alicloud/src/protocol/mqtt/MQTTPacket\MQTTDeserializePublish.c **** 	if (*qos > 0)
 116              		.loc 1 46 2 is_stmt 1
 117              		.loc 1 46 5 is_stmt 0
 118 0082 83270900 		lw	a5,0(s2)
 119 0086 6359F000 		ble	a5,zero,.L3
  47:C:/Users/stapi/OneDrive/Desktop/GD32VW553/V1_MQTT_OK/GD32VW55X_Wifi_BLE_SDK/GD32VW55x_RELEASE_V1.0.2/MSDK/cloud/alicloud/src/protocol/mqtt/MQTTPacket\MQTTDeserializePublish.c **** 		*packetid = readInt(&curdata);
 120              		.loc 1 47 3 is_stmt 1
 121              		.loc 1 47 15 is_stmt 0
 122 008a 2800     		addi	a0,sp,8
 123 008c 97000000 		call	readInt
 123      E7800000 
 124              	.LVL9:
 125              		.loc 1 47 13
 126 0094 2390AA00 		sh	a0,0(s5)
 127              	.L3:
  48:C:/Users/stapi/OneDrive/Desktop/GD32VW553/V1_MQTT_OK/GD32VW55X_Wifi_BLE_SDK/GD32VW55x_RELEASE_V1.0.2/MSDK/cloud/alicloud/src/protocol/mqtt/MQTTPacket\MQTTDeserializePublish.c **** 
  49:C:/Users/stapi/OneDrive/Desktop/GD32VW553/V1_MQTT_OK/GD32VW55X_Wifi_BLE_SDK/GD32VW55x_RELEASE_V1.0.2/MSDK/cloud/alicloud/src/protocol/mqtt/MQTTPacket\MQTTDeserializePublish.c **** 	*payloadlen = enddata - curdata;
 128              		.loc 1 49 2 is_stmt 1
 129              		.loc 1 49 24 is_stmt 0
 130 0098 A247     		lw	a5,8(sp)
  50:C:/Users/stapi/OneDrive/Desktop/GD32VW553/V1_MQTT_OK/GD32VW55X_Wifi_BLE_SDK/GD32VW55x_RELEASE_V1.0.2/MSDK/cloud/alicloud/src/protocol/mqtt/MQTTPacket\MQTTDeserializePublish.c **** 	*payload = curdata;
  51:C:/Users/stapi/OneDrive/Desktop/GD32VW553/V1_MQTT_OK/GD32VW55X_Wifi_BLE_SDK/GD32VW55x_RELEASE_V1.0.2/MSDK/cloud/alicloud/src/protocol/mqtt/MQTTPacket\MQTTDeserializePublish.c **** 	rc = 1;
 131              		.loc 1 51 5
 132 009a 8544     		li	s1,1
 133              	.LVL10:
  49:C:/Users/stapi/OneDrive/Desktop/GD32VW553/V1_MQTT_OK/GD32VW55X_Wifi_BLE_SDK/GD32VW55x_RELEASE_V1.0.2/MSDK/cloud/alicloud/src/protocol/mqtt/MQTTPacket\MQTTDeserializePublish.c **** 	*payload = curdata;
 134              		.loc 1 49 24
 135 009c 1D8C     		sub	s0,s0,a5
 136              	.LVL11:
  49:C:/Users/stapi/OneDrive/Desktop/GD32VW553/V1_MQTT_OK/GD32VW55X_Wifi_BLE_SDK/GD32VW55x_RELEASE_V1.0.2/MSDK/cloud/alicloud/src/protocol/mqtt/MQTTPacket\MQTTDeserializePublish.c **** 	*payload = curdata;
 137              		.loc 1 49 14
 138 009e 23208A00 		sw	s0,0(s4)
  50:C:/Users/stapi/OneDrive/Desktop/GD32VW553/V1_MQTT_OK/GD32VW55X_Wifi_BLE_SDK/GD32VW55x_RELEASE_V1.0.2/MSDK/cloud/alicloud/src/protocol/mqtt/MQTTPacket\MQTTDeserializePublish.c **** 	*payload = curdata;
 139              		.loc 1 50 2 is_stmt 1
  50:C:/Users/stapi/OneDrive/Desktop/GD32VW553/V1_MQTT_OK/GD32VW55X_Wifi_BLE_SDK/GD32VW55x_RELEASE_V1.0.2/MSDK/cloud/alicloud/src/protocol/mqtt/MQTTPacket\MQTTDeserializePublish.c **** 	*payload = curdata;
 140              		.loc 1 50 11 is_stmt 0
 141 00a2 23A0F900 		sw	a5,0(s3)
 142              		.loc 1 51 2 is_stmt 1
 143              	.LVL12:
 144              	.L1:
  52:C:/Users/stapi/OneDrive/Desktop/GD32VW553/V1_MQTT_OK/GD32VW55X_Wifi_BLE_SDK/GD32VW55x_RELEASE_V1.0.2/MSDK/cloud/alicloud/src/protocol/mqtt/MQTTPacket\MQTTDeserializePublish.c **** exit:
  53:C:/Users/stapi/OneDrive/Desktop/GD32VW553/V1_MQTT_OK/GD32VW55X_Wifi_BLE_SDK/GD32VW55x_RELEASE_V1.0.2/MSDK/cloud/alicloud/src/protocol/mqtt/MQTTPacket\MQTTDeserializePublish.c **** 	return rc;
  54:C:/Users/stapi/OneDrive/Desktop/GD32VW553/V1_MQTT_OK/GD32VW55X_Wifi_BLE_SDK/GD32VW55x_RELEASE_V1.0.2/MSDK/cloud/alicloud/src/protocol/mqtt/MQTTPacket\MQTTDeserializePublish.c **** }
 145              		.loc 1 54 1 is_stmt 0
 146 00a6 2685     		mv	a0,s1
 147 00a8 4101     		addi	sp,sp,16
 148              		.cfi_remember_state
 149              		.cfi_def_cfa_offset 0
 150              	.LVL13:
 151 00aa 17030000 		tail	__riscv_restore_7
 151      67000300 
 152              		.cfi_restore 22
 153              		.cfi_restore 21
 154              		.cfi_restore 20
 155              		.cfi_restore 19
 156              		.cfi_restore 18
 157              		.cfi_restore 9
 158              		.cfi_restore 8
 159              		.cfi_restore 1
 160              		.cfi_def_cfa_offset -32
 161              	.LVL14:
 162              	.L4:
 163              		.cfi_restore_state
 164              	.L2:
  53:C:/Users/stapi/OneDrive/Desktop/GD32VW553/V1_MQTT_OK/GD32VW55X_Wifi_BLE_SDK/GD32VW55x_RELEASE_V1.0.2/MSDK/cloud/alicloud/src/protocol/mqtt/MQTTPacket\MQTTDeserializePublish.c **** }
 165              		.loc 1 53 2 is_stmt 1
  29:C:/Users/stapi/OneDrive/Desktop/GD32VW553/V1_MQTT_OK/GD32VW55X_Wifi_BLE_SDK/GD32VW55x_RELEASE_V1.0.2/MSDK/cloud/alicloud/src/protocol/mqtt/MQTTPacket\MQTTDeserializePublish.c **** 	int mylen = 0;
 166              		.loc 1 29 6 is_stmt 0
 167 00b2 8144     		li	s1,0
 168              	.LVL15:
  53:C:/Users/stapi/OneDrive/Desktop/GD32VW553/V1_MQTT_OK/GD32VW55X_Wifi_BLE_SDK/GD32VW55x_RELEASE_V1.0.2/MSDK/cloud/alicloud/src/protocol/mqtt/MQTTPacket\MQTTDeserializePublish.c **** }
 169              		.loc 1 53 9
 170 00b4 CDBF     		j	.L1
 171              		.cfi_endproc
 172              	.LFE1:
 174              		.section	.text.MQTTDeserialize_ack,"ax",@progbits
 175              		.align	1
 176              		.globl	MQTTDeserialize_ack
 178              	MQTTDeserialize_ack:
 179              	.LFB2:
  55:C:/Users/stapi/OneDrive/Desktop/GD32VW553/V1_MQTT_OK/GD32VW55X_Wifi_BLE_SDK/GD32VW55x_RELEASE_V1.0.2/MSDK/cloud/alicloud/src/protocol/mqtt/MQTTPacket\MQTTDeserializePublish.c **** 
  56:C:/Users/stapi/OneDrive/Desktop/GD32VW553/V1_MQTT_OK/GD32VW55X_Wifi_BLE_SDK/GD32VW55x_RELEASE_V1.0.2/MSDK/cloud/alicloud/src/protocol/mqtt/MQTTPacket\MQTTDeserializePublish.c **** 
  57:C:/Users/stapi/OneDrive/Desktop/GD32VW553/V1_MQTT_OK/GD32VW55X_Wifi_BLE_SDK/GD32VW55x_RELEASE_V1.0.2/MSDK/cloud/alicloud/src/protocol/mqtt/MQTTPacket\MQTTDeserializePublish.c **** 
  58:C:/Users/stapi/OneDrive/Desktop/GD32VW553/V1_MQTT_OK/GD32VW55X_Wifi_BLE_SDK/GD32VW55x_RELEASE_V1.0.2/MSDK/cloud/alicloud/src/protocol/mqtt/MQTTPacket\MQTTDeserializePublish.c **** /**
  59:C:/Users/stapi/OneDrive/Desktop/GD32VW553/V1_MQTT_OK/GD32VW55X_Wifi_BLE_SDK/GD32VW55x_RELEASE_V1.0.2/MSDK/cloud/alicloud/src/protocol/mqtt/MQTTPacket\MQTTDeserializePublish.c ****   * Deserializes the supplied (wire) buffer into an ack
  60:C:/Users/stapi/OneDrive/Desktop/GD32VW553/V1_MQTT_OK/GD32VW55X_Wifi_BLE_SDK/GD32VW55x_RELEASE_V1.0.2/MSDK/cloud/alicloud/src/protocol/mqtt/MQTTPacket\MQTTDeserializePublish.c ****   * @param packettype returned integer - the MQTT packet type
  61:C:/Users/stapi/OneDrive/Desktop/GD32VW553/V1_MQTT_OK/GD32VW55X_Wifi_BLE_SDK/GD32VW55x_RELEASE_V1.0.2/MSDK/cloud/alicloud/src/protocol/mqtt/MQTTPacket\MQTTDeserializePublish.c ****   * @param dup returned integer - the MQTT dup flag
  62:C:/Users/stapi/OneDrive/Desktop/GD32VW553/V1_MQTT_OK/GD32VW55X_Wifi_BLE_SDK/GD32VW55x_RELEASE_V1.0.2/MSDK/cloud/alicloud/src/protocol/mqtt/MQTTPacket\MQTTDeserializePublish.c ****   * @param packetid returned integer - the MQTT packet identifier
  63:C:/Users/stapi/OneDrive/Desktop/GD32VW553/V1_MQTT_OK/GD32VW55X_Wifi_BLE_SDK/GD32VW55x_RELEASE_V1.0.2/MSDK/cloud/alicloud/src/protocol/mqtt/MQTTPacket\MQTTDeserializePublish.c ****   * @param buf the raw buffer data, of the correct length determined by the remaining length field
  64:C:/Users/stapi/OneDrive/Desktop/GD32VW553/V1_MQTT_OK/GD32VW55X_Wifi_BLE_SDK/GD32VW55x_RELEASE_V1.0.2/MSDK/cloud/alicloud/src/protocol/mqtt/MQTTPacket\MQTTDeserializePublish.c ****   * @param buflen the length in bytes of the data in the supplied buffer
  65:C:/Users/stapi/OneDrive/Desktop/GD32VW553/V1_MQTT_OK/GD32VW55X_Wifi_BLE_SDK/GD32VW55x_RELEASE_V1.0.2/MSDK/cloud/alicloud/src/protocol/mqtt/MQTTPacket\MQTTDeserializePublish.c ****   * @return error code.  1 is success, 0 is failure
  66:C:/Users/stapi/OneDrive/Desktop/GD32VW553/V1_MQTT_OK/GD32VW55X_Wifi_BLE_SDK/GD32VW55x_RELEASE_V1.0.2/MSDK/cloud/alicloud/src/protocol/mqtt/MQTTPacket\MQTTDeserializePublish.c ****   */
  67:C:/Users/stapi/OneDrive/Desktop/GD32VW553/V1_MQTT_OK/GD32VW55X_Wifi_BLE_SDK/GD32VW55x_RELEASE_V1.0.2/MSDK/cloud/alicloud/src/protocol/mqtt/MQTTPacket\MQTTDeserializePublish.c **** int MQTTDeserialize_ack(unsigned char* packettype, unsigned char* dup, unsigned short* packetid, un
  68:C:/Users/stapi/OneDrive/Desktop/GD32VW553/V1_MQTT_OK/GD32VW55X_Wifi_BLE_SDK/GD32VW55x_RELEASE_V1.0.2/MSDK/cloud/alicloud/src/protocol/mqtt/MQTTPacket\MQTTDeserializePublish.c **** {
 180              		.loc 1 68 1 is_stmt 1
 181              		.cfi_startproc
 182              	.LVL16:
 183 0000 17030000 		call	t0,__riscv_save_3
 183      E7020300 
 184              		.cfi_offset 18, -16
 185              		.cfi_offset 9, -12
 186              		.cfi_offset 8, -8
 187              		.cfi_offset 1, -4
 188              		.cfi_def_cfa_offset 16
  69:C:/Users/stapi/OneDrive/Desktop/GD32VW553/V1_MQTT_OK/GD32VW55X_Wifi_BLE_SDK/GD32VW55x_RELEASE_V1.0.2/MSDK/cloud/alicloud/src/protocol/mqtt/MQTTPacket\MQTTDeserializePublish.c **** 	MQTTHeader header = {0};
 189              		.loc 1 69 2
  70:C:/Users/stapi/OneDrive/Desktop/GD32VW553/V1_MQTT_OK/GD32VW55X_Wifi_BLE_SDK/GD32VW55x_RELEASE_V1.0.2/MSDK/cloud/alicloud/src/protocol/mqtt/MQTTPacket\MQTTDeserializePublish.c **** 	unsigned char* curdata = buf;
 190              		.loc 1 70 2
  68:C:/Users/stapi/OneDrive/Desktop/GD32VW553/V1_MQTT_OK/GD32VW55X_Wifi_BLE_SDK/GD32VW55x_RELEASE_V1.0.2/MSDK/cloud/alicloud/src/protocol/mqtt/MQTTPacket\MQTTDeserializePublish.c **** 	MQTTHeader header = {0};
 191              		.loc 1 68 1 is_stmt 0
 192 0008 4111     		addi	sp,sp,-16
 193              		.cfi_def_cfa_offset 32
  68:C:/Users/stapi/OneDrive/Desktop/GD32VW553/V1_MQTT_OK/GD32VW55X_Wifi_BLE_SDK/GD32VW55x_RELEASE_V1.0.2/MSDK/cloud/alicloud/src/protocol/mqtt/MQTTPacket\MQTTDeserializePublish.c **** 	MQTTHeader header = {0};
 194              		.loc 1 68 1
 195 000a AA84     		mv	s1,a0
  71:C:/Users/stapi/OneDrive/Desktop/GD32VW553/V1_MQTT_OK/GD32VW55X_Wifi_BLE_SDK/GD32VW55x_RELEASE_V1.0.2/MSDK/cloud/alicloud/src/protocol/mqtt/MQTTPacket\MQTTDeserializePublish.c **** 	unsigned char* enddata = NULL;
  72:C:/Users/stapi/OneDrive/Desktop/GD32VW553/V1_MQTT_OK/GD32VW55X_Wifi_BLE_SDK/GD32VW55x_RELEASE_V1.0.2/MSDK/cloud/alicloud/src/protocol/mqtt/MQTTPacket\MQTTDeserializePublish.c **** 	int rc = 0;
  73:C:/Users/stapi/OneDrive/Desktop/GD32VW553/V1_MQTT_OK/GD32VW55X_Wifi_BLE_SDK/GD32VW55x_RELEASE_V1.0.2/MSDK/cloud/alicloud/src/protocol/mqtt/MQTTPacket\MQTTDeserializePublish.c **** 	int mylen;
  74:C:/Users/stapi/OneDrive/Desktop/GD32VW553/V1_MQTT_OK/GD32VW55X_Wifi_BLE_SDK/GD32VW55x_RELEASE_V1.0.2/MSDK/cloud/alicloud/src/protocol/mqtt/MQTTPacket\MQTTDeserializePublish.c **** 
  75:C:/Users/stapi/OneDrive/Desktop/GD32VW553/V1_MQTT_OK/GD32VW55X_Wifi_BLE_SDK/GD32VW55x_RELEASE_V1.0.2/MSDK/cloud/alicloud/src/protocol/mqtt/MQTTPacket\MQTTDeserializePublish.c **** 	header.byte = readChar(&curdata);
 196              		.loc 1 75 16
 197 000c 2800     		addi	a0,sp,8
 198              	.LVL17:
  68:C:/Users/stapi/OneDrive/Desktop/GD32VW553/V1_MQTT_OK/GD32VW55X_Wifi_BLE_SDK/GD32VW55x_RELEASE_V1.0.2/MSDK/cloud/alicloud/src/protocol/mqtt/MQTTPacket\MQTTDeserializePublish.c **** 	MQTTHeader header = {0};
 199              		.loc 1 68 1
 200 000e 2E89     		mv	s2,a1
 201 0010 3284     		mv	s0,a2
  70:C:/Users/stapi/OneDrive/Desktop/GD32VW553/V1_MQTT_OK/GD32VW55X_Wifi_BLE_SDK/GD32VW55x_RELEASE_V1.0.2/MSDK/cloud/alicloud/src/protocol/mqtt/MQTTPacket\MQTTDeserializePublish.c **** 	unsigned char* enddata = NULL;
 202              		.loc 1 70 17
 203 0012 36C4     		sw	a3,8(sp)
  71:C:/Users/stapi/OneDrive/Desktop/GD32VW553/V1_MQTT_OK/GD32VW55X_Wifi_BLE_SDK/GD32VW55x_RELEASE_V1.0.2/MSDK/cloud/alicloud/src/protocol/mqtt/MQTTPacket\MQTTDeserializePublish.c **** 	unsigned char* enddata = NULL;
 204              		.loc 1 71 2 is_stmt 1
 205              	.LVL18:
  72:C:/Users/stapi/OneDrive/Desktop/GD32VW553/V1_MQTT_OK/GD32VW55X_Wifi_BLE_SDK/GD32VW55x_RELEASE_V1.0.2/MSDK/cloud/alicloud/src/protocol/mqtt/MQTTPacket\MQTTDeserializePublish.c **** 	int mylen;
 206              		.loc 1 72 2
  73:C:/Users/stapi/OneDrive/Desktop/GD32VW553/V1_MQTT_OK/GD32VW55X_Wifi_BLE_SDK/GD32VW55x_RELEASE_V1.0.2/MSDK/cloud/alicloud/src/protocol/mqtt/MQTTPacket\MQTTDeserializePublish.c **** 
 207              		.loc 1 73 2
 208              		.loc 1 75 2
 209              		.loc 1 75 16 is_stmt 0
 210 0014 97000000 		call	readChar
 210      E7800000 
 211              	.LVL19:
  76:C:/Users/stapi/OneDrive/Desktop/GD32VW553/V1_MQTT_OK/GD32VW55X_Wifi_BLE_SDK/GD32VW55x_RELEASE_V1.0.2/MSDK/cloud/alicloud/src/protocol/mqtt/MQTTPacket\MQTTDeserializePublish.c **** 	*dup = header.bits.dup;
 212              		.loc 1 76 20
 213 001c 93573548 		bexti	a5,a0,3
  75:C:/Users/stapi/OneDrive/Desktop/GD32VW553/V1_MQTT_OK/GD32VW55X_Wifi_BLE_SDK/GD32VW55x_RELEASE_V1.0.2/MSDK/cloud/alicloud/src/protocol/mqtt/MQTTPacket\MQTTDeserializePublish.c **** 	*dup = header.bits.dup;
 214              		.loc 1 75 14
 215 0020 1377F50F 		andi	a4,a0,0xff
 216              		.loc 1 76 2 is_stmt 1
  77:C:/Users/stapi/OneDrive/Desktop/GD32VW553/V1_MQTT_OK/GD32VW55X_Wifi_BLE_SDK/GD32VW55x_RELEASE_V1.0.2/MSDK/cloud/alicloud/src/protocol/mqtt/MQTTPacket\MQTTDeserializePublish.c **** 	*packettype = header.bits.type;
  78:C:/Users/stapi/OneDrive/Desktop/GD32VW553/V1_MQTT_OK/GD32VW55X_Wifi_BLE_SDK/GD32VW55x_RELEASE_V1.0.2/MSDK/cloud/alicloud/src/protocol/mqtt/MQTTPacket\MQTTDeserializePublish.c **** 
  79:C:/Users/stapi/OneDrive/Desktop/GD32VW553/V1_MQTT_OK/GD32VW55X_Wifi_BLE_SDK/GD32VW55x_RELEASE_V1.0.2/MSDK/cloud/alicloud/src/protocol/mqtt/MQTTPacket\MQTTDeserializePublish.c **** 	curdata += (rc = MQTTPacket_decodeBuf(curdata, &mylen)); /* read remaining length */
 217              		.loc 1 79 19 is_stmt 0
 218 0024 2245     		lw	a0,8(sp)
  76:C:/Users/stapi/OneDrive/Desktop/GD32VW553/V1_MQTT_OK/GD32VW55X_Wifi_BLE_SDK/GD32VW55x_RELEASE_V1.0.2/MSDK/cloud/alicloud/src/protocol/mqtt/MQTTPacket\MQTTDeserializePublish.c **** 	*packettype = header.bits.type;
 219              		.loc 1 76 7
 220 0026 2300F900 		sb	a5,0(s2)
  77:C:/Users/stapi/OneDrive/Desktop/GD32VW553/V1_MQTT_OK/GD32VW55X_Wifi_BLE_SDK/GD32VW55x_RELEASE_V1.0.2/MSDK/cloud/alicloud/src/protocol/mqtt/MQTTPacket\MQTTDeserializePublish.c **** 	*packettype = header.bits.type;
 221              		.loc 1 77 2 is_stmt 1
  77:C:/Users/stapi/OneDrive/Desktop/GD32VW553/V1_MQTT_OK/GD32VW55X_Wifi_BLE_SDK/GD32VW55x_RELEASE_V1.0.2/MSDK/cloud/alicloud/src/protocol/mqtt/MQTTPacket\MQTTDeserializePublish.c **** 	*packettype = header.bits.type;
 222              		.loc 1 77 27 is_stmt 0
 223 002a 1183     		srli	a4,a4,4
  77:C:/Users/stapi/OneDrive/Desktop/GD32VW553/V1_MQTT_OK/GD32VW55X_Wifi_BLE_SDK/GD32VW55x_RELEASE_V1.0.2/MSDK/cloud/alicloud/src/protocol/mqtt/MQTTPacket\MQTTDeserializePublish.c **** 	*packettype = header.bits.type;
 224              		.loc 1 77 14
 225 002c 2380E400 		sb	a4,0(s1)
 226              		.loc 1 79 2 is_stmt 1
 227              		.loc 1 79 19 is_stmt 0
 228 0030 6C00     		addi	a1,sp,12
 229 0032 97000000 		call	MQTTPacket_decodeBuf
 229      E7800000 
 230              	.LVL20:
 231              		.loc 1 79 10
 232 003a A247     		lw	a5,8(sp)
  80:C:/Users/stapi/OneDrive/Desktop/GD32VW553/V1_MQTT_OK/GD32VW55X_Wifi_BLE_SDK/GD32VW55x_RELEASE_V1.0.2/MSDK/cloud/alicloud/src/protocol/mqtt/MQTTPacket\MQTTDeserializePublish.c **** 	enddata = curdata + mylen;
  81:C:/Users/stapi/OneDrive/Desktop/GD32VW553/V1_MQTT_OK/GD32VW55X_Wifi_BLE_SDK/GD32VW55x_RELEASE_V1.0.2/MSDK/cloud/alicloud/src/protocol/mqtt/MQTTPacket\MQTTDeserializePublish.c **** 
  82:C:/Users/stapi/OneDrive/Desktop/GD32VW553/V1_MQTT_OK/GD32VW55X_Wifi_BLE_SDK/GD32VW55x_RELEASE_V1.0.2/MSDK/cloud/alicloud/src/protocol/mqtt/MQTTPacket\MQTTDeserializePublish.c **** 	if (enddata - curdata < 2)
 233              		.loc 1 82 5
 234 003c 3247     		lw	a4,12(sp)
  79:C:/Users/stapi/OneDrive/Desktop/GD32VW553/V1_MQTT_OK/GD32VW55X_Wifi_BLE_SDK/GD32VW55x_RELEASE_V1.0.2/MSDK/cloud/alicloud/src/protocol/mqtt/MQTTPacket\MQTTDeserializePublish.c **** 	enddata = curdata + mylen;
 235              		.loc 1 79 10
 236 003e AA97     		add	a5,a5,a0
 237 0040 3EC4     		sw	a5,8(sp)
  80:C:/Users/stapi/OneDrive/Desktop/GD32VW553/V1_MQTT_OK/GD32VW55X_Wifi_BLE_SDK/GD32VW55x_RELEASE_V1.0.2/MSDK/cloud/alicloud/src/protocol/mqtt/MQTTPacket\MQTTDeserializePublish.c **** 	enddata = curdata + mylen;
 238              		.loc 1 80 2 is_stmt 1
 239              	.LVL21:
 240              		.loc 1 82 2
 241              		.loc 1 82 5 is_stmt 0
 242 0042 8547     		li	a5,1
 243              	.LVL22:
 244 0044 63DAE700 		ble	a4,a5,.L9
  83:C:/Users/stapi/OneDrive/Desktop/GD32VW553/V1_MQTT_OK/GD32VW55X_Wifi_BLE_SDK/GD32VW55x_RELEASE_V1.0.2/MSDK/cloud/alicloud/src/protocol/mqtt/MQTTPacket\MQTTDeserializePublish.c **** 		goto exit;
  84:C:/Users/stapi/OneDrive/Desktop/GD32VW553/V1_MQTT_OK/GD32VW55X_Wifi_BLE_SDK/GD32VW55x_RELEASE_V1.0.2/MSDK/cloud/alicloud/src/protocol/mqtt/MQTTPacket\MQTTDeserializePublish.c **** 	*packetid = readInt(&curdata);
 245              		.loc 1 84 2 is_stmt 1
 246              		.loc 1 84 14 is_stmt 0
 247 0048 2800     		addi	a0,sp,8
 248              	.LVL23:
 249 004a 97000000 		call	readInt
 249      E7800000 
 250              	.LVL24:
 251              		.loc 1 84 12
 252 0052 2310A400 		sh	a0,0(s0)
  85:C:/Users/stapi/OneDrive/Desktop/GD32VW553/V1_MQTT_OK/GD32VW55X_Wifi_BLE_SDK/GD32VW55x_RELEASE_V1.0.2/MSDK/cloud/alicloud/src/protocol/mqtt/MQTTPacket\MQTTDeserializePublish.c **** 
  86:C:/Users/stapi/OneDrive/Desktop/GD32VW553/V1_MQTT_OK/GD32VW55X_Wifi_BLE_SDK/GD32VW55x_RELEASE_V1.0.2/MSDK/cloud/alicloud/src/protocol/mqtt/MQTTPacket\MQTTDeserializePublish.c **** 	rc = 1;
 253              		.loc 1 86 2 is_stmt 1
 254              	.LVL25:
 255              		.loc 1 86 5 is_stmt 0
 256 0056 0545     		li	a0,1
  87:C:/Users/stapi/OneDrive/Desktop/GD32VW553/V1_MQTT_OK/GD32VW55X_Wifi_BLE_SDK/GD32VW55x_RELEASE_V1.0.2/MSDK/cloud/alicloud/src/protocol/mqtt/MQTTPacket\MQTTDeserializePublish.c **** exit:
  88:C:/Users/stapi/OneDrive/Desktop/GD32VW553/V1_MQTT_OK/GD32VW55X_Wifi_BLE_SDK/GD32VW55x_RELEASE_V1.0.2/MSDK/cloud/alicloud/src/protocol/mqtt/MQTTPacket\MQTTDeserializePublish.c **** 	return rc;
 257              		.loc 1 88 2 is_stmt 1
 258              	.L10:
 259              	.LVL26:
 260              	.L9:
  89:C:/Users/stapi/OneDrive/Desktop/GD32VW553/V1_MQTT_OK/GD32VW55X_Wifi_BLE_SDK/GD32VW55x_RELEASE_V1.0.2/MSDK/cloud/alicloud/src/protocol/mqtt/MQTTPacket\MQTTDeserializePublish.c **** }
 261              		.loc 1 89 1 is_stmt 0
 262 0058 4101     		addi	sp,sp,16
 263              		.cfi_def_cfa_offset 0
 264 005a 17030000 		tail	__riscv_restore_3
 264      67000300 
 265              		.cfi_restore 18
 266              		.cfi_restore 9
 267              		.cfi_restore 8
 268              		.cfi_restore 1
 269              		.cfi_def_cfa_offset -16
 270              		.cfi_endproc
 271              	.LFE2:
 273              		.text
 274              	.Letext0:
 275              		.file 2 "C:/Users/stapi/OneDrive/Desktop/GD32VW553/V1_MQTT_OK/GD32VW55X_Wifi_BLE_SDK/GD32VW55x_REL
DEFINED SYMBOLS
                            *ABS*:0000000000000000 MQTTDeserializePublish.c
C:\Users\stapi\AppData\Local\Temp\ccqQER8z.s:13     .text.MQTTDeserialize_publish:0000000000000000 MQTTDeserialize_publish
C:\Users\stapi\AppData\Local\Temp\ccqQER8z.s:17     .text.MQTTDeserialize_publish:0000000000000000 .L0 
C:\Users\stapi\AppData\Local\Temp\ccqQER8z.s:19     .text.MQTTDeserialize_publish:0000000000000000 .L0 
C:\Users\stapi\AppData\Local\Temp\ccqQER8z.s:20     .text.MQTTDeserialize_publish:0000000000000008 .L0 
C:\Users\stapi\AppData\Local\Temp\ccqQER8z.s:21     .text.MQTTDeserialize_publish:0000000000000008 .L0 
C:\Users\stapi\AppData\Local\Temp\ccqQER8z.s:22     .text.MQTTDeserialize_publish:0000000000000008 .L0 
C:\Users\stapi\AppData\Local\Temp\ccqQER8z.s:23     .text.MQTTDeserialize_publish:0000000000000008 .L0 
C:\Users\stapi\AppData\Local\Temp\ccqQER8z.s:24     .text.MQTTDeserialize_publish:0000000000000008 .L0 
C:\Users\stapi\AppData\Local\Temp\ccqQER8z.s:25     .text.MQTTDeserialize_publish:0000000000000008 .L0 
C:\Users\stapi\AppData\Local\Temp\ccqQER8z.s:26     .text.MQTTDeserialize_publish:0000000000000008 .L0 
C:\Users\stapi\AppData\Local\Temp\ccqQER8z.s:27     .text.MQTTDeserialize_publish:0000000000000008 .L0 
C:\Users\stapi\AppData\Local\Temp\ccqQER8z.s:28     .text.MQTTDeserialize_publish:0000000000000008 .L0 
C:\Users\stapi\AppData\Local\Temp\ccqQER8z.s:30     .text.MQTTDeserialize_publish:0000000000000008 .L0 
C:\Users\stapi\AppData\Local\Temp\ccqQER8z.s:31     .text.MQTTDeserialize_publish:0000000000000008 .L0 
C:\Users\stapi\AppData\Local\Temp\ccqQER8z.s:32     .text.MQTTDeserialize_publish:0000000000000008 .L0 
C:\Users\stapi\AppData\Local\Temp\ccqQER8z.s:33     .text.MQTTDeserialize_publish:000000000000000a .L0 
C:\Users\stapi\AppData\Local\Temp\ccqQER8z.s:35     .text.MQTTDeserialize_publish:000000000000000a .L0 
C:\Users\stapi\AppData\Local\Temp\ccqQER8z.s:37     .text.MQTTDeserialize_publish:000000000000000c .L0 
C:\Users\stapi\AppData\Local\Temp\ccqQER8z.s:40     .text.MQTTDeserialize_publish:000000000000000e .L0 
C:\Users\stapi\AppData\Local\Temp\ccqQER8z.s:47     .text.MQTTDeserialize_publish:000000000000001a .L0 
C:\Users\stapi\AppData\Local\Temp\ccqQER8z.s:50     .text.MQTTDeserialize_publish:000000000000001c .L0 
C:\Users\stapi\AppData\Local\Temp\ccqQER8z.s:51     .text.MQTTDeserialize_publish:000000000000001c .L0 
C:\Users\stapi\AppData\Local\Temp\ccqQER8z.s:52     .text.MQTTDeserialize_publish:000000000000001c .L0 
C:\Users\stapi\AppData\Local\Temp\ccqQER8z.s:53     .text.MQTTDeserialize_publish:000000000000001c .L0 
C:\Users\stapi\AppData\Local\Temp\ccqQER8z.s:55     .text.MQTTDeserialize_publish:000000000000001e .L0 
C:\Users\stapi\AppData\Local\Temp\ccqQER8z.s:56     .text.MQTTDeserialize_publish:000000000000001e .L0 
C:\Users\stapi\AppData\Local\Temp\ccqQER8z.s:59     .text.MQTTDeserialize_publish:0000000000000026 .L0 
C:\Users\stapi\AppData\Local\Temp\ccqQER8z.s:60     .text.MQTTDeserialize_publish:0000000000000026 .L0 
C:\Users\stapi\AppData\Local\Temp\ccqQER8z.s:65     .text.MQTTDeserialize_publish:0000000000000036 .L0 
C:\Users\stapi\AppData\Local\Temp\ccqQER8z.s:66     .text.MQTTDeserialize_publish:0000000000000036 .L0 
C:\Users\stapi\AppData\Local\Temp\ccqQER8z.s:68     .text.MQTTDeserialize_publish:000000000000003a .L0 
C:\Users\stapi\AppData\Local\Temp\ccqQER8z.s:70     .text.MQTTDeserialize_publish:000000000000003e .L0 
C:\Users\stapi\AppData\Local\Temp\ccqQER8z.s:71     .text.MQTTDeserialize_publish:000000000000003e .L0 
C:\Users\stapi\AppData\Local\Temp\ccqQER8z.s:74     .text.MQTTDeserialize_publish:0000000000000044 .L0 
C:\Users\stapi\AppData\Local\Temp\ccqQER8z.s:76     .text.MQTTDeserialize_publish:0000000000000046 .L0 
C:\Users\stapi\AppData\Local\Temp\ccqQER8z.s:78     .text.MQTTDeserialize_publish:000000000000004a .L0 
C:\Users\stapi\AppData\Local\Temp\ccqQER8z.s:79     .text.MQTTDeserialize_publish:000000000000004a .L0 
C:\Users\stapi\AppData\Local\Temp\ccqQER8z.s:81     .text.MQTTDeserialize_publish:000000000000004e .L0 
C:\Users\stapi\AppData\Local\Temp\ccqQER8z.s:83     .text.MQTTDeserialize_publish:0000000000000052 .L0 
C:\Users\stapi\AppData\Local\Temp\ccqQER8z.s:84     .text.MQTTDeserialize_publish:0000000000000052 .L0 
C:\Users\stapi\AppData\Local\Temp\ccqQER8z.s:88     .text.MQTTDeserialize_publish:000000000000005c .L0 
C:\Users\stapi\AppData\Local\Temp\ccqQER8z.s:91     .text.MQTTDeserialize_publish:000000000000005e .L0 
C:\Users\stapi\AppData\Local\Temp\ccqQER8z.s:93     .text.MQTTDeserialize_publish:0000000000000060 .L0 
C:\Users\stapi\AppData\Local\Temp\ccqQER8z.s:96     .text.MQTTDeserialize_publish:0000000000000062 .L0 
C:\Users\stapi\AppData\Local\Temp\ccqQER8z.s:99     .text.MQTTDeserialize_publish:0000000000000066 .L0 
C:\Users\stapi\AppData\Local\Temp\ccqQER8z.s:100    .text.MQTTDeserialize_publish:0000000000000066 .L0 
C:\Users\stapi\AppData\Local\Temp\ccqQER8z.s:103    .text.MQTTDeserialize_publish:0000000000000068 .L0 
C:\Users\stapi\AppData\Local\Temp\ccqQER8z.s:104    .text.MQTTDeserialize_publish:0000000000000068 .L0 
C:\Users\stapi\AppData\Local\Temp\ccqQER8z.s:110    .text.MQTTDeserialize_publish:0000000000000076 .L0 
C:\Users\stapi\AppData\Local\Temp\ccqQER8z.s:112    .text.MQTTDeserialize_publish:0000000000000078 .L0 
C:\Users\stapi\AppData\Local\Temp\ccqQER8z.s:115    .text.MQTTDeserialize_publish:000000000000007e .L0 
C:\Users\stapi\AppData\Local\Temp\ccqQER8z.s:117    .text.MQTTDeserialize_publish:0000000000000082 .L0 
C:\Users\stapi\AppData\Local\Temp\ccqQER8z.s:118    .text.MQTTDeserialize_publish:0000000000000082 .L0 
C:\Users\stapi\AppData\Local\Temp\ccqQER8z.s:121    .text.MQTTDeserialize_publish:000000000000008a .L0 
C:\Users\stapi\AppData\Local\Temp\ccqQER8z.s:122    .text.MQTTDeserialize_publish:000000000000008a .L0 
C:\Users\stapi\AppData\Local\Temp\ccqQER8z.s:126    .text.MQTTDeserialize_publish:0000000000000094 .L0 
C:\Users\stapi\AppData\Local\Temp\ccqQER8z.s:129    .text.MQTTDeserialize_publish:0000000000000098 .L0 
C:\Users\stapi\AppData\Local\Temp\ccqQER8z.s:130    .text.MQTTDeserialize_publish:0000000000000098 .L0 
C:\Users\stapi\AppData\Local\Temp\ccqQER8z.s:132    .text.MQTTDeserialize_publish:000000000000009a .L0 
C:\Users\stapi\AppData\Local\Temp\ccqQER8z.s:135    .text.MQTTDeserialize_publish:000000000000009c .L0 
C:\Users\stapi\AppData\Local\Temp\ccqQER8z.s:138    .text.MQTTDeserialize_publish:000000000000009e .L0 
C:\Users\stapi\AppData\Local\Temp\ccqQER8z.s:140    .text.MQTTDeserialize_publish:00000000000000a2 .L0 
C:\Users\stapi\AppData\Local\Temp\ccqQER8z.s:141    .text.MQTTDeserialize_publish:00000000000000a2 .L0 
C:\Users\stapi\AppData\Local\Temp\ccqQER8z.s:145    .text.MQTTDeserialize_publish:00000000000000a6 .L0 
C:\Users\stapi\AppData\Local\Temp\ccqQER8z.s:146    .text.MQTTDeserialize_publish:00000000000000a6 .L0 
C:\Users\stapi\AppData\Local\Temp\ccqQER8z.s:148    .text.MQTTDeserialize_publish:00000000000000aa .L0 
C:\Users\stapi\AppData\Local\Temp\ccqQER8z.s:149    .text.MQTTDeserialize_publish:00000000000000aa .L0 
C:\Users\stapi\AppData\Local\Temp\ccqQER8z.s:152    .text.MQTTDeserialize_publish:00000000000000b2 .L0 
C:\Users\stapi\AppData\Local\Temp\ccqQER8z.s:153    .text.MQTTDeserialize_publish:00000000000000b2 .L0 
C:\Users\stapi\AppData\Local\Temp\ccqQER8z.s:154    .text.MQTTDeserialize_publish:00000000000000b2 .L0 
C:\Users\stapi\AppData\Local\Temp\ccqQER8z.s:155    .text.MQTTDeserialize_publish:00000000000000b2 .L0 
C:\Users\stapi\AppData\Local\Temp\ccqQER8z.s:156    .text.MQTTDeserialize_publish:00000000000000b2 .L0 
C:\Users\stapi\AppData\Local\Temp\ccqQER8z.s:157    .text.MQTTDeserialize_publish:00000000000000b2 .L0 
C:\Users\stapi\AppData\Local\Temp\ccqQER8z.s:158    .text.MQTTDeserialize_publish:00000000000000b2 .L0 
C:\Users\stapi\AppData\Local\Temp\ccqQER8z.s:159    .text.MQTTDeserialize_publish:00000000000000b2 .L0 
C:\Users\stapi\AppData\Local\Temp\ccqQER8z.s:160    .text.MQTTDeserialize_publish:00000000000000b2 .L0 
C:\Users\stapi\AppData\Local\Temp\ccqQER8z.s:163    .text.MQTTDeserialize_publish:00000000000000b2 .L0 
C:\Users\stapi\AppData\Local\Temp\ccqQER8z.s:166    .text.MQTTDeserialize_publish:00000000000000b2 .L0 
C:\Users\stapi\AppData\Local\Temp\ccqQER8z.s:167    .text.MQTTDeserialize_publish:00000000000000b2 .L0 
C:\Users\stapi\AppData\Local\Temp\ccqQER8z.s:170    .text.MQTTDeserialize_publish:00000000000000b4 .L0 
C:\Users\stapi\AppData\Local\Temp\ccqQER8z.s:171    .text.MQTTDeserialize_publish:00000000000000b6 .L0 
C:\Users\stapi\AppData\Local\Temp\ccqQER8z.s:178    .text.MQTTDeserialize_ack:0000000000000000 MQTTDeserialize_ack
C:\Users\stapi\AppData\Local\Temp\ccqQER8z.s:181    .text.MQTTDeserialize_ack:0000000000000000 .L0 
C:\Users\stapi\AppData\Local\Temp\ccqQER8z.s:183    .text.MQTTDeserialize_ack:0000000000000000 .L0 
C:\Users\stapi\AppData\Local\Temp\ccqQER8z.s:184    .text.MQTTDeserialize_ack:0000000000000008 .L0 
C:\Users\stapi\AppData\Local\Temp\ccqQER8z.s:185    .text.MQTTDeserialize_ack:0000000000000008 .L0 
C:\Users\stapi\AppData\Local\Temp\ccqQER8z.s:186    .text.MQTTDeserialize_ack:0000000000000008 .L0 
C:\Users\stapi\AppData\Local\Temp\ccqQER8z.s:187    .text.MQTTDeserialize_ack:0000000000000008 .L0 
C:\Users\stapi\AppData\Local\Temp\ccqQER8z.s:188    .text.MQTTDeserialize_ack:0000000000000008 .L0 
C:\Users\stapi\AppData\Local\Temp\ccqQER8z.s:190    .text.MQTTDeserialize_ack:0000000000000008 .L0 
C:\Users\stapi\AppData\Local\Temp\ccqQER8z.s:191    .text.MQTTDeserialize_ack:0000000000000008 .L0 
C:\Users\stapi\AppData\Local\Temp\ccqQER8z.s:192    .text.MQTTDeserialize_ack:0000000000000008 .L0 
C:\Users\stapi\AppData\Local\Temp\ccqQER8z.s:193    .text.MQTTDeserialize_ack:000000000000000a .L0 
C:\Users\stapi\AppData\Local\Temp\ccqQER8z.s:195    .text.MQTTDeserialize_ack:000000000000000a .L0 
C:\Users\stapi\AppData\Local\Temp\ccqQER8z.s:197    .text.MQTTDeserialize_ack:000000000000000c .L0 
C:\Users\stapi\AppData\Local\Temp\ccqQER8z.s:200    .text.MQTTDeserialize_ack:000000000000000e .L0 
C:\Users\stapi\AppData\Local\Temp\ccqQER8z.s:203    .text.MQTTDeserialize_ack:0000000000000012 .L0 
C:\Users\stapi\AppData\Local\Temp\ccqQER8z.s:206    .text.MQTTDeserialize_ack:0000000000000014 .L0 
C:\Users\stapi\AppData\Local\Temp\ccqQER8z.s:207    .text.MQTTDeserialize_ack:0000000000000014 .L0 
C:\Users\stapi\AppData\Local\Temp\ccqQER8z.s:208    .text.MQTTDeserialize_ack:0000000000000014 .L0 
C:\Users\stapi\AppData\Local\Temp\ccqQER8z.s:209    .text.MQTTDeserialize_ack:0000000000000014 .L0 
C:\Users\stapi\AppData\Local\Temp\ccqQER8z.s:210    .text.MQTTDeserialize_ack:0000000000000014 .L0 
C:\Users\stapi\AppData\Local\Temp\ccqQER8z.s:213    .text.MQTTDeserialize_ack:000000000000001c .L0 
C:\Users\stapi\AppData\Local\Temp\ccqQER8z.s:215    .text.MQTTDeserialize_ack:0000000000000020 .L0 
C:\Users\stapi\AppData\Local\Temp\ccqQER8z.s:217    .text.MQTTDeserialize_ack:0000000000000024 .L0 
C:\Users\stapi\AppData\Local\Temp\ccqQER8z.s:218    .text.MQTTDeserialize_ack:0000000000000024 .L0 
C:\Users\stapi\AppData\Local\Temp\ccqQER8z.s:220    .text.MQTTDeserialize_ack:0000000000000026 .L0 
C:\Users\stapi\AppData\Local\Temp\ccqQER8z.s:222    .text.MQTTDeserialize_ack:000000000000002a .L0 
C:\Users\stapi\AppData\Local\Temp\ccqQER8z.s:223    .text.MQTTDeserialize_ack:000000000000002a .L0 
C:\Users\stapi\AppData\Local\Temp\ccqQER8z.s:225    .text.MQTTDeserialize_ack:000000000000002c .L0 
C:\Users\stapi\AppData\Local\Temp\ccqQER8z.s:227    .text.MQTTDeserialize_ack:0000000000000030 .L0 
C:\Users\stapi\AppData\Local\Temp\ccqQER8z.s:228    .text.MQTTDeserialize_ack:0000000000000030 .L0 
C:\Users\stapi\AppData\Local\Temp\ccqQER8z.s:232    .text.MQTTDeserialize_ack:000000000000003a .L0 
C:\Users\stapi\AppData\Local\Temp\ccqQER8z.s:234    .text.MQTTDeserialize_ack:000000000000003c .L0 
C:\Users\stapi\AppData\Local\Temp\ccqQER8z.s:236    .text.MQTTDeserialize_ack:000000000000003e .L0 
C:\Users\stapi\AppData\Local\Temp\ccqQER8z.s:240    .text.MQTTDeserialize_ack:0000000000000042 .L0 
C:\Users\stapi\AppData\Local\Temp\ccqQER8z.s:241    .text.MQTTDeserialize_ack:0000000000000042 .L0 
C:\Users\stapi\AppData\Local\Temp\ccqQER8z.s:242    .text.MQTTDeserialize_ack:0000000000000042 .L0 
C:\Users\stapi\AppData\Local\Temp\ccqQER8z.s:246    .text.MQTTDeserialize_ack:0000000000000048 .L0 
C:\Users\stapi\AppData\Local\Temp\ccqQER8z.s:247    .text.MQTTDeserialize_ack:0000000000000048 .L0 
C:\Users\stapi\AppData\Local\Temp\ccqQER8z.s:252    .text.MQTTDeserialize_ack:0000000000000052 .L0 
C:\Users\stapi\AppData\Local\Temp\ccqQER8z.s:255    .text.MQTTDeserialize_ack:0000000000000056 .L0 
C:\Users\stapi\AppData\Local\Temp\ccqQER8z.s:256    .text.MQTTDeserialize_ack:0000000000000056 .L0 
C:\Users\stapi\AppData\Local\Temp\ccqQER8z.s:261    .text.MQTTDeserialize_ack:0000000000000058 .L0 
C:\Users\stapi\AppData\Local\Temp\ccqQER8z.s:262    .text.MQTTDeserialize_ack:0000000000000058 .L0 
C:\Users\stapi\AppData\Local\Temp\ccqQER8z.s:263    .text.MQTTDeserialize_ack:000000000000005a .L0 
C:\Users\stapi\AppData\Local\Temp\ccqQER8z.s:265    .text.MQTTDeserialize_ack:0000000000000062 .L0 
C:\Users\stapi\AppData\Local\Temp\ccqQER8z.s:266    .text.MQTTDeserialize_ack:0000000000000062 .L0 
C:\Users\stapi\AppData\Local\Temp\ccqQER8z.s:267    .text.MQTTDeserialize_ack:0000000000000062 .L0 
C:\Users\stapi\AppData\Local\Temp\ccqQER8z.s:268    .text.MQTTDeserialize_ack:0000000000000062 .L0 
C:\Users\stapi\AppData\Local\Temp\ccqQER8z.s:269    .text.MQTTDeserialize_ack:0000000000000062 .L0 
C:\Users\stapi\AppData\Local\Temp\ccqQER8z.s:270    .text.MQTTDeserialize_ack:0000000000000062 .L0 
C:\Users\stapi\AppData\Local\Temp\ccqQER8z.s:174    .text.MQTTDeserialize_publish:00000000000000b6 .L0 
C:\Users\stapi\AppData\Local\Temp\ccqQER8z.s:273    .text.MQTTDeserialize_ack:0000000000000062 .L0 
                     .debug_frame:0000000000000000 .L0 
C:\Users\stapi\AppData\Local\Temp\ccqQER8z.s:162    .text.MQTTDeserialize_publish:00000000000000b2 .L4
C:\Users\stapi\AppData\Local\Temp\ccqQER8z.s:144    .text.MQTTDeserialize_publish:00000000000000a6 .L1
C:\Users\stapi\AppData\Local\Temp\ccqQER8z.s:127    .text.MQTTDeserialize_publish:0000000000000098 .L3
C:\Users\stapi\AppData\Local\Temp\ccqQER8z.s:260    .text.MQTTDeserialize_ack:0000000000000058 .L9
C:\Users\stapi\AppData\Local\Temp\ccqQER8z.s:856    .debug_abbrev:0000000000000000 .Ldebug_abbrev0
C:\Users\stapi\AppData\Local\Temp\ccqQER8z.s:1634   .debug_str:000000000000022a .LASF53
C:\Users\stapi\AppData\Local\Temp\ccqQER8z.s:1628   .debug_str:0000000000000168 .LASF54
C:\Users\stapi\AppData\Local\Temp\ccqQER8z.s:1598   .debug_str:000000000000003c .LASF55
C:\Users\stapi\AppData\Local\Temp\ccqQER8z.s:1574   .debug_ranges:0000000000000000 .Ldebug_ranges0
C:\Users\stapi\AppData\Local\Temp\ccqQER8z.s:1582   .debug_line:0000000000000000 .Ldebug_line0
C:\Users\stapi\AppData\Local\Temp\ccqQER8z.s:1674   .debug_str:00000000000003cc .LASF56
C:\Users\stapi\AppData\Local\Temp\ccqQER8z.s:1696   .debug_str:0000000000000448 .LASF0
C:\Users\stapi\AppData\Local\Temp\ccqQER8z.s:1632   .debug_str:0000000000000222 .LASF1
C:\Users\stapi\AppData\Local\Temp\ccqQER8z.s:1606   .debug_str:00000000000000f3 .LASF2
C:\Users\stapi\AppData\Local\Temp\ccqQER8z.s:1596   .debug_str:0000000000000034 .LASF3
C:\Users\stapi\AppData\Local\Temp\ccqQER8z.s:1660   .debug_str:0000000000000398 .LASF4
C:\Users\stapi\AppData\Local\Temp\ccqQER8z.s:1642   .debug_str:000000000000032c .LASF5
C:\Users\stapi\AppData\Local\Temp\ccqQER8z.s:1652   .debug_str:0000000000000373 .LASF6
C:\Users\stapi\AppData\Local\Temp\ccqQER8z.s:1610   .debug_str:0000000000000100 .LASF7
C:\Users\stapi\AppData\Local\Temp\ccqQER8z.s:1626   .debug_str:000000000000015e .LASF8
C:\Users\stapi\AppData\Local\Temp\ccqQER8z.s:1650   .debug_str:000000000000036c .LASF9
C:\Users\stapi\AppData\Local\Temp\ccqQER8z.s:1684   .debug_str:0000000000000404 .LASF10
C:\Users\stapi\AppData\Local\Temp\ccqQER8z.s:1688   .debug_str:0000000000000419 .LASF11
C:\Users\stapi\AppData\Local\Temp\ccqQER8z.s:1692   .debug_str:000000000000042e .LASF12
C:\Users\stapi\AppData\Local\Temp\ccqQER8z.s:1686   .debug_str:0000000000000410 .LASF13
C:\Users\stapi\AppData\Local\Temp\ccqQER8z.s:1654   .debug_str:000000000000037a .LASF14
C:\Users\stapi\AppData\Local\Temp\ccqQER8z.s:1646   .debug_str:0000000000000348 .LASF15
C:\Users\stapi\AppData\Local\Temp\ccqQER8z.s:1616   .debug_str:000000000000011a .LASF16
C:\Users\stapi\AppData\Local\Temp\ccqQER8z.s:1672   .debug_str:00000000000003c7 .LASF17
C:\Users\stapi\AppData\Local\Temp\ccqQER8z.s:1608   .debug_str:00000000000000fb .LASF18
C:\Users\stapi\AppData\Local\Temp\ccqQER8z.s:1670   .debug_str:00000000000003c2 .LASF19
C:\Users\stapi\AppData\Local\Temp\ccqQER8z.s:1618   .debug_str:0000000000000121 .LASF20
C:\Users\stapi\AppData\Local\Temp\ccqQER8z.s:1590   .debug_str:0000000000000015 .LASF23
C:\Users\stapi\AppData\Local\Temp\ccqQER8z.s:1604   .debug_str:00000000000000ee .LASF21
C:\Users\stapi\AppData\Local\Temp\ccqQER8z.s:1668   .debug_str:00000000000003bd .LASF22
C:\Users\stapi\AppData\Local\Temp\ccqQER8z.s:1594   .debug_str:0000000000000026 .LASF24
C:\Users\stapi\AppData\Local\Temp\ccqQER8z.s:1584   .debug_str:0000000000000000 .LASF25
C:\Users\stapi\AppData\Local\Temp\ccqQER8z.s:1612   .debug_str:0000000000000108 .LASF26
C:\Users\stapi\AppData\Local\Temp\ccqQER8z.s:1630   .debug_str:0000000000000217 .LASF27
C:\Users\stapi\AppData\Local\Temp\ccqQER8z.s:1624   .debug_str:000000000000014b .LASF28
C:\Users\stapi\AppData\Local\Temp\ccqQER8z.s:1690   .debug_str:0000000000000422 .LASF29
C:\Users\stapi\AppData\Local\Temp\ccqQER8z.s:1640   .debug_str:0000000000000322 .LASF30
C:\Users\stapi\AppData\Local\Temp\ccqQER8z.s:1682   .debug_str:00000000000003fb .LASF31
C:\Users\stapi\AppData\Local\Temp\ccqQER8z.s:1622   .debug_str:0000000000000139 .LASF32
C:\Users\stapi\AppData\Local\Temp\ccqQER8z.s:1666   .debug_str:00000000000003af .LASF33
C:\Users\stapi\AppData\Local\Temp\ccqQER8z.s:1648   .debug_str:0000000000000355 .LASF34
C:\Users\stapi\AppData\Local\Temp\ccqQER8z.s:1676   .debug_str:00000000000003d5 .LASF41
C:\Users\stapi\AppData\Local\Temp\ccqQER8z.s:179    .text.MQTTDeserialize_ack:0000000000000000 .LFB2
C:\Users\stapi\AppData\Local\Temp\ccqQER8z.s:271    .text.MQTTDeserialize_ack:0000000000000062 .LFE2
C:\Users\stapi\AppData\Local\Temp\ccqQER8z.s:1678   .debug_str:00000000000003e9 .LASF35
C:\Users\stapi\AppData\Local\Temp\ccqQER8z.s:1272   .debug_loc:0000000000000000 .LLST11
C:\Users\stapi\AppData\Local\Temp\ccqQER8z.s:1283   .debug_loc:000000000000001e .LLST12
C:\Users\stapi\AppData\Local\Temp\ccqQER8z.s:1602   .debug_str:00000000000000e5 .LASF36
C:\Users\stapi\AppData\Local\Temp\ccqQER8z.s:1294   .debug_loc:000000000000003c .LLST13
C:\Users\stapi\AppData\Local\Temp\ccqQER8z.s:1305   .debug_loc:000000000000005a .LLST14
C:\Users\stapi\AppData\Local\Temp\ccqQER8z.s:1680   .debug_str:00000000000003f4 .LASF37
C:\Users\stapi\AppData\Local\Temp\ccqQER8z.s:1319   .debug_loc:000000000000007b .LLST15
C:\Users\stapi\AppData\Local\Temp\ccqQER8z.s:1664   .debug_str:00000000000003a8 .LASF47
C:\Users\stapi\AppData\Local\Temp\ccqQER8z.s:1636   .debug_str:0000000000000311 .LASF38
C:\Users\stapi\AppData\Local\Temp\ccqQER8z.s:1586   .debug_str:0000000000000008 .LASF39
C:\Users\stapi\AppData\Local\Temp\ccqQER8z.s:1333   .debug_loc:000000000000009c .LLST16
C:\Users\stapi\AppData\Local\Temp\ccqQER8z.s:1370   .debug_loc:00000000000000e2 .LLST17
C:\Users\stapi\AppData\Local\Temp\ccqQER8z.s:1592   .debug_str:0000000000000020 .LASF40
C:\Users\stapi\AppData\Local\Temp\ccqQER8z.s:1588   .debug_str:0000000000000010 .LASF48
C:\Users\stapi\AppData\Local\Temp\ccqQER8z.s:258    .text.MQTTDeserialize_ack:0000000000000058 .L10
C:\Users\stapi\AppData\Local\Temp\ccqQER8z.s:211    .text.MQTTDeserialize_ack:000000000000001c .LVL19
C:\Users\stapi\AppData\Local\Temp\ccqQER8z.s:230    .text.MQTTDeserialize_ack:000000000000003a .LVL20
C:\Users\stapi\AppData\Local\Temp\ccqQER8z.s:250    .text.MQTTDeserialize_ack:0000000000000052 .LVL24
C:\Users\stapi\AppData\Local\Temp\ccqQER8z.s:1600   .debug_str:00000000000000cd .LASF42
C:\Users\stapi\AppData\Local\Temp\ccqQER8z.s:14     .text.MQTTDeserialize_publish:0000000000000000 .LFB1
C:\Users\stapi\AppData\Local\Temp\ccqQER8z.s:172    .text.MQTTDeserialize_publish:00000000000000b6 .LFE1
C:\Users\stapi\AppData\Local\Temp\ccqQER8z.s:1387   .debug_loc:000000000000010d .LLST0
C:\Users\stapi\AppData\Local\Temp\ccqQER8z.s:1416   .debug_loc:0000000000000152 .LLST1
C:\Users\stapi\AppData\Local\Temp\ccqQER8z.s:1662   .debug_str:000000000000039f .LASF43
C:\Users\stapi\AppData\Local\Temp\ccqQER8z.s:1427   .debug_loc:0000000000000170 .LLST2
C:\Users\stapi\AppData\Local\Temp\ccqQER8z.s:1449   .debug_loc:00000000000001a7 .LLST3
C:\Users\stapi\AppData\Local\Temp\ccqQER8z.s:1620   .debug_str:000000000000012f .LASF44
C:\Users\stapi\AppData\Local\Temp\ccqQER8z.s:1460   .debug_loc:00000000000001c5 .LLST4
C:\Users\stapi\AppData\Local\Temp\ccqQER8z.s:1656   .debug_str:0000000000000385 .LASF45
C:\Users\stapi\AppData\Local\Temp\ccqQER8z.s:1471   .debug_loc:00000000000001e3 .LLST5
C:\Users\stapi\AppData\Local\Temp\ccqQER8z.s:1658   .debug_str:000000000000038d .LASF46
C:\Users\stapi\AppData\Local\Temp\ccqQER8z.s:1482   .debug_loc:0000000000000201 .LLST6
C:\Users\stapi\AppData\Local\Temp\ccqQER8z.s:1493   .debug_loc:000000000000021f .LLST7
C:\Users\stapi\AppData\Local\Temp\ccqQER8z.s:1507   .debug_loc:0000000000000240 .LLST8
C:\Users\stapi\AppData\Local\Temp\ccqQER8z.s:1525   .debug_loc:000000000000026c .LLST9
C:\Users\stapi\AppData\Local\Temp\ccqQER8z.s:1542   .debug_loc:0000000000000297 .LLST10
C:\Users\stapi\AppData\Local\Temp\ccqQER8z.s:164    .text.MQTTDeserialize_publish:00000000000000b2 .L2
C:\Users\stapi\AppData\Local\Temp\ccqQER8z.s:57     .text.MQTTDeserialize_publish:0000000000000026 .LVL3
C:\Users\stapi\AppData\Local\Temp\ccqQER8z.s:86     .text.MQTTDeserialize_publish:000000000000005c .LVL4
C:\Users\stapi\AppData\Local\Temp\ccqQER8z.s:108    .text.MQTTDeserialize_publish:0000000000000076 .LVL8
C:\Users\stapi\AppData\Local\Temp\ccqQER8z.s:124    .text.MQTTDeserialize_publish:0000000000000094 .LVL9
C:\Users\stapi\AppData\Local\Temp\ccqQER8z.s:1638   .debug_str:0000000000000319 .LASF49
C:\Users\stapi\AppData\Local\Temp\ccqQER8z.s:1644   .debug_str:0000000000000333 .LASF50
C:\Users\stapi\AppData\Local\Temp\ccqQER8z.s:1614   .debug_str:0000000000000112 .LASF51
C:\Users\stapi\AppData\Local\Temp\ccqQER8z.s:1694   .debug_str:0000000000000436 .LASF52
C:\Users\stapi\AppData\Local\Temp\ccqQER8z.s:182    .text.MQTTDeserialize_ack:0000000000000000 .LVL16
C:\Users\stapi\AppData\Local\Temp\ccqQER8z.s:198    .text.MQTTDeserialize_ack:000000000000000e .LVL17
C:\Users\stapi\AppData\Local\Temp\ccqQER8z.s:205    .text.MQTTDeserialize_ack:0000000000000014 .LVL18
C:\Users\stapi\AppData\Local\Temp\ccqQER8z.s:239    .text.MQTTDeserialize_ack:0000000000000042 .LVL21
C:\Users\stapi\AppData\Local\Temp\ccqQER8z.s:243    .text.MQTTDeserialize_ack:0000000000000044 .LVL22
C:\Users\stapi\AppData\Local\Temp\ccqQER8z.s:248    .text.MQTTDeserialize_ack:000000000000004a .LVL23
C:\Users\stapi\AppData\Local\Temp\ccqQER8z.s:254    .text.MQTTDeserialize_ack:0000000000000056 .LVL25
C:\Users\stapi\AppData\Local\Temp\ccqQER8z.s:259    .text.MQTTDeserialize_ack:0000000000000058 .LVL26
C:\Users\stapi\AppData\Local\Temp\ccqQER8z.s:18     .text.MQTTDeserialize_publish:0000000000000000 .LVL0
C:\Users\stapi\AppData\Local\Temp\ccqQER8z.s:38     .text.MQTTDeserialize_publish:000000000000000e .LVL1
C:\Users\stapi\AppData\Local\Temp\ccqQER8z.s:94     .text.MQTTDeserialize_publish:0000000000000062 .LVL6
C:\Users\stapi\AppData\Local\Temp\ccqQER8z.s:161    .text.MQTTDeserialize_publish:00000000000000b2 .LVL14
C:\Users\stapi\AppData\Local\Temp\ccqQER8z.s:168    .text.MQTTDeserialize_publish:00000000000000b4 .LVL15
C:\Users\stapi\AppData\Local\Temp\ccqQER8z.s:89     .text.MQTTDeserialize_publish:000000000000005e .LVL5
C:\Users\stapi\AppData\Local\Temp\ccqQER8z.s:150    .text.MQTTDeserialize_publish:00000000000000aa .LVL13
C:\Users\stapi\AppData\Local\Temp\ccqQER8z.s:49     .text.MQTTDeserialize_publish:000000000000001c .LVL2
C:\Users\stapi\AppData\Local\Temp\ccqQER8z.s:101    .text.MQTTDeserialize_publish:0000000000000068 .LVL7
C:\Users\stapi\AppData\Local\Temp\ccqQER8z.s:136    .text.MQTTDeserialize_publish:000000000000009e .LVL11
C:\Users\stapi\AppData\Local\Temp\ccqQER8z.s:133    .text.MQTTDeserialize_publish:000000000000009c .LVL10
C:\Users\stapi\AppData\Local\Temp\ccqQER8z.s:277    .debug_info:0000000000000000 .Ldebug_info0

UNDEFINED SYMBOLS
__riscv_save_7
readChar
MQTTPacket_decodeBuf
readMQTTLenString
readInt
__riscv_restore_7
__riscv_save_3
__riscv_restore_3
