   1              		.file	"MQTTSubscribeClient.c"
   2              		.option nopic
   3              		.attribute arch, "rv32i2p0_m2p0_a2p0_f2p0_c2p0_b_p0p94"
   4              		.attribute unaligned_access, 0
   5              		.attribute stack_align, 16
   6              		.text
   7              	.Ltext0:
   8              		.cfi_sections	.debug_frame
   9              		.section	.text.MQTTSerialize_subscribeLength,"ax",@progbits
  10              		.align	1
  11              		.globl	MQTTSerialize_subscribeLength
  13              	MQTTSerialize_subscribeLength:
  14              	.LFB1:
  15              		.file 1 "C:/Users/stapi/OneDrive/Desktop/GD32VW553/V1_MQTT_OK/GD32VW55X_Wifi_BLE_SDK/GD32VW55x_REL
   1:C:/Users/stapi/OneDrive/Desktop/GD32VW553/V1_MQTT_OK/GD32VW55X_Wifi_BLE_SDK/GD32VW55x_RELEASE_V1.0.2/MSDK/cloud/alicloud/src/protocol/mqtt/MQTTPacket\MQTTSubscribeClient.c **** /*
   2:C:/Users/stapi/OneDrive/Desktop/GD32VW553/V1_MQTT_OK/GD32VW55X_Wifi_BLE_SDK/GD32VW55x_RELEASE_V1.0.2/MSDK/cloud/alicloud/src/protocol/mqtt/MQTTPacket\MQTTSubscribeClient.c ****  * Copyright (C) 2015-2018 Alibaba Group Holding Limited
   3:C:/Users/stapi/OneDrive/Desktop/GD32VW553/V1_MQTT_OK/GD32VW55X_Wifi_BLE_SDK/GD32VW55x_RELEASE_V1.0.2/MSDK/cloud/alicloud/src/protocol/mqtt/MQTTPacket\MQTTSubscribeClient.c ****  */
   4:C:/Users/stapi/OneDrive/Desktop/GD32VW553/V1_MQTT_OK/GD32VW55X_Wifi_BLE_SDK/GD32VW55x_RELEASE_V1.0.2/MSDK/cloud/alicloud/src/protocol/mqtt/MQTTPacket\MQTTSubscribeClient.c **** 
   5:C:/Users/stapi/OneDrive/Desktop/GD32VW553/V1_MQTT_OK/GD32VW55X_Wifi_BLE_SDK/GD32VW55x_RELEASE_V1.0.2/MSDK/cloud/alicloud/src/protocol/mqtt/MQTTPacket\MQTTSubscribeClient.c **** #include "MQTTPacket.h"
   6:C:/Users/stapi/OneDrive/Desktop/GD32VW553/V1_MQTT_OK/GD32VW55X_Wifi_BLE_SDK/GD32VW55x_RELEASE_V1.0.2/MSDK/cloud/alicloud/src/protocol/mqtt/MQTTPacket\MQTTSubscribeClient.c **** 
   7:C:/Users/stapi/OneDrive/Desktop/GD32VW553/V1_MQTT_OK/GD32VW55X_Wifi_BLE_SDK/GD32VW55x_RELEASE_V1.0.2/MSDK/cloud/alicloud/src/protocol/mqtt/MQTTPacket\MQTTSubscribeClient.c **** #include <string.h>
   8:C:/Users/stapi/OneDrive/Desktop/GD32VW553/V1_MQTT_OK/GD32VW55X_Wifi_BLE_SDK/GD32VW55x_RELEASE_V1.0.2/MSDK/cloud/alicloud/src/protocol/mqtt/MQTTPacket\MQTTSubscribeClient.c **** 
   9:C:/Users/stapi/OneDrive/Desktop/GD32VW553/V1_MQTT_OK/GD32VW55X_Wifi_BLE_SDK/GD32VW55x_RELEASE_V1.0.2/MSDK/cloud/alicloud/src/protocol/mqtt/MQTTPacket\MQTTSubscribeClient.c **** /**
  10:C:/Users/stapi/OneDrive/Desktop/GD32VW553/V1_MQTT_OK/GD32VW55X_Wifi_BLE_SDK/GD32VW55x_RELEASE_V1.0.2/MSDK/cloud/alicloud/src/protocol/mqtt/MQTTPacket\MQTTSubscribeClient.c ****   * Determines the length of the MQTT subscribe packet that would be produced using the supplied pa
  11:C:/Users/stapi/OneDrive/Desktop/GD32VW553/V1_MQTT_OK/GD32VW55X_Wifi_BLE_SDK/GD32VW55x_RELEASE_V1.0.2/MSDK/cloud/alicloud/src/protocol/mqtt/MQTTPacket\MQTTSubscribeClient.c ****   * @param count the number of topic filter strings in topicFilters
  12:C:/Users/stapi/OneDrive/Desktop/GD32VW553/V1_MQTT_OK/GD32VW55X_Wifi_BLE_SDK/GD32VW55x_RELEASE_V1.0.2/MSDK/cloud/alicloud/src/protocol/mqtt/MQTTPacket\MQTTSubscribeClient.c ****   * @param topicFilters the array of topic filter strings to be used in the publish
  13:C:/Users/stapi/OneDrive/Desktop/GD32VW553/V1_MQTT_OK/GD32VW55X_Wifi_BLE_SDK/GD32VW55x_RELEASE_V1.0.2/MSDK/cloud/alicloud/src/protocol/mqtt/MQTTPacket\MQTTSubscribeClient.c ****   * @return the length of buffer needed to contain the serialized version of the packet
  14:C:/Users/stapi/OneDrive/Desktop/GD32VW553/V1_MQTT_OK/GD32VW55X_Wifi_BLE_SDK/GD32VW55x_RELEASE_V1.0.2/MSDK/cloud/alicloud/src/protocol/mqtt/MQTTPacket\MQTTSubscribeClient.c ****   */
  15:C:/Users/stapi/OneDrive/Desktop/GD32VW553/V1_MQTT_OK/GD32VW55X_Wifi_BLE_SDK/GD32VW55x_RELEASE_V1.0.2/MSDK/cloud/alicloud/src/protocol/mqtt/MQTTPacket\MQTTSubscribeClient.c **** int MQTTSerialize_subscribeLength(int count, MQTTString topicFilters[])
  16:C:/Users/stapi/OneDrive/Desktop/GD32VW553/V1_MQTT_OK/GD32VW55X_Wifi_BLE_SDK/GD32VW55x_RELEASE_V1.0.2/MSDK/cloud/alicloud/src/protocol/mqtt/MQTTPacket\MQTTSubscribeClient.c **** {
  16              		.loc 1 16 1
  17              		.cfi_startproc
  18              	.LVL0:
  19 0000 17030000 		call	t0,__riscv_save_5
  19      E7020300 
  20              		.cfi_offset 20, -24
  21              		.cfi_offset 19, -20
  22              		.cfi_offset 18, -16
  23              		.cfi_offset 9, -12
  24              		.cfi_offset 8, -8
  25              		.cfi_offset 1, -4
  26              		.cfi_def_cfa_offset 32
  17:C:/Users/stapi/OneDrive/Desktop/GD32VW553/V1_MQTT_OK/GD32VW55X_Wifi_BLE_SDK/GD32VW55x_RELEASE_V1.0.2/MSDK/cloud/alicloud/src/protocol/mqtt/MQTTPacket\MQTTSubscribeClient.c ****     int i;
  27              		.loc 1 17 5
  18:C:/Users/stapi/OneDrive/Desktop/GD32VW553/V1_MQTT_OK/GD32VW55X_Wifi_BLE_SDK/GD32VW55x_RELEASE_V1.0.2/MSDK/cloud/alicloud/src/protocol/mqtt/MQTTPacket\MQTTSubscribeClient.c ****     int len = 2; /* packetid */
  28              		.loc 1 18 5
  29              	.LVL1:
  19:C:/Users/stapi/OneDrive/Desktop/GD32VW553/V1_MQTT_OK/GD32VW55X_Wifi_BLE_SDK/GD32VW55x_RELEASE_V1.0.2/MSDK/cloud/alicloud/src/protocol/mqtt/MQTTPacket\MQTTSubscribeClient.c **** 
  20:C:/Users/stapi/OneDrive/Desktop/GD32VW553/V1_MQTT_OK/GD32VW55X_Wifi_BLE_SDK/GD32VW55x_RELEASE_V1.0.2/MSDK/cloud/alicloud/src/protocol/mqtt/MQTTPacket\MQTTSubscribeClient.c ****     for (i = 0; i < count; ++i) {
  30              		.loc 1 20 5
  16:C:/Users/stapi/OneDrive/Desktop/GD32VW553/V1_MQTT_OK/GD32VW55X_Wifi_BLE_SDK/GD32VW55x_RELEASE_V1.0.2/MSDK/cloud/alicloud/src/protocol/mqtt/MQTTPacket\MQTTSubscribeClient.c ****     int i;
  31              		.loc 1 16 1 is_stmt 0
  32 0008 4111     		addi	sp,sp,-16
  33              		.cfi_def_cfa_offset 48
  16:C:/Users/stapi/OneDrive/Desktop/GD32VW553/V1_MQTT_OK/GD32VW55X_Wifi_BLE_SDK/GD32VW55x_RELEASE_V1.0.2/MSDK/cloud/alicloud/src/protocol/mqtt/MQTTPacket\MQTTSubscribeClient.c ****     int i;
  34              		.loc 1 16 1
  35 000a 2A89     		mv	s2,a0
  36 000c AE89     		mv	s3,a1
  18:C:/Users/stapi/OneDrive/Desktop/GD32VW553/V1_MQTT_OK/GD32VW55X_Wifi_BLE_SDK/GD32VW55x_RELEASE_V1.0.2/MSDK/cloud/alicloud/src/protocol/mqtt/MQTTPacket\MQTTSubscribeClient.c ****     int len = 2; /* packetid */
  37              		.loc 1 18 9
  38 000e 8944     		li	s1,2
  39              		.loc 1 20 12
  40 0010 0144     		li	s0,0
  21:C:/Users/stapi/OneDrive/Desktop/GD32VW553/V1_MQTT_OK/GD32VW55X_Wifi_BLE_SDK/GD32VW55x_RELEASE_V1.0.2/MSDK/cloud/alicloud/src/protocol/mqtt/MQTTPacket\MQTTSubscribeClient.c ****         len += 2 + MQTTstrlen(topicFilters[i]) + 1;    /* length + topic + req_qos */
  41              		.loc 1 21 20
  42 0012 314A     		li	s4,12
  43              	.LVL2:
  44              	.L2:
  20:C:/Users/stapi/OneDrive/Desktop/GD32VW553/V1_MQTT_OK/GD32VW55X_Wifi_BLE_SDK/GD32VW55x_RELEASE_V1.0.2/MSDK/cloud/alicloud/src/protocol/mqtt/MQTTPacket\MQTTSubscribeClient.c ****         len += 2 + MQTTstrlen(topicFilters[i]) + 1;    /* length + topic + req_qos */
  45              		.loc 1 20 17 is_stmt 1 discriminator 1
  20:C:/Users/stapi/OneDrive/Desktop/GD32VW553/V1_MQTT_OK/GD32VW55X_Wifi_BLE_SDK/GD32VW55x_RELEASE_V1.0.2/MSDK/cloud/alicloud/src/protocol/mqtt/MQTTPacket\MQTTSubscribeClient.c ****         len += 2 + MQTTstrlen(topicFilters[i]) + 1;    /* length + topic + req_qos */
  46              		.loc 1 20 5 is_stmt 0 discriminator 1
  47 0014 63482401 		blt	s0,s2,.L3
  22:C:/Users/stapi/OneDrive/Desktop/GD32VW553/V1_MQTT_OK/GD32VW55X_Wifi_BLE_SDK/GD32VW55x_RELEASE_V1.0.2/MSDK/cloud/alicloud/src/protocol/mqtt/MQTTPacket\MQTTSubscribeClient.c ****     }
  23:C:/Users/stapi/OneDrive/Desktop/GD32VW553/V1_MQTT_OK/GD32VW55X_Wifi_BLE_SDK/GD32VW55x_RELEASE_V1.0.2/MSDK/cloud/alicloud/src/protocol/mqtt/MQTTPacket\MQTTSubscribeClient.c ****     return len;
  48              		.loc 1 23 5 is_stmt 1
  24:C:/Users/stapi/OneDrive/Desktop/GD32VW553/V1_MQTT_OK/GD32VW55X_Wifi_BLE_SDK/GD32VW55x_RELEASE_V1.0.2/MSDK/cloud/alicloud/src/protocol/mqtt/MQTTPacket\MQTTSubscribeClient.c **** }
  49              		.loc 1 24 1 is_stmt 0
  50 0018 2685     		mv	a0,s1
  51 001a 4101     		addi	sp,sp,16
  52              		.cfi_remember_state
  53              		.cfi_def_cfa_offset 0
  54 001c 17030000 		tail	__riscv_restore_5
  54      67000300 
  55              		.cfi_restore 20
  56              		.cfi_restore 19
  57              		.cfi_restore 18
  58              		.cfi_restore 9
  59              		.cfi_restore 8
  60              		.cfi_restore 1
  61              		.cfi_def_cfa_offset -32
  62              	.L3:
  63              		.cfi_restore_state
  21:C:/Users/stapi/OneDrive/Desktop/GD32VW553/V1_MQTT_OK/GD32VW55X_Wifi_BLE_SDK/GD32VW55x_RELEASE_V1.0.2/MSDK/cloud/alicloud/src/protocol/mqtt/MQTTPacket\MQTTSubscribeClient.c ****     }
  64              		.loc 1 21 9 is_stmt 1 discriminator 3
  21:C:/Users/stapi/OneDrive/Desktop/GD32VW553/V1_MQTT_OK/GD32VW55X_Wifi_BLE_SDK/GD32VW55x_RELEASE_V1.0.2/MSDK/cloud/alicloud/src/protocol/mqtt/MQTTPacket\MQTTSubscribeClient.c ****     }
  65              		.loc 1 21 20 is_stmt 0 discriminator 3
  66 0024 3146     		li	a2,12
  67 0026 CE85     		mv	a1,s3
  68 0028 0A85     		mv	a0,sp
  69 002a FF1544C5 		maddr32	a1, s0, s4
  70 002e 97000000 		call	memcpy
  70      E7800000 
  71              	.LVL3:
  72 0036 0A85     		mv	a0,sp
  73 0038 97000000 		call	MQTTstrlen
  73      E7800000 
  74              	.LVL4:
  21:C:/Users/stapi/OneDrive/Desktop/GD32VW553/V1_MQTT_OK/GD32VW55X_Wifi_BLE_SDK/GD32VW55x_RELEASE_V1.0.2/MSDK/cloud/alicloud/src/protocol/mqtt/MQTTPacket\MQTTSubscribeClient.c ****     }
  75              		.loc 1 21 48 discriminator 3
  76 0040 0D05     		addi	a0,a0,3
  21:C:/Users/stapi/OneDrive/Desktop/GD32VW553/V1_MQTT_OK/GD32VW55X_Wifi_BLE_SDK/GD32VW55x_RELEASE_V1.0.2/MSDK/cloud/alicloud/src/protocol/mqtt/MQTTPacket\MQTTSubscribeClient.c ****     }
  77              		.loc 1 21 13 discriminator 3
  78 0042 AA94     		add	s1,s1,a0
  79              	.LVL5:
  20:C:/Users/stapi/OneDrive/Desktop/GD32VW553/V1_MQTT_OK/GD32VW55X_Wifi_BLE_SDK/GD32VW55x_RELEASE_V1.0.2/MSDK/cloud/alicloud/src/protocol/mqtt/MQTTPacket\MQTTSubscribeClient.c ****         len += 2 + MQTTstrlen(topicFilters[i]) + 1;    /* length + topic + req_qos */
  80              		.loc 1 20 28 is_stmt 1 discriminator 3
  81 0044 0504     		addi	s0,s0,1
  82              	.LVL6:
  83 0046 F9B7     		j	.L2
  84              		.cfi_endproc
  85              	.LFE1:
  87              		.section	.text.MQTTSerialize_subscribe,"ax",@progbits
  88              		.align	1
  89              		.globl	MQTTSerialize_subscribe
  91              	MQTTSerialize_subscribe:
  92              	.LFB2:
  25:C:/Users/stapi/OneDrive/Desktop/GD32VW553/V1_MQTT_OK/GD32VW55X_Wifi_BLE_SDK/GD32VW55x_RELEASE_V1.0.2/MSDK/cloud/alicloud/src/protocol/mqtt/MQTTPacket\MQTTSubscribeClient.c **** 
  26:C:/Users/stapi/OneDrive/Desktop/GD32VW553/V1_MQTT_OK/GD32VW55X_Wifi_BLE_SDK/GD32VW55x_RELEASE_V1.0.2/MSDK/cloud/alicloud/src/protocol/mqtt/MQTTPacket\MQTTSubscribeClient.c **** 
  27:C:/Users/stapi/OneDrive/Desktop/GD32VW553/V1_MQTT_OK/GD32VW55X_Wifi_BLE_SDK/GD32VW55x_RELEASE_V1.0.2/MSDK/cloud/alicloud/src/protocol/mqtt/MQTTPacket\MQTTSubscribeClient.c **** /**
  28:C:/Users/stapi/OneDrive/Desktop/GD32VW553/V1_MQTT_OK/GD32VW55X_Wifi_BLE_SDK/GD32VW55x_RELEASE_V1.0.2/MSDK/cloud/alicloud/src/protocol/mqtt/MQTTPacket\MQTTSubscribeClient.c ****   * Serializes the supplied subscribe data into the supplied buffer, ready for sending
  29:C:/Users/stapi/OneDrive/Desktop/GD32VW553/V1_MQTT_OK/GD32VW55X_Wifi_BLE_SDK/GD32VW55x_RELEASE_V1.0.2/MSDK/cloud/alicloud/src/protocol/mqtt/MQTTPacket\MQTTSubscribeClient.c ****   * @param buf the buffer into which the packet will be serialized
  30:C:/Users/stapi/OneDrive/Desktop/GD32VW553/V1_MQTT_OK/GD32VW55X_Wifi_BLE_SDK/GD32VW55x_RELEASE_V1.0.2/MSDK/cloud/alicloud/src/protocol/mqtt/MQTTPacket\MQTTSubscribeClient.c ****   * @param buflen the length in bytes of the supplied bufferr
  31:C:/Users/stapi/OneDrive/Desktop/GD32VW553/V1_MQTT_OK/GD32VW55X_Wifi_BLE_SDK/GD32VW55x_RELEASE_V1.0.2/MSDK/cloud/alicloud/src/protocol/mqtt/MQTTPacket\MQTTSubscribeClient.c ****   * @param dup integer - the MQTT dup flag
  32:C:/Users/stapi/OneDrive/Desktop/GD32VW553/V1_MQTT_OK/GD32VW55X_Wifi_BLE_SDK/GD32VW55x_RELEASE_V1.0.2/MSDK/cloud/alicloud/src/protocol/mqtt/MQTTPacket\MQTTSubscribeClient.c ****   * @param packetid integer - the MQTT packet identifier
  33:C:/Users/stapi/OneDrive/Desktop/GD32VW553/V1_MQTT_OK/GD32VW55X_Wifi_BLE_SDK/GD32VW55x_RELEASE_V1.0.2/MSDK/cloud/alicloud/src/protocol/mqtt/MQTTPacket\MQTTSubscribeClient.c ****   * @param count - number of members in the topicFilters and reqQos arrays
  34:C:/Users/stapi/OneDrive/Desktop/GD32VW553/V1_MQTT_OK/GD32VW55X_Wifi_BLE_SDK/GD32VW55x_RELEASE_V1.0.2/MSDK/cloud/alicloud/src/protocol/mqtt/MQTTPacket\MQTTSubscribeClient.c ****   * @param topicFilters - array of topic filter names
  35:C:/Users/stapi/OneDrive/Desktop/GD32VW553/V1_MQTT_OK/GD32VW55X_Wifi_BLE_SDK/GD32VW55x_RELEASE_V1.0.2/MSDK/cloud/alicloud/src/protocol/mqtt/MQTTPacket\MQTTSubscribeClient.c ****   * @param requestedQoSs - array of requested QoS
  36:C:/Users/stapi/OneDrive/Desktop/GD32VW553/V1_MQTT_OK/GD32VW55X_Wifi_BLE_SDK/GD32VW55x_RELEASE_V1.0.2/MSDK/cloud/alicloud/src/protocol/mqtt/MQTTPacket\MQTTSubscribeClient.c ****   * @return the length of the serialized data.  <= 0 indicates error
  37:C:/Users/stapi/OneDrive/Desktop/GD32VW553/V1_MQTT_OK/GD32VW55X_Wifi_BLE_SDK/GD32VW55x_RELEASE_V1.0.2/MSDK/cloud/alicloud/src/protocol/mqtt/MQTTPacket\MQTTSubscribeClient.c ****   */
  38:C:/Users/stapi/OneDrive/Desktop/GD32VW553/V1_MQTT_OK/GD32VW55X_Wifi_BLE_SDK/GD32VW55x_RELEASE_V1.0.2/MSDK/cloud/alicloud/src/protocol/mqtt/MQTTPacket\MQTTSubscribeClient.c **** int MQTTSerialize_subscribe(unsigned char *buf, int buflen, unsigned char dup, unsigned short packe
  39:C:/Users/stapi/OneDrive/Desktop/GD32VW553/V1_MQTT_OK/GD32VW55X_Wifi_BLE_SDK/GD32VW55x_RELEASE_V1.0.2/MSDK/cloud/alicloud/src/protocol/mqtt/MQTTPacket\MQTTSubscribeClient.c ****                             MQTTString topicFilters[], int requestedQoSs[])
  40:C:/Users/stapi/OneDrive/Desktop/GD32VW553/V1_MQTT_OK/GD32VW55X_Wifi_BLE_SDK/GD32VW55x_RELEASE_V1.0.2/MSDK/cloud/alicloud/src/protocol/mqtt/MQTTPacket\MQTTSubscribeClient.c **** {
  93              		.loc 1 40 1
  94              		.cfi_startproc
  95              	.LVL7:
  96 0000 17030000 		call	t0,__riscv_save_8
  96      E7020300 
  97              		.cfi_offset 23, -36
  98              		.cfi_offset 22, -32
  99              		.cfi_offset 21, -28
 100              		.cfi_offset 20, -24
 101              		.cfi_offset 19, -20
 102              		.cfi_offset 18, -16
 103              		.cfi_offset 9, -12
 104              		.cfi_offset 8, -8
 105              		.cfi_offset 1, -4
 106              		.cfi_def_cfa_offset 48
  41:C:/Users/stapi/OneDrive/Desktop/GD32VW553/V1_MQTT_OK/GD32VW55X_Wifi_BLE_SDK/GD32VW55x_RELEASE_V1.0.2/MSDK/cloud/alicloud/src/protocol/mqtt/MQTTPacket\MQTTSubscribeClient.c ****     unsigned char *ptr = buf;
 107              		.loc 1 41 5
  40:C:/Users/stapi/OneDrive/Desktop/GD32VW553/V1_MQTT_OK/GD32VW55X_Wifi_BLE_SDK/GD32VW55x_RELEASE_V1.0.2/MSDK/cloud/alicloud/src/protocol/mqtt/MQTTPacket\MQTTSubscribeClient.c ****     unsigned char *ptr = buf;
 108              		.loc 1 40 1 is_stmt 0
 109 0008 0111     		addi	sp,sp,-32
 110              		.cfi_def_cfa_offset 80
  40:C:/Users/stapi/OneDrive/Desktop/GD32VW553/V1_MQTT_OK/GD32VW55X_Wifi_BLE_SDK/GD32VW55x_RELEASE_V1.0.2/MSDK/cloud/alicloud/src/protocol/mqtt/MQTTPacket\MQTTSubscribeClient.c ****     unsigned char *ptr = buf;
 111              		.loc 1 40 1
 112 000a AE8B     		mv	s7,a1
 113              		.loc 1 41 20
 114 000c 2ACE     		sw	a0,28(sp)
  42:C:/Users/stapi/OneDrive/Desktop/GD32VW553/V1_MQTT_OK/GD32VW55X_Wifi_BLE_SDK/GD32VW55x_RELEASE_V1.0.2/MSDK/cloud/alicloud/src/protocol/mqtt/MQTTPacket\MQTTSubscribeClient.c ****     MQTTHeader header = {0};
 115              		.loc 1 42 5 is_stmt 1
  43:C:/Users/stapi/OneDrive/Desktop/GD32VW553/V1_MQTT_OK/GD32VW55X_Wifi_BLE_SDK/GD32VW55x_RELEASE_V1.0.2/MSDK/cloud/alicloud/src/protocol/mqtt/MQTTPacket\MQTTSubscribeClient.c ****     int rem_len = 0;
 116              		.loc 1 43 5
 117              	.LVL8:
  44:C:/Users/stapi/OneDrive/Desktop/GD32VW553/V1_MQTT_OK/GD32VW55X_Wifi_BLE_SDK/GD32VW55x_RELEASE_V1.0.2/MSDK/cloud/alicloud/src/protocol/mqtt/MQTTPacket\MQTTSubscribeClient.c ****     int rc = 0;
 118              		.loc 1 44 5
  45:C:/Users/stapi/OneDrive/Desktop/GD32VW553/V1_MQTT_OK/GD32VW55X_Wifi_BLE_SDK/GD32VW55x_RELEASE_V1.0.2/MSDK/cloud/alicloud/src/protocol/mqtt/MQTTPacket\MQTTSubscribeClient.c ****     int i = 0;
 119              		.loc 1 45 5
  46:C:/Users/stapi/OneDrive/Desktop/GD32VW553/V1_MQTT_OK/GD32VW55X_Wifi_BLE_SDK/GD32VW55x_RELEASE_V1.0.2/MSDK/cloud/alicloud/src/protocol/mqtt/MQTTPacket\MQTTSubscribeClient.c **** 
  47:C:/Users/stapi/OneDrive/Desktop/GD32VW553/V1_MQTT_OK/GD32VW55X_Wifi_BLE_SDK/GD32VW55x_RELEASE_V1.0.2/MSDK/cloud/alicloud/src/protocol/mqtt/MQTTPacket\MQTTSubscribeClient.c ****     if (MQTTPacket_len(rem_len = MQTTSerialize_subscribeLength(count, topicFilters)) > buflen) {
 120              		.loc 1 47 5
  40:C:/Users/stapi/OneDrive/Desktop/GD32VW553/V1_MQTT_OK/GD32VW55X_Wifi_BLE_SDK/GD32VW55x_RELEASE_V1.0.2/MSDK/cloud/alicloud/src/protocol/mqtt/MQTTPacket\MQTTSubscribeClient.c ****     unsigned char *ptr = buf;
 121              		.loc 1 40 1 is_stmt 0
 122 000e AA84     		mv	s1,a0
 123              		.loc 1 47 34
 124 0010 BE85     		mv	a1,a5
 125              	.LVL9:
 126 0012 3A85     		mv	a0,a4
 127              	.LVL10:
  40:C:/Users/stapi/OneDrive/Desktop/GD32VW553/V1_MQTT_OK/GD32VW55X_Wifi_BLE_SDK/GD32VW55x_RELEASE_V1.0.2/MSDK/cloud/alicloud/src/protocol/mqtt/MQTTPacket\MQTTSubscribeClient.c ****     unsigned char *ptr = buf;
 128              		.loc 1 40 1
 129 0014 3284     		mv	s0,a2
 130 0016 B68A     		mv	s5,a3
 131 0018 3A89     		mv	s2,a4
 132 001a BE89     		mv	s3,a5
 133 001c 428A     		mv	s4,a6
 134              		.loc 1 47 34
 135 001e 97000000 		call	MQTTSerialize_subscribeLength
 135      E7800000 
 136              	.LVL11:
 137 0026 2A8B     		mv	s6,a0
 138              	.LVL12:
 139              		.loc 1 47 9
 140 0028 97000000 		call	MQTTPacket_len
 140      E7800000 
 141              	.LVL13:
 142              		.loc 1 47 8
 143 0030 63C0AB08 		bgt	a0,s7,.L9
  48:C:/Users/stapi/OneDrive/Desktop/GD32VW553/V1_MQTT_OK/GD32VW55X_Wifi_BLE_SDK/GD32VW55x_RELEASE_V1.0.2/MSDK/cloud/alicloud/src/protocol/mqtt/MQTTPacket\MQTTSubscribeClient.c ****         rc = MQTTPACKET_BUFFER_TOO_SHORT;
  49:C:/Users/stapi/OneDrive/Desktop/GD32VW553/V1_MQTT_OK/GD32VW55X_Wifi_BLE_SDK/GD32VW55x_RELEASE_V1.0.2/MSDK/cloud/alicloud/src/protocol/mqtt/MQTTPacket\MQTTSubscribeClient.c ****         goto exit;
  50:C:/Users/stapi/OneDrive/Desktop/GD32VW553/V1_MQTT_OK/GD32VW55X_Wifi_BLE_SDK/GD32VW55x_RELEASE_V1.0.2/MSDK/cloud/alicloud/src/protocol/mqtt/MQTTPacket\MQTTSubscribeClient.c ****     }
  51:C:/Users/stapi/OneDrive/Desktop/GD32VW553/V1_MQTT_OK/GD32VW55X_Wifi_BLE_SDK/GD32VW55x_RELEASE_V1.0.2/MSDK/cloud/alicloud/src/protocol/mqtt/MQTTPacket\MQTTSubscribeClient.c **** 
  52:C:/Users/stapi/OneDrive/Desktop/GD32VW553/V1_MQTT_OK/GD32VW55X_Wifi_BLE_SDK/GD32VW55x_RELEASE_V1.0.2/MSDK/cloud/alicloud/src/protocol/mqtt/MQTTPacket\MQTTSubscribeClient.c ****     header.byte = 0;
 144              		.loc 1 52 5 is_stmt 1
  53:C:/Users/stapi/OneDrive/Desktop/GD32VW553/V1_MQTT_OK/GD32VW55X_Wifi_BLE_SDK/GD32VW55x_RELEASE_V1.0.2/MSDK/cloud/alicloud/src/protocol/mqtt/MQTTPacket\MQTTSubscribeClient.c ****     header.bits.type = SUBSCRIBE;
 145              		.loc 1 53 5
  54:C:/Users/stapi/OneDrive/Desktop/GD32VW553/V1_MQTT_OK/GD32VW55X_Wifi_BLE_SDK/GD32VW55x_RELEASE_V1.0.2/MSDK/cloud/alicloud/src/protocol/mqtt/MQTTPacket\MQTTSubscribeClient.c ****     header.bits.dup = dup;
 146              		.loc 1 54 5
  55:C:/Users/stapi/OneDrive/Desktop/GD32VW553/V1_MQTT_OK/GD32VW55X_Wifi_BLE_SDK/GD32VW55x_RELEASE_V1.0.2/MSDK/cloud/alicloud/src/protocol/mqtt/MQTTPacket\MQTTSubscribeClient.c ****     header.bits.qos = 1;
 147              		.loc 1 55 5
  56:C:/Users/stapi/OneDrive/Desktop/GD32VW553/V1_MQTT_OK/GD32VW55X_Wifi_BLE_SDK/GD32VW55x_RELEASE_V1.0.2/MSDK/cloud/alicloud/src/protocol/mqtt/MQTTPacket\MQTTSubscribeClient.c ****     writeChar(&ptr, header.byte); /* write header */
 148              		.loc 1 56 5
  55:C:/Users/stapi/OneDrive/Desktop/GD32VW553/V1_MQTT_OK/GD32VW55X_Wifi_BLE_SDK/GD32VW55x_RELEASE_V1.0.2/MSDK/cloud/alicloud/src/protocol/mqtt/MQTTPacket\MQTTSubscribeClient.c ****     header.bits.qos = 1;
 149              		.loc 1 55 21 is_stmt 0
 150 0034 0E04     		slli	s0,s0,3
 151 0036 2188     		andi	s0,s0,8
 152              		.loc 1 56 5
 153 0038 936524F8 		ori	a1,s0,-126
 154 003c 6808     		addi	a0,sp,28
 155 003e 97000000 		call	writeChar
 155      E7800000 
 156              	.LVL14:
  57:C:/Users/stapi/OneDrive/Desktop/GD32VW553/V1_MQTT_OK/GD32VW55X_Wifi_BLE_SDK/GD32VW55x_RELEASE_V1.0.2/MSDK/cloud/alicloud/src/protocol/mqtt/MQTTPacket\MQTTSubscribeClient.c **** 
  58:C:/Users/stapi/OneDrive/Desktop/GD32VW553/V1_MQTT_OK/GD32VW55X_Wifi_BLE_SDK/GD32VW55x_RELEASE_V1.0.2/MSDK/cloud/alicloud/src/protocol/mqtt/MQTTPacket\MQTTSubscribeClient.c ****     ptr += MQTTPacket_encode(ptr, rem_len); /* write remaining length */;
 157              		.loc 1 58 5 is_stmt 1
 158              		.loc 1 58 12 is_stmt 0
 159 0046 7245     		lw	a0,28(sp)
 160 0048 DA85     		mv	a1,s6
  59:C:/Users/stapi/OneDrive/Desktop/GD32VW553/V1_MQTT_OK/GD32VW55X_Wifi_BLE_SDK/GD32VW55x_RELEASE_V1.0.2/MSDK/cloud/alicloud/src/protocol/mqtt/MQTTPacket\MQTTSubscribeClient.c **** 
  60:C:/Users/stapi/OneDrive/Desktop/GD32VW553/V1_MQTT_OK/GD32VW55X_Wifi_BLE_SDK/GD32VW55x_RELEASE_V1.0.2/MSDK/cloud/alicloud/src/protocol/mqtt/MQTTPacket\MQTTSubscribeClient.c ****     writeInt(&ptr, packetid);
  61:C:/Users/stapi/OneDrive/Desktop/GD32VW553/V1_MQTT_OK/GD32VW55X_Wifi_BLE_SDK/GD32VW55x_RELEASE_V1.0.2/MSDK/cloud/alicloud/src/protocol/mqtt/MQTTPacket\MQTTSubscribeClient.c **** 
  62:C:/Users/stapi/OneDrive/Desktop/GD32VW553/V1_MQTT_OK/GD32VW55X_Wifi_BLE_SDK/GD32VW55x_RELEASE_V1.0.2/MSDK/cloud/alicloud/src/protocol/mqtt/MQTTPacket\MQTTSubscribeClient.c ****     for (i = 0; i < count; ++i) {
 161              		.loc 1 62 12
 162 004a 0144     		li	s0,0
  58:C:/Users/stapi/OneDrive/Desktop/GD32VW553/V1_MQTT_OK/GD32VW55X_Wifi_BLE_SDK/GD32VW55x_RELEASE_V1.0.2/MSDK/cloud/alicloud/src/protocol/mqtt/MQTTPacket\MQTTSubscribeClient.c **** 
 163              		.loc 1 58 12
 164 004c 97000000 		call	MQTTPacket_encode
 164      E7800000 
 165              	.LVL15:
  58:C:/Users/stapi/OneDrive/Desktop/GD32VW553/V1_MQTT_OK/GD32VW55X_Wifi_BLE_SDK/GD32VW55x_RELEASE_V1.0.2/MSDK/cloud/alicloud/src/protocol/mqtt/MQTTPacket\MQTTSubscribeClient.c **** 
 166              		.loc 1 58 9
 167 0054 F247     		lw	a5,28(sp)
  60:C:/Users/stapi/OneDrive/Desktop/GD32VW553/V1_MQTT_OK/GD32VW55X_Wifi_BLE_SDK/GD32VW55x_RELEASE_V1.0.2/MSDK/cloud/alicloud/src/protocol/mqtt/MQTTPacket\MQTTSubscribeClient.c **** 
 168              		.loc 1 60 5
 169 0056 D685     		mv	a1,s5
  63:C:/Users/stapi/OneDrive/Desktop/GD32VW553/V1_MQTT_OK/GD32VW55X_Wifi_BLE_SDK/GD32VW55x_RELEASE_V1.0.2/MSDK/cloud/alicloud/src/protocol/mqtt/MQTTPacket\MQTTSubscribeClient.c ****         writeMQTTString(&ptr, topicFilters[i]);
 170              		.loc 1 63 9
 171 0058 B14A     		li	s5,12
  58:C:/Users/stapi/OneDrive/Desktop/GD32VW553/V1_MQTT_OK/GD32VW55X_Wifi_BLE_SDK/GD32VW55x_RELEASE_V1.0.2/MSDK/cloud/alicloud/src/protocol/mqtt/MQTTPacket\MQTTSubscribeClient.c **** 
 172              		.loc 1 58 9
 173 005a AA97     		add	a5,a5,a0
  60:C:/Users/stapi/OneDrive/Desktop/GD32VW553/V1_MQTT_OK/GD32VW55X_Wifi_BLE_SDK/GD32VW55x_RELEASE_V1.0.2/MSDK/cloud/alicloud/src/protocol/mqtt/MQTTPacket\MQTTSubscribeClient.c **** 
 174              		.loc 1 60 5
 175 005c 6808     		addi	a0,sp,28
  58:C:/Users/stapi/OneDrive/Desktop/GD32VW553/V1_MQTT_OK/GD32VW55X_Wifi_BLE_SDK/GD32VW55x_RELEASE_V1.0.2/MSDK/cloud/alicloud/src/protocol/mqtt/MQTTPacket\MQTTSubscribeClient.c **** 
 176              		.loc 1 58 9
 177 005e 3ECE     		sw	a5,28(sp)
  58:C:/Users/stapi/OneDrive/Desktop/GD32VW553/V1_MQTT_OK/GD32VW55X_Wifi_BLE_SDK/GD32VW55x_RELEASE_V1.0.2/MSDK/cloud/alicloud/src/protocol/mqtt/MQTTPacket\MQTTSubscribeClient.c **** 
 178              		.loc 1 58 73 is_stmt 1
  60:C:/Users/stapi/OneDrive/Desktop/GD32VW553/V1_MQTT_OK/GD32VW55X_Wifi_BLE_SDK/GD32VW55x_RELEASE_V1.0.2/MSDK/cloud/alicloud/src/protocol/mqtt/MQTTPacket\MQTTSubscribeClient.c **** 
 179              		.loc 1 60 5
 180 0060 97000000 		call	writeInt
 180      E7800000 
 181              	.LVL16:
  62:C:/Users/stapi/OneDrive/Desktop/GD32VW553/V1_MQTT_OK/GD32VW55X_Wifi_BLE_SDK/GD32VW55x_RELEASE_V1.0.2/MSDK/cloud/alicloud/src/protocol/mqtt/MQTTPacket\MQTTSubscribeClient.c ****         writeMQTTString(&ptr, topicFilters[i]);
 182              		.loc 1 62 5
 183              	.L7:
  62:C:/Users/stapi/OneDrive/Desktop/GD32VW553/V1_MQTT_OK/GD32VW55X_Wifi_BLE_SDK/GD32VW55x_RELEASE_V1.0.2/MSDK/cloud/alicloud/src/protocol/mqtt/MQTTPacket\MQTTSubscribeClient.c ****         writeMQTTString(&ptr, topicFilters[i]);
 184              		.loc 1 62 17 discriminator 1
  62:C:/Users/stapi/OneDrive/Desktop/GD32VW553/V1_MQTT_OK/GD32VW55X_Wifi_BLE_SDK/GD32VW55x_RELEASE_V1.0.2/MSDK/cloud/alicloud/src/protocol/mqtt/MQTTPacket\MQTTSubscribeClient.c ****         writeMQTTString(&ptr, topicFilters[i]);
 185              		.loc 1 62 5 is_stmt 0 discriminator 1
 186 0068 634A2401 		blt	s0,s2,.L8
  64:C:/Users/stapi/OneDrive/Desktop/GD32VW553/V1_MQTT_OK/GD32VW55X_Wifi_BLE_SDK/GD32VW55x_RELEASE_V1.0.2/MSDK/cloud/alicloud/src/protocol/mqtt/MQTTPacket\MQTTSubscribeClient.c ****         writeChar(&ptr, requestedQoSs[i]);
  65:C:/Users/stapi/OneDrive/Desktop/GD32VW553/V1_MQTT_OK/GD32VW55X_Wifi_BLE_SDK/GD32VW55x_RELEASE_V1.0.2/MSDK/cloud/alicloud/src/protocol/mqtt/MQTTPacket\MQTTSubscribeClient.c ****     }
  66:C:/Users/stapi/OneDrive/Desktop/GD32VW553/V1_MQTT_OK/GD32VW55X_Wifi_BLE_SDK/GD32VW55x_RELEASE_V1.0.2/MSDK/cloud/alicloud/src/protocol/mqtt/MQTTPacket\MQTTSubscribeClient.c **** 
  67:C:/Users/stapi/OneDrive/Desktop/GD32VW553/V1_MQTT_OK/GD32VW55X_Wifi_BLE_SDK/GD32VW55x_RELEASE_V1.0.2/MSDK/cloud/alicloud/src/protocol/mqtt/MQTTPacket\MQTTSubscribeClient.c ****     rc = ptr - buf;
 187              		.loc 1 67 5 is_stmt 1
 188              		.loc 1 67 8 is_stmt 0
 189 006c F247     		lw	a5,28(sp)
 190 006e 33859740 		sub	a0,a5,s1
 191              	.LVL17:
 192              	.L5:
  68:C:/Users/stapi/OneDrive/Desktop/GD32VW553/V1_MQTT_OK/GD32VW55X_Wifi_BLE_SDK/GD32VW55x_RELEASE_V1.0.2/MSDK/cloud/alicloud/src/protocol/mqtt/MQTTPacket\MQTTSubscribeClient.c **** exit:
  69:C:/Users/stapi/OneDrive/Desktop/GD32VW553/V1_MQTT_OK/GD32VW55X_Wifi_BLE_SDK/GD32VW55x_RELEASE_V1.0.2/MSDK/cloud/alicloud/src/protocol/mqtt/MQTTPacket\MQTTSubscribeClient.c ****     return rc;
  70:C:/Users/stapi/OneDrive/Desktop/GD32VW553/V1_MQTT_OK/GD32VW55X_Wifi_BLE_SDK/GD32VW55x_RELEASE_V1.0.2/MSDK/cloud/alicloud/src/protocol/mqtt/MQTTPacket\MQTTSubscribeClient.c **** }
 193              		.loc 1 70 1
 194 0072 0561     		addi	sp,sp,32
 195              		.cfi_remember_state
 196              		.cfi_def_cfa_offset 0
 197 0074 17030000 		tail	__riscv_restore_8
 197      67000300 
 198              		.cfi_restore 23
 199              		.cfi_restore 22
 200              		.cfi_restore 21
 201              		.cfi_restore 20
 202              		.cfi_restore 19
 203              		.cfi_restore 18
 204              		.cfi_restore 9
 205              		.cfi_restore 8
 206              		.cfi_restore 1
 207              		.cfi_def_cfa_offset -48
 208              	.LVL18:
 209              	.L8:
 210              		.cfi_restore_state
  63:C:/Users/stapi/OneDrive/Desktop/GD32VW553/V1_MQTT_OK/GD32VW55X_Wifi_BLE_SDK/GD32VW55x_RELEASE_V1.0.2/MSDK/cloud/alicloud/src/protocol/mqtt/MQTTPacket\MQTTSubscribeClient.c ****         writeChar(&ptr, requestedQoSs[i]);
 211              		.loc 1 63 9 is_stmt 1 discriminator 3
 212 007c 3146     		li	a2,12
 213 007e CE85     		mv	a1,s3
 214 0080 0A85     		mv	a0,sp
 215 0082 FF1554C5 		maddr32	a1, s0, s5
 216 0086 97000000 		call	memcpy
 216      E7800000 
 217              	.LVL19:
 218 008e 8A85     		mv	a1,sp
 219 0090 6808     		addi	a0,sp,28
 220 0092 97000000 		call	writeMQTTString
 220      E7800000 
 221              	.LVL20:
  64:C:/Users/stapi/OneDrive/Desktop/GD32VW553/V1_MQTT_OK/GD32VW55X_Wifi_BLE_SDK/GD32VW55x_RELEASE_V1.0.2/MSDK/cloud/alicloud/src/protocol/mqtt/MQTTPacket\MQTTSubscribeClient.c ****         writeChar(&ptr, requestedQoSs[i]);
 222              		.loc 1 64 9 discriminator 3
  64:C:/Users/stapi/OneDrive/Desktop/GD32VW553/V1_MQTT_OK/GD32VW55X_Wifi_BLE_SDK/GD32VW55x_RELEASE_V1.0.2/MSDK/cloud/alicloud/src/protocol/mqtt/MQTTPacket\MQTTSubscribeClient.c ****         writeChar(&ptr, requestedQoSs[i]);
 223              		.loc 1 64 38 is_stmt 0 discriminator 3
 224 009a B3474421 		sh2add	a5,s0,s4
  64:C:/Users/stapi/OneDrive/Desktop/GD32VW553/V1_MQTT_OK/GD32VW55X_Wifi_BLE_SDK/GD32VW55x_RELEASE_V1.0.2/MSDK/cloud/alicloud/src/protocol/mqtt/MQTTPacket\MQTTSubscribeClient.c ****         writeChar(&ptr, requestedQoSs[i]);
 225              		.loc 1 64 9 discriminator 3
 226 009e 6808     		addi	a0,sp,28
 227 00a0 83850700 		lb	a1,0(a5)
  62:C:/Users/stapi/OneDrive/Desktop/GD32VW553/V1_MQTT_OK/GD32VW55X_Wifi_BLE_SDK/GD32VW55x_RELEASE_V1.0.2/MSDK/cloud/alicloud/src/protocol/mqtt/MQTTPacket\MQTTSubscribeClient.c ****         writeMQTTString(&ptr, topicFilters[i]);
 228              		.loc 1 62 28 discriminator 3
 229 00a4 0504     		addi	s0,s0,1
 230              	.LVL21:
  64:C:/Users/stapi/OneDrive/Desktop/GD32VW553/V1_MQTT_OK/GD32VW55X_Wifi_BLE_SDK/GD32VW55x_RELEASE_V1.0.2/MSDK/cloud/alicloud/src/protocol/mqtt/MQTTPacket\MQTTSubscribeClient.c ****     }
 231              		.loc 1 64 9 discriminator 3
 232 00a6 97000000 		call	writeChar
 232      E7800000 
 233              	.LVL22:
  62:C:/Users/stapi/OneDrive/Desktop/GD32VW553/V1_MQTT_OK/GD32VW55X_Wifi_BLE_SDK/GD32VW55x_RELEASE_V1.0.2/MSDK/cloud/alicloud/src/protocol/mqtt/MQTTPacket\MQTTSubscribeClient.c ****         writeMQTTString(&ptr, topicFilters[i]);
 234              		.loc 1 62 28 is_stmt 1 discriminator 3
 235 00ae 6DBF     		j	.L7
 236              	.LVL23:
 237              	.L9:
 238              	.L6:
  69:C:/Users/stapi/OneDrive/Desktop/GD32VW553/V1_MQTT_OK/GD32VW55X_Wifi_BLE_SDK/GD32VW55x_RELEASE_V1.0.2/MSDK/cloud/alicloud/src/protocol/mqtt/MQTTPacket\MQTTSubscribeClient.c **** }
 239              		.loc 1 69 5
  48:C:/Users/stapi/OneDrive/Desktop/GD32VW553/V1_MQTT_OK/GD32VW55X_Wifi_BLE_SDK/GD32VW55x_RELEASE_V1.0.2/MSDK/cloud/alicloud/src/protocol/mqtt/MQTTPacket\MQTTSubscribeClient.c ****         goto exit;
 240              		.loc 1 48 12 is_stmt 0
 241 00b0 7955     		li	a0,-2
  69:C:/Users/stapi/OneDrive/Desktop/GD32VW553/V1_MQTT_OK/GD32VW55X_Wifi_BLE_SDK/GD32VW55x_RELEASE_V1.0.2/MSDK/cloud/alicloud/src/protocol/mqtt/MQTTPacket\MQTTSubscribeClient.c **** }
 242              		.loc 1 69 12
 243 00b2 C1B7     		j	.L5
 244              		.cfi_endproc
 245              	.LFE2:
 247              		.section	.text.MQTTDeserialize_suback,"ax",@progbits
 248              		.align	1
 249              		.globl	MQTTDeserialize_suback
 251              	MQTTDeserialize_suback:
 252              	.LFB3:
  71:C:/Users/stapi/OneDrive/Desktop/GD32VW553/V1_MQTT_OK/GD32VW55X_Wifi_BLE_SDK/GD32VW55x_RELEASE_V1.0.2/MSDK/cloud/alicloud/src/protocol/mqtt/MQTTPacket\MQTTSubscribeClient.c **** 
  72:C:/Users/stapi/OneDrive/Desktop/GD32VW553/V1_MQTT_OK/GD32VW55X_Wifi_BLE_SDK/GD32VW55x_RELEASE_V1.0.2/MSDK/cloud/alicloud/src/protocol/mqtt/MQTTPacket\MQTTSubscribeClient.c **** 
  73:C:/Users/stapi/OneDrive/Desktop/GD32VW553/V1_MQTT_OK/GD32VW55X_Wifi_BLE_SDK/GD32VW55x_RELEASE_V1.0.2/MSDK/cloud/alicloud/src/protocol/mqtt/MQTTPacket\MQTTSubscribeClient.c **** 
  74:C:/Users/stapi/OneDrive/Desktop/GD32VW553/V1_MQTT_OK/GD32VW55X_Wifi_BLE_SDK/GD32VW55x_RELEASE_V1.0.2/MSDK/cloud/alicloud/src/protocol/mqtt/MQTTPacket\MQTTSubscribeClient.c **** /**
  75:C:/Users/stapi/OneDrive/Desktop/GD32VW553/V1_MQTT_OK/GD32VW55X_Wifi_BLE_SDK/GD32VW55x_RELEASE_V1.0.2/MSDK/cloud/alicloud/src/protocol/mqtt/MQTTPacket\MQTTSubscribeClient.c ****   * Deserializes the supplied (wire) buffer into suback data
  76:C:/Users/stapi/OneDrive/Desktop/GD32VW553/V1_MQTT_OK/GD32VW55X_Wifi_BLE_SDK/GD32VW55x_RELEASE_V1.0.2/MSDK/cloud/alicloud/src/protocol/mqtt/MQTTPacket\MQTTSubscribeClient.c ****   * @param packetid returned integer - the MQTT packet identifier
  77:C:/Users/stapi/OneDrive/Desktop/GD32VW553/V1_MQTT_OK/GD32VW55X_Wifi_BLE_SDK/GD32VW55x_RELEASE_V1.0.2/MSDK/cloud/alicloud/src/protocol/mqtt/MQTTPacket\MQTTSubscribeClient.c ****   * @param maxcount - the maximum number of members allowed in the grantedQoSs array
  78:C:/Users/stapi/OneDrive/Desktop/GD32VW553/V1_MQTT_OK/GD32VW55X_Wifi_BLE_SDK/GD32VW55x_RELEASE_V1.0.2/MSDK/cloud/alicloud/src/protocol/mqtt/MQTTPacket\MQTTSubscribeClient.c ****   * @param count returned integer - number of members in the grantedQoSs array
  79:C:/Users/stapi/OneDrive/Desktop/GD32VW553/V1_MQTT_OK/GD32VW55X_Wifi_BLE_SDK/GD32VW55x_RELEASE_V1.0.2/MSDK/cloud/alicloud/src/protocol/mqtt/MQTTPacket\MQTTSubscribeClient.c ****   * @param grantedQoSs returned array of integers - the granted qualities of service
  80:C:/Users/stapi/OneDrive/Desktop/GD32VW553/V1_MQTT_OK/GD32VW55X_Wifi_BLE_SDK/GD32VW55x_RELEASE_V1.0.2/MSDK/cloud/alicloud/src/protocol/mqtt/MQTTPacket\MQTTSubscribeClient.c ****   * @param buf the raw buffer data, of the correct length determined by the remaining length field
  81:C:/Users/stapi/OneDrive/Desktop/GD32VW553/V1_MQTT_OK/GD32VW55X_Wifi_BLE_SDK/GD32VW55x_RELEASE_V1.0.2/MSDK/cloud/alicloud/src/protocol/mqtt/MQTTPacket\MQTTSubscribeClient.c ****   * @param buflen the length in bytes of the data in the supplied buffer
  82:C:/Users/stapi/OneDrive/Desktop/GD32VW553/V1_MQTT_OK/GD32VW55X_Wifi_BLE_SDK/GD32VW55x_RELEASE_V1.0.2/MSDK/cloud/alicloud/src/protocol/mqtt/MQTTPacket\MQTTSubscribeClient.c ****   * @return error code.  1 is success, 0 is failure
  83:C:/Users/stapi/OneDrive/Desktop/GD32VW553/V1_MQTT_OK/GD32VW55X_Wifi_BLE_SDK/GD32VW55x_RELEASE_V1.0.2/MSDK/cloud/alicloud/src/protocol/mqtt/MQTTPacket\MQTTSubscribeClient.c ****   */
  84:C:/Users/stapi/OneDrive/Desktop/GD32VW553/V1_MQTT_OK/GD32VW55X_Wifi_BLE_SDK/GD32VW55x_RELEASE_V1.0.2/MSDK/cloud/alicloud/src/protocol/mqtt/MQTTPacket\MQTTSubscribeClient.c **** int MQTTDeserialize_suback(unsigned short *packetid, int maxcount, int *count, int grantedQoSs[], u
  85:C:/Users/stapi/OneDrive/Desktop/GD32VW553/V1_MQTT_OK/GD32VW55X_Wifi_BLE_SDK/GD32VW55x_RELEASE_V1.0.2/MSDK/cloud/alicloud/src/protocol/mqtt/MQTTPacket\MQTTSubscribeClient.c ****                            int buflen)
  86:C:/Users/stapi/OneDrive/Desktop/GD32VW553/V1_MQTT_OK/GD32VW55X_Wifi_BLE_SDK/GD32VW55x_RELEASE_V1.0.2/MSDK/cloud/alicloud/src/protocol/mqtt/MQTTPacket\MQTTSubscribeClient.c **** {
 253              		.loc 1 86 1 is_stmt 1
 254              		.cfi_startproc
 255              	.LVL24:
 256 0000 17030000 		call	t0,__riscv_save_5
 256      E7020300 
 257              		.cfi_offset 20, -24
 258              		.cfi_offset 19, -20
 259              		.cfi_offset 18, -16
 260              		.cfi_offset 9, -12
 261              		.cfi_offset 8, -8
 262              		.cfi_offset 1, -4
 263              		.cfi_def_cfa_offset 32
  87:C:/Users/stapi/OneDrive/Desktop/GD32VW553/V1_MQTT_OK/GD32VW55X_Wifi_BLE_SDK/GD32VW55x_RELEASE_V1.0.2/MSDK/cloud/alicloud/src/protocol/mqtt/MQTTPacket\MQTTSubscribeClient.c ****     MQTTHeader header = {0};
 264              		.loc 1 87 5
 265              	.LVL25:
  88:C:/Users/stapi/OneDrive/Desktop/GD32VW553/V1_MQTT_OK/GD32VW55X_Wifi_BLE_SDK/GD32VW55x_RELEASE_V1.0.2/MSDK/cloud/alicloud/src/protocol/mqtt/MQTTPacket\MQTTSubscribeClient.c ****     unsigned char *curdata = buf;
 266              		.loc 1 88 5
  86:C:/Users/stapi/OneDrive/Desktop/GD32VW553/V1_MQTT_OK/GD32VW55X_Wifi_BLE_SDK/GD32VW55x_RELEASE_V1.0.2/MSDK/cloud/alicloud/src/protocol/mqtt/MQTTPacket\MQTTSubscribeClient.c ****     MQTTHeader header = {0};
 267              		.loc 1 86 1 is_stmt 0
 268 0008 4111     		addi	sp,sp,-16
 269              		.cfi_def_cfa_offset 48
  86:C:/Users/stapi/OneDrive/Desktop/GD32VW553/V1_MQTT_OK/GD32VW55X_Wifi_BLE_SDK/GD32VW55x_RELEASE_V1.0.2/MSDK/cloud/alicloud/src/protocol/mqtt/MQTTPacket\MQTTSubscribeClient.c ****     MQTTHeader header = {0};
 270              		.loc 1 86 1
 271 000a 2A8A     		mv	s4,a0
  89:C:/Users/stapi/OneDrive/Desktop/GD32VW553/V1_MQTT_OK/GD32VW55X_Wifi_BLE_SDK/GD32VW55x_RELEASE_V1.0.2/MSDK/cloud/alicloud/src/protocol/mqtt/MQTTPacket\MQTTSubscribeClient.c ****     unsigned char *enddata = NULL;
  90:C:/Users/stapi/OneDrive/Desktop/GD32VW553/V1_MQTT_OK/GD32VW55X_Wifi_BLE_SDK/GD32VW55x_RELEASE_V1.0.2/MSDK/cloud/alicloud/src/protocol/mqtt/MQTTPacket\MQTTSubscribeClient.c ****     int rc = 0;
  91:C:/Users/stapi/OneDrive/Desktop/GD32VW553/V1_MQTT_OK/GD32VW55X_Wifi_BLE_SDK/GD32VW55x_RELEASE_V1.0.2/MSDK/cloud/alicloud/src/protocol/mqtt/MQTTPacket\MQTTSubscribeClient.c ****     int mylen;
  92:C:/Users/stapi/OneDrive/Desktop/GD32VW553/V1_MQTT_OK/GD32VW55X_Wifi_BLE_SDK/GD32VW55x_RELEASE_V1.0.2/MSDK/cloud/alicloud/src/protocol/mqtt/MQTTPacket\MQTTSubscribeClient.c **** 
  93:C:/Users/stapi/OneDrive/Desktop/GD32VW553/V1_MQTT_OK/GD32VW55X_Wifi_BLE_SDK/GD32VW55x_RELEASE_V1.0.2/MSDK/cloud/alicloud/src/protocol/mqtt/MQTTPacket\MQTTSubscribeClient.c ****     header.byte = readChar(&curdata);
 272              		.loc 1 93 19
 273 000c 2800     		addi	a0,sp,8
 274              	.LVL26:
  86:C:/Users/stapi/OneDrive/Desktop/GD32VW553/V1_MQTT_OK/GD32VW55X_Wifi_BLE_SDK/GD32VW55x_RELEASE_V1.0.2/MSDK/cloud/alicloud/src/protocol/mqtt/MQTTPacket\MQTTSubscribeClient.c ****     MQTTHeader header = {0};
 275              		.loc 1 86 1
 276 000e 2E89     		mv	s2,a1
 277 0010 B284     		mv	s1,a2
 278 0012 B689     		mv	s3,a3
  88:C:/Users/stapi/OneDrive/Desktop/GD32VW553/V1_MQTT_OK/GD32VW55X_Wifi_BLE_SDK/GD32VW55x_RELEASE_V1.0.2/MSDK/cloud/alicloud/src/protocol/mqtt/MQTTPacket\MQTTSubscribeClient.c ****     unsigned char *enddata = NULL;
 279              		.loc 1 88 20
 280 0014 3AC4     		sw	a4,8(sp)
  89:C:/Users/stapi/OneDrive/Desktop/GD32VW553/V1_MQTT_OK/GD32VW55X_Wifi_BLE_SDK/GD32VW55x_RELEASE_V1.0.2/MSDK/cloud/alicloud/src/protocol/mqtt/MQTTPacket\MQTTSubscribeClient.c ****     unsigned char *enddata = NULL;
 281              		.loc 1 89 5 is_stmt 1
 282              	.LVL27:
  90:C:/Users/stapi/OneDrive/Desktop/GD32VW553/V1_MQTT_OK/GD32VW55X_Wifi_BLE_SDK/GD32VW55x_RELEASE_V1.0.2/MSDK/cloud/alicloud/src/protocol/mqtt/MQTTPacket\MQTTSubscribeClient.c ****     int mylen;
 283              		.loc 1 90 5
  91:C:/Users/stapi/OneDrive/Desktop/GD32VW553/V1_MQTT_OK/GD32VW55X_Wifi_BLE_SDK/GD32VW55x_RELEASE_V1.0.2/MSDK/cloud/alicloud/src/protocol/mqtt/MQTTPacket\MQTTSubscribeClient.c **** 
 284              		.loc 1 91 5
 285              		.loc 1 93 5
 286              		.loc 1 93 19 is_stmt 0
 287 0016 97000000 		call	readChar
 287      E7800000 
 288              	.LVL28:
  94:C:/Users/stapi/OneDrive/Desktop/GD32VW553/V1_MQTT_OK/GD32VW55X_Wifi_BLE_SDK/GD32VW55x_RELEASE_V1.0.2/MSDK/cloud/alicloud/src/protocol/mqtt/MQTTPacket\MQTTSubscribeClient.c ****     if (header.bits.type != SUBACK) {
 289              		.loc 1 94 5 is_stmt 1
 290              		.loc 1 94 8 is_stmt 0
 291 001e 1375050F 		andi	a0,a0,240
 292              	.LVL29:
 293 0022 93070009 		li	a5,144
 294 0026 6312F506 		bne	a0,a5,.L15
  95:C:/Users/stapi/OneDrive/Desktop/GD32VW553/V1_MQTT_OK/GD32VW55X_Wifi_BLE_SDK/GD32VW55x_RELEASE_V1.0.2/MSDK/cloud/alicloud/src/protocol/mqtt/MQTTPacket\MQTTSubscribeClient.c ****         goto exit;
  96:C:/Users/stapi/OneDrive/Desktop/GD32VW553/V1_MQTT_OK/GD32VW55X_Wifi_BLE_SDK/GD32VW55x_RELEASE_V1.0.2/MSDK/cloud/alicloud/src/protocol/mqtt/MQTTPacket\MQTTSubscribeClient.c ****     }
  97:C:/Users/stapi/OneDrive/Desktop/GD32VW553/V1_MQTT_OK/GD32VW55X_Wifi_BLE_SDK/GD32VW55x_RELEASE_V1.0.2/MSDK/cloud/alicloud/src/protocol/mqtt/MQTTPacket\MQTTSubscribeClient.c **** 
  98:C:/Users/stapi/OneDrive/Desktop/GD32VW553/V1_MQTT_OK/GD32VW55X_Wifi_BLE_SDK/GD32VW55x_RELEASE_V1.0.2/MSDK/cloud/alicloud/src/protocol/mqtt/MQTTPacket\MQTTSubscribeClient.c ****     curdata += (rc = MQTTPacket_decodeBuf(curdata, &mylen)); /* read remaining length */
 295              		.loc 1 98 5 is_stmt 1
 296              		.loc 1 98 22 is_stmt 0
 297 002a 2245     		lw	a0,8(sp)
 298 002c 6C00     		addi	a1,sp,12
 299 002e 97000000 		call	MQTTPacket_decodeBuf
 299      E7800000 
 300              	.LVL30:
 301              		.loc 1 98 13
 302 0036 A247     		lw	a5,8(sp)
  99:C:/Users/stapi/OneDrive/Desktop/GD32VW553/V1_MQTT_OK/GD32VW55X_Wifi_BLE_SDK/GD32VW55x_RELEASE_V1.0.2/MSDK/cloud/alicloud/src/protocol/mqtt/MQTTPacket\MQTTSubscribeClient.c ****     enddata = curdata + mylen;
 303              		.loc 1 99 23
 304 0038 3244     		lw	s0,12(sp)
 100:C:/Users/stapi/OneDrive/Desktop/GD32VW553/V1_MQTT_OK/GD32VW55X_Wifi_BLE_SDK/GD32VW55x_RELEASE_V1.0.2/MSDK/cloud/alicloud/src/protocol/mqtt/MQTTPacket\MQTTSubscribeClient.c ****     if (enddata - curdata < 2) {
 305              		.loc 1 100 8
 306 003a 0547     		li	a4,1
  98:C:/Users/stapi/OneDrive/Desktop/GD32VW553/V1_MQTT_OK/GD32VW55X_Wifi_BLE_SDK/GD32VW55x_RELEASE_V1.0.2/MSDK/cloud/alicloud/src/protocol/mqtt/MQTTPacket\MQTTSubscribeClient.c ****     enddata = curdata + mylen;
 307              		.loc 1 98 13
 308 003c AA97     		add	a5,a5,a0
 309 003e 3EC4     		sw	a5,8(sp)
  99:C:/Users/stapi/OneDrive/Desktop/GD32VW553/V1_MQTT_OK/GD32VW55X_Wifi_BLE_SDK/GD32VW55x_RELEASE_V1.0.2/MSDK/cloud/alicloud/src/protocol/mqtt/MQTTPacket\MQTTSubscribeClient.c ****     enddata = curdata + mylen;
 310              		.loc 1 99 5 is_stmt 1
 311              	.LVL31:
 312              		.loc 1 100 5
 313              		.loc 1 100 8 is_stmt 0
 314 0040 63508702 		ble	s0,a4,.L11
 101:C:/Users/stapi/OneDrive/Desktop/GD32VW553/V1_MQTT_OK/GD32VW55X_Wifi_BLE_SDK/GD32VW55x_RELEASE_V1.0.2/MSDK/cloud/alicloud/src/protocol/mqtt/MQTTPacket\MQTTSubscribeClient.c ****         goto exit;
 102:C:/Users/stapi/OneDrive/Desktop/GD32VW553/V1_MQTT_OK/GD32VW55X_Wifi_BLE_SDK/GD32VW55x_RELEASE_V1.0.2/MSDK/cloud/alicloud/src/protocol/mqtt/MQTTPacket\MQTTSubscribeClient.c ****     }
 103:C:/Users/stapi/OneDrive/Desktop/GD32VW553/V1_MQTT_OK/GD32VW55X_Wifi_BLE_SDK/GD32VW55x_RELEASE_V1.0.2/MSDK/cloud/alicloud/src/protocol/mqtt/MQTTPacket\MQTTSubscribeClient.c **** 
 104:C:/Users/stapi/OneDrive/Desktop/GD32VW553/V1_MQTT_OK/GD32VW55X_Wifi_BLE_SDK/GD32VW55x_RELEASE_V1.0.2/MSDK/cloud/alicloud/src/protocol/mqtt/MQTTPacket\MQTTSubscribeClient.c ****     *packetid = readInt(&curdata);
 315              		.loc 1 104 17
 316 0044 2800     		addi	a0,sp,8
 317              	.LVL32:
  99:C:/Users/stapi/OneDrive/Desktop/GD32VW553/V1_MQTT_OK/GD32VW55X_Wifi_BLE_SDK/GD32VW55x_RELEASE_V1.0.2/MSDK/cloud/alicloud/src/protocol/mqtt/MQTTPacket\MQTTSubscribeClient.c ****     if (enddata - curdata < 2) {
 318              		.loc 1 99 13
 319 0046 3E94     		add	s0,a5,s0
 320              	.LVL33:
 321              		.loc 1 104 5 is_stmt 1
 322              		.loc 1 104 17 is_stmt 0
 323 0048 97000000 		call	readInt
 323      E7800000 
 324              	.LVL34:
 325              		.loc 1 104 15
 326 0050 2310AA00 		sh	a0,0(s4)
 105:C:/Users/stapi/OneDrive/Desktop/GD32VW553/V1_MQTT_OK/GD32VW55X_Wifi_BLE_SDK/GD32VW55x_RELEASE_V1.0.2/MSDK/cloud/alicloud/src/protocol/mqtt/MQTTPacket\MQTTSubscribeClient.c **** 
 106:C:/Users/stapi/OneDrive/Desktop/GD32VW553/V1_MQTT_OK/GD32VW55X_Wifi_BLE_SDK/GD32VW55x_RELEASE_V1.0.2/MSDK/cloud/alicloud/src/protocol/mqtt/MQTTPacket\MQTTSubscribeClient.c ****     *count = 0;
 327              		.loc 1 106 5 is_stmt 1
 328              		.loc 1 106 12 is_stmt 0
 329 0054 23A00400 		sw	zero,0(s1)
 107:C:/Users/stapi/OneDrive/Desktop/GD32VW553/V1_MQTT_OK/GD32VW55X_Wifi_BLE_SDK/GD32VW55x_RELEASE_V1.0.2/MSDK/cloud/alicloud/src/protocol/mqtt/MQTTPacket\MQTTSubscribeClient.c ****     while (curdata < enddata) {
 330              		.loc 1 107 5 is_stmt 1
 331              	.L13:
 332              		.loc 1 107 11
 333 0058 A247     		lw	a5,8(sp)
 334 005a 63E88700 		bltu	a5,s0,.L14
 108:C:/Users/stapi/OneDrive/Desktop/GD32VW553/V1_MQTT_OK/GD32VW55X_Wifi_BLE_SDK/GD32VW55x_RELEASE_V1.0.2/MSDK/cloud/alicloud/src/protocol/mqtt/MQTTPacket\MQTTSubscribeClient.c ****         if (*count > maxcount) {
 109:C:/Users/stapi/OneDrive/Desktop/GD32VW553/V1_MQTT_OK/GD32VW55X_Wifi_BLE_SDK/GD32VW55x_RELEASE_V1.0.2/MSDK/cloud/alicloud/src/protocol/mqtt/MQTTPacket\MQTTSubscribeClient.c ****             rc = -1;
 110:C:/Users/stapi/OneDrive/Desktop/GD32VW553/V1_MQTT_OK/GD32VW55X_Wifi_BLE_SDK/GD32VW55x_RELEASE_V1.0.2/MSDK/cloud/alicloud/src/protocol/mqtt/MQTTPacket\MQTTSubscribeClient.c ****             goto exit;
 111:C:/Users/stapi/OneDrive/Desktop/GD32VW553/V1_MQTT_OK/GD32VW55X_Wifi_BLE_SDK/GD32VW55x_RELEASE_V1.0.2/MSDK/cloud/alicloud/src/protocol/mqtt/MQTTPacket\MQTTSubscribeClient.c ****         }
 112:C:/Users/stapi/OneDrive/Desktop/GD32VW553/V1_MQTT_OK/GD32VW55X_Wifi_BLE_SDK/GD32VW55x_RELEASE_V1.0.2/MSDK/cloud/alicloud/src/protocol/mqtt/MQTTPacket\MQTTSubscribeClient.c ****         grantedQoSs[(*count)++] = readChar(&curdata);
 113:C:/Users/stapi/OneDrive/Desktop/GD32VW553/V1_MQTT_OK/GD32VW55X_Wifi_BLE_SDK/GD32VW55x_RELEASE_V1.0.2/MSDK/cloud/alicloud/src/protocol/mqtt/MQTTPacket\MQTTSubscribeClient.c ****     }
 114:C:/Users/stapi/OneDrive/Desktop/GD32VW553/V1_MQTT_OK/GD32VW55X_Wifi_BLE_SDK/GD32VW55x_RELEASE_V1.0.2/MSDK/cloud/alicloud/src/protocol/mqtt/MQTTPacket\MQTTSubscribeClient.c **** 
 115:C:/Users/stapi/OneDrive/Desktop/GD32VW553/V1_MQTT_OK/GD32VW55X_Wifi_BLE_SDK/GD32VW55x_RELEASE_V1.0.2/MSDK/cloud/alicloud/src/protocol/mqtt/MQTTPacket\MQTTSubscribeClient.c ****     rc = 1;
 335              		.loc 1 115 8 is_stmt 0
 336 005e 0545     		li	a0,1
 337              	.L11:
 116:C:/Users/stapi/OneDrive/Desktop/GD32VW553/V1_MQTT_OK/GD32VW55X_Wifi_BLE_SDK/GD32VW55x_RELEASE_V1.0.2/MSDK/cloud/alicloud/src/protocol/mqtt/MQTTPacket\MQTTSubscribeClient.c **** exit:
 117:C:/Users/stapi/OneDrive/Desktop/GD32VW553/V1_MQTT_OK/GD32VW55X_Wifi_BLE_SDK/GD32VW55x_RELEASE_V1.0.2/MSDK/cloud/alicloud/src/protocol/mqtt/MQTTPacket\MQTTSubscribeClient.c ****     return rc;
 118:C:/Users/stapi/OneDrive/Desktop/GD32VW553/V1_MQTT_OK/GD32VW55X_Wifi_BLE_SDK/GD32VW55x_RELEASE_V1.0.2/MSDK/cloud/alicloud/src/protocol/mqtt/MQTTPacket\MQTTSubscribeClient.c **** }
 338              		.loc 1 118 1
 339 0060 4101     		addi	sp,sp,16
 340              		.cfi_remember_state
 341              		.cfi_def_cfa_offset 0
 342 0062 17030000 		tail	__riscv_restore_5
 342      67000300 
 343              		.cfi_restore 20
 344              		.cfi_restore 19
 345              		.cfi_restore 18
 346              		.cfi_restore 9
 347              		.cfi_restore 8
 348              		.cfi_restore 1
 349              		.cfi_def_cfa_offset -32
 350              	.L14:
 351              		.cfi_restore_state
 108:C:/Users/stapi/OneDrive/Desktop/GD32VW553/V1_MQTT_OK/GD32VW55X_Wifi_BLE_SDK/GD32VW55x_RELEASE_V1.0.2/MSDK/cloud/alicloud/src/protocol/mqtt/MQTTPacket\MQTTSubscribeClient.c ****         if (*count > maxcount) {
 352              		.loc 1 108 9 is_stmt 1
 108:C:/Users/stapi/OneDrive/Desktop/GD32VW553/V1_MQTT_OK/GD32VW55X_Wifi_BLE_SDK/GD32VW55x_RELEASE_V1.0.2/MSDK/cloud/alicloud/src/protocol/mqtt/MQTTPacket\MQTTSubscribeClient.c ****         if (*count > maxcount) {
 353              		.loc 1 108 12 is_stmt 0
 354 006a 9C40     		lw	a5,0(s1)
 355 006c 6341F902 		bgt	a5,s2,.L16
 112:C:/Users/stapi/OneDrive/Desktop/GD32VW553/V1_MQTT_OK/GD32VW55X_Wifi_BLE_SDK/GD32VW55x_RELEASE_V1.0.2/MSDK/cloud/alicloud/src/protocol/mqtt/MQTTPacket\MQTTSubscribeClient.c ****     }
 356              		.loc 1 112 9 is_stmt 1
 112:C:/Users/stapi/OneDrive/Desktop/GD32VW553/V1_MQTT_OK/GD32VW55X_Wifi_BLE_SDK/GD32VW55x_RELEASE_V1.0.2/MSDK/cloud/alicloud/src/protocol/mqtt/MQTTPacket\MQTTSubscribeClient.c ****     }
 357              		.loc 1 112 35 is_stmt 0
 358 0070 2800     		addi	a0,sp,8
 359 0072 97000000 		call	readChar
 359      E7800000 
 360              	.LVL35:
 112:C:/Users/stapi/OneDrive/Desktop/GD32VW553/V1_MQTT_OK/GD32VW55X_Wifi_BLE_SDK/GD32VW55x_RELEASE_V1.0.2/MSDK/cloud/alicloud/src/protocol/mqtt/MQTTPacket\MQTTSubscribeClient.c ****     }
 361              		.loc 1 112 22
 362 007a 9C40     		lw	a5,0(s1)
 112:C:/Users/stapi/OneDrive/Desktop/GD32VW553/V1_MQTT_OK/GD32VW55X_Wifi_BLE_SDK/GD32VW55x_RELEASE_V1.0.2/MSDK/cloud/alicloud/src/protocol/mqtt/MQTTPacket\MQTTSubscribeClient.c ****     }
 363              		.loc 1 112 29
 364 007c 13871700 		addi	a4,a5,1
 365 0080 98C0     		sw	a4,0(s1)
 112:C:/Users/stapi/OneDrive/Desktop/GD32VW553/V1_MQTT_OK/GD32VW55X_Wifi_BLE_SDK/GD32VW55x_RELEASE_V1.0.2/MSDK/cloud/alicloud/src/protocol/mqtt/MQTTPacket\MQTTSubscribeClient.c ****     }
 366              		.loc 1 112 33
 367 0082 B3C73721 		sh2add	a5,a5,s3
 112:C:/Users/stapi/OneDrive/Desktop/GD32VW553/V1_MQTT_OK/GD32VW55X_Wifi_BLE_SDK/GD32VW55x_RELEASE_V1.0.2/MSDK/cloud/alicloud/src/protocol/mqtt/MQTTPacket\MQTTSubscribeClient.c ****     }
 368              		.loc 1 112 35
 369 0086 88C3     		sw	a0,0(a5)
 370 0088 C1BF     		j	.L13
 371              	.LVL36:
 372              	.L15:
  90:C:/Users/stapi/OneDrive/Desktop/GD32VW553/V1_MQTT_OK/GD32VW55X_Wifi_BLE_SDK/GD32VW55x_RELEASE_V1.0.2/MSDK/cloud/alicloud/src/protocol/mqtt/MQTTPacket\MQTTSubscribeClient.c ****     int mylen;
 373              		.loc 1 90 9
 374 008a 0145     		li	a0,0
 375 008c D1BF     		j	.L11
 376              	.LVL37:
 377              	.L16:
 378              	.L12:
 117:C:/Users/stapi/OneDrive/Desktop/GD32VW553/V1_MQTT_OK/GD32VW55X_Wifi_BLE_SDK/GD32VW55x_RELEASE_V1.0.2/MSDK/cloud/alicloud/src/protocol/mqtt/MQTTPacket\MQTTSubscribeClient.c **** }
 379              		.loc 1 117 5 is_stmt 1
 109:C:/Users/stapi/OneDrive/Desktop/GD32VW553/V1_MQTT_OK/GD32VW55X_Wifi_BLE_SDK/GD32VW55x_RELEASE_V1.0.2/MSDK/cloud/alicloud/src/protocol/mqtt/MQTTPacket\MQTTSubscribeClient.c ****             goto exit;
 380              		.loc 1 109 16 is_stmt 0
 381 008e 7D55     		li	a0,-1
 117:C:/Users/stapi/OneDrive/Desktop/GD32VW553/V1_MQTT_OK/GD32VW55X_Wifi_BLE_SDK/GD32VW55x_RELEASE_V1.0.2/MSDK/cloud/alicloud/src/protocol/mqtt/MQTTPacket\MQTTSubscribeClient.c **** }
 382              		.loc 1 117 12
 383 0090 C1BF     		j	.L11
 384              		.cfi_endproc
 385              	.LFE3:
 387              		.text
 388              	.Letext0:
 389              		.file 2 "C:/Users/stapi/OneDrive/Desktop/GD32VW553/V1_MQTT_OK/GD32VW55X_Wifi_BLE_SDK/GD32VW55x_REL
 390              		.file 3 "<built-in>"