   1              		.file	"MQTTUnsubscribeClient.c"
   2              		.option nopic
   3              		.attribute arch, "rv32i2p0_m2p0_a2p0_f2p0_c2p0_b_p0p94"
   4              		.attribute unaligned_access, 0
   5              		.attribute stack_align, 16
   6              		.text
   7              	.Ltext0:
   8              		.cfi_sections	.debug_frame
   9              		.section	.text.MQTTSerialize_unsubscribeLength,"ax",@progbits
  10              		.align	1
  11              		.globl	MQTTSerialize_unsubscribeLength
  13              	MQTTSerialize_unsubscribeLength:
  14              	.LFB1:
  15              		.file 1 "C:/Users/stapi/OneDrive/Desktop/GD32VW553/V1_MQTT_OK/GD32VW55X_Wifi_BLE_SDK/GD32VW55x_REL
   1:C:/Users/stapi/OneDrive/Desktop/GD32VW553/V1_MQTT_OK/GD32VW55X_Wifi_BLE_SDK/GD32VW55x_RELEASE_V1.0.2/MSDK/cloud/alicloud/src/protocol/mqtt/MQTTPacket\MQTTUnsubscribeClient.c **** /*
   2:C:/Users/stapi/OneDrive/Desktop/GD32VW553/V1_MQTT_OK/GD32VW55X_Wifi_BLE_SDK/GD32VW55x_RELEASE_V1.0.2/MSDK/cloud/alicloud/src/protocol/mqtt/MQTTPacket\MQTTUnsubscribeClient.c ****  * Copyright (C) 2015-2018 Alibaba Group Holding Limited
   3:C:/Users/stapi/OneDrive/Desktop/GD32VW553/V1_MQTT_OK/GD32VW55X_Wifi_BLE_SDK/GD32VW55x_RELEASE_V1.0.2/MSDK/cloud/alicloud/src/protocol/mqtt/MQTTPacket\MQTTUnsubscribeClient.c ****  */
   4:C:/Users/stapi/OneDrive/Desktop/GD32VW553/V1_MQTT_OK/GD32VW55X_Wifi_BLE_SDK/GD32VW55x_RELEASE_V1.0.2/MSDK/cloud/alicloud/src/protocol/mqtt/MQTTPacket\MQTTUnsubscribeClient.c **** 
   5:C:/Users/stapi/OneDrive/Desktop/GD32VW553/V1_MQTT_OK/GD32VW55X_Wifi_BLE_SDK/GD32VW55x_RELEASE_V1.0.2/MSDK/cloud/alicloud/src/protocol/mqtt/MQTTPacket\MQTTUnsubscribeClient.c **** #include "MQTTPacket.h"
   6:C:/Users/stapi/OneDrive/Desktop/GD32VW553/V1_MQTT_OK/GD32VW55X_Wifi_BLE_SDK/GD32VW55x_RELEASE_V1.0.2/MSDK/cloud/alicloud/src/protocol/mqtt/MQTTPacket\MQTTUnsubscribeClient.c **** 
   7:C:/Users/stapi/OneDrive/Desktop/GD32VW553/V1_MQTT_OK/GD32VW55X_Wifi_BLE_SDK/GD32VW55x_RELEASE_V1.0.2/MSDK/cloud/alicloud/src/protocol/mqtt/MQTTPacket\MQTTUnsubscribeClient.c **** #include <string.h>
   8:C:/Users/stapi/OneDrive/Desktop/GD32VW553/V1_MQTT_OK/GD32VW55X_Wifi_BLE_SDK/GD32VW55x_RELEASE_V1.0.2/MSDK/cloud/alicloud/src/protocol/mqtt/MQTTPacket\MQTTUnsubscribeClient.c **** 
   9:C:/Users/stapi/OneDrive/Desktop/GD32VW553/V1_MQTT_OK/GD32VW55X_Wifi_BLE_SDK/GD32VW55x_RELEASE_V1.0.2/MSDK/cloud/alicloud/src/protocol/mqtt/MQTTPacket\MQTTUnsubscribeClient.c **** /**
  10:C:/Users/stapi/OneDrive/Desktop/GD32VW553/V1_MQTT_OK/GD32VW55X_Wifi_BLE_SDK/GD32VW55x_RELEASE_V1.0.2/MSDK/cloud/alicloud/src/protocol/mqtt/MQTTPacket\MQTTUnsubscribeClient.c ****   * Determines the length of the MQTT unsubscribe packet that would be produced using the supplied 
  11:C:/Users/stapi/OneDrive/Desktop/GD32VW553/V1_MQTT_OK/GD32VW55X_Wifi_BLE_SDK/GD32VW55x_RELEASE_V1.0.2/MSDK/cloud/alicloud/src/protocol/mqtt/MQTTPacket\MQTTUnsubscribeClient.c ****   * @param count the number of topic filter strings in topicFilters
  12:C:/Users/stapi/OneDrive/Desktop/GD32VW553/V1_MQTT_OK/GD32VW55X_Wifi_BLE_SDK/GD32VW55x_RELEASE_V1.0.2/MSDK/cloud/alicloud/src/protocol/mqtt/MQTTPacket\MQTTUnsubscribeClient.c ****   * @param topicFilters the array of topic filter strings to be used in the publish
  13:C:/Users/stapi/OneDrive/Desktop/GD32VW553/V1_MQTT_OK/GD32VW55X_Wifi_BLE_SDK/GD32VW55x_RELEASE_V1.0.2/MSDK/cloud/alicloud/src/protocol/mqtt/MQTTPacket\MQTTUnsubscribeClient.c ****   * @return the length of buffer needed to contain the serialized version of the packet
  14:C:/Users/stapi/OneDrive/Desktop/GD32VW553/V1_MQTT_OK/GD32VW55X_Wifi_BLE_SDK/GD32VW55x_RELEASE_V1.0.2/MSDK/cloud/alicloud/src/protocol/mqtt/MQTTPacket\MQTTUnsubscribeClient.c ****   */
  15:C:/Users/stapi/OneDrive/Desktop/GD32VW553/V1_MQTT_OK/GD32VW55X_Wifi_BLE_SDK/GD32VW55x_RELEASE_V1.0.2/MSDK/cloud/alicloud/src/protocol/mqtt/MQTTPacket\MQTTUnsubscribeClient.c **** int MQTTSerialize_unsubscribeLength(int count, MQTTString topicFilters[])
  16:C:/Users/stapi/OneDrive/Desktop/GD32VW553/V1_MQTT_OK/GD32VW55X_Wifi_BLE_SDK/GD32VW55x_RELEASE_V1.0.2/MSDK/cloud/alicloud/src/protocol/mqtt/MQTTPacket\MQTTUnsubscribeClient.c **** {
  16              		.loc 1 16 1
  17              		.cfi_startproc
  18              	.LVL0:
  19 0000 17030000 		call	t0,__riscv_save_5
  19      E7020300 
  20              		.cfi_offset 20, -24
  21              		.cfi_offset 19, -20
  22              		.cfi_offset 18, -16
  23              		.cfi_offset 9, -12
  24              		.cfi_offset 8, -8
  25              		.cfi_offset 1, -4
  26              		.cfi_def_cfa_offset 32
  17:C:/Users/stapi/OneDrive/Desktop/GD32VW553/V1_MQTT_OK/GD32VW55X_Wifi_BLE_SDK/GD32VW55x_RELEASE_V1.0.2/MSDK/cloud/alicloud/src/protocol/mqtt/MQTTPacket\MQTTUnsubscribeClient.c **** 	int i;
  27              		.loc 1 17 2
  18:C:/Users/stapi/OneDrive/Desktop/GD32VW553/V1_MQTT_OK/GD32VW55X_Wifi_BLE_SDK/GD32VW55x_RELEASE_V1.0.2/MSDK/cloud/alicloud/src/protocol/mqtt/MQTTPacket\MQTTUnsubscribeClient.c **** 	int len = 2; /* packetid */
  28              		.loc 1 18 2
  29              	.LVL1:
  19:C:/Users/stapi/OneDrive/Desktop/GD32VW553/V1_MQTT_OK/GD32VW55X_Wifi_BLE_SDK/GD32VW55x_RELEASE_V1.0.2/MSDK/cloud/alicloud/src/protocol/mqtt/MQTTPacket\MQTTUnsubscribeClient.c **** 
  20:C:/Users/stapi/OneDrive/Desktop/GD32VW553/V1_MQTT_OK/GD32VW55X_Wifi_BLE_SDK/GD32VW55x_RELEASE_V1.0.2/MSDK/cloud/alicloud/src/protocol/mqtt/MQTTPacket\MQTTUnsubscribeClient.c **** 	for (i = 0; i < count; ++i)
  30              		.loc 1 20 2
  16:C:/Users/stapi/OneDrive/Desktop/GD32VW553/V1_MQTT_OK/GD32VW55X_Wifi_BLE_SDK/GD32VW55x_RELEASE_V1.0.2/MSDK/cloud/alicloud/src/protocol/mqtt/MQTTPacket\MQTTUnsubscribeClient.c **** 	int i;
  31              		.loc 1 16 1 is_stmt 0
  32 0008 4111     		addi	sp,sp,-16
  33              		.cfi_def_cfa_offset 48
  16:C:/Users/stapi/OneDrive/Desktop/GD32VW553/V1_MQTT_OK/GD32VW55X_Wifi_BLE_SDK/GD32VW55x_RELEASE_V1.0.2/MSDK/cloud/alicloud/src/protocol/mqtt/MQTTPacket\MQTTUnsubscribeClient.c **** 	int i;
  34              		.loc 1 16 1
  35 000a 2A89     		mv	s2,a0
  36 000c AE89     		mv	s3,a1
  18:C:/Users/stapi/OneDrive/Desktop/GD32VW553/V1_MQTT_OK/GD32VW55X_Wifi_BLE_SDK/GD32VW55x_RELEASE_V1.0.2/MSDK/cloud/alicloud/src/protocol/mqtt/MQTTPacket\MQTTUnsubscribeClient.c **** 	int len = 2; /* packetid */
  37              		.loc 1 18 6
  38 000e 8944     		li	s1,2
  39              		.loc 1 20 9
  40 0010 0144     		li	s0,0
  21:C:/Users/stapi/OneDrive/Desktop/GD32VW553/V1_MQTT_OK/GD32VW55X_Wifi_BLE_SDK/GD32VW55x_RELEASE_V1.0.2/MSDK/cloud/alicloud/src/protocol/mqtt/MQTTPacket\MQTTUnsubscribeClient.c **** 		len += 2 + MQTTstrlen(topicFilters[i]); /* length + topic*/
  41              		.loc 1 21 14
  42 0012 314A     		li	s4,12
  43              	.LVL2:
  44              	.L2:
  20:C:/Users/stapi/OneDrive/Desktop/GD32VW553/V1_MQTT_OK/GD32VW55X_Wifi_BLE_SDK/GD32VW55x_RELEASE_V1.0.2/MSDK/cloud/alicloud/src/protocol/mqtt/MQTTPacket\MQTTUnsubscribeClient.c **** 		len += 2 + MQTTstrlen(topicFilters[i]); /* length + topic*/
  45              		.loc 1 20 14 is_stmt 1 discriminator 1
  20:C:/Users/stapi/OneDrive/Desktop/GD32VW553/V1_MQTT_OK/GD32VW55X_Wifi_BLE_SDK/GD32VW55x_RELEASE_V1.0.2/MSDK/cloud/alicloud/src/protocol/mqtt/MQTTPacket\MQTTUnsubscribeClient.c **** 		len += 2 + MQTTstrlen(topicFilters[i]); /* length + topic*/
  46              		.loc 1 20 2 is_stmt 0 discriminator 1
  47 0014 63482401 		blt	s0,s2,.L3
  22:C:/Users/stapi/OneDrive/Desktop/GD32VW553/V1_MQTT_OK/GD32VW55X_Wifi_BLE_SDK/GD32VW55x_RELEASE_V1.0.2/MSDK/cloud/alicloud/src/protocol/mqtt/MQTTPacket\MQTTUnsubscribeClient.c **** 	return len;
  48              		.loc 1 22 2 is_stmt 1
  23:C:/Users/stapi/OneDrive/Desktop/GD32VW553/V1_MQTT_OK/GD32VW55X_Wifi_BLE_SDK/GD32VW55x_RELEASE_V1.0.2/MSDK/cloud/alicloud/src/protocol/mqtt/MQTTPacket\MQTTUnsubscribeClient.c **** }
  49              		.loc 1 23 1 is_stmt 0
  50 0018 2685     		mv	a0,s1
  51 001a 4101     		addi	sp,sp,16
  52              		.cfi_remember_state
  53              		.cfi_def_cfa_offset 0
  54 001c 17030000 		tail	__riscv_restore_5
  54      67000300 
  55              		.cfi_restore 20
  56              		.cfi_restore 19
  57              		.cfi_restore 18
  58              		.cfi_restore 9
  59              		.cfi_restore 8
  60              		.cfi_restore 1
  61              		.cfi_def_cfa_offset -32
  62              	.L3:
  63              		.cfi_restore_state
  21:C:/Users/stapi/OneDrive/Desktop/GD32VW553/V1_MQTT_OK/GD32VW55X_Wifi_BLE_SDK/GD32VW55x_RELEASE_V1.0.2/MSDK/cloud/alicloud/src/protocol/mqtt/MQTTPacket\MQTTUnsubscribeClient.c **** 	return len;
  64              		.loc 1 21 3 is_stmt 1 discriminator 3
  21:C:/Users/stapi/OneDrive/Desktop/GD32VW553/V1_MQTT_OK/GD32VW55X_Wifi_BLE_SDK/GD32VW55x_RELEASE_V1.0.2/MSDK/cloud/alicloud/src/protocol/mqtt/MQTTPacket\MQTTUnsubscribeClient.c **** 	return len;
  65              		.loc 1 21 14 is_stmt 0 discriminator 3
  66 0024 3146     		li	a2,12
  67 0026 CE85     		mv	a1,s3
  68 0028 0A85     		mv	a0,sp
  69 002a FF1544C5 		maddr32	a1, s0, s4
  70 002e 97000000 		call	memcpy
  70      E7800000 
  71              	.LVL3:
  72 0036 0A85     		mv	a0,sp
  73 0038 97000000 		call	MQTTstrlen
  73      E7800000 
  74              	.LVL4:
  21:C:/Users/stapi/OneDrive/Desktop/GD32VW553/V1_MQTT_OK/GD32VW55X_Wifi_BLE_SDK/GD32VW55x_RELEASE_V1.0.2/MSDK/cloud/alicloud/src/protocol/mqtt/MQTTPacket\MQTTUnsubscribeClient.c **** 	return len;
  75              		.loc 1 21 12 discriminator 3
  76 0040 0905     		addi	a0,a0,2
  21:C:/Users/stapi/OneDrive/Desktop/GD32VW553/V1_MQTT_OK/GD32VW55X_Wifi_BLE_SDK/GD32VW55x_RELEASE_V1.0.2/MSDK/cloud/alicloud/src/protocol/mqtt/MQTTPacket\MQTTUnsubscribeClient.c **** 	return len;
  77              		.loc 1 21 7 discriminator 3
  78 0042 AA94     		add	s1,s1,a0
  79              	.LVL5:
  20:C:/Users/stapi/OneDrive/Desktop/GD32VW553/V1_MQTT_OK/GD32VW55X_Wifi_BLE_SDK/GD32VW55x_RELEASE_V1.0.2/MSDK/cloud/alicloud/src/protocol/mqtt/MQTTPacket\MQTTUnsubscribeClient.c **** 		len += 2 + MQTTstrlen(topicFilters[i]); /* length + topic*/
  80              		.loc 1 20 25 is_stmt 1 discriminator 3
  81 0044 0504     		addi	s0,s0,1
  82              	.LVL6:
  83 0046 F9B7     		j	.L2
  84              		.cfi_endproc
  85              	.LFE1:
  87              		.section	.text.MQTTSerialize_unsubscribe,"ax",@progbits
  88              		.align	1
  89              		.globl	MQTTSerialize_unsubscribe
  91              	MQTTSerialize_unsubscribe:
  92              	.LFB2:
  24:C:/Users/stapi/OneDrive/Desktop/GD32VW553/V1_MQTT_OK/GD32VW55X_Wifi_BLE_SDK/GD32VW55x_RELEASE_V1.0.2/MSDK/cloud/alicloud/src/protocol/mqtt/MQTTPacket\MQTTUnsubscribeClient.c **** 
  25:C:/Users/stapi/OneDrive/Desktop/GD32VW553/V1_MQTT_OK/GD32VW55X_Wifi_BLE_SDK/GD32VW55x_RELEASE_V1.0.2/MSDK/cloud/alicloud/src/protocol/mqtt/MQTTPacket\MQTTUnsubscribeClient.c **** 
  26:C:/Users/stapi/OneDrive/Desktop/GD32VW553/V1_MQTT_OK/GD32VW55X_Wifi_BLE_SDK/GD32VW55x_RELEASE_V1.0.2/MSDK/cloud/alicloud/src/protocol/mqtt/MQTTPacket\MQTTUnsubscribeClient.c **** /**
  27:C:/Users/stapi/OneDrive/Desktop/GD32VW553/V1_MQTT_OK/GD32VW55X_Wifi_BLE_SDK/GD32VW55x_RELEASE_V1.0.2/MSDK/cloud/alicloud/src/protocol/mqtt/MQTTPacket\MQTTUnsubscribeClient.c ****   * Serializes the supplied unsubscribe data into the supplied buffer, ready for sending
  28:C:/Users/stapi/OneDrive/Desktop/GD32VW553/V1_MQTT_OK/GD32VW55X_Wifi_BLE_SDK/GD32VW55x_RELEASE_V1.0.2/MSDK/cloud/alicloud/src/protocol/mqtt/MQTTPacket\MQTTUnsubscribeClient.c ****   * @param buf the raw buffer data, of the correct length determined by the remaining length field
  29:C:/Users/stapi/OneDrive/Desktop/GD32VW553/V1_MQTT_OK/GD32VW55X_Wifi_BLE_SDK/GD32VW55x_RELEASE_V1.0.2/MSDK/cloud/alicloud/src/protocol/mqtt/MQTTPacket\MQTTUnsubscribeClient.c ****   * @param buflen the length in bytes of the data in the supplied buffer
  30:C:/Users/stapi/OneDrive/Desktop/GD32VW553/V1_MQTT_OK/GD32VW55X_Wifi_BLE_SDK/GD32VW55x_RELEASE_V1.0.2/MSDK/cloud/alicloud/src/protocol/mqtt/MQTTPacket\MQTTUnsubscribeClient.c ****   * @param dup integer - the MQTT dup flag
  31:C:/Users/stapi/OneDrive/Desktop/GD32VW553/V1_MQTT_OK/GD32VW55X_Wifi_BLE_SDK/GD32VW55x_RELEASE_V1.0.2/MSDK/cloud/alicloud/src/protocol/mqtt/MQTTPacket\MQTTUnsubscribeClient.c ****   * @param packetid integer - the MQTT packet identifier
  32:C:/Users/stapi/OneDrive/Desktop/GD32VW553/V1_MQTT_OK/GD32VW55X_Wifi_BLE_SDK/GD32VW55x_RELEASE_V1.0.2/MSDK/cloud/alicloud/src/protocol/mqtt/MQTTPacket\MQTTUnsubscribeClient.c ****   * @param count - number of members in the topicFilters array
  33:C:/Users/stapi/OneDrive/Desktop/GD32VW553/V1_MQTT_OK/GD32VW55X_Wifi_BLE_SDK/GD32VW55x_RELEASE_V1.0.2/MSDK/cloud/alicloud/src/protocol/mqtt/MQTTPacket\MQTTUnsubscribeClient.c ****   * @param topicFilters - array of topic filter names
  34:C:/Users/stapi/OneDrive/Desktop/GD32VW553/V1_MQTT_OK/GD32VW55X_Wifi_BLE_SDK/GD32VW55x_RELEASE_V1.0.2/MSDK/cloud/alicloud/src/protocol/mqtt/MQTTPacket\MQTTUnsubscribeClient.c ****   * @return the length of the serialized data.  <= 0 indicates error
  35:C:/Users/stapi/OneDrive/Desktop/GD32VW553/V1_MQTT_OK/GD32VW55X_Wifi_BLE_SDK/GD32VW55x_RELEASE_V1.0.2/MSDK/cloud/alicloud/src/protocol/mqtt/MQTTPacket\MQTTUnsubscribeClient.c ****   */
  36:C:/Users/stapi/OneDrive/Desktop/GD32VW553/V1_MQTT_OK/GD32VW55X_Wifi_BLE_SDK/GD32VW55x_RELEASE_V1.0.2/MSDK/cloud/alicloud/src/protocol/mqtt/MQTTPacket\MQTTUnsubscribeClient.c **** int MQTTSerialize_unsubscribe(unsigned char* buf, int buflen, unsigned char dup, unsigned short pac
  37:C:/Users/stapi/OneDrive/Desktop/GD32VW553/V1_MQTT_OK/GD32VW55X_Wifi_BLE_SDK/GD32VW55x_RELEASE_V1.0.2/MSDK/cloud/alicloud/src/protocol/mqtt/MQTTPacket\MQTTUnsubscribeClient.c **** 		int count, MQTTString topicFilters[])
  38:C:/Users/stapi/OneDrive/Desktop/GD32VW553/V1_MQTT_OK/GD32VW55X_Wifi_BLE_SDK/GD32VW55x_RELEASE_V1.0.2/MSDK/cloud/alicloud/src/protocol/mqtt/MQTTPacket\MQTTUnsubscribeClient.c **** {
  93              		.loc 1 38 1
  94              		.cfi_startproc
  95              	.LVL7:
  96 0000 17030000 		call	t0,__riscv_save_7
  96      E7020300 
  97              		.cfi_offset 22, -32
  98              		.cfi_offset 21, -28
  99              		.cfi_offset 20, -24
 100              		.cfi_offset 19, -20
 101              		.cfi_offset 18, -16
 102              		.cfi_offset 9, -12
 103              		.cfi_offset 8, -8
 104              		.cfi_offset 1, -4
 105              		.cfi_def_cfa_offset 32
  39:C:/Users/stapi/OneDrive/Desktop/GD32VW553/V1_MQTT_OK/GD32VW55X_Wifi_BLE_SDK/GD32VW55x_RELEASE_V1.0.2/MSDK/cloud/alicloud/src/protocol/mqtt/MQTTPacket\MQTTUnsubscribeClient.c **** 	unsigned char *ptr = buf;
 106              		.loc 1 39 2
  38:C:/Users/stapi/OneDrive/Desktop/GD32VW553/V1_MQTT_OK/GD32VW55X_Wifi_BLE_SDK/GD32VW55x_RELEASE_V1.0.2/MSDK/cloud/alicloud/src/protocol/mqtt/MQTTPacket\MQTTUnsubscribeClient.c **** 	unsigned char *ptr = buf;
 107              		.loc 1 38 1 is_stmt 0
 108 0008 0111     		addi	sp,sp,-32
 109              		.cfi_def_cfa_offset 64
  38:C:/Users/stapi/OneDrive/Desktop/GD32VW553/V1_MQTT_OK/GD32VW55X_Wifi_BLE_SDK/GD32VW55x_RELEASE_V1.0.2/MSDK/cloud/alicloud/src/protocol/mqtt/MQTTPacket\MQTTUnsubscribeClient.c **** 	unsigned char *ptr = buf;
 110              		.loc 1 38 1
 111 000a 2E8B     		mv	s6,a1
 112              		.loc 1 39 17
 113 000c 2ACE     		sw	a0,28(sp)
  40:C:/Users/stapi/OneDrive/Desktop/GD32VW553/V1_MQTT_OK/GD32VW55X_Wifi_BLE_SDK/GD32VW55x_RELEASE_V1.0.2/MSDK/cloud/alicloud/src/protocol/mqtt/MQTTPacket\MQTTUnsubscribeClient.c **** 	MQTTHeader header = {0};
 114              		.loc 1 40 2 is_stmt 1
  41:C:/Users/stapi/OneDrive/Desktop/GD32VW553/V1_MQTT_OK/GD32VW55X_Wifi_BLE_SDK/GD32VW55x_RELEASE_V1.0.2/MSDK/cloud/alicloud/src/protocol/mqtt/MQTTPacket\MQTTUnsubscribeClient.c **** 	int rem_len = 0;
 115              		.loc 1 41 2
 116              	.LVL8:
  42:C:/Users/stapi/OneDrive/Desktop/GD32VW553/V1_MQTT_OK/GD32VW55X_Wifi_BLE_SDK/GD32VW55x_RELEASE_V1.0.2/MSDK/cloud/alicloud/src/protocol/mqtt/MQTTPacket\MQTTUnsubscribeClient.c **** 	int rc = -1;
 117              		.loc 1 42 2
  43:C:/Users/stapi/OneDrive/Desktop/GD32VW553/V1_MQTT_OK/GD32VW55X_Wifi_BLE_SDK/GD32VW55x_RELEASE_V1.0.2/MSDK/cloud/alicloud/src/protocol/mqtt/MQTTPacket\MQTTUnsubscribeClient.c **** 	int i = 0;
 118              		.loc 1 43 2
  44:C:/Users/stapi/OneDrive/Desktop/GD32VW553/V1_MQTT_OK/GD32VW55X_Wifi_BLE_SDK/GD32VW55x_RELEASE_V1.0.2/MSDK/cloud/alicloud/src/protocol/mqtt/MQTTPacket\MQTTUnsubscribeClient.c **** 
  45:C:/Users/stapi/OneDrive/Desktop/GD32VW553/V1_MQTT_OK/GD32VW55X_Wifi_BLE_SDK/GD32VW55x_RELEASE_V1.0.2/MSDK/cloud/alicloud/src/protocol/mqtt/MQTTPacket\MQTTUnsubscribeClient.c **** 	if (MQTTPacket_len(rem_len = MQTTSerialize_unsubscribeLength(count, topicFilters)) > buflen)
 119              		.loc 1 45 2
  38:C:/Users/stapi/OneDrive/Desktop/GD32VW553/V1_MQTT_OK/GD32VW55X_Wifi_BLE_SDK/GD32VW55x_RELEASE_V1.0.2/MSDK/cloud/alicloud/src/protocol/mqtt/MQTTPacket\MQTTUnsubscribeClient.c **** 	unsigned char *ptr = buf;
 120              		.loc 1 38 1 is_stmt 0
 121 000e AA84     		mv	s1,a0
 122              		.loc 1 45 31
 123 0010 BE85     		mv	a1,a5
 124              	.LVL9:
 125 0012 3A85     		mv	a0,a4
 126              	.LVL10:
  38:C:/Users/stapi/OneDrive/Desktop/GD32VW553/V1_MQTT_OK/GD32VW55X_Wifi_BLE_SDK/GD32VW55x_RELEASE_V1.0.2/MSDK/cloud/alicloud/src/protocol/mqtt/MQTTPacket\MQTTUnsubscribeClient.c **** 	unsigned char *ptr = buf;
 127              		.loc 1 38 1
 128 0014 3284     		mv	s0,a2
 129 0016 368A     		mv	s4,a3
 130 0018 3A89     		mv	s2,a4
 131 001a BE89     		mv	s3,a5
 132              		.loc 1 45 31
 133 001c 97000000 		call	MQTTSerialize_unsubscribeLength
 133      E7800000 
 134              	.LVL11:
 135 0024 AA8A     		mv	s5,a0
 136              	.LVL12:
 137              		.loc 1 45 6
 138 0026 97000000 		call	MQTTPacket_len
 138      E7800000 
 139              	.LVL13:
 140              		.loc 1 45 5
 141 002e 6347AB06 		bgt	a0,s6,.L9
  46:C:/Users/stapi/OneDrive/Desktop/GD32VW553/V1_MQTT_OK/GD32VW55X_Wifi_BLE_SDK/GD32VW55x_RELEASE_V1.0.2/MSDK/cloud/alicloud/src/protocol/mqtt/MQTTPacket\MQTTUnsubscribeClient.c **** 	{
  47:C:/Users/stapi/OneDrive/Desktop/GD32VW553/V1_MQTT_OK/GD32VW55X_Wifi_BLE_SDK/GD32VW55x_RELEASE_V1.0.2/MSDK/cloud/alicloud/src/protocol/mqtt/MQTTPacket\MQTTUnsubscribeClient.c **** 		rc = MQTTPACKET_BUFFER_TOO_SHORT;
  48:C:/Users/stapi/OneDrive/Desktop/GD32VW553/V1_MQTT_OK/GD32VW55X_Wifi_BLE_SDK/GD32VW55x_RELEASE_V1.0.2/MSDK/cloud/alicloud/src/protocol/mqtt/MQTTPacket\MQTTUnsubscribeClient.c **** 		goto exit;
  49:C:/Users/stapi/OneDrive/Desktop/GD32VW553/V1_MQTT_OK/GD32VW55X_Wifi_BLE_SDK/GD32VW55x_RELEASE_V1.0.2/MSDK/cloud/alicloud/src/protocol/mqtt/MQTTPacket\MQTTUnsubscribeClient.c **** 	}
  50:C:/Users/stapi/OneDrive/Desktop/GD32VW553/V1_MQTT_OK/GD32VW55X_Wifi_BLE_SDK/GD32VW55x_RELEASE_V1.0.2/MSDK/cloud/alicloud/src/protocol/mqtt/MQTTPacket\MQTTUnsubscribeClient.c **** 
  51:C:/Users/stapi/OneDrive/Desktop/GD32VW553/V1_MQTT_OK/GD32VW55X_Wifi_BLE_SDK/GD32VW55x_RELEASE_V1.0.2/MSDK/cloud/alicloud/src/protocol/mqtt/MQTTPacket\MQTTUnsubscribeClient.c **** 	header.byte = 0;
 142              		.loc 1 51 2 is_stmt 1
  52:C:/Users/stapi/OneDrive/Desktop/GD32VW553/V1_MQTT_OK/GD32VW55X_Wifi_BLE_SDK/GD32VW55x_RELEASE_V1.0.2/MSDK/cloud/alicloud/src/protocol/mqtt/MQTTPacket\MQTTUnsubscribeClient.c **** 	header.bits.type = UNSUBSCRIBE;
 143              		.loc 1 52 2
  53:C:/Users/stapi/OneDrive/Desktop/GD32VW553/V1_MQTT_OK/GD32VW55X_Wifi_BLE_SDK/GD32VW55x_RELEASE_V1.0.2/MSDK/cloud/alicloud/src/protocol/mqtt/MQTTPacket\MQTTUnsubscribeClient.c **** 	header.bits.dup = dup;
 144              		.loc 1 53 2
  54:C:/Users/stapi/OneDrive/Desktop/GD32VW553/V1_MQTT_OK/GD32VW55X_Wifi_BLE_SDK/GD32VW55x_RELEASE_V1.0.2/MSDK/cloud/alicloud/src/protocol/mqtt/MQTTPacket\MQTTUnsubscribeClient.c **** 	header.bits.qos = 1;
 145              		.loc 1 54 2
  55:C:/Users/stapi/OneDrive/Desktop/GD32VW553/V1_MQTT_OK/GD32VW55X_Wifi_BLE_SDK/GD32VW55x_RELEASE_V1.0.2/MSDK/cloud/alicloud/src/protocol/mqtt/MQTTPacket\MQTTUnsubscribeClient.c **** 	writeChar(&ptr, header.byte); /* write header */
 146              		.loc 1 55 2
  54:C:/Users/stapi/OneDrive/Desktop/GD32VW553/V1_MQTT_OK/GD32VW55X_Wifi_BLE_SDK/GD32VW55x_RELEASE_V1.0.2/MSDK/cloud/alicloud/src/protocol/mqtt/MQTTPacket\MQTTUnsubscribeClient.c **** 	header.bits.qos = 1;
 147              		.loc 1 54 18 is_stmt 0
 148 0032 0E04     		slli	s0,s0,3
 149 0034 2188     		andi	s0,s0,8
 150              		.loc 1 55 2
 151 0036 936524FA 		ori	a1,s0,-94
 152 003a 6808     		addi	a0,sp,28
 153 003c 97000000 		call	writeChar
 153      E7800000 
 154              	.LVL14:
  56:C:/Users/stapi/OneDrive/Desktop/GD32VW553/V1_MQTT_OK/GD32VW55X_Wifi_BLE_SDK/GD32VW55x_RELEASE_V1.0.2/MSDK/cloud/alicloud/src/protocol/mqtt/MQTTPacket\MQTTUnsubscribeClient.c **** 
  57:C:/Users/stapi/OneDrive/Desktop/GD32VW553/V1_MQTT_OK/GD32VW55X_Wifi_BLE_SDK/GD32VW55x_RELEASE_V1.0.2/MSDK/cloud/alicloud/src/protocol/mqtt/MQTTPacket\MQTTUnsubscribeClient.c **** 	ptr += MQTTPacket_encode(ptr, rem_len); /* write remaining length */;
 155              		.loc 1 57 2 is_stmt 1
 156              		.loc 1 57 9 is_stmt 0
 157 0044 7245     		lw	a0,28(sp)
 158 0046 D685     		mv	a1,s5
  58:C:/Users/stapi/OneDrive/Desktop/GD32VW553/V1_MQTT_OK/GD32VW55X_Wifi_BLE_SDK/GD32VW55x_RELEASE_V1.0.2/MSDK/cloud/alicloud/src/protocol/mqtt/MQTTPacket\MQTTUnsubscribeClient.c **** 
  59:C:/Users/stapi/OneDrive/Desktop/GD32VW553/V1_MQTT_OK/GD32VW55X_Wifi_BLE_SDK/GD32VW55x_RELEASE_V1.0.2/MSDK/cloud/alicloud/src/protocol/mqtt/MQTTPacket\MQTTUnsubscribeClient.c **** 	writeInt(&ptr, packetid);
  60:C:/Users/stapi/OneDrive/Desktop/GD32VW553/V1_MQTT_OK/GD32VW55X_Wifi_BLE_SDK/GD32VW55x_RELEASE_V1.0.2/MSDK/cloud/alicloud/src/protocol/mqtt/MQTTPacket\MQTTUnsubscribeClient.c **** 
  61:C:/Users/stapi/OneDrive/Desktop/GD32VW553/V1_MQTT_OK/GD32VW55X_Wifi_BLE_SDK/GD32VW55x_RELEASE_V1.0.2/MSDK/cloud/alicloud/src/protocol/mqtt/MQTTPacket\MQTTUnsubscribeClient.c **** 	for (i = 0; i < count; ++i)
 159              		.loc 1 61 9
 160 0048 0144     		li	s0,0
  57:C:/Users/stapi/OneDrive/Desktop/GD32VW553/V1_MQTT_OK/GD32VW55X_Wifi_BLE_SDK/GD32VW55x_RELEASE_V1.0.2/MSDK/cloud/alicloud/src/protocol/mqtt/MQTTPacket\MQTTUnsubscribeClient.c **** 
 161              		.loc 1 57 9
 162 004a 97000000 		call	MQTTPacket_encode
 162      E7800000 
 163              	.LVL15:
  57:C:/Users/stapi/OneDrive/Desktop/GD32VW553/V1_MQTT_OK/GD32VW55X_Wifi_BLE_SDK/GD32VW55x_RELEASE_V1.0.2/MSDK/cloud/alicloud/src/protocol/mqtt/MQTTPacket\MQTTUnsubscribeClient.c **** 
 164              		.loc 1 57 6
 165 0052 F247     		lw	a5,28(sp)
  59:C:/Users/stapi/OneDrive/Desktop/GD32VW553/V1_MQTT_OK/GD32VW55X_Wifi_BLE_SDK/GD32VW55x_RELEASE_V1.0.2/MSDK/cloud/alicloud/src/protocol/mqtt/MQTTPacket\MQTTUnsubscribeClient.c **** 
 166              		.loc 1 59 2
 167 0054 D285     		mv	a1,s4
  62:C:/Users/stapi/OneDrive/Desktop/GD32VW553/V1_MQTT_OK/GD32VW55X_Wifi_BLE_SDK/GD32VW55x_RELEASE_V1.0.2/MSDK/cloud/alicloud/src/protocol/mqtt/MQTTPacket\MQTTUnsubscribeClient.c **** 		writeMQTTString(&ptr, topicFilters[i]);
 168              		.loc 1 62 3
 169 0056 314A     		li	s4,12
  57:C:/Users/stapi/OneDrive/Desktop/GD32VW553/V1_MQTT_OK/GD32VW55X_Wifi_BLE_SDK/GD32VW55x_RELEASE_V1.0.2/MSDK/cloud/alicloud/src/protocol/mqtt/MQTTPacket\MQTTUnsubscribeClient.c **** 
 170              		.loc 1 57 6
 171 0058 AA97     		add	a5,a5,a0
  59:C:/Users/stapi/OneDrive/Desktop/GD32VW553/V1_MQTT_OK/GD32VW55X_Wifi_BLE_SDK/GD32VW55x_RELEASE_V1.0.2/MSDK/cloud/alicloud/src/protocol/mqtt/MQTTPacket\MQTTUnsubscribeClient.c **** 
 172              		.loc 1 59 2
 173 005a 6808     		addi	a0,sp,28
  57:C:/Users/stapi/OneDrive/Desktop/GD32VW553/V1_MQTT_OK/GD32VW55X_Wifi_BLE_SDK/GD32VW55x_RELEASE_V1.0.2/MSDK/cloud/alicloud/src/protocol/mqtt/MQTTPacket\MQTTUnsubscribeClient.c **** 
 174              		.loc 1 57 6
 175 005c 3ECE     		sw	a5,28(sp)
  57:C:/Users/stapi/OneDrive/Desktop/GD32VW553/V1_MQTT_OK/GD32VW55X_Wifi_BLE_SDK/GD32VW55x_RELEASE_V1.0.2/MSDK/cloud/alicloud/src/protocol/mqtt/MQTTPacket\MQTTUnsubscribeClient.c **** 
 176              		.loc 1 57 70 is_stmt 1
  59:C:/Users/stapi/OneDrive/Desktop/GD32VW553/V1_MQTT_OK/GD32VW55X_Wifi_BLE_SDK/GD32VW55x_RELEASE_V1.0.2/MSDK/cloud/alicloud/src/protocol/mqtt/MQTTPacket\MQTTUnsubscribeClient.c **** 
 177              		.loc 1 59 2
 178 005e 97000000 		call	writeInt
 178      E7800000 
 179              	.LVL16:
  61:C:/Users/stapi/OneDrive/Desktop/GD32VW553/V1_MQTT_OK/GD32VW55X_Wifi_BLE_SDK/GD32VW55x_RELEASE_V1.0.2/MSDK/cloud/alicloud/src/protocol/mqtt/MQTTPacket\MQTTUnsubscribeClient.c **** 		writeMQTTString(&ptr, topicFilters[i]);
 180              		.loc 1 61 2
 181              	.L7:
  61:C:/Users/stapi/OneDrive/Desktop/GD32VW553/V1_MQTT_OK/GD32VW55X_Wifi_BLE_SDK/GD32VW55x_RELEASE_V1.0.2/MSDK/cloud/alicloud/src/protocol/mqtt/MQTTPacket\MQTTUnsubscribeClient.c **** 		writeMQTTString(&ptr, topicFilters[i]);
 182              		.loc 1 61 14 discriminator 1
  61:C:/Users/stapi/OneDrive/Desktop/GD32VW553/V1_MQTT_OK/GD32VW55X_Wifi_BLE_SDK/GD32VW55x_RELEASE_V1.0.2/MSDK/cloud/alicloud/src/protocol/mqtt/MQTTPacket\MQTTUnsubscribeClient.c **** 		writeMQTTString(&ptr, topicFilters[i]);
 183              		.loc 1 61 2 is_stmt 0 discriminator 1
 184 0066 634A2401 		blt	s0,s2,.L8
  63:C:/Users/stapi/OneDrive/Desktop/GD32VW553/V1_MQTT_OK/GD32VW55X_Wifi_BLE_SDK/GD32VW55x_RELEASE_V1.0.2/MSDK/cloud/alicloud/src/protocol/mqtt/MQTTPacket\MQTTUnsubscribeClient.c **** 
  64:C:/Users/stapi/OneDrive/Desktop/GD32VW553/V1_MQTT_OK/GD32VW55X_Wifi_BLE_SDK/GD32VW55x_RELEASE_V1.0.2/MSDK/cloud/alicloud/src/protocol/mqtt/MQTTPacket\MQTTUnsubscribeClient.c **** 	rc = ptr - buf;
 185              		.loc 1 64 2 is_stmt 1
 186              		.loc 1 64 5 is_stmt 0
 187 006a F247     		lw	a5,28(sp)
 188 006c 33859740 		sub	a0,a5,s1
 189              	.LVL17:
 190              	.L5:
  65:C:/Users/stapi/OneDrive/Desktop/GD32VW553/V1_MQTT_OK/GD32VW55X_Wifi_BLE_SDK/GD32VW55x_RELEASE_V1.0.2/MSDK/cloud/alicloud/src/protocol/mqtt/MQTTPacket\MQTTUnsubscribeClient.c **** exit:
  66:C:/Users/stapi/OneDrive/Desktop/GD32VW553/V1_MQTT_OK/GD32VW55X_Wifi_BLE_SDK/GD32VW55x_RELEASE_V1.0.2/MSDK/cloud/alicloud/src/protocol/mqtt/MQTTPacket\MQTTUnsubscribeClient.c **** 	return rc;
  67:C:/Users/stapi/OneDrive/Desktop/GD32VW553/V1_MQTT_OK/GD32VW55X_Wifi_BLE_SDK/GD32VW55x_RELEASE_V1.0.2/MSDK/cloud/alicloud/src/protocol/mqtt/MQTTPacket\MQTTUnsubscribeClient.c **** }
 191              		.loc 1 67 1
 192 0070 0561     		addi	sp,sp,32
 193              		.cfi_remember_state
 194              		.cfi_def_cfa_offset 0
 195 0072 17030000 		tail	__riscv_restore_7
 195      67000300 
 196              		.cfi_restore 22
 197              		.cfi_restore 21
 198              		.cfi_restore 20
 199              		.cfi_restore 19
 200              		.cfi_restore 18
 201              		.cfi_restore 9
 202              		.cfi_restore 8
 203              		.cfi_restore 1
 204              		.cfi_def_cfa_offset -32
 205              	.LVL18:
 206              	.L8:
 207              		.cfi_restore_state
  62:C:/Users/stapi/OneDrive/Desktop/GD32VW553/V1_MQTT_OK/GD32VW55X_Wifi_BLE_SDK/GD32VW55x_RELEASE_V1.0.2/MSDK/cloud/alicloud/src/protocol/mqtt/MQTTPacket\MQTTUnsubscribeClient.c **** 
 208              		.loc 1 62 3 is_stmt 1 discriminator 3
 209 007a 3146     		li	a2,12
 210 007c CE85     		mv	a1,s3
 211 007e 0A85     		mv	a0,sp
 212 0080 FF1544C5 		maddr32	a1, s0, s4
 213 0084 97000000 		call	memcpy
 213      E7800000 
 214              	.LVL19:
 215 008c 8A85     		mv	a1,sp
 216 008e 6808     		addi	a0,sp,28
 217 0090 97000000 		call	writeMQTTString
 217      E7800000 
 218              	.LVL20:
  61:C:/Users/stapi/OneDrive/Desktop/GD32VW553/V1_MQTT_OK/GD32VW55X_Wifi_BLE_SDK/GD32VW55x_RELEASE_V1.0.2/MSDK/cloud/alicloud/src/protocol/mqtt/MQTTPacket\MQTTUnsubscribeClient.c **** 		writeMQTTString(&ptr, topicFilters[i]);
 219              		.loc 1 61 25 discriminator 3
 220 0098 0504     		addi	s0,s0,1
 221              	.LVL21:
 222 009a F1B7     		j	.L7
 223              	.LVL22:
 224              	.L9:
 225              	.L6:
  66:C:/Users/stapi/OneDrive/Desktop/GD32VW553/V1_MQTT_OK/GD32VW55X_Wifi_BLE_SDK/GD32VW55x_RELEASE_V1.0.2/MSDK/cloud/alicloud/src/protocol/mqtt/MQTTPacket\MQTTUnsubscribeClient.c **** }
 226              		.loc 1 66 2
  47:C:/Users/stapi/OneDrive/Desktop/GD32VW553/V1_MQTT_OK/GD32VW55X_Wifi_BLE_SDK/GD32VW55x_RELEASE_V1.0.2/MSDK/cloud/alicloud/src/protocol/mqtt/MQTTPacket\MQTTUnsubscribeClient.c **** 		goto exit;
 227              		.loc 1 47 6 is_stmt 0
 228 009c 7955     		li	a0,-2
  66:C:/Users/stapi/OneDrive/Desktop/GD32VW553/V1_MQTT_OK/GD32VW55X_Wifi_BLE_SDK/GD32VW55x_RELEASE_V1.0.2/MSDK/cloud/alicloud/src/protocol/mqtt/MQTTPacket\MQTTUnsubscribeClient.c **** }
 229              		.loc 1 66 9
 230 009e C9BF     		j	.L5
 231              		.cfi_endproc
 232              	.LFE2:
 234              		.section	.text.MQTTDeserialize_unsuback,"ax",@progbits
 235              		.align	1
 236              		.globl	MQTTDeserialize_unsuback
 238              	MQTTDeserialize_unsuback:
 239              	.LFB3:
  68:C:/Users/stapi/OneDrive/Desktop/GD32VW553/V1_MQTT_OK/GD32VW55X_Wifi_BLE_SDK/GD32VW55x_RELEASE_V1.0.2/MSDK/cloud/alicloud/src/protocol/mqtt/MQTTPacket\MQTTUnsubscribeClient.c **** 
  69:C:/Users/stapi/OneDrive/Desktop/GD32VW553/V1_MQTT_OK/GD32VW55X_Wifi_BLE_SDK/GD32VW55x_RELEASE_V1.0.2/MSDK/cloud/alicloud/src/protocol/mqtt/MQTTPacket\MQTTUnsubscribeClient.c **** 
  70:C:/Users/stapi/OneDrive/Desktop/GD32VW553/V1_MQTT_OK/GD32VW55X_Wifi_BLE_SDK/GD32VW55x_RELEASE_V1.0.2/MSDK/cloud/alicloud/src/protocol/mqtt/MQTTPacket\MQTTUnsubscribeClient.c **** /**
  71:C:/Users/stapi/OneDrive/Desktop/GD32VW553/V1_MQTT_OK/GD32VW55X_Wifi_BLE_SDK/GD32VW55x_RELEASE_V1.0.2/MSDK/cloud/alicloud/src/protocol/mqtt/MQTTPacket\MQTTUnsubscribeClient.c ****   * Deserializes the supplied (wire) buffer into unsuback data
  72:C:/Users/stapi/OneDrive/Desktop/GD32VW553/V1_MQTT_OK/GD32VW55X_Wifi_BLE_SDK/GD32VW55x_RELEASE_V1.0.2/MSDK/cloud/alicloud/src/protocol/mqtt/MQTTPacket\MQTTUnsubscribeClient.c ****   * @param packetid returned integer - the MQTT packet identifier
  73:C:/Users/stapi/OneDrive/Desktop/GD32VW553/V1_MQTT_OK/GD32VW55X_Wifi_BLE_SDK/GD32VW55x_RELEASE_V1.0.2/MSDK/cloud/alicloud/src/protocol/mqtt/MQTTPacket\MQTTUnsubscribeClient.c ****   * @param buf the raw buffer data, of the correct length determined by the remaining length field
  74:C:/Users/stapi/OneDrive/Desktop/GD32VW553/V1_MQTT_OK/GD32VW55X_Wifi_BLE_SDK/GD32VW55x_RELEASE_V1.0.2/MSDK/cloud/alicloud/src/protocol/mqtt/MQTTPacket\MQTTUnsubscribeClient.c ****   * @param buflen the length in bytes of the data in the supplied buffer
  75:C:/Users/stapi/OneDrive/Desktop/GD32VW553/V1_MQTT_OK/GD32VW55X_Wifi_BLE_SDK/GD32VW55x_RELEASE_V1.0.2/MSDK/cloud/alicloud/src/protocol/mqtt/MQTTPacket\MQTTUnsubscribeClient.c ****   * @return error code.  1 is success, 0 is failure
  76:C:/Users/stapi/OneDrive/Desktop/GD32VW553/V1_MQTT_OK/GD32VW55X_Wifi_BLE_SDK/GD32VW55x_RELEASE_V1.0.2/MSDK/cloud/alicloud/src/protocol/mqtt/MQTTPacket\MQTTUnsubscribeClient.c ****   */
  77:C:/Users/stapi/OneDrive/Desktop/GD32VW553/V1_MQTT_OK/GD32VW55X_Wifi_BLE_SDK/GD32VW55x_RELEASE_V1.0.2/MSDK/cloud/alicloud/src/protocol/mqtt/MQTTPacket\MQTTUnsubscribeClient.c **** int MQTTDeserialize_unsuback(unsigned short* packetid, unsigned char* buf, int buflen)
  78:C:/Users/stapi/OneDrive/Desktop/GD32VW553/V1_MQTT_OK/GD32VW55X_Wifi_BLE_SDK/GD32VW55x_RELEASE_V1.0.2/MSDK/cloud/alicloud/src/protocol/mqtt/MQTTPacket\MQTTUnsubscribeClient.c **** {
 240              		.loc 1 78 1 is_stmt 1
 241              		.cfi_startproc
 242              	.LVL23:
 243 0000 17030000 		call	t0,__riscv_save_0
 243      E7020300 
 244              		.cfi_offset 1, -4
 245              		.cfi_def_cfa_offset 16
  79:C:/Users/stapi/OneDrive/Desktop/GD32VW553/V1_MQTT_OK/GD32VW55X_Wifi_BLE_SDK/GD32VW55x_RELEASE_V1.0.2/MSDK/cloud/alicloud/src/protocol/mqtt/MQTTPacket\MQTTUnsubscribeClient.c **** 	unsigned char type = 0;
 246              		.loc 1 79 2
  78:C:/Users/stapi/OneDrive/Desktop/GD32VW553/V1_MQTT_OK/GD32VW55X_Wifi_BLE_SDK/GD32VW55x_RELEASE_V1.0.2/MSDK/cloud/alicloud/src/protocol/mqtt/MQTTPacket\MQTTUnsubscribeClient.c **** 	unsigned char type = 0;
 247              		.loc 1 78 1 is_stmt 0
 248 0008 4111     		addi	sp,sp,-16
 249              		.cfi_def_cfa_offset 32
  78:C:/Users/stapi/OneDrive/Desktop/GD32VW553/V1_MQTT_OK/GD32VW55X_Wifi_BLE_SDK/GD32VW55x_RELEASE_V1.0.2/MSDK/cloud/alicloud/src/protocol/mqtt/MQTTPacket\MQTTUnsubscribeClient.c **** 	unsigned char type = 0;
 250              		.loc 1 78 1
 251 000a 3287     		mv	a4,a2
 252 000c AE86     		mv	a3,a1
  80:C:/Users/stapi/OneDrive/Desktop/GD32VW553/V1_MQTT_OK/GD32VW55X_Wifi_BLE_SDK/GD32VW55x_RELEASE_V1.0.2/MSDK/cloud/alicloud/src/protocol/mqtt/MQTTPacket\MQTTUnsubscribeClient.c **** 	unsigned char dup = 0;
  81:C:/Users/stapi/OneDrive/Desktop/GD32VW553/V1_MQTT_OK/GD32VW55X_Wifi_BLE_SDK/GD32VW55x_RELEASE_V1.0.2/MSDK/cloud/alicloud/src/protocol/mqtt/MQTTPacket\MQTTUnsubscribeClient.c **** 	int rc = 0;
  82:C:/Users/stapi/OneDrive/Desktop/GD32VW553/V1_MQTT_OK/GD32VW55X_Wifi_BLE_SDK/GD32VW55x_RELEASE_V1.0.2/MSDK/cloud/alicloud/src/protocol/mqtt/MQTTPacket\MQTTUnsubscribeClient.c **** 
  83:C:/Users/stapi/OneDrive/Desktop/GD32VW553/V1_MQTT_OK/GD32VW55X_Wifi_BLE_SDK/GD32VW55x_RELEASE_V1.0.2/MSDK/cloud/alicloud/src/protocol/mqtt/MQTTPacket\MQTTUnsubscribeClient.c **** 	rc = MQTTDeserialize_ack(&type, &dup, packetid, buf, buflen);
 253              		.loc 1 83 7
 254 000e 2A86     		mv	a2,a0
 255              	.LVL24:
 256 0010 9305F100 		addi	a1,sp,15
 257              	.LVL25:
 258 0014 1305E100 		addi	a0,sp,14
 259              	.LVL26:
  79:C:/Users/stapi/OneDrive/Desktop/GD32VW553/V1_MQTT_OK/GD32VW55X_Wifi_BLE_SDK/GD32VW55x_RELEASE_V1.0.2/MSDK/cloud/alicloud/src/protocol/mqtt/MQTTPacket\MQTTUnsubscribeClient.c **** 	unsigned char dup = 0;
 260              		.loc 1 79 16
 261 0018 23070100 		sb	zero,14(sp)
  80:C:/Users/stapi/OneDrive/Desktop/GD32VW553/V1_MQTT_OK/GD32VW55X_Wifi_BLE_SDK/GD32VW55x_RELEASE_V1.0.2/MSDK/cloud/alicloud/src/protocol/mqtt/MQTTPacket\MQTTUnsubscribeClient.c **** 	unsigned char dup = 0;
 262              		.loc 1 80 2 is_stmt 1
  80:C:/Users/stapi/OneDrive/Desktop/GD32VW553/V1_MQTT_OK/GD32VW55X_Wifi_BLE_SDK/GD32VW55x_RELEASE_V1.0.2/MSDK/cloud/alicloud/src/protocol/mqtt/MQTTPacket\MQTTUnsubscribeClient.c **** 	unsigned char dup = 0;
 263              		.loc 1 80 16 is_stmt 0
 264 001c A3070100 		sb	zero,15(sp)
  81:C:/Users/stapi/OneDrive/Desktop/GD32VW553/V1_MQTT_OK/GD32VW55X_Wifi_BLE_SDK/GD32VW55x_RELEASE_V1.0.2/MSDK/cloud/alicloud/src/protocol/mqtt/MQTTPacket\MQTTUnsubscribeClient.c **** 
 265              		.loc 1 81 2 is_stmt 1
 266              	.LVL27:
 267              		.loc 1 83 2
 268              		.loc 1 83 7 is_stmt 0
 269 0020 97000000 		call	MQTTDeserialize_ack
 269      E7800000 
 270              	.LVL28:
  84:C:/Users/stapi/OneDrive/Desktop/GD32VW553/V1_MQTT_OK/GD32VW55X_Wifi_BLE_SDK/GD32VW55x_RELEASE_V1.0.2/MSDK/cloud/alicloud/src/protocol/mqtt/MQTTPacket\MQTTUnsubscribeClient.c **** 	if (type == UNSUBACK)
 271              		.loc 1 84 2 is_stmt 1
 272              		.loc 1 84 5 is_stmt 0
 273 0028 0347E100 		lbu	a4,14(sp)
 274 002c AD47     		li	a5,11
 275 002e 6313F700 		bne	a4,a5,.L11
  85:C:/Users/stapi/OneDrive/Desktop/GD32VW553/V1_MQTT_OK/GD32VW55X_Wifi_BLE_SDK/GD32VW55x_RELEASE_V1.0.2/MSDK/cloud/alicloud/src/protocol/mqtt/MQTTPacket\MQTTUnsubscribeClient.c **** 		rc = 1;
 276              		.loc 1 85 6
 277 0032 0545     		li	a0,1
 278              	.LVL29:
  86:C:/Users/stapi/OneDrive/Desktop/GD32VW553/V1_MQTT_OK/GD32VW55X_Wifi_BLE_SDK/GD32VW55x_RELEASE_V1.0.2/MSDK/cloud/alicloud/src/protocol/mqtt/MQTTPacket\MQTTUnsubscribeClient.c **** 	return rc;
 279              		.loc 1 86 2 is_stmt 1
 280              	.L11:
  87:C:/Users/stapi/OneDrive/Desktop/GD32VW553/V1_MQTT_OK/GD32VW55X_Wifi_BLE_SDK/GD32VW55x_RELEASE_V1.0.2/MSDK/cloud/alicloud/src/protocol/mqtt/MQTTPacket\MQTTUnsubscribeClient.c **** }
 281              		.loc 1 87 1 is_stmt 0
 282 0034 4101     		addi	sp,sp,16
 283              		.cfi_def_cfa_offset 0
 284 0036 17030000 		tail	__riscv_restore_0
 284      67000300 
 285              		.cfi_restore 1
 286              		.cfi_def_cfa_offset -16
 287              		.cfi_endproc
 288              	.LFE3:
 290              		.text
 291              	.Letext0:
 292              		.file 2 "C:/Users/stapi/OneDrive/Desktop/GD32VW553/V1_MQTT_OK/GD32VW55X_Wifi_BLE_SDK/GD32VW55x_REL
 293              		.file 3 "<built-in>"
DEFINED SYMBOLS
                            *ABS*:0000000000000000 MQTTUnsubscribeClient.c
C:\Users\stapi\AppData\Local\Temp\ccsT5PxO.s:13     .text.MQTTSerialize_unsubscribeLength:0000000000000000 MQTTSerialize_unsubscribeLength
C:\Users\stapi\AppData\Local\Temp\ccsT5PxO.s:17     .text.MQTTSerialize_unsubscribeLength:0000000000000000 .L0 
C:\Users\stapi\AppData\Local\Temp\ccsT5PxO.s:19     .text.MQTTSerialize_unsubscribeLength:0000000000000000 .L0 
C:\Users\stapi\AppData\Local\Temp\ccsT5PxO.s:20     .text.MQTTSerialize_unsubscribeLength:0000000000000008 .L0 
C:\Users\stapi\AppData\Local\Temp\ccsT5PxO.s:21     .text.MQTTSerialize_unsubscribeLength:0000000000000008 .L0 
C:\Users\stapi\AppData\Local\Temp\ccsT5PxO.s:22     .text.MQTTSerialize_unsubscribeLength:0000000000000008 .L0 
C:\Users\stapi\AppData\Local\Temp\ccsT5PxO.s:23     .text.MQTTSerialize_unsubscribeLength:0000000000000008 .L0 
C:\Users\stapi\AppData\Local\Temp\ccsT5PxO.s:24     .text.MQTTSerialize_unsubscribeLength:0000000000000008 .L0 
C:\Users\stapi\AppData\Local\Temp\ccsT5PxO.s:25     .text.MQTTSerialize_unsubscribeLength:0000000000000008 .L0 
C:\Users\stapi\AppData\Local\Temp\ccsT5PxO.s:26     .text.MQTTSerialize_unsubscribeLength:0000000000000008 .L0 
C:\Users\stapi\AppData\Local\Temp\ccsT5PxO.s:28     .text.MQTTSerialize_unsubscribeLength:0000000000000008 .L0 
C:\Users\stapi\AppData\Local\Temp\ccsT5PxO.s:30     .text.MQTTSerialize_unsubscribeLength:0000000000000008 .L0 
C:\Users\stapi\AppData\Local\Temp\ccsT5PxO.s:31     .text.MQTTSerialize_unsubscribeLength:0000000000000008 .L0 
C:\Users\stapi\AppData\Local\Temp\ccsT5PxO.s:32     .text.MQTTSerialize_unsubscribeLength:0000000000000008 .L0 
C:\Users\stapi\AppData\Local\Temp\ccsT5PxO.s:33     .text.MQTTSerialize_unsubscribeLength:000000000000000a .L0 
C:\Users\stapi\AppData\Local\Temp\ccsT5PxO.s:35     .text.MQTTSerialize_unsubscribeLength:000000000000000a .L0 
C:\Users\stapi\AppData\Local\Temp\ccsT5PxO.s:38     .text.MQTTSerialize_unsubscribeLength:000000000000000e .L0 
C:\Users\stapi\AppData\Local\Temp\ccsT5PxO.s:40     .text.MQTTSerialize_unsubscribeLength:0000000000000010 .L0 
C:\Users\stapi\AppData\Local\Temp\ccsT5PxO.s:42     .text.MQTTSerialize_unsubscribeLength:0000000000000012 .L0 
C:\Users\stapi\AppData\Local\Temp\ccsT5PxO.s:46     .text.MQTTSerialize_unsubscribeLength:0000000000000014 .L0 
C:\Users\stapi\AppData\Local\Temp\ccsT5PxO.s:47     .text.MQTTSerialize_unsubscribeLength:0000000000000014 .L0 
C:\Users\stapi\AppData\Local\Temp\ccsT5PxO.s:49     .text.MQTTSerialize_unsubscribeLength:0000000000000018 .L0 
C:\Users\stapi\AppData\Local\Temp\ccsT5PxO.s:50     .text.MQTTSerialize_unsubscribeLength:0000000000000018 .L0 
C:\Users\stapi\AppData\Local\Temp\ccsT5PxO.s:52     .text.MQTTSerialize_unsubscribeLength:000000000000001c .L0 
C:\Users\stapi\AppData\Local\Temp\ccsT5PxO.s:53     .text.MQTTSerialize_unsubscribeLength:000000000000001c .L0 
C:\Users\stapi\AppData\Local\Temp\ccsT5PxO.s:55     .text.MQTTSerialize_unsubscribeLength:0000000000000024 .L0 
C:\Users\stapi\AppData\Local\Temp\ccsT5PxO.s:56     .text.MQTTSerialize_unsubscribeLength:0000000000000024 .L0 
C:\Users\stapi\AppData\Local\Temp\ccsT5PxO.s:57     .text.MQTTSerialize_unsubscribeLength:0000000000000024 .L0 
C:\Users\stapi\AppData\Local\Temp\ccsT5PxO.s:58     .text.MQTTSerialize_unsubscribeLength:0000000000000024 .L0 
C:\Users\stapi\AppData\Local\Temp\ccsT5PxO.s:59     .text.MQTTSerialize_unsubscribeLength:0000000000000024 .L0 
C:\Users\stapi\AppData\Local\Temp\ccsT5PxO.s:60     .text.MQTTSerialize_unsubscribeLength:0000000000000024 .L0 
C:\Users\stapi\AppData\Local\Temp\ccsT5PxO.s:61     .text.MQTTSerialize_unsubscribeLength:0000000000000024 .L0 
C:\Users\stapi\AppData\Local\Temp\ccsT5PxO.s:63     .text.MQTTSerialize_unsubscribeLength:0000000000000024 .L0 
C:\Users\stapi\AppData\Local\Temp\ccsT5PxO.s:65     .text.MQTTSerialize_unsubscribeLength:0000000000000024 .L0 
C:\Users\stapi\AppData\Local\Temp\ccsT5PxO.s:66     .text.MQTTSerialize_unsubscribeLength:0000000000000024 .L0 
C:\Users\stapi\AppData\Local\Temp\ccsT5PxO.s:76     .text.MQTTSerialize_unsubscribeLength:0000000000000040 .L0 
C:\Users\stapi\AppData\Local\Temp\ccsT5PxO.s:78     .text.MQTTSerialize_unsubscribeLength:0000000000000042 .L0 
C:\Users\stapi\AppData\Local\Temp\ccsT5PxO.s:81     .text.MQTTSerialize_unsubscribeLength:0000000000000044 .L0 
C:\Users\stapi\AppData\Local\Temp\ccsT5PxO.s:84     .text.MQTTSerialize_unsubscribeLength:0000000000000048 .L0 
C:\Users\stapi\AppData\Local\Temp\ccsT5PxO.s:91     .text.MQTTSerialize_unsubscribe:0000000000000000 MQTTSerialize_unsubscribe
C:\Users\stapi\AppData\Local\Temp\ccsT5PxO.s:94     .text.MQTTSerialize_unsubscribe:0000000000000000 .L0 
C:\Users\stapi\AppData\Local\Temp\ccsT5PxO.s:96     .text.MQTTSerialize_unsubscribe:0000000000000000 .L0 
C:\Users\stapi\AppData\Local\Temp\ccsT5PxO.s:97     .text.MQTTSerialize_unsubscribe:0000000000000008 .L0 
C:\Users\stapi\AppData\Local\Temp\ccsT5PxO.s:98     .text.MQTTSerialize_unsubscribe:0000000000000008 .L0 
C:\Users\stapi\AppData\Local\Temp\ccsT5PxO.s:99     .text.MQTTSerialize_unsubscribe:0000000000000008 .L0 
C:\Users\stapi\AppData\Local\Temp\ccsT5PxO.s:100    .text.MQTTSerialize_unsubscribe:0000000000000008 .L0 
C:\Users\stapi\AppData\Local\Temp\ccsT5PxO.s:101    .text.MQTTSerialize_unsubscribe:0000000000000008 .L0 
C:\Users\stapi\AppData\Local\Temp\ccsT5PxO.s:102    .text.MQTTSerialize_unsubscribe:0000000000000008 .L0 
C:\Users\stapi\AppData\Local\Temp\ccsT5PxO.s:103    .text.MQTTSerialize_unsubscribe:0000000000000008 .L0 
C:\Users\stapi\AppData\Local\Temp\ccsT5PxO.s:104    .text.MQTTSerialize_unsubscribe:0000000000000008 .L0 
C:\Users\stapi\AppData\Local\Temp\ccsT5PxO.s:105    .text.MQTTSerialize_unsubscribe:0000000000000008 .L0 
C:\Users\stapi\AppData\Local\Temp\ccsT5PxO.s:107    .text.MQTTSerialize_unsubscribe:0000000000000008 .L0 
C:\Users\stapi\AppData\Local\Temp\ccsT5PxO.s:108    .text.MQTTSerialize_unsubscribe:0000000000000008 .L0 
C:\Users\stapi\AppData\Local\Temp\ccsT5PxO.s:109    .text.MQTTSerialize_unsubscribe:000000000000000a .L0 
C:\Users\stapi\AppData\Local\Temp\ccsT5PxO.s:111    .text.MQTTSerialize_unsubscribe:000000000000000a .L0 
C:\Users\stapi\AppData\Local\Temp\ccsT5PxO.s:113    .text.MQTTSerialize_unsubscribe:000000000000000c .L0 
C:\Users\stapi\AppData\Local\Temp\ccsT5PxO.s:115    .text.MQTTSerialize_unsubscribe:000000000000000e .L0 
C:\Users\stapi\AppData\Local\Temp\ccsT5PxO.s:117    .text.MQTTSerialize_unsubscribe:000000000000000e .L0 
C:\Users\stapi\AppData\Local\Temp\ccsT5PxO.s:118    .text.MQTTSerialize_unsubscribe:000000000000000e .L0 
C:\Users\stapi\AppData\Local\Temp\ccsT5PxO.s:119    .text.MQTTSerialize_unsubscribe:000000000000000e .L0 
C:\Users\stapi\AppData\Local\Temp\ccsT5PxO.s:120    .text.MQTTSerialize_unsubscribe:000000000000000e .L0 
C:\Users\stapi\AppData\Local\Temp\ccsT5PxO.s:121    .text.MQTTSerialize_unsubscribe:000000000000000e .L0 
C:\Users\stapi\AppData\Local\Temp\ccsT5PxO.s:123    .text.MQTTSerialize_unsubscribe:0000000000000010 .L0 
C:\Users\stapi\AppData\Local\Temp\ccsT5PxO.s:128    .text.MQTTSerialize_unsubscribe:0000000000000014 .L0 
C:\Users\stapi\AppData\Local\Temp\ccsT5PxO.s:133    .text.MQTTSerialize_unsubscribe:000000000000001c .L0 
C:\Users\stapi\AppData\Local\Temp\ccsT5PxO.s:138    .text.MQTTSerialize_unsubscribe:0000000000000026 .L0 
C:\Users\stapi\AppData\Local\Temp\ccsT5PxO.s:141    .text.MQTTSerialize_unsubscribe:000000000000002e .L0 
C:\Users\stapi\AppData\Local\Temp\ccsT5PxO.s:143    .text.MQTTSerialize_unsubscribe:0000000000000032 .L0 
C:\Users\stapi\AppData\Local\Temp\ccsT5PxO.s:144    .text.MQTTSerialize_unsubscribe:0000000000000032 .L0 
C:\Users\stapi\AppData\Local\Temp\ccsT5PxO.s:145    .text.MQTTSerialize_unsubscribe:0000000000000032 .L0 
C:\Users\stapi\AppData\Local\Temp\ccsT5PxO.s:146    .text.MQTTSerialize_unsubscribe:0000000000000032 .L0 
C:\Users\stapi\AppData\Local\Temp\ccsT5PxO.s:147    .text.MQTTSerialize_unsubscribe:0000000000000032 .L0 
C:\Users\stapi\AppData\Local\Temp\ccsT5PxO.s:148    .text.MQTTSerialize_unsubscribe:0000000000000032 .L0 
C:\Users\stapi\AppData\Local\Temp\ccsT5PxO.s:151    .text.MQTTSerialize_unsubscribe:0000000000000036 .L0 
C:\Users\stapi\AppData\Local\Temp\ccsT5PxO.s:156    .text.MQTTSerialize_unsubscribe:0000000000000044 .L0 
C:\Users\stapi\AppData\Local\Temp\ccsT5PxO.s:157    .text.MQTTSerialize_unsubscribe:0000000000000044 .L0 
C:\Users\stapi\AppData\Local\Temp\ccsT5PxO.s:160    .text.MQTTSerialize_unsubscribe:0000000000000048 .L0 
C:\Users\stapi\AppData\Local\Temp\ccsT5PxO.s:162    .text.MQTTSerialize_unsubscribe:000000000000004a .L0 
C:\Users\stapi\AppData\Local\Temp\ccsT5PxO.s:165    .text.MQTTSerialize_unsubscribe:0000000000000052 .L0 
C:\Users\stapi\AppData\Local\Temp\ccsT5PxO.s:167    .text.MQTTSerialize_unsubscribe:0000000000000054 .L0 
C:\Users\stapi\AppData\Local\Temp\ccsT5PxO.s:169    .text.MQTTSerialize_unsubscribe:0000000000000056 .L0 
C:\Users\stapi\AppData\Local\Temp\ccsT5PxO.s:171    .text.MQTTSerialize_unsubscribe:0000000000000058 .L0 
C:\Users\stapi\AppData\Local\Temp\ccsT5PxO.s:173    .text.MQTTSerialize_unsubscribe:000000000000005a .L0 
C:\Users\stapi\AppData\Local\Temp\ccsT5PxO.s:175    .text.MQTTSerialize_unsubscribe:000000000000005c .L0 
C:\Users\stapi\AppData\Local\Temp\ccsT5PxO.s:177    .text.MQTTSerialize_unsubscribe:000000000000005e .L0 
C:\Users\stapi\AppData\Local\Temp\ccsT5PxO.s:178    .text.MQTTSerialize_unsubscribe:000000000000005e .L0 
C:\Users\stapi\AppData\Local\Temp\ccsT5PxO.s:182    .text.MQTTSerialize_unsubscribe:0000000000000066 .L0 
C:\Users\stapi\AppData\Local\Temp\ccsT5PxO.s:183    .text.MQTTSerialize_unsubscribe:0000000000000066 .L0 
C:\Users\stapi\AppData\Local\Temp\ccsT5PxO.s:184    .text.MQTTSerialize_unsubscribe:0000000000000066 .L0 
C:\Users\stapi\AppData\Local\Temp\ccsT5PxO.s:186    .text.MQTTSerialize_unsubscribe:000000000000006a .L0 
C:\Users\stapi\AppData\Local\Temp\ccsT5PxO.s:187    .text.MQTTSerialize_unsubscribe:000000000000006a .L0 
C:\Users\stapi\AppData\Local\Temp\ccsT5PxO.s:192    .text.MQTTSerialize_unsubscribe:0000000000000070 .L0 
C:\Users\stapi\AppData\Local\Temp\ccsT5PxO.s:193    .text.MQTTSerialize_unsubscribe:0000000000000072 .L0 
C:\Users\stapi\AppData\Local\Temp\ccsT5PxO.s:194    .text.MQTTSerialize_unsubscribe:0000000000000072 .L0 
C:\Users\stapi\AppData\Local\Temp\ccsT5PxO.s:196    .text.MQTTSerialize_unsubscribe:000000000000007a .L0 
C:\Users\stapi\AppData\Local\Temp\ccsT5PxO.s:197    .text.MQTTSerialize_unsubscribe:000000000000007a .L0 
C:\Users\stapi\AppData\Local\Temp\ccsT5PxO.s:198    .text.MQTTSerialize_unsubscribe:000000000000007a .L0 
C:\Users\stapi\AppData\Local\Temp\ccsT5PxO.s:199    .text.MQTTSerialize_unsubscribe:000000000000007a .L0 
C:\Users\stapi\AppData\Local\Temp\ccsT5PxO.s:200    .text.MQTTSerialize_unsubscribe:000000000000007a .L0 
C:\Users\stapi\AppData\Local\Temp\ccsT5PxO.s:201    .text.MQTTSerialize_unsubscribe:000000000000007a .L0 
C:\Users\stapi\AppData\Local\Temp\ccsT5PxO.s:202    .text.MQTTSerialize_unsubscribe:000000000000007a .L0 
C:\Users\stapi\AppData\Local\Temp\ccsT5PxO.s:203    .text.MQTTSerialize_unsubscribe:000000000000007a .L0 
C:\Users\stapi\AppData\Local\Temp\ccsT5PxO.s:204    .text.MQTTSerialize_unsubscribe:000000000000007a .L0 
C:\Users\stapi\AppData\Local\Temp\ccsT5PxO.s:207    .text.MQTTSerialize_unsubscribe:000000000000007a .L0 
C:\Users\stapi\AppData\Local\Temp\ccsT5PxO.s:209    .text.MQTTSerialize_unsubscribe:000000000000007a .L0 
C:\Users\stapi\AppData\Local\Temp\ccsT5PxO.s:220    .text.MQTTSerialize_unsubscribe:0000000000000098 .L0 
C:\Users\stapi\AppData\Local\Temp\ccsT5PxO.s:227    .text.MQTTSerialize_unsubscribe:000000000000009c .L0 
C:\Users\stapi\AppData\Local\Temp\ccsT5PxO.s:228    .text.MQTTSerialize_unsubscribe:000000000000009c .L0 
C:\Users\stapi\AppData\Local\Temp\ccsT5PxO.s:230    .text.MQTTSerialize_unsubscribe:000000000000009e .L0 
C:\Users\stapi\AppData\Local\Temp\ccsT5PxO.s:231    .text.MQTTSerialize_unsubscribe:00000000000000a0 .L0 
C:\Users\stapi\AppData\Local\Temp\ccsT5PxO.s:238    .text.MQTTDeserialize_unsuback:0000000000000000 MQTTDeserialize_unsuback
C:\Users\stapi\AppData\Local\Temp\ccsT5PxO.s:241    .text.MQTTDeserialize_unsuback:0000000000000000 .L0 
C:\Users\stapi\AppData\Local\Temp\ccsT5PxO.s:243    .text.MQTTDeserialize_unsuback:0000000000000000 .L0 
C:\Users\stapi\AppData\Local\Temp\ccsT5PxO.s:244    .text.MQTTDeserialize_unsuback:0000000000000008 .L0 
C:\Users\stapi\AppData\Local\Temp\ccsT5PxO.s:245    .text.MQTTDeserialize_unsuback:0000000000000008 .L0 
C:\Users\stapi\AppData\Local\Temp\ccsT5PxO.s:247    .text.MQTTDeserialize_unsuback:0000000000000008 .L0 
C:\Users\stapi\AppData\Local\Temp\ccsT5PxO.s:248    .text.MQTTDeserialize_unsuback:0000000000000008 .L0 
C:\Users\stapi\AppData\Local\Temp\ccsT5PxO.s:249    .text.MQTTDeserialize_unsuback:000000000000000a .L0 
C:\Users\stapi\AppData\Local\Temp\ccsT5PxO.s:251    .text.MQTTDeserialize_unsuback:000000000000000a .L0 
C:\Users\stapi\AppData\Local\Temp\ccsT5PxO.s:254    .text.MQTTDeserialize_unsuback:000000000000000e .L0 
C:\Users\stapi\AppData\Local\Temp\ccsT5PxO.s:261    .text.MQTTDeserialize_unsuback:0000000000000018 .L0 
C:\Users\stapi\AppData\Local\Temp\ccsT5PxO.s:263    .text.MQTTDeserialize_unsuback:000000000000001c .L0 
C:\Users\stapi\AppData\Local\Temp\ccsT5PxO.s:264    .text.MQTTDeserialize_unsuback:000000000000001c .L0 
C:\Users\stapi\AppData\Local\Temp\ccsT5PxO.s:267    .text.MQTTDeserialize_unsuback:0000000000000020 .L0 
C:\Users\stapi\AppData\Local\Temp\ccsT5PxO.s:268    .text.MQTTDeserialize_unsuback:0000000000000020 .L0 
C:\Users\stapi\AppData\Local\Temp\ccsT5PxO.s:269    .text.MQTTDeserialize_unsuback:0000000000000020 .L0 
C:\Users\stapi\AppData\Local\Temp\ccsT5PxO.s:272    .text.MQTTDeserialize_unsuback:0000000000000028 .L0 
C:\Users\stapi\AppData\Local\Temp\ccsT5PxO.s:273    .text.MQTTDeserialize_unsuback:0000000000000028 .L0 
C:\Users\stapi\AppData\Local\Temp\ccsT5PxO.s:277    .text.MQTTDeserialize_unsuback:0000000000000032 .L0 
C:\Users\stapi\AppData\Local\Temp\ccsT5PxO.s:281    .text.MQTTDeserialize_unsuback:0000000000000034 .L0 
C:\Users\stapi\AppData\Local\Temp\ccsT5PxO.s:282    .text.MQTTDeserialize_unsuback:0000000000000034 .L0 
C:\Users\stapi\AppData\Local\Temp\ccsT5PxO.s:283    .text.MQTTDeserialize_unsuback:0000000000000036 .L0 
C:\Users\stapi\AppData\Local\Temp\ccsT5PxO.s:285    .text.MQTTDeserialize_unsuback:000000000000003e .L0 
C:\Users\stapi\AppData\Local\Temp\ccsT5PxO.s:286    .text.MQTTDeserialize_unsuback:000000000000003e .L0 
C:\Users\stapi\AppData\Local\Temp\ccsT5PxO.s:287    .text.MQTTDeserialize_unsuback:000000000000003e .L0 
C:\Users\stapi\AppData\Local\Temp\ccsT5PxO.s:87     .text.MQTTSerialize_unsubscribeLength:0000000000000048 .L0 
C:\Users\stapi\AppData\Local\Temp\ccsT5PxO.s:234    .text.MQTTSerialize_unsubscribe:00000000000000a0 .L0 
C:\Users\stapi\AppData\Local\Temp\ccsT5PxO.s:290    .text.MQTTDeserialize_unsuback:000000000000003e .L0 
                     .debug_frame:0000000000000000 .L0 
C:\Users\stapi\AppData\Local\Temp\ccsT5PxO.s:62     .text.MQTTSerialize_unsubscribeLength:0000000000000024 .L3
C:\Users\stapi\AppData\Local\Temp\ccsT5PxO.s:44     .text.MQTTSerialize_unsubscribeLength:0000000000000014 .L2
C:\Users\stapi\AppData\Local\Temp\ccsT5PxO.s:224    .text.MQTTSerialize_unsubscribe:000000000000009c .L9
C:\Users\stapi\AppData\Local\Temp\ccsT5PxO.s:206    .text.MQTTSerialize_unsubscribe:000000000000007a .L8
C:\Users\stapi\AppData\Local\Temp\ccsT5PxO.s:181    .text.MQTTSerialize_unsubscribe:0000000000000066 .L7
C:\Users\stapi\AppData\Local\Temp\ccsT5PxO.s:190    .text.MQTTSerialize_unsubscribe:0000000000000070 .L5
C:\Users\stapi\AppData\Local\Temp\ccsT5PxO.s:280    .text.MQTTDeserialize_unsuback:0000000000000034 .L11
C:\Users\stapi\AppData\Local\Temp\ccsT5PxO.s:998    .debug_abbrev:0000000000000000 .Ldebug_abbrev0
C:\Users\stapi\AppData\Local\Temp\ccsT5PxO.s:1842   .debug_str:00000000000003e5 .LASF55
C:\Users\stapi\AppData\Local\Temp\ccsT5PxO.s:1836   .debug_str:0000000000000325 .LASF56
C:\Users\stapi\AppData\Local\Temp\ccsT5PxO.s:1784   .debug_str:0000000000000170 .LASF57
C:\Users\stapi\AppData\Local\Temp\ccsT5PxO.s:1716   .debug_ranges:0000000000000000 .Ldebug_ranges0
C:\Users\stapi\AppData\Local\Temp\ccsT5PxO.s:1726   .debug_line:0000000000000000 .Ldebug_line0
C:\Users\stapi\AppData\Local\Temp\ccsT5PxO.s:1774   .debug_str:0000000000000126 .LASF3
C:\Users\stapi\AppData\Local\Temp\ccsT5PxO.s:1728   .debug_str:0000000000000000 .LASF0
C:\Users\stapi\AppData\Local\Temp\ccsT5PxO.s:1746   .debug_str:0000000000000087 .LASF1
C:\Users\stapi\AppData\Local\Temp\ccsT5PxO.s:1782   .debug_str:0000000000000157 .LASF2
C:\Users\stapi\AppData\Local\Temp\ccsT5PxO.s:1768   .debug_str:0000000000000108 .LASF4
C:\Users\stapi\AppData\Local\Temp\ccsT5PxO.s:1800   .debug_str:0000000000000274 .LASF5
C:\Users\stapi\AppData\Local\Temp\ccsT5PxO.s:1812   .debug_str:00000000000002b7 .LASF6
C:\Users\stapi\AppData\Local\Temp\ccsT5PxO.s:1772   .debug_str:000000000000011e .LASF7
C:\Users\stapi\AppData\Local\Temp\ccsT5PxO.s:1820   .debug_str:00000000000002e2 .LASF8
C:\Users\stapi\AppData\Local\Temp\ccsT5PxO.s:1834   .debug_str:000000000000031e .LASF9
C:\Users\stapi\AppData\Local\Temp\ccsT5PxO.s:1844   .debug_str:00000000000004cc .LASF10
C:\Users\stapi\AppData\Local\Temp\ccsT5PxO.s:1846   .debug_str:00000000000004d3 .LASF11
C:\Users\stapi\AppData\Local\Temp\ccsT5PxO.s:1838   .debug_str:00000000000003d3 .LASF12
C:\Users\stapi\AppData\Local\Temp\ccsT5PxO.s:1830   .debug_str:000000000000030f .LASF13
C:\Users\stapi\AppData\Local\Temp\ccsT5PxO.s:1788   .debug_str:000000000000021b .LASF14
C:\Users\stapi\AppData\Local\Temp\ccsT5PxO.s:1762   .debug_str:00000000000000e5 .LASF15
C:\Users\stapi\AppData\Local\Temp\ccsT5PxO.s:1738   .debug_str:0000000000000056 .LASF16
C:\Users\stapi\AppData\Local\Temp\ccsT5PxO.s:1848   .debug_str:00000000000004da .LASF17
C:\Users\stapi\AppData\Local\Temp\ccsT5PxO.s:1810   .debug_str:00000000000002ae .LASF18
C:\Users\stapi\AppData\Local\Temp\ccsT5PxO.s:1806   .debug_str:000000000000029b .LASF19
C:\Users\stapi\AppData\Local\Temp\ccsT5PxO.s:1770   .debug_str:0000000000000111 .LASF20
C:\Users\stapi\AppData\Local\Temp\ccsT5PxO.s:1740   .debug_str:000000000000005f .LASF21
C:\Users\stapi\AppData\Local\Temp\ccsT5PxO.s:1736   .debug_str:0000000000000051 .LASF22
C:\Users\stapi\AppData\Local\Temp\ccsT5PxO.s:1764   .debug_str:00000000000000f1 .LASF23
C:\Users\stapi\AppData\Local\Temp\ccsT5PxO.s:1756   .debug_str:00000000000000d0 .LASF24
C:\Users\stapi\AppData\Local\Temp\ccsT5PxO.s:1814   .debug_str:00000000000002bf .LASF25
C:\Users\stapi\AppData\Local\Temp\ccsT5PxO.s:1826   .debug_str:00000000000002f6 .LASF28
C:\Users\stapi\AppData\Local\Temp\ccsT5PxO.s:1778   .debug_str:000000000000013f .LASF26
C:\Users\stapi\AppData\Local\Temp\ccsT5PxO.s:1832   .debug_str:0000000000000319 .LASF27
C:\Users\stapi\AppData\Local\Temp\ccsT5PxO.s:1828   .debug_str:0000000000000301 .LASF29
C:\Users\stapi\AppData\Local\Temp\ccsT5PxO.s:1804   .debug_str:0000000000000293 .LASF30
C:\Users\stapi\AppData\Local\Temp\ccsT5PxO.s:1742   .debug_str:0000000000000066 .LASF31
C:\Users\stapi\AppData\Local\Temp\ccsT5PxO.s:1794   .debug_str:0000000000000247 .LASF32
C:\Users\stapi\AppData\Local\Temp\ccsT5PxO.s:1780   .debug_str:0000000000000144 .LASF33
C:\Users\stapi\AppData\Local\Temp\ccsT5PxO.s:1750   .debug_str:00000000000000ab .LASF34
C:\Users\stapi\AppData\Local\Temp\ccsT5PxO.s:1818   .debug_str:00000000000002d8 .LASF35
C:\Users\stapi\AppData\Local\Temp\ccsT5PxO.s:1758   .debug_str:00000000000000d5 .LASF36
C:\Users\stapi\AppData\Local\Temp\ccsT5PxO.s:1776   .debug_str:000000000000012d .LASF37
C:\Users\stapi\AppData\Local\Temp\ccsT5PxO.s:1748   .debug_str:000000000000009d .LASF38
C:\Users\stapi\AppData\Local\Temp\ccsT5PxO.s:1744   .debug_str:0000000000000070 .LASF39
C:\Users\stapi\AppData\Local\Temp\ccsT5PxO.s:1798   .debug_str:000000000000025b .LASF42
C:\Users\stapi\AppData\Local\Temp\ccsT5PxO.s:239    .text.MQTTDeserialize_unsuback:0000000000000000 .LFB3
C:\Users\stapi\AppData\Local\Temp\ccsT5PxO.s:288    .text.MQTTDeserialize_unsuback:000000000000003e .LFE3
C:\Users\stapi\AppData\Local\Temp\ccsT5PxO.s:1796   .debug_str:0000000000000252 .LASF40
C:\Users\stapi\AppData\Local\Temp\ccsT5PxO.s:1457   .debug_loc:0000000000000000 .LLST13
C:\Users\stapi\AppData\Local\Temp\ccsT5PxO.s:1475   .debug_loc:000000000000002c .LLST14
C:\Users\stapi\AppData\Local\Temp\ccsT5PxO.s:1822   .debug_str:00000000000002ea .LASF41
C:\Users\stapi\AppData\Local\Temp\ccsT5PxO.s:1493   .debug_loc:0000000000000058 .LLST15
C:\Users\stapi\AppData\Local\Temp\ccsT5PxO.s:1511   .debug_loc:0000000000000084 .LLST16
C:\Users\stapi\AppData\Local\Temp\ccsT5PxO.s:270    .text.MQTTDeserialize_unsuback:0000000000000028 .LVL28
C:\Users\stapi\AppData\Local\Temp\ccsT5PxO.s:1786   .debug_str:0000000000000201 .LASF43
C:\Users\stapi\AppData\Local\Temp\ccsT5PxO.s:92     .text.MQTTSerialize_unsubscribe:0000000000000000 .LFB2
C:\Users\stapi\AppData\Local\Temp\ccsT5PxO.s:232    .text.MQTTSerialize_unsubscribe:00000000000000a0 .LFE2
C:\Users\stapi\AppData\Local\Temp\ccsT5PxO.s:1523   .debug_loc:00000000000000a3 .LLST4
C:\Users\stapi\AppData\Local\Temp\ccsT5PxO.s:1534   .debug_loc:00000000000000c1 .LLST5
C:\Users\stapi\AppData\Local\Temp\ccsT5PxO.s:1545   .debug_loc:00000000000000df .LLST6
C:\Users\stapi\AppData\Local\Temp\ccsT5PxO.s:1559   .debug_loc:0000000000000100 .LLST7
C:\Users\stapi\AppData\Local\Temp\ccsT5PxO.s:1730   .debug_str:000000000000001c .LASF44
C:\Users\stapi\AppData\Local\Temp\ccsT5PxO.s:1573   .debug_loc:0000000000000121 .LLST8
C:\Users\stapi\AppData\Local\Temp\ccsT5PxO.s:1802   .debug_str:0000000000000286 .LASF45
C:\Users\stapi\AppData\Local\Temp\ccsT5PxO.s:1584   .debug_loc:000000000000013f .LLST9
C:\Users\stapi\AppData\Local\Temp\ccsT5PxO.s:1850   .debug_str:00000000000004e2 .LASF58
C:\Users\stapi\AppData\Local\Temp\ccsT5PxO.s:1808   .debug_str:00000000000002a6 .LASF46
C:\Users\stapi\AppData\Local\Temp\ccsT5PxO.s:1595   .debug_loc:000000000000015d .LLST10
C:\Users\stapi\AppData\Local\Temp\ccsT5PxO.s:1611   .debug_loc:0000000000000187 .LLST11
C:\Users\stapi\AppData\Local\Temp\ccsT5PxO.s:1632   .debug_loc:00000000000001b6 .LLST12
C:\Users\stapi\AppData\Local\Temp\ccsT5PxO.s:1824   .debug_str:00000000000002f1 .LASF59
C:\Users\stapi\AppData\Local\Temp\ccsT5PxO.s:225    .text.MQTTSerialize_unsubscribe:000000000000009c .L6
C:\Users\stapi\AppData\Local\Temp\ccsT5PxO.s:134    .text.MQTTSerialize_unsubscribe:0000000000000024 .LVL11
C:\Users\stapi\AppData\Local\Temp\ccsT5PxO.s:139    .text.MQTTSerialize_unsubscribe:000000000000002e .LVL13
C:\Users\stapi\AppData\Local\Temp\ccsT5PxO.s:154    .text.MQTTSerialize_unsubscribe:0000000000000044 .LVL14
C:\Users\stapi\AppData\Local\Temp\ccsT5PxO.s:163    .text.MQTTSerialize_unsubscribe:0000000000000052 .LVL15
C:\Users\stapi\AppData\Local\Temp\ccsT5PxO.s:179    .text.MQTTSerialize_unsubscribe:0000000000000066 .LVL16
C:\Users\stapi\AppData\Local\Temp\ccsT5PxO.s:214    .text.MQTTSerialize_unsubscribe:000000000000008c .LVL19
C:\Users\stapi\AppData\Local\Temp\ccsT5PxO.s:218    .text.MQTTSerialize_unsubscribe:0000000000000098 .LVL20
C:\Users\stapi\AppData\Local\Temp\ccsT5PxO.s:1732   .debug_str:0000000000000022 .LASF47
C:\Users\stapi\AppData\Local\Temp\ccsT5PxO.s:14     .text.MQTTSerialize_unsubscribeLength:0000000000000000 .LFB1
C:\Users\stapi\AppData\Local\Temp\ccsT5PxO.s:85     .text.MQTTSerialize_unsubscribeLength:0000000000000048 .LFE1
C:\Users\stapi\AppData\Local\Temp\ccsT5PxO.s:1653   .debug_loc:00000000000001ec .LLST0
C:\Users\stapi\AppData\Local\Temp\ccsT5PxO.s:1664   .debug_loc:000000000000020a .LLST1
C:\Users\stapi\AppData\Local\Temp\ccsT5PxO.s:1675   .debug_loc:0000000000000228 .LLST2
C:\Users\stapi\AppData\Local\Temp\ccsT5PxO.s:1687   .debug_loc:0000000000000247 .LLST3
C:\Users\stapi\AppData\Local\Temp\ccsT5PxO.s:71     .text.MQTTSerialize_unsubscribeLength:0000000000000036 .LVL3
C:\Users\stapi\AppData\Local\Temp\ccsT5PxO.s:74     .text.MQTTSerialize_unsubscribeLength:0000000000000040 .LVL4
C:\Users\stapi\AppData\Local\Temp\ccsT5PxO.s:1792   .debug_str:0000000000000233 .LASF48
C:\Users\stapi\AppData\Local\Temp\ccsT5PxO.s:1734   .debug_str:0000000000000042 .LASF49
C:\Users\stapi\AppData\Local\Temp\ccsT5PxO.s:1840   .debug_str:00000000000003db .LASF50
C:\Users\stapi\AppData\Local\Temp\ccsT5PxO.s:1766   .debug_str:00000000000000f6 .LASF51
C:\Users\stapi\AppData\Local\Temp\ccsT5PxO.s:1752   .debug_str:00000000000000b7 .LASF52
C:\Users\stapi\AppData\Local\Temp\ccsT5PxO.s:1760   .debug_str:00000000000000de .LASF60
C:\Users\stapi\AppData\Local\Temp\ccsT5PxO.s:1790   .debug_str:0000000000000222 .LASF61
C:\Users\stapi\AppData\Local\Temp\ccsT5PxO.s:1754   .debug_str:00000000000000c0 .LASF53
C:\Users\stapi\AppData\Local\Temp\ccsT5PxO.s:1816   .debug_str:00000000000002cd .LASF54
C:\Users\stapi\AppData\Local\Temp\ccsT5PxO.s:242    .text.MQTTDeserialize_unsuback:0000000000000000 .LVL23
C:\Users\stapi\AppData\Local\Temp\ccsT5PxO.s:259    .text.MQTTDeserialize_unsuback:0000000000000018 .LVL26
C:\Users\stapi\AppData\Local\Temp\ccsT5PxO.s:257    .text.MQTTDeserialize_unsuback:0000000000000014 .LVL25
C:\Users\stapi\AppData\Local\Temp\ccsT5PxO.s:255    .text.MQTTDeserialize_unsuback:0000000000000010 .LVL24
C:\Users\stapi\AppData\Local\Temp\ccsT5PxO.s:266    .text.MQTTDeserialize_unsuback:0000000000000020 .LVL27
C:\Users\stapi\AppData\Local\Temp\ccsT5PxO.s:278    .text.MQTTDeserialize_unsuback:0000000000000034 .LVL29
C:\Users\stapi\AppData\Local\Temp\ccsT5PxO.s:95     .text.MQTTSerialize_unsubscribe:0000000000000000 .LVL7
C:\Users\stapi\AppData\Local\Temp\ccsT5PxO.s:126    .text.MQTTSerialize_unsubscribe:0000000000000014 .LVL10
C:\Users\stapi\AppData\Local\Temp\ccsT5PxO.s:124    .text.MQTTSerialize_unsubscribe:0000000000000012 .LVL9
C:\Users\stapi\AppData\Local\Temp\ccsT5PxO.s:116    .text.MQTTSerialize_unsubscribe:000000000000000e .LVL8
C:\Users\stapi\AppData\Local\Temp\ccsT5PxO.s:136    .text.MQTTSerialize_unsubscribe:0000000000000026 .LVL12
C:\Users\stapi\AppData\Local\Temp\ccsT5PxO.s:189    .text.MQTTSerialize_unsubscribe:0000000000000070 .LVL17
C:\Users\stapi\AppData\Local\Temp\ccsT5PxO.s:205    .text.MQTTSerialize_unsubscribe:000000000000007a .LVL18
C:\Users\stapi\AppData\Local\Temp\ccsT5PxO.s:223    .text.MQTTSerialize_unsubscribe:000000000000009c .LVL22
C:\Users\stapi\AppData\Local\Temp\ccsT5PxO.s:18     .text.MQTTSerialize_unsubscribeLength:0000000000000000 .LVL0
C:\Users\stapi\AppData\Local\Temp\ccsT5PxO.s:43     .text.MQTTSerialize_unsubscribeLength:0000000000000014 .LVL2
C:\Users\stapi\AppData\Local\Temp\ccsT5PxO.s:29     .text.MQTTSerialize_unsubscribeLength:0000000000000008 .LVL1
C:\Users\stapi\AppData\Local\Temp\ccsT5PxO.s:295    .debug_info:0000000000000000 .Ldebug_info0

UNDEFINED SYMBOLS
__riscv_save_5
__riscv_restore_5
memcpy
MQTTstrlen
__riscv_save_7
MQTTPacket_len
writeChar
MQTTPacket_encode
writeInt
__riscv_restore_7
writeMQTTString
__riscv_save_0
MQTTDeserialize_ack
__riscv_restore_0
