   1              		.file	"MQTTConnectClient.c"
   2              		.option nopic
   3              		.attribute arch, "rv32i2p0_m2p0_a2p0_f2p0_c2p0_b_p0p94"
   4              		.attribute unaligned_access, 0
   5              		.attribute stack_align, 16
   6              		.text
   7              	.Ltext0:
   8              		.cfi_sections	.debug_frame
   9              		.section	.text.MQTTSerialize_connectLength,"ax",@progbits
  10              		.align	1
  11              		.globl	MQTTSerialize_connectLength
  13              	MQTTSerialize_connectLength:
  14              	.LFB1:
  15              		.file 1 "C:/Users/stapi/OneDrive/Desktop/GD32VW553/V1_MQTT_OK/GD32VW55X_Wifi_BLE_SDK/GD32VW55x_REL
   1:C:/Users/stapi/OneDrive/Desktop/GD32VW553/V1_MQTT_OK/GD32VW55X_Wifi_BLE_SDK/GD32VW55x_RELEASE_V1.0.2/MSDK/cloud/alicloud/src/protocol/mqtt/MQTTPacket\MQTTConnectClient.c **** /*
   2:C:/Users/stapi/OneDrive/Desktop/GD32VW553/V1_MQTT_OK/GD32VW55X_Wifi_BLE_SDK/GD32VW55x_RELEASE_V1.0.2/MSDK/cloud/alicloud/src/protocol/mqtt/MQTTPacket\MQTTConnectClient.c ****  * Copyright (C) 2015-2018 Alibaba Group Holding Limited
   3:C:/Users/stapi/OneDrive/Desktop/GD32VW553/V1_MQTT_OK/GD32VW55X_Wifi_BLE_SDK/GD32VW55x_RELEASE_V1.0.2/MSDK/cloud/alicloud/src/protocol/mqtt/MQTTPacket\MQTTConnectClient.c ****  */
   4:C:/Users/stapi/OneDrive/Desktop/GD32VW553/V1_MQTT_OK/GD32VW55X_Wifi_BLE_SDK/GD32VW55x_RELEASE_V1.0.2/MSDK/cloud/alicloud/src/protocol/mqtt/MQTTPacket\MQTTConnectClient.c **** 
   5:C:/Users/stapi/OneDrive/Desktop/GD32VW553/V1_MQTT_OK/GD32VW55X_Wifi_BLE_SDK/GD32VW55x_RELEASE_V1.0.2/MSDK/cloud/alicloud/src/protocol/mqtt/MQTTPacket\MQTTConnectClient.c **** #include "MQTTPacket.h"
   6:C:/Users/stapi/OneDrive/Desktop/GD32VW553/V1_MQTT_OK/GD32VW55X_Wifi_BLE_SDK/GD32VW55x_RELEASE_V1.0.2/MSDK/cloud/alicloud/src/protocol/mqtt/MQTTPacket\MQTTConnectClient.c **** 
   7:C:/Users/stapi/OneDrive/Desktop/GD32VW553/V1_MQTT_OK/GD32VW55X_Wifi_BLE_SDK/GD32VW55x_RELEASE_V1.0.2/MSDK/cloud/alicloud/src/protocol/mqtt/MQTTPacket\MQTTConnectClient.c **** #include <string.h>
   8:C:/Users/stapi/OneDrive/Desktop/GD32VW553/V1_MQTT_OK/GD32VW55X_Wifi_BLE_SDK/GD32VW55x_RELEASE_V1.0.2/MSDK/cloud/alicloud/src/protocol/mqtt/MQTTPacket\MQTTConnectClient.c **** 
   9:C:/Users/stapi/OneDrive/Desktop/GD32VW553/V1_MQTT_OK/GD32VW55X_Wifi_BLE_SDK/GD32VW55x_RELEASE_V1.0.2/MSDK/cloud/alicloud/src/protocol/mqtt/MQTTPacket\MQTTConnectClient.c **** /**
  10:C:/Users/stapi/OneDrive/Desktop/GD32VW553/V1_MQTT_OK/GD32VW55X_Wifi_BLE_SDK/GD32VW55x_RELEASE_V1.0.2/MSDK/cloud/alicloud/src/protocol/mqtt/MQTTPacket\MQTTConnectClient.c ****   * Determines the length of the MQTT connect packet that would be produced using the supplied conn
  11:C:/Users/stapi/OneDrive/Desktop/GD32VW553/V1_MQTT_OK/GD32VW55X_Wifi_BLE_SDK/GD32VW55x_RELEASE_V1.0.2/MSDK/cloud/alicloud/src/protocol/mqtt/MQTTPacket\MQTTConnectClient.c ****   * @param options the options to be used to build the connect packet
  12:C:/Users/stapi/OneDrive/Desktop/GD32VW553/V1_MQTT_OK/GD32VW55X_Wifi_BLE_SDK/GD32VW55x_RELEASE_V1.0.2/MSDK/cloud/alicloud/src/protocol/mqtt/MQTTPacket\MQTTConnectClient.c ****   * @return the length of buffer needed to contain the serialized version of the packet
  13:C:/Users/stapi/OneDrive/Desktop/GD32VW553/V1_MQTT_OK/GD32VW55X_Wifi_BLE_SDK/GD32VW55x_RELEASE_V1.0.2/MSDK/cloud/alicloud/src/protocol/mqtt/MQTTPacket\MQTTConnectClient.c ****   */
  14:C:/Users/stapi/OneDrive/Desktop/GD32VW553/V1_MQTT_OK/GD32VW55X_Wifi_BLE_SDK/GD32VW55x_RELEASE_V1.0.2/MSDK/cloud/alicloud/src/protocol/mqtt/MQTTPacket\MQTTConnectClient.c **** int MQTTSerialize_connectLength(MQTTPacket_connectData* options)
  15:C:/Users/stapi/OneDrive/Desktop/GD32VW553/V1_MQTT_OK/GD32VW55X_Wifi_BLE_SDK/GD32VW55x_RELEASE_V1.0.2/MSDK/cloud/alicloud/src/protocol/mqtt/MQTTPacket\MQTTConnectClient.c **** {
  16              		.loc 1 15 1
  17              		.cfi_startproc
  18              	.LVL0:
  19 0000 17030000 		call	t0,__riscv_save_3
  19      E7020300 
  20              		.cfi_offset 18, -16
  21              		.cfi_offset 9, -12
  22              		.cfi_offset 8, -8
  23              		.cfi_offset 1, -4
  24              		.cfi_def_cfa_offset 16
  16:C:/Users/stapi/OneDrive/Desktop/GD32VW553/V1_MQTT_OK/GD32VW55X_Wifi_BLE_SDK/GD32VW55x_RELEASE_V1.0.2/MSDK/cloud/alicloud/src/protocol/mqtt/MQTTPacket\MQTTConnectClient.c **** 	int len = 0;
  25              		.loc 1 16 2
  26              	.LVL1:
  17:C:/Users/stapi/OneDrive/Desktop/GD32VW553/V1_MQTT_OK/GD32VW55X_Wifi_BLE_SDK/GD32VW55x_RELEASE_V1.0.2/MSDK/cloud/alicloud/src/protocol/mqtt/MQTTPacket\MQTTConnectClient.c **** 
  18:C:/Users/stapi/OneDrive/Desktop/GD32VW553/V1_MQTT_OK/GD32VW55X_Wifi_BLE_SDK/GD32VW55x_RELEASE_V1.0.2/MSDK/cloud/alicloud/src/protocol/mqtt/MQTTPacket\MQTTConnectClient.c **** 
  19:C:/Users/stapi/OneDrive/Desktop/GD32VW553/V1_MQTT_OK/GD32VW55X_Wifi_BLE_SDK/GD32VW55x_RELEASE_V1.0.2/MSDK/cloud/alicloud/src/protocol/mqtt/MQTTPacket\MQTTConnectClient.c **** 	if (options->MQTTVersion == 3)
  27              		.loc 1 19 2
  28              		.loc 1 19 13 is_stmt 0
  29 0008 83478500 		lbu	a5,8(a0)
  30              		.loc 1 19 5
  31 000c 0D47     		li	a4,3
  15:C:/Users/stapi/OneDrive/Desktop/GD32VW553/V1_MQTT_OK/GD32VW55X_Wifi_BLE_SDK/GD32VW55x_RELEASE_V1.0.2/MSDK/cloud/alicloud/src/protocol/mqtt/MQTTPacket\MQTTConnectClient.c **** 	int len = 0;
  32              		.loc 1 15 1
  33 000e 4111     		addi	sp,sp,-16
  34              		.cfi_def_cfa_offset 32
  15:C:/Users/stapi/OneDrive/Desktop/GD32VW553/V1_MQTT_OK/GD32VW55X_Wifi_BLE_SDK/GD32VW55x_RELEASE_V1.0.2/MSDK/cloud/alicloud/src/protocol/mqtt/MQTTPacket\MQTTConnectClient.c **** 	int len = 0;
  35              		.loc 1 15 1
  36 0010 2A84     		mv	s0,a0
  20:C:/Users/stapi/OneDrive/Desktop/GD32VW553/V1_MQTT_OK/GD32VW55X_Wifi_BLE_SDK/GD32VW55x_RELEASE_V1.0.2/MSDK/cloud/alicloud/src/protocol/mqtt/MQTTPacket\MQTTConnectClient.c **** 		len = 12; /* variable depending on MQTT or MQIsdp */
  37              		.loc 1 20 7
  38 0012 3149     		li	s2,12
  19:C:/Users/stapi/OneDrive/Desktop/GD32VW553/V1_MQTT_OK/GD32VW55X_Wifi_BLE_SDK/GD32VW55x_RELEASE_V1.0.2/MSDK/cloud/alicloud/src/protocol/mqtt/MQTTPacket\MQTTConnectClient.c **** 		len = 12; /* variable depending on MQTT or MQIsdp */
  39              		.loc 1 19 5
  40 0014 6387E700 		beq	a5,a4,.L2
  21:C:/Users/stapi/OneDrive/Desktop/GD32VW553/V1_MQTT_OK/GD32VW55X_Wifi_BLE_SDK/GD32VW55x_RELEASE_V1.0.2/MSDK/cloud/alicloud/src/protocol/mqtt/MQTTPacket\MQTTConnectClient.c **** 	else if (options->MQTTVersion == 4)
  41              		.loc 1 21 7 is_stmt 1
  42              		.loc 1 21 10 is_stmt 0
  43 0018 1147     		li	a4,4
  16:C:/Users/stapi/OneDrive/Desktop/GD32VW553/V1_MQTT_OK/GD32VW55X_Wifi_BLE_SDK/GD32VW55x_RELEASE_V1.0.2/MSDK/cloud/alicloud/src/protocol/mqtt/MQTTPacket\MQTTConnectClient.c **** 
  44              		.loc 1 16 6
  45 001a 0149     		li	s2,0
  46              		.loc 1 21 10
  47 001c 6393E700 		bne	a5,a4,.L2
  22:C:/Users/stapi/OneDrive/Desktop/GD32VW553/V1_MQTT_OK/GD32VW55X_Wifi_BLE_SDK/GD32VW55x_RELEASE_V1.0.2/MSDK/cloud/alicloud/src/protocol/mqtt/MQTTPacket\MQTTConnectClient.c **** 		len = 10;
  48              		.loc 1 22 7
  49 0020 2949     		li	s2,10
  50              	.L2:
  51              	.LVL2:
  23:C:/Users/stapi/OneDrive/Desktop/GD32VW553/V1_MQTT_OK/GD32VW55X_Wifi_BLE_SDK/GD32VW55x_RELEASE_V1.0.2/MSDK/cloud/alicloud/src/protocol/mqtt/MQTTPacket\MQTTConnectClient.c **** 
  24:C:/Users/stapi/OneDrive/Desktop/GD32VW553/V1_MQTT_OK/GD32VW55X_Wifi_BLE_SDK/GD32VW55x_RELEASE_V1.0.2/MSDK/cloud/alicloud/src/protocol/mqtt/MQTTPacket\MQTTConnectClient.c **** 	len += MQTTstrlen(options->clientID)+2;
  52              		.loc 1 24 2 is_stmt 1
  53              		.loc 1 24 9 is_stmt 0
  54 0022 3146     		li	a2,12
  55 0024 9305C400 		addi	a1,s0,12
  56 0028 0A85     		mv	a0,sp
  57              	.LVL3:
  58 002a 97000000 		call	memcpy
  58      E7800000 
  59              	.LVL4:
  60 0032 0A85     		mv	a0,sp
  61 0034 97000000 		call	MQTTstrlen
  61      E7800000 
  62              	.LVL5:
  25:C:/Users/stapi/OneDrive/Desktop/GD32VW553/V1_MQTT_OK/GD32VW55X_Wifi_BLE_SDK/GD32VW55x_RELEASE_V1.0.2/MSDK/cloud/alicloud/src/protocol/mqtt/MQTTPacket\MQTTConnectClient.c **** 	if (options->willFlag)
  63              		.loc 1 25 5
  64 003c 8347B401 		lbu	a5,27(s0)
  24:C:/Users/stapi/OneDrive/Desktop/GD32VW553/V1_MQTT_OK/GD32VW55X_Wifi_BLE_SDK/GD32VW55x_RELEASE_V1.0.2/MSDK/cloud/alicloud/src/protocol/mqtt/MQTTPacket\MQTTConnectClient.c **** 	if (options->willFlag)
  65              		.loc 1 24 38
  66 0040 93042500 		addi	s1,a0,2
  24:C:/Users/stapi/OneDrive/Desktop/GD32VW553/V1_MQTT_OK/GD32VW55X_Wifi_BLE_SDK/GD32VW55x_RELEASE_V1.0.2/MSDK/cloud/alicloud/src/protocol/mqtt/MQTTPacket\MQTTConnectClient.c **** 	if (options->willFlag)
  67              		.loc 1 24 6
  68 0044 CA94     		add	s1,s1,s2
  69              	.LVL6:
  70              		.loc 1 25 2 is_stmt 1
  71              		.loc 1 25 5 is_stmt 0
  72 0046 9DCF     		beq	a5,zero,.L3
  26:C:/Users/stapi/OneDrive/Desktop/GD32VW553/V1_MQTT_OK/GD32VW55X_Wifi_BLE_SDK/GD32VW55x_RELEASE_V1.0.2/MSDK/cloud/alicloud/src/protocol/mqtt/MQTTPacket\MQTTConnectClient.c **** 		len += MQTTstrlen(options->will.topicName)+2 + MQTTstrlen(options->will.message)+2;
  73              		.loc 1 26 3 is_stmt 1
  74              		.loc 1 26 10 is_stmt 0
  75 0048 3146     		li	a2,12
  76 004a 93054402 		addi	a1,s0,36
  77 004e 0A85     		mv	a0,sp
  78 0050 97000000 		call	memcpy
  78      E7800000 
  79              	.LVL7:
  80 0058 0A85     		mv	a0,sp
  81 005a 97000000 		call	MQTTstrlen
  81      E7800000 
  82              	.LVL8:
  83 0062 2A89     		mv	s2,a0
  84              		.loc 1 26 50
  85 0064 3146     		li	a2,12
  86 0066 93050403 		addi	a1,s0,48
  87 006a 0A85     		mv	a0,sp
  88 006c 97000000 		call	memcpy
  88      E7800000 
  89              	.LVL9:
  90 0074 0A85     		mv	a0,sp
  91 0076 97000000 		call	MQTTstrlen
  91      E7800000 
  92              	.LVL10:
  93              		.loc 1 26 48
  94 007e 2A99     		add	s2,s2,a0
  95              		.loc 1 26 83
  96 0080 1109     		addi	s2,s2,4
  97              		.loc 1 26 7
  98 0082 CA94     		add	s1,s1,s2
  99              	.LVL11:
 100              	.L3:
  27:C:/Users/stapi/OneDrive/Desktop/GD32VW553/V1_MQTT_OK/GD32VW55X_Wifi_BLE_SDK/GD32VW55x_RELEASE_V1.0.2/MSDK/cloud/alicloud/src/protocol/mqtt/MQTTPacket\MQTTConnectClient.c **** 	if (options->username.cstring || options->username.lenstring.data)
 101              		.loc 1 27 2 is_stmt 1
 102              		.loc 1 27 5 is_stmt 0
 103 0084 3C40     		lw	a5,64(s0)
 104 0086 99E3     		bne	a5,zero,.L4
 105              		.loc 1 27 32 discriminator 1
 106 0088 3C44     		lw	a5,72(s0)
 107 008a 85C3     		beq	a5,zero,.L5
 108              	.L4:
  28:C:/Users/stapi/OneDrive/Desktop/GD32VW553/V1_MQTT_OK/GD32VW55X_Wifi_BLE_SDK/GD32VW55x_RELEASE_V1.0.2/MSDK/cloud/alicloud/src/protocol/mqtt/MQTTPacket\MQTTConnectClient.c **** 		len += MQTTstrlen(options->username)+2;
 109              		.loc 1 28 3 is_stmt 1
 110              		.loc 1 28 10 is_stmt 0
 111 008c 3146     		li	a2,12
 112 008e 93050404 		addi	a1,s0,64
 113 0092 0A85     		mv	a0,sp
 114 0094 97000000 		call	memcpy
 114      E7800000 
 115              	.LVL12:
 116 009c 0A85     		mv	a0,sp
 117 009e 97000000 		call	MQTTstrlen
 117      E7800000 
 118              	.LVL13:
 119              		.loc 1 28 39
 120 00a6 0905     		addi	a0,a0,2
 121              		.loc 1 28 7
 122 00a8 AA94     		add	s1,s1,a0
 123              	.LVL14:
 124              	.L5:
  29:C:/Users/stapi/OneDrive/Desktop/GD32VW553/V1_MQTT_OK/GD32VW55X_Wifi_BLE_SDK/GD32VW55x_RELEASE_V1.0.2/MSDK/cloud/alicloud/src/protocol/mqtt/MQTTPacket\MQTTConnectClient.c **** 	if (options->password.cstring || options->password.lenstring.data)
 125              		.loc 1 29 2 is_stmt 1
 126              		.loc 1 29 5 is_stmt 0
 127 00aa 7C44     		lw	a5,76(s0)
 128 00ac 99E3     		bne	a5,zero,.L6
 129              		.loc 1 29 32 discriminator 1
 130 00ae 7C48     		lw	a5,84(s0)
 131 00b0 85C3     		beq	a5,zero,.L1
 132              	.L6:
  30:C:/Users/stapi/OneDrive/Desktop/GD32VW553/V1_MQTT_OK/GD32VW55X_Wifi_BLE_SDK/GD32VW55x_RELEASE_V1.0.2/MSDK/cloud/alicloud/src/protocol/mqtt/MQTTPacket\MQTTConnectClient.c **** 		len += MQTTstrlen(options->password)+2;
 133              		.loc 1 30 3 is_stmt 1
 134              		.loc 1 30 10 is_stmt 0
 135 00b2 3146     		li	a2,12
 136 00b4 9305C404 		addi	a1,s0,76
 137 00b8 0A85     		mv	a0,sp
 138 00ba 97000000 		call	memcpy
 138      E7800000 
 139              	.LVL15:
 140 00c2 0A85     		mv	a0,sp
 141 00c4 97000000 		call	MQTTstrlen
 141      E7800000 
 142              	.LVL16:
 143              		.loc 1 30 39
 144 00cc 0905     		addi	a0,a0,2
 145              		.loc 1 30 7
 146 00ce AA94     		add	s1,s1,a0
 147              	.LVL17:
  31:C:/Users/stapi/OneDrive/Desktop/GD32VW553/V1_MQTT_OK/GD32VW55X_Wifi_BLE_SDK/GD32VW55x_RELEASE_V1.0.2/MSDK/cloud/alicloud/src/protocol/mqtt/MQTTPacket\MQTTConnectClient.c **** 
  32:C:/Users/stapi/OneDrive/Desktop/GD32VW553/V1_MQTT_OK/GD32VW55X_Wifi_BLE_SDK/GD32VW55x_RELEASE_V1.0.2/MSDK/cloud/alicloud/src/protocol/mqtt/MQTTPacket\MQTTConnectClient.c **** 	return len;
 148              		.loc 1 32 2 is_stmt 1
 149              	.L1:
  33:C:/Users/stapi/OneDrive/Desktop/GD32VW553/V1_MQTT_OK/GD32VW55X_Wifi_BLE_SDK/GD32VW55x_RELEASE_V1.0.2/MSDK/cloud/alicloud/src/protocol/mqtt/MQTTPacket\MQTTConnectClient.c **** }
 150              		.loc 1 33 1 is_stmt 0
 151 00d0 2685     		mv	a0,s1
 152 00d2 4101     		addi	sp,sp,16
 153              		.cfi_def_cfa_offset 0
 154 00d4 17030000 		tail	__riscv_restore_3
 154      67000300 
 155              		.cfi_restore 18
 156              		.cfi_restore 9
 157              		.cfi_restore 8
 158              		.cfi_restore 1
 159              		.cfi_def_cfa_offset -16
 160              		.cfi_endproc
 161              	.LFE1:
 163              		.section	.rodata.MQTTSerialize_connect.str1.4,"aMS",@progbits,1
 164              		.align	2
 165              	.LC0:
 166 0000 4D515454 		.string	"MQTT"
 166      00
 167 0005 000000   		.align	2
 168              	.LC1:
 169 0008 4D514973 		.string	"MQIsdp"
 169      647000
 170              		.section	.text.MQTTSerialize_connect,"ax",@progbits
 171              		.align	1
 172              		.globl	MQTTSerialize_connect
 174              	MQTTSerialize_connect:
 175              	.LFB2:
  34:C:/Users/stapi/OneDrive/Desktop/GD32VW553/V1_MQTT_OK/GD32VW55X_Wifi_BLE_SDK/GD32VW55x_RELEASE_V1.0.2/MSDK/cloud/alicloud/src/protocol/mqtt/MQTTPacket\MQTTConnectClient.c **** 
  35:C:/Users/stapi/OneDrive/Desktop/GD32VW553/V1_MQTT_OK/GD32VW55X_Wifi_BLE_SDK/GD32VW55x_RELEASE_V1.0.2/MSDK/cloud/alicloud/src/protocol/mqtt/MQTTPacket\MQTTConnectClient.c **** 
  36:C:/Users/stapi/OneDrive/Desktop/GD32VW553/V1_MQTT_OK/GD32VW55X_Wifi_BLE_SDK/GD32VW55x_RELEASE_V1.0.2/MSDK/cloud/alicloud/src/protocol/mqtt/MQTTPacket\MQTTConnectClient.c **** /**
  37:C:/Users/stapi/OneDrive/Desktop/GD32VW553/V1_MQTT_OK/GD32VW55X_Wifi_BLE_SDK/GD32VW55x_RELEASE_V1.0.2/MSDK/cloud/alicloud/src/protocol/mqtt/MQTTPacket\MQTTConnectClient.c ****   * Serializes the connect options into the buffer.
  38:C:/Users/stapi/OneDrive/Desktop/GD32VW553/V1_MQTT_OK/GD32VW55X_Wifi_BLE_SDK/GD32VW55x_RELEASE_V1.0.2/MSDK/cloud/alicloud/src/protocol/mqtt/MQTTPacket\MQTTConnectClient.c ****   * @param buf the buffer into which the packet will be serialized
  39:C:/Users/stapi/OneDrive/Desktop/GD32VW553/V1_MQTT_OK/GD32VW55X_Wifi_BLE_SDK/GD32VW55x_RELEASE_V1.0.2/MSDK/cloud/alicloud/src/protocol/mqtt/MQTTPacket\MQTTConnectClient.c ****   * @param len the length in bytes of the supplied buffer
  40:C:/Users/stapi/OneDrive/Desktop/GD32VW553/V1_MQTT_OK/GD32VW55X_Wifi_BLE_SDK/GD32VW55x_RELEASE_V1.0.2/MSDK/cloud/alicloud/src/protocol/mqtt/MQTTPacket\MQTTConnectClient.c ****   * @param options the options to be used to build the connect packet
  41:C:/Users/stapi/OneDrive/Desktop/GD32VW553/V1_MQTT_OK/GD32VW55X_Wifi_BLE_SDK/GD32VW55x_RELEASE_V1.0.2/MSDK/cloud/alicloud/src/protocol/mqtt/MQTTPacket\MQTTConnectClient.c ****   * @return serialized length, or error if 0
  42:C:/Users/stapi/OneDrive/Desktop/GD32VW553/V1_MQTT_OK/GD32VW55X_Wifi_BLE_SDK/GD32VW55x_RELEASE_V1.0.2/MSDK/cloud/alicloud/src/protocol/mqtt/MQTTPacket\MQTTConnectClient.c ****   */
  43:C:/Users/stapi/OneDrive/Desktop/GD32VW553/V1_MQTT_OK/GD32VW55X_Wifi_BLE_SDK/GD32VW55x_RELEASE_V1.0.2/MSDK/cloud/alicloud/src/protocol/mqtt/MQTTPacket\MQTTConnectClient.c **** int MQTTSerialize_connect(unsigned char* buf, int buflen, MQTTPacket_connectData* options)
  44:C:/Users/stapi/OneDrive/Desktop/GD32VW553/V1_MQTT_OK/GD32VW55X_Wifi_BLE_SDK/GD32VW55x_RELEASE_V1.0.2/MSDK/cloud/alicloud/src/protocol/mqtt/MQTTPacket\MQTTConnectClient.c **** {
 176              		.loc 1 44 1 is_stmt 1
 177              		.cfi_startproc
 178              	.LVL18:
 179 0000 17030000 		call	t0,__riscv_save_4
 179      E7020300 
 180              		.cfi_offset 19, -20
 181              		.cfi_offset 18, -16
 182              		.cfi_offset 9, -12
 183              		.cfi_offset 8, -8
 184              		.cfi_offset 1, -4
 185              		.cfi_def_cfa_offset 32
  45:C:/Users/stapi/OneDrive/Desktop/GD32VW553/V1_MQTT_OK/GD32VW55X_Wifi_BLE_SDK/GD32VW55x_RELEASE_V1.0.2/MSDK/cloud/alicloud/src/protocol/mqtt/MQTTPacket\MQTTConnectClient.c **** 	unsigned char *ptr = buf;
 186              		.loc 1 45 2
  44:C:/Users/stapi/OneDrive/Desktop/GD32VW553/V1_MQTT_OK/GD32VW55X_Wifi_BLE_SDK/GD32VW55x_RELEASE_V1.0.2/MSDK/cloud/alicloud/src/protocol/mqtt/MQTTPacket\MQTTConnectClient.c **** 	unsigned char *ptr = buf;
 187              		.loc 1 44 1 is_stmt 0
 188 0008 0111     		addi	sp,sp,-32
 189              		.cfi_def_cfa_offset 64
 190              		.loc 1 45 17
 191 000a 2ACE     		sw	a0,28(sp)
  46:C:/Users/stapi/OneDrive/Desktop/GD32VW553/V1_MQTT_OK/GD32VW55X_Wifi_BLE_SDK/GD32VW55x_RELEASE_V1.0.2/MSDK/cloud/alicloud/src/protocol/mqtt/MQTTPacket\MQTTConnectClient.c **** 	MQTTHeader header = {0};
 192              		.loc 1 46 2 is_stmt 1
  47:C:/Users/stapi/OneDrive/Desktop/GD32VW553/V1_MQTT_OK/GD32VW55X_Wifi_BLE_SDK/GD32VW55x_RELEASE_V1.0.2/MSDK/cloud/alicloud/src/protocol/mqtt/MQTTPacket\MQTTConnectClient.c **** 	MQTTConnectFlags flags = {0};
 193              		.loc 1 47 2
  48:C:/Users/stapi/OneDrive/Desktop/GD32VW553/V1_MQTT_OK/GD32VW55X_Wifi_BLE_SDK/GD32VW55x_RELEASE_V1.0.2/MSDK/cloud/alicloud/src/protocol/mqtt/MQTTPacket\MQTTConnectClient.c **** 	int len = 0;
 194              		.loc 1 48 2
 195              	.LVL19:
  49:C:/Users/stapi/OneDrive/Desktop/GD32VW553/V1_MQTT_OK/GD32VW55X_Wifi_BLE_SDK/GD32VW55x_RELEASE_V1.0.2/MSDK/cloud/alicloud/src/protocol/mqtt/MQTTPacket\MQTTConnectClient.c **** 	int rc = -1;
 196              		.loc 1 49 2
  50:C:/Users/stapi/OneDrive/Desktop/GD32VW553/V1_MQTT_OK/GD32VW55X_Wifi_BLE_SDK/GD32VW55x_RELEASE_V1.0.2/MSDK/cloud/alicloud/src/protocol/mqtt/MQTTPacket\MQTTConnectClient.c **** 
  51:C:/Users/stapi/OneDrive/Desktop/GD32VW553/V1_MQTT_OK/GD32VW55X_Wifi_BLE_SDK/GD32VW55x_RELEASE_V1.0.2/MSDK/cloud/alicloud/src/protocol/mqtt/MQTTPacket\MQTTConnectClient.c **** 	if (MQTTPacket_len(len = MQTTSerialize_connectLength(options)) > buflen)
 197              		.loc 1 51 2
  44:C:/Users/stapi/OneDrive/Desktop/GD32VW553/V1_MQTT_OK/GD32VW55X_Wifi_BLE_SDK/GD32VW55x_RELEASE_V1.0.2/MSDK/cloud/alicloud/src/protocol/mqtt/MQTTPacket\MQTTConnectClient.c **** 	unsigned char *ptr = buf;
 198              		.loc 1 44 1 is_stmt 0
 199 000c 2A89     		mv	s2,a0
 200              		.loc 1 51 27
 201 000e 3285     		mv	a0,a2
 202              	.LVL20:
  44:C:/Users/stapi/OneDrive/Desktop/GD32VW553/V1_MQTT_OK/GD32VW55X_Wifi_BLE_SDK/GD32VW55x_RELEASE_V1.0.2/MSDK/cloud/alicloud/src/protocol/mqtt/MQTTPacket\MQTTConnectClient.c **** 	unsigned char *ptr = buf;
 203              		.loc 1 44 1
 204 0010 AE89     		mv	s3,a1
 205 0012 3284     		mv	s0,a2
 206              		.loc 1 51 27
 207 0014 97000000 		call	MQTTSerialize_connectLength
 207      E7800000 
 208              	.LVL21:
 209 001c AA84     		mv	s1,a0
 210              	.LVL22:
 211              		.loc 1 51 6
 212 001e 97000000 		call	MQTTPacket_len
 212      E7800000 
 213              	.LVL23:
 214              		.loc 1 51 5
 215 0026 63CAA916 		bgt	a0,s3,.L32
  52:C:/Users/stapi/OneDrive/Desktop/GD32VW553/V1_MQTT_OK/GD32VW55X_Wifi_BLE_SDK/GD32VW55x_RELEASE_V1.0.2/MSDK/cloud/alicloud/src/protocol/mqtt/MQTTPacket\MQTTConnectClient.c **** 	{
  53:C:/Users/stapi/OneDrive/Desktop/GD32VW553/V1_MQTT_OK/GD32VW55X_Wifi_BLE_SDK/GD32VW55x_RELEASE_V1.0.2/MSDK/cloud/alicloud/src/protocol/mqtt/MQTTPacket\MQTTConnectClient.c **** 		rc = MQTTPACKET_BUFFER_TOO_SHORT;
  54:C:/Users/stapi/OneDrive/Desktop/GD32VW553/V1_MQTT_OK/GD32VW55X_Wifi_BLE_SDK/GD32VW55x_RELEASE_V1.0.2/MSDK/cloud/alicloud/src/protocol/mqtt/MQTTPacket\MQTTConnectClient.c **** 		goto exit;
  55:C:/Users/stapi/OneDrive/Desktop/GD32VW553/V1_MQTT_OK/GD32VW55X_Wifi_BLE_SDK/GD32VW55x_RELEASE_V1.0.2/MSDK/cloud/alicloud/src/protocol/mqtt/MQTTPacket\MQTTConnectClient.c **** 	}
  56:C:/Users/stapi/OneDrive/Desktop/GD32VW553/V1_MQTT_OK/GD32VW55X_Wifi_BLE_SDK/GD32VW55x_RELEASE_V1.0.2/MSDK/cloud/alicloud/src/protocol/mqtt/MQTTPacket\MQTTConnectClient.c **** 
  57:C:/Users/stapi/OneDrive/Desktop/GD32VW553/V1_MQTT_OK/GD32VW55X_Wifi_BLE_SDK/GD32VW55x_RELEASE_V1.0.2/MSDK/cloud/alicloud/src/protocol/mqtt/MQTTPacket\MQTTConnectClient.c **** 	header.byte = 0;
 216              		.loc 1 57 2 is_stmt 1
  58:C:/Users/stapi/OneDrive/Desktop/GD32VW553/V1_MQTT_OK/GD32VW55X_Wifi_BLE_SDK/GD32VW55x_RELEASE_V1.0.2/MSDK/cloud/alicloud/src/protocol/mqtt/MQTTPacket\MQTTConnectClient.c **** 	header.bits.type = CONNECT;
 217              		.loc 1 58 2
  59:C:/Users/stapi/OneDrive/Desktop/GD32VW553/V1_MQTT_OK/GD32VW55X_Wifi_BLE_SDK/GD32VW55x_RELEASE_V1.0.2/MSDK/cloud/alicloud/src/protocol/mqtt/MQTTPacket\MQTTConnectClient.c **** 	writeChar(&ptr, header.byte); /* write header */
 218              		.loc 1 59 2
 219 002a C145     		li	a1,16
 220 002c 6808     		addi	a0,sp,28
 221 002e 97000000 		call	writeChar
 221      E7800000 
 222              	.LVL24:
  60:C:/Users/stapi/OneDrive/Desktop/GD32VW553/V1_MQTT_OK/GD32VW55X_Wifi_BLE_SDK/GD32VW55x_RELEASE_V1.0.2/MSDK/cloud/alicloud/src/protocol/mqtt/MQTTPacket\MQTTConnectClient.c **** 
  61:C:/Users/stapi/OneDrive/Desktop/GD32VW553/V1_MQTT_OK/GD32VW55X_Wifi_BLE_SDK/GD32VW55x_RELEASE_V1.0.2/MSDK/cloud/alicloud/src/protocol/mqtt/MQTTPacket\MQTTConnectClient.c **** 	ptr += MQTTPacket_encode(ptr, len); /* write remaining length */
 223              		.loc 1 61 2
 224              		.loc 1 61 9 is_stmt 0
 225 0036 7245     		lw	a0,28(sp)
 226 0038 A685     		mv	a1,s1
 227 003a 97000000 		call	MQTTPacket_encode
 227      E7800000 
 228              	.LVL25:
 229              		.loc 1 61 6
 230 0042 F247     		lw	a5,28(sp)
  62:C:/Users/stapi/OneDrive/Desktop/GD32VW553/V1_MQTT_OK/GD32VW55X_Wifi_BLE_SDK/GD32VW55x_RELEASE_V1.0.2/MSDK/cloud/alicloud/src/protocol/mqtt/MQTTPacket\MQTTConnectClient.c **** 
  63:C:/Users/stapi/OneDrive/Desktop/GD32VW553/V1_MQTT_OK/GD32VW55X_Wifi_BLE_SDK/GD32VW55x_RELEASE_V1.0.2/MSDK/cloud/alicloud/src/protocol/mqtt/MQTTPacket\MQTTConnectClient.c **** 	if (options->MQTTVersion == 4)
 231              		.loc 1 63 5
 232 0044 03478400 		lbu	a4,8(s0)
  61:C:/Users/stapi/OneDrive/Desktop/GD32VW553/V1_MQTT_OK/GD32VW55X_Wifi_BLE_SDK/GD32VW55x_RELEASE_V1.0.2/MSDK/cloud/alicloud/src/protocol/mqtt/MQTTPacket\MQTTConnectClient.c **** 
 233              		.loc 1 61 6
 234 0048 AA97     		add	a5,a5,a0
 235 004a 3ECE     		sw	a5,28(sp)
 236              		.loc 1 63 2 is_stmt 1
 237              		.loc 1 63 5 is_stmt 0
 238 004c 9147     		li	a5,4
 239 004e 631BF712 		bne	a4,a5,.L22
  64:C:/Users/stapi/OneDrive/Desktop/GD32VW553/V1_MQTT_OK/GD32VW55X_Wifi_BLE_SDK/GD32VW55x_RELEASE_V1.0.2/MSDK/cloud/alicloud/src/protocol/mqtt/MQTTPacket\MQTTConnectClient.c **** 	{
  65:C:/Users/stapi/OneDrive/Desktop/GD32VW553/V1_MQTT_OK/GD32VW55X_Wifi_BLE_SDK/GD32VW55x_RELEASE_V1.0.2/MSDK/cloud/alicloud/src/protocol/mqtt/MQTTPacket\MQTTConnectClient.c **** 		writeCString(&ptr, "MQTT");
 240              		.loc 1 65 3 is_stmt 1
 241 0052 B7050000 		lui	a1,%hi(.LC0)
 242 0056 93850500 		addi	a1,a1,%lo(.LC0)
 243 005a 6808     		addi	a0,sp,28
 244 005c 97000000 		call	writeCString
 244      E7800000 
 245              	.LVL26:
  66:C:/Users/stapi/OneDrive/Desktop/GD32VW553/V1_MQTT_OK/GD32VW55X_Wifi_BLE_SDK/GD32VW55x_RELEASE_V1.0.2/MSDK/cloud/alicloud/src/protocol/mqtt/MQTTPacket\MQTTConnectClient.c **** 		writeChar(&ptr, (char) 4);
 246              		.loc 1 66 3
 247 0064 9145     		li	a1,4
 248              	.L49:
  67:C:/Users/stapi/OneDrive/Desktop/GD32VW553/V1_MQTT_OK/GD32VW55X_Wifi_BLE_SDK/GD32VW55x_RELEASE_V1.0.2/MSDK/cloud/alicloud/src/protocol/mqtt/MQTTPacket\MQTTConnectClient.c **** 	}
  68:C:/Users/stapi/OneDrive/Desktop/GD32VW553/V1_MQTT_OK/GD32VW55X_Wifi_BLE_SDK/GD32VW55x_RELEASE_V1.0.2/MSDK/cloud/alicloud/src/protocol/mqtt/MQTTPacket\MQTTConnectClient.c **** 	else
  69:C:/Users/stapi/OneDrive/Desktop/GD32VW553/V1_MQTT_OK/GD32VW55X_Wifi_BLE_SDK/GD32VW55x_RELEASE_V1.0.2/MSDK/cloud/alicloud/src/protocol/mqtt/MQTTPacket\MQTTConnectClient.c **** 	{
  70:C:/Users/stapi/OneDrive/Desktop/GD32VW553/V1_MQTT_OK/GD32VW55X_Wifi_BLE_SDK/GD32VW55x_RELEASE_V1.0.2/MSDK/cloud/alicloud/src/protocol/mqtt/MQTTPacket\MQTTConnectClient.c **** 		writeCString(&ptr, "MQIsdp");
  71:C:/Users/stapi/OneDrive/Desktop/GD32VW553/V1_MQTT_OK/GD32VW55X_Wifi_BLE_SDK/GD32VW55x_RELEASE_V1.0.2/MSDK/cloud/alicloud/src/protocol/mqtt/MQTTPacket\MQTTConnectClient.c **** 		writeChar(&ptr, (char) 3);
 249              		.loc 1 71 3 is_stmt 0
 250 0066 6808     		addi	a0,sp,28
 251 0068 97000000 		call	writeChar
 251      E7800000 
 252              	.LVL27:
  72:C:/Users/stapi/OneDrive/Desktop/GD32VW553/V1_MQTT_OK/GD32VW55X_Wifi_BLE_SDK/GD32VW55x_RELEASE_V1.0.2/MSDK/cloud/alicloud/src/protocol/mqtt/MQTTPacket\MQTTConnectClient.c **** 	}
  73:C:/Users/stapi/OneDrive/Desktop/GD32VW553/V1_MQTT_OK/GD32VW55X_Wifi_BLE_SDK/GD32VW55x_RELEASE_V1.0.2/MSDK/cloud/alicloud/src/protocol/mqtt/MQTTPacket\MQTTConnectClient.c **** 
  74:C:/Users/stapi/OneDrive/Desktop/GD32VW553/V1_MQTT_OK/GD32VW55X_Wifi_BLE_SDK/GD32VW55x_RELEASE_V1.0.2/MSDK/cloud/alicloud/src/protocol/mqtt/MQTTPacket\MQTTConnectClient.c **** 	flags.all = 0;
 253              		.loc 1 74 2 is_stmt 1
  75:C:/Users/stapi/OneDrive/Desktop/GD32VW553/V1_MQTT_OK/GD32VW55X_Wifi_BLE_SDK/GD32VW55x_RELEASE_V1.0.2/MSDK/cloud/alicloud/src/protocol/mqtt/MQTTPacket\MQTTConnectClient.c **** 	flags.bits.cleansession = options->cleansession;
 254              		.loc 1 75 2
  76:C:/Users/stapi/OneDrive/Desktop/GD32VW553/V1_MQTT_OK/GD32VW55X_Wifi_BLE_SDK/GD32VW55x_RELEASE_V1.0.2/MSDK/cloud/alicloud/src/protocol/mqtt/MQTTPacket\MQTTConnectClient.c **** 	flags.bits.will = (options->willFlag) ? 1 : 0;
 255              		.loc 1 76 2
 256              		.loc 1 76 44 is_stmt 0
 257 0070 8347B401 		lbu	a5,27(s0)
  75:C:/Users/stapi/OneDrive/Desktop/GD32VW553/V1_MQTT_OK/GD32VW55X_Wifi_BLE_SDK/GD32VW55x_RELEASE_V1.0.2/MSDK/cloud/alicloud/src/protocol/mqtt/MQTTPacket\MQTTConnectClient.c **** 	flags.bits.cleansession = options->cleansession;
 258              		.loc 1 75 26
 259 0074 8345A401 		lbu	a1,26(s0)
 260              		.loc 1 76 44
 261 0078 B337F000 		snez	a5,a5
  75:C:/Users/stapi/OneDrive/Desktop/GD32VW553/V1_MQTT_OK/GD32VW55X_Wifi_BLE_SDK/GD32VW55x_RELEASE_V1.0.2/MSDK/cloud/alicloud/src/protocol/mqtt/MQTTPacket\MQTTConnectClient.c **** 	flags.bits.cleansession = options->cleansession;
 262              		.loc 1 75 26
 263 007c 8605     		slli	a1,a1,1
 264 007e 8A07     		slli	a5,a5,2
 265 0080 8989     		andi	a1,a1,2
 266 0082 DD8D     		or	a1,a5,a1
 267              	.LVL28:
  77:C:/Users/stapi/OneDrive/Desktop/GD32VW553/V1_MQTT_OK/GD32VW55X_Wifi_BLE_SDK/GD32VW55x_RELEASE_V1.0.2/MSDK/cloud/alicloud/src/protocol/mqtt/MQTTPacket\MQTTConnectClient.c **** 	if (flags.bits.will)
 268              		.loc 1 77 2 is_stmt 1
 269              		.loc 1 77 5 is_stmt 0
 270 0084 81CF     		beq	a5,zero,.L24
  78:C:/Users/stapi/OneDrive/Desktop/GD32VW553/V1_MQTT_OK/GD32VW55X_Wifi_BLE_SDK/GD32VW55x_RELEASE_V1.0.2/MSDK/cloud/alicloud/src/protocol/mqtt/MQTTPacket\MQTTConnectClient.c **** 	{
  79:C:/Users/stapi/OneDrive/Desktop/GD32VW553/V1_MQTT_OK/GD32VW55X_Wifi_BLE_SDK/GD32VW55x_RELEASE_V1.0.2/MSDK/cloud/alicloud/src/protocol/mqtt/MQTTPacket\MQTTConnectClient.c **** 		flags.bits.willQoS = options->will.qos;
 271              		.loc 1 79 3 is_stmt 1
  80:C:/Users/stapi/OneDrive/Desktop/GD32VW553/V1_MQTT_OK/GD32VW55X_Wifi_BLE_SDK/GD32VW55x_RELEASE_V1.0.2/MSDK/cloud/alicloud/src/protocol/mqtt/MQTTPacket\MQTTConnectClient.c **** 		flags.bits.willRetain = options->will.retained;
 272              		.loc 1 80 3
  79:C:/Users/stapi/OneDrive/Desktop/GD32VW553/V1_MQTT_OK/GD32VW55X_Wifi_BLE_SDK/GD32VW55x_RELEASE_V1.0.2/MSDK/cloud/alicloud/src/protocol/mqtt/MQTTPacket\MQTTConnectClient.c **** 		flags.bits.willRetain = options->will.retained;
 273              		.loc 1 79 22 is_stmt 0
 274 0086 8347C403 		lbu	a5,60(s0)
 275 008a 0347D403 		lbu	a4,61(s0)
 276 008e 9607     		slli	a5,a5,5
 277 0090 0E07     		slli	a4,a4,3
 278 0092 93F70702 		andi	a5,a5,32
 279 0096 618B     		andi	a4,a4,24
 280 0098 D98F     		or	a5,a5,a4
 281              	.LVL29:
 282 009a DD8D     		or	a1,a5,a1
 283              	.LVL30:
 284              	.L24:
  81:C:/Users/stapi/OneDrive/Desktop/GD32VW553/V1_MQTT_OK/GD32VW55X_Wifi_BLE_SDK/GD32VW55x_RELEASE_V1.0.2/MSDK/cloud/alicloud/src/protocol/mqtt/MQTTPacket\MQTTConnectClient.c **** 	}
  82:C:/Users/stapi/OneDrive/Desktop/GD32VW553/V1_MQTT_OK/GD32VW55X_Wifi_BLE_SDK/GD32VW55x_RELEASE_V1.0.2/MSDK/cloud/alicloud/src/protocol/mqtt/MQTTPacket\MQTTConnectClient.c **** 
  83:C:/Users/stapi/OneDrive/Desktop/GD32VW553/V1_MQTT_OK/GD32VW55X_Wifi_BLE_SDK/GD32VW55x_RELEASE_V1.0.2/MSDK/cloud/alicloud/src/protocol/mqtt/MQTTPacket\MQTTConnectClient.c **** 	if (options->username.cstring || options->username.lenstring.data)
 285              		.loc 1 83 2 is_stmt 1
 286              		.loc 1 83 5 is_stmt 0
 287 009c 3C40     		lw	a5,64(s0)
 288 009e 99E3     		bne	a5,zero,.L25
 289              		.loc 1 83 32 discriminator 1
 290 00a0 3C44     		lw	a5,72(s0)
 291 00a2 99C3     		beq	a5,zero,.L26
 292              	.L25:
  84:C:/Users/stapi/OneDrive/Desktop/GD32VW553/V1_MQTT_OK/GD32VW55X_Wifi_BLE_SDK/GD32VW55x_RELEASE_V1.0.2/MSDK/cloud/alicloud/src/protocol/mqtt/MQTTPacket\MQTTConnectClient.c **** 		flags.bits.username = 1;
 293              		.loc 1 84 3 is_stmt 1
 294              	.LVL31:
 295              		.loc 1 84 23 is_stmt 0
 296 00a4 93E50508 		ori	a1,a1,128
 297              	.LVL32:
 298              	.L26:
  85:C:/Users/stapi/OneDrive/Desktop/GD32VW553/V1_MQTT_OK/GD32VW55X_Wifi_BLE_SDK/GD32VW55x_RELEASE_V1.0.2/MSDK/cloud/alicloud/src/protocol/mqtt/MQTTPacket\MQTTConnectClient.c **** 	if (options->password.cstring || options->password.lenstring.data)
 299              		.loc 1 85 2 is_stmt 1
 300              		.loc 1 85 5 is_stmt 0
 301 00a8 7C44     		lw	a5,76(s0)
 302 00aa 99E3     		bne	a5,zero,.L27
 303              		.loc 1 85 32 discriminator 1
 304 00ac 7C48     		lw	a5,84(s0)
 305 00ae 99C3     		beq	a5,zero,.L28
 306              	.L27:
  86:C:/Users/stapi/OneDrive/Desktop/GD32VW553/V1_MQTT_OK/GD32VW55X_Wifi_BLE_SDK/GD32VW55x_RELEASE_V1.0.2/MSDK/cloud/alicloud/src/protocol/mqtt/MQTTPacket\MQTTConnectClient.c **** 		flags.bits.password = 1;
 307              		.loc 1 86 3 is_stmt 1
 308              	.LVL33:
 309              		.loc 1 86 23 is_stmt 0
 310 00b0 93E50504 		ori	a1,a1,64
 311              	.LVL34:
 312              	.L28:
  87:C:/Users/stapi/OneDrive/Desktop/GD32VW553/V1_MQTT_OK/GD32VW55X_Wifi_BLE_SDK/GD32VW55x_RELEASE_V1.0.2/MSDK/cloud/alicloud/src/protocol/mqtt/MQTTPacket\MQTTConnectClient.c **** 
  88:C:/Users/stapi/OneDrive/Desktop/GD32VW553/V1_MQTT_OK/GD32VW55X_Wifi_BLE_SDK/GD32VW55x_RELEASE_V1.0.2/MSDK/cloud/alicloud/src/protocol/mqtt/MQTTPacket\MQTTConnectClient.c **** 	writeChar(&ptr, flags.all);
 313              		.loc 1 88 2 is_stmt 1
 314 00b4 6808     		addi	a0,sp,28
 315              		.loc 1 88 23 is_stmt 0
 316 00b6 93F9F50F 		andi	s3,a1,0xff
 317              	.LVL35:
 318              		.loc 1 88 2
 319 00ba 93944560 		sext.b	s1,a1
 320              	.LVL36:
 321 00be A685     		mv	a1,s1
 322 00c0 97000000 		call	writeChar
 322      E7800000 
 323              	.LVL37:
  89:C:/Users/stapi/OneDrive/Desktop/GD32VW553/V1_MQTT_OK/GD32VW55X_Wifi_BLE_SDK/GD32VW55x_RELEASE_V1.0.2/MSDK/cloud/alicloud/src/protocol/mqtt/MQTTPacket\MQTTConnectClient.c **** 	writeInt(&ptr, options->keepAliveInterval);
 324              		.loc 1 89 2 is_stmt 1
 325 00c8 83558401 		lhu	a1,24(s0)
 326 00cc 6808     		addi	a0,sp,28
 327 00ce 97000000 		call	writeInt
 327      E7800000 
 328              	.LVL38:
  90:C:/Users/stapi/OneDrive/Desktop/GD32VW553/V1_MQTT_OK/GD32VW55X_Wifi_BLE_SDK/GD32VW55x_RELEASE_V1.0.2/MSDK/cloud/alicloud/src/protocol/mqtt/MQTTPacket\MQTTConnectClient.c **** 	writeMQTTString(&ptr, options->clientID);
 329              		.loc 1 90 2
 330 00d6 3146     		li	a2,12
 331 00d8 9305C400 		addi	a1,s0,12
 332 00dc 0A85     		mv	a0,sp
 333 00de 97000000 		call	memcpy
 333      E7800000 
 334              	.LVL39:
 335 00e6 8A85     		mv	a1,sp
 336 00e8 6808     		addi	a0,sp,28
 337 00ea 97000000 		call	writeMQTTString
 337      E7800000 
 338              	.LVL40:
  91:C:/Users/stapi/OneDrive/Desktop/GD32VW553/V1_MQTT_OK/GD32VW55X_Wifi_BLE_SDK/GD32VW55x_RELEASE_V1.0.2/MSDK/cloud/alicloud/src/protocol/mqtt/MQTTPacket\MQTTConnectClient.c **** 	if (options->willFlag)
 339              		.loc 1 91 2
 340              		.loc 1 91 5 is_stmt 0
 341 00f2 8347B401 		lbu	a5,27(s0)
 342 00f6 8DCF     		beq	a5,zero,.L29
  92:C:/Users/stapi/OneDrive/Desktop/GD32VW553/V1_MQTT_OK/GD32VW55X_Wifi_BLE_SDK/GD32VW55x_RELEASE_V1.0.2/MSDK/cloud/alicloud/src/protocol/mqtt/MQTTPacket\MQTTConnectClient.c **** 	{
  93:C:/Users/stapi/OneDrive/Desktop/GD32VW553/V1_MQTT_OK/GD32VW55X_Wifi_BLE_SDK/GD32VW55x_RELEASE_V1.0.2/MSDK/cloud/alicloud/src/protocol/mqtt/MQTTPacket\MQTTConnectClient.c **** 		writeMQTTString(&ptr, options->will.topicName);
 343              		.loc 1 93 3 is_stmt 1
 344 00f8 3146     		li	a2,12
 345 00fa 93054402 		addi	a1,s0,36
 346 00fe 0A85     		mv	a0,sp
 347 0100 97000000 		call	memcpy
 347      E7800000 
 348              	.LVL41:
 349 0108 8A85     		mv	a1,sp
 350 010a 6808     		addi	a0,sp,28
 351 010c 97000000 		call	writeMQTTString
 351      E7800000 
 352              	.LVL42:
  94:C:/Users/stapi/OneDrive/Desktop/GD32VW553/V1_MQTT_OK/GD32VW55X_Wifi_BLE_SDK/GD32VW55x_RELEASE_V1.0.2/MSDK/cloud/alicloud/src/protocol/mqtt/MQTTPacket\MQTTConnectClient.c **** 		writeMQTTString(&ptr, options->will.message);
 353              		.loc 1 94 3
 354 0114 93050403 		addi	a1,s0,48
 355 0118 3146     		li	a2,12
 356 011a 0A85     		mv	a0,sp
 357 011c 97000000 		call	memcpy
 357      E7800000 
 358              	.LVL43:
 359 0124 8A85     		mv	a1,sp
 360 0126 6808     		addi	a0,sp,28
 361 0128 97000000 		call	writeMQTTString
 361      E7800000 
 362              	.LVL44:
 363              	.L29:
  95:C:/Users/stapi/OneDrive/Desktop/GD32VW553/V1_MQTT_OK/GD32VW55X_Wifi_BLE_SDK/GD32VW55x_RELEASE_V1.0.2/MSDK/cloud/alicloud/src/protocol/mqtt/MQTTPacket\MQTTConnectClient.c **** 	}
  96:C:/Users/stapi/OneDrive/Desktop/GD32VW553/V1_MQTT_OK/GD32VW55X_Wifi_BLE_SDK/GD32VW55x_RELEASE_V1.0.2/MSDK/cloud/alicloud/src/protocol/mqtt/MQTTPacket\MQTTConnectClient.c **** 	if (flags.bits.username)
 364              		.loc 1 96 2
 365              		.loc 1 96 5 is_stmt 0
 366 0130 63D00402 		bge	s1,zero,.L30
  97:C:/Users/stapi/OneDrive/Desktop/GD32VW553/V1_MQTT_OK/GD32VW55X_Wifi_BLE_SDK/GD32VW55x_RELEASE_V1.0.2/MSDK/cloud/alicloud/src/protocol/mqtt/MQTTPacket\MQTTConnectClient.c **** 		writeMQTTString(&ptr, options->username);
 367              		.loc 1 97 3 is_stmt 1
 368 0134 93050404 		addi	a1,s0,64
 369 0138 3146     		li	a2,12
 370 013a 0A85     		mv	a0,sp
 371 013c 97000000 		call	memcpy
 371      E7800000 
 372              	.LVL45:
 373 0144 8A85     		mv	a1,sp
 374 0146 6808     		addi	a0,sp,28
 375 0148 97000000 		call	writeMQTTString
 375      E7800000 
 376              	.LVL46:
 377              	.L30:
  98:C:/Users/stapi/OneDrive/Desktop/GD32VW553/V1_MQTT_OK/GD32VW55X_Wifi_BLE_SDK/GD32VW55x_RELEASE_V1.0.2/MSDK/cloud/alicloud/src/protocol/mqtt/MQTTPacket\MQTTConnectClient.c **** 	if (flags.bits.password)
 378              		.loc 1 98 2
 379              		.loc 1 98 5 is_stmt 0
 380 0150 93F90904 		andi	s3,s3,64
 381 0154 63800902 		beq	s3,zero,.L31
  99:C:/Users/stapi/OneDrive/Desktop/GD32VW553/V1_MQTT_OK/GD32VW55X_Wifi_BLE_SDK/GD32VW55x_RELEASE_V1.0.2/MSDK/cloud/alicloud/src/protocol/mqtt/MQTTPacket\MQTTConnectClient.c **** 		writeMQTTString(&ptr, options->password);
 382              		.loc 1 99 3 is_stmt 1
 383 0158 9305C404 		addi	a1,s0,76
 384 015c 3146     		li	a2,12
 385 015e 0A85     		mv	a0,sp
 386 0160 97000000 		call	memcpy
 386      E7800000 
 387              	.LVL47:
 388 0168 8A85     		mv	a1,sp
 389 016a 6808     		addi	a0,sp,28
 390 016c 97000000 		call	writeMQTTString
 390      E7800000 
 391              	.LVL48:
 392              	.L31:
 100:C:/Users/stapi/OneDrive/Desktop/GD32VW553/V1_MQTT_OK/GD32VW55X_Wifi_BLE_SDK/GD32VW55x_RELEASE_V1.0.2/MSDK/cloud/alicloud/src/protocol/mqtt/MQTTPacket\MQTTConnectClient.c **** 
 101:C:/Users/stapi/OneDrive/Desktop/GD32VW553/V1_MQTT_OK/GD32VW55X_Wifi_BLE_SDK/GD32VW55x_RELEASE_V1.0.2/MSDK/cloud/alicloud/src/protocol/mqtt/MQTTPacket\MQTTConnectClient.c **** 	rc = ptr - buf;
 393              		.loc 1 101 2
 394              		.loc 1 101 5 is_stmt 0
 395 0174 7245     		lw	a0,28(sp)
 396 0176 33052541 		sub	a0,a0,s2
 397              	.LVL49:
 398              	.L20:
 102:C:/Users/stapi/OneDrive/Desktop/GD32VW553/V1_MQTT_OK/GD32VW55X_Wifi_BLE_SDK/GD32VW55x_RELEASE_V1.0.2/MSDK/cloud/alicloud/src/protocol/mqtt/MQTTPacket\MQTTConnectClient.c **** 
 103:C:/Users/stapi/OneDrive/Desktop/GD32VW553/V1_MQTT_OK/GD32VW55X_Wifi_BLE_SDK/GD32VW55x_RELEASE_V1.0.2/MSDK/cloud/alicloud/src/protocol/mqtt/MQTTPacket\MQTTConnectClient.c **** exit:
 104:C:/Users/stapi/OneDrive/Desktop/GD32VW553/V1_MQTT_OK/GD32VW55X_Wifi_BLE_SDK/GD32VW55x_RELEASE_V1.0.2/MSDK/cloud/alicloud/src/protocol/mqtt/MQTTPacket\MQTTConnectClient.c **** 	return rc;
 105:C:/Users/stapi/OneDrive/Desktop/GD32VW553/V1_MQTT_OK/GD32VW55X_Wifi_BLE_SDK/GD32VW55x_RELEASE_V1.0.2/MSDK/cloud/alicloud/src/protocol/mqtt/MQTTPacket\MQTTConnectClient.c **** }
 399              		.loc 1 105 1
 400 017a 0561     		addi	sp,sp,32
 401              		.cfi_remember_state
 402              		.cfi_def_cfa_offset 0
 403 017c 17030000 		tail	__riscv_restore_4
 403      67000300 
 404              		.cfi_restore 19
 405              		.cfi_restore 18
 406              		.cfi_restore 9
 407              		.cfi_restore 8
 408              		.cfi_restore 1
 409              		.cfi_def_cfa_offset -32
 410              	.LVL50:
 411              	.L22:
 412              		.cfi_restore_state
  70:C:/Users/stapi/OneDrive/Desktop/GD32VW553/V1_MQTT_OK/GD32VW55X_Wifi_BLE_SDK/GD32VW55x_RELEASE_V1.0.2/MSDK/cloud/alicloud/src/protocol/mqtt/MQTTPacket\MQTTConnectClient.c **** 		writeChar(&ptr, (char) 3);
 413              		.loc 1 70 3 is_stmt 1
 414 0184 B7050000 		lui	a1,%hi(.LC1)
 415 0188 93850500 		addi	a1,a1,%lo(.LC1)
 416 018c 6808     		addi	a0,sp,28
 417 018e 97000000 		call	writeCString
 417      E7800000 
 418              	.LVL51:
  71:C:/Users/stapi/OneDrive/Desktop/GD32VW553/V1_MQTT_OK/GD32VW55X_Wifi_BLE_SDK/GD32VW55x_RELEASE_V1.0.2/MSDK/cloud/alicloud/src/protocol/mqtt/MQTTPacket\MQTTConnectClient.c **** 	}
 419              		.loc 1 71 3
 420 0196 8D45     		li	a1,3
 421 0198 F9B5     		j	.L49
 422              	.L32:
 423              	.L21:
 424              	.LVL52:
 104:C:/Users/stapi/OneDrive/Desktop/GD32VW553/V1_MQTT_OK/GD32VW55X_Wifi_BLE_SDK/GD32VW55x_RELEASE_V1.0.2/MSDK/cloud/alicloud/src/protocol/mqtt/MQTTPacket\MQTTConnectClient.c **** }
 425              		.loc 1 104 2
  53:C:/Users/stapi/OneDrive/Desktop/GD32VW553/V1_MQTT_OK/GD32VW55X_Wifi_BLE_SDK/GD32VW55x_RELEASE_V1.0.2/MSDK/cloud/alicloud/src/protocol/mqtt/MQTTPacket\MQTTConnectClient.c **** 		goto exit;
 426              		.loc 1 53 6 is_stmt 0
 427 019a 7955     		li	a0,-2
 104:C:/Users/stapi/OneDrive/Desktop/GD32VW553/V1_MQTT_OK/GD32VW55X_Wifi_BLE_SDK/GD32VW55x_RELEASE_V1.0.2/MSDK/cloud/alicloud/src/protocol/mqtt/MQTTPacket\MQTTConnectClient.c **** }
 428              		.loc 1 104 9
 429 019c F9BF     		j	.L20
 430              		.cfi_endproc
 431              	.LFE2:
 433              		.section	.text.MQTTDeserialize_connack,"ax",@progbits
 434              		.align	1
 435              		.globl	MQTTDeserialize_connack
 437              	MQTTDeserialize_connack:
 438              	.LFB3:
 106:C:/Users/stapi/OneDrive/Desktop/GD32VW553/V1_MQTT_OK/GD32VW55X_Wifi_BLE_SDK/GD32VW55x_RELEASE_V1.0.2/MSDK/cloud/alicloud/src/protocol/mqtt/MQTTPacket\MQTTConnectClient.c **** 
 107:C:/Users/stapi/OneDrive/Desktop/GD32VW553/V1_MQTT_OK/GD32VW55X_Wifi_BLE_SDK/GD32VW55x_RELEASE_V1.0.2/MSDK/cloud/alicloud/src/protocol/mqtt/MQTTPacket\MQTTConnectClient.c **** 
 108:C:/Users/stapi/OneDrive/Desktop/GD32VW553/V1_MQTT_OK/GD32VW55X_Wifi_BLE_SDK/GD32VW55x_RELEASE_V1.0.2/MSDK/cloud/alicloud/src/protocol/mqtt/MQTTPacket\MQTTConnectClient.c **** /**
 109:C:/Users/stapi/OneDrive/Desktop/GD32VW553/V1_MQTT_OK/GD32VW55X_Wifi_BLE_SDK/GD32VW55x_RELEASE_V1.0.2/MSDK/cloud/alicloud/src/protocol/mqtt/MQTTPacket\MQTTConnectClient.c ****   * Deserializes the supplied (wire) buffer into connack data - return code
 110:C:/Users/stapi/OneDrive/Desktop/GD32VW553/V1_MQTT_OK/GD32VW55X_Wifi_BLE_SDK/GD32VW55x_RELEASE_V1.0.2/MSDK/cloud/alicloud/src/protocol/mqtt/MQTTPacket\MQTTConnectClient.c ****   * @param sessionPresent the session present flag returned (only for MQTT 3.1.1)
 111:C:/Users/stapi/OneDrive/Desktop/GD32VW553/V1_MQTT_OK/GD32VW55X_Wifi_BLE_SDK/GD32VW55x_RELEASE_V1.0.2/MSDK/cloud/alicloud/src/protocol/mqtt/MQTTPacket\MQTTConnectClient.c ****   * @param connack_rc returned integer value of the connack return code
 112:C:/Users/stapi/OneDrive/Desktop/GD32VW553/V1_MQTT_OK/GD32VW55X_Wifi_BLE_SDK/GD32VW55x_RELEASE_V1.0.2/MSDK/cloud/alicloud/src/protocol/mqtt/MQTTPacket\MQTTConnectClient.c ****   * @param buf the raw buffer data, of the correct length determined by the remaining length field
 113:C:/Users/stapi/OneDrive/Desktop/GD32VW553/V1_MQTT_OK/GD32VW55X_Wifi_BLE_SDK/GD32VW55x_RELEASE_V1.0.2/MSDK/cloud/alicloud/src/protocol/mqtt/MQTTPacket\MQTTConnectClient.c ****   * @param len the length in bytes of the data in the supplied buffer
 114:C:/Users/stapi/OneDrive/Desktop/GD32VW553/V1_MQTT_OK/GD32VW55X_Wifi_BLE_SDK/GD32VW55x_RELEASE_V1.0.2/MSDK/cloud/alicloud/src/protocol/mqtt/MQTTPacket\MQTTConnectClient.c ****   * @return error code.  1 is success, 0 is failure
 115:C:/Users/stapi/OneDrive/Desktop/GD32VW553/V1_MQTT_OK/GD32VW55X_Wifi_BLE_SDK/GD32VW55x_RELEASE_V1.0.2/MSDK/cloud/alicloud/src/protocol/mqtt/MQTTPacket\MQTTConnectClient.c ****   */
 116:C:/Users/stapi/OneDrive/Desktop/GD32VW553/V1_MQTT_OK/GD32VW55X_Wifi_BLE_SDK/GD32VW55x_RELEASE_V1.0.2/MSDK/cloud/alicloud/src/protocol/mqtt/MQTTPacket\MQTTConnectClient.c **** int MQTTDeserialize_connack(unsigned char* sessionPresent, unsigned char* connack_rc, unsigned char
 117:C:/Users/stapi/OneDrive/Desktop/GD32VW553/V1_MQTT_OK/GD32VW55X_Wifi_BLE_SDK/GD32VW55x_RELEASE_V1.0.2/MSDK/cloud/alicloud/src/protocol/mqtt/MQTTPacket\MQTTConnectClient.c **** {
 439              		.loc 1 117 1 is_stmt 1
 440              		.cfi_startproc
 441              	.LVL53:
 442 0000 17030000 		call	t0,__riscv_save_2
 442      E7020300 
 443              		.cfi_offset 9, -12
 444              		.cfi_offset 8, -8
 445              		.cfi_offset 1, -4
 446              		.cfi_def_cfa_offset 16
 118:C:/Users/stapi/OneDrive/Desktop/GD32VW553/V1_MQTT_OK/GD32VW55X_Wifi_BLE_SDK/GD32VW55x_RELEASE_V1.0.2/MSDK/cloud/alicloud/src/protocol/mqtt/MQTTPacket\MQTTConnectClient.c **** 	MQTTHeader header = {0};
 447              		.loc 1 118 2
 448              	.LVL54:
 119:C:/Users/stapi/OneDrive/Desktop/GD32VW553/V1_MQTT_OK/GD32VW55X_Wifi_BLE_SDK/GD32VW55x_RELEASE_V1.0.2/MSDK/cloud/alicloud/src/protocol/mqtt/MQTTPacket\MQTTConnectClient.c **** 	unsigned char* curdata = buf;
 449              		.loc 1 119 2
 117:C:/Users/stapi/OneDrive/Desktop/GD32VW553/V1_MQTT_OK/GD32VW55X_Wifi_BLE_SDK/GD32VW55x_RELEASE_V1.0.2/MSDK/cloud/alicloud/src/protocol/mqtt/MQTTPacket\MQTTConnectClient.c **** 	MQTTHeader header = {0};
 450              		.loc 1 117 1 is_stmt 0
 451 0008 4111     		addi	sp,sp,-16
 452              		.cfi_def_cfa_offset 32
 117:C:/Users/stapi/OneDrive/Desktop/GD32VW553/V1_MQTT_OK/GD32VW55X_Wifi_BLE_SDK/GD32VW55x_RELEASE_V1.0.2/MSDK/cloud/alicloud/src/protocol/mqtt/MQTTPacket\MQTTConnectClient.c **** 	MQTTHeader header = {0};
 453              		.loc 1 117 1
 454 000a AA84     		mv	s1,a0
 120:C:/Users/stapi/OneDrive/Desktop/GD32VW553/V1_MQTT_OK/GD32VW55X_Wifi_BLE_SDK/GD32VW55x_RELEASE_V1.0.2/MSDK/cloud/alicloud/src/protocol/mqtt/MQTTPacket\MQTTConnectClient.c **** 	unsigned char* enddata = NULL;
 121:C:/Users/stapi/OneDrive/Desktop/GD32VW553/V1_MQTT_OK/GD32VW55X_Wifi_BLE_SDK/GD32VW55x_RELEASE_V1.0.2/MSDK/cloud/alicloud/src/protocol/mqtt/MQTTPacket\MQTTConnectClient.c **** 	int rc = 0;
 122:C:/Users/stapi/OneDrive/Desktop/GD32VW553/V1_MQTT_OK/GD32VW55X_Wifi_BLE_SDK/GD32VW55x_RELEASE_V1.0.2/MSDK/cloud/alicloud/src/protocol/mqtt/MQTTPacket\MQTTConnectClient.c **** 	int mylen;
 123:C:/Users/stapi/OneDrive/Desktop/GD32VW553/V1_MQTT_OK/GD32VW55X_Wifi_BLE_SDK/GD32VW55x_RELEASE_V1.0.2/MSDK/cloud/alicloud/src/protocol/mqtt/MQTTPacket\MQTTConnectClient.c **** 	MQTTConnackFlags flags = {0};
 124:C:/Users/stapi/OneDrive/Desktop/GD32VW553/V1_MQTT_OK/GD32VW55X_Wifi_BLE_SDK/GD32VW55x_RELEASE_V1.0.2/MSDK/cloud/alicloud/src/protocol/mqtt/MQTTPacket\MQTTConnectClient.c **** 
 125:C:/Users/stapi/OneDrive/Desktop/GD32VW553/V1_MQTT_OK/GD32VW55X_Wifi_BLE_SDK/GD32VW55x_RELEASE_V1.0.2/MSDK/cloud/alicloud/src/protocol/mqtt/MQTTPacket\MQTTConnectClient.c **** 	header.byte = readChar(&curdata);
 455              		.loc 1 125 16
 456 000c 2800     		addi	a0,sp,8
 457              	.LVL55:
 117:C:/Users/stapi/OneDrive/Desktop/GD32VW553/V1_MQTT_OK/GD32VW55X_Wifi_BLE_SDK/GD32VW55x_RELEASE_V1.0.2/MSDK/cloud/alicloud/src/protocol/mqtt/MQTTPacket\MQTTConnectClient.c **** 	MQTTHeader header = {0};
 458              		.loc 1 117 1
 459 000e 2E84     		mv	s0,a1
 119:C:/Users/stapi/OneDrive/Desktop/GD32VW553/V1_MQTT_OK/GD32VW55X_Wifi_BLE_SDK/GD32VW55x_RELEASE_V1.0.2/MSDK/cloud/alicloud/src/protocol/mqtt/MQTTPacket\MQTTConnectClient.c **** 	unsigned char* enddata = NULL;
 460              		.loc 1 119 17
 461 0010 32C4     		sw	a2,8(sp)
 120:C:/Users/stapi/OneDrive/Desktop/GD32VW553/V1_MQTT_OK/GD32VW55X_Wifi_BLE_SDK/GD32VW55x_RELEASE_V1.0.2/MSDK/cloud/alicloud/src/protocol/mqtt/MQTTPacket\MQTTConnectClient.c **** 	unsigned char* enddata = NULL;
 462              		.loc 1 120 2 is_stmt 1
 463              	.LVL56:
 121:C:/Users/stapi/OneDrive/Desktop/GD32VW553/V1_MQTT_OK/GD32VW55X_Wifi_BLE_SDK/GD32VW55x_RELEASE_V1.0.2/MSDK/cloud/alicloud/src/protocol/mqtt/MQTTPacket\MQTTConnectClient.c **** 	int mylen;
 464              		.loc 1 121 2
 122:C:/Users/stapi/OneDrive/Desktop/GD32VW553/V1_MQTT_OK/GD32VW55X_Wifi_BLE_SDK/GD32VW55x_RELEASE_V1.0.2/MSDK/cloud/alicloud/src/protocol/mqtt/MQTTPacket\MQTTConnectClient.c **** 	MQTTConnackFlags flags = {0};
 465              		.loc 1 122 2
 123:C:/Users/stapi/OneDrive/Desktop/GD32VW553/V1_MQTT_OK/GD32VW55X_Wifi_BLE_SDK/GD32VW55x_RELEASE_V1.0.2/MSDK/cloud/alicloud/src/protocol/mqtt/MQTTPacket\MQTTConnectClient.c **** 
 466              		.loc 1 123 2
 467              		.loc 1 125 2
 468              		.loc 1 125 16 is_stmt 0
 469 0012 97000000 		call	readChar
 469      E7800000 
 470              	.LVL57:
 126:C:/Users/stapi/OneDrive/Desktop/GD32VW553/V1_MQTT_OK/GD32VW55X_Wifi_BLE_SDK/GD32VW55x_RELEASE_V1.0.2/MSDK/cloud/alicloud/src/protocol/mqtt/MQTTPacket\MQTTConnectClient.c **** 	if (header.bits.type != CONNACK)
 471              		.loc 1 126 2 is_stmt 1
 472              		.loc 1 126 5 is_stmt 0
 473 001a 1375050F 		andi	a0,a0,240
 474              	.LVL58:
 475 001e 93070002 		li	a5,32
 476 0022 6315F504 		bne	a0,a5,.L52
 127:C:/Users/stapi/OneDrive/Desktop/GD32VW553/V1_MQTT_OK/GD32VW55X_Wifi_BLE_SDK/GD32VW55x_RELEASE_V1.0.2/MSDK/cloud/alicloud/src/protocol/mqtt/MQTTPacket\MQTTConnectClient.c **** 		goto exit;
 128:C:/Users/stapi/OneDrive/Desktop/GD32VW553/V1_MQTT_OK/GD32VW55X_Wifi_BLE_SDK/GD32VW55x_RELEASE_V1.0.2/MSDK/cloud/alicloud/src/protocol/mqtt/MQTTPacket\MQTTConnectClient.c **** 
 129:C:/Users/stapi/OneDrive/Desktop/GD32VW553/V1_MQTT_OK/GD32VW55X_Wifi_BLE_SDK/GD32VW55x_RELEASE_V1.0.2/MSDK/cloud/alicloud/src/protocol/mqtt/MQTTPacket\MQTTConnectClient.c **** 	curdata += (rc = MQTTPacket_decodeBuf(curdata, &mylen)); /* read remaining length */
 477              		.loc 1 129 2 is_stmt 1
 478              		.loc 1 129 19 is_stmt 0
 479 0026 2245     		lw	a0,8(sp)
 480 0028 6C00     		addi	a1,sp,12
 481 002a 97000000 		call	MQTTPacket_decodeBuf
 481      E7800000 
 482              	.LVL59:
 483              		.loc 1 129 10
 484 0032 A247     		lw	a5,8(sp)
 130:C:/Users/stapi/OneDrive/Desktop/GD32VW553/V1_MQTT_OK/GD32VW55X_Wifi_BLE_SDK/GD32VW55x_RELEASE_V1.0.2/MSDK/cloud/alicloud/src/protocol/mqtt/MQTTPacket\MQTTConnectClient.c **** 	enddata = curdata + mylen;
 131:C:/Users/stapi/OneDrive/Desktop/GD32VW553/V1_MQTT_OK/GD32VW55X_Wifi_BLE_SDK/GD32VW55x_RELEASE_V1.0.2/MSDK/cloud/alicloud/src/protocol/mqtt/MQTTPacket\MQTTConnectClient.c **** 	if (enddata - curdata < 2)
 485              		.loc 1 131 5
 486 0034 3247     		lw	a4,12(sp)
 129:C:/Users/stapi/OneDrive/Desktop/GD32VW553/V1_MQTT_OK/GD32VW55X_Wifi_BLE_SDK/GD32VW55x_RELEASE_V1.0.2/MSDK/cloud/alicloud/src/protocol/mqtt/MQTTPacket\MQTTConnectClient.c **** 	enddata = curdata + mylen;
 487              		.loc 1 129 10
 488 0036 AA97     		add	a5,a5,a0
 489 0038 3EC4     		sw	a5,8(sp)
 130:C:/Users/stapi/OneDrive/Desktop/GD32VW553/V1_MQTT_OK/GD32VW55X_Wifi_BLE_SDK/GD32VW55x_RELEASE_V1.0.2/MSDK/cloud/alicloud/src/protocol/mqtt/MQTTPacket\MQTTConnectClient.c **** 	enddata = curdata + mylen;
 490              		.loc 1 130 2 is_stmt 1
 491              	.LVL60:
 492              		.loc 1 131 2
 493              		.loc 1 131 5 is_stmt 0
 494 003a 8547     		li	a5,1
 495              	.LVL61:
 496 003c 63D3E702 		ble	a4,a5,.L50
 132:C:/Users/stapi/OneDrive/Desktop/GD32VW553/V1_MQTT_OK/GD32VW55X_Wifi_BLE_SDK/GD32VW55x_RELEASE_V1.0.2/MSDK/cloud/alicloud/src/protocol/mqtt/MQTTPacket\MQTTConnectClient.c **** 		goto exit;
 133:C:/Users/stapi/OneDrive/Desktop/GD32VW553/V1_MQTT_OK/GD32VW55X_Wifi_BLE_SDK/GD32VW55x_RELEASE_V1.0.2/MSDK/cloud/alicloud/src/protocol/mqtt/MQTTPacket\MQTTConnectClient.c **** 
 134:C:/Users/stapi/OneDrive/Desktop/GD32VW553/V1_MQTT_OK/GD32VW55X_Wifi_BLE_SDK/GD32VW55x_RELEASE_V1.0.2/MSDK/cloud/alicloud/src/protocol/mqtt/MQTTPacket\MQTTConnectClient.c **** 	flags.all = readChar(&curdata);
 497              		.loc 1 134 2 is_stmt 1
 498              		.loc 1 134 14 is_stmt 0
 499 0040 2800     		addi	a0,sp,8
 500              	.LVL62:
 501 0042 97000000 		call	readChar
 501      E7800000 
 502              	.LVL63:
 135:C:/Users/stapi/OneDrive/Desktop/GD32VW553/V1_MQTT_OK/GD32VW55X_Wifi_BLE_SDK/GD32VW55x_RELEASE_V1.0.2/MSDK/cloud/alicloud/src/protocol/mqtt/MQTTPacket\MQTTConnectClient.c **** 	*sessionPresent = flags.bits.sessionpresent;
 503              		.loc 1 135 2 is_stmt 1
 504              		.loc 1 135 30 is_stmt 0
 505 004a 13557548 		bexti	a0,a0,7
 506              		.loc 1 135 18
 507 004e 2380A400 		sb	a0,0(s1)
 136:C:/Users/stapi/OneDrive/Desktop/GD32VW553/V1_MQTT_OK/GD32VW55X_Wifi_BLE_SDK/GD32VW55x_RELEASE_V1.0.2/MSDK/cloud/alicloud/src/protocol/mqtt/MQTTPacket\MQTTConnectClient.c **** 	*connack_rc = readChar(&curdata);
 508              		.loc 1 136 2 is_stmt 1
 509              		.loc 1 136 16 is_stmt 0
 510 0052 2800     		addi	a0,sp,8
 511 0054 97000000 		call	readChar
 511      E7800000 
 512              	.LVL64:
 513              		.loc 1 136 14
 514 005c 2300A400 		sb	a0,0(s0)
 137:C:/Users/stapi/OneDrive/Desktop/GD32VW553/V1_MQTT_OK/GD32VW55X_Wifi_BLE_SDK/GD32VW55x_RELEASE_V1.0.2/MSDK/cloud/alicloud/src/protocol/mqtt/MQTTPacket\MQTTConnectClient.c **** 
 138:C:/Users/stapi/OneDrive/Desktop/GD32VW553/V1_MQTT_OK/GD32VW55X_Wifi_BLE_SDK/GD32VW55x_RELEASE_V1.0.2/MSDK/cloud/alicloud/src/protocol/mqtt/MQTTPacket\MQTTConnectClient.c **** 	rc = 1;
 515              		.loc 1 138 2 is_stmt 1
 516              	.LVL65:
 517              		.loc 1 138 5 is_stmt 0
 518 0060 0545     		li	a0,1
 519              	.LVL66:
 520              	.L50:
 139:C:/Users/stapi/OneDrive/Desktop/GD32VW553/V1_MQTT_OK/GD32VW55X_Wifi_BLE_SDK/GD32VW55x_RELEASE_V1.0.2/MSDK/cloud/alicloud/src/protocol/mqtt/MQTTPacket\MQTTConnectClient.c **** exit:
 140:C:/Users/stapi/OneDrive/Desktop/GD32VW553/V1_MQTT_OK/GD32VW55X_Wifi_BLE_SDK/GD32VW55x_RELEASE_V1.0.2/MSDK/cloud/alicloud/src/protocol/mqtt/MQTTPacket\MQTTConnectClient.c **** 	return rc;
 141:C:/Users/stapi/OneDrive/Desktop/GD32VW553/V1_MQTT_OK/GD32VW55X_Wifi_BLE_SDK/GD32VW55x_RELEASE_V1.0.2/MSDK/cloud/alicloud/src/protocol/mqtt/MQTTPacket\MQTTConnectClient.c **** }
 521              		.loc 1 141 1
 522 0062 4101     		addi	sp,sp,16
 523              		.cfi_remember_state
 524              		.cfi_def_cfa_offset 0
 525 0064 17030000 		tail	__riscv_restore_2
 525      67000300 
 526              		.cfi_restore 9
 527              		.cfi_restore 8
 528              		.cfi_restore 1
 529              		.cfi_def_cfa_offset -16
 530              	.LVL67:
 531              	.L52:
 532              		.cfi_restore_state
 533              	.L51:
 140:C:/Users/stapi/OneDrive/Desktop/GD32VW553/V1_MQTT_OK/GD32VW55X_Wifi_BLE_SDK/GD32VW55x_RELEASE_V1.0.2/MSDK/cloud/alicloud/src/protocol/mqtt/MQTTPacket\MQTTConnectClient.c **** }
 534              		.loc 1 140 2 is_stmt 1
 121:C:/Users/stapi/OneDrive/Desktop/GD32VW553/V1_MQTT_OK/GD32VW55X_Wifi_BLE_SDK/GD32VW55x_RELEASE_V1.0.2/MSDK/cloud/alicloud/src/protocol/mqtt/MQTTPacket\MQTTConnectClient.c **** 	int mylen;
 535              		.loc 1 121 6 is_stmt 0
 536 006c 0145     		li	a0,0
 140:C:/Users/stapi/OneDrive/Desktop/GD32VW553/V1_MQTT_OK/GD32VW55X_Wifi_BLE_SDK/GD32VW55x_RELEASE_V1.0.2/MSDK/cloud/alicloud/src/protocol/mqtt/MQTTPacket\MQTTConnectClient.c **** }
 537              		.loc 1 140 9
 538 006e D5BF     		j	.L50
 539              		.cfi_endproc
 540              	.LFE3:
 542              		.section	.text.MQTTSerialize_zero,"ax",@progbits
 543              		.align	1
 544              		.globl	MQTTSerialize_zero
 546              	MQTTSerialize_zero:
 547              	.LFB4:
 142:C:/Users/stapi/OneDrive/Desktop/GD32VW553/V1_MQTT_OK/GD32VW55X_Wifi_BLE_SDK/GD32VW55x_RELEASE_V1.0.2/MSDK/cloud/alicloud/src/protocol/mqtt/MQTTPacket\MQTTConnectClient.c **** 
 143:C:/Users/stapi/OneDrive/Desktop/GD32VW553/V1_MQTT_OK/GD32VW55X_Wifi_BLE_SDK/GD32VW55x_RELEASE_V1.0.2/MSDK/cloud/alicloud/src/protocol/mqtt/MQTTPacket\MQTTConnectClient.c **** 
 144:C:/Users/stapi/OneDrive/Desktop/GD32VW553/V1_MQTT_OK/GD32VW55X_Wifi_BLE_SDK/GD32VW55x_RELEASE_V1.0.2/MSDK/cloud/alicloud/src/protocol/mqtt/MQTTPacket\MQTTConnectClient.c **** /**
 145:C:/Users/stapi/OneDrive/Desktop/GD32VW553/V1_MQTT_OK/GD32VW55X_Wifi_BLE_SDK/GD32VW55x_RELEASE_V1.0.2/MSDK/cloud/alicloud/src/protocol/mqtt/MQTTPacket\MQTTConnectClient.c ****   * Serializes a 0-length packet into the supplied buffer, ready for writing to a socket
 146:C:/Users/stapi/OneDrive/Desktop/GD32VW553/V1_MQTT_OK/GD32VW55X_Wifi_BLE_SDK/GD32VW55x_RELEASE_V1.0.2/MSDK/cloud/alicloud/src/protocol/mqtt/MQTTPacket\MQTTConnectClient.c ****   * @param buf the buffer into which the packet will be serialized
 147:C:/Users/stapi/OneDrive/Desktop/GD32VW553/V1_MQTT_OK/GD32VW55X_Wifi_BLE_SDK/GD32VW55x_RELEASE_V1.0.2/MSDK/cloud/alicloud/src/protocol/mqtt/MQTTPacket\MQTTConnectClient.c ****   * @param buflen the length in bytes of the supplied buffer, to avoid overruns
 148:C:/Users/stapi/OneDrive/Desktop/GD32VW553/V1_MQTT_OK/GD32VW55X_Wifi_BLE_SDK/GD32VW55x_RELEASE_V1.0.2/MSDK/cloud/alicloud/src/protocol/mqtt/MQTTPacket\MQTTConnectClient.c ****   * @param packettype the message type
 149:C:/Users/stapi/OneDrive/Desktop/GD32VW553/V1_MQTT_OK/GD32VW55X_Wifi_BLE_SDK/GD32VW55x_RELEASE_V1.0.2/MSDK/cloud/alicloud/src/protocol/mqtt/MQTTPacket\MQTTConnectClient.c ****   * @return serialized length, or error if 0
 150:C:/Users/stapi/OneDrive/Desktop/GD32VW553/V1_MQTT_OK/GD32VW55X_Wifi_BLE_SDK/GD32VW55x_RELEASE_V1.0.2/MSDK/cloud/alicloud/src/protocol/mqtt/MQTTPacket\MQTTConnectClient.c ****   */
 151:C:/Users/stapi/OneDrive/Desktop/GD32VW553/V1_MQTT_OK/GD32VW55X_Wifi_BLE_SDK/GD32VW55x_RELEASE_V1.0.2/MSDK/cloud/alicloud/src/protocol/mqtt/MQTTPacket\MQTTConnectClient.c **** int MQTTSerialize_zero(unsigned char* buf, int buflen, unsigned char packettype)
 152:C:/Users/stapi/OneDrive/Desktop/GD32VW553/V1_MQTT_OK/GD32VW55X_Wifi_BLE_SDK/GD32VW55x_RELEASE_V1.0.2/MSDK/cloud/alicloud/src/protocol/mqtt/MQTTPacket\MQTTConnectClient.c **** {
 548              		.loc 1 152 1 is_stmt 1
 549              		.cfi_startproc
 550              	.LVL68:
 551 0000 17030000 		call	t0,__riscv_save_1
 551      E7020300 
 552              		.cfi_offset 8, -8
 553              		.cfi_offset 1, -4
 554              		.cfi_def_cfa_offset 16
 153:C:/Users/stapi/OneDrive/Desktop/GD32VW553/V1_MQTT_OK/GD32VW55X_Wifi_BLE_SDK/GD32VW55x_RELEASE_V1.0.2/MSDK/cloud/alicloud/src/protocol/mqtt/MQTTPacket\MQTTConnectClient.c **** 	MQTTHeader header = {0};
 555              		.loc 1 153 2
 154:C:/Users/stapi/OneDrive/Desktop/GD32VW553/V1_MQTT_OK/GD32VW55X_Wifi_BLE_SDK/GD32VW55x_RELEASE_V1.0.2/MSDK/cloud/alicloud/src/protocol/mqtt/MQTTPacket\MQTTConnectClient.c **** 	int rc = -1;
 556              		.loc 1 154 2
 557              	.LVL69:
 155:C:/Users/stapi/OneDrive/Desktop/GD32VW553/V1_MQTT_OK/GD32VW55X_Wifi_BLE_SDK/GD32VW55x_RELEASE_V1.0.2/MSDK/cloud/alicloud/src/protocol/mqtt/MQTTPacket\MQTTConnectClient.c **** 	unsigned char *ptr = buf;
 558              		.loc 1 155 2
 152:C:/Users/stapi/OneDrive/Desktop/GD32VW553/V1_MQTT_OK/GD32VW55X_Wifi_BLE_SDK/GD32VW55x_RELEASE_V1.0.2/MSDK/cloud/alicloud/src/protocol/mqtt/MQTTPacket\MQTTConnectClient.c **** 	MQTTHeader header = {0};
 559              		.loc 1 152 1 is_stmt 0
 560 0008 4111     		addi	sp,sp,-16
 561              		.cfi_def_cfa_offset 32
 562              		.loc 1 155 17
 563 000a 2AC6     		sw	a0,12(sp)
 156:C:/Users/stapi/OneDrive/Desktop/GD32VW553/V1_MQTT_OK/GD32VW55X_Wifi_BLE_SDK/GD32VW55x_RELEASE_V1.0.2/MSDK/cloud/alicloud/src/protocol/mqtt/MQTTPacket\MQTTConnectClient.c **** 
 157:C:/Users/stapi/OneDrive/Desktop/GD32VW553/V1_MQTT_OK/GD32VW55X_Wifi_BLE_SDK/GD32VW55x_RELEASE_V1.0.2/MSDK/cloud/alicloud/src/protocol/mqtt/MQTTPacket\MQTTConnectClient.c **** 	if (buflen < 2)
 564              		.loc 1 157 2 is_stmt 1
 565              		.loc 1 157 5 is_stmt 0
 566 000c 8547     		li	a5,1
 567 000e 63DAB702 		ble	a1,a5,.L56
 158:C:/Users/stapi/OneDrive/Desktop/GD32VW553/V1_MQTT_OK/GD32VW55X_Wifi_BLE_SDK/GD32VW55x_RELEASE_V1.0.2/MSDK/cloud/alicloud/src/protocol/mqtt/MQTTPacket\MQTTConnectClient.c **** 	{
 159:C:/Users/stapi/OneDrive/Desktop/GD32VW553/V1_MQTT_OK/GD32VW55X_Wifi_BLE_SDK/GD32VW55x_RELEASE_V1.0.2/MSDK/cloud/alicloud/src/protocol/mqtt/MQTTPacket\MQTTConnectClient.c **** 		rc = MQTTPACKET_BUFFER_TOO_SHORT;
 160:C:/Users/stapi/OneDrive/Desktop/GD32VW553/V1_MQTT_OK/GD32VW55X_Wifi_BLE_SDK/GD32VW55x_RELEASE_V1.0.2/MSDK/cloud/alicloud/src/protocol/mqtt/MQTTPacket\MQTTConnectClient.c **** 		goto exit;
 161:C:/Users/stapi/OneDrive/Desktop/GD32VW553/V1_MQTT_OK/GD32VW55X_Wifi_BLE_SDK/GD32VW55x_RELEASE_V1.0.2/MSDK/cloud/alicloud/src/protocol/mqtt/MQTTPacket\MQTTConnectClient.c **** 	}
 162:C:/Users/stapi/OneDrive/Desktop/GD32VW553/V1_MQTT_OK/GD32VW55X_Wifi_BLE_SDK/GD32VW55x_RELEASE_V1.0.2/MSDK/cloud/alicloud/src/protocol/mqtt/MQTTPacket\MQTTConnectClient.c **** 	header.byte = 0;
 163:C:/Users/stapi/OneDrive/Desktop/GD32VW553/V1_MQTT_OK/GD32VW55X_Wifi_BLE_SDK/GD32VW55x_RELEASE_V1.0.2/MSDK/cloud/alicloud/src/protocol/mqtt/MQTTPacket\MQTTConnectClient.c **** 	header.bits.type = packettype;
 164:C:/Users/stapi/OneDrive/Desktop/GD32VW553/V1_MQTT_OK/GD32VW55X_Wifi_BLE_SDK/GD32VW55x_RELEASE_V1.0.2/MSDK/cloud/alicloud/src/protocol/mqtt/MQTTPacket\MQTTConnectClient.c **** 	writeChar(&ptr, header.byte); /* write header */
 568              		.loc 1 164 2
 569 0012 7206     		slli	a2,a2,28
 570              	.LVL70:
 571 0014 93558641 		srai	a1,a2,24
 572              	.LVL71:
 573 0018 2A84     		mv	s0,a0
 162:C:/Users/stapi/OneDrive/Desktop/GD32VW553/V1_MQTT_OK/GD32VW55X_Wifi_BLE_SDK/GD32VW55x_RELEASE_V1.0.2/MSDK/cloud/alicloud/src/protocol/mqtt/MQTTPacket\MQTTConnectClient.c **** 	header.bits.type = packettype;
 574              		.loc 1 162 2 is_stmt 1
 163:C:/Users/stapi/OneDrive/Desktop/GD32VW553/V1_MQTT_OK/GD32VW55X_Wifi_BLE_SDK/GD32VW55x_RELEASE_V1.0.2/MSDK/cloud/alicloud/src/protocol/mqtt/MQTTPacket\MQTTConnectClient.c **** 	writeChar(&ptr, header.byte); /* write header */
 575              		.loc 1 163 2
 576              		.loc 1 164 2
 577 001a 6800     		addi	a0,sp,12
 578              	.LVL72:
 579 001c 97000000 		call	writeChar
 579      E7800000 
 580              	.LVL73:
 165:C:/Users/stapi/OneDrive/Desktop/GD32VW553/V1_MQTT_OK/GD32VW55X_Wifi_BLE_SDK/GD32VW55x_RELEASE_V1.0.2/MSDK/cloud/alicloud/src/protocol/mqtt/MQTTPacket\MQTTConnectClient.c **** 
 166:C:/Users/stapi/OneDrive/Desktop/GD32VW553/V1_MQTT_OK/GD32VW55X_Wifi_BLE_SDK/GD32VW55x_RELEASE_V1.0.2/MSDK/cloud/alicloud/src/protocol/mqtt/MQTTPacket\MQTTConnectClient.c **** 	ptr += MQTTPacket_encode(ptr, 0); /* write remaining length */
 581              		.loc 1 166 2
 582              		.loc 1 166 9 is_stmt 0
 583 0024 3245     		lw	a0,12(sp)
 584 0026 8145     		li	a1,0
 585 0028 97000000 		call	MQTTPacket_encode
 585      E7800000 
 586              	.LVL74:
 167:C:/Users/stapi/OneDrive/Desktop/GD32VW553/V1_MQTT_OK/GD32VW55X_Wifi_BLE_SDK/GD32VW55x_RELEASE_V1.0.2/MSDK/cloud/alicloud/src/protocol/mqtt/MQTTPacket\MQTTConnectClient.c **** 	rc = ptr - buf;
 587              		.loc 1 167 2 is_stmt 1
 166:C:/Users/stapi/OneDrive/Desktop/GD32VW553/V1_MQTT_OK/GD32VW55X_Wifi_BLE_SDK/GD32VW55x_RELEASE_V1.0.2/MSDK/cloud/alicloud/src/protocol/mqtt/MQTTPacket\MQTTConnectClient.c **** 	rc = ptr - buf;
 588              		.loc 1 166 6 is_stmt 0
 589 0030 B247     		lw	a5,12(sp)
 590 0032 AA97     		add	a5,a5,a0
 591              		.loc 1 167 5
 592 0034 33858740 		sub	a0,a5,s0
 593              	.LVL75:
 594              	.L54:
 168:C:/Users/stapi/OneDrive/Desktop/GD32VW553/V1_MQTT_OK/GD32VW55X_Wifi_BLE_SDK/GD32VW55x_RELEASE_V1.0.2/MSDK/cloud/alicloud/src/protocol/mqtt/MQTTPacket\MQTTConnectClient.c **** exit:
 169:C:/Users/stapi/OneDrive/Desktop/GD32VW553/V1_MQTT_OK/GD32VW55X_Wifi_BLE_SDK/GD32VW55x_RELEASE_V1.0.2/MSDK/cloud/alicloud/src/protocol/mqtt/MQTTPacket\MQTTConnectClient.c **** 	return rc;
 170:C:/Users/stapi/OneDrive/Desktop/GD32VW553/V1_MQTT_OK/GD32VW55X_Wifi_BLE_SDK/GD32VW55x_RELEASE_V1.0.2/MSDK/cloud/alicloud/src/protocol/mqtt/MQTTPacket\MQTTConnectClient.c **** }
 595              		.loc 1 170 1
 596 0038 4101     		addi	sp,sp,16
 597              		.cfi_remember_state
 598              		.cfi_def_cfa_offset 0
 599 003a 17030000 		tail	__riscv_restore_1
 599      67000300 
 600              		.cfi_restore 8
 601              		.cfi_restore 1
 602              		.cfi_def_cfa_offset -16
 603              	.LVL76:
 604              	.L56:
 605              		.cfi_restore_state
 606              	.L55:
 169:C:/Users/stapi/OneDrive/Desktop/GD32VW553/V1_MQTT_OK/GD32VW55X_Wifi_BLE_SDK/GD32VW55x_RELEASE_V1.0.2/MSDK/cloud/alicloud/src/protocol/mqtt/MQTTPacket\MQTTConnectClient.c **** }
 607              		.loc 1 169 2 is_stmt 1
 159:C:/Users/stapi/OneDrive/Desktop/GD32VW553/V1_MQTT_OK/GD32VW55X_Wifi_BLE_SDK/GD32VW55x_RELEASE_V1.0.2/MSDK/cloud/alicloud/src/protocol/mqtt/MQTTPacket\MQTTConnectClient.c **** 		goto exit;
 608              		.loc 1 159 6 is_stmt 0
 609 0042 7955     		li	a0,-2
 610              	.LVL77:
 169:C:/Users/stapi/OneDrive/Desktop/GD32VW553/V1_MQTT_OK/GD32VW55X_Wifi_BLE_SDK/GD32VW55x_RELEASE_V1.0.2/MSDK/cloud/alicloud/src/protocol/mqtt/MQTTPacket\MQTTConnectClient.c **** }
 611              		.loc 1 169 9
 612 0044 D5BF     		j	.L54
 613              		.cfi_endproc
 614              	.LFE4:
 616              		.section	.text.MQTTSerialize_disconnect,"ax",@progbits
 617              		.align	1
 618              		.globl	MQTTSerialize_disconnect
 620              	MQTTSerialize_disconnect:
 621              	.LFB5:
 171:C:/Users/stapi/OneDrive/Desktop/GD32VW553/V1_MQTT_OK/GD32VW55X_Wifi_BLE_SDK/GD32VW55x_RELEASE_V1.0.2/MSDK/cloud/alicloud/src/protocol/mqtt/MQTTPacket\MQTTConnectClient.c **** 
 172:C:/Users/stapi/OneDrive/Desktop/GD32VW553/V1_MQTT_OK/GD32VW55X_Wifi_BLE_SDK/GD32VW55x_RELEASE_V1.0.2/MSDK/cloud/alicloud/src/protocol/mqtt/MQTTPacket\MQTTConnectClient.c **** 
 173:C:/Users/stapi/OneDrive/Desktop/GD32VW553/V1_MQTT_OK/GD32VW55X_Wifi_BLE_SDK/GD32VW55x_RELEASE_V1.0.2/MSDK/cloud/alicloud/src/protocol/mqtt/MQTTPacket\MQTTConnectClient.c **** /**
 174:C:/Users/stapi/OneDrive/Desktop/GD32VW553/V1_MQTT_OK/GD32VW55X_Wifi_BLE_SDK/GD32VW55x_RELEASE_V1.0.2/MSDK/cloud/alicloud/src/protocol/mqtt/MQTTPacket\MQTTConnectClient.c ****   * Serializes a disconnect packet into the supplied buffer, ready for writing to a socket
 175:C:/Users/stapi/OneDrive/Desktop/GD32VW553/V1_MQTT_OK/GD32VW55X_Wifi_BLE_SDK/GD32VW55x_RELEASE_V1.0.2/MSDK/cloud/alicloud/src/protocol/mqtt/MQTTPacket\MQTTConnectClient.c ****   * @param buf the buffer into which the packet will be serialized
 176:C:/Users/stapi/OneDrive/Desktop/GD32VW553/V1_MQTT_OK/GD32VW55X_Wifi_BLE_SDK/GD32VW55x_RELEASE_V1.0.2/MSDK/cloud/alicloud/src/protocol/mqtt/MQTTPacket\MQTTConnectClient.c ****   * @param buflen the length in bytes of the supplied buffer, to avoid overruns
 177:C:/Users/stapi/OneDrive/Desktop/GD32VW553/V1_MQTT_OK/GD32VW55X_Wifi_BLE_SDK/GD32VW55x_RELEASE_V1.0.2/MSDK/cloud/alicloud/src/protocol/mqtt/MQTTPacket\MQTTConnectClient.c ****   * @return serialized length, or error if 0
 178:C:/Users/stapi/OneDrive/Desktop/GD32VW553/V1_MQTT_OK/GD32VW55X_Wifi_BLE_SDK/GD32VW55x_RELEASE_V1.0.2/MSDK/cloud/alicloud/src/protocol/mqtt/MQTTPacket\MQTTConnectClient.c ****   */
 179:C:/Users/stapi/OneDrive/Desktop/GD32VW553/V1_MQTT_OK/GD32VW55X_Wifi_BLE_SDK/GD32VW55x_RELEASE_V1.0.2/MSDK/cloud/alicloud/src/protocol/mqtt/MQTTPacket\MQTTConnectClient.c **** int MQTTSerialize_disconnect(unsigned char* buf, int buflen)
 180:C:/Users/stapi/OneDrive/Desktop/GD32VW553/V1_MQTT_OK/GD32VW55X_Wifi_BLE_SDK/GD32VW55x_RELEASE_V1.0.2/MSDK/cloud/alicloud/src/protocol/mqtt/MQTTPacket\MQTTConnectClient.c **** {
 622              		.loc 1 180 1 is_stmt 1
 623              		.cfi_startproc
 624              	.LVL78:
 181:C:/Users/stapi/OneDrive/Desktop/GD32VW553/V1_MQTT_OK/GD32VW55X_Wifi_BLE_SDK/GD32VW55x_RELEASE_V1.0.2/MSDK/cloud/alicloud/src/protocol/mqtt/MQTTPacket\MQTTConnectClient.c **** 	return MQTTSerialize_zero(buf, buflen, DISCONNECT);
 625              		.loc 1 181 2
 626              		.loc 1 181 9 is_stmt 0
 627 0000 3946     		li	a2,14
 628 0002 17030000 		tail	MQTTSerialize_zero
 628      67000300 
 629              	.LVL79:
 630              		.cfi_endproc
 631              	.LFE5:
 633              		.section	.text.MQTTSerialize_pingreq,"ax",@progbits
 634              		.align	1
 635              		.globl	MQTTSerialize_pingreq
 637              	MQTTSerialize_pingreq:
 638              	.LFB6:
 182:C:/Users/stapi/OneDrive/Desktop/GD32VW553/V1_MQTT_OK/GD32VW55X_Wifi_BLE_SDK/GD32VW55x_RELEASE_V1.0.2/MSDK/cloud/alicloud/src/protocol/mqtt/MQTTPacket\MQTTConnectClient.c **** }
 183:C:/Users/stapi/OneDrive/Desktop/GD32VW553/V1_MQTT_OK/GD32VW55X_Wifi_BLE_SDK/GD32VW55x_RELEASE_V1.0.2/MSDK/cloud/alicloud/src/protocol/mqtt/MQTTPacket\MQTTConnectClient.c **** 
 184:C:/Users/stapi/OneDrive/Desktop/GD32VW553/V1_MQTT_OK/GD32VW55X_Wifi_BLE_SDK/GD32VW55x_RELEASE_V1.0.2/MSDK/cloud/alicloud/src/protocol/mqtt/MQTTPacket\MQTTConnectClient.c **** 
 185:C:/Users/stapi/OneDrive/Desktop/GD32VW553/V1_MQTT_OK/GD32VW55X_Wifi_BLE_SDK/GD32VW55x_RELEASE_V1.0.2/MSDK/cloud/alicloud/src/protocol/mqtt/MQTTPacket\MQTTConnectClient.c **** /**
 186:C:/Users/stapi/OneDrive/Desktop/GD32VW553/V1_MQTT_OK/GD32VW55X_Wifi_BLE_SDK/GD32VW55x_RELEASE_V1.0.2/MSDK/cloud/alicloud/src/protocol/mqtt/MQTTPacket\MQTTConnectClient.c ****   * Serializes a disconnect packet into the supplied buffer, ready for writing to a socket
 187:C:/Users/stapi/OneDrive/Desktop/GD32VW553/V1_MQTT_OK/GD32VW55X_Wifi_BLE_SDK/GD32VW55x_RELEASE_V1.0.2/MSDK/cloud/alicloud/src/protocol/mqtt/MQTTPacket\MQTTConnectClient.c ****   * @param buf the buffer into which the packet will be serialized
 188:C:/Users/stapi/OneDrive/Desktop/GD32VW553/V1_MQTT_OK/GD32VW55X_Wifi_BLE_SDK/GD32VW55x_RELEASE_V1.0.2/MSDK/cloud/alicloud/src/protocol/mqtt/MQTTPacket\MQTTConnectClient.c ****   * @param buflen the length in bytes of the supplied buffer, to avoid overruns
 189:C:/Users/stapi/OneDrive/Desktop/GD32VW553/V1_MQTT_OK/GD32VW55X_Wifi_BLE_SDK/GD32VW55x_RELEASE_V1.0.2/MSDK/cloud/alicloud/src/protocol/mqtt/MQTTPacket\MQTTConnectClient.c ****   * @return serialized length, or error if 0
 190:C:/Users/stapi/OneDrive/Desktop/GD32VW553/V1_MQTT_OK/GD32VW55X_Wifi_BLE_SDK/GD32VW55x_RELEASE_V1.0.2/MSDK/cloud/alicloud/src/protocol/mqtt/MQTTPacket\MQTTConnectClient.c ****   */
 191:C:/Users/stapi/OneDrive/Desktop/GD32VW553/V1_MQTT_OK/GD32VW55X_Wifi_BLE_SDK/GD32VW55x_RELEASE_V1.0.2/MSDK/cloud/alicloud/src/protocol/mqtt/MQTTPacket\MQTTConnectClient.c **** int MQTTSerialize_pingreq(unsigned char* buf, int buflen)
 192:C:/Users/stapi/OneDrive/Desktop/GD32VW553/V1_MQTT_OK/GD32VW55X_Wifi_BLE_SDK/GD32VW55x_RELEASE_V1.0.2/MSDK/cloud/alicloud/src/protocol/mqtt/MQTTPacket\MQTTConnectClient.c **** {
 639              		.loc 1 192 1 is_stmt 1
 640              		.cfi_startproc
 641              	.LVL80:
 193:C:/Users/stapi/OneDrive/Desktop/GD32VW553/V1_MQTT_OK/GD32VW55X_Wifi_BLE_SDK/GD32VW55x_RELEASE_V1.0.2/MSDK/cloud/alicloud/src/protocol/mqtt/MQTTPacket\MQTTConnectClient.c **** 	return MQTTSerialize_zero(buf, buflen, PINGREQ);
 642              		.loc 1 193 2
 643              		.loc 1 193 9 is_stmt 0
 644 0000 3146     		li	a2,12
 645 0002 17030000 		tail	MQTTSerialize_zero
 645      67000300 
 646              	.LVL81:
 647              		.cfi_endproc
 648              	.LFE6:
 650              		.text
 651              	.Letext0:
 652              		.file 2 "C:/Users/stapi/OneDrive/Desktop/GD32VW553/V1_MQTT_OK/GD32VW55X_Wifi_BLE_SDK/GD32VW55x_REL
 653              		.file 3 "C:/Users/stapi/OneDrive/Desktop/GD32VW553/V1_MQTT_OK/GD32VW55X_Wifi_BLE_SDK/GD32VW55x_REL
 654              		.file 4 "<built-in>"
DEFINED SYMBOLS
                            *ABS*:0000000000000000 MQTTConnectClient.c
C:\Users\stapi\AppData\Local\Temp\cc2vWUIA.s:13     .text.MQTTSerialize_connectLength:0000000000000000 MQTTSerialize_connectLength
C:\Users\stapi\AppData\Local\Temp\cc2vWUIA.s:17     .text.MQTTSerialize_connectLength:0000000000000000 .L0 
C:\Users\stapi\AppData\Local\Temp\cc2vWUIA.s:19     .text.MQTTSerialize_connectLength:0000000000000000 .L0 
C:\Users\stapi\AppData\Local\Temp\cc2vWUIA.s:20     .text.MQTTSerialize_connectLength:0000000000000008 .L0 
C:\Users\stapi\AppData\Local\Temp\cc2vWUIA.s:21     .text.MQTTSerialize_connectLength:0000000000000008 .L0 
C:\Users\stapi\AppData\Local\Temp\cc2vWUIA.s:22     .text.MQTTSerialize_connectLength:0000000000000008 .L0 
C:\Users\stapi\AppData\Local\Temp\cc2vWUIA.s:23     .text.MQTTSerialize_connectLength:0000000000000008 .L0 
C:\Users\stapi\AppData\Local\Temp\cc2vWUIA.s:24     .text.MQTTSerialize_connectLength:0000000000000008 .L0 
C:\Users\stapi\AppData\Local\Temp\cc2vWUIA.s:27     .text.MQTTSerialize_connectLength:0000000000000008 .L0 
C:\Users\stapi\AppData\Local\Temp\cc2vWUIA.s:28     .text.MQTTSerialize_connectLength:0000000000000008 .L0 
C:\Users\stapi\AppData\Local\Temp\cc2vWUIA.s:29     .text.MQTTSerialize_connectLength:0000000000000008 .L0 
C:\Users\stapi\AppData\Local\Temp\cc2vWUIA.s:31     .text.MQTTSerialize_connectLength:000000000000000c .L0 
C:\Users\stapi\AppData\Local\Temp\cc2vWUIA.s:33     .text.MQTTSerialize_connectLength:000000000000000e .L0 
C:\Users\stapi\AppData\Local\Temp\cc2vWUIA.s:34     .text.MQTTSerialize_connectLength:0000000000000010 .L0 
C:\Users\stapi\AppData\Local\Temp\cc2vWUIA.s:36     .text.MQTTSerialize_connectLength:0000000000000010 .L0 
C:\Users\stapi\AppData\Local\Temp\cc2vWUIA.s:38     .text.MQTTSerialize_connectLength:0000000000000012 .L0 
C:\Users\stapi\AppData\Local\Temp\cc2vWUIA.s:40     .text.MQTTSerialize_connectLength:0000000000000014 .L0 
C:\Users\stapi\AppData\Local\Temp\cc2vWUIA.s:42     .text.MQTTSerialize_connectLength:0000000000000018 .L0 
C:\Users\stapi\AppData\Local\Temp\cc2vWUIA.s:43     .text.MQTTSerialize_connectLength:0000000000000018 .L0 
C:\Users\stapi\AppData\Local\Temp\cc2vWUIA.s:45     .text.MQTTSerialize_connectLength:000000000000001a .L0 
C:\Users\stapi\AppData\Local\Temp\cc2vWUIA.s:47     .text.MQTTSerialize_connectLength:000000000000001c .L0 
C:\Users\stapi\AppData\Local\Temp\cc2vWUIA.s:49     .text.MQTTSerialize_connectLength:0000000000000020 .L0 
C:\Users\stapi\AppData\Local\Temp\cc2vWUIA.s:53     .text.MQTTSerialize_connectLength:0000000000000022 .L0 
C:\Users\stapi\AppData\Local\Temp\cc2vWUIA.s:54     .text.MQTTSerialize_connectLength:0000000000000022 .L0 
C:\Users\stapi\AppData\Local\Temp\cc2vWUIA.s:64     .text.MQTTSerialize_connectLength:000000000000003c .L0 
C:\Users\stapi\AppData\Local\Temp\cc2vWUIA.s:66     .text.MQTTSerialize_connectLength:0000000000000040 .L0 
C:\Users\stapi\AppData\Local\Temp\cc2vWUIA.s:68     .text.MQTTSerialize_connectLength:0000000000000044 .L0 
C:\Users\stapi\AppData\Local\Temp\cc2vWUIA.s:71     .text.MQTTSerialize_connectLength:0000000000000046 .L0 
C:\Users\stapi\AppData\Local\Temp\cc2vWUIA.s:72     .text.MQTTSerialize_connectLength:0000000000000046 .L0 
C:\Users\stapi\AppData\Local\Temp\cc2vWUIA.s:74     .text.MQTTSerialize_connectLength:0000000000000048 .L0 
C:\Users\stapi\AppData\Local\Temp\cc2vWUIA.s:75     .text.MQTTSerialize_connectLength:0000000000000048 .L0 
C:\Users\stapi\AppData\Local\Temp\cc2vWUIA.s:85     .text.MQTTSerialize_connectLength:0000000000000064 .L0 
C:\Users\stapi\AppData\Local\Temp\cc2vWUIA.s:94     .text.MQTTSerialize_connectLength:000000000000007e .L0 
C:\Users\stapi\AppData\Local\Temp\cc2vWUIA.s:96     .text.MQTTSerialize_connectLength:0000000000000080 .L0 
C:\Users\stapi\AppData\Local\Temp\cc2vWUIA.s:98     .text.MQTTSerialize_connectLength:0000000000000082 .L0 
C:\Users\stapi\AppData\Local\Temp\cc2vWUIA.s:102    .text.MQTTSerialize_connectLength:0000000000000084 .L0 
C:\Users\stapi\AppData\Local\Temp\cc2vWUIA.s:103    .text.MQTTSerialize_connectLength:0000000000000084 .L0 
C:\Users\stapi\AppData\Local\Temp\cc2vWUIA.s:106    .text.MQTTSerialize_connectLength:0000000000000088 .L0 
C:\Users\stapi\AppData\Local\Temp\cc2vWUIA.s:110    .text.MQTTSerialize_connectLength:000000000000008c .L0 
C:\Users\stapi\AppData\Local\Temp\cc2vWUIA.s:111    .text.MQTTSerialize_connectLength:000000000000008c .L0 
C:\Users\stapi\AppData\Local\Temp\cc2vWUIA.s:120    .text.MQTTSerialize_connectLength:00000000000000a6 .L0 
C:\Users\stapi\AppData\Local\Temp\cc2vWUIA.s:122    .text.MQTTSerialize_connectLength:00000000000000a8 .L0 
C:\Users\stapi\AppData\Local\Temp\cc2vWUIA.s:126    .text.MQTTSerialize_connectLength:00000000000000aa .L0 
C:\Users\stapi\AppData\Local\Temp\cc2vWUIA.s:127    .text.MQTTSerialize_connectLength:00000000000000aa .L0 
C:\Users\stapi\AppData\Local\Temp\cc2vWUIA.s:130    .text.MQTTSerialize_connectLength:00000000000000ae .L0 
C:\Users\stapi\AppData\Local\Temp\cc2vWUIA.s:134    .text.MQTTSerialize_connectLength:00000000000000b2 .L0 
C:\Users\stapi\AppData\Local\Temp\cc2vWUIA.s:135    .text.MQTTSerialize_connectLength:00000000000000b2 .L0 
C:\Users\stapi\AppData\Local\Temp\cc2vWUIA.s:144    .text.MQTTSerialize_connectLength:00000000000000cc .L0 
C:\Users\stapi\AppData\Local\Temp\cc2vWUIA.s:146    .text.MQTTSerialize_connectLength:00000000000000ce .L0 
C:\Users\stapi\AppData\Local\Temp\cc2vWUIA.s:150    .text.MQTTSerialize_connectLength:00000000000000d0 .L0 
C:\Users\stapi\AppData\Local\Temp\cc2vWUIA.s:151    .text.MQTTSerialize_connectLength:00000000000000d0 .L0 
C:\Users\stapi\AppData\Local\Temp\cc2vWUIA.s:153    .text.MQTTSerialize_connectLength:00000000000000d4 .L0 
C:\Users\stapi\AppData\Local\Temp\cc2vWUIA.s:155    .text.MQTTSerialize_connectLength:00000000000000dc .L0 
C:\Users\stapi\AppData\Local\Temp\cc2vWUIA.s:156    .text.MQTTSerialize_connectLength:00000000000000dc .L0 
C:\Users\stapi\AppData\Local\Temp\cc2vWUIA.s:157    .text.MQTTSerialize_connectLength:00000000000000dc .L0 
C:\Users\stapi\AppData\Local\Temp\cc2vWUIA.s:158    .text.MQTTSerialize_connectLength:00000000000000dc .L0 
C:\Users\stapi\AppData\Local\Temp\cc2vWUIA.s:159    .text.MQTTSerialize_connectLength:00000000000000dc .L0 
C:\Users\stapi\AppData\Local\Temp\cc2vWUIA.s:160    .text.MQTTSerialize_connectLength:00000000000000dc .L0 
C:\Users\stapi\AppData\Local\Temp\cc2vWUIA.s:174    .text.MQTTSerialize_connect:0000000000000000 MQTTSerialize_connect
C:\Users\stapi\AppData\Local\Temp\cc2vWUIA.s:177    .text.MQTTSerialize_connect:0000000000000000 .L0 
C:\Users\stapi\AppData\Local\Temp\cc2vWUIA.s:179    .text.MQTTSerialize_connect:0000000000000000 .L0 
C:\Users\stapi\AppData\Local\Temp\cc2vWUIA.s:180    .text.MQTTSerialize_connect:0000000000000008 .L0 
C:\Users\stapi\AppData\Local\Temp\cc2vWUIA.s:181    .text.MQTTSerialize_connect:0000000000000008 .L0 
C:\Users\stapi\AppData\Local\Temp\cc2vWUIA.s:182    .text.MQTTSerialize_connect:0000000000000008 .L0 
C:\Users\stapi\AppData\Local\Temp\cc2vWUIA.s:183    .text.MQTTSerialize_connect:0000000000000008 .L0 
C:\Users\stapi\AppData\Local\Temp\cc2vWUIA.s:184    .text.MQTTSerialize_connect:0000000000000008 .L0 
C:\Users\stapi\AppData\Local\Temp\cc2vWUIA.s:185    .text.MQTTSerialize_connect:0000000000000008 .L0 
C:\Users\stapi\AppData\Local\Temp\cc2vWUIA.s:187    .text.MQTTSerialize_connect:0000000000000008 .L0 
C:\Users\stapi\AppData\Local\Temp\cc2vWUIA.s:188    .text.MQTTSerialize_connect:0000000000000008 .L0 
C:\Users\stapi\AppData\Local\Temp\cc2vWUIA.s:189    .text.MQTTSerialize_connect:000000000000000a .L0 
C:\Users\stapi\AppData\Local\Temp\cc2vWUIA.s:191    .text.MQTTSerialize_connect:000000000000000a .L0 
C:\Users\stapi\AppData\Local\Temp\cc2vWUIA.s:193    .text.MQTTSerialize_connect:000000000000000c .L0 
C:\Users\stapi\AppData\Local\Temp\cc2vWUIA.s:194    .text.MQTTSerialize_connect:000000000000000c .L0 
C:\Users\stapi\AppData\Local\Temp\cc2vWUIA.s:196    .text.MQTTSerialize_connect:000000000000000c .L0 
C:\Users\stapi\AppData\Local\Temp\cc2vWUIA.s:197    .text.MQTTSerialize_connect:000000000000000c .L0 
C:\Users\stapi\AppData\Local\Temp\cc2vWUIA.s:198    .text.MQTTSerialize_connect:000000000000000c .L0 
C:\Users\stapi\AppData\Local\Temp\cc2vWUIA.s:199    .text.MQTTSerialize_connect:000000000000000c .L0 
C:\Users\stapi\AppData\Local\Temp\cc2vWUIA.s:201    .text.MQTTSerialize_connect:000000000000000e .L0 
C:\Users\stapi\AppData\Local\Temp\cc2vWUIA.s:204    .text.MQTTSerialize_connect:0000000000000010 .L0 
C:\Users\stapi\AppData\Local\Temp\cc2vWUIA.s:207    .text.MQTTSerialize_connect:0000000000000014 .L0 
C:\Users\stapi\AppData\Local\Temp\cc2vWUIA.s:212    .text.MQTTSerialize_connect:000000000000001e .L0 
C:\Users\stapi\AppData\Local\Temp\cc2vWUIA.s:215    .text.MQTTSerialize_connect:0000000000000026 .L0 
C:\Users\stapi\AppData\Local\Temp\cc2vWUIA.s:217    .text.MQTTSerialize_connect:000000000000002a .L0 
C:\Users\stapi\AppData\Local\Temp\cc2vWUIA.s:218    .text.MQTTSerialize_connect:000000000000002a .L0 
C:\Users\stapi\AppData\Local\Temp\cc2vWUIA.s:219    .text.MQTTSerialize_connect:000000000000002a .L0 
C:\Users\stapi\AppData\Local\Temp\cc2vWUIA.s:224    .text.MQTTSerialize_connect:0000000000000036 .L0 
C:\Users\stapi\AppData\Local\Temp\cc2vWUIA.s:225    .text.MQTTSerialize_connect:0000000000000036 .L0 
C:\Users\stapi\AppData\Local\Temp\cc2vWUIA.s:230    .text.MQTTSerialize_connect:0000000000000042 .L0 
C:\Users\stapi\AppData\Local\Temp\cc2vWUIA.s:232    .text.MQTTSerialize_connect:0000000000000044 .L0 
C:\Users\stapi\AppData\Local\Temp\cc2vWUIA.s:234    .text.MQTTSerialize_connect:0000000000000048 .L0 
C:\Users\stapi\AppData\Local\Temp\cc2vWUIA.s:237    .text.MQTTSerialize_connect:000000000000004c .L0 
C:\Users\stapi\AppData\Local\Temp\cc2vWUIA.s:238    .text.MQTTSerialize_connect:000000000000004c .L0 
C:\Users\stapi\AppData\Local\Temp\cc2vWUIA.s:241    .text.MQTTSerialize_connect:0000000000000052 .L0 
C:\Users\stapi\AppData\Local\Temp\cc2vWUIA.s:247    .text.MQTTSerialize_connect:0000000000000064 .L0 
C:\Users\stapi\AppData\Local\Temp\cc2vWUIA.s:250    .text.MQTTSerialize_connect:0000000000000066 .L0 
C:\Users\stapi\AppData\Local\Temp\cc2vWUIA.s:254    .text.MQTTSerialize_connect:0000000000000070 .L0 
C:\Users\stapi\AppData\Local\Temp\cc2vWUIA.s:255    .text.MQTTSerialize_connect:0000000000000070 .L0 
C:\Users\stapi\AppData\Local\Temp\cc2vWUIA.s:256    .text.MQTTSerialize_connect:0000000000000070 .L0 
C:\Users\stapi\AppData\Local\Temp\cc2vWUIA.s:257    .text.MQTTSerialize_connect:0000000000000070 .L0 
C:\Users\stapi\AppData\Local\Temp\cc2vWUIA.s:259    .text.MQTTSerialize_connect:0000000000000074 .L0 
C:\Users\stapi\AppData\Local\Temp\cc2vWUIA.s:261    .text.MQTTSerialize_connect:0000000000000078 .L0 
C:\Users\stapi\AppData\Local\Temp\cc2vWUIA.s:263    .text.MQTTSerialize_connect:000000000000007c .L0 
C:\Users\stapi\AppData\Local\Temp\cc2vWUIA.s:269    .text.MQTTSerialize_connect:0000000000000084 .L0 
C:\Users\stapi\AppData\Local\Temp\cc2vWUIA.s:270    .text.MQTTSerialize_connect:0000000000000084 .L0 
C:\Users\stapi\AppData\Local\Temp\cc2vWUIA.s:272    .text.MQTTSerialize_connect:0000000000000086 .L0 
C:\Users\stapi\AppData\Local\Temp\cc2vWUIA.s:273    .text.MQTTSerialize_connect:0000000000000086 .L0 
C:\Users\stapi\AppData\Local\Temp\cc2vWUIA.s:274    .text.MQTTSerialize_connect:0000000000000086 .L0 
C:\Users\stapi\AppData\Local\Temp\cc2vWUIA.s:286    .text.MQTTSerialize_connect:000000000000009c .L0 
C:\Users\stapi\AppData\Local\Temp\cc2vWUIA.s:287    .text.MQTTSerialize_connect:000000000000009c .L0 
C:\Users\stapi\AppData\Local\Temp\cc2vWUIA.s:290    .text.MQTTSerialize_connect:00000000000000a0 .L0 
C:\Users\stapi\AppData\Local\Temp\cc2vWUIA.s:295    .text.MQTTSerialize_connect:00000000000000a4 .L0 
C:\Users\stapi\AppData\Local\Temp\cc2vWUIA.s:296    .text.MQTTSerialize_connect:00000000000000a4 .L0 
C:\Users\stapi\AppData\Local\Temp\cc2vWUIA.s:300    .text.MQTTSerialize_connect:00000000000000a8 .L0 
C:\Users\stapi\AppData\Local\Temp\cc2vWUIA.s:301    .text.MQTTSerialize_connect:00000000000000a8 .L0 
C:\Users\stapi\AppData\Local\Temp\cc2vWUIA.s:304    .text.MQTTSerialize_connect:00000000000000ac .L0 
C:\Users\stapi\AppData\Local\Temp\cc2vWUIA.s:309    .text.MQTTSerialize_connect:00000000000000b0 .L0 
C:\Users\stapi\AppData\Local\Temp\cc2vWUIA.s:310    .text.MQTTSerialize_connect:00000000000000b0 .L0 
C:\Users\stapi\AppData\Local\Temp\cc2vWUIA.s:314    .text.MQTTSerialize_connect:00000000000000b4 .L0 
C:\Users\stapi\AppData\Local\Temp\cc2vWUIA.s:316    .text.MQTTSerialize_connect:00000000000000b6 .L0 
C:\Users\stapi\AppData\Local\Temp\cc2vWUIA.s:319    .text.MQTTSerialize_connect:00000000000000ba .L0 
C:\Users\stapi\AppData\Local\Temp\cc2vWUIA.s:325    .text.MQTTSerialize_connect:00000000000000c8 .L0 
C:\Users\stapi\AppData\Local\Temp\cc2vWUIA.s:330    .text.MQTTSerialize_connect:00000000000000d6 .L0 
C:\Users\stapi\AppData\Local\Temp\cc2vWUIA.s:340    .text.MQTTSerialize_connect:00000000000000f2 .L0 
C:\Users\stapi\AppData\Local\Temp\cc2vWUIA.s:341    .text.MQTTSerialize_connect:00000000000000f2 .L0 
C:\Users\stapi\AppData\Local\Temp\cc2vWUIA.s:344    .text.MQTTSerialize_connect:00000000000000f8 .L0 
C:\Users\stapi\AppData\Local\Temp\cc2vWUIA.s:354    .text.MQTTSerialize_connect:0000000000000114 .L0 
C:\Users\stapi\AppData\Local\Temp\cc2vWUIA.s:365    .text.MQTTSerialize_connect:0000000000000130 .L0 
C:\Users\stapi\AppData\Local\Temp\cc2vWUIA.s:366    .text.MQTTSerialize_connect:0000000000000130 .L0 
C:\Users\stapi\AppData\Local\Temp\cc2vWUIA.s:368    .text.MQTTSerialize_connect:0000000000000134 .L0 
C:\Users\stapi\AppData\Local\Temp\cc2vWUIA.s:379    .text.MQTTSerialize_connect:0000000000000150 .L0 
C:\Users\stapi\AppData\Local\Temp\cc2vWUIA.s:380    .text.MQTTSerialize_connect:0000000000000150 .L0 
C:\Users\stapi\AppData\Local\Temp\cc2vWUIA.s:383    .text.MQTTSerialize_connect:0000000000000158 .L0 
C:\Users\stapi\AppData\Local\Temp\cc2vWUIA.s:394    .text.MQTTSerialize_connect:0000000000000174 .L0 
C:\Users\stapi\AppData\Local\Temp\cc2vWUIA.s:395    .text.MQTTSerialize_connect:0000000000000174 .L0 
C:\Users\stapi\AppData\Local\Temp\cc2vWUIA.s:400    .text.MQTTSerialize_connect:000000000000017a .L0 
C:\Users\stapi\AppData\Local\Temp\cc2vWUIA.s:401    .text.MQTTSerialize_connect:000000000000017c .L0 
C:\Users\stapi\AppData\Local\Temp\cc2vWUIA.s:402    .text.MQTTSerialize_connect:000000000000017c .L0 
C:\Users\stapi\AppData\Local\Temp\cc2vWUIA.s:404    .text.MQTTSerialize_connect:0000000000000184 .L0 
C:\Users\stapi\AppData\Local\Temp\cc2vWUIA.s:405    .text.MQTTSerialize_connect:0000000000000184 .L0 
C:\Users\stapi\AppData\Local\Temp\cc2vWUIA.s:406    .text.MQTTSerialize_connect:0000000000000184 .L0 
C:\Users\stapi\AppData\Local\Temp\cc2vWUIA.s:407    .text.MQTTSerialize_connect:0000000000000184 .L0 
C:\Users\stapi\AppData\Local\Temp\cc2vWUIA.s:408    .text.MQTTSerialize_connect:0000000000000184 .L0 
C:\Users\stapi\AppData\Local\Temp\cc2vWUIA.s:409    .text.MQTTSerialize_connect:0000000000000184 .L0 
C:\Users\stapi\AppData\Local\Temp\cc2vWUIA.s:412    .text.MQTTSerialize_connect:0000000000000184 .L0 
C:\Users\stapi\AppData\Local\Temp\cc2vWUIA.s:414    .text.MQTTSerialize_connect:0000000000000184 .L0 
C:\Users\stapi\AppData\Local\Temp\cc2vWUIA.s:420    .text.MQTTSerialize_connect:0000000000000196 .L0 
C:\Users\stapi\AppData\Local\Temp\cc2vWUIA.s:426    .text.MQTTSerialize_connect:000000000000019a .L0 
C:\Users\stapi\AppData\Local\Temp\cc2vWUIA.s:427    .text.MQTTSerialize_connect:000000000000019a .L0 
C:\Users\stapi\AppData\Local\Temp\cc2vWUIA.s:429    .text.MQTTSerialize_connect:000000000000019c .L0 
C:\Users\stapi\AppData\Local\Temp\cc2vWUIA.s:430    .text.MQTTSerialize_connect:000000000000019e .L0 
C:\Users\stapi\AppData\Local\Temp\cc2vWUIA.s:437    .text.MQTTDeserialize_connack:0000000000000000 MQTTDeserialize_connack
C:\Users\stapi\AppData\Local\Temp\cc2vWUIA.s:440    .text.MQTTDeserialize_connack:0000000000000000 .L0 
C:\Users\stapi\AppData\Local\Temp\cc2vWUIA.s:442    .text.MQTTDeserialize_connack:0000000000000000 .L0 
C:\Users\stapi\AppData\Local\Temp\cc2vWUIA.s:443    .text.MQTTDeserialize_connack:0000000000000008 .L0 
C:\Users\stapi\AppData\Local\Temp\cc2vWUIA.s:444    .text.MQTTDeserialize_connack:0000000000000008 .L0 
C:\Users\stapi\AppData\Local\Temp\cc2vWUIA.s:445    .text.MQTTDeserialize_connack:0000000000000008 .L0 
C:\Users\stapi\AppData\Local\Temp\cc2vWUIA.s:446    .text.MQTTDeserialize_connack:0000000000000008 .L0 
C:\Users\stapi\AppData\Local\Temp\cc2vWUIA.s:449    .text.MQTTDeserialize_connack:0000000000000008 .L0 
C:\Users\stapi\AppData\Local\Temp\cc2vWUIA.s:450    .text.MQTTDeserialize_connack:0000000000000008 .L0 
C:\Users\stapi\AppData\Local\Temp\cc2vWUIA.s:451    .text.MQTTDeserialize_connack:0000000000000008 .L0 
C:\Users\stapi\AppData\Local\Temp\cc2vWUIA.s:452    .text.MQTTDeserialize_connack:000000000000000a .L0 
C:\Users\stapi\AppData\Local\Temp\cc2vWUIA.s:454    .text.MQTTDeserialize_connack:000000000000000a .L0 
C:\Users\stapi\AppData\Local\Temp\cc2vWUIA.s:456    .text.MQTTDeserialize_connack:000000000000000c .L0 
C:\Users\stapi\AppData\Local\Temp\cc2vWUIA.s:459    .text.MQTTDeserialize_connack:000000000000000e .L0 
C:\Users\stapi\AppData\Local\Temp\cc2vWUIA.s:461    .text.MQTTDeserialize_connack:0000000000000010 .L0 
C:\Users\stapi\AppData\Local\Temp\cc2vWUIA.s:464    .text.MQTTDeserialize_connack:0000000000000012 .L0 
C:\Users\stapi\AppData\Local\Temp\cc2vWUIA.s:465    .text.MQTTDeserialize_connack:0000000000000012 .L0 
C:\Users\stapi\AppData\Local\Temp\cc2vWUIA.s:466    .text.MQTTDeserialize_connack:0000000000000012 .L0 
C:\Users\stapi\AppData\Local\Temp\cc2vWUIA.s:467    .text.MQTTDeserialize_connack:0000000000000012 .L0 
C:\Users\stapi\AppData\Local\Temp\cc2vWUIA.s:468    .text.MQTTDeserialize_connack:0000000000000012 .L0 
C:\Users\stapi\AppData\Local\Temp\cc2vWUIA.s:469    .text.MQTTDeserialize_connack:0000000000000012 .L0 
C:\Users\stapi\AppData\Local\Temp\cc2vWUIA.s:472    .text.MQTTDeserialize_connack:000000000000001a .L0 
C:\Users\stapi\AppData\Local\Temp\cc2vWUIA.s:473    .text.MQTTDeserialize_connack:000000000000001a .L0 
C:\Users\stapi\AppData\Local\Temp\cc2vWUIA.s:478    .text.MQTTDeserialize_connack:0000000000000026 .L0 
C:\Users\stapi\AppData\Local\Temp\cc2vWUIA.s:479    .text.MQTTDeserialize_connack:0000000000000026 .L0 
C:\Users\stapi\AppData\Local\Temp\cc2vWUIA.s:484    .text.MQTTDeserialize_connack:0000000000000032 .L0 
C:\Users\stapi\AppData\Local\Temp\cc2vWUIA.s:486    .text.MQTTDeserialize_connack:0000000000000034 .L0 
C:\Users\stapi\AppData\Local\Temp\cc2vWUIA.s:488    .text.MQTTDeserialize_connack:0000000000000036 .L0 
C:\Users\stapi\AppData\Local\Temp\cc2vWUIA.s:492    .text.MQTTDeserialize_connack:000000000000003a .L0 
C:\Users\stapi\AppData\Local\Temp\cc2vWUIA.s:493    .text.MQTTDeserialize_connack:000000000000003a .L0 
C:\Users\stapi\AppData\Local\Temp\cc2vWUIA.s:494    .text.MQTTDeserialize_connack:000000000000003a .L0 
C:\Users\stapi\AppData\Local\Temp\cc2vWUIA.s:498    .text.MQTTDeserialize_connack:0000000000000040 .L0 
C:\Users\stapi\AppData\Local\Temp\cc2vWUIA.s:499    .text.MQTTDeserialize_connack:0000000000000040 .L0 
C:\Users\stapi\AppData\Local\Temp\cc2vWUIA.s:504    .text.MQTTDeserialize_connack:000000000000004a .L0 
C:\Users\stapi\AppData\Local\Temp\cc2vWUIA.s:505    .text.MQTTDeserialize_connack:000000000000004a .L0 
C:\Users\stapi\AppData\Local\Temp\cc2vWUIA.s:507    .text.MQTTDeserialize_connack:000000000000004e .L0 
C:\Users\stapi\AppData\Local\Temp\cc2vWUIA.s:509    .text.MQTTDeserialize_connack:0000000000000052 .L0 
C:\Users\stapi\AppData\Local\Temp\cc2vWUIA.s:510    .text.MQTTDeserialize_connack:0000000000000052 .L0 
C:\Users\stapi\AppData\Local\Temp\cc2vWUIA.s:514    .text.MQTTDeserialize_connack:000000000000005c .L0 
C:\Users\stapi\AppData\Local\Temp\cc2vWUIA.s:517    .text.MQTTDeserialize_connack:0000000000000060 .L0 
C:\Users\stapi\AppData\Local\Temp\cc2vWUIA.s:518    .text.MQTTDeserialize_connack:0000000000000060 .L0 
C:\Users\stapi\AppData\Local\Temp\cc2vWUIA.s:522    .text.MQTTDeserialize_connack:0000000000000062 .L0 
C:\Users\stapi\AppData\Local\Temp\cc2vWUIA.s:523    .text.MQTTDeserialize_connack:0000000000000064 .L0 
C:\Users\stapi\AppData\Local\Temp\cc2vWUIA.s:524    .text.MQTTDeserialize_connack:0000000000000064 .L0 
C:\Users\stapi\AppData\Local\Temp\cc2vWUIA.s:526    .text.MQTTDeserialize_connack:000000000000006c .L0 
C:\Users\stapi\AppData\Local\Temp\cc2vWUIA.s:527    .text.MQTTDeserialize_connack:000000000000006c .L0 
C:\Users\stapi\AppData\Local\Temp\cc2vWUIA.s:528    .text.MQTTDeserialize_connack:000000000000006c .L0 
C:\Users\stapi\AppData\Local\Temp\cc2vWUIA.s:529    .text.MQTTDeserialize_connack:000000000000006c .L0 
C:\Users\stapi\AppData\Local\Temp\cc2vWUIA.s:532    .text.MQTTDeserialize_connack:000000000000006c .L0 
C:\Users\stapi\AppData\Local\Temp\cc2vWUIA.s:535    .text.MQTTDeserialize_connack:000000000000006c .L0 
C:\Users\stapi\AppData\Local\Temp\cc2vWUIA.s:536    .text.MQTTDeserialize_connack:000000000000006c .L0 
C:\Users\stapi\AppData\Local\Temp\cc2vWUIA.s:538    .text.MQTTDeserialize_connack:000000000000006e .L0 
C:\Users\stapi\AppData\Local\Temp\cc2vWUIA.s:539    .text.MQTTDeserialize_connack:0000000000000070 .L0 
C:\Users\stapi\AppData\Local\Temp\cc2vWUIA.s:546    .text.MQTTSerialize_zero:0000000000000000 MQTTSerialize_zero
C:\Users\stapi\AppData\Local\Temp\cc2vWUIA.s:549    .text.MQTTSerialize_zero:0000000000000000 .L0 
C:\Users\stapi\AppData\Local\Temp\cc2vWUIA.s:551    .text.MQTTSerialize_zero:0000000000000000 .L0 
C:\Users\stapi\AppData\Local\Temp\cc2vWUIA.s:552    .text.MQTTSerialize_zero:0000000000000008 .L0 
C:\Users\stapi\AppData\Local\Temp\cc2vWUIA.s:553    .text.MQTTSerialize_zero:0000000000000008 .L0 
C:\Users\stapi\AppData\Local\Temp\cc2vWUIA.s:554    .text.MQTTSerialize_zero:0000000000000008 .L0 
C:\Users\stapi\AppData\Local\Temp\cc2vWUIA.s:556    .text.MQTTSerialize_zero:0000000000000008 .L0 
C:\Users\stapi\AppData\Local\Temp\cc2vWUIA.s:558    .text.MQTTSerialize_zero:0000000000000008 .L0 
C:\Users\stapi\AppData\Local\Temp\cc2vWUIA.s:559    .text.MQTTSerialize_zero:0000000000000008 .L0 
C:\Users\stapi\AppData\Local\Temp\cc2vWUIA.s:560    .text.MQTTSerialize_zero:0000000000000008 .L0 
C:\Users\stapi\AppData\Local\Temp\cc2vWUIA.s:561    .text.MQTTSerialize_zero:000000000000000a .L0 
C:\Users\stapi\AppData\Local\Temp\cc2vWUIA.s:563    .text.MQTTSerialize_zero:000000000000000a .L0 
C:\Users\stapi\AppData\Local\Temp\cc2vWUIA.s:565    .text.MQTTSerialize_zero:000000000000000c .L0 
C:\Users\stapi\AppData\Local\Temp\cc2vWUIA.s:566    .text.MQTTSerialize_zero:000000000000000c .L0 
C:\Users\stapi\AppData\Local\Temp\cc2vWUIA.s:569    .text.MQTTSerialize_zero:0000000000000012 .L0 
C:\Users\stapi\AppData\Local\Temp\cc2vWUIA.s:575    .text.MQTTSerialize_zero:000000000000001a .L0 
C:\Users\stapi\AppData\Local\Temp\cc2vWUIA.s:576    .text.MQTTSerialize_zero:000000000000001a .L0 
C:\Users\stapi\AppData\Local\Temp\cc2vWUIA.s:577    .text.MQTTSerialize_zero:000000000000001a .L0 
C:\Users\stapi\AppData\Local\Temp\cc2vWUIA.s:582    .text.MQTTSerialize_zero:0000000000000024 .L0 
C:\Users\stapi\AppData\Local\Temp\cc2vWUIA.s:583    .text.MQTTSerialize_zero:0000000000000024 .L0 
C:\Users\stapi\AppData\Local\Temp\cc2vWUIA.s:588    .text.MQTTSerialize_zero:0000000000000030 .L0 
C:\Users\stapi\AppData\Local\Temp\cc2vWUIA.s:589    .text.MQTTSerialize_zero:0000000000000030 .L0 
C:\Users\stapi\AppData\Local\Temp\cc2vWUIA.s:592    .text.MQTTSerialize_zero:0000000000000034 .L0 
C:\Users\stapi\AppData\Local\Temp\cc2vWUIA.s:596    .text.MQTTSerialize_zero:0000000000000038 .L0 
C:\Users\stapi\AppData\Local\Temp\cc2vWUIA.s:597    .text.MQTTSerialize_zero:000000000000003a .L0 
C:\Users\stapi\AppData\Local\Temp\cc2vWUIA.s:598    .text.MQTTSerialize_zero:000000000000003a .L0 
C:\Users\stapi\AppData\Local\Temp\cc2vWUIA.s:600    .text.MQTTSerialize_zero:0000000000000042 .L0 
C:\Users\stapi\AppData\Local\Temp\cc2vWUIA.s:601    .text.MQTTSerialize_zero:0000000000000042 .L0 
C:\Users\stapi\AppData\Local\Temp\cc2vWUIA.s:602    .text.MQTTSerialize_zero:0000000000000042 .L0 
C:\Users\stapi\AppData\Local\Temp\cc2vWUIA.s:605    .text.MQTTSerialize_zero:0000000000000042 .L0 
C:\Users\stapi\AppData\Local\Temp\cc2vWUIA.s:608    .text.MQTTSerialize_zero:0000000000000042 .L0 
C:\Users\stapi\AppData\Local\Temp\cc2vWUIA.s:609    .text.MQTTSerialize_zero:0000000000000042 .L0 
C:\Users\stapi\AppData\Local\Temp\cc2vWUIA.s:612    .text.MQTTSerialize_zero:0000000000000044 .L0 
C:\Users\stapi\AppData\Local\Temp\cc2vWUIA.s:613    .text.MQTTSerialize_zero:0000000000000046 .L0 
C:\Users\stapi\AppData\Local\Temp\cc2vWUIA.s:620    .text.MQTTSerialize_disconnect:0000000000000000 MQTTSerialize_disconnect
C:\Users\stapi\AppData\Local\Temp\cc2vWUIA.s:623    .text.MQTTSerialize_disconnect:0000000000000000 .L0 
C:\Users\stapi\AppData\Local\Temp\cc2vWUIA.s:625    .text.MQTTSerialize_disconnect:0000000000000000 .L0 
C:\Users\stapi\AppData\Local\Temp\cc2vWUIA.s:626    .text.MQTTSerialize_disconnect:0000000000000000 .L0 
C:\Users\stapi\AppData\Local\Temp\cc2vWUIA.s:627    .text.MQTTSerialize_disconnect:0000000000000000 .L0 
C:\Users\stapi\AppData\Local\Temp\cc2vWUIA.s:630    .text.MQTTSerialize_disconnect:000000000000000a .L0 
C:\Users\stapi\AppData\Local\Temp\cc2vWUIA.s:637    .text.MQTTSerialize_pingreq:0000000000000000 MQTTSerialize_pingreq
C:\Users\stapi\AppData\Local\Temp\cc2vWUIA.s:640    .text.MQTTSerialize_pingreq:0000000000000000 .L0 
C:\Users\stapi\AppData\Local\Temp\cc2vWUIA.s:642    .text.MQTTSerialize_pingreq:0000000000000000 .L0 
C:\Users\stapi\AppData\Local\Temp\cc2vWUIA.s:643    .text.MQTTSerialize_pingreq:0000000000000000 .L0 
C:\Users\stapi\AppData\Local\Temp\cc2vWUIA.s:644    .text.MQTTSerialize_pingreq:0000000000000000 .L0 
C:\Users\stapi\AppData\Local\Temp\cc2vWUIA.s:647    .text.MQTTSerialize_pingreq:000000000000000a .L0 
C:\Users\stapi\AppData\Local\Temp\cc2vWUIA.s:163    .text.MQTTSerialize_connectLength:00000000000000dc .L0 
C:\Users\stapi\AppData\Local\Temp\cc2vWUIA.s:433    .text.MQTTSerialize_connect:000000000000019e .L0 
C:\Users\stapi\AppData\Local\Temp\cc2vWUIA.s:542    .text.MQTTDeserialize_connack:0000000000000070 .L0 
C:\Users\stapi\AppData\Local\Temp\cc2vWUIA.s:616    .text.MQTTSerialize_zero:0000000000000046 .L0 
C:\Users\stapi\AppData\Local\Temp\cc2vWUIA.s:633    .text.MQTTSerialize_disconnect:000000000000000a .L0 
C:\Users\stapi\AppData\Local\Temp\cc2vWUIA.s:650    .text.MQTTSerialize_pingreq:000000000000000a .L0 
                     .debug_frame:0000000000000000 .L0 
C:\Users\stapi\AppData\Local\Temp\cc2vWUIA.s:50     .text.MQTTSerialize_connectLength:0000000000000022 .L2
C:\Users\stapi\AppData\Local\Temp\cc2vWUIA.s:100    .text.MQTTSerialize_connectLength:0000000000000084 .L3
C:\Users\stapi\AppData\Local\Temp\cc2vWUIA.s:108    .text.MQTTSerialize_connectLength:000000000000008c .L4
C:\Users\stapi\AppData\Local\Temp\cc2vWUIA.s:124    .text.MQTTSerialize_connectLength:00000000000000aa .L5
C:\Users\stapi\AppData\Local\Temp\cc2vWUIA.s:132    .text.MQTTSerialize_connectLength:00000000000000b2 .L6
C:\Users\stapi\AppData\Local\Temp\cc2vWUIA.s:149    .text.MQTTSerialize_connectLength:00000000000000d0 .L1
C:\Users\stapi\AppData\Local\Temp\cc2vWUIA.s:165    .rodata.MQTTSerialize_connect.str1.4:0000000000000000 .LC0
C:\Users\stapi\AppData\Local\Temp\cc2vWUIA.s:168    .rodata.MQTTSerialize_connect.str1.4:0000000000000008 .LC1
C:\Users\stapi\AppData\Local\Temp\cc2vWUIA.s:422    .text.MQTTSerialize_connect:000000000000019a .L32
C:\Users\stapi\AppData\Local\Temp\cc2vWUIA.s:411    .text.MQTTSerialize_connect:0000000000000184 .L22
C:\Users\stapi\AppData\Local\Temp\cc2vWUIA.s:284    .text.MQTTSerialize_connect:000000000000009c .L24
C:\Users\stapi\AppData\Local\Temp\cc2vWUIA.s:292    .text.MQTTSerialize_connect:00000000000000a4 .L25
C:\Users\stapi\AppData\Local\Temp\cc2vWUIA.s:298    .text.MQTTSerialize_connect:00000000000000a8 .L26
C:\Users\stapi\AppData\Local\Temp\cc2vWUIA.s:306    .text.MQTTSerialize_connect:00000000000000b0 .L27
C:\Users\stapi\AppData\Local\Temp\cc2vWUIA.s:312    .text.MQTTSerialize_connect:00000000000000b4 .L28
C:\Users\stapi\AppData\Local\Temp\cc2vWUIA.s:363    .text.MQTTSerialize_connect:0000000000000130 .L29
C:\Users\stapi\AppData\Local\Temp\cc2vWUIA.s:377    .text.MQTTSerialize_connect:0000000000000150 .L30
C:\Users\stapi\AppData\Local\Temp\cc2vWUIA.s:392    .text.MQTTSerialize_connect:0000000000000174 .L31
C:\Users\stapi\AppData\Local\Temp\cc2vWUIA.s:248    .text.MQTTSerialize_connect:0000000000000066 .L49
C:\Users\stapi\AppData\Local\Temp\cc2vWUIA.s:398    .text.MQTTSerialize_connect:000000000000017a .L20
C:\Users\stapi\AppData\Local\Temp\cc2vWUIA.s:531    .text.MQTTDeserialize_connack:000000000000006c .L52
C:\Users\stapi\AppData\Local\Temp\cc2vWUIA.s:520    .text.MQTTDeserialize_connack:0000000000000062 .L50
C:\Users\stapi\AppData\Local\Temp\cc2vWUIA.s:604    .text.MQTTSerialize_zero:0000000000000042 .L56
C:\Users\stapi\AppData\Local\Temp\cc2vWUIA.s:594    .text.MQTTSerialize_zero:0000000000000038 .L54
C:\Users\stapi\AppData\Local\Temp\cc2vWUIA.s:2156   .debug_abbrev:0000000000000000 .Ldebug_abbrev0
C:\Users\stapi\AppData\Local\Temp\cc2vWUIA.s:3257   .debug_str:0000000000000489 .LASF86
C:\Users\stapi\AppData\Local\Temp\cc2vWUIA.s:3271   .debug_str:00000000000005aa .LASF87
C:\Users\stapi\AppData\Local\Temp\cc2vWUIA.s:3179   .debug_str:0000000000000245 .LASF88
C:\Users\stapi\AppData\Local\Temp\cc2vWUIA.s:3073   .debug_ranges:0000000000000000 .Ldebug_ranges0
C:\Users\stapi\AppData\Local\Temp\cc2vWUIA.s:3089   .debug_line:0000000000000000 .Ldebug_line0
C:\Users\stapi\AppData\Local\Temp\cc2vWUIA.s:3165   .debug_str:00000000000001db .LASF3
C:\Users\stapi\AppData\Local\Temp\cc2vWUIA.s:3091   .debug_str:0000000000000000 .LASF0
C:\Users\stapi\AppData\Local\Temp\cc2vWUIA.s:3119   .debug_str:00000000000000bc .LASF1
C:\Users\stapi\AppData\Local\Temp\cc2vWUIA.s:3177   .debug_str:000000000000022c .LASF2
C:\Users\stapi\AppData\Local\Temp\cc2vWUIA.s:3153   .debug_str:000000000000018c .LASF4
C:\Users\stapi\AppData\Local\Temp\cc2vWUIA.s:3195   .debug_str:0000000000000337 .LASF5
C:\Users\stapi\AppData\Local\Temp\cc2vWUIA.s:3213   .debug_str:00000000000003a2 .LASF6
C:\Users\stapi\AppData\Local\Temp\cc2vWUIA.s:3161   .debug_str:00000000000001c4 .LASF7
C:\Users\stapi\AppData\Local\Temp\cc2vWUIA.s:3225   .debug_str:00000000000003ef .LASF8
C:\Users\stapi\AppData\Local\Temp\cc2vWUIA.s:3245   .debug_str:0000000000000456 .LASF9
C:\Users\stapi\AppData\Local\Temp\cc2vWUIA.s:3261   .debug_str:0000000000000581 .LASF10
C:\Users\stapi\AppData\Local\Temp\cc2vWUIA.s:3263   .debug_str:0000000000000588 .LASF11
C:\Users\stapi\AppData\Local\Temp\cc2vWUIA.s:3249   .debug_str:0000000000000464 .LASF12
C:\Users\stapi\AppData\Local\Temp\cc2vWUIA.s:3239   .debug_str:000000000000043c .LASF13
C:\Users\stapi\AppData\Local\Temp\cc2vWUIA.s:3185   .debug_str:00000000000002f4 .LASF14
C:\Users\stapi\AppData\Local\Temp\cc2vWUIA.s:3141   .debug_str:0000000000000145 .LASF15
C:\Users\stapi\AppData\Local\Temp\cc2vWUIA.s:3107   .debug_str:000000000000007e .LASF16
C:\Users\stapi\AppData\Local\Temp\cc2vWUIA.s:3265   .debug_str:000000000000058f .LASF17
C:\Users\stapi\AppData\Local\Temp\cc2vWUIA.s:3211   .debug_str:0000000000000399 .LASF18
C:\Users\stapi\AppData\Local\Temp\cc2vWUIA.s:3203   .debug_str:000000000000036b .LASF19
C:\Users\stapi\AppData\Local\Temp\cc2vWUIA.s:3157   .debug_str:00000000000001a0 .LASF20
C:\Users\stapi\AppData\Local\Temp\cc2vWUIA.s:3109   .debug_str:0000000000000087 .LASF21
C:\Users\stapi\AppData\Local\Temp\cc2vWUIA.s:3103   .debug_str:0000000000000070 .LASF22
C:\Users\stapi\AppData\Local\Temp\cc2vWUIA.s:3145   .debug_str:0000000000000160 .LASF23
C:\Users\stapi\AppData\Local\Temp\cc2vWUIA.s:3129   .debug_str:0000000000000108 .LASF24
C:\Users\stapi\AppData\Local\Temp\cc2vWUIA.s:3215   .debug_str:00000000000003aa .LASF25
C:\Users\stapi\AppData\Local\Temp\cc2vWUIA.s:3233   .debug_str:0000000000000419 .LASF28
C:\Users\stapi\AppData\Local\Temp\cc2vWUIA.s:3173   .debug_str:0000000000000214 .LASF26
C:\Users\stapi\AppData\Local\Temp\cc2vWUIA.s:3241   .debug_str:0000000000000446 .LASF27
C:\Users\stapi\AppData\Local\Temp\cc2vWUIA.s:3237   .debug_str:000000000000042e .LASF29
C:\Users\stapi\AppData\Local\Temp\cc2vWUIA.s:3199   .debug_str:000000000000035b .LASF30
C:\Users\stapi\AppData\Local\Temp\cc2vWUIA.s:3111   .debug_str:000000000000008e .LASF31
C:\Users\stapi\AppData\Local\Temp\cc2vWUIA.s:3191   .debug_str:0000000000000315 .LASF32
C:\Users\stapi\AppData\Local\Temp\cc2vWUIA.s:3151   .debug_str:000000000000017f .LASF33
C:\Users\stapi\AppData\Local\Temp\cc2vWUIA.s:3115   .debug_str:00000000000000af .LASF34
C:\Users\stapi\AppData\Local\Temp\cc2vWUIA.s:3117   .debug_str:00000000000000b4 .LASF35
C:\Users\stapi\AppData\Local\Temp\cc2vWUIA.s:3155   .debug_str:0000000000000195 .LASF36
C:\Users\stapi\AppData\Local\Temp\cc2vWUIA.s:3105   .debug_str:0000000000000075 .LASF37
C:\Users\stapi\AppData\Local\Temp\cc2vWUIA.s:3189   .debug_str:000000000000030c .LASF38
C:\Users\stapi\AppData\Local\Temp\cc2vWUIA.s:3259   .debug_str:0000000000000570 .LASF39
C:\Users\stapi\AppData\Local\Temp\cc2vWUIA.s:3235   .debug_str:0000000000000424 .LASF40
C:\Users\stapi\AppData\Local\Temp\cc2vWUIA.s:3137   .debug_str:0000000000000128 .LASF41
C:\Users\stapi\AppData\Local\Temp\cc2vWUIA.s:3099   .debug_str:000000000000005d .LASF42
C:\Users\stapi\AppData\Local\Temp\cc2vWUIA.s:3201   .debug_str:0000000000000363 .LASF43
C:\Users\stapi\AppData\Local\Temp\cc2vWUIA.s:3217   .debug_str:00000000000003b8 .LASF44
C:\Users\stapi\AppData\Local\Temp\cc2vWUIA.s:3159   .debug_str:00000000000001ad .LASF45
C:\Users\stapi\AppData\Local\Temp\cc2vWUIA.s:3267   .debug_str:0000000000000597 .LASF46
C:\Users\stapi\AppData\Local\Temp\cc2vWUIA.s:3101   .debug_str:0000000000000067 .LASF47
C:\Users\stapi\AppData\Local\Temp\cc2vWUIA.s:3197   .debug_str:0000000000000349 .LASF48
C:\Users\stapi\AppData\Local\Temp\cc2vWUIA.s:3135   .debug_str:000000000000011f .LASF49
C:\Users\stapi\AppData\Local\Temp\cc2vWUIA.s:3175   .debug_str:0000000000000219 .LASF50
C:\Users\stapi\AppData\Local\Temp\cc2vWUIA.s:3193   .debug_str:0000000000000320 .LASF51
C:\Users\stapi\AppData\Local\Temp\cc2vWUIA.s:3163   .debug_str:00000000000001cc .LASF52
C:\Users\stapi\AppData\Local\Temp\cc2vWUIA.s:3121   .debug_str:00000000000000d2 .LASF53
C:\Users\stapi\AppData\Local\Temp\cc2vWUIA.s:3123   .debug_str:00000000000000e3 .LASF54
C:\Users\stapi\AppData\Local\Temp\cc2vWUIA.s:3221   .debug_str:00000000000003cc .LASF55
C:\Users\stapi\AppData\Local\Temp\cc2vWUIA.s:3131   .debug_str:000000000000010d .LASF56
C:\Users\stapi\AppData\Local\Temp\cc2vWUIA.s:3167   .debug_str:00000000000001e2 .LASF57
C:\Users\stapi\AppData\Local\Temp\cc2vWUIA.s:3139   .debug_str:0000000000000137 .LASF58
C:\Users\stapi\AppData\Local\Temp\cc2vWUIA.s:3113   .debug_str:0000000000000098 .LASF59
C:\Users\stapi\AppData\Local\Temp\cc2vWUIA.s:3097   .debug_str:0000000000000047 .LASF61
C:\Users\stapi\AppData\Local\Temp\cc2vWUIA.s:638    .text.MQTTSerialize_pingreq:0000000000000000 .LFB6
C:\Users\stapi\AppData\Local\Temp\cc2vWUIA.s:648    .text.MQTTSerialize_pingreq:000000000000000a .LFE6
C:\Users\stapi\AppData\Local\Temp\cc2vWUIA.s:2659   .debug_loc:0000000000000000 .LLST21
C:\Users\stapi\AppData\Local\Temp\cc2vWUIA.s:3229   .debug_str:000000000000040d .LASF60
C:\Users\stapi\AppData\Local\Temp\cc2vWUIA.s:2673   .debug_loc:0000000000000021 .LLST22
C:\Users\stapi\AppData\Local\Temp\cc2vWUIA.s:646    .text.MQTTSerialize_pingreq:000000000000000a .LVL81
C:\Users\stapi\AppData\Local\Temp\cc2vWUIA.s:3223   .debug_str:00000000000003d6 .LASF62
C:\Users\stapi\AppData\Local\Temp\cc2vWUIA.s:621    .text.MQTTSerialize_disconnect:0000000000000000 .LFB5
C:\Users\stapi\AppData\Local\Temp\cc2vWUIA.s:631    .text.MQTTSerialize_disconnect:000000000000000a .LFE5
C:\Users\stapi\AppData\Local\Temp\cc2vWUIA.s:2687   .debug_loc:0000000000000042 .LLST19
C:\Users\stapi\AppData\Local\Temp\cc2vWUIA.s:2701   .debug_loc:0000000000000063 .LLST20
C:\Users\stapi\AppData\Local\Temp\cc2vWUIA.s:629    .text.MQTTSerialize_disconnect:000000000000000a .LVL79
C:\Users\stapi\AppData\Local\Temp\cc2vWUIA.s:3181   .debug_str:00000000000002d6 .LASF63
C:\Users\stapi\AppData\Local\Temp\cc2vWUIA.s:547    .text.MQTTSerialize_zero:0000000000000000 .LFB4
C:\Users\stapi\AppData\Local\Temp\cc2vWUIA.s:614    .text.MQTTSerialize_zero:0000000000000046 .LFE4
C:\Users\stapi\AppData\Local\Temp\cc2vWUIA.s:2715   .debug_loc:0000000000000084 .LLST15
C:\Users\stapi\AppData\Local\Temp\cc2vWUIA.s:2742   .debug_loc:00000000000000c7 .LLST16
C:\Users\stapi\AppData\Local\Temp\cc2vWUIA.s:3183   .debug_str:00000000000002e9 .LASF64
C:\Users\stapi\AppData\Local\Temp\cc2vWUIA.s:2760   .debug_loc:00000000000000f3 .LLST17
C:\Users\stapi\AppData\Local\Temp\cc2vWUIA.s:3269   .debug_str:00000000000005a3 .LASF68
C:\Users\stapi\AppData\Local\Temp\cc2vWUIA.s:2778   .debug_loc:000000000000011f .LLST18
C:\Users\stapi\AppData\Local\Temp\cc2vWUIA.s:3231   .debug_str:0000000000000414 .LASF73
C:\Users\stapi\AppData\Local\Temp\cc2vWUIA.s:606    .text.MQTTSerialize_zero:0000000000000042 .L55
C:\Users\stapi\AppData\Local\Temp\cc2vWUIA.s:580    .text.MQTTSerialize_zero:0000000000000024 .LVL73
C:\Users\stapi\AppData\Local\Temp\cc2vWUIA.s:586    .text.MQTTSerialize_zero:0000000000000030 .LVL74
C:\Users\stapi\AppData\Local\Temp\cc2vWUIA.s:3169   .debug_str:00000000000001f4 .LASF65
C:\Users\stapi\AppData\Local\Temp\cc2vWUIA.s:438    .text.MQTTDeserialize_connack:0000000000000000 .LFB3
C:\Users\stapi\AppData\Local\Temp\cc2vWUIA.s:540    .text.MQTTDeserialize_connack:0000000000000070 .LFE3
C:\Users\stapi\AppData\Local\Temp\cc2vWUIA.s:3143   .debug_str:0000000000000151 .LASF66
C:\Users\stapi\AppData\Local\Temp\cc2vWUIA.s:2793   .debug_loc:0000000000000141 .LLST8
C:\Users\stapi\AppData\Local\Temp\cc2vWUIA.s:3243   .debug_str:000000000000044b .LASF67
C:\Users\stapi\AppData\Local\Temp\cc2vWUIA.s:2804   .debug_loc:000000000000015f .LLST9
C:\Users\stapi\AppData\Local\Temp\cc2vWUIA.s:2815   .debug_loc:000000000000017d .LLST10
C:\Users\stapi\AppData\Local\Temp\cc2vWUIA.s:2829   .debug_loc:000000000000019e .LLST11
C:\Users\stapi\AppData\Local\Temp\cc2vWUIA.s:2843   .debug_loc:00000000000001bf .LLST12
C:\Users\stapi\AppData\Local\Temp\cc2vWUIA.s:3207   .debug_str:000000000000038b .LASF69
C:\Users\stapi\AppData\Local\Temp\cc2vWUIA.s:3171   .debug_str:000000000000020c .LASF70
C:\Users\stapi\AppData\Local\Temp\cc2vWUIA.s:2863   .debug_loc:00000000000001e6 .LLST13
C:\Users\stapi\AppData\Local\Temp\cc2vWUIA.s:2905   .debug_loc:0000000000000238 .LLST14
C:\Users\stapi\AppData\Local\Temp\cc2vWUIA.s:3209   .debug_str:0000000000000393 .LASF71
C:\Users\stapi\AppData\Local\Temp\cc2vWUIA.s:3253   .debug_str:0000000000000476 .LASF72
C:\Users\stapi\AppData\Local\Temp\cc2vWUIA.s:533    .text.MQTTDeserialize_connack:000000000000006c .L51
C:\Users\stapi\AppData\Local\Temp\cc2vWUIA.s:470    .text.MQTTDeserialize_connack:000000000000001a .LVL57
C:\Users\stapi\AppData\Local\Temp\cc2vWUIA.s:482    .text.MQTTDeserialize_connack:0000000000000032 .LVL59
C:\Users\stapi\AppData\Local\Temp\cc2vWUIA.s:502    .text.MQTTDeserialize_connack:000000000000004a .LVL63
C:\Users\stapi\AppData\Local\Temp\cc2vWUIA.s:512    .text.MQTTDeserialize_connack:000000000000005c .LVL64
C:\Users\stapi\AppData\Local\Temp\cc2vWUIA.s:3227   .debug_str:00000000000003f7 .LASF74
C:\Users\stapi\AppData\Local\Temp\cc2vWUIA.s:175    .text.MQTTSerialize_connect:0000000000000000 .LFB2
C:\Users\stapi\AppData\Local\Temp\cc2vWUIA.s:431    .text.MQTTSerialize_connect:000000000000019e .LFE2
C:\Users\stapi\AppData\Local\Temp\cc2vWUIA.s:2927   .debug_loc:000000000000026f .LLST2
C:\Users\stapi\AppData\Local\Temp\cc2vWUIA.s:2938   .debug_loc:000000000000028d .LLST3
C:\Users\stapi\AppData\Local\Temp\cc2vWUIA.s:3147   .debug_str:0000000000000165 .LASF75
C:\Users\stapi\AppData\Local\Temp\cc2vWUIA.s:2960   .debug_loc:00000000000002c4 .LLST4
C:\Users\stapi\AppData\Local\Temp\cc2vWUIA.s:2971   .debug_loc:00000000000002e2 .LLST5
C:\Users\stapi\AppData\Local\Temp\cc2vWUIA.s:2986   .debug_loc:000000000000030b .LLST6
C:\Users\stapi\AppData\Local\Temp\cc2vWUIA.s:3002   .debug_loc:0000000000000335 .LLST7
C:\Users\stapi\AppData\Local\Temp\cc2vWUIA.s:423    .text.MQTTSerialize_connect:000000000000019a .L21
C:\Users\stapi\AppData\Local\Temp\cc2vWUIA.s:208    .text.MQTTSerialize_connect:000000000000001c .LVL21
C:\Users\stapi\AppData\Local\Temp\cc2vWUIA.s:213    .text.MQTTSerialize_connect:0000000000000026 .LVL23
C:\Users\stapi\AppData\Local\Temp\cc2vWUIA.s:222    .text.MQTTSerialize_connect:0000000000000036 .LVL24
C:\Users\stapi\AppData\Local\Temp\cc2vWUIA.s:228    .text.MQTTSerialize_connect:0000000000000042 .LVL25
C:\Users\stapi\AppData\Local\Temp\cc2vWUIA.s:245    .text.MQTTSerialize_connect:0000000000000064 .LVL26
C:\Users\stapi\AppData\Local\Temp\cc2vWUIA.s:252    .text.MQTTSerialize_connect:0000000000000070 .LVL27
C:\Users\stapi\AppData\Local\Temp\cc2vWUIA.s:323    .text.MQTTSerialize_connect:00000000000000c8 .LVL37
C:\Users\stapi\AppData\Local\Temp\cc2vWUIA.s:328    .text.MQTTSerialize_connect:00000000000000d6 .LVL38
C:\Users\stapi\AppData\Local\Temp\cc2vWUIA.s:334    .text.MQTTSerialize_connect:00000000000000e6 .LVL39
C:\Users\stapi\AppData\Local\Temp\cc2vWUIA.s:338    .text.MQTTSerialize_connect:00000000000000f2 .LVL40
C:\Users\stapi\AppData\Local\Temp\cc2vWUIA.s:348    .text.MQTTSerialize_connect:0000000000000108 .LVL41
C:\Users\stapi\AppData\Local\Temp\cc2vWUIA.s:352    .text.MQTTSerialize_connect:0000000000000114 .LVL42
C:\Users\stapi\AppData\Local\Temp\cc2vWUIA.s:358    .text.MQTTSerialize_connect:0000000000000124 .LVL43
C:\Users\stapi\AppData\Local\Temp\cc2vWUIA.s:362    .text.MQTTSerialize_connect:0000000000000130 .LVL44
C:\Users\stapi\AppData\Local\Temp\cc2vWUIA.s:372    .text.MQTTSerialize_connect:0000000000000144 .LVL45
C:\Users\stapi\AppData\Local\Temp\cc2vWUIA.s:376    .text.MQTTSerialize_connect:0000000000000150 .LVL46
C:\Users\stapi\AppData\Local\Temp\cc2vWUIA.s:387    .text.MQTTSerialize_connect:0000000000000168 .LVL47
C:\Users\stapi\AppData\Local\Temp\cc2vWUIA.s:391    .text.MQTTSerialize_connect:0000000000000174 .LVL48
C:\Users\stapi\AppData\Local\Temp\cc2vWUIA.s:418    .text.MQTTSerialize_connect:0000000000000196 .LVL51
C:\Users\stapi\AppData\Local\Temp\cc2vWUIA.s:3093   .debug_str:000000000000001c .LASF76
C:\Users\stapi\AppData\Local\Temp\cc2vWUIA.s:14     .text.MQTTSerialize_connectLength:0000000000000000 .LFB1
C:\Users\stapi\AppData\Local\Temp\cc2vWUIA.s:161    .text.MQTTSerialize_connectLength:00000000000000dc .LFE1
C:\Users\stapi\AppData\Local\Temp\cc2vWUIA.s:3023   .debug_loc:0000000000000364 .LLST0
C:\Users\stapi\AppData\Local\Temp\cc2vWUIA.s:3034   .debug_loc:0000000000000382 .LLST1
C:\Users\stapi\AppData\Local\Temp\cc2vWUIA.s:59     .text.MQTTSerialize_connectLength:0000000000000032 .LVL4
C:\Users\stapi\AppData\Local\Temp\cc2vWUIA.s:62     .text.MQTTSerialize_connectLength:000000000000003c .LVL5
C:\Users\stapi\AppData\Local\Temp\cc2vWUIA.s:79     .text.MQTTSerialize_connectLength:0000000000000058 .LVL7
C:\Users\stapi\AppData\Local\Temp\cc2vWUIA.s:82     .text.MQTTSerialize_connectLength:0000000000000062 .LVL8
C:\Users\stapi\AppData\Local\Temp\cc2vWUIA.s:89     .text.MQTTSerialize_connectLength:0000000000000074 .LVL9
C:\Users\stapi\AppData\Local\Temp\cc2vWUIA.s:92     .text.MQTTSerialize_connectLength:000000000000007e .LVL10
C:\Users\stapi\AppData\Local\Temp\cc2vWUIA.s:115    .text.MQTTSerialize_connectLength:000000000000009c .LVL12
C:\Users\stapi\AppData\Local\Temp\cc2vWUIA.s:118    .text.MQTTSerialize_connectLength:00000000000000a6 .LVL13
C:\Users\stapi\AppData\Local\Temp\cc2vWUIA.s:139    .text.MQTTSerialize_connectLength:00000000000000c2 .LVL15
C:\Users\stapi\AppData\Local\Temp\cc2vWUIA.s:142    .text.MQTTSerialize_connectLength:00000000000000cc .LVL16
C:\Users\stapi\AppData\Local\Temp\cc2vWUIA.s:3251   .debug_str:000000000000046c .LASF77
C:\Users\stapi\AppData\Local\Temp\cc2vWUIA.s:3149   .debug_str:000000000000016d .LASF78
C:\Users\stapi\AppData\Local\Temp\cc2vWUIA.s:3125   .debug_str:00000000000000ef .LASF79
C:\Users\stapi\AppData\Local\Temp\cc2vWUIA.s:3205   .debug_str:0000000000000376 .LASF80
C:\Users\stapi\AppData\Local\Temp\cc2vWUIA.s:3095   .debug_str:0000000000000038 .LASF81
C:\Users\stapi\AppData\Local\Temp\cc2vWUIA.s:3255   .debug_str:000000000000047c .LASF82
C:\Users\stapi\AppData\Local\Temp\cc2vWUIA.s:3133   .debug_str:0000000000000116 .LASF83
C:\Users\stapi\AppData\Local\Temp\cc2vWUIA.s:3247   .debug_str:000000000000045d .LASF89
C:\Users\stapi\AppData\Local\Temp\cc2vWUIA.s:3187   .debug_str:00000000000002fb .LASF90
C:\Users\stapi\AppData\Local\Temp\cc2vWUIA.s:3127   .debug_str:00000000000000f8 .LASF84
C:\Users\stapi\AppData\Local\Temp\cc2vWUIA.s:3219   .debug_str:00000000000003c1 .LASF85
C:\Users\stapi\AppData\Local\Temp\cc2vWUIA.s:641    .text.MQTTSerialize_pingreq:0000000000000000 .LVL80
C:\Users\stapi\AppData\Local\Temp\cc2vWUIA.s:624    .text.MQTTSerialize_disconnect:0000000000000000 .LVL78
C:\Users\stapi\AppData\Local\Temp\cc2vWUIA.s:550    .text.MQTTSerialize_zero:0000000000000000 .LVL68
C:\Users\stapi\AppData\Local\Temp\cc2vWUIA.s:578    .text.MQTTSerialize_zero:000000000000001c .LVL72
C:\Users\stapi\AppData\Local\Temp\cc2vWUIA.s:593    .text.MQTTSerialize_zero:0000000000000038 .LVL75
C:\Users\stapi\AppData\Local\Temp\cc2vWUIA.s:603    .text.MQTTSerialize_zero:0000000000000042 .LVL76
C:\Users\stapi\AppData\Local\Temp\cc2vWUIA.s:610    .text.MQTTSerialize_zero:0000000000000044 .LVL77
C:\Users\stapi\AppData\Local\Temp\cc2vWUIA.s:572    .text.MQTTSerialize_zero:0000000000000018 .LVL71
C:\Users\stapi\AppData\Local\Temp\cc2vWUIA.s:570    .text.MQTTSerialize_zero:0000000000000014 .LVL70
C:\Users\stapi\AppData\Local\Temp\cc2vWUIA.s:557    .text.MQTTSerialize_zero:0000000000000008 .LVL69
C:\Users\stapi\AppData\Local\Temp\cc2vWUIA.s:441    .text.MQTTDeserialize_connack:0000000000000000 .LVL53
C:\Users\stapi\AppData\Local\Temp\cc2vWUIA.s:457    .text.MQTTDeserialize_connack:000000000000000e .LVL55
C:\Users\stapi\AppData\Local\Temp\cc2vWUIA.s:448    .text.MQTTDeserialize_connack:0000000000000008 .LVL54
C:\Users\stapi\AppData\Local\Temp\cc2vWUIA.s:474    .text.MQTTDeserialize_connack:000000000000001e .LVL58
C:\Users\stapi\AppData\Local\Temp\cc2vWUIA.s:463    .text.MQTTDeserialize_connack:0000000000000012 .LVL56
C:\Users\stapi\AppData\Local\Temp\cc2vWUIA.s:491    .text.MQTTDeserialize_connack:000000000000003a .LVL60
C:\Users\stapi\AppData\Local\Temp\cc2vWUIA.s:495    .text.MQTTDeserialize_connack:000000000000003c .LVL61
C:\Users\stapi\AppData\Local\Temp\cc2vWUIA.s:500    .text.MQTTDeserialize_connack:0000000000000042 .LVL62
C:\Users\stapi\AppData\Local\Temp\cc2vWUIA.s:530    .text.MQTTDeserialize_connack:000000000000006c .LVL67
C:\Users\stapi\AppData\Local\Temp\cc2vWUIA.s:516    .text.MQTTDeserialize_connack:0000000000000060 .LVL65
C:\Users\stapi\AppData\Local\Temp\cc2vWUIA.s:519    .text.MQTTDeserialize_connack:0000000000000062 .LVL66
C:\Users\stapi\AppData\Local\Temp\cc2vWUIA.s:178    .text.MQTTSerialize_connect:0000000000000000 .LVL18
C:\Users\stapi\AppData\Local\Temp\cc2vWUIA.s:202    .text.MQTTSerialize_connect:0000000000000010 .LVL20
C:\Users\stapi\AppData\Local\Temp\cc2vWUIA.s:317    .text.MQTTSerialize_connect:00000000000000ba .LVL35
C:\Users\stapi\AppData\Local\Temp\cc2vWUIA.s:410    .text.MQTTSerialize_connect:0000000000000184 .LVL50
C:\Users\stapi\AppData\Local\Temp\cc2vWUIA.s:281    .text.MQTTSerialize_connect:000000000000009a .LVL29
C:\Users\stapi\AppData\Local\Temp\cc2vWUIA.s:283    .text.MQTTSerialize_connect:000000000000009c .LVL30
C:\Users\stapi\AppData\Local\Temp\cc2vWUIA.s:294    .text.MQTTSerialize_connect:00000000000000a4 .LVL31
C:\Users\stapi\AppData\Local\Temp\cc2vWUIA.s:297    .text.MQTTSerialize_connect:00000000000000a8 .LVL32
C:\Users\stapi\AppData\Local\Temp\cc2vWUIA.s:308    .text.MQTTSerialize_connect:00000000000000b0 .LVL33
C:\Users\stapi\AppData\Local\Temp\cc2vWUIA.s:311    .text.MQTTSerialize_connect:00000000000000b4 .LVL34
C:\Users\stapi\AppData\Local\Temp\cc2vWUIA.s:195    .text.MQTTSerialize_connect:000000000000000c .LVL19
C:\Users\stapi\AppData\Local\Temp\cc2vWUIA.s:210    .text.MQTTSerialize_connect:000000000000001e .LVL22
C:\Users\stapi\AppData\Local\Temp\cc2vWUIA.s:320    .text.MQTTSerialize_connect:00000000000000be .LVL36
C:\Users\stapi\AppData\Local\Temp\cc2vWUIA.s:397    .text.MQTTSerialize_connect:000000000000017a .LVL49
C:\Users\stapi\AppData\Local\Temp\cc2vWUIA.s:424    .text.MQTTSerialize_connect:000000000000019a .LVL52
C:\Users\stapi\AppData\Local\Temp\cc2vWUIA.s:18     .text.MQTTSerialize_connectLength:0000000000000000 .LVL0
C:\Users\stapi\AppData\Local\Temp\cc2vWUIA.s:57     .text.MQTTSerialize_connectLength:000000000000002a .LVL3
C:\Users\stapi\AppData\Local\Temp\cc2vWUIA.s:26     .text.MQTTSerialize_connectLength:0000000000000008 .LVL1
C:\Users\stapi\AppData\Local\Temp\cc2vWUIA.s:51     .text.MQTTSerialize_connectLength:0000000000000022 .LVL2
C:\Users\stapi\AppData\Local\Temp\cc2vWUIA.s:69     .text.MQTTSerialize_connectLength:0000000000000046 .LVL6
C:\Users\stapi\AppData\Local\Temp\cc2vWUIA.s:656    .debug_info:0000000000000000 .Ldebug_info0

UNDEFINED SYMBOLS
__riscv_save_3
memcpy
MQTTstrlen
__riscv_restore_3
__riscv_save_4
MQTTPacket_len
writeChar
MQTTPacket_encode
writeCString
writeInt
writeMQTTString
__riscv_restore_4
__riscv_save_2
readChar
MQTTPacket_decodeBuf
__riscv_restore_2
__riscv_save_1
__riscv_restore_1
