   1              		.file	"MQTTUnsubscribeClient.c"
   2              		.option nopic
   3              		.attribute arch, "rv32i2p0_m2p0_a2p0_f2p0_c2p0_b_p0p94"
   4              		.attribute unaligned_access, 0
   5              		.attribute stack_align, 16
   6              		.text
   7              	.Ltext0:
   8              		.cfi_sections	.debug_frame
   9              		.section	.text.MQTTSerialize_unsubscribeLength,"ax",@progbits
  10              		.align	1
  11              		.globl	MQTTSerialize_unsubscribeLength
  13              	MQTTSerialize_unsubscribeLength:
  14              	.LFB1:
  15              		.file 1 "C:/Users/stapi/OneDrive/Desktop/GD32VW553/V1_MQTT_OK/GD32VW55X_Wifi_BLE_SDK/GD32VW55x_REL
   1:C:/Users/stapi/OneDrive/Desktop/GD32VW553/V1_MQTT_OK/GD32VW55X_Wifi_BLE_SDK/GD32VW55x_RELEASE_V1.0.2/MSDK/cloud/alicloud/src/protocol/mqtt/MQTTPacket\MQTTUnsubscribeClient.c **** /*
   2:C:/Users/stapi/OneDrive/Desktop/GD32VW553/V1_MQTT_OK/GD32VW55X_Wifi_BLE_SDK/GD32VW55x_RELEASE_V1.0.2/MSDK/cloud/alicloud/src/protocol/mqtt/MQTTPacket\MQTTUnsubscribeClient.c ****  * Copyright (C) 2015-2018 Alibaba Group Holding Limited
   3:C:/Users/stapi/OneDrive/Desktop/GD32VW553/V1_MQTT_OK/GD32VW55X_Wifi_BLE_SDK/GD32VW55x_RELEASE_V1.0.2/MSDK/cloud/alicloud/src/protocol/mqtt/MQTTPacket\MQTTUnsubscribeClient.c ****  */
   4:C:/Users/stapi/OneDrive/Desktop/GD32VW553/V1_MQTT_OK/GD32VW55X_Wifi_BLE_SDK/GD32VW55x_RELEASE_V1.0.2/MSDK/cloud/alicloud/src/protocol/mqtt/MQTTPacket\MQTTUnsubscribeClient.c **** 
   5:C:/Users/stapi/OneDrive/Desktop/GD32VW553/V1_MQTT_OK/GD32VW55X_Wifi_BLE_SDK/GD32VW55x_RELEASE_V1.0.2/MSDK/cloud/alicloud/src/protocol/mqtt/MQTTPacket\MQTTUnsubscribeClient.c **** #include "MQTTPacket.h"
   6:C:/Users/stapi/OneDrive/Desktop/GD32VW553/V1_MQTT_OK/GD32VW55X_Wifi_BLE_SDK/GD32VW55x_RELEASE_V1.0.2/MSDK/cloud/alicloud/src/protocol/mqtt/MQTTPacket\MQTTUnsubscribeClient.c **** 
   7:C:/Users/stapi/OneDrive/Desktop/GD32VW553/V1_MQTT_OK/GD32VW55X_Wifi_BLE_SDK/GD32VW55x_RELEASE_V1.0.2/MSDK/cloud/alicloud/src/protocol/mqtt/MQTTPacket\MQTTUnsubscribeClient.c **** #include <string.h>
   8:C:/Users/stapi/OneDrive/Desktop/GD32VW553/V1_MQTT_OK/GD32VW55X_Wifi_BLE_SDK/GD32VW55x_RELEASE_V1.0.2/MSDK/cloud/alicloud/src/protocol/mqtt/MQTTPacket\MQTTUnsubscribeClient.c **** 
   9:C:/Users/stapi/OneDrive/Desktop/GD32VW553/V1_MQTT_OK/GD32VW55X_Wifi_BLE_SDK/GD32VW55x_RELEASE_V1.0.2/MSDK/cloud/alicloud/src/protocol/mqtt/MQTTPacket\MQTTUnsubscribeClient.c **** /**
  10:C:/Users/stapi/OneDrive/Desktop/GD32VW553/V1_MQTT_OK/GD32VW55X_Wifi_BLE_SDK/GD32VW55x_RELEASE_V1.0.2/MSDK/cloud/alicloud/src/protocol/mqtt/MQTTPacket\MQTTUnsubscribeClient.c ****   * Determines the length of the MQTT unsubscribe packet that would be produced using the supplied 
  11:C:/Users/stapi/OneDrive/Desktop/GD32VW553/V1_MQTT_OK/GD32VW55X_Wifi_BLE_SDK/GD32VW55x_RELEASE_V1.0.2/MSDK/cloud/alicloud/src/protocol/mqtt/MQTTPacket\MQTTUnsubscribeClient.c ****   * @param count the number of topic filter strings in topicFilters
  12:C:/Users/stapi/OneDrive/Desktop/GD32VW553/V1_MQTT_OK/GD32VW55X_Wifi_BLE_SDK/GD32VW55x_RELEASE_V1.0.2/MSDK/cloud/alicloud/src/protocol/mqtt/MQTTPacket\MQTTUnsubscribeClient.c ****   * @param topicFilters the array of topic filter strings to be used in the publish
  13:C:/Users/stapi/OneDrive/Desktop/GD32VW553/V1_MQTT_OK/GD32VW55X_Wifi_BLE_SDK/GD32VW55x_RELEASE_V1.0.2/MSDK/cloud/alicloud/src/protocol/mqtt/MQTTPacket\MQTTUnsubscribeClient.c ****   * @return the length of buffer needed to contain the serialized version of the packet
  14:C:/Users/stapi/OneDrive/Desktop/GD32VW553/V1_MQTT_OK/GD32VW55X_Wifi_BLE_SDK/GD32VW55x_RELEASE_V1.0.2/MSDK/cloud/alicloud/src/protocol/mqtt/MQTTPacket\MQTTUnsubscribeClient.c ****   */
  15:C:/Users/stapi/OneDrive/Desktop/GD32VW553/V1_MQTT_OK/GD32VW55X_Wifi_BLE_SDK/GD32VW55x_RELEASE_V1.0.2/MSDK/cloud/alicloud/src/protocol/mqtt/MQTTPacket\MQTTUnsubscribeClient.c **** int MQTTSerialize_unsubscribeLength(int count, MQTTString topicFilters[])
  16:C:/Users/stapi/OneDrive/Desktop/GD32VW553/V1_MQTT_OK/GD32VW55X_Wifi_BLE_SDK/GD32VW55x_RELEASE_V1.0.2/MSDK/cloud/alicloud/src/protocol/mqtt/MQTTPacket\MQTTUnsubscribeClient.c **** {
  16              		.loc 1 16 1
  17              		.cfi_startproc
  18              	.LVL0:
  19 0000 17030000 		call	t0,__riscv_save_5
  19      E7020300 
  20              		.cfi_offset 20, -24
  21              		.cfi_offset 19, -20
  22              		.cfi_offset 18, -16
  23              		.cfi_offset 9, -12
  24              		.cfi_offset 8, -8
  25              		.cfi_offset 1, -4
  26              		.cfi_def_cfa_offset 32
  17:C:/Users/stapi/OneDrive/Desktop/GD32VW553/V1_MQTT_OK/GD32VW55X_Wifi_BLE_SDK/GD32VW55x_RELEASE_V1.0.2/MSDK/cloud/alicloud/src/protocol/mqtt/MQTTPacket\MQTTUnsubscribeClient.c **** 	int i;
  27              		.loc 1 17 2
  18:C:/Users/stapi/OneDrive/Desktop/GD32VW553/V1_MQTT_OK/GD32VW55X_Wifi_BLE_SDK/GD32VW55x_RELEASE_V1.0.2/MSDK/cloud/alicloud/src/protocol/mqtt/MQTTPacket\MQTTUnsubscribeClient.c **** 	int len = 2; /* packetid */
  28              		.loc 1 18 2
  29              	.LVL1:
  19:C:/Users/stapi/OneDrive/Desktop/GD32VW553/V1_MQTT_OK/GD32VW55X_Wifi_BLE_SDK/GD32VW55x_RELEASE_V1.0.2/MSDK/cloud/alicloud/src/protocol/mqtt/MQTTPacket\MQTTUnsubscribeClient.c **** 
  20:C:/Users/stapi/OneDrive/Desktop/GD32VW553/V1_MQTT_OK/GD32VW55X_Wifi_BLE_SDK/GD32VW55x_RELEASE_V1.0.2/MSDK/cloud/alicloud/src/protocol/mqtt/MQTTPacket\MQTTUnsubscribeClient.c **** 	for (i = 0; i < count; ++i)
  30              		.loc 1 20 2
  16:C:/Users/stapi/OneDrive/Desktop/GD32VW553/V1_MQTT_OK/GD32VW55X_Wifi_BLE_SDK/GD32VW55x_RELEASE_V1.0.2/MSDK/cloud/alicloud/src/protocol/mqtt/MQTTPacket\MQTTUnsubscribeClient.c **** 	int i;
  31              		.loc 1 16 1 is_stmt 0
  32 0008 4111     		addi	sp,sp,-16
  33              		.cfi_def_cfa_offset 48
  16:C:/Users/stapi/OneDrive/Desktop/GD32VW553/V1_MQTT_OK/GD32VW55X_Wifi_BLE_SDK/GD32VW55x_RELEASE_V1.0.2/MSDK/cloud/alicloud/src/protocol/mqtt/MQTTPacket\MQTTUnsubscribeClient.c **** 	int i;
  34              		.loc 1 16 1
  35 000a 2A89     		mv	s2,a0
  36 000c AE89     		mv	s3,a1
  18:C:/Users/stapi/OneDrive/Desktop/GD32VW553/V1_MQTT_OK/GD32VW55X_Wifi_BLE_SDK/GD32VW55x_RELEASE_V1.0.2/MSDK/cloud/alicloud/src/protocol/mqtt/MQTTPacket\MQTTUnsubscribeClient.c **** 	int len = 2; /* packetid */
  37              		.loc 1 18 6
  38 000e 8944     		li	s1,2
  39              		.loc 1 20 9
  40 0010 0144     		li	s0,0
  21:C:/Users/stapi/OneDrive/Desktop/GD32VW553/V1_MQTT_OK/GD32VW55X_Wifi_BLE_SDK/GD32VW55x_RELEASE_V1.0.2/MSDK/cloud/alicloud/src/protocol/mqtt/MQTTPacket\MQTTUnsubscribeClient.c **** 		len += 2 + MQTTstrlen(topicFilters[i]); /* length + topic*/
  41              		.loc 1 21 14
  42 0012 314A     		li	s4,12
  43              	.LVL2:
  44              	.L2:
  20:C:/Users/stapi/OneDrive/Desktop/GD32VW553/V1_MQTT_OK/GD32VW55X_Wifi_BLE_SDK/GD32VW55x_RELEASE_V1.0.2/MSDK/cloud/alicloud/src/protocol/mqtt/MQTTPacket\MQTTUnsubscribeClient.c **** 		len += 2 + MQTTstrlen(topicFilters[i]); /* length + topic*/
  45              		.loc 1 20 14 is_stmt 1 discriminator 1
  20:C:/Users/stapi/OneDrive/Desktop/GD32VW553/V1_MQTT_OK/GD32VW55X_Wifi_BLE_SDK/GD32VW55x_RELEASE_V1.0.2/MSDK/cloud/alicloud/src/protocol/mqtt/MQTTPacket\MQTTUnsubscribeClient.c **** 		len += 2 + MQTTstrlen(topicFilters[i]); /* length + topic*/
  46              		.loc 1 20 2 is_stmt 0 discriminator 1
  47 0014 63482401 		blt	s0,s2,.L3
  22:C:/Users/stapi/OneDrive/Desktop/GD32VW553/V1_MQTT_OK/GD32VW55X_Wifi_BLE_SDK/GD32VW55x_RELEASE_V1.0.2/MSDK/cloud/alicloud/src/protocol/mqtt/MQTTPacket\MQTTUnsubscribeClient.c **** 	return len;
  48              		.loc 1 22 2 is_stmt 1
  23:C:/Users/stapi/OneDrive/Desktop/GD32VW553/V1_MQTT_OK/GD32VW55X_Wifi_BLE_SDK/GD32VW55x_RELEASE_V1.0.2/MSDK/cloud/alicloud/src/protocol/mqtt/MQTTPacket\MQTTUnsubscribeClient.c **** }
  49              		.loc 1 23 1 is_stmt 0
  50 0018 2685     		mv	a0,s1
  51 001a 4101     		addi	sp,sp,16
  52              		.cfi_remember_state
  53              		.cfi_def_cfa_offset 0
  54 001c 17030000 		tail	__riscv_restore_5
  54      67000300 
  55              		.cfi_restore 20
  56              		.cfi_restore 19
  57              		.cfi_restore 18
  58              		.cfi_restore 9
  59              		.cfi_restore 8
  60              		.cfi_restore 1
  61              		.cfi_def_cfa_offset -32
  62              	.L3:
  63              		.cfi_restore_state
  21:C:/Users/stapi/OneDrive/Desktop/GD32VW553/V1_MQTT_OK/GD32VW55X_Wifi_BLE_SDK/GD32VW55x_RELEASE_V1.0.2/MSDK/cloud/alicloud/src/protocol/mqtt/MQTTPacket\MQTTUnsubscribeClient.c **** 	return len;
  64              		.loc 1 21 3 is_stmt 1 discriminator 3
  21:C:/Users/stapi/OneDrive/Desktop/GD32VW553/V1_MQTT_OK/GD32VW55X_Wifi_BLE_SDK/GD32VW55x_RELEASE_V1.0.2/MSDK/cloud/alicloud/src/protocol/mqtt/MQTTPacket\MQTTUnsubscribeClient.c **** 	return len;
  65              		.loc 1 21 14 is_stmt 0 discriminator 3
  66 0024 3146     		li	a2,12
  67 0026 CE85     		mv	a1,s3
  68 0028 0A85     		mv	a0,sp
  69 002a FF1544C5 		maddr32	a1, s0, s4
  70 002e 97000000 		call	memcpy
  70      E7800000 
  71              	.LVL3:
  72 0036 0A85     		mv	a0,sp
  73 0038 97000000 		call	MQTTstrlen
  73      E7800000 
  74              	.LVL4:
  21:C:/Users/stapi/OneDrive/Desktop/GD32VW553/V1_MQTT_OK/GD32VW55X_Wifi_BLE_SDK/GD32VW55x_RELEASE_V1.0.2/MSDK/cloud/alicloud/src/protocol/mqtt/MQTTPacket\MQTTUnsubscribeClient.c **** 	return len;
  75              		.loc 1 21 12 discriminator 3
  76 0040 0905     		addi	a0,a0,2
  21:C:/Users/stapi/OneDrive/Desktop/GD32VW553/V1_MQTT_OK/GD32VW55X_Wifi_BLE_SDK/GD32VW55x_RELEASE_V1.0.2/MSDK/cloud/alicloud/src/protocol/mqtt/MQTTPacket\MQTTUnsubscribeClient.c **** 	return len;
  77              		.loc 1 21 7 discriminator 3
  78 0042 AA94     		add	s1,s1,a0
  79              	.LVL5:
  20:C:/Users/stapi/OneDrive/Desktop/GD32VW553/V1_MQTT_OK/GD32VW55X_Wifi_BLE_SDK/GD32VW55x_RELEASE_V1.0.2/MSDK/cloud/alicloud/src/protocol/mqtt/MQTTPacket\MQTTUnsubscribeClient.c **** 		len += 2 + MQTTstrlen(topicFilters[i]); /* length + topic*/
  80              		.loc 1 20 25 is_stmt 1 discriminator 3
  81 0044 0504     		addi	s0,s0,1
  82              	.LVL6:
  83 0046 F9B7     		j	.L2
  84              		.cfi_endproc
  85              	.LFE1:
  87              		.section	.text.MQTTSerialize_unsubscribe,"ax",@progbits
  88              		.align	1
  89              		.globl	MQTTSerialize_unsubscribe
  91              	MQTTSerialize_unsubscribe:
  92              	.LFB2:
  24:C:/Users/stapi/OneDrive/Desktop/GD32VW553/V1_MQTT_OK/GD32VW55X_Wifi_BLE_SDK/GD32VW55x_RELEASE_V1.0.2/MSDK/cloud/alicloud/src/protocol/mqtt/MQTTPacket\MQTTUnsubscribeClient.c **** 
  25:C:/Users/stapi/OneDrive/Desktop/GD32VW553/V1_MQTT_OK/GD32VW55X_Wifi_BLE_SDK/GD32VW55x_RELEASE_V1.0.2/MSDK/cloud/alicloud/src/protocol/mqtt/MQTTPacket\MQTTUnsubscribeClient.c **** 
  26:C:/Users/stapi/OneDrive/Desktop/GD32VW553/V1_MQTT_OK/GD32VW55X_Wifi_BLE_SDK/GD32VW55x_RELEASE_V1.0.2/MSDK/cloud/alicloud/src/protocol/mqtt/MQTTPacket\MQTTUnsubscribeClient.c **** /**
  27:C:/Users/stapi/OneDrive/Desktop/GD32VW553/V1_MQTT_OK/GD32VW55X_Wifi_BLE_SDK/GD32VW55x_RELEASE_V1.0.2/MSDK/cloud/alicloud/src/protocol/mqtt/MQTTPacket\MQTTUnsubscribeClient.c ****   * Serializes the supplied unsubscribe data into the supplied buffer, ready for sending
  28:C:/Users/stapi/OneDrive/Desktop/GD32VW553/V1_MQTT_OK/GD32VW55X_Wifi_BLE_SDK/GD32VW55x_RELEASE_V1.0.2/MSDK/cloud/alicloud/src/protocol/mqtt/MQTTPacket\MQTTUnsubscribeClient.c ****   * @param buf the raw buffer data, of the correct length determined by the remaining length field
  29:C:/Users/stapi/OneDrive/Desktop/GD32VW553/V1_MQTT_OK/GD32VW55X_Wifi_BLE_SDK/GD32VW55x_RELEASE_V1.0.2/MSDK/cloud/alicloud/src/protocol/mqtt/MQTTPacket\MQTTUnsubscribeClient.c ****   * @param buflen the length in bytes of the data in the supplied buffer
  30:C:/Users/stapi/OneDrive/Desktop/GD32VW553/V1_MQTT_OK/GD32VW55X_Wifi_BLE_SDK/GD32VW55x_RELEASE_V1.0.2/MSDK/cloud/alicloud/src/protocol/mqtt/MQTTPacket\MQTTUnsubscribeClient.c ****   * @param dup integer - the MQTT dup flag
  31:C:/Users/stapi/OneDrive/Desktop/GD32VW553/V1_MQTT_OK/GD32VW55X_Wifi_BLE_SDK/GD32VW55x_RELEASE_V1.0.2/MSDK/cloud/alicloud/src/protocol/mqtt/MQTTPacket\MQTTUnsubscribeClient.c ****   * @param packetid integer - the MQTT packet identifier
  32:C:/Users/stapi/OneDrive/Desktop/GD32VW553/V1_MQTT_OK/GD32VW55X_Wifi_BLE_SDK/GD32VW55x_RELEASE_V1.0.2/MSDK/cloud/alicloud/src/protocol/mqtt/MQTTPacket\MQTTUnsubscribeClient.c ****   * @param count - number of members in the topicFilters array
  33:C:/Users/stapi/OneDrive/Desktop/GD32VW553/V1_MQTT_OK/GD32VW55X_Wifi_BLE_SDK/GD32VW55x_RELEASE_V1.0.2/MSDK/cloud/alicloud/src/protocol/mqtt/MQTTPacket\MQTTUnsubscribeClient.c ****   * @param topicFilters - array of topic filter names
  34:C:/Users/stapi/OneDrive/Desktop/GD32VW553/V1_MQTT_OK/GD32VW55X_Wifi_BLE_SDK/GD32VW55x_RELEASE_V1.0.2/MSDK/cloud/alicloud/src/protocol/mqtt/MQTTPacket\MQTTUnsubscribeClient.c ****   * @return the length of the serialized data.  <= 0 indicates error
  35:C:/Users/stapi/OneDrive/Desktop/GD32VW553/V1_MQTT_OK/GD32VW55X_Wifi_BLE_SDK/GD32VW55x_RELEASE_V1.0.2/MSDK/cloud/alicloud/src/protocol/mqtt/MQTTPacket\MQTTUnsubscribeClient.c ****   */
  36:C:/Users/stapi/OneDrive/Desktop/GD32VW553/V1_MQTT_OK/GD32VW55X_Wifi_BLE_SDK/GD32VW55x_RELEASE_V1.0.2/MSDK/cloud/alicloud/src/protocol/mqtt/MQTTPacket\MQTTUnsubscribeClient.c **** int MQTTSerialize_unsubscribe(unsigned char* buf, int buflen, unsigned char dup, unsigned short pac
  37:C:/Users/stapi/OneDrive/Desktop/GD32VW553/V1_MQTT_OK/GD32VW55X_Wifi_BLE_SDK/GD32VW55x_RELEASE_V1.0.2/MSDK/cloud/alicloud/src/protocol/mqtt/MQTTPacket\MQTTUnsubscribeClient.c **** 		int count, MQTTString topicFilters[])
  38:C:/Users/stapi/OneDrive/Desktop/GD32VW553/V1_MQTT_OK/GD32VW55X_Wifi_BLE_SDK/GD32VW55x_RELEASE_V1.0.2/MSDK/cloud/alicloud/src/protocol/mqtt/MQTTPacket\MQTTUnsubscribeClient.c **** {
  93              		.loc 1 38 1
  94              		.cfi_startproc
  95              	.LVL7:
  96 0000 17030000 		call	t0,__riscv_save_7
  96      E7020300 
  97              		.cfi_offset 22, -32
  98              		.cfi_offset 21, -28
  99              		.cfi_offset 20, -24
 100              		.cfi_offset 19, -20
 101              		.cfi_offset 18, -16
 102              		.cfi_offset 9, -12
 103              		.cfi_offset 8, -8
 104              		.cfi_offset 1, -4
 105              		.cfi_def_cfa_offset 32
  39:C:/Users/stapi/OneDrive/Desktop/GD32VW553/V1_MQTT_OK/GD32VW55X_Wifi_BLE_SDK/GD32VW55x_RELEASE_V1.0.2/MSDK/cloud/alicloud/src/protocol/mqtt/MQTTPacket\MQTTUnsubscribeClient.c **** 	unsigned char *ptr = buf;
 106              		.loc 1 39 2
  38:C:/Users/stapi/OneDrive/Desktop/GD32VW553/V1_MQTT_OK/GD32VW55X_Wifi_BLE_SDK/GD32VW55x_RELEASE_V1.0.2/MSDK/cloud/alicloud/src/protocol/mqtt/MQTTPacket\MQTTUnsubscribeClient.c **** 	unsigned char *ptr = buf;
 107              		.loc 1 38 1 is_stmt 0
 108 0008 0111     		addi	sp,sp,-32
 109              		.cfi_def_cfa_offset 64
  38:C:/Users/stapi/OneDrive/Desktop/GD32VW553/V1_MQTT_OK/GD32VW55X_Wifi_BLE_SDK/GD32VW55x_RELEASE_V1.0.2/MSDK/cloud/alicloud/src/protocol/mqtt/MQTTPacket\MQTTUnsubscribeClient.c **** 	unsigned char *ptr = buf;
 110              		.loc 1 38 1
 111 000a 2E8B     		mv	s6,a1
 112              		.loc 1 39 17
 113 000c 2ACE     		sw	a0,28(sp)
  40:C:/Users/stapi/OneDrive/Desktop/GD32VW553/V1_MQTT_OK/GD32VW55X_Wifi_BLE_SDK/GD32VW55x_RELEASE_V1.0.2/MSDK/cloud/alicloud/src/protocol/mqtt/MQTTPacket\MQTTUnsubscribeClient.c **** 	MQTTHeader header = {0};
 114              		.loc 1 40 2 is_stmt 1
  41:C:/Users/stapi/OneDrive/Desktop/GD32VW553/V1_MQTT_OK/GD32VW55X_Wifi_BLE_SDK/GD32VW55x_RELEASE_V1.0.2/MSDK/cloud/alicloud/src/protocol/mqtt/MQTTPacket\MQTTUnsubscribeClient.c **** 	int rem_len = 0;
 115              		.loc 1 41 2
 116              	.LVL8:
  42:C:/Users/stapi/OneDrive/Desktop/GD32VW553/V1_MQTT_OK/GD32VW55X_Wifi_BLE_SDK/GD32VW55x_RELEASE_V1.0.2/MSDK/cloud/alicloud/src/protocol/mqtt/MQTTPacket\MQTTUnsubscribeClient.c **** 	int rc = -1;
 117              		.loc 1 42 2
  43:C:/Users/stapi/OneDrive/Desktop/GD32VW553/V1_MQTT_OK/GD32VW55X_Wifi_BLE_SDK/GD32VW55x_RELEASE_V1.0.2/MSDK/cloud/alicloud/src/protocol/mqtt/MQTTPacket\MQTTUnsubscribeClient.c **** 	int i = 0;
 118              		.loc 1 43 2
  44:C:/Users/stapi/OneDrive/Desktop/GD32VW553/V1_MQTT_OK/GD32VW55X_Wifi_BLE_SDK/GD32VW55x_RELEASE_V1.0.2/MSDK/cloud/alicloud/src/protocol/mqtt/MQTTPacket\MQTTUnsubscribeClient.c **** 
  45:C:/Users/stapi/OneDrive/Desktop/GD32VW553/V1_MQTT_OK/GD32VW55X_Wifi_BLE_SDK/GD32VW55x_RELEASE_V1.0.2/MSDK/cloud/alicloud/src/protocol/mqtt/MQTTPacket\MQTTUnsubscribeClient.c **** 	if (MQTTPacket_len(rem_len = MQTTSerialize_unsubscribeLength(count, topicFilters)) > buflen)
 119              		.loc 1 45 2
  38:C:/Users/stapi/OneDrive/Desktop/GD32VW553/V1_MQTT_OK/GD32VW55X_Wifi_BLE_SDK/GD32VW55x_RELEASE_V1.0.2/MSDK/cloud/alicloud/src/protocol/mqtt/MQTTPacket\MQTTUnsubscribeClient.c **** 	unsigned char *ptr = buf;
 120              		.loc 1 38 1 is_stmt 0
 121 000e AA84     		mv	s1,a0
 122              		.loc 1 45 31
 123 0010 BE85     		mv	a1,a5
 124              	.LVL9:
 125 0012 3A85     		mv	a0,a4
 126              	.LVL10:
  38:C:/Users/stapi/OneDrive/Desktop/GD32VW553/V1_MQTT_OK/GD32VW55X_Wifi_BLE_SDK/GD32VW55x_RELEASE_V1.0.2/MSDK/cloud/alicloud/src/protocol/mqtt/MQTTPacket\MQTTUnsubscribeClient.c **** 	unsigned char *ptr = buf;
 127              		.loc 1 38 1
 128 0014 3284     		mv	s0,a2
 129 0016 368A     		mv	s4,a3
 130 0018 3A89     		mv	s2,a4
 131 001a BE89     		mv	s3,a5
 132              		.loc 1 45 31
 133 001c 97000000 		call	MQTTSerialize_unsubscribeLength
 133      E7800000 
 134              	.LVL11:
 135 0024 AA8A     		mv	s5,a0
 136              	.LVL12:
 137              		.loc 1 45 6
 138 0026 97000000 		call	MQTTPacket_len
 138      E7800000 
 139              	.LVL13:
 140              		.loc 1 45 5
 141 002e 6347AB06 		bgt	a0,s6,.L9
  46:C:/Users/stapi/OneDrive/Desktop/GD32VW553/V1_MQTT_OK/GD32VW55X_Wifi_BLE_SDK/GD32VW55x_RELEASE_V1.0.2/MSDK/cloud/alicloud/src/protocol/mqtt/MQTTPacket\MQTTUnsubscribeClient.c **** 	{
  47:C:/Users/stapi/OneDrive/Desktop/GD32VW553/V1_MQTT_OK/GD32VW55X_Wifi_BLE_SDK/GD32VW55x_RELEASE_V1.0.2/MSDK/cloud/alicloud/src/protocol/mqtt/MQTTPacket\MQTTUnsubscribeClient.c **** 		rc = MQTTPACKET_BUFFER_TOO_SHORT;
  48:C:/Users/stapi/OneDrive/Desktop/GD32VW553/V1_MQTT_OK/GD32VW55X_Wifi_BLE_SDK/GD32VW55x_RELEASE_V1.0.2/MSDK/cloud/alicloud/src/protocol/mqtt/MQTTPacket\MQTTUnsubscribeClient.c **** 		goto exit;
  49:C:/Users/stapi/OneDrive/Desktop/GD32VW553/V1_MQTT_OK/GD32VW55X_Wifi_BLE_SDK/GD32VW55x_RELEASE_V1.0.2/MSDK/cloud/alicloud/src/protocol/mqtt/MQTTPacket\MQTTUnsubscribeClient.c **** 	}
  50:C:/Users/stapi/OneDrive/Desktop/GD32VW553/V1_MQTT_OK/GD32VW55X_Wifi_BLE_SDK/GD32VW55x_RELEASE_V1.0.2/MSDK/cloud/alicloud/src/protocol/mqtt/MQTTPacket\MQTTUnsubscribeClient.c **** 
  51:C:/Users/stapi/OneDrive/Desktop/GD32VW553/V1_MQTT_OK/GD32VW55X_Wifi_BLE_SDK/GD32VW55x_RELEASE_V1.0.2/MSDK/cloud/alicloud/src/protocol/mqtt/MQTTPacket\MQTTUnsubscribeClient.c **** 	header.byte = 0;
 142              		.loc 1 51 2 is_stmt 1
  52:C:/Users/stapi/OneDrive/Desktop/GD32VW553/V1_MQTT_OK/GD32VW55X_Wifi_BLE_SDK/GD32VW55x_RELEASE_V1.0.2/MSDK/cloud/alicloud/src/protocol/mqtt/MQTTPacket\MQTTUnsubscribeClient.c **** 	header.bits.type = UNSUBSCRIBE;
 143              		.loc 1 52 2
  53:C:/Users/stapi/OneDrive/Desktop/GD32VW553/V1_MQTT_OK/GD32VW55X_Wifi_BLE_SDK/GD32VW55x_RELEASE_V1.0.2/MSDK/cloud/alicloud/src/protocol/mqtt/MQTTPacket\MQTTUnsubscribeClient.c **** 	header.bits.dup = dup;
 144              		.loc 1 53 2
  54:C:/Users/stapi/OneDrive/Desktop/GD32VW553/V1_MQTT_OK/GD32VW55X_Wifi_BLE_SDK/GD32VW55x_RELEASE_V1.0.2/MSDK/cloud/alicloud/src/protocol/mqtt/MQTTPacket\MQTTUnsubscribeClient.c **** 	header.bits.qos = 1;
 145              		.loc 1 54 2
  55:C:/Users/stapi/OneDrive/Desktop/GD32VW553/V1_MQTT_OK/GD32VW55X_Wifi_BLE_SDK/GD32VW55x_RELEASE_V1.0.2/MSDK/cloud/alicloud/src/protocol/mqtt/MQTTPacket\MQTTUnsubscribeClient.c **** 	writeChar(&ptr, header.byte); /* write header */
 146              		.loc 1 55 2
  54:C:/Users/stapi/OneDrive/Desktop/GD32VW553/V1_MQTT_OK/GD32VW55X_Wifi_BLE_SDK/GD32VW55x_RELEASE_V1.0.2/MSDK/cloud/alicloud/src/protocol/mqtt/MQTTPacket\MQTTUnsubscribeClient.c **** 	header.bits.qos = 1;
 147              		.loc 1 54 18 is_stmt 0
 148 0032 0E04     		slli	s0,s0,3
 149 0034 2188     		andi	s0,s0,8
 150              		.loc 1 55 2
 151 0036 936524FA 		ori	a1,s0,-94
 152 003a 6808     		addi	a0,sp,28
 153 003c 97000000 		call	writeChar
 153      E7800000 
 154              	.LVL14:
  56:C:/Users/stapi/OneDrive/Desktop/GD32VW553/V1_MQTT_OK/GD32VW55X_Wifi_BLE_SDK/GD32VW55x_RELEASE_V1.0.2/MSDK/cloud/alicloud/src/protocol/mqtt/MQTTPacket\MQTTUnsubscribeClient.c **** 
  57:C:/Users/stapi/OneDrive/Desktop/GD32VW553/V1_MQTT_OK/GD32VW55X_Wifi_BLE_SDK/GD32VW55x_RELEASE_V1.0.2/MSDK/cloud/alicloud/src/protocol/mqtt/MQTTPacket\MQTTUnsubscribeClient.c **** 	ptr += MQTTPacket_encode(ptr, rem_len); /* write remaining length */;
 155              		.loc 1 57 2 is_stmt 1
 156              		.loc 1 57 9 is_stmt 0
 157 0044 7245     		lw	a0,28(sp)
 158 0046 D685     		mv	a1,s5
  58:C:/Users/stapi/OneDrive/Desktop/GD32VW553/V1_MQTT_OK/GD32VW55X_Wifi_BLE_SDK/GD32VW55x_RELEASE_V1.0.2/MSDK/cloud/alicloud/src/protocol/mqtt/MQTTPacket\MQTTUnsubscribeClient.c **** 
  59:C:/Users/stapi/OneDrive/Desktop/GD32VW553/V1_MQTT_OK/GD32VW55X_Wifi_BLE_SDK/GD32VW55x_RELEASE_V1.0.2/MSDK/cloud/alicloud/src/protocol/mqtt/MQTTPacket\MQTTUnsubscribeClient.c **** 	writeInt(&ptr, packetid);
  60:C:/Users/stapi/OneDrive/Desktop/GD32VW553/V1_MQTT_OK/GD32VW55X_Wifi_BLE_SDK/GD32VW55x_RELEASE_V1.0.2/MSDK/cloud/alicloud/src/protocol/mqtt/MQTTPacket\MQTTUnsubscribeClient.c **** 
  61:C:/Users/stapi/OneDrive/Desktop/GD32VW553/V1_MQTT_OK/GD32VW55X_Wifi_BLE_SDK/GD32VW55x_RELEASE_V1.0.2/MSDK/cloud/alicloud/src/protocol/mqtt/MQTTPacket\MQTTUnsubscribeClient.c **** 	for (i = 0; i < count; ++i)
 159              		.loc 1 61 9
 160 0048 0144     		li	s0,0
  57:C:/Users/stapi/OneDrive/Desktop/GD32VW553/V1_MQTT_OK/GD32VW55X_Wifi_BLE_SDK/GD32VW55x_RELEASE_V1.0.2/MSDK/cloud/alicloud/src/protocol/mqtt/MQTTPacket\MQTTUnsubscribeClient.c **** 
 161              		.loc 1 57 9
 162 004a 97000000 		call	MQTTPacket_encode
 162      E7800000 
 163              	.LVL15:
  57:C:/Users/stapi/OneDrive/Desktop/GD32VW553/V1_MQTT_OK/GD32VW55X_Wifi_BLE_SDK/GD32VW55x_RELEASE_V1.0.2/MSDK/cloud/alicloud/src/protocol/mqtt/MQTTPacket\MQTTUnsubscribeClient.c **** 
 164              		.loc 1 57 6
 165 0052 F247     		lw	a5,28(sp)
  59:C:/Users/stapi/OneDrive/Desktop/GD32VW553/V1_MQTT_OK/GD32VW55X_Wifi_BLE_SDK/GD32VW55x_RELEASE_V1.0.2/MSDK/cloud/alicloud/src/protocol/mqtt/MQTTPacket\MQTTUnsubscribeClient.c **** 
 166              		.loc 1 59 2
 167 0054 D285     		mv	a1,s4
  62:C:/Users/stapi/OneDrive/Desktop/GD32VW553/V1_MQTT_OK/GD32VW55X_Wifi_BLE_SDK/GD32VW55x_RELEASE_V1.0.2/MSDK/cloud/alicloud/src/protocol/mqtt/MQTTPacket\MQTTUnsubscribeClient.c **** 		writeMQTTString(&ptr, topicFilters[i]);
 168              		.loc 1 62 3
 169 0056 314A     		li	s4,12
  57:C:/Users/stapi/OneDrive/Desktop/GD32VW553/V1_MQTT_OK/GD32VW55X_Wifi_BLE_SDK/GD32VW55x_RELEASE_V1.0.2/MSDK/cloud/alicloud/src/protocol/mqtt/MQTTPacket\MQTTUnsubscribeClient.c **** 
 170              		.loc 1 57 6
 171 0058 AA97     		add	a5,a5,a0
  59:C:/Users/stapi/OneDrive/Desktop/GD32VW553/V1_MQTT_OK/GD32VW55X_Wifi_BLE_SDK/GD32VW55x_RELEASE_V1.0.2/MSDK/cloud/alicloud/src/protocol/mqtt/MQTTPacket\MQTTUnsubscribeClient.c **** 
 172              		.loc 1 59 2
 173 005a 6808     		addi	a0,sp,28
  57:C:/Users/stapi/OneDrive/Desktop/GD32VW553/V1_MQTT_OK/GD32VW55X_Wifi_BLE_SDK/GD32VW55x_RELEASE_V1.0.2/MSDK/cloud/alicloud/src/protocol/mqtt/MQTTPacket\MQTTUnsubscribeClient.c **** 
 174              		.loc 1 57 6
 175 005c 3ECE     		sw	a5,28(sp)
  57:C:/Users/stapi/OneDrive/Desktop/GD32VW553/V1_MQTT_OK/GD32VW55X_Wifi_BLE_SDK/GD32VW55x_RELEASE_V1.0.2/MSDK/cloud/alicloud/src/protocol/mqtt/MQTTPacket\MQTTUnsubscribeClient.c **** 
 176              		.loc 1 57 70 is_stmt 1
  59:C:/Users/stapi/OneDrive/Desktop/GD32VW553/V1_MQTT_OK/GD32VW55X_Wifi_BLE_SDK/GD32VW55x_RELEASE_V1.0.2/MSDK/cloud/alicloud/src/protocol/mqtt/MQTTPacket\MQTTUnsubscribeClient.c **** 
 177              		.loc 1 59 2
 178 005e 97000000 		call	writeInt
 178      E7800000 
 179              	.LVL16:
  61:C:/Users/stapi/OneDrive/Desktop/GD32VW553/V1_MQTT_OK/GD32VW55X_Wifi_BLE_SDK/GD32VW55x_RELEASE_V1.0.2/MSDK/cloud/alicloud/src/protocol/mqtt/MQTTPacket\MQTTUnsubscribeClient.c **** 		writeMQTTString(&ptr, topicFilters[i]);
 180              		.loc 1 61 2
 181              	.L7:
  61:C:/Users/stapi/OneDrive/Desktop/GD32VW553/V1_MQTT_OK/GD32VW55X_Wifi_BLE_SDK/GD32VW55x_RELEASE_V1.0.2/MSDK/cloud/alicloud/src/protocol/mqtt/MQTTPacket\MQTTUnsubscribeClient.c **** 		writeMQTTString(&ptr, topicFilters[i]);
 182              		.loc 1 61 14 discriminator 1
  61:C:/Users/stapi/OneDrive/Desktop/GD32VW553/V1_MQTT_OK/GD32VW55X_Wifi_BLE_SDK/GD32VW55x_RELEASE_V1.0.2/MSDK/cloud/alicloud/src/protocol/mqtt/MQTTPacket\MQTTUnsubscribeClient.c **** 		writeMQTTString(&ptr, topicFilters[i]);
 183              		.loc 1 61 2 is_stmt 0 discriminator 1
 184 0066 634A2401 		blt	s0,s2,.L8
  63:C:/Users/stapi/OneDrive/Desktop/GD32VW553/V1_MQTT_OK/GD32VW55X_Wifi_BLE_SDK/GD32VW55x_RELEASE_V1.0.2/MSDK/cloud/alicloud/src/protocol/mqtt/MQTTPacket\MQTTUnsubscribeClient.c **** 
  64:C:/Users/stapi/OneDrive/Desktop/GD32VW553/V1_MQTT_OK/GD32VW55X_Wifi_BLE_SDK/GD32VW55x_RELEASE_V1.0.2/MSDK/cloud/alicloud/src/protocol/mqtt/MQTTPacket\MQTTUnsubscribeClient.c **** 	rc = ptr - buf;
 185              		.loc 1 64 2 is_stmt 1
 186              		.loc 1 64 5 is_stmt 0
 187 006a F247     		lw	a5,28(sp)
 188 006c 33859740 		sub	a0,a5,s1
 189              	.LVL17:
 190              	.L5:
  65:C:/Users/stapi/OneDrive/Desktop/GD32VW553/V1_MQTT_OK/GD32VW55X_Wifi_BLE_SDK/GD32VW55x_RELEASE_V1.0.2/MSDK/cloud/alicloud/src/protocol/mqtt/MQTTPacket\MQTTUnsubscribeClient.c **** exit:
  66:C:/Users/stapi/OneDrive/Desktop/GD32VW553/V1_MQTT_OK/GD32VW55X_Wifi_BLE_SDK/GD32VW55x_RELEASE_V1.0.2/MSDK/cloud/alicloud/src/protocol/mqtt/MQTTPacket\MQTTUnsubscribeClient.c **** 	return rc;
  67:C:/Users/stapi/OneDrive/Desktop/GD32VW553/V1_MQTT_OK/GD32VW55X_Wifi_BLE_SDK/GD32VW55x_RELEASE_V1.0.2/MSDK/cloud/alicloud/src/protocol/mqtt/MQTTPacket\MQTTUnsubscribeClient.c **** }
 191              		.loc 1 67 1
 192 0070 0561     		addi	sp,sp,32
 193              		.cfi_remember_state
 194              		.cfi_def_cfa_offset 0
 195 0072 17030000 		tail	__riscv_restore_7
 195      67000300 
 196              		.cfi_restore 22
 197              		.cfi_restore 21
 198              		.cfi_restore 20
 199              		.cfi_restore 19
 200              		.cfi_restore 18
 201              		.cfi_restore 9
 202              		.cfi_restore 8
 203              		.cfi_restore 1
 204              		.cfi_def_cfa_offset -32
 205              	.LVL18:
 206              	.L8:
 207              		.cfi_restore_state
  62:C:/Users/stapi/OneDrive/Desktop/GD32VW553/V1_MQTT_OK/GD32VW55X_Wifi_BLE_SDK/GD32VW55x_RELEASE_V1.0.2/MSDK/cloud/alicloud/src/protocol/mqtt/MQTTPacket\MQTTUnsubscribeClient.c **** 
 208              		.loc 1 62 3 is_stmt 1 discriminator 3
 209 007a 3146     		li	a2,12
 210 007c CE85     		mv	a1,s3
 211 007e 0A85     		mv	a0,sp
 212 0080 FF1544C5 		maddr32	a1, s0, s4
 213 0084 97000000 		call	memcpy
 213      E7800000 
 214              	.LVL19:
 215 008c 8A85     		mv	a1,sp
 216 008e 6808     		addi	a0,sp,28
 217 0090 97000000 		call	writeMQTTString
 217      E7800000 
 218              	.LVL20:
  61:C:/Users/stapi/OneDrive/Desktop/GD32VW553/V1_MQTT_OK/GD32VW55X_Wifi_BLE_SDK/GD32VW55x_RELEASE_V1.0.2/MSDK/cloud/alicloud/src/protocol/mqtt/MQTTPacket\MQTTUnsubscribeClient.c **** 		writeMQTTString(&ptr, topicFilters[i]);
 219              		.loc 1 61 25 discriminator 3
 220 0098 0504     		addi	s0,s0,1
 221              	.LVL21:
 222 009a F1B7     		j	.L7
 223              	.LVL22:
 224              	.L9:
 225              	.L6:
  66:C:/Users/stapi/OneDrive/Desktop/GD32VW553/V1_MQTT_OK/GD32VW55X_Wifi_BLE_SDK/GD32VW55x_RELEASE_V1.0.2/MSDK/cloud/alicloud/src/protocol/mqtt/MQTTPacket\MQTTUnsubscribeClient.c **** }
 226              		.loc 1 66 2
  47:C:/Users/stapi/OneDrive/Desktop/GD32VW553/V1_MQTT_OK/GD32VW55X_Wifi_BLE_SDK/GD32VW55x_RELEASE_V1.0.2/MSDK/cloud/alicloud/src/protocol/mqtt/MQTTPacket\MQTTUnsubscribeClient.c **** 		goto exit;
 227              		.loc 1 47 6 is_stmt 0
 228 009c 7955     		li	a0,-2
  66:C:/Users/stapi/OneDrive/Desktop/GD32VW553/V1_MQTT_OK/GD32VW55X_Wifi_BLE_SDK/GD32VW55x_RELEASE_V1.0.2/MSDK/cloud/alicloud/src/protocol/mqtt/MQTTPacket\MQTTUnsubscribeClient.c **** }
 229              		.loc 1 66 9
 230 009e C9BF     		j	.L5
 231              		.cfi_endproc
 232              	.LFE2:
 234              		.section	.text.MQTTDeserialize_unsuback,"ax",@progbits
 235              		.align	1
 236              		.globl	MQTTDeserialize_unsuback
 238              	MQTTDeserialize_unsuback:
 239              	.LFB3:
  68:C:/Users/stapi/OneDrive/Desktop/GD32VW553/V1_MQTT_OK/GD32VW55X_Wifi_BLE_SDK/GD32VW55x_RELEASE_V1.0.2/MSDK/cloud/alicloud/src/protocol/mqtt/MQTTPacket\MQTTUnsubscribeClient.c **** 
  69:C:/Users/stapi/OneDrive/Desktop/GD32VW553/V1_MQTT_OK/GD32VW55X_Wifi_BLE_SDK/GD32VW55x_RELEASE_V1.0.2/MSDK/cloud/alicloud/src/protocol/mqtt/MQTTPacket\MQTTUnsubscribeClient.c **** 
  70:C:/Users/stapi/OneDrive/Desktop/GD32VW553/V1_MQTT_OK/GD32VW55X_Wifi_BLE_SDK/GD32VW55x_RELEASE_V1.0.2/MSDK/cloud/alicloud/src/protocol/mqtt/MQTTPacket\MQTTUnsubscribeClient.c **** /**
  71:C:/Users/stapi/OneDrive/Desktop/GD32VW553/V1_MQTT_OK/GD32VW55X_Wifi_BLE_SDK/GD32VW55x_RELEASE_V1.0.2/MSDK/cloud/alicloud/src/protocol/mqtt/MQTTPacket\MQTTUnsubscribeClient.c ****   * Deserializes the supplied (wire) buffer into unsuback data
  72:C:/Users/stapi/OneDrive/Desktop/GD32VW553/V1_MQTT_OK/GD32VW55X_Wifi_BLE_SDK/GD32VW55x_RELEASE_V1.0.2/MSDK/cloud/alicloud/src/protocol/mqtt/MQTTPacket\MQTTUnsubscribeClient.c ****   * @param packetid returned integer - the MQTT packet identifier
  73:C:/Users/stapi/OneDrive/Desktop/GD32VW553/V1_MQTT_OK/GD32VW55X_Wifi_BLE_SDK/GD32VW55x_RELEASE_V1.0.2/MSDK/cloud/alicloud/src/protocol/mqtt/MQTTPacket\MQTTUnsubscribeClient.c ****   * @param buf the raw buffer data, of the correct length determined by the remaining length field
  74:C:/Users/stapi/OneDrive/Desktop/GD32VW553/V1_MQTT_OK/GD32VW55X_Wifi_BLE_SDK/GD32VW55x_RELEASE_V1.0.2/MSDK/cloud/alicloud/src/protocol/mqtt/MQTTPacket\MQTTUnsubscribeClient.c ****   * @param buflen the length in bytes of the data in the supplied buffer
  75:C:/Users/stapi/OneDrive/Desktop/GD32VW553/V1_MQTT_OK/GD32VW55X_Wifi_BLE_SDK/GD32VW55x_RELEASE_V1.0.2/MSDK/cloud/alicloud/src/protocol/mqtt/MQTTPacket\MQTTUnsubscribeClient.c ****   * @return error code.  1 is success, 0 is failure
  76:C:/Users/stapi/OneDrive/Desktop/GD32VW553/V1_MQTT_OK/GD32VW55X_Wifi_BLE_SDK/GD32VW55x_RELEASE_V1.0.2/MSDK/cloud/alicloud/src/protocol/mqtt/MQTTPacket\MQTTUnsubscribeClient.c ****   */
  77:C:/Users/stapi/OneDrive/Desktop/GD32VW553/V1_MQTT_OK/GD32VW55X_Wifi_BLE_SDK/GD32VW55x_RELEASE_V1.0.2/MSDK/cloud/alicloud/src/protocol/mqtt/MQTTPacket\MQTTUnsubscribeClient.c **** int MQTTDeserialize_unsuback(unsigned short* packetid, unsigned char* buf, int buflen)
  78:C:/Users/stapi/OneDrive/Desktop/GD32VW553/V1_MQTT_OK/GD32VW55X_Wifi_BLE_SDK/GD32VW55x_RELEASE_V1.0.2/MSDK/cloud/alicloud/src/protocol/mqtt/MQTTPacket\MQTTUnsubscribeClient.c **** {
 240              		.loc 1 78 1 is_stmt 1
 241              		.cfi_startproc
 242              	.LVL23:
 243 0000 17030000 		call	t0,__riscv_save_0
 243      E7020300 
 244              		.cfi_offset 1, -4
 245              		.cfi_def_cfa_offset 16
  79:C:/Users/stapi/OneDrive/Desktop/GD32VW553/V1_MQTT_OK/GD32VW55X_Wifi_BLE_SDK/GD32VW55x_RELEASE_V1.0.2/MSDK/cloud/alicloud/src/protocol/mqtt/MQTTPacket\MQTTUnsubscribeClient.c **** 	unsigned char type = 0;
 246              		.loc 1 79 2
  78:C:/Users/stapi/OneDrive/Desktop/GD32VW553/V1_MQTT_OK/GD32VW55X_Wifi_BLE_SDK/GD32VW55x_RELEASE_V1.0.2/MSDK/cloud/alicloud/src/protocol/mqtt/MQTTPacket\MQTTUnsubscribeClient.c **** 	unsigned char type = 0;
 247              		.loc 1 78 1 is_stmt 0
 248 0008 4111     		addi	sp,sp,-16
 249              		.cfi_def_cfa_offset 32
  78:C:/Users/stapi/OneDrive/Desktop/GD32VW553/V1_MQTT_OK/GD32VW55X_Wifi_BLE_SDK/GD32VW55x_RELEASE_V1.0.2/MSDK/cloud/alicloud/src/protocol/mqtt/MQTTPacket\MQTTUnsubscribeClient.c **** 	unsigned char type = 0;
 250              		.loc 1 78 1
 251 000a 3287     		mv	a4,a2
 252 000c AE86     		mv	a3,a1
  80:C:/Users/stapi/OneDrive/Desktop/GD32VW553/V1_MQTT_OK/GD32VW55X_Wifi_BLE_SDK/GD32VW55x_RELEASE_V1.0.2/MSDK/cloud/alicloud/src/protocol/mqtt/MQTTPacket\MQTTUnsubscribeClient.c **** 	unsigned char dup = 0;
  81:C:/Users/stapi/OneDrive/Desktop/GD32VW553/V1_MQTT_OK/GD32VW55X_Wifi_BLE_SDK/GD32VW55x_RELEASE_V1.0.2/MSDK/cloud/alicloud/src/protocol/mqtt/MQTTPacket\MQTTUnsubscribeClient.c **** 	int rc = 0;
  82:C:/Users/stapi/OneDrive/Desktop/GD32VW553/V1_MQTT_OK/GD32VW55X_Wifi_BLE_SDK/GD32VW55x_RELEASE_V1.0.2/MSDK/cloud/alicloud/src/protocol/mqtt/MQTTPacket\MQTTUnsubscribeClient.c **** 
  83:C:/Users/stapi/OneDrive/Desktop/GD32VW553/V1_MQTT_OK/GD32VW55X_Wifi_BLE_SDK/GD32VW55x_RELEASE_V1.0.2/MSDK/cloud/alicloud/src/protocol/mqtt/MQTTPacket\MQTTUnsubscribeClient.c **** 	rc = MQTTDeserialize_ack(&type, &dup, packetid, buf, buflen);
 253              		.loc 1 83 7
 254 000e 2A86     		mv	a2,a0
 255              	.LVL24:
 256 0010 9305F100 		addi	a1,sp,15
 257              	.LVL25:
 258 0014 1305E100 		addi	a0,sp,14
 259              	.LVL26:
  79:C:/Users/stapi/OneDrive/Desktop/GD32VW553/V1_MQTT_OK/GD32VW55X_Wifi_BLE_SDK/GD32VW55x_RELEASE_V1.0.2/MSDK/cloud/alicloud/src/protocol/mqtt/MQTTPacket\MQTTUnsubscribeClient.c **** 	unsigned char dup = 0;
 260              		.loc 1 79 16
 261 0018 23070100 		sb	zero,14(sp)
  80:C:/Users/stapi/OneDrive/Desktop/GD32VW553/V1_MQTT_OK/GD32VW55X_Wifi_BLE_SDK/GD32VW55x_RELEASE_V1.0.2/MSDK/cloud/alicloud/src/protocol/mqtt/MQTTPacket\MQTTUnsubscribeClient.c **** 	unsigned char dup = 0;
 262              		.loc 1 80 2 is_stmt 1
  80:C:/Users/stapi/OneDrive/Desktop/GD32VW553/V1_MQTT_OK/GD32VW55X_Wifi_BLE_SDK/GD32VW55x_RELEASE_V1.0.2/MSDK/cloud/alicloud/src/protocol/mqtt/MQTTPacket\MQTTUnsubscribeClient.c **** 	unsigned char dup = 0;
 263              		.loc 1 80 16 is_stmt 0
 264 001c A3070100 		sb	zero,15(sp)
  81:C:/Users/stapi/OneDrive/Desktop/GD32VW553/V1_MQTT_OK/GD32VW55X_Wifi_BLE_SDK/GD32VW55x_RELEASE_V1.0.2/MSDK/cloud/alicloud/src/protocol/mqtt/MQTTPacket\MQTTUnsubscribeClient.c **** 
 265              		.loc 1 81 2 is_stmt 1
 266              	.LVL27:
 267              		.loc 1 83 2
 268              		.loc 1 83 7 is_stmt 0
 269 0020 97000000 		call	MQTTDeserialize_ack
 269      E7800000 
 270              	.LVL28:
  84:C:/Users/stapi/OneDrive/Desktop/GD32VW553/V1_MQTT_OK/GD32VW55X_Wifi_BLE_SDK/GD32VW55x_RELEASE_V1.0.2/MSDK/cloud/alicloud/src/protocol/mqtt/MQTTPacket\MQTTUnsubscribeClient.c **** 	if (type == UNSUBACK)
 271              		.loc 1 84 2 is_stmt 1
 272              		.loc 1 84 5 is_stmt 0
 273 0028 0347E100 		lbu	a4,14(sp)
 274 002c AD47     		li	a5,11
 275 002e 6313F700 		bne	a4,a5,.L11
  85:C:/Users/stapi/OneDrive/Desktop/GD32VW553/V1_MQTT_OK/GD32VW55X_Wifi_BLE_SDK/GD32VW55x_RELEASE_V1.0.2/MSDK/cloud/alicloud/src/protocol/mqtt/MQTTPacket\MQTTUnsubscribeClient.c **** 		rc = 1;
 276              		.loc 1 85 6
 277 0032 0545     		li	a0,1
 278              	.LVL29:
  86:C:/Users/stapi/OneDrive/Desktop/GD32VW553/V1_MQTT_OK/GD32VW55X_Wifi_BLE_SDK/GD32VW55x_RELEASE_V1.0.2/MSDK/cloud/alicloud/src/protocol/mqtt/MQTTPacket\MQTTUnsubscribeClient.c **** 	return rc;
 279              		.loc 1 86 2 is_stmt 1
 280              	.L11:
  87:C:/Users/stapi/OneDrive/Desktop/GD32VW553/V1_MQTT_OK/GD32VW55X_Wifi_BLE_SDK/GD32VW55x_RELEASE_V1.0.2/MSDK/cloud/alicloud/src/protocol/mqtt/MQTTPacket\MQTTUnsubscribeClient.c **** }
 281              		.loc 1 87 1 is_stmt 0
 282 0034 4101     		addi	sp,sp,16
 283              		.cfi_def_cfa_offset 0
 284 0036 17030000 		tail	__riscv_restore_0
 284      67000300 
 285              		.cfi_restore 1
 286              		.cfi_def_cfa_offset -16
 287              		.cfi_endproc
 288              	.LFE3:
 290              		.text
 291              	.Letext0:
 292              		.file 2 "C:/Users/stapi/OneDrive/Desktop/GD32VW553/V1_MQTT_OK/GD32VW55X_Wifi_BLE_SDK/GD32VW55x_REL
 293              		.file 3 "<built-in>"