   1              		.file	"MQTTDeserializePublish.c"
   2              		.option nopic
   3              		.attribute arch, "rv32i2p0_m2p0_a2p0_f2p0_c2p0_b_p0p94"
   4              		.attribute unaligned_access, 0
   5              		.attribute stack_align, 16
   6              		.text
   7              	.Ltext0:
   8              		.cfi_sections	.debug_frame
   9              		.section	.text.MQTTDeserialize_publish,"ax",@progbits
  10              		.align	1
  11              		.globl	MQTTDeserialize_publish
  13              	MQTTDeserialize_publish:
  14              	.LFB1:
  15              		.file 1 "C:/Users/stapi/OneDrive/Desktop/GD32VW553/V1_MQTT_OK/GD32VW55X_Wifi_BLE_SDK/GD32VW55x_REL
   1:C:/Users/stapi/OneDrive/Desktop/GD32VW553/V1_MQTT_OK/GD32VW55X_Wifi_BLE_SDK/GD32VW55x_RELEASE_V1.0.2/MSDK/cloud/alicloud/src/protocol/mqtt/MQTTPacket\MQTTDeserializePublish.c **** /*
   2:C:/Users/stapi/OneDrive/Desktop/GD32VW553/V1_MQTT_OK/GD32VW55X_Wifi_BLE_SDK/GD32VW55x_RELEASE_V1.0.2/MSDK/cloud/alicloud/src/protocol/mqtt/MQTTPacket\MQTTDeserializePublish.c ****  * Copyright (C) 2015-2018 Alibaba Group Holding Limited
   3:C:/Users/stapi/OneDrive/Desktop/GD32VW553/V1_MQTT_OK/GD32VW55X_Wifi_BLE_SDK/GD32VW55x_RELEASE_V1.0.2/MSDK/cloud/alicloud/src/protocol/mqtt/MQTTPacket\MQTTDeserializePublish.c ****  */
   4:C:/Users/stapi/OneDrive/Desktop/GD32VW553/V1_MQTT_OK/GD32VW55X_Wifi_BLE_SDK/GD32VW55x_RELEASE_V1.0.2/MSDK/cloud/alicloud/src/protocol/mqtt/MQTTPacket\MQTTDeserializePublish.c **** 
   5:C:/Users/stapi/OneDrive/Desktop/GD32VW553/V1_MQTT_OK/GD32VW55X_Wifi_BLE_SDK/GD32VW55x_RELEASE_V1.0.2/MSDK/cloud/alicloud/src/protocol/mqtt/MQTTPacket\MQTTDeserializePublish.c **** #include "MQTTPacket.h"
   6:C:/Users/stapi/OneDrive/Desktop/GD32VW553/V1_MQTT_OK/GD32VW55X_Wifi_BLE_SDK/GD32VW55x_RELEASE_V1.0.2/MSDK/cloud/alicloud/src/protocol/mqtt/MQTTPacket\MQTTDeserializePublish.c **** #include <string.h>
   7:C:/Users/stapi/OneDrive/Desktop/GD32VW553/V1_MQTT_OK/GD32VW55X_Wifi_BLE_SDK/GD32VW55x_RELEASE_V1.0.2/MSDK/cloud/alicloud/src/protocol/mqtt/MQTTPacket\MQTTDeserializePublish.c **** 
   8:C:/Users/stapi/OneDrive/Desktop/GD32VW553/V1_MQTT_OK/GD32VW55X_Wifi_BLE_SDK/GD32VW55x_RELEASE_V1.0.2/MSDK/cloud/alicloud/src/protocol/mqtt/MQTTPacket\MQTTDeserializePublish.c **** #define min(a, b) ((a < b) ? 1 : 0)
   9:C:/Users/stapi/OneDrive/Desktop/GD32VW553/V1_MQTT_OK/GD32VW55X_Wifi_BLE_SDK/GD32VW55x_RELEASE_V1.0.2/MSDK/cloud/alicloud/src/protocol/mqtt/MQTTPacket\MQTTDeserializePublish.c **** 
  10:C:/Users/stapi/OneDrive/Desktop/GD32VW553/V1_MQTT_OK/GD32VW55X_Wifi_BLE_SDK/GD32VW55x_RELEASE_V1.0.2/MSDK/cloud/alicloud/src/protocol/mqtt/MQTTPacket\MQTTDeserializePublish.c **** /**
  11:C:/Users/stapi/OneDrive/Desktop/GD32VW553/V1_MQTT_OK/GD32VW55X_Wifi_BLE_SDK/GD32VW55x_RELEASE_V1.0.2/MSDK/cloud/alicloud/src/protocol/mqtt/MQTTPacket\MQTTDeserializePublish.c ****   * Deserializes the supplied (wire) buffer into publish data
  12:C:/Users/stapi/OneDrive/Desktop/GD32VW553/V1_MQTT_OK/GD32VW55X_Wifi_BLE_SDK/GD32VW55x_RELEASE_V1.0.2/MSDK/cloud/alicloud/src/protocol/mqtt/MQTTPacket\MQTTDeserializePublish.c ****   * @param dup returned integer - the MQTT dup flag
  13:C:/Users/stapi/OneDrive/Desktop/GD32VW553/V1_MQTT_OK/GD32VW55X_Wifi_BLE_SDK/GD32VW55x_RELEASE_V1.0.2/MSDK/cloud/alicloud/src/protocol/mqtt/MQTTPacket\MQTTDeserializePublish.c ****   * @param qos returned integer - the MQTT QoS value
  14:C:/Users/stapi/OneDrive/Desktop/GD32VW553/V1_MQTT_OK/GD32VW55X_Wifi_BLE_SDK/GD32VW55x_RELEASE_V1.0.2/MSDK/cloud/alicloud/src/protocol/mqtt/MQTTPacket\MQTTDeserializePublish.c ****   * @param retained returned integer - the MQTT retained flag
  15:C:/Users/stapi/OneDrive/Desktop/GD32VW553/V1_MQTT_OK/GD32VW55X_Wifi_BLE_SDK/GD32VW55x_RELEASE_V1.0.2/MSDK/cloud/alicloud/src/protocol/mqtt/MQTTPacket\MQTTDeserializePublish.c ****   * @param packetid returned integer - the MQTT packet identifier
  16:C:/Users/stapi/OneDrive/Desktop/GD32VW553/V1_MQTT_OK/GD32VW55X_Wifi_BLE_SDK/GD32VW55x_RELEASE_V1.0.2/MSDK/cloud/alicloud/src/protocol/mqtt/MQTTPacket\MQTTDeserializePublish.c ****   * @param topicName returned MQTTString - the MQTT topic in the publish
  17:C:/Users/stapi/OneDrive/Desktop/GD32VW553/V1_MQTT_OK/GD32VW55X_Wifi_BLE_SDK/GD32VW55x_RELEASE_V1.0.2/MSDK/cloud/alicloud/src/protocol/mqtt/MQTTPacket\MQTTDeserializePublish.c ****   * @param payload returned byte buffer - the MQTT publish payload
  18:C:/Users/stapi/OneDrive/Desktop/GD32VW553/V1_MQTT_OK/GD32VW55X_Wifi_BLE_SDK/GD32VW55x_RELEASE_V1.0.2/MSDK/cloud/alicloud/src/protocol/mqtt/MQTTPacket\MQTTDeserializePublish.c ****   * @param payloadlen returned integer - the length of the MQTT payload
  19:C:/Users/stapi/OneDrive/Desktop/GD32VW553/V1_MQTT_OK/GD32VW55X_Wifi_BLE_SDK/GD32VW55x_RELEASE_V1.0.2/MSDK/cloud/alicloud/src/protocol/mqtt/MQTTPacket\MQTTDeserializePublish.c ****   * @param buf the raw buffer data, of the correct length determined by the remaining length field
  20:C:/Users/stapi/OneDrive/Desktop/GD32VW553/V1_MQTT_OK/GD32VW55X_Wifi_BLE_SDK/GD32VW55x_RELEASE_V1.0.2/MSDK/cloud/alicloud/src/protocol/mqtt/MQTTPacket\MQTTDeserializePublish.c ****   * @param buflen the length in bytes of the data in the supplied buffer
  21:C:/Users/stapi/OneDrive/Desktop/GD32VW553/V1_MQTT_OK/GD32VW55X_Wifi_BLE_SDK/GD32VW55x_RELEASE_V1.0.2/MSDK/cloud/alicloud/src/protocol/mqtt/MQTTPacket\MQTTDeserializePublish.c ****   * @return error code.  1 is success
  22:C:/Users/stapi/OneDrive/Desktop/GD32VW553/V1_MQTT_OK/GD32VW55X_Wifi_BLE_SDK/GD32VW55x_RELEASE_V1.0.2/MSDK/cloud/alicloud/src/protocol/mqtt/MQTTPacket\MQTTDeserializePublish.c ****   */
  23:C:/Users/stapi/OneDrive/Desktop/GD32VW553/V1_MQTT_OK/GD32VW55X_Wifi_BLE_SDK/GD32VW55x_RELEASE_V1.0.2/MSDK/cloud/alicloud/src/protocol/mqtt/MQTTPacket\MQTTDeserializePublish.c **** int MQTTDeserialize_publish(unsigned char* dup, int* qos, unsigned char* retained, unsigned short* 
  24:C:/Users/stapi/OneDrive/Desktop/GD32VW553/V1_MQTT_OK/GD32VW55X_Wifi_BLE_SDK/GD32VW55x_RELEASE_V1.0.2/MSDK/cloud/alicloud/src/protocol/mqtt/MQTTPacket\MQTTDeserializePublish.c **** 		unsigned char** payload, int* payloadlen, unsigned char* buf, int buflen)
  25:C:/Users/stapi/OneDrive/Desktop/GD32VW553/V1_MQTT_OK/GD32VW55X_Wifi_BLE_SDK/GD32VW55x_RELEASE_V1.0.2/MSDK/cloud/alicloud/src/protocol/mqtt/MQTTPacket\MQTTDeserializePublish.c **** {
  16              		.loc 1 25 1
  17              		.cfi_startproc
  18              	.LVL0:
  19 0000 17030000 		call	t0,__riscv_save_7
  19      E7020300 
  20              		.cfi_offset 22, -32
  21              		.cfi_offset 21, -28
  22              		.cfi_offset 20, -24
  23              		.cfi_offset 19, -20
  24              		.cfi_offset 18, -16
  25              		.cfi_offset 9, -12
  26              		.cfi_offset 8, -8
  27              		.cfi_offset 1, -4
  28              		.cfi_def_cfa_offset 32
  26:C:/Users/stapi/OneDrive/Desktop/GD32VW553/V1_MQTT_OK/GD32VW55X_Wifi_BLE_SDK/GD32VW55x_RELEASE_V1.0.2/MSDK/cloud/alicloud/src/protocol/mqtt/MQTTPacket\MQTTDeserializePublish.c **** 	MQTTHeader header = {0};
  29              		.loc 1 26 2
  27:C:/Users/stapi/OneDrive/Desktop/GD32VW553/V1_MQTT_OK/GD32VW55X_Wifi_BLE_SDK/GD32VW55x_RELEASE_V1.0.2/MSDK/cloud/alicloud/src/protocol/mqtt/MQTTPacket\MQTTDeserializePublish.c **** 	unsigned char* curdata = buf;
  30              		.loc 1 27 2
  25:C:/Users/stapi/OneDrive/Desktop/GD32VW553/V1_MQTT_OK/GD32VW55X_Wifi_BLE_SDK/GD32VW55x_RELEASE_V1.0.2/MSDK/cloud/alicloud/src/protocol/mqtt/MQTTPacket\MQTTDeserializePublish.c **** 	MQTTHeader header = {0};
  31              		.loc 1 25 1 is_stmt 0
  32 0008 4111     		addi	sp,sp,-16
  33              		.cfi_def_cfa_offset 48
  25:C:/Users/stapi/OneDrive/Desktop/GD32VW553/V1_MQTT_OK/GD32VW55X_Wifi_BLE_SDK/GD32VW55x_RELEASE_V1.0.2/MSDK/cloud/alicloud/src/protocol/mqtt/MQTTPacket\MQTTDeserializePublish.c **** 	MQTTHeader header = {0};
  34              		.loc 1 25 1
  35 000a AA84     		mv	s1,a0
  28:C:/Users/stapi/OneDrive/Desktop/GD32VW553/V1_MQTT_OK/GD32VW55X_Wifi_BLE_SDK/GD32VW55x_RELEASE_V1.0.2/MSDK/cloud/alicloud/src/protocol/mqtt/MQTTPacket\MQTTDeserializePublish.c **** 	unsigned char* enddata = NULL;
  29:C:/Users/stapi/OneDrive/Desktop/GD32VW553/V1_MQTT_OK/GD32VW55X_Wifi_BLE_SDK/GD32VW55x_RELEASE_V1.0.2/MSDK/cloud/alicloud/src/protocol/mqtt/MQTTPacket\MQTTDeserializePublish.c **** 	int rc = 0;
  30:C:/Users/stapi/OneDrive/Desktop/GD32VW553/V1_MQTT_OK/GD32VW55X_Wifi_BLE_SDK/GD32VW55x_RELEASE_V1.0.2/MSDK/cloud/alicloud/src/protocol/mqtt/MQTTPacket\MQTTDeserializePublish.c **** 	int mylen = 0;
  31:C:/Users/stapi/OneDrive/Desktop/GD32VW553/V1_MQTT_OK/GD32VW55X_Wifi_BLE_SDK/GD32VW55x_RELEASE_V1.0.2/MSDK/cloud/alicloud/src/protocol/mqtt/MQTTPacket\MQTTDeserializePublish.c **** 
  32:C:/Users/stapi/OneDrive/Desktop/GD32VW553/V1_MQTT_OK/GD32VW55X_Wifi_BLE_SDK/GD32VW55x_RELEASE_V1.0.2/MSDK/cloud/alicloud/src/protocol/mqtt/MQTTPacket\MQTTDeserializePublish.c **** 	header.byte = readChar(&curdata);
  36              		.loc 1 32 16
  37 000c 2800     		addi	a0,sp,8
  38              	.LVL1:
  25:C:/Users/stapi/OneDrive/Desktop/GD32VW553/V1_MQTT_OK/GD32VW55X_Wifi_BLE_SDK/GD32VW55x_RELEASE_V1.0.2/MSDK/cloud/alicloud/src/protocol/mqtt/MQTTPacket\MQTTDeserializePublish.c **** 	MQTTHeader header = {0};
  39              		.loc 1 25 1
  40 000e 3A8B     		mv	s6,a4
  41 0010 BE89     		mv	s3,a5
  42 0012 2E89     		mv	s2,a1
  43 0014 3284     		mv	s0,a2
  44 0016 B68A     		mv	s5,a3
  45 0018 428A     		mv	s4,a6
  27:C:/Users/stapi/OneDrive/Desktop/GD32VW553/V1_MQTT_OK/GD32VW55X_Wifi_BLE_SDK/GD32VW55x_RELEASE_V1.0.2/MSDK/cloud/alicloud/src/protocol/mqtt/MQTTPacket\MQTTDeserializePublish.c **** 	unsigned char* enddata = NULL;
  46              		.loc 1 27 17
  47 001a 46C4     		sw	a7,8(sp)
  28:C:/Users/stapi/OneDrive/Desktop/GD32VW553/V1_MQTT_OK/GD32VW55X_Wifi_BLE_SDK/GD32VW55x_RELEASE_V1.0.2/MSDK/cloud/alicloud/src/protocol/mqtt/MQTTPacket\MQTTDeserializePublish.c **** 	unsigned char* enddata = NULL;
  48              		.loc 1 28 2 is_stmt 1
  49              	.LVL2:
  29:C:/Users/stapi/OneDrive/Desktop/GD32VW553/V1_MQTT_OK/GD32VW55X_Wifi_BLE_SDK/GD32VW55x_RELEASE_V1.0.2/MSDK/cloud/alicloud/src/protocol/mqtt/MQTTPacket\MQTTDeserializePublish.c **** 	int mylen = 0;
  50              		.loc 1 29 2
  30:C:/Users/stapi/OneDrive/Desktop/GD32VW553/V1_MQTT_OK/GD32VW55X_Wifi_BLE_SDK/GD32VW55x_RELEASE_V1.0.2/MSDK/cloud/alicloud/src/protocol/mqtt/MQTTPacket\MQTTDeserializePublish.c **** 
  51              		.loc 1 30 2
  30:C:/Users/stapi/OneDrive/Desktop/GD32VW553/V1_MQTT_OK/GD32VW55X_Wifi_BLE_SDK/GD32VW55x_RELEASE_V1.0.2/MSDK/cloud/alicloud/src/protocol/mqtt/MQTTPacket\MQTTDeserializePublish.c **** 
  52              		.loc 1 30 6 is_stmt 0
  53 001c 02C6     		sw	zero,12(sp)
  54              		.loc 1 32 2 is_stmt 1
  55              		.loc 1 32 16 is_stmt 0
  56 001e 97000000 		call	readChar
  56      E7800000 
  57              	.LVL3:
  33:C:/Users/stapi/OneDrive/Desktop/GD32VW553/V1_MQTT_OK/GD32VW55X_Wifi_BLE_SDK/GD32VW55x_RELEASE_V1.0.2/MSDK/cloud/alicloud/src/protocol/mqtt/MQTTPacket\MQTTDeserializePublish.c **** 	if (header.bits.type != PUBLISH)
  58              		.loc 1 33 2 is_stmt 1
  59              		.loc 1 33 5 is_stmt 0
  60 0026 9377050F 		andi	a5,a0,240
  61 002a 13070003 		li	a4,48
  62 002e 6392E708 		bne	a5,a4,.L4
  63 0032 9378F50F 		andi	a7,a0,0xff
  34:C:/Users/stapi/OneDrive/Desktop/GD32VW553/V1_MQTT_OK/GD32VW55X_Wifi_BLE_SDK/GD32VW55x_RELEASE_V1.0.2/MSDK/cloud/alicloud/src/protocol/mqtt/MQTTPacket\MQTTDeserializePublish.c **** 		goto exit;
  35:C:/Users/stapi/OneDrive/Desktop/GD32VW553/V1_MQTT_OK/GD32VW55X_Wifi_BLE_SDK/GD32VW55x_RELEASE_V1.0.2/MSDK/cloud/alicloud/src/protocol/mqtt/MQTTPacket\MQTTDeserializePublish.c **** 	*dup = header.bits.dup;
  64              		.loc 1 35 2 is_stmt 1
  65              		.loc 1 35 20 is_stmt 0
  66 0036 93D73848 		bexti	a5,a7,3
  67              		.loc 1 35 7
  68 003a 2380F400 		sb	a5,0(s1)
  36:C:/Users/stapi/OneDrive/Desktop/GD32VW553/V1_MQTT_OK/GD32VW55X_Wifi_BLE_SDK/GD32VW55x_RELEASE_V1.0.2/MSDK/cloud/alicloud/src/protocol/mqtt/MQTTPacket\MQTTDeserializePublish.c **** 	*qos = header.bits.qos;
  69              		.loc 1 36 2 is_stmt 1
  70              		.loc 1 36 20 is_stmt 0
  71 003e 93D71800 		srli	a5,a7,1
  72 0042 8D8B     		andi	a5,a5,3
  37:C:/Users/stapi/OneDrive/Desktop/GD32VW553/V1_MQTT_OK/GD32VW55X_Wifi_BLE_SDK/GD32VW55x_RELEASE_V1.0.2/MSDK/cloud/alicloud/src/protocol/mqtt/MQTTPacket\MQTTDeserializePublish.c **** 	*retained = header.bits.retain;
  38:C:/Users/stapi/OneDrive/Desktop/GD32VW553/V1_MQTT_OK/GD32VW55X_Wifi_BLE_SDK/GD32VW55x_RELEASE_V1.0.2/MSDK/cloud/alicloud/src/protocol/mqtt/MQTTPacket\MQTTDeserializePublish.c **** 
  39:C:/Users/stapi/OneDrive/Desktop/GD32VW553/V1_MQTT_OK/GD32VW55X_Wifi_BLE_SDK/GD32VW55x_RELEASE_V1.0.2/MSDK/cloud/alicloud/src/protocol/mqtt/MQTTPacket\MQTTDeserializePublish.c **** 	curdata += (rc = MQTTPacket_decodeBuf(curdata, &mylen)); /* read remaining length */
  73              		.loc 1 39 19
  74 0044 2245     		lw	a0,8(sp)
  36:C:/Users/stapi/OneDrive/Desktop/GD32VW553/V1_MQTT_OK/GD32VW55X_Wifi_BLE_SDK/GD32VW55x_RELEASE_V1.0.2/MSDK/cloud/alicloud/src/protocol/mqtt/MQTTPacket\MQTTDeserializePublish.c **** 	*qos = header.bits.qos;
  75              		.loc 1 36 20
  76 0046 2320F900 		sw	a5,0(s2)
  37:C:/Users/stapi/OneDrive/Desktop/GD32VW553/V1_MQTT_OK/GD32VW55X_Wifi_BLE_SDK/GD32VW55x_RELEASE_V1.0.2/MSDK/cloud/alicloud/src/protocol/mqtt/MQTTPacket\MQTTDeserializePublish.c **** 	*retained = header.bits.retain;
  77              		.loc 1 37 2 is_stmt 1
  37:C:/Users/stapi/OneDrive/Desktop/GD32VW553/V1_MQTT_OK/GD32VW55X_Wifi_BLE_SDK/GD32VW55x_RELEASE_V1.0.2/MSDK/cloud/alicloud/src/protocol/mqtt/MQTTPacket\MQTTDeserializePublish.c **** 	*retained = header.bits.retain;
  78              		.loc 1 37 25 is_stmt 0
  79 004a 93F81800 		andi	a7,a7,1
  37:C:/Users/stapi/OneDrive/Desktop/GD32VW553/V1_MQTT_OK/GD32VW55X_Wifi_BLE_SDK/GD32VW55x_RELEASE_V1.0.2/MSDK/cloud/alicloud/src/protocol/mqtt/MQTTPacket\MQTTDeserializePublish.c **** 	*retained = header.bits.retain;
  80              		.loc 1 37 12
  81 004e 23001401 		sb	a7,0(s0)
  82              		.loc 1 39 2 is_stmt 1
  83              		.loc 1 39 19 is_stmt 0
  84 0052 6C00     		addi	a1,sp,12
  85 0054 97000000 		call	MQTTPacket_decodeBuf
  85      E7800000 
  86              	.LVL4:
  87              		.loc 1 39 10
  88 005c 2244     		lw	s0,8(sp)
  89              	.LVL5:
  40:C:/Users/stapi/OneDrive/Desktop/GD32VW553/V1_MQTT_OK/GD32VW55X_Wifi_BLE_SDK/GD32VW55x_RELEASE_V1.0.2/MSDK/cloud/alicloud/src/protocol/mqtt/MQTTPacket\MQTTDeserializePublish.c **** 	enddata = curdata + mylen;
  90              		.loc 1 40 10
  91 005e 3246     		lw	a2,12(sp)
  39:C:/Users/stapi/OneDrive/Desktop/GD32VW553/V1_MQTT_OK/GD32VW55X_Wifi_BLE_SDK/GD32VW55x_RELEASE_V1.0.2/MSDK/cloud/alicloud/src/protocol/mqtt/MQTTPacket\MQTTDeserializePublish.c **** 	enddata = curdata + mylen;
  92              		.loc 1 39 19
  93 0060 AA84     		mv	s1,a0
  94              	.LVL6:
  39:C:/Users/stapi/OneDrive/Desktop/GD32VW553/V1_MQTT_OK/GD32VW55X_Wifi_BLE_SDK/GD32VW55x_RELEASE_V1.0.2/MSDK/cloud/alicloud/src/protocol/mqtt/MQTTPacket\MQTTDeserializePublish.c **** 	enddata = curdata + mylen;
  95              		.loc 1 39 10
  96 0062 2A94     		add	s0,s0,a0
  97 0064 22C4     		sw	s0,8(sp)
  98              		.loc 1 40 2 is_stmt 1
  99              		.loc 1 40 10 is_stmt 0
 100 0066 3294     		add	s0,s0,a2
 101              	.LVL7:
  41:C:/Users/stapi/OneDrive/Desktop/GD32VW553/V1_MQTT_OK/GD32VW55X_Wifi_BLE_SDK/GD32VW55x_RELEASE_V1.0.2/MSDK/cloud/alicloud/src/protocol/mqtt/MQTTPacket\MQTTDeserializePublish.c **** 
  42:C:/Users/stapi/OneDrive/Desktop/GD32VW553/V1_MQTT_OK/GD32VW55X_Wifi_BLE_SDK/GD32VW55x_RELEASE_V1.0.2/MSDK/cloud/alicloud/src/protocol/mqtt/MQTTPacket\MQTTDeserializePublish.c **** 	if (!readMQTTLenString(topicName, &curdata, enddata) ||
 102              		.loc 1 42 2 is_stmt 1
 103              		.loc 1 42 7 is_stmt 0
 104 0068 2286     		mv	a2,s0
 105 006a 2C00     		addi	a1,sp,8
 106 006c 5A85     		mv	a0,s6
 107 006e 97000000 		call	readMQTTLenString
 107      E7800000 
 108              	.LVL8:
 109              		.loc 1 42 5
 110 0076 05C9     		beq	a0,zero,.L1
  43:C:/Users/stapi/OneDrive/Desktop/GD32VW553/V1_MQTT_OK/GD32VW55X_Wifi_BLE_SDK/GD32VW55x_RELEASE_V1.0.2/MSDK/cloud/alicloud/src/protocol/mqtt/MQTTPacket\MQTTDeserializePublish.c **** 		enddata - curdata < 0) /* do we have enough data to read the protocol version byte? */
 111              		.loc 1 43 11 discriminator 1
 112 0078 A247     		lw	a5,8(sp)
 113 007a B307F440 		sub	a5,s0,a5
  42:C:/Users/stapi/OneDrive/Desktop/GD32VW553/V1_MQTT_OK/GD32VW55X_Wifi_BLE_SDK/GD32VW55x_RELEASE_V1.0.2/MSDK/cloud/alicloud/src/protocol/mqtt/MQTTPacket\MQTTDeserializePublish.c **** 		enddata - curdata < 0) /* do we have enough data to read the protocol version byte? */
 114              		.loc 1 42 55 discriminator 1
 115 007e 63C40702 		blt	a5,zero,.L1
  44:C:/Users/stapi/OneDrive/Desktop/GD32VW553/V1_MQTT_OK/GD32VW55X_Wifi_BLE_SDK/GD32VW55x_RELEASE_V1.0.2/MSDK/cloud/alicloud/src/protocol/mqtt/MQTTPacket\MQTTDeserializePublish.c **** 		goto exit;
  45:C:/Users/stapi/OneDrive/Desktop/GD32VW553/V1_MQTT_OK/GD32VW55X_Wifi_BLE_SDK/GD32VW55x_RELEASE_V1.0.2/MSDK/cloud/alicloud/src/protocol/mqtt/MQTTPacket\MQTTDeserializePublish.c **** 
  46:C:/Users/stapi/OneDrive/Desktop/GD32VW553/V1_MQTT_OK/GD32VW55X_Wifi_BLE_SDK/GD32VW55x_RELEASE_V1.0.2/MSDK/cloud/alicloud/src/protocol/mqtt/MQTTPacket\MQTTDeserializePublish.c **** 	if (*qos > 0)
 116              		.loc 1 46 2 is_stmt 1
 117              		.loc 1 46 5 is_stmt 0
 118 0082 83270900 		lw	a5,0(s2)
 119 0086 6359F000 		ble	a5,zero,.L3
  47:C:/Users/stapi/OneDrive/Desktop/GD32VW553/V1_MQTT_OK/GD32VW55X_Wifi_BLE_SDK/GD32VW55x_RELEASE_V1.0.2/MSDK/cloud/alicloud/src/protocol/mqtt/MQTTPacket\MQTTDeserializePublish.c **** 		*packetid = readInt(&curdata);
 120              		.loc 1 47 3 is_stmt 1
 121              		.loc 1 47 15 is_stmt 0
 122 008a 2800     		addi	a0,sp,8
 123 008c 97000000 		call	readInt
 123      E7800000 
 124              	.LVL9:
 125              		.loc 1 47 13
 126 0094 2390AA00 		sh	a0,0(s5)
 127              	.L3:
  48:C:/Users/stapi/OneDrive/Desktop/GD32VW553/V1_MQTT_OK/GD32VW55X_Wifi_BLE_SDK/GD32VW55x_RELEASE_V1.0.2/MSDK/cloud/alicloud/src/protocol/mqtt/MQTTPacket\MQTTDeserializePublish.c **** 
  49:C:/Users/stapi/OneDrive/Desktop/GD32VW553/V1_MQTT_OK/GD32VW55X_Wifi_BLE_SDK/GD32VW55x_RELEASE_V1.0.2/MSDK/cloud/alicloud/src/protocol/mqtt/MQTTPacket\MQTTDeserializePublish.c **** 	*payloadlen = enddata - curdata;
 128              		.loc 1 49 2 is_stmt 1
 129              		.loc 1 49 24 is_stmt 0
 130 0098 A247     		lw	a5,8(sp)
  50:C:/Users/stapi/OneDrive/Desktop/GD32VW553/V1_MQTT_OK/GD32VW55X_Wifi_BLE_SDK/GD32VW55x_RELEASE_V1.0.2/MSDK/cloud/alicloud/src/protocol/mqtt/MQTTPacket\MQTTDeserializePublish.c **** 	*payload = curdata;
  51:C:/Users/stapi/OneDrive/Desktop/GD32VW553/V1_MQTT_OK/GD32VW55X_Wifi_BLE_SDK/GD32VW55x_RELEASE_V1.0.2/MSDK/cloud/alicloud/src/protocol/mqtt/MQTTPacket\MQTTDeserializePublish.c **** 	rc = 1;
 131              		.loc 1 51 5
 132 009a 8544     		li	s1,1
 133              	.LVL10:
  49:C:/Users/stapi/OneDrive/Desktop/GD32VW553/V1_MQTT_OK/GD32VW55X_Wifi_BLE_SDK/GD32VW55x_RELEASE_V1.0.2/MSDK/cloud/alicloud/src/protocol/mqtt/MQTTPacket\MQTTDeserializePublish.c **** 	*payload = curdata;
 134              		.loc 1 49 24
 135 009c 1D8C     		sub	s0,s0,a5
 136              	.LVL11:
  49:C:/Users/stapi/OneDrive/Desktop/GD32VW553/V1_MQTT_OK/GD32VW55X_Wifi_BLE_SDK/GD32VW55x_RELEASE_V1.0.2/MSDK/cloud/alicloud/src/protocol/mqtt/MQTTPacket\MQTTDeserializePublish.c **** 	*payload = curdata;
 137              		.loc 1 49 14
 138 009e 23208A00 		sw	s0,0(s4)
  50:C:/Users/stapi/OneDrive/Desktop/GD32VW553/V1_MQTT_OK/GD32VW55X_Wifi_BLE_SDK/GD32VW55x_RELEASE_V1.0.2/MSDK/cloud/alicloud/src/protocol/mqtt/MQTTPacket\MQTTDeserializePublish.c **** 	*payload = curdata;
 139              		.loc 1 50 2 is_stmt 1
  50:C:/Users/stapi/OneDrive/Desktop/GD32VW553/V1_MQTT_OK/GD32VW55X_Wifi_BLE_SDK/GD32VW55x_RELEASE_V1.0.2/MSDK/cloud/alicloud/src/protocol/mqtt/MQTTPacket\MQTTDeserializePublish.c **** 	*payload = curdata;
 140              		.loc 1 50 11 is_stmt 0
 141 00a2 23A0F900 		sw	a5,0(s3)
 142              		.loc 1 51 2 is_stmt 1
 143              	.LVL12:
 144              	.L1:
  52:C:/Users/stapi/OneDrive/Desktop/GD32VW553/V1_MQTT_OK/GD32VW55X_Wifi_BLE_SDK/GD32VW55x_RELEASE_V1.0.2/MSDK/cloud/alicloud/src/protocol/mqtt/MQTTPacket\MQTTDeserializePublish.c **** exit:
  53:C:/Users/stapi/OneDrive/Desktop/GD32VW553/V1_MQTT_OK/GD32VW55X_Wifi_BLE_SDK/GD32VW55x_RELEASE_V1.0.2/MSDK/cloud/alicloud/src/protocol/mqtt/MQTTPacket\MQTTDeserializePublish.c **** 	return rc;
  54:C:/Users/stapi/OneDrive/Desktop/GD32VW553/V1_MQTT_OK/GD32VW55X_Wifi_BLE_SDK/GD32VW55x_RELEASE_V1.0.2/MSDK/cloud/alicloud/src/protocol/mqtt/MQTTPacket\MQTTDeserializePublish.c **** }
 145              		.loc 1 54 1 is_stmt 0
 146 00a6 2685     		mv	a0,s1
 147 00a8 4101     		addi	sp,sp,16
 148              		.cfi_remember_state
 149              		.cfi_def_cfa_offset 0
 150              	.LVL13:
 151 00aa 17030000 		tail	__riscv_restore_7
 151      67000300 
 152              		.cfi_restore 22
 153              		.cfi_restore 21
 154              		.cfi_restore 20
 155              		.cfi_restore 19
 156              		.cfi_restore 18
 157              		.cfi_restore 9
 158              		.cfi_restore 8
 159              		.cfi_restore 1
 160              		.cfi_def_cfa_offset -32
 161              	.LVL14:
 162              	.L4:
 163              		.cfi_restore_state
 164              	.L2:
  53:C:/Users/stapi/OneDrive/Desktop/GD32VW553/V1_MQTT_OK/GD32VW55X_Wifi_BLE_SDK/GD32VW55x_RELEASE_V1.0.2/MSDK/cloud/alicloud/src/protocol/mqtt/MQTTPacket\MQTTDeserializePublish.c **** }
 165              		.loc 1 53 2 is_stmt 1
  29:C:/Users/stapi/OneDrive/Desktop/GD32VW553/V1_MQTT_OK/GD32VW55X_Wifi_BLE_SDK/GD32VW55x_RELEASE_V1.0.2/MSDK/cloud/alicloud/src/protocol/mqtt/MQTTPacket\MQTTDeserializePublish.c **** 	int mylen = 0;
 166              		.loc 1 29 6 is_stmt 0
 167 00b2 8144     		li	s1,0
 168              	.LVL15:
  53:C:/Users/stapi/OneDrive/Desktop/GD32VW553/V1_MQTT_OK/GD32VW55X_Wifi_BLE_SDK/GD32VW55x_RELEASE_V1.0.2/MSDK/cloud/alicloud/src/protocol/mqtt/MQTTPacket\MQTTDeserializePublish.c **** }
 169              		.loc 1 53 9
 170 00b4 CDBF     		j	.L1
 171              		.cfi_endproc
 172              	.LFE1:
 174              		.section	.text.MQTTDeserialize_ack,"ax",@progbits
 175              		.align	1
 176              		.globl	MQTTDeserialize_ack
 178              	MQTTDeserialize_ack:
 179              	.LFB2:
  55:C:/Users/stapi/OneDrive/Desktop/GD32VW553/V1_MQTT_OK/GD32VW55X_Wifi_BLE_SDK/GD32VW55x_RELEASE_V1.0.2/MSDK/cloud/alicloud/src/protocol/mqtt/MQTTPacket\MQTTDeserializePublish.c **** 
  56:C:/Users/stapi/OneDrive/Desktop/GD32VW553/V1_MQTT_OK/GD32VW55X_Wifi_BLE_SDK/GD32VW55x_RELEASE_V1.0.2/MSDK/cloud/alicloud/src/protocol/mqtt/MQTTPacket\MQTTDeserializePublish.c **** 
  57:C:/Users/stapi/OneDrive/Desktop/GD32VW553/V1_MQTT_OK/GD32VW55X_Wifi_BLE_SDK/GD32VW55x_RELEASE_V1.0.2/MSDK/cloud/alicloud/src/protocol/mqtt/MQTTPacket\MQTTDeserializePublish.c **** 
  58:C:/Users/stapi/OneDrive/Desktop/GD32VW553/V1_MQTT_OK/GD32VW55X_Wifi_BLE_SDK/GD32VW55x_RELEASE_V1.0.2/MSDK/cloud/alicloud/src/protocol/mqtt/MQTTPacket\MQTTDeserializePublish.c **** /**
  59:C:/Users/stapi/OneDrive/Desktop/GD32VW553/V1_MQTT_OK/GD32VW55X_Wifi_BLE_SDK/GD32VW55x_RELEASE_V1.0.2/MSDK/cloud/alicloud/src/protocol/mqtt/MQTTPacket\MQTTDeserializePublish.c ****   * Deserializes the supplied (wire) buffer into an ack
  60:C:/Users/stapi/OneDrive/Desktop/GD32VW553/V1_MQTT_OK/GD32VW55X_Wifi_BLE_SDK/GD32VW55x_RELEASE_V1.0.2/MSDK/cloud/alicloud/src/protocol/mqtt/MQTTPacket\MQTTDeserializePublish.c ****   * @param packettype returned integer - the MQTT packet type
  61:C:/Users/stapi/OneDrive/Desktop/GD32VW553/V1_MQTT_OK/GD32VW55X_Wifi_BLE_SDK/GD32VW55x_RELEASE_V1.0.2/MSDK/cloud/alicloud/src/protocol/mqtt/MQTTPacket\MQTTDeserializePublish.c ****   * @param dup returned integer - the MQTT dup flag
  62:C:/Users/stapi/OneDrive/Desktop/GD32VW553/V1_MQTT_OK/GD32VW55X_Wifi_BLE_SDK/GD32VW55x_RELEASE_V1.0.2/MSDK/cloud/alicloud/src/protocol/mqtt/MQTTPacket\MQTTDeserializePublish.c ****   * @param packetid returned integer - the MQTT packet identifier
  63:C:/Users/stapi/OneDrive/Desktop/GD32VW553/V1_MQTT_OK/GD32VW55X_Wifi_BLE_SDK/GD32VW55x_RELEASE_V1.0.2/MSDK/cloud/alicloud/src/protocol/mqtt/MQTTPacket\MQTTDeserializePublish.c ****   * @param buf the raw buffer data, of the correct length determined by the remaining length field
  64:C:/Users/stapi/OneDrive/Desktop/GD32VW553/V1_MQTT_OK/GD32VW55X_Wifi_BLE_SDK/GD32VW55x_RELEASE_V1.0.2/MSDK/cloud/alicloud/src/protocol/mqtt/MQTTPacket\MQTTDeserializePublish.c ****   * @param buflen the length in bytes of the data in the supplied buffer
  65:C:/Users/stapi/OneDrive/Desktop/GD32VW553/V1_MQTT_OK/GD32VW55X_Wifi_BLE_SDK/GD32VW55x_RELEASE_V1.0.2/MSDK/cloud/alicloud/src/protocol/mqtt/MQTTPacket\MQTTDeserializePublish.c ****   * @return error code.  1 is success, 0 is failure
  66:C:/Users/stapi/OneDrive/Desktop/GD32VW553/V1_MQTT_OK/GD32VW55X_Wifi_BLE_SDK/GD32VW55x_RELEASE_V1.0.2/MSDK/cloud/alicloud/src/protocol/mqtt/MQTTPacket\MQTTDeserializePublish.c ****   */
  67:C:/Users/stapi/OneDrive/Desktop/GD32VW553/V1_MQTT_OK/GD32VW55X_Wifi_BLE_SDK/GD32VW55x_RELEASE_V1.0.2/MSDK/cloud/alicloud/src/protocol/mqtt/MQTTPacket\MQTTDeserializePublish.c **** int MQTTDeserialize_ack(unsigned char* packettype, unsigned char* dup, unsigned short* packetid, un
  68:C:/Users/stapi/OneDrive/Desktop/GD32VW553/V1_MQTT_OK/GD32VW55X_Wifi_BLE_SDK/GD32VW55x_RELEASE_V1.0.2/MSDK/cloud/alicloud/src/protocol/mqtt/MQTTPacket\MQTTDeserializePublish.c **** {
 180              		.loc 1 68 1 is_stmt 1
 181              		.cfi_startproc
 182              	.LVL16:
 183 0000 17030000 		call	t0,__riscv_save_3
 183      E7020300 
 184              		.cfi_offset 18, -16
 185              		.cfi_offset 9, -12
 186              		.cfi_offset 8, -8
 187              		.cfi_offset 1, -4
 188              		.cfi_def_cfa_offset 16
  69:C:/Users/stapi/OneDrive/Desktop/GD32VW553/V1_MQTT_OK/GD32VW55X_Wifi_BLE_SDK/GD32VW55x_RELEASE_V1.0.2/MSDK/cloud/alicloud/src/protocol/mqtt/MQTTPacket\MQTTDeserializePublish.c **** 	MQTTHeader header = {0};
 189              		.loc 1 69 2
  70:C:/Users/stapi/OneDrive/Desktop/GD32VW553/V1_MQTT_OK/GD32VW55X_Wifi_BLE_SDK/GD32VW55x_RELEASE_V1.0.2/MSDK/cloud/alicloud/src/protocol/mqtt/MQTTPacket\MQTTDeserializePublish.c **** 	unsigned char* curdata = buf;
 190              		.loc 1 70 2
  68:C:/Users/stapi/OneDrive/Desktop/GD32VW553/V1_MQTT_OK/GD32VW55X_Wifi_BLE_SDK/GD32VW55x_RELEASE_V1.0.2/MSDK/cloud/alicloud/src/protocol/mqtt/MQTTPacket\MQTTDeserializePublish.c **** 	MQTTHeader header = {0};
 191              		.loc 1 68 1 is_stmt 0
 192 0008 4111     		addi	sp,sp,-16
 193              		.cfi_def_cfa_offset 32
  68:C:/Users/stapi/OneDrive/Desktop/GD32VW553/V1_MQTT_OK/GD32VW55X_Wifi_BLE_SDK/GD32VW55x_RELEASE_V1.0.2/MSDK/cloud/alicloud/src/protocol/mqtt/MQTTPacket\MQTTDeserializePublish.c **** 	MQTTHeader header = {0};
 194              		.loc 1 68 1
 195 000a AA84     		mv	s1,a0
  71:C:/Users/stapi/OneDrive/Desktop/GD32VW553/V1_MQTT_OK/GD32VW55X_Wifi_BLE_SDK/GD32VW55x_RELEASE_V1.0.2/MSDK/cloud/alicloud/src/protocol/mqtt/MQTTPacket\MQTTDeserializePublish.c **** 	unsigned char* enddata = NULL;
  72:C:/Users/stapi/OneDrive/Desktop/GD32VW553/V1_MQTT_OK/GD32VW55X_Wifi_BLE_SDK/GD32VW55x_RELEASE_V1.0.2/MSDK/cloud/alicloud/src/protocol/mqtt/MQTTPacket\MQTTDeserializePublish.c **** 	int rc = 0;
  73:C:/Users/stapi/OneDrive/Desktop/GD32VW553/V1_MQTT_OK/GD32VW55X_Wifi_BLE_SDK/GD32VW55x_RELEASE_V1.0.2/MSDK/cloud/alicloud/src/protocol/mqtt/MQTTPacket\MQTTDeserializePublish.c **** 	int mylen;
  74:C:/Users/stapi/OneDrive/Desktop/GD32VW553/V1_MQTT_OK/GD32VW55X_Wifi_BLE_SDK/GD32VW55x_RELEASE_V1.0.2/MSDK/cloud/alicloud/src/protocol/mqtt/MQTTPacket\MQTTDeserializePublish.c **** 
  75:C:/Users/stapi/OneDrive/Desktop/GD32VW553/V1_MQTT_OK/GD32VW55X_Wifi_BLE_SDK/GD32VW55x_RELEASE_V1.0.2/MSDK/cloud/alicloud/src/protocol/mqtt/MQTTPacket\MQTTDeserializePublish.c **** 	header.byte = readChar(&curdata);
 196              		.loc 1 75 16
 197 000c 2800     		addi	a0,sp,8
 198              	.LVL17:
  68:C:/Users/stapi/OneDrive/Desktop/GD32VW553/V1_MQTT_OK/GD32VW55X_Wifi_BLE_SDK/GD32VW55x_RELEASE_V1.0.2/MSDK/cloud/alicloud/src/protocol/mqtt/MQTTPacket\MQTTDeserializePublish.c **** 	MQTTHeader header = {0};
 199              		.loc 1 68 1
 200 000e 2E89     		mv	s2,a1
 201 0010 3284     		mv	s0,a2
  70:C:/Users/stapi/OneDrive/Desktop/GD32VW553/V1_MQTT_OK/GD32VW55X_Wifi_BLE_SDK/GD32VW55x_RELEASE_V1.0.2/MSDK/cloud/alicloud/src/protocol/mqtt/MQTTPacket\MQTTDeserializePublish.c **** 	unsigned char* enddata = NULL;
 202              		.loc 1 70 17
 203 0012 36C4     		sw	a3,8(sp)
  71:C:/Users/stapi/OneDrive/Desktop/GD32VW553/V1_MQTT_OK/GD32VW55X_Wifi_BLE_SDK/GD32VW55x_RELEASE_V1.0.2/MSDK/cloud/alicloud/src/protocol/mqtt/MQTTPacket\MQTTDeserializePublish.c **** 	unsigned char* enddata = NULL;
 204              		.loc 1 71 2 is_stmt 1
 205              	.LVL18:
  72:C:/Users/stapi/OneDrive/Desktop/GD32VW553/V1_MQTT_OK/GD32VW55X_Wifi_BLE_SDK/GD32VW55x_RELEASE_V1.0.2/MSDK/cloud/alicloud/src/protocol/mqtt/MQTTPacket\MQTTDeserializePublish.c **** 	int mylen;
 206              		.loc 1 72 2
  73:C:/Users/stapi/OneDrive/Desktop/GD32VW553/V1_MQTT_OK/GD32VW55X_Wifi_BLE_SDK/GD32VW55x_RELEASE_V1.0.2/MSDK/cloud/alicloud/src/protocol/mqtt/MQTTPacket\MQTTDeserializePublish.c **** 
 207              		.loc 1 73 2
 208              		.loc 1 75 2
 209              		.loc 1 75 16 is_stmt 0
 210 0014 97000000 		call	readChar
 210      E7800000 
 211              	.LVL19:
  76:C:/Users/stapi/OneDrive/Desktop/GD32VW553/V1_MQTT_OK/GD32VW55X_Wifi_BLE_SDK/GD32VW55x_RELEASE_V1.0.2/MSDK/cloud/alicloud/src/protocol/mqtt/MQTTPacket\MQTTDeserializePublish.c **** 	*dup = header.bits.dup;
 212              		.loc 1 76 20
 213 001c 93573548 		bexti	a5,a0,3
  75:C:/Users/stapi/OneDrive/Desktop/GD32VW553/V1_MQTT_OK/GD32VW55X_Wifi_BLE_SDK/GD32VW55x_RELEASE_V1.0.2/MSDK/cloud/alicloud/src/protocol/mqtt/MQTTPacket\MQTTDeserializePublish.c **** 	*dup = header.bits.dup;
 214              		.loc 1 75 14
 215 0020 1377F50F 		andi	a4,a0,0xff
 216              		.loc 1 76 2 is_stmt 1
  77:C:/Users/stapi/OneDrive/Desktop/GD32VW553/V1_MQTT_OK/GD32VW55X_Wifi_BLE_SDK/GD32VW55x_RELEASE_V1.0.2/MSDK/cloud/alicloud/src/protocol/mqtt/MQTTPacket\MQTTDeserializePublish.c **** 	*packettype = header.bits.type;
  78:C:/Users/stapi/OneDrive/Desktop/GD32VW553/V1_MQTT_OK/GD32VW55X_Wifi_BLE_SDK/GD32VW55x_RELEASE_V1.0.2/MSDK/cloud/alicloud/src/protocol/mqtt/MQTTPacket\MQTTDeserializePublish.c **** 
  79:C:/Users/stapi/OneDrive/Desktop/GD32VW553/V1_MQTT_OK/GD32VW55X_Wifi_BLE_SDK/GD32VW55x_RELEASE_V1.0.2/MSDK/cloud/alicloud/src/protocol/mqtt/MQTTPacket\MQTTDeserializePublish.c **** 	curdata += (rc = MQTTPacket_decodeBuf(curdata, &mylen)); /* read remaining length */
 217              		.loc 1 79 19 is_stmt 0
 218 0024 2245     		lw	a0,8(sp)
  76:C:/Users/stapi/OneDrive/Desktop/GD32VW553/V1_MQTT_OK/GD32VW55X_Wifi_BLE_SDK/GD32VW55x_RELEASE_V1.0.2/MSDK/cloud/alicloud/src/protocol/mqtt/MQTTPacket\MQTTDeserializePublish.c **** 	*packettype = header.bits.type;
 219              		.loc 1 76 7
 220 0026 2300F900 		sb	a5,0(s2)
  77:C:/Users/stapi/OneDrive/Desktop/GD32VW553/V1_MQTT_OK/GD32VW55X_Wifi_BLE_SDK/GD32VW55x_RELEASE_V1.0.2/MSDK/cloud/alicloud/src/protocol/mqtt/MQTTPacket\MQTTDeserializePublish.c **** 	*packettype = header.bits.type;
 221              		.loc 1 77 2 is_stmt 1
  77:C:/Users/stapi/OneDrive/Desktop/GD32VW553/V1_MQTT_OK/GD32VW55X_Wifi_BLE_SDK/GD32VW55x_RELEASE_V1.0.2/MSDK/cloud/alicloud/src/protocol/mqtt/MQTTPacket\MQTTDeserializePublish.c **** 	*packettype = header.bits.type;
 222              		.loc 1 77 27 is_stmt 0
 223 002a 1183     		srli	a4,a4,4
  77:C:/Users/stapi/OneDrive/Desktop/GD32VW553/V1_MQTT_OK/GD32VW55X_Wifi_BLE_SDK/GD32VW55x_RELEASE_V1.0.2/MSDK/cloud/alicloud/src/protocol/mqtt/MQTTPacket\MQTTDeserializePublish.c **** 	*packettype = header.bits.type;
 224              		.loc 1 77 14
 225 002c 2380E400 		sb	a4,0(s1)
 226              		.loc 1 79 2 is_stmt 1
 227              		.loc 1 79 19 is_stmt 0
 228 0030 6C00     		addi	a1,sp,12
 229 0032 97000000 		call	MQTTPacket_decodeBuf
 229      E7800000 
 230              	.LVL20:
 231              		.loc 1 79 10
 232 003a A247     		lw	a5,8(sp)
  80:C:/Users/stapi/OneDrive/Desktop/GD32VW553/V1_MQTT_OK/GD32VW55X_Wifi_BLE_SDK/GD32VW55x_RELEASE_V1.0.2/MSDK/cloud/alicloud/src/protocol/mqtt/MQTTPacket\MQTTDeserializePublish.c **** 	enddata = curdata + mylen;
  81:C:/Users/stapi/OneDrive/Desktop/GD32VW553/V1_MQTT_OK/GD32VW55X_Wifi_BLE_SDK/GD32VW55x_RELEASE_V1.0.2/MSDK/cloud/alicloud/src/protocol/mqtt/MQTTPacket\MQTTDeserializePublish.c **** 
  82:C:/Users/stapi/OneDrive/Desktop/GD32VW553/V1_MQTT_OK/GD32VW55X_Wifi_BLE_SDK/GD32VW55x_RELEASE_V1.0.2/MSDK/cloud/alicloud/src/protocol/mqtt/MQTTPacket\MQTTDeserializePublish.c **** 	if (enddata - curdata < 2)
 233              		.loc 1 82 5
 234 003c 3247     		lw	a4,12(sp)
  79:C:/Users/stapi/OneDrive/Desktop/GD32VW553/V1_MQTT_OK/GD32VW55X_Wifi_BLE_SDK/GD32VW55x_RELEASE_V1.0.2/MSDK/cloud/alicloud/src/protocol/mqtt/MQTTPacket\MQTTDeserializePublish.c **** 	enddata = curdata + mylen;
 235              		.loc 1 79 10
 236 003e AA97     		add	a5,a5,a0
 237 0040 3EC4     		sw	a5,8(sp)
  80:C:/Users/stapi/OneDrive/Desktop/GD32VW553/V1_MQTT_OK/GD32VW55X_Wifi_BLE_SDK/GD32VW55x_RELEASE_V1.0.2/MSDK/cloud/alicloud/src/protocol/mqtt/MQTTPacket\MQTTDeserializePublish.c **** 	enddata = curdata + mylen;
 238              		.loc 1 80 2 is_stmt 1
 239              	.LVL21:
 240              		.loc 1 82 2
 241              		.loc 1 82 5 is_stmt 0
 242 0042 8547     		li	a5,1
 243              	.LVL22:
 244 0044 63DAE700 		ble	a4,a5,.L9
  83:C:/Users/stapi/OneDrive/Desktop/GD32VW553/V1_MQTT_OK/GD32VW55X_Wifi_BLE_SDK/GD32VW55x_RELEASE_V1.0.2/MSDK/cloud/alicloud/src/protocol/mqtt/MQTTPacket\MQTTDeserializePublish.c **** 		goto exit;
  84:C:/Users/stapi/OneDrive/Desktop/GD32VW553/V1_MQTT_OK/GD32VW55X_Wifi_BLE_SDK/GD32VW55x_RELEASE_V1.0.2/MSDK/cloud/alicloud/src/protocol/mqtt/MQTTPacket\MQTTDeserializePublish.c **** 	*packetid = readInt(&curdata);
 245              		.loc 1 84 2 is_stmt 1
 246              		.loc 1 84 14 is_stmt 0
 247 0048 2800     		addi	a0,sp,8
 248              	.LVL23:
 249 004a 97000000 		call	readInt
 249      E7800000 
 250              	.LVL24:
 251              		.loc 1 84 12
 252 0052 2310A400 		sh	a0,0(s0)
  85:C:/Users/stapi/OneDrive/Desktop/GD32VW553/V1_MQTT_OK/GD32VW55X_Wifi_BLE_SDK/GD32VW55x_RELEASE_V1.0.2/MSDK/cloud/alicloud/src/protocol/mqtt/MQTTPacket\MQTTDeserializePublish.c **** 
  86:C:/Users/stapi/OneDrive/Desktop/GD32VW553/V1_MQTT_OK/GD32VW55X_Wifi_BLE_SDK/GD32VW55x_RELEASE_V1.0.2/MSDK/cloud/alicloud/src/protocol/mqtt/MQTTPacket\MQTTDeserializePublish.c **** 	rc = 1;
 253              		.loc 1 86 2 is_stmt 1
 254              	.LVL25:
 255              		.loc 1 86 5 is_stmt 0
 256 0056 0545     		li	a0,1
  87:C:/Users/stapi/OneDrive/Desktop/GD32VW553/V1_MQTT_OK/GD32VW55X_Wifi_BLE_SDK/GD32VW55x_RELEASE_V1.0.2/MSDK/cloud/alicloud/src/protocol/mqtt/MQTTPacket\MQTTDeserializePublish.c **** exit:
  88:C:/Users/stapi/OneDrive/Desktop/GD32VW553/V1_MQTT_OK/GD32VW55X_Wifi_BLE_SDK/GD32VW55x_RELEASE_V1.0.2/MSDK/cloud/alicloud/src/protocol/mqtt/MQTTPacket\MQTTDeserializePublish.c **** 	return rc;
 257              		.loc 1 88 2 is_stmt 1
 258              	.L10:
 259              	.LVL26:
 260              	.L9:
  89:C:/Users/stapi/OneDrive/Desktop/GD32VW553/V1_MQTT_OK/GD32VW55X_Wifi_BLE_SDK/GD32VW55x_RELEASE_V1.0.2/MSDK/cloud/alicloud/src/protocol/mqtt/MQTTPacket\MQTTDeserializePublish.c **** }
 261              		.loc 1 89 1 is_stmt 0
 262 0058 4101     		addi	sp,sp,16
 263              		.cfi_def_cfa_offset 0
 264 005a 17030000 		tail	__riscv_restore_3
 264      67000300 
 265              		.cfi_restore 18
 266              		.cfi_restore 9
 267              		.cfi_restore 8
 268              		.cfi_restore 1
 269              		.cfi_def_cfa_offset -16
 270              		.cfi_endproc
 271              	.LFE2:
 273              		.text
 274              	.Letext0:
 275              		.file 2 "C:/Users/stapi/OneDrive/Desktop/GD32VW553/V1_MQTT_OK/GD32VW55X_Wifi_BLE_SDK/GD32VW55x_REL