   1              		.file	"iotx_cm.c"
   2              		.option nopic
   3              		.attribute arch, "rv32i2p0_m2p0_a2p0_f2p0_c2p0_b_p0p94"
   4              		.attribute unaligned_access, 0
   5              		.attribute stack_align, 16
   6              		.text
   7              	.Ltext0:
   8              		.cfi_sections	.debug_frame
   9              		.section	.rodata._fd_is_valid.str1.4,"aMS",@progbits,1
  10              		.align	2
  11              	.LC0:
  12 0000 5B657272 		.string	"[err] "
  12      5D2000
  13 0007 00       		.align	2
  14              	.LC1:
  15 0008 66645F6C 		.string	"fd_lock"
  15      6F636B00 
  16              		.align	2
  17              	.LC2:
  18 0010 496E7661 		.string	"Invalid argument, %s = %p"
  18      6C696420 
  18      61726775 
  18      6D656E74 
  18      2C202573 
  19 002a 0000     		.align	2
  20              	.LC3:
  21 002c 0D0A00   		.string	"\r\n"
  22              		.section	.text._fd_is_valid,"ax",@progbits
  23              		.align	1
  25              	_fd_is_valid:
  26              	.LFB28:
  27              		.file 1 "C:/Users/stapi/OneDrive/Desktop/GD32VW553/V1_MQTT_OK/GD32VW55X_Wifi_BLE_SDK/GD32VW55x_REL
   1:C:/Users/stapi/OneDrive/Desktop/GD32VW553/V1_MQTT_OK/GD32VW55X_Wifi_BLE_SDK/GD32VW55x_RELEASE_V1.0.2/MSDK/cloud/alicloud/src/services/linkkit/cm\iotx_cm.c **** #include "iot_import.h"
   2:C:/Users/stapi/OneDrive/Desktop/GD32VW553/V1_MQTT_OK/GD32VW55X_Wifi_BLE_SDK/GD32VW55x_RELEASE_V1.0.2/MSDK/cloud/alicloud/src/services/linkkit/cm\iotx_cm.c **** #include "iotx_cm.h"
   3:C:/Users/stapi/OneDrive/Desktop/GD32VW553/V1_MQTT_OK/GD32VW55X_Wifi_BLE_SDK/GD32VW55x_RELEASE_V1.0.2/MSDK/cloud/alicloud/src/services/linkkit/cm\iotx_cm.c **** #include "iotx_cm_internal.h"
   4:C:/Users/stapi/OneDrive/Desktop/GD32VW553/V1_MQTT_OK/GD32VW55X_Wifi_BLE_SDK/GD32VW55x_RELEASE_V1.0.2/MSDK/cloud/alicloud/src/services/linkkit/cm\iotx_cm.c **** #include "iot_export_event.h"
   5:C:/Users/stapi/OneDrive/Desktop/GD32VW553/V1_MQTT_OK/GD32VW55X_Wifi_BLE_SDK/GD32VW55x_RELEASE_V1.0.2/MSDK/cloud/alicloud/src/services/linkkit/cm\iotx_cm.c **** 
   6:C:/Users/stapi/OneDrive/Desktop/GD32VW553/V1_MQTT_OK/GD32VW55X_Wifi_BLE_SDK/GD32VW55x_RELEASE_V1.0.2/MSDK/cloud/alicloud/src/services/linkkit/cm\iotx_cm.c **** #if defined(MQTT_COMM_ENABLED) || defined(MAL_ENABLED) 
   7:C:/Users/stapi/OneDrive/Desktop/GD32VW553/V1_MQTT_OK/GD32VW55X_Wifi_BLE_SDK/GD32VW55x_RELEASE_V1.0.2/MSDK/cloud/alicloud/src/services/linkkit/cm\iotx_cm.c **** #include "iotx_cm_mqtt.h"
   8:C:/Users/stapi/OneDrive/Desktop/GD32VW553/V1_MQTT_OK/GD32VW55X_Wifi_BLE_SDK/GD32VW55x_RELEASE_V1.0.2/MSDK/cloud/alicloud/src/services/linkkit/cm\iotx_cm.c **** #endif
   9:C:/Users/stapi/OneDrive/Desktop/GD32VW553/V1_MQTT_OK/GD32VW55X_Wifi_BLE_SDK/GD32VW55x_RELEASE_V1.0.2/MSDK/cloud/alicloud/src/services/linkkit/cm\iotx_cm.c **** #ifdef COAP_COMM_ENABLED
  10:C:/Users/stapi/OneDrive/Desktop/GD32VW553/V1_MQTT_OK/GD32VW55X_Wifi_BLE_SDK/GD32VW55x_RELEASE_V1.0.2/MSDK/cloud/alicloud/src/services/linkkit/cm\iotx_cm.c **** #include "iotx_cm_coap.h"
  11:C:/Users/stapi/OneDrive/Desktop/GD32VW553/V1_MQTT_OK/GD32VW55X_Wifi_BLE_SDK/GD32VW55x_RELEASE_V1.0.2/MSDK/cloud/alicloud/src/services/linkkit/cm\iotx_cm.c **** #endif
  12:C:/Users/stapi/OneDrive/Desktop/GD32VW553/V1_MQTT_OK/GD32VW55X_Wifi_BLE_SDK/GD32VW55x_RELEASE_V1.0.2/MSDK/cloud/alicloud/src/services/linkkit/cm\iotx_cm.c **** 
  13:C:/Users/stapi/OneDrive/Desktop/GD32VW553/V1_MQTT_OK/GD32VW55X_Wifi_BLE_SDK/GD32VW55x_RELEASE_V1.0.2/MSDK/cloud/alicloud/src/services/linkkit/cm\iotx_cm.c **** 
  14:C:/Users/stapi/OneDrive/Desktop/GD32VW553/V1_MQTT_OK/GD32VW55X_Wifi_BLE_SDK/GD32VW55x_RELEASE_V1.0.2/MSDK/cloud/alicloud/src/services/linkkit/cm\iotx_cm.c **** static void *fd_lock = NULL;
  15:C:/Users/stapi/OneDrive/Desktop/GD32VW553/V1_MQTT_OK/GD32VW55X_Wifi_BLE_SDK/GD32VW55x_RELEASE_V1.0.2/MSDK/cloud/alicloud/src/services/linkkit/cm\iotx_cm.c **** static iotx_cm_connection_t *_cm_fd[CM_MAX_FD_NUM] = {NULL};
  16:C:/Users/stapi/OneDrive/Desktop/GD32VW553/V1_MQTT_OK/GD32VW55X_Wifi_BLE_SDK/GD32VW55x_RELEASE_V1.0.2/MSDK/cloud/alicloud/src/services/linkkit/cm\iotx_cm.c **** static int _get_fd(iotx_cm_connection_t *handle);
  17:C:/Users/stapi/OneDrive/Desktop/GD32VW553/V1_MQTT_OK/GD32VW55X_Wifi_BLE_SDK/GD32VW55x_RELEASE_V1.0.2/MSDK/cloud/alicloud/src/services/linkkit/cm\iotx_cm.c **** static int _recycle_fd(int fd);
  18:C:/Users/stapi/OneDrive/Desktop/GD32VW553/V1_MQTT_OK/GD32VW55X_Wifi_BLE_SDK/GD32VW55x_RELEASE_V1.0.2/MSDK/cloud/alicloud/src/services/linkkit/cm\iotx_cm.c **** static int inline _fd_is_valid(int fd);
  19:C:/Users/stapi/OneDrive/Desktop/GD32VW553/V1_MQTT_OK/GD32VW55X_Wifi_BLE_SDK/GD32VW55x_RELEASE_V1.0.2/MSDK/cloud/alicloud/src/services/linkkit/cm\iotx_cm.c **** static int inited_conn_num = 0;
  20:C:/Users/stapi/OneDrive/Desktop/GD32VW553/V1_MQTT_OK/GD32VW55X_Wifi_BLE_SDK/GD32VW55x_RELEASE_V1.0.2/MSDK/cloud/alicloud/src/services/linkkit/cm\iotx_cm.c **** 
  21:C:/Users/stapi/OneDrive/Desktop/GD32VW553/V1_MQTT_OK/GD32VW55X_Wifi_BLE_SDK/GD32VW55x_RELEASE_V1.0.2/MSDK/cloud/alicloud/src/services/linkkit/cm\iotx_cm.c **** #if (CONFIG_SDK_THREAD_COST == 1)
  22:C:/Users/stapi/OneDrive/Desktop/GD32VW553/V1_MQTT_OK/GD32VW55X_Wifi_BLE_SDK/GD32VW55x_RELEASE_V1.0.2/MSDK/cloud/alicloud/src/services/linkkit/cm\iotx_cm.c ****     static void *_iotx_cm_yield_thread_func(void *params);
  23:C:/Users/stapi/OneDrive/Desktop/GD32VW553/V1_MQTT_OK/GD32VW55X_Wifi_BLE_SDK/GD32VW55x_RELEASE_V1.0.2/MSDK/cloud/alicloud/src/services/linkkit/cm\iotx_cm.c ****     static void *yield_thread = NULL;
  24:C:/Users/stapi/OneDrive/Desktop/GD32VW553/V1_MQTT_OK/GD32VW55X_Wifi_BLE_SDK/GD32VW55x_RELEASE_V1.0.2/MSDK/cloud/alicloud/src/services/linkkit/cm\iotx_cm.c ****     static int yield_task_leave = 1;
  25:C:/Users/stapi/OneDrive/Desktop/GD32VW553/V1_MQTT_OK/GD32VW55X_Wifi_BLE_SDK/GD32VW55x_RELEASE_V1.0.2/MSDK/cloud/alicloud/src/services/linkkit/cm\iotx_cm.c **** #endif
  26:C:/Users/stapi/OneDrive/Desktop/GD32VW553/V1_MQTT_OK/GD32VW55X_Wifi_BLE_SDK/GD32VW55x_RELEASE_V1.0.2/MSDK/cloud/alicloud/src/services/linkkit/cm\iotx_cm.c **** 
  27:C:/Users/stapi/OneDrive/Desktop/GD32VW553/V1_MQTT_OK/GD32VW55X_Wifi_BLE_SDK/GD32VW55x_RELEASE_V1.0.2/MSDK/cloud/alicloud/src/services/linkkit/cm\iotx_cm.c **** const char ERR_INVALID_PARAMS[] CM_READ_ONLY  = "invalid parameter";
  28:C:/Users/stapi/OneDrive/Desktop/GD32VW553/V1_MQTT_OK/GD32VW55X_Wifi_BLE_SDK/GD32VW55x_RELEASE_V1.0.2/MSDK/cloud/alicloud/src/services/linkkit/cm\iotx_cm.c **** int iotx_cm_open(iotx_cm_init_param_t *params)
  29:C:/Users/stapi/OneDrive/Desktop/GD32VW553/V1_MQTT_OK/GD32VW55X_Wifi_BLE_SDK/GD32VW55x_RELEASE_V1.0.2/MSDK/cloud/alicloud/src/services/linkkit/cm\iotx_cm.c **** {
  30:C:/Users/stapi/OneDrive/Desktop/GD32VW553/V1_MQTT_OK/GD32VW55X_Wifi_BLE_SDK/GD32VW55x_RELEASE_V1.0.2/MSDK/cloud/alicloud/src/services/linkkit/cm\iotx_cm.c ****     int fd;
  31:C:/Users/stapi/OneDrive/Desktop/GD32VW553/V1_MQTT_OK/GD32VW55X_Wifi_BLE_SDK/GD32VW55x_RELEASE_V1.0.2/MSDK/cloud/alicloud/src/services/linkkit/cm\iotx_cm.c ****     iotx_cm_connection_t *connection = NULL;
  32:C:/Users/stapi/OneDrive/Desktop/GD32VW553/V1_MQTT_OK/GD32VW55X_Wifi_BLE_SDK/GD32VW55x_RELEASE_V1.0.2/MSDK/cloud/alicloud/src/services/linkkit/cm\iotx_cm.c **** 
  33:C:/Users/stapi/OneDrive/Desktop/GD32VW553/V1_MQTT_OK/GD32VW55X_Wifi_BLE_SDK/GD32VW55x_RELEASE_V1.0.2/MSDK/cloud/alicloud/src/services/linkkit/cm\iotx_cm.c ****     POINTER_SANITY_CHECK(params, NULL_VALUE_ERROR);
  34:C:/Users/stapi/OneDrive/Desktop/GD32VW553/V1_MQTT_OK/GD32VW55X_Wifi_BLE_SDK/GD32VW55x_RELEASE_V1.0.2/MSDK/cloud/alicloud/src/services/linkkit/cm\iotx_cm.c **** 
  35:C:/Users/stapi/OneDrive/Desktop/GD32VW553/V1_MQTT_OK/GD32VW55X_Wifi_BLE_SDK/GD32VW55x_RELEASE_V1.0.2/MSDK/cloud/alicloud/src/services/linkkit/cm\iotx_cm.c ****     switch (params->protocol_type) {
  36:C:/Users/stapi/OneDrive/Desktop/GD32VW553/V1_MQTT_OK/GD32VW55X_Wifi_BLE_SDK/GD32VW55x_RELEASE_V1.0.2/MSDK/cloud/alicloud/src/services/linkkit/cm\iotx_cm.c ****         case IOTX_CM_PROTOCOL_TYPE_MQTT:
  37:C:/Users/stapi/OneDrive/Desktop/GD32VW553/V1_MQTT_OK/GD32VW55X_Wifi_BLE_SDK/GD32VW55x_RELEASE_V1.0.2/MSDK/cloud/alicloud/src/services/linkkit/cm\iotx_cm.c **** #if defined(MQTT_COMM_ENABLED) || defined(MAL_ENABLED)
  38:C:/Users/stapi/OneDrive/Desktop/GD32VW553/V1_MQTT_OK/GD32VW55X_Wifi_BLE_SDK/GD32VW55x_RELEASE_V1.0.2/MSDK/cloud/alicloud/src/services/linkkit/cm\iotx_cm.c ****             connection = iotx_cm_open_mqtt(params);
  39:C:/Users/stapi/OneDrive/Desktop/GD32VW553/V1_MQTT_OK/GD32VW55X_Wifi_BLE_SDK/GD32VW55x_RELEASE_V1.0.2/MSDK/cloud/alicloud/src/services/linkkit/cm\iotx_cm.c **** #endif
  40:C:/Users/stapi/OneDrive/Desktop/GD32VW553/V1_MQTT_OK/GD32VW55X_Wifi_BLE_SDK/GD32VW55x_RELEASE_V1.0.2/MSDK/cloud/alicloud/src/services/linkkit/cm\iotx_cm.c ****             break;
  41:C:/Users/stapi/OneDrive/Desktop/GD32VW553/V1_MQTT_OK/GD32VW55X_Wifi_BLE_SDK/GD32VW55x_RELEASE_V1.0.2/MSDK/cloud/alicloud/src/services/linkkit/cm\iotx_cm.c ****         case IOTX_CM_PROTOCOL_TYPE_COAP:
  42:C:/Users/stapi/OneDrive/Desktop/GD32VW553/V1_MQTT_OK/GD32VW55X_Wifi_BLE_SDK/GD32VW55x_RELEASE_V1.0.2/MSDK/cloud/alicloud/src/services/linkkit/cm\iotx_cm.c **** #ifdef COAP_COMM_ENABLED
  43:C:/Users/stapi/OneDrive/Desktop/GD32VW553/V1_MQTT_OK/GD32VW55X_Wifi_BLE_SDK/GD32VW55x_RELEASE_V1.0.2/MSDK/cloud/alicloud/src/services/linkkit/cm\iotx_cm.c ****             connection = iotx_cm_open_coap(params);
  44:C:/Users/stapi/OneDrive/Desktop/GD32VW553/V1_MQTT_OK/GD32VW55X_Wifi_BLE_SDK/GD32VW55x_RELEASE_V1.0.2/MSDK/cloud/alicloud/src/services/linkkit/cm\iotx_cm.c **** #endif
  45:C:/Users/stapi/OneDrive/Desktop/GD32VW553/V1_MQTT_OK/GD32VW55X_Wifi_BLE_SDK/GD32VW55x_RELEASE_V1.0.2/MSDK/cloud/alicloud/src/services/linkkit/cm\iotx_cm.c ****             break;            
  46:C:/Users/stapi/OneDrive/Desktop/GD32VW553/V1_MQTT_OK/GD32VW55X_Wifi_BLE_SDK/GD32VW55x_RELEASE_V1.0.2/MSDK/cloud/alicloud/src/services/linkkit/cm\iotx_cm.c ****         default:
  47:C:/Users/stapi/OneDrive/Desktop/GD32VW553/V1_MQTT_OK/GD32VW55X_Wifi_BLE_SDK/GD32VW55x_RELEASE_V1.0.2/MSDK/cloud/alicloud/src/services/linkkit/cm\iotx_cm.c ****             CM_WARN("protocol %d not support yet", params->protocol_type);
  48:C:/Users/stapi/OneDrive/Desktop/GD32VW553/V1_MQTT_OK/GD32VW55X_Wifi_BLE_SDK/GD32VW55x_RELEASE_V1.0.2/MSDK/cloud/alicloud/src/services/linkkit/cm\iotx_cm.c ****             break;
  49:C:/Users/stapi/OneDrive/Desktop/GD32VW553/V1_MQTT_OK/GD32VW55X_Wifi_BLE_SDK/GD32VW55x_RELEASE_V1.0.2/MSDK/cloud/alicloud/src/services/linkkit/cm\iotx_cm.c ****     }
  50:C:/Users/stapi/OneDrive/Desktop/GD32VW553/V1_MQTT_OK/GD32VW55X_Wifi_BLE_SDK/GD32VW55x_RELEASE_V1.0.2/MSDK/cloud/alicloud/src/services/linkkit/cm\iotx_cm.c **** 
  51:C:/Users/stapi/OneDrive/Desktop/GD32VW553/V1_MQTT_OK/GD32VW55X_Wifi_BLE_SDK/GD32VW55x_RELEASE_V1.0.2/MSDK/cloud/alicloud/src/services/linkkit/cm\iotx_cm.c ****     if (connection == NULL) {
  52:C:/Users/stapi/OneDrive/Desktop/GD32VW553/V1_MQTT_OK/GD32VW55X_Wifi_BLE_SDK/GD32VW55x_RELEASE_V1.0.2/MSDK/cloud/alicloud/src/services/linkkit/cm\iotx_cm.c ****         CM_ERR("iotx_cm_open_mqtt failed");
  53:C:/Users/stapi/OneDrive/Desktop/GD32VW553/V1_MQTT_OK/GD32VW55X_Wifi_BLE_SDK/GD32VW55x_RELEASE_V1.0.2/MSDK/cloud/alicloud/src/services/linkkit/cm\iotx_cm.c ****         return -1;
  54:C:/Users/stapi/OneDrive/Desktop/GD32VW553/V1_MQTT_OK/GD32VW55X_Wifi_BLE_SDK/GD32VW55x_RELEASE_V1.0.2/MSDK/cloud/alicloud/src/services/linkkit/cm\iotx_cm.c ****     }
  55:C:/Users/stapi/OneDrive/Desktop/GD32VW553/V1_MQTT_OK/GD32VW55X_Wifi_BLE_SDK/GD32VW55x_RELEASE_V1.0.2/MSDK/cloud/alicloud/src/services/linkkit/cm\iotx_cm.c ****     fd = _get_fd(connection);
  56:C:/Users/stapi/OneDrive/Desktop/GD32VW553/V1_MQTT_OK/GD32VW55X_Wifi_BLE_SDK/GD32VW55x_RELEASE_V1.0.2/MSDK/cloud/alicloud/src/services/linkkit/cm\iotx_cm.c ****     if (fd < 0) {
  57:C:/Users/stapi/OneDrive/Desktop/GD32VW553/V1_MQTT_OK/GD32VW55X_Wifi_BLE_SDK/GD32VW55x_RELEASE_V1.0.2/MSDK/cloud/alicloud/src/services/linkkit/cm\iotx_cm.c ****         CM_ERR("get fd failed");
  58:C:/Users/stapi/OneDrive/Desktop/GD32VW553/V1_MQTT_OK/GD32VW55X_Wifi_BLE_SDK/GD32VW55x_RELEASE_V1.0.2/MSDK/cloud/alicloud/src/services/linkkit/cm\iotx_cm.c ****         connection->close_func();
  59:C:/Users/stapi/OneDrive/Desktop/GD32VW553/V1_MQTT_OK/GD32VW55X_Wifi_BLE_SDK/GD32VW55x_RELEASE_V1.0.2/MSDK/cloud/alicloud/src/services/linkkit/cm\iotx_cm.c ****         return -1;
  60:C:/Users/stapi/OneDrive/Desktop/GD32VW553/V1_MQTT_OK/GD32VW55X_Wifi_BLE_SDK/GD32VW55x_RELEASE_V1.0.2/MSDK/cloud/alicloud/src/services/linkkit/cm\iotx_cm.c ****     }
  61:C:/Users/stapi/OneDrive/Desktop/GD32VW553/V1_MQTT_OK/GD32VW55X_Wifi_BLE_SDK/GD32VW55x_RELEASE_V1.0.2/MSDK/cloud/alicloud/src/services/linkkit/cm\iotx_cm.c ****     connection->fd = fd;
  62:C:/Users/stapi/OneDrive/Desktop/GD32VW553/V1_MQTT_OK/GD32VW55X_Wifi_BLE_SDK/GD32VW55x_RELEASE_V1.0.2/MSDK/cloud/alicloud/src/services/linkkit/cm\iotx_cm.c ****     return fd;
  63:C:/Users/stapi/OneDrive/Desktop/GD32VW553/V1_MQTT_OK/GD32VW55X_Wifi_BLE_SDK/GD32VW55x_RELEASE_V1.0.2/MSDK/cloud/alicloud/src/services/linkkit/cm\iotx_cm.c **** }
  64:C:/Users/stapi/OneDrive/Desktop/GD32VW553/V1_MQTT_OK/GD32VW55X_Wifi_BLE_SDK/GD32VW55x_RELEASE_V1.0.2/MSDK/cloud/alicloud/src/services/linkkit/cm\iotx_cm.c **** 
  65:C:/Users/stapi/OneDrive/Desktop/GD32VW553/V1_MQTT_OK/GD32VW55X_Wifi_BLE_SDK/GD32VW55x_RELEASE_V1.0.2/MSDK/cloud/alicloud/src/services/linkkit/cm\iotx_cm.c **** int iotx_cm_connect(int fd, uint32_t timeout)
  66:C:/Users/stapi/OneDrive/Desktop/GD32VW553/V1_MQTT_OK/GD32VW55X_Wifi_BLE_SDK/GD32VW55x_RELEASE_V1.0.2/MSDK/cloud/alicloud/src/services/linkkit/cm\iotx_cm.c **** {
  67:C:/Users/stapi/OneDrive/Desktop/GD32VW553/V1_MQTT_OK/GD32VW55X_Wifi_BLE_SDK/GD32VW55x_RELEASE_V1.0.2/MSDK/cloud/alicloud/src/services/linkkit/cm\iotx_cm.c ****     if (_fd_is_valid(fd) < 0) {
  68:C:/Users/stapi/OneDrive/Desktop/GD32VW553/V1_MQTT_OK/GD32VW55X_Wifi_BLE_SDK/GD32VW55x_RELEASE_V1.0.2/MSDK/cloud/alicloud/src/services/linkkit/cm\iotx_cm.c ****         CM_ERR(ERR_INVALID_PARAMS);
  69:C:/Users/stapi/OneDrive/Desktop/GD32VW553/V1_MQTT_OK/GD32VW55X_Wifi_BLE_SDK/GD32VW55x_RELEASE_V1.0.2/MSDK/cloud/alicloud/src/services/linkkit/cm\iotx_cm.c ****         return -1;
  70:C:/Users/stapi/OneDrive/Desktop/GD32VW553/V1_MQTT_OK/GD32VW55X_Wifi_BLE_SDK/GD32VW55x_RELEASE_V1.0.2/MSDK/cloud/alicloud/src/services/linkkit/cm\iotx_cm.c ****     }
  71:C:/Users/stapi/OneDrive/Desktop/GD32VW553/V1_MQTT_OK/GD32VW55X_Wifi_BLE_SDK/GD32VW55x_RELEASE_V1.0.2/MSDK/cloud/alicloud/src/services/linkkit/cm\iotx_cm.c ****     iotx_cm_connect_fp connect_func;
  72:C:/Users/stapi/OneDrive/Desktop/GD32VW553/V1_MQTT_OK/GD32VW55X_Wifi_BLE_SDK/GD32VW55x_RELEASE_V1.0.2/MSDK/cloud/alicloud/src/services/linkkit/cm\iotx_cm.c ****     HAL_MutexLock(fd_lock);
  73:C:/Users/stapi/OneDrive/Desktop/GD32VW553/V1_MQTT_OK/GD32VW55X_Wifi_BLE_SDK/GD32VW55x_RELEASE_V1.0.2/MSDK/cloud/alicloud/src/services/linkkit/cm\iotx_cm.c ****     connect_func = _cm_fd[fd]->connect_func;
  74:C:/Users/stapi/OneDrive/Desktop/GD32VW553/V1_MQTT_OK/GD32VW55X_Wifi_BLE_SDK/GD32VW55x_RELEASE_V1.0.2/MSDK/cloud/alicloud/src/services/linkkit/cm\iotx_cm.c ****     HAL_MutexUnlock(fd_lock);
  75:C:/Users/stapi/OneDrive/Desktop/GD32VW553/V1_MQTT_OK/GD32VW55X_Wifi_BLE_SDK/GD32VW55x_RELEASE_V1.0.2/MSDK/cloud/alicloud/src/services/linkkit/cm\iotx_cm.c **** 
  76:C:/Users/stapi/OneDrive/Desktop/GD32VW553/V1_MQTT_OK/GD32VW55X_Wifi_BLE_SDK/GD32VW55x_RELEASE_V1.0.2/MSDK/cloud/alicloud/src/services/linkkit/cm\iotx_cm.c ****     iotx_event_post(IOTX_CONN_CLOUD);
  77:C:/Users/stapi/OneDrive/Desktop/GD32VW553/V1_MQTT_OK/GD32VW55X_Wifi_BLE_SDK/GD32VW55x_RELEASE_V1.0.2/MSDK/cloud/alicloud/src/services/linkkit/cm\iotx_cm.c **** 
  78:C:/Users/stapi/OneDrive/Desktop/GD32VW553/V1_MQTT_OK/GD32VW55X_Wifi_BLE_SDK/GD32VW55x_RELEASE_V1.0.2/MSDK/cloud/alicloud/src/services/linkkit/cm\iotx_cm.c ****     int ret = connect_func(timeout);
  79:C:/Users/stapi/OneDrive/Desktop/GD32VW553/V1_MQTT_OK/GD32VW55X_Wifi_BLE_SDK/GD32VW55x_RELEASE_V1.0.2/MSDK/cloud/alicloud/src/services/linkkit/cm\iotx_cm.c **** 
  80:C:/Users/stapi/OneDrive/Desktop/GD32VW553/V1_MQTT_OK/GD32VW55X_Wifi_BLE_SDK/GD32VW55x_RELEASE_V1.0.2/MSDK/cloud/alicloud/src/services/linkkit/cm\iotx_cm.c ****     if (ret == 0) {
  81:C:/Users/stapi/OneDrive/Desktop/GD32VW553/V1_MQTT_OK/GD32VW55X_Wifi_BLE_SDK/GD32VW55x_RELEASE_V1.0.2/MSDK/cloud/alicloud/src/services/linkkit/cm\iotx_cm.c ****         inited_conn_num++;
  82:C:/Users/stapi/OneDrive/Desktop/GD32VW553/V1_MQTT_OK/GD32VW55X_Wifi_BLE_SDK/GD32VW55x_RELEASE_V1.0.2/MSDK/cloud/alicloud/src/services/linkkit/cm\iotx_cm.c ****         if (inited_conn_num == 1) {
  83:C:/Users/stapi/OneDrive/Desktop/GD32VW553/V1_MQTT_OK/GD32VW55X_Wifi_BLE_SDK/GD32VW55x_RELEASE_V1.0.2/MSDK/cloud/alicloud/src/services/linkkit/cm\iotx_cm.c **** 
  84:C:/Users/stapi/OneDrive/Desktop/GD32VW553/V1_MQTT_OK/GD32VW55X_Wifi_BLE_SDK/GD32VW55x_RELEASE_V1.0.2/MSDK/cloud/alicloud/src/services/linkkit/cm\iotx_cm.c **** #if (CONFIG_SDK_THREAD_COST == 1)
  85:C:/Users/stapi/OneDrive/Desktop/GD32VW553/V1_MQTT_OK/GD32VW55X_Wifi_BLE_SDK/GD32VW55x_RELEASE_V1.0.2/MSDK/cloud/alicloud/src/services/linkkit/cm\iotx_cm.c ****             int stack_used;
  86:C:/Users/stapi/OneDrive/Desktop/GD32VW553/V1_MQTT_OK/GD32VW55X_Wifi_BLE_SDK/GD32VW55x_RELEASE_V1.0.2/MSDK/cloud/alicloud/src/services/linkkit/cm\iotx_cm.c ****             hal_os_thread_param_t task_parms = {0};
  87:C:/Users/stapi/OneDrive/Desktop/GD32VW553/V1_MQTT_OK/GD32VW55X_Wifi_BLE_SDK/GD32VW55x_RELEASE_V1.0.2/MSDK/cloud/alicloud/src/services/linkkit/cm\iotx_cm.c ****             task_parms.stack_size = 6144;
  88:C:/Users/stapi/OneDrive/Desktop/GD32VW553/V1_MQTT_OK/GD32VW55X_Wifi_BLE_SDK/GD32VW55x_RELEASE_V1.0.2/MSDK/cloud/alicloud/src/services/linkkit/cm\iotx_cm.c ****             task_parms.name = "cm_yield";
  89:C:/Users/stapi/OneDrive/Desktop/GD32VW553/V1_MQTT_OK/GD32VW55X_Wifi_BLE_SDK/GD32VW55x_RELEASE_V1.0.2/MSDK/cloud/alicloud/src/services/linkkit/cm\iotx_cm.c ****             ret = HAL_ThreadCreate(&yield_thread, _iotx_cm_yield_thread_func, NULL,
  90:C:/Users/stapi/OneDrive/Desktop/GD32VW553/V1_MQTT_OK/GD32VW55X_Wifi_BLE_SDK/GD32VW55x_RELEASE_V1.0.2/MSDK/cloud/alicloud/src/services/linkkit/cm\iotx_cm.c ****                                    &task_parms, &stack_used);
  91:C:/Users/stapi/OneDrive/Desktop/GD32VW553/V1_MQTT_OK/GD32VW55X_Wifi_BLE_SDK/GD32VW55x_RELEASE_V1.0.2/MSDK/cloud/alicloud/src/services/linkkit/cm\iotx_cm.c ****             if (ret < 0) {
  92:C:/Users/stapi/OneDrive/Desktop/GD32VW553/V1_MQTT_OK/GD32VW55X_Wifi_BLE_SDK/GD32VW55x_RELEASE_V1.0.2/MSDK/cloud/alicloud/src/services/linkkit/cm\iotx_cm.c ****                 inited_conn_num--;
  93:C:/Users/stapi/OneDrive/Desktop/GD32VW553/V1_MQTT_OK/GD32VW55X_Wifi_BLE_SDK/GD32VW55x_RELEASE_V1.0.2/MSDK/cloud/alicloud/src/services/linkkit/cm\iotx_cm.c ****             }
  94:C:/Users/stapi/OneDrive/Desktop/GD32VW553/V1_MQTT_OK/GD32VW55X_Wifi_BLE_SDK/GD32VW55x_RELEASE_V1.0.2/MSDK/cloud/alicloud/src/services/linkkit/cm\iotx_cm.c **** #endif
  95:C:/Users/stapi/OneDrive/Desktop/GD32VW553/V1_MQTT_OK/GD32VW55X_Wifi_BLE_SDK/GD32VW55x_RELEASE_V1.0.2/MSDK/cloud/alicloud/src/services/linkkit/cm\iotx_cm.c ****         }
  96:C:/Users/stapi/OneDrive/Desktop/GD32VW553/V1_MQTT_OK/GD32VW55X_Wifi_BLE_SDK/GD32VW55x_RELEASE_V1.0.2/MSDK/cloud/alicloud/src/services/linkkit/cm\iotx_cm.c ****     }
  97:C:/Users/stapi/OneDrive/Desktop/GD32VW553/V1_MQTT_OK/GD32VW55X_Wifi_BLE_SDK/GD32VW55x_RELEASE_V1.0.2/MSDK/cloud/alicloud/src/services/linkkit/cm\iotx_cm.c **** 
  98:C:/Users/stapi/OneDrive/Desktop/GD32VW553/V1_MQTT_OK/GD32VW55X_Wifi_BLE_SDK/GD32VW55x_RELEASE_V1.0.2/MSDK/cloud/alicloud/src/services/linkkit/cm\iotx_cm.c ****     return ret;
  99:C:/Users/stapi/OneDrive/Desktop/GD32VW553/V1_MQTT_OK/GD32VW55X_Wifi_BLE_SDK/GD32VW55x_RELEASE_V1.0.2/MSDK/cloud/alicloud/src/services/linkkit/cm\iotx_cm.c **** }
 100:C:/Users/stapi/OneDrive/Desktop/GD32VW553/V1_MQTT_OK/GD32VW55X_Wifi_BLE_SDK/GD32VW55x_RELEASE_V1.0.2/MSDK/cloud/alicloud/src/services/linkkit/cm\iotx_cm.c **** 
 101:C:/Users/stapi/OneDrive/Desktop/GD32VW553/V1_MQTT_OK/GD32VW55X_Wifi_BLE_SDK/GD32VW55x_RELEASE_V1.0.2/MSDK/cloud/alicloud/src/services/linkkit/cm\iotx_cm.c **** static int _iotx_cm_yield(int fd, unsigned int timeout)
 102:C:/Users/stapi/OneDrive/Desktop/GD32VW553/V1_MQTT_OK/GD32VW55X_Wifi_BLE_SDK/GD32VW55x_RELEASE_V1.0.2/MSDK/cloud/alicloud/src/services/linkkit/cm\iotx_cm.c **** {
 103:C:/Users/stapi/OneDrive/Desktop/GD32VW553/V1_MQTT_OK/GD32VW55X_Wifi_BLE_SDK/GD32VW55x_RELEASE_V1.0.2/MSDK/cloud/alicloud/src/services/linkkit/cm\iotx_cm.c ****     POINTER_SANITY_CHECK(fd_lock, NULL_VALUE_ERROR);
 104:C:/Users/stapi/OneDrive/Desktop/GD32VW553/V1_MQTT_OK/GD32VW55X_Wifi_BLE_SDK/GD32VW55x_RELEASE_V1.0.2/MSDK/cloud/alicloud/src/services/linkkit/cm\iotx_cm.c ****     iotx_cm_yield_fp yield_func;
 105:C:/Users/stapi/OneDrive/Desktop/GD32VW553/V1_MQTT_OK/GD32VW55X_Wifi_BLE_SDK/GD32VW55x_RELEASE_V1.0.2/MSDK/cloud/alicloud/src/services/linkkit/cm\iotx_cm.c **** 
 106:C:/Users/stapi/OneDrive/Desktop/GD32VW553/V1_MQTT_OK/GD32VW55X_Wifi_BLE_SDK/GD32VW55x_RELEASE_V1.0.2/MSDK/cloud/alicloud/src/services/linkkit/cm\iotx_cm.c ****     if (fd == -1) {
 107:C:/Users/stapi/OneDrive/Desktop/GD32VW553/V1_MQTT_OK/GD32VW55X_Wifi_BLE_SDK/GD32VW55x_RELEASE_V1.0.2/MSDK/cloud/alicloud/src/services/linkkit/cm\iotx_cm.c ****         int i;
 108:C:/Users/stapi/OneDrive/Desktop/GD32VW553/V1_MQTT_OK/GD32VW55X_Wifi_BLE_SDK/GD32VW55x_RELEASE_V1.0.2/MSDK/cloud/alicloud/src/services/linkkit/cm\iotx_cm.c ****         for (i = 0; i < CM_MAX_FD_NUM; i++) {
 109:C:/Users/stapi/OneDrive/Desktop/GD32VW553/V1_MQTT_OK/GD32VW55X_Wifi_BLE_SDK/GD32VW55x_RELEASE_V1.0.2/MSDK/cloud/alicloud/src/services/linkkit/cm\iotx_cm.c ****             yield_func = NULL;
 110:C:/Users/stapi/OneDrive/Desktop/GD32VW553/V1_MQTT_OK/GD32VW55X_Wifi_BLE_SDK/GD32VW55x_RELEASE_V1.0.2/MSDK/cloud/alicloud/src/services/linkkit/cm\iotx_cm.c ****             HAL_MutexLock(fd_lock);
 111:C:/Users/stapi/OneDrive/Desktop/GD32VW553/V1_MQTT_OK/GD32VW55X_Wifi_BLE_SDK/GD32VW55x_RELEASE_V1.0.2/MSDK/cloud/alicloud/src/services/linkkit/cm\iotx_cm.c ****             if (_cm_fd[i] != NULL) {
 112:C:/Users/stapi/OneDrive/Desktop/GD32VW553/V1_MQTT_OK/GD32VW55X_Wifi_BLE_SDK/GD32VW55x_RELEASE_V1.0.2/MSDK/cloud/alicloud/src/services/linkkit/cm\iotx_cm.c ****                 yield_func =  _cm_fd[i]->yield_func;
 113:C:/Users/stapi/OneDrive/Desktop/GD32VW553/V1_MQTT_OK/GD32VW55X_Wifi_BLE_SDK/GD32VW55x_RELEASE_V1.0.2/MSDK/cloud/alicloud/src/services/linkkit/cm\iotx_cm.c ****             }
 114:C:/Users/stapi/OneDrive/Desktop/GD32VW553/V1_MQTT_OK/GD32VW55X_Wifi_BLE_SDK/GD32VW55x_RELEASE_V1.0.2/MSDK/cloud/alicloud/src/services/linkkit/cm\iotx_cm.c ****             HAL_MutexUnlock(fd_lock);
 115:C:/Users/stapi/OneDrive/Desktop/GD32VW553/V1_MQTT_OK/GD32VW55X_Wifi_BLE_SDK/GD32VW55x_RELEASE_V1.0.2/MSDK/cloud/alicloud/src/services/linkkit/cm\iotx_cm.c ****             if (yield_func != NULL) {
 116:C:/Users/stapi/OneDrive/Desktop/GD32VW553/V1_MQTT_OK/GD32VW55X_Wifi_BLE_SDK/GD32VW55x_RELEASE_V1.0.2/MSDK/cloud/alicloud/src/services/linkkit/cm\iotx_cm.c ****                 yield_func(timeout);
 117:C:/Users/stapi/OneDrive/Desktop/GD32VW553/V1_MQTT_OK/GD32VW55X_Wifi_BLE_SDK/GD32VW55x_RELEASE_V1.0.2/MSDK/cloud/alicloud/src/services/linkkit/cm\iotx_cm.c ****             }
 118:C:/Users/stapi/OneDrive/Desktop/GD32VW553/V1_MQTT_OK/GD32VW55X_Wifi_BLE_SDK/GD32VW55x_RELEASE_V1.0.2/MSDK/cloud/alicloud/src/services/linkkit/cm\iotx_cm.c ****         }
 119:C:/Users/stapi/OneDrive/Desktop/GD32VW553/V1_MQTT_OK/GD32VW55X_Wifi_BLE_SDK/GD32VW55x_RELEASE_V1.0.2/MSDK/cloud/alicloud/src/services/linkkit/cm\iotx_cm.c ****         return 0;
 120:C:/Users/stapi/OneDrive/Desktop/GD32VW553/V1_MQTT_OK/GD32VW55X_Wifi_BLE_SDK/GD32VW55x_RELEASE_V1.0.2/MSDK/cloud/alicloud/src/services/linkkit/cm\iotx_cm.c ****     }
 121:C:/Users/stapi/OneDrive/Desktop/GD32VW553/V1_MQTT_OK/GD32VW55X_Wifi_BLE_SDK/GD32VW55x_RELEASE_V1.0.2/MSDK/cloud/alicloud/src/services/linkkit/cm\iotx_cm.c **** 
 122:C:/Users/stapi/OneDrive/Desktop/GD32VW553/V1_MQTT_OK/GD32VW55X_Wifi_BLE_SDK/GD32VW55x_RELEASE_V1.0.2/MSDK/cloud/alicloud/src/services/linkkit/cm\iotx_cm.c ****     if (_fd_is_valid(fd) < 0) {
 123:C:/Users/stapi/OneDrive/Desktop/GD32VW553/V1_MQTT_OK/GD32VW55X_Wifi_BLE_SDK/GD32VW55x_RELEASE_V1.0.2/MSDK/cloud/alicloud/src/services/linkkit/cm\iotx_cm.c ****         CM_ERR(ERR_INVALID_PARAMS);
 124:C:/Users/stapi/OneDrive/Desktop/GD32VW553/V1_MQTT_OK/GD32VW55X_Wifi_BLE_SDK/GD32VW55x_RELEASE_V1.0.2/MSDK/cloud/alicloud/src/services/linkkit/cm\iotx_cm.c ****         return -1;
 125:C:/Users/stapi/OneDrive/Desktop/GD32VW553/V1_MQTT_OK/GD32VW55X_Wifi_BLE_SDK/GD32VW55x_RELEASE_V1.0.2/MSDK/cloud/alicloud/src/services/linkkit/cm\iotx_cm.c ****     }
 126:C:/Users/stapi/OneDrive/Desktop/GD32VW553/V1_MQTT_OK/GD32VW55X_Wifi_BLE_SDK/GD32VW55x_RELEASE_V1.0.2/MSDK/cloud/alicloud/src/services/linkkit/cm\iotx_cm.c **** 
 127:C:/Users/stapi/OneDrive/Desktop/GD32VW553/V1_MQTT_OK/GD32VW55X_Wifi_BLE_SDK/GD32VW55x_RELEASE_V1.0.2/MSDK/cloud/alicloud/src/services/linkkit/cm\iotx_cm.c ****     HAL_MutexLock(fd_lock);
 128:C:/Users/stapi/OneDrive/Desktop/GD32VW553/V1_MQTT_OK/GD32VW55X_Wifi_BLE_SDK/GD32VW55x_RELEASE_V1.0.2/MSDK/cloud/alicloud/src/services/linkkit/cm\iotx_cm.c ****     yield_func =  _cm_fd[fd]->yield_func;
 129:C:/Users/stapi/OneDrive/Desktop/GD32VW553/V1_MQTT_OK/GD32VW55X_Wifi_BLE_SDK/GD32VW55x_RELEASE_V1.0.2/MSDK/cloud/alicloud/src/services/linkkit/cm\iotx_cm.c ****     HAL_MutexUnlock(fd_lock);
 130:C:/Users/stapi/OneDrive/Desktop/GD32VW553/V1_MQTT_OK/GD32VW55X_Wifi_BLE_SDK/GD32VW55x_RELEASE_V1.0.2/MSDK/cloud/alicloud/src/services/linkkit/cm\iotx_cm.c ****     return yield_func(timeout);
 131:C:/Users/stapi/OneDrive/Desktop/GD32VW553/V1_MQTT_OK/GD32VW55X_Wifi_BLE_SDK/GD32VW55x_RELEASE_V1.0.2/MSDK/cloud/alicloud/src/services/linkkit/cm\iotx_cm.c **** 
 132:C:/Users/stapi/OneDrive/Desktop/GD32VW553/V1_MQTT_OK/GD32VW55X_Wifi_BLE_SDK/GD32VW55x_RELEASE_V1.0.2/MSDK/cloud/alicloud/src/services/linkkit/cm\iotx_cm.c **** }
 133:C:/Users/stapi/OneDrive/Desktop/GD32VW553/V1_MQTT_OK/GD32VW55X_Wifi_BLE_SDK/GD32VW55x_RELEASE_V1.0.2/MSDK/cloud/alicloud/src/services/linkkit/cm\iotx_cm.c **** #if (CONFIG_SDK_THREAD_COST == 1)
 134:C:/Users/stapi/OneDrive/Desktop/GD32VW553/V1_MQTT_OK/GD32VW55X_Wifi_BLE_SDK/GD32VW55x_RELEASE_V1.0.2/MSDK/cloud/alicloud/src/services/linkkit/cm\iotx_cm.c **** static void *_iotx_cm_yield_thread_func(void *params)
 135:C:/Users/stapi/OneDrive/Desktop/GD32VW553/V1_MQTT_OK/GD32VW55X_Wifi_BLE_SDK/GD32VW55x_RELEASE_V1.0.2/MSDK/cloud/alicloud/src/services/linkkit/cm\iotx_cm.c **** {
 136:C:/Users/stapi/OneDrive/Desktop/GD32VW553/V1_MQTT_OK/GD32VW55X_Wifi_BLE_SDK/GD32VW55x_RELEASE_V1.0.2/MSDK/cloud/alicloud/src/services/linkkit/cm\iotx_cm.c ****     yield_task_leave = 0;
 137:C:/Users/stapi/OneDrive/Desktop/GD32VW553/V1_MQTT_OK/GD32VW55X_Wifi_BLE_SDK/GD32VW55x_RELEASE_V1.0.2/MSDK/cloud/alicloud/src/services/linkkit/cm\iotx_cm.c ****     while (inited_conn_num > 0) {
 138:C:/Users/stapi/OneDrive/Desktop/GD32VW553/V1_MQTT_OK/GD32VW55X_Wifi_BLE_SDK/GD32VW55x_RELEASE_V1.0.2/MSDK/cloud/alicloud/src/services/linkkit/cm\iotx_cm.c ****         _iotx_cm_yield(-1, CM_DEFAULT_YIELD_TIMEOUT);
 139:C:/Users/stapi/OneDrive/Desktop/GD32VW553/V1_MQTT_OK/GD32VW55X_Wifi_BLE_SDK/GD32VW55x_RELEASE_V1.0.2/MSDK/cloud/alicloud/src/services/linkkit/cm\iotx_cm.c ****     }
 140:C:/Users/stapi/OneDrive/Desktop/GD32VW553/V1_MQTT_OK/GD32VW55X_Wifi_BLE_SDK/GD32VW55x_RELEASE_V1.0.2/MSDK/cloud/alicloud/src/services/linkkit/cm\iotx_cm.c ****     yield_task_leave = 1;
 141:C:/Users/stapi/OneDrive/Desktop/GD32VW553/V1_MQTT_OK/GD32VW55X_Wifi_BLE_SDK/GD32VW55x_RELEASE_V1.0.2/MSDK/cloud/alicloud/src/services/linkkit/cm\iotx_cm.c ****     return NULL;
 142:C:/Users/stapi/OneDrive/Desktop/GD32VW553/V1_MQTT_OK/GD32VW55X_Wifi_BLE_SDK/GD32VW55x_RELEASE_V1.0.2/MSDK/cloud/alicloud/src/services/linkkit/cm\iotx_cm.c **** }
 143:C:/Users/stapi/OneDrive/Desktop/GD32VW553/V1_MQTT_OK/GD32VW55X_Wifi_BLE_SDK/GD32VW55x_RELEASE_V1.0.2/MSDK/cloud/alicloud/src/services/linkkit/cm\iotx_cm.c **** #endif
 144:C:/Users/stapi/OneDrive/Desktop/GD32VW553/V1_MQTT_OK/GD32VW55X_Wifi_BLE_SDK/GD32VW55x_RELEASE_V1.0.2/MSDK/cloud/alicloud/src/services/linkkit/cm\iotx_cm.c **** 
 145:C:/Users/stapi/OneDrive/Desktop/GD32VW553/V1_MQTT_OK/GD32VW55X_Wifi_BLE_SDK/GD32VW55x_RELEASE_V1.0.2/MSDK/cloud/alicloud/src/services/linkkit/cm\iotx_cm.c **** int iotx_cm_yield(int fd, unsigned int timeout)
 146:C:/Users/stapi/OneDrive/Desktop/GD32VW553/V1_MQTT_OK/GD32VW55X_Wifi_BLE_SDK/GD32VW55x_RELEASE_V1.0.2/MSDK/cloud/alicloud/src/services/linkkit/cm\iotx_cm.c **** {
 147:C:/Users/stapi/OneDrive/Desktop/GD32VW553/V1_MQTT_OK/GD32VW55X_Wifi_BLE_SDK/GD32VW55x_RELEASE_V1.0.2/MSDK/cloud/alicloud/src/services/linkkit/cm\iotx_cm.c **** #if (CONFIG_SDK_THREAD_COST == 0)
 148:C:/Users/stapi/OneDrive/Desktop/GD32VW553/V1_MQTT_OK/GD32VW55X_Wifi_BLE_SDK/GD32VW55x_RELEASE_V1.0.2/MSDK/cloud/alicloud/src/services/linkkit/cm\iotx_cm.c ****     return _iotx_cm_yield(fd, timeout);
 149:C:/Users/stapi/OneDrive/Desktop/GD32VW553/V1_MQTT_OK/GD32VW55X_Wifi_BLE_SDK/GD32VW55x_RELEASE_V1.0.2/MSDK/cloud/alicloud/src/services/linkkit/cm\iotx_cm.c **** #else
 150:C:/Users/stapi/OneDrive/Desktop/GD32VW553/V1_MQTT_OK/GD32VW55X_Wifi_BLE_SDK/GD32VW55x_RELEASE_V1.0.2/MSDK/cloud/alicloud/src/services/linkkit/cm\iotx_cm.c ****     return 0;
 151:C:/Users/stapi/OneDrive/Desktop/GD32VW553/V1_MQTT_OK/GD32VW55X_Wifi_BLE_SDK/GD32VW55x_RELEASE_V1.0.2/MSDK/cloud/alicloud/src/services/linkkit/cm\iotx_cm.c **** #endif
 152:C:/Users/stapi/OneDrive/Desktop/GD32VW553/V1_MQTT_OK/GD32VW55X_Wifi_BLE_SDK/GD32VW55x_RELEASE_V1.0.2/MSDK/cloud/alicloud/src/services/linkkit/cm\iotx_cm.c **** }
 153:C:/Users/stapi/OneDrive/Desktop/GD32VW553/V1_MQTT_OK/GD32VW55X_Wifi_BLE_SDK/GD32VW55x_RELEASE_V1.0.2/MSDK/cloud/alicloud/src/services/linkkit/cm\iotx_cm.c **** 
 154:C:/Users/stapi/OneDrive/Desktop/GD32VW553/V1_MQTT_OK/GD32VW55X_Wifi_BLE_SDK/GD32VW55x_RELEASE_V1.0.2/MSDK/cloud/alicloud/src/services/linkkit/cm\iotx_cm.c **** 
 155:C:/Users/stapi/OneDrive/Desktop/GD32VW553/V1_MQTT_OK/GD32VW55X_Wifi_BLE_SDK/GD32VW55x_RELEASE_V1.0.2/MSDK/cloud/alicloud/src/services/linkkit/cm\iotx_cm.c **** int iotx_cm_sub(int fd, iotx_cm_ext_params_t *ext, const char *topic,
 156:C:/Users/stapi/OneDrive/Desktop/GD32VW553/V1_MQTT_OK/GD32VW55X_Wifi_BLE_SDK/GD32VW55x_RELEASE_V1.0.2/MSDK/cloud/alicloud/src/services/linkkit/cm\iotx_cm.c ****                 iotx_cm_data_handle_cb topic_handle_func, void *pcontext)
 157:C:/Users/stapi/OneDrive/Desktop/GD32VW553/V1_MQTT_OK/GD32VW55X_Wifi_BLE_SDK/GD32VW55x_RELEASE_V1.0.2/MSDK/cloud/alicloud/src/services/linkkit/cm\iotx_cm.c **** {
 158:C:/Users/stapi/OneDrive/Desktop/GD32VW553/V1_MQTT_OK/GD32VW55X_Wifi_BLE_SDK/GD32VW55x_RELEASE_V1.0.2/MSDK/cloud/alicloud/src/services/linkkit/cm\iotx_cm.c ****     if (_fd_is_valid(fd) < 0) {
 159:C:/Users/stapi/OneDrive/Desktop/GD32VW553/V1_MQTT_OK/GD32VW55X_Wifi_BLE_SDK/GD32VW55x_RELEASE_V1.0.2/MSDK/cloud/alicloud/src/services/linkkit/cm\iotx_cm.c ****         CM_ERR(ERR_INVALID_PARAMS);
 160:C:/Users/stapi/OneDrive/Desktop/GD32VW553/V1_MQTT_OK/GD32VW55X_Wifi_BLE_SDK/GD32VW55x_RELEASE_V1.0.2/MSDK/cloud/alicloud/src/services/linkkit/cm\iotx_cm.c ****         return -1;
 161:C:/Users/stapi/OneDrive/Desktop/GD32VW553/V1_MQTT_OK/GD32VW55X_Wifi_BLE_SDK/GD32VW55x_RELEASE_V1.0.2/MSDK/cloud/alicloud/src/services/linkkit/cm\iotx_cm.c ****     }
 162:C:/Users/stapi/OneDrive/Desktop/GD32VW553/V1_MQTT_OK/GD32VW55X_Wifi_BLE_SDK/GD32VW55x_RELEASE_V1.0.2/MSDK/cloud/alicloud/src/services/linkkit/cm\iotx_cm.c **** 
 163:C:/Users/stapi/OneDrive/Desktop/GD32VW553/V1_MQTT_OK/GD32VW55X_Wifi_BLE_SDK/GD32VW55x_RELEASE_V1.0.2/MSDK/cloud/alicloud/src/services/linkkit/cm\iotx_cm.c ****     iotx_cm_sub_fp sub_func;
 164:C:/Users/stapi/OneDrive/Desktop/GD32VW553/V1_MQTT_OK/GD32VW55X_Wifi_BLE_SDK/GD32VW55x_RELEASE_V1.0.2/MSDK/cloud/alicloud/src/services/linkkit/cm\iotx_cm.c ****     HAL_MutexLock(fd_lock);
 165:C:/Users/stapi/OneDrive/Desktop/GD32VW553/V1_MQTT_OK/GD32VW55X_Wifi_BLE_SDK/GD32VW55x_RELEASE_V1.0.2/MSDK/cloud/alicloud/src/services/linkkit/cm\iotx_cm.c ****     sub_func =  _cm_fd[fd]->sub_func;
 166:C:/Users/stapi/OneDrive/Desktop/GD32VW553/V1_MQTT_OK/GD32VW55X_Wifi_BLE_SDK/GD32VW55x_RELEASE_V1.0.2/MSDK/cloud/alicloud/src/services/linkkit/cm\iotx_cm.c ****     HAL_MutexUnlock(fd_lock);
 167:C:/Users/stapi/OneDrive/Desktop/GD32VW553/V1_MQTT_OK/GD32VW55X_Wifi_BLE_SDK/GD32VW55x_RELEASE_V1.0.2/MSDK/cloud/alicloud/src/services/linkkit/cm\iotx_cm.c ****     return sub_func(ext, topic, topic_handle_func, pcontext);
 168:C:/Users/stapi/OneDrive/Desktop/GD32VW553/V1_MQTT_OK/GD32VW55X_Wifi_BLE_SDK/GD32VW55x_RELEASE_V1.0.2/MSDK/cloud/alicloud/src/services/linkkit/cm\iotx_cm.c **** }
 169:C:/Users/stapi/OneDrive/Desktop/GD32VW553/V1_MQTT_OK/GD32VW55X_Wifi_BLE_SDK/GD32VW55x_RELEASE_V1.0.2/MSDK/cloud/alicloud/src/services/linkkit/cm\iotx_cm.c **** 
 170:C:/Users/stapi/OneDrive/Desktop/GD32VW553/V1_MQTT_OK/GD32VW55X_Wifi_BLE_SDK/GD32VW55x_RELEASE_V1.0.2/MSDK/cloud/alicloud/src/services/linkkit/cm\iotx_cm.c **** int iotx_cm_unsub(int fd, const char *topic)
 171:C:/Users/stapi/OneDrive/Desktop/GD32VW553/V1_MQTT_OK/GD32VW55X_Wifi_BLE_SDK/GD32VW55x_RELEASE_V1.0.2/MSDK/cloud/alicloud/src/services/linkkit/cm\iotx_cm.c **** {
 172:C:/Users/stapi/OneDrive/Desktop/GD32VW553/V1_MQTT_OK/GD32VW55X_Wifi_BLE_SDK/GD32VW55x_RELEASE_V1.0.2/MSDK/cloud/alicloud/src/services/linkkit/cm\iotx_cm.c ****     if (_fd_is_valid(fd) < 0) {
 173:C:/Users/stapi/OneDrive/Desktop/GD32VW553/V1_MQTT_OK/GD32VW55X_Wifi_BLE_SDK/GD32VW55x_RELEASE_V1.0.2/MSDK/cloud/alicloud/src/services/linkkit/cm\iotx_cm.c ****         CM_ERR(ERR_INVALID_PARAMS);
 174:C:/Users/stapi/OneDrive/Desktop/GD32VW553/V1_MQTT_OK/GD32VW55X_Wifi_BLE_SDK/GD32VW55x_RELEASE_V1.0.2/MSDK/cloud/alicloud/src/services/linkkit/cm\iotx_cm.c ****         return -1;
 175:C:/Users/stapi/OneDrive/Desktop/GD32VW553/V1_MQTT_OK/GD32VW55X_Wifi_BLE_SDK/GD32VW55x_RELEASE_V1.0.2/MSDK/cloud/alicloud/src/services/linkkit/cm\iotx_cm.c ****     }
 176:C:/Users/stapi/OneDrive/Desktop/GD32VW553/V1_MQTT_OK/GD32VW55X_Wifi_BLE_SDK/GD32VW55x_RELEASE_V1.0.2/MSDK/cloud/alicloud/src/services/linkkit/cm\iotx_cm.c **** 
 177:C:/Users/stapi/OneDrive/Desktop/GD32VW553/V1_MQTT_OK/GD32VW55X_Wifi_BLE_SDK/GD32VW55x_RELEASE_V1.0.2/MSDK/cloud/alicloud/src/services/linkkit/cm\iotx_cm.c ****     iotx_cm_unsub_fp unsub_func;
 178:C:/Users/stapi/OneDrive/Desktop/GD32VW553/V1_MQTT_OK/GD32VW55X_Wifi_BLE_SDK/GD32VW55x_RELEASE_V1.0.2/MSDK/cloud/alicloud/src/services/linkkit/cm\iotx_cm.c ****     HAL_MutexLock(fd_lock);
 179:C:/Users/stapi/OneDrive/Desktop/GD32VW553/V1_MQTT_OK/GD32VW55X_Wifi_BLE_SDK/GD32VW55x_RELEASE_V1.0.2/MSDK/cloud/alicloud/src/services/linkkit/cm\iotx_cm.c ****     unsub_func =  _cm_fd[fd]->unsub_func;
 180:C:/Users/stapi/OneDrive/Desktop/GD32VW553/V1_MQTT_OK/GD32VW55X_Wifi_BLE_SDK/GD32VW55x_RELEASE_V1.0.2/MSDK/cloud/alicloud/src/services/linkkit/cm\iotx_cm.c ****     HAL_MutexUnlock(fd_lock);
 181:C:/Users/stapi/OneDrive/Desktop/GD32VW553/V1_MQTT_OK/GD32VW55X_Wifi_BLE_SDK/GD32VW55x_RELEASE_V1.0.2/MSDK/cloud/alicloud/src/services/linkkit/cm\iotx_cm.c ****     return unsub_func(topic);
 182:C:/Users/stapi/OneDrive/Desktop/GD32VW553/V1_MQTT_OK/GD32VW55X_Wifi_BLE_SDK/GD32VW55x_RELEASE_V1.0.2/MSDK/cloud/alicloud/src/services/linkkit/cm\iotx_cm.c **** }
 183:C:/Users/stapi/OneDrive/Desktop/GD32VW553/V1_MQTT_OK/GD32VW55X_Wifi_BLE_SDK/GD32VW55x_RELEASE_V1.0.2/MSDK/cloud/alicloud/src/services/linkkit/cm\iotx_cm.c **** 
 184:C:/Users/stapi/OneDrive/Desktop/GD32VW553/V1_MQTT_OK/GD32VW55X_Wifi_BLE_SDK/GD32VW55x_RELEASE_V1.0.2/MSDK/cloud/alicloud/src/services/linkkit/cm\iotx_cm.c **** 
 185:C:/Users/stapi/OneDrive/Desktop/GD32VW553/V1_MQTT_OK/GD32VW55X_Wifi_BLE_SDK/GD32VW55x_RELEASE_V1.0.2/MSDK/cloud/alicloud/src/services/linkkit/cm\iotx_cm.c **** 
 186:C:/Users/stapi/OneDrive/Desktop/GD32VW553/V1_MQTT_OK/GD32VW55X_Wifi_BLE_SDK/GD32VW55x_RELEASE_V1.0.2/MSDK/cloud/alicloud/src/services/linkkit/cm\iotx_cm.c **** int iotx_cm_pub(int fd, iotx_cm_ext_params_t *ext, const char *topic, const char *payload, unsigned
 187:C:/Users/stapi/OneDrive/Desktop/GD32VW553/V1_MQTT_OK/GD32VW55X_Wifi_BLE_SDK/GD32VW55x_RELEASE_V1.0.2/MSDK/cloud/alicloud/src/services/linkkit/cm\iotx_cm.c **** {
 188:C:/Users/stapi/OneDrive/Desktop/GD32VW553/V1_MQTT_OK/GD32VW55X_Wifi_BLE_SDK/GD32VW55x_RELEASE_V1.0.2/MSDK/cloud/alicloud/src/services/linkkit/cm\iotx_cm.c ****     if (_fd_is_valid(fd) < 0) {
 189:C:/Users/stapi/OneDrive/Desktop/GD32VW553/V1_MQTT_OK/GD32VW55X_Wifi_BLE_SDK/GD32VW55x_RELEASE_V1.0.2/MSDK/cloud/alicloud/src/services/linkkit/cm\iotx_cm.c ****         CM_ERR(ERR_INVALID_PARAMS);
 190:C:/Users/stapi/OneDrive/Desktop/GD32VW553/V1_MQTT_OK/GD32VW55X_Wifi_BLE_SDK/GD32VW55x_RELEASE_V1.0.2/MSDK/cloud/alicloud/src/services/linkkit/cm\iotx_cm.c ****         return -1;
 191:C:/Users/stapi/OneDrive/Desktop/GD32VW553/V1_MQTT_OK/GD32VW55X_Wifi_BLE_SDK/GD32VW55x_RELEASE_V1.0.2/MSDK/cloud/alicloud/src/services/linkkit/cm\iotx_cm.c ****     }
 192:C:/Users/stapi/OneDrive/Desktop/GD32VW553/V1_MQTT_OK/GD32VW55X_Wifi_BLE_SDK/GD32VW55x_RELEASE_V1.0.2/MSDK/cloud/alicloud/src/services/linkkit/cm\iotx_cm.c **** 
 193:C:/Users/stapi/OneDrive/Desktop/GD32VW553/V1_MQTT_OK/GD32VW55X_Wifi_BLE_SDK/GD32VW55x_RELEASE_V1.0.2/MSDK/cloud/alicloud/src/services/linkkit/cm\iotx_cm.c ****     iotx_cm_pub_fp pub_func;
 194:C:/Users/stapi/OneDrive/Desktop/GD32VW553/V1_MQTT_OK/GD32VW55X_Wifi_BLE_SDK/GD32VW55x_RELEASE_V1.0.2/MSDK/cloud/alicloud/src/services/linkkit/cm\iotx_cm.c ****     HAL_MutexLock(fd_lock);
 195:C:/Users/stapi/OneDrive/Desktop/GD32VW553/V1_MQTT_OK/GD32VW55X_Wifi_BLE_SDK/GD32VW55x_RELEASE_V1.0.2/MSDK/cloud/alicloud/src/services/linkkit/cm\iotx_cm.c ****     pub_func =  _cm_fd[fd]->pub_func;
 196:C:/Users/stapi/OneDrive/Desktop/GD32VW553/V1_MQTT_OK/GD32VW55X_Wifi_BLE_SDK/GD32VW55x_RELEASE_V1.0.2/MSDK/cloud/alicloud/src/services/linkkit/cm\iotx_cm.c ****     HAL_MutexUnlock(fd_lock);
 197:C:/Users/stapi/OneDrive/Desktop/GD32VW553/V1_MQTT_OK/GD32VW55X_Wifi_BLE_SDK/GD32VW55x_RELEASE_V1.0.2/MSDK/cloud/alicloud/src/services/linkkit/cm\iotx_cm.c ****     return pub_func(ext, topic, payload, payload_len);
 198:C:/Users/stapi/OneDrive/Desktop/GD32VW553/V1_MQTT_OK/GD32VW55X_Wifi_BLE_SDK/GD32VW55x_RELEASE_V1.0.2/MSDK/cloud/alicloud/src/services/linkkit/cm\iotx_cm.c **** }
 199:C:/Users/stapi/OneDrive/Desktop/GD32VW553/V1_MQTT_OK/GD32VW55X_Wifi_BLE_SDK/GD32VW55x_RELEASE_V1.0.2/MSDK/cloud/alicloud/src/services/linkkit/cm\iotx_cm.c **** 
 200:C:/Users/stapi/OneDrive/Desktop/GD32VW553/V1_MQTT_OK/GD32VW55X_Wifi_BLE_SDK/GD32VW55x_RELEASE_V1.0.2/MSDK/cloud/alicloud/src/services/linkkit/cm\iotx_cm.c **** int iotx_cm_close(int fd)
 201:C:/Users/stapi/OneDrive/Desktop/GD32VW553/V1_MQTT_OK/GD32VW55X_Wifi_BLE_SDK/GD32VW55x_RELEASE_V1.0.2/MSDK/cloud/alicloud/src/services/linkkit/cm\iotx_cm.c **** {
 202:C:/Users/stapi/OneDrive/Desktop/GD32VW553/V1_MQTT_OK/GD32VW55X_Wifi_BLE_SDK/GD32VW55x_RELEASE_V1.0.2/MSDK/cloud/alicloud/src/services/linkkit/cm\iotx_cm.c ****     if (_fd_is_valid(fd) < 0) {
 203:C:/Users/stapi/OneDrive/Desktop/GD32VW553/V1_MQTT_OK/GD32VW55X_Wifi_BLE_SDK/GD32VW55x_RELEASE_V1.0.2/MSDK/cloud/alicloud/src/services/linkkit/cm\iotx_cm.c ****         CM_ERR(ERR_INVALID_PARAMS);
 204:C:/Users/stapi/OneDrive/Desktop/GD32VW553/V1_MQTT_OK/GD32VW55X_Wifi_BLE_SDK/GD32VW55x_RELEASE_V1.0.2/MSDK/cloud/alicloud/src/services/linkkit/cm\iotx_cm.c ****         return -1;
 205:C:/Users/stapi/OneDrive/Desktop/GD32VW553/V1_MQTT_OK/GD32VW55X_Wifi_BLE_SDK/GD32VW55x_RELEASE_V1.0.2/MSDK/cloud/alicloud/src/services/linkkit/cm\iotx_cm.c ****     }
 206:C:/Users/stapi/OneDrive/Desktop/GD32VW553/V1_MQTT_OK/GD32VW55X_Wifi_BLE_SDK/GD32VW55x_RELEASE_V1.0.2/MSDK/cloud/alicloud/src/services/linkkit/cm\iotx_cm.c **** 
 207:C:/Users/stapi/OneDrive/Desktop/GD32VW553/V1_MQTT_OK/GD32VW55X_Wifi_BLE_SDK/GD32VW55x_RELEASE_V1.0.2/MSDK/cloud/alicloud/src/services/linkkit/cm\iotx_cm.c ****     if (inited_conn_num > 0) {
 208:C:/Users/stapi/OneDrive/Desktop/GD32VW553/V1_MQTT_OK/GD32VW55X_Wifi_BLE_SDK/GD32VW55x_RELEASE_V1.0.2/MSDK/cloud/alicloud/src/services/linkkit/cm\iotx_cm.c ****         inited_conn_num--;
 209:C:/Users/stapi/OneDrive/Desktop/GD32VW553/V1_MQTT_OK/GD32VW55X_Wifi_BLE_SDK/GD32VW55x_RELEASE_V1.0.2/MSDK/cloud/alicloud/src/services/linkkit/cm\iotx_cm.c ****     }
 210:C:/Users/stapi/OneDrive/Desktop/GD32VW553/V1_MQTT_OK/GD32VW55X_Wifi_BLE_SDK/GD32VW55x_RELEASE_V1.0.2/MSDK/cloud/alicloud/src/services/linkkit/cm\iotx_cm.c **** 
 211:C:/Users/stapi/OneDrive/Desktop/GD32VW553/V1_MQTT_OK/GD32VW55X_Wifi_BLE_SDK/GD32VW55x_RELEASE_V1.0.2/MSDK/cloud/alicloud/src/services/linkkit/cm\iotx_cm.c ****     if (inited_conn_num == 0) {
 212:C:/Users/stapi/OneDrive/Desktop/GD32VW553/V1_MQTT_OK/GD32VW55X_Wifi_BLE_SDK/GD32VW55x_RELEASE_V1.0.2/MSDK/cloud/alicloud/src/services/linkkit/cm\iotx_cm.c **** #if (CONFIG_SDK_THREAD_COST == 1)
 213:C:/Users/stapi/OneDrive/Desktop/GD32VW553/V1_MQTT_OK/GD32VW55X_Wifi_BLE_SDK/GD32VW55x_RELEASE_V1.0.2/MSDK/cloud/alicloud/src/services/linkkit/cm\iotx_cm.c ****         while (!yield_task_leave) {
 214:C:/Users/stapi/OneDrive/Desktop/GD32VW553/V1_MQTT_OK/GD32VW55X_Wifi_BLE_SDK/GD32VW55x_RELEASE_V1.0.2/MSDK/cloud/alicloud/src/services/linkkit/cm\iotx_cm.c ****             HAL_SleepMs(10);
 215:C:/Users/stapi/OneDrive/Desktop/GD32VW553/V1_MQTT_OK/GD32VW55X_Wifi_BLE_SDK/GD32VW55x_RELEASE_V1.0.2/MSDK/cloud/alicloud/src/services/linkkit/cm\iotx_cm.c ****         }
 216:C:/Users/stapi/OneDrive/Desktop/GD32VW553/V1_MQTT_OK/GD32VW55X_Wifi_BLE_SDK/GD32VW55x_RELEASE_V1.0.2/MSDK/cloud/alicloud/src/services/linkkit/cm\iotx_cm.c ****         if (yield_thread != NULL) {
 217:C:/Users/stapi/OneDrive/Desktop/GD32VW553/V1_MQTT_OK/GD32VW55X_Wifi_BLE_SDK/GD32VW55x_RELEASE_V1.0.2/MSDK/cloud/alicloud/src/services/linkkit/cm\iotx_cm.c ****             HAL_ThreadDelete(yield_thread);
 218:C:/Users/stapi/OneDrive/Desktop/GD32VW553/V1_MQTT_OK/GD32VW55X_Wifi_BLE_SDK/GD32VW55x_RELEASE_V1.0.2/MSDK/cloud/alicloud/src/services/linkkit/cm\iotx_cm.c ****         }
 219:C:/Users/stapi/OneDrive/Desktop/GD32VW553/V1_MQTT_OK/GD32VW55X_Wifi_BLE_SDK/GD32VW55x_RELEASE_V1.0.2/MSDK/cloud/alicloud/src/services/linkkit/cm\iotx_cm.c **** #endif
 220:C:/Users/stapi/OneDrive/Desktop/GD32VW553/V1_MQTT_OK/GD32VW55X_Wifi_BLE_SDK/GD32VW55x_RELEASE_V1.0.2/MSDK/cloud/alicloud/src/services/linkkit/cm\iotx_cm.c ****     }
 221:C:/Users/stapi/OneDrive/Desktop/GD32VW553/V1_MQTT_OK/GD32VW55X_Wifi_BLE_SDK/GD32VW55x_RELEASE_V1.0.2/MSDK/cloud/alicloud/src/services/linkkit/cm\iotx_cm.c **** 
 222:C:/Users/stapi/OneDrive/Desktop/GD32VW553/V1_MQTT_OK/GD32VW55X_Wifi_BLE_SDK/GD32VW55x_RELEASE_V1.0.2/MSDK/cloud/alicloud/src/services/linkkit/cm\iotx_cm.c ****     iotx_cm_close_fp close_func;
 223:C:/Users/stapi/OneDrive/Desktop/GD32VW553/V1_MQTT_OK/GD32VW55X_Wifi_BLE_SDK/GD32VW55x_RELEASE_V1.0.2/MSDK/cloud/alicloud/src/services/linkkit/cm\iotx_cm.c ****     HAL_MutexLock(fd_lock);
 224:C:/Users/stapi/OneDrive/Desktop/GD32VW553/V1_MQTT_OK/GD32VW55X_Wifi_BLE_SDK/GD32VW55x_RELEASE_V1.0.2/MSDK/cloud/alicloud/src/services/linkkit/cm\iotx_cm.c ****     close_func = _cm_fd[fd]->close_func;
 225:C:/Users/stapi/OneDrive/Desktop/GD32VW553/V1_MQTT_OK/GD32VW55X_Wifi_BLE_SDK/GD32VW55x_RELEASE_V1.0.2/MSDK/cloud/alicloud/src/services/linkkit/cm\iotx_cm.c ****     HAL_MutexUnlock(fd_lock);
 226:C:/Users/stapi/OneDrive/Desktop/GD32VW553/V1_MQTT_OK/GD32VW55X_Wifi_BLE_SDK/GD32VW55x_RELEASE_V1.0.2/MSDK/cloud/alicloud/src/services/linkkit/cm\iotx_cm.c ****     if (close_func == NULL || close_func() != 0) {
 227:C:/Users/stapi/OneDrive/Desktop/GD32VW553/V1_MQTT_OK/GD32VW55X_Wifi_BLE_SDK/GD32VW55x_RELEASE_V1.0.2/MSDK/cloud/alicloud/src/services/linkkit/cm\iotx_cm.c ****         return -1;
 228:C:/Users/stapi/OneDrive/Desktop/GD32VW553/V1_MQTT_OK/GD32VW55X_Wifi_BLE_SDK/GD32VW55x_RELEASE_V1.0.2/MSDK/cloud/alicloud/src/services/linkkit/cm\iotx_cm.c ****     }
 229:C:/Users/stapi/OneDrive/Desktop/GD32VW553/V1_MQTT_OK/GD32VW55X_Wifi_BLE_SDK/GD32VW55x_RELEASE_V1.0.2/MSDK/cloud/alicloud/src/services/linkkit/cm\iotx_cm.c ****     if (_recycle_fd(fd) != 0) {
 230:C:/Users/stapi/OneDrive/Desktop/GD32VW553/V1_MQTT_OK/GD32VW55X_Wifi_BLE_SDK/GD32VW55x_RELEASE_V1.0.2/MSDK/cloud/alicloud/src/services/linkkit/cm\iotx_cm.c ****         return -1;
 231:C:/Users/stapi/OneDrive/Desktop/GD32VW553/V1_MQTT_OK/GD32VW55X_Wifi_BLE_SDK/GD32VW55x_RELEASE_V1.0.2/MSDK/cloud/alicloud/src/services/linkkit/cm\iotx_cm.c ****     }
 232:C:/Users/stapi/OneDrive/Desktop/GD32VW553/V1_MQTT_OK/GD32VW55X_Wifi_BLE_SDK/GD32VW55x_RELEASE_V1.0.2/MSDK/cloud/alicloud/src/services/linkkit/cm\iotx_cm.c **** 
 233:C:/Users/stapi/OneDrive/Desktop/GD32VW553/V1_MQTT_OK/GD32VW55X_Wifi_BLE_SDK/GD32VW55x_RELEASE_V1.0.2/MSDK/cloud/alicloud/src/services/linkkit/cm\iotx_cm.c ****     if (inited_conn_num == 0) {
 234:C:/Users/stapi/OneDrive/Desktop/GD32VW553/V1_MQTT_OK/GD32VW55X_Wifi_BLE_SDK/GD32VW55x_RELEASE_V1.0.2/MSDK/cloud/alicloud/src/services/linkkit/cm\iotx_cm.c ****         if (fd_lock != NULL) {
 235:C:/Users/stapi/OneDrive/Desktop/GD32VW553/V1_MQTT_OK/GD32VW55X_Wifi_BLE_SDK/GD32VW55x_RELEASE_V1.0.2/MSDK/cloud/alicloud/src/services/linkkit/cm\iotx_cm.c ****             HAL_MutexDestroy(fd_lock);
 236:C:/Users/stapi/OneDrive/Desktop/GD32VW553/V1_MQTT_OK/GD32VW55X_Wifi_BLE_SDK/GD32VW55x_RELEASE_V1.0.2/MSDK/cloud/alicloud/src/services/linkkit/cm\iotx_cm.c ****             fd_lock = NULL;
 237:C:/Users/stapi/OneDrive/Desktop/GD32VW553/V1_MQTT_OK/GD32VW55X_Wifi_BLE_SDK/GD32VW55x_RELEASE_V1.0.2/MSDK/cloud/alicloud/src/services/linkkit/cm\iotx_cm.c ****         }
 238:C:/Users/stapi/OneDrive/Desktop/GD32VW553/V1_MQTT_OK/GD32VW55X_Wifi_BLE_SDK/GD32VW55x_RELEASE_V1.0.2/MSDK/cloud/alicloud/src/services/linkkit/cm\iotx_cm.c ****     }
 239:C:/Users/stapi/OneDrive/Desktop/GD32VW553/V1_MQTT_OK/GD32VW55X_Wifi_BLE_SDK/GD32VW55x_RELEASE_V1.0.2/MSDK/cloud/alicloud/src/services/linkkit/cm\iotx_cm.c **** 
 240:C:/Users/stapi/OneDrive/Desktop/GD32VW553/V1_MQTT_OK/GD32VW55X_Wifi_BLE_SDK/GD32VW55x_RELEASE_V1.0.2/MSDK/cloud/alicloud/src/services/linkkit/cm\iotx_cm.c ****     return 0;
 241:C:/Users/stapi/OneDrive/Desktop/GD32VW553/V1_MQTT_OK/GD32VW55X_Wifi_BLE_SDK/GD32VW55x_RELEASE_V1.0.2/MSDK/cloud/alicloud/src/services/linkkit/cm\iotx_cm.c **** }
 242:C:/Users/stapi/OneDrive/Desktop/GD32VW553/V1_MQTT_OK/GD32VW55X_Wifi_BLE_SDK/GD32VW55x_RELEASE_V1.0.2/MSDK/cloud/alicloud/src/services/linkkit/cm\iotx_cm.c **** 
 243:C:/Users/stapi/OneDrive/Desktop/GD32VW553/V1_MQTT_OK/GD32VW55X_Wifi_BLE_SDK/GD32VW55x_RELEASE_V1.0.2/MSDK/cloud/alicloud/src/services/linkkit/cm\iotx_cm.c **** 
 244:C:/Users/stapi/OneDrive/Desktop/GD32VW553/V1_MQTT_OK/GD32VW55X_Wifi_BLE_SDK/GD32VW55x_RELEASE_V1.0.2/MSDK/cloud/alicloud/src/services/linkkit/cm\iotx_cm.c **** static int inline _fd_is_valid(int fd)
 245:C:/Users/stapi/OneDrive/Desktop/GD32VW553/V1_MQTT_OK/GD32VW55X_Wifi_BLE_SDK/GD32VW55x_RELEASE_V1.0.2/MSDK/cloud/alicloud/src/services/linkkit/cm\iotx_cm.c **** {
  28              		.loc 1 245 1
  29              		.cfi_startproc
  30              	.LVL0:
  31 0000 17030000 		call	t0,__riscv_save_3
  31      E7020300 
  32              		.cfi_offset 18, -16
  33              		.cfi_offset 9, -12
  34              		.cfi_offset 8, -8
  35              		.cfi_offset 1, -4
  36              		.cfi_def_cfa_offset 16
 246:C:/Users/stapi/OneDrive/Desktop/GD32VW553/V1_MQTT_OK/GD32VW55X_Wifi_BLE_SDK/GD32VW55x_RELEASE_V1.0.2/MSDK/cloud/alicloud/src/services/linkkit/cm\iotx_cm.c ****     POINTER_SANITY_CHECK(fd_lock, NULL_VALUE_ERROR);
  37              		.loc 1 246 5
  38              		.loc 1 246 5
  39 0008 B7070000 		lui	a5,%hi(.LANCHOR0)
  40 000c 13840700 		addi	s0,a5,%lo(.LANCHOR0)
 245:C:/Users/stapi/OneDrive/Desktop/GD32VW553/V1_MQTT_OK/GD32VW55X_Wifi_BLE_SDK/GD32VW55x_RELEASE_V1.0.2/MSDK/cloud/alicloud/src/services/linkkit/cm\iotx_cm.c ****     POINTER_SANITY_CHECK(fd_lock, NULL_VALUE_ERROR);
  41              		.loc 1 245 1 is_stmt 0
  42 0010 AA84     		mv	s1,a0
  43              		.loc 1 246 5
  44 0012 0840     		lw	a0,0(s0)
  45              	.LVL1:
  46 0014 21E5     		bne	a0,zero,.L2
  47              	.LVL2:
  48              	.LBB4:
  49              	.LBB5:
  50              		.loc 1 246 5 is_stmt 1
  51              		.loc 1 246 5
  52 0016 37050000 		lui	a0,%hi(.LC0)
  53 001a 13050500 		addi	a0,a0,%lo(.LC0)
  54 001e 97000000 		call	HAL_Printf
  54      E7800000 
  55              	.LVL3:
  56              		.loc 1 246 5
  57 0026 1040     		lw	a2,0(s0)
  58 0028 B7050000 		lui	a1,%hi(.LC1)
  59 002c 37050000 		lui	a0,%hi(.LC2)
  60 0030 93850500 		addi	a1,a1,%lo(.LC1)
  61 0034 13050500 		addi	a0,a0,%lo(.LC2)
  62 0038 97000000 		call	HAL_Printf
  62      E7800000 
  63              	.LVL4:
  64              		.loc 1 246 5
  65 0040 37050000 		lui	a0,%hi(.LC3)
  66 0044 13050500 		addi	a0,a0,%lo(.LC3)
  67 0048 97000000 		call	HAL_Printf
  67      E7800000 
  68              	.LVL5:
  69              		.loc 1 246 5
  70              		.loc 1 246 5
  71 0050 7954     		li	s0,-2
  72              	.LVL6:
  73              	.L1:
  74              	.LBE5:
  75              	.LBE4:
 247:C:/Users/stapi/OneDrive/Desktop/GD32VW553/V1_MQTT_OK/GD32VW55X_Wifi_BLE_SDK/GD32VW55x_RELEASE_V1.0.2/MSDK/cloud/alicloud/src/services/linkkit/cm\iotx_cm.c ****     HAL_MutexLock(fd_lock);
 248:C:/Users/stapi/OneDrive/Desktop/GD32VW553/V1_MQTT_OK/GD32VW55X_Wifi_BLE_SDK/GD32VW55x_RELEASE_V1.0.2/MSDK/cloud/alicloud/src/services/linkkit/cm\iotx_cm.c ****     int ret = (fd >= 0 && fd < CM_MAX_FD_NUM && _cm_fd[fd] != NULL) ? 0 : -1;
 249:C:/Users/stapi/OneDrive/Desktop/GD32VW553/V1_MQTT_OK/GD32VW55X_Wifi_BLE_SDK/GD32VW55x_RELEASE_V1.0.2/MSDK/cloud/alicloud/src/services/linkkit/cm\iotx_cm.c ****     HAL_MutexUnlock(fd_lock);
 250:C:/Users/stapi/OneDrive/Desktop/GD32VW553/V1_MQTT_OK/GD32VW55X_Wifi_BLE_SDK/GD32VW55x_RELEASE_V1.0.2/MSDK/cloud/alicloud/src/services/linkkit/cm\iotx_cm.c ****     return ret;
 251:C:/Users/stapi/OneDrive/Desktop/GD32VW553/V1_MQTT_OK/GD32VW55X_Wifi_BLE_SDK/GD32VW55x_RELEASE_V1.0.2/MSDK/cloud/alicloud/src/services/linkkit/cm\iotx_cm.c **** }
  76              		.loc 1 251 1 is_stmt 0
  77 0052 2285     		mv	a0,s0
  78 0054 17030000 		tail	__riscv_restore_3
  78      67000300 
  79              		.cfi_remember_state
  80              		.cfi_restore 18
  81              		.cfi_restore 9
  82              		.cfi_restore 8
  83              		.cfi_restore 1
  84              		.cfi_def_cfa_offset 0
  85              	.LVL7:
  86              	.L2:
  87              		.cfi_restore_state
  88 005c 13890700 		addi	s2,a5,%lo(.LANCHOR0)
 246:C:/Users/stapi/OneDrive/Desktop/GD32VW553/V1_MQTT_OK/GD32VW55X_Wifi_BLE_SDK/GD32VW55x_RELEASE_V1.0.2/MSDK/cloud/alicloud/src/services/linkkit/cm\iotx_cm.c ****     HAL_MutexLock(fd_lock);
  89              		.loc 1 246 5 is_stmt 1 discriminator 2
 247:C:/Users/stapi/OneDrive/Desktop/GD32VW553/V1_MQTT_OK/GD32VW55X_Wifi_BLE_SDK/GD32VW55x_RELEASE_V1.0.2/MSDK/cloud/alicloud/src/services/linkkit/cm\iotx_cm.c ****     HAL_MutexLock(fd_lock);
  90              		.loc 1 247 5 discriminator 2
  91 0060 97000000 		call	HAL_MutexLock
  91      E7800000 
  92              	.LVL8:
 248:C:/Users/stapi/OneDrive/Desktop/GD32VW553/V1_MQTT_OK/GD32VW55X_Wifi_BLE_SDK/GD32VW55x_RELEASE_V1.0.2/MSDK/cloud/alicloud/src/services/linkkit/cm\iotx_cm.c ****     HAL_MutexUnlock(fd_lock);
  93              		.loc 1 248 5 discriminator 2
 248:C:/Users/stapi/OneDrive/Desktop/GD32VW553/V1_MQTT_OK/GD32VW55X_Wifi_BLE_SDK/GD32VW55x_RELEASE_V1.0.2/MSDK/cloud/alicloud/src/services/linkkit/cm\iotx_cm.c ****     HAL_MutexUnlock(fd_lock);
  94              		.loc 1 248 73 is_stmt 0 discriminator 2
  95 0068 8947     		li	a5,2
  96 006a 7D54     		li	s0,-1
  97 006c 63ED9700 		bgtu	s1,a5,.L4
 248:C:/Users/stapi/OneDrive/Desktop/GD32VW553/V1_MQTT_OK/GD32VW55X_Wifi_BLE_SDK/GD32VW55x_RELEASE_V1.0.2/MSDK/cloud/alicloud/src/services/linkkit/cm\iotx_cm.c ****     HAL_MutexUnlock(fd_lock);
  98              		.loc 1 248 55 discriminator 1
  99 0070 37050000 		lui	a0,%hi(.LANCHOR1)
 100 0074 13050500 		addi	a0,a0,%lo(.LANCHOR1)
 101 0078 B3C4A420 		sh2add	s1,s1,a0
 102              	.LVL9:
 248:C:/Users/stapi/OneDrive/Desktop/GD32VW553/V1_MQTT_OK/GD32VW55X_Wifi_BLE_SDK/GD32VW55x_RELEASE_V1.0.2/MSDK/cloud/alicloud/src/services/linkkit/cm\iotx_cm.c ****     HAL_MutexUnlock(fd_lock);
 103              		.loc 1 248 46 discriminator 1
 104 007c 8040     		lw	s0,0(s1)
 105 007e 13341400 		seqz	s0,s0
 106 0082 33048040 		neg	s0,s0
 107              	.L4:
 108              	.LVL10:
 249:C:/Users/stapi/OneDrive/Desktop/GD32VW553/V1_MQTT_OK/GD32VW55X_Wifi_BLE_SDK/GD32VW55x_RELEASE_V1.0.2/MSDK/cloud/alicloud/src/services/linkkit/cm\iotx_cm.c ****     return ret;
 109              		.loc 1 249 5 is_stmt 1 discriminator 6
 110 0086 03250900 		lw	a0,0(s2)
 111 008a 97000000 		call	HAL_MutexUnlock
 111      E7800000 
 112              	.LVL11:
 250:C:/Users/stapi/OneDrive/Desktop/GD32VW553/V1_MQTT_OK/GD32VW55X_Wifi_BLE_SDK/GD32VW55x_RELEASE_V1.0.2/MSDK/cloud/alicloud/src/services/linkkit/cm\iotx_cm.c **** }
 113              		.loc 1 250 5 discriminator 6
 250:C:/Users/stapi/OneDrive/Desktop/GD32VW553/V1_MQTT_OK/GD32VW55X_Wifi_BLE_SDK/GD32VW55x_RELEASE_V1.0.2/MSDK/cloud/alicloud/src/services/linkkit/cm\iotx_cm.c **** }
 114              		.loc 1 250 12 is_stmt 0 discriminator 6
 115 0092 C1B7     		j	.L1
 116              		.cfi_endproc
 117              	.LFE28:
 119              		.section	.rodata.iotx_cm_open.str1.4,"aMS",@progbits,1
 120              		.align	2
 121              	.LC4:
 122 0000 70617261 		.string	"params"
 122      6D7300
 123 0007 00       		.align	2
 124              	.LC5:
 125 0008 5B77726E 		.string	"[wrn] "
 125      5D2000
 126 000f 00       		.align	2
 127              	.LC6:
 128 0010 70726F74 		.string	"protocol %d not support yet"
 128      6F636F6C 
 128      20256420 
 128      6E6F7420 
 128      73757070 
 129              		.align	2
 130              	.LC7:
 131 002c 696F7478 		.string	"iotx_cm_open_mqtt failed"
 131      5F636D5F 
 131      6F70656E 
 131      5F6D7174 
 131      74206661 
 132 0045 000000   		.align	2
 133              	.LC8:
 134 0048 636D2066 		.string	"cm fd reached the limit"
 134      64207265 
 134      61636865 
 134      64207468 
 134      65206C69 
 135              		.align	2
 136              	.LC9:
 137 0060 67657420 		.string	"get fd failed"
 137      66642066 
 137      61696C65 
 137      6400
 138              		.section	.text.iotx_cm_open,"ax",@progbits
 139              		.align	1
 140              		.globl	iotx_cm_open
 142              	iotx_cm_open:
 143              	.LFB20:
  29:C:/Users/stapi/OneDrive/Desktop/GD32VW553/V1_MQTT_OK/GD32VW55X_Wifi_BLE_SDK/GD32VW55x_RELEASE_V1.0.2/MSDK/cloud/alicloud/src/services/linkkit/cm\iotx_cm.c ****     int fd;
 144              		.loc 1 29 1 is_stmt 1
 145              		.cfi_startproc
 146              	.LVL12:
 147 0000 17030000 		call	t0,__riscv_save_3
 147      E7020300 
 148              		.cfi_offset 18, -16
 149              		.cfi_offset 9, -12
 150              		.cfi_offset 8, -8
 151              		.cfi_offset 1, -4
 152              		.cfi_def_cfa_offset 16
  30:C:/Users/stapi/OneDrive/Desktop/GD32VW553/V1_MQTT_OK/GD32VW55X_Wifi_BLE_SDK/GD32VW55x_RELEASE_V1.0.2/MSDK/cloud/alicloud/src/services/linkkit/cm\iotx_cm.c ****     iotx_cm_connection_t *connection = NULL;
 153              		.loc 1 30 5
  31:C:/Users/stapi/OneDrive/Desktop/GD32VW553/V1_MQTT_OK/GD32VW55X_Wifi_BLE_SDK/GD32VW55x_RELEASE_V1.0.2/MSDK/cloud/alicloud/src/services/linkkit/cm\iotx_cm.c **** 
 154              		.loc 1 31 5
 155              	.LVL13:
  33:C:/Users/stapi/OneDrive/Desktop/GD32VW553/V1_MQTT_OK/GD32VW55X_Wifi_BLE_SDK/GD32VW55x_RELEASE_V1.0.2/MSDK/cloud/alicloud/src/services/linkkit/cm\iotx_cm.c **** 
 156              		.loc 1 33 5
  33:C:/Users/stapi/OneDrive/Desktop/GD32VW553/V1_MQTT_OK/GD32VW55X_Wifi_BLE_SDK/GD32VW55x_RELEASE_V1.0.2/MSDK/cloud/alicloud/src/services/linkkit/cm\iotx_cm.c **** 
 157              		.loc 1 33 5
 158 0008 21E5     		bne	a0,zero,.L8
  33:C:/Users/stapi/OneDrive/Desktop/GD32VW553/V1_MQTT_OK/GD32VW55X_Wifi_BLE_SDK/GD32VW55x_RELEASE_V1.0.2/MSDK/cloud/alicloud/src/services/linkkit/cm\iotx_cm.c **** 
 159              		.loc 1 33 5 discriminator 1
  33:C:/Users/stapi/OneDrive/Desktop/GD32VW553/V1_MQTT_OK/GD32VW55X_Wifi_BLE_SDK/GD32VW55x_RELEASE_V1.0.2/MSDK/cloud/alicloud/src/services/linkkit/cm\iotx_cm.c **** 
 160              		.loc 1 33 5 discriminator 1
 161 000a 37050000 		lui	a0,%hi(.LC0)
 162              	.LVL14:
 163 000e 13050500 		addi	a0,a0,%lo(.LC0)
 164 0012 97000000 		call	HAL_Printf
 164      E7800000 
 165              	.LVL15:
  33:C:/Users/stapi/OneDrive/Desktop/GD32VW553/V1_MQTT_OK/GD32VW55X_Wifi_BLE_SDK/GD32VW55x_RELEASE_V1.0.2/MSDK/cloud/alicloud/src/services/linkkit/cm\iotx_cm.c **** 
 166              		.loc 1 33 5 discriminator 1
 167 001a B7050000 		lui	a1,%hi(.LC4)
 168 001e 37050000 		lui	a0,%hi(.LC2)
 169 0022 0146     		li	a2,0
 170 0024 93850500 		addi	a1,a1,%lo(.LC4)
 171 0028 13050500 		addi	a0,a0,%lo(.LC2)
 172 002c 97000000 		call	HAL_Printf
 172      E7800000 
 173              	.LVL16:
  33:C:/Users/stapi/OneDrive/Desktop/GD32VW553/V1_MQTT_OK/GD32VW55X_Wifi_BLE_SDK/GD32VW55x_RELEASE_V1.0.2/MSDK/cloud/alicloud/src/services/linkkit/cm\iotx_cm.c **** 
 174              		.loc 1 33 5 discriminator 1
 175 0034 37050000 		lui	a0,%hi(.LC3)
 176 0038 13050500 		addi	a0,a0,%lo(.LC3)
 177 003c 97000000 		call	HAL_Printf
 177      E7800000 
 178              	.LVL17:
  33:C:/Users/stapi/OneDrive/Desktop/GD32VW553/V1_MQTT_OK/GD32VW55X_Wifi_BLE_SDK/GD32VW55x_RELEASE_V1.0.2/MSDK/cloud/alicloud/src/services/linkkit/cm\iotx_cm.c **** 
 179              		.loc 1 33 5 discriminator 1
  33:C:/Users/stapi/OneDrive/Desktop/GD32VW553/V1_MQTT_OK/GD32VW55X_Wifi_BLE_SDK/GD32VW55x_RELEASE_V1.0.2/MSDK/cloud/alicloud/src/services/linkkit/cm\iotx_cm.c **** 
 180              		.loc 1 33 5 discriminator 1
 181 0044 7954     		li	s0,-2
 182              	.LVL18:
 183              	.L7:
  63:C:/Users/stapi/OneDrive/Desktop/GD32VW553/V1_MQTT_OK/GD32VW55X_Wifi_BLE_SDK/GD32VW55x_RELEASE_V1.0.2/MSDK/cloud/alicloud/src/services/linkkit/cm\iotx_cm.c **** 
 184              		.loc 1 63 1 is_stmt 0
 185 0046 2285     		mv	a0,s0
 186 0048 17030000 		tail	__riscv_restore_3
 186      67000300 
 187              		.cfi_remember_state
 188              		.cfi_restore 18
 189              		.cfi_restore 9
 190              		.cfi_restore 8
 191              		.cfi_restore 1
 192              		.cfi_def_cfa_offset 0
 193              	.LVL19:
 194              	.L8:
 195              		.cfi_restore_state
  35:C:/Users/stapi/OneDrive/Desktop/GD32VW553/V1_MQTT_OK/GD32VW55X_Wifi_BLE_SDK/GD32VW55x_RELEASE_V1.0.2/MSDK/cloud/alicloud/src/services/linkkit/cm\iotx_cm.c ****         case IOTX_CM_PROTOCOL_TYPE_MQTT:
 196              		.loc 1 35 19 discriminator 2
 197 0050 1C49     		lw	a5,16(a0)
  35:C:/Users/stapi/OneDrive/Desktop/GD32VW553/V1_MQTT_OK/GD32VW55X_Wifi_BLE_SDK/GD32VW55x_RELEASE_V1.0.2/MSDK/cloud/alicloud/src/services/linkkit/cm\iotx_cm.c ****         case IOTX_CM_PROTOCOL_TYPE_MQTT:
 198              		.loc 1 35 5 discriminator 2
 199 0052 0547     		li	a4,1
 200 0054 2A84     		mv	s0,a0
  33:C:/Users/stapi/OneDrive/Desktop/GD32VW553/V1_MQTT_OK/GD32VW55X_Wifi_BLE_SDK/GD32VW55x_RELEASE_V1.0.2/MSDK/cloud/alicloud/src/services/linkkit/cm\iotx_cm.c **** 
 201              		.loc 1 33 5 is_stmt 1 discriminator 2
  35:C:/Users/stapi/OneDrive/Desktop/GD32VW553/V1_MQTT_OK/GD32VW55X_Wifi_BLE_SDK/GD32VW55x_RELEASE_V1.0.2/MSDK/cloud/alicloud/src/services/linkkit/cm\iotx_cm.c ****         case IOTX_CM_PROTOCOL_TYPE_MQTT:
 202              		.loc 1 35 5 discriminator 2
 203 0056 638FE702 		beq	a5,a4,.L10
 204              	.LVL20:
  35:C:/Users/stapi/OneDrive/Desktop/GD32VW553/V1_MQTT_OK/GD32VW55X_Wifi_BLE_SDK/GD32VW55x_RELEASE_V1.0.2/MSDK/cloud/alicloud/src/services/linkkit/cm\iotx_cm.c ****         case IOTX_CM_PROTOCOL_TYPE_MQTT:
 205              		.loc 1 35 5 is_stmt 0
 206 005a 0947     		li	a4,2
 207 005c 6382E704 		beq	a5,a4,.L11
  47:C:/Users/stapi/OneDrive/Desktop/GD32VW553/V1_MQTT_OK/GD32VW55X_Wifi_BLE_SDK/GD32VW55x_RELEASE_V1.0.2/MSDK/cloud/alicloud/src/services/linkkit/cm\iotx_cm.c ****             break;
 208              		.loc 1 47 13 is_stmt 1
  47:C:/Users/stapi/OneDrive/Desktop/GD32VW553/V1_MQTT_OK/GD32VW55X_Wifi_BLE_SDK/GD32VW55x_RELEASE_V1.0.2/MSDK/cloud/alicloud/src/services/linkkit/cm\iotx_cm.c ****             break;
 209              		.loc 1 47 13
 210 0060 37050000 		lui	a0,%hi(.LC5)
 211 0064 13050500 		addi	a0,a0,%lo(.LC5)
 212 0068 97000000 		call	HAL_Printf
 212      E7800000 
 213              	.LVL21:
  47:C:/Users/stapi/OneDrive/Desktop/GD32VW553/V1_MQTT_OK/GD32VW55X_Wifi_BLE_SDK/GD32VW55x_RELEASE_V1.0.2/MSDK/cloud/alicloud/src/services/linkkit/cm\iotx_cm.c ****             break;
 214              		.loc 1 47 13
 215 0070 0C48     		lw	a1,16(s0)
 216 0072 37050000 		lui	a0,%hi(.LC6)
 217 0076 13050500 		addi	a0,a0,%lo(.LC6)
 218 007a 97000000 		call	HAL_Printf
 218      E7800000 
 219              	.LVL22:
  47:C:/Users/stapi/OneDrive/Desktop/GD32VW553/V1_MQTT_OK/GD32VW55X_Wifi_BLE_SDK/GD32VW55x_RELEASE_V1.0.2/MSDK/cloud/alicloud/src/services/linkkit/cm\iotx_cm.c ****             break;
 220              		.loc 1 47 13
 221 0082 37050000 		lui	a0,%hi(.LC3)
 222 0086 13050500 		addi	a0,a0,%lo(.LC3)
 223 008a 97000000 		call	HAL_Printf
 223      E7800000 
 224              	.LVL23:
  47:C:/Users/stapi/OneDrive/Desktop/GD32VW553/V1_MQTT_OK/GD32VW55X_Wifi_BLE_SDK/GD32VW55x_RELEASE_V1.0.2/MSDK/cloud/alicloud/src/services/linkkit/cm\iotx_cm.c ****             break;
 225              		.loc 1 47 13
  48:C:/Users/stapi/OneDrive/Desktop/GD32VW553/V1_MQTT_OK/GD32VW55X_Wifi_BLE_SDK/GD32VW55x_RELEASE_V1.0.2/MSDK/cloud/alicloud/src/services/linkkit/cm\iotx_cm.c ****     }
 226              		.loc 1 48 13
  51:C:/Users/stapi/OneDrive/Desktop/GD32VW553/V1_MQTT_OK/GD32VW55X_Wifi_BLE_SDK/GD32VW55x_RELEASE_V1.0.2/MSDK/cloud/alicloud/src/services/linkkit/cm\iotx_cm.c ****         CM_ERR("iotx_cm_open_mqtt failed");
 227              		.loc 1 51 5
 228 0092 39A0     		j	.L11
 229              	.L10:
  38:C:/Users/stapi/OneDrive/Desktop/GD32VW553/V1_MQTT_OK/GD32VW55X_Wifi_BLE_SDK/GD32VW55x_RELEASE_V1.0.2/MSDK/cloud/alicloud/src/services/linkkit/cm\iotx_cm.c **** #endif
 230              		.loc 1 38 13
  38:C:/Users/stapi/OneDrive/Desktop/GD32VW553/V1_MQTT_OK/GD32VW55X_Wifi_BLE_SDK/GD32VW55x_RELEASE_V1.0.2/MSDK/cloud/alicloud/src/services/linkkit/cm\iotx_cm.c **** #endif
 231              		.loc 1 38 26 is_stmt 0
 232 0094 97000000 		call	iotx_cm_open_mqtt
 232      E7800000 
 233              	.LVL24:
 234 009c 2A89     		mv	s2,a0
 235              	.LVL25:
  40:C:/Users/stapi/OneDrive/Desktop/GD32VW553/V1_MQTT_OK/GD32VW55X_Wifi_BLE_SDK/GD32VW55x_RELEASE_V1.0.2/MSDK/cloud/alicloud/src/services/linkkit/cm\iotx_cm.c ****         case IOTX_CM_PROTOCOL_TYPE_COAP:
 236              		.loc 1 40 13 is_stmt 1
  51:C:/Users/stapi/OneDrive/Desktop/GD32VW553/V1_MQTT_OK/GD32VW55X_Wifi_BLE_SDK/GD32VW55x_RELEASE_V1.0.2/MSDK/cloud/alicloud/src/services/linkkit/cm\iotx_cm.c ****         CM_ERR("iotx_cm_open_mqtt failed");
 237              		.loc 1 51 5
  51:C:/Users/stapi/OneDrive/Desktop/GD32VW553/V1_MQTT_OK/GD32VW55X_Wifi_BLE_SDK/GD32VW55x_RELEASE_V1.0.2/MSDK/cloud/alicloud/src/services/linkkit/cm\iotx_cm.c ****         CM_ERR("iotx_cm_open_mqtt failed");
 238              		.loc 1 51 8 is_stmt 0
 239 009e 1DE9     		bne	a0,zero,.L29
 240              	.LVL26:
 241              	.L11:
  52:C:/Users/stapi/OneDrive/Desktop/GD32VW553/V1_MQTT_OK/GD32VW55X_Wifi_BLE_SDK/GD32VW55x_RELEASE_V1.0.2/MSDK/cloud/alicloud/src/services/linkkit/cm\iotx_cm.c ****         return -1;
 242              		.loc 1 52 9 is_stmt 1
  52:C:/Users/stapi/OneDrive/Desktop/GD32VW553/V1_MQTT_OK/GD32VW55X_Wifi_BLE_SDK/GD32VW55x_RELEASE_V1.0.2/MSDK/cloud/alicloud/src/services/linkkit/cm\iotx_cm.c ****         return -1;
 243              		.loc 1 52 9
 244 00a0 37050000 		lui	a0,%hi(.LC0)
 245 00a4 13050500 		addi	a0,a0,%lo(.LC0)
 246 00a8 97000000 		call	HAL_Printf
 246      E7800000 
 247              	.LVL27:
  52:C:/Users/stapi/OneDrive/Desktop/GD32VW553/V1_MQTT_OK/GD32VW55X_Wifi_BLE_SDK/GD32VW55x_RELEASE_V1.0.2/MSDK/cloud/alicloud/src/services/linkkit/cm\iotx_cm.c ****         return -1;
 248              		.loc 1 52 9
 249 00b0 37050000 		lui	a0,%hi(.LC7)
 250 00b4 13050500 		addi	a0,a0,%lo(.LC7)
 251 00b8 97000000 		call	HAL_Printf
 251      E7800000 
 252              	.LVL28:
  52:C:/Users/stapi/OneDrive/Desktop/GD32VW553/V1_MQTT_OK/GD32VW55X_Wifi_BLE_SDK/GD32VW55x_RELEASE_V1.0.2/MSDK/cloud/alicloud/src/services/linkkit/cm\iotx_cm.c ****         return -1;
 253              		.loc 1 52 9
 254 00c0 37050000 		lui	a0,%hi(.LC3)
 255 00c4 13050500 		addi	a0,a0,%lo(.LC3)
 256 00c8 97000000 		call	HAL_Printf
 256      E7800000 
 257              	.LVL29:
  52:C:/Users/stapi/OneDrive/Desktop/GD32VW553/V1_MQTT_OK/GD32VW55X_Wifi_BLE_SDK/GD32VW55x_RELEASE_V1.0.2/MSDK/cloud/alicloud/src/services/linkkit/cm\iotx_cm.c ****         return -1;
 258              		.loc 1 52 9
  53:C:/Users/stapi/OneDrive/Desktop/GD32VW553/V1_MQTT_OK/GD32VW55X_Wifi_BLE_SDK/GD32VW55x_RELEASE_V1.0.2/MSDK/cloud/alicloud/src/services/linkkit/cm\iotx_cm.c ****     }
 259              		.loc 1 53 9
 260              	.L32:
  59:C:/Users/stapi/OneDrive/Desktop/GD32VW553/V1_MQTT_OK/GD32VW55X_Wifi_BLE_SDK/GD32VW55x_RELEASE_V1.0.2/MSDK/cloud/alicloud/src/services/linkkit/cm\iotx_cm.c ****     }
 261              		.loc 1 59 9
  59:C:/Users/stapi/OneDrive/Desktop/GD32VW553/V1_MQTT_OK/GD32VW55X_Wifi_BLE_SDK/GD32VW55x_RELEASE_V1.0.2/MSDK/cloud/alicloud/src/services/linkkit/cm\iotx_cm.c ****     }
 262              		.loc 1 59 16 is_stmt 0
 263 00d0 7D54     		li	s0,-1
 264              	.LVL30:
 265 00d2 95BF     		j	.L7
 266              	.LVL31:
 267              	.L29:
  55:C:/Users/stapi/OneDrive/Desktop/GD32VW553/V1_MQTT_OK/GD32VW55X_Wifi_BLE_SDK/GD32VW55x_RELEASE_V1.0.2/MSDK/cloud/alicloud/src/services/linkkit/cm\iotx_cm.c ****     if (fd < 0) {
 268              		.loc 1 55 5 is_stmt 1
 269              	.LBB8:
 270              	.LBB9:
 252:C:/Users/stapi/OneDrive/Desktop/GD32VW553/V1_MQTT_OK/GD32VW55X_Wifi_BLE_SDK/GD32VW55x_RELEASE_V1.0.2/MSDK/cloud/alicloud/src/services/linkkit/cm\iotx_cm.c **** 
 253:C:/Users/stapi/OneDrive/Desktop/GD32VW553/V1_MQTT_OK/GD32VW55X_Wifi_BLE_SDK/GD32VW55x_RELEASE_V1.0.2/MSDK/cloud/alicloud/src/services/linkkit/cm\iotx_cm.c **** static int _recycle_fd(int fd)
 254:C:/Users/stapi/OneDrive/Desktop/GD32VW553/V1_MQTT_OK/GD32VW55X_Wifi_BLE_SDK/GD32VW55x_RELEASE_V1.0.2/MSDK/cloud/alicloud/src/services/linkkit/cm\iotx_cm.c **** {
 255:C:/Users/stapi/OneDrive/Desktop/GD32VW553/V1_MQTT_OK/GD32VW55X_Wifi_BLE_SDK/GD32VW55x_RELEASE_V1.0.2/MSDK/cloud/alicloud/src/services/linkkit/cm\iotx_cm.c ****     if (fd_lock == NULL) {
 256:C:/Users/stapi/OneDrive/Desktop/GD32VW553/V1_MQTT_OK/GD32VW55X_Wifi_BLE_SDK/GD32VW55x_RELEASE_V1.0.2/MSDK/cloud/alicloud/src/services/linkkit/cm\iotx_cm.c ****         fd_lock = HAL_MutexCreate();
 257:C:/Users/stapi/OneDrive/Desktop/GD32VW553/V1_MQTT_OK/GD32VW55X_Wifi_BLE_SDK/GD32VW55x_RELEASE_V1.0.2/MSDK/cloud/alicloud/src/services/linkkit/cm\iotx_cm.c ****         if (fd_lock == NULL) {
 258:C:/Users/stapi/OneDrive/Desktop/GD32VW553/V1_MQTT_OK/GD32VW55X_Wifi_BLE_SDK/GD32VW55x_RELEASE_V1.0.2/MSDK/cloud/alicloud/src/services/linkkit/cm\iotx_cm.c ****             return -1;
 259:C:/Users/stapi/OneDrive/Desktop/GD32VW553/V1_MQTT_OK/GD32VW55X_Wifi_BLE_SDK/GD32VW55x_RELEASE_V1.0.2/MSDK/cloud/alicloud/src/services/linkkit/cm\iotx_cm.c ****         }
 260:C:/Users/stapi/OneDrive/Desktop/GD32VW553/V1_MQTT_OK/GD32VW55X_Wifi_BLE_SDK/GD32VW55x_RELEASE_V1.0.2/MSDK/cloud/alicloud/src/services/linkkit/cm\iotx_cm.c ****     }
 261:C:/Users/stapi/OneDrive/Desktop/GD32VW553/V1_MQTT_OK/GD32VW55X_Wifi_BLE_SDK/GD32VW55x_RELEASE_V1.0.2/MSDK/cloud/alicloud/src/services/linkkit/cm\iotx_cm.c **** 
 262:C:/Users/stapi/OneDrive/Desktop/GD32VW553/V1_MQTT_OK/GD32VW55X_Wifi_BLE_SDK/GD32VW55x_RELEASE_V1.0.2/MSDK/cloud/alicloud/src/services/linkkit/cm\iotx_cm.c ****     if (fd < 0 || fd > CM_MAX_FD_NUM - 1) {
 263:C:/Users/stapi/OneDrive/Desktop/GD32VW553/V1_MQTT_OK/GD32VW55X_Wifi_BLE_SDK/GD32VW55x_RELEASE_V1.0.2/MSDK/cloud/alicloud/src/services/linkkit/cm\iotx_cm.c ****         return -1;
 264:C:/Users/stapi/OneDrive/Desktop/GD32VW553/V1_MQTT_OK/GD32VW55X_Wifi_BLE_SDK/GD32VW55x_RELEASE_V1.0.2/MSDK/cloud/alicloud/src/services/linkkit/cm\iotx_cm.c ****     }
 265:C:/Users/stapi/OneDrive/Desktop/GD32VW553/V1_MQTT_OK/GD32VW55X_Wifi_BLE_SDK/GD32VW55x_RELEASE_V1.0.2/MSDK/cloud/alicloud/src/services/linkkit/cm\iotx_cm.c **** 
 266:C:/Users/stapi/OneDrive/Desktop/GD32VW553/V1_MQTT_OK/GD32VW55X_Wifi_BLE_SDK/GD32VW55x_RELEASE_V1.0.2/MSDK/cloud/alicloud/src/services/linkkit/cm\iotx_cm.c ****     HAL_MutexLock(fd_lock);
 267:C:/Users/stapi/OneDrive/Desktop/GD32VW553/V1_MQTT_OK/GD32VW55X_Wifi_BLE_SDK/GD32VW55x_RELEASE_V1.0.2/MSDK/cloud/alicloud/src/services/linkkit/cm\iotx_cm.c ****     _cm_fd[fd] = NULL;
 268:C:/Users/stapi/OneDrive/Desktop/GD32VW553/V1_MQTT_OK/GD32VW55X_Wifi_BLE_SDK/GD32VW55x_RELEASE_V1.0.2/MSDK/cloud/alicloud/src/services/linkkit/cm\iotx_cm.c ****     HAL_MutexUnlock(fd_lock);
 269:C:/Users/stapi/OneDrive/Desktop/GD32VW553/V1_MQTT_OK/GD32VW55X_Wifi_BLE_SDK/GD32VW55x_RELEASE_V1.0.2/MSDK/cloud/alicloud/src/services/linkkit/cm\iotx_cm.c **** 
 270:C:/Users/stapi/OneDrive/Desktop/GD32VW553/V1_MQTT_OK/GD32VW55X_Wifi_BLE_SDK/GD32VW55x_RELEASE_V1.0.2/MSDK/cloud/alicloud/src/services/linkkit/cm\iotx_cm.c ****     return 0;
 271:C:/Users/stapi/OneDrive/Desktop/GD32VW553/V1_MQTT_OK/GD32VW55X_Wifi_BLE_SDK/GD32VW55x_RELEASE_V1.0.2/MSDK/cloud/alicloud/src/services/linkkit/cm\iotx_cm.c **** }
 272:C:/Users/stapi/OneDrive/Desktop/GD32VW553/V1_MQTT_OK/GD32VW55X_Wifi_BLE_SDK/GD32VW55x_RELEASE_V1.0.2/MSDK/cloud/alicloud/src/services/linkkit/cm\iotx_cm.c **** 
 273:C:/Users/stapi/OneDrive/Desktop/GD32VW553/V1_MQTT_OK/GD32VW55X_Wifi_BLE_SDK/GD32VW55x_RELEASE_V1.0.2/MSDK/cloud/alicloud/src/services/linkkit/cm\iotx_cm.c **** static int _get_fd(iotx_cm_connection_t *handle)
 274:C:/Users/stapi/OneDrive/Desktop/GD32VW553/V1_MQTT_OK/GD32VW55X_Wifi_BLE_SDK/GD32VW55x_RELEASE_V1.0.2/MSDK/cloud/alicloud/src/services/linkkit/cm\iotx_cm.c **** {
 275:C:/Users/stapi/OneDrive/Desktop/GD32VW553/V1_MQTT_OK/GD32VW55X_Wifi_BLE_SDK/GD32VW55x_RELEASE_V1.0.2/MSDK/cloud/alicloud/src/services/linkkit/cm\iotx_cm.c ****     int i;
 271              		.loc 1 275 5
 276:C:/Users/stapi/OneDrive/Desktop/GD32VW553/V1_MQTT_OK/GD32VW55X_Wifi_BLE_SDK/GD32VW55x_RELEASE_V1.0.2/MSDK/cloud/alicloud/src/services/linkkit/cm\iotx_cm.c ****     POINTER_SANITY_CHECK(handle, NULL_VALUE_ERROR);
 272              		.loc 1 276 5
 273              		.loc 1 276 5
 274              		.loc 1 276 5
 277:C:/Users/stapi/OneDrive/Desktop/GD32VW553/V1_MQTT_OK/GD32VW55X_Wifi_BLE_SDK/GD32VW55x_RELEASE_V1.0.2/MSDK/cloud/alicloud/src/services/linkkit/cm\iotx_cm.c **** 
 278:C:/Users/stapi/OneDrive/Desktop/GD32VW553/V1_MQTT_OK/GD32VW55X_Wifi_BLE_SDK/GD32VW55x_RELEASE_V1.0.2/MSDK/cloud/alicloud/src/services/linkkit/cm\iotx_cm.c ****     if (fd_lock == NULL) {
 275              		.loc 1 278 5
 276              		.loc 1 278 17 is_stmt 0
 277 00d4 B7040000 		lui	s1,%hi(.LANCHOR0)
 278              		.loc 1 278 8
 279 00d8 83A70400 		lw	a5,%lo(.LANCHOR0)(s1)
 280 00dc 93840400 		addi	s1,s1,%lo(.LANCHOR0)
 281 00e0 9DCB     		beq	a5,zero,.L14
 282              	.LVL32:
 283              	.L18:
 279:C:/Users/stapi/OneDrive/Desktop/GD32VW553/V1_MQTT_OK/GD32VW55X_Wifi_BLE_SDK/GD32VW55x_RELEASE_V1.0.2/MSDK/cloud/alicloud/src/services/linkkit/cm\iotx_cm.c ****         fd_lock = HAL_MutexCreate();
 280:C:/Users/stapi/OneDrive/Desktop/GD32VW553/V1_MQTT_OK/GD32VW55X_Wifi_BLE_SDK/GD32VW55x_RELEASE_V1.0.2/MSDK/cloud/alicloud/src/services/linkkit/cm\iotx_cm.c ****         if (fd_lock == NULL) {
 281:C:/Users/stapi/OneDrive/Desktop/GD32VW553/V1_MQTT_OK/GD32VW55X_Wifi_BLE_SDK/GD32VW55x_RELEASE_V1.0.2/MSDK/cloud/alicloud/src/services/linkkit/cm\iotx_cm.c ****             return -1;
 282:C:/Users/stapi/OneDrive/Desktop/GD32VW553/V1_MQTT_OK/GD32VW55X_Wifi_BLE_SDK/GD32VW55x_RELEASE_V1.0.2/MSDK/cloud/alicloud/src/services/linkkit/cm\iotx_cm.c ****         }
 283:C:/Users/stapi/OneDrive/Desktop/GD32VW553/V1_MQTT_OK/GD32VW55X_Wifi_BLE_SDK/GD32VW55x_RELEASE_V1.0.2/MSDK/cloud/alicloud/src/services/linkkit/cm\iotx_cm.c ****     }
 284:C:/Users/stapi/OneDrive/Desktop/GD32VW553/V1_MQTT_OK/GD32VW55X_Wifi_BLE_SDK/GD32VW55x_RELEASE_V1.0.2/MSDK/cloud/alicloud/src/services/linkkit/cm\iotx_cm.c **** 
 285:C:/Users/stapi/OneDrive/Desktop/GD32VW553/V1_MQTT_OK/GD32VW55X_Wifi_BLE_SDK/GD32VW55x_RELEASE_V1.0.2/MSDK/cloud/alicloud/src/services/linkkit/cm\iotx_cm.c ****     HAL_MutexLock(fd_lock);
 284              		.loc 1 285 5 is_stmt 1
 285 00e2 8840     		lw	a0,0(s1)
 286 00e4 97000000 		call	HAL_MutexLock
 286      E7800000 
 287              	.LVL33:
 286:C:/Users/stapi/OneDrive/Desktop/GD32VW553/V1_MQTT_OK/GD32VW55X_Wifi_BLE_SDK/GD32VW55x_RELEASE_V1.0.2/MSDK/cloud/alicloud/src/services/linkkit/cm\iotx_cm.c ****     for (i = 0; i < CM_MAX_FD_NUM; i++) {
 288              		.loc 1 286 5
 289              		.loc 1 286 17
 287:C:/Users/stapi/OneDrive/Desktop/GD32VW553/V1_MQTT_OK/GD32VW55X_Wifi_BLE_SDK/GD32VW55x_RELEASE_V1.0.2/MSDK/cloud/alicloud/src/services/linkkit/cm\iotx_cm.c ****         if (_cm_fd[i] == NULL) {
 290              		.loc 1 287 9
 291              		.loc 1 287 19 is_stmt 0
 292 00ec B7070000 		lui	a5,%hi(.LANCHOR1)
 293 00f0 13870700 		addi	a4,a5,%lo(.LANCHOR1)
 294              		.loc 1 287 12
 295 00f4 1443     		lw	a3,0(a4)
 296 00f6 93870700 		addi	a5,a5,%lo(.LANCHOR1)
 297 00fa A5E2     		bne	a3,zero,.L30
 286:C:/Users/stapi/OneDrive/Desktop/GD32VW553/V1_MQTT_OK/GD32VW55X_Wifi_BLE_SDK/GD32VW55x_RELEASE_V1.0.2/MSDK/cloud/alicloud/src/services/linkkit/cm\iotx_cm.c ****     for (i = 0; i < CM_MAX_FD_NUM; i++) {
 298              		.loc 1 286 12
 299 00fc 0144     		li	s0,0
 300              	.LVL34:
 301              	.L15:
 288:C:/Users/stapi/OneDrive/Desktop/GD32VW553/V1_MQTT_OK/GD32VW55X_Wifi_BLE_SDK/GD32VW55x_RELEASE_V1.0.2/MSDK/cloud/alicloud/src/services/linkkit/cm\iotx_cm.c ****             _cm_fd[i] = handle;
 302              		.loc 1 288 13 is_stmt 1
 289:C:/Users/stapi/OneDrive/Desktop/GD32VW553/V1_MQTT_OK/GD32VW55X_Wifi_BLE_SDK/GD32VW55x_RELEASE_V1.0.2/MSDK/cloud/alicloud/src/services/linkkit/cm\iotx_cm.c ****             HAL_MutexUnlock(fd_lock);
 303              		.loc 1 289 13 is_stmt 0
 304 00fe 8840     		lw	a0,0(s1)
 288:C:/Users/stapi/OneDrive/Desktop/GD32VW553/V1_MQTT_OK/GD32VW55X_Wifi_BLE_SDK/GD32VW55x_RELEASE_V1.0.2/MSDK/cloud/alicloud/src/services/linkkit/cm\iotx_cm.c ****             _cm_fd[i] = handle;
 305              		.loc 1 288 23
 306 0100 B347F420 		sh2add	a5,s0,a5
 307 0104 23A02701 		sw	s2,0(a5)
 308              		.loc 1 289 13 is_stmt 1
 309 0108 97000000 		call	HAL_MutexUnlock
 309      E7800000 
 310              	.LVL35:
 290:C:/Users/stapi/OneDrive/Desktop/GD32VW553/V1_MQTT_OK/GD32VW55X_Wifi_BLE_SDK/GD32VW55x_RELEASE_V1.0.2/MSDK/cloud/alicloud/src/services/linkkit/cm\iotx_cm.c ****             return i;
 311              		.loc 1 290 13
 312              	.LBE9:
 313              	.LBE8:
  56:C:/Users/stapi/OneDrive/Desktop/GD32VW553/V1_MQTT_OK/GD32VW55X_Wifi_BLE_SDK/GD32VW55x_RELEASE_V1.0.2/MSDK/cloud/alicloud/src/services/linkkit/cm\iotx_cm.c ****         CM_ERR("get fd failed");
 314              		.loc 1 56 5
  61:C:/Users/stapi/OneDrive/Desktop/GD32VW553/V1_MQTT_OK/GD32VW55X_Wifi_BLE_SDK/GD32VW55x_RELEASE_V1.0.2/MSDK/cloud/alicloud/src/services/linkkit/cm\iotx_cm.c ****     return fd;
 315              		.loc 1 61 5
  61:C:/Users/stapi/OneDrive/Desktop/GD32VW553/V1_MQTT_OK/GD32VW55X_Wifi_BLE_SDK/GD32VW55x_RELEASE_V1.0.2/MSDK/cloud/alicloud/src/services/linkkit/cm\iotx_cm.c ****     return fd;
 316              		.loc 1 61 20 is_stmt 0
 317 0110 23208900 		sw	s0,0(s2)
  62:C:/Users/stapi/OneDrive/Desktop/GD32VW553/V1_MQTT_OK/GD32VW55X_Wifi_BLE_SDK/GD32VW55x_RELEASE_V1.0.2/MSDK/cloud/alicloud/src/services/linkkit/cm\iotx_cm.c **** }
 318              		.loc 1 62 5 is_stmt 1
  62:C:/Users/stapi/OneDrive/Desktop/GD32VW553/V1_MQTT_OK/GD32VW55X_Wifi_BLE_SDK/GD32VW55x_RELEASE_V1.0.2/MSDK/cloud/alicloud/src/services/linkkit/cm\iotx_cm.c **** }
 319              		.loc 1 62 12 is_stmt 0
 320 0114 0DBF     		j	.L7
 321              	.LVL36:
 322              	.L14:
 323              	.LBB13:
 324              	.LBB10:
 279:C:/Users/stapi/OneDrive/Desktop/GD32VW553/V1_MQTT_OK/GD32VW55X_Wifi_BLE_SDK/GD32VW55x_RELEASE_V1.0.2/MSDK/cloud/alicloud/src/services/linkkit/cm\iotx_cm.c ****         if (fd_lock == NULL) {
 325              		.loc 1 279 9 is_stmt 1
 279:C:/Users/stapi/OneDrive/Desktop/GD32VW553/V1_MQTT_OK/GD32VW55X_Wifi_BLE_SDK/GD32VW55x_RELEASE_V1.0.2/MSDK/cloud/alicloud/src/services/linkkit/cm\iotx_cm.c ****         if (fd_lock == NULL) {
 326              		.loc 1 279 19 is_stmt 0
 327 0116 97000000 		call	HAL_MutexCreate
 327      E7800000 
 328              	.LVL37:
 279:C:/Users/stapi/OneDrive/Desktop/GD32VW553/V1_MQTT_OK/GD32VW55X_Wifi_BLE_SDK/GD32VW55x_RELEASE_V1.0.2/MSDK/cloud/alicloud/src/services/linkkit/cm\iotx_cm.c ****         if (fd_lock == NULL) {
 329              		.loc 1 279 17
 330 011e 88C0     		sw	a0,0(s1)
 280:C:/Users/stapi/OneDrive/Desktop/GD32VW553/V1_MQTT_OK/GD32VW55X_Wifi_BLE_SDK/GD32VW55x_RELEASE_V1.0.2/MSDK/cloud/alicloud/src/services/linkkit/cm\iotx_cm.c ****             return -1;
 331              		.loc 1 280 9 is_stmt 1
 280:C:/Users/stapi/OneDrive/Desktop/GD32VW553/V1_MQTT_OK/GD32VW55X_Wifi_BLE_SDK/GD32VW55x_RELEASE_V1.0.2/MSDK/cloud/alicloud/src/services/linkkit/cm\iotx_cm.c ****             return -1;
 332              		.loc 1 280 12 is_stmt 0
 333 0120 69F1     		bne	a0,zero,.L18
 334              	.LVL38:
 335              	.L17:
 336              	.LBE10:
 337              	.LBE13:
  57:C:/Users/stapi/OneDrive/Desktop/GD32VW553/V1_MQTT_OK/GD32VW55X_Wifi_BLE_SDK/GD32VW55x_RELEASE_V1.0.2/MSDK/cloud/alicloud/src/services/linkkit/cm\iotx_cm.c ****         connection->close_func();
 338              		.loc 1 57 9 is_stmt 1
  57:C:/Users/stapi/OneDrive/Desktop/GD32VW553/V1_MQTT_OK/GD32VW55X_Wifi_BLE_SDK/GD32VW55x_RELEASE_V1.0.2/MSDK/cloud/alicloud/src/services/linkkit/cm\iotx_cm.c ****         connection->close_func();
 339              		.loc 1 57 9
 340 0122 37050000 		lui	a0,%hi(.LC0)
 341 0126 13050500 		addi	a0,a0,%lo(.LC0)
 342 012a 97000000 		call	HAL_Printf
 342      E7800000 
 343              	.LVL39:
  57:C:/Users/stapi/OneDrive/Desktop/GD32VW553/V1_MQTT_OK/GD32VW55X_Wifi_BLE_SDK/GD32VW55x_RELEASE_V1.0.2/MSDK/cloud/alicloud/src/services/linkkit/cm\iotx_cm.c ****         connection->close_func();
 344              		.loc 1 57 9
 345 0132 37050000 		lui	a0,%hi(.LC9)
 346 0136 13050500 		addi	a0,a0,%lo(.LC9)
 347 013a 97000000 		call	HAL_Printf
 347      E7800000 
 348              	.LVL40:
  57:C:/Users/stapi/OneDrive/Desktop/GD32VW553/V1_MQTT_OK/GD32VW55X_Wifi_BLE_SDK/GD32VW55x_RELEASE_V1.0.2/MSDK/cloud/alicloud/src/services/linkkit/cm\iotx_cm.c ****         connection->close_func();
 349              		.loc 1 57 9
 350 0142 37050000 		lui	a0,%hi(.LC3)
 351 0146 13050500 		addi	a0,a0,%lo(.LC3)
 352 014a 97000000 		call	HAL_Printf
 352      E7800000 
 353              	.LVL41:
  57:C:/Users/stapi/OneDrive/Desktop/GD32VW553/V1_MQTT_OK/GD32VW55X_Wifi_BLE_SDK/GD32VW55x_RELEASE_V1.0.2/MSDK/cloud/alicloud/src/services/linkkit/cm\iotx_cm.c ****         connection->close_func();
 354              		.loc 1 57 9
  58:C:/Users/stapi/OneDrive/Desktop/GD32VW553/V1_MQTT_OK/GD32VW55X_Wifi_BLE_SDK/GD32VW55x_RELEASE_V1.0.2/MSDK/cloud/alicloud/src/services/linkkit/cm\iotx_cm.c ****         return -1;
 355              		.loc 1 58 9
 356 0152 83278902 		lw	a5,40(s2)
 357 0156 8297     		jalr	a5
 358              	.LVL42:
 359 0158 A5BF     		j	.L32
 360              	.LVL43:
 361              	.L30:
 362              	.LBB14:
 363              	.LBB11:
 286:C:/Users/stapi/OneDrive/Desktop/GD32VW553/V1_MQTT_OK/GD32VW55X_Wifi_BLE_SDK/GD32VW55x_RELEASE_V1.0.2/MSDK/cloud/alicloud/src/services/linkkit/cm\iotx_cm.c ****         if (_cm_fd[i] == NULL) {
 364              		.loc 1 286 36
 286:C:/Users/stapi/OneDrive/Desktop/GD32VW553/V1_MQTT_OK/GD32VW55X_Wifi_BLE_SDK/GD32VW55x_RELEASE_V1.0.2/MSDK/cloud/alicloud/src/services/linkkit/cm\iotx_cm.c ****         if (_cm_fd[i] == NULL) {
 365              		.loc 1 286 17
 287:C:/Users/stapi/OneDrive/Desktop/GD32VW553/V1_MQTT_OK/GD32VW55X_Wifi_BLE_SDK/GD32VW55x_RELEASE_V1.0.2/MSDK/cloud/alicloud/src/services/linkkit/cm\iotx_cm.c ****             _cm_fd[i] = handle;
 366              		.loc 1 287 9
 287:C:/Users/stapi/OneDrive/Desktop/GD32VW553/V1_MQTT_OK/GD32VW55X_Wifi_BLE_SDK/GD32VW55x_RELEASE_V1.0.2/MSDK/cloud/alicloud/src/services/linkkit/cm\iotx_cm.c ****             _cm_fd[i] = handle;
 367              		.loc 1 287 12 is_stmt 0
 368 015a 5443     		lw	a3,4(a4)
 291:C:/Users/stapi/OneDrive/Desktop/GD32VW553/V1_MQTT_OK/GD32VW55X_Wifi_BLE_SDK/GD32VW55x_RELEASE_V1.0.2/MSDK/cloud/alicloud/src/services/linkkit/cm\iotx_cm.c ****         }
 292:C:/Users/stapi/OneDrive/Desktop/GD32VW553/V1_MQTT_OK/GD32VW55X_Wifi_BLE_SDK/GD32VW55x_RELEASE_V1.0.2/MSDK/cloud/alicloud/src/services/linkkit/cm\iotx_cm.c ****     }
 293:C:/Users/stapi/OneDrive/Desktop/GD32VW553/V1_MQTT_OK/GD32VW55X_Wifi_BLE_SDK/GD32VW55x_RELEASE_V1.0.2/MSDK/cloud/alicloud/src/services/linkkit/cm\iotx_cm.c ****     HAL_MutexUnlock(fd_lock);
 369              		.loc 1 293 5
 370 015c 8840     		lw	a0,0(s1)
 287:C:/Users/stapi/OneDrive/Desktop/GD32VW553/V1_MQTT_OK/GD32VW55X_Wifi_BLE_SDK/GD32VW55x_RELEASE_V1.0.2/MSDK/cloud/alicloud/src/services/linkkit/cm\iotx_cm.c ****             _cm_fd[i] = handle;
 371              		.loc 1 287 12
 372 015e A1C2     		beq	a3,zero,.L20
 286:C:/Users/stapi/OneDrive/Desktop/GD32VW553/V1_MQTT_OK/GD32VW55X_Wifi_BLE_SDK/GD32VW55x_RELEASE_V1.0.2/MSDK/cloud/alicloud/src/services/linkkit/cm\iotx_cm.c ****         if (_cm_fd[i] == NULL) {
 373              		.loc 1 286 36 is_stmt 1
 374              	.LVL44:
 286:C:/Users/stapi/OneDrive/Desktop/GD32VW553/V1_MQTT_OK/GD32VW55X_Wifi_BLE_SDK/GD32VW55x_RELEASE_V1.0.2/MSDK/cloud/alicloud/src/services/linkkit/cm\iotx_cm.c ****         if (_cm_fd[i] == NULL) {
 375              		.loc 1 286 17
 287:C:/Users/stapi/OneDrive/Desktop/GD32VW553/V1_MQTT_OK/GD32VW55X_Wifi_BLE_SDK/GD32VW55x_RELEASE_V1.0.2/MSDK/cloud/alicloud/src/services/linkkit/cm\iotx_cm.c ****             _cm_fd[i] = handle;
 376              		.loc 1 287 9
 287:C:/Users/stapi/OneDrive/Desktop/GD32VW553/V1_MQTT_OK/GD32VW55X_Wifi_BLE_SDK/GD32VW55x_RELEASE_V1.0.2/MSDK/cloud/alicloud/src/services/linkkit/cm\iotx_cm.c ****             _cm_fd[i] = handle;
 377              		.loc 1 287 12 is_stmt 0
 378 0160 1847     		lw	a4,8(a4)
 379 0162 21C3     		beq	a4,zero,.L21
 286:C:/Users/stapi/OneDrive/Desktop/GD32VW553/V1_MQTT_OK/GD32VW55X_Wifi_BLE_SDK/GD32VW55x_RELEASE_V1.0.2/MSDK/cloud/alicloud/src/services/linkkit/cm\iotx_cm.c ****         if (_cm_fd[i] == NULL) {
 380              		.loc 1 286 36 is_stmt 1
 381              	.LVL45:
 286:C:/Users/stapi/OneDrive/Desktop/GD32VW553/V1_MQTT_OK/GD32VW55X_Wifi_BLE_SDK/GD32VW55x_RELEASE_V1.0.2/MSDK/cloud/alicloud/src/services/linkkit/cm\iotx_cm.c ****         if (_cm_fd[i] == NULL) {
 382              		.loc 1 286 17
 383              		.loc 1 293 5
 384 0164 97000000 		call	HAL_MutexUnlock
 384      E7800000 
 385              	.LVL46:
 294:C:/Users/stapi/OneDrive/Desktop/GD32VW553/V1_MQTT_OK/GD32VW55X_Wifi_BLE_SDK/GD32VW55x_RELEASE_V1.0.2/MSDK/cloud/alicloud/src/services/linkkit/cm\iotx_cm.c ****     CM_ERR("cm fd reached the limit");
 386              		.loc 1 294 5
 387              		.loc 1 294 5
 388 016c 37050000 		lui	a0,%hi(.LC0)
 389 0170 13050500 		addi	a0,a0,%lo(.LC0)
 390 0174 97000000 		call	HAL_Printf
 390      E7800000 
 391              	.LVL47:
 392              		.loc 1 294 5
 393 017c 37050000 		lui	a0,%hi(.LC8)
 394 0180 13050500 		addi	a0,a0,%lo(.LC8)
 395 0184 97000000 		call	HAL_Printf
 395      E7800000 
 396              	.LVL48:
 397              		.loc 1 294 5
 398 018c 37050000 		lui	a0,%hi(.LC3)
 399 0190 13050500 		addi	a0,a0,%lo(.LC3)
 400 0194 97000000 		call	HAL_Printf
 400      E7800000 
 401              	.LVL49:
 402              		.loc 1 294 5
 295:C:/Users/stapi/OneDrive/Desktop/GD32VW553/V1_MQTT_OK/GD32VW55X_Wifi_BLE_SDK/GD32VW55x_RELEASE_V1.0.2/MSDK/cloud/alicloud/src/services/linkkit/cm\iotx_cm.c ****     return -1;
 403              		.loc 1 295 5
 404              	.LBE11:
 405              	.LBE14:
  56:C:/Users/stapi/OneDrive/Desktop/GD32VW553/V1_MQTT_OK/GD32VW55X_Wifi_BLE_SDK/GD32VW55x_RELEASE_V1.0.2/MSDK/cloud/alicloud/src/services/linkkit/cm\iotx_cm.c ****         CM_ERR("get fd failed");
 406              		.loc 1 56 5
 407 019c 59B7     		j	.L17
 408              	.LVL50:
 409              	.L20:
 410              	.LBB15:
 411              	.LBB12:
 286:C:/Users/stapi/OneDrive/Desktop/GD32VW553/V1_MQTT_OK/GD32VW55X_Wifi_BLE_SDK/GD32VW55x_RELEASE_V1.0.2/MSDK/cloud/alicloud/src/services/linkkit/cm\iotx_cm.c ****         if (_cm_fd[i] == NULL) {
 412              		.loc 1 286 37 is_stmt 0
 413 019e 0544     		li	s0,1
 414              	.LVL51:
 415 01a0 B9BF     		j	.L15
 416              	.LVL52:
 417              	.L21:
 418 01a2 0944     		li	s0,2
 419              	.LVL53:
 420 01a4 A9BF     		j	.L15
 421              	.LBE12:
 422              	.LBE15:
 423              		.cfi_endproc
 424              	.LFE20:
 426              		.section	.text.iotx_cm_connect,"ax",@progbits
 427              		.align	1
 428              		.globl	iotx_cm_connect
 430              	iotx_cm_connect:
 431              	.LFB21:
  66:C:/Users/stapi/OneDrive/Desktop/GD32VW553/V1_MQTT_OK/GD32VW55X_Wifi_BLE_SDK/GD32VW55x_RELEASE_V1.0.2/MSDK/cloud/alicloud/src/services/linkkit/cm\iotx_cm.c ****     if (_fd_is_valid(fd) < 0) {
 432              		.loc 1 66 1 is_stmt 1
 433              		.cfi_startproc
 434              	.LVL54:
 435 0000 17030000 		call	t0,__riscv_save_3
 435      E7020300 
 436              		.cfi_offset 18, -16
 437              		.cfi_offset 9, -12
 438              		.cfi_offset 8, -8
 439              		.cfi_offset 1, -4
 440              		.cfi_def_cfa_offset 16
  67:C:/Users/stapi/OneDrive/Desktop/GD32VW553/V1_MQTT_OK/GD32VW55X_Wifi_BLE_SDK/GD32VW55x_RELEASE_V1.0.2/MSDK/cloud/alicloud/src/services/linkkit/cm\iotx_cm.c ****         CM_ERR(ERR_INVALID_PARAMS);
 441              		.loc 1 67 5
  66:C:/Users/stapi/OneDrive/Desktop/GD32VW553/V1_MQTT_OK/GD32VW55X_Wifi_BLE_SDK/GD32VW55x_RELEASE_V1.0.2/MSDK/cloud/alicloud/src/services/linkkit/cm\iotx_cm.c ****     if (_fd_is_valid(fd) < 0) {
 442              		.loc 1 66 1 is_stmt 0
 443 0008 2A84     		mv	s0,a0
 444 000a 2E89     		mv	s2,a1
  67:C:/Users/stapi/OneDrive/Desktop/GD32VW553/V1_MQTT_OK/GD32VW55X_Wifi_BLE_SDK/GD32VW55x_RELEASE_V1.0.2/MSDK/cloud/alicloud/src/services/linkkit/cm\iotx_cm.c ****         CM_ERR(ERR_INVALID_PARAMS);
 445              		.loc 1 67 9
 446 000c 97000000 		call	_fd_is_valid
 446      E7800000 
 447              	.LVL55:
  67:C:/Users/stapi/OneDrive/Desktop/GD32VW553/V1_MQTT_OK/GD32VW55X_Wifi_BLE_SDK/GD32VW55x_RELEASE_V1.0.2/MSDK/cloud/alicloud/src/services/linkkit/cm\iotx_cm.c ****         CM_ERR(ERR_INVALID_PARAMS);
 448              		.loc 1 67 8
 449 0014 635F0502 		bge	a0,zero,.L34
  68:C:/Users/stapi/OneDrive/Desktop/GD32VW553/V1_MQTT_OK/GD32VW55X_Wifi_BLE_SDK/GD32VW55x_RELEASE_V1.0.2/MSDK/cloud/alicloud/src/services/linkkit/cm\iotx_cm.c ****         return -1;
 450              		.loc 1 68 9 is_stmt 1
  68:C:/Users/stapi/OneDrive/Desktop/GD32VW553/V1_MQTT_OK/GD32VW55X_Wifi_BLE_SDK/GD32VW55x_RELEASE_V1.0.2/MSDK/cloud/alicloud/src/services/linkkit/cm\iotx_cm.c ****         return -1;
 451              		.loc 1 68 9
 452 0018 37050000 		lui	a0,%hi(.LC0)
 453 001c 13050500 		addi	a0,a0,%lo(.LC0)
 454 0020 97000000 		call	HAL_Printf
 454      E7800000 
 455              	.LVL56:
  68:C:/Users/stapi/OneDrive/Desktop/GD32VW553/V1_MQTT_OK/GD32VW55X_Wifi_BLE_SDK/GD32VW55x_RELEASE_V1.0.2/MSDK/cloud/alicloud/src/services/linkkit/cm\iotx_cm.c ****         return -1;
 456              		.loc 1 68 9
 457 0028 37050000 		lui	a0,%hi(.LANCHOR2)
 458 002c 13050500 		addi	a0,a0,%lo(.LANCHOR2)
 459 0030 97000000 		call	HAL_Printf
 459      E7800000 
 460              	.LVL57:
  68:C:/Users/stapi/OneDrive/Desktop/GD32VW553/V1_MQTT_OK/GD32VW55X_Wifi_BLE_SDK/GD32VW55x_RELEASE_V1.0.2/MSDK/cloud/alicloud/src/services/linkkit/cm\iotx_cm.c ****         return -1;
 461              		.loc 1 68 9
 462 0038 37050000 		lui	a0,%hi(.LC3)
 463 003c 13050500 		addi	a0,a0,%lo(.LC3)
 464 0040 97000000 		call	HAL_Printf
 464      E7800000 
 465              	.LVL58:
  68:C:/Users/stapi/OneDrive/Desktop/GD32VW553/V1_MQTT_OK/GD32VW55X_Wifi_BLE_SDK/GD32VW55x_RELEASE_V1.0.2/MSDK/cloud/alicloud/src/services/linkkit/cm\iotx_cm.c ****         return -1;
 466              		.loc 1 68 9
  69:C:/Users/stapi/OneDrive/Desktop/GD32VW553/V1_MQTT_OK/GD32VW55X_Wifi_BLE_SDK/GD32VW55x_RELEASE_V1.0.2/MSDK/cloud/alicloud/src/services/linkkit/cm\iotx_cm.c ****     }
 467              		.loc 1 69 9
  69:C:/Users/stapi/OneDrive/Desktop/GD32VW553/V1_MQTT_OK/GD32VW55X_Wifi_BLE_SDK/GD32VW55x_RELEASE_V1.0.2/MSDK/cloud/alicloud/src/services/linkkit/cm\iotx_cm.c ****     }
 468              		.loc 1 69 16 is_stmt 0
 469 0048 7D55     		li	a0,-1
 470              	.LVL59:
 471              	.L33:
  99:C:/Users/stapi/OneDrive/Desktop/GD32VW553/V1_MQTT_OK/GD32VW55X_Wifi_BLE_SDK/GD32VW55x_RELEASE_V1.0.2/MSDK/cloud/alicloud/src/services/linkkit/cm\iotx_cm.c **** 
 472              		.loc 1 99 1
 473 004a 17030000 		tail	__riscv_restore_3
 473      67000300 
 474              		.cfi_remember_state
 475              		.cfi_restore 18
 476              		.cfi_restore 9
 477              		.cfi_restore 8
 478              		.cfi_restore 1
 479              		.cfi_def_cfa_offset 0
 480              	.LVL60:
 481              	.L34:
 482              		.cfi_restore_state
  71:C:/Users/stapi/OneDrive/Desktop/GD32VW553/V1_MQTT_OK/GD32VW55X_Wifi_BLE_SDK/GD32VW55x_RELEASE_V1.0.2/MSDK/cloud/alicloud/src/services/linkkit/cm\iotx_cm.c ****     HAL_MutexLock(fd_lock);
 483              		.loc 1 71 5 is_stmt 1
  72:C:/Users/stapi/OneDrive/Desktop/GD32VW553/V1_MQTT_OK/GD32VW55X_Wifi_BLE_SDK/GD32VW55x_RELEASE_V1.0.2/MSDK/cloud/alicloud/src/services/linkkit/cm\iotx_cm.c ****     connect_func = _cm_fd[fd]->connect_func;
 484              		.loc 1 72 5
 485 0052 B7040000 		lui	s1,%hi(.LANCHOR0)
 486 0056 93840400 		addi	s1,s1,%lo(.LANCHOR0)
 487 005a 8840     		lw	a0,0(s1)
 488 005c 97000000 		call	HAL_MutexLock
 488      E7800000 
 489              	.LVL61:
  73:C:/Users/stapi/OneDrive/Desktop/GD32VW553/V1_MQTT_OK/GD32VW55X_Wifi_BLE_SDK/GD32VW55x_RELEASE_V1.0.2/MSDK/cloud/alicloud/src/services/linkkit/cm\iotx_cm.c ****     HAL_MutexUnlock(fd_lock);
 490              		.loc 1 73 5
  73:C:/Users/stapi/OneDrive/Desktop/GD32VW553/V1_MQTT_OK/GD32VW55X_Wifi_BLE_SDK/GD32VW55x_RELEASE_V1.0.2/MSDK/cloud/alicloud/src/services/linkkit/cm\iotx_cm.c ****     HAL_MutexUnlock(fd_lock);
 491              		.loc 1 73 26 is_stmt 0
 492 0064 37050000 		lui	a0,%hi(.LANCHOR1)
 493 0068 13050500 		addi	a0,a0,%lo(.LANCHOR1)
 494 006c 3344A420 		sh2add	s0,s0,a0
 495              	.LVL62:
  74:C:/Users/stapi/OneDrive/Desktop/GD32VW553/V1_MQTT_OK/GD32VW55X_Wifi_BLE_SDK/GD32VW55x_RELEASE_V1.0.2/MSDK/cloud/alicloud/src/services/linkkit/cm\iotx_cm.c **** 
 496              		.loc 1 74 5
 497 0070 8840     		lw	a0,0(s1)
  73:C:/Users/stapi/OneDrive/Desktop/GD32VW553/V1_MQTT_OK/GD32VW55X_Wifi_BLE_SDK/GD32VW55x_RELEASE_V1.0.2/MSDK/cloud/alicloud/src/services/linkkit/cm\iotx_cm.c ****     HAL_MutexUnlock(fd_lock);
 498              		.loc 1 73 18
 499 0072 1C40     		lw	a5,0(s0)
 500 0074 C04B     		lw	s0,20(a5)
 501              	.LVL63:
  74:C:/Users/stapi/OneDrive/Desktop/GD32VW553/V1_MQTT_OK/GD32VW55X_Wifi_BLE_SDK/GD32VW55x_RELEASE_V1.0.2/MSDK/cloud/alicloud/src/services/linkkit/cm\iotx_cm.c **** 
 502              		.loc 1 74 5 is_stmt 1
 503 0076 97000000 		call	HAL_MutexUnlock
 503      E7800000 
 504              	.LVL64:
  76:C:/Users/stapi/OneDrive/Desktop/GD32VW553/V1_MQTT_OK/GD32VW55X_Wifi_BLE_SDK/GD32VW55x_RELEASE_V1.0.2/MSDK/cloud/alicloud/src/services/linkkit/cm\iotx_cm.c **** 
 505              		.loc 1 76 5
 506 007e 0965     		li	a0,8192
 507 0080 97000000 		call	iotx_event_post
 507      E7800000 
 508              	.LVL65:
  78:C:/Users/stapi/OneDrive/Desktop/GD32VW553/V1_MQTT_OK/GD32VW55X_Wifi_BLE_SDK/GD32VW55x_RELEASE_V1.0.2/MSDK/cloud/alicloud/src/services/linkkit/cm\iotx_cm.c **** 
 509              		.loc 1 78 5
  78:C:/Users/stapi/OneDrive/Desktop/GD32VW553/V1_MQTT_OK/GD32VW55X_Wifi_BLE_SDK/GD32VW55x_RELEASE_V1.0.2/MSDK/cloud/alicloud/src/services/linkkit/cm\iotx_cm.c **** 
 510              		.loc 1 78 15 is_stmt 0
 511 0088 4A85     		mv	a0,s2
 512 008a 0294     		jalr	s0
 513              	.LVL66:
  80:C:/Users/stapi/OneDrive/Desktop/GD32VW553/V1_MQTT_OK/GD32VW55X_Wifi_BLE_SDK/GD32VW55x_RELEASE_V1.0.2/MSDK/cloud/alicloud/src/services/linkkit/cm\iotx_cm.c ****         inited_conn_num++;
 514              		.loc 1 80 5 is_stmt 1
  80:C:/Users/stapi/OneDrive/Desktop/GD32VW553/V1_MQTT_OK/GD32VW55X_Wifi_BLE_SDK/GD32VW55x_RELEASE_V1.0.2/MSDK/cloud/alicloud/src/services/linkkit/cm\iotx_cm.c ****         inited_conn_num++;
 515              		.loc 1 80 8 is_stmt 0
 516 008c 5DFD     		bne	a0,zero,.L33
  81:C:/Users/stapi/OneDrive/Desktop/GD32VW553/V1_MQTT_OK/GD32VW55X_Wifi_BLE_SDK/GD32VW55x_RELEASE_V1.0.2/MSDK/cloud/alicloud/src/services/linkkit/cm\iotx_cm.c ****         if (inited_conn_num == 1) {
 517              		.loc 1 81 9 is_stmt 1
  81:C:/Users/stapi/OneDrive/Desktop/GD32VW553/V1_MQTT_OK/GD32VW55X_Wifi_BLE_SDK/GD32VW55x_RELEASE_V1.0.2/MSDK/cloud/alicloud/src/services/linkkit/cm\iotx_cm.c ****         if (inited_conn_num == 1) {
 518              		.loc 1 81 24 is_stmt 0
 519 008e B7070000 		lui	a5,%hi(.LANCHOR3)
 520 0092 93870700 		addi	a5,a5,%lo(.LANCHOR3)
 521 0096 9843     		lw	a4,0(a5)
 522 0098 0507     		addi	a4,a4,1
 523 009a 98C3     		sw	a4,0(a5)
  82:C:/Users/stapi/OneDrive/Desktop/GD32VW553/V1_MQTT_OK/GD32VW55X_Wifi_BLE_SDK/GD32VW55x_RELEASE_V1.0.2/MSDK/cloud/alicloud/src/services/linkkit/cm\iotx_cm.c **** 
 524              		.loc 1 82 9 is_stmt 1
 525 009c 7DB7     		j	.L33
 526              		.cfi_endproc
 527              	.LFE21:
 529              		.section	.text.iotx_cm_yield,"ax",@progbits
 530              		.align	1
 531              		.globl	iotx_cm_yield
 533              	iotx_cm_yield:
 534              	.LFB23:
 146:C:/Users/stapi/OneDrive/Desktop/GD32VW553/V1_MQTT_OK/GD32VW55X_Wifi_BLE_SDK/GD32VW55x_RELEASE_V1.0.2/MSDK/cloud/alicloud/src/services/linkkit/cm\iotx_cm.c **** #if (CONFIG_SDK_THREAD_COST == 0)
 535              		.loc 1 146 1
 536              		.cfi_startproc
 537              	.LVL67:
 538 0000 17030000 		call	t0,__riscv_save_5
 538      E7020300 
 539              		.cfi_offset 20, -24
 540              		.cfi_offset 19, -20
 541              		.cfi_offset 18, -16
 542              		.cfi_offset 9, -12
 543              		.cfi_offset 8, -8
 544              		.cfi_offset 1, -4
 545              		.cfi_def_cfa_offset 32
 148:C:/Users/stapi/OneDrive/Desktop/GD32VW553/V1_MQTT_OK/GD32VW55X_Wifi_BLE_SDK/GD32VW55x_RELEASE_V1.0.2/MSDK/cloud/alicloud/src/services/linkkit/cm\iotx_cm.c **** #else
 546              		.loc 1 148 5
 547              	.LVL68:
 548              	.LBB19:
 549              	.LBB20:
 103:C:/Users/stapi/OneDrive/Desktop/GD32VW553/V1_MQTT_OK/GD32VW55X_Wifi_BLE_SDK/GD32VW55x_RELEASE_V1.0.2/MSDK/cloud/alicloud/src/services/linkkit/cm\iotx_cm.c ****     iotx_cm_yield_fp yield_func;
 550              		.loc 1 103 5
 103:C:/Users/stapi/OneDrive/Desktop/GD32VW553/V1_MQTT_OK/GD32VW55X_Wifi_BLE_SDK/GD32VW55x_RELEASE_V1.0.2/MSDK/cloud/alicloud/src/services/linkkit/cm\iotx_cm.c ****     iotx_cm_yield_fp yield_func;
 551              		.loc 1 103 5
 552 0008 B7040000 		lui	s1,%hi(.LANCHOR0)
 553 000c 93890400 		addi	s3,s1,%lo(.LANCHOR0)
 554 0010 83A70900 		lw	a5,0(s3)
 555 0014 A1E7     		bne	a5,zero,.L38
 103:C:/Users/stapi/OneDrive/Desktop/GD32VW553/V1_MQTT_OK/GD32VW55X_Wifi_BLE_SDK/GD32VW55x_RELEASE_V1.0.2/MSDK/cloud/alicloud/src/services/linkkit/cm\iotx_cm.c ****     iotx_cm_yield_fp yield_func;
 556              		.loc 1 103 5
 103:C:/Users/stapi/OneDrive/Desktop/GD32VW553/V1_MQTT_OK/GD32VW55X_Wifi_BLE_SDK/GD32VW55x_RELEASE_V1.0.2/MSDK/cloud/alicloud/src/services/linkkit/cm\iotx_cm.c ****     iotx_cm_yield_fp yield_func;
 557              		.loc 1 103 5
 558 0016 37050000 		lui	a0,%hi(.LC0)
 559              	.LVL69:
 560 001a 13050500 		addi	a0,a0,%lo(.LC0)
 561 001e 97000000 		call	HAL_Printf
 561      E7800000 
 562              	.LVL70:
 103:C:/Users/stapi/OneDrive/Desktop/GD32VW553/V1_MQTT_OK/GD32VW55X_Wifi_BLE_SDK/GD32VW55x_RELEASE_V1.0.2/MSDK/cloud/alicloud/src/services/linkkit/cm\iotx_cm.c ****     iotx_cm_yield_fp yield_func;
 563              		.loc 1 103 5
 564 0026 03A60900 		lw	a2,0(s3)
 565 002a B7050000 		lui	a1,%hi(.LC1)
 566 002e 37050000 		lui	a0,%hi(.LC2)
 567 0032 93850500 		addi	a1,a1,%lo(.LC1)
 568 0036 13050500 		addi	a0,a0,%lo(.LC2)
 569 003a 97000000 		call	HAL_Printf
 569      E7800000 
 570              	.LVL71:
 103:C:/Users/stapi/OneDrive/Desktop/GD32VW553/V1_MQTT_OK/GD32VW55X_Wifi_BLE_SDK/GD32VW55x_RELEASE_V1.0.2/MSDK/cloud/alicloud/src/services/linkkit/cm\iotx_cm.c ****     iotx_cm_yield_fp yield_func;
 571              		.loc 1 103 5
 572 0042 37050000 		lui	a0,%hi(.LC3)
 573 0046 13050500 		addi	a0,a0,%lo(.LC3)
 574 004a 97000000 		call	HAL_Printf
 574      E7800000 
 575              	.LVL72:
 103:C:/Users/stapi/OneDrive/Desktop/GD32VW553/V1_MQTT_OK/GD32VW55X_Wifi_BLE_SDK/GD32VW55x_RELEASE_V1.0.2/MSDK/cloud/alicloud/src/services/linkkit/cm\iotx_cm.c ****     iotx_cm_yield_fp yield_func;
 576              		.loc 1 103 5
 103:C:/Users/stapi/OneDrive/Desktop/GD32VW553/V1_MQTT_OK/GD32VW55X_Wifi_BLE_SDK/GD32VW55x_RELEASE_V1.0.2/MSDK/cloud/alicloud/src/services/linkkit/cm\iotx_cm.c ****     iotx_cm_yield_fp yield_func;
 577              		.loc 1 103 5
 578 0052 7955     		li	a0,-2
 579              	.LVL73:
 580              	.L37:
 581              	.LBE20:
 582              	.LBE19:
 152:C:/Users/stapi/OneDrive/Desktop/GD32VW553/V1_MQTT_OK/GD32VW55X_Wifi_BLE_SDK/GD32VW55x_RELEASE_V1.0.2/MSDK/cloud/alicloud/src/services/linkkit/cm\iotx_cm.c **** 
 583              		.loc 1 152 1 is_stmt 0
 584 0054 17030000 		tail	__riscv_restore_5
 584      67000300 
 585              		.cfi_remember_state
 586              		.cfi_restore 20
 587              		.cfi_restore 19
 588              		.cfi_restore 18
 589              		.cfi_restore 9
 590              		.cfi_restore 8
 591              		.cfi_restore 1
 592              		.cfi_def_cfa_offset 0
 593              	.LVL74:
 594              	.L38:
 595              		.cfi_restore_state
 596              	.LBB23:
 597              	.LBB22:
 106:C:/Users/stapi/OneDrive/Desktop/GD32VW553/V1_MQTT_OK/GD32VW55X_Wifi_BLE_SDK/GD32VW55x_RELEASE_V1.0.2/MSDK/cloud/alicloud/src/services/linkkit/cm\iotx_cm.c ****         int i;
 598              		.loc 1 106 8
 599 005c FD57     		li	a5,-1
 600 005e 2A84     		mv	s0,a0
 601 0060 2E89     		mv	s2,a1
 103:C:/Users/stapi/OneDrive/Desktop/GD32VW553/V1_MQTT_OK/GD32VW55X_Wifi_BLE_SDK/GD32VW55x_RELEASE_V1.0.2/MSDK/cloud/alicloud/src/services/linkkit/cm\iotx_cm.c ****     iotx_cm_yield_fp yield_func;
 602              		.loc 1 103 5 is_stmt 1
 104:C:/Users/stapi/OneDrive/Desktop/GD32VW553/V1_MQTT_OK/GD32VW55X_Wifi_BLE_SDK/GD32VW55x_RELEASE_V1.0.2/MSDK/cloud/alicloud/src/services/linkkit/cm\iotx_cm.c **** 
 603              		.loc 1 104 5
 106:C:/Users/stapi/OneDrive/Desktop/GD32VW553/V1_MQTT_OK/GD32VW55X_Wifi_BLE_SDK/GD32VW55x_RELEASE_V1.0.2/MSDK/cloud/alicloud/src/services/linkkit/cm\iotx_cm.c ****         int i;
 604              		.loc 1 106 5
 106:C:/Users/stapi/OneDrive/Desktop/GD32VW553/V1_MQTT_OK/GD32VW55X_Wifi_BLE_SDK/GD32VW55x_RELEASE_V1.0.2/MSDK/cloud/alicloud/src/services/linkkit/cm\iotx_cm.c ****         int i;
 605              		.loc 1 106 8 is_stmt 0
 606 0062 6312F504 		bne	a0,a5,.L40
 607              	.LVL75:
 608 0066 37040000 		lui	s0,%hi(.LANCHOR1)
 609              	.LVL76:
 610 006a 13040400 		addi	s0,s0,%lo(.LANCHOR1)
 611 006e 93840400 		addi	s1,s1,%lo(.LANCHOR0)
 612 0072 130AC400 		addi	s4,s0,12
 613              	.LVL77:
 614              	.L43:
 615              	.LBB21:
 109:C:/Users/stapi/OneDrive/Desktop/GD32VW553/V1_MQTT_OK/GD32VW55X_Wifi_BLE_SDK/GD32VW55x_RELEASE_V1.0.2/MSDK/cloud/alicloud/src/services/linkkit/cm\iotx_cm.c ****             HAL_MutexLock(fd_lock);
 616              		.loc 1 109 13 is_stmt 1
 110:C:/Users/stapi/OneDrive/Desktop/GD32VW553/V1_MQTT_OK/GD32VW55X_Wifi_BLE_SDK/GD32VW55x_RELEASE_V1.0.2/MSDK/cloud/alicloud/src/services/linkkit/cm\iotx_cm.c ****             if (_cm_fd[i] != NULL) {
 617              		.loc 1 110 13
 618 0076 8840     		lw	a0,0(s1)
 109:C:/Users/stapi/OneDrive/Desktop/GD32VW553/V1_MQTT_OK/GD32VW55X_Wifi_BLE_SDK/GD32VW55x_RELEASE_V1.0.2/MSDK/cloud/alicloud/src/services/linkkit/cm\iotx_cm.c ****             HAL_MutexLock(fd_lock);
 619              		.loc 1 109 24 is_stmt 0
 620 0078 8149     		li	s3,0
 110:C:/Users/stapi/OneDrive/Desktop/GD32VW553/V1_MQTT_OK/GD32VW55X_Wifi_BLE_SDK/GD32VW55x_RELEASE_V1.0.2/MSDK/cloud/alicloud/src/services/linkkit/cm\iotx_cm.c ****             if (_cm_fd[i] != NULL) {
 621              		.loc 1 110 13
 622 007a 97000000 		call	HAL_MutexLock
 622      E7800000 
 623              	.LVL78:
 111:C:/Users/stapi/OneDrive/Desktop/GD32VW553/V1_MQTT_OK/GD32VW55X_Wifi_BLE_SDK/GD32VW55x_RELEASE_V1.0.2/MSDK/cloud/alicloud/src/services/linkkit/cm\iotx_cm.c ****                 yield_func =  _cm_fd[i]->yield_func;
 624              		.loc 1 111 13 is_stmt 1
 111:C:/Users/stapi/OneDrive/Desktop/GD32VW553/V1_MQTT_OK/GD32VW55X_Wifi_BLE_SDK/GD32VW55x_RELEASE_V1.0.2/MSDK/cloud/alicloud/src/services/linkkit/cm\iotx_cm.c ****                 yield_func =  _cm_fd[i]->yield_func;
 625              		.loc 1 111 23 is_stmt 0
 626 0082 1C40     		lw	a5,0(s0)
 111:C:/Users/stapi/OneDrive/Desktop/GD32VW553/V1_MQTT_OK/GD32VW55X_Wifi_BLE_SDK/GD32VW55x_RELEASE_V1.0.2/MSDK/cloud/alicloud/src/services/linkkit/cm\iotx_cm.c ****                 yield_func =  _cm_fd[i]->yield_func;
 627              		.loc 1 111 16
 628 0084 99C3     		beq	a5,zero,.L41
 112:C:/Users/stapi/OneDrive/Desktop/GD32VW553/V1_MQTT_OK/GD32VW55X_Wifi_BLE_SDK/GD32VW55x_RELEASE_V1.0.2/MSDK/cloud/alicloud/src/services/linkkit/cm\iotx_cm.c ****             }
 629              		.loc 1 112 17 is_stmt 1
 112:C:/Users/stapi/OneDrive/Desktop/GD32VW553/V1_MQTT_OK/GD32VW55X_Wifi_BLE_SDK/GD32VW55x_RELEASE_V1.0.2/MSDK/cloud/alicloud/src/services/linkkit/cm\iotx_cm.c ****             }
 630              		.loc 1 112 28 is_stmt 0
 631 0086 83A94702 		lw	s3,36(a5)
 632              	.LVL79:
 633              	.L41:
 114:C:/Users/stapi/OneDrive/Desktop/GD32VW553/V1_MQTT_OK/GD32VW55X_Wifi_BLE_SDK/GD32VW55x_RELEASE_V1.0.2/MSDK/cloud/alicloud/src/services/linkkit/cm\iotx_cm.c ****             if (yield_func != NULL) {
 634              		.loc 1 114 13 is_stmt 1
 635 008a 8840     		lw	a0,0(s1)
 636 008c 97000000 		call	HAL_MutexUnlock
 636      E7800000 
 637              	.LVL80:
 115:C:/Users/stapi/OneDrive/Desktop/GD32VW553/V1_MQTT_OK/GD32VW55X_Wifi_BLE_SDK/GD32VW55x_RELEASE_V1.0.2/MSDK/cloud/alicloud/src/services/linkkit/cm\iotx_cm.c ****                 yield_func(timeout);
 638              		.loc 1 115 13
 115:C:/Users/stapi/OneDrive/Desktop/GD32VW553/V1_MQTT_OK/GD32VW55X_Wifi_BLE_SDK/GD32VW55x_RELEASE_V1.0.2/MSDK/cloud/alicloud/src/services/linkkit/cm\iotx_cm.c ****                 yield_func(timeout);
 639              		.loc 1 115 16 is_stmt 0
 640 0094 63840900 		beq	s3,zero,.L42
 116:C:/Users/stapi/OneDrive/Desktop/GD32VW553/V1_MQTT_OK/GD32VW55X_Wifi_BLE_SDK/GD32VW55x_RELEASE_V1.0.2/MSDK/cloud/alicloud/src/services/linkkit/cm\iotx_cm.c ****             }
 641              		.loc 1 116 17 is_stmt 1
 642 0098 4A85     		mv	a0,s2
 643 009a 8299     		jalr	s3
 644              	.LVL81:
 645              	.L42:
 108:C:/Users/stapi/OneDrive/Desktop/GD32VW553/V1_MQTT_OK/GD32VW55X_Wifi_BLE_SDK/GD32VW55x_RELEASE_V1.0.2/MSDK/cloud/alicloud/src/services/linkkit/cm\iotx_cm.c ****             yield_func = NULL;
 646              		.loc 1 108 40
 108:C:/Users/stapi/OneDrive/Desktop/GD32VW553/V1_MQTT_OK/GD32VW55X_Wifi_BLE_SDK/GD32VW55x_RELEASE_V1.0.2/MSDK/cloud/alicloud/src/services/linkkit/cm\iotx_cm.c ****             yield_func = NULL;
 647              		.loc 1 108 21
 108:C:/Users/stapi/OneDrive/Desktop/GD32VW553/V1_MQTT_OK/GD32VW55X_Wifi_BLE_SDK/GD32VW55x_RELEASE_V1.0.2/MSDK/cloud/alicloud/src/services/linkkit/cm\iotx_cm.c ****             yield_func = NULL;
 648              		.loc 1 108 9 is_stmt 0
 649 009c 1104     		addi	s0,s0,4
 650 009e E31C8AFC 		bne	s4,s0,.L43
 119:C:/Users/stapi/OneDrive/Desktop/GD32VW553/V1_MQTT_OK/GD32VW55X_Wifi_BLE_SDK/GD32VW55x_RELEASE_V1.0.2/MSDK/cloud/alicloud/src/services/linkkit/cm\iotx_cm.c ****     }
 651              		.loc 1 119 16
 652 00a2 0145     		li	a0,0
 653 00a4 45BF     		j	.L37
 654              	.LVL82:
 655              	.L40:
 656              	.LBE21:
 122:C:/Users/stapi/OneDrive/Desktop/GD32VW553/V1_MQTT_OK/GD32VW55X_Wifi_BLE_SDK/GD32VW55x_RELEASE_V1.0.2/MSDK/cloud/alicloud/src/services/linkkit/cm\iotx_cm.c ****         CM_ERR(ERR_INVALID_PARAMS);
 657              		.loc 1 122 5 is_stmt 1
 122:C:/Users/stapi/OneDrive/Desktop/GD32VW553/V1_MQTT_OK/GD32VW55X_Wifi_BLE_SDK/GD32VW55x_RELEASE_V1.0.2/MSDK/cloud/alicloud/src/services/linkkit/cm\iotx_cm.c ****         CM_ERR(ERR_INVALID_PARAMS);
 658              		.loc 1 122 9 is_stmt 0
 659 00a6 97000000 		call	_fd_is_valid
 659      E7800000 
 660              	.LVL83:
 122:C:/Users/stapi/OneDrive/Desktop/GD32VW553/V1_MQTT_OK/GD32VW55X_Wifi_BLE_SDK/GD32VW55x_RELEASE_V1.0.2/MSDK/cloud/alicloud/src/services/linkkit/cm\iotx_cm.c ****         CM_ERR(ERR_INVALID_PARAMS);
 661              		.loc 1 122 8
 662 00ae 635C0502 		bge	a0,zero,.L44
 123:C:/Users/stapi/OneDrive/Desktop/GD32VW553/V1_MQTT_OK/GD32VW55X_Wifi_BLE_SDK/GD32VW55x_RELEASE_V1.0.2/MSDK/cloud/alicloud/src/services/linkkit/cm\iotx_cm.c ****         return -1;
 663              		.loc 1 123 9 is_stmt 1
 123:C:/Users/stapi/OneDrive/Desktop/GD32VW553/V1_MQTT_OK/GD32VW55X_Wifi_BLE_SDK/GD32VW55x_RELEASE_V1.0.2/MSDK/cloud/alicloud/src/services/linkkit/cm\iotx_cm.c ****         return -1;
 664              		.loc 1 123 9
 665 00b2 37050000 		lui	a0,%hi(.LC0)
 666 00b6 13050500 		addi	a0,a0,%lo(.LC0)
 667 00ba 97000000 		call	HAL_Printf
 667      E7800000 
 668              	.LVL84:
 123:C:/Users/stapi/OneDrive/Desktop/GD32VW553/V1_MQTT_OK/GD32VW55X_Wifi_BLE_SDK/GD32VW55x_RELEASE_V1.0.2/MSDK/cloud/alicloud/src/services/linkkit/cm\iotx_cm.c ****         return -1;
 669              		.loc 1 123 9
 670 00c2 37050000 		lui	a0,%hi(.LANCHOR2)
 671 00c6 13050500 		addi	a0,a0,%lo(.LANCHOR2)
 672 00ca 97000000 		call	HAL_Printf
 672      E7800000 
 673              	.LVL85:
 123:C:/Users/stapi/OneDrive/Desktop/GD32VW553/V1_MQTT_OK/GD32VW55X_Wifi_BLE_SDK/GD32VW55x_RELEASE_V1.0.2/MSDK/cloud/alicloud/src/services/linkkit/cm\iotx_cm.c ****         return -1;
 674              		.loc 1 123 9
 675 00d2 37050000 		lui	a0,%hi(.LC3)
 676 00d6 13050500 		addi	a0,a0,%lo(.LC3)
 677 00da 97000000 		call	HAL_Printf
 677      E7800000 
 678              	.LVL86:
 123:C:/Users/stapi/OneDrive/Desktop/GD32VW553/V1_MQTT_OK/GD32VW55X_Wifi_BLE_SDK/GD32VW55x_RELEASE_V1.0.2/MSDK/cloud/alicloud/src/services/linkkit/cm\iotx_cm.c ****         return -1;
 679              		.loc 1 123 9
 124:C:/Users/stapi/OneDrive/Desktop/GD32VW553/V1_MQTT_OK/GD32VW55X_Wifi_BLE_SDK/GD32VW55x_RELEASE_V1.0.2/MSDK/cloud/alicloud/src/services/linkkit/cm\iotx_cm.c ****     }
 680              		.loc 1 124 9
 124:C:/Users/stapi/OneDrive/Desktop/GD32VW553/V1_MQTT_OK/GD32VW55X_Wifi_BLE_SDK/GD32VW55x_RELEASE_V1.0.2/MSDK/cloud/alicloud/src/services/linkkit/cm\iotx_cm.c ****     }
 681              		.loc 1 124 16 is_stmt 0
 682 00e2 7D55     		li	a0,-1
 683 00e4 85BF     		j	.L37
 684              	.L44:
 127:C:/Users/stapi/OneDrive/Desktop/GD32VW553/V1_MQTT_OK/GD32VW55X_Wifi_BLE_SDK/GD32VW55x_RELEASE_V1.0.2/MSDK/cloud/alicloud/src/services/linkkit/cm\iotx_cm.c ****     yield_func =  _cm_fd[fd]->yield_func;
 685              		.loc 1 127 5 is_stmt 1
 686 00e6 03A50900 		lw	a0,0(s3)
 687 00ea 97000000 		call	HAL_MutexLock
 687      E7800000 
 688              	.LVL87:
 128:C:/Users/stapi/OneDrive/Desktop/GD32VW553/V1_MQTT_OK/GD32VW55X_Wifi_BLE_SDK/GD32VW55x_RELEASE_V1.0.2/MSDK/cloud/alicloud/src/services/linkkit/cm\iotx_cm.c ****     HAL_MutexUnlock(fd_lock);
 689              		.loc 1 128 5
 128:C:/Users/stapi/OneDrive/Desktop/GD32VW553/V1_MQTT_OK/GD32VW55X_Wifi_BLE_SDK/GD32VW55x_RELEASE_V1.0.2/MSDK/cloud/alicloud/src/services/linkkit/cm\iotx_cm.c ****     HAL_MutexUnlock(fd_lock);
 690              		.loc 1 128 25 is_stmt 0
 691 00f2 37050000 		lui	a0,%hi(.LANCHOR1)
 692 00f6 13050500 		addi	a0,a0,%lo(.LANCHOR1)
 693 00fa 3344A420 		sh2add	s0,s0,a0
 694              	.LVL88:
 128:C:/Users/stapi/OneDrive/Desktop/GD32VW553/V1_MQTT_OK/GD32VW55X_Wifi_BLE_SDK/GD32VW55x_RELEASE_V1.0.2/MSDK/cloud/alicloud/src/services/linkkit/cm\iotx_cm.c ****     HAL_MutexUnlock(fd_lock);
 695              		.loc 1 128 16
 696 00fe 1C40     		lw	a5,0(s0)
 129:C:/Users/stapi/OneDrive/Desktop/GD32VW553/V1_MQTT_OK/GD32VW55X_Wifi_BLE_SDK/GD32VW55x_RELEASE_V1.0.2/MSDK/cloud/alicloud/src/services/linkkit/cm\iotx_cm.c ****     return yield_func(timeout);
 697              		.loc 1 129 5
 698 0100 03A50900 		lw	a0,0(s3)
 128:C:/Users/stapi/OneDrive/Desktop/GD32VW553/V1_MQTT_OK/GD32VW55X_Wifi_BLE_SDK/GD32VW55x_RELEASE_V1.0.2/MSDK/cloud/alicloud/src/services/linkkit/cm\iotx_cm.c ****     HAL_MutexUnlock(fd_lock);
 699              		.loc 1 128 16
 700 0104 C053     		lw	s0,36(a5)
 701              	.LVL89:
 129:C:/Users/stapi/OneDrive/Desktop/GD32VW553/V1_MQTT_OK/GD32VW55X_Wifi_BLE_SDK/GD32VW55x_RELEASE_V1.0.2/MSDK/cloud/alicloud/src/services/linkkit/cm\iotx_cm.c ****     return yield_func(timeout);
 702              		.loc 1 129 5 is_stmt 1
 703 0106 97000000 		call	HAL_MutexUnlock
 703      E7800000 
 704              	.LVL90:
 130:C:/Users/stapi/OneDrive/Desktop/GD32VW553/V1_MQTT_OK/GD32VW55X_Wifi_BLE_SDK/GD32VW55x_RELEASE_V1.0.2/MSDK/cloud/alicloud/src/services/linkkit/cm\iotx_cm.c **** 
 705              		.loc 1 130 5
 130:C:/Users/stapi/OneDrive/Desktop/GD32VW553/V1_MQTT_OK/GD32VW55X_Wifi_BLE_SDK/GD32VW55x_RELEASE_V1.0.2/MSDK/cloud/alicloud/src/services/linkkit/cm\iotx_cm.c **** 
 706              		.loc 1 130 12 is_stmt 0
 707 010e 4A85     		mv	a0,s2
 708 0110 0294     		jalr	s0
 709              	.LVL91:
 710              	.LBE22:
 711              	.LBE23:
 148:C:/Users/stapi/OneDrive/Desktop/GD32VW553/V1_MQTT_OK/GD32VW55X_Wifi_BLE_SDK/GD32VW55x_RELEASE_V1.0.2/MSDK/cloud/alicloud/src/services/linkkit/cm\iotx_cm.c **** #else
 712              		.loc 1 148 12
 713 0112 89B7     		j	.L37
 714              		.cfi_endproc
 715              	.LFE23:
 717              		.section	.text.iotx_cm_sub,"ax",@progbits
 718              		.align	1
 719              		.globl	iotx_cm_sub
 721              	iotx_cm_sub:
 722              	.LFB24:
 157:C:/Users/stapi/OneDrive/Desktop/GD32VW553/V1_MQTT_OK/GD32VW55X_Wifi_BLE_SDK/GD32VW55x_RELEASE_V1.0.2/MSDK/cloud/alicloud/src/services/linkkit/cm\iotx_cm.c ****     if (_fd_is_valid(fd) < 0) {
 723              		.loc 1 157 1 is_stmt 1
 724              		.cfi_startproc
 725              	.LVL92:
 726 0000 17030000 		call	t0,__riscv_save_6
 726      E7020300 
 727              		.cfi_offset 21, -28
 728              		.cfi_offset 20, -24
 729              		.cfi_offset 19, -20
 730              		.cfi_offset 18, -16
 731              		.cfi_offset 9, -12
 732              		.cfi_offset 8, -8
 733              		.cfi_offset 1, -4
 734              		.cfi_def_cfa_offset 32
 158:C:/Users/stapi/OneDrive/Desktop/GD32VW553/V1_MQTT_OK/GD32VW55X_Wifi_BLE_SDK/GD32VW55x_RELEASE_V1.0.2/MSDK/cloud/alicloud/src/services/linkkit/cm\iotx_cm.c ****         CM_ERR(ERR_INVALID_PARAMS);
 735              		.loc 1 158 5
 157:C:/Users/stapi/OneDrive/Desktop/GD32VW553/V1_MQTT_OK/GD32VW55X_Wifi_BLE_SDK/GD32VW55x_RELEASE_V1.0.2/MSDK/cloud/alicloud/src/services/linkkit/cm\iotx_cm.c ****     if (_fd_is_valid(fd) < 0) {
 736              		.loc 1 157 1 is_stmt 0
 737 0008 2A84     		mv	s0,a0
 738 000a AE89     		mv	s3,a1
 739 000c 328A     		mv	s4,a2
 740 000e B68A     		mv	s5,a3
 741 0010 3A89     		mv	s2,a4
 158:C:/Users/stapi/OneDrive/Desktop/GD32VW553/V1_MQTT_OK/GD32VW55X_Wifi_BLE_SDK/GD32VW55x_RELEASE_V1.0.2/MSDK/cloud/alicloud/src/services/linkkit/cm\iotx_cm.c ****         CM_ERR(ERR_INVALID_PARAMS);
 742              		.loc 1 158 9
 743 0012 97000000 		call	_fd_is_valid
 743      E7800000 
 744              	.LVL93:
 158:C:/Users/stapi/OneDrive/Desktop/GD32VW553/V1_MQTT_OK/GD32VW55X_Wifi_BLE_SDK/GD32VW55x_RELEASE_V1.0.2/MSDK/cloud/alicloud/src/services/linkkit/cm\iotx_cm.c ****         CM_ERR(ERR_INVALID_PARAMS);
 745              		.loc 1 158 8
 746 001a 635F0502 		bge	a0,zero,.L52
 159:C:/Users/stapi/OneDrive/Desktop/GD32VW553/V1_MQTT_OK/GD32VW55X_Wifi_BLE_SDK/GD32VW55x_RELEASE_V1.0.2/MSDK/cloud/alicloud/src/services/linkkit/cm\iotx_cm.c ****         return -1;
 747              		.loc 1 159 9 is_stmt 1
 159:C:/Users/stapi/OneDrive/Desktop/GD32VW553/V1_MQTT_OK/GD32VW55X_Wifi_BLE_SDK/GD32VW55x_RELEASE_V1.0.2/MSDK/cloud/alicloud/src/services/linkkit/cm\iotx_cm.c ****         return -1;
 748              		.loc 1 159 9
 749 001e 37050000 		lui	a0,%hi(.LC0)
 750 0022 13050500 		addi	a0,a0,%lo(.LC0)
 751 0026 97000000 		call	HAL_Printf
 751      E7800000 
 752              	.LVL94:
 159:C:/Users/stapi/OneDrive/Desktop/GD32VW553/V1_MQTT_OK/GD32VW55X_Wifi_BLE_SDK/GD32VW55x_RELEASE_V1.0.2/MSDK/cloud/alicloud/src/services/linkkit/cm\iotx_cm.c ****         return -1;
 753              		.loc 1 159 9
 754 002e 37050000 		lui	a0,%hi(.LANCHOR2)
 755 0032 13050500 		addi	a0,a0,%lo(.LANCHOR2)
 756 0036 97000000 		call	HAL_Printf
 756      E7800000 
 757              	.LVL95:
 159:C:/Users/stapi/OneDrive/Desktop/GD32VW553/V1_MQTT_OK/GD32VW55X_Wifi_BLE_SDK/GD32VW55x_RELEASE_V1.0.2/MSDK/cloud/alicloud/src/services/linkkit/cm\iotx_cm.c ****         return -1;
 758              		.loc 1 159 9
 759 003e 37050000 		lui	a0,%hi(.LC3)
 760 0042 13050500 		addi	a0,a0,%lo(.LC3)
 761 0046 97000000 		call	HAL_Printf
 761      E7800000 
 762              	.LVL96:
 159:C:/Users/stapi/OneDrive/Desktop/GD32VW553/V1_MQTT_OK/GD32VW55X_Wifi_BLE_SDK/GD32VW55x_RELEASE_V1.0.2/MSDK/cloud/alicloud/src/services/linkkit/cm\iotx_cm.c ****         return -1;
 763              		.loc 1 159 9
 160:C:/Users/stapi/OneDrive/Desktop/GD32VW553/V1_MQTT_OK/GD32VW55X_Wifi_BLE_SDK/GD32VW55x_RELEASE_V1.0.2/MSDK/cloud/alicloud/src/services/linkkit/cm\iotx_cm.c ****     }
 764              		.loc 1 160 9
 160:C:/Users/stapi/OneDrive/Desktop/GD32VW553/V1_MQTT_OK/GD32VW55X_Wifi_BLE_SDK/GD32VW55x_RELEASE_V1.0.2/MSDK/cloud/alicloud/src/services/linkkit/cm\iotx_cm.c ****     }
 765              		.loc 1 160 16 is_stmt 0
 766 004e 7D55     		li	a0,-1
 767              	.LVL97:
 768              	.L51:
 168:C:/Users/stapi/OneDrive/Desktop/GD32VW553/V1_MQTT_OK/GD32VW55X_Wifi_BLE_SDK/GD32VW55x_RELEASE_V1.0.2/MSDK/cloud/alicloud/src/services/linkkit/cm\iotx_cm.c **** 
 769              		.loc 1 168 1
 770 0050 17030000 		tail	__riscv_restore_6
 770      67000300 
 771              		.cfi_remember_state
 772              		.cfi_restore 21
 773              		.cfi_restore 20
 774              		.cfi_restore 19
 775              		.cfi_restore 18
 776              		.cfi_restore 9
 777              		.cfi_restore 8
 778              		.cfi_restore 1
 779              		.cfi_def_cfa_offset 0
 780              	.LVL98:
 781              	.L52:
 782              		.cfi_restore_state
 163:C:/Users/stapi/OneDrive/Desktop/GD32VW553/V1_MQTT_OK/GD32VW55X_Wifi_BLE_SDK/GD32VW55x_RELEASE_V1.0.2/MSDK/cloud/alicloud/src/services/linkkit/cm\iotx_cm.c ****     HAL_MutexLock(fd_lock);
 783              		.loc 1 163 5 is_stmt 1
 164:C:/Users/stapi/OneDrive/Desktop/GD32VW553/V1_MQTT_OK/GD32VW55X_Wifi_BLE_SDK/GD32VW55x_RELEASE_V1.0.2/MSDK/cloud/alicloud/src/services/linkkit/cm\iotx_cm.c ****     sub_func =  _cm_fd[fd]->sub_func;
 784              		.loc 1 164 5
 785 0058 B7040000 		lui	s1,%hi(.LANCHOR0)
 786 005c 93840400 		addi	s1,s1,%lo(.LANCHOR0)
 787 0060 8840     		lw	a0,0(s1)
 788 0062 97000000 		call	HAL_MutexLock
 788      E7800000 
 789              	.LVL99:
 165:C:/Users/stapi/OneDrive/Desktop/GD32VW553/V1_MQTT_OK/GD32VW55X_Wifi_BLE_SDK/GD32VW55x_RELEASE_V1.0.2/MSDK/cloud/alicloud/src/services/linkkit/cm\iotx_cm.c ****     HAL_MutexUnlock(fd_lock);
 790              		.loc 1 165 5
 165:C:/Users/stapi/OneDrive/Desktop/GD32VW553/V1_MQTT_OK/GD32VW55X_Wifi_BLE_SDK/GD32VW55x_RELEASE_V1.0.2/MSDK/cloud/alicloud/src/services/linkkit/cm\iotx_cm.c ****     HAL_MutexUnlock(fd_lock);
 791              		.loc 1 165 23 is_stmt 0
 792 006a 37050000 		lui	a0,%hi(.LANCHOR1)
 793 006e 13050500 		addi	a0,a0,%lo(.LANCHOR1)
 794 0072 3344A420 		sh2add	s0,s0,a0
 795              	.LVL100:
 165:C:/Users/stapi/OneDrive/Desktop/GD32VW553/V1_MQTT_OK/GD32VW55X_Wifi_BLE_SDK/GD32VW55x_RELEASE_V1.0.2/MSDK/cloud/alicloud/src/services/linkkit/cm\iotx_cm.c ****     HAL_MutexUnlock(fd_lock);
 796              		.loc 1 165 14
 797 0076 1C40     		lw	a5,0(s0)
 166:C:/Users/stapi/OneDrive/Desktop/GD32VW553/V1_MQTT_OK/GD32VW55X_Wifi_BLE_SDK/GD32VW55x_RELEASE_V1.0.2/MSDK/cloud/alicloud/src/services/linkkit/cm\iotx_cm.c ****     return sub_func(ext, topic, topic_handle_func, pcontext);
 798              		.loc 1 166 5
 799 0078 8840     		lw	a0,0(s1)
 165:C:/Users/stapi/OneDrive/Desktop/GD32VW553/V1_MQTT_OK/GD32VW55X_Wifi_BLE_SDK/GD32VW55x_RELEASE_V1.0.2/MSDK/cloud/alicloud/src/services/linkkit/cm\iotx_cm.c ****     HAL_MutexUnlock(fd_lock);
 800              		.loc 1 165 14
 801 007a 804F     		lw	s0,24(a5)
 802              	.LVL101:
 166:C:/Users/stapi/OneDrive/Desktop/GD32VW553/V1_MQTT_OK/GD32VW55X_Wifi_BLE_SDK/GD32VW55x_RELEASE_V1.0.2/MSDK/cloud/alicloud/src/services/linkkit/cm\iotx_cm.c ****     return sub_func(ext, topic, topic_handle_func, pcontext);
 803              		.loc 1 166 5 is_stmt 1
 804 007c 97000000 		call	HAL_MutexUnlock
 804      E7800000 
 805              	.LVL102:
 167:C:/Users/stapi/OneDrive/Desktop/GD32VW553/V1_MQTT_OK/GD32VW55X_Wifi_BLE_SDK/GD32VW55x_RELEASE_V1.0.2/MSDK/cloud/alicloud/src/services/linkkit/cm\iotx_cm.c **** }
 806              		.loc 1 167 5
 167:C:/Users/stapi/OneDrive/Desktop/GD32VW553/V1_MQTT_OK/GD32VW55X_Wifi_BLE_SDK/GD32VW55x_RELEASE_V1.0.2/MSDK/cloud/alicloud/src/services/linkkit/cm\iotx_cm.c **** }
 807              		.loc 1 167 12 is_stmt 0
 808 0084 CA86     		mv	a3,s2
 809 0086 5686     		mv	a2,s5
 810 0088 D285     		mv	a1,s4
 811 008a 4E85     		mv	a0,s3
 812 008c 0294     		jalr	s0
 813              	.LVL103:
 814 008e C9B7     		j	.L51
 815              		.cfi_endproc
 816              	.LFE24:
 818              		.section	.text.iotx_cm_unsub,"ax",@progbits
 819              		.align	1
 820              		.globl	iotx_cm_unsub
 822              	iotx_cm_unsub:
 823              	.LFB25:
 171:C:/Users/stapi/OneDrive/Desktop/GD32VW553/V1_MQTT_OK/GD32VW55X_Wifi_BLE_SDK/GD32VW55x_RELEASE_V1.0.2/MSDK/cloud/alicloud/src/services/linkkit/cm\iotx_cm.c ****     if (_fd_is_valid(fd) < 0) {
 824              		.loc 1 171 1 is_stmt 1
 825              		.cfi_startproc
 826              	.LVL104:
 827 0000 17030000 		call	t0,__riscv_save_3
 827      E7020300 
 828              		.cfi_offset 18, -16
 829              		.cfi_offset 9, -12
 830              		.cfi_offset 8, -8
 831              		.cfi_offset 1, -4
 832              		.cfi_def_cfa_offset 16
 172:C:/Users/stapi/OneDrive/Desktop/GD32VW553/V1_MQTT_OK/GD32VW55X_Wifi_BLE_SDK/GD32VW55x_RELEASE_V1.0.2/MSDK/cloud/alicloud/src/services/linkkit/cm\iotx_cm.c ****         CM_ERR(ERR_INVALID_PARAMS);
 833              		.loc 1 172 5
 171:C:/Users/stapi/OneDrive/Desktop/GD32VW553/V1_MQTT_OK/GD32VW55X_Wifi_BLE_SDK/GD32VW55x_RELEASE_V1.0.2/MSDK/cloud/alicloud/src/services/linkkit/cm\iotx_cm.c ****     if (_fd_is_valid(fd) < 0) {
 834              		.loc 1 171 1 is_stmt 0
 835 0008 2A84     		mv	s0,a0
 836 000a 2E89     		mv	s2,a1
 172:C:/Users/stapi/OneDrive/Desktop/GD32VW553/V1_MQTT_OK/GD32VW55X_Wifi_BLE_SDK/GD32VW55x_RELEASE_V1.0.2/MSDK/cloud/alicloud/src/services/linkkit/cm\iotx_cm.c ****         CM_ERR(ERR_INVALID_PARAMS);
 837              		.loc 1 172 9
 838 000c 97000000 		call	_fd_is_valid
 838      E7800000 
 839              	.LVL105:
 172:C:/Users/stapi/OneDrive/Desktop/GD32VW553/V1_MQTT_OK/GD32VW55X_Wifi_BLE_SDK/GD32VW55x_RELEASE_V1.0.2/MSDK/cloud/alicloud/src/services/linkkit/cm\iotx_cm.c ****         CM_ERR(ERR_INVALID_PARAMS);
 840              		.loc 1 172 8
 841 0014 635F0502 		bge	a0,zero,.L56
 173:C:/Users/stapi/OneDrive/Desktop/GD32VW553/V1_MQTT_OK/GD32VW55X_Wifi_BLE_SDK/GD32VW55x_RELEASE_V1.0.2/MSDK/cloud/alicloud/src/services/linkkit/cm\iotx_cm.c ****         return -1;
 842              		.loc 1 173 9 is_stmt 1
 173:C:/Users/stapi/OneDrive/Desktop/GD32VW553/V1_MQTT_OK/GD32VW55X_Wifi_BLE_SDK/GD32VW55x_RELEASE_V1.0.2/MSDK/cloud/alicloud/src/services/linkkit/cm\iotx_cm.c ****         return -1;
 843              		.loc 1 173 9
 844 0018 37050000 		lui	a0,%hi(.LC0)
 845 001c 13050500 		addi	a0,a0,%lo(.LC0)
 846 0020 97000000 		call	HAL_Printf
 846      E7800000 
 847              	.LVL106:
 173:C:/Users/stapi/OneDrive/Desktop/GD32VW553/V1_MQTT_OK/GD32VW55X_Wifi_BLE_SDK/GD32VW55x_RELEASE_V1.0.2/MSDK/cloud/alicloud/src/services/linkkit/cm\iotx_cm.c ****         return -1;
 848              		.loc 1 173 9
 849 0028 37050000 		lui	a0,%hi(.LANCHOR2)
 850 002c 13050500 		addi	a0,a0,%lo(.LANCHOR2)
 851 0030 97000000 		call	HAL_Printf
 851      E7800000 
 852              	.LVL107:
 173:C:/Users/stapi/OneDrive/Desktop/GD32VW553/V1_MQTT_OK/GD32VW55X_Wifi_BLE_SDK/GD32VW55x_RELEASE_V1.0.2/MSDK/cloud/alicloud/src/services/linkkit/cm\iotx_cm.c ****         return -1;
 853              		.loc 1 173 9
 854 0038 37050000 		lui	a0,%hi(.LC3)
 855 003c 13050500 		addi	a0,a0,%lo(.LC3)
 856 0040 97000000 		call	HAL_Printf
 856      E7800000 
 857              	.LVL108:
 173:C:/Users/stapi/OneDrive/Desktop/GD32VW553/V1_MQTT_OK/GD32VW55X_Wifi_BLE_SDK/GD32VW55x_RELEASE_V1.0.2/MSDK/cloud/alicloud/src/services/linkkit/cm\iotx_cm.c ****         return -1;
 858              		.loc 1 173 9
 174:C:/Users/stapi/OneDrive/Desktop/GD32VW553/V1_MQTT_OK/GD32VW55X_Wifi_BLE_SDK/GD32VW55x_RELEASE_V1.0.2/MSDK/cloud/alicloud/src/services/linkkit/cm\iotx_cm.c ****     }
 859              		.loc 1 174 9
 174:C:/Users/stapi/OneDrive/Desktop/GD32VW553/V1_MQTT_OK/GD32VW55X_Wifi_BLE_SDK/GD32VW55x_RELEASE_V1.0.2/MSDK/cloud/alicloud/src/services/linkkit/cm\iotx_cm.c ****     }
 860              		.loc 1 174 16 is_stmt 0
 861 0048 7D55     		li	a0,-1
 862              	.LVL109:
 863              	.L55:
 182:C:/Users/stapi/OneDrive/Desktop/GD32VW553/V1_MQTT_OK/GD32VW55X_Wifi_BLE_SDK/GD32VW55x_RELEASE_V1.0.2/MSDK/cloud/alicloud/src/services/linkkit/cm\iotx_cm.c **** 
 864              		.loc 1 182 1
 865 004a 17030000 		tail	__riscv_restore_3
 865      67000300 
 866              		.cfi_remember_state
 867              		.cfi_restore 18
 868              		.cfi_restore 9
 869              		.cfi_restore 8
 870              		.cfi_restore 1
 871              		.cfi_def_cfa_offset 0
 872              	.LVL110:
 873              	.L56:
 874              		.cfi_restore_state
 177:C:/Users/stapi/OneDrive/Desktop/GD32VW553/V1_MQTT_OK/GD32VW55X_Wifi_BLE_SDK/GD32VW55x_RELEASE_V1.0.2/MSDK/cloud/alicloud/src/services/linkkit/cm\iotx_cm.c ****     HAL_MutexLock(fd_lock);
 875              		.loc 1 177 5 is_stmt 1
 178:C:/Users/stapi/OneDrive/Desktop/GD32VW553/V1_MQTT_OK/GD32VW55X_Wifi_BLE_SDK/GD32VW55x_RELEASE_V1.0.2/MSDK/cloud/alicloud/src/services/linkkit/cm\iotx_cm.c ****     unsub_func =  _cm_fd[fd]->unsub_func;
 876              		.loc 1 178 5
 877 0052 B7040000 		lui	s1,%hi(.LANCHOR0)
 878 0056 93840400 		addi	s1,s1,%lo(.LANCHOR0)
 879 005a 8840     		lw	a0,0(s1)
 880 005c 97000000 		call	HAL_MutexLock
 880      E7800000 
 881              	.LVL111:
 179:C:/Users/stapi/OneDrive/Desktop/GD32VW553/V1_MQTT_OK/GD32VW55X_Wifi_BLE_SDK/GD32VW55x_RELEASE_V1.0.2/MSDK/cloud/alicloud/src/services/linkkit/cm\iotx_cm.c ****     HAL_MutexUnlock(fd_lock);
 882              		.loc 1 179 5
 179:C:/Users/stapi/OneDrive/Desktop/GD32VW553/V1_MQTT_OK/GD32VW55X_Wifi_BLE_SDK/GD32VW55x_RELEASE_V1.0.2/MSDK/cloud/alicloud/src/services/linkkit/cm\iotx_cm.c ****     HAL_MutexUnlock(fd_lock);
 883              		.loc 1 179 25 is_stmt 0
 884 0064 37050000 		lui	a0,%hi(.LANCHOR1)
 885 0068 13050500 		addi	a0,a0,%lo(.LANCHOR1)
 886 006c 3344A420 		sh2add	s0,s0,a0
 887              	.LVL112:
 179:C:/Users/stapi/OneDrive/Desktop/GD32VW553/V1_MQTT_OK/GD32VW55X_Wifi_BLE_SDK/GD32VW55x_RELEASE_V1.0.2/MSDK/cloud/alicloud/src/services/linkkit/cm\iotx_cm.c ****     HAL_MutexUnlock(fd_lock);
 888              		.loc 1 179 16
 889 0070 1C40     		lw	a5,0(s0)
 180:C:/Users/stapi/OneDrive/Desktop/GD32VW553/V1_MQTT_OK/GD32VW55X_Wifi_BLE_SDK/GD32VW55x_RELEASE_V1.0.2/MSDK/cloud/alicloud/src/services/linkkit/cm\iotx_cm.c ****     return unsub_func(topic);
 890              		.loc 1 180 5
 891 0072 8840     		lw	a0,0(s1)
 179:C:/Users/stapi/OneDrive/Desktop/GD32VW553/V1_MQTT_OK/GD32VW55X_Wifi_BLE_SDK/GD32VW55x_RELEASE_V1.0.2/MSDK/cloud/alicloud/src/services/linkkit/cm\iotx_cm.c ****     HAL_MutexUnlock(fd_lock);
 892              		.loc 1 179 16
 893 0074 C04F     		lw	s0,28(a5)
 894              	.LVL113:
 180:C:/Users/stapi/OneDrive/Desktop/GD32VW553/V1_MQTT_OK/GD32VW55X_Wifi_BLE_SDK/GD32VW55x_RELEASE_V1.0.2/MSDK/cloud/alicloud/src/services/linkkit/cm\iotx_cm.c ****     return unsub_func(topic);
 895              		.loc 1 180 5 is_stmt 1
 896 0076 97000000 		call	HAL_MutexUnlock
 896      E7800000 
 897              	.LVL114:
 181:C:/Users/stapi/OneDrive/Desktop/GD32VW553/V1_MQTT_OK/GD32VW55X_Wifi_BLE_SDK/GD32VW55x_RELEASE_V1.0.2/MSDK/cloud/alicloud/src/services/linkkit/cm\iotx_cm.c **** }
 898              		.loc 1 181 5
 181:C:/Users/stapi/OneDrive/Desktop/GD32VW553/V1_MQTT_OK/GD32VW55X_Wifi_BLE_SDK/GD32VW55x_RELEASE_V1.0.2/MSDK/cloud/alicloud/src/services/linkkit/cm\iotx_cm.c **** }
 899              		.loc 1 181 12 is_stmt 0
 900 007e 4A85     		mv	a0,s2
 901 0080 0294     		jalr	s0
 902              	.LVL115:
 903 0082 E1B7     		j	.L55
 904              		.cfi_endproc
 905              	.LFE25:
 907              		.section	.text.iotx_cm_pub,"ax",@progbits
 908              		.align	1
 909              		.globl	iotx_cm_pub
 911              	iotx_cm_pub:
 912              	.LFB26:
 187:C:/Users/stapi/OneDrive/Desktop/GD32VW553/V1_MQTT_OK/GD32VW55X_Wifi_BLE_SDK/GD32VW55x_RELEASE_V1.0.2/MSDK/cloud/alicloud/src/services/linkkit/cm\iotx_cm.c ****     if (_fd_is_valid(fd) < 0) {
 913              		.loc 1 187 1 is_stmt 1
 914              		.cfi_startproc
 915              	.LVL116:
 916 0000 17030000 		call	t0,__riscv_save_6
 916      E7020300 
 917              		.cfi_offset 21, -28
 918              		.cfi_offset 20, -24
 919              		.cfi_offset 19, -20
 920              		.cfi_offset 18, -16
 921              		.cfi_offset 9, -12
 922              		.cfi_offset 8, -8
 923              		.cfi_offset 1, -4
 924              		.cfi_def_cfa_offset 32
 188:C:/Users/stapi/OneDrive/Desktop/GD32VW553/V1_MQTT_OK/GD32VW55X_Wifi_BLE_SDK/GD32VW55x_RELEASE_V1.0.2/MSDK/cloud/alicloud/src/services/linkkit/cm\iotx_cm.c ****         CM_ERR(ERR_INVALID_PARAMS);
 925              		.loc 1 188 5
 187:C:/Users/stapi/OneDrive/Desktop/GD32VW553/V1_MQTT_OK/GD32VW55X_Wifi_BLE_SDK/GD32VW55x_RELEASE_V1.0.2/MSDK/cloud/alicloud/src/services/linkkit/cm\iotx_cm.c ****     if (_fd_is_valid(fd) < 0) {
 926              		.loc 1 187 1 is_stmt 0
 927 0008 2A84     		mv	s0,a0
 928 000a AE89     		mv	s3,a1
 929 000c 328A     		mv	s4,a2
 930 000e B68A     		mv	s5,a3
 931 0010 3A89     		mv	s2,a4
 188:C:/Users/stapi/OneDrive/Desktop/GD32VW553/V1_MQTT_OK/GD32VW55X_Wifi_BLE_SDK/GD32VW55x_RELEASE_V1.0.2/MSDK/cloud/alicloud/src/services/linkkit/cm\iotx_cm.c ****         CM_ERR(ERR_INVALID_PARAMS);
 932              		.loc 1 188 9
 933 0012 97000000 		call	_fd_is_valid
 933      E7800000 
 934              	.LVL117:
 188:C:/Users/stapi/OneDrive/Desktop/GD32VW553/V1_MQTT_OK/GD32VW55X_Wifi_BLE_SDK/GD32VW55x_RELEASE_V1.0.2/MSDK/cloud/alicloud/src/services/linkkit/cm\iotx_cm.c ****         CM_ERR(ERR_INVALID_PARAMS);
 935              		.loc 1 188 8
 936 001a 635F0502 		bge	a0,zero,.L60
 189:C:/Users/stapi/OneDrive/Desktop/GD32VW553/V1_MQTT_OK/GD32VW55X_Wifi_BLE_SDK/GD32VW55x_RELEASE_V1.0.2/MSDK/cloud/alicloud/src/services/linkkit/cm\iotx_cm.c ****         return -1;
 937              		.loc 1 189 9 is_stmt 1
 189:C:/Users/stapi/OneDrive/Desktop/GD32VW553/V1_MQTT_OK/GD32VW55X_Wifi_BLE_SDK/GD32VW55x_RELEASE_V1.0.2/MSDK/cloud/alicloud/src/services/linkkit/cm\iotx_cm.c ****         return -1;
 938              		.loc 1 189 9
 939 001e 37050000 		lui	a0,%hi(.LC0)
 940 0022 13050500 		addi	a0,a0,%lo(.LC0)
 941 0026 97000000 		call	HAL_Printf
 941      E7800000 
 942              	.LVL118:
 189:C:/Users/stapi/OneDrive/Desktop/GD32VW553/V1_MQTT_OK/GD32VW55X_Wifi_BLE_SDK/GD32VW55x_RELEASE_V1.0.2/MSDK/cloud/alicloud/src/services/linkkit/cm\iotx_cm.c ****         return -1;
 943              		.loc 1 189 9
 944 002e 37050000 		lui	a0,%hi(.LANCHOR2)
 945 0032 13050500 		addi	a0,a0,%lo(.LANCHOR2)
 946 0036 97000000 		call	HAL_Printf
 946      E7800000 
 947              	.LVL119:
 189:C:/Users/stapi/OneDrive/Desktop/GD32VW553/V1_MQTT_OK/GD32VW55X_Wifi_BLE_SDK/GD32VW55x_RELEASE_V1.0.2/MSDK/cloud/alicloud/src/services/linkkit/cm\iotx_cm.c ****         return -1;
 948              		.loc 1 189 9
 949 003e 37050000 		lui	a0,%hi(.LC3)
 950 0042 13050500 		addi	a0,a0,%lo(.LC3)
 951 0046 97000000 		call	HAL_Printf
 951      E7800000 
 952              	.LVL120:
 189:C:/Users/stapi/OneDrive/Desktop/GD32VW553/V1_MQTT_OK/GD32VW55X_Wifi_BLE_SDK/GD32VW55x_RELEASE_V1.0.2/MSDK/cloud/alicloud/src/services/linkkit/cm\iotx_cm.c ****         return -1;
 953              		.loc 1 189 9
 190:C:/Users/stapi/OneDrive/Desktop/GD32VW553/V1_MQTT_OK/GD32VW55X_Wifi_BLE_SDK/GD32VW55x_RELEASE_V1.0.2/MSDK/cloud/alicloud/src/services/linkkit/cm\iotx_cm.c ****     }
 954              		.loc 1 190 9
 190:C:/Users/stapi/OneDrive/Desktop/GD32VW553/V1_MQTT_OK/GD32VW55X_Wifi_BLE_SDK/GD32VW55x_RELEASE_V1.0.2/MSDK/cloud/alicloud/src/services/linkkit/cm\iotx_cm.c ****     }
 955              		.loc 1 190 16 is_stmt 0
 956 004e 7D55     		li	a0,-1
 957              	.LVL121:
 958              	.L59:
 198:C:/Users/stapi/OneDrive/Desktop/GD32VW553/V1_MQTT_OK/GD32VW55X_Wifi_BLE_SDK/GD32VW55x_RELEASE_V1.0.2/MSDK/cloud/alicloud/src/services/linkkit/cm\iotx_cm.c **** 
 959              		.loc 1 198 1
 960 0050 17030000 		tail	__riscv_restore_6
 960      67000300 
 961              		.cfi_remember_state
 962              		.cfi_restore 21
 963              		.cfi_restore 20
 964              		.cfi_restore 19
 965              		.cfi_restore 18
 966              		.cfi_restore 9
 967              		.cfi_restore 8
 968              		.cfi_restore 1
 969              		.cfi_def_cfa_offset 0
 970              	.LVL122:
 971              	.L60:
 972              		.cfi_restore_state
 193:C:/Users/stapi/OneDrive/Desktop/GD32VW553/V1_MQTT_OK/GD32VW55X_Wifi_BLE_SDK/GD32VW55x_RELEASE_V1.0.2/MSDK/cloud/alicloud/src/services/linkkit/cm\iotx_cm.c ****     HAL_MutexLock(fd_lock);
 973              		.loc 1 193 5 is_stmt 1
 194:C:/Users/stapi/OneDrive/Desktop/GD32VW553/V1_MQTT_OK/GD32VW55X_Wifi_BLE_SDK/GD32VW55x_RELEASE_V1.0.2/MSDK/cloud/alicloud/src/services/linkkit/cm\iotx_cm.c ****     pub_func =  _cm_fd[fd]->pub_func;
 974              		.loc 1 194 5
 975 0058 B7040000 		lui	s1,%hi(.LANCHOR0)
 976 005c 93840400 		addi	s1,s1,%lo(.LANCHOR0)
 977 0060 8840     		lw	a0,0(s1)
 978 0062 97000000 		call	HAL_MutexLock
 978      E7800000 
 979              	.LVL123:
 195:C:/Users/stapi/OneDrive/Desktop/GD32VW553/V1_MQTT_OK/GD32VW55X_Wifi_BLE_SDK/GD32VW55x_RELEASE_V1.0.2/MSDK/cloud/alicloud/src/services/linkkit/cm\iotx_cm.c ****     HAL_MutexUnlock(fd_lock);
 980              		.loc 1 195 5
 195:C:/Users/stapi/OneDrive/Desktop/GD32VW553/V1_MQTT_OK/GD32VW55X_Wifi_BLE_SDK/GD32VW55x_RELEASE_V1.0.2/MSDK/cloud/alicloud/src/services/linkkit/cm\iotx_cm.c ****     HAL_MutexUnlock(fd_lock);
 981              		.loc 1 195 23 is_stmt 0
 982 006a 37050000 		lui	a0,%hi(.LANCHOR1)
 983 006e 13050500 		addi	a0,a0,%lo(.LANCHOR1)
 984 0072 3344A420 		sh2add	s0,s0,a0
 985              	.LVL124:
 195:C:/Users/stapi/OneDrive/Desktop/GD32VW553/V1_MQTT_OK/GD32VW55X_Wifi_BLE_SDK/GD32VW55x_RELEASE_V1.0.2/MSDK/cloud/alicloud/src/services/linkkit/cm\iotx_cm.c ****     HAL_MutexUnlock(fd_lock);
 986              		.loc 1 195 14
 987 0076 1C40     		lw	a5,0(s0)
 196:C:/Users/stapi/OneDrive/Desktop/GD32VW553/V1_MQTT_OK/GD32VW55X_Wifi_BLE_SDK/GD32VW55x_RELEASE_V1.0.2/MSDK/cloud/alicloud/src/services/linkkit/cm\iotx_cm.c ****     return pub_func(ext, topic, payload, payload_len);
 988              		.loc 1 196 5
 989 0078 8840     		lw	a0,0(s1)
 195:C:/Users/stapi/OneDrive/Desktop/GD32VW553/V1_MQTT_OK/GD32VW55X_Wifi_BLE_SDK/GD32VW55x_RELEASE_V1.0.2/MSDK/cloud/alicloud/src/services/linkkit/cm\iotx_cm.c ****     HAL_MutexUnlock(fd_lock);
 990              		.loc 1 195 14
 991 007a 8053     		lw	s0,32(a5)
 992              	.LVL125:
 196:C:/Users/stapi/OneDrive/Desktop/GD32VW553/V1_MQTT_OK/GD32VW55X_Wifi_BLE_SDK/GD32VW55x_RELEASE_V1.0.2/MSDK/cloud/alicloud/src/services/linkkit/cm\iotx_cm.c ****     return pub_func(ext, topic, payload, payload_len);
 993              		.loc 1 196 5 is_stmt 1
 994 007c 97000000 		call	HAL_MutexUnlock
 994      E7800000 
 995              	.LVL126:
 197:C:/Users/stapi/OneDrive/Desktop/GD32VW553/V1_MQTT_OK/GD32VW55X_Wifi_BLE_SDK/GD32VW55x_RELEASE_V1.0.2/MSDK/cloud/alicloud/src/services/linkkit/cm\iotx_cm.c **** }
 996              		.loc 1 197 5
 197:C:/Users/stapi/OneDrive/Desktop/GD32VW553/V1_MQTT_OK/GD32VW55X_Wifi_BLE_SDK/GD32VW55x_RELEASE_V1.0.2/MSDK/cloud/alicloud/src/services/linkkit/cm\iotx_cm.c **** }
 997              		.loc 1 197 12 is_stmt 0
 998 0084 CA86     		mv	a3,s2
 999 0086 5686     		mv	a2,s5
 1000 0088 D285     		mv	a1,s4
 1001 008a 4E85     		mv	a0,s3
 1002 008c 0294     		jalr	s0
 1003              	.LVL127:
 1004 008e C9B7     		j	.L59
 1005              		.cfi_endproc
 1006              	.LFE26:
 1008              		.section	.text.iotx_cm_close,"ax",@progbits
 1009              		.align	1
 1010              		.globl	iotx_cm_close
 1012              	iotx_cm_close:
 1013              	.LFB27:
 201:C:/Users/stapi/OneDrive/Desktop/GD32VW553/V1_MQTT_OK/GD32VW55X_Wifi_BLE_SDK/GD32VW55x_RELEASE_V1.0.2/MSDK/cloud/alicloud/src/services/linkkit/cm\iotx_cm.c ****     if (_fd_is_valid(fd) < 0) {
 1014              		.loc 1 201 1 is_stmt 1
 1015              		.cfi_startproc
 1016              	.LVL128:
 1017 0000 17030000 		call	t0,__riscv_save_7
 1017      E7020300 
 1018              		.cfi_offset 22, -32
 1019              		.cfi_offset 21, -28
 1020              		.cfi_offset 20, -24
 1021              		.cfi_offset 19, -20
 1022              		.cfi_offset 18, -16
 1023              		.cfi_offset 9, -12
 1024              		.cfi_offset 8, -8
 1025              		.cfi_offset 1, -4
 1026              		.cfi_def_cfa_offset 32
 202:C:/Users/stapi/OneDrive/Desktop/GD32VW553/V1_MQTT_OK/GD32VW55X_Wifi_BLE_SDK/GD32VW55x_RELEASE_V1.0.2/MSDK/cloud/alicloud/src/services/linkkit/cm\iotx_cm.c ****         CM_ERR(ERR_INVALID_PARAMS);
 1027              		.loc 1 202 5
 201:C:/Users/stapi/OneDrive/Desktop/GD32VW553/V1_MQTT_OK/GD32VW55X_Wifi_BLE_SDK/GD32VW55x_RELEASE_V1.0.2/MSDK/cloud/alicloud/src/services/linkkit/cm\iotx_cm.c ****     if (_fd_is_valid(fd) < 0) {
 1028              		.loc 1 201 1 is_stmt 0
 1029 0008 AA89     		mv	s3,a0
 202:C:/Users/stapi/OneDrive/Desktop/GD32VW553/V1_MQTT_OK/GD32VW55X_Wifi_BLE_SDK/GD32VW55x_RELEASE_V1.0.2/MSDK/cloud/alicloud/src/services/linkkit/cm\iotx_cm.c ****         CM_ERR(ERR_INVALID_PARAMS);
 1030              		.loc 1 202 9
 1031 000a 97000000 		call	_fd_is_valid
 1031      E7800000 
 1032              	.LVL129:
 202:C:/Users/stapi/OneDrive/Desktop/GD32VW553/V1_MQTT_OK/GD32VW55X_Wifi_BLE_SDK/GD32VW55x_RELEASE_V1.0.2/MSDK/cloud/alicloud/src/services/linkkit/cm\iotx_cm.c ****         CM_ERR(ERR_INVALID_PARAMS);
 1033              		.loc 1 202 8
 1034 0012 63500504 		bge	a0,zero,.L64
 203:C:/Users/stapi/OneDrive/Desktop/GD32VW553/V1_MQTT_OK/GD32VW55X_Wifi_BLE_SDK/GD32VW55x_RELEASE_V1.0.2/MSDK/cloud/alicloud/src/services/linkkit/cm\iotx_cm.c ****         return -1;
 1035              		.loc 1 203 9 is_stmt 1
 203:C:/Users/stapi/OneDrive/Desktop/GD32VW553/V1_MQTT_OK/GD32VW55X_Wifi_BLE_SDK/GD32VW55x_RELEASE_V1.0.2/MSDK/cloud/alicloud/src/services/linkkit/cm\iotx_cm.c ****         return -1;
 1036              		.loc 1 203 9
 1037 0016 37050000 		lui	a0,%hi(.LC0)
 1038 001a 13050500 		addi	a0,a0,%lo(.LC0)
 1039 001e 97000000 		call	HAL_Printf
 1039      E7800000 
 1040              	.LVL130:
 203:C:/Users/stapi/OneDrive/Desktop/GD32VW553/V1_MQTT_OK/GD32VW55X_Wifi_BLE_SDK/GD32VW55x_RELEASE_V1.0.2/MSDK/cloud/alicloud/src/services/linkkit/cm\iotx_cm.c ****         return -1;
 1041              		.loc 1 203 9
 1042 0026 37050000 		lui	a0,%hi(.LANCHOR2)
 1043 002a 13050500 		addi	a0,a0,%lo(.LANCHOR2)
 1044 002e 97000000 		call	HAL_Printf
 1044      E7800000 
 1045              	.LVL131:
 203:C:/Users/stapi/OneDrive/Desktop/GD32VW553/V1_MQTT_OK/GD32VW55X_Wifi_BLE_SDK/GD32VW55x_RELEASE_V1.0.2/MSDK/cloud/alicloud/src/services/linkkit/cm\iotx_cm.c ****         return -1;
 1046              		.loc 1 203 9
 1047 0036 37050000 		lui	a0,%hi(.LC3)
 1048 003a 13050500 		addi	a0,a0,%lo(.LC3)
 1049 003e 97000000 		call	HAL_Printf
 1049      E7800000 
 1050              	.LVL132:
 203:C:/Users/stapi/OneDrive/Desktop/GD32VW553/V1_MQTT_OK/GD32VW55X_Wifi_BLE_SDK/GD32VW55x_RELEASE_V1.0.2/MSDK/cloud/alicloud/src/services/linkkit/cm\iotx_cm.c ****         return -1;
 1051              		.loc 1 203 9
 204:C:/Users/stapi/OneDrive/Desktop/GD32VW553/V1_MQTT_OK/GD32VW55X_Wifi_BLE_SDK/GD32VW55x_RELEASE_V1.0.2/MSDK/cloud/alicloud/src/services/linkkit/cm\iotx_cm.c ****     }
 1052              		.loc 1 204 9
 1053              	.L68:
 227:C:/Users/stapi/OneDrive/Desktop/GD32VW553/V1_MQTT_OK/GD32VW55X_Wifi_BLE_SDK/GD32VW55x_RELEASE_V1.0.2/MSDK/cloud/alicloud/src/services/linkkit/cm\iotx_cm.c ****     }
 1054              		.loc 1 227 16 is_stmt 0
 1055 0046 FD54     		li	s1,-1
 1056              	.L63:
 241:C:/Users/stapi/OneDrive/Desktop/GD32VW553/V1_MQTT_OK/GD32VW55X_Wifi_BLE_SDK/GD32VW55x_RELEASE_V1.0.2/MSDK/cloud/alicloud/src/services/linkkit/cm\iotx_cm.c **** 
 1057              		.loc 1 241 1
 1058 0048 2685     		mv	a0,s1
 1059 004a 17030000 		tail	__riscv_restore_7
 1059      67000300 
 1060              		.cfi_remember_state
 1061              		.cfi_restore 22
 1062              		.cfi_restore 21
 1063              		.cfi_restore 20
 1064              		.cfi_restore 19
 1065              		.cfi_restore 18
 1066              		.cfi_restore 9
 1067              		.cfi_restore 8
 1068              		.cfi_restore 1
 1069              		.cfi_def_cfa_offset 0
 1070              	.L64:
 1071              		.cfi_restore_state
 207:C:/Users/stapi/OneDrive/Desktop/GD32VW553/V1_MQTT_OK/GD32VW55X_Wifi_BLE_SDK/GD32VW55x_RELEASE_V1.0.2/MSDK/cloud/alicloud/src/services/linkkit/cm\iotx_cm.c ****         inited_conn_num--;
 1072              		.loc 1 207 5 is_stmt 1
 207:C:/Users/stapi/OneDrive/Desktop/GD32VW553/V1_MQTT_OK/GD32VW55X_Wifi_BLE_SDK/GD32VW55x_RELEASE_V1.0.2/MSDK/cloud/alicloud/src/services/linkkit/cm\iotx_cm.c ****         inited_conn_num--;
 1073              		.loc 1 207 25 is_stmt 0
 1074 0052 37090000 		lui	s2,%hi(.LANCHOR3)
 1075 0056 83270900 		lw	a5,%lo(.LANCHOR3)(s2)
 1076 005a 13090900 		addi	s2,s2,%lo(.LANCHOR3)
 207:C:/Users/stapi/OneDrive/Desktop/GD32VW553/V1_MQTT_OK/GD32VW55X_Wifi_BLE_SDK/GD32VW55x_RELEASE_V1.0.2/MSDK/cloud/alicloud/src/services/linkkit/cm\iotx_cm.c ****         inited_conn_num--;
 1077              		.loc 1 207 8
 1078 005e 6355F000 		ble	a5,zero,.L66
 208:C:/Users/stapi/OneDrive/Desktop/GD32VW553/V1_MQTT_OK/GD32VW55X_Wifi_BLE_SDK/GD32VW55x_RELEASE_V1.0.2/MSDK/cloud/alicloud/src/services/linkkit/cm\iotx_cm.c ****     }
 1079              		.loc 1 208 9 is_stmt 1
 208:C:/Users/stapi/OneDrive/Desktop/GD32VW553/V1_MQTT_OK/GD32VW55X_Wifi_BLE_SDK/GD32VW55x_RELEASE_V1.0.2/MSDK/cloud/alicloud/src/services/linkkit/cm\iotx_cm.c ****     }
 1080              		.loc 1 208 24 is_stmt 0
 1081 0062 FD17     		addi	a5,a5,-1
 1082 0064 2320F900 		sw	a5,0(s2)
 1083              	.L66:
 211:C:/Users/stapi/OneDrive/Desktop/GD32VW553/V1_MQTT_OK/GD32VW55X_Wifi_BLE_SDK/GD32VW55x_RELEASE_V1.0.2/MSDK/cloud/alicloud/src/services/linkkit/cm\iotx_cm.c **** #if (CONFIG_SDK_THREAD_COST == 1)
 1084              		.loc 1 211 5 is_stmt 1
 220:C:/Users/stapi/OneDrive/Desktop/GD32VW553/V1_MQTT_OK/GD32VW55X_Wifi_BLE_SDK/GD32VW55x_RELEASE_V1.0.2/MSDK/cloud/alicloud/src/services/linkkit/cm\iotx_cm.c **** 
 1085              		.loc 1 220 5
 222:C:/Users/stapi/OneDrive/Desktop/GD32VW553/V1_MQTT_OK/GD32VW55X_Wifi_BLE_SDK/GD32VW55x_RELEASE_V1.0.2/MSDK/cloud/alicloud/src/services/linkkit/cm\iotx_cm.c ****     HAL_MutexLock(fd_lock);
 1086              		.loc 1 222 5
 223:C:/Users/stapi/OneDrive/Desktop/GD32VW553/V1_MQTT_OK/GD32VW55X_Wifi_BLE_SDK/GD32VW55x_RELEASE_V1.0.2/MSDK/cloud/alicloud/src/services/linkkit/cm\iotx_cm.c ****     close_func = _cm_fd[fd]->close_func;
 1087              		.loc 1 223 5
 1088 0068 37040000 		lui	s0,%hi(.LANCHOR0)
 1089 006c 130B0400 		addi	s6,s0,%lo(.LANCHOR0)
 1090 0070 03250B00 		lw	a0,0(s6)
 224:C:/Users/stapi/OneDrive/Desktop/GD32VW553/V1_MQTT_OK/GD32VW55X_Wifi_BLE_SDK/GD32VW55x_RELEASE_V1.0.2/MSDK/cloud/alicloud/src/services/linkkit/cm\iotx_cm.c ****     HAL_MutexUnlock(fd_lock);
 1091              		.loc 1 224 24 is_stmt 0
 1092 0074 B7040000 		lui	s1,%hi(.LANCHOR1)
 1093 0078 939A2900 		slli	s5,s3,2
 223:C:/Users/stapi/OneDrive/Desktop/GD32VW553/V1_MQTT_OK/GD32VW55X_Wifi_BLE_SDK/GD32VW55x_RELEASE_V1.0.2/MSDK/cloud/alicloud/src/services/linkkit/cm\iotx_cm.c ****     close_func = _cm_fd[fd]->close_func;
 1094              		.loc 1 223 5
 1095 007c 97000000 		call	HAL_MutexLock
 1095      E7800000 
 1096              	.LVL133:
 224:C:/Users/stapi/OneDrive/Desktop/GD32VW553/V1_MQTT_OK/GD32VW55X_Wifi_BLE_SDK/GD32VW55x_RELEASE_V1.0.2/MSDK/cloud/alicloud/src/services/linkkit/cm\iotx_cm.c ****     HAL_MutexUnlock(fd_lock);
 1097              		.loc 1 224 5 is_stmt 1
 224:C:/Users/stapi/OneDrive/Desktop/GD32VW553/V1_MQTT_OK/GD32VW55X_Wifi_BLE_SDK/GD32VW55x_RELEASE_V1.0.2/MSDK/cloud/alicloud/src/services/linkkit/cm\iotx_cm.c ****     HAL_MutexUnlock(fd_lock);
 1098              		.loc 1 224 24 is_stmt 0
 1099 0084 93870400 		addi	a5,s1,%lo(.LANCHOR1)
 1100 0088 D697     		add	a5,a5,s5
 224:C:/Users/stapi/OneDrive/Desktop/GD32VW553/V1_MQTT_OK/GD32VW55X_Wifi_BLE_SDK/GD32VW55x_RELEASE_V1.0.2/MSDK/cloud/alicloud/src/services/linkkit/cm\iotx_cm.c ****     HAL_MutexUnlock(fd_lock);
 1101              		.loc 1 224 16
 1102 008a 9C43     		lw	a5,0(a5)
 225:C:/Users/stapi/OneDrive/Desktop/GD32VW553/V1_MQTT_OK/GD32VW55X_Wifi_BLE_SDK/GD32VW55x_RELEASE_V1.0.2/MSDK/cloud/alicloud/src/services/linkkit/cm\iotx_cm.c ****     if (close_func == NULL || close_func() != 0) {
 1103              		.loc 1 225 5
 1104 008c 03250B00 		lw	a0,0(s6)
 1105 0090 13040400 		addi	s0,s0,%lo(.LANCHOR0)
 224:C:/Users/stapi/OneDrive/Desktop/GD32VW553/V1_MQTT_OK/GD32VW55X_Wifi_BLE_SDK/GD32VW55x_RELEASE_V1.0.2/MSDK/cloud/alicloud/src/services/linkkit/cm\iotx_cm.c ****     HAL_MutexUnlock(fd_lock);
 1106              		.loc 1 224 16
 1107 0094 03AA8702 		lw	s4,40(a5)
 1108              	.LVL134:
 225:C:/Users/stapi/OneDrive/Desktop/GD32VW553/V1_MQTT_OK/GD32VW55X_Wifi_BLE_SDK/GD32VW55x_RELEASE_V1.0.2/MSDK/cloud/alicloud/src/services/linkkit/cm\iotx_cm.c ****     if (close_func == NULL || close_func() != 0) {
 1109              		.loc 1 225 5 is_stmt 1
 1110 0098 93840400 		addi	s1,s1,%lo(.LANCHOR1)
 1111 009c 97000000 		call	HAL_MutexUnlock
 1111      E7800000 
 1112              	.LVL135:
 226:C:/Users/stapi/OneDrive/Desktop/GD32VW553/V1_MQTT_OK/GD32VW55X_Wifi_BLE_SDK/GD32VW55x_RELEASE_V1.0.2/MSDK/cloud/alicloud/src/services/linkkit/cm\iotx_cm.c ****         return -1;
 1113              		.loc 1 226 5
 226:C:/Users/stapi/OneDrive/Desktop/GD32VW553/V1_MQTT_OK/GD32VW55X_Wifi_BLE_SDK/GD32VW55x_RELEASE_V1.0.2/MSDK/cloud/alicloud/src/services/linkkit/cm\iotx_cm.c ****         return -1;
 1114              		.loc 1 226 8 is_stmt 0
 1115 00a4 E3010AFA 		beq	s4,zero,.L68
 226:C:/Users/stapi/OneDrive/Desktop/GD32VW553/V1_MQTT_OK/GD32VW55X_Wifi_BLE_SDK/GD32VW55x_RELEASE_V1.0.2/MSDK/cloud/alicloud/src/services/linkkit/cm\iotx_cm.c ****         return -1;
 1116              		.loc 1 226 31 discriminator 1
 1117 00a8 029A     		jalr	s4
 1118              	.LVL136:
 226:C:/Users/stapi/OneDrive/Desktop/GD32VW553/V1_MQTT_OK/GD32VW55X_Wifi_BLE_SDK/GD32VW55x_RELEASE_V1.0.2/MSDK/cloud/alicloud/src/services/linkkit/cm\iotx_cm.c ****         return -1;
 1119              		.loc 1 226 28 discriminator 1
 1120 00aa 51FD     		bne	a0,zero,.L68
 229:C:/Users/stapi/OneDrive/Desktop/GD32VW553/V1_MQTT_OK/GD32VW55X_Wifi_BLE_SDK/GD32VW55x_RELEASE_V1.0.2/MSDK/cloud/alicloud/src/services/linkkit/cm\iotx_cm.c ****         return -1;
 1121              		.loc 1 229 5 is_stmt 1
 1122              	.LVL137:
 1123              	.LBB26:
 1124              	.LBB27:
 255:C:/Users/stapi/OneDrive/Desktop/GD32VW553/V1_MQTT_OK/GD32VW55X_Wifi_BLE_SDK/GD32VW55x_RELEASE_V1.0.2/MSDK/cloud/alicloud/src/services/linkkit/cm\iotx_cm.c ****         fd_lock = HAL_MutexCreate();
 1125              		.loc 1 255 5
 255:C:/Users/stapi/OneDrive/Desktop/GD32VW553/V1_MQTT_OK/GD32VW55X_Wifi_BLE_SDK/GD32VW55x_RELEASE_V1.0.2/MSDK/cloud/alicloud/src/services/linkkit/cm\iotx_cm.c ****         fd_lock = HAL_MutexCreate();
 1126              		.loc 1 255 8 is_stmt 0
 1127 00ac 1C40     		lw	a5,0(s0)
 1128 00ae 8DCF     		beq	a5,zero,.L69
 1129              	.L71:
 262:C:/Users/stapi/OneDrive/Desktop/GD32VW553/V1_MQTT_OK/GD32VW55X_Wifi_BLE_SDK/GD32VW55x_RELEASE_V1.0.2/MSDK/cloud/alicloud/src/services/linkkit/cm\iotx_cm.c ****         return -1;
 1130              		.loc 1 262 5 is_stmt 1
 262:C:/Users/stapi/OneDrive/Desktop/GD32VW553/V1_MQTT_OK/GD32VW55X_Wifi_BLE_SDK/GD32VW55x_RELEASE_V1.0.2/MSDK/cloud/alicloud/src/services/linkkit/cm\iotx_cm.c ****         return -1;
 1131              		.loc 1 262 8 is_stmt 0
 1132 00b0 8947     		li	a5,2
 1133 00b2 E3EA37F9 		bgtu	s3,a5,.L68
 266:C:/Users/stapi/OneDrive/Desktop/GD32VW553/V1_MQTT_OK/GD32VW55X_Wifi_BLE_SDK/GD32VW55x_RELEASE_V1.0.2/MSDK/cloud/alicloud/src/services/linkkit/cm\iotx_cm.c ****     _cm_fd[fd] = NULL;
 1134              		.loc 1 266 5 is_stmt 1
 1135 00b6 0840     		lw	a0,0(s0)
 267:C:/Users/stapi/OneDrive/Desktop/GD32VW553/V1_MQTT_OK/GD32VW55X_Wifi_BLE_SDK/GD32VW55x_RELEASE_V1.0.2/MSDK/cloud/alicloud/src/services/linkkit/cm\iotx_cm.c ****     HAL_MutexUnlock(fd_lock);
 1136              		.loc 1 267 16 is_stmt 0
 1137 00b8 D694     		add	s1,s1,s5
 266:C:/Users/stapi/OneDrive/Desktop/GD32VW553/V1_MQTT_OK/GD32VW55X_Wifi_BLE_SDK/GD32VW55x_RELEASE_V1.0.2/MSDK/cloud/alicloud/src/services/linkkit/cm\iotx_cm.c ****     _cm_fd[fd] = NULL;
 1138              		.loc 1 266 5
 1139 00ba 97000000 		call	HAL_MutexLock
 1139      E7800000 
 1140              	.LVL138:
 267:C:/Users/stapi/OneDrive/Desktop/GD32VW553/V1_MQTT_OK/GD32VW55X_Wifi_BLE_SDK/GD32VW55x_RELEASE_V1.0.2/MSDK/cloud/alicloud/src/services/linkkit/cm\iotx_cm.c ****     HAL_MutexUnlock(fd_lock);
 1141              		.loc 1 267 5 is_stmt 1
 268:C:/Users/stapi/OneDrive/Desktop/GD32VW553/V1_MQTT_OK/GD32VW55X_Wifi_BLE_SDK/GD32VW55x_RELEASE_V1.0.2/MSDK/cloud/alicloud/src/services/linkkit/cm\iotx_cm.c **** 
 1142              		.loc 1 268 5 is_stmt 0
 1143 00c2 0840     		lw	a0,0(s0)
 267:C:/Users/stapi/OneDrive/Desktop/GD32VW553/V1_MQTT_OK/GD32VW55X_Wifi_BLE_SDK/GD32VW55x_RELEASE_V1.0.2/MSDK/cloud/alicloud/src/services/linkkit/cm\iotx_cm.c ****     HAL_MutexUnlock(fd_lock);
 1144              		.loc 1 267 16
 1145 00c4 23A00400 		sw	zero,0(s1)
 268:C:/Users/stapi/OneDrive/Desktop/GD32VW553/V1_MQTT_OK/GD32VW55X_Wifi_BLE_SDK/GD32VW55x_RELEASE_V1.0.2/MSDK/cloud/alicloud/src/services/linkkit/cm\iotx_cm.c **** 
 1146              		.loc 1 268 5 is_stmt 1
 1147 00c8 97000000 		call	HAL_MutexUnlock
 1147      E7800000 
 1148              	.LVL139:
 270:C:/Users/stapi/OneDrive/Desktop/GD32VW553/V1_MQTT_OK/GD32VW55X_Wifi_BLE_SDK/GD32VW55x_RELEASE_V1.0.2/MSDK/cloud/alicloud/src/services/linkkit/cm\iotx_cm.c **** }
 1149              		.loc 1 270 5
 1150              	.LBE27:
 1151              	.LBE26:
 233:C:/Users/stapi/OneDrive/Desktop/GD32VW553/V1_MQTT_OK/GD32VW55X_Wifi_BLE_SDK/GD32VW55x_RELEASE_V1.0.2/MSDK/cloud/alicloud/src/services/linkkit/cm\iotx_cm.c ****         if (fd_lock != NULL) {
 1152              		.loc 1 233 5
 233:C:/Users/stapi/OneDrive/Desktop/GD32VW553/V1_MQTT_OK/GD32VW55X_Wifi_BLE_SDK/GD32VW55x_RELEASE_V1.0.2/MSDK/cloud/alicloud/src/services/linkkit/cm\iotx_cm.c ****         if (fd_lock != NULL) {
 1153              		.loc 1 233 25 is_stmt 0
 1154 00d0 83240900 		lw	s1,0(s2)
 233:C:/Users/stapi/OneDrive/Desktop/GD32VW553/V1_MQTT_OK/GD32VW55X_Wifi_BLE_SDK/GD32VW55x_RELEASE_V1.0.2/MSDK/cloud/alicloud/src/services/linkkit/cm\iotx_cm.c ****         if (fd_lock != NULL) {
 1155              		.loc 1 233 8
 1156 00d4 8DE0     		bne	s1,zero,.L72
 234:C:/Users/stapi/OneDrive/Desktop/GD32VW553/V1_MQTT_OK/GD32VW55X_Wifi_BLE_SDK/GD32VW55x_RELEASE_V1.0.2/MSDK/cloud/alicloud/src/services/linkkit/cm\iotx_cm.c ****             HAL_MutexDestroy(fd_lock);
 1157              		.loc 1 234 9 is_stmt 1
 234:C:/Users/stapi/OneDrive/Desktop/GD32VW553/V1_MQTT_OK/GD32VW55X_Wifi_BLE_SDK/GD32VW55x_RELEASE_V1.0.2/MSDK/cloud/alicloud/src/services/linkkit/cm\iotx_cm.c ****             HAL_MutexDestroy(fd_lock);
 1158              		.loc 1 234 21 is_stmt 0
 1159 00d6 0840     		lw	a0,0(s0)
 234:C:/Users/stapi/OneDrive/Desktop/GD32VW553/V1_MQTT_OK/GD32VW55X_Wifi_BLE_SDK/GD32VW55x_RELEASE_V1.0.2/MSDK/cloud/alicloud/src/services/linkkit/cm\iotx_cm.c ****             HAL_MutexDestroy(fd_lock);
 1160              		.loc 1 234 12
 1161 00d8 25D9     		beq	a0,zero,.L63
 235:C:/Users/stapi/OneDrive/Desktop/GD32VW553/V1_MQTT_OK/GD32VW55X_Wifi_BLE_SDK/GD32VW55x_RELEASE_V1.0.2/MSDK/cloud/alicloud/src/services/linkkit/cm\iotx_cm.c ****             fd_lock = NULL;
 1162              		.loc 1 235 13 is_stmt 1
 1163 00da 97000000 		call	HAL_MutexDestroy
 1163      E7800000 
 1164              	.LVL140:
 236:C:/Users/stapi/OneDrive/Desktop/GD32VW553/V1_MQTT_OK/GD32VW55X_Wifi_BLE_SDK/GD32VW55x_RELEASE_V1.0.2/MSDK/cloud/alicloud/src/services/linkkit/cm\iotx_cm.c ****         }
 1165              		.loc 1 236 13
 236:C:/Users/stapi/OneDrive/Desktop/GD32VW553/V1_MQTT_OK/GD32VW55X_Wifi_BLE_SDK/GD32VW55x_RELEASE_V1.0.2/MSDK/cloud/alicloud/src/services/linkkit/cm\iotx_cm.c ****         }
 1166              		.loc 1 236 21 is_stmt 0
 1167 00e2 23200400 		sw	zero,0(s0)
 1168 00e6 8DB7     		j	.L63
 1169              	.LVL141:
 1170              	.L69:
 1171              	.LBB29:
 1172              	.LBB28:
 256:C:/Users/stapi/OneDrive/Desktop/GD32VW553/V1_MQTT_OK/GD32VW55X_Wifi_BLE_SDK/GD32VW55x_RELEASE_V1.0.2/MSDK/cloud/alicloud/src/services/linkkit/cm\iotx_cm.c ****         if (fd_lock == NULL) {
 1173              		.loc 1 256 9 is_stmt 1
 256:C:/Users/stapi/OneDrive/Desktop/GD32VW553/V1_MQTT_OK/GD32VW55X_Wifi_BLE_SDK/GD32VW55x_RELEASE_V1.0.2/MSDK/cloud/alicloud/src/services/linkkit/cm\iotx_cm.c ****         if (fd_lock == NULL) {
 1174              		.loc 1 256 19 is_stmt 0
 1175 00e8 97000000 		call	HAL_MutexCreate
 1175      E7800000 
 1176              	.LVL142:
 256:C:/Users/stapi/OneDrive/Desktop/GD32VW553/V1_MQTT_OK/GD32VW55X_Wifi_BLE_SDK/GD32VW55x_RELEASE_V1.0.2/MSDK/cloud/alicloud/src/services/linkkit/cm\iotx_cm.c ****         if (fd_lock == NULL) {
 1177              		.loc 1 256 17
 1178 00f0 08C0     		sw	a0,0(s0)
 257:C:/Users/stapi/OneDrive/Desktop/GD32VW553/V1_MQTT_OK/GD32VW55X_Wifi_BLE_SDK/GD32VW55x_RELEASE_V1.0.2/MSDK/cloud/alicloud/src/services/linkkit/cm\iotx_cm.c ****             return -1;
 1179              		.loc 1 257 9 is_stmt 1
 257:C:/Users/stapi/OneDrive/Desktop/GD32VW553/V1_MQTT_OK/GD32VW55X_Wifi_BLE_SDK/GD32VW55x_RELEASE_V1.0.2/MSDK/cloud/alicloud/src/services/linkkit/cm\iotx_cm.c ****             return -1;
 1180              		.loc 1 257 12 is_stmt 0
 1181 00f2 5DFD     		bne	a0,zero,.L71
 1182 00f4 89BF     		j	.L68
 1183              	.LVL143:
 1184              	.L72:
 1185              	.LBE28:
 1186              	.LBE29:
 240:C:/Users/stapi/OneDrive/Desktop/GD32VW553/V1_MQTT_OK/GD32VW55X_Wifi_BLE_SDK/GD32VW55x_RELEASE_V1.0.2/MSDK/cloud/alicloud/src/services/linkkit/cm\iotx_cm.c **** }
 1187              		.loc 1 240 12
 1188 00f6 8144     		li	s1,0
 1189 00f8 81BF     		j	.L63
 1190              		.cfi_endproc
 1191              	.LFE27:
 1193              		.globl	ERR_INVALID_PARAMS
 1194              		.section	.bss._cm_fd,"aw",@nobits
 1195              		.align	2
 1196              		.set	.LANCHOR1,. + 0
 1199              	_cm_fd:
 1200 0000 00000000 		.zero	12
 1200      00000000 
 1200      00000000 
 1201              		.section	.rodata.ERR_INVALID_PARAMS,"a"
 1202              		.align	2
 1203              		.set	.LANCHOR2,. + 0
 1206              	ERR_INVALID_PARAMS:
 1207 0000 696E7661 		.string	"invalid parameter"
 1207      6C696420 
 1207      70617261 
 1207      6D657465 
 1207      7200
 1208              		.section	.sbss.fd_lock,"aw",@nobits
 1209              		.align	2
 1210              		.set	.LANCHOR0,. + 0
 1213              	fd_lock:
 1214 0000 00000000 		.zero	4
 1215              		.section	.sbss.inited_conn_num,"aw",@nobits
 1216              		.align	2
 1217              		.set	.LANCHOR3,. + 0
 1220              	inited_conn_num:
 1221 0000 00000000 		.zero	4
 1222              		.text
 1223              	.Letext0:
 1224              		.file 2 "c:\\users\\stapi\\onedrive\\desktop\\gd32vw553\\embeddedbuilder_v1.4.7.26843\\tools\\nucl
 1225              		.file 3 "c:\\users\\stapi\\onedrive\\desktop\\gd32vw553\\embeddedbuilder_v1.4.7.26843\\tools\\nucl
 1226              		.file 4 "..\\..\\..\\..\\cloud\\alicloud\\include/exports/iot_export_errno.h"
 1227              		.file 5 "..\\..\\..\\..\\cloud\\alicloud\\include/exports/iot_export_event.h"
 1228              		.file 6 "..\\..\\..\\..\\cloud\\alicloud\\src\\services\\linkkit\\cm\\include/iotx_cm.h"
 1229              		.file 7 "C:/Users/stapi/OneDrive/Desktop/GD32VW553/V1_MQTT_OK/GD32VW55X_Wifi_BLE_SDK/GD32VW55x_REL
 1230              		.file 8 "..\\..\\..\\..\\cloud\\alicloud\\include/iot_import.h"
 1231              		.file 9 "C:/Users/stapi/OneDrive/Desktop/GD32VW553/V1_MQTT_OK/GD32VW55X_Wifi_BLE_SDK/GD32VW55x_REL