   1              		.file	"iotx_cm_mqtt.c"
   2              		.option nopic
   3              		.attribute arch, "rv32i2p0_m2p0_a2p0_f2p0_c2p0_b_p0p94"
   4              		.attribute unaligned_access, 0
   5              		.attribute stack_align, 16
   6              		.text
   7              	.Ltext0:
   8              		.cfi_sections	.debug_frame
   9              		.section	.rodata.iotx_cloud_conn_mqtt_event_handle.str1.4,"aMS",@progbits,1
  10              		.align	2
  11              	.LC0:
  12 0000 5B696E66 		.string	"[inf] "
  12      5D2000
  13 0007 00       		.align	2
  14              	.LC1:
  15 0008 64697363 		.string	"disconnected,fd = %d"
  15      6F6E6E65 
  15      63746564 
  15      2C666420 
  15      3D202564 
  16 001d 000000   		.align	2
  17              	.LC2:
  18 0020 0D0A00   		.string	"\r\n"
  19 0023 00       		.align	2
  20              	.LC3:
  21 0024 636F6E6E 		.string	"connected,fd = %d"
  21      65637465 
  21      642C6664 
  21      203D2025 
  21      6400
  22 0036 0000     		.align	2
  23              	.LC4:
  24 0038 5B657272 		.string	"[err] "
  24      5D2000
  25 003f 00       		.align	2
  26              	.LC5:
  27 0040 73756220 		.string	"sub handle is null!"
  27      68616E64 
  27      6C652069 
  27      73206E75 
  27      6C6C2100 
  28              		.align	2
  29              	.LC6:
  30 0054 746F7069 		.string	"topic malloc failed"
  30      63206D61 
  30      6C6C6F63 
  30      20666169 
  30      6C656400 
  31              		.align	2
  32              	.LC7:
  33 0068 5B77726E 		.string	"[wrn] "
  33      5D2000
  34 006f 00       		.align	2
  35              	.LC8:
  36 0070 62756666 		.string	"buffer overflow"
  36      6572206F 
  36      76657266 
  36      6C6F7700 
  37              		.align	2
  38              	.LC9:
  39 0080 6D736720 		.string	"msg type unkown, type = %d"
  39      74797065 
  39      20756E6B 
  39      6F776E2C 
  39      20747970 
  40              		.section	.text.iotx_cloud_conn_mqtt_event_handle,"ax",@progbits
  41              		.align	1
  43              	iotx_cloud_conn_mqtt_event_handle:
  44              	.LFB21:
  45              		.file 1 "C:/Users/stapi/OneDrive/Desktop/GD32VW553/V1_MQTT_OK/GD32VW55X_Wifi_BLE_SDK/GD32VW55x_REL
   1:C:/Users/stapi/OneDrive/Desktop/GD32VW553/V1_MQTT_OK/GD32VW55X_Wifi_BLE_SDK/GD32VW55x_RELEASE_V1.0.2/MSDK/cloud/alicloud/src/services/linkkit/cm\iotx_cm_mqtt.c **** #if defined(MQTT_COMM_ENABLED) || defined(MAL_ENABLED)
   2:C:/Users/stapi/OneDrive/Desktop/GD32VW553/V1_MQTT_OK/GD32VW55X_Wifi_BLE_SDK/GD32VW55x_RELEASE_V1.0.2/MSDK/cloud/alicloud/src/services/linkkit/cm\iotx_cm_mqtt.c **** #include "iot_import.h"
   3:C:/Users/stapi/OneDrive/Desktop/GD32VW553/V1_MQTT_OK/GD32VW55X_Wifi_BLE_SDK/GD32VW55x_RELEASE_V1.0.2/MSDK/cloud/alicloud/src/services/linkkit/cm\iotx_cm_mqtt.c **** #include "iotx_cm.h"
   4:C:/Users/stapi/OneDrive/Desktop/GD32VW553/V1_MQTT_OK/GD32VW55X_Wifi_BLE_SDK/GD32VW55x_RELEASE_V1.0.2/MSDK/cloud/alicloud/src/services/linkkit/cm\iotx_cm_mqtt.c **** #include "iotx_cm_internal.h"
   5:C:/Users/stapi/OneDrive/Desktop/GD32VW553/V1_MQTT_OK/GD32VW55X_Wifi_BLE_SDK/GD32VW55x_RELEASE_V1.0.2/MSDK/cloud/alicloud/src/services/linkkit/cm\iotx_cm_mqtt.c **** #include "iotx_cm_mqtt.h"
   6:C:/Users/stapi/OneDrive/Desktop/GD32VW553/V1_MQTT_OK/GD32VW55X_Wifi_BLE_SDK/GD32VW55x_RELEASE_V1.0.2/MSDK/cloud/alicloud/src/services/linkkit/cm\iotx_cm_mqtt.c **** #include "lite-list.h"
   7:C:/Users/stapi/OneDrive/Desktop/GD32VW553/V1_MQTT_OK/GD32VW55X_Wifi_BLE_SDK/GD32VW55x_RELEASE_V1.0.2/MSDK/cloud/alicloud/src/services/linkkit/cm\iotx_cm_mqtt.c **** #include "utils_timer.h"
   8:C:/Users/stapi/OneDrive/Desktop/GD32VW553/V1_MQTT_OK/GD32VW55X_Wifi_BLE_SDK/GD32VW55x_RELEASE_V1.0.2/MSDK/cloud/alicloud/src/services/linkkit/cm\iotx_cm_mqtt.c **** #include "iotx_utils.h"
   9:C:/Users/stapi/OneDrive/Desktop/GD32VW553/V1_MQTT_OK/GD32VW55X_Wifi_BLE_SDK/GD32VW55x_RELEASE_V1.0.2/MSDK/cloud/alicloud/src/services/linkkit/cm\iotx_cm_mqtt.c **** #include "iotx_system.h"
  10:C:/Users/stapi/OneDrive/Desktop/GD32VW553/V1_MQTT_OK/GD32VW55X_Wifi_BLE_SDK/GD32VW55x_RELEASE_V1.0.2/MSDK/cloud/alicloud/src/services/linkkit/cm\iotx_cm_mqtt.c **** 
  11:C:/Users/stapi/OneDrive/Desktop/GD32VW553/V1_MQTT_OK/GD32VW55X_Wifi_BLE_SDK/GD32VW55x_RELEASE_V1.0.2/MSDK/cloud/alicloud/src/services/linkkit/cm\iotx_cm_mqtt.c **** static iotx_cm_connection_t *_mqtt_conncection = NULL;
  12:C:/Users/stapi/OneDrive/Desktop/GD32VW553/V1_MQTT_OK/GD32VW55X_Wifi_BLE_SDK/GD32VW55x_RELEASE_V1.0.2/MSDK/cloud/alicloud/src/services/linkkit/cm\iotx_cm_mqtt.c **** static void iotx_cloud_conn_mqtt_event_handle(void *pcontext, void *pclient, iotx_mqtt_event_msg_pt
  13:C:/Users/stapi/OneDrive/Desktop/GD32VW553/V1_MQTT_OK/GD32VW55X_Wifi_BLE_SDK/GD32VW55x_RELEASE_V1.0.2/MSDK/cloud/alicloud/src/services/linkkit/cm\iotx_cm_mqtt.c **** static int  _mqtt_connect(uint32_t timeout);
  14:C:/Users/stapi/OneDrive/Desktop/GD32VW553/V1_MQTT_OK/GD32VW55X_Wifi_BLE_SDK/GD32VW55x_RELEASE_V1.0.2/MSDK/cloud/alicloud/src/services/linkkit/cm\iotx_cm_mqtt.c **** static int _mqtt_publish(iotx_cm_ext_params_t *params, const char *topic, const char *payload,
  15:C:/Users/stapi/OneDrive/Desktop/GD32VW553/V1_MQTT_OK/GD32VW55X_Wifi_BLE_SDK/GD32VW55x_RELEASE_V1.0.2/MSDK/cloud/alicloud/src/services/linkkit/cm\iotx_cm_mqtt.c ****                          unsigned int payload_len);
  16:C:/Users/stapi/OneDrive/Desktop/GD32VW553/V1_MQTT_OK/GD32VW55X_Wifi_BLE_SDK/GD32VW55x_RELEASE_V1.0.2/MSDK/cloud/alicloud/src/services/linkkit/cm\iotx_cm_mqtt.c **** static int _mqtt_sub(iotx_cm_ext_params_t *params, const char *topic,
  17:C:/Users/stapi/OneDrive/Desktop/GD32VW553/V1_MQTT_OK/GD32VW55X_Wifi_BLE_SDK/GD32VW55x_RELEASE_V1.0.2/MSDK/cloud/alicloud/src/services/linkkit/cm\iotx_cm_mqtt.c ****                      iotx_cm_data_handle_cb topic_handle_func, void *pcontext);
  18:C:/Users/stapi/OneDrive/Desktop/GD32VW553/V1_MQTT_OK/GD32VW55X_Wifi_BLE_SDK/GD32VW55x_RELEASE_V1.0.2/MSDK/cloud/alicloud/src/services/linkkit/cm\iotx_cm_mqtt.c **** static iotx_mqtt_qos_t _get_mqtt_qos(iotx_cm_ack_types_t ack_type);
  19:C:/Users/stapi/OneDrive/Desktop/GD32VW553/V1_MQTT_OK/GD32VW55X_Wifi_BLE_SDK/GD32VW55x_RELEASE_V1.0.2/MSDK/cloud/alicloud/src/services/linkkit/cm\iotx_cm_mqtt.c **** static int _mqtt_unsub(const char *topic);
  20:C:/Users/stapi/OneDrive/Desktop/GD32VW553/V1_MQTT_OK/GD32VW55X_Wifi_BLE_SDK/GD32VW55x_RELEASE_V1.0.2/MSDK/cloud/alicloud/src/services/linkkit/cm\iotx_cm_mqtt.c **** static int _mqtt_close();
  21:C:/Users/stapi/OneDrive/Desktop/GD32VW553/V1_MQTT_OK/GD32VW55X_Wifi_BLE_SDK/GD32VW55x_RELEASE_V1.0.2/MSDK/cloud/alicloud/src/services/linkkit/cm\iotx_cm_mqtt.c **** static void _set_common_handlers();
  22:C:/Users/stapi/OneDrive/Desktop/GD32VW553/V1_MQTT_OK/GD32VW55X_Wifi_BLE_SDK/GD32VW55x_RELEASE_V1.0.2/MSDK/cloud/alicloud/src/services/linkkit/cm\iotx_cm_mqtt.c **** 
  23:C:/Users/stapi/OneDrive/Desktop/GD32VW553/V1_MQTT_OK/GD32VW55X_Wifi_BLE_SDK/GD32VW55x_RELEASE_V1.0.2/MSDK/cloud/alicloud/src/services/linkkit/cm\iotx_cm_mqtt.c **** iotx_cm_connection_t *iotx_cm_open_mqtt(iotx_cm_init_param_t *params)
  24:C:/Users/stapi/OneDrive/Desktop/GD32VW553/V1_MQTT_OK/GD32VW55X_Wifi_BLE_SDK/GD32VW55x_RELEASE_V1.0.2/MSDK/cloud/alicloud/src/services/linkkit/cm\iotx_cm_mqtt.c **** {
  25:C:/Users/stapi/OneDrive/Desktop/GD32VW553/V1_MQTT_OK/GD32VW55X_Wifi_BLE_SDK/GD32VW55x_RELEASE_V1.0.2/MSDK/cloud/alicloud/src/services/linkkit/cm\iotx_cm_mqtt.c ****     iotx_mqtt_param_t *mqtt_param = NULL;
  26:C:/Users/stapi/OneDrive/Desktop/GD32VW553/V1_MQTT_OK/GD32VW55X_Wifi_BLE_SDK/GD32VW55x_RELEASE_V1.0.2/MSDK/cloud/alicloud/src/services/linkkit/cm\iotx_cm_mqtt.c **** 
  27:C:/Users/stapi/OneDrive/Desktop/GD32VW553/V1_MQTT_OK/GD32VW55X_Wifi_BLE_SDK/GD32VW55x_RELEASE_V1.0.2/MSDK/cloud/alicloud/src/services/linkkit/cm\iotx_cm_mqtt.c ****     if (_mqtt_conncection != NULL) {
  28:C:/Users/stapi/OneDrive/Desktop/GD32VW553/V1_MQTT_OK/GD32VW55X_Wifi_BLE_SDK/GD32VW55x_RELEASE_V1.0.2/MSDK/cloud/alicloud/src/services/linkkit/cm\iotx_cm_mqtt.c ****         CM_WARN("mqtt connection is opened already,return it");
  29:C:/Users/stapi/OneDrive/Desktop/GD32VW553/V1_MQTT_OK/GD32VW55X_Wifi_BLE_SDK/GD32VW55x_RELEASE_V1.0.2/MSDK/cloud/alicloud/src/services/linkkit/cm\iotx_cm_mqtt.c ****         return _mqtt_conncection;
  30:C:/Users/stapi/OneDrive/Desktop/GD32VW553/V1_MQTT_OK/GD32VW55X_Wifi_BLE_SDK/GD32VW55x_RELEASE_V1.0.2/MSDK/cloud/alicloud/src/services/linkkit/cm\iotx_cm_mqtt.c ****     }
  31:C:/Users/stapi/OneDrive/Desktop/GD32VW553/V1_MQTT_OK/GD32VW55X_Wifi_BLE_SDK/GD32VW55x_RELEASE_V1.0.2/MSDK/cloud/alicloud/src/services/linkkit/cm\iotx_cm_mqtt.c **** 
  32:C:/Users/stapi/OneDrive/Desktop/GD32VW553/V1_MQTT_OK/GD32VW55X_Wifi_BLE_SDK/GD32VW55x_RELEASE_V1.0.2/MSDK/cloud/alicloud/src/services/linkkit/cm\iotx_cm_mqtt.c ****     POINTER_SANITY_CHECK(params, NULL);
  33:C:/Users/stapi/OneDrive/Desktop/GD32VW553/V1_MQTT_OK/GD32VW55X_Wifi_BLE_SDK/GD32VW55x_RELEASE_V1.0.2/MSDK/cloud/alicloud/src/services/linkkit/cm\iotx_cm_mqtt.c **** 
  34:C:/Users/stapi/OneDrive/Desktop/GD32VW553/V1_MQTT_OK/GD32VW55X_Wifi_BLE_SDK/GD32VW55x_RELEASE_V1.0.2/MSDK/cloud/alicloud/src/services/linkkit/cm\iotx_cm_mqtt.c ****     _mqtt_conncection = (iotx_cm_connection_t *)cm_malloc(sizeof(iotx_cm_connection_t));
  35:C:/Users/stapi/OneDrive/Desktop/GD32VW553/V1_MQTT_OK/GD32VW55X_Wifi_BLE_SDK/GD32VW55x_RELEASE_V1.0.2/MSDK/cloud/alicloud/src/services/linkkit/cm\iotx_cm_mqtt.c ****     if (_mqtt_conncection == NULL) {
  36:C:/Users/stapi/OneDrive/Desktop/GD32VW553/V1_MQTT_OK/GD32VW55X_Wifi_BLE_SDK/GD32VW55x_RELEASE_V1.0.2/MSDK/cloud/alicloud/src/services/linkkit/cm\iotx_cm_mqtt.c ****         CM_ERR("_mqtt_conncection malloc failed!");
  37:C:/Users/stapi/OneDrive/Desktop/GD32VW553/V1_MQTT_OK/GD32VW55X_Wifi_BLE_SDK/GD32VW55x_RELEASE_V1.0.2/MSDK/cloud/alicloud/src/services/linkkit/cm\iotx_cm_mqtt.c ****         goto failed;
  38:C:/Users/stapi/OneDrive/Desktop/GD32VW553/V1_MQTT_OK/GD32VW55X_Wifi_BLE_SDK/GD32VW55x_RELEASE_V1.0.2/MSDK/cloud/alicloud/src/services/linkkit/cm\iotx_cm_mqtt.c ****     }
  39:C:/Users/stapi/OneDrive/Desktop/GD32VW553/V1_MQTT_OK/GD32VW55X_Wifi_BLE_SDK/GD32VW55x_RELEASE_V1.0.2/MSDK/cloud/alicloud/src/services/linkkit/cm\iotx_cm_mqtt.c **** 
  40:C:/Users/stapi/OneDrive/Desktop/GD32VW553/V1_MQTT_OK/GD32VW55X_Wifi_BLE_SDK/GD32VW55x_RELEASE_V1.0.2/MSDK/cloud/alicloud/src/services/linkkit/cm\iotx_cm_mqtt.c ****     mqtt_param = (iotx_mqtt_param_t *)cm_malloc(sizeof(iotx_mqtt_param_t));
  41:C:/Users/stapi/OneDrive/Desktop/GD32VW553/V1_MQTT_OK/GD32VW55X_Wifi_BLE_SDK/GD32VW55x_RELEASE_V1.0.2/MSDK/cloud/alicloud/src/services/linkkit/cm\iotx_cm_mqtt.c ****     if (mqtt_param == NULL) {
  42:C:/Users/stapi/OneDrive/Desktop/GD32VW553/V1_MQTT_OK/GD32VW55X_Wifi_BLE_SDK/GD32VW55x_RELEASE_V1.0.2/MSDK/cloud/alicloud/src/services/linkkit/cm\iotx_cm_mqtt.c ****         CM_ERR("mqtt_param malloc failed!");
  43:C:/Users/stapi/OneDrive/Desktop/GD32VW553/V1_MQTT_OK/GD32VW55X_Wifi_BLE_SDK/GD32VW55x_RELEASE_V1.0.2/MSDK/cloud/alicloud/src/services/linkkit/cm\iotx_cm_mqtt.c ****         goto failed;
  44:C:/Users/stapi/OneDrive/Desktop/GD32VW553/V1_MQTT_OK/GD32VW55X_Wifi_BLE_SDK/GD32VW55x_RELEASE_V1.0.2/MSDK/cloud/alicloud/src/services/linkkit/cm\iotx_cm_mqtt.c ****     }
  45:C:/Users/stapi/OneDrive/Desktop/GD32VW553/V1_MQTT_OK/GD32VW55X_Wifi_BLE_SDK/GD32VW55x_RELEASE_V1.0.2/MSDK/cloud/alicloud/src/services/linkkit/cm\iotx_cm_mqtt.c ****     _mqtt_conncection->open_params = mqtt_param;
  46:C:/Users/stapi/OneDrive/Desktop/GD32VW553/V1_MQTT_OK/GD32VW55X_Wifi_BLE_SDK/GD32VW55x_RELEASE_V1.0.2/MSDK/cloud/alicloud/src/services/linkkit/cm\iotx_cm_mqtt.c **** 
  47:C:/Users/stapi/OneDrive/Desktop/GD32VW553/V1_MQTT_OK/GD32VW55X_Wifi_BLE_SDK/GD32VW55x_RELEASE_V1.0.2/MSDK/cloud/alicloud/src/services/linkkit/cm\iotx_cm_mqtt.c ****     mqtt_param->request_timeout_ms = params->request_timeout_ms;
  48:C:/Users/stapi/OneDrive/Desktop/GD32VW553/V1_MQTT_OK/GD32VW55X_Wifi_BLE_SDK/GD32VW55x_RELEASE_V1.0.2/MSDK/cloud/alicloud/src/services/linkkit/cm\iotx_cm_mqtt.c ****     mqtt_param->clean_session = 0;
  49:C:/Users/stapi/OneDrive/Desktop/GD32VW553/V1_MQTT_OK/GD32VW55X_Wifi_BLE_SDK/GD32VW55x_RELEASE_V1.0.2/MSDK/cloud/alicloud/src/services/linkkit/cm\iotx_cm_mqtt.c ****     mqtt_param->keepalive_interval_ms = params->keepalive_interval_ms;
  50:C:/Users/stapi/OneDrive/Desktop/GD32VW553/V1_MQTT_OK/GD32VW55X_Wifi_BLE_SDK/GD32VW55x_RELEASE_V1.0.2/MSDK/cloud/alicloud/src/services/linkkit/cm\iotx_cm_mqtt.c ****     mqtt_param->read_buf_size = params->read_buf_size;
  51:C:/Users/stapi/OneDrive/Desktop/GD32VW553/V1_MQTT_OK/GD32VW55X_Wifi_BLE_SDK/GD32VW55x_RELEASE_V1.0.2/MSDK/cloud/alicloud/src/services/linkkit/cm\iotx_cm_mqtt.c ****     mqtt_param->write_buf_size = params->write_buf_size;
  52:C:/Users/stapi/OneDrive/Desktop/GD32VW553/V1_MQTT_OK/GD32VW55X_Wifi_BLE_SDK/GD32VW55x_RELEASE_V1.0.2/MSDK/cloud/alicloud/src/services/linkkit/cm\iotx_cm_mqtt.c **** 
  53:C:/Users/stapi/OneDrive/Desktop/GD32VW553/V1_MQTT_OK/GD32VW55X_Wifi_BLE_SDK/GD32VW55x_RELEASE_V1.0.2/MSDK/cloud/alicloud/src/services/linkkit/cm\iotx_cm_mqtt.c ****     mqtt_param->handle_event.h_fp = iotx_cloud_conn_mqtt_event_handle;
  54:C:/Users/stapi/OneDrive/Desktop/GD32VW553/V1_MQTT_OK/GD32VW55X_Wifi_BLE_SDK/GD32VW55x_RELEASE_V1.0.2/MSDK/cloud/alicloud/src/services/linkkit/cm\iotx_cm_mqtt.c ****     mqtt_param->handle_event.pcontext = NULL;
  55:C:/Users/stapi/OneDrive/Desktop/GD32VW553/V1_MQTT_OK/GD32VW55X_Wifi_BLE_SDK/GD32VW55x_RELEASE_V1.0.2/MSDK/cloud/alicloud/src/services/linkkit/cm\iotx_cm_mqtt.c **** 
  56:C:/Users/stapi/OneDrive/Desktop/GD32VW553/V1_MQTT_OK/GD32VW55X_Wifi_BLE_SDK/GD32VW55x_RELEASE_V1.0.2/MSDK/cloud/alicloud/src/services/linkkit/cm\iotx_cm_mqtt.c ****     _mqtt_conncection->event_handler = params->handle_event;
  57:C:/Users/stapi/OneDrive/Desktop/GD32VW553/V1_MQTT_OK/GD32VW55X_Wifi_BLE_SDK/GD32VW55x_RELEASE_V1.0.2/MSDK/cloud/alicloud/src/services/linkkit/cm\iotx_cm_mqtt.c ****     _mqtt_conncection->cb_data = params->context;
  58:C:/Users/stapi/OneDrive/Desktop/GD32VW553/V1_MQTT_OK/GD32VW55X_Wifi_BLE_SDK/GD32VW55x_RELEASE_V1.0.2/MSDK/cloud/alicloud/src/services/linkkit/cm\iotx_cm_mqtt.c ****     _set_common_handlers();
  59:C:/Users/stapi/OneDrive/Desktop/GD32VW553/V1_MQTT_OK/GD32VW55X_Wifi_BLE_SDK/GD32VW55x_RELEASE_V1.0.2/MSDK/cloud/alicloud/src/services/linkkit/cm\iotx_cm_mqtt.c **** 
  60:C:/Users/stapi/OneDrive/Desktop/GD32VW553/V1_MQTT_OK/GD32VW55X_Wifi_BLE_SDK/GD32VW55x_RELEASE_V1.0.2/MSDK/cloud/alicloud/src/services/linkkit/cm\iotx_cm_mqtt.c ****     return _mqtt_conncection;
  61:C:/Users/stapi/OneDrive/Desktop/GD32VW553/V1_MQTT_OK/GD32VW55X_Wifi_BLE_SDK/GD32VW55x_RELEASE_V1.0.2/MSDK/cloud/alicloud/src/services/linkkit/cm\iotx_cm_mqtt.c **** 
  62:C:/Users/stapi/OneDrive/Desktop/GD32VW553/V1_MQTT_OK/GD32VW55X_Wifi_BLE_SDK/GD32VW55x_RELEASE_V1.0.2/MSDK/cloud/alicloud/src/services/linkkit/cm\iotx_cm_mqtt.c **** failed:
  63:C:/Users/stapi/OneDrive/Desktop/GD32VW553/V1_MQTT_OK/GD32VW55X_Wifi_BLE_SDK/GD32VW55x_RELEASE_V1.0.2/MSDK/cloud/alicloud/src/services/linkkit/cm\iotx_cm_mqtt.c **** 
  64:C:/Users/stapi/OneDrive/Desktop/GD32VW553/V1_MQTT_OK/GD32VW55X_Wifi_BLE_SDK/GD32VW55x_RELEASE_V1.0.2/MSDK/cloud/alicloud/src/services/linkkit/cm\iotx_cm_mqtt.c ****     if (_mqtt_conncection != NULL) {
  65:C:/Users/stapi/OneDrive/Desktop/GD32VW553/V1_MQTT_OK/GD32VW55X_Wifi_BLE_SDK/GD32VW55x_RELEASE_V1.0.2/MSDK/cloud/alicloud/src/services/linkkit/cm\iotx_cm_mqtt.c ****         cm_free(_mqtt_conncection);
  66:C:/Users/stapi/OneDrive/Desktop/GD32VW553/V1_MQTT_OK/GD32VW55X_Wifi_BLE_SDK/GD32VW55x_RELEASE_V1.0.2/MSDK/cloud/alicloud/src/services/linkkit/cm\iotx_cm_mqtt.c ****         _mqtt_conncection = NULL;
  67:C:/Users/stapi/OneDrive/Desktop/GD32VW553/V1_MQTT_OK/GD32VW55X_Wifi_BLE_SDK/GD32VW55x_RELEASE_V1.0.2/MSDK/cloud/alicloud/src/services/linkkit/cm\iotx_cm_mqtt.c ****     }
  68:C:/Users/stapi/OneDrive/Desktop/GD32VW553/V1_MQTT_OK/GD32VW55X_Wifi_BLE_SDK/GD32VW55x_RELEASE_V1.0.2/MSDK/cloud/alicloud/src/services/linkkit/cm\iotx_cm_mqtt.c **** 
  69:C:/Users/stapi/OneDrive/Desktop/GD32VW553/V1_MQTT_OK/GD32VW55X_Wifi_BLE_SDK/GD32VW55x_RELEASE_V1.0.2/MSDK/cloud/alicloud/src/services/linkkit/cm\iotx_cm_mqtt.c ****     if (mqtt_param != NULL) {
  70:C:/Users/stapi/OneDrive/Desktop/GD32VW553/V1_MQTT_OK/GD32VW55X_Wifi_BLE_SDK/GD32VW55x_RELEASE_V1.0.2/MSDK/cloud/alicloud/src/services/linkkit/cm\iotx_cm_mqtt.c ****         cm_free(mqtt_param);
  71:C:/Users/stapi/OneDrive/Desktop/GD32VW553/V1_MQTT_OK/GD32VW55X_Wifi_BLE_SDK/GD32VW55x_RELEASE_V1.0.2/MSDK/cloud/alicloud/src/services/linkkit/cm\iotx_cm_mqtt.c ****     }
  72:C:/Users/stapi/OneDrive/Desktop/GD32VW553/V1_MQTT_OK/GD32VW55X_Wifi_BLE_SDK/GD32VW55x_RELEASE_V1.0.2/MSDK/cloud/alicloud/src/services/linkkit/cm\iotx_cm_mqtt.c **** 
  73:C:/Users/stapi/OneDrive/Desktop/GD32VW553/V1_MQTT_OK/GD32VW55X_Wifi_BLE_SDK/GD32VW55x_RELEASE_V1.0.2/MSDK/cloud/alicloud/src/services/linkkit/cm\iotx_cm_mqtt.c ****     return NULL;
  74:C:/Users/stapi/OneDrive/Desktop/GD32VW553/V1_MQTT_OK/GD32VW55X_Wifi_BLE_SDK/GD32VW55x_RELEASE_V1.0.2/MSDK/cloud/alicloud/src/services/linkkit/cm\iotx_cm_mqtt.c **** }
  75:C:/Users/stapi/OneDrive/Desktop/GD32VW553/V1_MQTT_OK/GD32VW55X_Wifi_BLE_SDK/GD32VW55x_RELEASE_V1.0.2/MSDK/cloud/alicloud/src/services/linkkit/cm\iotx_cm_mqtt.c **** 
  76:C:/Users/stapi/OneDrive/Desktop/GD32VW553/V1_MQTT_OK/GD32VW55X_Wifi_BLE_SDK/GD32VW55x_RELEASE_V1.0.2/MSDK/cloud/alicloud/src/services/linkkit/cm\iotx_cm_mqtt.c **** 
  77:C:/Users/stapi/OneDrive/Desktop/GD32VW553/V1_MQTT_OK/GD32VW55X_Wifi_BLE_SDK/GD32VW55x_RELEASE_V1.0.2/MSDK/cloud/alicloud/src/services/linkkit/cm\iotx_cm_mqtt.c **** static void iotx_cloud_conn_mqtt_event_handle(void *pcontext, void *pclient, iotx_mqtt_event_msg_pt
  78:C:/Users/stapi/OneDrive/Desktop/GD32VW553/V1_MQTT_OK/GD32VW55X_Wifi_BLE_SDK/GD32VW55x_RELEASE_V1.0.2/MSDK/cloud/alicloud/src/services/linkkit/cm\iotx_cm_mqtt.c **** {
  46              		.loc 1 78 1
  47              		.cfi_startproc
  48              	.LVL0:
  49 0000 17030000 		call	t0,__riscv_save_4
  49      E7020300 
  50              		.cfi_offset 19, -20
  51              		.cfi_offset 18, -16
  52              		.cfi_offset 9, -12
  53              		.cfi_offset 8, -8
  54              		.cfi_offset 1, -4
  55              		.cfi_def_cfa_offset 32
  79:C:/Users/stapi/OneDrive/Desktop/GD32VW553/V1_MQTT_OK/GD32VW55X_Wifi_BLE_SDK/GD32VW55x_RELEASE_V1.0.2/MSDK/cloud/alicloud/src/services/linkkit/cm\iotx_cm_mqtt.c ****     uintptr_t packet_id = (uintptr_t)msg->msg;
  56              		.loc 1 79 5
  57              	.LVL1:
  80:C:/Users/stapi/OneDrive/Desktop/GD32VW553/V1_MQTT_OK/GD32VW55X_Wifi_BLE_SDK/GD32VW55x_RELEASE_V1.0.2/MSDK/cloud/alicloud/src/services/linkkit/cm\iotx_cm_mqtt.c ****     if (_mqtt_conncection == NULL) {
  58              		.loc 1 80 5
  59              		.loc 1 80 27 is_stmt 0
  60 0008 B7040000 		lui	s1,%hi(.LANCHOR0)
  61 000c 83A70400 		lw	a5,%lo(.LANCHOR0)(s1)
  78:C:/Users/stapi/OneDrive/Desktop/GD32VW553/V1_MQTT_OK/GD32VW55X_Wifi_BLE_SDK/GD32VW55x_RELEASE_V1.0.2/MSDK/cloud/alicloud/src/services/linkkit/cm\iotx_cm_mqtt.c ****     uintptr_t packet_id = (uintptr_t)msg->msg;
  62              		.loc 1 78 1
  63 0010 4111     		addi	sp,sp,-16
  64              		.cfi_def_cfa_offset 48
  65              		.loc 1 80 8
  66 0012 B5C7     		beq	a5,zero,.L1
  67 0014 1842     		lw	a4,0(a2)
  68 0016 B146     		li	a3,12
  79:C:/Users/stapi/OneDrive/Desktop/GD32VW553/V1_MQTT_OK/GD32VW55X_Wifi_BLE_SDK/GD32VW55x_RELEASE_V1.0.2/MSDK/cloud/alicloud/src/services/linkkit/cm\iotx_cm_mqtt.c ****     uintptr_t packet_id = (uintptr_t)msg->msg;
  69              		.loc 1 79 41
  70 0018 4042     		lw	s0,4(a2)
  81:C:/Users/stapi/OneDrive/Desktop/GD32VW553/V1_MQTT_OK/GD32VW55X_Wifi_BLE_SDK/GD32VW55x_RELEASE_V1.0.2/MSDK/cloud/alicloud/src/services/linkkit/cm\iotx_cm_mqtt.c ****         return;
  82:C:/Users/stapi/OneDrive/Desktop/GD32VW553/V1_MQTT_OK/GD32VW55X_Wifi_BLE_SDK/GD32VW55x_RELEASE_V1.0.2/MSDK/cloud/alicloud/src/services/linkkit/cm\iotx_cm_mqtt.c ****     }
  83:C:/Users/stapi/OneDrive/Desktop/GD32VW553/V1_MQTT_OK/GD32VW55X_Wifi_BLE_SDK/GD32VW55x_RELEASE_V1.0.2/MSDK/cloud/alicloud/src/services/linkkit/cm\iotx_cm_mqtt.c **** 
  84:C:/Users/stapi/OneDrive/Desktop/GD32VW553/V1_MQTT_OK/GD32VW55X_Wifi_BLE_SDK/GD32VW55x_RELEASE_V1.0.2/MSDK/cloud/alicloud/src/services/linkkit/cm\iotx_cm_mqtt.c ****     switch (msg->event_type) {
  71              		.loc 1 84 5 is_stmt 1
  72 001a 7D17     		addi	a4,a4,-1
  73 001c 3289     		mv	s2,a2
  74 001e 63E2E618 		bgtu	a4,a3,.L3
  75 0022 B7060000 		lui	a3,%hi(.L5)
  76 0026 93860600 		addi	a3,a3,%lo(.L5)
  77 002a 3347D720 		sh2add	a4,a4,a3
  78 002e 1843     		lw	a4,0(a4)
  79 0030 93840400 		addi	s1,s1,%lo(.LANCHOR0)
  80 0034 0287     		jr	a4
  81              		.section	.rodata.iotx_cloud_conn_mqtt_event_handle,"a",@progbits
  82              		.align	2
  83              		.align	2
  84              	.L5:
  85 0000 00000000 		.word	.L14
  86 0004 00000000 		.word	.L13
  87 0008 00000000 		.word	.L12
  88 000c 00000000 		.word	.L11
  89 0010 00000000 		.word	.L11
  90 0014 00000000 		.word	.L10
  91 0018 00000000 		.word	.L9
  92 001c 00000000 		.word	.L9
  93 0020 00000000 		.word	.L8
  94 0024 00000000 		.word	.L7
  95 0028 00000000 		.word	.L7
  96 002c 00000000 		.word	.L6
  97 0030 00000000 		.word	.L4
  98              		.section	.text.iotx_cloud_conn_mqtt_event_handle
  99              	.L14:
 100              	.LBB2:
  85:C:/Users/stapi/OneDrive/Desktop/GD32VW553/V1_MQTT_OK/GD32VW55X_Wifi_BLE_SDK/GD32VW55x_RELEASE_V1.0.2/MSDK/cloud/alicloud/src/services/linkkit/cm\iotx_cm_mqtt.c **** 
  86:C:/Users/stapi/OneDrive/Desktop/GD32VW553/V1_MQTT_OK/GD32VW55X_Wifi_BLE_SDK/GD32VW55x_RELEASE_V1.0.2/MSDK/cloud/alicloud/src/services/linkkit/cm\iotx_cm_mqtt.c ****         case IOTX_MQTT_EVENT_DISCONNECT: {
  87:C:/Users/stapi/OneDrive/Desktop/GD32VW553/V1_MQTT_OK/GD32VW55X_Wifi_BLE_SDK/GD32VW55x_RELEASE_V1.0.2/MSDK/cloud/alicloud/src/services/linkkit/cm\iotx_cm_mqtt.c ****             CM_INFO("disconnected,fd = %d", _mqtt_conncection->fd);
 101              		.loc 1 87 13
 102              		.loc 1 87 13
 103 0036 37050000 		lui	a0,%hi(.LC0)
 104              	.LVL2:
 105 003a 13050500 		addi	a0,a0,%lo(.LC0)
 106 003e 97000000 		call	HAL_Printf
 106      E7800000 
 107              	.LVL3:
 108              		.loc 1 87 13
 109 0046 9C40     		lw	a5,0(s1)
 110 0048 37050000 		lui	a0,%hi(.LC1)
 111 004c 13050500 		addi	a0,a0,%lo(.LC1)
 112 0050 8C43     		lw	a1,0(a5)
 113 0052 97000000 		call	HAL_Printf
 113      E7800000 
 114              	.LVL4:
 115              		.loc 1 87 13
 116 005a 37050000 		lui	a0,%hi(.LC2)
 117 005e 13050500 		addi	a0,a0,%lo(.LC2)
 118 0062 97000000 		call	HAL_Printf
 118      E7800000 
 119              	.LVL5:
 120              		.loc 1 87 13
  88:C:/Users/stapi/OneDrive/Desktop/GD32VW553/V1_MQTT_OK/GD32VW55X_Wifi_BLE_SDK/GD32VW55x_RELEASE_V1.0.2/MSDK/cloud/alicloud/src/services/linkkit/cm\iotx_cm_mqtt.c ****             iotx_cm_event_msg_t event;
 121              		.loc 1 88 13
  89:C:/Users/stapi/OneDrive/Desktop/GD32VW553/V1_MQTT_OK/GD32VW55X_Wifi_BLE_SDK/GD32VW55x_RELEASE_V1.0.2/MSDK/cloud/alicloud/src/services/linkkit/cm\iotx_cm_mqtt.c ****             event.type = IOTX_CM_EVENT_CLOUD_DISCONNECT;
 122              		.loc 1 89 13
 123              		.loc 1 89 24 is_stmt 0
 124 006a 8947     		li	a5,2
 125 006c 3EC4     		sw	a5,8(sp)
  90:C:/Users/stapi/OneDrive/Desktop/GD32VW553/V1_MQTT_OK/GD32VW55X_Wifi_BLE_SDK/GD32VW55x_RELEASE_V1.0.2/MSDK/cloud/alicloud/src/services/linkkit/cm\iotx_cm_mqtt.c ****             event.msg = NULL;
 126              		.loc 1 90 13 is_stmt 1
 127              	.L67:
 128              	.LBE2:
 129              	.LBB3:
  91:C:/Users/stapi/OneDrive/Desktop/GD32VW553/V1_MQTT_OK/GD32VW55X_Wifi_BLE_SDK/GD32VW55x_RELEASE_V1.0.2/MSDK/cloud/alicloud/src/services/linkkit/cm\iotx_cm_mqtt.c ****             if (_mqtt_conncection->event_handler) {
  92:C:/Users/stapi/OneDrive/Desktop/GD32VW553/V1_MQTT_OK/GD32VW55X_Wifi_BLE_SDK/GD32VW55x_RELEASE_V1.0.2/MSDK/cloud/alicloud/src/services/linkkit/cm\iotx_cm_mqtt.c ****                 _mqtt_conncection->event_handler(_mqtt_conncection->fd, &event, _mqtt_conncection->
  93:C:/Users/stapi/OneDrive/Desktop/GD32VW553/V1_MQTT_OK/GD32VW55X_Wifi_BLE_SDK/GD32VW55x_RELEASE_V1.0.2/MSDK/cloud/alicloud/src/services/linkkit/cm\iotx_cm_mqtt.c ****             }
  94:C:/Users/stapi/OneDrive/Desktop/GD32VW553/V1_MQTT_OK/GD32VW55X_Wifi_BLE_SDK/GD32VW55x_RELEASE_V1.0.2/MSDK/cloud/alicloud/src/services/linkkit/cm\iotx_cm_mqtt.c ****         }
  95:C:/Users/stapi/OneDrive/Desktop/GD32VW553/V1_MQTT_OK/GD32VW55X_Wifi_BLE_SDK/GD32VW55x_RELEASE_V1.0.2/MSDK/cloud/alicloud/src/services/linkkit/cm\iotx_cm_mqtt.c ****         break;
  96:C:/Users/stapi/OneDrive/Desktop/GD32VW553/V1_MQTT_OK/GD32VW55X_Wifi_BLE_SDK/GD32VW55x_RELEASE_V1.0.2/MSDK/cloud/alicloud/src/services/linkkit/cm\iotx_cm_mqtt.c **** 
  97:C:/Users/stapi/OneDrive/Desktop/GD32VW553/V1_MQTT_OK/GD32VW55X_Wifi_BLE_SDK/GD32VW55x_RELEASE_V1.0.2/MSDK/cloud/alicloud/src/services/linkkit/cm\iotx_cm_mqtt.c ****         case IOTX_MQTT_EVENT_RECONNECT: {
  98:C:/Users/stapi/OneDrive/Desktop/GD32VW553/V1_MQTT_OK/GD32VW55X_Wifi_BLE_SDK/GD32VW55x_RELEASE_V1.0.2/MSDK/cloud/alicloud/src/services/linkkit/cm\iotx_cm_mqtt.c ****             CM_INFO("connected,fd = %d", _mqtt_conncection->fd);
  99:C:/Users/stapi/OneDrive/Desktop/GD32VW553/V1_MQTT_OK/GD32VW55X_Wifi_BLE_SDK/GD32VW55x_RELEASE_V1.0.2/MSDK/cloud/alicloud/src/services/linkkit/cm\iotx_cm_mqtt.c ****             iotx_cm_event_msg_t event;
 100:C:/Users/stapi/OneDrive/Desktop/GD32VW553/V1_MQTT_OK/GD32VW55X_Wifi_BLE_SDK/GD32VW55x_RELEASE_V1.0.2/MSDK/cloud/alicloud/src/services/linkkit/cm\iotx_cm_mqtt.c ****             event.type = IOTX_CM_EVENT_CLOUD_CONNECTED;
 101:C:/Users/stapi/OneDrive/Desktop/GD32VW553/V1_MQTT_OK/GD32VW55X_Wifi_BLE_SDK/GD32VW55x_RELEASE_V1.0.2/MSDK/cloud/alicloud/src/services/linkkit/cm\iotx_cm_mqtt.c ****             event.msg = NULL;
 130              		.loc 1 101 13
 102:C:/Users/stapi/OneDrive/Desktop/GD32VW553/V1_MQTT_OK/GD32VW55X_Wifi_BLE_SDK/GD32VW55x_RELEASE_V1.0.2/MSDK/cloud/alicloud/src/services/linkkit/cm\iotx_cm_mqtt.c ****             //CM_INFO(cm_log_info_MQTT_reconnect);
 103:C:/Users/stapi/OneDrive/Desktop/GD32VW553/V1_MQTT_OK/GD32VW55X_Wifi_BLE_SDK/GD32VW55x_RELEASE_V1.0.2/MSDK/cloud/alicloud/src/services/linkkit/cm\iotx_cm_mqtt.c **** 
 104:C:/Users/stapi/OneDrive/Desktop/GD32VW553/V1_MQTT_OK/GD32VW55X_Wifi_BLE_SDK/GD32VW55x_RELEASE_V1.0.2/MSDK/cloud/alicloud/src/services/linkkit/cm\iotx_cm_mqtt.c ****             if (_mqtt_conncection->event_handler) {
 131              		.loc 1 104 34 is_stmt 0
 132 006e 9C40     		lw	a5,0(s1)
 101:C:/Users/stapi/OneDrive/Desktop/GD32VW553/V1_MQTT_OK/GD32VW55X_Wifi_BLE_SDK/GD32VW55x_RELEASE_V1.0.2/MSDK/cloud/alicloud/src/services/linkkit/cm\iotx_cm_mqtt.c ****             //CM_INFO(cm_log_info_MQTT_reconnect);
 133              		.loc 1 101 23
 134 0070 02C6     		sw	zero,12(sp)
 135              		.loc 1 104 13 is_stmt 1
 136              	.L58:
 137              	.LBE3:
 138              	.LBB4:
 105:C:/Users/stapi/OneDrive/Desktop/GD32VW553/V1_MQTT_OK/GD32VW55X_Wifi_BLE_SDK/GD32VW55x_RELEASE_V1.0.2/MSDK/cloud/alicloud/src/services/linkkit/cm\iotx_cm_mqtt.c ****                 _mqtt_conncection->event_handler(_mqtt_conncection->fd, &event, _mqtt_conncection->
 106:C:/Users/stapi/OneDrive/Desktop/GD32VW553/V1_MQTT_OK/GD32VW55X_Wifi_BLE_SDK/GD32VW55x_RELEASE_V1.0.2/MSDK/cloud/alicloud/src/services/linkkit/cm\iotx_cm_mqtt.c ****             }
 107:C:/Users/stapi/OneDrive/Desktop/GD32VW553/V1_MQTT_OK/GD32VW55X_Wifi_BLE_SDK/GD32VW55x_RELEASE_V1.0.2/MSDK/cloud/alicloud/src/services/linkkit/cm\iotx_cm_mqtt.c ****         }
 108:C:/Users/stapi/OneDrive/Desktop/GD32VW553/V1_MQTT_OK/GD32VW55X_Wifi_BLE_SDK/GD32VW55x_RELEASE_V1.0.2/MSDK/cloud/alicloud/src/services/linkkit/cm\iotx_cm_mqtt.c ****         break;
 109:C:/Users/stapi/OneDrive/Desktop/GD32VW553/V1_MQTT_OK/GD32VW55X_Wifi_BLE_SDK/GD32VW55x_RELEASE_V1.0.2/MSDK/cloud/alicloud/src/services/linkkit/cm\iotx_cm_mqtt.c **** 
 110:C:/Users/stapi/OneDrive/Desktop/GD32VW553/V1_MQTT_OK/GD32VW55X_Wifi_BLE_SDK/GD32VW55x_RELEASE_V1.0.2/MSDK/cloud/alicloud/src/services/linkkit/cm\iotx_cm_mqtt.c ****         case IOTX_MQTT_EVENT_SUBCRIBE_SUCCESS: {
 111:C:/Users/stapi/OneDrive/Desktop/GD32VW553/V1_MQTT_OK/GD32VW55X_Wifi_BLE_SDK/GD32VW55x_RELEASE_V1.0.2/MSDK/cloud/alicloud/src/services/linkkit/cm\iotx_cm_mqtt.c ****             iotx_cm_event_msg_t event;
 112:C:/Users/stapi/OneDrive/Desktop/GD32VW553/V1_MQTT_OK/GD32VW55X_Wifi_BLE_SDK/GD32VW55x_RELEASE_V1.0.2/MSDK/cloud/alicloud/src/services/linkkit/cm\iotx_cm_mqtt.c ****             event.type = IOTX_CM_EVENT_SUBCRIBE_SUCCESS;
 113:C:/Users/stapi/OneDrive/Desktop/GD32VW553/V1_MQTT_OK/GD32VW55X_Wifi_BLE_SDK/GD32VW55x_RELEASE_V1.0.2/MSDK/cloud/alicloud/src/services/linkkit/cm\iotx_cm_mqtt.c ****             event.msg = (void *)packet_id;
 114:C:/Users/stapi/OneDrive/Desktop/GD32VW553/V1_MQTT_OK/GD32VW55X_Wifi_BLE_SDK/GD32VW55x_RELEASE_V1.0.2/MSDK/cloud/alicloud/src/services/linkkit/cm\iotx_cm_mqtt.c **** 
 115:C:/Users/stapi/OneDrive/Desktop/GD32VW553/V1_MQTT_OK/GD32VW55X_Wifi_BLE_SDK/GD32VW55x_RELEASE_V1.0.2/MSDK/cloud/alicloud/src/services/linkkit/cm\iotx_cm_mqtt.c ****             if (_mqtt_conncection->event_handler) {
 116:C:/Users/stapi/OneDrive/Desktop/GD32VW553/V1_MQTT_OK/GD32VW55X_Wifi_BLE_SDK/GD32VW55x_RELEASE_V1.0.2/MSDK/cloud/alicloud/src/services/linkkit/cm\iotx_cm_mqtt.c ****                 _mqtt_conncection->event_handler(_mqtt_conncection->fd, &event, _mqtt_conncection->
 117:C:/Users/stapi/OneDrive/Desktop/GD32VW553/V1_MQTT_OK/GD32VW55X_Wifi_BLE_SDK/GD32VW55x_RELEASE_V1.0.2/MSDK/cloud/alicloud/src/services/linkkit/cm\iotx_cm_mqtt.c ****             }
 118:C:/Users/stapi/OneDrive/Desktop/GD32VW553/V1_MQTT_OK/GD32VW55X_Wifi_BLE_SDK/GD32VW55x_RELEASE_V1.0.2/MSDK/cloud/alicloud/src/services/linkkit/cm\iotx_cm_mqtt.c ****         }
 119:C:/Users/stapi/OneDrive/Desktop/GD32VW553/V1_MQTT_OK/GD32VW55X_Wifi_BLE_SDK/GD32VW55x_RELEASE_V1.0.2/MSDK/cloud/alicloud/src/services/linkkit/cm\iotx_cm_mqtt.c ****         break;
 120:C:/Users/stapi/OneDrive/Desktop/GD32VW553/V1_MQTT_OK/GD32VW55X_Wifi_BLE_SDK/GD32VW55x_RELEASE_V1.0.2/MSDK/cloud/alicloud/src/services/linkkit/cm\iotx_cm_mqtt.c **** 
 121:C:/Users/stapi/OneDrive/Desktop/GD32VW553/V1_MQTT_OK/GD32VW55X_Wifi_BLE_SDK/GD32VW55x_RELEASE_V1.0.2/MSDK/cloud/alicloud/src/services/linkkit/cm\iotx_cm_mqtt.c ****         case IOTX_MQTT_EVENT_SUBCRIBE_NACK:
 122:C:/Users/stapi/OneDrive/Desktop/GD32VW553/V1_MQTT_OK/GD32VW55X_Wifi_BLE_SDK/GD32VW55x_RELEASE_V1.0.2/MSDK/cloud/alicloud/src/services/linkkit/cm\iotx_cm_mqtt.c ****         case IOTX_MQTT_EVENT_SUBCRIBE_TIMEOUT: {
 123:C:/Users/stapi/OneDrive/Desktop/GD32VW553/V1_MQTT_OK/GD32VW55X_Wifi_BLE_SDK/GD32VW55x_RELEASE_V1.0.2/MSDK/cloud/alicloud/src/services/linkkit/cm\iotx_cm_mqtt.c ****             iotx_cm_event_msg_t event;
 124:C:/Users/stapi/OneDrive/Desktop/GD32VW553/V1_MQTT_OK/GD32VW55X_Wifi_BLE_SDK/GD32VW55x_RELEASE_V1.0.2/MSDK/cloud/alicloud/src/services/linkkit/cm\iotx_cm_mqtt.c ****             event.type = IOTX_CM_EVENT_SUBCRIBE_FAILED;
 125:C:/Users/stapi/OneDrive/Desktop/GD32VW553/V1_MQTT_OK/GD32VW55X_Wifi_BLE_SDK/GD32VW55x_RELEASE_V1.0.2/MSDK/cloud/alicloud/src/services/linkkit/cm\iotx_cm_mqtt.c ****             event.msg = (void *)packet_id;
 126:C:/Users/stapi/OneDrive/Desktop/GD32VW553/V1_MQTT_OK/GD32VW55X_Wifi_BLE_SDK/GD32VW55x_RELEASE_V1.0.2/MSDK/cloud/alicloud/src/services/linkkit/cm\iotx_cm_mqtt.c **** 
 127:C:/Users/stapi/OneDrive/Desktop/GD32VW553/V1_MQTT_OK/GD32VW55X_Wifi_BLE_SDK/GD32VW55x_RELEASE_V1.0.2/MSDK/cloud/alicloud/src/services/linkkit/cm\iotx_cm_mqtt.c ****             if (_mqtt_conncection->event_handler) {
 128:C:/Users/stapi/OneDrive/Desktop/GD32VW553/V1_MQTT_OK/GD32VW55X_Wifi_BLE_SDK/GD32VW55x_RELEASE_V1.0.2/MSDK/cloud/alicloud/src/services/linkkit/cm\iotx_cm_mqtt.c ****                 _mqtt_conncection->event_handler(_mqtt_conncection->fd, &event, _mqtt_conncection->
 129:C:/Users/stapi/OneDrive/Desktop/GD32VW553/V1_MQTT_OK/GD32VW55X_Wifi_BLE_SDK/GD32VW55x_RELEASE_V1.0.2/MSDK/cloud/alicloud/src/services/linkkit/cm\iotx_cm_mqtt.c ****             }
 130:C:/Users/stapi/OneDrive/Desktop/GD32VW553/V1_MQTT_OK/GD32VW55X_Wifi_BLE_SDK/GD32VW55x_RELEASE_V1.0.2/MSDK/cloud/alicloud/src/services/linkkit/cm\iotx_cm_mqtt.c ****         }
 131:C:/Users/stapi/OneDrive/Desktop/GD32VW553/V1_MQTT_OK/GD32VW55X_Wifi_BLE_SDK/GD32VW55x_RELEASE_V1.0.2/MSDK/cloud/alicloud/src/services/linkkit/cm\iotx_cm_mqtt.c ****         break;
 132:C:/Users/stapi/OneDrive/Desktop/GD32VW553/V1_MQTT_OK/GD32VW55X_Wifi_BLE_SDK/GD32VW55x_RELEASE_V1.0.2/MSDK/cloud/alicloud/src/services/linkkit/cm\iotx_cm_mqtt.c **** 
 133:C:/Users/stapi/OneDrive/Desktop/GD32VW553/V1_MQTT_OK/GD32VW55X_Wifi_BLE_SDK/GD32VW55x_RELEASE_V1.0.2/MSDK/cloud/alicloud/src/services/linkkit/cm\iotx_cm_mqtt.c ****         case IOTX_MQTT_EVENT_UNSUBCRIBE_SUCCESS: {
 134:C:/Users/stapi/OneDrive/Desktop/GD32VW553/V1_MQTT_OK/GD32VW55X_Wifi_BLE_SDK/GD32VW55x_RELEASE_V1.0.2/MSDK/cloud/alicloud/src/services/linkkit/cm\iotx_cm_mqtt.c ****             iotx_cm_event_msg_t event;
 135:C:/Users/stapi/OneDrive/Desktop/GD32VW553/V1_MQTT_OK/GD32VW55X_Wifi_BLE_SDK/GD32VW55x_RELEASE_V1.0.2/MSDK/cloud/alicloud/src/services/linkkit/cm\iotx_cm_mqtt.c ****             event.type = IOTX_CM_EVENT_UNSUB_SUCCESS;
 136:C:/Users/stapi/OneDrive/Desktop/GD32VW553/V1_MQTT_OK/GD32VW55X_Wifi_BLE_SDK/GD32VW55x_RELEASE_V1.0.2/MSDK/cloud/alicloud/src/services/linkkit/cm\iotx_cm_mqtt.c ****             event.msg = (void *)packet_id;
 137:C:/Users/stapi/OneDrive/Desktop/GD32VW553/V1_MQTT_OK/GD32VW55X_Wifi_BLE_SDK/GD32VW55x_RELEASE_V1.0.2/MSDK/cloud/alicloud/src/services/linkkit/cm\iotx_cm_mqtt.c **** 
 138:C:/Users/stapi/OneDrive/Desktop/GD32VW553/V1_MQTT_OK/GD32VW55X_Wifi_BLE_SDK/GD32VW55x_RELEASE_V1.0.2/MSDK/cloud/alicloud/src/services/linkkit/cm\iotx_cm_mqtt.c ****             if (_mqtt_conncection->event_handler) {
 139:C:/Users/stapi/OneDrive/Desktop/GD32VW553/V1_MQTT_OK/GD32VW55X_Wifi_BLE_SDK/GD32VW55x_RELEASE_V1.0.2/MSDK/cloud/alicloud/src/services/linkkit/cm\iotx_cm_mqtt.c ****                 _mqtt_conncection->event_handler(_mqtt_conncection->fd, &event, _mqtt_conncection->
 140:C:/Users/stapi/OneDrive/Desktop/GD32VW553/V1_MQTT_OK/GD32VW55X_Wifi_BLE_SDK/GD32VW55x_RELEASE_V1.0.2/MSDK/cloud/alicloud/src/services/linkkit/cm\iotx_cm_mqtt.c ****             }
 141:C:/Users/stapi/OneDrive/Desktop/GD32VW553/V1_MQTT_OK/GD32VW55X_Wifi_BLE_SDK/GD32VW55x_RELEASE_V1.0.2/MSDK/cloud/alicloud/src/services/linkkit/cm\iotx_cm_mqtt.c ****         }
 142:C:/Users/stapi/OneDrive/Desktop/GD32VW553/V1_MQTT_OK/GD32VW55X_Wifi_BLE_SDK/GD32VW55x_RELEASE_V1.0.2/MSDK/cloud/alicloud/src/services/linkkit/cm\iotx_cm_mqtt.c ****         break;
 143:C:/Users/stapi/OneDrive/Desktop/GD32VW553/V1_MQTT_OK/GD32VW55X_Wifi_BLE_SDK/GD32VW55x_RELEASE_V1.0.2/MSDK/cloud/alicloud/src/services/linkkit/cm\iotx_cm_mqtt.c **** 
 144:C:/Users/stapi/OneDrive/Desktop/GD32VW553/V1_MQTT_OK/GD32VW55X_Wifi_BLE_SDK/GD32VW55x_RELEASE_V1.0.2/MSDK/cloud/alicloud/src/services/linkkit/cm\iotx_cm_mqtt.c ****         case IOTX_MQTT_EVENT_UNSUBCRIBE_NACK:
 145:C:/Users/stapi/OneDrive/Desktop/GD32VW553/V1_MQTT_OK/GD32VW55X_Wifi_BLE_SDK/GD32VW55x_RELEASE_V1.0.2/MSDK/cloud/alicloud/src/services/linkkit/cm\iotx_cm_mqtt.c ****         case IOTX_MQTT_EVENT_UNSUBCRIBE_TIMEOUT: {
 146:C:/Users/stapi/OneDrive/Desktop/GD32VW553/V1_MQTT_OK/GD32VW55X_Wifi_BLE_SDK/GD32VW55x_RELEASE_V1.0.2/MSDK/cloud/alicloud/src/services/linkkit/cm\iotx_cm_mqtt.c ****             iotx_cm_event_msg_t event;
 147:C:/Users/stapi/OneDrive/Desktop/GD32VW553/V1_MQTT_OK/GD32VW55X_Wifi_BLE_SDK/GD32VW55x_RELEASE_V1.0.2/MSDK/cloud/alicloud/src/services/linkkit/cm\iotx_cm_mqtt.c ****             event.type = IOTX_CM_EVENT_UNSUB_FAILED;
 148:C:/Users/stapi/OneDrive/Desktop/GD32VW553/V1_MQTT_OK/GD32VW55X_Wifi_BLE_SDK/GD32VW55x_RELEASE_V1.0.2/MSDK/cloud/alicloud/src/services/linkkit/cm\iotx_cm_mqtt.c ****             event.msg = (void *)packet_id;
 149:C:/Users/stapi/OneDrive/Desktop/GD32VW553/V1_MQTT_OK/GD32VW55X_Wifi_BLE_SDK/GD32VW55x_RELEASE_V1.0.2/MSDK/cloud/alicloud/src/services/linkkit/cm\iotx_cm_mqtt.c **** 
 150:C:/Users/stapi/OneDrive/Desktop/GD32VW553/V1_MQTT_OK/GD32VW55X_Wifi_BLE_SDK/GD32VW55x_RELEASE_V1.0.2/MSDK/cloud/alicloud/src/services/linkkit/cm\iotx_cm_mqtt.c ****             if (_mqtt_conncection->event_handler) {
 151:C:/Users/stapi/OneDrive/Desktop/GD32VW553/V1_MQTT_OK/GD32VW55X_Wifi_BLE_SDK/GD32VW55x_RELEASE_V1.0.2/MSDK/cloud/alicloud/src/services/linkkit/cm\iotx_cm_mqtt.c ****                 _mqtt_conncection->event_handler(_mqtt_conncection->fd, &event, _mqtt_conncection->
 152:C:/Users/stapi/OneDrive/Desktop/GD32VW553/V1_MQTT_OK/GD32VW55X_Wifi_BLE_SDK/GD32VW55x_RELEASE_V1.0.2/MSDK/cloud/alicloud/src/services/linkkit/cm\iotx_cm_mqtt.c ****             }
 153:C:/Users/stapi/OneDrive/Desktop/GD32VW553/V1_MQTT_OK/GD32VW55X_Wifi_BLE_SDK/GD32VW55x_RELEASE_V1.0.2/MSDK/cloud/alicloud/src/services/linkkit/cm\iotx_cm_mqtt.c ****         }
 154:C:/Users/stapi/OneDrive/Desktop/GD32VW553/V1_MQTT_OK/GD32VW55X_Wifi_BLE_SDK/GD32VW55x_RELEASE_V1.0.2/MSDK/cloud/alicloud/src/services/linkkit/cm\iotx_cm_mqtt.c ****         break;
 155:C:/Users/stapi/OneDrive/Desktop/GD32VW553/V1_MQTT_OK/GD32VW55X_Wifi_BLE_SDK/GD32VW55x_RELEASE_V1.0.2/MSDK/cloud/alicloud/src/services/linkkit/cm\iotx_cm_mqtt.c **** 
 156:C:/Users/stapi/OneDrive/Desktop/GD32VW553/V1_MQTT_OK/GD32VW55X_Wifi_BLE_SDK/GD32VW55x_RELEASE_V1.0.2/MSDK/cloud/alicloud/src/services/linkkit/cm\iotx_cm_mqtt.c ****         case IOTX_MQTT_EVENT_PUBLISH_SUCCESS: {
 157:C:/Users/stapi/OneDrive/Desktop/GD32VW553/V1_MQTT_OK/GD32VW55X_Wifi_BLE_SDK/GD32VW55x_RELEASE_V1.0.2/MSDK/cloud/alicloud/src/services/linkkit/cm\iotx_cm_mqtt.c ****             iotx_cm_event_msg_t event;
 158:C:/Users/stapi/OneDrive/Desktop/GD32VW553/V1_MQTT_OK/GD32VW55X_Wifi_BLE_SDK/GD32VW55x_RELEASE_V1.0.2/MSDK/cloud/alicloud/src/services/linkkit/cm\iotx_cm_mqtt.c ****             event.type = IOTX_CM_EVENT_PUBLISH_SUCCESS;
 159:C:/Users/stapi/OneDrive/Desktop/GD32VW553/V1_MQTT_OK/GD32VW55X_Wifi_BLE_SDK/GD32VW55x_RELEASE_V1.0.2/MSDK/cloud/alicloud/src/services/linkkit/cm\iotx_cm_mqtt.c ****             event.msg = (void *)packet_id;
 160:C:/Users/stapi/OneDrive/Desktop/GD32VW553/V1_MQTT_OK/GD32VW55X_Wifi_BLE_SDK/GD32VW55x_RELEASE_V1.0.2/MSDK/cloud/alicloud/src/services/linkkit/cm\iotx_cm_mqtt.c **** 
 161:C:/Users/stapi/OneDrive/Desktop/GD32VW553/V1_MQTT_OK/GD32VW55X_Wifi_BLE_SDK/GD32VW55x_RELEASE_V1.0.2/MSDK/cloud/alicloud/src/services/linkkit/cm\iotx_cm_mqtt.c ****             if (_mqtt_conncection->event_handler) {
 162:C:/Users/stapi/OneDrive/Desktop/GD32VW553/V1_MQTT_OK/GD32VW55X_Wifi_BLE_SDK/GD32VW55x_RELEASE_V1.0.2/MSDK/cloud/alicloud/src/services/linkkit/cm\iotx_cm_mqtt.c ****                 _mqtt_conncection->event_handler(_mqtt_conncection->fd, &event, _mqtt_conncection->
 163:C:/Users/stapi/OneDrive/Desktop/GD32VW553/V1_MQTT_OK/GD32VW55X_Wifi_BLE_SDK/GD32VW55x_RELEASE_V1.0.2/MSDK/cloud/alicloud/src/services/linkkit/cm\iotx_cm_mqtt.c ****             }
 164:C:/Users/stapi/OneDrive/Desktop/GD32VW553/V1_MQTT_OK/GD32VW55X_Wifi_BLE_SDK/GD32VW55x_RELEASE_V1.0.2/MSDK/cloud/alicloud/src/services/linkkit/cm\iotx_cm_mqtt.c ****         }
 165:C:/Users/stapi/OneDrive/Desktop/GD32VW553/V1_MQTT_OK/GD32VW55X_Wifi_BLE_SDK/GD32VW55x_RELEASE_V1.0.2/MSDK/cloud/alicloud/src/services/linkkit/cm\iotx_cm_mqtt.c ****         break;
 166:C:/Users/stapi/OneDrive/Desktop/GD32VW553/V1_MQTT_OK/GD32VW55X_Wifi_BLE_SDK/GD32VW55x_RELEASE_V1.0.2/MSDK/cloud/alicloud/src/services/linkkit/cm\iotx_cm_mqtt.c **** 
 167:C:/Users/stapi/OneDrive/Desktop/GD32VW553/V1_MQTT_OK/GD32VW55X_Wifi_BLE_SDK/GD32VW55x_RELEASE_V1.0.2/MSDK/cloud/alicloud/src/services/linkkit/cm\iotx_cm_mqtt.c ****         case IOTX_MQTT_EVENT_PUBLISH_NACK:
 168:C:/Users/stapi/OneDrive/Desktop/GD32VW553/V1_MQTT_OK/GD32VW55X_Wifi_BLE_SDK/GD32VW55x_RELEASE_V1.0.2/MSDK/cloud/alicloud/src/services/linkkit/cm\iotx_cm_mqtt.c ****         case IOTX_MQTT_EVENT_PUBLISH_TIMEOUT: {
 169:C:/Users/stapi/OneDrive/Desktop/GD32VW553/V1_MQTT_OK/GD32VW55X_Wifi_BLE_SDK/GD32VW55x_RELEASE_V1.0.2/MSDK/cloud/alicloud/src/services/linkkit/cm\iotx_cm_mqtt.c ****             iotx_cm_event_msg_t event;
 170:C:/Users/stapi/OneDrive/Desktop/GD32VW553/V1_MQTT_OK/GD32VW55X_Wifi_BLE_SDK/GD32VW55x_RELEASE_V1.0.2/MSDK/cloud/alicloud/src/services/linkkit/cm\iotx_cm_mqtt.c ****             event.type = IOTX_CM_EVENT_PUBLISH_FAILED;
 171:C:/Users/stapi/OneDrive/Desktop/GD32VW553/V1_MQTT_OK/GD32VW55X_Wifi_BLE_SDK/GD32VW55x_RELEASE_V1.0.2/MSDK/cloud/alicloud/src/services/linkkit/cm\iotx_cm_mqtt.c ****             event.msg = (void *)packet_id;
 172:C:/Users/stapi/OneDrive/Desktop/GD32VW553/V1_MQTT_OK/GD32VW55X_Wifi_BLE_SDK/GD32VW55x_RELEASE_V1.0.2/MSDK/cloud/alicloud/src/services/linkkit/cm\iotx_cm_mqtt.c **** 
 173:C:/Users/stapi/OneDrive/Desktop/GD32VW553/V1_MQTT_OK/GD32VW55X_Wifi_BLE_SDK/GD32VW55x_RELEASE_V1.0.2/MSDK/cloud/alicloud/src/services/linkkit/cm\iotx_cm_mqtt.c ****             if (_mqtt_conncection->event_handler) {
 139              		.loc 1 173 13
 140              		.loc 1 173 34 is_stmt 0
 141 0072 D857     		lw	a4,44(a5)
 142              		.loc 1 173 16
 143 0074 09C7     		beq	a4,zero,.L1
 174:C:/Users/stapi/OneDrive/Desktop/GD32VW553/V1_MQTT_OK/GD32VW55X_Wifi_BLE_SDK/GD32VW55x_RELEASE_V1.0.2/MSDK/cloud/alicloud/src/services/linkkit/cm\iotx_cm_mqtt.c ****                 _mqtt_conncection->event_handler(_mqtt_conncection->fd, &event, _mqtt_conncection->
 144              		.loc 1 174 17 is_stmt 1
 145 0076 905B     		lw	a2,48(a5)
 146 0078 8843     		lw	a0,0(a5)
 147 007a 2C00     		addi	a1,sp,8
 148 007c 0297     		jalr	a4
 149              	.LVL6:
 150              	.LBE4:
 175:C:/Users/stapi/OneDrive/Desktop/GD32VW553/V1_MQTT_OK/GD32VW55X_Wifi_BLE_SDK/GD32VW55x_RELEASE_V1.0.2/MSDK/cloud/alicloud/src/services/linkkit/cm\iotx_cm_mqtt.c ****             }
 176:C:/Users/stapi/OneDrive/Desktop/GD32VW553/V1_MQTT_OK/GD32VW55X_Wifi_BLE_SDK/GD32VW55x_RELEASE_V1.0.2/MSDK/cloud/alicloud/src/services/linkkit/cm\iotx_cm_mqtt.c ****         }
 177:C:/Users/stapi/OneDrive/Desktop/GD32VW553/V1_MQTT_OK/GD32VW55X_Wifi_BLE_SDK/GD32VW55x_RELEASE_V1.0.2/MSDK/cloud/alicloud/src/services/linkkit/cm\iotx_cm_mqtt.c ****         break;
 151              		.loc 1 177 9
 152              	.L1:
 178:C:/Users/stapi/OneDrive/Desktop/GD32VW553/V1_MQTT_OK/GD32VW55X_Wifi_BLE_SDK/GD32VW55x_RELEASE_V1.0.2/MSDK/cloud/alicloud/src/services/linkkit/cm\iotx_cm_mqtt.c **** 
 179:C:/Users/stapi/OneDrive/Desktop/GD32VW553/V1_MQTT_OK/GD32VW55X_Wifi_BLE_SDK/GD32VW55x_RELEASE_V1.0.2/MSDK/cloud/alicloud/src/services/linkkit/cm\iotx_cm_mqtt.c ****         case IOTX_MQTT_EVENT_PUBLISH_RECEIVED: {
 180:C:/Users/stapi/OneDrive/Desktop/GD32VW553/V1_MQTT_OK/GD32VW55X_Wifi_BLE_SDK/GD32VW55x_RELEASE_V1.0.2/MSDK/cloud/alicloud/src/services/linkkit/cm\iotx_cm_mqtt.c ****             iotx_mqtt_topic_info_pt topic_info = (iotx_mqtt_topic_info_pt)msg->msg;
 181:C:/Users/stapi/OneDrive/Desktop/GD32VW553/V1_MQTT_OK/GD32VW55X_Wifi_BLE_SDK/GD32VW55x_RELEASE_V1.0.2/MSDK/cloud/alicloud/src/services/linkkit/cm\iotx_cm_mqtt.c ****             iotx_cm_data_handle_cb topic_handle_func = pcontext;
 182:C:/Users/stapi/OneDrive/Desktop/GD32VW553/V1_MQTT_OK/GD32VW55X_Wifi_BLE_SDK/GD32VW55x_RELEASE_V1.0.2/MSDK/cloud/alicloud/src/services/linkkit/cm\iotx_cm_mqtt.c **** 
 183:C:/Users/stapi/OneDrive/Desktop/GD32VW553/V1_MQTT_OK/GD32VW55X_Wifi_BLE_SDK/GD32VW55x_RELEASE_V1.0.2/MSDK/cloud/alicloud/src/services/linkkit/cm\iotx_cm_mqtt.c ****             if (topic_handle_func == NULL) {
 184:C:/Users/stapi/OneDrive/Desktop/GD32VW553/V1_MQTT_OK/GD32VW55X_Wifi_BLE_SDK/GD32VW55x_RELEASE_V1.0.2/MSDK/cloud/alicloud/src/services/linkkit/cm\iotx_cm_mqtt.c ****                 CM_ERR("sub handle is null!");
 185:C:/Users/stapi/OneDrive/Desktop/GD32VW553/V1_MQTT_OK/GD32VW55X_Wifi_BLE_SDK/GD32VW55x_RELEASE_V1.0.2/MSDK/cloud/alicloud/src/services/linkkit/cm\iotx_cm_mqtt.c ****                 return;
 186:C:/Users/stapi/OneDrive/Desktop/GD32VW553/V1_MQTT_OK/GD32VW55X_Wifi_BLE_SDK/GD32VW55x_RELEASE_V1.0.2/MSDK/cloud/alicloud/src/services/linkkit/cm\iotx_cm_mqtt.c ****             }
 187:C:/Users/stapi/OneDrive/Desktop/GD32VW553/V1_MQTT_OK/GD32VW55X_Wifi_BLE_SDK/GD32VW55x_RELEASE_V1.0.2/MSDK/cloud/alicloud/src/services/linkkit/cm\iotx_cm_mqtt.c **** 
 188:C:/Users/stapi/OneDrive/Desktop/GD32VW553/V1_MQTT_OK/GD32VW55X_Wifi_BLE_SDK/GD32VW55x_RELEASE_V1.0.2/MSDK/cloud/alicloud/src/services/linkkit/cm\iotx_cm_mqtt.c ****             char *topic = cm_malloc(topic_info->topic_len + 1);
 189:C:/Users/stapi/OneDrive/Desktop/GD32VW553/V1_MQTT_OK/GD32VW55X_Wifi_BLE_SDK/GD32VW55x_RELEASE_V1.0.2/MSDK/cloud/alicloud/src/services/linkkit/cm\iotx_cm_mqtt.c ****             if (topic == NULL) {
 190:C:/Users/stapi/OneDrive/Desktop/GD32VW553/V1_MQTT_OK/GD32VW55X_Wifi_BLE_SDK/GD32VW55x_RELEASE_V1.0.2/MSDK/cloud/alicloud/src/services/linkkit/cm\iotx_cm_mqtt.c ****                 CM_ERR("topic malloc failed");
 191:C:/Users/stapi/OneDrive/Desktop/GD32VW553/V1_MQTT_OK/GD32VW55X_Wifi_BLE_SDK/GD32VW55x_RELEASE_V1.0.2/MSDK/cloud/alicloud/src/services/linkkit/cm\iotx_cm_mqtt.c ****                 return;
 192:C:/Users/stapi/OneDrive/Desktop/GD32VW553/V1_MQTT_OK/GD32VW55X_Wifi_BLE_SDK/GD32VW55x_RELEASE_V1.0.2/MSDK/cloud/alicloud/src/services/linkkit/cm\iotx_cm_mqtt.c ****             }
 193:C:/Users/stapi/OneDrive/Desktop/GD32VW553/V1_MQTT_OK/GD32VW55X_Wifi_BLE_SDK/GD32VW55x_RELEASE_V1.0.2/MSDK/cloud/alicloud/src/services/linkkit/cm\iotx_cm_mqtt.c ****             memset(topic,0,topic_info->topic_len + 1);
 194:C:/Users/stapi/OneDrive/Desktop/GD32VW553/V1_MQTT_OK/GD32VW55X_Wifi_BLE_SDK/GD32VW55x_RELEASE_V1.0.2/MSDK/cloud/alicloud/src/services/linkkit/cm\iotx_cm_mqtt.c ****             memcpy(topic,topic_info->ptopic,topic_info->topic_len);
 195:C:/Users/stapi/OneDrive/Desktop/GD32VW553/V1_MQTT_OK/GD32VW55X_Wifi_BLE_SDK/GD32VW55x_RELEASE_V1.0.2/MSDK/cloud/alicloud/src/services/linkkit/cm\iotx_cm_mqtt.c **** 
 196:C:/Users/stapi/OneDrive/Desktop/GD32VW553/V1_MQTT_OK/GD32VW55X_Wifi_BLE_SDK/GD32VW55x_RELEASE_V1.0.2/MSDK/cloud/alicloud/src/services/linkkit/cm\iotx_cm_mqtt.c ****             topic_handle_func(_mqtt_conncection->fd, topic, topic_info->payload, topic_info->payloa
 197:C:/Users/stapi/OneDrive/Desktop/GD32VW553/V1_MQTT_OK/GD32VW55X_Wifi_BLE_SDK/GD32VW55x_RELEASE_V1.0.2/MSDK/cloud/alicloud/src/services/linkkit/cm\iotx_cm_mqtt.c **** 
 198:C:/Users/stapi/OneDrive/Desktop/GD32VW553/V1_MQTT_OK/GD32VW55X_Wifi_BLE_SDK/GD32VW55x_RELEASE_V1.0.2/MSDK/cloud/alicloud/src/services/linkkit/cm\iotx_cm_mqtt.c ****             cm_free(topic);
 199:C:/Users/stapi/OneDrive/Desktop/GD32VW553/V1_MQTT_OK/GD32VW55X_Wifi_BLE_SDK/GD32VW55x_RELEASE_V1.0.2/MSDK/cloud/alicloud/src/services/linkkit/cm\iotx_cm_mqtt.c ****         }
 200:C:/Users/stapi/OneDrive/Desktop/GD32VW553/V1_MQTT_OK/GD32VW55X_Wifi_BLE_SDK/GD32VW55x_RELEASE_V1.0.2/MSDK/cloud/alicloud/src/services/linkkit/cm\iotx_cm_mqtt.c ****         break;
 201:C:/Users/stapi/OneDrive/Desktop/GD32VW553/V1_MQTT_OK/GD32VW55X_Wifi_BLE_SDK/GD32VW55x_RELEASE_V1.0.2/MSDK/cloud/alicloud/src/services/linkkit/cm\iotx_cm_mqtt.c **** 
 202:C:/Users/stapi/OneDrive/Desktop/GD32VW553/V1_MQTT_OK/GD32VW55X_Wifi_BLE_SDK/GD32VW55x_RELEASE_V1.0.2/MSDK/cloud/alicloud/src/services/linkkit/cm\iotx_cm_mqtt.c ****         case IOTX_MQTT_EVENT_BUFFER_OVERFLOW:
 203:C:/Users/stapi/OneDrive/Desktop/GD32VW553/V1_MQTT_OK/GD32VW55X_Wifi_BLE_SDK/GD32VW55x_RELEASE_V1.0.2/MSDK/cloud/alicloud/src/services/linkkit/cm\iotx_cm_mqtt.c ****             CM_WARN("buffer overflow", msg->msg);
 204:C:/Users/stapi/OneDrive/Desktop/GD32VW553/V1_MQTT_OK/GD32VW55X_Wifi_BLE_SDK/GD32VW55x_RELEASE_V1.0.2/MSDK/cloud/alicloud/src/services/linkkit/cm\iotx_cm_mqtt.c ****             break;
 205:C:/Users/stapi/OneDrive/Desktop/GD32VW553/V1_MQTT_OK/GD32VW55X_Wifi_BLE_SDK/GD32VW55x_RELEASE_V1.0.2/MSDK/cloud/alicloud/src/services/linkkit/cm\iotx_cm_mqtt.c **** 
 206:C:/Users/stapi/OneDrive/Desktop/GD32VW553/V1_MQTT_OK/GD32VW55X_Wifi_BLE_SDK/GD32VW55x_RELEASE_V1.0.2/MSDK/cloud/alicloud/src/services/linkkit/cm\iotx_cm_mqtt.c ****         default:
 207:C:/Users/stapi/OneDrive/Desktop/GD32VW553/V1_MQTT_OK/GD32VW55X_Wifi_BLE_SDK/GD32VW55x_RELEASE_V1.0.2/MSDK/cloud/alicloud/src/services/linkkit/cm\iotx_cm_mqtt.c ****             CM_WARN("msg type unkown, type = %d", msg->event_type);
 208:C:/Users/stapi/OneDrive/Desktop/GD32VW553/V1_MQTT_OK/GD32VW55X_Wifi_BLE_SDK/GD32VW55x_RELEASE_V1.0.2/MSDK/cloud/alicloud/src/services/linkkit/cm\iotx_cm_mqtt.c ****             break;
 209:C:/Users/stapi/OneDrive/Desktop/GD32VW553/V1_MQTT_OK/GD32VW55X_Wifi_BLE_SDK/GD32VW55x_RELEASE_V1.0.2/MSDK/cloud/alicloud/src/services/linkkit/cm\iotx_cm_mqtt.c ****     }
 210:C:/Users/stapi/OneDrive/Desktop/GD32VW553/V1_MQTT_OK/GD32VW55X_Wifi_BLE_SDK/GD32VW55x_RELEASE_V1.0.2/MSDK/cloud/alicloud/src/services/linkkit/cm\iotx_cm_mqtt.c **** }
 153              		.loc 1 210 1 is_stmt 0
 154 007e 4101     		addi	sp,sp,16
 155              		.cfi_remember_state
 156              		.cfi_def_cfa_offset 0
 157 0080 17030000 		tail	__riscv_restore_4
 157      67000300 
 158              		.cfi_restore 19
 159              		.cfi_restore 18
 160              		.cfi_restore 9
 161              		.cfi_restore 8
 162              		.cfi_restore 1
 163              		.cfi_def_cfa_offset -32
 164              	.LVL7:
 165              	.L13:
 166              		.cfi_restore_state
 167              	.LBB5:
  98:C:/Users/stapi/OneDrive/Desktop/GD32VW553/V1_MQTT_OK/GD32VW55X_Wifi_BLE_SDK/GD32VW55x_RELEASE_V1.0.2/MSDK/cloud/alicloud/src/services/linkkit/cm\iotx_cm_mqtt.c ****             iotx_cm_event_msg_t event;
 168              		.loc 1 98 13 is_stmt 1
  98:C:/Users/stapi/OneDrive/Desktop/GD32VW553/V1_MQTT_OK/GD32VW55X_Wifi_BLE_SDK/GD32VW55x_RELEASE_V1.0.2/MSDK/cloud/alicloud/src/services/linkkit/cm\iotx_cm_mqtt.c ****             iotx_cm_event_msg_t event;
 169              		.loc 1 98 13
 170 0088 37050000 		lui	a0,%hi(.LC0)
 171              	.LVL8:
 172 008c 13050500 		addi	a0,a0,%lo(.LC0)
 173 0090 97000000 		call	HAL_Printf
 173      E7800000 
 174              	.LVL9:
  98:C:/Users/stapi/OneDrive/Desktop/GD32VW553/V1_MQTT_OK/GD32VW55X_Wifi_BLE_SDK/GD32VW55x_RELEASE_V1.0.2/MSDK/cloud/alicloud/src/services/linkkit/cm\iotx_cm_mqtt.c ****             iotx_cm_event_msg_t event;
 175              		.loc 1 98 13
 176 0098 9C40     		lw	a5,0(s1)
 177 009a 37050000 		lui	a0,%hi(.LC3)
 178 009e 13050500 		addi	a0,a0,%lo(.LC3)
 179 00a2 8C43     		lw	a1,0(a5)
 180 00a4 97000000 		call	HAL_Printf
 180      E7800000 
 181              	.LVL10:
  98:C:/Users/stapi/OneDrive/Desktop/GD32VW553/V1_MQTT_OK/GD32VW55X_Wifi_BLE_SDK/GD32VW55x_RELEASE_V1.0.2/MSDK/cloud/alicloud/src/services/linkkit/cm\iotx_cm_mqtt.c ****             iotx_cm_event_msg_t event;
 182              		.loc 1 98 13
 183 00ac 37050000 		lui	a0,%hi(.LC2)
 184 00b0 13050500 		addi	a0,a0,%lo(.LC2)
 185 00b4 97000000 		call	HAL_Printf
 185      E7800000 
 186              	.LVL11:
  98:C:/Users/stapi/OneDrive/Desktop/GD32VW553/V1_MQTT_OK/GD32VW55X_Wifi_BLE_SDK/GD32VW55x_RELEASE_V1.0.2/MSDK/cloud/alicloud/src/services/linkkit/cm\iotx_cm_mqtt.c ****             iotx_cm_event_msg_t event;
 187              		.loc 1 98 13
  99:C:/Users/stapi/OneDrive/Desktop/GD32VW553/V1_MQTT_OK/GD32VW55X_Wifi_BLE_SDK/GD32VW55x_RELEASE_V1.0.2/MSDK/cloud/alicloud/src/services/linkkit/cm\iotx_cm_mqtt.c ****             event.type = IOTX_CM_EVENT_CLOUD_CONNECTED;
 188              		.loc 1 99 13
 100:C:/Users/stapi/OneDrive/Desktop/GD32VW553/V1_MQTT_OK/GD32VW55X_Wifi_BLE_SDK/GD32VW55x_RELEASE_V1.0.2/MSDK/cloud/alicloud/src/services/linkkit/cm\iotx_cm_mqtt.c ****             event.msg = NULL;
 189              		.loc 1 100 13
 100:C:/Users/stapi/OneDrive/Desktop/GD32VW553/V1_MQTT_OK/GD32VW55X_Wifi_BLE_SDK/GD32VW55x_RELEASE_V1.0.2/MSDK/cloud/alicloud/src/services/linkkit/cm\iotx_cm_mqtt.c ****             event.msg = NULL;
 190              		.loc 1 100 24 is_stmt 0
 191 00bc 02C4     		sw	zero,8(sp)
 192 00be 45BF     		j	.L67
 193              	.LVL12:
 194              	.L12:
 195              	.LBE5:
 196              	.LBB6:
 111:C:/Users/stapi/OneDrive/Desktop/GD32VW553/V1_MQTT_OK/GD32VW55X_Wifi_BLE_SDK/GD32VW55x_RELEASE_V1.0.2/MSDK/cloud/alicloud/src/services/linkkit/cm\iotx_cm_mqtt.c ****             event.type = IOTX_CM_EVENT_SUBCRIBE_SUCCESS;
 197              		.loc 1 111 13 is_stmt 1
 112:C:/Users/stapi/OneDrive/Desktop/GD32VW553/V1_MQTT_OK/GD32VW55X_Wifi_BLE_SDK/GD32VW55x_RELEASE_V1.0.2/MSDK/cloud/alicloud/src/services/linkkit/cm\iotx_cm_mqtt.c ****             event.msg = (void *)packet_id;
 198              		.loc 1 112 13
 112:C:/Users/stapi/OneDrive/Desktop/GD32VW553/V1_MQTT_OK/GD32VW55X_Wifi_BLE_SDK/GD32VW55x_RELEASE_V1.0.2/MSDK/cloud/alicloud/src/services/linkkit/cm\iotx_cm_mqtt.c ****             event.msg = (void *)packet_id;
 199              		.loc 1 112 24 is_stmt 0
 200 00c0 0D47     		li	a4,3
 201              	.L60:
 202              	.LBE6:
 203              	.LBB7:
 170:C:/Users/stapi/OneDrive/Desktop/GD32VW553/V1_MQTT_OK/GD32VW55X_Wifi_BLE_SDK/GD32VW55x_RELEASE_V1.0.2/MSDK/cloud/alicloud/src/services/linkkit/cm\iotx_cm_mqtt.c ****             event.msg = (void *)packet_id;
 204              		.loc 1 170 24
 205 00c2 3AC4     		sw	a4,8(sp)
 171:C:/Users/stapi/OneDrive/Desktop/GD32VW553/V1_MQTT_OK/GD32VW55X_Wifi_BLE_SDK/GD32VW55x_RELEASE_V1.0.2/MSDK/cloud/alicloud/src/services/linkkit/cm\iotx_cm_mqtt.c **** 
 206              		.loc 1 171 13 is_stmt 1
 171:C:/Users/stapi/OneDrive/Desktop/GD32VW553/V1_MQTT_OK/GD32VW55X_Wifi_BLE_SDK/GD32VW55x_RELEASE_V1.0.2/MSDK/cloud/alicloud/src/services/linkkit/cm\iotx_cm_mqtt.c **** 
 207              		.loc 1 171 23 is_stmt 0
 208 00c4 22C6     		sw	s0,12(sp)
 209 00c6 75B7     		j	.L58
 210              	.L11:
 211              	.LBE7:
 212              	.LBB8:
 123:C:/Users/stapi/OneDrive/Desktop/GD32VW553/V1_MQTT_OK/GD32VW55X_Wifi_BLE_SDK/GD32VW55x_RELEASE_V1.0.2/MSDK/cloud/alicloud/src/services/linkkit/cm\iotx_cm_mqtt.c ****             event.type = IOTX_CM_EVENT_SUBCRIBE_FAILED;
 213              		.loc 1 123 13 is_stmt 1
 124:C:/Users/stapi/OneDrive/Desktop/GD32VW553/V1_MQTT_OK/GD32VW55X_Wifi_BLE_SDK/GD32VW55x_RELEASE_V1.0.2/MSDK/cloud/alicloud/src/services/linkkit/cm\iotx_cm_mqtt.c ****             event.msg = (void *)packet_id;
 214              		.loc 1 124 13
 124:C:/Users/stapi/OneDrive/Desktop/GD32VW553/V1_MQTT_OK/GD32VW55X_Wifi_BLE_SDK/GD32VW55x_RELEASE_V1.0.2/MSDK/cloud/alicloud/src/services/linkkit/cm\iotx_cm_mqtt.c ****             event.msg = (void *)packet_id;
 215              		.loc 1 124 24 is_stmt 0
 216 00c8 1147     		li	a4,4
 217 00ca E5BF     		j	.L60
 218              	.L10:
 219              	.LBE8:
 220              	.LBB9:
 134:C:/Users/stapi/OneDrive/Desktop/GD32VW553/V1_MQTT_OK/GD32VW55X_Wifi_BLE_SDK/GD32VW55x_RELEASE_V1.0.2/MSDK/cloud/alicloud/src/services/linkkit/cm\iotx_cm_mqtt.c ****             event.type = IOTX_CM_EVENT_UNSUB_SUCCESS;
 221              		.loc 1 134 13 is_stmt 1
 135:C:/Users/stapi/OneDrive/Desktop/GD32VW553/V1_MQTT_OK/GD32VW55X_Wifi_BLE_SDK/GD32VW55x_RELEASE_V1.0.2/MSDK/cloud/alicloud/src/services/linkkit/cm\iotx_cm_mqtt.c ****             event.msg = (void *)packet_id;
 222              		.loc 1 135 13
 135:C:/Users/stapi/OneDrive/Desktop/GD32VW553/V1_MQTT_OK/GD32VW55X_Wifi_BLE_SDK/GD32VW55x_RELEASE_V1.0.2/MSDK/cloud/alicloud/src/services/linkkit/cm\iotx_cm_mqtt.c ****             event.msg = (void *)packet_id;
 223              		.loc 1 135 24 is_stmt 0
 224 00cc 1547     		li	a4,5
 225 00ce D5BF     		j	.L60
 226              	.L9:
 227              	.LBE9:
 228              	.LBB10:
 146:C:/Users/stapi/OneDrive/Desktop/GD32VW553/V1_MQTT_OK/GD32VW55X_Wifi_BLE_SDK/GD32VW55x_RELEASE_V1.0.2/MSDK/cloud/alicloud/src/services/linkkit/cm\iotx_cm_mqtt.c ****             event.type = IOTX_CM_EVENT_UNSUB_FAILED;
 229              		.loc 1 146 13 is_stmt 1
 147:C:/Users/stapi/OneDrive/Desktop/GD32VW553/V1_MQTT_OK/GD32VW55X_Wifi_BLE_SDK/GD32VW55x_RELEASE_V1.0.2/MSDK/cloud/alicloud/src/services/linkkit/cm\iotx_cm_mqtt.c ****             event.msg = (void *)packet_id;
 230              		.loc 1 147 13
 147:C:/Users/stapi/OneDrive/Desktop/GD32VW553/V1_MQTT_OK/GD32VW55X_Wifi_BLE_SDK/GD32VW55x_RELEASE_V1.0.2/MSDK/cloud/alicloud/src/services/linkkit/cm\iotx_cm_mqtt.c ****             event.msg = (void *)packet_id;
 231              		.loc 1 147 24 is_stmt 0
 232 00d0 1947     		li	a4,6
 233 00d2 C5BF     		j	.L60
 234              	.L8:
 235              	.LBE10:
 236              	.LBB11:
 157:C:/Users/stapi/OneDrive/Desktop/GD32VW553/V1_MQTT_OK/GD32VW55X_Wifi_BLE_SDK/GD32VW55x_RELEASE_V1.0.2/MSDK/cloud/alicloud/src/services/linkkit/cm\iotx_cm_mqtt.c ****             event.type = IOTX_CM_EVENT_PUBLISH_SUCCESS;
 237              		.loc 1 157 13 is_stmt 1
 158:C:/Users/stapi/OneDrive/Desktop/GD32VW553/V1_MQTT_OK/GD32VW55X_Wifi_BLE_SDK/GD32VW55x_RELEASE_V1.0.2/MSDK/cloud/alicloud/src/services/linkkit/cm\iotx_cm_mqtt.c ****             event.msg = (void *)packet_id;
 238              		.loc 1 158 13
 158:C:/Users/stapi/OneDrive/Desktop/GD32VW553/V1_MQTT_OK/GD32VW55X_Wifi_BLE_SDK/GD32VW55x_RELEASE_V1.0.2/MSDK/cloud/alicloud/src/services/linkkit/cm\iotx_cm_mqtt.c ****             event.msg = (void *)packet_id;
 239              		.loc 1 158 24 is_stmt 0
 240 00d4 1D47     		li	a4,7
 241 00d6 F5B7     		j	.L60
 242              	.L7:
 243              	.LBE11:
 244              	.LBB12:
 169:C:/Users/stapi/OneDrive/Desktop/GD32VW553/V1_MQTT_OK/GD32VW55X_Wifi_BLE_SDK/GD32VW55x_RELEASE_V1.0.2/MSDK/cloud/alicloud/src/services/linkkit/cm\iotx_cm_mqtt.c ****             event.type = IOTX_CM_EVENT_PUBLISH_FAILED;
 245              		.loc 1 169 13 is_stmt 1
 170:C:/Users/stapi/OneDrive/Desktop/GD32VW553/V1_MQTT_OK/GD32VW55X_Wifi_BLE_SDK/GD32VW55x_RELEASE_V1.0.2/MSDK/cloud/alicloud/src/services/linkkit/cm\iotx_cm_mqtt.c ****             event.msg = (void *)packet_id;
 246              		.loc 1 170 13
 170:C:/Users/stapi/OneDrive/Desktop/GD32VW553/V1_MQTT_OK/GD32VW55X_Wifi_BLE_SDK/GD32VW55x_RELEASE_V1.0.2/MSDK/cloud/alicloud/src/services/linkkit/cm\iotx_cm_mqtt.c ****             event.msg = (void *)packet_id;
 247              		.loc 1 170 24 is_stmt 0
 248 00d8 2147     		li	a4,8
 249 00da E5B7     		j	.L60
 250              	.L6:
 251 00dc AA89     		mv	s3,a0
 252              	.LBE12:
 253              	.LBB13:
 180:C:/Users/stapi/OneDrive/Desktop/GD32VW553/V1_MQTT_OK/GD32VW55X_Wifi_BLE_SDK/GD32VW55x_RELEASE_V1.0.2/MSDK/cloud/alicloud/src/services/linkkit/cm\iotx_cm_mqtt.c ****             iotx_cm_data_handle_cb topic_handle_func = pcontext;
 254              		.loc 1 180 13 is_stmt 1
 255              	.LVL13:
 181:C:/Users/stapi/OneDrive/Desktop/GD32VW553/V1_MQTT_OK/GD32VW55X_Wifi_BLE_SDK/GD32VW55x_RELEASE_V1.0.2/MSDK/cloud/alicloud/src/services/linkkit/cm\iotx_cm_mqtt.c **** 
 256              		.loc 1 181 13
 183:C:/Users/stapi/OneDrive/Desktop/GD32VW553/V1_MQTT_OK/GD32VW55X_Wifi_BLE_SDK/GD32VW55x_RELEASE_V1.0.2/MSDK/cloud/alicloud/src/services/linkkit/cm\iotx_cm_mqtt.c ****                 CM_ERR("sub handle is null!");
 257              		.loc 1 183 13
 183:C:/Users/stapi/OneDrive/Desktop/GD32VW553/V1_MQTT_OK/GD32VW55X_Wifi_BLE_SDK/GD32VW55x_RELEASE_V1.0.2/MSDK/cloud/alicloud/src/services/linkkit/cm\iotx_cm_mqtt.c ****                 CM_ERR("sub handle is null!");
 258              		.loc 1 183 16 is_stmt 0
 259 00de 15E9     		bne	a0,zero,.L23
 260              	.LVL14:
 184:C:/Users/stapi/OneDrive/Desktop/GD32VW553/V1_MQTT_OK/GD32VW55X_Wifi_BLE_SDK/GD32VW55x_RELEASE_V1.0.2/MSDK/cloud/alicloud/src/services/linkkit/cm\iotx_cm_mqtt.c ****                 return;
 261              		.loc 1 184 17 is_stmt 1
 184:C:/Users/stapi/OneDrive/Desktop/GD32VW553/V1_MQTT_OK/GD32VW55X_Wifi_BLE_SDK/GD32VW55x_RELEASE_V1.0.2/MSDK/cloud/alicloud/src/services/linkkit/cm\iotx_cm_mqtt.c ****                 return;
 262              		.loc 1 184 17
 263 00e0 37050000 		lui	a0,%hi(.LC4)
 264              	.LVL15:
 265 00e4 13050500 		addi	a0,a0,%lo(.LC4)
 266 00e8 97000000 		call	HAL_Printf
 266      E7800000 
 267              	.LVL16:
 184:C:/Users/stapi/OneDrive/Desktop/GD32VW553/V1_MQTT_OK/GD32VW55X_Wifi_BLE_SDK/GD32VW55x_RELEASE_V1.0.2/MSDK/cloud/alicloud/src/services/linkkit/cm\iotx_cm_mqtt.c ****                 return;
 268              		.loc 1 184 17
 269 00f0 37050000 		lui	a0,%hi(.LC5)
 270 00f4 13050500 		addi	a0,a0,%lo(.LC5)
 271              	.LVL17:
 272              	.L66:
 190:C:/Users/stapi/OneDrive/Desktop/GD32VW553/V1_MQTT_OK/GD32VW55X_Wifi_BLE_SDK/GD32VW55x_RELEASE_V1.0.2/MSDK/cloud/alicloud/src/services/linkkit/cm\iotx_cm_mqtt.c ****                 return;
 273              		.loc 1 190 17 is_stmt 0
 274 00f8 97000000 		call	HAL_Printf
 274      E7800000 
 275              	.LVL18:
 190:C:/Users/stapi/OneDrive/Desktop/GD32VW553/V1_MQTT_OK/GD32VW55X_Wifi_BLE_SDK/GD32VW55x_RELEASE_V1.0.2/MSDK/cloud/alicloud/src/services/linkkit/cm\iotx_cm_mqtt.c ****                 return;
 276              		.loc 1 190 17 is_stmt 1
 277              	.L55:
 278              	.LBE13:
 207:C:/Users/stapi/OneDrive/Desktop/GD32VW553/V1_MQTT_OK/GD32VW55X_Wifi_BLE_SDK/GD32VW55x_RELEASE_V1.0.2/MSDK/cloud/alicloud/src/services/linkkit/cm\iotx_cm_mqtt.c ****             break;
 279              		.loc 1 207 13
 280 0100 37050000 		lui	a0,%hi(.LC2)
 281 0104 13050500 		addi	a0,a0,%lo(.LC2)
 282 0108 97000000 		call	HAL_Printf
 282      E7800000 
 283              	.LVL19:
 207:C:/Users/stapi/OneDrive/Desktop/GD32VW553/V1_MQTT_OK/GD32VW55X_Wifi_BLE_SDK/GD32VW55x_RELEASE_V1.0.2/MSDK/cloud/alicloud/src/services/linkkit/cm\iotx_cm_mqtt.c ****             break;
 284              		.loc 1 207 13
 208:C:/Users/stapi/OneDrive/Desktop/GD32VW553/V1_MQTT_OK/GD32VW55X_Wifi_BLE_SDK/GD32VW55x_RELEASE_V1.0.2/MSDK/cloud/alicloud/src/services/linkkit/cm\iotx_cm_mqtt.c ****     }
 285              		.loc 1 208 13
 286 0110 BDB7     		j	.L1
 287              	.LVL20:
 288              	.L23:
 289              	.LBB14:
 188:C:/Users/stapi/OneDrive/Desktop/GD32VW553/V1_MQTT_OK/GD32VW55X_Wifi_BLE_SDK/GD32VW55x_RELEASE_V1.0.2/MSDK/cloud/alicloud/src/services/linkkit/cm\iotx_cm_mqtt.c ****             if (topic == NULL) {
 290              		.loc 1 188 13
 188:C:/Users/stapi/OneDrive/Desktop/GD32VW553/V1_MQTT_OK/GD32VW55X_Wifi_BLE_SDK/GD32VW55x_RELEASE_V1.0.2/MSDK/cloud/alicloud/src/services/linkkit/cm\iotx_cm_mqtt.c ****             if (topic == NULL) {
 291              		.loc 1 188 27 is_stmt 0
 292 0112 03566400 		lhu	a2,6(s0)
 293              	.LVL21:
 294 0116 8145     		li	a1,0
 295              	.LVL22:
 296 0118 0145     		li	a0,0
 297              	.LVL23:
 298 011a 0506     		addi	a2,a2,1
 299 011c 97000000 		call	LITE_malloc_internal
 299      E7800000 
 300              	.LVL24:
 301 0124 2A89     		mv	s2,a0
 302              	.LVL25:
 189:C:/Users/stapi/OneDrive/Desktop/GD32VW553/V1_MQTT_OK/GD32VW55X_Wifi_BLE_SDK/GD32VW55x_RELEASE_V1.0.2/MSDK/cloud/alicloud/src/services/linkkit/cm\iotx_cm_mqtt.c ****                 CM_ERR("topic malloc failed");
 303              		.loc 1 189 13 is_stmt 1
 189:C:/Users/stapi/OneDrive/Desktop/GD32VW553/V1_MQTT_OK/GD32VW55X_Wifi_BLE_SDK/GD32VW55x_RELEASE_V1.0.2/MSDK/cloud/alicloud/src/services/linkkit/cm\iotx_cm_mqtt.c ****                 CM_ERR("topic malloc failed");
 304              		.loc 1 189 16 is_stmt 0
 305 0126 11ED     		bne	a0,zero,.L24
 190:C:/Users/stapi/OneDrive/Desktop/GD32VW553/V1_MQTT_OK/GD32VW55X_Wifi_BLE_SDK/GD32VW55x_RELEASE_V1.0.2/MSDK/cloud/alicloud/src/services/linkkit/cm\iotx_cm_mqtt.c ****                 return;
 306              		.loc 1 190 17 is_stmt 1
 190:C:/Users/stapi/OneDrive/Desktop/GD32VW553/V1_MQTT_OK/GD32VW55X_Wifi_BLE_SDK/GD32VW55x_RELEASE_V1.0.2/MSDK/cloud/alicloud/src/services/linkkit/cm\iotx_cm_mqtt.c ****                 return;
 307              		.loc 1 190 17
 308 0128 37050000 		lui	a0,%hi(.LC4)
 309              	.LVL26:
 310 012c 13050500 		addi	a0,a0,%lo(.LC4)
 311 0130 97000000 		call	HAL_Printf
 311      E7800000 
 312              	.LVL27:
 190:C:/Users/stapi/OneDrive/Desktop/GD32VW553/V1_MQTT_OK/GD32VW55X_Wifi_BLE_SDK/GD32VW55x_RELEASE_V1.0.2/MSDK/cloud/alicloud/src/services/linkkit/cm\iotx_cm_mqtt.c ****                 return;
 313              		.loc 1 190 17
 314 0138 37050000 		lui	a0,%hi(.LC6)
 315 013c 13050500 		addi	a0,a0,%lo(.LC6)
 316 0140 65BF     		j	.L66
 317              	.LVL28:
 318              	.L24:
 193:C:/Users/stapi/OneDrive/Desktop/GD32VW553/V1_MQTT_OK/GD32VW55X_Wifi_BLE_SDK/GD32VW55x_RELEASE_V1.0.2/MSDK/cloud/alicloud/src/services/linkkit/cm\iotx_cm_mqtt.c ****             memcpy(topic,topic_info->ptopic,topic_info->topic_len);
 319              		.loc 1 193 13
 193:C:/Users/stapi/OneDrive/Desktop/GD32VW553/V1_MQTT_OK/GD32VW55X_Wifi_BLE_SDK/GD32VW55x_RELEASE_V1.0.2/MSDK/cloud/alicloud/src/services/linkkit/cm\iotx_cm_mqtt.c ****             memcpy(topic,topic_info->ptopic,topic_info->topic_len);
 320              		.loc 1 193 38 is_stmt 0
 321 0142 03566400 		lhu	a2,6(s0)
 193:C:/Users/stapi/OneDrive/Desktop/GD32VW553/V1_MQTT_OK/GD32VW55X_Wifi_BLE_SDK/GD32VW55x_RELEASE_V1.0.2/MSDK/cloud/alicloud/src/services/linkkit/cm\iotx_cm_mqtt.c ****             memcpy(topic,topic_info->ptopic,topic_info->topic_len);
 322              		.loc 1 193 13
 323 0146 8145     		li	a1,0
 324 0148 0506     		addi	a2,a2,1
 325 014a 97000000 		call	memset
 325      E7800000 
 326              	.LVL29:
 194:C:/Users/stapi/OneDrive/Desktop/GD32VW553/V1_MQTT_OK/GD32VW55X_Wifi_BLE_SDK/GD32VW55x_RELEASE_V1.0.2/MSDK/cloud/alicloud/src/services/linkkit/cm\iotx_cm_mqtt.c **** 
 327              		.loc 1 194 13 is_stmt 1
 328 0152 03566400 		lhu	a2,6(s0)
 329 0156 4C44     		lw	a1,12(s0)
 330 0158 4A85     		mv	a0,s2
 331 015a 97000000 		call	memcpy
 331      E7800000 
 332              	.LVL30:
 196:C:/Users/stapi/OneDrive/Desktop/GD32VW553/V1_MQTT_OK/GD32VW55X_Wifi_BLE_SDK/GD32VW55x_RELEASE_V1.0.2/MSDK/cloud/alicloud/src/services/linkkit/cm\iotx_cm_mqtt.c **** 
 333              		.loc 1 196 13
 334 0162 9C40     		lw	a5,0(s1)
 335 0164 1444     		lw	a3,8(s0)
 336 0166 1048     		lw	a2,16(s0)
 337 0168 8843     		lw	a0,0(a5)
 338 016a 0147     		li	a4,0
 339 016c CA85     		mv	a1,s2
 340 016e 8299     		jalr	s3
 341              	.LVL31:
 198:C:/Users/stapi/OneDrive/Desktop/GD32VW553/V1_MQTT_OK/GD32VW55X_Wifi_BLE_SDK/GD32VW55x_RELEASE_V1.0.2/MSDK/cloud/alicloud/src/services/linkkit/cm\iotx_cm_mqtt.c ****         }
 342              		.loc 1 198 13
 343 0170 4A85     		mv	a0,s2
 344 0172 97000000 		call	LITE_free_internal
 344      E7800000 
 345              	.LVL32:
 346              	.LBE14:
 200:C:/Users/stapi/OneDrive/Desktop/GD32VW553/V1_MQTT_OK/GD32VW55X_Wifi_BLE_SDK/GD32VW55x_RELEASE_V1.0.2/MSDK/cloud/alicloud/src/services/linkkit/cm\iotx_cm_mqtt.c **** 
 347              		.loc 1 200 9
 348 017a 11B7     		j	.L1
 349              	.LVL33:
 350              	.L4:
 203:C:/Users/stapi/OneDrive/Desktop/GD32VW553/V1_MQTT_OK/GD32VW55X_Wifi_BLE_SDK/GD32VW55x_RELEASE_V1.0.2/MSDK/cloud/alicloud/src/services/linkkit/cm\iotx_cm_mqtt.c ****             break;
 351              		.loc 1 203 13
 203:C:/Users/stapi/OneDrive/Desktop/GD32VW553/V1_MQTT_OK/GD32VW55X_Wifi_BLE_SDK/GD32VW55x_RELEASE_V1.0.2/MSDK/cloud/alicloud/src/services/linkkit/cm\iotx_cm_mqtt.c ****             break;
 352              		.loc 1 203 13
 353 017c 37050000 		lui	a0,%hi(.LC7)
 354              	.LVL34:
 355 0180 13050500 		addi	a0,a0,%lo(.LC7)
 356 0184 97000000 		call	HAL_Printf
 356      E7800000 
 357              	.LVL35:
 203:C:/Users/stapi/OneDrive/Desktop/GD32VW553/V1_MQTT_OK/GD32VW55X_Wifi_BLE_SDK/GD32VW55x_RELEASE_V1.0.2/MSDK/cloud/alicloud/src/services/linkkit/cm\iotx_cm_mqtt.c ****             break;
 358              		.loc 1 203 13
 359 018c 83254900 		lw	a1,4(s2)
 360 0190 37050000 		lui	a0,%hi(.LC8)
 361 0194 13050500 		addi	a0,a0,%lo(.LC8)
 362              	.L54:
 207:C:/Users/stapi/OneDrive/Desktop/GD32VW553/V1_MQTT_OK/GD32VW55X_Wifi_BLE_SDK/GD32VW55x_RELEASE_V1.0.2/MSDK/cloud/alicloud/src/services/linkkit/cm\iotx_cm_mqtt.c ****             break;
 363              		.loc 1 207 13 is_stmt 0
 364 0198 97000000 		call	HAL_Printf
 364      E7800000 
 365              	.LVL36:
 366 01a0 85B7     		j	.L55
 367              	.LVL37:
 368              	.L3:
 207:C:/Users/stapi/OneDrive/Desktop/GD32VW553/V1_MQTT_OK/GD32VW55X_Wifi_BLE_SDK/GD32VW55x_RELEASE_V1.0.2/MSDK/cloud/alicloud/src/services/linkkit/cm\iotx_cm_mqtt.c ****             break;
 369              		.loc 1 207 13 is_stmt 1
 207:C:/Users/stapi/OneDrive/Desktop/GD32VW553/V1_MQTT_OK/GD32VW55X_Wifi_BLE_SDK/GD32VW55x_RELEASE_V1.0.2/MSDK/cloud/alicloud/src/services/linkkit/cm\iotx_cm_mqtt.c ****             break;
 370              		.loc 1 207 13
 371 01a2 37050000 		lui	a0,%hi(.LC7)
 372              	.LVL38:
 373 01a6 13050500 		addi	a0,a0,%lo(.LC7)
 374 01aa 97000000 		call	HAL_Printf
 374      E7800000 
 375              	.LVL39:
 207:C:/Users/stapi/OneDrive/Desktop/GD32VW553/V1_MQTT_OK/GD32VW55X_Wifi_BLE_SDK/GD32VW55x_RELEASE_V1.0.2/MSDK/cloud/alicloud/src/services/linkkit/cm\iotx_cm_mqtt.c ****             break;
 376              		.loc 1 207 13
 377 01b2 37050000 		lui	a0,%hi(.LC9)
 378 01b6 83250900 		lw	a1,0(s2)
 379 01ba 13050500 		addi	a0,a0,%lo(.LC9)
 380 01be E9BF     		j	.L54
 381              		.cfi_endproc
 382              	.LFE21:
 384              		.section	.rodata._mqtt_sub.str1.4,"aMS",@progbits,1
 385              		.align	2
 386              	.LC10:
 387 0000 5F6D7174 		.string	"_mqtt_conncection"
 387      745F636F 
 387      6E6E6365 
 387      6374696F 
 387      6E00
 388 0012 0000     		.align	2
 389              	.LC11:
 390 0014 496E7661 		.string	"Invalid argument, %s = %p"
 390      6C696420 
 390      61726775 
 390      6D656E74 
 390      2C202573 
 391 002e 0000     		.align	2
 392              	.LC12:
 393 0030 746F7069 		.string	"topic"
 393      6300
 394 0036 0000     		.align	2
 395              	.LC13:
 396 0038 746F7069 		.string	"topic_handle_func"
 396      635F6861 
 396      6E646C65 
 396      5F66756E 
 396      6300
 397              		.section	.text._mqtt_sub,"ax",@progbits
 398              		.align	1
 400              	_mqtt_sub:
 401              	.LFB25:
 211:C:/Users/stapi/OneDrive/Desktop/GD32VW553/V1_MQTT_OK/GD32VW55X_Wifi_BLE_SDK/GD32VW55x_RELEASE_V1.0.2/MSDK/cloud/alicloud/src/services/linkkit/cm\iotx_cm_mqtt.c **** 
 212:C:/Users/stapi/OneDrive/Desktop/GD32VW553/V1_MQTT_OK/GD32VW55X_Wifi_BLE_SDK/GD32VW55x_RELEASE_V1.0.2/MSDK/cloud/alicloud/src/services/linkkit/cm\iotx_cm_mqtt.c **** static int  _mqtt_connect(uint32_t timeout)
 213:C:/Users/stapi/OneDrive/Desktop/GD32VW553/V1_MQTT_OK/GD32VW55X_Wifi_BLE_SDK/GD32VW55x_RELEASE_V1.0.2/MSDK/cloud/alicloud/src/services/linkkit/cm\iotx_cm_mqtt.c **** {
 214:C:/Users/stapi/OneDrive/Desktop/GD32VW553/V1_MQTT_OK/GD32VW55X_Wifi_BLE_SDK/GD32VW55x_RELEASE_V1.0.2/MSDK/cloud/alicloud/src/services/linkkit/cm\iotx_cm_mqtt.c **** #define BASE_INTERVAL_TIME_MS (1000)
 215:C:/Users/stapi/OneDrive/Desktop/GD32VW553/V1_MQTT_OK/GD32VW55X_Wifi_BLE_SDK/GD32VW55x_RELEASE_V1.0.2/MSDK/cloud/alicloud/src/services/linkkit/cm\iotx_cm_mqtt.c ****     void *pclient;
 216:C:/Users/stapi/OneDrive/Desktop/GD32VW553/V1_MQTT_OK/GD32VW55X_Wifi_BLE_SDK/GD32VW55x_RELEASE_V1.0.2/MSDK/cloud/alicloud/src/services/linkkit/cm\iotx_cm_mqtt.c ****     iotx_time_t timer;
 217:C:/Users/stapi/OneDrive/Desktop/GD32VW553/V1_MQTT_OK/GD32VW55X_Wifi_BLE_SDK/GD32VW55x_RELEASE_V1.0.2/MSDK/cloud/alicloud/src/services/linkkit/cm\iotx_cm_mqtt.c ****     iotx_mqtt_param_t *mqtt_param = NULL;
 218:C:/Users/stapi/OneDrive/Desktop/GD32VW553/V1_MQTT_OK/GD32VW55X_Wifi_BLE_SDK/GD32VW55x_RELEASE_V1.0.2/MSDK/cloud/alicloud/src/services/linkkit/cm\iotx_cm_mqtt.c ****     iotx_conn_info_pt pconn_info = NULL;
 219:C:/Users/stapi/OneDrive/Desktop/GD32VW553/V1_MQTT_OK/GD32VW55X_Wifi_BLE_SDK/GD32VW55x_RELEASE_V1.0.2/MSDK/cloud/alicloud/src/services/linkkit/cm\iotx_cm_mqtt.c ****     uint32_t interval_ms = BASE_INTERVAL_TIME_MS;
 220:C:/Users/stapi/OneDrive/Desktop/GD32VW553/V1_MQTT_OK/GD32VW55X_Wifi_BLE_SDK/GD32VW55x_RELEASE_V1.0.2/MSDK/cloud/alicloud/src/services/linkkit/cm\iotx_cm_mqtt.c ****     uint32_t sleep_ms = 0;
 221:C:/Users/stapi/OneDrive/Desktop/GD32VW553/V1_MQTT_OK/GD32VW55X_Wifi_BLE_SDK/GD32VW55x_RELEASE_V1.0.2/MSDK/cloud/alicloud/src/services/linkkit/cm\iotx_cm_mqtt.c ****     char product_key[PRODUCT_KEY_LEN + 1] = {0};
 222:C:/Users/stapi/OneDrive/Desktop/GD32VW553/V1_MQTT_OK/GD32VW55X_Wifi_BLE_SDK/GD32VW55x_RELEASE_V1.0.2/MSDK/cloud/alicloud/src/services/linkkit/cm\iotx_cm_mqtt.c ****     char device_name[DEVICE_NAME_LEN + 1] = {0};
 223:C:/Users/stapi/OneDrive/Desktop/GD32VW553/V1_MQTT_OK/GD32VW55X_Wifi_BLE_SDK/GD32VW55x_RELEASE_V1.0.2/MSDK/cloud/alicloud/src/services/linkkit/cm\iotx_cm_mqtt.c ****     char device_secret[DEVICE_SECRET_LEN + 1] = {0};
 224:C:/Users/stapi/OneDrive/Desktop/GD32VW553/V1_MQTT_OK/GD32VW55X_Wifi_BLE_SDK/GD32VW55x_RELEASE_V1.0.2/MSDK/cloud/alicloud/src/services/linkkit/cm\iotx_cm_mqtt.c ****     char device_id[DEVICE_ID_LEN + 1] = {0};
 225:C:/Users/stapi/OneDrive/Desktop/GD32VW553/V1_MQTT_OK/GD32VW55X_Wifi_BLE_SDK/GD32VW55x_RELEASE_V1.0.2/MSDK/cloud/alicloud/src/services/linkkit/cm\iotx_cm_mqtt.c **** 
 226:C:/Users/stapi/OneDrive/Desktop/GD32VW553/V1_MQTT_OK/GD32VW55X_Wifi_BLE_SDK/GD32VW55x_RELEASE_V1.0.2/MSDK/cloud/alicloud/src/services/linkkit/cm\iotx_cm_mqtt.c ****     POINTER_SANITY_CHECK(_mqtt_conncection, NULL_VALUE_ERROR);
 227:C:/Users/stapi/OneDrive/Desktop/GD32VW553/V1_MQTT_OK/GD32VW55X_Wifi_BLE_SDK/GD32VW55x_RELEASE_V1.0.2/MSDK/cloud/alicloud/src/services/linkkit/cm\iotx_cm_mqtt.c **** 
 228:C:/Users/stapi/OneDrive/Desktop/GD32VW553/V1_MQTT_OK/GD32VW55X_Wifi_BLE_SDK/GD32VW55x_RELEASE_V1.0.2/MSDK/cloud/alicloud/src/services/linkkit/cm\iotx_cm_mqtt.c ****     mqtt_param = _mqtt_conncection->open_params;
 229:C:/Users/stapi/OneDrive/Desktop/GD32VW553/V1_MQTT_OK/GD32VW55X_Wifi_BLE_SDK/GD32VW55x_RELEASE_V1.0.2/MSDK/cloud/alicloud/src/services/linkkit/cm\iotx_cm_mqtt.c ****     POINTER_SANITY_CHECK(mqtt_param, NULL_VALUE_ERROR);
 230:C:/Users/stapi/OneDrive/Desktop/GD32VW553/V1_MQTT_OK/GD32VW55X_Wifi_BLE_SDK/GD32VW55x_RELEASE_V1.0.2/MSDK/cloud/alicloud/src/services/linkkit/cm\iotx_cm_mqtt.c **** 
 231:C:/Users/stapi/OneDrive/Desktop/GD32VW553/V1_MQTT_OK/GD32VW55X_Wifi_BLE_SDK/GD32VW55x_RELEASE_V1.0.2/MSDK/cloud/alicloud/src/services/linkkit/cm\iotx_cm_mqtt.c ****     iotx_guider_get_kv_env();
 232:C:/Users/stapi/OneDrive/Desktop/GD32VW553/V1_MQTT_OK/GD32VW55X_Wifi_BLE_SDK/GD32VW55x_RELEASE_V1.0.2/MSDK/cloud/alicloud/src/services/linkkit/cm\iotx_cm_mqtt.c **** 
 233:C:/Users/stapi/OneDrive/Desktop/GD32VW553/V1_MQTT_OK/GD32VW55X_Wifi_BLE_SDK/GD32VW55x_RELEASE_V1.0.2/MSDK/cloud/alicloud/src/services/linkkit/cm\iotx_cm_mqtt.c ****     HAL_GetProductKey(product_key);
 234:C:/Users/stapi/OneDrive/Desktop/GD32VW553/V1_MQTT_OK/GD32VW55X_Wifi_BLE_SDK/GD32VW55x_RELEASE_V1.0.2/MSDK/cloud/alicloud/src/services/linkkit/cm\iotx_cm_mqtt.c ****     HAL_GetDeviceName(device_name);
 235:C:/Users/stapi/OneDrive/Desktop/GD32VW553/V1_MQTT_OK/GD32VW55X_Wifi_BLE_SDK/GD32VW55x_RELEASE_V1.0.2/MSDK/cloud/alicloud/src/services/linkkit/cm\iotx_cm_mqtt.c ****     HAL_GetDeviceID(device_id);
 236:C:/Users/stapi/OneDrive/Desktop/GD32VW553/V1_MQTT_OK/GD32VW55X_Wifi_BLE_SDK/GD32VW55x_RELEASE_V1.0.2/MSDK/cloud/alicloud/src/services/linkkit/cm\iotx_cm_mqtt.c ****     HAL_GetDeviceSecret(device_secret);
 237:C:/Users/stapi/OneDrive/Desktop/GD32VW553/V1_MQTT_OK/GD32VW55X_Wifi_BLE_SDK/GD32VW55x_RELEASE_V1.0.2/MSDK/cloud/alicloud/src/services/linkkit/cm\iotx_cm_mqtt.c **** 
 238:C:/Users/stapi/OneDrive/Desktop/GD32VW553/V1_MQTT_OK/GD32VW55X_Wifi_BLE_SDK/GD32VW55x_RELEASE_V1.0.2/MSDK/cloud/alicloud/src/services/linkkit/cm\iotx_cm_mqtt.c ****     ARGUMENT_SANITY_CHECK(strlen(device_name), FAIL_RETURN);
 239:C:/Users/stapi/OneDrive/Desktop/GD32VW553/V1_MQTT_OK/GD32VW55X_Wifi_BLE_SDK/GD32VW55x_RELEASE_V1.0.2/MSDK/cloud/alicloud/src/services/linkkit/cm\iotx_cm_mqtt.c ****     ARGUMENT_SANITY_CHECK(strlen(product_key), FAIL_RETURN);
 240:C:/Users/stapi/OneDrive/Desktop/GD32VW553/V1_MQTT_OK/GD32VW55X_Wifi_BLE_SDK/GD32VW55x_RELEASE_V1.0.2/MSDK/cloud/alicloud/src/services/linkkit/cm\iotx_cm_mqtt.c ****     ARGUMENT_SANITY_CHECK(strlen(device_id), FAIL_RETURN);
 241:C:/Users/stapi/OneDrive/Desktop/GD32VW553/V1_MQTT_OK/GD32VW55X_Wifi_BLE_SDK/GD32VW55x_RELEASE_V1.0.2/MSDK/cloud/alicloud/src/services/linkkit/cm\iotx_cm_mqtt.c **** 
 242:C:/Users/stapi/OneDrive/Desktop/GD32VW553/V1_MQTT_OK/GD32VW55X_Wifi_BLE_SDK/GD32VW55x_RELEASE_V1.0.2/MSDK/cloud/alicloud/src/services/linkkit/cm\iotx_cm_mqtt.c ****     iotx_time_init(&timer);
 243:C:/Users/stapi/OneDrive/Desktop/GD32VW553/V1_MQTT_OK/GD32VW55X_Wifi_BLE_SDK/GD32VW55x_RELEASE_V1.0.2/MSDK/cloud/alicloud/src/services/linkkit/cm\iotx_cm_mqtt.c ****     utils_time_countdown_ms(&timer, timeout);
 244:C:/Users/stapi/OneDrive/Desktop/GD32VW553/V1_MQTT_OK/GD32VW55X_Wifi_BLE_SDK/GD32VW55x_RELEASE_V1.0.2/MSDK/cloud/alicloud/src/services/linkkit/cm\iotx_cm_mqtt.c **** 
 245:C:/Users/stapi/OneDrive/Desktop/GD32VW553/V1_MQTT_OK/GD32VW55X_Wifi_BLE_SDK/GD32VW55x_RELEASE_V1.0.2/MSDK/cloud/alicloud/src/services/linkkit/cm\iotx_cm_mqtt.c ****     do {
 246:C:/Users/stapi/OneDrive/Desktop/GD32VW553/V1_MQTT_OK/GD32VW55X_Wifi_BLE_SDK/GD32VW55x_RELEASE_V1.0.2/MSDK/cloud/alicloud/src/services/linkkit/cm\iotx_cm_mqtt.c ****         int rc = IOT_SetupConnInfo(product_key, device_name, device_secret, (void **)&pconn_info);
 247:C:/Users/stapi/OneDrive/Desktop/GD32VW553/V1_MQTT_OK/GD32VW55X_Wifi_BLE_SDK/GD32VW55x_RELEASE_V1.0.2/MSDK/cloud/alicloud/src/services/linkkit/cm\iotx_cm_mqtt.c ****         if (rc ==  0) {
 248:C:/Users/stapi/OneDrive/Desktop/GD32VW553/V1_MQTT_OK/GD32VW55X_Wifi_BLE_SDK/GD32VW55x_RELEASE_V1.0.2/MSDK/cloud/alicloud/src/services/linkkit/cm\iotx_cm_mqtt.c ****             mqtt_param->port = pconn_info->port;
 249:C:/Users/stapi/OneDrive/Desktop/GD32VW553/V1_MQTT_OK/GD32VW55X_Wifi_BLE_SDK/GD32VW55x_RELEASE_V1.0.2/MSDK/cloud/alicloud/src/services/linkkit/cm\iotx_cm_mqtt.c ****             mqtt_param->host = pconn_info->host_name;
 250:C:/Users/stapi/OneDrive/Desktop/GD32VW553/V1_MQTT_OK/GD32VW55X_Wifi_BLE_SDK/GD32VW55x_RELEASE_V1.0.2/MSDK/cloud/alicloud/src/services/linkkit/cm\iotx_cm_mqtt.c ****             mqtt_param->client_id = pconn_info->client_id;
 251:C:/Users/stapi/OneDrive/Desktop/GD32VW553/V1_MQTT_OK/GD32VW55X_Wifi_BLE_SDK/GD32VW55x_RELEASE_V1.0.2/MSDK/cloud/alicloud/src/services/linkkit/cm\iotx_cm_mqtt.c ****             mqtt_param->username = pconn_info->username;
 252:C:/Users/stapi/OneDrive/Desktop/GD32VW553/V1_MQTT_OK/GD32VW55X_Wifi_BLE_SDK/GD32VW55x_RELEASE_V1.0.2/MSDK/cloud/alicloud/src/services/linkkit/cm\iotx_cm_mqtt.c ****             mqtt_param->password = pconn_info->password;
 253:C:/Users/stapi/OneDrive/Desktop/GD32VW553/V1_MQTT_OK/GD32VW55X_Wifi_BLE_SDK/GD32VW55x_RELEASE_V1.0.2/MSDK/cloud/alicloud/src/services/linkkit/cm\iotx_cm_mqtt.c ****             mqtt_param->pub_key = pconn_info->pub_key;
 254:C:/Users/stapi/OneDrive/Desktop/GD32VW553/V1_MQTT_OK/GD32VW55X_Wifi_BLE_SDK/GD32VW55x_RELEASE_V1.0.2/MSDK/cloud/alicloud/src/services/linkkit/cm\iotx_cm_mqtt.c **** 
 255:C:/Users/stapi/OneDrive/Desktop/GD32VW553/V1_MQTT_OK/GD32VW55X_Wifi_BLE_SDK/GD32VW55x_RELEASE_V1.0.2/MSDK/cloud/alicloud/src/services/linkkit/cm\iotx_cm_mqtt.c **** #ifdef DEV_OFFLINE_LOG_ENABLE
 256:C:/Users/stapi/OneDrive/Desktop/GD32VW553/V1_MQTT_OK/GD32VW55X_Wifi_BLE_SDK/GD32VW55x_RELEASE_V1.0.2/MSDK/cloud/alicloud/src/services/linkkit/cm\iotx_cm_mqtt.c ****             diagnosis_offline_log(LOG_LEVEL_I, "Connect:%s:%d\r\n", mqtt_param->host, mqtt_param->p
 257:C:/Users/stapi/OneDrive/Desktop/GD32VW553/V1_MQTT_OK/GD32VW55X_Wifi_BLE_SDK/GD32VW55x_RELEASE_V1.0.2/MSDK/cloud/alicloud/src/services/linkkit/cm\iotx_cm_mqtt.c **** #endif
 258:C:/Users/stapi/OneDrive/Desktop/GD32VW553/V1_MQTT_OK/GD32VW55X_Wifi_BLE_SDK/GD32VW55x_RELEASE_V1.0.2/MSDK/cloud/alicloud/src/services/linkkit/cm\iotx_cm_mqtt.c ****             pclient = IOT_MQTT_Construct((iotx_mqtt_param_t *)_mqtt_conncection->open_params);
 259:C:/Users/stapi/OneDrive/Desktop/GD32VW553/V1_MQTT_OK/GD32VW55X_Wifi_BLE_SDK/GD32VW55x_RELEASE_V1.0.2/MSDK/cloud/alicloud/src/services/linkkit/cm\iotx_cm_mqtt.c **** #ifdef DEV_OFFLINE_LOG_ENABLE
 260:C:/Users/stapi/OneDrive/Desktop/GD32VW553/V1_MQTT_OK/GD32VW55X_Wifi_BLE_SDK/GD32VW55x_RELEASE_V1.0.2/MSDK/cloud/alicloud/src/services/linkkit/cm\iotx_cm_mqtt.c ****             diagnosis_offline_log(LOG_LEVEL_I, "Connect %s\r\n", (pclient != NULL)?"success":"fail"
 261:C:/Users/stapi/OneDrive/Desktop/GD32VW553/V1_MQTT_OK/GD32VW55X_Wifi_BLE_SDK/GD32VW55x_RELEASE_V1.0.2/MSDK/cloud/alicloud/src/services/linkkit/cm\iotx_cm_mqtt.c **** #endif
 262:C:/Users/stapi/OneDrive/Desktop/GD32VW553/V1_MQTT_OK/GD32VW55X_Wifi_BLE_SDK/GD32VW55x_RELEASE_V1.0.2/MSDK/cloud/alicloud/src/services/linkkit/cm\iotx_cm_mqtt.c ****             if (pclient != NULL) {
 263:C:/Users/stapi/OneDrive/Desktop/GD32VW553/V1_MQTT_OK/GD32VW55X_Wifi_BLE_SDK/GD32VW55x_RELEASE_V1.0.2/MSDK/cloud/alicloud/src/services/linkkit/cm\iotx_cm_mqtt.c ****                 _mqtt_conncection->context = pclient;
 264:C:/Users/stapi/OneDrive/Desktop/GD32VW553/V1_MQTT_OK/GD32VW55X_Wifi_BLE_SDK/GD32VW55x_RELEASE_V1.0.2/MSDK/cloud/alicloud/src/services/linkkit/cm\iotx_cm_mqtt.c ****                 iotx_cm_event_msg_t event;
 265:C:/Users/stapi/OneDrive/Desktop/GD32VW553/V1_MQTT_OK/GD32VW55X_Wifi_BLE_SDK/GD32VW55x_RELEASE_V1.0.2/MSDK/cloud/alicloud/src/services/linkkit/cm\iotx_cm_mqtt.c ****                 event.type = IOTX_CM_EVENT_CLOUD_CONNECTED;
 266:C:/Users/stapi/OneDrive/Desktop/GD32VW553/V1_MQTT_OK/GD32VW55X_Wifi_BLE_SDK/GD32VW55x_RELEASE_V1.0.2/MSDK/cloud/alicloud/src/services/linkkit/cm\iotx_cm_mqtt.c ****                 event.msg = NULL;
 267:C:/Users/stapi/OneDrive/Desktop/GD32VW553/V1_MQTT_OK/GD32VW55X_Wifi_BLE_SDK/GD32VW55x_RELEASE_V1.0.2/MSDK/cloud/alicloud/src/services/linkkit/cm\iotx_cm_mqtt.c **** 
 268:C:/Users/stapi/OneDrive/Desktop/GD32VW553/V1_MQTT_OK/GD32VW55X_Wifi_BLE_SDK/GD32VW55x_RELEASE_V1.0.2/MSDK/cloud/alicloud/src/services/linkkit/cm\iotx_cm_mqtt.c ****                 if (_mqtt_conncection->event_handler) {
 269:C:/Users/stapi/OneDrive/Desktop/GD32VW553/V1_MQTT_OK/GD32VW55X_Wifi_BLE_SDK/GD32VW55x_RELEASE_V1.0.2/MSDK/cloud/alicloud/src/services/linkkit/cm\iotx_cm_mqtt.c ****                     _mqtt_conncection->event_handler(_mqtt_conncection->fd, &event, (void *)_mqtt_c
 270:C:/Users/stapi/OneDrive/Desktop/GD32VW553/V1_MQTT_OK/GD32VW55X_Wifi_BLE_SDK/GD32VW55x_RELEASE_V1.0.2/MSDK/cloud/alicloud/src/services/linkkit/cm\iotx_cm_mqtt.c ****                 }
 271:C:/Users/stapi/OneDrive/Desktop/GD32VW553/V1_MQTT_OK/GD32VW55X_Wifi_BLE_SDK/GD32VW55x_RELEASE_V1.0.2/MSDK/cloud/alicloud/src/services/linkkit/cm\iotx_cm_mqtt.c **** 
 272:C:/Users/stapi/OneDrive/Desktop/GD32VW553/V1_MQTT_OK/GD32VW55X_Wifi_BLE_SDK/GD32VW55x_RELEASE_V1.0.2/MSDK/cloud/alicloud/src/services/linkkit/cm\iotx_cm_mqtt.c ****                 return 0;
 273:C:/Users/stapi/OneDrive/Desktop/GD32VW553/V1_MQTT_OK/GD32VW55X_Wifi_BLE_SDK/GD32VW55x_RELEASE_V1.0.2/MSDK/cloud/alicloud/src/services/linkkit/cm\iotx_cm_mqtt.c ****             }
 274:C:/Users/stapi/OneDrive/Desktop/GD32VW553/V1_MQTT_OK/GD32VW55X_Wifi_BLE_SDK/GD32VW55x_RELEASE_V1.0.2/MSDK/cloud/alicloud/src/services/linkkit/cm\iotx_cm_mqtt.c ****         }
 275:C:/Users/stapi/OneDrive/Desktop/GD32VW553/V1_MQTT_OK/GD32VW55X_Wifi_BLE_SDK/GD32VW55x_RELEASE_V1.0.2/MSDK/cloud/alicloud/src/services/linkkit/cm\iotx_cm_mqtt.c ****         HAL_Srandom((uint32_t)HAL_UptimeMs());
 276:C:/Users/stapi/OneDrive/Desktop/GD32VW553/V1_MQTT_OK/GD32VW55X_Wifi_BLE_SDK/GD32VW55x_RELEASE_V1.0.2/MSDK/cloud/alicloud/src/services/linkkit/cm\iotx_cm_mqtt.c ****         sleep_ms = interval_ms + HAL_Random(BASE_INTERVAL_TIME_MS);
 277:C:/Users/stapi/OneDrive/Desktop/GD32VW553/V1_MQTT_OK/GD32VW55X_Wifi_BLE_SDK/GD32VW55x_RELEASE_V1.0.2/MSDK/cloud/alicloud/src/services/linkkit/cm\iotx_cm_mqtt.c ****         HAL_SleepMs(sleep_ms);
 278:C:/Users/stapi/OneDrive/Desktop/GD32VW553/V1_MQTT_OK/GD32VW55X_Wifi_BLE_SDK/GD32VW55x_RELEASE_V1.0.2/MSDK/cloud/alicloud/src/services/linkkit/cm\iotx_cm_mqtt.c ****         interval_ms *= 2;
 279:C:/Users/stapi/OneDrive/Desktop/GD32VW553/V1_MQTT_OK/GD32VW55X_Wifi_BLE_SDK/GD32VW55x_RELEASE_V1.0.2/MSDK/cloud/alicloud/src/services/linkkit/cm\iotx_cm_mqtt.c ****     } while (!utils_time_is_expired(&timer));
 280:C:/Users/stapi/OneDrive/Desktop/GD32VW553/V1_MQTT_OK/GD32VW55X_Wifi_BLE_SDK/GD32VW55x_RELEASE_V1.0.2/MSDK/cloud/alicloud/src/services/linkkit/cm\iotx_cm_mqtt.c **** 
 281:C:/Users/stapi/OneDrive/Desktop/GD32VW553/V1_MQTT_OK/GD32VW55X_Wifi_BLE_SDK/GD32VW55x_RELEASE_V1.0.2/MSDK/cloud/alicloud/src/services/linkkit/cm\iotx_cm_mqtt.c ****     iotx_cm_event_msg_t event;
 282:C:/Users/stapi/OneDrive/Desktop/GD32VW553/V1_MQTT_OK/GD32VW55X_Wifi_BLE_SDK/GD32VW55x_RELEASE_V1.0.2/MSDK/cloud/alicloud/src/services/linkkit/cm\iotx_cm_mqtt.c ****     event.type = IOTX_CM_EVENT_CLOUD_CONNECT_FAILED;
 283:C:/Users/stapi/OneDrive/Desktop/GD32VW553/V1_MQTT_OK/GD32VW55X_Wifi_BLE_SDK/GD32VW55x_RELEASE_V1.0.2/MSDK/cloud/alicloud/src/services/linkkit/cm\iotx_cm_mqtt.c ****     event.msg = NULL;
 284:C:/Users/stapi/OneDrive/Desktop/GD32VW553/V1_MQTT_OK/GD32VW55X_Wifi_BLE_SDK/GD32VW55x_RELEASE_V1.0.2/MSDK/cloud/alicloud/src/services/linkkit/cm\iotx_cm_mqtt.c **** 
 285:C:/Users/stapi/OneDrive/Desktop/GD32VW553/V1_MQTT_OK/GD32VW55X_Wifi_BLE_SDK/GD32VW55x_RELEASE_V1.0.2/MSDK/cloud/alicloud/src/services/linkkit/cm\iotx_cm_mqtt.c ****     if (_mqtt_conncection->event_handler) {
 286:C:/Users/stapi/OneDrive/Desktop/GD32VW553/V1_MQTT_OK/GD32VW55X_Wifi_BLE_SDK/GD32VW55x_RELEASE_V1.0.2/MSDK/cloud/alicloud/src/services/linkkit/cm\iotx_cm_mqtt.c ****         _mqtt_conncection->event_handler(_mqtt_conncection->fd, &event, (void *)_mqtt_conncection);
 287:C:/Users/stapi/OneDrive/Desktop/GD32VW553/V1_MQTT_OK/GD32VW55X_Wifi_BLE_SDK/GD32VW55x_RELEASE_V1.0.2/MSDK/cloud/alicloud/src/services/linkkit/cm\iotx_cm_mqtt.c ****     }
 288:C:/Users/stapi/OneDrive/Desktop/GD32VW553/V1_MQTT_OK/GD32VW55X_Wifi_BLE_SDK/GD32VW55x_RELEASE_V1.0.2/MSDK/cloud/alicloud/src/services/linkkit/cm\iotx_cm_mqtt.c ****     CM_ERR("mqtt connect failed");
 289:C:/Users/stapi/OneDrive/Desktop/GD32VW553/V1_MQTT_OK/GD32VW55X_Wifi_BLE_SDK/GD32VW55x_RELEASE_V1.0.2/MSDK/cloud/alicloud/src/services/linkkit/cm\iotx_cm_mqtt.c **** 
 290:C:/Users/stapi/OneDrive/Desktop/GD32VW553/V1_MQTT_OK/GD32VW55X_Wifi_BLE_SDK/GD32VW55x_RELEASE_V1.0.2/MSDK/cloud/alicloud/src/services/linkkit/cm\iotx_cm_mqtt.c ****     return -1;
 291:C:/Users/stapi/OneDrive/Desktop/GD32VW553/V1_MQTT_OK/GD32VW55X_Wifi_BLE_SDK/GD32VW55x_RELEASE_V1.0.2/MSDK/cloud/alicloud/src/services/linkkit/cm\iotx_cm_mqtt.c **** }
 292:C:/Users/stapi/OneDrive/Desktop/GD32VW553/V1_MQTT_OK/GD32VW55X_Wifi_BLE_SDK/GD32VW55x_RELEASE_V1.0.2/MSDK/cloud/alicloud/src/services/linkkit/cm\iotx_cm_mqtt.c **** 
 293:C:/Users/stapi/OneDrive/Desktop/GD32VW553/V1_MQTT_OK/GD32VW55X_Wifi_BLE_SDK/GD32VW55x_RELEASE_V1.0.2/MSDK/cloud/alicloud/src/services/linkkit/cm\iotx_cm_mqtt.c **** static int _mqtt_publish(iotx_cm_ext_params_t *ext, const char *topic, const char *payload, unsigne
 294:C:/Users/stapi/OneDrive/Desktop/GD32VW553/V1_MQTT_OK/GD32VW55X_Wifi_BLE_SDK/GD32VW55x_RELEASE_V1.0.2/MSDK/cloud/alicloud/src/services/linkkit/cm\iotx_cm_mqtt.c **** {
 295:C:/Users/stapi/OneDrive/Desktop/GD32VW553/V1_MQTT_OK/GD32VW55X_Wifi_BLE_SDK/GD32VW55x_RELEASE_V1.0.2/MSDK/cloud/alicloud/src/services/linkkit/cm\iotx_cm_mqtt.c ****     int qos = 0;
 296:C:/Users/stapi/OneDrive/Desktop/GD32VW553/V1_MQTT_OK/GD32VW55X_Wifi_BLE_SDK/GD32VW55x_RELEASE_V1.0.2/MSDK/cloud/alicloud/src/services/linkkit/cm\iotx_cm_mqtt.c **** 
 297:C:/Users/stapi/OneDrive/Desktop/GD32VW553/V1_MQTT_OK/GD32VW55X_Wifi_BLE_SDK/GD32VW55x_RELEASE_V1.0.2/MSDK/cloud/alicloud/src/services/linkkit/cm\iotx_cm_mqtt.c ****     POINTER_SANITY_CHECK(_mqtt_conncection, NULL_VALUE_ERROR);
 298:C:/Users/stapi/OneDrive/Desktop/GD32VW553/V1_MQTT_OK/GD32VW55X_Wifi_BLE_SDK/GD32VW55x_RELEASE_V1.0.2/MSDK/cloud/alicloud/src/services/linkkit/cm\iotx_cm_mqtt.c **** 
 299:C:/Users/stapi/OneDrive/Desktop/GD32VW553/V1_MQTT_OK/GD32VW55X_Wifi_BLE_SDK/GD32VW55x_RELEASE_V1.0.2/MSDK/cloud/alicloud/src/services/linkkit/cm\iotx_cm_mqtt.c ****     if (ext != NULL) {
 300:C:/Users/stapi/OneDrive/Desktop/GD32VW553/V1_MQTT_OK/GD32VW55X_Wifi_BLE_SDK/GD32VW55x_RELEASE_V1.0.2/MSDK/cloud/alicloud/src/services/linkkit/cm\iotx_cm_mqtt.c ****         qos = (int)_get_mqtt_qos(ext->ack_type);
 301:C:/Users/stapi/OneDrive/Desktop/GD32VW553/V1_MQTT_OK/GD32VW55X_Wifi_BLE_SDK/GD32VW55x_RELEASE_V1.0.2/MSDK/cloud/alicloud/src/services/linkkit/cm\iotx_cm_mqtt.c ****     }
 302:C:/Users/stapi/OneDrive/Desktop/GD32VW553/V1_MQTT_OK/GD32VW55X_Wifi_BLE_SDK/GD32VW55x_RELEASE_V1.0.2/MSDK/cloud/alicloud/src/services/linkkit/cm\iotx_cm_mqtt.c ****     return IOT_MQTT_Publish_Simple(_mqtt_conncection->context, topic, qos, (void *)payload, payload
 303:C:/Users/stapi/OneDrive/Desktop/GD32VW553/V1_MQTT_OK/GD32VW55X_Wifi_BLE_SDK/GD32VW55x_RELEASE_V1.0.2/MSDK/cloud/alicloud/src/services/linkkit/cm\iotx_cm_mqtt.c **** }
 304:C:/Users/stapi/OneDrive/Desktop/GD32VW553/V1_MQTT_OK/GD32VW55X_Wifi_BLE_SDK/GD32VW55x_RELEASE_V1.0.2/MSDK/cloud/alicloud/src/services/linkkit/cm\iotx_cm_mqtt.c **** 
 305:C:/Users/stapi/OneDrive/Desktop/GD32VW553/V1_MQTT_OK/GD32VW55X_Wifi_BLE_SDK/GD32VW55x_RELEASE_V1.0.2/MSDK/cloud/alicloud/src/services/linkkit/cm\iotx_cm_mqtt.c **** static int _mqtt_yield(uint32_t timeout)
 306:C:/Users/stapi/OneDrive/Desktop/GD32VW553/V1_MQTT_OK/GD32VW55X_Wifi_BLE_SDK/GD32VW55x_RELEASE_V1.0.2/MSDK/cloud/alicloud/src/services/linkkit/cm\iotx_cm_mqtt.c **** {
 307:C:/Users/stapi/OneDrive/Desktop/GD32VW553/V1_MQTT_OK/GD32VW55X_Wifi_BLE_SDK/GD32VW55x_RELEASE_V1.0.2/MSDK/cloud/alicloud/src/services/linkkit/cm\iotx_cm_mqtt.c ****     POINTER_SANITY_CHECK(_mqtt_conncection, NULL_VALUE_ERROR);
 308:C:/Users/stapi/OneDrive/Desktop/GD32VW553/V1_MQTT_OK/GD32VW55X_Wifi_BLE_SDK/GD32VW55x_RELEASE_V1.0.2/MSDK/cloud/alicloud/src/services/linkkit/cm\iotx_cm_mqtt.c **** 
 309:C:/Users/stapi/OneDrive/Desktop/GD32VW553/V1_MQTT_OK/GD32VW55X_Wifi_BLE_SDK/GD32VW55x_RELEASE_V1.0.2/MSDK/cloud/alicloud/src/services/linkkit/cm\iotx_cm_mqtt.c ****     return IOT_MQTT_Yield(_mqtt_conncection->context, timeout);
 310:C:/Users/stapi/OneDrive/Desktop/GD32VW553/V1_MQTT_OK/GD32VW55X_Wifi_BLE_SDK/GD32VW55x_RELEASE_V1.0.2/MSDK/cloud/alicloud/src/services/linkkit/cm\iotx_cm_mqtt.c **** }
 311:C:/Users/stapi/OneDrive/Desktop/GD32VW553/V1_MQTT_OK/GD32VW55X_Wifi_BLE_SDK/GD32VW55x_RELEASE_V1.0.2/MSDK/cloud/alicloud/src/services/linkkit/cm\iotx_cm_mqtt.c **** 
 312:C:/Users/stapi/OneDrive/Desktop/GD32VW553/V1_MQTT_OK/GD32VW55X_Wifi_BLE_SDK/GD32VW55x_RELEASE_V1.0.2/MSDK/cloud/alicloud/src/services/linkkit/cm\iotx_cm_mqtt.c **** static int _mqtt_sub(iotx_cm_ext_params_t *ext, const char *topic,
 313:C:/Users/stapi/OneDrive/Desktop/GD32VW553/V1_MQTT_OK/GD32VW55X_Wifi_BLE_SDK/GD32VW55x_RELEASE_V1.0.2/MSDK/cloud/alicloud/src/services/linkkit/cm\iotx_cm_mqtt.c ****                      iotx_cm_data_handle_cb topic_handle_func, void *pcontext)
 314:C:/Users/stapi/OneDrive/Desktop/GD32VW553/V1_MQTT_OK/GD32VW55X_Wifi_BLE_SDK/GD32VW55x_RELEASE_V1.0.2/MSDK/cloud/alicloud/src/services/linkkit/cm\iotx_cm_mqtt.c **** {
 402              		.loc 1 314 1
 403              		.cfi_startproc
 404              	.LVL40:
 405 0000 17030000 		call	t0,__riscv_save_1
 405      E7020300 
 406              		.cfi_offset 8, -8
 407              		.cfi_offset 1, -4
 408              		.cfi_def_cfa_offset 16
 315:C:/Users/stapi/OneDrive/Desktop/GD32VW553/V1_MQTT_OK/GD32VW55X_Wifi_BLE_SDK/GD32VW55x_RELEASE_V1.0.2/MSDK/cloud/alicloud/src/services/linkkit/cm\iotx_cm_mqtt.c **** 
 316:C:/Users/stapi/OneDrive/Desktop/GD32VW553/V1_MQTT_OK/GD32VW55X_Wifi_BLE_SDK/GD32VW55x_RELEASE_V1.0.2/MSDK/cloud/alicloud/src/services/linkkit/cm\iotx_cm_mqtt.c ****     int sync = 0;
 409              		.loc 1 316 5
 410              	.LVL41:
 317:C:/Users/stapi/OneDrive/Desktop/GD32VW553/V1_MQTT_OK/GD32VW55X_Wifi_BLE_SDK/GD32VW55x_RELEASE_V1.0.2/MSDK/cloud/alicloud/src/services/linkkit/cm\iotx_cm_mqtt.c ****     int qos = 0;
 411              		.loc 1 317 5
 318:C:/Users/stapi/OneDrive/Desktop/GD32VW553/V1_MQTT_OK/GD32VW55X_Wifi_BLE_SDK/GD32VW55x_RELEASE_V1.0.2/MSDK/cloud/alicloud/src/services/linkkit/cm\iotx_cm_mqtt.c ****     int timeout;
 412              		.loc 1 318 5
 319:C:/Users/stapi/OneDrive/Desktop/GD32VW553/V1_MQTT_OK/GD32VW55X_Wifi_BLE_SDK/GD32VW55x_RELEASE_V1.0.2/MSDK/cloud/alicloud/src/services/linkkit/cm\iotx_cm_mqtt.c ****     int ret;
 413              		.loc 1 319 5
 320:C:/Users/stapi/OneDrive/Desktop/GD32VW553/V1_MQTT_OK/GD32VW55X_Wifi_BLE_SDK/GD32VW55x_RELEASE_V1.0.2/MSDK/cloud/alicloud/src/services/linkkit/cm\iotx_cm_mqtt.c **** 
 321:C:/Users/stapi/OneDrive/Desktop/GD32VW553/V1_MQTT_OK/GD32VW55X_Wifi_BLE_SDK/GD32VW55x_RELEASE_V1.0.2/MSDK/cloud/alicloud/src/services/linkkit/cm\iotx_cm_mqtt.c ****     POINTER_SANITY_CHECK(_mqtt_conncection, NULL_VALUE_ERROR);
 414              		.loc 1 321 5
 415              		.loc 1 321 5
 416 0008 37040000 		lui	s0,%hi(.LANCHOR0)
 417 000c 13040400 		addi	s0,s0,%lo(.LANCHOR0)
 418 0010 1440     		lw	a3,0(s0)
 419              	.LVL42:
 420 0012 B9E2     		bne	a3,zero,.L69
 421              		.loc 1 321 5 discriminator 1
 422              		.loc 1 321 5 discriminator 1
 423 0014 37050000 		lui	a0,%hi(.LC4)
 424              	.LVL43:
 425 0018 13050500 		addi	a0,a0,%lo(.LC4)
 426 001c 97000000 		call	HAL_Printf
 426      E7800000 
 427              	.LVL44:
 428              		.loc 1 321 5 discriminator 1
 429 0024 1040     		lw	a2,0(s0)
 430 0026 B7050000 		lui	a1,%hi(.LC10)
 431 002a 93850500 		addi	a1,a1,%lo(.LC10)
 432              	.L82:
 322:C:/Users/stapi/OneDrive/Desktop/GD32VW553/V1_MQTT_OK/GD32VW55X_Wifi_BLE_SDK/GD32VW55x_RELEASE_V1.0.2/MSDK/cloud/alicloud/src/services/linkkit/cm\iotx_cm_mqtt.c ****     POINTER_SANITY_CHECK(topic, NULL_VALUE_ERROR);
 323:C:/Users/stapi/OneDrive/Desktop/GD32VW553/V1_MQTT_OK/GD32VW55X_Wifi_BLE_SDK/GD32VW55x_RELEASE_V1.0.2/MSDK/cloud/alicloud/src/services/linkkit/cm\iotx_cm_mqtt.c ****     POINTER_SANITY_CHECK(topic_handle_func, NULL_VALUE_ERROR);
 433              		.loc 1 323 5 is_stmt 0 discriminator 1
 434 002e 37050000 		lui	a0,%hi(.LC11)
 435 0032 13050500 		addi	a0,a0,%lo(.LC11)
 436 0036 97000000 		call	HAL_Printf
 436      E7800000 
 437              	.LVL45:
 438              		.loc 1 323 5 is_stmt 1 discriminator 1
 439 003e 37050000 		lui	a0,%hi(.LC2)
 440 0042 13050500 		addi	a0,a0,%lo(.LC2)
 441 0046 97000000 		call	HAL_Printf
 441      E7800000 
 442              	.LVL46:
 443              		.loc 1 323 5 discriminator 1
 444              		.loc 1 323 5 discriminator 1
 445 004e 7955     		li	a0,-2
 446              	.LVL47:
 447              	.L68:
 324:C:/Users/stapi/OneDrive/Desktop/GD32VW553/V1_MQTT_OK/GD32VW55X_Wifi_BLE_SDK/GD32VW55x_RELEASE_V1.0.2/MSDK/cloud/alicloud/src/services/linkkit/cm\iotx_cm_mqtt.c **** 
 325:C:/Users/stapi/OneDrive/Desktop/GD32VW553/V1_MQTT_OK/GD32VW55X_Wifi_BLE_SDK/GD32VW55x_RELEASE_V1.0.2/MSDK/cloud/alicloud/src/services/linkkit/cm\iotx_cm_mqtt.c ****     if (ext != NULL) {
 326:C:/Users/stapi/OneDrive/Desktop/GD32VW553/V1_MQTT_OK/GD32VW55X_Wifi_BLE_SDK/GD32VW55x_RELEASE_V1.0.2/MSDK/cloud/alicloud/src/services/linkkit/cm\iotx_cm_mqtt.c ****         if (ext->sync_mode == IOTX_CM_ASYNC) {
 327:C:/Users/stapi/OneDrive/Desktop/GD32VW553/V1_MQTT_OK/GD32VW55X_Wifi_BLE_SDK/GD32VW55x_RELEASE_V1.0.2/MSDK/cloud/alicloud/src/services/linkkit/cm\iotx_cm_mqtt.c ****             sync = 0;
 328:C:/Users/stapi/OneDrive/Desktop/GD32VW553/V1_MQTT_OK/GD32VW55X_Wifi_BLE_SDK/GD32VW55x_RELEASE_V1.0.2/MSDK/cloud/alicloud/src/services/linkkit/cm\iotx_cm_mqtt.c ****         } else {
 329:C:/Users/stapi/OneDrive/Desktop/GD32VW553/V1_MQTT_OK/GD32VW55X_Wifi_BLE_SDK/GD32VW55x_RELEASE_V1.0.2/MSDK/cloud/alicloud/src/services/linkkit/cm\iotx_cm_mqtt.c ****             sync = 1;
 330:C:/Users/stapi/OneDrive/Desktop/GD32VW553/V1_MQTT_OK/GD32VW55X_Wifi_BLE_SDK/GD32VW55x_RELEASE_V1.0.2/MSDK/cloud/alicloud/src/services/linkkit/cm\iotx_cm_mqtt.c ****             timeout = ext->sync_timeout;
 331:C:/Users/stapi/OneDrive/Desktop/GD32VW553/V1_MQTT_OK/GD32VW55X_Wifi_BLE_SDK/GD32VW55x_RELEASE_V1.0.2/MSDK/cloud/alicloud/src/services/linkkit/cm\iotx_cm_mqtt.c ****         }
 332:C:/Users/stapi/OneDrive/Desktop/GD32VW553/V1_MQTT_OK/GD32VW55X_Wifi_BLE_SDK/GD32VW55x_RELEASE_V1.0.2/MSDK/cloud/alicloud/src/services/linkkit/cm\iotx_cm_mqtt.c ****         qos = (int)_get_mqtt_qos(ext->ack_type);
 333:C:/Users/stapi/OneDrive/Desktop/GD32VW553/V1_MQTT_OK/GD32VW55X_Wifi_BLE_SDK/GD32VW55x_RELEASE_V1.0.2/MSDK/cloud/alicloud/src/services/linkkit/cm\iotx_cm_mqtt.c ****     }
 334:C:/Users/stapi/OneDrive/Desktop/GD32VW553/V1_MQTT_OK/GD32VW55X_Wifi_BLE_SDK/GD32VW55x_RELEASE_V1.0.2/MSDK/cloud/alicloud/src/services/linkkit/cm\iotx_cm_mqtt.c **** 
 335:C:/Users/stapi/OneDrive/Desktop/GD32VW553/V1_MQTT_OK/GD32VW55X_Wifi_BLE_SDK/GD32VW55x_RELEASE_V1.0.2/MSDK/cloud/alicloud/src/services/linkkit/cm\iotx_cm_mqtt.c ****     if (sync != 0) {
 336:C:/Users/stapi/OneDrive/Desktop/GD32VW553/V1_MQTT_OK/GD32VW55X_Wifi_BLE_SDK/GD32VW55x_RELEASE_V1.0.2/MSDK/cloud/alicloud/src/services/linkkit/cm\iotx_cm_mqtt.c ****         ret = IOT_MQTT_Subscribe_Sync(_mqtt_conncection->context,
 337:C:/Users/stapi/OneDrive/Desktop/GD32VW553/V1_MQTT_OK/GD32VW55X_Wifi_BLE_SDK/GD32VW55x_RELEASE_V1.0.2/MSDK/cloud/alicloud/src/services/linkkit/cm\iotx_cm_mqtt.c ****                                       topic,
 338:C:/Users/stapi/OneDrive/Desktop/GD32VW553/V1_MQTT_OK/GD32VW55X_Wifi_BLE_SDK/GD32VW55x_RELEASE_V1.0.2/MSDK/cloud/alicloud/src/services/linkkit/cm\iotx_cm_mqtt.c ****                                       qos,
 339:C:/Users/stapi/OneDrive/Desktop/GD32VW553/V1_MQTT_OK/GD32VW55X_Wifi_BLE_SDK/GD32VW55x_RELEASE_V1.0.2/MSDK/cloud/alicloud/src/services/linkkit/cm\iotx_cm_mqtt.c ****                                       iotx_cloud_conn_mqtt_event_handle,
 340:C:/Users/stapi/OneDrive/Desktop/GD32VW553/V1_MQTT_OK/GD32VW55X_Wifi_BLE_SDK/GD32VW55x_RELEASE_V1.0.2/MSDK/cloud/alicloud/src/services/linkkit/cm\iotx_cm_mqtt.c ****                                       topic_handle_func,
 341:C:/Users/stapi/OneDrive/Desktop/GD32VW553/V1_MQTT_OK/GD32VW55X_Wifi_BLE_SDK/GD32VW55x_RELEASE_V1.0.2/MSDK/cloud/alicloud/src/services/linkkit/cm\iotx_cm_mqtt.c ****                                       timeout);
 342:C:/Users/stapi/OneDrive/Desktop/GD32VW553/V1_MQTT_OK/GD32VW55X_Wifi_BLE_SDK/GD32VW55x_RELEASE_V1.0.2/MSDK/cloud/alicloud/src/services/linkkit/cm\iotx_cm_mqtt.c ****     } else {
 343:C:/Users/stapi/OneDrive/Desktop/GD32VW553/V1_MQTT_OK/GD32VW55X_Wifi_BLE_SDK/GD32VW55x_RELEASE_V1.0.2/MSDK/cloud/alicloud/src/services/linkkit/cm\iotx_cm_mqtt.c ****         ret = IOT_MQTT_Subscribe(_mqtt_conncection->context,
 344:C:/Users/stapi/OneDrive/Desktop/GD32VW553/V1_MQTT_OK/GD32VW55X_Wifi_BLE_SDK/GD32VW55x_RELEASE_V1.0.2/MSDK/cloud/alicloud/src/services/linkkit/cm\iotx_cm_mqtt.c ****                                  topic,
 345:C:/Users/stapi/OneDrive/Desktop/GD32VW553/V1_MQTT_OK/GD32VW55X_Wifi_BLE_SDK/GD32VW55x_RELEASE_V1.0.2/MSDK/cloud/alicloud/src/services/linkkit/cm\iotx_cm_mqtt.c ****                                  qos,
 346:C:/Users/stapi/OneDrive/Desktop/GD32VW553/V1_MQTT_OK/GD32VW55X_Wifi_BLE_SDK/GD32VW55x_RELEASE_V1.0.2/MSDK/cloud/alicloud/src/services/linkkit/cm\iotx_cm_mqtt.c ****                                  iotx_cloud_conn_mqtt_event_handle,
 347:C:/Users/stapi/OneDrive/Desktop/GD32VW553/V1_MQTT_OK/GD32VW55X_Wifi_BLE_SDK/GD32VW55x_RELEASE_V1.0.2/MSDK/cloud/alicloud/src/services/linkkit/cm\iotx_cm_mqtt.c ****                                  topic_handle_func);
 348:C:/Users/stapi/OneDrive/Desktop/GD32VW553/V1_MQTT_OK/GD32VW55X_Wifi_BLE_SDK/GD32VW55x_RELEASE_V1.0.2/MSDK/cloud/alicloud/src/services/linkkit/cm\iotx_cm_mqtt.c ****     }
 349:C:/Users/stapi/OneDrive/Desktop/GD32VW553/V1_MQTT_OK/GD32VW55X_Wifi_BLE_SDK/GD32VW55x_RELEASE_V1.0.2/MSDK/cloud/alicloud/src/services/linkkit/cm\iotx_cm_mqtt.c **** 
 350:C:/Users/stapi/OneDrive/Desktop/GD32VW553/V1_MQTT_OK/GD32VW55X_Wifi_BLE_SDK/GD32VW55x_RELEASE_V1.0.2/MSDK/cloud/alicloud/src/services/linkkit/cm\iotx_cm_mqtt.c ****     return ret;
 351:C:/Users/stapi/OneDrive/Desktop/GD32VW553/V1_MQTT_OK/GD32VW55X_Wifi_BLE_SDK/GD32VW55x_RELEASE_V1.0.2/MSDK/cloud/alicloud/src/services/linkkit/cm\iotx_cm_mqtt.c **** }
 448              		.loc 1 351 1 is_stmt 0
 449 0050 17030000 		tail	__riscv_restore_1
 449      67000300 
 450              		.cfi_remember_state
 451              		.cfi_restore 8
 452              		.cfi_restore 1
 453              		.cfi_def_cfa_offset 0
 454              	.LVL48:
 455              	.L69:
 456              		.cfi_restore_state
 321:C:/Users/stapi/OneDrive/Desktop/GD32VW553/V1_MQTT_OK/GD32VW55X_Wifi_BLE_SDK/GD32VW55x_RELEASE_V1.0.2/MSDK/cloud/alicloud/src/services/linkkit/cm\iotx_cm_mqtt.c ****     POINTER_SANITY_CHECK(topic, NULL_VALUE_ERROR);
 457              		.loc 1 321 5 is_stmt 1 discriminator 2
 322:C:/Users/stapi/OneDrive/Desktop/GD32VW553/V1_MQTT_OK/GD32VW55X_Wifi_BLE_SDK/GD32VW55x_RELEASE_V1.0.2/MSDK/cloud/alicloud/src/services/linkkit/cm\iotx_cm_mqtt.c ****     POINTER_SANITY_CHECK(topic, NULL_VALUE_ERROR);
 458              		.loc 1 322 5 discriminator 2
 322:C:/Users/stapi/OneDrive/Desktop/GD32VW553/V1_MQTT_OK/GD32VW55X_Wifi_BLE_SDK/GD32VW55x_RELEASE_V1.0.2/MSDK/cloud/alicloud/src/services/linkkit/cm\iotx_cm_mqtt.c ****     POINTER_SANITY_CHECK(topic, NULL_VALUE_ERROR);
 459              		.loc 1 322 5 discriminator 2
 460 0058 99ED     		bne	a1,zero,.L71
 322:C:/Users/stapi/OneDrive/Desktop/GD32VW553/V1_MQTT_OK/GD32VW55X_Wifi_BLE_SDK/GD32VW55x_RELEASE_V1.0.2/MSDK/cloud/alicloud/src/services/linkkit/cm\iotx_cm_mqtt.c ****     POINTER_SANITY_CHECK(topic, NULL_VALUE_ERROR);
 461              		.loc 1 322 5 discriminator 1
 322:C:/Users/stapi/OneDrive/Desktop/GD32VW553/V1_MQTT_OK/GD32VW55X_Wifi_BLE_SDK/GD32VW55x_RELEASE_V1.0.2/MSDK/cloud/alicloud/src/services/linkkit/cm\iotx_cm_mqtt.c ****     POINTER_SANITY_CHECK(topic, NULL_VALUE_ERROR);
 462              		.loc 1 322 5 discriminator 1
 463 005a 37050000 		lui	a0,%hi(.LC4)
 464              	.LVL49:
 465 005e 13050500 		addi	a0,a0,%lo(.LC4)
 466 0062 97000000 		call	HAL_Printf
 466      E7800000 
 467              	.LVL50:
 322:C:/Users/stapi/OneDrive/Desktop/GD32VW553/V1_MQTT_OK/GD32VW55X_Wifi_BLE_SDK/GD32VW55x_RELEASE_V1.0.2/MSDK/cloud/alicloud/src/services/linkkit/cm\iotx_cm_mqtt.c ****     POINTER_SANITY_CHECK(topic, NULL_VALUE_ERROR);
 468              		.loc 1 322 5 discriminator 1
 469 006a B7050000 		lui	a1,%hi(.LC12)
 470 006e 0146     		li	a2,0
 471 0070 93850500 		addi	a1,a1,%lo(.LC12)
 472 0074 6DBF     		j	.L82
 473              	.LVL51:
 474              	.L71:
 475 0076 3287     		mv	a4,a2
 322:C:/Users/stapi/OneDrive/Desktop/GD32VW553/V1_MQTT_OK/GD32VW55X_Wifi_BLE_SDK/GD32VW55x_RELEASE_V1.0.2/MSDK/cloud/alicloud/src/services/linkkit/cm\iotx_cm_mqtt.c ****     POINTER_SANITY_CHECK(topic, NULL_VALUE_ERROR);
 476              		.loc 1 322 5 discriminator 2
 323:C:/Users/stapi/OneDrive/Desktop/GD32VW553/V1_MQTT_OK/GD32VW55X_Wifi_BLE_SDK/GD32VW55x_RELEASE_V1.0.2/MSDK/cloud/alicloud/src/services/linkkit/cm\iotx_cm_mqtt.c **** 
 477              		.loc 1 323 5 discriminator 2
 323:C:/Users/stapi/OneDrive/Desktop/GD32VW553/V1_MQTT_OK/GD32VW55X_Wifi_BLE_SDK/GD32VW55x_RELEASE_V1.0.2/MSDK/cloud/alicloud/src/services/linkkit/cm\iotx_cm_mqtt.c **** 
 478              		.loc 1 323 5 discriminator 2
 479 0078 19EE     		bne	a2,zero,.L72
 323:C:/Users/stapi/OneDrive/Desktop/GD32VW553/V1_MQTT_OK/GD32VW55X_Wifi_BLE_SDK/GD32VW55x_RELEASE_V1.0.2/MSDK/cloud/alicloud/src/services/linkkit/cm\iotx_cm_mqtt.c **** 
 480              		.loc 1 323 5 discriminator 1
 323:C:/Users/stapi/OneDrive/Desktop/GD32VW553/V1_MQTT_OK/GD32VW55X_Wifi_BLE_SDK/GD32VW55x_RELEASE_V1.0.2/MSDK/cloud/alicloud/src/services/linkkit/cm\iotx_cm_mqtt.c **** 
 481              		.loc 1 323 5 discriminator 1
 482 007a 37050000 		lui	a0,%hi(.LC4)
 483              	.LVL52:
 484 007e 13050500 		addi	a0,a0,%lo(.LC4)
 485 0082 97000000 		call	HAL_Printf
 485      E7800000 
 486              	.LVL53:
 323:C:/Users/stapi/OneDrive/Desktop/GD32VW553/V1_MQTT_OK/GD32VW55X_Wifi_BLE_SDK/GD32VW55x_RELEASE_V1.0.2/MSDK/cloud/alicloud/src/services/linkkit/cm\iotx_cm_mqtt.c **** 
 487              		.loc 1 323 5 discriminator 1
 488 008a B7050000 		lui	a1,%hi(.LC13)
 489 008e 0146     		li	a2,0
 490 0090 93850500 		addi	a1,a1,%lo(.LC13)
 491 0094 69BF     		j	.L82
 492              	.LVL54:
 493              	.L72:
 494 0096 2A88     		mv	a6,a0
 323:C:/Users/stapi/OneDrive/Desktop/GD32VW553/V1_MQTT_OK/GD32VW55X_Wifi_BLE_SDK/GD32VW55x_RELEASE_V1.0.2/MSDK/cloud/alicloud/src/services/linkkit/cm\iotx_cm_mqtt.c **** 
 495              		.loc 1 323 5 discriminator 2
 325:C:/Users/stapi/OneDrive/Desktop/GD32VW553/V1_MQTT_OK/GD32VW55X_Wifi_BLE_SDK/GD32VW55x_RELEASE_V1.0.2/MSDK/cloud/alicloud/src/services/linkkit/cm\iotx_cm_mqtt.c ****         if (ext->sync_mode == IOTX_CM_ASYNC) {
 496              		.loc 1 325 5 discriminator 2
 497 0098 8846     		lw	a0,8(a3)
 498              	.LVL55:
 499 009a B7060000 		lui	a3,%hi(iotx_cloud_conn_mqtt_event_handle)
 325:C:/Users/stapi/OneDrive/Desktop/GD32VW553/V1_MQTT_OK/GD32VW55X_Wifi_BLE_SDK/GD32VW55x_RELEASE_V1.0.2/MSDK/cloud/alicloud/src/services/linkkit/cm\iotx_cm_mqtt.c ****         if (ext->sync_mode == IOTX_CM_ASYNC) {
 500              		.loc 1 325 8 is_stmt 0 discriminator 2
 501 009e 630D0802 		beq	a6,zero,.L77
 326:C:/Users/stapi/OneDrive/Desktop/GD32VW553/V1_MQTT_OK/GD32VW55X_Wifi_BLE_SDK/GD32VW55x_RELEASE_V1.0.2/MSDK/cloud/alicloud/src/services/linkkit/cm\iotx_cm_mqtt.c ****             sync = 0;
 502              		.loc 1 326 9 is_stmt 1
 326:C:/Users/stapi/OneDrive/Desktop/GD32VW553/V1_MQTT_OK/GD32VW55X_Wifi_BLE_SDK/GD32VW55x_RELEASE_V1.0.2/MSDK/cloud/alicloud/src/services/linkkit/cm\iotx_cm_mqtt.c ****             sync = 0;
 503              		.loc 1 326 12 is_stmt 0
 504 00a2 03264800 		lw	a2,4(a6)
 505              	.LVL56:
 327:C:/Users/stapi/OneDrive/Desktop/GD32VW553/V1_MQTT_OK/GD32VW55X_Wifi_BLE_SDK/GD32VW55x_RELEASE_V1.0.2/MSDK/cloud/alicloud/src/services/linkkit/cm\iotx_cm_mqtt.c ****         } else {
 506              		.loc 1 327 18
 507 00a6 8148     		li	a7,0
 326:C:/Users/stapi/OneDrive/Desktop/GD32VW553/V1_MQTT_OK/GD32VW55X_Wifi_BLE_SDK/GD32VW55x_RELEASE_V1.0.2/MSDK/cloud/alicloud/src/services/linkkit/cm\iotx_cm_mqtt.c ****             sync = 0;
 508              		.loc 1 326 12
 509 00a8 01C6     		beq	a2,zero,.L74
 329:C:/Users/stapi/OneDrive/Desktop/GD32VW553/V1_MQTT_OK/GD32VW55X_Wifi_BLE_SDK/GD32VW55x_RELEASE_V1.0.2/MSDK/cloud/alicloud/src/services/linkkit/cm\iotx_cm_mqtt.c ****             timeout = ext->sync_timeout;
 510              		.loc 1 329 13 is_stmt 1
 511              	.LVL57:
 330:C:/Users/stapi/OneDrive/Desktop/GD32VW553/V1_MQTT_OK/GD32VW55X_Wifi_BLE_SDK/GD32VW55x_RELEASE_V1.0.2/MSDK/cloud/alicloud/src/services/linkkit/cm\iotx_cm_mqtt.c ****         }
 512              		.loc 1 330 13
 330:C:/Users/stapi/OneDrive/Desktop/GD32VW553/V1_MQTT_OK/GD32VW55X_Wifi_BLE_SDK/GD32VW55x_RELEASE_V1.0.2/MSDK/cloud/alicloud/src/services/linkkit/cm\iotx_cm_mqtt.c ****         }
 513              		.loc 1 330 21 is_stmt 0
 514 00aa 83278800 		lw	a5,8(a6)
 515              	.LVL58:
 329:C:/Users/stapi/OneDrive/Desktop/GD32VW553/V1_MQTT_OK/GD32VW55X_Wifi_BLE_SDK/GD32VW55x_RELEASE_V1.0.2/MSDK/cloud/alicloud/src/services/linkkit/cm\iotx_cm_mqtt.c ****             timeout = ext->sync_timeout;
 516              		.loc 1 329 18
 517 00ae 8548     		li	a7,1
 518              	.LVL59:
 519              	.L74:
 332:C:/Users/stapi/OneDrive/Desktop/GD32VW553/V1_MQTT_OK/GD32VW55X_Wifi_BLE_SDK/GD32VW55x_RELEASE_V1.0.2/MSDK/cloud/alicloud/src/services/linkkit/cm\iotx_cm_mqtt.c ****     }
 520              		.loc 1 332 9 is_stmt 1
 332:C:/Users/stapi/OneDrive/Desktop/GD32VW553/V1_MQTT_OK/GD32VW55X_Wifi_BLE_SDK/GD32VW55x_RELEASE_V1.0.2/MSDK/cloud/alicloud/src/services/linkkit/cm\iotx_cm_mqtt.c ****     }
 521              		.loc 1 332 20 is_stmt 0
 522 00b0 03260800 		lw	a2,0(a6)
 523              	.LVL60:
 524              	.LBB17:
 525              	.LBB18:
 352:C:/Users/stapi/OneDrive/Desktop/GD32VW553/V1_MQTT_OK/GD32VW55X_Wifi_BLE_SDK/GD32VW55x_RELEASE_V1.0.2/MSDK/cloud/alicloud/src/services/linkkit/cm\iotx_cm_mqtt.c **** 
 353:C:/Users/stapi/OneDrive/Desktop/GD32VW553/V1_MQTT_OK/GD32VW55X_Wifi_BLE_SDK/GD32VW55x_RELEASE_V1.0.2/MSDK/cloud/alicloud/src/services/linkkit/cm\iotx_cm_mqtt.c **** static int _mqtt_unsub(const char *topic)
 354:C:/Users/stapi/OneDrive/Desktop/GD32VW553/V1_MQTT_OK/GD32VW55X_Wifi_BLE_SDK/GD32VW55x_RELEASE_V1.0.2/MSDK/cloud/alicloud/src/services/linkkit/cm\iotx_cm_mqtt.c **** {
 355:C:/Users/stapi/OneDrive/Desktop/GD32VW553/V1_MQTT_OK/GD32VW55X_Wifi_BLE_SDK/GD32VW55x_RELEASE_V1.0.2/MSDK/cloud/alicloud/src/services/linkkit/cm\iotx_cm_mqtt.c ****     int ret;
 356:C:/Users/stapi/OneDrive/Desktop/GD32VW553/V1_MQTT_OK/GD32VW55X_Wifi_BLE_SDK/GD32VW55x_RELEASE_V1.0.2/MSDK/cloud/alicloud/src/services/linkkit/cm\iotx_cm_mqtt.c ****     POINTER_SANITY_CHECK(_mqtt_conncection, NULL_VALUE_ERROR);
 357:C:/Users/stapi/OneDrive/Desktop/GD32VW553/V1_MQTT_OK/GD32VW55X_Wifi_BLE_SDK/GD32VW55x_RELEASE_V1.0.2/MSDK/cloud/alicloud/src/services/linkkit/cm\iotx_cm_mqtt.c ****     ret = IOT_MQTT_Unsubscribe(_mqtt_conncection->context, topic);
 358:C:/Users/stapi/OneDrive/Desktop/GD32VW553/V1_MQTT_OK/GD32VW55X_Wifi_BLE_SDK/GD32VW55x_RELEASE_V1.0.2/MSDK/cloud/alicloud/src/services/linkkit/cm\iotx_cm_mqtt.c **** 
 359:C:/Users/stapi/OneDrive/Desktop/GD32VW553/V1_MQTT_OK/GD32VW55X_Wifi_BLE_SDK/GD32VW55x_RELEASE_V1.0.2/MSDK/cloud/alicloud/src/services/linkkit/cm\iotx_cm_mqtt.c ****     if (ret < 0) {
 360:C:/Users/stapi/OneDrive/Desktop/GD32VW553/V1_MQTT_OK/GD32VW55X_Wifi_BLE_SDK/GD32VW55x_RELEASE_V1.0.2/MSDK/cloud/alicloud/src/services/linkkit/cm\iotx_cm_mqtt.c ****         return -1;
 361:C:/Users/stapi/OneDrive/Desktop/GD32VW553/V1_MQTT_OK/GD32VW55X_Wifi_BLE_SDK/GD32VW55x_RELEASE_V1.0.2/MSDK/cloud/alicloud/src/services/linkkit/cm\iotx_cm_mqtt.c ****     }
 362:C:/Users/stapi/OneDrive/Desktop/GD32VW553/V1_MQTT_OK/GD32VW55X_Wifi_BLE_SDK/GD32VW55x_RELEASE_V1.0.2/MSDK/cloud/alicloud/src/services/linkkit/cm\iotx_cm_mqtt.c **** 
 363:C:/Users/stapi/OneDrive/Desktop/GD32VW553/V1_MQTT_OK/GD32VW55X_Wifi_BLE_SDK/GD32VW55x_RELEASE_V1.0.2/MSDK/cloud/alicloud/src/services/linkkit/cm\iotx_cm_mqtt.c ****     return ret;
 364:C:/Users/stapi/OneDrive/Desktop/GD32VW553/V1_MQTT_OK/GD32VW55X_Wifi_BLE_SDK/GD32VW55x_RELEASE_V1.0.2/MSDK/cloud/alicloud/src/services/linkkit/cm\iotx_cm_mqtt.c **** }
 365:C:/Users/stapi/OneDrive/Desktop/GD32VW553/V1_MQTT_OK/GD32VW55X_Wifi_BLE_SDK/GD32VW55x_RELEASE_V1.0.2/MSDK/cloud/alicloud/src/services/linkkit/cm\iotx_cm_mqtt.c **** 
 366:C:/Users/stapi/OneDrive/Desktop/GD32VW553/V1_MQTT_OK/GD32VW55X_Wifi_BLE_SDK/GD32VW55x_RELEASE_V1.0.2/MSDK/cloud/alicloud/src/services/linkkit/cm\iotx_cm_mqtt.c **** static int _mqtt_close()
 367:C:/Users/stapi/OneDrive/Desktop/GD32VW553/V1_MQTT_OK/GD32VW55X_Wifi_BLE_SDK/GD32VW55x_RELEASE_V1.0.2/MSDK/cloud/alicloud/src/services/linkkit/cm\iotx_cm_mqtt.c **** {
 368:C:/Users/stapi/OneDrive/Desktop/GD32VW553/V1_MQTT_OK/GD32VW55X_Wifi_BLE_SDK/GD32VW55x_RELEASE_V1.0.2/MSDK/cloud/alicloud/src/services/linkkit/cm\iotx_cm_mqtt.c ****     POINTER_SANITY_CHECK(_mqtt_conncection, NULL_VALUE_ERROR);
 369:C:/Users/stapi/OneDrive/Desktop/GD32VW553/V1_MQTT_OK/GD32VW55X_Wifi_BLE_SDK/GD32VW55x_RELEASE_V1.0.2/MSDK/cloud/alicloud/src/services/linkkit/cm\iotx_cm_mqtt.c **** 
 370:C:/Users/stapi/OneDrive/Desktop/GD32VW553/V1_MQTT_OK/GD32VW55X_Wifi_BLE_SDK/GD32VW55x_RELEASE_V1.0.2/MSDK/cloud/alicloud/src/services/linkkit/cm\iotx_cm_mqtt.c ****     cm_free(_mqtt_conncection->open_params);
 371:C:/Users/stapi/OneDrive/Desktop/GD32VW553/V1_MQTT_OK/GD32VW55X_Wifi_BLE_SDK/GD32VW55x_RELEASE_V1.0.2/MSDK/cloud/alicloud/src/services/linkkit/cm\iotx_cm_mqtt.c ****     IOT_MQTT_Destroy(&_mqtt_conncection->context);
 372:C:/Users/stapi/OneDrive/Desktop/GD32VW553/V1_MQTT_OK/GD32VW55X_Wifi_BLE_SDK/GD32VW55x_RELEASE_V1.0.2/MSDK/cloud/alicloud/src/services/linkkit/cm\iotx_cm_mqtt.c ****     cm_free(_mqtt_conncection);
 373:C:/Users/stapi/OneDrive/Desktop/GD32VW553/V1_MQTT_OK/GD32VW55X_Wifi_BLE_SDK/GD32VW55x_RELEASE_V1.0.2/MSDK/cloud/alicloud/src/services/linkkit/cm\iotx_cm_mqtt.c ****     _mqtt_conncection = NULL;
 374:C:/Users/stapi/OneDrive/Desktop/GD32VW553/V1_MQTT_OK/GD32VW55X_Wifi_BLE_SDK/GD32VW55x_RELEASE_V1.0.2/MSDK/cloud/alicloud/src/services/linkkit/cm\iotx_cm_mqtt.c ****     return 0;
 375:C:/Users/stapi/OneDrive/Desktop/GD32VW553/V1_MQTT_OK/GD32VW55X_Wifi_BLE_SDK/GD32VW55x_RELEASE_V1.0.2/MSDK/cloud/alicloud/src/services/linkkit/cm\iotx_cm_mqtt.c **** }
 376:C:/Users/stapi/OneDrive/Desktop/GD32VW553/V1_MQTT_OK/GD32VW55X_Wifi_BLE_SDK/GD32VW55x_RELEASE_V1.0.2/MSDK/cloud/alicloud/src/services/linkkit/cm\iotx_cm_mqtt.c **** 
 377:C:/Users/stapi/OneDrive/Desktop/GD32VW553/V1_MQTT_OK/GD32VW55X_Wifi_BLE_SDK/GD32VW55x_RELEASE_V1.0.2/MSDK/cloud/alicloud/src/services/linkkit/cm\iotx_cm_mqtt.c **** static iotx_mqtt_qos_t _get_mqtt_qos(iotx_cm_ack_types_t ack_type)
 378:C:/Users/stapi/OneDrive/Desktop/GD32VW553/V1_MQTT_OK/GD32VW55X_Wifi_BLE_SDK/GD32VW55x_RELEASE_V1.0.2/MSDK/cloud/alicloud/src/services/linkkit/cm\iotx_cm_mqtt.c **** {
 379:C:/Users/stapi/OneDrive/Desktop/GD32VW553/V1_MQTT_OK/GD32VW55X_Wifi_BLE_SDK/GD32VW55x_RELEASE_V1.0.2/MSDK/cloud/alicloud/src/services/linkkit/cm\iotx_cm_mqtt.c ****     switch (ack_type) {
 526              		.loc 1 379 5 is_stmt 1
 527 00b4 0548     		li	a6,1
 528              	.LVL61:
 529 00b6 63060601 		beq	a2,a6,.L75
 530 00ba 0948     		li	a6,2
 531 00bc 631C0601 		bne	a2,a6,.L79
 380:C:/Users/stapi/OneDrive/Desktop/GD32VW553/V1_MQTT_OK/GD32VW55X_Wifi_BLE_SDK/GD32VW55x_RELEASE_V1.0.2/MSDK/cloud/alicloud/src/services/linkkit/cm\iotx_cm_mqtt.c ****         case IOTX_CM_MESSAGE_NO_ACK:
 381:C:/Users/stapi/OneDrive/Desktop/GD32VW553/V1_MQTT_OK/GD32VW55X_Wifi_BLE_SDK/GD32VW55x_RELEASE_V1.0.2/MSDK/cloud/alicloud/src/services/linkkit/cm\iotx_cm_mqtt.c ****             return IOTX_MQTT_QOS0;
 382:C:/Users/stapi/OneDrive/Desktop/GD32VW553/V1_MQTT_OK/GD32VW55X_Wifi_BLE_SDK/GD32VW55x_RELEASE_V1.0.2/MSDK/cloud/alicloud/src/services/linkkit/cm\iotx_cm_mqtt.c **** 
 383:C:/Users/stapi/OneDrive/Desktop/GD32VW553/V1_MQTT_OK/GD32VW55X_Wifi_BLE_SDK/GD32VW55x_RELEASE_V1.0.2/MSDK/cloud/alicloud/src/services/linkkit/cm\iotx_cm_mqtt.c ****         case IOTX_CM_MESSAGE_NEED_ACK:
 384:C:/Users/stapi/OneDrive/Desktop/GD32VW553/V1_MQTT_OK/GD32VW55X_Wifi_BLE_SDK/GD32VW55x_RELEASE_V1.0.2/MSDK/cloud/alicloud/src/services/linkkit/cm\iotx_cm_mqtt.c ****             return IOTX_MQTT_QOS1;
 385:C:/Users/stapi/OneDrive/Desktop/GD32VW553/V1_MQTT_OK/GD32VW55X_Wifi_BLE_SDK/GD32VW55x_RELEASE_V1.0.2/MSDK/cloud/alicloud/src/services/linkkit/cm\iotx_cm_mqtt.c **** 
 386:C:/Users/stapi/OneDrive/Desktop/GD32VW553/V1_MQTT_OK/GD32VW55X_Wifi_BLE_SDK/GD32VW55x_RELEASE_V1.0.2/MSDK/cloud/alicloud/src/services/linkkit/cm\iotx_cm_mqtt.c ****         case IOTX_CM_MESSAGE_SUB_LOCAL:
 387:C:/Users/stapi/OneDrive/Desktop/GD32VW553/V1_MQTT_OK/GD32VW55X_Wifi_BLE_SDK/GD32VW55x_RELEASE_V1.0.2/MSDK/cloud/alicloud/src/services/linkkit/cm\iotx_cm_mqtt.c ****             return IOTX_MQTT_QOS3_SUB_LOCAL;
 532              		.loc 1 387 20 is_stmt 0
 533 00c0 0D46     		li	a2,3
 534              	.LVL62:
 535              	.L75:
 536              	.LBE18:
 537              	.LBE17:
 335:C:/Users/stapi/OneDrive/Desktop/GD32VW553/V1_MQTT_OK/GD32VW55X_Wifi_BLE_SDK/GD32VW55x_RELEASE_V1.0.2/MSDK/cloud/alicloud/src/services/linkkit/cm\iotx_cm_mqtt.c ****         ret = IOT_MQTT_Subscribe_Sync(_mqtt_conncection->context,
 538              		.loc 1 335 5 is_stmt 1
 335:C:/Users/stapi/OneDrive/Desktop/GD32VW553/V1_MQTT_OK/GD32VW55X_Wifi_BLE_SDK/GD32VW55x_RELEASE_V1.0.2/MSDK/cloud/alicloud/src/services/linkkit/cm\iotx_cm_mqtt.c ****         ret = IOT_MQTT_Subscribe_Sync(_mqtt_conncection->context,
 539              		.loc 1 335 8 is_stmt 0
 540 00c2 638C0800 		beq	a7,zero,.L73
 541              	.LVL63:
 336:C:/Users/stapi/OneDrive/Desktop/GD32VW553/V1_MQTT_OK/GD32VW55X_Wifi_BLE_SDK/GD32VW55x_RELEASE_V1.0.2/MSDK/cloud/alicloud/src/services/linkkit/cm\iotx_cm_mqtt.c ****                                       topic,
 542              		.loc 1 336 9 is_stmt 1
 336:C:/Users/stapi/OneDrive/Desktop/GD32VW553/V1_MQTT_OK/GD32VW55X_Wifi_BLE_SDK/GD32VW55x_RELEASE_V1.0.2/MSDK/cloud/alicloud/src/services/linkkit/cm\iotx_cm_mqtt.c ****                                       topic,
 543              		.loc 1 336 15 is_stmt 0
 544 00c6 93860600 		addi	a3,a3,%lo(iotx_cloud_conn_mqtt_event_handle)
 545 00ca 97000000 		call	IOT_MQTT_Subscribe_Sync
 545      E7800000 
 546              	.LVL64:
 547 00d2 BDBF     		j	.L68
 548              	.LVL65:
 549              	.L79:
 550              	.LBB20:
 551              	.LBB19:
 381:C:/Users/stapi/OneDrive/Desktop/GD32VW553/V1_MQTT_OK/GD32VW55X_Wifi_BLE_SDK/GD32VW55x_RELEASE_V1.0.2/MSDK/cloud/alicloud/src/services/linkkit/cm\iotx_cm_mqtt.c **** 
 552              		.loc 1 381 20
 553 00d4 0146     		li	a2,0
 554              	.LVL66:
 555 00d6 F5B7     		j	.L75
 556              	.LVL67:
 557              	.L77:
 558              	.LBE19:
 559              	.LBE20:
 317:C:/Users/stapi/OneDrive/Desktop/GD32VW553/V1_MQTT_OK/GD32VW55X_Wifi_BLE_SDK/GD32VW55x_RELEASE_V1.0.2/MSDK/cloud/alicloud/src/services/linkkit/cm\iotx_cm_mqtt.c ****     int timeout;
 560              		.loc 1 317 9
 561 00d8 0146     		li	a2,0
 562              	.LVL68:
 563              	.L73:
 343:C:/Users/stapi/OneDrive/Desktop/GD32VW553/V1_MQTT_OK/GD32VW55X_Wifi_BLE_SDK/GD32VW55x_RELEASE_V1.0.2/MSDK/cloud/alicloud/src/services/linkkit/cm\iotx_cm_mqtt.c ****                                  topic,
 564              		.loc 1 343 9 is_stmt 1
 343:C:/Users/stapi/OneDrive/Desktop/GD32VW553/V1_MQTT_OK/GD32VW55X_Wifi_BLE_SDK/GD32VW55x_RELEASE_V1.0.2/MSDK/cloud/alicloud/src/services/linkkit/cm\iotx_cm_mqtt.c ****                                  topic,
 565              		.loc 1 343 15 is_stmt 0
 566 00da 93860600 		addi	a3,a3,%lo(iotx_cloud_conn_mqtt_event_handle)
 567 00de 97000000 		call	IOT_MQTT_Subscribe
 567      E7800000 
 568              	.LVL69:
 569 00e6 ADB7     		j	.L68
 570              		.cfi_endproc
 571              	.LFE25:
 573              		.section	.rodata._mqtt_connect.str1.4,"aMS",@progbits,1
 574              		.align	2
 575              	.LC14:
 576 0000 6D717474 		.string	"mqtt_param"
 576      5F706172 
 576      616D00
 577 000b 00       		.align	2
 578              	.LC15:
 579 000c 7374726C 		.string	"strlen(device_name)"
 579      656E2864 
 579      65766963 
 579      655F6E61 
 579      6D652900 
 580              		.align	2
 581              	.LC16:
 582 0020 496E7661 		.string	"Invalid argument, expression '%s' is FALSE"
 582      6C696420 
 582      61726775 
 582      6D656E74 
 582      2C206578 
 583 004b 00       		.align	2
 584              	.LC17:
 585 004c 7374726C 		.string	"strlen(product_key)"
 585      656E2870 
 585      726F6475 
 585      63745F6B 
 585      65792900 
 586              		.align	2
 587              	.LC18:
 588 0060 7374726C 		.string	"strlen(device_id)"
 588      656E2864 
 588      65766963 
 588      655F6964 
 588      2900
 589 0072 0000     		.align	2
 590              	.LC19:
 591 0074 6D717474 		.string	"mqtt connect failed"
 591      20636F6E 
 591      6E656374 
 591      20666169 
 591      6C656400 
 592              		.section	.text._mqtt_connect,"ax",@progbits
 593              		.align	1
 595              	_mqtt_connect:
 596              	.LFB22:
 213:C:/Users/stapi/OneDrive/Desktop/GD32VW553/V1_MQTT_OK/GD32VW55X_Wifi_BLE_SDK/GD32VW55x_RELEASE_V1.0.2/MSDK/cloud/alicloud/src/services/linkkit/cm\iotx_cm_mqtt.c **** #define BASE_INTERVAL_TIME_MS (1000)
 597              		.loc 1 213 1 is_stmt 1
 598              		.cfi_startproc
 599              	.LVL70:
 600 0000 17030000 		call	t0,__riscv_save_4
 600      E7020300 
 601              		.cfi_offset 19, -20
 602              		.cfi_offset 18, -16
 603              		.cfi_offset 9, -12
 604              		.cfi_offset 8, -8
 605              		.cfi_offset 1, -4
 606              		.cfi_def_cfa_offset 32
 215:C:/Users/stapi/OneDrive/Desktop/GD32VW553/V1_MQTT_OK/GD32VW55X_Wifi_BLE_SDK/GD32VW55x_RELEASE_V1.0.2/MSDK/cloud/alicloud/src/services/linkkit/cm\iotx_cm_mqtt.c ****     iotx_time_t timer;
 607              		.loc 1 215 5
 216:C:/Users/stapi/OneDrive/Desktop/GD32VW553/V1_MQTT_OK/GD32VW55X_Wifi_BLE_SDK/GD32VW55x_RELEASE_V1.0.2/MSDK/cloud/alicloud/src/services/linkkit/cm\iotx_cm_mqtt.c ****     iotx_mqtt_param_t *mqtt_param = NULL;
 608              		.loc 1 216 5
 217:C:/Users/stapi/OneDrive/Desktop/GD32VW553/V1_MQTT_OK/GD32VW55X_Wifi_BLE_SDK/GD32VW55x_RELEASE_V1.0.2/MSDK/cloud/alicloud/src/services/linkkit/cm\iotx_cm_mqtt.c ****     iotx_conn_info_pt pconn_info = NULL;
 609              		.loc 1 217 5
 610              	.LVL71:
 218:C:/Users/stapi/OneDrive/Desktop/GD32VW553/V1_MQTT_OK/GD32VW55X_Wifi_BLE_SDK/GD32VW55x_RELEASE_V1.0.2/MSDK/cloud/alicloud/src/services/linkkit/cm\iotx_cm_mqtt.c ****     uint32_t interval_ms = BASE_INTERVAL_TIME_MS;
 611              		.loc 1 218 5
 213:C:/Users/stapi/OneDrive/Desktop/GD32VW553/V1_MQTT_OK/GD32VW55X_Wifi_BLE_SDK/GD32VW55x_RELEASE_V1.0.2/MSDK/cloud/alicloud/src/services/linkkit/cm\iotx_cm_mqtt.c **** #define BASE_INTERVAL_TIME_MS (1000)
 612              		.loc 1 213 1 is_stmt 0
 613 0008 1571     		addi	sp,sp,-224
 614              		.cfi_def_cfa_offset 256
 222:C:/Users/stapi/OneDrive/Desktop/GD32VW553/V1_MQTT_OK/GD32VW55X_Wifi_BLE_SDK/GD32VW55x_RELEASE_V1.0.2/MSDK/cloud/alicloud/src/services/linkkit/cm\iotx_cm_mqtt.c ****     char device_secret[DEVICE_SECRET_LEN + 1] = {0};
 615              		.loc 1 222 10
 616 000a 7546     		li	a2,29
 617 000c 8145     		li	a1,0
 213:C:/Users/stapi/OneDrive/Desktop/GD32VW553/V1_MQTT_OK/GD32VW55X_Wifi_BLE_SDK/GD32VW55x_RELEASE_V1.0.2/MSDK/cloud/alicloud/src/services/linkkit/cm\iotx_cm_mqtt.c **** #define BASE_INTERVAL_TIME_MS (1000)
 618              		.loc 1 213 1
 619 000e 2A84     		mv	s0,a0
 222:C:/Users/stapi/OneDrive/Desktop/GD32VW553/V1_MQTT_OK/GD32VW55X_Wifi_BLE_SDK/GD32VW55x_RELEASE_V1.0.2/MSDK/cloud/alicloud/src/services/linkkit/cm\iotx_cm_mqtt.c ****     char device_secret[DEVICE_SECRET_LEN + 1] = {0};
 620              		.loc 1 222 10
 621 0010 2818     		addi	a0,sp,56
 622              	.LVL72:
 218:C:/Users/stapi/OneDrive/Desktop/GD32VW553/V1_MQTT_OK/GD32VW55X_Wifi_BLE_SDK/GD32VW55x_RELEASE_V1.0.2/MSDK/cloud/alicloud/src/services/linkkit/cm\iotx_cm_mqtt.c ****     uint32_t interval_ms = BASE_INTERVAL_TIME_MS;
 623              		.loc 1 218 23
 624 0012 02C8     		sw	zero,16(sp)
 219:C:/Users/stapi/OneDrive/Desktop/GD32VW553/V1_MQTT_OK/GD32VW55X_Wifi_BLE_SDK/GD32VW55x_RELEASE_V1.0.2/MSDK/cloud/alicloud/src/services/linkkit/cm\iotx_cm_mqtt.c ****     uint32_t sleep_ms = 0;
 625              		.loc 1 219 5 is_stmt 1
 626              	.LVL73:
 220:C:/Users/stapi/OneDrive/Desktop/GD32VW553/V1_MQTT_OK/GD32VW55X_Wifi_BLE_SDK/GD32VW55x_RELEASE_V1.0.2/MSDK/cloud/alicloud/src/services/linkkit/cm\iotx_cm_mqtt.c ****     char product_key[PRODUCT_KEY_LEN + 1] = {0};
 627              		.loc 1 220 5
 221:C:/Users/stapi/OneDrive/Desktop/GD32VW553/V1_MQTT_OK/GD32VW55X_Wifi_BLE_SDK/GD32VW55x_RELEASE_V1.0.2/MSDK/cloud/alicloud/src/services/linkkit/cm\iotx_cm_mqtt.c ****     char device_name[DEVICE_NAME_LEN + 1] = {0};
 628              		.loc 1 221 5
 221:C:/Users/stapi/OneDrive/Desktop/GD32VW553/V1_MQTT_OK/GD32VW55X_Wifi_BLE_SDK/GD32VW55x_RELEASE_V1.0.2/MSDK/cloud/alicloud/src/services/linkkit/cm\iotx_cm_mqtt.c ****     char device_name[DEVICE_NAME_LEN + 1] = {0};
 629              		.loc 1 221 10 is_stmt 0
 630 0014 02CE     		sw	zero,28(sp)
 631 0016 02D0     		sw	zero,32(sp)
 632 0018 02D2     		sw	zero,36(sp)
 633 001a 02D4     		sw	zero,40(sp)
 634 001c 02D6     		sw	zero,44(sp)
 635 001e 23080102 		sb	zero,48(sp)
 222:C:/Users/stapi/OneDrive/Desktop/GD32VW553/V1_MQTT_OK/GD32VW55X_Wifi_BLE_SDK/GD32VW55x_RELEASE_V1.0.2/MSDK/cloud/alicloud/src/services/linkkit/cm\iotx_cm_mqtt.c ****     char device_secret[DEVICE_SECRET_LEN + 1] = {0};
 636              		.loc 1 222 5 is_stmt 1
 222:C:/Users/stapi/OneDrive/Desktop/GD32VW553/V1_MQTT_OK/GD32VW55X_Wifi_BLE_SDK/GD32VW55x_RELEASE_V1.0.2/MSDK/cloud/alicloud/src/services/linkkit/cm\iotx_cm_mqtt.c ****     char device_secret[DEVICE_SECRET_LEN + 1] = {0};
 637              		.loc 1 222 10 is_stmt 0
 638 0022 02DA     		sw	zero,52(sp)
 639 0024 97000000 		call	memset
 639      E7800000 
 640              	.LVL74:
 223:C:/Users/stapi/OneDrive/Desktop/GD32VW553/V1_MQTT_OK/GD32VW55X_Wifi_BLE_SDK/GD32VW55x_RELEASE_V1.0.2/MSDK/cloud/alicloud/src/services/linkkit/cm\iotx_cm_mqtt.c ****     char device_id[DEVICE_ID_LEN + 1] = {0};
 641              		.loc 1 223 5 is_stmt 1
 223:C:/Users/stapi/OneDrive/Desktop/GD32VW553/V1_MQTT_OK/GD32VW55X_Wifi_BLE_SDK/GD32VW55x_RELEASE_V1.0.2/MSDK/cloud/alicloud/src/services/linkkit/cm\iotx_cm_mqtt.c ****     char device_id[DEVICE_ID_LEN + 1] = {0};
 642              		.loc 1 223 10 is_stmt 0
 643 002c 1306D003 		li	a2,61
 644 0030 8145     		li	a1,0
 645 0032 E808     		addi	a0,sp,92
 646 0034 82CC     		sw	zero,88(sp)
 647 0036 97000000 		call	memset
 647      E7800000 
 648              	.LVL75:
 224:C:/Users/stapi/OneDrive/Desktop/GD32VW553/V1_MQTT_OK/GD32VW55X_Wifi_BLE_SDK/GD32VW55x_RELEASE_V1.0.2/MSDK/cloud/alicloud/src/services/linkkit/cm\iotx_cm_mqtt.c **** 
 649              		.loc 1 224 5 is_stmt 1
 224:C:/Users/stapi/OneDrive/Desktop/GD32VW553/V1_MQTT_OK/GD32VW55X_Wifi_BLE_SDK/GD32VW55x_RELEASE_V1.0.2/MSDK/cloud/alicloud/src/services/linkkit/cm\iotx_cm_mqtt.c **** 
 650              		.loc 1 224 10 is_stmt 0
 651 003e 1306D003 		li	a2,61
 652 0042 8145     		li	a1,0
 653 0044 0811     		addi	a0,sp,160
 226:C:/Users/stapi/OneDrive/Desktop/GD32VW553/V1_MQTT_OK/GD32VW55X_Wifi_BLE_SDK/GD32VW55x_RELEASE_V1.0.2/MSDK/cloud/alicloud/src/services/linkkit/cm\iotx_cm_mqtt.c **** 
 654              		.loc 1 226 5
 655 0046 37090000 		lui	s2,%hi(.LANCHOR0)
 224:C:/Users/stapi/OneDrive/Desktop/GD32VW553/V1_MQTT_OK/GD32VW55X_Wifi_BLE_SDK/GD32VW55x_RELEASE_V1.0.2/MSDK/cloud/alicloud/src/services/linkkit/cm\iotx_cm_mqtt.c **** 
 656              		.loc 1 224 10
 657 004a 02CF     		sw	zero,156(sp)
 226:C:/Users/stapi/OneDrive/Desktop/GD32VW553/V1_MQTT_OK/GD32VW55X_Wifi_BLE_SDK/GD32VW55x_RELEASE_V1.0.2/MSDK/cloud/alicloud/src/services/linkkit/cm\iotx_cm_mqtt.c **** 
 658              		.loc 1 226 5
 659 004c 93040900 		addi	s1,s2,%lo(.LANCHOR0)
 224:C:/Users/stapi/OneDrive/Desktop/GD32VW553/V1_MQTT_OK/GD32VW55X_Wifi_BLE_SDK/GD32VW55x_RELEASE_V1.0.2/MSDK/cloud/alicloud/src/services/linkkit/cm\iotx_cm_mqtt.c **** 
 660              		.loc 1 224 10
 661 0050 97000000 		call	memset
 661      E7800000 
 662              	.LVL76:
 226:C:/Users/stapi/OneDrive/Desktop/GD32VW553/V1_MQTT_OK/GD32VW55X_Wifi_BLE_SDK/GD32VW55x_RELEASE_V1.0.2/MSDK/cloud/alicloud/src/services/linkkit/cm\iotx_cm_mqtt.c **** 
 663              		.loc 1 226 5 is_stmt 1
 226:C:/Users/stapi/OneDrive/Desktop/GD32VW553/V1_MQTT_OK/GD32VW55X_Wifi_BLE_SDK/GD32VW55x_RELEASE_V1.0.2/MSDK/cloud/alicloud/src/services/linkkit/cm\iotx_cm_mqtt.c **** 
 664              		.loc 1 226 5
 665 0058 9C40     		lw	a5,0(s1)
 666 005a A9E7     		bne	a5,zero,.L84
 226:C:/Users/stapi/OneDrive/Desktop/GD32VW553/V1_MQTT_OK/GD32VW55X_Wifi_BLE_SDK/GD32VW55x_RELEASE_V1.0.2/MSDK/cloud/alicloud/src/services/linkkit/cm\iotx_cm_mqtt.c **** 
 667              		.loc 1 226 5 discriminator 1
 226:C:/Users/stapi/OneDrive/Desktop/GD32VW553/V1_MQTT_OK/GD32VW55X_Wifi_BLE_SDK/GD32VW55x_RELEASE_V1.0.2/MSDK/cloud/alicloud/src/services/linkkit/cm\iotx_cm_mqtt.c **** 
 668              		.loc 1 226 5 discriminator 1
 669 005c 37050000 		lui	a0,%hi(.LC4)
 670 0060 13050500 		addi	a0,a0,%lo(.LC4)
 671 0064 97000000 		call	HAL_Printf
 671      E7800000 
 672              	.LVL77:
 226:C:/Users/stapi/OneDrive/Desktop/GD32VW553/V1_MQTT_OK/GD32VW55X_Wifi_BLE_SDK/GD32VW55x_RELEASE_V1.0.2/MSDK/cloud/alicloud/src/services/linkkit/cm\iotx_cm_mqtt.c **** 
 673              		.loc 1 226 5 discriminator 1
 674 006c 9040     		lw	a2,0(s1)
 675 006e B7050000 		lui	a1,%hi(.LC10)
 676 0072 93850500 		addi	a1,a1,%lo(.LC10)
 677              	.LVL78:
 678              	.L107:
 229:C:/Users/stapi/OneDrive/Desktop/GD32VW553/V1_MQTT_OK/GD32VW55X_Wifi_BLE_SDK/GD32VW55x_RELEASE_V1.0.2/MSDK/cloud/alicloud/src/services/linkkit/cm\iotx_cm_mqtt.c **** 
 679              		.loc 1 229 5 is_stmt 0 discriminator 1
 680 0076 37050000 		lui	a0,%hi(.LC11)
 681 007a 13050500 		addi	a0,a0,%lo(.LC11)
 682 007e 97000000 		call	HAL_Printf
 682      E7800000 
 683              	.LVL79:
 229:C:/Users/stapi/OneDrive/Desktop/GD32VW553/V1_MQTT_OK/GD32VW55X_Wifi_BLE_SDK/GD32VW55x_RELEASE_V1.0.2/MSDK/cloud/alicloud/src/services/linkkit/cm\iotx_cm_mqtt.c **** 
 684              		.loc 1 229 5 is_stmt 1 discriminator 1
 685 0086 37050000 		lui	a0,%hi(.LC2)
 686 008a 13050500 		addi	a0,a0,%lo(.LC2)
 687 008e 97000000 		call	HAL_Printf
 687      E7800000 
 688              	.LVL80:
 229:C:/Users/stapi/OneDrive/Desktop/GD32VW553/V1_MQTT_OK/GD32VW55X_Wifi_BLE_SDK/GD32VW55x_RELEASE_V1.0.2/MSDK/cloud/alicloud/src/services/linkkit/cm\iotx_cm_mqtt.c **** 
 689              		.loc 1 229 5 discriminator 1
 229:C:/Users/stapi/OneDrive/Desktop/GD32VW553/V1_MQTT_OK/GD32VW55X_Wifi_BLE_SDK/GD32VW55x_RELEASE_V1.0.2/MSDK/cloud/alicloud/src/services/linkkit/cm\iotx_cm_mqtt.c **** 
 690              		.loc 1 229 5 discriminator 1
 691 0096 7954     		li	s0,-2
 692              	.LVL81:
 693              	.L83:
 291:C:/Users/stapi/OneDrive/Desktop/GD32VW553/V1_MQTT_OK/GD32VW55X_Wifi_BLE_SDK/GD32VW55x_RELEASE_V1.0.2/MSDK/cloud/alicloud/src/services/linkkit/cm\iotx_cm_mqtt.c **** 
 694              		.loc 1 291 1 is_stmt 0
 695 0098 2285     		mv	a0,s0
 696 009a 2D61     		addi	sp,sp,224
 697              		.cfi_remember_state
 698              		.cfi_def_cfa_offset 0
 699 009c 17030000 		tail	__riscv_restore_4
 699      67000300 
 700              		.cfi_restore 19
 701              		.cfi_restore 18
 702              		.cfi_restore 9
 703              		.cfi_restore 8
 704              		.cfi_restore 1
 705              		.cfi_def_cfa_offset -32
 706              	.LVL82:
 707              	.L84:
 708              		.cfi_restore_state
 226:C:/Users/stapi/OneDrive/Desktop/GD32VW553/V1_MQTT_OK/GD32VW55X_Wifi_BLE_SDK/GD32VW55x_RELEASE_V1.0.2/MSDK/cloud/alicloud/src/services/linkkit/cm\iotx_cm_mqtt.c **** 
 709              		.loc 1 226 5 is_stmt 1 discriminator 2
 228:C:/Users/stapi/OneDrive/Desktop/GD32VW553/V1_MQTT_OK/GD32VW55X_Wifi_BLE_SDK/GD32VW55x_RELEASE_V1.0.2/MSDK/cloud/alicloud/src/services/linkkit/cm\iotx_cm_mqtt.c ****     POINTER_SANITY_CHECK(mqtt_param, NULL_VALUE_ERROR);
 710              		.loc 1 228 5 discriminator 2
 228:C:/Users/stapi/OneDrive/Desktop/GD32VW553/V1_MQTT_OK/GD32VW55X_Wifi_BLE_SDK/GD32VW55x_RELEASE_V1.0.2/MSDK/cloud/alicloud/src/services/linkkit/cm\iotx_cm_mqtt.c ****     POINTER_SANITY_CHECK(mqtt_param, NULL_VALUE_ERROR);
 711              		.loc 1 228 16 is_stmt 0 discriminator 2
 712 00a4 C443     		lw	s1,4(a5)
 713              	.LVL83:
 229:C:/Users/stapi/OneDrive/Desktop/GD32VW553/V1_MQTT_OK/GD32VW55X_Wifi_BLE_SDK/GD32VW55x_RELEASE_V1.0.2/MSDK/cloud/alicloud/src/services/linkkit/cm\iotx_cm_mqtt.c **** 
 714              		.loc 1 229 5 is_stmt 1 discriminator 2
 229:C:/Users/stapi/OneDrive/Desktop/GD32VW553/V1_MQTT_OK/GD32VW55X_Wifi_BLE_SDK/GD32VW55x_RELEASE_V1.0.2/MSDK/cloud/alicloud/src/services/linkkit/cm\iotx_cm_mqtt.c **** 
 715              		.loc 1 229 5 discriminator 2
 716 00a6 99EC     		bne	s1,zero,.L86
 229:C:/Users/stapi/OneDrive/Desktop/GD32VW553/V1_MQTT_OK/GD32VW55X_Wifi_BLE_SDK/GD32VW55x_RELEASE_V1.0.2/MSDK/cloud/alicloud/src/services/linkkit/cm\iotx_cm_mqtt.c **** 
 717              		.loc 1 229 5 discriminator 1
 229:C:/Users/stapi/OneDrive/Desktop/GD32VW553/V1_MQTT_OK/GD32VW55X_Wifi_BLE_SDK/GD32VW55x_RELEASE_V1.0.2/MSDK/cloud/alicloud/src/services/linkkit/cm\iotx_cm_mqtt.c **** 
 718              		.loc 1 229 5 discriminator 1
 719 00a8 37050000 		lui	a0,%hi(.LC4)
 720 00ac 13050500 		addi	a0,a0,%lo(.LC4)
 721 00b0 97000000 		call	HAL_Printf
 721      E7800000 
 722              	.LVL84:
 229:C:/Users/stapi/OneDrive/Desktop/GD32VW553/V1_MQTT_OK/GD32VW55X_Wifi_BLE_SDK/GD32VW55x_RELEASE_V1.0.2/MSDK/cloud/alicloud/src/services/linkkit/cm\iotx_cm_mqtt.c **** 
 723              		.loc 1 229 5 discriminator 1
 724 00b8 B7050000 		lui	a1,%hi(.LC14)
 725 00bc 0146     		li	a2,0
 726 00be 93850500 		addi	a1,a1,%lo(.LC14)
 727 00c2 55BF     		j	.L107
 728              	.L86:
 229:C:/Users/stapi/OneDrive/Desktop/GD32VW553/V1_MQTT_OK/GD32VW55X_Wifi_BLE_SDK/GD32VW55x_RELEASE_V1.0.2/MSDK/cloud/alicloud/src/services/linkkit/cm\iotx_cm_mqtt.c **** 
 729              		.loc 1 229 5 discriminator 2
 231:C:/Users/stapi/OneDrive/Desktop/GD32VW553/V1_MQTT_OK/GD32VW55X_Wifi_BLE_SDK/GD32VW55x_RELEASE_V1.0.2/MSDK/cloud/alicloud/src/services/linkkit/cm\iotx_cm_mqtt.c **** 
 730              		.loc 1 231 5 discriminator 2
 731 00c4 97000000 		call	iotx_guider_get_kv_env
 731      E7800000 
 732              	.LVL85:
 233:C:/Users/stapi/OneDrive/Desktop/GD32VW553/V1_MQTT_OK/GD32VW55X_Wifi_BLE_SDK/GD32VW55x_RELEASE_V1.0.2/MSDK/cloud/alicloud/src/services/linkkit/cm\iotx_cm_mqtt.c ****     HAL_GetDeviceName(device_name);
 733              		.loc 1 233 5 discriminator 2
 734 00cc 6808     		addi	a0,sp,28
 735 00ce 97000000 		call	HAL_GetProductKey
 735      E7800000 
 736              	.LVL86:
 234:C:/Users/stapi/OneDrive/Desktop/GD32VW553/V1_MQTT_OK/GD32VW55X_Wifi_BLE_SDK/GD32VW55x_RELEASE_V1.0.2/MSDK/cloud/alicloud/src/services/linkkit/cm\iotx_cm_mqtt.c ****     HAL_GetDeviceID(device_id);
 737              		.loc 1 234 5 discriminator 2
 738 00d6 4818     		addi	a0,sp,52
 739 00d8 97000000 		call	HAL_GetDeviceName
 739      E7800000 
 740              	.LVL87:
 235:C:/Users/stapi/OneDrive/Desktop/GD32VW553/V1_MQTT_OK/GD32VW55X_Wifi_BLE_SDK/GD32VW55x_RELEASE_V1.0.2/MSDK/cloud/alicloud/src/services/linkkit/cm\iotx_cm_mqtt.c ****     HAL_GetDeviceSecret(device_secret);
 741              		.loc 1 235 5 discriminator 2
 742 00e0 6809     		addi	a0,sp,156
 743 00e2 97000000 		call	HAL_GetDeviceID
 743      E7800000 
 744              	.LVL88:
 236:C:/Users/stapi/OneDrive/Desktop/GD32VW553/V1_MQTT_OK/GD32VW55X_Wifi_BLE_SDK/GD32VW55x_RELEASE_V1.0.2/MSDK/cloud/alicloud/src/services/linkkit/cm\iotx_cm_mqtt.c **** 
 745              		.loc 1 236 5 discriminator 2
 746 00ea A808     		addi	a0,sp,88
 747 00ec 97000000 		call	HAL_GetDeviceSecret
 747      E7800000 
 748              	.LVL89:
 238:C:/Users/stapi/OneDrive/Desktop/GD32VW553/V1_MQTT_OK/GD32VW55X_Wifi_BLE_SDK/GD32VW55x_RELEASE_V1.0.2/MSDK/cloud/alicloud/src/services/linkkit/cm\iotx_cm_mqtt.c ****     ARGUMENT_SANITY_CHECK(strlen(product_key), FAIL_RETURN);
 749              		.loc 1 238 5 discriminator 2
 238:C:/Users/stapi/OneDrive/Desktop/GD32VW553/V1_MQTT_OK/GD32VW55X_Wifi_BLE_SDK/GD32VW55x_RELEASE_V1.0.2/MSDK/cloud/alicloud/src/services/linkkit/cm\iotx_cm_mqtt.c ****     ARGUMENT_SANITY_CHECK(strlen(product_key), FAIL_RETURN);
 750              		.loc 1 238 5 discriminator 2
 751 00f4 83074103 		lb	a5,52(sp)
 752 00f8 9DEF     		bne	a5,zero,.L87
 238:C:/Users/stapi/OneDrive/Desktop/GD32VW553/V1_MQTT_OK/GD32VW55X_Wifi_BLE_SDK/GD32VW55x_RELEASE_V1.0.2/MSDK/cloud/alicloud/src/services/linkkit/cm\iotx_cm_mqtt.c ****     ARGUMENT_SANITY_CHECK(strlen(product_key), FAIL_RETURN);
 753              		.loc 1 238 5 discriminator 1
 238:C:/Users/stapi/OneDrive/Desktop/GD32VW553/V1_MQTT_OK/GD32VW55X_Wifi_BLE_SDK/GD32VW55x_RELEASE_V1.0.2/MSDK/cloud/alicloud/src/services/linkkit/cm\iotx_cm_mqtt.c ****     ARGUMENT_SANITY_CHECK(strlen(product_key), FAIL_RETURN);
 754              		.loc 1 238 5 discriminator 1
 755 00fa 37050000 		lui	a0,%hi(.LC4)
 756 00fe 13050500 		addi	a0,a0,%lo(.LC4)
 757 0102 97000000 		call	HAL_Printf
 757      E7800000 
 758              	.LVL90:
 238:C:/Users/stapi/OneDrive/Desktop/GD32VW553/V1_MQTT_OK/GD32VW55X_Wifi_BLE_SDK/GD32VW55x_RELEASE_V1.0.2/MSDK/cloud/alicloud/src/services/linkkit/cm\iotx_cm_mqtt.c ****     ARGUMENT_SANITY_CHECK(strlen(product_key), FAIL_RETURN);
 759              		.loc 1 238 5 discriminator 1
 760 010a B7050000 		lui	a1,%hi(.LC15)
 761 010e 93850500 		addi	a1,a1,%lo(.LC15)
 762              	.L108:
 240:C:/Users/stapi/OneDrive/Desktop/GD32VW553/V1_MQTT_OK/GD32VW55X_Wifi_BLE_SDK/GD32VW55x_RELEASE_V1.0.2/MSDK/cloud/alicloud/src/services/linkkit/cm\iotx_cm_mqtt.c **** 
 763              		.loc 1 240 5 is_stmt 0 discriminator 1
 764 0112 37050000 		lui	a0,%hi(.LC16)
 765 0116 13050500 		addi	a0,a0,%lo(.LC16)
 766 011a 97000000 		call	HAL_Printf
 766      E7800000 
 767              	.LVL91:
 240:C:/Users/stapi/OneDrive/Desktop/GD32VW553/V1_MQTT_OK/GD32VW55X_Wifi_BLE_SDK/GD32VW55x_RELEASE_V1.0.2/MSDK/cloud/alicloud/src/services/linkkit/cm\iotx_cm_mqtt.c **** 
 768              		.loc 1 240 5 is_stmt 1 discriminator 1
 769              	.L106:
 288:C:/Users/stapi/OneDrive/Desktop/GD32VW553/V1_MQTT_OK/GD32VW55X_Wifi_BLE_SDK/GD32VW55x_RELEASE_V1.0.2/MSDK/cloud/alicloud/src/services/linkkit/cm\iotx_cm_mqtt.c **** 
 770              		.loc 1 288 5
 771 0122 37050000 		lui	a0,%hi(.LC2)
 772 0126 13050500 		addi	a0,a0,%lo(.LC2)
 773 012a 97000000 		call	HAL_Printf
 773      E7800000 
 774              	.LVL92:
 288:C:/Users/stapi/OneDrive/Desktop/GD32VW553/V1_MQTT_OK/GD32VW55X_Wifi_BLE_SDK/GD32VW55x_RELEASE_V1.0.2/MSDK/cloud/alicloud/src/services/linkkit/cm\iotx_cm_mqtt.c **** 
 775              		.loc 1 288 5
 290:C:/Users/stapi/OneDrive/Desktop/GD32VW553/V1_MQTT_OK/GD32VW55X_Wifi_BLE_SDK/GD32VW55x_RELEASE_V1.0.2/MSDK/cloud/alicloud/src/services/linkkit/cm\iotx_cm_mqtt.c **** }
 776              		.loc 1 290 5
 290:C:/Users/stapi/OneDrive/Desktop/GD32VW553/V1_MQTT_OK/GD32VW55X_Wifi_BLE_SDK/GD32VW55x_RELEASE_V1.0.2/MSDK/cloud/alicloud/src/services/linkkit/cm\iotx_cm_mqtt.c **** }
 777              		.loc 1 290 12 is_stmt 0
 778 0132 7D54     		li	s0,-1
 779 0134 95B7     		j	.L83
 780              	.LVL93:
 781              	.L87:
 238:C:/Users/stapi/OneDrive/Desktop/GD32VW553/V1_MQTT_OK/GD32VW55X_Wifi_BLE_SDK/GD32VW55x_RELEASE_V1.0.2/MSDK/cloud/alicloud/src/services/linkkit/cm\iotx_cm_mqtt.c ****     ARGUMENT_SANITY_CHECK(strlen(product_key), FAIL_RETURN);
 782              		.loc 1 238 5 is_stmt 1 discriminator 2
 239:C:/Users/stapi/OneDrive/Desktop/GD32VW553/V1_MQTT_OK/GD32VW55X_Wifi_BLE_SDK/GD32VW55x_RELEASE_V1.0.2/MSDK/cloud/alicloud/src/services/linkkit/cm\iotx_cm_mqtt.c ****     ARGUMENT_SANITY_CHECK(strlen(device_id), FAIL_RETURN);
 783              		.loc 1 239 5 discriminator 2
 239:C:/Users/stapi/OneDrive/Desktop/GD32VW553/V1_MQTT_OK/GD32VW55X_Wifi_BLE_SDK/GD32VW55x_RELEASE_V1.0.2/MSDK/cloud/alicloud/src/services/linkkit/cm\iotx_cm_mqtt.c ****     ARGUMENT_SANITY_CHECK(strlen(device_id), FAIL_RETURN);
 784              		.loc 1 239 5 discriminator 2
 785 0136 8307C101 		lb	a5,28(sp)
 786 013a 91EF     		bne	a5,zero,.L88
 239:C:/Users/stapi/OneDrive/Desktop/GD32VW553/V1_MQTT_OK/GD32VW55X_Wifi_BLE_SDK/GD32VW55x_RELEASE_V1.0.2/MSDK/cloud/alicloud/src/services/linkkit/cm\iotx_cm_mqtt.c ****     ARGUMENT_SANITY_CHECK(strlen(device_id), FAIL_RETURN);
 787              		.loc 1 239 5 discriminator 1
 239:C:/Users/stapi/OneDrive/Desktop/GD32VW553/V1_MQTT_OK/GD32VW55X_Wifi_BLE_SDK/GD32VW55x_RELEASE_V1.0.2/MSDK/cloud/alicloud/src/services/linkkit/cm\iotx_cm_mqtt.c ****     ARGUMENT_SANITY_CHECK(strlen(device_id), FAIL_RETURN);
 788              		.loc 1 239 5 discriminator 1
 789 013c 37050000 		lui	a0,%hi(.LC4)
 790 0140 13050500 		addi	a0,a0,%lo(.LC4)
 791 0144 97000000 		call	HAL_Printf
 791      E7800000 
 792              	.LVL94:
 239:C:/Users/stapi/OneDrive/Desktop/GD32VW553/V1_MQTT_OK/GD32VW55X_Wifi_BLE_SDK/GD32VW55x_RELEASE_V1.0.2/MSDK/cloud/alicloud/src/services/linkkit/cm\iotx_cm_mqtt.c ****     ARGUMENT_SANITY_CHECK(strlen(device_id), FAIL_RETURN);
 793              		.loc 1 239 5 discriminator 1
 794 014c B7050000 		lui	a1,%hi(.LC17)
 795 0150 93850500 		addi	a1,a1,%lo(.LC17)
 796 0154 7DBF     		j	.L108
 797              	.L88:
 239:C:/Users/stapi/OneDrive/Desktop/GD32VW553/V1_MQTT_OK/GD32VW55X_Wifi_BLE_SDK/GD32VW55x_RELEASE_V1.0.2/MSDK/cloud/alicloud/src/services/linkkit/cm\iotx_cm_mqtt.c ****     ARGUMENT_SANITY_CHECK(strlen(device_id), FAIL_RETURN);
 798              		.loc 1 239 5 discriminator 2
 240:C:/Users/stapi/OneDrive/Desktop/GD32VW553/V1_MQTT_OK/GD32VW55X_Wifi_BLE_SDK/GD32VW55x_RELEASE_V1.0.2/MSDK/cloud/alicloud/src/services/linkkit/cm\iotx_cm_mqtt.c **** 
 799              		.loc 1 240 5 discriminator 2
 240:C:/Users/stapi/OneDrive/Desktop/GD32VW553/V1_MQTT_OK/GD32VW55X_Wifi_BLE_SDK/GD32VW55x_RELEASE_V1.0.2/MSDK/cloud/alicloud/src/services/linkkit/cm\iotx_cm_mqtt.c **** 
 800              		.loc 1 240 5 discriminator 2
 801 0156 8307C109 		lb	a5,156(sp)
 802 015a 91EF     		bne	a5,zero,.L89
 240:C:/Users/stapi/OneDrive/Desktop/GD32VW553/V1_MQTT_OK/GD32VW55X_Wifi_BLE_SDK/GD32VW55x_RELEASE_V1.0.2/MSDK/cloud/alicloud/src/services/linkkit/cm\iotx_cm_mqtt.c **** 
 803              		.loc 1 240 5 discriminator 1
 240:C:/Users/stapi/OneDrive/Desktop/GD32VW553/V1_MQTT_OK/GD32VW55X_Wifi_BLE_SDK/GD32VW55x_RELEASE_V1.0.2/MSDK/cloud/alicloud/src/services/linkkit/cm\iotx_cm_mqtt.c **** 
 804              		.loc 1 240 5 discriminator 1
 805 015c 37050000 		lui	a0,%hi(.LC4)
 806 0160 13050500 		addi	a0,a0,%lo(.LC4)
 807 0164 97000000 		call	HAL_Printf
 807      E7800000 
 808              	.LVL95:
 240:C:/Users/stapi/OneDrive/Desktop/GD32VW553/V1_MQTT_OK/GD32VW55X_Wifi_BLE_SDK/GD32VW55x_RELEASE_V1.0.2/MSDK/cloud/alicloud/src/services/linkkit/cm\iotx_cm_mqtt.c **** 
 809              		.loc 1 240 5 discriminator 1
 810 016c B7050000 		lui	a1,%hi(.LC18)
 811 0170 93850500 		addi	a1,a1,%lo(.LC18)
 812 0174 79BF     		j	.L108
 813              	.L89:
 242:C:/Users/stapi/OneDrive/Desktop/GD32VW553/V1_MQTT_OK/GD32VW55X_Wifi_BLE_SDK/GD32VW55x_RELEASE_V1.0.2/MSDK/cloud/alicloud/src/services/linkkit/cm\iotx_cm_mqtt.c ****     utils_time_countdown_ms(&timer, timeout);
 814              		.loc 1 242 5 is_stmt 0 discriminator 2
 815 0176 6800     		addi	a0,sp,12
 816 0178 97000000 		call	iotx_time_init
 816      E7800000 
 817              	.LVL96:
 243:C:/Users/stapi/OneDrive/Desktop/GD32VW553/V1_MQTT_OK/GD32VW55X_Wifi_BLE_SDK/GD32VW55x_RELEASE_V1.0.2/MSDK/cloud/alicloud/src/services/linkkit/cm\iotx_cm_mqtt.c **** 
 818              		.loc 1 243 5 discriminator 2
 819 0180 A285     		mv	a1,s0
 820 0182 6800     		addi	a0,sp,12
 821 0184 13090900 		addi	s2,s2,%lo(.LANCHOR0)
 240:C:/Users/stapi/OneDrive/Desktop/GD32VW553/V1_MQTT_OK/GD32VW55X_Wifi_BLE_SDK/GD32VW55x_RELEASE_V1.0.2/MSDK/cloud/alicloud/src/services/linkkit/cm\iotx_cm_mqtt.c **** 
 822              		.loc 1 240 5 is_stmt 1 discriminator 2
 242:C:/Users/stapi/OneDrive/Desktop/GD32VW553/V1_MQTT_OK/GD32VW55X_Wifi_BLE_SDK/GD32VW55x_RELEASE_V1.0.2/MSDK/cloud/alicloud/src/services/linkkit/cm\iotx_cm_mqtt.c ****     utils_time_countdown_ms(&timer, timeout);
 823              		.loc 1 242 5 discriminator 2
 243:C:/Users/stapi/OneDrive/Desktop/GD32VW553/V1_MQTT_OK/GD32VW55X_Wifi_BLE_SDK/GD32VW55x_RELEASE_V1.0.2/MSDK/cloud/alicloud/src/services/linkkit/cm\iotx_cm_mqtt.c **** 
 824              		.loc 1 243 5 discriminator 2
 825 0188 97000000 		call	utils_time_countdown_ms
 825      E7800000 
 826              	.LVL97:
 219:C:/Users/stapi/OneDrive/Desktop/GD32VW553/V1_MQTT_OK/GD32VW55X_Wifi_BLE_SDK/GD32VW55x_RELEASE_V1.0.2/MSDK/cloud/alicloud/src/services/linkkit/cm\iotx_cm_mqtt.c ****     uint32_t sleep_ms = 0;
 827              		.loc 1 219 14 is_stmt 0 discriminator 2
 828 0190 9309803E 		li	s3,1000
 829              	.LVL98:
 830              	.L92:
 245:C:/Users/stapi/OneDrive/Desktop/GD32VW553/V1_MQTT_OK/GD32VW55X_Wifi_BLE_SDK/GD32VW55x_RELEASE_V1.0.2/MSDK/cloud/alicloud/src/services/linkkit/cm\iotx_cm_mqtt.c ****         int rc = IOT_SetupConnInfo(product_key, device_name, device_secret, (void **)&pconn_info);
 831              		.loc 1 245 5 is_stmt 1
 832              	.LBB21:
 246:C:/Users/stapi/OneDrive/Desktop/GD32VW553/V1_MQTT_OK/GD32VW55X_Wifi_BLE_SDK/GD32VW55x_RELEASE_V1.0.2/MSDK/cloud/alicloud/src/services/linkkit/cm\iotx_cm_mqtt.c ****         if (rc ==  0) {
 833              		.loc 1 246 9
 246:C:/Users/stapi/OneDrive/Desktop/GD32VW553/V1_MQTT_OK/GD32VW55X_Wifi_BLE_SDK/GD32VW55x_RELEASE_V1.0.2/MSDK/cloud/alicloud/src/services/linkkit/cm\iotx_cm_mqtt.c ****         if (rc ==  0) {
 834              		.loc 1 246 18 is_stmt 0
 835 0194 1408     		addi	a3,sp,16
 836 0196 B008     		addi	a2,sp,88
 837 0198 4C18     		addi	a1,sp,52
 838 019a 6808     		addi	a0,sp,28
 839 019c 97000000 		call	IOT_SetupConnInfo
 839      E7800000 
 840              	.LVL99:
 841 01a4 2A84     		mv	s0,a0
 842              	.LVL100:
 247:C:/Users/stapi/OneDrive/Desktop/GD32VW553/V1_MQTT_OK/GD32VW55X_Wifi_BLE_SDK/GD32VW55x_RELEASE_V1.0.2/MSDK/cloud/alicloud/src/services/linkkit/cm\iotx_cm_mqtt.c ****             mqtt_param->port = pconn_info->port;
 843              		.loc 1 247 9 is_stmt 1
 247:C:/Users/stapi/OneDrive/Desktop/GD32VW553/V1_MQTT_OK/GD32VW55X_Wifi_BLE_SDK/GD32VW55x_RELEASE_V1.0.2/MSDK/cloud/alicloud/src/services/linkkit/cm\iotx_cm_mqtt.c ****             mqtt_param->port = pconn_info->port;
 844              		.loc 1 247 12 is_stmt 0
 845 01a6 21E5     		bne	a0,zero,.L90
 248:C:/Users/stapi/OneDrive/Desktop/GD32VW553/V1_MQTT_OK/GD32VW55X_Wifi_BLE_SDK/GD32VW55x_RELEASE_V1.0.2/MSDK/cloud/alicloud/src/services/linkkit/cm\iotx_cm_mqtt.c ****             mqtt_param->host = pconn_info->host_name;
 846              		.loc 1 248 13 is_stmt 1
 248:C:/Users/stapi/OneDrive/Desktop/GD32VW553/V1_MQTT_OK/GD32VW55X_Wifi_BLE_SDK/GD32VW55x_RELEASE_V1.0.2/MSDK/cloud/alicloud/src/services/linkkit/cm\iotx_cm_mqtt.c ****             mqtt_param->host = pconn_info->host_name;
 847              		.loc 1 248 42 is_stmt 0
 848 01a8 C247     		lw	a5,16(sp)
 248:C:/Users/stapi/OneDrive/Desktop/GD32VW553/V1_MQTT_OK/GD32VW55X_Wifi_BLE_SDK/GD32VW55x_RELEASE_V1.0.2/MSDK/cloud/alicloud/src/services/linkkit/cm\iotx_cm_mqtt.c ****             mqtt_param->host = pconn_info->host_name;
 849              		.loc 1 248 30
 850 01aa 03D70700 		lhu	a4,0(a5)
 851 01ae 2390E400 		sh	a4,0(s1)
 249:C:/Users/stapi/OneDrive/Desktop/GD32VW553/V1_MQTT_OK/GD32VW55X_Wifi_BLE_SDK/GD32VW55x_RELEASE_V1.0.2/MSDK/cloud/alicloud/src/services/linkkit/cm\iotx_cm_mqtt.c ****             mqtt_param->client_id = pconn_info->client_id;
 852              		.loc 1 249 13 is_stmt 1
 249:C:/Users/stapi/OneDrive/Desktop/GD32VW553/V1_MQTT_OK/GD32VW55X_Wifi_BLE_SDK/GD32VW55x_RELEASE_V1.0.2/MSDK/cloud/alicloud/src/services/linkkit/cm\iotx_cm_mqtt.c ****             mqtt_param->client_id = pconn_info->client_id;
 853              		.loc 1 249 30 is_stmt 0
 854 01b2 D843     		lw	a4,4(a5)
 855 01b4 D8C0     		sw	a4,4(s1)
 250:C:/Users/stapi/OneDrive/Desktop/GD32VW553/V1_MQTT_OK/GD32VW55X_Wifi_BLE_SDK/GD32VW55x_RELEASE_V1.0.2/MSDK/cloud/alicloud/src/services/linkkit/cm\iotx_cm_mqtt.c ****             mqtt_param->username = pconn_info->username;
 856              		.loc 1 250 13 is_stmt 1
 250:C:/Users/stapi/OneDrive/Desktop/GD32VW553/V1_MQTT_OK/GD32VW55X_Wifi_BLE_SDK/GD32VW55x_RELEASE_V1.0.2/MSDK/cloud/alicloud/src/services/linkkit/cm\iotx_cm_mqtt.c ****             mqtt_param->username = pconn_info->username;
 857              		.loc 1 250 35 is_stmt 0
 858 01b6 9847     		lw	a4,8(a5)
 859 01b8 98C4     		sw	a4,8(s1)
 251:C:/Users/stapi/OneDrive/Desktop/GD32VW553/V1_MQTT_OK/GD32VW55X_Wifi_BLE_SDK/GD32VW55x_RELEASE_V1.0.2/MSDK/cloud/alicloud/src/services/linkkit/cm\iotx_cm_mqtt.c ****             mqtt_param->password = pconn_info->password;
 860              		.loc 1 251 13 is_stmt 1
 251:C:/Users/stapi/OneDrive/Desktop/GD32VW553/V1_MQTT_OK/GD32VW55X_Wifi_BLE_SDK/GD32VW55x_RELEASE_V1.0.2/MSDK/cloud/alicloud/src/services/linkkit/cm\iotx_cm_mqtt.c ****             mqtt_param->password = pconn_info->password;
 861              		.loc 1 251 34 is_stmt 0
 862 01ba D847     		lw	a4,12(a5)
 863 01bc D8C4     		sw	a4,12(s1)
 252:C:/Users/stapi/OneDrive/Desktop/GD32VW553/V1_MQTT_OK/GD32VW55X_Wifi_BLE_SDK/GD32VW55x_RELEASE_V1.0.2/MSDK/cloud/alicloud/src/services/linkkit/cm\iotx_cm_mqtt.c ****             mqtt_param->pub_key = pconn_info->pub_key;
 864              		.loc 1 252 13 is_stmt 1
 252:C:/Users/stapi/OneDrive/Desktop/GD32VW553/V1_MQTT_OK/GD32VW55X_Wifi_BLE_SDK/GD32VW55x_RELEASE_V1.0.2/MSDK/cloud/alicloud/src/services/linkkit/cm\iotx_cm_mqtt.c ****             mqtt_param->pub_key = pconn_info->pub_key;
 865              		.loc 1 252 34 is_stmt 0
 866 01be 984B     		lw	a4,16(a5)
 253:C:/Users/stapi/OneDrive/Desktop/GD32VW553/V1_MQTT_OK/GD32VW55X_Wifi_BLE_SDK/GD32VW55x_RELEASE_V1.0.2/MSDK/cloud/alicloud/src/services/linkkit/cm\iotx_cm_mqtt.c **** 
 867              		.loc 1 253 33
 868 01c0 DC4B     		lw	a5,20(a5)
 252:C:/Users/stapi/OneDrive/Desktop/GD32VW553/V1_MQTT_OK/GD32VW55X_Wifi_BLE_SDK/GD32VW55x_RELEASE_V1.0.2/MSDK/cloud/alicloud/src/services/linkkit/cm\iotx_cm_mqtt.c ****             mqtt_param->pub_key = pconn_info->pub_key;
 869              		.loc 1 252 34
 870 01c2 98C8     		sw	a4,16(s1)
 253:C:/Users/stapi/OneDrive/Desktop/GD32VW553/V1_MQTT_OK/GD32VW55X_Wifi_BLE_SDK/GD32VW55x_RELEASE_V1.0.2/MSDK/cloud/alicloud/src/services/linkkit/cm\iotx_cm_mqtt.c **** 
 871              		.loc 1 253 13 is_stmt 1
 253:C:/Users/stapi/OneDrive/Desktop/GD32VW553/V1_MQTT_OK/GD32VW55X_Wifi_BLE_SDK/GD32VW55x_RELEASE_V1.0.2/MSDK/cloud/alicloud/src/services/linkkit/cm\iotx_cm_mqtt.c **** 
 872              		.loc 1 253 33 is_stmt 0
 873 01c4 DCC8     		sw	a5,20(s1)
 258:C:/Users/stapi/OneDrive/Desktop/GD32VW553/V1_MQTT_OK/GD32VW55X_Wifi_BLE_SDK/GD32VW55x_RELEASE_V1.0.2/MSDK/cloud/alicloud/src/services/linkkit/cm\iotx_cm_mqtt.c **** #ifdef DEV_OFFLINE_LOG_ENABLE
 874              		.loc 1 258 13 is_stmt 1
 258:C:/Users/stapi/OneDrive/Desktop/GD32VW553/V1_MQTT_OK/GD32VW55X_Wifi_BLE_SDK/GD32VW55x_RELEASE_V1.0.2/MSDK/cloud/alicloud/src/services/linkkit/cm\iotx_cm_mqtt.c **** #ifdef DEV_OFFLINE_LOG_ENABLE
 875              		.loc 1 258 80 is_stmt 0
 876 01c6 83270900 		lw	a5,0(s2)
 258:C:/Users/stapi/OneDrive/Desktop/GD32VW553/V1_MQTT_OK/GD32VW55X_Wifi_BLE_SDK/GD32VW55x_RELEASE_V1.0.2/MSDK/cloud/alicloud/src/services/linkkit/cm\iotx_cm_mqtt.c **** #ifdef DEV_OFFLINE_LOG_ENABLE
 877              		.loc 1 258 23
 878 01ca C843     		lw	a0,4(a5)
 879 01cc 97000000 		call	IOT_MQTT_Construct
 879      E7800000 
 880              	.LVL101:
 262:C:/Users/stapi/OneDrive/Desktop/GD32VW553/V1_MQTT_OK/GD32VW55X_Wifi_BLE_SDK/GD32VW55x_RELEASE_V1.0.2/MSDK/cloud/alicloud/src/services/linkkit/cm\iotx_cm_mqtt.c ****                 _mqtt_conncection->context = pclient;
 881              		.loc 1 262 13 is_stmt 1
 262:C:/Users/stapi/OneDrive/Desktop/GD32VW553/V1_MQTT_OK/GD32VW55X_Wifi_BLE_SDK/GD32VW55x_RELEASE_V1.0.2/MSDK/cloud/alicloud/src/services/linkkit/cm\iotx_cm_mqtt.c ****                 _mqtt_conncection->context = pclient;
 882              		.loc 1 262 16 is_stmt 0
 883 01d4 09CD     		beq	a0,zero,.L90
 884              	.LBB22:
 263:C:/Users/stapi/OneDrive/Desktop/GD32VW553/V1_MQTT_OK/GD32VW55X_Wifi_BLE_SDK/GD32VW55x_RELEASE_V1.0.2/MSDK/cloud/alicloud/src/services/linkkit/cm\iotx_cm_mqtt.c ****                 iotx_cm_event_msg_t event;
 885              		.loc 1 263 17 is_stmt 1
 263:C:/Users/stapi/OneDrive/Desktop/GD32VW553/V1_MQTT_OK/GD32VW55X_Wifi_BLE_SDK/GD32VW55x_RELEASE_V1.0.2/MSDK/cloud/alicloud/src/services/linkkit/cm\iotx_cm_mqtt.c ****                 iotx_cm_event_msg_t event;
 886              		.loc 1 263 34 is_stmt 0
 887 01d6 03260900 		lw	a2,0(s2)
 268:C:/Users/stapi/OneDrive/Desktop/GD32VW553/V1_MQTT_OK/GD32VW55X_Wifi_BLE_SDK/GD32VW55x_RELEASE_V1.0.2/MSDK/cloud/alicloud/src/services/linkkit/cm\iotx_cm_mqtt.c ****                     _mqtt_conncection->event_handler(_mqtt_conncection->fd, &event, (void *)_mqtt_c
 888              		.loc 1 268 38
 889 01da 5C56     		lw	a5,44(a2)
 263:C:/Users/stapi/OneDrive/Desktop/GD32VW553/V1_MQTT_OK/GD32VW55X_Wifi_BLE_SDK/GD32VW55x_RELEASE_V1.0.2/MSDK/cloud/alicloud/src/services/linkkit/cm\iotx_cm_mqtt.c ****                 iotx_cm_event_msg_t event;
 890              		.loc 1 263 44
 891 01dc 08C6     		sw	a0,8(a2)
 264:C:/Users/stapi/OneDrive/Desktop/GD32VW553/V1_MQTT_OK/GD32VW55X_Wifi_BLE_SDK/GD32VW55x_RELEASE_V1.0.2/MSDK/cloud/alicloud/src/services/linkkit/cm\iotx_cm_mqtt.c ****                 event.type = IOTX_CM_EVENT_CLOUD_CONNECTED;
 892              		.loc 1 264 17 is_stmt 1
 265:C:/Users/stapi/OneDrive/Desktop/GD32VW553/V1_MQTT_OK/GD32VW55X_Wifi_BLE_SDK/GD32VW55x_RELEASE_V1.0.2/MSDK/cloud/alicloud/src/services/linkkit/cm\iotx_cm_mqtt.c ****                 event.msg = NULL;
 893              		.loc 1 265 17
 265:C:/Users/stapi/OneDrive/Desktop/GD32VW553/V1_MQTT_OK/GD32VW55X_Wifi_BLE_SDK/GD32VW55x_RELEASE_V1.0.2/MSDK/cloud/alicloud/src/services/linkkit/cm\iotx_cm_mqtt.c ****                 event.msg = NULL;
 894              		.loc 1 265 28 is_stmt 0
 895 01de 02CA     		sw	zero,20(sp)
 266:C:/Users/stapi/OneDrive/Desktop/GD32VW553/V1_MQTT_OK/GD32VW55X_Wifi_BLE_SDK/GD32VW55x_RELEASE_V1.0.2/MSDK/cloud/alicloud/src/services/linkkit/cm\iotx_cm_mqtt.c **** 
 896              		.loc 1 266 17 is_stmt 1
 266:C:/Users/stapi/OneDrive/Desktop/GD32VW553/V1_MQTT_OK/GD32VW55X_Wifi_BLE_SDK/GD32VW55x_RELEASE_V1.0.2/MSDK/cloud/alicloud/src/services/linkkit/cm\iotx_cm_mqtt.c **** 
 897              		.loc 1 266 27 is_stmt 0
 898 01e0 02CC     		sw	zero,24(sp)
 268:C:/Users/stapi/OneDrive/Desktop/GD32VW553/V1_MQTT_OK/GD32VW55X_Wifi_BLE_SDK/GD32VW55x_RELEASE_V1.0.2/MSDK/cloud/alicloud/src/services/linkkit/cm\iotx_cm_mqtt.c ****                     _mqtt_conncection->event_handler(_mqtt_conncection->fd, &event, (void *)_mqtt_c
 899              		.loc 1 268 17 is_stmt 1
 268:C:/Users/stapi/OneDrive/Desktop/GD32VW553/V1_MQTT_OK/GD32VW55X_Wifi_BLE_SDK/GD32VW55x_RELEASE_V1.0.2/MSDK/cloud/alicloud/src/services/linkkit/cm\iotx_cm_mqtt.c ****                     _mqtt_conncection->event_handler(_mqtt_conncection->fd, &event, (void *)_mqtt_c
 900              		.loc 1 268 20 is_stmt 0
 901 01e2 E38B07EA 		beq	a5,zero,.L83
 269:C:/Users/stapi/OneDrive/Desktop/GD32VW553/V1_MQTT_OK/GD32VW55X_Wifi_BLE_SDK/GD32VW55x_RELEASE_V1.0.2/MSDK/cloud/alicloud/src/services/linkkit/cm\iotx_cm_mqtt.c ****                 }
 902              		.loc 1 269 21 is_stmt 1
 903 01e6 0842     		lw	a0,0(a2)
 904              	.LVL102:
 905 01e8 4C08     		addi	a1,sp,20
 906 01ea 8297     		jalr	a5
 907              	.LVL103:
 272:C:/Users/stapi/OneDrive/Desktop/GD32VW553/V1_MQTT_OK/GD32VW55X_Wifi_BLE_SDK/GD32VW55x_RELEASE_V1.0.2/MSDK/cloud/alicloud/src/services/linkkit/cm\iotx_cm_mqtt.c ****             }
 908              		.loc 1 272 17
 909 01ec 75B5     		j	.L83
 910              	.L90:
 911              	.LBE22:
 275:C:/Users/stapi/OneDrive/Desktop/GD32VW553/V1_MQTT_OK/GD32VW55X_Wifi_BLE_SDK/GD32VW55x_RELEASE_V1.0.2/MSDK/cloud/alicloud/src/services/linkkit/cm\iotx_cm_mqtt.c ****         sleep_ms = interval_ms + HAL_Random(BASE_INTERVAL_TIME_MS);
 912              		.loc 1 275 9
 275:C:/Users/stapi/OneDrive/Desktop/GD32VW553/V1_MQTT_OK/GD32VW55X_Wifi_BLE_SDK/GD32VW55x_RELEASE_V1.0.2/MSDK/cloud/alicloud/src/services/linkkit/cm\iotx_cm_mqtt.c ****         sleep_ms = interval_ms + HAL_Random(BASE_INTERVAL_TIME_MS);
 913              		.loc 1 275 31 is_stmt 0
 914 01ee 97000000 		call	HAL_UptimeMs
 914      E7800000 
 915              	.LVL104:
 275:C:/Users/stapi/OneDrive/Desktop/GD32VW553/V1_MQTT_OK/GD32VW55X_Wifi_BLE_SDK/GD32VW55x_RELEASE_V1.0.2/MSDK/cloud/alicloud/src/services/linkkit/cm\iotx_cm_mqtt.c ****         sleep_ms = interval_ms + HAL_Random(BASE_INTERVAL_TIME_MS);
 916              		.loc 1 275 9
 917 01f6 97000000 		call	HAL_Srandom
 917      E7800000 
 918              	.LVL105:
 276:C:/Users/stapi/OneDrive/Desktop/GD32VW553/V1_MQTT_OK/GD32VW55X_Wifi_BLE_SDK/GD32VW55x_RELEASE_V1.0.2/MSDK/cloud/alicloud/src/services/linkkit/cm\iotx_cm_mqtt.c ****         HAL_SleepMs(sleep_ms);
 919              		.loc 1 276 9 is_stmt 1
 276:C:/Users/stapi/OneDrive/Desktop/GD32VW553/V1_MQTT_OK/GD32VW55X_Wifi_BLE_SDK/GD32VW55x_RELEASE_V1.0.2/MSDK/cloud/alicloud/src/services/linkkit/cm\iotx_cm_mqtt.c ****         HAL_SleepMs(sleep_ms);
 920              		.loc 1 276 34 is_stmt 0
 921 01fe 1305803E 		li	a0,1000
 922 0202 97000000 		call	HAL_Random
 922      E7800000 
 923              	.LVL106:
 277:C:/Users/stapi/OneDrive/Desktop/GD32VW553/V1_MQTT_OK/GD32VW55X_Wifi_BLE_SDK/GD32VW55x_RELEASE_V1.0.2/MSDK/cloud/alicloud/src/services/linkkit/cm\iotx_cm_mqtt.c ****         interval_ms *= 2;
 924              		.loc 1 277 9 is_stmt 1
 925 020a 4E95     		add	a0,a0,s3
 926              	.LVL107:
 927 020c 97000000 		call	HAL_SleepMs
 927      E7800000 
 928              	.LVL108:
 278:C:/Users/stapi/OneDrive/Desktop/GD32VW553/V1_MQTT_OK/GD32VW55X_Wifi_BLE_SDK/GD32VW55x_RELEASE_V1.0.2/MSDK/cloud/alicloud/src/services/linkkit/cm\iotx_cm_mqtt.c ****     } while (!utils_time_is_expired(&timer));
 929              		.loc 1 278 9
 930              	.LBE21:
 279:C:/Users/stapi/OneDrive/Desktop/GD32VW553/V1_MQTT_OK/GD32VW55X_Wifi_BLE_SDK/GD32VW55x_RELEASE_V1.0.2/MSDK/cloud/alicloud/src/services/linkkit/cm\iotx_cm_mqtt.c **** 
 931              		.loc 1 279 15 is_stmt 0
 932 0214 6800     		addi	a0,sp,12
 933              	.LBB23:
 278:C:/Users/stapi/OneDrive/Desktop/GD32VW553/V1_MQTT_OK/GD32VW55X_Wifi_BLE_SDK/GD32VW55x_RELEASE_V1.0.2/MSDK/cloud/alicloud/src/services/linkkit/cm\iotx_cm_mqtt.c ****     } while (!utils_time_is_expired(&timer));
 934              		.loc 1 278 21
 935 0216 8609     		slli	s3,s3,1
 936              	.LVL109:
 937              	.LBE23:
 279:C:/Users/stapi/OneDrive/Desktop/GD32VW553/V1_MQTT_OK/GD32VW55X_Wifi_BLE_SDK/GD32VW55x_RELEASE_V1.0.2/MSDK/cloud/alicloud/src/services/linkkit/cm\iotx_cm_mqtt.c **** 
 938              		.loc 1 279 13 is_stmt 1
 279:C:/Users/stapi/OneDrive/Desktop/GD32VW553/V1_MQTT_OK/GD32VW55X_Wifi_BLE_SDK/GD32VW55x_RELEASE_V1.0.2/MSDK/cloud/alicloud/src/services/linkkit/cm\iotx_cm_mqtt.c **** 
 939              		.loc 1 279 15 is_stmt 0
 940 0218 97000000 		call	utils_time_is_expired
 940      E7800000 
 941              	.LVL110:
 279:C:/Users/stapi/OneDrive/Desktop/GD32VW553/V1_MQTT_OK/GD32VW55X_Wifi_BLE_SDK/GD32VW55x_RELEASE_V1.0.2/MSDK/cloud/alicloud/src/services/linkkit/cm\iotx_cm_mqtt.c **** 
 942              		.loc 1 279 5
 943 0220 35D9     		beq	a0,zero,.L92
 281:C:/Users/stapi/OneDrive/Desktop/GD32VW553/V1_MQTT_OK/GD32VW55X_Wifi_BLE_SDK/GD32VW55x_RELEASE_V1.0.2/MSDK/cloud/alicloud/src/services/linkkit/cm\iotx_cm_mqtt.c ****     event.type = IOTX_CM_EVENT_CLOUD_CONNECT_FAILED;
 944              		.loc 1 281 5 is_stmt 1
 282:C:/Users/stapi/OneDrive/Desktop/GD32VW553/V1_MQTT_OK/GD32VW55X_Wifi_BLE_SDK/GD32VW55x_RELEASE_V1.0.2/MSDK/cloud/alicloud/src/services/linkkit/cm\iotx_cm_mqtt.c ****     event.msg = NULL;
 945              		.loc 1 282 5
 285:C:/Users/stapi/OneDrive/Desktop/GD32VW553/V1_MQTT_OK/GD32VW55X_Wifi_BLE_SDK/GD32VW55x_RELEASE_V1.0.2/MSDK/cloud/alicloud/src/services/linkkit/cm\iotx_cm_mqtt.c ****         _mqtt_conncection->event_handler(_mqtt_conncection->fd, &event, (void *)_mqtt_conncection);
 946              		.loc 1 285 26 is_stmt 0
 947 0222 03260900 		lw	a2,0(s2)
 282:C:/Users/stapi/OneDrive/Desktop/GD32VW553/V1_MQTT_OK/GD32VW55X_Wifi_BLE_SDK/GD32VW55x_RELEASE_V1.0.2/MSDK/cloud/alicloud/src/services/linkkit/cm\iotx_cm_mqtt.c ****     event.msg = NULL;
 948              		.loc 1 282 16
 949 0226 8547     		li	a5,1
 950 0228 3ECA     		sw	a5,20(sp)
 283:C:/Users/stapi/OneDrive/Desktop/GD32VW553/V1_MQTT_OK/GD32VW55X_Wifi_BLE_SDK/GD32VW55x_RELEASE_V1.0.2/MSDK/cloud/alicloud/src/services/linkkit/cm\iotx_cm_mqtt.c **** 
 951              		.loc 1 283 5 is_stmt 1
 285:C:/Users/stapi/OneDrive/Desktop/GD32VW553/V1_MQTT_OK/GD32VW55X_Wifi_BLE_SDK/GD32VW55x_RELEASE_V1.0.2/MSDK/cloud/alicloud/src/services/linkkit/cm\iotx_cm_mqtt.c ****         _mqtt_conncection->event_handler(_mqtt_conncection->fd, &event, (void *)_mqtt_conncection);
 952              		.loc 1 285 26 is_stmt 0
 953 022a 5C56     		lw	a5,44(a2)
 283:C:/Users/stapi/OneDrive/Desktop/GD32VW553/V1_MQTT_OK/GD32VW55X_Wifi_BLE_SDK/GD32VW55x_RELEASE_V1.0.2/MSDK/cloud/alicloud/src/services/linkkit/cm\iotx_cm_mqtt.c **** 
 954              		.loc 1 283 15
 955 022c 02CC     		sw	zero,24(sp)
 285:C:/Users/stapi/OneDrive/Desktop/GD32VW553/V1_MQTT_OK/GD32VW55X_Wifi_BLE_SDK/GD32VW55x_RELEASE_V1.0.2/MSDK/cloud/alicloud/src/services/linkkit/cm\iotx_cm_mqtt.c ****         _mqtt_conncection->event_handler(_mqtt_conncection->fd, &event, (void *)_mqtt_conncection);
 956              		.loc 1 285 5 is_stmt 1
 285:C:/Users/stapi/OneDrive/Desktop/GD32VW553/V1_MQTT_OK/GD32VW55X_Wifi_BLE_SDK/GD32VW55x_RELEASE_V1.0.2/MSDK/cloud/alicloud/src/services/linkkit/cm\iotx_cm_mqtt.c ****         _mqtt_conncection->event_handler(_mqtt_conncection->fd, &event, (void *)_mqtt_conncection);
 957              		.loc 1 285 8 is_stmt 0
 958 022e 81C7     		beq	a5,zero,.L93
 286:C:/Users/stapi/OneDrive/Desktop/GD32VW553/V1_MQTT_OK/GD32VW55X_Wifi_BLE_SDK/GD32VW55x_RELEASE_V1.0.2/MSDK/cloud/alicloud/src/services/linkkit/cm\iotx_cm_mqtt.c ****     }
 959              		.loc 1 286 9 is_stmt 1
 960 0230 0842     		lw	a0,0(a2)
 961 0232 4C08     		addi	a1,sp,20
 962 0234 8297     		jalr	a5
 963              	.LVL111:
 964              	.L93:
 288:C:/Users/stapi/OneDrive/Desktop/GD32VW553/V1_MQTT_OK/GD32VW55X_Wifi_BLE_SDK/GD32VW55x_RELEASE_V1.0.2/MSDK/cloud/alicloud/src/services/linkkit/cm\iotx_cm_mqtt.c **** 
 965              		.loc 1 288 5
 288:C:/Users/stapi/OneDrive/Desktop/GD32VW553/V1_MQTT_OK/GD32VW55X_Wifi_BLE_SDK/GD32VW55x_RELEASE_V1.0.2/MSDK/cloud/alicloud/src/services/linkkit/cm\iotx_cm_mqtt.c **** 
 966              		.loc 1 288 5
 967 0236 37050000 		lui	a0,%hi(.LC4)
 968 023a 13050500 		addi	a0,a0,%lo(.LC4)
 969 023e 97000000 		call	HAL_Printf
 969      E7800000 
 970              	.LVL112:
 288:C:/Users/stapi/OneDrive/Desktop/GD32VW553/V1_MQTT_OK/GD32VW55X_Wifi_BLE_SDK/GD32VW55x_RELEASE_V1.0.2/MSDK/cloud/alicloud/src/services/linkkit/cm\iotx_cm_mqtt.c **** 
 971              		.loc 1 288 5
 972 0246 37050000 		lui	a0,%hi(.LC19)
 973 024a 13050500 		addi	a0,a0,%lo(.LC19)
 974 024e 97000000 		call	HAL_Printf
 974      E7800000 
 975              	.LVL113:
 976 0256 F1B5     		j	.L106
 977              		.cfi_endproc
 978              	.LFE22:
 980              		.section	.text._mqtt_close,"ax",@progbits
 981              		.align	1
 983              	_mqtt_close:
 984              	.LFB27:
 367:C:/Users/stapi/OneDrive/Desktop/GD32VW553/V1_MQTT_OK/GD32VW55X_Wifi_BLE_SDK/GD32VW55x_RELEASE_V1.0.2/MSDK/cloud/alicloud/src/services/linkkit/cm\iotx_cm_mqtt.c ****     POINTER_SANITY_CHECK(_mqtt_conncection, NULL_VALUE_ERROR);
 985              		.loc 1 367 1
 986              		.cfi_startproc
 987 0000 17030000 		call	t0,__riscv_save_1
 987      E7020300 
 988              		.cfi_offset 8, -8
 989              		.cfi_offset 1, -4
 990              		.cfi_def_cfa_offset 16
 368:C:/Users/stapi/OneDrive/Desktop/GD32VW553/V1_MQTT_OK/GD32VW55X_Wifi_BLE_SDK/GD32VW55x_RELEASE_V1.0.2/MSDK/cloud/alicloud/src/services/linkkit/cm\iotx_cm_mqtt.c **** 
 991              		.loc 1 368 5
 368:C:/Users/stapi/OneDrive/Desktop/GD32VW553/V1_MQTT_OK/GD32VW55X_Wifi_BLE_SDK/GD32VW55x_RELEASE_V1.0.2/MSDK/cloud/alicloud/src/services/linkkit/cm\iotx_cm_mqtt.c **** 
 992              		.loc 1 368 5
 993 0008 37040000 		lui	s0,%hi(.LANCHOR0)
 994 000c 13040400 		addi	s0,s0,%lo(.LANCHOR0)
 995 0010 1C40     		lw	a5,0(s0)
 996 0012 B9E3     		bne	a5,zero,.L110
 997              	.LBB26:
 998              	.LBB27:
 368:C:/Users/stapi/OneDrive/Desktop/GD32VW553/V1_MQTT_OK/GD32VW55X_Wifi_BLE_SDK/GD32VW55x_RELEASE_V1.0.2/MSDK/cloud/alicloud/src/services/linkkit/cm\iotx_cm_mqtt.c **** 
 999              		.loc 1 368 5
 368:C:/Users/stapi/OneDrive/Desktop/GD32VW553/V1_MQTT_OK/GD32VW55X_Wifi_BLE_SDK/GD32VW55x_RELEASE_V1.0.2/MSDK/cloud/alicloud/src/services/linkkit/cm\iotx_cm_mqtt.c **** 
 1000              		.loc 1 368 5
 1001 0014 37050000 		lui	a0,%hi(.LC4)
 1002 0018 13050500 		addi	a0,a0,%lo(.LC4)
 1003 001c 97000000 		call	HAL_Printf
 1003      E7800000 
 1004              	.LVL114:
 368:C:/Users/stapi/OneDrive/Desktop/GD32VW553/V1_MQTT_OK/GD32VW55X_Wifi_BLE_SDK/GD32VW55x_RELEASE_V1.0.2/MSDK/cloud/alicloud/src/services/linkkit/cm\iotx_cm_mqtt.c **** 
 1005              		.loc 1 368 5
 1006 0024 1040     		lw	a2,0(s0)
 1007 0026 B7050000 		lui	a1,%hi(.LC10)
 1008 002a 37050000 		lui	a0,%hi(.LC11)
 1009 002e 93850500 		addi	a1,a1,%lo(.LC10)
 1010 0032 13050500 		addi	a0,a0,%lo(.LC11)
 1011 0036 97000000 		call	HAL_Printf
 1011      E7800000 
 1012              	.LVL115:
 368:C:/Users/stapi/OneDrive/Desktop/GD32VW553/V1_MQTT_OK/GD32VW55X_Wifi_BLE_SDK/GD32VW55x_RELEASE_V1.0.2/MSDK/cloud/alicloud/src/services/linkkit/cm\iotx_cm_mqtt.c **** 
 1013              		.loc 1 368 5
 1014 003e 37050000 		lui	a0,%hi(.LC2)
 1015 0042 13050500 		addi	a0,a0,%lo(.LC2)
 1016 0046 97000000 		call	HAL_Printf
 1016      E7800000 
 1017              	.LVL116:
 368:C:/Users/stapi/OneDrive/Desktop/GD32VW553/V1_MQTT_OK/GD32VW55X_Wifi_BLE_SDK/GD32VW55x_RELEASE_V1.0.2/MSDK/cloud/alicloud/src/services/linkkit/cm\iotx_cm_mqtt.c **** 
 1018              		.loc 1 368 5
 368:C:/Users/stapi/OneDrive/Desktop/GD32VW553/V1_MQTT_OK/GD32VW55X_Wifi_BLE_SDK/GD32VW55x_RELEASE_V1.0.2/MSDK/cloud/alicloud/src/services/linkkit/cm\iotx_cm_mqtt.c **** 
 1019              		.loc 1 368 5
 1020 004e 7955     		li	a0,-2
 1021              	.L109:
 1022              	.LBE27:
 1023              	.LBE26:
 375:C:/Users/stapi/OneDrive/Desktop/GD32VW553/V1_MQTT_OK/GD32VW55X_Wifi_BLE_SDK/GD32VW55x_RELEASE_V1.0.2/MSDK/cloud/alicloud/src/services/linkkit/cm\iotx_cm_mqtt.c **** 
 1024              		.loc 1 375 1 is_stmt 0
 1025 0050 17030000 		tail	__riscv_restore_1
 1025      67000300 
 1026              		.cfi_remember_state
 1027              		.cfi_restore 8
 1028              		.cfi_restore 1
 1029              		.cfi_def_cfa_offset 0
 1030              	.L110:
 1031              		.cfi_restore_state
 368:C:/Users/stapi/OneDrive/Desktop/GD32VW553/V1_MQTT_OK/GD32VW55X_Wifi_BLE_SDK/GD32VW55x_RELEASE_V1.0.2/MSDK/cloud/alicloud/src/services/linkkit/cm\iotx_cm_mqtt.c **** 
 1032              		.loc 1 368 5 is_stmt 1 discriminator 2
 370:C:/Users/stapi/OneDrive/Desktop/GD32VW553/V1_MQTT_OK/GD32VW55X_Wifi_BLE_SDK/GD32VW55x_RELEASE_V1.0.2/MSDK/cloud/alicloud/src/services/linkkit/cm\iotx_cm_mqtt.c ****     IOT_MQTT_Destroy(&_mqtt_conncection->context);
 1033              		.loc 1 370 5 discriminator 2
 1034 0058 C843     		lw	a0,4(a5)
 1035 005a 97000000 		call	LITE_free_internal
 1035      E7800000 
 1036              	.LVL117:
 371:C:/Users/stapi/OneDrive/Desktop/GD32VW553/V1_MQTT_OK/GD32VW55X_Wifi_BLE_SDK/GD32VW55x_RELEASE_V1.0.2/MSDK/cloud/alicloud/src/services/linkkit/cm\iotx_cm_mqtt.c ****     cm_free(_mqtt_conncection);
 1037              		.loc 1 371 5 discriminator 2
 1038 0062 0840     		lw	a0,0(s0)
 1039 0064 2105     		addi	a0,a0,8
 1040 0066 97000000 		call	IOT_MQTT_Destroy
 1040      E7800000 
 1041              	.LVL118:
 372:C:/Users/stapi/OneDrive/Desktop/GD32VW553/V1_MQTT_OK/GD32VW55X_Wifi_BLE_SDK/GD32VW55x_RELEASE_V1.0.2/MSDK/cloud/alicloud/src/services/linkkit/cm\iotx_cm_mqtt.c ****     _mqtt_conncection = NULL;
 1042              		.loc 1 372 5 discriminator 2
 1043 006e 0840     		lw	a0,0(s0)
 1044 0070 97000000 		call	LITE_free_internal
 1044      E7800000 
 1045              	.LVL119:
 373:C:/Users/stapi/OneDrive/Desktop/GD32VW553/V1_MQTT_OK/GD32VW55X_Wifi_BLE_SDK/GD32VW55x_RELEASE_V1.0.2/MSDK/cloud/alicloud/src/services/linkkit/cm\iotx_cm_mqtt.c ****     return 0;
 1046              		.loc 1 373 5 discriminator 2
 374:C:/Users/stapi/OneDrive/Desktop/GD32VW553/V1_MQTT_OK/GD32VW55X_Wifi_BLE_SDK/GD32VW55x_RELEASE_V1.0.2/MSDK/cloud/alicloud/src/services/linkkit/cm\iotx_cm_mqtt.c **** }
 1047              		.loc 1 374 12 is_stmt 0 discriminator 2
 1048 0078 0145     		li	a0,0
 373:C:/Users/stapi/OneDrive/Desktop/GD32VW553/V1_MQTT_OK/GD32VW55X_Wifi_BLE_SDK/GD32VW55x_RELEASE_V1.0.2/MSDK/cloud/alicloud/src/services/linkkit/cm\iotx_cm_mqtt.c ****     return 0;
 1049              		.loc 1 373 23 discriminator 2
 1050 007a 23200400 		sw	zero,0(s0)
 374:C:/Users/stapi/OneDrive/Desktop/GD32VW553/V1_MQTT_OK/GD32VW55X_Wifi_BLE_SDK/GD32VW55x_RELEASE_V1.0.2/MSDK/cloud/alicloud/src/services/linkkit/cm\iotx_cm_mqtt.c **** }
 1051              		.loc 1 374 5 is_stmt 1 discriminator 2
 374:C:/Users/stapi/OneDrive/Desktop/GD32VW553/V1_MQTT_OK/GD32VW55X_Wifi_BLE_SDK/GD32VW55x_RELEASE_V1.0.2/MSDK/cloud/alicloud/src/services/linkkit/cm\iotx_cm_mqtt.c **** }
 1052              		.loc 1 374 12 is_stmt 0 discriminator 2
 1053 007e C9BF     		j	.L109
 1054              		.cfi_endproc
 1055              	.LFE27:
 1057              		.section	.text._mqtt_yield.part.0,"ax",@progbits
 1058              		.align	1
 1060              	_mqtt_yield.part.0:
 1061              	.LFB31:
 305:C:/Users/stapi/OneDrive/Desktop/GD32VW553/V1_MQTT_OK/GD32VW55X_Wifi_BLE_SDK/GD32VW55x_RELEASE_V1.0.2/MSDK/cloud/alicloud/src/services/linkkit/cm\iotx_cm_mqtt.c **** {
 1062              		.loc 1 305 12 is_stmt 1
 1063              		.cfi_startproc
 1064 0000 17030000 		call	t0,__riscv_save_0
 1064      E7020300 
 1065              		.cfi_offset 1, -4
 1066              		.cfi_def_cfa_offset 16
 1067              	.LVL120:
 307:C:/Users/stapi/OneDrive/Desktop/GD32VW553/V1_MQTT_OK/GD32VW55X_Wifi_BLE_SDK/GD32VW55x_RELEASE_V1.0.2/MSDK/cloud/alicloud/src/services/linkkit/cm\iotx_cm_mqtt.c **** 
 1068              		.loc 1 307 5
 307:C:/Users/stapi/OneDrive/Desktop/GD32VW553/V1_MQTT_OK/GD32VW55X_Wifi_BLE_SDK/GD32VW55x_RELEASE_V1.0.2/MSDK/cloud/alicloud/src/services/linkkit/cm\iotx_cm_mqtt.c **** 
 1069              		.loc 1 307 5
 1070 0008 37050000 		lui	a0,%hi(.LC4)
 1071 000c 13050500 		addi	a0,a0,%lo(.LC4)
 1072 0010 97000000 		call	HAL_Printf
 1072      E7800000 
 1073              	.LVL121:
 307:C:/Users/stapi/OneDrive/Desktop/GD32VW553/V1_MQTT_OK/GD32VW55X_Wifi_BLE_SDK/GD32VW55x_RELEASE_V1.0.2/MSDK/cloud/alicloud/src/services/linkkit/cm\iotx_cm_mqtt.c **** 
 1074              		.loc 1 307 5
 1075 0018 B7070000 		lui	a5,%hi(.LANCHOR0)
 1076 001c 03A60700 		lw	a2,%lo(.LANCHOR0)(a5)
 1077 0020 B7050000 		lui	a1,%hi(.LC10)
 1078 0024 37050000 		lui	a0,%hi(.LC11)
 1079 0028 93850500 		addi	a1,a1,%lo(.LC10)
 1080 002c 13050500 		addi	a0,a0,%lo(.LC11)
 1081 0030 97000000 		call	HAL_Printf
 1081      E7800000 
 1082              	.LVL122:
 307:C:/Users/stapi/OneDrive/Desktop/GD32VW553/V1_MQTT_OK/GD32VW55X_Wifi_BLE_SDK/GD32VW55x_RELEASE_V1.0.2/MSDK/cloud/alicloud/src/services/linkkit/cm\iotx_cm_mqtt.c **** 
 1083              		.loc 1 307 5
 1084 0038 37050000 		lui	a0,%hi(.LC2)
 1085 003c 13050500 		addi	a0,a0,%lo(.LC2)
 1086 0040 97000000 		call	HAL_Printf
 1086      E7800000 
 1087              	.LVL123:
 307:C:/Users/stapi/OneDrive/Desktop/GD32VW553/V1_MQTT_OK/GD32VW55X_Wifi_BLE_SDK/GD32VW55x_RELEASE_V1.0.2/MSDK/cloud/alicloud/src/services/linkkit/cm\iotx_cm_mqtt.c **** 
 1088              		.loc 1 307 5
 307:C:/Users/stapi/OneDrive/Desktop/GD32VW553/V1_MQTT_OK/GD32VW55X_Wifi_BLE_SDK/GD32VW55x_RELEASE_V1.0.2/MSDK/cloud/alicloud/src/services/linkkit/cm\iotx_cm_mqtt.c **** 
 1089              		.loc 1 307 5
 310:C:/Users/stapi/OneDrive/Desktop/GD32VW553/V1_MQTT_OK/GD32VW55X_Wifi_BLE_SDK/GD32VW55x_RELEASE_V1.0.2/MSDK/cloud/alicloud/src/services/linkkit/cm\iotx_cm_mqtt.c **** 
 1090              		.loc 1 310 1 is_stmt 0
 1091 0048 7955     		li	a0,-2
 1092 004a 17030000 		tail	__riscv_restore_0
 1092      67000300 
 1093              		.cfi_restore 1
 1094              		.cfi_def_cfa_offset 0
 1095              		.cfi_endproc
 1096              	.LFE31:
 1098              		.set	_mqtt_unsub.part.0,_mqtt_yield.part.0
 1099              		.set	_mqtt_publish.part.0,_mqtt_yield.part.0
 1100              		.section	.text._mqtt_yield,"ax",@progbits
 1101              		.align	1
 1103              	_mqtt_yield:
 1104              	.LFB24:
 306:C:/Users/stapi/OneDrive/Desktop/GD32VW553/V1_MQTT_OK/GD32VW55X_Wifi_BLE_SDK/GD32VW55x_RELEASE_V1.0.2/MSDK/cloud/alicloud/src/services/linkkit/cm\iotx_cm_mqtt.c ****     POINTER_SANITY_CHECK(_mqtt_conncection, NULL_VALUE_ERROR);
 1105              		.loc 1 306 1 is_stmt 1
 1106              		.cfi_startproc
 1107              	.LVL124:
 1108 0000 17030000 		call	t0,__riscv_save_0
 1108      E7020300 
 1109              		.cfi_offset 1, -4
 1110              		.cfi_def_cfa_offset 16
 307:C:/Users/stapi/OneDrive/Desktop/GD32VW553/V1_MQTT_OK/GD32VW55X_Wifi_BLE_SDK/GD32VW55x_RELEASE_V1.0.2/MSDK/cloud/alicloud/src/services/linkkit/cm\iotx_cm_mqtt.c **** 
 1111              		.loc 1 307 5
 307:C:/Users/stapi/OneDrive/Desktop/GD32VW553/V1_MQTT_OK/GD32VW55X_Wifi_BLE_SDK/GD32VW55x_RELEASE_V1.0.2/MSDK/cloud/alicloud/src/services/linkkit/cm\iotx_cm_mqtt.c **** 
 1112              		.loc 1 307 5
 1113 0008 B7070000 		lui	a5,%hi(.LANCHOR0)
 1114 000c 83A70700 		lw	a5,%lo(.LANCHOR0)(a5)
 1115 0010 89EB     		bne	a5,zero,.L116
 1116 0012 97000000 		call	_mqtt_yield.part.0
 1116      E7800000 
 1117              	.LVL125:
 1118              	.L115:
 310:C:/Users/stapi/OneDrive/Desktop/GD32VW553/V1_MQTT_OK/GD32VW55X_Wifi_BLE_SDK/GD32VW55x_RELEASE_V1.0.2/MSDK/cloud/alicloud/src/services/linkkit/cm\iotx_cm_mqtt.c **** 
 1119              		.loc 1 310 1 is_stmt 0
 1120 001a 17030000 		tail	__riscv_restore_0
 1120      67000300 
 1121              		.cfi_remember_state
 1122              		.cfi_restore 1
 1123              		.cfi_def_cfa_offset 0
 1124              	.LVL126:
 1125              	.L116:
 1126              		.cfi_restore_state
 1127 0022 AA85     		mv	a1,a0
 307:C:/Users/stapi/OneDrive/Desktop/GD32VW553/V1_MQTT_OK/GD32VW55X_Wifi_BLE_SDK/GD32VW55x_RELEASE_V1.0.2/MSDK/cloud/alicloud/src/services/linkkit/cm\iotx_cm_mqtt.c **** 
 1128              		.loc 1 307 5 is_stmt 1 discriminator 2
 309:C:/Users/stapi/OneDrive/Desktop/GD32VW553/V1_MQTT_OK/GD32VW55X_Wifi_BLE_SDK/GD32VW55x_RELEASE_V1.0.2/MSDK/cloud/alicloud/src/services/linkkit/cm\iotx_cm_mqtt.c **** }
 1129              		.loc 1 309 5 discriminator 2
 309:C:/Users/stapi/OneDrive/Desktop/GD32VW553/V1_MQTT_OK/GD32VW55X_Wifi_BLE_SDK/GD32VW55x_RELEASE_V1.0.2/MSDK/cloud/alicloud/src/services/linkkit/cm\iotx_cm_mqtt.c **** }
 1130              		.loc 1 309 12 is_stmt 0 discriminator 2
 1131 0024 8847     		lw	a0,8(a5)
 1132              	.LVL127:
 1133 0026 97000000 		call	IOT_MQTT_Yield
 1133      E7800000 
 1134              	.LVL128:
 1135 002e F5B7     		j	.L115
 1136              		.cfi_endproc
 1137              	.LFE24:
 1139              		.section	.text._mqtt_unsub,"ax",@progbits
 1140              		.align	1
 1142              	_mqtt_unsub:
 1143              	.LFB26:
 354:C:/Users/stapi/OneDrive/Desktop/GD32VW553/V1_MQTT_OK/GD32VW55X_Wifi_BLE_SDK/GD32VW55x_RELEASE_V1.0.2/MSDK/cloud/alicloud/src/services/linkkit/cm\iotx_cm_mqtt.c ****     int ret;
 1144              		.loc 1 354 1 is_stmt 1
 1145              		.cfi_startproc
 1146              	.LVL129:
 1147 0000 17030000 		call	t0,__riscv_save_0
 1147      E7020300 
 1148              		.cfi_offset 1, -4
 1149              		.cfi_def_cfa_offset 16
 355:C:/Users/stapi/OneDrive/Desktop/GD32VW553/V1_MQTT_OK/GD32VW55X_Wifi_BLE_SDK/GD32VW55x_RELEASE_V1.0.2/MSDK/cloud/alicloud/src/services/linkkit/cm\iotx_cm_mqtt.c ****     POINTER_SANITY_CHECK(_mqtt_conncection, NULL_VALUE_ERROR);
 1150              		.loc 1 355 5
 356:C:/Users/stapi/OneDrive/Desktop/GD32VW553/V1_MQTT_OK/GD32VW55X_Wifi_BLE_SDK/GD32VW55x_RELEASE_V1.0.2/MSDK/cloud/alicloud/src/services/linkkit/cm\iotx_cm_mqtt.c ****     ret = IOT_MQTT_Unsubscribe(_mqtt_conncection->context, topic);
 1151              		.loc 1 356 5
 356:C:/Users/stapi/OneDrive/Desktop/GD32VW553/V1_MQTT_OK/GD32VW55X_Wifi_BLE_SDK/GD32VW55x_RELEASE_V1.0.2/MSDK/cloud/alicloud/src/services/linkkit/cm\iotx_cm_mqtt.c ****     ret = IOT_MQTT_Unsubscribe(_mqtt_conncection->context, topic);
 1152              		.loc 1 356 5
 1153 0008 B7070000 		lui	a5,%hi(.LANCHOR0)
 1154 000c 83A70700 		lw	a5,%lo(.LANCHOR0)(a5)
 1155 0010 89EB     		bne	a5,zero,.L120
 1156 0012 97000000 		call	_mqtt_unsub.part.0
 1156      E7800000 
 1157              	.LVL130:
 1158              	.L119:
 364:C:/Users/stapi/OneDrive/Desktop/GD32VW553/V1_MQTT_OK/GD32VW55X_Wifi_BLE_SDK/GD32VW55x_RELEASE_V1.0.2/MSDK/cloud/alicloud/src/services/linkkit/cm\iotx_cm_mqtt.c **** 
 1159              		.loc 1 364 1 is_stmt 0
 1160 001a 17030000 		tail	__riscv_restore_0
 1160      67000300 
 1161              		.cfi_remember_state
 1162              		.cfi_restore 1
 1163              		.cfi_def_cfa_offset 0
 1164              	.LVL131:
 1165              	.L120:
 1166              		.cfi_restore_state
 1167 0022 AA85     		mv	a1,a0
 356:C:/Users/stapi/OneDrive/Desktop/GD32VW553/V1_MQTT_OK/GD32VW55X_Wifi_BLE_SDK/GD32VW55x_RELEASE_V1.0.2/MSDK/cloud/alicloud/src/services/linkkit/cm\iotx_cm_mqtt.c ****     ret = IOT_MQTT_Unsubscribe(_mqtt_conncection->context, topic);
 1168              		.loc 1 356 5 is_stmt 1 discriminator 2
 357:C:/Users/stapi/OneDrive/Desktop/GD32VW553/V1_MQTT_OK/GD32VW55X_Wifi_BLE_SDK/GD32VW55x_RELEASE_V1.0.2/MSDK/cloud/alicloud/src/services/linkkit/cm\iotx_cm_mqtt.c **** 
 1169              		.loc 1 357 5 discriminator 2
 357:C:/Users/stapi/OneDrive/Desktop/GD32VW553/V1_MQTT_OK/GD32VW55X_Wifi_BLE_SDK/GD32VW55x_RELEASE_V1.0.2/MSDK/cloud/alicloud/src/services/linkkit/cm\iotx_cm_mqtt.c **** 
 1170              		.loc 1 357 11 is_stmt 0 discriminator 2
 1171 0024 8847     		lw	a0,8(a5)
 1172              	.LVL132:
 1173 0026 97000000 		call	IOT_MQTT_Unsubscribe
 1173      E7800000 
 1174              	.LVL133:
 359:C:/Users/stapi/OneDrive/Desktop/GD32VW553/V1_MQTT_OK/GD32VW55X_Wifi_BLE_SDK/GD32VW55x_RELEASE_V1.0.2/MSDK/cloud/alicloud/src/services/linkkit/cm\iotx_cm_mqtt.c ****         return -1;
 1175              		.loc 1 359 5 is_stmt 1 discriminator 2
 1176 002e FD57     		li	a5,-1
 1177 0030 3365F50A 		max	a0,a0,a5
 1178              	.LVL134:
 1179 0034 DDB7     		j	.L119
 1180              		.cfi_endproc
 1181              	.LFE26:
 1183              		.section	.text._mqtt_publish,"ax",@progbits
 1184              		.align	1
 1186              	_mqtt_publish:
 1187              	.LFB23:
 294:C:/Users/stapi/OneDrive/Desktop/GD32VW553/V1_MQTT_OK/GD32VW55X_Wifi_BLE_SDK/GD32VW55x_RELEASE_V1.0.2/MSDK/cloud/alicloud/src/services/linkkit/cm\iotx_cm_mqtt.c ****     int qos = 0;
 1188              		.loc 1 294 1
 1189              		.cfi_startproc
 1190              	.LVL135:
 1191 0000 17030000 		call	t0,__riscv_save_0
 1191      E7020300 
 1192              		.cfi_offset 1, -4
 1193              		.cfi_def_cfa_offset 16
 295:C:/Users/stapi/OneDrive/Desktop/GD32VW553/V1_MQTT_OK/GD32VW55X_Wifi_BLE_SDK/GD32VW55x_RELEASE_V1.0.2/MSDK/cloud/alicloud/src/services/linkkit/cm\iotx_cm_mqtt.c **** 
 1194              		.loc 1 295 5
 1195              	.LVL136:
 297:C:/Users/stapi/OneDrive/Desktop/GD32VW553/V1_MQTT_OK/GD32VW55X_Wifi_BLE_SDK/GD32VW55x_RELEASE_V1.0.2/MSDK/cloud/alicloud/src/services/linkkit/cm\iotx_cm_mqtt.c **** 
 1196              		.loc 1 297 5
 297:C:/Users/stapi/OneDrive/Desktop/GD32VW553/V1_MQTT_OK/GD32VW55X_Wifi_BLE_SDK/GD32VW55x_RELEASE_V1.0.2/MSDK/cloud/alicloud/src/services/linkkit/cm\iotx_cm_mqtt.c **** 
 1197              		.loc 1 297 5
 294:C:/Users/stapi/OneDrive/Desktop/GD32VW553/V1_MQTT_OK/GD32VW55X_Wifi_BLE_SDK/GD32VW55x_RELEASE_V1.0.2/MSDK/cloud/alicloud/src/services/linkkit/cm\iotx_cm_mqtt.c ****     int qos = 0;
 1198              		.loc 1 294 1 is_stmt 0
 1199 0008 3687     		mv	a4,a3
 297:C:/Users/stapi/OneDrive/Desktop/GD32VW553/V1_MQTT_OK/GD32VW55X_Wifi_BLE_SDK/GD32VW55x_RELEASE_V1.0.2/MSDK/cloud/alicloud/src/services/linkkit/cm\iotx_cm_mqtt.c **** 
 1200              		.loc 1 297 5
 1201 000a B7060000 		lui	a3,%hi(.LANCHOR0)
 1202              	.LVL137:
 1203 000e 03A80600 		lw	a6,%lo(.LANCHOR0)(a3)
 1204 0012 631A0800 		bne	a6,zero,.L124
 1205 0016 97000000 		call	_mqtt_publish.part.0
 1205      E7800000 
 1206              	.LVL138:
 1207              	.L123:
 303:C:/Users/stapi/OneDrive/Desktop/GD32VW553/V1_MQTT_OK/GD32VW55X_Wifi_BLE_SDK/GD32VW55x_RELEASE_V1.0.2/MSDK/cloud/alicloud/src/services/linkkit/cm\iotx_cm_mqtt.c **** 
 1208              		.loc 1 303 1
 1209 001e 17030000 		tail	__riscv_restore_0
 1209      67000300 
 1210              		.cfi_remember_state
 1211              		.cfi_restore 1
 1212              		.cfi_def_cfa_offset 0
 1213              	.LVL139:
 1214              	.L124:
 1215              		.cfi_restore_state
 1216 0026 B287     		mv	a5,a2
 297:C:/Users/stapi/OneDrive/Desktop/GD32VW553/V1_MQTT_OK/GD32VW55X_Wifi_BLE_SDK/GD32VW55x_RELEASE_V1.0.2/MSDK/cloud/alicloud/src/services/linkkit/cm\iotx_cm_mqtt.c **** 
 1217              		.loc 1 297 5 is_stmt 1 discriminator 2
 299:C:/Users/stapi/OneDrive/Desktop/GD32VW553/V1_MQTT_OK/GD32VW55X_Wifi_BLE_SDK/GD32VW55x_RELEASE_V1.0.2/MSDK/cloud/alicloud/src/services/linkkit/cm\iotx_cm_mqtt.c ****         qos = (int)_get_mqtt_qos(ext->ack_type);
 1218              		.loc 1 299 5 discriminator 2
 295:C:/Users/stapi/OneDrive/Desktop/GD32VW553/V1_MQTT_OK/GD32VW55X_Wifi_BLE_SDK/GD32VW55x_RELEASE_V1.0.2/MSDK/cloud/alicloud/src/services/linkkit/cm\iotx_cm_mqtt.c **** 
 1219              		.loc 1 295 9 is_stmt 0 discriminator 2
 1220 0028 0146     		li	a2,0
 1221              	.LVL140:
 299:C:/Users/stapi/OneDrive/Desktop/GD32VW553/V1_MQTT_OK/GD32VW55X_Wifi_BLE_SDK/GD32VW55x_RELEASE_V1.0.2/MSDK/cloud/alicloud/src/services/linkkit/cm\iotx_cm_mqtt.c ****         qos = (int)_get_mqtt_qos(ext->ack_type);
 1222              		.loc 1 299 8 discriminator 2
 1223 002a 09C9     		beq	a0,zero,.L126
 300:C:/Users/stapi/OneDrive/Desktop/GD32VW553/V1_MQTT_OK/GD32VW55X_Wifi_BLE_SDK/GD32VW55x_RELEASE_V1.0.2/MSDK/cloud/alicloud/src/services/linkkit/cm\iotx_cm_mqtt.c ****     }
 1224              		.loc 1 300 9 is_stmt 1
 300:C:/Users/stapi/OneDrive/Desktop/GD32VW553/V1_MQTT_OK/GD32VW55X_Wifi_BLE_SDK/GD32VW55x_RELEASE_V1.0.2/MSDK/cloud/alicloud/src/services/linkkit/cm\iotx_cm_mqtt.c ****     }
 1225              		.loc 1 300 20 is_stmt 0
 1226 002c 1041     		lw	a2,0(a0)
 1227              	.LVL141:
 1228              	.LBB30:
 1229              	.LBB31:
 379:C:/Users/stapi/OneDrive/Desktop/GD32VW553/V1_MQTT_OK/GD32VW55X_Wifi_BLE_SDK/GD32VW55x_RELEASE_V1.0.2/MSDK/cloud/alicloud/src/services/linkkit/cm\iotx_cm_mqtt.c ****         case IOTX_CM_MESSAGE_NO_ACK:
 1230              		.loc 1 379 5 is_stmt 1
 1231 002e 8546     		li	a3,1
 1232 0030 6306D600 		beq	a2,a3,.L126
 1233 0034 8946     		li	a3,2
 1234 0036 631BD600 		bne	a2,a3,.L129
 1235              		.loc 1 387 20 is_stmt 0
 1236 003a 0D46     		li	a2,3
 1237              	.LVL142:
 1238              	.L126:
 1239              	.LBE31:
 1240              	.LBE30:
 302:C:/Users/stapi/OneDrive/Desktop/GD32VW553/V1_MQTT_OK/GD32VW55X_Wifi_BLE_SDK/GD32VW55x_RELEASE_V1.0.2/MSDK/cloud/alicloud/src/services/linkkit/cm\iotx_cm_mqtt.c **** }
 1241              		.loc 1 302 5 is_stmt 1
 302:C:/Users/stapi/OneDrive/Desktop/GD32VW553/V1_MQTT_OK/GD32VW55X_Wifi_BLE_SDK/GD32VW55x_RELEASE_V1.0.2/MSDK/cloud/alicloud/src/services/linkkit/cm\iotx_cm_mqtt.c **** }
 1242              		.loc 1 302 12 is_stmt 0
 1243 003c 03258800 		lw	a0,8(a6)
 1244              	.LVL143:
 1245 0040 BE86     		mv	a3,a5
 1246 0042 97000000 		call	IOT_MQTT_Publish_Simple
 1246      E7800000 
 1247              	.LVL144:
 1248 004a D1BF     		j	.L123
 1249              	.LVL145:
 1250              	.L129:
 1251              	.LBB33:
 1252              	.LBB32:
 381:C:/Users/stapi/OneDrive/Desktop/GD32VW553/V1_MQTT_OK/GD32VW55X_Wifi_BLE_SDK/GD32VW55x_RELEASE_V1.0.2/MSDK/cloud/alicloud/src/services/linkkit/cm\iotx_cm_mqtt.c **** 
 1253              		.loc 1 381 20
 1254 004c 0146     		li	a2,0
 1255              	.LVL146:
 1256 004e FDB7     		j	.L126
 1257              	.LBE32:
 1258              	.LBE33:
 1259              		.cfi_endproc
 1260              	.LFE23:
 1262              		.section	.rodata.iotx_cm_open_mqtt.str1.4,"aMS",@progbits,1
 1263              		.align	2
 1264              	.LC20:
 1265 0000 6D717474 		.string	"mqtt connection is opened already,return it"
 1265      20636F6E 
 1265      6E656374 
 1265      696F6E20 
 1265      6973206F 
 1266              		.align	2
 1267              	.LC21:
 1268 002c 70617261 		.string	"params"
 1268      6D7300
 1269 0033 00       		.align	2
 1270              	.LC22:
 1271 0034 5F6D7174 		.string	"_mqtt_conncection malloc failed!"
 1271      745F636F 
 1271      6E6E6365 
 1271      6374696F 
 1271      6E206D61 
 1272 0055 000000   		.align	2
 1273              	.LC23:
 1274 0058 6D717474 		.string	"mqtt_param malloc failed!"
 1274      5F706172 
 1274      616D206D 
 1274      616C6C6F 
 1274      63206661 
 1275              		.section	.text.iotx_cm_open_mqtt,"ax",@progbits
 1276              		.align	1
 1277              		.globl	iotx_cm_open_mqtt
 1279              	iotx_cm_open_mqtt:
 1280              	.LFB20:
  24:C:/Users/stapi/OneDrive/Desktop/GD32VW553/V1_MQTT_OK/GD32VW55X_Wifi_BLE_SDK/GD32VW55x_RELEASE_V1.0.2/MSDK/cloud/alicloud/src/services/linkkit/cm\iotx_cm_mqtt.c ****     iotx_mqtt_param_t *mqtt_param = NULL;
 1281              		.loc 1 24 1 is_stmt 1
 1282              		.cfi_startproc
 1283              	.LVL147:
 1284 0000 17030000 		call	t0,__riscv_save_3
 1284      E7020300 
 1285              		.cfi_offset 18, -16
 1286              		.cfi_offset 9, -12
 1287              		.cfi_offset 8, -8
 1288              		.cfi_offset 1, -4
 1289              		.cfi_def_cfa_offset 16
  25:C:/Users/stapi/OneDrive/Desktop/GD32VW553/V1_MQTT_OK/GD32VW55X_Wifi_BLE_SDK/GD32VW55x_RELEASE_V1.0.2/MSDK/cloud/alicloud/src/services/linkkit/cm\iotx_cm_mqtt.c **** 
 1290              		.loc 1 25 5
 1291              	.LVL148:
  27:C:/Users/stapi/OneDrive/Desktop/GD32VW553/V1_MQTT_OK/GD32VW55X_Wifi_BLE_SDK/GD32VW55x_RELEASE_V1.0.2/MSDK/cloud/alicloud/src/services/linkkit/cm\iotx_cm_mqtt.c ****         CM_WARN("mqtt connection is opened already,return it");
 1292              		.loc 1 27 5
  27:C:/Users/stapi/OneDrive/Desktop/GD32VW553/V1_MQTT_OK/GD32VW55X_Wifi_BLE_SDK/GD32VW55x_RELEASE_V1.0.2/MSDK/cloud/alicloud/src/services/linkkit/cm\iotx_cm_mqtt.c ****         CM_WARN("mqtt connection is opened already,return it");
 1293              		.loc 1 27 27 is_stmt 0
 1294 0008 B7040000 		lui	s1,%hi(.LANCHOR0)
 1295 000c 13890400 		addi	s2,s1,%lo(.LANCHOR0)
 1296 0010 83270900 		lw	a5,0(s2)
  27:C:/Users/stapi/OneDrive/Desktop/GD32VW553/V1_MQTT_OK/GD32VW55X_Wifi_BLE_SDK/GD32VW55x_RELEASE_V1.0.2/MSDK/cloud/alicloud/src/services/linkkit/cm\iotx_cm_mqtt.c ****         CM_WARN("mqtt connection is opened already,return it");
 1297              		.loc 1 27 8
 1298 0014 9DCF     		beq	a5,zero,.L132
  28:C:/Users/stapi/OneDrive/Desktop/GD32VW553/V1_MQTT_OK/GD32VW55X_Wifi_BLE_SDK/GD32VW55x_RELEASE_V1.0.2/MSDK/cloud/alicloud/src/services/linkkit/cm\iotx_cm_mqtt.c ****         return _mqtt_conncection;
 1299              		.loc 1 28 9 is_stmt 1
  28:C:/Users/stapi/OneDrive/Desktop/GD32VW553/V1_MQTT_OK/GD32VW55X_Wifi_BLE_SDK/GD32VW55x_RELEASE_V1.0.2/MSDK/cloud/alicloud/src/services/linkkit/cm\iotx_cm_mqtt.c ****         return _mqtt_conncection;
 1300              		.loc 1 28 9
 1301 0016 37050000 		lui	a0,%hi(.LC7)
 1302              	.LVL149:
 1303 001a 13050500 		addi	a0,a0,%lo(.LC7)
 1304 001e 97000000 		call	HAL_Printf
 1304      E7800000 
 1305              	.LVL150:
  28:C:/Users/stapi/OneDrive/Desktop/GD32VW553/V1_MQTT_OK/GD32VW55X_Wifi_BLE_SDK/GD32VW55x_RELEASE_V1.0.2/MSDK/cloud/alicloud/src/services/linkkit/cm\iotx_cm_mqtt.c ****         return _mqtt_conncection;
 1306              		.loc 1 28 9
 1307 0026 37050000 		lui	a0,%hi(.LC20)
 1308 002a 13050500 		addi	a0,a0,%lo(.LC20)
 1309 002e 97000000 		call	HAL_Printf
 1309      E7800000 
 1310              	.LVL151:
  28:C:/Users/stapi/OneDrive/Desktop/GD32VW553/V1_MQTT_OK/GD32VW55X_Wifi_BLE_SDK/GD32VW55x_RELEASE_V1.0.2/MSDK/cloud/alicloud/src/services/linkkit/cm\iotx_cm_mqtt.c ****         return _mqtt_conncection;
 1311              		.loc 1 28 9
 1312 0036 37050000 		lui	a0,%hi(.LC2)
 1313 003a 13050500 		addi	a0,a0,%lo(.LC2)
 1314 003e 97000000 		call	HAL_Printf
 1314      E7800000 
 1315              	.LVL152:
  28:C:/Users/stapi/OneDrive/Desktop/GD32VW553/V1_MQTT_OK/GD32VW55X_Wifi_BLE_SDK/GD32VW55x_RELEASE_V1.0.2/MSDK/cloud/alicloud/src/services/linkkit/cm\iotx_cm_mqtt.c ****         return _mqtt_conncection;
 1316              		.loc 1 28 9
  29:C:/Users/stapi/OneDrive/Desktop/GD32VW553/V1_MQTT_OK/GD32VW55X_Wifi_BLE_SDK/GD32VW55x_RELEASE_V1.0.2/MSDK/cloud/alicloud/src/services/linkkit/cm\iotx_cm_mqtt.c ****     }
 1317              		.loc 1 29 9
  29:C:/Users/stapi/OneDrive/Desktop/GD32VW553/V1_MQTT_OK/GD32VW55X_Wifi_BLE_SDK/GD32VW55x_RELEASE_V1.0.2/MSDK/cloud/alicloud/src/services/linkkit/cm\iotx_cm_mqtt.c ****     }
 1318              		.loc 1 29 16 is_stmt 0
 1319 0046 03250900 		lw	a0,0(s2)
 1320              	.LVL153:
 1321              	.L131:
  74:C:/Users/stapi/OneDrive/Desktop/GD32VW553/V1_MQTT_OK/GD32VW55X_Wifi_BLE_SDK/GD32VW55x_RELEASE_V1.0.2/MSDK/cloud/alicloud/src/services/linkkit/cm\iotx_cm_mqtt.c **** 
 1322              		.loc 1 74 1
 1323 004a 17030000 		tail	__riscv_restore_3
 1323      67000300 
 1324              		.cfi_remember_state
 1325              		.cfi_restore 18
 1326              		.cfi_restore 9
 1327              		.cfi_restore 8
 1328              		.cfi_restore 1
 1329              		.cfi_def_cfa_offset 0
 1330              	.LVL154:
 1331              	.L132:
 1332              		.cfi_restore_state
 1333 0052 2A84     		mv	s0,a0
  32:C:/Users/stapi/OneDrive/Desktop/GD32VW553/V1_MQTT_OK/GD32VW55X_Wifi_BLE_SDK/GD32VW55x_RELEASE_V1.0.2/MSDK/cloud/alicloud/src/services/linkkit/cm\iotx_cm_mqtt.c **** 
 1334              		.loc 1 32 5 is_stmt 1
  32:C:/Users/stapi/OneDrive/Desktop/GD32VW553/V1_MQTT_OK/GD32VW55X_Wifi_BLE_SDK/GD32VW55x_RELEASE_V1.0.2/MSDK/cloud/alicloud/src/services/linkkit/cm\iotx_cm_mqtt.c **** 
 1335              		.loc 1 32 5
 1336 0054 21E1     		bne	a0,zero,.L134
 1337              	.LVL155:
  32:C:/Users/stapi/OneDrive/Desktop/GD32VW553/V1_MQTT_OK/GD32VW55X_Wifi_BLE_SDK/GD32VW55x_RELEASE_V1.0.2/MSDK/cloud/alicloud/src/services/linkkit/cm\iotx_cm_mqtt.c **** 
 1338              		.loc 1 32 5 discriminator 1
  32:C:/Users/stapi/OneDrive/Desktop/GD32VW553/V1_MQTT_OK/GD32VW55X_Wifi_BLE_SDK/GD32VW55x_RELEASE_V1.0.2/MSDK/cloud/alicloud/src/services/linkkit/cm\iotx_cm_mqtt.c **** 
 1339              		.loc 1 32 5 discriminator 1
 1340 0056 37050000 		lui	a0,%hi(.LC4)
 1341 005a 13050500 		addi	a0,a0,%lo(.LC4)
 1342 005e 97000000 		call	HAL_Printf
 1342      E7800000 
 1343              	.LVL156:
  32:C:/Users/stapi/OneDrive/Desktop/GD32VW553/V1_MQTT_OK/GD32VW55X_Wifi_BLE_SDK/GD32VW55x_RELEASE_V1.0.2/MSDK/cloud/alicloud/src/services/linkkit/cm\iotx_cm_mqtt.c **** 
 1344              		.loc 1 32 5 discriminator 1
 1345 0066 B7050000 		lui	a1,%hi(.LC21)
 1346 006a 37050000 		lui	a0,%hi(.LC11)
 1347 006e 13050500 		addi	a0,a0,%lo(.LC11)
 1348 0072 0146     		li	a2,0
 1349 0074 93850500 		addi	a1,a1,%lo(.LC21)
 1350 0078 97000000 		call	HAL_Printf
 1350      E7800000 
 1351              	.LVL157:
  32:C:/Users/stapi/OneDrive/Desktop/GD32VW553/V1_MQTT_OK/GD32VW55X_Wifi_BLE_SDK/GD32VW55x_RELEASE_V1.0.2/MSDK/cloud/alicloud/src/services/linkkit/cm\iotx_cm_mqtt.c **** 
 1352              		.loc 1 32 5 discriminator 1
 1353 0080 37050000 		lui	a0,%hi(.LC2)
 1354 0084 13050500 		addi	a0,a0,%lo(.LC2)
 1355 0088 97000000 		call	HAL_Printf
 1355      E7800000 
 1356              	.LVL158:
  32:C:/Users/stapi/OneDrive/Desktop/GD32VW553/V1_MQTT_OK/GD32VW55X_Wifi_BLE_SDK/GD32VW55x_RELEASE_V1.0.2/MSDK/cloud/alicloud/src/services/linkkit/cm\iotx_cm_mqtt.c **** 
 1357              		.loc 1 32 5 discriminator 1
  32:C:/Users/stapi/OneDrive/Desktop/GD32VW553/V1_MQTT_OK/GD32VW55X_Wifi_BLE_SDK/GD32VW55x_RELEASE_V1.0.2/MSDK/cloud/alicloud/src/services/linkkit/cm\iotx_cm_mqtt.c **** 
 1358              		.loc 1 32 5 discriminator 1
 1359              	.L143:
  73:C:/Users/stapi/OneDrive/Desktop/GD32VW553/V1_MQTT_OK/GD32VW55X_Wifi_BLE_SDK/GD32VW55x_RELEASE_V1.0.2/MSDK/cloud/alicloud/src/services/linkkit/cm\iotx_cm_mqtt.c **** }
 1360              		.loc 1 73 12 is_stmt 0
 1361 0090 0145     		li	a0,0
 1362 0092 65BF     		j	.L131
 1363              	.L134:
  34:C:/Users/stapi/OneDrive/Desktop/GD32VW553/V1_MQTT_OK/GD32VW55X_Wifi_BLE_SDK/GD32VW55x_RELEASE_V1.0.2/MSDK/cloud/alicloud/src/services/linkkit/cm\iotx_cm_mqtt.c ****     if (_mqtt_conncection == NULL) {
 1364              		.loc 1 34 49 discriminator 2
 1365 0094 13064003 		li	a2,52
 1366 0098 8145     		li	a1,0
 1367 009a 0145     		li	a0,0
 1368 009c 93840400 		addi	s1,s1,%lo(.LANCHOR0)
  32:C:/Users/stapi/OneDrive/Desktop/GD32VW553/V1_MQTT_OK/GD32VW55X_Wifi_BLE_SDK/GD32VW55x_RELEASE_V1.0.2/MSDK/cloud/alicloud/src/services/linkkit/cm\iotx_cm_mqtt.c **** 
 1369              		.loc 1 32 5 is_stmt 1 discriminator 2
  34:C:/Users/stapi/OneDrive/Desktop/GD32VW553/V1_MQTT_OK/GD32VW55X_Wifi_BLE_SDK/GD32VW55x_RELEASE_V1.0.2/MSDK/cloud/alicloud/src/services/linkkit/cm\iotx_cm_mqtt.c ****     if (_mqtt_conncection == NULL) {
 1370              		.loc 1 34 5 discriminator 2
  34:C:/Users/stapi/OneDrive/Desktop/GD32VW553/V1_MQTT_OK/GD32VW55X_Wifi_BLE_SDK/GD32VW55x_RELEASE_V1.0.2/MSDK/cloud/alicloud/src/services/linkkit/cm\iotx_cm_mqtt.c ****     if (_mqtt_conncection == NULL) {
 1371              		.loc 1 34 49 is_stmt 0 discriminator 2
 1372 00a0 97000000 		call	LITE_malloc_internal
 1372      E7800000 
 1373              	.LVL159:
  34:C:/Users/stapi/OneDrive/Desktop/GD32VW553/V1_MQTT_OK/GD32VW55X_Wifi_BLE_SDK/GD32VW55x_RELEASE_V1.0.2/MSDK/cloud/alicloud/src/services/linkkit/cm\iotx_cm_mqtt.c ****     if (_mqtt_conncection == NULL) {
 1374              		.loc 1 34 23 discriminator 2
 1375 00a8 88C0     		sw	a0,0(s1)
  35:C:/Users/stapi/OneDrive/Desktop/GD32VW553/V1_MQTT_OK/GD32VW55X_Wifi_BLE_SDK/GD32VW55x_RELEASE_V1.0.2/MSDK/cloud/alicloud/src/services/linkkit/cm\iotx_cm_mqtt.c ****         CM_ERR("_mqtt_conncection malloc failed!");
 1376              		.loc 1 35 5 is_stmt 1 discriminator 2
  35:C:/Users/stapi/OneDrive/Desktop/GD32VW553/V1_MQTT_OK/GD32VW55X_Wifi_BLE_SDK/GD32VW55x_RELEASE_V1.0.2/MSDK/cloud/alicloud/src/services/linkkit/cm\iotx_cm_mqtt.c ****         CM_ERR("_mqtt_conncection malloc failed!");
 1377              		.loc 1 35 8 is_stmt 0 discriminator 2
 1378 00aa 31E1     		bne	a0,zero,.L135
  36:C:/Users/stapi/OneDrive/Desktop/GD32VW553/V1_MQTT_OK/GD32VW55X_Wifi_BLE_SDK/GD32VW55x_RELEASE_V1.0.2/MSDK/cloud/alicloud/src/services/linkkit/cm\iotx_cm_mqtt.c ****         goto failed;
 1379              		.loc 1 36 9 is_stmt 1
  36:C:/Users/stapi/OneDrive/Desktop/GD32VW553/V1_MQTT_OK/GD32VW55X_Wifi_BLE_SDK/GD32VW55x_RELEASE_V1.0.2/MSDK/cloud/alicloud/src/services/linkkit/cm\iotx_cm_mqtt.c ****         goto failed;
 1380              		.loc 1 36 9
 1381 00ac 37050000 		lui	a0,%hi(.LC4)
 1382 00b0 13050500 		addi	a0,a0,%lo(.LC4)
 1383 00b4 97000000 		call	HAL_Printf
 1383      E7800000 
 1384              	.LVL160:
  36:C:/Users/stapi/OneDrive/Desktop/GD32VW553/V1_MQTT_OK/GD32VW55X_Wifi_BLE_SDK/GD32VW55x_RELEASE_V1.0.2/MSDK/cloud/alicloud/src/services/linkkit/cm\iotx_cm_mqtt.c ****         goto failed;
 1385              		.loc 1 36 9
 1386 00bc 37050000 		lui	a0,%hi(.LC22)
 1387 00c0 13050500 		addi	a0,a0,%lo(.LC22)
 1388              	.LVL161:
 1389              	.L142:
 1390              	.L136:
  42:C:/Users/stapi/OneDrive/Desktop/GD32VW553/V1_MQTT_OK/GD32VW55X_Wifi_BLE_SDK/GD32VW55x_RELEASE_V1.0.2/MSDK/cloud/alicloud/src/services/linkkit/cm\iotx_cm_mqtt.c ****         goto failed;
 1391              		.loc 1 42 9 is_stmt 0
 1392 00c4 97000000 		call	HAL_Printf
 1392      E7800000 
 1393              	.LVL162:
  42:C:/Users/stapi/OneDrive/Desktop/GD32VW553/V1_MQTT_OK/GD32VW55X_Wifi_BLE_SDK/GD32VW55x_RELEASE_V1.0.2/MSDK/cloud/alicloud/src/services/linkkit/cm\iotx_cm_mqtt.c ****         goto failed;
 1394              		.loc 1 42 9 is_stmt 1
 1395 00cc 37050000 		lui	a0,%hi(.LC2)
 1396 00d0 13050500 		addi	a0,a0,%lo(.LC2)
 1397 00d4 97000000 		call	HAL_Printf
 1397      E7800000 
 1398              	.LVL163:
  42:C:/Users/stapi/OneDrive/Desktop/GD32VW553/V1_MQTT_OK/GD32VW55X_Wifi_BLE_SDK/GD32VW55x_RELEASE_V1.0.2/MSDK/cloud/alicloud/src/services/linkkit/cm\iotx_cm_mqtt.c ****         goto failed;
 1399              		.loc 1 42 9
  43:C:/Users/stapi/OneDrive/Desktop/GD32VW553/V1_MQTT_OK/GD32VW55X_Wifi_BLE_SDK/GD32VW55x_RELEASE_V1.0.2/MSDK/cloud/alicloud/src/services/linkkit/cm\iotx_cm_mqtt.c ****     }
 1400              		.loc 1 43 9
  64:C:/Users/stapi/OneDrive/Desktop/GD32VW553/V1_MQTT_OK/GD32VW55X_Wifi_BLE_SDK/GD32VW55x_RELEASE_V1.0.2/MSDK/cloud/alicloud/src/services/linkkit/cm\iotx_cm_mqtt.c ****         cm_free(_mqtt_conncection);
 1401              		.loc 1 64 5
  64:C:/Users/stapi/OneDrive/Desktop/GD32VW553/V1_MQTT_OK/GD32VW55X_Wifi_BLE_SDK/GD32VW55x_RELEASE_V1.0.2/MSDK/cloud/alicloud/src/services/linkkit/cm\iotx_cm_mqtt.c ****         cm_free(_mqtt_conncection);
 1402              		.loc 1 64 27 is_stmt 0
 1403 00dc 8840     		lw	a0,0(s1)
  64:C:/Users/stapi/OneDrive/Desktop/GD32VW553/V1_MQTT_OK/GD32VW55X_Wifi_BLE_SDK/GD32VW55x_RELEASE_V1.0.2/MSDK/cloud/alicloud/src/services/linkkit/cm\iotx_cm_mqtt.c ****         cm_free(_mqtt_conncection);
 1404              		.loc 1 64 8
 1405 00de 35D5     		beq	a0,zero,.L131
  65:C:/Users/stapi/OneDrive/Desktop/GD32VW553/V1_MQTT_OK/GD32VW55X_Wifi_BLE_SDK/GD32VW55x_RELEASE_V1.0.2/MSDK/cloud/alicloud/src/services/linkkit/cm\iotx_cm_mqtt.c ****         _mqtt_conncection = NULL;
 1406              		.loc 1 65 9 is_stmt 1
 1407 00e0 97000000 		call	LITE_free_internal
 1407      E7800000 
 1408              	.LVL164:
  66:C:/Users/stapi/OneDrive/Desktop/GD32VW553/V1_MQTT_OK/GD32VW55X_Wifi_BLE_SDK/GD32VW55x_RELEASE_V1.0.2/MSDK/cloud/alicloud/src/services/linkkit/cm\iotx_cm_mqtt.c ****     }
 1409              		.loc 1 66 9
  66:C:/Users/stapi/OneDrive/Desktop/GD32VW553/V1_MQTT_OK/GD32VW55X_Wifi_BLE_SDK/GD32VW55x_RELEASE_V1.0.2/MSDK/cloud/alicloud/src/services/linkkit/cm\iotx_cm_mqtt.c ****     }
 1410              		.loc 1 66 27 is_stmt 0
 1411 00e8 23A00400 		sw	zero,0(s1)
 1412 00ec 55B7     		j	.L143
 1413              	.L135:
  40:C:/Users/stapi/OneDrive/Desktop/GD32VW553/V1_MQTT_OK/GD32VW55X_Wifi_BLE_SDK/GD32VW55x_RELEASE_V1.0.2/MSDK/cloud/alicloud/src/services/linkkit/cm\iotx_cm_mqtt.c ****     if (mqtt_param == NULL) {
 1414              		.loc 1 40 5 is_stmt 1
  40:C:/Users/stapi/OneDrive/Desktop/GD32VW553/V1_MQTT_OK/GD32VW55X_Wifi_BLE_SDK/GD32VW55x_RELEASE_V1.0.2/MSDK/cloud/alicloud/src/services/linkkit/cm\iotx_cm_mqtt.c ****     if (mqtt_param == NULL) {
 1415              		.loc 1 40 39 is_stmt 0
 1416 00ee 13064003 		li	a2,52
 1417 00f2 8145     		li	a1,0
 1418 00f4 0145     		li	a0,0
 1419 00f6 97000000 		call	LITE_malloc_internal
 1419      E7800000 
 1420              	.LVL165:
 1421 00fe AA87     		mv	a5,a0
 1422              	.LVL166:
  41:C:/Users/stapi/OneDrive/Desktop/GD32VW553/V1_MQTT_OK/GD32VW55X_Wifi_BLE_SDK/GD32VW55x_RELEASE_V1.0.2/MSDK/cloud/alicloud/src/services/linkkit/cm\iotx_cm_mqtt.c ****         CM_ERR("mqtt_param malloc failed!");
 1423              		.loc 1 41 5 is_stmt 1
  41:C:/Users/stapi/OneDrive/Desktop/GD32VW553/V1_MQTT_OK/GD32VW55X_Wifi_BLE_SDK/GD32VW55x_RELEASE_V1.0.2/MSDK/cloud/alicloud/src/services/linkkit/cm\iotx_cm_mqtt.c ****         CM_ERR("mqtt_param malloc failed!");
 1424              		.loc 1 41 8 is_stmt 0
 1425 0100 11ED     		bne	a0,zero,.L137
  42:C:/Users/stapi/OneDrive/Desktop/GD32VW553/V1_MQTT_OK/GD32VW55X_Wifi_BLE_SDK/GD32VW55x_RELEASE_V1.0.2/MSDK/cloud/alicloud/src/services/linkkit/cm\iotx_cm_mqtt.c ****         goto failed;
 1426              		.loc 1 42 9 is_stmt 1
  42:C:/Users/stapi/OneDrive/Desktop/GD32VW553/V1_MQTT_OK/GD32VW55X_Wifi_BLE_SDK/GD32VW55x_RELEASE_V1.0.2/MSDK/cloud/alicloud/src/services/linkkit/cm\iotx_cm_mqtt.c ****         goto failed;
 1427              		.loc 1 42 9
 1428 0102 37050000 		lui	a0,%hi(.LC4)
 1429              	.LVL167:
 1430 0106 13050500 		addi	a0,a0,%lo(.LC4)
 1431 010a 97000000 		call	HAL_Printf
 1431      E7800000 
 1432              	.LVL168:
  42:C:/Users/stapi/OneDrive/Desktop/GD32VW553/V1_MQTT_OK/GD32VW55X_Wifi_BLE_SDK/GD32VW55x_RELEASE_V1.0.2/MSDK/cloud/alicloud/src/services/linkkit/cm\iotx_cm_mqtt.c ****         goto failed;
 1433              		.loc 1 42 9
 1434 0112 37050000 		lui	a0,%hi(.LC23)
 1435 0116 13050500 		addi	a0,a0,%lo(.LC23)
 1436 011a 6DB7     		j	.L142
 1437              	.LVL169:
 1438              	.L137:
  45:C:/Users/stapi/OneDrive/Desktop/GD32VW553/V1_MQTT_OK/GD32VW55X_Wifi_BLE_SDK/GD32VW55x_RELEASE_V1.0.2/MSDK/cloud/alicloud/src/services/linkkit/cm\iotx_cm_mqtt.c **** 
 1439              		.loc 1 45 5
  45:C:/Users/stapi/OneDrive/Desktop/GD32VW553/V1_MQTT_OK/GD32VW55X_Wifi_BLE_SDK/GD32VW55x_RELEASE_V1.0.2/MSDK/cloud/alicloud/src/services/linkkit/cm\iotx_cm_mqtt.c **** 
 1440              		.loc 1 45 22 is_stmt 0
 1441 011c 03250900 		lw	a0,0(s2)
 1442              	.LVL170:
  47:C:/Users/stapi/OneDrive/Desktop/GD32VW553/V1_MQTT_OK/GD32VW55X_Wifi_BLE_SDK/GD32VW55x_RELEASE_V1.0.2/MSDK/cloud/alicloud/src/services/linkkit/cm\iotx_cm_mqtt.c ****     mqtt_param->clean_session = 0;
 1443              		.loc 1 47 36
 1444 0120 1840     		lw	a4,0(s0)
  45:C:/Users/stapi/OneDrive/Desktop/GD32VW553/V1_MQTT_OK/GD32VW55X_Wifi_BLE_SDK/GD32VW55x_RELEASE_V1.0.2/MSDK/cloud/alicloud/src/services/linkkit/cm\iotx_cm_mqtt.c **** 
 1445              		.loc 1 45 36
 1446 0122 5CC1     		sw	a5,4(a0)
  47:C:/Users/stapi/OneDrive/Desktop/GD32VW553/V1_MQTT_OK/GD32VW55X_Wifi_BLE_SDK/GD32VW55x_RELEASE_V1.0.2/MSDK/cloud/alicloud/src/services/linkkit/cm\iotx_cm_mqtt.c ****     mqtt_param->clean_session = 0;
 1447              		.loc 1 47 5 is_stmt 1
  48:C:/Users/stapi/OneDrive/Desktop/GD32VW553/V1_MQTT_OK/GD32VW55X_Wifi_BLE_SDK/GD32VW55x_RELEASE_V1.0.2/MSDK/cloud/alicloud/src/services/linkkit/cm\iotx_cm_mqtt.c ****     mqtt_param->keepalive_interval_ms = params->keepalive_interval_ms;
 1448              		.loc 1 48 31 is_stmt 0
 1449 0124 238C0700 		sb	zero,24(a5)
  47:C:/Users/stapi/OneDrive/Desktop/GD32VW553/V1_MQTT_OK/GD32VW55X_Wifi_BLE_SDK/GD32VW55x_RELEASE_V1.0.2/MSDK/cloud/alicloud/src/services/linkkit/cm\iotx_cm_mqtt.c ****     mqtt_param->clean_session = 0;
 1450              		.loc 1 47 36
 1451 0128 D8CF     		sw	a4,28(a5)
  48:C:/Users/stapi/OneDrive/Desktop/GD32VW553/V1_MQTT_OK/GD32VW55X_Wifi_BLE_SDK/GD32VW55x_RELEASE_V1.0.2/MSDK/cloud/alicloud/src/services/linkkit/cm\iotx_cm_mqtt.c ****     mqtt_param->keepalive_interval_ms = params->keepalive_interval_ms;
 1452              		.loc 1 48 5 is_stmt 1
  49:C:/Users/stapi/OneDrive/Desktop/GD32VW553/V1_MQTT_OK/GD32VW55X_Wifi_BLE_SDK/GD32VW55x_RELEASE_V1.0.2/MSDK/cloud/alicloud/src/services/linkkit/cm\iotx_cm_mqtt.c ****     mqtt_param->read_buf_size = params->read_buf_size;
 1453              		.loc 1 49 5
  49:C:/Users/stapi/OneDrive/Desktop/GD32VW553/V1_MQTT_OK/GD32VW55X_Wifi_BLE_SDK/GD32VW55x_RELEASE_V1.0.2/MSDK/cloud/alicloud/src/services/linkkit/cm\iotx_cm_mqtt.c ****     mqtt_param->read_buf_size = params->read_buf_size;
 1454              		.loc 1 49 39 is_stmt 0
 1455 012a 5840     		lw	a4,4(s0)
 1456 012c 98D3     		sw	a4,32(a5)
  50:C:/Users/stapi/OneDrive/Desktop/GD32VW553/V1_MQTT_OK/GD32VW55X_Wifi_BLE_SDK/GD32VW55x_RELEASE_V1.0.2/MSDK/cloud/alicloud/src/services/linkkit/cm\iotx_cm_mqtt.c ****     mqtt_param->write_buf_size = params->write_buf_size;
 1457              		.loc 1 50 5 is_stmt 1
  50:C:/Users/stapi/OneDrive/Desktop/GD32VW553/V1_MQTT_OK/GD32VW55X_Wifi_BLE_SDK/GD32VW55x_RELEASE_V1.0.2/MSDK/cloud/alicloud/src/services/linkkit/cm\iotx_cm_mqtt.c ****     mqtt_param->write_buf_size = params->write_buf_size;
 1458              		.loc 1 50 31 is_stmt 0
 1459 012e 5844     		lw	a4,12(s0)
 1460 0130 98D7     		sw	a4,40(a5)
  51:C:/Users/stapi/OneDrive/Desktop/GD32VW553/V1_MQTT_OK/GD32VW55X_Wifi_BLE_SDK/GD32VW55x_RELEASE_V1.0.2/MSDK/cloud/alicloud/src/services/linkkit/cm\iotx_cm_mqtt.c **** 
 1461              		.loc 1 51 5 is_stmt 1
  51:C:/Users/stapi/OneDrive/Desktop/GD32VW553/V1_MQTT_OK/GD32VW55X_Wifi_BLE_SDK/GD32VW55x_RELEASE_V1.0.2/MSDK/cloud/alicloud/src/services/linkkit/cm\iotx_cm_mqtt.c **** 
 1462              		.loc 1 51 32 is_stmt 0
 1463 0132 1844     		lw	a4,8(s0)
  54:C:/Users/stapi/OneDrive/Desktop/GD32VW553/V1_MQTT_OK/GD32VW55X_Wifi_BLE_SDK/GD32VW55x_RELEASE_V1.0.2/MSDK/cloud/alicloud/src/services/linkkit/cm\iotx_cm_mqtt.c **** 
 1464              		.loc 1 54 39
 1465 0134 23A80702 		sw	zero,48(a5)
  51:C:/Users/stapi/OneDrive/Desktop/GD32VW553/V1_MQTT_OK/GD32VW55X_Wifi_BLE_SDK/GD32VW55x_RELEASE_V1.0.2/MSDK/cloud/alicloud/src/services/linkkit/cm\iotx_cm_mqtt.c **** 
 1466              		.loc 1 51 32
 1467 0138 D8D3     		sw	a4,36(a5)
  53:C:/Users/stapi/OneDrive/Desktop/GD32VW553/V1_MQTT_OK/GD32VW55X_Wifi_BLE_SDK/GD32VW55x_RELEASE_V1.0.2/MSDK/cloud/alicloud/src/services/linkkit/cm\iotx_cm_mqtt.c ****     mqtt_param->handle_event.pcontext = NULL;
 1468              		.loc 1 53 5 is_stmt 1
  53:C:/Users/stapi/OneDrive/Desktop/GD32VW553/V1_MQTT_OK/GD32VW55X_Wifi_BLE_SDK/GD32VW55x_RELEASE_V1.0.2/MSDK/cloud/alicloud/src/services/linkkit/cm\iotx_cm_mqtt.c ****     mqtt_param->handle_event.pcontext = NULL;
 1469              		.loc 1 53 35 is_stmt 0
 1470 013a 37070000 		lui	a4,%hi(iotx_cloud_conn_mqtt_event_handle)
 1471 013e 13070700 		addi	a4,a4,%lo(iotx_cloud_conn_mqtt_event_handle)
 1472 0142 D8D7     		sw	a4,44(a5)
  54:C:/Users/stapi/OneDrive/Desktop/GD32VW553/V1_MQTT_OK/GD32VW55X_Wifi_BLE_SDK/GD32VW55x_RELEASE_V1.0.2/MSDK/cloud/alicloud/src/services/linkkit/cm\iotx_cm_mqtt.c **** 
 1473              		.loc 1 54 5 is_stmt 1
  56:C:/Users/stapi/OneDrive/Desktop/GD32VW553/V1_MQTT_OK/GD32VW55X_Wifi_BLE_SDK/GD32VW55x_RELEASE_V1.0.2/MSDK/cloud/alicloud/src/services/linkkit/cm\iotx_cm_mqtt.c ****     _mqtt_conncection->cb_data = params->context;
 1474              		.loc 1 56 5
  56:C:/Users/stapi/OneDrive/Desktop/GD32VW553/V1_MQTT_OK/GD32VW55X_Wifi_BLE_SDK/GD32VW55x_RELEASE_V1.0.2/MSDK/cloud/alicloud/src/services/linkkit/cm\iotx_cm_mqtt.c ****     _mqtt_conncection->cb_data = params->context;
 1475              		.loc 1 56 38 is_stmt 0
 1476 0144 5C48     		lw	a5,20(s0)
 1477              	.LVL171:
 1478 0146 5CD5     		sw	a5,44(a0)
  57:C:/Users/stapi/OneDrive/Desktop/GD32VW553/V1_MQTT_OK/GD32VW55X_Wifi_BLE_SDK/GD32VW55x_RELEASE_V1.0.2/MSDK/cloud/alicloud/src/services/linkkit/cm\iotx_cm_mqtt.c ****     _set_common_handlers();
 1479              		.loc 1 57 5 is_stmt 1
  57:C:/Users/stapi/OneDrive/Desktop/GD32VW553/V1_MQTT_OK/GD32VW55X_Wifi_BLE_SDK/GD32VW55x_RELEASE_V1.0.2/MSDK/cloud/alicloud/src/services/linkkit/cm\iotx_cm_mqtt.c ****     _set_common_handlers();
 1480              		.loc 1 57 32 is_stmt 0
 1481 0148 1C4C     		lw	a5,24(s0)
 1482 014a 1CD9     		sw	a5,48(a0)
  58:C:/Users/stapi/OneDrive/Desktop/GD32VW553/V1_MQTT_OK/GD32VW55X_Wifi_BLE_SDK/GD32VW55x_RELEASE_V1.0.2/MSDK/cloud/alicloud/src/services/linkkit/cm\iotx_cm_mqtt.c **** 
 1483              		.loc 1 58 5 is_stmt 1
 1484              	.LBB36:
 1485              	.LBB37:
 388:C:/Users/stapi/OneDrive/Desktop/GD32VW553/V1_MQTT_OK/GD32VW55X_Wifi_BLE_SDK/GD32VW55x_RELEASE_V1.0.2/MSDK/cloud/alicloud/src/services/linkkit/cm\iotx_cm_mqtt.c **** 
 389:C:/Users/stapi/OneDrive/Desktop/GD32VW553/V1_MQTT_OK/GD32VW55X_Wifi_BLE_SDK/GD32VW55x_RELEASE_V1.0.2/MSDK/cloud/alicloud/src/services/linkkit/cm\iotx_cm_mqtt.c ****         default:
 390:C:/Users/stapi/OneDrive/Desktop/GD32VW553/V1_MQTT_OK/GD32VW55X_Wifi_BLE_SDK/GD32VW55x_RELEASE_V1.0.2/MSDK/cloud/alicloud/src/services/linkkit/cm\iotx_cm_mqtt.c ****             return IOTX_MQTT_QOS0;
 391:C:/Users/stapi/OneDrive/Desktop/GD32VW553/V1_MQTT_OK/GD32VW55X_Wifi_BLE_SDK/GD32VW55x_RELEASE_V1.0.2/MSDK/cloud/alicloud/src/services/linkkit/cm\iotx_cm_mqtt.c ****     }
 392:C:/Users/stapi/OneDrive/Desktop/GD32VW553/V1_MQTT_OK/GD32VW55X_Wifi_BLE_SDK/GD32VW55x_RELEASE_V1.0.2/MSDK/cloud/alicloud/src/services/linkkit/cm\iotx_cm_mqtt.c **** }
 393:C:/Users/stapi/OneDrive/Desktop/GD32VW553/V1_MQTT_OK/GD32VW55X_Wifi_BLE_SDK/GD32VW55x_RELEASE_V1.0.2/MSDK/cloud/alicloud/src/services/linkkit/cm\iotx_cm_mqtt.c **** 
 394:C:/Users/stapi/OneDrive/Desktop/GD32VW553/V1_MQTT_OK/GD32VW55X_Wifi_BLE_SDK/GD32VW55x_RELEASE_V1.0.2/MSDK/cloud/alicloud/src/services/linkkit/cm\iotx_cm_mqtt.c **** 
 395:C:/Users/stapi/OneDrive/Desktop/GD32VW553/V1_MQTT_OK/GD32VW55X_Wifi_BLE_SDK/GD32VW55x_RELEASE_V1.0.2/MSDK/cloud/alicloud/src/services/linkkit/cm\iotx_cm_mqtt.c **** static void _set_common_handlers()
 396:C:/Users/stapi/OneDrive/Desktop/GD32VW553/V1_MQTT_OK/GD32VW55X_Wifi_BLE_SDK/GD32VW55x_RELEASE_V1.0.2/MSDK/cloud/alicloud/src/services/linkkit/cm\iotx_cm_mqtt.c **** {
 397:C:/Users/stapi/OneDrive/Desktop/GD32VW553/V1_MQTT_OK/GD32VW55X_Wifi_BLE_SDK/GD32VW55x_RELEASE_V1.0.2/MSDK/cloud/alicloud/src/services/linkkit/cm\iotx_cm_mqtt.c ****     if (_mqtt_conncection != NULL) {
 1486              		.loc 1 397 5
 398:C:/Users/stapi/OneDrive/Desktop/GD32VW553/V1_MQTT_OK/GD32VW55X_Wifi_BLE_SDK/GD32VW55x_RELEASE_V1.0.2/MSDK/cloud/alicloud/src/services/linkkit/cm\iotx_cm_mqtt.c ****         _mqtt_conncection->connect_func = _mqtt_connect;
 1487              		.loc 1 398 9
 1488              		.loc 1 398 41 is_stmt 0
 1489 014c B7070000 		lui	a5,%hi(_mqtt_connect)
 1490 0150 93870700 		addi	a5,a5,%lo(_mqtt_connect)
 1491 0154 5CC9     		sw	a5,20(a0)
 399:C:/Users/stapi/OneDrive/Desktop/GD32VW553/V1_MQTT_OK/GD32VW55X_Wifi_BLE_SDK/GD32VW55x_RELEASE_V1.0.2/MSDK/cloud/alicloud/src/services/linkkit/cm\iotx_cm_mqtt.c ****         _mqtt_conncection->sub_func = _mqtt_sub;
 1492              		.loc 1 399 9 is_stmt 1
 1493              		.loc 1 399 37 is_stmt 0
 1494 0156 B7070000 		lui	a5,%hi(_mqtt_sub)
 1495 015a 93870700 		addi	a5,a5,%lo(_mqtt_sub)
 1496 015e 1CCD     		sw	a5,24(a0)
 400:C:/Users/stapi/OneDrive/Desktop/GD32VW553/V1_MQTT_OK/GD32VW55X_Wifi_BLE_SDK/GD32VW55x_RELEASE_V1.0.2/MSDK/cloud/alicloud/src/services/linkkit/cm\iotx_cm_mqtt.c ****         _mqtt_conncection->unsub_func = _mqtt_unsub;
 1497              		.loc 1 400 9 is_stmt 1
 1498              		.loc 1 400 39 is_stmt 0
 1499 0160 B7070000 		lui	a5,%hi(_mqtt_unsub)
 1500 0164 93870700 		addi	a5,a5,%lo(_mqtt_unsub)
 1501 0168 5CCD     		sw	a5,28(a0)
 401:C:/Users/stapi/OneDrive/Desktop/GD32VW553/V1_MQTT_OK/GD32VW55X_Wifi_BLE_SDK/GD32VW55x_RELEASE_V1.0.2/MSDK/cloud/alicloud/src/services/linkkit/cm\iotx_cm_mqtt.c ****         _mqtt_conncection->pub_func = _mqtt_publish;
 1502              		.loc 1 401 9 is_stmt 1
 1503              		.loc 1 401 37 is_stmt 0
 1504 016a B7070000 		lui	a5,%hi(_mqtt_publish)
 1505 016e 93870700 		addi	a5,a5,%lo(_mqtt_publish)
 1506 0172 1CD1     		sw	a5,32(a0)
 402:C:/Users/stapi/OneDrive/Desktop/GD32VW553/V1_MQTT_OK/GD32VW55X_Wifi_BLE_SDK/GD32VW55x_RELEASE_V1.0.2/MSDK/cloud/alicloud/src/services/linkkit/cm\iotx_cm_mqtt.c ****         _mqtt_conncection->yield_func = (iotx_cm_yield_fp)_mqtt_yield;
 1507              		.loc 1 402 9 is_stmt 1
 1508              		.loc 1 402 39 is_stmt 0
 1509 0174 B7070000 		lui	a5,%hi(_mqtt_yield)
 1510 0178 93870700 		addi	a5,a5,%lo(_mqtt_yield)
 1511 017c 5CD1     		sw	a5,36(a0)
 403:C:/Users/stapi/OneDrive/Desktop/GD32VW553/V1_MQTT_OK/GD32VW55X_Wifi_BLE_SDK/GD32VW55x_RELEASE_V1.0.2/MSDK/cloud/alicloud/src/services/linkkit/cm\iotx_cm_mqtt.c ****         _mqtt_conncection->close_func = _mqtt_close;
 1512              		.loc 1 403 9 is_stmt 1
 1513              		.loc 1 403 39 is_stmt 0
 1514 017e B7070000 		lui	a5,%hi(_mqtt_close)
 1515 0182 93870700 		addi	a5,a5,%lo(_mqtt_close)
 1516 0186 1CD5     		sw	a5,40(a0)
 1517 0188 C9B5     		j	.L131
 1518              	.LBE37:
 1519              	.LBE36:
 1520              		.cfi_endproc
 1521              	.LFE20:
 1523              		.section	.sbss._mqtt_conncection,"aw",@nobits
 1524              		.align	2
 1525              		.set	.LANCHOR0,. + 0
 1528              	_mqtt_conncection:
 1529 0000 00000000 		.zero	4
 1530              		.text
 1531              	.Letext0:
 1532              		.file 2 "c:\\users\\stapi\\onedrive\\desktop\\gd32vw553\\embeddedbuilder_v1.4.7.26843\\tools\\nucl
 1533              		.file 3 "c:\\users\\stapi\\onedrive\\desktop\\gd32vw553\\embeddedbuilder_v1.4.7.26843\\tools\\nucl
 1534              		.file 4 "..\\..\\..\\..\\cloud\\alicloud\\include/iot_export.h"
 1535              		.file 5 "..\\..\\..\\..\\cloud\\alicloud\\include/exports/iot_export_mqtt.h"
 1536              		.file 6 "..\\..\\..\\..\\cloud\\alicloud\\src\\services\\linkkit\\cm\\include/iotx_cm.h"
 1537              		.file 7 "..\\..\\..\\..\\cloud\\alicloud\\include/exports/iot_export_errno.h"
 1538              		.file 8 "..\\..\\..\\..\\cloud\\alicloud\\src\\infra\\utils\\misc/utils_timer.h"
 1539              		.file 9 "C:/Users/stapi/OneDrive/Desktop/GD32VW553/V1_MQTT_OK/GD32VW55X_Wifi_BLE_SDK/GD32VW55x_REL
 1540              		.file 10 "..\\..\\..\\..\\cloud\\alicloud\\include/iot_import.h"
 1541              		.file 11 "..\\..\\..\\..\\cloud\\alicloud\\include/exports/iot_export_guider.h"
 1542              		.file 12 "..\\..\\..\\..\\cloud\\alicloud\\include/imports/iot_import_product.h"
 1543              		.file 13 "..\\..\\..\\..\\cloud\\alicloud\\src\\infra\\utils/iotx_utils.h"
 1544              		.file 14 "<built-in>"
DEFINED SYMBOLS
                            *ABS*:0000000000000000 iotx_cm_mqtt.c
C:\Users\stapi\AppData\Local\Temp\ccIVPyy5.s:43     .text.iotx_cloud_conn_mqtt_event_handle:0000000000000000 iotx_cloud_conn_mqtt_event_handle
C:\Users\stapi\AppData\Local\Temp\ccIVPyy5.s:47     .text.iotx_cloud_conn_mqtt_event_handle:0000000000000000 .L0 
C:\Users\stapi\AppData\Local\Temp\ccIVPyy5.s:49     .text.iotx_cloud_conn_mqtt_event_handle:0000000000000000 .L0 
C:\Users\stapi\AppData\Local\Temp\ccIVPyy5.s:50     .text.iotx_cloud_conn_mqtt_event_handle:0000000000000008 .L0 
C:\Users\stapi\AppData\Local\Temp\ccIVPyy5.s:51     .text.iotx_cloud_conn_mqtt_event_handle:0000000000000008 .L0 
C:\Users\stapi\AppData\Local\Temp\ccIVPyy5.s:52     .text.iotx_cloud_conn_mqtt_event_handle:0000000000000008 .L0 
C:\Users\stapi\AppData\Local\Temp\ccIVPyy5.s:53     .text.iotx_cloud_conn_mqtt_event_handle:0000000000000008 .L0 
C:\Users\stapi\AppData\Local\Temp\ccIVPyy5.s:54     .text.iotx_cloud_conn_mqtt_event_handle:0000000000000008 .L0 
C:\Users\stapi\AppData\Local\Temp\ccIVPyy5.s:55     .text.iotx_cloud_conn_mqtt_event_handle:0000000000000008 .L0 
C:\Users\stapi\AppData\Local\Temp\ccIVPyy5.s:58     .text.iotx_cloud_conn_mqtt_event_handle:0000000000000008 .L0 
C:\Users\stapi\AppData\Local\Temp\ccIVPyy5.s:59     .text.iotx_cloud_conn_mqtt_event_handle:0000000000000008 .L0 
C:\Users\stapi\AppData\Local\Temp\ccIVPyy5.s:60     .text.iotx_cloud_conn_mqtt_event_handle:0000000000000008 .L0 
C:\Users\stapi\AppData\Local\Temp\ccIVPyy5.s:63     .text.iotx_cloud_conn_mqtt_event_handle:0000000000000010 .L0 
C:\Users\stapi\AppData\Local\Temp\ccIVPyy5.s:64     .text.iotx_cloud_conn_mqtt_event_handle:0000000000000012 .L0 
C:\Users\stapi\AppData\Local\Temp\ccIVPyy5.s:66     .text.iotx_cloud_conn_mqtt_event_handle:0000000000000012 .L0 
C:\Users\stapi\AppData\Local\Temp\ccIVPyy5.s:70     .text.iotx_cloud_conn_mqtt_event_handle:0000000000000018 .L0 
C:\Users\stapi\AppData\Local\Temp\ccIVPyy5.s:72     .text.iotx_cloud_conn_mqtt_event_handle:000000000000001a .L0 
C:\Users\stapi\AppData\Local\Temp\ccIVPyy5.s:102    .text.iotx_cloud_conn_mqtt_event_handle:0000000000000036 .L0 
C:\Users\stapi\AppData\Local\Temp\ccIVPyy5.s:103    .text.iotx_cloud_conn_mqtt_event_handle:0000000000000036 .L0 
C:\Users\stapi\AppData\Local\Temp\ccIVPyy5.s:109    .text.iotx_cloud_conn_mqtt_event_handle:0000000000000046 .L0 
C:\Users\stapi\AppData\Local\Temp\ccIVPyy5.s:116    .text.iotx_cloud_conn_mqtt_event_handle:000000000000005a .L0 
C:\Users\stapi\AppData\Local\Temp\ccIVPyy5.s:121    .text.iotx_cloud_conn_mqtt_event_handle:000000000000006a .L0 
C:\Users\stapi\AppData\Local\Temp\ccIVPyy5.s:122    .text.iotx_cloud_conn_mqtt_event_handle:000000000000006a .L0 
C:\Users\stapi\AppData\Local\Temp\ccIVPyy5.s:123    .text.iotx_cloud_conn_mqtt_event_handle:000000000000006a .L0 
C:\Users\stapi\AppData\Local\Temp\ccIVPyy5.s:124    .text.iotx_cloud_conn_mqtt_event_handle:000000000000006a .L0 
C:\Users\stapi\AppData\Local\Temp\ccIVPyy5.s:130    .text.iotx_cloud_conn_mqtt_event_handle:000000000000006e .L0 
C:\Users\stapi\AppData\Local\Temp\ccIVPyy5.s:131    .text.iotx_cloud_conn_mqtt_event_handle:000000000000006e .L0 
C:\Users\stapi\AppData\Local\Temp\ccIVPyy5.s:132    .text.iotx_cloud_conn_mqtt_event_handle:000000000000006e .L0 
C:\Users\stapi\AppData\Local\Temp\ccIVPyy5.s:134    .text.iotx_cloud_conn_mqtt_event_handle:0000000000000070 .L0 
C:\Users\stapi\AppData\Local\Temp\ccIVPyy5.s:139    .text.iotx_cloud_conn_mqtt_event_handle:0000000000000072 .L0 
C:\Users\stapi\AppData\Local\Temp\ccIVPyy5.s:140    .text.iotx_cloud_conn_mqtt_event_handle:0000000000000072 .L0 
C:\Users\stapi\AppData\Local\Temp\ccIVPyy5.s:141    .text.iotx_cloud_conn_mqtt_event_handle:0000000000000072 .L0 
C:\Users\stapi\AppData\Local\Temp\ccIVPyy5.s:143    .text.iotx_cloud_conn_mqtt_event_handle:0000000000000074 .L0 
C:\Users\stapi\AppData\Local\Temp\ccIVPyy5.s:145    .text.iotx_cloud_conn_mqtt_event_handle:0000000000000076 .L0 
C:\Users\stapi\AppData\Local\Temp\ccIVPyy5.s:153    .text.iotx_cloud_conn_mqtt_event_handle:000000000000007e .L0 
C:\Users\stapi\AppData\Local\Temp\ccIVPyy5.s:154    .text.iotx_cloud_conn_mqtt_event_handle:000000000000007e .L0 
C:\Users\stapi\AppData\Local\Temp\ccIVPyy5.s:155    .text.iotx_cloud_conn_mqtt_event_handle:0000000000000080 .L0 
C:\Users\stapi\AppData\Local\Temp\ccIVPyy5.s:156    .text.iotx_cloud_conn_mqtt_event_handle:0000000000000080 .L0 
C:\Users\stapi\AppData\Local\Temp\ccIVPyy5.s:158    .text.iotx_cloud_conn_mqtt_event_handle:0000000000000088 .L0 
C:\Users\stapi\AppData\Local\Temp\ccIVPyy5.s:159    .text.iotx_cloud_conn_mqtt_event_handle:0000000000000088 .L0 
C:\Users\stapi\AppData\Local\Temp\ccIVPyy5.s:160    .text.iotx_cloud_conn_mqtt_event_handle:0000000000000088 .L0 
C:\Users\stapi\AppData\Local\Temp\ccIVPyy5.s:161    .text.iotx_cloud_conn_mqtt_event_handle:0000000000000088 .L0 
C:\Users\stapi\AppData\Local\Temp\ccIVPyy5.s:162    .text.iotx_cloud_conn_mqtt_event_handle:0000000000000088 .L0 
C:\Users\stapi\AppData\Local\Temp\ccIVPyy5.s:163    .text.iotx_cloud_conn_mqtt_event_handle:0000000000000088 .L0 
C:\Users\stapi\AppData\Local\Temp\ccIVPyy5.s:166    .text.iotx_cloud_conn_mqtt_event_handle:0000000000000088 .L0 
C:\Users\stapi\AppData\Local\Temp\ccIVPyy5.s:169    .text.iotx_cloud_conn_mqtt_event_handle:0000000000000088 .L0 
C:\Users\stapi\AppData\Local\Temp\ccIVPyy5.s:170    .text.iotx_cloud_conn_mqtt_event_handle:0000000000000088 .L0 
C:\Users\stapi\AppData\Local\Temp\ccIVPyy5.s:176    .text.iotx_cloud_conn_mqtt_event_handle:0000000000000098 .L0 
C:\Users\stapi\AppData\Local\Temp\ccIVPyy5.s:183    .text.iotx_cloud_conn_mqtt_event_handle:00000000000000ac .L0 
C:\Users\stapi\AppData\Local\Temp\ccIVPyy5.s:188    .text.iotx_cloud_conn_mqtt_event_handle:00000000000000bc .L0 
C:\Users\stapi\AppData\Local\Temp\ccIVPyy5.s:189    .text.iotx_cloud_conn_mqtt_event_handle:00000000000000bc .L0 
C:\Users\stapi\AppData\Local\Temp\ccIVPyy5.s:190    .text.iotx_cloud_conn_mqtt_event_handle:00000000000000bc .L0 
C:\Users\stapi\AppData\Local\Temp\ccIVPyy5.s:191    .text.iotx_cloud_conn_mqtt_event_handle:00000000000000bc .L0 
C:\Users\stapi\AppData\Local\Temp\ccIVPyy5.s:198    .text.iotx_cloud_conn_mqtt_event_handle:00000000000000c0 .L0 
C:\Users\stapi\AppData\Local\Temp\ccIVPyy5.s:199    .text.iotx_cloud_conn_mqtt_event_handle:00000000000000c0 .L0 
C:\Users\stapi\AppData\Local\Temp\ccIVPyy5.s:200    .text.iotx_cloud_conn_mqtt_event_handle:00000000000000c0 .L0 
C:\Users\stapi\AppData\Local\Temp\ccIVPyy5.s:205    .text.iotx_cloud_conn_mqtt_event_handle:00000000000000c2 .L0 
C:\Users\stapi\AppData\Local\Temp\ccIVPyy5.s:207    .text.iotx_cloud_conn_mqtt_event_handle:00000000000000c4 .L0 
C:\Users\stapi\AppData\Local\Temp\ccIVPyy5.s:208    .text.iotx_cloud_conn_mqtt_event_handle:00000000000000c4 .L0 
C:\Users\stapi\AppData\Local\Temp\ccIVPyy5.s:214    .text.iotx_cloud_conn_mqtt_event_handle:00000000000000c8 .L0 
C:\Users\stapi\AppData\Local\Temp\ccIVPyy5.s:215    .text.iotx_cloud_conn_mqtt_event_handle:00000000000000c8 .L0 
C:\Users\stapi\AppData\Local\Temp\ccIVPyy5.s:216    .text.iotx_cloud_conn_mqtt_event_handle:00000000000000c8 .L0 
C:\Users\stapi\AppData\Local\Temp\ccIVPyy5.s:222    .text.iotx_cloud_conn_mqtt_event_handle:00000000000000cc .L0 
C:\Users\stapi\AppData\Local\Temp\ccIVPyy5.s:223    .text.iotx_cloud_conn_mqtt_event_handle:00000000000000cc .L0 
C:\Users\stapi\AppData\Local\Temp\ccIVPyy5.s:224    .text.iotx_cloud_conn_mqtt_event_handle:00000000000000cc .L0 
C:\Users\stapi\AppData\Local\Temp\ccIVPyy5.s:230    .text.iotx_cloud_conn_mqtt_event_handle:00000000000000d0 .L0 
C:\Users\stapi\AppData\Local\Temp\ccIVPyy5.s:231    .text.iotx_cloud_conn_mqtt_event_handle:00000000000000d0 .L0 
C:\Users\stapi\AppData\Local\Temp\ccIVPyy5.s:232    .text.iotx_cloud_conn_mqtt_event_handle:00000000000000d0 .L0 
C:\Users\stapi\AppData\Local\Temp\ccIVPyy5.s:238    .text.iotx_cloud_conn_mqtt_event_handle:00000000000000d4 .L0 
C:\Users\stapi\AppData\Local\Temp\ccIVPyy5.s:239    .text.iotx_cloud_conn_mqtt_event_handle:00000000000000d4 .L0 
C:\Users\stapi\AppData\Local\Temp\ccIVPyy5.s:240    .text.iotx_cloud_conn_mqtt_event_handle:00000000000000d4 .L0 
C:\Users\stapi\AppData\Local\Temp\ccIVPyy5.s:246    .text.iotx_cloud_conn_mqtt_event_handle:00000000000000d8 .L0 
C:\Users\stapi\AppData\Local\Temp\ccIVPyy5.s:247    .text.iotx_cloud_conn_mqtt_event_handle:00000000000000d8 .L0 
C:\Users\stapi\AppData\Local\Temp\ccIVPyy5.s:248    .text.iotx_cloud_conn_mqtt_event_handle:00000000000000d8 .L0 
C:\Users\stapi\AppData\Local\Temp\ccIVPyy5.s:256    .text.iotx_cloud_conn_mqtt_event_handle:00000000000000de .L0 
C:\Users\stapi\AppData\Local\Temp\ccIVPyy5.s:257    .text.iotx_cloud_conn_mqtt_event_handle:00000000000000de .L0 
C:\Users\stapi\AppData\Local\Temp\ccIVPyy5.s:258    .text.iotx_cloud_conn_mqtt_event_handle:00000000000000de .L0 
C:\Users\stapi\AppData\Local\Temp\ccIVPyy5.s:259    .text.iotx_cloud_conn_mqtt_event_handle:00000000000000de .L0 
C:\Users\stapi\AppData\Local\Temp\ccIVPyy5.s:262    .text.iotx_cloud_conn_mqtt_event_handle:00000000000000e0 .L0 
C:\Users\stapi\AppData\Local\Temp\ccIVPyy5.s:263    .text.iotx_cloud_conn_mqtt_event_handle:00000000000000e0 .L0 
C:\Users\stapi\AppData\Local\Temp\ccIVPyy5.s:269    .text.iotx_cloud_conn_mqtt_event_handle:00000000000000f0 .L0 
C:\Users\stapi\AppData\Local\Temp\ccIVPyy5.s:274    .text.iotx_cloud_conn_mqtt_event_handle:00000000000000f8 .L0 
C:\Users\stapi\AppData\Local\Temp\ccIVPyy5.s:279    .text.iotx_cloud_conn_mqtt_event_handle:0000000000000100 .L0 
C:\Users\stapi\AppData\Local\Temp\ccIVPyy5.s:280    .text.iotx_cloud_conn_mqtt_event_handle:0000000000000100 .L0 
C:\Users\stapi\AppData\Local\Temp\ccIVPyy5.s:285    .text.iotx_cloud_conn_mqtt_event_handle:0000000000000110 .L0 
C:\Users\stapi\AppData\Local\Temp\ccIVPyy5.s:286    .text.iotx_cloud_conn_mqtt_event_handle:0000000000000110 .L0 
C:\Users\stapi\AppData\Local\Temp\ccIVPyy5.s:291    .text.iotx_cloud_conn_mqtt_event_handle:0000000000000112 .L0 
C:\Users\stapi\AppData\Local\Temp\ccIVPyy5.s:292    .text.iotx_cloud_conn_mqtt_event_handle:0000000000000112 .L0 
C:\Users\stapi\AppData\Local\Temp\ccIVPyy5.s:304    .text.iotx_cloud_conn_mqtt_event_handle:0000000000000126 .L0 
C:\Users\stapi\AppData\Local\Temp\ccIVPyy5.s:305    .text.iotx_cloud_conn_mqtt_event_handle:0000000000000126 .L0 
C:\Users\stapi\AppData\Local\Temp\ccIVPyy5.s:307    .text.iotx_cloud_conn_mqtt_event_handle:0000000000000128 .L0 
C:\Users\stapi\AppData\Local\Temp\ccIVPyy5.s:308    .text.iotx_cloud_conn_mqtt_event_handle:0000000000000128 .L0 
C:\Users\stapi\AppData\Local\Temp\ccIVPyy5.s:314    .text.iotx_cloud_conn_mqtt_event_handle:0000000000000138 .L0 
C:\Users\stapi\AppData\Local\Temp\ccIVPyy5.s:320    .text.iotx_cloud_conn_mqtt_event_handle:0000000000000142 .L0 
C:\Users\stapi\AppData\Local\Temp\ccIVPyy5.s:321    .text.iotx_cloud_conn_mqtt_event_handle:0000000000000142 .L0 
C:\Users\stapi\AppData\Local\Temp\ccIVPyy5.s:323    .text.iotx_cloud_conn_mqtt_event_handle:0000000000000146 .L0 
C:\Users\stapi\AppData\Local\Temp\ccIVPyy5.s:328    .text.iotx_cloud_conn_mqtt_event_handle:0000000000000152 .L0 
C:\Users\stapi\AppData\Local\Temp\ccIVPyy5.s:334    .text.iotx_cloud_conn_mqtt_event_handle:0000000000000162 .L0 
C:\Users\stapi\AppData\Local\Temp\ccIVPyy5.s:343    .text.iotx_cloud_conn_mqtt_event_handle:0000000000000170 .L0 
C:\Users\stapi\AppData\Local\Temp\ccIVPyy5.s:348    .text.iotx_cloud_conn_mqtt_event_handle:000000000000017a .L0 
C:\Users\stapi\AppData\Local\Temp\ccIVPyy5.s:352    .text.iotx_cloud_conn_mqtt_event_handle:000000000000017c .L0 
C:\Users\stapi\AppData\Local\Temp\ccIVPyy5.s:353    .text.iotx_cloud_conn_mqtt_event_handle:000000000000017c .L0 
C:\Users\stapi\AppData\Local\Temp\ccIVPyy5.s:359    .text.iotx_cloud_conn_mqtt_event_handle:000000000000018c .L0 
C:\Users\stapi\AppData\Local\Temp\ccIVPyy5.s:364    .text.iotx_cloud_conn_mqtt_event_handle:0000000000000198 .L0 
C:\Users\stapi\AppData\Local\Temp\ccIVPyy5.s:370    .text.iotx_cloud_conn_mqtt_event_handle:00000000000001a2 .L0 
C:\Users\stapi\AppData\Local\Temp\ccIVPyy5.s:371    .text.iotx_cloud_conn_mqtt_event_handle:00000000000001a2 .L0 
C:\Users\stapi\AppData\Local\Temp\ccIVPyy5.s:377    .text.iotx_cloud_conn_mqtt_event_handle:00000000000001b2 .L0 
C:\Users\stapi\AppData\Local\Temp\ccIVPyy5.s:381    .text.iotx_cloud_conn_mqtt_event_handle:00000000000001c0 .L0 
C:\Users\stapi\AppData\Local\Temp\ccIVPyy5.s:400    .text._mqtt_sub:0000000000000000 _mqtt_sub
C:\Users\stapi\AppData\Local\Temp\ccIVPyy5.s:403    .text._mqtt_sub:0000000000000000 .L0 
C:\Users\stapi\AppData\Local\Temp\ccIVPyy5.s:405    .text._mqtt_sub:0000000000000000 .L0 
C:\Users\stapi\AppData\Local\Temp\ccIVPyy5.s:406    .text._mqtt_sub:0000000000000008 .L0 
C:\Users\stapi\AppData\Local\Temp\ccIVPyy5.s:407    .text._mqtt_sub:0000000000000008 .L0 
C:\Users\stapi\AppData\Local\Temp\ccIVPyy5.s:408    .text._mqtt_sub:0000000000000008 .L0 
C:\Users\stapi\AppData\Local\Temp\ccIVPyy5.s:411    .text._mqtt_sub:0000000000000008 .L0 
C:\Users\stapi\AppData\Local\Temp\ccIVPyy5.s:412    .text._mqtt_sub:0000000000000008 .L0 
C:\Users\stapi\AppData\Local\Temp\ccIVPyy5.s:413    .text._mqtt_sub:0000000000000008 .L0 
C:\Users\stapi\AppData\Local\Temp\ccIVPyy5.s:414    .text._mqtt_sub:0000000000000008 .L0 
C:\Users\stapi\AppData\Local\Temp\ccIVPyy5.s:415    .text._mqtt_sub:0000000000000008 .L0 
C:\Users\stapi\AppData\Local\Temp\ccIVPyy5.s:416    .text._mqtt_sub:0000000000000008 .L0 
C:\Users\stapi\AppData\Local\Temp\ccIVPyy5.s:422    .text._mqtt_sub:0000000000000014 .L0 
C:\Users\stapi\AppData\Local\Temp\ccIVPyy5.s:423    .text._mqtt_sub:0000000000000014 .L0 
C:\Users\stapi\AppData\Local\Temp\ccIVPyy5.s:429    .text._mqtt_sub:0000000000000024 .L0 
C:\Users\stapi\AppData\Local\Temp\ccIVPyy5.s:434    .text._mqtt_sub:000000000000002e .L0 
C:\Users\stapi\AppData\Local\Temp\ccIVPyy5.s:439    .text._mqtt_sub:000000000000003e .L0 
C:\Users\stapi\AppData\Local\Temp\ccIVPyy5.s:444    .text._mqtt_sub:000000000000004e .L0 
C:\Users\stapi\AppData\Local\Temp\ccIVPyy5.s:445    .text._mqtt_sub:000000000000004e .L0 
C:\Users\stapi\AppData\Local\Temp\ccIVPyy5.s:449    .text._mqtt_sub:0000000000000050 .L0 
C:\Users\stapi\AppData\Local\Temp\ccIVPyy5.s:450    .text._mqtt_sub:0000000000000058 .L0 
C:\Users\stapi\AppData\Local\Temp\ccIVPyy5.s:451    .text._mqtt_sub:0000000000000058 .L0 
C:\Users\stapi\AppData\Local\Temp\ccIVPyy5.s:452    .text._mqtt_sub:0000000000000058 .L0 
C:\Users\stapi\AppData\Local\Temp\ccIVPyy5.s:453    .text._mqtt_sub:0000000000000058 .L0 
C:\Users\stapi\AppData\Local\Temp\ccIVPyy5.s:456    .text._mqtt_sub:0000000000000058 .L0 
C:\Users\stapi\AppData\Local\Temp\ccIVPyy5.s:458    .text._mqtt_sub:0000000000000058 .L0 
C:\Users\stapi\AppData\Local\Temp\ccIVPyy5.s:459    .text._mqtt_sub:0000000000000058 .L0 
C:\Users\stapi\AppData\Local\Temp\ccIVPyy5.s:460    .text._mqtt_sub:0000000000000058 .L0 
C:\Users\stapi\AppData\Local\Temp\ccIVPyy5.s:462    .text._mqtt_sub:000000000000005a .L0 
C:\Users\stapi\AppData\Local\Temp\ccIVPyy5.s:463    .text._mqtt_sub:000000000000005a .L0 
C:\Users\stapi\AppData\Local\Temp\ccIVPyy5.s:469    .text._mqtt_sub:000000000000006a .L0 
C:\Users\stapi\AppData\Local\Temp\ccIVPyy5.s:477    .text._mqtt_sub:0000000000000078 .L0 
C:\Users\stapi\AppData\Local\Temp\ccIVPyy5.s:478    .text._mqtt_sub:0000000000000078 .L0 
C:\Users\stapi\AppData\Local\Temp\ccIVPyy5.s:479    .text._mqtt_sub:0000000000000078 .L0 
C:\Users\stapi\AppData\Local\Temp\ccIVPyy5.s:481    .text._mqtt_sub:000000000000007a .L0 
C:\Users\stapi\AppData\Local\Temp\ccIVPyy5.s:482    .text._mqtt_sub:000000000000007a .L0 
C:\Users\stapi\AppData\Local\Temp\ccIVPyy5.s:488    .text._mqtt_sub:000000000000008a .L0 
C:\Users\stapi\AppData\Local\Temp\ccIVPyy5.s:496    .text._mqtt_sub:0000000000000098 .L0 
C:\Users\stapi\AppData\Local\Temp\ccIVPyy5.s:497    .text._mqtt_sub:0000000000000098 .L0 
C:\Users\stapi\AppData\Local\Temp\ccIVPyy5.s:501    .text._mqtt_sub:000000000000009e .L0 
C:\Users\stapi\AppData\Local\Temp\ccIVPyy5.s:503    .text._mqtt_sub:00000000000000a2 .L0 
C:\Users\stapi\AppData\Local\Temp\ccIVPyy5.s:504    .text._mqtt_sub:00000000000000a2 .L0 
C:\Users\stapi\AppData\Local\Temp\ccIVPyy5.s:507    .text._mqtt_sub:00000000000000a6 .L0 
C:\Users\stapi\AppData\Local\Temp\ccIVPyy5.s:509    .text._mqtt_sub:00000000000000a8 .L0 
C:\Users\stapi\AppData\Local\Temp\ccIVPyy5.s:512    .text._mqtt_sub:00000000000000aa .L0 
C:\Users\stapi\AppData\Local\Temp\ccIVPyy5.s:513    .text._mqtt_sub:00000000000000aa .L0 
C:\Users\stapi\AppData\Local\Temp\ccIVPyy5.s:514    .text._mqtt_sub:00000000000000aa .L0 
C:\Users\stapi\AppData\Local\Temp\ccIVPyy5.s:517    .text._mqtt_sub:00000000000000ae .L0 
C:\Users\stapi\AppData\Local\Temp\ccIVPyy5.s:521    .text._mqtt_sub:00000000000000b0 .L0 
C:\Users\stapi\AppData\Local\Temp\ccIVPyy5.s:522    .text._mqtt_sub:00000000000000b0 .L0 
C:\Users\stapi\AppData\Local\Temp\ccIVPyy5.s:527    .text._mqtt_sub:00000000000000b4 .L0 
C:\Users\stapi\AppData\Local\Temp\ccIVPyy5.s:533    .text._mqtt_sub:00000000000000c0 .L0 
C:\Users\stapi\AppData\Local\Temp\ccIVPyy5.s:539    .text._mqtt_sub:00000000000000c2 .L0 
C:\Users\stapi\AppData\Local\Temp\ccIVPyy5.s:540    .text._mqtt_sub:00000000000000c2 .L0 
C:\Users\stapi\AppData\Local\Temp\ccIVPyy5.s:543    .text._mqtt_sub:00000000000000c6 .L0 
C:\Users\stapi\AppData\Local\Temp\ccIVPyy5.s:544    .text._mqtt_sub:00000000000000c6 .L0 
C:\Users\stapi\AppData\Local\Temp\ccIVPyy5.s:553    .text._mqtt_sub:00000000000000d4 .L0 
C:\Users\stapi\AppData\Local\Temp\ccIVPyy5.s:561    .text._mqtt_sub:00000000000000d8 .L0 
C:\Users\stapi\AppData\Local\Temp\ccIVPyy5.s:565    .text._mqtt_sub:00000000000000da .L0 
C:\Users\stapi\AppData\Local\Temp\ccIVPyy5.s:566    .text._mqtt_sub:00000000000000da .L0 
C:\Users\stapi\AppData\Local\Temp\ccIVPyy5.s:570    .text._mqtt_sub:00000000000000e8 .L0 
C:\Users\stapi\AppData\Local\Temp\ccIVPyy5.s:595    .text._mqtt_connect:0000000000000000 _mqtt_connect
C:\Users\stapi\AppData\Local\Temp\ccIVPyy5.s:598    .text._mqtt_connect:0000000000000000 .L0 
C:\Users\stapi\AppData\Local\Temp\ccIVPyy5.s:600    .text._mqtt_connect:0000000000000000 .L0 
C:\Users\stapi\AppData\Local\Temp\ccIVPyy5.s:601    .text._mqtt_connect:0000000000000008 .L0 
C:\Users\stapi\AppData\Local\Temp\ccIVPyy5.s:602    .text._mqtt_connect:0000000000000008 .L0 
C:\Users\stapi\AppData\Local\Temp\ccIVPyy5.s:603    .text._mqtt_connect:0000000000000008 .L0 
C:\Users\stapi\AppData\Local\Temp\ccIVPyy5.s:604    .text._mqtt_connect:0000000000000008 .L0 
C:\Users\stapi\AppData\Local\Temp\ccIVPyy5.s:605    .text._mqtt_connect:0000000000000008 .L0 
C:\Users\stapi\AppData\Local\Temp\ccIVPyy5.s:606    .text._mqtt_connect:0000000000000008 .L0 
C:\Users\stapi\AppData\Local\Temp\ccIVPyy5.s:608    .text._mqtt_connect:0000000000000008 .L0 
C:\Users\stapi\AppData\Local\Temp\ccIVPyy5.s:609    .text._mqtt_connect:0000000000000008 .L0 
C:\Users\stapi\AppData\Local\Temp\ccIVPyy5.s:611    .text._mqtt_connect:0000000000000008 .L0 
C:\Users\stapi\AppData\Local\Temp\ccIVPyy5.s:612    .text._mqtt_connect:0000000000000008 .L0 
C:\Users\stapi\AppData\Local\Temp\ccIVPyy5.s:613    .text._mqtt_connect:0000000000000008 .L0 
C:\Users\stapi\AppData\Local\Temp\ccIVPyy5.s:614    .text._mqtt_connect:000000000000000a .L0 
C:\Users\stapi\AppData\Local\Temp\ccIVPyy5.s:616    .text._mqtt_connect:000000000000000a .L0 
C:\Users\stapi\AppData\Local\Temp\ccIVPyy5.s:619    .text._mqtt_connect:000000000000000e .L0 
C:\Users\stapi\AppData\Local\Temp\ccIVPyy5.s:621    .text._mqtt_connect:0000000000000010 .L0 
C:\Users\stapi\AppData\Local\Temp\ccIVPyy5.s:624    .text._mqtt_connect:0000000000000012 .L0 
C:\Users\stapi\AppData\Local\Temp\ccIVPyy5.s:627    .text._mqtt_connect:0000000000000014 .L0 
C:\Users\stapi\AppData\Local\Temp\ccIVPyy5.s:628    .text._mqtt_connect:0000000000000014 .L0 
C:\Users\stapi\AppData\Local\Temp\ccIVPyy5.s:629    .text._mqtt_connect:0000000000000014 .L0 
C:\Users\stapi\AppData\Local\Temp\ccIVPyy5.s:630    .text._mqtt_connect:0000000000000014 .L0 
C:\Users\stapi\AppData\Local\Temp\ccIVPyy5.s:637    .text._mqtt_connect:0000000000000022 .L0 
C:\Users\stapi\AppData\Local\Temp\ccIVPyy5.s:638    .text._mqtt_connect:0000000000000022 .L0 
C:\Users\stapi\AppData\Local\Temp\ccIVPyy5.s:642    .text._mqtt_connect:000000000000002c .L0 
C:\Users\stapi\AppData\Local\Temp\ccIVPyy5.s:643    .text._mqtt_connect:000000000000002c .L0 
C:\Users\stapi\AppData\Local\Temp\ccIVPyy5.s:650    .text._mqtt_connect:000000000000003e .L0 
C:\Users\stapi\AppData\Local\Temp\ccIVPyy5.s:651    .text._mqtt_connect:000000000000003e .L0 
C:\Users\stapi\AppData\Local\Temp\ccIVPyy5.s:655    .text._mqtt_connect:0000000000000046 .L0 
C:\Users\stapi\AppData\Local\Temp\ccIVPyy5.s:657    .text._mqtt_connect:000000000000004a .L0 
C:\Users\stapi\AppData\Local\Temp\ccIVPyy5.s:659    .text._mqtt_connect:000000000000004c .L0 
C:\Users\stapi\AppData\Local\Temp\ccIVPyy5.s:661    .text._mqtt_connect:0000000000000050 .L0 
C:\Users\stapi\AppData\Local\Temp\ccIVPyy5.s:664    .text._mqtt_connect:0000000000000058 .L0 
C:\Users\stapi\AppData\Local\Temp\ccIVPyy5.s:665    .text._mqtt_connect:0000000000000058 .L0 
C:\Users\stapi\AppData\Local\Temp\ccIVPyy5.s:668    .text._mqtt_connect:000000000000005c .L0 
C:\Users\stapi\AppData\Local\Temp\ccIVPyy5.s:669    .text._mqtt_connect:000000000000005c .L0 
C:\Users\stapi\AppData\Local\Temp\ccIVPyy5.s:674    .text._mqtt_connect:000000000000006c .L0 
C:\Users\stapi\AppData\Local\Temp\ccIVPyy5.s:680    .text._mqtt_connect:0000000000000076 .L0 
C:\Users\stapi\AppData\Local\Temp\ccIVPyy5.s:685    .text._mqtt_connect:0000000000000086 .L0 
C:\Users\stapi\AppData\Local\Temp\ccIVPyy5.s:690    .text._mqtt_connect:0000000000000096 .L0 
C:\Users\stapi\AppData\Local\Temp\ccIVPyy5.s:691    .text._mqtt_connect:0000000000000096 .L0 
C:\Users\stapi\AppData\Local\Temp\ccIVPyy5.s:695    .text._mqtt_connect:0000000000000098 .L0 
C:\Users\stapi\AppData\Local\Temp\ccIVPyy5.s:697    .text._mqtt_connect:000000000000009c .L0 
C:\Users\stapi\AppData\Local\Temp\ccIVPyy5.s:698    .text._mqtt_connect:000000000000009c .L0 
C:\Users\stapi\AppData\Local\Temp\ccIVPyy5.s:700    .text._mqtt_connect:00000000000000a4 .L0 
C:\Users\stapi\AppData\Local\Temp\ccIVPyy5.s:701    .text._mqtt_connect:00000000000000a4 .L0 
C:\Users\stapi\AppData\Local\Temp\ccIVPyy5.s:702    .text._mqtt_connect:00000000000000a4 .L0 
C:\Users\stapi\AppData\Local\Temp\ccIVPyy5.s:703    .text._mqtt_connect:00000000000000a4 .L0 
C:\Users\stapi\AppData\Local\Temp\ccIVPyy5.s:704    .text._mqtt_connect:00000000000000a4 .L0 
C:\Users\stapi\AppData\Local\Temp\ccIVPyy5.s:705    .text._mqtt_connect:00000000000000a4 .L0 
C:\Users\stapi\AppData\Local\Temp\ccIVPyy5.s:708    .text._mqtt_connect:00000000000000a4 .L0 
C:\Users\stapi\AppData\Local\Temp\ccIVPyy5.s:710    .text._mqtt_connect:00000000000000a4 .L0 
C:\Users\stapi\AppData\Local\Temp\ccIVPyy5.s:711    .text._mqtt_connect:00000000000000a4 .L0 
C:\Users\stapi\AppData\Local\Temp\ccIVPyy5.s:712    .text._mqtt_connect:00000000000000a4 .L0 
C:\Users\stapi\AppData\Local\Temp\ccIVPyy5.s:715    .text._mqtt_connect:00000000000000a6 .L0 
C:\Users\stapi\AppData\Local\Temp\ccIVPyy5.s:716    .text._mqtt_connect:00000000000000a6 .L0 
C:\Users\stapi\AppData\Local\Temp\ccIVPyy5.s:718    .text._mqtt_connect:00000000000000a8 .L0 
C:\Users\stapi\AppData\Local\Temp\ccIVPyy5.s:719    .text._mqtt_connect:00000000000000a8 .L0 
C:\Users\stapi\AppData\Local\Temp\ccIVPyy5.s:724    .text._mqtt_connect:00000000000000b8 .L0 
C:\Users\stapi\AppData\Local\Temp\ccIVPyy5.s:730    .text._mqtt_connect:00000000000000c4 .L0 
C:\Users\stapi\AppData\Local\Temp\ccIVPyy5.s:731    .text._mqtt_connect:00000000000000c4 .L0 
C:\Users\stapi\AppData\Local\Temp\ccIVPyy5.s:734    .text._mqtt_connect:00000000000000cc .L0 
C:\Users\stapi\AppData\Local\Temp\ccIVPyy5.s:738    .text._mqtt_connect:00000000000000d6 .L0 
C:\Users\stapi\AppData\Local\Temp\ccIVPyy5.s:742    .text._mqtt_connect:00000000000000e0 .L0 
C:\Users\stapi\AppData\Local\Temp\ccIVPyy5.s:746    .text._mqtt_connect:00000000000000ea .L0 
C:\Users\stapi\AppData\Local\Temp\ccIVPyy5.s:750    .text._mqtt_connect:00000000000000f4 .L0 
C:\Users\stapi\AppData\Local\Temp\ccIVPyy5.s:751    .text._mqtt_connect:00000000000000f4 .L0 
C:\Users\stapi\AppData\Local\Temp\ccIVPyy5.s:754    .text._mqtt_connect:00000000000000fa .L0 
C:\Users\stapi\AppData\Local\Temp\ccIVPyy5.s:755    .text._mqtt_connect:00000000000000fa .L0 
C:\Users\stapi\AppData\Local\Temp\ccIVPyy5.s:760    .text._mqtt_connect:000000000000010a .L0 
C:\Users\stapi\AppData\Local\Temp\ccIVPyy5.s:764    .text._mqtt_connect:0000000000000112 .L0 
C:\Users\stapi\AppData\Local\Temp\ccIVPyy5.s:770    .text._mqtt_connect:0000000000000122 .L0 
C:\Users\stapi\AppData\Local\Temp\ccIVPyy5.s:771    .text._mqtt_connect:0000000000000122 .L0 
C:\Users\stapi\AppData\Local\Temp\ccIVPyy5.s:776    .text._mqtt_connect:0000000000000132 .L0 
C:\Users\stapi\AppData\Local\Temp\ccIVPyy5.s:777    .text._mqtt_connect:0000000000000132 .L0 
C:\Users\stapi\AppData\Local\Temp\ccIVPyy5.s:778    .text._mqtt_connect:0000000000000132 .L0 
C:\Users\stapi\AppData\Local\Temp\ccIVPyy5.s:783    .text._mqtt_connect:0000000000000136 .L0 
C:\Users\stapi\AppData\Local\Temp\ccIVPyy5.s:784    .text._mqtt_connect:0000000000000136 .L0 
C:\Users\stapi\AppData\Local\Temp\ccIVPyy5.s:785    .text._mqtt_connect:0000000000000136 .L0 
C:\Users\stapi\AppData\Local\Temp\ccIVPyy5.s:788    .text._mqtt_connect:000000000000013c .L0 
C:\Users\stapi\AppData\Local\Temp\ccIVPyy5.s:789    .text._mqtt_connect:000000000000013c .L0 
C:\Users\stapi\AppData\Local\Temp\ccIVPyy5.s:794    .text._mqtt_connect:000000000000014c .L0 
C:\Users\stapi\AppData\Local\Temp\ccIVPyy5.s:799    .text._mqtt_connect:0000000000000156 .L0 
C:\Users\stapi\AppData\Local\Temp\ccIVPyy5.s:800    .text._mqtt_connect:0000000000000156 .L0 
C:\Users\stapi\AppData\Local\Temp\ccIVPyy5.s:801    .text._mqtt_connect:0000000000000156 .L0 
C:\Users\stapi\AppData\Local\Temp\ccIVPyy5.s:804    .text._mqtt_connect:000000000000015c .L0 
C:\Users\stapi\AppData\Local\Temp\ccIVPyy5.s:805    .text._mqtt_connect:000000000000015c .L0 
C:\Users\stapi\AppData\Local\Temp\ccIVPyy5.s:810    .text._mqtt_connect:000000000000016c .L0 
C:\Users\stapi\AppData\Local\Temp\ccIVPyy5.s:815    .text._mqtt_connect:0000000000000176 .L0 
C:\Users\stapi\AppData\Local\Temp\ccIVPyy5.s:819    .text._mqtt_connect:0000000000000180 .L0 
C:\Users\stapi\AppData\Local\Temp\ccIVPyy5.s:823    .text._mqtt_connect:0000000000000188 .L0 
C:\Users\stapi\AppData\Local\Temp\ccIVPyy5.s:824    .text._mqtt_connect:0000000000000188 .L0 
C:\Users\stapi\AppData\Local\Temp\ccIVPyy5.s:825    .text._mqtt_connect:0000000000000188 .L0 
C:\Users\stapi\AppData\Local\Temp\ccIVPyy5.s:828    .text._mqtt_connect:0000000000000190 .L0 
C:\Users\stapi\AppData\Local\Temp\ccIVPyy5.s:833    .text._mqtt_connect:0000000000000194 .L0 
C:\Users\stapi\AppData\Local\Temp\ccIVPyy5.s:834    .text._mqtt_connect:0000000000000194 .L0 
C:\Users\stapi\AppData\Local\Temp\ccIVPyy5.s:835    .text._mqtt_connect:0000000000000194 .L0 
C:\Users\stapi\AppData\Local\Temp\ccIVPyy5.s:844    .text._mqtt_connect:00000000000001a6 .L0 
C:\Users\stapi\AppData\Local\Temp\ccIVPyy5.s:845    .text._mqtt_connect:00000000000001a6 .L0 
C:\Users\stapi\AppData\Local\Temp\ccIVPyy5.s:847    .text._mqtt_connect:00000000000001a8 .L0 
C:\Users\stapi\AppData\Local\Temp\ccIVPyy5.s:848    .text._mqtt_connect:00000000000001a8 .L0 
C:\Users\stapi\AppData\Local\Temp\ccIVPyy5.s:850    .text._mqtt_connect:00000000000001aa .L0 
C:\Users\stapi\AppData\Local\Temp\ccIVPyy5.s:853    .text._mqtt_connect:00000000000001b2 .L0 
C:\Users\stapi\AppData\Local\Temp\ccIVPyy5.s:854    .text._mqtt_connect:00000000000001b2 .L0 
C:\Users\stapi\AppData\Local\Temp\ccIVPyy5.s:857    .text._mqtt_connect:00000000000001b6 .L0 
C:\Users\stapi\AppData\Local\Temp\ccIVPyy5.s:858    .text._mqtt_connect:00000000000001b6 .L0 
C:\Users\stapi\AppData\Local\Temp\ccIVPyy5.s:861    .text._mqtt_connect:00000000000001ba .L0 
C:\Users\stapi\AppData\Local\Temp\ccIVPyy5.s:862    .text._mqtt_connect:00000000000001ba .L0 
C:\Users\stapi\AppData\Local\Temp\ccIVPyy5.s:865    .text._mqtt_connect:00000000000001be .L0 
C:\Users\stapi\AppData\Local\Temp\ccIVPyy5.s:866    .text._mqtt_connect:00000000000001be .L0 
C:\Users\stapi\AppData\Local\Temp\ccIVPyy5.s:868    .text._mqtt_connect:00000000000001c0 .L0 
C:\Users\stapi\AppData\Local\Temp\ccIVPyy5.s:870    .text._mqtt_connect:00000000000001c2 .L0 
C:\Users\stapi\AppData\Local\Temp\ccIVPyy5.s:872    .text._mqtt_connect:00000000000001c4 .L0 
C:\Users\stapi\AppData\Local\Temp\ccIVPyy5.s:873    .text._mqtt_connect:00000000000001c4 .L0 
C:\Users\stapi\AppData\Local\Temp\ccIVPyy5.s:875    .text._mqtt_connect:00000000000001c6 .L0 
C:\Users\stapi\AppData\Local\Temp\ccIVPyy5.s:876    .text._mqtt_connect:00000000000001c6 .L0 
C:\Users\stapi\AppData\Local\Temp\ccIVPyy5.s:878    .text._mqtt_connect:00000000000001ca .L0 
C:\Users\stapi\AppData\Local\Temp\ccIVPyy5.s:882    .text._mqtt_connect:00000000000001d4 .L0 
C:\Users\stapi\AppData\Local\Temp\ccIVPyy5.s:883    .text._mqtt_connect:00000000000001d4 .L0 
C:\Users\stapi\AppData\Local\Temp\ccIVPyy5.s:886    .text._mqtt_connect:00000000000001d6 .L0 
C:\Users\stapi\AppData\Local\Temp\ccIVPyy5.s:887    .text._mqtt_connect:00000000000001d6 .L0 
C:\Users\stapi\AppData\Local\Temp\ccIVPyy5.s:889    .text._mqtt_connect:00000000000001da .L0 
C:\Users\stapi\AppData\Local\Temp\ccIVPyy5.s:891    .text._mqtt_connect:00000000000001dc .L0 
C:\Users\stapi\AppData\Local\Temp\ccIVPyy5.s:893    .text._mqtt_connect:00000000000001de .L0 
C:\Users\stapi\AppData\Local\Temp\ccIVPyy5.s:894    .text._mqtt_connect:00000000000001de .L0 
C:\Users\stapi\AppData\Local\Temp\ccIVPyy5.s:895    .text._mqtt_connect:00000000000001de .L0 
C:\Users\stapi\AppData\Local\Temp\ccIVPyy5.s:897    .text._mqtt_connect:00000000000001e0 .L0 
C:\Users\stapi\AppData\Local\Temp\ccIVPyy5.s:898    .text._mqtt_connect:00000000000001e0 .L0 
C:\Users\stapi\AppData\Local\Temp\ccIVPyy5.s:900    .text._mqtt_connect:00000000000001e2 .L0 
C:\Users\stapi\AppData\Local\Temp\ccIVPyy5.s:901    .text._mqtt_connect:00000000000001e2 .L0 
C:\Users\stapi\AppData\Local\Temp\ccIVPyy5.s:903    .text._mqtt_connect:00000000000001e6 .L0 
C:\Users\stapi\AppData\Local\Temp\ccIVPyy5.s:909    .text._mqtt_connect:00000000000001ec .L0 
C:\Users\stapi\AppData\Local\Temp\ccIVPyy5.s:913    .text._mqtt_connect:00000000000001ee .L0 
C:\Users\stapi\AppData\Local\Temp\ccIVPyy5.s:914    .text._mqtt_connect:00000000000001ee .L0 
C:\Users\stapi\AppData\Local\Temp\ccIVPyy5.s:917    .text._mqtt_connect:00000000000001f6 .L0 
C:\Users\stapi\AppData\Local\Temp\ccIVPyy5.s:920    .text._mqtt_connect:00000000000001fe .L0 
C:\Users\stapi\AppData\Local\Temp\ccIVPyy5.s:921    .text._mqtt_connect:00000000000001fe .L0 
C:\Users\stapi\AppData\Local\Temp\ccIVPyy5.s:925    .text._mqtt_connect:000000000000020a .L0 
C:\Users\stapi\AppData\Local\Temp\ccIVPyy5.s:931    .text._mqtt_connect:0000000000000214 .L0 
C:\Users\stapi\AppData\Local\Temp\ccIVPyy5.s:932    .text._mqtt_connect:0000000000000214 .L0 
C:\Users\stapi\AppData\Local\Temp\ccIVPyy5.s:935    .text._mqtt_connect:0000000000000216 .L0 
C:\Users\stapi\AppData\Local\Temp\ccIVPyy5.s:939    .text._mqtt_connect:0000000000000218 .L0 
C:\Users\stapi\AppData\Local\Temp\ccIVPyy5.s:940    .text._mqtt_connect:0000000000000218 .L0 
C:\Users\stapi\AppData\Local\Temp\ccIVPyy5.s:943    .text._mqtt_connect:0000000000000220 .L0 
C:\Users\stapi\AppData\Local\Temp\ccIVPyy5.s:945    .text._mqtt_connect:0000000000000222 .L0 
C:\Users\stapi\AppData\Local\Temp\ccIVPyy5.s:946    .text._mqtt_connect:0000000000000222 .L0 
C:\Users\stapi\AppData\Local\Temp\ccIVPyy5.s:947    .text._mqtt_connect:0000000000000222 .L0 
C:\Users\stapi\AppData\Local\Temp\ccIVPyy5.s:949    .text._mqtt_connect:0000000000000226 .L0 
C:\Users\stapi\AppData\Local\Temp\ccIVPyy5.s:952    .text._mqtt_connect:000000000000022a .L0 
C:\Users\stapi\AppData\Local\Temp\ccIVPyy5.s:953    .text._mqtt_connect:000000000000022a .L0 
C:\Users\stapi\AppData\Local\Temp\ccIVPyy5.s:955    .text._mqtt_connect:000000000000022c .L0 
C:\Users\stapi\AppData\Local\Temp\ccIVPyy5.s:957    .text._mqtt_connect:000000000000022e .L0 
C:\Users\stapi\AppData\Local\Temp\ccIVPyy5.s:958    .text._mqtt_connect:000000000000022e .L0 
C:\Users\stapi\AppData\Local\Temp\ccIVPyy5.s:960    .text._mqtt_connect:0000000000000230 .L0 
C:\Users\stapi\AppData\Local\Temp\ccIVPyy5.s:966    .text._mqtt_connect:0000000000000236 .L0 
C:\Users\stapi\AppData\Local\Temp\ccIVPyy5.s:967    .text._mqtt_connect:0000000000000236 .L0 
C:\Users\stapi\AppData\Local\Temp\ccIVPyy5.s:972    .text._mqtt_connect:0000000000000246 .L0 
C:\Users\stapi\AppData\Local\Temp\ccIVPyy5.s:977    .text._mqtt_connect:0000000000000258 .L0 
C:\Users\stapi\AppData\Local\Temp\ccIVPyy5.s:983    .text._mqtt_close:0000000000000000 _mqtt_close
C:\Users\stapi\AppData\Local\Temp\ccIVPyy5.s:986    .text._mqtt_close:0000000000000000 .L0 
C:\Users\stapi\AppData\Local\Temp\ccIVPyy5.s:987    .text._mqtt_close:0000000000000000 .L0 
C:\Users\stapi\AppData\Local\Temp\ccIVPyy5.s:988    .text._mqtt_close:0000000000000008 .L0 
C:\Users\stapi\AppData\Local\Temp\ccIVPyy5.s:989    .text._mqtt_close:0000000000000008 .L0 
C:\Users\stapi\AppData\Local\Temp\ccIVPyy5.s:990    .text._mqtt_close:0000000000000008 .L0 
C:\Users\stapi\AppData\Local\Temp\ccIVPyy5.s:992    .text._mqtt_close:0000000000000008 .L0 
C:\Users\stapi\AppData\Local\Temp\ccIVPyy5.s:993    .text._mqtt_close:0000000000000008 .L0 
C:\Users\stapi\AppData\Local\Temp\ccIVPyy5.s:1000   .text._mqtt_close:0000000000000014 .L0 
C:\Users\stapi\AppData\Local\Temp\ccIVPyy5.s:1001   .text._mqtt_close:0000000000000014 .L0 
C:\Users\stapi\AppData\Local\Temp\ccIVPyy5.s:1006   .text._mqtt_close:0000000000000024 .L0 
C:\Users\stapi\AppData\Local\Temp\ccIVPyy5.s:1014   .text._mqtt_close:000000000000003e .L0 
C:\Users\stapi\AppData\Local\Temp\ccIVPyy5.s:1019   .text._mqtt_close:000000000000004e .L0 
C:\Users\stapi\AppData\Local\Temp\ccIVPyy5.s:1020   .text._mqtt_close:000000000000004e .L0 
C:\Users\stapi\AppData\Local\Temp\ccIVPyy5.s:1025   .text._mqtt_close:0000000000000050 .L0 
C:\Users\stapi\AppData\Local\Temp\ccIVPyy5.s:1026   .text._mqtt_close:0000000000000058 .L0 
C:\Users\stapi\AppData\Local\Temp\ccIVPyy5.s:1027   .text._mqtt_close:0000000000000058 .L0 
C:\Users\stapi\AppData\Local\Temp\ccIVPyy5.s:1028   .text._mqtt_close:0000000000000058 .L0 
C:\Users\stapi\AppData\Local\Temp\ccIVPyy5.s:1029   .text._mqtt_close:0000000000000058 .L0 
C:\Users\stapi\AppData\Local\Temp\ccIVPyy5.s:1031   .text._mqtt_close:0000000000000058 .L0 
C:\Users\stapi\AppData\Local\Temp\ccIVPyy5.s:1033   .text._mqtt_close:0000000000000058 .L0 
C:\Users\stapi\AppData\Local\Temp\ccIVPyy5.s:1034   .text._mqtt_close:0000000000000058 .L0 
C:\Users\stapi\AppData\Local\Temp\ccIVPyy5.s:1038   .text._mqtt_close:0000000000000062 .L0 
C:\Users\stapi\AppData\Local\Temp\ccIVPyy5.s:1043   .text._mqtt_close:000000000000006e .L0 
C:\Users\stapi\AppData\Local\Temp\ccIVPyy5.s:1047   .text._mqtt_close:0000000000000078 .L0 
C:\Users\stapi\AppData\Local\Temp\ccIVPyy5.s:1048   .text._mqtt_close:0000000000000078 .L0 
C:\Users\stapi\AppData\Local\Temp\ccIVPyy5.s:1050   .text._mqtt_close:000000000000007a .L0 
C:\Users\stapi\AppData\Local\Temp\ccIVPyy5.s:1052   .text._mqtt_close:000000000000007e .L0 
C:\Users\stapi\AppData\Local\Temp\ccIVPyy5.s:1053   .text._mqtt_close:000000000000007e .L0 
C:\Users\stapi\AppData\Local\Temp\ccIVPyy5.s:1054   .text._mqtt_close:0000000000000080 .L0 
C:\Users\stapi\AppData\Local\Temp\ccIVPyy5.s:1060   .text._mqtt_yield.part.0:0000000000000000 _mqtt_yield.part.0
C:\Users\stapi\AppData\Local\Temp\ccIVPyy5.s:1063   .text._mqtt_yield.part.0:0000000000000000 .L0 
C:\Users\stapi\AppData\Local\Temp\ccIVPyy5.s:1064   .text._mqtt_yield.part.0:0000000000000000 .L0 
C:\Users\stapi\AppData\Local\Temp\ccIVPyy5.s:1065   .text._mqtt_yield.part.0:0000000000000008 .L0 
C:\Users\stapi\AppData\Local\Temp\ccIVPyy5.s:1066   .text._mqtt_yield.part.0:0000000000000008 .L0 
C:\Users\stapi\AppData\Local\Temp\ccIVPyy5.s:1069   .text._mqtt_yield.part.0:0000000000000008 .L0 
C:\Users\stapi\AppData\Local\Temp\ccIVPyy5.s:1070   .text._mqtt_yield.part.0:0000000000000008 .L0 
C:\Users\stapi\AppData\Local\Temp\ccIVPyy5.s:1075   .text._mqtt_yield.part.0:0000000000000018 .L0 
C:\Users\stapi\AppData\Local\Temp\ccIVPyy5.s:1084   .text._mqtt_yield.part.0:0000000000000038 .L0 
C:\Users\stapi\AppData\Local\Temp\ccIVPyy5.s:1089   .text._mqtt_yield.part.0:0000000000000048 .L0 
C:\Users\stapi\AppData\Local\Temp\ccIVPyy5.s:1090   .text._mqtt_yield.part.0:0000000000000048 .L0 
C:\Users\stapi\AppData\Local\Temp\ccIVPyy5.s:1091   .text._mqtt_yield.part.0:0000000000000048 .L0 
C:\Users\stapi\AppData\Local\Temp\ccIVPyy5.s:1093   .text._mqtt_yield.part.0:0000000000000052 .L0 
C:\Users\stapi\AppData\Local\Temp\ccIVPyy5.s:1094   .text._mqtt_yield.part.0:0000000000000052 .L0 
C:\Users\stapi\AppData\Local\Temp\ccIVPyy5.s:1095   .text._mqtt_yield.part.0:0000000000000052 .L0 
C:\Users\stapi\AppData\Local\Temp\ccIVPyy5.s:1060   .text._mqtt_yield.part.0:0000000000000000 _mqtt_unsub.part.0
C:\Users\stapi\AppData\Local\Temp\ccIVPyy5.s:1060   .text._mqtt_yield.part.0:0000000000000000 _mqtt_publish.part.0
C:\Users\stapi\AppData\Local\Temp\ccIVPyy5.s:1103   .text._mqtt_yield:0000000000000000 _mqtt_yield
C:\Users\stapi\AppData\Local\Temp\ccIVPyy5.s:1106   .text._mqtt_yield:0000000000000000 .L0 
C:\Users\stapi\AppData\Local\Temp\ccIVPyy5.s:1108   .text._mqtt_yield:0000000000000000 .L0 
C:\Users\stapi\AppData\Local\Temp\ccIVPyy5.s:1109   .text._mqtt_yield:0000000000000008 .L0 
C:\Users\stapi\AppData\Local\Temp\ccIVPyy5.s:1110   .text._mqtt_yield:0000000000000008 .L0 
C:\Users\stapi\AppData\Local\Temp\ccIVPyy5.s:1112   .text._mqtt_yield:0000000000000008 .L0 
C:\Users\stapi\AppData\Local\Temp\ccIVPyy5.s:1113   .text._mqtt_yield:0000000000000008 .L0 
C:\Users\stapi\AppData\Local\Temp\ccIVPyy5.s:1120   .text._mqtt_yield:000000000000001a .L0 
C:\Users\stapi\AppData\Local\Temp\ccIVPyy5.s:1121   .text._mqtt_yield:0000000000000022 .L0 
C:\Users\stapi\AppData\Local\Temp\ccIVPyy5.s:1122   .text._mqtt_yield:0000000000000022 .L0 
C:\Users\stapi\AppData\Local\Temp\ccIVPyy5.s:1123   .text._mqtt_yield:0000000000000022 .L0 
C:\Users\stapi\AppData\Local\Temp\ccIVPyy5.s:1126   .text._mqtt_yield:0000000000000022 .L0 
C:\Users\stapi\AppData\Local\Temp\ccIVPyy5.s:1129   .text._mqtt_yield:0000000000000024 .L0 
C:\Users\stapi\AppData\Local\Temp\ccIVPyy5.s:1130   .text._mqtt_yield:0000000000000024 .L0 
C:\Users\stapi\AppData\Local\Temp\ccIVPyy5.s:1131   .text._mqtt_yield:0000000000000024 .L0 
C:\Users\stapi\AppData\Local\Temp\ccIVPyy5.s:1136   .text._mqtt_yield:0000000000000030 .L0 
C:\Users\stapi\AppData\Local\Temp\ccIVPyy5.s:1142   .text._mqtt_unsub:0000000000000000 _mqtt_unsub
C:\Users\stapi\AppData\Local\Temp\ccIVPyy5.s:1145   .text._mqtt_unsub:0000000000000000 .L0 
C:\Users\stapi\AppData\Local\Temp\ccIVPyy5.s:1147   .text._mqtt_unsub:0000000000000000 .L0 
C:\Users\stapi\AppData\Local\Temp\ccIVPyy5.s:1148   .text._mqtt_unsub:0000000000000008 .L0 
C:\Users\stapi\AppData\Local\Temp\ccIVPyy5.s:1149   .text._mqtt_unsub:0000000000000008 .L0 
C:\Users\stapi\AppData\Local\Temp\ccIVPyy5.s:1151   .text._mqtt_unsub:0000000000000008 .L0 
C:\Users\stapi\AppData\Local\Temp\ccIVPyy5.s:1152   .text._mqtt_unsub:0000000000000008 .L0 
C:\Users\stapi\AppData\Local\Temp\ccIVPyy5.s:1153   .text._mqtt_unsub:0000000000000008 .L0 
C:\Users\stapi\AppData\Local\Temp\ccIVPyy5.s:1160   .text._mqtt_unsub:000000000000001a .L0 
C:\Users\stapi\AppData\Local\Temp\ccIVPyy5.s:1161   .text._mqtt_unsub:0000000000000022 .L0 
C:\Users\stapi\AppData\Local\Temp\ccIVPyy5.s:1162   .text._mqtt_unsub:0000000000000022 .L0 
C:\Users\stapi\AppData\Local\Temp\ccIVPyy5.s:1163   .text._mqtt_unsub:0000000000000022 .L0 
C:\Users\stapi\AppData\Local\Temp\ccIVPyy5.s:1166   .text._mqtt_unsub:0000000000000022 .L0 
C:\Users\stapi\AppData\Local\Temp\ccIVPyy5.s:1169   .text._mqtt_unsub:0000000000000024 .L0 
C:\Users\stapi\AppData\Local\Temp\ccIVPyy5.s:1170   .text._mqtt_unsub:0000000000000024 .L0 
C:\Users\stapi\AppData\Local\Temp\ccIVPyy5.s:1171   .text._mqtt_unsub:0000000000000024 .L0 
C:\Users\stapi\AppData\Local\Temp\ccIVPyy5.s:1176   .text._mqtt_unsub:000000000000002e .L0 
C:\Users\stapi\AppData\Local\Temp\ccIVPyy5.s:1180   .text._mqtt_unsub:0000000000000036 .L0 
C:\Users\stapi\AppData\Local\Temp\ccIVPyy5.s:1186   .text._mqtt_publish:0000000000000000 _mqtt_publish
C:\Users\stapi\AppData\Local\Temp\ccIVPyy5.s:1189   .text._mqtt_publish:0000000000000000 .L0 
C:\Users\stapi\AppData\Local\Temp\ccIVPyy5.s:1191   .text._mqtt_publish:0000000000000000 .L0 
C:\Users\stapi\AppData\Local\Temp\ccIVPyy5.s:1192   .text._mqtt_publish:0000000000000008 .L0 
C:\Users\stapi\AppData\Local\Temp\ccIVPyy5.s:1193   .text._mqtt_publish:0000000000000008 .L0 
C:\Users\stapi\AppData\Local\Temp\ccIVPyy5.s:1196   .text._mqtt_publish:0000000000000008 .L0 
C:\Users\stapi\AppData\Local\Temp\ccIVPyy5.s:1197   .text._mqtt_publish:0000000000000008 .L0 
C:\Users\stapi\AppData\Local\Temp\ccIVPyy5.s:1198   .text._mqtt_publish:0000000000000008 .L0 
C:\Users\stapi\AppData\Local\Temp\ccIVPyy5.s:1199   .text._mqtt_publish:0000000000000008 .L0 
C:\Users\stapi\AppData\Local\Temp\ccIVPyy5.s:1201   .text._mqtt_publish:000000000000000a .L0 
C:\Users\stapi\AppData\Local\Temp\ccIVPyy5.s:1209   .text._mqtt_publish:000000000000001e .L0 
C:\Users\stapi\AppData\Local\Temp\ccIVPyy5.s:1210   .text._mqtt_publish:0000000000000026 .L0 
C:\Users\stapi\AppData\Local\Temp\ccIVPyy5.s:1211   .text._mqtt_publish:0000000000000026 .L0 
C:\Users\stapi\AppData\Local\Temp\ccIVPyy5.s:1212   .text._mqtt_publish:0000000000000026 .L0 
C:\Users\stapi\AppData\Local\Temp\ccIVPyy5.s:1215   .text._mqtt_publish:0000000000000026 .L0 
C:\Users\stapi\AppData\Local\Temp\ccIVPyy5.s:1218   .text._mqtt_publish:0000000000000028 .L0 
C:\Users\stapi\AppData\Local\Temp\ccIVPyy5.s:1219   .text._mqtt_publish:0000000000000028 .L0 
C:\Users\stapi\AppData\Local\Temp\ccIVPyy5.s:1220   .text._mqtt_publish:0000000000000028 .L0 
C:\Users\stapi\AppData\Local\Temp\ccIVPyy5.s:1223   .text._mqtt_publish:000000000000002a .L0 
C:\Users\stapi\AppData\Local\Temp\ccIVPyy5.s:1225   .text._mqtt_publish:000000000000002c .L0 
C:\Users\stapi\AppData\Local\Temp\ccIVPyy5.s:1226   .text._mqtt_publish:000000000000002c .L0 
C:\Users\stapi\AppData\Local\Temp\ccIVPyy5.s:1231   .text._mqtt_publish:000000000000002e .L0 
C:\Users\stapi\AppData\Local\Temp\ccIVPyy5.s:1236   .text._mqtt_publish:000000000000003a .L0 
C:\Users\stapi\AppData\Local\Temp\ccIVPyy5.s:1242   .text._mqtt_publish:000000000000003c .L0 
C:\Users\stapi\AppData\Local\Temp\ccIVPyy5.s:1243   .text._mqtt_publish:000000000000003c .L0 
C:\Users\stapi\AppData\Local\Temp\ccIVPyy5.s:1254   .text._mqtt_publish:000000000000004c .L0 
C:\Users\stapi\AppData\Local\Temp\ccIVPyy5.s:1259   .text._mqtt_publish:0000000000000050 .L0 
C:\Users\stapi\AppData\Local\Temp\ccIVPyy5.s:1279   .text.iotx_cm_open_mqtt:0000000000000000 iotx_cm_open_mqtt
C:\Users\stapi\AppData\Local\Temp\ccIVPyy5.s:1282   .text.iotx_cm_open_mqtt:0000000000000000 .L0 
C:\Users\stapi\AppData\Local\Temp\ccIVPyy5.s:1284   .text.iotx_cm_open_mqtt:0000000000000000 .L0 
C:\Users\stapi\AppData\Local\Temp\ccIVPyy5.s:1285   .text.iotx_cm_open_mqtt:0000000000000008 .L0 
C:\Users\stapi\AppData\Local\Temp\ccIVPyy5.s:1286   .text.iotx_cm_open_mqtt:0000000000000008 .L0 
C:\Users\stapi\AppData\Local\Temp\ccIVPyy5.s:1287   .text.iotx_cm_open_mqtt:0000000000000008 .L0 
C:\Users\stapi\AppData\Local\Temp\ccIVPyy5.s:1288   .text.iotx_cm_open_mqtt:0000000000000008 .L0 
C:\Users\stapi\AppData\Local\Temp\ccIVPyy5.s:1289   .text.iotx_cm_open_mqtt:0000000000000008 .L0 
C:\Users\stapi\AppData\Local\Temp\ccIVPyy5.s:1292   .text.iotx_cm_open_mqtt:0000000000000008 .L0 
C:\Users\stapi\AppData\Local\Temp\ccIVPyy5.s:1293   .text.iotx_cm_open_mqtt:0000000000000008 .L0 
C:\Users\stapi\AppData\Local\Temp\ccIVPyy5.s:1294   .text.iotx_cm_open_mqtt:0000000000000008 .L0 
C:\Users\stapi\AppData\Local\Temp\ccIVPyy5.s:1298   .text.iotx_cm_open_mqtt:0000000000000014 .L0 
C:\Users\stapi\AppData\Local\Temp\ccIVPyy5.s:1300   .text.iotx_cm_open_mqtt:0000000000000016 .L0 
C:\Users\stapi\AppData\Local\Temp\ccIVPyy5.s:1301   .text.iotx_cm_open_mqtt:0000000000000016 .L0 
C:\Users\stapi\AppData\Local\Temp\ccIVPyy5.s:1307   .text.iotx_cm_open_mqtt:0000000000000026 .L0 
C:\Users\stapi\AppData\Local\Temp\ccIVPyy5.s:1312   .text.iotx_cm_open_mqtt:0000000000000036 .L0 
C:\Users\stapi\AppData\Local\Temp\ccIVPyy5.s:1317   .text.iotx_cm_open_mqtt:0000000000000046 .L0 
C:\Users\stapi\AppData\Local\Temp\ccIVPyy5.s:1318   .text.iotx_cm_open_mqtt:0000000000000046 .L0 
C:\Users\stapi\AppData\Local\Temp\ccIVPyy5.s:1319   .text.iotx_cm_open_mqtt:0000000000000046 .L0 
C:\Users\stapi\AppData\Local\Temp\ccIVPyy5.s:1323   .text.iotx_cm_open_mqtt:000000000000004a .L0 
C:\Users\stapi\AppData\Local\Temp\ccIVPyy5.s:1324   .text.iotx_cm_open_mqtt:0000000000000052 .L0 
C:\Users\stapi\AppData\Local\Temp\ccIVPyy5.s:1325   .text.iotx_cm_open_mqtt:0000000000000052 .L0 
C:\Users\stapi\AppData\Local\Temp\ccIVPyy5.s:1326   .text.iotx_cm_open_mqtt:0000000000000052 .L0 
C:\Users\stapi\AppData\Local\Temp\ccIVPyy5.s:1327   .text.iotx_cm_open_mqtt:0000000000000052 .L0 
C:\Users\stapi\AppData\Local\Temp\ccIVPyy5.s:1328   .text.iotx_cm_open_mqtt:0000000000000052 .L0 
C:\Users\stapi\AppData\Local\Temp\ccIVPyy5.s:1329   .text.iotx_cm_open_mqtt:0000000000000052 .L0 
C:\Users\stapi\AppData\Local\Temp\ccIVPyy5.s:1332   .text.iotx_cm_open_mqtt:0000000000000052 .L0 
C:\Users\stapi\AppData\Local\Temp\ccIVPyy5.s:1335   .text.iotx_cm_open_mqtt:0000000000000054 .L0 
C:\Users\stapi\AppData\Local\Temp\ccIVPyy5.s:1336   .text.iotx_cm_open_mqtt:0000000000000054 .L0 
C:\Users\stapi\AppData\Local\Temp\ccIVPyy5.s:1339   .text.iotx_cm_open_mqtt:0000000000000056 .L0 
C:\Users\stapi\AppData\Local\Temp\ccIVPyy5.s:1340   .text.iotx_cm_open_mqtt:0000000000000056 .L0 
C:\Users\stapi\AppData\Local\Temp\ccIVPyy5.s:1345   .text.iotx_cm_open_mqtt:0000000000000066 .L0 
C:\Users\stapi\AppData\Local\Temp\ccIVPyy5.s:1353   .text.iotx_cm_open_mqtt:0000000000000080 .L0 
C:\Users\stapi\AppData\Local\Temp\ccIVPyy5.s:1358   .text.iotx_cm_open_mqtt:0000000000000090 .L0 
C:\Users\stapi\AppData\Local\Temp\ccIVPyy5.s:1360   .text.iotx_cm_open_mqtt:0000000000000090 .L0 
C:\Users\stapi\AppData\Local\Temp\ccIVPyy5.s:1361   .text.iotx_cm_open_mqtt:0000000000000090 .L0 
C:\Users\stapi\AppData\Local\Temp\ccIVPyy5.s:1365   .text.iotx_cm_open_mqtt:0000000000000094 .L0 
C:\Users\stapi\AppData\Local\Temp\ccIVPyy5.s:1370   .text.iotx_cm_open_mqtt:00000000000000a0 .L0 
C:\Users\stapi\AppData\Local\Temp\ccIVPyy5.s:1371   .text.iotx_cm_open_mqtt:00000000000000a0 .L0 
C:\Users\stapi\AppData\Local\Temp\ccIVPyy5.s:1372   .text.iotx_cm_open_mqtt:00000000000000a0 .L0 
C:\Users\stapi\AppData\Local\Temp\ccIVPyy5.s:1375   .text.iotx_cm_open_mqtt:00000000000000a8 .L0 
C:\Users\stapi\AppData\Local\Temp\ccIVPyy5.s:1377   .text.iotx_cm_open_mqtt:00000000000000aa .L0 
C:\Users\stapi\AppData\Local\Temp\ccIVPyy5.s:1378   .text.iotx_cm_open_mqtt:00000000000000aa .L0 
C:\Users\stapi\AppData\Local\Temp\ccIVPyy5.s:1380   .text.iotx_cm_open_mqtt:00000000000000ac .L0 
C:\Users\stapi\AppData\Local\Temp\ccIVPyy5.s:1381   .text.iotx_cm_open_mqtt:00000000000000ac .L0 
C:\Users\stapi\AppData\Local\Temp\ccIVPyy5.s:1386   .text.iotx_cm_open_mqtt:00000000000000bc .L0 
C:\Users\stapi\AppData\Local\Temp\ccIVPyy5.s:1392   .text.iotx_cm_open_mqtt:00000000000000c4 .L0 
C:\Users\stapi\AppData\Local\Temp\ccIVPyy5.s:1395   .text.iotx_cm_open_mqtt:00000000000000cc .L0 
C:\Users\stapi\AppData\Local\Temp\ccIVPyy5.s:1400   .text.iotx_cm_open_mqtt:00000000000000dc .L0 
C:\Users\stapi\AppData\Local\Temp\ccIVPyy5.s:1401   .text.iotx_cm_open_mqtt:00000000000000dc .L0 
C:\Users\stapi\AppData\Local\Temp\ccIVPyy5.s:1402   .text.iotx_cm_open_mqtt:00000000000000dc .L0 
C:\Users\stapi\AppData\Local\Temp\ccIVPyy5.s:1403   .text.iotx_cm_open_mqtt:00000000000000dc .L0 
C:\Users\stapi\AppData\Local\Temp\ccIVPyy5.s:1405   .text.iotx_cm_open_mqtt:00000000000000de .L0 
C:\Users\stapi\AppData\Local\Temp\ccIVPyy5.s:1407   .text.iotx_cm_open_mqtt:00000000000000e0 .L0 
C:\Users\stapi\AppData\Local\Temp\ccIVPyy5.s:1410   .text.iotx_cm_open_mqtt:00000000000000e8 .L0 
C:\Users\stapi\AppData\Local\Temp\ccIVPyy5.s:1411   .text.iotx_cm_open_mqtt:00000000000000e8 .L0 
C:\Users\stapi\AppData\Local\Temp\ccIVPyy5.s:1415   .text.iotx_cm_open_mqtt:00000000000000ee .L0 
C:\Users\stapi\AppData\Local\Temp\ccIVPyy5.s:1416   .text.iotx_cm_open_mqtt:00000000000000ee .L0 
C:\Users\stapi\AppData\Local\Temp\ccIVPyy5.s:1424   .text.iotx_cm_open_mqtt:0000000000000100 .L0 
C:\Users\stapi\AppData\Local\Temp\ccIVPyy5.s:1425   .text.iotx_cm_open_mqtt:0000000000000100 .L0 
C:\Users\stapi\AppData\Local\Temp\ccIVPyy5.s:1427   .text.iotx_cm_open_mqtt:0000000000000102 .L0 
C:\Users\stapi\AppData\Local\Temp\ccIVPyy5.s:1428   .text.iotx_cm_open_mqtt:0000000000000102 .L0 
C:\Users\stapi\AppData\Local\Temp\ccIVPyy5.s:1434   .text.iotx_cm_open_mqtt:0000000000000112 .L0 
C:\Users\stapi\AppData\Local\Temp\ccIVPyy5.s:1440   .text.iotx_cm_open_mqtt:000000000000011c .L0 
C:\Users\stapi\AppData\Local\Temp\ccIVPyy5.s:1441   .text.iotx_cm_open_mqtt:000000000000011c .L0 
C:\Users\stapi\AppData\Local\Temp\ccIVPyy5.s:1444   .text.iotx_cm_open_mqtt:0000000000000120 .L0 
C:\Users\stapi\AppData\Local\Temp\ccIVPyy5.s:1446   .text.iotx_cm_open_mqtt:0000000000000122 .L0 
C:\Users\stapi\AppData\Local\Temp\ccIVPyy5.s:1448   .text.iotx_cm_open_mqtt:0000000000000124 .L0 
C:\Users\stapi\AppData\Local\Temp\ccIVPyy5.s:1449   .text.iotx_cm_open_mqtt:0000000000000124 .L0 
C:\Users\stapi\AppData\Local\Temp\ccIVPyy5.s:1451   .text.iotx_cm_open_mqtt:0000000000000128 .L0 
C:\Users\stapi\AppData\Local\Temp\ccIVPyy5.s:1453   .text.iotx_cm_open_mqtt:000000000000012a .L0 
C:\Users\stapi\AppData\Local\Temp\ccIVPyy5.s:1454   .text.iotx_cm_open_mqtt:000000000000012a .L0 
C:\Users\stapi\AppData\Local\Temp\ccIVPyy5.s:1455   .text.iotx_cm_open_mqtt:000000000000012a .L0 
C:\Users\stapi\AppData\Local\Temp\ccIVPyy5.s:1458   .text.iotx_cm_open_mqtt:000000000000012e .L0 
C:\Users\stapi\AppData\Local\Temp\ccIVPyy5.s:1459   .text.iotx_cm_open_mqtt:000000000000012e .L0 
C:\Users\stapi\AppData\Local\Temp\ccIVPyy5.s:1462   .text.iotx_cm_open_mqtt:0000000000000132 .L0 
C:\Users\stapi\AppData\Local\Temp\ccIVPyy5.s:1463   .text.iotx_cm_open_mqtt:0000000000000132 .L0 
C:\Users\stapi\AppData\Local\Temp\ccIVPyy5.s:1465   .text.iotx_cm_open_mqtt:0000000000000134 .L0 
C:\Users\stapi\AppData\Local\Temp\ccIVPyy5.s:1467   .text.iotx_cm_open_mqtt:0000000000000138 .L0 
C:\Users\stapi\AppData\Local\Temp\ccIVPyy5.s:1469   .text.iotx_cm_open_mqtt:000000000000013a .L0 
C:\Users\stapi\AppData\Local\Temp\ccIVPyy5.s:1470   .text.iotx_cm_open_mqtt:000000000000013a .L0 
C:\Users\stapi\AppData\Local\Temp\ccIVPyy5.s:1474   .text.iotx_cm_open_mqtt:0000000000000144 .L0 
C:\Users\stapi\AppData\Local\Temp\ccIVPyy5.s:1475   .text.iotx_cm_open_mqtt:0000000000000144 .L0 
C:\Users\stapi\AppData\Local\Temp\ccIVPyy5.s:1476   .text.iotx_cm_open_mqtt:0000000000000144 .L0 
C:\Users\stapi\AppData\Local\Temp\ccIVPyy5.s:1480   .text.iotx_cm_open_mqtt:0000000000000148 .L0 
C:\Users\stapi\AppData\Local\Temp\ccIVPyy5.s:1481   .text.iotx_cm_open_mqtt:0000000000000148 .L0 
C:\Users\stapi\AppData\Local\Temp\ccIVPyy5.s:1486   .text.iotx_cm_open_mqtt:000000000000014c .L0 
C:\Users\stapi\AppData\Local\Temp\ccIVPyy5.s:1487   .text.iotx_cm_open_mqtt:000000000000014c .L0 
C:\Users\stapi\AppData\Local\Temp\ccIVPyy5.s:1488   .text.iotx_cm_open_mqtt:000000000000014c .L0 
C:\Users\stapi\AppData\Local\Temp\ccIVPyy5.s:1489   .text.iotx_cm_open_mqtt:000000000000014c .L0 
C:\Users\stapi\AppData\Local\Temp\ccIVPyy5.s:1493   .text.iotx_cm_open_mqtt:0000000000000156 .L0 
C:\Users\stapi\AppData\Local\Temp\ccIVPyy5.s:1494   .text.iotx_cm_open_mqtt:0000000000000156 .L0 
C:\Users\stapi\AppData\Local\Temp\ccIVPyy5.s:1498   .text.iotx_cm_open_mqtt:0000000000000160 .L0 
C:\Users\stapi\AppData\Local\Temp\ccIVPyy5.s:1499   .text.iotx_cm_open_mqtt:0000000000000160 .L0 
C:\Users\stapi\AppData\Local\Temp\ccIVPyy5.s:1503   .text.iotx_cm_open_mqtt:000000000000016a .L0 
C:\Users\stapi\AppData\Local\Temp\ccIVPyy5.s:1504   .text.iotx_cm_open_mqtt:000000000000016a .L0 
C:\Users\stapi\AppData\Local\Temp\ccIVPyy5.s:1508   .text.iotx_cm_open_mqtt:0000000000000174 .L0 
C:\Users\stapi\AppData\Local\Temp\ccIVPyy5.s:1509   .text.iotx_cm_open_mqtt:0000000000000174 .L0 
C:\Users\stapi\AppData\Local\Temp\ccIVPyy5.s:1513   .text.iotx_cm_open_mqtt:000000000000017e .L0 
C:\Users\stapi\AppData\Local\Temp\ccIVPyy5.s:1514   .text.iotx_cm_open_mqtt:000000000000017e .L0 
C:\Users\stapi\AppData\Local\Temp\ccIVPyy5.s:1520   .text.iotx_cm_open_mqtt:000000000000018a .L0 
C:\Users\stapi\AppData\Local\Temp\ccIVPyy5.s:1525   .sbss._mqtt_conncection:0000000000000000 .LANCHOR0
C:\Users\stapi\AppData\Local\Temp\ccIVPyy5.s:1528   .sbss._mqtt_conncection:0000000000000000 _mqtt_conncection
C:\Users\stapi\AppData\Local\Temp\ccIVPyy5.s:384    .text.iotx_cloud_conn_mqtt_event_handle:00000000000001c0 .L0 
C:\Users\stapi\AppData\Local\Temp\ccIVPyy5.s:573    .text._mqtt_sub:00000000000000e8 .L0 
C:\Users\stapi\AppData\Local\Temp\ccIVPyy5.s:980    .text._mqtt_connect:0000000000000258 .L0 
C:\Users\stapi\AppData\Local\Temp\ccIVPyy5.s:1057   .text._mqtt_close:0000000000000080 .L0 
C:\Users\stapi\AppData\Local\Temp\ccIVPyy5.s:1100   .text._mqtt_yield.part.0:0000000000000052 .L0 
C:\Users\stapi\AppData\Local\Temp\ccIVPyy5.s:1139   .text._mqtt_yield:0000000000000030 .L0 
C:\Users\stapi\AppData\Local\Temp\ccIVPyy5.s:1183   .text._mqtt_unsub:0000000000000036 .L0 
C:\Users\stapi\AppData\Local\Temp\ccIVPyy5.s:1262   .text._mqtt_publish:0000000000000050 .L0 
C:\Users\stapi\AppData\Local\Temp\ccIVPyy5.s:1523   .text.iotx_cm_open_mqtt:000000000000018a .L0 
                     .debug_frame:0000000000000000 .L0 
C:\Users\stapi\AppData\Local\Temp\ccIVPyy5.s:84     .rodata.iotx_cloud_conn_mqtt_event_handle:0000000000000000 .L5
C:\Users\stapi\AppData\Local\Temp\ccIVPyy5.s:11     .rodata.iotx_cloud_conn_mqtt_event_handle.str1.4:0000000000000000 .LC0
C:\Users\stapi\AppData\Local\Temp\ccIVPyy5.s:14     .rodata.iotx_cloud_conn_mqtt_event_handle.str1.4:0000000000000008 .LC1
C:\Users\stapi\AppData\Local\Temp\ccIVPyy5.s:17     .rodata.iotx_cloud_conn_mqtt_event_handle.str1.4:0000000000000020 .LC2
C:\Users\stapi\AppData\Local\Temp\ccIVPyy5.s:20     .rodata.iotx_cloud_conn_mqtt_event_handle.str1.4:0000000000000024 .LC3
C:\Users\stapi\AppData\Local\Temp\ccIVPyy5.s:23     .rodata.iotx_cloud_conn_mqtt_event_handle.str1.4:0000000000000038 .LC4
C:\Users\stapi\AppData\Local\Temp\ccIVPyy5.s:26     .rodata.iotx_cloud_conn_mqtt_event_handle.str1.4:0000000000000040 .LC5
C:\Users\stapi\AppData\Local\Temp\ccIVPyy5.s:29     .rodata.iotx_cloud_conn_mqtt_event_handle.str1.4:0000000000000054 .LC6
C:\Users\stapi\AppData\Local\Temp\ccIVPyy5.s:32     .rodata.iotx_cloud_conn_mqtt_event_handle.str1.4:0000000000000068 .LC7
C:\Users\stapi\AppData\Local\Temp\ccIVPyy5.s:35     .rodata.iotx_cloud_conn_mqtt_event_handle.str1.4:0000000000000070 .LC8
C:\Users\stapi\AppData\Local\Temp\ccIVPyy5.s:38     .rodata.iotx_cloud_conn_mqtt_event_handle.str1.4:0000000000000080 .LC9
C:\Users\stapi\AppData\Local\Temp\ccIVPyy5.s:152    .text.iotx_cloud_conn_mqtt_event_handle:000000000000007e .L1
C:\Users\stapi\AppData\Local\Temp\ccIVPyy5.s:368    .text.iotx_cloud_conn_mqtt_event_handle:00000000000001a2 .L3
C:\Users\stapi\AppData\Local\Temp\ccIVPyy5.s:127    .text.iotx_cloud_conn_mqtt_event_handle:000000000000006e .L67
C:\Users\stapi\AppData\Local\Temp\ccIVPyy5.s:136    .text.iotx_cloud_conn_mqtt_event_handle:0000000000000072 .L58
C:\Users\stapi\AppData\Local\Temp\ccIVPyy5.s:201    .text.iotx_cloud_conn_mqtt_event_handle:00000000000000c2 .L60
C:\Users\stapi\AppData\Local\Temp\ccIVPyy5.s:288    .text.iotx_cloud_conn_mqtt_event_handle:0000000000000112 .L23
C:\Users\stapi\AppData\Local\Temp\ccIVPyy5.s:318    .text.iotx_cloud_conn_mqtt_event_handle:0000000000000142 .L24
C:\Users\stapi\AppData\Local\Temp\ccIVPyy5.s:272    .text.iotx_cloud_conn_mqtt_event_handle:00000000000000f8 .L66
C:\Users\stapi\AppData\Local\Temp\ccIVPyy5.s:277    .text.iotx_cloud_conn_mqtt_event_handle:0000000000000100 .L55
C:\Users\stapi\AppData\Local\Temp\ccIVPyy5.s:362    .text.iotx_cloud_conn_mqtt_event_handle:0000000000000198 .L54
C:\Users\stapi\AppData\Local\Temp\ccIVPyy5.s:99     .text.iotx_cloud_conn_mqtt_event_handle:0000000000000036 .L14
C:\Users\stapi\AppData\Local\Temp\ccIVPyy5.s:165    .text.iotx_cloud_conn_mqtt_event_handle:0000000000000088 .L13
C:\Users\stapi\AppData\Local\Temp\ccIVPyy5.s:194    .text.iotx_cloud_conn_mqtt_event_handle:00000000000000c0 .L12
C:\Users\stapi\AppData\Local\Temp\ccIVPyy5.s:210    .text.iotx_cloud_conn_mqtt_event_handle:00000000000000c8 .L11
C:\Users\stapi\AppData\Local\Temp\ccIVPyy5.s:218    .text.iotx_cloud_conn_mqtt_event_handle:00000000000000cc .L10
C:\Users\stapi\AppData\Local\Temp\ccIVPyy5.s:226    .text.iotx_cloud_conn_mqtt_event_handle:00000000000000d0 .L9
C:\Users\stapi\AppData\Local\Temp\ccIVPyy5.s:234    .text.iotx_cloud_conn_mqtt_event_handle:00000000000000d4 .L8
C:\Users\stapi\AppData\Local\Temp\ccIVPyy5.s:242    .text.iotx_cloud_conn_mqtt_event_handle:00000000000000d8 .L7
C:\Users\stapi\AppData\Local\Temp\ccIVPyy5.s:250    .text.iotx_cloud_conn_mqtt_event_handle:00000000000000dc .L6
C:\Users\stapi\AppData\Local\Temp\ccIVPyy5.s:350    .text.iotx_cloud_conn_mqtt_event_handle:000000000000017c .L4
C:\Users\stapi\AppData\Local\Temp\ccIVPyy5.s:386    .rodata._mqtt_sub.str1.4:0000000000000000 .LC10
C:\Users\stapi\AppData\Local\Temp\ccIVPyy5.s:389    .rodata._mqtt_sub.str1.4:0000000000000014 .LC11
C:\Users\stapi\AppData\Local\Temp\ccIVPyy5.s:392    .rodata._mqtt_sub.str1.4:0000000000000030 .LC12
C:\Users\stapi\AppData\Local\Temp\ccIVPyy5.s:395    .rodata._mqtt_sub.str1.4:0000000000000038 .LC13
C:\Users\stapi\AppData\Local\Temp\ccIVPyy5.s:455    .text._mqtt_sub:0000000000000058 .L69
C:\Users\stapi\AppData\Local\Temp\ccIVPyy5.s:474    .text._mqtt_sub:0000000000000076 .L71
C:\Users\stapi\AppData\Local\Temp\ccIVPyy5.s:432    .text._mqtt_sub:000000000000002e .L82
C:\Users\stapi\AppData\Local\Temp\ccIVPyy5.s:493    .text._mqtt_sub:0000000000000096 .L72
C:\Users\stapi\AppData\Local\Temp\ccIVPyy5.s:557    .text._mqtt_sub:00000000000000d8 .L77
C:\Users\stapi\AppData\Local\Temp\ccIVPyy5.s:519    .text._mqtt_sub:00000000000000b0 .L74
C:\Users\stapi\AppData\Local\Temp\ccIVPyy5.s:535    .text._mqtt_sub:00000000000000c2 .L75
C:\Users\stapi\AppData\Local\Temp\ccIVPyy5.s:549    .text._mqtt_sub:00000000000000d4 .L79
C:\Users\stapi\AppData\Local\Temp\ccIVPyy5.s:563    .text._mqtt_sub:00000000000000da .L73
C:\Users\stapi\AppData\Local\Temp\ccIVPyy5.s:447    .text._mqtt_sub:0000000000000050 .L68
C:\Users\stapi\AppData\Local\Temp\ccIVPyy5.s:575    .rodata._mqtt_connect.str1.4:0000000000000000 .LC14
C:\Users\stapi\AppData\Local\Temp\ccIVPyy5.s:578    .rodata._mqtt_connect.str1.4:000000000000000c .LC15
C:\Users\stapi\AppData\Local\Temp\ccIVPyy5.s:581    .rodata._mqtt_connect.str1.4:0000000000000020 .LC16
C:\Users\stapi\AppData\Local\Temp\ccIVPyy5.s:584    .rodata._mqtt_connect.str1.4:000000000000004c .LC17
C:\Users\stapi\AppData\Local\Temp\ccIVPyy5.s:587    .rodata._mqtt_connect.str1.4:0000000000000060 .LC18
C:\Users\stapi\AppData\Local\Temp\ccIVPyy5.s:590    .rodata._mqtt_connect.str1.4:0000000000000074 .LC19
C:\Users\stapi\AppData\Local\Temp\ccIVPyy5.s:707    .text._mqtt_connect:00000000000000a4 .L84
C:\Users\stapi\AppData\Local\Temp\ccIVPyy5.s:728    .text._mqtt_connect:00000000000000c4 .L86
C:\Users\stapi\AppData\Local\Temp\ccIVPyy5.s:678    .text._mqtt_connect:0000000000000076 .L107
C:\Users\stapi\AppData\Local\Temp\ccIVPyy5.s:781    .text._mqtt_connect:0000000000000136 .L87
C:\Users\stapi\AppData\Local\Temp\ccIVPyy5.s:693    .text._mqtt_connect:0000000000000098 .L83
C:\Users\stapi\AppData\Local\Temp\ccIVPyy5.s:797    .text._mqtt_connect:0000000000000156 .L88
C:\Users\stapi\AppData\Local\Temp\ccIVPyy5.s:762    .text._mqtt_connect:0000000000000112 .L108
C:\Users\stapi\AppData\Local\Temp\ccIVPyy5.s:813    .text._mqtt_connect:0000000000000176 .L89
C:\Users\stapi\AppData\Local\Temp\ccIVPyy5.s:910    .text._mqtt_connect:00000000000001ee .L90
C:\Users\stapi\AppData\Local\Temp\ccIVPyy5.s:830    .text._mqtt_connect:0000000000000194 .L92
C:\Users\stapi\AppData\Local\Temp\ccIVPyy5.s:964    .text._mqtt_connect:0000000000000236 .L93
C:\Users\stapi\AppData\Local\Temp\ccIVPyy5.s:769    .text._mqtt_connect:0000000000000122 .L106
C:\Users\stapi\AppData\Local\Temp\ccIVPyy5.s:1030   .text._mqtt_close:0000000000000058 .L110
C:\Users\stapi\AppData\Local\Temp\ccIVPyy5.s:1021   .text._mqtt_close:0000000000000050 .L109
C:\Users\stapi\AppData\Local\Temp\ccIVPyy5.s:1125   .text._mqtt_yield:0000000000000022 .L116
C:\Users\stapi\AppData\Local\Temp\ccIVPyy5.s:1118   .text._mqtt_yield:000000000000001a .L115
C:\Users\stapi\AppData\Local\Temp\ccIVPyy5.s:1165   .text._mqtt_unsub:0000000000000022 .L120
C:\Users\stapi\AppData\Local\Temp\ccIVPyy5.s:1158   .text._mqtt_unsub:000000000000001a .L119
C:\Users\stapi\AppData\Local\Temp\ccIVPyy5.s:1214   .text._mqtt_publish:0000000000000026 .L124
C:\Users\stapi\AppData\Local\Temp\ccIVPyy5.s:1238   .text._mqtt_publish:000000000000003c .L126
C:\Users\stapi\AppData\Local\Temp\ccIVPyy5.s:1250   .text._mqtt_publish:000000000000004c .L129
C:\Users\stapi\AppData\Local\Temp\ccIVPyy5.s:1207   .text._mqtt_publish:000000000000001e .L123
C:\Users\stapi\AppData\Local\Temp\ccIVPyy5.s:1264   .rodata.iotx_cm_open_mqtt.str1.4:0000000000000000 .LC20
C:\Users\stapi\AppData\Local\Temp\ccIVPyy5.s:1267   .rodata.iotx_cm_open_mqtt.str1.4:000000000000002c .LC21
C:\Users\stapi\AppData\Local\Temp\ccIVPyy5.s:1270   .rodata.iotx_cm_open_mqtt.str1.4:0000000000000034 .LC22
C:\Users\stapi\AppData\Local\Temp\ccIVPyy5.s:1273   .rodata.iotx_cm_open_mqtt.str1.4:0000000000000058 .LC23
C:\Users\stapi\AppData\Local\Temp\ccIVPyy5.s:1331   .text.iotx_cm_open_mqtt:0000000000000052 .L132
C:\Users\stapi\AppData\Local\Temp\ccIVPyy5.s:1363   .text.iotx_cm_open_mqtt:0000000000000094 .L134
C:\Users\stapi\AppData\Local\Temp\ccIVPyy5.s:1321   .text.iotx_cm_open_mqtt:000000000000004a .L131
C:\Users\stapi\AppData\Local\Temp\ccIVPyy5.s:1413   .text.iotx_cm_open_mqtt:00000000000000ee .L135
C:\Users\stapi\AppData\Local\Temp\ccIVPyy5.s:1359   .text.iotx_cm_open_mqtt:0000000000000090 .L143
C:\Users\stapi\AppData\Local\Temp\ccIVPyy5.s:1438   .text.iotx_cm_open_mqtt:000000000000011c .L137
C:\Users\stapi\AppData\Local\Temp\ccIVPyy5.s:1389   .text.iotx_cm_open_mqtt:00000000000000c4 .L142
C:\Users\stapi\AppData\Local\Temp\ccIVPyy5.s:4914   .debug_abbrev:0000000000000000 .Ldebug_abbrev0
C:\Users\stapi\AppData\Local\Temp\ccIVPyy5.s:6932   .debug_str:000000000000014d .LASF367
C:\Users\stapi\AppData\Local\Temp\ccIVPyy5.s:7158   .debug_str:0000000000000bc1 .LASF368
C:\Users\stapi\AppData\Local\Temp\ccIVPyy5.s:7364   .debug_str:0000000000001532 .LASF369
C:\Users\stapi\AppData\Local\Temp\ccIVPyy5.s:6842   .debug_ranges:0000000000000000 .Ldebug_ranges0
C:\Users\stapi\AppData\Local\Temp\ccIVPyy5.s:6902   .debug_line:0000000000000000 .Ldebug_line0
C:\Users\stapi\AppData\Local\Temp\ccIVPyy5.s:7064   .debug_str:00000000000007ff .LASF0
C:\Users\stapi\AppData\Local\Temp\ccIVPyy5.s:6998   .debug_str:0000000000000537 .LASF3
C:\Users\stapi\AppData\Local\Temp\ccIVPyy5.s:7084   .debug_str:00000000000008a7 .LASF1
C:\Users\stapi\AppData\Local\Temp\ccIVPyy5.s:7506   .debug_str:0000000000001bda .LASF2
C:\Users\stapi\AppData\Local\Temp\ccIVPyy5.s:7140   .debug_str:0000000000000b14 .LASF4
C:\Users\stapi\AppData\Local\Temp\ccIVPyy5.s:7608   .debug_str:0000000000002088 .LASF5
C:\Users\stapi\AppData\Local\Temp\ccIVPyy5.s:7018   .debug_str:000000000000061d .LASF6
C:\Users\stapi\AppData\Local\Temp\ccIVPyy5.s:7282   .debug_str:000000000000121f .LASF7
C:\Users\stapi\AppData\Local\Temp\ccIVPyy5.s:7234   .debug_str:0000000000001014 .LASF8
C:\Users\stapi\AppData\Local\Temp\ccIVPyy5.s:7284   .debug_str:000000000000122a .LASF9
C:\Users\stapi\AppData\Local\Temp\ccIVPyy5.s:7412   .debug_str:00000000000017f8 .LASF10
C:\Users\stapi\AppData\Local\Temp\ccIVPyy5.s:7460   .debug_str:0000000000001a01 .LASF11
C:\Users\stapi\AppData\Local\Temp\ccIVPyy5.s:7324   .debug_str:0000000000001388 .LASF12
C:\Users\stapi\AppData\Local\Temp\ccIVPyy5.s:7122   .debug_str:0000000000000a70 .LASF13
C:\Users\stapi\AppData\Local\Temp\ccIVPyy5.s:7066   .debug_str:000000000000080b .LASF14
C:\Users\stapi\AppData\Local\Temp\ccIVPyy5.s:7422   .debug_str:0000000000001863 .LASF15
C:\Users\stapi\AppData\Local\Temp\ccIVPyy5.s:7584   .debug_str:0000000000001f5a .LASF16
C:\Users\stapi\AppData\Local\Temp\ccIVPyy5.s:7258   .debug_str:0000000000001116 .LASF17
C:\Users\stapi\AppData\Local\Temp\ccIVPyy5.s:7496   .debug_str:0000000000001b80 .LASF18
C:\Users\stapi\AppData\Local\Temp\ccIVPyy5.s:7462   .debug_str:0000000000001a0d .LASF19
C:\Users\stapi\AppData\Local\Temp\ccIVPyy5.s:7350   .debug_str:000000000000149a .LASF20
C:\Users\stapi\AppData\Local\Temp\ccIVPyy5.s:7226   .debug_str:0000000000000fd9 .LASF21
C:\Users\stapi\AppData\Local\Temp\ccIVPyy5.s:7610   .debug_str:000000000000209b .LASF22
C:\Users\stapi\AppData\Local\Temp\ccIVPyy5.s:7508   .debug_str:0000000000001be4 .LASF23
C:\Users\stapi\AppData\Local\Temp\ccIVPyy5.s:7198   .debug_str:0000000000000e68 .LASF24
C:\Users\stapi\AppData\Local\Temp\ccIVPyy5.s:7348   .debug_str:0000000000001488 .LASF25
C:\Users\stapi\AppData\Local\Temp\ccIVPyy5.s:6912   .debug_str:0000000000000058 .LASF263
C:\Users\stapi\AppData\Local\Temp\ccIVPyy5.s:7068   .debug_str:0000000000000813 .LASF26
C:\Users\stapi\AppData\Local\Temp\ccIVPyy5.s:7302   .debug_str:00000000000012c8 .LASF27
C:\Users\stapi\AppData\Local\Temp\ccIVPyy5.s:7370   .debug_str:00000000000015f7 .LASF28
C:\Users\stapi\AppData\Local\Temp\ccIVPyy5.s:7176   .debug_str:0000000000000d45 .LASF29
C:\Users\stapi\AppData\Local\Temp\ccIVPyy5.s:7580   .debug_str:0000000000001f31 .LASF30
C:\Users\stapi\AppData\Local\Temp\ccIVPyy5.s:7274   .debug_str:00000000000011b7 .LASF31
C:\Users\stapi\AppData\Local\Temp\ccIVPyy5.s:6904   .debug_str:0000000000000000 .LASF32
C:\Users\stapi\AppData\Local\Temp\ccIVPyy5.s:7454   .debug_str:00000000000019d8 .LASF33
C:\Users\stapi\AppData\Local\Temp\ccIVPyy5.s:7602   .debug_str:000000000000204d .LASF34
C:\Users\stapi\AppData\Local\Temp\ccIVPyy5.s:7472   .debug_str:0000000000001a98 .LASF35
C:\Users\stapi\AppData\Local\Temp\ccIVPyy5.s:7434   .debug_str:00000000000018fd .LASF36
C:\Users\stapi\AppData\Local\Temp\ccIVPyy5.s:7136   .debug_str:0000000000000af1 .LASF37
C:\Users\stapi\AppData\Local\Temp\ccIVPyy5.s:7374   .debug_str:000000000000162d .LASF38
C:\Users\stapi\AppData\Local\Temp\ccIVPyy5.s:7436   .debug_str:000000000000190c .LASF39
C:\Users\stapi\AppData\Local\Temp\ccIVPyy5.s:7230   .debug_str:0000000000000fed .LASF40
C:\Users\stapi\AppData\Local\Temp\ccIVPyy5.s:7614   .debug_str:00000000000020ad .LASF41
C:\Users\stapi\AppData\Local\Temp\ccIVPyy5.s:7286   .debug_str:0000000000001238 .LASF42
C:\Users\stapi\AppData\Local\Temp\ccIVPyy5.s:7402   .debug_str:0000000000001762 .LASF43
C:\Users\stapi\AppData\Local\Temp\ccIVPyy5.s:7106   .debug_str:000000000000099b .LASF44
C:\Users\stapi\AppData\Local\Temp\ccIVPyy5.s:7474   .debug_str:0000000000001aa7 .LASF45
C:\Users\stapi\AppData\Local\Temp\ccIVPyy5.s:6920   .debug_str:00000000000000af .LASF46
C:\Users\stapi\AppData\Local\Temp\ccIVPyy5.s:7010   .debug_str:00000000000005ca .LASF47
C:\Users\stapi\AppData\Local\Temp\ccIVPyy5.s:7440   .debug_str:000000000000192e .LASF48
C:\Users\stapi\AppData\Local\Temp\ccIVPyy5.s:7098   .debug_str:0000000000000934 .LASF49
C:\Users\stapi\AppData\Local\Temp\ccIVPyy5.s:7222   .debug_str:0000000000000fb1 .LASF50
C:\Users\stapi\AppData\Local\Temp\ccIVPyy5.s:7418   .debug_str:000000000000183c .LASF51
C:\Users\stapi\AppData\Local\Temp\ccIVPyy5.s:6946   .debug_str:00000000000002c4 .LASF52
C:\Users\stapi\AppData\Local\Temp\ccIVPyy5.s:7528   .debug_str:0000000000001cac .LASF53
C:\Users\stapi\AppData\Local\Temp\ccIVPyy5.s:7334   .debug_str:00000000000013fd .LASF54
C:\Users\stapi\AppData\Local\Temp\ccIVPyy5.s:7130   .debug_str:0000000000000a9a .LASF55
C:\Users\stapi\AppData\Local\Temp\ccIVPyy5.s:7028   .debug_str:000000000000066e .LASF56
C:\Users\stapi\AppData\Local\Temp\ccIVPyy5.s:6980   .debug_str:0000000000000466 .LASF57
C:\Users\stapi\AppData\Local\Temp\ccIVPyy5.s:7400   .debug_str:0000000000001749 .LASF58
C:\Users\stapi\AppData\Local\Temp\ccIVPyy5.s:7546   .debug_str:0000000000001d8b .LASF59
C:\Users\stapi\AppData\Local\Temp\ccIVPyy5.s:7390   .debug_str:00000000000016e0 .LASF60
C:\Users\stapi\AppData\Local\Temp\ccIVPyy5.s:6906   .debug_str:000000000000000f .LASF61
C:\Users\stapi\AppData\Local\Temp\ccIVPyy5.s:6962   .debug_str:000000000000037b .LASF62
C:\Users\stapi\AppData\Local\Temp\ccIVPyy5.s:6978   .debug_str:0000000000000447 .LASF63
C:\Users\stapi\AppData\Local\Temp\ccIVPyy5.s:7408   .debug_str:00000000000017d1 .LASF64
C:\Users\stapi\AppData\Local\Temp\ccIVPyy5.s:7150   .debug_str:0000000000000b5b .LASF65
C:\Users\stapi\AppData\Local\Temp\ccIVPyy5.s:7280   .debug_str:00000000000011fd .LASF66
C:\Users\stapi\AppData\Local\Temp\ccIVPyy5.s:7034   .debug_str:00000000000006c0 .LASF67
C:\Users\stapi\AppData\Local\Temp\ccIVPyy5.s:7600   .debug_str:0000000000002031 .LASF68
C:\Users\stapi\AppData\Local\Temp\ccIVPyy5.s:7616   .debug_str:00000000000020cf .LASF69
C:\Users\stapi\AppData\Local\Temp\ccIVPyy5.s:7502   .debug_str:0000000000001bb4 .LASF70
C:\Users\stapi\AppData\Local\Temp\ccIVPyy5.s:7586   .debug_str:0000000000001f63 .LASF71
C:\Users\stapi\AppData\Local\Temp\ccIVPyy5.s:7096   .debug_str:000000000000091b .LASF72
C:\Users\stapi\AppData\Local\Temp\ccIVPyy5.s:7152   .debug_str:0000000000000b79 .LASF73
C:\Users\stapi\AppData\Local\Temp\ccIVPyy5.s:7354   .debug_str:00000000000014c7 .LASF74
C:\Users\stapi\AppData\Local\Temp\ccIVPyy5.s:7470   .debug_str:0000000000001a80 .LASF75
C:\Users\stapi\AppData\Local\Temp\ccIVPyy5.s:7170   .debug_str:0000000000000cdd .LASF76
C:\Users\stapi\AppData\Local\Temp\ccIVPyy5.s:7070   .debug_str:000000000000082a .LASF77
C:\Users\stapi\AppData\Local\Temp\ccIVPyy5.s:7444   .debug_str:0000000000001964 .LASF78
C:\Users\stapi\AppData\Local\Temp\ccIVPyy5.s:7118   .debug_str:0000000000000a36 .LASF79
C:\Users\stapi\AppData\Local\Temp\ccIVPyy5.s:6972   .debug_str:0000000000000417 .LASF80
C:\Users\stapi\AppData\Local\Temp\ccIVPyy5.s:7518   .debug_str:0000000000001c2d .LASF81
C:\Users\stapi\AppData\Local\Temp\ccIVPyy5.s:7216   .debug_str:0000000000000f5c .LASF82
C:\Users\stapi\AppData\Local\Temp\ccIVPyy5.s:7210   .debug_str:0000000000000f05 .LASF83
C:\Users\stapi\AppData\Local\Temp\ccIVPyy5.s:7102   .debug_str:000000000000096d .LASF84
C:\Users\stapi\AppData\Local\Temp\ccIVPyy5.s:7486   .debug_str:0000000000001b08 .LASF85
C:\Users\stapi\AppData\Local\Temp\ccIVPyy5.s:7514   .debug_str:0000000000001c03 .LASF86
C:\Users\stapi\AppData\Local\Temp\ccIVPyy5.s:7488   .debug_str:0000000000001b22 .LASF87
C:\Users\stapi\AppData\Local\Temp\ccIVPyy5.s:7060   .debug_str:00000000000007dc .LASF88
C:\Users\stapi\AppData\Local\Temp\ccIVPyy5.s:7590   .debug_str:0000000000001f9c .LASF89
C:\Users\stapi\AppData\Local\Temp\ccIVPyy5.s:7588   .debug_str:0000000000001f7f .LASF90
C:\Users\stapi\AppData\Local\Temp\ccIVPyy5.s:7554   .debug_str:0000000000001de5 .LASF91
C:\Users\stapi\AppData\Local\Temp\ccIVPyy5.s:7598   .debug_str:0000000000002011 .LASF92
C:\Users\stapi\AppData\Local\Temp\ccIVPyy5.s:7308   .debug_str:0000000000001300 .LASF93
C:\Users\stapi\AppData\Local\Temp\ccIVPyy5.s:7314   .debug_str:000000000000133f .LASF94
C:\Users\stapi\AppData\Local\Temp\ccIVPyy5.s:7182   .debug_str:0000000000000d8b .LASF95
C:\Users\stapi\AppData\Local\Temp\ccIVPyy5.s:6922   .debug_str:00000000000000cf .LASF96
C:\Users\stapi\AppData\Local\Temp\ccIVPyy5.s:7544   .debug_str:0000000000001d6f .LASF97
C:\Users\stapi\AppData\Local\Temp\ccIVPyy5.s:7378   .debug_str:0000000000001657 .LASF98
C:\Users\stapi\AppData\Local\Temp\ccIVPyy5.s:7214   .debug_str:0000000000000f3c .LASF99
C:\Users\stapi\AppData\Local\Temp\ccIVPyy5.s:7208   .debug_str:0000000000000ee6 .LASF100
C:\Users\stapi\AppData\Local\Temp\ccIVPyy5.s:7292   .debug_str:000000000000127a .LASF101
C:\Users\stapi\AppData\Local\Temp\ccIVPyy5.s:6956   .debug_str:0000000000000338 .LASF102
C:\Users\stapi\AppData\Local\Temp\ccIVPyy5.s:7592   .debug_str:0000000000001fbf .LASF103
C:\Users\stapi\AppData\Local\Temp\ccIVPyy5.s:7022   .debug_str:0000000000000630 .LASF104
C:\Users\stapi\AppData\Local\Temp\ccIVPyy5.s:7356   .debug_str:00000000000014e2 .LASF105
C:\Users\stapi\AppData\Local\Temp\ccIVPyy5.s:7572   .debug_str:0000000000001ee0 .LASF106
C:\Users\stapi\AppData\Local\Temp\ccIVPyy5.s:6940   .debug_str:0000000000000271 .LASF107
C:\Users\stapi\AppData\Local\Temp\ccIVPyy5.s:7548   .debug_str:0000000000001da9 .LASF108
C:\Users\stapi\AppData\Local\Temp\ccIVPyy5.s:7594   .debug_str:0000000000001fd9 .LASF109
C:\Users\stapi\AppData\Local\Temp\ccIVPyy5.s:6910   .debug_str:000000000000003e .LASF110
C:\Users\stapi\AppData\Local\Temp\ccIVPyy5.s:7272   .debug_str:000000000000119f .LASF111
C:\Users\stapi\AppData\Local\Temp\ccIVPyy5.s:7032   .debug_str:000000000000069f .LASF112
C:\Users\stapi\AppData\Local\Temp\ccIVPyy5.s:7650   .debug_str:0000000000002244 .LASF113
C:\Users\stapi\AppData\Local\Temp\ccIVPyy5.s:7044   .debug_str:0000000000000724 .LASF114
C:\Users\stapi\AppData\Local\Temp\ccIVPyy5.s:7394   .debug_str:0000000000001703 .LASF115
C:\Users\stapi\AppData\Local\Temp\ccIVPyy5.s:7642   .debug_str:00000000000021da .LASF116
C:\Users\stapi\AppData\Local\Temp\ccIVPyy5.s:7634   .debug_str:000000000000216b .LASF117
C:\Users\stapi\AppData\Local\Temp\ccIVPyy5.s:7024   .debug_str:0000000000000649 .LASF118
C:\Users\stapi\AppData\Local\Temp\ccIVPyy5.s:7312   .debug_str:0000000000001327 .LASF119
C:\Users\stapi\AppData\Local\Temp\ccIVPyy5.s:7202   .debug_str:0000000000000e91 .LASF120
C:\Users\stapi\AppData\Local\Temp\ccIVPyy5.s:7004   .debug_str:0000000000000583 .LASF121
C:\Users\stapi\AppData\Local\Temp\ccIVPyy5.s:7120   .debug_str:0000000000000a52 .LASF122
C:\Users\stapi\AppData\Local\Temp\ccIVPyy5.s:6986   .debug_str:00000000000004b7 .LASF123
C:\Users\stapi\AppData\Local\Temp\ccIVPyy5.s:7042   .debug_str:000000000000070c .LASF124
C:\Users\stapi\AppData\Local\Temp\ccIVPyy5.s:7578   .debug_str:0000000000001f1d .LASF125
C:\Users\stapi\AppData\Local\Temp\ccIVPyy5.s:6948   .debug_str:00000000000002e2 .LASF126
C:\Users\stapi\AppData\Local\Temp\ccIVPyy5.s:6908   .debug_str:0000000000000026 .LASF127
C:\Users\stapi\AppData\Local\Temp\ccIVPyy5.s:7056   .debug_str:00000000000007b4 .LASF128
C:\Users\stapi\AppData\Local\Temp\ccIVPyy5.s:7582   .debug_str:0000000000001f42 .LASF129
C:\Users\stapi\AppData\Local\Temp\ccIVPyy5.s:7006   .debug_str:000000000000059b .LASF130
C:\Users\stapi\AppData\Local\Temp\ccIVPyy5.s:7196   .debug_str:0000000000000e4b .LASF131
C:\Users\stapi\AppData\Local\Temp\ccIVPyy5.s:6928   .debug_str:0000000000000125 .LASF132
C:\Users\stapi\AppData\Local\Temp\ccIVPyy5.s:7052   .debug_str:000000000000078f .LASF133
C:\Users\stapi\AppData\Local\Temp\ccIVPyy5.s:7524   .debug_str:0000000000001c80 .LASF134
C:\Users\stapi\AppData\Local\Temp\ccIVPyy5.s:7168   .debug_str:0000000000000cb5 .LASF135
C:\Users\stapi\AppData\Local\Temp\ccIVPyy5.s:7568   .debug_str:0000000000001e9d .LASF136
C:\Users\stapi\AppData\Local\Temp\ccIVPyy5.s:7134   .debug_str:0000000000000ad9 .LASF137
C:\Users\stapi\AppData\Local\Temp\ccIVPyy5.s:7570   .debug_str:0000000000001ec5 .LASF138
C:\Users\stapi\AppData\Local\Temp\ccIVPyy5.s:7190   .debug_str:0000000000000dff .LASF139
C:\Users\stapi\AppData\Local\Temp\ccIVPyy5.s:7100   .debug_str:000000000000094d .LASF140
C:\Users\stapi\AppData\Local\Temp\ccIVPyy5.s:6982   .debug_str:0000000000000481 .LASF141
C:\Users\stapi\AppData\Local\Temp\ccIVPyy5.s:7278   .debug_str:00000000000011e5 .LASF142
C:\Users\stapi\AppData\Local\Temp\ccIVPyy5.s:7386   .debug_str:00000000000016b5 .LASF143
C:\Users\stapi\AppData\Local\Temp\ccIVPyy5.s:7148   .debug_str:0000000000000b40 .LASF144
C:\Users\stapi\AppData\Local\Temp\ccIVPyy5.s:7406   .debug_str:00000000000017b4 .LASF145
C:\Users\stapi\AppData\Local\Temp\ccIVPyy5.s:7110   .debug_str:00000000000009dc .LASF146
C:\Users\stapi\AppData\Local\Temp\ccIVPyy5.s:7372   .debug_str:000000000000160e .LASF147
C:\Users\stapi\AppData\Local\Temp\ccIVPyy5.s:7012   .debug_str:00000000000005ec .LASF148
C:\Users\stapi\AppData\Local\Temp\ccIVPyy5.s:6992   .debug_str:0000000000000508 .LASF149
C:\Users\stapi\AppData\Local\Temp\ccIVPyy5.s:7184   .debug_str:0000000000000dac .LASF150
C:\Users\stapi\AppData\Local\Temp\ccIVPyy5.s:7242   .debug_str:0000000000001078 .LASF151
C:\Users\stapi\AppData\Local\Temp\ccIVPyy5.s:7574   .debug_str:0000000000001efa .LASF152
C:\Users\stapi\AppData\Local\Temp\ccIVPyy5.s:7628   .debug_str:000000000000213b .LASF153
C:\Users\stapi\AppData\Local\Temp\ccIVPyy5.s:7298   .debug_str:000000000000129a .LASF154
C:\Users\stapi\AppData\Local\Temp\ccIVPyy5.s:7048   .debug_str:000000000000075c .LASF155
C:\Users\stapi\AppData\Local\Temp\ccIVPyy5.s:7194   .debug_str:0000000000000e31 .LASF156
C:\Users\stapi\AppData\Local\Temp\ccIVPyy5.s:7446   .debug_str:000000000000197c .LASF157
C:\Users\stapi\AppData\Local\Temp\ccIVPyy5.s:6968   .debug_str:00000000000003cb .LASF158
C:\Users\stapi\AppData\Local\Temp\ccIVPyy5.s:7620   .debug_str:00000000000020f1 .LASF159
C:\Users\stapi\AppData\Local\Temp\ccIVPyy5.s:7536   .debug_str:0000000000001d0c .LASF160
C:\Users\stapi\AppData\Local\Temp\ccIVPyy5.s:7162   .debug_str:0000000000000c6e .LASF161
C:\Users\stapi\AppData\Local\Temp\ccIVPyy5.s:7078   .debug_str:0000000000000864 .LASF162
C:\Users\stapi\AppData\Local\Temp\ccIVPyy5.s:7566   .debug_str:0000000000001e79 .LASF163
C:\Users\stapi\AppData\Local\Temp\ccIVPyy5.s:7200   .debug_str:0000000000000e70 .LASF164
C:\Users\stapi\AppData\Local\Temp\ccIVPyy5.s:7266   .debug_str:000000000000115b .LASF165
C:\Users\stapi\AppData\Local\Temp\ccIVPyy5.s:7290   .debug_str:000000000000125a .LASF166
C:\Users\stapi\AppData\Local\Temp\ccIVPyy5.s:6960   .debug_str:0000000000000359 .LASF167
C:\Users\stapi\AppData\Local\Temp\ccIVPyy5.s:7538   .debug_str:0000000000001d2d .LASF168
C:\Users\stapi\AppData\Local\Temp\ccIVPyy5.s:7648   .debug_str:0000000000002223 .LASF169
C:\Users\stapi\AppData\Local\Temp\ccIVPyy5.s:7132   .debug_str:0000000000000ab6 .LASF170
C:\Users\stapi\AppData\Local\Temp\ccIVPyy5.s:7218   .debug_str:0000000000000f7b .LASF171
C:\Users\stapi\AppData\Local\Temp\ccIVPyy5.s:6944   .debug_str:00000000000002a1 .LASF172
C:\Users\stapi\AppData\Local\Temp\ccIVPyy5.s:7326   .debug_str:0000000000001395 .LASF173
C:\Users\stapi\AppData\Local\Temp\ccIVPyy5.s:7414   .debug_str:000000000000180f .LASF174
C:\Users\stapi\AppData\Local\Temp\ccIVPyy5.s:7644   .debug_str:00000000000021f9 .LASF175
C:\Users\stapi\AppData\Local\Temp\ccIVPyy5.s:7468   .debug_str:0000000000001a56 .LASF176
C:\Users\stapi\AppData\Local\Temp\ccIVPyy5.s:7090   .debug_str:00000000000008dc .LASF177
C:\Users\stapi\AppData\Local\Temp\ccIVPyy5.s:7180   .debug_str:0000000000000d77 .LASF178
C:\Users\stapi\AppData\Local\Temp\ccIVPyy5.s:7490   .debug_str:0000000000001b37 .LASF179
C:\Users\stapi\AppData\Local\Temp\ccIVPyy5.s:7264   .debug_str:000000000000113f .LASF180
C:\Users\stapi\AppData\Local\Temp\ccIVPyy5.s:7352   .debug_str:00000000000014a4 .LASF181
C:\Users\stapi\AppData\Local\Temp\ccIVPyy5.s:7174   .debug_str:0000000000000d1f .LASF182
C:\Users\stapi\AppData\Local\Temp\ccIVPyy5.s:7442   .debug_str:0000000000001941 .LASF183
C:\Users\stapi\AppData\Local\Temp\ccIVPyy5.s:7428   .debug_str:00000000000018a9 .LASF184
C:\Users\stapi\AppData\Local\Temp\ccIVPyy5.s:7532   .debug_str:0000000000001cd3 .LASF185
C:\Users\stapi\AppData\Local\Temp\ccIVPyy5.s:7046   .debug_str:000000000000073f .LASF186
C:\Users\stapi\AppData\Local\Temp\ccIVPyy5.s:7238   .debug_str:000000000000103a .LASF187
C:\Users\stapi\AppData\Local\Temp\ccIVPyy5.s:7562   .debug_str:0000000000001e3f .LASF188
C:\Users\stapi\AppData\Local\Temp\ccIVPyy5.s:7188   .debug_str:0000000000000de1 .LASF189
C:\Users\stapi\AppData\Local\Temp\ccIVPyy5.s:7652   .debug_str:0000000000002265 .LASF190
C:\Users\stapi\AppData\Local\Temp\ccIVPyy5.s:7114   .debug_str:00000000000009fe .LASF191
C:\Users\stapi\AppData\Local\Temp\ccIVPyy5.s:6936   .debug_str:0000000000000248 .LASF192
C:\Users\stapi\AppData\Local\Temp\ccIVPyy5.s:7250   .debug_str:00000000000010c6 .LASF193
C:\Users\stapi\AppData\Local\Temp\ccIVPyy5.s:7108   .debug_str:00000000000009c2 .LASF194
C:\Users\stapi\AppData\Local\Temp\ccIVPyy5.s:7058   .debug_str:00000000000007cf .LASF195
C:\Users\stapi\AppData\Local\Temp\ccIVPyy5.s:7638   .debug_str:0000000000002194 .LASF196
C:\Users\stapi\AppData\Local\Temp\ccIVPyy5.s:7466   .debug_str:0000000000001a23 .LASF197
C:\Users\stapi\AppData\Local\Temp\ccIVPyy5.s:6970   .debug_str:00000000000003ea .LASF198
C:\Users\stapi\AppData\Local\Temp\ccIVPyy5.s:7640   .debug_str:00000000000021a8 .LASF199
C:\Users\stapi\AppData\Local\Temp\ccIVPyy5.s:7464   .debug_str:0000000000001a12 .LASF200
C:\Users\stapi\AppData\Local\Temp\ccIVPyy5.s:7330   .debug_str:00000000000013cf .LASF201
C:\Users\stapi\AppData\Local\Temp\ccIVPyy5.s:7270   .debug_str:000000000000118e .LASF202
C:\Users\stapi\AppData\Local\Temp\ccIVPyy5.s:6952   .debug_str:0000000000000310 .LASF203
C:\Users\stapi\AppData\Local\Temp\ccIVPyy5.s:7126   .debug_str:0000000000000a7c .LASF204
C:\Users\stapi\AppData\Local\Temp\ccIVPyy5.s:7606   .debug_str:0000000000002077 .LASF205
C:\Users\stapi\AppData\Local\Temp\ccIVPyy5.s:7338   .debug_str:0000000000001419 .LASF206
C:\Users\stapi\AppData\Local\Temp\ccIVPyy5.s:7224   .debug_str:0000000000000fc8 .LASF207
C:\Users\stapi\AppData\Local\Temp\ccIVPyy5.s:7618   .debug_str:00000000000020e6 .LASF208
C:\Users\stapi\AppData\Local\Temp\ccIVPyy5.s:7480   .debug_str:0000000000001aeb .LASF209
C:\Users\stapi\AppData\Local\Temp\ccIVPyy5.s:7624   .debug_str:0000000000002112 .LASF210
C:\Users\stapi\AppData\Local\Temp\ccIVPyy5.s:7318   .debug_str:0000000000001363 .LASF211
C:\Users\stapi\AppData\Local\Temp\ccIVPyy5.s:7248   .debug_str:00000000000010b7 .LASF212
C:\Users\stapi\AppData\Local\Temp\ccIVPyy5.s:7232   .debug_str:0000000000001005 .LASF213
C:\Users\stapi\AppData\Local\Temp\ccIVPyy5.s:7476   .debug_str:0000000000001acd .LASF214
C:\Users\stapi\AppData\Local\Temp\ccIVPyy5.s:7478   .debug_str:0000000000001adc .LASF215
C:\Users\stapi\AppData\Local\Temp\ccIVPyy5.s:7564   .debug_str:0000000000001e60 .LASF216
C:\Users\stapi\AppData\Local\Temp\ccIVPyy5.s:7322   .debug_str:0000000000001378 .LASF217
C:\Users\stapi\AppData\Local\Temp\ccIVPyy5.s:7040   .debug_str:00000000000006f6 .LASF218
C:\Users\stapi\AppData\Local\Temp\ccIVPyy5.s:7452   .debug_str:00000000000019bd .LASF219
C:\Users\stapi\AppData\Local\Temp\ccIVPyy5.s:7596   .debug_str:0000000000001ff7 .LASF220
C:\Users\stapi\AppData\Local\Temp\ccIVPyy5.s:7368   .debug_str:00000000000015d6 .LASF221
C:\Users\stapi\AppData\Local\Temp\ccIVPyy5.s:7534   .debug_str:0000000000001ceb .LASF222
C:\Users\stapi\AppData\Local\Temp\ccIVPyy5.s:7206   .debug_str:0000000000000ec8 .LASF223
C:\Users\stapi\AppData\Local\Temp\ccIVPyy5.s:7500   .debug_str:0000000000001b91 .LASF224
C:\Users\stapi\AppData\Local\Temp\ccIVPyy5.s:7432   .debug_str:00000000000018da .LASF225
C:\Users\stapi\AppData\Local\Temp\ccIVPyy5.s:7424   .debug_str:000000000000186c .LASF226
C:\Users\stapi\AppData\Local\Temp\ccIVPyy5.s:6964   .debug_str:0000000000000399 .LASF227
C:\Users\stapi\AppData\Local\Temp\ccIVPyy5.s:7154   .debug_str:0000000000000b93 .LASF228
C:\Users\stapi\AppData\Local\Temp\ccIVPyy5.s:7426   .debug_str:000000000000188c .LASF229
C:\Users\stapi\AppData\Local\Temp\ccIVPyy5.s:7404   .debug_str:0000000000001793 .LASF230
C:\Users\stapi\AppData\Local\Temp\ccIVPyy5.s:7558   .debug_str:0000000000001e0f .LASF231
C:\Users\stapi\AppData\Local\Temp\ccIVPyy5.s:6926   .debug_str:000000000000010e .LASF232
C:\Users\stapi\AppData\Local\Temp\ccIVPyy5.s:6958   .debug_str:000000000000034f .LASF233
C:\Users\stapi\AppData\Local\Temp\ccIVPyy5.s:7288   .debug_str:0000000000001253 .LASF234
C:\Users\stapi\AppData\Local\Temp\ccIVPyy5.s:6996   .debug_str:000000000000052d .LASF235
C:\Users\stapi\AppData\Local\Temp\ccIVPyy5.s:7252   .debug_str:00000000000010d3 .LASF236
C:\Users\stapi\AppData\Local\Temp\ccIVPyy5.s:6994   .debug_str:0000000000000526 .LASF237
C:\Users\stapi\AppData\Local\Temp\ccIVPyy5.s:7262   .debug_str:0000000000001137 .LASF238
C:\Users\stapi\AppData\Local\Temp\ccIVPyy5.s:7082   .debug_str:000000000000088f .LASF239
C:\Users\stapi\AppData\Local\Temp\ccIVPyy5.s:7074   .debug_str:0000000000000851 .LASF240
C:\Users\stapi\AppData\Local\Temp\ccIVPyy5.s:7492   .debug_str:0000000000001b5d .LASF241
C:\Users\stapi\AppData\Local\Temp\ccIVPyy5.s:7346   .debug_str:0000000000001468 .LASF242
C:\Users\stapi\AppData\Local\Temp\ccIVPyy5.s:7016   .debug_str:0000000000000618 .LASF243
C:\Users\stapi\AppData\Local\Temp\ccIVPyy5.s:7340   .debug_str:0000000000001433 .LASF244
C:\Users\stapi\AppData\Local\Temp\ccIVPyy5.s:7212   .debug_str:0000000000000f23 .LASF245
C:\Users\stapi\AppData\Local\Temp\ccIVPyy5.s:7484   .debug_str:0000000000001b03 .LASF246
C:\Users\stapi\AppData\Local\Temp\ccIVPyy5.s:7300   .debug_str:00000000000012ba .LASF247
C:\Users\stapi\AppData\Local\Temp\ccIVPyy5.s:7636   .debug_str:0000000000002181 .LASF248
C:\Users\stapi\AppData\Local\Temp\ccIVPyy5.s:7240   .debug_str:0000000000001062 .LASF249
C:\Users\stapi\AppData\Local\Temp\ccIVPyy5.s:6984   .debug_str:00000000000004a8 .LASF250
C:\Users\stapi\AppData\Local\Temp\ccIVPyy5.s:6916   .debug_str:0000000000000083 .LASF251
C:\Users\stapi\AppData\Local\Temp\ccIVPyy5.s:7552   .debug_str:0000000000001dd8 .LASF252
C:\Users\stapi\AppData\Local\Temp\ccIVPyy5.s:7540   .debug_str:0000000000001d4e .LASF253
C:\Users\stapi\AppData\Local\Temp\ccIVPyy5.s:7260   .debug_str:0000000000001120 .LASF254
C:\Users\stapi\AppData\Local\Temp\ccIVPyy5.s:7178   .debug_str:0000000000000d5e .LASF255
C:\Users\stapi\AppData\Local\Temp\ccIVPyy5.s:7328   .debug_str:00000000000013b5 .LASF256
C:\Users\stapi\AppData\Local\Temp\ccIVPyy5.s:7448   .debug_str:0000000000001990 .LASF257
C:\Users\stapi\AppData\Local\Temp\ccIVPyy5.s:6934   .debug_str:0000000000000234 .LASF258
C:\Users\stapi\AppData\Local\Temp\ccIVPyy5.s:7156   .debug_str:0000000000000bb3 .LASF259
C:\Users\stapi\AppData\Local\Temp\ccIVPyy5.s:7160   .debug_str:0000000000000c61 .LASF260
C:\Users\stapi\AppData\Local\Temp\ccIVPyy5.s:7268   .debug_str:000000000000117d .LASF261
C:\Users\stapi\AppData\Local\Temp\ccIVPyy5.s:6914   .debug_str:0000000000000069 .LASF262
C:\Users\stapi\AppData\Local\Temp\ccIVPyy5.s:7008   .debug_str:00000000000005b3 .LASF264
C:\Users\stapi\AppData\Local\Temp\ccIVPyy5.s:7382   .debug_str:000000000000167e .LASF265
C:\Users\stapi\AppData\Local\Temp\ccIVPyy5.s:7604   .debug_str:000000000000205c .LASF266
C:\Users\stapi\AppData\Local\Temp\ccIVPyy5.s:7430   .debug_str:00000000000018bf .LASF267
C:\Users\stapi\AppData\Local\Temp\ccIVPyy5.s:7384   .debug_str:0000000000001699 .LASF268
C:\Users\stapi\AppData\Local\Temp\ccIVPyy5.s:7358   .debug_str:00000000000014fc .LASF269
C:\Users\stapi\AppData\Local\Temp\ccIVPyy5.s:7332   .debug_str:00000000000013e4 .LASF270
C:\Users\stapi\AppData\Local\Temp\ccIVPyy5.s:7088   .debug_str:00000000000008c8 .LASF271
C:\Users\stapi\AppData\Local\Temp\ccIVPyy5.s:6918   .debug_str:0000000000000091 .LASF272
C:\Users\stapi\AppData\Local\Temp\ccIVPyy5.s:7000   .debug_str:0000000000000541 .LASF273
C:\Users\stapi\AppData\Local\Temp\ccIVPyy5.s:7002   .debug_str:0000000000000564 .LASF274
C:\Users\stapi\AppData\Local\Temp\ccIVPyy5.s:7254   .debug_str:00000000000010df .LASF275
C:\Users\stapi\AppData\Local\Temp\ccIVPyy5.s:6990   .debug_str:00000000000004ea .LASF276
C:\Users\stapi\AppData\Local\Temp\ccIVPyy5.s:7276   .debug_str:00000000000011c9 .LASF277
C:\Users\stapi\AppData\Local\Temp\ccIVPyy5.s:7116   .debug_str:0000000000000a1b .LASF278
C:\Users\stapi\AppData\Local\Temp\ccIVPyy5.s:7186   .debug_str:0000000000000dc3 .LASF279
C:\Users\stapi\AppData\Local\Temp\ccIVPyy5.s:7522   .debug_str:0000000000001c63 .LASF280
C:\Users\stapi\AppData\Local\Temp\ccIVPyy5.s:7632   .debug_str:0000000000002159 .LASF281
C:\Users\stapi\AppData\Local\Temp\ccIVPyy5.s:7204   .debug_str:0000000000000eb2 .LASF282
C:\Users\stapi\AppData\Local\Temp\ccIVPyy5.s:6976   .debug_str:0000000000000442 .LASF283
C:\Users\stapi\AppData\Local\Temp\ccIVPyy5.s:7344   .debug_str:0000000000001454 .LASF284
C:\Users\stapi\AppData\Local\Temp\ccIVPyy5.s:6924   .debug_str:00000000000000f7 .LASF285
C:\Users\stapi\AppData\Local\Temp\ccIVPyy5.s:7256   .debug_str:00000000000010fe .LASF286
C:\Users\stapi\AppData\Local\Temp\ccIVPyy5.s:7104   .debug_str:000000000000098d .LASF287
C:\Users\stapi\AppData\Local\Temp\ccIVPyy5.s:7080   .debug_str:0000000000000887 .LASF288
C:\Users\stapi\AppData\Local\Temp\ccIVPyy5.s:7306   .debug_str:00000000000012eb .LASF289
C:\Users\stapi\AppData\Local\Temp\ccIVPyy5.s:7410   .debug_str:00000000000017ef .LASF290
C:\Users\stapi\AppData\Local\Temp\ccIVPyy5.s:7228   .debug_str:0000000000000fe3 .LASF291
C:\Users\stapi\AppData\Local\Temp\ccIVPyy5.s:7094   .debug_str:000000000000090e .LASF292
C:\Users\stapi\AppData\Local\Temp\ccIVPyy5.s:7112   .debug_str:00000000000009f7 .LASF293
C:\Users\stapi\AppData\Local\Temp\ccIVPyy5.s:7388   .debug_str:00000000000016d5 .LASF294
C:\Users\stapi\AppData\Local\Temp\ccIVPyy5.s:7166   .debug_str:0000000000000ca0 .LASF295
C:\Users\stapi\AppData\Local\Temp\ccIVPyy5.s:7456   .debug_str:00000000000019e9 .LASF296
C:\Users\stapi\AppData\Local\Temp\ccIVPyy5.s:7026   .debug_str:0000000000000662 .LASF297
C:\Users\stapi\AppData\Local\Temp\ccIVPyy5.s:7294   .debug_str:000000000000128e .LASF298
C:\Users\stapi\AppData\Local\Temp\ccIVPyy5.s:7458   .debug_str:00000000000019ee .LASF299
C:\Users\stapi\AppData\Local\Temp\ccIVPyy5.s:7654   .debug_str:000000000000228b .LASF300
C:\Users\stapi\AppData\Local\Temp\ccIVPyy5.s:7542   .debug_str:0000000000001d60 .LASF301
C:\Users\stapi\AppData\Local\Temp\ccIVPyy5.s:7304   .debug_str:00000000000012da .LASF302
C:\Users\stapi\AppData\Local\Temp\ccIVPyy5.s:7646   .debug_str:0000000000002214 .LASF303
C:\Users\stapi\AppData\Local\Temp\ccIVPyy5.s:6942   .debug_str:0000000000000290 .LASF304
C:\Users\stapi\AppData\Local\Temp\ccIVPyy5.s:7246   .debug_str:00000000000010a4 .LASF370
C:\Users\stapi\AppData\Local\Temp\ccIVPyy5.s:7494   .debug_str:0000000000001b74 .LASF305
C:\Users\stapi\AppData\Local\Temp\ccIVPyy5.s:7020   .debug_str:0000000000000626 .LASF306
C:\Users\stapi\AppData\Local\Temp\ccIVPyy5.s:7420   .debug_str:0000000000001856 .LASF307
C:\Users\stapi\AppData\Local\Temp\ccIVPyy5.s:7320   .debug_str:000000000000136f .LASF308
C:\Users\stapi\AppData\Local\Temp\ccIVPyy5.s:7036   .debug_str:00000000000006d3 .LASF309
C:\Users\stapi\AppData\Local\Temp\ccIVPyy5.s:7392   .debug_str:00000000000016fa .LASF310
C:\Users\stapi\AppData\Local\Temp\ccIVPyy5.s:7336   .debug_str:000000000000140e .LASF311
C:\Users\stapi\AppData\Local\Temp\ccIVPyy5.s:7510   .debug_str:0000000000001bed .LASF312
C:\Users\stapi\AppData\Local\Temp\ccIVPyy5.s:7526   .debug_str:0000000000001c9e .LASF313
C:\Users\stapi\AppData\Local\Temp\ccIVPyy5.s:7076   .debug_str:000000000000085c .LASF314
C:\Users\stapi\AppData\Local\Temp\ccIVPyy5.s:7244   .debug_str:000000000000108f .LASF315
C:\Users\stapi\AppData\Local\Temp\ccIVPyy5.s:7398   .debug_str:0000000000001737 .LASF320
C:\Users\stapi\AppData\Local\Temp\ccIVPyy5.s:6988   .debug_str:00000000000004d5 .LASF371
C:\Users\stapi\AppData\Local\Temp\ccIVPyy5.s:6950   .debug_str:0000000000000302 .LASF316
C:\Users\stapi\AppData\Local\Temp\ccIVPyy5.s:7498   .debug_str:0000000000001b85 .LASF372
C:\Users\stapi\AppData\Local\Temp\ccIVPyy5.s:7576   .debug_str:0000000000001f11 .LASF317
C:\Users\stapi\AppData\Local\Temp\ccIVPyy5.s:7482   .debug_str:0000000000001afd .LASF318
C:\Users\stapi\AppData\Local\Temp\ccIVPyy5.s:7142   .debug_str:0000000000000b1f .LASF325
C:\Users\stapi\AppData\Local\Temp\ccIVPyy5.s:401    .text._mqtt_sub:0000000000000000 .LFB25
C:\Users\stapi\AppData\Local\Temp\ccIVPyy5.s:571    .text._mqtt_sub:00000000000000e8 .LFE25
C:\Users\stapi\AppData\Local\Temp\ccIVPyy5.s:5808   .debug_loc:0000000000000000 .LLST7
C:\Users\stapi\AppData\Local\Temp\ccIVPyy5.s:5870   .debug_loc:0000000000000090 .LLST8
C:\Users\stapi\AppData\Local\Temp\ccIVPyy5.s:7050   .debug_str:000000000000077d .LASF319
C:\Users\stapi\AppData\Local\Temp\ccIVPyy5.s:5928   .debug_loc:0000000000000115 .LLST9
C:\Users\stapi\AppData\Local\Temp\ccIVPyy5.s:5998   .debug_loc:00000000000001bb .LLST10
C:\Users\stapi\AppData\Local\Temp\ccIVPyy5.s:7296   .debug_str:0000000000001295 .LASF321
C:\Users\stapi\AppData\Local\Temp\ccIVPyy5.s:6012   .debug_loc:00000000000001dc .LLST11
C:\Users\stapi\AppData\Local\Temp\ccIVPyy5.s:6040   .debug_loc:0000000000000220 .LLST12
C:\Users\stapi\AppData\Local\Temp\ccIVPyy5.s:7310   .debug_str:000000000000131f .LASF322
C:\Users\stapi\AppData\Local\Temp\ccIVPyy5.s:6066   .debug_loc:0000000000000262 .LLST13
C:\Users\stapi\AppData\Local\Temp\ccIVPyy5.s:6073   .debug_loc:0000000000000275 .LLST14
C:\Users\stapi\AppData\Local\Temp\ccIVPyy5.s:524    .text._mqtt_sub:00000000000000b4 .LBB17
C:\Users\stapi\AppData\Local\Temp\ccIVPyy5.s:6080   .debug_loc:0000000000000288 .LLST15
C:\Users\stapi\AppData\Local\Temp\ccIVPyy5.s:427    .text._mqtt_sub:0000000000000024 .LVL44
C:\Users\stapi\AppData\Local\Temp\ccIVPyy5.s:437    .text._mqtt_sub:000000000000003e .LVL45
C:\Users\stapi\AppData\Local\Temp\ccIVPyy5.s:442    .text._mqtt_sub:000000000000004e .LVL46
C:\Users\stapi\AppData\Local\Temp\ccIVPyy5.s:467    .text._mqtt_sub:000000000000006a .LVL50
C:\Users\stapi\AppData\Local\Temp\ccIVPyy5.s:486    .text._mqtt_sub:000000000000008a .LVL53
C:\Users\stapi\AppData\Local\Temp\ccIVPyy5.s:546    .text._mqtt_sub:00000000000000d2 .LVL64
C:\Users\stapi\AppData\Local\Temp\ccIVPyy5.s:568    .text._mqtt_sub:00000000000000e6 .LVL69
C:\Users\stapi\AppData\Local\Temp\ccIVPyy5.s:7376   .debug_str:000000000000164b .LASF323
C:\Users\stapi\AppData\Local\Temp\ccIVPyy5.s:7504   .debug_str:0000000000001bcc .LASF324
C:\Users\stapi\AppData\Local\Temp\ccIVPyy5.s:7164   .debug_str:0000000000000c92 .LASF326
C:\Users\stapi\AppData\Local\Temp\ccIVPyy5.s:596    .text._mqtt_connect:0000000000000000 .LFB22
C:\Users\stapi\AppData\Local\Temp\ccIVPyy5.s:978    .text._mqtt_connect:0000000000000258 .LFE22
C:\Users\stapi\AppData\Local\Temp\ccIVPyy5.s:6097   .debug_loc:00000000000002b3 .LLST16
C:\Users\stapi\AppData\Local\Temp\ccIVPyy5.s:7054   .debug_str:00000000000007ac .LASF327
C:\Users\stapi\AppData\Local\Temp\ccIVPyy5.s:6137   .debug_loc:0000000000000311 .LLST17
C:\Users\stapi\AppData\Local\Temp\ccIVPyy5.s:7144   .debug_str:0000000000000b29 .LASF328
C:\Users\stapi\AppData\Local\Temp\ccIVPyy5.s:7516   .debug_str:0000000000001c22 .LASF329
C:\Users\stapi\AppData\Local\Temp\ccIVPyy5.s:6149   .debug_loc:0000000000000330 .LLST18
C:\Users\stapi\AppData\Local\Temp\ccIVPyy5.s:7622   .debug_str:0000000000002107 .LASF330
C:\Users\stapi\AppData\Local\Temp\ccIVPyy5.s:6974   .debug_str:0000000000000436 .LASF331
C:\Users\stapi\AppData\Local\Temp\ccIVPyy5.s:6166   .debug_loc:000000000000035b .LLST19
C:\Users\stapi\AppData\Local\Temp\ccIVPyy5.s:7612   .debug_str:00000000000020a4 .LASF332
C:\Users\stapi\AppData\Local\Temp\ccIVPyy5.s:6191   .debug_loc:0000000000000398 .LLST20
C:\Users\stapi\AppData\Local\Temp\ccIVPyy5.s:7138   .debug_str:0000000000000b08 .LASF333
C:\Users\stapi\AppData\Local\Temp\ccIVPyy5.s:7072   .debug_str:0000000000000845 .LASF334
C:\Users\stapi\AppData\Local\Temp\ccIVPyy5.s:7128   .debug_str:0000000000000a8c .LASF335
C:\Users\stapi\AppData\Local\Temp\ccIVPyy5.s:7438   .debug_str:0000000000001924 .LASF336
C:\Users\stapi\AppData\Local\Temp\ccIVPyy5.s:7316   .debug_str:000000000000135d .LASF337
C:\Users\stapi\AppData\Local\Temp\ccIVPyy5.s:884    .text._mqtt_connect:00000000000001d6 .LBB22
C:\Users\stapi\AppData\Local\Temp\ccIVPyy5.s:911    .text._mqtt_connect:00000000000001ee .LBE22
C:\Users\stapi\AppData\Local\Temp\ccIVPyy5.s:907    .text._mqtt_connect:00000000000001ec .LVL103
C:\Users\stapi\AppData\Local\Temp\ccIVPyy5.s:840    .text._mqtt_connect:00000000000001a4 .LVL99
C:\Users\stapi\AppData\Local\Temp\ccIVPyy5.s:880    .text._mqtt_connect:00000000000001d4 .LVL101
C:\Users\stapi\AppData\Local\Temp\ccIVPyy5.s:915    .text._mqtt_connect:00000000000001f6 .LVL104
C:\Users\stapi\AppData\Local\Temp\ccIVPyy5.s:918    .text._mqtt_connect:00000000000001fe .LVL105
C:\Users\stapi\AppData\Local\Temp\ccIVPyy5.s:923    .text._mqtt_connect:000000000000020a .LVL106
C:\Users\stapi\AppData\Local\Temp\ccIVPyy5.s:928    .text._mqtt_connect:0000000000000214 .LVL108
C:\Users\stapi\AppData\Local\Temp\ccIVPyy5.s:640    .text._mqtt_connect:000000000000002c .LVL74
C:\Users\stapi\AppData\Local\Temp\ccIVPyy5.s:648    .text._mqtt_connect:000000000000003e .LVL75
C:\Users\stapi\AppData\Local\Temp\ccIVPyy5.s:662    .text._mqtt_connect:0000000000000058 .LVL76
C:\Users\stapi\AppData\Local\Temp\ccIVPyy5.s:672    .text._mqtt_connect:000000000000006c .LVL77
C:\Users\stapi\AppData\Local\Temp\ccIVPyy5.s:683    .text._mqtt_connect:0000000000000086 .LVL79
C:\Users\stapi\AppData\Local\Temp\ccIVPyy5.s:688    .text._mqtt_connect:0000000000000096 .LVL80
C:\Users\stapi\AppData\Local\Temp\ccIVPyy5.s:722    .text._mqtt_connect:00000000000000b8 .LVL84
C:\Users\stapi\AppData\Local\Temp\ccIVPyy5.s:732    .text._mqtt_connect:00000000000000cc .LVL85
C:\Users\stapi\AppData\Local\Temp\ccIVPyy5.s:736    .text._mqtt_connect:00000000000000d6 .LVL86
C:\Users\stapi\AppData\Local\Temp\ccIVPyy5.s:740    .text._mqtt_connect:00000000000000e0 .LVL87
C:\Users\stapi\AppData\Local\Temp\ccIVPyy5.s:744    .text._mqtt_connect:00000000000000ea .LVL88
C:\Users\stapi\AppData\Local\Temp\ccIVPyy5.s:748    .text._mqtt_connect:00000000000000f4 .LVL89
C:\Users\stapi\AppData\Local\Temp\ccIVPyy5.s:758    .text._mqtt_connect:000000000000010a .LVL90
C:\Users\stapi\AppData\Local\Temp\ccIVPyy5.s:767    .text._mqtt_connect:0000000000000122 .LVL91
C:\Users\stapi\AppData\Local\Temp\ccIVPyy5.s:774    .text._mqtt_connect:0000000000000132 .LVL92
C:\Users\stapi\AppData\Local\Temp\ccIVPyy5.s:792    .text._mqtt_connect:000000000000014c .LVL94
C:\Users\stapi\AppData\Local\Temp\ccIVPyy5.s:808    .text._mqtt_connect:000000000000016c .LVL95
C:\Users\stapi\AppData\Local\Temp\ccIVPyy5.s:817    .text._mqtt_connect:0000000000000180 .LVL96
C:\Users\stapi\AppData\Local\Temp\ccIVPyy5.s:826    .text._mqtt_connect:0000000000000190 .LVL97
C:\Users\stapi\AppData\Local\Temp\ccIVPyy5.s:941    .text._mqtt_connect:0000000000000220 .LVL110
C:\Users\stapi\AppData\Local\Temp\ccIVPyy5.s:963    .text._mqtt_connect:0000000000000236 .LVL111
C:\Users\stapi\AppData\Local\Temp\ccIVPyy5.s:970    .text._mqtt_connect:0000000000000246 .LVL112
C:\Users\stapi\AppData\Local\Temp\ccIVPyy5.s:975    .text._mqtt_connect:0000000000000256 .LVL113
C:\Users\stapi\AppData\Local\Temp\ccIVPyy5.s:7172   .debug_str:0000000000000cfd .LASF373
C:\Users\stapi\AppData\Local\Temp\ccIVPyy5.s:44     .text.iotx_cloud_conn_mqtt_event_handle:0000000000000000 .LFB21
C:\Users\stapi\AppData\Local\Temp\ccIVPyy5.s:382    .text.iotx_cloud_conn_mqtt_event_handle:00000000000001c0 .LFE21
C:\Users\stapi\AppData\Local\Temp\ccIVPyy5.s:6222   .debug_loc:00000000000003df .LLST0
C:\Users\stapi\AppData\Local\Temp\ccIVPyy5.s:6292   .debug_loc:0000000000000485 .LLST1
C:\Users\stapi\AppData\Local\Temp\ccIVPyy5.s:6361   .debug_loc:0000000000000523 .LLST2
C:\Users\stapi\AppData\Local\Temp\ccIVPyy5.s:6433   .debug_loc:00000000000005d9 .LLST3
C:\Users\stapi\AppData\Local\Temp\ccIVPyy5.s:100    .text.iotx_cloud_conn_mqtt_event_handle:0000000000000036 .LBB2
C:\Users\stapi\AppData\Local\Temp\ccIVPyy5.s:128    .text.iotx_cloud_conn_mqtt_event_handle:000000000000006e .LBE2
C:\Users\stapi\AppData\Local\Temp\ccIVPyy5.s:107    .text.iotx_cloud_conn_mqtt_event_handle:0000000000000046 .LVL3
C:\Users\stapi\AppData\Local\Temp\ccIVPyy5.s:114    .text.iotx_cloud_conn_mqtt_event_handle:000000000000005a .LVL4
C:\Users\stapi\AppData\Local\Temp\ccIVPyy5.s:119    .text.iotx_cloud_conn_mqtt_event_handle:000000000000006a .LVL5
C:\Users\stapi\AppData\Local\Temp\ccIVPyy5.s:174    .text.iotx_cloud_conn_mqtt_event_handle:0000000000000098 .LVL9
C:\Users\stapi\AppData\Local\Temp\ccIVPyy5.s:181    .text.iotx_cloud_conn_mqtt_event_handle:00000000000000ac .LVL10
C:\Users\stapi\AppData\Local\Temp\ccIVPyy5.s:186    .text.iotx_cloud_conn_mqtt_event_handle:00000000000000bc .LVL11
C:\Users\stapi\AppData\Local\Temp\ccIVPyy5.s:196    .text.iotx_cloud_conn_mqtt_event_handle:00000000000000c0 .LBB6
C:\Users\stapi\AppData\Local\Temp\ccIVPyy5.s:202    .text.iotx_cloud_conn_mqtt_event_handle:00000000000000c2 .LBE6
C:\Users\stapi\AppData\Local\Temp\ccIVPyy5.s:212    .text.iotx_cloud_conn_mqtt_event_handle:00000000000000c8 .LBB8
C:\Users\stapi\AppData\Local\Temp\ccIVPyy5.s:219    .text.iotx_cloud_conn_mqtt_event_handle:00000000000000cc .LBE8
C:\Users\stapi\AppData\Local\Temp\ccIVPyy5.s:220    .text.iotx_cloud_conn_mqtt_event_handle:00000000000000cc .LBB9
C:\Users\stapi\AppData\Local\Temp\ccIVPyy5.s:227    .text.iotx_cloud_conn_mqtt_event_handle:00000000000000d0 .LBE9
C:\Users\stapi\AppData\Local\Temp\ccIVPyy5.s:228    .text.iotx_cloud_conn_mqtt_event_handle:00000000000000d0 .LBB10
C:\Users\stapi\AppData\Local\Temp\ccIVPyy5.s:235    .text.iotx_cloud_conn_mqtt_event_handle:00000000000000d4 .LBE10
C:\Users\stapi\AppData\Local\Temp\ccIVPyy5.s:236    .text.iotx_cloud_conn_mqtt_event_handle:00000000000000d4 .LBB11
C:\Users\stapi\AppData\Local\Temp\ccIVPyy5.s:243    .text.iotx_cloud_conn_mqtt_event_handle:00000000000000d8 .LBE11
C:\Users\stapi\AppData\Local\Temp\ccIVPyy5.s:149    .text.iotx_cloud_conn_mqtt_event_handle:000000000000007e .LVL6
C:\Users\stapi\AppData\Local\Temp\ccIVPyy5.s:7062   .debug_str:00000000000007f4 .LASF338
C:\Users\stapi\AppData\Local\Temp\ccIVPyy5.s:6471   .debug_loc:0000000000000635 .LLST4
C:\Users\stapi\AppData\Local\Temp\ccIVPyy5.s:6489   .debug_loc:0000000000000661 .LLST5
C:\Users\stapi\AppData\Local\Temp\ccIVPyy5.s:6512   .debug_loc:00000000000006a0 .LLST6
C:\Users\stapi\AppData\Local\Temp\ccIVPyy5.s:267    .text.iotx_cloud_conn_mqtt_event_handle:00000000000000f0 .LVL16
C:\Users\stapi\AppData\Local\Temp\ccIVPyy5.s:275    .text.iotx_cloud_conn_mqtt_event_handle:0000000000000100 .LVL18
C:\Users\stapi\AppData\Local\Temp\ccIVPyy5.s:300    .text.iotx_cloud_conn_mqtt_event_handle:0000000000000124 .LVL24
C:\Users\stapi\AppData\Local\Temp\ccIVPyy5.s:312    .text.iotx_cloud_conn_mqtt_event_handle:0000000000000138 .LVL27
C:\Users\stapi\AppData\Local\Temp\ccIVPyy5.s:326    .text.iotx_cloud_conn_mqtt_event_handle:0000000000000152 .LVL29
C:\Users\stapi\AppData\Local\Temp\ccIVPyy5.s:332    .text.iotx_cloud_conn_mqtt_event_handle:0000000000000162 .LVL30
C:\Users\stapi\AppData\Local\Temp\ccIVPyy5.s:341    .text.iotx_cloud_conn_mqtt_event_handle:0000000000000170 .LVL31
C:\Users\stapi\AppData\Local\Temp\ccIVPyy5.s:345    .text.iotx_cloud_conn_mqtt_event_handle:000000000000017a .LVL32
C:\Users\stapi\AppData\Local\Temp\ccIVPyy5.s:283    .text.iotx_cloud_conn_mqtt_event_handle:0000000000000110 .LVL19
C:\Users\stapi\AppData\Local\Temp\ccIVPyy5.s:357    .text.iotx_cloud_conn_mqtt_event_handle:000000000000018c .LVL35
C:\Users\stapi\AppData\Local\Temp\ccIVPyy5.s:365    .text.iotx_cloud_conn_mqtt_event_handle:00000000000001a0 .LVL36
C:\Users\stapi\AppData\Local\Temp\ccIVPyy5.s:375    .text.iotx_cloud_conn_mqtt_event_handle:00000000000001b2 .LVL39
C:\Users\stapi\AppData\Local\Temp\ccIVPyy5.s:7396   .debug_str:0000000000001725 .LASF374
C:\Users\stapi\AppData\Local\Temp\ccIVPyy5.s:1280   .text.iotx_cm_open_mqtt:0000000000000000 .LFB20
C:\Users\stapi\AppData\Local\Temp\ccIVPyy5.s:1521   .text.iotx_cm_open_mqtt:000000000000018a .LFE20
C:\Users\stapi\AppData\Local\Temp\ccIVPyy5.s:7416   .debug_str:0000000000001835 .LASF339
C:\Users\stapi\AppData\Local\Temp\ccIVPyy5.s:6531   .debug_loc:00000000000006d4 .LLST30
C:\Users\stapi\AppData\Local\Temp\ccIVPyy5.s:6553   .debug_loc:000000000000070b .LLST31
C:\Users\stapi\AppData\Local\Temp\ccIVPyy5.s:7630   .debug_str:0000000000002152 .LASF375
C:\Users\stapi\AppData\Local\Temp\ccIVPyy5.s:1390   .text.iotx_cm_open_mqtt:00000000000000c4 .L136
C:\Users\stapi\AppData\Local\Temp\ccIVPyy5.s:1484   .text.iotx_cm_open_mqtt:000000000000014c .LBB36
C:\Users\stapi\AppData\Local\Temp\ccIVPyy5.s:1519   .text.iotx_cm_open_mqtt:000000000000018a .LBE36
C:\Users\stapi\AppData\Local\Temp\ccIVPyy5.s:1305   .text.iotx_cm_open_mqtt:0000000000000026 .LVL150
C:\Users\stapi\AppData\Local\Temp\ccIVPyy5.s:1310   .text.iotx_cm_open_mqtt:0000000000000036 .LVL151
C:\Users\stapi\AppData\Local\Temp\ccIVPyy5.s:1315   .text.iotx_cm_open_mqtt:0000000000000046 .LVL152
C:\Users\stapi\AppData\Local\Temp\ccIVPyy5.s:1343   .text.iotx_cm_open_mqtt:0000000000000066 .LVL156
C:\Users\stapi\AppData\Local\Temp\ccIVPyy5.s:1351   .text.iotx_cm_open_mqtt:0000000000000080 .LVL157
C:\Users\stapi\AppData\Local\Temp\ccIVPyy5.s:1356   .text.iotx_cm_open_mqtt:0000000000000090 .LVL158
C:\Users\stapi\AppData\Local\Temp\ccIVPyy5.s:1373   .text.iotx_cm_open_mqtt:00000000000000a8 .LVL159
C:\Users\stapi\AppData\Local\Temp\ccIVPyy5.s:1384   .text.iotx_cm_open_mqtt:00000000000000bc .LVL160
C:\Users\stapi\AppData\Local\Temp\ccIVPyy5.s:1393   .text.iotx_cm_open_mqtt:00000000000000cc .LVL162
C:\Users\stapi\AppData\Local\Temp\ccIVPyy5.s:1398   .text.iotx_cm_open_mqtt:00000000000000dc .LVL163
C:\Users\stapi\AppData\Local\Temp\ccIVPyy5.s:1408   .text.iotx_cm_open_mqtt:00000000000000e8 .LVL164
C:\Users\stapi\AppData\Local\Temp\ccIVPyy5.s:1420   .text.iotx_cm_open_mqtt:00000000000000fe .LVL165
C:\Users\stapi\AppData\Local\Temp\ccIVPyy5.s:1432   .text.iotx_cm_open_mqtt:0000000000000112 .LVL168
C:\Users\stapi\AppData\Local\Temp\ccIVPyy5.s:984    .text._mqtt_close:0000000000000000 .LFB27
C:\Users\stapi\AppData\Local\Temp\ccIVPyy5.s:1055   .text._mqtt_close:0000000000000080 .LFE27
C:\Users\stapi\AppData\Local\Temp\ccIVPyy5.s:997    .text._mqtt_close:0000000000000014 .LBB26
C:\Users\stapi\AppData\Local\Temp\ccIVPyy5.s:1023   .text._mqtt_close:0000000000000050 .LBE26
C:\Users\stapi\AppData\Local\Temp\ccIVPyy5.s:1004   .text._mqtt_close:0000000000000024 .LVL114
C:\Users\stapi\AppData\Local\Temp\ccIVPyy5.s:1012   .text._mqtt_close:000000000000003e .LVL115
C:\Users\stapi\AppData\Local\Temp\ccIVPyy5.s:1017   .text._mqtt_close:000000000000004e .LVL116
C:\Users\stapi\AppData\Local\Temp\ccIVPyy5.s:1036   .text._mqtt_close:0000000000000062 .LVL117
C:\Users\stapi\AppData\Local\Temp\ccIVPyy5.s:1041   .text._mqtt_close:000000000000006e .LVL118
C:\Users\stapi\AppData\Local\Temp\ccIVPyy5.s:1045   .text._mqtt_close:0000000000000078 .LVL119
C:\Users\stapi\AppData\Local\Temp\ccIVPyy5.s:1061   .text._mqtt_yield.part.0:0000000000000000 .LFB31
C:\Users\stapi\AppData\Local\Temp\ccIVPyy5.s:1096   .text._mqtt_yield.part.0:0000000000000052 .LFE31
C:\Users\stapi\AppData\Local\Temp\ccIVPyy5.s:1073   .text._mqtt_yield.part.0:0000000000000018 .LVL121
C:\Users\stapi\AppData\Local\Temp\ccIVPyy5.s:1082   .text._mqtt_yield.part.0:0000000000000038 .LVL122
C:\Users\stapi\AppData\Local\Temp\ccIVPyy5.s:1087   .text._mqtt_yield.part.0:0000000000000048 .LVL123
C:\Users\stapi\AppData\Local\Temp\ccIVPyy5.s:1104   .text._mqtt_yield:0000000000000000 .LFB24
C:\Users\stapi\AppData\Local\Temp\ccIVPyy5.s:1137   .text._mqtt_yield:0000000000000030 .LFE24
C:\Users\stapi\AppData\Local\Temp\ccIVPyy5.s:6587   .debug_loc:0000000000000763 .LLST21
C:\Users\stapi\AppData\Local\Temp\ccIVPyy5.s:1117   .text._mqtt_yield:000000000000001a .LVL125
C:\Users\stapi\AppData\Local\Temp\ccIVPyy5.s:1134   .text._mqtt_yield:000000000000002e .LVL128
C:\Users\stapi\AppData\Local\Temp\ccIVPyy5.s:1143   .text._mqtt_unsub:0000000000000000 .LFB26
C:\Users\stapi\AppData\Local\Temp\ccIVPyy5.s:1181   .text._mqtt_unsub:0000000000000036 .LFE26
C:\Users\stapi\AppData\Local\Temp\ccIVPyy5.s:6616   .debug_loc:00000000000007a8 .LLST22
C:\Users\stapi\AppData\Local\Temp\ccIVPyy5.s:6645   .debug_loc:00000000000007ed .LLST23
C:\Users\stapi\AppData\Local\Temp\ccIVPyy5.s:1157   .text._mqtt_unsub:000000000000001a .LVL130
C:\Users\stapi\AppData\Local\Temp\ccIVPyy5.s:1174   .text._mqtt_unsub:000000000000002e .LVL133
C:\Users\stapi\AppData\Local\Temp\ccIVPyy5.s:1187   .text._mqtt_publish:0000000000000000 .LFB23
C:\Users\stapi\AppData\Local\Temp\ccIVPyy5.s:1260   .text._mqtt_publish:0000000000000050 .LFE23
C:\Users\stapi\AppData\Local\Temp\ccIVPyy5.s:6652   .debug_loc:0000000000000800 .LLST24
C:\Users\stapi\AppData\Local\Temp\ccIVPyy5.s:6681   .debug_loc:0000000000000845 .LLST25
C:\Users\stapi\AppData\Local\Temp\ccIVPyy5.s:6710   .debug_loc:000000000000088a .LLST26
C:\Users\stapi\AppData\Local\Temp\ccIVPyy5.s:6743   .debug_loc:00000000000008da .LLST27
C:\Users\stapi\AppData\Local\Temp\ccIVPyy5.s:6776   .debug_loc:000000000000092a .LLST28
C:\Users\stapi\AppData\Local\Temp\ccIVPyy5.s:1228   .text._mqtt_publish:000000000000002e .LBB30
C:\Users\stapi\AppData\Local\Temp\ccIVPyy5.s:6802   .debug_loc:000000000000096c .LLST29
C:\Users\stapi\AppData\Local\Temp\ccIVPyy5.s:1206   .text._mqtt_publish:000000000000001e .LVL138
C:\Users\stapi\AppData\Local\Temp\ccIVPyy5.s:1247   .text._mqtt_publish:000000000000004a .LVL144
C:\Users\stapi\AppData\Local\Temp\ccIVPyy5.s:7512   .debug_str:0000000000001bf8 .LASF340
C:\Users\stapi\AppData\Local\Temp\ccIVPyy5.s:7626   .debug_str:0000000000002123 .LASF341
C:\Users\stapi\AppData\Local\Temp\ccIVPyy5.s:7086   .debug_str:00000000000008b5 .LASF342
C:\Users\stapi\AppData\Local\Temp\ccIVPyy5.s:7520   .debug_str:0000000000001c51 .LASF343
C:\Users\stapi\AppData\Local\Temp\ccIVPyy5.s:7366   .debug_str:00000000000015c3 .LASF344
C:\Users\stapi\AppData\Local\Temp\ccIVPyy5.s:7360   .debug_str:0000000000001516 .LASF345
C:\Users\stapi\AppData\Local\Temp\ccIVPyy5.s:6938   .debug_str:0000000000000265 .LASF346
C:\Users\stapi\AppData\Local\Temp\ccIVPyy5.s:7380   .debug_str:0000000000001673 .LASF347
C:\Users\stapi\AppData\Local\Temp\ccIVPyy5.s:7530   .debug_str:0000000000001cc7 .LASF348
C:\Users\stapi\AppData\Local\Temp\ccIVPyy5.s:7124   .debug_str:0000000000000a75 .LASF358
C:\Users\stapi\AppData\Local\Temp\ccIVPyy5.s:7030   .debug_str:000000000000068e .LASF360
C:\Users\stapi\AppData\Local\Temp\ccIVPyy5.s:6954   .debug_str:0000000000000321 .LASF349
C:\Users\stapi\AppData\Local\Temp\ccIVPyy5.s:6930   .debug_str:000000000000013b .LASF350
C:\Users\stapi\AppData\Local\Temp\ccIVPyy5.s:6966   .debug_str:00000000000003b9 .LASF351
C:\Users\stapi\AppData\Local\Temp\ccIVPyy5.s:7560   .debug_str:0000000000001e2f .LASF352
C:\Users\stapi\AppData\Local\Temp\ccIVPyy5.s:7236   .debug_str:0000000000001026 .LASF353
C:\Users\stapi\AppData\Local\Temp\ccIVPyy5.s:7362   .debug_str:0000000000001523 .LASF354
C:\Users\stapi\AppData\Local\Temp\ccIVPyy5.s:7342   .debug_str:000000000000143c .LASF355
C:\Users\stapi\AppData\Local\Temp\ccIVPyy5.s:7550   .debug_str:0000000000001dc2 .LASF356
C:\Users\stapi\AppData\Local\Temp\ccIVPyy5.s:7220   .debug_str:0000000000000f9c .LASF357
C:\Users\stapi\AppData\Local\Temp\ccIVPyy5.s:7556   .debug_str:0000000000001e08 .LASF359
C:\Users\stapi\AppData\Local\Temp\ccIVPyy5.s:7146   .debug_str:0000000000000b2f .LASF361
C:\Users\stapi\AppData\Local\Temp\ccIVPyy5.s:7092   .debug_str:00000000000008fb .LASF362
C:\Users\stapi\AppData\Local\Temp\ccIVPyy5.s:7192   .debug_str:0000000000000e20 .LASF363
C:\Users\stapi\AppData\Local\Temp\ccIVPyy5.s:7014   .debug_str:0000000000000609 .LASF364
C:\Users\stapi\AppData\Local\Temp\ccIVPyy5.s:7450   .debug_str:00000000000019a8 .LASF365
C:\Users\stapi\AppData\Local\Temp\ccIVPyy5.s:7038   .debug_str:00000000000006de .LASF366
C:\Users\stapi\AppData\Local\Temp\ccIVPyy5.s:404    .text._mqtt_sub:0000000000000000 .LVL40
C:\Users\stapi\AppData\Local\Temp\ccIVPyy5.s:424    .text._mqtt_sub:0000000000000018 .LVL43
C:\Users\stapi\AppData\Local\Temp\ccIVPyy5.s:454    .text._mqtt_sub:0000000000000058 .LVL48
C:\Users\stapi\AppData\Local\Temp\ccIVPyy5.s:464    .text._mqtt_sub:000000000000005e .LVL49
C:\Users\stapi\AppData\Local\Temp\ccIVPyy5.s:473    .text._mqtt_sub:0000000000000076 .LVL51
C:\Users\stapi\AppData\Local\Temp\ccIVPyy5.s:483    .text._mqtt_sub:000000000000007e .LVL52
C:\Users\stapi\AppData\Local\Temp\ccIVPyy5.s:492    .text._mqtt_sub:0000000000000096 .LVL54
C:\Users\stapi\AppData\Local\Temp\ccIVPyy5.s:498    .text._mqtt_sub:000000000000009a .LVL55
C:\Users\stapi\AppData\Local\Temp\ccIVPyy5.s:528    .text._mqtt_sub:00000000000000b6 .LVL61
C:\Users\stapi\AppData\Local\Temp\ccIVPyy5.s:556    .text._mqtt_sub:00000000000000d8 .LVL67
C:\Users\stapi\AppData\Local\Temp\ccIVPyy5.s:562    .text._mqtt_sub:00000000000000da .LVL68
C:\Users\stapi\AppData\Local\Temp\ccIVPyy5.s:548    .text._mqtt_sub:00000000000000d4 .LVL65
C:\Users\stapi\AppData\Local\Temp\ccIVPyy5.s:505    .text._mqtt_sub:00000000000000a6 .LVL56
C:\Users\stapi\AppData\Local\Temp\ccIVPyy5.s:419    .text._mqtt_sub:0000000000000012 .LVL42
C:\Users\stapi\AppData\Local\Temp\ccIVPyy5.s:410    .text._mqtt_sub:0000000000000008 .LVL41
C:\Users\stapi\AppData\Local\Temp\ccIVPyy5.s:446    .text._mqtt_sub:0000000000000050 .LVL47
C:\Users\stapi\AppData\Local\Temp\ccIVPyy5.s:511    .text._mqtt_sub:00000000000000aa .LVL57
C:\Users\stapi\AppData\Local\Temp\ccIVPyy5.s:518    .text._mqtt_sub:00000000000000b0 .LVL59
C:\Users\stapi\AppData\Local\Temp\ccIVPyy5.s:541    .text._mqtt_sub:00000000000000c6 .LVL63
C:\Users\stapi\AppData\Local\Temp\ccIVPyy5.s:534    .text._mqtt_sub:00000000000000c2 .LVL62
C:\Users\stapi\AppData\Local\Temp\ccIVPyy5.s:515    .text._mqtt_sub:00000000000000ae .LVL58
C:\Users\stapi\AppData\Local\Temp\ccIVPyy5.s:523    .text._mqtt_sub:00000000000000b4 .LVL60
C:\Users\stapi\AppData\Local\Temp\ccIVPyy5.s:554    .text._mqtt_sub:00000000000000d6 .LVL66
C:\Users\stapi\AppData\Local\Temp\ccIVPyy5.s:599    .text._mqtt_connect:0000000000000000 .LVL70
C:\Users\stapi\AppData\Local\Temp\ccIVPyy5.s:622    .text._mqtt_connect:0000000000000012 .LVL72
C:\Users\stapi\AppData\Local\Temp\ccIVPyy5.s:692    .text._mqtt_connect:0000000000000098 .LVL81
C:\Users\stapi\AppData\Local\Temp\ccIVPyy5.s:706    .text._mqtt_connect:00000000000000a4 .LVL82
C:\Users\stapi\AppData\Local\Temp\ccIVPyy5.s:780    .text._mqtt_connect:0000000000000136 .LVL93
C:\Users\stapi\AppData\Local\Temp\ccIVPyy5.s:829    .text._mqtt_connect:0000000000000194 .LVL98
C:\Users\stapi\AppData\Local\Temp\ccIVPyy5.s:904    .text._mqtt_connect:00000000000001e8 .LVL102
C:\Users\stapi\AppData\Local\Temp\ccIVPyy5.s:610    .text._mqtt_connect:0000000000000008 .LVL71
C:\Users\stapi\AppData\Local\Temp\ccIVPyy5.s:677    .text._mqtt_connect:0000000000000076 .LVL78
C:\Users\stapi\AppData\Local\Temp\ccIVPyy5.s:713    .text._mqtt_connect:00000000000000a6 .LVL83
C:\Users\stapi\AppData\Local\Temp\ccIVPyy5.s:626    .text._mqtt_connect:0000000000000014 .LVL73
C:\Users\stapi\AppData\Local\Temp\ccIVPyy5.s:926    .text._mqtt_connect:000000000000020c .LVL107
C:\Users\stapi\AppData\Local\Temp\ccIVPyy5.s:48     .text.iotx_cloud_conn_mqtt_event_handle:0000000000000000 .LVL0
C:\Users\stapi\AppData\Local\Temp\ccIVPyy5.s:104    .text.iotx_cloud_conn_mqtt_event_handle:000000000000003a .LVL2
C:\Users\stapi\AppData\Local\Temp\ccIVPyy5.s:164    .text.iotx_cloud_conn_mqtt_event_handle:0000000000000088 .LVL7
C:\Users\stapi\AppData\Local\Temp\ccIVPyy5.s:171    .text.iotx_cloud_conn_mqtt_event_handle:000000000000008c .LVL8
C:\Users\stapi\AppData\Local\Temp\ccIVPyy5.s:193    .text.iotx_cloud_conn_mqtt_event_handle:00000000000000c0 .LVL12
C:\Users\stapi\AppData\Local\Temp\ccIVPyy5.s:264    .text.iotx_cloud_conn_mqtt_event_handle:00000000000000e4 .LVL15
C:\Users\stapi\AppData\Local\Temp\ccIVPyy5.s:287    .text.iotx_cloud_conn_mqtt_event_handle:0000000000000112 .LVL20
C:\Users\stapi\AppData\Local\Temp\ccIVPyy5.s:297    .text.iotx_cloud_conn_mqtt_event_handle:000000000000011a .LVL23
C:\Users\stapi\AppData\Local\Temp\ccIVPyy5.s:349    .text.iotx_cloud_conn_mqtt_event_handle:000000000000017c .LVL33
C:\Users\stapi\AppData\Local\Temp\ccIVPyy5.s:354    .text.iotx_cloud_conn_mqtt_event_handle:0000000000000180 .LVL34
C:\Users\stapi\AppData\Local\Temp\ccIVPyy5.s:367    .text.iotx_cloud_conn_mqtt_event_handle:00000000000001a2 .LVL37
C:\Users\stapi\AppData\Local\Temp\ccIVPyy5.s:372    .text.iotx_cloud_conn_mqtt_event_handle:00000000000001a6 .LVL38
C:\Users\stapi\AppData\Local\Temp\ccIVPyy5.s:295    .text.iotx_cloud_conn_mqtt_event_handle:0000000000000118 .LVL22
C:\Users\stapi\AppData\Local\Temp\ccIVPyy5.s:271    .text.iotx_cloud_conn_mqtt_event_handle:00000000000000f8 .LVL17
C:\Users\stapi\AppData\Local\Temp\ccIVPyy5.s:293    .text.iotx_cloud_conn_mqtt_event_handle:0000000000000116 .LVL21
C:\Users\stapi\AppData\Local\Temp\ccIVPyy5.s:302    .text.iotx_cloud_conn_mqtt_event_handle:0000000000000126 .LVL25
C:\Users\stapi\AppData\Local\Temp\ccIVPyy5.s:57     .text.iotx_cloud_conn_mqtt_event_handle:0000000000000008 .LVL1
C:\Users\stapi\AppData\Local\Temp\ccIVPyy5.s:255    .text.iotx_cloud_conn_mqtt_event_handle:00000000000000de .LVL13
C:\Users\stapi\AppData\Local\Temp\ccIVPyy5.s:260    .text.iotx_cloud_conn_mqtt_event_handle:00000000000000e0 .LVL14
C:\Users\stapi\AppData\Local\Temp\ccIVPyy5.s:309    .text.iotx_cloud_conn_mqtt_event_handle:000000000000012c .LVL26
C:\Users\stapi\AppData\Local\Temp\ccIVPyy5.s:317    .text.iotx_cloud_conn_mqtt_event_handle:0000000000000142 .LVL28
C:\Users\stapi\AppData\Local\Temp\ccIVPyy5.s:1283   .text.iotx_cm_open_mqtt:0000000000000000 .LVL147
C:\Users\stapi\AppData\Local\Temp\ccIVPyy5.s:1302   .text.iotx_cm_open_mqtt:000000000000001a .LVL149
C:\Users\stapi\AppData\Local\Temp\ccIVPyy5.s:1330   .text.iotx_cm_open_mqtt:0000000000000052 .LVL154
C:\Users\stapi\AppData\Local\Temp\ccIVPyy5.s:1337   .text.iotx_cm_open_mqtt:0000000000000056 .LVL155
C:\Users\stapi\AppData\Local\Temp\ccIVPyy5.s:1291   .text.iotx_cm_open_mqtt:0000000000000008 .LVL148
C:\Users\stapi\AppData\Local\Temp\ccIVPyy5.s:1320   .text.iotx_cm_open_mqtt:000000000000004a .LVL153
C:\Users\stapi\AppData\Local\Temp\ccIVPyy5.s:1388   .text.iotx_cm_open_mqtt:00000000000000c4 .LVL161
C:\Users\stapi\AppData\Local\Temp\ccIVPyy5.s:1422   .text.iotx_cm_open_mqtt:0000000000000100 .LVL166
C:\Users\stapi\AppData\Local\Temp\ccIVPyy5.s:1429   .text.iotx_cm_open_mqtt:0000000000000106 .LVL167
C:\Users\stapi\AppData\Local\Temp\ccIVPyy5.s:1437   .text.iotx_cm_open_mqtt:000000000000011c .LVL169
C:\Users\stapi\AppData\Local\Temp\ccIVPyy5.s:1442   .text.iotx_cm_open_mqtt:0000000000000120 .LVL170
C:\Users\stapi\AppData\Local\Temp\ccIVPyy5.s:1477   .text.iotx_cm_open_mqtt:0000000000000146 .LVL171
C:\Users\stapi\AppData\Local\Temp\ccIVPyy5.s:1107   .text._mqtt_yield:0000000000000000 .LVL124
C:\Users\stapi\AppData\Local\Temp\ccIVPyy5.s:1124   .text._mqtt_yield:0000000000000022 .LVL126
C:\Users\stapi\AppData\Local\Temp\ccIVPyy5.s:1132   .text._mqtt_yield:0000000000000026 .LVL127
C:\Users\stapi\AppData\Local\Temp\ccIVPyy5.s:1146   .text._mqtt_unsub:0000000000000000 .LVL129
C:\Users\stapi\AppData\Local\Temp\ccIVPyy5.s:1164   .text._mqtt_unsub:0000000000000022 .LVL131
C:\Users\stapi\AppData\Local\Temp\ccIVPyy5.s:1172   .text._mqtt_unsub:0000000000000026 .LVL132
C:\Users\stapi\AppData\Local\Temp\ccIVPyy5.s:1178   .text._mqtt_unsub:0000000000000034 .LVL134
C:\Users\stapi\AppData\Local\Temp\ccIVPyy5.s:1190   .text._mqtt_publish:0000000000000000 .LVL135
C:\Users\stapi\AppData\Local\Temp\ccIVPyy5.s:1213   .text._mqtt_publish:0000000000000026 .LVL139
C:\Users\stapi\AppData\Local\Temp\ccIVPyy5.s:1244   .text._mqtt_publish:0000000000000040 .LVL143
C:\Users\stapi\AppData\Local\Temp\ccIVPyy5.s:1249   .text._mqtt_publish:000000000000004c .LVL145
C:\Users\stapi\AppData\Local\Temp\ccIVPyy5.s:1221   .text._mqtt_publish:000000000000002a .LVL140
C:\Users\stapi\AppData\Local\Temp\ccIVPyy5.s:1202   .text._mqtt_publish:000000000000000e .LVL137
C:\Users\stapi\AppData\Local\Temp\ccIVPyy5.s:1195   .text._mqtt_publish:0000000000000008 .LVL136
C:\Users\stapi\AppData\Local\Temp\ccIVPyy5.s:1237   .text._mqtt_publish:000000000000003c .LVL142
C:\Users\stapi\AppData\Local\Temp\ccIVPyy5.s:1255   .text._mqtt_publish:000000000000004e .LVL146
C:\Users\stapi\AppData\Local\Temp\ccIVPyy5.s:1227   .text._mqtt_publish:000000000000002e .LVL141
C:\Users\stapi\AppData\Local\Temp\ccIVPyy5.s:1546   .debug_info:0000000000000000 .Ldebug_info0
C:\Users\stapi\AppData\Local\Temp\ccIVPyy5.s:129    .text.iotx_cloud_conn_mqtt_event_handle:000000000000006e .LBB3
C:\Users\stapi\AppData\Local\Temp\ccIVPyy5.s:137    .text.iotx_cloud_conn_mqtt_event_handle:0000000000000072 .LBE3
C:\Users\stapi\AppData\Local\Temp\ccIVPyy5.s:167    .text.iotx_cloud_conn_mqtt_event_handle:0000000000000088 .LBB5
C:\Users\stapi\AppData\Local\Temp\ccIVPyy5.s:195    .text.iotx_cloud_conn_mqtt_event_handle:00000000000000c0 .LBE5
C:\Users\stapi\AppData\Local\Temp\ccIVPyy5.s:138    .text.iotx_cloud_conn_mqtt_event_handle:0000000000000072 .LBB4
C:\Users\stapi\AppData\Local\Temp\ccIVPyy5.s:150    .text.iotx_cloud_conn_mqtt_event_handle:000000000000007e .LBE4
C:\Users\stapi\AppData\Local\Temp\ccIVPyy5.s:203    .text.iotx_cloud_conn_mqtt_event_handle:00000000000000c2 .LBB7
C:\Users\stapi\AppData\Local\Temp\ccIVPyy5.s:211    .text.iotx_cloud_conn_mqtt_event_handle:00000000000000c8 .LBE7
C:\Users\stapi\AppData\Local\Temp\ccIVPyy5.s:244    .text.iotx_cloud_conn_mqtt_event_handle:00000000000000d8 .LBB12
C:\Users\stapi\AppData\Local\Temp\ccIVPyy5.s:252    .text.iotx_cloud_conn_mqtt_event_handle:00000000000000de .LBE12
C:\Users\stapi\AppData\Local\Temp\ccIVPyy5.s:253    .text.iotx_cloud_conn_mqtt_event_handle:00000000000000de .LBB13
C:\Users\stapi\AppData\Local\Temp\ccIVPyy5.s:278    .text.iotx_cloud_conn_mqtt_event_handle:0000000000000100 .LBE13
C:\Users\stapi\AppData\Local\Temp\ccIVPyy5.s:289    .text.iotx_cloud_conn_mqtt_event_handle:0000000000000112 .LBB14
C:\Users\stapi\AppData\Local\Temp\ccIVPyy5.s:346    .text.iotx_cloud_conn_mqtt_event_handle:000000000000017a .LBE14
C:\Users\stapi\AppData\Local\Temp\ccIVPyy5.s:537    .text._mqtt_sub:00000000000000c2 .LBE17
C:\Users\stapi\AppData\Local\Temp\ccIVPyy5.s:550    .text._mqtt_sub:00000000000000d4 .LBB20
C:\Users\stapi\AppData\Local\Temp\ccIVPyy5.s:559    .text._mqtt_sub:00000000000000d8 .LBE20
C:\Users\stapi\AppData\Local\Temp\ccIVPyy5.s:832    .text._mqtt_connect:0000000000000194 .LBB21
C:\Users\stapi\AppData\Local\Temp\ccIVPyy5.s:930    .text._mqtt_connect:0000000000000214 .LBE21
C:\Users\stapi\AppData\Local\Temp\ccIVPyy5.s:933    .text._mqtt_connect:0000000000000216 .LBB23
C:\Users\stapi\AppData\Local\Temp\ccIVPyy5.s:937    .text._mqtt_connect:0000000000000218 .LBE23
C:\Users\stapi\AppData\Local\Temp\ccIVPyy5.s:1240   .text._mqtt_publish:000000000000003c .LBE30
C:\Users\stapi\AppData\Local\Temp\ccIVPyy5.s:1251   .text._mqtt_publish:000000000000004c .LBB33
C:\Users\stapi\AppData\Local\Temp\ccIVPyy5.s:1258   .text._mqtt_publish:0000000000000050 .LBE33

UNDEFINED SYMBOLS
__riscv_save_4
HAL_Printf
__riscv_restore_4
LITE_malloc_internal
memset
memcpy
LITE_free_internal
__riscv_save_1
__riscv_restore_1
IOT_MQTT_Subscribe_Sync
IOT_MQTT_Subscribe
iotx_guider_get_kv_env
HAL_GetProductKey
HAL_GetDeviceName
HAL_GetDeviceID
HAL_GetDeviceSecret
iotx_time_init
utils_time_countdown_ms
IOT_SetupConnInfo
IOT_MQTT_Construct
HAL_UptimeMs
HAL_Srandom
HAL_Random
HAL_SleepMs
utils_time_is_expired
IOT_MQTT_Destroy
__riscv_save_0
__riscv_restore_0
IOT_MQTT_Yield
IOT_MQTT_Unsubscribe
IOT_MQTT_Publish_Simple
__riscv_save_3
__riscv_restore_3
