   1              		.file	"cyclic_buffer.c"
   2              		.option nopic
   3              		.attribute arch, "rv32i2p0_m2p0_a2p0_f2p0_c2p0_b_p0p94"
   4              		.attribute unaligned_access, 0
   5              		.attribute stack_align, 16
   6              		.text
   7              	.Ltext0:
   8              		.cfi_sections	.debug_frame
   9              		.section	.text.cyclic_buf_init,"ax",@progbits
  10              		.align	1
  11              		.globl	cyclic_buf_init
  13              	cyclic_buf_init:
  14              	.LFB1:
  15              		.file 1 "C:/Users/stapi/OneDrive/Desktop/GD32VW553/V1_MQTT_OK/GD32VW55X_Wifi_BLE_SDK/GD32VW55x_REL
   1:C:/Users/stapi/OneDrive/Desktop/GD32VW553/V1_MQTT_OK/GD32VW55X_Wifi_BLE_SDK/GD32VW55x_RELEASE_V1.0.2/MSDK/util/src\cyclic_buffer.c **** /*!
   2:C:/Users/stapi/OneDrive/Desktop/GD32VW553/V1_MQTT_OK/GD32VW55X_Wifi_BLE_SDK/GD32VW55x_RELEASE_V1.0.2/MSDK/util/src\cyclic_buffer.c ****     \file    cyclic_buffer.c
   3:C:/Users/stapi/OneDrive/Desktop/GD32VW553/V1_MQTT_OK/GD32VW55X_Wifi_BLE_SDK/GD32VW55x_RELEASE_V1.0.2/MSDK/util/src\cyclic_buffer.c ****     \brief   cyclic buffer for GD32VW55x SDK.
   4:C:/Users/stapi/OneDrive/Desktop/GD32VW553/V1_MQTT_OK/GD32VW55X_Wifi_BLE_SDK/GD32VW55x_RELEASE_V1.0.2/MSDK/util/src\cyclic_buffer.c **** 
   5:C:/Users/stapi/OneDrive/Desktop/GD32VW553/V1_MQTT_OK/GD32VW55X_Wifi_BLE_SDK/GD32VW55x_RELEASE_V1.0.2/MSDK/util/src\cyclic_buffer.c ****     \version 2023-07-20, V1.0.0, firmware for GD32VW55x
   6:C:/Users/stapi/OneDrive/Desktop/GD32VW553/V1_MQTT_OK/GD32VW55X_Wifi_BLE_SDK/GD32VW55x_RELEASE_V1.0.2/MSDK/util/src\cyclic_buffer.c **** */
   7:C:/Users/stapi/OneDrive/Desktop/GD32VW553/V1_MQTT_OK/GD32VW55X_Wifi_BLE_SDK/GD32VW55x_RELEASE_V1.0.2/MSDK/util/src\cyclic_buffer.c **** 
   8:C:/Users/stapi/OneDrive/Desktop/GD32VW553/V1_MQTT_OK/GD32VW55X_Wifi_BLE_SDK/GD32VW55x_RELEASE_V1.0.2/MSDK/util/src\cyclic_buffer.c **** /*
   9:C:/Users/stapi/OneDrive/Desktop/GD32VW553/V1_MQTT_OK/GD32VW55X_Wifi_BLE_SDK/GD32VW55x_RELEASE_V1.0.2/MSDK/util/src\cyclic_buffer.c ****     Copyright (c) 2023, GigaDevice Semiconductor Inc.
  10:C:/Users/stapi/OneDrive/Desktop/GD32VW553/V1_MQTT_OK/GD32VW55X_Wifi_BLE_SDK/GD32VW55x_RELEASE_V1.0.2/MSDK/util/src\cyclic_buffer.c **** 
  11:C:/Users/stapi/OneDrive/Desktop/GD32VW553/V1_MQTT_OK/GD32VW55X_Wifi_BLE_SDK/GD32VW55x_RELEASE_V1.0.2/MSDK/util/src\cyclic_buffer.c ****     Redistribution and use in source and binary forms, with or without modification,
  12:C:/Users/stapi/OneDrive/Desktop/GD32VW553/V1_MQTT_OK/GD32VW55X_Wifi_BLE_SDK/GD32VW55x_RELEASE_V1.0.2/MSDK/util/src\cyclic_buffer.c **** are permitted provided that the following conditions are met:
  13:C:/Users/stapi/OneDrive/Desktop/GD32VW553/V1_MQTT_OK/GD32VW55X_Wifi_BLE_SDK/GD32VW55x_RELEASE_V1.0.2/MSDK/util/src\cyclic_buffer.c **** 
  14:C:/Users/stapi/OneDrive/Desktop/GD32VW553/V1_MQTT_OK/GD32VW55X_Wifi_BLE_SDK/GD32VW55x_RELEASE_V1.0.2/MSDK/util/src\cyclic_buffer.c ****     1. Redistributions of source code must retain the above copyright notice, this
  15:C:/Users/stapi/OneDrive/Desktop/GD32VW553/V1_MQTT_OK/GD32VW55X_Wifi_BLE_SDK/GD32VW55x_RELEASE_V1.0.2/MSDK/util/src\cyclic_buffer.c ****        list of conditions and the following disclaimer.
  16:C:/Users/stapi/OneDrive/Desktop/GD32VW553/V1_MQTT_OK/GD32VW55X_Wifi_BLE_SDK/GD32VW55x_RELEASE_V1.0.2/MSDK/util/src\cyclic_buffer.c ****     2. Redistributions in binary form must reproduce the above copyright notice,
  17:C:/Users/stapi/OneDrive/Desktop/GD32VW553/V1_MQTT_OK/GD32VW55X_Wifi_BLE_SDK/GD32VW55x_RELEASE_V1.0.2/MSDK/util/src\cyclic_buffer.c ****        this list of conditions and the following disclaimer in the documentation
  18:C:/Users/stapi/OneDrive/Desktop/GD32VW553/V1_MQTT_OK/GD32VW55X_Wifi_BLE_SDK/GD32VW55x_RELEASE_V1.0.2/MSDK/util/src\cyclic_buffer.c ****        and/or other materials provided with the distribution.
  19:C:/Users/stapi/OneDrive/Desktop/GD32VW553/V1_MQTT_OK/GD32VW55X_Wifi_BLE_SDK/GD32VW55x_RELEASE_V1.0.2/MSDK/util/src\cyclic_buffer.c ****     3. Neither the name of the copyright holder nor the names of its contributors
  20:C:/Users/stapi/OneDrive/Desktop/GD32VW553/V1_MQTT_OK/GD32VW55X_Wifi_BLE_SDK/GD32VW55x_RELEASE_V1.0.2/MSDK/util/src\cyclic_buffer.c ****        may be used to endorse or promote products derived from this software without
  21:C:/Users/stapi/OneDrive/Desktop/GD32VW553/V1_MQTT_OK/GD32VW55X_Wifi_BLE_SDK/GD32VW55x_RELEASE_V1.0.2/MSDK/util/src\cyclic_buffer.c ****        specific prior written permission.
  22:C:/Users/stapi/OneDrive/Desktop/GD32VW553/V1_MQTT_OK/GD32VW55X_Wifi_BLE_SDK/GD32VW55x_RELEASE_V1.0.2/MSDK/util/src\cyclic_buffer.c **** 
  23:C:/Users/stapi/OneDrive/Desktop/GD32VW553/V1_MQTT_OK/GD32VW55X_Wifi_BLE_SDK/GD32VW55x_RELEASE_V1.0.2/MSDK/util/src\cyclic_buffer.c ****     THIS SOFTWARE IS PROVIDED BY THE COPYRIGHT HOLDERS AND CONTRIBUTORS "AS IS"
  24:C:/Users/stapi/OneDrive/Desktop/GD32VW553/V1_MQTT_OK/GD32VW55X_Wifi_BLE_SDK/GD32VW55x_RELEASE_V1.0.2/MSDK/util/src\cyclic_buffer.c **** AND ANY EXPRESS OR IMPLIED WARRANTIES, INCLUDING, BUT NOT LIMITED TO, THE IMPLIED
  25:C:/Users/stapi/OneDrive/Desktop/GD32VW553/V1_MQTT_OK/GD32VW55X_Wifi_BLE_SDK/GD32VW55x_RELEASE_V1.0.2/MSDK/util/src\cyclic_buffer.c **** WARRANTIES OF MERCHANTABILITY AND FITNESS FOR A PARTICULAR PURPOSE ARE DISCLAIMED.
  26:C:/Users/stapi/OneDrive/Desktop/GD32VW553/V1_MQTT_OK/GD32VW55X_Wifi_BLE_SDK/GD32VW55x_RELEASE_V1.0.2/MSDK/util/src\cyclic_buffer.c **** IN NO EVENT SHALL THE COPYRIGHT HOLDER OR CONTRIBUTORS BE LIABLE FOR ANY DIRECT,
  27:C:/Users/stapi/OneDrive/Desktop/GD32VW553/V1_MQTT_OK/GD32VW55X_Wifi_BLE_SDK/GD32VW55x_RELEASE_V1.0.2/MSDK/util/src\cyclic_buffer.c **** INDIRECT, INCIDENTAL, SPECIAL, EXEMPLARY, OR CONSEQUENTIAL DAMAGES (INCLUDING, BUT
  28:C:/Users/stapi/OneDrive/Desktop/GD32VW553/V1_MQTT_OK/GD32VW55X_Wifi_BLE_SDK/GD32VW55x_RELEASE_V1.0.2/MSDK/util/src\cyclic_buffer.c **** NOT LIMITED TO, PROCUREMENT OF SUBSTITUTE GOODS OR SERVICES; LOSS OF USE, DATA, OR
  29:C:/Users/stapi/OneDrive/Desktop/GD32VW553/V1_MQTT_OK/GD32VW55X_Wifi_BLE_SDK/GD32VW55x_RELEASE_V1.0.2/MSDK/util/src\cyclic_buffer.c **** PROFITS; OR BUSINESS INTERRUPTION) HOWEVER CAUSED AND ON ANY THEORY OF LIABILITY,
  30:C:/Users/stapi/OneDrive/Desktop/GD32VW553/V1_MQTT_OK/GD32VW55X_Wifi_BLE_SDK/GD32VW55x_RELEASE_V1.0.2/MSDK/util/src\cyclic_buffer.c **** WHETHER IN CONTRACT, STRICT LIABILITY, OR TORT (INCLUDING NEGLIGENCE OR OTHERWISE)
  31:C:/Users/stapi/OneDrive/Desktop/GD32VW553/V1_MQTT_OK/GD32VW55X_Wifi_BLE_SDK/GD32VW55x_RELEASE_V1.0.2/MSDK/util/src\cyclic_buffer.c **** ARISING IN ANY WAY OUT OF THE USE OF THIS SOFTWARE, EVEN IF ADVISED OF THE POSSIBILITY
  32:C:/Users/stapi/OneDrive/Desktop/GD32VW553/V1_MQTT_OK/GD32VW55X_Wifi_BLE_SDK/GD32VW55x_RELEASE_V1.0.2/MSDK/util/src\cyclic_buffer.c **** OF SUCH DAMAGE.
  33:C:/Users/stapi/OneDrive/Desktop/GD32VW553/V1_MQTT_OK/GD32VW55X_Wifi_BLE_SDK/GD32VW55x_RELEASE_V1.0.2/MSDK/util/src\cyclic_buffer.c **** */
  34:C:/Users/stapi/OneDrive/Desktop/GD32VW553/V1_MQTT_OK/GD32VW55X_Wifi_BLE_SDK/GD32VW55x_RELEASE_V1.0.2/MSDK/util/src\cyclic_buffer.c **** 
  35:C:/Users/stapi/OneDrive/Desktop/GD32VW553/V1_MQTT_OK/GD32VW55X_Wifi_BLE_SDK/GD32VW55x_RELEASE_V1.0.2/MSDK/util/src\cyclic_buffer.c **** #include <stdint.h>
  36:C:/Users/stapi/OneDrive/Desktop/GD32VW553/V1_MQTT_OK/GD32VW55X_Wifi_BLE_SDK/GD32VW55x_RELEASE_V1.0.2/MSDK/util/src\cyclic_buffer.c **** #include <string.h>
  37:C:/Users/stapi/OneDrive/Desktop/GD32VW553/V1_MQTT_OK/GD32VW55X_Wifi_BLE_SDK/GD32VW55x_RELEASE_V1.0.2/MSDK/util/src\cyclic_buffer.c **** #include "cyclic_buffer.h"
  38:C:/Users/stapi/OneDrive/Desktop/GD32VW553/V1_MQTT_OK/GD32VW55X_Wifi_BLE_SDK/GD32VW55x_RELEASE_V1.0.2/MSDK/util/src\cyclic_buffer.c **** #include "wrapper_os.h"
  39:C:/Users/stapi/OneDrive/Desktop/GD32VW553/V1_MQTT_OK/GD32VW55X_Wifi_BLE_SDK/GD32VW55x_RELEASE_V1.0.2/MSDK/util/src\cyclic_buffer.c **** 
  40:C:/Users/stapi/OneDrive/Desktop/GD32VW553/V1_MQTT_OK/GD32VW55X_Wifi_BLE_SDK/GD32VW55x_RELEASE_V1.0.2/MSDK/util/src\cyclic_buffer.c **** bool cyclic_buf_init(cyclic_buf_t *cyclic, uint16_t len)
  41:C:/Users/stapi/OneDrive/Desktop/GD32VW553/V1_MQTT_OK/GD32VW55X_Wifi_BLE_SDK/GD32VW55x_RELEASE_V1.0.2/MSDK/util/src\cyclic_buffer.c **** {
  16              		.loc 1 41 1
  17              		.cfi_startproc
  18              	.LVL0:
  19 0000 17030000 		call	t0,__riscv_save_1
  19      E7020300 
  20              		.cfi_offset 8, -8
  21              		.cfi_offset 1, -4
  22              		.cfi_def_cfa_offset 16
  42:C:/Users/stapi/OneDrive/Desktop/GD32VW553/V1_MQTT_OK/GD32VW55X_Wifi_BLE_SDK/GD32VW55x_RELEASE_V1.0.2/MSDK/util/src\cyclic_buffer.c ****     if (!cyclic)
  23              		.loc 1 42 5
  41:C:/Users/stapi/OneDrive/Desktop/GD32VW553/V1_MQTT_OK/GD32VW55X_Wifi_BLE_SDK/GD32VW55x_RELEASE_V1.0.2/MSDK/util/src\cyclic_buffer.c ****     if (!cyclic)
  24              		.loc 1 41 1 is_stmt 0
  25 0008 2A84     		mv	s0,a0
  43:C:/Users/stapi/OneDrive/Desktop/GD32VW553/V1_MQTT_OK/GD32VW55X_Wifi_BLE_SDK/GD32VW55x_RELEASE_V1.0.2/MSDK/util/src\cyclic_buffer.c ****     {
  44:C:/Users/stapi/OneDrive/Desktop/GD32VW553/V1_MQTT_OK/GD32VW55X_Wifi_BLE_SDK/GD32VW55x_RELEASE_V1.0.2/MSDK/util/src\cyclic_buffer.c ****         return false;
  26              		.loc 1 44 16
  27 000a 0145     		li	a0,0
  28              	.LVL1:
  42:C:/Users/stapi/OneDrive/Desktop/GD32VW553/V1_MQTT_OK/GD32VW55X_Wifi_BLE_SDK/GD32VW55x_RELEASE_V1.0.2/MSDK/util/src\cyclic_buffer.c ****     {
  29              		.loc 1 42 8
  30 000c 11CC     		beq	s0,zero,.L2
  31 000e 2E85     		mv	a0,a1
  45:C:/Users/stapi/OneDrive/Desktop/GD32VW553/V1_MQTT_OK/GD32VW55X_Wifi_BLE_SDK/GD32VW55x_RELEASE_V1.0.2/MSDK/util/src\cyclic_buffer.c ****     }
  46:C:/Users/stapi/OneDrive/Desktop/GD32VW553/V1_MQTT_OK/GD32VW55X_Wifi_BLE_SDK/GD32VW55x_RELEASE_V1.0.2/MSDK/util/src\cyclic_buffer.c **** 
  47:C:/Users/stapi/OneDrive/Desktop/GD32VW553/V1_MQTT_OK/GD32VW55X_Wifi_BLE_SDK/GD32VW55x_RELEASE_V1.0.2/MSDK/util/src\cyclic_buffer.c ****     cyclic->read_idx = 0;
  32              		.loc 1 47 5 is_stmt 1
  48:C:/Users/stapi/OneDrive/Desktop/GD32VW553/V1_MQTT_OK/GD32VW55X_Wifi_BLE_SDK/GD32VW55x_RELEASE_V1.0.2/MSDK/util/src\cyclic_buffer.c ****     cyclic->write_idx = 0;
  33              		.loc 1 48 5
  49:C:/Users/stapi/OneDrive/Desktop/GD32VW553/V1_MQTT_OK/GD32VW55X_Wifi_BLE_SDK/GD32VW55x_RELEASE_V1.0.2/MSDK/util/src\cyclic_buffer.c ****     cyclic->len  = len;
  34              		.loc 1 49 18 is_stmt 0
  35 0010 2312B400 		sh	a1,4(s0)
  47:C:/Users/stapi/OneDrive/Desktop/GD32VW553/V1_MQTT_OK/GD32VW55X_Wifi_BLE_SDK/GD32VW55x_RELEASE_V1.0.2/MSDK/util/src\cyclic_buffer.c ****     cyclic->write_idx = 0;
  36              		.loc 1 47 22
  37 0014 23200400 		sw	zero,0(s0)
  38              		.loc 1 49 5 is_stmt 1
  50:C:/Users/stapi/OneDrive/Desktop/GD32VW553/V1_MQTT_OK/GD32VW55X_Wifi_BLE_SDK/GD32VW55x_RELEASE_V1.0.2/MSDK/util/src\cyclic_buffer.c ****     cyclic->buf  = sys_zalloc(cyclic->len);
  39              		.loc 1 50 5
  40              		.loc 1 50 20 is_stmt 0
  41 0018 8545     		li	a1,1
  42              	.LVL2:
  43 001a 97000000 		call	sys_calloc
  43      E7800000 
  44              	.LVL3:
  45              		.loc 1 50 18
  46 0022 08C4     		sw	a0,8(s0)
  51:C:/Users/stapi/OneDrive/Desktop/GD32VW553/V1_MQTT_OK/GD32VW55X_Wifi_BLE_SDK/GD32VW55x_RELEASE_V1.0.2/MSDK/util/src\cyclic_buffer.c **** 
  52:C:/Users/stapi/OneDrive/Desktop/GD32VW553/V1_MQTT_OK/GD32VW55X_Wifi_BLE_SDK/GD32VW55x_RELEASE_V1.0.2/MSDK/util/src\cyclic_buffer.c ****     if (!cyclic->buf)
  47              		.loc 1 52 5 is_stmt 1
  48              		.loc 1 52 8 is_stmt 0
  49 0024 3335A000 		snez	a0,a0
  50              	.L2:
  53:C:/Users/stapi/OneDrive/Desktop/GD32VW553/V1_MQTT_OK/GD32VW55X_Wifi_BLE_SDK/GD32VW55x_RELEASE_V1.0.2/MSDK/util/src\cyclic_buffer.c ****     {
  54:C:/Users/stapi/OneDrive/Desktop/GD32VW553/V1_MQTT_OK/GD32VW55X_Wifi_BLE_SDK/GD32VW55x_RELEASE_V1.0.2/MSDK/util/src\cyclic_buffer.c ****         return false;
  55:C:/Users/stapi/OneDrive/Desktop/GD32VW553/V1_MQTT_OK/GD32VW55X_Wifi_BLE_SDK/GD32VW55x_RELEASE_V1.0.2/MSDK/util/src\cyclic_buffer.c ****     }
  56:C:/Users/stapi/OneDrive/Desktop/GD32VW553/V1_MQTT_OK/GD32VW55X_Wifi_BLE_SDK/GD32VW55x_RELEASE_V1.0.2/MSDK/util/src\cyclic_buffer.c **** 
  57:C:/Users/stapi/OneDrive/Desktop/GD32VW553/V1_MQTT_OK/GD32VW55X_Wifi_BLE_SDK/GD32VW55x_RELEASE_V1.0.2/MSDK/util/src\cyclic_buffer.c ****     return true;
  58:C:/Users/stapi/OneDrive/Desktop/GD32VW553/V1_MQTT_OK/GD32VW55X_Wifi_BLE_SDK/GD32VW55x_RELEASE_V1.0.2/MSDK/util/src\cyclic_buffer.c **** }
  51              		.loc 1 58 1
  52 0028 17030000 		tail	__riscv_restore_1
  52      67000300 
  53              		.cfi_restore 8
  54              		.cfi_restore 1
  55              		.cfi_def_cfa_offset 0
  56              		.cfi_endproc
  57              	.LFE1:
  59              		.section	.text.cyclic_buf_free,"ax",@progbits
  60              		.align	1
  61              		.globl	cyclic_buf_free
  63              	cyclic_buf_free:
  64              	.LFB2:
  59:C:/Users/stapi/OneDrive/Desktop/GD32VW553/V1_MQTT_OK/GD32VW55X_Wifi_BLE_SDK/GD32VW55x_RELEASE_V1.0.2/MSDK/util/src\cyclic_buffer.c **** 
  60:C:/Users/stapi/OneDrive/Desktop/GD32VW553/V1_MQTT_OK/GD32VW55X_Wifi_BLE_SDK/GD32VW55x_RELEASE_V1.0.2/MSDK/util/src\cyclic_buffer.c **** void cyclic_buf_free(cyclic_buf_t *cyclic)
  61:C:/Users/stapi/OneDrive/Desktop/GD32VW553/V1_MQTT_OK/GD32VW55X_Wifi_BLE_SDK/GD32VW55x_RELEASE_V1.0.2/MSDK/util/src\cyclic_buffer.c **** {
  65              		.loc 1 61 1 is_stmt 1
  66              		.cfi_startproc
  67              	.LVL4:
  62:C:/Users/stapi/OneDrive/Desktop/GD32VW553/V1_MQTT_OK/GD32VW55X_Wifi_BLE_SDK/GD32VW55x_RELEASE_V1.0.2/MSDK/util/src\cyclic_buffer.c ****     if (!cyclic)
  68              		.loc 1 62 5
  69              		.loc 1 62 8 is_stmt 0
  70 0000 15C5     		beq	a0,zero,.L15
  61:C:/Users/stapi/OneDrive/Desktop/GD32VW553/V1_MQTT_OK/GD32VW55X_Wifi_BLE_SDK/GD32VW55x_RELEASE_V1.0.2/MSDK/util/src\cyclic_buffer.c ****     if (!cyclic)
  71              		.loc 1 61 1
  72 0002 17030000 		call	t0,__riscv_save_1
  72      E7020300 
  73              		.cfi_offset 8, -8
  74              		.cfi_offset 1, -4
  75              		.cfi_def_cfa_offset 16
  76 000a 2A84     		mv	s0,a0
  63:C:/Users/stapi/OneDrive/Desktop/GD32VW553/V1_MQTT_OK/GD32VW55X_Wifi_BLE_SDK/GD32VW55x_RELEASE_V1.0.2/MSDK/util/src\cyclic_buffer.c ****     {
  64:C:/Users/stapi/OneDrive/Desktop/GD32VW553/V1_MQTT_OK/GD32VW55X_Wifi_BLE_SDK/GD32VW55x_RELEASE_V1.0.2/MSDK/util/src\cyclic_buffer.c ****         return;
  65:C:/Users/stapi/OneDrive/Desktop/GD32VW553/V1_MQTT_OK/GD32VW55X_Wifi_BLE_SDK/GD32VW55x_RELEASE_V1.0.2/MSDK/util/src\cyclic_buffer.c ****     }
  66:C:/Users/stapi/OneDrive/Desktop/GD32VW553/V1_MQTT_OK/GD32VW55X_Wifi_BLE_SDK/GD32VW55x_RELEASE_V1.0.2/MSDK/util/src\cyclic_buffer.c **** 
  67:C:/Users/stapi/OneDrive/Desktop/GD32VW553/V1_MQTT_OK/GD32VW55X_Wifi_BLE_SDK/GD32VW55x_RELEASE_V1.0.2/MSDK/util/src\cyclic_buffer.c ****     if (cyclic->buf)
  77              		.loc 1 67 5 is_stmt 1
  78              		.loc 1 67 15 is_stmt 0
  79 000c 0845     		lw	a0,8(a0)
  80              	.LVL5:
  81              		.loc 1 67 8
  82 000e 09C5     		beq	a0,zero,.L7
  68:C:/Users/stapi/OneDrive/Desktop/GD32VW553/V1_MQTT_OK/GD32VW55X_Wifi_BLE_SDK/GD32VW55x_RELEASE_V1.0.2/MSDK/util/src\cyclic_buffer.c ****     {
  69:C:/Users/stapi/OneDrive/Desktop/GD32VW553/V1_MQTT_OK/GD32VW55X_Wifi_BLE_SDK/GD32VW55x_RELEASE_V1.0.2/MSDK/util/src\cyclic_buffer.c ****         sys_mfree(cyclic->buf);
  83              		.loc 1 69 9 is_stmt 1
  84 0010 97000000 		call	sys_mfree
  84      E7800000 
  85              	.LVL6:
  86              	.L7:
  70:C:/Users/stapi/OneDrive/Desktop/GD32VW553/V1_MQTT_OK/GD32VW55X_Wifi_BLE_SDK/GD32VW55x_RELEASE_V1.0.2/MSDK/util/src\cyclic_buffer.c ****     }
  71:C:/Users/stapi/OneDrive/Desktop/GD32VW553/V1_MQTT_OK/GD32VW55X_Wifi_BLE_SDK/GD32VW55x_RELEASE_V1.0.2/MSDK/util/src\cyclic_buffer.c **** 
  72:C:/Users/stapi/OneDrive/Desktop/GD32VW553/V1_MQTT_OK/GD32VW55X_Wifi_BLE_SDK/GD32VW55x_RELEASE_V1.0.2/MSDK/util/src\cyclic_buffer.c ****     cyclic->read_idx = 0;
  87              		.loc 1 72 5
  73:C:/Users/stapi/OneDrive/Desktop/GD32VW553/V1_MQTT_OK/GD32VW55X_Wifi_BLE_SDK/GD32VW55x_RELEASE_V1.0.2/MSDK/util/src\cyclic_buffer.c ****     cyclic->write_idx = 0;
  88              		.loc 1 73 5
  74:C:/Users/stapi/OneDrive/Desktop/GD32VW553/V1_MQTT_OK/GD32VW55X_Wifi_BLE_SDK/GD32VW55x_RELEASE_V1.0.2/MSDK/util/src\cyclic_buffer.c ****     cyclic->len  = 0;
  89              		.loc 1 74 5
  72:C:/Users/stapi/OneDrive/Desktop/GD32VW553/V1_MQTT_OK/GD32VW55X_Wifi_BLE_SDK/GD32VW55x_RELEASE_V1.0.2/MSDK/util/src\cyclic_buffer.c ****     cyclic->write_idx = 0;
  90              		.loc 1 72 22 is_stmt 0
  91 0018 23200400 		sw	zero,0(s0)
  92              		.loc 1 74 18
  93 001c 23120400 		sh	zero,4(s0)
  75:C:/Users/stapi/OneDrive/Desktop/GD32VW553/V1_MQTT_OK/GD32VW55X_Wifi_BLE_SDK/GD32VW55x_RELEASE_V1.0.2/MSDK/util/src\cyclic_buffer.c ****     cyclic->buf  = NULL;
  94              		.loc 1 75 5 is_stmt 1
  95              		.loc 1 75 18 is_stmt 0
  96 0020 23240400 		sw	zero,8(s0)
  76:C:/Users/stapi/OneDrive/Desktop/GD32VW553/V1_MQTT_OK/GD32VW55X_Wifi_BLE_SDK/GD32VW55x_RELEASE_V1.0.2/MSDK/util/src\cyclic_buffer.c **** }
  97              		.loc 1 76 1
  98 0024 17030000 		tail	__riscv_restore_1
  98      67000300 
  99              		.cfi_restore 8
 100              		.cfi_restore 1
 101              		.cfi_def_cfa_offset 0
 102              	.LVL7:
 103              	.L15:
 104 002c 8280     		ret
 105              		.cfi_endproc
 106              	.LFE2:
 108              		.section	.text.cyclic_buf_count,"ax",@progbits
 109              		.align	1
 110              		.globl	cyclic_buf_count
 112              	cyclic_buf_count:
 113              	.LFB3:
  77:C:/Users/stapi/OneDrive/Desktop/GD32VW553/V1_MQTT_OK/GD32VW55X_Wifi_BLE_SDK/GD32VW55x_RELEASE_V1.0.2/MSDK/util/src\cyclic_buffer.c **** 
  78:C:/Users/stapi/OneDrive/Desktop/GD32VW553/V1_MQTT_OK/GD32VW55X_Wifi_BLE_SDK/GD32VW55x_RELEASE_V1.0.2/MSDK/util/src\cyclic_buffer.c **** uint16_t cyclic_buf_count(cyclic_buf_t *cyclic)
  79:C:/Users/stapi/OneDrive/Desktop/GD32VW553/V1_MQTT_OK/GD32VW55X_Wifi_BLE_SDK/GD32VW55x_RELEASE_V1.0.2/MSDK/util/src\cyclic_buffer.c **** {
 114              		.loc 1 79 1 is_stmt 1
 115              		.cfi_startproc
 116              	.LVL8:
  80:C:/Users/stapi/OneDrive/Desktop/GD32VW553/V1_MQTT_OK/GD32VW55X_Wifi_BLE_SDK/GD32VW55x_RELEASE_V1.0.2/MSDK/util/src\cyclic_buffer.c ****     if (!cyclic || !cyclic->buf)
 117              		.loc 1 80 5
  79:C:/Users/stapi/OneDrive/Desktop/GD32VW553/V1_MQTT_OK/GD32VW55X_Wifi_BLE_SDK/GD32VW55x_RELEASE_V1.0.2/MSDK/util/src\cyclic_buffer.c ****     if (!cyclic || !cyclic->buf)
 118              		.loc 1 79 1 is_stmt 0
 119 0000 2A87     		mv	a4,a0
 120              		.loc 1 80 8
 121 0002 15C1     		beq	a0,zero,.L20
 122              		.loc 1 80 17 discriminator 1
 123 0004 1C45     		lw	a5,8(a0)
  81:C:/Users/stapi/OneDrive/Desktop/GD32VW553/V1_MQTT_OK/GD32VW55X_Wifi_BLE_SDK/GD32VW55x_RELEASE_V1.0.2/MSDK/util/src\cyclic_buffer.c ****     {
  82:C:/Users/stapi/OneDrive/Desktop/GD32VW553/V1_MQTT_OK/GD32VW55X_Wifi_BLE_SDK/GD32VW55x_RELEASE_V1.0.2/MSDK/util/src\cyclic_buffer.c ****         return 0;
 124              		.loc 1 82 16 discriminator 1
 125 0006 0145     		li	a0,0
 126              	.LVL9:
  80:C:/Users/stapi/OneDrive/Desktop/GD32VW553/V1_MQTT_OK/GD32VW55X_Wifi_BLE_SDK/GD32VW55x_RELEASE_V1.0.2/MSDK/util/src\cyclic_buffer.c ****     {
 127              		.loc 1 80 17 discriminator 1
 128 0008 85C3     		beq	a5,zero,.L19
 129              	.LVL10:
 130              	.LBB4:
 131              	.LBB5:
  83:C:/Users/stapi/OneDrive/Desktop/GD32VW553/V1_MQTT_OK/GD32VW55X_Wifi_BLE_SDK/GD32VW55x_RELEASE_V1.0.2/MSDK/util/src\cyclic_buffer.c ****     }
  84:C:/Users/stapi/OneDrive/Desktop/GD32VW553/V1_MQTT_OK/GD32VW55X_Wifi_BLE_SDK/GD32VW55x_RELEASE_V1.0.2/MSDK/util/src\cyclic_buffer.c **** 
  85:C:/Users/stapi/OneDrive/Desktop/GD32VW553/V1_MQTT_OK/GD32VW55X_Wifi_BLE_SDK/GD32VW55x_RELEASE_V1.0.2/MSDK/util/src\cyclic_buffer.c ****     return ((cyclic->write_idx + cyclic->len - cyclic->read_idx) % cyclic->len);
 132              		.loc 1 85 5 is_stmt 1
 133              		.loc 1 85 40 is_stmt 0
 134 000a 83564700 		lhu	a3,4(a4)
 135              		.loc 1 85 20
 136 000e 83572700 		lhu	a5,2(a4)
 137              		.loc 1 85 54
 138 0012 03550700 		lhu	a0,0(a4)
 139              		.loc 1 85 32
 140 0016 B697     		add	a5,a5,a3
 141              		.loc 1 85 46
 142 0018 3385A740 		sub	a0,a5,a0
 143              		.loc 1 85 66
 144 001c 3365D502 		rem	a0,a0,a3
 145 0020 33450508 		zext.h	a0,a0
 146              	.LVL11:
 147 0024 8280     		ret
 148              	.LVL12:
 149              	.L20:
 150              	.LBE5:
 151              	.LBE4:
  82:C:/Users/stapi/OneDrive/Desktop/GD32VW553/V1_MQTT_OK/GD32VW55X_Wifi_BLE_SDK/GD32VW55x_RELEASE_V1.0.2/MSDK/util/src\cyclic_buffer.c ****     }
 152              		.loc 1 82 16
 153 0026 0145     		li	a0,0
 154              	.LVL13:
 155              	.L19:
  86:C:/Users/stapi/OneDrive/Desktop/GD32VW553/V1_MQTT_OK/GD32VW55X_Wifi_BLE_SDK/GD32VW55x_RELEASE_V1.0.2/MSDK/util/src\cyclic_buffer.c **** }
 156              		.loc 1 86 1
 157 0028 8280     		ret
 158              		.cfi_endproc
 159              	.LFE3:
 161              		.section	.text.cyclic_buf_room,"ax",@progbits
 162              		.align	1
 163              		.globl	cyclic_buf_room
 165              	cyclic_buf_room:
 166              	.LFB4:
  87:C:/Users/stapi/OneDrive/Desktop/GD32VW553/V1_MQTT_OK/GD32VW55X_Wifi_BLE_SDK/GD32VW55x_RELEASE_V1.0.2/MSDK/util/src\cyclic_buffer.c **** 
  88:C:/Users/stapi/OneDrive/Desktop/GD32VW553/V1_MQTT_OK/GD32VW55X_Wifi_BLE_SDK/GD32VW55x_RELEASE_V1.0.2/MSDK/util/src\cyclic_buffer.c **** uint16_t cyclic_buf_room(cyclic_buf_t *cyclic)
  89:C:/Users/stapi/OneDrive/Desktop/GD32VW553/V1_MQTT_OK/GD32VW55X_Wifi_BLE_SDK/GD32VW55x_RELEASE_V1.0.2/MSDK/util/src\cyclic_buffer.c **** {
 167              		.loc 1 89 1 is_stmt 1
 168              		.cfi_startproc
 169              	.LVL14:
  90:C:/Users/stapi/OneDrive/Desktop/GD32VW553/V1_MQTT_OK/GD32VW55X_Wifi_BLE_SDK/GD32VW55x_RELEASE_V1.0.2/MSDK/util/src\cyclic_buffer.c ****     if (!cyclic || !cyclic->buf)
 170              		.loc 1 90 5
  89:C:/Users/stapi/OneDrive/Desktop/GD32VW553/V1_MQTT_OK/GD32VW55X_Wifi_BLE_SDK/GD32VW55x_RELEASE_V1.0.2/MSDK/util/src\cyclic_buffer.c ****     if (!cyclic || !cyclic->buf)
 171              		.loc 1 89 1 is_stmt 0
 172 0000 2A87     		mv	a4,a0
 173              		.loc 1 90 8
 174 0002 1DC1     		beq	a0,zero,.L24
 175              		.loc 1 90 17 discriminator 1
 176 0004 1C45     		lw	a5,8(a0)
  91:C:/Users/stapi/OneDrive/Desktop/GD32VW553/V1_MQTT_OK/GD32VW55X_Wifi_BLE_SDK/GD32VW55x_RELEASE_V1.0.2/MSDK/util/src\cyclic_buffer.c ****     {
  92:C:/Users/stapi/OneDrive/Desktop/GD32VW553/V1_MQTT_OK/GD32VW55X_Wifi_BLE_SDK/GD32VW55x_RELEASE_V1.0.2/MSDK/util/src\cyclic_buffer.c ****         return 0;
 177              		.loc 1 92 16 discriminator 1
 178 0006 0145     		li	a0,0
 179              	.LVL15:
  90:C:/Users/stapi/OneDrive/Desktop/GD32VW553/V1_MQTT_OK/GD32VW55X_Wifi_BLE_SDK/GD32VW55x_RELEASE_V1.0.2/MSDK/util/src\cyclic_buffer.c ****     {
 180              		.loc 1 90 17 discriminator 1
 181 0008 8DC3     		beq	a5,zero,.L23
 182              	.LVL16:
 183              	.LBB8:
 184              	.LBB9:
  93:C:/Users/stapi/OneDrive/Desktop/GD32VW553/V1_MQTT_OK/GD32VW55X_Wifi_BLE_SDK/GD32VW55x_RELEASE_V1.0.2/MSDK/util/src\cyclic_buffer.c ****     }
  94:C:/Users/stapi/OneDrive/Desktop/GD32VW553/V1_MQTT_OK/GD32VW55X_Wifi_BLE_SDK/GD32VW55x_RELEASE_V1.0.2/MSDK/util/src\cyclic_buffer.c **** 
  95:C:/Users/stapi/OneDrive/Desktop/GD32VW553/V1_MQTT_OK/GD32VW55X_Wifi_BLE_SDK/GD32VW55x_RELEASE_V1.0.2/MSDK/util/src\cyclic_buffer.c ****     return ((cyclic->read_idx + cyclic->len - (cyclic->write_idx + 1)) % cyclic->len);
 185              		.loc 1 95 5 is_stmt 1
 186              		.loc 1 95 39 is_stmt 0
 187 000a 83564700 		lhu	a3,4(a4)
 188              		.loc 1 95 20
 189 000e 83570700 		lhu	a5,0(a4)
 190              		.loc 1 95 54
 191 0012 03552700 		lhu	a0,2(a4)
 192              		.loc 1 95 31
 193 0016 B697     		add	a5,a5,a3
 194              		.loc 1 95 66
 195 0018 0505     		addi	a0,a0,1
 196              		.loc 1 95 45
 197 001a 3385A740 		sub	a0,a5,a0
 198              		.loc 1 95 72
 199 001e 3365D502 		rem	a0,a0,a3
 200 0022 33450508 		zext.h	a0,a0
 201              	.LVL17:
 202 0026 8280     		ret
 203              	.LVL18:
 204              	.L24:
 205              	.LBE9:
 206              	.LBE8:
  92:C:/Users/stapi/OneDrive/Desktop/GD32VW553/V1_MQTT_OK/GD32VW55X_Wifi_BLE_SDK/GD32VW55x_RELEASE_V1.0.2/MSDK/util/src\cyclic_buffer.c ****     }
 207              		.loc 1 92 16
 208 0028 0145     		li	a0,0
 209              	.LVL19:
 210              	.L23:
  96:C:/Users/stapi/OneDrive/Desktop/GD32VW553/V1_MQTT_OK/GD32VW55X_Wifi_BLE_SDK/GD32VW55x_RELEASE_V1.0.2/MSDK/util/src\cyclic_buffer.c **** }
 211              		.loc 1 96 1
 212 002a 8280     		ret
 213              		.cfi_endproc
 214              	.LFE4:
 216              		.section	.text.cyclic_buf_peek,"ax",@progbits
 217              		.align	1
 218              		.globl	cyclic_buf_peek
 220              	cyclic_buf_peek:
 221              	.LFB5:
  97:C:/Users/stapi/OneDrive/Desktop/GD32VW553/V1_MQTT_OK/GD32VW55X_Wifi_BLE_SDK/GD32VW55x_RELEASE_V1.0.2/MSDK/util/src\cyclic_buffer.c **** 
  98:C:/Users/stapi/OneDrive/Desktop/GD32VW553/V1_MQTT_OK/GD32VW55X_Wifi_BLE_SDK/GD32VW55x_RELEASE_V1.0.2/MSDK/util/src\cyclic_buffer.c **** bool cyclic_buf_peek(cyclic_buf_t *cyclic, uint8_t *buf, uint16_t len)
  99:C:/Users/stapi/OneDrive/Desktop/GD32VW553/V1_MQTT_OK/GD32VW55X_Wifi_BLE_SDK/GD32VW55x_RELEASE_V1.0.2/MSDK/util/src\cyclic_buffer.c **** {
 222              		.loc 1 99 1 is_stmt 1
 223              		.cfi_startproc
 224              	.LVL20:
 100:C:/Users/stapi/OneDrive/Desktop/GD32VW553/V1_MQTT_OK/GD32VW55X_Wifi_BLE_SDK/GD32VW55x_RELEASE_V1.0.2/MSDK/util/src\cyclic_buffer.c ****     if (!cyclic || !cyclic->buf)
 225              		.loc 1 100 5
 226              		.loc 1 100 8 is_stmt 0
 227 0000 2DC9     		beq	a0,zero,.L29
  99:C:/Users/stapi/OneDrive/Desktop/GD32VW553/V1_MQTT_OK/GD32VW55X_Wifi_BLE_SDK/GD32VW55x_RELEASE_V1.0.2/MSDK/util/src\cyclic_buffer.c ****     if (!cyclic || !cyclic->buf)
 228              		.loc 1 99 1 discriminator 1
 229 0002 17030000 		call	t0,__riscv_save_5
 229      E7020300 
 230              		.cfi_offset 20, -24
 231              		.cfi_offset 19, -20
 232              		.cfi_offset 18, -16
 233              		.cfi_offset 9, -12
 234              		.cfi_offset 8, -8
 235              		.cfi_offset 1, -4
 236              		.cfi_def_cfa_offset 32
 237              		.loc 1 100 27 discriminator 1
 238 000a 032A8500 		lw	s4,8(a0)
 239 000e AA84     		mv	s1,a0
 101:C:/Users/stapi/OneDrive/Desktop/GD32VW553/V1_MQTT_OK/GD32VW55X_Wifi_BLE_SDK/GD32VW55x_RELEASE_V1.0.2/MSDK/util/src\cyclic_buffer.c ****     {
 102:C:/Users/stapi/OneDrive/Desktop/GD32VW553/V1_MQTT_OK/GD32VW55X_Wifi_BLE_SDK/GD32VW55x_RELEASE_V1.0.2/MSDK/util/src\cyclic_buffer.c ****         return false;
 240              		.loc 1 102 16 discriminator 1
 241 0010 8147     		li	a5,0
 100:C:/Users/stapi/OneDrive/Desktop/GD32VW553/V1_MQTT_OK/GD32VW55X_Wifi_BLE_SDK/GD32VW55x_RELEASE_V1.0.2/MSDK/util/src\cyclic_buffer.c ****     {
 242              		.loc 1 100 17 discriminator 1
 243 0012 630C0A02 		beq	s4,zero,.L27
 244 0016 AE89     		mv	s3,a1
 245 0018 3289     		mv	s2,a2
 103:C:/Users/stapi/OneDrive/Desktop/GD32VW553/V1_MQTT_OK/GD32VW55X_Wifi_BLE_SDK/GD32VW55x_RELEASE_V1.0.2/MSDK/util/src\cyclic_buffer.c ****     }
 104:C:/Users/stapi/OneDrive/Desktop/GD32VW553/V1_MQTT_OK/GD32VW55X_Wifi_BLE_SDK/GD32VW55x_RELEASE_V1.0.2/MSDK/util/src\cyclic_buffer.c **** 
 105:C:/Users/stapi/OneDrive/Desktop/GD32VW553/V1_MQTT_OK/GD32VW55X_Wifi_BLE_SDK/GD32VW55x_RELEASE_V1.0.2/MSDK/util/src\cyclic_buffer.c ****     if (len > cyclic_buf_count(cyclic))
 246              		.loc 1 105 5 is_stmt 1
 247              		.loc 1 105 15 is_stmt 0
 248 001a 97000000 		call	cyclic_buf_count
 248      E7800000 
 249              	.LVL21:
 102:C:/Users/stapi/OneDrive/Desktop/GD32VW553/V1_MQTT_OK/GD32VW55X_Wifi_BLE_SDK/GD32VW55x_RELEASE_V1.0.2/MSDK/util/src\cyclic_buffer.c ****     }
 250              		.loc 1 102 16
 251 0022 8147     		li	a5,0
 252              		.loc 1 105 8
 253 0024 63632503 		bltu	a0,s2,.L27
 106:C:/Users/stapi/OneDrive/Desktop/GD32VW553/V1_MQTT_OK/GD32VW55X_Wifi_BLE_SDK/GD32VW55x_RELEASE_V1.0.2/MSDK/util/src\cyclic_buffer.c ****     {
 107:C:/Users/stapi/OneDrive/Desktop/GD32VW553/V1_MQTT_OK/GD32VW55X_Wifi_BLE_SDK/GD32VW55x_RELEASE_V1.0.2/MSDK/util/src\cyclic_buffer.c ****         return false;
 108:C:/Users/stapi/OneDrive/Desktop/GD32VW553/V1_MQTT_OK/GD32VW55X_Wifi_BLE_SDK/GD32VW55x_RELEASE_V1.0.2/MSDK/util/src\cyclic_buffer.c ****     }
 109:C:/Users/stapi/OneDrive/Desktop/GD32VW553/V1_MQTT_OK/GD32VW55X_Wifi_BLE_SDK/GD32VW55x_RELEASE_V1.0.2/MSDK/util/src\cyclic_buffer.c **** 
 110:C:/Users/stapi/OneDrive/Desktop/GD32VW553/V1_MQTT_OK/GD32VW55X_Wifi_BLE_SDK/GD32VW55x_RELEASE_V1.0.2/MSDK/util/src\cyclic_buffer.c ****     if (cyclic->read_idx + len <= cyclic->len)
 254              		.loc 1 110 5 is_stmt 1
 255              		.loc 1 110 15 is_stmt 0
 256 0028 83D70400 		lhu	a5,0(s1)
 257              		.loc 1 110 41
 258 002c 03D44400 		lhu	s0,4(s1)
 259              		.loc 1 110 26
 260 0030 33872701 		add	a4,a5,s2
 111:C:/Users/stapi/OneDrive/Desktop/GD32VW553/V1_MQTT_OK/GD32VW55X_Wifi_BLE_SDK/GD32VW55x_RELEASE_V1.0.2/MSDK/util/src\cyclic_buffer.c ****     {
 112:C:/Users/stapi/OneDrive/Desktop/GD32VW553/V1_MQTT_OK/GD32VW55X_Wifi_BLE_SDK/GD32VW55x_RELEASE_V1.0.2/MSDK/util/src\cyclic_buffer.c ****         sys_memcpy(buf, cyclic->buf + cyclic->read_idx, len);
 261              		.loc 1 112 37
 262 0034 B305FA00 		add	a1,s4,a5
 110:C:/Users/stapi/OneDrive/Desktop/GD32VW553/V1_MQTT_OK/GD32VW55X_Wifi_BLE_SDK/GD32VW55x_RELEASE_V1.0.2/MSDK/util/src\cyclic_buffer.c ****     {
 263              		.loc 1 110 8
 264 0038 634EE400 		bgt	a4,s0,.L28
 265              		.loc 1 112 9 is_stmt 1
 266 003c 4A86     		mv	a2,s2
 267 003e 4E85     		mv	a0,s3
 268              	.L36:
 269              	.LBB10:
 113:C:/Users/stapi/OneDrive/Desktop/GD32VW553/V1_MQTT_OK/GD32VW55X_Wifi_BLE_SDK/GD32VW55x_RELEASE_V1.0.2/MSDK/util/src\cyclic_buffer.c ****     }
 114:C:/Users/stapi/OneDrive/Desktop/GD32VW553/V1_MQTT_OK/GD32VW55X_Wifi_BLE_SDK/GD32VW55x_RELEASE_V1.0.2/MSDK/util/src\cyclic_buffer.c ****     else
 115:C:/Users/stapi/OneDrive/Desktop/GD32VW553/V1_MQTT_OK/GD32VW55X_Wifi_BLE_SDK/GD32VW55x_RELEASE_V1.0.2/MSDK/util/src\cyclic_buffer.c ****     {
 116:C:/Users/stapi/OneDrive/Desktop/GD32VW553/V1_MQTT_OK/GD32VW55X_Wifi_BLE_SDK/GD32VW55x_RELEASE_V1.0.2/MSDK/util/src\cyclic_buffer.c ****         uint16_t tlen = cyclic->len - cyclic->read_idx;
 117:C:/Users/stapi/OneDrive/Desktop/GD32VW553/V1_MQTT_OK/GD32VW55X_Wifi_BLE_SDK/GD32VW55x_RELEASE_V1.0.2/MSDK/util/src\cyclic_buffer.c **** 
 118:C:/Users/stapi/OneDrive/Desktop/GD32VW553/V1_MQTT_OK/GD32VW55X_Wifi_BLE_SDK/GD32VW55x_RELEASE_V1.0.2/MSDK/util/src\cyclic_buffer.c ****         sys_memcpy(buf, cyclic->buf + cyclic->read_idx, tlen);
 119:C:/Users/stapi/OneDrive/Desktop/GD32VW553/V1_MQTT_OK/GD32VW55X_Wifi_BLE_SDK/GD32VW55x_RELEASE_V1.0.2/MSDK/util/src\cyclic_buffer.c ****         sys_memcpy(buf + tlen, cyclic->buf, len - tlen);
 270              		.loc 1 119 9 is_stmt 0
 271 0040 97000000 		call	sys_memcpy
 271      E7800000 
 272              	.LVL22:
 273              	.LBE10:
 120:C:/Users/stapi/OneDrive/Desktop/GD32VW553/V1_MQTT_OK/GD32VW55X_Wifi_BLE_SDK/GD32VW55x_RELEASE_V1.0.2/MSDK/util/src\cyclic_buffer.c ****     }
 121:C:/Users/stapi/OneDrive/Desktop/GD32VW553/V1_MQTT_OK/GD32VW55X_Wifi_BLE_SDK/GD32VW55x_RELEASE_V1.0.2/MSDK/util/src\cyclic_buffer.c **** 
 122:C:/Users/stapi/OneDrive/Desktop/GD32VW553/V1_MQTT_OK/GD32VW55X_Wifi_BLE_SDK/GD32VW55x_RELEASE_V1.0.2/MSDK/util/src\cyclic_buffer.c ****     return true;
 274              		.loc 1 122 12
 275 0048 8547     		li	a5,1
 276              	.LVL23:
 277              	.L27:
 123:C:/Users/stapi/OneDrive/Desktop/GD32VW553/V1_MQTT_OK/GD32VW55X_Wifi_BLE_SDK/GD32VW55x_RELEASE_V1.0.2/MSDK/util/src\cyclic_buffer.c **** }
 278              		.loc 1 123 1
 279 004a 3E85     		mv	a0,a5
 280 004c 17030000 		tail	__riscv_restore_5
 280      67000300 
 281              		.cfi_remember_state
 282              		.cfi_restore 20
 283              		.cfi_restore 19
 284              		.cfi_restore 18
 285              		.cfi_restore 9
 286              		.cfi_restore 8
 287              		.cfi_restore 1
 288              		.cfi_def_cfa_offset 0
 289              	.LVL24:
 290              	.L28:
 291              		.cfi_restore_state
 292              	.LBB11:
 116:C:/Users/stapi/OneDrive/Desktop/GD32VW553/V1_MQTT_OK/GD32VW55X_Wifi_BLE_SDK/GD32VW55x_RELEASE_V1.0.2/MSDK/util/src\cyclic_buffer.c **** 
 293              		.loc 1 116 9 is_stmt 1
 116:C:/Users/stapi/OneDrive/Desktop/GD32VW553/V1_MQTT_OK/GD32VW55X_Wifi_BLE_SDK/GD32VW55x_RELEASE_V1.0.2/MSDK/util/src\cyclic_buffer.c **** 
 294              		.loc 1 116 18 is_stmt 0
 295 0054 1D8C     		sub	s0,s0,a5
 296 0056 33440408 		zext.h	s0,s0
 297              	.LVL25:
 118:C:/Users/stapi/OneDrive/Desktop/GD32VW553/V1_MQTT_OK/GD32VW55X_Wifi_BLE_SDK/GD32VW55x_RELEASE_V1.0.2/MSDK/util/src\cyclic_buffer.c ****         sys_memcpy(buf + tlen, cyclic->buf, len - tlen);
 298              		.loc 1 118 9 is_stmt 1
 299 005a 4E85     		mv	a0,s3
 300 005c 2286     		mv	a2,s0
 301 005e 97000000 		call	sys_memcpy
 301      E7800000 
 302              	.LVL26:
 119:C:/Users/stapi/OneDrive/Desktop/GD32VW553/V1_MQTT_OK/GD32VW55X_Wifi_BLE_SDK/GD32VW55x_RELEASE_V1.0.2/MSDK/util/src\cyclic_buffer.c ****     }
 303              		.loc 1 119 9
 304 0066 8C44     		lw	a1,8(s1)
 305 0068 33068940 		sub	a2,s2,s0
 306 006c 33858900 		add	a0,s3,s0
 307 0070 C1BF     		j	.L36
 308              	.LVL27:
 309              	.L29:
 310              		.cfi_def_cfa_offset 0
 311              		.cfi_restore 1
 312              		.cfi_restore 8
 313              		.cfi_restore 9
 314              		.cfi_restore 18
 315              		.cfi_restore 19
 316              		.cfi_restore 20
 317              	.LBE11:
 102:C:/Users/stapi/OneDrive/Desktop/GD32VW553/V1_MQTT_OK/GD32VW55X_Wifi_BLE_SDK/GD32VW55x_RELEASE_V1.0.2/MSDK/util/src\cyclic_buffer.c ****     }
 318              		.loc 1 102 16 is_stmt 0
 319 0072 8147     		li	a5,0
 320              		.loc 1 123 1
 321 0074 3E85     		mv	a0,a5
 322              	.LVL28:
 323 0076 8280     		ret
 324              		.cfi_endproc
 325              	.LFE5:
 327              		.section	.text.cyclic_buf_read,"ax",@progbits
 328              		.align	1
 329              		.globl	cyclic_buf_read
 331              	cyclic_buf_read:
 332              	.LFB6:
 124:C:/Users/stapi/OneDrive/Desktop/GD32VW553/V1_MQTT_OK/GD32VW55X_Wifi_BLE_SDK/GD32VW55x_RELEASE_V1.0.2/MSDK/util/src\cyclic_buffer.c **** 
 125:C:/Users/stapi/OneDrive/Desktop/GD32VW553/V1_MQTT_OK/GD32VW55X_Wifi_BLE_SDK/GD32VW55x_RELEASE_V1.0.2/MSDK/util/src\cyclic_buffer.c **** bool cyclic_buf_read(cyclic_buf_t *cyclic, uint8_t *buf, uint16_t len)
 126:C:/Users/stapi/OneDrive/Desktop/GD32VW553/V1_MQTT_OK/GD32VW55X_Wifi_BLE_SDK/GD32VW55x_RELEASE_V1.0.2/MSDK/util/src\cyclic_buffer.c **** {
 333              		.loc 1 126 1 is_stmt 1
 334              		.cfi_startproc
 335              	.LVL29:
 127:C:/Users/stapi/OneDrive/Desktop/GD32VW553/V1_MQTT_OK/GD32VW55X_Wifi_BLE_SDK/GD32VW55x_RELEASE_V1.0.2/MSDK/util/src\cyclic_buffer.c ****     if (!cyclic || !cyclic->buf)
 336              		.loc 1 127 5
 337              		.loc 1 127 8 is_stmt 0
 338 0000 59CD     		beq	a0,zero,.L41
 126:C:/Users/stapi/OneDrive/Desktop/GD32VW553/V1_MQTT_OK/GD32VW55X_Wifi_BLE_SDK/GD32VW55x_RELEASE_V1.0.2/MSDK/util/src\cyclic_buffer.c ****     if (!cyclic || !cyclic->buf)
 339              		.loc 1 126 1 discriminator 1
 340 0002 17030000 		call	t0,__riscv_save_6
 340      E7020300 
 341              		.cfi_offset 21, -28
 342              		.cfi_offset 20, -24
 343              		.cfi_offset 19, -20
 344              		.cfi_offset 18, -16
 345              		.cfi_offset 9, -12
 346              		.cfi_offset 8, -8
 347              		.cfi_offset 1, -4
 348              		.cfi_def_cfa_offset 32
 349              		.loc 1 127 27 discriminator 1
 350 000a 032A8500 		lw	s4,8(a0)
 351 000e 2A84     		mv	s0,a0
 128:C:/Users/stapi/OneDrive/Desktop/GD32VW553/V1_MQTT_OK/GD32VW55X_Wifi_BLE_SDK/GD32VW55x_RELEASE_V1.0.2/MSDK/util/src\cyclic_buffer.c ****     {
 129:C:/Users/stapi/OneDrive/Desktop/GD32VW553/V1_MQTT_OK/GD32VW55X_Wifi_BLE_SDK/GD32VW55x_RELEASE_V1.0.2/MSDK/util/src\cyclic_buffer.c ****         return false;
 352              		.loc 1 129 16 discriminator 1
 353 0010 8147     		li	a5,0
 127:C:/Users/stapi/OneDrive/Desktop/GD32VW553/V1_MQTT_OK/GD32VW55X_Wifi_BLE_SDK/GD32VW55x_RELEASE_V1.0.2/MSDK/util/src\cyclic_buffer.c ****     {
 354              		.loc 1 127 17 discriminator 1
 355 0012 63090A04 		beq	s4,zero,.L38
 356 0016 AE89     		mv	s3,a1
 357 0018 3289     		mv	s2,a2
 130:C:/Users/stapi/OneDrive/Desktop/GD32VW553/V1_MQTT_OK/GD32VW55X_Wifi_BLE_SDK/GD32VW55x_RELEASE_V1.0.2/MSDK/util/src\cyclic_buffer.c ****     }
 131:C:/Users/stapi/OneDrive/Desktop/GD32VW553/V1_MQTT_OK/GD32VW55X_Wifi_BLE_SDK/GD32VW55x_RELEASE_V1.0.2/MSDK/util/src\cyclic_buffer.c **** 
 132:C:/Users/stapi/OneDrive/Desktop/GD32VW553/V1_MQTT_OK/GD32VW55X_Wifi_BLE_SDK/GD32VW55x_RELEASE_V1.0.2/MSDK/util/src\cyclic_buffer.c ****     if (len > cyclic_buf_count(cyclic))
 358              		.loc 1 132 5 is_stmt 1
 359              		.loc 1 132 15 is_stmt 0
 360 001a 97000000 		call	cyclic_buf_count
 360      E7800000 
 361              	.LVL30:
 129:C:/Users/stapi/OneDrive/Desktop/GD32VW553/V1_MQTT_OK/GD32VW55X_Wifi_BLE_SDK/GD32VW55x_RELEASE_V1.0.2/MSDK/util/src\cyclic_buffer.c ****     }
 362              		.loc 1 129 16
 363 0022 8147     		li	a5,0
 364              		.loc 1 132 8
 365 0024 63602505 		bltu	a0,s2,.L38
 133:C:/Users/stapi/OneDrive/Desktop/GD32VW553/V1_MQTT_OK/GD32VW55X_Wifi_BLE_SDK/GD32VW55x_RELEASE_V1.0.2/MSDK/util/src\cyclic_buffer.c ****     {
 134:C:/Users/stapi/OneDrive/Desktop/GD32VW553/V1_MQTT_OK/GD32VW55X_Wifi_BLE_SDK/GD32VW55x_RELEASE_V1.0.2/MSDK/util/src\cyclic_buffer.c ****         return false;
 135:C:/Users/stapi/OneDrive/Desktop/GD32VW553/V1_MQTT_OK/GD32VW55X_Wifi_BLE_SDK/GD32VW55x_RELEASE_V1.0.2/MSDK/util/src\cyclic_buffer.c ****     }
 136:C:/Users/stapi/OneDrive/Desktop/GD32VW553/V1_MQTT_OK/GD32VW55X_Wifi_BLE_SDK/GD32VW55x_RELEASE_V1.0.2/MSDK/util/src\cyclic_buffer.c **** 
 137:C:/Users/stapi/OneDrive/Desktop/GD32VW553/V1_MQTT_OK/GD32VW55X_Wifi_BLE_SDK/GD32VW55x_RELEASE_V1.0.2/MSDK/util/src\cyclic_buffer.c ****     if (cyclic->read_idx + len <= cyclic->len)
 366              		.loc 1 137 5 is_stmt 1
 367              		.loc 1 137 15 is_stmt 0
 368 0028 83540400 		lhu	s1,0(s0)
 369              		.loc 1 137 41
 370 002c 835A4400 		lhu	s5,4(s0)
 138:C:/Users/stapi/OneDrive/Desktop/GD32VW553/V1_MQTT_OK/GD32VW55X_Wifi_BLE_SDK/GD32VW55x_RELEASE_V1.0.2/MSDK/util/src\cyclic_buffer.c ****     {
 139:C:/Users/stapi/OneDrive/Desktop/GD32VW553/V1_MQTT_OK/GD32VW55X_Wifi_BLE_SDK/GD32VW55x_RELEASE_V1.0.2/MSDK/util/src\cyclic_buffer.c ****         sys_memcpy(buf, cyclic->buf + cyclic->read_idx, len);
 371              		.loc 1 139 37
 372 0030 B3059A00 		add	a1,s4,s1
 137:C:/Users/stapi/OneDrive/Desktop/GD32VW553/V1_MQTT_OK/GD32VW55X_Wifi_BLE_SDK/GD32VW55x_RELEASE_V1.0.2/MSDK/util/src\cyclic_buffer.c ****     {
 373              		.loc 1 137 26
 374 0034 338A2401 		add	s4,s1,s2
 137:C:/Users/stapi/OneDrive/Desktop/GD32VW553/V1_MQTT_OK/GD32VW55X_Wifi_BLE_SDK/GD32VW55x_RELEASE_V1.0.2/MSDK/util/src\cyclic_buffer.c ****     {
 375              		.loc 1 137 8
 376 0038 63CB4A03 		bgt	s4,s5,.L39
 377              		.loc 1 139 9 is_stmt 1
 378 003c 4A86     		mv	a2,s2
 379 003e 4E85     		mv	a0,s3
 380 0040 97000000 		call	sys_memcpy
 380      E7800000 
 381              	.LVL31:
 140:C:/Users/stapi/OneDrive/Desktop/GD32VW553/V1_MQTT_OK/GD32VW55X_Wifi_BLE_SDK/GD32VW55x_RELEASE_V1.0.2/MSDK/util/src\cyclic_buffer.c ****         cyclic->read_idx += len;
 382              		.loc 1 140 9
 383              		.loc 1 140 26 is_stmt 0
 384 0048 03560400 		lhu	a2,0(s0)
 385 004c 3299     		add	s2,s2,a2
 386 004e 23102401 		sh	s2,0(s0)
 387              	.L40:
 141:C:/Users/stapi/OneDrive/Desktop/GD32VW553/V1_MQTT_OK/GD32VW55X_Wifi_BLE_SDK/GD32VW55x_RELEASE_V1.0.2/MSDK/util/src\cyclic_buffer.c ****     }
 142:C:/Users/stapi/OneDrive/Desktop/GD32VW553/V1_MQTT_OK/GD32VW55X_Wifi_BLE_SDK/GD32VW55x_RELEASE_V1.0.2/MSDK/util/src\cyclic_buffer.c ****     else
 143:C:/Users/stapi/OneDrive/Desktop/GD32VW553/V1_MQTT_OK/GD32VW55X_Wifi_BLE_SDK/GD32VW55x_RELEASE_V1.0.2/MSDK/util/src\cyclic_buffer.c ****     {
 144:C:/Users/stapi/OneDrive/Desktop/GD32VW553/V1_MQTT_OK/GD32VW55X_Wifi_BLE_SDK/GD32VW55x_RELEASE_V1.0.2/MSDK/util/src\cyclic_buffer.c ****         uint16_t tlen = cyclic->len - cyclic->read_idx;
 145:C:/Users/stapi/OneDrive/Desktop/GD32VW553/V1_MQTT_OK/GD32VW55X_Wifi_BLE_SDK/GD32VW55x_RELEASE_V1.0.2/MSDK/util/src\cyclic_buffer.c **** 
 146:C:/Users/stapi/OneDrive/Desktop/GD32VW553/V1_MQTT_OK/GD32VW55X_Wifi_BLE_SDK/GD32VW55x_RELEASE_V1.0.2/MSDK/util/src\cyclic_buffer.c ****         sys_memcpy(buf, cyclic->buf + cyclic->read_idx, tlen);
 147:C:/Users/stapi/OneDrive/Desktop/GD32VW553/V1_MQTT_OK/GD32VW55X_Wifi_BLE_SDK/GD32VW55x_RELEASE_V1.0.2/MSDK/util/src\cyclic_buffer.c ****         sys_memcpy(buf + tlen, cyclic->buf, len - tlen);
 148:C:/Users/stapi/OneDrive/Desktop/GD32VW553/V1_MQTT_OK/GD32VW55X_Wifi_BLE_SDK/GD32VW55x_RELEASE_V1.0.2/MSDK/util/src\cyclic_buffer.c ****         cyclic->read_idx = len - tlen;
 149:C:/Users/stapi/OneDrive/Desktop/GD32VW553/V1_MQTT_OK/GD32VW55X_Wifi_BLE_SDK/GD32VW55x_RELEASE_V1.0.2/MSDK/util/src\cyclic_buffer.c ****     }
 150:C:/Users/stapi/OneDrive/Desktop/GD32VW553/V1_MQTT_OK/GD32VW55X_Wifi_BLE_SDK/GD32VW55x_RELEASE_V1.0.2/MSDK/util/src\cyclic_buffer.c **** 
 151:C:/Users/stapi/OneDrive/Desktop/GD32VW553/V1_MQTT_OK/GD32VW55X_Wifi_BLE_SDK/GD32VW55x_RELEASE_V1.0.2/MSDK/util/src\cyclic_buffer.c ****     cyclic->read_idx %= cyclic->len;
 388              		.loc 1 151 5 is_stmt 1
 389              		.loc 1 151 22 is_stmt 0
 390 0052 83570400 		lhu	a5,0(s0)
 391 0056 03574400 		lhu	a4,4(s0)
 392 005a B3F7E702 		remu	a5,a5,a4
 393 005e 2310F400 		sh	a5,0(s0)
 152:C:/Users/stapi/OneDrive/Desktop/GD32VW553/V1_MQTT_OK/GD32VW55X_Wifi_BLE_SDK/GD32VW55x_RELEASE_V1.0.2/MSDK/util/src\cyclic_buffer.c **** 
 153:C:/Users/stapi/OneDrive/Desktop/GD32VW553/V1_MQTT_OK/GD32VW55X_Wifi_BLE_SDK/GD32VW55x_RELEASE_V1.0.2/MSDK/util/src\cyclic_buffer.c ****     return true;
 394              		.loc 1 153 5 is_stmt 1
 395              		.loc 1 153 12 is_stmt 0
 396 0062 8547     		li	a5,1
 397              	.LVL32:
 398              	.L38:
 154:C:/Users/stapi/OneDrive/Desktop/GD32VW553/V1_MQTT_OK/GD32VW55X_Wifi_BLE_SDK/GD32VW55x_RELEASE_V1.0.2/MSDK/util/src\cyclic_buffer.c **** }
 399              		.loc 1 154 1
 400 0064 3E85     		mv	a0,a5
 401 0066 17030000 		tail	__riscv_restore_6
 401      67000300 
 402              		.cfi_remember_state
 403              		.cfi_restore 21
 404              		.cfi_restore 20
 405              		.cfi_restore 19
 406              		.cfi_restore 18
 407              		.cfi_restore 9
 408              		.cfi_restore 8
 409              		.cfi_restore 1
 410              		.cfi_def_cfa_offset 0
 411              	.LVL33:
 412              	.L39:
 413              		.cfi_restore_state
 414              	.LBB12:
 144:C:/Users/stapi/OneDrive/Desktop/GD32VW553/V1_MQTT_OK/GD32VW55X_Wifi_BLE_SDK/GD32VW55x_RELEASE_V1.0.2/MSDK/util/src\cyclic_buffer.c **** 
 415              		.loc 1 144 9 is_stmt 1
 144:C:/Users/stapi/OneDrive/Desktop/GD32VW553/V1_MQTT_OK/GD32VW55X_Wifi_BLE_SDK/GD32VW55x_RELEASE_V1.0.2/MSDK/util/src\cyclic_buffer.c **** 
 416              		.loc 1 144 18 is_stmt 0
 417 006e B3849A40 		sub	s1,s5,s1
 418 0072 B3C40408 		zext.h	s1,s1
 419              	.LVL34:
 146:C:/Users/stapi/OneDrive/Desktop/GD32VW553/V1_MQTT_OK/GD32VW55X_Wifi_BLE_SDK/GD32VW55x_RELEASE_V1.0.2/MSDK/util/src\cyclic_buffer.c ****         sys_memcpy(buf + tlen, cyclic->buf, len - tlen);
 420              		.loc 1 146 9 is_stmt 1
 421 0076 4E85     		mv	a0,s3
 422 0078 2686     		mv	a2,s1
 423 007a 97000000 		call	sys_memcpy
 423      E7800000 
 424              	.LVL35:
 147:C:/Users/stapi/OneDrive/Desktop/GD32VW553/V1_MQTT_OK/GD32VW55X_Wifi_BLE_SDK/GD32VW55x_RELEASE_V1.0.2/MSDK/util/src\cyclic_buffer.c ****         cyclic->read_idx = len - tlen;
 425              		.loc 1 147 9
 426 0082 0C44     		lw	a1,8(s0)
 427 0084 33069940 		sub	a2,s2,s1
 428 0088 33859900 		add	a0,s3,s1
 148:C:/Users/stapi/OneDrive/Desktop/GD32VW553/V1_MQTT_OK/GD32VW55X_Wifi_BLE_SDK/GD32VW55x_RELEASE_V1.0.2/MSDK/util/src\cyclic_buffer.c ****     }
 429              		.loc 1 148 32 is_stmt 0
 430 008c 330A5A41 		sub	s4,s4,s5
 147:C:/Users/stapi/OneDrive/Desktop/GD32VW553/V1_MQTT_OK/GD32VW55X_Wifi_BLE_SDK/GD32VW55x_RELEASE_V1.0.2/MSDK/util/src\cyclic_buffer.c ****         cyclic->read_idx = len - tlen;
 431              		.loc 1 147 9
 432 0090 97000000 		call	sys_memcpy
 432      E7800000 
 433              	.LVL36:
 148:C:/Users/stapi/OneDrive/Desktop/GD32VW553/V1_MQTT_OK/GD32VW55X_Wifi_BLE_SDK/GD32VW55x_RELEASE_V1.0.2/MSDK/util/src\cyclic_buffer.c ****     }
 434              		.loc 1 148 9 is_stmt 1
 148:C:/Users/stapi/OneDrive/Desktop/GD32VW553/V1_MQTT_OK/GD32VW55X_Wifi_BLE_SDK/GD32VW55x_RELEASE_V1.0.2/MSDK/util/src\cyclic_buffer.c ****     }
 435              		.loc 1 148 26 is_stmt 0
 436 0098 23104401 		sh	s4,0(s0)
 437 009c 5DBF     		j	.L40
 438              	.LVL37:
 439              	.L41:
 440              		.cfi_def_cfa_offset 0
 441              		.cfi_restore 1
 442              		.cfi_restore 8
 443              		.cfi_restore 9
 444              		.cfi_restore 18
 445              		.cfi_restore 19
 446              		.cfi_restore 20
 447              		.cfi_restore 21
 448              	.LBE12:
 129:C:/Users/stapi/OneDrive/Desktop/GD32VW553/V1_MQTT_OK/GD32VW55X_Wifi_BLE_SDK/GD32VW55x_RELEASE_V1.0.2/MSDK/util/src\cyclic_buffer.c ****     }
 449              		.loc 1 129 16
 450 009e 8147     		li	a5,0
 451              		.loc 1 154 1
 452 00a0 3E85     		mv	a0,a5
 453              	.LVL38:
 454 00a2 8280     		ret
 455              		.cfi_endproc
 456              	.LFE6:
 458              		.section	.text.cyclic_buf_drop,"ax",@progbits
 459              		.align	1
 460              		.globl	cyclic_buf_drop
 462              	cyclic_buf_drop:
 463              	.LFB7:
 155:C:/Users/stapi/OneDrive/Desktop/GD32VW553/V1_MQTT_OK/GD32VW55X_Wifi_BLE_SDK/GD32VW55x_RELEASE_V1.0.2/MSDK/util/src\cyclic_buffer.c **** 
 156:C:/Users/stapi/OneDrive/Desktop/GD32VW553/V1_MQTT_OK/GD32VW55X_Wifi_BLE_SDK/GD32VW55x_RELEASE_V1.0.2/MSDK/util/src\cyclic_buffer.c **** bool cyclic_buf_drop(cyclic_buf_t *cyclic, uint16_t len)
 157:C:/Users/stapi/OneDrive/Desktop/GD32VW553/V1_MQTT_OK/GD32VW55X_Wifi_BLE_SDK/GD32VW55x_RELEASE_V1.0.2/MSDK/util/src\cyclic_buffer.c **** {
 464              		.loc 1 157 1 is_stmt 1
 465              		.cfi_startproc
 466              	.LVL39:
 158:C:/Users/stapi/OneDrive/Desktop/GD32VW553/V1_MQTT_OK/GD32VW55X_Wifi_BLE_SDK/GD32VW55x_RELEASE_V1.0.2/MSDK/util/src\cyclic_buffer.c ****     if (!cyclic || !cyclic->buf)
 467              		.loc 1 158 5
 468              		.loc 1 158 8 is_stmt 0
 469 0000 21C9     		beq	a0,zero,.L51
 157:C:/Users/stapi/OneDrive/Desktop/GD32VW553/V1_MQTT_OK/GD32VW55X_Wifi_BLE_SDK/GD32VW55x_RELEASE_V1.0.2/MSDK/util/src\cyclic_buffer.c ****     if (!cyclic || !cyclic->buf)
 470              		.loc 1 157 1 discriminator 1
 471 0002 17030000 		call	t0,__riscv_save_2
 471      E7020300 
 472              		.cfi_offset 9, -12
 473              		.cfi_offset 8, -8
 474              		.cfi_offset 1, -4
 475              		.cfi_def_cfa_offset 16
 476              		.loc 1 158 17 discriminator 1
 477 000a 1845     		lw	a4,8(a0)
 478 000c 2A84     		mv	s0,a0
 159:C:/Users/stapi/OneDrive/Desktop/GD32VW553/V1_MQTT_OK/GD32VW55X_Wifi_BLE_SDK/GD32VW55x_RELEASE_V1.0.2/MSDK/util/src\cyclic_buffer.c ****     {
 160:C:/Users/stapi/OneDrive/Desktop/GD32VW553/V1_MQTT_OK/GD32VW55X_Wifi_BLE_SDK/GD32VW55x_RELEASE_V1.0.2/MSDK/util/src\cyclic_buffer.c ****         return false;
 479              		.loc 1 160 16 discriminator 1
 480 000e 8147     		li	a5,0
 158:C:/Users/stapi/OneDrive/Desktop/GD32VW553/V1_MQTT_OK/GD32VW55X_Wifi_BLE_SDK/GD32VW55x_RELEASE_V1.0.2/MSDK/util/src\cyclic_buffer.c ****     {
 481              		.loc 1 158 17 discriminator 1
 482 0010 1DCB     		beq	a4,zero,.L49
 483 0012 AE84     		mv	s1,a1
 161:C:/Users/stapi/OneDrive/Desktop/GD32VW553/V1_MQTT_OK/GD32VW55X_Wifi_BLE_SDK/GD32VW55x_RELEASE_V1.0.2/MSDK/util/src\cyclic_buffer.c ****     }
 162:C:/Users/stapi/OneDrive/Desktop/GD32VW553/V1_MQTT_OK/GD32VW55X_Wifi_BLE_SDK/GD32VW55x_RELEASE_V1.0.2/MSDK/util/src\cyclic_buffer.c **** 
 163:C:/Users/stapi/OneDrive/Desktop/GD32VW553/V1_MQTT_OK/GD32VW55X_Wifi_BLE_SDK/GD32VW55x_RELEASE_V1.0.2/MSDK/util/src\cyclic_buffer.c ****     if (len > cyclic_buf_count(cyclic))
 484              		.loc 1 163 5 is_stmt 1
 485              		.loc 1 163 15 is_stmt 0
 486 0014 97000000 		call	cyclic_buf_count
 486      E7800000 
 487              	.LVL40:
 160:C:/Users/stapi/OneDrive/Desktop/GD32VW553/V1_MQTT_OK/GD32VW55X_Wifi_BLE_SDK/GD32VW55x_RELEASE_V1.0.2/MSDK/util/src\cyclic_buffer.c ****     }
 488              		.loc 1 160 16
 489 001c 8147     		li	a5,0
 490              		.loc 1 163 8
 491 001e 63649502 		bltu	a0,s1,.L49
 164:C:/Users/stapi/OneDrive/Desktop/GD32VW553/V1_MQTT_OK/GD32VW55X_Wifi_BLE_SDK/GD32VW55x_RELEASE_V1.0.2/MSDK/util/src\cyclic_buffer.c ****     {
 165:C:/Users/stapi/OneDrive/Desktop/GD32VW553/V1_MQTT_OK/GD32VW55X_Wifi_BLE_SDK/GD32VW55x_RELEASE_V1.0.2/MSDK/util/src\cyclic_buffer.c ****         return false;
 166:C:/Users/stapi/OneDrive/Desktop/GD32VW553/V1_MQTT_OK/GD32VW55X_Wifi_BLE_SDK/GD32VW55x_RELEASE_V1.0.2/MSDK/util/src\cyclic_buffer.c ****     }
 167:C:/Users/stapi/OneDrive/Desktop/GD32VW553/V1_MQTT_OK/GD32VW55X_Wifi_BLE_SDK/GD32VW55x_RELEASE_V1.0.2/MSDK/util/src\cyclic_buffer.c **** 
 168:C:/Users/stapi/OneDrive/Desktop/GD32VW553/V1_MQTT_OK/GD32VW55X_Wifi_BLE_SDK/GD32VW55x_RELEASE_V1.0.2/MSDK/util/src\cyclic_buffer.c ****     if (cyclic->read_idx + len <= cyclic->len)
 492              		.loc 1 168 5 is_stmt 1
 493              		.loc 1 168 15 is_stmt 0
 494 0022 03570400 		lhu	a4,0(s0)
 495              		.loc 1 168 41
 496 0026 83564400 		lhu	a3,4(s0)
 169:C:/Users/stapi/OneDrive/Desktop/GD32VW553/V1_MQTT_OK/GD32VW55X_Wifi_BLE_SDK/GD32VW55x_RELEASE_V1.0.2/MSDK/util/src\cyclic_buffer.c ****     {
 170:C:/Users/stapi/OneDrive/Desktop/GD32VW553/V1_MQTT_OK/GD32VW55X_Wifi_BLE_SDK/GD32VW55x_RELEASE_V1.0.2/MSDK/util/src\cyclic_buffer.c ****         cyclic->read_idx += len;
 497              		.loc 1 170 26
 498 002a B3059700 		add	a1,a4,s1
 499 002e B3C70508 		zext.h	a5,a1
 168:C:/Users/stapi/OneDrive/Desktop/GD32VW553/V1_MQTT_OK/GD32VW55X_Wifi_BLE_SDK/GD32VW55x_RELEASE_V1.0.2/MSDK/util/src\cyclic_buffer.c ****     {
 500              		.loc 1 168 8
 501 0032 63D5B600 		ble	a1,a3,.L50
 502              	.LBB13:
 171:C:/Users/stapi/OneDrive/Desktop/GD32VW553/V1_MQTT_OK/GD32VW55X_Wifi_BLE_SDK/GD32VW55x_RELEASE_V1.0.2/MSDK/util/src\cyclic_buffer.c ****     }
 172:C:/Users/stapi/OneDrive/Desktop/GD32VW553/V1_MQTT_OK/GD32VW55X_Wifi_BLE_SDK/GD32VW55x_RELEASE_V1.0.2/MSDK/util/src\cyclic_buffer.c ****     else
 173:C:/Users/stapi/OneDrive/Desktop/GD32VW553/V1_MQTT_OK/GD32VW55X_Wifi_BLE_SDK/GD32VW55x_RELEASE_V1.0.2/MSDK/util/src\cyclic_buffer.c ****     {
 174:C:/Users/stapi/OneDrive/Desktop/GD32VW553/V1_MQTT_OK/GD32VW55X_Wifi_BLE_SDK/GD32VW55x_RELEASE_V1.0.2/MSDK/util/src\cyclic_buffer.c ****         uint16_t tlen = cyclic->len - cyclic->read_idx;
 503              		.loc 1 174 9 is_stmt 1
 504              	.LVL41:
 175:C:/Users/stapi/OneDrive/Desktop/GD32VW553/V1_MQTT_OK/GD32VW55X_Wifi_BLE_SDK/GD32VW55x_RELEASE_V1.0.2/MSDK/util/src\cyclic_buffer.c **** 
 176:C:/Users/stapi/OneDrive/Desktop/GD32VW553/V1_MQTT_OK/GD32VW55X_Wifi_BLE_SDK/GD32VW55x_RELEASE_V1.0.2/MSDK/util/src\cyclic_buffer.c ****         cyclic->read_idx = len - tlen;
 505              		.loc 1 176 9
 506              		.loc 1 176 32 is_stmt 0
 507 0036 958F     		sub	a5,a5,a3
 508 0038 B3C70708 		zext.h	a5,a5
 509              	.LVL42:
 510              	.L50:
 511              	.LBE13:
 177:C:/Users/stapi/OneDrive/Desktop/GD32VW553/V1_MQTT_OK/GD32VW55X_Wifi_BLE_SDK/GD32VW55x_RELEASE_V1.0.2/MSDK/util/src\cyclic_buffer.c ****     }
 178:C:/Users/stapi/OneDrive/Desktop/GD32VW553/V1_MQTT_OK/GD32VW55X_Wifi_BLE_SDK/GD32VW55x_RELEASE_V1.0.2/MSDK/util/src\cyclic_buffer.c **** 
 179:C:/Users/stapi/OneDrive/Desktop/GD32VW553/V1_MQTT_OK/GD32VW55X_Wifi_BLE_SDK/GD32VW55x_RELEASE_V1.0.2/MSDK/util/src\cyclic_buffer.c ****     cyclic->read_idx %= cyclic->len;
 512              		.loc 1 179 5 is_stmt 1
 513              		.loc 1 179 22 is_stmt 0
 514 003c B3F7D702 		remu	a5,a5,a3
 515 0040 2310F400 		sh	a5,0(s0)
 180:C:/Users/stapi/OneDrive/Desktop/GD32VW553/V1_MQTT_OK/GD32VW55X_Wifi_BLE_SDK/GD32VW55x_RELEASE_V1.0.2/MSDK/util/src\cyclic_buffer.c **** 
 181:C:/Users/stapi/OneDrive/Desktop/GD32VW553/V1_MQTT_OK/GD32VW55X_Wifi_BLE_SDK/GD32VW55x_RELEASE_V1.0.2/MSDK/util/src\cyclic_buffer.c ****     return true;
 516              		.loc 1 181 5 is_stmt 1
 517              		.loc 1 181 12 is_stmt 0
 518 0044 8547     		li	a5,1
 519              	.L49:
 182:C:/Users/stapi/OneDrive/Desktop/GD32VW553/V1_MQTT_OK/GD32VW55X_Wifi_BLE_SDK/GD32VW55x_RELEASE_V1.0.2/MSDK/util/src\cyclic_buffer.c **** }
 520              		.loc 1 182 1
 521 0046 3E85     		mv	a0,a5
 522 0048 17030000 		tail	__riscv_restore_2
 522      67000300 
 523              		.cfi_restore 9
 524              		.cfi_restore 8
 525              		.cfi_restore 1
 526              		.cfi_def_cfa_offset 0
 527              	.LVL43:
 528              	.L51:
 160:C:/Users/stapi/OneDrive/Desktop/GD32VW553/V1_MQTT_OK/GD32VW55X_Wifi_BLE_SDK/GD32VW55x_RELEASE_V1.0.2/MSDK/util/src\cyclic_buffer.c ****     }
 529              		.loc 1 160 16
 530 0050 8147     		li	a5,0
 531              		.loc 1 182 1
 532 0052 3E85     		mv	a0,a5
 533              	.LVL44:
 534 0054 8280     		ret
 535              		.cfi_endproc
 536              	.LFE7:
 538              		.section	.text.cyclic_buf_clear,"ax",@progbits
 539              		.align	1
 540              		.globl	cyclic_buf_clear
 542              	cyclic_buf_clear:
 543              	.LFB8:
 183:C:/Users/stapi/OneDrive/Desktop/GD32VW553/V1_MQTT_OK/GD32VW55X_Wifi_BLE_SDK/GD32VW55x_RELEASE_V1.0.2/MSDK/util/src\cyclic_buffer.c **** 
 184:C:/Users/stapi/OneDrive/Desktop/GD32VW553/V1_MQTT_OK/GD32VW55X_Wifi_BLE_SDK/GD32VW55x_RELEASE_V1.0.2/MSDK/util/src\cyclic_buffer.c **** bool cyclic_buf_clear(cyclic_buf_t *cyclic)
 185:C:/Users/stapi/OneDrive/Desktop/GD32VW553/V1_MQTT_OK/GD32VW55X_Wifi_BLE_SDK/GD32VW55x_RELEASE_V1.0.2/MSDK/util/src\cyclic_buffer.c **** {
 544              		.loc 1 185 1 is_stmt 1
 545              		.cfi_startproc
 546              	.LVL45:
 186:C:/Users/stapi/OneDrive/Desktop/GD32VW553/V1_MQTT_OK/GD32VW55X_Wifi_BLE_SDK/GD32VW55x_RELEASE_V1.0.2/MSDK/util/src\cyclic_buffer.c ****     if (!cyclic || !cyclic->buf)
 547              		.loc 1 186 5
 548              		.loc 1 186 8 is_stmt 0
 549 0000 05C9     		beq	a0,zero,.L60
 185:C:/Users/stapi/OneDrive/Desktop/GD32VW553/V1_MQTT_OK/GD32VW55X_Wifi_BLE_SDK/GD32VW55x_RELEASE_V1.0.2/MSDK/util/src\cyclic_buffer.c ****     if (!cyclic || !cyclic->buf)
 550              		.loc 1 185 1 discriminator 1
 551 0002 17030000 		call	t0,__riscv_save_1
 551      E7020300 
 552              		.cfi_offset 8, -8
 553              		.cfi_offset 1, -4
 554              		.cfi_def_cfa_offset 16
 555 000a 2A84     		mv	s0,a0
 556              		.loc 1 186 27 discriminator 1
 557 000c 0845     		lw	a0,8(a0)
 558              	.LVL46:
 187:C:/Users/stapi/OneDrive/Desktop/GD32VW553/V1_MQTT_OK/GD32VW55X_Wifi_BLE_SDK/GD32VW55x_RELEASE_V1.0.2/MSDK/util/src\cyclic_buffer.c ****     {
 188:C:/Users/stapi/OneDrive/Desktop/GD32VW553/V1_MQTT_OK/GD32VW55X_Wifi_BLE_SDK/GD32VW55x_RELEASE_V1.0.2/MSDK/util/src\cyclic_buffer.c ****         return false;
 559              		.loc 1 188 16 discriminator 1
 560 000e 8147     		li	a5,0
 186:C:/Users/stapi/OneDrive/Desktop/GD32VW553/V1_MQTT_OK/GD32VW55X_Wifi_BLE_SDK/GD32VW55x_RELEASE_V1.0.2/MSDK/util/src\cyclic_buffer.c ****     {
 561              		.loc 1 186 17 discriminator 1
 562 0010 19C9     		beq	a0,zero,.L59
 189:C:/Users/stapi/OneDrive/Desktop/GD32VW553/V1_MQTT_OK/GD32VW55X_Wifi_BLE_SDK/GD32VW55x_RELEASE_V1.0.2/MSDK/util/src\cyclic_buffer.c ****     }
 190:C:/Users/stapi/OneDrive/Desktop/GD32VW553/V1_MQTT_OK/GD32VW55X_Wifi_BLE_SDK/GD32VW55x_RELEASE_V1.0.2/MSDK/util/src\cyclic_buffer.c **** 
 191:C:/Users/stapi/OneDrive/Desktop/GD32VW553/V1_MQTT_OK/GD32VW55X_Wifi_BLE_SDK/GD32VW55x_RELEASE_V1.0.2/MSDK/util/src\cyclic_buffer.c ****     memset(cyclic->buf, 0, cyclic->len);
 563              		.loc 1 191 5 is_stmt 1
 564 0012 03564400 		lhu	a2,4(s0)
 565 0016 8145     		li	a1,0
 566 0018 97000000 		call	memset
 566      E7800000 
 567              	.LVL47:
 192:C:/Users/stapi/OneDrive/Desktop/GD32VW553/V1_MQTT_OK/GD32VW55X_Wifi_BLE_SDK/GD32VW55x_RELEASE_V1.0.2/MSDK/util/src\cyclic_buffer.c **** 
 193:C:/Users/stapi/OneDrive/Desktop/GD32VW553/V1_MQTT_OK/GD32VW55X_Wifi_BLE_SDK/GD32VW55x_RELEASE_V1.0.2/MSDK/util/src\cyclic_buffer.c ****     cyclic->read_idx = 0;
 568              		.loc 1 193 5
 194:C:/Users/stapi/OneDrive/Desktop/GD32VW553/V1_MQTT_OK/GD32VW55X_Wifi_BLE_SDK/GD32VW55x_RELEASE_V1.0.2/MSDK/util/src\cyclic_buffer.c ****     cyclic->write_idx = 0;
 569              		.loc 1 194 5
 195:C:/Users/stapi/OneDrive/Desktop/GD32VW553/V1_MQTT_OK/GD32VW55X_Wifi_BLE_SDK/GD32VW55x_RELEASE_V1.0.2/MSDK/util/src\cyclic_buffer.c **** 
 196:C:/Users/stapi/OneDrive/Desktop/GD32VW553/V1_MQTT_OK/GD32VW55X_Wifi_BLE_SDK/GD32VW55x_RELEASE_V1.0.2/MSDK/util/src\cyclic_buffer.c ****     return true;
 570              		.loc 1 196 12 is_stmt 0
 571 0020 8547     		li	a5,1
 193:C:/Users/stapi/OneDrive/Desktop/GD32VW553/V1_MQTT_OK/GD32VW55X_Wifi_BLE_SDK/GD32VW55x_RELEASE_V1.0.2/MSDK/util/src\cyclic_buffer.c ****     cyclic->write_idx = 0;
 572              		.loc 1 193 22
 573 0022 23200400 		sw	zero,0(s0)
 574              		.loc 1 196 5 is_stmt 1
 575              	.L59:
 197:C:/Users/stapi/OneDrive/Desktop/GD32VW553/V1_MQTT_OK/GD32VW55X_Wifi_BLE_SDK/GD32VW55x_RELEASE_V1.0.2/MSDK/util/src\cyclic_buffer.c **** }
 576              		.loc 1 197 1 is_stmt 0
 577 0026 3E85     		mv	a0,a5
 578 0028 17030000 		tail	__riscv_restore_1
 578      67000300 
 579              		.cfi_restore 8
 580              		.cfi_restore 1
 581              		.cfi_def_cfa_offset 0
 582              	.LVL48:
 583              	.L60:
 188:C:/Users/stapi/OneDrive/Desktop/GD32VW553/V1_MQTT_OK/GD32VW55X_Wifi_BLE_SDK/GD32VW55x_RELEASE_V1.0.2/MSDK/util/src\cyclic_buffer.c ****     }
 584              		.loc 1 188 16
 585 0030 8147     		li	a5,0
 586              		.loc 1 197 1
 587 0032 3E85     		mv	a0,a5
 588              	.LVL49:
 589 0034 8280     		ret
 590              		.cfi_endproc
 591              	.LFE8:
 593              		.section	.text.cyclic_buf_write,"ax",@progbits
 594              		.align	1
 595              		.globl	cyclic_buf_write
 597              	cyclic_buf_write:
 598              	.LFB9:
 198:C:/Users/stapi/OneDrive/Desktop/GD32VW553/V1_MQTT_OK/GD32VW55X_Wifi_BLE_SDK/GD32VW55x_RELEASE_V1.0.2/MSDK/util/src\cyclic_buffer.c **** 
 199:C:/Users/stapi/OneDrive/Desktop/GD32VW553/V1_MQTT_OK/GD32VW55X_Wifi_BLE_SDK/GD32VW55x_RELEASE_V1.0.2/MSDK/util/src\cyclic_buffer.c **** 
 200:C:/Users/stapi/OneDrive/Desktop/GD32VW553/V1_MQTT_OK/GD32VW55X_Wifi_BLE_SDK/GD32VW55x_RELEASE_V1.0.2/MSDK/util/src\cyclic_buffer.c **** bool cyclic_buf_write(cyclic_buf_t *cyclic, uint8_t *buf, uint16_t len)
 201:C:/Users/stapi/OneDrive/Desktop/GD32VW553/V1_MQTT_OK/GD32VW55X_Wifi_BLE_SDK/GD32VW55x_RELEASE_V1.0.2/MSDK/util/src\cyclic_buffer.c **** {
 599              		.loc 1 201 1 is_stmt 1
 600              		.cfi_startproc
 601              	.LVL50:
 602 0000 17030000 		call	t0,__riscv_save_6
 602      E7020300 
 603              		.cfi_offset 21, -28
 604              		.cfi_offset 20, -24
 605              		.cfi_offset 18, -16
 606              		.cfi_offset 9, -12
 607              		.cfi_offset 8, -8
 608              		.cfi_offset 1, -4
 609              		.cfi_def_cfa_offset 32
 202:C:/Users/stapi/OneDrive/Desktop/GD32VW553/V1_MQTT_OK/GD32VW55X_Wifi_BLE_SDK/GD32VW55x_RELEASE_V1.0.2/MSDK/util/src\cyclic_buffer.c ****     if (!cyclic || !cyclic->buf)
 610              		.loc 1 202 5
 201:C:/Users/stapi/OneDrive/Desktop/GD32VW553/V1_MQTT_OK/GD32VW55X_Wifi_BLE_SDK/GD32VW55x_RELEASE_V1.0.2/MSDK/util/src\cyclic_buffer.c ****     if (!cyclic || !cyclic->buf)
 611              		.loc 1 201 1 is_stmt 0
 612 0008 4111     		addi	sp,sp,-16
 613              		.cfi_def_cfa_offset 48
 201:C:/Users/stapi/OneDrive/Desktop/GD32VW553/V1_MQTT_OK/GD32VW55X_Wifi_BLE_SDK/GD32VW55x_RELEASE_V1.0.2/MSDK/util/src\cyclic_buffer.c ****     if (!cyclic || !cyclic->buf)
 614              		.loc 1 201 1
 615 000a 2EC6     		sw	a1,12(sp)
 203:C:/Users/stapi/OneDrive/Desktop/GD32VW553/V1_MQTT_OK/GD32VW55X_Wifi_BLE_SDK/GD32VW55x_RELEASE_V1.0.2/MSDK/util/src\cyclic_buffer.c ****     {
 204:C:/Users/stapi/OneDrive/Desktop/GD32VW553/V1_MQTT_OK/GD32VW55X_Wifi_BLE_SDK/GD32VW55x_RELEASE_V1.0.2/MSDK/util/src\cyclic_buffer.c ****         return false;
 616              		.loc 1 204 16
 617 000c 8147     		li	a5,0
 202:C:/Users/stapi/OneDrive/Desktop/GD32VW553/V1_MQTT_OK/GD32VW55X_Wifi_BLE_SDK/GD32VW55x_RELEASE_V1.0.2/MSDK/util/src\cyclic_buffer.c ****     {
 618              		.loc 1 202 8
 619 000e 29CD     		beq	a0,zero,.L67
 202:C:/Users/stapi/OneDrive/Desktop/GD32VW553/V1_MQTT_OK/GD32VW55X_Wifi_BLE_SDK/GD32VW55x_RELEASE_V1.0.2/MSDK/util/src\cyclic_buffer.c ****     {
 620              		.loc 1 202 27 discriminator 1
 621 0010 032A8500 		lw	s4,8(a0)
 622 0014 2A84     		mv	s0,a0
 623              		.loc 1 204 16 discriminator 1
 624 0016 8147     		li	a5,0
 202:C:/Users/stapi/OneDrive/Desktop/GD32VW553/V1_MQTT_OK/GD32VW55X_Wifi_BLE_SDK/GD32VW55x_RELEASE_V1.0.2/MSDK/util/src\cyclic_buffer.c ****     {
 625              		.loc 1 202 17 discriminator 1
 626 0018 63080A04 		beq	s4,zero,.L67
 627 001c 3289     		mv	s2,a2
 205:C:/Users/stapi/OneDrive/Desktop/GD32VW553/V1_MQTT_OK/GD32VW55X_Wifi_BLE_SDK/GD32VW55x_RELEASE_V1.0.2/MSDK/util/src\cyclic_buffer.c ****     }
 206:C:/Users/stapi/OneDrive/Desktop/GD32VW553/V1_MQTT_OK/GD32VW55X_Wifi_BLE_SDK/GD32VW55x_RELEASE_V1.0.2/MSDK/util/src\cyclic_buffer.c **** 
 207:C:/Users/stapi/OneDrive/Desktop/GD32VW553/V1_MQTT_OK/GD32VW55X_Wifi_BLE_SDK/GD32VW55x_RELEASE_V1.0.2/MSDK/util/src\cyclic_buffer.c ****     if (cyclic_buf_room(cyclic) < len)
 628              		.loc 1 207 5 is_stmt 1
 629              		.loc 1 207 9 is_stmt 0
 630 001e 97000000 		call	cyclic_buf_room
 630      E7800000 
 631              	.LVL51:
 204:C:/Users/stapi/OneDrive/Desktop/GD32VW553/V1_MQTT_OK/GD32VW55X_Wifi_BLE_SDK/GD32VW55x_RELEASE_V1.0.2/MSDK/util/src\cyclic_buffer.c ****     }
 632              		.loc 1 204 16
 633 0026 8147     		li	a5,0
 634              		.loc 1 207 8
 635 0028 63602505 		bltu	a0,s2,.L67
 208:C:/Users/stapi/OneDrive/Desktop/GD32VW553/V1_MQTT_OK/GD32VW55X_Wifi_BLE_SDK/GD32VW55x_RELEASE_V1.0.2/MSDK/util/src\cyclic_buffer.c ****     {
 209:C:/Users/stapi/OneDrive/Desktop/GD32VW553/V1_MQTT_OK/GD32VW55X_Wifi_BLE_SDK/GD32VW55x_RELEASE_V1.0.2/MSDK/util/src\cyclic_buffer.c ****         return false;
 210:C:/Users/stapi/OneDrive/Desktop/GD32VW553/V1_MQTT_OK/GD32VW55X_Wifi_BLE_SDK/GD32VW55x_RELEASE_V1.0.2/MSDK/util/src\cyclic_buffer.c ****     }
 211:C:/Users/stapi/OneDrive/Desktop/GD32VW553/V1_MQTT_OK/GD32VW55X_Wifi_BLE_SDK/GD32VW55x_RELEASE_V1.0.2/MSDK/util/src\cyclic_buffer.c **** 
 212:C:/Users/stapi/OneDrive/Desktop/GD32VW553/V1_MQTT_OK/GD32VW55X_Wifi_BLE_SDK/GD32VW55x_RELEASE_V1.0.2/MSDK/util/src\cyclic_buffer.c ****     if (cyclic->write_idx + len <= cyclic->len)
 636              		.loc 1 212 5 is_stmt 1
 637              		.loc 1 212 15 is_stmt 0
 638 002c 83542400 		lhu	s1,2(s0)
 639              		.loc 1 212 42
 640 0030 835A4400 		lhu	s5,4(s0)
 641              		.loc 1 212 8
 642 0034 B245     		lw	a1,12(sp)
 213:C:/Users/stapi/OneDrive/Desktop/GD32VW553/V1_MQTT_OK/GD32VW55X_Wifi_BLE_SDK/GD32VW55x_RELEASE_V1.0.2/MSDK/util/src\cyclic_buffer.c ****     {
 214:C:/Users/stapi/OneDrive/Desktop/GD32VW553/V1_MQTT_OK/GD32VW55X_Wifi_BLE_SDK/GD32VW55x_RELEASE_V1.0.2/MSDK/util/src\cyclic_buffer.c ****         sys_memcpy(cyclic->buf + cyclic->write_idx, buf, len);
 643              		.loc 1 214 32
 644 0036 33059A00 		add	a0,s4,s1
 212:C:/Users/stapi/OneDrive/Desktop/GD32VW553/V1_MQTT_OK/GD32VW55X_Wifi_BLE_SDK/GD32VW55x_RELEASE_V1.0.2/MSDK/util/src\cyclic_buffer.c ****     {
 645              		.loc 1 212 27
 646 003a 338A2401 		add	s4,s1,s2
 212:C:/Users/stapi/OneDrive/Desktop/GD32VW553/V1_MQTT_OK/GD32VW55X_Wifi_BLE_SDK/GD32VW55x_RELEASE_V1.0.2/MSDK/util/src\cyclic_buffer.c ****     {
 647              		.loc 1 212 8
 648 003e 63CB4A03 		bgt	s4,s5,.L68
 649              		.loc 1 214 9 is_stmt 1
 650 0042 4A86     		mv	a2,s2
 651 0044 97000000 		call	sys_memcpy
 651      E7800000 
 652              	.LVL52:
 215:C:/Users/stapi/OneDrive/Desktop/GD32VW553/V1_MQTT_OK/GD32VW55X_Wifi_BLE_SDK/GD32VW55x_RELEASE_V1.0.2/MSDK/util/src\cyclic_buffer.c ****         cyclic->write_idx += len;
 653              		.loc 1 215 9
 654              		.loc 1 215 27 is_stmt 0
 655 004c 03562400 		lhu	a2,2(s0)
 656 0050 3299     		add	s2,s2,a2
 657 0052 23112401 		sh	s2,2(s0)
 658              	.L69:
 216:C:/Users/stapi/OneDrive/Desktop/GD32VW553/V1_MQTT_OK/GD32VW55X_Wifi_BLE_SDK/GD32VW55x_RELEASE_V1.0.2/MSDK/util/src\cyclic_buffer.c ****     }
 217:C:/Users/stapi/OneDrive/Desktop/GD32VW553/V1_MQTT_OK/GD32VW55X_Wifi_BLE_SDK/GD32VW55x_RELEASE_V1.0.2/MSDK/util/src\cyclic_buffer.c ****     else
 218:C:/Users/stapi/OneDrive/Desktop/GD32VW553/V1_MQTT_OK/GD32VW55X_Wifi_BLE_SDK/GD32VW55x_RELEASE_V1.0.2/MSDK/util/src\cyclic_buffer.c ****     {
 219:C:/Users/stapi/OneDrive/Desktop/GD32VW553/V1_MQTT_OK/GD32VW55X_Wifi_BLE_SDK/GD32VW55x_RELEASE_V1.0.2/MSDK/util/src\cyclic_buffer.c ****         uint16_t tlen = cyclic->len - cyclic->write_idx;
 220:C:/Users/stapi/OneDrive/Desktop/GD32VW553/V1_MQTT_OK/GD32VW55X_Wifi_BLE_SDK/GD32VW55x_RELEASE_V1.0.2/MSDK/util/src\cyclic_buffer.c **** 
 221:C:/Users/stapi/OneDrive/Desktop/GD32VW553/V1_MQTT_OK/GD32VW55X_Wifi_BLE_SDK/GD32VW55x_RELEASE_V1.0.2/MSDK/util/src\cyclic_buffer.c ****         sys_memcpy(cyclic->buf + cyclic->write_idx, buf, tlen);
 222:C:/Users/stapi/OneDrive/Desktop/GD32VW553/V1_MQTT_OK/GD32VW55X_Wifi_BLE_SDK/GD32VW55x_RELEASE_V1.0.2/MSDK/util/src\cyclic_buffer.c ****         sys_memcpy(cyclic->buf, buf + tlen, len - tlen);
 223:C:/Users/stapi/OneDrive/Desktop/GD32VW553/V1_MQTT_OK/GD32VW55X_Wifi_BLE_SDK/GD32VW55x_RELEASE_V1.0.2/MSDK/util/src\cyclic_buffer.c ****         cyclic->write_idx = len - tlen;
 224:C:/Users/stapi/OneDrive/Desktop/GD32VW553/V1_MQTT_OK/GD32VW55X_Wifi_BLE_SDK/GD32VW55x_RELEASE_V1.0.2/MSDK/util/src\cyclic_buffer.c ****     }
 225:C:/Users/stapi/OneDrive/Desktop/GD32VW553/V1_MQTT_OK/GD32VW55X_Wifi_BLE_SDK/GD32VW55x_RELEASE_V1.0.2/MSDK/util/src\cyclic_buffer.c **** 
 226:C:/Users/stapi/OneDrive/Desktop/GD32VW553/V1_MQTT_OK/GD32VW55X_Wifi_BLE_SDK/GD32VW55x_RELEASE_V1.0.2/MSDK/util/src\cyclic_buffer.c ****     cyclic->write_idx %= cyclic->len;
 659              		.loc 1 226 5 is_stmt 1
 660              		.loc 1 226 23 is_stmt 0
 661 0056 83572400 		lhu	a5,2(s0)
 662 005a 03574400 		lhu	a4,4(s0)
 663 005e B3F7E702 		remu	a5,a5,a4
 664 0062 2311F400 		sh	a5,2(s0)
 227:C:/Users/stapi/OneDrive/Desktop/GD32VW553/V1_MQTT_OK/GD32VW55X_Wifi_BLE_SDK/GD32VW55x_RELEASE_V1.0.2/MSDK/util/src\cyclic_buffer.c **** 
 228:C:/Users/stapi/OneDrive/Desktop/GD32VW553/V1_MQTT_OK/GD32VW55X_Wifi_BLE_SDK/GD32VW55x_RELEASE_V1.0.2/MSDK/util/src\cyclic_buffer.c ****     return true;
 665              		.loc 1 228 5 is_stmt 1
 666              		.loc 1 228 12 is_stmt 0
 667 0066 8547     		li	a5,1
 668              	.LVL53:
 669              	.L67:
 229:C:/Users/stapi/OneDrive/Desktop/GD32VW553/V1_MQTT_OK/GD32VW55X_Wifi_BLE_SDK/GD32VW55x_RELEASE_V1.0.2/MSDK/util/src\cyclic_buffer.c **** }
 670              		.loc 1 229 1
 671 0068 3E85     		mv	a0,a5
 672 006a 4101     		addi	sp,sp,16
 673              		.cfi_remember_state
 674              		.cfi_def_cfa_offset 0
 675              	.LVL54:
 676 006c 17030000 		tail	__riscv_restore_6
 676      67000300 
 677              		.cfi_restore 21
 678              		.cfi_restore 20
 679              		.cfi_restore 18
 680              		.cfi_restore 9
 681              		.cfi_restore 8
 682              		.cfi_restore 1
 683              		.cfi_def_cfa_offset -32
 684              	.LVL55:
 685              	.L68:
 686              		.cfi_restore_state
 687              	.LBB14:
 219:C:/Users/stapi/OneDrive/Desktop/GD32VW553/V1_MQTT_OK/GD32VW55X_Wifi_BLE_SDK/GD32VW55x_RELEASE_V1.0.2/MSDK/util/src\cyclic_buffer.c **** 
 688              		.loc 1 219 9 is_stmt 1
 219:C:/Users/stapi/OneDrive/Desktop/GD32VW553/V1_MQTT_OK/GD32VW55X_Wifi_BLE_SDK/GD32VW55x_RELEASE_V1.0.2/MSDK/util/src\cyclic_buffer.c **** 
 689              		.loc 1 219 18 is_stmt 0
 690 0074 B3849A40 		sub	s1,s5,s1
 691 0078 B3C40408 		zext.h	s1,s1
 692              	.LVL56:
 221:C:/Users/stapi/OneDrive/Desktop/GD32VW553/V1_MQTT_OK/GD32VW55X_Wifi_BLE_SDK/GD32VW55x_RELEASE_V1.0.2/MSDK/util/src\cyclic_buffer.c ****         sys_memcpy(cyclic->buf, buf + tlen, len - tlen);
 693              		.loc 1 221 9 is_stmt 1
 694 007c 2686     		mv	a2,s1
 695 007e 2EC6     		sw	a1,12(sp)
 696 0080 97000000 		call	sys_memcpy
 696      E7800000 
 697              	.LVL57:
 222:C:/Users/stapi/OneDrive/Desktop/GD32VW553/V1_MQTT_OK/GD32VW55X_Wifi_BLE_SDK/GD32VW55x_RELEASE_V1.0.2/MSDK/util/src\cyclic_buffer.c ****         cyclic->write_idx = len - tlen;
 698              		.loc 1 222 9
 699 0088 B245     		lw	a1,12(sp)
 700 008a 0844     		lw	a0,8(s0)
 701 008c 33069940 		sub	a2,s2,s1
 702 0090 A695     		add	a1,a1,s1
 223:C:/Users/stapi/OneDrive/Desktop/GD32VW553/V1_MQTT_OK/GD32VW55X_Wifi_BLE_SDK/GD32VW55x_RELEASE_V1.0.2/MSDK/util/src\cyclic_buffer.c ****     }
 703              		.loc 1 223 33 is_stmt 0
 704 0092 330A5A41 		sub	s4,s4,s5
 222:C:/Users/stapi/OneDrive/Desktop/GD32VW553/V1_MQTT_OK/GD32VW55X_Wifi_BLE_SDK/GD32VW55x_RELEASE_V1.0.2/MSDK/util/src\cyclic_buffer.c ****         cyclic->write_idx = len - tlen;
 705              		.loc 1 222 9
 706 0096 97000000 		call	sys_memcpy
 706      E7800000 
 707              	.LVL58:
 223:C:/Users/stapi/OneDrive/Desktop/GD32VW553/V1_MQTT_OK/GD32VW55X_Wifi_BLE_SDK/GD32VW55x_RELEASE_V1.0.2/MSDK/util/src\cyclic_buffer.c ****     }
 708              		.loc 1 223 9 is_stmt 1
 223:C:/Users/stapi/OneDrive/Desktop/GD32VW553/V1_MQTT_OK/GD32VW55X_Wifi_BLE_SDK/GD32VW55x_RELEASE_V1.0.2/MSDK/util/src\cyclic_buffer.c ****     }
 709              		.loc 1 223 27 is_stmt 0
 710 009e 23114401 		sh	s4,2(s0)
 711 00a2 55BF     		j	.L69
 712              	.LBE14:
 713              		.cfi_endproc
 714              	.LFE9:
 716              		.text
 717              	.Letext0:
 718              		.file 2 "c:\\users\\stapi\\onedrive\\desktop\\gd32vw553\\embeddedbuilder_v1.4.7.26843\\tools\\nucl
 719              		.file 3 "c:\\users\\stapi\\onedrive\\desktop\\gd32vw553\\embeddedbuilder_v1.4.7.26843\\tools\\nucl
 720              		.file 4 "..\\..\\..\\..\\util\\include/cyclic_buffer.h"
 721              		.file 5 "..\\..\\..\\..\\rtos\\rtos_wrapper/wrapper_os.h"
 722              		.file 6 "<built-in>"
DEFINED SYMBOLS
                            *ABS*:0000000000000000 cyclic_buffer.c
C:\Users\stapi\AppData\Local\Temp\cc328Llo.s:13     .text.cyclic_buf_init:0000000000000000 cyclic_buf_init
C:\Users\stapi\AppData\Local\Temp\cc328Llo.s:17     .text.cyclic_buf_init:0000000000000000 .L0 
C:\Users\stapi\AppData\Local\Temp\cc328Llo.s:19     .text.cyclic_buf_init:0000000000000000 .L0 
C:\Users\stapi\AppData\Local\Temp\cc328Llo.s:20     .text.cyclic_buf_init:0000000000000008 .L0 
C:\Users\stapi\AppData\Local\Temp\cc328Llo.s:21     .text.cyclic_buf_init:0000000000000008 .L0 
C:\Users\stapi\AppData\Local\Temp\cc328Llo.s:22     .text.cyclic_buf_init:0000000000000008 .L0 
C:\Users\stapi\AppData\Local\Temp\cc328Llo.s:24     .text.cyclic_buf_init:0000000000000008 .L0 
C:\Users\stapi\AppData\Local\Temp\cc328Llo.s:25     .text.cyclic_buf_init:0000000000000008 .L0 
C:\Users\stapi\AppData\Local\Temp\cc328Llo.s:27     .text.cyclic_buf_init:000000000000000a .L0 
C:\Users\stapi\AppData\Local\Temp\cc328Llo.s:30     .text.cyclic_buf_init:000000000000000c .L0 
C:\Users\stapi\AppData\Local\Temp\cc328Llo.s:33     .text.cyclic_buf_init:0000000000000010 .L0 
C:\Users\stapi\AppData\Local\Temp\cc328Llo.s:34     .text.cyclic_buf_init:0000000000000010 .L0 
C:\Users\stapi\AppData\Local\Temp\cc328Llo.s:35     .text.cyclic_buf_init:0000000000000010 .L0 
C:\Users\stapi\AppData\Local\Temp\cc328Llo.s:37     .text.cyclic_buf_init:0000000000000014 .L0 
C:\Users\stapi\AppData\Local\Temp\cc328Llo.s:39     .text.cyclic_buf_init:0000000000000018 .L0 
C:\Users\stapi\AppData\Local\Temp\cc328Llo.s:40     .text.cyclic_buf_init:0000000000000018 .L0 
C:\Users\stapi\AppData\Local\Temp\cc328Llo.s:41     .text.cyclic_buf_init:0000000000000018 .L0 
C:\Users\stapi\AppData\Local\Temp\cc328Llo.s:46     .text.cyclic_buf_init:0000000000000022 .L0 
C:\Users\stapi\AppData\Local\Temp\cc328Llo.s:48     .text.cyclic_buf_init:0000000000000024 .L0 
C:\Users\stapi\AppData\Local\Temp\cc328Llo.s:49     .text.cyclic_buf_init:0000000000000024 .L0 
C:\Users\stapi\AppData\Local\Temp\cc328Llo.s:52     .text.cyclic_buf_init:0000000000000028 .L0 
C:\Users\stapi\AppData\Local\Temp\cc328Llo.s:53     .text.cyclic_buf_init:0000000000000030 .L0 
C:\Users\stapi\AppData\Local\Temp\cc328Llo.s:54     .text.cyclic_buf_init:0000000000000030 .L0 
C:\Users\stapi\AppData\Local\Temp\cc328Llo.s:55     .text.cyclic_buf_init:0000000000000030 .L0 
C:\Users\stapi\AppData\Local\Temp\cc328Llo.s:56     .text.cyclic_buf_init:0000000000000030 .L0 
C:\Users\stapi\AppData\Local\Temp\cc328Llo.s:63     .text.cyclic_buf_free:0000000000000000 cyclic_buf_free
C:\Users\stapi\AppData\Local\Temp\cc328Llo.s:66     .text.cyclic_buf_free:0000000000000000 .L0 
C:\Users\stapi\AppData\Local\Temp\cc328Llo.s:68     .text.cyclic_buf_free:0000000000000000 .L0 
C:\Users\stapi\AppData\Local\Temp\cc328Llo.s:69     .text.cyclic_buf_free:0000000000000000 .L0 
C:\Users\stapi\AppData\Local\Temp\cc328Llo.s:70     .text.cyclic_buf_free:0000000000000000 .L0 
C:\Users\stapi\AppData\Local\Temp\cc328Llo.s:72     .text.cyclic_buf_free:0000000000000002 .L0 
C:\Users\stapi\AppData\Local\Temp\cc328Llo.s:73     .text.cyclic_buf_free:000000000000000a .L0 
C:\Users\stapi\AppData\Local\Temp\cc328Llo.s:74     .text.cyclic_buf_free:000000000000000a .L0 
C:\Users\stapi\AppData\Local\Temp\cc328Llo.s:75     .text.cyclic_buf_free:000000000000000a .L0 
C:\Users\stapi\AppData\Local\Temp\cc328Llo.s:78     .text.cyclic_buf_free:000000000000000c .L0 
C:\Users\stapi\AppData\Local\Temp\cc328Llo.s:79     .text.cyclic_buf_free:000000000000000c .L0 
C:\Users\stapi\AppData\Local\Temp\cc328Llo.s:82     .text.cyclic_buf_free:000000000000000e .L0 
C:\Users\stapi\AppData\Local\Temp\cc328Llo.s:84     .text.cyclic_buf_free:0000000000000010 .L0 
C:\Users\stapi\AppData\Local\Temp\cc328Llo.s:88     .text.cyclic_buf_free:0000000000000018 .L0 
C:\Users\stapi\AppData\Local\Temp\cc328Llo.s:89     .text.cyclic_buf_free:0000000000000018 .L0 
C:\Users\stapi\AppData\Local\Temp\cc328Llo.s:90     .text.cyclic_buf_free:0000000000000018 .L0 
C:\Users\stapi\AppData\Local\Temp\cc328Llo.s:91     .text.cyclic_buf_free:0000000000000018 .L0 
C:\Users\stapi\AppData\Local\Temp\cc328Llo.s:93     .text.cyclic_buf_free:000000000000001c .L0 
C:\Users\stapi\AppData\Local\Temp\cc328Llo.s:95     .text.cyclic_buf_free:0000000000000020 .L0 
C:\Users\stapi\AppData\Local\Temp\cc328Llo.s:96     .text.cyclic_buf_free:0000000000000020 .L0 
C:\Users\stapi\AppData\Local\Temp\cc328Llo.s:98     .text.cyclic_buf_free:0000000000000024 .L0 
C:\Users\stapi\AppData\Local\Temp\cc328Llo.s:99     .text.cyclic_buf_free:000000000000002c .L0 
C:\Users\stapi\AppData\Local\Temp\cc328Llo.s:100    .text.cyclic_buf_free:000000000000002c .L0 
C:\Users\stapi\AppData\Local\Temp\cc328Llo.s:101    .text.cyclic_buf_free:000000000000002c .L0 
C:\Users\stapi\AppData\Local\Temp\cc328Llo.s:105    .text.cyclic_buf_free:000000000000002e .L0 
C:\Users\stapi\AppData\Local\Temp\cc328Llo.s:112    .text.cyclic_buf_count:0000000000000000 cyclic_buf_count
C:\Users\stapi\AppData\Local\Temp\cc328Llo.s:115    .text.cyclic_buf_count:0000000000000000 .L0 
C:\Users\stapi\AppData\Local\Temp\cc328Llo.s:117    .text.cyclic_buf_count:0000000000000000 .L0 
C:\Users\stapi\AppData\Local\Temp\cc328Llo.s:118    .text.cyclic_buf_count:0000000000000000 .L0 
C:\Users\stapi\AppData\Local\Temp\cc328Llo.s:119    .text.cyclic_buf_count:0000000000000000 .L0 
C:\Users\stapi\AppData\Local\Temp\cc328Llo.s:121    .text.cyclic_buf_count:0000000000000002 .L0 
C:\Users\stapi\AppData\Local\Temp\cc328Llo.s:123    .text.cyclic_buf_count:0000000000000004 .L0 
C:\Users\stapi\AppData\Local\Temp\cc328Llo.s:125    .text.cyclic_buf_count:0000000000000006 .L0 
C:\Users\stapi\AppData\Local\Temp\cc328Llo.s:128    .text.cyclic_buf_count:0000000000000008 .L0 
C:\Users\stapi\AppData\Local\Temp\cc328Llo.s:133    .text.cyclic_buf_count:000000000000000a .L0 
C:\Users\stapi\AppData\Local\Temp\cc328Llo.s:134    .text.cyclic_buf_count:000000000000000a .L0 
C:\Users\stapi\AppData\Local\Temp\cc328Llo.s:136    .text.cyclic_buf_count:000000000000000e .L0 
C:\Users\stapi\AppData\Local\Temp\cc328Llo.s:138    .text.cyclic_buf_count:0000000000000012 .L0 
C:\Users\stapi\AppData\Local\Temp\cc328Llo.s:140    .text.cyclic_buf_count:0000000000000016 .L0 
C:\Users\stapi\AppData\Local\Temp\cc328Llo.s:142    .text.cyclic_buf_count:0000000000000018 .L0 
C:\Users\stapi\AppData\Local\Temp\cc328Llo.s:144    .text.cyclic_buf_count:000000000000001c .L0 
C:\Users\stapi\AppData\Local\Temp\cc328Llo.s:153    .text.cyclic_buf_count:0000000000000026 .L0 
C:\Users\stapi\AppData\Local\Temp\cc328Llo.s:157    .text.cyclic_buf_count:0000000000000028 .L0 
C:\Users\stapi\AppData\Local\Temp\cc328Llo.s:158    .text.cyclic_buf_count:000000000000002a .L0 
C:\Users\stapi\AppData\Local\Temp\cc328Llo.s:165    .text.cyclic_buf_room:0000000000000000 cyclic_buf_room
C:\Users\stapi\AppData\Local\Temp\cc328Llo.s:168    .text.cyclic_buf_room:0000000000000000 .L0 
C:\Users\stapi\AppData\Local\Temp\cc328Llo.s:170    .text.cyclic_buf_room:0000000000000000 .L0 
C:\Users\stapi\AppData\Local\Temp\cc328Llo.s:171    .text.cyclic_buf_room:0000000000000000 .L0 
C:\Users\stapi\AppData\Local\Temp\cc328Llo.s:172    .text.cyclic_buf_room:0000000000000000 .L0 
C:\Users\stapi\AppData\Local\Temp\cc328Llo.s:174    .text.cyclic_buf_room:0000000000000002 .L0 
C:\Users\stapi\AppData\Local\Temp\cc328Llo.s:176    .text.cyclic_buf_room:0000000000000004 .L0 
C:\Users\stapi\AppData\Local\Temp\cc328Llo.s:178    .text.cyclic_buf_room:0000000000000006 .L0 
C:\Users\stapi\AppData\Local\Temp\cc328Llo.s:181    .text.cyclic_buf_room:0000000000000008 .L0 
C:\Users\stapi\AppData\Local\Temp\cc328Llo.s:186    .text.cyclic_buf_room:000000000000000a .L0 
C:\Users\stapi\AppData\Local\Temp\cc328Llo.s:187    .text.cyclic_buf_room:000000000000000a .L0 
C:\Users\stapi\AppData\Local\Temp\cc328Llo.s:189    .text.cyclic_buf_room:000000000000000e .L0 
C:\Users\stapi\AppData\Local\Temp\cc328Llo.s:191    .text.cyclic_buf_room:0000000000000012 .L0 
C:\Users\stapi\AppData\Local\Temp\cc328Llo.s:193    .text.cyclic_buf_room:0000000000000016 .L0 
C:\Users\stapi\AppData\Local\Temp\cc328Llo.s:195    .text.cyclic_buf_room:0000000000000018 .L0 
C:\Users\stapi\AppData\Local\Temp\cc328Llo.s:197    .text.cyclic_buf_room:000000000000001a .L0 
C:\Users\stapi\AppData\Local\Temp\cc328Llo.s:199    .text.cyclic_buf_room:000000000000001e .L0 
C:\Users\stapi\AppData\Local\Temp\cc328Llo.s:208    .text.cyclic_buf_room:0000000000000028 .L0 
C:\Users\stapi\AppData\Local\Temp\cc328Llo.s:212    .text.cyclic_buf_room:000000000000002a .L0 
C:\Users\stapi\AppData\Local\Temp\cc328Llo.s:213    .text.cyclic_buf_room:000000000000002c .L0 
C:\Users\stapi\AppData\Local\Temp\cc328Llo.s:220    .text.cyclic_buf_peek:0000000000000000 cyclic_buf_peek
C:\Users\stapi\AppData\Local\Temp\cc328Llo.s:223    .text.cyclic_buf_peek:0000000000000000 .L0 
C:\Users\stapi\AppData\Local\Temp\cc328Llo.s:225    .text.cyclic_buf_peek:0000000000000000 .L0 
C:\Users\stapi\AppData\Local\Temp\cc328Llo.s:226    .text.cyclic_buf_peek:0000000000000000 .L0 
C:\Users\stapi\AppData\Local\Temp\cc328Llo.s:227    .text.cyclic_buf_peek:0000000000000000 .L0 
C:\Users\stapi\AppData\Local\Temp\cc328Llo.s:229    .text.cyclic_buf_peek:0000000000000002 .L0 
C:\Users\stapi\AppData\Local\Temp\cc328Llo.s:230    .text.cyclic_buf_peek:000000000000000a .L0 
C:\Users\stapi\AppData\Local\Temp\cc328Llo.s:231    .text.cyclic_buf_peek:000000000000000a .L0 
C:\Users\stapi\AppData\Local\Temp\cc328Llo.s:232    .text.cyclic_buf_peek:000000000000000a .L0 
C:\Users\stapi\AppData\Local\Temp\cc328Llo.s:233    .text.cyclic_buf_peek:000000000000000a .L0 
C:\Users\stapi\AppData\Local\Temp\cc328Llo.s:234    .text.cyclic_buf_peek:000000000000000a .L0 
C:\Users\stapi\AppData\Local\Temp\cc328Llo.s:235    .text.cyclic_buf_peek:000000000000000a .L0 
C:\Users\stapi\AppData\Local\Temp\cc328Llo.s:236    .text.cyclic_buf_peek:000000000000000a .L0 
C:\Users\stapi\AppData\Local\Temp\cc328Llo.s:238    .text.cyclic_buf_peek:000000000000000a .L0 
C:\Users\stapi\AppData\Local\Temp\cc328Llo.s:241    .text.cyclic_buf_peek:0000000000000010 .L0 
C:\Users\stapi\AppData\Local\Temp\cc328Llo.s:243    .text.cyclic_buf_peek:0000000000000012 .L0 
C:\Users\stapi\AppData\Local\Temp\cc328Llo.s:247    .text.cyclic_buf_peek:000000000000001a .L0 
C:\Users\stapi\AppData\Local\Temp\cc328Llo.s:248    .text.cyclic_buf_peek:000000000000001a .L0 
C:\Users\stapi\AppData\Local\Temp\cc328Llo.s:251    .text.cyclic_buf_peek:0000000000000022 .L0 
C:\Users\stapi\AppData\Local\Temp\cc328Llo.s:253    .text.cyclic_buf_peek:0000000000000024 .L0 
C:\Users\stapi\AppData\Local\Temp\cc328Llo.s:255    .text.cyclic_buf_peek:0000000000000028 .L0 
C:\Users\stapi\AppData\Local\Temp\cc328Llo.s:256    .text.cyclic_buf_peek:0000000000000028 .L0 
C:\Users\stapi\AppData\Local\Temp\cc328Llo.s:258    .text.cyclic_buf_peek:000000000000002c .L0 
C:\Users\stapi\AppData\Local\Temp\cc328Llo.s:260    .text.cyclic_buf_peek:0000000000000030 .L0 
C:\Users\stapi\AppData\Local\Temp\cc328Llo.s:262    .text.cyclic_buf_peek:0000000000000034 .L0 
C:\Users\stapi\AppData\Local\Temp\cc328Llo.s:264    .text.cyclic_buf_peek:0000000000000038 .L0 
C:\Users\stapi\AppData\Local\Temp\cc328Llo.s:266    .text.cyclic_buf_peek:000000000000003c .L0 
C:\Users\stapi\AppData\Local\Temp\cc328Llo.s:271    .text.cyclic_buf_peek:0000000000000040 .L0 
C:\Users\stapi\AppData\Local\Temp\cc328Llo.s:275    .text.cyclic_buf_peek:0000000000000048 .L0 
C:\Users\stapi\AppData\Local\Temp\cc328Llo.s:279    .text.cyclic_buf_peek:000000000000004a .L0 
C:\Users\stapi\AppData\Local\Temp\cc328Llo.s:281    .text.cyclic_buf_peek:0000000000000054 .L0 
C:\Users\stapi\AppData\Local\Temp\cc328Llo.s:282    .text.cyclic_buf_peek:0000000000000054 .L0 
C:\Users\stapi\AppData\Local\Temp\cc328Llo.s:283    .text.cyclic_buf_peek:0000000000000054 .L0 
C:\Users\stapi\AppData\Local\Temp\cc328Llo.s:284    .text.cyclic_buf_peek:0000000000000054 .L0 
C:\Users\stapi\AppData\Local\Temp\cc328Llo.s:285    .text.cyclic_buf_peek:0000000000000054 .L0 
C:\Users\stapi\AppData\Local\Temp\cc328Llo.s:286    .text.cyclic_buf_peek:0000000000000054 .L0 
C:\Users\stapi\AppData\Local\Temp\cc328Llo.s:287    .text.cyclic_buf_peek:0000000000000054 .L0 
C:\Users\stapi\AppData\Local\Temp\cc328Llo.s:288    .text.cyclic_buf_peek:0000000000000054 .L0 
C:\Users\stapi\AppData\Local\Temp\cc328Llo.s:291    .text.cyclic_buf_peek:0000000000000054 .L0 
C:\Users\stapi\AppData\Local\Temp\cc328Llo.s:294    .text.cyclic_buf_peek:0000000000000054 .L0 
C:\Users\stapi\AppData\Local\Temp\cc328Llo.s:295    .text.cyclic_buf_peek:0000000000000054 .L0 
C:\Users\stapi\AppData\Local\Temp\cc328Llo.s:299    .text.cyclic_buf_peek:000000000000005a .L0 
C:\Users\stapi\AppData\Local\Temp\cc328Llo.s:304    .text.cyclic_buf_peek:0000000000000066 .L0 
C:\Users\stapi\AppData\Local\Temp\cc328Llo.s:310    .text.cyclic_buf_peek:0000000000000072 .L0 
C:\Users\stapi\AppData\Local\Temp\cc328Llo.s:311    .text.cyclic_buf_peek:0000000000000072 .L0 
C:\Users\stapi\AppData\Local\Temp\cc328Llo.s:312    .text.cyclic_buf_peek:0000000000000072 .L0 
C:\Users\stapi\AppData\Local\Temp\cc328Llo.s:313    .text.cyclic_buf_peek:0000000000000072 .L0 
C:\Users\stapi\AppData\Local\Temp\cc328Llo.s:314    .text.cyclic_buf_peek:0000000000000072 .L0 
C:\Users\stapi\AppData\Local\Temp\cc328Llo.s:315    .text.cyclic_buf_peek:0000000000000072 .L0 
C:\Users\stapi\AppData\Local\Temp\cc328Llo.s:316    .text.cyclic_buf_peek:0000000000000072 .L0 
C:\Users\stapi\AppData\Local\Temp\cc328Llo.s:319    .text.cyclic_buf_peek:0000000000000072 .L0 
C:\Users\stapi\AppData\Local\Temp\cc328Llo.s:321    .text.cyclic_buf_peek:0000000000000074 .L0 
C:\Users\stapi\AppData\Local\Temp\cc328Llo.s:324    .text.cyclic_buf_peek:0000000000000078 .L0 
C:\Users\stapi\AppData\Local\Temp\cc328Llo.s:331    .text.cyclic_buf_read:0000000000000000 cyclic_buf_read
C:\Users\stapi\AppData\Local\Temp\cc328Llo.s:334    .text.cyclic_buf_read:0000000000000000 .L0 
C:\Users\stapi\AppData\Local\Temp\cc328Llo.s:336    .text.cyclic_buf_read:0000000000000000 .L0 
C:\Users\stapi\AppData\Local\Temp\cc328Llo.s:337    .text.cyclic_buf_read:0000000000000000 .L0 
C:\Users\stapi\AppData\Local\Temp\cc328Llo.s:338    .text.cyclic_buf_read:0000000000000000 .L0 
C:\Users\stapi\AppData\Local\Temp\cc328Llo.s:340    .text.cyclic_buf_read:0000000000000002 .L0 
C:\Users\stapi\AppData\Local\Temp\cc328Llo.s:341    .text.cyclic_buf_read:000000000000000a .L0 
C:\Users\stapi\AppData\Local\Temp\cc328Llo.s:342    .text.cyclic_buf_read:000000000000000a .L0 
C:\Users\stapi\AppData\Local\Temp\cc328Llo.s:343    .text.cyclic_buf_read:000000000000000a .L0 
C:\Users\stapi\AppData\Local\Temp\cc328Llo.s:344    .text.cyclic_buf_read:000000000000000a .L0 
C:\Users\stapi\AppData\Local\Temp\cc328Llo.s:345    .text.cyclic_buf_read:000000000000000a .L0 
C:\Users\stapi\AppData\Local\Temp\cc328Llo.s:346    .text.cyclic_buf_read:000000000000000a .L0 
C:\Users\stapi\AppData\Local\Temp\cc328Llo.s:347    .text.cyclic_buf_read:000000000000000a .L0 
C:\Users\stapi\AppData\Local\Temp\cc328Llo.s:348    .text.cyclic_buf_read:000000000000000a .L0 
C:\Users\stapi\AppData\Local\Temp\cc328Llo.s:350    .text.cyclic_buf_read:000000000000000a .L0 
C:\Users\stapi\AppData\Local\Temp\cc328Llo.s:353    .text.cyclic_buf_read:0000000000000010 .L0 
C:\Users\stapi\AppData\Local\Temp\cc328Llo.s:355    .text.cyclic_buf_read:0000000000000012 .L0 
C:\Users\stapi\AppData\Local\Temp\cc328Llo.s:359    .text.cyclic_buf_read:000000000000001a .L0 
C:\Users\stapi\AppData\Local\Temp\cc328Llo.s:360    .text.cyclic_buf_read:000000000000001a .L0 
C:\Users\stapi\AppData\Local\Temp\cc328Llo.s:363    .text.cyclic_buf_read:0000000000000022 .L0 
C:\Users\stapi\AppData\Local\Temp\cc328Llo.s:365    .text.cyclic_buf_read:0000000000000024 .L0 
C:\Users\stapi\AppData\Local\Temp\cc328Llo.s:367    .text.cyclic_buf_read:0000000000000028 .L0 
C:\Users\stapi\AppData\Local\Temp\cc328Llo.s:368    .text.cyclic_buf_read:0000000000000028 .L0 
C:\Users\stapi\AppData\Local\Temp\cc328Llo.s:370    .text.cyclic_buf_read:000000000000002c .L0 
C:\Users\stapi\AppData\Local\Temp\cc328Llo.s:372    .text.cyclic_buf_read:0000000000000030 .L0 
C:\Users\stapi\AppData\Local\Temp\cc328Llo.s:374    .text.cyclic_buf_read:0000000000000034 .L0 
C:\Users\stapi\AppData\Local\Temp\cc328Llo.s:376    .text.cyclic_buf_read:0000000000000038 .L0 
C:\Users\stapi\AppData\Local\Temp\cc328Llo.s:378    .text.cyclic_buf_read:000000000000003c .L0 
C:\Users\stapi\AppData\Local\Temp\cc328Llo.s:383    .text.cyclic_buf_read:0000000000000048 .L0 
C:\Users\stapi\AppData\Local\Temp\cc328Llo.s:384    .text.cyclic_buf_read:0000000000000048 .L0 
C:\Users\stapi\AppData\Local\Temp\cc328Llo.s:389    .text.cyclic_buf_read:0000000000000052 .L0 
C:\Users\stapi\AppData\Local\Temp\cc328Llo.s:390    .text.cyclic_buf_read:0000000000000052 .L0 
C:\Users\stapi\AppData\Local\Temp\cc328Llo.s:395    .text.cyclic_buf_read:0000000000000062 .L0 
C:\Users\stapi\AppData\Local\Temp\cc328Llo.s:396    .text.cyclic_buf_read:0000000000000062 .L0 
C:\Users\stapi\AppData\Local\Temp\cc328Llo.s:400    .text.cyclic_buf_read:0000000000000064 .L0 
C:\Users\stapi\AppData\Local\Temp\cc328Llo.s:402    .text.cyclic_buf_read:000000000000006e .L0 
C:\Users\stapi\AppData\Local\Temp\cc328Llo.s:403    .text.cyclic_buf_read:000000000000006e .L0 
C:\Users\stapi\AppData\Local\Temp\cc328Llo.s:404    .text.cyclic_buf_read:000000000000006e .L0 
C:\Users\stapi\AppData\Local\Temp\cc328Llo.s:405    .text.cyclic_buf_read:000000000000006e .L0 
C:\Users\stapi\AppData\Local\Temp\cc328Llo.s:406    .text.cyclic_buf_read:000000000000006e .L0 
C:\Users\stapi\AppData\Local\Temp\cc328Llo.s:407    .text.cyclic_buf_read:000000000000006e .L0 
C:\Users\stapi\AppData\Local\Temp\cc328Llo.s:408    .text.cyclic_buf_read:000000000000006e .L0 
C:\Users\stapi\AppData\Local\Temp\cc328Llo.s:409    .text.cyclic_buf_read:000000000000006e .L0 
C:\Users\stapi\AppData\Local\Temp\cc328Llo.s:410    .text.cyclic_buf_read:000000000000006e .L0 
C:\Users\stapi\AppData\Local\Temp\cc328Llo.s:413    .text.cyclic_buf_read:000000000000006e .L0 
C:\Users\stapi\AppData\Local\Temp\cc328Llo.s:416    .text.cyclic_buf_read:000000000000006e .L0 
C:\Users\stapi\AppData\Local\Temp\cc328Llo.s:417    .text.cyclic_buf_read:000000000000006e .L0 
C:\Users\stapi\AppData\Local\Temp\cc328Llo.s:421    .text.cyclic_buf_read:0000000000000076 .L0 
C:\Users\stapi\AppData\Local\Temp\cc328Llo.s:426    .text.cyclic_buf_read:0000000000000082 .L0 
C:\Users\stapi\AppData\Local\Temp\cc328Llo.s:430    .text.cyclic_buf_read:000000000000008c .L0 
C:\Users\stapi\AppData\Local\Temp\cc328Llo.s:432    .text.cyclic_buf_read:0000000000000090 .L0 
C:\Users\stapi\AppData\Local\Temp\cc328Llo.s:435    .text.cyclic_buf_read:0000000000000098 .L0 
C:\Users\stapi\AppData\Local\Temp\cc328Llo.s:436    .text.cyclic_buf_read:0000000000000098 .L0 
C:\Users\stapi\AppData\Local\Temp\cc328Llo.s:440    .text.cyclic_buf_read:000000000000009e .L0 
C:\Users\stapi\AppData\Local\Temp\cc328Llo.s:441    .text.cyclic_buf_read:000000000000009e .L0 
C:\Users\stapi\AppData\Local\Temp\cc328Llo.s:442    .text.cyclic_buf_read:000000000000009e .L0 
C:\Users\stapi\AppData\Local\Temp\cc328Llo.s:443    .text.cyclic_buf_read:000000000000009e .L0 
C:\Users\stapi\AppData\Local\Temp\cc328Llo.s:444    .text.cyclic_buf_read:000000000000009e .L0 
C:\Users\stapi\AppData\Local\Temp\cc328Llo.s:445    .text.cyclic_buf_read:000000000000009e .L0 
C:\Users\stapi\AppData\Local\Temp\cc328Llo.s:446    .text.cyclic_buf_read:000000000000009e .L0 
C:\Users\stapi\AppData\Local\Temp\cc328Llo.s:447    .text.cyclic_buf_read:000000000000009e .L0 
C:\Users\stapi\AppData\Local\Temp\cc328Llo.s:450    .text.cyclic_buf_read:000000000000009e .L0 
C:\Users\stapi\AppData\Local\Temp\cc328Llo.s:452    .text.cyclic_buf_read:00000000000000a0 .L0 
C:\Users\stapi\AppData\Local\Temp\cc328Llo.s:455    .text.cyclic_buf_read:00000000000000a4 .L0 
C:\Users\stapi\AppData\Local\Temp\cc328Llo.s:462    .text.cyclic_buf_drop:0000000000000000 cyclic_buf_drop
C:\Users\stapi\AppData\Local\Temp\cc328Llo.s:465    .text.cyclic_buf_drop:0000000000000000 .L0 
C:\Users\stapi\AppData\Local\Temp\cc328Llo.s:467    .text.cyclic_buf_drop:0000000000000000 .L0 
C:\Users\stapi\AppData\Local\Temp\cc328Llo.s:468    .text.cyclic_buf_drop:0000000000000000 .L0 
C:\Users\stapi\AppData\Local\Temp\cc328Llo.s:469    .text.cyclic_buf_drop:0000000000000000 .L0 
C:\Users\stapi\AppData\Local\Temp\cc328Llo.s:471    .text.cyclic_buf_drop:0000000000000002 .L0 
C:\Users\stapi\AppData\Local\Temp\cc328Llo.s:472    .text.cyclic_buf_drop:000000000000000a .L0 
C:\Users\stapi\AppData\Local\Temp\cc328Llo.s:473    .text.cyclic_buf_drop:000000000000000a .L0 
C:\Users\stapi\AppData\Local\Temp\cc328Llo.s:474    .text.cyclic_buf_drop:000000000000000a .L0 
C:\Users\stapi\AppData\Local\Temp\cc328Llo.s:475    .text.cyclic_buf_drop:000000000000000a .L0 
C:\Users\stapi\AppData\Local\Temp\cc328Llo.s:477    .text.cyclic_buf_drop:000000000000000a .L0 
C:\Users\stapi\AppData\Local\Temp\cc328Llo.s:480    .text.cyclic_buf_drop:000000000000000e .L0 
C:\Users\stapi\AppData\Local\Temp\cc328Llo.s:482    .text.cyclic_buf_drop:0000000000000010 .L0 
C:\Users\stapi\AppData\Local\Temp\cc328Llo.s:485    .text.cyclic_buf_drop:0000000000000014 .L0 
C:\Users\stapi\AppData\Local\Temp\cc328Llo.s:486    .text.cyclic_buf_drop:0000000000000014 .L0 
C:\Users\stapi\AppData\Local\Temp\cc328Llo.s:489    .text.cyclic_buf_drop:000000000000001c .L0 
C:\Users\stapi\AppData\Local\Temp\cc328Llo.s:491    .text.cyclic_buf_drop:000000000000001e .L0 
C:\Users\stapi\AppData\Local\Temp\cc328Llo.s:493    .text.cyclic_buf_drop:0000000000000022 .L0 
C:\Users\stapi\AppData\Local\Temp\cc328Llo.s:494    .text.cyclic_buf_drop:0000000000000022 .L0 
C:\Users\stapi\AppData\Local\Temp\cc328Llo.s:496    .text.cyclic_buf_drop:0000000000000026 .L0 
C:\Users\stapi\AppData\Local\Temp\cc328Llo.s:498    .text.cyclic_buf_drop:000000000000002a .L0 
C:\Users\stapi\AppData\Local\Temp\cc328Llo.s:501    .text.cyclic_buf_drop:0000000000000032 .L0 
C:\Users\stapi\AppData\Local\Temp\cc328Llo.s:505    .text.cyclic_buf_drop:0000000000000036 .L0 
C:\Users\stapi\AppData\Local\Temp\cc328Llo.s:506    .text.cyclic_buf_drop:0000000000000036 .L0 
C:\Users\stapi\AppData\Local\Temp\cc328Llo.s:507    .text.cyclic_buf_drop:0000000000000036 .L0 
C:\Users\stapi\AppData\Local\Temp\cc328Llo.s:513    .text.cyclic_buf_drop:000000000000003c .L0 
C:\Users\stapi\AppData\Local\Temp\cc328Llo.s:514    .text.cyclic_buf_drop:000000000000003c .L0 
C:\Users\stapi\AppData\Local\Temp\cc328Llo.s:517    .text.cyclic_buf_drop:0000000000000044 .L0 
C:\Users\stapi\AppData\Local\Temp\cc328Llo.s:518    .text.cyclic_buf_drop:0000000000000044 .L0 
C:\Users\stapi\AppData\Local\Temp\cc328Llo.s:521    .text.cyclic_buf_drop:0000000000000046 .L0 
C:\Users\stapi\AppData\Local\Temp\cc328Llo.s:523    .text.cyclic_buf_drop:0000000000000050 .L0 
C:\Users\stapi\AppData\Local\Temp\cc328Llo.s:524    .text.cyclic_buf_drop:0000000000000050 .L0 
C:\Users\stapi\AppData\Local\Temp\cc328Llo.s:525    .text.cyclic_buf_drop:0000000000000050 .L0 
C:\Users\stapi\AppData\Local\Temp\cc328Llo.s:526    .text.cyclic_buf_drop:0000000000000050 .L0 
C:\Users\stapi\AppData\Local\Temp\cc328Llo.s:530    .text.cyclic_buf_drop:0000000000000050 .L0 
C:\Users\stapi\AppData\Local\Temp\cc328Llo.s:532    .text.cyclic_buf_drop:0000000000000052 .L0 
C:\Users\stapi\AppData\Local\Temp\cc328Llo.s:535    .text.cyclic_buf_drop:0000000000000056 .L0 
C:\Users\stapi\AppData\Local\Temp\cc328Llo.s:542    .text.cyclic_buf_clear:0000000000000000 cyclic_buf_clear
C:\Users\stapi\AppData\Local\Temp\cc328Llo.s:545    .text.cyclic_buf_clear:0000000000000000 .L0 
C:\Users\stapi\AppData\Local\Temp\cc328Llo.s:547    .text.cyclic_buf_clear:0000000000000000 .L0 
C:\Users\stapi\AppData\Local\Temp\cc328Llo.s:548    .text.cyclic_buf_clear:0000000000000000 .L0 
C:\Users\stapi\AppData\Local\Temp\cc328Llo.s:549    .text.cyclic_buf_clear:0000000000000000 .L0 
C:\Users\stapi\AppData\Local\Temp\cc328Llo.s:551    .text.cyclic_buf_clear:0000000000000002 .L0 
C:\Users\stapi\AppData\Local\Temp\cc328Llo.s:552    .text.cyclic_buf_clear:000000000000000a .L0 
C:\Users\stapi\AppData\Local\Temp\cc328Llo.s:553    .text.cyclic_buf_clear:000000000000000a .L0 
C:\Users\stapi\AppData\Local\Temp\cc328Llo.s:554    .text.cyclic_buf_clear:000000000000000a .L0 
C:\Users\stapi\AppData\Local\Temp\cc328Llo.s:557    .text.cyclic_buf_clear:000000000000000c .L0 
C:\Users\stapi\AppData\Local\Temp\cc328Llo.s:560    .text.cyclic_buf_clear:000000000000000e .L0 
C:\Users\stapi\AppData\Local\Temp\cc328Llo.s:562    .text.cyclic_buf_clear:0000000000000010 .L0 
C:\Users\stapi\AppData\Local\Temp\cc328Llo.s:564    .text.cyclic_buf_clear:0000000000000012 .L0 
C:\Users\stapi\AppData\Local\Temp\cc328Llo.s:569    .text.cyclic_buf_clear:0000000000000020 .L0 
C:\Users\stapi\AppData\Local\Temp\cc328Llo.s:570    .text.cyclic_buf_clear:0000000000000020 .L0 
C:\Users\stapi\AppData\Local\Temp\cc328Llo.s:571    .text.cyclic_buf_clear:0000000000000020 .L0 
C:\Users\stapi\AppData\Local\Temp\cc328Llo.s:573    .text.cyclic_buf_clear:0000000000000022 .L0 
C:\Users\stapi\AppData\Local\Temp\cc328Llo.s:576    .text.cyclic_buf_clear:0000000000000026 .L0 
C:\Users\stapi\AppData\Local\Temp\cc328Llo.s:577    .text.cyclic_buf_clear:0000000000000026 .L0 
C:\Users\stapi\AppData\Local\Temp\cc328Llo.s:579    .text.cyclic_buf_clear:0000000000000030 .L0 
C:\Users\stapi\AppData\Local\Temp\cc328Llo.s:580    .text.cyclic_buf_clear:0000000000000030 .L0 
C:\Users\stapi\AppData\Local\Temp\cc328Llo.s:581    .text.cyclic_buf_clear:0000000000000030 .L0 
C:\Users\stapi\AppData\Local\Temp\cc328Llo.s:585    .text.cyclic_buf_clear:0000000000000030 .L0 
C:\Users\stapi\AppData\Local\Temp\cc328Llo.s:587    .text.cyclic_buf_clear:0000000000000032 .L0 
C:\Users\stapi\AppData\Local\Temp\cc328Llo.s:590    .text.cyclic_buf_clear:0000000000000036 .L0 
C:\Users\stapi\AppData\Local\Temp\cc328Llo.s:597    .text.cyclic_buf_write:0000000000000000 cyclic_buf_write
C:\Users\stapi\AppData\Local\Temp\cc328Llo.s:600    .text.cyclic_buf_write:0000000000000000 .L0 
C:\Users\stapi\AppData\Local\Temp\cc328Llo.s:602    .text.cyclic_buf_write:0000000000000000 .L0 
C:\Users\stapi\AppData\Local\Temp\cc328Llo.s:603    .text.cyclic_buf_write:0000000000000008 .L0 
C:\Users\stapi\AppData\Local\Temp\cc328Llo.s:604    .text.cyclic_buf_write:0000000000000008 .L0 
C:\Users\stapi\AppData\Local\Temp\cc328Llo.s:605    .text.cyclic_buf_write:0000000000000008 .L0 
C:\Users\stapi\AppData\Local\Temp\cc328Llo.s:606    .text.cyclic_buf_write:0000000000000008 .L0 
C:\Users\stapi\AppData\Local\Temp\cc328Llo.s:607    .text.cyclic_buf_write:0000000000000008 .L0 
C:\Users\stapi\AppData\Local\Temp\cc328Llo.s:608    .text.cyclic_buf_write:0000000000000008 .L0 
C:\Users\stapi\AppData\Local\Temp\cc328Llo.s:609    .text.cyclic_buf_write:0000000000000008 .L0 
C:\Users\stapi\AppData\Local\Temp\cc328Llo.s:611    .text.cyclic_buf_write:0000000000000008 .L0 
C:\Users\stapi\AppData\Local\Temp\cc328Llo.s:612    .text.cyclic_buf_write:0000000000000008 .L0 
C:\Users\stapi\AppData\Local\Temp\cc328Llo.s:613    .text.cyclic_buf_write:000000000000000a .L0 
C:\Users\stapi\AppData\Local\Temp\cc328Llo.s:615    .text.cyclic_buf_write:000000000000000a .L0 
C:\Users\stapi\AppData\Local\Temp\cc328Llo.s:617    .text.cyclic_buf_write:000000000000000c .L0 
C:\Users\stapi\AppData\Local\Temp\cc328Llo.s:619    .text.cyclic_buf_write:000000000000000e .L0 
C:\Users\stapi\AppData\Local\Temp\cc328Llo.s:621    .text.cyclic_buf_write:0000000000000010 .L0 
C:\Users\stapi\AppData\Local\Temp\cc328Llo.s:624    .text.cyclic_buf_write:0000000000000016 .L0 
C:\Users\stapi\AppData\Local\Temp\cc328Llo.s:626    .text.cyclic_buf_write:0000000000000018 .L0 
C:\Users\stapi\AppData\Local\Temp\cc328Llo.s:629    .text.cyclic_buf_write:000000000000001e .L0 
C:\Users\stapi\AppData\Local\Temp\cc328Llo.s:630    .text.cyclic_buf_write:000000000000001e .L0 
C:\Users\stapi\AppData\Local\Temp\cc328Llo.s:633    .text.cyclic_buf_write:0000000000000026 .L0 
C:\Users\stapi\AppData\Local\Temp\cc328Llo.s:635    .text.cyclic_buf_write:0000000000000028 .L0 
C:\Users\stapi\AppData\Local\Temp\cc328Llo.s:637    .text.cyclic_buf_write:000000000000002c .L0 
C:\Users\stapi\AppData\Local\Temp\cc328Llo.s:638    .text.cyclic_buf_write:000000000000002c .L0 
C:\Users\stapi\AppData\Local\Temp\cc328Llo.s:640    .text.cyclic_buf_write:0000000000000030 .L0 
C:\Users\stapi\AppData\Local\Temp\cc328Llo.s:642    .text.cyclic_buf_write:0000000000000034 .L0 
C:\Users\stapi\AppData\Local\Temp\cc328Llo.s:644    .text.cyclic_buf_write:0000000000000036 .L0 
C:\Users\stapi\AppData\Local\Temp\cc328Llo.s:646    .text.cyclic_buf_write:000000000000003a .L0 
C:\Users\stapi\AppData\Local\Temp\cc328Llo.s:648    .text.cyclic_buf_write:000000000000003e .L0 
C:\Users\stapi\AppData\Local\Temp\cc328Llo.s:650    .text.cyclic_buf_write:0000000000000042 .L0 
C:\Users\stapi\AppData\Local\Temp\cc328Llo.s:654    .text.cyclic_buf_write:000000000000004c .L0 
C:\Users\stapi\AppData\Local\Temp\cc328Llo.s:655    .text.cyclic_buf_write:000000000000004c .L0 
C:\Users\stapi\AppData\Local\Temp\cc328Llo.s:660    .text.cyclic_buf_write:0000000000000056 .L0 
C:\Users\stapi\AppData\Local\Temp\cc328Llo.s:661    .text.cyclic_buf_write:0000000000000056 .L0 
C:\Users\stapi\AppData\Local\Temp\cc328Llo.s:666    .text.cyclic_buf_write:0000000000000066 .L0 
C:\Users\stapi\AppData\Local\Temp\cc328Llo.s:667    .text.cyclic_buf_write:0000000000000066 .L0 
C:\Users\stapi\AppData\Local\Temp\cc328Llo.s:671    .text.cyclic_buf_write:0000000000000068 .L0 
C:\Users\stapi\AppData\Local\Temp\cc328Llo.s:673    .text.cyclic_buf_write:000000000000006c .L0 
C:\Users\stapi\AppData\Local\Temp\cc328Llo.s:674    .text.cyclic_buf_write:000000000000006c .L0 
C:\Users\stapi\AppData\Local\Temp\cc328Llo.s:677    .text.cyclic_buf_write:0000000000000074 .L0 
C:\Users\stapi\AppData\Local\Temp\cc328Llo.s:678    .text.cyclic_buf_write:0000000000000074 .L0 
C:\Users\stapi\AppData\Local\Temp\cc328Llo.s:679    .text.cyclic_buf_write:0000000000000074 .L0 
C:\Users\stapi\AppData\Local\Temp\cc328Llo.s:680    .text.cyclic_buf_write:0000000000000074 .L0 
C:\Users\stapi\AppData\Local\Temp\cc328Llo.s:681    .text.cyclic_buf_write:0000000000000074 .L0 
C:\Users\stapi\AppData\Local\Temp\cc328Llo.s:682    .text.cyclic_buf_write:0000000000000074 .L0 
C:\Users\stapi\AppData\Local\Temp\cc328Llo.s:683    .text.cyclic_buf_write:0000000000000074 .L0 
C:\Users\stapi\AppData\Local\Temp\cc328Llo.s:686    .text.cyclic_buf_write:0000000000000074 .L0 
C:\Users\stapi\AppData\Local\Temp\cc328Llo.s:689    .text.cyclic_buf_write:0000000000000074 .L0 
C:\Users\stapi\AppData\Local\Temp\cc328Llo.s:690    .text.cyclic_buf_write:0000000000000074 .L0 
C:\Users\stapi\AppData\Local\Temp\cc328Llo.s:694    .text.cyclic_buf_write:000000000000007c .L0 
C:\Users\stapi\AppData\Local\Temp\cc328Llo.s:699    .text.cyclic_buf_write:0000000000000088 .L0 
C:\Users\stapi\AppData\Local\Temp\cc328Llo.s:704    .text.cyclic_buf_write:0000000000000092 .L0 
C:\Users\stapi\AppData\Local\Temp\cc328Llo.s:706    .text.cyclic_buf_write:0000000000000096 .L0 
C:\Users\stapi\AppData\Local\Temp\cc328Llo.s:709    .text.cyclic_buf_write:000000000000009e .L0 
C:\Users\stapi\AppData\Local\Temp\cc328Llo.s:710    .text.cyclic_buf_write:000000000000009e .L0 
C:\Users\stapi\AppData\Local\Temp\cc328Llo.s:713    .text.cyclic_buf_write:00000000000000a4 .L0 
C:\Users\stapi\AppData\Local\Temp\cc328Llo.s:59     .text.cyclic_buf_init:0000000000000030 .L0 
C:\Users\stapi\AppData\Local\Temp\cc328Llo.s:108    .text.cyclic_buf_free:000000000000002e .L0 
C:\Users\stapi\AppData\Local\Temp\cc328Llo.s:161    .text.cyclic_buf_count:000000000000002a .L0 
C:\Users\stapi\AppData\Local\Temp\cc328Llo.s:216    .text.cyclic_buf_room:000000000000002c .L0 
C:\Users\stapi\AppData\Local\Temp\cc328Llo.s:327    .text.cyclic_buf_peek:0000000000000078 .L0 
C:\Users\stapi\AppData\Local\Temp\cc328Llo.s:458    .text.cyclic_buf_read:00000000000000a4 .L0 
C:\Users\stapi\AppData\Local\Temp\cc328Llo.s:538    .text.cyclic_buf_drop:0000000000000056 .L0 
C:\Users\stapi\AppData\Local\Temp\cc328Llo.s:593    .text.cyclic_buf_clear:0000000000000036 .L0 
C:\Users\stapi\AppData\Local\Temp\cc328Llo.s:716    .text.cyclic_buf_write:00000000000000a4 .L0 
                     .debug_frame:0000000000000000 .L0 
C:\Users\stapi\AppData\Local\Temp\cc328Llo.s:50     .text.cyclic_buf_init:0000000000000028 .L2
C:\Users\stapi\AppData\Local\Temp\cc328Llo.s:103    .text.cyclic_buf_free:000000000000002c .L15
C:\Users\stapi\AppData\Local\Temp\cc328Llo.s:86     .text.cyclic_buf_free:0000000000000018 .L7
C:\Users\stapi\AppData\Local\Temp\cc328Llo.s:149    .text.cyclic_buf_count:0000000000000026 .L20
C:\Users\stapi\AppData\Local\Temp\cc328Llo.s:155    .text.cyclic_buf_count:0000000000000028 .L19
C:\Users\stapi\AppData\Local\Temp\cc328Llo.s:204    .text.cyclic_buf_room:0000000000000028 .L24
C:\Users\stapi\AppData\Local\Temp\cc328Llo.s:210    .text.cyclic_buf_room:000000000000002a .L23
C:\Users\stapi\AppData\Local\Temp\cc328Llo.s:309    .text.cyclic_buf_peek:0000000000000072 .L29
C:\Users\stapi\AppData\Local\Temp\cc328Llo.s:277    .text.cyclic_buf_peek:000000000000004a .L27
C:\Users\stapi\AppData\Local\Temp\cc328Llo.s:290    .text.cyclic_buf_peek:0000000000000054 .L28
C:\Users\stapi\AppData\Local\Temp\cc328Llo.s:268    .text.cyclic_buf_peek:0000000000000040 .L36
C:\Users\stapi\AppData\Local\Temp\cc328Llo.s:439    .text.cyclic_buf_read:000000000000009e .L41
C:\Users\stapi\AppData\Local\Temp\cc328Llo.s:398    .text.cyclic_buf_read:0000000000000064 .L38
C:\Users\stapi\AppData\Local\Temp\cc328Llo.s:412    .text.cyclic_buf_read:000000000000006e .L39
C:\Users\stapi\AppData\Local\Temp\cc328Llo.s:387    .text.cyclic_buf_read:0000000000000052 .L40
C:\Users\stapi\AppData\Local\Temp\cc328Llo.s:528    .text.cyclic_buf_drop:0000000000000050 .L51
C:\Users\stapi\AppData\Local\Temp\cc328Llo.s:519    .text.cyclic_buf_drop:0000000000000046 .L49
C:\Users\stapi\AppData\Local\Temp\cc328Llo.s:510    .text.cyclic_buf_drop:000000000000003c .L50
C:\Users\stapi\AppData\Local\Temp\cc328Llo.s:583    .text.cyclic_buf_clear:0000000000000030 .L60
C:\Users\stapi\AppData\Local\Temp\cc328Llo.s:575    .text.cyclic_buf_clear:0000000000000026 .L59
C:\Users\stapi\AppData\Local\Temp\cc328Llo.s:669    .text.cyclic_buf_write:0000000000000068 .L67
C:\Users\stapi\AppData\Local\Temp\cc328Llo.s:685    .text.cyclic_buf_write:0000000000000074 .L68
C:\Users\stapi\AppData\Local\Temp\cc328Llo.s:658    .text.cyclic_buf_write:0000000000000056 .L69
C:\Users\stapi\AppData\Local\Temp\cc328Llo.s:1387   .debug_abbrev:0000000000000000 .Ldebug_abbrev0
C:\Users\stapi\AppData\Local\Temp\cc328Llo.s:2260   .debug_str:0000000000000062 .LASF31
C:\Users\stapi\AppData\Local\Temp\cc328Llo.s:2298   .debug_str:00000000000002ba .LASF32
C:\Users\stapi\AppData\Local\Temp\cc328Llo.s:2290   .debug_str:000000000000020d .LASF33
C:\Users\stapi\AppData\Local\Temp\cc328Llo.s:2214   .debug_ranges:0000000000000000 .Ldebug_ranges0
C:\Users\stapi\AppData\Local\Temp\cc328Llo.s:2242   .debug_line:0000000000000000 .Ldebug_line0
C:\Users\stapi\AppData\Local\Temp\cc328Llo.s:2312   .debug_str:0000000000000389 .LASF0
C:\Users\stapi\AppData\Local\Temp\cc328Llo.s:2246   .debug_str:000000000000000d .LASF3
C:\Users\stapi\AppData\Local\Temp\cc328Llo.s:2256   .debug_str:0000000000000043 .LASF1
C:\Users\stapi\AppData\Local\Temp\cc328Llo.s:2302   .debug_str:000000000000034d .LASF2
C:\Users\stapi\AppData\Local\Temp\cc328Llo.s:2272   .debug_str:000000000000019a .LASF4
C:\Users\stapi\AppData\Local\Temp\cc328Llo.s:2262   .debug_str:000000000000015b .LASF5
C:\Users\stapi\AppData\Local\Temp\cc328Llo.s:2310   .debug_str:0000000000000380 .LASF6
C:\Users\stapi\AppData\Local\Temp\cc328Llo.s:2274   .debug_str:00000000000001a5 .LASF7
C:\Users\stapi\AppData\Local\Temp\cc328Llo.s:2292   .debug_str:0000000000000296 .LASF8
C:\Users\stapi\AppData\Local\Temp\cc328Llo.s:2284   .debug_str:00000000000001e0 .LASF9
C:\Users\stapi\AppData\Local\Temp\cc328Llo.s:2278   .debug_str:00000000000001bc .LASF10
C:\Users\stapi\AppData\Local\Temp\cc328Llo.s:2252   .debug_str:0000000000000032 .LASF11
C:\Users\stapi\AppData\Local\Temp\cc328Llo.s:2304   .debug_str:0000000000000357 .LASF12
C:\Users\stapi\AppData\Local\Temp\cc328Llo.s:2296   .debug_str:00000000000002b5 .LASF13
C:\Users\stapi\AppData\Local\Temp\cc328Llo.s:2264   .debug_str:000000000000016e .LASF34
C:\Users\stapi\AppData\Local\Temp\cc328Llo.s:2254   .debug_str:000000000000003a .LASF14
C:\Users\stapi\AppData\Local\Temp\cc328Llo.s:2250   .debug_str:0000000000000028 .LASF15
C:\Users\stapi\AppData\Local\Temp\cc328Llo.s:2244   .debug_str:0000000000000000 .LASF16
C:\Users\stapi\AppData\Local\Temp\cc328Llo.s:2248   .debug_str:0000000000000017 .LASF19
C:\Users\stapi\AppData\Local\Temp\cc328Llo.s:598    .text.cyclic_buf_write:0000000000000000 .LFB9
C:\Users\stapi\AppData\Local\Temp\cc328Llo.s:714    .text.cyclic_buf_write:00000000000000a4 .LFE9
C:\Users\stapi\AppData\Local\Temp\cc328Llo.s:2280   .debug_str:00000000000001c9 .LASF17
C:\Users\stapi\AppData\Local\Temp\cc328Llo.s:1806   .debug_loc:0000000000000000 .LLST19
C:\Users\stapi\AppData\Local\Temp\cc328Llo.s:1828   .debug_loc:0000000000000037 .LLST20
C:\Users\stapi\AppData\Local\Temp\cc328Llo.s:1854   .debug_loc:0000000000000079 .LLST21
C:\Users\stapi\AppData\Local\Temp\cc328Llo.s:687    .text.cyclic_buf_write:0000000000000074 .LBB14
C:\Users\stapi\AppData\Local\Temp\cc328Llo.s:712    .text.cyclic_buf_write:00000000000000a4 .LBE14
C:\Users\stapi\AppData\Local\Temp\cc328Llo.s:2276   .debug_str:00000000000001b7 .LASF22
C:\Users\stapi\AppData\Local\Temp\cc328Llo.s:697    .text.cyclic_buf_write:0000000000000088 .LVL57
C:\Users\stapi\AppData\Local\Temp\cc328Llo.s:707    .text.cyclic_buf_write:000000000000009e .LVL58
C:\Users\stapi\AppData\Local\Temp\cc328Llo.s:631    .text.cyclic_buf_write:0000000000000026 .LVL51
C:\Users\stapi\AppData\Local\Temp\cc328Llo.s:652    .text.cyclic_buf_write:000000000000004c .LVL52
C:\Users\stapi\AppData\Local\Temp\cc328Llo.s:2316   .debug_str:00000000000003a5 .LASF18
C:\Users\stapi\AppData\Local\Temp\cc328Llo.s:2318   .debug_str:00000000000003ab .LASF20
C:\Users\stapi\AppData\Local\Temp\cc328Llo.s:543    .text.cyclic_buf_clear:0000000000000000 .LFB8
C:\Users\stapi\AppData\Local\Temp\cc328Llo.s:591    .text.cyclic_buf_clear:0000000000000036 .LFE8
C:\Users\stapi\AppData\Local\Temp\cc328Llo.s:1868   .debug_loc:000000000000009a .LLST18
C:\Users\stapi\AppData\Local\Temp\cc328Llo.s:567    .text.cyclic_buf_clear:0000000000000020 .LVL47
C:\Users\stapi\AppData\Local\Temp\cc328Llo.s:2308   .debug_str:0000000000000370 .LASF21
C:\Users\stapi\AppData\Local\Temp\cc328Llo.s:463    .text.cyclic_buf_drop:0000000000000000 .LFB7
C:\Users\stapi\AppData\Local\Temp\cc328Llo.s:536    .text.cyclic_buf_drop:0000000000000056 .LFE7
C:\Users\stapi\AppData\Local\Temp\cc328Llo.s:1890   .debug_loc:00000000000000d1 .LLST15
C:\Users\stapi\AppData\Local\Temp\cc328Llo.s:1912   .debug_loc:0000000000000108 .LLST16
C:\Users\stapi\AppData\Local\Temp\cc328Llo.s:502    .text.cyclic_buf_drop:0000000000000036 .LBB13
C:\Users\stapi\AppData\Local\Temp\cc328Llo.s:511    .text.cyclic_buf_drop:000000000000003c .LBE13
C:\Users\stapi\AppData\Local\Temp\cc328Llo.s:1930   .debug_loc:0000000000000134 .LLST17
C:\Users\stapi\AppData\Local\Temp\cc328Llo.s:487    .text.cyclic_buf_drop:000000000000001c .LVL40
C:\Users\stapi\AppData\Local\Temp\cc328Llo.s:2306   .debug_str:0000000000000360 .LASF23
C:\Users\stapi\AppData\Local\Temp\cc328Llo.s:332    .text.cyclic_buf_read:0000000000000000 .LFB6
C:\Users\stapi\AppData\Local\Temp\cc328Llo.s:456    .text.cyclic_buf_read:00000000000000a4 .LFE6
C:\Users\stapi\AppData\Local\Temp\cc328Llo.s:1942   .debug_loc:000000000000014c .LLST11
C:\Users\stapi\AppData\Local\Temp\cc328Llo.s:1964   .debug_loc:0000000000000183 .LLST12
C:\Users\stapi\AppData\Local\Temp\cc328Llo.s:1990   .debug_loc:00000000000001c5 .LLST13
C:\Users\stapi\AppData\Local\Temp\cc328Llo.s:414    .text.cyclic_buf_read:000000000000006e .LBB12
C:\Users\stapi\AppData\Local\Temp\cc328Llo.s:448    .text.cyclic_buf_read:000000000000009e .LBE12
C:\Users\stapi\AppData\Local\Temp\cc328Llo.s:2008   .debug_loc:00000000000001f1 .LLST14
C:\Users\stapi\AppData\Local\Temp\cc328Llo.s:424    .text.cyclic_buf_read:0000000000000082 .LVL35
C:\Users\stapi\AppData\Local\Temp\cc328Llo.s:433    .text.cyclic_buf_read:0000000000000098 .LVL36
C:\Users\stapi\AppData\Local\Temp\cc328Llo.s:361    .text.cyclic_buf_read:0000000000000022 .LVL30
C:\Users\stapi\AppData\Local\Temp\cc328Llo.s:381    .text.cyclic_buf_read:0000000000000048 .LVL31
C:\Users\stapi\AppData\Local\Temp\cc328Llo.s:2282   .debug_str:00000000000001d0 .LASF24
C:\Users\stapi\AppData\Local\Temp\cc328Llo.s:221    .text.cyclic_buf_peek:0000000000000000 .LFB5
C:\Users\stapi\AppData\Local\Temp\cc328Llo.s:325    .text.cyclic_buf_peek:0000000000000078 .LFE5
C:\Users\stapi\AppData\Local\Temp\cc328Llo.s:2015   .debug_loc:0000000000000204 .LLST7
C:\Users\stapi\AppData\Local\Temp\cc328Llo.s:2037   .debug_loc:000000000000023b .LLST8
C:\Users\stapi\AppData\Local\Temp\cc328Llo.s:2063   .debug_loc:000000000000027d .LLST9
C:\Users\stapi\AppData\Local\Temp\cc328Llo.s:2081   .debug_loc:00000000000002a9 .LLST10
C:\Users\stapi\AppData\Local\Temp\cc328Llo.s:272    .text.cyclic_buf_peek:0000000000000048 .LVL22
C:\Users\stapi\AppData\Local\Temp\cc328Llo.s:302    .text.cyclic_buf_peek:0000000000000066 .LVL26
C:\Users\stapi\AppData\Local\Temp\cc328Llo.s:249    .text.cyclic_buf_peek:0000000000000022 .LVL21
C:\Users\stapi\AppData\Local\Temp\cc328Llo.s:2300   .debug_str:000000000000033d .LASF25
C:\Users\stapi\AppData\Local\Temp\cc328Llo.s:2294   .debug_str:00000000000002a4 .LASF26
C:\Users\stapi\AppData\Local\Temp\cc328Llo.s:2314   .debug_str:0000000000000395 .LASF35
C:\Users\stapi\AppData\Local\Temp\cc328Llo.s:64     .text.cyclic_buf_free:0000000000000000 .LFB2
C:\Users\stapi\AppData\Local\Temp\cc328Llo.s:106    .text.cyclic_buf_free:000000000000002e .LFE2
C:\Users\stapi\AppData\Local\Temp\cc328Llo.s:2088   .debug_loc:00000000000002bc .LLST2
C:\Users\stapi\AppData\Local\Temp\cc328Llo.s:85     .text.cyclic_buf_free:0000000000000018 .LVL6
C:\Users\stapi\AppData\Local\Temp\cc328Llo.s:2266   .debug_str:0000000000000179 .LASF27
C:\Users\stapi\AppData\Local\Temp\cc328Llo.s:14     .text.cyclic_buf_init:0000000000000000 .LFB1
C:\Users\stapi\AppData\Local\Temp\cc328Llo.s:57     .text.cyclic_buf_init:0000000000000030 .LFE1
C:\Users\stapi\AppData\Local\Temp\cc328Llo.s:2103   .debug_loc:00000000000002e5 .LLST0
C:\Users\stapi\AppData\Local\Temp\cc328Llo.s:2114   .debug_loc:0000000000000303 .LLST1
C:\Users\stapi\AppData\Local\Temp\cc328Llo.s:44     .text.cyclic_buf_init:0000000000000022 .LVL3
C:\Users\stapi\AppData\Local\Temp\cc328Llo.s:113    .text.cyclic_buf_count:0000000000000000 .LFB3
C:\Users\stapi\AppData\Local\Temp\cc328Llo.s:159    .text.cyclic_buf_count:000000000000002a .LFE3
C:\Users\stapi\AppData\Local\Temp\cc328Llo.s:2133   .debug_loc:0000000000000330 .LLST3
C:\Users\stapi\AppData\Local\Temp\cc328Llo.s:130    .text.cyclic_buf_count:000000000000000a .LBB4
C:\Users\stapi\AppData\Local\Temp\cc328Llo.s:151    .text.cyclic_buf_count:0000000000000026 .LBE4
C:\Users\stapi\AppData\Local\Temp\cc328Llo.s:2152   .debug_loc:0000000000000364 .LLST4
C:\Users\stapi\AppData\Local\Temp\cc328Llo.s:166    .text.cyclic_buf_room:0000000000000000 .LFB4
C:\Users\stapi\AppData\Local\Temp\cc328Llo.s:214    .text.cyclic_buf_room:000000000000002c .LFE4
C:\Users\stapi\AppData\Local\Temp\cc328Llo.s:2159   .debug_loc:0000000000000377 .LLST5
C:\Users\stapi\AppData\Local\Temp\cc328Llo.s:183    .text.cyclic_buf_room:000000000000000a .LBB8
C:\Users\stapi\AppData\Local\Temp\cc328Llo.s:206    .text.cyclic_buf_room:0000000000000028 .LBE8
C:\Users\stapi\AppData\Local\Temp\cc328Llo.s:2178   .debug_loc:00000000000003ab .LLST6
C:\Users\stapi\AppData\Local\Temp\cc328Llo.s:2286   .debug_str:00000000000001f7 .LASF28
C:\Users\stapi\AppData\Local\Temp\cc328Llo.s:2270   .debug_str:0000000000000193 .LASF36
C:\Users\stapi\AppData\Local\Temp\cc328Llo.s:2258   .debug_str:0000000000000051 .LASF37
C:\Users\stapi\AppData\Local\Temp\cc328Llo.s:2268   .debug_str:0000000000000189 .LASF29
C:\Users\stapi\AppData\Local\Temp\cc328Llo.s:2288   .debug_str:0000000000000202 .LASF30
C:\Users\stapi\AppData\Local\Temp\cc328Llo.s:601    .text.cyclic_buf_write:0000000000000000 .LVL50
C:\Users\stapi\AppData\Local\Temp\cc328Llo.s:668    .text.cyclic_buf_write:0000000000000068 .LVL53
C:\Users\stapi\AppData\Local\Temp\cc328Llo.s:684    .text.cyclic_buf_write:0000000000000074 .LVL55
C:\Users\stapi\AppData\Local\Temp\cc328Llo.s:675    .text.cyclic_buf_write:000000000000006c .LVL54
C:\Users\stapi\AppData\Local\Temp\cc328Llo.s:546    .text.cyclic_buf_clear:0000000000000000 .LVL45
C:\Users\stapi\AppData\Local\Temp\cc328Llo.s:558    .text.cyclic_buf_clear:000000000000000e .LVL46
C:\Users\stapi\AppData\Local\Temp\cc328Llo.s:582    .text.cyclic_buf_clear:0000000000000030 .LVL48
C:\Users\stapi\AppData\Local\Temp\cc328Llo.s:588    .text.cyclic_buf_clear:0000000000000034 .LVL49
C:\Users\stapi\AppData\Local\Temp\cc328Llo.s:466    .text.cyclic_buf_drop:0000000000000000 .LVL39
C:\Users\stapi\AppData\Local\Temp\cc328Llo.s:527    .text.cyclic_buf_drop:0000000000000050 .LVL43
C:\Users\stapi\AppData\Local\Temp\cc328Llo.s:533    .text.cyclic_buf_drop:0000000000000054 .LVL44
C:\Users\stapi\AppData\Local\Temp\cc328Llo.s:504    .text.cyclic_buf_drop:0000000000000036 .LVL41
C:\Users\stapi\AppData\Local\Temp\cc328Llo.s:509    .text.cyclic_buf_drop:000000000000003c .LVL42
C:\Users\stapi\AppData\Local\Temp\cc328Llo.s:335    .text.cyclic_buf_read:0000000000000000 .LVL29
C:\Users\stapi\AppData\Local\Temp\cc328Llo.s:438    .text.cyclic_buf_read:000000000000009e .LVL37
C:\Users\stapi\AppData\Local\Temp\cc328Llo.s:453    .text.cyclic_buf_read:00000000000000a2 .LVL38
C:\Users\stapi\AppData\Local\Temp\cc328Llo.s:397    .text.cyclic_buf_read:0000000000000064 .LVL32
C:\Users\stapi\AppData\Local\Temp\cc328Llo.s:411    .text.cyclic_buf_read:000000000000006e .LVL33
C:\Users\stapi\AppData\Local\Temp\cc328Llo.s:419    .text.cyclic_buf_read:0000000000000076 .LVL34
C:\Users\stapi\AppData\Local\Temp\cc328Llo.s:224    .text.cyclic_buf_peek:0000000000000000 .LVL20
C:\Users\stapi\AppData\Local\Temp\cc328Llo.s:308    .text.cyclic_buf_peek:0000000000000072 .LVL27
C:\Users\stapi\AppData\Local\Temp\cc328Llo.s:322    .text.cyclic_buf_peek:0000000000000076 .LVL28
C:\Users\stapi\AppData\Local\Temp\cc328Llo.s:276    .text.cyclic_buf_peek:000000000000004a .LVL23
C:\Users\stapi\AppData\Local\Temp\cc328Llo.s:289    .text.cyclic_buf_peek:0000000000000054 .LVL24
C:\Users\stapi\AppData\Local\Temp\cc328Llo.s:297    .text.cyclic_buf_peek:000000000000005a .LVL25
C:\Users\stapi\AppData\Local\Temp\cc328Llo.s:67     .text.cyclic_buf_free:0000000000000000 .LVL4
C:\Users\stapi\AppData\Local\Temp\cc328Llo.s:80     .text.cyclic_buf_free:000000000000000e .LVL5
C:\Users\stapi\AppData\Local\Temp\cc328Llo.s:102    .text.cyclic_buf_free:000000000000002c .LVL7
C:\Users\stapi\AppData\Local\Temp\cc328Llo.s:18     .text.cyclic_buf_init:0000000000000000 .LVL0
C:\Users\stapi\AppData\Local\Temp\cc328Llo.s:28     .text.cyclic_buf_init:000000000000000c .LVL1
C:\Users\stapi\AppData\Local\Temp\cc328Llo.s:42     .text.cyclic_buf_init:000000000000001a .LVL2
C:\Users\stapi\AppData\Local\Temp\cc328Llo.s:116    .text.cyclic_buf_count:0000000000000000 .LVL8
C:\Users\stapi\AppData\Local\Temp\cc328Llo.s:126    .text.cyclic_buf_count:0000000000000008 .LVL9
C:\Users\stapi\AppData\Local\Temp\cc328Llo.s:148    .text.cyclic_buf_count:0000000000000026 .LVL12
C:\Users\stapi\AppData\Local\Temp\cc328Llo.s:154    .text.cyclic_buf_count:0000000000000028 .LVL13
C:\Users\stapi\AppData\Local\Temp\cc328Llo.s:129    .text.cyclic_buf_count:000000000000000a .LVL10
C:\Users\stapi\AppData\Local\Temp\cc328Llo.s:146    .text.cyclic_buf_count:0000000000000024 .LVL11
C:\Users\stapi\AppData\Local\Temp\cc328Llo.s:169    .text.cyclic_buf_room:0000000000000000 .LVL14
C:\Users\stapi\AppData\Local\Temp\cc328Llo.s:179    .text.cyclic_buf_room:0000000000000008 .LVL15
C:\Users\stapi\AppData\Local\Temp\cc328Llo.s:203    .text.cyclic_buf_room:0000000000000028 .LVL18
C:\Users\stapi\AppData\Local\Temp\cc328Llo.s:209    .text.cyclic_buf_room:000000000000002a .LVL19
C:\Users\stapi\AppData\Local\Temp\cc328Llo.s:182    .text.cyclic_buf_room:000000000000000a .LVL16
C:\Users\stapi\AppData\Local\Temp\cc328Llo.s:201    .text.cyclic_buf_room:0000000000000026 .LVL17
C:\Users\stapi\AppData\Local\Temp\cc328Llo.s:724    .debug_info:0000000000000000 .Ldebug_info0
C:\Users\stapi\AppData\Local\Temp\cc328Llo.s:269    .text.cyclic_buf_peek:0000000000000040 .LBB10
C:\Users\stapi\AppData\Local\Temp\cc328Llo.s:273    .text.cyclic_buf_peek:0000000000000048 .LBE10
C:\Users\stapi\AppData\Local\Temp\cc328Llo.s:292    .text.cyclic_buf_peek:0000000000000054 .LBB11
C:\Users\stapi\AppData\Local\Temp\cc328Llo.s:317    .text.cyclic_buf_peek:0000000000000072 .LBE11

UNDEFINED SYMBOLS
__riscv_save_1
sys_calloc
__riscv_restore_1
sys_mfree
__riscv_save_5
sys_memcpy
__riscv_restore_5
__riscv_save_6
__riscv_restore_6
__riscv_save_2
__riscv_restore_2
memset
